Certificate:
    Data:
        Version: 3 (0x2)
        Serial Number:
            09:d8:53:cb:a2:82:f2:65:bb:89:24:f1:86:85:ef:da
        Signature Algorithm: sha256WithRSAEncryption
        Issuer: CN=team259-net
        Validity
            Not Before: Nov  4 10:45:30 2023 GMT
            Not After : Oct 19 10:45:30 2026 GMT
        Subject: CN=team259-client
        Subject Public Key Info:
            Public Key Algorithm: rsaEncryption
                Public-Key: (2048 bit)
                Modulus:
                    00:df:bd:32:a6:b0:8d:46:97:cd:d3:67:d1:af:3c:
                    ce:a3:8a:35:14:0e:6e:56:c9:2b:f5:9c:3e:24:91:
                    2e:28:69:7c:26:4b:55:82:5b:1f:09:46:3e:f3:d9:
                    89:24:8e:3e:2a:da:b4:20:1b:5e:53:b2:6b:76:25:
                    67:87:65:7d:6a:ee:ea:e8:94:14:3a:e0:6f:60:87:
                    6e:39:c3:e6:5a:2d:63:50:b9:c7:8f:86:7a:25:7b:
                    6c:27:b4:57:3c:81:9a:e7:a7:de:c7:3d:d5:c2:9f:
                    50:b1:06:5e:f7:d3:a5:65:81:67:8f:56:0d:aa:af:
                    d4:ac:63:12:9b:fa:1c:81:6c:49:01:ea:dc:ef:47:
                    b1:87:6c:25:3f:83:7e:53:6a:1d:6c:74:4c:b4:85:
                    88:9a:f7:89:b1:ef:e4:e7:61:ad:43:24:b8:6d:90:
                    24:3b:24:07:c4:27:4e:be:39:b8:b3:0c:ae:f2:6a:
                    82:cf:b8:22:31:38:6a:3c:24:93:03:de:0d:36:75:
                    98:5d:83:40:e0:f1:8e:3d:b0:a4:85:8c:3a:dd:bc:
                    f9:a4:b8:27:cd:38:35:8a:89:00:99:4c:49:f7:80:
                    f4:e0:db:11:9c:ae:ed:0a:7d:d3:05:80:75:08:ab:
                    6c:5c:b8:9c:b7:89:88:4e:8b:0a:c1:4b:93:d1:40:
                    6f:67
                Exponent: 65537 (0x10001)
        X509v3 extensions:
            X509v3 Basic Constraints: 
                CA:FALSE
            X509v3 Subject Key Identifier: 
                2B:EF:08:D1:CA:AD:95:97:E0:7E:4B:7F:0E:86:19:A6:F5:7F:7B:0C
            X509v3 Authority Key Identifier: 
                keyid:99:A5:72:B7:0C:B3:4A:6B:69:A1:5E:6B:3F:71:29:06:0A:44:39:76
                DirName:/CN=team259-net
                serial:13:63:77:F3:46:7B:4C:A8:34:E3:23:59:C3:38:65:2F:B6:2D:8E:B3
            X509v3 Extended Key Usage: 
                TLS Web Client Authentication
            X509v3 Key Usage: 
                Digital Signature
    Signature Algorithm: sha256WithRSAEncryption
    Signature Value:
        37:8a:a1:02:19:2a:7c:1c:6f:49:8e:44:95:9f:6c:da:09:85:
        b1:3e:65:e2:ac:7d:01:16:91:64:65:9b:d4:7a:b8:16:7b:b2:
        f9:cf:61:2d:99:3e:19:16:ca:ba:29:17:6f:ef:01:8b:6d:55:
        bf:cc:74:b7:55:0d:af:5a:cb:1c:42:ff:26:9f:06:22:d5:4a:
        38:56:5e:97:0a:6a:45:4c:5a:d4:6e:2f:6f:6b:75:94:7f:b3:
        83:3f:30:7d:4e:66:22:42:10:70:9f:fb:28:23:c2:21:22:17:
        03:b2:4e:bf:10:98:c9:3a:7e:11:d7:1c:29:6e:b0:d8:de:f3:
        10:69:86:35:fe:2e:1d:a4:19:e6:28:8e:46:f5:91:08:08:fe:
        ef:8a:f6:eb:83:e7:22:10:99:21:67:ae:ba:8d:94:c6:2c:40:
        72:0e:91:b6:fa:6f:03:42:c6:ec:2c:9d:63:3a:c7:fd:13:34:
        c9:be:ed:41:2f:63:94:ea:94:ee:a7:ed:ab:13:f9:33:91:9d:
        c3:3c:e9:d0:9c:ef:64:a6:4f:eb:e5:64:7f:38:b8:ef:f1:56:
        eb:ac:e0:58:ed:db:43:05:d4:f7:0f:12:cf:98:2e:06:a9:3e:
        ed:e1:a0:cc:16:23:e7:3d:8d:3f:d9:ad:36:78:dd:db:d8:c2:
        6a:85:e0:40
-----BEGIN CERTIFICATE-----
MIIDXDCCAkSgAwIBAgIQCdhTy6KC8mW7iSTxhoXv2jANBgkqhkiG9w0BAQsFADAW
MRQwEgYDVQQDDAt0ZWFtMjU5LW5ldDAeFw0yMzExMDQxMDQ1MzBaFw0yNjEwMTkx
MDQ1MzBaMBkxFzAVBgNVBAMMDnRlYW0yNTktY2xpZW50MIIBIjANBgkqhkiG9w0B
AQEFAAOCAQ8AMIIBCgKCAQEA370yprCNRpfN02fRrzzOo4o1FA5uVskr9Zw+JJEu
KGl8JktVglsfCUY+89mJJI4+Ktq0IBteU7JrdiVnh2V9au7q6JQUOuBvYIduOcPm
Wi1jULnHj4Z6JXtsJ7RXPIGa56fexz3Vwp9QsQZe99OlZYFnj1YNqq/UrGMSm/oc
gWxJAerc70exh2wlP4N+U2odbHRMtIWImveJse/k52GtQyS4bZAkOyQHxCdOvjm4
swyu8mqCz7giMThqPCSTA94NNnWYXYNA4PGOPbCkhYw63bz5pLgnzTg1iokAmUxJ
94D04NsRnK7tCn3TBYB1CKtsXLict4mITosKwUuT0UBvZwIDAQABo4GiMIGfMAkG
A1UdEwQCMAAwHQYDVR0OBBYEFCvvCNHKrZWX4H5Lfw6GGab1f3sMMFEGA1UdIwRK
MEiAFJmlcrcMs0praaFeaz9xKQYKRDl2oRqkGDAWMRQwEgYDVQQDDAt0ZWFtMjU5
LW5ldIIUE2N380Z7TKg04yNZwzhlL7YtjrMwEwYDVR0lBAwwCgYIKwYBBQUHAwIw
CwYDVR0PBAQDAgeAMA0GCSqGSIb3DQEBCwUAA4IBAQA3iqECGSp8HG9JjkSVn2za
CYWxPmXirH0BFpFkZZvUergWe7L5z2EtmT4ZFsq6KRdv7wGLbVW/zHS3VQ2vWssc
Qv8mnwYi1Uo4Vl6XCmpFTFrUbi9va3WUf7ODPzB9TmYiQhBwn/soI8IhIhcDsk6/
EJjJOn4R1xwpbrDY3vMQaYY1/i4dpBnmKI5G9ZEICP7vivbrg+ciEJkhZ666jZTG
LEByDpG2+m8DQsbsLJ1jOsf9EzTJvu1BL2OU6pTup+2rE/kzkZ3DPOnQnO9kpk/r
5WR/OLjv8VbrrOBY7dtDBdT3DxLPmC4GqT7t4aDMFiPnPY0/2a02eN3b2MJqheBA
-----END CERTIFICATE-----
