Certificate:
    Data:
        Version: 3 (0x2)
        Serial Number:
            13:e9:ed:e3:29:79:eb:3f:ad:c4:c4:e0:5a:b6:ce:85
        Signature Algorithm: sha256WithRSAEncryption
        Issuer: CN=team259-net
        Validity
            Not Before: Nov  3 20:44:03 2023 GMT
            Not After : Oct 18 20:44:03 2026 GMT
        Subject: CN=team259-server
        Subject Public Key Info:
            Public Key Algorithm: rsaEncryption
                Public-Key: (2048 bit)
                Modulus:
                    00:8d:79:56:22:e2:dd:21:0c:8f:4f:5a:ba:b3:9a:
                    21:05:10:f7:b8:11:12:f5:37:5a:73:28:1c:b5:96:
                    39:61:c9:bb:3b:46:d8:58:7d:8c:72:9a:a8:d5:55:
                    67:c0:fd:2d:33:51:76:e5:e4:9b:15:cb:a5:43:b5:
                    11:4e:9d:b2:5f:fe:71:d1:2f:54:1a:09:97:0b:47:
                    12:9a:58:3d:49:7e:b9:db:b8:d9:9a:c6:23:d1:0c:
                    c4:0d:b2:3a:fd:50:27:1d:ab:3d:25:8a:cf:47:a2:
                    51:77:e6:89:c3:2f:50:27:91:7f:96:eb:c3:e5:f1:
                    cd:9d:67:22:2a:56:46:d4:86:4c:ba:a7:ce:c6:89:
                    bf:98:d6:80:3b:4f:31:18:6b:ae:1c:e7:26:8a:6e:
                    d2:5b:35:9a:4a:54:03:01:2c:d4:08:5a:98:49:8b:
                    f5:0a:3c:15:1e:73:a6:68:f8:0c:0d:30:00:ae:92:
                    71:c2:22:ea:ac:f7:cf:e8:45:bc:d2:a8:47:ab:18:
                    b4:cb:1b:b9:73:d3:c3:63:75:78:06:32:e8:35:af:
                    40:bc:b0:ab:19:92:c4:6b:f8:7d:06:4f:43:8f:b5:
                    40:74:d4:26:cf:b5:dd:11:6c:4b:d5:51:e3:3b:35:
                    8e:85:f4:12:3b:13:33:f4:b8:91:3a:0b:f0:af:7d:
                    0b:71
                Exponent: 65537 (0x10001)
        X509v3 extensions:
            X509v3 Basic Constraints: 
                CA:FALSE
            X509v3 Subject Key Identifier: 
                35:38:01:D2:47:7A:74:9C:EA:1B:EB:55:23:8B:7F:46:DD:B7:D5:C2
            X509v3 Authority Key Identifier: 
                keyid:52:11:38:11:24:4B:15:55:11:CE:AD:5C:B7:36:6A:43:84:40:6D:10
                DirName:/CN=team259-net
                serial:0E:C9:1F:39:61:DD:A4:0F:DB:D1:D1:1F:C8:D7:5A:79:74:2B:05:69
            X509v3 Extended Key Usage: 
                TLS Web Server Authentication
            X509v3 Key Usage: 
                Digital Signature, Key Encipherment
            X509v3 Subject Alternative Name: 
                DNS:team259-server
    Signature Algorithm: sha256WithRSAEncryption
    Signature Value:
        95:6a:53:44:8a:f5:43:0a:32:17:4a:cc:08:a6:54:f9:a9:da:
        94:5e:3e:2b:6f:d2:9d:f8:c7:47:cf:c9:ef:8c:b7:a3:1a:c6:
        67:4c:5d:e2:c4:68:cd:b8:d7:49:cf:83:a8:c8:df:92:69:f4:
        b3:8a:33:5e:e4:dc:d2:42:60:6b:f5:a0:d9:14:42:52:68:14:
        f6:44:51:ce:8c:99:58:b4:ff:dc:1f:41:9d:5a:8d:18:0b:21:
        24:46:2a:a2:47:4d:80:50:27:99:4d:bc:77:71:ae:27:7d:1d:
        5c:0c:c6:ee:84:3f:4d:40:20:be:88:97:c7:af:fc:f9:1f:bc:
        53:2f:27:9f:b6:36:46:ef:07:5a:c9:0e:3f:5d:bc:12:dd:dc:
        b7:8e:cd:5f:f8:ad:cd:26:f5:9d:ac:72:2a:dc:08:bb:28:97:
        22:b5:8e:01:e5:89:54:0e:7b:36:b3:c1:6c:47:f0:9a:92:e4:
        9b:c1:68:35:5e:db:b6:e7:19:77:3a:f1:b7:90:68:1c:8d:d5:
        68:ba:44:d9:fd:9f:fe:ee:41:15:49:5d:74:8a:01:3b:90:0d:
        51:68:cf:b7:ed:e7:46:66:9e:82:33:0d:d5:9e:34:53:d2:00:
        4d:eb:69:e1:49:86:30:64:08:13:63:44:16:74:8b:b1:40:e4:
        78:eb:12:f0
-----BEGIN CERTIFICATE-----
MIIDdzCCAl+gAwIBAgIQE+nt4yl56z+txMTgWrbOhTANBgkqhkiG9w0BAQsFADAW
MRQwEgYDVQQDDAt0ZWFtMjU5LW5ldDAeFw0yMzExMDMyMDQ0MDNaFw0yNjEwMTgy
MDQ0MDNaMBkxFzAVBgNVBAMMDnRlYW0yNTktc2VydmVyMIIBIjANBgkqhkiG9w0B
AQEFAAOCAQ8AMIIBCgKCAQEAjXlWIuLdIQyPT1q6s5ohBRD3uBES9TdacygctZY5
Ycm7O0bYWH2Mcpqo1VVnwP0tM1F25eSbFculQ7URTp2yX/5x0S9UGgmXC0cSmlg9
SX6527jZmsYj0QzEDbI6/VAnHas9JYrPR6JRd+aJwy9QJ5F/luvD5fHNnWciKlZG
1IZMuqfOxom/mNaAO08xGGuuHOcmim7SWzWaSlQDASzUCFqYSYv1CjwVHnOmaPgM
DTAArpJxwiLqrPfP6EW80qhHqxi0yxu5c9PDY3V4BjLoNa9AvLCrGZLEa/h9Bk9D
j7VAdNQmz7XdEWxL1VHjOzWOhfQSOxMz9LiROgvwr30LcQIDAQABo4G9MIG6MAkG
A1UdEwQCMAAwHQYDVR0OBBYEFDU4AdJHenSc6hvrVSOLf0bdt9XCMFEGA1UdIwRK
MEiAFFIROBEkSxVVEc6tXLc2akOEQG0QoRqkGDAWMRQwEgYDVQQDDAt0ZWFtMjU5
LW5ldIIUDskfOWHdpA/b0dEfyNdaeXQrBWkwEwYDVR0lBAwwCgYIKwYBBQUHAwEw
CwYDVR0PBAQDAgWgMBkGA1UdEQQSMBCCDnRlYW0yNTktc2VydmVyMA0GCSqGSIb3
DQEBCwUAA4IBAQCValNEivVDCjIXSswIplT5qdqUXj4rb9Kd+MdHz8nvjLejGsZn
TF3ixGjNuNdJz4OoyN+SafSzijNe5NzSQmBr9aDZFEJSaBT2RFHOjJlYtP/cH0Gd
Wo0YCyEkRiqiR02AUCeZTbx3ca4nfR1cDMbuhD9NQCC+iJfHr/z5H7xTLyeftjZG
7wdayQ4/XbwS3dy3js1f+K3NJvWdrHIq3Ai7KJcitY4B5YlUDns2s8FsR/CakuSb
wWg1Xtu25xl3OvG3kGgcjdVoukTZ/Z/+7kEVSV10igE7kA1RaM+37edGZp6CMw3V
njRT0gBN62nhSYYwZAgTY0QWdIuxQOR46xLw
-----END CERTIFICATE-----
