Certificate:
    Data:
        Version: 3 (0x2)
        Serial Number:
            8a:af:69:3d:32:2c:f9:02:8f:be:55:6f:ff:c5:b4:f9
        Signature Algorithm: sha256WithRSAEncryption
        Issuer: CN=team259-net
        Validity
            Not Before: Nov  4 11:32:46 2023 GMT
            Not After : Oct 19 11:32:46 2026 GMT
        Subject: CN=team259-client
        Subject Public Key Info:
            Public Key Algorithm: rsaEncryption
                Public-Key: (2048 bit)
                Modulus:
                    00:b6:bb:38:7c:26:0b:81:22:33:d2:53:df:38:b6:
                    4f:46:fc:f5:d0:e9:30:47:58:cb:b7:d3:d4:94:b9:
                    51:c1:d7:4f:24:03:c5:9c:bd:33:0e:25:81:39:0c:
                    19:30:fc:aa:2f:59:67:c3:5e:cc:4c:2c:52:57:23:
                    68:a7:5a:b2:1a:35:26:e6:b8:26:75:c0:64:88:61:
                    8b:43:d7:bc:44:af:62:48:87:0f:68:8b:f7:1d:8c:
                    19:26:a4:57:9c:e1:88:a0:a9:64:50:a9:b1:6d:e9:
                    d4:47:a9:ff:3e:f3:df:d4:d6:40:16:6c:aa:56:55:
                    69:a7:c7:fe:46:3c:4b:41:a3:81:e4:bc:3c:52:f2:
                    23:87:b2:b4:78:4f:03:11:2b:b5:f0:65:7c:7b:42:
                    c5:94:17:81:68:08:07:1f:ca:75:9e:6a:71:b0:10:
                    04:b4:ce:78:dd:ac:1f:a2:94:cf:30:1e:f8:9d:d5:
                    dd:9b:ec:f2:6d:79:f7:89:f0:6f:e8:7e:db:0a:c2:
                    24:3a:1c:83:6f:88:99:e0:db:38:e6:2e:0f:82:1b:
                    12:06:29:7f:ac:16:9a:f1:c1:71:df:37:42:c1:2b:
                    be:ad:72:5f:d6:ba:99:a8:75:81:fa:ef:b5:c9:02:
                    04:3c:0f:4b:94:fa:52:39:6f:5e:13:fe:b1:9f:59:
                    5e:09
                Exponent: 65537 (0x10001)
        X509v3 extensions:
            X509v3 Basic Constraints: 
                CA:FALSE
            X509v3 Subject Key Identifier: 
                AF:23:92:1F:80:2A:51:2F:96:F4:4E:B9:B2:BB:89:FB:44:A0:83:48
            X509v3 Authority Key Identifier: 
                keyid:85:D1:51:8C:CC:BF:9A:EB:85:01:12:15:8A:5B:A0:9F:25:BA:07:7B
                DirName:/CN=team259-net
                serial:0D:B4:5C:E2:54:73:C3:67:C4:0F:76:51:87:29:92:01:FD:7F:F0:C6
            X509v3 Extended Key Usage: 
                TLS Web Client Authentication
            X509v3 Key Usage: 
                Digital Signature
    Signature Algorithm: sha256WithRSAEncryption
    Signature Value:
        53:ff:07:98:43:1a:be:60:f9:91:56:ad:9a:cb:96:ac:34:b1:
        36:72:ab:7e:6b:97:0c:b7:ba:2f:e7:37:4b:82:b5:7c:4d:a6:
        64:c7:b6:96:bc:ce:a5:48:f7:b5:9d:39:cf:ce:5b:c7:46:98:
        29:d1:93:2c:11:e8:8d:a7:57:df:cd:fa:c4:4f:22:f3:d1:bf:
        04:b3:d2:03:9e:54:f2:44:8a:05:e7:a5:7b:28:c1:38:97:b6:
        01:0e:64:9e:91:f3:02:cb:fd:50:32:bf:48:a6:25:79:a6:8b:
        8e:08:3d:e3:68:e3:e7:f3:cc:75:36:90:b0:a7:5b:e0:51:c6:
        7a:71:af:9e:61:09:d4:2c:8f:9f:30:79:50:71:3d:ce:7b:66:
        67:65:42:c4:44:f4:31:c4:89:c5:d0:b2:46:4a:76:5b:be:27:
        98:ec:ee:3c:c5:3f:2e:0f:ef:ef:15:46:9b:a9:65:a5:6a:35:
        1a:cf:94:90:70:c8:c5:4d:b7:bc:84:b8:0e:5e:84:21:7d:86:
        a3:6d:47:56:46:8f:b5:da:7c:76:2a:48:99:3d:cb:2b:4c:63:
        a0:02:74:c9:36:92:2a:e7:96:f6:c1:e3:70:81:0d:aa:f5:a3:
        f2:28:59:5a:ab:02:6a:97:73:ca:cf:ed:60:07:8b:f8:f5:1f:
        1e:8d:8e:4e
-----BEGIN CERTIFICATE-----
MIIDXTCCAkWgAwIBAgIRAIqvaT0yLPkCj75Vb//FtPkwDQYJKoZIhvcNAQELBQAw
FjEUMBIGA1UEAwwLdGVhbTI1OS1uZXQwHhcNMjMxMTA0MTEzMjQ2WhcNMjYxMDE5
MTEzMjQ2WjAZMRcwFQYDVQQDDA50ZWFtMjU5LWNsaWVudDCCASIwDQYJKoZIhvcN
AQEBBQADggEPADCCAQoCggEBALa7OHwmC4EiM9JT3zi2T0b89dDpMEdYy7fT1JS5
UcHXTyQDxZy9Mw4lgTkMGTD8qi9ZZ8NezEwsUlcjaKdasho1Jua4JnXAZIhhi0PX
vESvYkiHD2iL9x2MGSakV5zhiKCpZFCpsW3p1Eep/z7z39TWQBZsqlZVaafH/kY8
S0GjgeS8PFLyI4eytHhPAxErtfBlfHtCxZQXgWgIBx/KdZ5qcbAQBLTOeN2sH6KU
zzAe+J3V3Zvs8m1594nwb+h+2wrCJDocg2+ImeDbOOYuD4IbEgYpf6wWmvHBcd83
QsErvq1yX9a6mah1gfrvtckCBDwPS5T6UjlvXhP+sZ9ZXgkCAwEAAaOBojCBnzAJ
BgNVHRMEAjAAMB0GA1UdDgQWBBSvI5IfgCpRL5b0Trmyu4n7RKCDSDBRBgNVHSME
SjBIgBSF0VGMzL+a64UBEhWKW6CfJboHe6EapBgwFjEUMBIGA1UEAwwLdGVhbTI1
OS1uZXSCFA20XOJUc8NnxA92UYcpkgH9f/DGMBMGA1UdJQQMMAoGCCsGAQUFBwMC
MAsGA1UdDwQEAwIHgDANBgkqhkiG9w0BAQsFAAOCAQEAU/8HmEMavmD5kVatmsuW
rDSxNnKrfmuXDLe6L+c3S4K1fE2mZMe2lrzOpUj3tZ05z85bx0aYKdGTLBHojadX
3836xE8i89G/BLPSA55U8kSKBeeleyjBOJe2AQ5knpHzAsv9UDK/SKYleaaLjgg9
42jj5/PMdTaQsKdb4FHGenGvnmEJ1CyPnzB5UHE9zntmZ2VCxET0McSJxdCyRkp2
W74nmOzuPMU/Lg/v7xVGm6llpWo1Gs+UkHDIxU23vIS4Dl6EIX2Go21HVkaPtdp8
dipImT3LK0xjoAJ0yTaSKueW9sHjcIENqvWj8ihZWqsCapdzys/tYAeL+PUfHo2O
Tg==
-----END CERTIFICATE-----
