Certificate:
    Data:
        Version: 3 (0x2)
        Serial Number:
            bc:de:34:15:29:6e:d0:8d:5e:ed:e5:4f:80:6a:06:9f
        Signature Algorithm: sha256WithRSAEncryption
        Issuer: CN=team259-net
        Validity
            Not Before: Nov  4 11:32:46 2023 GMT
            Not After : Oct 19 11:32:46 2026 GMT
        Subject: CN=team259-server
        Subject Public Key Info:
            Public Key Algorithm: rsaEncryption
                Public-Key: (2048 bit)
                Modulus:
                    00:9e:cd:f7:20:5a:55:41:3f:84:2b:e6:b7:ab:79:
                    03:56:f1:85:4a:df:40:67:69:31:b1:ab:05:d3:7e:
                    c8:5c:be:d2:c7:b6:a2:25:31:ed:7b:d6:52:c8:46:
                    38:68:7e:2c:fb:8e:cf:fb:aa:69:0b:71:0f:f9:3e:
                    9d:d0:c9:81:09:c2:03:88:76:05:5f:24:c4:f8:52:
                    7b:a1:a6:2b:77:7f:6a:40:6b:9e:4f:60:e0:33:b0:
                    59:eb:e3:13:e2:c1:24:b3:a9:f2:40:1c:b5:7e:2c:
                    94:f3:d1:b1:e1:6b:e9:a4:9e:f5:87:06:11:47:60:
                    41:13:36:d2:7f:52:88:01:95:b1:93:71:1c:4c:79:
                    8f:96:2a:75:c2:d4:f8:40:c6:fd:26:5a:75:93:04:
                    14:a3:45:e6:09:b9:24:6c:a4:aa:05:63:fe:e3:79:
                    2d:d6:03:ea:58:72:f2:a8:aa:4d:9d:7f:84:04:e2:
                    e6:ea:20:9e:40:8e:ae:08:42:e1:e6:e8:3d:3a:32:
                    04:b0:57:36:26:9a:1d:df:23:e9:82:4a:c5:e8:2a:
                    d8:c5:d5:e3:9a:0b:c2:92:ec:c1:05:2f:d3:2b:55:
                    85:2b:56:35:c6:35:b8:5e:1a:51:53:73:ed:0b:b2:
                    5c:62:0e:d4:c7:9b:6e:a1:8d:77:51:a8:4e:62:b8:
                    a6:ed
                Exponent: 65537 (0x10001)
        X509v3 extensions:
            X509v3 Basic Constraints: 
                CA:FALSE
            X509v3 Subject Key Identifier: 
                07:12:C8:28:EE:42:A1:EA:49:56:9A:1B:8D:62:17:57:1A:5D:08:A4
            X509v3 Authority Key Identifier: 
                keyid:85:D1:51:8C:CC:BF:9A:EB:85:01:12:15:8A:5B:A0:9F:25:BA:07:7B
                DirName:/CN=team259-net
                serial:0D:B4:5C:E2:54:73:C3:67:C4:0F:76:51:87:29:92:01:FD:7F:F0:C6
            X509v3 Extended Key Usage: 
                TLS Web Server Authentication
            X509v3 Key Usage: 
                Digital Signature, Key Encipherment
            X509v3 Subject Alternative Name: 
                DNS:team259-server
    Signature Algorithm: sha256WithRSAEncryption
    Signature Value:
        60:ae:41:ad:1b:6e:14:6c:95:8b:3b:e3:12:4c:fc:8c:67:dd:
        70:99:71:b4:b3:ab:f5:d7:bc:83:f6:49:73:08:52:20:11:31:
        2a:b2:97:f2:e2:41:ba:7d:45:3d:67:6c:50:7e:91:ed:ca:a7:
        06:70:5f:1e:e0:48:7c:72:8a:67:02:c5:9e:a8:0e:8e:02:2d:
        d7:fe:06:b8:13:62:83:55:a8:15:16:6f:0b:8b:d7:d0:03:e0:
        0f:8d:4f:90:48:2a:74:50:a4:93:83:88:ce:be:d9:a3:af:a3:
        60:c0:b4:4c:4b:e5:bf:a9:8a:cf:e0:ef:83:3d:bb:f9:6d:99:
        3d:d1:70:d1:8b:ce:9c:9d:d8:62:72:cb:b5:60:4a:43:6b:06:
        3f:a6:90:72:d6:f9:2e:5c:86:d7:eb:e8:5b:4c:bb:c0:21:a8:
        6e:8f:fa:6e:bd:dc:5c:10:b6:61:2b:e9:a9:a5:ed:7d:fb:c1:
        09:7f:b8:50:45:90:ed:bf:57:65:92:02:e9:da:ff:91:5b:ad:
        66:ca:ca:68:eb:84:fb:90:a7:f6:61:b9:d6:27:cd:f2:d2:87:
        01:b6:c9:37:08:e7:aa:49:03:c6:64:4b:74:66:a5:29:3a:e7:
        33:33:62:36:2a:33:a2:ca:9b:33:5a:65:6d:e7:23:7a:6c:17:
        ff:66:de:a9
-----BEGIN CERTIFICATE-----
MIIDeDCCAmCgAwIBAgIRALzeNBUpbtCNXu3lT4BqBp8wDQYJKoZIhvcNAQELBQAw
FjEUMBIGA1UEAwwLdGVhbTI1OS1uZXQwHhcNMjMxMTA0MTEzMjQ2WhcNMjYxMDE5
MTEzMjQ2WjAZMRcwFQYDVQQDDA50ZWFtMjU5LXNlcnZlcjCCASIwDQYJKoZIhvcN
AQEBBQADggEPADCCAQoCggEBAJ7N9yBaVUE/hCvmt6t5A1bxhUrfQGdpMbGrBdN+
yFy+0se2oiUx7XvWUshGOGh+LPuOz/uqaQtxD/k+ndDJgQnCA4h2BV8kxPhSe6Gm
K3d/akBrnk9g4DOwWevjE+LBJLOp8kActX4slPPRseFr6aSe9YcGEUdgQRM20n9S
iAGVsZNxHEx5j5YqdcLU+EDG/SZadZMEFKNF5gm5JGykqgVj/uN5LdYD6lhy8qiq
TZ1/hATi5uognkCOrghC4eboPToyBLBXNiaaHd8j6YJKxegq2MXV45oLwpLswQUv
0ytVhStWNcY1uF4aUVNz7QuyXGIO1MebbqGNd1GoTmK4pu0CAwEAAaOBvTCBujAJ
BgNVHRMEAjAAMB0GA1UdDgQWBBQHEsgo7kKh6klWmhuNYhdXGl0IpDBRBgNVHSME
SjBIgBSF0VGMzL+a64UBEhWKW6CfJboHe6EapBgwFjEUMBIGA1UEAwwLdGVhbTI1
OS1uZXSCFA20XOJUc8NnxA92UYcpkgH9f/DGMBMGA1UdJQQMMAoGCCsGAQUFBwMB
MAsGA1UdDwQEAwIFoDAZBgNVHREEEjAQgg50ZWFtMjU5LXNlcnZlcjANBgkqhkiG
9w0BAQsFAAOCAQEAYK5BrRtuFGyVizvjEkz8jGfdcJlxtLOr9de8g/ZJcwhSIBEx
KrKX8uJBun1FPWdsUH6R7cqnBnBfHuBIfHKKZwLFnqgOjgIt1/4GuBNig1WoFRZv
C4vX0APgD41PkEgqdFCkk4OIzr7Zo6+jYMC0TEvlv6mKz+Dvgz27+W2ZPdFw0YvO
nJ3YYnLLtWBKQ2sGP6aQctb5LlyG1+voW0y7wCGobo/6br3cXBC2YSvpqaXtffvB
CX+4UEWQ7b9XZZIC6dr/kVutZsrKaOuE+5Cn9mG51ifN8tKHAbbJNwjnqkkDxmRL
dGalKTrnMzNiNiozosqbM1plbecjemwX/2beqQ==
-----END CERTIFICATE-----
