Certificate:
    Data:
        Version: 3 (0x2)
        Serial Number:
            e9:1f:eb:d6:eb:ea:f2:a3:83:a6:ee:00:d1:e1:d0:02
        Signature Algorithm: sha256WithRSAEncryption
        Issuer: CN=team259-net
        Validity
            Not Before: Nov  4 10:45:30 2023 GMT
            Not After : Oct 19 10:45:30 2026 GMT
        Subject: CN=team259-server
        Subject Public Key Info:
            Public Key Algorithm: rsaEncryption
                Public-Key: (2048 bit)
                Modulus:
                    00:b1:ba:a3:5e:a6:25:31:f2:63:e6:2c:a6:f9:2b:
                    fb:25:9f:68:8d:2b:12:6b:72:2d:58:ed:5d:f4:76:
                    24:3d:fa:55:31:b5:79:4c:6e:b5:c1:b6:c5:85:6d:
                    a4:a4:3b:6f:34:a4:09:7d:66:f2:58:7a:ba:47:e9:
                    7b:7a:9b:87:b4:78:3e:c7:56:f7:62:6e:7e:d6:59:
                    ca:f0:c5:53:f4:13:4d:58:ce:2c:d0:01:f1:40:35:
                    32:1c:54:2c:0a:e0:d9:45:7a:40:8d:f1:db:b0:e8:
                    85:50:f8:8c:0d:9b:8e:58:12:ca:52:3c:91:42:32:
                    dc:c2:15:1d:67:3b:b2:8a:29:19:5e:c6:8a:60:88:
                    b3:51:b3:24:bc:ec:26:fa:53:5f:bf:e8:20:aa:68:
                    ea:e5:04:80:fe:36:b6:41:00:70:59:0a:0f:74:22:
                    1b:5b:db:bc:70:0c:be:f5:52:a2:12:db:dd:aa:cc:
                    a1:2c:91:e3:90:1f:a3:f4:d3:21:c5:55:88:18:b7:
                    87:39:d0:d0:7d:c8:2f:62:b5:5f:ea:5a:e7:b1:66:
                    96:2a:ba:7b:10:bc:1c:d9:bd:cc:01:9c:7a:da:11:
                    0b:5a:7c:9d:ac:a7:83:45:4a:d2:e3:54:ab:c2:6e:
                    58:d2:ea:d1:68:25:43:0b:87:e2:8c:ac:00:d2:19:
                    46:c1
                Exponent: 65537 (0x10001)
        X509v3 extensions:
            X509v3 Basic Constraints: 
                CA:FALSE
            X509v3 Subject Key Identifier: 
                AE:FE:5E:01:DC:06:E8:84:46:4F:F2:FF:F1:8C:50:D2:E7:61:50:4F
            X509v3 Authority Key Identifier: 
                keyid:99:A5:72:B7:0C:B3:4A:6B:69:A1:5E:6B:3F:71:29:06:0A:44:39:76
                DirName:/CN=team259-net
                serial:13:63:77:F3:46:7B:4C:A8:34:E3:23:59:C3:38:65:2F:B6:2D:8E:B3
            X509v3 Extended Key Usage: 
                TLS Web Server Authentication
            X509v3 Key Usage: 
                Digital Signature, Key Encipherment
            X509v3 Subject Alternative Name: 
                DNS:team259-server
    Signature Algorithm: sha256WithRSAEncryption
    Signature Value:
        7d:5c:bc:24:5d:1c:84:6a:07:01:e2:e2:ce:39:4d:26:cb:ae:
        66:8b:ed:2b:d3:bf:02:2c:cc:9c:40:f4:b1:7b:af:93:53:e4:
        ad:ce:f8:6b:ee:81:9c:87:a7:56:07:2f:58:7a:1e:32:58:28:
        bd:4f:67:5c:17:e3:cd:f1:bf:e5:50:9f:d5:73:71:06:f4:d0:
        c6:03:fe:65:3d:2d:42:3a:be:00:fd:4b:d1:17:84:ea:05:41:
        92:c5:62:1f:54:10:8d:2a:89:54:fb:8b:5d:5d:d7:50:9f:b8:
        67:e6:38:8c:d1:78:99:99:bc:5e:24:31:68:db:62:64:ba:65:
        da:d5:06:96:20:a6:a5:00:26:11:fd:92:f4:97:d2:08:b5:6d:
        38:fc:ea:a0:ad:8c:67:08:96:2c:d8:b3:29:26:47:f3:bf:4d:
        0c:06:47:ac:5a:b8:7f:cd:fc:46:d5:da:8f:03:cf:39:64:12:
        de:71:fb:2b:80:fc:2a:b5:4d:ef:01:b9:ac:4f:0a:0a:5e:80:
        81:4c:57:96:f8:fd:11:cf:28:7c:fe:8b:82:24:d9:0f:9e:96:
        06:27:d4:63:52:49:63:56:80:c0:7d:e8:9a:b2:39:fd:bf:af:
        6c:08:92:7e:69:b6:52:fc:8c:a6:56:e0:03:d6:25:dd:3c:ca:
        82:be:c5:22
-----BEGIN CERTIFICATE-----
MIIDeDCCAmCgAwIBAgIRAOkf69br6vKjg6buANHh0AIwDQYJKoZIhvcNAQELBQAw
FjEUMBIGA1UEAwwLdGVhbTI1OS1uZXQwHhcNMjMxMTA0MTA0NTMwWhcNMjYxMDE5
MTA0NTMwWjAZMRcwFQYDVQQDDA50ZWFtMjU5LXNlcnZlcjCCASIwDQYJKoZIhvcN
AQEBBQADggEPADCCAQoCggEBALG6o16mJTHyY+Yspvkr+yWfaI0rEmtyLVjtXfR2
JD36VTG1eUxutcG2xYVtpKQ7bzSkCX1m8lh6ukfpe3qbh7R4PsdW92JuftZZyvDF
U/QTTVjOLNAB8UA1MhxULArg2UV6QI3x27DohVD4jA2bjlgSylI8kUIy3MIVHWc7
soopGV7GimCIs1GzJLzsJvpTX7/oIKpo6uUEgP42tkEAcFkKD3QiG1vbvHAMvvVS
ohLb3arMoSyR45Afo/TTIcVViBi3hznQ0H3IL2K1X+pa57Fmliq6exC8HNm9zAGc
etoRC1p8nayng0VK0uNUq8JuWNLq0WglQwuH4oysANIZRsECAwEAAaOBvTCBujAJ
BgNVHRMEAjAAMB0GA1UdDgQWBBSu/l4B3AbohEZP8v/xjFDS52FQTzBRBgNVHSME
SjBIgBSZpXK3DLNKa2mhXms/cSkGCkQ5dqEapBgwFjEUMBIGA1UEAwwLdGVhbTI1
OS1uZXSCFBNjd/NGe0yoNOMjWcM4ZS+2LY6zMBMGA1UdJQQMMAoGCCsGAQUFBwMB
MAsGA1UdDwQEAwIFoDAZBgNVHREEEjAQgg50ZWFtMjU5LXNlcnZlcjANBgkqhkiG
9w0BAQsFAAOCAQEAfVy8JF0chGoHAeLizjlNJsuuZovtK9O/AizMnED0sXuvk1Pk
rc74a+6BnIenVgcvWHoeMlgovU9nXBfjzfG/5VCf1XNxBvTQxgP+ZT0tQjq+AP1L
0ReE6gVBksViH1QQjSqJVPuLXV3XUJ+4Z+Y4jNF4mZm8XiQxaNtiZLpl2tUGliCm
pQAmEf2S9JfSCLVtOPzqoK2MZwiWLNizKSZH879NDAZHrFq4f838RtXajwPPOWQS
3nH7K4D8KrVN7wG5rE8KCl6AgUxXlvj9Ec8ofP6LgiTZD56WBifUY1JJY1aAwH3o
mrI5/b+vbAiSfmm2UvyMplbgA9Yl3TzKgr7FIg==
-----END CERTIFICATE-----
