Certificate:
    Data:
        Version: 3 (0x2)
        Serial Number:
            43:e3:49:ff:ff:e6:18:33:e8:6a:51:e6:11:df:73:56
        Signature Algorithm: sha256WithRSAEncryption
        Issuer: CN=team195-net
        Validity
            Not Before: Nov  4 10:44:11 2023 GMT
            Not After : Oct 19 10:44:11 2026 GMT
        Subject: CN=team195-client
        Subject Public Key Info:
            Public Key Algorithm: rsaEncryption
                Public-Key: (2048 bit)
                Modulus:
                    00:bb:a5:70:74:b6:9a:e6:8b:f0:78:a4:f3:b6:eb:
                    57:5e:4c:21:4e:b8:db:08:5b:76:2c:88:fe:5f:45:
                    8d:cf:a1:24:44:88:57:ad:14:3e:d5:24:92:28:bc:
                    dc:4e:e8:f7:45:84:ef:2b:89:21:48:ae:33:7c:86:
                    96:4f:dd:87:d6:19:3c:e1:b4:02:f5:cd:2d:15:4a:
                    8b:a5:a9:a1:f7:39:34:db:75:b5:d1:d8:db:52:e1:
                    c8:35:ed:22:74:11:cf:a2:c6:0a:5b:91:5e:ce:26:
                    15:c3:6e:2f:c6:2f:60:80:9d:6f:53:3b:a0:a5:7b:
                    3a:b7:ab:c2:ba:f2:f5:9c:9d:0a:33:e5:bb:be:cc:
                    17:f3:9b:08:da:ca:42:cb:77:91:79:e0:de:ba:ca:
                    1d:c9:c0:ed:d3:2c:7e:06:64:33:a2:52:62:cb:f5:
                    94:1a:8c:c9:58:83:62:82:c0:c8:04:ed:7d:fe:15:
                    8a:98:2c:13:a4:d6:48:99:df:b4:44:d6:4d:25:a5:
                    30:ca:f0:c1:c8:6e:10:40:58:39:59:9b:ab:fc:70:
                    99:e3:0d:af:62:30:30:0d:de:a2:e0:c7:a5:70:a8:
                    94:0a:13:98:a8:c6:65:20:dc:28:ef:ae:2b:10:4c:
                    65:5d:e7:d2:2a:f1:05:ff:88:6e:21:54:25:06:72:
                    ba:37
                Exponent: 65537 (0x10001)
        X509v3 extensions:
            X509v3 Basic Constraints: 
                CA:FALSE
            X509v3 Subject Key Identifier: 
                3A:EC:6A:E3:43:A5:9F:B7:C6:68:38:FD:EA:9F:51:DC:81:1A:23:03
            X509v3 Authority Key Identifier: 
                keyid:3D:6D:9A:5F:34:FF:D0:1C:1C:AE:82:9C:40:E8:7F:0A:12:52:D0:44
                DirName:/CN=team195-net
                serial:56:1A:97:19:A8:4F:3C:27:52:76:98:BE:6D:87:5D:CB:4E:57:41:CB
            X509v3 Extended Key Usage: 
                TLS Web Client Authentication
            X509v3 Key Usage: 
                Digital Signature
    Signature Algorithm: sha256WithRSAEncryption
    Signature Value:
        5f:0a:6d:ea:99:53:fc:01:9a:3f:de:17:71:63:2d:32:b9:d8:
        a6:76:4a:79:f7:e2:45:26:4c:1a:1c:4d:7e:b1:e3:81:0e:a2:
        59:a5:e8:8e:0d:12:b7:6c:23:4e:1c:1d:b1:1e:b9:fe:05:58:
        4b:44:d5:27:6f:47:0a:7c:b6:82:f1:62:7c:43:db:40:2e:43:
        e1:ea:5f:d1:54:c1:b4:db:f7:47:a7:ad:68:c2:8d:e3:82:4a:
        54:b5:4b:13:0f:69:3a:57:23:59:be:4f:eb:7d:07:97:d0:1c:
        14:89:eb:14:93:99:86:52:ad:73:e7:d6:62:dd:7d:14:9c:8f:
        42:ef:e7:5e:c1:10:ab:ab:1b:3d:b6:1a:e4:33:af:0a:76:f1:
        e8:03:48:26:c5:65:d3:b7:07:70:14:b3:17:6b:bd:08:d8:20:
        d3:91:07:02:87:88:74:57:6e:2e:35:c5:07:14:c4:54:2c:54:
        32:68:77:11:02:8a:93:13:df:25:ee:fa:03:a3:cc:79:8c:a8:
        b1:28:3d:19:29:89:95:c5:b2:61:4b:23:5b:6c:ac:d7:7e:20:
        04:cd:54:16:65:d9:18:e6:2a:10:0e:cf:1b:94:d8:9f:4d:43:
        84:6a:2c:c3:11:78:8a:1c:64:fb:ff:2c:a0:39:95:cb:24:97:
        57:83:57:1d
-----BEGIN CERTIFICATE-----
MIIDXDCCAkSgAwIBAgIQQ+NJ///mGDPoalHmEd9zVjANBgkqhkiG9w0BAQsFADAW
MRQwEgYDVQQDDAt0ZWFtMTk1LW5ldDAeFw0yMzExMDQxMDQ0MTFaFw0yNjEwMTkx
MDQ0MTFaMBkxFzAVBgNVBAMMDnRlYW0xOTUtY2xpZW50MIIBIjANBgkqhkiG9w0B
AQEFAAOCAQ8AMIIBCgKCAQEAu6VwdLaa5ovweKTztutXXkwhTrjbCFt2LIj+X0WN
z6EkRIhXrRQ+1SSSKLzcTuj3RYTvK4khSK4zfIaWT92H1hk84bQC9c0tFUqLpamh
9zk023W10djbUuHINe0idBHPosYKW5FeziYVw24vxi9ggJ1vUzugpXs6t6vCuvL1
nJ0KM+W7vswX85sI2spCy3eReeDeusodycDt0yx+BmQzolJiy/WUGozJWINigsDI
BO19/hWKmCwTpNZImd+0RNZNJaUwyvDByG4QQFg5WZur/HCZ4w2vYjAwDd6i4Mel
cKiUChOYqMZlINwo764rEExlXefSKvEF/4huIVQlBnK6NwIDAQABo4GiMIGfMAkG
A1UdEwQCMAAwHQYDVR0OBBYEFDrsauNDpZ+3xmg4/eqfUdyBGiMDMFEGA1UdIwRK
MEiAFD1tml80/9AcHK6CnEDofwoSUtBEoRqkGDAWMRQwEgYDVQQDDAt0ZWFtMTk1
LW5ldIIUVhqXGahPPCdSdpi+bYddy05XQcswEwYDVR0lBAwwCgYIKwYBBQUHAwIw
CwYDVR0PBAQDAgeAMA0GCSqGSIb3DQEBCwUAA4IBAQBfCm3qmVP8AZo/3hdxYy0y
udimdkp59+JFJkwaHE1+seOBDqJZpeiODRK3bCNOHB2xHrn+BVhLRNUnb0cKfLaC
8WJ8Q9tALkPh6l/RVMG02/dHp61owo3jgkpUtUsTD2k6VyNZvk/rfQeX0BwUiesU
k5mGUq1z59Zi3X0UnI9C7+dewRCrqxs9thrkM68KdvHoA0gmxWXTtwdwFLMXa70I
2CDTkQcCh4h0V24uNcUHFMRULFQyaHcRAoqTE98l7voDo8x5jKixKD0ZKYmVxbJh
SyNbbKzXfiAEzVQWZdkY5ioQDs8blNifTUOEaizDEXiKHGT7/yygOZXLJJdXg1cd
-----END CERTIFICATE-----
