Certificate:
    Data:
        Version: 3 (0x2)
        Serial Number:
            88:90:80:61:6a:33:d0:1e:24:7c:1d:01:e5:9d:bb:21
        Signature Algorithm: sha256WithRSAEncryption
        Issuer: CN=team195-net
        Validity
            Not Before: Nov  4 11:31:28 2023 GMT
            Not After : Oct 19 11:31:28 2026 GMT
        Subject: CN=team195-server
        Subject Public Key Info:
            Public Key Algorithm: rsaEncryption
                Public-Key: (2048 bit)
                Modulus:
                    00:ca:68:9a:6f:bb:09:66:a3:fd:b4:10:9f:ec:c3:
                    6d:5b:b4:78:d9:94:48:e1:fa:a3:9c:19:7c:11:c0:
                    df:d2:50:1b:99:b7:38:4c:1d:4e:5f:c6:c2:86:fb:
                    b7:55:bd:5d:d3:32:cd:5d:e4:9c:0c:52:84:d0:ae:
                    c1:6c:a1:96:93:70:fa:4d:96:ab:0c:8c:68:2f:82:
                    08:b7:99:4a:e7:e2:53:5f:38:4a:c0:8a:07:7e:6f:
                    bf:af:fc:f3:d2:a7:74:12:f0:54:87:da:c3:d5:7a:
                    13:91:8c:af:5f:7d:56:df:49:4e:d7:96:7b:f8:29:
                    1e:cf:ea:b6:00:37:1f:6f:ae:39:fa:9a:aa:a5:22:
                    85:03:e8:f2:1c:2e:b3:03:c6:7e:20:06:ae:1c:0a:
                    79:87:21:18:c1:00:46:fc:44:a2:08:d5:7e:fd:4c:
                    b3:7e:f0:a8:81:86:8c:16:60:c0:a9:d6:83:d1:f3:
                    8d:b4:99:e8:08:63:ae:42:46:67:58:4e:9c:a1:1b:
                    00:4a:07:40:35:24:e5:9a:b7:96:9b:83:82:59:08:
                    7d:28:4a:db:80:d7:b4:21:08:c6:0c:4e:35:9d:c0:
                    d3:06:73:f2:2e:f1:a7:c6:80:03:b4:5b:d7:f8:46:
                    c4:df:ea:dd:e5:b2:b2:a6:89:cb:ac:3f:c1:a2:67:
                    ed:b1
                Exponent: 65537 (0x10001)
        X509v3 extensions:
            X509v3 Basic Constraints: 
                CA:FALSE
            X509v3 Subject Key Identifier: 
                11:B4:F3:39:20:A7:72:00:63:7F:FA:F7:44:74:D5:2C:37:6E:CE:97
            X509v3 Authority Key Identifier: 
                keyid:00:25:F6:9D:E7:65:32:78:0E:DA:7B:73:6E:CE:75:90:C4:88:D3:BC
                DirName:/CN=team195-net
                serial:21:A6:94:08:E3:EB:2D:01:C4:DF:6F:CA:BF:02:DA:57:4B:2C:8F
            X509v3 Extended Key Usage: 
                TLS Web Server Authentication
            X509v3 Key Usage: 
                Digital Signature, Key Encipherment
            X509v3 Subject Alternative Name: 
                DNS:team195-server
    Signature Algorithm: sha256WithRSAEncryption
    Signature Value:
        2c:0e:39:7f:30:a4:4a:74:a4:a5:f4:e1:52:bd:7d:8d:5b:02:
        a6:17:a8:1d:14:e6:07:14:3a:66:10:7e:ff:17:c6:f5:8f:7c:
        f9:52:09:b8:6f:40:10:15:7f:8b:05:c4:2a:a4:36:48:83:9e:
        8d:1b:98:9b:9a:8d:ad:4b:9c:13:aa:99:1b:ce:79:91:93:34:
        6b:9d:dc:94:10:55:f2:fb:7a:13:13:0e:03:00:0e:ec:cc:21:
        98:b2:18:24:5f:56:24:76:ad:c9:38:81:2d:99:71:31:fe:f3:
        05:2c:d1:25:1e:ab:6a:d3:e1:5e:b6:f8:d7:01:f4:9d:39:05:
        19:f7:f0:03:42:50:94:34:57:f5:b9:2f:f7:f3:a3:af:13:26:
        16:f9:34:5e:fd:36:e3:54:35:7e:e0:51:b0:1e:a2:4c:b2:f9:
        91:39:7f:3f:49:4b:01:c2:91:f7:4f:8f:5e:aa:9e:a1:92:81:
        fc:f4:8b:44:1f:54:c9:92:8c:11:4b:a9:50:45:fb:93:47:e0:
        e0:b6:b1:ee:98:ff:4c:71:c5:0f:db:0e:21:4f:43:24:26:89:
        b5:04:06:d1:d8:bd:6f:fe:fa:c4:74:00:33:1f:8c:ee:7c:81:
        7b:68:f2:6e:49:35:22:e3:50:0d:27:22:68:dc:b0:42:bf:3a:
        35:85:f1:e5
-----BEGIN CERTIFICATE-----
MIIDdzCCAl+gAwIBAgIRAIiQgGFqM9AeJHwdAeWduyEwDQYJKoZIhvcNAQELBQAw
FjEUMBIGA1UEAwwLdGVhbTE5NS1uZXQwHhcNMjMxMTA0MTEzMTI4WhcNMjYxMDE5
MTEzMTI4WjAZMRcwFQYDVQQDDA50ZWFtMTk1LXNlcnZlcjCCASIwDQYJKoZIhvcN
AQEBBQADggEPADCCAQoCggEBAMpomm+7CWaj/bQQn+zDbVu0eNmUSOH6o5wZfBHA
39JQG5m3OEwdTl/Gwob7t1W9XdMyzV3knAxShNCuwWyhlpNw+k2WqwyMaC+CCLeZ
SufiU184SsCKB35vv6/889KndBLwVIfaw9V6E5GMr199Vt9JTteWe/gpHs/qtgA3
H2+uOfqaqqUihQPo8hwuswPGfiAGrhwKeYchGMEARvxEogjVfv1Ms37wqIGGjBZg
wKnWg9HzjbSZ6AhjrkJGZ1hOnKEbAEoHQDUk5Zq3lpuDglkIfShK24DXtCEIxgxO
NZ3A0wZz8i7xp8aAA7Rb1/hGxN/q3eWysqaJy6w/waJn7bECAwEAAaOBvDCBuTAJ
BgNVHRMEAjAAMB0GA1UdDgQWBBQRtPM5IKdyAGN/+vdEdNUsN27OlzBQBgNVHSME
STBHgBQAJfad52UyeA7ae3NuznWQxIjTvKEapBgwFjEUMBIGA1UEAwwLdGVhbTE5
NS1uZXSCEyGmlAjj6y0BxN9vyr8C2ldLLI8wEwYDVR0lBAwwCgYIKwYBBQUHAwEw
CwYDVR0PBAQDAgWgMBkGA1UdEQQSMBCCDnRlYW0xOTUtc2VydmVyMA0GCSqGSIb3
DQEBCwUAA4IBAQAsDjl/MKRKdKSl9OFSvX2NWwKmF6gdFOYHFDpmEH7/F8b1j3z5
Ugm4b0AQFX+LBcQqpDZIg56NG5ibmo2tS5wTqpkbznmRkzRrndyUEFXy+3oTEw4D
AA7szCGYshgkX1Ykdq3JOIEtmXEx/vMFLNElHqtq0+FetvjXAfSdOQUZ9/ADQlCU
NFf1uS/386OvEyYW+TRe/TbjVDV+4FGwHqJMsvmROX8/SUsBwpH3T49eqp6hkoH8
9ItEH1TJkowRS6lQRfuTR+DgtrHumP9MccUP2w4hT0MkJom1BAbR2L1v/vrEdAAz
H4zufIF7aPJuSTUi41ANJyJo3LBCvzo1hfHl
-----END CERTIFICATE-----
