Certificate:
    Data:
        Version: 3 (0x2)
        Serial Number:
            d8:63:9a:fa:0b:c6:08:26:af:ba:17:2b:6c:08:8e:9c
        Signature Algorithm: sha256WithRSAEncryption
        Issuer: CN=team195-net
        Validity
            Not Before: Nov  3 20:42:49 2023 GMT
            Not After : Oct 18 20:42:49 2026 GMT
        Subject: CN=team195-server
        Subject Public Key Info:
            Public Key Algorithm: rsaEncryption
                Public-Key: (2048 bit)
                Modulus:
                    00:de:c3:ce:89:eb:bc:be:e1:b6:84:9d:16:19:a8:
                    43:8a:2a:bc:2f:e4:d5:64:77:75:7e:a4:30:10:37:
                    ff:c7:2c:c9:9d:d8:c9:0d:a5:a8:df:94:22:7e:df:
                    47:91:b6:16:af:9e:00:c3:06:15:e2:4a:06:1f:d8:
                    45:ce:c9:cd:a0:0e:ae:35:93:4a:3d:b4:bf:ee:ed:
                    df:31:6a:48:b8:52:a2:fc:3f:1c:4d:dc:3c:98:15:
                    4d:2d:3e:dc:26:c0:39:30:cd:0c:ac:74:16:0f:dc:
                    9b:1f:07:1e:47:75:ba:41:21:2f:9c:c3:2a:01:2a:
                    b6:ac:1e:2b:ae:c8:1d:7b:08:d2:29:d7:a1:41:c5:
                    28:1a:ab:4b:5b:91:e1:8b:f0:b0:b1:8f:0d:ad:16:
                    ac:8c:5e:81:b6:0d:a6:2d:6b:df:1d:05:5d:99:4a:
                    b5:52:4d:98:e6:11:9a:ca:3c:cd:8b:ea:83:79:98:
                    c6:55:0b:85:9f:d1:52:f8:f7:cd:88:fd:77:43:0f:
                    69:6b:f0:ad:db:df:2e:8c:94:13:37:05:a8:6f:f0:
                    41:f4:cf:c6:5b:33:e8:df:03:23:f6:e2:c1:28:00:
                    e3:4b:80:db:a9:91:69:45:65:a5:b5:c3:cc:e9:d6:
                    90:33:28:ce:0b:62:19:48:79:cb:bc:29:1d:4b:40:
                    3a:1f
                Exponent: 65537 (0x10001)
        X509v3 extensions:
            X509v3 Basic Constraints: 
                CA:FALSE
            X509v3 Subject Key Identifier: 
                84:6D:D0:DB:78:00:C4:45:D4:58:13:7C:E6:62:4D:23:BF:34:3A:CF
            X509v3 Authority Key Identifier: 
                keyid:99:78:14:16:40:28:2C:1D:99:28:DC:B9:A0:FB:03:92:F6:2B:5E:6C
                DirName:/CN=team195-net
                serial:77:44:E8:B7:DF:61:ED:1A:25:EA:4F:E5:90:69:87:DC:24:C5:51:71
            X509v3 Extended Key Usage: 
                TLS Web Server Authentication
            X509v3 Key Usage: 
                Digital Signature, Key Encipherment
            X509v3 Subject Alternative Name: 
                DNS:team195-server
    Signature Algorithm: sha256WithRSAEncryption
    Signature Value:
        0b:d2:cf:1f:97:c5:99:4b:ac:f4:21:48:50:43:e3:46:a9:23:
        0c:22:75:32:11:e5:85:6d:ae:ea:f9:56:3f:bf:96:d5:d4:ef:
        a5:96:37:5f:46:26:7f:80:a6:9c:ac:e5:7d:1b:96:da:f3:52:
        2d:ad:39:ea:e9:db:88:01:0f:1a:72:29:fd:6b:85:cb:13:99:
        ec:5b:40:75:e0:a9:3a:17:3c:09:8d:bd:f2:56:7c:fa:b6:2d:
        ee:a0:25:8c:a6:17:eb:0f:e3:b5:a6:38:cc:73:f2:80:9c:a4:
        85:09:6c:a1:87:c0:aa:90:34:ce:76:d2:ef:a9:b6:cb:be:12:
        83:69:bf:68:e4:a7:3d:e0:09:72:7b:e9:2a:d6:ea:af:68:e8:
        a5:f8:da:56:82:81:53:a6:18:74:cb:94:55:0b:e7:f9:ea:47:
        f7:52:30:a6:5a:d1:df:c4:f4:09:25:8a:41:16:92:ce:82:d7:
        04:fe:16:fc:f0:59:93:a0:20:94:08:fb:d9:4a:8d:ff:8e:12:
        95:57:c8:b6:d5:4f:57:53:e5:59:87:dd:74:92:b9:5a:27:ab:
        9f:90:38:49:82:cb:cb:28:ab:aa:6b:c1:85:d2:3f:39:cf:df:
        42:19:45:23:ce:04:43:59:eb:6e:45:55:ff:55:85:1d:13:33:
        f7:42:ae:b3
-----BEGIN CERTIFICATE-----
MIIDeDCCAmCgAwIBAgIRANhjmvoLxggmr7oXK2wIjpwwDQYJKoZIhvcNAQELBQAw
FjEUMBIGA1UEAwwLdGVhbTE5NS1uZXQwHhcNMjMxMTAzMjA0MjQ5WhcNMjYxMDE4
MjA0MjQ5WjAZMRcwFQYDVQQDDA50ZWFtMTk1LXNlcnZlcjCCASIwDQYJKoZIhvcN
AQEBBQADggEPADCCAQoCggEBAN7DzonrvL7htoSdFhmoQ4oqvC/k1WR3dX6kMBA3
/8csyZ3YyQ2lqN+UIn7fR5G2Fq+eAMMGFeJKBh/YRc7JzaAOrjWTSj20v+7t3zFq
SLhSovw/HE3cPJgVTS0+3CbAOTDNDKx0Fg/cmx8HHkd1ukEhL5zDKgEqtqweK67I
HXsI0inXoUHFKBqrS1uR4YvwsLGPDa0WrIxegbYNpi1r3x0FXZlKtVJNmOYRmso8
zYvqg3mYxlULhZ/RUvj3zYj9d0MPaWvwrdvfLoyUEzcFqG/wQfTPxlsz6N8DI/bi
wSgA40uA26mRaUVlpbXDzOnWkDMozgtiGUh5y7wpHUtAOh8CAwEAAaOBvTCBujAJ
BgNVHRMEAjAAMB0GA1UdDgQWBBSEbdDbeADERdRYE3zmYk0jvzQ6zzBRBgNVHSME
SjBIgBSZeBQWQCgsHZko3Lmg+wOS9itebKEapBgwFjEUMBIGA1UEAwwLdGVhbTE5
NS1uZXSCFHdE6LffYe0aJepP5ZBph9wkxVFxMBMGA1UdJQQMMAoGCCsGAQUFBwMB
MAsGA1UdDwQEAwIFoDAZBgNVHREEEjAQgg50ZWFtMTk1LXNlcnZlcjANBgkqhkiG
9w0BAQsFAAOCAQEAC9LPH5fFmUus9CFIUEPjRqkjDCJ1MhHlhW2u6vlWP7+W1dTv
pZY3X0Ymf4CmnKzlfRuW2vNSLa056unbiAEPGnIp/WuFyxOZ7FtAdeCpOhc8CY29
8lZ8+rYt7qAljKYX6w/jtaY4zHPygJykhQlsoYfAqpA0znbS76m2y74Sg2m/aOSn
PeAJcnvpKtbqr2jopfjaVoKBU6YYdMuUVQvn+epH91IwplrR38T0CSWKQRaSzoLX
BP4W/PBZk6AglAj72UqN/44SlVfIttVPV1PlWYfddJK5Wiern5A4SYLLyyirqmvB
hdI/Oc/fQhlFI84EQ1nrbkVV/1WFHRMz90Kusw==
-----END CERTIFICATE-----
