Certificate:
    Data:
        Version: 3 (0x2)
        Serial Number:
            06:7b:86:74:c6:9a:b9:9f:bd:af:7a:7a:7c:6c:a8:26
        Signature Algorithm: sha256WithRSAEncryption
        Issuer: CN=team253-net
        Validity
            Not Before: Nov  4 11:32:37 2023 GMT
            Not After : Oct 19 11:32:37 2026 GMT
        Subject: CN=team253-client
        Subject Public Key Info:
            Public Key Algorithm: rsaEncryption
                Public-Key: (2048 bit)
                Modulus:
                    00:94:11:ad:f4:89:79:bf:1f:5e:9d:1f:28:a9:40:
                    f7:57:ba:c4:38:2d:c1:58:4d:4b:8c:9a:c2:d2:80:
                    42:dc:8d:7a:08:6b:94:d2:2d:8c:bc:81:f7:94:e7:
                    ed:32:9b:5c:db:f5:62:d0:6f:74:f5:96:a7:09:a2:
                    c1:88:28:58:ae:b9:aa:19:6e:31:1a:f6:5a:a8:30:
                    de:87:4f:3e:9e:0e:7d:f9:f5:ad:59:2b:f6:96:c0:
                    b3:ca:3e:25:f5:73:ad:8a:bc:db:d8:73:10:2d:b4:
                    48:fe:da:fd:a2:95:33:18:03:bc:94:6d:4d:b1:ec:
                    ae:78:db:f2:52:fc:d7:90:c4:82:02:ad:22:28:d7:
                    5b:6c:a9:06:bc:81:12:e0:d1:26:e1:de:fe:b9:ff:
                    8b:24:8f:8f:5d:12:49:a9:6c:38:41:15:e1:61:b4:
                    9c:22:70:fa:f4:e0:09:f8:d2:a0:03:52:e7:df:aa:
                    69:1c:fb:8c:03:d4:bd:73:c0:5e:fa:12:e1:5c:e2:
                    bd:a8:79:37:95:b3:0e:7e:90:2d:a5:2c:7a:bd:b3:
                    85:fe:13:db:fe:33:d2:08:cd:88:26:7f:86:e1:2a:
                    5c:d1:ce:1c:14:e1:82:f8:bb:4f:97:c9:f2:ca:ad:
                    f9:4e:95:bc:d4:3f:42:0e:7e:7d:8c:de:77:c5:3f:
                    e9:01
                Exponent: 65537 (0x10001)
        X509v3 extensions:
            X509v3 Basic Constraints: 
                CA:FALSE
            X509v3 Subject Key Identifier: 
                05:90:40:8E:E4:3C:1B:F9:9E:6D:A5:9C:59:01:BD:AD:29:7D:30:FE
            X509v3 Authority Key Identifier: 
                keyid:19:33:90:96:D0:2F:9C:38:75:23:EF:6D:F4:AE:B5:71:23:78:CC:D0
                DirName:/CN=team253-net
                serial:61:DF:D7:EE:83:D6:A4:88:D1:1E:AE:97:FC:10:49:0F:FF:F6:F4:A0
            X509v3 Extended Key Usage: 
                TLS Web Client Authentication
            X509v3 Key Usage: 
                Digital Signature
    Signature Algorithm: sha256WithRSAEncryption
    Signature Value:
        ae:9c:1a:3a:c6:74:6b:58:20:dd:80:68:10:6d:fc:27:a8:d3:
        07:cd:07:38:dc:36:02:07:23:bb:de:55:8a:d5:dd:c8:53:81:
        41:99:0d:f4:9b:a3:4c:27:9b:6a:91:04:b5:a0:90:4e:0d:2f:
        62:e7:ef:0c:6e:4a:eb:f7:c4:91:93:5f:05:51:bc:4f:ee:71:
        f9:5b:7c:11:94:54:a5:0d:2f:88:fa:70:7e:37:1c:69:86:42:
        2d:b3:8b:98:cb:6f:ea:5e:61:9c:1b:bd:9b:1f:e6:a0:12:fa:
        46:9e:8a:c6:dd:a5:f2:45:a2:19:c5:68:c4:2a:f3:67:ed:cb:
        a9:36:32:b7:9d:fc:c7:91:11:82:9a:8c:a4:1b:b6:16:dc:07:
        26:ab:10:42:bd:6f:7c:3f:9b:42:3c:43:ba:c8:5e:c7:4f:69:
        90:23:2c:c4:84:b8:c9:76:18:58:af:f3:ff:90:56:75:ce:22:
        25:15:c9:df:6d:25:5d:87:29:49:80:53:c0:7f:fe:74:95:fd:
        1a:2a:8a:9e:93:5e:1e:10:7d:c8:f1:3e:77:2e:fb:87:b0:06:
        fc:7a:ab:be:09:a2:da:01:a8:f9:4e:63:1a:2a:af:99:b6:7c:
        a6:79:eb:bd:f5:23:33:6b:8e:41:29:b6:ab:e9:cf:05:08:e3:
        5a:f3:59:24
-----BEGIN CERTIFICATE-----
MIIDXDCCAkSgAwIBAgIQBnuGdMaauZ+9r3p6fGyoJjANBgkqhkiG9w0BAQsFADAW
MRQwEgYDVQQDDAt0ZWFtMjUzLW5ldDAeFw0yMzExMDQxMTMyMzdaFw0yNjEwMTkx
MTMyMzdaMBkxFzAVBgNVBAMMDnRlYW0yNTMtY2xpZW50MIIBIjANBgkqhkiG9w0B
AQEFAAOCAQ8AMIIBCgKCAQEAlBGt9Il5vx9enR8oqUD3V7rEOC3BWE1LjJrC0oBC
3I16CGuU0i2MvIH3lOftMptc2/Vi0G909ZanCaLBiChYrrmqGW4xGvZaqDDeh08+
ng59+fWtWSv2lsCzyj4l9XOtirzb2HMQLbRI/tr9opUzGAO8lG1NseyueNvyUvzX
kMSCAq0iKNdbbKkGvIES4NEm4d7+uf+LJI+PXRJJqWw4QRXhYbScInD69OAJ+NKg
A1Ln36ppHPuMA9S9c8Be+hLhXOK9qHk3lbMOfpAtpSx6vbOF/hPb/jPSCM2IJn+G
4Spc0c4cFOGC+LtPl8nyyq35TpW81D9CDn59jN53xT/pAQIDAQABo4GiMIGfMAkG
A1UdEwQCMAAwHQYDVR0OBBYEFAWQQI7kPBv5nm2lnFkBva0pfTD+MFEGA1UdIwRK
MEiAFBkzkJbQL5w4dSPvbfSutXEjeMzQoRqkGDAWMRQwEgYDVQQDDAt0ZWFtMjUz
LW5ldIIUYd/X7oPWpIjRHq6X/BBJD//29KAwEwYDVR0lBAwwCgYIKwYBBQUHAwIw
CwYDVR0PBAQDAgeAMA0GCSqGSIb3DQEBCwUAA4IBAQCunBo6xnRrWCDdgGgQbfwn
qNMHzQc43DYCByO73lWK1d3IU4FBmQ30m6NMJ5tqkQS1oJBODS9i5+8Mbkrr98SR
k18FUbxP7nH5W3wRlFSlDS+I+nB+NxxphkIts4uYy2/qXmGcG72bH+agEvpGnorG
3aXyRaIZxWjEKvNn7cupNjK3nfzHkRGCmoykG7YW3AcmqxBCvW98P5tCPEO6yF7H
T2mQIyzEhLjJdhhYr/P/kFZ1ziIlFcnfbSVdhylJgFPAf/50lf0aKoqek14eEH3I
8T53LvuHsAb8equ+CaLaAaj5TmMaKq+Ztnymeeu99SMza45BKbar6c8FCONa81kk
-----END CERTIFICATE-----
