Certificate:
    Data:
        Version: 3 (0x2)
        Serial Number:
            56:06:14:ec:19:50:17:42:2a:dc:c3:98:56:7c:28:78
        Signature Algorithm: sha256WithRSAEncryption
        Issuer: CN=team253-net
        Validity
            Not Before: Nov  4 10:45:24 2023 GMT
            Not After : Oct 19 10:45:24 2026 GMT
        Subject: CN=team253-client
        Subject Public Key Info:
            Public Key Algorithm: rsaEncryption
                Public-Key: (2048 bit)
                Modulus:
                    00:ce:79:ae:c5:9a:71:38:11:03:e1:59:c5:90:a7:
                    31:70:ee:1f:da:77:88:8f:99:10:3f:9d:09:46:90:
                    2e:cc:b6:bb:b9:29:6f:37:a3:a1:84:7c:8d:6a:f0:
                    1b:bd:7b:85:e7:b3:f5:31:de:6c:e7:5c:10:86:e2:
                    6c:5b:3d:0b:e5:4e:f0:e3:bc:b1:aa:90:15:d9:d6:
                    13:ad:2a:dc:2c:b1:76:ed:72:c2:ad:be:58:04:82:
                    82:35:7e:7c:77:5c:f0:ae:fb:97:91:20:37:2a:85:
                    c4:83:cf:6a:88:65:d4:f4:fa:18:e5:64:ab:f0:3a:
                    0b:83:d8:4b:34:b4:de:b4:9f:3e:13:8e:0b:f3:19:
                    bd:63:fd:75:c4:b6:e1:bb:48:4e:d1:24:1d:4a:6a:
                    9e:9b:f6:c1:8b:02:db:b7:53:de:17:4e:f9:41:fc:
                    56:f3:4c:89:38:f2:aa:c7:88:eb:ad:0f:1f:b2:c3:
                    06:e4:97:7b:42:04:c8:b6:51:ed:4f:ff:b5:ce:f4:
                    16:57:82:5f:47:3a:d5:be:3c:85:e8:5a:60:cd:f8:
                    43:82:61:28:a5:ae:24:8d:a3:7a:6c:c2:ff:19:35:
                    e9:87:09:7c:d2:aa:1e:5b:00:aa:bd:ac:b5:24:eb:
                    8b:f9:6e:52:4d:cb:1e:5b:76:e9:7f:c6:f2:fd:0b:
                    6a:ab
                Exponent: 65537 (0x10001)
        X509v3 extensions:
            X509v3 Basic Constraints: 
                CA:FALSE
            X509v3 Subject Key Identifier: 
                47:12:E6:01:80:DC:FE:BF:0B:91:18:44:AD:E5:A2:9C:1E:0B:61:76
            X509v3 Authority Key Identifier: 
                keyid:4D:DF:EC:DE:90:1E:6A:7A:84:DB:B1:F7:E7:B9:E5:DD:D1:33:97:DF
                DirName:/CN=team253-net
                serial:39:3F:F7:6F:53:E4:81:5E:E2:BF:F0:8F:A8:C1:CC:BB:BB:A8:D5:55
            X509v3 Extended Key Usage: 
                TLS Web Client Authentication
            X509v3 Key Usage: 
                Digital Signature
    Signature Algorithm: sha256WithRSAEncryption
    Signature Value:
        2a:20:6b:53:f5:4f:29:39:e9:92:92:a3:eb:4b:8f:90:51:75:
        88:59:84:91:e9:0e:b7:90:26:5b:da:9e:71:04:42:a4:9c:f0:
        61:4a:7a:2c:ab:6f:78:af:fe:99:42:bb:25:f9:39:4a:90:d4:
        75:33:a9:93:24:e7:6a:1f:2d:a9:9c:79:a2:e0:f0:3e:e0:43:
        7f:f4:03:da:3d:77:78:9b:f0:c2:67:f9:16:70:84:8d:81:ed:
        43:23:5e:71:32:c2:18:ae:b8:22:07:6e:37:42:d7:2c:f7:de:
        6e:bf:c2:36:b2:7a:bd:62:80:47:28:b2:5b:ed:91:2b:3d:f3:
        84:d8:f6:a6:7f:0e:43:c6:9d:46:60:f5:8e:20:ff:42:2f:78:
        59:d5:a4:8f:71:84:7f:ce:20:f2:78:fd:7c:48:34:53:99:69:
        5a:66:01:5c:0c:3d:a8:a7:87:7f:b7:68:99:b3:a4:4c:32:0c:
        a0:15:44:65:d7:b2:8c:0c:50:45:71:18:43:19:de:b1:4f:98:
        28:14:4d:67:43:db:4a:9c:f1:c4:e1:20:94:37:ab:7e:74:35:
        51:7f:ad:a8:9d:ec:01:8a:7d:d7:3c:22:a6:d9:91:63:11:36:
        f5:ae:7f:3f:2e:b5:e0:f1:c2:c7:c0:a9:40:fb:21:43:25:11:
        94:9c:8d:ea
-----BEGIN CERTIFICATE-----
MIIDXDCCAkSgAwIBAgIQVgYU7BlQF0Iq3MOYVnwoeDANBgkqhkiG9w0BAQsFADAW
MRQwEgYDVQQDDAt0ZWFtMjUzLW5ldDAeFw0yMzExMDQxMDQ1MjRaFw0yNjEwMTkx
MDQ1MjRaMBkxFzAVBgNVBAMMDnRlYW0yNTMtY2xpZW50MIIBIjANBgkqhkiG9w0B
AQEFAAOCAQ8AMIIBCgKCAQEAznmuxZpxOBED4VnFkKcxcO4f2neIj5kQP50JRpAu
zLa7uSlvN6OhhHyNavAbvXuF57P1Md5s51wQhuJsWz0L5U7w47yxqpAV2dYTrSrc
LLF27XLCrb5YBIKCNX58d1zwrvuXkSA3KoXEg89qiGXU9PoY5WSr8DoLg9hLNLTe
tJ8+E44L8xm9Y/11xLbhu0hO0SQdSmqem/bBiwLbt1PeF075QfxW80yJOPKqx4jr
rQ8fssMG5Jd7QgTItlHtT/+1zvQWV4JfRzrVvjyF6FpgzfhDgmEopa4kjaN6bML/
GTXphwl80qoeWwCqvay1JOuL+W5STcseW3bpf8by/QtqqwIDAQABo4GiMIGfMAkG
A1UdEwQCMAAwHQYDVR0OBBYEFEcS5gGA3P6/C5EYRK3lopweC2F2MFEGA1UdIwRK
MEiAFE3f7N6QHmp6hNux9+e55d3RM5ffoRqkGDAWMRQwEgYDVQQDDAt0ZWFtMjUz
LW5ldIIUOT/3b1PkgV7iv/CPqMHMu7uo1VUwEwYDVR0lBAwwCgYIKwYBBQUHAwIw
CwYDVR0PBAQDAgeAMA0GCSqGSIb3DQEBCwUAA4IBAQAqIGtT9U8pOemSkqPrS4+Q
UXWIWYSR6Q63kCZb2p5xBEKknPBhSnosq294r/6ZQrsl+TlKkNR1M6mTJOdqHy2p
nHmi4PA+4EN/9APaPXd4m/DCZ/kWcISNge1DI15xMsIYrrgiB243Qtcs995uv8I2
snq9YoBHKLJb7ZErPfOE2Pamfw5Dxp1GYPWOIP9CL3hZ1aSPcYR/ziDyeP18SDRT
mWlaZgFcDD2op4d/t2iZs6RMMgygFURl17KMDFBFcRhDGd6xT5goFE1nQ9tKnPHE
4SCUN6t+dDVRf62onewBin3XPCKm2ZFjETb1rn8/LrXg8cLHwKlA+yFDJRGUnI3q
-----END CERTIFICATE-----
