Certificate:
    Data:
        Version: 3 (0x2)
        Serial Number:
            58:4f:58:8f:1a:83:82:94:cb:a2:62:05:4c:3b:9a:91
        Signature Algorithm: sha256WithRSAEncryption
        Issuer: CN=team253-net
        Validity
            Not Before: Nov  4 11:32:38 2023 GMT
            Not After : Oct 19 11:32:38 2026 GMT
        Subject: CN=team253-server
        Subject Public Key Info:
            Public Key Algorithm: rsaEncryption
                Public-Key: (2048 bit)
                Modulus:
                    00:8f:6f:a0:16:94:ad:69:23:30:4d:b2:90:99:c3:
                    3a:22:82:01:17:c2:e5:49:50:cf:e4:3f:a8:bc:55:
                    f0:d1:84:1c:07:53:50:be:46:34:b4:a4:87:f7:e0:
                    79:69:55:ce:6a:b4:42:7b:b8:02:b6:46:d7:00:4e:
                    09:59:29:ba:3d:8a:5d:b6:da:d2:74:39:ad:73:95:
                    d3:89:0b:6f:f2:8c:19:05:8b:2b:d1:c9:8a:9e:52:
                    25:f2:d3:0e:e0:19:a9:73:b9:98:2e:08:46:35:ac:
                    de:9c:bf:0b:a7:6c:68:96:4e:cc:30:a6:d5:8a:cf:
                    05:01:d2:9d:42:f3:01:61:1d:38:0f:9f:8f:fc:ce:
                    05:7b:3c:39:75:f4:7f:43:e1:09:fc:ca:cc:57:5f:
                    09:97:f0:45:15:ee:a8:0c:4f:f4:41:20:25:ac:19:
                    d8:84:28:da:e4:3b:3b:1f:f7:a1:87:99:a9:9a:5e:
                    99:3b:3c:d0:a8:29:90:5e:8b:28:97:b1:b0:e6:47:
                    c7:dd:03:3c:78:5e:a4:79:d9:8e:6a:d7:82:25:68:
                    27:ea:b6:14:4b:8b:23:96:d2:0a:53:3b:c1:d8:4c:
                    05:ea:e4:13:ae:f1:10:cf:f8:e7:7c:b0:9b:0c:a8:
                    8e:76:2b:af:94:d6:02:90:c2:67:63:ea:55:9d:f2:
                    ee:9f
                Exponent: 65537 (0x10001)
        X509v3 extensions:
            X509v3 Basic Constraints: 
                CA:FALSE
            X509v3 Subject Key Identifier: 
                1C:15:CB:E5:80:18:47:1A:4C:B0:FE:48:D4:49:CF:DF:18:34:73:F4
            X509v3 Authority Key Identifier: 
                keyid:19:33:90:96:D0:2F:9C:38:75:23:EF:6D:F4:AE:B5:71:23:78:CC:D0
                DirName:/CN=team253-net
                serial:61:DF:D7:EE:83:D6:A4:88:D1:1E:AE:97:FC:10:49:0F:FF:F6:F4:A0
            X509v3 Extended Key Usage: 
                TLS Web Server Authentication
            X509v3 Key Usage: 
                Digital Signature, Key Encipherment
            X509v3 Subject Alternative Name: 
                DNS:team253-server
    Signature Algorithm: sha256WithRSAEncryption
    Signature Value:
        0b:76:86:80:c3:ac:da:1d:88:04:b8:b2:b3:0f:c1:cf:50:5f:
        db:2a:b2:da:fb:88:95:d0:0f:c6:37:b8:86:58:cf:a4:0b:42:
        4e:ea:f4:b3:21:79:ac:0e:29:e6:a2:71:c6:cd:cb:19:78:d4:
        28:f6:95:2c:b6:67:7e:ae:1f:72:fa:03:21:60:6d:ae:aa:ec:
        19:47:5c:1a:99:09:55:da:57:4e:6a:3b:8c:53:14:4e:f3:60:
        42:d7:6a:b9:52:17:d7:d8:0d:3a:3d:81:9e:0a:34:4f:85:ea:
        a2:7a:cb:b1:07:8f:22:bd:b9:69:fb:2f:b4:45:83:05:ce:1f:
        db:cf:9d:f7:65:f8:d5:34:fb:14:27:19:14:da:fb:e0:0b:cb:
        4f:6b:3e:3b:14:80:36:d6:b8:39:fd:12:c3:65:c5:9e:19:69:
        fb:d4:08:6d:25:2e:cc:1f:bc:ed:fb:30:98:38:b9:f1:8e:f7:
        94:ba:50:d8:5a:6a:92:ff:dc:28:65:cf:28:a4:2f:12:30:af:
        9c:18:5b:98:45:16:1a:a8:aa:86:56:ea:1a:1a:21:a0:29:78:
        fc:e5:16:97:dd:35:72:b9:3d:98:73:ac:e7:70:56:eb:74:b1:
        d5:76:1b:28:65:12:72:f7:e1:e5:69:11:02:a4:a1:9e:55:96:
        10:92:ad:b5
-----BEGIN CERTIFICATE-----
MIIDdzCCAl+gAwIBAgIQWE9YjxqDgpTLomIFTDuakTANBgkqhkiG9w0BAQsFADAW
MRQwEgYDVQQDDAt0ZWFtMjUzLW5ldDAeFw0yMzExMDQxMTMyMzhaFw0yNjEwMTkx
MTMyMzhaMBkxFzAVBgNVBAMMDnRlYW0yNTMtc2VydmVyMIIBIjANBgkqhkiG9w0B
AQEFAAOCAQ8AMIIBCgKCAQEAj2+gFpStaSMwTbKQmcM6IoIBF8LlSVDP5D+ovFXw
0YQcB1NQvkY0tKSH9+B5aVXOarRCe7gCtkbXAE4JWSm6PYpdttrSdDmtc5XTiQtv
8owZBYsr0cmKnlIl8tMO4Bmpc7mYLghGNazenL8Lp2xolk7MMKbVis8FAdKdQvMB
YR04D5+P/M4Fezw5dfR/Q+EJ/MrMV18Jl/BFFe6oDE/0QSAlrBnYhCja5Ds7H/eh
h5mpml6ZOzzQqCmQXosol7Gw5kfH3QM8eF6kedmOateCJWgn6rYUS4sjltIKUzvB
2EwF6uQTrvEQz/jnfLCbDKiOdiuvlNYCkMJnY+pVnfLunwIDAQABo4G9MIG6MAkG
A1UdEwQCMAAwHQYDVR0OBBYEFBwVy+WAGEcaTLD+SNRJz98YNHP0MFEGA1UdIwRK
MEiAFBkzkJbQL5w4dSPvbfSutXEjeMzQoRqkGDAWMRQwEgYDVQQDDAt0ZWFtMjUz
LW5ldIIUYd/X7oPWpIjRHq6X/BBJD//29KAwEwYDVR0lBAwwCgYIKwYBBQUHAwEw
CwYDVR0PBAQDAgWgMBkGA1UdEQQSMBCCDnRlYW0yNTMtc2VydmVyMA0GCSqGSIb3
DQEBCwUAA4IBAQALdoaAw6zaHYgEuLKzD8HPUF/bKrLa+4iV0A/GN7iGWM+kC0JO
6vSzIXmsDinmonHGzcsZeNQo9pUstmd+rh9y+gMhYG2uquwZR1wamQlV2ldOajuM
UxRO82BC12q5UhfX2A06PYGeCjRPheqiesuxB48ivblp+y+0RYMFzh/bz533ZfjV
NPsUJxkU2vvgC8tPaz47FIA21rg5/RLDZcWeGWn71AhtJS7MH7zt+zCYOLnxjveU
ulDYWmqS/9woZc8opC8SMK+cGFuYRRYaqKqGVuoaGiGgKXj85RaX3TVyuT2Yc6zn
cFbrdLHVdhsoZRJy9+HlaRECpKGeVZYQkq21
-----END CERTIFICATE-----
