Certificate:
    Data:
        Version: 3 (0x2)
        Serial Number:
            be:a2:7c:6b:b0:67:6b:d4:b9:e3:d5:85:ac:99:67:01
        Signature Algorithm: sha256WithRSAEncryption
        Issuer: CN=team253-net
        Validity
            Not Before: Nov  3 20:43:55 2023 GMT
            Not After : Oct 18 20:43:55 2026 GMT
        Subject: CN=team253-client
        Subject Public Key Info:
            Public Key Algorithm: rsaEncryption
                Public-Key: (2048 bit)
                Modulus:
                    00:c5:3c:11:cb:65:35:f0:2e:e0:96:01:98:d2:68:
                    4e:24:59:48:d2:61:f7:5e:8d:62:0c:8b:d9:02:92:
                    b2:6f:2c:52:32:f0:c6:8c:6e:eb:e1:00:98:64:2e:
                    39:90:d2:e8:0b:42:3b:bc:e1:1c:5d:13:71:62:75:
                    50:b8:56:c4:4d:44:6e:27:e6:cf:a6:9e:52:2f:5b:
                    5e:55:90:cf:ff:4b:7d:86:bb:43:b7:6e:e6:c1:ec:
                    ca:77:e9:17:44:24:82:cf:ff:64:0e:8d:23:55:d7:
                    5d:ba:1b:54:5f:b8:27:0c:8a:cd:c0:46:ff:d1:53:
                    2b:9a:c0:ee:1b:0d:72:f8:b1:0d:cb:dc:e6:f4:fe:
                    bb:9a:4f:91:95:ab:14:75:2e:8d:08:6c:2b:1b:c9:
                    f3:bd:f1:f4:9c:5c:ca:c1:27:d5:30:a5:de:3b:c9:
                    8e:de:ec:5e:62:91:0a:65:f9:74:ad:54:c5:62:44:
                    99:a2:49:0e:7e:31:13:d9:52:7f:de:6a:09:08:ad:
                    a5:c5:f8:11:46:83:56:de:9c:cc:3a:41:3b:ea:f0:
                    b0:35:2f:ab:0f:d2:78:8f:51:96:9e:c3:66:ae:40:
                    4a:df:4e:c0:ba:97:a9:81:57:49:a1:0d:81:06:ea:
                    c9:1a:d7:f9:b5:dc:20:a0:d6:7a:c9:07:8a:d3:13:
                    3f:1b
                Exponent: 65537 (0x10001)
        X509v3 extensions:
            X509v3 Basic Constraints: 
                CA:FALSE
            X509v3 Subject Key Identifier: 
                55:53:14:65:FE:AD:B4:18:E9:35:B9:B8:79:B7:BF:AA:75:BB:8F:0B
            X509v3 Authority Key Identifier: 
                keyid:8B:9E:F0:24:66:58:A4:3D:EA:D9:4C:86:DA:D4:A7:A2:6E:3D:71:6F
                DirName:/CN=team253-net
                serial:1E:FE:BA:C5:19:00:1E:6F:E3:CD:64:B9:A5:90:F7:CC:00:51:DF:4D
            X509v3 Extended Key Usage: 
                TLS Web Client Authentication
            X509v3 Key Usage: 
                Digital Signature
    Signature Algorithm: sha256WithRSAEncryption
    Signature Value:
        01:21:05:fc:4a:36:c7:91:c4:a2:a5:4a:fe:70:ca:c6:02:9d:
        3f:b9:1c:1a:9c:80:29:8e:6c:c7:7e:8c:f4:9e:08:57:2c:ca:
        29:2d:4c:75:76:50:cb:29:4b:3d:ab:af:46:a8:08:e4:0d:4c:
        eb:18:ba:b8:21:d2:1c:dc:be:0c:e6:fa:c3:1a:57:31:d4:96:
        68:d9:40:56:78:44:bc:b9:25:85:0c:58:7a:34:10:41:c7:c9:
        0f:3e:c8:eb:13:35:a4:8f:c3:48:0c:b2:56:b5:d9:bd:62:bf:
        40:e5:06:df:14:eb:0f:55:92:54:1e:77:08:35:74:14:f9:2a:
        b3:7d:46:49:b8:b8:2e:50:38:c4:4e:fa:69:00:3b:96:dc:3f:
        c0:4c:d2:c6:f4:68:6b:54:d2:b8:77:76:98:03:9d:0a:46:7c:
        6c:17:ad:73:cf:3c:11:29:53:7e:75:98:d2:78:48:d9:f6:2b:
        f6:3c:8d:31:1e:45:5b:c2:2a:43:86:12:cf:0a:40:5d:c3:77:
        f9:cc:68:f2:b2:86:8b:e6:2d:82:63:fd:7f:c6:7c:10:e8:b1:
        cc:c5:89:9b:42:dc:3d:c0:5a:ad:de:35:17:ee:5e:e6:a7:e8:
        1e:6f:98:12:aa:13:33:2e:3e:62:48:fc:81:f8:62:7f:c0:83:
        56:42:18:14
-----BEGIN CERTIFICATE-----
MIIDXTCCAkWgAwIBAgIRAL6ifGuwZ2vUuePVhayZZwEwDQYJKoZIhvcNAQELBQAw
FjEUMBIGA1UEAwwLdGVhbTI1My1uZXQwHhcNMjMxMTAzMjA0MzU1WhcNMjYxMDE4
MjA0MzU1WjAZMRcwFQYDVQQDDA50ZWFtMjUzLWNsaWVudDCCASIwDQYJKoZIhvcN
AQEBBQADggEPADCCAQoCggEBAMU8EctlNfAu4JYBmNJoTiRZSNJh916NYgyL2QKS
sm8sUjLwxoxu6+EAmGQuOZDS6AtCO7zhHF0TcWJ1ULhWxE1Ebifmz6aeUi9bXlWQ
z/9LfYa7Q7du5sHsynfpF0Qkgs//ZA6NI1XXXbobVF+4JwyKzcBG/9FTK5rA7hsN
cvixDcvc5vT+u5pPkZWrFHUujQhsKxvJ873x9JxcysEn1TCl3jvJjt7sXmKRCmX5
dK1UxWJEmaJJDn4xE9lSf95qCQitpcX4EUaDVt6czDpBO+rwsDUvqw/SeI9Rlp7D
Zq5ASt9OwLqXqYFXSaENgQbqyRrX+bXcIKDWeskHitMTPxsCAwEAAaOBojCBnzAJ
BgNVHRMEAjAAMB0GA1UdDgQWBBRVUxRl/q20GOk1ubh5t7+qdbuPCzBRBgNVHSME
SjBIgBSLnvAkZlikPerZTIba1Keibj1xb6EapBgwFjEUMBIGA1UEAwwLdGVhbTI1
My1uZXSCFB7+usUZAB5v481kuaWQ98wAUd9NMBMGA1UdJQQMMAoGCCsGAQUFBwMC
MAsGA1UdDwQEAwIHgDANBgkqhkiG9w0BAQsFAAOCAQEAASEF/Eo2x5HEoqVK/nDK
xgKdP7kcGpyAKY5sx36M9J4IVyzKKS1MdXZQyylLPauvRqgI5A1M6xi6uCHSHNy+
DOb6wxpXMdSWaNlAVnhEvLklhQxYejQQQcfJDz7I6xM1pI/DSAyyVrXZvWK/QOUG
3xTrD1WSVB53CDV0FPkqs31GSbi4LlA4xE76aQA7ltw/wEzSxvRoa1TSuHd2mAOd
CkZ8bBetc888ESlTfnWY0nhI2fYr9jyNMR5FW8IqQ4YSzwpAXcN3+cxo8rKGi+Yt
gmP9f8Z8EOixzMWJm0LcPcBard41F+5e5qfoHm+YEqoTMy4+Ykj8gfhif8CDVkIY
FA==
-----END CERTIFICATE-----
