Certificate:
    Data:
        Version: 3 (0x2)
        Serial Number:
            9e:4d:f0:7b:63:cf:79:07:eb:c1:4a:ec:ce:6f:fa:3d
        Signature Algorithm: sha256WithRSAEncryption
        Issuer: CN=team274-net
        Validity
            Not Before: Nov  4 11:33:11 2023 GMT
            Not After : Oct 19 11:33:11 2026 GMT
        Subject: CN=team274-client
        Subject Public Key Info:
            Public Key Algorithm: rsaEncryption
                Public-Key: (2048 bit)
                Modulus:
                    00:ad:ca:09:73:9e:3f:46:d5:a1:a2:fe:1c:61:e2:
                    16:b2:65:66:72:2a:88:80:f9:0d:43:41:bb:88:dd:
                    1a:d1:2a:8b:65:b7:da:ef:8a:46:d0:83:71:bb:2a:
                    43:1b:77:65:20:26:e0:90:3e:93:0c:85:e3:ea:33:
                    c3:4a:10:d6:70:ce:a0:52:25:01:8b:b9:f1:d8:f4:
                    d2:ba:0e:71:ac:25:58:57:23:78:10:77:96:f4:5b:
                    e2:40:5f:ce:cb:4f:8f:b4:9d:c6:69:c2:e3:b3:4e:
                    2e:a6:12:ec:a1:75:ff:ee:0c:2b:9e:7c:47:f6:37:
                    16:30:cd:75:cc:35:0b:b1:f5:ce:77:e3:54:38:8d:
                    76:66:56:4f:8d:61:b1:91:74:f0:98:97:e8:21:e3:
                    60:81:be:de:c0:7b:04:3c:f3:b8:8c:2a:9c:08:59:
                    a2:80:74:08:f8:5c:92:28:63:64:c7:a9:20:ac:df:
                    b1:fa:a7:da:2b:63:f2:e4:d3:aa:07:0a:e7:ef:21:
                    38:a2:2f:7f:45:23:f5:25:c3:64:fb:43:29:92:98:
                    26:e8:18:c6:2b:71:a0:85:0b:44:aa:6b:d1:b5:12:
                    7c:3a:ae:56:9a:6b:4b:a1:a5:40:99:a8:d3:f2:4e:
                    ee:16:fd:08:09:95:1b:28:50:80:15:43:4b:d4:97:
                    bd:bf
                Exponent: 65537 (0x10001)
        X509v3 extensions:
            X509v3 Basic Constraints: 
                CA:FALSE
            X509v3 Subject Key Identifier: 
                E8:03:59:20:EF:38:1E:D9:AF:39:5E:41:62:1C:9E:52:26:41:8A:6F
            X509v3 Authority Key Identifier: 
                keyid:0D:AB:C4:03:77:5A:57:C3:FF:F6:FC:E8:35:65:EE:80:F7:64:C9:65
                DirName:/CN=team274-net
                serial:60:27:96:0E:5C:65:52:74:39:B5:11:36:9D:A4:91:D3:5A:70:9B:89
            X509v3 Extended Key Usage: 
                TLS Web Client Authentication
            X509v3 Key Usage: 
                Digital Signature
    Signature Algorithm: sha256WithRSAEncryption
    Signature Value:
        ac:f9:cf:b2:ef:d3:90:17:b4:71:3c:26:e7:fc:b4:fa:97:d3:
        ea:79:a6:b7:1b:09:e5:d6:77:9d:41:80:17:26:ac:d0:1f:a5:
        89:42:e7:34:c7:e4:a7:fd:fa:74:1d:c3:bf:97:0c:83:17:af:
        95:a0:8e:3e:67:04:57:75:09:8c:71:67:e1:4f:ee:de:cb:7c:
        d6:e5:64:2d:b1:a1:23:1e:3d:4a:35:f2:eb:1b:bc:0f:0d:4c:
        30:bc:78:e8:74:e6:9a:9a:63:68:1c:f9:44:ee:12:9b:df:ec:
        75:94:e6:3d:a8:a2:7e:d9:b0:a7:4a:ab:54:8e:c5:e8:09:07:
        05:b9:3b:3f:2c:b8:b7:12:36:55:6d:ae:7e:39:3b:49:2d:8f:
        c0:e4:02:4d:77:6f:d9:cb:11:c7:c4:f4:0c:dc:7b:ec:e6:28:
        dd:4d:62:f0:11:3e:4d:ac:aa:58:0e:2c:af:9f:d0:24:e8:63:
        82:9d:f9:35:94:81:e8:55:d2:5f:b4:8a:18:fb:b2:76:f0:7e:
        8b:d2:79:da:80:43:da:43:70:18:3b:70:a9:8f:ef:32:cf:de:
        db:0d:ce:c4:be:e5:07:55:4d:16:cc:35:48:1e:c0:8c:26:95:
        9b:4d:d5:71:9e:66:c7:9b:d3:e8:87:01:f1:2a:5b:13:23:53:
        11:ed:bf:6b
-----BEGIN CERTIFICATE-----
MIIDXTCCAkWgAwIBAgIRAJ5N8Htjz3kH68FK7M5v+j0wDQYJKoZIhvcNAQELBQAw
FjEUMBIGA1UEAwwLdGVhbTI3NC1uZXQwHhcNMjMxMTA0MTEzMzExWhcNMjYxMDE5
MTEzMzExWjAZMRcwFQYDVQQDDA50ZWFtMjc0LWNsaWVudDCCASIwDQYJKoZIhvcN
AQEBBQADggEPADCCAQoCggEBAK3KCXOeP0bVoaL+HGHiFrJlZnIqiID5DUNBu4jd
GtEqi2W32u+KRtCDcbsqQxt3ZSAm4JA+kwyF4+ozw0oQ1nDOoFIlAYu58dj00roO
cawlWFcjeBB3lvRb4kBfzstPj7SdxmnC47NOLqYS7KF1/+4MK558R/Y3FjDNdcw1
C7H1znfjVDiNdmZWT41hsZF08JiX6CHjYIG+3sB7BDzzuIwqnAhZooB0CPhckihj
ZMepIKzfsfqn2itj8uTTqgcK5+8hOKIvf0Uj9SXDZPtDKZKYJugYxitxoIULRKpr
0bUSfDquVpprS6GlQJmo0/JO7hb9CAmVGyhQgBVDS9SXvb8CAwEAAaOBojCBnzAJ
BgNVHRMEAjAAMB0GA1UdDgQWBBToA1kg7zge2a85XkFiHJ5SJkGKbzBRBgNVHSME
SjBIgBQNq8QDd1pXw//2/Og1Ze6A92TJZaEapBgwFjEUMBIGA1UEAwwLdGVhbTI3
NC1uZXSCFGAnlg5cZVJ0ObURNp2kkdNacJuJMBMGA1UdJQQMMAoGCCsGAQUFBwMC
MAsGA1UdDwQEAwIHgDANBgkqhkiG9w0BAQsFAAOCAQEArPnPsu/TkBe0cTwm5/y0
+pfT6nmmtxsJ5dZ3nUGAFyas0B+liULnNMfkp/36dB3Dv5cMgxevlaCOPmcEV3UJ
jHFn4U/u3st81uVkLbGhIx49SjXy6xu8Dw1MMLx46HTmmppjaBz5RO4Sm9/sdZTm
Paiiftmwp0qrVI7F6AkHBbk7Pyy4txI2VW2ufjk7SS2PwOQCTXdv2csRx8T0DNx7
7OYo3U1i8BE+TayqWA4sr5/QJOhjgp35NZSB6FXSX7SKGPuydvB+i9J52oBD2kNw
GDtwqY/vMs/e2w3OxL7lB1VNFsw1SB7AjCaVm03VcZ5mx5vT6IcB8SpbEyNTEe2/
aw==
-----END CERTIFICATE-----
