Certificate:
    Data:
        Version: 3 (0x2)
        Serial Number:
            ed:25:ee:d8:ee:05:79:b5:fc:33:b6:0d:ed:ef:08:15
        Signature Algorithm: sha256WithRSAEncryption
        Issuer: CN=team274-net
        Validity
            Not Before: Nov  4 10:45:44 2023 GMT
            Not After : Oct 19 10:45:44 2026 GMT
        Subject: CN=team274-server
        Subject Public Key Info:
            Public Key Algorithm: rsaEncryption
                Public-Key: (2048 bit)
                Modulus:
                    00:d7:98:d3:c4:7b:ef:ac:b6:cd:41:56:18:35:1b:
                    75:67:07:2f:55:b0:7e:d3:7a:ae:f5:99:ec:0d:fa:
                    6b:a9:b2:7a:41:20:62:b3:46:f6:65:96:cf:60:ef:
                    b4:e8:9a:4a:a9:b3:1d:32:e8:db:57:95:21:eb:d7:
                    f6:b4:94:53:9d:21:70:26:fc:07:05:55:cd:3f:23:
                    0f:7e:14:19:8b:f4:4d:05:0f:5f:fb:99:d1:19:e7:
                    41:86:bc:86:a6:19:21:21:50:dc:4d:d2:93:ed:ce:
                    a2:81:8a:77:a8:31:3c:b5:b5:85:9d:64:0d:a9:1a:
                    19:57:f8:51:9e:30:61:88:dc:10:4f:cc:57:e5:d1:
                    7b:21:eb:78:b6:e6:e6:3f:b8:64:18:ba:24:3d:5e:
                    21:61:b6:f3:15:bb:f5:e6:58:cb:a9:77:12:c6:6c:
                    9a:d8:b6:6a:b8:87:ce:87:bb:cb:3a:01:fc:20:27:
                    ba:06:60:d5:67:83:64:0e:e1:f0:72:56:d5:32:28:
                    78:e6:1d:6f:44:b8:0c:63:91:5d:2e:a2:68:9a:03:
                    f9:04:b2:30:ba:c6:e0:88:d6:8b:1c:cd:64:61:94:
                    1a:33:f7:2a:a2:eb:b6:46:e2:9d:e2:84:61:34:84:
                    10:df:e2:a6:b7:e5:cb:18:5b:c9:69:15:ae:a6:47:
                    a1:a3
                Exponent: 65537 (0x10001)
        X509v3 extensions:
            X509v3 Basic Constraints: 
                CA:FALSE
            X509v3 Subject Key Identifier: 
                F5:55:CE:AA:56:E9:AC:84:CC:CE:FB:05:16:60:F4:95:BB:D6:E9:0F
            X509v3 Authority Key Identifier: 
                keyid:27:09:9B:04:CA:E7:A7:2B:33:27:68:8B:B3:C7:75:4D:94:19:75:57
                DirName:/CN=team274-net
                serial:43:45:49:36:21:49:84:40:D6:4C:EC:5F:03:54:B3:24:39:97:A4:C8
            X509v3 Extended Key Usage: 
                TLS Web Server Authentication
            X509v3 Key Usage: 
                Digital Signature, Key Encipherment
            X509v3 Subject Alternative Name: 
                DNS:team274-server
    Signature Algorithm: sha256WithRSAEncryption
    Signature Value:
        51:14:fd:e4:94:c6:f0:bc:ea:13:c0:3b:2d:b4:33:8b:b3:9a:
        87:85:62:4e:2b:e8:c6:d9:7f:cc:8d:de:8f:71:88:0a:67:b0:
        3e:23:31:09:4a:9f:48:c8:b7:a1:8c:2f:b4:c7:ea:5c:9d:67:
        a2:ca:ed:a6:fe:b6:56:f3:4d:58:40:42:78:e3:a0:16:e2:ac:
        91:2b:0e:ca:b0:9e:b0:2e:86:61:f9:0f:bb:bc:46:61:7f:92:
        76:ad:da:66:74:95:32:fa:b6:49:4b:8f:3e:39:b8:59:07:47:
        81:35:ea:a5:10:d8:2e:86:ba:f5:c3:92:37:33:f3:21:94:60:
        ca:7c:be:fb:6f:3c:31:7c:36:0d:11:99:4f:d5:14:ef:da:19:
        c1:f9:d7:f7:23:60:5a:60:19:f1:7a:60:ac:0c:d0:68:37:c4:
        f1:75:b7:54:57:47:55:55:d9:32:fe:9c:6a:2d:80:4e:06:8a:
        a0:14:15:96:58:d4:af:d3:5f:29:09:b3:5f:84:eb:87:4a:69:
        1a:c3:97:ee:db:fd:c9:91:c1:6a:88:57:ea:cc:31:6c:85:7c:
        82:e7:80:28:31:51:02:9e:6b:d2:53:39:42:82:af:f7:a7:cb:
        db:d3:fa:7a:f5:52:fe:b2:93:6b:7d:2f:f3:1b:6a:56:82:1a:
        9a:2e:d9:11
-----BEGIN CERTIFICATE-----
MIIDeDCCAmCgAwIBAgIRAO0l7tjuBXm1/DO2De3vCBUwDQYJKoZIhvcNAQELBQAw
FjEUMBIGA1UEAwwLdGVhbTI3NC1uZXQwHhcNMjMxMTA0MTA0NTQ0WhcNMjYxMDE5
MTA0NTQ0WjAZMRcwFQYDVQQDDA50ZWFtMjc0LXNlcnZlcjCCASIwDQYJKoZIhvcN
AQEBBQADggEPADCCAQoCggEBANeY08R776y2zUFWGDUbdWcHL1WwftN6rvWZ7A36
a6myekEgYrNG9mWWz2DvtOiaSqmzHTLo21eVIevX9rSUU50hcCb8BwVVzT8jD34U
GYv0TQUPX/uZ0RnnQYa8hqYZISFQ3E3Sk+3OooGKd6gxPLW1hZ1kDakaGVf4UZ4w
YYjcEE/MV+XReyHreLbm5j+4ZBi6JD1eIWG28xW79eZYy6l3EsZsmti2ariHzoe7
yzoB/CAnugZg1WeDZA7h8HJW1TIoeOYdb0S4DGORXS6iaJoD+QSyMLrG4IjWixzN
ZGGUGjP3KqLrtkbineKEYTSEEN/iprflyxhbyWkVrqZHoaMCAwEAAaOBvTCBujAJ
BgNVHRMEAjAAMB0GA1UdDgQWBBT1Vc6qVumshMzO+wUWYPSVu9bpDzBRBgNVHSME
SjBIgBQnCZsEyuenKzMnaIuzx3VNlBl1V6EapBgwFjEUMBIGA1UEAwwLdGVhbTI3
NC1uZXSCFENFSTYhSYRA1kzsXwNUsyQ5l6TIMBMGA1UdJQQMMAoGCCsGAQUFBwMB
MAsGA1UdDwQEAwIFoDAZBgNVHREEEjAQgg50ZWFtMjc0LXNlcnZlcjANBgkqhkiG
9w0BAQsFAAOCAQEAURT95JTG8LzqE8A7LbQzi7Oah4ViTivoxtl/zI3ej3GICmew
PiMxCUqfSMi3oYwvtMfqXJ1nosrtpv62VvNNWEBCeOOgFuKskSsOyrCesC6GYfkP
u7xGYX+Sdq3aZnSVMvq2SUuPPjm4WQdHgTXqpRDYLoa69cOSNzPzIZRgyny++288
MXw2DRGZT9UU79oZwfnX9yNgWmAZ8XpgrAzQaDfE8XW3VFdHVVXZMv6cai2ATgaK
oBQVlljUr9NfKQmzX4Trh0ppGsOX7tv9yZHBaohX6swxbIV8gueAKDFRAp5r0lM5
QoKv96fL29P6evVS/rKTa30v8xtqVoIami7ZEQ==
-----END CERTIFICATE-----
