Certificate:
    Data:
        Version: 3 (0x2)
        Serial Number:
            fa:98:16:63:56:48:2e:c4:72:4c:cc:5a:e5:38:52:b5
        Signature Algorithm: sha256WithRSAEncryption
        Issuer: CN=team274-net
        Validity
            Not Before: Nov  3 20:44:18 2023 GMT
            Not After : Oct 18 20:44:18 2026 GMT
        Subject: CN=team274-client
        Subject Public Key Info:
            Public Key Algorithm: rsaEncryption
                Public-Key: (2048 bit)
                Modulus:
                    00:cb:7c:9f:2d:18:c5:4a:8f:dd:04:98:4b:c5:85:
                    f9:f4:8e:bf:98:eb:80:c8:8a:d6:88:9a:b8:29:a9:
                    1e:05:a3:bb:8e:f8:a0:44:46:dc:e8:ec:71:1d:32:
                    7f:29:a7:ac:c2:85:b3:4b:52:9b:91:05:f3:d4:ea:
                    a1:3f:8b:27:c9:ab:c5:c9:ab:39:b9:f7:e1:5e:e4:
                    99:86:8f:dd:84:30:2f:b2:28:ec:38:c3:d8:76:52:
                    44:a7:00:fb:f7:5c:90:01:ab:f2:34:b9:ca:fa:82:
                    83:7e:30:41:20:58:ff:8b:1d:9f:c6:39:e3:bb:91:
                    72:a2:08:6e:89:26:12:4e:ce:e6:94:25:c4:5d:fe:
                    11:da:a9:83:52:80:43:e6:45:2c:50:83:4b:ba:d5:
                    b8:69:82:26:88:fe:19:ec:58:83:cb:45:f5:e9:fc:
                    65:45:f4:d4:a6:e1:95:2a:5d:41:d6:f7:9b:04:52:
                    dd:a4:4f:cc:e1:8a:12:9b:aa:30:6c:05:d2:31:f7:
                    52:d3:ef:f5:f6:f3:cd:c5:97:3e:91:f1:f9:56:61:
                    9c:09:56:b9:2a:17:f8:4a:44:83:64:6c:9a:2a:95:
                    54:5a:4b:64:16:98:9c:49:64:6c:2b:e0:b9:15:b1:
                    49:fe:d8:96:ac:b4:3e:2f:7e:ac:91:72:ee:f9:fd:
                    1c:cf
                Exponent: 65537 (0x10001)
        X509v3 extensions:
            X509v3 Basic Constraints: 
                CA:FALSE
            X509v3 Subject Key Identifier: 
                95:F4:0A:01:A6:12:32:D9:70:0D:98:9F:FF:04:83:90:E1:EE:F7:93
            X509v3 Authority Key Identifier: 
                keyid:8E:7C:61:54:A5:92:83:42:7C:85:8C:FD:4B:0E:87:D1:80:41:E0:BF
                DirName:/CN=team274-net
                serial:42:11:57:52:E4:03:37:99:DB:70:E5:FD:44:EE:54:00:46:2C:D7:C7
            X509v3 Extended Key Usage: 
                TLS Web Client Authentication
            X509v3 Key Usage: 
                Digital Signature
    Signature Algorithm: sha256WithRSAEncryption
    Signature Value:
        b4:9a:37:8e:1f:98:c4:35:31:8f:35:7e:97:b7:cd:a4:af:b8:
        c8:a7:a2:64:94:51:8d:03:fb:c2:ab:db:eb:bc:fa:ac:3c:57:
        37:e6:b0:9e:d6:4e:ee:17:7f:02:d6:7d:b8:e8:1b:05:89:f3:
        c4:98:56:5a:82:49:cd:9f:3c:1c:00:fa:79:92:4f:31:ff:48:
        83:2d:96:ab:96:39:a0:e1:90:38:52:90:6f:d4:d2:f1:f3:e8:
        d7:ce:ab:f6:de:65:d2:9f:9c:ec:a2:2f:e9:94:54:5f:4d:18:
        57:66:a5:0f:7f:2c:47:ce:57:3a:74:77:38:2d:e6:01:93:d3:
        84:7b:c9:aa:09:42:6b:1d:b7:72:21:7e:9c:fa:33:19:7f:2f:
        bb:62:d1:67:bf:8d:9b:58:89:84:05:7c:83:bb:f8:ca:30:2f:
        05:1d:7e:64:07:0e:db:94:88:f7:df:88:10:2d:96:69:f2:6d:
        ad:fa:28:93:7c:2e:32:5f:89:c0:bb:b4:71:d3:21:43:0b:01:
        4e:ec:60:f0:ef:67:89:71:4d:9e:65:b3:5e:86:e9:4b:59:d2:
        d2:b1:ee:47:c3:6f:39:c3:eb:e8:a4:07:7c:a7:c3:7e:42:47:
        15:91:a2:27:0d:fa:d9:5b:30:e4:c8:b8:38:37:6b:4c:07:95:
        51:36:f1:f2
-----BEGIN CERTIFICATE-----
MIIDXTCCAkWgAwIBAgIRAPqYFmNWSC7EckzMWuU4UrUwDQYJKoZIhvcNAQELBQAw
FjEUMBIGA1UEAwwLdGVhbTI3NC1uZXQwHhcNMjMxMTAzMjA0NDE4WhcNMjYxMDE4
MjA0NDE4WjAZMRcwFQYDVQQDDA50ZWFtMjc0LWNsaWVudDCCASIwDQYJKoZIhvcN
AQEBBQADggEPADCCAQoCggEBAMt8ny0YxUqP3QSYS8WF+fSOv5jrgMiK1oiauCmp
HgWju474oERG3OjscR0yfymnrMKFs0tSm5EF89TqoT+LJ8mrxcmrObn34V7kmYaP
3YQwL7Io7DjD2HZSRKcA+/dckAGr8jS5yvqCg34wQSBY/4sdn8Y547uRcqIIbokm
Ek7O5pQlxF3+Edqpg1KAQ+ZFLFCDS7rVuGmCJoj+GexYg8tF9en8ZUX01KbhlSpd
Qdb3mwRS3aRPzOGKEpuqMGwF0jH3UtPv9fbzzcWXPpHx+VZhnAlWuSoX+EpEg2Rs
miqVVFpLZBaYnElkbCvguRWxSf7Ylqy0Pi9+rJFy7vn9HM8CAwEAAaOBojCBnzAJ
BgNVHRMEAjAAMB0GA1UdDgQWBBSV9AoBphIy2XANmJ//BIOQ4e73kzBRBgNVHSME
SjBIgBSOfGFUpZKDQnyFjP1LDofRgEHgv6EapBgwFjEUMBIGA1UEAwwLdGVhbTI3
NC1uZXSCFEIRV1LkAzeZ23Dl/UTuVABGLNfHMBMGA1UdJQQMMAoGCCsGAQUFBwMC
MAsGA1UdDwQEAwIHgDANBgkqhkiG9w0BAQsFAAOCAQEAtJo3jh+YxDUxjzV+l7fN
pK+4yKeiZJRRjQP7wqvb67z6rDxXN+awntZO7hd/AtZ9uOgbBYnzxJhWWoJJzZ88
HAD6eZJPMf9Igy2Wq5Y5oOGQOFKQb9TS8fPo186r9t5l0p+c7KIv6ZRUX00YV2al
D38sR85XOnR3OC3mAZPThHvJqglCax23ciF+nPozGX8vu2LRZ7+Nm1iJhAV8g7v4
yjAvBR1+ZAcO25SI99+IEC2WafJtrfook3wuMl+JwLu0cdMhQwsBTuxg8O9niXFN
nmWzXobpS1nS0rHuR8NvOcPr6KQHfKfDfkJHFZGiJw362Vsw5Mi4ODdrTAeVUTbx
8g==
-----END CERTIFICATE-----
