Certificate:
    Data:
        Version: 3 (0x2)
        Serial Number:
            b1:0f:fc:85:2b:3e:3d:00:0a:0b:5c:46:d5:1b:b9:3b
        Signature Algorithm: sha256WithRSAEncryption
        Issuer: CN=team416-net
        Validity
            Not Before: Nov  4 11:36:51 2023 GMT
            Not After : Oct 19 11:36:51 2026 GMT
        Subject: CN=team416-server
        Subject Public Key Info:
            Public Key Algorithm: rsaEncryption
                Public-Key: (2048 bit)
                Modulus:
                    00:ee:d1:cb:7d:d2:fe:26:54:f7:fc:2f:c5:5a:03:
                    ab:f2:81:51:4f:6a:28:d5:eb:00:63:73:f0:7d:9a:
                    9f:9b:23:81:eb:cd:37:81:5c:6c:a5:f5:aa:5b:c1:
                    33:47:20:0e:0c:d2:7b:f8:94:0f:e4:f1:76:f9:92:
                    a4:e1:18:93:ea:02:fe:e5:86:7c:e5:d5:94:e3:b3:
                    a7:db:41:b7:c1:fc:a3:b5:56:65:8d:f2:38:92:8e:
                    ba:c2:a3:64:b7:65:0e:a8:b7:22:bd:59:c9:7b:5b:
                    14:f7:e5:99:66:aa:c7:81:82:f4:6d:ab:91:12:54:
                    51:35:2f:d0:db:7f:29:15:cf:d4:3d:38:6b:f5:3a:
                    cb:f0:37:39:cb:26:5a:f5:60:91:c3:62:4b:23:45:
                    44:cb:70:d4:38:90:20:15:99:2b:e1:59:e7:f2:6c:
                    a6:73:86:42:fb:30:79:14:0d:ac:fa:ad:71:07:b3:
                    3a:18:99:2d:b1:c1:44:c5:18:03:4c:89:91:c3:aa:
                    0c:00:35:42:a7:2b:9e:08:b0:50:8d:69:46:d3:00:
                    0e:b5:c1:b8:df:58:82:a2:0d:c8:0a:f1:12:f4:bc:
                    4c:e6:c2:e9:67:63:1b:6e:00:43:4a:f3:9f:d4:4a:
                    36:29:5c:3c:1d:b5:e6:ad:de:bd:e3:89:e5:ee:65:
                    dd:7b
                Exponent: 65537 (0x10001)
        X509v3 extensions:
            X509v3 Basic Constraints: 
                CA:FALSE
            X509v3 Subject Key Identifier: 
                3A:89:0A:63:90:4D:08:F6:49:37:11:D0:49:D8:E2:C8:72:5C:AF:28
            X509v3 Authority Key Identifier: 
                keyid:4C:4D:06:41:BF:F8:2B:D7:C6:A5:64:73:96:98:71:4D:48:A5:AC:01
                DirName:/CN=team416-net
                serial:5E:36:A5:C5:53:EE:54:49:F4:79:07:28:54:97:3C:31:15:B0:C2:3E
            X509v3 Extended Key Usage: 
                TLS Web Server Authentication
            X509v3 Key Usage: 
                Digital Signature, Key Encipherment
            X509v3 Subject Alternative Name: 
                DNS:team416-server
    Signature Algorithm: sha256WithRSAEncryption
    Signature Value:
        09:61:74:76:8c:f5:ec:b1:d3:f0:80:0f:8f:96:20:d9:37:b8:
        96:90:2c:6e:dd:75:80:30:54:38:36:5f:38:0f:9e:72:d8:80:
        95:66:8d:60:1e:8f:b8:48:80:8b:22:e2:3f:63:b2:50:92:11:
        cf:aa:58:48:c1:5c:56:16:a4:65:75:ac:70:97:8f:d5:de:ab:
        44:ff:cd:f3:38:8f:fb:c6:1f:df:2e:74:27:56:b9:cd:0a:27:
        e6:05:d9:12:5f:e0:64:0e:d4:ab:81:fd:3c:a6:39:f4:8f:c3:
        5e:06:33:bb:8b:f6:09:5b:72:e1:2e:6a:3a:cb:26:61:72:eb:
        4b:f3:44:b0:e9:c3:e1:69:84:b9:c4:73:77:e5:c4:c3:6a:6f:
        5d:b6:4b:d4:0f:00:d4:53:88:bc:5b:81:3a:f0:f2:b7:65:5b:
        fa:50:41:ab:72:db:8c:a5:20:06:42:47:59:39:b1:07:f8:05:
        44:d3:e4:73:f0:4f:e5:b7:46:e3:5b:cd:7f:f7:2e:be:6e:c6:
        84:bd:c0:14:15:c0:41:58:8a:6c:cf:ed:51:5d:fd:3a:32:fb:
        1e:02:91:ac:cf:79:a2:85:1b:bf:dc:09:89:79:ca:72:b1:28:
        09:78:94:b8:98:fd:21:ea:27:63:26:8e:94:ce:1e:b3:c3:0d:
        08:54:5c:ba
-----BEGIN CERTIFICATE-----
MIIDeDCCAmCgAwIBAgIRALEP/IUrPj0ACgtcRtUbuTswDQYJKoZIhvcNAQELBQAw
FjEUMBIGA1UEAwwLdGVhbTQxNi1uZXQwHhcNMjMxMTA0MTEzNjUxWhcNMjYxMDE5
MTEzNjUxWjAZMRcwFQYDVQQDDA50ZWFtNDE2LXNlcnZlcjCCASIwDQYJKoZIhvcN
AQEBBQADggEPADCCAQoCggEBAO7Ry33S/iZU9/wvxVoDq/KBUU9qKNXrAGNz8H2a
n5sjgevNN4FcbKX1qlvBM0cgDgzSe/iUD+TxdvmSpOEYk+oC/uWGfOXVlOOzp9tB
t8H8o7VWZY3yOJKOusKjZLdlDqi3Ir1ZyXtbFPflmWaqx4GC9G2rkRJUUTUv0Nt/
KRXP1D04a/U6y/A3OcsmWvVgkcNiSyNFRMtw1DiQIBWZK+FZ5/JspnOGQvsweRQN
rPqtcQezOhiZLbHBRMUYA0yJkcOqDAA1QqcrngiwUI1pRtMADrXBuN9YgqINyArx
EvS8TObC6WdjG24AQ0rzn9RKNilcPB215q3eveOJ5e5l3XsCAwEAAaOBvTCBujAJ
BgNVHRMEAjAAMB0GA1UdDgQWBBQ6iQpjkE0I9kk3EdBJ2OLIclyvKDBRBgNVHSME
SjBIgBRMTQZBv/gr18alZHOWmHFNSKWsAaEapBgwFjEUMBIGA1UEAwwLdGVhbTQx
Ni1uZXSCFF42pcVT7lRJ9HkHKFSXPDEVsMI+MBMGA1UdJQQMMAoGCCsGAQUFBwMB
MAsGA1UdDwQEAwIFoDAZBgNVHREEEjAQgg50ZWFtNDE2LXNlcnZlcjANBgkqhkiG
9w0BAQsFAAOCAQEACWF0doz17LHT8IAPj5Yg2Te4lpAsbt11gDBUODZfOA+ectiA
lWaNYB6PuEiAiyLiP2OyUJIRz6pYSMFcVhakZXWscJeP1d6rRP/N8ziP+8Yf3y50
J1a5zQon5gXZEl/gZA7Uq4H9PKY59I/DXgYzu4v2CVty4S5qOssmYXLrS/NEsOnD
4WmEucRzd+XEw2pvXbZL1A8A1FOIvFuBOvDyt2Vb+lBBq3LbjKUgBkJHWTmxB/gF
RNPkc/BP5bdG41vNf/cuvm7GhL3AFBXAQViKbM/tUV39OjL7HgKRrM95ooUbv9wJ
iXnKcrEoCXiUuJj9IeonYyaOlM4es8MNCFRcug==
-----END CERTIFICATE-----
