Certificate:
    Data:
        Version: 3 (0x2)
        Serial Number:
            b3:54:a7:75:d7:8d:bb:9c:7d:cd:68:a8:1e:a4:05:fa
        Signature Algorithm: sha256WithRSAEncryption
        Issuer: CN=team416-net
        Validity
            Not Before: Nov  4 10:48:07 2023 GMT
            Not After : Oct 19 10:48:07 2026 GMT
        Subject: CN=team416-server
        Subject Public Key Info:
            Public Key Algorithm: rsaEncryption
                Public-Key: (2048 bit)
                Modulus:
                    00:9e:85:50:11:23:82:e6:ff:1b:e2:02:3d:ed:1a:
                    5a:12:fd:6c:b3:cd:fb:68:e6:84:b6:c1:5b:02:d4:
                    62:0e:fa:b4:19:00:ae:32:d3:1d:ea:bb:75:9a:80:
                    9c:84:77:bb:c0:23:4e:c9:a1:0c:b3:d3:dd:c0:74:
                    8d:14:8c:9a:87:5c:5f:f9:ac:f7:af:66:34:f7:be:
                    45:19:b6:92:83:54:22:87:0c:b6:c0:59:f5:a4:70:
                    bc:0c:78:32:0f:e9:12:fe:50:24:c4:8d:f9:da:cd:
                    a8:50:3c:18:11:ae:26:82:82:19:d2:80:19:dd:13:
                    2c:70:b3:af:b6:8f:0c:ce:46:8c:6a:75:02:07:d7:
                    b8:61:df:ec:58:ca:8d:ba:7a:61:a4:53:5e:00:71:
                    10:13:0a:67:a6:ac:ae:1f:79:77:58:f5:e3:c0:7b:
                    53:ab:fc:d2:92:5f:23:d8:76:43:25:ce:01:48:41:
                    33:0d:fa:37:8a:fd:d8:75:4b:1f:45:b4:b8:b1:4c:
                    62:d3:39:1f:c5:63:0e:71:20:e3:23:11:f0:10:85:
                    36:84:17:11:f2:f2:c2:f5:5a:ce:80:a8:8a:d5:52:
                    1c:f4:19:c0:8f:e4:7f:b0:c1:3f:e5:55:38:9e:04:
                    df:f1:a3:b9:79:03:84:7e:48:06:16:82:e1:d5:93:
                    22:d3
                Exponent: 65537 (0x10001)
        X509v3 extensions:
            X509v3 Basic Constraints: 
                CA:FALSE
            X509v3 Subject Key Identifier: 
                E4:12:08:0E:AE:08:E3:9E:69:84:C0:D3:96:BA:00:80:78:D5:5B:1A
            X509v3 Authority Key Identifier: 
                keyid:6C:CE:8C:9D:16:03:69:A2:9B:EE:AC:48:1E:6D:11:C0:83:C8:C0:D5
                DirName:/CN=team416-net
                serial:72:DB:84:A3:83:1B:8F:99:2C:63:D8:EB:FB:13:E4:F4:13:5E:CA:98
            X509v3 Extended Key Usage: 
                TLS Web Server Authentication
            X509v3 Key Usage: 
                Digital Signature, Key Encipherment
            X509v3 Subject Alternative Name: 
                DNS:team416-server
    Signature Algorithm: sha256WithRSAEncryption
    Signature Value:
        64:0c:0e:20:23:44:86:0a:ae:d3:63:9d:c2:73:60:0f:f6:35:
        c2:cf:8e:b6:6c:20:6f:0f:ac:f6:61:92:ce:58:62:2c:f6:1e:
        d2:f6:41:9f:45:d5:df:bb:51:07:e8:12:a1:32:52:c8:19:35:
        17:59:39:46:2b:e7:7f:ff:bd:0b:ff:d5:82:65:d1:4f:ee:10:
        52:c2:25:aa:26:6a:f6:c3:40:83:89:a2:3f:af:73:45:84:f0:
        5b:21:4a:27:49:d1:3a:b4:39:71:8a:25:7a:71:c7:7c:fd:ff:
        60:2b:d8:56:b7:06:1e:c3:c6:26:e8:03:e7:91:95:f2:28:16:
        16:c2:5c:71:2e:b3:89:39:e9:dc:fc:2f:ec:d2:fb:fd:96:8f:
        8a:fe:ed:49:ca:f4:4f:2f:c6:2e:f6:b9:01:83:90:68:4b:d5:
        ad:3a:3b:9c:2f:9b:d3:11:f6:69:78:39:4b:16:3d:3d:4f:af:
        2b:66:af:9a:c8:93:c4:df:8c:ae:0c:90:44:04:23:20:13:db:
        72:16:40:78:1c:f0:0b:b7:bc:cb:06:a5:02:e5:7f:9c:e8:92:
        a6:d5:de:13:c5:88:1c:29:d5:fe:ff:56:6f:fa:18:44:e7:5d:
        27:3d:fe:c1:e9:9d:37:e0:f2:05:78:3a:b0:cf:f6:71:91:61:
        91:96:ec:22
-----BEGIN CERTIFICATE-----
MIIDeDCCAmCgAwIBAgIRALNUp3XXjbucfc1oqB6kBfowDQYJKoZIhvcNAQELBQAw
FjEUMBIGA1UEAwwLdGVhbTQxNi1uZXQwHhcNMjMxMTA0MTA0ODA3WhcNMjYxMDE5
MTA0ODA3WjAZMRcwFQYDVQQDDA50ZWFtNDE2LXNlcnZlcjCCASIwDQYJKoZIhvcN
AQEBBQADggEPADCCAQoCggEBAJ6FUBEjgub/G+ICPe0aWhL9bLPN+2jmhLbBWwLU
Yg76tBkArjLTHeq7dZqAnIR3u8AjTsmhDLPT3cB0jRSMmodcX/ms969mNPe+RRm2
koNUIocMtsBZ9aRwvAx4Mg/pEv5QJMSN+drNqFA8GBGuJoKCGdKAGd0TLHCzr7aP
DM5GjGp1AgfXuGHf7FjKjbp6YaRTXgBxEBMKZ6asrh95d1j148B7U6v80pJfI9h2
QyXOAUhBMw36N4r92HVLH0W0uLFMYtM5H8VjDnEg4yMR8BCFNoQXEfLywvVazoCo
itVSHPQZwI/kf7DBP+VVOJ4E3/GjuXkDhH5IBhaC4dWTItMCAwEAAaOBvTCBujAJ
BgNVHRMEAjAAMB0GA1UdDgQWBBTkEggOrgjjnmmEwNOWugCAeNVbGjBRBgNVHSME
SjBIgBRszoydFgNpopvurEgebRHAg8jA1aEapBgwFjEUMBIGA1UEAwwLdGVhbTQx
Ni1uZXSCFHLbhKODG4+ZLGPY6/sT5PQTXsqYMBMGA1UdJQQMMAoGCCsGAQUFBwMB
MAsGA1UdDwQEAwIFoDAZBgNVHREEEjAQgg50ZWFtNDE2LXNlcnZlcjANBgkqhkiG
9w0BAQsFAAOCAQEAZAwOICNEhgqu02OdwnNgD/Y1ws+Otmwgbw+s9mGSzlhiLPYe
0vZBn0XV37tRB+gSoTJSyBk1F1k5Rivnf/+9C//VgmXRT+4QUsIlqiZq9sNAg4mi
P69zRYTwWyFKJ0nROrQ5cYolenHHfP3/YCvYVrcGHsPGJugD55GV8igWFsJccS6z
iTnp3Pwv7NL7/ZaPiv7tScr0Ty/GLva5AYOQaEvVrTo7nC+b0xH2aXg5SxY9PU+v
K2avmsiTxN+MrgyQRAQjIBPbchZAeBzwC7e8ywalAuV/nOiSptXeE8WIHCnV/v9W
b/oYROddJz3+wemdN+DyBXg6sM/2cZFhkZbsIg==
-----END CERTIFICATE-----
