Certificate:
    Data:
        Version: 3 (0x2)
        Serial Number:
            bb:9f:03:81:d4:04:0a:04:fc:29:92:c5:77:a8:bc:7d
        Signature Algorithm: sha256WithRSAEncryption
        Issuer: CN=team416-net
        Validity
            Not Before: Nov  4 10:48:07 2023 GMT
            Not After : Oct 19 10:48:07 2026 GMT
        Subject: CN=team416-client
        Subject Public Key Info:
            Public Key Algorithm: rsaEncryption
                Public-Key: (2048 bit)
                Modulus:
                    00:a4:58:40:c9:b9:aa:2a:1e:ee:d3:b9:24:0e:ea:
                    df:3a:c8:3b:a7:78:f6:99:9d:40:8c:23:e4:73:36:
                    3f:ef:69:50:e8:59:9f:3f:41:88:e9:c4:56:57:b7:
                    1a:8e:eb:53:a6:f8:67:42:ea:23:35:0e:8f:54:13:
                    2a:ae:7b:e5:d0:44:1b:67:0d:66:d1:0f:30:b7:9a:
                    cb:7b:fe:ca:a8:a4:53:93:dc:1b:c8:49:ef:4c:2a:
                    71:39:37:33:87:ba:41:1b:59:e0:09:9e:df:bc:33:
                    25:60:fc:8f:65:c1:5b:59:52:d6:dd:6a:d5:d8:58:
                    65:a5:91:cd:f3:ab:ba:5e:df:3e:5f:f8:c7:78:1c:
                    d0:0c:81:65:7b:b6:99:e6:da:42:0d:ac:3d:aa:d6:
                    20:67:b3:f3:2e:91:bf:ba:56:b7:fe:97:4e:16:82:
                    9b:24:b4:3e:57:f8:b2:7c:7d:16:63:35:f6:ea:4c:
                    2e:a1:d7:78:d3:f1:fc:ef:55:2b:51:e3:04:cb:99:
                    5d:6b:1b:7f:0f:32:59:e8:fa:5c:ed:38:53:dc:80:
                    89:10:fd:af:85:c0:57:fe:f7:66:5d:73:5c:cd:66:
                    83:d6:a3:42:ff:89:17:de:48:af:c7:ba:7e:5d:04:
                    cf:8d:ea:d7:98:4c:67:91:82:37:3c:84:d7:b3:88:
                    9e:03
                Exponent: 65537 (0x10001)
        X509v3 extensions:
            X509v3 Basic Constraints: 
                CA:FALSE
            X509v3 Subject Key Identifier: 
                12:15:1B:E6:13:67:90:1D:78:CB:A4:2B:BB:5C:FB:7E:43:8B:A7:54
            X509v3 Authority Key Identifier: 
                keyid:6C:CE:8C:9D:16:03:69:A2:9B:EE:AC:48:1E:6D:11:C0:83:C8:C0:D5
                DirName:/CN=team416-net
                serial:72:DB:84:A3:83:1B:8F:99:2C:63:D8:EB:FB:13:E4:F4:13:5E:CA:98
            X509v3 Extended Key Usage: 
                TLS Web Client Authentication
            X509v3 Key Usage: 
                Digital Signature
    Signature Algorithm: sha256WithRSAEncryption
    Signature Value:
        6d:90:1b:20:cd:3c:59:5f:6d:1c:66:81:c5:57:dd:4e:f3:38:
        b3:5b:33:cc:49:75:84:3e:7c:ec:f4:c0:f4:45:2f:67:86:69:
        35:0e:99:13:8f:08:25:a1:92:49:6f:1a:c4:0d:3a:45:61:d3:
        38:e8:85:a3:9a:08:56:be:cc:eb:4b:40:57:b5:fe:47:6a:8e:
        1a:fb:99:9d:41:cb:59:ec:5c:b9:55:9a:86:d2:6a:26:35:60:
        d1:bf:6a:0d:95:9e:bb:fc:2a:22:98:7a:cd:14:e2:bb:39:a1:
        58:d4:7e:43:bc:37:85:6a:43:b4:ee:05:9a:53:70:bb:3c:12:
        c1:70:e0:56:b7:1a:bb:3f:96:ba:f1:d9:84:85:ce:a9:15:73:
        46:ba:5e:e1:49:f8:65:b1:51:0d:38:91:bb:98:72:52:d4:8f:
        e5:13:7d:a6:05:66:2d:95:6f:a2:a5:9c:90:7c:3e:0b:75:4a:
        4f:d6:b2:a9:00:18:83:fe:99:3c:85:cc:66:2b:a7:91:d4:e3:
        0b:67:c4:c1:e7:81:50:35:8c:0a:ae:a1:23:0a:7c:97:d3:21:
        53:d1:a9:ba:98:43:69:00:42:25:9b:d0:d3:e2:4e:11:17:88:
        d1:e7:75:9c:32:0d:8e:6d:43:6d:f4:5f:75:fc:fd:b8:ac:6a:
        1b:f3:3a:5a
-----BEGIN CERTIFICATE-----
MIIDXTCCAkWgAwIBAgIRALufA4HUBAoE/CmSxXeovH0wDQYJKoZIhvcNAQELBQAw
FjEUMBIGA1UEAwwLdGVhbTQxNi1uZXQwHhcNMjMxMTA0MTA0ODA3WhcNMjYxMDE5
MTA0ODA3WjAZMRcwFQYDVQQDDA50ZWFtNDE2LWNsaWVudDCCASIwDQYJKoZIhvcN
AQEBBQADggEPADCCAQoCggEBAKRYQMm5qioe7tO5JA7q3zrIO6d49pmdQIwj5HM2
P+9pUOhZnz9BiOnEVle3Go7rU6b4Z0LqIzUOj1QTKq575dBEG2cNZtEPMLeay3v+
yqikU5PcG8hJ70wqcTk3M4e6QRtZ4Ame37wzJWD8j2XBW1lS1t1q1dhYZaWRzfOr
ul7fPl/4x3gc0AyBZXu2mebaQg2sParWIGez8y6Rv7pWt/6XThaCmyS0Plf4snx9
FmM19upMLqHXeNPx/O9VK1HjBMuZXWsbfw8yWej6XO04U9yAiRD9r4XAV/73Zl1z
XM1mg9ajQv+JF95Ir8e6fl0Ez43q15hMZ5GCNzyE17OIngMCAwEAAaOBojCBnzAJ
BgNVHRMEAjAAMB0GA1UdDgQWBBQSFRvmE2eQHXjLpCu7XPt+Q4unVDBRBgNVHSME
SjBIgBRszoydFgNpopvurEgebRHAg8jA1aEapBgwFjEUMBIGA1UEAwwLdGVhbTQx
Ni1uZXSCFHLbhKODG4+ZLGPY6/sT5PQTXsqYMBMGA1UdJQQMMAoGCCsGAQUFBwMC
MAsGA1UdDwQEAwIHgDANBgkqhkiG9w0BAQsFAAOCAQEAbZAbIM08WV9tHGaBxVfd
TvM4s1szzEl1hD587PTA9EUvZ4ZpNQ6ZE48IJaGSSW8axA06RWHTOOiFo5oIVr7M
60tAV7X+R2qOGvuZnUHLWexcuVWahtJqJjVg0b9qDZWeu/wqIph6zRTiuzmhWNR+
Q7w3hWpDtO4FmlNwuzwSwXDgVrcauz+WuvHZhIXOqRVzRrpe4Un4ZbFRDTiRu5hy
UtSP5RN9pgVmLZVvoqWckHw+C3VKT9ayqQAYg/6ZPIXMZiunkdTjC2fEweeBUDWM
Cq6hIwp8l9MhU9GpuphDaQBCJZvQ0+JOEReI0ed1nDINjm1DbfRfdfz9uKxqG/M6
Wg==
-----END CERTIFICATE-----
