Certificate:
    Data:
        Version: 3 (0x2)
        Serial Number:
            03:9a:c6:b8:f1:1c:84:7c:e2:f9:cb:d6:06:0e:3a:fe
        Signature Algorithm: sha256WithRSAEncryption
        Issuer: CN=team341-net
        Validity
            Not Before: Nov  4 11:34:59 2023 GMT
            Not After : Oct 19 11:34:59 2026 GMT
        Subject: CN=team341-client
        Subject Public Key Info:
            Public Key Algorithm: rsaEncryption
                Public-Key: (2048 bit)
                Modulus:
                    00:b2:a4:3d:a9:b9:11:ef:76:1f:94:91:61:85:b7:
                    07:c2:0b:bf:68:fc:fc:6e:a5:53:76:d7:ce:4c:7c:
                    7c:ee:bb:e6:a9:f6:56:12:39:7c:c4:06:af:b9:19:
                    6f:05:16:1c:c3:8b:5f:ae:4c:f7:d3:ff:bb:7a:18:
                    b6:d2:c5:d9:0f:9f:c8:41:c8:c2:e8:1c:92:a5:b2:
                    2b:d3:dd:2c:38:17:a9:aa:e4:e6:43:27:eb:78:77:
                    f8:05:da:88:4e:a6:c9:bc:48:87:98:e8:34:e9:c9:
                    c6:bc:b9:9c:ef:82:48:67:48:1d:80:c1:e1:ad:39:
                    a7:17:2d:24:4b:3b:88:f3:14:eb:6a:f0:5e:f9:b8:
                    b0:c8:1f:0b:f9:65:ad:bd:0a:6c:21:2d:b8:72:90:
                    7e:e2:be:23:10:2d:22:1b:84:e5:7d:d8:3f:e5:32:
                    5b:92:0c:ed:c8:cc:5e:1a:a7:4c:56:89:74:01:b1:
                    3e:16:30:ae:97:ab:5f:bd:dc:48:a4:69:4c:57:a1:
                    39:7d:9d:93:f3:b8:e6:7c:b0:de:0f:7a:cf:e5:fb:
                    30:f6:4f:4d:44:a6:3e:e9:76:fb:41:06:14:be:06:
                    0f:9b:6d:cd:81:68:8a:1a:45:77:4b:44:df:47:ba:
                    71:43:e8:81:71:ff:35:91:fd:4d:5d:ae:22:99:00:
                    9d:9d
                Exponent: 65537 (0x10001)
        X509v3 extensions:
            X509v3 Basic Constraints: 
                CA:FALSE
            X509v3 Subject Key Identifier: 
                93:C8:4A:B2:CB:8F:3F:61:47:5F:3A:51:48:29:95:02:ED:E6:3E:B8
            X509v3 Authority Key Identifier: 
                keyid:43:1F:02:74:5F:20:89:AE:D3:61:90:81:E6:AB:1A:D7:20:20:4E:09
                DirName:/CN=team341-net
                serial:77:83:E9:AB:66:E0:B3:31:7E:16:9C:08:4A:E1:5C:B5:D8:98:5D:D1
            X509v3 Extended Key Usage: 
                TLS Web Client Authentication
            X509v3 Key Usage: 
                Digital Signature
    Signature Algorithm: sha256WithRSAEncryption
    Signature Value:
        86:2f:08:9f:3e:9b:f5:98:19:a5:c3:b5:0b:26:7f:04:64:63:
        39:7f:5e:76:bb:78:fa:e5:ef:d5:40:90:d3:d2:29:e6:86:f2:
        41:76:09:94:1a:4a:30:f4:e4:f0:cd:af:4a:ed:cd:fa:a1:22:
        86:84:b9:a5:6a:4f:2e:0a:8b:01:92:8f:91:d8:d6:5c:e0:2e:
        b7:b2:fd:6b:18:31:fe:8b:72:a8:97:cf:31:88:93:32:b1:60:
        d6:f3:3c:d4:f4:57:dd:f5:19:75:b6:eb:d9:2e:9f:eb:01:dd:
        9c:7c:2f:e8:88:e0:00:7c:e3:ac:9d:8e:53:73:7f:2f:71:f3:
        68:c5:9a:e4:cf:41:fe:d5:20:3f:39:97:96:25:62:4e:74:24:
        61:4a:23:99:20:04:2f:6c:82:ee:ff:56:1c:bc:f0:1d:77:c0:
        89:ca:68:a6:7f:c8:09:a6:10:65:2e:6f:9e:8b:fa:ec:55:88:
        73:56:a7:74:f5:4e:e9:9b:65:92:7d:f3:1a:50:91:3f:77:2e:
        0f:28:9e:d8:ba:4d:93:fb:35:c7:96:3b:ab:17:0f:ac:b3:1e:
        f9:f8:35:1b:b1:42:15:23:67:20:c3:df:40:8d:f5:4f:be:84:
        51:ce:f6:28:97:3c:11:10:02:d0:b0:18:b2:80:d8:93:b2:d7:
        7b:1f:33:9a
-----BEGIN CERTIFICATE-----
MIIDXDCCAkSgAwIBAgIQA5rGuPEchHzi+cvWBg46/jANBgkqhkiG9w0BAQsFADAW
MRQwEgYDVQQDDAt0ZWFtMzQxLW5ldDAeFw0yMzExMDQxMTM0NTlaFw0yNjEwMTkx
MTM0NTlaMBkxFzAVBgNVBAMMDnRlYW0zNDEtY2xpZW50MIIBIjANBgkqhkiG9w0B
AQEFAAOCAQ8AMIIBCgKCAQEAsqQ9qbkR73YflJFhhbcHwgu/aPz8bqVTdtfOTHx8
7rvmqfZWEjl8xAavuRlvBRYcw4tfrkz30/+7ehi20sXZD5/IQcjC6BySpbIr090s
OBepquTmQyfreHf4BdqITqbJvEiHmOg06cnGvLmc74JIZ0gdgMHhrTmnFy0kSzuI
8xTravBe+biwyB8L+WWtvQpsIS24cpB+4r4jEC0iG4Tlfdg/5TJbkgztyMxeGqdM
Vol0AbE+FjCul6tfvdxIpGlMV6E5fZ2T87jmfLDeD3rP5fsw9k9NRKY+6Xb7QQYU
vgYPm23NgWiKGkV3S0TfR7pxQ+iBcf81kf1NXa4imQCdnQIDAQABo4GiMIGfMAkG
A1UdEwQCMAAwHQYDVR0OBBYEFJPISrLLjz9hR186UUgplQLt5j64MFEGA1UdIwRK
MEiAFEMfAnRfIImu02GQgearGtcgIE4JoRqkGDAWMRQwEgYDVQQDDAt0ZWFtMzQx
LW5ldIIUd4Ppq2bgszF+FpwISuFctdiYXdEwEwYDVR0lBAwwCgYIKwYBBQUHAwIw
CwYDVR0PBAQDAgeAMA0GCSqGSIb3DQEBCwUAA4IBAQCGLwifPpv1mBmlw7ULJn8E
ZGM5f152u3j65e/VQJDT0inmhvJBdgmUGkow9OTwza9K7c36oSKGhLmlak8uCosB
ko+R2NZc4C63sv1rGDH+i3Kol88xiJMysWDW8zzU9Ffd9Rl1tuvZLp/rAd2cfC/o
iOAAfOOsnY5Tc38vcfNoxZrkz0H+1SA/OZeWJWJOdCRhSiOZIAQvbILu/1YcvPAd
d8CJymimf8gJphBlLm+ei/rsVYhzVqd09U7pm2WSffMaUJE/dy4PKJ7Yuk2T+zXH
ljurFw+ssx75+DUbsUIVI2cgw99AjfVPvoRRzvYolzwREALQsBiygNiTstd7HzOa
-----END CERTIFICATE-----
