Certificate:
    Data:
        Version: 3 (0x2)
        Serial Number:
            2a:e9:22:34:e9:88:87:61:83:b2:66:41:bd:1f:e1:75
        Signature Algorithm: sha256WithRSAEncryption
        Issuer: CN=team341-net
        Validity
            Not Before: Nov  4 10:46:51 2023 GMT
            Not After : Oct 19 10:46:51 2026 GMT
        Subject: CN=team341-server
        Subject Public Key Info:
            Public Key Algorithm: rsaEncryption
                Public-Key: (2048 bit)
                Modulus:
                    00:ce:41:bc:97:6b:cb:49:0c:f2:b4:59:d8:48:21:
                    1a:dd:d6:b2:51:73:ac:17:ec:86:cb:30:12:7a:dd:
                    cc:c9:c0:80:53:eb:0c:6f:14:54:6c:88:fb:6f:d2:
                    fe:3d:19:18:df:5a:e4:61:ea:37:81:97:cc:3f:17:
                    fd:41:0b:51:d6:1a:77:db:52:19:0e:f8:a3:07:a0:
                    7a:cb:9f:16:c6:ec:78:fc:f8:9a:2a:7f:9f:58:5d:
                    8a:2b:31:68:e3:f2:2c:dd:ca:87:f7:d3:e7:12:c1:
                    ff:88:76:c8:a3:a8:d5:13:ec:80:fe:fd:1d:2e:e6:
                    33:c7:59:da:b3:f6:7c:b3:51:f4:cf:6b:a5:e5:ec:
                    5c:03:a6:cc:90:12:da:94:00:6e:81:ea:5b:43:9a:
                    9c:67:3d:c3:27:ef:9f:c1:19:4d:0b:2c:ca:63:ef:
                    53:7f:aa:bc:8f:40:23:62:bc:d9:0a:02:0e:19:75:
                    7d:a8:d4:a0:ad:96:69:70:31:de:87:75:f4:04:ae:
                    69:8c:c5:26:92:6e:ff:c2:bb:24:f3:d5:c6:97:18:
                    92:3c:e9:f5:98:89:a5:e5:82:1e:94:d3:2b:d7:13:
                    c6:0a:a5:61:54:74:24:1d:09:1f:31:1e:90:bf:c8:
                    5c:02:79:46:8d:0f:6a:fc:3b:e0:28:17:4d:ed:7b:
                    f1:89
                Exponent: 65537 (0x10001)
        X509v3 extensions:
            X509v3 Basic Constraints: 
                CA:FALSE
            X509v3 Subject Key Identifier: 
                EC:76:F7:1A:C1:D8:1F:BD:72:39:8A:2A:22:AF:49:0C:E6:43:8F:A4
            X509v3 Authority Key Identifier: 
                keyid:6A:62:88:12:51:B8:E8:86:DB:BF:00:CB:65:11:9C:E2:A4:5B:88:3C
                DirName:/CN=team341-net
                serial:5A:F5:FF:8F:0F:D7:C1:19:F9:91:19:63:D4:BD:7A:BB:1A:6F:CD:A0
            X509v3 Extended Key Usage: 
                TLS Web Server Authentication
            X509v3 Key Usage: 
                Digital Signature, Key Encipherment
            X509v3 Subject Alternative Name: 
                DNS:team341-server
    Signature Algorithm: sha256WithRSAEncryption
    Signature Value:
        98:6a:05:57:4d:c4:19:32:f0:bf:3e:af:b7:76:64:a0:26:55:
        fb:35:70:05:3f:bb:8c:62:a9:ad:fd:de:2b:36:c9:d4:35:a8:
        b7:9d:b9:33:38:bc:ea:94:27:f5:9f:ec:bf:55:a4:d7:6f:96:
        e6:0b:9e:3e:58:ee:ed:2b:33:82:e3:e8:20:42:0e:19:5a:b2:
        ed:ff:d0:9e:bd:60:2d:f1:dc:73:80:f3:9d:85:d2:16:e0:31:
        c9:81:ec:bf:06:f6:0c:73:aa:20:77:c0:7f:8f:ec:90:07:25:
        a3:90:74:82:a2:23:33:6d:76:e4:a3:80:ef:03:cc:1c:2b:81:
        4e:1e:b6:c2:c9:3d:c4:7b:04:d2:fc:1a:6c:da:fa:bc:83:49:
        e1:8c:fc:e6:fa:e4:4d:78:db:85:ac:9e:08:6f:f1:39:3b:ae:
        3f:be:77:e1:a9:b3:6c:d9:36:79:cc:17:25:25:dd:5d:b5:40:
        47:3b:61:a7:b9:c4:a8:c3:6d:97:04:73:f6:81:87:f1:ad:62:
        d3:38:7b:b1:29:01:cd:a3:59:9b:0d:ef:e0:f0:e4:96:d5:4f:
        c0:a0:ec:d9:16:6a:33:7b:32:29:7c:67:82:b5:7f:d8:21:41:
        34:7f:e2:65:38:50:ec:63:2c:dd:16:c4:85:e0:8a:52:92:89:
        4e:28:12:4b
-----BEGIN CERTIFICATE-----
MIIDdzCCAl+gAwIBAgIQKukiNOmIh2GDsmZBvR/hdTANBgkqhkiG9w0BAQsFADAW
MRQwEgYDVQQDDAt0ZWFtMzQxLW5ldDAeFw0yMzExMDQxMDQ2NTFaFw0yNjEwMTkx
MDQ2NTFaMBkxFzAVBgNVBAMMDnRlYW0zNDEtc2VydmVyMIIBIjANBgkqhkiG9w0B
AQEFAAOCAQ8AMIIBCgKCAQEAzkG8l2vLSQzytFnYSCEa3dayUXOsF+yGyzASet3M
ycCAU+sMbxRUbIj7b9L+PRkY31rkYeo3gZfMPxf9QQtR1hp321IZDvijB6B6y58W
xux4/PiaKn+fWF2KKzFo4/Is3cqH99PnEsH/iHbIo6jVE+yA/v0dLuYzx1nas/Z8
s1H0z2ul5excA6bMkBLalABugepbQ5qcZz3DJ++fwRlNCyzKY+9Tf6q8j0AjYrzZ
CgIOGXV9qNSgrZZpcDHeh3X0BK5pjMUmkm7/wrsk89XGlxiSPOn1mIml5YIelNMr
1xPGCqVhVHQkHQkfMR6Qv8hcAnlGjQ9q/DvgKBdN7XvxiQIDAQABo4G9MIG6MAkG
A1UdEwQCMAAwHQYDVR0OBBYEFOx29xrB2B+9cjmKKiKvSQzmQ4+kMFEGA1UdIwRK
MEiAFGpiiBJRuOiG278Ay2URnOKkW4g8oRqkGDAWMRQwEgYDVQQDDAt0ZWFtMzQx
LW5ldIIUWvX/jw/XwRn5kRlj1L16uxpvzaAwEwYDVR0lBAwwCgYIKwYBBQUHAwEw
CwYDVR0PBAQDAgWgMBkGA1UdEQQSMBCCDnRlYW0zNDEtc2VydmVyMA0GCSqGSIb3
DQEBCwUAA4IBAQCYagVXTcQZMvC/Pq+3dmSgJlX7NXAFP7uMYqmt/d4rNsnUNai3
nbkzOLzqlCf1n+y/VaTXb5bmC54+WO7tKzOC4+ggQg4ZWrLt/9CevWAt8dxzgPOd
hdIW4DHJgey/BvYMc6ogd8B/j+yQByWjkHSCoiMzbXbko4DvA8wcK4FOHrbCyT3E
ewTS/Bps2vq8g0nhjPzm+uRNeNuFrJ4Ib/E5O64/vnfhqbNs2TZ5zBclJd1dtUBH
O2GnucSow22XBHP2gYfxrWLTOHuxKQHNo1mbDe/g8OSW1U/AoOzZFmozezIpfGeC
tX/YIUE0f+JlOFDsYyzdFsSF4IpSkolOKBJL
-----END CERTIFICATE-----
