Certificate:
    Data:
        Version: 3 (0x2)
        Serial Number:
            fe:cc:31:c2:b8:7c:05:cc:e9:0b:21:4c:e8:96:62:69
        Signature Algorithm: sha256WithRSAEncryption
        Issuer: CN=team341-net
        Validity
            Not Before: Nov  3 20:45:31 2023 GMT
            Not After : Oct 18 20:45:31 2026 GMT
        Subject: CN=team341-client
        Subject Public Key Info:
            Public Key Algorithm: rsaEncryption
                Public-Key: (2048 bit)
                Modulus:
                    00:ab:30:f0:ad:9d:12:a6:5f:5c:5c:de:55:fe:10:
                    97:0d:42:4e:9f:96:7c:2b:08:ad:70:33:8b:5b:f3:
                    6b:e3:f1:4e:e0:e5:7e:b6:8b:10:9b:7f:55:c0:23:
                    96:72:d1:77:24:d7:b1:f2:23:04:ef:72:c7:0e:97:
                    50:3c:36:85:7b:69:bf:cc:f6:8b:44:03:3c:30:37:
                    6a:94:2d:20:99:20:ae:29:60:19:11:14:4b:a0:e8:
                    a7:c9:d3:77:0c:af:56:42:c0:11:f0:09:7e:99:40:
                    1d:3b:bd:a8:38:44:5a:18:39:90:0f:8a:c5:56:a6:
                    c9:52:e8:91:d2:ee:b6:69:42:0c:57:18:43:f8:1c:
                    2a:90:ad:6b:74:d0:b7:a5:4c:d4:b5:be:df:0b:2d:
                    1c:1f:b8:75:17:34:83:6b:7c:07:c7:20:7a:b0:03:
                    e0:12:23:43:23:c6:42:8e:af:1f:3c:93:03:6b:bc:
                    2f:bb:07:20:46:ad:3f:b1:1b:84:35:51:c4:ec:00:
                    7a:8f:fc:d5:b1:2f:fb:c8:70:1b:91:5a:c6:dc:71:
                    e5:d4:44:48:9b:88:f9:49:86:3d:d0:31:1d:86:66:
                    1d:31:77:64:72:bb:73:0e:4a:a3:ab:fb:9b:4a:96:
                    64:ed:bb:2a:d3:8f:91:b6:7d:37:58:91:42:88:53:
                    26:e5
                Exponent: 65537 (0x10001)
        X509v3 extensions:
            X509v3 Basic Constraints: 
                CA:FALSE
            X509v3 Subject Key Identifier: 
                23:53:7F:FD:31:E3:66:0F:18:13:D2:F3:11:38:81:12:4D:2F:05:3C
            X509v3 Authority Key Identifier: 
                keyid:59:E0:81:41:7A:D9:32:7A:3E:42:BF:B2:61:13:73:25:D4:C4:C4:61
                DirName:/CN=team341-net
                serial:22:2B:7A:CC:27:9F:B5:9B:5A:B9:CF:EE:6B:38:B3:A6:D1:94:AF:56
            X509v3 Extended Key Usage: 
                TLS Web Client Authentication
            X509v3 Key Usage: 
                Digital Signature
    Signature Algorithm: sha256WithRSAEncryption
    Signature Value:
        dd:e8:26:1a:14:bf:c2:98:22:f8:a6:91:96:eb:42:7b:97:23:
        d5:3c:d4:49:b0:b4:8f:36:e7:14:f1:4f:c4:36:4d:2f:06:3f:
        a8:58:9b:e7:01:f7:57:fc:ad:dc:c5:be:b6:97:d8:a0:cb:f1:
        bf:a0:28:d7:85:0e:86:6e:7e:90:13:69:9c:5d:1f:66:be:3a:
        7d:13:3b:52:9d:5f:63:27:3a:b8:8a:6b:98:35:cf:e9:c8:cd:
        91:02:bb:8a:7e:cf:31:3b:e4:f2:7f:a7:69:fa:e5:1a:e0:91:
        88:e2:11:fe:c8:6e:65:f3:14:70:b4:a7:18:41:da:48:bf:d9:
        c7:00:d9:9a:57:19:4b:15:91:a6:71:9a:7e:90:af:6f:a7:97:
        cb:2c:7a:15:65:ae:04:5f:59:1f:f8:ab:98:5f:1b:1b:04:45:
        d8:d6:21:b7:70:6d:61:5d:0d:61:b2:a5:d9:21:73:52:4b:11:
        a2:22:e0:fb:98:0e:88:d5:cb:a8:a9:ab:62:75:74:81:80:13:
        1e:71:1f:e5:f8:de:8b:c0:32:8c:26:2d:de:be:0c:ba:ba:3a:
        12:2a:e3:09:20:83:3b:a2:3e:3a:07:79:1f:b5:9f:1a:9f:c0:
        0c:03:b9:31:a2:57:a2:c6:07:e0:5f:dc:4b:62:96:6d:d1:7a:
        94:63:35:56
-----BEGIN CERTIFICATE-----
MIIDXTCCAkWgAwIBAgIRAP7MMcK4fAXM6QshTOiWYmkwDQYJKoZIhvcNAQELBQAw
FjEUMBIGA1UEAwwLdGVhbTM0MS1uZXQwHhcNMjMxMTAzMjA0NTMxWhcNMjYxMDE4
MjA0NTMxWjAZMRcwFQYDVQQDDA50ZWFtMzQxLWNsaWVudDCCASIwDQYJKoZIhvcN
AQEBBQADggEPADCCAQoCggEBAKsw8K2dEqZfXFzeVf4Qlw1CTp+WfCsIrXAzi1vz
a+PxTuDlfraLEJt/VcAjlnLRdyTXsfIjBO9yxw6XUDw2hXtpv8z2i0QDPDA3apQt
IJkgrilgGREUS6Dop8nTdwyvVkLAEfAJfplAHTu9qDhEWhg5kA+KxVamyVLokdLu
tmlCDFcYQ/gcKpCta3TQt6VM1LW+3wstHB+4dRc0g2t8B8cgerAD4BIjQyPGQo6v
HzyTA2u8L7sHIEatP7EbhDVRxOwAeo/81bEv+8hwG5Faxtxx5dRESJuI+UmGPdAx
HYZmHTF3ZHK7cw5Ko6v7m0qWZO27KtOPkbZ9N1iRQohTJuUCAwEAAaOBojCBnzAJ
BgNVHRMEAjAAMB0GA1UdDgQWBBQjU3/9MeNmDxgT0vMROIESTS8FPDBRBgNVHSME
SjBIgBRZ4IFBetkyej5Cv7JhE3Ml1MTEYaEapBgwFjEUMBIGA1UEAwwLdGVhbTM0
MS1uZXSCFCIreswnn7WbWrnP7ms4s6bRlK9WMBMGA1UdJQQMMAoGCCsGAQUFBwMC
MAsGA1UdDwQEAwIHgDANBgkqhkiG9w0BAQsFAAOCAQEA3egmGhS/wpgi+KaRlutC
e5cj1TzUSbC0jzbnFPFPxDZNLwY/qFib5wH3V/yt3MW+tpfYoMvxv6Ao14UOhm5+
kBNpnF0fZr46fRM7Up1fYyc6uIprmDXP6cjNkQK7in7PMTvk8n+nafrlGuCRiOIR
/shuZfMUcLSnGEHaSL/ZxwDZmlcZSxWRpnGafpCvb6eXyyx6FWWuBF9ZH/irmF8b
GwRF2NYht3BtYV0NYbKl2SFzUksRoiLg+5gOiNXLqKmrYnV0gYATHnEf5fjei8Ay
jCYt3r4Muro6EirjCSCDO6I+Ogd5H7WfGp/ADAO5MaJXosYH4F/cS2KWbdF6lGM1
Vg==
-----END CERTIFICATE-----
