Certificate:
    Data:
        Version: 3 (0x2)
        Serial Number:
            f5:00:10:d6:55:ed:ce:a1:ab:62:b0:e0:f8:b8:8b:af
        Signature Algorithm: sha256WithRSAEncryption
        Issuer: CN=team164-net
        Validity
            Not Before: Nov  3 20:42:11 2023 GMT
            Not After : Oct 18 20:42:11 2026 GMT
        Subject: CN=team164-client
        Subject Public Key Info:
            Public Key Algorithm: rsaEncryption
                Public-Key: (2048 bit)
                Modulus:
                    00:d9:46:f6:73:8f:99:f2:1e:aa:4a:bd:e9:55:8a:
                    40:fc:d8:b1:4e:e4:93:1b:7c:e3:56:e9:f2:93:c0:
                    e8:90:28:2a:17:02:0e:72:c7:92:36:b6:b7:6a:f5:
                    03:cc:a0:44:bb:37:7e:7c:b7:df:0a:ed:b3:fd:f8:
                    e5:f3:6c:b4:29:d2:f8:bf:af:ad:39:5f:8e:50:b7:
                    3a:30:d1:7e:ff:99:bc:c1:68:6e:07:0b:27:cc:1a:
                    4c:b2:36:6b:8b:10:e0:20:85:f8:78:c6:72:08:20:
                    a5:19:32:9c:8d:76:b6:57:80:1f:88:a4:62:ed:75:
                    21:75:02:c1:5b:1e:0d:af:98:f1:9d:a4:32:0c:e0:
                    39:bd:f7:c7:b3:8a:39:4e:86:b0:29:92:0d:3f:77:
                    8a:64:9d:21:37:e7:3f:cb:af:bb:62:6e:89:5c:f1:
                    c5:a6:74:be:23:7b:f2:8e:80:76:50:ee:ec:08:93:
                    20:a6:86:5c:1f:44:78:55:b3:3a:87:c1:a0:43:34:
                    ef:6b:c0:76:94:cc:cb:f1:fe:0e:b7:3a:4e:30:6a:
                    42:b6:29:44:25:50:16:c7:f3:9f:44:26:96:8f:f4:
                    8d:73:fa:6a:43:42:b8:f7:c5:8b:81:00:0b:4a:40:
                    fd:d7:51:e4:d6:b1:6e:89:de:2a:ec:e1:53:af:11:
                    56:41
                Exponent: 65537 (0x10001)
        X509v3 extensions:
            X509v3 Basic Constraints: 
                CA:FALSE
            X509v3 Subject Key Identifier: 
                DD:CA:71:BE:C9:F1:05:E1:CD:20:6D:6F:62:54:98:55:B8:0E:F1:33
            X509v3 Authority Key Identifier: 
                keyid:80:DB:CE:E3:7E:38:14:0C:EF:B2:60:FF:64:CC:66:14:D7:15:BE:40
                DirName:/CN=team164-net
                serial:74:C6:B5:A6:12:BE:AD:23:BA:77:44:20:70:01:52:1F:BB:41:35:DA
            X509v3 Extended Key Usage: 
                TLS Web Client Authentication
            X509v3 Key Usage: 
                Digital Signature
    Signature Algorithm: sha256WithRSAEncryption
    Signature Value:
        28:3d:c8:62:a9:01:dd:20:ad:23:72:57:c7:0c:5d:c8:f5:f8:
        c4:98:37:23:63:0b:e2:9d:e9:35:54:75:4a:d3:9b:59:40:58:
        a4:e0:2e:48:84:51:93:b1:9b:ec:72:8c:13:4c:45:9a:0a:b0:
        55:f9:29:fc:fc:44:c8:d7:4f:b9:79:cc:93:63:89:a8:4b:ff:
        9c:ee:27:39:10:98:e9:1f:85:0b:63:9c:ee:9f:f0:47:e4:a7:
        db:7c:21:60:99:6a:ef:c6:3f:97:4f:a4:7f:90:c3:8e:08:05:
        7d:84:34:11:e4:6f:9c:39:35:fa:5d:3b:12:6c:b4:ca:5b:44:
        6b:2a:83:e7:e9:9a:e5:ea:03:02:d4:83:26:ee:06:0c:03:97:
        de:8c:28:a9:a5:bc:60:75:b7:91:56:9a:06:4c:d9:d4:0e:61:
        1a:e7:47:b4:08:5a:8f:de:22:b1:d2:1e:81:f8:9f:48:fb:a4:
        d5:43:bc:38:8f:ab:83:4d:1c:49:6d:5c:b2:63:cc:1d:2f:91:
        8a:c6:4c:3d:f3:bb:12:66:66:91:90:e6:f0:f3:bb:dc:46:b7:
        5d:ef:df:d2:36:b4:9e:4c:71:5c:03:80:0e:4c:eb:35:a7:52:
        f4:bb:9d:89:40:29:50:3f:c7:2f:41:c0:82:64:6a:c7:a1:9b:
        b1:eb:78:53
-----BEGIN CERTIFICATE-----
MIIDXTCCAkWgAwIBAgIRAPUAENZV7c6hq2Kw4Pi4i68wDQYJKoZIhvcNAQELBQAw
FjEUMBIGA1UEAwwLdGVhbTE2NC1uZXQwHhcNMjMxMTAzMjA0MjExWhcNMjYxMDE4
MjA0MjExWjAZMRcwFQYDVQQDDA50ZWFtMTY0LWNsaWVudDCCASIwDQYJKoZIhvcN
AQEBBQADggEPADCCAQoCggEBANlG9nOPmfIeqkq96VWKQPzYsU7kkxt841bp8pPA
6JAoKhcCDnLHkja2t2r1A8ygRLs3fny33wrts/345fNstCnS+L+vrTlfjlC3OjDR
fv+ZvMFobgcLJ8waTLI2a4sQ4CCF+HjGcgggpRkynI12tleAH4ikYu11IXUCwVse
Da+Y8Z2kMgzgOb33x7OKOU6GsCmSDT93imSdITfnP8uvu2JuiVzxxaZ0viN78o6A
dlDu7AiTIKaGXB9EeFWzOofBoEM072vAdpTMy/H+Drc6TjBqQrYpRCVQFsfzn0Qm
lo/0jXP6akNCuPfFi4EAC0pA/ddR5NaxboneKuzhU68RVkECAwEAAaOBojCBnzAJ
BgNVHRMEAjAAMB0GA1UdDgQWBBTdynG+yfEF4c0gbW9iVJhVuA7xMzBRBgNVHSME
SjBIgBSA287jfjgUDO+yYP9kzGYU1xW+QKEapBgwFjEUMBIGA1UEAwwLdGVhbTE2
NC1uZXSCFHTGtaYSvq0jundEIHABUh+7QTXaMBMGA1UdJQQMMAoGCCsGAQUFBwMC
MAsGA1UdDwQEAwIHgDANBgkqhkiG9w0BAQsFAAOCAQEAKD3IYqkB3SCtI3JXxwxd
yPX4xJg3I2ML4p3pNVR1StObWUBYpOAuSIRRk7Gb7HKME0xFmgqwVfkp/PxEyNdP
uXnMk2OJqEv/nO4nORCY6R+FC2Oc7p/wR+Sn23whYJlq78Y/l0+kf5DDjggFfYQ0
EeRvnDk1+l07Emy0yltEayqD5+ma5eoDAtSDJu4GDAOX3owoqaW8YHW3kVaaBkzZ
1A5hGudHtAhaj94isdIegfifSPuk1UO8OI+rg00cSW1csmPMHS+RisZMPfO7EmZm
kZDm8PO73Ea3Xe/f0ja0nkxxXAOADkzrNadS9LudiUApUD/HL0HAgmRqx6Gbset4
Uw==
-----END CERTIFICATE-----
