Certificate:
    Data:
        Version: 3 (0x2)
        Serial Number:
            c2:96:96:7f:e3:e8:fd:21:b4:49:df:86:ae:be:62:03
        Signature Algorithm: sha256WithRSAEncryption
        Issuer: CN=team301-net
        Validity
            Not Before: Nov  3 20:44:44 2023 GMT
            Not After : Oct 18 20:44:44 2026 GMT
        Subject: CN=team301-client
        Subject Public Key Info:
            Public Key Algorithm: rsaEncryption
                Public-Key: (2048 bit)
                Modulus:
                    00:8b:df:c7:7e:16:c8:87:f2:6c:73:27:db:4b:07:
                    ed:b4:61:f1:a2:c8:77:f9:ef:a9:c2:b0:10:16:9f:
                    c1:90:2d:fc:68:ae:8f:8c:a0:8b:10:d4:d0:d6:4b:
                    97:c6:41:45:6a:c5:44:9b:2c:03:6e:26:6e:14:62:
                    da:5e:fc:ba:49:ab:ef:47:e5:ae:0d:d4:86:28:f0:
                    fa:a7:26:ef:ef:b7:4a:f0:5a:83:ea:35:d4:03:be:
                    ba:3c:5f:36:4d:f5:f0:00:fa:7a:50:c1:0a:d5:4e:
                    73:f6:aa:5f:ca:0c:17:70:7f:57:e8:e3:ae:a5:8e:
                    8e:f7:5d:69:5d:50:99:01:d6:10:3e:66:f4:01:00:
                    47:0c:7c:f5:97:70:69:9e:9e:46:37:c1:b2:eb:94:
                    39:bd:2f:81:a2:3a:29:f4:86:c5:88:c1:7b:2c:32:
                    2a:5b:16:0d:a5:5f:c3:1c:a3:18:0f:a3:b0:27:a6:
                    a6:ff:be:66:25:a2:77:ac:e3:93:a8:3a:77:5b:92:
                    23:f6:f1:c1:99:2d:36:71:33:2a:fe:b2:aa:fa:32:
                    54:21:78:1e:f3:23:34:91:ff:d4:47:9f:76:20:c4:
                    89:47:1e:ff:a7:b0:3c:a3:7f:b0:2e:4a:9a:3f:ec:
                    84:8c:ca:56:b5:57:f7:7c:b4:50:c8:3f:78:a3:10:
                    47:97
                Exponent: 65537 (0x10001)
        X509v3 extensions:
            X509v3 Basic Constraints: 
                CA:FALSE
            X509v3 Subject Key Identifier: 
                8D:40:82:FD:45:FD:7F:43:01:99:69:52:D2:F7:0B:67:42:31:09:B4
            X509v3 Authority Key Identifier: 
                keyid:30:EA:79:57:B6:5B:87:06:1F:FC:61:8F:3B:CA:D1:3B:A6:93:6F:BA
                DirName:/CN=team301-net
                serial:29:82:84:A1:9F:AE:0A:1F:2A:82:EE:41:1F:AC:65:1D:DB:76:B5:95
            X509v3 Extended Key Usage: 
                TLS Web Client Authentication
            X509v3 Key Usage: 
                Digital Signature
    Signature Algorithm: sha256WithRSAEncryption
    Signature Value:
        76:65:b6:78:d6:1d:be:bc:d5:d1:d4:26:82:6b:43:9d:41:e9:
        0e:81:aa:b8:33:c7:92:64:cf:e9:6c:64:55:51:ef:3e:f8:f9:
        fa:ac:92:e3:6b:51:29:03:91:13:7b:bb:75:75:98:53:8c:33:
        4f:7c:6d:76:8c:f9:41:c1:e0:ac:64:9b:5a:dd:05:40:71:4c:
        2e:b0:d8:fe:76:42:4d:2e:2c:7c:e9:be:f2:ce:2d:ee:49:e9:
        2b:89:6d:f9:e4:13:0c:53:c0:ce:ab:8d:45:31:6c:42:5f:53:
        5e:e9:6a:5a:86:98:75:21:df:a5:16:5f:8b:86:4d:fd:5f:ff:
        19:2e:15:33:6a:d7:75:4c:a7:6e:12:00:86:80:a5:1a:aa:64:
        a6:fa:c0:18:8e:b8:07:70:6e:aa:3f:14:7e:69:de:41:6f:11:
        24:8d:6b:7e:ef:d1:15:e0:e3:87:17:83:c0:42:97:84:8c:dd:
        7f:b1:72:6e:ac:b0:14:4b:c3:fc:9d:b2:32:30:88:c3:c5:66:
        5d:73:63:1a:90:00:1c:fb:21:63:60:42:06:35:ea:80:24:1d:
        fe:93:e9:1a:0e:01:70:72:33:a8:be:9a:bf:64:cd:3b:7c:8a:
        10:fa:b6:a6:e0:64:c8:76:b0:12:3e:a7:bf:ea:2a:9f:b8:d8:
        39:63:06:0a
-----BEGIN CERTIFICATE-----
MIIDXTCCAkWgAwIBAgIRAMKWln/j6P0htEnfhq6+YgMwDQYJKoZIhvcNAQELBQAw
FjEUMBIGA1UEAwwLdGVhbTMwMS1uZXQwHhcNMjMxMTAzMjA0NDQ0WhcNMjYxMDE4
MjA0NDQ0WjAZMRcwFQYDVQQDDA50ZWFtMzAxLWNsaWVudDCCASIwDQYJKoZIhvcN
AQEBBQADggEPADCCAQoCggEBAIvfx34WyIfybHMn20sH7bRh8aLId/nvqcKwEBaf
wZAt/Giuj4ygixDU0NZLl8ZBRWrFRJssA24mbhRi2l78ukmr70flrg3Uhijw+qcm
7++3SvBag+o11AO+ujxfNk318AD6elDBCtVOc/aqX8oMF3B/V+jjrqWOjvddaV1Q
mQHWED5m9AEARwx89ZdwaZ6eRjfBsuuUOb0vgaI6KfSGxYjBeywyKlsWDaVfwxyj
GA+jsCempv++ZiWid6zjk6g6d1uSI/bxwZktNnEzKv6yqvoyVCF4HvMjNJH/1Eef
diDEiUce/6ewPKN/sC5Kmj/shIzKVrVX93y0UMg/eKMQR5cCAwEAAaOBojCBnzAJ
BgNVHRMEAjAAMB0GA1UdDgQWBBSNQIL9Rf1/QwGZaVLS9wtnQjEJtDBRBgNVHSME
SjBIgBQw6nlXtluHBh/8YY87ytE7ppNvuqEapBgwFjEUMBIGA1UEAwwLdGVhbTMw
MS1uZXSCFCmChKGfrgofKoLuQR+sZR3bdrWVMBMGA1UdJQQMMAoGCCsGAQUFBwMC
MAsGA1UdDwQEAwIHgDANBgkqhkiG9w0BAQsFAAOCAQEAdmW2eNYdvrzV0dQmgmtD
nUHpDoGquDPHkmTP6WxkVVHvPvj5+qyS42tRKQORE3u7dXWYU4wzT3xtdoz5QcHg
rGSbWt0FQHFMLrDY/nZCTS4sfOm+8s4t7knpK4lt+eQTDFPAzquNRTFsQl9TXulq
WoaYdSHfpRZfi4ZN/V//GS4VM2rXdUynbhIAhoClGqpkpvrAGI64B3Buqj8Ufmne
QW8RJI1rfu/RFeDjhxeDwEKXhIzdf7FybqywFEvD/J2yMjCIw8VmXXNjGpAAHPsh
Y2BCBjXqgCQd/pPpGg4BcHIzqL6av2TNO3yKEPq2puBkyHawEj6nv+oqn7jYOWMG
Cg==
-----END CERTIFICATE-----
