Certificate:
    Data:
        Version: 3 (0x2)
        Serial Number:
            a4:48:30:d9:63:5a:da:c5:42:f8:47:9f:95:dc:b3:e3
        Signature Algorithm: sha256WithRSAEncryption
        Issuer: CN=team267-net
        Validity
            Not Before: Nov  3 20:44:12 2023 GMT
            Not After : Oct 18 20:44:12 2026 GMT
        Subject: CN=team267-client
        Subject Public Key Info:
            Public Key Algorithm: rsaEncryption
                Public-Key: (2048 bit)
                Modulus:
                    00:da:1e:46:94:14:f1:af:cb:7a:f1:74:a3:88:88:
                    cf:97:87:08:9c:62:45:87:c4:22:25:db:98:42:96:
                    4d:3d:c5:a5:2f:e1:2f:9c:c3:61:22:a5:a3:db:96:
                    46:56:66:cc:bd:31:61:1a:cf:3e:15:8f:cb:3a:ad:
                    a8:04:76:29:f8:f8:a4:a0:36:6b:ce:c2:41:48:b4:
                    a8:e8:9a:15:d3:55:35:c7:bc:59:aa:cd:3f:ba:cf:
                    0d:59:0c:df:ed:94:94:26:71:b0:7c:98:53:7a:4a:
                    6a:4a:9f:ec:5a:66:46:fe:d9:bf:4c:8c:6f:03:c9:
                    c9:c7:f1:3b:3b:4e:ab:f1:17:57:47:97:6b:00:66:
                    d8:d4:e1:54:48:39:10:c5:82:83:67:20:09:31:86:
                    68:03:1c:0b:55:be:cd:79:63:ce:97:ab:bf:8f:f9:
                    bb:8b:32:ef:4b:c0:4b:f1:68:86:f7:76:72:00:d2:
                    be:19:ff:53:d4:98:85:9e:a2:77:e5:9d:10:d8:32:
                    a2:87:93:74:9c:8a:01:82:11:4c:5c:63:a2:ee:52:
                    77:44:fd:41:88:b5:1d:c3:cc:7f:b4:04:c5:2c:c4:
                    0b:28:6d:dd:26:97:5e:04:71:64:27:22:05:37:e5:
                    f6:5b:1b:6e:a4:68:fc:2e:57:eb:23:c3:c2:8e:3b:
                    05:a5
                Exponent: 65537 (0x10001)
        X509v3 extensions:
            X509v3 Basic Constraints: 
                CA:FALSE
            X509v3 Subject Key Identifier: 
                2A:14:6C:FF:EE:62:5F:5D:73:37:69:14:26:DA:E3:24:02:0F:7C:51
            X509v3 Authority Key Identifier: 
                keyid:72:E8:C5:B6:53:47:B1:12:89:6B:BB:6E:D4:B8:DA:60:21:F2:6A:D4
                DirName:/CN=team267-net
                serial:66:59:3F:C0:95:34:13:32:2D:1C:EA:3C:39:01:47:3B:12:C2:32:D2
            X509v3 Extended Key Usage: 
                TLS Web Client Authentication
            X509v3 Key Usage: 
                Digital Signature
    Signature Algorithm: sha256WithRSAEncryption
    Signature Value:
        6b:14:35:34:39:58:2e:74:09:33:e0:bd:bc:4e:d5:b5:b4:23:
        be:21:a9:ca:3a:c8:b0:d5:09:42:57:1a:95:87:17:e8:64:9c:
        89:96:cb:1f:13:32:cb:c1:a1:7f:55:f2:22:1f:5b:e4:c7:76:
        9a:62:8b:ea:91:e1:5e:54:f1:a1:e6:8e:f4:fc:a9:9d:99:9f:
        93:7b:09:b8:4a:a4:e2:9b:da:db:52:80:58:a4:b7:57:7d:a0:
        0e:f4:38:e7:4e:da:2b:3f:f2:10:66:40:7b:c4:6e:6c:ae:7c:
        66:52:00:54:24:44:71:12:81:92:d9:42:60:dc:0a:d2:82:9c:
        2c:bb:80:48:1f:54:d6:68:78:0c:04:22:c4:b1:71:96:92:dc:
        6e:3f:7a:86:3f:93:c2:10:28:1b:ad:3c:09:6d:51:1c:07:86:
        89:6b:d5:dc:c9:bd:42:6a:5b:05:90:24:6d:8f:42:d6:b8:16:
        d0:03:9e:7a:e2:f8:f2:ea:aa:94:c5:3a:e3:f1:cb:3d:ea:3b:
        d7:c7:2b:7b:ce:50:67:2f:64:81:3b:a1:ca:c2:11:dc:2b:a1:
        2a:11:59:07:96:95:e6:0f:bc:5a:a6:2c:f1:ee:f7:f2:a8:d4:
        e3:29:82:8e:fe:76:6e:27:5a:47:50:11:c0:66:1b:5a:32:c8:
        6f:21:f5:81
-----BEGIN CERTIFICATE-----
MIIDXTCCAkWgAwIBAgIRAKRIMNljWtrFQvhHn5Xcs+MwDQYJKoZIhvcNAQELBQAw
FjEUMBIGA1UEAwwLdGVhbTI2Ny1uZXQwHhcNMjMxMTAzMjA0NDEyWhcNMjYxMDE4
MjA0NDEyWjAZMRcwFQYDVQQDDA50ZWFtMjY3LWNsaWVudDCCASIwDQYJKoZIhvcN
AQEBBQADggEPADCCAQoCggEBANoeRpQU8a/LevF0o4iIz5eHCJxiRYfEIiXbmEKW
TT3FpS/hL5zDYSKlo9uWRlZmzL0xYRrPPhWPyzqtqAR2Kfj4pKA2a87CQUi0qOia
FdNVNce8WarNP7rPDVkM3+2UlCZxsHyYU3pKakqf7FpmRv7Zv0yMbwPJycfxOztO
q/EXV0eXawBm2NThVEg5EMWCg2cgCTGGaAMcC1W+zXljzperv4/5u4sy70vAS/Fo
hvd2cgDSvhn/U9SYhZ6id+WdENgyooeTdJyKAYIRTFxjou5Sd0T9QYi1HcPMf7QE
xSzECyht3SaXXgRxZCciBTfl9lsbbqRo/C5X6yPDwo47BaUCAwEAAaOBojCBnzAJ
BgNVHRMEAjAAMB0GA1UdDgQWBBQqFGz/7mJfXXM3aRQm2uMkAg98UTBRBgNVHSME
SjBIgBRy6MW2U0exEolru27UuNpgIfJq1KEapBgwFjEUMBIGA1UEAwwLdGVhbTI2
Ny1uZXSCFGZZP8CVNBMyLRzqPDkBRzsSwjLSMBMGA1UdJQQMMAoGCCsGAQUFBwMC
MAsGA1UdDwQEAwIHgDANBgkqhkiG9w0BAQsFAAOCAQEAaxQ1NDlYLnQJM+C9vE7V
tbQjviGpyjrIsNUJQlcalYcX6GSciZbLHxMyy8Ghf1XyIh9b5Md2mmKL6pHhXlTx
oeaO9PypnZmfk3sJuEqk4pva21KAWKS3V32gDvQ4507aKz/yEGZAe8RubK58ZlIA
VCREcRKBktlCYNwK0oKcLLuASB9U1mh4DAQixLFxlpLcbj96hj+TwhAoG608CW1R
HAeGiWvV3Mm9QmpbBZAkbY9C1rgW0AOeeuL48uqqlMU64/HLPeo718cre85QZy9k
gTuhysIR3CuhKhFZB5aV5g+8WqYs8e738qjU4ymCjv52bidaR1ARwGYbWjLIbyH1
gQ==
-----END CERTIFICATE-----
