Certificate:
    Data:
        Version: 3 (0x2)
        Serial Number:
            3c:77:b2:93:1e:19:01:c9:bb:7d:bb:7a:b7:20:04:1e
        Signature Algorithm: sha256WithRSAEncryption
        Issuer: CN=team279-net
        Validity
            Not Before: Nov  4 11:33:18 2023 GMT
            Not After : Oct 19 11:33:18 2026 GMT
        Subject: CN=team279-server
        Subject Public Key Info:
            Public Key Algorithm: rsaEncryption
                Public-Key: (2048 bit)
                Modulus:
                    00:b4:4e:02:0d:8d:29:bd:ca:6b:40:eb:3d:92:59:
                    ad:44:1e:20:44:09:fc:0c:f7:72:38:83:97:51:4b:
                    31:c9:c2:5a:47:7b:0e:59:9d:54:6e:48:86:0d:5e:
                    61:01:a3:26:d4:ef:83:e1:67:bf:f3:44:2a:e0:e8:
                    0a:d8:59:f7:70:64:47:b1:6d:6b:21:3a:44:5b:36:
                    9c:15:ef:e1:d0:d3:da:b3:4b:d5:89:55:4d:fa:0a:
                    c5:91:d7:39:6a:5b:e7:64:8e:e8:0f:95:0e:a0:4c:
                    a0:8b:e2:9d:87:6f:27:92:17:b7:3e:f5:b0:ca:ba:
                    65:f3:4e:08:67:e5:a9:5d:ce:06:68:ab:aa:01:27:
                    f8:14:d1:90:01:fd:ea:a2:5e:0e:fb:ee:20:74:e9:
                    54:f6:53:e9:df:a7:fc:86:2c:d8:a5:e5:e7:7a:06:
                    97:a7:50:46:b8:65:7b:fd:7d:ee:bc:de:d7:1a:0a:
                    f1:c2:1e:b8:0d:d5:3e:bc:43:74:87:60:5c:12:45:
                    71:b2:33:08:44:15:eb:1a:fc:82:41:7b:35:2f:0e:
                    5c:24:22:cd:5a:f1:ed:84:b2:f8:bd:4a:44:0a:13:
                    a8:89:9e:cd:a4:37:76:4b:2f:2b:55:59:8d:a9:e5:
                    46:74:97:dd:03:95:42:0d:42:b8:cb:96:9f:7b:84:
                    fc:7d
                Exponent: 65537 (0x10001)
        X509v3 extensions:
            X509v3 Basic Constraints: 
                CA:FALSE
            X509v3 Subject Key Identifier: 
                2D:C0:EA:E6:47:9D:08:24:BF:57:06:14:B7:9D:11:8C:AF:21:31:5D
            X509v3 Authority Key Identifier: 
                keyid:57:E3:8A:EF:8E:5A:E8:E7:5D:FC:DC:B3:01:CF:E6:9F:26:58:9B:34
                DirName:/CN=team279-net
                serial:1E:C8:50:BA:A7:3E:E4:84:0D:02:15:8B:A0:C6:F7:DC:56:9E:3C:4C
            X509v3 Extended Key Usage: 
                TLS Web Server Authentication
            X509v3 Key Usage: 
                Digital Signature, Key Encipherment
            X509v3 Subject Alternative Name: 
                DNS:team279-server
    Signature Algorithm: sha256WithRSAEncryption
    Signature Value:
        46:cf:c7:5a:e3:54:5e:39:cb:ec:30:69:50:f6:4d:05:2e:f6:
        42:4b:e0:cf:fd:2d:3d:53:5b:10:3c:be:fb:a7:b1:d7:17:36:
        03:fa:24:5a:53:f7:7e:5a:df:7f:54:41:50:31:87:00:5d:9f:
        d8:f0:21:29:12:05:7f:50:1f:ee:94:d1:10:26:0b:fa:4d:48:
        03:98:ff:97:78:a1:f7:0c:30:6f:85:54:80:fb:8b:fb:00:ac:
        e9:b5:4f:6f:83:d8:a1:07:72:57:0e:30:30:34:4c:8e:36:3d:
        51:b7:ef:1a:89:9b:2f:ed:32:36:f5:15:0f:c3:d4:0d:24:28:
        a8:e3:7f:e1:c9:82:38:eb:ef:f1:6b:ae:08:37:04:77:f1:91:
        dc:d8:2c:ce:93:46:95:1f:aa:f9:3f:e1:d8:a3:f0:8e:7a:3b:
        62:46:bc:aa:de:9e:92:a0:53:20:ce:6b:ad:e8:a6:38:fc:93:
        92:78:24:3a:42:38:ff:7a:92:e4:ce:1a:1f:03:cf:6b:c9:9b:
        6b:d6:0a:97:34:04:32:72:6e:46:33:e5:db:19:d4:39:83:15:
        3b:e4:b0:e2:0e:4c:cf:77:89:44:68:07:cb:d2:92:56:36:b8:
        aa:72:b6:db:f0:3b:d0:64:b9:d8:ee:c0:c3:ea:05:77:e9:65:
        72:d5:f5:ea
-----BEGIN CERTIFICATE-----
MIIDdzCCAl+gAwIBAgIQPHeykx4ZAcm7fbt6tyAEHjANBgkqhkiG9w0BAQsFADAW
MRQwEgYDVQQDDAt0ZWFtMjc5LW5ldDAeFw0yMzExMDQxMTMzMThaFw0yNjEwMTkx
MTMzMThaMBkxFzAVBgNVBAMMDnRlYW0yNzktc2VydmVyMIIBIjANBgkqhkiG9w0B
AQEFAAOCAQ8AMIIBCgKCAQEAtE4CDY0pvcprQOs9klmtRB4gRAn8DPdyOIOXUUsx
ycJaR3sOWZ1UbkiGDV5hAaMm1O+D4We/80Qq4OgK2Fn3cGRHsW1rITpEWzacFe/h
0NPas0vViVVN+grFkdc5alvnZI7oD5UOoEygi+Kdh28nkhe3PvWwyrpl804IZ+Wp
Xc4GaKuqASf4FNGQAf3qol4O++4gdOlU9lPp36f8hizYpeXnegaXp1BGuGV7/X3u
vN7XGgrxwh64DdU+vEN0h2BcEkVxsjMIRBXrGvyCQXs1Lw5cJCLNWvHthLL4vUpE
ChOoiZ7NpDd2Sy8rVVmNqeVGdJfdA5VCDUK4y5afe4T8fQIDAQABo4G9MIG6MAkG
A1UdEwQCMAAwHQYDVR0OBBYEFC3A6uZHnQgkv1cGFLedEYyvITFdMFEGA1UdIwRK
MEiAFFfjiu+OWujnXfzcswHP5p8mWJs0oRqkGDAWMRQwEgYDVQQDDAt0ZWFtMjc5
LW5ldIIUHshQuqc+5IQNAhWLoMb33FaePEwwEwYDVR0lBAwwCgYIKwYBBQUHAwEw
CwYDVR0PBAQDAgWgMBkGA1UdEQQSMBCCDnRlYW0yNzktc2VydmVyMA0GCSqGSIb3
DQEBCwUAA4IBAQBGz8da41ReOcvsMGlQ9k0FLvZCS+DP/S09U1sQPL77p7HXFzYD
+iRaU/d+Wt9/VEFQMYcAXZ/Y8CEpEgV/UB/ulNEQJgv6TUgDmP+XeKH3DDBvhVSA
+4v7AKzptU9vg9ihB3JXDjAwNEyONj1Rt+8aiZsv7TI29RUPw9QNJCio43/hyYI4
6+/xa64INwR38ZHc2CzOk0aVH6r5P+HYo/COejtiRryq3p6SoFMgzmut6KY4/JOS
eCQ6Qjj/epLkzhofA89ryZtr1gqXNAQycm5GM+XbGdQ5gxU75LDiDkzPd4lEaAfL
0pJWNriqcrbb8DvQZLnY7sDD6gV36WVy1fXq
-----END CERTIFICATE-----
