Certificate:
    Data:
        Version: 3 (0x2)
        Serial Number:
            55:cb:c6:02:e2:ae:6c:3e:22:73:cd:fe:8b:56:4e:0d
        Signature Algorithm: sha256WithRSAEncryption
        Issuer: CN=team279-net
        Validity
            Not Before: Nov  4 11:33:18 2023 GMT
            Not After : Oct 19 11:33:18 2026 GMT
        Subject: CN=team279-client
        Subject Public Key Info:
            Public Key Algorithm: rsaEncryption
                Public-Key: (2048 bit)
                Modulus:
                    00:e4:95:ba:59:b3:57:a2:5c:8b:83:ee:f4:20:bc:
                    46:f1:94:90:af:00:b3:4a:94:7f:81:c1:00:96:5b:
                    82:39:0f:5b:cb:b3:25:d7:1c:ee:2e:cd:87:60:f8:
                    ce:0f:4c:cb:dc:aa:99:54:ea:af:1b:42:09:c4:02:
                    ff:b4:5d:41:0e:46:6a:e1:63:80:e3:c5:3c:79:0b:
                    97:80:cd:be:dd:03:01:51:d1:58:14:65:94:3c:b5:
                    45:10:e3:6b:08:b5:66:0b:e9:ed:02:4d:21:ca:a5:
                    c4:b4:07:ad:b0:61:82:2b:cf:f8:ba:a2:96:21:d5:
                    1d:02:2c:4d:81:9f:9d:0d:8b:91:bf:94:29:58:f9:
                    97:4f:15:0f:53:71:f9:24:d3:16:0a:39:17:17:98:
                    fe:07:d7:35:bf:0c:7d:9b:76:ae:36:91:1f:e5:f3:
                    3c:3b:00:7e:f8:74:d4:fb:4f:2d:58:9f:2f:d5:02:
                    88:00:85:37:0a:14:f6:2f:f5:d4:cc:ff:81:23:1e:
                    81:c5:d4:92:22:e8:30:da:f6:d1:78:7a:f1:e4:5f:
                    69:f8:63:05:ee:25:d2:cb:14:df:0f:56:a8:c5:7d:
                    02:a0:93:37:af:1f:db:3f:62:97:f7:05:53:79:d2:
                    d7:3b:5a:a9:8b:ad:e6:b8:54:18:61:df:96:3f:94:
                    e6:6b
                Exponent: 65537 (0x10001)
        X509v3 extensions:
            X509v3 Basic Constraints: 
                CA:FALSE
            X509v3 Subject Key Identifier: 
                52:6F:B9:9D:DB:83:7F:81:00:AF:92:E3:24:B2:40:45:7F:AC:EF:5B
            X509v3 Authority Key Identifier: 
                keyid:57:E3:8A:EF:8E:5A:E8:E7:5D:FC:DC:B3:01:CF:E6:9F:26:58:9B:34
                DirName:/CN=team279-net
                serial:1E:C8:50:BA:A7:3E:E4:84:0D:02:15:8B:A0:C6:F7:DC:56:9E:3C:4C
            X509v3 Extended Key Usage: 
                TLS Web Client Authentication
            X509v3 Key Usage: 
                Digital Signature
    Signature Algorithm: sha256WithRSAEncryption
    Signature Value:
        54:3d:2c:4c:04:f8:8f:d0:7d:23:fb:cf:1c:0b:df:46:58:b2:
        82:48:36:37:e2:90:36:b5:25:d6:41:a1:dc:99:20:e2:44:5f:
        2e:b4:d1:15:79:70:ec:a1:5a:fb:bf:1e:83:1c:17:b6:29:ad:
        1a:48:83:de:af:ab:ef:12:3d:cf:46:29:be:8a:3f:01:8c:f0:
        8e:43:72:c4:af:d4:63:73:94:23:8b:f9:13:71:ca:2c:0b:d7:
        c8:04:3a:a8:a6:5b:ff:d1:4e:6f:aa:22:b8:27:7b:41:61:ef:
        54:92:58:de:c9:ca:3c:95:84:52:13:42:21:ff:5c:5d:e6:92:
        b4:c2:13:1d:b7:42:14:62:ae:34:0d:62:ce:59:87:5a:60:2b:
        82:f2:42:f0:0d:ad:aa:86:50:77:92:a6:de:1c:0d:72:89:fb:
        c2:0b:b5:40:a2:b0:c5:91:51:20:10:42:7b:a3:83:33:f4:28:
        8f:a3:bf:03:3e:ff:84:9c:78:33:53:64:77:e0:74:15:22:d7:
        ed:fe:ee:8c:d6:43:ed:b6:3c:fa:e9:9b:1b:95:80:ac:6f:2e:
        26:22:ed:56:3b:cd:01:11:8f:18:74:7b:45:29:27:b2:6f:37:
        39:0c:83:b1:52:e1:17:8d:2f:ab:fd:47:f9:9d:ca:cd:f6:b7:
        82:f1:a1:bf
-----BEGIN CERTIFICATE-----
MIIDXDCCAkSgAwIBAgIQVcvGAuKubD4ic83+i1ZODTANBgkqhkiG9w0BAQsFADAW
MRQwEgYDVQQDDAt0ZWFtMjc5LW5ldDAeFw0yMzExMDQxMTMzMThaFw0yNjEwMTkx
MTMzMThaMBkxFzAVBgNVBAMMDnRlYW0yNzktY2xpZW50MIIBIjANBgkqhkiG9w0B
AQEFAAOCAQ8AMIIBCgKCAQEA5JW6WbNXolyLg+70ILxG8ZSQrwCzSpR/gcEAlluC
OQ9by7Ml1xzuLs2HYPjOD0zL3KqZVOqvG0IJxAL/tF1BDkZq4WOA48U8eQuXgM2+
3QMBUdFYFGWUPLVFEONrCLVmC+ntAk0hyqXEtAetsGGCK8/4uqKWIdUdAixNgZ+d
DYuRv5QpWPmXTxUPU3H5JNMWCjkXF5j+B9c1vwx9m3auNpEf5fM8OwB++HTU+08t
WJ8v1QKIAIU3ChT2L/XUzP+BIx6BxdSSIugw2vbReHrx5F9p+GMF7iXSyxTfD1ao
xX0CoJM3rx/bP2KX9wVTedLXO1qpi63muFQYYd+WP5TmawIDAQABo4GiMIGfMAkG
A1UdEwQCMAAwHQYDVR0OBBYEFFJvuZ3bg3+BAK+S4ySyQEV/rO9bMFEGA1UdIwRK
MEiAFFfjiu+OWujnXfzcswHP5p8mWJs0oRqkGDAWMRQwEgYDVQQDDAt0ZWFtMjc5
LW5ldIIUHshQuqc+5IQNAhWLoMb33FaePEwwEwYDVR0lBAwwCgYIKwYBBQUHAwIw
CwYDVR0PBAQDAgeAMA0GCSqGSIb3DQEBCwUAA4IBAQBUPSxMBPiP0H0j+88cC99G
WLKCSDY34pA2tSXWQaHcmSDiRF8utNEVeXDsoVr7vx6DHBe2Ka0aSIPer6vvEj3P
Rim+ij8BjPCOQ3LEr9Rjc5Qji/kTccosC9fIBDqoplv/0U5vqiK4J3tBYe9Uklje
yco8lYRSE0Ih/1xd5pK0whMdt0IUYq40DWLOWYdaYCuC8kLwDa2qhlB3kqbeHA1y
ifvCC7VAorDFkVEgEEJ7o4Mz9CiPo78DPv+EnHgzU2R34HQVItft/u6M1kPttjz6
6ZsblYCsby4mIu1WO80BEY8YdHtFKSeybzc5DIOxUuEXjS+r/Uf5ncrN9reC8aG/
-----END CERTIFICATE-----
