Certificate:
    Data:
        Version: 3 (0x2)
        Serial Number:
            78:70:65:8d:f4:de:3a:32:5f:c6:6d:5a:ba:fe:cf:44
        Signature Algorithm: sha256WithRSAEncryption
        Issuer: CN=team279-net
        Validity
            Not Before: Nov  3 20:44:23 2023 GMT
            Not After : Oct 18 20:44:23 2026 GMT
        Subject: CN=team279-client
        Subject Public Key Info:
            Public Key Algorithm: rsaEncryption
                Public-Key: (2048 bit)
                Modulus:
                    00:bc:7a:30:c2:b8:b5:a4:69:2f:0a:ad:60:0b:11:
                    48:91:7f:8d:ee:2d:76:c1:58:6d:1c:80:1f:d6:d9:
                    6c:7b:09:95:98:5e:44:49:14:ba:b9:d0:ec:78:78:
                    bf:19:30:d0:22:65:90:c2:84:bb:2e:60:c2:42:0d:
                    38:d2:46:09:2e:e8:08:5e:e5:58:5e:2c:c7:8f:2b:
                    3f:10:3b:0d:6b:b7:6c:ec:eb:67:bb:19:88:52:cc:
                    a8:a5:d7:e9:b3:9f:5f:23:3a:e1:93:27:ef:18:2c:
                    99:a0:9e:5f:cb:7d:3e:7b:1f:13:3f:f7:52:9c:69:
                    5e:e8:41:70:eb:04:d5:b4:5c:a8:ef:97:68:eb:6e:
                    4d:4c:2c:64:f9:df:0d:88:70:a7:47:c9:56:07:20:
                    cf:62:6b:d6:dd:44:fa:05:2d:9a:a1:7b:0f:e6:89:
                    89:d2:68:96:87:2c:68:13:6e:a4:5d:d7:90:47:55:
                    1b:ac:87:52:d1:6b:a1:b4:aa:81:07:17:e8:68:e3:
                    6d:b7:27:d7:d2:18:60:a5:b4:fe:c3:70:e4:0d:f2:
                    c7:36:d9:b8:eb:e3:cd:cd:32:37:58:04:d6:2e:35:
                    03:b2:5c:16:8b:81:e1:e1:b3:2c:41:c0:49:d5:76:
                    a9:45:44:b3:f4:88:7f:2d:69:24:d5:46:e5:af:78:
                    ce:6f
                Exponent: 65537 (0x10001)
        X509v3 extensions:
            X509v3 Basic Constraints: 
                CA:FALSE
            X509v3 Subject Key Identifier: 
                BE:C6:FF:8F:54:D4:6F:40:7C:79:F8:79:4E:E7:08:00:2D:2D:19:1E
            X509v3 Authority Key Identifier: 
                keyid:D6:8E:91:AC:11:EA:22:03:A5:40:95:76:21:DD:DA:BB:39:0D:0E:74
                DirName:/CN=team279-net
                serial:41:35:26:92:65:52:2F:26:FF:8F:E3:13:9C:95:9A:2A:BB:89:7B:4E
            X509v3 Extended Key Usage: 
                TLS Web Client Authentication
            X509v3 Key Usage: 
                Digital Signature
    Signature Algorithm: sha256WithRSAEncryption
    Signature Value:
        aa:a4:22:66:23:74:45:1d:6e:99:a5:de:41:5f:29:13:22:5d:
        ee:d2:46:54:d1:b7:ec:2b:a1:e5:0d:a1:6a:20:97:6f:92:dc:
        ea:1c:c9:74:f2:a1:b1:ea:b7:7e:01:e2:cd:4a:90:1f:54:f1:
        4c:91:5a:74:7c:8e:98:20:4f:ae:72:43:c1:5a:d1:a9:7d:58:
        53:2e:86:1e:7c:b8:ce:c4:69:6d:6d:43:31:64:ff:60:9c:25:
        80:8c:f5:44:b6:49:09:37:dc:71:50:7f:fb:dc:cb:c0:30:0e:
        80:5d:91:28:63:c7:28:fc:03:ce:b5:90:1b:7e:c0:d7:b0:1c:
        b3:a5:1e:dd:dd:3c:cf:87:91:8a:4f:23:00:0b:99:f5:c8:d4:
        9a:92:62:58:3c:35:1f:ab:6d:2e:51:76:35:4a:60:7e:38:75:
        ca:4a:54:da:77:dc:57:91:be:1c:a8:cb:f2:1e:c0:3f:f2:ec:
        28:c5:fd:7b:db:44:17:30:e6:08:e6:b1:89:62:98:36:0b:80:
        fa:4f:d1:d9:b6:2e:76:a8:fa:d3:69:e8:e7:7f:65:27:b2:da:
        89:57:82:d8:ba:c5:5d:a0:d2:ba:53:66:46:ae:17:b8:c4:cf:
        eb:f5:2c:f2:b4:e9:4c:94:f2:fb:a9:41:03:02:67:fe:69:6a:
        04:1d:39:bd
-----BEGIN CERTIFICATE-----
MIIDXDCCAkSgAwIBAgIQeHBljfTeOjJfxm1auv7PRDANBgkqhkiG9w0BAQsFADAW
MRQwEgYDVQQDDAt0ZWFtMjc5LW5ldDAeFw0yMzExMDMyMDQ0MjNaFw0yNjEwMTgy
MDQ0MjNaMBkxFzAVBgNVBAMMDnRlYW0yNzktY2xpZW50MIIBIjANBgkqhkiG9w0B
AQEFAAOCAQ8AMIIBCgKCAQEAvHowwri1pGkvCq1gCxFIkX+N7i12wVhtHIAf1tls
ewmVmF5ESRS6udDseHi/GTDQImWQwoS7LmDCQg040kYJLugIXuVYXizHjys/EDsN
a7ds7OtnuxmIUsyopdfps59fIzrhkyfvGCyZoJ5fy30+ex8TP/dSnGle6EFw6wTV
tFyo75do625NTCxk+d8NiHCnR8lWByDPYmvW3UT6BS2aoXsP5omJ0miWhyxoE26k
XdeQR1UbrIdS0WuhtKqBBxfoaONttyfX0hhgpbT+w3DkDfLHNtm46+PNzTI3WATW
LjUDslwWi4Hh4bMsQcBJ1XapRUSz9Ih/LWkk1Ublr3jObwIDAQABo4GiMIGfMAkG
A1UdEwQCMAAwHQYDVR0OBBYEFL7G/49U1G9AfHn4eU7nCAAtLRkeMFEGA1UdIwRK
MEiAFNaOkawR6iIDpUCVdiHd2rs5DQ50oRqkGDAWMRQwEgYDVQQDDAt0ZWFtMjc5
LW5ldIIUQTUmkmVSLyb/j+MTnJWaKruJe04wEwYDVR0lBAwwCgYIKwYBBQUHAwIw
CwYDVR0PBAQDAgeAMA0GCSqGSIb3DQEBCwUAA4IBAQCqpCJmI3RFHW6Zpd5BXykT
Il3u0kZU0bfsK6HlDaFqIJdvktzqHMl08qGx6rd+AeLNSpAfVPFMkVp0fI6YIE+u
ckPBWtGpfVhTLoYefLjOxGltbUMxZP9gnCWAjPVEtkkJN9xxUH/73MvAMA6AXZEo
Y8co/APOtZAbfsDXsByzpR7d3TzPh5GKTyMAC5n1yNSakmJYPDUfq20uUXY1SmB+
OHXKSlTad9xXkb4cqMvyHsA/8uwoxf1720QXMOYI5rGJYpg2C4D6T9HZti52qPrT
aejnf2UnstqJV4LYusVdoNK6U2ZGrhe4xM/r9SzytOlMlPL7qUEDAmf+aWoEHTm9
-----END CERTIFICATE-----
