Certificate:
    Data:
        Version: 3 (0x2)
        Serial Number:
            ac:9c:f9:2c:cd:b8:d7:49:cc:1d:27:16:1b:c6:a6:75
        Signature Algorithm: sha256WithRSAEncryption
        Issuer: CN=team279-net
        Validity
            Not Before: Nov  3 20:44:24 2023 GMT
            Not After : Oct 18 20:44:24 2026 GMT
        Subject: CN=team279-server
        Subject Public Key Info:
            Public Key Algorithm: rsaEncryption
                Public-Key: (2048 bit)
                Modulus:
                    00:99:d5:1a:a0:55:a5:d6:32:4f:21:3e:17:ec:95:
                    24:cd:32:a5:01:d0:82:fd:de:03:49:a2:6f:a6:94:
                    52:f6:fc:5b:f9:bc:a4:71:ac:54:ea:e6:79:5a:33:
                    b7:43:6c:7e:18:ac:1e:e5:49:d1:1d:82:ec:b1:7e:
                    e8:1d:45:67:5a:9f:8e:d2:44:19:5e:82:92:27:91:
                    86:f5:c5:98:44:45:1c:a0:87:2e:3d:3d:81:49:9e:
                    15:be:ef:45:86:3a:b7:0e:77:78:d0:89:7b:c4:1f:
                    c5:60:29:e0:19:01:9d:ec:99:93:74:55:90:ab:f1:
                    d5:9e:a3:f8:df:28:cd:b1:a7:27:21:d7:98:bc:80:
                    d6:87:21:cc:7e:2f:de:8f:a1:ca:b8:b6:0b:25:06:
                    6b:93:08:c6:da:44:c2:a0:2c:88:80:59:f7:44:7c:
                    7d:12:ce:d5:ee:5b:49:b5:01:c0:a3:3e:76:33:52:
                    df:b2:e4:f6:d4:da:af:c0:4d:81:95:6e:2d:de:30:
                    44:cd:55:7a:90:ca:a8:01:f8:a0:50:2b:ec:f3:cc:
                    cf:09:16:1f:e3:bb:9f:ed:ab:d9:5d:d1:9b:6e:3b:
                    58:d6:3d:a6:59:0e:00:87:90:56:80:cc:2c:a4:11:
                    ec:67:5d:db:7b:11:ef:57:78:0c:b3:91:3d:75:2e:
                    c0:db
                Exponent: 65537 (0x10001)
        X509v3 extensions:
            X509v3 Basic Constraints: 
                CA:FALSE
            X509v3 Subject Key Identifier: 
                E6:31:7B:CB:30:6F:68:36:6B:1C:E4:2C:00:0C:5E:AC:0C:9A:94:14
            X509v3 Authority Key Identifier: 
                keyid:D6:8E:91:AC:11:EA:22:03:A5:40:95:76:21:DD:DA:BB:39:0D:0E:74
                DirName:/CN=team279-net
                serial:41:35:26:92:65:52:2F:26:FF:8F:E3:13:9C:95:9A:2A:BB:89:7B:4E
            X509v3 Extended Key Usage: 
                TLS Web Server Authentication
            X509v3 Key Usage: 
                Digital Signature, Key Encipherment
            X509v3 Subject Alternative Name: 
                DNS:team279-server
    Signature Algorithm: sha256WithRSAEncryption
    Signature Value:
        18:c3:2c:6d:2f:19:f2:6a:73:b5:ed:c2:49:32:0d:c7:dc:f9:
        e9:0f:02:5b:45:7d:52:0f:b8:7b:82:d8:72:1b:c7:41:88:07:
        f0:5e:59:12:29:62:30:38:7c:f7:32:b1:95:4c:bd:c4:01:b7:
        6b:36:f1:2b:80:14:9a:c5:f9:9e:b3:5c:e3:29:08:cf:fa:63:
        3b:25:54:e8:72:24:31:83:3a:07:ac:aa:b3:3e:05:9e:83:92:
        11:08:61:87:02:d5:6e:da:4a:86:c3:d0:58:68:eb:12:c6:27:
        96:2b:25:6b:3d:f8:1d:15:51:ac:8c:df:75:51:d7:e3:0c:ae:
        c6:b4:1d:06:50:87:8e:2f:8c:7d:c8:17:72:c3:1d:14:05:3c:
        02:0e:8c:c4:50:43:74:0b:b3:46:3b:47:7f:9b:eb:ed:67:30:
        a0:3d:7f:47:f5:2e:45:2a:ef:e4:f8:2a:f3:03:0f:fd:af:9d:
        14:89:f2:a1:c4:ff:75:fd:70:c3:2f:a5:5e:98:b8:5d:ce:c8:
        57:99:66:2b:c3:f1:21:c2:7e:aa:7d:f9:b4:f7:c5:bf:6f:48:
        98:bc:d0:fc:09:7d:cc:60:96:fc:6d:43:f2:dc:c7:a2:e6:0a:
        06:85:d9:fd:2f:1f:18:b6:13:95:55:09:84:ce:7f:ff:12:ab:
        09:30:23:fd
-----BEGIN CERTIFICATE-----
MIIDeDCCAmCgAwIBAgIRAKyc+SzNuNdJzB0nFhvGpnUwDQYJKoZIhvcNAQELBQAw
FjEUMBIGA1UEAwwLdGVhbTI3OS1uZXQwHhcNMjMxMTAzMjA0NDI0WhcNMjYxMDE4
MjA0NDI0WjAZMRcwFQYDVQQDDA50ZWFtMjc5LXNlcnZlcjCCASIwDQYJKoZIhvcN
AQEBBQADggEPADCCAQoCggEBAJnVGqBVpdYyTyE+F+yVJM0ypQHQgv3eA0mib6aU
Uvb8W/m8pHGsVOrmeVozt0NsfhisHuVJ0R2C7LF+6B1FZ1qfjtJEGV6CkieRhvXF
mERFHKCHLj09gUmeFb7vRYY6tw53eNCJe8QfxWAp4BkBneyZk3RVkKvx1Z6j+N8o
zbGnJyHXmLyA1ochzH4v3o+hyri2CyUGa5MIxtpEwqAsiIBZ90R8fRLO1e5bSbUB
wKM+djNS37Lk9tTar8BNgZVuLd4wRM1VepDKqAH4oFAr7PPMzwkWH+O7n+2r2V3R
m247WNY9plkOAIeQVoDMLKQR7Gdd23sR71d4DLORPXUuwNsCAwEAAaOBvTCBujAJ
BgNVHRMEAjAAMB0GA1UdDgQWBBTmMXvLMG9oNmsc5CwADF6sDJqUFDBRBgNVHSME
SjBIgBTWjpGsEeoiA6VAlXYh3dq7OQ0OdKEapBgwFjEUMBIGA1UEAwwLdGVhbTI3
OS1uZXSCFEE1JpJlUi8m/4/jE5yVmiq7iXtOMBMGA1UdJQQMMAoGCCsGAQUFBwMB
MAsGA1UdDwQEAwIFoDAZBgNVHREEEjAQgg50ZWFtMjc5LXNlcnZlcjANBgkqhkiG
9w0BAQsFAAOCAQEAGMMsbS8Z8mpzte3CSTINx9z56Q8CW0V9Ug+4e4LYchvHQYgH
8F5ZEiliMDh89zKxlUy9xAG3azbxK4AUmsX5nrNc4ykIz/pjOyVU6HIkMYM6B6yq
sz4FnoOSEQhhhwLVbtpKhsPQWGjrEsYnlislaz34HRVRrIzfdVHX4wyuxrQdBlCH
ji+MfcgXcsMdFAU8Ag6MxFBDdAuzRjtHf5vr7WcwoD1/R/UuRSrv5Pgq8wMP/a+d
FInyocT/df1wwy+lXpi4Xc7IV5lmK8PxIcJ+qn35tPfFv29ImLzQ/Al9zGCW/G1D
8tzHouYKBoXZ/S8fGLYTlVUJhM5//xKrCTAj/Q==
-----END CERTIFICATE-----
