Certificate:
    Data:
        Version: 3 (0x2)
        Serial Number:
            df:37:f2:a9:76:bf:13:79:36:1a:7a:e0:98:37:75:ea
        Signature Algorithm: sha256WithRSAEncryption
        Issuer: CN=team279-net
        Validity
            Not Before: Nov  4 10:45:49 2023 GMT
            Not After : Oct 19 10:45:49 2026 GMT
        Subject: CN=team279-client
        Subject Public Key Info:
            Public Key Algorithm: rsaEncryption
                Public-Key: (2048 bit)
                Modulus:
                    00:d9:8b:02:87:9d:5d:0f:58:64:d0:2b:54:75:46:
                    17:33:42:f9:f6:8f:61:ab:a6:54:9b:b4:33:c9:1b:
                    4e:9e:88:0a:30:47:b9:59:60:c9:8f:43:56:93:20:
                    3f:ca:6d:b5:6b:85:57:0b:7b:26:7c:2c:76:c4:ae:
                    93:83:3c:28:39:1e:5c:8b:98:c4:d5:55:61:96:b5:
                    eb:b7:6b:ea:34:d7:57:5e:40:3e:1a:6a:cb:73:01:
                    20:95:93:5d:90:78:ce:47:84:02:0f:b4:91:84:25:
                    cb:5b:9e:da:fc:f1:21:38:05:3b:54:58:bf:f9:93:
                    47:2b:c4:3b:b3:7c:a9:ff:a6:8c:4f:35:8c:ac:3f:
                    79:a9:b0:6c:3e:3b:3d:75:d5:20:79:3a:94:59:16:
                    f5:d8:67:f6:80:7a:c5:d6:af:97:d8:18:3e:94:3d:
                    c3:70:6f:1b:93:66:48:36:b4:55:47:81:57:37:2b:
                    81:45:c3:16:f2:a5:6d:39:6d:44:95:fa:f7:f6:a7:
                    3b:1c:1f:34:4f:e6:94:71:87:68:5c:4e:34:bc:3f:
                    7f:10:9a:bc:44:cf:4a:ae:2b:44:e5:66:27:88:b0:
                    fd:98:85:5d:dd:48:f5:be:d2:64:f5:a5:07:d4:01:
                    e3:88:46:73:18:55:9e:8f:59:7f:89:82:74:c6:b5:
                    a7:f7
                Exponent: 65537 (0x10001)
        X509v3 extensions:
            X509v3 Basic Constraints: 
                CA:FALSE
            X509v3 Subject Key Identifier: 
                36:01:F7:ED:E9:8B:4D:4B:D8:DC:BB:8A:D4:EE:F9:2B:1F:49:DC:C1
            X509v3 Authority Key Identifier: 
                keyid:87:D2:36:05:3B:4C:33:54:43:E6:82:AA:34:E4:FF:F8:75:7B:E5:A4
                DirName:/CN=team279-net
                serial:2C:4A:CC:1F:E5:D3:09:45:E0:B9:C2:24:47:7E:0E:09:04:70:A5:0B
            X509v3 Extended Key Usage: 
                TLS Web Client Authentication
            X509v3 Key Usage: 
                Digital Signature
    Signature Algorithm: sha256WithRSAEncryption
    Signature Value:
        0c:3a:59:d0:22:d8:d6:35:92:1a:1c:23:0c:9a:ac:9c:a4:54:
        ed:b0:a1:c3:77:f8:2b:36:8d:8e:22:31:ba:61:71:e1:49:f0:
        53:be:2f:2d:de:6f:09:d6:ad:c5:05:0d:6d:47:d5:92:35:fa:
        d3:5b:ff:76:ea:f6:b8:7d:71:a8:df:af:67:c6:72:48:12:90:
        49:c2:cd:c7:3e:d5:b7:40:34:36:f5:51:1a:b3:45:89:58:7c:
        03:c7:0e:ec:fb:5a:a2:70:06:1d:24:ae:73:ae:5a:9e:4c:ed:
        10:5a:3e:c3:fc:cf:bc:1c:45:0b:95:0b:38:3e:92:9d:5f:de:
        56:2c:35:77:75:80:c1:8c:92:fe:b9:4a:ef:06:71:62:19:cc:
        34:c1:12:af:6e:03:30:b3:54:82:b4:cc:44:ef:7b:05:66:d8:
        4c:b7:71:3c:a5:8b:de:91:8e:bd:49:d7:e5:1a:b3:ab:a9:cb:
        69:be:0e:98:8d:6e:62:8b:48:8b:85:ba:96:d9:b5:58:9e:1c:
        17:96:03:1f:cb:76:e1:c1:7b:e2:08:6c:1b:b0:4e:d3:43:0e:
        6e:82:be:52:f0:08:6a:42:03:3b:8d:e7:50:86:29:f8:31:17:
        a6:b5:fe:d4:d8:a2:3f:41:77:45:ad:80:67:4b:69:4d:72:06:
        a4:59:13:f3
-----BEGIN CERTIFICATE-----
MIIDXTCCAkWgAwIBAgIRAN838ql2vxN5Nhp64Jg3deowDQYJKoZIhvcNAQELBQAw
FjEUMBIGA1UEAwwLdGVhbTI3OS1uZXQwHhcNMjMxMTA0MTA0NTQ5WhcNMjYxMDE5
MTA0NTQ5WjAZMRcwFQYDVQQDDA50ZWFtMjc5LWNsaWVudDCCASIwDQYJKoZIhvcN
AQEBBQADggEPADCCAQoCggEBANmLAoedXQ9YZNArVHVGFzNC+faPYaumVJu0M8kb
Tp6ICjBHuVlgyY9DVpMgP8pttWuFVwt7JnwsdsSuk4M8KDkeXIuYxNVVYZa167dr
6jTXV15APhpqy3MBIJWTXZB4zkeEAg+0kYQly1ue2vzxITgFO1RYv/mTRyvEO7N8
qf+mjE81jKw/eamwbD47PXXVIHk6lFkW9dhn9oB6xdavl9gYPpQ9w3BvG5NmSDa0
VUeBVzcrgUXDFvKlbTltRJX69/anOxwfNE/mlHGHaFxONLw/fxCavETPSq4rROVm
J4iw/ZiFXd1I9b7SZPWlB9QB44hGcxhVno9Zf4mCdMa1p/cCAwEAAaOBojCBnzAJ
BgNVHRMEAjAAMB0GA1UdDgQWBBQ2Afft6YtNS9jcu4rU7vkrH0ncwTBRBgNVHSME
SjBIgBSH0jYFO0wzVEPmgqo05P/4dXvlpKEapBgwFjEUMBIGA1UEAwwLdGVhbTI3
OS1uZXSCFCxKzB/l0wlF4LnCJEd+DgkEcKULMBMGA1UdJQQMMAoGCCsGAQUFBwMC
MAsGA1UdDwQEAwIHgDANBgkqhkiG9w0BAQsFAAOCAQEADDpZ0CLY1jWSGhwjDJqs
nKRU7bChw3f4KzaNjiIxumFx4UnwU74vLd5vCdatxQUNbUfVkjX601v/dur2uH1x
qN+vZ8ZySBKQScLNxz7Vt0A0NvVRGrNFiVh8A8cO7PtaonAGHSSuc65ankztEFo+
w/zPvBxFC5ULOD6SnV/eViw1d3WAwYyS/rlK7wZxYhnMNMESr24DMLNUgrTMRO97
BWbYTLdxPKWL3pGOvUnX5Rqzq6nLab4OmI1uYotIi4W6ltm1WJ4cF5YDH8t24cF7
4ghsG7BO00MOboK+UvAIakIDO43nUIYp+DEXprX+1NiiP0F3Ra2AZ0tpTXIGpFkT
8w==
-----END CERTIFICATE-----
