Certificate:
    Data:
        Version: 3 (0x2)
        Serial Number:
            fd:ff:8e:6c:38:e4:5d:9a:0a:b4:25:43:79:47:ce:78
        Signature Algorithm: sha256WithRSAEncryption
        Issuer: CN=team279-net
        Validity
            Not Before: Nov  4 10:45:49 2023 GMT
            Not After : Oct 19 10:45:49 2026 GMT
        Subject: CN=team279-server
        Subject Public Key Info:
            Public Key Algorithm: rsaEncryption
                Public-Key: (2048 bit)
                Modulus:
                    00:89:9f:e4:fe:1e:06:88:cd:a5:47:15:ff:88:82:
                    3d:c4:c0:9f:62:c3:a7:b8:ec:ca:01:0c:5d:d5:99:
                    ae:f1:6a:ee:60:66:89:0b:32:94:d5:68:ee:f7:08:
                    b2:24:39:64:1c:27:c3:ac:34:bd:10:4d:a2:4d:73:
                    b6:1c:98:c7:61:11:98:99:a6:a3:72:98:47:22:50:
                    c7:ac:63:30:50:ac:63:c9:1c:47:10:26:25:4a:f6:
                    56:b8:a7:10:d7:75:c7:72:c0:1d:27:fe:d0:d5:d7:
                    c3:3e:c8:e5:92:06:09:0f:9b:7f:56:6c:62:a4:8a:
                    9a:b1:6c:9a:72:73:0f:15:35:d9:b5:6e:e5:1e:e1:
                    42:57:fc:0a:2d:73:07:ae:d4:5d:4d:c2:ca:8b:ca:
                    78:4a:1b:60:d4:e6:8e:b5:0b:62:46:39:12:ba:f0:
                    73:30:90:6e:bd:46:00:6a:60:cf:2f:a0:f8:d3:6b:
                    7d:c8:8b:77:74:33:36:c4:33:b2:ec:74:02:41:78:
                    43:f7:2d:3e:fc:fa:21:22:05:eb:cf:38:12:d1:ff:
                    15:e5:74:a9:b9:66:ef:28:3a:1a:8f:00:5c:0c:fb:
                    df:67:58:e4:08:fa:02:18:2d:52:41:e6:8c:df:dd:
                    3c:de:1b:c2:bf:8d:f6:36:72:51:5c:5c:b7:7d:55:
                    6b:dd
                Exponent: 65537 (0x10001)
        X509v3 extensions:
            X509v3 Basic Constraints: 
                CA:FALSE
            X509v3 Subject Key Identifier: 
                4A:4A:36:21:BC:A3:85:6F:57:68:E7:B3:5C:23:01:AC:DE:E7:2B:75
            X509v3 Authority Key Identifier: 
                keyid:87:D2:36:05:3B:4C:33:54:43:E6:82:AA:34:E4:FF:F8:75:7B:E5:A4
                DirName:/CN=team279-net
                serial:2C:4A:CC:1F:E5:D3:09:45:E0:B9:C2:24:47:7E:0E:09:04:70:A5:0B
            X509v3 Extended Key Usage: 
                TLS Web Server Authentication
            X509v3 Key Usage: 
                Digital Signature, Key Encipherment
            X509v3 Subject Alternative Name: 
                DNS:team279-server
    Signature Algorithm: sha256WithRSAEncryption
    Signature Value:
        91:d8:fc:81:db:c4:12:a9:b7:4c:5f:93:49:c2:3c:c8:ee:b9:
        76:f8:f3:bf:6b:ab:c8:bb:a1:ba:62:d4:8a:e7:c3:f5:b0:38:
        ec:4f:1d:7a:73:ce:43:c5:c2:26:bc:20:20:15:02:e4:d0:60:
        12:2b:72:40:ea:9a:e6:54:4d:6b:4f:59:2f:1d:77:39:1b:2f:
        82:02:e6:4f:36:0b:cd:4a:af:4a:ef:b1:f8:2a:9e:6f:7c:1d:
        43:a5:04:b4:4c:f8:0a:98:91:9b:3d:23:94:2c:11:f2:32:ce:
        50:f1:4a:0d:60:93:89:68:cf:a8:5d:12:e8:d2:51:af:d0:01:
        96:67:b1:84:ad:64:c9:65:42:15:23:32:1c:61:d2:09:b7:c4:
        41:90:e5:c9:5b:b2:42:e8:10:c9:77:28:1f:cb:d9:64:71:ce:
        4c:1f:a2:65:e0:7c:07:8a:db:94:86:88:ce:3c:3e:b7:79:42:
        66:2d:0d:bc:19:5d:61:fe:14:c1:6e:27:87:f9:e1:ef:38:7c:
        17:56:84:e9:aa:8a:a7:7b:67:45:03:ec:a0:a8:90:50:1d:9b:
        7c:f3:dd:9c:8a:d8:e6:db:53:b2:14:59:02:ec:0d:1f:cf:52:
        27:1a:a2:d0:d7:78:45:02:39:b0:f8:dc:74:90:93:18:c2:b9:
        bd:66:b7:40
-----BEGIN CERTIFICATE-----
MIIDeDCCAmCgAwIBAgIRAP3/jmw45F2aCrQlQ3lHzngwDQYJKoZIhvcNAQELBQAw
FjEUMBIGA1UEAwwLdGVhbTI3OS1uZXQwHhcNMjMxMTA0MTA0NTQ5WhcNMjYxMDE5
MTA0NTQ5WjAZMRcwFQYDVQQDDA50ZWFtMjc5LXNlcnZlcjCCASIwDQYJKoZIhvcN
AQEBBQADggEPADCCAQoCggEBAImf5P4eBojNpUcV/4iCPcTAn2LDp7jsygEMXdWZ
rvFq7mBmiQsylNVo7vcIsiQ5ZBwnw6w0vRBNok1zthyYx2ERmJmmo3KYRyJQx6xj
MFCsY8kcRxAmJUr2VrinENd1x3LAHSf+0NXXwz7I5ZIGCQ+bf1ZsYqSKmrFsmnJz
DxU12bVu5R7hQlf8Ci1zB67UXU3CyovKeEobYNTmjrULYkY5ErrwczCQbr1GAGpg
zy+g+NNrfciLd3QzNsQzsux0AkF4Q/ctPvz6ISIF6884EtH/FeV0qblm7yg6Go8A
XAz732dY5Aj6AhgtUkHmjN/dPN4bwr+N9jZyUVxct31Va90CAwEAAaOBvTCBujAJ
BgNVHRMEAjAAMB0GA1UdDgQWBBRKSjYhvKOFb1do57NcIwGs3ucrdTBRBgNVHSME
SjBIgBSH0jYFO0wzVEPmgqo05P/4dXvlpKEapBgwFjEUMBIGA1UEAwwLdGVhbTI3
OS1uZXSCFCxKzB/l0wlF4LnCJEd+DgkEcKULMBMGA1UdJQQMMAoGCCsGAQUFBwMB
MAsGA1UdDwQEAwIFoDAZBgNVHREEEjAQgg50ZWFtMjc5LXNlcnZlcjANBgkqhkiG
9w0BAQsFAAOCAQEAkdj8gdvEEqm3TF+TScI8yO65dvjzv2uryLuhumLUiufD9bA4
7E8denPOQ8XCJrwgIBUC5NBgEityQOqa5lRNa09ZLx13ORsvggLmTzYLzUqvSu+x
+Cqeb3wdQ6UEtEz4CpiRmz0jlCwR8jLOUPFKDWCTiWjPqF0S6NJRr9ABlmexhK1k
yWVCFSMyHGHSCbfEQZDlyVuyQugQyXcoH8vZZHHOTB+iZeB8B4rblIaIzjw+t3lC
Zi0NvBldYf4UwW4nh/nh7zh8F1aE6aqKp3tnRQPsoKiQUB2bfPPdnIrY5ttTshRZ
AuwNH89SJxqi0Nd4RQI5sPjcdJCTGMK5vWa3QA==
-----END CERTIFICATE-----
