Certificate:
    Data:
        Version: 3 (0x2)
        Serial Number:
            b3:ff:af:90:d7:39:88:28:18:58:12:a7:16:4d:ed:c7
        Signature Algorithm: sha256WithRSAEncryption
        Issuer: CN=team309-net
        Validity
            Not Before: Nov  3 20:44:53 2023 GMT
            Not After : Oct 18 20:44:53 2026 GMT
        Subject: CN=team309-client
        Subject Public Key Info:
            Public Key Algorithm: rsaEncryption
                Public-Key: (2048 bit)
                Modulus:
                    00:c3:2b:30:0a:90:f7:a5:3e:4c:b3:c7:5a:38:6d:
                    89:6e:53:21:64:c7:fe:6f:f8:88:5d:28:dc:bd:25:
                    a3:3d:e3:fd:65:50:25:21:64:9f:52:7a:8c:50:a0:
                    87:74:57:14:cd:fd:67:79:48:68:cb:a6:27:f8:3c:
                    5c:83:4c:60:6d:1b:c4:cc:a6:5f:16:66:2a:6d:47:
                    c7:5a:b2:df:42:56:82:f5:25:78:1a:70:2b:68:bb:
                    61:05:54:bf:e9:89:e1:d5:ae:c2:e8:12:6b:f8:16:
                    3b:52:dd:c7:50:30:f7:1f:65:27:20:46:c3:88:17:
                    12:8e:5c:ba:af:02:7e:cd:74:0f:34:2a:45:bc:c2:
                    4a:3c:e5:d7:64:08:a4:9f:4d:9b:63:7c:af:ca:37:
                    3d:8d:a9:95:85:bd:2b:56:51:72:7e:ef:0c:98:07:
                    04:4b:f0:3d:a1:e8:9d:f2:b4:f2:9a:73:5b:7a:6a:
                    96:ec:03:c0:5a:0c:8d:eb:5c:4f:6a:05:29:0e:23:
                    11:f9:9c:20:67:15:8b:69:9d:50:1b:88:bc:86:94:
                    96:14:b7:03:21:b7:b5:cd:b3:9e:f1:d7:a0:3e:b7:
                    05:67:08:ed:bd:a6:fd:89:50:5e:a5:21:04:f6:e2:
                    20:d4:35:44:23:bc:8b:c8:66:2d:4a:88:11:2e:01:
                    e6:79
                Exponent: 65537 (0x10001)
        X509v3 extensions:
            X509v3 Basic Constraints: 
                CA:FALSE
            X509v3 Subject Key Identifier: 
                F6:C8:B8:7F:15:3A:41:BF:EB:2A:7C:15:1C:9F:6F:22:F9:1C:6A:E1
            X509v3 Authority Key Identifier: 
                keyid:78:57:A8:88:31:E8:16:27:B6:1C:BD:92:86:FB:62:CC:92:D0:FC:65
                DirName:/CN=team309-net
                serial:04:34:BE:1A:07:25:31:FB:C7:D9:44:A8:EC:11:5B:1F:B9:85:05:31
            X509v3 Extended Key Usage: 
                TLS Web Client Authentication
            X509v3 Key Usage: 
                Digital Signature
    Signature Algorithm: sha256WithRSAEncryption
    Signature Value:
        80:e0:33:99:c9:23:9a:8d:24:64:58:a2:fa:a2:5b:73:79:7b:
        8b:da:fd:5a:42:78:da:d5:c8:bd:ba:1f:21:90:ef:60:90:c5:
        a5:79:96:85:10:1a:18:04:f0:17:2f:3b:e0:e5:ba:46:65:d2:
        03:6c:cc:9a:ce:37:46:16:96:89:88:aa:3f:58:89:60:8e:fc:
        59:a4:78:0e:28:7a:1f:f1:6e:70:e8:a3:5f:65:31:e3:f2:be:
        5d:d1:ea:79:be:1f:23:75:cc:e5:ef:fb:ec:4c:d5:87:be:dc:
        33:1d:ed:58:77:84:4a:0d:a9:52:63:81:eb:cd:b3:9a:47:33:
        2f:ec:34:77:db:ba:8e:1d:d3:57:a3:69:1a:13:76:cc:5d:88:
        81:27:3e:b1:0f:80:b2:4a:a1:e9:79:15:ce:87:9b:20:df:7a:
        51:58:b8:cb:7c:61:ad:20:bf:c5:da:61:c0:85:d1:0d:15:06:
        6c:88:eb:0d:2f:4e:1e:7b:a2:bd:a5:7f:80:48:85:73:66:3b:
        eb:05:30:19:34:53:e6:c5:b9:ca:17:d1:02:24:e5:41:21:ac:
        25:c5:e9:b5:d1:a4:d3:9a:24:4b:d0:4a:05:7e:bd:23:22:65:
        46:f3:17:cf:05:55:86:81:ce:03:d4:6e:ba:54:32:a1:0b:90:
        46:69:0c:c2
-----BEGIN CERTIFICATE-----
MIIDXTCCAkWgAwIBAgIRALP/r5DXOYgoGFgSpxZN7ccwDQYJKoZIhvcNAQELBQAw
FjEUMBIGA1UEAwwLdGVhbTMwOS1uZXQwHhcNMjMxMTAzMjA0NDUzWhcNMjYxMDE4
MjA0NDUzWjAZMRcwFQYDVQQDDA50ZWFtMzA5LWNsaWVudDCCASIwDQYJKoZIhvcN
AQEBBQADggEPADCCAQoCggEBAMMrMAqQ96U+TLPHWjhtiW5TIWTH/m/4iF0o3L0l
oz3j/WVQJSFkn1J6jFCgh3RXFM39Z3lIaMumJ/g8XINMYG0bxMymXxZmKm1Hx1qy
30JWgvUleBpwK2i7YQVUv+mJ4dWuwugSa/gWO1Ldx1Aw9x9lJyBGw4gXEo5cuq8C
fs10DzQqRbzCSjzl12QIpJ9Nm2N8r8o3PY2plYW9K1ZRcn7vDJgHBEvwPaHonfK0
8ppzW3pqluwDwFoMjetcT2oFKQ4jEfmcIGcVi2mdUBuIvIaUlhS3AyG3tc2znvHX
oD63BWcI7b2m/YlQXqUhBPbiINQ1RCO8i8hmLUqIES4B5nkCAwEAAaOBojCBnzAJ
BgNVHRMEAjAAMB0GA1UdDgQWBBT2yLh/FTpBv+sqfBUcn28i+Rxq4TBRBgNVHSME
SjBIgBR4V6iIMegWJ7YcvZKG+2LMktD8ZaEapBgwFjEUMBIGA1UEAwwLdGVhbTMw
OS1uZXSCFAQ0vhoHJTH7x9lEqOwRWx+5hQUxMBMGA1UdJQQMMAoGCCsGAQUFBwMC
MAsGA1UdDwQEAwIHgDANBgkqhkiG9w0BAQsFAAOCAQEAgOAzmckjmo0kZFii+qJb
c3l7i9r9WkJ42tXIvbofIZDvYJDFpXmWhRAaGATwFy874OW6RmXSA2zMms43RhaW
iYiqP1iJYI78WaR4Dih6H/FucOijX2Ux4/K+XdHqeb4fI3XM5e/77EzVh77cMx3t
WHeESg2pUmOB682zmkczL+w0d9u6jh3TV6NpGhN2zF2IgSc+sQ+Askqh6XkVzoeb
IN96UVi4y3xhrSC/xdphwIXRDRUGbIjrDS9OHnuivaV/gEiFc2Y76wUwGTRT5sW5
yhfRAiTlQSGsJcXptdGk05okS9BKBX69IyJlRvMXzwVVhoHOA9RuulQyoQuQRmkM
wg==
-----END CERTIFICATE-----
