Certificate:
    Data:
        Version: 3 (0x2)
        Serial Number:
            b5:48:be:9a:4c:bb:18:3b:02:5c:14:c7:9d:1c:be:1f
        Signature Algorithm: sha256WithRSAEncryption
        Issuer: CN=team309-net
        Validity
            Not Before: Nov  4 11:34:13 2023 GMT
            Not After : Oct 19 11:34:13 2026 GMT
        Subject: CN=team309-server
        Subject Public Key Info:
            Public Key Algorithm: rsaEncryption
                Public-Key: (2048 bit)
                Modulus:
                    00:b8:23:c6:ba:ae:47:6b:bd:d7:33:dd:74:bb:7e:
                    a5:8a:5a:04:7b:ca:a6:12:63:c5:7e:74:48:09:a2:
                    da:28:f2:58:37:f2:d6:ad:f3:31:40:17:ff:68:c3:
                    fd:c9:0f:f6:f1:c7:9f:30:62:57:3b:42:62:e7:bb:
                    96:40:09:81:98:f3:07:6a:d3:cb:88:49:4c:74:8b:
                    e1:36:85:93:0c:08:9d:3f:02:3e:4b:e1:5c:d9:60:
                    63:22:70:7e:b3:ba:44:87:c7:a6:22:38:c3:03:25:
                    cf:6b:da:f0:48:d9:34:ff:71:be:ef:11:6e:f3:22:
                    3d:ff:58:db:5d:51:e7:cb:34:51:d5:3e:93:26:6f:
                    db:9b:0e:54:ad:84:be:3f:47:1a:4e:32:51:81:62:
                    7c:9e:75:a0:98:94:1f:86:f4:87:81:94:9d:93:98:
                    3e:0d:27:f8:76:39:3f:bc:1b:6a:91:70:08:99:77:
                    a8:d8:be:1c:76:34:75:b6:59:cd:78:3e:25:8d:c5:
                    d9:94:a0:8d:57:f2:a4:b8:75:33:02:7e:5c:4f:92:
                    36:a1:64:86:8a:b3:cf:6a:03:34:0d:09:11:e9:18:
                    47:b3:b5:46:56:a1:e2:b1:e9:54:e5:b8:9c:d5:02:
                    f2:99:e8:5c:1a:1c:4d:0a:40:ae:ee:7c:f1:84:56:
                    b0:19
                Exponent: 65537 (0x10001)
        X509v3 extensions:
            X509v3 Basic Constraints: 
                CA:FALSE
            X509v3 Subject Key Identifier: 
                D7:01:B1:BD:E0:26:A4:54:F6:7C:BA:36:03:8C:73:21:62:E2:23:D6
            X509v3 Authority Key Identifier: 
                keyid:84:BA:0B:DF:AF:21:2A:58:9C:84:EC:07:F6:FC:7B:0E:CE:21:ED:54
                DirName:/CN=team309-net
                serial:51:BC:AC:7B:F7:C3:EE:F7:21:54:65:01:1E:A4:8A:63:86:DE:7C:E1
            X509v3 Extended Key Usage: 
                TLS Web Server Authentication
            X509v3 Key Usage: 
                Digital Signature, Key Encipherment
            X509v3 Subject Alternative Name: 
                DNS:team309-server
    Signature Algorithm: sha256WithRSAEncryption
    Signature Value:
        1c:66:04:07:05:88:2a:77:78:35:4a:3f:09:e3:05:c9:1f:d5:
        4f:23:3e:7e:45:e3:31:d8:9f:f6:d6:bf:91:e9:17:be:9c:48:
        74:65:a3:b9:26:bd:b7:a1:48:c5:b8:25:09:f4:37:f5:2f:83:
        ae:23:8c:dd:67:c7:6c:af:b1:16:97:d6:52:5a:32:a7:5c:78:
        2a:59:37:a7:33:8e:6f:39:48:8f:ae:c8:ea:9d:40:7f:15:ac:
        1d:0b:2c:5c:50:c7:2a:94:81:89:04:6e:d6:29:6a:8d:47:23:
        11:a6:96:94:4a:21:b6:2f:1c:fa:57:68:9a:07:57:ad:42:b6:
        d4:6a:ed:0d:b5:0a:8b:20:06:ca:ac:b5:e4:58:09:d1:44:d0:
        5b:31:d9:54:4a:b4:3d:07:e0:91:2c:89:93:f4:3c:52:6b:38:
        4a:9d:70:c6:87:9a:3c:ec:ff:7e:c7:24:24:a6:6e:81:aa:3f:
        62:33:88:0a:f4:7f:dc:0b:3d:c9:8f:13:dc:af:b5:51:57:3a:
        e0:f0:5d:3d:85:ed:a5:24:98:d7:98:c6:37:00:74:9e:b8:36:
        d1:31:82:33:a5:30:cc:d1:fb:b7:37:1d:32:4b:ea:55:e1:9d:
        05:56:46:ad:8f:ed:98:9c:76:cf:3a:4c:b9:50:61:ab:3e:57:
        ef:44:6e:cd
-----BEGIN CERTIFICATE-----
MIIDeDCCAmCgAwIBAgIRALVIvppMuxg7AlwUx50cvh8wDQYJKoZIhvcNAQELBQAw
FjEUMBIGA1UEAwwLdGVhbTMwOS1uZXQwHhcNMjMxMTA0MTEzNDEzWhcNMjYxMDE5
MTEzNDEzWjAZMRcwFQYDVQQDDA50ZWFtMzA5LXNlcnZlcjCCASIwDQYJKoZIhvcN
AQEBBQADggEPADCCAQoCggEBALgjxrquR2u91zPddLt+pYpaBHvKphJjxX50SAmi
2ijyWDfy1q3zMUAX/2jD/ckP9vHHnzBiVztCYue7lkAJgZjzB2rTy4hJTHSL4TaF
kwwInT8CPkvhXNlgYyJwfrO6RIfHpiI4wwMlz2va8EjZNP9xvu8RbvMiPf9Y211R
58s0UdU+kyZv25sOVK2Evj9HGk4yUYFifJ51oJiUH4b0h4GUnZOYPg0n+HY5P7wb
apFwCJl3qNi+HHY0dbZZzXg+JY3F2ZSgjVfypLh1MwJ+XE+SNqFkhoqzz2oDNA0J
EekYR7O1Rlah4rHpVOW4nNUC8pnoXBocTQpAru588YRWsBkCAwEAAaOBvTCBujAJ
BgNVHRMEAjAAMB0GA1UdDgQWBBTXAbG94CakVPZ8ujYDjHMhYuIj1jBRBgNVHSME
SjBIgBSEugvfryEqWJyE7Af2/HsOziHtVKEapBgwFjEUMBIGA1UEAwwLdGVhbTMw
OS1uZXSCFFG8rHv3w+73IVRlAR6kimOG3nzhMBMGA1UdJQQMMAoGCCsGAQUFBwMB
MAsGA1UdDwQEAwIFoDAZBgNVHREEEjAQgg50ZWFtMzA5LXNlcnZlcjANBgkqhkiG
9w0BAQsFAAOCAQEAHGYEBwWIKnd4NUo/CeMFyR/VTyM+fkXjMdif9ta/kekXvpxI
dGWjuSa9t6FIxbglCfQ39S+DriOM3WfHbK+xFpfWUloyp1x4Klk3pzOObzlIj67I
6p1AfxWsHQssXFDHKpSBiQRu1ilqjUcjEaaWlEohti8c+ldomgdXrUK21GrtDbUK
iyAGyqy15FgJ0UTQWzHZVEq0PQfgkSyJk/Q8Ums4Sp1wxoeaPOz/fsckJKZugao/
YjOICvR/3As9yY8T3K+1UVc64PBdPYXtpSSY15jGNwB0nrg20TGCM6UwzNH7tzcd
MkvqVeGdBVZGrY/tmJx2zzpMuVBhqz5X70RuzQ==
-----END CERTIFICATE-----
