Certificate:
    Data:
        Version: 3 (0x2)
        Serial Number:
            f4:6c:4d:32:ca:4a:32:c0:99:b9:5d:47:7f:fa:8c:17
        Signature Algorithm: sha256WithRSAEncryption
        Issuer: CN=team309-net
        Validity
            Not Before: Nov  4 10:46:17 2023 GMT
            Not After : Oct 19 10:46:17 2026 GMT
        Subject: CN=team309-server
        Subject Public Key Info:
            Public Key Algorithm: rsaEncryption
                Public-Key: (2048 bit)
                Modulus:
                    00:df:4f:81:ff:81:55:08:fc:b3:10:f6:70:0a:9a:
                    46:dc:cc:65:a6:f1:d2:8d:05:1b:25:53:e5:a7:52:
                    56:74:ae:4f:96:a4:f9:50:c9:4c:21:59:2f:68:de:
                    42:d0:26:cb:64:67:ed:05:12:4b:85:33:eb:63:bd:
                    a2:11:1a:c3:1e:6d:5b:4b:dc:f6:30:f3:69:59:f1:
                    65:73:53:08:09:1d:ee:87:5a:a6:25:b5:f4:fd:b8:
                    ec:a0:e3:02:80:39:8d:73:7f:fe:70:ca:39:c4:7b:
                    10:63:6c:c2:03:43:2c:15:38:27:44:46:08:00:a9:
                    69:dc:4c:50:ec:5b:53:ff:b2:8a:fa:a3:c4:b8:46:
                    32:d6:ee:3e:06:cb:21:07:5d:0d:b7:b4:80:a2:22:
                    0a:36:ae:89:7c:44:52:8e:47:e4:71:73:df:1a:01:
                    b9:06:ad:26:35:0c:b0:5a:d5:c4:7e:df:d9:a3:94:
                    28:07:3e:8e:d7:ba:7f:24:40:07:4f:07:76:76:ae:
                    c8:1e:86:9e:2d:e2:68:aa:72:7e:53:fb:3c:3e:9b:
                    32:2b:d2:5d:ec:b9:b8:47:38:54:75:3f:a0:ec:30:
                    a5:5f:d4:ed:d8:ae:8f:39:27:80:89:6b:7e:92:74:
                    cf:58:f3:3d:e5:bb:d2:c3:10:ea:04:0d:fc:c8:df:
                    2a:95
                Exponent: 65537 (0x10001)
        X509v3 extensions:
            X509v3 Basic Constraints: 
                CA:FALSE
            X509v3 Subject Key Identifier: 
                6B:70:D8:B6:75:FC:31:10:C3:28:FA:D4:8E:84:F3:E5:E8:3D:1A:83
            X509v3 Authority Key Identifier: 
                keyid:8B:61:15:7C:D0:C3:A5:1D:3C:B6:6C:2A:4F:E4:D6:09:9D:07:22:74
                DirName:/CN=team309-net
                serial:76:1D:3D:38:B9:31:6B:9F:D0:30:E5:B8:16:55:50:E3:56:63:DA:D0
            X509v3 Extended Key Usage: 
                TLS Web Server Authentication
            X509v3 Key Usage: 
                Digital Signature, Key Encipherment
            X509v3 Subject Alternative Name: 
                DNS:team309-server
    Signature Algorithm: sha256WithRSAEncryption
    Signature Value:
        8f:be:72:e6:cd:d1:e5:1f:c1:5f:f2:44:64:76:00:d2:d6:11:
        77:78:64:ad:ae:e1:61:a6:02:bc:ee:dc:a2:e2:e2:ee:00:8c:
        4c:17:87:1b:17:b0:b2:98:1b:92:ba:82:ca:34:ff:f6:bf:8a:
        49:72:04:37:01:d3:e1:ce:eb:a3:21:98:05:77:db:a2:48:2f:
        97:17:06:37:eb:37:13:ae:4e:ee:4b:81:94:3e:13:48:26:12:
        9d:2d:0c:dd:fe:4e:30:0b:17:83:40:2e:0a:ad:4a:9f:f2:78:
        db:28:ca:a6:e7:6e:33:bf:5c:fc:b1:55:97:55:a1:f3:ea:08:
        cd:57:8e:88:55:2c:df:d0:f3:d2:a8:f5:be:81:23:94:33:b7:
        d5:1e:bd:eb:aa:77:cd:6f:3f:36:4c:f5:e4:b9:2e:1b:64:50:
        00:f3:6d:97:e1:62:6d:a7:a0:98:7e:c4:b7:b6:86:58:78:84:
        68:73:1e:ce:a2:4a:c6:5b:89:4f:fe:3f:6d:95:59:ca:28:ec:
        83:6e:4c:a6:65:eb:df:cc:0a:ab:52:90:ee:79:bb:61:90:d9:
        bd:d6:2b:c4:0d:1d:71:2f:f3:9f:c0:50:ad:ab:65:b6:20:fe:
        a3:d9:34:b3:04:f0:a6:44:17:5c:96:3b:8d:10:5e:e7:3b:43:
        0a:ec:98:fd
-----BEGIN CERTIFICATE-----
MIIDeDCCAmCgAwIBAgIRAPRsTTLKSjLAmbldR3/6jBcwDQYJKoZIhvcNAQELBQAw
FjEUMBIGA1UEAwwLdGVhbTMwOS1uZXQwHhcNMjMxMTA0MTA0NjE3WhcNMjYxMDE5
MTA0NjE3WjAZMRcwFQYDVQQDDA50ZWFtMzA5LXNlcnZlcjCCASIwDQYJKoZIhvcN
AQEBBQADggEPADCCAQoCggEBAN9Pgf+BVQj8sxD2cAqaRtzMZabx0o0FGyVT5adS
VnSuT5ak+VDJTCFZL2jeQtAmy2Rn7QUSS4Uz62O9ohEawx5tW0vc9jDzaVnxZXNT
CAkd7odapiW19P247KDjAoA5jXN//nDKOcR7EGNswgNDLBU4J0RGCACpadxMUOxb
U/+yivqjxLhGMtbuPgbLIQddDbe0gKIiCjauiXxEUo5H5HFz3xoBuQatJjUMsFrV
xH7f2aOUKAc+jte6fyRAB08HdnauyB6Gni3iaKpyflP7PD6bMivSXey5uEc4VHU/
oOwwpV/U7diujzkngIlrfpJ0z1jzPeW70sMQ6gQN/MjfKpUCAwEAAaOBvTCBujAJ
BgNVHRMEAjAAMB0GA1UdDgQWBBRrcNi2dfwxEMMo+tSOhPPl6D0agzBRBgNVHSME
SjBIgBSLYRV80MOlHTy2bCpP5NYJnQcidKEapBgwFjEUMBIGA1UEAwwLdGVhbTMw
OS1uZXSCFHYdPTi5MWuf0DDluBZVUONWY9rQMBMGA1UdJQQMMAoGCCsGAQUFBwMB
MAsGA1UdDwQEAwIFoDAZBgNVHREEEjAQgg50ZWFtMzA5LXNlcnZlcjANBgkqhkiG
9w0BAQsFAAOCAQEAj75y5s3R5R/BX/JEZHYA0tYRd3hkra7hYaYCvO7couLi7gCM
TBeHGxewspgbkrqCyjT/9r+KSXIENwHT4c7royGYBXfbokgvlxcGN+s3E65O7kuB
lD4TSCYSnS0M3f5OMAsXg0AuCq1Kn/J42yjKpuduM79c/LFVl1Wh8+oIzVeOiFUs
39Dz0qj1voEjlDO31R6966p3zW8/Nkz15LkuG2RQAPNtl+FibaegmH7Et7aGWHiE
aHMezqJKxluJT/4/bZVZyijsg25MpmXr38wKq1KQ7nm7YZDZvdYrxA0dcS/zn8BQ
ratltiD+o9k0swTwpkQXXJY7jRBe5ztDCuyY/Q==
-----END CERTIFICATE-----
