Certificate:
    Data:
        Version: 3 (0x2)
        Serial Number:
            38:ae:41:1e:20:3a:37:93:ca:92:12:b6:42:a8:03:07
        Signature Algorithm: sha256WithRSAEncryption
        Issuer: CN=team5-net
        Validity
            Not Before: Nov  4 10:40:18 2023 GMT
            Not After : Oct 19 10:40:18 2026 GMT
        Subject: CN=team5-client
        Subject Public Key Info:
            Public Key Algorithm: rsaEncryption
                Public-Key: (2048 bit)
                Modulus:
                    00:9c:9e:27:96:27:d2:15:1e:b8:29:8b:92:93:38:
                    53:c3:ec:12:06:84:ca:e5:80:0e:c7:d1:43:93:bf:
                    46:a5:2d:83:fd:2c:c0:f2:6a:0b:ca:b2:df:82:62:
                    0d:b0:17:b4:55:97:fe:45:8f:61:a1:03:c8:49:c7:
                    13:23:8f:2e:5e:ee:f5:21:b6:61:0d:f5:70:1f:02:
                    f0:13:4c:0c:82:d9:35:05:20:c1:e1:d7:46:22:7a:
                    4b:e8:f1:5c:dc:4d:3c:fa:d4:10:04:4c:8f:6d:bd:
                    f4:d6:07:7f:05:5b:c2:9c:cd:65:da:ff:b0:95:84:
                    2c:69:f3:58:92:5c:d8:fb:31:fd:a6:f1:5c:d9:d8:
                    44:3e:07:42:4f:32:c3:26:9b:f5:6a:53:a2:ef:13:
                    52:0b:d6:b9:8c:b7:ff:1e:34:3a:c9:a4:15:42:38:
                    44:9f:24:f2:75:0a:66:b7:0b:1b:ac:bb:eb:01:cf:
                    00:83:cc:73:b6:a3:e3:cf:89:91:6d:82:5e:a9:6a:
                    ba:39:ba:15:1f:66:2f:4a:f2:ec:72:c2:f4:0e:68:
                    2f:ac:8b:10:e0:c9:ac:82:e7:01:1b:01:d6:dd:e0:
                    30:71:23:01:60:0c:10:6c:ad:30:e4:fe:4a:d9:d6:
                    a3:b1:9f:be:ea:ef:f1:5b:da:45:83:ed:d1:1a:8d:
                    0d:c1
                Exponent: 65537 (0x10001)
        X509v3 extensions:
            X509v3 Basic Constraints: 
                CA:FALSE
            X509v3 Subject Key Identifier: 
                22:60:D9:78:B1:B7:AE:B6:2A:CF:06:45:0E:7F:FC:8F:B8:3C:F8:5A
            X509v3 Authority Key Identifier: 
                keyid:7C:64:02:D1:95:63:29:1D:81:4D:50:BD:FA:5C:20:41:98:1F:4C:8D
                DirName:/CN=team5-net
                serial:51:A0:52:A1:ED:53:E6:C8:C2:9D:E6:3D:B7:F8:43:A3:51:FA:FB:6E
            X509v3 Extended Key Usage: 
                TLS Web Client Authentication
            X509v3 Key Usage: 
                Digital Signature
    Signature Algorithm: sha256WithRSAEncryption
    Signature Value:
        90:34:de:dc:f1:79:0b:93:98:e8:df:43:f6:c0:c9:5f:26:c3:
        68:f0:fd:ef:5d:aa:97:71:97:94:1a:08:da:38:8e:c7:c6:39:
        73:cb:bb:e7:08:67:1b:8f:cb:9a:6b:0d:40:51:a0:be:8f:ec:
        3f:5c:d2:ab:fe:09:a8:01:80:41:a4:01:09:a5:bc:5f:d7:53:
        0b:e9:82:c4:46:70:73:1b:ad:bb:f8:5f:b0:ce:f0:4e:4f:fe:
        72:96:d5:82:8d:1f:bb:e3:04:c2:dd:6a:ad:76:59:94:08:7e:
        1b:bb:d8:09:81:e6:cd:1e:37:21:5e:d0:45:fb:6c:bf:a8:cb:
        2e:2b:32:75:de:15:eb:38:90:30:cc:9e:a1:2a:39:11:7f:65:
        70:55:f6:44:da:90:a3:14:a5:6b:c7:ba:da:28:d4:d5:c6:6b:
        e1:72:c0:c0:b8:43:cc:fd:a9:e9:28:ff:ed:f0:88:49:1c:36:
        5f:80:9a:58:13:5e:9e:ad:ad:cc:8d:90:47:1e:6c:66:8a:c8:
        49:40:f8:45:60:e8:33:78:54:11:9d:03:4f:2d:ef:00:ef:13:
        4b:76:20:e9:fa:ee:21:47:ad:da:5e:fd:a3:f5:33:a2:c8:0b:
        92:59:94:20:de:df:e6:2a:f5:ef:cf:53:36:78:0b:fa:f7:c2:
        ba:6a:1d:6e
-----BEGIN CERTIFICATE-----
MIIDVjCCAj6gAwIBAgIQOK5BHiA6N5PKkhK2QqgDBzANBgkqhkiG9w0BAQsFADAU
MRIwEAYDVQQDDAl0ZWFtNS1uZXQwHhcNMjMxMTA0MTA0MDE4WhcNMjYxMDE5MTA0
MDE4WjAXMRUwEwYDVQQDDAx0ZWFtNS1jbGllbnQwggEiMA0GCSqGSIb3DQEBAQUA
A4IBDwAwggEKAoIBAQCcnieWJ9IVHrgpi5KTOFPD7BIGhMrlgA7H0UOTv0alLYP9
LMDyagvKst+CYg2wF7RVl/5Fj2GhA8hJxxMjjy5e7vUhtmEN9XAfAvATTAyC2TUF
IMHh10Yiekvo8VzcTTz61BAETI9tvfTWB38FW8KczWXa/7CVhCxp81iSXNj7Mf2m
8VzZ2EQ+B0JPMsMmm/VqU6LvE1IL1rmMt/8eNDrJpBVCOESfJPJ1Cma3Cxusu+sB
zwCDzHO2o+PPiZFtgl6paro5uhUfZi9K8uxywvQOaC+sixDgyayC5wEbAdbd4DBx
IwFgDBBsrTDk/krZ1qOxn77q7/Fb2kWD7dEajQ3BAgMBAAGjgaAwgZ0wCQYDVR0T
BAIwADAdBgNVHQ4EFgQUImDZeLG3rrYqzwZFDn/8j7g8+FowTwYDVR0jBEgwRoAU
fGQC0ZVjKR2BTVC9+lwgQZgfTI2hGKQWMBQxEjAQBgNVBAMMCXRlYW01LW5ldIIU
UaBSoe1T5sjCneY9t/hDo1H6+24wEwYDVR0lBAwwCgYIKwYBBQUHAwIwCwYDVR0P
BAQDAgeAMA0GCSqGSIb3DQEBCwUAA4IBAQCQNN7c8XkLk5jo30P2wMlfJsNo8P3v
XaqXcZeUGgjaOI7Hxjlzy7vnCGcbj8uaaw1AUaC+j+w/XNKr/gmoAYBBpAEJpbxf
11ML6YLERnBzG627+F+wzvBOT/5yltWCjR+74wTC3WqtdlmUCH4bu9gJgebNHjch
XtBF+2y/qMsuKzJ13hXrOJAwzJ6hKjkRf2VwVfZE2pCjFKVrx7raKNTVxmvhcsDA
uEPM/anpKP/t8IhJHDZfgJpYE16era3MjZBHHmxmishJQPhFYOgzeFQRnQNPLe8A
7xNLdiDp+u4hR63aXv2j9TOiyAuSWZQg3t/mKvXvz1M2eAv698K6ah1u
-----END CERTIFICATE-----
