Certificate:
    Data:
        Version: 3 (0x2)
        Serial Number:
            3a:00:e6:d5:4f:a9:04:3f:d9:b6:83:92:9f:ce:ba:d0
        Signature Algorithm: sha256WithRSAEncryption
        Issuer: CN=team5-net
        Validity
            Not Before: Nov  3 20:39:22 2023 GMT
            Not After : Oct 18 20:39:22 2026 GMT
        Subject: CN=team5-server
        Subject Public Key Info:
            Public Key Algorithm: rsaEncryption
                Public-Key: (2048 bit)
                Modulus:
                    00:a8:97:5d:9a:a5:5f:4e:3c:eb:b6:60:34:8c:c1:
                    95:55:5e:ec:89:fb:24:64:14:5c:ff:48:04:be:1e:
                    83:3e:1e:27:39:b5:66:44:07:c7:44:a5:29:4d:6b:
                    40:4a:26:48:bc:6c:b1:b4:d7:e1:b1:ac:9b:81:b6:
                    c0:6b:75:ab:8b:5f:f2:9e:60:65:cd:d0:dd:c3:d5:
                    82:16:66:79:10:2f:40:dc:a6:d4:db:a4:da:87:79:
                    16:cf:7c:7d:ae:03:f7:4b:5c:55:93:e5:bc:65:27:
                    b4:2f:46:35:0c:24:81:72:cf:4e:6d:d6:61:58:51:
                    90:42:a9:a3:50:20:b7:0b:04:40:a1:3a:41:36:68:
                    4d:b0:c4:a7:d5:04:06:cb:94:5c:9f:b8:3b:3c:ee:
                    b0:09:ac:8f:15:4e:a4:7f:3c:90:84:2a:da:46:5c:
                    1f:a1:9c:16:4d:3e:b7:bd:34:80:a0:3f:12:f3:9a:
                    e5:07:14:37:76:f0:f1:cb:de:4b:d3:76:e6:cc:7b:
                    75:4d:af:86:2e:d5:49:e1:22:96:42:3a:ed:10:d9:
                    73:57:2c:bd:3f:b8:7d:60:ff:d5:e3:67:c9:8d:6d:
                    90:9f:16:43:cb:17:71:c9:7a:32:79:f9:26:28:b3:
                    52:72:a2:b5:25:81:e0:0d:82:45:dd:d2:b2:93:e0:
                    ca:47
                Exponent: 65537 (0x10001)
        X509v3 extensions:
            X509v3 Basic Constraints: 
                CA:FALSE
            X509v3 Subject Key Identifier: 
                FF:1E:DB:78:C9:0F:1E:46:62:86:46:08:EA:11:F7:BC:9A:1F:3F:BD
            X509v3 Authority Key Identifier: 
                keyid:FF:D5:46:74:43:EF:DD:BC:FC:28:21:9C:C8:CD:D9:23:05:58:20:B0
                DirName:/CN=team5-net
                serial:74:84:2C:EC:AF:2E:E5:1A:82:50:2E:1C:42:F1:D9:12:EE:79:A1:02
            X509v3 Extended Key Usage: 
                TLS Web Server Authentication
            X509v3 Key Usage: 
                Digital Signature, Key Encipherment
            X509v3 Subject Alternative Name: 
                DNS:team5-server
    Signature Algorithm: sha256WithRSAEncryption
    Signature Value:
        27:aa:fe:77:5a:3a:68:7a:2b:ea:e8:55:ea:f2:56:af:b4:87:
        c2:23:0e:5e:7e:7d:ec:d3:bf:bd:b3:b8:47:53:30:bc:45:b0:
        99:3b:6a:a5:8f:c5:02:a0:44:aa:6d:0e:44:61:39:33:13:e3:
        f9:9c:c3:a6:00:10:5e:21:91:07:71:a7:00:63:75:08:37:bb:
        8d:e2:f5:b2:96:a0:b2:58:7b:e2:f5:93:0e:68:74:5a:23:5d:
        e4:a1:45:bf:1c:8d:7a:55:f0:9b:fc:f1:b1:2c:d3:a3:87:c2:
        4a:57:b8:1c:5e:6f:80:a9:1a:b2:f0:24:b2:bd:ff:d4:c0:46:
        f1:2e:74:e2:89:5b:e5:0b:5b:7b:a3:b1:d8:ef:9f:34:a4:eb:
        58:cd:92:e2:b1:bb:b7:7c:f7:c0:08:3d:bd:76:bd:82:93:bd:
        bd:0c:db:17:b5:e0:38:f3:aa:d4:8d:28:a2:ef:a7:17:05:8c:
        28:34:9a:16:7b:fd:57:6b:29:5a:9a:3e:9d:07:71:a0:83:7b:
        49:60:49:66:7b:a0:53:72:c1:34:db:8d:43:8d:62:8d:db:9d:
        64:2c:f8:5d:91:aa:bd:32:78:0d:e3:97:46:18:b1:14:aa:51:
        ed:e5:8c:29:55:6c:90:cd:20:2a:56:02:56:08:92:89:8f:d8:
        13:c6:c6:40
-----BEGIN CERTIFICATE-----
MIIDbzCCAlegAwIBAgIQOgDm1U+pBD/ZtoOSn8660DANBgkqhkiG9w0BAQsFADAU
MRIwEAYDVQQDDAl0ZWFtNS1uZXQwHhcNMjMxMTAzMjAzOTIyWhcNMjYxMDE4MjAz
OTIyWjAXMRUwEwYDVQQDDAx0ZWFtNS1zZXJ2ZXIwggEiMA0GCSqGSIb3DQEBAQUA
A4IBDwAwggEKAoIBAQCol12apV9OPOu2YDSMwZVVXuyJ+yRkFFz/SAS+HoM+Hic5
tWZEB8dEpSlNa0BKJki8bLG01+GxrJuBtsBrdauLX/KeYGXN0N3D1YIWZnkQL0Dc
ptTbpNqHeRbPfH2uA/dLXFWT5bxlJ7QvRjUMJIFyz05t1mFYUZBCqaNQILcLBECh
OkE2aE2wxKfVBAbLlFyfuDs87rAJrI8VTqR/PJCEKtpGXB+hnBZNPre9NICgPxLz
muUHFDd28PHL3kvTdubMe3VNr4Yu1UnhIpZCOu0Q2XNXLL0/uH1g/9XjZ8mNbZCf
FkPLF3HJejJ5+SYos1JyorUlgeANgkXd0rKT4MpHAgMBAAGjgbkwgbYwCQYDVR0T
BAIwADAdBgNVHQ4EFgQU/x7beMkPHkZihkYI6hH3vJofP70wTwYDVR0jBEgwRoAU
/9VGdEPv3bz8KCGcyM3ZIwVYILChGKQWMBQxEjAQBgNVBAMMCXRlYW01LW5ldIIU
dIQs7K8u5RqCUC4cQvHZEu55oQIwEwYDVR0lBAwwCgYIKwYBBQUHAwEwCwYDVR0P
BAQDAgWgMBcGA1UdEQQQMA6CDHRlYW01LXNlcnZlcjANBgkqhkiG9w0BAQsFAAOC
AQEAJ6r+d1o6aHor6uhV6vJWr7SHwiMOXn597NO/vbO4R1MwvEWwmTtqpY/FAqBE
qm0ORGE5MxPj+ZzDpgAQXiGRB3GnAGN1CDe7jeL1spagslh74vWTDmh0WiNd5KFF
vxyNelXwm/zxsSzTo4fCSle4HF5vgKkasvAksr3/1MBG8S504olb5Qtbe6Ox2O+f
NKTrWM2S4rG7t3z3wAg9vXa9gpO9vQzbF7XgOPOq1I0oou+nFwWMKDSaFnv9V2sp
Wpo+nQdxoIN7SWBJZnugU3LBNNuNQ41ijdudZCz4XZGqvTJ4DeOXRhixFKpR7eWM
KVVskM0gKlYCVgiSiY/YE8bGQA==
-----END CERTIFICATE-----
