Certificate:
    Data:
        Version: 3 (0x2)
        Serial Number:
            91:a7:07:36:a8:b9:a2:33:85:65:06:8a:88:3f:4c:50
        Signature Algorithm: sha256WithRSAEncryption
        Issuer: CN=team5-net
        Validity
            Not Before: Nov  4 11:27:30 2023 GMT
            Not After : Oct 19 11:27:30 2026 GMT
        Subject: CN=team5-client
        Subject Public Key Info:
            Public Key Algorithm: rsaEncryption
                Public-Key: (2048 bit)
                Modulus:
                    00:93:a6:28:0a:a6:01:c7:6c:79:9d:a6:ff:ba:6a:
                    65:a6:ca:92:87:45:1e:cc:99:68:f3:54:2f:ee:24:
                    d7:e7:92:80:c8:58:fd:76:d0:72:25:dc:a2:b0:6d:
                    23:35:f8:b7:aa:51:03:7e:4b:2a:2d:da:7f:a4:b9:
                    e4:ec:85:09:72:ed:1b:aa:06:a6:d7:ff:2f:06:f7:
                    be:90:e1:cb:69:eb:dc:19:c6:38:c3:09:da:6f:98:
                    44:91:3b:31:5a:0d:d3:b4:9e:39:44:ec:12:a5:23:
                    47:0e:fc:40:ac:96:f5:8f:71:37:c3:3e:3b:cc:a2:
                    e2:d0:d5:2b:65:ce:21:7e:0f:d6:21:55:0a:7f:07:
                    e2:f2:da:5a:da:0c:1f:91:f9:1c:62:62:db:96:fa:
                    44:64:bc:9d:28:37:18:a2:7d:e2:34:4f:cb:75:3b:
                    3e:3d:bc:b8:da:19:c1:98:3b:1a:f7:00:e7:55:5d:
                    42:e0:7e:5e:18:8b:4a:8e:49:cc:a6:2a:09:57:33:
                    42:3e:8e:74:40:e7:96:a9:24:68:fe:c8:03:8c:22:
                    f3:f1:8c:83:70:5f:86:66:e7:5a:b6:4a:7f:28:35:
                    35:cb:1b:f7:0f:b2:37:34:be:26:f7:81:52:50:78:
                    a0:3e:e2:8f:68:50:28:cd:dc:52:18:06:e7:b2:5c:
                    89:d1
                Exponent: 65537 (0x10001)
        X509v3 extensions:
            X509v3 Basic Constraints: 
                CA:FALSE
            X509v3 Subject Key Identifier: 
                C6:78:DE:88:E6:E8:C4:F8:40:E1:95:16:04:7F:1D:9C:76:E1:0B:F3
            X509v3 Authority Key Identifier: 
                keyid:51:AB:8D:95:75:5A:F7:78:02:72:58:57:85:E6:94:06:66:CB:B8:29
                DirName:/CN=team5-net
                serial:4C:54:13:23:3B:E0:9F:75:00:F6:92:11:8F:CE:08:DB:BC:19:78:0E
            X509v3 Extended Key Usage: 
                TLS Web Client Authentication
            X509v3 Key Usage: 
                Digital Signature
    Signature Algorithm: sha256WithRSAEncryption
    Signature Value:
        51:46:3f:41:ae:28:b2:a2:8c:b7:0a:63:1a:ce:db:73:f1:da:
        e6:62:c9:53:37:c2:95:d1:9c:48:b9:b9:ab:1e:f3:b1:54:42:
        11:82:e4:15:de:1b:b3:bc:e9:9f:5c:19:c5:8f:3b:63:ec:f6:
        33:9d:b1:80:6b:a6:db:6f:d7:79:97:bd:30:ed:cd:eb:ca:7f:
        db:ae:de:71:65:a8:6c:32:d2:e0:48:70:c6:5d:69:aa:f1:f0:
        e4:e1:14:d5:97:18:e5:ba:bf:74:02:cf:65:88:40:24:56:f2:
        a8:a1:df:75:3c:c4:e2:41:56:74:35:a8:63:d9:85:5f:58:97:
        eb:1d:8c:72:31:89:3f:89:92:c5:d5:42:51:1b:14:ff:46:4c:
        66:b4:e2:3e:cb:b0:65:ef:9f:8d:70:12:e2:bf:1a:20:ca:00:
        10:75:60:22:e7:9e:58:9f:40:c2:d7:8d:87:26:5b:a2:26:34:
        c8:f1:a3:44:93:77:a4:fc:f6:b3:2b:2a:6c:ff:bb:5a:5d:b1:
        46:21:5b:ab:a2:ea:e5:23:df:da:b7:8d:d6:ba:dd:c4:7f:e1:
        d4:4f:a0:75:b2:06:6a:ef:bb:a4:f8:ae:b7:95:bf:da:55:49:
        c5:72:87:5f:32:90:f5:56:67:6c:97:b4:e1:fe:0c:9b:5b:d2:
        63:0c:cb:ef
-----BEGIN CERTIFICATE-----
MIIDVzCCAj+gAwIBAgIRAJGnBzaouaIzhWUGiog/TFAwDQYJKoZIhvcNAQELBQAw
FDESMBAGA1UEAwwJdGVhbTUtbmV0MB4XDTIzMTEwNDExMjczMFoXDTI2MTAxOTEx
MjczMFowFzEVMBMGA1UEAwwMdGVhbTUtY2xpZW50MIIBIjANBgkqhkiG9w0BAQEF
AAOCAQ8AMIIBCgKCAQEAk6YoCqYBx2x5nab/umplpsqSh0UezJlo81Qv7iTX55KA
yFj9dtByJdyisG0jNfi3qlEDfksqLdp/pLnk7IUJcu0bqgam1/8vBve+kOHLaevc
GcY4wwnab5hEkTsxWg3TtJ45ROwSpSNHDvxArJb1j3E3wz47zKLi0NUrZc4hfg/W
IVUKfwfi8tpa2gwfkfkcYmLblvpEZLydKDcYon3iNE/LdTs+Pby42hnBmDsa9wDn
VV1C4H5eGItKjknMpioJVzNCPo50QOeWqSRo/sgDjCLz8YyDcF+GZudatkp/KDU1
yxv3D7I3NL4m94FSUHigPuKPaFAozdxSGAbnslyJ0QIDAQABo4GgMIGdMAkGA1Ud
EwQCMAAwHQYDVR0OBBYEFMZ43ojm6MT4QOGVFgR/HZx24QvzME8GA1UdIwRIMEaA
FFGrjZV1Wvd4AnJYV4XmlAZmy7gpoRikFjAUMRIwEAYDVQQDDAl0ZWFtNS1uZXSC
FExUEyM74J91APaSEY/OCNu8GXgOMBMGA1UdJQQMMAoGCCsGAQUFBwMCMAsGA1Ud
DwQEAwIHgDANBgkqhkiG9w0BAQsFAAOCAQEAUUY/Qa4osqKMtwpjGs7bc/Ha5mLJ
UzfCldGcSLm5qx7zsVRCEYLkFd4bs7zpn1wZxY87Y+z2M52xgGum22/XeZe9MO3N
68p/267ecWWobDLS4Ehwxl1pqvHw5OEU1ZcY5bq/dALPZYhAJFbyqKHfdTzE4kFW
dDWoY9mFX1iX6x2McjGJP4mSxdVCURsU/0ZMZrTiPsuwZe+fjXAS4r8aIMoAEHVg
IueeWJ9AwteNhyZboiY0yPGjRJN3pPz2sysqbP+7Wl2xRiFbq6Lq5SPf2reN1rrd
xH/h1E+gdbIGau+7pPiut5W/2lVJxXKHXzKQ9VZnbJe04f4Mm1vSYwzL7w==
-----END CERTIFICATE-----
