Certificate:
    Data:
        Version: 3 (0x2)
        Serial Number:
            ba:b0:31:ed:c1:f9:bf:6f:3e:b5:bf:c5:cc:92:bb:62
        Signature Algorithm: sha256WithRSAEncryption
        Issuer: CN=team5-net
        Validity
            Not Before: Nov  3 20:39:22 2023 GMT
            Not After : Oct 18 20:39:22 2026 GMT
        Subject: CN=team5-client
        Subject Public Key Info:
            Public Key Algorithm: rsaEncryption
                Public-Key: (2048 bit)
                Modulus:
                    00:af:36:3d:46:e2:3e:8c:eb:96:d9:5d:d8:ca:da:
                    ea:85:d3:9d:ed:9d:52:c5:f2:22:56:f5:77:6d:13:
                    1c:4d:60:8d:0d:7e:5f:bd:e2:12:fe:29:6d:c2:54:
                    50:17:8a:f6:da:d4:2a:68:32:e3:1c:23:c7:7d:c2:
                    e9:40:78:73:4a:92:48:e6:ed:57:6e:96:72:b1:c2:
                    ef:5a:71:36:e7:68:30:54:c2:c5:34:c4:e9:a7:66:
                    1b:e8:4c:a8:fc:e5:1a:c3:db:3b:64:55:cc:3a:a8:
                    53:24:57:17:9f:12:1f:31:40:5e:99:92:ad:53:72:
                    ec:b5:1f:15:19:03:fc:3c:19:ac:47:48:8e:a8:b6:
                    04:c8:86:84:ee:05:10:67:77:f1:0f:7e:53:68:00:
                    0f:6d:8c:2c:03:c2:70:2f:08:be:eb:3d:4a:f7:d8:
                    7b:d5:52:ce:09:76:73:8e:a4:19:ac:8c:b1:c9:3b:
                    96:bd:12:2f:db:c0:a3:ea:db:a1:9e:c7:7a:4a:eb:
                    10:b2:37:22:59:45:ff:50:03:91:77:b6:5d:71:92:
                    af:26:eb:82:57:fb:de:25:fa:5c:a5:05:25:13:27:
                    07:ae:be:5a:1d:35:b3:ec:f9:48:49:f1:6b:e4:1a:
                    42:09:77:e2:4c:c8:84:b3:fe:92:bf:c3:58:bb:3c:
                    71:77
                Exponent: 65537 (0x10001)
        X509v3 extensions:
            X509v3 Basic Constraints: 
                CA:FALSE
            X509v3 Subject Key Identifier: 
                8D:6C:5C:99:E2:6F:A6:82:7C:43:9F:7D:DC:70:58:6D:F2:53:EA:6D
            X509v3 Authority Key Identifier: 
                keyid:FF:D5:46:74:43:EF:DD:BC:FC:28:21:9C:C8:CD:D9:23:05:58:20:B0
                DirName:/CN=team5-net
                serial:74:84:2C:EC:AF:2E:E5:1A:82:50:2E:1C:42:F1:D9:12:EE:79:A1:02
            X509v3 Extended Key Usage: 
                TLS Web Client Authentication
            X509v3 Key Usage: 
                Digital Signature
    Signature Algorithm: sha256WithRSAEncryption
    Signature Value:
        7c:5b:37:c9:95:b1:e3:51:16:85:d9:89:b9:8e:c5:e3:66:80:
        cc:a3:e7:b6:2f:9c:82:39:5a:db:0a:eb:3e:f9:11:54:e1:6d:
        a8:72:47:7f:aa:56:22:b8:0b:3a:88:23:6a:fb:49:3c:a1:c9:
        06:4d:6e:b7:b7:52:d7:a9:6f:1c:fb:26:94:15:dc:0a:cc:2e:
        00:89:fd:a7:2c:3d:3e:32:f2:89:ef:f0:d3:36:a2:7b:6d:35:
        28:1f:b3:f2:3c:a2:10:2f:a2:b3:6b:6c:32:73:97:aa:ce:fc:
        ef:75:b8:9a:83:2f:6a:9e:3f:cc:50:16:18:27:85:fe:bd:23:
        a7:e9:e4:b9:e2:12:c8:69:b3:cf:de:47:f0:58:23:a1:ad:e7:
        ba:0a:cd:a1:9b:88:f1:ee:3e:be:59:8b:90:13:ac:5c:ad:da:
        22:8b:77:ca:34:e0:09:d5:c2:42:92:2c:cd:07:66:15:aa:87:
        d9:80:c4:32:8b:7a:f4:3a:9c:60:4d:bc:6f:49:f2:6d:1e:55:
        9f:26:a7:32:59:76:c1:9b:ec:4e:98:b8:de:d8:57:81:56:f1:
        38:6b:00:4f:d0:9c:7d:45:a5:8c:48:d7:fc:ec:cb:04:49:0a:
        da:54:93:28:bb:6b:af:1d:8f:7a:60:99:00:0e:81:22:13:26:
        99:6b:d4:84
-----BEGIN CERTIFICATE-----
MIIDVzCCAj+gAwIBAgIRALqwMe3B+b9vPrW/xcySu2IwDQYJKoZIhvcNAQELBQAw
FDESMBAGA1UEAwwJdGVhbTUtbmV0MB4XDTIzMTEwMzIwMzkyMloXDTI2MTAxODIw
MzkyMlowFzEVMBMGA1UEAwwMdGVhbTUtY2xpZW50MIIBIjANBgkqhkiG9w0BAQEF
AAOCAQ8AMIIBCgKCAQEArzY9RuI+jOuW2V3YytrqhdOd7Z1SxfIiVvV3bRMcTWCN
DX5fveIS/iltwlRQF4r22tQqaDLjHCPHfcLpQHhzSpJI5u1XbpZyscLvWnE252gw
VMLFNMTpp2Yb6Eyo/OUaw9s7ZFXMOqhTJFcXnxIfMUBemZKtU3LstR8VGQP8PBms
R0iOqLYEyIaE7gUQZ3fxD35TaAAPbYwsA8JwLwi+6z1K99h71VLOCXZzjqQZrIyx
yTuWvRIv28Cj6tuhnsd6SusQsjciWUX/UAORd7ZdcZKvJuuCV/veJfpcpQUlEycH
rr5aHTWz7PlISfFr5BpCCXfiTMiEs/6Sv8NYuzxxdwIDAQABo4GgMIGdMAkGA1Ud
EwQCMAAwHQYDVR0OBBYEFI1sXJnib6aCfEOffdxwWG3yU+ptME8GA1UdIwRIMEaA
FP/VRnRD7928/CghnMjN2SMFWCCwoRikFjAUMRIwEAYDVQQDDAl0ZWFtNS1uZXSC
FHSELOyvLuUaglAuHELx2RLueaECMBMGA1UdJQQMMAoGCCsGAQUFBwMCMAsGA1Ud
DwQEAwIHgDANBgkqhkiG9w0BAQsFAAOCAQEAfFs3yZWx41EWhdmJuY7F42aAzKPn
ti+cgjla2wrrPvkRVOFtqHJHf6pWIrgLOogjavtJPKHJBk1ut7dS16lvHPsmlBXc
CswuAIn9pyw9PjLyie/w0zaie201KB+z8jyiEC+is2tsMnOXqs7873W4moMvap4/
zFAWGCeF/r0jp+nkueISyGmzz95H8Fgjoa3nugrNoZuI8e4+vlmLkBOsXK3aIot3
yjTgCdXCQpIszQdmFaqH2YDEMot69DqcYE28b0nybR5VnyanMll2wZvsTpi43thX
gVbxOGsAT9CcfUWljEjX/OzLBEkK2lSTKLtrrx2PemCZAA6BIhMmmWvUhA==
-----END CERTIFICATE-----
