Certificate:
    Data:
        Version: 3 (0x2)
        Serial Number:
            f8:90:48:9a:04:37:5f:66:bb:2c:8a:1c:5f:8c:e4:34
        Signature Algorithm: sha256WithRSAEncryption
        Issuer: CN=team5-net
        Validity
            Not Before: Nov  4 11:27:31 2023 GMT
            Not After : Oct 19 11:27:31 2026 GMT
        Subject: CN=team5-server
        Subject Public Key Info:
            Public Key Algorithm: rsaEncryption
                Public-Key: (2048 bit)
                Modulus:
                    00:b3:ee:bc:58:eb:3c:79:7e:6d:72:6e:5b:55:57:
                    86:40:2d:88:b2:96:90:8d:ff:74:5d:f6:69:87:e1:
                    3a:93:1f:17:6f:50:8d:2c:d1:03:36:80:df:02:0f:
                    c3:03:61:7e:f2:d5:ab:87:f2:9a:2a:74:cd:41:f4:
                    01:50:1f:63:d4:42:69:44:38:11:44:64:15:0f:dd:
                    aa:a8:76:b7:a9:a7:99:e0:5c:13:b1:63:19:e5:3c:
                    3d:d8:a3:24:7d:56:0b:bf:0c:a2:6b:34:18:f5:4a:
                    d9:a4:7e:88:cd:49:92:d6:37:ab:79:03:21:b8:5f:
                    f0:71:b5:d4:2d:77:88:7d:2c:71:56:8f:21:1c:e1:
                    38:85:26:70:18:b9:67:b8:d8:98:fe:87:a4:05:28:
                    67:40:95:c1:a6:05:b3:3f:fb:8e:6b:ec:98:7b:ea:
                    76:24:10:19:dd:ca:12:ab:ee:aa:cc:7b:d5:3e:9e:
                    1d:de:d1:cc:c5:8a:27:2d:3f:05:35:53:2f:ae:1f:
                    5d:c3:77:61:3f:d9:61:3f:d5:5f:aa:30:89:59:ae:
                    51:a6:07:3a:a2:49:0d:e0:b8:2f:8c:85:11:a0:09:
                    8e:e2:37:be:36:88:22:45:13:a6:8e:6f:07:8b:67:
                    8a:e0:38:71:7d:9e:3a:4b:a8:aa:95:17:ea:ff:aa:
                    96:99
                Exponent: 65537 (0x10001)
        X509v3 extensions:
            X509v3 Basic Constraints: 
                CA:FALSE
            X509v3 Subject Key Identifier: 
                1D:53:BC:A5:C6:B6:39:A8:35:2D:AD:CA:5A:57:19:38:96:48:C7:3E
            X509v3 Authority Key Identifier: 
                keyid:51:AB:8D:95:75:5A:F7:78:02:72:58:57:85:E6:94:06:66:CB:B8:29
                DirName:/CN=team5-net
                serial:4C:54:13:23:3B:E0:9F:75:00:F6:92:11:8F:CE:08:DB:BC:19:78:0E
            X509v3 Extended Key Usage: 
                TLS Web Server Authentication
            X509v3 Key Usage: 
                Digital Signature, Key Encipherment
            X509v3 Subject Alternative Name: 
                DNS:team5-server
    Signature Algorithm: sha256WithRSAEncryption
    Signature Value:
        9d:72:a6:d2:ea:d3:a0:76:d4:47:1c:73:c2:0b:95:aa:eb:06:
        83:8d:54:45:3f:04:4e:c8:9e:4a:cd:de:92:79:ff:36:64:8b:
        17:8d:aa:8a:0c:40:09:29:6c:50:08:da:61:e8:1c:96:65:49:
        dc:43:f7:43:30:27:07:63:aa:68:e9:72:20:0a:b4:a1:44:f1:
        4c:2e:04:e1:73:0a:e4:91:97:80:56:49:9e:74:ed:cf:ed:d4:
        54:e7:2b:be:1f:43:4a:14:ec:f4:bc:3f:ad:81:95:01:90:c8:
        7a:25:4b:16:9e:9d:da:8a:1c:18:4f:8b:4d:d3:b0:74:4e:15:
        37:03:1c:94:71:88:af:ce:6b:38:bd:d2:4b:dd:0a:53:55:4a:
        50:78:d5:79:c6:e9:29:ba:2c:e7:7c:7b:b0:b8:24:95:5a:25:
        ed:ef:32:4e:53:a9:ff:88:d3:48:3b:81:65:8e:3f:4b:f9:eb:
        4a:4a:1d:29:a1:90:12:34:ee:b6:a6:ac:2d:35:0b:09:3f:96:
        81:56:a4:45:b7:d1:92:c3:77:20:ce:0c:82:5f:f4:c2:2c:fa:
        b4:27:ef:93:4b:19:aa:1a:98:61:57:ab:9a:6c:26:fe:d8:d3:
        84:92:05:51:65:5a:d8:6e:87:45:0c:23:ee:42:09:55:ab:e3:
        4e:44:ad:3c
-----BEGIN CERTIFICATE-----
MIIDcDCCAligAwIBAgIRAPiQSJoEN19muyyKHF+M5DQwDQYJKoZIhvcNAQELBQAw
FDESMBAGA1UEAwwJdGVhbTUtbmV0MB4XDTIzMTEwNDExMjczMVoXDTI2MTAxOTEx
MjczMVowFzEVMBMGA1UEAwwMdGVhbTUtc2VydmVyMIIBIjANBgkqhkiG9w0BAQEF
AAOCAQ8AMIIBCgKCAQEAs+68WOs8eX5tcm5bVVeGQC2IspaQjf90XfZph+E6kx8X
b1CNLNEDNoDfAg/DA2F+8tWrh/KaKnTNQfQBUB9j1EJpRDgRRGQVD92qqHa3qaeZ
4FwTsWMZ5Tw92KMkfVYLvwyiazQY9UrZpH6IzUmS1jereQMhuF/wcbXULXeIfSxx
Vo8hHOE4hSZwGLlnuNiY/oekBShnQJXBpgWzP/uOa+yYe+p2JBAZ3coSq+6qzHvV
Pp4d3tHMxYonLT8FNVMvrh9dw3dhP9lhP9VfqjCJWa5Rpgc6okkN4LgvjIURoAmO
4je+NogiRROmjm8Hi2eK4DhxfZ46S6iqlRfq/6qWmQIDAQABo4G5MIG2MAkGA1Ud
EwQCMAAwHQYDVR0OBBYEFB1TvKXGtjmoNS2tylpXGTiWSMc+ME8GA1UdIwRIMEaA
FFGrjZV1Wvd4AnJYV4XmlAZmy7gpoRikFjAUMRIwEAYDVQQDDAl0ZWFtNS1uZXSC
FExUEyM74J91APaSEY/OCNu8GXgOMBMGA1UdJQQMMAoGCCsGAQUFBwMBMAsGA1Ud
DwQEAwIFoDAXBgNVHREEEDAOggx0ZWFtNS1zZXJ2ZXIwDQYJKoZIhvcNAQELBQAD
ggEBAJ1yptLq06B21Eccc8ILlarrBoONVEU/BE7InkrN3pJ5/zZkixeNqooMQAkp
bFAI2mHoHJZlSdxD90MwJwdjqmjpciAKtKFE8UwuBOFzCuSRl4BWSZ507c/t1FTn
K74fQ0oU7PS8P62BlQGQyHolSxaendqKHBhPi03TsHROFTcDHJRxiK/Oazi90kvd
ClNVSlB41XnG6Sm6LOd8e7C4JJVaJe3vMk5Tqf+I00g7gWWOP0v560pKHSmhkBI0
7ramrC01Cwk/loFWpEW30ZLDdyDODIJf9MIs+rQn75NLGaoamGFXq5psJv7Y04SS
BVFlWthuh0UMI+5CCVWr405ErTw=
-----END CERTIFICATE-----
