Certificate:
    Data:
        Version: 3 (0x2)
        Serial Number:
            75:7e:8e:33:33:10:f1:e0:e2:d5:2e:bf:1c:09:cd:e4
        Signature Algorithm: sha256WithRSAEncryption
        Issuer: CN=team447-net
        Validity
            Not Before: Nov  3 20:47:23 2023 GMT
            Not After : Oct 18 20:47:23 2026 GMT
        Subject: CN=team447-client
        Subject Public Key Info:
            Public Key Algorithm: rsaEncryption
                Public-Key: (2048 bit)
                Modulus:
                    00:91:b6:12:74:0c:da:7d:99:b5:4b:6b:45:21:ec:
                    ec:eb:20:a3:21:73:0a:21:2d:ce:58:b8:f2:97:96:
                    2e:f1:d4:5c:d3:ec:21:96:0c:0c:63:dc:18:6b:2e:
                    5d:ff:df:33:76:86:97:14:a8:9f:46:7b:bb:d6:e0:
                    85:ba:ec:a3:26:b1:14:a3:16:8c:1b:9c:5c:66:60:
                    89:1a:58:f0:3e:03:62:b6:b6:c2:d7:e1:16:75:a3:
                    b2:f9:68:30:70:04:f7:28:5c:92:65:29:04:9a:20:
                    61:b5:cd:db:a3:45:b3:f8:f8:57:b1:cd:b3:a0:88:
                    ab:89:d2:18:df:06:32:6f:04:3c:5f:16:15:f2:39:
                    eb:fe:06:2b:42:ab:af:d7:74:27:ae:79:d0:12:76:
                    78:97:61:d6:cd:e8:4b:75:62:a0:0e:39:bf:b8:3c:
                    24:9a:7d:61:ad:25:71:8d:24:b8:8d:ac:20:bc:f1:
                    c5:21:39:14:30:85:9c:01:3f:a0:5c:c8:b8:22:76:
                    68:04:1a:a6:82:cd:c0:55:a7:f4:71:b7:be:f2:f2:
                    d8:91:ad:72:1a:e1:08:30:7f:2a:cf:24:2c:b3:5d:
                    02:da:41:ef:4a:eb:27:c8:f6:48:d3:a0:c9:27:f4:
                    d8:5e:c6:fc:41:b4:bc:a4:98:58:68:24:27:33:6a:
                    62:3b
                Exponent: 65537 (0x10001)
        X509v3 extensions:
            X509v3 Basic Constraints: 
                CA:FALSE
            X509v3 Subject Key Identifier: 
                D5:C4:45:AE:F5:8A:7C:1D:F1:06:83:B0:FC:A5:F5:23:09:8D:D2:44
            X509v3 Authority Key Identifier: 
                keyid:8A:27:D0:C0:30:34:17:83:41:68:91:76:85:8D:D6:EE:59:D7:5D:6B
                DirName:/CN=team447-net
                serial:68:FC:12:41:5C:12:B3:A6:8A:4E:E6:D3:E7:2F:DA:0D:E4:29:86:11
            X509v3 Extended Key Usage: 
                TLS Web Client Authentication
            X509v3 Key Usage: 
                Digital Signature
    Signature Algorithm: sha256WithRSAEncryption
    Signature Value:
        3f:a5:0d:9f:bf:64:23:84:cd:9b:42:c6:2c:77:75:96:57:b2:
        05:58:d7:f6:59:4f:4d:ed:53:60:c7:dc:c2:f3:27:10:77:60:
        a0:f7:a3:b9:e0:ae:fc:68:06:21:c1:66:4e:0d:9e:38:b0:bd:
        60:11:58:41:30:2f:e7:b8:53:da:a0:c1:3d:f0:66:2d:e8:78:
        d5:2d:4c:dd:1e:36:3c:3c:ae:7c:98:26:94:25:37:fc:f0:66:
        a1:5d:1f:70:3b:42:70:ad:e1:f5:b7:12:df:a8:f1:07:e6:f5:
        c5:e6:23:22:70:41:d3:d6:ab:7a:ab:dc:e2:bb:64:43:db:c5:
        e3:5e:26:e0:92:95:0b:b2:81:9f:9b:9c:a2:f2:c1:a1:f2:78:
        73:1c:67:39:49:e5:9e:93:37:62:c5:9d:3f:9b:f5:9b:ad:8e:
        3d:d6:00:7e:85:70:97:37:1b:05:19:2d:84:25:13:19:72:72:
        0a:0f:1d:a3:43:bf:90:a9:8d:52:b1:db:d9:90:73:0f:dc:00:
        13:bb:93:a3:62:df:ee:fd:a0:35:a3:61:47:00:e1:a6:3a:be:
        9a:0d:45:8e:fd:18:ce:98:d5:22:07:64:6d:e7:f4:b8:f1:d5:
        59:ad:22:69:ff:55:c7:36:cf:fa:01:d2:a6:3c:ad:95:8e:09:
        16:fe:4f:0a
-----BEGIN CERTIFICATE-----
MIIDXDCCAkSgAwIBAgIQdX6OMzMQ8eDi1S6/HAnN5DANBgkqhkiG9w0BAQsFADAW
MRQwEgYDVQQDDAt0ZWFtNDQ3LW5ldDAeFw0yMzExMDMyMDQ3MjNaFw0yNjEwMTgy
MDQ3MjNaMBkxFzAVBgNVBAMMDnRlYW00NDctY2xpZW50MIIBIjANBgkqhkiG9w0B
AQEFAAOCAQ8AMIIBCgKCAQEAkbYSdAzafZm1S2tFIezs6yCjIXMKIS3OWLjyl5Yu
8dRc0+whlgwMY9wYay5d/98zdoaXFKifRnu71uCFuuyjJrEUoxaMG5xcZmCJGljw
PgNitrbC1+EWdaOy+WgwcAT3KFySZSkEmiBhtc3bo0Wz+PhXsc2zoIiridIY3wYy
bwQ8XxYV8jnr/gYrQquv13QnrnnQEnZ4l2HWzehLdWKgDjm/uDwkmn1hrSVxjSS4
jawgvPHFITkUMIWcAT+gXMi4InZoBBqmgs3AVaf0cbe+8vLYka1yGuEIMH8qzyQs
s10C2kHvSusnyPZI06DJJ/TYXsb8QbS8pJhYaCQnM2piOwIDAQABo4GiMIGfMAkG
A1UdEwQCMAAwHQYDVR0OBBYEFNXERa71inwd8QaDsPyl9SMJjdJEMFEGA1UdIwRK
MEiAFIon0MAwNBeDQWiRdoWN1u5Z111roRqkGDAWMRQwEgYDVQQDDAt0ZWFtNDQ3
LW5ldIIUaPwSQVwSs6aKTubT5y/aDeQphhEwEwYDVR0lBAwwCgYIKwYBBQUHAwIw
CwYDVR0PBAQDAgeAMA0GCSqGSIb3DQEBCwUAA4IBAQA/pQ2fv2QjhM2bQsYsd3WW
V7IFWNf2WU9N7VNgx9zC8ycQd2Cg96O54K78aAYhwWZODZ44sL1gEVhBMC/nuFPa
oME98GYt6HjVLUzdHjY8PK58mCaUJTf88GahXR9wO0JwreH1txLfqPEH5vXF5iMi
cEHT1qt6q9ziu2RD28XjXibgkpULsoGfm5yi8sGh8nhzHGc5SeWekzdixZ0/m/Wb
rY491gB+hXCXNxsFGS2EJRMZcnIKDx2jQ7+QqY1SsdvZkHMP3AATu5OjYt/u/aA1
o2FHAOGmOr6aDUWO/RjOmNUiB2Rt5/S48dVZrSJp/1XHNs/6AdKmPK2VjgkW/k8K
-----END CERTIFICATE-----
