Certificate:
    Data:
        Version: 3 (0x2)
        Serial Number:
            25:68:02:8d:ea:f2:c1:95:7b:9e:a6:c1:d8:eb:ca:d9
        Signature Algorithm: sha256WithRSAEncryption
        Issuer: CN=team245-net
        Validity
            Not Before: Nov  3 20:43:46 2023 GMT
            Not After : Oct 18 20:43:46 2026 GMT
        Subject: CN=team245-server
        Subject Public Key Info:
            Public Key Algorithm: rsaEncryption
                Public-Key: (2048 bit)
                Modulus:
                    00:b2:a5:f9:61:0d:40:ae:59:0b:06:99:70:09:e0:
                    3a:f7:11:ca:69:86:31:69:b7:93:a1:13:4e:53:98:
                    4c:19:fe:44:5d:6a:3b:bc:bf:00:89:44:84:ef:78:
                    0f:da:ea:6e:a7:02:eb:40:2e:c1:8b:cd:bd:4f:3f:
                    5d:7a:26:01:8e:3f:62:f4:c2:df:e9:cb:cf:e3:4c:
                    23:62:59:b4:a7:45:6c:4e:99:ef:b2:27:b6:a2:86:
                    00:64:25:cc:1a:5b:39:2f:f1:ab:95:1f:2e:4f:e5:
                    51:65:44:07:b2:bb:5d:d1:f4:0e:3a:39:04:e4:da:
                    ad:f4:d8:41:48:2b:95:c9:6e:53:b0:0d:9d:65:d4:
                    fb:58:e9:77:57:de:4f:76:10:a7:63:f0:f9:df:15:
                    4b:74:cc:aa:0f:cd:17:42:e1:bb:ba:47:06:61:1c:
                    d6:6f:76:03:06:22:d1:d8:f2:69:03:74:7a:ca:72:
                    d5:b5:42:a3:47:10:c7:ed:5d:1c:bc:30:ef:2c:95:
                    12:eb:8d:3c:5b:e2:95:1c:b9:67:72:ca:d9:51:3b:
                    34:97:fe:5c:97:36:4c:9a:a3:5d:cb:ef:56:3c:29:
                    55:16:15:c0:0f:ac:ee:9e:9d:f6:4c:1e:e3:a3:b5:
                    78:ab:53:a1:3a:a4:4a:e7:9b:f0:89:43:72:43:2c:
                    16:39
                Exponent: 65537 (0x10001)
        X509v3 extensions:
            X509v3 Basic Constraints: 
                CA:FALSE
            X509v3 Subject Key Identifier: 
                90:03:B6:DB:7C:E1:0F:F4:36:56:FD:77:C6:49:EF:11:B8:F5:8A:36
            X509v3 Authority Key Identifier: 
                keyid:24:9B:FF:55:4E:F2:32:47:7E:66:1C:A1:FD:BF:6F:48:C5:17:6A:55
                DirName:/CN=team245-net
                serial:0B:94:D6:15:37:04:DB:68:81:8D:5E:BE:AB:8C:A0:1D:8E:28:1D:4A
            X509v3 Extended Key Usage: 
                TLS Web Server Authentication
            X509v3 Key Usage: 
                Digital Signature, Key Encipherment
            X509v3 Subject Alternative Name: 
                DNS:team245-server
    Signature Algorithm: sha256WithRSAEncryption
    Signature Value:
        67:9b:9c:64:0a:d1:89:92:9c:2f:84:84:5c:58:30:7a:b8:58:
        f4:c0:1f:05:e5:61:a6:22:c3:d1:8a:4d:7d:fa:42:c8:1a:63:
        9b:4b:98:c6:26:e0:8d:4b:9b:a5:ef:f7:61:29:d5:67:5e:87:
        9a:57:fc:f3:d0:33:d4:c6:c9:1f:c3:7e:32:56:1d:6b:dd:32:
        b5:c6:61:b4:19:4f:58:86:39:3e:04:60:4a:e4:c8:de:11:70:
        95:c8:1f:63:49:c6:1a:be:d9:c8:26:21:37:98:e0:71:f3:f4:
        8b:d7:98:bc:a5:94:d4:28:9b:35:a1:b1:0f:9a:6e:69:56:41:
        33:f2:58:36:87:2f:7b:f0:b3:b6:95:8f:a3:0f:34:e9:83:eb:
        61:fb:62:ef:c1:a1:30:6b:58:34:49:26:d5:10:54:f1:bc:fc:
        25:90:c2:78:6e:a2:73:3a:59:49:27:6b:6e:ae:ec:d8:18:d8:
        ee:8a:00:db:fa:ec:41:b2:d8:56:4b:40:1a:28:3a:ec:47:dd:
        86:34:0a:c2:a3:37:e6:f3:46:66:d9:14:5d:5b:84:68:40:37:
        da:13:21:00:81:02:98:a2:79:0f:0d:32:5b:13:90:30:29:ae:
        fd:26:49:43:ea:64:c3:8b:0f:20:cd:44:75:40:34:91:2c:55:
        77:e3:52:c2
-----BEGIN CERTIFICATE-----
MIIDdzCCAl+gAwIBAgIQJWgCjerywZV7nqbB2OvK2TANBgkqhkiG9w0BAQsFADAW
MRQwEgYDVQQDDAt0ZWFtMjQ1LW5ldDAeFw0yMzExMDMyMDQzNDZaFw0yNjEwMTgy
MDQzNDZaMBkxFzAVBgNVBAMMDnRlYW0yNDUtc2VydmVyMIIBIjANBgkqhkiG9w0B
AQEFAAOCAQ8AMIIBCgKCAQEAsqX5YQ1ArlkLBplwCeA69xHKaYYxabeToRNOU5hM
Gf5EXWo7vL8AiUSE73gP2upupwLrQC7Bi829Tz9deiYBjj9i9MLf6cvP40wjYlm0
p0VsTpnvsie2ooYAZCXMGls5L/GrlR8uT+VRZUQHsrtd0fQOOjkE5Nqt9NhBSCuV
yW5TsA2dZdT7WOl3V95PdhCnY/D53xVLdMyqD80XQuG7ukcGYRzWb3YDBiLR2PJp
A3R6ynLVtUKjRxDH7V0cvDDvLJUS6408W+KVHLlncsrZUTs0l/5clzZMmqNdy+9W
PClVFhXAD6zunp32TB7jo7V4q1OhOqRK55vwiUNyQywWOQIDAQABo4G9MIG6MAkG
A1UdEwQCMAAwHQYDVR0OBBYEFJADttt84Q/0Nlb9d8ZJ7xG49Yo2MFEGA1UdIwRK
MEiAFCSb/1VO8jJHfmYcof2/b0jFF2pVoRqkGDAWMRQwEgYDVQQDDAt0ZWFtMjQ1
LW5ldIIUC5TWFTcE22iBjV6+q4ygHY4oHUowEwYDVR0lBAwwCgYIKwYBBQUHAwEw
CwYDVR0PBAQDAgWgMBkGA1UdEQQSMBCCDnRlYW0yNDUtc2VydmVyMA0GCSqGSIb3
DQEBCwUAA4IBAQBnm5xkCtGJkpwvhIRcWDB6uFj0wB8F5WGmIsPRik19+kLIGmOb
S5jGJuCNS5ul7/dhKdVnXoeaV/zz0DPUxskfw34yVh1r3TK1xmG0GU9Yhjk+BGBK
5MjeEXCVyB9jScYavtnIJiE3mOBx8/SL15i8pZTUKJs1obEPmm5pVkEz8lg2hy97
8LO2lY+jDzTpg+th+2LvwaEwa1g0SSbVEFTxvPwlkMJ4bqJzOllJJ2turuzYGNju
igDb+uxBsthWS0AaKDrsR92GNArCozfm80Zm2RRdW4RoQDfaEyEAgQKYonkPDTJb
E5AwKa79JklD6mTDiw8gzUR1QDSRLFV341LC
-----END CERTIFICATE-----
