Certificate:
    Data:
        Version: 3 (0x2)
        Serial Number:
            97:4f:b8:1a:6c:57:e5:5c:aa:6c:ff:14:f9:e4:ea:e4
        Signature Algorithm: sha256WithRSAEncryption
        Issuer: CN=team18-net
        Validity
            Not Before: Oct 31 16:30:29 2023 GMT
            Not After : Oct 15 16:30:29 2026 GMT
        Subject: CN=team18-client
        Subject Public Key Info:
            Public Key Algorithm: rsaEncryption
                Public-Key: (2048 bit)
                Modulus:
                    00:a9:3e:21:76:dc:e8:1a:e3:7b:b2:70:a1:1a:9e:
                    e4:f7:e4:25:50:d5:48:05:f0:2b:ba:ac:08:cf:ae:
                    86:3b:b6:48:7f:ce:30:c1:28:8e:ea:70:5f:b5:91:
                    7e:b0:b3:cf:c4:54:c3:2c:6c:23:41:a8:b2:ff:88:
                    ea:1d:cd:cc:b2:4d:d9:69:0f:e2:b2:6e:7c:d0:a1:
                    00:19:e1:5a:df:45:42:ab:34:db:eb:96:33:ab:9d:
                    86:b6:cc:dd:c5:74:57:6c:04:2d:af:58:ee:f9:30:
                    63:3c:a6:92:68:e5:b7:78:79:e0:c2:c4:2b:7c:b5:
                    dd:97:16:b5:36:6e:f0:24:15:55:48:96:83:6e:e9:
                    ef:d3:bd:35:f1:af:9b:97:61:b8:c8:63:c5:40:88:
                    4b:c8:e6:79:9b:0c:68:2e:77:9e:66:9d:1c:06:49:
                    67:b6:0d:7a:f7:bd:13:89:f6:a6:93:67:f9:ce:a3:
                    e8:f2:c7:19:e1:16:7d:40:cb:5a:c9:44:55:f0:dc:
                    f0:73:2e:28:54:7c:b1:09:c2:09:8a:f4:10:e4:86:
                    56:57:57:60:56:0a:fe:a6:20:2e:69:b6:bc:78:07:
                    cb:f5:d4:60:00:c7:16:74:be:7e:6e:68:b1:a4:8a:
                    b7:20:ad:d9:be:23:d4:df:33:0e:ef:84:d5:17:de:
                    7f:ab
                Exponent: 65537 (0x10001)
        X509v3 extensions:
            X509v3 Basic Constraints: 
                CA:FALSE
            X509v3 Subject Key Identifier: 
                20:9A:94:20:5D:E7:95:EC:1F:4F:01:18:A0:C4:B3:F4:EE:A4:B9:54
            X509v3 Authority Key Identifier: 
                keyid:21:15:7F:9C:83:B4:83:14:6A:38:A4:03:3A:CD:D8:52:BC:5D:96:37
                DirName:/CN=team18-net
                serial:73:52:9A:12:6A:26:ED:1F:59:23:BF:FB:B2:2E:84:28:95:A2:7A:AD
            X509v3 Extended Key Usage: 
                TLS Web Client Authentication
            X509v3 Key Usage: 
                Digital Signature
    Signature Algorithm: sha256WithRSAEncryption
    Signature Value:
        97:0a:0a:76:00:a5:b3:e3:f0:44:b5:14:ff:70:74:50:90:e9:
        35:60:e6:b7:91:f9:ff:61:71:6a:dd:8e:42:38:79:ef:ac:a1:
        a9:02:2e:31:91:5b:4f:20:80:5d:1e:15:1d:d8:cd:1c:88:ef:
        03:10:bb:34:50:fc:f5:56:d8:fc:29:97:3b:ec:22:c0:76:2e:
        5e:d7:64:c6:80:35:94:fe:bf:e1:d3:4b:fd:1e:16:f7:62:2b:
        dd:9a:f9:49:c8:c5:53:68:5b:34:3f:ba:33:6f:09:36:68:e9:
        e2:a0:30:33:3f:06:ca:a7:5a:82:38:31:6f:39:31:f6:2a:97:
        94:6b:1c:d5:6d:d8:e3:5d:a2:ef:6e:ab:88:90:e0:03:9e:04:
        0f:0f:10:1b:c5:f3:53:c8:d7:18:be:f3:0a:58:94:58:c4:44:
        a1:c0:d1:94:4a:57:b8:c4:90:66:18:b2:31:4e:62:d4:62:c3:
        f3:11:95:8b:31:c3:c7:1d:15:b0:f6:65:2a:f9:50:cb:a7:04:
        c3:02:4b:71:ad:25:f9:47:cd:ed:82:68:25:ff:3c:ff:16:2b:
        52:5c:4e:31:86:63:88:0e:a1:15:77:0c:e4:42:8f:e6:cb:a6:
        ce:d5:45:83:67:be:b9:6a:98:5c:eb:9e:e1:4b:90:53:62:41:
        61:30:53:1d
-----BEGIN CERTIFICATE-----
MIIDWjCCAkKgAwIBAgIRAJdPuBpsV+Vcqmz/FPnk6uQwDQYJKoZIhvcNAQELBQAw
FTETMBEGA1UEAwwKdGVhbTE4LW5ldDAeFw0yMzEwMzExNjMwMjlaFw0yNjEwMTUx
NjMwMjlaMBgxFjAUBgNVBAMMDXRlYW0xOC1jbGllbnQwggEiMA0GCSqGSIb3DQEB
AQUAA4IBDwAwggEKAoIBAQCpPiF23Oga43uycKEanuT35CVQ1UgF8Cu6rAjProY7
tkh/zjDBKI7qcF+1kX6ws8/EVMMsbCNBqLL/iOodzcyyTdlpD+KybnzQoQAZ4Vrf
RUKrNNvrljOrnYa2zN3FdFdsBC2vWO75MGM8ppJo5bd4eeDCxCt8td2XFrU2bvAk
FVVIloNu6e/TvTXxr5uXYbjIY8VAiEvI5nmbDGgud55mnRwGSWe2DXr3vROJ9qaT
Z/nOo+jyxxnhFn1Ay1rJRFXw3PBzLihUfLEJwgmK9BDkhlZXV2BWCv6mIC5ptrx4
B8v11GAAxxZ0vn5uaLGkircgrdm+I9TfMw7vhNUX3n+rAgMBAAGjgaEwgZ4wCQYD
VR0TBAIwADAdBgNVHQ4EFgQUIJqUIF3nlewfTwEYoMSz9O6kuVQwUAYDVR0jBEkw
R4AUIRV/nIO0gxRqOKQDOs3YUrxdljehGaQXMBUxEzARBgNVBAMMCnRlYW0xOC1u
ZXSCFHNSmhJqJu0fWSO/+7IuhCiVonqtMBMGA1UdJQQMMAoGCCsGAQUFBwMCMAsG
A1UdDwQEAwIHgDANBgkqhkiG9w0BAQsFAAOCAQEAlwoKdgCls+PwRLUU/3B0UJDp
NWDmt5H5/2Fxat2OQjh576yhqQIuMZFbTyCAXR4VHdjNHIjvAxC7NFD89VbY/CmX
O+wiwHYuXtdkxoA1lP6/4dNL/R4W92Ir3Zr5ScjFU2hbND+6M28JNmjp4qAwMz8G
yqdagjgxbzkx9iqXlGsc1W3Y412i726riJDgA54EDw8QG8XzU8jXGL7zCliUWMRE
ocDRlEpXuMSQZhiyMU5i1GLD8xGVizHDxx0VsPZlKvlQy6cEwwJLca0l+UfN7YJo
Jf88/xYrUlxOMYZjiA6hFXcM5EKP5sumztVFg2e+uWqYXOue4UuQU2JBYTBTHQ==
-----END CERTIFICATE-----
