Certificate:
    Data:
        Version: 3 (0x2)
        Serial Number:
            46:55:74:a3:e3:8f:99:cd:39:1f:5d:87:e2:ba:f8:68
        Signature Algorithm: sha256WithRSAEncryption
        Issuer: CN=team459-net
        Validity
            Not Before: Nov  4 11:37:50 2023 GMT
            Not After : Oct 19 11:37:50 2026 GMT
        Subject: CN=team459-server
        Subject Public Key Info:
            Public Key Algorithm: rsaEncryption
                Public-Key: (2048 bit)
                Modulus:
                    00:8c:3a:39:23:4e:b6:6f:2a:91:d0:2b:1b:5a:11:
                    26:fb:b4:e4:00:39:dc:cf:98:b5:4a:d9:d1:bf:2b:
                    84:8d:f0:0c:b1:1b:d5:ba:8b:fc:e6:dd:87:06:43:
                    bb:a2:3b:00:0f:c8:a7:cd:a5:84:04:ec:e9:f8:9f:
                    8c:4e:80:7a:40:c6:60:49:21:6e:16:62:ce:19:aa:
                    5a:32:9c:74:17:9c:73:52:2d:10:e5:82:b1:05:88:
                    47:23:f8:80:8e:75:e6:df:d7:0b:5a:31:3a:4f:02:
                    8e:d1:a8:23:38:ef:63:91:4b:b1:2a:3e:75:d5:5b:
                    e8:39:c2:e7:34:73:5e:ba:c9:51:62:69:2b:ba:6f:
                    71:d6:09:27:de:e2:1d:ac:0c:5f:39:1a:ca:ad:cf:
                    ec:ab:74:45:98:ce:20:ff:4e:33:8e:56:59:d8:d7:
                    b5:93:3f:74:bf:5f:a4:1d:6b:b8:99:8c:25:46:be:
                    1c:6c:1c:ad:b2:c0:fa:5e:1f:ca:1e:50:49:ea:ed:
                    5c:89:38:3a:d8:89:3b:bb:29:6a:72:ea:54:ca:de:
                    16:19:19:b3:a0:ef:70:10:02:e7:1d:34:e8:ef:49:
                    60:5d:85:dc:aa:a0:42:f9:01:fb:93:08:c5:81:af:
                    22:c9:b3:16:99:38:ad:c1:72:04:bd:23:a4:aa:a9:
                    81:c5
                Exponent: 65537 (0x10001)
        X509v3 extensions:
            X509v3 Basic Constraints: 
                CA:FALSE
            X509v3 Subject Key Identifier: 
                5E:B4:C0:B5:E8:80:F0:51:58:EB:1B:4F:0A:05:26:FC:8F:A0:28:4A
            X509v3 Authority Key Identifier: 
                keyid:98:8A:36:1C:37:54:B6:4F:BD:46:D1:09:0D:37:77:31:43:88:BC:DA
                DirName:/CN=team459-net
                serial:51:56:97:5C:FD:D9:92:A4:E1:BD:5C:02:F9:6D:BA:9F:AA:D3:13:4C
            X509v3 Extended Key Usage: 
                TLS Web Server Authentication
            X509v3 Key Usage: 
                Digital Signature, Key Encipherment
            X509v3 Subject Alternative Name: 
                DNS:team459-server
    Signature Algorithm: sha256WithRSAEncryption
    Signature Value:
        34:aa:ff:98:4e:7c:8b:64:3a:a8:88:ea:80:5b:39:4e:4d:c9:
        ba:c7:1a:7a:71:ba:62:30:29:30:c3:85:da:d0:64:2c:9b:91:
        ba:44:7f:45:0c:18:8d:6f:14:0e:53:02:28:4b:15:e1:e9:4f:
        91:c9:3e:70:8c:df:97:4b:f5:1a:ab:04:5f:14:9a:99:15:16:
        cc:34:5e:27:cc:53:95:cd:21:f7:1f:36:6f:da:35:f4:77:a9:
        0a:d2:35:56:15:6d:a4:d0:fe:60:a8:2b:35:b0:c5:e4:aa:02:
        36:0c:48:9f:78:ce:d2:d3:a5:52:9f:8a:5d:6e:b0:9c:92:82:
        e6:a4:09:b9:46:cc:05:22:4e:fb:a6:09:25:50:88:77:3b:95:
        09:5a:07:85:fb:74:47:aa:ff:06:6a:7c:f7:0f:5f:68:01:08:
        6f:17:3a:29:7b:e5:bf:b7:45:4d:5c:91:92:56:25:51:ed:85:
        b4:c7:a4:d6:34:71:0b:e7:1c:5b:f6:d7:04:ff:81:9e:98:bc:
        ae:df:52:b7:f2:b1:b5:ce:d9:2a:59:92:4e:9e:3c:3f:17:13:
        e3:87:6f:04:5c:a6:e3:61:d9:87:c4:8c:11:20:71:0a:c7:85:
        60:2c:5e:20:7a:74:91:0e:63:66:46:d6:f1:ef:b7:a3:22:04:
        69:47:41:92
-----BEGIN CERTIFICATE-----
MIIDdzCCAl+gAwIBAgIQRlV0o+OPmc05H12H4rr4aDANBgkqhkiG9w0BAQsFADAW
MRQwEgYDVQQDDAt0ZWFtNDU5LW5ldDAeFw0yMzExMDQxMTM3NTBaFw0yNjEwMTkx
MTM3NTBaMBkxFzAVBgNVBAMMDnRlYW00NTktc2VydmVyMIIBIjANBgkqhkiG9w0B
AQEFAAOCAQ8AMIIBCgKCAQEAjDo5I062byqR0CsbWhEm+7TkADncz5i1StnRvyuE
jfAMsRvVuov85t2HBkO7ojsAD8inzaWEBOzp+J+MToB6QMZgSSFuFmLOGapaMpx0
F5xzUi0Q5YKxBYhHI/iAjnXm39cLWjE6TwKO0agjOO9jkUuxKj511VvoOcLnNHNe
uslRYmkrum9x1gkn3uIdrAxfORrKrc/sq3RFmM4g/04zjlZZ2Ne1kz90v1+kHWu4
mYwlRr4cbBytssD6Xh/KHlBJ6u1ciTg62Ik7uylqcupUyt4WGRmzoO9wEALnHTTo
70lgXYXcqqBC+QH7kwjFga8iybMWmTitwXIEvSOkqqmBxQIDAQABo4G9MIG6MAkG
A1UdEwQCMAAwHQYDVR0OBBYEFF60wLXogPBRWOsbTwoFJvyPoChKMFEGA1UdIwRK
MEiAFJiKNhw3VLZPvUbRCQ03dzFDiLzaoRqkGDAWMRQwEgYDVQQDDAt0ZWFtNDU5
LW5ldIIUUVaXXP3ZkqThvVwC+W26n6rTE0wwEwYDVR0lBAwwCgYIKwYBBQUHAwEw
CwYDVR0PBAQDAgWgMBkGA1UdEQQSMBCCDnRlYW00NTktc2VydmVyMA0GCSqGSIb3
DQEBCwUAA4IBAQA0qv+YTnyLZDqoiOqAWzlOTcm6xxp6cbpiMCkww4Xa0GQsm5G6
RH9FDBiNbxQOUwIoSxXh6U+RyT5wjN+XS/UaqwRfFJqZFRbMNF4nzFOVzSH3HzZv
2jX0d6kK0jVWFW2k0P5gqCs1sMXkqgI2DEifeM7S06VSn4pdbrCckoLmpAm5RswF
Ik77pgklUIh3O5UJWgeF+3RHqv8Ganz3D19oAQhvFzope+W/t0VNXJGSViVR7YW0
x6TWNHEL5xxb9tcE/4GemLyu31K38rG1ztkqWZJOnjw/FxPjh28EXKbjYdmHxIwR
IHEKx4VgLF4genSRDmNmRtbx77ejIgRpR0GS
-----END CERTIFICATE-----
