Certificate:
    Data:
        Version: 3 (0x2)
        Serial Number:
            73:d7:b2:2b:18:2c:9b:6a:6d:bf:8e:e5:ee:bb:3f:e4
        Signature Algorithm: sha256WithRSAEncryption
        Issuer: CN=team459-net
        Validity
            Not Before: Nov  4 10:48:47 2023 GMT
            Not After : Oct 19 10:48:47 2026 GMT
        Subject: CN=team459-server
        Subject Public Key Info:
            Public Key Algorithm: rsaEncryption
                Public-Key: (2048 bit)
                Modulus:
                    00:c2:c6:f4:79:89:2c:90:88:11:b0:08:bc:dc:3a:
                    e4:19:d5:2b:23:e8:c1:ca:2a:1e:e3:c5:24:ab:cd:
                    43:87:3e:95:5e:d8:9d:2e:c0:19:44:7f:2c:64:a6:
                    10:39:e0:4e:fa:ab:87:d6:07:10:e3:f1:bc:1c:d2:
                    61:a3:17:bb:47:d4:26:93:49:c0:9a:e9:f6:93:be:
                    79:76:ff:b8:87:d7:16:a1:ba:c5:5a:45:f1:56:e3:
                    6e:41:51:ca:1e:00:ec:7c:2e:b4:4b:2b:21:85:82:
                    10:2a:10:9d:cf:ec:b9:e0:3a:cd:73:42:cb:e3:6c:
                    85:f5:cd:d7:c4:99:33:aa:04:e0:96:a6:36:e5:ea:
                    42:a2:20:67:75:c1:30:1d:36:56:c9:b7:da:ef:74:
                    c0:17:6b:42:90:cc:0c:32:2a:7e:c2:8a:b4:5f:67:
                    88:42:ed:ab:9b:d0:f2:db:24:ec:3b:7b:28:88:f5:
                    48:6e:a1:34:e1:82:4f:44:20:7a:60:d6:2d:d7:c1:
                    a4:39:09:da:f2:6a:ab:67:ea:63:e2:68:bf:9a:50:
                    ed:e1:fb:f7:f8:e4:6a:cd:01:1c:e7:97:4d:79:e7:
                    4a:77:a8:ac:e1:28:53:72:ac:cf:c4:61:77:64:83:
                    fb:62:91:20:04:ee:c0:ae:ee:c4:fe:bd:3e:05:79:
                    1f:c1
                Exponent: 65537 (0x10001)
        X509v3 extensions:
            X509v3 Basic Constraints: 
                CA:FALSE
            X509v3 Subject Key Identifier: 
                D2:0C:A6:C4:01:22:07:52:4D:A6:32:31:27:DB:9F:A9:0A:88:C5:7F
            X509v3 Authority Key Identifier: 
                keyid:1D:BD:EA:B2:BB:CF:2C:8C:23:A9:22:91:C7:2E:D7:59:B5:0E:42:CD
                DirName:/CN=team459-net
                serial:01:19:BD:E8:17:34:34:5A:4D:F9:FA:36:68:0F:B3:29:FD:59:B8:FC
            X509v3 Extended Key Usage: 
                TLS Web Server Authentication
            X509v3 Key Usage: 
                Digital Signature, Key Encipherment
            X509v3 Subject Alternative Name: 
                DNS:team459-server
    Signature Algorithm: sha256WithRSAEncryption
    Signature Value:
        01:ef:21:17:24:0f:dd:a1:d9:51:5b:50:20:b7:a8:cb:f5:22:
        b7:a5:e1:7f:76:83:e1:c1:3e:00:ef:60:90:33:67:3d:6d:bc:
        c9:db:67:b0:68:a5:f5:92:5c:e9:aa:d5:94:35:80:c4:e7:0f:
        7e:eb:da:a6:20:cd:b9:11:9b:89:4e:fb:fd:76:1f:b3:e2:be:
        e1:db:9b:7b:34:79:33:e7:6d:3b:21:9e:0a:34:39:36:6c:30:
        3c:56:ed:2d:3d:d9:74:e1:15:dd:14:fb:ac:65:47:e5:93:5a:
        be:1c:a8:e5:9a:e3:eb:56:4c:96:0f:f6:9e:e0:9a:8e:85:30:
        7d:0e:93:d8:36:8c:2e:12:e1:0c:22:f0:a5:d9:49:ed:25:67:
        1d:d5:21:b0:99:7e:68:bb:bb:24:db:59:02:f6:bb:64:f0:11:
        e8:fa:d4:92:f3:fd:0c:ee:01:3d:1e:db:1b:ce:ad:09:63:7d:
        64:74:65:82:7f:e5:2d:47:4a:a4:00:32:de:d1:ba:2b:58:1f:
        fa:5b:9b:a2:bd:57:ef:1b:9c:56:bb:2a:17:c1:b4:69:68:58:
        da:29:2d:c0:91:d6:31:d1:17:60:30:21:23:03:d9:0e:7b:b7:
        a3:7f:85:29:cc:37:9c:16:fd:9b:f7:24:bf:cf:c2:da:47:1a:
        d9:b2:a9:74
-----BEGIN CERTIFICATE-----
MIIDdzCCAl+gAwIBAgIQc9eyKxgsm2ptv47l7rs/5DANBgkqhkiG9w0BAQsFADAW
MRQwEgYDVQQDDAt0ZWFtNDU5LW5ldDAeFw0yMzExMDQxMDQ4NDdaFw0yNjEwMTkx
MDQ4NDdaMBkxFzAVBgNVBAMMDnRlYW00NTktc2VydmVyMIIBIjANBgkqhkiG9w0B
AQEFAAOCAQ8AMIIBCgKCAQEAwsb0eYkskIgRsAi83DrkGdUrI+jByioe48Ukq81D
hz6VXtidLsAZRH8sZKYQOeBO+quH1gcQ4/G8HNJhoxe7R9Qmk0nAmun2k755dv+4
h9cWobrFWkXxVuNuQVHKHgDsfC60SyshhYIQKhCdz+y54DrNc0LL42yF9c3XxJkz
qgTglqY25epCoiBndcEwHTZWybfa73TAF2tCkMwMMip+woq0X2eIQu2rm9Dy2yTs
O3soiPVIbqE04YJPRCB6YNYt18GkOQna8mqrZ+pj4mi/mlDt4fv3+ORqzQEc55dN
eedKd6is4ShTcqzPxGF3ZIP7YpEgBO7Aru7E/r0+BXkfwQIDAQABo4G9MIG6MAkG
A1UdEwQCMAAwHQYDVR0OBBYEFNIMpsQBIgdSTaYyMSfbn6kKiMV/MFEGA1UdIwRK
MEiAFB296rK7zyyMI6kikccu11m1DkLNoRqkGDAWMRQwEgYDVQQDDAt0ZWFtNDU5
LW5ldIIUARm96Bc0NFpN+fo2aA+zKf1ZuPwwEwYDVR0lBAwwCgYIKwYBBQUHAwEw
CwYDVR0PBAQDAgWgMBkGA1UdEQQSMBCCDnRlYW00NTktc2VydmVyMA0GCSqGSIb3
DQEBCwUAA4IBAQAB7yEXJA/dodlRW1Agt6jL9SK3peF/doPhwT4A72CQM2c9bbzJ
22ewaKX1klzpqtWUNYDE5w9+69qmIM25EZuJTvv9dh+z4r7h25t7NHkz5207IZ4K
NDk2bDA8Vu0tPdl04RXdFPusZUflk1q+HKjlmuPrVkyWD/ae4JqOhTB9DpPYNowu
EuEMIvCl2UntJWcd1SGwmX5ou7sk21kC9rtk8BHo+tSS8/0M7gE9Htsbzq0JY31k
dGWCf+UtR0qkADLe0borWB/6W5uivVfvG5xWuyoXwbRpaFjaKS3AkdYx0RdgMCEj
A9kOe7ejf4UpzDecFv2b9yS/z8LaRxrZsql0
-----END CERTIFICATE-----
