Certificate:
    Data:
        Version: 3 (0x2)
        Serial Number:
            c3:d2:8a:79:ac:21:cf:06:0c:0d:f6:68:07:d2:ce:e4
        Signature Algorithm: sha256WithRSAEncryption
        Issuer: CN=team459-net
        Validity
            Not Before: Nov  4 11:37:49 2023 GMT
            Not After : Oct 19 11:37:49 2026 GMT
        Subject: CN=team459-client
        Subject Public Key Info:
            Public Key Algorithm: rsaEncryption
                Public-Key: (2048 bit)
                Modulus:
                    00:c0:57:79:e0:e7:2c:7a:15:08:ec:f4:e5:69:4b:
                    aa:5d:e9:6a:71:64:29:11:12:fe:ae:bf:77:ae:7d:
                    9a:c3:6a:d1:0d:d6:c0:58:13:ba:82:52:30:4d:d0:
                    f9:21:1a:b1:cf:49:df:a5:8b:19:ba:17:4c:ab:a9:
                    7a:aa:60:8c:62:bc:c6:51:99:b8:57:af:b6:a1:56:
                    1a:ff:31:4e:bf:af:0f:52:a4:97:73:7f:c8:4c:e6:
                    6d:c0:25:fe:88:69:fa:df:6b:b7:d2:98:d3:da:39:
                    4e:ee:9f:6c:a1:93:83:c6:7b:cd:fc:d1:6e:53:46:
                    a2:e4:c4:50:49:86:c5:f9:7d:e9:8c:19:a2:19:9c:
                    41:7f:87:11:a3:61:16:60:5d:1c:a4:fa:dc:d0:aa:
                    84:6e:54:0b:3e:9b:92:74:80:57:ae:f1:99:94:73:
                    25:87:7a:e7:e5:e9:35:d7:a4:75:1e:b9:87:33:b0:
                    08:2a:cc:d8:d3:eb:ae:ff:9c:c1:8d:ea:be:6f:63:
                    37:30:21:97:94:f1:a2:ac:b8:c5:84:1c:6f:f2:83:
                    bc:75:f6:b1:b0:7b:ca:19:82:55:95:88:63:9e:8a:
                    55:d1:03:06:c3:84:5a:4a:0a:d5:37:1b:a0:df:e4:
                    1f:83:cc:42:c9:84:b3:a1:80:0f:97:14:e7:3c:b8:
                    41:23
                Exponent: 65537 (0x10001)
        X509v3 extensions:
            X509v3 Basic Constraints: 
                CA:FALSE
            X509v3 Subject Key Identifier: 
                A6:95:8B:8C:F2:21:E3:38:D6:DD:49:22:98:0B:BE:61:ED:01:72:C7
            X509v3 Authority Key Identifier: 
                keyid:98:8A:36:1C:37:54:B6:4F:BD:46:D1:09:0D:37:77:31:43:88:BC:DA
                DirName:/CN=team459-net
                serial:51:56:97:5C:FD:D9:92:A4:E1:BD:5C:02:F9:6D:BA:9F:AA:D3:13:4C
            X509v3 Extended Key Usage: 
                TLS Web Client Authentication
            X509v3 Key Usage: 
                Digital Signature
    Signature Algorithm: sha256WithRSAEncryption
    Signature Value:
        21:5f:ba:c1:d3:4f:11:79:04:05:57:d5:21:6a:62:e0:d8:e1:
        d8:d1:57:63:5e:d6:25:92:bc:03:56:dc:77:a2:ce:6f:87:26:
        3d:04:a0:63:15:9b:d6:38:b9:e4:26:d9:c8:98:14:0a:7e:78:
        8b:c8:78:2d:6a:72:72:ed:ab:80:5e:c5:6c:bd:ce:35:d6:76:
        43:90:d7:9e:cb:b4:a2:95:e7:0f:9c:14:2b:52:cf:59:0d:8a:
        a4:a5:53:eb:1a:a8:20:ed:40:82:e0:3a:cd:fc:f0:3a:53:70:
        11:fa:59:f7:59:f9:ee:05:40:bb:8a:c7:56:50:fc:12:0c:96:
        10:dd:2f:e4:ba:66:4d:d1:d9:5a:a9:f3:14:ac:ba:ca:df:2c:
        3f:4d:b6:98:e6:4e:ea:65:67:38:ff:9a:f2:68:a0:57:7f:d3:
        ca:ba:76:aa:ee:7d:ca:c0:65:77:84:8d:d9:d9:6d:f2:1e:1b:
        2d:5f:c1:a1:5e:5e:95:53:d0:38:da:7b:23:d5:b3:e4:77:c2:
        2b:20:d4:06:32:50:9c:40:25:ff:4a:cb:7d:2d:14:9e:7b:3d:
        7a:78:47:c5:8f:72:07:b7:1d:02:90:1e:13:c1:bd:4c:5b:4e:
        a8:89:e3:74:ef:a3:56:57:2f:f7:f2:ea:e7:22:5b:7c:81:cd:
        c9:c1:5d:62
-----BEGIN CERTIFICATE-----
MIIDXTCCAkWgAwIBAgIRAMPSinmsIc8GDA32aAfSzuQwDQYJKoZIhvcNAQELBQAw
FjEUMBIGA1UEAwwLdGVhbTQ1OS1uZXQwHhcNMjMxMTA0MTEzNzQ5WhcNMjYxMDE5
MTEzNzQ5WjAZMRcwFQYDVQQDDA50ZWFtNDU5LWNsaWVudDCCASIwDQYJKoZIhvcN
AQEBBQADggEPADCCAQoCggEBAMBXeeDnLHoVCOz05WlLql3panFkKRES/q6/d659
msNq0Q3WwFgTuoJSME3Q+SEasc9J36WLGboXTKupeqpgjGK8xlGZuFevtqFWGv8x
Tr+vD1Kkl3N/yEzmbcAl/ohp+t9rt9KY09o5Tu6fbKGTg8Z7zfzRblNGouTEUEmG
xfl96YwZohmcQX+HEaNhFmBdHKT63NCqhG5UCz6bknSAV67xmZRzJYd65+XpNdek
dR65hzOwCCrM2NPrrv+cwY3qvm9jNzAhl5Txoqy4xYQcb/KDvHX2sbB7yhmCVZWI
Y56KVdEDBsOEWkoK1TcboN/kH4PMQsmEs6GAD5cU5zy4QSMCAwEAAaOBojCBnzAJ
BgNVHRMEAjAAMB0GA1UdDgQWBBSmlYuM8iHjONbdSSKYC75h7QFyxzBRBgNVHSME
SjBIgBSYijYcN1S2T71G0QkNN3cxQ4i82qEapBgwFjEUMBIGA1UEAwwLdGVhbTQ1
OS1uZXSCFFFWl1z92ZKk4b1cAvltup+q0xNMMBMGA1UdJQQMMAoGCCsGAQUFBwMC
MAsGA1UdDwQEAwIHgDANBgkqhkiG9w0BAQsFAAOCAQEAIV+6wdNPEXkEBVfVIWpi
4Njh2NFXY17WJZK8A1bcd6LOb4cmPQSgYxWb1ji55CbZyJgUCn54i8h4LWpycu2r
gF7FbL3ONdZ2Q5DXnsu0opXnD5wUK1LPWQ2KpKVT6xqoIO1AguA6zfzwOlNwEfpZ
91n57gVAu4rHVlD8EgyWEN0v5LpmTdHZWqnzFKy6yt8sP022mOZO6mVnOP+a8mig
V3/Tyrp2qu59ysBld4SN2dlt8h4bLV/BoV5elVPQONp7I9Wz5HfCKyDUBjJQnEAl
/0rLfS0Unns9enhHxY9yB7cdApAeE8G9TFtOqInjdO+jVlcv9/Lq5yJbfIHNycFd
Yg==
-----END CERTIFICATE-----
