Certificate:
    Data:
        Version: 3 (0x2)
        Serial Number:
            f6:26:94:10:0b:7a:db:a1:0c:ea:92:31:eb:4d:58:da
        Signature Algorithm: sha256WithRSAEncryption
        Issuer: CN=team459-net
        Validity
            Not Before: Nov  4 10:48:47 2023 GMT
            Not After : Oct 19 10:48:47 2026 GMT
        Subject: CN=team459-client
        Subject Public Key Info:
            Public Key Algorithm: rsaEncryption
                Public-Key: (2048 bit)
                Modulus:
                    00:b5:db:ca:0b:05:15:93:7b:f8:94:b1:89:24:7a:
                    13:2f:b3:1e:43:41:52:a0:20:02:3e:1b:d4:d2:85:
                    25:8b:4b:85:a1:65:77:4b:7a:d3:8b:de:17:74:85:
                    ae:7b:7c:3a:85:ce:28:db:c0:41:7f:92:4e:fa:7d:
                    c5:9d:d9:cc:7d:cc:03:54:d9:ef:a5:35:22:45:83:
                    f1:9b:ff:b6:9d:a5:82:36:e3:6f:db:c8:03:38:71:
                    bb:bf:f9:2a:7a:e9:b5:a1:59:58:da:29:90:61:7e:
                    52:39:f4:62:e9:51:33:6b:42:22:0a:1f:1c:6f:bb:
                    c5:db:d4:de:30:f0:40:6b:fd:48:64:00:b3:c3:f5:
                    da:4a:53:32:3c:40:6a:2d:79:b0:e4:7c:66:44:26:
                    29:0c:91:6c:95:65:e7:d4:e6:f8:d2:18:87:c1:31:
                    59:b3:7f:45:aa:ee:52:83:02:db:a3:4c:53:7a:7d:
                    02:cf:d4:cb:31:fa:b5:2b:24:4a:5a:82:58:b3:55:
                    4f:37:9c:b7:ad:70:56:c2:f6:57:89:bf:bd:2e:e1:
                    64:ec:55:62:a5:ff:91:88:3b:04:2a:ca:31:f6:d8:
                    d5:78:3f:71:43:af:ef:fe:21:ec:08:77:b9:a9:d7:
                    93:08:89:73:4d:45:a9:a5:ba:ac:03:45:af:c7:42:
                    6c:4b
                Exponent: 65537 (0x10001)
        X509v3 extensions:
            X509v3 Basic Constraints: 
                CA:FALSE
            X509v3 Subject Key Identifier: 
                7A:0E:F9:A1:8B:E6:1C:54:EE:66:B7:7C:C8:B9:82:8F:B6:45:59:D0
            X509v3 Authority Key Identifier: 
                keyid:1D:BD:EA:B2:BB:CF:2C:8C:23:A9:22:91:C7:2E:D7:59:B5:0E:42:CD
                DirName:/CN=team459-net
                serial:01:19:BD:E8:17:34:34:5A:4D:F9:FA:36:68:0F:B3:29:FD:59:B8:FC
            X509v3 Extended Key Usage: 
                TLS Web Client Authentication
            X509v3 Key Usage: 
                Digital Signature
    Signature Algorithm: sha256WithRSAEncryption
    Signature Value:
        7d:2e:39:21:06:7b:be:a0:6d:d5:b3:42:81:d4:b9:5a:36:f4:
        96:35:08:f2:6d:78:cd:3b:e0:61:80:78:fc:93:db:d0:64:0d:
        cc:88:9e:3c:93:27:dd:f6:81:75:6f:74:9e:9c:b4:05:d0:e9:
        3f:f6:b4:28:8c:b0:ac:b1:2f:70:60:cc:3b:b7:65:d9:13:b2:
        45:f8:b3:3a:52:e9:72:3e:fb:76:8b:94:bd:54:36:cb:46:6a:
        cd:54:8b:48:0e:a1:8c:18:b5:f3:f8:99:8d:92:34:66:be:3c:
        9e:a3:f8:e5:18:47:7f:8a:90:52:d5:ef:e1:5d:c0:ad:6f:41:
        5d:e8:0b:63:61:8f:9b:d2:3c:4c:00:a2:e0:c0:0a:9e:fb:02:
        9b:18:cf:77:b2:59:27:90:be:00:f7:71:da:3d:ea:e9:aa:7c:
        2a:3a:07:90:74:1d:02:47:1a:13:45:e8:d2:ce:32:b1:a6:0a:
        c6:1c:94:f1:bb:59:6c:92:e1:42:c9:06:cc:3c:0c:8f:83:d6:
        f2:d3:d4:ac:47:7e:a3:ca:e8:f2:3e:30:f2:81:3a:51:c4:1d:
        f1:84:ec:75:76:96:47:df:f6:cf:b4:7f:38:c9:01:55:56:9e:
        b2:f5:e1:f2:5a:d6:e5:e4:7b:4a:32:8a:9f:3d:08:b4:eb:32:
        4d:dd:90:16
-----BEGIN CERTIFICATE-----
MIIDXTCCAkWgAwIBAgIRAPYmlBALetuhDOqSMetNWNowDQYJKoZIhvcNAQELBQAw
FjEUMBIGA1UEAwwLdGVhbTQ1OS1uZXQwHhcNMjMxMTA0MTA0ODQ3WhcNMjYxMDE5
MTA0ODQ3WjAZMRcwFQYDVQQDDA50ZWFtNDU5LWNsaWVudDCCASIwDQYJKoZIhvcN
AQEBBQADggEPADCCAQoCggEBALXbygsFFZN7+JSxiSR6Ey+zHkNBUqAgAj4b1NKF
JYtLhaFld0t604veF3SFrnt8OoXOKNvAQX+STvp9xZ3ZzH3MA1TZ76U1IkWD8Zv/
tp2lgjbjb9vIAzhxu7/5KnrptaFZWNopkGF+Ujn0YulRM2tCIgofHG+7xdvU3jDw
QGv9SGQAs8P12kpTMjxAai15sOR8ZkQmKQyRbJVl59Tm+NIYh8ExWbN/RaruUoMC
26NMU3p9As/UyzH6tSskSlqCWLNVTzect61wVsL2V4m/vS7hZOxVYqX/kYg7BCrK
MfbY1Xg/cUOv7/4h7Ah3uanXkwiJc01FqaW6rANFr8dCbEsCAwEAAaOBojCBnzAJ
BgNVHRMEAjAAMB0GA1UdDgQWBBR6Dvmhi+YcVO5mt3zIuYKPtkVZ0DBRBgNVHSME
SjBIgBQdveqyu88sjCOpIpHHLtdZtQ5CzaEapBgwFjEUMBIGA1UEAwwLdGVhbTQ1
OS1uZXSCFAEZvegXNDRaTfn6NmgPsyn9Wbj8MBMGA1UdJQQMMAoGCCsGAQUFBwMC
MAsGA1UdDwQEAwIHgDANBgkqhkiG9w0BAQsFAAOCAQEAfS45IQZ7vqBt1bNCgdS5
Wjb0ljUI8m14zTvgYYB4/JPb0GQNzIiePJMn3faBdW90npy0BdDpP/a0KIywrLEv
cGDMO7dl2ROyRfizOlLpcj77douUvVQ2y0ZqzVSLSA6hjBi18/iZjZI0Zr48nqP4
5RhHf4qQUtXv4V3ArW9BXegLY2GPm9I8TACi4MAKnvsCmxjPd7JZJ5C+APdx2j3q
6ap8KjoHkHQdAkcaE0Xo0s4ysaYKxhyU8btZbJLhQskGzDwMj4PW8tPUrEd+o8ro
8j4w8oE6UcQd8YTsdXaWR9/2z7R/OMkBVVaesvXh8lrW5eR7SjKKnz0ItOsyTd2Q
Fg==
-----END CERTIFICATE-----
