Certificate:
    Data:
        Version: 3 (0x2)
        Serial Number:
            7f:73:bc:ae:0b:af:e7:5c:c1:d6:4f:1a:12:a9:98:23
        Signature Algorithm: sha256WithRSAEncryption
        Issuer: CN=team167-net
        Validity
            Not Before: Nov  3 20:42:14 2023 GMT
            Not After : Oct 18 20:42:14 2026 GMT
        Subject: CN=team167-client
        Subject Public Key Info:
            Public Key Algorithm: rsaEncryption
                Public-Key: (2048 bit)
                Modulus:
                    00:fa:55:30:6c:30:07:5b:7d:87:c9:e6:6a:6f:79:
                    dd:2d:44:5c:f2:a1:57:f4:0d:7a:14:9c:37:fa:36:
                    ed:2a:a5:6c:3a:e2:4e:35:6b:dc:44:21:f9:7c:df:
                    f6:18:15:61:c6:da:11:63:c1:ca:69:d0:74:98:27:
                    e2:73:be:c9:93:64:f5:31:6d:12:13:24:4b:61:da:
                    55:a7:7b:5e:89:2f:ec:d0:70:0d:e2:8c:51:ff:a3:
                    b6:56:d7:7e:e4:f9:17:6f:bb:d6:3a:e4:ff:93:cb:
                    0c:29:40:67:9b:13:f3:14:4b:1b:b5:37:fa:7c:de:
                    76:73:44:53:ef:30:b4:d9:cc:b2:84:07:cc:7b:a6:
                    33:93:25:8b:92:36:c7:61:c4:ab:05:00:c3:31:8d:
                    33:1e:4f:5d:e3:25:8a:3d:74:1c:1c:01:0b:81:79:
                    d4:99:13:72:d3:92:8b:9e:82:f3:ee:c5:78:37:03:
                    51:5b:a0:03:df:b4:fe:18:3c:51:d5:6b:d3:17:d0:
                    cd:5c:e5:de:2f:03:8b:15:a6:01:01:33:19:93:d5:
                    0a:b5:a4:76:50:8d:b5:44:d7:6b:97:f3:1a:2e:3f:
                    98:62:c5:32:19:b4:6a:3d:57:4e:3b:0e:f8:59:a3:
                    c9:03:c4:51:39:f0:3f:dc:3e:c1:4b:ca:7d:f6:6a:
                    9b:39
                Exponent: 65537 (0x10001)
        X509v3 extensions:
            X509v3 Basic Constraints: 
                CA:FALSE
            X509v3 Subject Key Identifier: 
                AD:6B:CB:9B:16:16:70:42:99:B6:9B:E0:2B:C1:4B:A0:CF:98:CB:9C
            X509v3 Authority Key Identifier: 
                keyid:55:50:7F:69:6F:23:3B:88:54:33:A7:46:3F:8B:F4:9C:00:D7:CD:E5
                DirName:/CN=team167-net
                serial:0A:BE:D6:47:3D:0A:24:A9:48:00:FF:1D:C3:90:2C:B7:E5:86:D8:7B
            X509v3 Extended Key Usage: 
                TLS Web Client Authentication
            X509v3 Key Usage: 
                Digital Signature
    Signature Algorithm: sha256WithRSAEncryption
    Signature Value:
        a1:eb:88:72:ed:f3:a3:82:4f:bd:77:e5:58:a6:a8:4d:77:49:
        4e:38:a6:3e:e2:84:ac:b7:84:df:2c:6f:1a:05:25:58:c6:59:
        f7:47:91:48:10:ec:88:1b:4b:98:f4:8f:73:95:ad:58:0f:f7:
        c3:cd:b1:e2:52:da:b6:1e:29:50:69:d5:f5:69:01:15:cc:ab:
        aa:30:93:f7:5f:7f:ee:71:59:1f:5b:f9:ba:65:9f:ed:45:6b:
        12:1a:10:43:94:12:b2:47:d4:03:1b:41:c0:7b:0a:cd:fb:d4:
        2e:d7:85:fb:e6:4d:98:f8:b8:89:b3:cb:64:1c:6d:d3:c2:16:
        c6:a2:1e:61:7e:4d:07:9d:0d:a8:03:16:26:f8:47:f6:71:15:
        71:0f:2d:e6:d9:bc:db:eb:12:c2:47:10:e4:ff:a2:24:2e:12:
        6a:5c:05:80:60:f3:57:21:4b:06:7a:be:5a:fe:2b:8f:68:9d:
        ac:32:9e:b8:3c:87:bd:f3:55:53:40:d5:bf:c5:85:7f:8c:56:
        55:1b:e8:c0:aa:6f:4a:83:60:55:55:cf:c6:f2:09:2e:86:b9:
        ac:d2:4b:de:7e:77:1a:6e:00:83:51:0d:63:1a:25:a6:d9:4a:
        3c:58:13:2b:82:5b:a0:bc:ef:1d:1d:b8:02:08:b8:8f:fc:ca:
        36:9d:af:ac
-----BEGIN CERTIFICATE-----
MIIDXDCCAkSgAwIBAgIQf3O8rguv51zB1k8aEqmYIzANBgkqhkiG9w0BAQsFADAW
MRQwEgYDVQQDDAt0ZWFtMTY3LW5ldDAeFw0yMzExMDMyMDQyMTRaFw0yNjEwMTgy
MDQyMTRaMBkxFzAVBgNVBAMMDnRlYW0xNjctY2xpZW50MIIBIjANBgkqhkiG9w0B
AQEFAAOCAQ8AMIIBCgKCAQEA+lUwbDAHW32HyeZqb3ndLURc8qFX9A16FJw3+jbt
KqVsOuJONWvcRCH5fN/2GBVhxtoRY8HKadB0mCfic77Jk2T1MW0SEyRLYdpVp3te
iS/s0HAN4oxR/6O2Vtd+5PkXb7vWOuT/k8sMKUBnmxPzFEsbtTf6fN52c0RT7zC0
2cyyhAfMe6YzkyWLkjbHYcSrBQDDMY0zHk9d4yWKPXQcHAELgXnUmRNy05KLnoLz
7sV4NwNRW6AD37T+GDxR1WvTF9DNXOXeLwOLFaYBATMZk9UKtaR2UI21RNdrl/Ma
Lj+YYsUyGbRqPVdOOw74WaPJA8RROfA/3D7BS8p99mqbOQIDAQABo4GiMIGfMAkG
A1UdEwQCMAAwHQYDVR0OBBYEFK1ry5sWFnBCmbab4CvBS6DPmMucMFEGA1UdIwRK
MEiAFFVQf2lvIzuIVDOnRj+L9JwA183loRqkGDAWMRQwEgYDVQQDDAt0ZWFtMTY3
LW5ldIIUCr7WRz0KJKlIAP8dw5Ast+WG2HswEwYDVR0lBAwwCgYIKwYBBQUHAwIw
CwYDVR0PBAQDAgeAMA0GCSqGSIb3DQEBCwUAA4IBAQCh64hy7fOjgk+9d+VYpqhN
d0lOOKY+4oSst4TfLG8aBSVYxln3R5FIEOyIG0uY9I9zla1YD/fDzbHiUtq2HilQ
adX1aQEVzKuqMJP3X3/ucVkfW/m6ZZ/tRWsSGhBDlBKyR9QDG0HAewrN+9Qu14X7
5k2Y+LiJs8tkHG3TwhbGoh5hfk0HnQ2oAxYm+Ef2cRVxDy3m2bzb6xLCRxDk/6Ik
LhJqXAWAYPNXIUsGer5a/iuPaJ2sMp64PIe981VTQNW/xYV/jFZVG+jAqm9Kg2BV
Vc/G8gkuhrms0kvefncabgCDUQ1jGiWm2Uo8WBMrglugvO8dHbgCCLiP/Mo2na+s
-----END CERTIFICATE-----
