Certificate:
    Data:
        Version: 3 (0x2)
        Serial Number:
            43:18:ad:34:ab:2d:bd:69:c7:24:e3:ca:ac:b8:3c:a7
        Signature Algorithm: sha256WithRSAEncryption
        Issuer: CN=team91-net
        Validity
            Not Before: Nov  4 10:42:06 2023 GMT
            Not After : Oct 19 10:42:06 2026 GMT
        Subject: CN=team91-server
        Subject Public Key Info:
            Public Key Algorithm: rsaEncryption
                Public-Key: (2048 bit)
                Modulus:
                    00:a0:8a:c5:2e:45:17:e2:fe:9c:29:d4:ba:d1:74:
                    34:72:c9:f7:b6:2d:70:b9:3e:8f:36:15:38:c3:f5:
                    1e:d7:26:05:c5:0c:f9:3d:2b:83:fb:33:79:67:88:
                    39:97:d2:9f:86:12:91:94:e3:ee:ec:48:f5:2e:17:
                    4a:c3:f5:b6:ce:49:85:71:24:e3:19:9b:8e:38:68:
                    88:e9:35:98:82:51:ba:e8:5a:eb:fc:1e:7f:1b:4e:
                    00:be:16:46:d4:39:e2:3b:cb:91:2e:22:f4:7b:5c:
                    56:a3:97:34:2f:d1:cf:0c:47:00:99:b1:0c:a9:dd:
                    94:30:a6:89:34:63:0a:a9:2e:37:b6:8f:29:c1:17:
                    6a:bf:b9:b5:c3:7f:bf:ed:27:85:61:fa:76:03:9c:
                    2a:6b:ae:ac:8f:51:b6:ee:82:a6:23:78:5f:c8:57:
                    7f:1c:b4:ed:01:f9:db:8f:02:45:56:86:d6:8e:44:
                    3d:a2:8d:d6:7f:f1:fe:2c:9e:18:f4:4e:0a:ca:03:
                    7c:6e:8e:b3:3a:a0:a8:e1:cb:dc:37:5c:45:16:d5:
                    fd:ba:a6:75:c0:d9:dc:8d:96:7f:35:a3:86:b2:d5:
                    d9:5d:6b:fc:b2:cc:26:ca:72:7a:fb:6e:c3:70:e4:
                    33:fd:0e:4d:5f:2d:62:f0:f6:c8:b3:e0:ca:18:e6:
                    32:97
                Exponent: 65537 (0x10001)
        X509v3 extensions:
            X509v3 Basic Constraints: 
                CA:FALSE
            X509v3 Subject Key Identifier: 
                B3:71:66:23:78:A9:F9:59:8A:7E:34:39:62:A9:B7:4D:C9:0E:44:67
            X509v3 Authority Key Identifier: 
                keyid:70:2F:F9:DB:9B:5D:6A:C9:79:24:75:64:CF:EA:3B:50:A4:C2:4D:26
                DirName:/CN=team91-net
                serial:4B:C1:CC:90:91:81:B7:6F:31:14:0C:8A:01:FC:D7:BE:B7:DD:FE:FE
            X509v3 Extended Key Usage: 
                TLS Web Server Authentication
            X509v3 Key Usage: 
                Digital Signature, Key Encipherment
            X509v3 Subject Alternative Name: 
                DNS:team91-server
    Signature Algorithm: sha256WithRSAEncryption
    Signature Value:
        2b:23:d9:d3:0e:84:3a:e5:22:36:2e:0b:06:cc:14:06:13:6a:
        e1:72:72:3f:47:68:84:d0:e0:cf:9f:a3:2f:2b:ef:df:7c:0a:
        2b:d3:c5:dc:b5:69:66:88:38:79:ae:74:aa:7f:78:7f:33:30:
        bb:e4:e9:b0:b7:cb:6b:54:12:8f:72:6a:24:82:42:2b:fc:3c:
        45:c9:6e:c7:4a:8f:a8:78:37:16:58:68:bf:c8:d7:ba:dc:57:
        6d:f0:9c:4e:4f:42:22:4f:80:4a:09:a6:d8:7c:5d:cb:c8:ca:
        24:65:0f:83:32:04:5c:1a:9c:cc:1c:56:64:4b:8b:03:2d:fb:
        d5:ee:9d:5c:67:b2:0a:27:58:9d:e4:bd:86:ee:1f:6c:f0:8c:
        71:fc:5f:72:c0:3b:40:9d:b7:16:34:8c:7d:5e:bd:42:fd:30:
        83:df:f2:a0:b3:5f:1c:aa:28:32:d4:0a:07:f8:86:d4:be:23:
        07:a4:11:d3:22:83:ae:1e:a0:c0:29:26:0a:79:e6:f2:10:0e:
        64:14:46:43:23:98:41:2e:b0:0d:d4:ee:4e:d3:28:7c:3e:d2:
        4a:9a:cd:8b:3f:c9:e5:2c:0f:7a:29:58:3f:44:2a:a6:c0:d2:
        44:5b:e0:01:e3:12:28:57:5c:e0:c2:80:dc:9f:b4:b0:a4:60:
        ed:6b:0b:bd
-----BEGIN CERTIFICATE-----
MIIDczCCAlugAwIBAgIQQxitNKstvWnHJOPKrLg8pzANBgkqhkiG9w0BAQsFADAV
MRMwEQYDVQQDDAp0ZWFtOTEtbmV0MB4XDTIzMTEwNDEwNDIwNloXDTI2MTAxOTEw
NDIwNlowGDEWMBQGA1UEAwwNdGVhbTkxLXNlcnZlcjCCASIwDQYJKoZIhvcNAQEB
BQADggEPADCCAQoCggEBAKCKxS5FF+L+nCnUutF0NHLJ97YtcLk+jzYVOMP1Htcm
BcUM+T0rg/szeWeIOZfSn4YSkZTj7uxI9S4XSsP1ts5JhXEk4xmbjjhoiOk1mIJR
uuha6/wefxtOAL4WRtQ54jvLkS4i9HtcVqOXNC/RzwxHAJmxDKndlDCmiTRjCqku
N7aPKcEXar+5tcN/v+0nhWH6dgOcKmuurI9Rtu6CpiN4X8hXfxy07QH5248CRVaG
1o5EPaKN1n/x/iyeGPROCsoDfG6OszqgqOHL3DdcRRbV/bqmdcDZ3I2WfzWjhrLV
2V1r/LLMJspyevtuw3DkM/0OTV8tYvD2yLPgyhjmMpcCAwEAAaOBuzCBuDAJBgNV
HRMEAjAAMB0GA1UdDgQWBBSzcWYjeKn5WYp+NDliqbdNyQ5EZzBQBgNVHSMESTBH
gBRwL/nbm11qyXkkdWTP6jtQpMJNJqEZpBcwFTETMBEGA1UEAwwKdGVhbTkxLW5l
dIIUS8HMkJGBt28xFAyKAfzXvrfd/v4wEwYDVR0lBAwwCgYIKwYBBQUHAwEwCwYD
VR0PBAQDAgWgMBgGA1UdEQQRMA+CDXRlYW05MS1zZXJ2ZXIwDQYJKoZIhvcNAQEL
BQADggEBACsj2dMOhDrlIjYuCwbMFAYTauFycj9HaITQ4M+foy8r7998CivTxdy1
aWaIOHmudKp/eH8zMLvk6bC3y2tUEo9yaiSCQiv8PEXJbsdKj6h4NxZYaL/I17rc
V23wnE5PQiJPgEoJpth8XcvIyiRlD4MyBFwanMwcVmRLiwMt+9XunVxnsgonWJ3k
vYbuH2zwjHH8X3LAO0CdtxY0jH1evUL9MIPf8qCzXxyqKDLUCgf4htS+IwekEdMi
g64eoMApJgp55vIQDmQURkMjmEEusA3U7k7TKHw+0kqazYs/yeUsD3opWD9EKqbA
0kRb4AHjEihXXODCgNyftLCkYO1rC70=
-----END CERTIFICATE-----
