Certificate:
    Data:
        Version: 3 (0x2)
        Serial Number:
            90:c3:28:91:52:c7:66:9e:01:5c:e2:44:46:5f:25:9b
        Signature Algorithm: sha256WithRSAEncryption
        Issuer: CN=team91-net
        Validity
            Not Before: Nov  3 20:40:46 2023 GMT
            Not After : Oct 18 20:40:46 2026 GMT
        Subject: CN=team91-client
        Subject Public Key Info:
            Public Key Algorithm: rsaEncryption
                Public-Key: (2048 bit)
                Modulus:
                    00:94:e3:e7:ff:d0:49:49:cd:37:61:c7:ec:aa:c3:
                    e3:3b:38:2a:98:24:3a:84:fd:1f:af:96:19:e6:2d:
                    ac:67:63:36:36:02:71:db:7b:74:9d:c9:6d:5f:4b:
                    b3:db:17:f9:9d:f7:ca:1d:b3:38:ca:ca:16:6d:61:
                    ef:ab:f1:b1:57:a5:6c:45:57:c2:ad:58:03:e6:f2:
                    86:77:e8:53:db:56:22:0c:37:7e:7c:0c:1b:55:5f:
                    21:33:d1:5f:b8:a1:8e:fb:d8:ec:b8:f9:84:94:ca:
                    4b:47:50:5c:f6:94:99:8b:d7:26:70:cd:cf:8b:0f:
                    29:e8:ed:77:4e:ed:c8:a6:1b:fd:22:0b:d1:42:5c:
                    48:d8:bd:7d:85:34:b4:37:e4:14:4d:88:de:67:bd:
                    ec:e3:9f:7a:3b:81:58:91:05:91:73:a2:aa:16:4e:
                    74:f7:e2:86:81:e0:21:01:52:4f:97:f8:b4:4a:44:
                    59:51:19:f6:48:f5:bf:1a:fe:ae:46:a2:c2:5a:cb:
                    6e:1d:e9:db:75:30:84:8b:d2:08:7f:d4:c4:05:81:
                    9b:21:23:09:c9:0a:c5:48:3d:d6:95:06:c7:8e:50:
                    0e:1e:1b:16:a7:4a:8e:96:6e:03:9b:77:bb:1a:27:
                    8b:ea:55:67:1d:a8:19:f4:fe:b3:ee:b5:1f:3c:0f:
                    a2:01
                Exponent: 65537 (0x10001)
        X509v3 extensions:
            X509v3 Basic Constraints: 
                CA:FALSE
            X509v3 Subject Key Identifier: 
                EE:1C:99:2D:8E:72:68:77:6B:C8:0C:53:EF:DB:87:F7:72:D3:FD:3F
            X509v3 Authority Key Identifier: 
                keyid:89:88:45:26:25:14:20:B1:45:2C:6C:65:DD:87:DE:DF:4A:B2:38:60
                DirName:/CN=team91-net
                serial:05:A9:4F:5F:5A:02:6D:15:31:38:C4:97:91:44:19:6E:25:CB:67:9C
            X509v3 Extended Key Usage: 
                TLS Web Client Authentication
            X509v3 Key Usage: 
                Digital Signature
    Signature Algorithm: sha256WithRSAEncryption
    Signature Value:
        14:d6:cf:30:1e:2a:27:7c:9e:10:9b:fe:b1:d2:1d:7a:81:56:
        be:b8:b2:15:39:99:29:20:2a:51:e7:b6:94:ba:5f:d1:72:3c:
        6c:f4:e5:1a:31:d3:a2:54:d4:2a:35:19:5c:2e:e3:67:84:91:
        f3:f0:82:b1:fa:35:4a:32:d9:2a:f8:9d:75:35:7c:30:84:a6:
        36:db:a4:9a:91:d5:cf:b0:19:0d:bd:74:bd:b1:a1:13:46:d1:
        1a:10:3f:19:c4:bf:1c:2d:fc:ea:9b:9d:c2:72:aa:cd:36:be:
        24:6e:b2:a9:2b:0e:eb:7f:b7:20:9c:d0:9c:a8:9e:33:2b:6e:
        8b:8e:16:ef:8c:24:91:24:93:9d:df:9e:30:16:2f:94:b9:3d:
        66:46:38:61:0e:d2:03:92:50:30:93:81:e9:69:c2:01:4b:a5:
        7b:a5:76:96:b4:ed:a0:92:2b:0b:f2:f1:84:85:11:a8:66:17:
        10:15:f7:96:18:34:5d:5b:1c:2e:59:89:9e:b4:b4:9c:82:1b:
        28:b6:f6:de:3b:61:5b:02:28:a1:fa:db:57:5d:e3:a8:28:76:
        a5:48:ee:07:1f:75:cd:0d:b6:4b:f0:ee:cf:39:8c:6a:b4:eb:
        a8:0e:31:c8:e1:d8:60:40:05:96:bc:7c:a3:65:ae:45:82:a3:
        7b:ca:87:e5
-----BEGIN CERTIFICATE-----
MIIDWjCCAkKgAwIBAgIRAJDDKJFSx2aeAVziREZfJZswDQYJKoZIhvcNAQELBQAw
FTETMBEGA1UEAwwKdGVhbTkxLW5ldDAeFw0yMzExMDMyMDQwNDZaFw0yNjEwMTgy
MDQwNDZaMBgxFjAUBgNVBAMMDXRlYW05MS1jbGllbnQwggEiMA0GCSqGSIb3DQEB
AQUAA4IBDwAwggEKAoIBAQCU4+f/0ElJzTdhx+yqw+M7OCqYJDqE/R+vlhnmLaxn
YzY2AnHbe3SdyW1fS7PbF/md98odszjKyhZtYe+r8bFXpWxFV8KtWAPm8oZ36FPb
ViIMN358DBtVXyEz0V+4oY772Oy4+YSUyktHUFz2lJmL1yZwzc+LDyno7XdO7cim
G/0iC9FCXEjYvX2FNLQ35BRNiN5nvezjn3o7gViRBZFzoqoWTnT34oaB4CEBUk+X
+LRKRFlRGfZI9b8a/q5GosJay24d6dt1MISL0gh/1MQFgZshIwnJCsVIPdaVBseO
UA4eGxanSo6WbgObd7saJ4vqVWcdqBn0/rPutR88D6IBAgMBAAGjgaEwgZ4wCQYD
VR0TBAIwADAdBgNVHQ4EFgQU7hyZLY5yaHdryAxT79uH93LT/T8wUAYDVR0jBEkw
R4AUiYhFJiUUILFFLGxl3Yfe30qyOGChGaQXMBUxEzARBgNVBAMMCnRlYW05MS1u
ZXSCFAWpT19aAm0VMTjEl5FEGW4ly2ecMBMGA1UdJQQMMAoGCCsGAQUFBwMCMAsG
A1UdDwQEAwIHgDANBgkqhkiG9w0BAQsFAAOCAQEAFNbPMB4qJ3yeEJv+sdIdeoFW
vriyFTmZKSAqUee2lLpf0XI8bPTlGjHTolTUKjUZXC7jZ4SR8/CCsfo1SjLZKvid
dTV8MISmNtukmpHVz7AZDb10vbGhE0bRGhA/GcS/HC386pudwnKqzTa+JG6yqSsO
63+3IJzQnKieMytui44W74wkkSSTnd+eMBYvlLk9ZkY4YQ7SA5JQMJOB6WnCAUul
e6V2lrTtoJIrC/LxhIURqGYXEBX3lhg0XVscLlmJnrS0nIIbKLb23jthWwIoofrb
V13jqCh2pUjuBx91zQ22S/DuzzmMarTrqA4xyOHYYEAFlrx8o2WuRYKje8qH5Q==
-----END CERTIFICATE-----
