Certificate:
    Data:
        Version: 3 (0x2)
        Serial Number:
            a0:82:41:95:63:d9:6b:e3:b1:88:29:a6:b5:87:e1:01
        Signature Algorithm: sha256WithRSAEncryption
        Issuer: CN=team91-net
        Validity
            Not Before: Nov  4 11:29:11 2023 GMT
            Not After : Oct 19 11:29:11 2026 GMT
        Subject: CN=team91-client
        Subject Public Key Info:
            Public Key Algorithm: rsaEncryption
                Public-Key: (2048 bit)
                Modulus:
                    00:b2:eb:3e:e5:51:15:73:82:72:52:8a:76:d7:9d:
                    10:59:a2:57:f6:4d:7b:d4:77:bb:82:6f:b8:26:4e:
                    03:f0:00:7f:b5:07:53:1c:9a:22:e3:3d:27:c5:51:
                    8a:dd:04:aa:e0:cc:f2:d3:50:64:1e:e9:9e:3a:bc:
                    dd:b2:8e:cb:bc:2a:19:7e:d4:86:a1:fa:3b:34:e1:
                    d1:b8:3c:16:3c:76:e2:a5:a3:71:29:58:69:b8:bf:
                    e5:29:63:c8:7c:96:7a:36:c3:00:d3:1a:79:b5:01:
                    3e:5d:9b:65:4b:03:3e:00:8f:aa:00:5a:d3:f5:95:
                    07:f5:c8:69:dd:83:ea:17:43:af:f7:41:8d:75:89:
                    0e:60:d3:2b:35:8d:c2:b6:9d:7f:d6:9b:2a:bf:6e:
                    9e:44:f5:dc:f6:85:f5:cc:b1:39:c8:3f:c7:b0:33:
                    63:86:66:0b:53:9e:04:66:59:15:87:d8:d0:9b:e3:
                    4f:35:31:00:1b:d2:78:63:75:54:fb:0e:70:e1:03:
                    54:f3:9d:05:ae:89:60:8b:51:99:b9:95:40:d0:b2:
                    e7:0a:5d:4d:20:ba:cc:e3:ec:89:ef:73:4d:52:1d:
                    7e:84:ff:0e:0e:bf:71:29:6c:b2:80:ac:ed:6c:1f:
                    37:5e:aa:9a:87:0e:6e:97:55:10:b8:ff:5f:53:1c:
                    cc:e3
                Exponent: 65537 (0x10001)
        X509v3 extensions:
            X509v3 Basic Constraints: 
                CA:FALSE
            X509v3 Subject Key Identifier: 
                59:EE:AE:67:8B:A1:3A:8F:DE:43:9F:09:18:C5:29:2E:3A:EE:B9:C4
            X509v3 Authority Key Identifier: 
                keyid:5D:7A:CC:B7:52:9E:6B:B4:05:60:B4:BF:7B:9D:8A:17:22:B7:3D:78
                DirName:/CN=team91-net
                serial:3B:CE:7D:71:A2:EE:04:E8:BE:D4:5E:2F:7A:21:1A:57:47:8B:74:48
            X509v3 Extended Key Usage: 
                TLS Web Client Authentication
            X509v3 Key Usage: 
                Digital Signature
    Signature Algorithm: sha256WithRSAEncryption
    Signature Value:
        87:08:98:4f:32:aa:ef:ff:ff:43:c3:e8:93:be:57:5f:ee:b3:
        48:4e:30:34:2f:28:77:e2:19:33:97:c1:84:e7:9b:d9:79:eb:
        50:51:3b:7e:45:76:80:2c:31:45:48:fd:62:d7:9b:ed:a1:bb:
        ae:b9:7e:bb:e0:aa:55:a3:6b:19:04:7e:c8:b4:0d:8c:40:5d:
        45:bc:b3:15:6d:2a:78:49:2e:71:43:f8:58:52:36:24:26:90:
        e5:07:50:ed:a6:69:b2:d1:34:8f:65:b1:50:5f:47:bc:2c:f6:
        e7:0e:ee:0b:62:13:27:00:9e:27:4e:24:ab:d4:4b:c5:9f:5c:
        f9:d3:30:8f:c4:6c:61:3c:9b:23:b6:99:d7:15:ae:bc:14:07:
        b7:87:9a:76:7a:45:c9:58:14:19:80:f2:4f:cb:dd:07:92:e8:
        27:79:ad:af:67:92:c5:56:ba:af:c9:ec:ff:41:09:e9:11:9c:
        af:df:da:bb:5a:4f:95:a7:b6:20:e0:2b:0e:91:59:54:d6:65:
        47:fb:9f:ec:10:be:2c:e5:bd:c1:5a:06:22:7a:3a:e6:58:d9:
        5b:c4:2f:50:5b:bf:1d:eb:bc:6b:7e:42:c7:0f:b8:e2:be:8e:
        87:6e:df:80:ff:07:47:55:a8:36:28:fd:85:ba:53:22:1f:c6:
        d8:77:1d:ef
-----BEGIN CERTIFICATE-----
MIIDWjCCAkKgAwIBAgIRAKCCQZVj2WvjsYgpprWH4QEwDQYJKoZIhvcNAQELBQAw
FTETMBEGA1UEAwwKdGVhbTkxLW5ldDAeFw0yMzExMDQxMTI5MTFaFw0yNjEwMTkx
MTI5MTFaMBgxFjAUBgNVBAMMDXRlYW05MS1jbGllbnQwggEiMA0GCSqGSIb3DQEB
AQUAA4IBDwAwggEKAoIBAQCy6z7lURVzgnJSinbXnRBZolf2TXvUd7uCb7gmTgPw
AH+1B1McmiLjPSfFUYrdBKrgzPLTUGQe6Z46vN2yjsu8Khl+1Iah+js04dG4PBY8
duKlo3EpWGm4v+UpY8h8lno2wwDTGnm1AT5dm2VLAz4Aj6oAWtP1lQf1yGndg+oX
Q6/3QY11iQ5g0ys1jcK2nX/Wmyq/bp5E9dz2hfXMsTnIP8ewM2OGZgtTngRmWRWH
2NCb4081MQAb0nhjdVT7DnDhA1TznQWuiWCLUZm5lUDQsucKXU0guszj7Invc01S
HX6E/w4Ov3EpbLKArO1sHzdeqpqHDm6XVRC4/19THMzjAgMBAAGjgaEwgZ4wCQYD
VR0TBAIwADAdBgNVHQ4EFgQUWe6uZ4uhOo/eQ58JGMUpLjruucQwUAYDVR0jBEkw
R4AUXXrMt1Kea7QFYLS/e52KFyK3PXihGaQXMBUxEzARBgNVBAMMCnRlYW05MS1u
ZXSCFDvOfXGi7gTovtReL3ohGldHi3RIMBMGA1UdJQQMMAoGCCsGAQUFBwMCMAsG
A1UdDwQEAwIHgDANBgkqhkiG9w0BAQsFAAOCAQEAhwiYTzKq7///Q8Pok75XX+6z
SE4wNC8od+IZM5fBhOeb2XnrUFE7fkV2gCwxRUj9Yteb7aG7rrl+u+CqVaNrGQR+
yLQNjEBdRbyzFW0qeEkucUP4WFI2JCaQ5QdQ7aZpstE0j2WxUF9HvCz25w7uC2IT
JwCeJ04kq9RLxZ9c+dMwj8RsYTybI7aZ1xWuvBQHt4eadnpFyVgUGYDyT8vdB5Lo
J3mtr2eSxVa6r8ns/0EJ6RGcr9/au1pPlae2IOArDpFZVNZlR/uf7BC+LOW9wVoG
Ino65ljZW8QvUFu/Heu8a35Cxw+44r6Oh27fgP8HR1WoNij9hbpTIh/G2Hcd7w==
-----END CERTIFICATE-----
