Certificate:
    Data:
        Version: 3 (0x2)
        Serial Number:
            b4:4b:1a:c4:f9:96:c7:bb:6b:ce:9f:45:c9:50:17:5f
        Signature Algorithm: sha256WithRSAEncryption
        Issuer: CN=team91-net
        Validity
            Not Before: Nov  3 20:40:46 2023 GMT
            Not After : Oct 18 20:40:46 2026 GMT
        Subject: CN=team91-server
        Subject Public Key Info:
            Public Key Algorithm: rsaEncryption
                Public-Key: (2048 bit)
                Modulus:
                    00:ab:1b:55:67:e7:4f:a5:4f:05:2a:1f:ef:26:7c:
                    a2:a8:e7:10:03:7b:ea:29:c4:01:a2:04:f2:bb:1e:
                    df:72:8d:b6:94:2f:c4:ed:b9:a1:7e:91:e7:6e:ef:
                    3e:43:e2:7f:af:0d:d5:cb:72:1e:92:b3:25:7a:27:
                    ad:39:2a:d6:af:69:26:22:f2:63:3e:67:b0:2d:fb:
                    b6:98:1b:c6:23:68:3b:fa:38:7c:43:7b:21:17:c7:
                    bd:43:0a:6f:42:bf:4c:52:1f:43:04:9b:9b:8a:bd:
                    bd:90:1f:1c:d8:04:2c:19:65:ea:34:8d:86:02:0c:
                    bc:41:c1:a0:1b:81:f1:34:fe:94:11:15:e1:39:51:
                    8c:d9:63:04:c9:f8:28:7b:3b:22:a3:fe:50:4a:79:
                    dd:ca:c5:e3:23:91:7c:16:fd:4e:00:91:65:99:fe:
                    13:fa:24:7e:ca:89:a4:0a:36:2e:4d:73:cc:05:d8:
                    ee:32:af:ba:78:11:50:71:2c:23:74:28:60:d0:8b:
                    5d:6a:7c:32:d8:6e:7b:34:16:d7:f1:c8:8a:16:56:
                    23:29:b0:3f:2e:8c:94:42:41:2c:b8:69:02:3e:c1:
                    b9:3d:e5:58:67:ae:94:a1:f3:b1:e7:ba:df:27:43:
                    ac:b6:47:99:c4:c5:ab:dc:bb:5d:e8:26:cd:64:8d:
                    e3:61
                Exponent: 65537 (0x10001)
        X509v3 extensions:
            X509v3 Basic Constraints: 
                CA:FALSE
            X509v3 Subject Key Identifier: 
                EE:26:91:D0:51:7A:C0:6B:D7:1B:8E:CF:B1:ED:ED:BA:0D:EB:7E:8A
            X509v3 Authority Key Identifier: 
                keyid:89:88:45:26:25:14:20:B1:45:2C:6C:65:DD:87:DE:DF:4A:B2:38:60
                DirName:/CN=team91-net
                serial:05:A9:4F:5F:5A:02:6D:15:31:38:C4:97:91:44:19:6E:25:CB:67:9C
            X509v3 Extended Key Usage: 
                TLS Web Server Authentication
            X509v3 Key Usage: 
                Digital Signature, Key Encipherment
            X509v3 Subject Alternative Name: 
                DNS:team91-server
    Signature Algorithm: sha256WithRSAEncryption
    Signature Value:
        69:69:33:97:fb:a8:93:05:79:54:e8:d3:80:df:bb:50:55:61:
        c8:c2:53:7b:3a:40:d1:56:d1:39:36:aa:08:b8:e5:f2:50:3c:
        54:6c:e5:2c:82:d6:0e:0e:81:37:2b:f2:7a:a8:92:25:7f:cf:
        98:c5:a0:36:a5:6b:d2:7c:eb:f0:bb:b3:32:56:c0:54:fa:92:
        ee:77:c4:2d:3c:82:fb:b3:4b:e9:df:d2:c2:af:c5:eb:11:45:
        88:d9:52:c4:56:27:72:e5:d5:d7:b1:b9:16:d9:92:e0:75:d4:
        9f:85:de:15:4b:5d:4f:2b:67:c3:61:2f:34:f5:c7:9e:ff:a6:
        b9:68:72:aa:2a:d3:cb:28:92:97:45:b1:8b:f6:40:97:3d:d7:
        95:ca:15:b6:5f:66:10:0a:26:4c:fb:4c:9a:31:65:4e:6c:ad:
        85:da:2c:a7:e1:f3:44:87:ed:ac:fd:b6:60:8e:6b:70:27:6c:
        34:2a:e5:91:21:2e:34:77:49:a8:1d:f3:aa:a1:67:bf:9d:6e:
        97:7d:c7:2a:10:df:ea:45:0d:42:43:02:1c:58:29:cd:ee:7f:
        03:94:71:dc:8e:17:b5:d3:8d:ef:36:f5:a7:55:5f:fe:3c:b5:
        c2:2c:24:ad:a4:af:be:50:72:89:6b:35:72:e3:c8:26:4f:39:
        65:66:9e:b0
-----BEGIN CERTIFICATE-----
MIIDdDCCAlygAwIBAgIRALRLGsT5lse7a86fRclQF18wDQYJKoZIhvcNAQELBQAw
FTETMBEGA1UEAwwKdGVhbTkxLW5ldDAeFw0yMzExMDMyMDQwNDZaFw0yNjEwMTgy
MDQwNDZaMBgxFjAUBgNVBAMMDXRlYW05MS1zZXJ2ZXIwggEiMA0GCSqGSIb3DQEB
AQUAA4IBDwAwggEKAoIBAQCrG1Vn50+lTwUqH+8mfKKo5xADe+opxAGiBPK7Ht9y
jbaUL8TtuaF+kedu7z5D4n+vDdXLch6SsyV6J605KtavaSYi8mM+Z7At+7aYG8Yj
aDv6OHxDeyEXx71DCm9Cv0xSH0MEm5uKvb2QHxzYBCwZZeo0jYYCDLxBwaAbgfE0
/pQRFeE5UYzZYwTJ+Ch7OyKj/lBKed3KxeMjkXwW/U4AkWWZ/hP6JH7KiaQKNi5N
c8wF2O4yr7p4EVBxLCN0KGDQi11qfDLYbns0FtfxyIoWViMpsD8ujJRCQSy4aQI+
wbk95VhnrpSh87Hnut8nQ6y2R5nExavcu13oJs1kjeNhAgMBAAGjgbswgbgwCQYD
VR0TBAIwADAdBgNVHQ4EFgQU7iaR0FF6wGvXG47Pse3tug3rfoowUAYDVR0jBEkw
R4AUiYhFJiUUILFFLGxl3Yfe30qyOGChGaQXMBUxEzARBgNVBAMMCnRlYW05MS1u
ZXSCFAWpT19aAm0VMTjEl5FEGW4ly2ecMBMGA1UdJQQMMAoGCCsGAQUFBwMBMAsG
A1UdDwQEAwIFoDAYBgNVHREEETAPgg10ZWFtOTEtc2VydmVyMA0GCSqGSIb3DQEB
CwUAA4IBAQBpaTOX+6iTBXlU6NOA37tQVWHIwlN7OkDRVtE5NqoIuOXyUDxUbOUs
gtYODoE3K/J6qJIlf8+YxaA2pWvSfOvwu7MyVsBU+pLud8QtPIL7s0vp39LCr8Xr
EUWI2VLEVidy5dXXsbkW2ZLgddSfhd4VS11PK2fDYS809cee/6a5aHKqKtPLKJKX
RbGL9kCXPdeVyhW2X2YQCiZM+0yaMWVObK2F2iyn4fNEh+2s/bZgjmtwJ2w0KuWR
IS40d0moHfOqoWe/nW6XfccqEN/qRQ1CQwIcWCnN7n8DlHHcjhe1043vNvWnVV/+
PLXCLCStpK++UHKJazVy48gmTzllZp6w
-----END CERTIFICATE-----
