Certificate:
    Data:
        Version: 3 (0x2)
        Serial Number:
            b8:96:45:3c:25:58:2a:54:9a:2f:56:36:d7:3d:7c:27
        Signature Algorithm: sha256WithRSAEncryption
        Issuer: CN=team91-net
        Validity
            Not Before: Nov  4 11:29:11 2023 GMT
            Not After : Oct 19 11:29:11 2026 GMT
        Subject: CN=team91-server
        Subject Public Key Info:
            Public Key Algorithm: rsaEncryption
                Public-Key: (2048 bit)
                Modulus:
                    00:d1:22:2d:34:b8:7f:c4:b2:1f:e2:7a:8a:ab:93:
                    f2:ae:10:67:24:5c:22:89:3b:e6:78:90:ad:2b:da:
                    aa:48:dd:9e:7b:87:40:a9:78:4f:a6:b4:c6:5d:9e:
                    8b:e7:e4:47:57:ac:7b:ba:0c:e6:85:63:1d:56:be:
                    f8:d2:48:f7:50:08:78:80:df:12:6c:18:6b:1d:d1:
                    42:b2:12:d4:6f:25:f2:0b:bc:02:50:7d:2c:ad:62:
                    11:31:fc:f7:35:54:80:dc:50:29:52:82:9b:98:81:
                    c2:c8:8b:d6:5f:1a:16:ff:eb:2e:8d:65:cd:c8:d6:
                    76:53:a4:0d:14:15:a0:3b:4b:da:d8:78:c2:dc:48:
                    2f:b9:7e:c0:0e:25:dd:27:7e:0d:91:0f:d9:69:d1:
                    dc:b0:1a:d0:c5:50:00:c6:15:79:2e:08:8c:fd:75:
                    dd:89:9e:28:88:0e:99:73:36:1d:c2:c4:08:a7:ca:
                    fb:cc:cb:b2:f3:7e:cc:b3:d7:74:f9:6d:16:45:59:
                    d8:a0:cb:b4:ee:2f:54:78:fe:0c:26:c9:90:5f:81:
                    3c:3f:5b:99:d0:0c:6d:2e:88:e3:fb:75:5b:e2:6e:
                    b8:47:e8:76:cb:03:35:a4:90:e8:08:58:3f:0c:31:
                    b6:1d:c0:7a:32:5b:30:b9:42:ca:2c:3f:1a:5b:2c:
                    2f:a1
                Exponent: 65537 (0x10001)
        X509v3 extensions:
            X509v3 Basic Constraints: 
                CA:FALSE
            X509v3 Subject Key Identifier: 
                76:3C:1C:D6:85:86:92:32:77:5F:CA:BB:D6:98:F2:87:54:16:EE:1E
            X509v3 Authority Key Identifier: 
                keyid:5D:7A:CC:B7:52:9E:6B:B4:05:60:B4:BF:7B:9D:8A:17:22:B7:3D:78
                DirName:/CN=team91-net
                serial:3B:CE:7D:71:A2:EE:04:E8:BE:D4:5E:2F:7A:21:1A:57:47:8B:74:48
            X509v3 Extended Key Usage: 
                TLS Web Server Authentication
            X509v3 Key Usage: 
                Digital Signature, Key Encipherment
            X509v3 Subject Alternative Name: 
                DNS:team91-server
    Signature Algorithm: sha256WithRSAEncryption
    Signature Value:
        73:b7:a9:1e:a5:9a:e9:bf:40:42:11:48:4e:1b:b9:f8:e5:d0:
        0c:d6:05:f3:ac:7c:66:ac:3b:93:d1:2d:36:df:63:ef:11:51:
        90:40:ce:00:0c:e7:69:e7:ff:75:54:2f:b6:44:da:8d:38:a2:
        78:35:14:40:df:e1:9d:91:f3:0b:00:85:21:bd:71:a3:f7:2d:
        92:04:43:23:58:7a:14:8a:09:1c:ec:ea:c9:f3:1a:ac:ee:9b:
        db:78:cc:d1:db:48:39:b0:d7:6b:59:5c:80:68:3f:3f:95:0c:
        60:a7:5c:82:2b:5b:46:4b:b3:ce:12:5d:d3:d2:08:81:af:86:
        20:a4:92:f5:3f:e7:96:dd:54:6b:3c:31:f5:ce:da:ff:a2:b8:
        83:11:14:05:74:8f:1f:d2:0f:48:81:76:7c:79:28:c8:c4:88:
        74:01:d6:ab:0c:75:51:3d:48:50:f8:99:21:2f:69:2e:ff:e8:
        e8:76:91:c8:f0:34:d6:6b:53:44:d2:e0:a8:18:8d:9d:9b:6c:
        27:73:6b:e0:11:d9:72:4e:80:14:6b:20:b7:f8:93:c8:8a:fe:
        21:c9:71:12:c0:ea:69:35:5e:70:5c:0c:c0:47:52:86:71:b9:
        b6:65:e7:3d:36:03:03:2f:99:ac:a8:05:8a:d3:7a:3c:8f:c2:
        7b:a6:3a:64
-----BEGIN CERTIFICATE-----
MIIDdDCCAlygAwIBAgIRALiWRTwlWCpUmi9WNtc9fCcwDQYJKoZIhvcNAQELBQAw
FTETMBEGA1UEAwwKdGVhbTkxLW5ldDAeFw0yMzExMDQxMTI5MTFaFw0yNjEwMTkx
MTI5MTFaMBgxFjAUBgNVBAMMDXRlYW05MS1zZXJ2ZXIwggEiMA0GCSqGSIb3DQEB
AQUAA4IBDwAwggEKAoIBAQDRIi00uH/Esh/ieoqrk/KuEGckXCKJO+Z4kK0r2qpI
3Z57h0CpeE+mtMZdnovn5EdXrHu6DOaFYx1WvvjSSPdQCHiA3xJsGGsd0UKyEtRv
JfILvAJQfSytYhEx/Pc1VIDcUClSgpuYgcLIi9ZfGhb/6y6NZc3I1nZTpA0UFaA7
S9rYeMLcSC+5fsAOJd0nfg2RD9lp0dywGtDFUADGFXkuCIz9dd2JniiIDplzNh3C
xAinyvvMy7Lzfsyz13T5bRZFWdigy7TuL1R4/gwmyZBfgTw/W5nQDG0uiOP7dVvi
brhH6HbLAzWkkOgIWD8MMbYdwHoyWzC5QsosPxpbLC+hAgMBAAGjgbswgbgwCQYD
VR0TBAIwADAdBgNVHQ4EFgQUdjwc1oWGkjJ3X8q71pjyh1QW7h4wUAYDVR0jBEkw
R4AUXXrMt1Kea7QFYLS/e52KFyK3PXihGaQXMBUxEzARBgNVBAMMCnRlYW05MS1u
ZXSCFDvOfXGi7gTovtReL3ohGldHi3RIMBMGA1UdJQQMMAoGCCsGAQUFBwMBMAsG
A1UdDwQEAwIFoDAYBgNVHREEETAPgg10ZWFtOTEtc2VydmVyMA0GCSqGSIb3DQEB
CwUAA4IBAQBzt6kepZrpv0BCEUhOG7n45dAM1gXzrHxmrDuT0S0232PvEVGQQM4A
DOdp5/91VC+2RNqNOKJ4NRRA3+GdkfMLAIUhvXGj9y2SBEMjWHoUigkc7OrJ8xqs
7pvbeMzR20g5sNdrWVyAaD8/lQxgp1yCK1tGS7POEl3T0giBr4YgpJL1P+eW3VRr
PDH1ztr/oriDERQFdI8f0g9IgXZ8eSjIxIh0AdarDHVRPUhQ+JkhL2ku/+jodpHI
8DTWa1NE0uCoGI2dm2wnc2vgEdlyToAUayC3+JPIiv4hyXESwOppNV5wXAzAR1KG
cbm2Zec9NgMDL5msqAWK03o8j8J7pjpk
-----END CERTIFICATE-----
