Certificate:
    Data:
        Version: 3 (0x2)
        Serial Number:
            c8:3b:88:44:ee:ea:d3:d0:b0:94:ac:a1:2f:29:41:5e
        Signature Algorithm: sha256WithRSAEncryption
        Issuer: CN=team91-net
        Validity
            Not Before: Nov  4 10:42:06 2023 GMT
            Not After : Oct 19 10:42:06 2026 GMT
        Subject: CN=team91-client
        Subject Public Key Info:
            Public Key Algorithm: rsaEncryption
                Public-Key: (2048 bit)
                Modulus:
                    00:c2:5f:81:03:44:6a:51:05:7f:60:b4:86:b0:57:
                    b1:d6:9b:d9:b0:ee:cc:e2:75:28:eb:6a:d0:4f:5f:
                    49:86:e2:df:69:68:be:6d:74:98:b2:d3:88:9c:65:
                    e9:36:3f:d6:c0:1e:df:5c:b0:5a:28:e9:b2:75:e7:
                    f0:72:35:94:ba:ba:4d:5b:21:f7:3c:bb:00:7e:4e:
                    f8:59:de:8a:b8:c2:e2:ff:3d:ab:bb:65:16:73:b1:
                    79:82:e6:83:fe:6b:ce:00:d5:ad:60:39:e6:30:9f:
                    b6:d5:f9:03:4b:5d:55:26:bf:53:d2:7d:68:ab:7e:
                    7d:1a:ee:a3:f9:74:11:5a:3a:db:5a:e4:21:cb:f9:
                    4b:24:98:5f:30:bf:dd:46:67:20:d2:bd:b1:26:10:
                    c2:a2:ba:a5:cb:48:46:2d:98:e0:45:50:6a:81:71:
                    65:ee:7c:e7:23:d6:b1:94:79:89:37:5c:7d:54:b9:
                    90:05:bc:3b:cb:e9:4f:84:9d:3d:e9:e2:88:12:79:
                    a2:ae:7e:b8:ba:fb:7b:64:58:71:60:65:23:eb:7f:
                    cb:94:3d:d6:4b:b1:d0:83:8f:aa:82:5d:98:bc:cc:
                    3d:7f:08:8c:1c:53:6d:5e:e6:61:b3:27:fd:a7:50:
                    83:39:16:5f:a6:ae:7f:ca:e5:05:cc:8e:33:7d:c4:
                    3c:03
                Exponent: 65537 (0x10001)
        X509v3 extensions:
            X509v3 Basic Constraints: 
                CA:FALSE
            X509v3 Subject Key Identifier: 
                BC:8F:DF:C2:3B:40:EA:4F:92:82:63:E5:60:9F:1B:08:F8:C3:60:E7
            X509v3 Authority Key Identifier: 
                keyid:70:2F:F9:DB:9B:5D:6A:C9:79:24:75:64:CF:EA:3B:50:A4:C2:4D:26
                DirName:/CN=team91-net
                serial:4B:C1:CC:90:91:81:B7:6F:31:14:0C:8A:01:FC:D7:BE:B7:DD:FE:FE
            X509v3 Extended Key Usage: 
                TLS Web Client Authentication
            X509v3 Key Usage: 
                Digital Signature
    Signature Algorithm: sha256WithRSAEncryption
    Signature Value:
        23:17:ea:4f:b3:1f:1e:0d:c1:5c:98:14:46:de:45:f9:79:a5:
        55:e7:6c:8c:22:dd:a8:59:9f:a9:5b:fd:be:77:ee:6b:c9:c2:
        ec:21:54:e9:e2:42:fb:ad:36:4e:56:fb:34:99:ec:96:77:3f:
        d1:88:3e:50:ad:fb:63:eb:d9:08:16:0e:92:bf:c7:17:9f:a4:
        1c:d5:47:d5:71:a0:d9:e5:81:be:f6:d2:e9:87:69:86:d1:b9:
        cc:d1:9f:61:32:6f:36:81:ed:8d:ac:74:ab:e3:64:48:7a:4d:
        27:1b:d7:bb:cb:8f:ca:25:f7:ae:29:c8:1f:df:ec:55:ed:b9:
        a7:48:48:95:a9:32:be:88:72:39:6e:eb:65:e5:35:18:ed:f3:
        8a:e2:26:70:55:f2:ee:dd:c9:f4:b0:97:da:25:08:91:58:f9:
        28:71:00:a1:5f:a6:66:49:ff:c7:ec:ff:a4:5c:23:74:55:95:
        1b:29:95:29:f1:a9:94:e2:79:f9:6f:84:0e:b7:59:d6:2b:d0:
        8b:8d:21:f8:1e:01:7b:12:44:3b:65:7e:35:e6:14:1d:a9:e9:
        65:2f:2a:4a:75:3b:45:9c:a8:98:ba:9e:59:16:46:1b:31:70:
        e4:fc:5e:54:1a:99:c4:03:01:21:93:22:70:ad:fa:8e:61:73:
        29:7f:01:e0
-----BEGIN CERTIFICATE-----
MIIDWjCCAkKgAwIBAgIRAMg7iETu6tPQsJSsoS8pQV4wDQYJKoZIhvcNAQELBQAw
FTETMBEGA1UEAwwKdGVhbTkxLW5ldDAeFw0yMzExMDQxMDQyMDZaFw0yNjEwMTkx
MDQyMDZaMBgxFjAUBgNVBAMMDXRlYW05MS1jbGllbnQwggEiMA0GCSqGSIb3DQEB
AQUAA4IBDwAwggEKAoIBAQDCX4EDRGpRBX9gtIawV7HWm9mw7szidSjratBPX0mG
4t9paL5tdJiy04icZek2P9bAHt9csFoo6bJ15/ByNZS6uk1bIfc8uwB+TvhZ3oq4
wuL/Pau7ZRZzsXmC5oP+a84A1a1gOeYwn7bV+QNLXVUmv1PSfWirfn0a7qP5dBFa
Otta5CHL+UskmF8wv91GZyDSvbEmEMKiuqXLSEYtmOBFUGqBcWXufOcj1rGUeYk3
XH1UuZAFvDvL6U+EnT3p4ogSeaKufri6+3tkWHFgZSPrf8uUPdZLsdCDj6qCXZi8
zD1/CIwcU21e5mGzJ/2nUIM5Fl+mrn/K5QXMjjN9xDwDAgMBAAGjgaEwgZ4wCQYD
VR0TBAIwADAdBgNVHQ4EFgQUvI/fwjtA6k+SgmPlYJ8bCPjDYOcwUAYDVR0jBEkw
R4AUcC/525tdasl5JHVkz+o7UKTCTSahGaQXMBUxEzARBgNVBAMMCnRlYW05MS1u
ZXSCFEvBzJCRgbdvMRQMigH817633f7+MBMGA1UdJQQMMAoGCCsGAQUFBwMCMAsG
A1UdDwQEAwIHgDANBgkqhkiG9w0BAQsFAAOCAQEAIxfqT7MfHg3BXJgURt5F+Xml
VedsjCLdqFmfqVv9vnfua8nC7CFU6eJC+602Tlb7NJnslnc/0Yg+UK37Y+vZCBYO
kr/HF5+kHNVH1XGg2eWBvvbS6YdphtG5zNGfYTJvNoHtjax0q+NkSHpNJxvXu8uP
yiX3rinIH9/sVe25p0hIlakyvohyOW7rZeU1GO3ziuImcFXy7t3J9LCX2iUIkVj5
KHEAoV+mZkn/x+z/pFwjdFWVGymVKfGplOJ5+W+EDrdZ1ivQi40h+B4BexJEO2V+
NeYUHanpZS8qSnU7RZyomLqeWRZGGzFw5PxeVBqZxAMBIZMicK36jmFzKX8B4A==
-----END CERTIFICATE-----
