Certificate:
    Data:
        Version: 3 (0x2)
        Serial Number:
            6f:07:74:ae:24:ed:b7:46:64:e4:6d:93:74:23:a6:f6
        Signature Algorithm: sha256WithRSAEncryption
        Issuer: CN=team461-net
        Validity
            Not Before: Nov  3 20:47:40 2023 GMT
            Not After : Oct 18 20:47:40 2026 GMT
        Subject: CN=team461-client
        Subject Public Key Info:
            Public Key Algorithm: rsaEncryption
                Public-Key: (2048 bit)
                Modulus:
                    00:a7:74:a6:f6:c5:18:88:1f:b7:a4:9b:64:55:96:
                    91:5c:77:44:c4:91:2e:6a:35:a9:85:09:3a:15:be:
                    e3:c4:6e:03:4d:ae:12:3e:54:28:17:53:72:9a:5b:
                    d1:44:12:0f:6a:67:e3:20:8f:ac:b7:4d:b9:8c:57:
                    07:7b:d4:b6:48:75:64:a8:1a:49:16:06:21:71:ac:
                    96:c1:28:f5:4e:15:56:40:a7:5b:a2:a5:24:16:22:
                    35:9a:0d:5a:7a:48:a7:eb:03:cb:60:cd:69:f2:ba:
                    ef:27:94:16:9b:31:2f:ad:58:f1:cd:27:f2:a8:ca:
                    8e:b3:b6:d9:0e:87:f3:19:70:ca:e8:e4:9a:f9:8d:
                    3f:89:20:c3:6c:01:15:a6:48:0a:d7:fa:e4:73:ef:
                    df:1e:44:f0:4d:ef:9e:a7:5b:ab:dd:6c:5e:2c:df:
                    ab:b9:26:e9:39:e5:be:b5:8d:d2:34:94:82:b0:18:
                    c5:a3:f3:ba:7e:35:90:33:3f:27:f1:de:3e:bb:6a:
                    12:00:c9:c7:0d:0b:bc:14:b0:ea:c8:d8:d7:7d:fa:
                    5a:0a:5c:9f:73:8d:eb:35:30:b0:2c:07:cd:58:84:
                    c8:2d:c5:9d:95:3e:fe:ae:e2:97:d5:98:63:1a:c7:
                    fd:61:70:4a:bb:3a:05:b7:6e:5f:54:ad:1d:95:f6:
                    5c:ef
                Exponent: 65537 (0x10001)
        X509v3 extensions:
            X509v3 Basic Constraints: 
                CA:FALSE
            X509v3 Subject Key Identifier: 
                A4:A2:C4:CB:38:FD:7C:21:71:0E:9D:11:C0:BA:67:22:D9:9B:84:92
            X509v3 Authority Key Identifier: 
                keyid:E5:A3:E6:15:48:14:CB:A2:A5:19:FA:C7:0E:94:F2:BA:6D:B2:E9:2A
                DirName:/CN=team461-net
                serial:6F:F1:22:1C:01:E7:2E:FF:BE:D7:B0:DA:1C:60:77:04:47:7F:98:5C
            X509v3 Extended Key Usage: 
                TLS Web Client Authentication
            X509v3 Key Usage: 
                Digital Signature
    Signature Algorithm: sha256WithRSAEncryption
    Signature Value:
        0d:59:e8:51:48:cc:5a:b3:82:0e:2a:f3:55:43:1f:bb:cc:40:
        59:ab:5c:79:00:1a:54:1d:d2:1a:58:87:21:5b:99:d9:49:0e:
        0f:a1:cc:f1:26:25:ae:84:b3:98:68:d0:82:63:be:6c:76:4b:
        0d:9b:0a:e4:2a:ab:d1:d2:56:6a:86:61:b0:ae:b8:27:ef:ac:
        8b:62:c2:49:17:0f:21:d5:71:e3:fb:2d:5b:93:72:e2:f9:51:
        a4:ef:c2:3a:99:20:56:ea:70:3d:f8:44:4c:d5:a4:c2:1d:4c:
        55:dc:84:7d:21:5c:64:dd:12:d5:9f:ce:79:15:7b:df:16:72:
        9f:02:4d:40:df:44:c1:0a:1c:b6:a8:c8:91:86:93:75:0a:88:
        38:40:74:e6:7f:08:ee:77:77:91:10:5e:55:44:bb:0c:66:58:
        3b:9d:eb:50:c4:eb:12:54:07:27:26:24:fc:b0:6f:0e:d5:ed:
        19:41:2e:48:8e:39:6a:e8:fa:a2:0a:06:03:c9:ff:a7:4d:81:
        e4:4e:58:3e:90:93:86:67:b9:ca:07:e0:2b:75:91:8c:cf:cc:
        42:70:08:f8:23:aa:1d:0e:a1:ff:14:b6:6c:0a:6d:75:13:8d:
        8a:62:f0:b8:cc:a9:c3:ab:c0:cd:fd:8e:0a:51:bc:76:22:14:
        45:d2:04:c2
-----BEGIN CERTIFICATE-----
MIIDXDCCAkSgAwIBAgIQbwd0riTtt0Zk5G2TdCOm9jANBgkqhkiG9w0BAQsFADAW
MRQwEgYDVQQDDAt0ZWFtNDYxLW5ldDAeFw0yMzExMDMyMDQ3NDBaFw0yNjEwMTgy
MDQ3NDBaMBkxFzAVBgNVBAMMDnRlYW00NjEtY2xpZW50MIIBIjANBgkqhkiG9w0B
AQEFAAOCAQ8AMIIBCgKCAQEAp3Sm9sUYiB+3pJtkVZaRXHdExJEuajWphQk6Fb7j
xG4DTa4SPlQoF1NymlvRRBIPamfjII+st025jFcHe9S2SHVkqBpJFgYhcayWwSj1
ThVWQKdboqUkFiI1mg1aekin6wPLYM1p8rrvJ5QWmzEvrVjxzSfyqMqOs7bZDofz
GXDK6OSa+Y0/iSDDbAEVpkgK1/rkc+/fHkTwTe+ep1ur3WxeLN+ruSbpOeW+tY3S
NJSCsBjFo/O6fjWQMz8n8d4+u2oSAMnHDQu8FLDqyNjXffpaClyfc43rNTCwLAfN
WITILcWdlT7+ruKX1ZhjGsf9YXBKuzoFt25fVK0dlfZc7wIDAQABo4GiMIGfMAkG
A1UdEwQCMAAwHQYDVR0OBBYEFKSixMs4/XwhcQ6dEcC6ZyLZm4SSMFEGA1UdIwRK
MEiAFOWj5hVIFMuipRn6xw6U8rptsukqoRqkGDAWMRQwEgYDVQQDDAt0ZWFtNDYx
LW5ldIIUb/EiHAHnLv++17DaHGB3BEd/mFwwEwYDVR0lBAwwCgYIKwYBBQUHAwIw
CwYDVR0PBAQDAgeAMA0GCSqGSIb3DQEBCwUAA4IBAQANWehRSMxas4IOKvNVQx+7
zEBZq1x5ABpUHdIaWIchW5nZSQ4PoczxJiWuhLOYaNCCY75sdksNmwrkKqvR0lZq
hmGwrrgn76yLYsJJFw8h1XHj+y1bk3Li+VGk78I6mSBW6nA9+ERM1aTCHUxV3IR9
IVxk3RLVn855FXvfFnKfAk1A30TBChy2qMiRhpN1Cog4QHTmfwjud3eREF5VRLsM
Zlg7netQxOsSVAcnJiT8sG8O1e0ZQS5Ijjlq6PqiCgYDyf+nTYHkTlg+kJOGZ7nK
B+ArdZGMz8xCcAj4I6odDqH/FLZsCm11E42KYvC4zKnDq8DN/Y4KUbx2IhRF0gTC
-----END CERTIFICATE-----
