Certificate:
    Data:
        Version: 3 (0x2)
        Serial Number:
            40:47:a8:35:b2:0a:f9:74:58:84:0d:94:cf:a3:fd:75
        Signature Algorithm: sha256WithRSAEncryption
        Issuer: CN=team251-net
        Validity
            Not Before: Nov  4 10:45:21 2023 GMT
            Not After : Oct 19 10:45:21 2026 GMT
        Subject: CN=team251-server
        Subject Public Key Info:
            Public Key Algorithm: rsaEncryption
                Public-Key: (2048 bit)
                Modulus:
                    00:c1:a3:a5:7a:d3:20:44:bb:29:00:79:30:2e:36:
                    a4:86:c4:2f:5d:70:3b:fc:fe:3a:6b:09:d6:b5:fa:
                    ba:1e:5a:7d:a6:d2:2f:c0:5e:80:66:21:4e:ea:22:
                    28:56:9c:1e:98:69:7c:3e:79:1f:91:a2:64:ce:d6:
                    b8:41:1f:4b:3e:d3:17:55:f4:c0:5a:24:6a:38:93:
                    9f:b6:e0:8a:bd:4d:41:1d:ae:cd:19:6f:93:df:ce:
                    e4:f3:38:d4:c9:4d:15:68:92:ef:a1:dc:88:95:39:
                    77:50:ed:9c:57:13:bd:76:6e:97:c8:ee:28:18:e0:
                    1c:b5:d0:65:5e:3b:05:c7:b5:e5:eb:ef:91:a2:ae:
                    2e:0e:ae:b9:08:1a:53:f1:d7:4c:d5:82:b5:de:b3:
                    fb:28:f4:2a:80:72:f0:79:b1:22:61:03:85:6f:b1:
                    b7:8c:fc:4b:be:ba:fe:de:2b:f2:94:95:66:95:a7:
                    73:1e:8f:3c:04:00:c3:93:06:1f:c5:bf:c9:01:c5:
                    a5:19:44:f2:ea:39:43:dd:03:e9:02:0d:5b:6f:9d:
                    76:4c:44:6a:72:f4:21:91:bc:48:d5:34:12:1a:b6:
                    82:cc:f2:c7:64:d8:5f:01:51:12:28:fe:5e:fe:fa:
                    6a:0a:06:6e:37:19:c6:ec:6e:93:e9:37:53:8e:47:
                    83:a1
                Exponent: 65537 (0x10001)
        X509v3 extensions:
            X509v3 Basic Constraints: 
                CA:FALSE
            X509v3 Subject Key Identifier: 
                0B:F3:2C:49:C2:20:EF:9E:38:5C:76:25:8A:D9:32:59:8A:77:58:5F
            X509v3 Authority Key Identifier: 
                keyid:CD:07:18:6B:04:57:0E:F7:60:F5:45:86:41:D3:88:AC:C9:F0:91:DC
                DirName:/CN=team251-net
                serial:40:4D:CF:46:8E:92:DD:D7:8B:31:C1:C6:26:D8:F0:26:6B:35:6B:BB
            X509v3 Extended Key Usage: 
                TLS Web Server Authentication
            X509v3 Key Usage: 
                Digital Signature, Key Encipherment
            X509v3 Subject Alternative Name: 
                DNS:team251-server
    Signature Algorithm: sha256WithRSAEncryption
    Signature Value:
        80:1e:a7:af:aa:6e:c8:f2:97:32:c6:f2:08:66:3a:a9:3e:95:
        16:f0:74:24:67:c7:64:51:1e:b2:57:cf:af:ca:12:2d:69:47:
        72:dc:00:fa:b8:43:21:2a:ed:78:e4:1a:f3:c6:cc:16:7a:ef:
        88:38:46:be:c1:c8:2a:3f:d7:55:76:d7:f3:95:ae:f1:a1:ae:
        7b:1a:c3:c5:9c:a2:b7:2c:3b:21:f0:ec:40:bc:4d:30:eb:e3:
        22:6f:1f:16:e1:1d:5f:cc:36:b5:c5:db:1e:72:f3:cd:c1:df:
        9d:f7:01:18:6b:cb:1a:0e:b7:59:08:65:60:4d:77:91:56:8d:
        56:75:b9:a1:2d:16:16:a7:f0:3b:61:ea:46:37:9f:27:7d:34:
        53:0e:8b:b4:1c:c5:a0:da:8f:a2:dc:d0:8d:f7:31:40:99:61:
        e1:31:83:9f:a5:8c:ac:6d:04:ca:5a:d1:55:91:08:93:6f:db:
        86:f7:e6:50:fc:5e:2c:d2:f4:d7:9c:7d:c9:c1:ff:21:c8:86:
        9e:8b:65:f5:b8:fa:52:e7:09:60:82:fd:a6:d2:42:4d:b8:ef:
        ec:1d:2c:69:28:29:15:9c:b3:87:5d:0b:cf:ba:06:34:b0:61:
        e4:02:45:c2:0b:6c:84:c0:80:9e:9f:3a:99:0f:22:c5:54:60:
        37:3d:2f:43
-----BEGIN CERTIFICATE-----
MIIDdzCCAl+gAwIBAgIQQEeoNbIK+XRYhA2Uz6P9dTANBgkqhkiG9w0BAQsFADAW
MRQwEgYDVQQDDAt0ZWFtMjUxLW5ldDAeFw0yMzExMDQxMDQ1MjFaFw0yNjEwMTkx
MDQ1MjFaMBkxFzAVBgNVBAMMDnRlYW0yNTEtc2VydmVyMIIBIjANBgkqhkiG9w0B
AQEFAAOCAQ8AMIIBCgKCAQEAwaOletMgRLspAHkwLjakhsQvXXA7/P46awnWtfq6
Hlp9ptIvwF6AZiFO6iIoVpwemGl8PnkfkaJkzta4QR9LPtMXVfTAWiRqOJOftuCK
vU1BHa7NGW+T387k8zjUyU0VaJLvodyIlTl3UO2cVxO9dm6XyO4oGOActdBlXjsF
x7Xl6++Roq4uDq65CBpT8ddM1YK13rP7KPQqgHLwebEiYQOFb7G3jPxLvrr+3ivy
lJVmladzHo88BADDkwYfxb/JAcWlGUTy6jlD3QPpAg1bb512TERqcvQhkbxI1TQS
GraCzPLHZNhfAVESKP5e/vpqCgZuNxnG7G6T6TdTjkeDoQIDAQABo4G9MIG6MAkG
A1UdEwQCMAAwHQYDVR0OBBYEFAvzLEnCIO+eOFx2JYrZMlmKd1hfMFEGA1UdIwRK
MEiAFM0HGGsEVw73YPVFhkHTiKzJ8JHcoRqkGDAWMRQwEgYDVQQDDAt0ZWFtMjUx
LW5ldIIUQE3PRo6S3deLMcHGJtjwJms1a7swEwYDVR0lBAwwCgYIKwYBBQUHAwEw
CwYDVR0PBAQDAgWgMBkGA1UdEQQSMBCCDnRlYW0yNTEtc2VydmVyMA0GCSqGSIb3
DQEBCwUAA4IBAQCAHqevqm7I8pcyxvIIZjqpPpUW8HQkZ8dkUR6yV8+vyhItaUdy
3AD6uEMhKu145BrzxswWeu+IOEa+wcgqP9dVdtfzla7xoa57GsPFnKK3LDsh8OxA
vE0w6+Mibx8W4R1fzDa1xdsecvPNwd+d9wEYa8saDrdZCGVgTXeRVo1WdbmhLRYW
p/A7YepGN58nfTRTDou0HMWg2o+i3NCN9zFAmWHhMYOfpYysbQTKWtFVkQiTb9uG
9+ZQ/F4s0vTXnH3Jwf8hyIaei2X1uPpS5wlggv2m0kJNuO/sHSxpKCkVnLOHXQvP
ugY0sGHkAkXCC2yEwICenzqZDyLFVGA3PS9D
-----END CERTIFICATE-----
