Certificate:
    Data:
        Version: 3 (0x2)
        Serial Number:
            94:4b:a6:fd:f8:33:95:ef:67:e1:9f:ef:52:45:7a:31
        Signature Algorithm: sha256WithRSAEncryption
        Issuer: CN=team251-net
        Validity
            Not Before: Nov  4 11:32:35 2023 GMT
            Not After : Oct 19 11:32:35 2026 GMT
        Subject: CN=team251-server
        Subject Public Key Info:
            Public Key Algorithm: rsaEncryption
                Public-Key: (2048 bit)
                Modulus:
                    00:8b:a3:6f:c3:53:11:b6:18:99:a0:3c:0e:f5:03:
                    de:07:10:1c:8d:54:6f:54:4d:10:fd:98:2c:7d:f4:
                    3a:65:2e:4e:16:de:19:e2:33:d6:81:64:46:06:16:
                    77:14:90:f0:5c:9b:34:b9:96:e7:d9:1c:39:8b:ff:
                    25:ff:01:dc:5a:dd:19:27:ce:4a:dc:cd:70:1d:3a:
                    b1:bd:72:fc:90:44:25:3c:99:5f:d7:fa:4d:aa:e2:
                    17:f2:31:d3:e0:ef:b0:b4:65:39:6f:a5:09:a4:2a:
                    b5:ee:a3:6e:10:b8:23:5a:49:99:7e:15:8b:70:6e:
                    67:95:6a:c4:23:03:16:d8:19:67:e5:1e:c8:4d:f9:
                    9c:35:69:6f:07:a6:55:17:4d:0a:3d:90:1d:6a:8d:
                    dd:4a:97:03:43:b4:d2:ff:f2:dc:64:bb:4e:f4:af:
                    f9:81:85:37:f8:4c:5e:d3:be:dd:30:38:ee:c0:7c:
                    03:04:7a:83:8b:86:76:29:65:55:c3:61:7e:ee:36:
                    2a:6f:9e:d6:ab:48:79:ca:e4:5d:40:b4:7f:c7:8b:
                    7d:67:23:c2:44:b3:6b:a6:b8:9b:4f:29:ed:5e:70:
                    62:87:6f:e3:e2:ae:14:af:10:6e:d1:02:9f:d6:3e:
                    ea:b1:70:c2:79:f7:06:a4:cb:f5:04:6c:d6:98:7a:
                    cb:e7
                Exponent: 65537 (0x10001)
        X509v3 extensions:
            X509v3 Basic Constraints: 
                CA:FALSE
            X509v3 Subject Key Identifier: 
                46:23:0F:5D:CF:56:A4:FF:4C:6F:C1:FC:6B:B2:18:29:CA:B5:24:5F
            X509v3 Authority Key Identifier: 
                keyid:58:39:CF:11:25:38:EA:0D:AF:45:61:E6:8F:4E:1B:60:D2:0D:42:1D
                DirName:/CN=team251-net
                serial:65:E7:02:71:68:43:F1:DF:B7:4D:1A:96:CD:AA:DC:E0:9A:BA:A9:1E
            X509v3 Extended Key Usage: 
                TLS Web Server Authentication
            X509v3 Key Usage: 
                Digital Signature, Key Encipherment
            X509v3 Subject Alternative Name: 
                DNS:team251-server
    Signature Algorithm: sha256WithRSAEncryption
    Signature Value:
        65:2b:1d:54:1c:6b:11:56:07:73:b3:62:02:35:ef:c0:b5:09:
        27:68:ec:b9:3b:5d:8b:12:51:49:e8:0a:56:e0:6a:3c:86:de:
        25:14:0e:92:da:7c:4b:7e:f0:f9:28:06:31:5b:a5:59:ca:22:
        b7:31:48:db:93:3e:87:b5:2a:b5:e1:80:f1:b2:36:3e:42:57:
        ec:a6:7e:48:89:a1:cc:45:dc:d3:54:39:c1:77:40:31:29:f3:
        a9:4d:9c:72:cd:b2:13:09:a4:d6:b1:7c:a6:db:06:26:88:f4:
        7b:26:4d:e0:00:c9:2f:77:5a:ee:70:56:b8:90:f5:2d:7b:35:
        ea:82:bf:2f:e4:d5:23:6e:2b:e0:43:a5:bf:a6:4a:33:9e:b9:
        59:3f:ad:89:45:e5:84:b3:ff:c0:8d:44:90:c1:68:f3:ac:1d:
        81:64:ef:53:d4:20:7b:bf:30:b6:99:9f:e1:de:5f:07:48:6b:
        85:25:87:a2:91:5a:b5:e9:0f:bb:8a:b2:f6:0d:15:c7:a6:9b:
        f6:78:e2:5b:72:f0:8a:ca:5b:64:11:87:7e:09:4a:e9:2b:f2:
        b8:2b:54:61:22:99:2c:83:18:f9:69:c6:d7:53:46:e4:ee:6d:
        8c:a9:1f:ce:30:55:e5:cf:a5:f9:f1:2a:30:29:d0:7c:33:a3:
        1a:96:b3:3a
-----BEGIN CERTIFICATE-----
MIIDeDCCAmCgAwIBAgIRAJRLpv34M5XvZ+Gf71JFejEwDQYJKoZIhvcNAQELBQAw
FjEUMBIGA1UEAwwLdGVhbTI1MS1uZXQwHhcNMjMxMTA0MTEzMjM1WhcNMjYxMDE5
MTEzMjM1WjAZMRcwFQYDVQQDDA50ZWFtMjUxLXNlcnZlcjCCASIwDQYJKoZIhvcN
AQEBBQADggEPADCCAQoCggEBAIujb8NTEbYYmaA8DvUD3gcQHI1Ub1RNEP2YLH30
OmUuThbeGeIz1oFkRgYWdxSQ8FybNLmW59kcOYv/Jf8B3FrdGSfOStzNcB06sb1y
/JBEJTyZX9f6TariF/Ix0+DvsLRlOW+lCaQqte6jbhC4I1pJmX4Vi3BuZ5VqxCMD
FtgZZ+UeyE35nDVpbwemVRdNCj2QHWqN3UqXA0O00v/y3GS7TvSv+YGFN/hMXtO+
3TA47sB8AwR6g4uGdillVcNhfu42Km+e1qtIecrkXUC0f8eLfWcjwkSza6a4m08p
7V5wYodv4+KuFK8QbtECn9Y+6rFwwnn3BqTL9QRs1ph6y+cCAwEAAaOBvTCBujAJ
BgNVHRMEAjAAMB0GA1UdDgQWBBRGIw9dz1ak/0xvwfxrshgpyrUkXzBRBgNVHSME
SjBIgBRYOc8RJTjqDa9FYeaPThtg0g1CHaEapBgwFjEUMBIGA1UEAwwLdGVhbTI1
MS1uZXSCFGXnAnFoQ/Hft00als2q3OCauqkeMBMGA1UdJQQMMAoGCCsGAQUFBwMB
MAsGA1UdDwQEAwIFoDAZBgNVHREEEjAQgg50ZWFtMjUxLXNlcnZlcjANBgkqhkiG
9w0BAQsFAAOCAQEAZSsdVBxrEVYHc7NiAjXvwLUJJ2jsuTtdixJRSegKVuBqPIbe
JRQOktp8S37w+SgGMVulWcoitzFI25M+h7UqteGA8bI2PkJX7KZ+SImhzEXc01Q5
wXdAMSnzqU2ccs2yEwmk1rF8ptsGJoj0eyZN4ADJL3da7nBWuJD1LXs16oK/L+TV
I24r4EOlv6ZKM565WT+tiUXlhLP/wI1EkMFo86wdgWTvU9Qge78wtpmf4d5fB0hr
hSWHopFatekPu4qy9g0Vx6ab9njiW3LwispbZBGHfglK6SvyuCtUYSKZLIMY+WnG
11NG5O5tjKkfzjBV5c+l+fEqMCnQfDOjGpazOg==
-----END CERTIFICATE-----
