Certificate:
    Data:
        Version: 3 (0x2)
        Serial Number:
            e0:55:83:bf:8c:0b:a9:9e:a7:e1:d0:3d:2a:a1:c2:81
        Signature Algorithm: sha256WithRSAEncryption
        Issuer: CN=team251-net
        Validity
            Not Before: Nov  4 11:32:34 2023 GMT
            Not After : Oct 19 11:32:34 2026 GMT
        Subject: CN=team251-client
        Subject Public Key Info:
            Public Key Algorithm: rsaEncryption
                Public-Key: (2048 bit)
                Modulus:
                    00:b4:47:b1:bb:58:ab:1f:3c:d0:75:b4:21:20:b8:
                    81:7d:13:09:ba:0f:8e:1b:d1:09:38:38:ce:e7:92:
                    90:be:d9:f4:54:ce:9e:f3:17:f8:ad:8c:ea:81:46:
                    d4:b2:4b:74:91:b7:4f:c1:b9:ea:a2:79:0b:2c:91:
                    70:58:4f:da:10:06:7e:f3:d5:f6:03:66:1d:d2:db:
                    80:30:2d:55:bd:cd:90:62:59:bf:cb:39:37:bc:d2:
                    59:e7:be:cb:28:de:0e:ee:8f:37:7a:a7:3c:e3:10:
                    fe:e2:c9:02:e5:95:e4:63:c4:37:5f:f5:22:a0:2e:
                    1f:c1:24:af:fd:de:96:2f:05:38:ea:b1:4c:ea:be:
                    83:1f:9a:eb:66:e6:b8:c5:74:eb:1e:53:a6:4a:ec:
                    72:20:90:28:9e:33:80:c0:7d:1e:64:c1:42:85:cd:
                    84:31:b4:36:5a:a2:8e:75:e3:ad:37:0d:d8:d8:cf:
                    29:c0:67:6f:12:4d:6e:61:b0:28:90:1a:1d:eb:0e:
                    52:c2:46:ed:76:ad:69:a6:0d:36:1c:41:4e:1d:9b:
                    59:c3:28:c7:d1:e2:2c:5c:76:bf:fa:1f:3f:c3:1a:
                    c7:8a:15:2e:21:71:c4:0e:f6:eb:6b:ad:c8:24:dc:
                    6d:e3:cb:55:a9:43:e9:52:d4:16:d0:c8:95:66:ad:
                    eb:1b
                Exponent: 65537 (0x10001)
        X509v3 extensions:
            X509v3 Basic Constraints: 
                CA:FALSE
            X509v3 Subject Key Identifier: 
                3F:AF:0B:DD:0E:28:96:52:A7:75:9E:BB:A0:8E:7C:2C:43:23:F2:C8
            X509v3 Authority Key Identifier: 
                keyid:58:39:CF:11:25:38:EA:0D:AF:45:61:E6:8F:4E:1B:60:D2:0D:42:1D
                DirName:/CN=team251-net
                serial:65:E7:02:71:68:43:F1:DF:B7:4D:1A:96:CD:AA:DC:E0:9A:BA:A9:1E
            X509v3 Extended Key Usage: 
                TLS Web Client Authentication
            X509v3 Key Usage: 
                Digital Signature
    Signature Algorithm: sha256WithRSAEncryption
    Signature Value:
        54:51:3f:7d:2b:86:d1:c1:2d:1b:e8:67:61:98:07:11:81:4f:
        77:7e:87:c4:9c:10:fd:e4:76:8c:ec:2c:66:04:5f:1b:56:1a:
        db:46:14:07:fe:fe:c6:b4:91:49:32:99:0f:b0:7c:ae:28:d0:
        37:eb:43:92:0f:bf:97:d5:23:5a:cc:8e:3d:c6:2b:fb:e8:8b:
        b3:0d:42:f3:33:8b:4b:70:93:4c:e5:59:92:93:45:ba:82:24:
        9e:f6:42:55:46:78:87:61:b9:18:a0:c1:8e:b2:20:05:fa:3d:
        db:d6:93:ca:4d:56:5a:e9:f9:05:38:a5:25:04:79:33:68:52:
        2b:54:f8:34:f3:b8:ef:2c:ab:f5:6a:95:51:08:2c:fb:fe:88:
        93:f8:1d:e7:83:80:77:64:94:a6:16:fe:fd:ec:fd:c5:00:5d:
        90:6e:1c:d5:27:b2:b1:44:b9:2a:0e:db:f0:ce:be:92:99:b0:
        ff:f5:cf:3a:b0:76:ef:05:1c:48:16:23:8a:d9:7a:28:3f:4b:
        1b:1a:fd:ce:b6:28:e1:10:64:b5:9b:8e:a1:61:cc:04:eb:77:
        0d:ff:d8:8e:20:1a:db:80:ca:54:12:b5:7d:d9:d7:db:04:12:
        9f:37:a8:64:47:fa:f8:b5:c2:b0:8d:8b:7e:f7:1c:5b:bc:0d:
        dd:bc:25:ed
-----BEGIN CERTIFICATE-----
MIIDXTCCAkWgAwIBAgIRAOBVg7+MC6mep+HQPSqhwoEwDQYJKoZIhvcNAQELBQAw
FjEUMBIGA1UEAwwLdGVhbTI1MS1uZXQwHhcNMjMxMTA0MTEzMjM0WhcNMjYxMDE5
MTEzMjM0WjAZMRcwFQYDVQQDDA50ZWFtMjUxLWNsaWVudDCCASIwDQYJKoZIhvcN
AQEBBQADggEPADCCAQoCggEBALRHsbtYqx880HW0ISC4gX0TCboPjhvRCTg4zueS
kL7Z9FTOnvMX+K2M6oFG1LJLdJG3T8G56qJ5CyyRcFhP2hAGfvPV9gNmHdLbgDAt
Vb3NkGJZv8s5N7zSWee+yyjeDu6PN3qnPOMQ/uLJAuWV5GPEN1/1IqAuH8Ekr/3e
li8FOOqxTOq+gx+a62bmuMV06x5TpkrsciCQKJ4zgMB9HmTBQoXNhDG0NlqijnXj
rTcN2NjPKcBnbxJNbmGwKJAaHesOUsJG7XataaYNNhxBTh2bWcMox9HiLFx2v/of
P8Max4oVLiFxxA7262utyCTcbePLValD6VLUFtDIlWat6xsCAwEAAaOBojCBnzAJ
BgNVHRMEAjAAMB0GA1UdDgQWBBQ/rwvdDiiWUqd1nrugjnwsQyPyyDBRBgNVHSME
SjBIgBRYOc8RJTjqDa9FYeaPThtg0g1CHaEapBgwFjEUMBIGA1UEAwwLdGVhbTI1
MS1uZXSCFGXnAnFoQ/Hft00als2q3OCauqkeMBMGA1UdJQQMMAoGCCsGAQUFBwMC
MAsGA1UdDwQEAwIHgDANBgkqhkiG9w0BAQsFAAOCAQEAVFE/fSuG0cEtG+hnYZgH
EYFPd36HxJwQ/eR2jOwsZgRfG1Ya20YUB/7+xrSRSTKZD7B8rijQN+tDkg+/l9Uj
WsyOPcYr++iLsw1C8zOLS3CTTOVZkpNFuoIknvZCVUZ4h2G5GKDBjrIgBfo929aT
yk1WWun5BTilJQR5M2hSK1T4NPO47yyr9WqVUQgs+/6Ik/gd54OAd2SUphb+/ez9
xQBdkG4c1SeysUS5Kg7b8M6+kpmw//XPOrB27wUcSBYjitl6KD9LGxr9zrYo4RBk
tZuOoWHMBOt3Df/YjiAa24DKVBK1fdnX2wQSnzeoZEf6+LXCsI2LfvccW7wN3bwl
7Q==
-----END CERTIFICATE-----
