Certificate:
    Data:
        Version: 3 (0x2)
        Serial Number:
            e4:4a:69:e8:a9:c4:70:09:59:39:34:28:73:6d:b0:f5
        Signature Algorithm: sha256WithRSAEncryption
        Issuer: CN=team28-net
        Validity
            Not Before: Nov  3 20:39:45 2023 GMT
            Not After : Oct 18 20:39:45 2026 GMT
        Subject: CN=team28-server
        Subject Public Key Info:
            Public Key Algorithm: rsaEncryption
                Public-Key: (2048 bit)
                Modulus:
                    00:b6:05:8a:14:3b:88:08:7d:19:c3:80:cc:21:19:
                    50:ce:3e:c1:74:c8:28:26:db:8f:c1:a7:94:4c:0e:
                    be:de:1d:4f:97:11:d0:0e:7a:0a:d9:76:65:31:d3:
                    69:cf:4f:4b:30:c9:05:de:06:df:65:47:ee:73:3e:
                    2b:99:d0:38:79:0e:8c:32:47:e7:52:1c:88:14:90:
                    f2:d7:39:ce:fe:01:43:fe:72:0e:17:c9:ad:ea:35:
                    ea:64:6c:25:43:fa:4d:9e:8f:6f:4e:85:58:f4:78:
                    fe:45:45:4d:f8:0a:bc:20:18:2c:54:1f:d8:ee:a5:
                    16:50:42:0f:cd:af:7a:67:fe:45:ba:53:de:21:b6:
                    b2:74:60:9a:6b:e1:05:09:d8:e5:e6:dc:7f:ab:8c:
                    c2:f0:93:78:19:4c:af:f9:3d:1b:8e:e9:26:fd:9e:
                    74:59:4a:87:41:3e:55:d3:44:c6:b5:fc:1d:3d:37:
                    7a:9c:3a:d9:f6:38:6e:b8:3e:db:75:31:a7:91:8d:
                    6d:3a:c6:03:da:7c:10:f3:ac:c9:91:41:f9:d4:f0:
                    7a:f6:03:91:b5:c0:18:8e:be:5d:76:aa:20:5b:18:
                    b4:86:8f:13:1f:d1:e3:19:2e:e7:75:c3:48:c4:16:
                    c0:a5:ed:04:de:c7:55:5f:a6:dd:0e:68:e4:5a:91:
                    8f:91
                Exponent: 65537 (0x10001)
        X509v3 extensions:
            X509v3 Basic Constraints: 
                CA:FALSE
            X509v3 Subject Key Identifier: 
                D5:32:48:53:AC:B3:00:F4:CC:B4:62:78:73:23:C3:C2:62:2C:DF:4C
            X509v3 Authority Key Identifier: 
                keyid:FD:C2:63:AA:24:FC:97:30:D9:7C:EC:9C:E4:5B:BC:0D:4B:AA:C1:4C
                DirName:/CN=team28-net
                serial:5A:EE:BC:8C:8F:06:DF:59:CB:83:51:63:96:9E:E1:C9:95:17:D5:BC
            X509v3 Extended Key Usage: 
                TLS Web Server Authentication
            X509v3 Key Usage: 
                Digital Signature, Key Encipherment
            X509v3 Subject Alternative Name: 
                DNS:team28-server
    Signature Algorithm: sha256WithRSAEncryption
    Signature Value:
        9e:a3:88:30:f4:85:74:d2:9c:5c:6d:70:99:9a:33:ec:7d:6c:
        dd:80:26:df:b4:df:3a:40:fc:80:36:be:89:ba:fa:1c:07:6f:
        3f:1d:a9:51:7b:65:7c:c5:82:00:40:36:eb:13:50:30:42:26:
        1a:fb:da:93:48:1b:00:c7:f3:83:06:8b:fb:3c:ce:c1:fb:eb:
        df:d8:27:06:0a:d3:7b:cf:22:82:dc:a7:da:7d:a8:0b:a8:58:
        95:a5:5e:ab:5b:b3:58:f1:fb:a4:27:99:4d:1c:75:42:7f:31:
        cc:29:fe:77:e3:a2:77:28:8b:1d:3a:54:6b:b3:4a:a1:b0:44:
        e3:31:fc:cd:7b:d0:cf:31:f6:fe:56:e7:87:d8:98:f9:56:8d:
        d6:7c:cf:8b:1f:a3:09:18:69:ce:01:a1:7c:bc:be:18:c6:5c:
        7f:10:8c:07:5e:5e:9c:2c:db:73:6f:ec:67:53:96:3e:9a:25:
        97:b4:28:0c:63:8f:34:99:4c:fd:2b:b9:fb:50:5b:7b:3a:7a:
        8a:35:0f:67:7c:6e:7b:ec:bb:00:30:fd:0f:05:00:63:c5:3a:
        f1:8b:4d:ed:98:4e:f4:53:d5:2a:c8:3e:6a:eb:db:8f:17:4a:
        ba:eb:73:3e:8e:74:fe:5a:40:7b:65:19:16:05:85:c4:95:57:
        00:ab:60:c7
-----BEGIN CERTIFICATE-----
MIIDdDCCAlygAwIBAgIRAORKaeipxHAJWTk0KHNtsPUwDQYJKoZIhvcNAQELBQAw
FTETMBEGA1UEAwwKdGVhbTI4LW5ldDAeFw0yMzExMDMyMDM5NDVaFw0yNjEwMTgy
MDM5NDVaMBgxFjAUBgNVBAMMDXRlYW0yOC1zZXJ2ZXIwggEiMA0GCSqGSIb3DQEB
AQUAA4IBDwAwggEKAoIBAQC2BYoUO4gIfRnDgMwhGVDOPsF0yCgm24/Bp5RMDr7e
HU+XEdAOegrZdmUx02nPT0swyQXeBt9lR+5zPiuZ0Dh5DowyR+dSHIgUkPLXOc7+
AUP+cg4Xya3qNepkbCVD+k2ej29OhVj0eP5FRU34CrwgGCxUH9jupRZQQg/Nr3pn
/kW6U94htrJ0YJpr4QUJ2OXm3H+rjMLwk3gZTK/5PRuO6Sb9nnRZSodBPlXTRMa1
/B09N3qcOtn2OG64Ptt1MaeRjW06xgPafBDzrMmRQfnU8Hr2A5G1wBiOvl12qiBb
GLSGjxMf0eMZLud1w0jEFsCl7QTex1Vfpt0OaORakY+RAgMBAAGjgbswgbgwCQYD
VR0TBAIwADAdBgNVHQ4EFgQU1TJIU6yzAPTMtGJ4cyPDwmIs30wwUAYDVR0jBEkw
R4AU/cJjqiT8lzDZfOyc5Fu8DUuqwUyhGaQXMBUxEzARBgNVBAMMCnRlYW0yOC1u
ZXSCFFruvIyPBt9Zy4NRY5ae4cmVF9W8MBMGA1UdJQQMMAoGCCsGAQUFBwMBMAsG
A1UdDwQEAwIFoDAYBgNVHREEETAPgg10ZWFtMjgtc2VydmVyMA0GCSqGSIb3DQEB
CwUAA4IBAQCeo4gw9IV00pxcbXCZmjPsfWzdgCbftN86QPyANr6JuvocB28/HalR
e2V8xYIAQDbrE1AwQiYa+9qTSBsAx/ODBov7PM7B++vf2CcGCtN7zyKC3KfafagL
qFiVpV6rW7NY8fukJ5lNHHVCfzHMKf5346J3KIsdOlRrs0qhsETjMfzNe9DPMfb+
VueH2Jj5Vo3WfM+LH6MJGGnOAaF8vL4Yxlx/EIwHXl6cLNtzb+xnU5Y+miWXtCgM
Y480mUz9K7n7UFt7OnqKNQ9nfG577LsAMP0PBQBjxTrxi03tmE70U9UqyD5q69uP
F0q663M+jnT+WkB7ZRkWBYXElVcAq2DH
-----END CERTIFICATE-----
