Certificate:
    Data:
        Version: 3 (0x2)
        Serial Number:
            27:dd:ea:8e:74:d0:d8:b8:7a:0d:3e:34:fa:94:21:de
        Signature Algorithm: sha256WithRSAEncryption
        Issuer: CN=team229-net
        Validity
            Not Before: Nov  3 20:43:30 2023 GMT
            Not After : Oct 18 20:43:30 2026 GMT
        Subject: CN=team229-server
        Subject Public Key Info:
            Public Key Algorithm: rsaEncryption
                Public-Key: (2048 bit)
                Modulus:
                    00:a3:54:23:f9:98:d9:1c:e0:e5:52:cf:4f:0c:6a:
                    67:b7:47:4e:fe:12:aa:ea:cf:ff:28:d3:24:13:bb:
                    8b:d1:0a:9f:75:99:c3:64:9e:0f:9c:cc:ea:12:67:
                    24:91:2a:43:59:50:0a:97:11:44:f3:ba:a4:4f:79:
                    da:90:ae:b3:c9:41:a4:ec:0f:71:d3:7c:dd:fd:1f:
                    41:66:56:dc:51:07:fd:15:d5:8a:7e:6a:b3:87:af:
                    0c:ed:8b:b5:d9:7e:2f:89:d6:f6:5e:ab:99:94:17:
                    96:d2:51:f0:ad:09:a4:5a:d7:99:3d:bd:35:62:48:
                    24:90:49:a5:a0:7e:bd:c9:6e:b2:eb:29:69:74:3c:
                    be:77:ee:d7:0b:dc:25:7a:1c:fe:be:e2:99:25:82:
                    c9:f4:5d:ab:8c:12:86:02:9e:25:a1:d1:60:f2:1d:
                    d8:f0:99:ca:94:dc:52:fe:b3:78:32:24:6f:19:1e:
                    16:0e:8b:13:71:d0:07:ef:49:7e:af:a3:d0:dd:73:
                    9d:82:46:ca:9f:f0:9a:c6:19:fb:e0:bd:ad:36:5d:
                    d6:a0:4b:79:02:4c:42:87:cf:e4:df:58:57:d2:bc:
                    02:10:bd:5d:fe:3c:cd:41:b2:1d:05:b8:7c:2b:e0:
                    bc:bb:8f:fa:09:63:34:ea:25:a6:a9:0e:53:4b:06:
                    83:3d
                Exponent: 65537 (0x10001)
        X509v3 extensions:
            X509v3 Basic Constraints: 
                CA:FALSE
            X509v3 Subject Key Identifier: 
                E0:2A:87:3B:72:72:5B:09:04:A3:AF:92:0A:09:F3:A0:EF:65:60:14
            X509v3 Authority Key Identifier: 
                keyid:41:02:72:10:8A:59:80:69:FB:43:1E:6A:84:FB:72:B5:A6:9B:5C:EB
                DirName:/CN=team229-net
                serial:60:9E:DA:3E:49:10:0F:12:DC:13:4F:BB:F9:C6:A4:EC:35:84:90:E5
            X509v3 Extended Key Usage: 
                TLS Web Server Authentication
            X509v3 Key Usage: 
                Digital Signature, Key Encipherment
            X509v3 Subject Alternative Name: 
                DNS:team229-server
    Signature Algorithm: sha256WithRSAEncryption
    Signature Value:
        96:7d:1b:1c:12:cf:3b:ed:10:6d:ba:0d:85:5f:c6:e5:bc:ef:
        8d:75:43:90:27:e6:e1:96:86:96:3f:b9:08:46:a7:5a:84:0e:
        fa:8e:ae:14:7b:c2:d6:e6:85:20:0e:4e:08:49:fc:59:0e:57:
        93:9a:42:2b:53:c6:6e:3e:39:73:b5:2f:84:98:3d:bb:72:7b:
        79:86:07:3e:5b:96:c9:47:06:2c:48:12:47:ab:32:aa:ba:e8:
        90:34:96:0f:c6:34:9f:b4:13:c9:29:b3:b0:da:ac:3d:12:60:
        2f:30:a0:77:01:cc:86:56:fb:1b:2e:1b:fe:86:c5:ba:be:fa:
        96:6b:9f:07:a6:3d:85:2b:a6:42:de:22:bc:7b:18:7e:66:67:
        7d:a2:f9:ca:97:2e:9a:5a:fb:eb:a8:1f:6b:bc:ff:01:f4:e2:
        8f:07:9c:b6:4b:e5:3a:5e:d3:73:9f:71:71:39:3f:48:d8:a9:
        5f:7d:ab:8e:08:00:61:4f:c3:27:b1:03:c8:f5:fe:2a:ce:b8:
        f3:37:b3:47:fd:4b:81:e8:25:63:3d:cd:fb:2d:98:1f:ae:81:
        f3:2b:95:ef:2f:a7:a3:2a:ea:eb:fc:7c:f7:67:6c:d2:ee:8f:
        90:dc:1b:89:59:1f:16:8e:2a:05:80:63:f8:68:75:02:61:1e:
        83:58:ad:e2
-----BEGIN CERTIFICATE-----
MIIDdzCCAl+gAwIBAgIQJ93qjnTQ2Lh6DT40+pQh3jANBgkqhkiG9w0BAQsFADAW
MRQwEgYDVQQDDAt0ZWFtMjI5LW5ldDAeFw0yMzExMDMyMDQzMzBaFw0yNjEwMTgy
MDQzMzBaMBkxFzAVBgNVBAMMDnRlYW0yMjktc2VydmVyMIIBIjANBgkqhkiG9w0B
AQEFAAOCAQ8AMIIBCgKCAQEAo1Qj+ZjZHODlUs9PDGpnt0dO/hKq6s//KNMkE7uL
0QqfdZnDZJ4PnMzqEmckkSpDWVAKlxFE87qkT3nakK6zyUGk7A9x03zd/R9BZlbc
UQf9FdWKfmqzh68M7Yu12X4vidb2XquZlBeW0lHwrQmkWteZPb01YkgkkEmloH69
yW6y6ylpdDy+d+7XC9wlehz+vuKZJYLJ9F2rjBKGAp4lodFg8h3Y8JnKlNxS/rN4
MiRvGR4WDosTcdAH70l+r6PQ3XOdgkbKn/Caxhn74L2tNl3WoEt5AkxCh8/k31hX
0rwCEL1d/jzNQbIdBbh8K+C8u4/6CWM06iWmqQ5TSwaDPQIDAQABo4G9MIG6MAkG
A1UdEwQCMAAwHQYDVR0OBBYEFOAqhztyclsJBKOvkgoJ86DvZWAUMFEGA1UdIwRK
MEiAFEECchCKWYBp+0MeaoT7crWmm1zroRqkGDAWMRQwEgYDVQQDDAt0ZWFtMjI5
LW5ldIIUYJ7aPkkQDxLcE0+7+cak7DWEkOUwEwYDVR0lBAwwCgYIKwYBBQUHAwEw
CwYDVR0PBAQDAgWgMBkGA1UdEQQSMBCCDnRlYW0yMjktc2VydmVyMA0GCSqGSIb3
DQEBCwUAA4IBAQCWfRscEs877RBtug2FX8blvO+NdUOQJ+bhloaWP7kIRqdahA76
jq4Ue8LW5oUgDk4ISfxZDleTmkIrU8ZuPjlztS+EmD27cnt5hgc+W5bJRwYsSBJH
qzKquuiQNJYPxjSftBPJKbOw2qw9EmAvMKB3AcyGVvsbLhv+hsW6vvqWa58Hpj2F
K6ZC3iK8exh+Zmd9ovnKly6aWvvrqB9rvP8B9OKPB5y2S+U6XtNzn3FxOT9I2Klf
fauOCABhT8MnsQPI9f4qzrjzN7NH/UuB6CVjPc37LZgfroHzK5XvL6ejKurr/Hz3
Z2zS7o+Q3BuJWR8WjioFgGP4aHUCYR6DWK3i
-----END CERTIFICATE-----
