Certificate:
    Data:
        Version: 3 (0x2)
        Serial Number:
            65:be:0a:2d:26:d0:02:15:3e:53:08:c5:8b:ce:00:d2
        Signature Algorithm: sha256WithRSAEncryption
        Issuer: CN=team229-net
        Validity
            Not Before: Nov  4 11:32:06 2023 GMT
            Not After : Oct 19 11:32:06 2026 GMT
        Subject: CN=team229-client
        Subject Public Key Info:
            Public Key Algorithm: rsaEncryption
                Public-Key: (2048 bit)
                Modulus:
                    00:8f:9b:6e:12:ea:26:f2:aa:3d:b8:f2:27:ad:10:
                    b2:fb:a3:7b:56:ba:f7:09:2b:52:f2:c9:ff:e0:2b:
                    57:ac:03:af:1e:de:f7:6d:a5:6b:76:bb:cb:2a:6c:
                    54:88:09:c5:b3:07:ac:37:f9:84:31:e2:63:d4:04:
                    ce:e7:fc:54:d2:c7:64:a5:b9:5b:11:36:c0:ed:d4:
                    00:2a:18:63:a4:91:4a:46:d0:fc:dd:95:a5:6e:e6:
                    90:c8:82:60:6d:e9:5a:7a:de:b7:44:a8:d7:1b:ee:
                    14:87:d7:e6:00:5e:5b:a4:03:69:43:f7:6d:ca:57:
                    eb:2a:17:b5:3a:53:a0:24:dd:1a:0f:65:6c:a7:c1:
                    89:cd:fe:e6:61:c7:51:81:08:2e:ce:4d:a2:db:2e:
                    a0:7c:4c:df:86:46:8e:90:c1:7f:25:f7:69:c6:6b:
                    ff:0e:1c:a3:69:a7:87:82:cf:7f:77:f1:3f:1a:52:
                    bc:65:15:8d:c9:6b:70:b7:54:60:aa:1d:ea:0d:3b:
                    66:86:db:47:c2:c0:87:56:23:f2:01:48:24:fa:0f:
                    e5:5e:9d:75:fe:04:7e:7a:69:55:f5:42:7c:0c:08:
                    00:74:53:9c:60:46:f6:a1:48:81:dd:a4:1f:f4:95:
                    0b:38:01:6a:1b:42:17:f6:ee:a2:b4:aa:e3:83:02:
                    87:2f
                Exponent: 65537 (0x10001)
        X509v3 extensions:
            X509v3 Basic Constraints: 
                CA:FALSE
            X509v3 Subject Key Identifier: 
                48:27:80:2B:82:F3:46:D6:E0:45:3C:B0:01:57:05:2D:51:C8:EA:5B
            X509v3 Authority Key Identifier: 
                keyid:E9:10:49:FA:53:16:FF:41:5E:97:87:A2:E3:7E:55:EB:D6:2A:A8:14
                DirName:/CN=team229-net
                serial:01:92:13:93:85:A4:49:6F:13:57:83:0B:1D:66:4D:45:FC:3A:75:92
            X509v3 Extended Key Usage: 
                TLS Web Client Authentication
            X509v3 Key Usage: 
                Digital Signature
    Signature Algorithm: sha256WithRSAEncryption
    Signature Value:
        07:e5:cf:78:9d:ef:2d:ce:95:c2:51:0f:5a:69:12:a1:92:f6:
        33:7a:04:86:59:12:09:d1:69:6c:ff:0d:54:92:30:53:f1:a5:
        9f:cd:0d:cd:ac:8b:d3:d0:ac:38:db:bf:77:c3:1d:e4:ec:79:
        aa:34:5e:ed:4e:fe:b3:8f:0a:d1:d3:0a:b2:10:d8:40:6f:af:
        31:b4:93:ab:a1:ef:fa:b5:5b:ae:b1:67:6c:a8:97:d5:0c:0c:
        49:de:44:8d:51:d4:86:97:3e:68:80:02:b6:fe:7a:6c:98:48:
        79:c2:e4:ad:96:89:1a:2e:7e:ec:d0:b0:45:2c:3c:a8:4d:6a:
        63:25:3b:13:6f:15:05:e5:d0:69:9b:2c:14:7d:d1:8a:73:70:
        25:42:48:6e:48:6d:5f:f5:90:50:54:09:58:69:1b:ea:90:85:
        ad:1a:3f:3d:82:e4:57:16:3c:a6:b1:d4:68:15:2f:03:56:29:
        c1:4a:11:80:0f:ac:5f:9b:3e:9c:8e:f3:bc:ea:67:d1:78:25:
        1e:52:bc:59:30:86:d8:8f:de:35:a0:e5:e4:c8:82:1c:78:1e:
        e0:74:f3:bd:36:b4:35:7a:ac:dc:7b:f4:9c:06:19:03:d6:eb:
        64:d2:8f:3a:61:b7:6d:1d:14:7f:2a:a8:63:b6:50:2b:a9:f2:
        30:55:95:8d
-----BEGIN CERTIFICATE-----
MIIDXDCCAkSgAwIBAgIQZb4KLSbQAhU+UwjFi84A0jANBgkqhkiG9w0BAQsFADAW
MRQwEgYDVQQDDAt0ZWFtMjI5LW5ldDAeFw0yMzExMDQxMTMyMDZaFw0yNjEwMTkx
MTMyMDZaMBkxFzAVBgNVBAMMDnRlYW0yMjktY2xpZW50MIIBIjANBgkqhkiG9w0B
AQEFAAOCAQ8AMIIBCgKCAQEAj5tuEuom8qo9uPInrRCy+6N7Vrr3CStS8sn/4CtX
rAOvHt73baVrdrvLKmxUiAnFswesN/mEMeJj1ATO5/xU0sdkpblbETbA7dQAKhhj
pJFKRtD83ZWlbuaQyIJgbelaet63RKjXG+4Uh9fmAF5bpANpQ/dtylfrKhe1OlOg
JN0aD2Vsp8GJzf7mYcdRgQguzk2i2y6gfEzfhkaOkMF/Jfdpxmv/DhyjaaeHgs9/
d/E/GlK8ZRWNyWtwt1Rgqh3qDTtmhttHwsCHViPyAUgk+g/lXp11/gR+emlV9UJ8
DAgAdFOcYEb2oUiB3aQf9JULOAFqG0IX9u6itKrjgwKHLwIDAQABo4GiMIGfMAkG
A1UdEwQCMAAwHQYDVR0OBBYEFEgngCuC80bW4EU8sAFXBS1RyOpbMFEGA1UdIwRK
MEiAFOkQSfpTFv9BXpeHouN+VevWKqgUoRqkGDAWMRQwEgYDVQQDDAt0ZWFtMjI5
LW5ldIIUAZITk4WkSW8TV4MLHWZNRfw6dZIwEwYDVR0lBAwwCgYIKwYBBQUHAwIw
CwYDVR0PBAQDAgeAMA0GCSqGSIb3DQEBCwUAA4IBAQAH5c94ne8tzpXCUQ9aaRKh
kvYzegSGWRIJ0Wls/w1UkjBT8aWfzQ3NrIvT0Kw42793wx3k7HmqNF7tTv6zjwrR
0wqyENhAb68xtJOroe/6tVuusWdsqJfVDAxJ3kSNUdSGlz5ogAK2/npsmEh5wuSt
lokaLn7s0LBFLDyoTWpjJTsTbxUF5dBpmywUfdGKc3AlQkhuSG1f9ZBQVAlYaRvq
kIWtGj89guRXFjymsdRoFS8DVinBShGAD6xfmz6cjvO86mfReCUeUrxZMIbYj941
oOXkyIIceB7gdPO9NrQ1eqzce/ScBhkD1utk0o86YbdtHRR/KqhjtlArqfIwVZWN
-----END CERTIFICATE-----
