Certificate:
    Data:
        Version: 3 (0x2)
        Serial Number:
            ed:01:77:77:13:79:52:b6:e7:93:5a:f8:09:23:1c:0a
        Signature Algorithm: sha256WithRSAEncryption
        Issuer: CN=team229-net
        Validity
            Not Before: Nov  4 11:32:06 2023 GMT
            Not After : Oct 19 11:32:06 2026 GMT
        Subject: CN=team229-server
        Subject Public Key Info:
            Public Key Algorithm: rsaEncryption
                Public-Key: (2048 bit)
                Modulus:
                    00:d7:54:d3:e6:d0:67:a0:5d:61:4a:b5:81:e9:e5:
                    ef:cd:a2:0c:76:cf:2c:24:d1:8b:8c:db:2b:54:ac:
                    c6:70:67:fb:0d:77:bc:dc:ba:bc:9e:a2:59:72:44:
                    62:a8:15:fc:17:53:e3:8b:ee:be:77:22:f0:91:ff:
                    16:c3:4a:02:ad:b6:d8:8a:c1:b3:52:bb:09:cb:02:
                    02:e8:56:63:15:92:59:d1:3c:d8:79:f7:f7:f5:0b:
                    44:a6:64:64:5b:f6:b9:28:7f:ad:28:66:22:33:06:
                    e3:07:ab:80:69:3f:24:d9:df:65:fd:f0:20:2b:c4:
                    92:e8:4c:a5:d8:e1:7b:b7:ad:2f:02:93:f9:68:1a:
                    60:e8:c8:ec:87:b6:8b:1d:28:92:40:17:55:0f:d2:
                    df:26:44:4f:12:67:4b:27:78:6d:94:b2:63:af:6a:
                    36:80:a0:5f:36:ee:c5:c3:c7:08:9e:7f:48:0b:5c:
                    9d:bc:f8:19:5a:d4:5a:6c:40:06:f8:9d:72:67:1b:
                    63:8f:b8:a8:8e:e5:25:09:78:e3:c6:14:08:83:4f:
                    f6:5a:6a:fb:2e:78:a1:3d:55:78:38:4e:b4:ac:9d:
                    30:68:45:29:37:36:5f:43:5d:03:45:14:87:80:e9:
                    7b:e5:1b:b1:81:ec:b3:1f:4a:10:43:a4:3d:50:5e:
                    e1:27
                Exponent: 65537 (0x10001)
        X509v3 extensions:
            X509v3 Basic Constraints: 
                CA:FALSE
            X509v3 Subject Key Identifier: 
                54:DE:FA:82:C2:5B:E5:51:9A:7A:AA:70:85:82:BA:FC:01:6B:DA:83
            X509v3 Authority Key Identifier: 
                keyid:E9:10:49:FA:53:16:FF:41:5E:97:87:A2:E3:7E:55:EB:D6:2A:A8:14
                DirName:/CN=team229-net
                serial:01:92:13:93:85:A4:49:6F:13:57:83:0B:1D:66:4D:45:FC:3A:75:92
            X509v3 Extended Key Usage: 
                TLS Web Server Authentication
            X509v3 Key Usage: 
                Digital Signature, Key Encipherment
            X509v3 Subject Alternative Name: 
                DNS:team229-server
    Signature Algorithm: sha256WithRSAEncryption
    Signature Value:
        17:cc:64:bb:ce:95:0e:a8:39:3e:a4:ba:57:ec:ae:9f:20:6e:
        c1:4e:b9:e0:89:75:d3:08:dc:b6:d3:87:f8:aa:46:dd:f7:55:
        18:e1:a7:3d:0c:bb:90:a8:26:ba:85:58:a5:d7:95:7b:33:5e:
        23:2e:92:1b:75:8a:15:e9:02:15:46:5d:d1:73:eb:89:12:73:
        2b:cc:64:e3:da:81:57:5c:52:9b:37:a4:3b:2a:df:f4:e0:72:
        e0:7f:7c:68:1e:a4:d9:b2:d9:1d:e3:04:2d:fc:5d:21:2d:46:
        da:26:be:b6:60:7f:df:11:37:6f:c5:53:4b:52:97:89:ff:29:
        29:f7:9f:42:41:b4:fd:61:2f:f4:e7:52:9b:4d:36:5f:82:57:
        3e:3a:a7:8d:6e:00:30:ac:5f:0b:29:6f:32:b5:55:e7:a3:7c:
        aa:bb:4b:93:49:28:7a:00:f2:df:11:9b:5d:f8:32:a3:d2:44:
        95:fd:d5:b9:cc:ad:52:b7:74:76:a8:fa:89:9b:ac:f7:21:37:
        d4:f8:27:98:cd:0f:c7:19:63:0f:69:6e:c6:e0:b5:42:af:a8:
        7b:2d:2b:15:4b:76:58:b7:2d:1e:ad:5e:c4:65:9b:5a:fe:ea:
        f1:3e:ac:63:9a:b2:f5:c0:90:32:f8:b6:0d:c4:03:c3:b0:c7:
        4d:e8:6f:82
-----BEGIN CERTIFICATE-----
MIIDeDCCAmCgAwIBAgIRAO0Bd3cTeVK255Na+AkjHAowDQYJKoZIhvcNAQELBQAw
FjEUMBIGA1UEAwwLdGVhbTIyOS1uZXQwHhcNMjMxMTA0MTEzMjA2WhcNMjYxMDE5
MTEzMjA2WjAZMRcwFQYDVQQDDA50ZWFtMjI5LXNlcnZlcjCCASIwDQYJKoZIhvcN
AQEBBQADggEPADCCAQoCggEBANdU0+bQZ6BdYUq1genl782iDHbPLCTRi4zbK1Ss
xnBn+w13vNy6vJ6iWXJEYqgV/BdT44vuvnci8JH/FsNKAq222IrBs1K7CcsCAuhW
YxWSWdE82Hn39/ULRKZkZFv2uSh/rShmIjMG4wergGk/JNnfZf3wICvEkuhMpdjh
e7etLwKT+WgaYOjI7Ie2ix0okkAXVQ/S3yZETxJnSyd4bZSyY69qNoCgXzbuxcPH
CJ5/SAtcnbz4GVrUWmxABvidcmcbY4+4qI7lJQl448YUCINP9lpq+y54oT1VeDhO
tKydMGhFKTc2X0NdA0UUh4Dpe+UbsYHssx9KEEOkPVBe4ScCAwEAAaOBvTCBujAJ
BgNVHRMEAjAAMB0GA1UdDgQWBBRU3vqCwlvlUZp6qnCFgrr8AWvagzBRBgNVHSME
SjBIgBTpEEn6Uxb/QV6Xh6LjflXr1iqoFKEapBgwFjEUMBIGA1UEAwwLdGVhbTIy
OS1uZXSCFAGSE5OFpElvE1eDCx1mTUX8OnWSMBMGA1UdJQQMMAoGCCsGAQUFBwMB
MAsGA1UdDwQEAwIFoDAZBgNVHREEEjAQgg50ZWFtMjI5LXNlcnZlcjANBgkqhkiG
9w0BAQsFAAOCAQEAF8xku86VDqg5PqS6V+yunyBuwU654Il10wjcttOH+KpG3fdV
GOGnPQy7kKgmuoVYpdeVezNeIy6SG3WKFekCFUZd0XPriRJzK8xk49qBV1xSmzek
Oyrf9OBy4H98aB6k2bLZHeMELfxdIS1G2ia+tmB/3xE3b8VTS1KXif8pKfefQkG0
/WEv9OdSm002X4JXPjqnjW4AMKxfCylvMrVV56N8qrtLk0koegDy3xGbXfgyo9JE
lf3VucytUrd0dqj6iZus9yE31PgnmM0PxxljD2luxuC1Qq+oey0rFUt2WLctHq1e
xGWbWv7q8T6sY5qy9cCQMvi2DcQDw7DHTehvgg==
-----END CERTIFICATE-----
