Certificate:
    Data:
        Version: 3 (0x2)
        Serial Number:
            2d:6a:e7:31:e5:1e:d5:38:d4:2c:6d:dd:27:6c:b6:e8
        Signature Algorithm: sha256WithRSAEncryption
        Issuer: CN=team228-net
        Validity
            Not Before: Nov  3 20:43:29 2023 GMT
            Not After : Oct 18 20:43:29 2026 GMT
        Subject: CN=team228-server
        Subject Public Key Info:
            Public Key Algorithm: rsaEncryption
                Public-Key: (2048 bit)
                Modulus:
                    00:ab:ac:a7:e8:89:4c:7f:00:23:db:5a:18:e6:c6:
                    35:14:2b:5c:9d:81:0a:64:55:b4:eb:47:5f:b9:e1:
                    8e:b8:0f:7a:50:c3:c7:30:b0:c2:ad:5f:65:1e:5d:
                    ec:6a:d1:58:07:9c:e5:66:3c:6b:61:e4:64:f0:fb:
                    e2:60:07:e8:eb:0f:ae:8a:d3:cc:be:30:20:3f:bc:
                    31:44:a0:70:08:35:16:b6:35:7e:3a:49:c0:af:90:
                    77:ad:ca:a4:bf:14:c9:e5:2b:07:19:9e:9e:03:97:
                    7d:dc:65:5c:f7:63:3b:3e:a3:0c:4c:fe:ea:16:ac:
                    eb:65:33:11:7b:9f:41:67:6e:ee:1d:36:f0:78:61:
                    a4:3d:0b:c0:e1:17:da:84:de:b2:36:4a:5a:79:f3:
                    a4:17:69:35:61:93:b5:07:75:35:a1:46:94:66:3c:
                    b7:1a:3a:a6:f9:7b:8d:0e:be:85:6a:84:53:96:22:
                    b0:52:e3:17:c3:93:cf:cf:d8:22:ae:a3:f3:43:69:
                    f5:2f:e7:9a:89:46:15:56:71:46:65:53:39:b2:50:
                    21:3c:87:30:a7:14:d2:07:e0:4c:a7:30:4b:1f:71:
                    8c:bf:55:d8:1f:a9:04:f1:8e:dc:08:a9:bd:a1:ba:
                    2e:44:26:c5:4b:42:11:36:16:83:58:4c:3f:19:98:
                    b5:e7
                Exponent: 65537 (0x10001)
        X509v3 extensions:
            X509v3 Basic Constraints: 
                CA:FALSE
            X509v3 Subject Key Identifier: 
                5F:29:53:EE:E8:E1:B8:61:C8:0F:80:3F:79:46:88:72:43:38:95:5A
            X509v3 Authority Key Identifier: 
                keyid:86:41:23:DA:42:AE:5B:D7:69:8D:F4:7A:8A:BC:89:B0:46:DC:6A:12
                DirName:/CN=team228-net
                serial:32:C4:3C:89:5A:29:85:C7:C8:24:A8:3A:C0:C3:73:29:E3:BD:1E:D1
            X509v3 Extended Key Usage: 
                TLS Web Server Authentication
            X509v3 Key Usage: 
                Digital Signature, Key Encipherment
            X509v3 Subject Alternative Name: 
                DNS:team228-server
    Signature Algorithm: sha256WithRSAEncryption
    Signature Value:
        8f:e2:7d:b5:87:43:0f:4d:bf:70:46:6d:10:e7:c9:ef:8b:6f:
        9b:d4:15:3b:2d:fb:d5:9c:00:88:e8:93:c9:7e:23:d8:39:14:
        d0:68:44:fd:d3:95:d7:19:28:c0:a8:07:20:60:51:8a:ab:8f:
        02:85:b1:d9:8d:8a:95:c6:1e:60:c3:14:72:8c:fc:19:7f:a7:
        78:ba:a6:55:d1:86:17:13:b8:aa:7c:e8:ff:81:bd:ec:85:9c:
        07:d9:6e:05:4d:58:ab:09:20:52:a3:f5:ea:bd:20:59:6a:81:
        1d:75:0a:64:95:5e:9f:a7:94:7a:14:48:49:0b:a7:ae:5d:72:
        71:c7:0d:f1:a7:0e:46:5f:01:37:d9:24:da:32:33:a5:0d:37:
        3c:03:39:a2:b8:4b:98:13:6c:73:3f:4c:80:ae:9e:dd:b3:2c:
        a1:48:dc:96:81:27:2e:f4:2c:a0:c7:a7:3d:02:81:d8:81:16:
        b9:98:ca:8c:62:15:54:e7:bb:eb:94:6f:13:60:44:83:0e:31:
        19:b9:93:3e:28:65:4d:04:2a:4f:c3:04:3f:37:87:19:26:01:
        c0:cb:bc:36:7a:f0:19:32:95:89:ec:34:98:89:2b:4c:9f:42:
        62:81:a8:00:97:e7:c6:18:65:a0:05:df:db:70:1e:e5:1f:aa:
        ad:a6:2d:59
-----BEGIN CERTIFICATE-----
MIIDdzCCAl+gAwIBAgIQLWrnMeUe1TjULG3dJ2y26DANBgkqhkiG9w0BAQsFADAW
MRQwEgYDVQQDDAt0ZWFtMjI4LW5ldDAeFw0yMzExMDMyMDQzMjlaFw0yNjEwMTgy
MDQzMjlaMBkxFzAVBgNVBAMMDnRlYW0yMjgtc2VydmVyMIIBIjANBgkqhkiG9w0B
AQEFAAOCAQ8AMIIBCgKCAQEAq6yn6IlMfwAj21oY5sY1FCtcnYEKZFW060dfueGO
uA96UMPHMLDCrV9lHl3satFYB5zlZjxrYeRk8PviYAfo6w+uitPMvjAgP7wxRKBw
CDUWtjV+OknAr5B3rcqkvxTJ5SsHGZ6eA5d93GVc92M7PqMMTP7qFqzrZTMRe59B
Z27uHTbweGGkPQvA4RfahN6yNkpaefOkF2k1YZO1B3U1oUaUZjy3Gjqm+XuNDr6F
aoRTliKwUuMXw5PPz9girqPzQ2n1L+eaiUYVVnFGZVM5slAhPIcwpxTSB+BMpzBL
H3GMv1XYH6kE8Y7cCKm9obouRCbFS0IRNhaDWEw/GZi15wIDAQABo4G9MIG6MAkG
A1UdEwQCMAAwHQYDVR0OBBYEFF8pU+7o4bhhyA+AP3lGiHJDOJVaMFEGA1UdIwRK
MEiAFIZBI9pCrlvXaY30eoq8ibBG3GoSoRqkGDAWMRQwEgYDVQQDDAt0ZWFtMjI4
LW5ldIIUMsQ8iVophcfIJKg6wMNzKeO9HtEwEwYDVR0lBAwwCgYIKwYBBQUHAwEw
CwYDVR0PBAQDAgWgMBkGA1UdEQQSMBCCDnRlYW0yMjgtc2VydmVyMA0GCSqGSIb3
DQEBCwUAA4IBAQCP4n21h0MPTb9wRm0Q58nvi2+b1BU7LfvVnACI6JPJfiPYORTQ
aET905XXGSjAqAcgYFGKq48ChbHZjYqVxh5gwxRyjPwZf6d4uqZV0YYXE7iqfOj/
gb3shZwH2W4FTVirCSBSo/XqvSBZaoEddQpklV6fp5R6FEhJC6euXXJxxw3xpw5G
XwE32STaMjOlDTc8AzmiuEuYE2xzP0yArp7dsyyhSNyWgScu9Cygx6c9AoHYgRa5
mMqMYhVU57vrlG8TYESDDjEZuZM+KGVNBCpPwwQ/N4cZJgHAy7w2evAZMpWJ7DSY
iStMn0JigagAl+fGGGWgBd/bcB7lH6qtpi1Z
-----END CERTIFICATE-----
