Certificate:
    Data:
        Version: 3 (0x2)
        Serial Number:
            2f:b1:2b:4d:5b:e4:bd:5f:08:96:9a:d3:e1:ea:03:c1
        Signature Algorithm: sha256WithRSAEncryption
        Issuer: CN=team228-net
        Validity
            Not Before: Nov  4 11:32:05 2023 GMT
            Not After : Oct 19 11:32:05 2026 GMT
        Subject: CN=team228-server
        Subject Public Key Info:
            Public Key Algorithm: rsaEncryption
                Public-Key: (2048 bit)
                Modulus:
                    00:b4:d1:68:ab:21:79:5e:dc:9c:63:0a:2b:23:93:
                    54:38:63:32:be:29:3d:d8:9e:e3:27:01:18:42:5d:
                    e4:90:61:cc:98:f0:07:93:37:ca:10:e6:1d:26:db:
                    2a:45:51:33:bc:78:84:55:5e:b9:fb:4a:2d:18:7b:
                    c2:86:a5:c4:02:93:49:51:a1:50:87:e8:d5:e7:0f:
                    08:d3:39:89:3b:53:3c:6a:f5:ab:d8:ca:3c:2e:20:
                    49:c7:40:97:19:fb:e1:06:1b:b7:fc:c9:e3:19:5d:
                    28:1f:f1:7c:86:77:d3:3e:f4:51:34:bc:60:37:e4:
                    18:ed:e4:7a:c8:25:8b:dc:85:9d:fa:0f:e3:4b:dc:
                    b7:82:27:49:f0:4c:b6:01:d3:ca:52:7e:69:70:62:
                    ba:c2:19:0a:3b:56:85:e1:21:65:9b:8a:8c:2a:19:
                    a3:f2:74:20:cf:93:a9:f0:bd:3e:5a:f2:01:38:5f:
                    58:62:62:e6:46:c0:cc:45:28:a8:0b:36:c6:11:c7:
                    1e:3b:4d:dd:a5:67:fd:64:a3:96:3a:c8:b9:38:9c:
                    11:31:50:50:aa:06:98:0e:0b:0e:1d:cb:46:69:e4:
                    00:6f:0e:c5:12:9b:44:f0:17:c4:bc:54:15:a0:60:
                    24:f1:5d:12:76:e7:8b:bd:bc:e7:65:9d:1f:bf:aa:
                    39:bf
                Exponent: 65537 (0x10001)
        X509v3 extensions:
            X509v3 Basic Constraints: 
                CA:FALSE
            X509v3 Subject Key Identifier: 
                ED:58:7A:97:AE:06:57:08:24:5E:B5:FB:E2:86:DB:0D:F5:DD:46:91
            X509v3 Authority Key Identifier: 
                keyid:7C:D4:A6:B1:0A:DA:57:FB:D4:04:AA:E2:B8:C5:55:34:AA:23:57:12
                DirName:/CN=team228-net
                serial:39:11:E6:86:50:8F:8C:14:2D:3B:E3:67:C5:59:79:87:B8:0B:E2:96
            X509v3 Extended Key Usage: 
                TLS Web Server Authentication
            X509v3 Key Usage: 
                Digital Signature, Key Encipherment
            X509v3 Subject Alternative Name: 
                DNS:team228-server
    Signature Algorithm: sha256WithRSAEncryption
    Signature Value:
        16:3b:6f:4b:ff:4d:4c:b5:0e:3d:19:45:a8:85:2d:fd:69:54:
        a6:57:d9:1f:b2:fa:f4:49:3c:b7:44:88:dd:cf:81:a7:f8:dd:
        a1:20:35:77:7d:05:d4:74:b4:98:21:ef:84:12:1f:9d:d6:fb:
        10:b2:ac:85:a4:d9:c9:f8:38:8a:bb:17:c1:98:41:05:2b:91:
        a9:39:85:37:9d:58:2b:fb:eb:d9:1f:a1:f4:0e:49:c2:5d:1a:
        49:32:83:ec:73:d4:3e:4d:97:92:23:34:ef:fb:c9:1d:ce:72:
        7f:27:93:0d:5a:b3:1e:1e:ba:66:3a:17:63:d0:15:1c:28:2b:
        cd:f7:31:d3:00:83:33:93:24:47:da:1b:c0:e6:bf:82:cd:3b:
        81:67:1e:a2:14:63:8f:8a:8a:69:26:c5:95:cc:09:cc:6e:c4:
        5f:b4:ec:9d:a7:a2:8d:61:d6:cf:a9:5f:f2:ce:7f:4d:c2:b3:
        22:3f:bc:dd:7a:d0:a2:be:91:58:3b:38:c6:cf:84:d5:37:10:
        a1:ba:84:18:f9:f8:63:d6:8a:2a:68:a8:51:9b:03:d2:31:cc:
        3d:8d:4b:71:20:64:6d:ad:93:30:11:3a:6b:d0:50:ed:f4:4c:
        19:38:8d:b4:cf:55:84:a0:f5:80:46:5f:61:66:cc:92:b8:b9:
        1e:a7:af:8c
-----BEGIN CERTIFICATE-----
MIIDdzCCAl+gAwIBAgIQL7ErTVvkvV8IlprT4eoDwTANBgkqhkiG9w0BAQsFADAW
MRQwEgYDVQQDDAt0ZWFtMjI4LW5ldDAeFw0yMzExMDQxMTMyMDVaFw0yNjEwMTkx
MTMyMDVaMBkxFzAVBgNVBAMMDnRlYW0yMjgtc2VydmVyMIIBIjANBgkqhkiG9w0B
AQEFAAOCAQ8AMIIBCgKCAQEAtNFoqyF5XtycYworI5NUOGMyvik92J7jJwEYQl3k
kGHMmPAHkzfKEOYdJtsqRVEzvHiEVV65+0otGHvChqXEApNJUaFQh+jV5w8I0zmJ
O1M8avWr2Mo8LiBJx0CXGfvhBhu3/MnjGV0oH/F8hnfTPvRRNLxgN+QY7eR6yCWL
3IWd+g/jS9y3gidJ8Ey2AdPKUn5pcGK6whkKO1aF4SFlm4qMKhmj8nQgz5Op8L0+
WvIBOF9YYmLmRsDMRSioCzbGEcceO03dpWf9ZKOWOsi5OJwRMVBQqgaYDgsOHctG
aeQAbw7FEptE8BfEvFQVoGAk8V0SdueLvbznZZ0fv6o5vwIDAQABo4G9MIG6MAkG
A1UdEwQCMAAwHQYDVR0OBBYEFO1YepeuBlcIJF61++KG2w313UaRMFEGA1UdIwRK
MEiAFHzUprEK2lf71ASq4rjFVTSqI1cSoRqkGDAWMRQwEgYDVQQDDAt0ZWFtMjI4
LW5ldIIUORHmhlCPjBQtO+NnxVl5h7gL4pYwEwYDVR0lBAwwCgYIKwYBBQUHAwEw
CwYDVR0PBAQDAgWgMBkGA1UdEQQSMBCCDnRlYW0yMjgtc2VydmVyMA0GCSqGSIb3
DQEBCwUAA4IBAQAWO29L/01MtQ49GUWohS39aVSmV9kfsvr0STy3RIjdz4Gn+N2h
IDV3fQXUdLSYIe+EEh+d1vsQsqyFpNnJ+DiKuxfBmEEFK5GpOYU3nVgr++vZH6H0
DknCXRpJMoPsc9Q+TZeSIzTv+8kdznJ/J5MNWrMeHrpmOhdj0BUcKCvN9zHTAIMz
kyRH2hvA5r+CzTuBZx6iFGOPioppJsWVzAnMbsRftOydp6KNYdbPqV/yzn9NwrMi
P7zdetCivpFYOzjGz4TVNxChuoQY+fhj1ooqaKhRmwPSMcw9jUtxIGRtrZMwETpr
0FDt9EwZOI20z1WEoPWARl9hZsySuLkep6+M
-----END CERTIFICATE-----
