Certificate:
    Data:
        Version: 3 (0x2)
        Serial Number:
            8e:5e:18:c1:b0:31:85:df:ac:cd:8a:35:69:f2:f3:f4
        Signature Algorithm: sha256WithRSAEncryption
        Issuer: CN=team228-net
        Validity
            Not Before: Nov  4 10:44:55 2023 GMT
            Not After : Oct 19 10:44:55 2026 GMT
        Subject: CN=team228-server
        Subject Public Key Info:
            Public Key Algorithm: rsaEncryption
                Public-Key: (2048 bit)
                Modulus:
                    00:af:51:1b:ba:28:d2:47:26:d4:d5:31:db:4c:8b:
                    d7:34:45:aa:fb:7a:c8:be:b2:e5:10:f2:89:22:79:
                    a7:c8:5b:a5:65:37:f7:0a:72:ee:81:48:db:31:da:
                    aa:d9:22:c7:64:df:ce:06:b6:5e:94:37:bf:20:9b:
                    91:70:dd:75:2a:08:d6:63:75:4b:28:ec:2c:37:19:
                    c8:c2:f8:18:c8:ef:90:5f:58:45:db:97:85:34:b7:
                    1d:2c:10:0a:d1:20:fb:7c:52:8e:26:09:b0:1d:10:
                    f7:f0:5c:a5:a4:f7:8a:6f:4e:06:87:de:0f:4f:ce:
                    4a:ec:a6:64:9f:70:a4:e3:88:eb:4b:8f:4b:07:ff:
                    f7:e0:77:bc:20:79:a3:25:c5:79:07:57:25:b4:d8:
                    07:02:7a:5a:48:77:8b:d8:a0:a5:28:70:22:12:b9:
                    e6:7f:77:d8:ab:86:0d:b7:06:a4:7b:a0:f1:0e:b6:
                    96:3f:21:3c:31:d5:d9:bd:96:a9:8b:19:77:02:76:
                    d5:aa:c3:12:1e:85:04:40:29:95:e8:6f:72:6d:31:
                    b3:32:a4:10:bb:cf:d5:f6:d0:71:79:7a:98:c4:4a:
                    6f:75:05:4f:0b:1e:70:a3:e8:c3:b1:c8:7f:98:3c:
                    27:92:4b:96:ef:7c:b2:67:e8:ac:64:0c:76:06:c5:
                    72:ff
                Exponent: 65537 (0x10001)
        X509v3 extensions:
            X509v3 Basic Constraints: 
                CA:FALSE
            X509v3 Subject Key Identifier: 
                FC:42:73:29:38:5A:35:FF:85:5A:1F:01:06:B0:10:18:B5:D0:05:F6
            X509v3 Authority Key Identifier: 
                keyid:69:6D:80:2D:E1:47:19:03:33:73:71:DE:40:6A:02:AC:18:19:AA:C4
                DirName:/CN=team228-net
                serial:44:BC:08:8E:4F:FA:18:59:DB:64:34:E7:5A:8B:93:3F:27:B7:72:92
            X509v3 Extended Key Usage: 
                TLS Web Server Authentication
            X509v3 Key Usage: 
                Digital Signature, Key Encipherment
            X509v3 Subject Alternative Name: 
                DNS:team228-server
    Signature Algorithm: sha256WithRSAEncryption
    Signature Value:
        07:c8:37:aa:5a:ab:a7:69:34:34:b5:04:44:5d:a2:07:99:d3:
        bd:a4:1a:0a:93:25:e0:cb:5b:42:ec:83:24:c5:0f:be:d2:a9:
        2a:d7:01:b7:56:b6:4c:7e:55:e2:06:cb:40:76:c1:6b:2b:d9:
        7b:ae:08:91:9f:43:5f:88:c7:1e:f1:dc:e3:74:47:9b:fe:87:
        57:3b:2a:fb:58:74:c6:3b:53:d5:3f:c1:bb:cc:03:c6:11:4c:
        e3:d6:50:83:b9:42:9c:dc:7b:7a:92:52:e2:b6:b4:97:f0:e6:
        85:71:1e:08:2c:4d:c7:a3:30:51:d8:93:75:19:f4:25:60:d2:
        15:ba:2a:e6:79:33:ec:28:99:cb:3f:bd:1a:ab:d5:00:e8:46:
        32:dd:f9:df:8c:c7:44:5a:3f:60:45:44:d3:ba:f5:58:6c:35:
        07:55:58:96:7d:69:82:71:df:58:6a:6f:2c:eb:3d:78:df:58:
        c5:ab:17:b4:4a:08:21:a1:89:28:d4:f9:fb:92:66:35:aa:8e:
        a3:07:fa:76:cf:35:68:d2:75:d1:71:0f:d4:31:fc:51:6b:de:
        4d:f3:a7:f7:aa:d9:ad:73:25:b0:a5:53:3f:d5:84:26:9d:fe:
        2b:94:05:3e:1a:24:11:5f:6d:2b:86:a1:45:f7:91:45:fc:7e:
        35:59:51:6c
-----BEGIN CERTIFICATE-----
MIIDeDCCAmCgAwIBAgIRAI5eGMGwMYXfrM2KNWny8/QwDQYJKoZIhvcNAQELBQAw
FjEUMBIGA1UEAwwLdGVhbTIyOC1uZXQwHhcNMjMxMTA0MTA0NDU1WhcNMjYxMDE5
MTA0NDU1WjAZMRcwFQYDVQQDDA50ZWFtMjI4LXNlcnZlcjCCASIwDQYJKoZIhvcN
AQEBBQADggEPADCCAQoCggEBAK9RG7oo0kcm1NUx20yL1zRFqvt6yL6y5RDyiSJ5
p8hbpWU39wpy7oFI2zHaqtkix2Tfzga2XpQ3vyCbkXDddSoI1mN1SyjsLDcZyML4
GMjvkF9YRduXhTS3HSwQCtEg+3xSjiYJsB0Q9/BcpaT3im9OBofeD0/OSuymZJ9w
pOOI60uPSwf/9+B3vCB5oyXFeQdXJbTYBwJ6Wkh3i9igpShwIhK55n932KuGDbcG
pHug8Q62lj8hPDHV2b2WqYsZdwJ21arDEh6FBEAplehvcm0xszKkELvP1fbQcXl6
mMRKb3UFTwsecKPow7HIf5g8J5JLlu98smforGQMdgbFcv8CAwEAAaOBvTCBujAJ
BgNVHRMEAjAAMB0GA1UdDgQWBBT8QnMpOFo1/4VaHwEGsBAYtdAF9jBRBgNVHSME
SjBIgBRpbYAt4UcZAzNzcd5AagKsGBmqxKEapBgwFjEUMBIGA1UEAwwLdGVhbTIy
OC1uZXSCFES8CI5P+hhZ22Q051qLkz8nt3KSMBMGA1UdJQQMMAoGCCsGAQUFBwMB
MAsGA1UdDwQEAwIFoDAZBgNVHREEEjAQgg50ZWFtMjI4LXNlcnZlcjANBgkqhkiG
9w0BAQsFAAOCAQEAB8g3qlqrp2k0NLUERF2iB5nTvaQaCpMl4MtbQuyDJMUPvtKp
KtcBt1a2TH5V4gbLQHbBayvZe64IkZ9DX4jHHvHc43RHm/6HVzsq+1h0xjtT1T/B
u8wDxhFM49ZQg7lCnNx7epJS4ra0l/DmhXEeCCxNx6MwUdiTdRn0JWDSFboq5nkz
7CiZyz+9GqvVAOhGMt3534zHRFo/YEVE07r1WGw1B1VYln1pgnHfWGpvLOs9eN9Y
xasXtEoIIaGJKNT5+5JmNaqOowf6ds81aNJ10XEP1DH8UWveTfOn96rZrXMlsKVT
P9WEJp3+K5QFPhokEV9tK4ahRfeRRfx+NVlRbA==
-----END CERTIFICATE-----
