Certificate:
    Data:
        Version: 3 (0x2)
        Serial Number:
            92:93:84:94:a7:9f:36:7b:e4:67:69:63:c4:db:2f:fb
        Signature Algorithm: sha256WithRSAEncryption
        Issuer: CN=team228-net
        Validity
            Not Before: Nov  4 11:32:05 2023 GMT
            Not After : Oct 19 11:32:05 2026 GMT
        Subject: CN=team228-client
        Subject Public Key Info:
            Public Key Algorithm: rsaEncryption
                Public-Key: (2048 bit)
                Modulus:
                    00:dd:6e:eb:d3:d3:90:21:cb:25:fd:27:8c:ec:21:
                    1a:80:41:f8:28:22:16:7d:13:08:9f:45:a3:85:79:
                    8e:f9:0f:8e:02:d8:da:59:94:67:57:84:52:6f:14:
                    93:0e:a4:28:4d:77:c5:fc:44:11:8b:0c:44:19:34:
                    9e:71:30:37:b6:c2:81:8b:9c:7f:a5:40:56:58:ba:
                    69:46:a8:db:4b:51:16:db:f4:a2:71:0a:f5:09:f8:
                    3d:c2:8a:31:0f:fb:51:bc:3f:39:4c:fa:82:ad:4f:
                    fd:ce:a4:02:a7:d6:41:6b:b3:c0:58:5f:d6:05:7a:
                    f1:6f:ce:6b:02:db:1c:88:63:db:98:0d:fb:82:6e:
                    44:94:00:d3:ad:d7:f0:f3:fb:c6:b4:1d:19:b9:3f:
                    f9:eb:c7:ec:54:c8:cd:33:06:69:ec:df:06:4e:1e:
                    be:67:15:a1:db:af:e6:3f:a3:84:87:c7:cb:11:d2:
                    07:d7:25:72:07:88:80:40:15:2e:ab:14:e5:b1:5d:
                    ed:80:6d:8c:3a:cd:9d:2b:9e:a9:7f:37:18:94:ff:
                    3c:61:9f:25:28:28:f1:4c:74:b5:b8:c1:c8:81:f9:
                    4b:69:a5:f8:65:99:25:a6:ed:5a:24:c8:9e:07:28:
                    8e:74:98:e2:ec:26:7c:78:28:5d:1f:7d:7f:30:f4:
                    57:a9
                Exponent: 65537 (0x10001)
        X509v3 extensions:
            X509v3 Basic Constraints: 
                CA:FALSE
            X509v3 Subject Key Identifier: 
                35:E0:26:DC:AA:01:66:5A:95:B9:ED:FE:8F:18:5E:E0:38:93:E6:AF
            X509v3 Authority Key Identifier: 
                keyid:7C:D4:A6:B1:0A:DA:57:FB:D4:04:AA:E2:B8:C5:55:34:AA:23:57:12
                DirName:/CN=team228-net
                serial:39:11:E6:86:50:8F:8C:14:2D:3B:E3:67:C5:59:79:87:B8:0B:E2:96
            X509v3 Extended Key Usage: 
                TLS Web Client Authentication
            X509v3 Key Usage: 
                Digital Signature
    Signature Algorithm: sha256WithRSAEncryption
    Signature Value:
        6e:36:04:0c:74:ce:97:3d:72:fc:71:5b:ac:cc:cb:f8:02:68:
        af:46:7c:22:67:aa:13:1b:94:4b:74:ba:9b:2a:c9:99:c9:3f:
        4b:ea:43:c7:ab:a1:df:17:13:c1:ad:74:c8:75:fe:60:12:46:
        40:f4:8f:7b:78:f4:42:2b:22:4b:50:6c:24:0c:d3:2c:24:85:
        6e:72:a7:81:5a:c5:c3:85:07:9a:b4:c3:6d:35:d3:a6:46:1e:
        28:3b:89:2c:88:9c:aa:94:b1:ae:e7:57:91:71:ec:74:c0:83:
        fa:e3:38:2c:67:7e:db:aa:f4:a9:f2:c5:48:20:a0:d4:d9:b0:
        7d:6e:6e:97:0d:e2:2c:d0:75:12:5d:cc:6a:c9:b4:de:61:eb:
        03:9d:9c:b1:51:48:ee:8c:50:87:39:99:d1:e9:97:70:4c:d1:
        32:d2:57:86:21:3d:85:6b:15:ab:dc:76:4e:f0:d9:36:a9:8f:
        92:94:dc:d7:bf:6a:7f:68:ee:09:7f:42:a9:fb:bf:75:13:f1:
        8d:7c:33:65:ee:61:81:5b:d8:ba:8c:85:ab:48:36:7e:fe:9d:
        02:9a:00:e1:4c:3e:a3:12:e5:68:a0:37:5b:c3:60:ea:ec:fc:
        76:aa:d0:66:de:f7:61:75:b9:b7:0b:24:dc:b9:a2:c8:10:fe:
        27:80:72:42
-----BEGIN CERTIFICATE-----
MIIDXTCCAkWgAwIBAgIRAJKThJSnnzZ75GdpY8TbL/swDQYJKoZIhvcNAQELBQAw
FjEUMBIGA1UEAwwLdGVhbTIyOC1uZXQwHhcNMjMxMTA0MTEzMjA1WhcNMjYxMDE5
MTEzMjA1WjAZMRcwFQYDVQQDDA50ZWFtMjI4LWNsaWVudDCCASIwDQYJKoZIhvcN
AQEBBQADggEPADCCAQoCggEBAN1u69PTkCHLJf0njOwhGoBB+CgiFn0TCJ9Fo4V5
jvkPjgLY2lmUZ1eEUm8Ukw6kKE13xfxEEYsMRBk0nnEwN7bCgYucf6VAVli6aUao
20tRFtv0onEK9Qn4PcKKMQ/7Ubw/OUz6gq1P/c6kAqfWQWuzwFhf1gV68W/OawLb
HIhj25gN+4JuRJQA063X8PP7xrQdGbk/+evH7FTIzTMGaezfBk4evmcVoduv5j+j
hIfHyxHSB9clcgeIgEAVLqsU5bFd7YBtjDrNnSueqX83GJT/PGGfJSgo8Ux0tbjB
yIH5S2ml+GWZJabtWiTIngcojnSY4uwmfHgoXR99fzD0V6kCAwEAAaOBojCBnzAJ
BgNVHRMEAjAAMB0GA1UdDgQWBBQ14CbcqgFmWpW57f6PGF7gOJPmrzBRBgNVHSME
SjBIgBR81KaxCtpX+9QEquK4xVU0qiNXEqEapBgwFjEUMBIGA1UEAwwLdGVhbTIy
OC1uZXSCFDkR5oZQj4wULTvjZ8VZeYe4C+KWMBMGA1UdJQQMMAoGCCsGAQUFBwMC
MAsGA1UdDwQEAwIHgDANBgkqhkiG9w0BAQsFAAOCAQEAbjYEDHTOlz1y/HFbrMzL
+AJor0Z8ImeqExuUS3S6myrJmck/S+pDx6uh3xcTwa10yHX+YBJGQPSPe3j0Qisi
S1BsJAzTLCSFbnKngVrFw4UHmrTDbTXTpkYeKDuJLIicqpSxrudXkXHsdMCD+uM4
LGd+26r0qfLFSCCg1NmwfW5ulw3iLNB1El3Masm03mHrA52csVFI7oxQhzmZ0emX
cEzRMtJXhiE9hWsVq9x2TvDZNqmPkpTc179qf2juCX9Cqfu/dRPxjXwzZe5hgVvY
uoyFq0g2fv6dApoA4Uw+oxLlaKA3W8Ng6uz8dqrQZt73YXW5twsk3LmiyBD+J4By
Qg==
-----END CERTIFICATE-----
