Certificate:
    Data:
        Version: 3 (0x2)
        Serial Number:
            fc:27:52:9e:eb:35:e1:f4:fb:6c:d7:6e:d7:4d:82:36
        Signature Algorithm: sha256WithRSAEncryption
        Issuer: CN=team228-net
        Validity
            Not Before: Nov  4 10:44:55 2023 GMT
            Not After : Oct 19 10:44:55 2026 GMT
        Subject: CN=team228-client
        Subject Public Key Info:
            Public Key Algorithm: rsaEncryption
                Public-Key: (2048 bit)
                Modulus:
                    00:b0:c6:aa:f1:a3:ab:33:d0:7c:70:b3:60:13:7d:
                    9a:04:fb:26:d7:84:80:79:6c:c5:a8:b1:33:e3:f1:
                    db:b1:b0:24:9a:b1:19:8f:7f:88:f2:45:5d:3b:26:
                    6a:e7:07:f9:f8:36:df:0b:af:30:43:4b:e8:fd:8e:
                    cf:67:6d:44:9a:4f:54:bb:65:f1:dc:a1:8e:7e:58:
                    47:1b:24:1e:7d:f8:ef:25:09:1b:d3:08:2c:8f:e3:
                    c2:15:f7:88:05:1d:cd:f1:77:fc:aa:a5:01:ce:34:
                    48:ca:c8:2c:a8:d5:ad:3d:71:29:20:1d:57:58:79:
                    42:31:63:03:c7:88:d0:7e:66:79:0f:0f:7d:a5:94:
                    21:1c:38:6f:c3:4f:19:f4:4b:4b:67:5c:87:f7:82:
                    65:92:23:76:23:49:11:af:d7:fb:db:8d:1e:50:12:
                    be:93:60:2a:eb:11:3b:a9:51:b4:4d:e1:75:50:f9:
                    6f:c7:66:57:7f:4f:0c:16:29:4d:a6:81:80:40:91:
                    91:3b:84:1f:26:f6:b1:fc:a8:88:b8:58:7e:f7:8f:
                    52:03:0c:41:ef:82:db:cc:64:0b:02:40:61:0a:ab:
                    90:c5:0b:ef:9e:73:db:d6:c8:0a:50:65:ed:05:91:
                    87:80:a4:a6:95:fe:37:f4:d8:c4:88:de:f7:c7:5a:
                    a5:57
                Exponent: 65537 (0x10001)
        X509v3 extensions:
            X509v3 Basic Constraints: 
                CA:FALSE
            X509v3 Subject Key Identifier: 
                86:85:8C:BC:27:17:00:38:41:9F:E4:19:04:C3:37:6B:FB:D6:54:F8
            X509v3 Authority Key Identifier: 
                keyid:69:6D:80:2D:E1:47:19:03:33:73:71:DE:40:6A:02:AC:18:19:AA:C4
                DirName:/CN=team228-net
                serial:44:BC:08:8E:4F:FA:18:59:DB:64:34:E7:5A:8B:93:3F:27:B7:72:92
            X509v3 Extended Key Usage: 
                TLS Web Client Authentication
            X509v3 Key Usage: 
                Digital Signature
    Signature Algorithm: sha256WithRSAEncryption
    Signature Value:
        69:d2:c5:83:40:0d:4d:e6:4f:3d:4e:6f:73:0a:9d:1c:8a:bc:
        8b:04:00:9c:33:dd:3f:8e:62:19:51:b3:15:71:fd:e5:4b:93:
        ee:8c:77:41:04:6e:3d:f9:7b:b8:df:17:39:95:8f:42:11:8c:
        dd:ca:1d:61:a0:df:4d:ca:0a:00:b5:99:e8:7d:64:e7:a6:e9:
        bd:7f:6b:e7:d7:75:34:9e:92:7c:4e:a8:c9:4b:c0:56:2d:56:
        d9:95:a9:d3:fb:47:6b:1b:75:1b:0d:a4:51:51:4e:28:eb:e8:
        28:b7:04:79:70:6f:ba:f2:80:f9:90:a9:ec:cb:2d:65:e3:7a:
        38:4e:f0:a9:33:00:d0:47:6f:f3:2c:ee:ed:e6:7b:ff:a8:71:
        da:a6:50:2c:7b:86:70:46:37:24:59:e2:95:e3:d6:40:f1:d0:
        ae:51:2c:61:52:0f:69:90:49:1f:e4:95:c9:d6:8b:e7:0a:62:
        55:80:a8:bb:e5:cf:cb:38:ec:c9:53:22:d8:22:b5:f0:18:f8:
        c3:37:92:d8:66:73:6e:0b:63:8d:e7:ed:fd:2e:fe:a0:73:67:
        99:d4:6d:d7:7b:80:eb:ad:2e:87:ee:b6:ad:0a:e6:17:6e:9e:
        40:72:93:d1:0d:fd:69:3f:34:53:5d:54:9a:ca:68:f6:c9:cf:
        92:cf:93:f2
-----BEGIN CERTIFICATE-----
MIIDXTCCAkWgAwIBAgIRAPwnUp7rNeH0+2zXbtdNgjYwDQYJKoZIhvcNAQELBQAw
FjEUMBIGA1UEAwwLdGVhbTIyOC1uZXQwHhcNMjMxMTA0MTA0NDU1WhcNMjYxMDE5
MTA0NDU1WjAZMRcwFQYDVQQDDA50ZWFtMjI4LWNsaWVudDCCASIwDQYJKoZIhvcN
AQEBBQADggEPADCCAQoCggEBALDGqvGjqzPQfHCzYBN9mgT7JteEgHlsxaixM+Px
27GwJJqxGY9/iPJFXTsmaucH+fg23wuvMENL6P2Oz2dtRJpPVLtl8dyhjn5YRxsk
Hn347yUJG9MILI/jwhX3iAUdzfF3/KqlAc40SMrILKjVrT1xKSAdV1h5QjFjA8eI
0H5meQ8PfaWUIRw4b8NPGfRLS2dch/eCZZIjdiNJEa/X+9uNHlASvpNgKusRO6lR
tE3hdVD5b8dmV39PDBYpTaaBgECRkTuEHyb2sfyoiLhYfvePUgMMQe+C28xkCwJA
YQqrkMUL755z29bIClBl7QWRh4CkppX+N/TYxIje98dapVcCAwEAAaOBojCBnzAJ
BgNVHRMEAjAAMB0GA1UdDgQWBBSGhYy8JxcAOEGf5BkEwzdr+9ZU+DBRBgNVHSME
SjBIgBRpbYAt4UcZAzNzcd5AagKsGBmqxKEapBgwFjEUMBIGA1UEAwwLdGVhbTIy
OC1uZXSCFES8CI5P+hhZ22Q051qLkz8nt3KSMBMGA1UdJQQMMAoGCCsGAQUFBwMC
MAsGA1UdDwQEAwIHgDANBgkqhkiG9w0BAQsFAAOCAQEAadLFg0ANTeZPPU5vcwqd
HIq8iwQAnDPdP45iGVGzFXH95UuT7ox3QQRuPfl7uN8XOZWPQhGM3codYaDfTcoK
ALWZ6H1k56bpvX9r59d1NJ6SfE6oyUvAVi1W2ZWp0/tHaxt1Gw2kUVFOKOvoKLcE
eXBvuvKA+ZCp7MstZeN6OE7wqTMA0Edv8yzu7eZ7/6hx2qZQLHuGcEY3JFnilePW
QPHQrlEsYVIPaZBJH+SVydaL5wpiVYCou+XPyzjsyVMi2CK18Bj4wzeS2GZzbgtj
jeft/S7+oHNnmdRt13uA660uh+62rQrmF26eQHKT0Q39aT80U11Umspo9snPks+T
8g==
-----END CERTIFICATE-----
