Certificate:
    Data:
        Version: 3 (0x2)
        Serial Number:
            2d:0a:3e:76:45:ab:3a:30:f0:a4:32:1b:24:ea:01:7f
        Signature Algorithm: sha256WithRSAEncryption
        Issuer: CN=team60-net
        Validity
            Not Before: Nov  4 10:41:24 2023 GMT
            Not After : Oct 19 10:41:24 2026 GMT
        Subject: CN=team60-client
        Subject Public Key Info:
            Public Key Algorithm: rsaEncryption
                Public-Key: (2048 bit)
                Modulus:
                    00:90:ac:62:bf:4c:2d:48:55:22:77:72:c4:53:cb:
                    47:c6:83:e6:6c:ae:c6:2b:82:9b:d0:ad:0f:83:a4:
                    de:ed:eb:17:55:a0:62:c5:2f:40:4b:80:fb:3d:63:
                    da:24:0d:8f:9c:07:e7:8d:5b:38:94:54:13:14:90:
                    6a:16:6f:a0:fe:4a:3e:d5:04:26:b1:bf:89:9b:31:
                    d4:94:68:c3:fe:ab:f1:5e:85:f3:f2:83:51:41:91:
                    b8:64:69:90:1a:a4:91:f4:8d:94:9e:a4:af:eb:f0:
                    45:71:78:da:ff:1c:6b:96:25:cc:ad:9c:0d:58:e8:
                    3e:17:f4:64:50:17:09:7b:88:d4:56:ec:f4:3a:28:
                    eb:50:f6:8a:12:ba:fd:35:b2:05:6f:a3:87:50:b0:
                    50:ec:f3:3f:cf:ef:21:d3:0b:51:78:f0:c5:2c:9f:
                    36:f8:96:51:03:f3:5f:b4:0e:46:2a:7f:db:d6:42:
                    b1:97:be:78:e0:a3:d0:ec:20:1e:cf:e5:6e:00:7d:
                    82:41:9e:37:2d:36:9a:c6:90:b5:3f:23:c7:94:e7:
                    24:c7:63:ca:5c:96:00:9d:5c:8a:ac:2e:12:c0:d6:
                    47:dd:fe:63:8c:a3:4e:e4:23:68:81:8f:42:cc:eb:
                    cf:4f:57:35:56:b3:f8:5b:ab:df:d3:3b:12:45:a5:
                    6c:b3
                Exponent: 65537 (0x10001)
        X509v3 extensions:
            X509v3 Basic Constraints: 
                CA:FALSE
            X509v3 Subject Key Identifier: 
                A6:DD:04:8C:13:E1:8A:C5:B9:02:49:E5:DD:DF:28:A9:5B:40:BB:D6
            X509v3 Authority Key Identifier: 
                keyid:A1:E4:86:12:DE:9B:75:90:BA:23:90:2E:F0:A0:D0:F0:A7:37:E1:79
                DirName:/CN=team60-net
                serial:5F:93:1F:12:D9:66:D4:46:D2:7A:4A:F3:97:B8:0D:DB:E9:8A:A9:15
            X509v3 Extended Key Usage: 
                TLS Web Client Authentication
            X509v3 Key Usage: 
                Digital Signature
    Signature Algorithm: sha256WithRSAEncryption
    Signature Value:
        79:7f:19:81:09:ab:5a:c3:88:fc:2f:06:7e:60:33:4c:52:7c:
        99:f3:3e:58:d4:d6:53:43:f1:36:1c:0f:ce:df:68:c9:b8:80:
        48:a2:d5:aa:3c:0d:fe:c8:e0:a5:7e:70:5d:66:69:6c:33:16:
        f0:92:e1:13:95:c8:ab:fd:44:f6:6c:86:28:92:17:ca:29:dc:
        3c:68:a1:71:5a:dc:d2:b3:14:97:98:16:c4:b0:87:fd:03:fa:
        00:66:d3:e0:53:2d:6d:fb:8a:9a:ab:c3:f1:19:a9:8e:b9:3f:
        4d:9b:a8:a9:56:bd:d8:8b:28:1f:c7:49:79:18:a7:f9:fc:9a:
        cc:64:f4:8e:03:cb:55:19:ae:87:1a:a1:81:83:91:7b:ae:ef:
        a3:2a:16:32:ce:69:24:ca:d6:3f:09:ed:86:32:bf:e6:fb:f0:
        6a:6c:8a:49:90:2a:17:b8:de:b2:4d:fb:95:64:88:80:61:d8:
        e5:28:c1:3b:39:05:c6:ca:7c:c0:a1:30:f3:40:59:3a:e0:c5:
        ea:7c:b1:07:fb:a8:60:2f:60:7e:87:48:d2:89:4d:96:93:97:
        07:63:1f:b3:6c:ae:1f:0f:6e:1a:5c:c7:19:dd:fa:48:41:c0:
        12:71:f0:78:20:ca:d3:69:73:be:06:7d:59:a5:8d:a1:48:01:
        33:00:aa:03
-----BEGIN CERTIFICATE-----
MIIDWTCCAkGgAwIBAgIQLQo+dkWrOjDwpDIbJOoBfzANBgkqhkiG9w0BAQsFADAV
MRMwEQYDVQQDDAp0ZWFtNjAtbmV0MB4XDTIzMTEwNDEwNDEyNFoXDTI2MTAxOTEw
NDEyNFowGDEWMBQGA1UEAwwNdGVhbTYwLWNsaWVudDCCASIwDQYJKoZIhvcNAQEB
BQADggEPADCCAQoCggEBAJCsYr9MLUhVIndyxFPLR8aD5myuxiuCm9CtD4Ok3u3r
F1WgYsUvQEuA+z1j2iQNj5wH541bOJRUExSQahZvoP5KPtUEJrG/iZsx1JRow/6r
8V6F8/KDUUGRuGRpkBqkkfSNlJ6kr+vwRXF42v8ca5YlzK2cDVjoPhf0ZFAXCXuI
1Fbs9Doo61D2ihK6/TWyBW+jh1CwUOzzP8/vIdMLUXjwxSyfNviWUQPzX7QORip/
29ZCsZe+eOCj0OwgHs/lbgB9gkGeNy02msaQtT8jx5TnJMdjylyWAJ1ciqwuEsDW
R93+Y4yjTuQjaIGPQszrz09XNVaz+Fur39M7EkWlbLMCAwEAAaOBoTCBnjAJBgNV
HRMEAjAAMB0GA1UdDgQWBBSm3QSME+GKxbkCSeXd3yipW0C71jBQBgNVHSMESTBH
gBSh5IYS3pt1kLojkC7woNDwpzfheaEZpBcwFTETMBEGA1UEAwwKdGVhbTYwLW5l
dIIUX5MfEtlm1EbSekrzl7gN2+mKqRUwEwYDVR0lBAwwCgYIKwYBBQUHAwIwCwYD
VR0PBAQDAgeAMA0GCSqGSIb3DQEBCwUAA4IBAQB5fxmBCataw4j8LwZ+YDNMUnyZ
8z5Y1NZTQ/E2HA/O32jJuIBIotWqPA3+yOClfnBdZmlsMxbwkuETlcir/UT2bIYo
khfKKdw8aKFxWtzSsxSXmBbEsIf9A/oAZtPgUy1t+4qaq8PxGamOuT9Nm6ipVr3Y
iygfx0l5GKf5/JrMZPSOA8tVGa6HGqGBg5F7ru+jKhYyzmkkytY/Ce2GMr/m+/Bq
bIpJkCoXuN6yTfuVZIiAYdjlKME7OQXGynzAoTDzQFk64MXqfLEH+6hgL2B+h0jS
iU2Wk5cHYx+zbK4fD24aXMcZ3fpIQcAScfB4IMrTaXO+Bn1ZpY2hSAEzAKoD
-----END CERTIFICATE-----
