Certificate:
    Data:
        Version: 3 (0x2)
        Serial Number:
            75:5b:18:6a:1e:c0:2d:93:fe:70:43:f2:43:a4:63:17
        Signature Algorithm: sha256WithRSAEncryption
        Issuer: CN=team60-net
        Validity
            Not Before: Nov  4 10:41:24 2023 GMT
            Not After : Oct 19 10:41:24 2026 GMT
        Subject: CN=team60-server
        Subject Public Key Info:
            Public Key Algorithm: rsaEncryption
                Public-Key: (2048 bit)
                Modulus:
                    00:e4:8f:3d:ce:3d:fc:f2:4f:8f:31:08:5d:95:c4:
                    91:c0:35:14:ad:ba:ec:b6:21:8f:b9:b6:48:00:f9:
                    b6:fc:5d:83:05:cb:41:85:d9:bd:46:c8:2f:5c:da:
                    d5:fa:be:a7:7c:72:e4:a9:e0:92:fc:e6:0b:36:2d:
                    8e:84:40:c7:b4:96:7f:1c:c5:49:1a:16:c1:39:10:
                    83:13:db:66:4c:c5:1d:35:24:3d:06:85:b5:49:2b:
                    d7:26:ad:97:f2:cd:e3:f2:2f:2f:86:e9:2a:95:2f:
                    5e:7c:b0:d7:a8:d2:88:81:24:10:62:fa:1d:d1:6a:
                    a8:ad:52:7f:fd:db:38:ad:95:0f:95:4b:69:c9:05:
                    15:b4:80:7c:3e:12:02:8b:b9:4a:b4:eb:25:1f:ac:
                    2e:2f:01:75:7c:d6:bd:34:8d:1b:5b:79:1c:6a:01:
                    28:fd:c6:9d:8f:f2:d0:a6:aa:6f:e9:7f:89:df:62:
                    02:4e:91:7b:ed:45:b0:2a:3f:77:96:15:b9:26:5e:
                    9a:5b:9b:37:35:d8:5a:16:1c:a5:72:41:ae:f5:69:
                    bc:9d:4c:45:ee:d7:13:5f:ef:1d:17:1b:92:7d:59:
                    8e:4b:b4:61:d7:29:56:50:b4:2d:61:e4:8a:d3:32:
                    31:78:fa:e3:d2:f9:42:cb:e5:b1:75:b2:8e:20:f1:
                    3d:39
                Exponent: 65537 (0x10001)
        X509v3 extensions:
            X509v3 Basic Constraints: 
                CA:FALSE
            X509v3 Subject Key Identifier: 
                60:93:C7:48:70:53:9D:EA:96:6A:8F:66:19:B6:B7:72:47:81:C3:FE
            X509v3 Authority Key Identifier: 
                keyid:A1:E4:86:12:DE:9B:75:90:BA:23:90:2E:F0:A0:D0:F0:A7:37:E1:79
                DirName:/CN=team60-net
                serial:5F:93:1F:12:D9:66:D4:46:D2:7A:4A:F3:97:B8:0D:DB:E9:8A:A9:15
            X509v3 Extended Key Usage: 
                TLS Web Server Authentication
            X509v3 Key Usage: 
                Digital Signature, Key Encipherment
            X509v3 Subject Alternative Name: 
                DNS:team60-server
    Signature Algorithm: sha256WithRSAEncryption
    Signature Value:
        1d:ae:1e:45:2d:0e:a4:3b:ad:83:e4:4c:6e:72:85:ed:6f:90:
        75:e2:71:fb:00:02:39:29:60:ca:9c:c3:6f:ad:1c:c3:dd:c2:
        d0:b0:88:46:f7:bd:ae:f6:9a:f4:e9:5b:b8:f1:98:58:fe:de:
        96:a4:07:57:7a:84:12:00:8a:24:51:62:82:1d:9c:0c:59:e1:
        ee:71:54:c3:6a:8e:86:9f:4a:3a:9c:ad:7a:3a:08:f6:a2:b3:
        f6:02:f7:57:69:b3:a0:ad:5d:a0:df:36:75:67:0a:f2:94:18:
        73:06:a1:6e:43:a0:05:49:90:1e:7b:a7:49:46:59:49:58:9a:
        9b:db:04:d1:b4:bf:67:19:b8:4e:9c:d7:76:cd:76:8e:77:7a:
        ef:1f:93:82:a6:21:19:ad:80:a1:e7:1b:f5:45:31:5a:17:9a:
        ec:60:32:2a:69:37:e5:79:70:ea:24:a0:0c:81:03:91:b1:d1:
        1b:1f:49:60:e3:0a:61:96:cd:2d:ee:92:5f:88:56:fc:6b:a5:
        9e:79:48:84:4f:00:3e:fb:d9:e5:05:57:1c:97:ee:9a:7e:bb:
        37:3a:c0:c5:c3:72:7f:0d:02:fd:3b:b7:48:e9:ed:fe:ca:7e:
        88:cf:4b:66:07:99:e3:a1:22:f1:c4:28:a7:7d:f3:16:75:b8:
        78:16:1e:b7
-----BEGIN CERTIFICATE-----
MIIDczCCAlugAwIBAgIQdVsYah7ALZP+cEPyQ6RjFzANBgkqhkiG9w0BAQsFADAV
MRMwEQYDVQQDDAp0ZWFtNjAtbmV0MB4XDTIzMTEwNDEwNDEyNFoXDTI2MTAxOTEw
NDEyNFowGDEWMBQGA1UEAwwNdGVhbTYwLXNlcnZlcjCCASIwDQYJKoZIhvcNAQEB
BQADggEPADCCAQoCggEBAOSPPc49/PJPjzEIXZXEkcA1FK267LYhj7m2SAD5tvxd
gwXLQYXZvUbIL1za1fq+p3xy5KngkvzmCzYtjoRAx7SWfxzFSRoWwTkQgxPbZkzF
HTUkPQaFtUkr1yatl/LN4/IvL4bpKpUvXnyw16jSiIEkEGL6HdFqqK1Sf/3bOK2V
D5VLackFFbSAfD4SAou5SrTrJR+sLi8BdXzWvTSNG1t5HGoBKP3GnY/y0Kaqb+l/
id9iAk6Re+1FsCo/d5YVuSZemlubNzXYWhYcpXJBrvVpvJ1MRe7XE1/vHRcbkn1Z
jku0YdcpVlC0LWHkitMyMXj649L5QsvlsXWyjiDxPTkCAwEAAaOBuzCBuDAJBgNV
HRMEAjAAMB0GA1UdDgQWBBRgk8dIcFOd6pZqj2YZtrdyR4HD/jBQBgNVHSMESTBH
gBSh5IYS3pt1kLojkC7woNDwpzfheaEZpBcwFTETMBEGA1UEAwwKdGVhbTYwLW5l
dIIUX5MfEtlm1EbSekrzl7gN2+mKqRUwEwYDVR0lBAwwCgYIKwYBBQUHAwEwCwYD
VR0PBAQDAgWgMBgGA1UdEQQRMA+CDXRlYW02MC1zZXJ2ZXIwDQYJKoZIhvcNAQEL
BQADggEBAB2uHkUtDqQ7rYPkTG5yhe1vkHXicfsAAjkpYMqcw2+tHMPdwtCwiEb3
va72mvTpW7jxmFj+3pakB1d6hBIAiiRRYoIdnAxZ4e5xVMNqjoafSjqcrXo6CPai
s/YC91dps6CtXaDfNnVnCvKUGHMGoW5DoAVJkB57p0lGWUlYmpvbBNG0v2cZuE6c
13bNdo53eu8fk4KmIRmtgKHnG/VFMVoXmuxgMippN+V5cOokoAyBA5Gx0RsfSWDj
CmGWzS3ukl+IVvxrpZ55SIRPAD772eUFVxyX7pp+uzc6wMXDcn8NAv07t0jp7f7K
fojPS2YHmeOhIvHEKKd98xZ1uHgWHrc=
-----END CERTIFICATE-----
