Certificate:
    Data:
        Version: 3 (0x2)
        Serial Number:
            8f:b4:b4:b8:89:0b:0b:5f:fe:29:92:a1:4e:77:b5:3f
        Signature Algorithm: sha256WithRSAEncryption
        Issuer: CN=team60-net
        Validity
            Not Before: Nov  4 11:28:30 2023 GMT
            Not After : Oct 19 11:28:30 2026 GMT
        Subject: CN=team60-client
        Subject Public Key Info:
            Public Key Algorithm: rsaEncryption
                Public-Key: (2048 bit)
                Modulus:
                    00:bd:c1:24:f7:77:a8:55:ec:68:27:81:a9:f1:17:
                    f1:92:9c:ba:61:64:77:3d:32:8c:c7:c3:63:4b:85:
                    d0:71:76:f1:e1:a4:4e:54:1b:60:ee:7c:fa:84:83:
                    57:d0:75:4d:67:c4:bd:d4:1e:b9:bf:e6:b8:7a:36:
                    16:43:10:df:fc:dc:63:d1:cd:36:68:91:1e:57:43:
                    16:97:24:39:10:07:53:e7:0b:a0:e2:12:ba:d8:18:
                    19:26:27:15:2b:59:4b:4c:09:d8:3c:b4:42:e4:90:
                    1a:09:17:98:27:fb:cf:8d:19:d3:73:32:4b:5d:d4:
                    c3:40:35:44:b0:38:df:6e:7e:4f:d4:8f:e1:65:ff:
                    4b:3f:4e:c6:aa:4b:08:8e:73:25:f0:a5:4e:0d:5d:
                    81:dd:7e:87:18:df:a2:f2:d6:93:0a:14:b2:b3:37:
                    5f:16:1e:e3:c7:5d:c4:b8:e8:17:db:e8:e1:46:5c:
                    d3:b5:8d:38:9b:60:a1:f3:c1:af:9f:aa:14:df:f1:
                    31:88:f0:15:b6:e9:0d:24:13:3e:49:f7:ea:d4:4b:
                    65:d5:ae:35:a5:bb:51:e9:ed:5b:3a:76:0b:80:f9:
                    ca:03:5e:5b:e4:9b:98:38:b0:30:2e:28:d9:89:8f:
                    ef:f8:13:2b:73:f1:cc:50:2c:44:f1:08:12:6a:9f:
                    ae:ef
                Exponent: 65537 (0x10001)
        X509v3 extensions:
            X509v3 Basic Constraints: 
                CA:FALSE
            X509v3 Subject Key Identifier: 
                E5:27:3E:50:6C:00:DD:9F:44:88:62:04:D6:6C:B3:99:07:53:47:ED
            X509v3 Authority Key Identifier: 
                keyid:62:D2:22:0D:D4:0D:5B:D0:F7:63:9F:C2:54:D1:4A:88:20:39:05:15
                DirName:/CN=team60-net
                serial:0F:B1:A7:B2:27:05:85:6D:CD:37:53:96:B8:53:F4:AA:81:6A:90:D9
            X509v3 Extended Key Usage: 
                TLS Web Client Authentication
            X509v3 Key Usage: 
                Digital Signature
    Signature Algorithm: sha256WithRSAEncryption
    Signature Value:
        23:b9:4b:f7:24:4c:83:30:b9:e1:60:2a:c5:81:04:5d:0d:53:
        2b:c0:8c:5b:11:2d:6f:b3:83:9c:a9:55:c8:11:fc:a2:28:77:
        b2:6d:3d:73:a1:c3:6a:16:23:8f:d6:05:d9:09:2a:ae:8d:11:
        70:a4:12:eb:d0:15:26:02:d6:00:b8:09:6c:2d:20:8e:0a:74:
        98:c3:d9:6d:57:58:42:38:9e:d2:39:6d:d8:3b:72:0d:fd:62:
        e8:80:36:4e:94:16:de:92:b6:02:3d:18:59:55:e8:8e:31:c0:
        43:f1:ed:7e:b0:b7:8e:7b:c8:5f:72:dd:ba:0d:14:69:ca:18:
        bb:43:1e:ff:95:9c:87:c0:4a:8e:01:b1:6a:f9:7d:1d:83:20:
        55:63:65:d7:f1:05:0d:c7:ab:d9:fd:92:31:e4:fe:19:25:ba:
        c7:61:29:4e:28:f1:98:d0:01:eb:52:09:cb:02:9e:ac:28:f2:
        f3:16:42:84:a4:35:c4:df:1d:9e:79:c9:6b:7a:88:c3:5c:c4:
        10:1c:0f:dc:1a:7f:0d:2b:01:8c:4b:f6:35:9b:bb:9b:71:8a:
        e7:e1:a3:44:14:1f:c9:35:40:db:de:27:71:82:a5:e8:69:99:
        12:2d:41:13:27:23:fd:3c:d3:b7:85:d3:ce:dc:42:84:73:38:
        21:f7:10:c6
-----BEGIN CERTIFICATE-----
MIIDWjCCAkKgAwIBAgIRAI+0tLiJCwtf/imSoU53tT8wDQYJKoZIhvcNAQELBQAw
FTETMBEGA1UEAwwKdGVhbTYwLW5ldDAeFw0yMzExMDQxMTI4MzBaFw0yNjEwMTkx
MTI4MzBaMBgxFjAUBgNVBAMMDXRlYW02MC1jbGllbnQwggEiMA0GCSqGSIb3DQEB
AQUAA4IBDwAwggEKAoIBAQC9wST3d6hV7GgnganxF/GSnLphZHc9MozHw2NLhdBx
dvHhpE5UG2DufPqEg1fQdU1nxL3UHrm/5rh6NhZDEN/83GPRzTZokR5XQxaXJDkQ
B1PnC6DiErrYGBkmJxUrWUtMCdg8tELkkBoJF5gn+8+NGdNzMktd1MNANUSwON9u
fk/Uj+Fl/0s/TsaqSwiOcyXwpU4NXYHdfocY36Ly1pMKFLKzN18WHuPHXcS46Bfb
6OFGXNO1jTibYKHzwa+fqhTf8TGI8BW26Q0kEz5J9+rUS2XVrjWlu1Hp7Vs6dguA
+coDXlvkm5g4sDAuKNmJj+/4Eytz8cxQLETxCBJqn67vAgMBAAGjgaEwgZ4wCQYD
VR0TBAIwADAdBgNVHQ4EFgQU5Sc+UGwA3Z9EiGIE1myzmQdTR+0wUAYDVR0jBEkw
R4AUYtIiDdQNW9D3Y5/CVNFKiCA5BRWhGaQXMBUxEzARBgNVBAMMCnRlYW02MC1u
ZXSCFA+xp7InBYVtzTdTlrhT9KqBapDZMBMGA1UdJQQMMAoGCCsGAQUFBwMCMAsG
A1UdDwQEAwIHgDANBgkqhkiG9w0BAQsFAAOCAQEAI7lL9yRMgzC54WAqxYEEXQ1T
K8CMWxEtb7ODnKlVyBH8oih3sm09c6HDahYjj9YF2Qkqro0RcKQS69AVJgLWALgJ
bC0gjgp0mMPZbVdYQjie0jlt2DtyDf1i6IA2TpQW3pK2Aj0YWVXojjHAQ/HtfrC3
jnvIX3Ldug0UacoYu0Me/5Wch8BKjgGxavl9HYMgVWNl1/EFDcer2f2SMeT+GSW6
x2EpTijxmNAB61IJywKerCjy8xZChKQ1xN8dnnnJa3qIw1zEEBwP3Bp/DSsBjEv2
NZu7m3GK5+GjRBQfyTVA294ncYKl6GmZEi1BEycj/TzTt4XTztxChHM4IfcQxg==
-----END CERTIFICATE-----
