Certificate:
    Data:
        Version: 3 (0x2)
        Serial Number:
            60:7d:3b:a9:1e:1e:57:0d:52:ff:f1:2d:6c:3f:24:a5
        Signature Algorithm: sha256WithRSAEncryption
        Issuer: CN=team225-net
        Validity
            Not Before: Nov  4 10:44:51 2023 GMT
            Not After : Oct 19 10:44:51 2026 GMT
        Subject: CN=team225-server
        Subject Public Key Info:
            Public Key Algorithm: rsaEncryption
                Public-Key: (2048 bit)
                Modulus:
                    00:d1:04:ab:0e:74:99:16:32:5d:ab:a4:fb:b4:4b:
                    22:b0:2b:38:23:d6:7c:d3:f6:bc:9d:ca:24:f7:23:
                    71:c7:f5:87:ee:e9:59:3f:3d:a8:22:73:00:92:41:
                    e2:a6:b9:80:47:7f:f1:20:c9:9b:11:2e:0a:0b:c5:
                    cc:94:03:96:ad:98:8c:3e:34:04:9f:41:dd:2a:78:
                    8e:1d:56:59:ca:f8:f1:ae:26:5f:fa:1a:07:1f:0b:
                    25:70:e0:ee:0e:52:f0:15:e5:17:27:2f:97:02:98:
                    f0:08:43:18:3a:af:44:eb:76:b9:e6:3b:72:95:47:
                    ae:f2:d7:1b:e6:95:36:0d:b1:7e:e6:db:fc:47:28:
                    f7:11:eb:18:5e:79:21:0c:01:58:5e:01:1b:b4:bd:
                    0b:dd:b0:0d:85:f5:cd:31:67:4b:fd:80:83:98:83:
                    dd:8c:71:54:b2:c3:46:45:2d:78:26:92:0a:01:a8:
                    b9:19:86:0f:ac:4e:b9:5e:a6:a8:06:37:69:50:f3:
                    53:4c:b9:da:e7:19:f0:fc:19:00:36:61:fc:fa:36:
                    ad:fa:29:0a:2a:bd:36:0a:b5:38:c5:ba:0e:14:ba:
                    51:22:f4:12:0f:97:93:7a:78:2e:1c:3b:8f:e0:a5:
                    7b:62:0a:5a:6d:9b:a3:c0:a0:66:6b:ec:e9:3b:08:
                    ed:55
                Exponent: 65537 (0x10001)
        X509v3 extensions:
            X509v3 Basic Constraints: 
                CA:FALSE
            X509v3 Subject Key Identifier: 
                FF:99:EC:1E:BF:1F:0F:5B:08:B4:96:93:F7:FF:E3:57:A8:B8:EA:B7
            X509v3 Authority Key Identifier: 
                keyid:E7:7C:8D:07:A4:03:4D:42:37:F1:D0:98:58:B7:CE:C8:A9:97:F2:07
                DirName:/CN=team225-net
                serial:43:98:38:12:1D:3A:8F:4A:1A:18:A0:14:EC:D6:A1:57:85:F5:A7:3E
            X509v3 Extended Key Usage: 
                TLS Web Server Authentication
            X509v3 Key Usage: 
                Digital Signature, Key Encipherment
            X509v3 Subject Alternative Name: 
                DNS:team225-server
    Signature Algorithm: sha256WithRSAEncryption
    Signature Value:
        17:4a:4c:ec:21:bc:b8:cd:f8:fa:32:1e:dc:80:61:40:29:87:
        b4:1f:e4:3e:7c:bb:67:d7:17:ff:c4:b2:40:90:5c:5f:20:ac:
        b5:74:2e:62:7f:43:78:e7:d8:3f:19:28:b9:70:c8:4f:b2:56:
        95:10:a9:ab:ac:b8:3d:0a:1c:fc:4a:8f:2d:c9:a0:3f:b9:cc:
        e7:15:fd:b9:92:2a:f9:bb:e7:d3:7a:72:a8:cb:30:4f:3b:ef:
        59:89:5c:6b:30:45:c6:f6:16:72:5a:48:27:66:c9:fb:6d:b6:
        25:30:50:d7:ac:54:96:1b:a2:36:03:6a:22:8b:92:9d:d4:2a:
        21:14:20:4a:50:8f:e2:03:6c:f1:45:6d:e5:53:23:22:da:cd:
        bd:3e:b8:d6:2a:12:a0:61:c8:8c:1c:e0:5f:28:ae:77:b4:fa:
        17:ec:00:dc:85:cb:45:62:b0:8b:77:46:51:be:e2:e7:4d:1c:
        9a:4b:0d:bd:29:ad:d1:ae:47:40:53:05:3f:d7:8f:ab:20:e8:
        e1:6a:4e:43:a0:b2:22:02:d8:79:9f:7e:27:04:60:56:56:78:
        aa:00:24:ac:c9:73:83:13:5d:00:b5:bb:ab:54:4b:e2:c0:a2:
        74:93:2e:a0:14:35:d1:c8:61:db:2f:51:45:84:60:08:3d:52:
        ca:6c:29:2a
-----BEGIN CERTIFICATE-----
MIIDdzCCAl+gAwIBAgIQYH07qR4eVw1S//EtbD8kpTANBgkqhkiG9w0BAQsFADAW
MRQwEgYDVQQDDAt0ZWFtMjI1LW5ldDAeFw0yMzExMDQxMDQ0NTFaFw0yNjEwMTkx
MDQ0NTFaMBkxFzAVBgNVBAMMDnRlYW0yMjUtc2VydmVyMIIBIjANBgkqhkiG9w0B
AQEFAAOCAQ8AMIIBCgKCAQEA0QSrDnSZFjJdq6T7tEsisCs4I9Z80/a8ncok9yNx
x/WH7ulZPz2oInMAkkHiprmAR3/xIMmbES4KC8XMlAOWrZiMPjQEn0HdKniOHVZZ
yvjxriZf+hoHHwslcODuDlLwFeUXJy+XApjwCEMYOq9E63a55jtylUeu8tcb5pU2
DbF+5tv8Ryj3EesYXnkhDAFYXgEbtL0L3bANhfXNMWdL/YCDmIPdjHFUssNGRS14
JpIKAai5GYYPrE65XqaoBjdpUPNTTLna5xnw/BkANmH8+jat+ikKKr02CrU4xboO
FLpRIvQSD5eTenguHDuP4KV7YgpabZujwKBma+zpOwjtVQIDAQABo4G9MIG6MAkG
A1UdEwQCMAAwHQYDVR0OBBYEFP+Z7B6/Hw9bCLSWk/f/41eouOq3MFEGA1UdIwRK
MEiAFOd8jQekA01CN/HQmFi3zsipl/IHoRqkGDAWMRQwEgYDVQQDDAt0ZWFtMjI1
LW5ldIIUQ5g4Eh06j0oaGKAU7NahV4X1pz4wEwYDVR0lBAwwCgYIKwYBBQUHAwEw
CwYDVR0PBAQDAgWgMBkGA1UdEQQSMBCCDnRlYW0yMjUtc2VydmVyMA0GCSqGSIb3
DQEBCwUAA4IBAQAXSkzsIby4zfj6Mh7cgGFAKYe0H+Q+fLtn1xf/xLJAkFxfIKy1
dC5if0N459g/GSi5cMhPslaVEKmrrLg9Chz8So8tyaA/ucznFf25kir5u+fTenKo
yzBPO+9ZiVxrMEXG9hZyWkgnZsn7bbYlMFDXrFSWG6I2A2oii5Kd1CohFCBKUI/i
A2zxRW3lUyMi2s29PrjWKhKgYciMHOBfKK53tPoX7ADchctFYrCLd0ZRvuLnTRya
Sw29Ka3RrkdAUwU/14+rIOjhak5DoLIiAth5n34nBGBWVniqACSsyXODE10Atbur
VEviwKJ0ky6gFDXRyGHbL1FFhGAIPVLKbCkq
-----END CERTIFICATE-----
