Certificate:
    Data:
        Version: 3 (0x2)
        Serial Number:
            61:19:a6:b0:96:d0:a3:78:79:3c:e8:06:d3:82:43:09
        Signature Algorithm: sha256WithRSAEncryption
        Issuer: CN=team225-net
        Validity
            Not Before: Nov  4 10:44:51 2023 GMT
            Not After : Oct 19 10:44:51 2026 GMT
        Subject: CN=team225-client
        Subject Public Key Info:
            Public Key Algorithm: rsaEncryption
                Public-Key: (2048 bit)
                Modulus:
                    00:c3:1b:85:35:e8:87:66:e6:d0:3c:62:e7:1e:48:
                    ec:2c:db:39:c9:75:46:9c:a5:3e:c3:a1:d2:e0:fd:
                    c5:b1:95:6c:52:ba:e7:bf:41:21:0f:bf:c6:97:6a:
                    e5:ca:e6:e1:41:c6:55:39:a4:20:62:ac:d0:15:95:
                    87:e5:83:f3:3f:f5:bd:87:2b:3f:d8:67:eb:c1:0c:
                    2e:e7:70:5f:e0:3c:bc:5c:7b:46:26:11:6f:6e:5a:
                    62:4f:54:1c:35:a2:fd:6b:fd:f2:ca:ea:45:b2:49:
                    5a:e8:fc:3d:38:5b:f8:fb:e3:1c:75:12:95:cb:b9:
                    83:9e:43:5d:d6:16:65:57:fb:1f:fb:45:77:b3:94:
                    ed:18:d6:ed:b0:1d:42:6a:57:ef:e3:a1:37:ad:ce:
                    11:89:17:f8:26:1f:a0:dd:8b:de:85:cb:1a:df:54:
                    b6:4e:21:94:12:f0:c6:b0:8c:96:15:5a:c2:53:08:
                    5a:f2:82:b8:cb:e6:cd:b6:0d:ca:08:51:84:76:b9:
                    30:fb:ae:e3:5b:b8:4a:e4:6c:71:7f:6e:72:9c:c3:
                    47:3b:a0:ce:b3:92:19:9d:58:1f:0f:a1:7e:c4:0a:
                    a8:42:f3:2d:27:04:46:6d:d5:f6:92:bd:4c:fa:2f:
                    d4:f9:ae:b5:db:b1:92:a9:83:b4:94:54:2b:e0:35:
                    3f:3d
                Exponent: 65537 (0x10001)
        X509v3 extensions:
            X509v3 Basic Constraints: 
                CA:FALSE
            X509v3 Subject Key Identifier: 
                60:A5:32:11:DB:02:C9:B0:B4:F8:53:78:E1:A8:5D:7B:62:13:2F:7A
            X509v3 Authority Key Identifier: 
                keyid:E7:7C:8D:07:A4:03:4D:42:37:F1:D0:98:58:B7:CE:C8:A9:97:F2:07
                DirName:/CN=team225-net
                serial:43:98:38:12:1D:3A:8F:4A:1A:18:A0:14:EC:D6:A1:57:85:F5:A7:3E
            X509v3 Extended Key Usage: 
                TLS Web Client Authentication
            X509v3 Key Usage: 
                Digital Signature
    Signature Algorithm: sha256WithRSAEncryption
    Signature Value:
        82:32:48:00:57:54:12:88:58:83:80:70:2a:28:9b:a5:81:a7:
        a6:77:50:16:39:94:c2:7e:c3:55:7e:c9:9e:d1:e7:47:84:e3:
        b9:f4:ef:4d:b1:b5:cc:90:e2:f5:d6:cd:08:5a:e6:49:53:52:
        01:1e:c6:d5:bd:c5:11:cb:a5:7c:e8:e9:7d:fa:f2:9b:fc:86:
        cd:77:c3:c7:50:f8:a3:d8:8e:7e:5b:5e:0f:70:a9:47:1e:bf:
        d3:22:56:49:8a:7e:aa:a3:5f:9e:71:8c:ea:e1:44:ed:06:6a:
        bc:1b:49:3a:f2:13:73:ee:a4:de:20:36:c2:42:26:12:3e:e2:
        5e:bf:78:ce:e4:37:a5:7e:f4:75:de:e3:f4:99:79:f1:ac:59:
        57:9e:49:72:79:14:7a:0f:b6:83:39:b8:3d:d0:26:c7:2f:cb:
        60:f7:a3:81:59:69:04:4b:1c:31:35:eb:39:a0:ca:c2:43:70:
        77:04:e2:ad:76:6e:b4:75:30:29:77:28:d8:28:55:9f:fc:24:
        e1:75:ca:51:83:ed:af:96:fb:63:1c:24:52:95:04:96:47:92:
        ab:2c:55:ee:c0:af:b3:7d:25:92:47:8f:ef:2d:51:13:5d:25:
        30:91:d9:e7:4b:92:a6:35:52:9e:1a:67:1b:3f:d1:de:34:ff:
        c6:47:52:c6
-----BEGIN CERTIFICATE-----
MIIDXDCCAkSgAwIBAgIQYRmmsJbQo3h5POgG04JDCTANBgkqhkiG9w0BAQsFADAW
MRQwEgYDVQQDDAt0ZWFtMjI1LW5ldDAeFw0yMzExMDQxMDQ0NTFaFw0yNjEwMTkx
MDQ0NTFaMBkxFzAVBgNVBAMMDnRlYW0yMjUtY2xpZW50MIIBIjANBgkqhkiG9w0B
AQEFAAOCAQ8AMIIBCgKCAQEAwxuFNeiHZubQPGLnHkjsLNs5yXVGnKU+w6HS4P3F
sZVsUrrnv0EhD7/Gl2rlyubhQcZVOaQgYqzQFZWH5YPzP/W9hys/2GfrwQwu53Bf
4Dy8XHtGJhFvblpiT1QcNaL9a/3yyupFskla6Pw9OFv4++McdRKVy7mDnkNd1hZl
V/sf+0V3s5TtGNbtsB1Calfv46E3rc4RiRf4Jh+g3Yvehcsa31S2TiGUEvDGsIyW
FVrCUwha8oK4y+bNtg3KCFGEdrkw+67jW7hK5Gxxf25ynMNHO6DOs5IZnVgfD6F+
xAqoQvMtJwRGbdX2kr1M+i/U+a6127GSqYO0lFQr4DU/PQIDAQABo4GiMIGfMAkG
A1UdEwQCMAAwHQYDVR0OBBYEFGClMhHbAsmwtPhTeOGoXXtiEy96MFEGA1UdIwRK
MEiAFOd8jQekA01CN/HQmFi3zsipl/IHoRqkGDAWMRQwEgYDVQQDDAt0ZWFtMjI1
LW5ldIIUQ5g4Eh06j0oaGKAU7NahV4X1pz4wEwYDVR0lBAwwCgYIKwYBBQUHAwIw
CwYDVR0PBAQDAgeAMA0GCSqGSIb3DQEBCwUAA4IBAQCCMkgAV1QSiFiDgHAqKJul
gaemd1AWOZTCfsNVfsme0edHhOO59O9NsbXMkOL11s0IWuZJU1IBHsbVvcURy6V8
6Ol9+vKb/IbNd8PHUPij2I5+W14PcKlHHr/TIlZJin6qo1+ecYzq4UTtBmq8G0k6
8hNz7qTeIDbCQiYSPuJev3jO5DelfvR13uP0mXnxrFlXnklyeRR6D7aDObg90CbH
L8tg96OBWWkESxwxNes5oMrCQ3B3BOKtdm60dTApdyjYKFWf/CThdcpRg+2vlvtj
HCRSlQSWR5KrLFXuwK+zfSWSR4/vLVETXSUwkdnnS5KmNVKeGmcbP9HeNP/GR1LG
-----END CERTIFICATE-----
