Certificate:
    Data:
        Version: 3 (0x2)
        Serial Number:
            6b:ed:5c:3e:77:79:f8:af:69:be:3f:c1:6c:ca:78:10
        Signature Algorithm: sha256WithRSAEncryption
        Issuer: CN=team225-net
        Validity
            Not Before: Nov  4 11:32:02 2023 GMT
            Not After : Oct 19 11:32:02 2026 GMT
        Subject: CN=team225-client
        Subject Public Key Info:
            Public Key Algorithm: rsaEncryption
                Public-Key: (2048 bit)
                Modulus:
                    00:a1:fd:83:66:95:42:bc:0a:7a:b3:cd:89:0c:3c:
                    4e:79:04:d9:03:88:b0:0d:fc:4a:c8:f7:a2:91:b9:
                    8a:7c:3f:c0:f7:0c:e9:5e:7d:e3:e2:5f:d3:e5:0e:
                    9b:2b:bc:ec:59:30:10:e7:bf:0e:d8:61:6d:79:18:
                    bf:f9:ac:ce:af:71:e2:99:bb:36:23:69:ac:ea:1f:
                    c5:17:b2:81:12:b2:f7:42:d4:31:04:0e:71:39:ad:
                    ab:a1:85:e9:01:53:57:66:52:00:fe:f3:33:28:f9:
                    62:a8:38:5e:85:0d:0e:db:6c:14:73:92:59:6b:6f:
                    e2:d5:60:de:e6:62:e0:9b:1d:72:a1:76:9c:5f:13:
                    2a:2f:9c:a3:47:e7:7f:64:25:ea:e2:56:a5:12:3b:
                    0f:e1:02:58:f7:d9:b3:82:80:bc:21:78:c4:e2:b0:
                    93:cf:40:9b:74:4f:bf:63:f5:80:22:cf:93:02:00:
                    e4:3b:ca:e5:a9:4a:c3:d6:20:b0:1e:8b:66:86:11:
                    2b:32:ce:a2:b0:67:70:82:05:75:03:32:31:eb:fd:
                    e8:7d:88:07:33:46:86:53:c7:c3:44:8e:c1:f0:2b:
                    2e:22:3e:62:bc:04:78:20:cd:45:bb:8b:e5:5c:bd:
                    fc:01:6e:ef:f3:2c:64:20:7a:2d:9c:a1:a7:8a:3d:
                    d0:b9
                Exponent: 65537 (0x10001)
        X509v3 extensions:
            X509v3 Basic Constraints: 
                CA:FALSE
            X509v3 Subject Key Identifier: 
                F6:F6:2C:14:07:C1:A9:89:F3:86:0C:F8:F5:FC:8F:77:08:CA:36:C3
            X509v3 Authority Key Identifier: 
                keyid:50:58:40:3F:1B:38:68:2A:22:8F:7F:DC:CF:21:1F:13:8E:29:D5:CB
                DirName:/CN=team225-net
                serial:5A:DF:20:02:C8:96:8B:A8:CD:EF:F9:1F:AC:A4:E4:B3:1C:9C:9A:46
            X509v3 Extended Key Usage: 
                TLS Web Client Authentication
            X509v3 Key Usage: 
                Digital Signature
    Signature Algorithm: sha256WithRSAEncryption
    Signature Value:
        3a:67:7d:85:79:0c:f2:70:0b:8e:5d:f1:1e:3a:04:c9:93:85:
        fd:1c:d2:d3:67:ee:c3:95:8b:cc:71:39:2b:12:23:38:82:b2:
        99:bb:96:c8:d6:21:74:61:8c:b4:20:61:a8:df:a8:7e:25:7b:
        36:f0:d5:5b:42:49:3f:e8:72:60:ea:13:69:3f:4f:2e:f4:9b:
        4b:31:93:ef:35:24:41:77:8d:68:73:91:c4:50:b9:71:17:09:
        d4:7c:a7:dd:1b:10:98:a8:9e:ff:76:7d:66:99:6f:f7:5e:6e:
        eb:5c:5d:e7:cd:f9:e0:5c:96:42:a8:5c:99:ac:3b:88:39:21:
        d7:9d:b6:25:dc:e6:97:2d:54:62:96:d8:8f:1f:9d:0b:21:08:
        b1:f6:73:1b:83:13:5d:bb:d2:e8:1a:73:79:f5:d4:e1:77:f9:
        1d:5c:cf:f7:b8:6e:2f:9d:9e:69:33:a9:36:1a:48:43:19:a1:
        d8:de:a9:56:99:85:b4:e5:e9:07:b3:3a:2d:52:79:1d:82:81:
        c1:79:e8:12:c6:1d:32:7b:57:2c:84:39:3c:fb:b7:ef:d3:d2:
        25:4f:86:35:36:ae:26:8e:49:89:00:9e:cb:ce:ec:87:f8:54:
        06:9b:15:e7:cf:05:20:09:a3:58:2d:b4:1c:41:53:dd:d6:b9:
        e3:9e:87:52
-----BEGIN CERTIFICATE-----
MIIDXDCCAkSgAwIBAgIQa+1cPnd5+K9pvj/BbMp4EDANBgkqhkiG9w0BAQsFADAW
MRQwEgYDVQQDDAt0ZWFtMjI1LW5ldDAeFw0yMzExMDQxMTMyMDJaFw0yNjEwMTkx
MTMyMDJaMBkxFzAVBgNVBAMMDnRlYW0yMjUtY2xpZW50MIIBIjANBgkqhkiG9w0B
AQEFAAOCAQ8AMIIBCgKCAQEAof2DZpVCvAp6s82JDDxOeQTZA4iwDfxKyPeikbmK
fD/A9wzpXn3j4l/T5Q6bK7zsWTAQ578O2GFteRi/+azOr3Himbs2I2ms6h/FF7KB
ErL3QtQxBA5xOa2roYXpAVNXZlIA/vMzKPliqDhehQ0O22wUc5JZa2/i1WDe5mLg
mx1yoXacXxMqL5yjR+d/ZCXq4lalEjsP4QJY99mzgoC8IXjE4rCTz0CbdE+/Y/WA
Is+TAgDkO8rlqUrD1iCwHotmhhErMs6isGdwggV1AzIx6/3ofYgHM0aGU8fDRI7B
8CsuIj5ivAR4IM1Fu4vlXL38AW7v8yxkIHotnKGnij3QuQIDAQABo4GiMIGfMAkG
A1UdEwQCMAAwHQYDVR0OBBYEFPb2LBQHwamJ84YM+PX8j3cIyjbDMFEGA1UdIwRK
MEiAFFBYQD8bOGgqIo9/3M8hHxOOKdXLoRqkGDAWMRQwEgYDVQQDDAt0ZWFtMjI1
LW5ldIIUWt8gAsiWi6jN7/kfrKTksxycmkYwEwYDVR0lBAwwCgYIKwYBBQUHAwIw
CwYDVR0PBAQDAgeAMA0GCSqGSIb3DQEBCwUAA4IBAQA6Z32FeQzycAuOXfEeOgTJ
k4X9HNLTZ+7DlYvMcTkrEiM4grKZu5bI1iF0YYy0IGGo36h+JXs28NVbQkk/6HJg
6hNpP08u9JtLMZPvNSRBd41oc5HEULlxFwnUfKfdGxCYqJ7/dn1mmW/3Xm7rXF3n
zfngXJZCqFyZrDuIOSHXnbYl3OaXLVRiltiPH50LIQix9nMbgxNdu9LoGnN59dTh
d/kdXM/3uG4vnZ5pM6k2GkhDGaHY3qlWmYW05ekHszotUnkdgoHBeegSxh0ye1cs
hDk8+7fv09IlT4Y1Nq4mjkmJAJ7LzuyH+FQGmxXnzwUgCaNYLbQcQVPd1rnjnodS
-----END CERTIFICATE-----
