Certificate:
    Data:
        Version: 3 (0x2)
        Serial Number:
            32:28:fc:f6:1d:5a:35:db:ba:dd:51:40:36:b6:31:d7
        Signature Algorithm: sha256WithRSAEncryption
        Issuer: CN=team133-net
        Validity
            Not Before: Nov  3 20:41:35 2023 GMT
            Not After : Oct 18 20:41:35 2026 GMT
        Subject: CN=team133-server
        Subject Public Key Info:
            Public Key Algorithm: rsaEncryption
                Public-Key: (2048 bit)
                Modulus:
                    00:b0:6e:22:23:b3:52:23:fc:e4:a2:33:36:6a:c0:
                    aa:2b:3f:f9:ce:86:bc:65:c3:73:17:53:b3:ee:30:
                    c8:1c:e2:18:fa:01:57:fe:3b:65:ff:97:6e:d0:b0:
                    a7:42:6a:9f:f8:de:74:da:a1:98:db:5e:a2:96:94:
                    88:6a:de:d1:e6:15:eb:ba:44:85:90:e1:00:f5:3d:
                    07:81:b2:65:45:84:16:41:47:96:38:b9:e1:01:4a:
                    bb:ac:c7:9b:56:40:d8:f5:e7:6c:53:16:5a:c1:9a:
                    5c:9a:b9:07:c6:df:54:cc:f3:d5:54:70:d7:2c:4b:
                    5e:99:c0:2d:58:ef:09:2e:8b:08:2e:3c:4c:97:c1:
                    0e:57:2f:66:e2:8a:4b:e2:90:a6:51:40:c1:3c:ee:
                    e5:35:f6:d2:74:5d:8e:0a:94:52:44:16:f6:c5:c8:
                    f1:fc:22:56:eb:f9:df:b1:87:26:8c:04:d8:36:d8:
                    af:83:43:4b:2f:eb:fd:fd:af:59:1b:b9:44:7f:04:
                    04:56:cc:aa:5b:a5:e1:ee:54:ec:61:3f:b2:fc:e3:
                    e4:a9:16:3e:68:8d:eb:8b:0e:1a:0f:bf:5c:c0:cd:
                    4f:ac:0d:27:b0:2a:69:c0:f3:7c:66:a6:ee:e7:cf:
                    7d:27:3a:a6:0b:64:47:34:4b:b6:70:64:8c:05:ea:
                    c6:fd
                Exponent: 65537 (0x10001)
        X509v3 extensions:
            X509v3 Basic Constraints: 
                CA:FALSE
            X509v3 Subject Key Identifier: 
                E5:A5:43:CD:6A:BC:30:A0:52:8D:9C:6E:FA:62:6E:1A:91:2B:2D:A2
            X509v3 Authority Key Identifier: 
                keyid:62:EC:FA:DA:F4:A8:D7:BE:89:84:2C:CE:A3:A6:C6:D6:DA:84:DF:33
                DirName:/CN=team133-net
                serial:41:7D:E1:DD:B9:DD:59:25:27:E0:8A:C4:B2:98:75:77:CD:34:DB:95
            X509v3 Extended Key Usage: 
                TLS Web Server Authentication
            X509v3 Key Usage: 
                Digital Signature, Key Encipherment
            X509v3 Subject Alternative Name: 
                DNS:team133-server
    Signature Algorithm: sha256WithRSAEncryption
    Signature Value:
        ba:b8:35:e8:fa:3f:d0:49:5a:88:b7:4e:ad:ec:8d:7b:19:4b:
        7f:1a:81:b7:68:dc:69:92:5f:6e:55:fd:68:4d:bd:32:c3:1e:
        2c:b1:13:37:12:7d:99:12:c1:64:0a:b5:c7:31:68:77:8e:b6:
        96:86:73:71:ca:19:6d:5e:19:6e:05:ca:64:97:36:fd:63:6c:
        55:79:1e:16:b0:f0:8d:d2:10:9d:b3:34:80:24:52:6a:e9:e6:
        f2:73:d4:99:78:e0:39:ca:d4:a2:c6:d8:33:7b:a5:f9:ce:ce:
        8f:8d:db:de:7c:38:b0:bd:38:11:58:d0:ed:f7:e0:7f:77:42:
        56:00:35:99:56:6f:53:a3:92:b4:f8:b3:27:b1:cc:e8:37:e4:
        d6:a4:05:ed:1e:8c:7b:e3:f4:c3:4a:15:78:78:7f:1c:2b:d5:
        da:e5:08:0e:be:31:9d:ec:2d:29:f3:26:82:dc:8b:8d:c2:f4:
        db:14:1c:ac:61:0f:ca:a7:44:4c:1e:d8:44:99:94:19:f7:d7:
        27:c4:1b:bf:b2:93:f7:de:8f:2e:f5:c0:01:92:fd:57:4b:13:
        f4:0b:ec:5e:ac:6c:9c:fb:7a:60:d6:f4:91:7e:24:8f:bd:42:
        42:c3:5b:72:18:ea:7b:88:e3:80:6e:b6:40:47:34:b9:ef:2d:
        3f:fb:33:a8
-----BEGIN CERTIFICATE-----
MIIDdzCCAl+gAwIBAgIQMij89h1aNdu63VFANrYx1zANBgkqhkiG9w0BAQsFADAW
MRQwEgYDVQQDDAt0ZWFtMTMzLW5ldDAeFw0yMzExMDMyMDQxMzVaFw0yNjEwMTgy
MDQxMzVaMBkxFzAVBgNVBAMMDnRlYW0xMzMtc2VydmVyMIIBIjANBgkqhkiG9w0B
AQEFAAOCAQ8AMIIBCgKCAQEAsG4iI7NSI/zkojM2asCqKz/5zoa8ZcNzF1Oz7jDI
HOIY+gFX/jtl/5du0LCnQmqf+N502qGY216ilpSIat7R5hXrukSFkOEA9T0HgbJl
RYQWQUeWOLnhAUq7rMebVkDY9edsUxZawZpcmrkHxt9UzPPVVHDXLEtemcAtWO8J
LosILjxMl8EOVy9m4opL4pCmUUDBPO7lNfbSdF2OCpRSRBb2xcjx/CJW6/nfsYcm
jATYNtivg0NLL+v9/a9ZG7lEfwQEVsyqW6Xh7lTsYT+y/OPkqRY+aI3riw4aD79c
wM1PrA0nsCppwPN8Zqbu5899JzqmC2RHNEu2cGSMBerG/QIDAQABo4G9MIG6MAkG
A1UdEwQCMAAwHQYDVR0OBBYEFOWlQ81qvDCgUo2cbvpibhqRKy2iMFEGA1UdIwRK
MEiAFGLs+tr0qNe+iYQszqOmxtbahN8zoRqkGDAWMRQwEgYDVQQDDAt0ZWFtMTMz
LW5ldIIUQX3h3bndWSUn4IrEsph1d80025UwEwYDVR0lBAwwCgYIKwYBBQUHAwEw
CwYDVR0PBAQDAgWgMBkGA1UdEQQSMBCCDnRlYW0xMzMtc2VydmVyMA0GCSqGSIb3
DQEBCwUAA4IBAQC6uDXo+j/QSVqIt06t7I17GUt/GoG3aNxpkl9uVf1oTb0ywx4s
sRM3En2ZEsFkCrXHMWh3jraWhnNxyhltXhluBcpklzb9Y2xVeR4WsPCN0hCdszSA
JFJq6ebyc9SZeOA5ytSixtgze6X5zs6PjdvefDiwvTgRWNDt9+B/d0JWADWZVm9T
o5K0+LMnsczoN+TWpAXtHox74/TDShV4eH8cK9Xa5QgOvjGd7C0p8yaC3IuNwvTb
FBysYQ/Kp0RMHthEmZQZ99cnxBu/spP33o8u9cABkv1XSxP0C+xerGyc+3pg1vSR
fiSPvUJCw1tyGOp7iOOAbrZARzS57y0/+zOo
-----END CERTIFICATE-----
