Certificate:
    Data:
        Version: 3 (0x2)
        Serial Number:
            53:d8:47:26:59:a4:4d:0f:6c:0c:82:5c:7b:e8:7c:ff
        Signature Algorithm: sha256WithRSAEncryption
        Issuer: CN=team133-net
        Validity
            Not Before: Nov  4 11:30:07 2023 GMT
            Not After : Oct 19 11:30:07 2026 GMT
        Subject: CN=team133-server
        Subject Public Key Info:
            Public Key Algorithm: rsaEncryption
                Public-Key: (2048 bit)
                Modulus:
                    00:be:cc:d4:b9:5d:d5:48:dc:80:9c:46:e9:de:8e:
                    cb:77:31:98:57:d7:7e:38:2c:45:9e:0d:be:6a:1a:
                    75:9b:d7:fb:c7:0d:27:6a:c2:58:8f:42:75:2a:73:
                    ec:4a:bd:a3:be:1d:1f:a0:55:13:9f:49:63:be:4b:
                    05:ca:0c:10:8c:b9:02:95:ff:16:3e:4a:7c:85:a5:
                    7a:e9:49:93:b0:ee:86:89:77:76:ff:c4:05:ee:42:
                    93:f3:23:b7:f8:f3:2f:17:c6:e8:d6:8f:2c:2b:7d:
                    88:58:bf:96:de:64:26:fd:61:f6:62:2e:ab:0b:ca:
                    87:cd:15:13:b2:db:cd:12:39:1b:cc:03:99:2b:38:
                    9c:fb:40:45:bb:30:2c:56:90:d6:5c:e0:47:dc:44:
                    9d:40:34:7e:70:7e:40:b2:aa:b3:b8:62:8b:1a:76:
                    4c:5d:5b:3e:fc:90:47:ca:2f:0a:22:76:e7:1c:76:
                    cd:fe:1e:1f:1f:f4:98:aa:1f:87:ad:9f:f5:7f:da:
                    d1:c8:48:76:f4:37:20:b6:6f:5e:61:09:95:92:9a:
                    92:22:41:fe:71:e8:fa:11:be:5c:c9:38:12:82:6f:
                    4a:91:51:f6:54:40:20:22:d4:fc:f8:63:79:95:ef:
                    0a:b4:b0:1d:f1:1c:23:d3:7b:38:ae:4a:cd:41:f2:
                    5c:83
                Exponent: 65537 (0x10001)
        X509v3 extensions:
            X509v3 Basic Constraints: 
                CA:FALSE
            X509v3 Subject Key Identifier: 
                3E:D3:BA:55:C0:50:4B:D2:62:20:FF:6C:FC:54:8F:82:C3:AD:A0:7C
            X509v3 Authority Key Identifier: 
                keyid:FF:24:94:03:1D:2C:2F:5E:B0:E5:1E:AD:B8:5F:85:28:B8:48:4E:08
                DirName:/CN=team133-net
                serial:50:FE:FC:29:39:51:7C:5C:ED:AC:56:91:9B:3F:5E:B1:FE:74:75:F6
            X509v3 Extended Key Usage: 
                TLS Web Server Authentication
            X509v3 Key Usage: 
                Digital Signature, Key Encipherment
            X509v3 Subject Alternative Name: 
                DNS:team133-server
    Signature Algorithm: sha256WithRSAEncryption
    Signature Value:
        0b:b3:ac:9b:98:5b:0d:b7:2f:c2:31:9e:c0:9b:32:5c:93:d5:
        2e:64:5d:1f:60:89:fc:53:28:60:0a:4d:9f:b8:98:96:87:bb:
        7e:62:79:9a:99:b9:b8:c7:75:1e:22:1d:70:c5:c3:08:8c:ad:
        51:c7:d8:5b:dd:85:b5:12:2e:f7:20:77:ce:fc:0a:fd:8b:ee:
        89:cf:55:49:28:3d:d9:dc:20:3e:9e:d3:de:e1:f5:bc:76:be:
        95:da:ad:9c:cf:27:38:3b:c2:74:85:86:27:97:ff:32:5c:ca:
        f8:73:3e:03:df:dd:a4:3f:29:59:8d:1c:cf:7f:f5:7e:f2:4c:
        d5:28:13:a0:4b:bf:a0:3c:84:61:91:48:71:b0:47:bc:58:15:
        dd:49:b8:e0:98:a8:38:ae:35:7a:ba:93:cc:05:98:89:f3:19:
        90:d0:5a:43:41:ee:d2:e9:1f:07:e5:27:96:d2:a0:4e:99:a8:
        62:a2:e7:d3:4e:0e:28:ba:a9:85:7c:73:5c:09:8f:93:27:4c:
        86:a2:56:80:93:26:18:61:f9:4d:fd:9c:b5:1f:bc:1d:20:2d:
        da:30:a2:e4:47:09:e1:6c:6f:e0:f1:31:5c:b2:68:eb:44:d4:
        e7:38:6f:c4:61:3b:06:a3:7a:53:3b:cf:6e:c0:fe:47:36:b6:
        e1:6d:d7:19
-----BEGIN CERTIFICATE-----
MIIDdzCCAl+gAwIBAgIQU9hHJlmkTQ9sDIJce+h8/zANBgkqhkiG9w0BAQsFADAW
MRQwEgYDVQQDDAt0ZWFtMTMzLW5ldDAeFw0yMzExMDQxMTMwMDdaFw0yNjEwMTkx
MTMwMDdaMBkxFzAVBgNVBAMMDnRlYW0xMzMtc2VydmVyMIIBIjANBgkqhkiG9w0B
AQEFAAOCAQ8AMIIBCgKCAQEAvszUuV3VSNyAnEbp3o7LdzGYV9d+OCxFng2+ahp1
m9f7xw0nasJYj0J1KnPsSr2jvh0foFUTn0ljvksFygwQjLkClf8WPkp8haV66UmT
sO6GiXd2/8QF7kKT8yO3+PMvF8bo1o8sK32IWL+W3mQm/WH2Yi6rC8qHzRUTstvN
EjkbzAOZKzic+0BFuzAsVpDWXOBH3ESdQDR+cH5AsqqzuGKLGnZMXVs+/JBHyi8K
InbnHHbN/h4fH/SYqh+HrZ/1f9rRyEh29Dcgtm9eYQmVkpqSIkH+cej6Eb5cyTgS
gm9KkVH2VEAgItT8+GN5le8KtLAd8Rwj03s4rkrNQfJcgwIDAQABo4G9MIG6MAkG
A1UdEwQCMAAwHQYDVR0OBBYEFD7TulXAUEvSYiD/bPxUj4LDraB8MFEGA1UdIwRK
MEiAFP8klAMdLC9esOUerbhfhSi4SE4IoRqkGDAWMRQwEgYDVQQDDAt0ZWFtMTMz
LW5ldIIUUP78KTlRfFztrFaRmz9esf50dfYwEwYDVR0lBAwwCgYIKwYBBQUHAwEw
CwYDVR0PBAQDAgWgMBkGA1UdEQQSMBCCDnRlYW0xMzMtc2VydmVyMA0GCSqGSIb3
DQEBCwUAA4IBAQALs6ybmFsNty/CMZ7AmzJck9UuZF0fYIn8UyhgCk2fuJiWh7t+
Ynmambm4x3UeIh1wxcMIjK1Rx9hb3YW1Ei73IHfO/Ar9i+6Jz1VJKD3Z3CA+ntPe
4fW8dr6V2q2czyc4O8J0hYYnl/8yXMr4cz4D392kPylZjRzPf/V+8kzVKBOgS7+g
PIRhkUhxsEe8WBXdSbjgmKg4rjV6upPMBZiJ8xmQ0FpDQe7S6R8H5SeW0qBOmahi
oufTTg4ouqmFfHNcCY+TJ0yGolaAkyYYYflN/Zy1H7wdIC3aMKLkRwnhbG/g8TFc
smjrRNTnOG/EYTsGo3pTO89uwP5HNrbhbdcZ
-----END CERTIFICATE-----
