Certificate:
    Data:
        Version: 3 (0x2)
        Serial Number:
            bd:e5:33:36:f9:2d:c7:9e:7b:f7:f2:02:a3:f4:ef:34
        Signature Algorithm: sha256WithRSAEncryption
        Issuer: CN=team133-net
        Validity
            Not Before: Nov  3 20:41:34 2023 GMT
            Not After : Oct 18 20:41:34 2026 GMT
        Subject: CN=team133-client
        Subject Public Key Info:
            Public Key Algorithm: rsaEncryption
                Public-Key: (2048 bit)
                Modulus:
                    00:d6:39:e3:a8:27:e2:4b:be:1f:94:32:7e:06:93:
                    4b:91:83:84:44:2c:9d:16:88:bf:42:3f:ee:6d:a9:
                    a3:5b:95:92:5f:f0:56:6b:30:32:55:4b:69:1c:a6:
                    46:35:a8:f5:88:62:a2:45:71:7d:dd:5a:99:60:01:
                    9e:b4:65:de:44:c0:66:c8:ae:3a:a4:85:ce:df:6e:
                    e8:d0:ea:92:28:12:43:6e:58:4c:48:cc:e2:f7:0c:
                    55:d9:fe:a2:6f:97:e3:f8:28:49:a1:f0:78:47:5d:
                    6b:d6:62:92:72:f3:5d:e8:4d:2c:94:3d:a8:ee:17:
                    41:d7:2f:cb:d2:ba:7e:6a:93:38:52:3d:d7:62:bf:
                    4b:0e:4c:c5:d4:b1:ae:ef:f6:d4:87:86:b5:e6:c3:
                    c5:0d:3c:5e:7f:2c:50:03:c2:25:7b:cc:55:e3:b0:
                    76:56:7b:ee:d2:dc:5e:be:a2:69:cd:34:79:22:7e:
                    e2:81:39:1d:09:63:38:7b:63:ee:21:ac:f0:19:7e:
                    0d:03:64:e2:65:64:16:01:c6:33:b9:97:6d:2b:4c:
                    eb:94:e5:f7:40:68:66:b9:75:12:b5:57:48:c4:28:
                    6c:7f:be:9d:92:2c:5b:12:3a:49:63:d3:aa:61:54:
                    6a:a4:40:95:28:43:3a:5f:2a:b2:97:22:25:1c:dd:
                    4e:6b
                Exponent: 65537 (0x10001)
        X509v3 extensions:
            X509v3 Basic Constraints: 
                CA:FALSE
            X509v3 Subject Key Identifier: 
                71:C3:17:35:E3:BA:E6:4A:50:8D:C2:B3:0E:E6:35:5A:D2:35:85:16
            X509v3 Authority Key Identifier: 
                keyid:62:EC:FA:DA:F4:A8:D7:BE:89:84:2C:CE:A3:A6:C6:D6:DA:84:DF:33
                DirName:/CN=team133-net
                serial:41:7D:E1:DD:B9:DD:59:25:27:E0:8A:C4:B2:98:75:77:CD:34:DB:95
            X509v3 Extended Key Usage: 
                TLS Web Client Authentication
            X509v3 Key Usage: 
                Digital Signature
    Signature Algorithm: sha256WithRSAEncryption
    Signature Value:
        90:07:67:e9:59:c1:a9:98:5f:b7:c6:a8:39:94:2c:48:8d:79:
        0b:96:3a:dd:ab:b1:7e:cc:ba:57:af:33:26:30:2d:c0:b4:94:
        e4:a3:5f:d5:67:43:f5:36:b8:3e:10:54:14:b9:fd:f2:1d:e6:
        ed:b3:e6:e6:27:76:e2:b0:9c:23:f2:7e:d8:49:84:c4:36:c5:
        38:0b:f2:43:60:4e:fc:9a:5a:8f:05:cc:3d:e4:2b:09:dd:15:
        3f:49:f5:62:53:19:89:bc:26:04:f5:ec:68:95:ee:70:60:0c:
        32:c9:32:0e:0c:9d:49:f8:9e:4b:55:d6:25:36:a6:53:9d:23:
        70:39:b2:99:db:32:32:31:5d:c5:2a:69:a6:1c:17:0c:a2:b8:
        b5:93:13:14:a2:c5:26:fc:45:33:2a:83:6c:9d:3e:6f:7d:fe:
        d9:4f:44:aa:cf:15:07:25:34:ef:b6:de:e1:7b:4b:a0:5e:13:
        fd:53:7e:b4:57:cc:ad:87:30:e4:23:c9:94:59:b6:49:b7:e5:
        cb:cc:dd:88:c7:eb:74:fe:4c:1e:29:eb:47:b8:e7:86:d8:20:
        6a:5b:78:fc:7f:3c:59:83:a2:5b:ba:fd:b7:51:31:ba:5a:fd:
        48:00:c0:49:06:c2:c0:b3:61:13:11:6c:a3:58:3b:08:bb:c2:
        07:02:9c:a6
-----BEGIN CERTIFICATE-----
MIIDXTCCAkWgAwIBAgIRAL3lMzb5Lceee/fyAqP07zQwDQYJKoZIhvcNAQELBQAw
FjEUMBIGA1UEAwwLdGVhbTEzMy1uZXQwHhcNMjMxMTAzMjA0MTM0WhcNMjYxMDE4
MjA0MTM0WjAZMRcwFQYDVQQDDA50ZWFtMTMzLWNsaWVudDCCASIwDQYJKoZIhvcN
AQEBBQADggEPADCCAQoCggEBANY546gn4ku+H5QyfgaTS5GDhEQsnRaIv0I/7m2p
o1uVkl/wVmswMlVLaRymRjWo9YhiokVxfd1amWABnrRl3kTAZsiuOqSFzt9u6NDq
kigSQ25YTEjM4vcMVdn+om+X4/goSaHweEdda9ZiknLzXehNLJQ9qO4XQdcvy9K6
fmqTOFI912K/Sw5MxdSxru/21IeGtebDxQ08Xn8sUAPCJXvMVeOwdlZ77tLcXr6i
ac00eSJ+4oE5HQljOHtj7iGs8Bl+DQNk4mVkFgHGM7mXbStM65Tl90BoZrl1ErVX
SMQobH++nZIsWxI6SWPTqmFUaqRAlShDOl8qspciJRzdTmsCAwEAAaOBojCBnzAJ
BgNVHRMEAjAAMB0GA1UdDgQWBBRxwxc147rmSlCNwrMO5jVa0jWFFjBRBgNVHSME
SjBIgBRi7Pra9KjXvomELM6jpsbW2oTfM6EapBgwFjEUMBIGA1UEAwwLdGVhbTEz
My1uZXSCFEF94d253VklJ+CKxLKYdXfNNNuVMBMGA1UdJQQMMAoGCCsGAQUFBwMC
MAsGA1UdDwQEAwIHgDANBgkqhkiG9w0BAQsFAAOCAQEAkAdn6VnBqZhft8aoOZQs
SI15C5Y63auxfsy6V68zJjAtwLSU5KNf1WdD9Ta4PhBUFLn98h3m7bPm5id24rCc
I/J+2EmExDbFOAvyQ2BO/JpajwXMPeQrCd0VP0n1YlMZibwmBPXsaJXucGAMMsky
DgydSfieS1XWJTamU50jcDmymdsyMjFdxSppphwXDKK4tZMTFKLFJvxFMyqDbJ0+
b33+2U9Eqs8VByU077be4XtLoF4T/VN+tFfMrYcw5CPJlFm2Sbfly8zdiMfrdP5M
HinrR7jnhtggalt4/H88WYOiW7r9t1Exulr9SADASQbCwLNhExFso1g7CLvCBwKc
pg==
-----END CERTIFICATE-----
