Certificate:
    Data:
        Version: 3 (0x2)
        Serial Number:
            08:28:87:1b:67:d8:e7:6a:57:4e:c8:41:c7:89:e1:b1
        Signature Algorithm: sha256WithRSAEncryption
        Issuer: CN=team204-net
        Validity
            Not Before: Nov  3 20:42:59 2023 GMT
            Not After : Oct 18 20:42:59 2026 GMT
        Subject: CN=team204-server
        Subject Public Key Info:
            Public Key Algorithm: rsaEncryption
                Public-Key: (2048 bit)
                Modulus:
                    00:84:f2:d1:05:37:b7:a7:66:71:f3:3c:ed:57:d5:
                    05:af:ef:83:5e:73:bc:e2:01:ca:e9:96:34:74:c2:
                    76:76:6c:70:57:25:ee:1a:9c:7d:7a:50:45:62:a6:
                    72:bb:e6:97:95:c9:2c:8f:ad:3c:eb:78:19:f8:45:
                    8d:ef:93:ad:d0:8a:9d:5c:d9:1c:47:42:86:04:82:
                    50:65:42:a9:9d:c8:8f:5f:f7:94:bf:af:c2:2d:2e:
                    4f:40:87:3f:35:a9:1f:0b:d8:07:8e:fc:5a:1f:83:
                    0d:76:79:68:70:da:2e:8e:80:b6:02:d2:52:8e:26:
                    38:fd:fe:07:e9:9e:c7:0d:31:07:61:8b:1b:19:62:
                    75:99:a4:9e:3f:dc:91:0f:22:e7:25:ee:8e:08:d6:
                    63:94:39:55:57:9b:c6:11:18:08:10:7b:49:9b:ae:
                    da:85:3e:52:cc:a7:19:b5:87:77:17:f7:6c:ab:00:
                    29:6c:79:78:5a:57:eb:26:fd:c6:af:e2:e7:73:da:
                    42:4f:49:3a:11:db:34:13:e3:50:a5:86:a6:c7:df:
                    47:67:95:8f:08:51:39:b4:9a:fa:db:69:c6:9f:9b:
                    0d:e1:d4:cf:8e:b5:63:bd:71:6f:f1:e6:67:ef:ab:
                    10:40:6f:ae:f0:81:b0:f2:80:be:38:fd:f3:42:f2:
                    e5:4d
                Exponent: 65537 (0x10001)
        X509v3 extensions:
            X509v3 Basic Constraints: 
                CA:FALSE
            X509v3 Subject Key Identifier: 
                BD:9C:96:25:8B:2B:BB:22:07:93:4A:26:D6:09:B6:8E:2A:84:22:6F
            X509v3 Authority Key Identifier: 
                keyid:5A:0A:61:62:B4:84:0B:50:3A:E2:03:35:1B:48:FB:55:83:6D:84:18
                DirName:/CN=team204-net
                serial:21:BB:98:89:9D:51:BD:EC:0D:FE:AC:5B:79:61:89:20:B9:DC:60:5E
            X509v3 Extended Key Usage: 
                TLS Web Server Authentication
            X509v3 Key Usage: 
                Digital Signature, Key Encipherment
            X509v3 Subject Alternative Name: 
                DNS:team204-server
    Signature Algorithm: sha256WithRSAEncryption
    Signature Value:
        2d:af:cb:76:c2:3b:ed:bb:cf:6b:31:a5:f2:b2:de:30:b4:f5:
        6d:4a:c3:0e:f2:86:6a:8b:91:b0:a2:6a:41:2d:da:ab:b6:3b:
        07:0e:b9:03:8a:69:be:35:11:49:ab:20:38:72:67:f7:95:65:
        c2:65:5d:88:19:3a:56:1f:ba:03:3d:4a:de:3d:00:d1:6c:c7:
        a4:64:b8:5f:7c:69:2c:7d:45:76:b1:9b:48:ec:fa:7e:20:20:
        03:ce:8c:7a:db:1f:f1:ce:5a:7e:16:3e:21:72:ab:a9:c0:ae:
        a4:bc:ca:a4:01:df:22:5b:d3:3c:c4:0b:42:1b:a1:00:ad:fb:
        da:f9:a1:5c:a4:b3:bb:5a:a9:da:31:5e:4a:4d:4c:cb:07:a2:
        70:41:1b:54:3d:be:cf:3d:68:01:fe:27:1d:68:fe:a5:12:f8:
        58:1f:4d:9a:64:5a:47:0d:79:63:85:fa:81:6a:00:08:80:8f:
        56:02:a4:21:83:31:d6:e4:cc:25:c7:61:87:d5:bd:78:67:16:
        8e:15:b2:68:dc:f4:2d:a0:fc:8e:9e:35:d1:02:8b:88:84:69:
        40:c5:c4:8c:56:65:72:c2:04:fc:35:d8:59:19:4c:f5:5f:92:
        6f:b3:2e:35:32:17:06:00:96:39:96:c7:1d:44:8a:91:fd:4f:
        03:67:66:34
-----BEGIN CERTIFICATE-----
MIIDdzCCAl+gAwIBAgIQCCiHG2fY52pXTshBx4nhsTANBgkqhkiG9w0BAQsFADAW
MRQwEgYDVQQDDAt0ZWFtMjA0LW5ldDAeFw0yMzExMDMyMDQyNTlaFw0yNjEwMTgy
MDQyNTlaMBkxFzAVBgNVBAMMDnRlYW0yMDQtc2VydmVyMIIBIjANBgkqhkiG9w0B
AQEFAAOCAQ8AMIIBCgKCAQEAhPLRBTe3p2Zx8zztV9UFr++DXnO84gHK6ZY0dMJ2
dmxwVyXuGpx9elBFYqZyu+aXlcksj60863gZ+EWN75Ot0IqdXNkcR0KGBIJQZUKp
nciPX/eUv6/CLS5PQIc/NakfC9gHjvxaH4MNdnlocNoujoC2AtJSjiY4/f4H6Z7H
DTEHYYsbGWJ1maSeP9yRDyLnJe6OCNZjlDlVV5vGERgIEHtJm67ahT5SzKcZtYd3
F/dsqwApbHl4WlfrJv3Gr+Lnc9pCT0k6Eds0E+NQpYamx99HZ5WPCFE5tJr622nG
n5sN4dTPjrVjvXFv8eZn76sQQG+u8IGw8oC+OP3zQvLlTQIDAQABo4G9MIG6MAkG
A1UdEwQCMAAwHQYDVR0OBBYEFL2cliWLK7siB5NKJtYJto4qhCJvMFEGA1UdIwRK
MEiAFFoKYWK0hAtQOuIDNRtI+1WDbYQYoRqkGDAWMRQwEgYDVQQDDAt0ZWFtMjA0
LW5ldIIUIbuYiZ1RvewN/qxbeWGJILncYF4wEwYDVR0lBAwwCgYIKwYBBQUHAwEw
CwYDVR0PBAQDAgWgMBkGA1UdEQQSMBCCDnRlYW0yMDQtc2VydmVyMA0GCSqGSIb3
DQEBCwUAA4IBAQAtr8t2wjvtu89rMaXyst4wtPVtSsMO8oZqi5GwompBLdqrtjsH
DrkDimm+NRFJqyA4cmf3lWXCZV2IGTpWH7oDPUrePQDRbMekZLhffGksfUV2sZtI
7Pp+ICADzox62x/xzlp+Fj4hcqupwK6kvMqkAd8iW9M8xAtCG6EArfva+aFcpLO7
WqnaMV5KTUzLB6JwQRtUPb7PPWgB/icdaP6lEvhYH02aZFpHDXljhfqBagAIgI9W
AqQhgzHW5Mwlx2GH1b14ZxaOFbJo3PQtoPyOnjXRAouIhGlAxcSMVmVywgT8NdhZ
GUz1X5Jvsy41MhcGAJY5lscdRIqR/U8DZ2Y0
-----END CERTIFICATE-----
