Certificate:
    Data:
        Version: 3 (0x2)
        Serial Number:
            d2:d3:37:7b:62:38:ef:6a:8b:41:18:a9:62:d0:b1:fc
        Signature Algorithm: sha256WithRSAEncryption
        Issuer: CN=team204-net
        Validity
            Not Before: Nov  4 10:44:22 2023 GMT
            Not After : Oct 19 10:44:22 2026 GMT
        Subject: CN=team204-client
        Subject Public Key Info:
            Public Key Algorithm: rsaEncryption
                Public-Key: (2048 bit)
                Modulus:
                    00:d7:55:54:2b:87:4a:d2:8e:90:88:22:c0:85:aa:
                    c2:a8:ab:22:d4:79:ae:a2:ef:7b:28:b0:91:6c:0f:
                    b5:13:50:14:40:ce:a8:93:48:d3:12:2f:da:6a:7e:
                    07:ed:a2:62:1e:a0:76:91:d9:42:63:6c:34:5e:d3:
                    9b:ff:e9:cf:98:c5:7b:aa:50:02:11:6b:e1:38:a5:
                    c6:e9:3d:97:b6:0b:4d:49:4d:e5:d5:49:d5:79:77:
                    59:36:7c:2f:23:08:b0:8e:66:48:3a:b6:82:2a:9b:
                    31:fb:c8:8e:00:0f:48:94:85:6c:b8:c3:14:07:d5:
                    1c:ea:19:bb:97:ce:f6:65:73:99:98:62:00:c1:ff:
                    5a:cd:c8:a1:d7:68:ad:4c:b8:1f:5f:a0:2c:d6:7b:
                    78:04:72:50:b6:6b:1c:a5:8c:8b:a8:4a:c1:b9:8c:
                    69:48:e4:14:04:99:3a:3c:91:8c:64:d6:2c:a3:be:
                    2b:81:45:51:24:8f:88:b5:60:07:9e:fe:23:39:db:
                    dc:54:8d:25:19:6f:21:71:06:53:45:99:fb:c6:b9:
                    29:eb:6d:89:d2:b8:4e:b8:24:da:af:db:45:61:5a:
                    fa:9b:fb:5f:51:27:01:0f:50:c0:44:23:15:b2:35:
                    6a:16:63:7f:1e:28:0f:e5:fa:15:90:41:2a:07:75:
                    8b:63
                Exponent: 65537 (0x10001)
        X509v3 extensions:
            X509v3 Basic Constraints: 
                CA:FALSE
            X509v3 Subject Key Identifier: 
                58:C9:A3:9C:70:63:A9:1D:32:3A:F9:98:C4:C6:99:E9:87:BD:5C:20
            X509v3 Authority Key Identifier: 
                keyid:33:5E:6B:09:0F:5D:2F:D8:89:D1:DE:8A:40:FE:EF:BB:73:29:8A:D2
                DirName:/CN=team204-net
                serial:75:3D:C3:D3:74:DF:09:83:05:EB:1D:9A:F4:E4:F4:8F:C6:BA:AD:15
            X509v3 Extended Key Usage: 
                TLS Web Client Authentication
            X509v3 Key Usage: 
                Digital Signature
    Signature Algorithm: sha256WithRSAEncryption
    Signature Value:
        00:de:31:3b:e3:d9:4a:eb:26:62:d3:1e:ab:06:5e:3c:76:7e:
        d4:16:15:9b:03:e6:b5:7f:a1:73:e6:9f:f8:8d:cf:51:bd:13:
        6c:f9:6f:9e:7d:32:e6:e7:b4:5b:41:30:fa:86:e8:b0:78:90:
        dd:46:3e:2a:9a:14:6b:42:9f:44:91:22:a7:64:f4:2a:c9:92:
        af:6c:30:15:e0:dd:ed:9f:77:b8:76:ca:cd:bc:44:b9:79:d1:
        1f:e6:5b:77:ad:2f:20:8e:17:78:43:57:67:cf:00:01:86:4a:
        e6:7a:81:d6:cc:9a:f4:96:20:38:a5:89:16:61:15:db:55:08:
        6b:d1:f5:09:ef:0d:2e:3e:66:69:9c:6e:a5:bf:ab:9e:ef:4c:
        18:ec:c9:1f:e8:9c:cc:98:88:57:9d:78:63:d9:71:e1:31:50:
        b3:53:af:a1:a6:4e:da:6a:09:26:66:9e:6f:2f:79:ea:da:32:
        86:05:a6:8c:3e:b9:fa:dc:1a:8c:d3:d8:05:44:8e:a9:f1:14:
        b4:8c:cf:bc:5d:0c:58:f3:9d:0c:a8:48:e0:1d:5d:ea:a2:b6:
        68:08:30:6b:72:1e:21:56:3b:74:3f:7a:f1:56:b9:fd:44:9a:
        a6:d0:44:2f:64:42:d3:69:71:8a:eb:b9:ab:0c:de:39:3d:aa:
        14:15:48:1c
-----BEGIN CERTIFICATE-----
MIIDXTCCAkWgAwIBAgIRANLTN3tiOO9qi0EYqWLQsfwwDQYJKoZIhvcNAQELBQAw
FjEUMBIGA1UEAwwLdGVhbTIwNC1uZXQwHhcNMjMxMTA0MTA0NDIyWhcNMjYxMDE5
MTA0NDIyWjAZMRcwFQYDVQQDDA50ZWFtMjA0LWNsaWVudDCCASIwDQYJKoZIhvcN
AQEBBQADggEPADCCAQoCggEBANdVVCuHStKOkIgiwIWqwqirItR5rqLveyiwkWwP
tRNQFEDOqJNI0xIv2mp+B+2iYh6gdpHZQmNsNF7Tm//pz5jFe6pQAhFr4Tilxuk9
l7YLTUlN5dVJ1Xl3WTZ8LyMIsI5mSDq2giqbMfvIjgAPSJSFbLjDFAfVHOoZu5fO
9mVzmZhiAMH/Ws3IoddorUy4H1+gLNZ7eARyULZrHKWMi6hKwbmMaUjkFASZOjyR
jGTWLKO+K4FFUSSPiLVgB57+Iznb3FSNJRlvIXEGU0WZ+8a5KettidK4Trgk2q/b
RWFa+pv7X1EnAQ9QwEQjFbI1ahZjfx4oD+X6FZBBKgd1i2MCAwEAAaOBojCBnzAJ
BgNVHRMEAjAAMB0GA1UdDgQWBBRYyaOccGOpHTI6+ZjExpnph71cIDBRBgNVHSME
SjBIgBQzXmsJD10v2InR3opA/u+7cymK0qEapBgwFjEUMBIGA1UEAwwLdGVhbTIw
NC1uZXSCFHU9w9N03wmDBesdmvTk9I/Guq0VMBMGA1UdJQQMMAoGCCsGAQUFBwMC
MAsGA1UdDwQEAwIHgDANBgkqhkiG9w0BAQsFAAOCAQEAAN4xO+PZSusmYtMeqwZe
PHZ+1BYVmwPmtX+hc+af+I3PUb0TbPlvnn0y5ue0W0Ew+obosHiQ3UY+KpoUa0Kf
RJEip2T0KsmSr2wwFeDd7Z93uHbKzbxEuXnRH+Zbd60vII4XeENXZ88AAYZK5nqB
1sya9JYgOKWJFmEV21UIa9H1Ce8NLj5maZxupb+rnu9MGOzJH+iczJiIV514Y9lx
4TFQs1OvoaZO2moJJmaeby956toyhgWmjD65+twajNPYBUSOqfEUtIzPvF0MWPOd
DKhI4B1d6qK2aAgwa3IeIVY7dD968Va5/USaptBEL2RC02lxiuu5qwzeOT2qFBVI
HA==
-----END CERTIFICATE-----
