Certificate:
    Data:
        Version: 3 (0x2)
        Serial Number:
            f4:49:aa:09:12:d8:d4:cc:ea:d0:a6:62:97:86:eb:7a
        Signature Algorithm: sha256WithRSAEncryption
        Issuer: CN=team204-net
        Validity
            Not Before: Nov  4 11:31:38 2023 GMT
            Not After : Oct 19 11:31:38 2026 GMT
        Subject: CN=team204-client
        Subject Public Key Info:
            Public Key Algorithm: rsaEncryption
                Public-Key: (2048 bit)
                Modulus:
                    00:9a:6a:9d:9e:1f:d6:77:3d:51:bf:de:27:9f:60:
                    43:9f:10:5b:36:5d:4d:7c:12:0f:71:df:b4:20:c1:
                    6e:b7:e5:11:54:51:ea:41:88:10:12:9c:e5:58:a8:
                    5f:d9:05:bf:a2:70:48:40:26:0c:c7:de:b8:42:c9:
                    34:24:a9:73:89:08:ac:6a:9c:7f:cd:7f:ee:ec:6a:
                    1b:32:0e:a6:20:4b:d3:d0:60:fd:67:e5:d5:5b:c2:
                    43:69:10:33:1b:7c:9e:4e:04:05:02:be:dd:1e:bb:
                    be:09:c8:9c:cf:78:e2:cd:f8:99:2f:0a:5d:e5:e6:
                    d8:19:a4:04:43:c5:ce:c0:7a:b0:d5:fd:d6:59:8e:
                    a9:8f:b9:72:3e:03:9b:72:24:1a:a0:70:e4:0c:b5:
                    d8:5b:13:1c:a7:b9:01:95:b3:9e:45:b4:4e:f2:93:
                    6e:d2:b7:ec:66:4e:5b:16:db:de:ee:a0:7e:52:11:
                    4f:98:09:1a:b2:9b:b3:1b:2f:08:6b:7b:c2:5e:7e:
                    98:e8:9e:af:e4:f1:52:1f:ed:10:9f:fa:13:6f:c2:
                    12:0c:96:19:d9:4f:ef:8f:fe:ea:a6:73:ec:e2:2f:
                    86:7b:e2:23:ae:58:bf:16:f5:64:97:0b:fe:63:db:
                    6e:7d:ae:5b:61:45:af:75:66:c8:67:b0:36:c9:7a:
                    17:b5
                Exponent: 65537 (0x10001)
        X509v3 extensions:
            X509v3 Basic Constraints: 
                CA:FALSE
            X509v3 Subject Key Identifier: 
                04:B9:1E:B1:06:2A:81:47:A3:4A:FD:CC:A7:6D:E0:72:44:F4:30:35
            X509v3 Authority Key Identifier: 
                keyid:07:7E:03:69:02:A4:22:09:98:58:C4:6B:75:6C:1C:53:71:2F:93:30
                DirName:/CN=team204-net
                serial:0D:C3:A4:F3:86:18:FD:C2:1D:8D:74:C3:48:93:68:B8:33:B0:42:F4
            X509v3 Extended Key Usage: 
                TLS Web Client Authentication
            X509v3 Key Usage: 
                Digital Signature
    Signature Algorithm: sha256WithRSAEncryption
    Signature Value:
        99:f2:77:37:97:f6:77:4f:78:14:db:d1:6c:21:29:ff:08:67:
        d7:b6:22:05:c8:4c:86:f9:4a:cf:30:a3:0e:54:10:22:91:41:
        b2:7d:5f:23:02:3a:2c:50:c0:e8:33:ef:18:e0:49:1a:8e:db:
        5b:cf:e5:51:c6:8b:83:dc:6e:51:74:e2:b2:ab:ee:7d:2c:61:
        21:b9:76:21:1e:c2:e7:9f:cb:49:e4:78:02:bf:89:f3:0c:bd:
        61:df:2c:78:ab:95:6c:e8:dc:10:5e:75:38:bb:08:13:0d:68:
        01:c9:30:f9:e2:f9:7b:e5:18:55:8b:b1:91:56:e1:bc:77:0b:
        b3:ec:78:bc:4a:cb:5e:0c:9f:5e:6c:e9:9e:fd:32:ee:13:32:
        58:23:99:d0:27:bc:7b:74:7a:fa:b9:f7:ab:ef:24:42:ca:86:
        22:9a:4a:74:99:79:58:2c:6e:cd:8c:52:77:58:f3:5a:07:9b:
        aa:f1:4f:50:7c:f7:3a:11:83:91:0d:08:ff:ac:4c:fd:69:15:
        8a:b4:0d:a0:fa:4f:a1:62:16:9a:9a:e3:0e:55:87:89:a7:f8:
        12:92:0b:d1:d4:76:1f:d9:3a:ab:f9:f2:e0:8a:14:01:7d:09:
        e4:28:26:35:9e:43:91:98:0f:94:42:f2:9b:f4:d3:30:d0:ec:
        a5:4b:07:60
-----BEGIN CERTIFICATE-----
MIIDXTCCAkWgAwIBAgIRAPRJqgkS2NTM6tCmYpeG63owDQYJKoZIhvcNAQELBQAw
FjEUMBIGA1UEAwwLdGVhbTIwNC1uZXQwHhcNMjMxMTA0MTEzMTM4WhcNMjYxMDE5
MTEzMTM4WjAZMRcwFQYDVQQDDA50ZWFtMjA0LWNsaWVudDCCASIwDQYJKoZIhvcN
AQEBBQADggEPADCCAQoCggEBAJpqnZ4f1nc9Ub/eJ59gQ58QWzZdTXwSD3HftCDB
brflEVRR6kGIEBKc5VioX9kFv6JwSEAmDMfeuELJNCSpc4kIrGqcf81/7uxqGzIO
piBL09Bg/Wfl1VvCQ2kQMxt8nk4EBQK+3R67vgnInM944s34mS8KXeXm2BmkBEPF
zsB6sNX91lmOqY+5cj4Dm3IkGqBw5Ay12FsTHKe5AZWznkW0TvKTbtK37GZOWxbb
3u6gflIRT5gJGrKbsxsvCGt7wl5+mOier+TxUh/tEJ/6E2/CEgyWGdlP74/+6qZz
7OIvhnviI65Yvxb1ZJcL/mPbbn2uW2FFr3VmyGewNsl6F7UCAwEAAaOBojCBnzAJ
BgNVHRMEAjAAMB0GA1UdDgQWBBQEuR6xBiqBR6NK/cynbeByRPQwNTBRBgNVHSME
SjBIgBQHfgNpAqQiCZhYxGt1bBxTcS+TMKEapBgwFjEUMBIGA1UEAwwLdGVhbTIw
NC1uZXSCFA3DpPOGGP3CHY10w0iTaLgzsEL0MBMGA1UdJQQMMAoGCCsGAQUFBwMC
MAsGA1UdDwQEAwIHgDANBgkqhkiG9w0BAQsFAAOCAQEAmfJ3N5f2d094FNvRbCEp
/whn17YiBchMhvlKzzCjDlQQIpFBsn1fIwI6LFDA6DPvGOBJGo7bW8/lUcaLg9xu
UXTisqvufSxhIbl2IR7C55/LSeR4Ar+J8wy9Yd8seKuVbOjcEF51OLsIEw1oAckw
+eL5e+UYVYuxkVbhvHcLs+x4vErLXgyfXmzpnv0y7hMyWCOZ0Ce8e3R6+rn3q+8k
QsqGIppKdJl5WCxuzYxSd1jzWgebqvFPUHz3OhGDkQ0I/6xM/WkVirQNoPpPoWIW
mprjDlWHiaf4EpIL0dR2H9k6q/ny4IoUAX0J5CgmNZ5DkZgPlELym/TTMNDspUsH
YA==
-----END CERTIFICATE-----
