Certificate:
    Data:
        Version: 3 (0x2)
        Serial Number:
            91:a1:6f:80:95:96:3f:31:e8:b9:9e:89:71:94:12:96
        Signature Algorithm: sha256WithRSAEncryption
        Issuer: CN=team143-net
        Validity
            Not Before: Nov  3 20:41:47 2023 GMT
            Not After : Oct 18 20:41:47 2026 GMT
        Subject: CN=team143-server
        Subject Public Key Info:
            Public Key Algorithm: rsaEncryption
                Public-Key: (2048 bit)
                Modulus:
                    00:ba:01:29:74:8b:fe:ad:28:0c:34:49:f4:c7:85:
                    00:5f:cf:48:0e:d8:da:d0:25:8a:8d:4b:23:a4:82:
                    2e:bb:27:55:75:49:1e:b3:45:75:1c:77:87:17:93:
                    58:b6:e7:31:27:61:b0:90:57:b8:fd:ce:60:c4:79:
                    a8:1e:44:d9:44:2d:f1:c1:8d:20:ed:f1:91:3a:2e:
                    67:34:58:e7:9d:4b:10:5a:f2:2e:1f:67:74:90:29:
                    a5:b9:cb:14:ac:cd:bb:1f:df:33:41:80:1c:f2:ab:
                    89:35:35:ac:dc:af:fe:61:5d:e1:e0:86:ae:dc:79:
                    ad:2b:73:31:98:da:13:5a:f4:08:9d:80:f6:d0:9b:
                    9e:66:15:34:b0:5f:6f:25:38:9b:ab:99:a4:30:6e:
                    8d:98:1a:60:41:d2:3b:8e:75:1e:27:13:ed:cb:4d:
                    39:39:42:62:da:a7:b4:f1:5b:0d:ce:4f:45:45:ef:
                    49:d6:81:73:af:9f:40:00:0c:f4:50:01:c8:b8:21:
                    80:91:50:62:f2:e4:79:87:f6:16:e4:12:34:51:cf:
                    c6:83:43:f7:73:0b:db:7f:11:67:a6:d2:c1:22:61:
                    49:66:3a:67:0f:38:90:82:a0:d7:84:c6:27:a9:77:
                    d9:b3:c3:31:85:72:36:03:3a:6b:7a:3e:76:b8:d8:
                    8c:59
                Exponent: 65537 (0x10001)
        X509v3 extensions:
            X509v3 Basic Constraints: 
                CA:FALSE
            X509v3 Subject Key Identifier: 
                7C:57:D2:3F:81:BA:B9:C9:C4:65:05:6F:8A:03:87:6A:69:BB:D5:67
            X509v3 Authority Key Identifier: 
                keyid:04:38:82:0F:EC:CF:9B:2F:34:0B:F0:A5:15:DC:95:81:85:09:5D:0C
                DirName:/CN=team143-net
                serial:4E:EA:83:97:5E:ED:74:1C:25:99:B5:E1:05:46:D5:1D:69:DF:FE:5D
            X509v3 Extended Key Usage: 
                TLS Web Server Authentication
            X509v3 Key Usage: 
                Digital Signature, Key Encipherment
            X509v3 Subject Alternative Name: 
                DNS:team143-server
    Signature Algorithm: sha256WithRSAEncryption
    Signature Value:
        73:f7:40:a0:36:15:72:7d:be:f3:52:bb:83:fa:35:97:9f:95:
        42:82:e3:7e:6b:1b:54:21:44:f9:f6:1c:d1:1c:f2:dd:c0:cd:
        4e:3d:1f:24:11:a6:10:50:c5:a1:77:80:34:1d:93:a2:fd:06:
        43:4a:fe:a4:34:a1:a3:f5:ed:76:bf:6e:23:a6:92:ca:e7:03:
        3b:ed:d8:dd:d6:2a:1f:c5:60:cd:e6:09:84:40:d2:bf:0d:c0:
        fe:93:0b:0f:b4:e8:d8:af:4d:76:16:30:f4:cf:15:e9:12:ab:
        19:b7:12:04:37:50:f4:5e:93:bf:54:25:bc:44:5d:ef:d9:e9:
        90:c3:73:cb:5b:a9:a8:95:d4:75:1e:25:fa:13:ec:c0:2c:eb:
        b1:37:cd:cc:7b:bc:e9:d5:4a:05:94:36:f5:e6:1f:94:c0:8d:
        b7:a5:8f:f6:a4:9f:3a:4d:9f:fe:61:dc:e3:c6:ec:ff:75:78:
        3f:d9:02:3d:90:28:2c:dd:d7:73:b8:7a:ab:50:f4:ca:30:ae:
        a2:33:fb:7f:ec:db:e6:c9:19:16:01:d2:18:8e:92:b1:36:55:
        ef:0a:ee:83:a2:9c:22:44:4f:24:1f:b2:8d:ec:ef:a4:b5:72:
        67:02:97:ef:4d:2a:5f:1e:e3:c0:47:0d:a0:e6:43:19:b0:6a:
        01:8f:69:66
-----BEGIN CERTIFICATE-----
MIIDeDCCAmCgAwIBAgIRAJGhb4CVlj8x6LmeiXGUEpYwDQYJKoZIhvcNAQELBQAw
FjEUMBIGA1UEAwwLdGVhbTE0My1uZXQwHhcNMjMxMTAzMjA0MTQ3WhcNMjYxMDE4
MjA0MTQ3WjAZMRcwFQYDVQQDDA50ZWFtMTQzLXNlcnZlcjCCASIwDQYJKoZIhvcN
AQEBBQADggEPADCCAQoCggEBALoBKXSL/q0oDDRJ9MeFAF/PSA7Y2tAlio1LI6SC
LrsnVXVJHrNFdRx3hxeTWLbnMSdhsJBXuP3OYMR5qB5E2UQt8cGNIO3xkTouZzRY
551LEFryLh9ndJAppbnLFKzNux/fM0GAHPKriTU1rNyv/mFd4eCGrtx5rStzMZja
E1r0CJ2A9tCbnmYVNLBfbyU4m6uZpDBujZgaYEHSO451HicT7ctNOTlCYtqntPFb
Dc5PRUXvSdaBc6+fQAAM9FAByLghgJFQYvLkeYf2FuQSNFHPxoND93ML238RZ6bS
wSJhSWY6Zw84kIKg14TGJ6l32bPDMYVyNgM6a3o+drjYjFkCAwEAAaOBvTCBujAJ
BgNVHRMEAjAAMB0GA1UdDgQWBBR8V9I/gbq5ycRlBW+KA4dqabvVZzBRBgNVHSME
SjBIgBQEOIIP7M+bLzQL8KUV3JWBhQldDKEapBgwFjEUMBIGA1UEAwwLdGVhbTE0
My1uZXSCFE7qg5de7XQcJZm14QVG1R1p3/5dMBMGA1UdJQQMMAoGCCsGAQUFBwMB
MAsGA1UdDwQEAwIFoDAZBgNVHREEEjAQgg50ZWFtMTQzLXNlcnZlcjANBgkqhkiG
9w0BAQsFAAOCAQEAc/dAoDYVcn2+81K7g/o1l5+VQoLjfmsbVCFE+fYc0Rzy3cDN
Tj0fJBGmEFDFoXeANB2Tov0GQ0r+pDSho/Xtdr9uI6aSyucDO+3Y3dYqH8VgzeYJ
hEDSvw3A/pMLD7To2K9NdhYw9M8V6RKrGbcSBDdQ9F6Tv1QlvERd79npkMNzy1up
qJXUdR4l+hPswCzrsTfNzHu86dVKBZQ29eYflMCNt6WP9qSfOk2f/mHc48bs/3V4
P9kCPZAoLN3Xc7h6q1D0yjCuojP7f+zb5skZFgHSGI6SsTZV7wrug6KcIkRPJB+y
jezvpLVyZwKX700qXx7jwEcNoOZDGbBqAY9pZg==
-----END CERTIFICATE-----
