Certificate:
    Data:
        Version: 3 (0x2)
        Serial Number:
            c0:7b:e5:be:8e:18:4c:73:a0:35:62:1c:4b:ca:79:72
        Signature Algorithm: sha256WithRSAEncryption
        Issuer: CN=team143-net
        Validity
            Not Before: Nov  4 11:30:23 2023 GMT
            Not After : Oct 19 11:30:23 2026 GMT
        Subject: CN=team143-server
        Subject Public Key Info:
            Public Key Algorithm: rsaEncryption
                Public-Key: (2048 bit)
                Modulus:
                    00:a2:5c:ed:93:bf:a9:c1:20:5e:6e:3e:a3:d8:da:
                    99:d4:7e:da:8b:79:1c:cc:d9:57:94:b1:da:14:73:
                    52:20:ed:e8:0a:84:86:fe:6d:b9:37:c6:5d:be:24:
                    8d:a5:d9:0a:11:1c:34:ea:56:db:da:46:73:46:2f:
                    e8:8e:9a:bd:5d:0c:bf:3a:e1:b9:cb:1f:f7:1b:f1:
                    8c:fc:52:ff:0b:72:c4:d4:5d:1e:91:e0:57:90:98:
                    45:b9:48:92:a0:86:3c:27:97:32:f0:a9:14:f1:19:
                    60:ac:6c:ac:06:91:df:23:06:e3:04:ad:c3:af:b6:
                    dc:ee:14:97:3d:39:2d:4b:51:4a:03:0c:33:f4:87:
                    5e:f9:a6:8e:17:79:15:f4:e0:82:6a:1d:19:73:45:
                    4b:3f:13:ef:4f:74:19:a8:ee:0f:7a:72:38:bf:92:
                    e2:d2:c4:2f:21:3e:9f:80:ba:71:59:2c:b0:cb:da:
                    1d:2f:c9:b9:12:2c:c3:ac:b8:84:b9:93:55:a0:af:
                    5d:71:93:4d:6d:1e:ee:24:3d:8d:5c:8d:04:c7:78:
                    18:04:df:d3:13:26:fc:e5:0a:eb:9d:94:c4:f1:b6:
                    29:e8:90:fc:8d:86:b0:af:7b:d1:92:bc:8c:6a:99:
                    60:ff:e0:c4:5b:7c:6f:66:6d:28:75:2f:60:c1:78:
                    af:2f
                Exponent: 65537 (0x10001)
        X509v3 extensions:
            X509v3 Basic Constraints: 
                CA:FALSE
            X509v3 Subject Key Identifier: 
                6C:DC:97:EB:F7:A6:6B:3D:17:3A:93:34:E2:73:A9:57:AD:84:72:AE
            X509v3 Authority Key Identifier: 
                keyid:8E:36:EC:5D:F4:0D:85:DF:5E:E9:7A:74:1B:42:A8:E4:42:0B:18:BF
                DirName:/CN=team143-net
                serial:66:18:04:E0:63:E4:E8:C3:F2:50:32:1F:EA:94:1B:EC:98:4D:46:95
            X509v3 Extended Key Usage: 
                TLS Web Server Authentication
            X509v3 Key Usage: 
                Digital Signature, Key Encipherment
            X509v3 Subject Alternative Name: 
                DNS:team143-server
    Signature Algorithm: sha256WithRSAEncryption
    Signature Value:
        2f:83:0d:94:b8:56:30:7c:67:3a:3d:bd:26:d1:af:47:27:30:
        80:65:b8:de:7d:71:3e:6c:94:4f:c5:59:e3:38:ef:ef:a7:c9:
        7d:57:05:fe:0e:fe:0b:ea:14:9f:0d:37:6d:bd:77:8c:ce:7a:
        be:64:f5:16:63:d4:cc:d4:d4:1a:04:9b:ab:31:68:44:a8:c3:
        99:72:ae:f9:e8:f3:02:d5:45:8a:79:2b:52:73:c3:cc:c0:62:
        47:36:95:26:78:78:87:7f:41:60:36:63:a1:89:c6:81:a5:50:
        f2:96:68:47:15:21:29:b1:25:f9:2d:41:ff:7c:90:bf:50:1a:
        f9:9a:52:13:43:f7:26:9d:a4:2e:38:44:91:9f:07:b4:78:bc:
        25:58:38:f5:14:98:cf:40:61:ab:41:0e:9a:11:56:0b:06:d9:
        ca:8f:2f:4e:e8:41:b5:36:60:41:3d:b9:0d:de:d6:f7:a9:f0:
        56:a7:66:49:b8:61:f0:e9:a4:73:db:ec:c8:2d:2d:03:34:8e:
        ba:be:0b:c6:b1:93:31:2f:e5:05:93:ff:fd:3e:c1:19:83:5b:
        34:17:5d:ba:63:78:1b:6a:4f:a4:20:1b:3f:ac:44:c5:e3:71:
        c0:d0:3b:4b:c4:96:a7:e7:ab:76:8a:eb:41:24:66:86:fa:cd:
        2f:a5:d8:2d
-----BEGIN CERTIFICATE-----
MIIDeDCCAmCgAwIBAgIRAMB75b6OGExzoDViHEvKeXIwDQYJKoZIhvcNAQELBQAw
FjEUMBIGA1UEAwwLdGVhbTE0My1uZXQwHhcNMjMxMTA0MTEzMDIzWhcNMjYxMDE5
MTEzMDIzWjAZMRcwFQYDVQQDDA50ZWFtMTQzLXNlcnZlcjCCASIwDQYJKoZIhvcN
AQEBBQADggEPADCCAQoCggEBAKJc7ZO/qcEgXm4+o9jamdR+2ot5HMzZV5Sx2hRz
UiDt6AqEhv5tuTfGXb4kjaXZChEcNOpW29pGc0Yv6I6avV0Mvzrhucsf9xvxjPxS
/wtyxNRdHpHgV5CYRblIkqCGPCeXMvCpFPEZYKxsrAaR3yMG4wStw6+23O4Ulz05
LUtRSgMMM/SHXvmmjhd5FfTggmodGXNFSz8T7090GajuD3pyOL+S4tLELyE+n4C6
cVkssMvaHS/JuRIsw6y4hLmTVaCvXXGTTW0e7iQ9jVyNBMd4GATf0xMm/OUK652U
xPG2KeiQ/I2GsK970ZK8jGqZYP/gxFt8b2ZtKHUvYMF4ry8CAwEAAaOBvTCBujAJ
BgNVHRMEAjAAMB0GA1UdDgQWBBRs3Jfr96ZrPRc6kzTic6lXrYRyrjBRBgNVHSME
SjBIgBSONuxd9A2F317penQbQqjkQgsYv6EapBgwFjEUMBIGA1UEAwwLdGVhbTE0
My1uZXSCFGYYBOBj5OjD8lAyH+qUG+yYTUaVMBMGA1UdJQQMMAoGCCsGAQUFBwMB
MAsGA1UdDwQEAwIFoDAZBgNVHREEEjAQgg50ZWFtMTQzLXNlcnZlcjANBgkqhkiG
9w0BAQsFAAOCAQEAL4MNlLhWMHxnOj29JtGvRycwgGW43n1xPmyUT8VZ4zjv76fJ
fVcF/g7+C+oUnw03bb13jM56vmT1FmPUzNTUGgSbqzFoRKjDmXKu+ejzAtVFinkr
UnPDzMBiRzaVJnh4h39BYDZjoYnGgaVQ8pZoRxUhKbEl+S1B/3yQv1Aa+ZpSE0P3
Jp2kLjhEkZ8HtHi8JVg49RSYz0Bhq0EOmhFWCwbZyo8vTuhBtTZgQT25Dd7W96nw
VqdmSbhh8Omkc9vsyC0tAzSOur4LxrGTMS/lBZP//T7BGYNbNBddumN4G2pPpCAb
P6xExeNxwNA7S8SWp+erdorrQSRmhvrNL6XYLQ==
-----END CERTIFICATE-----
