Certificate:
    Data:
        Version: 3 (0x2)
        Serial Number:
            f0:09:f5:89:27:f7:85:cb:77:7f:9a:e7:73:7e:69:71
        Signature Algorithm: sha256WithRSAEncryption
        Issuer: CN=team143-net
        Validity
            Not Before: Nov  4 10:43:12 2023 GMT
            Not After : Oct 19 10:43:12 2026 GMT
        Subject: CN=team143-client
        Subject Public Key Info:
            Public Key Algorithm: rsaEncryption
                Public-Key: (2048 bit)
                Modulus:
                    00:a4:a4:86:97:54:9e:d1:68:89:b1:4f:b9:25:2f:
                    6e:aa:9b:ca:a2:ca:0c:34:e1:f0:4d:e3:1c:78:f7:
                    23:4c:1a:19:93:77:4f:55:89:05:78:78:31:5d:9c:
                    4a:c9:3d:1b:f6:79:84:ff:f4:65:32:85:cf:eb:71:
                    cd:78:69:15:f2:57:6e:d7:5d:fd:07:d9:0c:c2:da:
                    b5:f9:de:b5:f8:7b:40:36:d5:96:e9:75:cc:1a:01:
                    65:4d:97:1a:ca:3e:f4:1d:05:5c:cd:7f:22:f4:54:
                    68:b9:44:f9:63:80:1d:ae:db:71:53:e1:a4:30:da:
                    99:52:d1:67:c0:99:4a:67:45:60:fa:e7:c1:ea:98:
                    f4:1d:67:a2:1b:80:1d:cd:84:e9:b5:c7:58:d9:e1:
                    75:f6:18:26:c5:73:e6:c4:70:70:2f:21:5a:ab:80:
                    da:30:e4:bb:70:a2:41:e9:92:45:8f:61:c0:fe:80:
                    68:54:10:cd:85:64:54:b7:92:c3:35:0b:9e:29:5e:
                    f0:ce:04:6b:8c:63:88:4e:a0:4a:08:1e:45:de:5a:
                    f3:d9:8e:6f:21:b2:4a:67:48:4e:b7:57:6d:39:8e:
                    e2:2e:62:00:5e:a2:65:10:cf:c5:06:76:88:73:9d:
                    7e:5e:5c:83:f0:a1:a8:1f:ae:ef:ce:9a:cf:91:83:
                    3e:ad
                Exponent: 65537 (0x10001)
        X509v3 extensions:
            X509v3 Basic Constraints: 
                CA:FALSE
            X509v3 Subject Key Identifier: 
                A9:5A:17:04:78:24:C6:13:E9:E9:C6:E6:7E:49:27:D8:2E:E5:34:AF
            X509v3 Authority Key Identifier: 
                keyid:1F:BB:14:68:F7:CD:FA:E5:59:1E:8A:E9:E3:9B:F8:DB:FF:46:19:A2
                DirName:/CN=team143-net
                serial:3A:B0:87:66:E6:CB:96:BB:95:26:53:57:40:26:63:B7:6E:93:F2:77
            X509v3 Extended Key Usage: 
                TLS Web Client Authentication
            X509v3 Key Usage: 
                Digital Signature
    Signature Algorithm: sha256WithRSAEncryption
    Signature Value:
        b4:af:58:0b:ee:d7:e8:72:3d:89:5c:e4:ca:e3:1d:d8:a9:2b:
        d9:35:55:c5:b9:0c:06:7a:b7:ed:5b:1f:48:23:b4:3e:3d:55:
        56:34:d1:f1:51:a1:df:7e:43:8f:eb:56:40:57:11:f2:d8:a0:
        85:04:5a:e6:2e:be:8e:c6:b6:46:5a:09:b5:5b:a4:13:8b:9c:
        55:53:8a:03:33:06:df:d0:37:a5:8e:3c:6e:bf:15:cd:73:f8:
        ba:c4:88:90:d2:c6:9e:b3:09:33:8e:20:f7:b9:cd:da:1c:46:
        47:4e:6a:3b:e3:13:db:61:e6:0b:3e:98:66:76:52:cd:7e:0e:
        c5:ba:d5:b3:85:1a:dd:43:ff:5e:a5:13:bd:34:5d:23:60:8c:
        b5:6c:41:f2:39:c7:57:16:a1:69:81:7b:c7:cf:4e:85:d6:a5:
        70:a3:06:99:d6:05:f4:ac:00:50:bf:58:88:b6:de:cd:58:db:
        07:38:99:df:c6:04:df:c4:ef:36:d6:97:12:3f:7e:6c:be:58:
        9e:b5:77:87:18:33:18:52:7b:c9:f7:99:4f:b6:ac:dc:bd:31:
        fa:ec:42:7f:9b:5e:98:28:49:a3:04:13:f7:7d:03:42:0e:10:
        5f:14:77:cd:ec:3e:29:fa:80:e8:fb:e1:68:0a:7a:e1:1c:51:
        f2:b7:8c:ec
-----BEGIN CERTIFICATE-----
MIIDXTCCAkWgAwIBAgIRAPAJ9Ykn94XLd3+a53N+aXEwDQYJKoZIhvcNAQELBQAw
FjEUMBIGA1UEAwwLdGVhbTE0My1uZXQwHhcNMjMxMTA0MTA0MzEyWhcNMjYxMDE5
MTA0MzEyWjAZMRcwFQYDVQQDDA50ZWFtMTQzLWNsaWVudDCCASIwDQYJKoZIhvcN
AQEBBQADggEPADCCAQoCggEBAKSkhpdUntFoibFPuSUvbqqbyqLKDDTh8E3jHHj3
I0waGZN3T1WJBXh4MV2cSsk9G/Z5hP/0ZTKFz+txzXhpFfJXbtdd/QfZDMLatfne
tfh7QDbVlul1zBoBZU2XGso+9B0FXM1/IvRUaLlE+WOAHa7bcVPhpDDamVLRZ8CZ
SmdFYPrnweqY9B1nohuAHc2E6bXHWNnhdfYYJsVz5sRwcC8hWquA2jDku3CiQemS
RY9hwP6AaFQQzYVkVLeSwzULnile8M4Ea4xjiE6gSggeRd5a89mObyGySmdITrdX
bTmO4i5iAF6iZRDPxQZ2iHOdfl5cg/ChqB+u786az5GDPq0CAwEAAaOBojCBnzAJ
BgNVHRMEAjAAMB0GA1UdDgQWBBSpWhcEeCTGE+npxuZ+SSfYLuU0rzBRBgNVHSME
SjBIgBQfuxRo98365Vkeiunjm/jb/0YZoqEapBgwFjEUMBIGA1UEAwwLdGVhbTE0
My1uZXSCFDqwh2bmy5a7lSZTV0AmY7duk/J3MBMGA1UdJQQMMAoGCCsGAQUFBwMC
MAsGA1UdDwQEAwIHgDANBgkqhkiG9w0BAQsFAAOCAQEAtK9YC+7X6HI9iVzkyuMd
2Kkr2TVVxbkMBnq37VsfSCO0Pj1VVjTR8VGh335Dj+tWQFcR8tighQRa5i6+jsa2
RloJtVukE4ucVVOKAzMG39A3pY48br8VzXP4usSIkNLGnrMJM44g97nN2hxGR05q
O+MT22HmCz6YZnZSzX4OxbrVs4Ua3UP/XqUTvTRdI2CMtWxB8jnHVxahaYF7x89O
hdalcKMGmdYF9KwAUL9YiLbezVjbBziZ38YE38TvNtaXEj9+bL5YnrV3hxgzGFJ7
yfeZT7as3L0x+uxCf5temChJowQT930DQg4QXxR3zew+KfqA6PvhaAp64RxR8reM
7A==
-----END CERTIFICATE-----
