Certificate:
    Data:
        Version: 3 (0x2)
        Serial Number:
            46:6b:7a:ac:c3:ed:28:c5:71:e8:6b:39:ff:b6:33:e7
        Signature Algorithm: sha256WithRSAEncryption
        Issuer: CN=team57-net
        Validity
            Not Before: Nov  4 11:28:28 2023 GMT
            Not After : Oct 19 11:28:28 2026 GMT
        Subject: CN=team57-server
        Subject Public Key Info:
            Public Key Algorithm: rsaEncryption
                Public-Key: (2048 bit)
                Modulus:
                    00:c7:3c:d3:7a:3a:91:e0:0f:63:b7:fc:35:26:db:
                    5d:0c:d6:c8:1c:ff:c9:85:e2:d0:a5:d8:a7:9d:4b:
                    d9:dc:30:a8:68:6b:cb:f9:00:40:dd:f7:7e:69:6a:
                    3c:a7:3d:c9:11:20:b6:5b:78:4d:26:7b:51:8f:37:
                    a2:95:1d:3a:76:62:97:13:13:b4:e7:cb:31:13:ef:
                    ae:51:43:f9:a0:8b:5e:e4:3f:39:22:fa:42:fa:8a:
                    33:79:94:a9:0b:be:a8:9d:7e:31:4c:b6:58:19:92:
                    96:f8:6b:e3:43:8c:91:c2:1c:28:82:ac:50:af:54:
                    8f:8d:09:81:37:68:67:aa:46:59:f0:00:97:08:8f:
                    01:0e:02:39:df:5d:a8:dc:1b:f7:4e:11:79:17:66:
                    52:05:42:c9:1b:dd:b9:c6:cc:91:fc:08:a0:5f:dd:
                    da:12:e1:77:43:49:64:f5:fc:0e:d0:b1:d6:d5:06:
                    82:43:c7:53:96:e4:29:af:dd:ad:92:0c:a3:5b:4d:
                    ec:d1:70:75:c6:8c:ab:6a:16:d5:d2:a2:89:24:58:
                    7d:e3:47:a7:36:4f:27:15:89:f6:17:ce:e4:0e:c1:
                    f8:eb:c1:5c:93:69:01:87:1a:21:c5:d4:f8:a5:95:
                    c8:f8:59:48:3d:0d:3c:9e:9e:f8:be:81:e6:42:1b:
                    fd:1f
                Exponent: 65537 (0x10001)
        X509v3 extensions:
            X509v3 Basic Constraints: 
                CA:FALSE
            X509v3 Subject Key Identifier: 
                0D:84:27:37:9F:94:14:69:BF:9A:4B:37:07:60:E7:F7:A7:90:4E:1E
            X509v3 Authority Key Identifier: 
                keyid:78:45:41:D5:73:F6:53:9D:73:88:73:A6:F0:19:87:02:94:A1:20:01
                DirName:/CN=team57-net
                serial:3A:2D:0D:BE:9B:21:50:72:56:1A:C2:FE:F9:25:1F:C7:2F:00:3C:93
            X509v3 Extended Key Usage: 
                TLS Web Server Authentication
            X509v3 Key Usage: 
                Digital Signature, Key Encipherment
            X509v3 Subject Alternative Name: 
                DNS:team57-server
    Signature Algorithm: sha256WithRSAEncryption
    Signature Value:
        9c:5b:11:5a:46:06:ba:50:e9:e2:bc:ca:29:bb:bc:f4:2e:98:
        7a:9d:a5:3d:8f:d5:43:37:7e:3c:fb:ba:1f:40:96:50:a4:3b:
        83:d5:b9:85:30:16:68:05:8c:d6:88:30:fc:35:02:3c:57:e5:
        d3:bb:2e:a5:8d:8e:9e:30:12:93:73:a7:73:8b:45:04:65:41:
        60:01:e4:3a:86:30:95:9a:0e:6a:89:23:1f:ed:1d:80:4f:c3:
        50:a2:59:75:be:7d:3b:27:5d:5f:17:63:23:61:4d:f9:14:6a:
        53:d0:79:45:0c:d7:8f:2c:97:cd:69:a6:07:fb:49:84:64:e7:
        31:c5:a5:bc:4c:8e:d9:03:9c:dd:18:10:5c:38:1d:f6:71:20:
        29:61:4a:50:c1:fd:fa:ee:62:6c:2c:c7:e7:8e:4d:65:df:26:
        0c:4e:c3:1b:8e:8f:8d:72:a3:d9:04:4c:5f:e3:7d:8d:a8:6d:
        5e:84:29:c9:45:b4:35:d3:61:a1:0e:28:86:6c:17:03:2b:ce:
        88:63:25:de:bf:80:8a:bb:f9:5d:0e:ee:5e:4a:74:08:59:a9:
        19:50:c0:70:49:50:1f:c4:db:ff:41:4a:95:23:4e:57:cf:bb:
        b1:e3:61:1f:c8:b9:9c:b1:a7:f7:c0:1d:e9:e9:a0:dd:90:bb:
        08:bc:cc:9a
-----BEGIN CERTIFICATE-----
MIIDczCCAlugAwIBAgIQRmt6rMPtKMVx6Gs5/7Yz5zANBgkqhkiG9w0BAQsFADAV
MRMwEQYDVQQDDAp0ZWFtNTctbmV0MB4XDTIzMTEwNDExMjgyOFoXDTI2MTAxOTEx
MjgyOFowGDEWMBQGA1UEAwwNdGVhbTU3LXNlcnZlcjCCASIwDQYJKoZIhvcNAQEB
BQADggEPADCCAQoCggEBAMc803o6keAPY7f8NSbbXQzWyBz/yYXi0KXYp51L2dww
qGhry/kAQN33fmlqPKc9yREgtlt4TSZ7UY83opUdOnZilxMTtOfLMRPvrlFD+aCL
XuQ/OSL6QvqKM3mUqQu+qJ1+MUy2WBmSlvhr40OMkcIcKIKsUK9Uj40JgTdoZ6pG
WfAAlwiPAQ4COd9dqNwb904ReRdmUgVCyRvducbMkfwIoF/d2hLhd0NJZPX8DtCx
1tUGgkPHU5bkKa/drZIMo1tN7NFwdcaMq2oW1dKiiSRYfeNHpzZPJxWJ9hfO5A7B
+OvBXJNpAYcaIcXU+KWVyPhZSD0NPJ6e+L6B5kIb/R8CAwEAAaOBuzCBuDAJBgNV
HRMEAjAAMB0GA1UdDgQWBBQNhCc3n5QUab+aSzcHYOf3p5BOHjBQBgNVHSMESTBH
gBR4RUHVc/ZTnXOIc6bwGYcClKEgAaEZpBcwFTETMBEGA1UEAwwKdGVhbTU3LW5l
dIIUOi0NvpshUHJWGsL++SUfxy8APJMwEwYDVR0lBAwwCgYIKwYBBQUHAwEwCwYD
VR0PBAQDAgWgMBgGA1UdEQQRMA+CDXRlYW01Ny1zZXJ2ZXIwDQYJKoZIhvcNAQEL
BQADggEBAJxbEVpGBrpQ6eK8yim7vPQumHqdpT2P1UM3fjz7uh9AllCkO4PVuYUw
FmgFjNaIMPw1AjxX5dO7LqWNjp4wEpNzp3OLRQRlQWAB5DqGMJWaDmqJIx/tHYBP
w1CiWXW+fTsnXV8XYyNhTfkUalPQeUUM148sl81ppgf7SYRk5zHFpbxMjtkDnN0Y
EFw4HfZxIClhSlDB/fruYmwsx+eOTWXfJgxOwxuOj41yo9kETF/jfY2obV6EKclF
tDXTYaEOKIZsFwMrzohjJd6/gIq7+V0O7l5KdAhZqRlQwHBJUB/E2/9BSpUjTlfP
u7HjYR/IuZyxp/fAHenpoN2Quwi8zJo=
-----END CERTIFICATE-----
