Certificate:
    Data:
        Version: 3 (0x2)
        Serial Number:
            eb:79:0e:79:65:30:32:6a:1a:9e:a6:7a:31:20:c3:c9
        Signature Algorithm: sha256WithRSAEncryption
        Issuer: CN=team57-net
        Validity
            Not Before: Nov  4 10:41:20 2023 GMT
            Not After : Oct 19 10:41:20 2026 GMT
        Subject: CN=team57-server
        Subject Public Key Info:
            Public Key Algorithm: rsaEncryption
                Public-Key: (2048 bit)
                Modulus:
                    00:9e:4f:11:61:99:72:db:3a:ec:bc:f8:1c:25:85:
                    8a:e6:92:d9:92:ca:b8:13:9b:94:ef:b4:5b:f5:9d:
                    2c:02:b9:85:64:cc:d4:b5:a0:35:c9:ac:bb:0e:06:
                    7a:40:21:be:5c:82:72:de:c1:6a:24:d0:79:3c:ca:
                    31:10:08:19:07:2b:4b:b2:84:9d:b3:35:4a:89:28:
                    69:57:f5:19:e5:31:f5:db:3b:47:44:12:e4:c5:5b:
                    95:eb:60:a4:52:ec:93:fc:22:64:70:46:0f:0e:b0:
                    a0:78:df:47:e6:3a:a7:52:fc:96:05:64:4b:77:33:
                    03:a7:59:bd:8d:69:8d:5f:20:3f:8d:9e:6f:8e:c7:
                    16:21:7d:c6:dd:15:b1:d6:2a:65:35:6d:00:dc:a1:
                    bf:18:98:bf:f9:c7:b4:b1:6b:13:37:7f:67:a5:b9:
                    89:39:c7:7e:13:84:e1:ec:f8:6a:e1:93:60:6c:b5:
                    69:74:ac:4c:de:c2:28:42:5a:15:99:5f:00:79:d5:
                    6e:a4:33:e6:39:6c:79:93:d0:f5:73:c9:3f:c7:ca:
                    07:ee:0b:b6:ff:b9:e9:6d:c5:c5:95:7b:ef:5b:34:
                    42:df:7f:69:f6:f8:03:48:b2:c5:8d:2f:5f:86:a5:
                    ef:9a:66:e8:7d:24:0d:c7:aa:e7:ce:20:36:73:07:
                    40:67
                Exponent: 65537 (0x10001)
        X509v3 extensions:
            X509v3 Basic Constraints: 
                CA:FALSE
            X509v3 Subject Key Identifier: 
                92:94:EB:65:D7:88:2F:E4:CE:22:B2:2C:9B:80:1F:F9:5D:2B:CE:57
            X509v3 Authority Key Identifier: 
                keyid:8E:9D:3C:CA:7B:28:2F:69:4D:30:61:FC:CD:87:85:C2:20:A6:3F:19
                DirName:/CN=team57-net
                serial:39:18:1B:A2:C5:09:5A:1D:2B:63:A2:05:D3:68:05:41:C7:8D:77:9A
            X509v3 Extended Key Usage: 
                TLS Web Server Authentication
            X509v3 Key Usage: 
                Digital Signature, Key Encipherment
            X509v3 Subject Alternative Name: 
                DNS:team57-server
    Signature Algorithm: sha256WithRSAEncryption
    Signature Value:
        1f:9f:0c:8c:4b:81:a0:8e:ea:6d:85:20:b7:30:c5:74:ac:61:
        bc:b6:e3:2a:bb:38:97:6d:6e:0a:67:98:a2:24:0a:99:e7:72:
        f8:b1:58:6a:da:44:da:41:f8:1f:05:d6:a9:46:42:e7:69:d3:
        30:33:f2:97:b1:04:37:cd:e8:41:fe:0b:d9:5e:aa:52:4c:df:
        0e:b3:2e:36:99:33:48:fd:e8:8f:25:63:6a:56:d0:3f:37:9e:
        02:60:c0:b7:77:2c:3f:ab:f6:22:b7:ef:be:17:5f:c9:75:4b:
        41:e6:e4:85:87:42:fd:6c:09:21:65:80:40:4c:69:ca:6d:e1:
        67:a0:6f:08:cc:96:e6:50:ca:5d:2a:13:cd:05:6f:ed:40:ca:
        9c:79:66:2e:d1:d1:0f:ec:aa:0e:f2:3f:57:49:c4:b1:0b:99:
        6f:0d:40:4e:32:bd:49:ae:86:f2:ca:4e:38:f5:f1:5c:43:70:
        25:a5:20:f8:17:76:44:02:71:a9:75:64:6b:82:ed:6e:fb:f3:
        c7:30:f5:48:b7:48:ee:da:6c:d5:51:d6:dc:f1:e4:ce:53:1a:
        14:53:24:ed:b8:97:6e:cd:e2:97:5f:e0:ad:9d:6b:e1:a2:ec:
        4a:56:85:1a:dc:38:4e:3c:81:1d:b4:0e:aa:7e:c0:87:cb:db:
        7e:69:45:da
-----BEGIN CERTIFICATE-----
MIIDdDCCAlygAwIBAgIRAOt5DnllMDJqGp6mejEgw8kwDQYJKoZIhvcNAQELBQAw
FTETMBEGA1UEAwwKdGVhbTU3LW5ldDAeFw0yMzExMDQxMDQxMjBaFw0yNjEwMTkx
MDQxMjBaMBgxFjAUBgNVBAMMDXRlYW01Ny1zZXJ2ZXIwggEiMA0GCSqGSIb3DQEB
AQUAA4IBDwAwggEKAoIBAQCeTxFhmXLbOuy8+BwlhYrmktmSyrgTm5TvtFv1nSwC
uYVkzNS1oDXJrLsOBnpAIb5cgnLewWok0Hk8yjEQCBkHK0uyhJ2zNUqJKGlX9Rnl
MfXbO0dEEuTFW5XrYKRS7JP8ImRwRg8OsKB430fmOqdS/JYFZEt3MwOnWb2NaY1f
ID+Nnm+OxxYhfcbdFbHWKmU1bQDcob8YmL/5x7SxaxM3f2eluYk5x34ThOHs+Grh
k2BstWl0rEzewihCWhWZXwB51W6kM+Y5bHmT0PVzyT/HygfuC7b/ueltxcWVe+9b
NELff2n2+ANIssWNL1+Gpe+aZuh9JA3HqufOIDZzB0BnAgMBAAGjgbswgbgwCQYD
VR0TBAIwADAdBgNVHQ4EFgQUkpTrZdeIL+TOIrIsm4Af+V0rzlcwUAYDVR0jBEkw
R4AUjp08ynsoL2lNMGH8zYeFwiCmPxmhGaQXMBUxEzARBgNVBAMMCnRlYW01Ny1u
ZXSCFDkYG6LFCVodK2OiBdNoBUHHjXeaMBMGA1UdJQQMMAoGCCsGAQUFBwMBMAsG
A1UdDwQEAwIFoDAYBgNVHREEETAPgg10ZWFtNTctc2VydmVyMA0GCSqGSIb3DQEB
CwUAA4IBAQAfnwyMS4GgjupthSC3MMV0rGG8tuMquziXbW4KZ5iiJAqZ53L4sVhq
2kTaQfgfBdapRkLnadMwM/KXsQQ3zehB/gvZXqpSTN8Osy42mTNI/eiPJWNqVtA/
N54CYMC3dyw/q/Yit+++F1/JdUtB5uSFh0L9bAkhZYBATGnKbeFnoG8IzJbmUMpd
KhPNBW/tQMqceWYu0dEP7KoO8j9XScSxC5lvDUBOMr1Jrobyyk449fFcQ3AlpSD4
F3ZEAnGpdWRrgu1u+/PHMPVIt0ju2mzVUdbc8eTOUxoUUyTtuJduzeKXX+CtnWvh
ouxKVoUa3DhOPIEdtA6qfsCHy9t+aUXa
-----END CERTIFICATE-----
