Certificate:
    Data:
        Version: 3 (0x2)
        Serial Number:
            01:07:c4:f8:1a:a0:e6:63:84:d2:67:8f:12:90:45:f6
        Signature Algorithm: sha256WithRSAEncryption
        Issuer: CN=team405-net
        Validity
            Not Before: Nov  4 11:36:37 2023 GMT
            Not After : Oct 19 11:36:37 2026 GMT
        Subject: CN=team405-client
        Subject Public Key Info:
            Public Key Algorithm: rsaEncryption
                Public-Key: (2048 bit)
                Modulus:
                    00:85:29:d2:8b:74:79:cc:30:cf:70:e8:a5:a7:b4:
                    47:60:e9:7d:17:8a:38:ad:61:be:8b:90:fe:0a:aa:
                    0b:ba:3c:9e:3a:46:64:3e:d0:fc:f2:fc:e0:aa:36:
                    b5:0c:84:2f:33:3a:29:57:5e:ed:a2:90:17:b4:3a:
                    d8:d5:a4:79:4b:7f:d1:0c:35:76:c8:a5:4b:d3:14:
                    3d:0b:ac:f2:3b:ec:8e:97:99:ad:a2:0f:b9:b5:a4:
                    9f:44:4f:b8:88:9b:d1:9b:17:96:b7:33:4e:12:57:
                    9e:ed:44:2d:b1:b1:5b:f7:f2:1b:e1:d5:d3:75:3d:
                    c0:62:52:23:94:aa:6d:5a:18:2e:54:be:d8:49:4f:
                    80:30:e4:42:7c:9e:96:fb:8d:51:b6:0c:36:54:73:
                    91:1d:72:14:e1:7a:e9:dc:4c:4a:1d:29:80:d5:0b:
                    67:ea:01:4f:8a:ac:f7:29:e9:86:47:e6:c3:97:84:
                    30:4b:94:10:e1:4c:16:c1:1f:1a:6f:9c:6c:5f:7f:
                    51:9f:2c:3b:dd:cb:6c:35:21:44:1c:9c:e2:32:92:
                    01:1c:b4:5e:c1:dd:dc:12:7c:d2:2b:e0:42:21:86:
                    5e:20:51:69:f6:e9:6d:3a:fa:c2:8e:92:a0:10:d8:
                    c2:dd:1b:61:4f:66:bb:13:23:0e:bb:3c:e9:03:f0:
                    a8:cb
                Exponent: 65537 (0x10001)
        X509v3 extensions:
            X509v3 Basic Constraints: 
                CA:FALSE
            X509v3 Subject Key Identifier: 
                B7:AC:03:39:4D:5C:D4:BB:24:42:5B:65:62:66:A5:AB:88:DC:FF:E1
            X509v3 Authority Key Identifier: 
                keyid:96:45:67:D4:FC:E6:41:51:C4:12:79:D5:0E:4A:E8:EA:56:8C:D2:59
                DirName:/CN=team405-net
                serial:51:63:3D:FE:D3:76:56:86:D0:35:C4:40:66:D0:BA:65:36:1C:37:3C
            X509v3 Extended Key Usage: 
                TLS Web Client Authentication
            X509v3 Key Usage: 
                Digital Signature
    Signature Algorithm: sha256WithRSAEncryption
    Signature Value:
        0c:c2:9f:f9:02:fa:78:aa:ba:a5:4e:f2:09:01:88:22:5e:ca:
        7c:bc:96:43:6c:fc:31:bf:cf:08:28:7c:2b:57:34:20:a8:b5:
        0e:f1:1c:17:f5:94:9d:e3:a4:ce:17:31:2a:f6:b9:a7:0b:98:
        c2:2d:d6:52:bc:1e:92:5f:4b:df:f8:33:a9:21:5c:ae:9a:06:
        09:44:51:20:2f:a9:f4:51:40:56:20:7e:21:7d:a8:f6:cd:f0:
        fa:2f:bc:f4:2b:26:5c:b2:b3:ea:4d:6f:97:ea:3b:8b:8a:07:
        fd:8c:cc:d3:95:c5:eb:e0:b6:41:84:d0:99:7e:4e:b4:db:38:
        df:9f:0d:e4:6a:29:4b:c8:ef:90:e6:8e:eb:ad:a9:58:69:bb:
        61:fa:d4:1a:67:a6:68:8a:92:c4:b5:51:f9:73:79:88:c4:45:
        19:d2:f4:e5:c5:be:5b:57:ec:81:19:a9:b3:74:77:0c:dc:a1:
        92:6a:0d:7d:12:fa:6c:18:ee:96:7f:d6:fd:48:5b:7b:03:96:
        66:72:8d:92:28:32:46:55:c8:1a:bb:c0:83:27:1f:f6:7f:25:
        08:53:11:df:1c:65:6a:1b:99:8a:cb:c8:91:09:db:45:8f:01:
        79:4e:f9:a8:4e:a3:12:07:3f:7a:43:7c:69:e3:77:15:7c:71:
        00:46:5b:be
-----BEGIN CERTIFICATE-----
MIIDXDCCAkSgAwIBAgIQAQfE+Bqg5mOE0mePEpBF9jANBgkqhkiG9w0BAQsFADAW
MRQwEgYDVQQDDAt0ZWFtNDA1LW5ldDAeFw0yMzExMDQxMTM2MzdaFw0yNjEwMTkx
MTM2MzdaMBkxFzAVBgNVBAMMDnRlYW00MDUtY2xpZW50MIIBIjANBgkqhkiG9w0B
AQEFAAOCAQ8AMIIBCgKCAQEAhSnSi3R5zDDPcOilp7RHYOl9F4o4rWG+i5D+CqoL
ujyeOkZkPtD88vzgqja1DIQvMzopV17topAXtDrY1aR5S3/RDDV2yKVL0xQ9C6zy
O+yOl5mtog+5taSfRE+4iJvRmxeWtzNOElee7UQtsbFb9/Ib4dXTdT3AYlIjlKpt
WhguVL7YSU+AMORCfJ6W+41Rtgw2VHORHXIU4Xrp3ExKHSmA1Qtn6gFPiqz3KemG
R+bDl4QwS5QQ4UwWwR8ab5xsX39Rnyw73ctsNSFEHJziMpIBHLRewd3cEnzSK+BC
IYZeIFFp9ultOvrCjpKgENjC3RthT2a7EyMOuzzpA/CoywIDAQABo4GiMIGfMAkG
A1UdEwQCMAAwHQYDVR0OBBYEFLesAzlNXNS7JEJbZWJmpauI3P/hMFEGA1UdIwRK
MEiAFJZFZ9T85kFRxBJ51Q5K6OpWjNJZoRqkGDAWMRQwEgYDVQQDDAt0ZWFtNDA1
LW5ldIIUUWM9/tN2VobQNcRAZtC6ZTYcNzwwEwYDVR0lBAwwCgYIKwYBBQUHAwIw
CwYDVR0PBAQDAgeAMA0GCSqGSIb3DQEBCwUAA4IBAQAMwp/5Avp4qrqlTvIJAYgi
Xsp8vJZDbPwxv88IKHwrVzQgqLUO8RwX9ZSd46TOFzEq9rmnC5jCLdZSvB6SX0vf
+DOpIVyumgYJRFEgL6n0UUBWIH4hfaj2zfD6L7z0KyZcsrPqTW+X6juLigf9jMzT
lcXr4LZBhNCZfk602zjfnw3kailLyO+Q5o7rralYabth+tQaZ6ZoipLEtVH5c3mI
xEUZ0vTlxb5bV+yBGamzdHcM3KGSag19EvpsGO6Wf9b9SFt7A5Zmco2SKDJGVcga
u8CDJx/2fyUIUxHfHGVqG5mKy8iRCdtFjwF5TvmoTqMSBz96Q3xp43cVfHEARlu+
-----END CERTIFICATE-----
