Certificate:
    Data:
        Version: 3 (0x2)
        Serial Number:
            74:30:f4:aa:93:87:f0:c9:d9:63:46:d4:9a:32:24:3a
        Signature Algorithm: sha256WithRSAEncryption
        Issuer: CN=team405-net
        Validity
            Not Before: Nov  4 10:47:56 2023 GMT
            Not After : Oct 19 10:47:56 2026 GMT
        Subject: CN=team405-client
        Subject Public Key Info:
            Public Key Algorithm: rsaEncryption
                Public-Key: (2048 bit)
                Modulus:
                    00:de:c3:ce:3f:e4:a2:98:60:1d:f4:1b:c8:07:e1:
                    d9:0a:34:c5:66:3f:51:29:c3:af:88:da:9c:44:40:
                    00:70:f9:9d:af:8d:f8:f4:ba:d2:51:ae:87:a6:61:
                    be:0a:33:66:2b:95:38:4c:03:8a:b5:4f:c9:f6:49:
                    10:52:e9:51:a3:2d:1b:97:3d:91:4f:e8:72:34:d3:
                    36:54:57:88:9f:36:76:33:23:dd:45:b7:ab:e2:cf:
                    d2:34:50:3d:64:6d:4d:b2:0d:0a:0e:ab:28:18:06:
                    57:8c:68:7f:4c:8c:34:d1:48:77:ef:ef:0f:55:da:
                    1b:29:80:0c:a6:23:3e:c1:0c:03:49:86:5c:5f:5b:
                    f3:f0:cf:dd:5e:64:f1:06:63:3d:00:4e:5a:4b:05:
                    a9:95:ab:4e:3c:a7:b9:bd:20:7f:7e:e6:7b:b8:70:
                    a0:41:e4:45:61:72:c3:d4:21:f5:16:4f:2e:1b:2e:
                    6f:a6:d4:9e:bc:7b:b8:77:b7:6e:0b:97:2e:27:6c:
                    41:16:a2:94:7e:c7:47:d0:2c:a6:57:92:0c:af:6e:
                    f3:1e:01:5f:95:85:5b:95:38:66:7a:ea:3d:ba:0a:
                    64:9c:b9:36:e2:bd:09:ed:56:4c:32:6d:b7:8e:7c:
                    5d:ea:cf:84:76:3d:47:2c:b9:1d:3d:b3:62:f2:0e:
                    7f:1d
                Exponent: 65537 (0x10001)
        X509v3 extensions:
            X509v3 Basic Constraints: 
                CA:FALSE
            X509v3 Subject Key Identifier: 
                85:0C:6C:E8:46:03:B7:FA:51:B2:38:19:2C:D2:25:C3:E6:64:87:83
            X509v3 Authority Key Identifier: 
                keyid:1D:1E:B7:F0:CD:B4:06:CC:B3:63:F6:A1:66:9A:4E:4C:71:E2:EF:79
                DirName:/CN=team405-net
                serial:12:3E:4A:79:68:78:0C:59:18:90:D1:49:16:69:F0:FA:61:C2:E2:5B
            X509v3 Extended Key Usage: 
                TLS Web Client Authentication
            X509v3 Key Usage: 
                Digital Signature
    Signature Algorithm: sha256WithRSAEncryption
    Signature Value:
        61:c7:b4:72:22:cf:99:f7:57:55:2a:a0:06:b2:a1:f6:1c:a1:
        e0:63:e6:b8:45:7f:4e:08:93:17:31:be:0b:60:51:e3:e9:bb:
        22:f5:0d:2b:96:44:71:1b:27:f3:96:e7:5d:3d:54:73:0d:41:
        5b:53:34:b7:fc:3a:2e:7b:a4:7b:69:49:cb:64:95:26:e8:71:
        77:c5:9d:96:f3:3c:20:78:f7:35:e7:d0:b5:48:f7:57:b1:d5:
        97:59:6b:c5:fa:cc:97:77:8a:f7:83:c1:dd:5f:cc:79:e8:0a:
        84:26:bf:ab:87:88:5d:81:e9:fd:77:f3:d9:fb:38:38:69:a8:
        8d:60:95:2d:0e:c7:de:e6:e4:9f:1c:db:42:cd:df:ba:bf:43:
        09:4c:c9:52:1a:5b:56:91:04:8e:e7:3a:c0:8a:b4:44:e3:6a:
        f1:ef:6b:20:03:fe:4f:41:b9:41:64:f9:19:8a:51:5c:2d:97:
        2c:b7:8a:f8:67:01:da:32:19:43:e9:f5:7e:e1:f7:b5:29:a6:
        15:d5:e3:a2:b8:0a:f5:20:ea:21:0d:1b:5c:39:51:a5:d4:6d:
        4b:c8:36:83:cd:da:61:4b:c6:fe:30:5e:fe:03:ec:e6:2c:6e:
        1b:9b:9b:c3:9a:60:35:e7:6e:4a:ed:4c:b1:e5:95:7c:a4:aa:
        56:11:fe:f3
-----BEGIN CERTIFICATE-----
MIIDXDCCAkSgAwIBAgIQdDD0qpOH8MnZY0bUmjIkOjANBgkqhkiG9w0BAQsFADAW
MRQwEgYDVQQDDAt0ZWFtNDA1LW5ldDAeFw0yMzExMDQxMDQ3NTZaFw0yNjEwMTkx
MDQ3NTZaMBkxFzAVBgNVBAMMDnRlYW00MDUtY2xpZW50MIIBIjANBgkqhkiG9w0B
AQEFAAOCAQ8AMIIBCgKCAQEA3sPOP+SimGAd9BvIB+HZCjTFZj9RKcOviNqcREAA
cPmdr4349LrSUa6HpmG+CjNmK5U4TAOKtU/J9kkQUulRoy0blz2RT+hyNNM2VFeI
nzZ2MyPdRber4s/SNFA9ZG1Nsg0KDqsoGAZXjGh/TIw00Uh37+8PVdobKYAMpiM+
wQwDSYZcX1vz8M/dXmTxBmM9AE5aSwWplatOPKe5vSB/fuZ7uHCgQeRFYXLD1CH1
Fk8uGy5vptSevHu4d7duC5cuJ2xBFqKUfsdH0CymV5IMr27zHgFflYVblThmeuo9
ugpknLk24r0J7VZMMm23jnxd6s+Edj1HLLkdPbNi8g5/HQIDAQABo4GiMIGfMAkG
A1UdEwQCMAAwHQYDVR0OBBYEFIUMbOhGA7f6UbI4GSzSJcPmZIeDMFEGA1UdIwRK
MEiAFB0et/DNtAbMs2P2oWaaTkxx4u95oRqkGDAWMRQwEgYDVQQDDAt0ZWFtNDA1
LW5ldIIUEj5KeWh4DFkYkNFJFmnw+mHC4lswEwYDVR0lBAwwCgYIKwYBBQUHAwIw
CwYDVR0PBAQDAgeAMA0GCSqGSIb3DQEBCwUAA4IBAQBhx7RyIs+Z91dVKqAGsqH2
HKHgY+a4RX9OCJMXMb4LYFHj6bsi9Q0rlkRxGyfzluddPVRzDUFbUzS3/Doue6R7
aUnLZJUm6HF3xZ2W8zwgePc159C1SPdXsdWXWWvF+syXd4r3g8HdX8x56AqEJr+r
h4hdgen9d/PZ+zg4aaiNYJUtDsfe5uSfHNtCzd+6v0MJTMlSGltWkQSO5zrAirRE
42rx72sgA/5PQblBZPkZilFcLZcst4r4ZwHaMhlD6fV+4fe1KaYV1eOiuAr1IOoh
DRtcOVGl1G1LyDaDzdphS8b+MF7+A+zmLG4bm5vDmmA1525K7Uyx5ZV8pKpWEf7z
-----END CERTIFICATE-----
