Certificate:
    Data:
        Version: 3 (0x2)
        Serial Number:
            c9:46:5f:6e:4b:54:6e:09:c3:07:04:1e:1c:0a:1d:e9
        Signature Algorithm: sha256WithRSAEncryption
        Issuer: CN=team405-net
        Validity
            Not Before: Nov  3 20:46:34 2023 GMT
            Not After : Oct 18 20:46:34 2026 GMT
        Subject: CN=team405-server
        Subject Public Key Info:
            Public Key Algorithm: rsaEncryption
                Public-Key: (2048 bit)
                Modulus:
                    00:d1:03:ef:a3:8a:a5:08:27:e5:c9:a6:ab:29:00:
                    f8:e0:dd:0d:dd:a7:2d:81:02:6c:5e:32:72:1e:8b:
                    ff:73:29:d4:2d:68:20:04:a5:c0:95:2b:2f:4e:9a:
                    a0:52:8b:e0:95:f2:2f:6e:1d:16:79:80:d1:40:4f:
                    22:de:ba:3b:c0:fd:88:db:06:cb:22:4a:c6:c3:a4:
                    ee:87:41:15:06:8e:5b:f1:07:62:e6:9b:45:67:e0:
                    e5:a7:61:f2:fa:e8:a5:6a:c4:78:57:c3:13:f7:cc:
                    d8:9d:95:24:c8:d1:7c:7d:30:68:47:e0:eb:50:fc:
                    5a:68:75:cd:37:39:9c:f2:a2:06:dc:d9:51:6b:43:
                    2d:75:08:ab:c4:01:d6:5a:48:7a:6c:83:33:14:2c:
                    bb:17:76:6d:b3:4a:11:40:93:0b:82:7a:18:ea:31:
                    53:d5:ad:f2:71:3e:a2:66:b2:fc:bf:93:41:0d:f8:
                    80:d4:27:45:d3:e9:91:57:39:3f:1e:5b:0f:a3:97:
                    ed:98:46:b4:14:de:44:e5:53:ce:ca:48:e1:40:c5:
                    cc:f4:e3:97:be:6e:47:51:c4:cf:16:25:e5:ae:9c:
                    dd:42:1a:0c:d6:ef:72:43:79:54:02:81:31:9c:f4:
                    69:9e:18:37:dc:a9:82:9e:03:ad:71:67:ac:63:62:
                    f4:b5
                Exponent: 65537 (0x10001)
        X509v3 extensions:
            X509v3 Basic Constraints: 
                CA:FALSE
            X509v3 Subject Key Identifier: 
                03:91:09:B6:73:B9:73:15:56:D3:D3:99:A9:B8:E2:96:C2:0E:87:D2
            X509v3 Authority Key Identifier: 
                keyid:74:4D:A3:A4:A8:BB:6E:8B:35:98:49:C3:61:AA:BF:49:90:E9:00:CA
                DirName:/CN=team405-net
                serial:77:5D:FC:04:B0:2F:80:0E:B3:94:9F:14:33:21:80:FC:99:CD:91:D4
            X509v3 Extended Key Usage: 
                TLS Web Server Authentication
            X509v3 Key Usage: 
                Digital Signature, Key Encipherment
            X509v3 Subject Alternative Name: 
                DNS:team405-server
    Signature Algorithm: sha256WithRSAEncryption
    Signature Value:
        50:8e:8d:4c:6a:f3:cc:db:74:bd:fb:53:d3:a8:35:6f:c4:2c:
        02:cc:7f:b4:e9:50:1f:ca:5d:94:cc:b2:b3:4a:67:37:c2:38:
        7c:90:f9:cf:ec:b9:5b:8b:90:00:ca:7d:3e:f9:83:a2:1e:f2:
        65:5e:5e:cc:29:6d:14:99:63:c2:3a:87:89:2f:84:52:19:e5:
        f7:d2:18:51:73:ef:cf:1f:cd:f8:18:d7:33:e9:ef:24:2b:df:
        7e:61:20:a4:01:55:df:e8:76:3b:07:5a:69:59:f1:fa:2b:4b:
        8e:d7:66:96:21:9d:34:e5:1c:11:70:e5:43:8d:40:dc:a6:b1:
        d5:b5:aa:ae:64:9c:bd:e7:17:ac:68:67:f1:62:b6:77:ad:21:
        78:20:d9:fb:9e:24:31:0c:23:bb:36:7b:46:12:6f:84:f8:cc:
        a5:af:c5:f9:5a:67:d4:4b:a7:05:85:7d:09:7b:91:8f:25:61:
        b4:e3:07:3d:03:9f:84:f8:4b:ef:8c:7d:4f:01:19:d0:1b:7a:
        45:36:8a:77:ca:26:a6:30:13:b4:91:f3:94:ca:55:c4:07:dd:
        47:4b:43:e6:ee:6e:b1:8d:49:d1:ce:17:99:ca:a6:04:e1:99:
        4b:50:f7:fe:3f:44:4a:15:e3:6b:1e:7d:8a:de:12:a0:7a:96:
        55:31:ba:75
-----BEGIN CERTIFICATE-----
MIIDeDCCAmCgAwIBAgIRAMlGX25LVG4JwwcEHhwKHekwDQYJKoZIhvcNAQELBQAw
FjEUMBIGA1UEAwwLdGVhbTQwNS1uZXQwHhcNMjMxMTAzMjA0NjM0WhcNMjYxMDE4
MjA0NjM0WjAZMRcwFQYDVQQDDA50ZWFtNDA1LXNlcnZlcjCCASIwDQYJKoZIhvcN
AQEBBQADggEPADCCAQoCggEBANED76OKpQgn5cmmqykA+ODdDd2nLYECbF4ych6L
/3Mp1C1oIASlwJUrL06aoFKL4JXyL24dFnmA0UBPIt66O8D9iNsGyyJKxsOk7odB
FQaOW/EHYuabRWfg5adh8vropWrEeFfDE/fM2J2VJMjRfH0waEfg61D8Wmh1zTc5
nPKiBtzZUWtDLXUIq8QB1lpIemyDMxQsuxd2bbNKEUCTC4J6GOoxU9Wt8nE+omay
/L+TQQ34gNQnRdPpkVc5Px5bD6OX7ZhGtBTeROVTzspI4UDFzPTjl75uR1HEzxYl
5a6c3UIaDNbvckN5VAKBMZz0aZ4YN9ypgp4DrXFnrGNi9LUCAwEAAaOBvTCBujAJ
BgNVHRMEAjAAMB0GA1UdDgQWBBQDkQm2c7lzFVbT05mpuOKWwg6H0jBRBgNVHSME
SjBIgBR0TaOkqLtuizWYScNhqr9JkOkAyqEapBgwFjEUMBIGA1UEAwwLdGVhbTQw
NS1uZXSCFHdd/ASwL4AOs5SfFDMhgPyZzZHUMBMGA1UdJQQMMAoGCCsGAQUFBwMB
MAsGA1UdDwQEAwIFoDAZBgNVHREEEjAQgg50ZWFtNDA1LXNlcnZlcjANBgkqhkiG
9w0BAQsFAAOCAQEAUI6NTGrzzNt0vftT06g1b8QsAsx/tOlQH8pdlMyys0pnN8I4
fJD5z+y5W4uQAMp9PvmDoh7yZV5ezCltFJljwjqHiS+EUhnl99IYUXPvzx/N+BjX
M+nvJCvffmEgpAFV3+h2OwdaaVnx+itLjtdmliGdNOUcEXDlQ41A3Kax1bWqrmSc
vecXrGhn8WK2d60heCDZ+54kMQwjuzZ7RhJvhPjMpa/F+Vpn1EunBYV9CXuRjyVh
tOMHPQOfhPhL74x9TwEZ0Bt6RTaKd8ompjATtJHzlMpVxAfdR0tD5u5usY1J0c4X
mcqmBOGZS1D3/j9EShXjax59it4SoHqWVTG6dQ==
-----END CERTIFICATE-----
