Certificate:
    Data:
        Version: 3 (0x2)
        Serial Number:
            84:ac:e1:e9:d9:c2:8f:a5:85:e9:ca:1a:67:66:8a:27
        Signature Algorithm: sha256WithRSAEncryption
        Issuer: CN=team417-net
        Validity
            Not Before: Nov  4 10:48:09 2023 GMT
            Not After : Oct 19 10:48:09 2026 GMT
        Subject: CN=team417-server
        Subject Public Key Info:
            Public Key Algorithm: rsaEncryption
                Public-Key: (2048 bit)
                Modulus:
                    00:89:a7:19:dc:f1:ae:b0:39:96:73:5b:cd:f1:52:
                    34:c3:a8:29:98:31:57:f9:85:36:1b:8d:3b:d7:4e:
                    2e:43:e7:26:3f:f7:21:3f:03:46:2a:f7:e0:d2:3b:
                    ca:f2:21:d4:fc:be:2a:fb:fb:c9:3d:f1:c8:34:34:
                    03:35:67:c9:7a:b4:e2:91:d1:80:30:f4:16:e0:e3:
                    a1:87:89:42:bf:89:86:36:d7:48:7d:bc:ec:58:a1:
                    ad:a9:17:bf:d6:cf:25:71:ce:10:c6:4a:6a:2d:de:
                    e5:79:0f:33:15:a7:ca:e0:ac:cf:3e:58:9d:9b:a1:
                    b7:3e:c0:0d:13:ae:af:8c:39:16:5a:be:a8:64:34:
                    21:68:1e:b5:34:34:16:22:27:69:aa:79:12:c6:51:
                    d8:1c:53:0f:22:1c:2a:cf:91:f0:89:8c:8f:55:f2:
                    3f:a0:4e:ce:04:10:78:18:82:55:49:26:c8:5e:31:
                    92:81:48:28:aa:e4:a3:7a:e2:ca:e4:be:46:aa:f1:
                    17:19:9e:ea:30:3b:f1:e8:36:e1:da:82:d6:7d:14:
                    73:6e:25:55:50:fd:d9:07:d9:c4:1f:dc:47:d2:1c:
                    cd:6b:aa:ee:7c:f7:e3:ed:49:ee:e6:39:90:f3:a2:
                    04:b1:b2:ad:44:ff:f5:3c:2f:59:79:ec:83:a6:68:
                    ce:17
                Exponent: 65537 (0x10001)
        X509v3 extensions:
            X509v3 Basic Constraints: 
                CA:FALSE
            X509v3 Subject Key Identifier: 
                46:B2:A8:A5:5B:6A:37:50:23:2D:59:6B:6A:08:2F:DD:88:9A:C9:ED
            X509v3 Authority Key Identifier: 
                keyid:A2:F7:AB:41:DA:04:1F:42:E8:E0:B8:24:77:33:35:27:01:3D:AA:89
                DirName:/CN=team417-net
                serial:4C:FA:B8:D6:B2:39:08:2C:3C:4A:1D:BF:6A:F7:CA:93:41:64:06:9B
            X509v3 Extended Key Usage: 
                TLS Web Server Authentication
            X509v3 Key Usage: 
                Digital Signature, Key Encipherment
            X509v3 Subject Alternative Name: 
                DNS:team417-server
    Signature Algorithm: sha256WithRSAEncryption
    Signature Value:
        56:9e:fb:5b:75:66:3a:a0:84:2d:4c:c5:d0:b3:1f:e3:cb:ce:
        d7:f2:3a:5b:0d:87:02:50:2a:e0:68:6a:cc:57:22:76:0e:60:
        a6:24:fe:23:37:2e:be:8c:ee:6f:d6:b3:ab:bf:b5:b8:bc:fa:
        52:d8:31:a3:d3:2d:81:2a:68:7a:8b:66:15:8b:00:81:37:8f:
        f7:b5:11:c7:75:6a:fa:a8:14:e5:72:0e:8b:10:1f:27:bb:e8:
        61:f6:50:08:03:cf:ce:62:b7:89:ee:a7:a8:99:4b:75:0e:76:
        20:ea:2b:59:17:da:b6:35:7c:3c:5c:11:36:1c:ac:64:50:77:
        7c:a3:96:62:7c:2c:ef:6f:95:de:2b:b4:ba:99:80:fe:8b:5d:
        17:cb:2c:89:9e:c2:45:3d:b9:e0:70:c2:0f:76:52:61:2c:87:
        f0:83:5d:31:60:23:f7:3c:ca:02:f2:68:1b:8f:2a:2d:ad:3f:
        67:de:53:9e:45:83:e5:60:7b:a0:89:37:9a:b4:d1:df:33:4e:
        23:2a:c9:0a:3b:6a:d7:6b:bc:fa:5a:b3:04:4f:d3:aa:9e:f0:
        c1:b9:fa:85:17:43:3f:a1:ff:d4:1d:5d:b4:d6:d4:62:9b:dc:
        dc:b5:39:d6:ae:7b:24:0f:49:31:44:86:32:37:a1:17:6a:a5:
        23:76:bb:a1
-----BEGIN CERTIFICATE-----
MIIDeDCCAmCgAwIBAgIRAISs4enZwo+lhenKGmdmiicwDQYJKoZIhvcNAQELBQAw
FjEUMBIGA1UEAwwLdGVhbTQxNy1uZXQwHhcNMjMxMTA0MTA0ODA5WhcNMjYxMDE5
MTA0ODA5WjAZMRcwFQYDVQQDDA50ZWFtNDE3LXNlcnZlcjCCASIwDQYJKoZIhvcN
AQEBBQADggEPADCCAQoCggEBAImnGdzxrrA5lnNbzfFSNMOoKZgxV/mFNhuNO9dO
LkPnJj/3IT8DRir34NI7yvIh1Py+Kvv7yT3xyDQ0AzVnyXq04pHRgDD0FuDjoYeJ
Qr+JhjbXSH287FihrakXv9bPJXHOEMZKai3e5XkPMxWnyuCszz5YnZuhtz7ADROu
r4w5Flq+qGQ0IWgetTQ0FiInaap5EsZR2BxTDyIcKs+R8ImMj1XyP6BOzgQQeBiC
VUkmyF4xkoFIKKrko3riyuS+RqrxFxme6jA78eg24dqC1n0Uc24lVVD92QfZxB/c
R9IczWuq7nz34+1J7uY5kPOiBLGyrUT/9TwvWXnsg6ZozhcCAwEAAaOBvTCBujAJ
BgNVHRMEAjAAMB0GA1UdDgQWBBRGsqilW2o3UCMtWWtqCC/diJrJ7TBRBgNVHSME
SjBIgBSi96tB2gQfQujguCR3MzUnAT2qiaEapBgwFjEUMBIGA1UEAwwLdGVhbTQx
Ny1uZXSCFEz6uNayOQgsPEodv2r3ypNBZAabMBMGA1UdJQQMMAoGCCsGAQUFBwMB
MAsGA1UdDwQEAwIFoDAZBgNVHREEEjAQgg50ZWFtNDE3LXNlcnZlcjANBgkqhkiG
9w0BAQsFAAOCAQEAVp77W3VmOqCELUzF0LMf48vO1/I6Ww2HAlAq4GhqzFcidg5g
piT+Izcuvozub9azq7+1uLz6Utgxo9MtgSpoeotmFYsAgTeP97URx3Vq+qgU5XIO
ixAfJ7voYfZQCAPPzmK3ie6nqJlLdQ52IOorWRfatjV8PFwRNhysZFB3fKOWYnws
72+V3iu0upmA/otdF8ssiZ7CRT254HDCD3ZSYSyH8INdMWAj9zzKAvJoG48qLa0/
Z95TnkWD5WB7oIk3mrTR3zNOIyrJCjtq12u8+lqzBE/Tqp7wwbn6hRdDP6H/1B1d
tNbUYpvc3LU51q57JA9JMUSGMjehF2qlI3a7oQ==
-----END CERTIFICATE-----
