Certificate:
    Data:
        Version: 3 (0x2)
        Serial Number:
            ef:39:cd:8f:96:8e:f8:1c:19:99:f0:a5:dd:2b:e6:7d
        Signature Algorithm: sha256WithRSAEncryption
        Issuer: CN=team417-net
        Validity
            Not Before: Nov  4 10:48:08 2023 GMT
            Not After : Oct 19 10:48:08 2026 GMT
        Subject: CN=team417-client
        Subject Public Key Info:
            Public Key Algorithm: rsaEncryption
                Public-Key: (2048 bit)
                Modulus:
                    00:ea:80:67:8a:b8:39:f2:6c:e0:33:7c:e6:1d:ef:
                    e5:fe:f3:17:16:7f:b9:57:d7:80:73:47:dc:24:62:
                    87:de:29:79:f4:f6:e5:64:ce:69:10:ea:b0:81:ca:
                    d8:3b:cc:04:04:cc:cf:ef:69:b3:a0:03:c5:04:d2:
                    7d:9b:45:bb:68:6f:76:1e:5a:21:bb:3c:5f:b3:c1:
                    8d:76:f8:fa:5d:ee:c8:5a:bf:07:1c:aa:41:b0:c8:
                    56:56:f7:ff:78:84:58:73:3a:44:de:91:50:bb:92:
                    e5:42:83:ef:58:ca:73:11:d2:d8:00:9b:9d:67:dc:
                    bc:f2:3e:a5:f0:9d:16:35:a3:87:22:22:22:77:e1:
                    43:45:80:e3:94:a9:d9:a0:d3:74:f6:91:f1:19:2a:
                    a0:6b:a0:3c:28:35:a4:76:43:f7:f3:59:f9:82:9e:
                    ad:53:62:79:d0:d6:4a:8c:4c:7e:29:59:e0:bf:78:
                    cd:76:64:90:e2:0b:87:40:6d:84:35:1e:40:f0:46:
                    d6:75:c5:43:27:1b:27:29:24:b9:4f:6e:26:94:66:
                    c9:dc:7a:14:9b:97:32:35:43:ab:b8:9b:74:de:af:
                    3e:60:80:58:ba:3c:1f:b3:be:a3:b7:c3:54:24:ed:
                    1e:f7:7f:61:9a:4f:95:a9:3f:1c:ec:6d:91:2f:5a:
                    1b:c7
                Exponent: 65537 (0x10001)
        X509v3 extensions:
            X509v3 Basic Constraints: 
                CA:FALSE
            X509v3 Subject Key Identifier: 
                DC:30:B0:40:73:1D:CD:08:67:D6:16:4E:66:6A:6A:5E:92:F5:F0:01
            X509v3 Authority Key Identifier: 
                keyid:A2:F7:AB:41:DA:04:1F:42:E8:E0:B8:24:77:33:35:27:01:3D:AA:89
                DirName:/CN=team417-net
                serial:4C:FA:B8:D6:B2:39:08:2C:3C:4A:1D:BF:6A:F7:CA:93:41:64:06:9B
            X509v3 Extended Key Usage: 
                TLS Web Client Authentication
            X509v3 Key Usage: 
                Digital Signature
    Signature Algorithm: sha256WithRSAEncryption
    Signature Value:
        05:c2:63:55:67:04:03:37:dd:95:6f:ef:5d:66:73:43:32:cb:
        06:5b:e3:62:a2:16:2f:68:21:a0:af:29:b8:e6:b8:40:e7:c3:
        7f:b2:82:c1:ab:2e:1c:53:6f:01:e7:fc:ec:74:4c:a9:bc:c8:
        97:d8:0a:28:c8:45:3a:e3:de:97:45:a6:41:a1:6c:78:9d:91:
        0f:94:ec:6a:06:5f:9c:00:ff:60:2f:76:30:c4:e1:11:73:56:
        ce:9c:b8:51:2e:a2:32:0b:85:88:bc:09:87:f6:7d:86:d1:5d:
        eb:ee:8e:c6:1b:28:ab:a4:41:17:30:ab:a5:24:08:84:b8:d9:
        bc:26:c4:4b:6e:9c:42:38:98:5b:ae:10:ba:82:87:6b:1d:bf:
        04:50:52:7b:e1:07:6f:17:73:28:06:23:93:ba:0b:ea:d0:b5:
        fb:81:5d:1f:5a:1a:4b:82:03:b6:c8:79:a6:8e:69:1f:0d:64:
        2c:20:d0:93:f8:81:57:b2:eb:e2:88:08:36:c5:73:86:8b:d0:
        d2:ee:56:41:8a:65:f2:b6:c1:f5:df:00:fe:7b:70:49:bb:e1:
        47:7f:fb:e2:c9:87:84:b0:dc:cc:24:bb:72:f8:4d:40:9a:39:
        45:23:7c:4c:3a:3c:0c:65:6e:9a:ae:c9:64:51:7f:54:cb:51:
        e8:9a:52:52
-----BEGIN CERTIFICATE-----
MIIDXTCCAkWgAwIBAgIRAO85zY+WjvgcGZnwpd0r5n0wDQYJKoZIhvcNAQELBQAw
FjEUMBIGA1UEAwwLdGVhbTQxNy1uZXQwHhcNMjMxMTA0MTA0ODA4WhcNMjYxMDE5
MTA0ODA4WjAZMRcwFQYDVQQDDA50ZWFtNDE3LWNsaWVudDCCASIwDQYJKoZIhvcN
AQEBBQADggEPADCCAQoCggEBAOqAZ4q4OfJs4DN85h3v5f7zFxZ/uVfXgHNH3CRi
h94pefT25WTOaRDqsIHK2DvMBATMz+9ps6ADxQTSfZtFu2hvdh5aIbs8X7PBjXb4
+l3uyFq/BxyqQbDIVlb3/3iEWHM6RN6RULuS5UKD71jKcxHS2ACbnWfcvPI+pfCd
FjWjhyIiInfhQ0WA45Sp2aDTdPaR8RkqoGugPCg1pHZD9/NZ+YKerVNiedDWSoxM
filZ4L94zXZkkOILh0BthDUeQPBG1nXFQycbJykkuU9uJpRmydx6FJuXMjVDq7ib
dN6vPmCAWLo8H7O+o7fDVCTtHvd/YZpPlak/HOxtkS9aG8cCAwEAAaOBojCBnzAJ
BgNVHRMEAjAAMB0GA1UdDgQWBBTcMLBAcx3NCGfWFk5mampekvXwATBRBgNVHSME
SjBIgBSi96tB2gQfQujguCR3MzUnAT2qiaEapBgwFjEUMBIGA1UEAwwLdGVhbTQx
Ny1uZXSCFEz6uNayOQgsPEodv2r3ypNBZAabMBMGA1UdJQQMMAoGCCsGAQUFBwMC
MAsGA1UdDwQEAwIHgDANBgkqhkiG9w0BAQsFAAOCAQEABcJjVWcEAzfdlW/vXWZz
QzLLBlvjYqIWL2ghoK8puOa4QOfDf7KCwasuHFNvAef87HRMqbzIl9gKKMhFOuPe
l0WmQaFseJ2RD5TsagZfnAD/YC92MMThEXNWzpy4US6iMguFiLwJh/Z9htFd6+6O
xhsoq6RBFzCrpSQIhLjZvCbES26cQjiYW64QuoKHax2/BFBSe+EHbxdzKAYjk7oL
6tC1+4FdH1oaS4IDtsh5po5pHw1kLCDQk/iBV7Lr4ogINsVzhovQ0u5WQYpl8rbB
9d8A/ntwSbvhR3/74smHhLDczCS7cvhNQJo5RSN8TDo8DGVumq7JZFF/VMtR6JpS
Ug==
-----END CERTIFICATE-----
