Certificate:
    Data:
        Version: 3 (0x2)
        Serial Number:
            1c:ff:b6:71:f2:4d:d2:7e:41:91:40:68:90:d7:73:25
        Signature Algorithm: sha256WithRSAEncryption
        Issuer: CN=team468-net
        Validity
            Not Before: Nov  3 20:47:47 2023 GMT
            Not After : Oct 18 20:47:47 2026 GMT
        Subject: CN=team468-client
        Subject Public Key Info:
            Public Key Algorithm: rsaEncryption
                Public-Key: (2048 bit)
                Modulus:
                    00:d4:35:91:13:43:e8:22:9c:c6:ba:61:7c:dc:53:
                    e6:f5:26:95:44:72:fc:64:f8:d5:12:dc:f0:d3:66:
                    6f:f3:c8:60:81:08:4f:4b:0c:b3:02:0b:2d:9b:52:
                    50:d6:f0:dc:a1:1c:af:c7:32:c5:f3:8d:4b:7a:d7:
                    72:51:69:a0:a5:fd:e0:a2:2c:d2:f8:3e:10:1b:50:
                    dd:12:a7:f9:1c:3f:c6:14:6b:74:af:c4:13:d4:38:
                    f0:96:d6:56:f8:9e:37:e5:34:a4:33:b0:7b:10:af:
                    07:9f:91:25:ad:a9:8c:c6:fa:34:2f:3a:89:d8:d3:
                    bf:78:02:a8:0b:fd:a9:b4:88:1c:38:f8:03:aa:57:
                    8c:bd:e6:cf:0d:2d:a8:14:04:54:be:ab:51:8c:92:
                    d6:2e:f0:02:50:e8:a2:5a:53:c9:53:b0:ff:1b:f1:
                    53:d6:80:69:80:14:39:08:73:d2:79:12:f5:b7:d5:
                    99:89:c0:3a:a4:52:26:65:51:19:d8:ad:98:98:ff:
                    23:69:03:e5:57:b8:29:e0:4c:eb:7a:a2:7a:27:f0:
                    1b:70:41:7d:26:2d:39:fe:ad:11:cf:c0:f2:12:e1:
                    3f:57:f7:fa:97:ae:e9:8e:84:18:30:01:62:88:73:
                    3d:6c:11:b4:5c:20:dc:97:6a:c8:3c:0e:14:6c:27:
                    02:bb
                Exponent: 65537 (0x10001)
        X509v3 extensions:
            X509v3 Basic Constraints: 
                CA:FALSE
            X509v3 Subject Key Identifier: 
                51:3F:01:26:96:EE:BD:CF:C8:E8:27:5F:21:14:9C:48:C5:A0:BF:10
            X509v3 Authority Key Identifier: 
                keyid:FE:DE:D6:A3:9F:A1:07:97:52:DC:7B:C9:8E:25:42:AF:37:39:1D:30
                DirName:/CN=team468-net
                serial:0A:4B:59:E7:1E:C9:29:18:E1:B5:A7:EB:E0:BB:FB:52:7D:E1:04:E4
            X509v3 Extended Key Usage: 
                TLS Web Client Authentication
            X509v3 Key Usage: 
                Digital Signature
    Signature Algorithm: sha256WithRSAEncryption
    Signature Value:
        41:4d:8c:e9:64:3b:53:84:c3:7f:81:2b:a4:42:ea:2d:12:02:
        34:ed:31:c1:73:05:19:62:bf:a0:8b:b5:6b:4c:5e:74:2b:fc:
        1a:8c:bc:aa:96:f2:1c:39:23:8c:07:d5:13:73:51:09:77:f8:
        7d:c7:61:e8:27:df:a8:89:17:0f:b0:25:2c:a5:16:91:68:dc:
        a8:d1:f9:93:48:ff:6e:cb:b2:e1:32:c3:c5:61:a8:56:2c:c1:
        ac:6e:7d:1b:83:1c:a5:41:68:0b:4b:25:30:96:3a:93:f9:7a:
        bf:ec:c3:91:aa:82:b2:86:d8:92:8d:08:24:43:ed:17:ff:cb:
        3f:85:b7:1c:00:77:ce:08:b0:70:57:09:04:1c:c8:f5:8d:32:
        a0:e2:b0:e1:be:c1:1f:99:b6:fd:9c:5b:c9:db:31:3d:a6:3c:
        75:ea:9a:bb:04:4a:70:28:73:f3:11:79:5b:d6:9d:35:49:31:
        78:4f:23:93:68:e0:a0:6d:0e:f4:71:4f:fa:3c:f5:80:25:24:
        82:a8:42:5a:a3:94:36:b5:7e:0b:b5:12:72:09:e7:b8:ff:12:
        4b:00:33:f0:49:8d:d6:21:5e:47:00:70:b9:75:83:29:97:95:
        70:a6:78:4f:40:2c:ed:18:9d:a7:84:a4:57:ab:b5:4d:07:33:
        09:b3:27:44
-----BEGIN CERTIFICATE-----
MIIDXDCCAkSgAwIBAgIQHP+2cfJN0n5BkUBokNdzJTANBgkqhkiG9w0BAQsFADAW
MRQwEgYDVQQDDAt0ZWFtNDY4LW5ldDAeFw0yMzExMDMyMDQ3NDdaFw0yNjEwMTgy
MDQ3NDdaMBkxFzAVBgNVBAMMDnRlYW00NjgtY2xpZW50MIIBIjANBgkqhkiG9w0B
AQEFAAOCAQ8AMIIBCgKCAQEA1DWRE0PoIpzGumF83FPm9SaVRHL8ZPjVEtzw02Zv
88hggQhPSwyzAgstm1JQ1vDcoRyvxzLF841LetdyUWmgpf3goizS+D4QG1DdEqf5
HD/GFGt0r8QT1DjwltZW+J435TSkM7B7EK8Hn5ElramMxvo0LzqJ2NO/eAKoC/2p
tIgcOPgDqleMvebPDS2oFARUvqtRjJLWLvACUOiiWlPJU7D/G/FT1oBpgBQ5CHPS
eRL1t9WZicA6pFImZVEZ2K2YmP8jaQPlV7gp4EzreqJ6J/AbcEF9Ji05/q0Rz8Dy
EuE/V/f6l67pjoQYMAFiiHM9bBG0XCDcl2rIPA4UbCcCuwIDAQABo4GiMIGfMAkG
A1UdEwQCMAAwHQYDVR0OBBYEFFE/ASaW7r3PyOgnXyEUnEjFoL8QMFEGA1UdIwRK
MEiAFP7e1qOfoQeXUtx7yY4lQq83OR0woRqkGDAWMRQwEgYDVQQDDAt0ZWFtNDY4
LW5ldIIUCktZ5x7JKRjhtafr4Lv7Un3hBOQwEwYDVR0lBAwwCgYIKwYBBQUHAwIw
CwYDVR0PBAQDAgeAMA0GCSqGSIb3DQEBCwUAA4IBAQBBTYzpZDtThMN/gSukQuot
EgI07THBcwUZYr+gi7VrTF50K/wajLyqlvIcOSOMB9UTc1EJd/h9x2HoJ9+oiRcP
sCUspRaRaNyo0fmTSP9uy7LhMsPFYahWLMGsbn0bgxylQWgLSyUwljqT+Xq/7MOR
qoKyhtiSjQgkQ+0X/8s/hbccAHfOCLBwVwkEHMj1jTKg4rDhvsEfmbb9nFvJ2zE9
pjx16pq7BEpwKHPzEXlb1p01STF4TyOTaOCgbQ70cU/6PPWAJSSCqEJao5Q2tX4L
tRJyCee4/xJLADPwSY3WIV5HAHC5dYMpl5VwpnhPQCztGJ2nhKRXq7VNBzMJsydE
-----END CERTIFICATE-----
