Certificate:
    Data:
        Version: 3 (0x2)
        Serial Number:
            7e:60:79:c6:41:82:43:ac:cf:59:6b:8d:64:64:a0:a2
        Signature Algorithm: sha256WithRSAEncryption
        Issuer: CN=team468-net
        Validity
            Not Before: Nov  4 11:38:06 2023 GMT
            Not After : Oct 19 11:38:06 2026 GMT
        Subject: CN=team468-client
        Subject Public Key Info:
            Public Key Algorithm: rsaEncryption
                Public-Key: (2048 bit)
                Modulus:
                    00:da:97:c7:a2:24:d2:81:5a:43:9f:49:5c:41:a1:
                    82:fb:9f:7f:63:f8:8e:af:6a:b9:02:f6:4f:31:d7:
                    93:74:80:ec:29:f9:d3:e5:4e:d7:46:fc:6d:dd:5e:
                    a4:df:d2:bc:15:6a:95:bc:b4:c6:80:48:b1:6c:8e:
                    ea:b8:52:bd:16:f1:0e:2e:e7:0c:29:e8:66:b4:5f:
                    b6:42:5c:da:2e:fd:7c:24:ba:5c:c0:86:cb:7b:7b:
                    13:ab:11:b3:85:0f:16:27:b4:24:0a:34:b5:c1:a5:
                    4e:a0:e1:33:45:f8:08:d7:53:60:29:b0:2f:3c:85:
                    c1:6f:ec:b6:29:c0:97:3c:e4:bc:cd:c7:47:f6:a1:
                    75:5d:82:89:5e:67:a1:bc:73:7c:ad:ff:a1:20:e2:
                    3a:2f:bf:9d:bd:16:6f:aa:17:4f:e3:ca:59:ba:be:
                    58:91:f6:f5:79:30:51:f7:24:1a:7d:2b:34:47:93:
                    f7:11:69:a2:47:c0:3f:c4:56:e2:ec:0f:c7:27:81:
                    04:3c:92:24:3b:52:69:b8:7d:f6:f6:bd:d3:0e:d8:
                    ef:5c:8b:bf:fb:94:52:72:72:f7:42:b9:80:b6:8b:
                    24:ea:00:bf:6f:3e:4d:48:5e:b8:6f:f6:e3:12:56:
                    72:7e:81:5b:ac:92:84:ad:de:65:85:5c:11:05:0d:
                    e8:c5
                Exponent: 65537 (0x10001)
        X509v3 extensions:
            X509v3 Basic Constraints: 
                CA:FALSE
            X509v3 Subject Key Identifier: 
                9C:19:0A:1D:99:6A:C4:10:24:B1:BE:57:29:AC:8F:23:EE:60:2B:D2
            X509v3 Authority Key Identifier: 
                keyid:D7:18:B5:40:BB:A3:F3:A9:39:32:82:0C:C5:B4:4F:1C:74:1D:2D:CB
                DirName:/CN=team468-net
                serial:0E:0F:C1:9B:65:66:C6:11:C9:9F:E7:4A:82:5F:27:0A:02:DA:10:AE
            X509v3 Extended Key Usage: 
                TLS Web Client Authentication
            X509v3 Key Usage: 
                Digital Signature
    Signature Algorithm: sha256WithRSAEncryption
    Signature Value:
        63:ff:f0:a8:85:81:2f:ff:21:91:f2:06:0d:b5:0b:d4:1b:80:
        1d:49:53:c4:67:f7:1e:90:66:87:1b:12:b7:7d:25:fb:1e:62:
        8e:06:e0:5c:05:da:a5:64:84:22:cc:f6:fb:6e:41:a7:97:af:
        b3:50:9f:63:1e:0a:e4:27:d7:05:f1:91:8c:23:f4:79:31:e0:
        11:69:c3:1e:15:0d:f3:9f:1b:19:95:8f:fa:ec:15:d9:da:f6:
        ea:d1:79:4e:28:58:a3:9b:e4:b2:7c:60:ec:e5:f9:ee:20:36:
        6c:dc:b9:e3:63:51:7d:6d:4f:6d:63:36:c4:cb:be:9d:25:1b:
        41:40:bd:01:d7:f8:75:14:1b:bd:71:a5:72:2b:3a:38:f7:99:
        d8:d1:6b:2d:13:5f:95:21:f0:b3:0e:dd:8b:4c:4d:80:2e:97:
        85:5a:a9:81:23:0b:28:ed:cd:93:f5:24:c7:8e:ed:26:22:90:
        0a:1a:8f:c1:44:9e:19:46:8d:7f:9f:bb:ba:9a:da:7b:4d:68:
        1b:63:d2:df:99:1e:f9:19:2a:57:7a:ac:90:07:87:91:c4:1f:
        b7:f5:ee:cd:8e:81:7d:85:a3:7a:d3:d3:c7:0f:7f:5b:92:64:
        8c:f0:a6:f6:0e:42:3c:c3:1c:d8:7f:b7:55:19:ae:65:6e:4d:
        f8:42:e8:6f
-----BEGIN CERTIFICATE-----
MIIDXDCCAkSgAwIBAgIQfmB5xkGCQ6zPWWuNZGSgojANBgkqhkiG9w0BAQsFADAW
MRQwEgYDVQQDDAt0ZWFtNDY4LW5ldDAeFw0yMzExMDQxMTM4MDZaFw0yNjEwMTkx
MTM4MDZaMBkxFzAVBgNVBAMMDnRlYW00NjgtY2xpZW50MIIBIjANBgkqhkiG9w0B
AQEFAAOCAQ8AMIIBCgKCAQEA2pfHoiTSgVpDn0lcQaGC+59/Y/iOr2q5AvZPMdeT
dIDsKfnT5U7XRvxt3V6k39K8FWqVvLTGgEixbI7quFK9FvEOLucMKehmtF+2Qlza
Lv18JLpcwIbLe3sTqxGzhQ8WJ7QkCjS1waVOoOEzRfgI11NgKbAvPIXBb+y2KcCX
POS8zcdH9qF1XYKJXmehvHN8rf+hIOI6L7+dvRZvqhdP48pZur5Ykfb1eTBR9yQa
fSs0R5P3EWmiR8A/xFbi7A/HJ4EEPJIkO1JpuH329r3TDtjvXIu/+5RScnL3QrmA
tosk6gC/bz5NSF64b/bjElZyfoFbrJKErd5lhVwRBQ3oxQIDAQABo4GiMIGfMAkG
A1UdEwQCMAAwHQYDVR0OBBYEFJwZCh2ZasQQJLG+VymsjyPuYCvSMFEGA1UdIwRK
MEiAFNcYtUC7o/OpOTKCDMW0Txx0HS3LoRqkGDAWMRQwEgYDVQQDDAt0ZWFtNDY4
LW5ldIIUDg/Bm2VmxhHJn+dKgl8nCgLaEK4wEwYDVR0lBAwwCgYIKwYBBQUHAwIw
CwYDVR0PBAQDAgeAMA0GCSqGSIb3DQEBCwUAA4IBAQBj//CohYEv/yGR8gYNtQvU
G4AdSVPEZ/cekGaHGxK3fSX7HmKOBuBcBdqlZIQizPb7bkGnl6+zUJ9jHgrkJ9cF
8ZGMI/R5MeARacMeFQ3znxsZlY/67BXZ2vbq0XlOKFijm+SyfGDs5fnuIDZs3Lnj
Y1F9bU9tYzbEy76dJRtBQL0B1/h1FBu9caVyKzo495nY0WstE1+VIfCzDt2LTE2A
LpeFWqmBIwso7c2T9STHju0mIpAKGo/BRJ4ZRo1/n7u6mtp7TWgbY9LfmR75GSpX
eqyQB4eRxB+39e7NjoF9haN609PHD39bkmSM8Kb2DkI8wxzYf7dVGa5lbk34Quhv
-----END CERTIFICATE-----
