Certificate:
    Data:
        Version: 3 (0x2)
        Serial Number:
            94:78:32:bb:21:d5:bd:4f:77:39:48:b7:45:f1:05:6e
        Signature Algorithm: sha256WithRSAEncryption
        Issuer: CN=team468-net
        Validity
            Not Before: Nov  4 10:48:55 2023 GMT
            Not After : Oct 19 10:48:55 2026 GMT
        Subject: CN=team468-client
        Subject Public Key Info:
            Public Key Algorithm: rsaEncryption
                Public-Key: (2048 bit)
                Modulus:
                    00:f7:da:be:3b:58:75:4b:25:4c:69:1a:e5:7c:ef:
                    c2:a7:e6:6d:88:e7:a8:b3:23:22:d2:e2:04:57:85:
                    83:01:ac:c2:82:38:c9:d4:4f:4d:b4:1b:ab:b7:0d:
                    6c:67:e0:2a:05:d6:9e:d3:c7:8a:09:42:b6:5d:28:
                    19:cf:9e:a3:da:e2:6e:85:fb:7d:1f:25:f2:85:c4:
                    8e:c1:4e:9e:93:b7:42:eb:59:2e:9d:37:38:b2:24:
                    44:96:fa:74:9b:ee:a2:96:19:42:04:ee:60:b8:3b:
                    fd:07:95:1d:8a:39:ce:cc:63:13:6b:ff:01:be:d6:
                    fd:68:9e:83:f9:af:ce:05:36:2e:b9:e2:f8:f4:1b:
                    fb:11:03:ab:00:d6:eb:3b:fa:57:dc:c5:8c:45:be:
                    01:2c:16:1d:d7:79:f2:b6:ff:76:ae:47:f1:0c:78:
                    7b:a0:ca:80:44:4c:5e:1c:39:d7:25:05:14:8a:d4:
                    54:b5:ae:46:42:02:02:7b:27:61:5a:bc:5b:88:7d:
                    72:53:fa:41:01:8f:02:86:e7:55:2e:4f:18:1b:45:
                    85:6d:97:cc:19:16:48:7a:cc:0f:bf:45:14:c6:a1:
                    bf:8d:2b:0d:8f:0e:8e:97:cc:98:07:fb:2b:a4:ea:
                    ef:9a:c8:28:73:8b:82:88:53:93:c6:8f:73:57:48:
                    91:ef
                Exponent: 65537 (0x10001)
        X509v3 extensions:
            X509v3 Basic Constraints: 
                CA:FALSE
            X509v3 Subject Key Identifier: 
                B0:5A:8B:AF:19:AA:AE:BB:9D:19:D1:9D:07:22:B4:2F:35:58:6E:EC
            X509v3 Authority Key Identifier: 
                keyid:17:21:CA:51:7E:CB:17:BE:22:38:72:DA:6A:C2:B7:20:08:0F:7F:75
                DirName:/CN=team468-net
                serial:74:5D:56:76:3E:D7:73:04:18:B1:B3:C2:75:91:93:C4:8B:E6:B8:43
            X509v3 Extended Key Usage: 
                TLS Web Client Authentication
            X509v3 Key Usage: 
                Digital Signature
    Signature Algorithm: sha256WithRSAEncryption
    Signature Value:
        1c:ff:29:3e:5e:52:ba:0a:7f:b5:1e:ab:94:a7:a6:b1:9a:e1:
        55:0c:8f:40:23:07:27:80:a9:1d:11:24:c9:02:5c:eb:30:47:
        79:81:e8:29:c3:5a:d6:d0:eb:89:74:67:fa:62:f0:7f:ed:b1:
        87:38:66:18:ce:af:e9:84:8c:a3:62:7e:0a:00:e5:db:c5:79:
        44:18:40:99:3f:58:3a:1a:40:d7:a6:3c:85:6b:cb:cd:b8:36:
        39:65:52:47:58:d4:f5:0d:b0:5e:60:bd:dd:79:88:fb:0c:ea:
        da:39:23:9e:2d:2b:b5:d7:8d:a3:d3:7d:cb:1d:8b:85:fb:63:
        df:4f:2f:83:e2:4e:99:bd:83:a6:23:d8:6f:07:4a:15:cc:fc:
        01:06:de:bd:29:1d:98:84:4e:24:ff:17:5e:a3:83:02:34:67:
        16:06:9e:a0:a9:45:0e:05:f2:07:5e:7a:ed:e2:5f:3a:f8:8f:
        88:fc:04:71:76:7f:3f:23:05:f1:4d:37:4a:98:c1:d1:0f:bf:
        f4:0f:64:31:c5:d3:ab:05:b2:21:d2:39:f3:11:22:91:c9:69:
        70:59:8f:1d:72:76:ef:d7:a5:3d:d5:9e:bf:34:ad:5f:b8:42:
        e1:42:da:ed:23:dc:f2:4c:7e:77:50:21:e4:f3:61:75:b2:cb:
        a1:75:68:0e
-----BEGIN CERTIFICATE-----
MIIDXTCCAkWgAwIBAgIRAJR4Mrsh1b1PdzlIt0XxBW4wDQYJKoZIhvcNAQELBQAw
FjEUMBIGA1UEAwwLdGVhbTQ2OC1uZXQwHhcNMjMxMTA0MTA0ODU1WhcNMjYxMDE5
MTA0ODU1WjAZMRcwFQYDVQQDDA50ZWFtNDY4LWNsaWVudDCCASIwDQYJKoZIhvcN
AQEBBQADggEPADCCAQoCggEBAPfavjtYdUslTGka5XzvwqfmbYjnqLMjItLiBFeF
gwGswoI4ydRPTbQbq7cNbGfgKgXWntPHiglCtl0oGc+eo9riboX7fR8l8oXEjsFO
npO3QutZLp03OLIkRJb6dJvuopYZQgTuYLg7/QeVHYo5zsxjE2v/Ab7W/Wieg/mv
zgU2Lrni+PQb+xEDqwDW6zv6V9zFjEW+ASwWHdd58rb/dq5H8Qx4e6DKgERMXhw5
1yUFFIrUVLWuRkICAnsnYVq8W4h9clP6QQGPAobnVS5PGBtFhW2XzBkWSHrMD79F
FMahv40rDY8OjpfMmAf7K6Tq75rIKHOLgohTk8aPc1dIke8CAwEAAaOBojCBnzAJ
BgNVHRMEAjAAMB0GA1UdDgQWBBSwWouvGaquu50Z0Z0HIrQvNVhu7DBRBgNVHSME
SjBIgBQXIcpRfssXviI4ctpqwrcgCA9/daEapBgwFjEUMBIGA1UEAwwLdGVhbTQ2
OC1uZXSCFHRdVnY+13MEGLGzwnWRk8SL5rhDMBMGA1UdJQQMMAoGCCsGAQUFBwMC
MAsGA1UdDwQEAwIHgDANBgkqhkiG9w0BAQsFAAOCAQEAHP8pPl5Sugp/tR6rlKem
sZrhVQyPQCMHJ4CpHREkyQJc6zBHeYHoKcNa1tDriXRn+mLwf+2xhzhmGM6v6YSM
o2J+CgDl28V5RBhAmT9YOhpA16Y8hWvLzbg2OWVSR1jU9Q2wXmC93XmI+wzq2jkj
ni0rtdeNo9N9yx2Lhftj308vg+JOmb2DpiPYbwdKFcz8AQbevSkdmIROJP8XXqOD
AjRnFgaeoKlFDgXyB1567eJfOviPiPwEcXZ/PyMF8U03SpjB0Q+/9A9kMcXTqwWy
IdI58xEikclpcFmPHXJ279elPdWevzStX7hC4ULa7SPc8kx+d1Ah5PNhdbLLoXVo
Dg==
-----END CERTIFICATE-----
