Certificate:
    Data:
        Version: 3 (0x2)
        Serial Number:
            cb:b7:b6:29:d0:46:8a:4e:22:85:ba:75:db:1d:78:71
        Signature Algorithm: sha256WithRSAEncryption
        Issuer: CN=team468-net
        Validity
            Not Before: Nov  4 10:48:55 2023 GMT
            Not After : Oct 19 10:48:55 2026 GMT
        Subject: CN=team468-server
        Subject Public Key Info:
            Public Key Algorithm: rsaEncryption
                Public-Key: (2048 bit)
                Modulus:
                    00:ca:e2:ae:6d:8a:09:2f:8d:96:22:33:63:3d:36:
                    ee:b5:47:f2:55:8d:f9:73:39:42:7f:e3:f5:27:09:
                    81:b6:c3:0e:82:23:69:8c:dd:83:79:36:f0:45:c9:
                    03:47:95:da:29:89:c5:f5:69:fd:df:1b:40:d7:67:
                    8b:c4:6b:93:6e:ec:1f:f1:a6:cb:5f:5c:27:68:48:
                    30:77:e1:65:79:e7:a5:64:ea:53:c9:a1:a5:16:66:
                    fc:cd:39:68:fe:f0:cd:24:2a:86:a4:b0:d3:7f:bb:
                    9b:86:4b:1b:8c:58:36:b8:04:0d:9d:4b:48:d2:c4:
                    77:37:9e:87:16:40:9c:f3:70:a7:85:e1:6b:8f:b0:
                    69:e1:dc:32:49:9c:ac:37:61:f6:50:f8:69:89:e8:
                    13:52:21:88:8d:70:80:d7:9d:86:6c:b9:4b:7a:a3:
                    ee:fd:04:d7:ab:d5:27:38:79:4c:97:d3:c6:09:14:
                    b4:31:8c:eb:8a:a3:c0:6b:27:b2:b2:4e:ae:78:45:
                    1b:1c:b4:6c:43:9e:82:f2:19:e6:26:88:6d:bb:ba:
                    e6:2e:a1:d2:e9:be:53:6d:d4:63:ea:67:28:c0:48:
                    99:62:3c:dc:a5:85:00:91:02:48:33:c4:01:95:69:
                    c8:c4:4b:46:be:08:11:d6:ae:75:bd:cc:83:8c:2d:
                    f3:15
                Exponent: 65537 (0x10001)
        X509v3 extensions:
            X509v3 Basic Constraints: 
                CA:FALSE
            X509v3 Subject Key Identifier: 
                82:A2:84:AC:3D:2D:0F:42:05:3A:BB:78:B6:61:A6:16:68:9F:46:71
            X509v3 Authority Key Identifier: 
                keyid:17:21:CA:51:7E:CB:17:BE:22:38:72:DA:6A:C2:B7:20:08:0F:7F:75
                DirName:/CN=team468-net
                serial:74:5D:56:76:3E:D7:73:04:18:B1:B3:C2:75:91:93:C4:8B:E6:B8:43
            X509v3 Extended Key Usage: 
                TLS Web Server Authentication
            X509v3 Key Usage: 
                Digital Signature, Key Encipherment
            X509v3 Subject Alternative Name: 
                DNS:team468-server
    Signature Algorithm: sha256WithRSAEncryption
    Signature Value:
        9c:68:48:08:df:f4:63:25:9e:66:1d:3a:97:46:4d:09:91:ed:
        e7:14:32:52:29:9f:65:18:c5:de:15:57:54:a7:35:a2:d3:4c:
        62:ae:c6:ba:a5:00:51:51:44:ee:b6:68:a2:05:48:65:f6:a8:
        66:09:58:48:a7:cc:a8:4b:f6:1f:6e:2c:d0:eb:13:c5:6f:82:
        4c:84:83:01:93:14:7b:29:22:4d:69:dc:03:cd:e9:01:8a:d9:
        9e:b3:d1:33:e7:de:cc:67:38:7e:d6:9f:90:97:3b:f6:ba:c8:
        24:94:db:39:20:3d:36:4e:41:74:87:5d:f3:d8:9e:7c:1d:72:
        65:72:b3:49:f4:47:b2:74:1f:f2:f4:18:ef:25:be:36:0a:42:
        3f:6c:8e:ae:5a:05:7a:b6:71:c2:af:03:5e:31:70:44:85:44:
        7f:31:d0:11:fe:fd:e4:dc:5c:76:2b:2a:23:c4:67:fd:7a:55:
        55:8e:63:67:0b:2f:1b:49:fa:e5:43:32:aa:0c:80:45:9b:6b:
        b4:53:c7:6f:4d:48:4e:1c:0b:c4:56:d3:1b:50:70:1f:9d:9d:
        8e:e9:e3:8b:0b:83:45:10:21:5a:0d:55:d9:14:f4:63:fd:dc:
        b9:53:d9:5a:a1:b1:28:bd:c5:59:c8:4c:84:98:6d:66:ef:2c:
        b7:79:13:f4
-----BEGIN CERTIFICATE-----
MIIDeDCCAmCgAwIBAgIRAMu3tinQRopOIoW6ddsdeHEwDQYJKoZIhvcNAQELBQAw
FjEUMBIGA1UEAwwLdGVhbTQ2OC1uZXQwHhcNMjMxMTA0MTA0ODU1WhcNMjYxMDE5
MTA0ODU1WjAZMRcwFQYDVQQDDA50ZWFtNDY4LXNlcnZlcjCCASIwDQYJKoZIhvcN
AQEBBQADggEPADCCAQoCggEBAMrirm2KCS+NliIzYz027rVH8lWN+XM5Qn/j9ScJ
gbbDDoIjaYzdg3k28EXJA0eV2imJxfVp/d8bQNdni8Rrk27sH/Gmy19cJ2hIMHfh
ZXnnpWTqU8mhpRZm/M05aP7wzSQqhqSw03+7m4ZLG4xYNrgEDZ1LSNLEdzeehxZA
nPNwp4Xha4+waeHcMkmcrDdh9lD4aYnoE1IhiI1wgNedhmy5S3qj7v0E16vVJzh5
TJfTxgkUtDGM64qjwGsnsrJOrnhFGxy0bEOegvIZ5iaIbbu65i6h0um+U23UY+pn
KMBImWI83KWFAJECSDPEAZVpyMRLRr4IEdaudb3Mg4wt8xUCAwEAAaOBvTCBujAJ
BgNVHRMEAjAAMB0GA1UdDgQWBBSCooSsPS0PQgU6u3i2YaYWaJ9GcTBRBgNVHSME
SjBIgBQXIcpRfssXviI4ctpqwrcgCA9/daEapBgwFjEUMBIGA1UEAwwLdGVhbTQ2
OC1uZXSCFHRdVnY+13MEGLGzwnWRk8SL5rhDMBMGA1UdJQQMMAoGCCsGAQUFBwMB
MAsGA1UdDwQEAwIFoDAZBgNVHREEEjAQgg50ZWFtNDY4LXNlcnZlcjANBgkqhkiG
9w0BAQsFAAOCAQEAnGhICN/0YyWeZh06l0ZNCZHt5xQyUimfZRjF3hVXVKc1otNM
Yq7GuqUAUVFE7rZoogVIZfaoZglYSKfMqEv2H24s0OsTxW+CTISDAZMUeykiTWnc
A83pAYrZnrPRM+fezGc4ftafkJc79rrIJJTbOSA9Nk5BdIdd89iefB1yZXKzSfRH
snQf8vQY7yW+NgpCP2yOrloFerZxwq8DXjFwRIVEfzHQEf795NxcdisqI8Rn/XpV
VY5jZwsvG0n65UMyqgyARZtrtFPHb01IThwLxFbTG1BwH52djunjiwuDRRAhWg1V
2RT0Y/3cuVPZWqGxKL3FWchMhJhtZu8st3kT9A==
-----END CERTIFICATE-----
