Certificate:
    Data:
        Version: 3 (0x2)
        Serial Number:
            a4:c1:10:e5:5c:2e:23:fa:30:a1:84:c2:cd:75:c9:61
        Signature Algorithm: sha256WithRSAEncryption
        Issuer: CN=team342-net
        Validity
            Not Before: Nov  4 11:35:00 2023 GMT
            Not After : Oct 19 11:35:00 2026 GMT
        Subject: CN=team342-client
        Subject Public Key Info:
            Public Key Algorithm: rsaEncryption
                Public-Key: (2048 bit)
                Modulus:
                    00:88:ea:91:b0:56:3e:b4:d1:fd:c7:05:0d:4b:67:
                    57:74:08:fa:30:1f:f9:34:0b:49:e4:e6:e5:73:50:
                    7a:e5:00:e4:d0:91:86:19:0e:ae:ff:d4:f0:50:ca:
                    e7:a7:0f:e6:d6:13:1c:28:71:2f:8c:03:60:e5:d1:
                    ab:3c:97:a3:1b:99:99:50:b8:9a:29:20:f2:57:31:
                    37:e4:54:b3:77:b8:5a:58:d2:6d:d4:fe:7f:43:1c:
                    a3:73:98:17:69:b8:13:97:f3:99:7a:ea:62:e6:10:
                    15:7a:e5:b0:ae:e3:6a:1d:a7:36:09:6a:40:c0:0d:
                    d0:d0:a4:91:c5:40:81:28:6a:d8:2d:8f:53:3a:62:
                    4f:9c:5d:be:2e:86:e4:06:88:03:df:39:97:c4:e8:
                    d3:25:60:c6:e7:20:d3:d0:e6:c3:08:f0:91:8f:2f:
                    fa:91:bf:81:3b:2e:99:a4:12:6a:70:8a:d7:b8:0b:
                    9a:7b:58:2b:23:a7:e7:38:93:02:2b:50:02:f1:f3:
                    bd:cd:44:f7:64:43:0f:09:46:ab:01:17:7e:c5:ff:
                    03:39:f6:da:38:d2:36:89:9c:1f:72:47:95:04:71:
                    ec:13:8b:a0:11:7b:94:c6:54:4d:81:e7:c1:b1:5b:
                    d7:03:33:47:3b:35:81:69:8a:8a:57:16:a5:37:dd:
                    8c:01
                Exponent: 65537 (0x10001)
        X509v3 extensions:
            X509v3 Basic Constraints: 
                CA:FALSE
            X509v3 Subject Key Identifier: 
                FE:7F:42:9F:F3:47:F6:93:EA:B6:4A:D6:56:4C:C1:B2:8F:10:94:39
            X509v3 Authority Key Identifier: 
                keyid:B5:F7:9F:FF:7B:54:44:FB:B7:84:0D:89:9A:79:93:9A:E2:BC:87:C0
                DirName:/CN=team342-net
                serial:01:9A:2B:80:E4:D5:6A:80:C0:3A:DD:D9:AD:69:57:3A:48:5E:A3:A2
            X509v3 Extended Key Usage: 
                TLS Web Client Authentication
            X509v3 Key Usage: 
                Digital Signature
    Signature Algorithm: sha256WithRSAEncryption
    Signature Value:
        97:e4:a4:cf:2c:38:c9:be:59:f7:ef:c5:a1:40:7e:44:ba:85:
        e3:33:30:0c:58:67:49:8d:b3:24:e1:0e:52:ff:c8:88:4f:a7:
        ce:3b:2b:f4:f8:3c:08:87:bd:8f:3d:27:f6:8b:95:5f:32:7a:
        d1:08:9e:e0:c8:3b:73:e7:d6:63:90:00:d6:a1:31:16:0c:f4:
        77:32:b9:d9:9a:d5:7b:db:00:86:91:bf:60:2c:4d:85:c9:4f:
        25:ff:30:2d:95:d0:ea:8e:3c:3c:e5:70:fa:2c:ad:cc:6a:d8:
        0a:24:6d:8f:7e:6c:8b:0d:7e:97:56:33:31:68:a1:f4:e1:a1:
        b1:95:2f:b1:73:a4:c8:26:53:36:40:91:06:9e:23:81:7a:2a:
        ad:0d:82:7c:f2:c9:4c:f2:a3:56:00:8e:47:f8:61:df:b3:48:
        67:70:7a:0a:67:bd:46:38:a8:6b:20:72:30:83:4d:95:29:44:
        65:3a:52:9a:76:b9:00:e0:ba:ac:aa:bc:4a:ff:da:26:e4:32:
        03:56:61:f7:ce:7b:0f:30:c0:ee:30:4a:0b:ee:d0:0b:ef:52:
        93:04:55:f0:5c:cb:72:5c:32:b9:24:ab:a5:0d:ef:ce:a6:08:
        df:fa:36:c6:3f:da:fd:7a:f2:ab:b0:d2:2b:48:43:57:e0:d5:
        6b:23:fc:4e
-----BEGIN CERTIFICATE-----
MIIDXTCCAkWgAwIBAgIRAKTBEOVcLiP6MKGEws11yWEwDQYJKoZIhvcNAQELBQAw
FjEUMBIGA1UEAwwLdGVhbTM0Mi1uZXQwHhcNMjMxMTA0MTEzNTAwWhcNMjYxMDE5
MTEzNTAwWjAZMRcwFQYDVQQDDA50ZWFtMzQyLWNsaWVudDCCASIwDQYJKoZIhvcN
AQEBBQADggEPADCCAQoCggEBAIjqkbBWPrTR/ccFDUtnV3QI+jAf+TQLSeTm5XNQ
euUA5NCRhhkOrv/U8FDK56cP5tYTHChxL4wDYOXRqzyXoxuZmVC4mikg8lcxN+RU
s3e4WljSbdT+f0Mco3OYF2m4E5fzmXrqYuYQFXrlsK7jah2nNglqQMAN0NCkkcVA
gShq2C2PUzpiT5xdvi6G5AaIA985l8To0yVgxucg09DmwwjwkY8v+pG/gTsumaQS
anCK17gLmntYKyOn5ziTAitQAvHzvc1E92RDDwlGqwEXfsX/Azn22jjSNomcH3JH
lQRx7BOLoBF7lMZUTYHnwbFb1wMzRzs1gWmKilcWpTfdjAECAwEAAaOBojCBnzAJ
BgNVHRMEAjAAMB0GA1UdDgQWBBT+f0Kf80f2k+q2StZWTMGyjxCUOTBRBgNVHSME
SjBIgBS195//e1RE+7eEDYmaeZOa4ryHwKEapBgwFjEUMBIGA1UEAwwLdGVhbTM0
Mi1uZXSCFAGaK4Dk1WqAwDrd2a1pVzpIXqOiMBMGA1UdJQQMMAoGCCsGAQUFBwMC
MAsGA1UdDwQEAwIHgDANBgkqhkiG9w0BAQsFAAOCAQEAl+Skzyw4yb5Z9+/FoUB+
RLqF4zMwDFhnSY2zJOEOUv/IiE+nzjsr9Pg8CIe9jz0n9ouVXzJ60Qie4Mg7c+fW
Y5AA1qExFgz0dzK52ZrVe9sAhpG/YCxNhclPJf8wLZXQ6o48POVw+iytzGrYCiRt
j35siw1+l1YzMWih9OGhsZUvsXOkyCZTNkCRBp4jgXoqrQ2CfPLJTPKjVgCOR/hh
37NIZ3B6Cme9RjioayByMINNlSlEZTpSmna5AOC6rKq8Sv/aJuQyA1Zh9857DzDA
7jBKC+7QC+9SkwRV8FzLclwyuSSrpQ3vzqYI3/o2xj/a/Xryq7DSK0hDV+DVayP8
Tg==
-----END CERTIFICATE-----
