Certificate:
    Data:
        Version: 3 (0x2)
        Serial Number:
            ea:ef:6f:ee:37:26:0f:df:8a:04:8a:b5:6d:50:92:bb
        Signature Algorithm: sha256WithRSAEncryption
        Issuer: CN=team342-net
        Validity
            Not Before: Nov  4 10:46:52 2023 GMT
            Not After : Oct 19 10:46:52 2026 GMT
        Subject: CN=team342-client
        Subject Public Key Info:
            Public Key Algorithm: rsaEncryption
                Public-Key: (2048 bit)
                Modulus:
                    00:c2:48:eb:c6:ae:6c:6a:12:dc:72:88:15:95:8d:
                    5c:fa:30:f5:ce:50:0e:bd:c4:cd:4b:a0:bc:b7:9d:
                    d3:d5:ec:48:97:a4:f7:50:e7:91:d9:02:00:49:81:
                    c4:a4:f2:1f:5a:1f:08:9f:af:18:a7:46:8b:3e:3f:
                    76:34:b7:fb:ce:79:59:c3:c6:c4:bb:c1:1a:9d:bc:
                    1b:a4:1c:03:06:d6:01:97:33:80:73:16:77:11:c7:
                    a3:49:ba:fa:5c:d9:e5:96:d4:76:55:63:72:74:e8:
                    25:d5:9d:88:c7:df:ac:77:16:7e:72:97:9b:b0:18:
                    cd:38:f7:94:cc:59:ea:11:4d:83:55:cf:c6:ae:9b:
                    c8:78:3f:c9:18:a2:e9:e1:0e:89:fa:66:dd:4b:ec:
                    14:dc:7a:a9:7c:be:0c:62:a5:1b:f7:f3:29:fa:7f:
                    38:73:27:f6:b0:d9:be:91:85:5f:0f:82:2a:56:57:
                    10:40:09:b5:76:5c:26:6c:cb:ad:30:3d:ca:c9:3f:
                    e5:9b:37:4c:43:81:b0:4d:9e:52:30:42:20:e6:18:
                    1f:9e:9e:05:97:91:4a:73:8f:9f:d5:3d:e7:a8:18:
                    b1:f2:4b:c2:66:3d:ec:2d:b3:5a:6c:e1:65:b2:be:
                    ca:70:65:e1:56:3b:4f:58:2f:96:77:ec:46:95:55:
                    07:c1
                Exponent: 65537 (0x10001)
        X509v3 extensions:
            X509v3 Basic Constraints: 
                CA:FALSE
            X509v3 Subject Key Identifier: 
                9B:E7:C4:FB:5A:C5:C9:36:21:F6:08:7D:EB:BD:2D:7D:FC:3A:DD:27
            X509v3 Authority Key Identifier: 
                keyid:0C:63:67:EA:82:10:58:A0:CF:66:5B:6D:BB:30:25:B8:38:EE:74:A3
                DirName:/CN=team342-net
                serial:57:D0:F6:98:68:F9:CB:FF:49:1D:FB:EF:76:4D:17:1D:45:E3:29:77
            X509v3 Extended Key Usage: 
                TLS Web Client Authentication
            X509v3 Key Usage: 
                Digital Signature
    Signature Algorithm: sha256WithRSAEncryption
    Signature Value:
        51:f1:e3:5b:3a:c9:45:e3:45:37:8b:67:25:e3:09:60:7d:60:
        77:81:d4:b3:7d:8d:cf:ac:b9:cc:df:96:a8:34:e1:82:d0:b2:
        2d:f2:c7:1f:63:14:47:a5:94:5d:4d:ad:54:07:41:71:16:1c:
        34:96:f1:a5:09:d9:3e:e6:a1:da:0d:c9:da:25:66:87:2e:fc:
        dc:e9:7a:52:8d:2d:5f:1e:61:c3:11:95:5d:2f:23:29:ae:d8:
        d8:b1:d1:46:85:46:38:e4:1e:4a:a5:fd:cb:41:b0:62:42:f6:
        08:68:bf:b2:b7:2a:ac:f4:52:1b:d3:5c:cf:ad:44:9c:d1:09:
        4b:bb:d6:26:8a:84:72:e0:d7:b8:5e:2b:fa:02:24:e5:a6:b3:
        1e:bb:49:84:34:23:8a:7d:22:d8:30:f3:5e:a0:c5:ee:60:64:
        13:60:30:3d:2f:61:12:7f:3a:99:cb:9e:33:ae:81:28:35:f1:
        35:7c:15:59:ea:51:51:b7:cc:e2:77:c5:b1:7b:cf:b1:1b:14:
        bf:a2:aa:78:3d:04:8e:ae:5b:0f:4b:99:88:c5:69:91:ad:1c:
        a9:a3:b9:01:4d:c3:79:7c:cb:86:28:c5:e8:bb:d2:65:76:09:
        c2:be:f7:e7:18:be:ad:0b:54:71:ff:10:5c:2e:db:d5:e8:b0:
        28:9a:2e:df
-----BEGIN CERTIFICATE-----
MIIDXTCCAkWgAwIBAgIRAOrvb+43Jg/figSKtW1QkrswDQYJKoZIhvcNAQELBQAw
FjEUMBIGA1UEAwwLdGVhbTM0Mi1uZXQwHhcNMjMxMTA0MTA0NjUyWhcNMjYxMDE5
MTA0NjUyWjAZMRcwFQYDVQQDDA50ZWFtMzQyLWNsaWVudDCCASIwDQYJKoZIhvcN
AQEBBQADggEPADCCAQoCggEBAMJI68aubGoS3HKIFZWNXPow9c5QDr3EzUugvLed
09XsSJek91DnkdkCAEmBxKTyH1ofCJ+vGKdGiz4/djS3+855WcPGxLvBGp28G6Qc
AwbWAZczgHMWdxHHo0m6+lzZ5ZbUdlVjcnToJdWdiMffrHcWfnKXm7AYzTj3lMxZ
6hFNg1XPxq6byHg/yRii6eEOifpm3UvsFNx6qXy+DGKlG/fzKfp/OHMn9rDZvpGF
Xw+CKlZXEEAJtXZcJmzLrTA9ysk/5Zs3TEOBsE2eUjBCIOYYH56eBZeRSnOPn9U9
56gYsfJLwmY97C2zWmzhZbK+ynBl4VY7T1gvlnfsRpVVB8ECAwEAAaOBojCBnzAJ
BgNVHRMEAjAAMB0GA1UdDgQWBBSb58T7WsXJNiH2CH3rvS19/DrdJzBRBgNVHSME
SjBIgBQMY2fqghBYoM9mW227MCW4OO50o6EapBgwFjEUMBIGA1UEAwwLdGVhbTM0
Mi1uZXSCFFfQ9pho+cv/SR3773ZNFx1F4yl3MBMGA1UdJQQMMAoGCCsGAQUFBwMC
MAsGA1UdDwQEAwIHgDANBgkqhkiG9w0BAQsFAAOCAQEAUfHjWzrJReNFN4tnJeMJ
YH1gd4HUs32Nz6y5zN+WqDThgtCyLfLHH2MUR6WUXU2tVAdBcRYcNJbxpQnZPuah
2g3J2iVmhy783Ol6Uo0tXx5hwxGVXS8jKa7Y2LHRRoVGOOQeSqX9y0GwYkL2CGi/
srcqrPRSG9Ncz61EnNEJS7vWJoqEcuDXuF4r+gIk5aazHrtJhDQjin0i2DDzXqDF
7mBkE2AwPS9hEn86mcueM66BKDXxNXwVWepRUbfM4nfFsXvPsRsUv6KqeD0Ejq5b
D0uZiMVpka0cqaO5AU3DeXzLhijF6LvSZXYJwr735xi+rQtUcf8QXC7b1eiwKJou
3w==
-----END CERTIFICATE-----
