Certificate:
    Data:
        Version: 3 (0x2)
        Serial Number:
            23:17:d6:5c:f9:00:cd:e2:5b:47:06:07:d9:3b:0c:c5
        Signature Algorithm: sha256WithRSAEncryption
        Issuer: CN=team120-net
        Validity
            Not Before: Nov  3 20:41:17 2023 GMT
            Not After : Oct 18 20:41:17 2026 GMT
        Subject: CN=team120-server
        Subject Public Key Info:
            Public Key Algorithm: rsaEncryption
                Public-Key: (2048 bit)
                Modulus:
                    00:c3:bf:f7:35:d4:d7:ba:92:85:45:d3:56:fa:1c:
                    df:60:e2:e1:45:52:fc:75:6a:3c:51:b3:0f:5e:38:
                    28:9b:4f:1e:dc:f5:06:87:ba:2a:5d:10:44:4a:4a:
                    2e:f6:0f:0b:7a:d6:f9:18:85:65:13:5d:3d:f5:05:
                    4c:27:65:32:36:10:bb:72:5a:16:4b:ce:24:da:93:
                    62:38:48:db:da:72:f8:df:ff:20:19:db:25:b8:a4:
                    c3:23:0a:ec:22:15:30:02:aa:5c:26:10:b3:a8:d0:
                    5f:b4:ba:7c:af:1d:90:e8:7e:34:50:d9:34:88:eb:
                    84:65:7e:1e:e8:24:7f:ff:28:7f:fe:22:06:15:56:
                    80:1b:4f:13:90:f3:d8:2d:45:d7:d2:41:ca:23:a2:
                    a5:75:b0:9b:04:0b:b4:80:8a:98:a3:62:60:bb:9d:
                    69:85:9d:5c:21:5b:54:d8:57:66:4d:42:3d:bd:f1:
                    e7:12:c1:62:0d:23:c8:7f:1b:9c:ab:29:47:9c:99:
                    8d:50:0c:94:e5:d1:5e:f3:61:bf:c8:50:d0:21:a0:
                    cf:64:a2:c9:24:4f:a6:2c:f5:e0:12:06:26:31:8e:
                    14:9f:26:99:75:12:81:2f:b7:57:b1:5f:08:81:16:
                    0b:80:6c:79:d1:ae:85:28:77:a3:8b:7a:e3:05:dd:
                    ff:65
                Exponent: 65537 (0x10001)
        X509v3 extensions:
            X509v3 Basic Constraints: 
                CA:FALSE
            X509v3 Subject Key Identifier: 
                FB:AD:2F:E8:98:16:EE:AF:9A:9A:24:50:5B:82:6E:5D:BC:43:38:57
            X509v3 Authority Key Identifier: 
                keyid:EA:F9:1C:C0:CF:2C:E7:E1:44:52:A1:67:E6:6E:FB:4A:8E:4E:98:F4
                DirName:/CN=team120-net
                serial:4B:C0:E4:3A:F8:79:9E:99:1F:F6:55:A0:7A:A0:A8:80:69:DF:B4:6E
            X509v3 Extended Key Usage: 
                TLS Web Server Authentication
            X509v3 Key Usage: 
                Digital Signature, Key Encipherment
            X509v3 Subject Alternative Name: 
                DNS:team120-server
    Signature Algorithm: sha256WithRSAEncryption
    Signature Value:
        79:32:fb:42:69:cf:b3:7f:e0:81:d6:bd:5c:50:c5:77:e2:a5:
        aa:61:e2:e3:f3:dd:83:85:28:72:23:ab:25:d3:b8:e5:fc:1f:
        5c:a7:ea:99:f6:bf:89:f8:a3:31:3e:f0:80:03:a4:5c:9f:53:
        03:7c:da:f5:cc:78:cf:c9:8b:73:27:ee:45:2c:44:63:ee:bd:
        9e:a7:94:e8:da:77:25:41:79:f0:2d:41:c7:c0:91:ca:a1:d1:
        76:27:2b:0d:f0:49:2d:ea:4f:87:3a:3b:12:1e:4b:64:8f:96:
        31:fb:be:e7:99:d7:e8:c1:95:6b:e7:ec:dd:df:e9:c2:06:88:
        ac:64:99:e9:f6:ff:b2:aa:c8:e9:3b:87:7a:69:d2:90:c9:b1:
        fc:80:13:ec:2a:df:09:c0:a4:0a:28:1f:0e:6d:39:32:81:be:
        ff:c2:2b:92:15:91:03:ce:9b:2d:76:94:59:1b:c9:c9:12:57:
        46:d2:3c:b8:ac:bf:1d:2b:72:c5:b6:d8:a8:1d:0f:11:4c:90:
        e1:a8:ca:ba:4b:c5:42:1b:a1:6a:ee:0d:55:d8:aa:85:4c:2f:
        dc:d8:44:96:39:5d:9c:da:79:32:25:a1:b2:63:2a:db:e6:36:
        95:cf:3a:c0:c3:83:32:63:01:3a:2b:68:cd:12:aa:ca:6c:3f:
        8f:15:ca:99
-----BEGIN CERTIFICATE-----
MIIDdzCCAl+gAwIBAgIQIxfWXPkAzeJbRwYH2TsMxTANBgkqhkiG9w0BAQsFADAW
MRQwEgYDVQQDDAt0ZWFtMTIwLW5ldDAeFw0yMzExMDMyMDQxMTdaFw0yNjEwMTgy
MDQxMTdaMBkxFzAVBgNVBAMMDnRlYW0xMjAtc2VydmVyMIIBIjANBgkqhkiG9w0B
AQEFAAOCAQ8AMIIBCgKCAQEAw7/3NdTXupKFRdNW+hzfYOLhRVL8dWo8UbMPXjgo
m08e3PUGh7oqXRBESkou9g8Letb5GIVlE1099QVMJ2UyNhC7cloWS84k2pNiOEjb
2nL43/8gGdsluKTDIwrsIhUwAqpcJhCzqNBftLp8rx2Q6H40UNk0iOuEZX4e6CR/
/yh//iIGFVaAG08TkPPYLUXX0kHKI6KldbCbBAu0gIqYo2Jgu51phZ1cIVtU2Fdm
TUI9vfHnEsFiDSPIfxucqylHnJmNUAyU5dFe82G/yFDQIaDPZKLJJE+mLPXgEgYm
MY4UnyaZdRKBL7dXsV8IgRYLgGx50a6FKHeji3rjBd3/ZQIDAQABo4G9MIG6MAkG
A1UdEwQCMAAwHQYDVR0OBBYEFPutL+iYFu6vmpokUFuCbl28QzhXMFEGA1UdIwRK
MEiAFOr5HMDPLOfhRFKhZ+Zu+0qOTpj0oRqkGDAWMRQwEgYDVQQDDAt0ZWFtMTIw
LW5ldIIUS8DkOvh5npkf9lWgeqCogGnftG4wEwYDVR0lBAwwCgYIKwYBBQUHAwEw
CwYDVR0PBAQDAgWgMBkGA1UdEQQSMBCCDnRlYW0xMjAtc2VydmVyMA0GCSqGSIb3
DQEBCwUAA4IBAQB5MvtCac+zf+CB1r1cUMV34qWqYeLj892DhShyI6sl07jl/B9c
p+qZ9r+J+KMxPvCAA6Rcn1MDfNr1zHjPyYtzJ+5FLERj7r2ep5To2nclQXnwLUHH
wJHKodF2JysN8Ekt6k+HOjsSHktkj5Yx+77nmdfowZVr5+zd3+nCBoisZJnp9v+y
qsjpO4d6adKQybH8gBPsKt8JwKQKKB8ObTkygb7/wiuSFZEDzpstdpRZG8nJEldG
0jy4rL8dK3LFttioHQ8RTJDhqMq6S8VCG6Fq7g1V2KqFTC/c2ESWOV2c2nkyJaGy
Yyrb5jaVzzrAw4MyYwE6K2jNEqrKbD+PFcqZ
-----END CERTIFICATE-----
