Certificate:
    Data:
        Version: 3 (0x2)
        Serial Number:
            1e:27:6e:54:9e:71:20:42:04:1e:8f:22:c0:85:67:70
        Signature Algorithm: sha256WithRSAEncryption
        Issuer: CN=team27-net
        Validity
            Not Before: Nov  4 11:27:53 2023 GMT
            Not After : Oct 19 11:27:53 2026 GMT
        Subject: CN=team27-server
        Subject Public Key Info:
            Public Key Algorithm: rsaEncryption
                Public-Key: (2048 bit)
                Modulus:
                    00:a3:5b:0c:63:bf:07:0e:0b:9b:37:af:e6:6c:79:
                    24:05:bd:d7:9c:6e:94:6c:eb:96:8a:88:b0:70:4d:
                    60:90:48:4a:7a:06:d9:95:e2:6a:d8:8d:eb:3a:e9:
                    c9:7d:a7:48:35:fa:df:c6:07:ca:f8:c1:bb:b8:96:
                    6d:b5:47:74:23:b4:aa:1a:a7:40:89:6c:1a:49:d8:
                    50:86:e3:7c:18:bd:14:5b:58:85:b3:cd:43:63:ed:
                    a8:e0:7d:ef:0d:c3:23:c2:47:a8:b5:31:69:e8:82:
                    17:6f:41:d9:9c:37:04:90:85:c4:3c:b1:9a:d5:c3:
                    af:35:90:3a:f8:f6:76:9f:25:60:e4:c9:3c:c1:7b:
                    20:b2:64:bb:1d:35:ee:d0:e6:61:f7:c3:7c:cc:73:
                    ba:34:53:5f:76:69:8a:89:56:df:e6:2d:07:37:92:
                    e6:9c:cb:10:30:fb:83:9d:a8:cb:75:41:c9:16:65:
                    46:97:72:05:94:80:70:67:02:d8:ff:fb:e0:5f:c2:
                    6e:1c:df:f7:50:e2:92:b1:c7:9d:1b:0e:7e:2e:39:
                    68:1a:fc:a9:1e:e4:33:9d:26:ec:99:9b:c8:f8:53:
                    ea:43:95:a8:c9:d4:80:07:e5:e9:6b:8a:9f:06:7f:
                    c8:41:df:37:98:bb:dd:3f:b0:3f:c3:3a:2e:fb:4c:
                    8d:ed
                Exponent: 65537 (0x10001)
        X509v3 extensions:
            X509v3 Basic Constraints: 
                CA:FALSE
            X509v3 Subject Key Identifier: 
                82:5E:87:F0:4D:EA:62:83:54:96:A0:FC:2C:40:0C:40:A0:D6:C2:88
            X509v3 Authority Key Identifier: 
                keyid:8E:EF:6C:80:CC:DC:77:B3:A8:85:C9:FB:CB:C5:DF:A0:05:68:23:3A
                DirName:/CN=team27-net
                serial:48:DB:1C:29:D3:28:69:1E:C3:2A:AD:42:04:C6:8F:78:40:67:F7:15
            X509v3 Extended Key Usage: 
                TLS Web Server Authentication
            X509v3 Key Usage: 
                Digital Signature, Key Encipherment
            X509v3 Subject Alternative Name: 
                DNS:team27-server
    Signature Algorithm: sha256WithRSAEncryption
    Signature Value:
        7c:cd:98:27:2f:e3:ee:a7:78:21:74:80:16:6e:97:a3:3a:a7:
        14:3e:95:dd:8a:53:bf:50:43:c5:05:83:75:d3:f2:b1:a8:ff:
        81:f6:28:2b:42:f0:57:88:7b:23:e8:b0:4c:85:5e:7a:aa:47:
        52:bf:e6:58:5d:c4:6b:fe:34:90:31:18:81:24:6c:03:e0:e8:
        ac:85:3f:79:58:4f:e6:ab:9d:22:ff:06:56:d6:a0:2b:55:70:
        40:dc:5a:be:77:67:87:bc:a0:0e:94:d2:b3:03:24:35:70:3a:
        5d:7c:92:46:9c:ec:20:17:37:56:0c:f4:40:47:ae:c3:53:6e:
        24:8c:0d:2e:b4:aa:84:a4:63:50:95:c7:71:ea:f7:5c:90:66:
        84:53:8b:bc:14:91:ec:db:04:11:59:7e:14:44:bc:95:a6:ef:
        c6:74:c4:6f:e2:7c:51:15:4c:1d:09:d5:29:cf:be:38:90:21:
        6d:3f:ec:2b:1e:80:b8:87:9d:ce:71:b8:37:3e:90:22:9e:04:
        a5:14:c5:35:9b:74:54:33:97:30:3d:39:4f:e3:6b:a5:47:0c:
        e0:b3:87:8d:6b:78:ab:93:ec:a5:61:e7:ee:e7:de:3d:75:b7:
        7d:08:57:74:fa:3c:e7:35:b5:af:e8:4d:f3:19:a9:93:11:6a:
        fd:13:b3:df
-----BEGIN CERTIFICATE-----
MIIDczCCAlugAwIBAgIQHiduVJ5xIEIEHo8iwIVncDANBgkqhkiG9w0BAQsFADAV
MRMwEQYDVQQDDAp0ZWFtMjctbmV0MB4XDTIzMTEwNDExMjc1M1oXDTI2MTAxOTEx
Mjc1M1owGDEWMBQGA1UEAwwNdGVhbTI3LXNlcnZlcjCCASIwDQYJKoZIhvcNAQEB
BQADggEPADCCAQoCggEBAKNbDGO/Bw4Lmzev5mx5JAW915xulGzrloqIsHBNYJBI
SnoG2ZXiatiN6zrpyX2nSDX638YHyvjBu7iWbbVHdCO0qhqnQIlsGknYUIbjfBi9
FFtYhbPNQ2PtqOB97w3DI8JHqLUxaeiCF29B2Zw3BJCFxDyxmtXDrzWQOvj2dp8l
YOTJPMF7ILJkux017tDmYffDfMxzujRTX3ZpiolW3+YtBzeS5pzLEDD7g52oy3VB
yRZlRpdyBZSAcGcC2P/74F/Cbhzf91DikrHHnRsOfi45aBr8qR7kM50m7JmbyPhT
6kOVqMnUgAfl6WuKnwZ/yEHfN5i73T+wP8M6LvtMje0CAwEAAaOBuzCBuDAJBgNV
HRMEAjAAMB0GA1UdDgQWBBSCXofwTepig1SWoPwsQAxAoNbCiDBQBgNVHSMESTBH
gBSO72yAzNx3s6iFyfvLxd+gBWgjOqEZpBcwFTETMBEGA1UEAwwKdGVhbTI3LW5l
dIIUSNscKdMoaR7DKq1CBMaPeEBn9xUwEwYDVR0lBAwwCgYIKwYBBQUHAwEwCwYD
VR0PBAQDAgWgMBgGA1UdEQQRMA+CDXRlYW0yNy1zZXJ2ZXIwDQYJKoZIhvcNAQEL
BQADggEBAHzNmCcv4+6neCF0gBZul6M6pxQ+ld2KU79QQ8UFg3XT8rGo/4H2KCtC
8FeIeyPosEyFXnqqR1K/5lhdxGv+NJAxGIEkbAPg6KyFP3lYT+arnSL/BlbWoCtV
cEDcWr53Z4e8oA6U0rMDJDVwOl18kkac7CAXN1YM9EBHrsNTbiSMDS60qoSkY1CV
x3Hq91yQZoRTi7wUkezbBBFZfhREvJWm78Z0xG/ifFEVTB0J1SnPvjiQIW0/7Cse
gLiHnc5xuDc+kCKeBKUUxTWbdFQzlzA9OU/ja6VHDOCzh41reKuT7KVh5+7n3j11
t30IV3T6POc1ta/oTfMZqZMRav0Ts98=
-----END CERTIFICATE-----
