Certificate:
    Data:
        Version: 3 (0x2)
        Serial Number:
            54:bb:7e:5d:0e:13:7d:7b:66:04:ec:1d:e7:28:a3:b5
        Signature Algorithm: sha256WithRSAEncryption
        Issuer: CN=team27-net
        Validity
            Not Before: Nov  4 10:40:44 2023 GMT
            Not After : Oct 19 10:40:44 2026 GMT
        Subject: CN=team27-client
        Subject Public Key Info:
            Public Key Algorithm: rsaEncryption
                Public-Key: (2048 bit)
                Modulus:
                    00:ba:16:e8:48:6b:a6:fc:dd:43:7d:9e:82:1b:2b:
                    77:72:55:94:1d:d7:ce:e8:43:c7:c4:f2:25:2a:b7:
                    b9:db:bb:e6:a3:41:6d:ad:25:f1:75:c0:f6:77:8b:
                    db:43:82:ac:c6:33:b4:4d:0b:0e:d5:33:08:bc:e1:
                    8d:2e:bb:45:a3:40:5c:d5:ed:99:4b:fe:9b:1d:81:
                    c3:88:c0:3a:9c:42:f0:d7:c2:41:56:1d:1c:9f:c0:
                    1d:e2:2c:bf:3c:49:ad:82:fa:08:f4:58:9e:8b:ab:
                    43:3e:f4:bc:2b:b3:59:07:2b:41:e5:e9:b3:b1:c6:
                    d0:e1:39:08:66:4d:06:cd:b4:d8:71:88:7f:1a:5b:
                    49:c1:41:af:62:26:cb:88:99:9c:bb:15:a8:41:f5:
                    7d:03:b2:36:3c:40:58:1e:90:ec:d2:cf:f2:4b:47:
                    98:b3:39:6a:3c:ef:85:4f:3d:4b:7b:df:d4:6d:c5:
                    e5:18:da:c6:da:52:a5:a3:02:9e:ed:a0:06:67:d0:
                    5e:7a:92:d4:78:19:f3:2e:17:19:81:65:d9:20:20:
                    9f:89:51:fb:ca:6d:0b:63:6a:e3:15:01:4b:06:65:
                    80:8d:02:3c:28:ee:30:f7:dc:54:28:68:ba:7e:db:
                    4d:ce:da:9f:c8:88:3a:a7:38:4b:ea:c7:ca:3f:92:
                    17:61
                Exponent: 65537 (0x10001)
        X509v3 extensions:
            X509v3 Basic Constraints: 
                CA:FALSE
            X509v3 Subject Key Identifier: 
                16:36:F6:76:65:50:65:FD:01:9E:A8:22:5B:A6:FA:35:13:82:B8:50
            X509v3 Authority Key Identifier: 
                keyid:84:9A:EB:F1:4D:4D:E6:F5:0F:F9:16:68:DE:BD:70:1C:6D:F3:E6:AC
                DirName:/CN=team27-net
                serial:49:5F:AB:F8:48:28:6D:16:92:3C:CA:69:2B:55:36:0E:AE:CB:CF:0E
            X509v3 Extended Key Usage: 
                TLS Web Client Authentication
            X509v3 Key Usage: 
                Digital Signature
    Signature Algorithm: sha256WithRSAEncryption
    Signature Value:
        7a:f5:8e:d2:19:11:0e:08:6d:04:90:4b:59:96:ff:f7:5d:7f:
        76:b9:75:41:7b:31:5e:70:73:89:9e:5e:24:99:0c:85:e4:95:
        03:59:71:de:67:6b:37:49:2c:92:81:0f:79:df:11:65:6d:fc:
        ed:98:44:e3:fa:d1:de:26:13:ca:37:66:75:aa:6e:52:22:fb:
        66:b9:95:df:ef:cb:2c:47:51:4a:fb:21:9d:b5:43:1d:f4:85:
        17:77:3f:9c:42:14:ef:b3:db:bf:de:8f:98:9b:de:5f:3d:65:
        ef:50:f0:ed:d7:d3:b4:35:68:9a:08:ee:f3:92:4b:b6:42:ed:
        14:e2:21:46:d8:16:2b:d0:29:12:30:05:23:7a:ac:8a:a2:cc:
        28:0c:99:45:33:bb:d0:5a:56:78:e1:c7:59:4d:00:c9:ac:2d:
        1a:03:59:a5:6e:6d:7b:92:6a:7b:ff:7b:5c:ec:8c:63:c6:5e:
        cc:9a:51:2a:68:0a:ae:ad:69:30:50:5d:b1:c6:3c:0c:3d:7b:
        cf:63:2d:ad:28:19:1c:c2:ac:54:5a:db:5f:b4:74:c2:24:49:
        08:39:ac:c7:45:62:b6:50:eb:6a:ab:0f:66:e8:d9:18:aa:ea:
        d6:07:6d:6d:78:d2:c4:cc:b5:a5:c7:9f:5f:28:19:b9:23:7c:
        27:e1:e2:44
-----BEGIN CERTIFICATE-----
MIIDWTCCAkGgAwIBAgIQVLt+XQ4TfXtmBOwd5yijtTANBgkqhkiG9w0BAQsFADAV
MRMwEQYDVQQDDAp0ZWFtMjctbmV0MB4XDTIzMTEwNDEwNDA0NFoXDTI2MTAxOTEw
NDA0NFowGDEWMBQGA1UEAwwNdGVhbTI3LWNsaWVudDCCASIwDQYJKoZIhvcNAQEB
BQADggEPADCCAQoCggEBALoW6EhrpvzdQ32eghsrd3JVlB3XzuhDx8TyJSq3udu7
5qNBba0l8XXA9neL20OCrMYztE0LDtUzCLzhjS67RaNAXNXtmUv+mx2Bw4jAOpxC
8NfCQVYdHJ/AHeIsvzxJrYL6CPRYnourQz70vCuzWQcrQeXps7HG0OE5CGZNBs20
2HGIfxpbScFBr2Imy4iZnLsVqEH1fQOyNjxAWB6Q7NLP8ktHmLM5ajzvhU89S3vf
1G3F5RjaxtpSpaMCnu2gBmfQXnqS1HgZ8y4XGYFl2SAgn4lR+8ptC2Nq4xUBSwZl
gI0CPCjuMPfcVChoun7bTc7an8iIOqc4S+rHyj+SF2ECAwEAAaOBoTCBnjAJBgNV
HRMEAjAAMB0GA1UdDgQWBBQWNvZ2ZVBl/QGeqCJbpvo1E4K4UDBQBgNVHSMESTBH
gBSEmuvxTU3m9Q/5FmjevXAcbfPmrKEZpBcwFTETMBEGA1UEAwwKdGVhbTI3LW5l
dIIUSV+r+EgobRaSPMppK1U2Dq7Lzw4wEwYDVR0lBAwwCgYIKwYBBQUHAwIwCwYD
VR0PBAQDAgeAMA0GCSqGSIb3DQEBCwUAA4IBAQB69Y7SGREOCG0EkEtZlv/3XX92
uXVBezFecHOJnl4kmQyF5JUDWXHeZ2s3SSySgQ953xFlbfztmETj+tHeJhPKN2Z1
qm5SIvtmuZXf78ssR1FK+yGdtUMd9IUXdz+cQhTvs9u/3o+Ym95fPWXvUPDt19O0
NWiaCO7zkku2Qu0U4iFG2BYr0CkSMAUjeqyKoswoDJlFM7vQWlZ44cdZTQDJrC0a
A1mlbm17kmp7/3tc7Ixjxl7MmlEqaAqurWkwUF2xxjwMPXvPYy2tKBkcwqxUWttf
tHTCJEkIOazHRWK2UOtqqw9m6NkYqurWB21teNLEzLWlx59fKBm5I3wn4eJE
-----END CERTIFICATE-----
