Certificate:
    Data:
        Version: 3 (0x2)
        Serial Number:
            26:71:20:d3:6e:4f:e2:be:a8:1b:f1:de:2c:9a:75:07
        Signature Algorithm: sha256WithRSAEncryption
        Issuer: CN=team115-net
        Validity
            Not Before: Nov  4 11:29:44 2023 GMT
            Not After : Oct 19 11:29:44 2026 GMT
        Subject: CN=team115-client
        Subject Public Key Info:
            Public Key Algorithm: rsaEncryption
                Public-Key: (2048 bit)
                Modulus:
                    00:a6:a5:7d:46:42:e6:23:97:33:f2:d2:2b:07:eb:
                    cf:2d:f8:60:40:c2:4d:7a:d6:e5:c8:1d:9f:c1:3a:
                    61:ae:49:04:f8:4c:88:6f:1c:fe:69:aa:6c:1e:e7:
                    9a:39:34:81:5d:34:fc:43:04:d9:d3:53:2f:b1:1c:
                    e0:4d:32:b4:0e:af:d0:09:46:15:5d:12:40:de:17:
                    d1:34:88:1f:7c:30:a9:29:6b:9e:49:1f:a5:57:82:
                    0a:40:1b:bc:fa:a2:47:3e:6e:0d:23:0d:14:c3:d1:
                    ef:b0:b7:0b:8b:de:04:c9:62:9e:95:b5:59:57:8f:
                    e7:75:fb:51:69:0a:3e:5c:7e:93:e4:b4:86:58:80:
                    78:6c:5b:49:f6:68:7b:55:d5:13:c1:27:2b:a9:ac:
                    ba:b8:f9:25:68:44:49:55:0a:17:65:ae:17:09:00:
                    b5:f3:e6:ab:36:ba:46:a6:16:6a:4e:f5:5f:36:87:
                    51:da:89:cb:21:34:8d:69:55:b9:34:a6:cf:f3:48:
                    e6:46:e6:02:7f:85:dc:04:74:d2:d5:70:93:a9:03:
                    7a:9c:c8:a0:5b:ce:c0:90:43:99:b4:ab:ac:5a:13:
                    f7:44:b0:53:ca:c7:4e:0d:ed:15:81:fa:5a:c2:4b:
                    71:38:f3:37:de:8a:42:e8:9a:8c:76:26:bb:6b:bc:
                    6a:83
                Exponent: 65537 (0x10001)
        X509v3 extensions:
            X509v3 Basic Constraints: 
                CA:FALSE
            X509v3 Subject Key Identifier: 
                6D:89:FC:3C:8E:75:A3:F7:76:81:92:A3:76:90:CA:CD:57:48:55:54
            X509v3 Authority Key Identifier: 
                keyid:DB:79:6E:B6:28:64:AB:C8:41:EC:4B:38:5C:6F:88:25:A2:83:BF:89
                DirName:/CN=team115-net
                serial:1A:3D:DE:C2:08:2F:BD:78:7D:75:E4:06:EF:E7:38:55:A1:91:8B:1A
            X509v3 Extended Key Usage: 
                TLS Web Client Authentication
            X509v3 Key Usage: 
                Digital Signature
    Signature Algorithm: sha256WithRSAEncryption
    Signature Value:
        15:3f:46:c0:f3:78:2e:19:39:a3:07:a5:da:10:7f:73:91:0a:
        fe:65:ff:27:e4:0d:44:48:f4:ed:20:59:e0:da:8f:56:48:55:
        bd:64:ae:f2:2b:99:28:b0:20:ba:c8:c4:42:14:d9:de:c0:15:
        b6:80:3f:40:bb:39:5a:74:05:96:23:29:1d:20:8a:97:69:f6:
        b1:d1:16:df:4e:eb:2a:a3:27:7c:3d:57:d5:3f:6a:6d:7a:0f:
        a1:59:29:a5:f9:24:d4:63:48:c7:92:b7:c3:bb:c3:b1:59:eb:
        1e:21:1a:ef:75:0d:1d:20:00:f0:c5:e3:25:1d:a6:b2:19:86:
        28:6a:34:5f:ab:95:ce:a3:ed:14:a9:99:26:20:0b:8e:d0:f0:
        3c:f8:b8:77:f1:80:ec:57:45:22:e0:fa:82:6c:4a:4d:ab:c2:
        7d:11:5e:76:c4:a3:cf:ce:7a:dc:35:04:5b:d9:25:6e:95:f8:
        a5:0b:5d:e6:cd:ef:ea:1b:a0:c5:e4:93:82:bd:0b:ab:d2:fd:
        c9:4e:af:b4:3b:aa:e1:95:92:ee:23:80:38:71:15:d5:b9:45:
        ec:70:11:0f:3e:7a:a8:a7:11:c2:09:9a:f2:51:a6:a5:94:ce:
        54:8b:10:2c:96:df:8a:ae:54:e4:b2:4d:bd:e2:f1:cd:03:45:
        4f:f7:e1:51
-----BEGIN CERTIFICATE-----
MIIDXDCCAkSgAwIBAgIQJnEg025P4r6oG/HeLJp1BzANBgkqhkiG9w0BAQsFADAW
MRQwEgYDVQQDDAt0ZWFtMTE1LW5ldDAeFw0yMzExMDQxMTI5NDRaFw0yNjEwMTkx
MTI5NDRaMBkxFzAVBgNVBAMMDnRlYW0xMTUtY2xpZW50MIIBIjANBgkqhkiG9w0B
AQEFAAOCAQ8AMIIBCgKCAQEApqV9RkLmI5cz8tIrB+vPLfhgQMJNetblyB2fwTph
rkkE+EyIbxz+aapsHueaOTSBXTT8QwTZ01MvsRzgTTK0Dq/QCUYVXRJA3hfRNIgf
fDCpKWueSR+lV4IKQBu8+qJHPm4NIw0Uw9HvsLcLi94EyWKelbVZV4/ndftRaQo+
XH6T5LSGWIB4bFtJ9mh7VdUTwScrqay6uPklaERJVQoXZa4XCQC18+arNrpGphZq
TvVfNodR2onLITSNaVW5NKbP80jmRuYCf4XcBHTS1XCTqQN6nMigW87AkEOZtKus
WhP3RLBTysdODe0VgfpawktxOPM33opC6JqMdia7a7xqgwIDAQABo4GiMIGfMAkG
A1UdEwQCMAAwHQYDVR0OBBYEFG2J/DyOdaP3doGSo3aQys1XSFVUMFEGA1UdIwRK
MEiAFNt5brYoZKvIQexLOFxviCWig7+JoRqkGDAWMRQwEgYDVQQDDAt0ZWFtMTE1
LW5ldIIUGj3ewggvvXh9deQG7+c4VaGRixowEwYDVR0lBAwwCgYIKwYBBQUHAwIw
CwYDVR0PBAQDAgeAMA0GCSqGSIb3DQEBCwUAA4IBAQAVP0bA83guGTmjB6XaEH9z
kQr+Zf8n5A1ESPTtIFng2o9WSFW9ZK7yK5kosCC6yMRCFNnewBW2gD9AuzladAWW
IykdIIqXafax0RbfTusqoyd8PVfVP2pteg+hWSml+STUY0jHkrfDu8OxWeseIRrv
dQ0dIADwxeMlHaayGYYoajRfq5XOo+0UqZkmIAuO0PA8+Lh38YDsV0Ui4PqCbEpN
q8J9EV52xKPPznrcNQRb2SVulfilC13mze/qG6DF5JOCvQur0v3JTq+0O6rhlZLu
I4A4cRXVuUXscBEPPnqopxHCCZryUaallM5UixAslt+KrlTksk294vHNA0VP9+FR
-----END CERTIFICATE-----
