Certificate:
    Data:
        Version: 3 (0x2)
        Serial Number:
            88:4b:48:1a:3b:73:73:27:f5:2c:3c:d4:b6:b7:c0:03
        Signature Algorithm: sha256WithRSAEncryption
        Issuer: CN=team115-net
        Validity
            Not Before: Nov  4 10:42:34 2023 GMT
            Not After : Oct 19 10:42:34 2026 GMT
        Subject: CN=team115-server
        Subject Public Key Info:
            Public Key Algorithm: rsaEncryption
                Public-Key: (2048 bit)
                Modulus:
                    00:94:f8:b6:5e:f6:82:a6:19:3f:64:2b:54:e4:25:
                    5f:61:0a:0b:52:e8:95:bb:d2:2c:36:f2:58:fb:4b:
                    7f:6a:37:d9:06:db:cc:ab:7f:1f:89:e3:c5:a9:b7:
                    11:f7:bb:38:30:42:0c:78:1e:1a:86:47:6b:22:94:
                    70:38:da:90:23:0b:31:96:e4:d5:e9:2a:dd:e4:69:
                    52:39:48:ae:98:40:04:83:9b:70:1b:a4:ce:df:b0:
                    cc:9d:27:e0:ed:d1:24:ed:41:d5:de:7c:7d:fe:c8:
                    2f:5d:e1:82:a4:b7:a3:77:39:aa:72:b5:26:5c:2c:
                    c2:e3:2d:8b:db:8e:bc:b6:51:38:02:f4:93:f6:ca:
                    44:33:2d:72:10:c3:ee:f3:c0:fd:ec:25:6a:e5:45:
                    19:25:5b:9d:93:d2:a0:53:65:5d:bf:8d:46:f1:65:
                    ef:23:68:ec:50:eb:8e:e1:af:c6:71:f3:ea:2e:ee:
                    a3:c4:2a:11:a5:70:d6:3e:29:e7:4b:86:08:78:54:
                    cb:59:ac:18:bf:c3:05:e6:d8:4e:5f:c8:00:55:09:
                    90:c0:24:86:10:0c:aa:c8:b8:d7:a7:01:a3:b9:b4:
                    54:3d:36:86:d5:43:64:dc:f1:2f:9e:8e:c1:1b:ae:
                    c5:bb:68:42:1e:3f:04:08:54:0f:bc:b6:9d:96:8f:
                    20:31
                Exponent: 65537 (0x10001)
        X509v3 extensions:
            X509v3 Basic Constraints: 
                CA:FALSE
            X509v3 Subject Key Identifier: 
                C7:E7:74:CE:84:99:73:72:1F:E6:72:29:E7:58:D4:56:58:A5:04:5A
            X509v3 Authority Key Identifier: 
                keyid:9E:87:01:51:EB:4D:9F:CA:29:46:FC:D2:B5:5E:F6:8E:E2:13:4A:60
                DirName:/CN=team115-net
                serial:56:CE:91:D1:4D:2D:65:D6:6C:C0:DC:5B:CE:2A:F1:6D:CD:DE:C8:1C
            X509v3 Extended Key Usage: 
                TLS Web Server Authentication
            X509v3 Key Usage: 
                Digital Signature, Key Encipherment
            X509v3 Subject Alternative Name: 
                DNS:team115-server
    Signature Algorithm: sha256WithRSAEncryption
    Signature Value:
        2b:be:22:34:04:bb:0a:14:35:f1:27:c4:3e:9a:fe:0f:8f:e4:
        fc:44:b2:ef:59:d3:83:60:50:d9:ff:3a:67:8c:a7:73:99:53:
        57:57:51:c6:7e:37:fc:9b:b3:b4:5f:2f:75:dc:3c:09:01:77:
        d4:4c:98:98:f9:fb:66:ce:ed:67:a5:3a:c9:b6:87:56:eb:ea:
        00:e2:3d:dc:95:e5:04:64:f0:5d:fd:f6:2b:9d:1c:93:b1:98:
        1e:c8:73:c3:83:1a:25:85:99:f4:65:77:ed:16:93:50:b0:fe:
        fb:0e:ab:c1:a5:08:34:78:a6:5c:90:6b:66:32:d8:13:b0:05:
        0c:71:67:30:86:79:9a:c1:68:f0:2d:fc:0f:04:4b:d7:95:6d:
        be:45:45:29:d0:22:00:c4:fb:59:3e:dd:2e:7b:54:3b:ce:3b:
        42:cd:39:bc:ed:3c:8d:26:5e:d3:7b:92:ba:16:65:ce:5c:0d:
        bf:01:01:73:da:75:bd:43:64:15:4a:8a:f3:f0:cc:d3:45:02:
        12:25:e3:40:5c:67:e6:ab:e4:5d:c0:ca:90:38:50:97:96:dc:
        80:28:26:e8:47:8a:bb:56:da:64:45:94:4e:30:ef:ca:91:e5:
        cb:8d:db:3e:e9:b3:2d:ae:c3:77:6c:70:b0:3a:89:e3:0d:98:
        5d:fb:dc:cf
-----BEGIN CERTIFICATE-----
MIIDeDCCAmCgAwIBAgIRAIhLSBo7c3Mn9Sw81La3wAMwDQYJKoZIhvcNAQELBQAw
FjEUMBIGA1UEAwwLdGVhbTExNS1uZXQwHhcNMjMxMTA0MTA0MjM0WhcNMjYxMDE5
MTA0MjM0WjAZMRcwFQYDVQQDDA50ZWFtMTE1LXNlcnZlcjCCASIwDQYJKoZIhvcN
AQEBBQADggEPADCCAQoCggEBAJT4tl72gqYZP2QrVOQlX2EKC1LolbvSLDbyWPtL
f2o32QbbzKt/H4njxam3Efe7ODBCDHgeGoZHayKUcDjakCMLMZbk1ekq3eRpUjlI
rphABIObcBukzt+wzJ0n4O3RJO1B1d58ff7IL13hgqS3o3c5qnK1JlwswuMti9uO
vLZROAL0k/bKRDMtchDD7vPA/ewlauVFGSVbnZPSoFNlXb+NRvFl7yNo7FDrjuGv
xnHz6i7uo8QqEaVw1j4p50uGCHhUy1msGL/DBebYTl/IAFUJkMAkhhAMqsi416cB
o7m0VD02htVDZNzxL56OwRuuxbtoQh4/BAhUD7y2nZaPIDECAwEAAaOBvTCBujAJ
BgNVHRMEAjAAMB0GA1UdDgQWBBTH53TOhJlzch/mcinnWNRWWKUEWjBRBgNVHSME
SjBIgBSehwFR602fyilG/NK1XvaO4hNKYKEapBgwFjEUMBIGA1UEAwwLdGVhbTEx
NS1uZXSCFFbOkdFNLWXWbMDcW84q8W3N3sgcMBMGA1UdJQQMMAoGCCsGAQUFBwMB
MAsGA1UdDwQEAwIFoDAZBgNVHREEEjAQgg50ZWFtMTE1LXNlcnZlcjANBgkqhkiG
9w0BAQsFAAOCAQEAK74iNAS7ChQ18SfEPpr+D4/k/ESy71nTg2BQ2f86Z4ync5lT
V1dRxn43/JuztF8vddw8CQF31EyYmPn7Zs7tZ6U6ybaHVuvqAOI93JXlBGTwXf32
K50ck7GYHshzw4MaJYWZ9GV37RaTULD++w6rwaUINHimXJBrZjLYE7AFDHFnMIZ5
msFo8C38DwRL15VtvkVFKdAiAMT7WT7dLntUO847Qs05vO08jSZe03uSuhZlzlwN
vwEBc9p1vUNkFUqK8/DM00UCEiXjQFxn5qvkXcDKkDhQl5bcgCgm6EeKu1baZEWU
TjDvypHly43bPumzLa7Dd2xwsDqJ4w2YXfvczw==
-----END CERTIFICATE-----
