Certificate:
    Data:
        Version: 3 (0x2)
        Serial Number:
            cc:08:98:e5:3c:33:8b:bb:0f:bc:bf:da:9d:2a:c9:2f
        Signature Algorithm: sha256WithRSAEncryption
        Issuer: CN=team115-net
        Validity
            Not Before: Nov  4 10:42:34 2023 GMT
            Not After : Oct 19 10:42:34 2026 GMT
        Subject: CN=team115-client
        Subject Public Key Info:
            Public Key Algorithm: rsaEncryption
                Public-Key: (2048 bit)
                Modulus:
                    00:b6:b7:a2:7e:f4:67:e0:e1:34:bd:f5:c4:5c:68:
                    9a:bf:39:de:e4:d0:1b:4a:67:95:63:e8:58:02:6f:
                    60:bd:c9:80:ef:ce:e3:7b:21:17:fa:7c:b8:f1:e8:
                    6d:d6:3a:a5:47:0c:f5:a6:2a:5e:21:14:18:3a:f9:
                    f1:71:6a:5f:10:36:e6:55:c3:58:2b:81:c3:a3:0d:
                    e2:c8:01:f4:83:cc:97:6a:06:4e:4f:22:6e:e2:4c:
                    d6:66:88:56:2b:38:69:f6:16:88:52:cd:44:0e:c2:
                    77:5b:d0:f3:07:6d:8b:ff:a4:1c:63:8c:00:7b:60:
                    74:0b:6e:ea:f5:a0:5b:fa:1e:72:22:d7:b1:35:ba:
                    f7:65:d6:a5:d8:3e:96:81:6f:89:61:14:35:be:64:
                    4c:b5:33:cd:7a:38:90:67:0e:cf:6b:0e:e8:bc:f7:
                    0d:88:55:de:57:4a:ba:03:d3:a1:f8:58:dc:92:9d:
                    f1:f2:31:6c:a9:41:8a:fe:c9:95:cb:2e:b8:fc:c6:
                    72:23:8a:cf:3d:9a:60:5f:e1:16:fd:a9:9a:d0:a2:
                    ef:9b:5c:54:25:11:b0:42:42:fb:e4:23:38:a4:d4:
                    1f:6a:35:36:5f:e4:80:54:18:37:5a:6b:27:a9:11:
                    8b:4b:0e:21:73:94:b2:cc:f8:b8:8b:19:08:62:97:
                    00:0f
                Exponent: 65537 (0x10001)
        X509v3 extensions:
            X509v3 Basic Constraints: 
                CA:FALSE
            X509v3 Subject Key Identifier: 
                F9:2D:3D:25:B0:5B:42:A8:40:D6:25:6F:1D:06:4B:2A:BB:B8:7C:CA
            X509v3 Authority Key Identifier: 
                keyid:9E:87:01:51:EB:4D:9F:CA:29:46:FC:D2:B5:5E:F6:8E:E2:13:4A:60
                DirName:/CN=team115-net
                serial:56:CE:91:D1:4D:2D:65:D6:6C:C0:DC:5B:CE:2A:F1:6D:CD:DE:C8:1C
            X509v3 Extended Key Usage: 
                TLS Web Client Authentication
            X509v3 Key Usage: 
                Digital Signature
    Signature Algorithm: sha256WithRSAEncryption
    Signature Value:
        83:21:95:da:7b:6d:b9:41:35:5f:42:e2:db:75:0f:bc:ec:53:
        a7:82:49:04:d4:8b:b8:51:ee:02:79:06:fd:01:f8:ed:33:20:
        5c:be:24:9c:ce:6a:76:df:34:cf:4d:da:c4:ba:a0:ec:c1:7d:
        ff:56:b1:00:6b:af:4a:2d:f9:8c:88:66:48:27:3e:a7:7a:09:
        01:7c:a3:61:dc:54:cd:6c:d0:82:6f:fd:db:31:70:c9:89:7a:
        e2:29:6a:25:49:03:8c:3e:d6:03:d4:5b:20:37:8b:de:ce:33:
        19:16:c6:1e:12:f1:9f:0b:51:65:6c:3e:ec:70:11:fc:81:be:
        7a:ec:f7:ac:bd:7a:28:b4:57:97:b9:92:96:f5:66:b1:03:92:
        1a:bb:d5:73:9e:26:26:b7:c3:82:22:30:52:1b:50:e1:f7:9d:
        48:ad:c5:4f:56:0b:17:6e:94:7a:ee:d1:9e:5d:a2:fe:62:5b:
        68:5c:0a:72:8f:d8:ed:4b:cf:f8:41:a2:ab:9c:46:eb:40:aa:
        e2:15:0d:e6:c9:f2:ed:46:75:2d:cb:c1:95:6b:e4:68:ef:7f:
        ac:28:32:e7:3e:a3:13:1e:b8:25:77:a5:98:da:21:ec:ee:d8:
        5f:1a:99:ab:b6:04:09:7f:10:f0:9e:a3:1e:76:7f:18:2d:f7:
        80:d6:27:12
-----BEGIN CERTIFICATE-----
MIIDXTCCAkWgAwIBAgIRAMwImOU8M4u7D7y/2p0qyS8wDQYJKoZIhvcNAQELBQAw
FjEUMBIGA1UEAwwLdGVhbTExNS1uZXQwHhcNMjMxMTA0MTA0MjM0WhcNMjYxMDE5
MTA0MjM0WjAZMRcwFQYDVQQDDA50ZWFtMTE1LWNsaWVudDCCASIwDQYJKoZIhvcN
AQEBBQADggEPADCCAQoCggEBALa3on70Z+DhNL31xFxomr853uTQG0pnlWPoWAJv
YL3JgO/O43shF/p8uPHobdY6pUcM9aYqXiEUGDr58XFqXxA25lXDWCuBw6MN4sgB
9IPMl2oGTk8ibuJM1maIVis4afYWiFLNRA7Cd1vQ8wdti/+kHGOMAHtgdAtu6vWg
W/oeciLXsTW692XWpdg+loFviWEUNb5kTLUzzXo4kGcOz2sO6Lz3DYhV3ldKugPT
ofhY3JKd8fIxbKlBiv7JlcsuuPzGciOKzz2aYF/hFv2pmtCi75tcVCURsEJC++Qj
OKTUH2o1Nl/kgFQYN1prJ6kRi0sOIXOUssz4uIsZCGKXAA8CAwEAAaOBojCBnzAJ
BgNVHRMEAjAAMB0GA1UdDgQWBBT5LT0lsFtCqEDWJW8dBksqu7h8yjBRBgNVHSME
SjBIgBSehwFR602fyilG/NK1XvaO4hNKYKEapBgwFjEUMBIGA1UEAwwLdGVhbTEx
NS1uZXSCFFbOkdFNLWXWbMDcW84q8W3N3sgcMBMGA1UdJQQMMAoGCCsGAQUFBwMC
MAsGA1UdDwQEAwIHgDANBgkqhkiG9w0BAQsFAAOCAQEAgyGV2nttuUE1X0Li23UP
vOxTp4JJBNSLuFHuAnkG/QH47TMgXL4knM5qdt80z03axLqg7MF9/1axAGuvSi35
jIhmSCc+p3oJAXyjYdxUzWzQgm/92zFwyYl64ilqJUkDjD7WA9RbIDeL3s4zGRbG
HhLxnwtRZWw+7HAR/IG+euz3rL16KLRXl7mSlvVmsQOSGrvVc54mJrfDgiIwUhtQ
4fedSK3FT1YLF26Ueu7Rnl2i/mJbaFwKco/Y7UvP+EGiq5xG60Cq4hUN5sny7UZ1
LcvBlWvkaO9/rCgy5z6jEx64JXelmNoh7O7YXxqZq7YECX8Q8J6jHnZ/GC33gNYn
Eg==
-----END CERTIFICATE-----
