Certificate:
    Data:
        Version: 3 (0x2)
        Serial Number:
            9d:0b:36:44:42:79:20:da:23:ca:f9:7d:1e:7e:85:98
        Signature Algorithm: sha256WithRSAEncryption
        Issuer: CN=team355-net
        Validity
            Not Before: Nov  4 11:35:19 2023 GMT
            Not After : Oct 19 11:35:19 2026 GMT
        Subject: CN=team355-server
        Subject Public Key Info:
            Public Key Algorithm: rsaEncryption
                Public-Key: (2048 bit)
                Modulus:
                    00:d0:a9:57:41:fa:ca:a7:c5:1a:f3:9e:f1:78:8c:
                    de:0c:11:b2:89:b1:b4:31:19:a7:5e:38:e6:b1:b7:
                    8b:ae:f4:17:73:43:bc:81:18:de:d0:ec:f2:fd:3c:
                    a0:5d:b8:1e:e4:8f:64:ea:48:d2:71:01:ba:43:45:
                    e9:79:17:2b:ab:d9:7f:cd:75:e3:2f:e7:82:1d:52:
                    9a:62:40:c1:ea:34:e4:bb:b2:d7:c0:fd:72:9c:e8:
                    42:39:84:6c:9e:38:33:3d:56:84:0b:11:10:88:4f:
                    0d:c1:f3:ef:3a:70:de:06:6f:3a:db:88:2d:48:35:
                    18:f1:b1:04:62:9a:73:91:7e:d1:98:c3:d9:41:1b:
                    66:4e:0b:47:b3:42:3f:0c:90:1a:c4:5f:6b:aa:0a:
                    02:eb:2c:dd:78:c3:b2:17:dd:e1:a7:6e:92:79:17:
                    3a:cf:12:76:50:c2:6f:28:4a:e2:52:4d:bd:2d:28:
                    1b:70:52:c3:87:1c:f3:26:1b:70:db:82:67:8b:28:
                    7a:84:5f:48:44:7a:8a:9a:57:c9:64:b9:8a:ce:eb:
                    32:fb:80:3e:78:d0:3f:09:7e:ec:5c:49:89:cd:7c:
                    80:ca:35:39:3c:7c:3b:56:19:d6:74:bb:20:39:6e:
                    89:8e:70:e9:f9:5f:29:8d:52:d6:bb:4a:00:d2:dd:
                    db:99
                Exponent: 65537 (0x10001)
        X509v3 extensions:
            X509v3 Basic Constraints: 
                CA:FALSE
            X509v3 Subject Key Identifier: 
                95:CB:9F:F9:2C:99:08:A3:C7:C1:A4:5A:71:B3:6B:2F:C2:10:89:9C
            X509v3 Authority Key Identifier: 
                keyid:EE:7C:71:15:6E:36:E9:39:F5:FE:C6:B6:E2:23:F0:FA:62:79:1E:EC
                DirName:/CN=team355-net
                serial:22:8A:22:AE:F3:93:C5:AA:A2:BA:14:B1:BE:52:1E:53:67:38:93:D8
            X509v3 Extended Key Usage: 
                TLS Web Server Authentication
            X509v3 Key Usage: 
                Digital Signature, Key Encipherment
            X509v3 Subject Alternative Name: 
                DNS:team355-server
    Signature Algorithm: sha256WithRSAEncryption
    Signature Value:
        08:98:d1:5b:bd:01:ac:8e:85:1e:c6:3f:ae:3d:b3:44:d5:b7:
        ed:cc:a5:33:73:ba:cd:10:bf:45:52:d4:44:9b:d0:88:f0:c8:
        37:0f:cb:56:3a:6f:6e:e5:29:3c:9c:c9:67:0f:6a:eb:57:0b:
        e6:07:9b:8e:d4:0b:40:f6:ff:fb:c6:14:f3:ab:2b:65:75:45:
        0c:0b:07:9f:91:21:8e:99:e2:84:78:27:42:a9:35:47:39:61:
        79:c4:ce:ed:e3:5f:e4:42:07:80:40:0a:42:04:dd:30:56:c1:
        7b:97:83:50:96:58:a1:0c:d0:e1:a4:05:23:b6:03:a9:81:d7:
        94:4b:02:b3:0b:68:09:71:f7:5f:6c:f7:20:dd:27:45:48:27:
        1c:04:0f:01:93:b3:e7:65:b2:84:8c:22:6d:08:89:fe:53:83:
        c9:67:09:ce:44:18:ee:f5:b7:16:25:cf:ba:d0:cb:f6:fc:d5:
        e2:44:81:72:b4:08:75:27:5d:49:93:cc:32:e6:a2:64:fa:bb:
        c9:f7:ec:29:36:1e:1e:b9:ad:4d:68:51:b1:ac:26:6d:1c:38:
        30:3a:71:15:4e:73:f6:bc:37:11:fd:40:ef:7d:d8:5b:bb:51:
        60:a8:62:e6:11:55:ee:7c:e9:e8:6c:79:61:64:8f:09:e7:2b:
        fb:9a:a2:d4
-----BEGIN CERTIFICATE-----
MIIDeDCCAmCgAwIBAgIRAJ0LNkRCeSDaI8r5fR5+hZgwDQYJKoZIhvcNAQELBQAw
FjEUMBIGA1UEAwwLdGVhbTM1NS1uZXQwHhcNMjMxMTA0MTEzNTE5WhcNMjYxMDE5
MTEzNTE5WjAZMRcwFQYDVQQDDA50ZWFtMzU1LXNlcnZlcjCCASIwDQYJKoZIhvcN
AQEBBQADggEPADCCAQoCggEBANCpV0H6yqfFGvOe8XiM3gwRsomxtDEZp1445rG3
i670F3NDvIEY3tDs8v08oF24HuSPZOpI0nEBukNF6XkXK6vZf8114y/ngh1SmmJA
weo05Luy18D9cpzoQjmEbJ44Mz1WhAsREIhPDcHz7zpw3gZvOtuILUg1GPGxBGKa
c5F+0ZjD2UEbZk4LR7NCPwyQGsRfa6oKAuss3XjDshfd4aduknkXOs8SdlDCbyhK
4lJNvS0oG3BSw4cc8yYbcNuCZ4soeoRfSER6ippXyWS5is7rMvuAPnjQPwl+7FxJ
ic18gMo1OTx8O1YZ1nS7IDluiY5w6flfKY1S1rtKANLd25kCAwEAAaOBvTCBujAJ
BgNVHRMEAjAAMB0GA1UdDgQWBBSVy5/5LJkIo8fBpFpxs2svwhCJnDBRBgNVHSME
SjBIgBTufHEVbjbpOfX+xrbiI/D6Ynke7KEapBgwFjEUMBIGA1UEAwwLdGVhbTM1
NS1uZXSCFCKKIq7zk8WqoroUsb5SHlNnOJPYMBMGA1UdJQQMMAoGCCsGAQUFBwMB
MAsGA1UdDwQEAwIFoDAZBgNVHREEEjAQgg50ZWFtMzU1LXNlcnZlcjANBgkqhkiG
9w0BAQsFAAOCAQEACJjRW70BrI6FHsY/rj2zRNW37cylM3O6zRC/RVLURJvQiPDI
Nw/LVjpvbuUpPJzJZw9q61cL5gebjtQLQPb/+8YU86srZXVFDAsHn5EhjpnihHgn
Qqk1RzlhecTO7eNf5EIHgEAKQgTdMFbBe5eDUJZYoQzQ4aQFI7YDqYHXlEsCswto
CXH3X2z3IN0nRUgnHAQPAZOz52WyhIwibQiJ/lODyWcJzkQY7vW3FiXPutDL9vzV
4kSBcrQIdSddSZPMMuaiZPq7yffsKTYeHrmtTWhRsawmbRw4MDpxFU5z9rw3Ef1A
733YW7tRYKhi5hFV7nzp6Gx5YWSPCecr+5qi1A==
-----END CERTIFICATE-----
