Certificate:
    Data:
        Version: 3 (0x2)
        Serial Number:
            a1:0b:e5:49:93:84:44:06:10:cd:d8:a4:59:d4:c5:9d
        Signature Algorithm: sha256WithRSAEncryption
        Issuer: CN=team355-net
        Validity
            Not Before: Nov  4 10:47:05 2023 GMT
            Not After : Oct 19 10:47:05 2026 GMT
        Subject: CN=team355-client
        Subject Public Key Info:
            Public Key Algorithm: rsaEncryption
                Public-Key: (2048 bit)
                Modulus:
                    00:96:99:ec:83:8e:6b:21:38:40:a7:72:85:ef:2c:
                    48:e5:ed:a7:72:19:42:d6:69:1c:4a:f7:c8:26:e3:
                    ea:22:96:20:92:85:c9:10:9b:2a:84:fe:22:dc:44:
                    41:9b:e8:4f:87:14:9b:c3:d6:a7:d3:4d:b8:62:d0:
                    79:67:9e:8c:37:2c:38:a1:07:d7:74:ae:14:cc:ff:
                    e6:c0:a9:1e:03:01:8c:f6:6e:74:00:ef:03:91:e3:
                    4e:51:6f:1c:b2:49:85:dc:6c:11:c5:db:d2:86:d0:
                    ec:e8:62:d0:4d:2e:1a:fb:c2:05:aa:39:94:92:b7:
                    ce:fd:b1:7c:dd:d5:21:4b:ca:b4:af:90:f3:e8:10:
                    01:7f:43:94:2d:6d:8e:90:38:bb:1d:2d:4f:ac:ec:
                    2a:e3:5f:f6:a3:db:ba:af:24:f8:a5:d6:1e:ed:c4:
                    5a:2e:c1:f8:65:dd:9e:56:48:90:3c:59:b2:23:d4:
                    65:83:f5:9f:6d:f2:7f:b2:b0:f5:ff:53:70:11:2a:
                    90:16:10:5e:ae:d0:e4:e0:4d:17:29:95:e0:2e:32:
                    48:3b:31:1d:08:5e:46:d9:b0:11:3e:ef:d5:34:6c:
                    d2:93:82:e6:e7:0f:5c:80:d7:7e:0a:fe:c1:f9:52:
                    fc:77:6b:54:37:e1:da:c0:07:32:57:ee:b8:a8:a8:
                    91:a7
                Exponent: 65537 (0x10001)
        X509v3 extensions:
            X509v3 Basic Constraints: 
                CA:FALSE
            X509v3 Subject Key Identifier: 
                AE:F6:CB:19:36:A5:5D:77:65:EE:3A:71:E1:2A:7A:46:BD:5B:C5:30
            X509v3 Authority Key Identifier: 
                keyid:E2:FB:D8:2F:9F:57:E4:71:36:5A:AF:A6:15:8C:E0:69:A3:86:19:2D
                DirName:/CN=team355-net
                serial:59:55:0F:A6:6C:D9:B2:E0:7A:9E:02:B3:27:47:B3:72:D1:A9:76:A9
            X509v3 Extended Key Usage: 
                TLS Web Client Authentication
            X509v3 Key Usage: 
                Digital Signature
    Signature Algorithm: sha256WithRSAEncryption
    Signature Value:
        27:a6:da:e5:c5:67:20:e8:f2:af:7d:ab:40:4a:93:6d:ba:04:
        dc:a9:e6:a7:52:5b:41:2f:d4:2e:96:9d:fd:a1:03:a7:9f:01:
        ce:48:60:43:4d:e8:c7:06:60:35:5c:63:a6:d1:1b:4a:1a:8e:
        96:7d:48:77:62:fa:54:56:95:d1:9a:43:6a:03:dc:47:98:a9:
        b6:fa:03:ff:d0:18:d8:37:5d:d8:4d:1e:ff:fd:19:70:59:9d:
        bd:73:f4:c0:6b:e7:a4:51:6f:25:3b:54:ba:07:77:51:cb:51:
        ca:f8:69:f5:e8:14:c0:25:a2:17:ec:6f:04:5a:5d:8c:d4:17:
        c4:c8:0d:c0:54:c0:cb:28:43:ad:e6:80:35:45:69:86:f1:4e:
        ca:45:8d:ea:ae:92:6f:93:eb:23:8b:44:4e:10:2a:c7:14:e9:
        c4:70:54:7e:f4:e8:4a:52:65:b5:7a:9b:fa:94:37:23:d6:6a:
        e3:82:86:1b:a4:6c:f6:14:d9:23:c1:b3:2c:ff:ae:9a:55:3c:
        c6:12:7c:df:17:28:a9:de:c4:84:fc:0c:9e:78:5a:bc:19:bb:
        86:8a:63:23:d1:b6:a8:e9:86:ef:b0:76:72:35:63:4a:2e:9e:
        3e:9e:d7:65:11:7b:b6:67:2e:d8:a4:c1:f5:c0:81:1f:96:44:
        2b:c2:91:da
-----BEGIN CERTIFICATE-----
MIIDXTCCAkWgAwIBAgIRAKEL5UmThEQGEM3YpFnUxZ0wDQYJKoZIhvcNAQELBQAw
FjEUMBIGA1UEAwwLdGVhbTM1NS1uZXQwHhcNMjMxMTA0MTA0NzA1WhcNMjYxMDE5
MTA0NzA1WjAZMRcwFQYDVQQDDA50ZWFtMzU1LWNsaWVudDCCASIwDQYJKoZIhvcN
AQEBBQADggEPADCCAQoCggEBAJaZ7IOOayE4QKdyhe8sSOXtp3IZQtZpHEr3yCbj
6iKWIJKFyRCbKoT+ItxEQZvoT4cUm8PWp9NNuGLQeWeejDcsOKEH13SuFMz/5sCp
HgMBjPZudADvA5HjTlFvHLJJhdxsEcXb0obQ7Ohi0E0uGvvCBao5lJK3zv2xfN3V
IUvKtK+Q8+gQAX9DlC1tjpA4ux0tT6zsKuNf9qPbuq8k+KXWHu3EWi7B+GXdnlZI
kDxZsiPUZYP1n23yf7Kw9f9TcBEqkBYQXq7Q5OBNFymV4C4ySDsxHQheRtmwET7v
1TRs0pOC5ucPXIDXfgr+wflS/HdrVDfh2sAHMlfuuKiokacCAwEAAaOBojCBnzAJ
BgNVHRMEAjAAMB0GA1UdDgQWBBSu9ssZNqVdd2XuOnHhKnpGvVvFMDBRBgNVHSME
SjBIgBTi+9gvn1fkcTZar6YVjOBpo4YZLaEapBgwFjEUMBIGA1UEAwwLdGVhbTM1
NS1uZXSCFFlVD6Zs2bLgep4CsydHs3LRqXapMBMGA1UdJQQMMAoGCCsGAQUFBwMC
MAsGA1UdDwQEAwIHgDANBgkqhkiG9w0BAQsFAAOCAQEAJ6ba5cVnIOjyr32rQEqT
bboE3Knmp1JbQS/ULpad/aEDp58BzkhgQ03oxwZgNVxjptEbShqOln1Id2L6VFaV
0ZpDagPcR5iptvoD/9AY2Ddd2E0e//0ZcFmdvXP0wGvnpFFvJTtUugd3UctRyvhp
9egUwCWiF+xvBFpdjNQXxMgNwFTAyyhDreaANUVphvFOykWN6q6Sb5PrI4tEThAq
xxTpxHBUfvToSlJltXqb+pQ3I9Zq44KGG6Rs9hTZI8GzLP+umlU8xhJ83xcoqd7E
hPwMnnhavBm7hopjI9G2qOmG77B2cjVjSi6ePp7XZRF7tmcu2KTB9cCBH5ZEK8KR
2g==
-----END CERTIFICATE-----
