Certificate:
    Data:
        Version: 3 (0x2)
        Serial Number:
            de:62:d9:bd:71:41:78:de:0c:c2:1f:df:2d:11:a9:67
        Signature Algorithm: sha256WithRSAEncryption
        Issuer: CN=team355-net
        Validity
            Not Before: Nov  3 20:45:45 2023 GMT
            Not After : Oct 18 20:45:45 2026 GMT
        Subject: CN=team355-client
        Subject Public Key Info:
            Public Key Algorithm: rsaEncryption
                Public-Key: (2048 bit)
                Modulus:
                    00:c8:98:a0:be:53:3c:bd:b7:07:04:55:30:d2:fc:
                    78:93:b5:64:8d:17:ef:cf:16:02:9c:83:c1:e1:46:
                    71:f0:27:89:11:8c:f5:6d:a4:3b:74:8d:82:65:cd:
                    ab:52:0a:50:d4:e1:4d:30:41:e9:70:a6:9b:59:34:
                    98:f6:2a:23:af:40:5e:32:92:b0:7d:c2:2c:56:dc:
                    54:3c:16:ff:24:1b:7c:de:3d:30:9b:69:47:74:bb:
                    65:d7:25:48:95:cb:80:b7:1c:2f:e8:15:c1:10:a6:
                    25:c6:06:8c:1f:0a:85:12:a8:ef:7b:7c:1f:1a:09:
                    be:74:44:a8:07:62:fd:e8:d0:1f:d2:39:31:a1:cf:
                    71:b4:ae:61:f2:34:3d:e5:0d:64:f7:bd:e5:41:b3:
                    89:ad:eb:88:05:31:9c:57:45:65:ab:af:2e:19:a9:
                    fd:09:b2:88:c6:f4:e0:3f:69:7c:d5:46:bc:ba:02:
                    d8:c0:a8:92:36:a3:ca:1f:a2:b4:c4:95:6f:ad:6e:
                    a1:ca:6b:0d:cb:9e:e2:b1:88:43:89:54:88:9c:69:
                    93:58:60:36:7a:5c:e9:9f:b5:81:3a:16:2d:ca:d2:
                    9b:00:4a:a7:c1:3d:bb:d7:f9:60:9e:06:dd:32:86:
                    00:23:91:63:05:46:09:e1:33:06:e9:7c:c3:e0:9f:
                    39:5d
                Exponent: 65537 (0x10001)
        X509v3 extensions:
            X509v3 Basic Constraints: 
                CA:FALSE
            X509v3 Subject Key Identifier: 
                88:5C:00:A7:3B:CF:C0:96:F5:21:AD:B0:C1:28:61:67:13:0D:49:90
            X509v3 Authority Key Identifier: 
                keyid:4E:CD:7A:E6:FB:D8:2E:14:04:CD:05:EA:9A:92:7E:25:7A:C2:42:77
                DirName:/CN=team355-net
                serial:36:F9:3A:E3:15:59:69:F7:CC:61:5A:4F:40:2B:25:CD:77:FA:F7:2F
            X509v3 Extended Key Usage: 
                TLS Web Client Authentication
            X509v3 Key Usage: 
                Digital Signature
    Signature Algorithm: sha256WithRSAEncryption
    Signature Value:
        2c:c4:d2:08:11:b7:67:c3:66:1c:6d:7f:75:00:f3:e1:5c:6a:
        5b:36:ba:b8:77:2b:2c:35:e6:2f:4a:b1:b3:ed:ce:e8:6a:ef:
        43:0c:10:e1:83:f8:67:f3:11:cb:3b:af:c2:a6:6a:bd:6d:53:
        93:72:5d:27:15:ab:fd:bc:7d:c1:1e:b4:1a:16:57:79:0b:50:
        f0:6b:a4:71:3a:ef:31:07:88:0d:89:65:e1:96:9f:b6:5c:3a:
        47:33:72:b1:7a:fb:b4:5a:67:51:fd:a5:cf:3e:74:7d:a3:64:
        30:4b:dc:36:46:32:98:29:59:da:d8:d7:b7:ad:b7:4e:ba:50:
        75:10:86:88:c4:11:a6:29:d1:a5:f7:cd:bb:89:1f:63:10:2b:
        ab:0b:ad:d4:c5:39:b9:62:4b:52:ef:9b:36:b1:27:fd:3b:06:
        60:99:2b:15:ce:6f:62:69:d4:80:84:64:b8:28:8f:86:03:0e:
        c5:95:f4:6c:fe:7f:6a:e9:e2:2c:8a:2d:bd:c0:26:ae:03:04:
        5c:e8:e6:94:76:35:4c:f5:9a:1d:d5:97:4d:f2:10:93:dd:9d:
        a2:8d:fe:94:fd:ca:4d:cb:f5:c7:a5:0b:f5:ec:13:aa:27:76:
        e4:0e:a8:9b:d9:d7:64:2d:33:ec:d7:c5:8f:3c:95:67:92:50:
        29:08:57:20
-----BEGIN CERTIFICATE-----
MIIDXTCCAkWgAwIBAgIRAN5i2b1xQXjeDMIf3y0RqWcwDQYJKoZIhvcNAQELBQAw
FjEUMBIGA1UEAwwLdGVhbTM1NS1uZXQwHhcNMjMxMTAzMjA0NTQ1WhcNMjYxMDE4
MjA0NTQ1WjAZMRcwFQYDVQQDDA50ZWFtMzU1LWNsaWVudDCCASIwDQYJKoZIhvcN
AQEBBQADggEPADCCAQoCggEBAMiYoL5TPL23BwRVMNL8eJO1ZI0X788WApyDweFG
cfAniRGM9W2kO3SNgmXNq1IKUNThTTBB6XCmm1k0mPYqI69AXjKSsH3CLFbcVDwW
/yQbfN49MJtpR3S7ZdclSJXLgLccL+gVwRCmJcYGjB8KhRKo73t8HxoJvnREqAdi
/ejQH9I5MaHPcbSuYfI0PeUNZPe95UGzia3riAUxnFdFZauvLhmp/QmyiMb04D9p
fNVGvLoC2MCokjajyh+itMSVb61uocprDcue4rGIQ4lUiJxpk1hgNnpc6Z+1gToW
LcrSmwBKp8E9u9f5YJ4G3TKGACORYwVGCeEzBul8w+CfOV0CAwEAAaOBojCBnzAJ
BgNVHRMEAjAAMB0GA1UdDgQWBBSIXACnO8/AlvUhrbDBKGFnEw1JkDBRBgNVHSME
SjBIgBROzXrm+9guFATNBeqakn4lesJCd6EapBgwFjEUMBIGA1UEAwwLdGVhbTM1
NS1uZXSCFDb5OuMVWWn3zGFaT0ArJc13+vcvMBMGA1UdJQQMMAoGCCsGAQUFBwMC
MAsGA1UdDwQEAwIHgDANBgkqhkiG9w0BAQsFAAOCAQEALMTSCBG3Z8NmHG1/dQDz
4VxqWza6uHcrLDXmL0qxs+3O6GrvQwwQ4YP4Z/MRyzuvwqZqvW1Tk3JdJxWr/bx9
wR60GhZXeQtQ8GukcTrvMQeIDYll4Zaftlw6RzNysXr7tFpnUf2lzz50faNkMEvc
NkYymClZ2tjXt623TrpQdRCGiMQRpinRpffNu4kfYxArqwut1MU5uWJLUu+bNrEn
/TsGYJkrFc5vYmnUgIRkuCiPhgMOxZX0bP5/auniLIotvcAmrgMEXOjmlHY1TPWa
HdWXTfIQk92doo3+lP3KTcv1x6UL9ewTqid25A6om9nXZC0z7NfFjzyVZ5JQKQhX
IA==
-----END CERTIFICATE-----
