Certificate:
    Data:
        Version: 3 (0x2)
        Serial Number:
            30:00:a3:cb:db:82:ca:29:c9:77:1f:f5:46:b6:12:f7
        Signature Algorithm: sha256WithRSAEncryption
        Issuer: CN=team141-net
        Validity
            Not Before: Nov  4 11:30:20 2023 GMT
            Not After : Oct 19 11:30:20 2026 GMT
        Subject: CN=team141-client
        Subject Public Key Info:
            Public Key Algorithm: rsaEncryption
                Public-Key: (2048 bit)
                Modulus:
                    00:b7:a9:6b:85:c1:03:7f:78:5a:a2:3c:d8:a9:4f:
                    f7:45:c3:09:2a:c8:53:ab:67:74:90:9c:37:36:54:
                    c2:66:8a:00:09:c3:9d:99:d0:2b:da:53:0b:27:43:
                    16:d1:fa:b9:cd:cb:03:9d:05:be:db:ff:0f:04:f2:
                    5d:10:71:88:86:36:41:81:54:71:b1:46:b6:8f:ef:
                    e7:2a:57:f6:86:0c:e0:69:f7:48:73:91:f6:36:2d:
                    f7:99:f3:cd:95:2f:3c:88:64:36:4b:e0:07:14:bd:
                    3c:90:8e:e7:6f:e1:d8:58:b9:0c:d8:d1:c0:d6:19:
                    4a:62:83:73:1c:de:a8:05:1e:d5:e7:e6:ee:35:97:
                    47:b6:72:cd:ae:27:58:94:59:ae:c5:4e:a8:b5:2c:
                    80:3d:55:6e:ad:a8:eb:88:ee:fe:a5:8d:62:da:f7:
                    e2:f6:77:48:2f:8c:2f:13:8f:85:e2:08:a4:71:a0:
                    58:c4:6b:12:f3:de:7f:d6:3d:27:76:d4:69:7c:61:
                    79:2a:74:9b:37:e2:88:08:d1:71:36:b6:28:37:a6:
                    f9:75:79:48:68:58:3d:c0:d2:3d:1e:ea:be:a1:f8:
                    49:96:b6:d3:f2:db:1b:96:2a:aa:f8:0f:2b:54:6f:
                    55:96:d9:2b:97:f0:3a:c9:40:cc:ad:c1:56:e1:b9:
                    a6:73
                Exponent: 65537 (0x10001)
        X509v3 extensions:
            X509v3 Basic Constraints: 
                CA:FALSE
            X509v3 Subject Key Identifier: 
                08:C5:BD:C1:49:D5:46:AB:78:B9:A5:B4:1A:F5:D4:4E:B3:69:0B:F6
            X509v3 Authority Key Identifier: 
                keyid:58:3F:70:43:F7:E8:40:17:62:F2:6C:3F:90:82:EC:45:A6:16:8A:96
                DirName:/CN=team141-net
                serial:2E:76:EB:9D:A8:72:6E:E7:86:14:F7:EA:70:02:CF:3C:52:44:B1:F5
            X509v3 Extended Key Usage: 
                TLS Web Client Authentication
            X509v3 Key Usage: 
                Digital Signature
    Signature Algorithm: sha256WithRSAEncryption
    Signature Value:
        6d:e1:59:6b:d5:a6:24:5a:74:08:19:9f:de:9b:00:00:d8:81:
        58:73:c0:8e:a4:f6:84:7a:a9:a8:23:57:06:d9:aa:96:55:66:
        c0:23:b1:a9:60:ee:bb:9c:1d:3e:56:aa:90:01:c1:ab:72:45:
        a3:89:39:f3:24:00:11:5d:3e:dc:57:fc:04:7f:e6:06:d5:8a:
        cc:12:dd:78:4f:c9:22:77:ac:74:af:e4:bf:1d:02:0d:72:99:
        3c:d9:c2:3b:ac:0f:15:d3:bf:7e:44:d3:4e:be:4d:4b:b8:b9:
        89:ba:f5:f1:85:29:9e:35:c8:eb:b6:2b:fd:3f:93:72:24:10:
        19:d0:8f:79:89:7d:40:74:98:a7:4a:18:36:e1:d9:bf:95:97:
        49:c0:41:d5:57:4e:7d:28:a6:da:90:41:b7:53:be:83:7f:cb:
        89:65:d0:fb:b6:0f:4d:a3:1c:1a:ae:8c:8d:35:e3:fd:c3:a6:
        18:77:ee:b2:90:4e:88:18:52:2f:ca:be:fd:15:4f:dc:58:bd:
        67:68:94:f3:21:ad:82:e3:ef:ad:8f:4c:58:00:52:67:10:6d:
        69:6b:96:43:d2:d7:6e:5d:78:18:bd:91:10:32:86:c8:68:e4:
        03:f1:0e:da:9c:68:80:08:a5:c5:59:e8:62:5a:0a:24:30:37:
        50:d6:73:57
-----BEGIN CERTIFICATE-----
MIIDXDCCAkSgAwIBAgIQMACjy9uCyinJdx/1RrYS9zANBgkqhkiG9w0BAQsFADAW
MRQwEgYDVQQDDAt0ZWFtMTQxLW5ldDAeFw0yMzExMDQxMTMwMjBaFw0yNjEwMTkx
MTMwMjBaMBkxFzAVBgNVBAMMDnRlYW0xNDEtY2xpZW50MIIBIjANBgkqhkiG9w0B
AQEFAAOCAQ8AMIIBCgKCAQEAt6lrhcEDf3haojzYqU/3RcMJKshTq2d0kJw3NlTC
ZooACcOdmdAr2lMLJ0MW0fq5zcsDnQW+2/8PBPJdEHGIhjZBgVRxsUa2j+/nKlf2
hgzgafdIc5H2Ni33mfPNlS88iGQ2S+AHFL08kI7nb+HYWLkM2NHA1hlKYoNzHN6o
BR7V5+buNZdHtnLNridYlFmuxU6otSyAPVVurajriO7+pY1i2vfi9ndIL4wvE4+F
4gikcaBYxGsS895/1j0ndtRpfGF5KnSbN+KICNFxNrYoN6b5dXlIaFg9wNI9Huq+
ofhJlrbT8tsbliqq+A8rVG9Vltkrl/A6yUDMrcFW4bmmcwIDAQABo4GiMIGfMAkG
A1UdEwQCMAAwHQYDVR0OBBYEFAjFvcFJ1UareLmltBr11E6zaQv2MFEGA1UdIwRK
MEiAFFg/cEP36EAXYvJsP5CC7EWmFoqWoRqkGDAWMRQwEgYDVQQDDAt0ZWFtMTQx
LW5ldIIULnbrnahybueGFPfqcALPPFJEsfUwEwYDVR0lBAwwCgYIKwYBBQUHAwIw
CwYDVR0PBAQDAgeAMA0GCSqGSIb3DQEBCwUAA4IBAQBt4Vlr1aYkWnQIGZ/emwAA
2IFYc8COpPaEeqmoI1cG2aqWVWbAI7GpYO67nB0+VqqQAcGrckWjiTnzJAARXT7c
V/wEf+YG1YrMEt14T8kid6x0r+S/HQINcpk82cI7rA8V079+RNNOvk1LuLmJuvXx
hSmeNcjrtiv9P5NyJBAZ0I95iX1AdJinShg24dm/lZdJwEHVV059KKbakEG3U76D
f8uJZdD7tg9NoxwaroyNNeP9w6YYd+6ykE6IGFIvyr79FU/cWL1naJTzIa2C4++t
j0xYAFJnEG1pa5ZD0tduXXgYvZEQMobIaOQD8Q7anGiACKXFWehiWgokMDdQ1nNX
-----END CERTIFICATE-----
