Certificate:
    Data:
        Version: 3 (0x2)
        Serial Number:
            af:1e:58:75:35:0b:46:98:d3:f9:17:7d:39:76:66:8e
        Signature Algorithm: sha256WithRSAEncryption
        Issuer: CN=team141-net
        Validity
            Not Before: Nov  4 11:30:20 2023 GMT
            Not After : Oct 19 11:30:20 2026 GMT
        Subject: CN=team141-server
        Subject Public Key Info:
            Public Key Algorithm: rsaEncryption
                Public-Key: (2048 bit)
                Modulus:
                    00:a6:91:63:c5:a8:11:da:f2:df:27:bc:07:68:c0:
                    df:3f:53:5b:e0:a9:a4:f5:c8:4e:d3:03:98:66:4c:
                    c6:75:69:51:8a:5b:3a:6d:48:2d:04:dd:2b:0a:48:
                    7a:3d:5b:c8:02:5f:02:c7:63:70:c5:1e:12:4f:5c:
                    d6:6f:c2:e7:6d:1b:15:2d:f6:47:6b:2a:3e:c0:c6:
                    a3:44:cc:52:5d:17:48:35:ae:3d:58:2a:00:da:4c:
                    dc:4e:2c:b9:27:1e:1e:61:22:2c:7c:1c:03:6d:89:
                    fb:e2:9a:d4:33:f2:ea:45:6a:6b:8c:ee:0b:f7:0d:
                    27:31:cc:30:9c:6a:94:f2:f8:3e:14:4e:0e:13:70:
                    5a:c1:e8:41:30:e1:b0:a0:77:a4:b1:42:b8:f1:80:
                    48:61:b1:36:c5:75:72:d4:03:f2:6d:11:64:dd:54:
                    f8:2d:58:64:91:1b:d1:71:82:ce:7c:dd:ff:7c:af:
                    66:67:7d:9e:97:04:82:ac:5c:35:41:3a:f0:5e:2f:
                    c5:23:62:18:cd:9b:d0:24:af:f9:27:70:de:83:72:
                    1d:10:a9:55:fc:3d:6a:32:6f:95:1c:71:25:18:b0:
                    fb:cf:34:10:53:0b:6e:bd:e6:a2:8b:62:07:2c:51:
                    46:94:9d:96:a0:ee:e4:c0:bd:3e:2f:d3:6f:86:bb:
                    1a:65
                Exponent: 65537 (0x10001)
        X509v3 extensions:
            X509v3 Basic Constraints: 
                CA:FALSE
            X509v3 Subject Key Identifier: 
                27:91:0C:D0:CE:7E:B5:B3:E1:A9:C9:D7:88:2F:AC:CE:8A:BD:AF:0E
            X509v3 Authority Key Identifier: 
                keyid:58:3F:70:43:F7:E8:40:17:62:F2:6C:3F:90:82:EC:45:A6:16:8A:96
                DirName:/CN=team141-net
                serial:2E:76:EB:9D:A8:72:6E:E7:86:14:F7:EA:70:02:CF:3C:52:44:B1:F5
            X509v3 Extended Key Usage: 
                TLS Web Server Authentication
            X509v3 Key Usage: 
                Digital Signature, Key Encipherment
            X509v3 Subject Alternative Name: 
                DNS:team141-server
    Signature Algorithm: sha256WithRSAEncryption
    Signature Value:
        04:94:a6:f4:ca:c2:65:ab:74:9d:75:27:f3:b6:4f:72:9c:38:
        2b:87:ac:99:35:52:a8:79:55:c7:a2:5f:ef:a9:64:48:cb:96:
        34:91:6e:fa:8f:40:d7:d7:e5:72:8e:91:69:67:62:7d:51:36:
        c9:e4:04:2f:fe:bd:56:27:8f:b1:25:60:4f:06:9b:01:75:c5:
        94:e6:5e:ff:be:c5:8b:91:85:07:1a:47:a2:71:43:e3:6e:10:
        f8:32:07:f7:93:1e:e1:cb:11:73:be:df:95:d1:a3:e4:c3:05:
        00:57:88:10:55:a6:03:bb:70:c2:61:82:54:ca:59:87:a1:df:
        c8:5e:e7:bf:c0:c2:af:fb:eb:30:f6:8f:bb:b9:42:79:2f:45:
        7f:d1:c5:72:38:f0:ff:07:51:e0:82:30:1c:32:d3:0e:dc:03:
        b3:97:13:52:37:32:e7:e6:84:48:e0:ef:4a:a4:39:df:53:40:
        8c:d9:96:be:c2:aa:7b:46:a6:55:fc:ba:fa:1d:45:a7:ee:86:
        8b:8a:ea:f2:6b:9e:df:dd:ee:a9:f3:60:69:21:db:75:4a:c0:
        5b:cd:19:78:6e:f8:c0:d8:80:3f:23:3f:88:78:8f:0d:da:f2:
        76:11:dd:d1:57:c2:a6:02:ef:21:e4:14:56:ac:61:6e:5f:55:
        82:1f:6e:10
-----BEGIN CERTIFICATE-----
MIIDeDCCAmCgAwIBAgIRAK8eWHU1C0aY0/kXfTl2Zo4wDQYJKoZIhvcNAQELBQAw
FjEUMBIGA1UEAwwLdGVhbTE0MS1uZXQwHhcNMjMxMTA0MTEzMDIwWhcNMjYxMDE5
MTEzMDIwWjAZMRcwFQYDVQQDDA50ZWFtMTQxLXNlcnZlcjCCASIwDQYJKoZIhvcN
AQEBBQADggEPADCCAQoCggEBAKaRY8WoEdry3ye8B2jA3z9TW+CppPXITtMDmGZM
xnVpUYpbOm1ILQTdKwpIej1byAJfAsdjcMUeEk9c1m/C520bFS32R2sqPsDGo0TM
Ul0XSDWuPVgqANpM3E4suSceHmEiLHwcA22J++Ka1DPy6kVqa4zuC/cNJzHMMJxq
lPL4PhRODhNwWsHoQTDhsKB3pLFCuPGASGGxNsV1ctQD8m0RZN1U+C1YZJEb0XGC
znzd/3yvZmd9npcEgqxcNUE68F4vxSNiGM2b0CSv+Sdw3oNyHRCpVfw9ajJvlRxx
JRiw+880EFMLbr3mootiByxRRpSdlqDu5MC9Pi/Tb4a7GmUCAwEAAaOBvTCBujAJ
BgNVHRMEAjAAMB0GA1UdDgQWBBQnkQzQzn61s+GpydeIL6zOir2vDjBRBgNVHSME
SjBIgBRYP3BD9+hAF2LybD+QguxFphaKlqEapBgwFjEUMBIGA1UEAwwLdGVhbTE0
MS1uZXSCFC52652ocm7nhhT36nACzzxSRLH1MBMGA1UdJQQMMAoGCCsGAQUFBwMB
MAsGA1UdDwQEAwIFoDAZBgNVHREEEjAQgg50ZWFtMTQxLXNlcnZlcjANBgkqhkiG
9w0BAQsFAAOCAQEABJSm9MrCZat0nXUn87ZPcpw4K4esmTVSqHlVx6Jf76lkSMuW
NJFu+o9A19flco6RaWdifVE2yeQEL/69ViePsSVgTwabAXXFlOZe/77Fi5GFBxpH
onFD424Q+DIH95Me4csRc77fldGj5MMFAFeIEFWmA7twwmGCVMpZh6HfyF7nv8DC
r/vrMPaPu7lCeS9Ff9HFcjjw/wdR4IIwHDLTDtwDs5cTUjcy5+aESODvSqQ531NA
jNmWvsKqe0amVfy6+h1Fp+6Gi4rq8mue393uqfNgaSHbdUrAW80ZeG74wNiAPyM/
iHiPDdrydhHd0VfCpgLvIeQUVqxhbl9Vgh9uEA==
-----END CERTIFICATE-----
