Certificate:
    Data:
        Version: 3 (0x2)
        Serial Number:
            b7:bc:82:66:9c:98:5f:39:9a:01:ae:b0:0e:b1:21:fb
        Signature Algorithm: sha256WithRSAEncryption
        Issuer: CN=team285-net
        Validity
            Not Before: Nov  3 20:44:30 2023 GMT
            Not After : Oct 18 20:44:30 2026 GMT
        Subject: CN=team285-client
        Subject Public Key Info:
            Public Key Algorithm: rsaEncryption
                Public-Key: (2048 bit)
                Modulus:
                    00:d3:9c:bd:5d:d2:ed:55:4e:2f:da:45:1e:26:6f:
                    f6:7f:b6:7b:54:74:1b:a3:3b:e4:31:de:a6:76:da:
                    6d:b3:f8:61:f8:74:e3:fa:be:78:77:bc:a5:b5:5d:
                    1a:b8:78:fc:4f:30:6a:38:c9:72:d4:e1:45:88:74:
                    3f:00:ab:21:d8:28:de:16:d2:de:5b:04:5c:d4:4a:
                    af:78:df:7a:b6:f5:82:22:2d:d4:d8:e6:ec:1c:22:
                    92:a3:ee:9b:1b:d6:74:af:2b:76:1b:58:d3:2a:33:
                    ab:a3:57:08:88:71:f9:32:ae:cb:ec:92:67:57:b2:
                    54:9e:75:1e:9f:67:7f:de:16:dc:8e:d3:23:2b:83:
                    04:dd:5c:ee:03:ba:62:68:33:8b:d7:a4:3c:db:99:
                    84:a6:1c:69:10:5e:33:60:5e:ed:9c:05:55:d7:51:
                    bb:ce:6a:7d:3d:a2:fb:e1:65:26:d7:75:de:92:0e:
                    c5:c1:11:c5:a6:de:03:f4:43:41:fa:05:7b:90:28:
                    75:87:b6:c5:e1:0a:2f:fa:3d:1b:cb:15:d2:58:bd:
                    ef:9d:81:6f:41:c5:11:38:01:3a:0d:62:82:0e:d7:
                    b2:67:68:41:e6:12:cf:5a:39:ad:f7:c0:8f:fd:5a:
                    35:af:30:11:3b:08:c2:ab:c6:51:ec:52:f6:f6:39:
                    b8:81
                Exponent: 65537 (0x10001)
        X509v3 extensions:
            X509v3 Basic Constraints: 
                CA:FALSE
            X509v3 Subject Key Identifier: 
                70:F6:E7:83:B9:31:C0:CF:6E:08:50:DB:1D:4E:DC:AE:8E:A1:C0:0A
            X509v3 Authority Key Identifier: 
                keyid:5C:F3:21:DA:20:97:E6:8C:B6:A9:D5:10:84:D6:1A:5F:7D:45:BE:26
                DirName:/CN=team285-net
                serial:47:57:72:DF:09:6B:C9:25:26:8A:D7:70:DE:1E:B9:DD:1F:AC:60:E4
            X509v3 Extended Key Usage: 
                TLS Web Client Authentication
            X509v3 Key Usage: 
                Digital Signature
    Signature Algorithm: sha256WithRSAEncryption
    Signature Value:
        0a:50:f5:b2:0f:65:21:52:35:f2:14:2b:1b:4f:da:18:03:4c:
        4f:42:e9:d4:ac:e8:4d:b2:f2:9a:9a:1e:1c:99:2a:30:6e:2f:
        85:9b:0f:05:bd:c3:50:bd:78:cf:ab:56:b9:b0:d9:9d:de:36:
        e6:fd:94:cb:e2:4b:13:dd:cb:88:54:61:22:34:43:98:28:e5:
        a6:7f:57:24:4e:d6:8b:f6:35:ec:0b:64:3d:aa:9a:15:22:28:
        db:44:b6:c4:05:74:1d:d5:67:08:00:3c:c9:00:c7:73:64:be:
        0c:c9:68:64:4a:29:e4:2b:bf:05:af:98:7d:a5:19:39:ab:da:
        7f:10:96:5b:91:89:0f:65:3d:c0:b0:2a:c0:a3:56:97:f6:49:
        1e:05:56:46:a3:88:c7:cb:64:4d:72:93:79:70:11:c0:54:a5:
        94:d4:3c:c4:04:7f:47:09:39:91:b8:56:42:a3:5b:3d:7d:c0:
        32:31:0e:a6:33:bd:c2:8b:62:bb:d5:8c:2f:cd:02:b2:a9:fb:
        8c:1a:b7:c2:96:6f:74:5a:f0:c4:64:ba:a3:4f:e3:1b:cd:97:
        8d:62:a6:09:16:70:65:98:57:0f:2b:21:5f:6a:20:93:c8:36:
        bf:3c:15:d3:18:1e:a4:a2:13:e4:c2:ae:ee:50:8d:19:f5:82:
        10:6f:4b:c2
-----BEGIN CERTIFICATE-----
MIIDXTCCAkWgAwIBAgIRALe8gmacmF85mgGusA6xIfswDQYJKoZIhvcNAQELBQAw
FjEUMBIGA1UEAwwLdGVhbTI4NS1uZXQwHhcNMjMxMTAzMjA0NDMwWhcNMjYxMDE4
MjA0NDMwWjAZMRcwFQYDVQQDDA50ZWFtMjg1LWNsaWVudDCCASIwDQYJKoZIhvcN
AQEBBQADggEPADCCAQoCggEBANOcvV3S7VVOL9pFHiZv9n+2e1R0G6M75DHepnba
bbP4Yfh04/q+eHe8pbVdGrh4/E8wajjJctThRYh0PwCrIdgo3hbS3lsEXNRKr3jf
erb1giIt1Njm7BwikqPumxvWdK8rdhtY0yozq6NXCIhx+TKuy+ySZ1eyVJ51Hp9n
f94W3I7TIyuDBN1c7gO6Ymgzi9ekPNuZhKYcaRBeM2Be7ZwFVddRu85qfT2i++Fl
Jtd13pIOxcERxabeA/RDQfoFe5AodYe2xeEKL/o9G8sV0li9752Bb0HFETgBOg1i
gg7XsmdoQeYSz1o5rffAj/1aNa8wETsIwqvGUexS9vY5uIECAwEAAaOBojCBnzAJ
BgNVHRMEAjAAMB0GA1UdDgQWBBRw9ueDuTHAz24IUNsdTtyujqHACjBRBgNVHSME
SjBIgBRc8yHaIJfmjLap1RCE1hpffUW+JqEapBgwFjEUMBIGA1UEAwwLdGVhbTI4
NS1uZXSCFEdXct8Ja8klJorXcN4eud0frGDkMBMGA1UdJQQMMAoGCCsGAQUFBwMC
MAsGA1UdDwQEAwIHgDANBgkqhkiG9w0BAQsFAAOCAQEAClD1sg9lIVI18hQrG0/a
GANMT0Lp1KzoTbLympoeHJkqMG4vhZsPBb3DUL14z6tWubDZnd425v2Uy+JLE93L
iFRhIjRDmCjlpn9XJE7Wi/Y17AtkPaqaFSIo20S2xAV0HdVnCAA8yQDHc2S+DMlo
ZEop5Cu/Ba+YfaUZOavafxCWW5GJD2U9wLAqwKNWl/ZJHgVWRqOIx8tkTXKTeXAR
wFSllNQ8xAR/Rwk5kbhWQqNbPX3AMjEOpjO9wotiu9WML80Csqn7jBq3wpZvdFrw
xGS6o0/jG82XjWKmCRZwZZhXDyshX2ogk8g2vzwV0xgepKIT5MKu7lCNGfWCEG9L
wg==
-----END CERTIFICATE-----
