Certificate:
    Data:
        Version: 3 (0x2)
        Serial Number:
            a5:03:bb:4c:fc:cf:11:ba:42:8f:e5:f0:19:4e:f1:8c
        Signature Algorithm: sha256WithRSAEncryption
        Issuer: CN=team247-net
        Validity
            Not Before: Nov  4 11:32:29 2023 GMT
            Not After : Oct 19 11:32:29 2026 GMT
        Subject: CN=team247-client
        Subject Public Key Info:
            Public Key Algorithm: rsaEncryption
                Public-Key: (2048 bit)
                Modulus:
                    00:b4:97:0b:0b:a3:fe:1d:4f:03:2a:8b:9d:da:3b:
                    8b:21:2b:f2:8b:83:17:c9:e6:c3:c0:d7:9a:7e:d7:
                    fb:2f:00:8d:41:ff:36:2f:51:0a:26:60:75:4c:d2:
                    d2:99:ad:a4:fe:86:09:99:92:96:e2:c8:bc:50:25:
                    ba:67:09:f0:5a:fd:85:03:04:f7:2e:09:95:26:2e:
                    1d:81:52:5c:e0:88:f7:74:f0:ed:ce:d2:6b:d9:ec:
                    3f:0e:64:3f:a4:9f:5e:f8:c7:64:09:87:56:90:84:
                    a8:b7:50:c6:aa:28:6a:31:19:86:9f:e2:3d:2d:fe:
                    31:55:8d:d1:9b:f0:88:53:35:c0:79:99:a0:bd:a5:
                    95:c9:67:24:73:13:e0:4e:17:f7:97:91:a9:71:65:
                    6a:0d:ff:da:f3:3f:e9:f8:d6:6e:97:3b:2c:2f:78:
                    11:d5:e7:e7:96:58:c2:27:d1:7e:c2:1a:6e:1d:91:
                    1b:bc:df:df:d0:ff:eb:59:e9:4b:63:f0:a8:9e:7b:
                    17:47:8f:85:40:fe:6a:75:ad:28:11:4e:ff:63:f4:
                    b0:8e:bf:3b:61:09:2a:66:1b:9e:46:7a:81:d1:0e:
                    38:6a:5d:b6:d8:c1:1a:32:2a:b2:ed:b9:00:68:20:
                    47:92:69:24:3f:a8:d1:3f:75:e4:de:a3:a8:9d:6c:
                    06:b5
                Exponent: 65537 (0x10001)
        X509v3 extensions:
            X509v3 Basic Constraints: 
                CA:FALSE
            X509v3 Subject Key Identifier: 
                50:06:F6:57:E5:E2:52:CE:98:FA:B1:CB:4E:0F:0D:51:03:32:13:72
            X509v3 Authority Key Identifier: 
                keyid:D8:58:52:8A:5A:28:27:96:81:76:89:47:9A:38:09:3A:EE:00:7C:4A
                DirName:/CN=team247-net
                serial:22:58:32:2C:52:05:F8:23:F1:9C:C3:31:C1:7E:B8:87:16:93:22:EE
            X509v3 Extended Key Usage: 
                TLS Web Client Authentication
            X509v3 Key Usage: 
                Digital Signature
    Signature Algorithm: sha256WithRSAEncryption
    Signature Value:
        8b:b2:8b:d8:a7:2e:5f:8b:f4:38:be:cb:ed:56:6b:62:66:b1:
        8f:16:8c:de:f1:96:ec:f0:be:3c:0a:60:5a:7e:76:4c:05:99:
        60:8f:d9:99:74:97:ce:cc:4e:a6:30:cc:73:d7:78:f6:bb:a8:
        9e:54:9d:af:cb:c5:3d:74:c1:10:a0:ff:c0:87:cf:68:a8:ff:
        85:21:be:89:f5:c9:ae:3e:7d:80:1b:42:4e:e8:0a:86:96:18:
        e6:eb:d6:ea:36:c6:ca:b1:ad:32:bb:36:f9:ec:b2:24:ee:73:
        f6:30:0a:f6:8f:14:35:ae:43:0d:63:b4:10:1a:71:da:66:15:
        b8:24:01:8c:5e:18:d8:b7:2d:61:e3:1e:e2:d3:57:bb:d0:5b:
        88:0b:60:2a:bf:86:9b:92:90:47:11:63:6d:bc:fa:f1:81:e8:
        69:eb:a7:64:96:91:15:93:ab:a5:71:c4:b9:3c:93:d5:28:d0:
        66:29:b8:81:91:58:0d:5c:3c:3f:31:db:20:fb:0c:3e:20:d3:
        99:ee:87:cc:b5:0d:43:8e:b1:50:06:00:e7:e8:04:86:86:b6:
        34:a6:e9:39:e3:66:c3:95:ac:88:6f:03:c1:6d:47:0e:eb:da:
        68:42:5c:3f:ff:3b:6f:99:b1:d3:31:98:ef:86:a7:4f:77:9f:
        f0:8c:df:99
-----BEGIN CERTIFICATE-----
MIIDXTCCAkWgAwIBAgIRAKUDu0z8zxG6Qo/l8BlO8YwwDQYJKoZIhvcNAQELBQAw
FjEUMBIGA1UEAwwLdGVhbTI0Ny1uZXQwHhcNMjMxMTA0MTEzMjI5WhcNMjYxMDE5
MTEzMjI5WjAZMRcwFQYDVQQDDA50ZWFtMjQ3LWNsaWVudDCCASIwDQYJKoZIhvcN
AQEBBQADggEPADCCAQoCggEBALSXCwuj/h1PAyqLndo7iyEr8ouDF8nmw8DXmn7X
+y8AjUH/Ni9RCiZgdUzS0pmtpP6GCZmSluLIvFAlumcJ8Fr9hQME9y4JlSYuHYFS
XOCI93Tw7c7Sa9nsPw5kP6SfXvjHZAmHVpCEqLdQxqooajEZhp/iPS3+MVWN0Zvw
iFM1wHmZoL2llclnJHMT4E4X95eRqXFlag3/2vM/6fjWbpc7LC94EdXn55ZYwifR
fsIabh2RG7zf39D/61npS2PwqJ57F0ePhUD+anWtKBFO/2P0sI6/O2EJKmYbnkZ6
gdEOOGpdttjBGjIqsu25AGggR5JpJD+o0T915N6jqJ1sBrUCAwEAAaOBojCBnzAJ
BgNVHRMEAjAAMB0GA1UdDgQWBBRQBvZX5eJSzpj6sctODw1RAzITcjBRBgNVHSME
SjBIgBTYWFKKWignloF2iUeaOAk67gB8SqEapBgwFjEUMBIGA1UEAwwLdGVhbTI0
Ny1uZXSCFCJYMixSBfgj8ZzDMcF+uIcWkyLuMBMGA1UdJQQMMAoGCCsGAQUFBwMC
MAsGA1UdDwQEAwIHgDANBgkqhkiG9w0BAQsFAAOCAQEAi7KL2KcuX4v0OL7L7VZr
YmaxjxaM3vGW7PC+PApgWn52TAWZYI/ZmXSXzsxOpjDMc9d49ruonlSdr8vFPXTB
EKD/wIfPaKj/hSG+ifXJrj59gBtCTugKhpYY5uvW6jbGyrGtMrs2+eyyJO5z9jAK
9o8UNa5DDWO0EBpx2mYVuCQBjF4Y2LctYeMe4tNXu9BbiAtgKr+Gm5KQRxFjbbz6
8YHoaeunZJaRFZOrpXHEuTyT1SjQZim4gZFYDVw8PzHbIPsMPiDTme6HzLUNQ46x
UAYA5+gEhoa2NKbpOeNmw5WsiG8DwW1HDuvaaEJcP/87b5mx0zGY74anT3ef8Izf
mQ==
-----END CERTIFICATE-----
