Certificate:
    Data:
        Version: 3 (0x2)
        Serial Number:
            ad:d3:8a:b0:4d:97:0e:2f:f4:23:da:3b:2d:94:74:61
        Signature Algorithm: sha256WithRSAEncryption
        Issuer: CN=team247-net
        Validity
            Not Before: Nov  3 20:43:48 2023 GMT
            Not After : Oct 18 20:43:48 2026 GMT
        Subject: CN=team247-server
        Subject Public Key Info:
            Public Key Algorithm: rsaEncryption
                Public-Key: (2048 bit)
                Modulus:
                    00:c7:f2:83:32:7f:78:55:ab:1c:a7:37:f2:13:f2:
                    77:ef:54:96:c5:1c:4c:94:00:ab:40:48:26:b0:9c:
                    ed:26:26:e9:98:e1:80:95:8d:62:ef:a8:2c:79:51:
                    75:ff:ed:ec:ea:d1:01:a4:10:0c:f6:f6:4c:d5:c9:
                    79:71:a0:da:93:33:96:9a:aa:bb:7a:c4:90:c6:a4:
                    01:0f:f2:78:b1:0a:3f:f1:f1:6c:47:f1:ad:8e:21:
                    60:59:4f:18:95:83:1f:05:36:8d:8f:98:b9:b1:e9:
                    f0:b8:4c:8a:ea:15:94:b9:cf:53:2b:c9:40:ed:70:
                    b8:45:d1:19:40:85:d7:39:ad:d8:82:1e:1d:72:9c:
                    83:9d:58:f3:76:bb:b1:fd:0a:d1:20:d4:81:a5:6e:
                    40:56:72:c6:f3:76:41:16:97:80:88:49:43:f2:6d:
                    12:de:ed:75:68:58:d3:d8:ea:f1:c3:86:2c:90:19:
                    96:80:79:24:29:72:3b:68:c4:8c:bd:dc:73:d5:e3:
                    e8:66:69:52:b7:49:12:19:5e:0e:2b:4d:32:cb:5f:
                    48:d4:5f:cd:bc:de:07:80:3d:26:81:3d:5c:f3:41:
                    12:30:18:89:61:a8:71:f8:d0:10:57:d7:5b:9a:29:
                    b0:ee:20:74:e5:1a:85:07:cc:37:dd:6f:b0:87:0b:
                    fd:77
                Exponent: 65537 (0x10001)
        X509v3 extensions:
            X509v3 Basic Constraints: 
                CA:FALSE
            X509v3 Subject Key Identifier: 
                7E:F9:18:B9:D3:EC:75:9B:4D:C9:A1:09:E3:DC:DF:E0:25:3F:4D:05
            X509v3 Authority Key Identifier: 
                keyid:BD:EC:4C:6C:81:21:8A:9C:F7:49:02:FD:B1:58:58:A8:55:38:8C:E9
                DirName:/CN=team247-net
                serial:15:10:85:3C:B8:36:0D:7A:39:8E:A3:23:BB:FF:15:93:3D:AA:11
            X509v3 Extended Key Usage: 
                TLS Web Server Authentication
            X509v3 Key Usage: 
                Digital Signature, Key Encipherment
            X509v3 Subject Alternative Name: 
                DNS:team247-server
    Signature Algorithm: sha256WithRSAEncryption
    Signature Value:
        7a:11:0d:c1:14:45:64:56:fe:a4:a0:94:2d:9d:d6:58:3d:bd:
        46:34:af:0d:93:6b:da:40:9d:0f:bc:2a:cb:cc:1d:90:87:43:
        de:22:12:5e:ac:6e:c6:18:33:f2:b0:f8:a4:cf:02:f9:4f:d1:
        c4:79:95:a4:40:de:7a:84:06:13:53:70:28:f6:80:9e:85:1a:
        1e:a0:4a:b0:81:fa:e0:cc:a6:f6:60:51:c5:c7:ab:ce:02:52:
        9a:20:bc:00:2b:52:73:a0:b4:b4:01:88:59:b7:08:39:3c:20:
        45:4d:97:67:b5:7b:c3:0c:29:8f:60:49:d8:d4:9f:5b:2a:78:
        44:2e:57:84:ef:38:a3:f8:1e:6a:8a:4d:ad:f2:6b:12:80:bd:
        52:f4:7b:1a:24:9f:42:80:8c:1e:bd:7d:52:72:f2:9e:3b:2d:
        60:0f:53:47:2d:57:0b:c6:8b:80:e7:87:68:6a:e2:bb:7c:8c:
        09:d0:72:f8:77:e8:be:e8:38:6f:30:fb:2a:cd:9b:ae:82:58:
        b1:b4:e0:ba:a3:56:80:bc:0c:3d:bd:b8:63:fd:0f:9a:61:e4:
        3a:3e:e7:22:6c:02:df:b5:39:4e:48:69:0e:91:33:32:51:c8:
        ab:21:db:94:84:ad:79:af:2d:de:6c:39:1f:00:32:aa:ff:a7:
        b0:1d:93:1c
-----BEGIN CERTIFICATE-----
MIIDdzCCAl+gAwIBAgIRAK3TirBNlw4v9CPaOy2UdGEwDQYJKoZIhvcNAQELBQAw
FjEUMBIGA1UEAwwLdGVhbTI0Ny1uZXQwHhcNMjMxMTAzMjA0MzQ4WhcNMjYxMDE4
MjA0MzQ4WjAZMRcwFQYDVQQDDA50ZWFtMjQ3LXNlcnZlcjCCASIwDQYJKoZIhvcN
AQEBBQADggEPADCCAQoCggEBAMfygzJ/eFWrHKc38hPyd+9UlsUcTJQAq0BIJrCc
7SYm6ZjhgJWNYu+oLHlRdf/t7OrRAaQQDPb2TNXJeXGg2pMzlpqqu3rEkMakAQ/y
eLEKP/HxbEfxrY4hYFlPGJWDHwU2jY+YubHp8LhMiuoVlLnPUyvJQO1wuEXRGUCF
1zmt2IIeHXKcg51Y83a7sf0K0SDUgaVuQFZyxvN2QRaXgIhJQ/JtEt7tdWhY09jq
8cOGLJAZloB5JClyO2jEjL3cc9Xj6GZpUrdJEhleDitNMstfSNRfzbzeB4A9JoE9
XPNBEjAYiWGocfjQEFfXW5opsO4gdOUahQfMN91vsIcL/XcCAwEAAaOBvDCBuTAJ
BgNVHRMEAjAAMB0GA1UdDgQWBBR++Ri50+x1m03JoQnj3N/gJT9NBTBQBgNVHSME
STBHgBS97ExsgSGKnPdJAv2xWFioVTiM6aEapBgwFjEUMBIGA1UEAwwLdGVhbTI0
Ny1uZXSCExUQhTy4Ng16OY6jI7v/FZM9qhEwEwYDVR0lBAwwCgYIKwYBBQUHAwEw
CwYDVR0PBAQDAgWgMBkGA1UdEQQSMBCCDnRlYW0yNDctc2VydmVyMA0GCSqGSIb3
DQEBCwUAA4IBAQB6EQ3BFEVkVv6koJQtndZYPb1GNK8Nk2vaQJ0PvCrLzB2Qh0Pe
IhJerG7GGDPysPikzwL5T9HEeZWkQN56hAYTU3Ao9oCehRoeoEqwgfrgzKb2YFHF
x6vOAlKaILwAK1JzoLS0AYhZtwg5PCBFTZdntXvDDCmPYEnY1J9bKnhELleE7zij
+B5qik2t8msSgL1S9HsaJJ9CgIwevX1ScvKeOy1gD1NHLVcLxouA54doauK7fIwJ
0HL4d+i+6DhvMPsqzZuuglixtOC6o1aAvAw9vbhj/Q+aYeQ6PucibALftTlOSGkO
kTMyUcirIduUhK15ry3ebDkfADKq/6ewHZMc
-----END CERTIFICATE-----
