Certificate:
    Data:
        Version: 3 (0x2)
        Serial Number:
            df:35:ec:ce:9a:42:59:c1:77:6d:f6:0c:90:e9:f1:16
        Signature Algorithm: sha256WithRSAEncryption
        Issuer: CN=team247-net
        Validity
            Not Before: Nov  4 10:45:18 2023 GMT
            Not After : Oct 19 10:45:18 2026 GMT
        Subject: CN=team247-server
        Subject Public Key Info:
            Public Key Algorithm: rsaEncryption
                Public-Key: (2048 bit)
                Modulus:
                    00:d9:0c:f6:3c:5f:0b:ba:60:35:62:1f:89:20:25:
                    db:f9:e2:49:1d:84:db:fb:22:e0:99:11:3c:0f:7a:
                    f8:77:84:69:5e:a6:cc:1c:c1:d6:96:30:6d:76:75:
                    9d:d7:d3:cf:63:d2:41:48:74:28:ad:12:77:df:d9:
                    61:71:7a:8d:5c:3f:6c:5c:b8:78:46:2a:e1:52:ba:
                    3e:94:07:f2:97:db:d9:f7:88:95:2f:f1:cc:a7:a5:
                    85:f3:cd:1a:2d:af:17:e4:e1:50:64:a1:55:56:d6:
                    a6:78:04:81:90:99:d4:60:5a:e3:46:1a:ac:a7:3c:
                    e5:32:55:d1:0a:c4:46:fb:57:7d:81:76:a0:2a:2b:
                    ac:21:5e:4b:b1:60:af:4a:8f:17:36:1d:96:35:51:
                    c3:a3:7d:a4:d1:c7:1b:3d:fd:30:b0:d9:61:fe:df:
                    70:68:54:61:b0:c9:e3:db:21:3e:c4:4b:eb:12:49:
                    2f:c6:ab:ef:0a:7e:44:03:b6:4d:91:61:32:6c:f7:
                    d3:b0:23:01:7f:6f:71:82:05:33:e8:83:ac:79:61:
                    f7:30:02:98:d1:b7:b9:ad:a9:52:a6:b8:eb:8b:7f:
                    b5:a9:dd:59:c4:c9:df:91:8c:f5:28:31:ef:0e:00:
                    26:27:50:af:5b:34:00:bb:66:e8:c0:92:a0:d2:b4:
                    00:e1
                Exponent: 65537 (0x10001)
        X509v3 extensions:
            X509v3 Basic Constraints: 
                CA:FALSE
            X509v3 Subject Key Identifier: 
                EA:D8:BA:BE:A4:F0:41:E2:E4:48:8A:CF:19:68:43:A9:F4:9A:4D:F0
            X509v3 Authority Key Identifier: 
                keyid:B2:CE:33:F6:A9:47:58:1C:5D:3C:B5:3E:B0:4A:4F:FE:31:75:61:35
                DirName:/CN=team247-net
                serial:1B:C3:88:B6:3D:84:AA:2A:29:52:EE:6D:D3:64:DD:AD:37:A0:A3:CB
            X509v3 Extended Key Usage: 
                TLS Web Server Authentication
            X509v3 Key Usage: 
                Digital Signature, Key Encipherment
            X509v3 Subject Alternative Name: 
                DNS:team247-server
    Signature Algorithm: sha256WithRSAEncryption
    Signature Value:
        73:f9:84:da:5b:8a:0b:b0:c0:cf:2c:9d:5b:b4:32:c1:cd:45:
        71:fd:74:6f:aa:2d:89:77:90:1f:f8:65:76:56:26:b7:41:6b:
        b5:cc:0f:97:cd:76:ae:6c:a0:89:e2:72:1f:7b:69:8f:fa:e5:
        a7:53:c2:b9:27:8a:23:f9:41:25:48:6d:b0:40:83:92:a3:7a:
        db:83:99:b5:fa:e5:d9:bb:d0:58:d7:d0:86:ba:5c:01:34:68:
        ef:04:5a:7c:ca:67:e8:9c:2c:9d:56:c8:ba:8f:0f:20:11:41:
        1b:49:a9:e5:77:e3:35:bc:87:30:0c:71:41:77:d4:b7:39:af:
        bf:f2:cb:78:d0:a2:39:cd:6d:b3:d8:f2:46:67:d9:22:53:44:
        f2:14:ca:cd:08:3c:25:6b:5f:e1:fc:90:83:e0:2d:b5:b0:40:
        c3:7d:27:5f:38:e9:92:64:b5:ee:81:4e:25:76:4a:9e:3d:92:
        bf:9c:5d:a1:0c:0e:34:6c:5c:7a:9c:e5:32:c7:76:5b:9f:aa:
        fd:2b:c7:cf:93:ab:26:8d:75:2d:56:fd:ab:b0:1a:32:70:d6:
        82:10:cc:b0:ac:5d:78:9c:d0:bf:88:78:42:aa:c4:58:a4:7d:
        5f:9b:b5:ef:f8:4e:3c:d0:5c:63:81:5d:4f:45:05:f3:79:fb:
        96:58:6f:00
-----BEGIN CERTIFICATE-----
MIIDeDCCAmCgAwIBAgIRAN817M6aQlnBd232DJDp8RYwDQYJKoZIhvcNAQELBQAw
FjEUMBIGA1UEAwwLdGVhbTI0Ny1uZXQwHhcNMjMxMTA0MTA0NTE4WhcNMjYxMDE5
MTA0NTE4WjAZMRcwFQYDVQQDDA50ZWFtMjQ3LXNlcnZlcjCCASIwDQYJKoZIhvcN
AQEBBQADggEPADCCAQoCggEBANkM9jxfC7pgNWIfiSAl2/niSR2E2/si4JkRPA96
+HeEaV6mzBzB1pYwbXZ1ndfTz2PSQUh0KK0Sd9/ZYXF6jVw/bFy4eEYq4VK6PpQH
8pfb2feIlS/xzKelhfPNGi2vF+ThUGShVVbWpngEgZCZ1GBa40YarKc85TJV0QrE
RvtXfYF2oCorrCFeS7Fgr0qPFzYdljVRw6N9pNHHGz39MLDZYf7fcGhUYbDJ49sh
PsRL6xJJL8ar7wp+RAO2TZFhMmz307AjAX9vcYIFM+iDrHlh9zACmNG3ua2pUqa4
64t/tandWcTJ35GM9Sgx7w4AJidQr1s0ALtm6MCSoNK0AOECAwEAAaOBvTCBujAJ
BgNVHRMEAjAAMB0GA1UdDgQWBBTq2Lq+pPBB4uRIis8ZaEOp9JpN8DBRBgNVHSME
SjBIgBSyzjP2qUdYHF08tT6wSk/+MXVhNaEapBgwFjEUMBIGA1UEAwwLdGVhbTI0
Ny1uZXSCFBvDiLY9hKoqKVLubdNk3a03oKPLMBMGA1UdJQQMMAoGCCsGAQUFBwMB
MAsGA1UdDwQEAwIFoDAZBgNVHREEEjAQgg50ZWFtMjQ3LXNlcnZlcjANBgkqhkiG
9w0BAQsFAAOCAQEAc/mE2luKC7DAzyydW7Qywc1Fcf10b6otiXeQH/hldlYmt0Fr
tcwPl812rmygieJyH3tpj/rlp1PCuSeKI/lBJUhtsECDkqN624OZtfrl2bvQWNfQ
hrpcATRo7wRafMpn6JwsnVbIuo8PIBFBG0mp5XfjNbyHMAxxQXfUtzmvv/LLeNCi
Oc1ts9jyRmfZIlNE8hTKzQg8JWtf4fyQg+AttbBAw30nXzjpkmS17oFOJXZKnj2S
v5xdoQwONGxcepzlMsd2W5+q/SvHz5OrJo11LVb9q7AaMnDWghDMsKxdeJzQv4h4
QqrEWKR9X5u17/hOPNBcY4FdT0UF83n7llhvAA==
-----END CERTIFICATE-----
