Certificate:
    Data:
        Version: 3 (0x2)
        Serial Number:
            24:a4:bb:93:c6:8e:c5:d9:24:14:10:34:69:27:48:51
        Signature Algorithm: sha256WithRSAEncryption
        Issuer: CN=team32-net
        Validity
            Not Before: Nov  3 20:39:48 2023 GMT
            Not After : Oct 18 20:39:48 2026 GMT
        Subject: CN=team32-server
        Subject Public Key Info:
            Public Key Algorithm: rsaEncryption
                Public-Key: (2048 bit)
                Modulus:
                    00:f6:f9:c1:fd:d0:3c:c7:15:49:b3:c3:ee:2a:b7:
                    fa:34:e1:ef:d8:7e:9f:d5:d8:c3:ab:f3:4f:ec:ce:
                    f9:b4:57:26:3b:d5:96:c0:62:a3:5b:cd:74:9a:39:
                    4d:10:41:87:15:78:0b:e8:24:a0:c3:15:a9:d1:b3:
                    31:06:39:4b:c4:1c:87:55:07:9b:9f:a0:f4:a0:51:
                    10:c6:a8:30:85:cb:ab:0e:0c:33:76:8b:12:5c:c0:
                    06:27:be:8f:81:ad:94:71:ac:ac:25:6a:7a:f4:4e:
                    b3:1f:aa:b9:2e:61:77:c5:d0:c6:67:86:01:50:60:
                    c2:bb:4a:17:e3:da:3d:35:35:49:f9:ea:1a:28:cb:
                    3c:82:88:b8:7d:45:1e:36:0f:67:53:b0:9d:73:3a:
                    47:18:7b:39:73:3c:88:07:70:8a:34:f1:e6:42:88:
                    62:f2:e0:49:e7:c5:e4:d6:7e:27:d6:5d:69:15:24:
                    3d:00:05:cc:b1:60:85:90:2a:6e:18:80:bf:e3:c6:
                    73:3e:2b:b6:ba:19:7e:49:75:95:c8:76:06:34:a8:
                    a8:fa:8f:92:51:8b:30:ca:7d:3b:cb:0e:12:99:f5:
                    28:88:a3:49:6a:7d:b9:40:49:f6:80:d5:8d:8d:2e:
                    a8:24:2f:f9:aa:1c:02:06:fe:17:c2:cc:fb:07:99:
                    1d:33
                Exponent: 65537 (0x10001)
        X509v3 extensions:
            X509v3 Basic Constraints: 
                CA:FALSE
            X509v3 Subject Key Identifier: 
                D0:6B:86:55:61:E1:B0:1C:B4:0E:94:8C:67:3C:DF:C5:15:25:AB:FC
            X509v3 Authority Key Identifier: 
                keyid:0B:D2:07:50:D5:5E:42:4F:32:1E:75:63:01:A0:83:7F:05:11:DC:B5
                DirName:/CN=team32-net
                serial:68:83:AF:6B:F0:A3:51:4D:0D:8C:CC:6A:66:52:43:C7:44:C1:4C:31
            X509v3 Extended Key Usage: 
                TLS Web Server Authentication
            X509v3 Key Usage: 
                Digital Signature, Key Encipherment
            X509v3 Subject Alternative Name: 
                DNS:team32-server
    Signature Algorithm: sha256WithRSAEncryption
    Signature Value:
        08:00:98:56:cd:d5:ae:8f:06:7d:7e:1d:83:fe:19:7d:27:32:
        c3:c5:f4:c3:7e:6b:78:51:8c:8c:1d:93:de:29:11:c4:06:02:
        08:ab:79:18:b1:89:a8:ab:da:df:af:ee:9f:58:12:b6:49:19:
        ea:3a:81:da:5b:39:64:eb:fe:3e:4a:f0:04:33:01:78:12:2f:
        74:92:5a:be:c9:05:05:a1:3a:04:87:e4:fb:9d:8a:1b:32:07:
        c7:6a:9f:77:07:4d:57:09:e5:8e:99:d1:68:d1:e2:a1:ba:82:
        2f:c6:5f:84:8b:7e:4c:6c:81:80:83:9b:d7:fa:bb:80:ff:85:
        a3:aa:50:2b:26:76:c7:1e:c0:aa:7b:1c:98:66:56:0c:b8:25:
        ac:2f:04:d0:82:85:38:40:a9:c0:2e:42:b1:ea:46:01:f7:ad:
        49:a2:7f:0d:9b:3e:97:db:2f:77:eb:cc:f6:13:5a:b9:8e:d6:
        07:1e:73:0b:1b:75:73:c9:6c:27:e1:6c:4b:fe:59:80:8f:52:
        c8:1c:9a:72:c2:b6:1d:0a:1b:1c:32:54:be:ef:80:fa:66:15:
        6d:ba:9c:8c:21:bd:eb:fe:74:dc:17:4d:58:43:6e:f3:ff:f5:
        b3:e6:a5:ac:d6:0b:97:72:8e:42:24:62:ac:dc:27:b9:08:0e:
        47:11:a5:3f
-----BEGIN CERTIFICATE-----
MIIDczCCAlugAwIBAgIQJKS7k8aOxdkkFBA0aSdIUTANBgkqhkiG9w0BAQsFADAV
MRMwEQYDVQQDDAp0ZWFtMzItbmV0MB4XDTIzMTEwMzIwMzk0OFoXDTI2MTAxODIw
Mzk0OFowGDEWMBQGA1UEAwwNdGVhbTMyLXNlcnZlcjCCASIwDQYJKoZIhvcNAQEB
BQADggEPADCCAQoCggEBAPb5wf3QPMcVSbPD7iq3+jTh79h+n9XYw6vzT+zO+bRX
JjvVlsBio1vNdJo5TRBBhxV4C+gkoMMVqdGzMQY5S8Qch1UHm5+g9KBREMaoMIXL
qw4MM3aLElzABie+j4GtlHGsrCVqevROsx+quS5hd8XQxmeGAVBgwrtKF+PaPTU1
SfnqGijLPIKIuH1FHjYPZ1OwnXM6Rxh7OXM8iAdwijTx5kKIYvLgSefF5NZ+J9Zd
aRUkPQAFzLFghZAqbhiAv+PGcz4rtroZfkl1lch2BjSoqPqPklGLMMp9O8sOEpn1
KIijSWp9uUBJ9oDVjY0uqCQv+aocAgb+F8LM+weZHTMCAwEAAaOBuzCBuDAJBgNV
HRMEAjAAMB0GA1UdDgQWBBTQa4ZVYeGwHLQOlIxnPN/FFSWr/DBQBgNVHSMESTBH
gBQL0gdQ1V5CTzIedWMBoIN/BRHctaEZpBcwFTETMBEGA1UEAwwKdGVhbTMyLW5l
dIIUaIOva/CjUU0NjMxqZlJDx0TBTDEwEwYDVR0lBAwwCgYIKwYBBQUHAwEwCwYD
VR0PBAQDAgWgMBgGA1UdEQQRMA+CDXRlYW0zMi1zZXJ2ZXIwDQYJKoZIhvcNAQEL
BQADggEBAAgAmFbN1a6PBn1+HYP+GX0nMsPF9MN+a3hRjIwdk94pEcQGAgireRix
iair2t+v7p9YErZJGeo6gdpbOWTr/j5K8AQzAXgSL3SSWr7JBQWhOgSH5Pudihsy
B8dqn3cHTVcJ5Y6Z0WjR4qG6gi/GX4SLfkxsgYCDm9f6u4D/haOqUCsmdscewKp7
HJhmVgy4JawvBNCChThAqcAuQrHqRgH3rUmifw2bPpfbL3frzPYTWrmO1gcecwsb
dXPJbCfhbEv+WYCPUsgcmnLCth0KGxwyVL7vgPpmFW26nIwhvev+dNwXTVhDbvP/
9bPmpazWC5dyjkIkYqzcJ7kIDkcRpT8=
-----END CERTIFICATE-----
