Certificate:
    Data:
        Version: 3 (0x2)
        Serial Number:
            2c:ed:45:8d:82:8d:9e:c6:74:a4:f0:72:0d:ac:41:08
        Signature Algorithm: sha256WithRSAEncryption
        Issuer: CN=team32-net
        Validity
            Not Before: Nov  4 11:27:58 2023 GMT
            Not After : Oct 19 11:27:58 2026 GMT
        Subject: CN=team32-client
        Subject Public Key Info:
            Public Key Algorithm: rsaEncryption
                Public-Key: (2048 bit)
                Modulus:
                    00:c1:a5:5e:30:40:91:6d:56:f4:96:e6:38:6c:94:
                    48:55:3c:9e:aa:d8:0a:b4:e7:2f:2c:2e:6c:88:63:
                    94:99:e3:36:5c:62:c0:49:2a:f6:2c:ee:c3:a9:b1:
                    af:cc:d4:e8:43:6d:d0:b9:33:34:3d:31:4d:29:71:
                    63:00:54:1e:99:b7:8e:e4:56:5a:fa:c2:ad:aa:76:
                    31:9a:07:c2:ee:ce:21:87:5e:cc:51:39:55:f3:5d:
                    1f:0a:65:24:de:1c:a9:f3:f4:2e:d2:96:e3:64:a4:
                    7f:16:59:e7:ae:4b:3f:ce:65:24:da:f3:85:c6:3b:
                    fb:bb:00:c8:a8:5a:5f:0c:fe:8d:24:d5:c0:91:4c:
                    74:a7:65:36:9a:29:15:93:cf:30:5b:e0:94:b6:f7:
                    69:34:94:fd:66:db:20:80:22:23:f3:d6:75:7e:79:
                    02:33:49:5f:39:6c:20:6e:56:21:9b:b1:40:95:9b:
                    d5:34:f3:b1:00:2d:28:88:ea:3b:88:0a:e7:21:07:
                    d7:3a:a1:9f:3e:4d:89:11:f9:cf:e9:48:bb:5f:3f:
                    8b:89:49:a3:9c:fe:9a:98:bd:00:83:a7:62:c3:63:
                    25:e8:3e:e5:d5:82:60:95:1d:35:4a:78:73:f6:26:
                    e5:20:5a:bb:a4:b2:36:99:76:1a:c2:76:68:32:d5:
                    22:47
                Exponent: 65537 (0x10001)
        X509v3 extensions:
            X509v3 Basic Constraints: 
                CA:FALSE
            X509v3 Subject Key Identifier: 
                4B:BA:89:7F:9D:F1:02:AF:44:F0:94:5F:2B:97:9B:BE:F0:8E:9D:F0
            X509v3 Authority Key Identifier: 
                keyid:00:56:63:24:FC:24:33:40:07:37:1B:8D:CC:C9:10:82:27:71:70:66
                DirName:/CN=team32-net
                serial:0C:3A:7A:B9:BF:D0:98:59:F6:B3:A6:11:9B:E4:08:C0:0E:0B:48:CA
            X509v3 Extended Key Usage: 
                TLS Web Client Authentication
            X509v3 Key Usage: 
                Digital Signature
    Signature Algorithm: sha256WithRSAEncryption
    Signature Value:
        22:99:5d:d9:f4:1c:b5:ea:f5:9f:23:0d:8e:7a:b4:ef:ec:64:
        e3:29:e1:d4:7c:97:56:16:6b:db:fc:0d:49:a9:be:ae:79:f0:
        07:88:b8:1a:32:97:f6:11:cd:e1:2c:f8:a1:eb:37:d0:97:2b:
        9d:db:ad:75:1c:8c:d2:a7:a0:84:b4:9a:54:6d:cb:9a:03:be:
        e8:b9:00:49:47:2b:74:1d:3a:3f:90:44:47:a1:fb:0d:d6:c6:
        a7:db:3d:74:36:2b:1c:53:9b:f4:03:7f:3f:f2:90:42:10:9f:
        c7:4a:44:3f:8e:d4:3f:c3:b3:ed:84:a0:35:6d:18:72:d5:cc:
        9f:30:df:41:77:f1:5e:78:0c:ac:0a:f5:38:6c:2d:5a:06:90:
        7f:32:3a:5a:bd:cb:ad:5f:06:0c:41:e5:1d:91:87:04:e1:3d:
        8e:ce:76:1c:49:16:d1:99:d1:5c:d9:f3:c4:24:b6:ba:bf:13:
        b2:99:b1:3c:3d:d4:29:80:3b:d9:ab:d6:c2:cb:a0:46:6e:ef:
        c7:0f:c5:a3:10:7e:3d:38:bd:33:bb:db:b7:d7:44:a3:17:4e:
        82:9a:c3:b4:65:0e:5a:1c:30:11:9f:55:3b:f8:c5:fa:2b:10:
        a6:d9:19:1b:76:99:1a:da:e9:8d:f3:e6:a7:01:1c:c9:7d:14:
        2b:68:53:5d
-----BEGIN CERTIFICATE-----
MIIDWTCCAkGgAwIBAgIQLO1FjYKNnsZ0pPByDaxBCDANBgkqhkiG9w0BAQsFADAV
MRMwEQYDVQQDDAp0ZWFtMzItbmV0MB4XDTIzMTEwNDExMjc1OFoXDTI2MTAxOTEx
Mjc1OFowGDEWMBQGA1UEAwwNdGVhbTMyLWNsaWVudDCCASIwDQYJKoZIhvcNAQEB
BQADggEPADCCAQoCggEBAMGlXjBAkW1W9JbmOGyUSFU8nqrYCrTnLywubIhjlJnj
NlxiwEkq9izuw6mxr8zU6ENt0LkzND0xTSlxYwBUHpm3juRWWvrCrap2MZoHwu7O
IYdezFE5VfNdHwplJN4cqfP0LtKW42SkfxZZ565LP85lJNrzhcY7+7sAyKhaXwz+
jSTVwJFMdKdlNpopFZPPMFvglLb3aTSU/WbbIIAiI/PWdX55AjNJXzlsIG5WIZux
QJWb1TTzsQAtKIjqO4gK5yEH1zqhnz5NiRH5z+lIu18/i4lJo5z+mpi9AIOnYsNj
Jeg+5dWCYJUdNUp4c/Ym5SBau6SyNpl2GsJ2aDLVIkcCAwEAAaOBoTCBnjAJBgNV
HRMEAjAAMB0GA1UdDgQWBBRLuol/nfECr0TwlF8rl5u+8I6d8DBQBgNVHSMESTBH
gBQAVmMk/CQzQAc3G43MyRCCJ3FwZqEZpBcwFTETMBEGA1UEAwwKdGVhbTMyLW5l
dIIUDDp6ub/QmFn2s6YRm+QIwA4LSMowEwYDVR0lBAwwCgYIKwYBBQUHAwIwCwYD
VR0PBAQDAgeAMA0GCSqGSIb3DQEBCwUAA4IBAQAimV3Z9By16vWfIw2OerTv7GTj
KeHUfJdWFmvb/A1Jqb6uefAHiLgaMpf2Ec3hLPih6zfQlyud2611HIzSp6CEtJpU
bcuaA77ouQBJRyt0HTo/kERHofsN1san2z10NiscU5v0A38/8pBCEJ/HSkQ/jtQ/
w7PthKA1bRhy1cyfMN9Bd/FeeAysCvU4bC1aBpB/MjpavcutXwYMQeUdkYcE4T2O
znYcSRbRmdFc2fPEJLa6vxOymbE8PdQpgDvZq9bCy6BGbu/HD8WjEH49OL0zu9u3
10SjF06CmsO0ZQ5aHDARn1U7+MX6KxCm2Rkbdpka2umN8+anARzJfRQraFNd
-----END CERTIFICATE-----
