Certificate:
    Data:
        Version: 3 (0x2)
        Serial Number:
            a8:e5:55:17:1b:f0:9e:37:74:10:1c:78:db:51:aa:ed
        Signature Algorithm: sha256WithRSAEncryption
        Issuer: CN=team32-net
        Validity
            Not Before: Nov  4 10:40:49 2023 GMT
            Not After : Oct 19 10:40:49 2026 GMT
        Subject: CN=team32-server
        Subject Public Key Info:
            Public Key Algorithm: rsaEncryption
                Public-Key: (2048 bit)
                Modulus:
                    00:cb:d8:bb:fe:12:9a:11:ff:89:75:13:76:86:97:
                    f4:a3:0d:24:c7:f9:f1:11:09:77:5f:cd:ec:34:64:
                    15:96:10:7c:35:8f:ee:e5:5d:b4:8c:b7:a8:53:bc:
                    50:c3:a0:a1:cd:7b:20:02:d5:f7:4c:ce:ac:25:76:
                    71:59:eb:db:85:db:8f:42:c1:95:0b:6e:1e:d3:39:
                    f9:2c:de:2a:ec:5a:ca:24:73:9a:26:65:ee:65:1f:
                    23:ba:0f:be:7d:19:af:08:3f:df:a0:fc:e6:ad:a6:
                    1d:de:1a:4b:26:e3:bb:47:72:5a:05:4d:b2:9c:0e:
                    84:1b:25:62:bb:2f:8f:f0:b5:fb:3c:57:8a:a1:fc:
                    b3:13:32:09:75:ae:eb:57:1f:b6:93:51:13:88:cb:
                    e0:40:08:00:3d:aa:e8:b1:d2:66:0a:21:66:fa:c1:
                    c7:c4:c2:25:20:40:fb:99:96:95:fd:61:86:c2:69:
                    7c:e3:15:4d:fe:52:19:0b:66:56:9d:ca:50:8f:c1:
                    aa:29:30:21:c5:b4:b6:10:99:33:ac:31:d4:c6:5d:
                    6d:14:9e:99:1c:db:3a:ef:a7:5d:bc:fa:da:6f:58:
                    1a:f2:5a:10:37:32:27:76:d2:24:29:b7:8c:3d:73:
                    24:f8:8c:ff:5f:d8:ff:55:87:e3:1d:33:36:35:84:
                    a6:7f
                Exponent: 65537 (0x10001)
        X509v3 extensions:
            X509v3 Basic Constraints: 
                CA:FALSE
            X509v3 Subject Key Identifier: 
                62:22:8A:C5:3A:FF:D5:C8:10:CB:4A:1D:1C:0E:64:5D:6E:69:63:C5
            X509v3 Authority Key Identifier: 
                keyid:7F:E5:EC:F2:16:A4:8C:D9:91:C3:1F:D0:48:87:54:C3:53:54:F5:E7
                DirName:/CN=team32-net
                serial:2A:BC:A2:CD:47:18:4D:88:1F:0A:C8:E7:E8:32:B5:A5:3B:CB:D4:30
            X509v3 Extended Key Usage: 
                TLS Web Server Authentication
            X509v3 Key Usage: 
                Digital Signature, Key Encipherment
            X509v3 Subject Alternative Name: 
                DNS:team32-server
    Signature Algorithm: sha256WithRSAEncryption
    Signature Value:
        e3:10:97:ed:d1:8b:7b:98:e6:32:43:4d:4b:eb:58:14:cd:ab:
        a2:1e:03:5b:41:65:1e:06:1e:a8:8b:9f:2c:33:99:5f:c9:a8:
        a9:f6:8b:f3:93:b8:ce:6b:74:49:a5:e8:ba:4b:33:dd:28:00:
        0e:89:c0:32:1b:e3:0c:56:af:23:c1:89:f2:d4:96:ac:1e:6a:
        30:76:66:6d:a8:9f:67:c0:53:b8:ca:cb:f6:4c:29:11:d6:f3:
        2b:54:ad:42:d6:fe:ad:21:75:c0:c5:9a:bd:47:37:ff:98:29:
        af:2c:fb:eb:e4:8c:09:3f:4d:ee:87:00:17:9f:d3:0a:0e:81:
        7c:4c:a5:33:8f:fa:63:70:a8:ac:71:a4:69:d9:78:1b:90:75:
        ef:60:c7:1c:72:26:3c:4c:b5:ee:65:c0:7d:7e:04:df:67:14:
        14:25:51:9f:0c:17:86:e6:6b:11:0e:f8:4a:b6:b0:95:bb:3f:
        15:39:62:ef:c9:a0:8a:e0:2a:30:fd:bb:23:53:45:74:67:3d:
        48:f3:40:47:c6:26:f3:f6:03:22:14:c6:03:1e:13:bc:95:7e:
        c5:b1:9e:75:cc:ec:3e:a7:99:60:7d:82:68:6f:09:a3:d1:9c:
        21:c5:6a:50:1d:4d:9a:d2:e3:5c:2f:61:4e:6e:cd:16:6b:af:
        e0:08:69:55
-----BEGIN CERTIFICATE-----
MIIDdDCCAlygAwIBAgIRAKjlVRcb8J43dBAceNtRqu0wDQYJKoZIhvcNAQELBQAw
FTETMBEGA1UEAwwKdGVhbTMyLW5ldDAeFw0yMzExMDQxMDQwNDlaFw0yNjEwMTkx
MDQwNDlaMBgxFjAUBgNVBAMMDXRlYW0zMi1zZXJ2ZXIwggEiMA0GCSqGSIb3DQEB
AQUAA4IBDwAwggEKAoIBAQDL2Lv+EpoR/4l1E3aGl/SjDSTH+fERCXdfzew0ZBWW
EHw1j+7lXbSMt6hTvFDDoKHNeyAC1fdMzqwldnFZ69uF249CwZULbh7TOfks3irs
Wsokc5omZe5lHyO6D759Ga8IP9+g/Oatph3eGksm47tHcloFTbKcDoQbJWK7L4/w
tfs8V4qh/LMTMgl1rutXH7aTUROIy+BACAA9quix0mYKIWb6wcfEwiUgQPuZlpX9
YYbCaXzjFU3+UhkLZladylCPwaopMCHFtLYQmTOsMdTGXW0Unpkc2zrvp128+tpv
WBryWhA3Mid20iQpt4w9cyT4jP9f2P9Vh+MdMzY1hKZ/AgMBAAGjgbswgbgwCQYD
VR0TBAIwADAdBgNVHQ4EFgQUYiKKxTr/1cgQy0odHA5kXW5pY8UwUAYDVR0jBEkw
R4AUf+Xs8hakjNmRwx/QSIdUw1NU9eehGaQXMBUxEzARBgNVBAMMCnRlYW0zMi1u
ZXSCFCq8os1HGE2IHwrI5+gytaU7y9QwMBMGA1UdJQQMMAoGCCsGAQUFBwMBMAsG
A1UdDwQEAwIFoDAYBgNVHREEETAPgg10ZWFtMzItc2VydmVyMA0GCSqGSIb3DQEB
CwUAA4IBAQDjEJft0Yt7mOYyQ01L61gUzauiHgNbQWUeBh6oi58sM5lfyaip9ovz
k7jOa3RJpei6SzPdKAAOicAyG+MMVq8jwYny1JasHmowdmZtqJ9nwFO4ysv2TCkR
1vMrVK1C1v6tIXXAxZq9Rzf/mCmvLPvr5IwJP03uhwAXn9MKDoF8TKUzj/pjcKis
caRp2XgbkHXvYMccciY8TLXuZcB9fgTfZxQUJVGfDBeG5msRDvhKtrCVuz8VOWLv
yaCK4Cow/bsjU0V0Zz1I80BHxibz9gMiFMYDHhO8lX7FsZ51zOw+p5lgfYJobwmj
0ZwhxWpQHU2a0uNcL2FObs0Wa6/gCGlV
-----END CERTIFICATE-----
