Certificate:
    Data:
        Version: 3 (0x2)
        Serial Number:
            ab:da:55:60:5f:46:9d:26:e0:79:93:97:a8:bf:51:ae
        Signature Algorithm: sha256WithRSAEncryption
        Issuer: CN=team32-net
        Validity
            Not Before: Nov  4 11:27:59 2023 GMT
            Not After : Oct 19 11:27:59 2026 GMT
        Subject: CN=team32-server
        Subject Public Key Info:
            Public Key Algorithm: rsaEncryption
                Public-Key: (2048 bit)
                Modulus:
                    00:d8:05:36:38:54:0e:98:0a:ea:38:3e:18:89:87:
                    ca:08:a9:8a:65:77:e4:48:89:3b:2d:23:d1:fc:23:
                    df:aa:dc:08:d0:e1:cb:2b:59:dd:d2:19:80:e2:50:
                    ab:65:f1:12:0e:96:7a:d9:4a:ed:14:e9:e9:57:52:
                    78:1b:3c:8e:39:76:c3:f6:e7:10:78:6c:1d:3f:66:
                    3e:33:65:7b:bd:b2:eb:cd:32:35:8f:c1:56:f7:df:
                    66:84:0b:12:36:3f:5a:7f:50:43:d1:00:79:9b:dd:
                    9d:33:2e:1f:71:3a:18:dd:37:92:e4:8b:31:dd:d0:
                    a8:4e:e4:9c:06:32:1d:ff:da:6d:1e:d1:6c:9e:48:
                    5f:f6:62:0d:82:cd:81:2c:17:dd:67:b7:3b:62:c4:
                    7b:5e:6b:87:dc:24:73:e8:77:d5:1e:00:a9:5f:e8:
                    f4:b6:52:0e:5e:35:63:77:d4:e2:df:00:0f:f3:cf:
                    6b:dd:09:ae:7c:88:5a:04:cc:1b:ff:be:16:cf:38:
                    28:28:15:68:89:9a:b4:6a:91:1e:80:4b:55:4e:34:
                    b7:3e:f1:6c:5a:8a:5b:ab:bc:3e:19:e6:9b:ee:bc:
                    39:7c:dd:d5:58:7e:cc:7e:93:cb:4e:b3:99:84:ff:
                    6b:d6:91:fe:4e:d8:39:06:ec:6a:b9:ed:19:df:ae:
                    14:09
                Exponent: 65537 (0x10001)
        X509v3 extensions:
            X509v3 Basic Constraints: 
                CA:FALSE
            X509v3 Subject Key Identifier: 
                5C:05:D8:A1:F4:DC:84:71:9C:28:90:F1:75:1A:5A:39:4A:8D:37:C7
            X509v3 Authority Key Identifier: 
                keyid:00:56:63:24:FC:24:33:40:07:37:1B:8D:CC:C9:10:82:27:71:70:66
                DirName:/CN=team32-net
                serial:0C:3A:7A:B9:BF:D0:98:59:F6:B3:A6:11:9B:E4:08:C0:0E:0B:48:CA
            X509v3 Extended Key Usage: 
                TLS Web Server Authentication
            X509v3 Key Usage: 
                Digital Signature, Key Encipherment
            X509v3 Subject Alternative Name: 
                DNS:team32-server
    Signature Algorithm: sha256WithRSAEncryption
    Signature Value:
        7a:94:0e:f2:7f:f4:d4:78:c5:b9:1f:18:9d:25:ea:1d:b8:b1:
        f0:d2:70:0c:35:14:a4:21:1a:29:35:e3:1e:b4:bf:fb:67:00:
        d4:f2:e6:fc:77:59:5d:7e:1a:ce:c6:66:18:be:ee:18:03:86:
        14:4f:87:ec:97:51:29:c7:12:88:92:2e:f9:ec:e2:65:ad:cd:
        4b:bd:06:53:60:eb:ef:28:45:2e:17:f7:6c:92:ca:62:94:a4:
        32:6f:19:8d:93:86:2c:ee:52:18:58:68:f7:93:1e:85:12:79:
        78:81:54:46:e8:09:a9:7e:56:f4:4c:cb:ce:bc:bd:35:1f:7b:
        88:b4:cf:e9:57:80:58:72:07:0e:b3:72:3a:82:86:0c:13:d1:
        0a:9d:5e:fe:c2:73:cb:67:48:78:d2:55:c3:8f:de:10:90:a5:
        0e:1c:f2:fd:11:29:57:66:a0:eb:85:cc:46:70:8b:bd:55:31:
        59:be:f3:c5:17:65:0d:14:e4:39:ec:79:9e:f3:56:96:e3:9c:
        d7:a0:4b:5a:23:31:ec:63:a7:25:e6:f0:3c:d4:f0:26:27:59:
        80:20:ce:09:b5:9d:87:6b:4a:68:29:76:70:64:d0:34:f8:a9:
        39:7c:01:06:ad:09:f2:2c:e9:72:f1:3d:9b:ce:8f:3c:b8:fd:
        97:74:e5:f8
-----BEGIN CERTIFICATE-----
MIIDdDCCAlygAwIBAgIRAKvaVWBfRp0m4HmTl6i/Ua4wDQYJKoZIhvcNAQELBQAw
FTETMBEGA1UEAwwKdGVhbTMyLW5ldDAeFw0yMzExMDQxMTI3NTlaFw0yNjEwMTkx
MTI3NTlaMBgxFjAUBgNVBAMMDXRlYW0zMi1zZXJ2ZXIwggEiMA0GCSqGSIb3DQEB
AQUAA4IBDwAwggEKAoIBAQDYBTY4VA6YCuo4PhiJh8oIqYpld+RIiTstI9H8I9+q
3AjQ4csrWd3SGYDiUKtl8RIOlnrZSu0U6elXUngbPI45dsP25xB4bB0/Zj4zZXu9
suvNMjWPwVb332aECxI2P1p/UEPRAHmb3Z0zLh9xOhjdN5LkizHd0KhO5JwGMh3/
2m0e0WyeSF/2Yg2CzYEsF91ntztixHtea4fcJHPod9UeAKlf6PS2Ug5eNWN31OLf
AA/zz2vdCa58iFoEzBv/vhbPOCgoFWiJmrRqkR6AS1VONLc+8WxailurvD4Z5pvu
vDl83dVYfsx+k8tOs5mE/2vWkf5O2DkG7Gq57RnfrhQJAgMBAAGjgbswgbgwCQYD
VR0TBAIwADAdBgNVHQ4EFgQUXAXYofTchHGcKJDxdRpaOUqNN8cwUAYDVR0jBEkw
R4AUAFZjJPwkM0AHNxuNzMkQgidxcGahGaQXMBUxEzARBgNVBAMMCnRlYW0zMi1u
ZXSCFAw6erm/0JhZ9rOmEZvkCMAOC0jKMBMGA1UdJQQMMAoGCCsGAQUFBwMBMAsG
A1UdDwQEAwIFoDAYBgNVHREEETAPgg10ZWFtMzItc2VydmVyMA0GCSqGSIb3DQEB
CwUAA4IBAQB6lA7yf/TUeMW5HxidJeoduLHw0nAMNRSkIRopNeMetL/7ZwDU8ub8
d1ldfhrOxmYYvu4YA4YUT4fsl1EpxxKIki757OJlrc1LvQZTYOvvKEUuF/dskspi
lKQybxmNk4Ys7lIYWGj3kx6FEnl4gVRG6Ampflb0TMvOvL01H3uItM/pV4BYcgcO
s3I6goYME9EKnV7+wnPLZ0h40lXDj94QkKUOHPL9ESlXZqDrhcxGcIu9VTFZvvPF
F2UNFOQ57Hme81aW45zXoEtaIzHsY6cl5vA81PAmJ1mAIM4JtZ2Ha0poKXZwZNA0
+Kk5fAEGrQnyLOly8T2bzo88uP2XdOX4
-----END CERTIFICATE-----
