Certificate:
    Data:
        Version: 3 (0x2)
        Serial Number:
            8b:bd:2d:a7:4e:1f:9e:5c:07:b5:a7:6a:b5:a2:70:a4
        Signature Algorithm: sha256WithRSAEncryption
        Issuer: CN=team166-net
        Validity
            Not Before: Nov  3 20:42:13 2023 GMT
            Not After : Oct 18 20:42:13 2026 GMT
        Subject: CN=team166-client
        Subject Public Key Info:
            Public Key Algorithm: rsaEncryption
                Public-Key: (2048 bit)
                Modulus:
                    00:d7:f6:cc:59:95:f3:15:8a:83:11:f4:29:45:3f:
                    b9:d0:0c:3e:0a:63:e3:b9:34:f1:b2:fa:ce:af:82:
                    3b:2f:06:e3:11:2a:08:08:e6:09:23:0e:51:bf:ed:
                    21:6f:09:02:83:e7:3d:43:40:83:6c:31:d1:dc:fd:
                    ac:42:ed:df:bd:4a:b5:63:20:52:a0:bf:98:3e:c1:
                    8c:c9:ba:98:f7:d7:fa:33:88:87:bb:e6:7b:5c:95:
                    86:85:ff:eb:5e:21:59:0b:84:77:32:0b:4d:07:41:
                    29:02:67:1c:f7:3d:5c:44:32:a7:fb:5a:a8:2b:8b:
                    3a:de:26:f5:5c:9a:e3:ce:7f:74:21:34:a2:d2:1b:
                    05:2a:b5:a6:93:5f:ff:d0:3b:a0:ae:6d:15:0b:1d:
                    13:33:fc:d3:b0:3a:59:9e:a1:bc:b8:30:28:45:31:
                    39:7e:0b:24:40:16:a3:e3:70:ee:f2:e4:2a:cf:1d:
                    47:b9:0b:78:53:d8:09:58:0e:5d:4d:26:77:5a:eb:
                    61:a1:bb:69:78:bd:17:8f:db:98:9f:4d:1e:63:24:
                    42:b5:96:03:3b:95:c2:d7:18:3e:f7:f6:cd:52:92:
                    83:60:dd:de:98:de:b3:7e:02:90:cf:00:ae:1f:82:
                    ff:35:8c:90:e2:63:7d:60:4b:19:00:ce:41:d3:b6:
                    40:6d
                Exponent: 65537 (0x10001)
        X509v3 extensions:
            X509v3 Basic Constraints: 
                CA:FALSE
            X509v3 Subject Key Identifier: 
                67:C5:7E:D3:11:9E:81:BF:16:8C:AB:56:99:2F:65:B2:0D:47:8B:16
            X509v3 Authority Key Identifier: 
                keyid:91:06:88:C9:BA:66:68:47:63:EC:50:89:07:CE:93:5C:64:4A:6D:1B
                DirName:/CN=team166-net
                serial:06:1F:30:EA:16:7D:99:DE:51:6F:1B:1F:5F:DA:7E:FF:C0:D4:90:D0
            X509v3 Extended Key Usage: 
                TLS Web Client Authentication
            X509v3 Key Usage: 
                Digital Signature
    Signature Algorithm: sha256WithRSAEncryption
    Signature Value:
        43:46:f8:e8:e4:7b:32:ee:21:0d:cc:99:06:2e:7d:1f:15:20:
        dd:1f:1a:ba:2e:5f:67:ad:fb:64:5f:a1:d6:86:19:13:1d:ed:
        5c:19:0b:67:31:5d:4b:9c:95:7d:d1:43:91:71:45:31:5a:58:
        89:ea:b9:b9:ec:ab:c1:01:01:ed:36:52:a3:a8:2f:84:9c:ab:
        32:a1:45:aa:94:be:08:75:d7:c7:39:e8:c5:5f:71:27:ff:a9:
        b4:7a:0d:ff:37:d5:13:a1:4a:cc:c5:45:c8:d6:ab:71:0f:d4:
        69:40:b3:f3:dd:96:fc:a0:f0:02:d0:b5:cf:00:0f:5a:94:71:
        f4:ef:b6:7e:a3:8a:94:4e:a6:60:80:7b:d8:b2:ac:32:93:06:
        94:8c:ce:dc:d8:4e:7d:38:37:76:95:2d:67:ef:c0:ba:66:2c:
        63:15:92:e7:8b:44:69:92:c1:11:25:2e:41:f4:81:74:a5:51:
        70:0f:bf:0d:d0:fd:42:5c:09:cb:ef:bb:a2:ae:af:89:c2:c7:
        3a:4c:73:bb:9a:6f:31:22:7c:e4:4e:cd:93:7b:9b:ef:5b:b0:
        f2:97:da:4a:f6:f3:8d:a6:f4:82:c6:6f:8a:a4:d8:50:1d:c9:
        3a:22:61:88:29:9a:a6:4c:87:76:cb:20:48:0c:22:80:22:17:
        3d:9b:2d:44
-----BEGIN CERTIFICATE-----
MIIDXTCCAkWgAwIBAgIRAIu9LadOH55cB7WnarWicKQwDQYJKoZIhvcNAQELBQAw
FjEUMBIGA1UEAwwLdGVhbTE2Ni1uZXQwHhcNMjMxMTAzMjA0MjEzWhcNMjYxMDE4
MjA0MjEzWjAZMRcwFQYDVQQDDA50ZWFtMTY2LWNsaWVudDCCASIwDQYJKoZIhvcN
AQEBBQADggEPADCCAQoCggEBANf2zFmV8xWKgxH0KUU/udAMPgpj47k08bL6zq+C
Oy8G4xEqCAjmCSMOUb/tIW8JAoPnPUNAg2wx0dz9rELt371KtWMgUqC/mD7BjMm6
mPfX+jOIh7vme1yVhoX/614hWQuEdzILTQdBKQJnHPc9XEQyp/taqCuLOt4m9Vya
485/dCE0otIbBSq1ppNf/9A7oK5tFQsdEzP807A6WZ6hvLgwKEUxOX4LJEAWo+Nw
7vLkKs8dR7kLeFPYCVgOXU0md1rrYaG7aXi9F4/bmJ9NHmMkQrWWAzuVwtcYPvf2
zVKSg2Dd3pjes34CkM8Arh+C/zWMkOJjfWBLGQDOQdO2QG0CAwEAAaOBojCBnzAJ
BgNVHRMEAjAAMB0GA1UdDgQWBBRnxX7TEZ6BvxaMq1aZL2WyDUeLFjBRBgNVHSME
SjBIgBSRBojJumZoR2PsUIkHzpNcZEptG6EapBgwFjEUMBIGA1UEAwwLdGVhbTE2
Ni1uZXSCFAYfMOoWfZneUW8bH1/afv/A1JDQMBMGA1UdJQQMMAoGCCsGAQUFBwMC
MAsGA1UdDwQEAwIHgDANBgkqhkiG9w0BAQsFAAOCAQEAQ0b46OR7Mu4hDcyZBi59
HxUg3R8aui5fZ637ZF+h1oYZEx3tXBkLZzFdS5yVfdFDkXFFMVpYieq5ueyrwQEB
7TZSo6gvhJyrMqFFqpS+CHXXxznoxV9xJ/+ptHoN/zfVE6FKzMVFyNarcQ/UaUCz
892W/KDwAtC1zwAPWpRx9O+2fqOKlE6mYIB72LKsMpMGlIzO3NhOfTg3dpUtZ+/A
umYsYxWS54tEaZLBESUuQfSBdKVRcA+/DdD9QlwJy++7oq6vicLHOkxzu5pvMSJ8
5E7Nk3ub71uw8pfaSvbzjab0gsZviqTYUB3JOiJhiCmapkyHdssgSAwigCIXPZst
RA==
-----END CERTIFICATE-----
