Certificate:
    Data:
        Version: 3 (0x2)
        Serial Number:
            4d:23:ef:35:e7:87:db:22:48:84:ef:d4:ba:6c:2f:9c
        Signature Algorithm: sha256WithRSAEncryption
        Issuer: CN=team54-net
        Validity
            Not Before: Nov  4 10:41:14 2023 GMT
            Not After : Oct 19 10:41:14 2026 GMT
        Subject: CN=team54-server
        Subject Public Key Info:
            Public Key Algorithm: rsaEncryption
                Public-Key: (2048 bit)
                Modulus:
                    00:a9:d6:94:66:27:a7:c6:31:92:15:82:90:52:f6:
                    c6:27:60:fd:b2:37:77:2a:72:20:ab:c5:4c:09:60:
                    74:fa:1a:e5:dc:b9:50:41:8c:45:0b:98:be:f9:17:
                    1e:6f:61:47:8e:7d:f4:d9:47:f0:c4:30:56:c6:2c:
                    e0:43:e6:98:8e:37:6b:01:98:5b:13:ba:d9:21:bc:
                    5b:5a:25:e5:bf:66:3b:3e:20:10:95:db:31:90:98:
                    8f:06:72:9d:ad:78:c2:cf:ae:3c:ea:1e:5f:ad:6a:
                    13:ce:f5:e0:d4:09:94:b3:ef:0e:68:38:f2:4f:17:
                    dd:17:d8:63:35:49:5d:da:e4:4d:0d:23:92:3c:21:
                    76:1d:b3:a4:c5:fb:26:99:39:8e:df:75:8b:00:93:
                    51:86:d7:a9:44:30:c5:94:da:18:e1:a8:a7:b8:b8:
                    d2:e7:ec:5e:37:b3:6b:6d:76:4b:66:9c:e5:d6:0c:
                    0e:3d:37:ed:d1:a4:c9:dd:a6:be:96:03:01:91:1d:
                    b0:8f:9e:3f:3f:d2:65:50:4f:3a:b9:44:9c:02:78:
                    dc:0d:a5:25:07:80:0d:68:4a:ac:2e:e5:a2:57:33:
                    5e:88:22:6f:94:a7:fa:8c:12:4c:3d:fa:74:d5:04:
                    00:0f:d5:90:52:dd:aa:78:bc:e3:46:f7:59:45:f2:
                    7b:a5
                Exponent: 65537 (0x10001)
        X509v3 extensions:
            X509v3 Basic Constraints: 
                CA:FALSE
            X509v3 Subject Key Identifier: 
                4A:A6:BE:E1:27:7F:60:0A:3E:84:E0:A6:D2:77:A7:17:AC:30:17:A1
            X509v3 Authority Key Identifier: 
                keyid:96:1E:EF:20:3E:A2:B7:77:C6:5E:8B:B4:56:4E:5C:A2:69:18:3E:8B
                DirName:/CN=team54-net
                serial:64:44:C5:5A:6B:E6:4C:DA:9D:26:66:9D:61:4E:38:80:EE:8B:B2:56
            X509v3 Extended Key Usage: 
                TLS Web Server Authentication
            X509v3 Key Usage: 
                Digital Signature, Key Encipherment
            X509v3 Subject Alternative Name: 
                DNS:team54-server
    Signature Algorithm: sha256WithRSAEncryption
    Signature Value:
        09:6f:d9:6a:6b:66:ea:c5:8a:26:bf:9a:b8:27:1d:77:d6:23:
        1d:69:0a:0b:a8:dd:c4:27:c8:11:5e:e4:09:e2:57:78:27:cf:
        f1:ec:b9:1f:80:76:ad:51:89:7e:0a:59:d4:9a:9c:95:de:b7:
        c4:d3:0c:6a:81:27:a6:53:a6:8e:be:81:24:43:de:9d:05:db:
        08:b4:a4:7d:04:a7:e5:3d:f7:b6:a2:0d:c5:31:85:bb:ad:d0:
        db:78:72:1b:b6:be:2c:db:d9:32:8a:99:0c:d4:fe:bf:f0:42:
        7a:6a:db:23:7c:b1:78:54:99:a4:22:c7:37:d6:31:c1:49:c0:
        0c:c9:3f:b4:6c:d9:d2:d4:ce:f8:78:2c:52:91:90:7f:dc:62:
        c1:c1:f4:84:f7:76:66:0c:bd:2b:0d:0e:cb:0b:78:76:ed:6b:
        af:ef:e2:00:ba:b9:49:5c:4d:b3:0e:f5:5d:0f:e7:58:dc:1f:
        02:ec:07:c0:f4:12:51:d6:76:eb:f5:ec:bc:ca:4f:d8:a2:62:
        7e:c6:f9:c0:70:52:ea:41:c9:54:94:d7:2b:d3:07:3c:f4:1f:
        4d:f7:2b:50:ae:92:1f:63:24:f0:77:33:36:71:85:74:67:29:
        67:58:a1:26:82:f5:c4:a5:20:3b:f3:fa:1d:ef:89:89:ab:0c:
        aa:73:04:de
-----BEGIN CERTIFICATE-----
MIIDczCCAlugAwIBAgIQTSPvNeeH2yJIhO/UumwvnDANBgkqhkiG9w0BAQsFADAV
MRMwEQYDVQQDDAp0ZWFtNTQtbmV0MB4XDTIzMTEwNDEwNDExNFoXDTI2MTAxOTEw
NDExNFowGDEWMBQGA1UEAwwNdGVhbTU0LXNlcnZlcjCCASIwDQYJKoZIhvcNAQEB
BQADggEPADCCAQoCggEBAKnWlGYnp8YxkhWCkFL2xidg/bI3dypyIKvFTAlgdPoa
5dy5UEGMRQuYvvkXHm9hR4599NlH8MQwVsYs4EPmmI43awGYWxO62SG8W1ol5b9m
Oz4gEJXbMZCYjwZyna14ws+uPOoeX61qE8714NQJlLPvDmg48k8X3RfYYzVJXdrk
TQ0jkjwhdh2zpMX7Jpk5jt91iwCTUYbXqUQwxZTaGOGop7i40ufsXjeza212S2ac
5dYMDj037dGkyd2mvpYDAZEdsI+ePz/SZVBPOrlEnAJ43A2lJQeADWhKrC7lolcz
Xogib5Sn+owSTD36dNUEAA/VkFLdqni840b3WUXye6UCAwEAAaOBuzCBuDAJBgNV
HRMEAjAAMB0GA1UdDgQWBBRKpr7hJ39gCj6E4KbSd6cXrDAXoTBQBgNVHSMESTBH
gBSWHu8gPqK3d8Zei7RWTlyiaRg+i6EZpBcwFTETMBEGA1UEAwwKdGVhbTU0LW5l
dIIUZETFWmvmTNqdJmadYU44gO6LslYwEwYDVR0lBAwwCgYIKwYBBQUHAwEwCwYD
VR0PBAQDAgWgMBgGA1UdEQQRMA+CDXRlYW01NC1zZXJ2ZXIwDQYJKoZIhvcNAQEL
BQADggEBAAlv2WprZurFiia/mrgnHXfWIx1pCguo3cQnyBFe5AniV3gnz/HsuR+A
dq1RiX4KWdSanJXet8TTDGqBJ6ZTpo6+gSRD3p0F2wi0pH0Ep+U997aiDcUxhbut
0Nt4chu2vizb2TKKmQzU/r/wQnpq2yN8sXhUmaQixzfWMcFJwAzJP7Rs2dLUzvh4
LFKRkH/cYsHB9IT3dmYMvSsNDssLeHbta6/v4gC6uUlcTbMO9V0P51jcHwLsB8D0
ElHWduv17LzKT9iiYn7G+cBwUupByVSU1yvTBzz0H033K1Cukh9jJPB3MzZxhXRn
KWdYoSaC9cSlIDvz+h3viYmrDKpzBN4=
-----END CERTIFICATE-----
