Certificate:
    Data:
        Version: 3 (0x2)
        Serial Number:
            88:ef:2e:df:70:3c:e5:08:81:3c:0d:0c:68:54:bb:f3
        Signature Algorithm: sha256WithRSAEncryption
        Issuer: CN=team54-net
        Validity
            Not Before: Nov  4 11:28:25 2023 GMT
            Not After : Oct 19 11:28:25 2026 GMT
        Subject: CN=team54-server
        Subject Public Key Info:
            Public Key Algorithm: rsaEncryption
                Public-Key: (2048 bit)
                Modulus:
                    00:db:1b:59:e4:36:ec:25:d4:c1:92:12:80:57:4a:
                    6c:66:ff:48:1b:c6:50:51:81:50:c7:4c:f6:93:eb:
                    bc:bf:46:c9:52:52:7e:ea:00:aa:13:e3:ad:c3:a1:
                    69:55:6f:a9:04:0f:39:b1:9d:9d:84:5c:8e:2b:c7:
                    ca:d9:8d:c5:c5:c5:02:66:69:fe:22:eb:b7:c9:51:
                    3a:0a:94:de:6f:99:b0:3b:0f:a6:14:79:f1:43:0c:
                    fb:f0:5b:c7:20:bd:48:b4:5a:bf:16:f1:04:85:e5:
                    b8:c7:f7:00:81:79:06:e3:38:1a:53:e1:ce:82:fb:
                    a8:20:02:cb:a8:ae:3c:26:b4:c6:dc:de:f5:ad:b1:
                    54:3b:d2:d0:60:59:68:7d:a9:2f:34:be:f2:e9:18:
                    4d:d4:c2:ba:93:b5:67:6e:15:e3:b3:a7:1b:ed:85:
                    1b:a1:b9:fe:a2:95:28:be:40:02:76:dc:98:6a:78:
                    82:88:76:ed:a5:bf:98:c8:72:4a:f0:43:b7:63:8c:
                    c5:9a:af:4d:df:8e:db:42:11:72:d0:75:f7:31:d1:
                    0d:22:44:3e:54:c0:f0:cd:70:bf:74:68:1e:35:08:
                    ff:21:b0:3d:f6:25:b7:06:ca:58:dc:35:24:6f:17:
                    fd:cb:d8:2e:3e:c7:54:15:6f:4c:4e:9f:23:9f:e5:
                    48:75
                Exponent: 65537 (0x10001)
        X509v3 extensions:
            X509v3 Basic Constraints: 
                CA:FALSE
            X509v3 Subject Key Identifier: 
                46:37:6B:1E:B2:5F:CF:01:F9:3E:9D:57:E3:FD:BD:24:42:8A:99:E7
            X509v3 Authority Key Identifier: 
                keyid:35:09:A5:3D:F1:91:F7:8D:4C:B3:31:6E:83:74:BF:0B:83:8E:DA:3A
                DirName:/CN=team54-net
                serial:1B:53:9D:B4:AA:99:E4:22:E4:3D:DB:B9:42:8D:34:E6:B1:36:53:0C
            X509v3 Extended Key Usage: 
                TLS Web Server Authentication
            X509v3 Key Usage: 
                Digital Signature, Key Encipherment
            X509v3 Subject Alternative Name: 
                DNS:team54-server
    Signature Algorithm: sha256WithRSAEncryption
    Signature Value:
        3f:8a:ca:99:4e:a5:8c:ed:a9:e2:aa:49:1a:67:c9:40:c4:a1:
        d8:ce:92:ae:6a:3c:e7:41:8d:7c:0d:73:28:ba:ca:e0:64:0c:
        c4:0e:05:86:c0:98:2b:1f:35:84:3a:94:07:17:6a:60:56:c2:
        8b:95:ef:9d:5f:97:20:bd:68:18:02:35:5d:a1:94:86:8c:9c:
        10:6d:39:31:f5:26:b7:1d:db:16:51:4e:00:3a:ab:5a:06:cf:
        65:a1:ee:81:0a:d7:6f:41:07:27:ec:86:b6:fa:f7:65:ad:25:
        c8:48:de:f4:9b:19:f1:d3:9a:f1:84:85:61:1c:b9:2c:fe:e4:
        6a:d4:e3:26:77:c8:82:70:68:23:1c:29:5f:64:ee:01:85:e8:
        c6:f0:28:43:60:86:23:e9:cb:4f:ae:39:6c:88:16:43:84:0b:
        3e:1c:e5:ff:5e:75:a4:e8:28:09:71:c3:76:78:f9:37:58:45:
        13:b9:74:20:48:bc:0a:26:61:be:0d:40:2e:5e:3f:a3:46:30:
        4f:d7:73:9c:07:c6:f1:28:56:29:a1:75:e5:5c:e0:1f:f3:88:
        29:7c:9c:cf:78:fe:a5:90:28:ba:91:ea:d5:2f:d7:e3:1b:48:
        01:01:69:be:07:78:71:b7:90:db:74:54:2d:5a:2c:3e:cb:5c:
        a3:d9:80:09
-----BEGIN CERTIFICATE-----
MIIDdDCCAlygAwIBAgIRAIjvLt9wPOUIgTwNDGhUu/MwDQYJKoZIhvcNAQELBQAw
FTETMBEGA1UEAwwKdGVhbTU0LW5ldDAeFw0yMzExMDQxMTI4MjVaFw0yNjEwMTkx
MTI4MjVaMBgxFjAUBgNVBAMMDXRlYW01NC1zZXJ2ZXIwggEiMA0GCSqGSIb3DQEB
AQUAA4IBDwAwggEKAoIBAQDbG1nkNuwl1MGSEoBXSmxm/0gbxlBRgVDHTPaT67y/
RslSUn7qAKoT463DoWlVb6kEDzmxnZ2EXI4rx8rZjcXFxQJmaf4i67fJUToKlN5v
mbA7D6YUefFDDPvwW8cgvUi0Wr8W8QSF5bjH9wCBeQbjOBpT4c6C+6ggAsuorjwm
tMbc3vWtsVQ70tBgWWh9qS80vvLpGE3UwrqTtWduFeOzpxvthRuhuf6ilSi+QAJ2
3JhqeIKIdu2lv5jIckrwQ7djjMWar03fjttCEXLQdfcx0Q0iRD5UwPDNcL90aB41
CP8hsD32JbcGyljcNSRvF/3L2C4+x1QVb0xOnyOf5Uh1AgMBAAGjgbswgbgwCQYD
VR0TBAIwADAdBgNVHQ4EFgQURjdrHrJfzwH5Pp1X4/29JEKKmecwUAYDVR0jBEkw
R4AUNQmlPfGR941MszFug3S/C4OO2jqhGaQXMBUxEzARBgNVBAMMCnRlYW01NC1u
ZXSCFBtTnbSqmeQi5D3buUKNNOaxNlMMMBMGA1UdJQQMMAoGCCsGAQUFBwMBMAsG
A1UdDwQEAwIFoDAYBgNVHREEETAPgg10ZWFtNTQtc2VydmVyMA0GCSqGSIb3DQEB
CwUAA4IBAQA/isqZTqWM7aniqkkaZ8lAxKHYzpKuajznQY18DXMousrgZAzEDgWG
wJgrHzWEOpQHF2pgVsKLle+dX5cgvWgYAjVdoZSGjJwQbTkx9Sa3HdsWUU4AOqta
Bs9loe6BCtdvQQcn7Ia2+vdlrSXISN70mxnx05rxhIVhHLks/uRq1OMmd8iCcGgj
HClfZO4BhejG8ChDYIYj6ctPrjlsiBZDhAs+HOX/XnWk6CgJccN2ePk3WEUTuXQg
SLwKJmG+DUAuXj+jRjBP13OcB8bxKFYpoXXlXOAf84gpfJzPeP6lkCi6kerVL9fj
G0gBAWm+B3hxt5DbdFQtWiw+y1yj2YAJ
-----END CERTIFICATE-----
