Certificate:
    Data:
        Version: 3 (0x2)
        Serial Number:
            37:01:a2:1f:9c:49:58:c0:87:7a:aa:23:49:4b:83:ff
        Signature Algorithm: sha256WithRSAEncryption
        Issuer: CN=team394-net
        Validity
            Not Before: Nov  3 20:46:21 2023 GMT
            Not After : Oct 18 20:46:21 2026 GMT
        Subject: CN=team394-server
        Subject Public Key Info:
            Public Key Algorithm: rsaEncryption
                Public-Key: (2048 bit)
                Modulus:
                    00:eb:0e:b4:9f:a6:1f:06:52:4d:f9:bd:b9:90:e4:
                    ac:a0:3b:fa:9a:49:ee:f2:80:bd:25:03:04:bf:f6:
                    c4:33:97:91:0a:78:c3:09:b8:22:b0:90:bd:3f:2e:
                    9d:b3:c6:2d:13:77:a3:14:4a:0e:c7:2f:04:c3:14:
                    2d:75:b4:9f:c8:02:ba:96:da:a3:a2:ea:32:8d:65:
                    e4:87:27:98:a4:28:cd:aa:8f:4b:8f:94:fe:80:26:
                    10:34:78:09:9d:65:23:b9:c9:26:d5:7f:4c:2d:1a:
                    5d:b5:a2:51:6a:77:40:7c:77:28:23:0a:5c:36:66:
                    47:4c:1d:1b:3b:7b:88:3b:ed:1d:37:f8:a3:6a:cb:
                    dd:6c:82:5b:da:6c:b5:c9:98:48:74:34:8e:2f:c1:
                    c4:89:e2:bb:bf:15:34:8f:cc:3a:ce:40:e3:01:56:
                    9f:c0:22:22:34:dc:06:93:8c:11:7c:54:a2:be:73:
                    3c:6b:a8:fe:fc:a0:00:d3:e2:41:13:3f:ca:85:7a:
                    33:b5:15:e2:5e:00:2e:2a:56:62:8b:c3:f0:93:80:
                    bc:63:75:bf:1d:98:08:08:90:e9:a7:24:cc:14:80:
                    79:6e:34:1a:91:4e:ea:1f:8b:05:a0:19:bc:78:f7:
                    df:2f:6a:60:ed:77:e0:0e:e7:fd:6a:b0:9f:b2:a3:
                    4a:27
                Exponent: 65537 (0x10001)
        X509v3 extensions:
            X509v3 Basic Constraints: 
                CA:FALSE
            X509v3 Subject Key Identifier: 
                7B:5C:79:B3:34:D6:DF:6D:76:09:E4:AD:6D:EE:30:9B:9E:1C:C0:C5
            X509v3 Authority Key Identifier: 
                keyid:16:D9:1F:BE:B2:11:D0:43:7E:82:0E:16:C4:09:02:C4:5D:58:BF:C2
                DirName:/CN=team394-net
                serial:7F:0B:F4:0B:8F:AD:C7:AB:1A:BC:AD:B2:C3:D5:62:B7:ED:B2:7A:8A
            X509v3 Extended Key Usage: 
                TLS Web Server Authentication
            X509v3 Key Usage: 
                Digital Signature, Key Encipherment
            X509v3 Subject Alternative Name: 
                DNS:team394-server
    Signature Algorithm: sha256WithRSAEncryption
    Signature Value:
        84:ec:4f:8b:5d:b5:f5:e6:ac:3b:da:0f:ca:9b:d3:27:fa:05:
        b4:a9:3f:25:06:6c:7b:99:93:f0:9d:8d:ab:c6:f9:c8:a7:9b:
        82:39:10:b9:10:c4:a1:9c:06:a9:78:80:54:7b:80:dc:44:91:
        74:de:74:21:79:87:6d:97:5a:7c:4d:77:32:81:db:1f:56:f3:
        9b:d3:6f:11:9d:04:59:98:97:0c:b6:4d:fa:32:04:74:5c:c3:
        c7:da:1b:8b:f0:e3:4f:9f:d8:02:a5:75:16:b0:eb:1d:66:1b:
        30:b0:65:73:87:d5:18:04:1c:2f:36:06:4e:d9:8a:55:88:09:
        38:e0:41:fe:c6:f6:35:fb:2f:26:0c:2c:cb:1f:9f:7a:c4:d9:
        d6:36:ee:3a:03:0d:61:10:96:17:70:ab:1c:c4:87:59:7b:c4:
        42:43:87:50:9d:b3:26:fe:d2:ff:0e:64:19:3c:34:64:b9:76:
        f9:d9:41:a2:45:e5:4f:8b:45:7f:d3:f7:f4:fa:b2:08:9f:31:
        a2:d1:ec:f8:a5:6f:3a:76:32:68:a5:61:c1:7f:38:ac:8c:43:
        9f:97:8d:f1:58:5f:dd:62:e1:aa:80:9c:f3:c0:81:f3:1d:bc:
        2f:d1:43:2d:81:cf:95:14:59:a3:d5:83:8e:8f:b0:e9:51:5e:
        4b:7c:e7:5d
-----BEGIN CERTIFICATE-----
MIIDdzCCAl+gAwIBAgIQNwGiH5xJWMCHeqojSUuD/zANBgkqhkiG9w0BAQsFADAW
MRQwEgYDVQQDDAt0ZWFtMzk0LW5ldDAeFw0yMzExMDMyMDQ2MjFaFw0yNjEwMTgy
MDQ2MjFaMBkxFzAVBgNVBAMMDnRlYW0zOTQtc2VydmVyMIIBIjANBgkqhkiG9w0B
AQEFAAOCAQ8AMIIBCgKCAQEA6w60n6YfBlJN+b25kOSsoDv6mknu8oC9JQMEv/bE
M5eRCnjDCbgisJC9Py6ds8YtE3ejFEoOxy8EwxQtdbSfyAK6ltqjouoyjWXkhyeY
pCjNqo9Lj5T+gCYQNHgJnWUjuckm1X9MLRpdtaJRandAfHcoIwpcNmZHTB0bO3uI
O+0dN/ijasvdbIJb2my1yZhIdDSOL8HEieK7vxU0j8w6zkDjAVafwCIiNNwGk4wR
fFSivnM8a6j+/KAA0+JBEz/KhXoztRXiXgAuKlZii8Pwk4C8Y3W/HZgICJDppyTM
FIB5bjQakU7qH4sFoBm8ePffL2pg7XfgDuf9arCfsqNKJwIDAQABo4G9MIG6MAkG
A1UdEwQCMAAwHQYDVR0OBBYEFHtcebM01t9tdgnkrW3uMJueHMDFMFEGA1UdIwRK
MEiAFBbZH76yEdBDfoIOFsQJAsRdWL/CoRqkGDAWMRQwEgYDVQQDDAt0ZWFtMzk0
LW5ldIIUfwv0C4+tx6savK2yw9Vit+2yeoowEwYDVR0lBAwwCgYIKwYBBQUHAwEw
CwYDVR0PBAQDAgWgMBkGA1UdEQQSMBCCDnRlYW0zOTQtc2VydmVyMA0GCSqGSIb3
DQEBCwUAA4IBAQCE7E+LXbX15qw72g/Km9Mn+gW0qT8lBmx7mZPwnY2rxvnIp5uC
ORC5EMShnAapeIBUe4DcRJF03nQheYdtl1p8TXcygdsfVvOb028RnQRZmJcMtk36
MgR0XMPH2huL8ONPn9gCpXUWsOsdZhswsGVzh9UYBBwvNgZO2YpViAk44EH+xvY1
+y8mDCzLH596xNnWNu46Aw1hEJYXcKscxIdZe8RCQ4dQnbMm/tL/DmQZPDRkuXb5
2UGiReVPi0V/0/f0+rIInzGi0ez4pW86djJopWHBfzisjEOfl43xWF/dYuGqgJzz
wIHzHbwv0UMtgc+VFFmj1YOOj7DpUV5LfOdd
-----END CERTIFICATE-----
