Certificate:
    Data:
        Version: 3 (0x2)
        Serial Number:
            c8:71:a5:c8:d9:81:46:5b:c8:19:a0:6e:7b:f9:74:86
        Signature Algorithm: sha256WithRSAEncryption
        Issuer: CN=team394-net
        Validity
            Not Before: Nov  4 11:36:23 2023 GMT
            Not After : Oct 19 11:36:23 2026 GMT
        Subject: CN=team394-server
        Subject Public Key Info:
            Public Key Algorithm: rsaEncryption
                Public-Key: (2048 bit)
                Modulus:
                    00:88:31:63:a0:d5:e6:56:53:45:d8:61:f1:19:64:
                    f9:8a:23:ae:8a:75:72:f1:b3:c0:6e:83:ce:90:42:
                    9f:a7:e4:52:cf:8e:86:f7:32:71:2f:00:ca:9f:ad:
                    c6:3b:a7:1c:ea:27:98:43:77:1b:17:97:97:05:a4:
                    2a:32:98:65:6f:3a:5b:06:14:4c:5f:39:21:97:ed:
                    62:0a:c8:2e:8b:af:8c:6f:5a:e5:c2:59:5c:ba:62:
                    9c:d7:01:e0:65:bc:da:22:76:7b:2f:33:72:77:ff:
                    8a:68:c0:15:12:cf:39:87:5d:98:dd:5e:c9:cb:3e:
                    ba:38:8b:e3:26:4e:24:8d:05:32:16:99:41:37:b4:
                    ff:24:17:d8:2f:39:a9:99:f6:bb:0c:66:f2:8b:00:
                    ef:c2:91:79:1f:e9:9b:91:04:7b:d9:3b:13:9d:6a:
                    85:8d:0c:1a:5d:be:b7:23:94:57:05:a5:87:ef:ac:
                    09:f1:eb:f0:1a:55:91:17:94:72:6f:6f:4b:d1:8e:
                    48:7d:3f:1f:ed:87:89:1d:12:8b:08:63:c7:44:9c:
                    f6:45:c9:fc:d3:fc:e7:80:cc:38:c2:e6:bd:f4:ce:
                    b5:13:5f:53:e3:d7:54:56:bf:67:69:ef:c5:dc:70:
                    1d:a2:6b:9c:1c:f8:70:ab:ab:8a:99:d7:6a:c4:d5:
                    a4:3d
                Exponent: 65537 (0x10001)
        X509v3 extensions:
            X509v3 Basic Constraints: 
                CA:FALSE
            X509v3 Subject Key Identifier: 
                BB:76:F2:09:F6:7E:25:12:E0:FB:A1:AE:AC:2F:8F:A1:EA:92:FD:74
            X509v3 Authority Key Identifier: 
                keyid:92:1F:22:F8:19:90:5C:C4:BE:96:A6:64:75:F3:AF:75:C5:2D:42:54
                DirName:/CN=team394-net
                serial:46:CD:F0:7E:52:BB:B9:83:E2:1F:34:9F:4E:CC:D5:2E:1E:00:9D:AD
            X509v3 Extended Key Usage: 
                TLS Web Server Authentication
            X509v3 Key Usage: 
                Digital Signature, Key Encipherment
            X509v3 Subject Alternative Name: 
                DNS:team394-server
    Signature Algorithm: sha256WithRSAEncryption
    Signature Value:
        62:64:a6:e4:d3:ac:5a:6c:cb:81:a4:79:67:37:ae:98:c3:38:
        99:94:85:de:9b:1e:23:07:50:21:45:f5:57:f9:7f:be:32:7e:
        18:71:d7:17:81:88:5c:54:83:8d:ba:b1:74:70:ec:2c:70:29:
        19:3b:d5:d6:ea:d2:58:04:fb:bd:78:19:e4:42:95:54:b1:60:
        63:f7:92:19:30:30:43:dd:31:c9:3c:61:ff:a1:69:30:6e:cd:
        12:7f:0a:56:63:ef:d8:f6:66:ff:ed:6a:9c:6d:9e:22:1f:84:
        c2:a5:9c:a9:a7:be:c6:b1:45:02:4f:fe:5a:41:d2:61:da:bc:
        f0:f5:1e:a2:b9:5b:64:88:47:1e:ff:25:76:2b:29:87:ae:85:
        f4:97:d6:8a:37:ce:93:02:5b:2e:72:78:ae:1a:d3:b0:ec:d4:
        7e:ec:33:50:db:08:26:c4:95:14:49:47:df:c2:0c:dd:5c:b1:
        46:53:0d:cb:f8:c1:53:6b:ae:ce:23:19:d3:ab:cd:07:15:85:
        46:59:53:be:b8:94:e2:cd:45:e8:f8:fd:0d:5e:6e:58:ef:1d:
        0f:e7:1c:5b:a9:58:06:78:68:0f:dd:95:8e:d4:da:6c:4a:fd:
        70:99:3f:3d:49:ee:bc:5b:36:09:76:75:8d:6a:37:54:80:db:
        9e:18:48:a1
-----BEGIN CERTIFICATE-----
MIIDeDCCAmCgAwIBAgIRAMhxpcjZgUZbyBmgbnv5dIYwDQYJKoZIhvcNAQELBQAw
FjEUMBIGA1UEAwwLdGVhbTM5NC1uZXQwHhcNMjMxMTA0MTEzNjIzWhcNMjYxMDE5
MTEzNjIzWjAZMRcwFQYDVQQDDA50ZWFtMzk0LXNlcnZlcjCCASIwDQYJKoZIhvcN
AQEBBQADggEPADCCAQoCggEBAIgxY6DV5lZTRdhh8Rlk+Yojrop1cvGzwG6DzpBC
n6fkUs+OhvcycS8Ayp+txjunHOonmEN3GxeXlwWkKjKYZW86WwYUTF85IZftYgrI
LouvjG9a5cJZXLpinNcB4GW82iJ2ey8zcnf/imjAFRLPOYddmN1eycs+ujiL4yZO
JI0FMhaZQTe0/yQX2C85qZn2uwxm8osA78KReR/pm5EEe9k7E51qhY0MGl2+tyOU
VwWlh++sCfHr8BpVkReUcm9vS9GOSH0/H+2HiR0Siwhjx0Sc9kXJ/NP854DMOMLm
vfTOtRNfU+PXVFa/Z2nvxdxwHaJrnBz4cKuripnXasTVpD0CAwEAAaOBvTCBujAJ
BgNVHRMEAjAAMB0GA1UdDgQWBBS7dvIJ9n4lEuD7oa6sL4+h6pL9dDBRBgNVHSME
SjBIgBSSHyL4GZBcxL6WpmR18691xS1CVKEapBgwFjEUMBIGA1UEAwwLdGVhbTM5
NC1uZXSCFEbN8H5Su7mD4h80n07M1S4eAJ2tMBMGA1UdJQQMMAoGCCsGAQUFBwMB
MAsGA1UdDwQEAwIFoDAZBgNVHREEEjAQgg50ZWFtMzk0LXNlcnZlcjANBgkqhkiG
9w0BAQsFAAOCAQEAYmSm5NOsWmzLgaR5ZzeumMM4mZSF3pseIwdQIUX1V/l/vjJ+
GHHXF4GIXFSDjbqxdHDsLHApGTvV1urSWAT7vXgZ5EKVVLFgY/eSGTAwQ90xyTxh
/6FpMG7NEn8KVmPv2PZm/+1qnG2eIh+EwqWcqae+xrFFAk/+WkHSYdq88PUeorlb
ZIhHHv8ldisph66F9JfWijfOkwJbLnJ4rhrTsOzUfuwzUNsIJsSVFElH38IM3Vyx
RlMNy/jBU2uuziMZ06vNBxWFRllTvriU4s1F6Pj9DV5uWO8dD+ccW6lYBnhoD92V
jtTabEr9cJk/PUnuvFs2CXZ1jWo3VIDbnhhIoQ==
-----END CERTIFICATE-----
