Certificate:
    Data:
        Version: 3 (0x2)
        Serial Number:
            f0:d0:c1:bc:a4:fc:26:c0:7e:7e:94:9e:4d:64:1d:0b
        Signature Algorithm: sha256WithRSAEncryption
        Issuer: CN=team394-net
        Validity
            Not Before: Nov  3 20:46:21 2023 GMT
            Not After : Oct 18 20:46:21 2026 GMT
        Subject: CN=team394-client
        Subject Public Key Info:
            Public Key Algorithm: rsaEncryption
                Public-Key: (2048 bit)
                Modulus:
                    00:c4:8c:56:85:fa:0f:76:5c:98:41:18:f9:6c:ac:
                    41:4c:61:27:92:11:7a:c8:6d:33:18:83:70:7a:49:
                    85:b0:62:d1:e5:f3:ec:60:cf:18:26:2c:77:0f:80:
                    7d:49:8b:66:b1:c0:ca:4c:f0:db:79:ec:cb:56:5e:
                    dc:eb:f8:e6:f6:d2:9d:be:4b:84:f7:fe:67:d5:aa:
                    f9:ea:44:92:92:8f:bf:f2:fc:fe:92:dd:36:49:ee:
                    f4:35:0c:18:c3:21:6f:76:0b:0a:41:6e:d2:9e:4c:
                    cc:f7:81:5a:fb:6c:a0:e3:9c:aa:96:8f:dd:62:e1:
                    c3:50:0d:ca:61:1a:76:72:dc:b7:be:83:c3:de:05:
                    eb:e2:9f:9e:39:ae:07:c4:a9:27:1c:63:e1:09:36:
                    57:f0:fd:6e:12:3e:36:bd:4d:62:c0:ea:c3:09:e4:
                    a3:9d:d4:5c:1b:30:04:d2:31:d1:a7:de:d1:80:a4:
                    43:23:da:84:30:02:fc:36:40:b2:e7:4f:df:e7:7c:
                    89:77:4e:e1:ef:7b:4e:6e:85:6b:5e:f4:41:88:ca:
                    ed:9d:2b:58:f5:da:c3:4d:3a:56:a1:69:42:70:e4:
                    98:ad:d1:19:85:c8:46:9f:9d:5a:9e:cc:86:65:69:
                    cc:71:ac:35:19:4d:d3:e7:dd:b0:35:3f:d9:09:f5:
                    5e:a3
                Exponent: 65537 (0x10001)
        X509v3 extensions:
            X509v3 Basic Constraints: 
                CA:FALSE
            X509v3 Subject Key Identifier: 
                0F:30:AB:B2:1F:58:F4:72:43:A5:05:06:33:43:E3:63:14:14:3A:1B
            X509v3 Authority Key Identifier: 
                keyid:16:D9:1F:BE:B2:11:D0:43:7E:82:0E:16:C4:09:02:C4:5D:58:BF:C2
                DirName:/CN=team394-net
                serial:7F:0B:F4:0B:8F:AD:C7:AB:1A:BC:AD:B2:C3:D5:62:B7:ED:B2:7A:8A
            X509v3 Extended Key Usage: 
                TLS Web Client Authentication
            X509v3 Key Usage: 
                Digital Signature
    Signature Algorithm: sha256WithRSAEncryption
    Signature Value:
        37:6c:4a:92:23:99:c3:65:b0:fc:9e:cb:c6:df:b5:bb:76:f9:
        0e:4b:76:07:1e:93:59:c3:3e:8b:8b:f4:4b:41:4a:79:fd:4a:
        57:7e:86:05:63:0f:23:78:10:2f:ae:67:64:28:c9:d6:95:7a:
        24:ff:69:5b:54:06:73:d5:8b:f2:bb:3f:2d:24:5a:72:75:8f:
        ae:18:7f:c6:47:b4:1a:48:8d:a1:6d:93:70:0f:33:13:43:f8:
        1a:07:36:15:3d:8f:3a:00:69:7e:fb:e6:02:67:3b:91:a3:1e:
        b1:23:b4:42:48:14:2b:b3:83:34:43:82:18:1a:61:eb:c1:9e:
        41:bf:2e:ea:5e:7b:8b:4d:70:63:94:3c:eb:94:dd:5c:6d:47:
        81:77:24:68:59:8e:31:f0:52:f0:d2:4b:bb:01:9c:0d:65:cf:
        f1:9d:8f:7d:ea:e6:dd:bd:d7:65:54:b5:99:b0:30:f6:af:99:
        6a:10:0b:f5:4a:a5:70:5a:9b:22:c9:b9:bc:27:cb:45:06:e5:
        39:31:ef:00:22:50:fd:cf:5d:d0:3d:b6:1e:da:cb:3e:24:05:
        3a:c1:13:b5:60:a6:ee:dc:42:2f:62:3d:ab:da:ea:91:64:71:
        a8:16:23:56:bc:a2:67:6d:72:9f:3f:8f:be:87:21:4e:ab:aa:
        5e:88:ee:98
-----BEGIN CERTIFICATE-----
MIIDXTCCAkWgAwIBAgIRAPDQwbyk/CbAfn6Unk1kHQswDQYJKoZIhvcNAQELBQAw
FjEUMBIGA1UEAwwLdGVhbTM5NC1uZXQwHhcNMjMxMTAzMjA0NjIxWhcNMjYxMDE4
MjA0NjIxWjAZMRcwFQYDVQQDDA50ZWFtMzk0LWNsaWVudDCCASIwDQYJKoZIhvcN
AQEBBQADggEPADCCAQoCggEBAMSMVoX6D3ZcmEEY+WysQUxhJ5IReshtMxiDcHpJ
hbBi0eXz7GDPGCYsdw+AfUmLZrHAykzw23nsy1Ze3Ov45vbSnb5LhPf+Z9Wq+epE
kpKPv/L8/pLdNknu9DUMGMMhb3YLCkFu0p5MzPeBWvtsoOOcqpaP3WLhw1ANymEa
dnLct76Dw94F6+KfnjmuB8SpJxxj4Qk2V/D9bhI+Nr1NYsDqwwnko53UXBswBNIx
0afe0YCkQyPahDAC/DZAsudP3+d8iXdO4e97Tm6Fa170QYjK7Z0rWPXaw006VqFp
QnDkmK3RGYXIRp+dWp7MhmVpzHGsNRlN0+fdsDU/2Qn1XqMCAwEAAaOBojCBnzAJ
BgNVHRMEAjAAMB0GA1UdDgQWBBQPMKuyH1j0ckOlBQYzQ+NjFBQ6GzBRBgNVHSME
SjBIgBQW2R++shHQQ36CDhbECQLEXVi/wqEapBgwFjEUMBIGA1UEAwwLdGVhbTM5
NC1uZXSCFH8L9AuPrcerGrytssPVYrftsnqKMBMGA1UdJQQMMAoGCCsGAQUFBwMC
MAsGA1UdDwQEAwIHgDANBgkqhkiG9w0BAQsFAAOCAQEAN2xKkiOZw2Ww/J7Lxt+1
u3b5Dkt2Bx6TWcM+i4v0S0FKef1KV36GBWMPI3gQL65nZCjJ1pV6JP9pW1QGc9WL
8rs/LSRacnWPrhh/xke0GkiNoW2TcA8zE0P4Ggc2FT2POgBpfvvmAmc7kaMesSO0
QkgUK7ODNEOCGBph68GeQb8u6l57i01wY5Q865TdXG1HgXckaFmOMfBS8NJLuwGc
DWXP8Z2Pferm3b3XZVS1mbAw9q+ZahAL9UqlcFqbIsm5vCfLRQblOTHvACJQ/c9d
0D22HtrLPiQFOsETtWCm7txCL2I9q9rqkWRxqBYjVryiZ21ynz+PvochTquqXoju
mA==
-----END CERTIFICATE-----
