Certificate:
    Data:
        Version: 3 (0x2)
        Serial Number:
            fe:43:bc:9c:bd:82:c0:10:6e:a7:d8:47:7f:dd:c2:d5
        Signature Algorithm: sha256WithRSAEncryption
        Issuer: CN=team394-net
        Validity
            Not Before: Nov  4 10:47:45 2023 GMT
            Not After : Oct 19 10:47:45 2026 GMT
        Subject: CN=team394-server
        Subject Public Key Info:
            Public Key Algorithm: rsaEncryption
                Public-Key: (2048 bit)
                Modulus:
                    00:97:7c:af:6a:3c:ce:4e:51:dd:17:73:89:d3:aa:
                    db:74:2e:e6:43:a5:28:6f:f4:ef:a1:8d:e8:ba:65:
                    47:e4:24:99:2b:c7:eb:48:69:e5:84:ca:95:3f:26:
                    31:5b:32:5c:3c:0c:75:28:a0:65:30:10:01:79:43:
                    fe:8c:c4:6e:3f:32:df:90:80:5b:ca:b6:f5:39:0f:
                    5b:85:8f:38:3b:1b:c2:58:a0:bd:2d:57:16:5f:85:
                    e6:03:a3:b7:1f:9a:c0:bd:f9:5b:7f:53:99:2e:9e:
                    a2:60:89:02:80:b0:09:5f:f2:4d:bf:9b:69:b2:69:
                    6c:b6:a9:07:72:8f:c0:f6:38:e9:ff:a9:d2:03:77:
                    22:79:e8:58:8d:26:3d:4c:eb:c3:21:48:0a:3e:b1:
                    c1:f8:ed:eb:4f:dc:02:ef:bb:fe:c1:b9:dd:5b:a8:
                    31:4f:cc:67:e9:1b:a4:a7:39:a6:94:b2:7a:c1:02:
                    86:24:83:4b:e6:06:47:40:ab:b2:bc:9d:2d:75:1e:
                    c4:ab:1d:0e:29:13:bd:a6:67:b2:f3:0e:e7:6e:b4:
                    97:b7:3f:31:1b:80:70:50:b8:31:08:a8:36:74:0d:
                    75:c3:fd:6e:b4:21:f4:4e:2b:99:e1:67:04:91:b8:
                    cf:83:3e:f8:b3:21:dd:c1:54:f6:63:e1:be:7a:4e:
                    e9:47
                Exponent: 65537 (0x10001)
        X509v3 extensions:
            X509v3 Basic Constraints: 
                CA:FALSE
            X509v3 Subject Key Identifier: 
                E8:1B:E9:41:ED:5B:31:B0:26:37:60:76:7E:D5:3D:9A:8E:09:4C:C3
            X509v3 Authority Key Identifier: 
                keyid:EC:66:24:6A:E9:03:4E:10:D2:96:EF:35:61:3A:E3:6E:39:D6:CA:D1
                DirName:/CN=team394-net
                serial:5C:A9:D1:54:F9:1B:38:2C:C3:EB:A4:09:FF:0D:6A:93:BA:74:D0:E5
            X509v3 Extended Key Usage: 
                TLS Web Server Authentication
            X509v3 Key Usage: 
                Digital Signature, Key Encipherment
            X509v3 Subject Alternative Name: 
                DNS:team394-server
    Signature Algorithm: sha256WithRSAEncryption
    Signature Value:
        79:6a:17:ed:f1:28:7b:32:76:2a:37:7c:af:32:b5:ca:7b:04:
        fb:8b:93:18:75:15:89:a4:71:7c:5e:77:12:07:dd:e1:1b:2c:
        c8:76:a7:d2:32:67:21:aa:0f:b8:2f:1a:9e:fb:15:56:ff:b3:
        68:84:81:db:09:6d:3e:43:b5:b0:ea:23:1b:ed:17:83:51:d1:
        54:4d:e2:bc:4b:2c:14:46:35:de:71:f1:d8:85:94:f1:de:66:
        98:5c:56:fb:92:3e:15:bc:c0:cf:af:ad:8c:32:34:b0:98:bc:
        e3:34:a9:e1:81:00:e6:88:66:e1:f4:4a:b5:61:a6:5d:61:dd:
        20:34:2e:89:f8:4e:97:07:65:ba:d0:41:ea:1d:8d:be:83:b6:
        dd:8e:d2:bb:2f:94:7e:c5:73:6b:cf:be:20:11:4a:69:30:5e:
        05:75:19:83:6e:b0:76:c9:e8:b8:6e:a2:ab:b7:9c:ea:3c:01:
        6d:e6:ea:7e:22:31:60:26:7a:b2:66:c8:f8:e3:22:11:8f:54:
        bb:7b:df:32:59:f3:51:8a:82:e9:07:b2:f7:75:07:79:10:81:
        b6:2a:1d:86:21:5e:e1:94:fa:5e:64:29:bc:f6:07:dd:cf:61:
        99:94:38:bf:82:b7:e1:ea:3f:4f:b0:6e:98:72:2c:ca:d5:1e:
        9d:55:c4:c9
-----BEGIN CERTIFICATE-----
MIIDeDCCAmCgAwIBAgIRAP5DvJy9gsAQbqfYR3/dwtUwDQYJKoZIhvcNAQELBQAw
FjEUMBIGA1UEAwwLdGVhbTM5NC1uZXQwHhcNMjMxMTA0MTA0NzQ1WhcNMjYxMDE5
MTA0NzQ1WjAZMRcwFQYDVQQDDA50ZWFtMzk0LXNlcnZlcjCCASIwDQYJKoZIhvcN
AQEBBQADggEPADCCAQoCggEBAJd8r2o8zk5R3RdzidOq23Qu5kOlKG/076GN6Lpl
R+QkmSvH60hp5YTKlT8mMVsyXDwMdSigZTAQAXlD/ozEbj8y35CAW8q29TkPW4WP
ODsbwligvS1XFl+F5gOjtx+awL35W39TmS6eomCJAoCwCV/yTb+babJpbLapB3KP
wPY46f+p0gN3InnoWI0mPUzrwyFICj6xwfjt60/cAu+7/sG53VuoMU/MZ+kbpKc5
ppSyesEChiSDS+YGR0CrsrydLXUexKsdDikTvaZnsvMO5260l7c/MRuAcFC4MQio
NnQNdcP9brQh9E4rmeFnBJG4z4M++LMh3cFU9mPhvnpO6UcCAwEAAaOBvTCBujAJ
BgNVHRMEAjAAMB0GA1UdDgQWBBToG+lB7VsxsCY3YHZ+1T2ajglMwzBRBgNVHSME
SjBIgBTsZiRq6QNOENKW7zVhOuNuOdbK0aEapBgwFjEUMBIGA1UEAwwLdGVhbTM5
NC1uZXSCFFyp0VT5Gzgsw+ukCf8NapO6dNDlMBMGA1UdJQQMMAoGCCsGAQUFBwMB
MAsGA1UdDwQEAwIFoDAZBgNVHREEEjAQgg50ZWFtMzk0LXNlcnZlcjANBgkqhkiG
9w0BAQsFAAOCAQEAeWoX7fEoezJ2Kjd8rzK1ynsE+4uTGHUViaRxfF53Egfd4Rss
yHan0jJnIaoPuC8anvsVVv+zaISB2wltPkO1sOojG+0Xg1HRVE3ivEssFEY13nHx
2IWU8d5mmFxW+5I+FbzAz6+tjDI0sJi84zSp4YEA5ohm4fRKtWGmXWHdIDQuifhO
lwdlutBB6h2NvoO23Y7Suy+UfsVza8++IBFKaTBeBXUZg26wdsnouG6iq7ec6jwB
bebqfiIxYCZ6smbI+OMiEY9Uu3vfMlnzUYqC6Qey93UHeRCBtiodhiFe4ZT6XmQp
vPYH3c9hmZQ4v4K34eo/T7BumHIsytUenVXEyQ==
-----END CERTIFICATE-----
