Certificate:
    Data:
        Version: 3 (0x2)
        Serial Number:
            b8:91:2a:ad:23:54:9f:0a:b4:8e:b5:0c:92:3b:9e:5e
        Signature Algorithm: sha256WithRSAEncryption
        Issuer: CN=team435-net
        Validity
            Not Before: Nov  3 20:47:09 2023 GMT
            Not After : Oct 18 20:47:09 2026 GMT
        Subject: CN=team435-client
        Subject Public Key Info:
            Public Key Algorithm: rsaEncryption
                Public-Key: (2048 bit)
                Modulus:
                    00:e6:13:4d:61:87:6e:c4:b1:5f:b0:e7:f8:d4:45:
                    6c:b5:12:79:c5:ee:31:6f:b2:c3:a9:91:a4:b9:5c:
                    bc:04:83:97:16:04:cd:4a:f6:c5:b3:b2:d1:42:15:
                    81:26:f5:bc:0c:ca:ff:55:80:4f:9a:07:04:88:1f:
                    d9:1c:69:19:ee:fd:ca:30:0c:22:f8:6f:60:0e:01:
                    ea:0a:ac:c5:6e:cc:8b:50:89:eb:8e:9f:9f:26:06:
                    b8:83:d9:23:c8:de:12:36:b9:41:2c:50:34:9e:fa:
                    3a:69:01:7e:34:95:22:46:b6:88:91:b5:29:b1:b5:
                    6c:90:1b:04:06:fc:c4:d5:b9:66:15:57:99:17:93:
                    b3:5d:8a:1e:6b:02:29:20:9d:0f:f3:9c:fa:85:f6:
                    48:ab:fb:60:10:a9:1d:98:3d:37:8e:ed:c6:6a:78:
                    6c:07:d8:5f:82:56:2a:4b:ce:fc:03:0d:d1:6d:56:
                    b2:2e:15:8c:1c:2f:af:4b:54:07:0d:ae:f7:2b:2a:
                    3c:87:e9:e0:0f:0e:1a:cd:3e:7f:e2:ce:c7:2d:2c:
                    bc:f5:ac:f2:8e:9c:bc:1d:a1:8d:d6:c3:98:70:a7:
                    6e:5a:d5:1d:4a:8f:18:5d:d5:de:a6:ec:81:73:6a:
                    b6:08:7a:8a:3d:bf:f2:15:75:73:15:4e:a4:35:60:
                    1a:09
                Exponent: 65537 (0x10001)
        X509v3 extensions:
            X509v3 Basic Constraints: 
                CA:FALSE
            X509v3 Subject Key Identifier: 
                03:D6:FB:89:20:FA:4C:97:F9:7D:B1:B6:8E:6B:FD:2B:F3:65:5E:F6
            X509v3 Authority Key Identifier: 
                keyid:88:E5:A9:6A:84:64:B1:7B:1B:10:5C:31:BB:01:EB:C0:89:13:AC:07
                DirName:/CN=team435-net
                serial:77:B4:F9:23:B8:00:7D:60:5F:D6:6F:B4:8F:96:40:F2:FB:57:6E:5E
            X509v3 Extended Key Usage: 
                TLS Web Client Authentication
            X509v3 Key Usage: 
                Digital Signature
    Signature Algorithm: sha256WithRSAEncryption
    Signature Value:
        2f:b3:56:6a:4e:00:2f:72:20:6a:76:3d:84:52:14:8e:ac:e1:
        15:e8:28:a7:c9:e6:1c:39:1b:40:93:d1:ce:9d:33:35:4c:0b:
        6a:cb:58:08:e8:39:4d:8e:6c:f4:33:58:6e:1f:b6:7f:df:b1:
        60:8c:de:df:5a:14:1d:f4:e3:73:e1:83:1c:51:5d:f8:63:e7:
        03:d2:89:e8:c6:d6:d4:ec:d5:87:96:fd:59:e3:b0:96:ac:54:
        50:cf:6a:3b:87:6e:c8:3c:c4:e9:36:ab:7a:a6:25:99:e2:98:
        a7:97:42:2e:70:cf:55:58:d7:d0:fd:bb:62:66:26:9c:85:53:
        7d:89:2f:79:0a:c2:2b:05:7e:a8:9a:c5:cd:42:a0:fa:21:6f:
        70:c3:eb:b0:b9:0f:47:2a:c1:4a:7c:5c:f8:41:39:a1:89:d6:
        2e:b5:e1:ac:c8:4e:41:34:9b:55:44:22:d6:fd:4f:ca:b3:f3:
        33:9b:a2:8e:cb:cb:d8:c3:02:c3:5e:5b:0b:08:9b:b6:0e:0a:
        40:a2:43:dd:8e:1a:c9:13:d2:93:65:28:1f:64:e8:94:90:aa:
        c1:ca:5d:13:2f:c1:b9:a6:1e:79:b9:5f:5f:f3:0e:58:e8:af:
        89:37:97:1c:c7:65:38:82:17:72:6c:c6:cb:43:f0:16:e1:94:
        2e:c8:95:45
-----BEGIN CERTIFICATE-----
MIIDXTCCAkWgAwIBAgIRALiRKq0jVJ8KtI61DJI7nl4wDQYJKoZIhvcNAQELBQAw
FjEUMBIGA1UEAwwLdGVhbTQzNS1uZXQwHhcNMjMxMTAzMjA0NzA5WhcNMjYxMDE4
MjA0NzA5WjAZMRcwFQYDVQQDDA50ZWFtNDM1LWNsaWVudDCCASIwDQYJKoZIhvcN
AQEBBQADggEPADCCAQoCggEBAOYTTWGHbsSxX7Dn+NRFbLUSecXuMW+yw6mRpLlc
vASDlxYEzUr2xbOy0UIVgSb1vAzK/1WAT5oHBIgf2RxpGe79yjAMIvhvYA4B6gqs
xW7Mi1CJ646fnyYGuIPZI8jeEja5QSxQNJ76OmkBfjSVIka2iJG1KbG1bJAbBAb8
xNW5ZhVXmReTs12KHmsCKSCdD/Oc+oX2SKv7YBCpHZg9N47txmp4bAfYX4JWKkvO
/AMN0W1Wsi4VjBwvr0tUBw2u9ysqPIfp4A8OGs0+f+LOxy0svPWs8o6cvB2hjdbD
mHCnblrVHUqPGF3V3qbsgXNqtgh6ij2/8hV1cxVOpDVgGgkCAwEAAaOBojCBnzAJ
BgNVHRMEAjAAMB0GA1UdDgQWBBQD1vuJIPpMl/l9sbaOa/0r82Ve9jBRBgNVHSME
SjBIgBSI5alqhGSxexsQXDG7AevAiROsB6EapBgwFjEUMBIGA1UEAwwLdGVhbTQz
NS1uZXSCFHe0+SO4AH1gX9ZvtI+WQPL7V25eMBMGA1UdJQQMMAoGCCsGAQUFBwMC
MAsGA1UdDwQEAwIHgDANBgkqhkiG9w0BAQsFAAOCAQEAL7NWak4AL3IganY9hFIU
jqzhFegop8nmHDkbQJPRzp0zNUwLastYCOg5TY5s9DNYbh+2f9+xYIze31oUHfTj
c+GDHFFd+GPnA9KJ6MbW1OzVh5b9WeOwlqxUUM9qO4duyDzE6TareqYlmeKYp5dC
LnDPVVjX0P27YmYmnIVTfYkveQrCKwV+qJrFzUKg+iFvcMPrsLkPRyrBSnxc+EE5
oYnWLrXhrMhOQTSbVUQi1v1PyrPzM5uijsvL2MMCw15bCwibtg4KQKJD3Y4ayRPS
k2UoH2TolJCqwcpdEy/BuaYeeblfX/MOWOiviTeXHMdlOIIXcmzGy0PwFuGULsiV
RQ==
-----END CERTIFICATE-----
