Certificate:
    Data:
        Version: 3 (0x2)
        Serial Number:
            3d:39:04:d0:98:92:e3:02:5c:d5:82:16:a3:8f:d4:5d
        Signature Algorithm: sha256WithRSAEncryption
        Issuer: CN=team78-net
        Validity
            Not Before: Nov  4 10:41:50 2023 GMT
            Not After : Oct 19 10:41:50 2026 GMT
        Subject: CN=team78-server
        Subject Public Key Info:
            Public Key Algorithm: rsaEncryption
                Public-Key: (2048 bit)
                Modulus:
                    00:be:09:91:16:3c:e5:f2:33:31:c2:26:a6:1f:3c:
                    f4:ef:71:50:47:0c:75:37:79:ef:4b:37:90:fa:63:
                    ef:9a:4a:14:94:43:29:95:e6:b7:19:a4:98:fe:78:
                    f8:37:80:bd:2f:73:a6:e3:5e:74:1f:a8:04:79:60:
                    27:b2:bd:02:20:03:2b:d7:c4:18:3e:90:32:b1:d9:
                    17:ab:9c:9f:6f:45:c6:2a:a4:85:48:41:28:1a:21:
                    5e:35:e5:59:d7:55:4d:17:d9:50:65:c9:16:94:94:
                    bc:e3:7e:c2:85:0c:08:d6:33:7f:24:87:d1:32:3f:
                    93:82:cd:4d:d4:1b:9c:1e:d2:73:79:6d:7b:fe:09:
                    c8:0f:da:22:fd:44:04:7b:f3:90:6f:02:8b:0e:23:
                    26:28:a4:64:48:78:5e:d2:79:5a:20:78:08:c1:08:
                    59:08:a4:15:fa:c4:62:d2:b5:ad:af:61:75:21:25:
                    df:a6:f4:de:f3:b4:34:4e:59:83:b5:39:93:3c:9d:
                    5f:a8:49:a9:a2:d4:73:bb:5c:fa:8e:75:94:43:5b:
                    38:ad:16:9e:66:de:ac:be:3f:d0:97:be:69:d8:17:
                    af:38:a7:58:e4:fb:9e:dd:da:d4:45:fd:cd:2c:57:
                    ba:61:bf:bd:87:59:b0:fa:2f:b2:ff:21:3e:a9:49:
                    55:cb
                Exponent: 65537 (0x10001)
        X509v3 extensions:
            X509v3 Basic Constraints: 
                CA:FALSE
            X509v3 Subject Key Identifier: 
                97:80:49:71:F8:05:A1:C7:3A:81:6C:3D:D3:E4:DF:B9:1D:B6:39:D9
            X509v3 Authority Key Identifier: 
                keyid:65:51:B4:E9:37:DA:7D:81:25:85:42:AF:52:B3:09:7C:B1:07:EB:23
                DirName:/CN=team78-net
                serial:64:35:1E:25:FC:0A:17:3B:8B:A3:D7:42:CB:B1:01:D1:28:6E:83:AD
            X509v3 Extended Key Usage: 
                TLS Web Server Authentication
            X509v3 Key Usage: 
                Digital Signature, Key Encipherment
            X509v3 Subject Alternative Name: 
                DNS:team78-server
    Signature Algorithm: sha256WithRSAEncryption
    Signature Value:
        c6:b9:d8:7a:fb:bd:1e:1d:ad:09:72:12:0c:36:cb:71:31:3c:
        9c:62:04:81:a6:4b:4e:53:5e:7d:46:34:31:a7:70:83:d7:d2:
        5d:0a:9b:27:9d:ed:4f:74:ca:2b:ca:88:33:6c:18:bc:24:2f:
        93:40:97:f0:11:e6:fa:fb:4d:75:45:f4:bf:ed:40:65:5c:77:
        4f:5b:a4:22:e5:15:7e:ac:58:04:c3:a3:df:32:3c:87:c2:b2:
        14:21:7c:d6:99:8b:c7:10:c4:41:ec:04:5a:7e:7b:57:a4:ae:
        5c:79:fd:7e:a8:31:b1:3c:8b:14:66:98:de:d5:24:0e:63:80:
        33:e0:a9:d7:e4:44:b0:81:6b:07:88:d5:41:d6:4c:5d:f2:86:
        4d:09:45:23:f5:85:6f:00:9a:89:e4:7a:d0:e1:39:ec:e5:91:
        96:f5:1d:a0:40:13:53:31:06:fb:68:27:62:88:80:f5:f0:44:
        87:08:83:dc:da:bb:53:41:65:35:87:62:5a:e3:cd:ee:a9:5c:
        a5:fb:a6:a2:06:28:ff:33:72:5c:84:0f:4d:99:5b:68:89:7c:
        a3:23:90:57:18:af:82:cc:65:f9:c8:6d:7b:56:a9:ac:b0:4e:
        ba:56:c7:07:9c:44:e9:16:99:a2:08:5f:fe:8e:37:d7:32:b2:
        67:f8:d1:52
-----BEGIN CERTIFICATE-----
MIIDczCCAlugAwIBAgIQPTkE0JiS4wJc1YIWo4/UXTANBgkqhkiG9w0BAQsFADAV
MRMwEQYDVQQDDAp0ZWFtNzgtbmV0MB4XDTIzMTEwNDEwNDE1MFoXDTI2MTAxOTEw
NDE1MFowGDEWMBQGA1UEAwwNdGVhbTc4LXNlcnZlcjCCASIwDQYJKoZIhvcNAQEB
BQADggEPADCCAQoCggEBAL4JkRY85fIzMcImph889O9xUEcMdTd570s3kPpj75pK
FJRDKZXmtxmkmP54+DeAvS9zpuNedB+oBHlgJ7K9AiADK9fEGD6QMrHZF6ucn29F
xiqkhUhBKBohXjXlWddVTRfZUGXJFpSUvON+woUMCNYzfySH0TI/k4LNTdQbnB7S
c3lte/4JyA/aIv1EBHvzkG8Ciw4jJiikZEh4XtJ5WiB4CMEIWQikFfrEYtK1ra9h
dSEl36b03vO0NE5Zg7U5kzydX6hJqaLUc7tc+o51lENbOK0WnmberL4/0Je+adgX
rzinWOT7nt3a1EX9zSxXumG/vYdZsPovsv8hPqlJVcsCAwEAAaOBuzCBuDAJBgNV
HRMEAjAAMB0GA1UdDgQWBBSXgElx+AWhxzqBbD3T5N+5HbY52TBQBgNVHSMESTBH
gBRlUbTpN9p9gSWFQq9Sswl8sQfrI6EZpBcwFTETMBEGA1UEAwwKdGVhbTc4LW5l
dIIUZDUeJfwKFzuLo9dCy7EB0Shug60wEwYDVR0lBAwwCgYIKwYBBQUHAwEwCwYD
VR0PBAQDAgWgMBgGA1UdEQQRMA+CDXRlYW03OC1zZXJ2ZXIwDQYJKoZIhvcNAQEL
BQADggEBAMa52Hr7vR4drQlyEgw2y3ExPJxiBIGmS05TXn1GNDGncIPX0l0Kmyed
7U90yivKiDNsGLwkL5NAl/AR5vr7TXVF9L/tQGVcd09bpCLlFX6sWATDo98yPIfC
shQhfNaZi8cQxEHsBFp+e1ekrlx5/X6oMbE8ixRmmN7VJA5jgDPgqdfkRLCBaweI
1UHWTF3yhk0JRSP1hW8AmonketDhOezlkZb1HaBAE1MxBvtoJ2KIgPXwRIcIg9za
u1NBZTWHYlrjze6pXKX7pqIGKP8zclyED02ZW2iJfKMjkFcYr4LMZfnIbXtWqayw
TrpWxwecROkWmaIIX/6ON9cysmf40VI=
-----END CERTIFICATE-----
