Certificate:
    Data:
        Version: 3 (0x2)
        Serial Number:
            43:5f:4f:30:0c:13:06:f2:88:ef:95:75:69:b8:ce:89
        Signature Algorithm: sha256WithRSAEncryption
        Issuer: CN=team78-net
        Validity
            Not Before: Nov  4 10:41:49 2023 GMT
            Not After : Oct 19 10:41:49 2026 GMT
        Subject: CN=team78-client
        Subject Public Key Info:
            Public Key Algorithm: rsaEncryption
                Public-Key: (2048 bit)
                Modulus:
                    00:d9:37:27:c4:62:92:91:4f:3a:28:92:69:ce:40:
                    02:0f:40:18:8d:a9:e5:f0:e1:0b:23:f2:7d:20:63:
                    a0:83:1b:86:1c:16:95:a3:bf:54:5e:61:5e:4a:11:
                    03:dd:5c:84:cd:52:69:96:67:0b:19:08:26:7f:c9:
                    e9:45:31:f7:b5:f2:bf:e5:8c:c0:08:63:2e:96:7a:
                    9b:9c:49:ed:f8:30:5c:da:eb:f9:b7:33:c3:07:6c:
                    42:03:8e:10:33:1a:1a:7a:d3:f7:21:3e:2b:98:50:
                    3b:c1:52:49:87:f6:7f:13:4b:d9:4e:84:92:15:ad:
                    cf:60:dc:dd:53:1f:75:a3:81:14:d3:50:de:11:95:
                    97:bc:18:d1:3b:5b:a9:45:fd:74:d2:ba:32:b8:7c:
                    24:4d:81:2f:86:3c:44:65:d2:15:38:0a:49:6f:de:
                    9b:e5:c8:4d:13:b2:55:8b:0e:fe:7c:dd:20:70:7a:
                    6f:6d:bd:fd:bf:4b:52:fb:2d:f1:f5:c4:0a:6b:e7:
                    78:55:a1:bb:b4:de:35:7b:c3:4c:17:97:bc:8f:40:
                    b9:2b:cb:88:93:f7:af:97:f8:89:5b:62:87:95:3c:
                    bd:5f:3a:1d:1c:d1:b0:6e:f5:09:53:c6:19:dd:dc:
                    2b:11:18:11:af:47:da:3e:1e:17:42:f9:39:0e:b6:
                    b2:d3
                Exponent: 65537 (0x10001)
        X509v3 extensions:
            X509v3 Basic Constraints: 
                CA:FALSE
            X509v3 Subject Key Identifier: 
                17:84:28:F4:F6:46:12:B7:6A:AD:76:1E:66:A6:9C:34:88:E1:D4:7C
            X509v3 Authority Key Identifier: 
                keyid:65:51:B4:E9:37:DA:7D:81:25:85:42:AF:52:B3:09:7C:B1:07:EB:23
                DirName:/CN=team78-net
                serial:64:35:1E:25:FC:0A:17:3B:8B:A3:D7:42:CB:B1:01:D1:28:6E:83:AD
            X509v3 Extended Key Usage: 
                TLS Web Client Authentication
            X509v3 Key Usage: 
                Digital Signature
    Signature Algorithm: sha256WithRSAEncryption
    Signature Value:
        9a:e6:41:4a:34:28:a8:d5:64:da:ad:2a:a2:b9:bb:88:3d:65:
        be:8d:0d:93:47:47:b3:ea:41:4f:01:10:c2:88:c3:c0:2f:f1:
        bf:c8:f3:45:26:74:35:cc:39:be:6e:8d:9e:6c:b0:12:4c:8e:
        6d:53:af:1b:c8:38:bd:5a:e9:8d:77:5c:28:a7:ca:02:ad:66:
        74:a6:67:a4:db:7d:7b:bf:da:32:58:e9:02:e0:30:94:6c:eb:
        b3:cd:c3:65:8c:3d:c4:29:2d:64:16:6e:c9:6f:c9:8e:81:c5:
        86:d1:2b:c3:56:a1:c3:21:ff:e8:bd:bb:c5:09:74:53:56:f0:
        9a:99:69:5a:ae:ba:7d:c5:91:ea:dc:cc:54:dd:24:0a:dc:e1:
        83:d1:28:9e:25:33:50:ab:66:98:62:d6:9a:c0:9c:04:d0:08:
        52:9e:75:74:de:b1:8a:75:d8:c3:05:ba:03:60:1d:e3:87:8f:
        65:36:8b:d9:cd:03:0d:71:a9:06:85:a7:64:5b:0c:2b:e4:43:
        ca:8d:80:fc:4e:ed:5d:5a:20:54:b7:fd:2e:53:06:ed:25:0a:
        2c:46:55:21:3c:d3:bd:25:1c:77:76:c4:96:3e:5a:28:54:fc:
        04:87:2c:29:b3:ab:f0:1d:7f:db:d2:e7:17:85:f8:b6:a1:d5:
        f6:52:db:fe
-----BEGIN CERTIFICATE-----
MIIDWTCCAkGgAwIBAgIQQ19PMAwTBvKI75V1abjOiTANBgkqhkiG9w0BAQsFADAV
MRMwEQYDVQQDDAp0ZWFtNzgtbmV0MB4XDTIzMTEwNDEwNDE0OVoXDTI2MTAxOTEw
NDE0OVowGDEWMBQGA1UEAwwNdGVhbTc4LWNsaWVudDCCASIwDQYJKoZIhvcNAQEB
BQADggEPADCCAQoCggEBANk3J8RikpFPOiiSac5AAg9AGI2p5fDhCyPyfSBjoIMb
hhwWlaO/VF5hXkoRA91chM1SaZZnCxkIJn/J6UUx97Xyv+WMwAhjLpZ6m5xJ7fgw
XNrr+bczwwdsQgOOEDMaGnrT9yE+K5hQO8FSSYf2fxNL2U6EkhWtz2Dc3VMfdaOB
FNNQ3hGVl7wY0TtbqUX9dNK6Mrh8JE2BL4Y8RGXSFTgKSW/em+XITROyVYsO/nzd
IHB6b229/b9LUvst8fXECmvneFWhu7TeNXvDTBeXvI9AuSvLiJP3r5f4iVtih5U8
vV86HRzRsG71CVPGGd3cKxEYEa9H2j4eF0L5OQ62stMCAwEAAaOBoTCBnjAJBgNV
HRMEAjAAMB0GA1UdDgQWBBQXhCj09kYSt2qtdh5mppw0iOHUfDBQBgNVHSMESTBH
gBRlUbTpN9p9gSWFQq9Sswl8sQfrI6EZpBcwFTETMBEGA1UEAwwKdGVhbTc4LW5l
dIIUZDUeJfwKFzuLo9dCy7EB0Shug60wEwYDVR0lBAwwCgYIKwYBBQUHAwIwCwYD
VR0PBAQDAgeAMA0GCSqGSIb3DQEBCwUAA4IBAQCa5kFKNCio1WTarSqiubuIPWW+
jQ2TR0ez6kFPARDCiMPAL/G/yPNFJnQ1zDm+bo2ebLASTI5tU68byDi9WumNd1wo
p8oCrWZ0pmek2317v9oyWOkC4DCUbOuzzcNljD3EKS1kFm7Jb8mOgcWG0SvDVqHD
If/ovbvFCXRTVvCamWlarrp9xZHq3MxU3SQK3OGD0SieJTNQq2aYYtaawJwE0AhS
nnV03rGKddjDBboDYB3jh49lNovZzQMNcakGhadkWwwr5EPKjYD8Tu1dWiBUt/0u
UwbtJQosRlUhPNO9JRx3dsSWPlooVPwEhywps6vwHX/b0ucXhfi2odX2Utv+
-----END CERTIFICATE-----
