Certificate:
    Data:
        Version: 3 (0x2)
        Serial Number:
            66:03:6b:66:72:6e:db:a8:ef:ae:be:bc:05:31:c7:21
        Signature Algorithm: sha256WithRSAEncryption
        Issuer: CN=team78-net
        Validity
            Not Before: Nov  3 20:40:32 2023 GMT
            Not After : Oct 18 20:40:32 2026 GMT
        Subject: CN=team78-client
        Subject Public Key Info:
            Public Key Algorithm: rsaEncryption
                Public-Key: (2048 bit)
                Modulus:
                    00:f2:95:37:f3:de:13:ec:5a:08:3f:4e:8b:92:34:
                    60:ac:3c:fa:70:ea:6f:8c:52:10:e9:b9:46:8f:28:
                    e8:36:d2:21:88:a5:0b:f0:cc:13:2d:3a:bc:86:38:
                    c9:50:9a:34:14:dc:c5:be:76:95:b9:36:46:10:41:
                    f6:77:3e:f6:25:00:8a:2d:42:12:bb:d1:73:64:dc:
                    ed:28:78:38:1f:69:c8:1b:98:49:fd:03:e8:4e:ff:
                    d8:0e:bc:35:a6:76:a8:01:1a:2e:81:7b:e0:57:67:
                    fd:68:3f:e4:63:cd:0e:ff:8c:d9:bb:9c:b1:67:80:
                    44:58:30:94:8e:9b:21:5b:f7:7e:fb:61:fc:00:53:
                    a9:d9:59:b2:16:50:1f:dc:7b:51:08:0e:89:d0:82:
                    62:f1:fe:cb:6a:24:c1:5a:28:2e:03:79:dc:d8:d7:
                    80:9a:3f:8a:5a:28:9c:f3:b9:df:0f:66:36:b8:ad:
                    cb:10:8a:3c:69:3d:16:5e:05:9a:31:ae:3f:6d:19:
                    2c:0c:b7:db:1a:87:35:50:f4:12:b6:f6:7a:11:7a:
                    2d:5e:08:39:ad:b5:87:22:0a:de:5e:4a:80:cd:77:
                    46:18:3a:c0:ea:fa:48:b5:0c:be:77:45:85:24:88:
                    24:7d:54:da:db:b8:c4:df:bd:ba:84:7d:3e:6a:6e:
                    03:19
                Exponent: 65537 (0x10001)
        X509v3 extensions:
            X509v3 Basic Constraints: 
                CA:FALSE
            X509v3 Subject Key Identifier: 
                86:98:BD:A3:37:02:82:7B:B4:09:97:3B:42:C6:D0:30:EE:A9:B4:7D
            X509v3 Authority Key Identifier: 
                keyid:9A:40:3A:F9:F2:72:C6:8D:1F:5C:EB:D3:AA:F4:B1:57:FB:05:9D:06
                DirName:/CN=team78-net
                serial:11:0D:86:B4:B8:DE:3C:2F:DA:7D:B1:5A:00:A6:46:33:FB:9F:56:AE
            X509v3 Extended Key Usage: 
                TLS Web Client Authentication
            X509v3 Key Usage: 
                Digital Signature
    Signature Algorithm: sha256WithRSAEncryption
    Signature Value:
        2d:7a:6a:5d:6c:81:78:4f:18:ea:e1:9d:b2:07:06:0e:a6:3f:
        e9:f0:d8:0d:a0:8e:19:be:6b:b4:b1:be:67:78:1f:5e:92:7d:
        ae:05:aa:a2:82:91:81:78:d6:5a:9a:84:d6:d1:88:14:d0:49:
        d4:10:53:1c:75:d5:67:a4:5d:90:25:2d:d3:65:a7:52:92:2b:
        a6:65:76:00:3b:e2:f9:bf:34:0c:6b:6f:e8:0e:18:59:66:7e:
        72:46:84:87:09:64:9f:be:3a:1e:fb:d5:5d:fa:f3:b1:8d:b7:
        c2:f5:96:6b:6b:8b:26:cf:84:35:fb:00:b7:e9:bb:25:d9:af:
        86:1a:d8:a6:36:94:05:72:70:aa:b1:e1:c4:73:3a:a7:44:fa:
        7d:36:3a:28:61:bf:8e:9f:44:2d:09:a1:3e:1f:20:4b:30:14:
        1d:0f:89:e0:01:9c:20:68:f7:13:19:fb:81:c6:2a:44:55:f5:
        d7:28:e5:1b:ae:7c:c8:4e:b1:bc:76:e4:77:c4:6a:80:5b:cb:
        f6:9c:bd:a5:29:ed:46:38:b1:4d:03:97:e9:de:76:70:17:1e:
        f0:f6:88:c0:db:7d:9c:93:43:0d:1e:ec:94:9e:ab:f2:0d:d7:
        46:69:6a:61:7d:73:7b:ee:78:70:49:17:d5:8f:75:ba:9e:61:
        fd:dc:b7:38
-----BEGIN CERTIFICATE-----
MIIDWTCCAkGgAwIBAgIQZgNrZnJu26jvrr68BTHHITANBgkqhkiG9w0BAQsFADAV
MRMwEQYDVQQDDAp0ZWFtNzgtbmV0MB4XDTIzMTEwMzIwNDAzMloXDTI2MTAxODIw
NDAzMlowGDEWMBQGA1UEAwwNdGVhbTc4LWNsaWVudDCCASIwDQYJKoZIhvcNAQEB
BQADggEPADCCAQoCggEBAPKVN/PeE+xaCD9Oi5I0YKw8+nDqb4xSEOm5Ro8o6DbS
IYilC/DMEy06vIY4yVCaNBTcxb52lbk2RhBB9nc+9iUAii1CErvRc2Tc7Sh4OB9p
yBuYSf0D6E7/2A68NaZ2qAEaLoF74Fdn/Wg/5GPNDv+M2bucsWeARFgwlI6bIVv3
fvth/ABTqdlZshZQH9x7UQgOidCCYvH+y2okwVooLgN53NjXgJo/iloonPO53w9m
NrityxCKPGk9Fl4FmjGuP20ZLAy32xqHNVD0Erb2ehF6LV4IOa21hyIK3l5KgM13
Rhg6wOr6SLUMvndFhSSIJH1U2tu4xN+9uoR9PmpuAxkCAwEAAaOBoTCBnjAJBgNV
HRMEAjAAMB0GA1UdDgQWBBSGmL2jNwKCe7QJlztCxtAw7qm0fTBQBgNVHSMESTBH
gBSaQDr58nLGjR9c69Oq9LFX+wWdBqEZpBcwFTETMBEGA1UEAwwKdGVhbTc4LW5l
dIIUEQ2GtLjePC/afbFaAKZGM/ufVq4wEwYDVR0lBAwwCgYIKwYBBQUHAwIwCwYD
VR0PBAQDAgeAMA0GCSqGSIb3DQEBCwUAA4IBAQAtempdbIF4Txjq4Z2yBwYOpj/p
8NgNoI4Zvmu0sb5neB9ekn2uBaqigpGBeNZamoTW0YgU0EnUEFMcddVnpF2QJS3T
ZadSkiumZXYAO+L5vzQMa2/oDhhZZn5yRoSHCWSfvjoe+9Vd+vOxjbfC9ZZra4sm
z4Q1+wC36bsl2a+GGtimNpQFcnCqseHEczqnRPp9NjooYb+On0QtCaE+HyBLMBQd
D4ngAZwgaPcTGfuBxipEVfXXKOUbrnzITrG8duR3xGqAW8v2nL2lKe1GOLFNA5fp
3nZwFx7w9ojA232ck0MNHuyUnqvyDddGaWphfXN77nhwSRfVj3W6nmH93Lc4
-----END CERTIFICATE-----
