Certificate:
    Data:
        Version: 3 (0x2)
        Serial Number:
            7e:b0:78:b3:c3:da:89:28:43:df:5f:a8:18:da:50:82
        Signature Algorithm: sha256WithRSAEncryption
        Issuer: CN=team78-net
        Validity
            Not Before: Nov  4 11:28:53 2023 GMT
            Not After : Oct 19 11:28:53 2026 GMT
        Subject: CN=team78-client
        Subject Public Key Info:
            Public Key Algorithm: rsaEncryption
                Public-Key: (2048 bit)
                Modulus:
                    00:c9:2f:83:aa:38:3b:8a:51:f7:a4:5a:6d:a4:48:
                    a8:56:c5:c0:e1:0c:0c:ac:cd:e2:53:ab:f1:bd:1c:
                    ef:fa:41:31:91:d5:c5:c7:6f:82:3e:69:12:a7:0d:
                    f0:01:d8:96:96:eb:cb:80:f3:71:ce:36:ec:df:ed:
                    64:8c:36:17:2f:74:4b:3b:1f:d2:ce:bd:2d:09:b0:
                    2f:fd:89:02:55:9f:6d:be:90:28:72:33:e2:06:9d:
                    44:fa:c0:d4:25:ce:4e:6d:f9:82:70:18:c8:04:d4:
                    ff:fd:fb:c1:62:cc:62:1e:2a:04:b4:22:e7:d5:17:
                    8a:3a:75:5f:a9:da:50:70:77:f8:9e:5d:e1:71:10:
                    75:1a:db:1f:81:1b:41:60:68:ff:6a:76:e4:2c:55:
                    15:e6:bf:f0:88:f5:52:b8:9b:f2:1e:d1:f8:63:e6:
                    81:75:dc:a0:c3:31:0c:fb:a4:33:33:82:0b:47:f8:
                    49:00:77:fd:47:c0:13:47:34:61:51:6c:f3:68:c7:
                    1b:a5:ca:d6:95:24:48:d4:b3:51:4d:25:dc:8f:f2:
                    36:81:e2:14:4e:13:0d:84:91:de:8b:1e:eb:d1:44:
                    64:7d:fc:8e:28:ea:12:ac:3d:3e:96:e1:a4:14:db:
                    e0:b7:00:8f:f0:f8:cd:bb:25:37:62:3d:bc:6c:49:
                    26:49
                Exponent: 65537 (0x10001)
        X509v3 extensions:
            X509v3 Basic Constraints: 
                CA:FALSE
            X509v3 Subject Key Identifier: 
                18:DD:24:76:DB:CA:09:30:9F:77:98:2C:07:4F:48:3B:C5:BE:78:F2
            X509v3 Authority Key Identifier: 
                keyid:8B:B2:C7:13:A8:06:AB:B2:C0:21:1C:1C:F7:F0:13:9F:F0:6E:97:9E
                DirName:/CN=team78-net
                serial:0C:13:EE:E6:D6:33:F0:2B:A8:EA:CC:2C:66:C3:AB:B7:79:6B:2D:B4
            X509v3 Extended Key Usage: 
                TLS Web Client Authentication
            X509v3 Key Usage: 
                Digital Signature
    Signature Algorithm: sha256WithRSAEncryption
    Signature Value:
        86:7a:e1:25:51:3c:27:32:81:bc:5e:c3:1a:ff:52:b4:40:c7:
        d6:d1:cc:d4:2b:91:44:f4:eb:11:ff:cc:d2:8c:9a:5d:d0:3b:
        83:91:6e:39:fd:38:47:e0:82:6e:d4:65:4a:d8:9f:45:bf:ef:
        2e:f0:32:24:7e:e8:7f:60:88:97:8a:b1:16:8b:0d:42:5a:6b:
        cc:54:46:52:e2:9e:1e:7d:6c:31:3f:e3:02:62:a8:bf:01:94:
        1b:52:95:e6:72:73:ae:56:17:77:b6:2e:73:cc:1f:4a:bf:01:
        16:5d:f8:1c:79:6e:59:d3:9c:da:31:1e:eb:fe:95:20:2f:ca:
        0c:98:39:99:fb:b5:f3:d6:dd:6f:64:5d:60:bc:67:b1:3f:b9:
        f5:2f:bd:bf:db:0b:dc:0e:23:d9:06:04:54:08:b3:6e:49:5f:
        2b:6d:be:fe:2a:19:3d:d3:00:2f:13:e6:d6:d6:70:3a:df:7e:
        8e:3c:c5:55:dc:b9:2e:55:58:30:4c:5f:47:9c:72:61:f1:2e:
        83:9f:2a:e0:59:75:10:40:20:77:3b:46:7f:26:93:05:1a:15:
        66:8d:05:3e:d1:07:fc:44:2e:b5:18:91:69:68:8e:c8:e5:6f:
        62:38:25:07:86:a4:49:5e:d2:67:eb:d0:76:63:16:26:97:bb:
        c4:cb:2f:70
-----BEGIN CERTIFICATE-----
MIIDWTCCAkGgAwIBAgIQfrB4s8PaiShD31+oGNpQgjANBgkqhkiG9w0BAQsFADAV
MRMwEQYDVQQDDAp0ZWFtNzgtbmV0MB4XDTIzMTEwNDExMjg1M1oXDTI2MTAxOTEx
Mjg1M1owGDEWMBQGA1UEAwwNdGVhbTc4LWNsaWVudDCCASIwDQYJKoZIhvcNAQEB
BQADggEPADCCAQoCggEBAMkvg6o4O4pR96RabaRIqFbFwOEMDKzN4lOr8b0c7/pB
MZHVxcdvgj5pEqcN8AHYlpbry4Dzcc427N/tZIw2Fy90Szsf0s69LQmwL/2JAlWf
bb6QKHIz4gadRPrA1CXOTm35gnAYyATU//37wWLMYh4qBLQi59UXijp1X6naUHB3
+J5d4XEQdRrbH4EbQWBo/2p25CxVFea/8Ij1Urib8h7R+GPmgXXcoMMxDPukMzOC
C0f4SQB3/UfAE0c0YVFs82jHG6XK1pUkSNSzUU0l3I/yNoHiFE4TDYSR3ose69FE
ZH38jijqEqw9PpbhpBTb4LcAj/D4zbslN2I9vGxJJkkCAwEAAaOBoTCBnjAJBgNV
HRMEAjAAMB0GA1UdDgQWBBQY3SR228oJMJ93mCwHT0g7xb548jBQBgNVHSMESTBH
gBSLsscTqAarssAhHBz38BOf8G6XnqEZpBcwFTETMBEGA1UEAwwKdGVhbTc4LW5l
dIIUDBPu5tYz8Cuo6swsZsOrt3lrLbQwEwYDVR0lBAwwCgYIKwYBBQUHAwIwCwYD
VR0PBAQDAgeAMA0GCSqGSIb3DQEBCwUAA4IBAQCGeuElUTwnMoG8XsMa/1K0QMfW
0czUK5FE9OsR/8zSjJpd0DuDkW45/ThH4IJu1GVK2J9Fv+8u8DIkfuh/YIiXirEW
iw1CWmvMVEZS4p4efWwxP+MCYqi/AZQbUpXmcnOuVhd3ti5zzB9KvwEWXfgceW5Z
05zaMR7r/pUgL8oMmDmZ+7Xz1t1vZF1gvGexP7n1L72/2wvcDiPZBgRUCLNuSV8r
bb7+Khk90wAvE+bW1nA6336OPMVV3LkuVVgwTF9HnHJh8S6DnyrgWXUQQCB3O0Z/
JpMFGhVmjQU+0Qf8RC61GJFpaI7I5W9iOCUHhqRJXtJn69B2YxYml7vEyy9w
-----END CERTIFICATE-----
