Certificate:
    Data:
        Version: 3 (0x2)
        Serial Number:
            95:31:61:b5:d9:64:a9:8d:a1:6a:45:f9:a6:fa:68:c9
        Signature Algorithm: sha256WithRSAEncryption
        Issuer: CN=team78-net
        Validity
            Not Before: Nov  3 20:40:33 2023 GMT
            Not After : Oct 18 20:40:33 2026 GMT
        Subject: CN=team78-server
        Subject Public Key Info:
            Public Key Algorithm: rsaEncryption
                Public-Key: (2048 bit)
                Modulus:
                    00:c3:f5:f4:42:77:29:bc:f8:e2:55:94:da:40:ed:
                    60:39:60:e8:b5:ef:e3:de:bb:2a:b5:b1:2e:8b:14:
                    54:ca:ff:49:51:53:2e:ff:be:ac:05:dc:ce:f0:62:
                    8a:f3:43:c0:c7:79:dd:75:c7:bf:11:11:71:8e:8a:
                    fa:56:b0:18:05:8d:9a:d7:58:7b:bb:f2:64:9a:4b:
                    9a:d7:cc:d7:70:ac:e4:2e:f2:62:00:83:97:1c:ba:
                    f7:95:de:da:96:42:50:a7:7c:fd:51:6b:02:46:43:
                    5f:d8:e4:4d:22:59:23:a3:2e:e0:40:91:b3:d6:0c:
                    21:ba:b0:1a:d7:ad:3a:f6:8b:e6:5f:f2:f5:a9:d3:
                    e9:c7:a5:e9:b6:ee:d3:fa:e1:f1:71:9f:06:db:f5:
                    62:59:24:fa:62:4d:ba:c8:b6:7f:fa:ad:40:40:4a:
                    68:83:40:01:14:71:0c:99:c5:4f:8c:27:c1:26:5c:
                    63:72:14:a4:36:9b:74:d8:c0:04:d3:e2:2b:3d:b1:
                    df:95:4a:f3:de:62:09:bd:d1:0e:7a:77:3f:30:12:
                    f9:7f:0b:98:4f:59:c3:b7:f6:31:79:6c:0e:ff:fd:
                    04:14:da:3c:8a:9b:7d:82:b1:19:2a:3a:11:04:7b:
                    75:df:65:33:de:e4:bd:87:d6:1c:9a:49:ed:a4:1c:
                    6f:73
                Exponent: 65537 (0x10001)
        X509v3 extensions:
            X509v3 Basic Constraints: 
                CA:FALSE
            X509v3 Subject Key Identifier: 
                F9:2D:DD:3B:3B:FA:31:56:D7:16:69:64:06:21:EB:79:FF:B1:F8:4A
            X509v3 Authority Key Identifier: 
                keyid:9A:40:3A:F9:F2:72:C6:8D:1F:5C:EB:D3:AA:F4:B1:57:FB:05:9D:06
                DirName:/CN=team78-net
                serial:11:0D:86:B4:B8:DE:3C:2F:DA:7D:B1:5A:00:A6:46:33:FB:9F:56:AE
            X509v3 Extended Key Usage: 
                TLS Web Server Authentication
            X509v3 Key Usage: 
                Digital Signature, Key Encipherment
            X509v3 Subject Alternative Name: 
                DNS:team78-server
    Signature Algorithm: sha256WithRSAEncryption
    Signature Value:
        43:51:94:78:90:f8:41:08:f9:3c:c8:cb:22:43:ac:3e:4e:ab:
        ee:ef:e4:f5:51:4c:39:e8:ae:33:51:19:83:52:38:b9:66:4e:
        23:bb:3e:69:28:af:0b:41:a9:c4:ae:a3:1d:f5:6d:d5:6c:2c:
        86:fb:f4:a3:40:51:f6:eb:e4:5a:1e:38:30:71:b4:87:8b:70:
        e6:4a:58:aa:df:2d:4b:48:0b:5f:0c:f9:82:d9:1c:89:4b:02:
        45:25:e2:4e:55:41:77:2d:a0:f1:c6:75:40:cc:58:4a:e8:3b:
        04:ed:5c:ad:7d:9f:0f:13:ea:1f:b8:82:ec:3c:ef:4a:57:c6:
        1b:10:19:39:17:76:d8:4c:d3:87:d6:ce:35:11:f6:d1:ac:19:
        a7:4e:c8:90:b7:4e:21:15:be:3f:bf:39:24:7f:b8:ae:8f:72:
        21:ee:69:d8:23:ea:9a:e0:78:f6:bc:27:22:fa:bc:0c:aa:01:
        11:60:ed:59:01:7a:d2:05:76:0f:84:c3:44:6a:90:7f:44:bc:
        96:9d:d3:c5:fc:8f:55:ea:7d:ab:8c:fb:95:48:d4:93:7a:da:
        ac:be:ec:f1:a4:e8:94:52:ff:a1:cc:d7:5d:ca:51:9c:6f:ba:
        71:ab:9d:b8:20:03:74:60:f3:bb:5c:04:1c:82:39:9a:3a:6b:
        ba:97:11:bb
-----BEGIN CERTIFICATE-----
MIIDdDCCAlygAwIBAgIRAJUxYbXZZKmNoWpF+ab6aMkwDQYJKoZIhvcNAQELBQAw
FTETMBEGA1UEAwwKdGVhbTc4LW5ldDAeFw0yMzExMDMyMDQwMzNaFw0yNjEwMTgy
MDQwMzNaMBgxFjAUBgNVBAMMDXRlYW03OC1zZXJ2ZXIwggEiMA0GCSqGSIb3DQEB
AQUAA4IBDwAwggEKAoIBAQDD9fRCdym8+OJVlNpA7WA5YOi17+Peuyq1sS6LFFTK
/0lRUy7/vqwF3M7wYorzQ8DHed11x78REXGOivpWsBgFjZrXWHu78mSaS5rXzNdw
rOQu8mIAg5ccuveV3tqWQlCnfP1RawJGQ1/Y5E0iWSOjLuBAkbPWDCG6sBrXrTr2
i+Zf8vWp0+nHpem27tP64fFxnwbb9WJZJPpiTbrItn/6rUBASmiDQAEUcQyZxU+M
J8EmXGNyFKQ2m3TYwATT4is9sd+VSvPeYgm90Q56dz8wEvl/C5hPWcO39jF5bA7/
/QQU2jyKm32CsRkqOhEEe3XfZTPe5L2H1hyaSe2kHG9zAgMBAAGjgbswgbgwCQYD
VR0TBAIwADAdBgNVHQ4EFgQU+S3dOzv6MVbXFmlkBiHref+x+EowUAYDVR0jBEkw
R4AUmkA6+fJyxo0fXOvTqvSxV/sFnQahGaQXMBUxEzARBgNVBAMMCnRlYW03OC1u
ZXSCFBENhrS43jwv2n2xWgCmRjP7n1auMBMGA1UdJQQMMAoGCCsGAQUFBwMBMAsG
A1UdDwQEAwIFoDAYBgNVHREEETAPgg10ZWFtNzgtc2VydmVyMA0GCSqGSIb3DQEB
CwUAA4IBAQBDUZR4kPhBCPk8yMsiQ6w+Tqvu7+T1UUw56K4zURmDUji5Zk4juz5p
KK8LQanErqMd9W3VbCyG+/SjQFH26+RaHjgwcbSHi3DmSliq3y1LSAtfDPmC2RyJ
SwJFJeJOVUF3LaDxxnVAzFhK6DsE7VytfZ8PE+ofuILsPO9KV8YbEBk5F3bYTNOH
1s41EfbRrBmnTsiQt04hFb4/vzkkf7iuj3Ih7mnYI+qa4Hj2vCci+rwMqgERYO1Z
AXrSBXYPhMNEapB/RLyWndPF/I9V6n2rjPuVSNSTetqsvuzxpOiUUv+hzNddylGc
b7pxq524IAN0YPO7XAQcgjmaOmu6lxG7
-----END CERTIFICATE-----
