Certificate:
    Data:
        Version: 3 (0x2)
        Serial Number:
            21:0c:10:ad:24:e1:64:7f:98:b6:0d:a8:08:bf:c0:11
        Signature Algorithm: sha256WithRSAEncryption
        Issuer: CN=team99-net
        Validity
            Not Before: Nov  3 20:40:54 2023 GMT
            Not After : Oct 18 20:40:54 2026 GMT
        Subject: CN=team99-client
        Subject Public Key Info:
            Public Key Algorithm: rsaEncryption
                Public-Key: (2048 bit)
                Modulus:
                    00:a0:fd:86:a5:72:11:40:db:7a:0e:a8:bb:38:41:
                    dd:e6:92:46:59:50:92:b7:b6:99:e2:66:0d:07:ad:
                    4e:da:f2:50:3c:fc:80:c8:d8:5a:19:9d:b6:3c:70:
                    c9:d4:4d:c4:f6:24:21:62:97:e6:80:d5:a1:0d:a8:
                    58:00:18:01:5e:d6:45:12:d6:9d:31:a8:9d:d0:44:
                    a3:34:94:cb:94:ad:79:5c:fa:06:ce:56:05:d8:60:
                    42:3f:8c:f3:e8:f1:f0:46:06:bb:e2:75:3f:e9:34:
                    2f:42:88:85:a7:3c:2a:1c:06:7a:ef:06:87:46:3a:
                    0d:d8:4c:a6:14:b0:84:e8:45:01:e6:20:d9:a9:da:
                    c2:3f:0c:6c:18:0d:ba:87:a4:39:3c:6d:e9:2c:43:
                    65:fa:f3:cf:59:5a:f1:3a:9c:71:60:37:84:5b:48:
                    ae:5a:0a:fa:b2:df:9c:6b:67:3e:05:da:2c:68:5b:
                    d9:6a:d8:94:df:3c:57:e6:bb:e5:e8:da:99:94:cd:
                    b0:c1:dc:4a:ca:02:4b:af:de:05:0f:d2:06:00:7a:
                    d6:df:1c:19:27:00:be:97:c5:7d:fd:38:90:2c:ff:
                    57:85:c8:7b:e9:16:a2:92:e5:83:64:88:e1:35:3e:
                    ea:e8:eb:b7:0f:a3:56:26:7f:c3:39:57:a5:b4:2d:
                    df:f5
                Exponent: 65537 (0x10001)
        X509v3 extensions:
            X509v3 Basic Constraints: 
                CA:FALSE
            X509v3 Subject Key Identifier: 
                68:A6:99:FF:AA:96:DC:88:F6:BF:46:D4:5E:8B:78:09:B4:55:4C:BD
            X509v3 Authority Key Identifier: 
                keyid:B6:C9:92:BB:28:55:F1:36:3D:00:CB:3F:68:83:29:22:86:DA:2A:FE
                DirName:/CN=team99-net
                serial:31:C8:3A:FC:DA:B5:77:59:B7:60:A3:00:A9:E9:DB:93:B6:A8:C1:2E
            X509v3 Extended Key Usage: 
                TLS Web Client Authentication
            X509v3 Key Usage: 
                Digital Signature
    Signature Algorithm: sha256WithRSAEncryption
    Signature Value:
        93:4d:2f:b3:e8:7e:fb:19:18:fb:34:a5:02:37:3d:27:e7:71:
        00:cc:86:10:07:b5:ea:1f:00:dc:d3:fb:d2:cd:be:b9:2c:e6:
        51:73:06:ff:be:05:24:f4:aa:d4:99:ad:17:c9:3a:2a:41:44:
        4c:98:73:15:b8:b3:76:c3:11:f4:0e:03:d2:e4:50:cb:bd:c3:
        49:49:ef:0a:45:c9:3d:03:36:1e:7b:5f:2b:55:1e:f3:1f:9d:
        04:96:8f:7f:09:17:b5:76:3c:6c:eb:a2:06:6d:4a:bc:19:f4:
        05:9e:29:da:13:18:db:94:3d:c1:fc:dd:22:a4:62:15:2f:ef:
        34:3f:9c:ff:c9:69:9d:dd:23:c0:bd:ca:64:f9:5c:7b:86:dd:
        3e:dd:99:3e:82:75:bc:5c:bb:d9:70:30:a1:fe:c6:0d:1b:17:
        f5:f7:74:6c:57:e8:8d:af:6d:c6:9a:d8:a4:81:10:43:ba:a3:
        b3:a6:0e:d7:db:df:98:8d:68:ce:62:15:6e:ef:5f:cf:aa:13:
        23:2b:f9:09:55:f9:fe:ae:74:d2:72:df:c8:c2:ea:bc:53:8e:
        06:39:4b:c7:da:31:02:36:9d:84:52:e0:56:13:9d:e7:0e:fe:
        af:67:7e:cf:b9:2d:d2:e7:7e:0e:c3:8f:88:11:fe:ed:68:f0:
        8f:71:66:a0
-----BEGIN CERTIFICATE-----
MIIDWTCCAkGgAwIBAgIQIQwQrSThZH+Ytg2oCL/AETANBgkqhkiG9w0BAQsFADAV
MRMwEQYDVQQDDAp0ZWFtOTktbmV0MB4XDTIzMTEwMzIwNDA1NFoXDTI2MTAxODIw
NDA1NFowGDEWMBQGA1UEAwwNdGVhbTk5LWNsaWVudDCCASIwDQYJKoZIhvcNAQEB
BQADggEPADCCAQoCggEBAKD9hqVyEUDbeg6ouzhB3eaSRllQkre2meJmDQetTtry
UDz8gMjYWhmdtjxwydRNxPYkIWKX5oDVoQ2oWAAYAV7WRRLWnTGondBEozSUy5St
eVz6Bs5WBdhgQj+M8+jx8EYGu+J1P+k0L0KIhac8KhwGeu8Gh0Y6DdhMphSwhOhF
AeYg2anawj8MbBgNuoekOTxt6SxDZfrzz1la8TqccWA3hFtIrloK+rLfnGtnPgXa
LGhb2WrYlN88V+a75ejamZTNsMHcSsoCS6/eBQ/SBgB61t8cGScAvpfFff04kCz/
V4XIe+kWopLlg2SI4TU+6ujrtw+jViZ/wzlXpbQt3/UCAwEAAaOBoTCBnjAJBgNV
HRMEAjAAMB0GA1UdDgQWBBRoppn/qpbciPa/RtRei3gJtFVMvTBQBgNVHSMESTBH
gBS2yZK7KFXxNj0Ayz9ogykihtoq/qEZpBcwFTETMBEGA1UEAwwKdGVhbTk5LW5l
dIIUMcg6/Nq1d1m3YKMAqenbk7aowS4wEwYDVR0lBAwwCgYIKwYBBQUHAwIwCwYD
VR0PBAQDAgeAMA0GCSqGSIb3DQEBCwUAA4IBAQCTTS+z6H77GRj7NKUCNz0n53EA
zIYQB7XqHwDc0/vSzb65LOZRcwb/vgUk9KrUma0XyToqQURMmHMVuLN2wxH0DgPS
5FDLvcNJSe8KRck9AzYee18rVR7zH50Elo9/CRe1djxs66IGbUq8GfQFninaExjb
lD3B/N0ipGIVL+80P5z/yWmd3SPAvcpk+Vx7ht0+3Zk+gnW8XLvZcDCh/sYNGxf1
93RsV+iNr23GmtikgRBDuqOzpg7X29+YjWjOYhVu71/PqhMjK/kJVfn+rnTSct/I
wuq8U44GOUvH2jECNp2EUuBWE53nDv6vZ37PuS3S534Ow4+IEf7taPCPcWag
-----END CERTIFICATE-----
