Certificate:
    Data:
        Version: 3 (0x2)
        Serial Number:
            37:45:6d:73:07:7f:f6:d2:da:23:f7:b6:2a:d8:6b:22
        Signature Algorithm: sha256WithRSAEncryption
        Issuer: CN=team99-net
        Validity
            Not Before: Nov  4 11:29:20 2023 GMT
            Not After : Oct 19 11:29:20 2026 GMT
        Subject: CN=team99-server
        Subject Public Key Info:
            Public Key Algorithm: rsaEncryption
                Public-Key: (2048 bit)
                Modulus:
                    00:d9:7a:e7:fe:a2:1a:5b:56:db:5f:03:12:45:30:
                    ad:d6:d9:eb:42:af:ce:a2:e0:0b:a9:f4:23:fa:8d:
                    35:76:a3:97:1e:6f:c3:a7:85:86:de:98:4a:9f:28:
                    57:ca:98:fe:b3:6d:7c:7e:23:e2:bb:90:3a:c7:30:
                    b5:f1:dc:76:ff:e7:dd:e3:4a:15:64:8a:47:c6:ac:
                    20:71:13:d6:fd:53:d4:87:29:88:cf:67:e5:86:ca:
                    d5:12:7f:5a:55:c1:84:4f:c7:d0:3b:3d:68:e4:61:
                    43:8c:39:8d:c4:4e:82:8e:73:05:97:85:bb:b1:4d:
                    f7:a2:2d:16:ee:ef:3e:0f:4b:40:ad:54:a0:f6:d4:
                    45:08:26:ad:92:2b:f7:11:4c:4f:9b:6d:c5:55:15:
                    02:c7:bc:c6:a5:f4:5d:97:7b:b2:9e:37:e3:8c:d4:
                    6c:a7:ea:5e:a0:5b:3f:fa:d3:94:56:bf:7c:13:d5:
                    64:26:26:f4:a4:91:64:11:75:e5:ed:a5:d7:b1:a4:
                    a1:91:55:1b:74:52:cc:1e:b8:58:63:e1:f5:02:2f:
                    d5:39:49:61:a5:42:84:78:5f:e1:49:fe:c8:0b:94:
                    fe:29:5e:95:1b:31:ff:64:ea:25:e4:d8:ad:0d:68:
                    83:1d:a3:9e:04:ed:e5:cb:78:d9:f8:78:7b:d3:47:
                    c4:31
                Exponent: 65537 (0x10001)
        X509v3 extensions:
            X509v3 Basic Constraints: 
                CA:FALSE
            X509v3 Subject Key Identifier: 
                D0:5C:31:87:8F:19:CB:A4:4A:76:EA:47:08:F0:98:C0:BC:03:69:EB
            X509v3 Authority Key Identifier: 
                keyid:75:A5:EB:68:ED:DA:33:92:87:BD:57:A3:69:A0:B7:43:6C:B6:62:01
                DirName:/CN=team99-net
                serial:70:91:A1:08:DD:29:55:CE:3E:65:85:DF:28:70:E1:09:91:18:30:BC
            X509v3 Extended Key Usage: 
                TLS Web Server Authentication
            X509v3 Key Usage: 
                Digital Signature, Key Encipherment
            X509v3 Subject Alternative Name: 
                DNS:team99-server
    Signature Algorithm: sha256WithRSAEncryption
    Signature Value:
        21:4f:7b:9f:07:5f:e3:63:03:b7:80:2e:c5:59:c2:05:a7:8e:
        31:10:9f:ea:74:63:4f:ab:af:7e:92:68:08:6b:fb:a9:6d:be:
        93:37:5f:19:0b:fb:eb:a1:eb:e4:86:73:bc:e6:87:63:f4:4a:
        36:25:3b:1f:a8:1f:d7:83:4b:a6:d0:d6:64:54:a8:b2:f8:59:
        43:a1:b4:30:25:d2:01:22:a9:56:53:0a:b5:14:12:fa:32:ca:
        0d:da:4c:19:ce:7d:cf:9c:1c:ac:33:81:d5:4c:f8:2a:28:6e:
        0c:ee:03:60:30:c3:4e:8c:3f:01:fe:d4:84:08:3a:4e:39:b9:
        2c:5e:47:77:73:c3:b9:51:43:9b:3f:d5:be:4d:9f:02:6e:09:
        cf:d3:31:4d:96:48:23:45:f7:db:dd:e9:f1:a4:a8:bd:41:65:
        fe:aa:c2:39:01:4e:01:4e:87:81:32:71:48:51:c9:4a:4b:b4:
        ba:ba:21:f1:2a:27:78:d9:87:d6:59:80:35:b0:9b:34:66:49:
        ab:81:2f:b0:57:74:4d:0c:e1:1a:1e:b7:8a:21:6f:6a:da:37:
        35:3b:12:f6:e8:63:28:d1:01:e5:e0:ec:55:e8:bf:f2:16:ab:
        f0:eb:c3:b5:ef:cd:72:58:a1:11:9b:0d:1a:57:31:7a:2d:a8:
        74:09:cd:47
-----BEGIN CERTIFICATE-----
MIIDczCCAlugAwIBAgIQN0Vtcwd/9tLaI/e2KthrIjANBgkqhkiG9w0BAQsFADAV
MRMwEQYDVQQDDAp0ZWFtOTktbmV0MB4XDTIzMTEwNDExMjkyMFoXDTI2MTAxOTEx
MjkyMFowGDEWMBQGA1UEAwwNdGVhbTk5LXNlcnZlcjCCASIwDQYJKoZIhvcNAQEB
BQADggEPADCCAQoCggEBANl65/6iGltW218DEkUwrdbZ60KvzqLgC6n0I/qNNXaj
lx5vw6eFht6YSp8oV8qY/rNtfH4j4ruQOscwtfHcdv/n3eNKFWSKR8asIHET1v1T
1IcpiM9n5YbK1RJ/WlXBhE/H0Ds9aORhQ4w5jcROgo5zBZeFu7FN96ItFu7vPg9L
QK1UoPbURQgmrZIr9xFMT5ttxVUVAse8xqX0XZd7sp4344zUbKfqXqBbP/rTlFa/
fBPVZCYm9KSRZBF15e2l17GkoZFVG3RSzB64WGPh9QIv1TlJYaVChHhf4Un+yAuU
/ilelRsx/2TqJeTYrQ1ogx2jngTt5ct42fh4e9NHxDECAwEAAaOBuzCBuDAJBgNV
HRMEAjAAMB0GA1UdDgQWBBTQXDGHjxnLpEp26kcI8JjAvANp6zBQBgNVHSMESTBH
gBR1peto7dozkoe9V6NpoLdDbLZiAaEZpBcwFTETMBEGA1UEAwwKdGVhbTk5LW5l
dIIUcJGhCN0pVc4+ZYXfKHDhCZEYMLwwEwYDVR0lBAwwCgYIKwYBBQUHAwEwCwYD
VR0PBAQDAgWgMBgGA1UdEQQRMA+CDXRlYW05OS1zZXJ2ZXIwDQYJKoZIhvcNAQEL
BQADggEBACFPe58HX+NjA7eALsVZwgWnjjEQn+p0Y0+rr36SaAhr+6ltvpM3XxkL
++uh6+SGc7zmh2P0SjYlOx+oH9eDS6bQ1mRUqLL4WUOhtDAl0gEiqVZTCrUUEvoy
yg3aTBnOfc+cHKwzgdVM+CoobgzuA2Aww06MPwH+1IQIOk45uSxeR3dzw7lRQ5s/
1b5NnwJuCc/TMU2WSCNF99vd6fGkqL1BZf6qwjkBTgFOh4EycUhRyUpLtLq6IfEq
J3jZh9ZZgDWwmzRmSauBL7BXdE0M4Roet4ohb2raNzU7EvboYyjRAeXg7FXov/IW
q/Drw7XvzXJYoRGbDRpXMXotqHQJzUc=
-----END CERTIFICATE-----
