Certificate:
    Data:
        Version: 3 (0x2)
        Serial Number:
            59:26:20:74:4d:23:71:9b:89:13:f9:f5:99:2f:88:d2
        Signature Algorithm: sha256WithRSAEncryption
        Issuer: CN=team99-net
        Validity
            Not Before: Nov  3 20:40:54 2023 GMT
            Not After : Oct 18 20:40:54 2026 GMT
        Subject: CN=team99-server
        Subject Public Key Info:
            Public Key Algorithm: rsaEncryption
                Public-Key: (2048 bit)
                Modulus:
                    00:e5:7a:15:b9:e2:cb:7f:1b:6e:d5:6b:ea:c9:2c:
                    a2:29:34:c0:ce:75:14:0f:0c:a2:30:b1:67:0a:86:
                    60:a0:bd:eb:9e:51:d3:d4:c8:8c:ec:2b:7c:32:b4:
                    9c:f2:34:43:f8:22:e5:e0:fc:1e:9b:1b:5f:d1:90:
                    62:5a:08:19:6d:1e:4e:e5:83:39:29:60:73:6a:ba:
                    58:de:c4:26:ab:e6:4b:a4:fe:5c:df:f2:d4:c0:b1:
                    1b:d1:90:46:74:09:a1:d2:6b:86:a1:75:ea:97:db:
                    85:eb:84:5c:d4:49:cb:1e:62:f6:04:13:f2:d5:b8:
                    d9:b4:8e:c7:b3:24:d0:6d:6e:c2:fe:36:b0:45:29:
                    bb:19:fe:de:64:7d:0c:0b:69:68:4d:ff:ed:96:ca:
                    bc:21:f2:c8:0c:42:67:08:11:62:5e:ee:11:88:5b:
                    15:9c:8d:d8:67:8c:29:32:73:f9:b8:30:1d:59:81:
                    1f:4d:a5:2c:4a:f0:92:2b:97:86:26:ad:30:1f:43:
                    fd:47:34:6d:78:a4:0d:14:63:5c:4a:47:8f:2a:b1:
                    a2:7a:e9:d7:20:ef:01:91:90:6a:8e:d1:5f:aa:3a:
                    cf:9b:d8:73:c6:70:d6:cd:ae:df:ee:a4:cf:42:46:
                    ec:20:b9:1a:0b:28:45:3d:9a:8f:72:ad:94:01:b8:
                    02:8f
                Exponent: 65537 (0x10001)
        X509v3 extensions:
            X509v3 Basic Constraints: 
                CA:FALSE
            X509v3 Subject Key Identifier: 
                04:3B:DD:4E:04:23:49:EF:8C:F6:67:E4:F7:B4:83:58:10:DC:9F:B2
            X509v3 Authority Key Identifier: 
                keyid:B6:C9:92:BB:28:55:F1:36:3D:00:CB:3F:68:83:29:22:86:DA:2A:FE
                DirName:/CN=team99-net
                serial:31:C8:3A:FC:DA:B5:77:59:B7:60:A3:00:A9:E9:DB:93:B6:A8:C1:2E
            X509v3 Extended Key Usage: 
                TLS Web Server Authentication
            X509v3 Key Usage: 
                Digital Signature, Key Encipherment
            X509v3 Subject Alternative Name: 
                DNS:team99-server
    Signature Algorithm: sha256WithRSAEncryption
    Signature Value:
        64:f8:b5:2c:02:8a:ac:4a:1f:16:a5:38:d4:85:cd:3a:db:f9:
        88:a9:8d:21:76:2d:d2:c3:d2:dc:0c:3f:5a:3d:72:15:f2:48:
        37:1e:ee:17:62:1f:80:fb:ae:aa:ad:3a:4d:08:d4:c3:c2:66:
        2f:e4:d9:e0:5b:6b:b0:47:ac:36:cc:9c:40:33:50:93:51:54:
        4d:43:34:98:07:2d:97:c5:8d:d6:41:ca:3f:ec:9f:d3:dd:ad:
        2f:a6:30:26:ab:46:ee:11:85:9c:b8:14:f3:a6:a0:d2:c4:20:
        21:12:02:d9:c4:02:f3:39:e8:1f:18:43:16:d5:e5:f3:93:2b:
        40:be:70:ea:bc:fb:0b:4e:47:e9:50:b5:65:17:a7:06:22:4c:
        7b:16:41:ba:f9:84:ff:8a:ea:da:96:25:e4:12:10:dc:97:d2:
        42:e0:7a:09:99:ad:7e:6f:41:a5:07:9c:42:b6:af:c5:70:ac:
        d2:86:2e:ca:6a:66:3c:ab:dc:2c:f3:47:63:59:a7:0b:82:82:
        52:d1:ed:f0:6f:6e:da:af:ed:67:d2:7a:ba:9d:aa:b0:5e:6c:
        f2:3f:c2:28:34:87:d8:58:01:83:be:03:94:ee:73:b0:bc:57:
        a3:3f:22:93:b3:2e:d3:a5:20:af:1b:f7:b5:ae:cf:f8:39:0e:
        7d:d2:c3:d1
-----BEGIN CERTIFICATE-----
MIIDczCCAlugAwIBAgIQWSYgdE0jcZuJE/n1mS+I0jANBgkqhkiG9w0BAQsFADAV
MRMwEQYDVQQDDAp0ZWFtOTktbmV0MB4XDTIzMTEwMzIwNDA1NFoXDTI2MTAxODIw
NDA1NFowGDEWMBQGA1UEAwwNdGVhbTk5LXNlcnZlcjCCASIwDQYJKoZIhvcNAQEB
BQADggEPADCCAQoCggEBAOV6Fbniy38bbtVr6sksoik0wM51FA8MojCxZwqGYKC9
655R09TIjOwrfDK0nPI0Q/gi5eD8HpsbX9GQYloIGW0eTuWDOSlgc2q6WN7EJqvm
S6T+XN/y1MCxG9GQRnQJodJrhqF16pfbheuEXNRJyx5i9gQT8tW42bSOx7Mk0G1u
wv42sEUpuxn+3mR9DAtpaE3/7ZbKvCHyyAxCZwgRYl7uEYhbFZyN2GeMKTJz+bgw
HVmBH02lLErwkiuXhiatMB9D/Uc0bXikDRRjXEpHjyqxonrp1yDvAZGQao7RX6o6
z5vYc8Zw1s2u3+6kz0JG7CC5GgsoRT2aj3KtlAG4Ao8CAwEAAaOBuzCBuDAJBgNV
HRMEAjAAMB0GA1UdDgQWBBQEO91OBCNJ74z2Z+T3tINYENyfsjBQBgNVHSMESTBH
gBS2yZK7KFXxNj0Ayz9ogykihtoq/qEZpBcwFTETMBEGA1UEAwwKdGVhbTk5LW5l
dIIUMcg6/Nq1d1m3YKMAqenbk7aowS4wEwYDVR0lBAwwCgYIKwYBBQUHAwEwCwYD
VR0PBAQDAgWgMBgGA1UdEQQRMA+CDXRlYW05OS1zZXJ2ZXIwDQYJKoZIhvcNAQEL
BQADggEBAGT4tSwCiqxKHxalONSFzTrb+YipjSF2LdLD0twMP1o9chXySDce7hdi
H4D7rqqtOk0I1MPCZi/k2eBba7BHrDbMnEAzUJNRVE1DNJgHLZfFjdZByj/sn9Pd
rS+mMCarRu4RhZy4FPOmoNLEICESAtnEAvM56B8YQxbV5fOTK0C+cOq8+wtOR+lQ
tWUXpwYiTHsWQbr5hP+K6tqWJeQSENyX0kLgegmZrX5vQaUHnEK2r8VwrNKGLspq
Zjyr3CzzR2NZpwuCglLR7fBvbtqv7WfSerqdqrBebPI/wig0h9hYAYO+A5Tuc7C8
V6M/IpOzLtOlIK8b97Wuz/g5Dn3Sw9E=
-----END CERTIFICATE-----
