Certificate:
    Data:
        Version: 3 (0x2)
        Serial Number:
            0c:a4:1d:e7:f7:14:5d:ce:47:d8:19:3a:9a:17:14:45
        Signature Algorithm: sha256WithRSAEncryption
        Issuer: CN=team150-net
        Validity
            Not Before: Nov  3 20:41:55 2023 GMT
            Not After : Oct 18 20:41:55 2026 GMT
        Subject: CN=team150-server
        Subject Public Key Info:
            Public Key Algorithm: rsaEncryption
                Public-Key: (2048 bit)
                Modulus:
                    00:df:72:3e:f2:6e:d0:d5:bf:91:8d:4c:14:85:84:
                    59:99:ec:2e:b2:1b:77:8a:fd:e7:b5:d6:64:9a:97:
                    e9:9e:77:16:dd:e4:a2:17:80:85:f5:b1:c8:f1:ad:
                    44:56:c3:2c:73:1d:d9:b0:86:7f:4e:40:88:46:31:
                    c7:31:70:9b:32:d7:38:dc:e7:57:4c:89:d1:f7:e1:
                    47:e9:d3:50:2d:d2:47:ee:c2:3c:d4:43:5c:b7:cb:
                    a8:36:b8:ba:de:f8:ad:42:f5:06:9c:45:b6:ad:dd:
                    65:4e:71:0a:6b:51:d1:43:4c:7a:62:bf:b7:f5:7c:
                    6c:cc:0d:33:63:a7:2a:09:08:0c:67:47:4b:48:bd:
                    fb:d9:86:1a:fb:81:43:45:96:a3:17:37:62:f8:97:
                    a4:3e:ae:d7:8d:1c:08:72:b7:30:45:7d:75:56:44:
                    cc:18:8c:57:07:35:92:1f:c1:f1:d3:fa:84:1c:db:
                    91:92:6b:93:08:7f:77:5b:02:e2:2f:bb:82:9e:70:
                    74:f6:61:ff:ae:ee:ce:b1:19:9d:7b:ac:cf:be:d8:
                    83:a5:2b:68:34:90:f8:fc:c8:6a:e8:32:e0:94:8b:
                    76:34:7e:e8:ba:9f:37:4e:3c:e1:38:63:68:ab:62:
                    77:6e:2a:1c:2f:2d:84:b4:94:39:bd:ec:50:d3:86:
                    96:19
                Exponent: 65537 (0x10001)
        X509v3 extensions:
            X509v3 Basic Constraints: 
                CA:FALSE
            X509v3 Subject Key Identifier: 
                7C:A3:6E:F9:1D:CF:CD:5E:CD:51:B0:CE:D2:C9:15:A4:4A:A1:E3:F6
            X509v3 Authority Key Identifier: 
                keyid:A3:9A:E2:0A:2C:9F:FF:BF:B9:12:72:2B:31:92:6D:35:E9:31:99:13
                DirName:/CN=team150-net
                serial:7B:B3:2C:C6:7D:04:A5:1B:E5:B1:25:F9:2E:1B:F0:27:B8:75:DC:33
            X509v3 Extended Key Usage: 
                TLS Web Server Authentication
            X509v3 Key Usage: 
                Digital Signature, Key Encipherment
            X509v3 Subject Alternative Name: 
                DNS:team150-server
    Signature Algorithm: sha256WithRSAEncryption
    Signature Value:
        10:f4:dd:b9:c2:3f:af:f0:cc:69:fe:31:26:f2:bb:c0:b6:ae:
        61:28:b5:22:76:fd:18:80:a5:77:d9:9c:a0:3c:56:48:b0:da:
        f6:cd:0f:f1:4d:c1:2c:b4:1d:f7:63:1c:e4:82:5a:99:39:8f:
        9f:50:b4:66:4b:03:b0:0e:46:d9:90:e5:93:cf:94:60:3b:cf:
        df:f4:d7:94:19:f6:7e:ab:8a:67:e7:cb:5a:52:c9:cd:82:ff:
        1c:a4:78:63:d3:2a:01:e1:a4:22:a2:70:62:aa:80:9c:cd:bb:
        ae:25:a5:68:34:4b:18:36:67:33:e0:fc:1f:96:83:e7:d0:16:
        51:1c:8a:f8:e4:f9:28:2b:6f:7b:79:7c:97:ea:53:38:8b:76:
        af:97:f5:81:6f:4c:36:ab:ac:5c:64:4d:27:29:c3:b3:ac:91:
        bb:c6:c9:6d:8c:be:f1:2d:d0:00:c9:33:fd:49:6e:c5:a8:96:
        ef:78:40:65:5b:da:07:39:8a:fd:16:03:ca:82:18:3d:bd:fb:
        8d:30:1f:57:6d:1a:b7:b6:3a:f2:78:35:9f:3f:63:67:af:90:
        2d:8c:9b:43:a0:00:44:8d:08:43:4b:1f:0a:0e:cf:2e:d1:9e:
        4f:2d:25:a4:35:28:bc:e0:f0:27:47:2a:28:96:8b:2f:a9:c4:
        f9:de:9b:e5
-----BEGIN CERTIFICATE-----
MIIDdzCCAl+gAwIBAgIQDKQd5/cUXc5H2Bk6mhcURTANBgkqhkiG9w0BAQsFADAW
MRQwEgYDVQQDDAt0ZWFtMTUwLW5ldDAeFw0yMzExMDMyMDQxNTVaFw0yNjEwMTgy
MDQxNTVaMBkxFzAVBgNVBAMMDnRlYW0xNTAtc2VydmVyMIIBIjANBgkqhkiG9w0B
AQEFAAOCAQ8AMIIBCgKCAQEA33I+8m7Q1b+RjUwUhYRZmewusht3iv3ntdZkmpfp
nncW3eSiF4CF9bHI8a1EVsMscx3ZsIZ/TkCIRjHHMXCbMtc43OdXTInR9+FH6dNQ
LdJH7sI81ENct8uoNri63vitQvUGnEW2rd1lTnEKa1HRQ0x6Yr+39XxszA0zY6cq
CQgMZ0dLSL372YYa+4FDRZajFzdi+JekPq7XjRwIcrcwRX11VkTMGIxXBzWSH8Hx
0/qEHNuRkmuTCH93WwLiL7uCnnB09mH/ru7OsRmde6zPvtiDpStoNJD4/Mhq6DLg
lIt2NH7oup83TjzhOGNoq2J3biocLy2EtJQ5vexQ04aWGQIDAQABo4G9MIG6MAkG
A1UdEwQCMAAwHQYDVR0OBBYEFHyjbvkdz81ezVGwztLJFaRKoeP2MFEGA1UdIwRK
MEiAFKOa4gosn/+/uRJyKzGSbTXpMZkToRqkGDAWMRQwEgYDVQQDDAt0ZWFtMTUw
LW5ldIIUe7Msxn0EpRvlsSX5LhvwJ7h13DMwEwYDVR0lBAwwCgYIKwYBBQUHAwEw
CwYDVR0PBAQDAgWgMBkGA1UdEQQSMBCCDnRlYW0xNTAtc2VydmVyMA0GCSqGSIb3
DQEBCwUAA4IBAQAQ9N25wj+v8Mxp/jEm8rvAtq5hKLUidv0YgKV32ZygPFZIsNr2
zQ/xTcEstB33YxzkglqZOY+fULRmSwOwDkbZkOWTz5RgO8/f9NeUGfZ+q4pn58ta
UsnNgv8cpHhj0yoB4aQionBiqoCczbuuJaVoNEsYNmcz4PwfloPn0BZRHIr45Pko
K297eXyX6lM4i3avl/WBb0w2q6xcZE0nKcOzrJG7xsltjL7xLdAAyTP9SW7FqJbv
eEBlW9oHOYr9FgPKghg9vfuNMB9XbRq3tjryeDWfP2Nnr5AtjJtDoABEjQhDSx8K
Ds8u0Z5PLSWkNSi84PAnRyoolosvqcT53pvl
-----END CERTIFICATE-----
