Certificate:
    Data:
        Version: 3 (0x2)
        Serial Number:
            67:b7:3a:84:61:7d:c2:f9:80:66:e4:3a:f7:62:29:7a
        Signature Algorithm: sha256WithRSAEncryption
        Issuer: CN=team150-net
        Validity
            Not Before: Nov  4 10:43:19 2023 GMT
            Not After : Oct 19 10:43:19 2026 GMT
        Subject: CN=team150-server
        Subject Public Key Info:
            Public Key Algorithm: rsaEncryption
                Public-Key: (2048 bit)
                Modulus:
                    00:ba:fe:ee:9f:dd:7f:40:74:7e:6f:1f:ae:01:ae:
                    5b:63:5a:13:b7:ea:e2:38:ca:64:3a:96:43:0b:42:
                    9f:f8:29:bd:ac:2b:26:be:4c:71:11:91:fd:e1:e2:
                    0b:da:45:4f:85:9c:09:27:7a:e3:dc:79:35:73:78:
                    a3:e4:89:53:ab:74:70:e4:bc:13:07:ee:a1:98:60:
                    3c:ad:76:f5:63:92:2b:ff:35:b3:32:02:d4:a2:f7:
                    d0:cc:6e:dc:61:82:d1:cf:c5:88:3d:73:0e:d1:b7:
                    d4:a1:e9:a4:d1:a4:13:42:31:ba:aa:45:8d:f1:40:
                    d4:f7:17:3d:2b:52:75:51:30:c7:07:9c:09:c2:c7:
                    ae:aa:14:61:ed:0b:b6:2e:2c:ed:0f:4b:8e:c9:51:
                    7a:e5:d4:34:57:e6:0b:77:18:fc:05:3c:66:d2:f6:
                    a9:c1:63:d6:d5:76:96:a7:07:7b:47:c3:fc:54:01:
                    56:1d:ec:33:a3:2e:b5:e2:07:c1:ff:37:28:c0:74:
                    e8:bf:5d:27:e1:61:d7:cd:a8:1c:f9:3c:3e:20:77:
                    56:c6:8b:94:8f:8c:1a:0f:a0:3a:d1:43:8f:0c:14:
                    1a:4a:e5:12:b2:1b:0e:70:58:27:34:37:ce:41:8c:
                    69:ed:d2:b4:51:f3:96:5d:93:48:3f:0b:17:6d:fc:
                    55:d7
                Exponent: 65537 (0x10001)
        X509v3 extensions:
            X509v3 Basic Constraints: 
                CA:FALSE
            X509v3 Subject Key Identifier: 
                07:A0:5B:65:0C:42:AE:AA:CD:FA:0C:70:4F:D3:5E:D8:F1:5C:6A:A7
            X509v3 Authority Key Identifier: 
                keyid:88:BE:74:0D:27:34:D5:37:38:7E:27:A0:BB:FE:14:CF:F4:24:8B:DB
                DirName:/CN=team150-net
                serial:73:2A:46:4A:75:DA:A9:0E:7A:A5:35:4B:94:A0:03:4B:EA:A1:63:77
            X509v3 Extended Key Usage: 
                TLS Web Server Authentication
            X509v3 Key Usage: 
                Digital Signature, Key Encipherment
            X509v3 Subject Alternative Name: 
                DNS:team150-server
    Signature Algorithm: sha256WithRSAEncryption
    Signature Value:
        b5:af:0d:b5:d7:c7:75:c8:32:03:a9:9e:e6:15:0e:25:ba:a2:
        75:e8:de:73:e8:1d:3c:82:cc:a6:c5:a8:5f:4d:a5:7c:5a:a5:
        b8:67:f8:a7:22:74:ae:36:4a:de:33:bc:ae:90:f8:e3:dc:d7:
        77:83:8f:08:3c:47:23:b0:41:be:c0:64:88:43:c0:53:dc:dd:
        ae:ff:d9:9d:cf:05:bd:84:15:31:8e:b1:96:33:0f:c6:a6:52:
        0e:5a:b0:3a:8f:b5:44:08:86:46:f4:6a:62:dd:d9:48:e9:17:
        bb:cc:55:9f:00:ac:d9:b8:cd:86:4a:96:2b:9c:45:a6:46:24:
        ce:81:d4:9a:73:d8:b1:b2:17:e7:27:6e:d6:c2:b8:56:34:89:
        f2:84:73:f9:5e:76:eb:1d:10:a5:55:4b:71:30:b8:ae:66:58:
        7e:13:38:11:da:79:8e:e9:e9:07:7e:58:ae:a0:de:51:2b:2d:
        81:c2:a5:9f:4c:65:c2:e9:99:df:35:a1:37:95:08:32:8e:7b:
        e7:6f:4e:df:03:6e:6b:d4:a0:2d:54:49:25:eb:19:e1:6a:c8:
        47:b1:ca:92:25:12:7c:ee:8d:8d:8f:27:df:a8:c4:09:be:8c:
        cd:fb:41:5d:8b:c1:ad:3b:bd:1b:1e:f0:65:10:27:82:76:4e:
        d6:f5:39:1a
-----BEGIN CERTIFICATE-----
MIIDdzCCAl+gAwIBAgIQZ7c6hGF9wvmAZuQ692IpejANBgkqhkiG9w0BAQsFADAW
MRQwEgYDVQQDDAt0ZWFtMTUwLW5ldDAeFw0yMzExMDQxMDQzMTlaFw0yNjEwMTkx
MDQzMTlaMBkxFzAVBgNVBAMMDnRlYW0xNTAtc2VydmVyMIIBIjANBgkqhkiG9w0B
AQEFAAOCAQ8AMIIBCgKCAQEAuv7un91/QHR+bx+uAa5bY1oTt+riOMpkOpZDC0Kf
+Cm9rCsmvkxxEZH94eIL2kVPhZwJJ3rj3Hk1c3ij5IlTq3Rw5LwTB+6hmGA8rXb1
Y5Ir/zWzMgLUovfQzG7cYYLRz8WIPXMO0bfUoemk0aQTQjG6qkWN8UDU9xc9K1J1
UTDHB5wJwseuqhRh7Qu2LiztD0uOyVF65dQ0V+YLdxj8BTxm0vapwWPW1XaWpwd7
R8P8VAFWHewzoy614gfB/zcowHTov10n4WHXzagc+Tw+IHdWxouUj4waD6A60UOP
DBQaSuUSshsOcFgnNDfOQYxp7dK0UfOWXZNIPwsXbfxV1wIDAQABo4G9MIG6MAkG
A1UdEwQCMAAwHQYDVR0OBBYEFAegW2UMQq6qzfoMcE/TXtjxXGqnMFEGA1UdIwRK
MEiAFIi+dA0nNNU3OH4noLv+FM/0JIvboRqkGDAWMRQwEgYDVQQDDAt0ZWFtMTUw
LW5ldIIUcypGSnXaqQ56pTVLlKADS+qhY3cwEwYDVR0lBAwwCgYIKwYBBQUHAwEw
CwYDVR0PBAQDAgWgMBkGA1UdEQQSMBCCDnRlYW0xNTAtc2VydmVyMA0GCSqGSIb3
DQEBCwUAA4IBAQC1rw2118d1yDIDqZ7mFQ4luqJ16N5z6B08gsymxahfTaV8WqW4
Z/inInSuNkreM7yukPjj3Nd3g48IPEcjsEG+wGSIQ8BT3N2u/9mdzwW9hBUxjrGW
Mw/GplIOWrA6j7VECIZG9Gpi3dlI6Re7zFWfAKzZuM2GSpYrnEWmRiTOgdSac9ix
shfnJ27WwrhWNInyhHP5XnbrHRClVUtxMLiuZlh+EzgR2nmO6ekHfliuoN5RKy2B
wqWfTGXC6ZnfNaE3lQgyjnvnb07fA25r1KAtVEkl6xnhashHscqSJRJ87o2Njyff
qMQJvozN+0Fdi8GtO70bHvBlECeCdk7W9Tka
-----END CERTIFICATE-----
