Certificate:
    Data:
        Version: 3 (0x2)
        Serial Number:
            dd:43:1a:88:d2:e2:2d:f9:97:bf:1d:91:8f:12:da:0d
        Signature Algorithm: sha256WithRSAEncryption
        Issuer: CN=team150-net
        Validity
            Not Before: Nov  4 11:30:32 2023 GMT
            Not After : Oct 19 11:30:32 2026 GMT
        Subject: CN=team150-client
        Subject Public Key Info:
            Public Key Algorithm: rsaEncryption
                Public-Key: (2048 bit)
                Modulus:
                    00:b7:6d:f4:51:70:8d:6e:c5:77:8d:9c:4e:7b:92:
                    3e:ef:7a:88:6f:08:b6:d0:c2:39:7e:10:04:ae:c2:
                    47:2c:25:eb:d2:b7:b8:7f:71:44:44:f3:8e:3f:52:
                    79:62:79:9b:25:ec:be:e0:94:b9:b3:dc:6e:e0:74:
                    54:11:bd:3b:d3:f5:1d:b6:13:fa:7f:e7:3c:58:f0:
                    cc:55:b1:f6:02:96:93:d8:b2:67:eb:2f:79:2d:d2:
                    90:94:9e:8f:6c:63:76:09:d3:bc:92:26:c9:ff:d7:
                    e6:9e:3f:9f:41:bc:41:6b:34:ae:59:b0:12:92:de:
                    a9:eb:cf:e2:23:92:ce:35:f2:0e:22:2e:7d:f8:55:
                    9c:5a:6e:19:fa:6d:4e:82:75:5c:83:04:44:bc:db:
                    68:c8:64:27:c2:4d:0b:5d:e3:d2:98:cf:4e:66:38:
                    4c:6b:af:d7:3b:61:f7:ae:a8:fb:66:50:48:00:eb:
                    b5:d5:59:08:f5:15:ff:b2:e1:a3:25:e5:a5:4d:66:
                    6f:b4:d9:6c:37:19:6f:6c:2c:bb:41:85:59:d3:22:
                    f4:b9:c9:8a:49:4f:d4:62:d3:ff:4e:72:7d:e8:1c:
                    cc:46:f3:d2:4c:c9:42:b6:7a:d5:b7:64:77:7e:d5:
                    7f:e7:3a:35:e8:0d:66:24:68:8e:f2:5f:42:7c:ce:
                    28:43
                Exponent: 65537 (0x10001)
        X509v3 extensions:
            X509v3 Basic Constraints: 
                CA:FALSE
            X509v3 Subject Key Identifier: 
                A4:AB:53:1A:B2:9E:B6:5E:2A:3A:4E:1B:F6:F9:9D:46:15:5F:8D:48
            X509v3 Authority Key Identifier: 
                keyid:F7:D8:9A:69:2A:1A:E9:09:6A:9A:E5:F2:29:F4:59:5B:AA:D2:27:CD
                DirName:/CN=team150-net
                serial:58:A1:BF:EC:EF:12:EB:C7:C1:C4:BF:49:4A:5F:6E:40:3E:63:53:43
            X509v3 Extended Key Usage: 
                TLS Web Client Authentication
            X509v3 Key Usage: 
                Digital Signature
    Signature Algorithm: sha256WithRSAEncryption
    Signature Value:
        09:e0:a5:41:5f:44:bf:a6:1e:37:72:09:2c:fa:cf:83:d4:3d:
        2b:e2:d9:35:57:84:55:ee:4a:c2:ef:e4:9f:8f:da:98:9e:d6:
        42:a9:c7:60:5b:68:c4:d4:3b:74:f4:11:7a:e3:5d:1f:c3:e6:
        a9:2d:64:d3:23:5b:41:59:26:f7:5a:87:77:04:2a:16:66:95:
        01:b7:08:c3:97:26:ea:72:6d:d8:f6:ca:22:27:e6:83:f9:f0:
        5b:6c:fa:5c:af:6f:55:16:59:d7:07:87:59:53:3a:5d:4f:6c:
        bb:ff:fa:38:0d:41:2c:ae:29:c8:5f:2f:53:d0:b2:6b:41:40:
        f0:00:27:50:a9:2d:b9:9e:95:3f:0a:0e:b9:5b:9a:40:5a:11:
        8c:39:53:63:37:d4:b0:2a:82:f1:2d:74:53:15:e7:e7:a4:e8:
        db:fe:76:b9:44:13:90:8d:15:13:65:eb:8b:93:5d:86:03:c9:
        81:4a:e4:9f:97:17:59:7e:64:fe:e5:0d:1d:28:04:f2:de:2b:
        a1:7c:6b:8e:e8:48:f2:29:2c:e5:c7:90:ed:ba:ce:2e:1b:fc:
        45:80:fc:6c:f9:fa:d0:fd:9c:c1:97:d0:6b:92:a3:10:e2:8d:
        46:23:c7:c3:83:43:61:8d:ef:56:6d:12:b5:3f:95:c0:39:40:
        b4:47:d4:a4
-----BEGIN CERTIFICATE-----
MIIDXTCCAkWgAwIBAgIRAN1DGojS4i35l78dkY8S2g0wDQYJKoZIhvcNAQELBQAw
FjEUMBIGA1UEAwwLdGVhbTE1MC1uZXQwHhcNMjMxMTA0MTEzMDMyWhcNMjYxMDE5
MTEzMDMyWjAZMRcwFQYDVQQDDA50ZWFtMTUwLWNsaWVudDCCASIwDQYJKoZIhvcN
AQEBBQADggEPADCCAQoCggEBALdt9FFwjW7Fd42cTnuSPu96iG8IttDCOX4QBK7C
Rywl69K3uH9xRETzjj9SeWJ5myXsvuCUubPcbuB0VBG9O9P1HbYT+n/nPFjwzFWx
9gKWk9iyZ+sveS3SkJSej2xjdgnTvJImyf/X5p4/n0G8QWs0rlmwEpLeqevP4iOS
zjXyDiIuffhVnFpuGfptToJ1XIMERLzbaMhkJ8JNC13j0pjPTmY4TGuv1zth966o
+2ZQSADrtdVZCPUV/7LhoyXlpU1mb7TZbDcZb2wsu0GFWdMi9LnJiklP1GLT/05y
fegczEbz0kzJQrZ61bdkd37Vf+c6NegNZiRojvJfQnzOKEMCAwEAAaOBojCBnzAJ
BgNVHRMEAjAAMB0GA1UdDgQWBBSkq1Masp62Xio6Thv2+Z1GFV+NSDBRBgNVHSME
SjBIgBT32JppKhrpCWqa5fIp9FlbqtInzaEapBgwFjEUMBIGA1UEAwwLdGVhbTE1
MC1uZXSCFFihv+zvEuvHwcS/SUpfbkA+Y1NDMBMGA1UdJQQMMAoGCCsGAQUFBwMC
MAsGA1UdDwQEAwIHgDANBgkqhkiG9w0BAQsFAAOCAQEACeClQV9Ev6YeN3IJLPrP
g9Q9K+LZNVeEVe5Kwu/kn4/amJ7WQqnHYFtoxNQ7dPQReuNdH8PmqS1k0yNbQVkm
91qHdwQqFmaVAbcIw5cm6nJt2PbKIifmg/nwW2z6XK9vVRZZ1weHWVM6XU9su//6
OA1BLK4pyF8vU9Cya0FA8AAnUKktuZ6VPwoOuVuaQFoRjDlTYzfUsCqC8S10UxXn
56To2/52uUQTkI0VE2Xri5NdhgPJgUrkn5cXWX5k/uUNHSgE8t4roXxrjuhI8iks
5ceQ7brOLhv8RYD8bPn60P2cwZfQa5KjEOKNRiPHw4NDYY3vVm0StT+VwDlAtEfU
pA==
-----END CERTIFICATE-----
