Certificate:
    Data:
        Version: 3 (0x2)
        Serial Number:
            b1:9c:04:21:09:ee:9c:a2:32:f3:8f:46:9b:16:ad:c4
        Signature Algorithm: sha256WithRSAEncryption
        Issuer: CN=team217-net
        Validity
            Not Before: Nov  3 20:43:16 2023 GMT
            Not After : Oct 18 20:43:16 2026 GMT
        Subject: CN=team217-client
        Subject Public Key Info:
            Public Key Algorithm: rsaEncryption
                Public-Key: (2048 bit)
                Modulus:
                    00:ab:33:a4:e5:80:37:d5:b6:e1:98:33:e8:7f:35:
                    5a:98:62:ed:69:25:c3:c2:2e:cf:d6:b0:1c:da:dc:
                    93:9e:76:6a:2d:b1:66:80:c1:65:a6:f2:72:10:4c:
                    e5:90:e5:3a:f5:1c:64:b6:3d:90:8b:7b:ee:1f:b0:
                    c3:d5:24:46:ac:2d:50:c7:fc:b0:4c:62:55:a2:ad:
                    ca:7e:08:97:a0:da:74:ba:b8:c0:f1:12:3c:c2:60:
                    f8:d9:89:5a:09:11:c9:e9:60:8e:8c:d9:87:b3:4d:
                    03:d9:8f:e4:b0:9d:3f:19:09:78:6d:73:bc:d7:13:
                    4a:e9:49:4a:21:86:1a:a9:63:63:d9:02:b1:3f:37:
                    cf:3d:71:a8:c4:20:87:dc:93:b8:dd:fc:f0:df:f7:
                    2d:01:89:c4:53:a2:f4:16:dd:dc:57:ef:02:13:65:
                    fb:34:ca:eb:9a:ef:1b:5c:21:51:8a:0c:ae:4c:2b:
                    93:27:e3:c0:d0:33:0c:52:a3:6c:f3:ad:49:fc:21:
                    69:43:0e:1a:26:b0:e3:02:49:94:6f:4b:e3:f7:46:
                    3b:9a:5e:7e:6b:4f:7a:04:90:3f:18:6a:43:62:77:
                    8e:87:93:39:1b:cc:51:37:83:79:6c:b7:68:00:cf:
                    ea:ea:c1:19:c0:b9:de:36:59:77:8e:9f:86:67:76:
                    db:6b
                Exponent: 65537 (0x10001)
        X509v3 extensions:
            X509v3 Basic Constraints: 
                CA:FALSE
            X509v3 Subject Key Identifier: 
                C9:5D:56:6F:9A:53:9E:58:1C:C2:81:20:F1:9E:6A:66:3A:4F:8C:63
            X509v3 Authority Key Identifier: 
                keyid:7C:35:E8:00:62:2C:21:25:9E:FD:F8:2F:8D:AC:45:21:65:2A:DC:22
                DirName:/CN=team217-net
                serial:10:7B:35:F1:E1:F5:0A:AC:6A:D1:70:5A:0B:E2:CA:F7:2A:CB:57:65
            X509v3 Extended Key Usage: 
                TLS Web Client Authentication
            X509v3 Key Usage: 
                Digital Signature
    Signature Algorithm: sha256WithRSAEncryption
    Signature Value:
        c0:49:c5:c0:a5:dd:a0:73:e0:fd:b7:91:85:99:5f:90:69:5e:
        1e:75:cb:73:b9:3d:2d:9d:59:31:13:a1:56:49:29:16:e0:25:
        e0:ef:28:3e:97:5e:3b:e1:dc:96:b0:f4:97:9b:6d:48:09:9b:
        7e:73:11:7b:d4:d9:59:80:21:54:b4:17:f3:aa:6b:ef:c2:a0:
        3f:51:9d:2a:ff:56:9d:26:35:3e:13:03:82:66:6e:8c:e6:9c:
        15:be:6d:53:2d:77:e1:2c:f8:7d:4f:77:31:5d:b7:d5:8c:fb:
        7b:74:66:75:d5:7c:52:78:e4:e4:71:f8:f1:fa:ef:1d:7b:e9:
        b9:4b:08:1c:45:08:12:f0:56:d9:e8:0c:b9:ce:e4:aa:39:d2:
        cd:17:f9:de:f4:c0:2e:e1:34:fa:8a:b0:41:e7:0f:96:42:b1:
        00:d5:08:6b:34:71:b0:d2:49:0c:0b:8e:cb:54:fe:97:18:6f:
        96:af:d1:93:ec:ba:49:6e:0d:6a:49:a4:11:95:50:d3:fc:fc:
        63:7d:34:93:d2:dc:d6:53:de:5c:8a:14:9f:81:90:9f:ce:e3:
        48:29:f0:a4:ec:3d:25:da:9d:36:7c:5f:00:52:36:e6:06:c6:
        3c:48:22:aa:9e:69:33:04:8c:94:53:41:1e:e0:db:7d:e0:47:
        6b:57:e4:f9
-----BEGIN CERTIFICATE-----
MIIDXTCCAkWgAwIBAgIRALGcBCEJ7pyiMvOPRpsWrcQwDQYJKoZIhvcNAQELBQAw
FjEUMBIGA1UEAwwLdGVhbTIxNy1uZXQwHhcNMjMxMTAzMjA0MzE2WhcNMjYxMDE4
MjA0MzE2WjAZMRcwFQYDVQQDDA50ZWFtMjE3LWNsaWVudDCCASIwDQYJKoZIhvcN
AQEBBQADggEPADCCAQoCggEBAKszpOWAN9W24Zgz6H81Wphi7Wklw8Iuz9awHNrc
k552ai2xZoDBZabychBM5ZDlOvUcZLY9kIt77h+ww9UkRqwtUMf8sExiVaKtyn4I
l6DadLq4wPESPMJg+NmJWgkRyelgjozZh7NNA9mP5LCdPxkJeG1zvNcTSulJSiGG
GqljY9kCsT83zz1xqMQgh9yTuN388N/3LQGJxFOi9Bbd3FfvAhNl+zTK65rvG1wh
UYoMrkwrkyfjwNAzDFKjbPOtSfwhaUMOGiaw4wJJlG9L4/dGO5pefmtPegSQPxhq
Q2J3joeTORvMUTeDeWy3aADP6urBGcC53jZZd46fhmd222sCAwEAAaOBojCBnzAJ
BgNVHRMEAjAAMB0GA1UdDgQWBBTJXVZvmlOeWBzCgSDxnmpmOk+MYzBRBgNVHSME
SjBIgBR8NegAYiwhJZ79+C+NrEUhZSrcIqEapBgwFjEUMBIGA1UEAwwLdGVhbTIx
Ny1uZXSCFBB7NfHh9QqsatFwWgviyvcqy1dlMBMGA1UdJQQMMAoGCCsGAQUFBwMC
MAsGA1UdDwQEAwIHgDANBgkqhkiG9w0BAQsFAAOCAQEAwEnFwKXdoHPg/beRhZlf
kGleHnXLc7k9LZ1ZMROhVkkpFuAl4O8oPpdeO+HclrD0l5ttSAmbfnMRe9TZWYAh
VLQX86pr78KgP1GdKv9WnSY1PhMDgmZujOacFb5tUy134Sz4fU93MV231Yz7e3Rm
ddV8Unjk5HH48frvHXvpuUsIHEUIEvBW2egMuc7kqjnSzRf53vTALuE0+oqwQecP
lkKxANUIazRxsNJJDAuOy1T+lxhvlq/Rk+y6SW4NakmkEZVQ0/z8Y300k9Lc1lPe
XIoUn4GQn87jSCnwpOw9JdqdNnxfAFI25gbGPEgiqp5pMwSMlFNBHuDbfeBHa1fk
+Q==
-----END CERTIFICATE-----
