Certificate:
    Data:
        Version: 3 (0x2)
        Serial Number:
            20:5f:09:96:48:5f:70:ce:4e:53:4b:7a:3d:b3:1a:37
        Signature Algorithm: sha256WithRSAEncryption
        Issuer: CN=team37-net
        Validity
            Not Before: Nov  3 20:39:54 2023 GMT
            Not After : Oct 18 20:39:54 2026 GMT
        Subject: CN=team37-server
        Subject Public Key Info:
            Public Key Algorithm: rsaEncryption
                Public-Key: (2048 bit)
                Modulus:
                    00:90:05:8f:92:b1:a0:cd:eb:1c:18:a8:ab:bf:3c:
                    de:ee:60:d8:14:7f:54:77:cc:ee:cc:ef:b8:2c:e7:
                    70:5b:ae:97:76:29:d1:bf:36:74:e3:a1:0a:23:1c:
                    ab:d7:2a:a6:d8:d9:6e:01:c6:96:30:a0:70:54:e6:
                    33:68:11:25:a4:fd:59:73:92:3c:10:e1:d4:f0:b7:
                    72:cc:06:10:b7:e6:26:5c:c3:2d:38:38:f2:4f:d6:
                    b2:11:ab:30:f2:67:b7:7d:87:e5:44:4a:bd:87:15:
                    98:12:72:64:07:50:f6:40:f0:f0:2d:3d:cc:23:c7:
                    93:cb:1c:64:e5:d5:f0:d5:6b:79:1b:12:4d:ce:98:
                    85:13:a2:1a:5e:51:ca:0a:fc:db:3b:94:7c:88:64:
                    0c:e8:d2:3b:79:74:90:0e:e4:e7:ea:6f:27:d0:bf:
                    e0:f6:be:5e:d5:bb:0e:b9:b2:68:1c:ad:56:d2:b2:
                    cd:30:b0:50:e9:da:26:54:2c:40:22:e0:2c:65:90:
                    aa:b4:de:06:da:2c:da:61:ad:48:2b:2e:27:92:7d:
                    ee:b8:74:d7:e3:48:1b:fb:9a:93:08:d7:f8:14:8f:
                    3b:ec:80:da:02:2f:0f:ef:5e:d1:57:40:e0:9f:06:
                    30:e6:c7:70:35:52:19:bc:ae:80:2b:be:54:6f:1d:
                    aa:3f
                Exponent: 65537 (0x10001)
        X509v3 extensions:
            X509v3 Basic Constraints: 
                CA:FALSE
            X509v3 Subject Key Identifier: 
                C8:26:B2:1C:9B:CD:DA:3E:9D:21:41:F5:A9:32:08:90:F1:EF:A6:8E
            X509v3 Authority Key Identifier: 
                keyid:31:10:C6:80:5C:C6:76:71:1E:3C:D8:6C:DF:18:63:54:E9:18:90:F8
                DirName:/CN=team37-net
                serial:07:95:3C:09:3B:7B:2A:1B:E7:C2:88:80:A1:F5:96:94:E7:C0:86:F0
            X509v3 Extended Key Usage: 
                TLS Web Server Authentication
            X509v3 Key Usage: 
                Digital Signature, Key Encipherment
            X509v3 Subject Alternative Name: 
                DNS:team37-server
    Signature Algorithm: sha256WithRSAEncryption
    Signature Value:
        84:18:40:71:63:7b:e7:80:f1:85:00:5d:97:59:14:88:a4:78:
        86:75:89:c7:e3:6f:a0:5f:61:b7:5d:eb:3b:35:bf:af:ca:09:
        cb:4f:7b:7a:de:c8:d6:b3:92:08:ce:ca:75:37:15:6f:31:03:
        cd:5d:64:b3:dc:0c:91:11:c1:f8:59:d9:00:b6:49:58:68:56:
        cc:97:2d:f9:f6:fd:a9:de:7e:93:f3:dc:82:99:00:e5:4d:ed:
        6e:b9:b9:73:13:c3:c1:a3:8c:cf:42:fa:11:aa:15:d3:86:38:
        98:03:32:ad:45:e1:7e:41:06:fb:ae:66:7e:a4:80:8e:04:f3:
        fb:d9:75:ec:fc:b4:3d:5b:2c:e2:78:11:79:f7:37:62:d6:d7:
        d6:e4:db:fd:83:a5:27:63:37:f1:7e:0f:d2:90:6a:e9:71:bb:
        47:2b:3b:7e:e1:81:d3:61:b5:02:19:08:aa:b6:7d:cc:8e:b0:
        a0:64:0d:72:91:af:1d:7b:a8:6e:0d:ad:c9:18:1d:2a:f0:4b:
        38:76:ea:16:b9:b4:c5:33:50:e8:7b:31:2f:3d:02:43:f9:9d:
        15:7a:e4:86:f1:5d:57:73:f9:90:6c:c0:29:37:ab:5d:9b:71:
        fd:0e:c7:36:33:c5:0e:15:63:24:2e:6f:54:d8:1e:1d:ff:73:
        b6:e9:90:6d
-----BEGIN CERTIFICATE-----
MIIDczCCAlugAwIBAgIQIF8JlkhfcM5OU0t6PbMaNzANBgkqhkiG9w0BAQsFADAV
MRMwEQYDVQQDDAp0ZWFtMzctbmV0MB4XDTIzMTEwMzIwMzk1NFoXDTI2MTAxODIw
Mzk1NFowGDEWMBQGA1UEAwwNdGVhbTM3LXNlcnZlcjCCASIwDQYJKoZIhvcNAQEB
BQADggEPADCCAQoCggEBAJAFj5KxoM3rHBioq7883u5g2BR/VHfM7szvuCzncFuu
l3Yp0b82dOOhCiMcq9cqptjZbgHGljCgcFTmM2gRJaT9WXOSPBDh1PC3cswGELfm
JlzDLTg48k/WshGrMPJnt32H5URKvYcVmBJyZAdQ9kDw8C09zCPHk8scZOXV8NVr
eRsSTc6YhROiGl5Rygr82zuUfIhkDOjSO3l0kA7k5+pvJ9C/4Pa+XtW7DrmyaByt
VtKyzTCwUOnaJlQsQCLgLGWQqrTeBtos2mGtSCsuJ5J97rh01+NIG/uakwjX+BSP
O+yA2gIvD+9e0VdA4J8GMObHcDVSGbyugCu+VG8dqj8CAwEAAaOBuzCBuDAJBgNV
HRMEAjAAMB0GA1UdDgQWBBTIJrIcm83aPp0hQfWpMgiQ8e+mjjBQBgNVHSMESTBH
gBQxEMaAXMZ2cR482GzfGGNU6RiQ+KEZpBcwFTETMBEGA1UEAwwKdGVhbTM3LW5l
dIIUB5U8CTt7KhvnwoiAofWWlOfAhvAwEwYDVR0lBAwwCgYIKwYBBQUHAwEwCwYD
VR0PBAQDAgWgMBgGA1UdEQQRMA+CDXRlYW0zNy1zZXJ2ZXIwDQYJKoZIhvcNAQEL
BQADggEBAIQYQHFje+eA8YUAXZdZFIikeIZ1icfjb6BfYbdd6zs1v6/KCctPe3re
yNazkgjOynU3FW8xA81dZLPcDJERwfhZ2QC2SVhoVsyXLfn2/anefpPz3IKZAOVN
7W65uXMTw8GjjM9C+hGqFdOGOJgDMq1F4X5BBvuuZn6kgI4E8/vZdez8tD1bLOJ4
EXn3N2LW19bk2/2DpSdjN/F+D9KQaulxu0crO37hgdNhtQIZCKq2fcyOsKBkDXKR
rx17qG4NrckYHSrwSzh26ha5tMUzUOh7MS89AkP5nRV65IbxXVdz+ZBswCk3q12b
cf0OxzYzxQ4VYyQub1TYHh3/c7bpkG0=
-----END CERTIFICATE-----
