Certificate:
    Data:
        Version: 3 (0x2)
        Serial Number:
            0a:d5:70:8c:a2:3d:93:80:ce:d1:62:fc:4c:b1:e1:2f
        Signature Algorithm: sha256WithRSAEncryption
        Issuer: CN=team414-net
        Validity
            Not Before: Nov  4 11:36:48 2023 GMT
            Not After : Oct 19 11:36:48 2026 GMT
        Subject: CN=team414-server
        Subject Public Key Info:
            Public Key Algorithm: rsaEncryption
                Public-Key: (2048 bit)
                Modulus:
                    00:b3:97:3f:45:12:11:f0:c2:1d:93:cd:7f:39:99:
                    1d:fc:ef:bd:74:8b:ab:3c:35:d2:4b:8e:06:e4:d8:
                    56:28:07:49:a4:2e:93:55:26:8d:ff:a6:5b:78:92:
                    2f:fc:18:e9:c3:15:25:76:4d:af:22:8b:ea:09:ca:
                    a0:fe:b9:ba:a9:8e:a6:45:9d:b0:30:d6:b3:82:7e:
                    49:cb:a8:3a:98:24:d3:54:f4:d8:f0:92:5a:7f:ab:
                    68:40:7d:d0:08:ba:d1:c1:95:e4:fd:4b:7f:90:c3:
                    ad:47:94:ad:fb:bd:b6:06:c7:4f:96:94:90:c9:5d:
                    60:73:5d:74:9d:0d:bc:eb:27:da:6a:68:82:50:0c:
                    af:70:fc:c3:bc:14:97:bb:1f:bd:24:8f:28:3b:79:
                    15:52:9e:40:a1:ed:56:78:7f:50:ea:0d:f3:27:82:
                    9c:ae:91:06:26:12:91:94:2c:e7:b2:9d:a0:cf:e3:
                    07:43:ab:83:6f:2c:c4:33:59:6d:5b:37:29:9e:5d:
                    17:25:f8:d3:9f:78:cf:7a:4f:de:c6:21:6b:07:74:
                    06:39:7e:7e:6e:6b:cb:a4:24:a4:70:20:c4:a6:5d:
                    bb:4f:8e:a9:dd:97:c0:2e:2c:14:b0:07:46:cd:a8:
                    5a:28:e3:18:c8:d2:da:03:cb:3d:36:55:6f:ee:b5:
                    e3:69
                Exponent: 65537 (0x10001)
        X509v3 extensions:
            X509v3 Basic Constraints: 
                CA:FALSE
            X509v3 Subject Key Identifier: 
                F4:22:6A:77:1B:C8:86:D8:0A:EB:EE:CD:6F:E5:43:DB:06:34:72:A3
            X509v3 Authority Key Identifier: 
                keyid:8B:54:E9:FD:8A:A2:E9:91:08:58:B8:57:BE:2C:E1:4D:B3:20:12:B8
                DirName:/CN=team414-net
                serial:5C:0C:7E:F7:AD:08:83:1B:6A:DE:4B:3B:BD:C0:2C:25:CD:D8:CD:85
            X509v3 Extended Key Usage: 
                TLS Web Server Authentication
            X509v3 Key Usage: 
                Digital Signature, Key Encipherment
            X509v3 Subject Alternative Name: 
                DNS:team414-server
    Signature Algorithm: sha256WithRSAEncryption
    Signature Value:
        02:7c:ac:4a:81:b3:d9:4c:ec:12:2f:3f:6c:a9:7f:b5:46:ef:
        d5:cc:a3:a5:10:f6:22:15:28:31:52:c9:11:20:ea:6d:42:fa:
        d7:19:0e:e7:89:47:80:36:43:a6:cf:30:30:6b:66:89:97:df:
        3b:e2:b0:cf:c0:b0:71:2b:50:ba:9a:05:b6:02:df:b4:d0:eb:
        35:b4:99:55:0b:d2:d0:d4:80:eb:77:16:a8:64:56:70:10:ea:
        8e:50:5b:54:cb:ab:13:48:cb:cd:82:78:d2:d2:8f:8d:db:85:
        8a:53:79:51:a7:02:6c:31:86:03:2b:ac:b4:6d:2c:39:87:6f:
        7e:70:c3:71:89:77:d8:f1:73:58:2e:7b:f1:1d:d5:54:e6:06:
        7a:17:92:05:63:81:68:36:5c:80:93:56:98:85:ca:93:3c:2d:
        e3:7c:cb:ca:bd:af:1a:21:2c:c4:0a:10:37:09:80:51:b6:36:
        61:55:a1:55:e3:47:44:82:6f:dd:f4:c9:3f:47:45:98:37:13:
        7b:b2:11:48:1b:a8:74:8e:67:dc:fa:48:8d:4f:5b:53:95:e8:
        10:52:77:b6:16:34:87:cd:83:1f:23:89:4d:21:19:0a:7c:ca:
        45:03:1b:19:a8:53:8e:f6:3d:2b:32:60:09:77:90:32:be:99:
        5f:e4:9a:d5
-----BEGIN CERTIFICATE-----
MIIDdzCCAl+gAwIBAgIQCtVwjKI9k4DO0WL8TLHhLzANBgkqhkiG9w0BAQsFADAW
MRQwEgYDVQQDDAt0ZWFtNDE0LW5ldDAeFw0yMzExMDQxMTM2NDhaFw0yNjEwMTkx
MTM2NDhaMBkxFzAVBgNVBAMMDnRlYW00MTQtc2VydmVyMIIBIjANBgkqhkiG9w0B
AQEFAAOCAQ8AMIIBCgKCAQEAs5c/RRIR8MIdk81/OZkd/O+9dIurPDXSS44G5NhW
KAdJpC6TVSaN/6ZbeJIv/BjpwxUldk2vIovqCcqg/rm6qY6mRZ2wMNazgn5Jy6g6
mCTTVPTY8JJaf6toQH3QCLrRwZXk/Ut/kMOtR5St+722BsdPlpSQyV1gc110nQ28
6yfaamiCUAyvcPzDvBSXux+9JI8oO3kVUp5Aoe1WeH9Q6g3zJ4KcrpEGJhKRlCzn
sp2gz+MHQ6uDbyzEM1ltWzcpnl0XJfjTn3jPek/exiFrB3QGOX5+bmvLpCSkcCDE
pl27T46p3ZfALiwUsAdGzahaKOMYyNLaA8s9NlVv7rXjaQIDAQABo4G9MIG6MAkG
A1UdEwQCMAAwHQYDVR0OBBYEFPQiancbyIbYCuvuzW/lQ9sGNHKjMFEGA1UdIwRK
MEiAFItU6f2KoumRCFi4V74s4U2zIBK4oRqkGDAWMRQwEgYDVQQDDAt0ZWFtNDE0
LW5ldIIUXAx+960Igxtq3ks7vcAsJc3YzYUwEwYDVR0lBAwwCgYIKwYBBQUHAwEw
CwYDVR0PBAQDAgWgMBkGA1UdEQQSMBCCDnRlYW00MTQtc2VydmVyMA0GCSqGSIb3
DQEBCwUAA4IBAQACfKxKgbPZTOwSLz9sqX+1Ru/VzKOlEPYiFSgxUskRIOptQvrX
GQ7niUeANkOmzzAwa2aJl9874rDPwLBxK1C6mgW2At+00Os1tJlVC9LQ1IDrdxao
ZFZwEOqOUFtUy6sTSMvNgnjS0o+N24WKU3lRpwJsMYYDK6y0bSw5h29+cMNxiXfY
8XNYLnvxHdVU5gZ6F5IFY4FoNlyAk1aYhcqTPC3jfMvKva8aISzEChA3CYBRtjZh
VaFV40dEgm/d9Mk/R0WYNxN7shFIG6h0jmfc+kiNT1tTlegQUne2FjSHzYMfI4lN
IRkKfMpFAxsZqFOO9j0rMmAJd5Ayvplf5JrV
-----END CERTIFICATE-----
