Certificate:
    Data:
        Version: 3 (0x2)
        Serial Number:
            31:a2:f2:09:b2:a3:78:22:84:ed:7a:f4:11:bd:9b:cd
        Signature Algorithm: sha256WithRSAEncryption
        Issuer: CN=team414-net
        Validity
            Not Before: Nov  4 10:48:05 2023 GMT
            Not After : Oct 19 10:48:05 2026 GMT
        Subject: CN=team414-server
        Subject Public Key Info:
            Public Key Algorithm: rsaEncryption
                Public-Key: (2048 bit)
                Modulus:
                    00:a1:51:01:77:84:75:28:d9:d3:16:c5:68:90:a0:
                    69:54:85:cd:f7:9d:ad:37:40:85:9f:d7:11:86:af:
                    b1:69:22:2f:84:1c:85:dd:db:36:9c:b2:d1:5d:9d:
                    e6:cb:d6:ee:12:6b:10:16:33:23:0e:56:0e:7c:48:
                    f3:78:0f:67:bf:5d:1a:af:54:3b:1c:15:0a:e1:f9:
                    09:cb:a3:03:bd:23:c3:44:a2:49:fd:c2:82:e1:4d:
                    ec:c8:84:65:7c:ea:e6:b9:61:42:4c:97:ec:83:5e:
                    9c:98:40:3a:b1:2b:09:84:e4:8e:e6:e4:74:6d:77:
                    00:bc:6d:e3:f6:70:d5:0c:9b:e1:e1:52:32:5f:2e:
                    e3:c5:ca:94:a5:84:f3:3e:5b:8b:c2:f4:3d:9d:35:
                    76:d4:09:c0:55:df:da:ef:93:2d:80:ad:65:3a:9e:
                    20:ce:62:cf:2e:cc:ae:b7:cc:95:dc:5b:5a:4a:8e:
                    fe:38:eb:ed:4d:f3:86:83:fe:a5:a6:fb:08:1c:ec:
                    84:45:c8:52:ac:54:f9:01:19:b1:6e:f8:c0:b3:4f:
                    7f:f8:80:7a:bd:a7:06:db:d0:60:d1:e3:df:28:1e:
                    6f:01:21:ab:24:fb:9f:1e:94:92:e3:ac:f1:97:62:
                    b1:a9:64:b6:fc:a1:c6:e4:bb:25:ad:27:65:24:91:
                    77:5d
                Exponent: 65537 (0x10001)
        X509v3 extensions:
            X509v3 Basic Constraints: 
                CA:FALSE
            X509v3 Subject Key Identifier: 
                50:A8:A4:6D:03:D1:F9:79:84:A6:9E:4C:45:39:E6:0B:09:5F:9C:A2
            X509v3 Authority Key Identifier: 
                keyid:59:BB:D8:61:F0:45:37:74:60:48:5F:BF:77:65:B0:52:AA:96:8A:28
                DirName:/CN=team414-net
                serial:2E:D1:C9:30:A3:4A:7F:73:FA:16:0A:9E:1D:A4:40:A8:B2:12:5D:4A
            X509v3 Extended Key Usage: 
                TLS Web Server Authentication
            X509v3 Key Usage: 
                Digital Signature, Key Encipherment
            X509v3 Subject Alternative Name: 
                DNS:team414-server
    Signature Algorithm: sha256WithRSAEncryption
    Signature Value:
        14:86:87:2d:14:ba:10:b7:4d:27:86:d6:73:fa:37:29:4e:b3:
        c3:f6:c4:ca:c1:71:ac:5f:73:b3:05:42:66:8c:2e:29:6e:b5:
        9e:09:39:25:80:ad:18:7e:5b:a3:2a:ad:33:15:60:8a:b2:e6:
        22:e3:d5:e6:e7:1f:86:6b:3c:e0:2f:32:d5:35:d2:af:ba:b1:
        31:16:36:a0:a9:1a:fd:09:23:7f:6f:5d:22:af:22:2b:8a:e2:
        74:00:d1:96:b8:05:dd:54:9b:d5:47:b1:6a:4e:d0:3b:be:c2:
        c2:10:d9:15:f8:2e:22:42:8d:b6:97:48:a6:df:11:87:f7:f6:
        7f:3a:c1:d1:cf:24:72:a8:e9:65:87:f4:13:e1:25:90:5c:11:
        b1:84:ac:f7:86:3a:2d:7f:32:5d:4c:0d:6b:33:5d:b5:17:33:
        df:43:90:4a:e9:02:df:6b:cb:89:f4:b5:18:63:50:df:86:51:
        4a:6d:75:07:bc:60:3f:ea:21:15:aa:24:97:cc:46:46:28:67:
        cd:36:dc:91:2b:3a:0f:64:a1:b5:4a:a6:fa:12:dc:5f:ab:83:
        6b:77:a6:4d:8e:4a:58:23:67:96:db:9d:5a:3e:29:21:4b:30:
        fa:66:35:41:8f:a8:93:6a:da:fa:f1:ab:03:08:2d:be:c7:3e:
        94:82:62:e2
-----BEGIN CERTIFICATE-----
MIIDdzCCAl+gAwIBAgIQMaLyCbKjeCKE7Xr0Eb2bzTANBgkqhkiG9w0BAQsFADAW
MRQwEgYDVQQDDAt0ZWFtNDE0LW5ldDAeFw0yMzExMDQxMDQ4MDVaFw0yNjEwMTkx
MDQ4MDVaMBkxFzAVBgNVBAMMDnRlYW00MTQtc2VydmVyMIIBIjANBgkqhkiG9w0B
AQEFAAOCAQ8AMIIBCgKCAQEAoVEBd4R1KNnTFsVokKBpVIXN952tN0CFn9cRhq+x
aSIvhByF3ds2nLLRXZ3my9buEmsQFjMjDlYOfEjzeA9nv10ar1Q7HBUK4fkJy6MD
vSPDRKJJ/cKC4U3syIRlfOrmuWFCTJfsg16cmEA6sSsJhOSO5uR0bXcAvG3j9nDV
DJvh4VIyXy7jxcqUpYTzPluLwvQ9nTV21AnAVd/a75MtgK1lOp4gzmLPLsyut8yV
3FtaSo7+OOvtTfOGg/6lpvsIHOyERchSrFT5ARmxbvjAs09/+IB6vacG29Bg0ePf
KB5vASGrJPufHpSS46zxl2KxqWS2/KHG5LslrSdlJJF3XQIDAQABo4G9MIG6MAkG
A1UdEwQCMAAwHQYDVR0OBBYEFFCopG0D0fl5hKaeTEU55gsJX5yiMFEGA1UdIwRK
MEiAFFm72GHwRTd0YEhfv3dlsFKqlooooRqkGDAWMRQwEgYDVQQDDAt0ZWFtNDE0
LW5ldIIULtHJMKNKf3P6FgqeHaRAqLISXUowEwYDVR0lBAwwCgYIKwYBBQUHAwEw
CwYDVR0PBAQDAgWgMBkGA1UdEQQSMBCCDnRlYW00MTQtc2VydmVyMA0GCSqGSIb3
DQEBCwUAA4IBAQAUhoctFLoQt00nhtZz+jcpTrPD9sTKwXGsX3OzBUJmjC4pbrWe
CTklgK0YflujKq0zFWCKsuYi49Xm5x+GazzgLzLVNdKvurExFjagqRr9CSN/b10i
ryIriuJ0ANGWuAXdVJvVR7FqTtA7vsLCENkV+C4iQo22l0im3xGH9/Z/OsHRzyRy
qOllh/QT4SWQXBGxhKz3hjotfzJdTA1rM121FzPfQ5BK6QLfa8uJ9LUYY1DfhlFK
bXUHvGA/6iEVqiSXzEZGKGfNNtyRKzoPZKG1Sqb6Etxfq4Nrd6ZNjkpYI2eW251a
PikhSzD6ZjVBj6iTatr68asDCC2+xz6UgmLi
-----END CERTIFICATE-----
