Certificate:
    Data:
        Version: 3 (0x2)
        Serial Number:
            e4:3b:e7:50:a3:2d:5f:4c:8f:f0:fd:40:74:d5:d5:ef
        Signature Algorithm: sha256WithRSAEncryption
        Issuer: CN=team414-net
        Validity
            Not Before: Nov  4 11:36:48 2023 GMT
            Not After : Oct 19 11:36:48 2026 GMT
        Subject: CN=team414-client
        Subject Public Key Info:
            Public Key Algorithm: rsaEncryption
                Public-Key: (2048 bit)
                Modulus:
                    00:df:8e:7e:ba:7d:50:dd:b5:4c:7b:f9:28:71:ec:
                    e4:f8:24:38:74:8f:60:64:e5:50:bf:0e:b3:6c:49:
                    5a:f3:11:1a:12:f8:28:81:87:d3:0c:bf:f5:27:82:
                    41:50:78:71:de:8d:a6:9a:b7:d1:6b:d0:c5:ee:60:
                    87:4b:49:04:29:da:fe:ca:48:75:0e:01:30:69:61:
                    9a:f7:b3:0c:07:b7:df:80:84:94:1e:a8:19:b1:13:
                    a8:df:8f:e2:c4:70:90:af:1b:2e:ba:0c:c5:23:84:
                    eb:7a:f4:80:b8:75:89:8b:54:39:2b:ad:5c:64:04:
                    d7:f8:62:aa:af:fe:1c:a8:0e:67:e5:ea:a3:99:2a:
                    c2:e0:9f:d7:5a:93:db:15:3d:86:5f:fd:73:10:a2:
                    4b:43:67:0c:ab:8d:8b:d9:fd:b6:e0:a6:42:36:40:
                    7b:63:f0:97:65:2e:b6:ab:fd:69:7d:bb:44:81:34:
                    26:8d:de:ba:8c:2b:33:be:90:67:2a:71:be:cb:3f:
                    9b:15:c2:c7:ea:13:4f:e3:64:af:6d:47:7a:87:0e:
                    18:91:4d:f9:77:90:3a:56:0e:23:df:94:22:72:d2:
                    e2:b0:a7:4a:da:5d:fa:29:4c:c4:af:75:02:d1:79:
                    59:c9:1e:39:d0:01:44:df:a6:4c:83:70:27:f1:d5:
                    7d:a5
                Exponent: 65537 (0x10001)
        X509v3 extensions:
            X509v3 Basic Constraints: 
                CA:FALSE
            X509v3 Subject Key Identifier: 
                6B:A9:28:23:55:4B:92:76:FE:F2:96:72:FE:A3:C1:D4:B0:EF:40:1F
            X509v3 Authority Key Identifier: 
                keyid:8B:54:E9:FD:8A:A2:E9:91:08:58:B8:57:BE:2C:E1:4D:B3:20:12:B8
                DirName:/CN=team414-net
                serial:5C:0C:7E:F7:AD:08:83:1B:6A:DE:4B:3B:BD:C0:2C:25:CD:D8:CD:85
            X509v3 Extended Key Usage: 
                TLS Web Client Authentication
            X509v3 Key Usage: 
                Digital Signature
    Signature Algorithm: sha256WithRSAEncryption
    Signature Value:
        02:7f:60:0f:51:19:fc:ae:3e:08:c6:b6:9f:18:6f:fb:3f:d1:
        9c:41:d4:e1:9c:12:22:c2:1a:ae:45:b8:2d:23:8f:88:f9:15:
        00:1a:94:c5:57:6e:41:0a:5c:78:58:c5:3b:67:36:5e:8b:fa:
        de:1a:31:da:ce:2f:38:fc:29:65:c1:9e:01:3e:ec:24:4d:c9:
        0f:81:cc:9a:16:12:55:dd:bd:0b:8d:ce:97:f7:11:b8:73:d7:
        25:71:7a:90:7c:6b:eb:f8:e3:85:3b:79:f2:49:14:8c:dd:0c:
        6a:5a:8f:57:80:7e:d1:e0:a9:43:7c:72:10:44:91:c4:b4:00:
        16:e2:b1:36:c4:9d:5f:e9:ae:ad:e2:f7:a0:4d:4a:90:4b:36:
        f3:cc:df:9e:2c:1d:59:96:1e:46:fd:1e:ed:9a:83:cb:2a:cb:
        58:6e:d4:f4:38:d7:5e:c7:61:5e:ca:92:4c:29:e9:99:19:ed:
        a4:e3:04:74:28:46:c2:05:16:9c:88:86:08:7c:fd:3f:00:3e:
        7b:43:a5:ea:d4:fd:94:58:46:9a:5f:44:bb:54:b2:1a:8d:b4:
        df:7a:95:5c:e5:2e:48:48:f0:a4:8b:4d:a7:24:87:a0:b5:28:
        83:bd:d7:15:0a:40:03:e0:ed:3d:39:9e:44:24:0c:af:03:e4:
        a6:9a:70:16
-----BEGIN CERTIFICATE-----
MIIDXTCCAkWgAwIBAgIRAOQ751CjLV9Mj/D9QHTV1e8wDQYJKoZIhvcNAQELBQAw
FjEUMBIGA1UEAwwLdGVhbTQxNC1uZXQwHhcNMjMxMTA0MTEzNjQ4WhcNMjYxMDE5
MTEzNjQ4WjAZMRcwFQYDVQQDDA50ZWFtNDE0LWNsaWVudDCCASIwDQYJKoZIhvcN
AQEBBQADggEPADCCAQoCggEBAN+Ofrp9UN21THv5KHHs5PgkOHSPYGTlUL8Os2xJ
WvMRGhL4KIGH0wy/9SeCQVB4cd6Nppq30WvQxe5gh0tJBCna/spIdQ4BMGlhmvez
DAe334CElB6oGbETqN+P4sRwkK8bLroMxSOE63r0gLh1iYtUOSutXGQE1/hiqq/+
HKgOZ+Xqo5kqwuCf11qT2xU9hl/9cxCiS0NnDKuNi9n9tuCmQjZAe2Pwl2Uutqv9
aX27RIE0Jo3euowrM76QZypxvss/mxXCx+oTT+Nkr21HeocOGJFN+XeQOlYOI9+U
InLS4rCnStpd+ilMxK91AtF5WckeOdABRN+mTINwJ/HVfaUCAwEAAaOBojCBnzAJ
BgNVHRMEAjAAMB0GA1UdDgQWBBRrqSgjVUuSdv7ylnL+o8HUsO9AHzBRBgNVHSME
SjBIgBSLVOn9iqLpkQhYuFe+LOFNsyASuKEapBgwFjEUMBIGA1UEAwwLdGVhbTQx
NC1uZXSCFFwMfvetCIMbat5LO73ALCXN2M2FMBMGA1UdJQQMMAoGCCsGAQUFBwMC
MAsGA1UdDwQEAwIHgDANBgkqhkiG9w0BAQsFAAOCAQEAAn9gD1EZ/K4+CMa2nxhv
+z/RnEHU4ZwSIsIarkW4LSOPiPkVABqUxVduQQpceFjFO2c2Xov63hox2s4vOPwp
ZcGeAT7sJE3JD4HMmhYSVd29C43Ol/cRuHPXJXF6kHxr6/jjhTt58kkUjN0MalqP
V4B+0eCpQ3xyEESRxLQAFuKxNsSdX+mureL3oE1KkEs288zfniwdWZYeRv0e7ZqD
yyrLWG7U9DjXXsdhXsqSTCnpmRntpOMEdChGwgUWnIiGCHz9PwA+e0Ol6tT9lFhG
ml9Eu1SyGo2033qVXOUuSEjwpItNpySHoLUog73XFQpAA+DtPTmeRCQMrwPkpppw
Fg==
-----END CERTIFICATE-----
