Certificate:
    Data:
        Version: 3 (0x2)
        Serial Number:
            09:40:5f:2b:95:64:47:eb:78:39:14:e6:07:a4:76:90
        Signature Algorithm: sha256WithRSAEncryption
        Issuer: CN=team51-net
        Validity
            Not Before: Nov  4 11:28:22 2023 GMT
            Not After : Oct 19 11:28:22 2026 GMT
        Subject: CN=team51-client
        Subject Public Key Info:
            Public Key Algorithm: rsaEncryption
                Public-Key: (2048 bit)
                Modulus:
                    00:ac:82:7a:de:40:c4:15:ab:3b:cf:b9:7b:51:3e:
                    9e:cb:d5:e6:b6:be:28:41:0c:2a:27:31:06:63:01:
                    f2:1f:f9:cd:2e:67:4a:57:b7:2d:65:72:dc:6e:89:
                    ac:61:d5:6d:b8:10:71:c9:ae:1f:35:39:64:d4:a4:
                    fb:5d:30:dc:e8:b3:84:ec:3d:4f:aa:da:55:86:d0:
                    f4:8c:e0:20:18:28:15:e4:9d:59:54:51:72:5d:86:
                    16:21:66:97:39:99:c8:52:d3:b2:f8:e8:d6:73:0f:
                    46:47:b0:47:15:73:d2:f2:ed:1b:50:97:76:63:b4:
                    a6:df:b5:f9:5f:4a:a6:b9:bb:6c:eb:ec:6e:cd:7d:
                    c4:df:e9:17:e4:c5:0f:f3:fd:89:2b:3a:87:99:8e:
                    7d:a7:79:a3:a1:a1:f9:3a:d5:79:ba:10:25:c0:4d:
                    e1:52:6b:41:7b:c0:f7:ec:dd:7d:e2:12:15:25:fa:
                    dd:d7:27:5f:b9:2b:f3:43:d7:2d:23:eb:ac:ad:03:
                    bf:db:01:ba:41:c9:cd:35:9f:03:36:51:bf:ec:cf:
                    6e:d0:fb:a1:80:0c:05:35:ce:00:42:b2:b3:fc:22:
                    41:e2:9d:72:76:24:1e:2c:6b:6e:db:3b:c9:e9:26:
                    97:10:d1:d6:7c:a5:0c:72:78:0b:91:6b:80:a6:1a:
                    b7:a9
                Exponent: 65537 (0x10001)
        X509v3 extensions:
            X509v3 Basic Constraints: 
                CA:FALSE
            X509v3 Subject Key Identifier: 
                14:FA:BD:F3:77:11:0E:0C:00:86:A9:ED:8E:9A:A5:18:BF:FE:65:0A
            X509v3 Authority Key Identifier: 
                keyid:28:BB:A6:18:D5:05:2D:AA:A5:D4:C9:74:FB:85:5D:33:0F:68:B0:24
                DirName:/CN=team51-net
                serial:68:0D:0C:D4:75:51:1B:83:1F:C8:8F:AC:25:48:7B:4B:F6:76:5A:0E
            X509v3 Extended Key Usage: 
                TLS Web Client Authentication
            X509v3 Key Usage: 
                Digital Signature
    Signature Algorithm: sha256WithRSAEncryption
    Signature Value:
        3b:56:3f:fd:f6:b4:66:a8:0c:52:53:86:ae:f4:0a:0f:7d:eb:
        82:d0:04:10:64:e0:d0:70:14:46:f9:d6:9e:f7:05:69:cc:41:
        65:1a:c3:23:80:b4:f9:6b:86:7a:04:db:70:f8:90:bc:7d:21:
        1f:89:f0:86:a6:7d:e3:7d:10:21:72:7e:96:e9:70:b8:3b:e9:
        f5:09:1b:f8:0b:3e:4e:fb:2d:ea:1c:bf:6f:bf:7d:8f:e6:12:
        35:b2:b2:4b:93:4c:58:71:b0:1b:d1:36:61:71:11:01:76:5c:
        44:ce:f8:58:32:4c:2a:52:47:da:df:66:5b:ab:a5:5c:a1:82:
        8b:bd:29:fb:9d:35:3a:e1:98:fd:95:89:01:94:e7:c8:cf:86:
        e6:e8:0d:af:18:83:b6:ea:d8:58:a7:42:0b:73:d4:cc:d6:54:
        88:98:66:07:bf:f6:9b:99:ea:0d:da:1c:dc:e4:40:8a:a5:50:
        48:51:dd:0c:e9:81:35:94:ff:cf:14:7f:5a:29:dc:ba:e6:1c:
        09:e9:45:f3:12:47:02:87:a3:c3:47:50:24:90:7e:51:42:7b:
        bd:4f:5b:5e:f7:79:a0:4e:d0:22:50:52:17:d4:ab:13:64:e1:
        49:36:6e:7b:25:15:1c:58:3c:e9:1f:2f:38:65:34:c0:f8:a6:
        9b:43:ff:77
-----BEGIN CERTIFICATE-----
MIIDWTCCAkGgAwIBAgIQCUBfK5VkR+t4ORTmB6R2kDANBgkqhkiG9w0BAQsFADAV
MRMwEQYDVQQDDAp0ZWFtNTEtbmV0MB4XDTIzMTEwNDExMjgyMloXDTI2MTAxOTEx
MjgyMlowGDEWMBQGA1UEAwwNdGVhbTUxLWNsaWVudDCCASIwDQYJKoZIhvcNAQEB
BQADggEPADCCAQoCggEBAKyCet5AxBWrO8+5e1E+nsvV5ra+KEEMKicxBmMB8h/5
zS5nSle3LWVy3G6JrGHVbbgQccmuHzU5ZNSk+10w3OizhOw9T6raVYbQ9IzgIBgo
FeSdWVRRcl2GFiFmlzmZyFLTsvjo1nMPRkewRxVz0vLtG1CXdmO0pt+1+V9Kprm7
bOvsbs19xN/pF+TFD/P9iSs6h5mOfad5o6Gh+TrVeboQJcBN4VJrQXvA9+zdfeIS
FSX63dcnX7kr80PXLSPrrK0Dv9sBukHJzTWfAzZRv+zPbtD7oYAMBTXOAEKys/wi
QeKdcnYkHixrbts7yekmlxDR1nylDHJ4C5FrgKYat6kCAwEAAaOBoTCBnjAJBgNV
HRMEAjAAMB0GA1UdDgQWBBQU+r3zdxEODACGqe2OmqUYv/5lCjBQBgNVHSMESTBH
gBQou6YY1QUtqqXUyXT7hV0zD2iwJKEZpBcwFTETMBEGA1UEAwwKdGVhbTUxLW5l
dIIUaA0M1HVRG4MfyI+sJUh7S/Z2Wg4wEwYDVR0lBAwwCgYIKwYBBQUHAwIwCwYD
VR0PBAQDAgeAMA0GCSqGSIb3DQEBCwUAA4IBAQA7Vj/99rRmqAxSU4au9AoPfeuC
0AQQZODQcBRG+dae9wVpzEFlGsMjgLT5a4Z6BNtw+JC8fSEfifCGpn3jfRAhcn6W
6XC4O+n1CRv4Cz5O+y3qHL9vv32P5hI1srJLk0xYcbAb0TZhcREBdlxEzvhYMkwq
Ukfa32Zbq6VcoYKLvSn7nTU64Zj9lYkBlOfIz4bm6A2vGIO26thYp0ILc9TM1lSI
mGYHv/abmeoN2hzc5ECKpVBIUd0M6YE1lP/PFH9aKdy65hwJ6UXzEkcCh6PDR1Ak
kH5RQnu9T1te93mgTtAiUFIX1KsTZOFJNm57JRUcWDzpHy84ZTTA+KabQ/93
-----END CERTIFICATE-----
