Certificate:
    Data:
        Version: 3 (0x2)
        Serial Number:
            4a:c5:00:c7:2a:bd:26:59:2a:24:ab:f5:ae:2b:c3:f1
        Signature Algorithm: sha256WithRSAEncryption
        Issuer: CN=team51-net
        Validity
            Not Before: Nov  4 10:41:11 2023 GMT
            Not After : Oct 19 10:41:11 2026 GMT
        Subject: CN=team51-server
        Subject Public Key Info:
            Public Key Algorithm: rsaEncryption
                Public-Key: (2048 bit)
                Modulus:
                    00:e6:f9:10:55:cf:b6:2b:36:db:6f:41:ad:97:7f:
                    ec:41:2d:42:cc:ab:8e:e6:9f:96:41:d4:6c:c0:ea:
                    2b:5d:6e:81:d4:f6:10:78:53:95:95:c6:9b:6e:ae:
                    02:88:84:d7:d1:57:18:fc:fa:51:da:d1:d6:55:ec:
                    7f:32:b7:8d:28:52:c6:12:04:47:c0:14:07:8d:61:
                    d0:85:0b:a4:e3:63:1e:06:e7:51:c5:11:74:8b:c5:
                    cb:2c:89:4a:26:b2:52:fb:74:51:65:fd:d3:ce:1b:
                    6d:33:88:4f:18:61:39:8c:4c:dd:e3:63:66:2d:59:
                    1a:95:24:11:2c:45:93:51:bd:da:8e:49:9d:6d:ad:
                    c0:84:f4:3d:09:29:20:e4:28:e7:84:ed:c4:a6:4a:
                    7d:10:4a:30:e9:fc:ea:74:0e:0f:b8:3f:ee:a3:f2:
                    1c:0b:3c:f5:c3:8f:88:5e:3e:75:6c:9c:7c:6f:a0:
                    2f:91:a5:fd:58:06:cf:1a:98:dc:69:b5:57:cc:36:
                    d8:cb:a8:b5:01:37:8b:af:61:bf:36:e8:11:76:e6:
                    0d:e6:a1:38:1f:29:fa:00:00:e1:83:a2:c3:2d:2e:
                    fe:c0:63:c3:70:4f:5b:04:a4:44:1d:d6:09:fc:3a:
                    39:a4:86:d2:98:4f:3b:06:e5:98:2d:27:36:b4:2d:
                    01:bd
                Exponent: 65537 (0x10001)
        X509v3 extensions:
            X509v3 Basic Constraints: 
                CA:FALSE
            X509v3 Subject Key Identifier: 
                BE:2B:2F:9F:72:D1:CE:F2:E5:41:B5:04:40:88:E8:AC:5F:01:6E:60
            X509v3 Authority Key Identifier: 
                keyid:93:DB:EB:77:76:0B:80:33:86:4A:DC:DD:8F:6A:C1:5D:4A:44:85:E0
                DirName:/CN=team51-net
                serial:3C:8B:5D:3A:4F:91:95:34:2D:E9:08:93:0E:83:60:DB:5C:3B:2D:4D
            X509v3 Extended Key Usage: 
                TLS Web Server Authentication
            X509v3 Key Usage: 
                Digital Signature, Key Encipherment
            X509v3 Subject Alternative Name: 
                DNS:team51-server
    Signature Algorithm: sha256WithRSAEncryption
    Signature Value:
        71:e1:29:d1:f4:8b:04:0c:65:30:33:e0:72:8b:52:ba:4a:9d:
        0e:f2:cc:ea:e3:d1:7d:04:ee:ee:bd:2b:ef:35:06:24:1b:f0:
        cd:d4:f1:de:c5:54:22:29:a3:ba:a2:a4:7d:ba:d4:96:ee:0f:
        c0:63:6d:8d:7f:fb:cf:6f:97:f0:23:84:43:5d:aa:79:a3:4b:
        f9:c4:cd:63:30:e2:4d:34:ed:82:82:d9:6f:29:66:8f:49:c9:
        fe:37:ac:11:fd:16:3e:63:1e:b9:3c:ad:f5:5b:f8:6b:18:b4:
        83:62:27:6d:e5:04:5f:a6:52:fb:2c:ad:40:ec:ac:24:ab:6e:
        ec:be:10:a4:b0:ac:d4:cc:02:e0:c4:27:12:84:6e:28:29:c4:
        1c:6e:77:c9:29:d3:36:6d:1c:6c:6c:04:10:ea:cd:0f:50:b8:
        ff:07:ea:55:7a:84:09:d4:44:c2:6e:6a:4b:cf:ab:30:40:93:
        49:50:3d:4c:e9:34:9f:95:1c:9e:67:a2:9f:53:39:e1:7d:f3:
        7c:7a:02:e8:74:4e:df:03:d5:8b:9d:11:33:ea:bb:74:a1:64:
        1e:76:68:77:92:38:74:c9:10:a3:6e:08:ec:8a:23:70:65:36:
        0b:2a:19:9f:5e:d9:4c:6b:15:f5:07:4c:c9:c6:71:39:73:0c:
        b7:7c:ca:ef
-----BEGIN CERTIFICATE-----
MIIDczCCAlugAwIBAgIQSsUAxyq9JlkqJKv1rivD8TANBgkqhkiG9w0BAQsFADAV
MRMwEQYDVQQDDAp0ZWFtNTEtbmV0MB4XDTIzMTEwNDEwNDExMVoXDTI2MTAxOTEw
NDExMVowGDEWMBQGA1UEAwwNdGVhbTUxLXNlcnZlcjCCASIwDQYJKoZIhvcNAQEB
BQADggEPADCCAQoCggEBAOb5EFXPtis2229BrZd/7EEtQsyrjuaflkHUbMDqK11u
gdT2EHhTlZXGm26uAoiE19FXGPz6UdrR1lXsfzK3jShSxhIER8AUB41h0IULpONj
HgbnUcURdIvFyyyJSiayUvt0UWX9084bbTOITxhhOYxM3eNjZi1ZGpUkESxFk1G9
2o5JnW2twIT0PQkpIOQo54TtxKZKfRBKMOn86nQOD7g/7qPyHAs89cOPiF4+dWyc
fG+gL5Gl/VgGzxqY3Gm1V8w22MuotQE3i69hvzboEXbmDeahOB8p+gAA4YOiwy0u
/sBjw3BPWwSkRB3WCfw6OaSG0phPOwblmC0nNrQtAb0CAwEAAaOBuzCBuDAJBgNV
HRMEAjAAMB0GA1UdDgQWBBS+Ky+fctHO8uVBtQRAiOisXwFuYDBQBgNVHSMESTBH
gBST2+t3dguAM4ZK3N2PasFdSkSF4KEZpBcwFTETMBEGA1UEAwwKdGVhbTUxLW5l
dIIUPItdOk+RlTQt6QiTDoNg21w7LU0wEwYDVR0lBAwwCgYIKwYBBQUHAwEwCwYD
VR0PBAQDAgWgMBgGA1UdEQQRMA+CDXRlYW01MS1zZXJ2ZXIwDQYJKoZIhvcNAQEL
BQADggEBAHHhKdH0iwQMZTAz4HKLUrpKnQ7yzOrj0X0E7u69K+81BiQb8M3U8d7F
VCIpo7qipH261JbuD8BjbY1/+89vl/AjhENdqnmjS/nEzWMw4k007YKC2W8pZo9J
yf43rBH9Fj5jHrk8rfVb+GsYtINiJ23lBF+mUvssrUDsrCSrbuy+EKSwrNTMAuDE
JxKEbigpxBxud8kp0zZtHGxsBBDqzQ9QuP8H6lV6hAnURMJuakvPqzBAk0lQPUzp
NJ+VHJ5nop9TOeF983x6Auh0Tt8D1YudETPqu3ShZB52aHeSOHTJEKNuCOyKI3Bl
NgsqGZ9e2UxrFfUHTMnGcTlzDLd8yu8=
-----END CERTIFICATE-----
