Certificate:
    Data:
        Version: 3 (0x2)
        Serial Number:
            56:30:c8:c1:75:1d:54:fd:2b:67:32:07:90:4d:9f:59
        Signature Algorithm: sha256WithRSAEncryption
        Issuer: CN=team51-net
        Validity
            Not Before: Nov  4 10:41:10 2023 GMT
            Not After : Oct 19 10:41:10 2026 GMT
        Subject: CN=team51-client
        Subject Public Key Info:
            Public Key Algorithm: rsaEncryption
                Public-Key: (2048 bit)
                Modulus:
                    00:e4:99:2a:ac:2f:30:a5:80:09:f9:a4:3b:a0:69:
                    fe:a3:52:54:19:bd:ec:20:53:57:be:2d:57:05:c6:
                    d7:e7:10:25:d5:14:b4:96:19:22:87:87:d0:c9:50:
                    14:7a:86:e0:d7:04:8b:69:7a:df:d0:99:eb:16:5f:
                    d3:a7:6d:f7:cb:7c:67:ac:6d:6d:3d:1e:e6:41:5a:
                    dd:d5:55:1d:2f:c5:41:9a:75:40:c5:b6:66:d8:ba:
                    4e:77:18:db:a2:26:0f:f8:73:47:c8:e1:f7:0e:9f:
                    aa:50:12:80:54:27:a8:2e:5f:14:67:fa:b3:a0:52:
                    2f:20:59:b6:af:14:76:19:72:34:a6:b1:11:8c:e7:
                    b6:db:a7:94:f8:86:95:9a:c0:c7:8b:02:87:6c:a9:
                    08:51:a9:4a:44:23:2b:7c:f8:b9:cf:6b:78:d7:6f:
                    2a:89:ce:17:6c:d2:72:c7:4a:10:39:70:1e:63:ca:
                    8f:88:6e:65:fe:aa:59:67:0d:a9:7d:c5:8e:0c:63:
                    2e:8e:0a:0c:e1:a5:b6:c7:98:af:ab:f2:06:3f:de:
                    86:13:40:f5:3f:b2:aa:3d:f8:29:d0:77:d2:b7:d0:
                    5d:4e:d8:2b:fc:26:2a:7c:5c:e6:8b:05:5d:e0:95:
                    a0:1d:c8:94:f7:09:63:4d:bf:e9:6a:a0:7b:8b:0e:
                    ca:d5
                Exponent: 65537 (0x10001)
        X509v3 extensions:
            X509v3 Basic Constraints: 
                CA:FALSE
            X509v3 Subject Key Identifier: 
                E8:BB:A1:2B:68:CD:CE:64:BB:A6:F7:47:C1:9C:19:49:6F:0A:36:48
            X509v3 Authority Key Identifier: 
                keyid:93:DB:EB:77:76:0B:80:33:86:4A:DC:DD:8F:6A:C1:5D:4A:44:85:E0
                DirName:/CN=team51-net
                serial:3C:8B:5D:3A:4F:91:95:34:2D:E9:08:93:0E:83:60:DB:5C:3B:2D:4D
            X509v3 Extended Key Usage: 
                TLS Web Client Authentication
            X509v3 Key Usage: 
                Digital Signature
    Signature Algorithm: sha256WithRSAEncryption
    Signature Value:
        42:bf:c2:15:1d:d1:59:32:4d:e4:ba:90:17:a2:6a:53:47:fb:
        4d:14:48:dd:25:be:98:58:89:4b:b2:87:b8:fc:15:c0:65:9e:
        27:f1:9e:79:37:b7:1a:c5:a4:b3:fb:28:2f:5f:55:44:5f:4f:
        1b:8c:8b:13:83:70:92:b4:27:78:b3:09:5d:18:a6:74:e7:75:
        fd:e2:f6:81:ea:4a:ee:ff:28:48:bc:e6:80:11:81:98:a8:ad:
        5d:6a:98:22:61:47:74:25:ea:3f:c8:c4:1f:06:a4:bb:8f:c7:
        e5:63:db:de:d2:e6:1c:b2:df:45:21:9a:e2:75:67:48:40:cd:
        d4:16:ff:70:8e:97:5f:53:55:62:8d:fd:a0:0b:d0:13:71:37:
        be:aa:36:80:3f:e5:f2:35:8f:16:24:b7:6c:50:e3:84:c4:d8:
        dd:ee:53:b4:f4:1a:1e:c3:5f:ad:f7:41:d3:23:aa:b4:02:a9:
        a2:ee:95:3b:9e:10:14:d5:d9:9f:91:10:3f:79:72:8f:72:a9:
        de:b5:77:0c:bf:4f:cf:94:69:04:42:d1:81:a4:e0:62:3b:a3:
        54:1b:0d:c3:17:21:50:02:ce:6b:ec:59:29:ea:c7:5b:77:3b:
        2a:07:f2:c6:fe:19:d9:7e:e5:2e:08:8a:98:a0:46:83:65:e6:
        f9:7a:70:de
-----BEGIN CERTIFICATE-----
MIIDWTCCAkGgAwIBAgIQVjDIwXUdVP0rZzIHkE2fWTANBgkqhkiG9w0BAQsFADAV
MRMwEQYDVQQDDAp0ZWFtNTEtbmV0MB4XDTIzMTEwNDEwNDExMFoXDTI2MTAxOTEw
NDExMFowGDEWMBQGA1UEAwwNdGVhbTUxLWNsaWVudDCCASIwDQYJKoZIhvcNAQEB
BQADggEPADCCAQoCggEBAOSZKqwvMKWACfmkO6Bp/qNSVBm97CBTV74tVwXG1+cQ
JdUUtJYZIoeH0MlQFHqG4NcEi2l639CZ6xZf06dt98t8Z6xtbT0e5kFa3dVVHS/F
QZp1QMW2Zti6TncY26ImD/hzR8jh9w6fqlASgFQnqC5fFGf6s6BSLyBZtq8Udhly
NKaxEYznttunlPiGlZrAx4sCh2ypCFGpSkQjK3z4uc9reNdvKonOF2zScsdKEDlw
HmPKj4huZf6qWWcNqX3FjgxjLo4KDOGltseYr6vyBj/ehhNA9T+yqj34KdB30rfQ
XU7YK/wmKnxc5osFXeCVoB3IlPcJY02/6Wqge4sOytUCAwEAAaOBoTCBnjAJBgNV
HRMEAjAAMB0GA1UdDgQWBBTou6EraM3OZLum90fBnBlJbwo2SDBQBgNVHSMESTBH
gBST2+t3dguAM4ZK3N2PasFdSkSF4KEZpBcwFTETMBEGA1UEAwwKdGVhbTUxLW5l
dIIUPItdOk+RlTQt6QiTDoNg21w7LU0wEwYDVR0lBAwwCgYIKwYBBQUHAwIwCwYD
VR0PBAQDAgeAMA0GCSqGSIb3DQEBCwUAA4IBAQBCv8IVHdFZMk3kupAXompTR/tN
FEjdJb6YWIlLsoe4/BXAZZ4n8Z55N7caxaSz+ygvX1VEX08bjIsTg3CStCd4swld
GKZ053X94vaB6kru/yhIvOaAEYGYqK1dapgiYUd0Jeo/yMQfBqS7j8flY9ve0uYc
st9FIZridWdIQM3UFv9wjpdfU1Vijf2gC9ATcTe+qjaAP+XyNY8WJLdsUOOExNjd
7lO09Boew1+t90HTI6q0Aqmi7pU7nhAU1dmfkRA/eXKPcqnetXcMv0/PlGkEQtGB
pOBiO6NUGw3DFyFQAs5r7Fkp6sdbdzsqB/LG/hnZfuUuCIqYoEaDZeb5enDe
-----END CERTIFICATE-----
