Certificate:
    Data:
        Version: 3 (0x2)
        Serial Number:
            8b:d1:56:ae:1f:9f:28:1f:ac:77:00:fa:88:21:af:df
        Signature Algorithm: sha256WithRSAEncryption
        Issuer: CN=team51-net
        Validity
            Not Before: Nov  4 11:28:22 2023 GMT
            Not After : Oct 19 11:28:22 2026 GMT
        Subject: CN=team51-server
        Subject Public Key Info:
            Public Key Algorithm: rsaEncryption
                Public-Key: (2048 bit)
                Modulus:
                    00:aa:84:a3:73:ce:21:59:d9:38:56:d0:f8:6c:d1:
                    a7:7d:3e:df:d0:9e:d3:7a:61:06:5c:ff:3a:e2:05:
                    82:72:86:00:ab:7a:86:8d:ff:52:86:41:62:d8:c1:
                    72:27:de:7b:cf:b7:0a:c8:93:ce:56:0e:5e:ac:c5:
                    37:92:e4:d2:bd:a6:a0:52:eb:93:f8:55:af:e6:c0:
                    34:84:2f:f6:6b:b5:c8:92:b5:e3:92:d4:39:d3:e4:
                    a0:c5:70:04:21:6e:63:d3:1c:fd:7c:1f:4a:00:27:
                    86:38:f4:78:4a:7b:ea:00:af:ea:ee:b8:c8:55:f9:
                    31:a9:cb:a2:b3:b6:2a:4e:54:90:68:93:7a:10:f4:
                    90:41:39:d9:a3:29:4c:c2:28:b0:c8:10:94:1a:19:
                    e2:a9:fa:36:b0:07:0f:9d:1c:5f:8d:70:58:3d:c0:
                    90:f9:7e:8e:e5:ca:14:5a:9c:92:38:8d:2f:72:b3:
                    40:8d:82:12:1d:00:df:5d:1b:6c:1f:d1:a2:13:d5:
                    25:bc:1e:51:2b:41:01:56:0b:21:d0:92:67:a6:97:
                    04:13:de:b7:2d:b9:06:6d:4d:bd:5c:42:83:b8:3c:
                    4e:65:2f:74:ec:5e:b5:27:4e:20:21:7f:23:d7:cc:
                    49:5c:33:c0:5f:1a:f6:86:aa:df:e6:6f:a8:ab:d5:
                    82:c3
                Exponent: 65537 (0x10001)
        X509v3 extensions:
            X509v3 Basic Constraints: 
                CA:FALSE
            X509v3 Subject Key Identifier: 
                51:A4:9A:D6:08:E3:67:E7:2B:7E:1D:E7:78:A9:64:2A:25:7F:BE:34
            X509v3 Authority Key Identifier: 
                keyid:28:BB:A6:18:D5:05:2D:AA:A5:D4:C9:74:FB:85:5D:33:0F:68:B0:24
                DirName:/CN=team51-net
                serial:68:0D:0C:D4:75:51:1B:83:1F:C8:8F:AC:25:48:7B:4B:F6:76:5A:0E
            X509v3 Extended Key Usage: 
                TLS Web Server Authentication
            X509v3 Key Usage: 
                Digital Signature, Key Encipherment
            X509v3 Subject Alternative Name: 
                DNS:team51-server
    Signature Algorithm: sha256WithRSAEncryption
    Signature Value:
        47:b7:a1:0c:df:03:8b:dc:f9:f7:4d:0e:d9:24:85:ff:c6:01:
        23:28:c6:30:10:f4:36:44:97:04:49:b7:22:7f:6a:a9:20:6b:
        3f:06:cb:f9:96:30:12:c7:49:5f:93:b5:9b:c4:7d:40:fa:99:
        a3:63:d8:e0:ea:24:f8:8f:61:de:55:6f:88:b8:7e:96:f1:33:
        b3:f1:6f:ad:80:c1:e6:10:c7:00:e1:9b:4c:21:e2:a2:d3:7d:
        9f:ca:03:09:c9:6f:20:d2:92:ce:3b:1f:41:fb:9e:d0:2e:38:
        e0:e8:27:26:a5:11:3f:2c:ed:b7:89:da:c5:00:f3:b3:67:87:
        19:c1:bc:35:c8:64:39:5c:32:ba:e8:c8:79:3f:76:f0:54:0f:
        55:8a:90:5c:86:76:94:ff:7d:69:67:55:64:84:1a:8d:83:bb:
        f4:d9:00:69:57:34:b0:c3:77:a3:eb:d7:43:4f:45:2f:db:dc:
        d8:87:4d:14:f8:5d:45:31:99:84:14:45:53:15:72:54:c8:69:
        91:c1:8c:51:a0:55:27:80:c3:ec:04:46:f1:79:34:08:c7:a7:
        c7:a6:24:f3:e2:f8:8e:a9:4c:f9:ac:c1:65:fb:cc:f8:16:19:
        e2:8b:25:61:3f:09:01:f1:a5:20:68:49:3f:d1:ee:e6:de:4b:
        c0:fa:f8:28
-----BEGIN CERTIFICATE-----
MIIDdDCCAlygAwIBAgIRAIvRVq4fnygfrHcA+oghr98wDQYJKoZIhvcNAQELBQAw
FTETMBEGA1UEAwwKdGVhbTUxLW5ldDAeFw0yMzExMDQxMTI4MjJaFw0yNjEwMTkx
MTI4MjJaMBgxFjAUBgNVBAMMDXRlYW01MS1zZXJ2ZXIwggEiMA0GCSqGSIb3DQEB
AQUAA4IBDwAwggEKAoIBAQCqhKNzziFZ2ThW0Phs0ad9Pt/QntN6YQZc/zriBYJy
hgCreoaN/1KGQWLYwXIn3nvPtwrIk85WDl6sxTeS5NK9pqBS65P4Va/mwDSEL/Zr
tciSteOS1DnT5KDFcAQhbmPTHP18H0oAJ4Y49HhKe+oAr+ruuMhV+TGpy6KztipO
VJBok3oQ9JBBOdmjKUzCKLDIEJQaGeKp+jawBw+dHF+NcFg9wJD5fo7lyhRanJI4
jS9ys0CNghIdAN9dG2wf0aIT1SW8HlErQQFWCyHQkmemlwQT3rctuQZtTb1cQoO4
PE5lL3TsXrUnTiAhfyPXzElcM8BfGvaGqt/mb6ir1YLDAgMBAAGjgbswgbgwCQYD
VR0TBAIwADAdBgNVHQ4EFgQUUaSa1gjjZ+crfh3neKlkKiV/vjQwUAYDVR0jBEkw
R4AUKLumGNUFLaql1Ml0+4VdMw9osCShGaQXMBUxEzARBgNVBAMMCnRlYW01MS1u
ZXSCFGgNDNR1URuDH8iPrCVIe0v2dloOMBMGA1UdJQQMMAoGCCsGAQUFBwMBMAsG
A1UdDwQEAwIFoDAYBgNVHREEETAPgg10ZWFtNTEtc2VydmVyMA0GCSqGSIb3DQEB
CwUAA4IBAQBHt6EM3wOL3Pn3TQ7ZJIX/xgEjKMYwEPQ2RJcESbcif2qpIGs/Bsv5
ljASx0lfk7WbxH1A+pmjY9jg6iT4j2HeVW+IuH6W8TOz8W+tgMHmEMcA4ZtMIeKi
032fygMJyW8g0pLOOx9B+57QLjjg6CcmpRE/LO23idrFAPOzZ4cZwbw1yGQ5XDK6
6Mh5P3bwVA9VipBchnaU/31pZ1VkhBqNg7v02QBpVzSww3ej69dDT0Uv29zYh00U
+F1FMZmEFEVTFXJUyGmRwYxRoFUngMPsBEbxeTQIx6fHpiTz4viOqUz5rMFl+8z4
FhniiyVhPwkB8aUgaEk/0e7m3kvA+vgo
-----END CERTIFICATE-----
