Certificate:
    Data:
        Version: 3 (0x2)
        Serial Number:
            19:b5:99:5a:3a:e7:4e:ee:28:eb:92:6a:44:4f:d7:a7
        Signature Algorithm: sha256WithRSAEncryption
        Issuer: CN=team116-net
        Validity
            Not Before: Nov  3 20:41:13 2023 GMT
            Not After : Oct 18 20:41:13 2026 GMT
        Subject: CN=team116-client
        Subject Public Key Info:
            Public Key Algorithm: rsaEncryption
                Public-Key: (2048 bit)
                Modulus:
                    00:b6:a6:9b:6c:50:39:37:ac:13:c3:6f:e1:4e:d0:
                    8b:c3:08:8e:37:55:9a:4a:d5:8f:3a:2e:59:54:e8:
                    1d:da:d3:b0:49:d6:03:5f:4c:00:2c:be:51:74:57:
                    5e:66:8d:5b:9c:a6:c5:2e:f8:87:c8:10:ca:39:f0:
                    5a:c9:4f:a9:37:92:69:27:e3:f0:87:96:e1:dd:bb:
                    02:f1:8c:18:de:00:99:b3:05:b6:da:dd:65:6b:e9:
                    f7:07:54:9e:b4:28:eb:01:47:ef:69:84:dd:67:95:
                    7c:ff:46:9c:6c:b5:17:51:34:20:ba:26:28:ac:d1:
                    b7:37:08:a2:4a:80:28:1b:4f:72:3c:d7:9f:63:5f:
                    76:79:fb:e2:98:0b:90:42:a4:5d:d6:29:60:55:79:
                    55:f1:a8:ab:25:f5:01:41:a5:dd:56:d0:11:b8:ec:
                    f2:ad:ff:b2:bc:6c:74:44:3c:a7:f8:20:bb:35:74:
                    39:11:d6:89:94:93:e0:c5:ae:8b:1b:be:9b:fe:96:
                    f0:c5:cf:7a:38:29:e3:7a:ec:8f:dc:67:53:0a:02:
                    05:ac:44:ee:6f:35:28:11:76:4e:8a:29:5f:66:0b:
                    c5:cb:fb:1e:dd:2b:b9:4a:21:2c:6d:7a:1e:2d:d8:
                    db:c5:22:94:c6:10:88:1c:47:e7:65:29:5a:dc:a6:
                    27:b9
                Exponent: 65537 (0x10001)
        X509v3 extensions:
            X509v3 Basic Constraints: 
                CA:FALSE
            X509v3 Subject Key Identifier: 
                75:39:1D:4E:45:D2:76:6B:71:40:01:63:8D:6B:F9:F9:47:44:56:C8
            X509v3 Authority Key Identifier: 
                keyid:9F:98:16:18:DF:D3:F9:8D:EB:AD:AE:EC:85:FA:5F:34:ED:B2:2E:C2
                DirName:/CN=team116-net
                serial:51:BB:C0:7A:62:4E:3A:D4:F5:26:49:8D:2C:C6:39:6F:E1:2E:E8:38
            X509v3 Extended Key Usage: 
                TLS Web Client Authentication
            X509v3 Key Usage: 
                Digital Signature
    Signature Algorithm: sha256WithRSAEncryption
    Signature Value:
        b4:00:ea:65:f6:d4:c7:48:4b:77:28:ed:30:05:fa:46:a7:69:
        0e:cc:5b:bc:8e:a4:e7:65:b0:6b:e0:8c:43:29:f9:39:3b:f5:
        69:96:2a:e4:b4:fe:b5:d6:cd:5d:d1:d0:84:97:5e:6d:7e:29:
        00:e6:d6:3e:25:8a:79:3f:09:33:36:0c:95:df:ce:5a:17:f2:
        22:58:79:6e:f7:bb:31:2b:b6:c8:dd:59:51:6c:11:39:a7:00:
        e0:f7:27:0b:1a:04:2b:a7:cc:a8:85:de:43:dd:e1:5d:04:69:
        b9:27:89:f8:b9:0b:cd:12:b3:42:d5:47:12:ee:84:ed:93:7c:
        37:57:1f:5a:8f:c6:ea:95:87:65:41:09:cd:12:2b:53:09:12:
        6b:d2:77:ac:23:db:70:8b:49:ae:f5:5a:8c:b2:fc:97:e1:fc:
        9d:de:64:79:36:8d:ec:66:c4:90:d0:7f:31:b8:2f:7c:ff:80:
        98:b1:05:56:44:bd:38:79:97:37:66:8e:2c:26:e5:ea:ec:b9:
        1b:9a:42:70:f7:b3:a8:f9:8c:b7:c5:9e:24:36:fb:f3:a2:3c:
        15:5f:74:e1:c3:71:ec:4b:6f:43:60:c4:e2:4a:71:04:e5:bd:
        a1:b4:4b:80:c7:04:c9:40:5c:9d:06:58:20:59:d0:c3:01:62:
        15:62:0b:8b
-----BEGIN CERTIFICATE-----
MIIDXDCCAkSgAwIBAgIQGbWZWjrnTu4o65JqRE/XpzANBgkqhkiG9w0BAQsFADAW
MRQwEgYDVQQDDAt0ZWFtMTE2LW5ldDAeFw0yMzExMDMyMDQxMTNaFw0yNjEwMTgy
MDQxMTNaMBkxFzAVBgNVBAMMDnRlYW0xMTYtY2xpZW50MIIBIjANBgkqhkiG9w0B
AQEFAAOCAQ8AMIIBCgKCAQEAtqabbFA5N6wTw2/hTtCLwwiON1WaStWPOi5ZVOgd
2tOwSdYDX0wALL5RdFdeZo1bnKbFLviHyBDKOfBayU+pN5JpJ+Pwh5bh3bsC8YwY
3gCZswW22t1la+n3B1SetCjrAUfvaYTdZ5V8/0acbLUXUTQguiYorNG3NwiiSoAo
G09yPNefY192efvimAuQQqRd1ilgVXlV8airJfUBQaXdVtARuOzyrf+yvGx0RDyn
+CC7NXQ5EdaJlJPgxa6LG76b/pbwxc96OCnjeuyP3GdTCgIFrETubzUoEXZOiilf
ZgvFy/se3Su5SiEsbXoeLdjbxSKUxhCIHEfnZSla3KYnuQIDAQABo4GiMIGfMAkG
A1UdEwQCMAAwHQYDVR0OBBYEFHU5HU5F0nZrcUABY41r+flHRFbIMFEGA1UdIwRK
MEiAFJ+YFhjf0/mN662u7IX6XzTtsi7CoRqkGDAWMRQwEgYDVQQDDAt0ZWFtMTE2
LW5ldIIUUbvAemJOOtT1JkmNLMY5b+Eu6DgwEwYDVR0lBAwwCgYIKwYBBQUHAwIw
CwYDVR0PBAQDAgeAMA0GCSqGSIb3DQEBCwUAA4IBAQC0AOpl9tTHSEt3KO0wBfpG
p2kOzFu8jqTnZbBr4IxDKfk5O/VplirktP611s1d0dCEl15tfikA5tY+JYp5Pwkz
NgyV385aF/IiWHlu97sxK7bI3VlRbBE5pwDg9ycLGgQrp8yohd5D3eFdBGm5J4n4
uQvNErNC1UcS7oTtk3w3Vx9aj8bqlYdlQQnNEitTCRJr0nesI9twi0mu9VqMsvyX
4fyd3mR5No3sZsSQ0H8xuC98/4CYsQVWRL04eZc3Zo4sJuXq7LkbmkJw97Oo+Yy3
xZ4kNvvzojwVX3Thw3HsS29DYMTiSnEE5b2htEuAxwTJQFydBlggWdDDAWIVYguL
-----END CERTIFICATE-----
