Certificate:
    Data:
        Version: 3 (0x2)
        Serial Number:
            19:bd:8d:31:75:80:7b:1b:b0:52:50:e6:67:02:b4:38
        Signature Algorithm: sha256WithRSAEncryption
        Issuer: CN=team116-net
        Validity
            Not Before: Nov  4 11:29:45 2023 GMT
            Not After : Oct 19 11:29:45 2026 GMT
        Subject: CN=team116-client
        Subject Public Key Info:
            Public Key Algorithm: rsaEncryption
                Public-Key: (2048 bit)
                Modulus:
                    00:b7:73:79:90:a5:7a:0e:59:aa:2a:33:97:3a:af:
                    6c:73:3c:2b:9b:e5:d5:8a:6d:8b:5b:70:67:97:e6:
                    a2:52:6b:ce:1d:dd:21:b9:f7:44:b9:10:5f:ab:63:
                    04:71:cb:2d:e7:56:a9:f1:87:0b:fd:d6:36:a6:1b:
                    bb:c9:f4:42:24:25:48:0e:4c:07:bf:13:59:a0:e8:
                    f9:66:8a:86:37:2b:e8:62:b2:ef:69:61:f8:1d:15:
                    6b:72:c6:b3:9d:35:1d:67:1a:66:93:fa:e6:3c:e4:
                    8b:e9:e6:98:aa:8c:4b:28:1b:a7:fc:13:f8:7d:2f:
                    0d:b1:3c:91:e1:9e:e4:87:88:84:f2:58:54:78:38:
                    63:d7:66:cf:db:93:45:af:b3:28:b1:04:ff:bd:32:
                    f2:96:dc:ea:44:d9:62:e4:ff:4f:8d:d9:9c:e6:f0:
                    91:07:36:cf:c7:bb:be:ee:27:98:6f:fd:f2:6e:84:
                    42:88:b6:82:c2:8a:88:08:ae:78:65:c3:4f:f6:ea:
                    9f:44:64:1e:02:e1:ae:88:18:7d:76:9e:7a:ad:cf:
                    f6:31:f6:fb:76:d6:f4:54:f1:19:bc:c6:ea:ac:d7:
                    af:38:3e:e4:17:b5:69:54:46:f1:d5:d6:1e:21:1b:
                    b2:71:67:c8:51:cd:c0:c6:70:b2:5b:20:01:f2:d5:
                    55:13
                Exponent: 65537 (0x10001)
        X509v3 extensions:
            X509v3 Basic Constraints: 
                CA:FALSE
            X509v3 Subject Key Identifier: 
                C2:33:8E:BB:A8:02:D4:77:03:2F:A2:47:1C:4B:9A:08:2B:85:42:47
            X509v3 Authority Key Identifier: 
                keyid:F1:FD:0D:43:61:05:41:4D:C7:7B:56:08:36:02:B9:98:A3:06:66:6C
                DirName:/CN=team116-net
                serial:4B:5C:30:A3:A8:80:C6:A2:F5:D9:C0:D0:AF:A6:77:F1:6D:EF:8B:E8
            X509v3 Extended Key Usage: 
                TLS Web Client Authentication
            X509v3 Key Usage: 
                Digital Signature
    Signature Algorithm: sha256WithRSAEncryption
    Signature Value:
        3e:81:99:1c:19:80:b0:99:c8:84:ae:52:6d:c6:5e:6e:b0:81:
        18:23:f8:8e:38:c5:3f:12:a6:01:27:66:a4:70:8a:9d:61:55:
        e2:11:80:9e:78:94:a8:f8:8c:92:58:58:1b:62:ea:51:47:b2:
        6a:4b:e0:1b:41:76:90:26:90:67:f5:7c:e9:3b:e5:12:14:e1:
        f6:2e:8d:9a:13:9b:6e:ba:6d:19:bd:fb:12:4b:8b:f8:8d:ee:
        40:19:7e:2c:4b:5a:7c:6f:43:57:b1:c0:cf:60:b4:4a:06:73:
        27:0d:72:e8:86:f9:68:9a:11:fc:fb:cf:7b:0f:b0:80:cb:52:
        0d:2c:b1:d0:cc:54:b5:32:e7:bd:77:3d:8d:f7:f5:c9:1a:5d:
        2b:c0:29:1f:8d:c8:bd:bb:1a:4f:51:6c:22:90:23:54:7c:cd:
        eb:69:fd:f2:ee:cf:5b:b9:5f:5e:61:7c:42:b9:f3:ab:c3:4c:
        92:04:f3:3c:d5:98:7f:7e:8f:9e:80:09:4d:f0:e5:51:9b:53:
        7e:01:43:b4:71:ae:eb:ec:b0:60:42:1f:b2:d3:24:f7:e6:13:
        06:69:e8:eb:88:dc:b7:e3:fd:ba:35:e1:a2:21:31:96:c1:08:
        a8:97:d6:1c:ff:12:7c:ef:d6:27:fb:9a:9d:3f:4c:1f:04:aa:
        86:26:78:e9
-----BEGIN CERTIFICATE-----
MIIDXDCCAkSgAwIBAgIQGb2NMXWAexuwUlDmZwK0ODANBgkqhkiG9w0BAQsFADAW
MRQwEgYDVQQDDAt0ZWFtMTE2LW5ldDAeFw0yMzExMDQxMTI5NDVaFw0yNjEwMTkx
MTI5NDVaMBkxFzAVBgNVBAMMDnRlYW0xMTYtY2xpZW50MIIBIjANBgkqhkiG9w0B
AQEFAAOCAQ8AMIIBCgKCAQEAt3N5kKV6DlmqKjOXOq9sczwrm+XVim2LW3Bnl+ai
UmvOHd0hufdEuRBfq2MEccst51ap8YcL/dY2phu7yfRCJCVIDkwHvxNZoOj5ZoqG
NyvoYrLvaWH4HRVrcsaznTUdZxpmk/rmPOSL6eaYqoxLKBun/BP4fS8NsTyR4Z7k
h4iE8lhUeDhj12bP25NFr7MosQT/vTLyltzqRNli5P9Pjdmc5vCRBzbPx7u+7ieY
b/3yboRCiLaCwoqICK54ZcNP9uqfRGQeAuGuiBh9dp56rc/2Mfb7dtb0VPEZvMbq
rNevOD7kF7VpVEbx1dYeIRuycWfIUc3AxnCyWyAB8tVVEwIDAQABo4GiMIGfMAkG
A1UdEwQCMAAwHQYDVR0OBBYEFMIzjruoAtR3Ay+iRxxLmggrhUJHMFEGA1UdIwRK
MEiAFPH9DUNhBUFNx3tWCDYCuZijBmZsoRqkGDAWMRQwEgYDVQQDDAt0ZWFtMTE2
LW5ldIIUS1wwo6iAxqL12cDQr6Z38W3vi+gwEwYDVR0lBAwwCgYIKwYBBQUHAwIw
CwYDVR0PBAQDAgeAMA0GCSqGSIb3DQEBCwUAA4IBAQA+gZkcGYCwmciErlJtxl5u
sIEYI/iOOMU/EqYBJ2akcIqdYVXiEYCeeJSo+IySWFgbYupRR7JqS+AbQXaQJpBn
9XzpO+USFOH2Lo2aE5tuum0ZvfsSS4v4je5AGX4sS1p8b0NXscDPYLRKBnMnDXLo
hvlomhH8+897D7CAy1INLLHQzFS1Mue9dz2N9/XJGl0rwCkfjci9uxpPUWwikCNU
fM3raf3y7s9buV9eYXxCufOrw0ySBPM81Zh/fo+egAlN8OVRm1N+AUO0ca7r7LBg
Qh+y0yT35hMGaejriNy34/26NeGiITGWwQiol9Yc/xJ879Yn+5qdP0wfBKqGJnjp
-----END CERTIFICATE-----
