Certificate:
    Data:
        Version: 3 (0x2)
        Serial Number:
            59:8e:c2:aa:a5:91:38:e9:b1:37:65:29:ac:96:7d:e8
        Signature Algorithm: sha256WithRSAEncryption
        Issuer: CN=team116-net
        Validity
            Not Before: Nov  4 11:29:46 2023 GMT
            Not After : Oct 19 11:29:46 2026 GMT
        Subject: CN=team116-server
        Subject Public Key Info:
            Public Key Algorithm: rsaEncryption
                Public-Key: (2048 bit)
                Modulus:
                    00:e3:d5:9c:1f:51:c8:ee:ad:2c:07:c8:f9:66:25:
                    d7:7b:13:dd:72:d2:64:43:45:c8:11:5c:d5:bf:fb:
                    ce:63:9c:29:5b:51:c1:99:b5:6b:8c:a4:57:f2:33:
                    83:1e:ec:cc:dc:9e:21:39:20:99:f3:28:32:38:73:
                    9a:8b:14:73:ec:bf:a2:36:f7:d6:26:c8:7f:da:71:
                    40:d4:45:b6:e1:85:74:df:f6:b8:9d:93:19:8d:82:
                    9f:04:33:8e:07:93:4f:73:03:13:99:0d:d4:f2:4a:
                    c9:ee:bf:a7:42:7f:d0:e8:1e:fd:0e:90:b9:40:fa:
                    29:8e:2a:52:1d:43:47:ae:d4:d0:fd:fd:68:b8:a1:
                    d2:c6:3e:c0:06:e1:71:ea:82:ac:3a:b7:c1:aa:f8:
                    e1:65:0f:07:f3:2d:27:0c:5f:a5:f6:b2:7d:a8:83:
                    ec:3f:ea:85:dd:9a:e1:a3:c6:81:1c:27:b9:c2:ed:
                    40:a1:d2:e4:66:74:d4:17:11:10:f3:91:da:1f:28:
                    1b:c7:11:ab:1f:ae:39:15:2b:98:c5:2e:f4:9a:8f:
                    61:72:df:66:55:18:fe:6d:0c:5d:f8:24:0f:90:01:
                    ae:57:72:46:0c:ea:9d:c6:11:9c:d6:ca:6a:a9:4e:
                    f7:87:d0:9f:0c:98:93:7d:c7:dd:9e:4d:9e:09:11:
                    24:d1
                Exponent: 65537 (0x10001)
        X509v3 extensions:
            X509v3 Basic Constraints: 
                CA:FALSE
            X509v3 Subject Key Identifier: 
                6C:AD:AC:44:D2:E4:94:B8:DF:20:EA:EA:EE:D4:EE:15:E2:C7:89:D1
            X509v3 Authority Key Identifier: 
                keyid:F1:FD:0D:43:61:05:41:4D:C7:7B:56:08:36:02:B9:98:A3:06:66:6C
                DirName:/CN=team116-net
                serial:4B:5C:30:A3:A8:80:C6:A2:F5:D9:C0:D0:AF:A6:77:F1:6D:EF:8B:E8
            X509v3 Extended Key Usage: 
                TLS Web Server Authentication
            X509v3 Key Usage: 
                Digital Signature, Key Encipherment
            X509v3 Subject Alternative Name: 
                DNS:team116-server
    Signature Algorithm: sha256WithRSAEncryption
    Signature Value:
        78:46:22:70:51:1e:a6:ed:cd:81:53:20:cd:7e:54:a2:87:e0:
        0c:cb:37:f9:03:45:c8:ab:e7:6d:c6:d5:a8:24:3f:37:ee:c2:
        c2:c9:e9:be:29:6e:23:ce:4d:e3:b0:be:16:f1:da:0f:db:fd:
        d4:f0:6f:45:4c:4c:10:34:15:7c:c8:45:af:ff:b3:56:a9:3d:
        88:a6:a4:2d:7f:98:8b:10:7f:0c:d9:9b:d6:c5:8e:fc:bf:1e:
        55:a3:71:e8:e1:40:3d:2a:ef:de:5f:db:93:b1:6e:76:7f:63:
        88:45:b0:93:dd:68:a5:7c:2b:5e:27:2d:9f:92:bc:bf:ae:16:
        f8:4d:12:b9:38:2c:4b:1c:25:b8:31:47:53:bf:63:d6:ba:38:
        a7:5f:d1:b0:00:16:8b:33:66:36:05:cb:3b:4c:d7:de:f3:17:
        f2:80:6b:4c:8b:3c:c3:19:d2:2b:6b:52:05:89:6f:04:9b:59:
        b0:d6:6e:48:f2:f9:86:ee:f8:d3:4d:9a:bc:8c:dd:95:60:79:
        97:2d:32:79:ff:91:3f:83:75:74:63:af:76:24:60:6f:d6:ae:
        c4:1c:48:b9:84:bc:a4:ff:9e:5d:e4:4c:dc:0c:d6:ec:3c:9f:
        42:01:5f:db:f3:88:a7:23:cd:7e:3d:b4:6c:0e:79:76:8e:70:
        1e:8c:e1:8a
-----BEGIN CERTIFICATE-----
MIIDdzCCAl+gAwIBAgIQWY7CqqWROOmxN2UprJZ96DANBgkqhkiG9w0BAQsFADAW
MRQwEgYDVQQDDAt0ZWFtMTE2LW5ldDAeFw0yMzExMDQxMTI5NDZaFw0yNjEwMTkx
MTI5NDZaMBkxFzAVBgNVBAMMDnRlYW0xMTYtc2VydmVyMIIBIjANBgkqhkiG9w0B
AQEFAAOCAQ8AMIIBCgKCAQEA49WcH1HI7q0sB8j5ZiXXexPdctJkQ0XIEVzVv/vO
Y5wpW1HBmbVrjKRX8jODHuzM3J4hOSCZ8ygyOHOaixRz7L+iNvfWJsh/2nFA1EW2
4YV03/a4nZMZjYKfBDOOB5NPcwMTmQ3U8krJ7r+nQn/Q6B79DpC5QPopjipSHUNH
rtTQ/f1ouKHSxj7ABuFx6oKsOrfBqvjhZQ8H8y0nDF+l9rJ9qIPsP+qF3Zrho8aB
HCe5wu1AodLkZnTUFxEQ85HaHygbxxGrH645FSuYxS70mo9hct9mVRj+bQxd+CQP
kAGuV3JGDOqdxhGc1spqqU73h9CfDJiTfcfdnk2eCREk0QIDAQABo4G9MIG6MAkG
A1UdEwQCMAAwHQYDVR0OBBYEFGytrETS5JS43yDq6u7U7hXix4nRMFEGA1UdIwRK
MEiAFPH9DUNhBUFNx3tWCDYCuZijBmZsoRqkGDAWMRQwEgYDVQQDDAt0ZWFtMTE2
LW5ldIIUS1wwo6iAxqL12cDQr6Z38W3vi+gwEwYDVR0lBAwwCgYIKwYBBQUHAwEw
CwYDVR0PBAQDAgWgMBkGA1UdEQQSMBCCDnRlYW0xMTYtc2VydmVyMA0GCSqGSIb3
DQEBCwUAA4IBAQB4RiJwUR6m7c2BUyDNflSih+AMyzf5A0XIq+dtxtWoJD837sLC
yem+KW4jzk3jsL4W8doP2/3U8G9FTEwQNBV8yEWv/7NWqT2IpqQtf5iLEH8M2ZvW
xY78vx5Vo3Ho4UA9Ku/eX9uTsW52f2OIRbCT3WilfCteJy2fkry/rhb4TRK5OCxL
HCW4MUdTv2PWujinX9GwABaLM2Y2Bcs7TNfe8xfygGtMizzDGdIra1IFiW8Em1mw
1m5I8vmG7vjTTZq8jN2VYHmXLTJ5/5E/g3V0Y692JGBv1q7EHEi5hLyk/55d5Ezc
DNbsPJ9CAV/b84inI81+PbRsDnl2jnAejOGK
-----END CERTIFICATE-----
