Certificate:
    Data:
        Version: 3 (0x2)
        Serial Number:
            87:ee:16:d7:5f:b4:67:4d:7a:b8:40:ec:32:7c:0a:fa
        Signature Algorithm: sha256WithRSAEncryption
        Issuer: CN=team116-net
        Validity
            Not Before: Nov  4 10:42:35 2023 GMT
            Not After : Oct 19 10:42:35 2026 GMT
        Subject: CN=team116-server
        Subject Public Key Info:
            Public Key Algorithm: rsaEncryption
                Public-Key: (2048 bit)
                Modulus:
                    00:f1:97:17:6a:4d:ea:88:42:92:21:b3:08:08:bb:
                    e4:d7:18:1f:61:b7:16:6c:b4:c4:b7:82:0e:47:ee:
                    13:38:4b:99:fc:f0:db:ad:e9:e0:b2:c5:b5:98:0e:
                    09:a0:74:a9:ec:b3:65:68:cc:7e:1e:b1:9f:c7:07:
                    af:0f:37:32:1c:54:38:07:35:d6:81:2f:d6:88:18:
                    82:5a:e0:2c:d4:78:f2:d2:d8:a7:3a:81:b9:82:40:
                    3e:1e:83:86:89:7a:3c:c5:db:f0:f8:25:be:3a:11:
                    e0:3d:89:04:ad:be:10:08:4f:ca:ba:77:66:d8:0c:
                    4a:12:3c:9b:64:9d:a5:3a:af:d5:42:f6:d1:9f:13:
                    36:3a:b5:54:44:d8:c1:ae:a5:2a:e1:43:16:2a:5e:
                    df:bc:a2:8b:79:69:06:a0:c3:56:6a:25:3e:bf:79:
                    3b:35:d1:f8:8c:0f:0d:2a:78:78:c0:10:65:0f:c0:
                    f3:c6:8b:dc:c5:d3:ce:45:38:54:19:17:e3:b7:f7:
                    39:98:a4:54:c5:92:db:18:e5:7a:b1:74:83:73:6a:
                    8c:a2:1a:b7:7c:c4:94:9e:f0:8d:fc:32:3c:70:50:
                    68:34:30:d7:49:9c:e6:bd:72:e4:02:96:4c:4e:02:
                    6a:a4:b3:4e:2d:03:30:9e:36:39:84:55:b6:0d:2b:
                    72:8f
                Exponent: 65537 (0x10001)
        X509v3 extensions:
            X509v3 Basic Constraints: 
                CA:FALSE
            X509v3 Subject Key Identifier: 
                93:76:1B:5A:25:1B:C9:B3:23:14:CE:D9:81:D0:6E:A2:C4:F7:D8:38
            X509v3 Authority Key Identifier: 
                keyid:5B:2C:D5:62:73:B5:C8:25:55:9F:E0:B1:D4:7A:95:73:71:9E:62:79
                DirName:/CN=team116-net
                serial:41:8B:DF:D1:84:AD:CF:B4:46:1D:5C:99:E4:3A:98:E4:F0:ED:F0:F6
            X509v3 Extended Key Usage: 
                TLS Web Server Authentication
            X509v3 Key Usage: 
                Digital Signature, Key Encipherment
            X509v3 Subject Alternative Name: 
                DNS:team116-server
    Signature Algorithm: sha256WithRSAEncryption
    Signature Value:
        60:3f:8a:38:69:46:17:9d:c3:de:a0:2d:7b:60:3c:19:7a:72:
        c3:da:ae:b4:19:58:31:6a:a1:29:38:1c:40:df:76:8d:45:3d:
        36:06:ab:a9:fc:e7:4a:0a:3a:31:6f:ad:ff:11:32:ad:d2:b4:
        ba:98:e4:55:89:c3:56:37:87:48:1e:89:a5:b2:d2:02:95:70:
        2a:d2:64:4b:b1:aa:77:94:68:27:ec:dd:ed:14:28:69:1e:5c:
        81:22:86:12:d8:aa:27:19:d7:6a:4f:cc:27:29:84:2f:50:01:
        48:46:ff:10:fb:1b:72:eb:e0:54:b3:13:18:a7:a5:1b:cd:02:
        dc:df:58:66:df:e8:7e:f0:e9:4f:5e:5e:c4:e2:ab:18:14:10:
        60:86:99:9a:bb:95:34:29:54:33:51:3f:d9:56:9d:bf:a1:04:
        b2:f1:15:b1:dc:59:c0:ab:12:81:0e:9c:8f:fd:2b:aa:a4:73:
        d4:f3:52:f5:84:1c:be:72:cc:81:e2:ff:a2:47:e6:04:a6:96:
        33:0e:fb:d0:7d:f2:cb:8c:8c:57:28:99:05:47:7b:6a:52:f0:
        31:84:87:c0:b8:79:db:f5:7e:69:96:68:5a:a8:d5:92:07:cc:
        ed:a9:29:61:f7:2d:11:1e:58:34:ad:09:2d:53:22:7d:58:9c:
        92:08:e2:4e
-----BEGIN CERTIFICATE-----
MIIDeDCCAmCgAwIBAgIRAIfuFtdftGdNerhA7DJ8CvowDQYJKoZIhvcNAQELBQAw
FjEUMBIGA1UEAwwLdGVhbTExNi1uZXQwHhcNMjMxMTA0MTA0MjM1WhcNMjYxMDE5
MTA0MjM1WjAZMRcwFQYDVQQDDA50ZWFtMTE2LXNlcnZlcjCCASIwDQYJKoZIhvcN
AQEBBQADggEPADCCAQoCggEBAPGXF2pN6ohCkiGzCAi75NcYH2G3Fmy0xLeCDkfu
EzhLmfzw263p4LLFtZgOCaB0qeyzZWjMfh6xn8cHrw83MhxUOAc11oEv1ogYglrg
LNR48tLYpzqBuYJAPh6Dhol6PMXb8PglvjoR4D2JBK2+EAhPyrp3ZtgMShI8m2Sd
pTqv1UL20Z8TNjq1VETYwa6lKuFDFipe37yii3lpBqDDVmolPr95OzXR+IwPDSp4
eMAQZQ/A88aL3MXTzkU4VBkX47f3OZikVMWS2xjlerF0g3NqjKIat3zElJ7wjfwy
PHBQaDQw10mc5r1y5AKWTE4CaqSzTi0DMJ42OYRVtg0rco8CAwEAAaOBvTCBujAJ
BgNVHRMEAjAAMB0GA1UdDgQWBBSTdhtaJRvJsyMUztmB0G6ixPfYODBRBgNVHSME
SjBIgBRbLNVic7XIJVWf4LHUepVzcZ5ieaEapBgwFjEUMBIGA1UEAwwLdGVhbTEx
Ni1uZXSCFEGL39GErc+0Rh1cmeQ6mOTw7fD2MBMGA1UdJQQMMAoGCCsGAQUFBwMB
MAsGA1UdDwQEAwIFoDAZBgNVHREEEjAQgg50ZWFtMTE2LXNlcnZlcjANBgkqhkiG
9w0BAQsFAAOCAQEAYD+KOGlGF53D3qAte2A8GXpyw9qutBlYMWqhKTgcQN92jUU9
NgarqfznSgo6MW+t/xEyrdK0upjkVYnDVjeHSB6JpbLSApVwKtJkS7Gqd5RoJ+zd
7RQoaR5cgSKGEtiqJxnXak/MJymEL1ABSEb/EPsbcuvgVLMTGKelG80C3N9YZt/o
fvDpT15exOKrGBQQYIaZmruVNClUM1E/2Vadv6EEsvEVsdxZwKsSgQ6cj/0rqqRz
1PNS9YQcvnLMgeL/okfmBKaWMw770H3yy4yMVyiZBUd7alLwMYSHwLh52/V+aZZo
WqjVkgfM7akpYfctER5YNK0JLVMifVickgjiTg==
-----END CERTIFICATE-----
