Certificate:
    Data:
        Version: 3 (0x2)
        Serial Number:
            bb:6d:e9:fc:8b:47:1f:d9:fb:53:3f:45:4c:a5:17:13
        Signature Algorithm: sha256WithRSAEncryption
        Issuer: CN=team116-net
        Validity
            Not Before: Nov  3 20:41:13 2023 GMT
            Not After : Oct 18 20:41:13 2026 GMT
        Subject: CN=team116-server
        Subject Public Key Info:
            Public Key Algorithm: rsaEncryption
                Public-Key: (2048 bit)
                Modulus:
                    00:f4:f2:2a:9d:e4:6e:d4:2b:49:1e:13:3e:f6:de:
                    b3:a4:cb:60:93:81:d8:15:f6:1a:a2:1b:9b:6b:fc:
                    08:d9:b9:9c:8e:bc:9b:19:87:bb:b2:8a:7e:9f:f5:
                    75:83:70:1d:7d:30:fd:6c:21:9b:fd:5e:6f:51:19:
                    fd:24:e2:d1:5f:9e:84:5e:fb:8f:a3:7f:22:76:a2:
                    ca:6e:49:fa:60:d6:73:f0:09:0e:fa:65:6b:21:03:
                    77:da:68:09:24:ba:80:e9:c2:ff:70:d8:12:d8:29:
                    ad:49:96:0c:4b:9e:64:4d:c9:fa:f4:e5:f9:e1:0c:
                    a7:62:12:ae:a6:53:c6:f3:be:cd:a3:e6:fe:35:e1:
                    0a:f7:62:bf:d1:04:74:2d:16:e5:93:68:80:7e:96:
                    95:d7:9a:dc:e7:c3:33:e5:dd:98:75:6b:ce:82:d0:
                    0e:2d:5a:01:64:f1:89:32:a3:9f:f9:1e:c1:87:12:
                    f2:c3:95:68:cf:00:d5:44:e7:a3:66:95:77:57:8e:
                    ee:b5:e5:41:75:99:b8:4d:da:0d:d2:e6:5d:dd:dd:
                    02:48:60:b3:c7:ef:bd:af:83:50:72:67:d7:39:a0:
                    a5:70:94:e9:18:e2:90:8c:30:15:8b:eb:30:9b:a8:
                    55:a3:71:3b:14:ac:4b:fe:9e:43:1b:c0:03:f8:70:
                    aa:d5
                Exponent: 65537 (0x10001)
        X509v3 extensions:
            X509v3 Basic Constraints: 
                CA:FALSE
            X509v3 Subject Key Identifier: 
                25:32:B2:7F:0A:E6:AA:8C:CA:D8:DB:DA:2F:CB:9D:6E:A8:B4:4E:4B
            X509v3 Authority Key Identifier: 
                keyid:9F:98:16:18:DF:D3:F9:8D:EB:AD:AE:EC:85:FA:5F:34:ED:B2:2E:C2
                DirName:/CN=team116-net
                serial:51:BB:C0:7A:62:4E:3A:D4:F5:26:49:8D:2C:C6:39:6F:E1:2E:E8:38
            X509v3 Extended Key Usage: 
                TLS Web Server Authentication
            X509v3 Key Usage: 
                Digital Signature, Key Encipherment
            X509v3 Subject Alternative Name: 
                DNS:team116-server
    Signature Algorithm: sha256WithRSAEncryption
    Signature Value:
        95:87:c5:61:7f:c4:f1:31:85:37:98:56:cc:2a:63:ed:e6:ca:
        f8:ee:8e:37:77:d3:73:b7:09:f0:e9:c0:2f:68:7e:b2:14:5b:
        39:57:f3:7c:93:5b:7c:f5:0f:de:a8:66:cf:3f:fc:8f:72:d0:
        23:ce:49:73:71:83:8d:63:ac:df:e4:91:ef:01:12:62:34:20:
        8f:bb:76:93:39:e2:73:ef:1b:3c:97:dd:12:b9:10:da:ad:e9:
        01:bb:5e:d1:94:64:0b:d7:46:f6:a8:66:fa:95:c3:e8:bd:57:
        ac:ee:64:23:31:87:46:dc:9a:17:37:54:2b:f0:1d:c5:d1:a5:
        22:5d:60:52:1b:49:34:28:a1:44:9e:96:7f:e4:e9:9e:4a:c8:
        f9:01:ad:24:e0:88:ab:2c:8d:d1:87:8c:a3:48:fd:9a:61:44:
        8b:28:87:7a:95:cb:3f:1e:28:c2:d9:f9:b2:b8:d0:74:7c:d3:
        0c:3d:80:37:0a:5f:a0:fa:94:e4:51:11:0c:e0:bb:12:ba:7f:
        f8:7a:62:8b:20:c5:11:49:cf:b3:4b:8b:04:c5:77:78:e4:12:
        e3:f5:5a:1e:f6:4b:ed:26:24:e7:28:20:f7:15:5d:a6:03:62:
        ec:52:d7:24:6b:6f:e4:12:da:9d:0d:b7:54:2a:62:2a:52:16:
        5b:0b:71:1a
-----BEGIN CERTIFICATE-----
MIIDeDCCAmCgAwIBAgIRALtt6fyLRx/Z+1M/RUylFxMwDQYJKoZIhvcNAQELBQAw
FjEUMBIGA1UEAwwLdGVhbTExNi1uZXQwHhcNMjMxMTAzMjA0MTEzWhcNMjYxMDE4
MjA0MTEzWjAZMRcwFQYDVQQDDA50ZWFtMTE2LXNlcnZlcjCCASIwDQYJKoZIhvcN
AQEBBQADggEPADCCAQoCggEBAPTyKp3kbtQrSR4TPvbes6TLYJOB2BX2GqIbm2v8
CNm5nI68mxmHu7KKfp/1dYNwHX0w/Wwhm/1eb1EZ/STi0V+ehF77j6N/Inaiym5J
+mDWc/AJDvplayEDd9poCSS6gOnC/3DYEtgprUmWDEueZE3J+vTl+eEMp2ISrqZT
xvO+zaPm/jXhCvdiv9EEdC0W5ZNogH6Wldea3OfDM+XdmHVrzoLQDi1aAWTxiTKj
n/kewYcS8sOVaM8A1UTno2aVd1eO7rXlQXWZuE3aDdLmXd3dAkhgs8fvva+DUHJn
1zmgpXCU6RjikIwwFYvrMJuoVaNxOxSsS/6eQxvAA/hwqtUCAwEAAaOBvTCBujAJ
BgNVHRMEAjAAMB0GA1UdDgQWBBQlMrJ/CuaqjMrY29ovy51uqLROSzBRBgNVHSME
SjBIgBSfmBYY39P5jeutruyF+l807bIuwqEapBgwFjEUMBIGA1UEAwwLdGVhbTEx
Ni1uZXSCFFG7wHpiTjrU9SZJjSzGOW/hLug4MBMGA1UdJQQMMAoGCCsGAQUFBwMB
MAsGA1UdDwQEAwIFoDAZBgNVHREEEjAQgg50ZWFtMTE2LXNlcnZlcjANBgkqhkiG
9w0BAQsFAAOCAQEAlYfFYX/E8TGFN5hWzCpj7ebK+O6ON3fTc7cJ8OnAL2h+shRb
OVfzfJNbfPUP3qhmzz/8j3LQI85Jc3GDjWOs3+SR7wESYjQgj7t2kznic+8bPJfd
ErkQ2q3pAbte0ZRkC9dG9qhm+pXD6L1XrO5kIzGHRtyaFzdUK/AdxdGlIl1gUhtJ
NCihRJ6Wf+TpnkrI+QGtJOCIqyyN0YeMo0j9mmFEiyiHepXLPx4owtn5srjQdHzT
DD2ANwpfoPqU5FERDOC7Erp/+HpiiyDFEUnPs0uLBMV3eOQS4/VaHvZL7SYk5ygg
9xVdpgNi7FLXJGtv5BLanQ23VCpiKlIWWwtxGg==
-----END CERTIFICATE-----
