Certificate:
    Data:
        Version: 3 (0x2)
        Serial Number:
            a0:74:cb:a7:b0:8b:e4:43:97:97:22:19:75:83:ba:7a
        Signature Algorithm: sha256WithRSAEncryption
        Issuer: CN=team375-net
        Validity
            Not Before: Nov  3 20:46:03 2023 GMT
            Not After : Oct 18 20:46:03 2026 GMT
        Subject: CN=team375-server
        Subject Public Key Info:
            Public Key Algorithm: rsaEncryption
                Public-Key: (2048 bit)
                Modulus:
                    00:b1:f2:6b:54:38:1c:84:56:eb:ac:19:be:42:04:
                    ba:a7:1e:3e:74:3e:28:5e:bc:06:ce:53:b2:c2:dd:
                    00:f5:5b:b5:c7:a6:2e:c2:c5:c1:d7:e2:ee:a7:92:
                    3e:8b:cd:7e:4b:7a:1a:f5:5f:e4:dd:24:a5:7c:8e:
                    0e:9e:ff:86:8d:6b:0a:f8:0d:69:5d:46:4a:ad:e6:
                    18:b9:df:d9:63:bf:a6:8f:42:c5:be:27:16:b6:f9:
                    11:04:3d:a8:ef:b1:35:94:17:ab:4d:b9:95:84:76:
                    85:a3:71:d7:c8:c9:e7:1b:79:fc:82:08:28:d9:9c:
                    48:e8:e1:4e:10:c0:fd:4f:26:71:3d:9d:74:d6:f7:
                    c9:6e:15:11:d5:ff:df:93:97:ee:a2:46:42:0e:e6:
                    5d:79:f5:4a:7c:df:09:f4:ad:0a:78:6b:f6:0f:28:
                    c7:d4:17:24:1c:d3:00:4e:83:6e:f8:c1:ae:ae:93:
                    af:7c:36:3a:81:5b:98:c4:42:04:52:24:76:e3:0b:
                    68:53:c0:b0:ca:75:3d:c7:5a:8c:83:bf:2a:b0:fa:
                    77:80:c7:5c:4e:58:55:95:bb:b1:58:af:fc:d4:1f:
                    36:7d:dd:30:9f:eb:b6:ea:1b:84:5a:28:9d:dc:8f:
                    11:10:fe:2a:71:4e:71:6f:bd:3d:f1:99:62:19:e8:
                    90:af
                Exponent: 65537 (0x10001)
        X509v3 extensions:
            X509v3 Basic Constraints: 
                CA:FALSE
            X509v3 Subject Key Identifier: 
                B2:70:1D:9E:23:BA:A0:E6:E1:AC:81:54:9E:AE:2F:2A:01:45:B7:9F
            X509v3 Authority Key Identifier: 
                keyid:D2:87:C6:42:83:4B:94:34:02:59:F6:1F:01:6E:DA:3D:D0:C8:CD:08
                DirName:/CN=team375-net
                serial:3A:8B:3C:18:2E:A4:7D:2C:69:37:74:51:AA:87:56:F6:6B:39:EA:BF
            X509v3 Extended Key Usage: 
                TLS Web Server Authentication
            X509v3 Key Usage: 
                Digital Signature, Key Encipherment
            X509v3 Subject Alternative Name: 
                DNS:team375-server
    Signature Algorithm: sha256WithRSAEncryption
    Signature Value:
        32:2f:a5:14:ac:e8:26:86:5a:2e:2d:b1:bb:4a:6e:14:3a:11:
        8e:e3:19:3a:ab:2f:9a:47:b1:b8:b6:b8:66:6c:da:5a:8e:1b:
        97:87:98:8f:76:b3:00:6a:d7:90:4f:06:d2:0c:3a:b0:bf:04:
        b5:21:81:87:33:75:98:06:3a:69:33:66:76:24:e8:3c:61:e7:
        e2:88:64:69:8b:4f:da:04:0e:5f:37:9c:3b:ba:9d:8c:d6:73:
        0e:34:a3:0e:69:72:26:52:40:23:6f:b3:33:91:3a:18:6b:3d:
        24:4a:f8:47:04:9f:b2:be:5d:7d:1a:1c:17:fe:ed:91:d8:80:
        55:c9:52:ad:05:ee:01:4e:f8:f8:0d:68:d6:c9:76:27:a5:9e:
        39:6e:e1:3a:bf:ee:dd:29:45:62:d7:7c:b4:b4:25:26:85:e2:
        e1:b7:c8:4a:68:b8:85:f5:6f:43:52:ef:7f:9a:b1:c5:ad:e2:
        4b:b3:cf:98:a8:d8:97:4c:2d:92:89:95:dd:22:3c:c7:1e:ba:
        15:a2:b1:31:83:4b:98:71:b7:60:25:d6:e3:6f:9a:38:e9:77:
        45:bb:46:61:97:24:18:34:ab:46:f2:c8:db:b9:b8:94:d8:82:
        5d:17:a0:32:04:42:b2:7f:52:59:b2:78:2f:77:07:b6:54:2a:
        2f:47:fe:83
-----BEGIN CERTIFICATE-----
MIIDeDCCAmCgAwIBAgIRAKB0y6ewi+RDl5ciGXWDunowDQYJKoZIhvcNAQELBQAw
FjEUMBIGA1UEAwwLdGVhbTM3NS1uZXQwHhcNMjMxMTAzMjA0NjAzWhcNMjYxMDE4
MjA0NjAzWjAZMRcwFQYDVQQDDA50ZWFtMzc1LXNlcnZlcjCCASIwDQYJKoZIhvcN
AQEBBQADggEPADCCAQoCggEBALHya1Q4HIRW66wZvkIEuqcePnQ+KF68Bs5TssLd
APVbtcemLsLFwdfi7qeSPovNfkt6GvVf5N0kpXyODp7/ho1rCvgNaV1GSq3mGLnf
2WO/po9Cxb4nFrb5EQQ9qO+xNZQXq025lYR2haNx18jJ5xt5/IIIKNmcSOjhThDA
/U8mcT2ddNb3yW4VEdX/35OX7qJGQg7mXXn1SnzfCfStCnhr9g8ox9QXJBzTAE6D
bvjBrq6Tr3w2OoFbmMRCBFIkduMLaFPAsMp1PcdajIO/KrD6d4DHXE5YVZW7sViv
/NQfNn3dMJ/rtuobhFoondyPERD+KnFOcW+9PfGZYhnokK8CAwEAAaOBvTCBujAJ
BgNVHRMEAjAAMB0GA1UdDgQWBBSycB2eI7qg5uGsgVSeri8qAUW3nzBRBgNVHSME
SjBIgBTSh8ZCg0uUNAJZ9h8Bbto90MjNCKEapBgwFjEUMBIGA1UEAwwLdGVhbTM3
NS1uZXSCFDqLPBgupH0saTd0UaqHVvZrOeq/MBMGA1UdJQQMMAoGCCsGAQUFBwMB
MAsGA1UdDwQEAwIFoDAZBgNVHREEEjAQgg50ZWFtMzc1LXNlcnZlcjANBgkqhkiG
9w0BAQsFAAOCAQEAMi+lFKzoJoZaLi2xu0puFDoRjuMZOqsvmkexuLa4ZmzaWo4b
l4eYj3azAGrXkE8G0gw6sL8EtSGBhzN1mAY6aTNmdiToPGHn4ohkaYtP2gQOXzec
O7qdjNZzDjSjDmlyJlJAI2+zM5E6GGs9JEr4RwSfsr5dfRocF/7tkdiAVclSrQXu
AU74+A1o1sl2J6WeOW7hOr/u3SlFYtd8tLQlJoXi4bfISmi4hfVvQ1Lvf5qxxa3i
S7PPmKjYl0wtkomV3SI8xx66FaKxMYNLmHG3YCXW42+aOOl3RbtGYZckGDSrRvLI
27m4lNiCXRegMgRCsn9SWbJ4L3cHtlQqL0f+gw==
-----END CERTIFICATE-----
