Certificate:
    Data:
        Version: 3 (0x2)
        Serial Number:
            5d:75:ba:f4:84:31:1d:96:e7:4e:1e:76:a2:c0:c4:06
        Signature Algorithm: sha256WithRSAEncryption
        Issuer: CN=team349-net
        Validity
            Not Before: Nov  4 10:46:58 2023 GMT
            Not After : Oct 19 10:46:58 2026 GMT
        Subject: CN=team349-client
        Subject Public Key Info:
            Public Key Algorithm: rsaEncryption
                Public-Key: (2048 bit)
                Modulus:
                    00:bb:3f:fb:d4:83:3b:c7:00:e0:e8:5e:65:4d:b7:
                    ef:0f:21:63:86:ff:9c:ef:9b:60:d4:95:62:23:7b:
                    f7:71:d4:83:5f:06:ea:21:cb:9a:37:ca:b0:68:73:
                    05:e3:6f:69:22:9a:20:a4:23:a7:87:33:d1:cf:2b:
                    67:b2:17:3a:80:80:b4:5c:c8:09:43:8f:fc:d8:8e:
                    b2:47:22:0d:57:b8:7c:13:9d:d8:e1:74:ce:ce:1a:
                    64:70:17:dd:49:a8:41:23:26:b8:53:c9:03:8d:9d:
                    2c:b2:bc:8b:44:4a:a2:08:61:90:21:d2:89:1c:1f:
                    fb:1c:c5:de:19:97:23:b9:e6:fa:65:e8:2c:73:a2:
                    ee:c6:f8:f2:bd:3e:a2:37:88:2f:61:06:f8:d5:bf:
                    c2:7c:b2:d5:3b:65:06:70:8e:fb:0b:37:5a:23:d6:
                    2a:f8:1b:c1:cc:da:ae:d8:96:d6:70:c0:7e:b3:12:
                    3e:c1:1f:55:88:76:4e:20:02:ed:17:c5:03:8f:7d:
                    7c:7d:bc:ce:7c:d5:73:ae:37:0d:c0:6d:9d:be:e8:
                    6a:03:30:be:d7:ad:74:b4:e4:b4:53:bf:7f:ae:62:
                    c0:77:86:2a:e7:c7:cb:90:b2:60:87:25:a1:a5:51:
                    36:0b:e8:b8:ee:12:a0:c1:37:f4:8d:b0:3a:44:f4:
                    9a:fd
                Exponent: 65537 (0x10001)
        X509v3 extensions:
            X509v3 Basic Constraints: 
                CA:FALSE
            X509v3 Subject Key Identifier: 
                23:F1:CE:62:F1:D5:12:F0:08:2B:EF:76:99:31:0A:94:AF:6E:60:66
            X509v3 Authority Key Identifier: 
                keyid:D2:6E:57:8A:C8:C4:E4:2B:4A:84:20:C9:05:B8:1E:99:BB:E4:81:F5
                DirName:/CN=team349-net
                serial:3D:0A:19:E0:CC:06:54:74:DD:0C:BE:A3:0A:90:95:D5:DA:FF:61:1E
            X509v3 Extended Key Usage: 
                TLS Web Client Authentication
            X509v3 Key Usage: 
                Digital Signature
    Signature Algorithm: sha256WithRSAEncryption
    Signature Value:
        77:33:9b:e9:d0:6b:c4:94:18:76:0a:77:93:b5:89:fc:9a:85:
        e9:e8:29:1f:8c:49:07:73:3e:4d:5b:7a:20:73:52:1b:cb:45:
        34:46:ab:5c:96:9c:ad:ec:8c:e7:49:1f:5d:28:5f:8e:59:52:
        4c:5a:c7:ae:88:93:31:bc:4a:ba:8c:d2:4a:d2:00:c0:59:e9:
        b4:df:a5:87:30:c8:3b:58:03:ae:00:33:d9:f2:e1:bf:7b:cd:
        ae:bf:d2:66:2b:9e:d7:c2:20:e4:f2:26:cd:94:45:24:4a:9c:
        bf:e6:69:2f:18:d0:50:cf:01:84:0d:3f:92:d8:27:a9:77:f2:
        e4:b0:cb:b3:5b:24:38:c2:74:af:49:a2:dc:23:8b:89:ee:5e:
        e2:4e:5f:6f:6f:a2:2f:ac:83:f2:e8:c1:3c:bd:00:dc:43:bc:
        af:90:1d:d1:31:bd:f7:60:a2:f7:0d:15:0d:10:79:34:68:26:
        71:9c:9d:57:ff:b3:03:8c:e0:b3:c9:e7:38:2d:04:ec:1a:d6:
        f8:11:68:22:22:db:1d:38:28:a9:df:b3:ab:45:74:5b:48:2c:
        8f:39:05:66:f6:1c:9f:60:c5:fa:d4:75:65:b2:c9:82:bd:6d:
        aa:53:9c:fb:f3:87:94:96:76:51:df:31:4a:7e:e9:14:68:31:
        05:0c:6c:74
-----BEGIN CERTIFICATE-----
MIIDXDCCAkSgAwIBAgIQXXW69IQxHZbnTh52osDEBjANBgkqhkiG9w0BAQsFADAW
MRQwEgYDVQQDDAt0ZWFtMzQ5LW5ldDAeFw0yMzExMDQxMDQ2NThaFw0yNjEwMTkx
MDQ2NThaMBkxFzAVBgNVBAMMDnRlYW0zNDktY2xpZW50MIIBIjANBgkqhkiG9w0B
AQEFAAOCAQ8AMIIBCgKCAQEAuz/71IM7xwDg6F5lTbfvDyFjhv+c75tg1JViI3v3
cdSDXwbqIcuaN8qwaHMF429pIpogpCOnhzPRzytnshc6gIC0XMgJQ4/82I6yRyIN
V7h8E53Y4XTOzhpkcBfdSahBIya4U8kDjZ0ssryLREqiCGGQIdKJHB/7HMXeGZcj
ueb6Zegsc6LuxvjyvT6iN4gvYQb41b/CfLLVO2UGcI77CzdaI9Yq+BvBzNqu2JbW
cMB+sxI+wR9ViHZOIALtF8UDj318fbzOfNVzrjcNwG2dvuhqAzC+1610tOS0U79/
rmLAd4Yq58fLkLJghyWhpVE2C+i47hKgwTf0jbA6RPSa/QIDAQABo4GiMIGfMAkG
A1UdEwQCMAAwHQYDVR0OBBYEFCPxzmLx1RLwCCvvdpkxCpSvbmBmMFEGA1UdIwRK
MEiAFNJuV4rIxOQrSoQgyQW4Hpm75IH1oRqkGDAWMRQwEgYDVQQDDAt0ZWFtMzQ5
LW5ldIIUPQoZ4MwGVHTdDL6jCpCV1dr/YR4wEwYDVR0lBAwwCgYIKwYBBQUHAwIw
CwYDVR0PBAQDAgeAMA0GCSqGSIb3DQEBCwUAA4IBAQB3M5vp0GvElBh2CneTtYn8
moXp6CkfjEkHcz5NW3ogc1Iby0U0Rqtclpyt7IznSR9dKF+OWVJMWseuiJMxvEq6
jNJK0gDAWem036WHMMg7WAOuADPZ8uG/e82uv9JmK57XwiDk8ibNlEUkSpy/5mkv
GNBQzwGEDT+S2Cepd/LksMuzWyQ4wnSvSaLcI4uJ7l7iTl9vb6IvrIPy6ME8vQDc
Q7yvkB3RMb33YKL3DRUNEHk0aCZxnJ1X/7MDjOCzyec4LQTsGtb4EWgiItsdOCip
37OrRXRbSCyPOQVm9hyfYMX61HVlssmCvW2qU5z784eUlnZR3zFKfukUaDEFDGx0
-----END CERTIFICATE-----
