Certificate:
    Data:
        Version: 3 (0x2)
        Serial Number:
            85:62:74:46:bd:b6:b7:1f:56:82:9d:ed:2c:3b:96:ae
        Signature Algorithm: sha256WithRSAEncryption
        Issuer: CN=team349-net
        Validity
            Not Before: Nov  3 20:45:38 2023 GMT
            Not After : Oct 18 20:45:38 2026 GMT
        Subject: CN=team349-server
        Subject Public Key Info:
            Public Key Algorithm: rsaEncryption
                Public-Key: (2048 bit)
                Modulus:
                    00:c0:81:6e:12:dd:3d:f6:af:90:aa:70:19:93:ed:
                    36:86:0a:eb:53:9c:b3:2d:f5:61:05:4e:97:b9:3e:
                    0a:74:98:e9:7f:ee:b8:2a:3b:bf:26:67:0f:06:8d:
                    b4:81:c1:31:5d:6e:f7:91:a5:ed:ed:26:55:08:77:
                    d1:41:30:ee:13:48:96:51:6d:ad:9c:13:61:b9:4f:
                    55:99:8e:42:f5:7c:81:94:d5:d3:58:24:1f:ec:97:
                    71:7d:57:3f:0e:42:b6:b9:76:ef:4e:58:ab:d7:ba:
                    40:6b:40:c4:68:6c:c0:77:a5:cc:36:3c:b9:cf:bb:
                    85:24:fd:e4:5b:48:f8:95:ef:40:d2:ba:49:c2:44:
                    51:67:c0:8b:73:fd:93:de:4c:56:e5:f7:26:6c:4c:
                    6b:ff:83:d3:26:3f:03:c9:32:54:f6:de:23:11:4f:
                    46:fa:da:59:b4:38:f0:f8:b1:0a:0c:a3:ed:0e:41:
                    28:8a:01:61:1f:47:e0:7d:36:80:fc:5a:a9:98:e6:
                    79:a9:67:f4:e5:1b:60:5c:cb:6d:ed:d6:66:f4:ac:
                    8a:f6:d2:be:ba:ca:ff:9f:6c:38:ce:9c:8e:da:47:
                    58:e2:66:57:41:fe:34:6b:fe:27:3f:06:e4:18:2c:
                    c5:05:77:51:05:74:f6:a3:61:01:59:ca:a8:b3:02:
                    3f:fd
                Exponent: 65537 (0x10001)
        X509v3 extensions:
            X509v3 Basic Constraints: 
                CA:FALSE
            X509v3 Subject Key Identifier: 
                80:99:B9:20:86:1C:33:D0:D6:D9:A2:0A:38:21:74:D6:A3:C6:07:19
            X509v3 Authority Key Identifier: 
                keyid:D2:25:1C:73:B6:C1:9D:28:88:18:4E:E0:0B:3E:47:97:D2:B2:5D:4A
                DirName:/CN=team349-net
                serial:35:F0:53:7E:92:E1:4C:5A:13:9A:5F:C9:48:8D:09:70:3B:AB:5A:42
            X509v3 Extended Key Usage: 
                TLS Web Server Authentication
            X509v3 Key Usage: 
                Digital Signature, Key Encipherment
            X509v3 Subject Alternative Name: 
                DNS:team349-server
    Signature Algorithm: sha256WithRSAEncryption
    Signature Value:
        71:3f:93:5d:c4:8a:75:ad:7b:62:99:7c:c9:9f:59:19:07:aa:
        83:33:9a:f7:79:cb:de:49:b0:ed:17:04:d5:8c:9f:ea:63:b4:
        fa:c6:70:21:c0:8f:8a:66:6c:7e:81:67:96:94:f5:d8:8e:3c:
        d8:82:e8:9b:ee:c5:c4:aa:01:b5:18:5d:b7:8c:65:3f:5c:48:
        c8:52:14:0a:bb:e1:c7:99:c9:b0:a2:7b:2f:f8:39:ab:51:ef:
        54:f0:1e:d8:17:92:ab:0d:f9:c7:b9:ef:7a:0d:b5:40:22:62:
        40:db:4b:6a:56:92:bd:67:31:4d:55:84:7f:36:ae:70:42:e0:
        5c:aa:8c:a0:1f:9b:55:12:1e:71:f2:7a:7b:ef:36:5d:35:07:
        6c:9b:83:f1:5f:5e:d7:da:2a:67:bc:13:9c:8b:42:23:a2:ba:
        be:c7:9f:39:21:3b:2a:23:69:35:3e:17:d2:47:df:e8:6a:63:
        5e:5c:e7:ab:a3:11:e3:bc:a0:40:19:c5:57:d7:2d:fb:b9:05:
        0e:d6:e8:da:09:9b:d0:bd:22:3c:35:97:6d:e5:b0:51:9e:53:
        44:a1:10:fa:7d:86:12:2e:93:cc:fe:89:a8:65:88:02:a1:d3:
        86:22:71:ce:c8:02:63:19:3c:2d:1c:64:8b:f7:d1:e5:b4:bd:
        4a:c9:42:d9
-----BEGIN CERTIFICATE-----
MIIDeDCCAmCgAwIBAgIRAIVidEa9trcfVoKd7Sw7lq4wDQYJKoZIhvcNAQELBQAw
FjEUMBIGA1UEAwwLdGVhbTM0OS1uZXQwHhcNMjMxMTAzMjA0NTM4WhcNMjYxMDE4
MjA0NTM4WjAZMRcwFQYDVQQDDA50ZWFtMzQ5LXNlcnZlcjCCASIwDQYJKoZIhvcN
AQEBBQADggEPADCCAQoCggEBAMCBbhLdPfavkKpwGZPtNoYK61Ocsy31YQVOl7k+
CnSY6X/uuCo7vyZnDwaNtIHBMV1u95Gl7e0mVQh30UEw7hNIllFtrZwTYblPVZmO
QvV8gZTV01gkH+yXcX1XPw5Ctrl2705Yq9e6QGtAxGhswHelzDY8uc+7hST95FtI
+JXvQNK6ScJEUWfAi3P9k95MVuX3JmxMa/+D0yY/A8kyVPbeIxFPRvraWbQ48Pix
Cgyj7Q5BKIoBYR9H4H02gPxaqZjmealn9OUbYFzLbe3WZvSsivbSvrrK/59sOM6c
jtpHWOJmV0H+NGv+Jz8G5BgsxQV3UQV09qNhAVnKqLMCP/0CAwEAAaOBvTCBujAJ
BgNVHRMEAjAAMB0GA1UdDgQWBBSAmbkghhwz0NbZogo4IXTWo8YHGTBRBgNVHSME
SjBIgBTSJRxztsGdKIgYTuALPkeX0rJdSqEapBgwFjEUMBIGA1UEAwwLdGVhbTM0
OS1uZXSCFDXwU36S4UxaE5pfyUiNCXA7q1pCMBMGA1UdJQQMMAoGCCsGAQUFBwMB
MAsGA1UdDwQEAwIFoDAZBgNVHREEEjAQgg50ZWFtMzQ5LXNlcnZlcjANBgkqhkiG
9w0BAQsFAAOCAQEAcT+TXcSKda17Ypl8yZ9ZGQeqgzOa93nL3kmw7RcE1Yyf6mO0
+sZwIcCPimZsfoFnlpT12I482ILom+7FxKoBtRhdt4xlP1xIyFIUCrvhx5nJsKJ7
L/g5q1HvVPAe2BeSqw35x7nveg21QCJiQNtLalaSvWcxTVWEfzaucELgXKqMoB+b
VRIecfJ6e+82XTUHbJuD8V9e19oqZ7wTnItCI6K6vsefOSE7KiNpNT4X0kff6Gpj
Xlznq6MR47ygQBnFV9ct+7kFDtbo2gmb0L0iPDWXbeWwUZ5TRKEQ+n2GEi6TzP6J
qGWIAqHThiJxzsgCYxk8LRxki/fR5bS9SslC2Q==
-----END CERTIFICATE-----
