Certificate:
    Data:
        Version: 3 (0x2)
        Serial Number:
            a2:f3:11:df:f6:f9:63:dc:7c:71:61:b5:bb:93:f8:5a
        Signature Algorithm: sha256WithRSAEncryption
        Issuer: CN=team349-net
        Validity
            Not Before: Nov  4 10:46:59 2023 GMT
            Not After : Oct 19 10:46:59 2026 GMT
        Subject: CN=team349-server
        Subject Public Key Info:
            Public Key Algorithm: rsaEncryption
                Public-Key: (2048 bit)
                Modulus:
                    00:b8:a3:a3:fa:9b:12:fc:57:75:6a:5e:f8:c3:2f:
                    8a:84:ef:11:20:65:1d:96:94:50:3a:a5:3a:b2:f9:
                    e3:23:8a:e5:8d:5e:7f:66:31:d2:cf:77:13:b9:5a:
                    7e:fc:72:83:83:b8:73:cb:52:06:50:85:c1:dc:59:
                    0d:0f:20:25:e8:f7:77:05:47:df:9f:04:aa:e7:32:
                    b2:cc:d5:71:0a:04:d7:be:81:04:4a:fd:52:0d:26:
                    d1:ef:44:ba:db:13:2f:dd:90:e3:3d:e5:6b:f2:0c:
                    d8:d3:b7:16:55:98:e1:d9:b5:be:0b:04:e1:05:69:
                    5a:39:5a:e9:72:d8:60:37:8e:82:85:17:c3:da:42:
                    70:64:12:a0:fa:58:39:14:40:2a:ec:d7:8e:b2:d9:
                    8e:2a:3f:c1:59:88:14:76:d8:56:41:3f:e4:57:3f:
                    11:be:38:b2:37:7b:62:e3:c3:d1:81:4e:0a:96:82:
                    ed:8f:ef:71:0b:a5:7e:b3:bd:c8:ff:c1:a1:01:40:
                    ea:5d:d3:e7:3a:79:5a:19:b1:74:9e:b5:cf:a9:3e:
                    53:8d:9c:31:93:48:d2:b6:d6:12:ad:61:47:99:9d:
                    9c:fc:ce:0c:30:a4:2b:92:e9:31:08:d2:ad:64:1d:
                    37:78:c0:fb:34:af:c9:84:38:32:ba:9b:d5:77:aa:
                    df:5f
                Exponent: 65537 (0x10001)
        X509v3 extensions:
            X509v3 Basic Constraints: 
                CA:FALSE
            X509v3 Subject Key Identifier: 
                E7:A6:8E:1D:B1:50:A2:A6:24:B7:AF:F0:88:5B:F4:6B:5F:A8:99:AA
            X509v3 Authority Key Identifier: 
                keyid:D2:6E:57:8A:C8:C4:E4:2B:4A:84:20:C9:05:B8:1E:99:BB:E4:81:F5
                DirName:/CN=team349-net
                serial:3D:0A:19:E0:CC:06:54:74:DD:0C:BE:A3:0A:90:95:D5:DA:FF:61:1E
            X509v3 Extended Key Usage: 
                TLS Web Server Authentication
            X509v3 Key Usage: 
                Digital Signature, Key Encipherment
            X509v3 Subject Alternative Name: 
                DNS:team349-server
    Signature Algorithm: sha256WithRSAEncryption
    Signature Value:
        25:53:0a:db:ac:9a:c4:fd:0b:88:a2:4b:2a:49:0c:f8:ae:63:
        f1:49:30:13:ba:26:ff:2b:d1:d5:a5:ed:ff:7f:14:31:9f:f5:
        e4:42:48:63:10:4a:38:7e:d5:24:7c:4a:0f:b3:a3:33:5c:ef:
        aa:72:92:c0:b6:60:bf:66:41:5a:1c:0f:d5:05:7f:35:37:dd:
        2f:96:9c:8e:46:01:c0:bb:e8:85:3f:55:a5:97:4d:00:24:89:
        19:cb:95:a0:a2:62:65:fd:c5:3d:ec:a8:5e:25:04:6e:da:65:
        fe:3d:b6:a6:5a:cc:15:ef:6c:6e:88:b3:7d:38:07:67:82:a3:
        88:25:77:7e:07:dd:4a:5a:b1:39:53:3c:25:5f:ec:6f:fc:a4:
        b1:2d:d8:4c:fc:a4:b1:42:59:79:c5:d6:ca:01:c6:e9:dd:ca:
        34:21:2b:2a:3e:d5:0f:1d:76:1f:06:5b:51:f6:5f:56:ad:b0:
        ac:20:ea:59:bf:f4:e1:d0:c3:d4:8a:bb:d7:7f:66:80:5f:18:
        f6:8e:f6:8a:8e:48:6b:22:8d:46:29:9c:d5:9d:8a:f8:d3:f6:
        d2:3f:d4:4d:1d:9f:35:75:c0:2e:9d:35:0c:f6:10:6d:a8:c3:
        1c:d4:dd:5f:c8:99:5a:e8:24:cf:34:44:c7:99:5f:cb:ae:1c:
        df:af:e9:e4
-----BEGIN CERTIFICATE-----
MIIDeDCCAmCgAwIBAgIRAKLzEd/2+WPcfHFhtbuT+FowDQYJKoZIhvcNAQELBQAw
FjEUMBIGA1UEAwwLdGVhbTM0OS1uZXQwHhcNMjMxMTA0MTA0NjU5WhcNMjYxMDE5
MTA0NjU5WjAZMRcwFQYDVQQDDA50ZWFtMzQ5LXNlcnZlcjCCASIwDQYJKoZIhvcN
AQEBBQADggEPADCCAQoCggEBALijo/qbEvxXdWpe+MMvioTvESBlHZaUUDqlOrL5
4yOK5Y1ef2Yx0s93E7lafvxyg4O4c8tSBlCFwdxZDQ8gJej3dwVH358EqucysszV
cQoE176BBEr9Ug0m0e9EutsTL92Q4z3la/IM2NO3FlWY4dm1vgsE4QVpWjla6XLY
YDeOgoUXw9pCcGQSoPpYORRAKuzXjrLZjio/wVmIFHbYVkE/5Fc/Eb44sjd7YuPD
0YFOCpaC7Y/vcQulfrO9yP/BoQFA6l3T5zp5WhmxdJ61z6k+U42cMZNI0rbWEq1h
R5mdnPzODDCkK5LpMQjSrWQdN3jA+zSvyYQ4Mrqb1Xeq318CAwEAAaOBvTCBujAJ
BgNVHRMEAjAAMB0GA1UdDgQWBBTnpo4dsVCipiS3r/CIW/RrX6iZqjBRBgNVHSME
SjBIgBTSbleKyMTkK0qEIMkFuB6Zu+SB9aEapBgwFjEUMBIGA1UEAwwLdGVhbTM0
OS1uZXSCFD0KGeDMBlR03Qy+owqQldXa/2EeMBMGA1UdJQQMMAoGCCsGAQUFBwMB
MAsGA1UdDwQEAwIFoDAZBgNVHREEEjAQgg50ZWFtMzQ5LXNlcnZlcjANBgkqhkiG
9w0BAQsFAAOCAQEAJVMK26yaxP0LiKJLKkkM+K5j8UkwE7om/yvR1aXt/38UMZ/1
5EJIYxBKOH7VJHxKD7OjM1zvqnKSwLZgv2ZBWhwP1QV/NTfdL5acjkYBwLvohT9V
pZdNACSJGcuVoKJiZf3FPeyoXiUEbtpl/j22plrMFe9sboizfTgHZ4KjiCV3fgfd
SlqxOVM8JV/sb/yksS3YTPyksUJZecXWygHG6d3KNCErKj7VDx12HwZbUfZfVq2w
rCDqWb/04dDD1Iq7139mgF8Y9o72io5IayKNRimc1Z2K+NP20j/UTR2fNXXALp01
DPYQbajDHNTdX8iZWugkzzREx5lfy64c36/p5A==
-----END CERTIFICATE-----
