Certificate:
    Data:
        Version: 3 (0x2)
        Serial Number:
            cb:68:40:50:4a:c6:cd:92:9a:41:a8:6a:15:51:45:73
        Signature Algorithm: sha256WithRSAEncryption
        Issuer: CN=team349-net
        Validity
            Not Before: Nov  4 11:35:11 2023 GMT
            Not After : Oct 19 11:35:11 2026 GMT
        Subject: CN=team349-server
        Subject Public Key Info:
            Public Key Algorithm: rsaEncryption
                Public-Key: (2048 bit)
                Modulus:
                    00:92:77:f1:2b:44:8e:1c:e2:42:3b:dd:72:d8:4d:
                    c5:a2:5e:37:f1:a8:85:fe:95:37:71:5f:cc:5f:51:
                    c1:88:93:3a:61:4c:6e:fb:16:98:6d:2b:2c:cc:b1:
                    4c:26:1c:c0:6b:c0:ca:c1:21:37:b1:0a:65:08:32:
                    b2:0a:e5:9f:06:b0:a1:89:67:44:b9:c6:09:74:dc:
                    a4:d3:f1:d8:5b:e1:ce:2d:b0:57:97:29:bf:c1:4b:
                    df:b3:4e:a2:e7:ec:01:71:c1:3e:79:ba:51:f6:7b:
                    9f:e6:13:48:59:1a:c3:5c:ce:98:5a:dd:72:d1:0f:
                    c8:7e:5b:f2:47:e6:20:7d:41:75:4a:97:e6:e7:ad:
                    e7:df:3e:55:d7:56:9b:d9:cc:17:57:4c:08:8f:90:
                    f4:8d:e4:57:a9:0f:dd:4a:a1:0e:14:b2:c2:5e:bd:
                    54:ad:2b:07:e0:f0:cf:55:ff:39:8a:1b:6d:eb:78:
                    37:39:3a:66:fe:eb:49:b3:a3:24:65:23:5f:bb:d5:
                    61:87:69:5d:00:56:29:19:6a:e3:2a:40:8d:13:2a:
                    24:2c:88:9f:d1:29:85:9a:11:17:6d:02:20:fb:78:
                    8d:54:ed:01:62:15:cd:e4:bb:5f:48:d0:a1:07:a4:
                    28:77:d9:86:7c:1e:d6:fd:2b:7b:76:21:a1:b0:60:
                    de:05
                Exponent: 65537 (0x10001)
        X509v3 extensions:
            X509v3 Basic Constraints: 
                CA:FALSE
            X509v3 Subject Key Identifier: 
                C6:49:95:3E:81:B3:48:91:77:BC:5E:76:FB:84:0D:FB:EE:DE:4C:20
            X509v3 Authority Key Identifier: 
                keyid:C9:41:5E:FF:46:83:A7:1C:67:84:93:23:F9:FB:42:67:FD:D6:E2:6F
                DirName:/CN=team349-net
                serial:71:4D:7D:07:6E:32:74:E7:45:DE:9E:63:43:FB:DB:A0:7C:EC:43:CD
            X509v3 Extended Key Usage: 
                TLS Web Server Authentication
            X509v3 Key Usage: 
                Digital Signature, Key Encipherment
            X509v3 Subject Alternative Name: 
                DNS:team349-server
    Signature Algorithm: sha256WithRSAEncryption
    Signature Value:
        ad:af:c3:81:bc:d3:39:17:c1:91:59:8d:6a:55:8c:64:96:b8:
        80:0f:5e:67:6e:25:02:59:4a:fc:ae:44:65:32:29:50:dd:a4:
        f2:f9:e8:cb:58:be:8d:50:bf:1d:10:90:cb:d6:df:21:d8:3f:
        9c:ec:13:2d:0b:5e:65:24:e4:d6:4a:68:4b:f1:97:60:31:d6:
        eb:3c:a6:11:a1:f4:2e:0e:d4:a7:fd:2f:96:61:c5:91:b4:9b:
        9d:37:b6:66:1e:b2:16:67:47:d7:01:74:3f:02:df:39:ed:af:
        45:4f:16:74:c7:94:80:19:f1:71:b1:a5:84:52:da:65:82:9a:
        60:99:c7:d5:f2:eb:f1:b5:5a:36:a2:ce:de:21:4f:3e:54:dd:
        b8:4c:8c:1a:5c:3c:fb:0f:9f:15:6f:84:10:24:5b:35:ab:1e:
        0e:e0:46:6c:b9:30:0a:be:48:17:f8:0f:11:9a:f0:60:bb:c0:
        c0:19:fa:bb:d2:07:05:a2:2b:cc:7c:7a:e5:ea:93:0c:fc:de:
        ea:50:bc:ef:b1:8e:36:74:3a:4c:3f:0e:bd:bc:ba:04:28:08:
        d0:b0:c3:6f:83:86:d5:5c:cc:81:14:01:58:e7:af:86:15:b1:
        09:47:b2:82:5c:73:f1:20:be:01:fd:1c:d5:9a:f0:af:a7:cf:
        fa:8f:c1:98
-----BEGIN CERTIFICATE-----
MIIDeDCCAmCgAwIBAgIRAMtoQFBKxs2SmkGoahVRRXMwDQYJKoZIhvcNAQELBQAw
FjEUMBIGA1UEAwwLdGVhbTM0OS1uZXQwHhcNMjMxMTA0MTEzNTExWhcNMjYxMDE5
MTEzNTExWjAZMRcwFQYDVQQDDA50ZWFtMzQ5LXNlcnZlcjCCASIwDQYJKoZIhvcN
AQEBBQADggEPADCCAQoCggEBAJJ38StEjhziQjvdcthNxaJeN/Gohf6VN3FfzF9R
wYiTOmFMbvsWmG0rLMyxTCYcwGvAysEhN7EKZQgysgrlnwawoYlnRLnGCXTcpNPx
2Fvhzi2wV5cpv8FL37NOoufsAXHBPnm6UfZ7n+YTSFkaw1zOmFrdctEPyH5b8kfm
IH1BdUqX5uet598+VddWm9nMF1dMCI+Q9I3kV6kP3UqhDhSywl69VK0rB+Dwz1X/
OYobbet4Nzk6Zv7rSbOjJGUjX7vVYYdpXQBWKRlq4ypAjRMqJCyIn9EphZoRF20C
IPt4jVTtAWIVzeS7X0jQoQekKHfZhnwe1v0re3YhobBg3gUCAwEAAaOBvTCBujAJ
BgNVHRMEAjAAMB0GA1UdDgQWBBTGSZU+gbNIkXe8Xnb7hA377t5MIDBRBgNVHSME
SjBIgBTJQV7/RoOnHGeEkyP5+0Jn/dbib6EapBgwFjEUMBIGA1UEAwwLdGVhbTM0
OS1uZXSCFHFNfQduMnTnRd6eY0P726B87EPNMBMGA1UdJQQMMAoGCCsGAQUFBwMB
MAsGA1UdDwQEAwIFoDAZBgNVHREEEjAQgg50ZWFtMzQ5LXNlcnZlcjANBgkqhkiG
9w0BAQsFAAOCAQEAra/DgbzTORfBkVmNalWMZJa4gA9eZ24lAllK/K5EZTIpUN2k
8vnoy1i+jVC/HRCQy9bfIdg/nOwTLQteZSTk1kpoS/GXYDHW6zymEaH0Lg7Up/0v
lmHFkbSbnTe2Zh6yFmdH1wF0PwLfOe2vRU8WdMeUgBnxcbGlhFLaZYKaYJnH1fLr
8bVaNqLO3iFPPlTduEyMGlw8+w+fFW+EECRbNaseDuBGbLkwCr5IF/gPEZrwYLvA
wBn6u9IHBaIrzHx65eqTDPze6lC877GONnQ6TD8Ovby6BCgI0LDDb4OG1VzMgRQB
WOevhhWxCUeyglxz8SC+Af0c1Zrwr6fP+o/BmA==
-----END CERTIFICATE-----
