Certificate:
    Data:
        Version: 3 (0x2)
        Serial Number:
            d8:e4:ce:8a:23:91:12:66:11:67:77:ad:52:92:d9:37
        Signature Algorithm: sha256WithRSAEncryption
        Issuer: CN=team349-net
        Validity
            Not Before: Nov  4 11:35:10 2023 GMT
            Not After : Oct 19 11:35:10 2026 GMT
        Subject: CN=team349-client
        Subject Public Key Info:
            Public Key Algorithm: rsaEncryption
                Public-Key: (2048 bit)
                Modulus:
                    00:a4:da:ec:ad:b7:90:28:ea:80:ea:22:e2:21:06:
                    ed:9f:a0:dc:d9:01:4f:76:8f:3a:ff:36:9b:92:c9:
                    8b:92:00:1b:da:b3:16:40:cb:48:1b:31:ce:31:65:
                    21:08:0b:ae:7f:a4:f0:13:3c:e2:a6:d2:27:ab:81:
                    f3:c5:82:62:ec:f5:7d:de:c3:ce:20:93:ec:76:82:
                    79:6c:1c:9b:4d:9d:73:4b:b2:8d:e1:7f:0e:29:e5:
                    fd:5f:d8:15:6e:c0:37:a7:3f:2c:d5:cf:ad:3d:13:
                    3f:ca:d9:40:2a:2a:10:85:78:0d:20:27:b4:14:6c:
                    2b:6b:9a:4d:a5:08:ed:20:39:69:5a:4c:d7:4a:5b:
                    87:51:a7:94:ec:17:35:ff:c6:a6:80:43:4a:a1:f6:
                    54:f5:52:ac:95:9a:73:c5:bc:7a:bc:5f:c7:e4:c4:
                    52:f1:66:3c:e1:f0:65:74:c0:65:72:cb:b1:49:f1:
                    59:7e:03:30:18:df:4f:0b:14:90:48:54:71:0a:0c:
                    d0:35:94:b0:36:5c:89:ae:a6:18:aa:cc:4e:1b:3b:
                    d8:75:71:fb:ea:86:8f:b6:92:b2:de:b7:27:d4:0a:
                    6b:81:67:79:12:b3:be:db:83:6e:0a:f3:ed:e6:d7:
                    9a:1e:1a:49:b8:da:85:ac:70:07:c3:48:56:60:28:
                    24:11
                Exponent: 65537 (0x10001)
        X509v3 extensions:
            X509v3 Basic Constraints: 
                CA:FALSE
            X509v3 Subject Key Identifier: 
                9D:29:10:EB:E7:66:67:FF:21:14:80:6E:B3:4C:57:F9:1C:3E:A7:AD
            X509v3 Authority Key Identifier: 
                keyid:C9:41:5E:FF:46:83:A7:1C:67:84:93:23:F9:FB:42:67:FD:D6:E2:6F
                DirName:/CN=team349-net
                serial:71:4D:7D:07:6E:32:74:E7:45:DE:9E:63:43:FB:DB:A0:7C:EC:43:CD
            X509v3 Extended Key Usage: 
                TLS Web Client Authentication
            X509v3 Key Usage: 
                Digital Signature
    Signature Algorithm: sha256WithRSAEncryption
    Signature Value:
        22:a5:cc:92:3e:e3:bd:22:41:72:54:7f:a3:9f:d7:f6:0f:c1:
        e4:94:79:c2:70:d2:62:cd:28:2b:91:2b:7a:15:33:cc:39:1f:
        c1:89:c0:4d:71:79:bf:13:d7:d0:b5:69:af:8c:1c:85:a4:cc:
        f3:47:06:d8:91:67:d4:13:97:9c:32:c7:e9:72:11:f7:52:6e:
        35:7d:39:2a:32:22:72:fa:79:32:eb:0c:42:ae:93:b3:92:b6:
        32:e1:aa:8f:e6:a9:e9:68:04:1e:01:76:10:bf:9b:fe:40:19:
        92:e3:bc:48:48:49:46:0a:25:f7:db:a8:7b:4a:f9:a6:fb:ad:
        cd:51:a5:68:ba:51:46:20:5b:d1:d3:81:3c:e6:cf:7b:40:c1:
        5e:50:7a:ea:e1:49:ae:a3:56:8a:03:f5:42:58:09:f5:8a:74:
        82:2d:91:f1:3c:0f:f7:76:bf:30:6d:56:f4:4f:cb:dd:23:85:
        d8:e4:e1:84:dc:72:ff:2b:e6:18:d8:81:0e:55:cb:c6:4d:67:
        54:04:e1:29:80:04:b4:67:6b:59:28:a3:1b:1b:71:91:d3:df:
        5b:fa:89:93:f4:2d:4f:3a:45:3c:47:6c:6f:d5:80:98:74:f9:
        cc:6d:3a:4c:77:41:02:ac:f1:fa:96:62:e6:5f:9a:3f:b0:c8:
        53:93:80:0b
-----BEGIN CERTIFICATE-----
MIIDXTCCAkWgAwIBAgIRANjkzoojkRJmEWd3rVKS2TcwDQYJKoZIhvcNAQELBQAw
FjEUMBIGA1UEAwwLdGVhbTM0OS1uZXQwHhcNMjMxMTA0MTEzNTEwWhcNMjYxMDE5
MTEzNTEwWjAZMRcwFQYDVQQDDA50ZWFtMzQ5LWNsaWVudDCCASIwDQYJKoZIhvcN
AQEBBQADggEPADCCAQoCggEBAKTa7K23kCjqgOoi4iEG7Z+g3NkBT3aPOv82m5LJ
i5IAG9qzFkDLSBsxzjFlIQgLrn+k8BM84qbSJ6uB88WCYuz1fd7DziCT7HaCeWwc
m02dc0uyjeF/Dinl/V/YFW7AN6c/LNXPrT0TP8rZQCoqEIV4DSAntBRsK2uaTaUI
7SA5aVpM10pbh1GnlOwXNf/GpoBDSqH2VPVSrJWac8W8erxfx+TEUvFmPOHwZXTA
ZXLLsUnxWX4DMBjfTwsUkEhUcQoM0DWUsDZcia6mGKrMThs72HVx++qGj7aSst63
J9QKa4FneRKzvtuDbgrz7ebXmh4aSbjahaxwB8NIVmAoJBECAwEAAaOBojCBnzAJ
BgNVHRMEAjAAMB0GA1UdDgQWBBSdKRDr52Zn/yEUgG6zTFf5HD6nrTBRBgNVHSME
SjBIgBTJQV7/RoOnHGeEkyP5+0Jn/dbib6EapBgwFjEUMBIGA1UEAwwLdGVhbTM0
OS1uZXSCFHFNfQduMnTnRd6eY0P726B87EPNMBMGA1UdJQQMMAoGCCsGAQUFBwMC
MAsGA1UdDwQEAwIHgDANBgkqhkiG9w0BAQsFAAOCAQEAIqXMkj7jvSJBclR/o5/X
9g/B5JR5wnDSYs0oK5ErehUzzDkfwYnATXF5vxPX0LVpr4wchaTM80cG2JFn1BOX
nDLH6XIR91JuNX05KjIicvp5MusMQq6Ts5K2MuGqj+ap6WgEHgF2EL+b/kAZkuO8
SEhJRgol99uoe0r5pvutzVGlaLpRRiBb0dOBPObPe0DBXlB66uFJrqNWigP1QlgJ
9Yp0gi2R8TwP93a/MG1W9E/L3SOF2OThhNxy/yvmGNiBDlXLxk1nVAThKYAEtGdr
WSijGxtxkdPfW/qJk/QtTzpFPEdsb9WAmHT5zG06THdBAqzx+pZi5l+aP7DIU5OA
Cw==
-----END CERTIFICATE-----
