Certificate:
    Data:
        Version: 3 (0x2)
        Serial Number:
            49:3d:ab:98:b0:a7:c3:2b:c1:8d:c2:c8:39:c9:30:5e
        Signature Algorithm: sha256WithRSAEncryption
        Issuer: CN=team155-net
        Validity
            Not Before: Nov  4 11:30:38 2023 GMT
            Not After : Oct 19 11:30:38 2026 GMT
        Subject: CN=team155-server
        Subject Public Key Info:
            Public Key Algorithm: rsaEncryption
                Public-Key: (2048 bit)
                Modulus:
                    00:cd:3e:7e:20:16:ef:ff:e8:18:91:96:f2:c0:00:
                    78:ff:3c:88:b6:76:05:c7:ac:72:10:52:84:ec:b7:
                    b1:00:5c:26:28:6a:b6:bd:6b:9e:75:65:f1:a4:38:
                    2e:17:85:ea:e9:4d:91:71:74:8c:1a:59:30:68:8f:
                    95:d8:30:4e:fe:79:72:14:52:3a:c1:c6:4e:2b:00:
                    58:e5:b0:3f:6c:27:aa:f6:5d:55:d9:17:a2:28:8b:
                    fc:c2:f0:5f:0e:f7:c2:7a:7f:2d:b4:84:30:dd:0e:
                    04:09:65:59:ed:24:6d:d4:4a:3e:72:b9:ae:85:7d:
                    65:87:db:91:6e:69:32:e5:f7:de:f6:2b:bd:21:5e:
                    65:44:67:28:b8:b8:b3:70:32:0a:38:da:b0:47:8f:
                    75:03:75:a8:78:bd:22:70:ed:0d:f9:0a:05:37:b0:
                    d4:bc:d4:fe:55:f7:e4:ee:b2:34:43:f3:82:0c:6c:
                    91:aa:88:a8:cf:b4:d7:83:8d:aa:14:66:75:d7:4a:
                    2a:77:bd:65:25:93:eb:d5:05:85:b4:eb:a8:a7:c4:
                    8f:ca:b0:67:6a:7d:d0:00:52:93:1a:5e:99:45:a3:
                    b8:0b:42:cb:3c:90:b7:a8:9f:c9:74:0d:c3:a2:1f:
                    72:60:1e:bd:f2:f5:c9:0b:3f:12:81:24:de:60:c0:
                    fa:31
                Exponent: 65537 (0x10001)
        X509v3 extensions:
            X509v3 Basic Constraints: 
                CA:FALSE
            X509v3 Subject Key Identifier: 
                84:48:23:21:31:4A:BD:94:0B:C3:6C:F6:AF:9F:C6:35:AE:62:06:6E
            X509v3 Authority Key Identifier: 
                keyid:B9:4C:55:9F:A5:F2:E2:A8:C1:55:44:76:FB:6D:4F:CC:B6:FC:C3:65
                DirName:/CN=team155-net
                serial:2D:AA:2F:DE:05:5B:C8:AD:06:87:8A:86:50:97:F5:4D:34:3E:DD:45
            X509v3 Extended Key Usage: 
                TLS Web Server Authentication
            X509v3 Key Usage: 
                Digital Signature, Key Encipherment
            X509v3 Subject Alternative Name: 
                DNS:team155-server
    Signature Algorithm: sha256WithRSAEncryption
    Signature Value:
        99:6d:98:35:ed:61:f6:8a:84:fb:a5:8a:9c:89:e5:91:e6:c9:
        21:5e:fd:b5:42:1b:d7:1b:dc:f8:fc:92:ff:83:3e:22:12:c7:
        c7:d0:16:ff:dd:7c:83:fd:8b:64:5e:6d:24:f1:cf:3b:33:33:
        05:15:d5:d2:b2:6a:14:f1:f8:e9:07:3a:a8:dd:b5:f6:4d:8e:
        33:7f:f4:67:0d:3c:1a:19:2b:ef:6f:79:55:e3:e6:f5:ec:41:
        13:1e:0b:5d:8c:5e:fc:89:c2:11:c7:6c:a1:76:c6:33:e0:2e:
        8e:26:53:70:a7:04:66:dd:6a:3d:42:f3:f5:35:c1:dd:31:c3:
        e3:25:35:f2:49:8f:80:28:fc:3f:8d:95:dd:5c:e8:9e:fb:64:
        3f:53:8a:29:46:52:c1:ce:10:19:7f:86:d7:48:75:e6:c5:2a:
        39:f2:ea:58:41:5f:e2:65:07:67:57:7a:0a:76:5f:98:74:f8:
        d1:91:35:ee:be:e7:e6:1d:db:9c:78:24:27:96:e8:64:54:dd:
        38:70:fd:cd:53:33:df:c5:9f:9c:f1:32:85:15:c9:be:c0:fd:
        d6:93:b2:ef:e4:18:19:59:52:c5:a8:88:b8:4b:fb:d6:38:7d:
        be:92:39:c9:df:f8:f4:76:a0:d8:dc:57:2d:40:01:97:e6:ae:
        8c:4a:b5:b9
-----BEGIN CERTIFICATE-----
MIIDdzCCAl+gAwIBAgIQST2rmLCnwyvBjcLIOckwXjANBgkqhkiG9w0BAQsFADAW
MRQwEgYDVQQDDAt0ZWFtMTU1LW5ldDAeFw0yMzExMDQxMTMwMzhaFw0yNjEwMTkx
MTMwMzhaMBkxFzAVBgNVBAMMDnRlYW0xNTUtc2VydmVyMIIBIjANBgkqhkiG9w0B
AQEFAAOCAQ8AMIIBCgKCAQEAzT5+IBbv/+gYkZbywAB4/zyItnYFx6xyEFKE7Lex
AFwmKGq2vWuedWXxpDguF4Xq6U2RcXSMGlkwaI+V2DBO/nlyFFI6wcZOKwBY5bA/
bCeq9l1V2ReiKIv8wvBfDvfCen8ttIQw3Q4ECWVZ7SRt1Eo+crmuhX1lh9uRbmky
5ffe9iu9IV5lRGcouLizcDIKONqwR491A3WoeL0icO0N+QoFN7DUvNT+Vffk7rI0
Q/OCDGyRqoioz7TXg42qFGZ110oqd71lJZPr1QWFtOuop8SPyrBnan3QAFKTGl6Z
RaO4C0LLPJC3qJ/JdA3Doh9yYB698vXJCz8SgSTeYMD6MQIDAQABo4G9MIG6MAkG
A1UdEwQCMAAwHQYDVR0OBBYEFIRIIyExSr2UC8Ns9q+fxjWuYgZuMFEGA1UdIwRK
MEiAFLlMVZ+l8uKowVVEdvttT8y2/MNloRqkGDAWMRQwEgYDVQQDDAt0ZWFtMTU1
LW5ldIIULaov3gVbyK0Gh4qGUJf1TTQ+3UUwEwYDVR0lBAwwCgYIKwYBBQUHAwEw
CwYDVR0PBAQDAgWgMBkGA1UdEQQSMBCCDnRlYW0xNTUtc2VydmVyMA0GCSqGSIb3
DQEBCwUAA4IBAQCZbZg17WH2ioT7pYqcieWR5skhXv21QhvXG9z4/JL/gz4iEsfH
0Bb/3XyD/YtkXm0k8c87MzMFFdXSsmoU8fjpBzqo3bX2TY4zf/RnDTwaGSvvb3lV
4+b17EETHgtdjF78icIRx2yhdsYz4C6OJlNwpwRm3Wo9QvP1NcHdMcPjJTXySY+A
KPw/jZXdXOie+2Q/U4opRlLBzhAZf4bXSHXmxSo58upYQV/iZQdnV3oKdl+YdPjR
kTXuvufmHduceCQnluhkVN04cP3NUzPfxZ+c8TKFFcm+wP3Wk7Lv5BgZWVLFqIi4
S/vWOH2+kjnJ3/j0dqDY3FctQAGX5q6MSrW5
-----END CERTIFICATE-----
