Certificate:
    Data:
        Version: 3 (0x2)
        Serial Number:
            56:8f:33:4d:0c:b2:c8:2b:9a:5e:54:84:41:be:63:f6
        Signature Algorithm: sha256WithRSAEncryption
        Issuer: CN=team155-net
        Validity
            Not Before: Nov  4 10:43:25 2023 GMT
            Not After : Oct 19 10:43:25 2026 GMT
        Subject: CN=team155-client
        Subject Public Key Info:
            Public Key Algorithm: rsaEncryption
                Public-Key: (2048 bit)
                Modulus:
                    00:a6:6c:a0:68:6e:92:7d:25:4e:09:68:1e:c1:a3:
                    eb:6a:2f:5f:95:cf:4b:93:0b:61:18:31:02:4c:6b:
                    3d:57:c7:97:57:e3:ca:b7:d7:8a:fa:81:85:c4:d1:
                    77:19:e3:f8:f7:e9:71:ae:5c:02:7a:77:c1:8e:7d:
                    be:07:4f:83:9c:67:f6:18:20:9c:49:d4:f4:c8:29:
                    50:01:f5:bb:b3:cd:4a:04:d7:99:21:6a:01:61:e2:
                    4c:fe:fe:4a:f3:8b:4f:71:fe:fa:91:7e:0a:f2:71:
                    19:e0:ad:88:fe:bc:7a:2b:17:f9:e6:51:68:78:2c:
                    a7:7e:ae:e1:ad:0a:45:9a:8c:91:e1:ce:93:67:35:
                    79:74:46:01:30:38:8a:cd:a5:24:73:d7:4b:05:1d:
                    a1:49:90:94:f1:12:42:91:ea:f3:a6:5a:3e:ba:69:
                    be:8e:2e:7b:a3:ec:1f:6a:1a:6c:45:25:19:2d:8d:
                    63:11:fc:39:3e:04:31:95:9c:d7:7a:e8:27:53:2a:
                    36:48:98:c5:4e:9f:e7:89:6d:c5:33:13:08:02:ed:
                    e2:66:81:f3:77:af:19:b6:ba:29:01:92:3e:26:24:
                    3a:d8:d2:06:3b:d6:73:48:ae:08:15:5b:37:38:a5:
                    61:e8:be:c0:a1:85:49:64:d5:b2:05:98:b8:25:1f:
                    59:09
                Exponent: 65537 (0x10001)
        X509v3 extensions:
            X509v3 Basic Constraints: 
                CA:FALSE
            X509v3 Subject Key Identifier: 
                56:CB:9B:E3:84:AE:7E:DC:DC:FB:CE:23:CC:F2:8A:89:0B:23:87:DA
            X509v3 Authority Key Identifier: 
                keyid:7A:4F:EB:65:92:2F:34:89:8E:62:99:C7:AA:78:E9:8A:62:6E:CB:CA
                DirName:/CN=team155-net
                serial:2F:50:BB:E7:B8:4E:3E:0D:E9:B6:D2:0A:F9:7F:42:C6:5E:64:82:12
            X509v3 Extended Key Usage: 
                TLS Web Client Authentication
            X509v3 Key Usage: 
                Digital Signature
    Signature Algorithm: sha256WithRSAEncryption
    Signature Value:
        0c:60:d6:15:ce:1b:e5:25:54:74:4f:4d:2e:b8:2c:12:3b:37:
        4b:5a:11:f5:dd:03:f8:fc:76:39:36:b4:27:4d:f5:0a:94:91:
        c5:84:ea:1f:1e:43:62:50:94:ff:6b:33:04:8e:e7:08:67:c2:
        53:c8:43:50:e3:53:49:9b:e2:da:fd:35:a4:a1:db:a3:67:4f:
        f0:28:de:90:c2:f4:c5:e8:26:a5:6c:f8:f6:a2:da:57:f0:0a:
        e9:8b:24:f4:b5:20:3b:a4:c8:fd:c7:eb:8e:2a:5d:10:b6:3c:
        b6:4b:b4:7c:d5:90:79:9d:a8:fa:a1:c0:97:aa:27:88:81:bf:
        1d:ca:10:eb:0d:98:52:06:1d:dd:0e:09:20:7d:ca:ec:bd:5f:
        9a:f0:3a:7e:96:f8:ec:17:66:75:6a:fe:1f:ee:c1:a3:52:8f:
        71:d0:cc:5a:c5:be:52:a1:d0:1b:15:36:a6:95:59:a6:b0:91:
        6c:b8:71:64:8c:4b:96:ce:f2:41:d0:bc:d6:55:98:3c:81:0e:
        ec:80:d5:a8:cc:da:87:a4:cb:d6:ce:65:03:e3:b1:92:c4:c3:
        26:58:32:c7:81:88:41:be:8e:24:e0:c2:8a:77:d1:24:b0:bb:
        34:75:1c:8e:e9:31:23:17:f1:c9:eb:d5:c3:51:3b:c0:fc:98:
        ec:36:d1:6a
-----BEGIN CERTIFICATE-----
MIIDXDCCAkSgAwIBAgIQVo8zTQyyyCuaXlSEQb5j9jANBgkqhkiG9w0BAQsFADAW
MRQwEgYDVQQDDAt0ZWFtMTU1LW5ldDAeFw0yMzExMDQxMDQzMjVaFw0yNjEwMTkx
MDQzMjVaMBkxFzAVBgNVBAMMDnRlYW0xNTUtY2xpZW50MIIBIjANBgkqhkiG9w0B
AQEFAAOCAQ8AMIIBCgKCAQEApmygaG6SfSVOCWgewaPrai9flc9LkwthGDECTGs9
V8eXV+PKt9eK+oGFxNF3GeP49+lxrlwCenfBjn2+B0+DnGf2GCCcSdT0yClQAfW7
s81KBNeZIWoBYeJM/v5K84tPcf76kX4K8nEZ4K2I/rx6Kxf55lFoeCynfq7hrQpF
moyR4c6TZzV5dEYBMDiKzaUkc9dLBR2hSZCU8RJCkerzplo+umm+ji57o+wfahps
RSUZLY1jEfw5PgQxlZzXeugnUyo2SJjFTp/niW3FMxMIAu3iZoHzd68ZtropAZI+
JiQ62NIGO9ZzSK4IFVs3OKVh6L7AoYVJZNWyBZi4JR9ZCQIDAQABo4GiMIGfMAkG
A1UdEwQCMAAwHQYDVR0OBBYEFFbLm+OErn7c3PvOI8zyiokLI4faMFEGA1UdIwRK
MEiAFHpP62WSLzSJjmKZx6p46YpibsvKoRqkGDAWMRQwEgYDVQQDDAt0ZWFtMTU1
LW5ldIIUL1C757hOPg3pttIK+X9Cxl5kghIwEwYDVR0lBAwwCgYIKwYBBQUHAwIw
CwYDVR0PBAQDAgeAMA0GCSqGSIb3DQEBCwUAA4IBAQAMYNYVzhvlJVR0T00uuCwS
OzdLWhH13QP4/HY5NrQnTfUKlJHFhOofHkNiUJT/azMEjucIZ8JTyENQ41NJm+La
/TWkodujZ0/wKN6QwvTF6CalbPj2otpX8ArpiyT0tSA7pMj9x+uOKl0Qtjy2S7R8
1ZB5naj6ocCXqieIgb8dyhDrDZhSBh3dDgkgfcrsvV+a8Dp+lvjsF2Z1av4f7sGj
Uo9x0Mxaxb5SodAbFTamlVmmsJFsuHFkjEuWzvJB0LzWVZg8gQ7sgNWozNqHpMvW
zmUD47GSxMMmWDLHgYhBvo4k4MKKd9EksLs0dRyO6TEjF/HJ69XDUTvA/JjsNtFq
-----END CERTIFICATE-----
