Certificate:
    Data:
        Version: 3 (0x2)
        Serial Number:
            d0:f1:f3:93:42:cb:a4:5d:ff:83:35:bb:10:84:4f:0d
        Signature Algorithm: sha256WithRSAEncryption
        Issuer: CN=team155-net
        Validity
            Not Before: Nov  4 10:43:25 2023 GMT
            Not After : Oct 19 10:43:25 2026 GMT
        Subject: CN=team155-server
        Subject Public Key Info:
            Public Key Algorithm: rsaEncryption
                Public-Key: (2048 bit)
                Modulus:
                    00:ea:c6:96:81:5e:e4:92:0d:45:6b:df:b6:06:b9:
                    06:f0:fa:23:ad:94:af:4e:c0:73:f7:da:32:7c:12:
                    2e:88:d7:94:6b:4d:28:03:58:15:f8:d0:22:6d:d8:
                    76:25:9f:3f:79:1a:c2:5d:7b:a0:2b:b5:89:92:f4:
                    7c:6e:67:74:e6:7f:76:69:9e:da:77:6a:d7:c5:71:
                    25:34:8a:a2:96:67:36:61:dd:91:ef:86:14:0a:ee:
                    47:e5:36:de:eb:66:c5:67:3c:8b:f2:10:9d:22:6e:
                    e8:a2:a5:1b:a3:e7:98:35:ec:47:9b:83:35:55:c3:
                    38:75:58:7b:26:b8:23:47:bc:60:aa:5b:d0:84:59:
                    90:2d:35:de:3b:e0:5a:11:87:78:de:cc:d0:dd:cc:
                    38:15:fe:63:eb:bc:bc:7d:38:88:70:e8:fe:db:2d:
                    68:07:37:d0:44:83:13:b7:fc:14:48:c6:ca:4a:19:
                    b7:8d:a3:3b:11:32:1f:bc:6f:72:72:ce:f6:c3:2f:
                    46:89:d0:4d:06:5c:81:9d:2b:b0:b0:77:06:93:bc:
                    28:da:ab:cd:c9:60:ca:10:b5:6a:38:83:77:a1:04:
                    2f:90:de:d6:b6:31:6d:be:08:cb:7d:a7:d2:fd:21:
                    4a:e7:e4:f7:b9:5f:80:c1:35:e8:bd:8f:01:c9:60:
                    52:05
                Exponent: 65537 (0x10001)
        X509v3 extensions:
            X509v3 Basic Constraints: 
                CA:FALSE
            X509v3 Subject Key Identifier: 
                6A:94:B2:C9:2E:9F:56:E3:47:2E:5A:F1:7A:20:CE:0C:ED:15:ED:3F
            X509v3 Authority Key Identifier: 
                keyid:7A:4F:EB:65:92:2F:34:89:8E:62:99:C7:AA:78:E9:8A:62:6E:CB:CA
                DirName:/CN=team155-net
                serial:2F:50:BB:E7:B8:4E:3E:0D:E9:B6:D2:0A:F9:7F:42:C6:5E:64:82:12
            X509v3 Extended Key Usage: 
                TLS Web Server Authentication
            X509v3 Key Usage: 
                Digital Signature, Key Encipherment
            X509v3 Subject Alternative Name: 
                DNS:team155-server
    Signature Algorithm: sha256WithRSAEncryption
    Signature Value:
        8c:4d:4c:de:ff:24:fc:99:b7:b4:65:cc:28:2f:5d:7a:f0:46:
        75:94:5f:e8:01:00:98:88:f3:e5:c3:9b:4a:a4:8f:2c:8f:44:
        23:32:c2:cf:6a:0f:13:8c:5b:94:6b:a1:94:83:82:0f:2e:d1:
        fb:8a:f6:a0:c7:92:b6:8b:4e:a9:75:ae:20:3b:68:8b:58:8a:
        9c:d6:5d:ca:32:9d:3f:3f:02:bb:f0:81:9a:e5:fa:15:1e:bb:
        bb:a3:56:e2:5b:b0:f4:b3:28:00:12:ae:45:a0:20:26:ba:77:
        22:10:6b:01:a2:3e:24:8a:33:4f:21:6d:fb:8c:3d:85:cd:8c:
        0f:2d:a7:d4:fc:65:4a:23:85:14:3a:f7:19:fe:0c:1c:b6:b4:
        eb:b4:79:c1:ca:57:5c:73:a6:a1:8c:27:4a:96:d7:ea:47:0b:
        e1:a5:9e:c7:c1:d8:00:68:40:ad:86:13:c4:48:3f:39:41:cf:
        02:18:60:7f:e1:de:50:9e:24:15:40:a1:96:cd:50:d8:24:32:
        99:82:f1:61:05:bd:83:00:3e:87:75:b6:46:9c:33:11:d0:da:
        2c:5f:3b:e8:5d:dd:81:47:cf:ee:48:86:d0:29:30:65:d8:b0:
        fc:51:98:83:26:c7:d2:d6:62:0d:04:f8:a7:8d:71:6c:8b:21:
        24:f6:68:ac
-----BEGIN CERTIFICATE-----
MIIDeDCCAmCgAwIBAgIRANDx85NCy6Rd/4M1uxCETw0wDQYJKoZIhvcNAQELBQAw
FjEUMBIGA1UEAwwLdGVhbTE1NS1uZXQwHhcNMjMxMTA0MTA0MzI1WhcNMjYxMDE5
MTA0MzI1WjAZMRcwFQYDVQQDDA50ZWFtMTU1LXNlcnZlcjCCASIwDQYJKoZIhvcN
AQEBBQADggEPADCCAQoCggEBAOrGloFe5JINRWvftga5BvD6I62Ur07Ac/faMnwS
LojXlGtNKANYFfjQIm3YdiWfP3kawl17oCu1iZL0fG5ndOZ/dmme2ndq18VxJTSK
opZnNmHdke+GFAruR+U23utmxWc8i/IQnSJu6KKlG6PnmDXsR5uDNVXDOHVYeya4
I0e8YKpb0IRZkC013jvgWhGHeN7M0N3MOBX+Y+u8vH04iHDo/tstaAc30ESDE7f8
FEjGykoZt42jOxEyH7xvcnLO9sMvRonQTQZcgZ0rsLB3BpO8KNqrzclgyhC1ajiD
d6EEL5De1rYxbb4Iy32n0v0hSufk97lfgME16L2PAclgUgUCAwEAAaOBvTCBujAJ
BgNVHRMEAjAAMB0GA1UdDgQWBBRqlLLJLp9W40cuWvF6IM4M7RXtPzBRBgNVHSME
SjBIgBR6T+tlki80iY5imceqeOmKYm7LyqEapBgwFjEUMBIGA1UEAwwLdGVhbTE1
NS1uZXSCFC9Qu+e4Tj4N6bbSCvl/QsZeZIISMBMGA1UdJQQMMAoGCCsGAQUFBwMB
MAsGA1UdDwQEAwIFoDAZBgNVHREEEjAQgg50ZWFtMTU1LXNlcnZlcjANBgkqhkiG
9w0BAQsFAAOCAQEAjE1M3v8k/Jm3tGXMKC9devBGdZRf6AEAmIjz5cObSqSPLI9E
IzLCz2oPE4xblGuhlIOCDy7R+4r2oMeStotOqXWuIDtoi1iKnNZdyjKdPz8Cu/CB
muX6FR67u6NW4luw9LMoABKuRaAgJrp3IhBrAaI+JIozTyFt+4w9hc2MDy2n1Pxl
SiOFFDr3Gf4MHLa067R5wcpXXHOmoYwnSpbX6kcL4aWex8HYAGhArYYTxEg/OUHP
Ahhgf+HeUJ4kFUChls1Q2CQymYLxYQW9gwA+h3W2RpwzEdDaLF876F3dgUfP7kiG
0CkwZdiw/FGYgybH0tZiDQT4p41xbIshJPZorA==
-----END CERTIFICATE-----
