Certificate:
    Data:
        Version: 3 (0x2)
        Serial Number:
            10:ed:d8:95:a5:d2:fd:7a:ff:76:06:4d:93:11:74:6a
        Signature Algorithm: sha256WithRSAEncryption
        Issuer: CN=team262-net
        Validity
            Not Before: Nov  4 10:45:33 2023 GMT
            Not After : Oct 19 10:45:33 2026 GMT
        Subject: CN=team262-client
        Subject Public Key Info:
            Public Key Algorithm: rsaEncryption
                Public-Key: (2048 bit)
                Modulus:
                    00:e9:5f:11:62:d9:6b:82:b9:10:14:2e:6b:03:ba:
                    c3:e3:f9:9a:cb:a7:4f:30:8c:c6:a6:45:d2:c3:aa:
                    5c:d1:65:0d:06:a8:9c:7a:1d:4c:b0:41:0b:19:2e:
                    c6:0f:b2:35:e3:9a:a1:7a:f0:2b:44:f0:03:a3:7e:
                    bf:c5:7c:31:72:b8:fa:23:2b:cf:1a:f0:0f:c5:61:
                    d2:cf:ad:58:b1:d6:46:95:7a:34:fe:a8:33:29:fe:
                    8d:d3:e8:93:cf:ee:fc:23:0c:96:74:c8:35:e8:96:
                    d1:a6:30:0c:bd:50:ca:6a:ed:21:04:bb:5e:da:f2:
                    b2:b5:85:01:66:4e:51:57:17:a5:96:2c:e7:ee:18:
                    81:c0:f1:a9:b1:6e:f9:91:69:93:a9:ca:df:52:f5:
                    a9:a3:73:8a:0f:f1:88:9c:a0:ff:0a:19:64:41:65:
                    c9:4c:36:a6:c9:3c:41:06:16:01:a8:06:dd:ba:53:
                    21:4e:ca:d9:ad:9b:58:34:c4:d9:de:c7:8c:ac:5e:
                    41:ff:32:4a:08:c3:09:6a:f0:86:e0:57:8b:03:ff:
                    1c:bb:21:8f:0a:24:d2:07:97:a6:df:ce:aa:68:7f:
                    73:5a:81:02:6a:41:d8:bd:de:62:42:89:4e:a5:dd:
                    7d:b2:cc:46:95:72:36:02:08:79:25:59:4d:5e:4f:
                    14:c3
                Exponent: 65537 (0x10001)
        X509v3 extensions:
            X509v3 Basic Constraints: 
                CA:FALSE
            X509v3 Subject Key Identifier: 
                56:11:DF:41:F4:EB:12:1D:DF:A5:90:97:55:23:2E:FE:E5:92:1D:6E
            X509v3 Authority Key Identifier: 
                keyid:94:9B:0A:C2:FF:B0:41:34:05:8A:5B:E9:A0:59:C7:CC:7B:A0:57:F1
                DirName:/CN=team262-net
                serial:0C:9D:7E:B6:EB:E6:46:59:FF:03:01:E6:97:ED:75:66:B5:12:5F:0A
            X509v3 Extended Key Usage: 
                TLS Web Client Authentication
            X509v3 Key Usage: 
                Digital Signature
    Signature Algorithm: sha256WithRSAEncryption
    Signature Value:
        7d:67:25:32:06:23:e3:f5:1c:e4:52:65:0f:e1:c6:85:f0:f1:
        61:ba:6b:f3:19:a0:97:c2:37:bd:1c:cd:d8:de:86:32:1e:be:
        52:b2:a2:9f:f0:ad:a4:a8:63:01:20:1e:07:e4:a7:c0:a4:12:
        41:2a:26:55:46:29:c6:c3:a2:ec:12:12:f0:12:22:ed:ba:5c:
        14:41:43:18:38:23:9c:4f:43:c4:75:d8:2c:22:45:ed:36:82:
        74:fd:3b:fb:d6:cf:13:b8:3d:51:3f:f8:c0:ef:13:52:ef:15:
        72:4e:b7:4b:da:25:77:da:df:0a:29:56:d4:fd:ec:6f:ac:71:
        14:9d:66:58:61:7d:04:76:44:4e:b4:b9:9a:93:cf:1b:83:33:
        db:24:e5:99:e8:ec:37:4c:dd:60:36:22:17:a8:3c:d4:e3:bf:
        fa:39:01:6b:49:e3:22:c2:e8:c0:ce:b3:aa:fb:81:eb:2c:7b:
        09:84:89:69:4a:b5:63:cf:c5:d6:9a:52:44:df:78:9d:c3:79:
        78:37:48:0c:d5:4c:c2:99:2b:ff:47:37:cb:0e:0b:0e:7b:bb:
        fc:2f:a6:07:4a:92:aa:f7:18:4c:32:e0:e8:08:bc:7f:77:0d:
        8d:2e:e2:15:fb:03:59:c1:a7:e0:25:0c:b8:d0:4c:f0:c2:bd:
        9f:d2:49:59
-----BEGIN CERTIFICATE-----
MIIDXDCCAkSgAwIBAgIQEO3YlaXS/Xr/dgZNkxF0ajANBgkqhkiG9w0BAQsFADAW
MRQwEgYDVQQDDAt0ZWFtMjYyLW5ldDAeFw0yMzExMDQxMDQ1MzNaFw0yNjEwMTkx
MDQ1MzNaMBkxFzAVBgNVBAMMDnRlYW0yNjItY2xpZW50MIIBIjANBgkqhkiG9w0B
AQEFAAOCAQ8AMIIBCgKCAQEA6V8RYtlrgrkQFC5rA7rD4/may6dPMIzGpkXSw6pc
0WUNBqiceh1MsEELGS7GD7I145qhevArRPADo36/xXwxcrj6IyvPGvAPxWHSz61Y
sdZGlXo0/qgzKf6N0+iTz+78IwyWdMg16JbRpjAMvVDKau0hBLte2vKytYUBZk5R
Vxellizn7hiBwPGpsW75kWmTqcrfUvWpo3OKD/GInKD/ChlkQWXJTDamyTxBBhYB
qAbdulMhTsrZrZtYNMTZ3seMrF5B/zJKCMMJavCG4FeLA/8cuyGPCiTSB5em386q
aH9zWoECakHYvd5iQolOpd19ssxGlXI2Agh5JVlNXk8UwwIDAQABo4GiMIGfMAkG
A1UdEwQCMAAwHQYDVR0OBBYEFFYR30H06xId36WQl1UjLv7lkh1uMFEGA1UdIwRK
MEiAFJSbCsL/sEE0BYpb6aBZx8x7oFfxoRqkGDAWMRQwEgYDVQQDDAt0ZWFtMjYy
LW5ldIIUDJ1+tuvmRln/AwHml+11ZrUSXwowEwYDVR0lBAwwCgYIKwYBBQUHAwIw
CwYDVR0PBAQDAgeAMA0GCSqGSIb3DQEBCwUAA4IBAQB9ZyUyBiPj9RzkUmUP4caF
8PFhumvzGaCXwje9HM3Y3oYyHr5SsqKf8K2kqGMBIB4H5KfApBJBKiZVRinGw6Ls
EhLwEiLtulwUQUMYOCOcT0PEddgsIkXtNoJ0/Tv71s8TuD1RP/jA7xNS7xVyTrdL
2iV32t8KKVbU/exvrHEUnWZYYX0EdkROtLmak88bgzPbJOWZ6Ow3TN1gNiIXqDzU
47/6OQFrSeMiwujAzrOq+4HrLHsJhIlpSrVjz8XWmlJE33idw3l4N0gM1UzCmSv/
RzfLDgsOe7v8L6YHSpKq9xhMMuDoCLx/dw2NLuIV+wNZwafgJQy40Ezwwr2f0klZ
-----END CERTIFICATE-----
