Certificate:
    Data:
        Version: 3 (0x2)
        Serial Number:
            23:60:c5:62:5d:bc:a9:02:d8:9a:05:83:c2:14:5a:e7
        Signature Algorithm: sha256WithRSAEncryption
        Issuer: CN=team262-net
        Validity
            Not Before: Nov  4 10:45:33 2023 GMT
            Not After : Oct 19 10:45:33 2026 GMT
        Subject: CN=team262-server
        Subject Public Key Info:
            Public Key Algorithm: rsaEncryption
                Public-Key: (2048 bit)
                Modulus:
                    00:ea:6f:6e:6b:11:d7:bd:fd:47:3d:e8:16:01:01:
                    db:d4:e8:d4:9f:67:13:03:8c:38:08:15:da:8e:6a:
                    a1:cf:50:68:15:d9:be:da:c7:e9:24:08:09:3b:05:
                    e7:dc:4b:3c:aa:5e:1b:97:32:a6:53:bb:52:f6:80:
                    bb:b3:d0:fd:ee:c4:a3:16:fe:3e:8e:3a:c6:b9:b9:
                    2c:f2:ef:8e:19:7e:a4:52:46:13:ed:d7:d9:e2:5a:
                    0f:e6:23:2e:c4:60:5b:47:d2:ac:f0:ea:c4:c1:af:
                    8b:6a:a2:bf:25:14:7a:c8:dd:fc:26:87:30:b6:31:
                    11:66:61:8b:22:d3:da:c1:2b:bc:fd:e7:7e:4b:03:
                    8f:be:da:82:e6:40:dd:e3:ae:6a:21:2a:6b:e3:ee:
                    e2:d7:b6:11:d5:7c:0b:98:04:a5:6a:2c:9d:a4:d1:
                    3d:37:10:9c:a9:87:47:0a:69:bc:c8:1a:2d:f5:bb:
                    cb:d1:77:e3:ad:ea:f5:e6:7a:12:98:39:8a:4b:7f:
                    39:08:af:28:a8:6b:6c:e4:1f:be:ad:55:95:4b:60:
                    22:57:cf:1b:09:6b:77:b3:a6:0c:7e:8e:43:01:21:
                    91:e6:1c:5d:3d:f9:04:a0:91:52:3c:f4:14:b8:10:
                    aa:e5:c9:c2:4f:d5:45:0d:a8:f4:5d:ca:98:56:60:
                    4f:7d
                Exponent: 65537 (0x10001)
        X509v3 extensions:
            X509v3 Basic Constraints: 
                CA:FALSE
            X509v3 Subject Key Identifier: 
                AA:FB:B7:C9:08:9D:F8:00:8A:42:B9:2E:D8:D4:9A:A2:30:45:0F:82
            X509v3 Authority Key Identifier: 
                keyid:94:9B:0A:C2:FF:B0:41:34:05:8A:5B:E9:A0:59:C7:CC:7B:A0:57:F1
                DirName:/CN=team262-net
                serial:0C:9D:7E:B6:EB:E6:46:59:FF:03:01:E6:97:ED:75:66:B5:12:5F:0A
            X509v3 Extended Key Usage: 
                TLS Web Server Authentication
            X509v3 Key Usage: 
                Digital Signature, Key Encipherment
            X509v3 Subject Alternative Name: 
                DNS:team262-server
    Signature Algorithm: sha256WithRSAEncryption
    Signature Value:
        5d:67:cc:ca:af:a1:4b:96:8e:fa:4b:b9:22:64:5d:37:89:2d:
        57:ea:84:83:14:7d:90:23:42:15:60:9b:cd:92:ba:7a:b4:01:
        cb:4a:11:70:2e:60:e0:f6:fc:f2:0c:94:86:0b:10:f3:59:e2:
        12:97:2e:de:66:f8:b3:12:68:6c:42:a4:87:8a:86:aa:58:08:
        7c:b5:72:1e:9e:e5:fe:43:ec:41:98:38:11:4e:8f:c3:eb:dd:
        1b:94:a5:e4:2e:53:7b:d2:e3:45:c8:73:3d:8a:14:e1:20:d2:
        44:83:17:a1:80:df:6a:2f:79:4b:62:b0:33:03:b5:41:cf:e4:
        16:e5:8a:63:0e:7b:f4:dd:37:48:00:8e:8d:ab:81:fe:cc:90:
        3a:38:53:60:bc:01:a5:3c:c6:e6:68:5e:47:04:38:54:02:42:
        24:d3:ab:71:16:7c:6d:b9:b2:84:d1:7c:d7:90:2f:48:5c:d3:
        02:de:07:84:3c:c4:8a:12:03:49:9c:57:36:ed:36:4c:3f:d5:
        ee:26:b4:d7:94:ef:17:31:a4:07:9d:0c:04:a3:58:27:b8:36:
        2d:e0:2f:b4:d3:83:34:1b:41:e2:9c:6f:d3:24:94:2b:be:8a:
        7c:d4:53:cc:f9:97:fe:38:22:2f:a7:9f:04:6e:7a:75:a2:33:
        a3:4b:88:b2
-----BEGIN CERTIFICATE-----
MIIDdzCCAl+gAwIBAgIQI2DFYl28qQLYmgWDwhRa5zANBgkqhkiG9w0BAQsFADAW
MRQwEgYDVQQDDAt0ZWFtMjYyLW5ldDAeFw0yMzExMDQxMDQ1MzNaFw0yNjEwMTkx
MDQ1MzNaMBkxFzAVBgNVBAMMDnRlYW0yNjItc2VydmVyMIIBIjANBgkqhkiG9w0B
AQEFAAOCAQ8AMIIBCgKCAQEA6m9uaxHXvf1HPegWAQHb1OjUn2cTA4w4CBXajmqh
z1BoFdm+2sfpJAgJOwXn3Es8ql4blzKmU7tS9oC7s9D97sSjFv4+jjrGubks8u+O
GX6kUkYT7dfZ4loP5iMuxGBbR9Ks8OrEwa+LaqK/JRR6yN38JocwtjERZmGLItPa
wSu8/ed+SwOPvtqC5kDd465qISpr4+7i17YR1XwLmASlaiydpNE9NxCcqYdHCmm8
yBot9bvL0Xfjrer15noSmDmKS385CK8oqGts5B++rVWVS2AiV88bCWt3s6YMfo5D
ASGR5hxdPfkEoJFSPPQUuBCq5cnCT9VFDaj0XcqYVmBPfQIDAQABo4G9MIG6MAkG
A1UdEwQCMAAwHQYDVR0OBBYEFKr7t8kInfgAikK5LtjUmqIwRQ+CMFEGA1UdIwRK
MEiAFJSbCsL/sEE0BYpb6aBZx8x7oFfxoRqkGDAWMRQwEgYDVQQDDAt0ZWFtMjYy
LW5ldIIUDJ1+tuvmRln/AwHml+11ZrUSXwowEwYDVR0lBAwwCgYIKwYBBQUHAwEw
CwYDVR0PBAQDAgWgMBkGA1UdEQQSMBCCDnRlYW0yNjItc2VydmVyMA0GCSqGSIb3
DQEBCwUAA4IBAQBdZ8zKr6FLlo76S7kiZF03iS1X6oSDFH2QI0IVYJvNkrp6tAHL
ShFwLmDg9vzyDJSGCxDzWeISly7eZvizEmhsQqSHioaqWAh8tXIenuX+Q+xBmDgR
To/D690blKXkLlN70uNFyHM9ihThINJEgxehgN9qL3lLYrAzA7VBz+QW5YpjDnv0
3TdIAI6Nq4H+zJA6OFNgvAGlPMbmaF5HBDhUAkIk06txFnxtubKE0XzXkC9IXNMC
3geEPMSKEgNJnFc27TZMP9XuJrTXlO8XMaQHnQwEo1gnuDYt4C+004M0G0HinG/T
JJQrvop81FPM+Zf+OCIvp58Ebnp1ojOjS4iy
-----END CERTIFICATE-----
