Certificate:
    Data:
        Version: 3 (0x2)
        Serial Number:
            6b:8f:d6:a3:f1:24:7d:a3:dc:22:ae:f2:ca:a9:f3:3c
        Signature Algorithm: sha256WithRSAEncryption
        Issuer: CN=team262-net
        Validity
            Not Before: Nov  4 11:32:50 2023 GMT
            Not After : Oct 19 11:32:50 2026 GMT
        Subject: CN=team262-client
        Subject Public Key Info:
            Public Key Algorithm: rsaEncryption
                Public-Key: (2048 bit)
                Modulus:
                    00:d1:76:e5:8c:4a:24:2c:d6:23:e9:6a:39:f5:36:
                    86:dc:a2:a6:0d:1a:1a:27:d2:62:d3:fd:27:ca:c0:
                    3b:de:56:4a:ae:e4:81:83:80:1b:98:ad:ad:30:03:
                    4f:c5:8f:e2:bc:73:2e:68:70:a9:f7:9c:c8:a0:4f:
                    4d:82:e1:d5:2f:1c:be:17:82:c3:92:72:9d:dc:1b:
                    c2:2c:9f:8d:15:5b:fc:f0:75:d7:6c:db:8e:01:b9:
                    f3:87:ef:90:b2:df:3a:43:4a:7a:13:0d:f4:63:48:
                    db:ae:47:4b:4c:1b:4b:d8:2b:54:2c:48:43:8b:5e:
                    be:d2:c8:6d:78:16:35:39:32:48:f9:30:8a:97:30:
                    2c:2c:2c:6b:21:50:e7:f3:27:04:69:06:1b:a5:46:
                    3d:bf:d4:f9:f2:12:fa:3f:13:09:38:1d:43:9c:12:
                    80:f8:e9:46:e8:36:12:e6:72:c0:7c:ca:c9:52:cf:
                    0d:2a:e8:5a:33:39:45:23:f0:19:40:f5:92:50:5b:
                    c4:df:c0:74:68:99:b7:74:3c:4a:03:71:94:e3:c8:
                    e2:df:56:f9:33:93:32:5e:c3:7a:88:9d:23:6e:fd:
                    75:2e:e0:41:1c:c5:08:bd:eb:cc:1c:ac:3f:23:b2:
                    43:cd:dd:26:38:68:a6:9d:21:5e:fb:39:07:e0:2a:
                    96:47
                Exponent: 65537 (0x10001)
        X509v3 extensions:
            X509v3 Basic Constraints: 
                CA:FALSE
            X509v3 Subject Key Identifier: 
                3E:AA:1B:29:15:74:A8:AA:D9:26:7B:18:A7:C9:8C:97:D8:3B:BD:3B
            X509v3 Authority Key Identifier: 
                keyid:3F:DD:43:48:F8:DA:61:65:21:19:7E:E7:4D:6C:1C:BB:73:67:4A:ED
                DirName:/CN=team262-net
                serial:3C:C6:3C:BD:1D:AB:00:E9:26:05:14:4D:5F:47:6E:9C:B5:10:C2:D8
            X509v3 Extended Key Usage: 
                TLS Web Client Authentication
            X509v3 Key Usage: 
                Digital Signature
    Signature Algorithm: sha256WithRSAEncryption
    Signature Value:
        47:23:64:1f:80:4a:9a:3e:43:93:8e:36:2e:1d:ab:d9:b5:0d:
        ca:70:ce:f6:00:69:e1:e8:eb:a3:ca:8a:04:b7:37:3b:3d:89:
        6a:9d:8b:9a:bf:4b:61:a7:36:ae:ab:e1:70:28:cd:df:1d:c7:
        c2:5c:39:2a:32:e2:42:ff:90:70:72:38:33:af:70:7d:ba:4f:
        fa:ed:c1:09:2a:d1:9d:c3:22:d3:81:da:88:94:2d:ad:4b:1f:
        26:31:a6:57:fd:c9:86:a9:42:77:32:a3:73:50:69:a9:9a:35:
        f6:79:9e:68:ad:05:00:8f:fc:be:dd:97:7c:95:42:56:86:2e:
        24:4d:fb:9f:3f:cd:bb:ce:a3:31:15:35:e2:00:af:ed:2a:eb:
        d2:21:70:9a:71:ca:a4:93:63:47:9e:5c:f2:44:8c:f7:11:ab:
        e5:c9:a1:74:3a:43:85:7a:41:87:ca:64:5d:9d:05:2a:67:f3:
        42:36:29:60:0c:4c:cf:05:f0:0b:2d:0d:44:2c:c3:ba:d5:30:
        a1:2b:67:64:49:ad:78:16:7b:78:62:a1:24:5e:e0:ed:41:19:
        ae:a1:72:7c:5a:e1:d4:6b:29:fa:ce:fd:c5:f6:34:d0:c8:b7:
        7f:5f:49:b6:01:a8:50:b0:8f:e0:f3:f1:82:b9:3d:bb:63:af:
        a3:b0:18:ab
-----BEGIN CERTIFICATE-----
MIIDXDCCAkSgAwIBAgIQa4/Wo/EkfaPcIq7yyqnzPDANBgkqhkiG9w0BAQsFADAW
MRQwEgYDVQQDDAt0ZWFtMjYyLW5ldDAeFw0yMzExMDQxMTMyNTBaFw0yNjEwMTkx
MTMyNTBaMBkxFzAVBgNVBAMMDnRlYW0yNjItY2xpZW50MIIBIjANBgkqhkiG9w0B
AQEFAAOCAQ8AMIIBCgKCAQEA0XbljEokLNYj6Wo59TaG3KKmDRoaJ9Ji0/0nysA7
3lZKruSBg4AbmK2tMANPxY/ivHMuaHCp95zIoE9NguHVLxy+F4LDknKd3BvCLJ+N
FVv88HXXbNuOAbnzh++Qst86Q0p6Ew30Y0jbrkdLTBtL2CtULEhDi16+0shteBY1
OTJI+TCKlzAsLCxrIVDn8ycEaQYbpUY9v9T58hL6PxMJOB1DnBKA+OlG6DYS5nLA
fMrJUs8NKuhaMzlFI/AZQPWSUFvE38B0aJm3dDxKA3GU48ji31b5M5MyXsN6iJ0j
bv11LuBBHMUIvevMHKw/I7JDzd0mOGimnSFe+zkH4CqWRwIDAQABo4GiMIGfMAkG
A1UdEwQCMAAwHQYDVR0OBBYEFD6qGykVdKiq2SZ7GKfJjJfYO707MFEGA1UdIwRK
MEiAFD/dQ0j42mFlIRl+501sHLtzZ0rtoRqkGDAWMRQwEgYDVQQDDAt0ZWFtMjYy
LW5ldIIUPMY8vR2rAOkmBRRNX0dunLUQwtgwEwYDVR0lBAwwCgYIKwYBBQUHAwIw
CwYDVR0PBAQDAgeAMA0GCSqGSIb3DQEBCwUAA4IBAQBHI2QfgEqaPkOTjjYuHavZ
tQ3KcM72AGnh6OujyooEtzc7PYlqnYuav0thpzauq+FwKM3fHcfCXDkqMuJC/5Bw
cjgzr3B9uk/67cEJKtGdwyLTgdqIlC2tSx8mMaZX/cmGqUJ3MqNzUGmpmjX2eZ5o
rQUAj/y+3Zd8lUJWhi4kTfufP827zqMxFTXiAK/tKuvSIXCaccqkk2NHnlzyRIz3
EavlyaF0OkOFekGHymRdnQUqZ/NCNilgDEzPBfALLQ1ELMO61TChK2dkSa14Fnt4
YqEkXuDtQRmuoXJ8WuHUayn6zv3F9jTQyLd/X0m2AahQsI/g8/GCuT27Y6+jsBir
-----END CERTIFICATE-----
