Certificate:
    Data:
        Version: 3 (0x2)
        Serial Number:
            91:0a:ad:70:19:29:75:ca:7d:26:e2:e8:2b:a3:06:fb
        Signature Algorithm: sha256WithRSAEncryption
        Issuer: CN=team262-net
        Validity
            Not Before: Nov  3 20:44:06 2023 GMT
            Not After : Oct 18 20:44:06 2026 GMT
        Subject: CN=team262-client
        Subject Public Key Info:
            Public Key Algorithm: rsaEncryption
                Public-Key: (2048 bit)
                Modulus:
                    00:e6:68:a1:a0:77:45:55:32:0a:40:76:17:92:ee:
                    8a:aa:80:73:c2:af:73:78:d4:03:8c:ee:09:23:04:
                    62:41:11:0f:57:d6:40:2f:1f:c0:1f:ca:71:58:41:
                    18:1c:51:09:5c:d1:0f:b4:04:b2:5f:9b:a9:69:3e:
                    e4:aa:78:66:72:15:18:91:ce:a7:e1:ab:6d:fe:2b:
                    80:7c:14:ca:29:51:12:26:c5:ee:e1:95:de:5e:42:
                    99:ec:aa:40:a9:94:2a:bd:f7:25:a4:09:19:59:23:
                    81:1a:67:aa:bb:9f:13:7c:9d:92:67:fb:33:d7:d8:
                    53:a6:2c:a5:86:ff:f6:25:b7:a9:67:d5:89:9e:d3:
                    3d:29:3f:fb:c0:b6:9e:21:3f:3d:fc:68:3f:79:cb:
                    11:4f:93:ec:5f:86:70:e0:00:2d:27:9d:fe:a2:3f:
                    49:93:22:6a:80:72:6d:3d:f7:61:29:45:4d:1c:d5:
                    08:71:5d:2b:84:45:9c:e1:26:68:1e:c3:d0:cb:ae:
                    4a:52:1a:99:77:37:17:bb:a9:9b:ab:b2:65:9f:6f:
                    e2:b0:71:27:fc:c9:fc:db:07:1e:f4:39:53:45:dd:
                    c4:43:c6:1d:f2:8d:68:40:e9:9e:2c:bd:79:d2:f4:
                    bd:5c:82:99:25:92:11:4a:ec:9e:63:ee:19:d0:71:
                    a0:5b
                Exponent: 65537 (0x10001)
        X509v3 extensions:
            X509v3 Basic Constraints: 
                CA:FALSE
            X509v3 Subject Key Identifier: 
                DD:D7:6A:02:D6:0A:3F:CA:1A:34:83:19:23:AD:97:E9:CD:D5:FE:49
            X509v3 Authority Key Identifier: 
                keyid:B4:D2:B5:FD:CA:31:31:49:D0:B5:51:93:EE:13:D4:CF:02:CF:60:A6
                DirName:/CN=team262-net
                serial:18:EC:EF:9C:8F:A1:C4:B1:53:8F:65:10:25:37:0A:50:09:26:87:3D
            X509v3 Extended Key Usage: 
                TLS Web Client Authentication
            X509v3 Key Usage: 
                Digital Signature
    Signature Algorithm: sha256WithRSAEncryption
    Signature Value:
        4e:5b:86:e6:fc:48:cb:bb:0e:69:8c:5b:92:9b:c3:45:1a:c5:
        ba:9a:3c:0f:07:c7:c0:48:b8:db:af:6d:21:de:10:45:ff:98:
        82:77:7f:b1:1a:d3:44:a3:e6:81:84:b0:47:e5:01:0c:07:ec:
        f9:c1:f0:49:c7:a2:07:19:53:93:9c:2d:ca:94:3a:a5:f0:87:
        87:ae:fa:27:37:b6:70:26:1d:de:e8:06:f2:ff:a3:47:ff:cf:
        65:f0:e5:99:00:70:38:42:aa:de:7c:eb:94:91:f2:f9:d8:52:
        7e:2f:fb:40:b4:e9:05:e8:75:17:3e:6b:a1:75:f4:6f:b2:67:
        97:93:75:38:5b:18:86:3a:25:6a:75:92:53:ea:5f:ef:a2:ec:
        b6:53:b4:b4:c5:a0:36:a9:c7:d8:75:18:9c:3d:ce:c2:e6:fe:
        46:40:70:a9:e3:1c:29:0f:ab:07:27:46:c5:d9:1c:1f:66:bd:
        5c:f2:04:7a:e3:5e:e7:73:c7:aa:e5:f2:b5:a9:39:f5:bc:21:
        e4:39:95:d5:8a:81:b6:46:6f:e9:b5:c4:f2:ed:dc:2b:c0:0d:
        26:2b:2c:66:43:18:58:6a:86:09:e0:52:f2:0a:08:b9:78:37:
        3b:9c:ad:dc:f6:8c:74:3e:72:2f:3f:6c:df:83:bd:ff:87:7e:
        52:db:7b:b2
-----BEGIN CERTIFICATE-----
MIIDXTCCAkWgAwIBAgIRAJEKrXAZKXXKfSbi6CujBvswDQYJKoZIhvcNAQELBQAw
FjEUMBIGA1UEAwwLdGVhbTI2Mi1uZXQwHhcNMjMxMTAzMjA0NDA2WhcNMjYxMDE4
MjA0NDA2WjAZMRcwFQYDVQQDDA50ZWFtMjYyLWNsaWVudDCCASIwDQYJKoZIhvcN
AQEBBQADggEPADCCAQoCggEBAOZooaB3RVUyCkB2F5LuiqqAc8Kvc3jUA4zuCSME
YkERD1fWQC8fwB/KcVhBGBxRCVzRD7QEsl+bqWk+5Kp4ZnIVGJHOp+Grbf4rgHwU
yilREibF7uGV3l5CmeyqQKmUKr33JaQJGVkjgRpnqrufE3ydkmf7M9fYU6YspYb/
9iW3qWfViZ7TPSk/+8C2niE/PfxoP3nLEU+T7F+GcOAALSed/qI/SZMiaoBybT33
YSlFTRzVCHFdK4RFnOEmaB7D0MuuSlIamXc3F7upm6uyZZ9v4rBxJ/zJ/NsHHvQ5
U0XdxEPGHfKNaEDpniy9edL0vVyCmSWSEUrsnmPuGdBxoFsCAwEAAaOBojCBnzAJ
BgNVHRMEAjAAMB0GA1UdDgQWBBTd12oC1go/yho0gxkjrZfpzdX+STBRBgNVHSME
SjBIgBS00rX9yjExSdC1UZPuE9TPAs9gpqEapBgwFjEUMBIGA1UEAwwLdGVhbTI2
Mi1uZXSCFBjs75yPocSxU49lECU3ClAJJoc9MBMGA1UdJQQMMAoGCCsGAQUFBwMC
MAsGA1UdDwQEAwIHgDANBgkqhkiG9w0BAQsFAAOCAQEATluG5vxIy7sOaYxbkpvD
RRrFupo8DwfHwEi4269tId4QRf+Ygnd/sRrTRKPmgYSwR+UBDAfs+cHwSceiBxlT
k5wtypQ6pfCHh676Jze2cCYd3ugG8v+jR//PZfDlmQBwOEKq3nzrlJHy+dhSfi/7
QLTpBeh1Fz5roXX0b7Jnl5N1OFsYhjolanWSU+pf76LstlO0tMWgNqnH2HUYnD3O
wub+RkBwqeMcKQ+rBydGxdkcH2a9XPIEeuNe53PHquXytak59bwh5DmV1YqBtkZv
6bXE8u3cK8ANJissZkMYWGqGCeBS8goIuXg3O5yt3PaMdD5yLz9s34O9/4d+Utt7
sg==
-----END CERTIFICATE-----
