Certificate:
    Data:
        Version: 3 (0x2)
        Serial Number:
            c0:73:a3:1d:50:bd:38:75:05:70:47:f8:da:5a:d8:c3
        Signature Algorithm: sha256WithRSAEncryption
        Issuer: CN=team262-net
        Validity
            Not Before: Nov  4 11:32:50 2023 GMT
            Not After : Oct 19 11:32:50 2026 GMT
        Subject: CN=team262-server
        Subject Public Key Info:
            Public Key Algorithm: rsaEncryption
                Public-Key: (2048 bit)
                Modulus:
                    00:f5:7b:55:c2:56:44:d7:e4:7f:e7:d3:90:2c:23:
                    00:a4:c2:15:ef:52:c2:e9:39:66:87:af:97:fa:71:
                    b6:52:f7:3b:fe:7b:7e:5d:98:0f:f8:74:f9:9e:eb:
                    45:ae:09:52:1e:e4:44:37:ab:c6:c1:64:f1:3e:a9:
                    08:c2:82:af:62:73:d0:50:17:ac:02:38:41:c5:66:
                    c9:a7:01:c3:13:b8:69:78:1e:11:e1:44:f7:8f:3e:
                    4c:4c:5f:c9:f9:d5:d3:d0:b6:72:ca:df:d3:ba:dc:
                    f5:61:9a:30:0f:db:f1:90:64:82:5a:74:bc:76:60:
                    cb:70:79:c0:e3:8a:08:ff:49:b2:f4:61:db:4b:a6:
                    b5:7d:10:23:2f:0b:24:94:cb:41:a8:7a:37:21:96:
                    a4:3a:9f:50:c1:d8:e8:0b:42:27:c4:99:c6:66:17:
                    5e:db:28:1e:6b:70:34:91:3b:2a:16:a1:6f:f3:4b:
                    e3:79:fe:12:5e:dc:9f:f7:53:2f:c4:e8:bc:dd:34:
                    3c:05:15:ae:45:dd:04:04:d3:f5:51:43:9b:34:62:
                    99:c3:49:f7:aa:11:82:26:e8:0d:0d:28:4b:ec:74:
                    18:cf:e0:92:6e:38:3b:86:ec:a2:df:61:a6:2f:92:
                    0c:21:19:a5:63:af:ca:e4:a6:2c:9b:20:1d:6f:c2:
                    d0:93
                Exponent: 65537 (0x10001)
        X509v3 extensions:
            X509v3 Basic Constraints: 
                CA:FALSE
            X509v3 Subject Key Identifier: 
                B0:B5:C4:0D:85:3A:8F:BC:20:DA:33:58:D9:32:72:2B:88:69:E2:32
            X509v3 Authority Key Identifier: 
                keyid:3F:DD:43:48:F8:DA:61:65:21:19:7E:E7:4D:6C:1C:BB:73:67:4A:ED
                DirName:/CN=team262-net
                serial:3C:C6:3C:BD:1D:AB:00:E9:26:05:14:4D:5F:47:6E:9C:B5:10:C2:D8
            X509v3 Extended Key Usage: 
                TLS Web Server Authentication
            X509v3 Key Usage: 
                Digital Signature, Key Encipherment
            X509v3 Subject Alternative Name: 
                DNS:team262-server
    Signature Algorithm: sha256WithRSAEncryption
    Signature Value:
        41:d1:5c:fe:b2:34:3a:c3:57:d5:a2:93:56:e8:16:05:7d:f7:
        3f:23:e6:df:b0:9d:a5:d0:73:d2:53:74:67:3a:da:90:4e:ac:
        e0:12:57:ed:2c:a3:86:7f:e7:61:fc:38:53:d9:ae:7a:07:14:
        32:62:6e:1f:45:31:1f:fe:ce:51:22:24:76:99:bd:1e:0c:1a:
        84:48:04:ac:f7:40:0d:eb:73:6b:0d:6a:92:bc:54:f1:50:f7:
        d5:c5:91:44:55:60:54:1d:a2:40:3a:ff:6a:1b:6d:6a:aa:05:
        74:c7:a7:6e:e3:9f:54:ad:06:dc:85:99:a7:02:fe:54:fc:a1:
        c5:e3:51:63:8f:c1:c0:ec:7a:5b:3f:d3:48:4c:24:b5:2f:98:
        af:85:2d:1b:13:37:65:a5:02:3f:1a:4f:f1:29:8e:b1:21:dd:
        cf:08:c8:12:68:35:d4:04:37:c3:f4:22:dd:f7:c0:bc:a8:17:
        5c:1d:c0:66:d2:2f:e0:a1:a5:89:20:3f:8d:c0:ea:6c:a8:77:
        ec:b6:9f:5c:12:61:8d:43:e1:f4:8f:11:67:0a:e3:ef:a3:79:
        f8:fc:29:d6:13:6c:3b:8b:dd:a7:9f:13:e2:06:68:91:37:f0:
        1d:9d:ce:2f:fd:b1:16:89:29:db:89:3e:19:40:50:de:83:4e:
        ad:11:ac:f7
-----BEGIN CERTIFICATE-----
MIIDeDCCAmCgAwIBAgIRAMBzox1QvTh1BXBH+Npa2MMwDQYJKoZIhvcNAQELBQAw
FjEUMBIGA1UEAwwLdGVhbTI2Mi1uZXQwHhcNMjMxMTA0MTEzMjUwWhcNMjYxMDE5
MTEzMjUwWjAZMRcwFQYDVQQDDA50ZWFtMjYyLXNlcnZlcjCCASIwDQYJKoZIhvcN
AQEBBQADggEPADCCAQoCggEBAPV7VcJWRNfkf+fTkCwjAKTCFe9Swuk5Zoevl/px
tlL3O/57fl2YD/h0+Z7rRa4JUh7kRDerxsFk8T6pCMKCr2Jz0FAXrAI4QcVmyacB
wxO4aXgeEeFE948+TExfyfnV09C2csrf07rc9WGaMA/b8ZBkglp0vHZgy3B5wOOK
CP9JsvRh20umtX0QIy8LJJTLQah6NyGWpDqfUMHY6AtCJ8SZxmYXXtsoHmtwNJE7
Khahb/NL43n+El7cn/dTL8TovN00PAUVrkXdBATT9VFDmzRimcNJ96oRgiboDQ0o
S+x0GM/gkm44O4bsot9hpi+SDCEZpWOvyuSmLJsgHW/C0JMCAwEAAaOBvTCBujAJ
BgNVHRMEAjAAMB0GA1UdDgQWBBSwtcQNhTqPvCDaM1jZMnIriGniMjBRBgNVHSME
SjBIgBQ/3UNI+NphZSEZfudNbBy7c2dK7aEapBgwFjEUMBIGA1UEAwwLdGVhbTI2
Mi1uZXSCFDzGPL0dqwDpJgUUTV9Hbpy1EMLYMBMGA1UdJQQMMAoGCCsGAQUFBwMB
MAsGA1UdDwQEAwIFoDAZBgNVHREEEjAQgg50ZWFtMjYyLXNlcnZlcjANBgkqhkiG
9w0BAQsFAAOCAQEAQdFc/rI0OsNX1aKTVugWBX33PyPm37CdpdBz0lN0ZzrakE6s
4BJX7Syjhn/nYfw4U9muegcUMmJuH0UxH/7OUSIkdpm9HgwahEgErPdADetzaw1q
krxU8VD31cWRRFVgVB2iQDr/ahttaqoFdMenbuOfVK0G3IWZpwL+VPyhxeNRY4/B
wOx6Wz/TSEwktS+Yr4UtGxM3ZaUCPxpP8SmOsSHdzwjIEmg11AQ3w/Qi3ffAvKgX
XB3AZtIv4KGliSA/jcDqbKh37LafXBJhjUPh9I8RZwrj76N5+Pwp1hNsO4vdp58T
4gZokTfwHZ3OL/2xFokp24k+GUBQ3oNOrRGs9w==
-----END CERTIFICATE-----
