Certificate:
    Data:
        Version: 3 (0x2)
        Serial Number:
            8e:2e:1c:27:90:d7:ae:ea:b0:aa:8a:a6:bb:4b:17:2a
        Signature Algorithm: sha256WithRSAEncryption
        Issuer: CN=team472-net
        Validity
            Not Before: Nov  4 11:38:12 2023 GMT
            Not After : Oct 19 11:38:12 2026 GMT
        Subject: CN=team472-client
        Subject Public Key Info:
            Public Key Algorithm: rsaEncryption
                Public-Key: (2048 bit)
                Modulus:
                    00:96:12:c0:85:4b:4a:fd:b6:a5:a5:86:76:3b:74:
                    cd:7c:83:97:e6:15:00:e8:49:9c:e9:18:bf:6a:ce:
                    68:32:84:a1:44:53:db:4d:95:8e:3b:17:e0:7e:a5:
                    81:c4:29:3e:13:6f:d8:4d:ab:a0:24:91:7c:11:40:
                    a2:7f:79:45:56:24:94:d2:0e:ba:c6:89:01:cc:2a:
                    93:c4:a6:6d:6a:62:8f:2c:29:f4:89:e0:30:45:84:
                    c9:03:52:af:d9:1d:83:5a:30:d2:a1:04:e2:39:42:
                    9f:be:11:2e:cb:78:4a:f4:3a:e0:40:85:c1:04:2c:
                    33:ec:af:86:9e:a7:2f:f1:fe:d3:1e:ba:e7:26:7f:
                    80:4d:1b:98:98:94:8f:90:2c:e7:c4:ba:79:ab:ae:
                    26:a4:29:9d:26:60:0b:cc:59:f8:a3:df:ec:bd:56:
                    34:c6:13:bd:3e:51:2f:b9:7a:2d:26:de:2d:b4:e2:
                    90:56:d3:7f:e5:ec:1b:e3:1a:7e:ba:c7:83:4a:db:
                    11:e7:88:14:01:e0:a8:93:a5:19:69:aa:90:b7:71:
                    9a:5e:51:6b:91:95:5a:f2:9f:76:e9:c1:40:f7:05:
                    cc:27:47:24:4e:d0:ca:f7:5c:94:02:c4:0a:4a:ae:
                    86:9b:f6:8e:d8:14:e2:07:7a:f6:ef:56:f9:6d:fc:
                    ea:f3
                Exponent: 65537 (0x10001)
        X509v3 extensions:
            X509v3 Basic Constraints: 
                CA:FALSE
            X509v3 Subject Key Identifier: 
                90:6D:A7:54:DA:F0:F8:BD:81:D0:FA:C7:D5:25:B2:1E:AB:1E:4B:44
            X509v3 Authority Key Identifier: 
                keyid:CC:05:5F:EB:B7:38:7A:3C:6D:C6:9E:E1:41:A7:32:BD:6A:20:41:64
                DirName:/CN=team472-net
                serial:32:1A:B2:1B:90:D1:F9:C2:12:B9:92:F2:7E:A8:0A:B9:65:AB:43:39
            X509v3 Extended Key Usage: 
                TLS Web Client Authentication
            X509v3 Key Usage: 
                Digital Signature
    Signature Algorithm: sha256WithRSAEncryption
    Signature Value:
        07:c8:a8:5a:6b:f5:bd:a8:f2:39:6d:33:d6:0d:a4:7a:1a:d2:
        f0:ea:b9:73:cf:01:4c:36:aa:08:97:6a:41:b8:05:e4:c0:f9:
        17:e4:a8:af:3f:fa:e7:8a:33:ed:2f:53:d1:1c:23:b8:b8:e6:
        a1:87:44:04:80:5e:53:3d:3e:ba:a7:0d:70:a0:3c:85:a7:2c:
        52:dc:80:a9:ac:21:4e:01:34:f7:3c:34:d6:f4:3c:1c:50:3d:
        05:7b:bd:4b:4f:a4:bf:f1:78:40:a8:5f:e8:f1:82:45:ac:7f:
        18:ec:97:32:99:8e:7b:6d:a8:40:5b:28:76:62:d5:6f:aa:dd:
        5e:58:e3:0b:37:04:61:8a:2d:8e:80:6b:c6:6b:21:55:66:28:
        6f:7c:04:ea:1c:f7:4c:0a:ae:df:60:53:48:74:7f:a0:e8:d2:
        4c:2b:02:bf:75:0b:d4:fe:81:5f:29:5d:3b:00:01:ac:aa:19:
        89:09:3e:e8:c9:3b:9b:22:d1:85:d1:3f:99:2c:20:8e:71:b2:
        2e:3b:8e:ce:f1:c2:22:05:d5:85:f6:85:d0:55:6b:5e:42:f9:
        76:c1:2a:07:2b:c8:a0:76:75:8b:18:c4:9f:18:4a:d6:90:67:
        a1:17:e8:d6:e7:82:34:fb:61:4a:6f:32:20:75:2f:d1:31:13:
        e1:d2:d4:8d
-----BEGIN CERTIFICATE-----
MIIDXTCCAkWgAwIBAgIRAI4uHCeQ167qsKqKprtLFyowDQYJKoZIhvcNAQELBQAw
FjEUMBIGA1UEAwwLdGVhbTQ3Mi1uZXQwHhcNMjMxMTA0MTEzODEyWhcNMjYxMDE5
MTEzODEyWjAZMRcwFQYDVQQDDA50ZWFtNDcyLWNsaWVudDCCASIwDQYJKoZIhvcN
AQEBBQADggEPADCCAQoCggEBAJYSwIVLSv22paWGdjt0zXyDl+YVAOhJnOkYv2rO
aDKEoURT202VjjsX4H6lgcQpPhNv2E2roCSRfBFAon95RVYklNIOusaJAcwqk8Sm
bWpijywp9IngMEWEyQNSr9kdg1ow0qEE4jlCn74RLst4SvQ64ECFwQQsM+yvhp6n
L/H+0x665yZ/gE0bmJiUj5As58S6eauuJqQpnSZgC8xZ+KPf7L1WNMYTvT5RL7l6
LSbeLbTikFbTf+XsG+MafrrHg0rbEeeIFAHgqJOlGWmqkLdxml5Ra5GVWvKfdunB
QPcFzCdHJE7QyvdclALECkquhpv2jtgU4gd69u9W+W386vMCAwEAAaOBojCBnzAJ
BgNVHRMEAjAAMB0GA1UdDgQWBBSQbadU2vD4vYHQ+sfVJbIeqx5LRDBRBgNVHSME
SjBIgBTMBV/rtzh6PG3GnuFBpzK9aiBBZKEapBgwFjEUMBIGA1UEAwwLdGVhbTQ3
Mi1uZXSCFDIashuQ0fnCErmS8n6oCrllq0M5MBMGA1UdJQQMMAoGCCsGAQUFBwMC
MAsGA1UdDwQEAwIHgDANBgkqhkiG9w0BAQsFAAOCAQEAB8ioWmv1vajyOW0z1g2k
ehrS8Oq5c88BTDaqCJdqQbgF5MD5F+Sorz/654oz7S9T0RwjuLjmoYdEBIBeUz0+
uqcNcKA8hacsUtyAqawhTgE09zw01vQ8HFA9BXu9S0+kv/F4QKhf6PGCRax/GOyX
MpmOe22oQFsodmLVb6rdXljjCzcEYYotjoBrxmshVWYob3wE6hz3TAqu32BTSHR/
oOjSTCsCv3UL1P6BXyldOwABrKoZiQk+6Mk7myLRhdE/mSwgjnGyLjuOzvHCIgXV
hfaF0FVrXkL5dsEqByvIoHZ1ixjEnxhK1pBnoRfo1ueCNPthSm8yIHUv0TET4dLU
jQ==
-----END CERTIFICATE-----
