Certificate:
    Data:
        Version: 3 (0x2)
        Serial Number:
            90:90:1c:29:00:0a:67:be:8e:4a:95:66:ad:a6:05:64
        Signature Algorithm: sha256WithRSAEncryption
        Issuer: CN=team472-net
        Validity
            Not Before: Nov  4 11:38:12 2023 GMT
            Not After : Oct 19 11:38:12 2026 GMT
        Subject: CN=team472-server
        Subject Public Key Info:
            Public Key Algorithm: rsaEncryption
                Public-Key: (2048 bit)
                Modulus:
                    00:d4:a4:45:af:b6:a6:b0:7e:54:38:2d:b1:a4:15:
                    49:82:60:9c:2e:c0:9c:f3:1d:07:ba:3e:52:d6:f5:
                    a8:d9:fc:37:f6:ac:8f:fb:3e:a3:ae:61:a9:63:3c:
                    6d:ce:d4:a9:7f:19:83:dd:91:de:2a:75:79:5b:0c:
                    a6:b3:98:00:b8:af:43:1a:3b:fd:1a:db:e7:9a:d9:
                    fb:cb:5b:04:06:7a:0d:81:d1:5b:99:05:d0:69:c3:
                    4a:b4:62:79:6b:79:c1:4a:86:9c:8c:35:05:e2:1d:
                    71:dc:51:c4:1e:76:54:80:ba:11:1d:2b:2f:1a:56:
                    46:79:2f:48:e3:d3:23:53:4e:97:58:e2:cf:3a:2d:
                    37:00:b5:54:16:64:60:00:3f:97:a2:90:99:36:22:
                    2a:e1:8c:db:e1:75:6e:df:dc:44:3e:b0:3e:21:e6:
                    04:5f:b7:8c:fb:d6:81:bf:9f:00:91:b5:e5:b4:be:
                    4d:9a:ac:4b:9f:44:60:75:2b:be:af:0e:f8:37:4b:
                    7b:3b:11:f6:9d:31:6d:d2:96:a2:96:e2:55:1f:00:
                    58:c8:46:00:ed:8d:ec:97:ec:f7:2f:30:c8:b4:41:
                    ad:b2:9c:40:74:66:80:d2:e5:81:38:a5:7c:35:aa:
                    0f:51:c9:9d:f1:1f:24:ff:af:8e:a4:e2:20:dc:87:
                    45:23
                Exponent: 65537 (0x10001)
        X509v3 extensions:
            X509v3 Basic Constraints: 
                CA:FALSE
            X509v3 Subject Key Identifier: 
                26:7D:16:9D:B0:00:7F:4D:C6:84:46:BD:DF:59:D4:DB:32:84:F3:6B
            X509v3 Authority Key Identifier: 
                keyid:CC:05:5F:EB:B7:38:7A:3C:6D:C6:9E:E1:41:A7:32:BD:6A:20:41:64
                DirName:/CN=team472-net
                serial:32:1A:B2:1B:90:D1:F9:C2:12:B9:92:F2:7E:A8:0A:B9:65:AB:43:39
            X509v3 Extended Key Usage: 
                TLS Web Server Authentication
            X509v3 Key Usage: 
                Digital Signature, Key Encipherment
            X509v3 Subject Alternative Name: 
                DNS:team472-server
    Signature Algorithm: sha256WithRSAEncryption
    Signature Value:
        5d:ca:fe:a2:22:b9:77:70:7b:b8:98:91:8d:9c:31:04:99:53:
        c4:4a:98:f8:9c:79:bd:6c:1e:d8:2e:bb:1f:c7:6c:cc:92:e3:
        3d:8b:6c:46:fe:eb:a0:ca:3c:1e:1e:d2:be:04:86:ec:23:e0:
        0f:bc:31:44:02:18:16:e7:50:4b:b3:4f:73:7c:82:0a:70:aa:
        11:76:4a:55:d1:a8:42:67:f6:dd:51:ca:3f:52:ef:fb:fd:4c:
        57:43:b3:89:2f:36:ce:62:87:9b:e3:9e:da:f7:a9:33:a9:be:
        ef:15:d3:93:cd:32:0d:2a:4b:27:42:60:ff:3e:4d:57:b1:99:
        a6:4b:4c:78:67:e6:95:93:01:9a:90:d5:81:93:0b:bc:37:76:
        8e:c6:97:4e:3d:20:b3:65:d0:cb:e5:b6:ec:43:27:e3:e0:8a:
        5d:67:2f:f9:af:78:c7:96:37:dc:b5:6b:58:5c:74:4f:8a:d2:
        3a:1c:92:4d:3d:4e:2d:1c:45:44:af:f4:61:25:8e:e4:8a:9d:
        33:59:c0:20:27:c4:90:88:6c:c5:0d:b6:8a:2e:48:0c:f9:28:
        03:0b:06:45:ba:bf:63:40:b0:bc:78:1b:f6:48:4f:89:18:7b:
        dc:36:5c:7d:56:f3:db:0f:a5:9f:19:45:b5:22:39:11:0a:88:
        dc:10:82:ac
-----BEGIN CERTIFICATE-----
MIIDeDCCAmCgAwIBAgIRAJCQHCkACme+jkqVZq2mBWQwDQYJKoZIhvcNAQELBQAw
FjEUMBIGA1UEAwwLdGVhbTQ3Mi1uZXQwHhcNMjMxMTA0MTEzODEyWhcNMjYxMDE5
MTEzODEyWjAZMRcwFQYDVQQDDA50ZWFtNDcyLXNlcnZlcjCCASIwDQYJKoZIhvcN
AQEBBQADggEPADCCAQoCggEBANSkRa+2prB+VDgtsaQVSYJgnC7AnPMdB7o+Utb1
qNn8N/asj/s+o65hqWM8bc7UqX8Zg92R3ip1eVsMprOYALivQxo7/Rrb55rZ+8tb
BAZ6DYHRW5kF0GnDSrRieWt5wUqGnIw1BeIdcdxRxB52VIC6ER0rLxpWRnkvSOPT
I1NOl1jizzotNwC1VBZkYAA/l6KQmTYiKuGM2+F1bt/cRD6wPiHmBF+3jPvWgb+f
AJG15bS+TZqsS59EYHUrvq8O+DdLezsR9p0xbdKWopbiVR8AWMhGAO2N7Jfs9y8w
yLRBrbKcQHRmgNLlgTilfDWqD1HJnfEfJP+vjqTiINyHRSMCAwEAAaOBvTCBujAJ
BgNVHRMEAjAAMB0GA1UdDgQWBBQmfRadsAB/TcaERr3fWdTbMoTzazBRBgNVHSME
SjBIgBTMBV/rtzh6PG3GnuFBpzK9aiBBZKEapBgwFjEUMBIGA1UEAwwLdGVhbTQ3
Mi1uZXSCFDIashuQ0fnCErmS8n6oCrllq0M5MBMGA1UdJQQMMAoGCCsGAQUFBwMB
MAsGA1UdDwQEAwIFoDAZBgNVHREEEjAQgg50ZWFtNDcyLXNlcnZlcjANBgkqhkiG
9w0BAQsFAAOCAQEAXcr+oiK5d3B7uJiRjZwxBJlTxEqY+Jx5vWwe2C67H8dszJLj
PYtsRv7roMo8Hh7SvgSG7CPgD7wxRAIYFudQS7NPc3yCCnCqEXZKVdGoQmf23VHK
P1Lv+/1MV0OziS82zmKHm+Oe2vepM6m+7xXTk80yDSpLJ0Jg/z5NV7GZpktMeGfm
lZMBmpDVgZMLvDd2jsaXTj0gs2XQy+W27EMn4+CKXWcv+a94x5Y33LVrWFx0T4rS
OhySTT1OLRxFRK/0YSWO5IqdM1nAICfEkIhsxQ22ii5IDPkoAwsGRbq/Y0CwvHgb
9khPiRh73DZcfVbz2w+lnxlFtSI5EQqI3BCCrA==
-----END CERTIFICATE-----
