Certificate:
    Data:
        Version: 3 (0x2)
        Serial Number:
            a0:e4:3e:5a:ea:6b:6b:ce:3c:96:c1:d3:04:28:5d:0b
        Signature Algorithm: sha256WithRSAEncryption
        Issuer: CN=team472-net
        Validity
            Not Before: Nov  4 10:48:58 2023 GMT
            Not After : Oct 19 10:48:58 2026 GMT
        Subject: CN=team472-server
        Subject Public Key Info:
            Public Key Algorithm: rsaEncryption
                Public-Key: (2048 bit)
                Modulus:
                    00:86:dd:10:f2:78:6a:69:16:21:66:81:18:da:2f:
                    4f:03:ba:80:44:2d:3e:3a:b9:ef:1c:a2:91:49:b7:
                    2c:d9:39:05:d1:8c:f6:13:ae:74:dd:80:67:2e:d6:
                    15:f9:21:d5:e9:fb:67:f2:90:96:43:f5:83:3b:a0:
                    af:f7:10:dd:ed:79:a3:5b:d6:05:5f:d7:d3:ab:92:
                    25:35:77:0c:6d:e5:fb:94:9c:48:67:f2:9e:e6:f0:
                    d4:b0:f8:fc:29:02:cb:ed:54:dd:ee:a6:4b:0d:11:
                    f8:db:a6:15:05:82:52:fa:4b:6d:01:d3:40:b9:ad:
                    88:85:a1:66:6e:06:34:d6:2d:2b:2f:84:35:ea:b2:
                    94:18:62:23:69:e0:60:26:3f:20:11:15:01:2f:12:
                    ab:bc:ab:86:6c:f9:e5:fa:07:80:49:8e:e7:2d:54:
                    2e:49:24:19:e3:8d:f0:01:d1:26:b8:ea:92:8e:cb:
                    f2:1f:ff:4e:e1:da:aa:b9:1f:87:40:2c:be:56:b0:
                    0a:7e:4c:8a:2c:aa:4e:91:2f:5e:49:b8:80:95:b5:
                    b1:29:61:06:67:41:47:cf:88:59:02:25:58:0c:1b:
                    a1:2b:80:b2:fe:35:cd:fd:d1:bb:84:b2:13:28:2e:
                    f1:d0:ca:d9:48:64:e8:5d:6a:0c:9d:bc:dc:31:62:
                    38:d3
                Exponent: 65537 (0x10001)
        X509v3 extensions:
            X509v3 Basic Constraints: 
                CA:FALSE
            X509v3 Subject Key Identifier: 
                EB:FB:5B:37:92:43:1A:8A:A0:EA:18:C9:DA:85:95:2C:36:58:5A:FF
            X509v3 Authority Key Identifier: 
                keyid:D5:1C:3B:F4:2E:BB:B0:47:1E:94:F5:C4:4C:2A:20:13:9A:16:71:83
                DirName:/CN=team472-net
                serial:11:36:95:88:03:FF:70:2D:0E:AA:C4:AD:36:9C:F7:A8:AD:5D:17:C0
            X509v3 Extended Key Usage: 
                TLS Web Server Authentication
            X509v3 Key Usage: 
                Digital Signature, Key Encipherment
            X509v3 Subject Alternative Name: 
                DNS:team472-server
    Signature Algorithm: sha256WithRSAEncryption
    Signature Value:
        aa:88:94:bd:9e:6c:4f:62:4f:4a:c9:e9:a1:e3:94:48:7b:23:
        33:0e:cf:a1:1e:81:b7:57:b7:1c:eb:01:b2:1f:5c:c6:38:f7:
        b7:9d:2d:30:cc:0d:99:9c:ac:51:94:f3:fb:cc:24:2c:0e:fd:
        df:c1:2e:34:18:81:e3:ea:f2:07:5e:90:0d:70:29:85:e7:9e:
        c9:4e:9a:34:a8:26:45:fc:ff:4e:80:94:3d:a9:06:82:a4:4f:
        87:0a:40:64:1b:40:41:c2:27:40:b1:01:25:ce:77:0c:fc:18:
        01:5b:bc:80:f5:03:10:e1:bb:af:85:59:a6:bc:a7:75:28:cc:
        b7:99:66:35:3b:d5:84:3b:8b:22:c3:83:e9:6b:b6:8d:e6:aa:
        fb:ec:c2:86:b5:f7:cf:c7:f4:e6:0c:ee:ae:9c:ed:9d:b9:f0:
        3a:34:b4:12:d4:d3:6a:ee:3f:cc:8d:96:6e:69:b3:24:0e:98:
        dd:83:d2:5b:03:5d:79:b0:fa:2b:d9:be:1e:47:10:52:cb:30:
        fd:bd:06:e2:74:25:60:78:ed:d8:fd:dc:7f:b0:f8:8c:fb:b5:
        dd:9f:7c:61:a9:05:d0:c9:79:15:df:92:06:00:99:08:e1:ca:
        ac:e1:88:04:75:66:ce:3c:40:6f:40:73:5c:d4:7a:5d:a7:af:
        9a:ec:07:ff
-----BEGIN CERTIFICATE-----
MIIDeDCCAmCgAwIBAgIRAKDkPlrqa2vOPJbB0wQoXQswDQYJKoZIhvcNAQELBQAw
FjEUMBIGA1UEAwwLdGVhbTQ3Mi1uZXQwHhcNMjMxMTA0MTA0ODU4WhcNMjYxMDE5
MTA0ODU4WjAZMRcwFQYDVQQDDA50ZWFtNDcyLXNlcnZlcjCCASIwDQYJKoZIhvcN
AQEBBQADggEPADCCAQoCggEBAIbdEPJ4amkWIWaBGNovTwO6gEQtPjq57xyikUm3
LNk5BdGM9hOudN2AZy7WFfkh1en7Z/KQlkP1gzugr/cQ3e15o1vWBV/X06uSJTV3
DG3l+5ScSGfynubw1LD4/CkCy+1U3e6mSw0R+NumFQWCUvpLbQHTQLmtiIWhZm4G
NNYtKy+ENeqylBhiI2ngYCY/IBEVAS8Sq7yrhmz55foHgEmO5y1ULkkkGeON8AHR
Jrjqko7L8h//TuHaqrkfh0AsvlawCn5MiiyqTpEvXkm4gJW1sSlhBmdBR8+IWQIl
WAwboSuAsv41zf3Ru4SyEygu8dDK2Uhk6F1qDJ283DFiONMCAwEAAaOBvTCBujAJ
BgNVHRMEAjAAMB0GA1UdDgQWBBTr+1s3kkMaiqDqGMnahZUsNlha/zBRBgNVHSME
SjBIgBTVHDv0LruwRx6U9cRMKiATmhZxg6EapBgwFjEUMBIGA1UEAwwLdGVhbTQ3
Mi1uZXSCFBE2lYgD/3AtDqrErTac96itXRfAMBMGA1UdJQQMMAoGCCsGAQUFBwMB
MAsGA1UdDwQEAwIFoDAZBgNVHREEEjAQgg50ZWFtNDcyLXNlcnZlcjANBgkqhkiG
9w0BAQsFAAOCAQEAqoiUvZ5sT2JPSsnpoeOUSHsjMw7PoR6Bt1e3HOsBsh9cxjj3
t50tMMwNmZysUZTz+8wkLA7938EuNBiB4+ryB16QDXApheeeyU6aNKgmRfz/ToCU
PakGgqRPhwpAZBtAQcInQLEBJc53DPwYAVu8gPUDEOG7r4VZpryndSjMt5lmNTvV
hDuLIsOD6Wu2jeaq++zChrX3z8f05gzurpztnbnwOjS0EtTTau4/zI2WbmmzJA6Y
3YPSWwNdebD6K9m+HkcQUssw/b0G4nQlYHjt2P3cf7D4jPu13Z98YakF0Ml5Fd+S
BgCZCOHKrOGIBHVmzjxAb0BzXNR6XaevmuwH/w==
-----END CERTIFICATE-----
