Certificate:
    Data:
        Version: 3 (0x2)
        Serial Number:
            a6:6e:cd:57:e0:23:e0:53:fb:c4:b1:92:93:1f:d9:67
        Signature Algorithm: sha256WithRSAEncryption
        Issuer: CN=team472-net
        Validity
            Not Before: Nov  3 20:47:52 2023 GMT
            Not After : Oct 18 20:47:52 2026 GMT
        Subject: CN=team472-server
        Subject Public Key Info:
            Public Key Algorithm: rsaEncryption
                Public-Key: (2048 bit)
                Modulus:
                    00:d5:09:1e:6e:71:5a:5f:61:ed:aa:68:70:45:2b:
                    9b:14:73:99:95:7d:6b:03:6f:8e:a5:17:de:97:71:
                    79:32:5f:47:f8:f1:ed:e3:a1:64:ee:8a:ea:5a:17:
                    af:ba:44:e1:64:de:c8:ff:61:6a:c3:1d:f7:36:48:
                    b2:9d:02:c3:14:0a:b7:73:ef:45:86:08:41:5a:da:
                    41:98:01:c8:b2:fc:42:53:87:46:57:ba:ee:07:09:
                    ac:0e:41:f8:ec:d7:fb:37:a3:c1:93:c3:27:93:57:
                    0f:29:cd:6a:e9:c6:71:00:7d:50:e4:1e:df:5a:06:
                    3d:ef:ef:39:cb:4d:bc:2e:31:fc:50:6f:ae:b8:1f:
                    ea:fe:39:3b:fd:70:66:e1:05:f9:7d:5e:b0:a5:6f:
                    2a:ea:d0:3b:c3:e2:f3:76:de:52:0b:47:0b:7d:de:
                    94:5c:73:7a:06:f3:84:a9:d0:ec:4d:d9:61:0c:0c:
                    aa:6d:c6:bb:96:b6:1b:e9:da:1c:e6:d9:6c:b6:10:
                    99:20:d4:e6:01:9a:7c:cc:d3:42:5b:90:08:50:09:
                    24:52:30:1f:66:33:10:36:f8:aa:df:90:18:d7:31:
                    31:74:ee:99:ba:73:83:45:b5:24:d6:f1:71:af:67:
                    dc:7b:77:cd:9b:56:83:02:50:53:e0:b6:4c:0a:ef:
                    a8:25
                Exponent: 65537 (0x10001)
        X509v3 extensions:
            X509v3 Basic Constraints: 
                CA:FALSE
            X509v3 Subject Key Identifier: 
                D2:AC:AD:D2:28:37:8D:2D:9B:8F:43:85:3A:D0:95:D2:CE:AB:B1:BD
            X509v3 Authority Key Identifier: 
                keyid:94:96:D4:4D:0F:01:67:66:66:31:63:F1:D7:8A:7C:B6:82:FC:D1:FE
                DirName:/CN=team472-net
                serial:39:23:D2:2B:19:29:A8:78:EF:8A:58:65:CD:E2:3B:C5:81:BF:83:CC
            X509v3 Extended Key Usage: 
                TLS Web Server Authentication
            X509v3 Key Usage: 
                Digital Signature, Key Encipherment
            X509v3 Subject Alternative Name: 
                DNS:team472-server
    Signature Algorithm: sha256WithRSAEncryption
    Signature Value:
        0a:27:e0:45:4a:97:6f:0b:f3:c2:fe:78:fc:a9:10:25:c5:dc:
        88:73:02:83:76:1d:2f:8f:55:aa:fa:db:2f:fe:f7:db:8b:2a:
        68:e0:ab:59:73:42:2f:a1:46:4c:a0:e4:0b:2b:09:dd:c8:52:
        68:66:b8:79:f3:db:c9:0b:4f:6b:4b:87:56:0d:30:89:ff:a5:
        f0:cd:12:ad:d0:58:c1:82:92:d8:5f:ec:53:75:54:67:94:3d:
        f4:b8:52:f3:76:6b:4a:a3:e8:cf:1a:28:ba:c1:e3:0d:93:d9:
        78:c9:5b:3c:28:f8:5d:3e:4f:2b:84:86:83:63:c5:c5:57:de:
        6d:e2:6b:a9:38:5a:dc:87:72:c5:56:9b:1e:58:84:2c:62:d2:
        2e:55:43:2f:18:ec:72:f9:f4:c3:bd:a6:55:dd:fc:e5:77:a0:
        e6:ee:67:df:0c:c1:f5:38:76:c7:ad:2f:ac:95:ae:b6:ae:1d:
        cc:db:e3:46:3d:d1:81:75:f0:33:33:8a:50:86:00:f4:77:fe:
        df:bd:eb:e6:cb:aa:d4:98:48:98:07:9e:ad:ba:4c:9a:b0:ba:
        7b:4e:de:24:42:c5:2c:4d:5b:6a:e4:35:43:c1:f6:1b:f8:cc:
        fb:0b:da:60:59:5b:fe:c2:41:36:ed:dd:af:ee:48:c1:29:bb:
        e8:80:4c:e2
-----BEGIN CERTIFICATE-----
MIIDeDCCAmCgAwIBAgIRAKZuzVfgI+BT+8SxkpMf2WcwDQYJKoZIhvcNAQELBQAw
FjEUMBIGA1UEAwwLdGVhbTQ3Mi1uZXQwHhcNMjMxMTAzMjA0NzUyWhcNMjYxMDE4
MjA0NzUyWjAZMRcwFQYDVQQDDA50ZWFtNDcyLXNlcnZlcjCCASIwDQYJKoZIhvcN
AQEBBQADggEPADCCAQoCggEBANUJHm5xWl9h7apocEUrmxRzmZV9awNvjqUX3pdx
eTJfR/jx7eOhZO6K6loXr7pE4WTeyP9hasMd9zZIsp0CwxQKt3PvRYYIQVraQZgB
yLL8QlOHRle67gcJrA5B+OzX+zejwZPDJ5NXDynNaunGcQB9UOQe31oGPe/vOctN
vC4x/FBvrrgf6v45O/1wZuEF+X1esKVvKurQO8Pi83beUgtHC33elFxzegbzhKnQ
7E3ZYQwMqm3Gu5a2G+naHObZbLYQmSDU5gGafMzTQluQCFAJJFIwH2YzEDb4qt+Q
GNcxMXTumbpzg0W1JNbxca9n3Ht3zZtWgwJQU+C2TArvqCUCAwEAAaOBvTCBujAJ
BgNVHRMEAjAAMB0GA1UdDgQWBBTSrK3SKDeNLZuPQ4U60JXSzquxvTBRBgNVHSME
SjBIgBSUltRNDwFnZmYxY/HXiny2gvzR/qEapBgwFjEUMBIGA1UEAwwLdGVhbTQ3
Mi1uZXSCFDkj0isZKah474pYZc3iO8WBv4PMMBMGA1UdJQQMMAoGCCsGAQUFBwMB
MAsGA1UdDwQEAwIFoDAZBgNVHREEEjAQgg50ZWFtNDcyLXNlcnZlcjANBgkqhkiG
9w0BAQsFAAOCAQEACifgRUqXbwvzwv54/KkQJcXciHMCg3YdL49VqvrbL/7324sq
aOCrWXNCL6FGTKDkCysJ3chSaGa4efPbyQtPa0uHVg0wif+l8M0SrdBYwYKS2F/s
U3VUZ5Q99LhS83ZrSqPozxoousHjDZPZeMlbPCj4XT5PK4SGg2PFxVfebeJrqTha
3IdyxVabHliELGLSLlVDLxjscvn0w72mVd385Xeg5u5n3wzB9Th2x60vrJWutq4d
zNvjRj3RgXXwMzOKUIYA9Hf+373r5suq1JhImAeerbpMmrC6e07eJELFLE1bauQ1
Q8H2G/jM+wvaYFlb/sJBNu3dr+5IwSm76IBM4g==
-----END CERTIFICATE-----
