Certificate:
    Data:
        Version: 3 (0x2)
        Serial Number:
            41:6d:01:97:de:61:8c:5e:42:e4:6c:b3:74:6a:c4:d0
        Signature Algorithm: sha256WithRSAEncryption
        Issuer: CN=team324-net
        Validity
            Not Before: Nov  4 11:34:36 2023 GMT
            Not After : Oct 19 11:34:36 2026 GMT
        Subject: CN=team324-server
        Subject Public Key Info:
            Public Key Algorithm: rsaEncryption
                Public-Key: (2048 bit)
                Modulus:
                    00:bf:71:1d:36:53:44:05:e6:f6:81:7f:a8:98:4b:
                    fe:17:6d:99:92:b2:70:bf:a7:4c:48:d4:8a:14:50:
                    d4:3d:7d:4e:9c:69:d5:ba:c1:9d:c9:95:a8:91:ef:
                    de:f3:e6:60:17:25:60:b0:34:1f:f0:51:e8:66:3f:
                    1b:d9:5b:66:14:24:2f:fa:26:d9:39:7a:75:ce:80:
                    67:b5:6c:36:bc:d9:ad:b0:3c:78:49:02:a9:1a:9f:
                    b6:4b:9f:65:0d:46:0f:7a:52:16:53:77:42:6e:22:
                    9f:4d:04:4b:cf:27:67:11:33:96:23:5d:00:cc:e3:
                    00:ae:79:88:99:71:4d:83:10:b6:42:17:b0:2a:ba:
                    6e:90:ee:7d:f0:8c:a9:75:e4:44:60:01:76:a6:ac:
                    cb:ba:93:2f:bb:0e:cd:96:7d:b0:2d:8a:30:1a:a9:
                    eb:63:e3:d4:b3:3d:97:40:28:14:5a:0e:20:2f:97:
                    a0:ff:93:94:bb:b5:5e:2a:05:3f:d5:d4:d5:ca:63:
                    c4:d9:77:f0:37:6a:d2:1c:58:90:95:07:bb:e5:9e:
                    24:cf:93:1f:86:ea:af:d9:9d:93:77:ef:4f:f5:6c:
                    e9:c6:40:d6:63:01:73:be:8b:57:f7:3f:85:88:81:
                    e3:00:22:be:b4:bb:c8:52:db:92:67:79:48:fd:b7:
                    93:67
                Exponent: 65537 (0x10001)
        X509v3 extensions:
            X509v3 Basic Constraints: 
                CA:FALSE
            X509v3 Subject Key Identifier: 
                08:FD:BA:5C:C2:E0:EA:DC:EF:A1:A5:BD:66:0B:59:05:9E:90:7D:41
            X509v3 Authority Key Identifier: 
                keyid:8D:14:E2:6E:1B:28:D2:32:D4:DE:3F:60:EF:75:97:F1:14:2C:C8:46
                DirName:/CN=team324-net
                serial:16:22:34:EE:DC:2C:AD:FD:37:C9:B6:94:F3:41:F7:15:96:5E:3C:E4
            X509v3 Extended Key Usage: 
                TLS Web Server Authentication
            X509v3 Key Usage: 
                Digital Signature, Key Encipherment
            X509v3 Subject Alternative Name: 
                DNS:team324-server
    Signature Algorithm: sha256WithRSAEncryption
    Signature Value:
        9e:ae:34:c4:2b:91:b2:d6:4b:a2:34:0d:4c:69:3c:c0:95:54:
        23:c9:22:41:5f:be:06:c7:d8:8a:af:ef:fd:aa:22:49:9c:59:
        c2:37:ef:02:7f:15:c9:9d:65:05:aa:7d:72:02:91:57:ee:99:
        1c:94:e3:e5:ef:31:29:b5:f3:60:4e:8b:1d:67:26:a7:59:9f:
        8d:d9:df:3f:d5:1b:9f:4a:ca:dd:69:b5:1d:ba:a1:a9:ef:56:
        ac:28:5b:42:a8:7f:6f:82:12:cb:4e:c8:04:a6:ee:e4:24:87:
        f7:be:7f:2e:c2:d9:51:bd:17:43:3e:45:7f:37:4c:dd:b2:f5:
        00:4d:05:d5:e0:ca:99:87:5a:d3:24:ed:c9:90:f9:bf:83:a1:
        38:68:9a:06:f3:c1:d0:34:f9:4e:0f:0f:84:ca:26:4c:2c:93:
        cc:d3:35:2e:42:bf:93:cf:00:34:9c:88:97:a9:1a:1d:95:31:
        5a:76:e6:2f:01:4b:c8:89:bb:f8:38:6f:f0:b7:8c:c2:b2:cc:
        af:22:3b:78:79:34:b2:42:4f:7d:ce:70:56:38:03:2f:2d:b2:
        b4:cf:a6:57:ce:0f:5f:06:bb:79:e7:33:b4:fe:39:ba:cb:65:
        38:49:09:07:b6:a7:4e:37:74:0c:00:13:d7:f4:30:5b:48:86:
        f4:fc:bc:c0
-----BEGIN CERTIFICATE-----
MIIDdzCCAl+gAwIBAgIQQW0Bl95hjF5C5GyzdGrE0DANBgkqhkiG9w0BAQsFADAW
MRQwEgYDVQQDDAt0ZWFtMzI0LW5ldDAeFw0yMzExMDQxMTM0MzZaFw0yNjEwMTkx
MTM0MzZaMBkxFzAVBgNVBAMMDnRlYW0zMjQtc2VydmVyMIIBIjANBgkqhkiG9w0B
AQEFAAOCAQ8AMIIBCgKCAQEAv3EdNlNEBeb2gX+omEv+F22ZkrJwv6dMSNSKFFDU
PX1OnGnVusGdyZWoke/e8+ZgFyVgsDQf8FHoZj8b2VtmFCQv+ibZOXp1zoBntWw2
vNmtsDx4SQKpGp+2S59lDUYPelIWU3dCbiKfTQRLzydnETOWI10AzOMArnmImXFN
gxC2QhewKrpukO598IypdeREYAF2pqzLupMvuw7Nln2wLYowGqnrY+PUsz2XQCgU
Wg4gL5eg/5OUu7VeKgU/1dTVymPE2XfwN2rSHFiQlQe75Z4kz5Mfhuqv2Z2Td+9P
9WzpxkDWYwFzvotX9z+FiIHjACK+tLvIUtuSZ3lI/beTZwIDAQABo4G9MIG6MAkG
A1UdEwQCMAAwHQYDVR0OBBYEFAj9ulzC4Orc76GlvWYLWQWekH1BMFEGA1UdIwRK
MEiAFI0U4m4bKNIy1N4/YO91l/EULMhGoRqkGDAWMRQwEgYDVQQDDAt0ZWFtMzI0
LW5ldIIUFiI07twsrf03ybaU80H3FZZePOQwEwYDVR0lBAwwCgYIKwYBBQUHAwEw
CwYDVR0PBAQDAgWgMBkGA1UdEQQSMBCCDnRlYW0zMjQtc2VydmVyMA0GCSqGSIb3
DQEBCwUAA4IBAQCerjTEK5Gy1kuiNA1MaTzAlVQjySJBX74Gx9iKr+/9qiJJnFnC
N+8CfxXJnWUFqn1yApFX7pkclOPl7zEptfNgTosdZyanWZ+N2d8/1RufSsrdabUd
uqGp71asKFtCqH9vghLLTsgEpu7kJIf3vn8uwtlRvRdDPkV/N0zdsvUATQXV4MqZ
h1rTJO3JkPm/g6E4aJoG88HQNPlODw+EyiZMLJPM0zUuQr+TzwA0nIiXqRodlTFa
duYvAUvIibv4OG/wt4zCssyvIjt4eTSyQk99znBWOAMvLbK0z6ZXzg9fBrt55zO0
/jm6y2U4SQkHtqdON3QMABPX9DBbSIb0/LzA
-----END CERTIFICATE-----
