Certificate:
    Data:
        Version: 3 (0x2)
        Serial Number:
            96:78:5f:5c:6c:99:a2:47:f7:9d:3c:fe:9b:ab:0a:ed
        Signature Algorithm: sha256WithRSAEncryption
        Issuer: CN=team324-net
        Validity
            Not Before: Nov  4 10:46:32 2023 GMT
            Not After : Oct 19 10:46:32 2026 GMT
        Subject: CN=team324-client
        Subject Public Key Info:
            Public Key Algorithm: rsaEncryption
                Public-Key: (2048 bit)
                Modulus:
                    00:bf:c0:83:1d:98:49:7b:54:6d:3f:ef:2c:b4:91:
                    49:72:19:09:14:85:9d:48:b8:03:8c:40:84:11:88:
                    d8:c7:48:0d:8a:1c:ba:2f:21:09:cf:06:78:3f:af:
                    3d:4f:34:11:e6:80:8a:9a:df:b4:28:82:a5:f9:d5:
                    75:c4:ea:0c:fd:21:5f:cc:41:2b:ed:d7:aa:7f:10:
                    93:e4:9d:74:a4:60:2c:4f:aa:0b:73:47:bd:c8:8a:
                    06:63:f9:98:b3:b4:96:e2:85:1f:3e:67:65:1f:da:
                    99:93:3a:07:c1:a9:d3:41:91:c2:58:90:ab:c3:14:
                    e6:56:0a:00:45:a4:b4:34:ff:5e:46:fa:8c:74:4c:
                    24:0a:65:23:1e:51:55:d3:88:ba:82:7e:31:c2:89:
                    50:28:d0:8e:8c:71:01:35:87:b6:39:20:a9:23:54:
                    c6:77:25:88:f8:22:94:f1:7e:35:99:ba:b1:56:53:
                    b6:57:90:28:bb:95:77:fb:99:8f:e4:50:65:74:a9:
                    08:91:8d:e5:d3:21:73:ea:e5:7e:d1:74:6e:65:a3:
                    dd:e1:5f:af:f9:a0:e7:24:49:56:3c:26:05:6e:e6:
                    b9:09:9e:17:3b:d6:d9:2e:c0:b9:78:fd:44:27:4a:
                    bb:8b:1f:69:44:9e:90:27:52:42:a6:50:7d:f9:45:
                    fc:e3
                Exponent: 65537 (0x10001)
        X509v3 extensions:
            X509v3 Basic Constraints: 
                CA:FALSE
            X509v3 Subject Key Identifier: 
                35:AE:AC:D3:A1:F1:DF:42:74:49:F0:CF:EA:27:7F:A4:7E:D2:72:6F
            X509v3 Authority Key Identifier: 
                keyid:F6:F1:C0:B2:52:E1:CB:91:FB:7F:8E:15:D9:EA:91:6D:1E:F3:49:94
                DirName:/CN=team324-net
                serial:71:29:7F:86:E2:6B:3C:EB:62:DA:BE:38:99:DD:4A:B7:FB:5E:94:CD
            X509v3 Extended Key Usage: 
                TLS Web Client Authentication
            X509v3 Key Usage: 
                Digital Signature
    Signature Algorithm: sha256WithRSAEncryption
    Signature Value:
        31:fb:44:7b:fa:97:87:ba:23:d7:26:10:5f:2e:5a:eb:08:3d:
        cc:d3:34:d9:78:8c:21:01:0c:95:22:31:b9:a1:cb:87:d0:15:
        79:93:0b:77:0e:fe:bf:76:01:a7:4b:a5:42:c2:a7:89:44:66:
        67:63:a0:36:23:c5:d9:7a:43:46:7c:09:10:a3:7c:d5:db:84:
        38:0e:6d:36:00:a7:ca:58:7c:7e:7c:09:75:e5:d0:c8:28:aa:
        20:21:ac:d6:87:c5:4b:b0:89:d0:0a:c5:c9:e8:5b:dc:05:46:
        f3:09:13:d3:d7:fb:d3:ba:90:f6:88:cc:e2:f3:da:f5:f7:f8:
        59:53:f9:5e:0e:bc:0f:68:51:59:f7:66:b2:1f:71:df:da:e8:
        84:d1:2e:25:fb:e0:0f:1b:24:c6:d5:a4:80:3b:62:bd:b4:19:
        a8:c5:dc:46:8a:08:82:58:5a:51:5b:63:c3:d6:c2:b0:ae:5e:
        e3:2e:90:dc:b3:37:d4:2d:69:94:c8:fe:2c:ec:5d:72:77:a9:
        39:81:2a:7d:eb:4e:1a:03:b7:4f:1c:70:49:60:6d:68:e7:a8:
        12:17:3d:93:39:88:82:6c:02:e7:4f:5e:cc:06:93:82:4a:7b:
        df:8d:68:d3:5a:ca:f4:04:9a:9d:87:15:78:64:bd:d0:d8:7b:
        30:51:fb:37
-----BEGIN CERTIFICATE-----
MIIDXTCCAkWgAwIBAgIRAJZ4X1xsmaJH9508/purCu0wDQYJKoZIhvcNAQELBQAw
FjEUMBIGA1UEAwwLdGVhbTMyNC1uZXQwHhcNMjMxMTA0MTA0NjMyWhcNMjYxMDE5
MTA0NjMyWjAZMRcwFQYDVQQDDA50ZWFtMzI0LWNsaWVudDCCASIwDQYJKoZIhvcN
AQEBBQADggEPADCCAQoCggEBAL/Agx2YSXtUbT/vLLSRSXIZCRSFnUi4A4xAhBGI
2MdIDYocui8hCc8GeD+vPU80EeaAiprftCiCpfnVdcTqDP0hX8xBK+3Xqn8Qk+Sd
dKRgLE+qC3NHvciKBmP5mLO0luKFHz5nZR/amZM6B8Gp00GRwliQq8MU5lYKAEWk
tDT/Xkb6jHRMJAplIx5RVdOIuoJ+McKJUCjQjoxxATWHtjkgqSNUxncliPgilPF+
NZm6sVZTtleQKLuVd/uZj+RQZXSpCJGN5dMhc+rlftF0bmWj3eFfr/mg5yRJVjwm
BW7muQmeFzvW2S7AuXj9RCdKu4sfaUSekCdSQqZQfflF/OMCAwEAAaOBojCBnzAJ
BgNVHRMEAjAAMB0GA1UdDgQWBBQ1rqzTofHfQnRJ8M/qJ3+kftJybzBRBgNVHSME
SjBIgBT28cCyUuHLkft/jhXZ6pFtHvNJlKEapBgwFjEUMBIGA1UEAwwLdGVhbTMy
NC1uZXSCFHEpf4biazzrYtq+OJndSrf7XpTNMBMGA1UdJQQMMAoGCCsGAQUFBwMC
MAsGA1UdDwQEAwIHgDANBgkqhkiG9w0BAQsFAAOCAQEAMftEe/qXh7oj1yYQXy5a
6wg9zNM02XiMIQEMlSIxuaHLh9AVeZMLdw7+v3YBp0ulQsKniURmZ2OgNiPF2XpD
RnwJEKN81duEOA5tNgCnylh8fnwJdeXQyCiqICGs1ofFS7CJ0ArFyehb3AVG8wkT
09f707qQ9ojM4vPa9ff4WVP5Xg68D2hRWfdmsh9x39rohNEuJfvgDxskxtWkgDti
vbQZqMXcRooIglhaUVtjw9bCsK5e4y6Q3LM31C1plMj+LOxdcnepOYEqfetOGgO3
TxxwSWBtaOeoEhc9kzmIgmwC509ezAaTgkp7341o01rK9ASanYcVeGS90Nh7MFH7
Nw==
-----END CERTIFICATE-----
