Certificate:
    Data:
        Version: 3 (0x2)
        Serial Number:
            a8:f4:9d:41:34:75:83:49:98:50:90:c0:be:65:dd:e4
        Signature Algorithm: sha256WithRSAEncryption
        Issuer: CN=team324-net
        Validity
            Not Before: Nov  4 11:34:36 2023 GMT
            Not After : Oct 19 11:34:36 2026 GMT
        Subject: CN=team324-client
        Subject Public Key Info:
            Public Key Algorithm: rsaEncryption
                Public-Key: (2048 bit)
                Modulus:
                    00:a5:f9:e2:da:97:59:21:6f:14:5a:98:6a:4f:8d:
                    69:c7:6a:bc:7b:98:09:22:e5:3a:07:6c:e5:a3:b1:
                    1b:f4:b1:7e:0f:eb:93:ef:f7:3e:6e:70:c6:61:19:
                    d9:1c:6b:dd:37:31:39:ef:1e:7d:e6:1a:48:cb:d0:
                    05:8d:75:3e:d7:e7:5c:d7:52:7b:47:58:0d:4b:85:
                    31:c5:e9:25:9c:e2:3b:63:ad:63:8e:ea:3e:79:ea:
                    e0:f4:63:47:25:f6:2a:ea:32:04:8c:cc:69:f4:33:
                    16:5f:2b:90:d3:c5:a6:d6:d5:bd:a6:73:8e:f0:3a:
                    6d:4d:d6:f0:b8:31:dd:2b:80:42:3c:64:f9:5a:31:
                    aa:5c:eb:f6:93:d8:62:27:64:85:22:d0:f3:8b:33:
                    db:86:15:1a:4a:7a:96:7e:d0:a5:fa:b4:e8:e9:e0:
                    5c:9e:7c:90:f6:cd:fe:88:a4:70:bd:4e:c8:78:aa:
                    ff:d6:3d:bc:b5:b4:b3:79:4a:40:19:bb:73:0c:b6:
                    7b:6d:06:31:1f:09:03:13:ed:27:36:29:ad:77:90:
                    db:81:25:fb:f2:d9:af:11:71:65:5e:87:b3:b3:e7:
                    fe:2f:88:cd:62:a2:53:c6:f6:0b:fe:d1:22:af:8d:
                    36:c2:f8:6f:98:1b:ec:a1:7d:90:de:a7:27:27:16:
                    44:67
                Exponent: 65537 (0x10001)
        X509v3 extensions:
            X509v3 Basic Constraints: 
                CA:FALSE
            X509v3 Subject Key Identifier: 
                6A:60:B4:14:27:C4:3E:BB:A0:31:65:22:2F:2F:5C:F3:D5:1E:5F:69
            X509v3 Authority Key Identifier: 
                keyid:8D:14:E2:6E:1B:28:D2:32:D4:DE:3F:60:EF:75:97:F1:14:2C:C8:46
                DirName:/CN=team324-net
                serial:16:22:34:EE:DC:2C:AD:FD:37:C9:B6:94:F3:41:F7:15:96:5E:3C:E4
            X509v3 Extended Key Usage: 
                TLS Web Client Authentication
            X509v3 Key Usage: 
                Digital Signature
    Signature Algorithm: sha256WithRSAEncryption
    Signature Value:
        8e:c0:9e:c4:5b:58:5d:87:5a:e8:d5:1b:53:e1:b0:44:15:a4:
        40:98:e2:df:6e:77:4e:86:82:e8:45:fd:cb:b8:c8:53:af:67:
        bb:33:a2:2f:e3:37:eb:5c:64:74:9b:39:ae:44:4a:8a:3c:f7:
        36:e2:15:1e:9d:dc:08:a4:c8:1a:23:13:da:b9:b0:53:d2:d6:
        8d:7e:a8:8f:49:07:72:fa:16:76:03:8b:13:71:99:08:85:16:
        47:88:29:00:ae:fc:27:6b:98:81:a9:12:50:f9:7d:e3:80:3d:
        67:de:ea:c4:3d:56:77:bf:61:a6:eb:dd:b3:d6:1d:0b:51:b1:
        ea:db:f6:2c:77:2b:ff:26:34:50:fa:40:94:05:4f:15:6c:9d:
        b5:6c:0e:dc:9d:a4:0a:70:0e:71:ac:4b:49:4f:66:80:8a:7e:
        a7:2a:8a:cd:bf:9b:91:e7:1d:8e:06:49:8f:bb:ba:b4:07:73:
        44:8f:18:6e:20:a8:24:cf:be:c0:da:db:8f:f4:ef:01:ea:7c:
        8b:c1:17:0a:15:69:fe:97:91:f8:2c:f8:de:38:9c:01:af:aa:
        11:2f:7e:e9:9f:a2:43:91:35:cb:c7:ca:33:8e:e5:eb:1c:79:
        9d:96:57:38:33:ae:8a:39:b5:45:cb:b7:45:95:92:14:f4:9d:
        df:5d:31:42
-----BEGIN CERTIFICATE-----
MIIDXTCCAkWgAwIBAgIRAKj0nUE0dYNJmFCQwL5l3eQwDQYJKoZIhvcNAQELBQAw
FjEUMBIGA1UEAwwLdGVhbTMyNC1uZXQwHhcNMjMxMTA0MTEzNDM2WhcNMjYxMDE5
MTEzNDM2WjAZMRcwFQYDVQQDDA50ZWFtMzI0LWNsaWVudDCCASIwDQYJKoZIhvcN
AQEBBQADggEPADCCAQoCggEBAKX54tqXWSFvFFqYak+NacdqvHuYCSLlOgds5aOx
G/Sxfg/rk+/3Pm5wxmEZ2Rxr3TcxOe8efeYaSMvQBY11PtfnXNdSe0dYDUuFMcXp
JZziO2OtY47qPnnq4PRjRyX2KuoyBIzMafQzFl8rkNPFptbVvaZzjvA6bU3W8Lgx
3SuAQjxk+Voxqlzr9pPYYidkhSLQ84sz24YVGkp6ln7Qpfq06OngXJ58kPbN/oik
cL1OyHiq/9Y9vLW0s3lKQBm7cwy2e20GMR8JAxPtJzYprXeQ24El+/LZrxFxZV6H
s7Pn/i+IzWKiU8b2C/7RIq+NNsL4b5gb7KF9kN6nJycWRGcCAwEAAaOBojCBnzAJ
BgNVHRMEAjAAMB0GA1UdDgQWBBRqYLQUJ8Q+u6AxZSIvL1zz1R5faTBRBgNVHSME
SjBIgBSNFOJuGyjSMtTeP2DvdZfxFCzIRqEapBgwFjEUMBIGA1UEAwwLdGVhbTMy
NC1uZXSCFBYiNO7cLK39N8m2lPNB9xWWXjzkMBMGA1UdJQQMMAoGCCsGAQUFBwMC
MAsGA1UdDwQEAwIHgDANBgkqhkiG9w0BAQsFAAOCAQEAjsCexFtYXYda6NUbU+Gw
RBWkQJji3253ToaC6EX9y7jIU69nuzOiL+M361xkdJs5rkRKijz3NuIVHp3cCKTI
GiMT2rmwU9LWjX6oj0kHcvoWdgOLE3GZCIUWR4gpAK78J2uYgakSUPl944A9Z97q
xD1Wd79hpuvds9YdC1Gx6tv2LHcr/yY0UPpAlAVPFWydtWwO3J2kCnAOcaxLSU9m
gIp+pyqKzb+bkecdjgZJj7u6tAdzRI8YbiCoJM++wNrbj/TvAep8i8EXChVp/peR
+Cz43jicAa+qES9+6Z+iQ5E1y8fKM47l6xx5nZZXODOuijm1Rcu3RZWSFPSd310x
Qg==
-----END CERTIFICATE-----
