Certificate:
    Data:
        Version: 3 (0x2)
        Serial Number:
            b2:97:18:fd:7e:e4:da:79:ef:24:fa:c2:f1:b2:f0:14
        Signature Algorithm: sha256WithRSAEncryption
        Issuer: CN=team324-net
        Validity
            Not Before: Nov  4 10:46:32 2023 GMT
            Not After : Oct 19 10:46:32 2026 GMT
        Subject: CN=team324-server
        Subject Public Key Info:
            Public Key Algorithm: rsaEncryption
                Public-Key: (2048 bit)
                Modulus:
                    00:ec:71:a6:f1:8c:0c:b8:ce:af:ee:dc:11:44:cd:
                    44:c3:b0:af:de:27:fc:b6:da:f1:b2:90:89:d2:9a:
                    52:ad:d1:fb:fd:45:1e:35:fa:47:09:35:d0:45:96:
                    c7:d4:fb:9c:b0:a7:90:fb:8c:37:53:58:94:a7:d9:
                    06:6d:8e:51:7e:14:23:80:b9:56:a4:c9:38:b9:dc:
                    c2:e2:de:94:eb:31:92:75:2d:22:da:6f:f6:76:f3:
                    bc:e4:24:b8:a3:65:12:be:fe:b5:a1:95:52:73:12:
                    32:10:bc:06:89:25:5e:ba:e3:44:79:57:23:a4:99:
                    ac:41:27:bb:8e:30:7a:5a:e3:30:a4:c3:35:be:14:
                    61:5e:1b:c8:9a:84:22:35:9a:f8:fa:fb:54:e1:0e:
                    a1:98:19:25:67:3d:a5:bc:39:82:68:28:68:58:20:
                    95:70:38:1b:87:80:a6:89:2c:7e:67:af:ce:fc:90:
                    15:fd:5b:54:42:5c:89:6d:81:0c:f3:01:74:ad:2c:
                    5c:7e:29:b1:18:3b:8e:54:ae:19:98:cb:6f:f3:35:
                    b4:4d:95:e5:15:74:ac:44:98:1e:5d:48:53:c6:66:
                    43:2e:ce:af:7c:d0:80:73:3b:22:b4:e5:93:7b:86:
                    27:eb:33:f9:6a:b7:96:47:79:da:1a:1f:e1:65:1e:
                    d8:2d
                Exponent: 65537 (0x10001)
        X509v3 extensions:
            X509v3 Basic Constraints: 
                CA:FALSE
            X509v3 Subject Key Identifier: 
                B9:05:3C:AB:04:C3:B2:7C:6F:55:0D:B7:51:AE:F6:B7:8E:0D:CB:55
            X509v3 Authority Key Identifier: 
                keyid:F6:F1:C0:B2:52:E1:CB:91:FB:7F:8E:15:D9:EA:91:6D:1E:F3:49:94
                DirName:/CN=team324-net
                serial:71:29:7F:86:E2:6B:3C:EB:62:DA:BE:38:99:DD:4A:B7:FB:5E:94:CD
            X509v3 Extended Key Usage: 
                TLS Web Server Authentication
            X509v3 Key Usage: 
                Digital Signature, Key Encipherment
            X509v3 Subject Alternative Name: 
                DNS:team324-server
    Signature Algorithm: sha256WithRSAEncryption
    Signature Value:
        25:d6:4b:6b:9e:54:dc:20:29:3f:da:97:24:f9:92:e6:fb:01:
        db:df:77:cb:01:66:61:58:76:ef:45:a5:71:b7:a7:bc:35:24:
        a6:c1:bd:b9:ed:85:e5:d8:15:dd:8a:e5:47:37:19:b9:b6:24:
        c5:ee:a4:dd:1b:1f:d6:6d:8d:59:97:a4:d3:a3:1d:c3:11:85:
        bc:87:52:78:9c:3d:b7:6b:00:1f:8e:ed:67:a9:51:80:ed:75:
        ae:58:a3:cf:4b:eb:98:9f:6a:5d:50:33:94:42:b5:92:a1:b9:
        6f:46:45:e2:14:8a:7b:91:13:4a:e2:e7:1b:44:ec:87:b8:10:
        e0:d9:ae:83:b8:b5:04:b2:10:ab:1d:ba:be:ab:a9:18:e7:9f:
        07:3a:83:5e:26:ae:41:27:8f:0a:9d:8a:d2:a4:8d:f2:6e:17:
        61:63:82:c3:fb:f9:00:95:a8:74:2b:dc:31:cc:d7:60:21:31:
        83:78:9f:39:1c:cd:62:a9:8a:3e:a6:70:f0:b5:9b:13:93:2e:
        80:ba:66:a0:00:ce:30:96:a4:76:9d:98:5d:44:97:6e:26:7e:
        d6:53:cb:17:37:32:c2:a0:61:ed:73:3b:4a:29:6f:15:ce:d9:
        f9:b8:bd:80:2e:1a:79:f2:45:c3:78:23:13:1a:ae:43:1e:18:
        5c:0f:61:02
-----BEGIN CERTIFICATE-----
MIIDeDCCAmCgAwIBAgIRALKXGP1+5Np57yT6wvGy8BQwDQYJKoZIhvcNAQELBQAw
FjEUMBIGA1UEAwwLdGVhbTMyNC1uZXQwHhcNMjMxMTA0MTA0NjMyWhcNMjYxMDE5
MTA0NjMyWjAZMRcwFQYDVQQDDA50ZWFtMzI0LXNlcnZlcjCCASIwDQYJKoZIhvcN
AQEBBQADggEPADCCAQoCggEBAOxxpvGMDLjOr+7cEUTNRMOwr94n/Lba8bKQidKa
Uq3R+/1FHjX6Rwk10EWWx9T7nLCnkPuMN1NYlKfZBm2OUX4UI4C5VqTJOLncwuLe
lOsxknUtItpv9nbzvOQkuKNlEr7+taGVUnMSMhC8BoklXrrjRHlXI6SZrEEnu44w
elrjMKTDNb4UYV4byJqEIjWa+Pr7VOEOoZgZJWc9pbw5gmgoaFgglXA4G4eApoks
fmevzvyQFf1bVEJciW2BDPMBdK0sXH4psRg7jlSuGZjLb/M1tE2V5RV0rESYHl1I
U8ZmQy7Or3zQgHM7IrTlk3uGJ+sz+Wq3lkd52hof4WUe2C0CAwEAAaOBvTCBujAJ
BgNVHRMEAjAAMB0GA1UdDgQWBBS5BTyrBMOyfG9VDbdRrva3jg3LVTBRBgNVHSME
SjBIgBT28cCyUuHLkft/jhXZ6pFtHvNJlKEapBgwFjEUMBIGA1UEAwwLdGVhbTMy
NC1uZXSCFHEpf4biazzrYtq+OJndSrf7XpTNMBMGA1UdJQQMMAoGCCsGAQUFBwMB
MAsGA1UdDwQEAwIFoDAZBgNVHREEEjAQgg50ZWFtMzI0LXNlcnZlcjANBgkqhkiG
9w0BAQsFAAOCAQEAJdZLa55U3CApP9qXJPmS5vsB2993ywFmYVh270WlcbenvDUk
psG9ue2F5dgV3YrlRzcZubYkxe6k3Rsf1m2NWZek06MdwxGFvIdSeJw9t2sAH47t
Z6lRgO11rlijz0vrmJ9qXVAzlEK1kqG5b0ZF4hSKe5ETSuLnG0Tsh7gQ4Nmug7i1
BLIQqx26vqupGOefBzqDXiauQSePCp2K0qSN8m4XYWOCw/v5AJWodCvcMczXYCEx
g3ifORzNYqmKPqZw8LWbE5MugLpmoADOMJakdp2YXUSXbiZ+1lPLFzcywqBh7XM7
SilvFc7Z+bi9gC4aefJFw3gjExquQx4YXA9hAg==
-----END CERTIFICATE-----
