Certificate:
    Data:
        Version: 3 (0x2)
        Serial Number:
            d0:5c:fe:97:03:c2:4b:d5:45:9c:95:d6:46:76:56:e0
        Signature Algorithm: sha256WithRSAEncryption
        Issuer: CN=team324-net
        Validity
            Not Before: Nov  3 20:45:10 2023 GMT
            Not After : Oct 18 20:45:10 2026 GMT
        Subject: CN=team324-client
        Subject Public Key Info:
            Public Key Algorithm: rsaEncryption
                Public-Key: (2048 bit)
                Modulus:
                    00:ae:28:67:1e:97:ea:29:ec:b4:09:66:e0:f5:f6:
                    80:d4:2a:a0:73:b9:15:08:58:31:d6:10:6c:97:27:
                    ef:f5:7d:2f:b9:aa:d0:f1:a0:23:bf:cb:3c:ab:c3:
                    a0:f1:25:fd:0e:42:a2:2e:cc:e1:2a:df:ca:95:e8:
                    38:78:80:b1:cd:ee:a6:62:ba:3e:bc:1f:0b:bd:e3:
                    94:9d:c4:da:13:51:d1:0c:83:bb:98:78:5b:97:74:
                    41:19:72:b8:08:14:30:3d:03:85:5a:42:8e:1e:d2:
                    a2:3a:9e:52:14:8c:96:b3:8e:70:ac:76:47:5f:06:
                    32:68:57:48:88:51:4f:41:19:09:42:30:77:7b:60:
                    b6:78:d7:d7:36:12:c5:f6:f2:40:d5:9a:6b:15:72:
                    fb:d9:53:db:55:3b:8c:d1:bd:16:35:d0:17:2a:aa:
                    78:e9:27:5d:18:45:6a:f1:4d:8e:7b:c4:60:e8:f8:
                    00:f9:ed:37:a6:13:bd:4c:4b:de:31:e0:64:0e:18:
                    ef:f3:59:56:f5:be:73:05:dd:19:63:67:32:73:b0:
                    df:89:42:5e:a6:a7:9b:fc:c5:21:42:a2:a6:39:16:
                    5c:fb:00:a2:74:08:8f:0a:d1:44:33:5d:49:32:ef:
                    a1:aa:60:89:bd:5e:a7:1f:c2:f9:90:8a:53:91:06:
                    57:37
                Exponent: 65537 (0x10001)
        X509v3 extensions:
            X509v3 Basic Constraints: 
                CA:FALSE
            X509v3 Subject Key Identifier: 
                6A:D4:4F:96:B2:DB:7D:60:1C:1F:9B:65:5B:8A:D8:72:2C:B2:EB:C6
            X509v3 Authority Key Identifier: 
                keyid:50:92:C7:A4:5B:23:A5:F3:1E:1F:27:BE:66:C4:37:42:17:9E:92:91
                DirName:/CN=team324-net
                serial:3C:10:91:6A:AB:A0:D0:21:E8:D5:26:E3:1B:A3:D2:0F:5A:8F:84:1F
            X509v3 Extended Key Usage: 
                TLS Web Client Authentication
            X509v3 Key Usage: 
                Digital Signature
    Signature Algorithm: sha256WithRSAEncryption
    Signature Value:
        21:88:b3:a5:fb:73:68:1f:f0:ab:44:17:55:44:66:9b:96:73:
        21:5c:89:0f:c0:65:18:ca:0c:5f:af:00:74:b6:09:60:50:ff:
        ee:e2:49:68:5f:38:3e:ba:77:26:b1:68:7e:47:b5:f5:b4:8e:
        00:6d:8a:ce:30:ff:df:cb:1e:10:44:10:78:a5:12:d5:3a:97:
        af:b5:e3:03:cb:2f:b4:d5:b1:72:40:3d:bd:b3:18:31:0b:b8:
        80:05:c7:66:ea:19:14:90:68:50:bd:4b:68:95:9f:ee:98:d7:
        62:86:00:1d:2c:a3:77:76:3f:96:1e:a9:f5:96:2e:12:cc:d1:
        c8:38:46:88:9f:04:fd:4c:9a:95:32:1b:38:43:e6:a1:0b:7b:
        01:5d:7e:28:04:ce:3e:6f:8a:85:46:07:e4:fa:0d:ee:ed:16:
        38:14:ba:5d:19:6c:13:ac:a9:03:8f:d9:85:82:56:d9:29:9a:
        11:5f:32:68:2f:99:7b:ef:5f:97:03:77:0f:b9:99:2a:87:d2:
        a1:aa:6a:df:18:93:f9:ff:a3:62:ea:0e:78:6c:bd:10:e5:50:
        7e:52:a5:1c:63:e1:87:b9:a6:d6:c2:17:d1:2c:29:a3:0e:32:
        f4:89:c7:4d:76:eb:17:47:f1:3d:2c:ea:a9:91:a8:7e:e2:16:
        ad:96:ff:05
-----BEGIN CERTIFICATE-----
MIIDXTCCAkWgAwIBAgIRANBc/pcDwkvVRZyV1kZ2VuAwDQYJKoZIhvcNAQELBQAw
FjEUMBIGA1UEAwwLdGVhbTMyNC1uZXQwHhcNMjMxMTAzMjA0NTEwWhcNMjYxMDE4
MjA0NTEwWjAZMRcwFQYDVQQDDA50ZWFtMzI0LWNsaWVudDCCASIwDQYJKoZIhvcN
AQEBBQADggEPADCCAQoCggEBAK4oZx6X6instAlm4PX2gNQqoHO5FQhYMdYQbJcn
7/V9L7mq0PGgI7/LPKvDoPEl/Q5Coi7M4SrfypXoOHiAsc3upmK6PrwfC73jlJ3E
2hNR0QyDu5h4W5d0QRlyuAgUMD0DhVpCjh7SojqeUhSMlrOOcKx2R18GMmhXSIhR
T0EZCUIwd3tgtnjX1zYSxfbyQNWaaxVy+9lT21U7jNG9FjXQFyqqeOknXRhFavFN
jnvEYOj4APntN6YTvUxL3jHgZA4Y7/NZVvW+cwXdGWNnMnOw34lCXqanm/zFIUKi
pjkWXPsAonQIjwrRRDNdSTLvoapgib1epx/C+ZCKU5EGVzcCAwEAAaOBojCBnzAJ
BgNVHRMEAjAAMB0GA1UdDgQWBBRq1E+Wstt9YBwfm2VbithyLLLrxjBRBgNVHSME
SjBIgBRQksekWyOl8x4fJ75mxDdCF56SkaEapBgwFjEUMBIGA1UEAwwLdGVhbTMy
NC1uZXSCFDwQkWqroNAh6NUm4xuj0g9aj4QfMBMGA1UdJQQMMAoGCCsGAQUFBwMC
MAsGA1UdDwQEAwIHgDANBgkqhkiG9w0BAQsFAAOCAQEAIYizpftzaB/wq0QXVURm
m5ZzIVyJD8BlGMoMX68AdLYJYFD/7uJJaF84Prp3JrFofke19bSOAG2KzjD/38se
EEQQeKUS1TqXr7XjA8svtNWxckA9vbMYMQu4gAXHZuoZFJBoUL1LaJWf7pjXYoYA
HSyjd3Y/lh6p9ZYuEszRyDhGiJ8E/UyalTIbOEPmoQt7AV1+KATOPm+KhUYH5PoN
7u0WOBS6XRlsE6ypA4/ZhYJW2SmaEV8yaC+Ze+9flwN3D7mZKofSoapq3xiT+f+j
YuoOeGy9EOVQflKlHGPhh7mm1sIX0Swpow4y9InHTXbrF0fxPSzqqZGofuIWrZb/
BQ==
-----END CERTIFICATE-----
