Certificate:
    Data:
        Version: 3 (0x2)
        Serial Number:
            2b:40:45:9e:9f:2f:a3:9b:4b:2e:5a:68:31:d3:1f:a4
        Signature Algorithm: sha256WithRSAEncryption
        Issuer: CN=team289-net
        Validity
            Not Before: Nov  4 11:33:35 2023 GMT
            Not After : Oct 19 11:33:35 2026 GMT
        Subject: CN=team289-client
        Subject Public Key Info:
            Public Key Algorithm: rsaEncryption
                Public-Key: (2048 bit)
                Modulus:
                    00:ba:04:6e:a3:de:0f:9c:d4:dc:e9:0b:d4:a0:cd:
                    47:9e:5f:c9:e3:8e:c8:88:8d:ec:0c:de:ff:02:e0:
                    a8:62:32:2b:bd:84:3d:15:28:7c:32:55:f9:34:4a:
                    76:e0:be:4c:aa:9c:85:41:84:0e:1c:90:36:97:e9:
                    21:d1:26:65:82:95:2c:63:8f:4a:5d:4a:43:d4:85:
                    c8:a5:b8:47:0d:69:07:08:1f:db:59:c5:d1:ce:91:
                    89:0b:b2:05:8a:26:d9:39:0b:99:ae:7d:9e:5c:58:
                    1e:1e:7d:b8:30:99:0f:2e:99:65:2d:c4:16:c1:39:
                    8b:18:6d:e2:65:dd:16:5f:2b:6c:01:cb:5c:4f:cc:
                    0f:3c:e5:eb:2d:80:08:02:78:e6:70:8b:8a:c7:93:
                    1f:50:22:2d:ae:11:1d:b0:12:c4:e6:bc:82:69:d7:
                    c1:61:23:12:5c:9b:99:62:5d:c2:04:2f:99:cf:f3:
                    16:1f:64:3f:7e:52:21:3e:40:c3:f1:cf:2f:d0:d4:
                    88:d4:06:84:f4:39:bb:dd:6c:ca:b6:e7:26:da:28:
                    09:fa:54:50:4a:37:ba:ae:37:52:34:e0:b1:98:75:
                    e3:40:01:cb:ab:c8:08:35:00:75:3b:c8:ce:0b:2c:
                    9e:ac:8c:6e:fe:47:e8:4b:b6:2a:e7:5a:9d:3b:22:
                    f9:7b
                Exponent: 65537 (0x10001)
        X509v3 extensions:
            X509v3 Basic Constraints: 
                CA:FALSE
            X509v3 Subject Key Identifier: 
                06:D3:B7:7E:FA:97:AD:2F:D5:70:2F:94:38:25:DD:EE:A0:1A:67:66
            X509v3 Authority Key Identifier: 
                keyid:33:62:BA:BE:BC:42:69:18:B7:8F:0B:CC:77:60:DA:F7:A7:62:73:1C
                DirName:/CN=team289-net
                serial:20:4B:55:8F:C6:47:52:A6:AA:B3:CB:B7:95:E7:54:35:EE:10:4C:8F
            X509v3 Extended Key Usage: 
                TLS Web Client Authentication
            X509v3 Key Usage: 
                Digital Signature
    Signature Algorithm: sha256WithRSAEncryption
    Signature Value:
        2d:e4:52:bc:d0:a4:be:00:b0:a7:d5:3f:de:a9:c1:0f:30:9f:
        a1:2f:a6:b1:2a:fe:d9:a4:93:6f:f5:c2:29:10:8a:ec:1c:54:
        4f:98:5f:4e:8b:35:03:5e:f6:01:f7:f3:37:d3:84:53:56:20:
        59:af:da:e8:a9:a0:b4:09:db:30:23:5a:b5:70:d9:2a:04:0d:
        e9:74:3d:ea:3b:6f:ca:9c:16:c6:b9:81:4c:66:60:12:a3:d9:
        82:20:cc:4c:27:d0:c2:22:a1:ab:7d:be:38:b2:13:23:aa:18:
        37:57:36:c5:de:4a:ac:af:56:45:0a:74:0f:04:db:32:b6:aa:
        12:3d:25:2c:44:4a:3e:8d:06:04:38:a8:ec:e6:c6:ee:e9:4f:
        0a:47:1f:c4:10:56:6a:59:f6:a2:0c:bd:45:6b:55:73:cf:8a:
        92:f3:b6:c9:ec:25:09:86:08:f1:0a:bb:b1:71:3f:47:68:ed:
        28:e0:bf:81:81:9c:ae:45:be:7e:67:c3:16:ad:8c:d5:f2:5a:
        00:0e:2c:58:a7:dc:96:84:a4:e7:fb:23:ac:4a:16:8c:ec:71:
        52:52:7c:75:d4:c7:e6:fe:54:b7:68:a9:38:eb:40:6f:9d:cb:
        4d:97:f0:f2:d5:14:65:6e:2c:7e:d4:10:2a:91:07:6e:42:00:
        93:00:86:ef
-----BEGIN CERTIFICATE-----
MIIDXDCCAkSgAwIBAgIQK0BFnp8vo5tLLlpoMdMfpDANBgkqhkiG9w0BAQsFADAW
MRQwEgYDVQQDDAt0ZWFtMjg5LW5ldDAeFw0yMzExMDQxMTMzMzVaFw0yNjEwMTkx
MTMzMzVaMBkxFzAVBgNVBAMMDnRlYW0yODktY2xpZW50MIIBIjANBgkqhkiG9w0B
AQEFAAOCAQ8AMIIBCgKCAQEAugRuo94PnNTc6QvUoM1Hnl/J447IiI3sDN7/AuCo
YjIrvYQ9FSh8MlX5NEp24L5MqpyFQYQOHJA2l+kh0SZlgpUsY49KXUpD1IXIpbhH
DWkHCB/bWcXRzpGJC7IFiibZOQuZrn2eXFgeHn24MJkPLpllLcQWwTmLGG3iZd0W
XytsActcT8wPPOXrLYAIAnjmcIuKx5MfUCItrhEdsBLE5ryCadfBYSMSXJuZYl3C
BC+Zz/MWH2Q/flIhPkDD8c8v0NSI1AaE9Dm73WzKtucm2igJ+lRQSje6rjdSNOCx
mHXjQAHLq8gINQB1O8jOCyyerIxu/kfoS7Yq51qdOyL5ewIDAQABo4GiMIGfMAkG
A1UdEwQCMAAwHQYDVR0OBBYEFAbTt376l60v1XAvlDgl3e6gGmdmMFEGA1UdIwRK
MEiAFDNiur68QmkYt48LzHdg2venYnMcoRqkGDAWMRQwEgYDVQQDDAt0ZWFtMjg5
LW5ldIIUIEtVj8ZHUqaqs8u3ledUNe4QTI8wEwYDVR0lBAwwCgYIKwYBBQUHAwIw
CwYDVR0PBAQDAgeAMA0GCSqGSIb3DQEBCwUAA4IBAQAt5FK80KS+ALCn1T/eqcEP
MJ+hL6axKv7ZpJNv9cIpEIrsHFRPmF9OizUDXvYB9/M304RTViBZr9roqaC0Cdsw
I1q1cNkqBA3pdD3qO2/KnBbGuYFMZmASo9mCIMxMJ9DCIqGrfb44shMjqhg3VzbF
3kqsr1ZFCnQPBNsytqoSPSUsREo+jQYEOKjs5sbu6U8KRx/EEFZqWfaiDL1Fa1Vz
z4qS87bJ7CUJhgjxCruxcT9HaO0o4L+BgZyuRb5+Z8MWrYzV8loADixYp9yWhKTn
+yOsShaM7HFSUnx11Mfm/lS3aKk460BvnctNl/Dy1RRlbix+1BAqkQduQgCTAIbv
-----END CERTIFICATE-----
