Certificate:
    Data:
        Version: 3 (0x2)
        Serial Number:
            7b:9a:5e:7b:a5:90:f8:4f:06:45:58:6c:c8:5e:f5:af
        Signature Algorithm: sha256WithRSAEncryption
        Issuer: CN=team289-net
        Validity
            Not Before: Nov  3 20:44:33 2023 GMT
            Not After : Oct 18 20:44:33 2026 GMT
        Subject: CN=team289-client
        Subject Public Key Info:
            Public Key Algorithm: rsaEncryption
                Public-Key: (2048 bit)
                Modulus:
                    00:c4:60:5d:c5:af:00:96:2a:c3:f4:3a:81:a4:8f:
                    08:42:9a:0a:07:6a:38:2d:cd:1c:4b:c6:d1:0a:f2:
                    34:4b:1d:92:9e:d3:59:cc:f3:95:23:41:8c:76:64:
                    28:0d:67:e8:57:6f:e3:25:d8:1c:10:5b:d7:6f:9c:
                    31:80:10:94:c9:cb:45:4c:b6:0e:e3:c6:a8:b4:f1:
                    ef:4d:e5:28:30:96:12:cf:b1:10:d3:cf:8d:f1:2f:
                    9d:a0:31:31:eb:76:04:fd:e1:e9:fb:f5:29:da:e5:
                    cb:dc:59:9c:ba:4c:ee:cf:99:82:3e:4c:6c:14:eb:
                    c6:a4:9a:fd:07:86:7d:43:79:7b:b5:86:0f:fa:27:
                    ac:c4:4d:ca:6f:31:48:29:86:5e:35:10:e4:77:74:
                    7e:b2:c0:31:bb:4d:aa:0c:99:81:cb:ac:a3:e3:37:
                    7f:01:49:e2:0c:6d:97:26:f9:e1:ea:46:de:61:e9:
                    7d:9b:6c:46:a4:1f:46:1c:c2:45:52:21:e6:54:1e:
                    71:1a:98:b7:1e:a2:40:56:e1:17:7c:19:46:4f:83:
                    51:83:83:0d:3d:b8:e6:a0:fc:d9:39:25:0f:5c:c4:
                    b9:a0:37:50:42:b2:e4:9c:27:8f:11:e7:fc:e9:e5:
                    75:6b:aa:18:5a:97:b6:80:9e:b7:34:2a:a3:61:a0:
                    01:31
                Exponent: 65537 (0x10001)
        X509v3 extensions:
            X509v3 Basic Constraints: 
                CA:FALSE
            X509v3 Subject Key Identifier: 
                0E:4F:F6:DA:94:E6:23:29:FC:71:80:01:0D:00:4B:5A:37:7C:5B:F1
            X509v3 Authority Key Identifier: 
                keyid:9C:93:52:15:0B:9F:7E:15:BB:F1:26:B2:6F:49:CE:ED:9A:CC:93:44
                DirName:/CN=team289-net
                serial:08:62:69:5F:B7:6E:45:2C:99:5D:FB:C7:3B:86:0A:C4:49:62:1B:D6
            X509v3 Extended Key Usage: 
                TLS Web Client Authentication
            X509v3 Key Usage: 
                Digital Signature
    Signature Algorithm: sha256WithRSAEncryption
    Signature Value:
        60:b4:6c:ea:3e:8b:cd:ee:2a:62:07:da:7c:25:45:9d:ff:8d:
        ee:ec:d1:ee:68:f6:18:2c:51:92:f0:9c:e1:5c:df:2a:15:bc:
        87:15:7e:dd:77:f3:bb:65:77:cb:e2:b3:f8:bb:17:15:d1:37:
        2f:66:3c:c9:1c:84:5c:27:86:ef:95:ba:19:ca:ee:b0:62:12:
        d5:4a:9d:64:4d:20:a8:43:12:90:51:6b:50:08:6a:31:a1:03:
        e3:44:6d:af:d3:a2:01:60:1c:c1:f5:91:dc:3f:8a:9c:9c:57:
        f6:cb:ab:a2:6e:2f:d6:da:6a:61:37:f2:4d:c9:5a:90:fd:ca:
        19:55:fe:7e:83:43:1b:5b:df:d2:ce:12:10:64:06:ac:39:fe:
        f1:2c:3d:e5:13:2f:d2:af:01:b5:49:f0:e4:4d:1f:33:a7:31:
        42:1d:97:f1:4f:9b:83:3a:15:74:a4:b9:88:7d:3f:e4:b9:f7:
        95:1e:e2:bb:b6:ee:46:51:ba:70:0b:ce:cc:f2:ac:ee:23:7d:
        b4:cb:f5:63:d2:32:16:3a:69:14:41:ac:5e:d3:dc:f2:27:7c:
        5e:ed:9a:e1:09:48:fa:6c:c0:95:ba:1c:23:1d:bb:08:b7:b6:
        58:dc:f4:df:c4:3a:f0:aa:4d:53:88:41:a9:17:03:ac:fb:24:
        05:3f:c3:e8
-----BEGIN CERTIFICATE-----
MIIDXDCCAkSgAwIBAgIQe5pee6WQ+E8GRVhsyF71rzANBgkqhkiG9w0BAQsFADAW
MRQwEgYDVQQDDAt0ZWFtMjg5LW5ldDAeFw0yMzExMDMyMDQ0MzNaFw0yNjEwMTgy
MDQ0MzNaMBkxFzAVBgNVBAMMDnRlYW0yODktY2xpZW50MIIBIjANBgkqhkiG9w0B
AQEFAAOCAQ8AMIIBCgKCAQEAxGBdxa8AlirD9DqBpI8IQpoKB2o4Lc0cS8bRCvI0
Sx2SntNZzPOVI0GMdmQoDWfoV2/jJdgcEFvXb5wxgBCUyctFTLYO48aotPHvTeUo
MJYSz7EQ08+N8S+doDEx63YE/eHp+/Up2uXL3Fmcukzuz5mCPkxsFOvGpJr9B4Z9
Q3l7tYYP+iesxE3KbzFIKYZeNRDkd3R+ssAxu02qDJmBy6yj4zd/AUniDG2XJvnh
6kbeYel9m2xGpB9GHMJFUiHmVB5xGpi3HqJAVuEXfBlGT4NRg4MNPbjmoPzZOSUP
XMS5oDdQQrLknCePEef86eV1a6oYWpe2gJ63NCqjYaABMQIDAQABo4GiMIGfMAkG
A1UdEwQCMAAwHQYDVR0OBBYEFA5P9tqU5iMp/HGAAQ0AS1o3fFvxMFEGA1UdIwRK
MEiAFJyTUhULn34Vu/Emsm9Jzu2azJNEoRqkGDAWMRQwEgYDVQQDDAt0ZWFtMjg5
LW5ldIIUCGJpX7duRSyZXfvHO4YKxEliG9YwEwYDVR0lBAwwCgYIKwYBBQUHAwIw
CwYDVR0PBAQDAgeAMA0GCSqGSIb3DQEBCwUAA4IBAQBgtGzqPovN7ipiB9p8JUWd
/43u7NHuaPYYLFGS8JzhXN8qFbyHFX7dd/O7ZXfL4rP4uxcV0TcvZjzJHIRcJ4bv
lboZyu6wYhLVSp1kTSCoQxKQUWtQCGoxoQPjRG2v06IBYBzB9ZHcP4qcnFf2y6ui
bi/W2mphN/JNyVqQ/coZVf5+g0MbW9/SzhIQZAasOf7xLD3lEy/SrwG1SfDkTR8z
pzFCHZfxT5uDOhV0pLmIfT/kufeVHuK7tu5GUbpwC87M8qzuI320y/Vj0jIWOmkU
Qaxe09zyJ3xe7ZrhCUj6bMCVuhwjHbsIt7ZY3PTfxDrwqk1TiEGpFwOs+yQFP8Po
-----END CERTIFICATE-----
