Certificate:
    Data:
        Version: 3 (0x2)
        Serial Number:
            4d:79:d1:21:9c:0d:02:1d:88:b6:bf:3d:bd:b6:b7:aa
        Signature Algorithm: sha256WithRSAEncryption
        Issuer: CN=team362-net
        Validity
            Not Before: Nov  4 10:47:13 2023 GMT
            Not After : Oct 19 10:47:13 2026 GMT
        Subject: CN=team362-server
        Subject Public Key Info:
            Public Key Algorithm: rsaEncryption
                Public-Key: (2048 bit)
                Modulus:
                    00:b6:ad:bd:90:f9:bb:21:5d:4f:16:cb:b5:ca:b2:
                    94:44:20:7f:2d:0c:fa:a7:39:7a:c0:49:f3:73:7c:
                    ca:67:24:33:0b:73:ca:02:0c:60:f4:70:98:0f:80:
                    1b:03:ce:e8:18:99:38:d8:09:35:2f:d5:e3:a2:36:
                    43:79:00:2d:1a:96:5d:6c:49:f8:ba:ea:69:c3:1d:
                    32:2b:a8:fb:60:89:ee:c5:e9:be:a7:4a:4f:14:e6:
                    94:4f:a3:18:c7:93:c7:ba:ba:29:1e:40:22:74:6a:
                    1a:0e:e4:11:5d:34:a4:a1:d8:a2:b2:9c:66:bf:6c:
                    27:bf:18:d5:1a:7f:d3:28:e2:bc:b0:6e:fa:de:a1:
                    89:ae:e1:b9:dd:8e:b0:1d:40:dc:c0:42:c1:72:b7:
                    bf:37:95:7b:19:f4:12:44:c8:b9:44:2a:38:2d:41:
                    8e:70:2d:9e:02:0f:69:5f:a8:70:a2:a2:bb:fa:78:
                    47:3f:5a:75:83:78:f2:78:1e:bd:2d:37:2e:90:bf:
                    de:43:09:7d:c7:c3:70:6d:37:4e:60:ae:9c:41:3a:
                    f4:2a:58:8c:0e:7d:a9:00:de:28:b1:15:45:8a:fa:
                    56:b9:9c:35:38:95:4e:01:ed:53:0f:af:97:44:13:
                    d5:97:65:13:89:a3:1a:38:a4:87:5e:f6:c7:2c:59:
                    a6:ff
                Exponent: 65537 (0x10001)
        X509v3 extensions:
            X509v3 Basic Constraints: 
                CA:FALSE
            X509v3 Subject Key Identifier: 
                F5:4D:A6:EB:3D:72:C2:95:E1:41:BB:E8:A9:57:FF:1C:EE:15:33:97
            X509v3 Authority Key Identifier: 
                keyid:4F:B9:86:4E:B3:82:45:AE:D9:3C:C5:BC:3A:1D:29:8A:F4:C2:23:F0
                DirName:/CN=team362-net
                serial:1D:7F:73:94:32:AB:A0:F9:17:39:E4:5C:9A:78:48:36:32:4B:95:B0
            X509v3 Extended Key Usage: 
                TLS Web Server Authentication
            X509v3 Key Usage: 
                Digital Signature, Key Encipherment
            X509v3 Subject Alternative Name: 
                DNS:team362-server
    Signature Algorithm: sha256WithRSAEncryption
    Signature Value:
        72:8c:07:6f:17:f4:07:b2:6d:62:55:a5:c0:4b:92:0c:e1:48:
        89:0b:0f:f1:ed:73:f3:1d:3f:b0:5c:3e:a6:05:73:f6:92:a8:
        8b:e9:94:c2:02:d3:1d:24:00:df:2b:3f:98:ef:af:83:e5:73:
        61:fb:3e:b1:cf:3a:47:2c:78:b8:65:4f:5f:f1:a4:bd:a2:0b:
        9a:90:e7:24:cd:27:a3:ae:5c:33:ec:af:e0:6e:7f:76:53:8d:
        a6:ce:50:43:93:2f:86:5b:81:a1:d0:24:ac:cc:77:a6:42:15:
        c6:48:b1:b2:fc:f2:ae:ec:a6:41:3e:98:c0:8e:97:f9:a5:ea:
        22:8a:04:c4:66:0f:f7:f1:30:3c:f1:b3:e8:f8:9d:37:27:f0:
        fd:5c:f3:ab:c2:d8:2d:24:91:88:30:f6:52:1d:25:99:c2:77:
        7c:50:37:f1:72:13:e3:55:e8:b8:95:e0:13:d2:73:e5:83:c5:
        df:91:63:64:e5:db:bd:dd:b9:d9:75:5d:b7:9b:2c:3f:cf:88:
        d8:f0:b2:72:8e:b0:1f:f6:7d:f3:04:3e:ba:80:e5:17:e9:57:
        22:fd:5c:3f:80:f5:fa:db:07:55:aa:d8:0b:7c:16:de:65:04:
        17:65:c9:ce:9b:f3:47:3a:02:be:25:8b:29:5e:ab:e8:16:4b:
        8f:f7:55:c3
-----BEGIN CERTIFICATE-----
MIIDdzCCAl+gAwIBAgIQTXnRIZwNAh2Itr89vba3qjANBgkqhkiG9w0BAQsFADAW
MRQwEgYDVQQDDAt0ZWFtMzYyLW5ldDAeFw0yMzExMDQxMDQ3MTNaFw0yNjEwMTkx
MDQ3MTNaMBkxFzAVBgNVBAMMDnRlYW0zNjItc2VydmVyMIIBIjANBgkqhkiG9w0B
AQEFAAOCAQ8AMIIBCgKCAQEAtq29kPm7IV1PFsu1yrKURCB/LQz6pzl6wEnzc3zK
ZyQzC3PKAgxg9HCYD4AbA87oGJk42Ak1L9XjojZDeQAtGpZdbEn4uuppwx0yK6j7
YInuxem+p0pPFOaUT6MYx5PHuropHkAidGoaDuQRXTSkodiispxmv2wnvxjVGn/T
KOK8sG763qGJruG53Y6wHUDcwELBcre/N5V7GfQSRMi5RCo4LUGOcC2eAg9pX6hw
oqK7+nhHP1p1g3jyeB69LTcukL/eQwl9x8NwbTdOYK6cQTr0KliMDn2pAN4osRVF
ivpWuZw1OJVOAe1TD6+XRBPVl2UTiaMaOKSHXvbHLFmm/wIDAQABo4G9MIG6MAkG
A1UdEwQCMAAwHQYDVR0OBBYEFPVNpus9csKV4UG76KlX/xzuFTOXMFEGA1UdIwRK
MEiAFE+5hk6zgkWu2TzFvDodKYr0wiPwoRqkGDAWMRQwEgYDVQQDDAt0ZWFtMzYy
LW5ldIIUHX9zlDKroPkXOeRcmnhINjJLlbAwEwYDVR0lBAwwCgYIKwYBBQUHAwEw
CwYDVR0PBAQDAgWgMBkGA1UdEQQSMBCCDnRlYW0zNjItc2VydmVyMA0GCSqGSIb3
DQEBCwUAA4IBAQByjAdvF/QHsm1iVaXAS5IM4UiJCw/x7XPzHT+wXD6mBXP2kqiL
6ZTCAtMdJADfKz+Y76+D5XNh+z6xzzpHLHi4ZU9f8aS9oguakOckzSejrlwz7K/g
bn92U42mzlBDky+GW4Gh0CSszHemQhXGSLGy/PKu7KZBPpjAjpf5peoiigTEZg/3
8TA88bPo+J03J/D9XPOrwtgtJJGIMPZSHSWZwnd8UDfxchPjVei4leAT0nPlg8Xf
kWNk5du93bnZdV23myw/z4jY8LJyjrAf9n3zBD66gOUX6Vci/Vw/gPX62wdVqtgL
fBbeZQQXZcnOm/NHOgK+JYspXqvoFkuP91XD
-----END CERTIFICATE-----
