Certificate:
    Data:
        Version: 3 (0x2)
        Serial Number:
            58:25:2d:ea:b3:d5:20:8c:9b:85:89:33:d2:09:55:c5
        Signature Algorithm: sha256WithRSAEncryption
        Issuer: CN=team362-net
        Validity
            Not Before: Nov  4 11:35:32 2023 GMT
            Not After : Oct 19 11:35:32 2026 GMT
        Subject: CN=team362-server
        Subject Public Key Info:
            Public Key Algorithm: rsaEncryption
                Public-Key: (2048 bit)
                Modulus:
                    00:c7:d7:0d:0b:50:10:df:0b:cb:91:9f:91:6b:f0:
                    b3:6b:26:e0:e8:d3:82:66:1e:ef:2c:d8:89:32:9e:
                    12:b5:0f:49:b4:ea:63:da:77:eb:23:9c:bd:d0:79:
                    ca:13:d9:dd:75:88:02:c7:b4:b3:5c:2f:08:78:e5:
                    86:9d:99:07:f6:e8:03:ba:31:78:ba:74:7b:b0:6b:
                    27:e1:88:3d:cf:4c:28:9a:aa:96:e0:5f:4a:99:f1:
                    89:ec:18:94:5a:28:fb:7d:48:ec:d5:ff:08:4c:ca:
                    23:88:ab:72:a8:37:f0:e0:46:21:a9:ea:9b:c7:7a:
                    ce:e7:4c:a7:89:d3:69:1b:8a:60:cf:b2:1d:1a:a7:
                    cc:50:07:3d:a7:8b:d7:a0:32:03:d7:8e:3d:f3:cb:
                    1f:d3:bd:1c:4f:f8:e7:85:46:02:1b:22:23:0b:8d:
                    9a:ed:3b:d8:4f:df:86:49:40:9c:40:45:ba:48:ac:
                    56:bf:bd:8d:87:c0:ad:d3:03:21:b5:78:42:e8:98:
                    9a:e0:ee:ff:60:ca:e0:34:7a:05:1d:46:2d:c0:08:
                    66:4f:f6:07:a2:51:24:24:27:44:fa:cc:56:7d:a3:
                    f4:3d:49:59:9b:7a:d2:26:fb:63:de:36:6e:05:a0:
                    92:5a:ef:e5:f4:cf:d5:dc:d5:dc:7d:ad:9e:67:d8:
                    7d:85
                Exponent: 65537 (0x10001)
        X509v3 extensions:
            X509v3 Basic Constraints: 
                CA:FALSE
            X509v3 Subject Key Identifier: 
                55:4A:4B:A0:55:41:83:2D:78:87:B4:9B:C0:12:24:A1:35:2D:92:BD
            X509v3 Authority Key Identifier: 
                keyid:D2:07:2C:E1:79:ED:3E:79:56:92:E4:36:3F:BC:FC:88:0F:04:E1:49
                DirName:/CN=team362-net
                serial:17:B3:3F:75:CB:40:4A:3D:34:43:CE:B9:10:DA:4D:08:99:C9:D3:88
            X509v3 Extended Key Usage: 
                TLS Web Server Authentication
            X509v3 Key Usage: 
                Digital Signature, Key Encipherment
            X509v3 Subject Alternative Name: 
                DNS:team362-server
    Signature Algorithm: sha256WithRSAEncryption
    Signature Value:
        49:46:65:1e:23:63:fd:e9:ed:56:9b:43:66:9f:3b:da:5a:3c:
        a1:b6:9a:e4:83:6e:7e:ba:07:4f:f4:7c:aa:84:62:9c:ac:34:
        b2:7d:ed:20:f4:21:3a:07:29:70:f5:86:be:6f:7f:ed:f9:61:
        86:04:f2:8f:d3:3e:be:70:a5:36:a1:65:51:4a:f9:1d:b1:81:
        56:d1:6c:93:c8:8e:85:45:cd:07:2e:26:44:cd:fe:13:90:a5:
        06:9d:f9:03:46:78:ba:d2:a4:fc:cd:88:f8:02:59:e6:02:f7:
        f6:90:15:83:3d:75:77:66:2e:a5:8e:24:9c:f8:66:4e:17:ef:
        5f:fe:57:cc:4c:1d:c7:86:bb:7a:57:0c:9a:cc:ea:20:42:95:
        01:bf:b7:2e:03:d9:73:97:31:e5:5f:22:f4:51:27:00:22:4b:
        41:1d:6a:90:5d:00:1c:f4:0f:fb:c1:98:40:3c:a7:66:56:84:
        6a:5e:71:54:25:4b:ed:56:9e:83:6a:48:e0:81:13:12:cd:24:
        b9:95:8e:3e:99:cc:91:dd:ce:07:79:3c:51:0d:d2:ea:e0:b4:
        b3:c8:e5:9c:25:86:74:a6:43:f2:6d:ee:50:4e:7c:cd:af:3e:
        db:bf:de:d8:f6:5d:dc:c6:c6:2d:85:2c:dd:8d:bf:e3:42:c2:
        c7:72:8d:38
-----BEGIN CERTIFICATE-----
MIIDdzCCAl+gAwIBAgIQWCUt6rPVIIybhYkz0glVxTANBgkqhkiG9w0BAQsFADAW
MRQwEgYDVQQDDAt0ZWFtMzYyLW5ldDAeFw0yMzExMDQxMTM1MzJaFw0yNjEwMTkx
MTM1MzJaMBkxFzAVBgNVBAMMDnRlYW0zNjItc2VydmVyMIIBIjANBgkqhkiG9w0B
AQEFAAOCAQ8AMIIBCgKCAQEAx9cNC1AQ3wvLkZ+Ra/Czaybg6NOCZh7vLNiJMp4S
tQ9JtOpj2nfrI5y90HnKE9nddYgCx7SzXC8IeOWGnZkH9ugDujF4unR7sGsn4Yg9
z0womqqW4F9KmfGJ7BiUWij7fUjs1f8ITMojiKtyqDfw4EYhqeqbx3rO50ynidNp
G4pgz7IdGqfMUAc9p4vXoDID144988sf070cT/jnhUYCGyIjC42a7TvYT9+GSUCc
QEW6SKxWv72Nh8Ct0wMhtXhC6Jia4O7/YMrgNHoFHUYtwAhmT/YHolEkJCdE+sxW
faP0PUlZm3rSJvtj3jZuBaCSWu/l9M/V3NXcfa2eZ9h9hQIDAQABo4G9MIG6MAkG
A1UdEwQCMAAwHQYDVR0OBBYEFFVKS6BVQYMteIe0m8ASJKE1LZK9MFEGA1UdIwRK
MEiAFNIHLOF57T55VpLkNj+8/IgPBOFJoRqkGDAWMRQwEgYDVQQDDAt0ZWFtMzYy
LW5ldIIUF7M/dctASj00Q865ENpNCJnJ04gwEwYDVR0lBAwwCgYIKwYBBQUHAwEw
CwYDVR0PBAQDAgWgMBkGA1UdEQQSMBCCDnRlYW0zNjItc2VydmVyMA0GCSqGSIb3
DQEBCwUAA4IBAQBJRmUeI2P96e1Wm0NmnzvaWjyhtprkg25+ugdP9HyqhGKcrDSy
fe0g9CE6Bylw9Ya+b3/t+WGGBPKP0z6+cKU2oWVRSvkdsYFW0WyTyI6FRc0HLiZE
zf4TkKUGnfkDRni60qT8zYj4AlnmAvf2kBWDPXV3Zi6ljiSc+GZOF+9f/lfMTB3H
hrt6VwyazOogQpUBv7cuA9lzlzHlXyL0UScAIktBHWqQXQAc9A/7wZhAPKdmVoRq
XnFUJUvtVp6DakjggRMSzSS5lY4+mcyR3c4HeTxRDdLq4LSzyOWcJYZ0pkPybe5Q
TnzNrz7bv97Y9l3cxsYthSzdjb/jQsLHco04
-----END CERTIFICATE-----
