Certificate:
    Data:
        Version: 3 (0x2)
        Serial Number:
            88:e6:93:fb:12:5f:3a:bc:13:b8:0f:b9:d4:c8:7a:18
        Signature Algorithm: sha256WithRSAEncryption
        Issuer: CN=team362-net
        Validity
            Not Before: Nov  4 10:47:12 2023 GMT
            Not After : Oct 19 10:47:12 2026 GMT
        Subject: CN=team362-client
        Subject Public Key Info:
            Public Key Algorithm: rsaEncryption
                Public-Key: (2048 bit)
                Modulus:
                    00:a8:30:ff:af:e5:cd:a3:b1:f8:ff:3e:dd:f3:64:
                    5f:ee:0e:c3:31:8d:23:38:5a:66:eb:b8:92:c6:52:
                    10:18:2a:f3:ef:04:8c:76:0a:e9:9f:5e:4e:7f:fa:
                    8e:47:53:17:fd:12:22:88:3b:b0:9d:57:73:c2:7b:
                    85:a6:84:46:02:67:33:56:d5:6b:ad:fe:bb:f7:00:
                    c9:35:11:2d:c8:6b:49:1c:b9:ef:81:e9:f3:9f:2f:
                    fb:22:ec:50:b8:6f:96:4a:a9:18:f1:85:17:3c:bb:
                    ce:63:1c:73:bc:35:fb:aa:0d:cd:d4:ff:2d:cd:e4:
                    69:c1:50:3c:a8:97:51:43:7c:e9:d1:5c:6b:94:56:
                    95:64:7d:6d:56:9b:f9:bd:09:a2:01:db:c4:64:73:
                    ef:f3:c0:34:71:f2:8a:62:eb:15:2a:74:78:87:84:
                    1e:66:4b:2a:1f:9a:17:cd:70:c2:7f:38:80:69:c7:
                    32:1b:ed:86:37:1c:96:6b:f5:6f:a2:84:bb:61:70:
                    b7:86:d8:f9:74:a2:c9:c4:76:a0:c5:ba:57:77:2a:
                    89:70:9b:e8:3a:6b:7d:38:4c:bc:61:7d:9d:04:ad:
                    c9:f2:d7:51:48:83:b2:bd:bc:a8:e8:f0:e9:de:23:
                    72:8e:74:47:7f:7e:4d:a6:0d:9f:aa:68:52:fb:8b:
                    53:d3
                Exponent: 65537 (0x10001)
        X509v3 extensions:
            X509v3 Basic Constraints: 
                CA:FALSE
            X509v3 Subject Key Identifier: 
                34:4C:22:E1:A6:83:CA:EB:FD:91:06:A2:64:2A:18:BC:B3:6D:CD:B8
            X509v3 Authority Key Identifier: 
                keyid:4F:B9:86:4E:B3:82:45:AE:D9:3C:C5:BC:3A:1D:29:8A:F4:C2:23:F0
                DirName:/CN=team362-net
                serial:1D:7F:73:94:32:AB:A0:F9:17:39:E4:5C:9A:78:48:36:32:4B:95:B0
            X509v3 Extended Key Usage: 
                TLS Web Client Authentication
            X509v3 Key Usage: 
                Digital Signature
    Signature Algorithm: sha256WithRSAEncryption
    Signature Value:
        84:06:50:b4:f2:4c:1d:17:e4:ec:6c:5d:db:f2:e2:9b:a3:9d:
        61:e7:2c:a1:59:df:a6:9b:d6:a3:36:13:c5:78:28:48:73:7c:
        fd:de:4d:49:4e:df:86:d3:90:ab:4d:dd:f2:43:b7:77:dc:2b:
        97:5a:4d:74:cb:5e:54:aa:85:1a:c4:c0:f8:5d:9d:40:76:b0:
        e7:b3:ba:34:af:5e:3c:11:fd:21:51:86:ef:fa:a4:c1:1b:d9:
        62:d4:89:dc:a0:2c:66:9d:a2:fa:76:6d:d0:18:69:ee:c5:61:
        a0:87:76:10:7b:6b:a0:94:a9:5f:77:d9:ce:1a:c3:da:cc:dc:
        23:7c:3d:ea:68:b4:98:6e:17:44:98:e6:0a:57:c4:72:32:f9:
        1d:5d:88:05:d8:64:ae:ff:ac:b7:69:23:58:64:84:05:0d:51:
        77:a2:ab:3f:3d:f2:3c:94:33:48:ad:3d:8b:4f:0d:4b:07:1f:
        1f:31:ca:35:52:a5:51:0c:72:aa:92:06:56:aa:8a:2d:18:66:
        ec:a1:d2:23:53:a8:7e:49:32:15:08:31:7d:32:0e:78:cd:83:
        18:20:fd:b0:b3:d3:5f:e1:ed:ef:45:97:c1:1f:6e:34:24:19:
        f4:6c:9f:bc:d6:25:53:0b:b5:ca:a6:7d:dc:e1:a5:b6:bc:cd:
        bb:22:4a:10
-----BEGIN CERTIFICATE-----
MIIDXTCCAkWgAwIBAgIRAIjmk/sSXzq8E7gPudTIehgwDQYJKoZIhvcNAQELBQAw
FjEUMBIGA1UEAwwLdGVhbTM2Mi1uZXQwHhcNMjMxMTA0MTA0NzEyWhcNMjYxMDE5
MTA0NzEyWjAZMRcwFQYDVQQDDA50ZWFtMzYyLWNsaWVudDCCASIwDQYJKoZIhvcN
AQEBBQADggEPADCCAQoCggEBAKgw/6/lzaOx+P8+3fNkX+4OwzGNIzhaZuu4ksZS
EBgq8+8EjHYK6Z9eTn/6jkdTF/0SIog7sJ1Xc8J7haaERgJnM1bVa63+u/cAyTUR
LchrSRy574Hp858v+yLsULhvlkqpGPGFFzy7zmMcc7w1+6oNzdT/Lc3kacFQPKiX
UUN86dFca5RWlWR9bVab+b0JogHbxGRz7/PANHHyimLrFSp0eIeEHmZLKh+aF81w
wn84gGnHMhvthjcclmv1b6KEu2Fwt4bY+XSiycR2oMW6V3cqiXCb6DprfThMvGF9
nQStyfLXUUiDsr28qOjw6d4jco50R39+TaYNn6poUvuLU9MCAwEAAaOBojCBnzAJ
BgNVHRMEAjAAMB0GA1UdDgQWBBQ0TCLhpoPK6/2RBqJkKhi8s23NuDBRBgNVHSME
SjBIgBRPuYZOs4JFrtk8xbw6HSmK9MIj8KEapBgwFjEUMBIGA1UEAwwLdGVhbTM2
Mi1uZXSCFB1/c5Qyq6D5FznkXJp4SDYyS5WwMBMGA1UdJQQMMAoGCCsGAQUFBwMC
MAsGA1UdDwQEAwIHgDANBgkqhkiG9w0BAQsFAAOCAQEAhAZQtPJMHRfk7Gxd2/Li
m6OdYecsoVnfppvWozYTxXgoSHN8/d5NSU7fhtOQq03d8kO3d9wrl1pNdMteVKqF
GsTA+F2dQHaw57O6NK9ePBH9IVGG7/qkwRvZYtSJ3KAsZp2i+nZt0Bhp7sVhoId2
EHtroJSpX3fZzhrD2szcI3w96mi0mG4XRJjmClfEcjL5HV2IBdhkrv+st2kjWGSE
BQ1Rd6KrPz3yPJQzSK09i08NSwcfHzHKNVKlUQxyqpIGVqqKLRhm7KHSI1Oofkky
FQgxfTIOeM2DGCD9sLPTX+Ht70WXwR9uNCQZ9GyfvNYlUwu1yqZ93OGltrzNuyJK
EA==
-----END CERTIFICATE-----
