Certificate:
    Data:
        Version: 3 (0x2)
        Serial Number:
            ae:1b:ed:c4:ac:04:59:fe:2e:2a:24:2c:63:71:f8:85
        Signature Algorithm: sha256WithRSAEncryption
        Issuer: CN=team362-net
        Validity
            Not Before: Nov  3 20:45:51 2023 GMT
            Not After : Oct 18 20:45:51 2026 GMT
        Subject: CN=team362-client
        Subject Public Key Info:
            Public Key Algorithm: rsaEncryption
                Public-Key: (2048 bit)
                Modulus:
                    00:be:cc:01:9a:4c:f1:55:a4:ff:2b:e1:89:5a:8e:
                    59:3d:94:b5:e7:c5:3b:04:04:76:58:c7:06:69:bb:
                    65:ff:02:72:30:1c:46:8e:4e:69:09:dc:a9:f4:8c:
                    a6:64:fa:2a:24:29:04:91:fe:2f:0a:a5:0a:6d:7f:
                    44:3c:f2:f8:c3:17:5a:79:f2:cb:ef:60:68:f7:80:
                    37:fa:f6:e0:d1:f5:ca:2a:f8:78:29:f7:fc:c0:e2:
                    6e:fb:84:ba:03:fd:7a:d5:25:55:bf:dc:63:9d:a9:
                    5b:2c:d1:cb:46:5f:ac:c6:46:b2:d0:54:a9:82:4e:
                    28:be:f6:67:f4:4f:ea:4b:e4:a8:d0:f6:e6:60:a4:
                    e5:c7:af:b4:ca:d3:f2:ca:51:d0:38:80:84:c6:fb:
                    0c:24:96:63:59:15:51:02:00:c8:0e:e2:a7:5e:d8:
                    97:28:eb:6e:df:e1:f9:2e:ec:a4:ad:3d:5d:f0:58:
                    a5:ab:62:0c:e0:22:bc:b1:2b:63:5e:39:20:c2:8d:
                    55:85:f7:92:f9:6c:22:4f:a4:7c:d9:bf:45:c0:c3:
                    1d:10:1d:0c:ca:56:6c:60:34:b4:f1:a5:97:6f:6c:
                    17:52:4e:29:23:fc:3b:fb:4a:2a:d3:9e:e5:d8:82:
                    92:15:fe:5d:bf:f3:ae:68:aa:8a:64:ee:cd:29:4c:
                    e8:73
                Exponent: 65537 (0x10001)
        X509v3 extensions:
            X509v3 Basic Constraints: 
                CA:FALSE
            X509v3 Subject Key Identifier: 
                63:DD:34:44:F9:1D:BE:AB:5B:4B:D6:8A:54:1E:A8:F5:8A:A9:69:23
            X509v3 Authority Key Identifier: 
                keyid:B6:B7:22:D4:AB:23:45:57:05:2E:B0:68:AE:33:D1:22:D6:29:15:30
                DirName:/CN=team362-net
                serial:37:50:5F:83:2E:F4:90:49:3C:0F:B8:91:D0:F9:7B:57:76:09:23:82
            X509v3 Extended Key Usage: 
                TLS Web Client Authentication
            X509v3 Key Usage: 
                Digital Signature
    Signature Algorithm: sha256WithRSAEncryption
    Signature Value:
        3a:ea:22:69:c0:a2:a0:46:4d:54:c5:07:77:09:96:32:7d:05:
        d8:87:5e:34:f6:ce:5c:2f:05:bd:fa:5c:bc:be:84:22:67:47:
        ad:b2:9f:4c:ef:39:28:45:bd:9b:ea:2a:70:02:b3:be:ca:7b:
        fe:ef:4d:c6:77:fb:33:62:2f:e3:15:b5:e7:05:14:71:14:9e:
        c8:87:30:f8:79:db:d8:d3:21:dc:23:d9:50:f2:5f:8e:db:4b:
        9a:d2:c4:96:21:4b:ce:c2:4d:2f:c2:39:64:41:32:64:55:aa:
        d7:8f:0f:fb:3f:38:44:0d:96:6d:c1:86:67:89:5c:ec:81:87:
        43:7f:4a:d3:c9:81:ef:1e:c1:5d:8d:13:22:e6:79:3a:88:b6:
        48:ab:7b:b0:1f:8a:d3:e9:21:ea:e1:18:6e:b6:79:15:2a:0b:
        44:d5:23:ce:b5:8b:e0:45:b4:a8:91:53:38:22:5f:55:7a:25:
        5b:0e:49:28:fd:3b:04:e9:6d:43:6a:d8:ee:51:ae:82:ba:1b:
        ad:fc:f1:f9:22:9c:84:82:5d:6f:b1:68:cc:1b:85:98:66:09:
        ce:ed:f1:e0:98:79:4b:3a:ca:e7:4a:8c:f2:f6:66:f3:a8:7d:
        35:6c:b8:26:36:f7:25:95:fb:52:86:10:c7:82:f7:3c:20:0e:
        4f:20:be:22
-----BEGIN CERTIFICATE-----
MIIDXTCCAkWgAwIBAgIRAK4b7cSsBFn+LiokLGNx+IUwDQYJKoZIhvcNAQELBQAw
FjEUMBIGA1UEAwwLdGVhbTM2Mi1uZXQwHhcNMjMxMTAzMjA0NTUxWhcNMjYxMDE4
MjA0NTUxWjAZMRcwFQYDVQQDDA50ZWFtMzYyLWNsaWVudDCCASIwDQYJKoZIhvcN
AQEBBQADggEPADCCAQoCggEBAL7MAZpM8VWk/yvhiVqOWT2UtefFOwQEdljHBmm7
Zf8CcjAcRo5OaQncqfSMpmT6KiQpBJH+LwqlCm1/RDzy+MMXWnnyy+9gaPeAN/r2
4NH1yir4eCn3/MDibvuEugP9etUlVb/cY52pWyzRy0ZfrMZGstBUqYJOKL72Z/RP
6kvkqND25mCk5cevtMrT8spR0DiAhMb7DCSWY1kVUQIAyA7ip17Ylyjrbt/h+S7s
pK09XfBYpatiDOAivLErY145IMKNVYX3kvlsIk+kfNm/RcDDHRAdDMpWbGA0tPGl
l29sF1JOKSP8O/tKKtOe5diCkhX+Xb/zrmiqimTuzSlM6HMCAwEAAaOBojCBnzAJ
BgNVHRMEAjAAMB0GA1UdDgQWBBRj3TRE+R2+q1tL1opUHqj1iqlpIzBRBgNVHSME
SjBIgBS2tyLUqyNFVwUusGiuM9Ei1ikVMKEapBgwFjEUMBIGA1UEAwwLdGVhbTM2
Mi1uZXSCFDdQX4Mu9JBJPA+4kdD5e1d2CSOCMBMGA1UdJQQMMAoGCCsGAQUFBwMC
MAsGA1UdDwQEAwIHgDANBgkqhkiG9w0BAQsFAAOCAQEAOuoiacCioEZNVMUHdwmW
Mn0F2IdeNPbOXC8FvfpcvL6EImdHrbKfTO85KEW9m+oqcAKzvsp7/u9Nxnf7M2Iv
4xW15wUUcRSeyIcw+Hnb2NMh3CPZUPJfjttLmtLEliFLzsJNL8I5ZEEyZFWq148P
+z84RA2WbcGGZ4lc7IGHQ39K08mB7x7BXY0TIuZ5Ooi2SKt7sB+K0+kh6uEYbrZ5
FSoLRNUjzrWL4EW0qJFTOCJfVXolWw5JKP07BOltQ2rY7lGugrobrfzx+SKchIJd
b7FozBuFmGYJzu3x4Jh5SzrK50qM8vZm86h9NWy4Jjb3JZX7UoYQx4L3PCAOTyC+
Ig==
-----END CERTIFICATE-----
