Certificate:
    Data:
        Version: 3 (0x2)
        Serial Number:
            ee:dc:15:bf:d5:94:30:b9:dc:aa:e1:41:ee:c9:8e:96
        Signature Algorithm: sha256WithRSAEncryption
        Issuer: CN=team362-net
        Validity
            Not Before: Nov  4 11:35:32 2023 GMT
            Not After : Oct 19 11:35:32 2026 GMT
        Subject: CN=team362-client
        Subject Public Key Info:
            Public Key Algorithm: rsaEncryption
                Public-Key: (2048 bit)
                Modulus:
                    00:b6:0c:80:60:c4:a1:54:59:a9:c5:2e:fe:85:a1:
                    a4:05:70:68:7e:4c:ac:8d:bb:53:3b:f9:92:b2:0d:
                    d8:7d:38:54:de:aa:9f:ae:ae:76:ea:0b:01:b3:8e:
                    53:33:10:fe:87:03:ab:b3:3d:9f:f7:e3:96:ba:cc:
                    f0:e1:7e:11:f2:76:8b:1e:c5:8d:9c:c3:d6:05:f4:
                    b8:e7:5c:f7:1e:f0:26:45:f4:a1:79:3f:7c:2a:da:
                    2c:af:0e:1e:ab:3f:86:15:bc:11:4c:92:41:71:14:
                    4a:79:26:29:d1:c5:91:28:b1:97:9e:72:d2:07:f5:
                    21:da:e3:56:c3:5d:19:92:e7:b2:5e:26:52:03:f2:
                    a3:68:d1:cf:99:50:6e:81:e0:6a:4f:6a:23:89:66:
                    fe:c9:89:4f:73:db:63:a6:0e:47:49:5f:c1:3c:2f:
                    08:d1:c4:54:a1:f7:a8:74:41:02:71:73:f6:77:ec:
                    b3:e8:a8:f8:e1:c2:fe:dd:5c:70:09:50:29:3d:fa:
                    56:b2:9e:29:ce:c1:d7:b3:15:89:20:0e:a0:f8:8e:
                    e5:09:34:9c:66:b2:8e:04:77:9f:98:19:d1:98:41:
                    81:fd:42:53:4e:0d:f1:38:5e:d2:d3:d2:a2:0e:7c:
                    88:21:a6:bd:c0:c9:4c:e3:fb:5d:7b:55:d9:4c:41:
                    a7:43
                Exponent: 65537 (0x10001)
        X509v3 extensions:
            X509v3 Basic Constraints: 
                CA:FALSE
            X509v3 Subject Key Identifier: 
                42:10:49:EA:57:0F:4B:DD:D4:F8:A9:A2:C7:B6:F3:1A:B6:8F:ED:60
            X509v3 Authority Key Identifier: 
                keyid:D2:07:2C:E1:79:ED:3E:79:56:92:E4:36:3F:BC:FC:88:0F:04:E1:49
                DirName:/CN=team362-net
                serial:17:B3:3F:75:CB:40:4A:3D:34:43:CE:B9:10:DA:4D:08:99:C9:D3:88
            X509v3 Extended Key Usage: 
                TLS Web Client Authentication
            X509v3 Key Usage: 
                Digital Signature
    Signature Algorithm: sha256WithRSAEncryption
    Signature Value:
        5a:12:f1:d5:6c:c2:a5:35:93:e4:32:10:b6:d1:57:34:20:f3:
        37:04:7c:69:61:a2:6a:54:2d:ec:ce:5e:27:b3:4e:e5:c6:3e:
        61:3a:f7:df:6f:53:50:ca:bd:92:c9:98:84:3b:dc:c0:e4:a1:
        52:b1:99:36:f5:70:00:59:93:0e:76:6c:88:29:d0:33:cd:33:
        91:0b:91:b4:9d:02:e0:5b:92:ca:42:10:46:cf:d9:90:8a:6d:
        de:04:36:ef:2b:8d:85:41:86:f2:52:0f:bf:6e:a4:a9:8f:7e:
        24:15:bc:9a:d4:41:43:d2:59:c3:bf:90:ad:74:69:2f:1f:39:
        9d:fc:39:d4:f9:cc:ad:98:7d:f9:07:bb:f1:00:a0:a4:e8:2b:
        cb:51:1f:c5:36:dc:d6:36:38:5e:72:ac:0d:e3:ea:eb:f1:1b:
        cf:b8:ed:11:ef:2c:84:88:14:45:b3:b9:c7:de:35:74:e6:fd:
        5d:c0:d3:c6:fb:23:8d:d8:46:61:5e:cd:f1:60:06:74:65:cc:
        e0:8e:04:60:56:07:96:cf:45:e7:fc:c2:3c:73:5c:76:b0:f9:
        16:72:b8:77:21:93:69:68:b2:3a:9f:54:7a:d1:16:2b:e7:2f:
        f7:3a:83:cc:24:5b:5c:d4:52:86:7e:ba:3e:97:a8:51:e8:ab:
        39:51:73:87
-----BEGIN CERTIFICATE-----
MIIDXTCCAkWgAwIBAgIRAO7cFb/VlDC53KrhQe7JjpYwDQYJKoZIhvcNAQELBQAw
FjEUMBIGA1UEAwwLdGVhbTM2Mi1uZXQwHhcNMjMxMTA0MTEzNTMyWhcNMjYxMDE5
MTEzNTMyWjAZMRcwFQYDVQQDDA50ZWFtMzYyLWNsaWVudDCCASIwDQYJKoZIhvcN
AQEBBQADggEPADCCAQoCggEBALYMgGDEoVRZqcUu/oWhpAVwaH5MrI27Uzv5krIN
2H04VN6qn66uduoLAbOOUzMQ/ocDq7M9n/fjlrrM8OF+EfJ2ix7FjZzD1gX0uOdc
9x7wJkX0oXk/fCraLK8OHqs/hhW8EUySQXEUSnkmKdHFkSixl55y0gf1IdrjVsNd
GZLnsl4mUgPyo2jRz5lQboHgak9qI4lm/smJT3PbY6YOR0lfwTwvCNHEVKH3qHRB
AnFz9nfss+io+OHC/t1ccAlQKT36VrKeKc7B17MViSAOoPiO5Qk0nGayjgR3n5gZ
0ZhBgf1CU04N8The0tPSog58iCGmvcDJTOP7XXtV2UxBp0MCAwEAAaOBojCBnzAJ
BgNVHRMEAjAAMB0GA1UdDgQWBBRCEEnqVw9L3dT4qaLHtvMato/tYDBRBgNVHSME
SjBIgBTSByzhee0+eVaS5DY/vPyIDwThSaEapBgwFjEUMBIGA1UEAwwLdGVhbTM2
Mi1uZXSCFBezP3XLQEo9NEPOuRDaTQiZydOIMBMGA1UdJQQMMAoGCCsGAQUFBwMC
MAsGA1UdDwQEAwIHgDANBgkqhkiG9w0BAQsFAAOCAQEAWhLx1WzCpTWT5DIQttFX
NCDzNwR8aWGialQt7M5eJ7NO5cY+YTr3329TUMq9ksmYhDvcwOShUrGZNvVwAFmT
DnZsiCnQM80zkQuRtJ0C4FuSykIQRs/ZkIpt3gQ27yuNhUGG8lIPv26kqY9+JBW8
mtRBQ9JZw7+QrXRpLx85nfw51PnMrZh9+Qe78QCgpOgry1EfxTbc1jY4XnKsDePq
6/Ebz7jtEe8shIgURbO5x941dOb9XcDTxvsjjdhGYV7N8WAGdGXM4I4EYFYHls9F
5/zCPHNcdrD5FnK4dyGTaWiyOp9UetEWK+cv9zqDzCRbXNRShn66PpeoUeirOVFz
hw==
-----END CERTIFICATE-----
