Certificate:
    Data:
        Version: 3 (0x2)
        Serial Number:
            73:ba:f5:f6:bb:89:e0:66:4e:b9:aa:de:6f:69:83:d7
        Signature Algorithm: sha256WithRSAEncryption
        Issuer: CN=team60-net
        Validity
            Not Before: Nov  3 20:40:18 2023 GMT
            Not After : Oct 18 20:40:18 2026 GMT
        Subject: CN=team60-client
        Subject Public Key Info:
            Public Key Algorithm: rsaEncryption
                Public-Key: (2048 bit)
                Modulus:
                    00:bc:4c:f5:9f:8f:25:21:e8:93:d1:9a:1b:5c:cb:
                    5a:28:48:b2:3a:b7:61:17:2c:62:94:18:17:1a:3c:
                    28:22:3e:41:9f:b8:f4:f2:a7:bc:05:2d:06:2e:c2:
                    c1:35:90:88:ee:e8:b4:03:ad:8b:51:78:1c:fb:f7:
                    05:f5:bf:78:75:86:24:94:75:8b:db:d5:48:f4:34:
                    6b:c0:92:26:6a:ea:d5:4b:b4:da:a8:3b:05:4c:be:
                    b7:28:01:0a:45:1e:6e:b2:f2:72:00:1d:ca:af:9f:
                    1f:7d:33:6a:8f:35:9b:dc:1e:eb:ed:e1:90:c9:00:
                    57:cc:f8:f6:11:49:7f:d4:1f:b4:b9:c1:d2:73:60:
                    34:59:4d:49:ec:65:9a:dd:8a:d2:77:e1:47:e9:42:
                    30:69:b7:ff:4b:dc:52:7c:04:24:18:8b:4d:fd:7a:
                    dc:12:c3:09:cf:47:67:97:94:62:a3:56:0e:73:48:
                    4b:d8:94:21:8d:e3:53:ec:f5:c6:a6:9c:21:7b:52:
                    b1:42:3c:b5:9c:71:24:e9:6e:62:d4:b9:16:52:05:
                    b6:a8:0f:c6:e3:46:cb:16:4f:dd:a3:10:0e:d9:33:
                    8a:44:12:1e:7d:90:cb:97:60:6f:37:52:3e:25:dc:
                    4a:0b:b7:e6:a8:f5:0f:59:df:47:e6:eb:4b:85:46:
                    e3:b7
                Exponent: 65537 (0x10001)
        X509v3 extensions:
            X509v3 Basic Constraints: 
                CA:FALSE
            X509v3 Subject Key Identifier: 
                E5:31:55:00:D3:B1:80:E0:32:AF:ED:16:F4:30:82:21:2A:4B:33:B3
            X509v3 Authority Key Identifier: 
                keyid:F1:F4:4E:30:23:C5:1C:5B:E7:78:78:41:1B:F2:EB:B1:A8:40:E3:84
                DirName:/CN=team60-net
                serial:31:F7:C8:C8:37:EC:43:47:7D:64:9D:9D:38:66:41:A4:64:39:69:34
            X509v3 Extended Key Usage: 
                TLS Web Client Authentication
            X509v3 Key Usage: 
                Digital Signature
    Signature Algorithm: sha256WithRSAEncryption
    Signature Value:
        3e:67:b7:60:3f:15:02:b4:1b:14:e0:ff:a6:f2:1f:8f:96:d7:
        9d:83:12:57:71:c2:19:bb:e3:46:1e:b7:93:6c:23:aa:cd:bb:
        9b:e8:f7:d2:88:89:17:c4:29:d1:76:24:ea:a8:2d:84:a3:21:
        fb:8a:af:68:f1:2c:1b:5f:ae:cf:71:c8:9a:88:8c:55:59:3d:
        d9:d3:10:07:24:2b:6e:d0:e7:79:c9:2a:c9:a7:12:64:12:43:
        50:d1:85:56:55:d4:43:a6:c3:aa:c7:06:84:b8:64:91:68:df:
        2c:51:a1:92:17:8e:af:7d:7d:01:a6:b2:d0:6c:e1:d6:33:f8:
        58:e5:38:f5:3a:8f:01:17:e1:be:9e:c0:65:2b:43:0b:70:c6:
        18:95:cb:52:e8:74:71:59:e8:ed:63:29:8a:61:e9:4e:61:2b:
        df:af:4e:e8:18:cd:fd:7c:b0:ca:97:f2:0e:10:86:f8:80:ab:
        31:2a:e6:4f:cf:ad:71:85:cc:df:46:64:3a:02:f5:5e:77:dc:
        88:db:f1:44:e3:4c:a8:ce:05:5f:d2:58:f5:5e:c0:6f:c1:70:
        4d:a9:f9:ce:38:bd:91:07:27:86:36:42:67:9c:38:2b:a9:d4:
        5d:8d:6d:4e:59:e3:23:b0:4d:69:fb:5c:04:56:93:5a:ae:26:
        20:83:0e:2d
-----BEGIN CERTIFICATE-----
MIIDWTCCAkGgAwIBAgIQc7r19ruJ4GZOuareb2mD1zANBgkqhkiG9w0BAQsFADAV
MRMwEQYDVQQDDAp0ZWFtNjAtbmV0MB4XDTIzMTEwMzIwNDAxOFoXDTI2MTAxODIw
NDAxOFowGDEWMBQGA1UEAwwNdGVhbTYwLWNsaWVudDCCASIwDQYJKoZIhvcNAQEB
BQADggEPADCCAQoCggEBALxM9Z+PJSHok9GaG1zLWihIsjq3YRcsYpQYFxo8KCI+
QZ+49PKnvAUtBi7CwTWQiO7otAOti1F4HPv3BfW/eHWGJJR1i9vVSPQ0a8CSJmrq
1Uu02qg7BUy+tygBCkUebrLycgAdyq+fH30zao81m9we6+3hkMkAV8z49hFJf9Qf
tLnB0nNgNFlNSexlmt2K0nfhR+lCMGm3/0vcUnwEJBiLTf163BLDCc9HZ5eUYqNW
DnNIS9iUIY3jU+z1xqacIXtSsUI8tZxxJOluYtS5FlIFtqgPxuNGyxZP3aMQDtkz
ikQSHn2Qy5dgbzdSPiXcSgu35qj1D1nfR+brS4VG47cCAwEAAaOBoTCBnjAJBgNV
HRMEAjAAMB0GA1UdDgQWBBTlMVUA07GA4DKv7Rb0MIIhKkszszBQBgNVHSMESTBH
gBTx9E4wI8UcW+d4eEEb8uuxqEDjhKEZpBcwFTETMBEGA1UEAwwKdGVhbTYwLW5l
dIIUMffIyDfsQ0d9ZJ2dOGZBpGQ5aTQwEwYDVR0lBAwwCgYIKwYBBQUHAwIwCwYD
VR0PBAQDAgeAMA0GCSqGSIb3DQEBCwUAA4IBAQA+Z7dgPxUCtBsU4P+m8h+Plted
gxJXccIZu+NGHreTbCOqzbub6PfSiIkXxCnRdiTqqC2EoyH7iq9o8SwbX67Pccia
iIxVWT3Z0xAHJCtu0Od5ySrJpxJkEkNQ0YVWVdRDpsOqxwaEuGSRaN8sUaGSF46v
fX0BprLQbOHWM/hY5Tj1Oo8BF+G+nsBlK0MLcMYYlctS6HRxWejtYymKYelOYSvf
r07oGM39fLDKl/IOEIb4gKsxKuZPz61xhczfRmQ6AvVed9yI2/FE40yozgVf0lj1
XsBvwXBNqfnOOL2RByeGNkJnnDgrqdRdjW1OWeMjsE1p+1wEVpNariYggw4t
-----END CERTIFICATE-----
