Certificate:
    Data:
        Version: 3 (0x2)
        Serial Number:
            9a:81:ef:af:dd:08:22:8d:c9:6c:26:90:e6:16:95:7c
        Signature Algorithm: sha256WithRSAEncryption
        Issuer: CN=team60-net
        Validity
            Not Before: Nov  3 20:40:18 2023 GMT
            Not After : Oct 18 20:40:18 2026 GMT
        Subject: CN=team60-server
        Subject Public Key Info:
            Public Key Algorithm: rsaEncryption
                Public-Key: (2048 bit)
                Modulus:
                    00:b1:97:7c:a1:cf:39:6d:c8:a6:aa:fe:d8:22:5b:
                    31:5c:92:3e:35:ff:75:2f:92:a2:ed:b8:cf:79:82:
                    2d:43:10:ee:0c:f8:bd:7e:11:0b:d2:48:95:a8:27:
                    36:2f:a8:57:a4:bd:53:8d:bb:3b:14:99:a7:43:f8:
                    15:0f:de:77:e8:46:5f:ec:8f:cc:5e:4f:7b:42:45:
                    c5:13:93:27:a7:61:5a:8d:3b:e0:da:a7:65:48:e1:
                    06:60:bc:69:79:44:a0:e7:c2:30:c2:e2:dc:cd:7b:
                    da:b5:82:27:ca:82:56:4a:31:a1:ec:07:02:0f:69:
                    ad:7d:dc:9c:d7:bb:b9:fe:03:0e:b6:17:98:fd:21:
                    1a:11:a5:9b:c6:34:d5:39:57:d2:96:91:06:6a:ca:
                    da:62:6b:15:43:2f:b4:b9:f7:9e:ec:09:78:90:a7:
                    1d:ae:dc:32:02:51:ea:93:b4:78:2e:17:77:eb:22:
                    77:ea:35:15:bf:16:78:92:40:28:01:00:e8:c7:e9:
                    21:ed:32:ab:37:6b:c2:29:43:d6:d7:8f:c3:e7:19:
                    78:3a:2a:95:2e:50:fb:d7:49:8e:5f:11:f0:63:1b:
                    30:e4:1b:99:b8:30:02:61:39:1b:6f:1f:d7:53:a8:
                    73:b9:90:97:b1:e2:43:24:8a:ee:d0:9e:21:0e:fa:
                    60:a1
                Exponent: 65537 (0x10001)
        X509v3 extensions:
            X509v3 Basic Constraints: 
                CA:FALSE
            X509v3 Subject Key Identifier: 
                AB:69:EF:03:F9:DA:95:9D:FB:8F:1C:9D:37:DA:C9:BB:D8:CC:3E:E8
            X509v3 Authority Key Identifier: 
                keyid:F1:F4:4E:30:23:C5:1C:5B:E7:78:78:41:1B:F2:EB:B1:A8:40:E3:84
                DirName:/CN=team60-net
                serial:31:F7:C8:C8:37:EC:43:47:7D:64:9D:9D:38:66:41:A4:64:39:69:34
            X509v3 Extended Key Usage: 
                TLS Web Server Authentication
            X509v3 Key Usage: 
                Digital Signature, Key Encipherment
            X509v3 Subject Alternative Name: 
                DNS:team60-server
    Signature Algorithm: sha256WithRSAEncryption
    Signature Value:
        2b:d5:98:99:6f:d1:e9:e8:64:e3:ec:52:ae:84:3c:f0:b5:e7:
        a5:e9:93:87:0a:a8:fd:ae:c4:3c:5d:7d:df:80:48:62:ea:46:
        67:b4:e8:93:ba:88:69:dc:2f:14:00:90:b3:43:2e:85:85:70:
        e7:d5:0f:b3:11:c3:60:57:5c:c4:2f:73:95:ae:4a:a4:f4:ae:
        11:4c:1c:62:8c:0e:3b:6b:28:03:2c:2c:44:c4:af:ad:b5:71:
        70:99:c9:9f:0e:e1:59:7d:7c:fe:9a:e1:17:9e:61:79:05:8d:
        f8:58:aa:f3:be:0f:a7:49:cd:a8:37:30:37:1b:e6:2e:48:36:
        8c:70:59:6e:bf:2d:c5:1c:62:dd:67:8a:f1:9c:59:7e:87:f4:
        44:f7:ad:c1:ce:70:b5:62:71:1a:bf:ad:cd:e6:28:0e:5a:25:
        15:d4:12:f3:42:79:8d:51:de:32:35:76:da:3d:7d:d4:f6:42:
        a5:f9:ed:88:63:ee:af:3e:66:f2:da:d3:fc:00:9c:0f:15:da:
        97:5e:49:3d:8a:c3:5a:78:17:a9:d5:65:b3:41:ac:e1:75:3d:
        4f:f3:3e:c2:b6:b6:3b:6a:0b:d2:48:01:56:d1:67:ca:c5:f6:
        dc:ca:9e:e2:52:d9:0e:df:2a:6f:b5:a3:f0:d2:23:76:e8:4c:
        f2:cf:60:4f
-----BEGIN CERTIFICATE-----
MIIDdDCCAlygAwIBAgIRAJqB76/dCCKNyWwmkOYWlXwwDQYJKoZIhvcNAQELBQAw
FTETMBEGA1UEAwwKdGVhbTYwLW5ldDAeFw0yMzExMDMyMDQwMThaFw0yNjEwMTgy
MDQwMThaMBgxFjAUBgNVBAMMDXRlYW02MC1zZXJ2ZXIwggEiMA0GCSqGSIb3DQEB
AQUAA4IBDwAwggEKAoIBAQCxl3yhzzltyKaq/tgiWzFckj41/3UvkqLtuM95gi1D
EO4M+L1+EQvSSJWoJzYvqFekvVONuzsUmadD+BUP3nfoRl/sj8xeT3tCRcUTkyen
YVqNO+Dap2VI4QZgvGl5RKDnwjDC4tzNe9q1gifKglZKMaHsBwIPaa193JzXu7n+
Aw62F5j9IRoRpZvGNNU5V9KWkQZqytpiaxVDL7S5957sCXiQpx2u3DICUeqTtHgu
F3frInfqNRW/FniSQCgBAOjH6SHtMqs3a8IpQ9bXj8PnGXg6KpUuUPvXSY5fEfBj
GzDkG5m4MAJhORtvH9dTqHO5kJex4kMkiu7QniEO+mChAgMBAAGjgbswgbgwCQYD
VR0TBAIwADAdBgNVHQ4EFgQUq2nvA/nalZ37jxydN9rJu9jMPugwUAYDVR0jBEkw
R4AU8fROMCPFHFvneHhBG/LrsahA44ShGaQXMBUxEzARBgNVBAMMCnRlYW02MC1u
ZXSCFDH3yMg37ENHfWSdnThmQaRkOWk0MBMGA1UdJQQMMAoGCCsGAQUFBwMBMAsG
A1UdDwQEAwIFoDAYBgNVHREEETAPgg10ZWFtNjAtc2VydmVyMA0GCSqGSIb3DQEB
CwUAA4IBAQAr1ZiZb9Hp6GTj7FKuhDzwteel6ZOHCqj9rsQ8XX3fgEhi6kZntOiT
uohp3C8UAJCzQy6FhXDn1Q+zEcNgV1zEL3OVrkqk9K4RTBxijA47aygDLCxExK+t
tXFwmcmfDuFZfXz+muEXnmF5BY34WKrzvg+nSc2oNzA3G+YuSDaMcFluvy3FHGLd
Z4rxnFl+h/RE963BznC1YnEav63N5igOWiUV1BLzQnmNUd4yNXbaPX3U9kKl+e2I
Y+6vPmby2tP8AJwPFdqXXkk9isNaeBep1WWzQazhdT1P8z7CtrY7agvSSAFW0WfK
xfbcyp7iUtkO3ypvtaPw0iN26Ezyz2BP
-----END CERTIFICATE-----
