Certificate:
    Data:
        Version: 3 (0x2)
        Serial Number:
            1b:57:d3:72:67:e9:99:c0:b9:62:2b:a6:06:57:a7:d2
        Signature Algorithm: sha256WithRSAEncryption
        Issuer: CN=team455-net
        Validity
            Not Before: Nov  3 20:47:31 2023 GMT
            Not After : Oct 18 20:47:31 2026 GMT
        Subject: CN=team455-client
        Subject Public Key Info:
            Public Key Algorithm: rsaEncryption
                Public-Key: (2048 bit)
                Modulus:
                    00:a0:61:db:4a:97:da:af:c6:12:af:17:94:ef:c6:
                    85:10:f9:31:3d:1c:72:85:25:4d:6f:f0:df:f7:d5:
                    54:c9:59:56:63:6c:f9:0a:1b:43:3c:b6:8c:6b:82:
                    d9:12:11:62:52:e3:8e:b9:cd:32:da:3c:6f:9d:aa:
                    f3:60:5e:cd:d2:55:fe:76:f4:cf:6f:5f:25:cb:3d:
                    e2:49:43:13:07:0b:79:3f:bf:1e:80:b0:58:44:7f:
                    76:b5:8c:d2:0d:d5:04:31:71:c2:a4:97:ad:02:17:
                    da:31:3e:b7:d0:98:ff:7f:7c:5c:84:0b:00:cc:2f:
                    f8:9f:a1:b0:cc:e7:88:df:36:e5:54:b1:6c:7f:07:
                    53:46:25:81:6a:b0:50:e3:f4:e1:8c:b3:bb:53:2b:
                    e2:74:62:ae:9f:d1:e4:92:df:43:30:ce:60:36:49:
                    cb:c5:b5:a9:e3:91:d5:07:c7:09:fb:b1:fe:c3:f8:
                    67:3f:aa:14:c4:2b:77:91:56:7f:9d:eb:76:e5:b6:
                    9a:ad:6d:85:c5:00:54:e7:9e:3d:b3:52:34:b6:13:
                    f0:1d:66:83:f3:12:98:dd:91:9d:6f:20:ad:9a:13:
                    5b:29:4e:4f:a4:14:fd:21:07:4f:e4:18:7b:21:5f:
                    44:93:92:aa:18:0b:1d:6f:0a:0d:8e:bc:31:79:fd:
                    33:ff
                Exponent: 65537 (0x10001)
        X509v3 extensions:
            X509v3 Basic Constraints: 
                CA:FALSE
            X509v3 Subject Key Identifier: 
                0F:E6:5C:0C:C9:1F:43:D4:10:A7:4C:EF:F7:47:DA:2C:2E:C7:24:EA
            X509v3 Authority Key Identifier: 
                keyid:96:B0:AB:19:23:99:C8:88:F2:08:A1:B7:57:DB:4C:32:28:DD:DA:52
                DirName:/CN=team455-net
                serial:7B:ED:D3:87:8A:65:CF:E8:EA:F0:6A:72:59:FA:91:93:F9:EF:51:B4
            X509v3 Extended Key Usage: 
                TLS Web Client Authentication
            X509v3 Key Usage: 
                Digital Signature
    Signature Algorithm: sha256WithRSAEncryption
    Signature Value:
        26:ca:f1:b5:1f:1c:47:50:3f:64:d1:22:0f:da:3d:c8:fb:b0:
        3c:ab:66:b7:9f:8a:03:b4:72:bc:58:00:c3:09:61:a0:be:00:
        b5:71:86:a0:0b:c3:c7:fc:c3:77:ef:c0:0a:f7:f9:ea:6e:1e:
        8e:32:25:f0:12:0f:a1:9e:eb:3d:52:d8:38:73:4b:97:b0:34:
        31:32:b3:1d:b9:d3:e4:bd:32:1a:01:a6:c2:ab:e8:d0:63:6a:
        fb:90:74:93:82:da:24:47:a7:f1:fe:41:e7:5e:7f:8a:58:d0:
        6f:4e:ae:27:9c:af:14:3b:34:20:30:94:a3:cc:5d:59:69:2e:
        06:93:23:3f:43:b3:2f:01:93:11:c8:86:5f:cd:be:19:07:f3:
        16:63:c6:50:7a:af:6d:cd:0b:d5:65:95:ab:66:54:94:d3:38:
        53:b5:d7:5a:89:d6:11:cc:a2:cf:ce:40:3d:fc:29:af:1a:ab:
        53:8b:43:94:ca:64:41:26:21:2a:04:fc:1a:14:ac:36:48:38:
        85:d1:a0:de:7c:d3:2b:7c:78:5d:c6:86:ea:95:0e:e9:e6:49:
        87:59:25:1b:0e:6d:4c:20:bd:52:2b:6f:aa:cd:f6:b1:ac:a0:
        48:57:1c:98:45:3e:1f:fc:2a:53:2d:5a:40:2f:f6:86:8d:1c:
        5e:c2:df:f3
-----BEGIN CERTIFICATE-----
MIIDXDCCAkSgAwIBAgIQG1fTcmfpmcC5YiumBlen0jANBgkqhkiG9w0BAQsFADAW
MRQwEgYDVQQDDAt0ZWFtNDU1LW5ldDAeFw0yMzExMDMyMDQ3MzFaFw0yNjEwMTgy
MDQ3MzFaMBkxFzAVBgNVBAMMDnRlYW00NTUtY2xpZW50MIIBIjANBgkqhkiG9w0B
AQEFAAOCAQ8AMIIBCgKCAQEAoGHbSpfar8YSrxeU78aFEPkxPRxyhSVNb/Df99VU
yVlWY2z5ChtDPLaMa4LZEhFiUuOOuc0y2jxvnarzYF7N0lX+dvTPb18lyz3iSUMT
Bwt5P78egLBYRH92tYzSDdUEMXHCpJetAhfaMT630Jj/f3xchAsAzC/4n6GwzOeI
3zblVLFsfwdTRiWBarBQ4/ThjLO7UyvidGKun9Hkkt9DMM5gNknLxbWp45HVB8cJ
+7H+w/hnP6oUxCt3kVZ/net25baarW2FxQBU5549s1I0thPwHWaD8xKY3ZGdbyCt
mhNbKU5PpBT9IQdP5Bh7IV9Ek5KqGAsdbwoNjrwxef0z/wIDAQABo4GiMIGfMAkG
A1UdEwQCMAAwHQYDVR0OBBYEFA/mXAzJH0PUEKdM7/dH2iwuxyTqMFEGA1UdIwRK
MEiAFJawqxkjmciI8giht1fbTDIo3dpSoRqkGDAWMRQwEgYDVQQDDAt0ZWFtNDU1
LW5ldIIUe+3Th4plz+jq8GpyWfqRk/nvUbQwEwYDVR0lBAwwCgYIKwYBBQUHAwIw
CwYDVR0PBAQDAgeAMA0GCSqGSIb3DQEBCwUAA4IBAQAmyvG1HxxHUD9k0SIP2j3I
+7A8q2a3n4oDtHK8WADDCWGgvgC1cYagC8PH/MN378AK9/nqbh6OMiXwEg+hnus9
Utg4c0uXsDQxMrMdudPkvTIaAabCq+jQY2r7kHSTgtokR6fx/kHnXn+KWNBvTq4n
nK8UOzQgMJSjzF1ZaS4GkyM/Q7MvAZMRyIZfzb4ZB/MWY8ZQeq9tzQvVZZWrZlSU
0zhTtddaidYRzKLPzkA9/CmvGqtTi0OUymRBJiEqBPwaFKw2SDiF0aDefNMrfHhd
xobqlQ7p5kmHWSUbDm1MIL1SK2+qzfaxrKBIVxyYRT4f/CpTLVpAL/aGjRxewt/z
-----END CERTIFICATE-----
