Certificate:
    Data:
        Version: 3 (0x2)
        Serial Number:
            1d:1d:43:9a:02:d6:94:98:f5:23:09:bd:05:7d:59:2f
        Signature Algorithm: sha256WithRSAEncryption
        Issuer: CN=team67-net
        Validity
            Not Before: Nov  3 20:40:23 2023 GMT
            Not After : Oct 18 20:40:23 2026 GMT
        Subject: CN=team67-client
        Subject Public Key Info:
            Public Key Algorithm: rsaEncryption
                Public-Key: (2048 bit)
                Modulus:
                    00:b2:fc:bc:50:6b:17:18:37:66:70:9c:0d:78:20:
                    cc:07:e6:40:82:3d:4b:ac:b1:f2:57:22:a1:66:cf:
                    68:2e:4f:0f:b9:18:be:37:49:7f:f2:10:7f:bb:e2:
                    92:39:cd:a2:87:ad:d2:cd:84:2b:e9:e0:a0:f8:a3:
                    ea:80:e7:e3:8e:29:b7:7f:e3:c0:dd:e3:fa:b2:ea:
                    88:a8:e0:b2:fd:d7:09:89:7a:fa:6d:fb:f1:e6:05:
                    3e:01:d9:8d:6d:ee:b6:67:65:fe:c8:af:4c:ff:a0:
                    cc:b3:de:4b:f7:cb:28:7d:34:1c:62:50:6f:93:cc:
                    6c:b7:c0:7c:b8:4e:7b:b4:b8:c2:93:25:6e:46:2e:
                    fa:05:55:2d:87:33:fc:94:07:f4:4a:7f:65:f0:12:
                    17:fd:ce:7a:6a:79:11:a4:3d:72:8b:fd:43:be:57:
                    05:72:e7:12:49:32:f0:5c:f5:7f:98:57:2b:d6:c2:
                    6e:33:1f:54:ae:6f:ae:9d:9c:11:1b:5f:cc:74:3d:
                    0c:1a:77:c5:8d:37:0a:f8:2a:b3:b3:27:3e:25:8a:
                    1b:05:b2:6f:07:5e:72:84:f9:67:c7:16:6b:48:0c:
                    bd:32:45:c9:1a:43:78:fc:64:fb:6a:ef:22:94:1b:
                    aa:f4:b9:6f:c1:5d:3f:48:02:aa:0e:68:6e:2f:6a:
                    6b:9f
                Exponent: 65537 (0x10001)
        X509v3 extensions:
            X509v3 Basic Constraints: 
                CA:FALSE
            X509v3 Subject Key Identifier: 
                63:D3:B7:C0:BD:36:7B:1B:71:D2:CC:C6:8A:ED:9A:9C:FB:CC:79:47
            X509v3 Authority Key Identifier: 
                keyid:4C:72:CF:FE:15:19:E6:2A:73:C6:AC:51:BC:01:81:9E:5A:39:88:E4
                DirName:/CN=team67-net
                serial:02:5E:8F:4D:52:95:7C:53:B6:85:FE:EB:A9:EC:EE:3D:7E:7B:43:8D
            X509v3 Extended Key Usage: 
                TLS Web Client Authentication
            X509v3 Key Usage: 
                Digital Signature
    Signature Algorithm: sha256WithRSAEncryption
    Signature Value:
        c9:0f:1a:5c:b4:98:1b:a3:4e:8d:53:b4:62:41:ea:34:08:73:
        29:b8:5f:5c:c3:0e:b4:b6:b3:98:26:5a:e4:c3:72:0c:aa:3a:
        c0:e3:b2:6b:34:08:52:00:7d:e2:4a:08:fb:72:26:d3:10:bd:
        7c:1b:58:5d:eb:aa:db:45:be:99:17:c2:1a:21:61:df:6e:ce:
        16:3b:4f:d2:0f:83:a0:ed:f6:b9:90:49:18:d5:cd:24:78:bc:
        de:86:92:1a:b6:d6:90:d0:cb:a3:a4:67:0c:15:93:4d:98:32:
        59:80:5e:48:f4:8f:e0:67:70:7e:14:e6:74:bc:2a:ad:c7:3a:
        39:44:f4:0f:ef:0c:9f:cd:d7:a0:56:2a:bf:62:2b:d8:02:5b:
        82:9b:b7:6b:3f:9f:c8:cd:39:88:32:73:ec:d8:39:10:40:28:
        8f:26:12:68:d0:9d:ae:ff:df:7b:cd:46:dd:fc:89:30:f0:89:
        4b:98:d8:4d:91:5e:70:e3:87:ea:db:97:81:03:50:05:9e:a8:
        84:cb:cc:9b:3b:42:de:e9:c4:92:6d:8e:2a:40:ab:94:36:7f:
        7a:ea:f2:62:6d:72:af:74:48:d6:0c:13:94:26:6c:67:df:1a:
        c6:84:cf:50:5c:88:eb:f6:b6:39:3f:90:27:c4:41:93:fe:f5:
        c1:ae:90:a9
-----BEGIN CERTIFICATE-----
MIIDWTCCAkGgAwIBAgIQHR1DmgLWlJj1Iwm9BX1ZLzANBgkqhkiG9w0BAQsFADAV
MRMwEQYDVQQDDAp0ZWFtNjctbmV0MB4XDTIzMTEwMzIwNDAyM1oXDTI2MTAxODIw
NDAyM1owGDEWMBQGA1UEAwwNdGVhbTY3LWNsaWVudDCCASIwDQYJKoZIhvcNAQEB
BQADggEPADCCAQoCggEBALL8vFBrFxg3ZnCcDXggzAfmQII9S6yx8lcioWbPaC5P
D7kYvjdJf/IQf7vikjnNooet0s2EK+ngoPij6oDn444pt3/jwN3j+rLqiKjgsv3X
CYl6+m378eYFPgHZjW3utmdl/sivTP+gzLPeS/fLKH00HGJQb5PMbLfAfLhOe7S4
wpMlbkYu+gVVLYcz/JQH9Ep/ZfASF/3Oemp5EaQ9cov9Q75XBXLnEkky8Fz1f5hX
K9bCbjMfVK5vrp2cERtfzHQ9DBp3xY03Cvgqs7MnPiWKGwWybwdecoT5Z8cWa0gM
vTJFyRpDePxk+2rvIpQbqvS5b8FdP0gCqg5obi9qa58CAwEAAaOBoTCBnjAJBgNV
HRMEAjAAMB0GA1UdDgQWBBRj07fAvTZ7G3HSzMaK7Zqc+8x5RzBQBgNVHSMESTBH
gBRMcs/+FRnmKnPGrFG8AYGeWjmI5KEZpBcwFTETMBEGA1UEAwwKdGVhbTY3LW5l
dIIUAl6PTVKVfFO2hf7rqezuPX57Q40wEwYDVR0lBAwwCgYIKwYBBQUHAwIwCwYD
VR0PBAQDAgeAMA0GCSqGSIb3DQEBCwUAA4IBAQDJDxpctJgbo06NU7RiQeo0CHMp
uF9cww60trOYJlrkw3IMqjrA47JrNAhSAH3iSgj7cibTEL18G1hd66rbRb6ZF8Ia
IWHfbs4WO0/SD4Og7fa5kEkY1c0keLzehpIattaQ0MujpGcMFZNNmDJZgF5I9I/g
Z3B+FOZ0vCqtxzo5RPQP7wyfzdegViq/YivYAluCm7drP5/IzTmIMnPs2DkQQCiP
JhJo0J2u/997zUbd/Ikw8IlLmNhNkV5w44fq25eBA1AFnqiEy8ybO0Le6cSSbY4q
QKuUNn966vJibXKvdEjWDBOUJmxn3xrGhM9QXIjr9rY5P5AnxEGT/vXBrpCp
-----END CERTIFICATE-----
