Certificate:
    Data:
        Version: 3 (0x2)
        Serial Number:
            38:6a:cc:c8:5b:4a:23:85:11:bf:fb:f9:41:98:2f:8f
        Signature Algorithm: sha256WithRSAEncryption
        Issuer: CN=team67-net
        Validity
            Not Before: Nov  3 20:40:24 2023 GMT
            Not After : Oct 18 20:40:24 2026 GMT
        Subject: CN=team67-server
        Subject Public Key Info:
            Public Key Algorithm: rsaEncryption
                Public-Key: (2048 bit)
                Modulus:
                    00:f7:04:3d:51:c7:ad:dd:7e:ad:74:43:3c:19:57:
                    51:30:42:03:89:d8:0e:ac:e4:3b:6b:f3:ad:69:50:
                    43:ef:61:f7:8c:59:74:cd:b4:9d:20:8d:d7:0c:1d:
                    23:75:39:5b:ab:83:00:e5:20:fc:e8:d0:32:5e:56:
                    e9:cd:af:22:43:15:1d:3a:bc:f6:88:2b:03:bc:57:
                    3c:11:2e:f6:bc:7b:81:5d:0f:7c:54:ae:d2:b4:2a:
                    cd:4a:5d:ec:99:92:b7:53:e0:b5:63:64:63:69:b5:
                    39:f4:c9:f7:49:9c:3f:77:c0:83:78:51:6d:8a:50:
                    e0:86:d3:b0:14:6a:3a:66:6a:6c:2e:8d:af:a4:09:
                    b9:ef:34:64:c8:bb:df:b4:26:51:d7:85:27:83:9b:
                    89:82:ac:c1:a5:dc:59:ca:fc:9c:cb:ea:e3:66:b4:
                    5b:2f:a9:2f:e7:88:a2:f6:d4:be:8a:9c:ee:d1:81:
                    b7:b3:29:11:fe:de:68:e0:f0:c2:d2:62:db:d0:be:
                    25:c3:e5:b1:67:29:ea:97:f3:94:05:4e:30:28:64:
                    58:30:94:14:d2:15:34:e4:83:90:d7:1a:7f:9f:25:
                    5b:fb:34:78:e3:2b:0f:c3:41:f9:82:fe:5b:9d:fe:
                    52:5b:27:9f:9b:36:7b:54:5b:46:8f:f6:78:c1:c7:
                    00:df
                Exponent: 65537 (0x10001)
        X509v3 extensions:
            X509v3 Basic Constraints: 
                CA:FALSE
            X509v3 Subject Key Identifier: 
                DC:C2:8B:7E:2F:36:3A:CA:80:C7:BD:4B:3E:F0:47:A5:54:99:47:B1
            X509v3 Authority Key Identifier: 
                keyid:4C:72:CF:FE:15:19:E6:2A:73:C6:AC:51:BC:01:81:9E:5A:39:88:E4
                DirName:/CN=team67-net
                serial:02:5E:8F:4D:52:95:7C:53:B6:85:FE:EB:A9:EC:EE:3D:7E:7B:43:8D
            X509v3 Extended Key Usage: 
                TLS Web Server Authentication
            X509v3 Key Usage: 
                Digital Signature, Key Encipherment
            X509v3 Subject Alternative Name: 
                DNS:team67-server
    Signature Algorithm: sha256WithRSAEncryption
    Signature Value:
        8c:ca:2a:9a:3f:a5:f4:24:07:a0:d4:d3:8f:98:07:6e:9f:2e:
        d8:b0:13:92:70:91:00:f7:27:c4:f1:51:a9:7e:3b:2f:20:cc:
        ac:ff:a0:84:61:4d:1f:a0:2f:e1:59:f0:26:bc:97:b7:53:e3:
        56:29:46:9b:4e:6a:44:96:57:66:ef:3f:0b:2d:77:e5:41:45:
        45:c5:c0:ed:6a:aa:8a:7d:db:36:1f:d8:7c:88:92:a6:a8:7e:
        db:83:81:c6:93:8c:54:6f:41:40:8c:ce:d5:f3:4a:f2:f1:6a:
        6d:44:77:1b:70:18:71:a6:e7:13:2b:c1:ae:9d:e4:ad:3e:3a:
        10:b1:8a:5f:8f:fd:83:c5:f3:f6:94:8d:c5:76:ed:ee:de:1d:
        43:65:77:0b:ac:b3:63:c6:1c:43:21:ef:a0:f3:23:c2:08:d1:
        44:c4:ea:c0:c1:bb:8d:7a:41:c1:56:2c:79:d2:7c:62:2b:6d:
        c1:ea:db:1e:6e:a5:f6:8c:6a:b5:c3:71:ae:d3:3c:2f:f5:ad:
        09:b6:30:67:e3:af:8d:3c:8d:d3:7f:e3:7f:00:81:e1:e7:5a:
        c4:41:42:da:69:ae:0c:ff:bd:88:17:bc:62:28:02:3b:2d:3c:
        cf:b1:c5:57:9d:86:d2:ff:bf:62:e7:19:c9:86:79:99:18:74:
        9d:75:87:ee
-----BEGIN CERTIFICATE-----
MIIDczCCAlugAwIBAgIQOGrMyFtKI4URv/v5QZgvjzANBgkqhkiG9w0BAQsFADAV
MRMwEQYDVQQDDAp0ZWFtNjctbmV0MB4XDTIzMTEwMzIwNDAyNFoXDTI2MTAxODIw
NDAyNFowGDEWMBQGA1UEAwwNdGVhbTY3LXNlcnZlcjCCASIwDQYJKoZIhvcNAQEB
BQADggEPADCCAQoCggEBAPcEPVHHrd1+rXRDPBlXUTBCA4nYDqzkO2vzrWlQQ+9h
94xZdM20nSCN1wwdI3U5W6uDAOUg/OjQMl5W6c2vIkMVHTq89ogrA7xXPBEu9rx7
gV0PfFSu0rQqzUpd7JmSt1PgtWNkY2m1OfTJ90mcP3fAg3hRbYpQ4IbTsBRqOmZq
bC6Nr6QJue80ZMi737QmUdeFJ4ObiYKswaXcWcr8nMvq42a0Wy+pL+eIovbUvoqc
7tGBt7MpEf7eaODwwtJi29C+JcPlsWcp6pfzlAVOMChkWDCUFNIVNOSDkNcaf58l
W/s0eOMrD8NB+YL+W53+Ulsnn5s2e1RbRo/2eMHHAN8CAwEAAaOBuzCBuDAJBgNV
HRMEAjAAMB0GA1UdDgQWBBTcwot+LzY6yoDHvUs+8EelVJlHsTBQBgNVHSMESTBH
gBRMcs/+FRnmKnPGrFG8AYGeWjmI5KEZpBcwFTETMBEGA1UEAwwKdGVhbTY3LW5l
dIIUAl6PTVKVfFO2hf7rqezuPX57Q40wEwYDVR0lBAwwCgYIKwYBBQUHAwEwCwYD
VR0PBAQDAgWgMBgGA1UdEQQRMA+CDXRlYW02Ny1zZXJ2ZXIwDQYJKoZIhvcNAQEL
BQADggEBAIzKKpo/pfQkB6DU04+YB26fLtiwE5JwkQD3J8TxUal+Oy8gzKz/oIRh
TR+gL+FZ8Ca8l7dT41YpRptOakSWV2bvPwstd+VBRUXFwO1qqop92zYf2HyIkqao
ftuDgcaTjFRvQUCMztXzSvLxam1EdxtwGHGm5xMrwa6d5K0+OhCxil+P/YPF8/aU
jcV27e7eHUNldwuss2PGHEMh76DzI8II0UTE6sDBu416QcFWLHnSfGIrbcHq2x5u
pfaMarXDca7TPC/1rQm2MGfjr408jdN/438AgeHnWsRBQtpprgz/vYgXvGIoAjst
PM+xxVedhtL/v2LnGcmGeZkYdJ11h+4=
-----END CERTIFICATE-----
