Certificate:
    Data:
        Version: 3 (0x2)
        Serial Number:
            7b:77:c5:15:d9:88:a2:09:42:fb:4e:fb:3e:6e:2c:be
        Signature Algorithm: sha256WithRSAEncryption
        Issuer: CN=team67-net
        Validity
            Not Before: Nov  4 11:28:38 2023 GMT
            Not After : Oct 19 11:28:38 2026 GMT
        Subject: CN=team67-client
        Subject Public Key Info:
            Public Key Algorithm: rsaEncryption
                Public-Key: (2048 bit)
                Modulus:
                    00:91:ce:6d:6b:fa:2a:fb:a4:68:f6:3a:34:dc:4a:
                    dc:5b:c1:c7:9e:a8:3c:b0:41:55:71:f7:82:44:98:
                    ba:db:08:8f:1b:78:2a:59:9b:0f:50:0e:f2:67:0c:
                    18:e0:21:6c:3a:a7:d9:e6:82:cb:9e:1b:4e:2f:cb:
                    cd:fb:ea:49:bd:b5:b5:c1:f5:51:1e:49:2a:89:e9:
                    6c:59:8c:bb:af:32:30:09:27:9e:a4:b1:16:cb:7b:
                    38:74:91:f1:34:ca:29:b7:39:47:7f:22:b3:b2:b9:
                    6e:f7:e9:67:ad:94:54:1e:ad:2c:21:0e:bc:55:33:
                    da:07:62:26:a6:0c:a1:ef:9d:2b:f3:73:00:b1:3e:
                    55:ca:06:26:09:a2:91:e8:76:4d:dd:ff:11:48:d8:
                    ac:65:40:70:58:78:3c:cf:cc:e1:f0:6a:51:82:c6:
                    e4:30:e7:a4:f7:72:cf:de:be:20:6f:eb:83:40:79:
                    a4:ba:0b:19:18:cb:83:a6:24:e4:b4:8d:3a:ae:4d:
                    90:63:3c:5e:f6:fd:4d:32:fa:5b:44:6d:f0:95:72:
                    39:92:89:e7:2b:99:d0:f3:05:74:9d:e1:9d:b7:09:
                    a7:37:3b:d5:4b:99:3f:17:6a:27:3f:b4:55:18:2e:
                    6f:99:81:b2:9f:50:72:ee:6c:94:68:46:57:2a:d2:
                    75:b9
                Exponent: 65537 (0x10001)
        X509v3 extensions:
            X509v3 Basic Constraints: 
                CA:FALSE
            X509v3 Subject Key Identifier: 
                CC:63:C7:31:F2:01:22:8F:92:B8:A8:0D:FF:5B:59:C6:D6:4C:8B:EC
            X509v3 Authority Key Identifier: 
                keyid:E0:31:E9:81:82:4E:F3:55:12:38:74:F4:47:68:42:24:4A:20:36:AF
                DirName:/CN=team67-net
                serial:48:97:4E:83:06:49:A0:01:38:E4:7F:85:29:CE:E9:F6:10:45:42:EB
            X509v3 Extended Key Usage: 
                TLS Web Client Authentication
            X509v3 Key Usage: 
                Digital Signature
    Signature Algorithm: sha256WithRSAEncryption
    Signature Value:
        31:92:a6:40:8b:17:89:be:67:2e:20:9a:b6:31:af:f5:64:c1:
        41:ce:48:f7:95:0d:f7:68:f1:58:69:f4:a7:c2:7d:a7:73:dc:
        0e:7d:fd:f6:2d:61:52:d5:5e:7b:0a:8b:af:c7:ca:74:2f:6c:
        a7:ea:45:6d:11:36:71:c1:8a:63:19:eb:95:91:df:5c:b1:8b:
        81:b4:c4:f8:0e:95:26:b4:c1:4d:4e:1b:04:4d:ae:00:a4:fd:
        b9:2f:cb:42:37:29:62:d8:98:1b:cc:0c:33:73:63:bb:f5:f5:
        b8:63:98:de:94:74:7e:56:4b:a8:02:02:2a:3d:7b:fa:f2:fb:
        29:05:e7:bb:b2:39:d6:e0:f5:29:e2:58:5f:4b:1b:80:7d:12:
        c5:35:9f:78:fb:d3:20:0f:df:97:e2:13:d5:d3:cd:03:4a:9f:
        af:e2:17:54:38:48:aa:ae:7a:44:c3:c2:72:86:1e:9c:85:5c:
        43:19:c2:be:df:b1:3f:ee:66:f0:f9:38:8b:ae:8b:2b:f4:80:
        6f:90:bc:e5:ef:dc:d2:a0:73:0d:b2:89:f4:bd:9b:05:be:c8:
        14:7b:5b:a2:49:b2:10:7a:91:a9:bf:a2:a8:42:0f:eb:53:29:
        4d:f0:e8:f0:71:d6:d1:fb:ab:6b:31:5a:b8:8b:00:12:ed:28:
        3f:bb:12:07
-----BEGIN CERTIFICATE-----
MIIDWTCCAkGgAwIBAgIQe3fFFdmIoglC+077Pm4svjANBgkqhkiG9w0BAQsFADAV
MRMwEQYDVQQDDAp0ZWFtNjctbmV0MB4XDTIzMTEwNDExMjgzOFoXDTI2MTAxOTEx
MjgzOFowGDEWMBQGA1UEAwwNdGVhbTY3LWNsaWVudDCCASIwDQYJKoZIhvcNAQEB
BQADggEPADCCAQoCggEBAJHObWv6KvukaPY6NNxK3FvBx56oPLBBVXH3gkSYutsI
jxt4KlmbD1AO8mcMGOAhbDqn2eaCy54bTi/LzfvqSb21tcH1UR5JKonpbFmMu68y
MAknnqSxFst7OHSR8TTKKbc5R38is7K5bvfpZ62UVB6tLCEOvFUz2gdiJqYMoe+d
K/NzALE+VcoGJgmikeh2Td3/EUjYrGVAcFh4PM/M4fBqUYLG5DDnpPdyz96+IG/r
g0B5pLoLGRjLg6Yk5LSNOq5NkGM8Xvb9TTL6W0Rt8JVyOZKJ5yuZ0PMFdJ3hnbcJ
pzc71UuZPxdqJz+0VRgub5mBsp9Qcu5slGhGVyrSdbkCAwEAAaOBoTCBnjAJBgNV
HRMEAjAAMB0GA1UdDgQWBBTMY8cx8gEij5K4qA3/W1nG1kyL7DBQBgNVHSMESTBH
gBTgMemBgk7zVRI4dPRHaEIkSiA2r6EZpBcwFTETMBEGA1UEAwwKdGVhbTY3LW5l
dIIUSJdOgwZJoAE45H+FKc7p9hBFQuswEwYDVR0lBAwwCgYIKwYBBQUHAwIwCwYD
VR0PBAQDAgeAMA0GCSqGSIb3DQEBCwUAA4IBAQAxkqZAixeJvmcuIJq2Ma/1ZMFB
zkj3lQ33aPFYafSnwn2nc9wOff32LWFS1V57Couvx8p0L2yn6kVtETZxwYpjGeuV
kd9csYuBtMT4DpUmtMFNThsETa4ApP25L8tCNyli2JgbzAwzc2O79fW4Y5jelHR+
VkuoAgIqPXv68vspBee7sjnW4PUp4lhfSxuAfRLFNZ94+9MgD9+X4hPV080DSp+v
4hdUOEiqrnpEw8Jyhh6chVxDGcK+37E/7mbw+TiLrosr9IBvkLzl79zSoHMNson0
vZsFvsgUe1uiSbIQepGpv6KoQg/rUylN8OjwcdbR+6trMVq4iwAS7Sg/uxIH
-----END CERTIFICATE-----
