Certificate:
    Data:
        Version: 3 (0x2)
        Serial Number:
            b9:c1:d2:16:2b:d3:30:4a:99:39:aa:f0:2c:f5:02:ec
        Signature Algorithm: sha256WithRSAEncryption
        Issuer: CN=team67-net
        Validity
            Not Before: Nov  4 10:41:34 2023 GMT
            Not After : Oct 19 10:41:34 2026 GMT
        Subject: CN=team67-client
        Subject Public Key Info:
            Public Key Algorithm: rsaEncryption
                Public-Key: (2048 bit)
                Modulus:
                    00:be:c7:b3:be:0f:43:33:90:b7:45:76:6f:66:24:
                    75:08:07:bb:3a:48:94:7c:ca:69:a1:d1:9c:33:50:
                    c4:0c:94:e3:cc:84:d6:43:41:54:de:73:a7:49:98:
                    d5:a0:cf:37:b7:3e:15:54:53:a9:07:48:fb:fb:2e:
                    63:bb:29:5d:e0:03:25:5f:6e:b3:bd:7f:27:8f:1c:
                    21:60:f7:81:f6:21:75:23:32:38:96:f4:04:af:92:
                    de:03:95:10:78:bd:d5:15:24:e2:0d:56:e4:d0:ae:
                    57:7c:6d:bf:2f:f7:c2:47:d4:77:76:09:8a:57:5c:
                    ce:e9:bb:72:b2:9f:80:d1:de:a3:eb:d6:ec:fd:1e:
                    5a:18:8e:ea:f5:98:48:ea:a8:40:f5:0a:2b:76:9a:
                    92:63:4e:40:3a:96:c9:a8:4c:e8:a5:b5:44:3d:4f:
                    a6:d3:53:f6:fe:39:03:bd:85:e9:01:38:e4:42:9d:
                    58:03:17:b7:6d:d6:7d:17:2c:ee:f8:f3:dc:15:75:
                    c7:1f:27:97:af:38:cf:7e:a3:a1:7a:c2:df:8c:7d:
                    8c:55:0a:d4:5b:ca:75:6d:7c:fd:da:a6:4d:a6:e4:
                    e7:32:d6:83:77:2e:45:e9:4d:9e:13:d3:d1:db:37:
                    e8:43:06:e3:d7:fb:f0:79:98:af:e3:fc:a0:4a:a8:
                    8c:cb
                Exponent: 65537 (0x10001)
        X509v3 extensions:
            X509v3 Basic Constraints: 
                CA:FALSE
            X509v3 Subject Key Identifier: 
                19:B2:36:45:3E:EF:A8:1F:F8:5E:3A:01:C5:85:DD:47:35:64:FF:7C
            X509v3 Authority Key Identifier: 
                keyid:D8:E1:24:0D:4B:9B:B2:6B:D2:13:A8:4E:2B:05:B2:DA:31:C6:36:07
                DirName:/CN=team67-net
                serial:33:0F:BF:94:58:F8:55:41:BE:5F:25:FA:F4:3E:71:DC:50:BC:E9:FA
            X509v3 Extended Key Usage: 
                TLS Web Client Authentication
            X509v3 Key Usage: 
                Digital Signature
    Signature Algorithm: sha256WithRSAEncryption
    Signature Value:
        1e:f8:1b:c2:bb:7c:c2:60:61:83:18:0a:b1:ac:4b:d6:f7:fc:
        c8:42:53:11:e3:09:3f:11:28:3e:cf:7b:cc:87:de:49:ea:1a:
        34:f1:ba:27:9b:76:f2:87:4b:8a:bf:71:48:4c:cd:56:55:b6:
        ca:33:1d:50:94:7c:56:da:63:de:2c:f1:dc:5f:b5:ed:56:5e:
        7d:4c:d7:bd:ec:0d:25:bd:f3:76:60:b6:06:4a:94:a8:d6:f1:
        0c:2a:86:6a:cc:57:79:c5:39:ce:40:db:68:1c:24:7b:a0:f1:
        1d:c5:15:04:6e:40:50:13:a7:6c:3b:81:e2:bb:7a:7a:78:10:
        fe:bc:26:9e:17:22:0e:07:d8:43:19:a8:e4:c4:57:8f:e3:aa:
        e5:56:a8:25:c8:8b:37:b0:74:df:e9:5e:c8:de:68:a5:4e:f4:
        d1:3a:69:ce:2e:41:99:ed:5c:25:f0:3a:de:84:b7:4a:3e:2d:
        cb:a4:bd:98:b1:37:44:66:bd:ae:05:20:32:42:e8:7c:58:03:
        18:a7:6e:68:ed:1a:28:99:47:27:b9:e3:6c:e5:45:69:b4:75:
        9c:1e:df:ef:b2:b4:bd:93:13:0f:94:50:40:56:61:be:e0:6f:
        e7:62:f9:32:ec:c8:7f:47:c2:e3:fd:47:8d:b6:66:45:db:69:
        4f:df:a7:bb
-----BEGIN CERTIFICATE-----
MIIDWjCCAkKgAwIBAgIRALnB0hYr0zBKmTmq8Cz1AuwwDQYJKoZIhvcNAQELBQAw
FTETMBEGA1UEAwwKdGVhbTY3LW5ldDAeFw0yMzExMDQxMDQxMzRaFw0yNjEwMTkx
MDQxMzRaMBgxFjAUBgNVBAMMDXRlYW02Ny1jbGllbnQwggEiMA0GCSqGSIb3DQEB
AQUAA4IBDwAwggEKAoIBAQC+x7O+D0MzkLdFdm9mJHUIB7s6SJR8ymmh0ZwzUMQM
lOPMhNZDQVTec6dJmNWgzze3PhVUU6kHSPv7LmO7KV3gAyVfbrO9fyePHCFg94H2
IXUjMjiW9ASvkt4DlRB4vdUVJOINVuTQrld8bb8v98JH1Hd2CYpXXM7pu3Kyn4DR
3qPr1uz9HloYjur1mEjqqED1Cit2mpJjTkA6lsmoTOiltUQ9T6bTU/b+OQO9hekB
OORCnVgDF7dt1n0XLO7489wVdccfJ5evOM9+o6F6wt+MfYxVCtRbynVtfP3apk2m
5Ocy1oN3LkXpTZ4T09HbN+hDBuPX+/B5mK/j/KBKqIzLAgMBAAGjgaEwgZ4wCQYD
VR0TBAIwADAdBgNVHQ4EFgQUGbI2RT7vqB/4XjoBxYXdRzVk/3wwUAYDVR0jBEkw
R4AU2OEkDUubsmvSE6hOKwWy2jHGNgehGaQXMBUxEzARBgNVBAMMCnRlYW02Ny1u
ZXSCFDMPv5RY+FVBvl8l+vQ+cdxQvOn6MBMGA1UdJQQMMAoGCCsGAQUFBwMCMAsG
A1UdDwQEAwIHgDANBgkqhkiG9w0BAQsFAAOCAQEAHvgbwrt8wmBhgxgKsaxL1vf8
yEJTEeMJPxEoPs97zIfeSeoaNPG6J5t28odLir9xSEzNVlW2yjMdUJR8Vtpj3izx
3F+17VZefUzXvewNJb3zdmC2BkqUqNbxDCqGasxXecU5zkDbaBwke6DxHcUVBG5A
UBOnbDuB4rt6engQ/rwmnhciDgfYQxmo5MRXj+Oq5VaoJciLN7B03+leyN5opU70
0Tppzi5Bme1cJfA63oS3Sj4ty6S9mLE3RGa9rgUgMkLofFgDGKduaO0aKJlHJ7nj
bOVFabR1nB7f77K0vZMTD5RQQFZhvuBv52L5MuzIf0fC4/1HjbZmRdtpT9+nuw==
-----END CERTIFICATE-----
