Certificate:
    Data:
        Version: 3 (0x2)
        Serial Number:
            15:61:01:8f:6e:fb:e1:2f:be:7a:fa:cc:2f:88:3e:10
        Signature Algorithm: sha256WithRSAEncryption
        Issuer: CN=team117-net
        Validity
            Not Before: Nov  3 20:41:14 2023 GMT
            Not After : Oct 18 20:41:14 2026 GMT
        Subject: CN=team117-client
        Subject Public Key Info:
            Public Key Algorithm: rsaEncryption
                Public-Key: (2048 bit)
                Modulus:
                    00:ac:5d:73:a7:5a:1f:7b:cb:c4:16:4d:3f:e5:00:
                    4a:45:b2:89:bd:10:40:e7:a7:cc:d9:ba:7d:81:46:
                    b4:cb:e6:64:c6:69:56:fa:40:0c:93:1a:13:49:79:
                    a4:c6:3f:59:4a:af:8a:7e:8b:f6:7d:3f:eb:f5:9c:
                    60:84:67:83:62:13:a0:56:49:dc:9d:5c:f8:13:83:
                    38:da:67:04:7d:db:51:0c:b5:23:91:bd:15:fb:e7:
                    28:78:db:c9:73:ff:f2:7b:90:22:a0:e0:f4:39:e3:
                    cb:cc:e8:c3:c3:ea:25:80:53:6e:b4:3b:00:35:ee:
                    6e:9b:ac:8e:67:03:30:eb:26:a3:bd:91:14:7b:b1:
                    ca:4c:98:63:4a:35:47:5c:e1:09:91:1e:e6:a5:fa:
                    ef:0e:e2:34:2e:07:ab:a2:cf:fe:63:69:59:21:c1:
                    66:f9:60:d7:b8:0c:f7:4a:ed:17:57:08:59:57:05:
                    b0:26:89:51:88:d0:4c:5b:34:fe:33:5d:b7:98:0b:
                    10:a3:c6:60:6b:58:0a:1f:fd:d4:e9:ac:d4:ee:1e:
                    d7:3e:92:e0:d1:dc:8c:12:f4:90:63:37:fd:7a:e2:
                    f8:c5:19:ba:b3:3e:04:fa:47:6b:98:19:88:06:35:
                    f1:5c:1e:82:df:6a:98:fb:37:45:36:6f:72:95:f0:
                    ed:33
                Exponent: 65537 (0x10001)
        X509v3 extensions:
            X509v3 Basic Constraints: 
                CA:FALSE
            X509v3 Subject Key Identifier: 
                3F:35:58:9B:87:F6:42:5C:3E:22:D8:A9:74:8D:97:47:CC:0E:97:DE
            X509v3 Authority Key Identifier: 
                keyid:EE:CF:AF:59:AA:83:4A:03:4C:B1:D0:65:3D:61:48:E9:F3:AC:69:27
                DirName:/CN=team117-net
                serial:10:55:75:39:80:ED:BC:ED:6C:44:02:E7:FC:C6:24:EA:A7:C4:5A:BC
            X509v3 Extended Key Usage: 
                TLS Web Client Authentication
            X509v3 Key Usage: 
                Digital Signature
    Signature Algorithm: sha256WithRSAEncryption
    Signature Value:
        16:b3:eb:d6:15:a0:e5:68:1d:b1:5b:df:be:61:84:09:a7:93:
        54:95:4a:44:45:ba:82:f9:a5:e8:4b:0f:74:9e:00:32:67:3a:
        49:ce:28:4f:ad:81:b7:c4:a3:3c:7c:b9:9d:e3:65:f7:d5:6f:
        cd:ba:00:10:64:95:72:59:2a:1d:84:17:f9:4a:79:e5:f1:36:
        f7:81:8f:86:2b:5e:8e:73:e3:72:31:52:ea:45:2b:c7:04:24:
        8e:c3:50:93:7e:0a:8b:9e:cf:6c:a2:b4:e9:65:0c:bf:cb:5d:
        31:3f:ea:e5:ab:0e:7e:4c:17:89:fd:a2:55:45:4c:fc:40:7d:
        03:f5:a8:ca:52:b4:a1:c7:cf:60:28:2a:e3:b3:c9:73:de:a7:
        ec:c9:1a:a5:86:fe:64:26:db:11:f5:0d:2b:ad:a7:56:58:e3:
        2a:2e:86:39:92:d1:54:3b:c0:7a:91:44:9e:df:42:2f:c4:82:
        67:3b:bb:71:f9:0b:eb:d7:d7:ed:d6:5b:24:01:eb:ba:51:cf:
        09:d8:36:16:ae:17:76:38:10:4a:8a:c1:6f:c8:8b:14:28:d5:
        97:46:be:fe:25:17:26:b8:fd:78:9a:38:d0:43:d1:77:03:8e:
        ff:be:af:6e:4f:57:a2:d9:ad:96:fd:c4:e3:76:c3:61:6a:63:
        09:b9:fb:58
-----BEGIN CERTIFICATE-----
MIIDXDCCAkSgAwIBAgIQFWEBj2774S++evrML4g+EDANBgkqhkiG9w0BAQsFADAW
MRQwEgYDVQQDDAt0ZWFtMTE3LW5ldDAeFw0yMzExMDMyMDQxMTRaFw0yNjEwMTgy
MDQxMTRaMBkxFzAVBgNVBAMMDnRlYW0xMTctY2xpZW50MIIBIjANBgkqhkiG9w0B
AQEFAAOCAQ8AMIIBCgKCAQEArF1zp1ofe8vEFk0/5QBKRbKJvRBA56fM2bp9gUa0
y+ZkxmlW+kAMkxoTSXmkxj9ZSq+Kfov2fT/r9ZxghGeDYhOgVkncnVz4E4M42mcE
fdtRDLUjkb0V++coeNvJc//ye5AioOD0OePLzOjDw+olgFNutDsANe5um6yOZwMw
6yajvZEUe7HKTJhjSjVHXOEJkR7mpfrvDuI0Lgeros/+Y2lZIcFm+WDXuAz3Su0X
VwhZVwWwJolRiNBMWzT+M123mAsQo8Zga1gKH/3U6azU7h7XPpLg0dyMEvSQYzf9
euL4xRm6sz4E+kdrmBmIBjXxXB6C32qY+zdFNm9ylfDtMwIDAQABo4GiMIGfMAkG
A1UdEwQCMAAwHQYDVR0OBBYEFD81WJuH9kJcPiLYqXSNl0fMDpfeMFEGA1UdIwRK
MEiAFO7Pr1mqg0oDTLHQZT1hSOnzrGknoRqkGDAWMRQwEgYDVQQDDAt0ZWFtMTE3
LW5ldIIUEFV1OYDtvO1sRALn/MYk6qfEWrwwEwYDVR0lBAwwCgYIKwYBBQUHAwIw
CwYDVR0PBAQDAgeAMA0GCSqGSIb3DQEBCwUAA4IBAQAWs+vWFaDlaB2xW9++YYQJ
p5NUlUpERbqC+aXoSw90ngAyZzpJzihPrYG3xKM8fLmd42X31W/NugAQZJVyWSod
hBf5Snnl8Tb3gY+GK16Oc+NyMVLqRSvHBCSOw1CTfgqLns9sorTpZQy/y10xP+rl
qw5+TBeJ/aJVRUz8QH0D9ajKUrShx89gKCrjs8lz3qfsyRqlhv5kJtsR9Q0rradW
WOMqLoY5ktFUO8B6kUSe30IvxIJnO7tx+Qvr19ft1lskAeu6Uc8J2DYWrhd2OBBK
isFvyIsUKNWXRr7+JRcmuP14mjjQQ9F3A47/vq9uT1ei2a2W/cTjdsNhamMJuftY
-----END CERTIFICATE-----
