Certificate:
    Data:
        Version: 3 (0x2)
        Serial Number:
            dc:51:07:a7:8b:96:a9:e3:2c:3c:ee:2b:02:59:a9:75
        Signature Algorithm: sha256WithRSAEncryption
        Issuer: CN=team117-net
        Validity
            Not Before: Nov  4 10:42:36 2023 GMT
            Not After : Oct 19 10:42:36 2026 GMT
        Subject: CN=team117-server
        Subject Public Key Info:
            Public Key Algorithm: rsaEncryption
                Public-Key: (2048 bit)
                Modulus:
                    00:a5:20:de:c7:af:ff:9d:ee:06:08:ba:ca:47:d1:
                    7d:6c:b5:41:e7:f7:1d:61:32:54:af:ed:4f:da:7b:
                    17:51:d2:57:6e:78:99:72:ab:51:2a:26:10:8d:5d:
                    33:c5:af:7b:4f:30:29:03:5c:b9:90:44:9c:c8:e2:
                    59:72:10:81:49:f1:e9:f7:ba:06:38:fa:5c:c7:f0:
                    7b:1e:9f:df:a0:7b:2f:35:1c:1a:d9:c7:dc:fa:76:
                    fc:fb:ae:0f:46:a9:5e:73:93:2c:92:fb:a8:9e:c7:
                    79:e1:af:13:12:ae:ab:de:22:d9:b3:aa:23:5d:ac:
                    df:0e:5a:83:cd:04:00:a1:6b:ec:f0:d3:25:cb:16:
                    54:2a:e9:4f:87:62:17:1a:d5:3a:1e:ae:32:60:a2:
                    79:21:9e:67:67:5d:cb:20:8a:89:b9:2c:94:09:ac:
                    87:61:06:34:16:44:19:8d:46:a4:5c:6b:49:5b:ba:
                    28:fd:07:0a:d7:08:c8:42:9a:83:0f:fd:22:73:ee:
                    89:1c:a3:ac:2a:92:eb:9d:be:ce:05:bb:ec:3d:19:
                    13:81:08:7e:d5:c1:0e:27:46:c5:e8:3a:01:53:8c:
                    df:07:19:78:18:9d:4f:28:f3:40:09:8a:69:45:ea:
                    88:ce:21:8c:fb:1f:1b:f0:6b:d1:24:8c:47:b6:0c:
                    3f:f7
                Exponent: 65537 (0x10001)
        X509v3 extensions:
            X509v3 Basic Constraints: 
                CA:FALSE
            X509v3 Subject Key Identifier: 
                CC:DC:51:A0:2C:1B:57:CC:90:15:9F:7D:E1:83:E5:96:0E:36:E2:AC
            X509v3 Authority Key Identifier: 
                keyid:AF:18:56:43:07:A7:4E:E1:81:1B:C7:AF:42:8B:C1:AB:7E:1E:DD:44
                DirName:/CN=team117-net
                serial:78:5E:0D:30:6C:94:63:69:30:48:C8:D0:27:43:4E:63:FB:1B:B0:75
            X509v3 Extended Key Usage: 
                TLS Web Server Authentication
            X509v3 Key Usage: 
                Digital Signature, Key Encipherment
            X509v3 Subject Alternative Name: 
                DNS:team117-server
    Signature Algorithm: sha256WithRSAEncryption
    Signature Value:
        0b:0f:c2:1f:14:d4:7c:39:4c:8e:e5:12:64:20:33:45:6e:76:
        5c:75:2c:a8:47:dd:72:d3:bd:0a:24:e7:84:f7:3b:82:1b:1c:
        f6:9d:81:09:3c:9f:18:c8:92:56:45:13:f5:97:3d:7a:3a:74:
        57:37:02:0f:cf:68:10:7e:9a:2c:06:c7:e9:a9:96:97:f1:1b:
        d1:cf:64:1e:c8:65:71:dc:4e:78:45:3d:c7:37:97:4a:58:61:
        14:ef:82:e7:85:dd:ce:53:1e:c2:44:f0:d0:c2:20:a6:75:e4:
        b7:02:58:3c:5c:ff:13:9a:3b:39:74:a8:12:ef:bd:07:fd:6d:
        f3:81:bd:4c:27:27:c4:d7:a5:85:1e:de:24:40:75:89:5a:c8:
        97:de:7a:c1:38:5b:4e:0e:ce:3f:06:30:3e:95:14:94:4a:09:
        89:cc:1f:d3:40:7d:10:af:3b:be:75:7e:26:94:da:8c:2d:41:
        e7:62:5f:53:53:f8:fa:7b:20:d9:61:1e:a2:92:bc:58:60:9a:
        9d:9e:41:f6:07:08:60:46:a5:87:03:12:d4:48:54:8b:11:55:
        7b:74:79:3c:03:66:9c:ec:b9:93:3f:0b:0a:4f:e3:48:64:fb:
        9c:ba:5d:8f:27:2d:2c:a6:57:70:22:1d:aa:1a:42:45:18:aa:
        2d:8b:40:9c
-----BEGIN CERTIFICATE-----
MIIDeDCCAmCgAwIBAgIRANxRB6eLlqnjLDzuKwJZqXUwDQYJKoZIhvcNAQELBQAw
FjEUMBIGA1UEAwwLdGVhbTExNy1uZXQwHhcNMjMxMTA0MTA0MjM2WhcNMjYxMDE5
MTA0MjM2WjAZMRcwFQYDVQQDDA50ZWFtMTE3LXNlcnZlcjCCASIwDQYJKoZIhvcN
AQEBBQADggEPADCCAQoCggEBAKUg3sev/53uBgi6ykfRfWy1Qef3HWEyVK/tT9p7
F1HSV254mXKrUSomEI1dM8Wve08wKQNcuZBEnMjiWXIQgUnx6fe6Bjj6XMfwex6f
36B7LzUcGtnH3Pp2/PuuD0apXnOTLJL7qJ7HeeGvExKuq94i2bOqI12s3w5ag80E
AKFr7PDTJcsWVCrpT4diFxrVOh6uMmCieSGeZ2ddyyCKibkslAmsh2EGNBZEGY1G
pFxrSVu6KP0HCtcIyEKagw/9InPuiRyjrCqS652+zgW77D0ZE4EIftXBDidGxeg6
AVOM3wcZeBidTyjzQAmKaUXqiM4hjPsfG/Br0SSMR7YMP/cCAwEAAaOBvTCBujAJ
BgNVHRMEAjAAMB0GA1UdDgQWBBTM3FGgLBtXzJAVn33hg+WWDjbirDBRBgNVHSME
SjBIgBSvGFZDB6dO4YEbx69Ci8Grfh7dRKEapBgwFjEUMBIGA1UEAwwLdGVhbTEx
Ny1uZXSCFHheDTBslGNpMEjI0CdDTmP7G7B1MBMGA1UdJQQMMAoGCCsGAQUFBwMB
MAsGA1UdDwQEAwIFoDAZBgNVHREEEjAQgg50ZWFtMTE3LXNlcnZlcjANBgkqhkiG
9w0BAQsFAAOCAQEACw/CHxTUfDlMjuUSZCAzRW52XHUsqEfdctO9CiTnhPc7ghsc
9p2BCTyfGMiSVkUT9Zc9ejp0VzcCD89oEH6aLAbH6amWl/Eb0c9kHshlcdxOeEU9
xzeXSlhhFO+C54XdzlMewkTw0MIgpnXktwJYPFz/E5o7OXSoEu+9B/1t84G9TCcn
xNelhR7eJEB1iVrIl956wThbTg7OPwYwPpUUlEoJicwf00B9EK87vnV+JpTajC1B
52JfU1P4+nsg2WEeopK8WGCanZ5B9gcIYEalhwMS1EhUixFVe3R5PANmnOy5kz8L
Ck/jSGT7nLpdjyctLKZXcCIdqhpCRRiqLYtAnA==
-----END CERTIFICATE-----
