Certificate:
    Data:
        Version: 3 (0x2)
        Serial Number:
            34:cf:03:85:58:f6:b8:4f:b3:a5:e6:3f:9b:cc:06:6e
        Signature Algorithm: sha256WithRSAEncryption
        Issuer: CN=team201-net
        Validity
            Not Before: Nov  4 11:31:35 2023 GMT
            Not After : Oct 19 11:31:35 2026 GMT
        Subject: CN=team201-client
        Subject Public Key Info:
            Public Key Algorithm: rsaEncryption
                Public-Key: (2048 bit)
                Modulus:
                    00:a3:b2:64:51:80:b4:5f:a6:3d:cf:24:0c:a7:75:
                    77:0d:db:93:26:a1:df:56:f5:45:77:db:99:db:1e:
                    7b:c1:91:77:51:fa:fc:08:3a:12:ae:8b:75:fd:05:
                    8b:76:fd:8c:ce:85:85:c2:3b:e0:82:08:a9:c0:03:
                    82:c7:66:18:8c:e7:5c:dd:45:29:31:37:93:01:1c:
                    9a:e7:21:56:e4:35:c0:9f:a9:a5:14:83:b0:7d:4c:
                    fe:60:2d:ba:21:23:7a:d0:fd:01:a4:4d:8a:c3:ae:
                    eb:ad:be:70:23:a1:7f:37:e3:f8:e8:bc:e4:30:2d:
                    ab:b1:e6:d6:4d:1e:cc:e8:a0:8f:6a:29:b1:41:7d:
                    56:a9:c4:0f:43:56:20:46:d0:7f:b2:76:33:a3:3a:
                    5b:a3:9f:e2:68:fc:3f:f4:07:22:99:58:5d:0a:ea:
                    a0:d2:51:0d:a8:4e:47:41:89:c2:ff:bd:69:b9:db:
                    a5:0d:1e:61:c0:b8:12:9f:fc:30:ed:1d:5c:90:28:
                    73:7c:43:bf:2d:23:34:53:5d:1b:b9:eb:ba:a9:b5:
                    bc:b1:91:2e:90:d5:1d:bb:7c:1e:ca:75:a6:77:89:
                    72:0f:5f:20:00:a3:ec:00:21:61:6f:17:46:73:1c:
                    1f:5f:75:a2:f0:01:56:0b:e1:bb:c1:90:d3:5f:78:
                    c5:e7
                Exponent: 65537 (0x10001)
        X509v3 extensions:
            X509v3 Basic Constraints: 
                CA:FALSE
            X509v3 Subject Key Identifier: 
                56:17:25:9F:90:C2:A0:89:95:58:FD:1D:EC:D2:A3:68:41:0D:53:C6
            X509v3 Authority Key Identifier: 
                keyid:F3:F4:53:91:1C:9E:D1:65:CD:18:57:28:ED:B6:EE:BF:CF:64:9A:F5
                DirName:/CN=team201-net
                serial:2C:14:57:56:6C:88:6C:F0:35:F8:30:B5:28:67:0E:94:1C:3C:5E:0A
            X509v3 Extended Key Usage: 
                TLS Web Client Authentication
            X509v3 Key Usage: 
                Digital Signature
    Signature Algorithm: sha256WithRSAEncryption
    Signature Value:
        5b:9c:15:56:1f:b6:a8:95:86:d5:c5:36:54:54:3b:33:a7:61:
        64:7e:bc:78:50:fc:bf:b9:6c:63:e7:3a:e3:b7:8d:83:aa:f3:
        82:7e:8f:c9:06:c4:56:47:9b:59:68:e1:e0:fc:cf:3d:2a:59:
        f5:7d:50:de:c5:fe:d7:7c:4c:71:85:bd:5e:31:2e:12:8e:59:
        a6:2d:4a:d8:91:65:8d:55:8d:84:a9:99:c5:42:2c:c4:fe:99:
        69:70:e5:ed:4d:9d:f9:5c:55:b2:47:cf:c4:2e:ac:44:62:c0:
        ee:70:af:02:ca:2e:ab:d9:c5:66:a1:73:e6:c5:20:d2:30:e7:
        b6:ac:b1:2e:c7:31:40:88:5f:cb:8f:34:6f:47:73:e5:e5:5b:
        09:70:35:a5:c2:85:d9:a9:c5:a3:e1:02:82:4f:57:31:1e:15:
        e1:e1:93:37:82:86:11:1f:a5:bf:2e:38:7a:99:09:b9:94:96:
        e6:16:f6:33:a7:04:29:48:18:dc:53:96:06:50:ee:ca:a8:e6:
        39:67:98:2b:83:6c:65:63:c5:14:eb:2f:f3:e8:c6:ca:6d:9b:
        1a:d4:d6:b6:76:ec:b9:ef:55:9f:40:0e:91:d1:68:ed:56:14:
        73:2a:9c:83:fc:2e:f5:16:a9:33:91:ed:f7:23:d4:a9:23:95:
        d9:32:3a:d6
-----BEGIN CERTIFICATE-----
MIIDXDCCAkSgAwIBAgIQNM8DhVj2uE+zpeY/m8wGbjANBgkqhkiG9w0BAQsFADAW
MRQwEgYDVQQDDAt0ZWFtMjAxLW5ldDAeFw0yMzExMDQxMTMxMzVaFw0yNjEwMTkx
MTMxMzVaMBkxFzAVBgNVBAMMDnRlYW0yMDEtY2xpZW50MIIBIjANBgkqhkiG9w0B
AQEFAAOCAQ8AMIIBCgKCAQEAo7JkUYC0X6Y9zyQMp3V3DduTJqHfVvVFd9uZ2x57
wZF3Ufr8CDoSrot1/QWLdv2MzoWFwjvgggipwAOCx2YYjOdc3UUpMTeTARya5yFW
5DXAn6mlFIOwfUz+YC26ISN60P0BpE2Kw67rrb5wI6F/N+P46LzkMC2rsebWTR7M
6KCPaimxQX1WqcQPQ1YgRtB/snYzozpbo5/iaPw/9AcimVhdCuqg0lENqE5HQYnC
/71pudulDR5hwLgSn/ww7R1ckChzfEO/LSM0U10bueu6qbW8sZEukNUdu3weynWm
d4lyD18gAKPsACFhbxdGcxwfX3Wi8AFWC+G7wZDTX3jF5wIDAQABo4GiMIGfMAkG
A1UdEwQCMAAwHQYDVR0OBBYEFFYXJZ+QwqCJlVj9HezSo2hBDVPGMFEGA1UdIwRK
MEiAFPP0U5EcntFlzRhXKO227r/PZJr1oRqkGDAWMRQwEgYDVQQDDAt0ZWFtMjAx
LW5ldIIULBRXVmyIbPA1+DC1KGcOlBw8XgowEwYDVR0lBAwwCgYIKwYBBQUHAwIw
CwYDVR0PBAQDAgeAMA0GCSqGSIb3DQEBCwUAA4IBAQBbnBVWH7aolYbVxTZUVDsz
p2Fkfrx4UPy/uWxj5zrjt42DqvOCfo/JBsRWR5tZaOHg/M89Kln1fVDexf7XfExx
hb1eMS4SjlmmLUrYkWWNVY2EqZnFQizE/plpcOXtTZ35XFWyR8/ELqxEYsDucK8C
yi6r2cVmoXPmxSDSMOe2rLEuxzFAiF/LjzRvR3Pl5VsJcDWlwoXZqcWj4QKCT1cx
HhXh4ZM3goYRH6W/Ljh6mQm5lJbmFvYzpwQpSBjcU5YGUO7KqOY5Z5grg2xlY8UU
6y/z6MbKbZsa1Na2duy571WfQA6R0WjtVhRzKpyD/C71Fqkzke33I9SpI5XZMjrW
-----END CERTIFICATE-----
