Certificate:
    Data:
        Version: 3 (0x2)
        Serial Number:
            4c:ad:38:5a:fc:35:e9:d1:e7:b9:2d:95:03:33:93:bd
        Signature Algorithm: sha256WithRSAEncryption
        Issuer: CN=team201-net
        Validity
            Not Before: Nov  4 10:44:19 2023 GMT
            Not After : Oct 19 10:44:19 2026 GMT
        Subject: CN=team201-server
        Subject Public Key Info:
            Public Key Algorithm: rsaEncryption
                Public-Key: (2048 bit)
                Modulus:
                    00:bb:46:5a:89:22:72:c6:5d:af:82:88:92:ca:06:
                    40:43:ad:34:18:b5:d0:54:2f:b2:26:58:c4:32:9d:
                    0f:df:ad:67:e0:78:0f:68:bb:bb:6b:74:72:c7:ad:
                    40:6e:bd:82:53:1e:9f:01:4e:ae:2f:9b:6e:ab:d3:
                    0f:20:2c:f1:45:c5:51:2d:9d:99:13:6e:48:10:f6:
                    64:67:4b:87:54:65:9f:a7:e5:a0:1e:c6:70:50:73:
                    38:22:0f:13:70:12:f0:83:6c:34:93:0f:6f:bf:97:
                    c3:06:3e:d0:ca:73:67:8c:95:54:71:c1:58:52:45:
                    06:ef:d8:46:bf:5f:df:2e:44:57:58:da:5a:9f:fe:
                    db:6b:84:4d:57:fa:da:0c:8f:54:b2:3d:88:f3:d1:
                    99:58:e7:e7:5d:f4:db:dd:65:b1:7e:5c:be:8a:9d:
                    41:ce:87:8a:b9:dc:9c:8f:ef:f3:f4:e3:5b:bc:da:
                    07:95:67:40:45:d0:51:73:aa:0e:3a:5d:95:59:ff:
                    63:1f:f4:32:b0:26:70:6d:9a:af:cd:d6:d9:1b:9a:
                    b1:0a:e4:c7:3e:76:16:cc:36:d0:3b:36:f2:49:0a:
                    a2:e2:75:a6:56:f7:c7:29:90:a7:f5:49:26:7e:e2:
                    be:a2:b7:f9:6a:86:83:f9:0c:52:62:7a:aa:43:47:
                    cc:95
                Exponent: 65537 (0x10001)
        X509v3 extensions:
            X509v3 Basic Constraints: 
                CA:FALSE
            X509v3 Subject Key Identifier: 
                F3:53:09:82:5D:A1:D5:C2:82:0A:C8:87:20:86:95:EE:05:EA:A6:BC
            X509v3 Authority Key Identifier: 
                keyid:8E:AB:45:3A:B9:B5:EC:86:2E:E7:68:FB:65:39:B5:6C:BA:22:33:09
                DirName:/CN=team201-net
                serial:6E:CC:C2:C7:6A:35:8C:FD:9B:60:56:83:92:BA:DC:AB:52:EE:2C:6F
            X509v3 Extended Key Usage: 
                TLS Web Server Authentication
            X509v3 Key Usage: 
                Digital Signature, Key Encipherment
            X509v3 Subject Alternative Name: 
                DNS:team201-server
    Signature Algorithm: sha256WithRSAEncryption
    Signature Value:
        8f:b2:a5:b0:3e:29:b9:fe:e3:ef:dc:25:48:1a:79:eb:86:c9:
        a5:bf:17:29:6f:6b:d1:f0:c0:dc:f1:c5:73:ca:ae:83:41:8c:
        eb:b5:03:d3:9e:68:1b:f6:a5:ff:1a:c9:55:ef:c4:34:ec:5c:
        d1:a9:83:e5:18:ac:bb:ba:8d:7e:2e:35:94:6c:1a:c8:f3:61:
        c3:44:37:2c:9c:16:57:1e:d3:20:56:83:de:3b:70:de:02:35:
        35:1c:05:22:cd:e9:11:66:55:b5:99:83:b0:19:62:71:b2:94:
        23:4f:9e:9b:f3:ec:9a:d2:35:86:e1:a5:2f:3d:bb:d4:05:ec:
        58:59:80:a2:3b:80:e9:a1:6e:33:1a:25:ae:4e:80:1e:56:72:
        09:46:c0:92:ad:0c:db:09:e7:f5:08:b8:84:2a:4b:f4:17:01:
        6a:e2:ef:08:38:8f:90:20:f9:23:30:d7:23:dd:7b:bc:9c:49:
        59:da:6d:6e:ea:e3:51:19:58:af:ff:62:bc:86:1f:41:a6:b3:
        39:71:43:86:18:d5:49:4f:dd:46:f6:4b:87:c4:ca:24:c3:82:
        74:d5:9e:08:32:b8:86:c5:3e:a6:c2:28:65:ce:df:7f:93:ca:
        7b:02:50:5e:54:f2:89:61:3d:64:d3:f3:fc:be:81:0e:c7:e5:
        a0:12:5b:ee
-----BEGIN CERTIFICATE-----
MIIDdzCCAl+gAwIBAgIQTK04Wvw16dHnuS2VAzOTvTANBgkqhkiG9w0BAQsFADAW
MRQwEgYDVQQDDAt0ZWFtMjAxLW5ldDAeFw0yMzExMDQxMDQ0MTlaFw0yNjEwMTkx
MDQ0MTlaMBkxFzAVBgNVBAMMDnRlYW0yMDEtc2VydmVyMIIBIjANBgkqhkiG9w0B
AQEFAAOCAQ8AMIIBCgKCAQEAu0ZaiSJyxl2vgoiSygZAQ600GLXQVC+yJljEMp0P
361n4HgPaLu7a3Ryx61Abr2CUx6fAU6uL5tuq9MPICzxRcVRLZ2ZE25IEPZkZ0uH
VGWfp+WgHsZwUHM4Ig8TcBLwg2w0kw9vv5fDBj7QynNnjJVUccFYUkUG79hGv1/f
LkRXWNpan/7ba4RNV/raDI9Usj2I89GZWOfnXfTb3WWxfly+ip1BzoeKudycj+/z
9ONbvNoHlWdARdBRc6oOOl2VWf9jH/QysCZwbZqvzdbZG5qxCuTHPnYWzDbQOzby
SQqi4nWmVvfHKZCn9UkmfuK+orf5aoaD+QxSYnqqQ0fMlQIDAQABo4G9MIG6MAkG
A1UdEwQCMAAwHQYDVR0OBBYEFPNTCYJdodXCggrIhyCGle4F6qa8MFEGA1UdIwRK
MEiAFI6rRTq5teyGLudo+2U5tWy6IjMJoRqkGDAWMRQwEgYDVQQDDAt0ZWFtMjAx
LW5ldIIUbszCx2o1jP2bYFaDkrrcq1LuLG8wEwYDVR0lBAwwCgYIKwYBBQUHAwEw
CwYDVR0PBAQDAgWgMBkGA1UdEQQSMBCCDnRlYW0yMDEtc2VydmVyMA0GCSqGSIb3
DQEBCwUAA4IBAQCPsqWwPim5/uPv3CVIGnnrhsmlvxcpb2vR8MDc8cVzyq6DQYzr
tQPTnmgb9qX/GslV78Q07FzRqYPlGKy7uo1+LjWUbBrI82HDRDcsnBZXHtMgVoPe
O3DeAjU1HAUizekRZlW1mYOwGWJxspQjT56b8+ya0jWG4aUvPbvUBexYWYCiO4Dp
oW4zGiWuToAeVnIJRsCSrQzbCef1CLiEKkv0FwFq4u8IOI+QIPkjMNcj3Xu8nElZ
2m1u6uNRGViv/2K8hh9BprM5cUOGGNVJT91G9kuHxMokw4J01Z4IMriGxT6mwihl
zt9/k8p7AlBeVPKJYT1k0/P8voEOx+WgElvu
-----END CERTIFICATE-----
