Certificate:
    Data:
        Version: 3 (0x2)
        Serial Number:
            51:4f:ba:a1:25:35:c3:66:61:7b:ee:32:e6:68:3a:1b
        Signature Algorithm: sha256WithRSAEncryption
        Issuer: CN=team201-net
        Validity
            Not Before: Nov  3 20:42:55 2023 GMT
            Not After : Oct 18 20:42:55 2026 GMT
        Subject: CN=team201-client
        Subject Public Key Info:
            Public Key Algorithm: rsaEncryption
                Public-Key: (2048 bit)
                Modulus:
                    00:a6:6a:4f:c3:99:3e:3b:43:b8:65:d3:b0:ff:ab:
                    17:af:69:ff:d6:47:60:28:08:29:d8:0c:24:4c:75:
                    3e:ee:ec:36:cb:19:f1:f0:3a:07:1a:62:dc:f5:57:
                    8b:2b:1e:a7:56:de:bf:47:70:c3:3e:49:7e:4d:82:
                    bb:db:7e:e9:fb:44:b4:e6:e4:8e:4e:38:c6:dc:77:
                    2c:83:c3:80:73:48:7c:21:50:af:50:a7:5d:d4:aa:
                    e8:b7:c5:c9:80:b3:03:be:e8:da:7a:2b:23:9f:b4:
                    cd:aa:62:91:cf:16:78:1a:ca:c0:fd:67:64:e2:dc:
                    1a:83:7f:ed:fb:0b:2b:aa:26:2b:ae:12:4b:be:e7:
                    5c:b2:a7:8c:c1:d4:91:c7:3d:41:c6:ac:c0:8c:9e:
                    af:4d:bd:12:2b:91:df:ea:28:01:61:92:d6:4f:8c:
                    27:5b:7e:7d:c0:36:0e:6c:ac:90:08:08:7c:3b:f5:
                    66:79:38:58:00:5e:c3:ac:ae:5f:c5:fa:7d:bc:e9:
                    cd:70:24:a9:fe:92:03:74:63:6e:e8:43:bf:a1:7d:
                    6e:77:a3:8e:0c:ad:6b:35:5a:fc:81:08:f3:b4:19:
                    51:73:b1:60:eb:5b:bf:24:c3:87:bc:c5:b9:02:94:
                    a9:9b:4a:a7:0b:ef:13:53:8d:56:ff:94:e0:61:c5:
                    f2:bf
                Exponent: 65537 (0x10001)
        X509v3 extensions:
            X509v3 Basic Constraints: 
                CA:FALSE
            X509v3 Subject Key Identifier: 
                02:B5:ED:F6:FE:D5:3C:35:D6:68:21:FA:99:72:C0:4B:5D:60:39:9D
            X509v3 Authority Key Identifier: 
                keyid:86:AD:A8:B7:2F:5B:01:7B:EB:AA:06:37:92:56:52:CB:97:6A:22:58
                DirName:/CN=team201-net
                serial:71:35:90:07:DA:E1:EA:9C:5B:08:A1:9F:4F:4C:7D:A4:EE:BE:AE:B3
            X509v3 Extended Key Usage: 
                TLS Web Client Authentication
            X509v3 Key Usage: 
                Digital Signature
    Signature Algorithm: sha256WithRSAEncryption
    Signature Value:
        35:f3:bf:59:5d:40:d4:99:ea:02:b4:64:78:1d:bd:7e:05:3c:
        ef:e1:04:ab:00:50:91:04:8c:cd:a6:be:f8:31:69:47:ac:bf:
        11:e0:df:1a:31:c3:67:8f:75:36:cf:16:ea:d2:c6:c4:e3:20:
        af:a5:62:fb:a3:64:ff:89:d2:e9:83:68:12:af:14:85:62:86:
        81:57:10:3f:e4:5e:84:51:e9:99:f6:f7:80:d2:4b:d4:7a:3c:
        09:10:cb:9c:64:8b:2c:8a:a2:aa:30:e4:61:b1:3c:57:b4:0a:
        e2:d7:d2:da:ca:a0:ff:b0:ec:cf:52:e4:55:4d:a4:e0:15:1a:
        8c:8c:a8:09:3c:c8:88:24:b9:4c:3b:7e:33:7a:f6:eb:3d:1d:
        04:ca:0c:b0:ca:72:bf:b2:08:83:0d:93:7a:56:72:e4:f4:a8:
        e8:49:f2:9f:12:69:5e:ed:fd:55:fd:25:c5:61:75:77:c8:13:
        aa:42:8d:0e:a1:21:b3:3e:85:67:d3:21:58:08:43:ee:31:44:
        5d:7f:5a:6a:0d:d4:8f:ec:d6:24:e9:8f:7f:62:df:52:22:43:
        04:f6:e6:f2:81:48:96:44:85:6c:3b:10:85:4b:e9:82:36:76:
        33:62:97:e6:75:5d:d3:e9:5a:a8:59:89:43:9e:f3:be:e8:61:
        ab:b7:49:f4
-----BEGIN CERTIFICATE-----
MIIDXDCCAkSgAwIBAgIQUU+6oSU1w2Zhe+4y5mg6GzANBgkqhkiG9w0BAQsFADAW
MRQwEgYDVQQDDAt0ZWFtMjAxLW5ldDAeFw0yMzExMDMyMDQyNTVaFw0yNjEwMTgy
MDQyNTVaMBkxFzAVBgNVBAMMDnRlYW0yMDEtY2xpZW50MIIBIjANBgkqhkiG9w0B
AQEFAAOCAQ8AMIIBCgKCAQEApmpPw5k+O0O4ZdOw/6sXr2n/1kdgKAgp2AwkTHU+
7uw2yxnx8DoHGmLc9VeLKx6nVt6/R3DDPkl+TYK7237p+0S05uSOTjjG3Hcsg8OA
c0h8IVCvUKdd1Krot8XJgLMDvujaeisjn7TNqmKRzxZ4GsrA/Wdk4twag3/t+wsr
qiYrrhJLvudcsqeMwdSRxz1BxqzAjJ6vTb0SK5Hf6igBYZLWT4wnW359wDYObKyQ
CAh8O/VmeThYAF7DrK5fxfp9vOnNcCSp/pIDdGNu6EO/oX1ud6OODK1rNVr8gQjz
tBlRc7Fg61u/JMOHvMW5ApSpm0qnC+8TU41W/5TgYcXyvwIDAQABo4GiMIGfMAkG
A1UdEwQCMAAwHQYDVR0OBBYEFAK17fb+1Tw11mgh+plywEtdYDmdMFEGA1UdIwRK
MEiAFIatqLcvWwF766oGN5JWUsuXaiJYoRqkGDAWMRQwEgYDVQQDDAt0ZWFtMjAx
LW5ldIIUcTWQB9rh6pxbCKGfT0x9pO6+rrMwEwYDVR0lBAwwCgYIKwYBBQUHAwIw
CwYDVR0PBAQDAgeAMA0GCSqGSIb3DQEBCwUAA4IBAQA1879ZXUDUmeoCtGR4Hb1+
BTzv4QSrAFCRBIzNpr74MWlHrL8R4N8aMcNnj3U2zxbq0sbE4yCvpWL7o2T/idLp
g2gSrxSFYoaBVxA/5F6EUemZ9veA0kvUejwJEMucZIssiqKqMORhsTxXtAri19La
yqD/sOzPUuRVTaTgFRqMjKgJPMiIJLlMO34zevbrPR0EygywynK/sgiDDZN6VnLk
9KjoSfKfEmle7f1V/SXFYXV3yBOqQo0OoSGzPoVn0yFYCEPuMURdf1pqDdSP7NYk
6Y9/Yt9SIkME9ubygUiWRIVsOxCFS+mCNnYzYpfmdV3T6VqoWYlDnvO+6GGrt0n0
-----END CERTIFICATE-----
