Certificate:
    Data:
        Version: 3 (0x2)
        Serial Number:
            e9:6e:be:d8:b9:8b:fa:c0:12:ba:6b:2e:cf:df:14:09
        Signature Algorithm: sha256WithRSAEncryption
        Issuer: CN=team201-net
        Validity
            Not Before: Nov  4 10:44:18 2023 GMT
            Not After : Oct 19 10:44:18 2026 GMT
        Subject: CN=team201-client
        Subject Public Key Info:
            Public Key Algorithm: rsaEncryption
                Public-Key: (2048 bit)
                Modulus:
                    00:b6:9e:d4:b5:12:6a:c0:e6:59:09:58:75:90:b2:
                    ae:83:3d:10:1c:6b:c9:9f:ec:f3:92:cb:2c:f3:e2:
                    d5:8b:26:43:77:ea:13:6e:9a:51:87:42:55:03:48:
                    13:e6:58:72:7b:ba:51:47:86:ab:57:a5:26:65:63:
                    99:78:55:3d:b1:5c:a8:1c:f2:bd:5f:2c:16:28:0d:
                    33:bf:4b:5b:20:0c:36:f8:1b:47:07:1f:06:f0:d9:
                    6e:6f:7e:ba:e0:c9:a2:fa:9f:1c:f3:60:c8:ac:a3:
                    4c:08:8e:2f:24:0d:38:ac:ac:80:a0:e6:3f:66:71:
                    d5:69:a7:21:fe:af:94:e9:26:b8:eb:bc:a6:55:5f:
                    d6:29:13:eb:85:11:e9:3b:30:48:9b:80:06:4e:1d:
                    84:72:2a:90:bb:32:17:f3:86:a6:77:6b:48:b1:b1:
                    dc:1f:7c:24:38:64:8d:51:0d:c8:97:a6:19:14:25:
                    a8:19:44:c9:c4:24:ba:41:66:21:4a:1a:1c:00:5a:
                    14:e2:1f:8d:31:78:80:48:ac:3f:8c:de:41:f3:fd:
                    c0:63:eb:a9:ef:27:01:fa:95:54:59:07:be:b9:3a:
                    58:bf:f6:13:ca:42:04:6d:b0:12:32:ab:70:12:82:
                    a1:0f:a1:9b:89:2f:c1:c5:94:ec:50:81:d8:65:9e:
                    38:3d
                Exponent: 65537 (0x10001)
        X509v3 extensions:
            X509v3 Basic Constraints: 
                CA:FALSE
            X509v3 Subject Key Identifier: 
                6C:F6:00:6C:3D:71:44:55:C2:6E:76:9A:74:CF:F7:6A:5D:0C:DB:75
            X509v3 Authority Key Identifier: 
                keyid:8E:AB:45:3A:B9:B5:EC:86:2E:E7:68:FB:65:39:B5:6C:BA:22:33:09
                DirName:/CN=team201-net
                serial:6E:CC:C2:C7:6A:35:8C:FD:9B:60:56:83:92:BA:DC:AB:52:EE:2C:6F
            X509v3 Extended Key Usage: 
                TLS Web Client Authentication
            X509v3 Key Usage: 
                Digital Signature
    Signature Algorithm: sha256WithRSAEncryption
    Signature Value:
        0c:00:fa:43:47:60:75:9e:69:80:f9:e4:41:78:ff:38:bf:76:
        f4:8d:48:f6:8a:3d:67:85:c4:c7:6a:0b:f2:5e:26:77:1f:8b:
        67:8d:7a:06:82:b4:96:1b:78:f9:dd:84:8d:b4:ad:4d:10:d2:
        73:b9:d4:13:05:78:19:1c:e4:5f:3d:20:0b:da:4c:1e:be:2f:
        22:ec:77:0c:82:8b:90:61:b3:75:6d:aa:85:ac:1a:ba:ed:9f:
        9d:ca:f8:72:cf:a8:e5:13:9d:d6:19:3b:9a:2d:c8:db:b6:28:
        e9:01:46:a4:dc:1c:41:2f:9e:fd:f1:f2:0a:12:72:99:78:ce:
        73:2b:bc:de:9d:e3:ec:60:41:b8:33:04:d6:f7:c6:7e:8b:a8:
        34:42:bc:91:4c:c6:99:fa:0c:87:ca:7d:f8:5b:3f:e5:c3:16:
        38:33:c9:86:22:7e:4f:9a:a3:6e:d3:ff:3e:3f:c7:c0:6c:06:
        23:0d:c9:92:10:fd:0a:29:49:ae:d6:83:4c:b1:bc:8e:fb:46:
        46:56:4b:bf:53:93:06:6d:f2:18:e0:5a:ba:67:7f:97:ca:9e:
        d2:37:44:b9:de:64:44:0a:71:3b:fc:2f:17:6c:79:4b:c4:dc:
        4d:a5:11:cf:ab:60:04:0f:b1:d9:30:fd:45:3a:bc:d8:fd:46:
        1b:f8:20:4a
-----BEGIN CERTIFICATE-----
MIIDXTCCAkWgAwIBAgIRAOluvti5i/rAErprLs/fFAkwDQYJKoZIhvcNAQELBQAw
FjEUMBIGA1UEAwwLdGVhbTIwMS1uZXQwHhcNMjMxMTA0MTA0NDE4WhcNMjYxMDE5
MTA0NDE4WjAZMRcwFQYDVQQDDA50ZWFtMjAxLWNsaWVudDCCASIwDQYJKoZIhvcN
AQEBBQADggEPADCCAQoCggEBALae1LUSasDmWQlYdZCyroM9EBxryZ/s85LLLPPi
1YsmQ3fqE26aUYdCVQNIE+ZYcnu6UUeGq1elJmVjmXhVPbFcqBzyvV8sFigNM79L
WyAMNvgbRwcfBvDZbm9+uuDJovqfHPNgyKyjTAiOLyQNOKysgKDmP2Zx1WmnIf6v
lOkmuOu8plVf1ikT64UR6TswSJuABk4dhHIqkLsyF/OGpndrSLGx3B98JDhkjVEN
yJemGRQlqBlEycQkukFmIUoaHABaFOIfjTF4gEisP4zeQfP9wGPrqe8nAfqVVFkH
vrk6WL/2E8pCBG2wEjKrcBKCoQ+hm4kvwcWU7FCB2GWeOD0CAwEAAaOBojCBnzAJ
BgNVHRMEAjAAMB0GA1UdDgQWBBRs9gBsPXFEVcJudpp0z/dqXQzbdTBRBgNVHSME
SjBIgBSOq0U6ubXshi7naPtlObVsuiIzCaEapBgwFjEUMBIGA1UEAwwLdGVhbTIw
MS1uZXSCFG7MwsdqNYz9m2BWg5K63KtS7ixvMBMGA1UdJQQMMAoGCCsGAQUFBwMC
MAsGA1UdDwQEAwIHgDANBgkqhkiG9w0BAQsFAAOCAQEADAD6Q0dgdZ5pgPnkQXj/
OL929I1I9oo9Z4XEx2oL8l4mdx+LZ416BoK0lht4+d2EjbStTRDSc7nUEwV4GRzk
Xz0gC9pMHr4vIux3DIKLkGGzdW2qhawauu2fncr4cs+o5ROd1hk7mi3I27Yo6QFG
pNwcQS+e/fHyChJymXjOcyu83p3j7GBBuDME1vfGfouoNEK8kUzGmfoMh8p9+Fs/
5cMWODPJhiJ+T5qjbtP/Pj/HwGwGIw3JkhD9CilJrtaDTLG8jvtGRlZLv1OTBm3y
GOBaumd/l8qe0jdEud5kRApxO/wvF2x5S8TcTaURz6tgBA+x2TD9RTq82P1GG/gg
Sg==
-----END CERTIFICATE-----
