Certificate:
    Data:
        Version: 3 (0x2)
        Serial Number:
            57:3f:80:03:b1:ca:9d:6b:a9:83:ba:e5:af:3a:c5:70
        Signature Algorithm: sha256WithRSAEncryption
        Issuer: CN=team454-net
        Validity
            Not Before: Nov  4 10:48:43 2023 GMT
            Not After : Oct 19 10:48:43 2026 GMT
        Subject: CN=team454-server
        Subject Public Key Info:
            Public Key Algorithm: rsaEncryption
                Public-Key: (2048 bit)
                Modulus:
                    00:d7:fd:d3:93:d3:19:b4:2e:e9:05:a3:7a:de:45:
                    29:a8:45:d2:5e:f3:09:f2:04:d1:36:90:fa:d2:b5:
                    9f:7a:69:ad:4b:5b:97:62:e1:8d:55:7b:b2:66:67:
                    28:fc:0d:09:d0:7a:bd:d4:6a:cc:b6:cb:3b:7d:e5:
                    20:1e:c8:f3:46:14:3f:ed:c9:07:79:87:80:3f:89:
                    5c:29:dd:bb:f9:13:79:9c:72:1d:1e:fc:94:c5:a1:
                    02:93:34:22:ae:35:0e:cf:e1:22:58:8f:ab:62:de:
                    1e:79:88:ab:4e:99:87:e3:56:b3:b1:27:bf:09:b3:
                    27:00:97:ff:a1:ad:7f:71:aa:fb:9e:79:0e:f9:2c:
                    93:73:9a:96:21:f2:78:b1:da:b4:ac:2b:95:ee:d4:
                    92:5d:05:e4:56:6e:ca:c2:0c:c9:79:e8:b3:52:78:
                    3a:9b:88:69:81:08:48:0e:1e:90:e9:ab:8c:e5:4a:
                    13:0b:3e:45:8f:b7:df:84:45:8b:56:6e:20:e4:b2:
                    29:2a:0c:a3:d2:b7:06:88:dc:cb:89:bb:e1:15:12:
                    bc:fa:f5:a0:bb:2c:94:b8:6b:6e:02:e2:cc:58:5b:
                    32:e5:09:1d:c2:a7:7f:da:3b:b6:7d:3c:53:25:8a:
                    41:32:2e:3b:14:1f:01:d9:04:c0:8c:3e:87:05:3a:
                    83:2b
                Exponent: 65537 (0x10001)
        X509v3 extensions:
            X509v3 Basic Constraints: 
                CA:FALSE
            X509v3 Subject Key Identifier: 
                1D:D1:F4:08:43:48:AC:C7:6B:6E:7C:D4:F5:EA:24:98:DC:F8:EA:E8
            X509v3 Authority Key Identifier: 
                keyid:ED:CA:CC:8C:B4:03:6F:AA:F2:BF:09:CD:97:3E:9B:2D:5D:2E:B3:9B
                DirName:/CN=team454-net
                serial:62:07:41:6D:1C:0C:41:E9:79:D6:70:FB:FC:82:BF:1C:CF:A7:D0:F1
            X509v3 Extended Key Usage: 
                TLS Web Server Authentication
            X509v3 Key Usage: 
                Digital Signature, Key Encipherment
            X509v3 Subject Alternative Name: 
                DNS:team454-server
    Signature Algorithm: sha256WithRSAEncryption
    Signature Value:
        b4:bb:73:ff:04:f3:3a:0a:c6:57:5b:30:e5:d6:ed:cc:d6:de:
        cd:50:94:00:5d:4b:52:4a:cd:bd:db:11:65:f3:92:31:89:0a:
        b9:27:4d:90:c6:2b:55:a8:16:3e:89:41:45:95:00:51:80:3d:
        28:8a:2f:21:e7:d3:ee:67:59:82:0f:ad:20:84:1e:fe:76:8f:
        48:b5:c9:5d:ce:d3:f2:f2:7d:46:f9:ad:f2:55:03:e5:2c:88:
        d7:b3:76:6f:6e:3e:21:bb:6b:5d:ef:cb:d8:07:34:7e:e2:ec:
        b2:7d:47:d0:76:a5:e5:29:ed:03:41:c0:db:19:b6:e1:24:61:
        92:10:34:86:0b:89:0a:eb:f1:d1:ef:65:63:3c:7e:53:57:b6:
        f0:e9:67:75:77:3b:a3:08:25:de:36:c6:a6:d3:a1:e4:0c:02:
        30:ea:97:53:21:c9:38:f8:d7:cc:08:4f:e3:18:ef:7f:aa:44:
        61:45:39:ed:56:c3:f8:08:c2:09:40:97:f8:2d:0a:fc:0c:90:
        0d:60:d3:57:5b:55:42:f0:03:69:a2:2c:2f:bc:7d:c3:26:1d:
        76:67:55:b6:92:81:21:5a:a4:84:a0:38:1c:2e:79:c6:de:d4:
        68:bc:07:a8:5a:b4:d2:93:66:36:14:0b:51:30:33:04:23:88:
        d8:91:0b:02
-----BEGIN CERTIFICATE-----
MIIDdzCCAl+gAwIBAgIQVz+AA7HKnWupg7rlrzrFcDANBgkqhkiG9w0BAQsFADAW
MRQwEgYDVQQDDAt0ZWFtNDU0LW5ldDAeFw0yMzExMDQxMDQ4NDNaFw0yNjEwMTkx
MDQ4NDNaMBkxFzAVBgNVBAMMDnRlYW00NTQtc2VydmVyMIIBIjANBgkqhkiG9w0B
AQEFAAOCAQ8AMIIBCgKCAQEA1/3Tk9MZtC7pBaN63kUpqEXSXvMJ8gTRNpD60rWf
emmtS1uXYuGNVXuyZmco/A0J0Hq91GrMtss7feUgHsjzRhQ/7ckHeYeAP4lcKd27
+RN5nHIdHvyUxaECkzQirjUOz+EiWI+rYt4eeYirTpmH41azsSe/CbMnAJf/oa1/
car7nnkO+SyTc5qWIfJ4sdq0rCuV7tSSXQXkVm7KwgzJeeizUng6m4hpgQhIDh6Q
6auM5UoTCz5Fj7ffhEWLVm4g5LIpKgyj0rcGiNzLibvhFRK8+vWguyyUuGtuAuLM
WFsy5Qkdwqd/2ju2fTxTJYpBMi47FB8B2QTAjD6HBTqDKwIDAQABo4G9MIG6MAkG
A1UdEwQCMAAwHQYDVR0OBBYEFB3R9AhDSKzHa2581PXqJJjc+OroMFEGA1UdIwRK
MEiAFO3KzIy0A2+q8r8JzZc+my1dLrOboRqkGDAWMRQwEgYDVQQDDAt0ZWFtNDU0
LW5ldIIUYgdBbRwMQel51nD7/IK/HM+n0PEwEwYDVR0lBAwwCgYIKwYBBQUHAwEw
CwYDVR0PBAQDAgWgMBkGA1UdEQQSMBCCDnRlYW00NTQtc2VydmVyMA0GCSqGSIb3
DQEBCwUAA4IBAQC0u3P/BPM6CsZXWzDl1u3M1t7NUJQAXUtSSs292xFl85IxiQq5
J02QxitVqBY+iUFFlQBRgD0oii8h59PuZ1mCD60ghB7+do9ItcldztPy8n1G+a3y
VQPlLIjXs3Zvbj4hu2td78vYBzR+4uyyfUfQdqXlKe0DQcDbGbbhJGGSEDSGC4kK
6/HR72VjPH5TV7bw6Wd1dzujCCXeNsam06HkDAIw6pdTIck4+NfMCE/jGO9/qkRh
RTntVsP4CMIJQJf4LQr8DJANYNNXW1VC8ANpoiwvvH3DJh12Z1W2koEhWqSEoDgc
LnnG3tRovAeoWrTSk2Y2FAtRMDMEI4jYkQsC
-----END CERTIFICATE-----
