Certificate:
    Data:
        Version: 3 (0x2)
        Serial Number:
            6b:41:a6:8a:0f:14:02:e2:60:b7:c4:96:48:f9:21:9d
        Signature Algorithm: sha256WithRSAEncryption
        Issuer: CN=team454-net
        Validity
            Not Before: Nov  4 11:37:43 2023 GMT
            Not After : Oct 19 11:37:43 2026 GMT
        Subject: CN=team454-server
        Subject Public Key Info:
            Public Key Algorithm: rsaEncryption
                Public-Key: (2048 bit)
                Modulus:
                    00:b1:fa:94:71:d6:9e:22:78:27:6b:14:08:83:88:
                    b5:c8:a3:f4:35:88:8e:cd:d3:48:95:9e:93:28:7a:
                    f3:e3:66:4d:2e:c2:af:df:9c:c3:2f:37:fa:a5:29:
                    88:a7:8f:6c:ce:cc:fa:b2:de:32:24:05:27:47:21:
                    e6:5e:2a:ff:af:fa:9b:90:af:2c:80:15:4e:ff:a5:
                    d0:d5:0f:ba:33:91:a2:0d:3e:fb:f3:cf:99:8a:6a:
                    fd:74:0f:e8:db:f4:2c:3f:1f:64:3b:35:76:6c:9e:
                    4a:f8:fd:b7:7f:dc:ca:c8:74:10:72:fc:86:fc:7c:
                    59:cb:dd:71:cd:a1:e9:a9:cb:02:a0:b5:00:1b:ec:
                    4a:99:87:a1:7b:fa:40:32:b1:3e:41:2a:a6:ca:63:
                    d7:af:87:ea:23:98:c6:c3:c7:f6:c1:07:6e:a1:4d:
                    3d:a1:36:98:02:28:06:f8:5e:12:0b:a0:15:3d:90:
                    cc:54:fd:ed:67:88:a3:97:34:1e:3a:db:ee:99:35:
                    60:f8:76:e0:54:31:ce:38:ad:10:3e:f8:35:58:43:
                    3c:57:8f:25:7a:00:63:4e:60:01:15:82:a2:ec:0d:
                    63:6c:25:20:5f:fb:58:9b:87:d1:74:e9:fb:a5:93:
                    a3:92:32:7b:fb:b4:0e:13:10:d1:70:12:58:b5:8f:
                    59:63
                Exponent: 65537 (0x10001)
        X509v3 extensions:
            X509v3 Basic Constraints: 
                CA:FALSE
            X509v3 Subject Key Identifier: 
                9E:DC:45:CB:A2:80:25:2B:9E:13:25:B3:BC:C5:89:C6:8D:49:0D:AC
            X509v3 Authority Key Identifier: 
                keyid:76:1A:06:87:D8:2C:E4:1D:36:33:38:EF:2B:CE:62:B5:A0:2D:93:B7
                DirName:/CN=team454-net
                serial:5C:5D:3F:95:6E:63:C0:CD:92:44:AA:4A:C4:5D:65:75:AC:19:AA:FE
            X509v3 Extended Key Usage: 
                TLS Web Server Authentication
            X509v3 Key Usage: 
                Digital Signature, Key Encipherment
            X509v3 Subject Alternative Name: 
                DNS:team454-server
    Signature Algorithm: sha256WithRSAEncryption
    Signature Value:
        3d:de:2d:82:da:43:38:8f:f7:76:59:8a:7f:98:96:90:d3:99:
        38:b3:6f:c4:6a:4f:bd:16:b6:40:43:f9:0b:55:0e:4c:17:2b:
        8e:17:89:6e:02:52:4f:7b:b6:7f:d0:74:1f:15:56:08:3d:20:
        e8:a2:ce:51:f4:8f:37:01:73:2b:ab:e2:30:1c:7e:63:9d:cb:
        70:ff:b8:66:5a:f0:99:cc:bd:72:86:1c:c7:46:f0:41:8e:64:
        56:0a:3a:8e:60:11:78:5b:c8:22:09:be:f7:1e:65:c8:d1:de:
        b2:4c:dc:b7:7d:b7:7d:92:d5:58:bc:e0:35:df:5a:46:3c:b3:
        f7:59:02:d4:e3:e2:87:d9:3c:4a:e5:7a:3a:7a:46:23:65:28:
        af:d6:00:69:d4:00:f5:72:97:6f:4b:25:d0:4c:a9:5f:d8:af:
        8c:32:bc:e4:9c:8c:89:23:db:a5:78:a4:48:43:a3:af:e4:85:
        92:27:d5:36:ac:19:15:e9:3f:23:47:1f:d3:b8:a3:4c:52:44:
        6c:a3:a9:45:01:1a:99:a9:ec:50:36:50:86:51:a8:62:e9:df:
        2b:24:50:43:38:89:91:8d:6d:41:c6:7f:7a:01:fe:db:4f:a3:
        7c:93:24:39:8a:06:84:d8:90:a7:a9:ef:cd:32:5d:c0:4c:a1:
        25:b8:78:26
-----BEGIN CERTIFICATE-----
MIIDdzCCAl+gAwIBAgIQa0Gmig8UAuJgt8SWSPkhnTANBgkqhkiG9w0BAQsFADAW
MRQwEgYDVQQDDAt0ZWFtNDU0LW5ldDAeFw0yMzExMDQxMTM3NDNaFw0yNjEwMTkx
MTM3NDNaMBkxFzAVBgNVBAMMDnRlYW00NTQtc2VydmVyMIIBIjANBgkqhkiG9w0B
AQEFAAOCAQ8AMIIBCgKCAQEAsfqUcdaeIngnaxQIg4i1yKP0NYiOzdNIlZ6TKHrz
42ZNLsKv35zDLzf6pSmIp49szsz6st4yJAUnRyHmXir/r/qbkK8sgBVO/6XQ1Q+6
M5GiDT7788+Zimr9dA/o2/QsPx9kOzV2bJ5K+P23f9zKyHQQcvyG/HxZy91xzaHp
qcsCoLUAG+xKmYehe/pAMrE+QSqmymPXr4fqI5jGw8f2wQduoU09oTaYAigG+F4S
C6AVPZDMVP3tZ4ijlzQeOtvumTVg+HbgVDHOOK0QPvg1WEM8V48legBjTmABFYKi
7A1jbCUgX/tYm4fRdOn7pZOjkjJ7+7QOExDRcBJYtY9ZYwIDAQABo4G9MIG6MAkG
A1UdEwQCMAAwHQYDVR0OBBYEFJ7cRcuigCUrnhMls7zFicaNSQ2sMFEGA1UdIwRK
MEiAFHYaBofYLOQdNjM47yvOYrWgLZO3oRqkGDAWMRQwEgYDVQQDDAt0ZWFtNDU0
LW5ldIIUXF0/lW5jwM2SRKpKxF1ldawZqv4wEwYDVR0lBAwwCgYIKwYBBQUHAwEw
CwYDVR0PBAQDAgWgMBkGA1UdEQQSMBCCDnRlYW00NTQtc2VydmVyMA0GCSqGSIb3
DQEBCwUAA4IBAQA93i2C2kM4j/d2WYp/mJaQ05k4s2/Eak+9FrZAQ/kLVQ5MFyuO
F4luAlJPe7Z/0HQfFVYIPSDoos5R9I83AXMrq+IwHH5jnctw/7hmWvCZzL1yhhzH
RvBBjmRWCjqOYBF4W8giCb73HmXI0d6yTNy3fbd9ktVYvOA131pGPLP3WQLU4+KH
2TxK5Xo6ekYjZSiv1gBp1AD1cpdvSyXQTKlf2K+MMrzknIyJI9uleKRIQ6Ov5IWS
J9U2rBkV6T8jRx/TuKNMUkRso6lFARqZqexQNlCGUahi6d8rJFBDOImRjW1Bxn96
Af7bT6N8kyQ5igaE2JCnqe/NMl3ATKEluHgm
-----END CERTIFICATE-----
