Certificate:
    Data:
        Version: 3 (0x2)
        Serial Number:
            89:c1:f9:d3:fc:fe:8d:2e:21:a6:e8:7b:d9:cf:43:07
        Signature Algorithm: sha256WithRSAEncryption
        Issuer: CN=team454-net
        Validity
            Not Before: Nov  3 20:47:30 2023 GMT
            Not After : Oct 18 20:47:30 2026 GMT
        Subject: CN=team454-server
        Subject Public Key Info:
            Public Key Algorithm: rsaEncryption
                Public-Key: (2048 bit)
                Modulus:
                    00:b9:51:b4:31:6b:a7:3f:ab:1d:9b:99:b7:5d:4f:
                    05:e7:9b:f4:6c:e6:d7:0b:c9:b3:45:5d:d1:0b:c7:
                    c4:fe:e8:de:5c:a7:bd:c9:67:3f:26:ea:3f:9f:72:
                    40:95:be:de:cd:97:75:af:d5:01:58:b2:50:2c:c6:
                    0c:63:06:6a:3b:ca:4d:a4:21:ac:6c:c3:4e:49:76:
                    40:b7:86:d2:2f:40:fb:d7:b1:51:52:b5:4e:13:44:
                    66:9e:a0:b1:54:14:96:39:c4:6b:f7:22:23:92:0c:
                    a7:15:c6:59:88:5c:d6:2f:b4:77:a1:6a:cb:b8:26:
                    9b:b7:05:0c:f2:1b:3c:bc:af:f3:05:18:d2:1a:14:
                    ca:85:c8:c7:02:80:bf:fd:b1:96:5e:98:c8:ec:23:
                    4d:5c:73:91:66:8b:b7:89:19:ae:f1:fd:8f:91:a3:
                    8f:32:21:ae:70:14:47:8f:0d:26:33:52:91:bd:23:
                    80:97:c0:04:9b:27:ab:76:d3:41:ac:76:29:7d:7a:
                    10:85:75:b1:10:6c:58:a3:a2:d7:d9:2b:73:1e:bb:
                    5e:71:58:35:2d:a8:77:27:1b:d2:17:24:8b:0a:ff:
                    72:7d:2d:38:eb:b2:c2:55:c0:1c:e7:06:2c:d0:53:
                    8d:c8:c6:b8:57:08:3a:11:46:8c:48:80:f3:29:05:
                    e2:b7
                Exponent: 65537 (0x10001)
        X509v3 extensions:
            X509v3 Basic Constraints: 
                CA:FALSE
            X509v3 Subject Key Identifier: 
                BC:AB:FF:CA:1E:72:BB:5C:6B:16:71:C3:D0:DB:50:89:0A:61:BD:9E
            X509v3 Authority Key Identifier: 
                keyid:27:D5:2A:FA:A6:F1:15:E7:9A:14:39:C1:25:48:71:87:AC:8D:53:98
                DirName:/CN=team454-net
                serial:48:39:0B:1B:E6:DA:C1:24:4B:B8:A3:C5:44:69:DE:E5:57:1B:88:DE
            X509v3 Extended Key Usage: 
                TLS Web Server Authentication
            X509v3 Key Usage: 
                Digital Signature, Key Encipherment
            X509v3 Subject Alternative Name: 
                DNS:team454-server
    Signature Algorithm: sha256WithRSAEncryption
    Signature Value:
        45:20:b7:df:fe:9f:13:ce:e8:f5:e5:d3:ab:c7:f5:6b:82:7a:
        87:71:98:0a:4e:98:1e:a0:fb:40:9d:73:3e:a5:d4:7d:81:21:
        5a:df:b6:c1:f1:aa:9d:4d:f4:56:0c:00:36:11:88:3e:e9:7c:
        6e:85:65:dd:99:a8:c3:2c:73:f6:3e:2b:32:50:7b:3a:7c:22:
        34:d4:b9:d2:8b:6a:39:df:d3:c7:fe:de:f8:86:f8:6c:cc:69:
        02:44:59:85:82:f2:e6:d5:9c:d6:a3:b3:5f:75:9a:62:11:7f:
        61:a5:62:63:5d:7e:29:95:d0:a2:1b:f2:b6:6b:4c:b7:70:2c:
        ae:94:09:0e:f2:db:88:c4:5f:d3:d4:3e:e6:87:cc:e4:ab:b5:
        f5:29:21:77:1e:b5:46:d8:64:08:5e:eb:f2:29:20:34:4f:b3:
        11:f9:dd:60:f4:b1:bf:64:72:91:7e:31:97:86:d4:0e:32:be:
        56:42:2a:85:e6:62:f5:63:21:d2:29:e5:73:9a:40:eb:76:96:
        9b:c1:56:30:a5:91:fc:67:71:c7:64:d4:f1:d9:4d:2b:e0:cd:
        da:11:52:9c:21:da:2a:d4:b5:9c:0f:1d:a9:b9:d5:ce:e8:4f:
        e5:12:66:35:b5:03:38:06:2a:a0:cc:56:04:1e:73:f9:5e:9b:
        ee:42:f8:98
-----BEGIN CERTIFICATE-----
MIIDeDCCAmCgAwIBAgIRAInB+dP8/o0uIaboe9nPQwcwDQYJKoZIhvcNAQELBQAw
FjEUMBIGA1UEAwwLdGVhbTQ1NC1uZXQwHhcNMjMxMTAzMjA0NzMwWhcNMjYxMDE4
MjA0NzMwWjAZMRcwFQYDVQQDDA50ZWFtNDU0LXNlcnZlcjCCASIwDQYJKoZIhvcN
AQEBBQADggEPADCCAQoCggEBALlRtDFrpz+rHZuZt11PBeeb9Gzm1wvJs0Vd0QvH
xP7o3lynvclnPybqP59yQJW+3s2Xda/VAViyUCzGDGMGajvKTaQhrGzDTkl2QLeG
0i9A+9exUVK1ThNEZp6gsVQUljnEa/ciI5IMpxXGWYhc1i+0d6Fqy7gmm7cFDPIb
PLyv8wUY0hoUyoXIxwKAv/2xll6YyOwjTVxzkWaLt4kZrvH9j5GjjzIhrnAUR48N
JjNSkb0jgJfABJsnq3bTQax2KX16EIV1sRBsWKOi19krcx67XnFYNS2odycb0hck
iwr/cn0tOOuywlXAHOcGLNBTjcjGuFcIOhFGjEiA8ykF4rcCAwEAAaOBvTCBujAJ
BgNVHRMEAjAAMB0GA1UdDgQWBBS8q//KHnK7XGsWccPQ21CJCmG9njBRBgNVHSME
SjBIgBQn1Sr6pvEV55oUOcElSHGHrI1TmKEapBgwFjEUMBIGA1UEAwwLdGVhbTQ1
NC1uZXSCFEg5Cxvm2sEkS7ijxURp3uVXG4jeMBMGA1UdJQQMMAoGCCsGAQUFBwMB
MAsGA1UdDwQEAwIFoDAZBgNVHREEEjAQgg50ZWFtNDU0LXNlcnZlcjANBgkqhkiG
9w0BAQsFAAOCAQEARSC33/6fE87o9eXTq8f1a4J6h3GYCk6YHqD7QJ1zPqXUfYEh
Wt+2wfGqnU30VgwANhGIPul8boVl3Zmowyxz9j4rMlB7OnwiNNS50otqOd/Tx/7e
+Ib4bMxpAkRZhYLy5tWc1qOzX3WaYhF/YaViY11+KZXQohvytmtMt3AsrpQJDvLb
iMRf09Q+5ofM5Ku19Skhdx61RthkCF7r8ikgNE+zEfndYPSxv2RykX4xl4bUDjK+
VkIqheZi9WMh0inlc5pA63aWm8FWMKWR/Gdxx2TU8dlNK+DN2hFSnCHaKtS1nA8d
qbnVzuhP5RJmNbUDOAYqoMxWBB5z+V6b7kL4mA==
-----END CERTIFICATE-----
