Certificate:
    Data:
        Version: 3 (0x2)
        Serial Number:
            aa:0e:dc:0a:88:f5:be:19:31:2d:e3:6f:b6:c3:96:36
        Signature Algorithm: sha256WithRSAEncryption
        Issuer: CN=team454-net
        Validity
            Not Before: Nov  4 11:37:43 2023 GMT
            Not After : Oct 19 11:37:43 2026 GMT
        Subject: CN=team454-client
        Subject Public Key Info:
            Public Key Algorithm: rsaEncryption
                Public-Key: (2048 bit)
                Modulus:
                    00:de:a1:d6:77:74:93:d2:b7:a4:bb:a1:97:87:3e:
                    70:4a:c1:7c:2c:6b:3d:b4:b7:78:84:a5:0f:a2:f5:
                    94:c4:36:da:ae:cc:13:73:cb:da:4d:71:64:56:78:
                    b7:97:16:e6:7a:ef:e5:60:d6:15:5d:1b:45:f8:da:
                    cb:fc:bc:9f:26:8d:3b:d8:11:4f:e6:54:36:a6:dd:
                    4b:34:2b:7c:67:1c:3e:57:bd:c6:fd:07:29:4d:2b:
                    9f:6e:5c:16:e8:bf:3d:2c:a2:ce:15:69:37:36:75:
                    7e:51:3e:2b:8a:28:de:bf:16:80:81:17:d8:cc:7a:
                    ce:d1:12:e2:a2:3c:9c:5b:9b:85:f7:58:1b:79:60:
                    79:f9:ed:41:b7:97:de:13:d9:03:a5:b7:8e:4f:83:
                    d3:d5:ca:b6:00:14:03:2f:28:67:25:03:b0:c1:84:
                    4e:42:be:4a:41:6b:90:fd:63:55:0d:6b:8f:3a:62:
                    ff:d5:a9:b5:2f:3a:fe:b6:b0:20:18:5b:f7:4f:7e:
                    e0:c3:02:a9:9c:bd:e3:a0:76:8a:be:73:ec:e2:45:
                    a8:fc:14:fc:4f:54:5b:5d:7e:d1:7d:30:50:28:45:
                    6a:4d:3f:e2:49:d9:c1:64:2a:b5:af:34:7d:f9:c5:
                    3f:d0:51:af:db:a8:6a:f9:f6:b1:2b:54:f1:11:53:
                    76:e5
                Exponent: 65537 (0x10001)
        X509v3 extensions:
            X509v3 Basic Constraints: 
                CA:FALSE
            X509v3 Subject Key Identifier: 
                97:A9:1B:4B:9D:94:6F:31:B9:C6:2A:C0:03:51:76:2B:28:DD:BA:9E
            X509v3 Authority Key Identifier: 
                keyid:76:1A:06:87:D8:2C:E4:1D:36:33:38:EF:2B:CE:62:B5:A0:2D:93:B7
                DirName:/CN=team454-net
                serial:5C:5D:3F:95:6E:63:C0:CD:92:44:AA:4A:C4:5D:65:75:AC:19:AA:FE
            X509v3 Extended Key Usage: 
                TLS Web Client Authentication
            X509v3 Key Usage: 
                Digital Signature
    Signature Algorithm: sha256WithRSAEncryption
    Signature Value:
        1d:c3:89:4a:0e:bc:3e:e8:b6:4c:2c:46:23:49:90:7f:c2:61:
        c9:fb:a0:19:4f:ae:15:41:c9:d2:cf:9e:fe:9a:fa:90:fb:27:
        0c:c8:f0:ee:bc:a9:31:c8:d9:59:af:45:04:e5:a2:e9:4e:37:
        ae:ec:10:64:52:96:72:7c:d2:e2:c8:2b:f5:d2:56:91:66:6e:
        a2:f7:60:5b:e7:2d:e7:57:72:f6:b8:ca:5e:bf:51:52:c9:bf:
        ad:91:b9:f6:b8:9b:9d:5d:fd:d3:5e:d6:cd:15:7d:f5:20:b9:
        68:71:85:3c:94:db:5d:2b:04:47:90:34:8b:65:70:81:2a:71:
        96:ec:c6:8c:b4:fb:30:83:7b:74:04:f7:bd:86:32:84:4f:e1:
        21:ad:5d:a1:ef:2d:3d:10:71:b9:de:80:d9:02:96:54:f6:99:
        66:8b:7b:25:40:c6:62:f4:e3:6a:6e:ac:38:66:ef:5f:16:45:
        d2:e0:56:0c:b9:a9:ff:5b:b8:d5:fd:96:00:d4:fb:aa:5c:90:
        18:4e:b7:57:c1:32:06:e9:6d:5b:4c:61:ec:46:2d:e9:30:6a:
        c5:f5:60:0c:1d:b8:34:0c:94:11:10:cb:81:61:89:f9:fd:b4:
        28:ad:9f:f5:c3:d5:15:5a:ff:77:73:b9:0f:cc:44:13:a1:3a:
        06:d3:2c:5d
-----BEGIN CERTIFICATE-----
MIIDXTCCAkWgAwIBAgIRAKoO3AqI9b4ZMS3jb7bDljYwDQYJKoZIhvcNAQELBQAw
FjEUMBIGA1UEAwwLdGVhbTQ1NC1uZXQwHhcNMjMxMTA0MTEzNzQzWhcNMjYxMDE5
MTEzNzQzWjAZMRcwFQYDVQQDDA50ZWFtNDU0LWNsaWVudDCCASIwDQYJKoZIhvcN
AQEBBQADggEPADCCAQoCggEBAN6h1nd0k9K3pLuhl4c+cErBfCxrPbS3eISlD6L1
lMQ22q7ME3PL2k1xZFZ4t5cW5nrv5WDWFV0bRfjay/y8nyaNO9gRT+ZUNqbdSzQr
fGccPle9xv0HKU0rn25cFui/PSyizhVpNzZ1flE+K4oo3r8WgIEX2Mx6ztES4qI8
nFubhfdYG3lgefntQbeX3hPZA6W3jk+D09XKtgAUAy8oZyUDsMGETkK+SkFrkP1j
VQ1rjzpi/9WptS86/rawIBhb909+4MMCqZy946B2ir5z7OJFqPwU/E9UW11+0X0w
UChFak0/4knZwWQqta80ffnFP9BRr9uoavn2sStU8RFTduUCAwEAAaOBojCBnzAJ
BgNVHRMEAjAAMB0GA1UdDgQWBBSXqRtLnZRvMbnGKsADUXYrKN26njBRBgNVHSME
SjBIgBR2GgaH2CzkHTYzOO8rzmK1oC2Tt6EapBgwFjEUMBIGA1UEAwwLdGVhbTQ1
NC1uZXSCFFxdP5VuY8DNkkSqSsRdZXWsGar+MBMGA1UdJQQMMAoGCCsGAQUFBwMC
MAsGA1UdDwQEAwIHgDANBgkqhkiG9w0BAQsFAAOCAQEAHcOJSg68Pui2TCxGI0mQ
f8JhyfugGU+uFUHJ0s+e/pr6kPsnDMjw7rypMcjZWa9FBOWi6U43ruwQZFKWcnzS
4sgr9dJWkWZuovdgW+ct51dy9rjKXr9RUsm/rZG59ribnV39017WzRV99SC5aHGF
PJTbXSsER5A0i2VwgSpxluzGjLT7MIN7dAT3vYYyhE/hIa1doe8tPRBxud6A2QKW
VPaZZot7JUDGYvTjam6sOGbvXxZF0uBWDLmp/1u41f2WANT7qlyQGE63V8EyBult
W0xh7EYt6TBqxfVgDB24NAyUERDLgWGJ+f20KK2f9cPVFVr/d3O5D8xEE6E6BtMs
XQ==
-----END CERTIFICATE-----
