Certificate:
    Data:
        Version: 3 (0x2)
        Serial Number:
            21:97:86:34:40:0b:92:db:3b:dc:77:b3:8f:c6:b2:e6
        Signature Algorithm: sha256WithRSAEncryption
        Issuer: CN=team286-net
        Validity
            Not Before: Nov  3 20:44:31 2023 GMT
            Not After : Oct 18 20:44:31 2026 GMT
        Subject: CN=team286-server
        Subject Public Key Info:
            Public Key Algorithm: rsaEncryption
                Public-Key: (2048 bit)
                Modulus:
                    00:e6:2f:4b:a1:fb:b1:34:d5:4f:03:97:7f:a1:c5:
                    b5:72:60:07:46:51:96:a5:b6:81:85:20:56:cd:bc:
                    b2:37:c6:f2:34:7e:1f:3b:37:02:7b:d9:bb:d5:c2:
                    be:6b:65:78:e7:18:97:38:db:91:a4:46:07:2d:43:
                    30:e3:dd:59:61:ad:5b:de:7c:ae:7e:6f:14:7b:6d:
                    ff:87:80:56:b2:31:50:f2:f2:34:8d:a3:9a:1f:2b:
                    3b:4c:51:b7:6c:39:40:69:65:d5:62:4a:40:b8:e2:
                    c2:e3:48:2c:a2:2b:66:03:33:bd:9c:b3:50:08:45:
                    78:2d:bc:d3:4f:3b:2f:0c:1c:6b:f2:4d:f1:71:cf:
                    e2:38:f1:dd:69:67:b7:65:56:3e:ae:06:87:99:13:
                    6b:b8:09:a3:f7:aa:02:31:13:ed:8d:77:b5:5a:5e:
                    07:a4:bb:59:a5:65:61:4d:87:9b:6e:48:68:c1:10:
                    63:42:f0:a8:4d:25:fb:5c:23:b7:73:d4:91:a6:a0:
                    4c:7a:4f:72:5b:ef:a3:e0:70:8f:f4:44:70:2d:fd:
                    a4:77:b3:17:f7:a1:72:4a:44:f9:b1:5c:d4:2d:c3:
                    21:57:da:1e:ec:07:32:70:5f:aa:00:58:ee:04:96:
                    eb:fc:3c:d2:14:36:a7:39:2b:5f:f8:59:b0:8e:ac:
                    83:05
                Exponent: 65537 (0x10001)
        X509v3 extensions:
            X509v3 Basic Constraints: 
                CA:FALSE
            X509v3 Subject Key Identifier: 
                A5:95:13:31:66:BA:89:98:7E:72:92:FC:44:32:53:E3:81:F0:03:F9
            X509v3 Authority Key Identifier: 
                keyid:5E:40:BF:D7:1A:6D:C1:1F:F7:61:5D:F8:9C:0C:C9:89:63:75:63:60
                DirName:/CN=team286-net
                serial:73:DA:9B:A1:97:B4:73:E9:BD:67:8D:04:A9:F7:43:27:A3:B7:E9:BD
            X509v3 Extended Key Usage: 
                TLS Web Server Authentication
            X509v3 Key Usage: 
                Digital Signature, Key Encipherment
            X509v3 Subject Alternative Name: 
                DNS:team286-server
    Signature Algorithm: sha256WithRSAEncryption
    Signature Value:
        5a:f5:a6:7b:1f:21:31:3b:21:3e:06:cd:60:35:8e:e3:02:35:
        41:15:e7:5d:16:0c:32:9e:26:be:08:96:5f:cf:0d:b0:99:34:
        44:d3:11:24:ea:58:70:65:f5:cc:09:e5:25:12:2b:ea:04:0f:
        7e:0e:c0:dd:21:15:fa:a3:9d:9b:c7:4d:4a:fc:3d:3e:48:3d:
        ba:54:a9:63:d1:1d:2a:7e:42:73:4b:cd:fa:76:fa:bc:82:2a:
        da:18:7d:41:df:d4:90:81:a8:06:e9:64:5e:1c:bc:42:b5:7e:
        02:ae:49:dd:38:12:2e:18:b0:f5:df:91:c5:0d:5e:fa:d3:e8:
        da:f0:77:5d:00:68:3a:24:29:7e:46:53:22:01:93:c0:0a:95:
        f8:b9:ae:32:39:6a:ab:93:b9:89:19:2e:fe:2f:2b:4a:28:6a:
        77:dc:41:37:d5:4e:ad:1e:92:04:b3:90:d5:3a:ea:c8:87:b9:
        ff:19:cf:46:c6:60:e7:1d:21:23:37:4b:7d:05:85:22:b5:48:
        0b:05:bb:7f:85:ce:5f:01:2c:57:f4:e6:99:ea:ad:6d:45:f6:
        5b:89:81:e7:eb:65:ce:94:fc:b6:c8:b2:4c:92:95:c0:01:de:
        7e:aa:35:4a:ef:fe:dd:c0:0e:59:0c:39:c4:5e:00:9e:53:a8:
        28:8c:f3:16
-----BEGIN CERTIFICATE-----
MIIDdzCCAl+gAwIBAgIQIZeGNEALkts73Hezj8ay5jANBgkqhkiG9w0BAQsFADAW
MRQwEgYDVQQDDAt0ZWFtMjg2LW5ldDAeFw0yMzExMDMyMDQ0MzFaFw0yNjEwMTgy
MDQ0MzFaMBkxFzAVBgNVBAMMDnRlYW0yODYtc2VydmVyMIIBIjANBgkqhkiG9w0B
AQEFAAOCAQ8AMIIBCgKCAQEA5i9LofuxNNVPA5d/ocW1cmAHRlGWpbaBhSBWzbyy
N8byNH4fOzcCe9m71cK+a2V45xiXONuRpEYHLUMw491ZYa1b3nyufm8Ue23/h4BW
sjFQ8vI0jaOaHys7TFG3bDlAaWXVYkpAuOLC40gsoitmAzO9nLNQCEV4LbzTTzsv
DBxr8k3xcc/iOPHdaWe3ZVY+rgaHmRNruAmj96oCMRPtjXe1Wl4HpLtZpWVhTYeb
bkhowRBjQvCoTSX7XCO3c9SRpqBMek9yW++j4HCP9ERwLf2kd7MX96FySkT5sVzU
LcMhV9oe7AcycF+qAFjuBJbr/DzSFDanOStf+FmwjqyDBQIDAQABo4G9MIG6MAkG
A1UdEwQCMAAwHQYDVR0OBBYEFKWVEzFmuomYfnKS/EQyU+OB8AP5MFEGA1UdIwRK
MEiAFF5Av9cabcEf92Fd+JwMyYljdWNgoRqkGDAWMRQwEgYDVQQDDAt0ZWFtMjg2
LW5ldIIUc9qboZe0c+m9Z40EqfdDJ6O36b0wEwYDVR0lBAwwCgYIKwYBBQUHAwEw
CwYDVR0PBAQDAgWgMBkGA1UdEQQSMBCCDnRlYW0yODYtc2VydmVyMA0GCSqGSIb3
DQEBCwUAA4IBAQBa9aZ7HyExOyE+Bs1gNY7jAjVBFeddFgwynia+CJZfzw2wmTRE
0xEk6lhwZfXMCeUlEivqBA9+DsDdIRX6o52bx01K/D0+SD26VKlj0R0qfkJzS836
dvq8giraGH1B39SQgagG6WReHLxCtX4CrkndOBIuGLD135HFDV760+ja8HddAGg6
JCl+RlMiAZPACpX4ua4yOWqrk7mJGS7+LytKKGp33EE31U6tHpIEs5DVOurIh7n/
Gc9GxmDnHSEjN0t9BYUitUgLBbt/hc5fASxX9OaZ6q1tRfZbiYHn62XOlPy2yLJM
kpXAAd5+qjVK7/7dwA5ZDDnEXgCeU6gojPMW
-----END CERTIFICATE-----
