Certificate:
    Data:
        Version: 3 (0x2)
        Serial Number:
            fd:7e:2d:c0:99:83:c2:5d:19:59:77:31:78:5e:a7:4b
        Signature Algorithm: sha256WithRSAEncryption
        Issuer: CN=team286-net
        Validity
            Not Before: Nov  3 20:44:30 2023 GMT
            Not After : Oct 18 20:44:30 2026 GMT
        Subject: CN=team286-client
        Subject Public Key Info:
            Public Key Algorithm: rsaEncryption
                Public-Key: (2048 bit)
                Modulus:
                    00:d0:e8:f3:73:e6:42:07:eb:d7:9f:45:99:f0:f3:
                    38:f4:17:31:8b:51:e1:06:d1:89:ef:32:e4:92:c8:
                    8c:78:e1:09:a3:e6:d8:3e:c7:2f:0d:75:fc:aa:a3:
                    09:59:ca:7f:b4:d3:0a:83:9e:d0:31:f8:2c:68:8d:
                    0e:2a:37:39:b9:bf:f0:a3:da:8e:63:20:c8:f6:bb:
                    0d:9e:40:9a:1d:50:93:37:21:df:7d:1e:51:67:2e:
                    07:80:3d:43:bb:1c:83:16:71:c1:92:5e:95:6d:2f:
                    51:c5:a8:3b:72:7f:21:ea:e5:37:d5:bb:a5:7e:4b:
                    70:04:0c:be:e2:8a:29:39:60:65:52:6d:c4:3e:ed:
                    9b:62:31:a5:9f:c9:f1:ca:e2:42:52:ed:20:c2:56:
                    05:19:00:9d:01:15:36:ae:fd:3a:70:56:d1:13:c6:
                    fb:1b:06:cd:04:30:d4:9b:ab:6a:ef:d6:0d:8b:f2:
                    45:97:98:97:3e:33:b4:f9:9a:61:03:5f:31:39:36:
                    b5:94:0d:44:f7:5a:ce:8d:85:f1:a6:04:10:ed:31:
                    2d:34:4e:3d:3a:50:9a:93:12:78:6c:1e:0f:31:f8:
                    3a:81:90:3c:8b:b9:db:00:91:3b:c5:9b:df:aa:7b:
                    d1:06:a2:51:81:dd:6d:13:52:c3:e4:18:f2:44:8d:
                    03:f3
                Exponent: 65537 (0x10001)
        X509v3 extensions:
            X509v3 Basic Constraints: 
                CA:FALSE
            X509v3 Subject Key Identifier: 
                55:AA:3F:C7:D1:E5:E7:76:64:8E:60:A1:81:1A:FD:2F:EB:AE:9F:27
            X509v3 Authority Key Identifier: 
                keyid:5E:40:BF:D7:1A:6D:C1:1F:F7:61:5D:F8:9C:0C:C9:89:63:75:63:60
                DirName:/CN=team286-net
                serial:73:DA:9B:A1:97:B4:73:E9:BD:67:8D:04:A9:F7:43:27:A3:B7:E9:BD
            X509v3 Extended Key Usage: 
                TLS Web Client Authentication
            X509v3 Key Usage: 
                Digital Signature
    Signature Algorithm: sha256WithRSAEncryption
    Signature Value:
        28:7a:53:e6:79:f9:54:5a:c2:0d:42:64:5a:8a:fb:39:a9:09:
        d1:80:9e:27:b0:b6:59:20:26:2c:9f:ea:43:2c:d8:06:ca:e9:
        e5:86:66:a8:c7:6b:62:4b:e2:35:31:1a:56:6b:e6:0e:23:21:
        c8:95:a6:57:a6:17:a6:02:cc:fc:7f:d6:29:54:22:e3:b5:96:
        bb:41:e7:fe:4e:6c:f0:cd:1c:ad:4b:9f:50:63:f2:31:e8:94:
        2d:42:83:b2:c1:f1:3f:73:f3:72:ab:8a:3e:45:fd:d5:4c:da:
        d5:08:a7:dd:bd:09:1a:7c:0d:8d:05:c2:ba:4e:5a:f5:05:a0:
        6e:e7:5d:55:45:b0:9d:22:a8:47:e8:da:fb:83:33:54:50:b9:
        31:aa:c0:6e:46:21:1f:b8:8b:d1:d0:e2:fe:f6:63:cf:b4:fa:
        47:6a:a9:b7:7b:42:d0:84:71:3b:ea:75:7c:83:fa:2e:8f:04:
        a6:03:8f:c8:c3:22:a0:8b:2c:5d:e5:e2:f1:21:82:6d:27:2f:
        7a:0c:a2:16:73:2b:a1:84:84:c2:d2:92:6d:06:1c:b6:1c:29:
        c0:6d:64:1d:64:cc:1d:17:9f:54:16:7b:a0:c3:a4:cb:d2:ea:
        77:d1:7e:7e:08:74:2a:ca:d0:13:66:51:e1:84:12:ff:76:04:
        b2:43:ae:53
-----BEGIN CERTIFICATE-----
MIIDXTCCAkWgAwIBAgIRAP1+LcCZg8JdGVl3MXhep0swDQYJKoZIhvcNAQELBQAw
FjEUMBIGA1UEAwwLdGVhbTI4Ni1uZXQwHhcNMjMxMTAzMjA0NDMwWhcNMjYxMDE4
MjA0NDMwWjAZMRcwFQYDVQQDDA50ZWFtMjg2LWNsaWVudDCCASIwDQYJKoZIhvcN
AQEBBQADggEPADCCAQoCggEBANDo83PmQgfr159FmfDzOPQXMYtR4QbRie8y5JLI
jHjhCaPm2D7HLw11/KqjCVnKf7TTCoOe0DH4LGiNDio3Obm/8KPajmMgyPa7DZ5A
mh1Qkzch330eUWcuB4A9Q7scgxZxwZJelW0vUcWoO3J/IerlN9W7pX5LcAQMvuKK
KTlgZVJtxD7tm2IxpZ/J8criQlLtIMJWBRkAnQEVNq79OnBW0RPG+xsGzQQw1Jur
au/WDYvyRZeYlz4ztPmaYQNfMTk2tZQNRPdazo2F8aYEEO0xLTROPTpQmpMSeGwe
DzH4OoGQPIu52wCRO8Wb36p70QaiUYHdbRNSw+QY8kSNA/MCAwEAAaOBojCBnzAJ
BgNVHRMEAjAAMB0GA1UdDgQWBBRVqj/H0eXndmSOYKGBGv0v666fJzBRBgNVHSME
SjBIgBReQL/XGm3BH/dhXficDMmJY3VjYKEapBgwFjEUMBIGA1UEAwwLdGVhbTI4
Ni1uZXSCFHPam6GXtHPpvWeNBKn3Qyejt+m9MBMGA1UdJQQMMAoGCCsGAQUFBwMC
MAsGA1UdDwQEAwIHgDANBgkqhkiG9w0BAQsFAAOCAQEAKHpT5nn5VFrCDUJkWor7
OakJ0YCeJ7C2WSAmLJ/qQyzYBsrp5YZmqMdrYkviNTEaVmvmDiMhyJWmV6YXpgLM
/H/WKVQi47WWu0Hn/k5s8M0crUufUGPyMeiULUKDssHxP3PzcquKPkX91Uza1Qin
3b0JGnwNjQXCuk5a9QWgbuddVUWwnSKoR+ja+4MzVFC5MarAbkYhH7iL0dDi/vZj
z7T6R2qpt3tC0IRxO+p1fIP6Lo8EpgOPyMMioIssXeXi8SGCbScvegyiFnMroYSE
wtKSbQYcthwpwG1kHWTMHRefVBZ7oMOky9Lqd9F+fgh0KsrQE2ZR4YQS/3YEskOu
Uw==
-----END CERTIFICATE-----
