Certificate:
    Data:
        Version: 3 (0x2)
        Serial Number:
            1b:15:dd:f8:1f:41:0a:d1:f5:14:36:69:f2:20:f6:c6
        Signature Algorithm: sha256WithRSAEncryption
        Issuer: CN=team59-net
        Validity
            Not Before: Nov  4 10:41:23 2023 GMT
            Not After : Oct 19 10:41:23 2026 GMT
        Subject: CN=team59-server
        Subject Public Key Info:
            Public Key Algorithm: rsaEncryption
                Public-Key: (2048 bit)
                Modulus:
                    00:96:18:88:13:ab:3d:ad:5f:6e:eb:a7:17:60:db:
                    64:b9:fd:23:f6:e5:a2:20:ea:85:1f:df:61:19:19:
                    b6:17:e1:e9:4b:df:3b:fc:07:23:e3:ce:f8:01:f4:
                    6c:dd:56:75:50:cc:a7:14:45:47:01:1e:3b:55:3e:
                    a4:1b:7c:59:9f:a7:33:ad:33:f7:ba:63:fa:6b:04:
                    d9:91:de:d6:4a:51:a5:57:8b:a6:af:4d:19:b2:46:
                    cb:bc:63:95:43:ad:5c:04:62:ad:e5:95:f0:cb:6c:
                    90:f0:66:dd:b1:53:f5:bc:6c:af:66:08:61:19:a7:
                    24:94:ea:ba:8f:a6:30:e8:50:60:ff:f0:74:ed:fc:
                    fa:ad:9c:38:7b:a9:f2:cf:42:7c:92:57:7c:df:5b:
                    33:86:83:a6:cc:92:99:7b:ae:b4:e6:87:ec:d6:0e:
                    1f:3e:75:9b:47:79:eb:29:dc:fe:1e:27:2b:e5:db:
                    81:a7:50:f9:84:21:1f:0b:29:1f:26:5c:e3:65:b4:
                    fb:cb:02:4a:75:3b:48:42:b8:47:64:77:62:57:3a:
                    b4:71:06:b8:ea:b0:5b:23:4d:d4:dd:76:92:f2:76:
                    1a:7c:97:ea:e7:1d:a2:a7:5d:02:7c:64:bf:3b:20:
                    29:b7:2d:bb:59:b0:bd:93:46:a3:fe:4f:00:b0:a0:
                    31:61
                Exponent: 65537 (0x10001)
        X509v3 extensions:
            X509v3 Basic Constraints: 
                CA:FALSE
            X509v3 Subject Key Identifier: 
                49:FF:7B:7A:54:0C:3C:3D:F8:2D:32:34:20:3D:3F:E8:32:28:21:A5
            X509v3 Authority Key Identifier: 
                keyid:4A:5E:FB:34:89:2C:8A:A9:99:57:02:BA:6B:05:D5:A9:5A:4A:72:78
                DirName:/CN=team59-net
                serial:48:1E:A1:D1:13:15:5D:06:74:93:3E:8D:B7:17:D3:DC:EC:C5:9F:0C
            X509v3 Extended Key Usage: 
                TLS Web Server Authentication
            X509v3 Key Usage: 
                Digital Signature, Key Encipherment
            X509v3 Subject Alternative Name: 
                DNS:team59-server
    Signature Algorithm: sha256WithRSAEncryption
    Signature Value:
        5d:ba:e2:9f:2e:a4:8b:0e:24:ed:11:e3:48:a9:fe:2b:40:44:
        00:d1:ce:23:cd:23:0c:e8:67:d5:e2:9b:fc:ea:6b:9b:69:82:
        7c:08:72:9d:79:eb:70:dc:f8:4a:26:ae:b2:6a:e1:66:d5:ee:
        26:b1:3a:b5:ac:69:1c:9a:14:44:18:ab:a4:0e:ca:54:3b:3a:
        a4:71:fb:f7:bd:eb:b3:93:20:49:1d:16:29:02:e9:aa:97:1a:
        2e:1d:92:6e:b8:fc:ad:eb:1d:3b:06:37:58:b0:8d:7b:9a:78:
        a7:34:cf:0c:75:d9:a1:b0:2b:01:f9:e5:ab:5f:45:ef:dd:09:
        fa:63:ad:27:f2:1f:82:64:75:f9:d0:a1:3e:ef:93:af:8e:57:
        af:90:2a:60:96:a8:82:fb:00:e2:5e:5c:ae:cc:38:cd:1f:fa:
        e0:1b:df:cf:1e:56:71:66:c3:c2:04:b5:e3:7f:89:df:e5:f3:
        69:fb:5f:55:48:df:59:66:9f:a6:04:79:d5:30:9b:68:9b:7d:
        ed:8b:63:f7:44:de:e1:9e:a8:48:75:b9:65:b1:14:9f:33:3d:
        ed:a0:f3:a9:e3:fe:6b:17:39:0e:81:24:7f:b5:34:99:6d:af:
        f6:ac:a9:35:ab:4d:b3:97:3d:9e:fe:fd:57:06:d3:39:4e:0a:
        6f:56:f6:f1
-----BEGIN CERTIFICATE-----
MIIDczCCAlugAwIBAgIQGxXd+B9BCtH1FDZp8iD2xjANBgkqhkiG9w0BAQsFADAV
MRMwEQYDVQQDDAp0ZWFtNTktbmV0MB4XDTIzMTEwNDEwNDEyM1oXDTI2MTAxOTEw
NDEyM1owGDEWMBQGA1UEAwwNdGVhbTU5LXNlcnZlcjCCASIwDQYJKoZIhvcNAQEB
BQADggEPADCCAQoCggEBAJYYiBOrPa1fbuunF2DbZLn9I/bloiDqhR/fYRkZthfh
6UvfO/wHI+PO+AH0bN1WdVDMpxRFRwEeO1U+pBt8WZ+nM60z97pj+msE2ZHe1kpR
pVeLpq9NGbJGy7xjlUOtXARireWV8MtskPBm3bFT9bxsr2YIYRmnJJTquo+mMOhQ
YP/wdO38+q2cOHup8s9CfJJXfN9bM4aDpsySmXuutOaH7NYOHz51m0d56ync/h4n
K+XbgadQ+YQhHwspHyZc42W0+8sCSnU7SEK4R2R3Ylc6tHEGuOqwWyNN1N12kvJ2
GnyX6ucdoqddAnxkvzsgKbctu1mwvZNGo/5PALCgMWECAwEAAaOBuzCBuDAJBgNV
HRMEAjAAMB0GA1UdDgQWBBRJ/3t6VAw8PfgtMjQgPT/oMighpTBQBgNVHSMESTBH
gBRKXvs0iSyKqZlXArprBdWpWkpyeKEZpBcwFTETMBEGA1UEAwwKdGVhbTU5LW5l
dIIUSB6h0RMVXQZ0kz6NtxfT3OzFnwwwEwYDVR0lBAwwCgYIKwYBBQUHAwEwCwYD
VR0PBAQDAgWgMBgGA1UdEQQRMA+CDXRlYW01OS1zZXJ2ZXIwDQYJKoZIhvcNAQEL
BQADggEBAF264p8upIsOJO0R40ip/itARADRziPNIwzoZ9Xim/zqa5tpgnwIcp15
63Dc+EomrrJq4WbV7iaxOrWsaRyaFEQYq6QOylQ7OqRx+/e967OTIEkdFikC6aqX
Gi4dkm64/K3rHTsGN1iwjXuaeKc0zwx12aGwKwH55atfRe/dCfpjrSfyH4JkdfnQ
oT7vk6+OV6+QKmCWqIL7AOJeXK7MOM0f+uAb388eVnFmw8IEteN/id/l82n7X1VI
31lmn6YEedUwm2ibfe2LY/dE3uGeqEh1uWWxFJ8zPe2g86nj/msXOQ6BJH+1NJlt
r/asqTWrTbOXPZ7+/VcG0zlOCm9W9vE=
-----END CERTIFICATE-----
