Certificate:
    Data:
        Version: 3 (0x2)
        Serial Number:
            48:99:1a:33:0a:45:fc:3d:50:40:43:22:12:54:51:f5
        Signature Algorithm: sha256WithRSAEncryption
        Issuer: CN=team59-net
        Validity
            Not Before: Nov  4 10:41:23 2023 GMT
            Not After : Oct 19 10:41:23 2026 GMT
        Subject: CN=team59-client
        Subject Public Key Info:
            Public Key Algorithm: rsaEncryption
                Public-Key: (2048 bit)
                Modulus:
                    00:99:8c:67:62:e1:f7:22:ba:57:fb:c6:41:54:de:
                    c0:8b:e7:66:09:2a:58:5b:15:cf:ce:52:4d:1d:5b:
                    bc:dc:71:f2:f6:c5:09:65:40:b5:ae:4c:0a:59:21:
                    20:5a:c5:d7:83:f0:21:da:ac:14:70:bf:46:a0:fa:
                    bc:a4:c3:2a:ee:17:1f:89:4b:5b:16:c6:59:2a:77:
                    82:19:a7:9c:e2:c3:3c:9f:b3:47:35:e0:d1:3e:9d:
                    76:fc:7c:17:d2:12:9f:ca:4a:ca:e5:57:27:6f:05:
                    00:c5:4f:3e:39:3b:9f:52:20:96:27:56:50:05:38:
                    6a:9e:60:ca:45:89:16:c0:65:e1:1d:52:01:ec:e4:
                    a9:c5:0a:b3:31:6a:cb:93:4b:1a:73:4f:19:ee:49:
                    a4:6b:87:31:9e:d9:9a:fd:41:aa:c7:5d:33:08:37:
                    20:34:82:f2:32:c5:00:0b:c6:a0:e8:40:f5:37:ef:
                    5f:67:bf:4b:6d:f3:5e:e5:66:50:2b:ee:e5:8b:88:
                    bc:ad:d4:5d:97:21:9a:e6:c0:f5:7b:0a:3d:05:14:
                    a3:dc:15:a4:29:29:db:20:1c:91:8b:3e:2c:91:f0:
                    72:0c:cc:c7:01:7d:1a:35:67:b0:5d:fd:02:04:10:
                    be:fd:61:93:e1:b8:ed:68:5a:2d:99:96:48:8e:4b:
                    33:3d
                Exponent: 65537 (0x10001)
        X509v3 extensions:
            X509v3 Basic Constraints: 
                CA:FALSE
            X509v3 Subject Key Identifier: 
                8B:B9:E0:20:47:BF:0A:33:8F:F7:38:08:E5:39:1F:FF:8C:A5:C0:09
            X509v3 Authority Key Identifier: 
                keyid:4A:5E:FB:34:89:2C:8A:A9:99:57:02:BA:6B:05:D5:A9:5A:4A:72:78
                DirName:/CN=team59-net
                serial:48:1E:A1:D1:13:15:5D:06:74:93:3E:8D:B7:17:D3:DC:EC:C5:9F:0C
            X509v3 Extended Key Usage: 
                TLS Web Client Authentication
            X509v3 Key Usage: 
                Digital Signature
    Signature Algorithm: sha256WithRSAEncryption
    Signature Value:
        5a:4e:54:cc:eb:7f:a7:07:0d:55:e6:db:e6:21:85:b6:14:8b:
        13:fc:5b:06:e5:d2:b1:b2:5d:45:b7:f1:a4:97:d4:4d:78:bd:
        46:99:89:8a:6c:59:37:a6:6b:a9:72:54:c9:14:c8:b6:84:93:
        63:8d:d0:38:63:a3:2b:75:7a:41:3f:a3:dd:48:ba:52:24:f9:
        61:7f:0a:33:cb:ba:e7:0b:87:45:57:9e:b5:59:a4:40:91:62:
        eb:f4:65:13:4c:72:01:02:b8:45:5c:d3:15:5c:f0:e4:16:e7:
        7c:51:fc:ec:74:1d:ab:54:15:e3:42:a9:c3:8e:d3:88:88:48:
        e6:40:4c:28:68:d2:91:6d:cd:45:ba:53:82:8a:2c:14:bb:01:
        63:53:b8:8b:b2:cc:24:35:40:01:f2:0b:d2:b8:4d:c0:27:2d:
        fd:47:f1:f0:2a:95:b7:16:99:b1:18:22:9d:d9:cb:79:3c:12:
        aa:41:04:4a:1f:30:61:ac:1d:13:da:b4:b4:57:88:66:0e:17:
        6b:ca:b3:a3:a4:30:90:25:b9:36:d7:80:87:78:ab:38:6f:b2:
        68:ea:d1:7d:07:02:33:1c:8c:98:b8:c2:a5:3f:b5:35:7b:8e:
        53:a3:37:ce:97:8c:0c:01:21:a2:bb:85:1f:2d:ac:6a:80:c7:
        80:de:96:f3
-----BEGIN CERTIFICATE-----
MIIDWTCCAkGgAwIBAgIQSJkaMwpF/D1QQEMiElRR9TANBgkqhkiG9w0BAQsFADAV
MRMwEQYDVQQDDAp0ZWFtNTktbmV0MB4XDTIzMTEwNDEwNDEyM1oXDTI2MTAxOTEw
NDEyM1owGDEWMBQGA1UEAwwNdGVhbTU5LWNsaWVudDCCASIwDQYJKoZIhvcNAQEB
BQADggEPADCCAQoCggEBAJmMZ2Lh9yK6V/vGQVTewIvnZgkqWFsVz85STR1bvNxx
8vbFCWVAta5MClkhIFrF14PwIdqsFHC/RqD6vKTDKu4XH4lLWxbGWSp3ghmnnOLD
PJ+zRzXg0T6ddvx8F9ISn8pKyuVXJ28FAMVPPjk7n1IglidWUAU4ap5gykWJFsBl
4R1SAezkqcUKszFqy5NLGnNPGe5JpGuHMZ7Zmv1BqsddMwg3IDSC8jLFAAvGoOhA
9TfvX2e/S23zXuVmUCvu5YuIvK3UXZchmubA9XsKPQUUo9wVpCkp2yAckYs+LJHw
cgzMxwF9GjVnsF39AgQQvv1hk+G47WhaLZmWSI5LMz0CAwEAAaOBoTCBnjAJBgNV
HRMEAjAAMB0GA1UdDgQWBBSLueAgR78KM4/3OAjlOR//jKXACTBQBgNVHSMESTBH
gBRKXvs0iSyKqZlXArprBdWpWkpyeKEZpBcwFTETMBEGA1UEAwwKdGVhbTU5LW5l
dIIUSB6h0RMVXQZ0kz6NtxfT3OzFnwwwEwYDVR0lBAwwCgYIKwYBBQUHAwIwCwYD
VR0PBAQDAgeAMA0GCSqGSIb3DQEBCwUAA4IBAQBaTlTM63+nBw1V5tvmIYW2FIsT
/FsG5dKxsl1Ft/Gkl9RNeL1GmYmKbFk3pmupclTJFMi2hJNjjdA4Y6MrdXpBP6Pd
SLpSJPlhfwozy7rnC4dFV561WaRAkWLr9GUTTHIBArhFXNMVXPDkFud8UfzsdB2r
VBXjQqnDjtOIiEjmQEwoaNKRbc1FulOCiiwUuwFjU7iLsswkNUAB8gvSuE3AJy39
R/HwKpW3FpmxGCKd2ct5PBKqQQRKHzBhrB0T2rS0V4hmDhdryrOjpDCQJbk214CH
eKs4b7Jo6tF9BwIzHIyYuMKlP7U1e45TozfOl4wMASGiu4UfLaxqgMeA3pbz
-----END CERTIFICATE-----
