Certificate:
    Data:
        Version: 3 (0x2)
        Serial Number:
            b3:93:d6:9c:c7:54:e1:91:38:b6:e0:29:b3:95:29:cd
        Signature Algorithm: sha256WithRSAEncryption
        Issuer: CN=team59-net
        Validity
            Not Before: Nov  3 20:40:17 2023 GMT
            Not After : Oct 18 20:40:17 2026 GMT
        Subject: CN=team59-client
        Subject Public Key Info:
            Public Key Algorithm: rsaEncryption
                Public-Key: (2048 bit)
                Modulus:
                    00:cd:b4:73:d6:86:27:b0:da:aa:aa:b3:e3:3a:74:
                    f6:8a:d0:ad:2d:92:51:bf:af:62:34:ba:01:9b:3a:
                    45:7b:1e:c9:af:54:b6:b9:ea:c6:6c:1c:02:07:0b:
                    97:ad:fd:98:2b:de:7e:e0:fa:5d:04:c7:5c:04:a6:
                    9f:3c:cf:0a:23:f9:25:a9:17:0c:52:a7:c9:2b:91:
                    42:d9:11:ec:42:b0:e1:4e:e7:e9:52:b9:e1:da:ee:
                    80:00:94:95:c6:e6:62:05:6b:01:bb:54:e5:80:11:
                    5c:07:fd:66:05:ee:8d:b9:4d:68:d5:84:67:cb:6b:
                    45:ce:50:1b:ff:29:5e:2f:5e:35:1d:20:15:df:3c:
                    39:2b:a9:aa:65:24:cd:bd:70:cf:30:c3:46:b9:be:
                    2b:53:4b:a3:c0:48:0b:2e:fc:85:98:35:cc:db:f3:
                    65:c6:24:db:2f:28:c4:91:3c:04:ff:c9:32:f3:2c:
                    b8:26:ee:01:87:39:73:e4:89:ce:0a:ea:0d:d6:dd:
                    8d:5f:e2:8d:66:38:95:df:29:f3:a4:2e:43:ff:bf:
                    c9:f8:1d:e6:5a:62:84:97:2b:24:b5:95:cc:c0:5c:
                    e2:5c:6f:78:79:ab:c9:41:3a:78:43:36:bc:88:34:
                    dd:ac:14:27:fe:17:70:9a:f9:89:67:c7:34:9d:9c:
                    c4:d9
                Exponent: 65537 (0x10001)
        X509v3 extensions:
            X509v3 Basic Constraints: 
                CA:FALSE
            X509v3 Subject Key Identifier: 
                7A:83:5B:E4:0D:72:3B:1B:E1:18:9C:CA:ED:52:AA:BB:DD:BC:10:A0
            X509v3 Authority Key Identifier: 
                keyid:D8:11:0A:37:01:17:F3:6E:CC:D5:78:C3:C5:19:83:22:8B:0B:54:D8
                DirName:/CN=team59-net
                serial:15:79:62:41:D4:F0:E1:D8:95:23:2C:ED:D8:84:A5:DA:D6:59:03:06
            X509v3 Extended Key Usage: 
                TLS Web Client Authentication
            X509v3 Key Usage: 
                Digital Signature
    Signature Algorithm: sha256WithRSAEncryption
    Signature Value:
        f5:e9:9a:d6:f8:80:9c:e7:40:b8:e7:b0:e6:59:73:fc:6f:db:
        8d:11:8a:81:2a:ab:d1:f8:35:d2:d3:16:6b:9c:41:cc:2c:61:
        af:3e:51:3f:79:74:21:fa:5f:cf:69:f1:50:a5:7a:f8:57:96:
        ea:74:90:3f:8e:34:97:ed:6e:bd:2a:47:df:0d:29:3b:e0:92:
        46:a2:b4:28:9c:61:85:28:f7:32:3f:41:ba:ca:5b:47:99:17:
        f0:a0:f1:e8:70:32:7d:37:66:66:80:d0:16:fc:06:f6:eb:aa:
        a6:5c:47:56:2b:22:40:8c:f8:72:22:e1:cf:80:83:2e:da:f1:
        2b:87:f0:8f:22:83:4e:66:ad:52:4b:90:89:23:12:be:07:7d:
        4b:90:a0:5d:27:32:95:c7:81:a1:df:0a:83:69:fe:8a:08:ed:
        86:04:2d:33:62:88:37:fc:ac:f7:45:b6:68:3b:99:e8:dc:c9:
        f0:28:6a:e5:10:ea:b6:74:96:f5:c2:80:45:64:97:77:cd:69:
        68:8a:97:c6:78:4f:cb:85:d6:f2:f4:20:18:d4:8a:ed:1f:f2:
        a7:77:a1:ca:28:18:c3:4a:88:2d:63:37:b1:42:06:af:b1:38:
        d4:cc:e9:b3:52:fa:c0:af:c5:eb:df:6d:06:28:0b:86:89:2e:
        e6:e8:f4:1d
-----BEGIN CERTIFICATE-----
MIIDWjCCAkKgAwIBAgIRALOT1pzHVOGROLbgKbOVKc0wDQYJKoZIhvcNAQELBQAw
FTETMBEGA1UEAwwKdGVhbTU5LW5ldDAeFw0yMzExMDMyMDQwMTdaFw0yNjEwMTgy
MDQwMTdaMBgxFjAUBgNVBAMMDXRlYW01OS1jbGllbnQwggEiMA0GCSqGSIb3DQEB
AQUAA4IBDwAwggEKAoIBAQDNtHPWhiew2qqqs+M6dPaK0K0tklG/r2I0ugGbOkV7
HsmvVLa56sZsHAIHC5et/Zgr3n7g+l0Ex1wEpp88zwoj+SWpFwxSp8krkULZEexC
sOFO5+lSueHa7oAAlJXG5mIFawG7VOWAEVwH/WYF7o25TWjVhGfLa0XOUBv/KV4v
XjUdIBXfPDkrqaplJM29cM8ww0a5vitTS6PASAsu/IWYNczb82XGJNsvKMSRPAT/
yTLzLLgm7gGHOXPkic4K6g3W3Y1f4o1mOJXfKfOkLkP/v8n4HeZaYoSXKyS1lczA
XOJcb3h5q8lBOnhDNryINN2sFCf+F3Ca+YlnxzSdnMTZAgMBAAGjgaEwgZ4wCQYD
VR0TBAIwADAdBgNVHQ4EFgQUeoNb5A1yOxvhGJzK7VKqu928EKAwUAYDVR0jBEkw
R4AU2BEKNwEX827M1XjDxRmDIosLVNihGaQXMBUxEzARBgNVBAMMCnRlYW01OS1u
ZXSCFBV5YkHU8OHYlSMs7diEpdrWWQMGMBMGA1UdJQQMMAoGCCsGAQUFBwMCMAsG
A1UdDwQEAwIHgDANBgkqhkiG9w0BAQsFAAOCAQEA9ema1viAnOdAuOew5llz/G/b
jRGKgSqr0fg10tMWa5xBzCxhrz5RP3l0Ifpfz2nxUKV6+FeW6nSQP440l+1uvSpH
3w0pO+CSRqK0KJxhhSj3Mj9BuspbR5kX8KDx6HAyfTdmZoDQFvwG9uuqplxHVisi
QIz4ciLhz4CDLtrxK4fwjyKDTmatUkuQiSMSvgd9S5CgXScylceBod8Kg2n+igjt
hgQtM2KIN/ys90W2aDuZ6NzJ8Chq5RDqtnSW9cKARWSXd81paIqXxnhPy4XW8vQg
GNSK7R/yp3ehyigYw0qILWM3sUIGr7E41Mzps1L6wK/F699tBigLhoku5uj0HQ==
-----END CERTIFICATE-----
