Certificate:
    Data:
        Version: 3 (0x2)
        Serial Number:
            b9:b2:7c:39:ea:b0:b7:5d:5d:8a:2a:ac:58:f9:2e:27
        Signature Algorithm: sha256WithRSAEncryption
        Issuer: CN=team59-net
        Validity
            Not Before: Nov  4 11:28:30 2023 GMT
            Not After : Oct 19 11:28:30 2026 GMT
        Subject: CN=team59-server
        Subject Public Key Info:
            Public Key Algorithm: rsaEncryption
                Public-Key: (2048 bit)
                Modulus:
                    00:a1:90:f2:9c:76:8f:24:75:c3:f3:f6:b3:a1:bd:
                    6d:94:0a:f6:b1:60:90:2d:53:97:d0:17:1c:e9:ca:
                    36:58:9b:35:20:ca:e9:a7:8d:af:fb:c7:d2:b7:4c:
                    a9:10:77:78:d8:01:5c:3b:07:3b:81:c5:2c:5a:9b:
                    b0:c4:14:38:96:45:c5:e1:cb:f4:09:6e:4e:b3:4d:
                    9c:fc:99:51:0c:91:a6:f7:f2:81:74:ee:e1:87:de:
                    f8:58:31:08:1f:24:ae:d8:01:29:f6:fc:1a:d3:ca:
                    c0:9b:c3:cc:bf:9b:70:ec:0f:1b:0e:f4:24:cd:da:
                    6c:6f:5b:6c:aa:30:12:5f:92:88:8d:80:fe:18:ff:
                    91:06:11:fc:5d:e7:d6:4c:8c:67:3d:24:5b:f2:a2:
                    4f:20:05:b0:d9:74:74:a8:07:02:ab:09:ba:0b:c7:
                    07:4c:93:69:5a:02:33:49:70:7a:83:48:c0:78:ff:
                    39:63:c3:7d:fc:79:c1:dc:91:bb:88:52:91:e3:71:
                    ad:db:0a:21:2d:f5:12:cc:04:a3:42:08:ce:7f:63:
                    80:25:a2:cd:3a:d4:27:ab:99:4f:62:58:9a:db:86:
                    e1:dc:d1:5a:14:de:23:57:2b:f4:8b:7e:36:d9:f6:
                    6f:d6:12:79:b2:11:a1:d1:1d:47:35:c9:06:2f:30:
                    61:57
                Exponent: 65537 (0x10001)
        X509v3 extensions:
            X509v3 Basic Constraints: 
                CA:FALSE
            X509v3 Subject Key Identifier: 
                26:76:B9:02:54:D5:F4:40:0D:C2:6D:C6:05:3D:6B:70:84:B1:AE:7B
            X509v3 Authority Key Identifier: 
                keyid:96:AB:10:08:01:97:50:D7:FD:23:6B:14:0F:0E:1F:A4:3C:BC:1A:2F
                DirName:/CN=team59-net
                serial:09:6F:40:DF:57:EB:93:D5:31:CA:07:61:F9:56:6B:48:3A:4B:2A:83
            X509v3 Extended Key Usage: 
                TLS Web Server Authentication
            X509v3 Key Usage: 
                Digital Signature, Key Encipherment
            X509v3 Subject Alternative Name: 
                DNS:team59-server
    Signature Algorithm: sha256WithRSAEncryption
    Signature Value:
        07:08:c4:8b:71:d9:db:3c:24:aa:19:88:74:f2:2d:ae:cd:bd:
        c9:e7:f8:bb:aa:51:c2:a4:1a:1b:4a:83:49:2a:6b:87:8b:9b:
        0d:2a:bf:be:93:cb:70:50:f2:38:bc:1d:97:29:13:2e:a4:6c:
        98:2e:3c:72:6a:6c:e2:a1:d3:7d:61:db:50:bc:e9:15:ea:f1:
        3d:92:ef:04:ab:a8:56:7e:37:16:8e:6a:00:5d:41:75:f7:ba:
        d7:55:a3:ce:25:03:0e:0a:01:8b:7f:c5:69:88:00:59:7d:5e:
        d0:97:49:23:2e:2c:9c:0a:fe:ec:31:d5:a6:90:cd:e3:eb:65:
        29:63:ca:5a:30:b4:bd:d1:d9:cb:c4:4d:43:d6:fd:24:9d:b4:
        eb:a8:42:2f:8c:4a:98:14:11:0f:09:7b:9d:49:fc:7b:f4:16:
        48:01:9d:42:c9:11:db:75:ea:6e:74:e0:6a:c2:ec:e5:a6:6c:
        d1:37:15:3c:37:a1:3c:24:03:f8:24:f3:01:ea:3f:a1:e5:93:
        43:9f:5f:df:24:40:df:d2:7d:a6:d3:57:4a:6c:21:91:12:bb:
        bd:4c:82:4f:db:20:7e:ea:e6:50:65:de:ec:60:a0:ab:47:dd:
        6e:08:9e:75:9d:e4:46:36:52:89:50:c8:62:d5:53:b4:05:04:
        d0:be:86:12
-----BEGIN CERTIFICATE-----
MIIDdDCCAlygAwIBAgIRALmyfDnqsLddXYoqrFj5LicwDQYJKoZIhvcNAQELBQAw
FTETMBEGA1UEAwwKdGVhbTU5LW5ldDAeFw0yMzExMDQxMTI4MzBaFw0yNjEwMTkx
MTI4MzBaMBgxFjAUBgNVBAMMDXRlYW01OS1zZXJ2ZXIwggEiMA0GCSqGSIb3DQEB
AQUAA4IBDwAwggEKAoIBAQChkPKcdo8kdcPz9rOhvW2UCvaxYJAtU5fQFxzpyjZY
mzUgyumnja/7x9K3TKkQd3jYAVw7BzuBxSxam7DEFDiWRcXhy/QJbk6zTZz8mVEM
kab38oF07uGH3vhYMQgfJK7YASn2/BrTysCbw8y/m3DsDxsO9CTN2mxvW2yqMBJf
koiNgP4Y/5EGEfxd59ZMjGc9JFvyok8gBbDZdHSoBwKrCboLxwdMk2laAjNJcHqD
SMB4/zljw338ecHckbuIUpHjca3bCiEt9RLMBKNCCM5/Y4Alos061CermU9iWJrb
huHc0VoU3iNXK/SLfjbZ9m/WEnmyEaHRHUc1yQYvMGFXAgMBAAGjgbswgbgwCQYD
VR0TBAIwADAdBgNVHQ4EFgQUJna5AlTV9EANwm3GBT1rcISxrnswUAYDVR0jBEkw
R4AUlqsQCAGXUNf9I2sUDw4fpDy8Gi+hGaQXMBUxEzARBgNVBAMMCnRlYW01OS1u
ZXSCFAlvQN9X65PVMcoHYflWa0g6SyqDMBMGA1UdJQQMMAoGCCsGAQUFBwMBMAsG
A1UdDwQEAwIFoDAYBgNVHREEETAPgg10ZWFtNTktc2VydmVyMA0GCSqGSIb3DQEB
CwUAA4IBAQAHCMSLcdnbPCSqGYh08i2uzb3J5/i7qlHCpBobSoNJKmuHi5sNKr++
k8twUPI4vB2XKRMupGyYLjxyamziodN9YdtQvOkV6vE9ku8Eq6hWfjcWjmoAXUF1
97rXVaPOJQMOCgGLf8VpiABZfV7Ql0kjLiycCv7sMdWmkM3j62UpY8paMLS90dnL
xE1D1v0knbTrqEIvjEqYFBEPCXudSfx79BZIAZ1CyRHbdepudOBqwuzlpmzRNxU8
N6E8JAP4JPMB6j+h5ZNDn1/fJEDf0n2m01dKbCGREru9TIJP2yB+6uZQZd7sYKCr
R91uCJ51neRGNlKJUMhi1VO0BQTQvoYS
-----END CERTIFICATE-----
