Certificate:
    Data:
        Version: 3 (0x2)
        Serial Number:
            0e:4e:58:94:28:f2:c6:26:cd:f4:f2:dc:6f:e4:81:09
        Signature Algorithm: sha256WithRSAEncryption
        Issuer: CN=team424-net
        Validity
            Not Before: Nov  4 11:37:00 2023 GMT
            Not After : Oct 19 11:37:00 2026 GMT
        Subject: CN=team424-client
        Subject Public Key Info:
            Public Key Algorithm: rsaEncryption
                Public-Key: (2048 bit)
                Modulus:
                    00:a7:9c:77:cd:17:67:b7:b1:de:6d:f2:de:eb:b5:
                    1a:70:81:62:88:ae:a6:b6:8b:4b:ca:a4:17:cd:b1:
                    1b:e1:6b:97:0a:7d:00:ea:c8:a1:68:fa:2d:e6:53:
                    8e:2a:ba:a3:ef:59:a9:56:15:cf:88:fa:61:28:7c:
                    eb:f1:c5:95:c1:00:62:aa:f6:77:5d:a4:e1:05:96:
                    a6:ab:e0:04:77:c8:c0:43:c6:01:c9:72:30:72:08:
                    d3:db:13:c6:de:47:a8:0a:3a:64:e4:47:5b:10:56:
                    20:f8:c0:04:b9:f2:74:f3:69:96:92:79:b7:95:3b:
                    db:16:92:66:86:69:a1:ee:99:d2:e0:99:89:0d:86:
                    d9:19:e9:e6:11:71:e1:1c:a1:9b:97:60:4f:a3:b6:
                    58:64:e4:53:68:5c:a1:59:45:cc:f1:95:06:ca:5c:
                    38:86:c1:78:d5:9e:c5:f4:51:f9:d8:7e:cf:a6:1b:
                    b6:54:51:86:86:5d:90:69:c8:b9:1f:1d:d2:56:65:
                    c4:d3:2c:63:6f:a6:3a:d6:79:38:91:bc:ed:27:5e:
                    fe:47:37:c9:bc:72:8a:66:d7:c2:22:b8:fd:bb:e0:
                    ac:b0:3d:60:8a:a9:13:02:75:ed:bb:31:32:92:48:
                    55:db:8d:05:83:78:53:61:33:6d:c8:7f:0f:49:ba:
                    af:75
                Exponent: 65537 (0x10001)
        X509v3 extensions:
            X509v3 Basic Constraints: 
                CA:FALSE
            X509v3 Subject Key Identifier: 
                81:A9:74:5D:45:B1:42:C1:D4:38:04:8D:29:A7:D5:BE:E2:FC:E7:12
            X509v3 Authority Key Identifier: 
                keyid:F9:3A:CE:33:10:10:68:16:B8:8C:B3:63:1D:80:45:7D:5F:D7:8C:E6
                DirName:/CN=team424-net
                serial:66:B9:40:D8:70:53:EE:81:61:A9:58:C4:8C:BA:A0:1E:27:F1:50:42
            X509v3 Extended Key Usage: 
                TLS Web Client Authentication
            X509v3 Key Usage: 
                Digital Signature
    Signature Algorithm: sha256WithRSAEncryption
    Signature Value:
        c3:a5:dc:df:b2:3e:23:21:b5:e3:e1:6c:b6:ba:d9:c3:67:28:
        f2:6a:38:83:fa:b3:2e:e3:7a:0c:71:f2:30:17:e4:f0:57:a0:
        5f:86:89:a6:15:3a:3b:d5:5d:58:41:ea:92:c3:92:a6:11:4e:
        7e:07:7e:52:76:cc:4c:82:29:81:7d:76:dc:4d:73:02:fb:c1:
        04:cc:35:46:00:f5:25:0f:37:65:28:0a:ce:23:20:7e:2b:93:
        71:a6:e0:14:4d:f6:2d:33:82:6b:3a:90:dc:e7:06:22:73:04:
        3b:cd:c6:2c:13:be:32:5e:5a:05:92:75:38:cf:40:39:71:48:
        e8:42:3e:4d:9d:dc:09:2c:b7:40:2c:db:8c:1b:3b:a3:13:aa:
        0f:1a:b1:ad:7c:e8:40:4a:ba:3b:0d:21:3a:bc:54:7e:f4:09:
        2d:0a:c4:61:9c:d7:b8:bc:1b:4f:2f:0b:c0:11:25:15:c5:ff:
        69:e7:c2:29:72:36:b6:7b:63:f7:c2:20:c7:19:82:28:29:e1:
        c2:22:ad:30:cb:2b:79:9a:4a:8e:c3:51:9a:c5:06:6a:2c:d6:
        b1:a2:9e:b3:a7:4a:79:49:e1:e5:53:b1:ab:89:3f:73:ca:48:
        f2:07:32:6f:8e:ad:80:cc:88:23:30:2d:01:67:9c:32:a1:0c:
        27:5b:01:19
-----BEGIN CERTIFICATE-----
MIIDXDCCAkSgAwIBAgIQDk5YlCjyxibN9PLcb+SBCTANBgkqhkiG9w0BAQsFADAW
MRQwEgYDVQQDDAt0ZWFtNDI0LW5ldDAeFw0yMzExMDQxMTM3MDBaFw0yNjEwMTkx
MTM3MDBaMBkxFzAVBgNVBAMMDnRlYW00MjQtY2xpZW50MIIBIjANBgkqhkiG9w0B
AQEFAAOCAQ8AMIIBCgKCAQEAp5x3zRdnt7HebfLe67UacIFiiK6mtotLyqQXzbEb
4WuXCn0A6sihaPot5lOOKrqj71mpVhXPiPphKHzr8cWVwQBiqvZ3XaThBZamq+AE
d8jAQ8YByXIwcgjT2xPG3keoCjpk5EdbEFYg+MAEufJ082mWknm3lTvbFpJmhmmh
7pnS4JmJDYbZGenmEXHhHKGbl2BPo7ZYZORTaFyhWUXM8ZUGylw4hsF41Z7F9FH5
2H7Pphu2VFGGhl2Qaci5Hx3SVmXE0yxjb6Y61nk4kbztJ17+RzfJvHKKZtfCIrj9
u+CssD1giqkTAnXtuzEykkhV240Fg3hTYTNtyH8PSbqvdQIDAQABo4GiMIGfMAkG
A1UdEwQCMAAwHQYDVR0OBBYEFIGpdF1FsULB1DgEjSmn1b7i/OcSMFEGA1UdIwRK
MEiAFPk6zjMQEGgWuIyzYx2ARX1f14zmoRqkGDAWMRQwEgYDVQQDDAt0ZWFtNDI0
LW5ldIIUZrlA2HBT7oFhqVjEjLqgHifxUEIwEwYDVR0lBAwwCgYIKwYBBQUHAwIw
CwYDVR0PBAQDAgeAMA0GCSqGSIb3DQEBCwUAA4IBAQDDpdzfsj4jIbXj4Wy2utnD
ZyjyajiD+rMu43oMcfIwF+TwV6BfhommFTo71V1YQeqSw5KmEU5+B35SdsxMgimB
fXbcTXMC+8EEzDVGAPUlDzdlKArOIyB+K5NxpuAUTfYtM4JrOpDc5wYicwQ7zcYs
E74yXloFknU4z0A5cUjoQj5NndwJLLdALNuMGzujE6oPGrGtfOhASro7DSE6vFR+
9AktCsRhnNe4vBtPLwvAESUVxf9p58Ipcja2e2P3wiDHGYIoKeHCIq0wyyt5mkqO
w1GaxQZqLNaxop6zp0p5SeHlU7GriT9zykjyBzJvjq2AzIgjMC0BZ5wyoQwnWwEZ
-----END CERTIFICATE-----
