Certificate:
    Data:
        Version: 3 (0x2)
        Serial Number:
            ba:15:24:6d:f0:49:d7:97:16:09:2c:8f:a4:6d:ae:62
        Signature Algorithm: sha256WithRSAEncryption
        Issuer: CN=team424-net
        Validity
            Not Before: Nov  4 11:37:00 2023 GMT
            Not After : Oct 19 11:37:00 2026 GMT
        Subject: CN=team424-server
        Subject Public Key Info:
            Public Key Algorithm: rsaEncryption
                Public-Key: (2048 bit)
                Modulus:
                    00:bb:12:d7:4d:ec:5f:eb:69:7b:ad:e7:c1:3a:b7:
                    fb:ec:b1:5c:5c:c5:39:cb:a5:cb:e4:09:3f:1a:6b:
                    54:af:23:84:c0:2c:d2:a4:56:68:ba:96:4a:f1:e2:
                    5f:9e:f9:87:39:2d:ad:d5:5b:ae:21:ec:46:66:99:
                    33:c0:8e:92:92:32:da:c9:6d:1c:6b:a3:d4:87:71:
                    76:dc:35:f7:a2:5c:a3:a1:23:af:e2:16:c6:a2:1b:
                    41:fb:68:44:57:38:24:ef:18:f9:a7:df:6b:de:06:
                    55:35:6f:45:24:3f:de:bc:df:6d:1b:8f:a3:85:3d:
                    c9:ba:cc:c0:c1:7b:f2:c0:f2:b7:a1:3a:4c:74:59:
                    69:90:ed:8a:36:5e:6e:37:cd:7d:31:7c:67:64:a3:
                    78:c7:f0:8c:c6:0f:90:c8:f4:e6:f1:22:6f:01:e2:
                    ce:91:43:64:68:9e:cb:c8:21:86:3f:21:78:4b:0b:
                    bc:ea:96:6d:b4:e1:58:07:13:29:ab:a1:af:38:9c:
                    43:cd:4c:dc:db:22:76:a8:f6:de:16:83:e5:fd:93:
                    28:be:0e:65:fb:7d:3d:5d:bc:a6:95:d9:d7:34:88:
                    79:21:48:2d:ac:17:51:c2:79:b1:df:45:33:79:89:
                    c7:02:88:64:f7:92:7d:d6:23:49:c4:c1:a7:e4:5e:
                    21:15
                Exponent: 65537 (0x10001)
        X509v3 extensions:
            X509v3 Basic Constraints: 
                CA:FALSE
            X509v3 Subject Key Identifier: 
                ED:67:14:6A:16:82:53:0F:E8:D8:C0:14:8E:C0:A1:83:51:F0:5F:0E
            X509v3 Authority Key Identifier: 
                keyid:F9:3A:CE:33:10:10:68:16:B8:8C:B3:63:1D:80:45:7D:5F:D7:8C:E6
                DirName:/CN=team424-net
                serial:66:B9:40:D8:70:53:EE:81:61:A9:58:C4:8C:BA:A0:1E:27:F1:50:42
            X509v3 Extended Key Usage: 
                TLS Web Server Authentication
            X509v3 Key Usage: 
                Digital Signature, Key Encipherment
            X509v3 Subject Alternative Name: 
                DNS:team424-server
    Signature Algorithm: sha256WithRSAEncryption
    Signature Value:
        79:98:9b:f2:f7:8a:94:dc:1a:c1:6b:41:d5:99:87:d0:f6:a0:
        0d:49:e2:c3:61:de:7e:67:0d:4f:9a:88:17:e4:be:db:fb:d8:
        24:e7:45:7a:6c:3f:70:3a:d5:9d:59:7b:07:98:7a:bd:45:cb:
        45:15:aa:1c:4d:8f:4d:60:88:5c:96:d9:dc:a9:0f:57:37:df:
        51:2a:d7:20:06:75:a1:f0:9d:3f:55:0c:69:0f:9e:c7:d2:a7:
        d3:33:f5:d4:51:7d:d3:00:db:6d:48:59:59:44:62:46:63:54:
        91:63:5f:ad:ab:8d:c3:8d:33:7f:3c:33:99:aa:ab:13:98:15:
        fb:7b:b7:21:eb:08:3a:cd:e5:1b:a7:1f:1e:b0:07:9e:d7:8e:
        76:77:76:aa:86:b4:a3:fb:55:5a:d7:33:b9:9c:37:9a:d1:ce:
        d3:b0:1c:7e:de:f1:9f:13:e4:d9:f8:87:1e:64:91:02:43:8c:
        df:df:8c:38:b8:c2:f5:d8:fb:21:65:6e:01:1a:67:fd:86:29:
        d2:b6:e1:b8:e3:66:53:93:c6:44:a7:c7:60:2c:9b:f1:18:7d:
        f2:ee:89:78:39:59:34:eb:35:73:a6:b1:31:c2:40:0f:69:ca:
        27:ca:25:52:7c:ea:6d:8a:7f:aa:6b:19:2a:e6:6d:f4:8a:b3:
        7b:b8:30:08
-----BEGIN CERTIFICATE-----
MIIDeDCCAmCgAwIBAgIRALoVJG3wSdeXFgksj6RtrmIwDQYJKoZIhvcNAQELBQAw
FjEUMBIGA1UEAwwLdGVhbTQyNC1uZXQwHhcNMjMxMTA0MTEzNzAwWhcNMjYxMDE5
MTEzNzAwWjAZMRcwFQYDVQQDDA50ZWFtNDI0LXNlcnZlcjCCASIwDQYJKoZIhvcN
AQEBBQADggEPADCCAQoCggEBALsS103sX+tpe63nwTq3++yxXFzFOculy+QJPxpr
VK8jhMAs0qRWaLqWSvHiX575hzktrdVbriHsRmaZM8COkpIy2sltHGuj1Idxdtw1
96Jco6Ejr+IWxqIbQftoRFc4JO8Y+affa94GVTVvRSQ/3rzfbRuPo4U9ybrMwMF7
8sDyt6E6THRZaZDtijZebjfNfTF8Z2SjeMfwjMYPkMj05vEibwHizpFDZGiey8gh
hj8heEsLvOqWbbThWAcTKauhrzicQ81M3Nsidqj23haD5f2TKL4OZft9PV28ppXZ
1zSIeSFILawXUcJ5sd9FM3mJxwKIZPeSfdYjScTBp+ReIRUCAwEAAaOBvTCBujAJ
BgNVHRMEAjAAMB0GA1UdDgQWBBTtZxRqFoJTD+jYwBSOwKGDUfBfDjBRBgNVHSME
SjBIgBT5Os4zEBBoFriMs2MdgEV9X9eM5qEapBgwFjEUMBIGA1UEAwwLdGVhbTQy
NC1uZXSCFGa5QNhwU+6BYalYxIy6oB4n8VBCMBMGA1UdJQQMMAoGCCsGAQUFBwMB
MAsGA1UdDwQEAwIFoDAZBgNVHREEEjAQgg50ZWFtNDI0LXNlcnZlcjANBgkqhkiG
9w0BAQsFAAOCAQEAeZib8veKlNwawWtB1ZmH0PagDUniw2HefmcNT5qIF+S+2/vY
JOdFemw/cDrVnVl7B5h6vUXLRRWqHE2PTWCIXJbZ3KkPVzffUSrXIAZ1ofCdP1UM
aQ+ex9Kn0zP11FF90wDbbUhZWURiRmNUkWNfrauNw40zfzwzmaqrE5gV+3u3IesI
Os3lG6cfHrAHnteOdnd2qoa0o/tVWtczuZw3mtHO07Acft7xnxPk2fiHHmSRAkOM
39+MOLjC9dj7IWVuARpn/YYp0rbhuONmU5PGRKfHYCyb8Rh98u6JeDlZNOs1c6ax
McJAD2nKJ8olUnzqbYp/qmsZKuZt9Iqze7gwCA==
-----END CERTIFICATE-----
