Certificate:
    Data:
        Version: 3 (0x2)
        Serial Number:
            3b:0d:05:26:17:9e:70:f2:3b:08:df:8f:35:97:1f:99
        Signature Algorithm: sha256WithRSAEncryption
        Issuer: CN=team455-net
        Validity
            Not Before: Nov  4 11:37:44 2023 GMT
            Not After : Oct 19 11:37:44 2026 GMT
        Subject: CN=team455-client
        Subject Public Key Info:
            Public Key Algorithm: rsaEncryption
                Public-Key: (2048 bit)
                Modulus:
                    00:ba:76:56:9c:a2:bc:df:44:28:1f:11:e5:c9:f9:
                    85:59:6e:8a:a0:42:95:b1:60:44:17:46:9b:7d:0a:
                    95:a9:80:2c:f6:07:86:88:33:6e:1b:ff:29:4b:74:
                    6d:99:21:58:55:8b:e7:8e:4b:6b:fb:88:01:e1:27:
                    f0:de:d8:b4:80:45:73:ff:44:96:6d:00:65:13:7e:
                    18:40:f7:ce:a0:cf:e6:99:84:80:a1:d9:e6:61:2a:
                    58:8d:4b:14:a6:84:00:b5:6c:a6:1d:1a:58:83:79:
                    86:21:88:a8:47:50:cb:bb:55:3b:28:b9:1d:73:3d:
                    81:e1:c8:e0:de:86:18:43:81:2a:1b:3b:5d:a6:15:
                    7f:00:94:f7:f0:20:3c:36:9e:28:77:1b:24:13:44:
                    f4:3a:e5:43:1f:19:cb:e3:c0:c5:69:ec:f7:7f:c1:
                    ea:d4:6e:0c:d9:b9:a4:7a:1a:87:8a:31:f5:ed:e1:
                    7d:b7:15:23:77:ca:63:28:8a:84:c5:f0:ce:35:9f:
                    eb:e2:c9:98:3c:1f:b6:41:d2:a7:6b:0e:5b:82:55:
                    74:65:03:8d:6b:45:d1:38:f2:f0:9e:67:6b:96:c4:
                    d9:be:00:8b:96:d6:2c:33:92:91:a3:68:fd:b2:73:
                    d3:9b:96:72:d3:b4:57:06:22:06:7b:8a:5a:63:57:
                    4a:e3
                Exponent: 65537 (0x10001)
        X509v3 extensions:
            X509v3 Basic Constraints: 
                CA:FALSE
            X509v3 Subject Key Identifier: 
                59:B0:9F:03:5C:A8:6E:0F:9A:49:EE:C9:32:FB:79:ED:E0:0B:74:6D
            X509v3 Authority Key Identifier: 
                keyid:6E:11:95:BC:8B:1A:2B:FA:87:14:2B:06:40:AA:84:64:53:9E:71:BE
                DirName:/CN=team455-net
                serial:75:1B:9C:1F:5D:E5:94:65:15:A6:19:56:A5:C8:20:A4:0E:FC:8C:A0
            X509v3 Extended Key Usage: 
                TLS Web Client Authentication
            X509v3 Key Usage: 
                Digital Signature
    Signature Algorithm: sha256WithRSAEncryption
    Signature Value:
        5f:76:71:05:4f:2c:dd:7b:f1:8e:5d:ae:46:84:af:14:7d:8d:
        83:9c:ba:87:4a:fd:90:35:3e:80:e1:8a:c7:c9:82:ff:65:de:
        d1:38:e6:9d:5d:2d:20:e7:b5:0e:b7:b1:29:6c:aa:74:eb:a8:
        23:76:62:68:07:38:1f:fd:f2:fa:ed:ba:4e:d5:31:6f:b7:87:
        cd:6a:2f:33:93:52:f6:6e:44:ae:fc:0a:cf:f0:e5:39:23:f5:
        92:36:45:25:44:d0:86:c3:89:ed:ff:2d:61:e2:51:f0:fd:1b:
        5a:7a:4f:2d:c3:c3:a7:f7:44:b1:5e:d3:4e:02:63:2b:4d:d6:
        f4:04:0a:2b:3f:a9:35:92:cc:77:f9:76:34:9f:d4:31:78:32:
        64:c3:17:60:cc:4c:2a:a0:04:c4:15:73:8a:d5:60:96:99:2e:
        c5:7f:4a:5b:f5:c8:a4:af:3d:b9:c9:c8:76:5f:27:04:73:99:
        f3:dc:dd:f6:d4:9c:70:83:6f:57:b6:44:f3:a9:1e:0a:e2:d3:
        43:ce:c7:82:7b:bc:68:0a:0b:9b:24:49:17:35:bf:22:ea:13:
        5e:52:0f:43:25:0f:d0:3c:a8:9d:6a:2a:6b:01:fc:b9:73:58:
        9f:73:e7:96:6a:71:b6:f4:74:6b:39:d5:1e:c2:ea:9b:f1:59:
        e0:16:b1:7e
-----BEGIN CERTIFICATE-----
MIIDXDCCAkSgAwIBAgIQOw0FJheecPI7CN+PNZcfmTANBgkqhkiG9w0BAQsFADAW
MRQwEgYDVQQDDAt0ZWFtNDU1LW5ldDAeFw0yMzExMDQxMTM3NDRaFw0yNjEwMTkx
MTM3NDRaMBkxFzAVBgNVBAMMDnRlYW00NTUtY2xpZW50MIIBIjANBgkqhkiG9w0B
AQEFAAOCAQ8AMIIBCgKCAQEAunZWnKK830QoHxHlyfmFWW6KoEKVsWBEF0abfQqV
qYAs9geGiDNuG/8pS3RtmSFYVYvnjktr+4gB4Sfw3ti0gEVz/0SWbQBlE34YQPfO
oM/mmYSAodnmYSpYjUsUpoQAtWymHRpYg3mGIYioR1DLu1U7KLkdcz2B4cjg3oYY
Q4EqGztdphV/AJT38CA8Np4odxskE0T0OuVDHxnL48DFaez3f8Hq1G4M2bmkehqH
ijH17eF9txUjd8pjKIqExfDONZ/r4smYPB+2QdKnaw5bglV0ZQONa0XROPLwnmdr
lsTZvgCLltYsM5KRo2j9snPTm5Zy07RXBiIGe4paY1dK4wIDAQABo4GiMIGfMAkG
A1UdEwQCMAAwHQYDVR0OBBYEFFmwnwNcqG4PmknuyTL7ee3gC3RtMFEGA1UdIwRK
MEiAFG4RlbyLGiv6hxQrBkCqhGRTnnG+oRqkGDAWMRQwEgYDVQQDDAt0ZWFtNDU1
LW5ldIIUdRucH13llGUVphlWpcggpA78jKAwEwYDVR0lBAwwCgYIKwYBBQUHAwIw
CwYDVR0PBAQDAgeAMA0GCSqGSIb3DQEBCwUAA4IBAQBfdnEFTyzde/GOXa5GhK8U
fY2DnLqHSv2QNT6A4YrHyYL/Zd7ROOadXS0g57UOt7EpbKp066gjdmJoBzgf/fL6
7bpO1TFvt4fNai8zk1L2bkSu/ArP8OU5I/WSNkUlRNCGw4nt/y1h4lHw/Rtaek8t
w8On90SxXtNOAmMrTdb0BAorP6k1ksx3+XY0n9QxeDJkwxdgzEwqoATEFXOK1WCW
mS7Ff0pb9cikrz25ych2XycEc5nz3N321Jxwg29XtkTzqR4K4tNDzseCe7xoCgub
JEkXNb8i6hNeUg9DJQ/QPKidaiprAfy5c1ifc+eWanG29HRrOdUewuqb8VngFrF+
-----END CERTIFICATE-----
