Certificate:
    Data:
        Version: 3 (0x2)
        Serial Number:
            3d:09:77:84:b8:18:54:e6:6f:57:d7:89:34:90:e6:cf
        Signature Algorithm: sha256WithRSAEncryption
        Issuer: CN=team455-net
        Validity
            Not Before: Nov  4 11:37:45 2023 GMT
            Not After : Oct 19 11:37:45 2026 GMT
        Subject: CN=team455-server
        Subject Public Key Info:
            Public Key Algorithm: rsaEncryption
                Public-Key: (2048 bit)
                Modulus:
                    00:d2:c5:50:11:91:da:7b:ac:98:b4:b5:b4:e5:b7:
                    cc:11:89:d4:83:a6:ec:fd:67:09:c1:69:1b:75:47:
                    f9:0e:93:b8:fa:c5:2f:94:00:18:6d:90:d7:9f:55:
                    8d:9b:78:a6:fa:7f:69:77:8c:cf:80:9d:57:55:52:
                    e1:8c:59:93:7e:4f:b6:41:c0:17:59:64:d0:82:00:
                    d9:d3:eb:24:6f:7d:bd:ba:91:cf:97:8f:65:6a:99:
                    92:f7:16:d0:de:54:97:a2:f7:7f:73:4b:3c:d8:40:
                    3f:9e:21:2c:17:d8:01:ed:4f:f3:3a:4d:b8:47:85:
                    8e:dd:65:83:52:ea:9a:80:61:af:0d:53:89:82:cc:
                    2e:7b:f6:50:c0:df:e5:38:6e:84:a1:58:79:39:82:
                    ad:0b:0c:2b:f4:97:ab:5d:6c:a9:51:7e:2f:36:57:
                    2d:11:c6:b4:4c:6e:29:3a:6f:88:70:a0:df:4a:67:
                    5f:0b:17:aa:01:08:89:78:dc:3b:92:db:65:d9:60:
                    c4:81:24:3f:de:78:0f:0a:7f:3d:ce:94:6a:7e:d8:
                    29:c8:73:91:3f:0b:88:0b:cb:91:9f:c4:30:57:59:
                    26:76:17:c2:85:6e:ac:98:a3:25:db:69:25:9b:fb:
                    66:6b:dc:86:b7:e1:44:44:b9:13:c5:c8:61:f0:1b:
                    46:97
                Exponent: 65537 (0x10001)
        X509v3 extensions:
            X509v3 Basic Constraints: 
                CA:FALSE
            X509v3 Subject Key Identifier: 
                64:C5:C2:15:10:3A:CF:3E:FD:54:87:30:1C:97:30:1A:8A:46:67:18
            X509v3 Authority Key Identifier: 
                keyid:6E:11:95:BC:8B:1A:2B:FA:87:14:2B:06:40:AA:84:64:53:9E:71:BE
                DirName:/CN=team455-net
                serial:75:1B:9C:1F:5D:E5:94:65:15:A6:19:56:A5:C8:20:A4:0E:FC:8C:A0
            X509v3 Extended Key Usage: 
                TLS Web Server Authentication
            X509v3 Key Usage: 
                Digital Signature, Key Encipherment
            X509v3 Subject Alternative Name: 
                DNS:team455-server
    Signature Algorithm: sha256WithRSAEncryption
    Signature Value:
        13:35:9a:57:5a:4b:9a:ff:21:ab:36:1b:e8:bd:49:90:88:b0:
        a1:c1:d8:50:93:81:05:09:1a:3b:45:23:0b:8f:78:19:2c:7d:
        e2:5a:6f:4d:ad:a0:0e:b8:42:1b:83:9b:00:3d:9b:fe:95:d7:
        33:21:28:18:56:47:d2:bd:58:3b:c1:ae:89:21:d1:3c:ed:50:
        fc:94:8b:17:91:29:8d:e7:4e:b0:0f:70:50:25:d4:c0:4e:8d:
        62:1f:22:c4:8e:5b:c8:bc:1f:87:db:b6:0f:eb:b3:f5:6d:27:
        1b:05:13:0e:03:40:5b:d1:81:2c:c2:1c:19:3e:65:97:8d:9f:
        e8:9b:3b:e8:a3:17:c1:d9:44:90:ef:44:9f:a4:d8:b4:99:c1:
        57:43:ca:58:84:8d:78:c1:c4:da:64:2e:46:6e:7a:dc:67:48:
        e8:59:9a:4d:76:89:ca:ae:9d:68:a7:e1:87:69:8c:b6:4d:c0:
        b9:3d:f9:02:11:97:d4:f4:ae:a3:9d:d8:93:85:9e:31:5d:12:
        7c:80:c4:38:1e:78:12:34:e4:13:66:80:46:d8:8c:7b:ba:d4:
        f5:f3:78:d7:b3:96:07:de:ba:81:47:7d:d0:c8:67:b6:f9:18:
        97:be:79:ce:e9:5a:0e:30:b7:73:43:8a:53:8f:d6:3b:53:ad:
        72:b4:39:84
-----BEGIN CERTIFICATE-----
MIIDdzCCAl+gAwIBAgIQPQl3hLgYVOZvV9eJNJDmzzANBgkqhkiG9w0BAQsFADAW
MRQwEgYDVQQDDAt0ZWFtNDU1LW5ldDAeFw0yMzExMDQxMTM3NDVaFw0yNjEwMTkx
MTM3NDVaMBkxFzAVBgNVBAMMDnRlYW00NTUtc2VydmVyMIIBIjANBgkqhkiG9w0B
AQEFAAOCAQ8AMIIBCgKCAQEA0sVQEZHae6yYtLW05bfMEYnUg6bs/WcJwWkbdUf5
DpO4+sUvlAAYbZDXn1WNm3im+n9pd4zPgJ1XVVLhjFmTfk+2QcAXWWTQggDZ0+sk
b329upHPl49lapmS9xbQ3lSXovd/c0s82EA/niEsF9gB7U/zOk24R4WO3WWDUuqa
gGGvDVOJgswue/ZQwN/lOG6EoVh5OYKtCwwr9JerXWypUX4vNlctEca0TG4pOm+I
cKDfSmdfCxeqAQiJeNw7kttl2WDEgSQ/3ngPCn89zpRqftgpyHORPwuIC8uRn8Qw
V1kmdhfChW6smKMl22klm/tma9yGt+FERLkTxchh8BtGlwIDAQABo4G9MIG6MAkG
A1UdEwQCMAAwHQYDVR0OBBYEFGTFwhUQOs8+/VSHMByXMBqKRmcYMFEGA1UdIwRK
MEiAFG4RlbyLGiv6hxQrBkCqhGRTnnG+oRqkGDAWMRQwEgYDVQQDDAt0ZWFtNDU1
LW5ldIIUdRucH13llGUVphlWpcggpA78jKAwEwYDVR0lBAwwCgYIKwYBBQUHAwEw
CwYDVR0PBAQDAgWgMBkGA1UdEQQSMBCCDnRlYW00NTUtc2VydmVyMA0GCSqGSIb3
DQEBCwUAA4IBAQATNZpXWkua/yGrNhvovUmQiLChwdhQk4EFCRo7RSMLj3gZLH3i
Wm9NraAOuEIbg5sAPZv+ldczISgYVkfSvVg7wa6JIdE87VD8lIsXkSmN506wD3BQ
JdTATo1iHyLEjlvIvB+H27YP67P1bScbBRMOA0Bb0YEswhwZPmWXjZ/omzvooxfB
2USQ70SfpNi0mcFXQ8pYhI14wcTaZC5GbnrcZ0joWZpNdonKrp1op+GHaYy2TcC5
PfkCEZfU9K6jndiThZ4xXRJ8gMQ4HngSNOQTZoBG2Ix7utT183jXs5YH3rqBR33Q
yGe2+RiXvnnO6VoOMLdzQ4pTj9Y7U61ytDmE
-----END CERTIFICATE-----
