Certificate:
    Data:
        Version: 3 (0x2)
        Serial Number:
            d5:6a:2b:4d:85:17:46:f7:c2:75:f8:10:08:59:3d:45
        Signature Algorithm: sha256WithRSAEncryption
        Issuer: CN=team455-net
        Validity
            Not Before: Nov  4 10:48:44 2023 GMT
            Not After : Oct 19 10:48:44 2026 GMT
        Subject: CN=team455-server
        Subject Public Key Info:
            Public Key Algorithm: rsaEncryption
                Public-Key: (2048 bit)
                Modulus:
                    00:b0:f9:92:5c:77:87:c9:a6:49:02:8b:95:f9:0a:
                    1e:d6:ef:81:47:e6:33:76:4c:70:7e:63:d4:7f:74:
                    6d:26:8d:f1:10:54:f5:0c:fd:37:84:a8:c3:11:f0:
                    27:15:57:5d:7a:a6:55:04:34:64:2a:74:0d:25:69:
                    e5:52:17:c8:f7:c1:98:d0:10:b8:8e:0e:14:5b:df:
                    b9:12:cf:3f:f4:20:b7:22:e6:57:a8:e8:b1:05:ea:
                    61:75:ef:16:08:41:db:ec:c0:69:67:ff:06:53:8a:
                    41:9e:be:80:16:45:50:71:33:f7:76:34:28:9c:cd:
                    17:16:cd:57:bb:60:29:9c:41:0d:df:fd:ec:a3:92:
                    19:5a:59:02:eb:b0:47:8c:43:65:ce:93:fd:26:16:
                    9f:71:f8:45:c6:88:03:6c:48:ec:32:0b:49:e9:2e:
                    fe:9c:6d:0e:60:ff:78:a0:29:65:f0:19:26:30:88:
                    c1:c4:d6:c3:07:4a:03:15:90:08:09:87:93:92:b8:
                    01:5a:d6:61:9c:0d:ca:b4:85:97:40:d5:06:b3:c4:
                    ba:d4:70:d5:ee:c8:e1:1a:21:29:54:96:5d:49:8b:
                    bf:ec:bb:f2:77:dd:12:92:2d:af:24:38:c8:ea:62:
                    af:8c:e7:21:af:8c:45:d9:11:fa:de:92:0b:6b:1a:
                    39:3d
                Exponent: 65537 (0x10001)
        X509v3 extensions:
            X509v3 Basic Constraints: 
                CA:FALSE
            X509v3 Subject Key Identifier: 
                A9:58:B0:36:65:F6:BA:AA:74:BD:F4:91:2B:37:7A:46:9D:AB:F5:20
            X509v3 Authority Key Identifier: 
                keyid:14:7E:1E:32:76:40:ED:AC:35:95:94:ED:15:18:2A:8D:49:AB:E2:C3
                DirName:/CN=team455-net
                serial:2C:60:E8:D7:BB:0F:AB:5C:C5:0B:79:9F:C0:A0:D0:FA:A7:68:AB:3A
            X509v3 Extended Key Usage: 
                TLS Web Server Authentication
            X509v3 Key Usage: 
                Digital Signature, Key Encipherment
            X509v3 Subject Alternative Name: 
                DNS:team455-server
    Signature Algorithm: sha256WithRSAEncryption
    Signature Value:
        86:b2:0c:92:6e:f3:f2:21:58:b1:6c:e3:1a:4f:fb:08:b1:80:
        0b:7d:6c:c4:2b:56:11:0b:96:a1:88:13:c3:e3:86:42:de:c3:
        ae:dd:d3:4e:8e:6d:bf:f2:35:de:76:f9:38:d0:bd:ca:bc:45:
        a5:29:6c:16:a2:25:1c:6a:8b:22:12:73:3d:d5:84:35:4d:41:
        98:fc:f6:0e:88:05:85:c2:27:c5:c8:ff:de:c1:9a:93:e1:fa:
        00:61:d3:18:78:c9:b7:98:70:16:10:43:33:89:e8:26:15:f1:
        1e:1b:95:03:64:24:14:b2:56:3c:0f:40:57:6d:f7:9c:ed:6c:
        c7:d1:c5:5d:0a:d8:38:db:61:23:7c:45:65:e4:3a:b0:c1:13:
        d8:b3:ec:62:8c:bb:72:88:92:a2:0f:cb:b2:dd:b8:f4:c6:9a:
        50:c4:46:32:aa:ef:e6:25:9b:69:b9:a7:12:3f:5a:a7:ea:f0:
        20:ca:e4:16:b5:95:e6:14:06:04:61:bb:76:c0:43:5e:39:cb:
        83:0e:1d:99:67:03:88:28:3a:90:de:87:25:c3:8f:02:56:b9:
        81:25:b5:e4:bf:e6:df:e7:8b:cf:e3:32:1d:33:52:1e:b1:84:
        04:71:15:b5:a0:f5:fc:f7:72:a8:2f:66:c0:ed:b1:28:d6:fc:
        8d:07:8b:bb
-----BEGIN CERTIFICATE-----
MIIDeDCCAmCgAwIBAgIRANVqK02FF0b3wnX4EAhZPUUwDQYJKoZIhvcNAQELBQAw
FjEUMBIGA1UEAwwLdGVhbTQ1NS1uZXQwHhcNMjMxMTA0MTA0ODQ0WhcNMjYxMDE5
MTA0ODQ0WjAZMRcwFQYDVQQDDA50ZWFtNDU1LXNlcnZlcjCCASIwDQYJKoZIhvcN
AQEBBQADggEPADCCAQoCggEBALD5klx3h8mmSQKLlfkKHtbvgUfmM3ZMcH5j1H90
bSaN8RBU9Qz9N4SowxHwJxVXXXqmVQQ0ZCp0DSVp5VIXyPfBmNAQuI4OFFvfuRLP
P/QgtyLmV6josQXqYXXvFghB2+zAaWf/BlOKQZ6+gBZFUHEz93Y0KJzNFxbNV7tg
KZxBDd/97KOSGVpZAuuwR4xDZc6T/SYWn3H4RcaIA2xI7DILSeku/pxtDmD/eKAp
ZfAZJjCIwcTWwwdKAxWQCAmHk5K4AVrWYZwNyrSFl0DVBrPEutRw1e7I4RohKVSW
XUmLv+y78nfdEpItryQ4yOpir4znIa+MRdkR+t6SC2saOT0CAwEAAaOBvTCBujAJ
BgNVHRMEAjAAMB0GA1UdDgQWBBSpWLA2Zfa6qnS99JErN3pGnav1IDBRBgNVHSME
SjBIgBQUfh4ydkDtrDWVlO0VGCqNSaviw6EapBgwFjEUMBIGA1UEAwwLdGVhbTQ1
NS1uZXSCFCxg6Ne7D6tcxQt5n8Cg0PqnaKs6MBMGA1UdJQQMMAoGCCsGAQUFBwMB
MAsGA1UdDwQEAwIFoDAZBgNVHREEEjAQgg50ZWFtNDU1LXNlcnZlcjANBgkqhkiG
9w0BAQsFAAOCAQEAhrIMkm7z8iFYsWzjGk/7CLGAC31sxCtWEQuWoYgTw+OGQt7D
rt3TTo5tv/I13nb5ONC9yrxFpSlsFqIlHGqLIhJzPdWENU1BmPz2DogFhcInxcj/
3sGak+H6AGHTGHjJt5hwFhBDM4noJhXxHhuVA2QkFLJWPA9AV233nO1sx9HFXQrY
ONthI3xFZeQ6sMET2LPsYoy7coiSog/Lst249MaaUMRGMqrv5iWbabmnEj9ap+rw
IMrkFrWV5hQGBGG7dsBDXjnLgw4dmWcDiCg6kN6HJcOPAla5gSW15L/m3+eLz+My
HTNSHrGEBHEVtaD1/PdyqC9mwO2xKNb8jQeLuw==
-----END CERTIFICATE-----
