Certificate:
    Data:
        Version: 3 (0x2)
        Serial Number:
            79:6c:38:4f:7c:8b:fd:ef:fc:e8:23:b1:be:41:d3:d5
        Signature Algorithm: sha256WithRSAEncryption
        Issuer: CN=team291-net
        Validity
            Not Before: Nov  3 20:44:35 2023 GMT
            Not After : Oct 18 20:44:35 2026 GMT
        Subject: CN=team291-client
        Subject Public Key Info:
            Public Key Algorithm: rsaEncryption
                Public-Key: (2048 bit)
                Modulus:
                    00:ad:1f:87:a8:c7:f4:1e:25:b0:2b:38:94:11:c4:
                    10:59:8d:47:7e:bb:f3:63:16:70:0b:c7:7c:8d:2f:
                    33:83:de:6e:a0:9d:a8:cc:f4:9d:d8:cb:a9:63:bc:
                    7f:cf:1c:3e:ef:56:b7:9d:34:b5:76:84:7c:f1:8a:
                    2f:57:b9:9f:3b:a9:a8:2a:0b:fc:12:85:cc:aa:2e:
                    5e:48:9d:28:9c:4d:78:a0:b4:42:57:7f:60:14:27:
                    09:99:f4:1b:af:77:48:a1:9c:83:55:32:41:d2:65:
                    bf:8b:a7:d1:59:0c:6b:ab:53:b8:77:4d:47:69:37:
                    b1:23:74:8c:eb:ee:9e:03:3a:4a:59:07:7c:40:a1:
                    c4:81:c1:6a:02:9c:09:2c:02:19:06:ec:14:d6:fe:
                    77:6b:40:02:82:9e:81:cc:79:e7:57:ee:a6:48:74:
                    ee:e3:4b:c4:2e:59:38:36:80:5b:bf:08:46:c8:a6:
                    26:4f:e3:9e:31:02:9c:94:42:10:1a:d2:23:fa:c4:
                    ea:08:e8:a7:69:6b:85:bf:95:9d:b6:b9:64:f5:3e:
                    ae:37:1d:fd:9a:27:11:e9:bb:1f:03:44:21:89:a9:
                    28:bd:66:05:75:74:46:89:74:15:3c:c1:2d:e6:33:
                    89:00:35:30:74:84:8c:b9:c2:b9:06:e0:c0:bf:a5:
                    ae:6d
                Exponent: 65537 (0x10001)
        X509v3 extensions:
            X509v3 Basic Constraints: 
                CA:FALSE
            X509v3 Subject Key Identifier: 
                17:8F:09:BA:E4:9F:ED:E2:E3:F6:17:77:03:92:D3:C9:C8:D7:11:FD
            X509v3 Authority Key Identifier: 
                keyid:58:39:55:AC:C2:F3:43:ED:B3:55:64:39:DD:EB:53:7B:EE:FD:40:DC
                DirName:/CN=team291-net
                serial:0C:7E:AF:9F:DB:69:CB:0B:59:E9:05:9F:25:00:85:42:AE:A9:33:A4
            X509v3 Extended Key Usage: 
                TLS Web Client Authentication
            X509v3 Key Usage: 
                Digital Signature
    Signature Algorithm: sha256WithRSAEncryption
    Signature Value:
        2e:15:92:65:44:b3:4b:45:4a:24:84:d9:df:60:25:77:6a:c0:
        7b:a9:3a:13:31:69:13:d5:5d:5a:97:f9:a5:40:b0:e7:13:ab:
        11:33:9d:4e:4b:a0:2b:f4:6e:e9:22:d3:36:f9:2b:9e:4d:68:
        12:bb:46:40:d1:61:1f:9e:45:56:d6:04:47:3f:33:49:b8:bc:
        fd:8c:f6:9b:a6:84:b0:0d:eb:66:c1:5e:bc:e1:28:3a:c8:b9:
        d5:08:b6:38:2a:dd:d5:c1:02:13:c2:dd:f5:1a:bd:c6:3f:86:
        3f:c4:f1:91:2a:a4:f6:35:e0:fd:8a:02:a1:15:94:62:fd:fc:
        f2:a1:66:a0:0b:9c:06:33:57:ec:c0:86:e3:c0:ae:09:32:e1:
        96:db:30:5d:dd:b1:ae:bf:00:bb:d1:68:d4:3f:0b:45:9e:dc:
        48:11:12:e4:72:cf:f5:b9:69:fc:7b:57:76:c3:5c:76:d0:67:
        5c:30:45:a0:9a:67:59:36:30:62:d1:d7:e2:d4:58:8d:cd:30:
        20:1f:09:39:c5:64:16:f4:e4:04:0d:f9:3f:13:84:67:fe:78:
        0e:46:71:c5:46:2d:33:7d:12:39:09:ee:39:45:86:ec:ec:81:
        e6:65:88:c3:a6:b7:d9:ef:c6:bc:82:04:f4:af:bc:02:d2:12:
        aa:ad:67:5f
-----BEGIN CERTIFICATE-----
MIIDXDCCAkSgAwIBAgIQeWw4T3yL/e/86COxvkHT1TANBgkqhkiG9w0BAQsFADAW
MRQwEgYDVQQDDAt0ZWFtMjkxLW5ldDAeFw0yMzExMDMyMDQ0MzVaFw0yNjEwMTgy
MDQ0MzVaMBkxFzAVBgNVBAMMDnRlYW0yOTEtY2xpZW50MIIBIjANBgkqhkiG9w0B
AQEFAAOCAQ8AMIIBCgKCAQEArR+HqMf0HiWwKziUEcQQWY1HfrvzYxZwC8d8jS8z
g95uoJ2ozPSd2MupY7x/zxw+71a3nTS1doR88YovV7mfO6moKgv8EoXMqi5eSJ0o
nE14oLRCV39gFCcJmfQbr3dIoZyDVTJB0mW/i6fRWQxrq1O4d01HaTexI3SM6+6e
AzpKWQd8QKHEgcFqApwJLAIZBuwU1v53a0ACgp6BzHnnV+6mSHTu40vELlk4NoBb
vwhGyKYmT+OeMQKclEIQGtIj+sTqCOinaWuFv5Wdtrlk9T6uNx39micR6bsfA0Qh
iakovWYFdXRGiXQVPMEt5jOJADUwdISMucK5BuDAv6WubQIDAQABo4GiMIGfMAkG
A1UdEwQCMAAwHQYDVR0OBBYEFBePCbrkn+3i4/YXdwOS08nI1xH9MFEGA1UdIwRK
MEiAFFg5VazC80Pts1VkOd3rU3vu/UDcoRqkGDAWMRQwEgYDVQQDDAt0ZWFtMjkx
LW5ldIIUDH6vn9tpywtZ6QWfJQCFQq6pM6QwEwYDVR0lBAwwCgYIKwYBBQUHAwIw
CwYDVR0PBAQDAgeAMA0GCSqGSIb3DQEBCwUAA4IBAQAuFZJlRLNLRUokhNnfYCV3
asB7qToTMWkT1V1al/mlQLDnE6sRM51OS6Ar9G7pItM2+SueTWgSu0ZA0WEfnkVW
1gRHPzNJuLz9jPabpoSwDetmwV684Sg6yLnVCLY4Kt3VwQITwt31Gr3GP4Y/xPGR
KqT2NeD9igKhFZRi/fzyoWagC5wGM1fswIbjwK4JMuGW2zBd3bGuvwC70WjUPwtF
ntxIERLkcs/1uWn8e1d2w1x20GdcMEWgmmdZNjBi0dfi1FiNzTAgHwk5xWQW9OQE
Dfk/E4Rn/ngORnHFRi0zfRI5Ce45RYbs7IHmZYjDprfZ78a8ggT0r7wC0hKqrWdf
-----END CERTIFICATE-----
