Certificate:
    Data:
        Version: 3 (0x2)
        Serial Number:
            8a:6e:75:4c:26:e0:2e:e2:8f:8c:6c:1e:5c:b5:72:ff
        Signature Algorithm: sha256WithRSAEncryption
        Issuer: CN=team291-net
        Validity
            Not Before: Nov  4 11:33:38 2023 GMT
            Not After : Oct 19 11:33:38 2026 GMT
        Subject: CN=team291-client
        Subject Public Key Info:
            Public Key Algorithm: rsaEncryption
                Public-Key: (2048 bit)
                Modulus:
                    00:b3:ba:95:1c:dd:70:0d:53:0f:0b:e0:83:96:8b:
                    62:59:ec:e5:5a:44:42:9c:12:4f:8e:5e:58:f1:e0:
                    44:33:57:10:74:8c:62:3d:5e:aa:85:08:b5:4a:d5:
                    06:61:dd:78:d8:7e:b0:df:27:17:db:20:3c:8a:70:
                    6d:72:2f:2d:fb:1a:d3:6b:5d:3e:72:a9:63:bd:37:
                    33:72:45:12:b7:e0:51:b8:e6:9c:39:48:cd:b8:cf:
                    ef:fd:64:6e:85:7a:e4:60:ef:0f:5f:26:da:36:1b:
                    8f:a3:86:c4:37:ab:84:79:ce:8e:35:42:c7:f1:ae:
                    c8:ec:7a:7a:44:b8:1c:80:a8:12:a6:0d:86:fc:35:
                    df:1b:89:81:2b:35:59:8f:f1:3f:1b:95:47:f3:b1:
                    14:c2:78:ae:f3:43:4e:ca:b8:49:db:53:b6:d6:c0:
                    08:15:0e:df:09:8f:60:ce:f9:1c:c5:a3:3c:ba:48:
                    2d:0c:a7:ba:ca:49:71:4f:40:a5:23:24:6d:9b:24:
                    08:58:f4:2e:25:27:9d:4a:14:81:10:51:63:f1:56:
                    ce:9c:e9:c3:ec:8d:92:ee:e2:08:71:06:87:43:df:
                    48:7f:98:ac:8c:76:49:fc:92:11:73:7d:3f:30:77:
                    bc:5b:d0:36:cc:32:1a:79:ef:8e:0b:32:e8:c8:d8:
                    d5:91
                Exponent: 65537 (0x10001)
        X509v3 extensions:
            X509v3 Basic Constraints: 
                CA:FALSE
            X509v3 Subject Key Identifier: 
                5E:6A:45:12:05:B8:70:92:A8:C2:D6:47:06:F8:F6:D5:C5:4C:28:93
            X509v3 Authority Key Identifier: 
                keyid:DF:64:EF:94:FA:DA:56:90:57:13:21:EB:D0:C8:DF:1C:6B:54:8A:CB
                DirName:/CN=team291-net
                serial:1B:C6:8A:B8:3F:4B:AA:40:84:6C:BD:53:28:10:DD:B7:D4:7F:A1:B9
            X509v3 Extended Key Usage: 
                TLS Web Client Authentication
            X509v3 Key Usage: 
                Digital Signature
    Signature Algorithm: sha256WithRSAEncryption
    Signature Value:
        a6:0f:b8:61:ff:34:c3:a5:bb:91:6c:86:d7:ad:fc:78:89:4c:
        e9:c7:b1:e4:64:0f:e0:f3:f8:73:61:30:7d:7d:ca:fc:aa:99:
        56:95:57:82:71:6b:eb:04:42:91:3c:e8:73:64:81:52:7c:20:
        44:05:cc:de:23:e0:57:1c:54:39:cf:01:9a:1f:2d:c1:5b:90:
        e6:32:80:97:26:a3:da:bb:48:b5:3d:10:41:9f:d0:dc:e5:1f:
        27:83:5b:99:a9:71:ba:4b:30:a8:b2:df:bc:6d:3f:cc:eb:0f:
        2c:ce:59:9f:fe:d9:d5:8b:a2:92:23:0d:65:d7:34:cd:79:b6:
        69:96:08:c1:36:e8:3f:3c:3d:8e:89:2c:87:64:c3:8f:45:09:
        cf:b1:f6:6c:c6:9a:10:c4:d6:20:13:e7:4d:0c:68:23:15:85:
        c2:e2:f8:44:3c:11:c9:97:c0:14:5e:7d:d7:b2:e2:25:fe:77:
        6c:b5:7d:98:25:bb:58:14:fc:48:5b:c0:94:a2:d9:37:9b:4c:
        f4:3e:bd:81:cb:55:0d:58:ee:ba:ff:c9:dc:cc:c4:df:73:fe:
        7e:02:16:20:01:d1:53:dd:56:9e:84:3a:f2:1b:03:29:db:00:
        56:1c:6b:ff:c7:58:51:73:d2:42:b4:6f:0e:f0:84:b8:2e:dc:
        c5:a0:df:dd
-----BEGIN CERTIFICATE-----
MIIDXTCCAkWgAwIBAgIRAIpudUwm4C7ij4xsHly1cv8wDQYJKoZIhvcNAQELBQAw
FjEUMBIGA1UEAwwLdGVhbTI5MS1uZXQwHhcNMjMxMTA0MTEzMzM4WhcNMjYxMDE5
MTEzMzM4WjAZMRcwFQYDVQQDDA50ZWFtMjkxLWNsaWVudDCCASIwDQYJKoZIhvcN
AQEBBQADggEPADCCAQoCggEBALO6lRzdcA1TDwvgg5aLYlns5VpEQpwST45eWPHg
RDNXEHSMYj1eqoUItUrVBmHdeNh+sN8nF9sgPIpwbXIvLfsa02tdPnKpY703M3JF
ErfgUbjmnDlIzbjP7/1kboV65GDvD18m2jYbj6OGxDerhHnOjjVCx/GuyOx6ekS4
HICoEqYNhvw13xuJgSs1WY/xPxuVR/OxFMJ4rvNDTsq4SdtTttbACBUO3wmPYM75
HMWjPLpILQynuspJcU9ApSMkbZskCFj0LiUnnUoUgRBRY/FWzpzpw+yNku7iCHEG
h0PfSH+YrIx2SfySEXN9PzB3vFvQNswyGnnvjgsy6MjY1ZECAwEAAaOBojCBnzAJ
BgNVHRMEAjAAMB0GA1UdDgQWBBReakUSBbhwkqjC1kcG+PbVxUwokzBRBgNVHSME
SjBIgBTfZO+U+tpWkFcTIevQyN8ca1SKy6EapBgwFjEUMBIGA1UEAwwLdGVhbTI5
MS1uZXSCFBvGirg/S6pAhGy9UygQ3bfUf6G5MBMGA1UdJQQMMAoGCCsGAQUFBwMC
MAsGA1UdDwQEAwIHgDANBgkqhkiG9w0BAQsFAAOCAQEApg+4Yf80w6W7kWyG1638
eIlM6cex5GQP4PP4c2EwfX3K/KqZVpVXgnFr6wRCkTzoc2SBUnwgRAXM3iPgVxxU
Oc8Bmh8twVuQ5jKAlyaj2rtItT0QQZ/Q3OUfJ4NbmalxukswqLLfvG0/zOsPLM5Z
n/7Z1YuikiMNZdc0zXm2aZYIwTboPzw9joksh2TDj0UJz7H2bMaaEMTWIBPnTQxo
IxWFwuL4RDwRyZfAFF5917LiJf53bLV9mCW7WBT8SFvAlKLZN5tM9D69gctVDVju
uv/J3MzE33P+fgIWIAHRU91WnoQ68hsDKdsAVhxr/8dYUXPSQrRvDvCEuC7cxaDf
3Q==
-----END CERTIFICATE-----
