Certificate:
    Data:
        Version: 3 (0x2)
        Serial Number:
            f0:f1:d7:3b:30:c3:df:58:df:92:04:61:84:09:c6:15
        Signature Algorithm: sha256WithRSAEncryption
        Issuer: CN=team74-net
        Validity
            Not Before: Nov  3 20:40:29 2023 GMT
            Not After : Oct 18 20:40:29 2026 GMT
        Subject: CN=team74-server
        Subject Public Key Info:
            Public Key Algorithm: rsaEncryption
                Public-Key: (2048 bit)
                Modulus:
                    00:ab:3e:e8:67:fe:61:dc:22:29:84:6a:89:12:13:
                    6d:5f:df:35:25:81:0f:70:91:9d:14:f5:2e:dc:a8:
                    f6:b3:3f:7e:70:0d:ba:7e:44:d1:ed:6d:76:7e:45:
                    1c:a8:c2:f6:11:29:59:55:4a:a8:f2:3d:48:60:f2:
                    73:68:0d:9e:92:da:6f:82:6a:7a:90:0b:78:38:80:
                    7f:6a:c0:72:d2:f9:50:f2:22:00:db:87:41:80:a5:
                    31:71:3b:2c:ad:65:2b:a3:72:b3:cc:9e:c7:7b:66:
                    7f:fb:28:f0:23:0b:a7:ff:5a:d2:ca:bb:9b:9d:d9:
                    00:40:3f:ee:0b:6c:8c:ee:30:0d:75:4b:87:1d:7f:
                    e3:92:0d:6e:0f:79:96:c7:93:72:b2:00:0e:84:a9:
                    45:1e:e6:4f:6b:0b:37:8f:d8:cd:1c:ea:00:c6:7f:
                    4d:00:d0:52:b6:43:ec:56:0c:5a:b4:40:57:0e:52:
                    84:48:db:2b:b0:1d:84:a4:9d:34:d9:ce:67:2d:c3:
                    87:78:de:96:b9:e8:67:88:4e:30:4c:e4:60:9d:d3:
                    f0:d8:ef:e5:f5:ad:20:53:b1:e2:f1:2e:c8:24:53:
                    12:84:7b:93:5e:c2:33:57:12:6d:aa:a1:96:3a:d7:
                    8f:24:ed:81:8a:ba:ee:9a:86:4a:80:d8:90:dd:9c:
                    92:51
                Exponent: 65537 (0x10001)
        X509v3 extensions:
            X509v3 Basic Constraints: 
                CA:FALSE
            X509v3 Subject Key Identifier: 
                AB:34:2D:56:A7:7A:C9:59:50:2C:94:65:F8:E4:AC:13:20:D5:3A:49
            X509v3 Authority Key Identifier: 
                keyid:74:7A:09:C6:DB:75:24:71:E7:03:4A:60:06:51:35:D9:DA:66:A4:05
                DirName:/CN=team74-net
                serial:01:31:E8:3D:C2:A1:56:AB:27:90:66:20:5C:1D:17:9C:07:B7:30:8D
            X509v3 Extended Key Usage: 
                TLS Web Server Authentication
            X509v3 Key Usage: 
                Digital Signature, Key Encipherment
            X509v3 Subject Alternative Name: 
                DNS:team74-server
    Signature Algorithm: sha256WithRSAEncryption
    Signature Value:
        59:78:7c:d9:85:d7:bc:16:0d:d0:f5:b5:bb:59:c9:0d:a8:8e:
        13:25:90:01:93:78:4c:5c:fe:f4:db:e6:41:ac:66:01:97:b8:
        c2:71:e7:a9:44:c8:5e:38:85:42:03:b8:00:05:c4:ed:bc:c4:
        ea:ef:67:e7:d6:c1:dd:01:f6:12:0a:d2:84:c9:6b:f1:6b:45:
        27:fe:96:cd:e8:cf:09:cf:8b:68:57:89:5b:bd:e6:1d:10:02:
        2e:1c:73:ee:ed:52:93:d7:13:79:91:0d:11:0b:e6:62:e3:e7:
        3c:a0:28:34:2c:d2:ec:55:ea:3a:bb:99:9a:45:9e:d3:72:af:
        44:4c:2d:ba:73:31:2e:7b:4a:2e:bd:41:f3:16:7a:1a:27:7a:
        55:63:52:1e:67:dd:42:05:2a:b5:cd:13:4d:e7:7b:5e:09:96:
        94:e0:cc:c9:82:fe:88:ea:fe:41:89:eb:5e:e6:60:47:51:d9:
        62:46:e7:10:5c:06:63:39:85:23:8b:b9:83:49:c5:9d:05:2f:
        54:92:44:c2:d5:94:13:35:0f:a4:c6:74:e5:6f:d2:39:63:cd:
        44:30:bb:9e:dc:bc:37:80:32:30:fd:d7:e9:d2:d1:e7:84:fe:
        72:ea:14:8d:70:6a:19:39:86:4f:e6:9e:b2:ad:ae:2f:56:08:
        82:3c:30:6a
-----BEGIN CERTIFICATE-----
MIIDdDCCAlygAwIBAgIRAPDx1zsww99Y35IEYYQJxhUwDQYJKoZIhvcNAQELBQAw
FTETMBEGA1UEAwwKdGVhbTc0LW5ldDAeFw0yMzExMDMyMDQwMjlaFw0yNjEwMTgy
MDQwMjlaMBgxFjAUBgNVBAMMDXRlYW03NC1zZXJ2ZXIwggEiMA0GCSqGSIb3DQEB
AQUAA4IBDwAwggEKAoIBAQCrPuhn/mHcIimEaokSE21f3zUlgQ9wkZ0U9S7cqPaz
P35wDbp+RNHtbXZ+RRyowvYRKVlVSqjyPUhg8nNoDZ6S2m+CanqQC3g4gH9qwHLS
+VDyIgDbh0GApTFxOyytZSujcrPMnsd7Zn/7KPAjC6f/WtLKu5ud2QBAP+4LbIzu
MA11S4cdf+OSDW4PeZbHk3KyAA6EqUUe5k9rCzeP2M0c6gDGf00A0FK2Q+xWDFq0
QFcOUoRI2yuwHYSknTTZzmctw4d43pa56GeITjBM5GCd0/DY7+X1rSBTseLxLsgk
UxKEe5NewjNXEm2qoZY6148k7YGKuu6ahkqA2JDdnJJRAgMBAAGjgbswgbgwCQYD
VR0TBAIwADAdBgNVHQ4EFgQUqzQtVqd6yVlQLJRl+OSsEyDVOkkwUAYDVR0jBEkw
R4AUdHoJxtt1JHHnA0pgBlE12dpmpAWhGaQXMBUxEzARBgNVBAMMCnRlYW03NC1u
ZXSCFAEx6D3CoVarJ5BmIFwdF5wHtzCNMBMGA1UdJQQMMAoGCCsGAQUFBwMBMAsG
A1UdDwQEAwIFoDAYBgNVHREEETAPgg10ZWFtNzQtc2VydmVyMA0GCSqGSIb3DQEB
CwUAA4IBAQBZeHzZhde8Fg3Q9bW7WckNqI4TJZABk3hMXP702+ZBrGYBl7jCceep
RMheOIVCA7gABcTtvMTq72fn1sHdAfYSCtKEyWvxa0Un/pbN6M8Jz4toV4lbveYd
EAIuHHPu7VKT1xN5kQ0RC+Zi4+c8oCg0LNLsVeo6u5maRZ7Tcq9ETC26czEue0ou
vUHzFnoaJ3pVY1IeZ91CBSq1zRNN53teCZaU4MzJgv6I6v5Biete5mBHUdliRucQ
XAZjOYUji7mDScWdBS9UkkTC1ZQTNQ+kxnTlb9I5Y81EMLue3Lw3gDIw/dfp0tHn
hP5y6hSNcGoZOYZP5p6yra4vVgiCPDBq
-----END CERTIFICATE-----
