Certificate:
    Data:
        Version: 3 (0x2)
        Serial Number:
            1e:ed:fc:de:02:18:7b:25:82:c4:6e:d4:59:25:f1:bf
        Signature Algorithm: sha256WithRSAEncryption
        Issuer: CN=team175-net
        Validity
            Not Before: Nov  3 20:42:24 2023 GMT
            Not After : Oct 18 20:42:24 2026 GMT
        Subject: CN=team175-client
        Subject Public Key Info:
            Public Key Algorithm: rsaEncryption
                Public-Key: (2048 bit)
                Modulus:
                    00:8d:45:80:6e:c3:d7:d6:21:45:8b:e3:dc:0e:a9:
                    28:94:04:0e:d3:c7:f5:17:18:8f:50:de:2e:f7:da:
                    03:c2:47:f1:4c:56:b4:3e:45:a5:03:c2:27:78:cb:
                    05:be:96:af:14:5e:af:3e:ec:84:5b:f5:3b:76:5f:
                    9c:57:46:d1:ac:ec:c5:e4:02:0f:7b:44:0c:b9:04:
                    1a:df:c3:06:16:be:af:7c:ed:6f:b7:82:e8:19:f0:
                    a1:8b:9f:b6:0d:52:88:eb:37:f6:40:cd:af:bb:16:
                    2b:18:de:de:50:c6:b5:05:c8:e9:fe:93:49:80:9b:
                    60:2a:cb:18:a5:8b:d4:eb:8c:a4:58:2f:9d:ab:b8:
                    08:2d:fb:a7:ae:7b:6b:3a:a0:fe:b9:07:b9:df:ea:
                    5f:47:71:61:8d:43:0b:47:02:32:c7:11:2b:11:25:
                    41:37:0c:f5:17:6a:6a:fe:f3:ce:b7:aa:e2:ef:54:
                    fe:80:55:34:7c:be:4c:9d:8a:84:99:85:4b:e1:8d:
                    d6:8d:ea:70:e2:25:06:de:f7:0f:13:d2:64:47:ea:
                    3e:a4:ad:07:21:82:2c:3a:a2:b0:e7:f3:c4:b4:4d:
                    f0:e7:ce:bb:cf:2a:83:95:ab:70:69:0d:90:e3:59:
                    a2:70:7b:9c:30:cb:fa:c9:86:7c:46:f0:ed:58:cf:
                    50:e3
                Exponent: 65537 (0x10001)
        X509v3 extensions:
            X509v3 Basic Constraints: 
                CA:FALSE
            X509v3 Subject Key Identifier: 
                D9:82:EB:07:22:9A:1C:2A:5E:22:EC:CB:4F:04:5F:35:D5:89:2B:F7
            X509v3 Authority Key Identifier: 
                keyid:97:CB:D4:95:73:DD:84:A8:77:F0:3F:56:A7:5B:C5:CF:25:07:39:22
                DirName:/CN=team175-net
                serial:1C:4C:C4:29:79:7D:E6:03:9E:BB:FC:44:D5:5B:30:25:78:98:9E:CE
            X509v3 Extended Key Usage: 
                TLS Web Client Authentication
            X509v3 Key Usage: 
                Digital Signature
    Signature Algorithm: sha256WithRSAEncryption
    Signature Value:
        6d:f4:cf:50:26:e1:e7:44:05:ad:17:b2:f0:06:8a:3d:51:ba:
        50:94:32:ee:d3:d6:3d:c9:1d:63:bb:6a:fd:ee:d3:0a:c3:f4:
        d7:e2:1d:80:33:1f:9a:6b:b4:eb:b8:1d:18:63:67:07:ac:44:
        95:4b:7a:86:96:38:eb:4e:31:0d:e3:80:5f:82:03:47:fe:6f:
        06:fd:eb:a4:6b:38:23:06:a5:f5:b9:9d:cd:81:98:ee:4d:00:
        1c:e5:4f:88:27:de:d9:2f:fc:66:34:a4:8a:14:a4:7a:0d:fd:
        1f:f3:f8:25:ad:57:6a:a7:48:3a:32:f5:ca:fc:b4:ad:5a:56:
        15:9a:e5:ee:97:3f:a7:c0:12:fe:6b:a6:74:29:66:de:60:73:
        45:36:62:57:93:51:26:6e:c0:41:81:44:af:6b:3d:28:e5:8e:
        4d:d0:65:c5:2c:61:df:82:a5:c8:4c:b8:e1:94:38:6e:25:94:
        a2:fc:89:18:d7:ce:fd:4f:2b:f9:08:1f:71:fe:cc:93:46:3c:
        50:48:ce:30:a3:7d:5b:c7:75:4c:cf:7a:9a:05:e8:34:9a:09:
        8c:78:3d:9e:e8:f6:4d:cf:ab:bc:11:ba:db:1f:be:f4:0d:28:
        03:37:0c:da:aa:05:8a:e0:e5:01:e5:8b:8e:3e:37:e2:3d:e5:
        d3:a3:eb:98
-----BEGIN CERTIFICATE-----
MIIDXDCCAkSgAwIBAgIQHu383gIYeyWCxG7UWSXxvzANBgkqhkiG9w0BAQsFADAW
MRQwEgYDVQQDDAt0ZWFtMTc1LW5ldDAeFw0yMzExMDMyMDQyMjRaFw0yNjEwMTgy
MDQyMjRaMBkxFzAVBgNVBAMMDnRlYW0xNzUtY2xpZW50MIIBIjANBgkqhkiG9w0B
AQEFAAOCAQ8AMIIBCgKCAQEAjUWAbsPX1iFFi+PcDqkolAQO08f1FxiPUN4u99oD
wkfxTFa0PkWlA8IneMsFvpavFF6vPuyEW/U7dl+cV0bRrOzF5AIPe0QMuQQa38MG
Fr6vfO1vt4LoGfChi5+2DVKI6zf2QM2vuxYrGN7eUMa1Bcjp/pNJgJtgKssYpYvU
64ykWC+dq7gILfunrntrOqD+uQe53+pfR3FhjUMLRwIyxxErESVBNwz1F2pq/vPO
t6ri71T+gFU0fL5MnYqEmYVL4Y3Wjepw4iUG3vcPE9JkR+o+pK0HIYIsOqKw5/PE
tE3w5867zyqDlatwaQ2Q41micHucMMv6yYZ8RvDtWM9Q4wIDAQABo4GiMIGfMAkG
A1UdEwQCMAAwHQYDVR0OBBYEFNmC6wcimhwqXiLsy08EXzXViSv3MFEGA1UdIwRK
MEiAFJfL1JVz3YSod/A/Vqdbxc8lBzkioRqkGDAWMRQwEgYDVQQDDAt0ZWFtMTc1
LW5ldIIUHEzEKXl95gOeu/xE1VswJXiYns4wEwYDVR0lBAwwCgYIKwYBBQUHAwIw
CwYDVR0PBAQDAgeAMA0GCSqGSIb3DQEBCwUAA4IBAQBt9M9QJuHnRAWtF7LwBoo9
UbpQlDLu09Y9yR1ju2r97tMKw/TX4h2AMx+aa7TruB0YY2cHrESVS3qGljjrTjEN
44BfggNH/m8G/eukazgjBqX1uZ3NgZjuTQAc5U+IJ97ZL/xmNKSKFKR6Df0f8/gl
rVdqp0g6MvXK/LStWlYVmuXulz+nwBL+a6Z0KWbeYHNFNmJXk1EmbsBBgUSvaz0o
5Y5N0GXFLGHfgqXITLjhlDhuJZSi/IkY1879Tyv5CB9x/syTRjxQSM4wo31bx3VM
z3qaBeg0mgmMeD2e6PZNz6u8EbrbH770DSgDNwzaqgWK4OUB5YuOPjfiPeXTo+uY
-----END CERTIFICATE-----
