Certificate:
    Data:
        Version: 3 (0x2)
        Serial Number:
            2a:bc:76:e2:4e:2b:11:f0:f8:e2:49:90:96:04:d4:dd
        Signature Algorithm: sha256WithRSAEncryption
        Issuer: CN=team175-net
        Validity
            Not Before: Nov  4 10:43:48 2023 GMT
            Not After : Oct 19 10:43:48 2026 GMT
        Subject: CN=team175-server
        Subject Public Key Info:
            Public Key Algorithm: rsaEncryption
                Public-Key: (2048 bit)
                Modulus:
                    00:9e:59:28:e4:db:b1:0d:b2:38:94:bc:5f:6f:45:
                    e6:ec:de:b2:e9:b7:05:97:1a:1c:0a:ec:16:e0:f5:
                    2c:4d:e1:32:92:66:d1:fc:a8:4f:1f:04:8e:3a:e9:
                    94:f1:5d:f2:53:ed:10:4f:60:db:2d:0d:31:26:9c:
                    40:d6:74:31:9d:dc:35:d7:27:28:4c:cf:a9:99:cd:
                    af:dd:a9:5b:f8:9f:d2:2e:0e:17:c4:2d:78:3e:46:
                    47:72:91:15:d5:f6:55:38:95:b9:f0:21:b1:72:20:
                    b2:5f:87:7f:e4:20:52:9e:69:b5:3f:f6:2e:28:45:
                    ab:df:1c:26:fc:de:93:92:80:1c:71:c2:a5:6d:25:
                    68:d0:2d:5f:18:69:76:f9:ae:00:cc:7f:38:04:02:
                    4a:3f:d1:ac:08:9e:4e:24:3d:b0:34:61:b8:76:77:
                    d1:74:ac:8f:42:3c:16:0f:5d:bb:ef:8d:0d:f0:30:
                    55:4a:43:95:d7:e0:5b:a7:d3:19:ee:06:b2:f7:ed:
                    d9:31:ea:bb:c9:a4:60:53:b0:7d:f0:24:c8:63:80:
                    40:05:05:bf:c8:cb:af:5f:52:c1:fc:b3:95:8c:e2:
                    78:fd:d3:08:67:87:83:64:5b:76:e2:0d:df:cb:c8:
                    3b:cc:98:bf:d6:e6:9f:18:aa:e5:e8:f9:3c:d8:da:
                    7c:9f
                Exponent: 65537 (0x10001)
        X509v3 extensions:
            X509v3 Basic Constraints: 
                CA:FALSE
            X509v3 Subject Key Identifier: 
                39:DF:D6:D7:EC:9C:71:A0:69:F1:53:C9:13:BF:B5:0E:A6:30:30:AC
            X509v3 Authority Key Identifier: 
                keyid:07:A6:F6:C3:CC:33:B7:94:80:2B:0C:C5:A0:AB:98:09:87:58:16:2F
                DirName:/CN=team175-net
                serial:23:E5:A9:00:8A:8A:48:95:F2:08:58:65:5F:FB:4F:BF:96:87:17:9D
            X509v3 Extended Key Usage: 
                TLS Web Server Authentication
            X509v3 Key Usage: 
                Digital Signature, Key Encipherment
            X509v3 Subject Alternative Name: 
                DNS:team175-server
    Signature Algorithm: sha256WithRSAEncryption
    Signature Value:
        a6:9b:20:33:11:ff:0c:8e:18:5f:51:f0:c5:90:27:9f:40:f9:
        cf:73:87:b5:b5:77:e1:1f:03:f0:ea:35:75:ae:22:e6:fb:0f:
        57:90:7d:93:dc:f2:cb:df:cd:f1:2e:41:d0:d6:6d:ba:09:d8:
        b9:59:ab:05:0c:55:82:62:2a:53:91:2d:e0:f6:a2:f1:9d:a0:
        79:e3:22:a1:25:47:aa:58:1a:21:2a:60:c6:cb:3f:8c:4f:20:
        06:5d:bb:ca:9d:4f:11:8b:d5:31:5d:e2:77:a1:84:d7:47:09:
        5d:bf:6a:5c:c6:e9:8e:bb:49:cc:cb:9b:91:20:d4:cb:9d:e6:
        17:55:a0:ca:66:06:a4:df:54:bd:02:d8:e0:52:ce:ee:92:72:
        67:5a:1d:b0:3f:6b:52:23:f0:3c:60:4f:6d:4f:42:72:a2:cd:
        57:6b:c4:a4:17:e6:84:a5:09:78:50:75:17:12:99:7b:9b:46:
        e3:2e:2f:d8:e4:54:2b:ca:59:b9:ec:44:e0:74:02:ec:24:81:
        0a:59:59:38:d5:3d:55:ab:8a:6b:2e:0d:85:12:c3:0a:d3:b8:
        f0:00:98:85:97:e6:85:60:f2:a1:0f:85:18:a4:03:80:06:69:
        e1:5b:75:4a:8d:52:0a:46:97:37:79:8e:a3:d7:dd:69:5a:b7:
        ed:9c:f0:42
-----BEGIN CERTIFICATE-----
MIIDdzCCAl+gAwIBAgIQKrx24k4rEfD44kmQlgTU3TANBgkqhkiG9w0BAQsFADAW
MRQwEgYDVQQDDAt0ZWFtMTc1LW5ldDAeFw0yMzExMDQxMDQzNDhaFw0yNjEwMTkx
MDQzNDhaMBkxFzAVBgNVBAMMDnRlYW0xNzUtc2VydmVyMIIBIjANBgkqhkiG9w0B
AQEFAAOCAQ8AMIIBCgKCAQEAnlko5NuxDbI4lLxfb0Xm7N6y6bcFlxocCuwW4PUs
TeEykmbR/KhPHwSOOumU8V3yU+0QT2DbLQ0xJpxA1nQxndw11ycoTM+pmc2v3alb
+J/SLg4XxC14PkZHcpEV1fZVOJW58CGxciCyX4d/5CBSnmm1P/YuKEWr3xwm/N6T
koAcccKlbSVo0C1fGGl2+a4AzH84BAJKP9GsCJ5OJD2wNGG4dnfRdKyPQjwWD127
740N8DBVSkOV1+Bbp9MZ7gay9+3ZMeq7yaRgU7B98CTIY4BABQW/yMuvX1LB/LOV
jOJ4/dMIZ4eDZFt24g3fy8g7zJi/1uafGKrl6Pk82Np8nwIDAQABo4G9MIG6MAkG
A1UdEwQCMAAwHQYDVR0OBBYEFDnf1tfsnHGgafFTyRO/tQ6mMDCsMFEGA1UdIwRK
MEiAFAem9sPMM7eUgCsMxaCrmAmHWBYvoRqkGDAWMRQwEgYDVQQDDAt0ZWFtMTc1
LW5ldIIUI+WpAIqKSJXyCFhlX/tPv5aHF50wEwYDVR0lBAwwCgYIKwYBBQUHAwEw
CwYDVR0PBAQDAgWgMBkGA1UdEQQSMBCCDnRlYW0xNzUtc2VydmVyMA0GCSqGSIb3
DQEBCwUAA4IBAQCmmyAzEf8MjhhfUfDFkCefQPnPc4e1tXfhHwPw6jV1riLm+w9X
kH2T3PLL383xLkHQ1m26Cdi5WasFDFWCYipTkS3g9qLxnaB54yKhJUeqWBohKmDG
yz+MTyAGXbvKnU8Ri9UxXeJ3oYTXRwldv2pcxumOu0nMy5uRINTLneYXVaDKZgak
31S9AtjgUs7uknJnWh2wP2tSI/A8YE9tT0Jyos1Xa8SkF+aEpQl4UHUXEpl7m0bj
Li/Y5FQrylm57ETgdALsJIEKWVk41T1Vq4prLg2FEsMK07jwAJiFl+aFYPKhD4UY
pAOABmnhW3VKjVIKRpc3eY6j191pWrftnPBC
-----END CERTIFICATE-----
