Certificate:
    Data:
        Version: 3 (0x2)
        Serial Number:
            7e:81:0f:be:d2:ae:99:90:9e:5b:23:b6:a6:64:e2:34
        Signature Algorithm: sha256WithRSAEncryption
        Issuer: CN=team175-net
        Validity
            Not Before: Nov  4 11:31:05 2023 GMT
            Not After : Oct 19 11:31:05 2026 GMT
        Subject: CN=team175-client
        Subject Public Key Info:
            Public Key Algorithm: rsaEncryption
                Public-Key: (2048 bit)
                Modulus:
                    00:b5:d4:c0:c4:c1:80:3c:56:a4:ca:71:3b:cd:42:
                    35:2f:33:35:13:07:f9:45:24:37:62:71:e0:d8:b6:
                    a0:e1:86:31:d7:1e:9c:b5:e6:66:64:36:81:53:7f:
                    8b:b9:6b:12:68:9f:c5:4d:e4:30:37:43:57:ff:37:
                    61:72:f0:26:c3:ab:2e:ab:61:97:a1:2f:e6:85:57:
                    ac:7f:42:0c:7f:23:3d:19:56:17:ad:2c:b8:44:b5:
                    68:9d:07:f0:1b:00:21:01:e8:87:a3:52:e2:43:12:
                    62:25:7a:f3:b8:24:71:cb:7c:1b:7e:2c:c7:32:b2:
                    e6:4a:b1:ca:56:0f:10:ba:f7:73:51:ef:62:8c:94:
                    54:2c:2a:6c:15:b3:d9:c2:2b:dd:64:54:3e:34:70:
                    22:63:31:5a:cc:db:c6:28:ee:71:2d:e6:d1:bb:b6:
                    71:c5:99:22:40:81:05:11:22:a9:02:52:bc:bf:a2:
                    14:75:16:23:d8:29:ed:7d:a7:f4:d4:b4:f2:ed:4f:
                    58:49:8e:9f:23:2a:3c:b3:89:9f:3b:bd:65:9f:ad:
                    d6:da:e4:45:b3:9a:cb:84:dc:24:c9:ee:b5:e9:27:
                    d4:77:64:04:02:c2:82:a5:64:cf:28:60:30:3e:28:
                    8e:e3:8a:7e:63:d9:53:9f:dc:9b:54:f7:db:4e:2c:
                    e8:a9
                Exponent: 65537 (0x10001)
        X509v3 extensions:
            X509v3 Basic Constraints: 
                CA:FALSE
            X509v3 Subject Key Identifier: 
                76:BD:AE:5D:28:AD:FB:58:9A:01:5F:10:87:CD:8F:F5:7E:A8:D2:0A
            X509v3 Authority Key Identifier: 
                keyid:C3:C6:4C:E3:64:D6:7F:E8:26:ED:90:26:86:61:91:2C:8D:08:15:8D
                DirName:/CN=team175-net
                serial:0E:2C:CF:6D:4A:B2:50:A8:0B:A2:07:04:23:8A:D0:F2:21:AD:68:69
            X509v3 Extended Key Usage: 
                TLS Web Client Authentication
            X509v3 Key Usage: 
                Digital Signature
    Signature Algorithm: sha256WithRSAEncryption
    Signature Value:
        ac:60:2c:22:71:81:b8:85:02:8f:f0:18:f6:c0:65:65:18:52:
        0c:83:e4:06:0c:ba:22:8b:d3:59:3d:79:14:b7:b7:34:9a:7e:
        c3:c1:58:f4:8e:72:d2:34:10:63:0b:78:b7:16:50:b7:37:2b:
        d0:85:90:b8:3c:99:90:f3:69:07:ea:69:ca:61:60:52:dc:c7:
        9b:74:3f:23:3a:f9:46:7d:c9:99:5a:58:fe:8e:29:2d:1e:c6:
        2d:bd:8a:84:53:16:29:71:a9:df:47:13:ff:54:b4:50:d7:37:
        26:79:cf:a1:8e:c9:8e:01:81:be:a4:c5:96:ba:6e:4d:61:14:
        83:8d:e0:a2:6b:89:4d:1a:79:f7:80:fe:00:b2:21:12:d6:97:
        76:17:d0:2a:31:ea:77:ad:18:72:b5:9e:34:62:68:cb:b7:14:
        fc:02:41:c6:9c:23:7e:20:40:46:8d:6d:f2:92:9d:20:6e:c2:
        ce:da:6c:b2:95:0a:5c:a0:05:39:2b:f2:50:5a:18:09:cf:e7:
        cd:b6:b2:f9:be:7b:8b:cf:5b:31:48:b7:1f:e4:ee:f7:7e:47:
        a3:e1:b3:b9:77:14:84:8a:4e:bc:37:47:2e:69:77:7a:6d:25:
        73:37:be:e9:d1:60:69:a5:bd:c2:91:7f:81:d5:ba:45:d0:5c:
        49:cb:a8:52
-----BEGIN CERTIFICATE-----
MIIDXDCCAkSgAwIBAgIQfoEPvtKumZCeWyO2pmTiNDANBgkqhkiG9w0BAQsFADAW
MRQwEgYDVQQDDAt0ZWFtMTc1LW5ldDAeFw0yMzExMDQxMTMxMDVaFw0yNjEwMTkx
MTMxMDVaMBkxFzAVBgNVBAMMDnRlYW0xNzUtY2xpZW50MIIBIjANBgkqhkiG9w0B
AQEFAAOCAQ8AMIIBCgKCAQEAtdTAxMGAPFakynE7zUI1LzM1Ewf5RSQ3YnHg2Lag
4YYx1x6cteZmZDaBU3+LuWsSaJ/FTeQwN0NX/zdhcvAmw6suq2GXoS/mhVesf0IM
fyM9GVYXrSy4RLVonQfwGwAhAeiHo1LiQxJiJXrzuCRxy3wbfizHMrLmSrHKVg8Q
uvdzUe9ijJRULCpsFbPZwivdZFQ+NHAiYzFazNvGKO5xLebRu7ZxxZkiQIEFESKp
AlK8v6IUdRYj2Cntfaf01LTy7U9YSY6fIyo8s4mfO71ln63W2uRFs5rLhNwkye61
6SfUd2QEAsKCpWTPKGAwPiiO44p+Y9lTn9ybVPfbTizoqQIDAQABo4GiMIGfMAkG
A1UdEwQCMAAwHQYDVR0OBBYEFHa9rl0orftYmgFfEIfNj/V+qNIKMFEGA1UdIwRK
MEiAFMPGTONk1n/oJu2QJoZhkSyNCBWNoRqkGDAWMRQwEgYDVQQDDAt0ZWFtMTc1
LW5ldIIUDizPbUqyUKgLogcEI4rQ8iGtaGkwEwYDVR0lBAwwCgYIKwYBBQUHAwIw
CwYDVR0PBAQDAgeAMA0GCSqGSIb3DQEBCwUAA4IBAQCsYCwicYG4hQKP8Bj2wGVl
GFIMg+QGDLoii9NZPXkUt7c0mn7DwVj0jnLSNBBjC3i3FlC3NyvQhZC4PJmQ82kH
6mnKYWBS3MebdD8jOvlGfcmZWlj+jiktHsYtvYqEUxYpcanfRxP/VLRQ1zcmec+h
jsmOAYG+pMWWum5NYRSDjeCia4lNGnn3gP4AsiES1pd2F9AqMep3rRhytZ40YmjL
txT8AkHGnCN+IEBGjW3ykp0gbsLO2myylQpcoAU5K/JQWhgJz+fNtrL5vnuLz1sx
SLcf5O73fkej4bO5dxSEik68N0cuaXd6bSVzN77p0WBppb3CkX+B1bpF0FxJy6hS
-----END CERTIFICATE-----
