Certificate:
    Data:
        Version: 3 (0x2)
        Serial Number:
            50:99:7e:fb:e2:29:4b:17:a3:9b:98:80:82:5c:29:31
        Signature Algorithm: sha256WithRSAEncryption
        Issuer: CN=team344-net
        Validity
            Not Before: Nov  3 20:45:33 2023 GMT
            Not After : Oct 18 20:45:33 2026 GMT
        Subject: CN=team344-server
        Subject Public Key Info:
            Public Key Algorithm: rsaEncryption
                Public-Key: (2048 bit)
                Modulus:
                    00:dc:a6:6c:88:e6:c0:18:42:98:d5:23:b8:a3:d0:
                    81:78:62:e0:88:34:0f:23:f4:b3:f1:75:52:95:fd:
                    ee:0e:af:da:7f:3b:b9:c1:1f:1b:7f:05:a7:4d:9e:
                    10:42:30:5b:56:55:ce:f1:91:d8:2f:bf:64:35:6b:
                    a8:d9:d7:18:f5:79:81:50:9e:98:50:53:64:34:eb:
                    e1:f2:f5:9f:ea:f6:34:95:16:a2:ee:5f:ff:05:68:
                    a8:b2:8c:2a:8f:92:ac:2e:f9:63:66:e0:6b:82:9e:
                    e0:37:89:1c:d5:24:59:37:5f:2d:8b:ba:95:75:69:
                    1e:f2:f6:4f:9e:c2:db:ad:a4:15:2e:9c:bd:4d:78:
                    a4:e6:ee:1c:7b:79:69:f8:13:7d:fe:06:50:a1:0c:
                    b2:8d:24:40:40:34:cd:56:67:94:dd:9e:ff:76:e0:
                    25:c8:d9:0d:ed:c3:01:b5:ba:3d:05:f2:1a:37:70:
                    32:6c:19:d1:16:3b:e7:89:d0:f4:7a:80:0a:3d:8f:
                    be:81:7d:aa:d1:b7:21:a7:63:ae:1d:7a:7e:48:81:
                    10:cc:47:58:0d:90:b5:81:02:4b:16:07:03:75:25:
                    91:d4:b5:27:04:74:fa:f7:3d:c4:2a:62:f2:e1:0c:
                    9e:93:c2:f2:c2:07:f8:c2:a1:b1:99:d9:a0:46:85:
                    1e:33
                Exponent: 65537 (0x10001)
        X509v3 extensions:
            X509v3 Basic Constraints: 
                CA:FALSE
            X509v3 Subject Key Identifier: 
                56:67:E2:CF:01:33:B7:7F:F8:86:E8:59:04:73:14:05:D4:9A:0C:88
            X509v3 Authority Key Identifier: 
                keyid:43:DF:80:4C:67:2B:14:38:F4:51:EE:CB:2C:B1:A9:1A:3C:D6:54:4F
                DirName:/CN=team344-net
                serial:2A:DF:6B:1A:56:4C:3A:DE:E7:63:F4:F3:5A:3F:73:CB:71:2A:4E:95
            X509v3 Extended Key Usage: 
                TLS Web Server Authentication
            X509v3 Key Usage: 
                Digital Signature, Key Encipherment
            X509v3 Subject Alternative Name: 
                DNS:team344-server
    Signature Algorithm: sha256WithRSAEncryption
    Signature Value:
        76:34:a2:7b:eb:a4:d6:a0:e7:85:2d:76:12:33:10:54:38:1d:
        97:4e:40:ae:c1:bf:17:6e:da:07:a7:d0:4f:5a:af:ee:86:5d:
        93:8b:03:dc:58:46:c4:c2:07:37:47:af:9f:e7:0c:89:db:a0:
        0e:03:2d:ce:17:db:97:eb:20:4a:6a:96:cf:d0:96:e0:c6:94:
        e2:81:ee:65:07:fe:ca:e2:dd:6c:b6:4b:01:31:35:0c:7e:cb:
        7a:5b:23:fc:f4:63:7a:d9:77:f2:65:ee:c8:49:ff:91:b4:9d:
        3a:8f:12:8f:8c:89:cf:81:07:95:b4:e9:22:8f:fd:52:31:35:
        a8:88:2b:5b:af:9d:0f:aa:bf:ef:2b:18:87:d9:b7:eb:c4:ee:
        b1:5b:89:00:7f:cf:85:6b:30:5b:27:86:2a:f9:f0:40:a6:5f:
        ae:6a:2d:9f:a4:94:ff:2e:4e:59:12:7b:d6:f6:58:55:ff:d6:
        8d:d5:26:f5:34:05:41:f9:aa:1d:e2:34:20:31:71:a0:a0:be:
        f4:0d:f3:e0:de:cb:1d:bb:1b:4e:c3:af:bc:c4:7d:86:ed:a6:
        48:f8:85:01:89:06:3d:35:2a:9e:cc:77:95:61:b5:99:ff:33:
        d5:ec:88:76:40:b8:4d:f8:ad:61:74:eb:a8:09:f8:1c:37:a9:
        0e:0c:4b:54
-----BEGIN CERTIFICATE-----
MIIDdzCCAl+gAwIBAgIQUJl+++IpSxejm5iAglwpMTANBgkqhkiG9w0BAQsFADAW
MRQwEgYDVQQDDAt0ZWFtMzQ0LW5ldDAeFw0yMzExMDMyMDQ1MzNaFw0yNjEwMTgy
MDQ1MzNaMBkxFzAVBgNVBAMMDnRlYW0zNDQtc2VydmVyMIIBIjANBgkqhkiG9w0B
AQEFAAOCAQ8AMIIBCgKCAQEA3KZsiObAGEKY1SO4o9CBeGLgiDQPI/Sz8XVSlf3u
Dq/afzu5wR8bfwWnTZ4QQjBbVlXO8ZHYL79kNWuo2dcY9XmBUJ6YUFNkNOvh8vWf
6vY0lRai7l//BWiosowqj5KsLvljZuBrgp7gN4kc1SRZN18ti7qVdWke8vZPnsLb
raQVLpy9TXik5u4ce3lp+BN9/gZQoQyyjSRAQDTNVmeU3Z7/duAlyNkN7cMBtbo9
BfIaN3AybBnRFjvnidD0eoAKPY++gX2q0bchp2OuHXp+SIEQzEdYDZC1gQJLFgcD
dSWR1LUnBHT69z3EKmLy4Qyek8Lywgf4wqGxmdmgRoUeMwIDAQABo4G9MIG6MAkG
A1UdEwQCMAAwHQYDVR0OBBYEFFZn4s8BM7d/+IboWQRzFAXUmgyIMFEGA1UdIwRK
MEiAFEPfgExnKxQ49FHuyyyxqRo81lRPoRqkGDAWMRQwEgYDVQQDDAt0ZWFtMzQ0
LW5ldIIUKt9rGlZMOt7nY/TzWj9zy3EqTpUwEwYDVR0lBAwwCgYIKwYBBQUHAwEw
CwYDVR0PBAQDAgWgMBkGA1UdEQQSMBCCDnRlYW0zNDQtc2VydmVyMA0GCSqGSIb3
DQEBCwUAA4IBAQB2NKJ766TWoOeFLXYSMxBUOB2XTkCuwb8XbtoHp9BPWq/uhl2T
iwPcWEbEwgc3R6+f5wyJ26AOAy3OF9uX6yBKapbP0JbgxpTige5lB/7K4t1stksB
MTUMfst6WyP89GN62XfyZe7ISf+RtJ06jxKPjInPgQeVtOkij/1SMTWoiCtbr50P
qr/vKxiH2bfrxO6xW4kAf8+FazBbJ4Yq+fBApl+uai2fpJT/Lk5ZEnvW9lhV/9aN
1Sb1NAVB+aod4jQgMXGgoL70DfPg3ssduxtOw6+8xH2G7aZI+IUBiQY9NSqezHeV
YbWZ/zPV7Ih2QLhN+K1hdOuoCfgcN6kODEtU
-----END CERTIFICATE-----
