Certificate:
    Data:
        Version: 3 (0x2)
        Serial Number:
            28:96:97:7c:7a:32:94:4c:66:9c:89:17:09:e0:87:c6
        Signature Algorithm: sha256WithRSAEncryption
        Issuer: CN=team178-net
        Validity
            Not Before: Nov  4 10:43:52 2023 GMT
            Not After : Oct 19 10:43:52 2026 GMT
        Subject: CN=team178-server
        Subject Public Key Info:
            Public Key Algorithm: rsaEncryption
                Public-Key: (2048 bit)
                Modulus:
                    00:ed:b3:46:4a:6f:74:ff:b5:c2:06:42:90:21:59:
                    2c:33:31:aa:0d:13:33:bd:01:c5:29:f0:06:99:79:
                    1c:11:eb:66:e5:4e:a6:b2:d9:ea:42:69:26:26:ec:
                    c8:3a:ce:f8:77:7d:cd:5b:51:4b:49:d8:65:e8:e5:
                    c3:98:dd:5f:fa:1b:db:02:83:1c:4b:f9:66:b0:83:
                    0a:16:7f:18:ee:e8:9c:3b:24:84:15:0f:f8:bb:df:
                    93:fc:0c:5c:c7:3a:eb:7f:cc:fb:e4:ee:2e:c1:7b:
                    66:e6:b3:1b:d0:1f:5f:10:9d:39:bb:ad:15:32:07:
                    c8:2d:a5:65:53:56:e7:0d:d2:d0:59:41:66:b4:ff:
                    e3:a2:48:5c:cf:1d:de:2d:f1:76:f3:ff:d0:ad:3b:
                    b1:10:11:89:90:46:5f:5e:70:bd:8c:ab:11:9e:7e:
                    89:f2:17:e4:28:70:48:f8:5e:74:b5:02:37:6e:7e:
                    c3:6a:77:78:b1:b2:4a:13:17:0a:46:89:f7:bc:bf:
                    7f:b6:16:27:e7:a5:52:11:86:81:a0:42:0f:21:c6:
                    a2:9c:e1:38:54:5d:5b:a8:3e:09:ed:e9:80:27:29:
                    c0:03:ee:28:75:8d:9e:23:de:21:e4:78:01:5e:62:
                    df:47:36:e9:71:aa:70:95:05:9b:7a:a0:59:04:25:
                    58:1d
                Exponent: 65537 (0x10001)
        X509v3 extensions:
            X509v3 Basic Constraints: 
                CA:FALSE
            X509v3 Subject Key Identifier: 
                9B:9F:ED:52:EF:9C:32:E4:F3:D1:23:01:77:38:4B:87:61:D4:7A:6F
            X509v3 Authority Key Identifier: 
                keyid:20:C8:50:CD:BE:0A:CD:7B:59:54:48:A4:9E:78:29:FA:F3:28:1A:90
                DirName:/CN=team178-net
                serial:20:4E:CC:EE:9F:EE:7C:F1:5D:D3:6A:D1:AB:9C:AB:4F:A2:AB:06:C0
            X509v3 Extended Key Usage: 
                TLS Web Server Authentication
            X509v3 Key Usage: 
                Digital Signature, Key Encipherment
            X509v3 Subject Alternative Name: 
                DNS:team178-server
    Signature Algorithm: sha256WithRSAEncryption
    Signature Value:
        60:87:c3:e0:b0:96:bf:d1:6f:8a:33:da:0d:1e:b8:c5:4e:1f:
        b4:2d:a6:c1:7a:80:43:78:49:ee:18:f5:fc:46:51:d9:57:05:
        56:c2:7f:5d:f6:05:8e:a5:53:15:b5:10:18:5e:35:bf:d8:11:
        38:06:4a:d4:d1:61:86:b5:2d:f4:9a:ce:b8:04:f1:88:a8:d1:
        ee:6a:e8:ad:3e:57:01:09:74:8c:ef:bf:57:30:23:91:b7:b0:
        9a:a8:90:40:b6:c8:12:28:31:de:dd:8b:39:02:ac:7d:9d:b4:
        a0:ba:64:fc:a2:67:76:37:4b:83:f5:fd:52:52:13:b0:ed:9c:
        51:c4:b1:15:3a:48:8f:cb:31:4d:a7:e0:55:40:56:82:04:58:
        70:d6:ab:cd:8c:66:a9:9d:0a:8e:d2:b5:9d:e7:65:3e:b7:38:
        2c:95:b0:1c:4b:e2:9f:2a:66:81:db:c6:77:c5:69:8f:8e:ba:
        49:43:e6:e0:35:8e:62:fa:d7:ea:d9:4e:11:c0:2c:f7:f6:e6:
        55:4e:37:6e:5f:f7:48:0e:1b:c3:84:3d:bf:45:5f:4d:cb:db:
        6e:e3:48:20:d1:f6:81:31:02:66:b9:d2:3d:16:48:ce:3c:36:
        59:b1:25:51:b4:4d:bc:e1:05:8a:9d:3f:48:6a:91:05:c1:32:
        5f:84:40:ad
-----BEGIN CERTIFICATE-----
MIIDdzCCAl+gAwIBAgIQKJaXfHoylExmnIkXCeCHxjANBgkqhkiG9w0BAQsFADAW
MRQwEgYDVQQDDAt0ZWFtMTc4LW5ldDAeFw0yMzExMDQxMDQzNTJaFw0yNjEwMTkx
MDQzNTJaMBkxFzAVBgNVBAMMDnRlYW0xNzgtc2VydmVyMIIBIjANBgkqhkiG9w0B
AQEFAAOCAQ8AMIIBCgKCAQEA7bNGSm90/7XCBkKQIVksMzGqDRMzvQHFKfAGmXkc
Eetm5U6mstnqQmkmJuzIOs74d33NW1FLSdhl6OXDmN1f+hvbAoMcS/lmsIMKFn8Y
7uicOySEFQ/4u9+T/Axcxzrrf8z75O4uwXtm5rMb0B9fEJ05u60VMgfILaVlU1bn
DdLQWUFmtP/jokhczx3eLfF28//QrTuxEBGJkEZfXnC9jKsRnn6J8hfkKHBI+F50
tQI3bn7Dand4sbJKExcKRon3vL9/thYn56VSEYaBoEIPIcainOE4VF1bqD4J7emA
JynAA+4odY2eI94h5HgBXmLfRzbpcapwlQWbeqBZBCVYHQIDAQABo4G9MIG6MAkG
A1UdEwQCMAAwHQYDVR0OBBYEFJuf7VLvnDLk89EjAXc4S4dh1HpvMFEGA1UdIwRK
MEiAFCDIUM2+Cs17WVRIpJ54KfrzKBqQoRqkGDAWMRQwEgYDVQQDDAt0ZWFtMTc4
LW5ldIIUIE7M7p/ufPFd02rRq5yrT6KrBsAwEwYDVR0lBAwwCgYIKwYBBQUHAwEw
CwYDVR0PBAQDAgWgMBkGA1UdEQQSMBCCDnRlYW0xNzgtc2VydmVyMA0GCSqGSIb3
DQEBCwUAA4IBAQBgh8PgsJa/0W+KM9oNHrjFTh+0LabBeoBDeEnuGPX8RlHZVwVW
wn9d9gWOpVMVtRAYXjW/2BE4BkrU0WGGtS30ms64BPGIqNHuauitPlcBCXSM779X
MCORt7CaqJBAtsgSKDHe3Ys5Aqx9nbSgumT8omd2N0uD9f1SUhOw7ZxRxLEVOkiP
yzFNp+BVQFaCBFhw1qvNjGapnQqO0rWd52U+tzgslbAcS+KfKmaB28Z3xWmPjrpJ
Q+bgNY5i+tfq2U4RwCz39uZVTjduX/dIDhvDhD2/RV9Ny9tu40gg0faBMQJmudI9
FkjOPDZZsSVRtE284QWKnT9IapEFwTJfhECt
-----END CERTIFICATE-----
