Certificate:
    Data:
        Version: 3 (0x2)
        Serial Number:
            48:dd:6f:db:ff:c8:89:43:b0:0a:41:2b:25:ba:59:18
        Signature Algorithm: sha256WithRSAEncryption
        Issuer: CN=team178-net
        Validity
            Not Before: Nov  4 11:31:09 2023 GMT
            Not After : Oct 19 11:31:09 2026 GMT
        Subject: CN=team178-server
        Subject Public Key Info:
            Public Key Algorithm: rsaEncryption
                Public-Key: (2048 bit)
                Modulus:
                    00:aa:60:f3:97:02:53:d4:a9:62:70:e6:34:4c:72:
                    40:11:e9:90:bc:18:82:65:82:11:f7:4f:96:8c:e1:
                    cf:17:f4:99:33:60:6a:a1:e1:5e:39:6d:21:30:9b:
                    de:0c:21:11:0c:b2:e4:34:9e:43:b0:22:2d:29:4f:
                    b7:40:73:bf:f6:0e:ff:df:36:e8:3b:74:93:a7:28:
                    1f:5c:a4:c2:6e:64:1f:30:96:c9:5b:e8:34:45:b3:
                    f4:60:d2:2a:27:94:0e:c1:cc:27:89:99:cb:1b:ac:
                    e2:f6:85:4f:c9:c1:91:c1:aa:13:4f:ee:cd:50:aa:
                    8f:fd:0d:9b:61:6d:e9:4b:8b:86:fa:f3:4e:5e:f6:
                    18:36:0a:3f:cb:85:36:c5:36:8c:38:87:3a:d4:cd:
                    57:d5:6b:5f:75:b3:20:92:c7:4a:0b:8b:b8:1f:dd:
                    ad:43:3f:fd:5d:e9:5e:9a:3d:a9:d8:d1:eb:fd:c4:
                    fc:e2:93:fa:31:6a:fe:7a:e0:9a:fc:dc:15:ad:a9:
                    dc:d7:fe:e1:d2:24:3a:86:16:b6:d7:5e:39:d6:34:
                    6b:e7:e4:10:be:0e:67:1d:df:9e:d5:fe:69:8d:3a:
                    17:e6:15:a6:fb:b8:8c:4b:cd:4e:32:11:e2:0c:8c:
                    3b:89:34:30:c7:63:0c:76:1d:52:40:2c:5d:96:a7:
                    4c:2f
                Exponent: 65537 (0x10001)
        X509v3 extensions:
            X509v3 Basic Constraints: 
                CA:FALSE
            X509v3 Subject Key Identifier: 
                44:95:8C:F3:CA:3E:13:2F:21:B2:9B:16:C2:69:D6:22:BB:9D:70:82
            X509v3 Authority Key Identifier: 
                keyid:72:F3:0F:17:EE:64:2C:8B:31:6B:D5:B0:45:09:8E:91:1A:B4:47:0A
                DirName:/CN=team178-net
                serial:D0:5C:FE:9F:A8:81:74:6F:C2:D7:34:DB:D7:2C:8D:95:2F:C9:DE
            X509v3 Extended Key Usage: 
                TLS Web Server Authentication
            X509v3 Key Usage: 
                Digital Signature, Key Encipherment
            X509v3 Subject Alternative Name: 
                DNS:team178-server
    Signature Algorithm: sha256WithRSAEncryption
    Signature Value:
        85:60:19:3a:51:bd:a1:22:fd:69:77:10:30:6f:40:97:41:be:
        bc:97:1e:9d:5e:ce:b1:40:f7:a7:b2:44:a8:e3:ee:30:f6:4e:
        35:0f:40:20:07:06:0c:ab:7e:38:c8:23:4f:50:70:e2:e1:e1:
        de:1e:4d:a0:93:d3:39:fa:14:d4:bb:64:ac:81:cf:eb:ea:c3:
        d5:52:17:bf:5f:33:c5:b3:d8:7f:4d:be:c4:28:e8:84:ca:ac:
        af:76:cf:46:cc:13:ef:7d:da:f3:64:a6:4a:3f:f2:a7:a3:8a:
        28:24:f9:c8:54:eb:34:38:1f:1e:80:ca:90:36:0c:3c:1e:d2:
        18:ee:d4:70:f4:2b:b0:a5:13:e9:2d:71:9e:8b:20:d7:77:fd:
        77:9f:fc:3c:cc:10:56:d3:91:e5:d0:4e:8b:e8:48:38:61:59:
        4e:34:5e:9c:45:5f:91:08:bb:9f:e8:c5:0d:db:c1:fc:e2:d8:
        88:a7:fe:5d:29:53:1c:2c:c0:9a:b6:f5:53:c7:a1:7c:8a:0a:
        1d:38:67:66:c9:5c:f7:b7:40:35:cf:da:d4:14:04:ca:96:b8:
        59:1a:22:3a:e9:93:1c:e8:fd:03:75:72:60:35:1c:cf:a6:61:
        1e:92:69:a3:27:7f:94:c7:20:10:08:27:2e:74:e0:ce:c6:ef:
        08:5e:68:2e
-----BEGIN CERTIFICATE-----
MIIDdzCCAl+gAwIBAgIQSN1v2//IiUOwCkErJbpZGDANBgkqhkiG9w0BAQsFADAW
MRQwEgYDVQQDDAt0ZWFtMTc4LW5ldDAeFw0yMzExMDQxMTMxMDlaFw0yNjEwMTkx
MTMxMDlaMBkxFzAVBgNVBAMMDnRlYW0xNzgtc2VydmVyMIIBIjANBgkqhkiG9w0B
AQEFAAOCAQ8AMIIBCgKCAQEAqmDzlwJT1KlicOY0THJAEemQvBiCZYIR90+WjOHP
F/SZM2BqoeFeOW0hMJveDCERDLLkNJ5DsCItKU+3QHO/9g7/3zboO3STpygfXKTC
bmQfMJbJW+g0RbP0YNIqJ5QOwcwniZnLG6zi9oVPycGRwaoTT+7NUKqP/Q2bYW3p
S4uG+vNOXvYYNgo/y4U2xTaMOIc61M1X1WtfdbMgksdKC4u4H92tQz/9Xelemj2p
2NHr/cT84pP6MWr+euCa/NwVranc1/7h0iQ6hha211451jRr5+QQvg5nHd+e1f5p
jToX5hWm+7iMS81OMhHiDIw7iTQwx2MMdh1SQCxdlqdMLwIDAQABo4G9MIG6MAkG
A1UdEwQCMAAwHQYDVR0OBBYEFESVjPPKPhMvIbKbFsJp1iK7nXCCMFEGA1UdIwRK
MEiAFHLzDxfuZCyLMWvVsEUJjpEatEcKoRqkGDAWMRQwEgYDVQQDDAt0ZWFtMTc4
LW5ldIIUANBc/p+ogXRvwtc029csjZUvyd4wEwYDVR0lBAwwCgYIKwYBBQUHAwEw
CwYDVR0PBAQDAgWgMBkGA1UdEQQSMBCCDnRlYW0xNzgtc2VydmVyMA0GCSqGSIb3
DQEBCwUAA4IBAQCFYBk6Ub2hIv1pdxAwb0CXQb68lx6dXs6xQPenskSo4+4w9k41
D0AgBwYMq344yCNPUHDi4eHeHk2gk9M5+hTUu2Ssgc/r6sPVUhe/XzPFs9h/Tb7E
KOiEyqyvds9GzBPvfdrzZKZKP/Kno4ooJPnIVOs0OB8egMqQNgw8HtIY7tRw9Cuw
pRPpLXGeiyDXd/13n/w8zBBW05Hl0E6L6Eg4YVlONF6cRV+RCLuf6MUN28H84tiI
p/5dKVMcLMCatvVTx6F8igodOGdmyVz3t0A1z9rUFATKlrhZGiI66ZMc6P0DdXJg
NRzPpmEekmmjJ3+UxyAQCCcudODOxu8IXmgu
-----END CERTIFICATE-----
