Certificate:
    Data:
        Version: 3 (0x2)
        Serial Number:
            8b:da:36:5a:95:cb:e6:94:07:26:61:7e:13:65:d1:78
        Signature Algorithm: sha256WithRSAEncryption
        Issuer: CN=team178-net
        Validity
            Not Before: Nov  3 20:42:28 2023 GMT
            Not After : Oct 18 20:42:28 2026 GMT
        Subject: CN=team178-server
        Subject Public Key Info:
            Public Key Algorithm: rsaEncryption
                Public-Key: (2048 bit)
                Modulus:
                    00:94:92:5a:a3:92:3c:e6:2d:62:50:f5:cd:ff:eb:
                    33:34:0b:e0:7f:30:76:9c:e6:08:b3:26:ba:bd:3a:
                    4d:a4:11:8b:2e:6c:e6:59:4f:54:dd:ed:5f:47:fc:
                    39:e2:be:b5:1d:a0:58:bd:fb:d9:89:12:59:f5:42:
                    2f:bc:a1:95:00:d7:50:fe:70:5c:61:16:ed:33:68:
                    f9:a2:d1:33:c0:99:63:bb:50:36:9d:e3:af:3a:4a:
                    d4:28:c0:51:72:15:0a:38:5a:21:2f:06:bb:ad:de:
                    35:79:70:c9:34:84:a4:50:29:b7:eb:ca:99:c5:a6:
                    11:52:6c:18:b1:29:3f:b2:d3:60:7a:32:09:c8:e3:
                    78:82:34:aa:4e:0c:03:ee:54:e3:cc:28:7c:15:17:
                    40:ad:25:7a:5d:4f:a7:5a:07:61:71:c2:14:70:67:
                    7a:2f:f4:b5:df:7e:6c:18:15:33:22:01:0f:67:07:
                    9d:21:68:1e:fc:0a:7e:77:15:34:46:09:c4:2b:ba:
                    bf:db:be:92:7a:fe:07:c6:d8:a4:d5:9e:7f:0a:39:
                    fc:87:37:b8:e2:4b:8e:e3:b5:4d:24:98:c0:66:bf:
                    00:da:27:4b:a6:a6:28:65:b8:e5:7f:1d:86:e5:a8:
                    19:64:9a:71:75:36:9d:7b:e5:85:a7:f2:21:d2:42:
                    b9:ed
                Exponent: 65537 (0x10001)
        X509v3 extensions:
            X509v3 Basic Constraints: 
                CA:FALSE
            X509v3 Subject Key Identifier: 
                59:F2:12:FB:7B:E6:39:2D:8B:7F:17:25:AE:46:EA:59:11:0F:8F:94
            X509v3 Authority Key Identifier: 
                keyid:07:B4:0F:C8:05:DC:AA:32:A5:22:3A:4A:56:53:E3:63:5C:6A:11:0B
                DirName:/CN=team178-net
                serial:ED:E9:58:77:70:4F:55:5E:76:77:6E:8D:30:4C:BD:6B:07:FE:0B
            X509v3 Extended Key Usage: 
                TLS Web Server Authentication
            X509v3 Key Usage: 
                Digital Signature, Key Encipherment
            X509v3 Subject Alternative Name: 
                DNS:team178-server
    Signature Algorithm: sha256WithRSAEncryption
    Signature Value:
        77:ba:e0:ef:4a:d9:c5:ee:81:aa:09:ac:81:23:75:fe:ae:7a:
        bb:b3:85:75:90:96:57:c3:5e:5b:60:da:c5:96:95:c0:18:b9:
        57:65:0d:18:2c:cf:1f:f5:c9:cd:a4:cb:7f:61:3e:ca:fc:38:
        0a:a1:a2:96:a9:77:88:18:3c:8e:6f:14:40:cd:60:a8:22:c0:
        1e:5d:b3:31:64:4b:d1:02:40:45:01:f6:77:e7:f1:e0:31:96:
        b8:1a:32:74:b8:13:78:57:a7:e6:84:a3:a9:b7:19:b4:ad:74:
        e4:dd:f3:d7:cd:d6:b0:35:12:ad:a7:64:b0:21:fe:a4:b9:bf:
        bd:9d:8a:0c:69:e7:28:56:3e:cf:80:80:89:49:61:28:2e:d0:
        5a:b5:1b:d3:ce:25:82:7d:0c:25:f5:24:0e:b4:05:2a:24:8c:
        5f:32:89:c3:8a:85:7e:c1:3e:54:32:09:91:62:1f:68:d6:db:
        28:c4:fe:fc:f4:2d:18:d9:f5:be:6a:1f:45:64:c0:c3:56:6c:
        70:f4:39:b7:19:57:dd:97:c0:fd:48:75:0a:8a:6e:40:68:e5:
        fa:05:a5:bc:a0:1e:f5:ad:e7:c2:72:1c:5f:b3:b5:97:a3:49:
        11:41:bb:b3:e5:f2:5d:ac:70:23:3b:28:72:ce:50:07:a0:79:
        22:de:da:f3
-----BEGIN CERTIFICATE-----
MIIDeDCCAmCgAwIBAgIRAIvaNlqVy+aUByZhfhNl0XgwDQYJKoZIhvcNAQELBQAw
FjEUMBIGA1UEAwwLdGVhbTE3OC1uZXQwHhcNMjMxMTAzMjA0MjI4WhcNMjYxMDE4
MjA0MjI4WjAZMRcwFQYDVQQDDA50ZWFtMTc4LXNlcnZlcjCCASIwDQYJKoZIhvcN
AQEBBQADggEPADCCAQoCggEBAJSSWqOSPOYtYlD1zf/rMzQL4H8wdpzmCLMmur06
TaQRiy5s5llPVN3tX0f8OeK+tR2gWL372YkSWfVCL7yhlQDXUP5wXGEW7TNo+aLR
M8CZY7tQNp3jrzpK1CjAUXIVCjhaIS8Gu63eNXlwyTSEpFApt+vKmcWmEVJsGLEp
P7LTYHoyCcjjeII0qk4MA+5U48wofBUXQK0lel1Pp1oHYXHCFHBnei/0td9+bBgV
MyIBD2cHnSFoHvwKfncVNEYJxCu6v9u+knr+B8bYpNWefwo5/Ic3uOJLjuO1TSSY
wGa/ANonS6amKGW45X8dhuWoGWSacXU2nXvlhafyIdJCue0CAwEAAaOBvTCBujAJ
BgNVHRMEAjAAMB0GA1UdDgQWBBRZ8hL7e+Y5LYt/FyWuRupZEQ+PlDBRBgNVHSME
SjBIgBQHtA/IBdyqMqUiOkpWU+NjXGoRC6EapBgwFjEUMBIGA1UEAwwLdGVhbTE3
OC1uZXSCFADt6Vh3cE9VXnZ3bo0wTL1rB/4LMBMGA1UdJQQMMAoGCCsGAQUFBwMB
MAsGA1UdDwQEAwIFoDAZBgNVHREEEjAQgg50ZWFtMTc4LXNlcnZlcjANBgkqhkiG
9w0BAQsFAAOCAQEAd7rg70rZxe6BqgmsgSN1/q56u7OFdZCWV8NeW2DaxZaVwBi5
V2UNGCzPH/XJzaTLf2E+yvw4CqGilql3iBg8jm8UQM1gqCLAHl2zMWRL0QJARQH2
d+fx4DGWuBoydLgTeFen5oSjqbcZtK105N3z183WsDUSradksCH+pLm/vZ2KDGnn
KFY+z4CAiUlhKC7QWrUb084lgn0MJfUkDrQFKiSMXzKJw4qFfsE+VDIJkWIfaNbb
KMT+/PQtGNn1vmofRWTAw1ZscPQ5txlX3ZfA/Uh1CopuQGjl+gWlvKAe9a3nwnIc
X7O1l6NJEUG7s+XyXaxwIzsocs5QB6B5It7a8w==
-----END CERTIFICATE-----
