Certificate:
    Data:
        Version: 3 (0x2)
        Serial Number:
            8f:6e:b1:69:78:44:5f:ea:a9:34:f3:30:fa:a3:2c:e5
        Signature Algorithm: sha256WithRSAEncryption
        Issuer: CN=team178-net
        Validity
            Not Before: Nov  4 11:31:09 2023 GMT
            Not After : Oct 19 11:31:09 2026 GMT
        Subject: CN=team178-client
        Subject Public Key Info:
            Public Key Algorithm: rsaEncryption
                Public-Key: (2048 bit)
                Modulus:
                    00:bb:c9:0f:0f:cc:7c:c5:1e:27:81:00:aa:2b:67:
                    ef:d9:ed:09:e5:ab:de:b8:9f:73:11:9e:91:2f:ed:
                    9c:50:bd:d8:1c:90:d3:e7:5a:b2:17:11:88:c4:a3:
                    bc:3e:53:7e:2c:2f:a9:09:d6:4b:59:ae:40:90:da:
                    76:c2:4c:96:70:05:68:c1:20:71:27:b0:64:84:9f:
                    6f:03:2f:a8:8a:69:d2:3d:6f:97:25:6f:5b:18:e0:
                    e2:93:a6:dc:b6:0c:40:19:da:6c:26:2e:ee:01:17:
                    7b:b5:41:b3:a2:7c:30:55:c7:0a:90:a6:2d:83:40:
                    4a:3f:20:3c:c9:43:33:d3:fc:0a:5a:3b:af:67:90:
                    1d:4c:2d:05:9a:7e:8a:73:3b:1a:a7:af:9f:89:3f:
                    c5:da:c7:7e:13:61:e3:7b:10:1b:1d:aa:67:a2:a9:
                    bd:fd:62:e9:b4:99:95:12:a4:53:17:a9:7d:4d:14:
                    0a:c8:6a:54:1b:b8:d0:b1:9b:4a:81:f4:6b:12:df:
                    97:e7:5a:21:82:d3:87:35:1d:e4:b7:90:a1:a3:cd:
                    eb:d1:8a:72:b9:a5:2d:13:17:f5:3f:ce:f7:fa:d6:
                    9e:3e:92:c8:d8:c6:13:a9:00:e2:05:97:ac:d3:1f:
                    20:3f:bc:9d:cb:d3:e2:29:32:26:73:19:96:4d:91:
                    8c:1f
                Exponent: 65537 (0x10001)
        X509v3 extensions:
            X509v3 Basic Constraints: 
                CA:FALSE
            X509v3 Subject Key Identifier: 
                15:61:49:01:99:AB:8E:57:EF:36:76:C4:FA:40:A3:CF:65:0E:13:44
            X509v3 Authority Key Identifier: 
                keyid:72:F3:0F:17:EE:64:2C:8B:31:6B:D5:B0:45:09:8E:91:1A:B4:47:0A
                DirName:/CN=team178-net
                serial:D0:5C:FE:9F:A8:81:74:6F:C2:D7:34:DB:D7:2C:8D:95:2F:C9:DE
            X509v3 Extended Key Usage: 
                TLS Web Client Authentication
            X509v3 Key Usage: 
                Digital Signature
    Signature Algorithm: sha256WithRSAEncryption
    Signature Value:
        6a:69:3f:c2:b8:d7:69:e5:e2:de:67:f0:68:bf:7f:c9:11:7c:
        80:19:20:7c:8e:e0:3c:22:1e:af:fa:2d:91:12:49:28:d5:b2:
        aa:e1:db:f9:bf:17:28:29:0b:f2:1d:f4:f5:c5:c9:a1:d6:f4:
        a7:20:cd:cd:eb:22:06:1a:54:fb:4e:0d:74:f9:fa:a6:70:0b:
        98:9b:76:d2:25:e5:e5:91:3d:d3:86:e8:62:1a:22:c0:99:68:
        d9:60:d7:a1:00:ef:b6:5b:8f:07:4c:ff:32:f0:16:78:88:6a:
        e7:7a:df:db:1e:1c:32:8f:a5:aa:dc:bd:33:45:5d:3c:7c:d9:
        78:08:3e:05:d5:1d:38:0d:c6:a8:68:5e:27:14:b9:02:5e:da:
        6d:2e:15:22:92:c7:08:6c:e2:e5:2e:6b:ef:62:10:f8:ab:e1:
        b2:02:6f:88:91:8d:ff:f9:1f:91:44:f8:af:25:75:80:61:15:
        70:5e:fe:e7:45:f3:97:33:49:ab:a3:1d:a1:2b:b1:a2:8c:fa:
        fc:f4:5d:a0:4d:9b:a0:45:27:27:92:3e:d3:b0:cc:f2:a1:8a:
        c9:c6:c5:ad:a8:52:41:b8:79:8d:90:68:c2:46:8d:17:17:e9:
        8c:24:e1:bf:e9:75:2f:c3:fc:06:8c:02:70:44:9d:b8:fa:d7:
        35:73:b3:8b
-----BEGIN CERTIFICATE-----
MIIDXTCCAkWgAwIBAgIRAI9usWl4RF/qqTTzMPqjLOUwDQYJKoZIhvcNAQELBQAw
FjEUMBIGA1UEAwwLdGVhbTE3OC1uZXQwHhcNMjMxMTA0MTEzMTA5WhcNMjYxMDE5
MTEzMTA5WjAZMRcwFQYDVQQDDA50ZWFtMTc4LWNsaWVudDCCASIwDQYJKoZIhvcN
AQEBBQADggEPADCCAQoCggEBALvJDw/MfMUeJ4EAqitn79ntCeWr3rifcxGekS/t
nFC92ByQ0+dashcRiMSjvD5TfiwvqQnWS1muQJDadsJMlnAFaMEgcSewZISfbwMv
qIpp0j1vlyVvWxjg4pOm3LYMQBnabCYu7gEXe7VBs6J8MFXHCpCmLYNASj8gPMlD
M9P8Clo7r2eQHUwtBZp+inM7Gqevn4k/xdrHfhNh43sQGx2qZ6Kpvf1i6bSZlRKk
UxepfU0UCshqVBu40LGbSoH0axLfl+daIYLThzUd5LeQoaPN69GKcrmlLRMX9T/O
9/rWnj6SyNjGE6kA4gWXrNMfID+8ncvT4ikyJnMZlk2RjB8CAwEAAaOBojCBnzAJ
BgNVHRMEAjAAMB0GA1UdDgQWBBQVYUkBmauOV+82dsT6QKPPZQ4TRDBRBgNVHSME
SjBIgBRy8w8X7mQsizFr1bBFCY6RGrRHCqEapBgwFjEUMBIGA1UEAwwLdGVhbTE3
OC1uZXSCFADQXP6fqIF0b8LXNNvXLI2VL8neMBMGA1UdJQQMMAoGCCsGAQUFBwMC
MAsGA1UdDwQEAwIHgDANBgkqhkiG9w0BAQsFAAOCAQEAamk/wrjXaeXi3mfwaL9/
yRF8gBkgfI7gPCIer/otkRJJKNWyquHb+b8XKCkL8h309cXJodb0pyDNzesiBhpU
+04NdPn6pnALmJt20iXl5ZE904boYhoiwJlo2WDXoQDvtluPB0z/MvAWeIhq53rf
2x4cMo+lqty9M0VdPHzZeAg+BdUdOA3GqGheJxS5Al7abS4VIpLHCGzi5S5r72IQ
+KvhsgJviJGN//kfkUT4ryV1gGEVcF7+50XzlzNJq6MdoSuxooz6/PRdoE2boEUn
J5I+07DM8qGKycbFrahSQbh5jZBowkaNFxfpjCThv+l1L8P8BowCcESduPrXNXOz
iw==
-----END CERTIFICATE-----
