Certificate:
    Data:
        Version: 3 (0x2)
        Serial Number:
            f9:c7:a4:a1:9d:ac:3e:72:58:ac:be:00:f1:4c:d5:2b
        Signature Algorithm: sha256WithRSAEncryption
        Issuer: CN=team178-net
        Validity
            Not Before: Nov  4 10:43:52 2023 GMT
            Not After : Oct 19 10:43:52 2026 GMT
        Subject: CN=team178-client
        Subject Public Key Info:
            Public Key Algorithm: rsaEncryption
                Public-Key: (2048 bit)
                Modulus:
                    00:bd:50:a1:e8:46:ff:32:81:88:00:f9:48:81:ec:
                    2d:d4:75:77:11:36:db:fa:30:48:7c:f5:13:08:fa:
                    37:b6:c7:35:00:eb:1b:92:e7:b6:fa:b0:1e:a2:f7:
                    47:05:69:a3:43:d7:47:99:40:96:2e:96:71:e3:aa:
                    ef:ea:b6:d8:5e:d1:db:23:cc:ed:9e:83:de:65:13:
                    7c:8e:ec:8a:5a:06:f0:52:2f:fa:1b:f9:a3:0a:ed:
                    b6:b3:42:da:ec:4e:53:9a:9f:f8:1a:3b:43:c7:a3:
                    b1:ac:8e:24:67:3e:19:06:23:41:bb:c1:d8:ce:e3:
                    7e:4d:15:a5:4e:92:b8:59:b7:19:cb:eb:8f:54:e5:
                    64:ba:5f:0d:27:04:0e:79:71:90:66:84:95:ef:9d:
                    d7:49:fb:95:15:45:a8:b0:df:68:a9:44:a9:d2:03:
                    21:29:62:21:5f:6b:03:b1:d1:03:be:02:c5:04:74:
                    5b:1b:bc:03:17:2d:d9:71:fd:f5:47:f5:c4:23:42:
                    28:42:89:06:57:44:51:5c:49:ef:a3:db:8f:45:63:
                    07:12:98:41:0a:90:36:da:cf:8a:aa:6e:83:c1:44:
                    9b:c8:07:b9:35:d3:54:36:d5:fc:54:70:0a:83:7c:
                    82:6b:af:69:e5:6c:40:05:fe:22:f5:01:fa:02:40:
                    48:c1
                Exponent: 65537 (0x10001)
        X509v3 extensions:
            X509v3 Basic Constraints: 
                CA:FALSE
            X509v3 Subject Key Identifier: 
                3E:62:51:04:A7:43:17:C3:91:13:6C:DE:58:31:49:1C:25:A8:55:61
            X509v3 Authority Key Identifier: 
                keyid:20:C8:50:CD:BE:0A:CD:7B:59:54:48:A4:9E:78:29:FA:F3:28:1A:90
                DirName:/CN=team178-net
                serial:20:4E:CC:EE:9F:EE:7C:F1:5D:D3:6A:D1:AB:9C:AB:4F:A2:AB:06:C0
            X509v3 Extended Key Usage: 
                TLS Web Client Authentication
            X509v3 Key Usage: 
                Digital Signature
    Signature Algorithm: sha256WithRSAEncryption
    Signature Value:
        7b:05:42:a6:66:84:1a:0b:58:40:62:e7:5a:5f:b2:38:9a:5d:
        37:8f:ec:d1:76:19:a1:d7:ea:05:d7:29:71:25:32:c8:6a:69:
        93:15:9a:5d:ea:94:46:27:c3:d1:1c:45:47:1c:6c:04:59:80:
        6d:66:14:9b:80:27:6d:d0:b0:33:55:53:59:84:9a:e1:c6:8b:
        79:5a:5e:44:2d:b4:bd:0a:0b:0a:2d:45:ee:0f:95:4c:d2:f7:
        c8:44:3b:49:30:55:10:39:17:a7:7a:45:dc:03:72:be:22:d4:
        cd:54:f6:d2:7c:a0:f7:37:58:41:51:2d:b4:e6:cb:85:bb:1d:
        1a:9b:d2:ab:f4:21:3e:94:d3:2e:1a:d8:aa:c2:c2:c9:29:12:
        0a:19:36:8a:2e:4a:97:50:6b:d9:68:67:b1:e2:4f:7b:28:43:
        b9:0e:88:a5:8c:57:0a:79:35:e8:d8:49:9c:73:08:f9:f0:27:
        d9:21:5f:97:04:91:0c:79:40:c8:00:bc:e2:3f:78:b4:a5:68:
        86:84:98:33:66:b1:70:99:1f:00:c8:06:82:17:0c:a9:78:59:
        dd:5c:ff:4a:7a:8b:1c:3d:ba:93:f4:16:d2:72:a2:62:39:7e:
        74:8b:3a:b5:6a:ba:fc:5d:8d:a3:8f:9f:8d:e4:bf:12:33:52:
        e7:81:89:13
-----BEGIN CERTIFICATE-----
MIIDXTCCAkWgAwIBAgIRAPnHpKGdrD5yWKy+APFM1SswDQYJKoZIhvcNAQELBQAw
FjEUMBIGA1UEAwwLdGVhbTE3OC1uZXQwHhcNMjMxMTA0MTA0MzUyWhcNMjYxMDE5
MTA0MzUyWjAZMRcwFQYDVQQDDA50ZWFtMTc4LWNsaWVudDCCASIwDQYJKoZIhvcN
AQEBBQADggEPADCCAQoCggEBAL1QoehG/zKBiAD5SIHsLdR1dxE22/owSHz1Ewj6
N7bHNQDrG5LntvqwHqL3RwVpo0PXR5lAli6WceOq7+q22F7R2yPM7Z6D3mUTfI7s
iloG8FIv+hv5owrttrNC2uxOU5qf+Bo7Q8ejsayOJGc+GQYjQbvB2M7jfk0VpU6S
uFm3Gcvrj1TlZLpfDScEDnlxkGaEle+d10n7lRVFqLDfaKlEqdIDISliIV9rA7HR
A74CxQR0Wxu8Axct2XH99Uf1xCNCKEKJBldEUVxJ76Pbj0VjBxKYQQqQNtrPiqpu
g8FEm8gHuTXTVDbV/FRwCoN8gmuvaeVsQAX+IvUB+gJASMECAwEAAaOBojCBnzAJ
BgNVHRMEAjAAMB0GA1UdDgQWBBQ+YlEEp0MXw5ETbN5YMUkcJahVYTBRBgNVHSME
SjBIgBQgyFDNvgrNe1lUSKSeeCn68ygakKEapBgwFjEUMBIGA1UEAwwLdGVhbTE3
OC1uZXSCFCBOzO6f7nzxXdNq0aucq0+iqwbAMBMGA1UdJQQMMAoGCCsGAQUFBwMC
MAsGA1UdDwQEAwIHgDANBgkqhkiG9w0BAQsFAAOCAQEAewVCpmaEGgtYQGLnWl+y
OJpdN4/s0XYZodfqBdcpcSUyyGppkxWaXeqURifD0RxFRxxsBFmAbWYUm4AnbdCw
M1VTWYSa4caLeVpeRC20vQoLCi1F7g+VTNL3yEQ7STBVEDkXp3pF3ANyviLUzVT2
0nyg9zdYQVEttObLhbsdGpvSq/QhPpTTLhrYqsLCySkSChk2ii5Kl1Br2WhnseJP
eyhDuQ6IpYxXCnk16NhJnHMI+fAn2SFflwSRDHlAyAC84j94tKVohoSYM2axcJkf
AMgGghcMqXhZ3Vz/SnqLHD26k/QW0nKiYjl+dIs6tWq6/F2No4+fjeS/EjNS54GJ
Ew==
-----END CERTIFICATE-----
