Certificate:
    Data:
        Version: 3 (0x2)
        Serial Number:
            39:c4:80:21:5f:ca:1e:f0:a1:2a:dc:ac:32:8a:f3:75
        Signature Algorithm: sha256WithRSAEncryption
        Issuer: CN=team495-net
        Validity
            Not Before: Nov  4 10:49:22 2023 GMT
            Not After : Oct 19 10:49:22 2026 GMT
        Subject: CN=team495-server
        Subject Public Key Info:
            Public Key Algorithm: rsaEncryption
                Public-Key: (2048 bit)
                Modulus:
                    00:db:8b:95:12:8d:96:fa:1b:52:f1:4d:10:a6:33:
                    8d:57:bd:bb:08:0f:09:13:40:9b:23:70:cc:1e:2a:
                    57:f2:6f:f4:b2:0e:fd:b9:cd:f1:55:41:45:6f:70:
                    7a:24:95:88:f6:e3:88:d3:ef:a1:1c:33:e2:db:b1:
                    5a:72:66:e2:ac:d7:74:86:2c:b1:41:14:22:5a:7b:
                    26:98:74:ef:55:d2:fc:a6:ee:68:7b:f2:0c:72:e7:
                    8e:2d:ac:46:2a:64:9c:41:73:46:c4:be:7a:64:6a:
                    24:ba:f5:c8:f4:49:18:7b:e9:d5:57:f5:ab:92:6e:
                    27:df:c1:ad:4f:97:33:1f:46:98:25:e6:75:dd:f8:
                    f2:5a:f0:62:3c:3e:9d:93:6f:b0:14:0e:62:4d:49:
                    61:bd:f8:33:db:36:14:bc:a9:d6:98:9e:c1:1e:e2:
                    f4:a2:78:92:59:35:85:86:db:91:1d:03:95:b5:e5:
                    66:b9:58:65:46:8c:01:24:b5:65:4c:4e:d7:cd:fb:
                    03:96:a1:5c:ac:c9:65:dc:19:13:09:ca:2f:d5:e8:
                    d7:92:e5:44:bc:39:bf:67:47:4f:59:1b:5c:2c:a9:
                    40:c3:0d:de:6a:a5:07:b8:fa:6b:04:7e:78:32:c0:
                    a1:3b:9f:c3:8a:24:1e:0d:e8:09:8b:6a:2b:23:a1:
                    4d:05
                Exponent: 65537 (0x10001)
        X509v3 extensions:
            X509v3 Basic Constraints: 
                CA:FALSE
            X509v3 Subject Key Identifier: 
                D0:C3:96:5C:07:17:41:0D:40:3E:E5:CE:21:07:D3:30:2E:90:B0:48
            X509v3 Authority Key Identifier: 
                keyid:77:99:61:DE:86:DC:E8:E8:0E:85:A0:7A:D7:00:79:C5:45:EA:4D:EE
                DirName:/CN=team495-net
                serial:35:39:97:0D:FD:C4:9A:5B:50:98:DE:2A:47:31:DD:DC:78:91:C6:FC
            X509v3 Extended Key Usage: 
                TLS Web Server Authentication
            X509v3 Key Usage: 
                Digital Signature, Key Encipherment
            X509v3 Subject Alternative Name: 
                DNS:team495-server
    Signature Algorithm: sha256WithRSAEncryption
    Signature Value:
        86:ec:58:d4:9f:8e:dc:f6:af:cf:5b:40:c3:46:c0:88:00:da:
        94:35:d8:78:78:af:bf:2f:20:32:d2:73:87:47:d0:23:c0:f9:
        dd:3c:36:3d:c3:14:76:c3:dd:4e:df:c8:a6:a5:d0:3d:ce:0c:
        85:a6:e0:39:1d:9f:f7:dd:6a:c9:78:a0:33:b8:96:a4:04:dc:
        4a:8b:4c:b6:dd:c3:fd:54:63:4b:0e:10:23:6d:84:7d:1a:7a:
        ef:ba:34:2a:f3:1d:1d:66:dc:cc:b6:c6:e6:c0:3b:99:da:c5:
        ae:27:04:f2:a4:56:fb:c3:07:94:29:e6:f3:4e:72:3a:9c:54:
        29:23:5b:67:9e:32:f6:cb:c3:88:84:c6:ba:98:7e:e7:a5:77:
        6e:05:59:23:70:88:23:1f:e8:6e:09:1a:dc:bf:ee:81:d9:96:
        94:02:3d:90:0c:b2:be:10:54:00:3a:52:0c:c6:c2:b2:74:f6:
        88:cf:a6:c2:99:15:42:a7:0b:d9:fc:3d:d7:d5:cd:8f:3c:9d:
        8e:8d:de:91:3e:75:26:d8:a8:28:2b:1d:37:d8:bc:e0:f9:1c:
        9c:b9:2c:a0:bb:e3:cf:cb:fd:70:b4:c0:88:37:90:19:31:20:
        bf:29:55:c0:6e:0c:68:5b:59:0b:74:07:11:d3:66:08:fe:0a:
        6c:d4:18:2b
-----BEGIN CERTIFICATE-----
MIIDdzCCAl+gAwIBAgIQOcSAIV/KHvChKtysMorzdTANBgkqhkiG9w0BAQsFADAW
MRQwEgYDVQQDDAt0ZWFtNDk1LW5ldDAeFw0yMzExMDQxMDQ5MjJaFw0yNjEwMTkx
MDQ5MjJaMBkxFzAVBgNVBAMMDnRlYW00OTUtc2VydmVyMIIBIjANBgkqhkiG9w0B
AQEFAAOCAQ8AMIIBCgKCAQEA24uVEo2W+htS8U0QpjONV727CA8JE0CbI3DMHipX
8m/0sg79uc3xVUFFb3B6JJWI9uOI0++hHDPi27FacmbirNd0hiyxQRQiWnsmmHTv
VdL8pu5oe/IMcueOLaxGKmScQXNGxL56ZGokuvXI9EkYe+nVV/Wrkm4n38GtT5cz
H0aYJeZ13fjyWvBiPD6dk2+wFA5iTUlhvfgz2zYUvKnWmJ7BHuL0oniSWTWFhtuR
HQOVteVmuVhlRowBJLVlTE7XzfsDlqFcrMll3BkTCcov1ejXkuVEvDm/Z0dPWRtc
LKlAww3eaqUHuPprBH54MsChO5/DiiQeDegJi2orI6FNBQIDAQABo4G9MIG6MAkG
A1UdEwQCMAAwHQYDVR0OBBYEFNDDllwHF0ENQD7lziEH0zAukLBIMFEGA1UdIwRK
MEiAFHeZYd6G3OjoDoWgetcAecVF6k3uoRqkGDAWMRQwEgYDVQQDDAt0ZWFtNDk1
LW5ldIIUNTmXDf3EmltQmN4qRzHd3HiRxvwwEwYDVR0lBAwwCgYIKwYBBQUHAwEw
CwYDVR0PBAQDAgWgMBkGA1UdEQQSMBCCDnRlYW00OTUtc2VydmVyMA0GCSqGSIb3
DQEBCwUAA4IBAQCG7FjUn47c9q/PW0DDRsCIANqUNdh4eK+/LyAy0nOHR9AjwPnd
PDY9wxR2w91O38impdA9zgyFpuA5HZ/33WrJeKAzuJakBNxKi0y23cP9VGNLDhAj
bYR9GnrvujQq8x0dZtzMtsbmwDuZ2sWuJwTypFb7wweUKebzTnI6nFQpI1tnnjL2
y8OIhMa6mH7npXduBVkjcIgjH+huCRrcv+6B2ZaUAj2QDLK+EFQAOlIMxsKydPaI
z6bCmRVCpwvZ/D3X1c2PPJ2Ojd6RPnUm2KgoKx032Lzg+RycuSygu+PPy/1wtMCI
N5AZMSC/KVXAbgxoW1kLdAcR02YI/gps1Bgr
-----END CERTIFICATE-----
