Certificate:
    Data:
        Version: 3 (0x2)
        Serial Number:
            b6:8d:85:97:6d:58:be:8a:6b:11:e0:74:ad:31:bd:20
        Signature Algorithm: sha256WithRSAEncryption
        Issuer: CN=team495-net
        Validity
            Not Before: Nov  3 20:48:19 2023 GMT
            Not After : Oct 18 20:48:19 2026 GMT
        Subject: CN=team495-client
        Subject Public Key Info:
            Public Key Algorithm: rsaEncryption
                Public-Key: (2048 bit)
                Modulus:
                    00:f0:21:75:a0:61:8e:85:64:05:73:95:80:78:44:
                    c4:61:34:a3:8c:76:a2:99:32:5d:5c:2b:b0:f7:2a:
                    04:34:52:e0:eb:e2:03:ca:cc:a2:b7:f1:0a:45:7d:
                    d3:ef:43:58:10:20:96:b7:97:30:45:26:e2:72:1f:
                    a4:41:75:91:85:ae:cc:c0:ff:54:3a:73:a7:ba:ff:
                    36:bb:b8:d3:2a:25:28:23:bb:09:57:bb:5a:db:4b:
                    f8:45:36:16:ab:04:2a:a8:a0:81:ea:cb:a1:09:0c:
                    b4:bf:9e:2f:2e:bc:1b:b1:1d:02:81:d3:07:ea:08:
                    7c:e2:14:af:88:43:a7:b9:0b:45:a7:63:51:94:a3:
                    c1:9c:3c:b1:4a:44:b9:8b:a1:59:94:14:6a:98:65:
                    be:96:cd:81:10:ad:2a:70:58:94:42:2f:2b:b8:2a:
                    6a:f2:a5:09:26:a2:03:a2:f5:6b:d2:0c:cd:a5:52:
                    e0:af:40:e8:fe:4c:bd:09:2c:44:1b:b1:16:96:bc:
                    e0:57:dd:e1:10:d6:56:7f:77:22:6a:fc:0c:4a:3c:
                    2c:d6:69:87:df:85:86:9b:7a:2d:21:61:d9:ab:d3:
                    8f:f1:94:1c:8a:67:23:22:ad:07:c0:fe:c0:b8:db:
                    52:41:44:0c:48:41:a4:13:18:e9:6b:75:0c:df:28:
                    28:4f
                Exponent: 65537 (0x10001)
        X509v3 extensions:
            X509v3 Basic Constraints: 
                CA:FALSE
            X509v3 Subject Key Identifier: 
                45:A7:D9:7B:CC:A0:79:41:06:CA:24:32:64:F1:5C:03:B3:22:98:D9
            X509v3 Authority Key Identifier: 
                keyid:2D:56:51:CD:8B:7A:63:35:4A:5F:C0:78:DD:F5:8E:5A:76:4C:5D:65
                DirName:/CN=team495-net
                serial:7C:45:C9:88:74:C3:F2:2C:39:1A:AE:42:CF:8D:53:28:C9:83:0B:54
            X509v3 Extended Key Usage: 
                TLS Web Client Authentication
            X509v3 Key Usage: 
                Digital Signature
    Signature Algorithm: sha256WithRSAEncryption
    Signature Value:
        0d:54:36:7d:80:59:a9:4f:04:14:4c:f5:1e:88:6d:62:ab:dc:
        a6:88:de:87:b9:87:3a:59:24:9b:25:53:6a:9e:1b:54:0d:45:
        de:08:5a:fa:e9:70:c1:54:8d:f5:b4:b1:f0:57:f2:7a:1b:d1:
        a8:b9:50:2d:d6:45:44:dc:5b:57:0a:cf:55:b9:49:4c:94:e1:
        0b:b5:6f:4e:66:29:f4:c3:34:2b:57:a9:fc:e5:9a:dd:5d:63:
        53:7d:1b:f7:ee:32:54:ed:b5:d2:a5:73:0d:1a:f7:fc:07:b9:
        10:a6:89:f2:36:be:53:64:cb:80:de:5e:64:ce:da:03:06:ee:
        15:d9:a9:0b:c6:56:53:40:bb:6b:2d:c8:a2:97:0b:b6:e5:fe:
        de:19:a8:ef:0e:bf:55:db:c4:9b:2c:39:e8:cc:4b:a9:99:29:
        63:f2:68:d4:86:98:93:0e:f2:03:7d:02:22:5d:13:62:7b:c6:
        11:51:fd:b8:ca:0d:0b:52:75:2a:e8:b0:de:1e:bd:83:c3:18:
        51:3e:6d:34:c1:4a:26:6e:4e:13:d0:77:23:43:6e:34:20:c3:
        74:8c:e5:d2:83:51:2c:6e:d8:0e:4b:04:17:aa:2f:12:e2:f0:
        ab:bb:d8:1b:0e:33:a3:0a:c5:2f:4d:2d:9a:aa:3b:34:5c:ed:
        70:13:b8:c8
-----BEGIN CERTIFICATE-----
MIIDXTCCAkWgAwIBAgIRALaNhZdtWL6KaxHgdK0xvSAwDQYJKoZIhvcNAQELBQAw
FjEUMBIGA1UEAwwLdGVhbTQ5NS1uZXQwHhcNMjMxMTAzMjA0ODE5WhcNMjYxMDE4
MjA0ODE5WjAZMRcwFQYDVQQDDA50ZWFtNDk1LWNsaWVudDCCASIwDQYJKoZIhvcN
AQEBBQADggEPADCCAQoCggEBAPAhdaBhjoVkBXOVgHhExGE0o4x2opkyXVwrsPcq
BDRS4OviA8rMorfxCkV90+9DWBAglreXMEUm4nIfpEF1kYWuzMD/VDpzp7r/Nru4
0yolKCO7CVe7WttL+EU2FqsEKqiggerLoQkMtL+eLy68G7EdAoHTB+oIfOIUr4hD
p7kLRadjUZSjwZw8sUpEuYuhWZQUaphlvpbNgRCtKnBYlEIvK7gqavKlCSaiA6L1
a9IMzaVS4K9A6P5MvQksRBuxFpa84Ffd4RDWVn93Imr8DEo8LNZph9+Fhpt6LSFh
2avTj/GUHIpnIyKtB8D+wLjbUkFEDEhBpBMY6Wt1DN8oKE8CAwEAAaOBojCBnzAJ
BgNVHRMEAjAAMB0GA1UdDgQWBBRFp9l7zKB5QQbKJDJk8VwDsyKY2TBRBgNVHSME
SjBIgBQtVlHNi3pjNUpfwHjd9Y5adkxdZaEapBgwFjEUMBIGA1UEAwwLdGVhbTQ5
NS1uZXSCFHxFyYh0w/IsORquQs+NUyjJgwtUMBMGA1UdJQQMMAoGCCsGAQUFBwMC
MAsGA1UdDwQEAwIHgDANBgkqhkiG9w0BAQsFAAOCAQEADVQ2fYBZqU8EFEz1Hoht
Yqvcpojeh7mHOlkkmyVTap4bVA1F3gha+ulwwVSN9bSx8FfyehvRqLlQLdZFRNxb
VwrPVblJTJThC7VvTmYp9MM0K1ep/OWa3V1jU30b9+4yVO210qVzDRr3/Ae5EKaJ
8ja+U2TLgN5eZM7aAwbuFdmpC8ZWU0C7ay3IopcLtuX+3hmo7w6/VdvEmyw56MxL
qZkpY/Jo1IaYkw7yA30CIl0TYnvGEVH9uMoNC1J1Kuiw3h69g8MYUT5tNMFKJm5O
E9B3I0NuNCDDdIzl0oNRLG7YDksEF6ovEuLwq7vYGw4zowrFL00tmqo7NFztcBO4
yA==
-----END CERTIFICATE-----
