Certificate:
    Data:
        Version: 3 (0x2)
        Serial Number:
            0b:6b:44:33:02:bd:ab:43:81:b7:e3:74:df:ab:a8:b5
        Signature Algorithm: sha256WithRSAEncryption
        Issuer: CN=team221-net
        Validity
            Not Before: Nov  4 11:31:58 2023 GMT
            Not After : Oct 19 11:31:58 2026 GMT
        Subject: CN=team221-client
        Subject Public Key Info:
            Public Key Algorithm: rsaEncryption
                Public-Key: (2048 bit)
                Modulus:
                    00:af:44:ad:55:c5:85:b9:e0:c2:89:57:5e:1f:45:
                    cb:80:78:9e:cd:f5:7b:78:97:06:9d:3f:19:32:5a:
                    c6:5a:d3:90:74:65:f2:97:70:f8:ae:d9:35:16:b8:
                    3a:d8:77:6a:95:e2:2b:7c:f0:17:94:75:c7:46:cc:
                    1e:fa:3e:0d:e9:29:4e:5f:ca:45:c7:66:0b:ad:72:
                    68:0a:fe:c4:60:75:b6:f9:53:72:f1:bd:ce:ec:73:
                    65:23:12:ca:16:01:77:cf:08:35:c3:15:53:2e:cc:
                    1f:cf:c5:57:e0:77:a9:81:1f:23:e7:6d:81:a7:ae:
                    73:5d:fb:a0:f9:ab:2f:12:98:f1:4a:61:b9:bc:96:
                    64:bd:53:cb:0b:4c:0b:1e:03:03:d8:a6:40:01:69:
                    92:af:59:f2:63:d9:99:17:4f:d1:b0:5e:03:f8:85:
                    bb:3a:51:e8:58:e8:6a:45:d9:0d:49:e5:26:71:f4:
                    34:c4:51:fa:1c:9b:6e:8e:29:b5:b1:4e:5d:23:5c:
                    a5:1a:72:96:23:99:b2:48:12:54:bc:87:b7:64:e6:
                    d8:37:57:6c:f5:e0:55:ca:d3:b1:c4:50:3b:cb:f0:
                    74:a4:1a:ad:ab:5b:1c:b6:5d:d5:3c:1e:97:79:99:
                    a2:d7:9a:8f:a1:4d:c6:b1:24:93:e9:d1:fe:05:12:
                    37:73
                Exponent: 65537 (0x10001)
        X509v3 extensions:
            X509v3 Basic Constraints: 
                CA:FALSE
            X509v3 Subject Key Identifier: 
                73:D2:73:EB:30:9E:CF:4C:97:47:F8:36:6F:B8:D6:E6:6B:C7:F5:93
            X509v3 Authority Key Identifier: 
                keyid:60:F7:96:17:3D:49:FD:0B:1F:96:F3:3C:2D:3F:79:82:C7:29:79:ED
                DirName:/CN=team221-net
                serial:1C:80:44:49:E3:6F:63:A1:5C:51:B0:81:50:51:BE:4A:CA:C0:31:BA
            X509v3 Extended Key Usage: 
                TLS Web Client Authentication
            X509v3 Key Usage: 
                Digital Signature
    Signature Algorithm: sha256WithRSAEncryption
    Signature Value:
        24:0d:f8:1e:6f:26:fe:5f:61:22:78:94:79:79:5b:0f:79:73:
        f0:ef:7d:74:10:f9:b3:5f:23:ab:35:5a:32:90:a1:49:23:e7:
        84:24:c8:57:aa:3f:75:16:69:84:62:39:a5:d8:07:fd:5a:90:
        29:33:93:8f:b2:af:3b:5f:60:74:67:a1:d1:b6:8c:72:e9:14:
        0e:15:29:b8:05:72:d3:0a:23:75:18:b5:b8:96:b9:14:65:7a:
        8b:30:0a:c1:0e:10:7a:f8:15:d1:26:c6:e3:3c:85:f8:19:f0:
        c6:87:13:3e:20:8c:3e:0d:9b:38:a0:d3:ff:97:bd:f1:f3:b7:
        60:0f:9e:5f:3f:26:ee:36:3a:00:ce:47:16:4e:f4:4b:c0:e4:
        77:bf:8e:4b:f0:94:0d:c1:3a:cb:f7:5d:97:25:94:01:88:57:
        9d:35:74:18:e5:8d:6f:c9:c1:04:94:d1:b5:72:85:de:41:6f:
        29:89:bc:40:76:d7:25:39:2c:af:46:b6:8c:cc:3f:5c:99:71:
        13:94:48:a2:cf:e7:09:34:09:27:f7:c9:a4:e6:2a:ac:97:d3:
        9f:61:79:2e:f3:39:1b:ee:e0:a6:32:77:2f:a2:18:73:5c:0e:
        f1:fa:ae:63:f5:52:67:d6:af:94:e4:3d:ec:43:ea:4e:04:ef:
        05:ea:a0:fa
-----BEGIN CERTIFICATE-----
MIIDXDCCAkSgAwIBAgIQC2tEMwK9q0OBt+N036uotTANBgkqhkiG9w0BAQsFADAW
MRQwEgYDVQQDDAt0ZWFtMjIxLW5ldDAeFw0yMzExMDQxMTMxNThaFw0yNjEwMTkx
MTMxNThaMBkxFzAVBgNVBAMMDnRlYW0yMjEtY2xpZW50MIIBIjANBgkqhkiG9w0B
AQEFAAOCAQ8AMIIBCgKCAQEAr0StVcWFueDCiVdeH0XLgHiezfV7eJcGnT8ZMlrG
WtOQdGXyl3D4rtk1Frg62HdqleIrfPAXlHXHRswe+j4N6SlOX8pFx2YLrXJoCv7E
YHW2+VNy8b3O7HNlIxLKFgF3zwg1wxVTLswfz8VX4HepgR8j522Bp65zXfug+asv
EpjxSmG5vJZkvVPLC0wLHgMD2KZAAWmSr1nyY9mZF0/RsF4D+IW7OlHoWOhqRdkN
SeUmcfQ0xFH6HJtujim1sU5dI1ylGnKWI5mySBJUvIe3ZObYN1ds9eBVytOxxFA7
y/B0pBqtq1sctl3VPB6XeZmi15qPoU3GsSST6dH+BRI3cwIDAQABo4GiMIGfMAkG
A1UdEwQCMAAwHQYDVR0OBBYEFHPSc+swns9Ml0f4Nm+41uZrx/WTMFEGA1UdIwRK
MEiAFGD3lhc9Sf0LH5bzPC0/eYLHKXntoRqkGDAWMRQwEgYDVQQDDAt0ZWFtMjIx
LW5ldIIUHIBESeNvY6FcUbCBUFG+SsrAMbowEwYDVR0lBAwwCgYIKwYBBQUHAwIw
CwYDVR0PBAQDAgeAMA0GCSqGSIb3DQEBCwUAA4IBAQAkDfgebyb+X2EieJR5eVsP
eXPw7310EPmzXyOrNVoykKFJI+eEJMhXqj91FmmEYjml2Af9WpApM5OPsq87X2B0
Z6HRtoxy6RQOFSm4BXLTCiN1GLW4lrkUZXqLMArBDhB6+BXRJsbjPIX4GfDGhxM+
IIw+DZs4oNP/l73x87dgD55fPybuNjoAzkcWTvRLwOR3v45L8JQNwTrL912XJZQB
iFedNXQY5Y1vycEElNG1coXeQW8pibxAdtclOSyvRraMzD9cmXETlEiiz+cJNAkn
98mk5iqsl9OfYXku8zkb7uCmMncvohhzXA7x+q5j9VJn1q+U5D3sQ+pOBO8F6qD6
-----END CERTIFICATE-----
