Certificate:
    Data:
        Version: 3 (0x2)
        Serial Number:
            9b:e2:c5:c5:07:af:8b:73:23:9e:6f:d1:cc:7d:09:4b
        Signature Algorithm: sha256WithRSAEncryption
        Issuer: CN=team221-net
        Validity
            Not Before: Nov  4 11:31:58 2023 GMT
            Not After : Oct 19 11:31:58 2026 GMT
        Subject: CN=team221-server
        Subject Public Key Info:
            Public Key Algorithm: rsaEncryption
                Public-Key: (2048 bit)
                Modulus:
                    00:93:81:9c:8e:16:68:3b:68:30:c3:96:fa:75:a6:
                    71:47:63:8f:97:1f:5e:4b:29:90:a7:b6:f9:c7:ec:
                    de:b4:e0:72:9a:0d:d5:d3:25:8f:4a:f2:85:44:7e:
                    25:21:a7:96:c7:62:93:1b:e2:b0:28:3e:8d:ba:44:
                    f7:25:38:b1:cc:0a:1e:1d:a1:ad:0f:d0:af:b5:82:
                    41:06:c3:6b:1f:d4:6f:3d:12:26:55:95:ad:37:0f:
                    de:44:35:3e:55:40:e7:f3:e7:75:8e:c3:9a:fa:5e:
                    90:6f:4f:ef:bc:34:79:93:0b:f2:92:cf:de:bd:f2:
                    94:84:bd:fb:5e:e2:98:21:f8:70:ad:71:02:2d:c6:
                    57:77:e7:df:be:8b:2d:ef:47:8d:4c:26:9e:32:18:
                    70:ec:4a:cc:32:89:b4:4d:2f:c5:b0:68:bf:d2:45:
                    1b:02:8c:c4:80:d6:6b:de:67:83:f3:dd:20:d8:4e:
                    64:7c:07:2e:38:da:ae:e6:e6:41:ee:16:a4:cd:fd:
                    94:48:31:25:45:7f:90:0a:62:50:6a:f7:c6:af:9e:
                    ba:4e:8a:94:fc:40:36:5a:c0:07:e0:55:44:b4:15:
                    cb:97:dd:f4:35:e9:ed:c7:1f:09:43:a7:0e:10:c4:
                    e8:0e:45:5b:74:00:69:0a:cf:c3:c5:e4:1f:9e:3c:
                    5c:3b
                Exponent: 65537 (0x10001)
        X509v3 extensions:
            X509v3 Basic Constraints: 
                CA:FALSE
            X509v3 Subject Key Identifier: 
                DF:97:5B:AD:06:16:F6:8A:F4:7C:A2:5C:47:FE:BB:3F:5C:FE:C0:EC
            X509v3 Authority Key Identifier: 
                keyid:60:F7:96:17:3D:49:FD:0B:1F:96:F3:3C:2D:3F:79:82:C7:29:79:ED
                DirName:/CN=team221-net
                serial:1C:80:44:49:E3:6F:63:A1:5C:51:B0:81:50:51:BE:4A:CA:C0:31:BA
            X509v3 Extended Key Usage: 
                TLS Web Server Authentication
            X509v3 Key Usage: 
                Digital Signature, Key Encipherment
            X509v3 Subject Alternative Name: 
                DNS:team221-server
    Signature Algorithm: sha256WithRSAEncryption
    Signature Value:
        68:d8:e4:0b:f8:8a:9a:65:cb:03:6c:45:d6:8e:6d:0c:a9:3e:
        cb:5c:4d:44:c4:9c:fa:c0:1f:3c:77:dd:e3:f4:ce:55:73:9f:
        48:e2:54:e8:3b:9c:07:64:01:32:e9:33:5f:5c:d5:5a:da:31:
        30:43:3c:2a:de:d9:f7:99:e9:f1:b4:18:f3:46:f4:7c:57:f4:
        50:20:fd:a9:c7:75:64:97:46:b3:b7:a1:6d:11:ad:81:9a:81:
        1e:91:e0:0c:14:03:0b:b4:f2:6e:11:c8:b2:de:75:36:aa:f6:
        4f:b2:e9:c2:00:90:de:04:ce:6c:17:60:98:0b:cc:2a:5f:54:
        54:4b:08:9a:fb:b3:6b:10:52:23:7c:71:63:ba:6a:53:76:d2:
        c7:90:1b:79:c0:6b:93:5e:fa:77:1b:90:3e:fa:41:a4:f7:f7:
        c4:ee:e3:ad:74:76:79:89:29:21:59:4f:9e:e2:be:6e:d2:86:
        84:66:98:c4:8c:02:05:36:a8:d1:bf:bc:7b:19:13:21:78:e4:
        18:a7:ff:a0:4e:ea:12:38:a6:1a:83:f9:95:8b:63:5e:35:d9:
        33:71:60:18:20:a7:f7:53:f1:e3:9d:15:ad:3d:16:23:a9:1b:
        e2:d8:0c:d3:bc:23:46:a3:9e:fb:fc:ad:05:de:68:2a:a1:f2:
        bc:0a:37:fe
-----BEGIN CERTIFICATE-----
MIIDeDCCAmCgAwIBAgIRAJvixcUHr4tzI55v0cx9CUswDQYJKoZIhvcNAQELBQAw
FjEUMBIGA1UEAwwLdGVhbTIyMS1uZXQwHhcNMjMxMTA0MTEzMTU4WhcNMjYxMDE5
MTEzMTU4WjAZMRcwFQYDVQQDDA50ZWFtMjIxLXNlcnZlcjCCASIwDQYJKoZIhvcN
AQEBBQADggEPADCCAQoCggEBAJOBnI4WaDtoMMOW+nWmcUdjj5cfXkspkKe2+cfs
3rTgcpoN1dMlj0ryhUR+JSGnlsdikxvisCg+jbpE9yU4scwKHh2hrQ/Qr7WCQQbD
ax/Ubz0SJlWVrTcP3kQ1PlVA5/PndY7DmvpekG9P77w0eZML8pLP3r3ylIS9+17i
mCH4cK1xAi3GV3fn376LLe9HjUwmnjIYcOxKzDKJtE0vxbBov9JFGwKMxIDWa95n
g/PdINhOZHwHLjjarubmQe4WpM39lEgxJUV/kApiUGr3xq+euk6KlPxANlrAB+BV
RLQVy5fd9DXp7ccfCUOnDhDE6A5FW3QAaQrPw8XkH548XDsCAwEAAaOBvTCBujAJ
BgNVHRMEAjAAMB0GA1UdDgQWBBTfl1utBhb2ivR8olxH/rs/XP7A7DBRBgNVHSME
SjBIgBRg95YXPUn9Cx+W8zwtP3mCxyl57aEapBgwFjEUMBIGA1UEAwwLdGVhbTIy
MS1uZXSCFByAREnjb2OhXFGwgVBRvkrKwDG6MBMGA1UdJQQMMAoGCCsGAQUFBwMB
MAsGA1UdDwQEAwIFoDAZBgNVHREEEjAQgg50ZWFtMjIxLXNlcnZlcjANBgkqhkiG
9w0BAQsFAAOCAQEAaNjkC/iKmmXLA2xF1o5tDKk+y1xNRMSc+sAfPHfd4/TOVXOf
SOJU6DucB2QBMukzX1zVWtoxMEM8Kt7Z95np8bQY80b0fFf0UCD9qcd1ZJdGs7eh
bRGtgZqBHpHgDBQDC7TybhHIst51Nqr2T7LpwgCQ3gTObBdgmAvMKl9UVEsImvuz
axBSI3xxY7pqU3bSx5AbecBrk176dxuQPvpBpPf3xO7jrXR2eYkpIVlPnuK+btKG
hGaYxIwCBTao0b+8exkTIXjkGKf/oE7qEjimGoP5lYtjXjXZM3FgGCCn91Px450V
rT0WI6kb4tgM07wjRqOe+/ytBd5oKqHyvAo3/g==
-----END CERTIFICATE-----
