Certificate:
    Data:
        Version: 3 (0x2)
        Serial Number:
            ad:6f:1a:d6:d3:1a:75:47:82:68:6b:40:f0:13:b5:a6
        Signature Algorithm: sha256WithRSAEncryption
        Issuer: CN=team221-net
        Validity
            Not Before: Nov  4 10:44:47 2023 GMT
            Not After : Oct 19 10:44:47 2026 GMT
        Subject: CN=team221-server
        Subject Public Key Info:
            Public Key Algorithm: rsaEncryption
                Public-Key: (2048 bit)
                Modulus:
                    00:d8:37:8a:cb:eb:68:6b:ad:85:96:2f:98:93:10:
                    85:4f:e7:f1:ef:c9:2c:e1:72:06:20:13:51:80:bf:
                    21:93:ee:39:42:38:2d:4c:35:1d:cb:7c:dc:b5:be:
                    0f:cb:c8:6b:37:55:01:d6:ad:94:e2:d6:21:ff:7c:
                    7a:6b:8a:6e:d0:10:4d:fa:b5:e5:d3:99:bb:e6:bb:
                    66:7b:89:c7:6f:02:6f:09:b0:3c:7f:24:5d:c3:09:
                    87:ed:e0:65:6c:81:99:9e:74:af:0e:0f:02:29:c9:
                    9f:9a:10:aa:e8:72:96:85:af:70:f7:7c:51:b1:59:
                    f2:06:84:83:25:78:d4:f5:6d:01:96:80:a3:df:26:
                    67:ec:cb:6e:a7:1c:6a:64:78:db:14:aa:4e:bb:7e:
                    0a:0b:d0:ee:9c:66:d5:d0:e0:05:5a:fa:02:14:73:
                    01:9b:8b:ec:3d:60:6b:fa:bf:94:2a:0a:54:ee:14:
                    ce:b4:93:ae:f9:0b:f4:f8:e2:eb:d2:d5:1e:a9:bf:
                    62:14:26:19:40:e1:f5:b6:18:cb:d0:8c:df:e7:e5:
                    37:c5:d8:3c:f1:ea:25:3a:99:0a:b4:72:5e:96:4b:
                    dc:04:be:56:95:d9:66:46:74:dd:c5:c4:9e:f8:cb:
                    f7:cf:e6:e8:3a:a0:ef:3f:1f:11:b9:02:43:2d:f6:
                    d4:93
                Exponent: 65537 (0x10001)
        X509v3 extensions:
            X509v3 Basic Constraints: 
                CA:FALSE
            X509v3 Subject Key Identifier: 
                8F:15:B9:74:FC:53:1A:C5:B9:00:0E:EE:07:E4:FD:63:57:BB:B5:87
            X509v3 Authority Key Identifier: 
                keyid:27:55:DF:EA:5E:36:73:93:FD:E2:94:CC:09:BA:48:00:8F:F9:31:E0
                DirName:/CN=team221-net
                serial:7D:32:5A:01:EF:B6:39:AC:98:7E:EB:AB:5B:47:36:84:99:B8:CD:FD
            X509v3 Extended Key Usage: 
                TLS Web Server Authentication
            X509v3 Key Usage: 
                Digital Signature, Key Encipherment
            X509v3 Subject Alternative Name: 
                DNS:team221-server
    Signature Algorithm: sha256WithRSAEncryption
    Signature Value:
        4d:6c:7c:d7:55:9e:e7:a5:60:15:a5:b1:ab:f6:4c:aa:2f:9c:
        23:35:b0:4f:07:6e:16:5f:37:8a:2b:1f:6d:1e:23:8b:ab:42:
        d5:e7:0a:0d:d6:b2:2e:c6:4c:29:56:e0:99:d2:37:45:e4:55:
        71:e9:ee:3a:c5:9c:38:b1:4f:3b:c7:97:0c:84:24:a4:32:ab:
        4f:13:57:b3:1f:5d:02:3f:fe:46:08:ea:dd:b6:74:18:38:77:
        af:af:78:82:1a:46:a0:ab:a3:39:ff:95:31:9d:f4:9a:a6:71:
        c7:fe:42:d9:81:75:d8:1a:c0:ef:c9:c6:7c:f8:aa:85:e4:f9:
        6b:2f:eb:3e:9e:b8:f2:93:7e:a7:5f:26:c0:a5:9d:6a:d1:6b:
        fa:8a:6e:e2:a6:e2:2f:fe:07:c9:41:93:e5:8e:ae:4c:02:46:
        55:b2:09:34:c1:f8:29:c9:7a:0b:84:e8:a5:1c:3c:6d:04:02:
        84:aa:85:3f:de:dc:b0:94:b5:4a:d0:d2:69:e0:d5:18:d5:54:
        c3:d3:b7:c4:ba:36:66:af:4e:08:a1:78:c9:35:79:26:93:92:
        37:44:87:2f:24:39:23:e3:5b:ae:47:eb:e9:a8:f4:2c:ac:ba:
        5e:e4:25:78:57:ad:73:01:21:8c:f8:88:69:f6:b3:57:8b:d4:
        65:7e:b9:a3
-----BEGIN CERTIFICATE-----
MIIDeDCCAmCgAwIBAgIRAK1vGtbTGnVHgmhrQPATtaYwDQYJKoZIhvcNAQELBQAw
FjEUMBIGA1UEAwwLdGVhbTIyMS1uZXQwHhcNMjMxMTA0MTA0NDQ3WhcNMjYxMDE5
MTA0NDQ3WjAZMRcwFQYDVQQDDA50ZWFtMjIxLXNlcnZlcjCCASIwDQYJKoZIhvcN
AQEBBQADggEPADCCAQoCggEBANg3isvraGuthZYvmJMQhU/n8e/JLOFyBiATUYC/
IZPuOUI4LUw1Hct83LW+D8vIazdVAdatlOLWIf98emuKbtAQTfq15dOZu+a7ZnuJ
x28CbwmwPH8kXcMJh+3gZWyBmZ50rw4PAinJn5oQquhyloWvcPd8UbFZ8gaEgyV4
1PVtAZaAo98mZ+zLbqccamR42xSqTrt+CgvQ7pxm1dDgBVr6AhRzAZuL7D1ga/q/
lCoKVO4UzrSTrvkL9Pji69LVHqm/YhQmGUDh9bYYy9CM3+flN8XYPPHqJTqZCrRy
XpZL3AS+VpXZZkZ03cXEnvjL98/m6Dqg7z8fEbkCQy321JMCAwEAAaOBvTCBujAJ
BgNVHRMEAjAAMB0GA1UdDgQWBBSPFbl0/FMaxbkADu4H5P1jV7u1hzBRBgNVHSME
SjBIgBQnVd/qXjZzk/3ilMwJukgAj/kx4KEapBgwFjEUMBIGA1UEAwwLdGVhbTIy
MS1uZXSCFH0yWgHvtjmsmH7rq1tHNoSZuM39MBMGA1UdJQQMMAoGCCsGAQUFBwMB
MAsGA1UdDwQEAwIFoDAZBgNVHREEEjAQgg50ZWFtMjIxLXNlcnZlcjANBgkqhkiG
9w0BAQsFAAOCAQEATWx811We56VgFaWxq/ZMqi+cIzWwTwduFl83iisfbR4ji6tC
1ecKDdayLsZMKVbgmdI3ReRVcenuOsWcOLFPO8eXDIQkpDKrTxNXsx9dAj/+Rgjq
3bZ0GDh3r694ghpGoKujOf+VMZ30mqZxx/5C2YF12BrA78nGfPiqheT5ay/rPp64
8pN+p18mwKWdatFr+opu4qbiL/4HyUGT5Y6uTAJGVbIJNMH4Kcl6C4TopRw8bQQC
hKqFP97csJS1StDSaeDVGNVUw9O3xLo2Zq9OCKF4yTV5JpOSN0SHLyQ5I+Nbrkfr
6aj0LKy6XuQleFetcwEhjPiIafazV4vUZX65ow==
-----END CERTIFICATE-----
