Certificate:
    Data:
        Version: 3 (0x2)
        Serial Number:
            ba:df:40:61:ae:fb:88:e3:ee:be:85:ab:dd:41:de:99
        Signature Algorithm: sha256WithRSAEncryption
        Issuer: CN=team221-net
        Validity
            Not Before: Nov  3 20:43:22 2023 GMT
            Not After : Oct 18 20:43:22 2026 GMT
        Subject: CN=team221-server
        Subject Public Key Info:
            Public Key Algorithm: rsaEncryption
                Public-Key: (2048 bit)
                Modulus:
                    00:cb:96:b6:c1:7b:dc:1f:b1:bc:9c:e3:32:30:df:
                    a0:a8:a7:e0:3f:f6:5d:e2:54:ef:42:80:11:e3:8a:
                    25:2b:43:0b:55:b5:6c:2e:45:3b:bc:1e:38:2f:1a:
                    ab:0c:d2:d7:95:c1:dd:34:1e:e7:10:aa:46:4f:01:
                    65:85:da:5f:e8:bd:43:5e:d0:88:7a:9c:f8:7d:cf:
                    27:33:d0:76:1f:b6:59:79:c0:05:86:18:23:a2:89:
                    42:17:3e:8e:15:a0:ba:ca:54:ab:58:fd:a2:10:69:
                    c3:ec:ee:a7:42:fe:16:55:5b:9d:25:94:37:ed:27:
                    48:01:29:c8:66:2e:70:a4:af:ef:f6:69:f8:75:d2:
                    45:5a:e8:a1:56:22:dc:d6:2e:db:63:d3:7d:16:32:
                    7c:48:cd:5c:da:f6:4e:57:00:ca:02:16:f5:d3:f4:
                    9c:af:a8:47:ce:52:6a:ce:09:35:cc:3c:db:f9:ae:
                    75:2d:73:a0:e4:39:23:a8:56:0a:91:6d:76:4c:7a:
                    56:78:15:32:1f:19:b7:fb:75:e7:23:f7:84:ac:69:
                    02:fc:bc:3c:f1:d2:41:d9:26:f1:d0:46:60:20:87:
                    9e:0e:45:59:20:e7:97:21:dd:16:42:ab:60:0d:87:
                    e4:b2:9e:bf:86:e1:0a:00:00:93:30:ed:f7:1f:72:
                    13:41
                Exponent: 65537 (0x10001)
        X509v3 extensions:
            X509v3 Basic Constraints: 
                CA:FALSE
            X509v3 Subject Key Identifier: 
                D8:B5:7B:AD:09:C2:1E:77:76:CB:49:43:39:BB:90:47:FC:91:95:F4
            X509v3 Authority Key Identifier: 
                keyid:D4:93:A4:DD:21:7F:78:66:31:8F:37:08:7A:04:27:2B:B7:F5:BB:C9
                DirName:/CN=team221-net
                serial:04:31:C9:4B:EB:4C:73:43:15:CD:F3:7A:2D:EF:2F:CF:0B:0B:4F:89
            X509v3 Extended Key Usage: 
                TLS Web Server Authentication
            X509v3 Key Usage: 
                Digital Signature, Key Encipherment
            X509v3 Subject Alternative Name: 
                DNS:team221-server
    Signature Algorithm: sha256WithRSAEncryption
    Signature Value:
        32:b6:df:bb:28:a8:ab:10:11:a7:e7:04:b9:a3:37:2d:cb:31:
        5e:e3:12:8c:f7:36:f5:01:08:3c:7e:38:14:32:4e:5e:11:c9:
        05:80:fd:d1:26:07:42:53:59:d7:69:aa:d9:c7:60:7d:b5:e5:
        63:04:0b:5a:10:9c:62:94:60:d4:6e:15:82:7a:61:6f:65:81:
        52:90:50:ba:d1:b9:19:9c:dc:35:fa:8a:70:94:be:fc:eb:fc:
        11:3d:35:94:31:9b:e9:4b:37:4b:8b:c3:7b:ba:56:85:2a:54:
        48:b9:6d:5f:02:f6:53:94:de:c1:3e:6c:d8:d1:bf:3f:03:75:
        9a:1d:e1:a0:22:cc:cd:43:03:be:19:ee:84:5e:c8:09:05:f3:
        8d:ae:b9:52:c7:09:1e:ad:5a:6e:bb:aa:fd:7a:f1:aa:8f:5c:
        6e:ef:cb:0a:73:05:1f:03:2c:90:cf:0e:11:94:00:b8:db:21:
        f1:8f:bc:97:b2:f5:97:6b:a1:69:1c:d1:a9:6a:79:71:19:a7:
        45:ea:01:74:f2:4b:3b:9f:3a:67:c8:98:4a:00:51:ef:84:a8:
        28:3f:93:70:36:c2:39:a1:d5:21:e3:c5:df:fd:28:eb:0d:14:
        ab:34:74:26:47:c9:d5:18:88:8f:a4:29:5e:e4:7c:bb:b3:e6:
        fd:22:4b:04
-----BEGIN CERTIFICATE-----
MIIDeDCCAmCgAwIBAgIRALrfQGGu+4jj7r6Fq91B3pkwDQYJKoZIhvcNAQELBQAw
FjEUMBIGA1UEAwwLdGVhbTIyMS1uZXQwHhcNMjMxMTAzMjA0MzIyWhcNMjYxMDE4
MjA0MzIyWjAZMRcwFQYDVQQDDA50ZWFtMjIxLXNlcnZlcjCCASIwDQYJKoZIhvcN
AQEBBQADggEPADCCAQoCggEBAMuWtsF73B+xvJzjMjDfoKin4D/2XeJU70KAEeOK
JStDC1W1bC5FO7weOC8aqwzS15XB3TQe5xCqRk8BZYXaX+i9Q17QiHqc+H3PJzPQ
dh+2WXnABYYYI6KJQhc+jhWguspUq1j9ohBpw+zup0L+FlVbnSWUN+0nSAEpyGYu
cKSv7/Zp+HXSRVrooVYi3NYu22PTfRYyfEjNXNr2TlcAygIW9dP0nK+oR85Sas4J
Ncw82/mudS1zoOQ5I6hWCpFtdkx6VngVMh8Zt/t15yP3hKxpAvy8PPHSQdkm8dBG
YCCHng5FWSDnlyHdFkKrYA2H5LKev4bhCgAAkzDt9x9yE0ECAwEAAaOBvTCBujAJ
BgNVHRMEAjAAMB0GA1UdDgQWBBTYtXutCcIed3bLSUM5u5BH/JGV9DBRBgNVHSME
SjBIgBTUk6TdIX94ZjGPNwh6BCcrt/W7yaEapBgwFjEUMBIGA1UEAwwLdGVhbTIy
MS1uZXSCFAQxyUvrTHNDFc3zei3vL88LC0+JMBMGA1UdJQQMMAoGCCsGAQUFBwMB
MAsGA1UdDwQEAwIFoDAZBgNVHREEEjAQgg50ZWFtMjIxLXNlcnZlcjANBgkqhkiG
9w0BAQsFAAOCAQEAMrbfuyioqxARp+cEuaM3LcsxXuMSjPc29QEIPH44FDJOXhHJ
BYD90SYHQlNZ12mq2cdgfbXlYwQLWhCcYpRg1G4Vgnphb2WBUpBQutG5GZzcNfqK
cJS+/Ov8ET01lDGb6Us3S4vDe7pWhSpUSLltXwL2U5TewT5s2NG/PwN1mh3hoCLM
zUMDvhnuhF7ICQXzja65UscJHq1abruq/Xrxqo9cbu/LCnMFHwMskM8OEZQAuNsh
8Y+8l7L1l2uhaRzRqWp5cRmnReoBdPJLO586Z8iYSgBR74SoKD+TcDbCOaHVIePF
3/0o6w0UqzR0JkfJ1RiIj6QpXuR8u7Pm/SJLBA==
-----END CERTIFICATE-----
