Certificate:
    Data:
        Version: 3 (0x2)
        Serial Number:
            be:03:2f:56:77:ba:49:07:99:93:69:41:b7:57:13:2e
        Signature Algorithm: sha256WithRSAEncryption
        Issuer: CN=team221-net
        Validity
            Not Before: Nov  4 10:44:46 2023 GMT
            Not After : Oct 19 10:44:46 2026 GMT
        Subject: CN=team221-client
        Subject Public Key Info:
            Public Key Algorithm: rsaEncryption
                Public-Key: (2048 bit)
                Modulus:
                    00:d9:1b:1f:ef:32:ee:90:0e:f6:1f:de:df:66:35:
                    7c:3f:3b:8c:7d:83:de:68:e7:b4:31:77:7e:e6:85:
                    66:1a:19:8f:80:5b:0e:a4:75:fb:ff:e4:ec:93:19:
                    f6:5b:53:d0:9d:34:07:06:6e:7c:b0:98:46:13:c7:
                    7a:e5:60:4e:74:b4:70:c4:81:82:f8:00:fa:e4:d6:
                    38:71:a6:eb:03:b3:22:70:c0:85:a5:bd:67:09:5f:
                    69:98:cd:b2:66:63:d8:25:d5:b5:7e:c4:d3:24:82:
                    dd:78:4f:77:81:36:30:b0:d0:48:39:99:1c:d3:7c:
                    9e:ec:dd:15:18:2d:11:82:80:58:db:c0:d5:2d:13:
                    96:38:d1:48:3a:15:c4:91:4d:40:74:df:a7:29:21:
                    28:e6:7a:0b:de:a7:2e:45:a0:34:44:9a:e4:8e:d3:
                    c6:49:7a:cc:0c:1b:6f:f4:b6:b1:e4:7b:01:7d:78:
                    49:5b:d8:84:9a:bc:ae:4d:d6:b6:96:0d:f5:7e:7a:
                    d1:3c:40:53:b2:58:87:39:ac:54:50:94:b4:30:be:
                    b7:97:2c:98:46:5c:84:ff:f4:d3:39:63:22:be:80:
                    ab:aa:90:0a:22:26:80:61:4e:7d:6e:22:a2:b0:7f:
                    2e:2b:9a:f1:23:7c:55:4c:98:b1:f2:9d:6e:ff:cb:
                    0c:83
                Exponent: 65537 (0x10001)
        X509v3 extensions:
            X509v3 Basic Constraints: 
                CA:FALSE
            X509v3 Subject Key Identifier: 
                94:D2:32:E6:C0:90:97:70:E9:A4:9D:4A:97:47:56:25:45:98:BA:D0
            X509v3 Authority Key Identifier: 
                keyid:27:55:DF:EA:5E:36:73:93:FD:E2:94:CC:09:BA:48:00:8F:F9:31:E0
                DirName:/CN=team221-net
                serial:7D:32:5A:01:EF:B6:39:AC:98:7E:EB:AB:5B:47:36:84:99:B8:CD:FD
            X509v3 Extended Key Usage: 
                TLS Web Client Authentication
            X509v3 Key Usage: 
                Digital Signature
    Signature Algorithm: sha256WithRSAEncryption
    Signature Value:
        48:67:00:35:29:a8:68:bf:fd:61:c7:bc:6c:96:18:37:0a:bd:
        7a:9f:6e:16:b8:08:f5:c4:5f:07:4c:ef:b3:73:b7:b3:ed:4b:
        8d:3b:15:15:5b:d8:30:e0:cd:67:29:5a:98:a8:e8:30:59:74:
        96:91:1f:f3:94:f9:9a:40:30:1c:f9:3f:3f:a7:2f:60:c2:ab:
        e8:0f:e6:e4:44:e7:2c:81:06:fc:0e:bd:e4:fd:64:6a:ce:b8:
        78:6e:cf:39:9f:9b:3f:00:eb:23:d3:38:9f:b1:b1:0a:2d:23:
        76:94:f8:25:41:ee:ef:9b:f4:b0:9b:16:64:a1:0c:0a:51:0c:
        74:79:49:09:01:e2:f5:31:d3:9d:bf:aa:4a:c2:af:7f:da:30:
        90:54:4a:78:75:49:19:cd:c4:78:c9:80:82:2d:55:a7:e8:96:
        02:79:79:cb:de:ad:1b:25:6b:63:24:ea:70:8f:52:ff:e5:eb:
        c8:73:81:9f:e5:32:9e:25:77:58:1d:3e:1f:69:1f:53:86:b1:
        dd:76:ce:d0:82:e4:9d:c2:4b:65:3d:f7:1f:72:d4:82:d8:28:
        4d:40:42:d8:c4:f5:d1:45:72:d7:2e:83:41:dc:72:22:c2:e8:
        33:7e:67:94:93:5f:90:0d:fa:84:3d:2d:24:54:a2:65:dc:b0:
        54:9e:f3:af
-----BEGIN CERTIFICATE-----
MIIDXTCCAkWgAwIBAgIRAL4DL1Z3ukkHmZNpQbdXEy4wDQYJKoZIhvcNAQELBQAw
FjEUMBIGA1UEAwwLdGVhbTIyMS1uZXQwHhcNMjMxMTA0MTA0NDQ2WhcNMjYxMDE5
MTA0NDQ2WjAZMRcwFQYDVQQDDA50ZWFtMjIxLWNsaWVudDCCASIwDQYJKoZIhvcN
AQEBBQADggEPADCCAQoCggEBANkbH+8y7pAO9h/e32Y1fD87jH2D3mjntDF3fuaF
ZhoZj4BbDqR1+//k7JMZ9ltT0J00BwZufLCYRhPHeuVgTnS0cMSBgvgA+uTWOHGm
6wOzInDAhaW9ZwlfaZjNsmZj2CXVtX7E0ySC3XhPd4E2MLDQSDmZHNN8nuzdFRgt
EYKAWNvA1S0TljjRSDoVxJFNQHTfpykhKOZ6C96nLkWgNESa5I7Txkl6zAwbb/S2
seR7AX14SVvYhJq8rk3WtpYN9X560TxAU7JYhzmsVFCUtDC+t5csmEZchP/00zlj
Ir6Aq6qQCiImgGFOfW4iorB/Liua8SN8VUyYsfKdbv/LDIMCAwEAAaOBojCBnzAJ
BgNVHRMEAjAAMB0GA1UdDgQWBBSU0jLmwJCXcOmknUqXR1YlRZi60DBRBgNVHSME
SjBIgBQnVd/qXjZzk/3ilMwJukgAj/kx4KEapBgwFjEUMBIGA1UEAwwLdGVhbTIy
MS1uZXSCFH0yWgHvtjmsmH7rq1tHNoSZuM39MBMGA1UdJQQMMAoGCCsGAQUFBwMC
MAsGA1UdDwQEAwIHgDANBgkqhkiG9w0BAQsFAAOCAQEASGcANSmoaL/9Yce8bJYY
Nwq9ep9uFrgI9cRfB0zvs3O3s+1LjTsVFVvYMODNZylamKjoMFl0lpEf85T5mkAw
HPk/P6cvYMKr6A/m5ETnLIEG/A695P1kas64eG7POZ+bPwDrI9M4n7GxCi0jdpT4
JUHu75v0sJsWZKEMClEMdHlJCQHi9THTnb+qSsKvf9owkFRKeHVJGc3EeMmAgi1V
p+iWAnl5y96tGyVrYyTqcI9S/+XryHOBn+UyniV3WB0+H2kfU4ax3XbO0ILkncJL
ZT33H3LUgtgoTUBC2MT10UVy1y6DQdxyIsLoM35nlJNfkA36hD0tJFSiZdywVJ7z
rw==
-----END CERTIFICATE-----
