Certificate:
    Data:
        Version: 3 (0x2)
        Serial Number:
            10:95:19:76:0a:8e:1d:6d:6e:90:eb:72:91:75:ce:4d
        Signature Algorithm: sha256WithRSAEncryption
        Issuer: CN=team220-net
        Validity
            Not Before: Nov  3 20:43:20 2023 GMT
            Not After : Oct 18 20:43:20 2026 GMT
        Subject: CN=team220-server
        Subject Public Key Info:
            Public Key Algorithm: rsaEncryption
                Public-Key: (2048 bit)
                Modulus:
                    00:ae:74:3c:7a:80:d0:dc:99:73:47:5b:7a:ee:b6:
                    4d:28:83:e0:6c:52:0c:8a:4e:93:f1:a7:c2:48:7b:
                    ba:87:b6:ee:4b:92:06:90:e8:f9:be:d7:20:35:95:
                    17:e3:d7:d3:c4:9f:b2:18:46:62:63:1a:07:69:36:
                    1c:59:74:fa:c9:f5:d3:f6:2d:2f:c5:fd:8e:1b:c8:
                    90:87:35:2d:74:b9:4f:fa:cc:74:f0:0d:08:f7:eb:
                    f8:ab:66:76:27:7d:1d:1d:cd:6b:ee:35:21:f9:61:
                    7d:df:02:92:3b:52:e5:80:4d:c1:85:26:f9:61:1b:
                    45:69:61:98:36:be:d3:33:20:aa:d7:b7:a5:44:ee:
                    21:d9:94:b7:5c:1d:0f:23:d1:c8:5e:7b:ac:e8:21:
                    8e:61:0c:69:94:38:1b:1e:9b:46:c3:38:fe:99:07:
                    6e:39:d6:1d:87:1a:e8:4d:7f:b7:1c:5d:13:87:34:
                    37:74:51:67:72:c7:00:95:7f:33:be:b7:1d:c7:a0:
                    7d:f7:0c:04:f6:33:de:f5:f0:12:07:68:d7:ee:38:
                    92:6d:1c:08:4a:68:e9:4f:75:91:d9:80:39:f5:8c:
                    cd:83:3f:2b:08:ae:b5:bf:4b:cb:69:ef:21:ab:f8:
                    72:17:e9:60:01:dc:f7:80:33:91:d2:11:f3:21:46:
                    a5:c5
                Exponent: 65537 (0x10001)
        X509v3 extensions:
            X509v3 Basic Constraints: 
                CA:FALSE
            X509v3 Subject Key Identifier: 
                91:64:51:30:4A:5F:31:B0:B2:1E:0E:E4:35:00:7D:92:B1:D4:8D:9C
            X509v3 Authority Key Identifier: 
                keyid:83:6A:5C:CD:D4:B9:14:3D:9D:47:F8:45:05:8C:40:2F:34:6C:49:E5
                DirName:/CN=team220-net
                serial:5C:33:D5:ED:B5:C2:64:FC:B3:C5:12:20:59:9C:53:07:0B:89:6E:09
            X509v3 Extended Key Usage: 
                TLS Web Server Authentication
            X509v3 Key Usage: 
                Digital Signature, Key Encipherment
            X509v3 Subject Alternative Name: 
                DNS:team220-server
    Signature Algorithm: sha256WithRSAEncryption
    Signature Value:
        4f:23:6d:8f:d3:ec:14:db:22:9d:57:80:e6:1a:74:37:8a:b4:
        77:ec:8c:e1:88:43:67:be:f1:bf:fa:e7:fa:d9:98:95:d6:25:
        fc:b4:97:65:6b:e7:de:f7:03:e8:c0:8c:65:58:c7:5c:1b:fd:
        ea:4e:2a:59:02:d3:d1:c8:a9:ac:bf:09:82:ed:87:d3:fd:d3:
        08:84:ef:bc:14:11:aa:b6:35:9e:26:5c:76:5d:74:af:79:f1:
        95:18:7c:d0:44:56:46:53:c9:c9:06:2b:fb:a3:cc:21:ae:ae:
        b0:3b:c0:98:e1:e1:3e:8c:bb:d6:58:eb:2e:be:a4:70:5a:a9:
        70:56:a4:03:09:2b:e6:22:a1:6f:46:6a:41:89:f6:b2:45:75:
        1a:4c:ba:30:6b:16:bb:b4:b8:40:3d:f4:4e:35:c9:53:1b:b0:
        24:44:a8:9a:bf:30:16:7a:a2:f2:56:a2:fb:50:5b:b1:17:8f:
        58:53:62:53:83:ae:a6:19:70:64:7a:e2:bc:43:5f:8b:62:f7:
        1b:b6:d8:fd:1e:68:07:ee:c8:00:2b:a2:aa:0f:b7:64:7b:2f:
        3e:18:ad:82:c4:74:b1:e9:ad:15:e9:d3:95:67:7a:ea:d3:e8:
        25:1a:3b:03:ea:25:2a:b1:7d:3a:88:85:2b:a2:cf:e8:a4:a0:
        06:13:af:53
-----BEGIN CERTIFICATE-----
MIIDdzCCAl+gAwIBAgIQEJUZdgqOHW1ukOtykXXOTTANBgkqhkiG9w0BAQsFADAW
MRQwEgYDVQQDDAt0ZWFtMjIwLW5ldDAeFw0yMzExMDMyMDQzMjBaFw0yNjEwMTgy
MDQzMjBaMBkxFzAVBgNVBAMMDnRlYW0yMjAtc2VydmVyMIIBIjANBgkqhkiG9w0B
AQEFAAOCAQ8AMIIBCgKCAQEArnQ8eoDQ3JlzR1t67rZNKIPgbFIMik6T8afCSHu6
h7buS5IGkOj5vtcgNZUX49fTxJ+yGEZiYxoHaTYcWXT6yfXT9i0vxf2OG8iQhzUt
dLlP+sx08A0I9+v4q2Z2J30dHc1r7jUh+WF93wKSO1LlgE3BhSb5YRtFaWGYNr7T
MyCq17elRO4h2ZS3XB0PI9HIXnus6CGOYQxplDgbHptGwzj+mQduOdYdhxroTX+3
HF0ThzQ3dFFncscAlX8zvrcdx6B99wwE9jPe9fASB2jX7jiSbRwISmjpT3WR2YA5
9YzNgz8rCK61v0vLae8hq/hyF+lgAdz3gDOR0hHzIUalxQIDAQABo4G9MIG6MAkG
A1UdEwQCMAAwHQYDVR0OBBYEFJFkUTBKXzGwsh4O5DUAfZKx1I2cMFEGA1UdIwRK
MEiAFINqXM3UuRQ9nUf4RQWMQC80bEnloRqkGDAWMRQwEgYDVQQDDAt0ZWFtMjIw
LW5ldIIUXDPV7bXCZPyzxRIgWZxTBwuJbgkwEwYDVR0lBAwwCgYIKwYBBQUHAwEw
CwYDVR0PBAQDAgWgMBkGA1UdEQQSMBCCDnRlYW0yMjAtc2VydmVyMA0GCSqGSIb3
DQEBCwUAA4IBAQBPI22P0+wU2yKdV4DmGnQ3irR37IzhiENnvvG/+uf62ZiV1iX8
tJdla+fe9wPowIxlWMdcG/3qTipZAtPRyKmsvwmC7YfT/dMIhO+8FBGqtjWeJlx2
XXSvefGVGHzQRFZGU8nJBiv7o8whrq6wO8CY4eE+jLvWWOsuvqRwWqlwVqQDCSvm
IqFvRmpBifayRXUaTLowaxa7tLhAPfRONclTG7AkRKiavzAWeqLyVqL7UFuxF49Y
U2JTg66mGXBkeuK8Q1+LYvcbttj9HmgH7sgAK6KqD7dkey8+GK2CxHSx6a0V6dOV
Z3rq0+glGjsD6iUqsX06iIUros/opKAGE69T
-----END CERTIFICATE-----
