Certificate:
    Data:
        Version: 3 (0x2)
        Serial Number:
            1a:c4:ee:6a:31:5a:80:00:39:d0:e9:29:1a:60:5d:a2
        Signature Algorithm: sha256WithRSAEncryption
        Issuer: CN=team220-net
        Validity
            Not Before: Nov  4 11:31:56 2023 GMT
            Not After : Oct 19 11:31:56 2026 GMT
        Subject: CN=team220-client
        Subject Public Key Info:
            Public Key Algorithm: rsaEncryption
                Public-Key: (2048 bit)
                Modulus:
                    00:b9:8b:c1:c4:59:d8:ef:ca:96:72:76:fc:c1:d2:
                    da:30:68:a2:39:a6:20:82:74:73:b5:1c:71:3b:37:
                    af:1d:8b:9d:d6:c0:6b:8a:01:bd:2f:c6:a0:18:6e:
                    e9:b0:3a:99:5c:35:0f:eb:07:a1:c9:93:db:dc:6f:
                    6d:ed:da:b1:42:0d:7a:4f:1b:03:ce:82:e2:31:6a:
                    bf:e9:ec:76:64:98:ca:33:75:64:1c:d9:3f:8a:10:
                    f5:66:92:ca:7d:8a:ba:e5:73:45:4f:c3:fb:cc:49:
                    ff:94:ec:54:b3:30:67:f9:18:5f:56:8a:07:3c:aa:
                    7c:13:ea:2d:a5:75:49:09:fc:3d:22:35:99:5e:b6:
                    68:b7:17:a4:28:c6:f9:2f:6b:f4:09:5b:a8:d1:80:
                    1b:fc:9d:f2:44:b3:f9:17:0a:fa:8e:bc:d4:5d:e6:
                    52:f4:2c:ac:5d:b3:1a:e4:14:7d:52:c8:59:7e:33:
                    40:6b:00:1b:d4:20:f8:ab:10:e2:80:eb:39:96:c8:
                    4f:bf:81:19:a7:0d:56:40:91:5e:a9:ba:a0:a5:20:
                    2e:67:b1:21:12:a6:d4:45:8d:69:be:1a:36:92:ed:
                    22:e4:d0:23:44:7a:7e:c7:10:db:f0:86:cf:04:03:
                    cb:cf:4b:99:10:03:86:9c:ce:9c:68:07:9b:fc:b7:
                    28:83
                Exponent: 65537 (0x10001)
        X509v3 extensions:
            X509v3 Basic Constraints: 
                CA:FALSE
            X509v3 Subject Key Identifier: 
                23:71:3F:3A:69:D8:5F:D8:EB:94:9B:DB:F0:8C:A4:75:22:23:56:FA
            X509v3 Authority Key Identifier: 
                keyid:97:D2:3A:92:7C:86:F4:86:CC:F8:93:5C:30:3A:FF:41:31:36:1A:4E
                DirName:/CN=team220-net
                serial:06:37:69:D4:00:96:EC:CE:95:56:1B:1F:69:A6:25:12:F5:DD:01:3A
            X509v3 Extended Key Usage: 
                TLS Web Client Authentication
            X509v3 Key Usage: 
                Digital Signature
    Signature Algorithm: sha256WithRSAEncryption
    Signature Value:
        55:ce:63:79:7e:75:30:26:64:f7:cd:b8:9d:ef:cc:63:37:21:
        d2:18:d2:0b:b2:a4:31:ec:c4:3a:78:00:9e:cb:86:90:7b:7f:
        f4:31:28:70:ab:b3:52:fe:1b:42:83:10:8f:5f:cc:0c:0f:dd:
        3b:ec:b7:23:19:a4:88:c8:2e:df:73:0a:98:17:85:92:28:72:
        fc:3a:e3:45:22:51:f3:27:f5:99:2e:ad:a6:7b:f3:b5:3f:49:
        fe:4b:96:8a:85:cc:45:ef:3e:fa:ba:4d:3c:19:f8:9e:bb:86:
        b7:99:9a:3d:ad:d2:1c:4f:c6:6c:74:ef:45:cc:3a:45:ff:78:
        fe:c2:d9:2e:93:32:b4:8a:33:9e:31:38:73:cd:b6:94:67:1c:
        f6:b0:b8:5e:91:c8:54:fe:65:2a:ff:c8:47:89:70:a2:5a:81:
        d0:04:ca:5f:52:4b:94:e5:41:5f:41:a9:3b:9c:59:41:72:38:
        dc:8c:1c:9b:54:46:d7:d5:36:01:11:9e:43:ec:f4:a0:5a:67:
        7f:3b:03:b8:a0:32:8e:d5:41:1d:82:71:d8:76:52:a1:c7:d9:
        7e:5d:12:64:8e:0a:05:98:b8:27:ec:41:ef:c9:ef:d2:a5:be:
        28:95:66:65:12:d5:44:f6:cf:fc:3a:4d:72:e9:2c:ff:ef:b4:
        c1:6f:74:61
-----BEGIN CERTIFICATE-----
MIIDXDCCAkSgAwIBAgIQGsTuajFagAA50OkpGmBdojANBgkqhkiG9w0BAQsFADAW
MRQwEgYDVQQDDAt0ZWFtMjIwLW5ldDAeFw0yMzExMDQxMTMxNTZaFw0yNjEwMTkx
MTMxNTZaMBkxFzAVBgNVBAMMDnRlYW0yMjAtY2xpZW50MIIBIjANBgkqhkiG9w0B
AQEFAAOCAQ8AMIIBCgKCAQEAuYvBxFnY78qWcnb8wdLaMGiiOaYggnRztRxxOzev
HYud1sBrigG9L8agGG7psDqZXDUP6wehyZPb3G9t7dqxQg16TxsDzoLiMWq/6ex2
ZJjKM3VkHNk/ihD1ZpLKfYq65XNFT8P7zEn/lOxUszBn+RhfVooHPKp8E+otpXVJ
Cfw9IjWZXrZotxekKMb5L2v0CVuo0YAb/J3yRLP5Fwr6jrzUXeZS9CysXbMa5BR9
UshZfjNAawAb1CD4qxDigOs5lshPv4EZpw1WQJFeqbqgpSAuZ7EhEqbURY1pvho2
ku0i5NAjRHp+xxDb8IbPBAPLz0uZEAOGnM6caAeb/LcogwIDAQABo4GiMIGfMAkG
A1UdEwQCMAAwHQYDVR0OBBYEFCNxPzpp2F/Y65Sb2/CMpHUiI1b6MFEGA1UdIwRK
MEiAFJfSOpJ8hvSGzPiTXDA6/0ExNhpOoRqkGDAWMRQwEgYDVQQDDAt0ZWFtMjIw
LW5ldIIUBjdp1ACW7M6VVhsfaaYlEvXdATowEwYDVR0lBAwwCgYIKwYBBQUHAwIw
CwYDVR0PBAQDAgeAMA0GCSqGSIb3DQEBCwUAA4IBAQBVzmN5fnUwJmT3zbid78xj
NyHSGNILsqQx7MQ6eACey4aQe3/0MShwq7NS/htCgxCPX8wMD9077LcjGaSIyC7f
cwqYF4WSKHL8OuNFIlHzJ/WZLq2me/O1P0n+S5aKhcxF7z76uk08Gfieu4a3mZo9
rdIcT8ZsdO9FzDpF/3j+wtkukzK0ijOeMThzzbaUZxz2sLhekchU/mUq/8hHiXCi
WoHQBMpfUkuU5UFfQak7nFlBcjjcjBybVEbX1TYBEZ5D7PSgWmd/OwO4oDKO1UEd
gnHYdlKhx9l+XRJkjgoFmLgn7EHvye/Spb4olWZlEtVE9s/8Ok1y6Sz/77TBb3Rh
-----END CERTIFICATE-----
