Certificate:
    Data:
        Version: 3 (0x2)
        Serial Number:
            70:6b:ff:c0:37:f7:c5:db:4a:4a:3d:68:82:ae:f9:26
        Signature Algorithm: sha256WithRSAEncryption
        Issuer: CN=team220-net
        Validity
            Not Before: Nov  4 11:31:57 2023 GMT
            Not After : Oct 19 11:31:57 2026 GMT
        Subject: CN=team220-server
        Subject Public Key Info:
            Public Key Algorithm: rsaEncryption
                Public-Key: (2048 bit)
                Modulus:
                    00:b1:41:c0:76:31:5b:46:36:77:b9:15:90:37:66:
                    0f:c5:61:6a:2b:5c:08:a5:25:32:de:69:49:43:7b:
                    91:e6:22:7d:a6:be:32:45:54:9f:43:6e:55:8e:79:
                    98:6a:03:fa:7f:d9:06:15:e6:37:e9:01:36:d5:1e:
                    6e:a9:7a:bb:ef:33:83:87:6d:a3:ba:f4:21:8c:fe:
                    b5:27:3c:41:57:18:ee:27:6d:a2:27:07:3b:d6:88:
                    63:46:b6:ab:94:73:cb:c7:d3:9c:df:fa:4d:8a:11:
                    e1:ce:72:22:7b:b6:4f:59:ff:12:ec:a9:92:7d:11:
                    e0:af:12:81:ee:98:fb:47:0f:5e:1d:12:94:73:92:
                    7a:c5:4e:d4:ef:ec:a1:d3:d3:29:79:1e:b2:54:93:
                    a3:36:1c:4d:42:65:da:ab:24:2f:a5:6e:1e:e4:9b:
                    c9:8e:1c:6c:73:44:59:aa:28:eb:ee:09:88:84:81:
                    db:99:61:2a:b8:fc:9a:5f:c4:1c:66:26:19:94:81:
                    3b:78:29:a0:85:1b:78:66:7a:92:1b:c0:35:60:e1:
                    38:23:30:0c:de:a1:1d:dc:23:39:dd:10:94:16:ed:
                    d9:b2:4f:00:6e:d2:e3:16:bf:6f:72:7f:28:06:fe:
                    74:f6:b5:b9:55:e6:5d:b9:36:f8:74:21:c4:85:11:
                    d3:4f
                Exponent: 65537 (0x10001)
        X509v3 extensions:
            X509v3 Basic Constraints: 
                CA:FALSE
            X509v3 Subject Key Identifier: 
                68:4E:A9:74:7E:FA:C5:44:5B:8D:53:05:1D:4E:2D:09:D5:EC:86:86
            X509v3 Authority Key Identifier: 
                keyid:97:D2:3A:92:7C:86:F4:86:CC:F8:93:5C:30:3A:FF:41:31:36:1A:4E
                DirName:/CN=team220-net
                serial:06:37:69:D4:00:96:EC:CE:95:56:1B:1F:69:A6:25:12:F5:DD:01:3A
            X509v3 Extended Key Usage: 
                TLS Web Server Authentication
            X509v3 Key Usage: 
                Digital Signature, Key Encipherment
            X509v3 Subject Alternative Name: 
                DNS:team220-server
    Signature Algorithm: sha256WithRSAEncryption
    Signature Value:
        84:2f:5f:c1:bd:0d:20:49:58:b5:9d:46:c2:5f:80:1c:73:36:
        54:98:59:75:b6:c8:80:f5:86:76:c0:94:bf:a5:43:1c:fe:76:
        77:3f:f9:eb:4e:e3:13:ca:e5:ab:52:03:d6:5c:c2:9a:49:dc:
        ac:c8:45:08:b1:4b:ca:ba:be:59:3a:3b:e3:b8:c6:9f:41:f4:
        9e:66:e2:67:24:76:fa:8d:53:cc:2a:d1:aa:3e:52:7d:2a:53:
        b4:8b:08:90:3a:08:98:fd:bd:80:ff:54:2c:da:51:85:90:1e:
        28:32:01:f7:eb:9c:a7:d4:11:7d:07:a1:24:65:dc:2e:17:44:
        d6:1d:c0:5b:5f:74:40:43:34:ea:92:fd:96:b0:97:1f:05:51:
        87:c0:44:26:d8:99:0f:45:38:62:ef:f4:6f:60:1a:50:75:54:
        8f:dc:4f:e4:df:ad:87:f2:78:11:ea:ec:e9:09:0f:27:e4:0d:
        60:16:63:87:f3:03:c3:56:08:9a:23:09:b5:86:eb:ae:31:ca:
        65:a5:f6:2b:be:f5:02:e7:c8:bd:3a:e7:dc:88:38:da:c1:78:
        b1:6b:84:de:b1:4a:cc:74:cf:08:03:56:e8:c2:2a:32:b5:f5:
        c2:66:07:a4:9f:04:76:84:eb:33:be:ee:60:e9:2f:1f:b2:ec:
        f3:b4:fe:d2
-----BEGIN CERTIFICATE-----
MIIDdzCCAl+gAwIBAgIQcGv/wDf3xdtKSj1ogq75JjANBgkqhkiG9w0BAQsFADAW
MRQwEgYDVQQDDAt0ZWFtMjIwLW5ldDAeFw0yMzExMDQxMTMxNTdaFw0yNjEwMTkx
MTMxNTdaMBkxFzAVBgNVBAMMDnRlYW0yMjAtc2VydmVyMIIBIjANBgkqhkiG9w0B
AQEFAAOCAQ8AMIIBCgKCAQEAsUHAdjFbRjZ3uRWQN2YPxWFqK1wIpSUy3mlJQ3uR
5iJ9pr4yRVSfQ25VjnmYagP6f9kGFeY36QE21R5uqXq77zODh22juvQhjP61JzxB
VxjuJ22iJwc71ohjRrarlHPLx9Oc3/pNihHhznIie7ZPWf8S7KmSfRHgrxKB7pj7
Rw9eHRKUc5J6xU7U7+yh09MpeR6yVJOjNhxNQmXaqyQvpW4e5JvJjhxsc0RZqijr
7gmIhIHbmWEquPyaX8QcZiYZlIE7eCmghRt4ZnqSG8A1YOE4IzAM3qEd3CM53RCU
Fu3Zsk8AbtLjFr9vcn8oBv509rW5VeZduTb4dCHEhRHTTwIDAQABo4G9MIG6MAkG
A1UdEwQCMAAwHQYDVR0OBBYEFGhOqXR++sVEW41TBR1OLQnV7IaGMFEGA1UdIwRK
MEiAFJfSOpJ8hvSGzPiTXDA6/0ExNhpOoRqkGDAWMRQwEgYDVQQDDAt0ZWFtMjIw
LW5ldIIUBjdp1ACW7M6VVhsfaaYlEvXdATowEwYDVR0lBAwwCgYIKwYBBQUHAwEw
CwYDVR0PBAQDAgWgMBkGA1UdEQQSMBCCDnRlYW0yMjAtc2VydmVyMA0GCSqGSIb3
DQEBCwUAA4IBAQCEL1/BvQ0gSVi1nUbCX4AcczZUmFl1tsiA9YZ2wJS/pUMc/nZ3
P/nrTuMTyuWrUgPWXMKaSdysyEUIsUvKur5ZOjvjuMafQfSeZuJnJHb6jVPMKtGq
PlJ9KlO0iwiQOgiY/b2A/1Qs2lGFkB4oMgH365yn1BF9B6EkZdwuF0TWHcBbX3RA
QzTqkv2WsJcfBVGHwEQm2JkPRThi7/RvYBpQdVSP3E/k362H8ngR6uzpCQ8n5A1g
FmOH8wPDVgiaIwm1huuuMcplpfYrvvUC58i9OufciDjawXixa4TesUrMdM8IA1bo
wioytfXCZgeknwR2hOszvu5g6S8fsuzztP7S
-----END CERTIFICATE-----
