Certificate:
    Data:
        Version: 3 (0x2)
        Serial Number:
            e3:5a:db:4a:68:cd:a5:82:5a:f7:2c:2d:b8:34:04:31
        Signature Algorithm: sha256WithRSAEncryption
        Issuer: CN=team220-net
        Validity
            Not Before: Nov  3 20:43:20 2023 GMT
            Not After : Oct 18 20:43:20 2026 GMT
        Subject: CN=team220-client
        Subject Public Key Info:
            Public Key Algorithm: rsaEncryption
                Public-Key: (2048 bit)
                Modulus:
                    00:d1:96:ff:32:fa:35:2f:b7:1c:ce:ac:d8:f8:a1:
                    e9:a3:6a:51:57:03:ff:69:ff:cb:04:32:9e:04:5b:
                    8a:63:c7:65:ec:99:ba:6e:95:61:33:d4:fd:2d:ef:
                    ec:4f:e4:c2:6d:17:f1:a7:b8:93:14:0a:c7:0d:d8:
                    b7:fb:58:8e:f0:53:c9:d3:15:8a:bf:98:43:29:ab:
                    6a:aa:72:6e:b2:c7:d1:b4:ab:ac:53:82:d2:a6:20:
                    31:86:24:56:e1:69:0c:65:7d:65:a5:0a:a4:4b:a7:
                    1e:bf:49:88:46:ad:8c:a9:9c:9b:11:b9:bc:0a:d1:
                    72:11:f4:62:29:1b:68:db:1c:a2:02:86:42:59:b1:
                    f8:8d:b3:67:90:ca:d4:cb:0d:10:3a:78:50:d5:d3:
                    e9:3e:b2:6b:6b:6b:61:7b:da:b3:08:43:de:71:a7:
                    38:90:51:4c:5a:d4:8d:20:26:98:d7:3d:ff:eb:5b:
                    f1:c0:15:eb:32:7b:c8:c9:55:05:e0:ce:0c:7f:a0:
                    38:23:f0:9b:51:71:a9:db:93:c6:a7:1b:4f:a8:d0:
                    6d:8e:38:24:bb:00:19:66:13:6c:77:57:df:03:f6:
                    98:ff:bf:27:80:d8:85:55:4e:78:f2:7f:79:a7:ae:
                    c6:9f:d5:eb:fb:6a:7f:39:d5:8a:ce:14:05:8b:99:
                    9a:f7
                Exponent: 65537 (0x10001)
        X509v3 extensions:
            X509v3 Basic Constraints: 
                CA:FALSE
            X509v3 Subject Key Identifier: 
                11:FF:AD:45:41:13:A1:C0:67:F0:DF:B2:56:0C:34:CC:F3:F6:41:8B
            X509v3 Authority Key Identifier: 
                keyid:83:6A:5C:CD:D4:B9:14:3D:9D:47:F8:45:05:8C:40:2F:34:6C:49:E5
                DirName:/CN=team220-net
                serial:5C:33:D5:ED:B5:C2:64:FC:B3:C5:12:20:59:9C:53:07:0B:89:6E:09
            X509v3 Extended Key Usage: 
                TLS Web Client Authentication
            X509v3 Key Usage: 
                Digital Signature
    Signature Algorithm: sha256WithRSAEncryption
    Signature Value:
        14:24:66:7d:14:16:2a:53:7b:70:d0:16:b3:4b:55:ed:7f:46:
        d3:cc:9c:6c:d5:d8:7c:9b:c6:4d:69:dc:fb:34:1c:0a:bd:05:
        b5:05:0a:e5:f8:6a:dc:c3:cc:b3:be:5c:4d:3f:4a:56:a9:ea:
        ff:88:9a:9e:53:b7:32:c1:49:f5:8e:14:aa:f2:f4:23:56:c5:
        06:83:23:a2:61:12:09:c1:9d:d3:50:8a:3c:84:54:f0:fa:e6:
        0b:63:75:c7:7a:7d:8b:cd:39:50:e8:af:1c:f1:be:86:49:9f:
        d2:85:33:ed:d3:60:d6:1d:86:70:f8:4c:9f:61:89:bb:68:38:
        43:8e:d7:69:66:a2:55:98:85:d0:07:15:a3:ca:c0:0e:96:72:
        5a:d2:00:52:56:20:a5:00:1c:ea:3b:f3:7d:73:89:ee:f1:01:
        b2:66:fd:19:b4:9b:04:7f:6c:ac:46:15:9c:d7:5f:fc:5e:b9:
        fe:7f:82:97:c6:f5:43:f5:52:cf:81:1c:91:a0:26:09:02:84:
        b7:f1:93:c6:90:97:f1:63:d9:e6:e8:35:58:97:69:4b:b1:da:
        ee:52:7c:03:0a:50:17:5e:98:8c:90:2b:b5:4b:b0:72:74:c0:
        e3:75:f5:e3:c1:cb:69:25:8e:70:4e:eb:98:d0:bc:3f:42:85:
        c1:1e:9e:0f
-----BEGIN CERTIFICATE-----
MIIDXTCCAkWgAwIBAgIRAONa20pozaWCWvcsLbg0BDEwDQYJKoZIhvcNAQELBQAw
FjEUMBIGA1UEAwwLdGVhbTIyMC1uZXQwHhcNMjMxMTAzMjA0MzIwWhcNMjYxMDE4
MjA0MzIwWjAZMRcwFQYDVQQDDA50ZWFtMjIwLWNsaWVudDCCASIwDQYJKoZIhvcN
AQEBBQADggEPADCCAQoCggEBANGW/zL6NS+3HM6s2Pih6aNqUVcD/2n/ywQyngRb
imPHZeyZum6VYTPU/S3v7E/kwm0X8ae4kxQKxw3Yt/tYjvBTydMVir+YQymraqpy
brLH0bSrrFOC0qYgMYYkVuFpDGV9ZaUKpEunHr9JiEatjKmcmxG5vArRchH0Yikb
aNscogKGQlmx+I2zZ5DK1MsNEDp4UNXT6T6ya2trYXvaswhD3nGnOJBRTFrUjSAm
mNc9/+tb8cAV6zJ7yMlVBeDODH+gOCPwm1FxqduTxqcbT6jQbY44JLsAGWYTbHdX
3wP2mP+/J4DYhVVOePJ/eaeuxp/V6/tqfznVis4UBYuZmvcCAwEAAaOBojCBnzAJ
BgNVHRMEAjAAMB0GA1UdDgQWBBQR/61FQROhwGfw37JWDDTM8/ZBizBRBgNVHSME
SjBIgBSDalzN1LkUPZ1H+EUFjEAvNGxJ5aEapBgwFjEUMBIGA1UEAwwLdGVhbTIy
MC1uZXSCFFwz1e21wmT8s8USIFmcUwcLiW4JMBMGA1UdJQQMMAoGCCsGAQUFBwMC
MAsGA1UdDwQEAwIHgDANBgkqhkiG9w0BAQsFAAOCAQEAFCRmfRQWKlN7cNAWs0tV
7X9G08ycbNXYfJvGTWnc+zQcCr0FtQUK5fhq3MPMs75cTT9KVqnq/4ianlO3MsFJ
9Y4UqvL0I1bFBoMjomESCcGd01CKPIRU8PrmC2N1x3p9i805UOivHPG+hkmf0oUz
7dNg1h2GcPhMn2GJu2g4Q47XaWaiVZiF0AcVo8rADpZyWtIAUlYgpQAc6jvzfXOJ
7vEBsmb9GbSbBH9srEYVnNdf/F65/n+Cl8b1Q/VSz4EckaAmCQKEt/GTxpCX8WPZ
5ug1WJdpS7Ha7lJ8AwpQF16YjJArtUuwcnTA43X148HLaSWOcE7rmNC8P0KFwR6e
Dw==
-----END CERTIFICATE-----
