Certificate:
    Data:
        Version: 3 (0x2)
        Serial Number:
            0a:91:6d:13:db:9a:25:f6:05:60:5e:37:7b:22:9a:39
        Signature Algorithm: sha256WithRSAEncryption
        Issuer: CN=team497-net
        Validity
            Not Before: Nov  4 10:49:24 2023 GMT
            Not After : Oct 19 10:49:24 2026 GMT
        Subject: CN=team497-server
        Subject Public Key Info:
            Public Key Algorithm: rsaEncryption
                Public-Key: (2048 bit)
                Modulus:
                    00:d2:f3:52:c6:c6:7b:5b:9b:8a:82:51:62:21:cb:
                    0c:2b:aa:40:e9:ed:df:e3:66:2c:64:9d:35:dc:3f:
                    f2:74:53:49:f6:05:f6:ea:88:cf:70:10:0e:92:02:
                    54:11:f5:72:dc:d5:26:00:d7:f1:b0:cd:ef:87:f3:
                    f2:00:a5:f9:30:50:28:d0:9f:c1:af:bc:cc:c8:2d:
                    aa:1e:f4:1b:84:43:0c:04:04:34:db:a7:76:57:47:
                    f2:c1:a2:ed:34:0e:ba:75:27:b3:2b:d3:4e:09:34:
                    69:12:df:fb:1a:9c:95:93:f9:20:7c:d9:fd:e3:1c:
                    a3:da:18:76:85:65:bd:4e:6e:17:9c:04:5c:23:21:
                    f9:f6:b0:f2:53:ac:5e:04:32:1a:36:c3:83:6b:1d:
                    6d:5e:68:6c:8c:c5:45:f5:03:f7:3d:9f:93:95:b2:
                    51:fa:ed:13:13:49:14:d1:10:2d:b9:6e:a3:e8:8c:
                    8a:a1:68:b2:ca:c5:25:74:15:52:d1:9d:b0:f2:12:
                    3d:3c:17:50:0d:f9:43:3d:39:88:44:36:07:54:91:
                    be:11:5c:95:37:3a:12:04:3f:4b:e6:6f:d9:68:81:
                    c9:19:a3:71:82:48:b6:ce:6e:49:b1:d0:09:89:0d:
                    2d:82:58:bd:81:7d:8d:f2:04:77:2a:2e:97:53:ec:
                    ae:25
                Exponent: 65537 (0x10001)
        X509v3 extensions:
            X509v3 Basic Constraints: 
                CA:FALSE
            X509v3 Subject Key Identifier: 
                FF:03:89:30:EE:52:08:9C:13:67:56:3D:BF:95:43:E5:55:57:81:E2
            X509v3 Authority Key Identifier: 
                keyid:EB:CE:95:AE:96:BC:FA:35:B9:83:C3:E3:E8:F4:AB:66:98:AC:5F:06
                DirName:/CN=team497-net
                serial:11:66:63:AB:C2:85:A0:B3:FC:D6:F1:E0:96:30:56:AE:0F:E4:A9:E8
            X509v3 Extended Key Usage: 
                TLS Web Server Authentication
            X509v3 Key Usage: 
                Digital Signature, Key Encipherment
            X509v3 Subject Alternative Name: 
                DNS:team497-server
    Signature Algorithm: sha256WithRSAEncryption
    Signature Value:
        78:3c:28:19:3e:8b:ad:c3:b9:f7:5f:6e:19:39:4c:70:c5:8d:
        17:c4:b3:70:bb:69:d8:39:9f:51:4b:84:6e:c8:ea:4c:65:ce:
        39:7e:3f:77:d6:f5:cb:85:ca:69:8c:6a:74:44:0b:8e:6f:de:
        f4:0b:ea:89:ca:d3:47:a6:b7:b3:07:9c:d3:c4:c6:2e:a4:4f:
        31:46:42:80:53:02:20:b6:a5:8d:1a:29:22:33:3d:e6:ea:50:
        44:de:a4:bb:63:33:51:c1:93:d7:9f:e1:de:3e:db:37:8f:ab:
        19:85:5f:c9:73:30:c6:fb:66:79:cc:a7:a3:07:88:c7:af:c6:
        65:70:ff:01:99:dc:52:0e:27:6a:d5:db:50:40:87:23:88:8e:
        51:e4:57:f2:20:39:08:24:c1:e2:b8:92:d3:e0:96:9d:f3:95:
        2e:ba:c9:cd:ef:a2:ae:7c:d6:44:0d:63:cd:76:44:ee:24:29:
        41:a1:d6:94:65:5a:59:2b:76:17:f9:53:d5:ce:83:1d:42:04:
        fe:40:7a:81:cc:d3:0b:1b:1b:4f:5b:60:f6:a9:c5:94:f7:d8:
        e7:19:19:38:de:01:4e:c5:9b:e9:a6:91:09:01:cf:dc:da:bc:
        cb:f8:af:db:66:15:ea:d8:25:15:bb:28:b8:10:3d:6c:7c:3c:
        41:c0:cf:c5
-----BEGIN CERTIFICATE-----
MIIDdzCCAl+gAwIBAgIQCpFtE9uaJfYFYF43eyKaOTANBgkqhkiG9w0BAQsFADAW
MRQwEgYDVQQDDAt0ZWFtNDk3LW5ldDAeFw0yMzExMDQxMDQ5MjRaFw0yNjEwMTkx
MDQ5MjRaMBkxFzAVBgNVBAMMDnRlYW00OTctc2VydmVyMIIBIjANBgkqhkiG9w0B
AQEFAAOCAQ8AMIIBCgKCAQEA0vNSxsZ7W5uKglFiIcsMK6pA6e3f42YsZJ013D/y
dFNJ9gX26ojPcBAOkgJUEfVy3NUmANfxsM3vh/PyAKX5MFAo0J/Br7zMyC2qHvQb
hEMMBAQ026d2V0fywaLtNA66dSezK9NOCTRpEt/7GpyVk/kgfNn94xyj2hh2hWW9
Tm4XnARcIyH59rDyU6xeBDIaNsODax1tXmhsjMVF9QP3PZ+TlbJR+u0TE0kU0RAt
uW6j6IyKoWiyysUldBVS0Z2w8hI9PBdQDflDPTmIRDYHVJG+EVyVNzoSBD9L5m/Z
aIHJGaNxgki2zm5JsdAJiQ0tgli9gX2N8gR3Ki6XU+yuJQIDAQABo4G9MIG6MAkG
A1UdEwQCMAAwHQYDVR0OBBYEFP8DiTDuUgicE2dWPb+VQ+VVV4HiMFEGA1UdIwRK
MEiAFOvOla6WvPo1uYPD4+j0q2aYrF8GoRqkGDAWMRQwEgYDVQQDDAt0ZWFtNDk3
LW5ldIIUEWZjq8KFoLP81vHgljBWrg/kqegwEwYDVR0lBAwwCgYIKwYBBQUHAwEw
CwYDVR0PBAQDAgWgMBkGA1UdEQQSMBCCDnRlYW00OTctc2VydmVyMA0GCSqGSIb3
DQEBCwUAA4IBAQB4PCgZPoutw7n3X24ZOUxwxY0XxLNwu2nYOZ9RS4RuyOpMZc45
fj931vXLhcppjGp0RAuOb970C+qJytNHprezB5zTxMYupE8xRkKAUwIgtqWNGiki
Mz3m6lBE3qS7YzNRwZPXn+HePts3j6sZhV/JczDG+2Z5zKejB4jHr8ZlcP8BmdxS
Didq1dtQQIcjiI5R5FfyIDkIJMHiuJLT4Jad85UuusnN76KufNZEDWPNdkTuJClB
odaUZVpZK3YX+VPVzoMdQgT+QHqBzNMLGxtPW2D2qcWU99jnGRk43gFOxZvpppEJ
Ac/c2rzL+K/bZhXq2CUVuyi4ED1sfDxBwM/F
-----END CERTIFICATE-----
