Certificate:
    Data:
        Version: 3 (0x2)
        Serial Number:
            3b:7a:bd:1c:a4:26:fe:cb:e3:07:84:f3:5e:5a:2e:c3
        Signature Algorithm: sha256WithRSAEncryption
        Issuer: CN=team497-net
        Validity
            Not Before: Nov  3 20:48:22 2023 GMT
            Not After : Oct 18 20:48:22 2026 GMT
        Subject: CN=team497-client
        Subject Public Key Info:
            Public Key Algorithm: rsaEncryption
                Public-Key: (2048 bit)
                Modulus:
                    00:c5:46:42:8e:2f:5f:40:71:7b:64:d9:e4:37:ed:
                    01:c0:1b:3c:c0:70:fe:2a:60:ca:e4:15:29:e9:d6:
                    e3:44:76:94:b4:d6:c6:e7:27:29:82:cf:99:e0:a3:
                    94:25:59:de:dd:e6:27:76:94:e1:34:11:cd:e8:30:
                    8f:2c:4b:95:91:c1:a5:53:ae:13:ec:36:65:d4:bc:
                    0c:8c:12:af:70:ee:33:5d:e5:df:17:63:e1:39:6c:
                    7b:13:3a:6b:14:e9:27:90:46:d9:7a:29:b2:1a:df:
                    59:8c:7a:77:d7:9a:2d:9a:05:a6:08:83:99:00:69:
                    70:09:c8:f5:4d:a4:0b:d1:7d:0a:1f:72:4e:ca:c0:
                    00:a3:07:65:92:a1:02:f5:da:8b:ed:4e:e5:3c:f0:
                    4a:5f:97:bc:f4:21:e6:e4:26:3c:97:2d:6b:c8:ca:
                    ec:23:60:67:0f:d6:87:f7:00:41:f6:8c:92:08:d9:
                    28:ad:80:74:4c:3c:a2:cf:ea:81:05:a3:16:d5:9f:
                    04:b5:9f:35:c0:bc:67:b0:34:12:05:ac:7d:9e:cf:
                    36:f6:5c:ca:31:2f:26:59:15:c0:6f:76:82:e2:a3:
                    20:57:ca:17:0a:5b:70:28:18:a2:5e:f8:d0:cd:1e:
                    e0:86:65:71:9a:ad:a2:27:99:0a:b1:f7:98:a8:9c:
                    2e:25
                Exponent: 65537 (0x10001)
        X509v3 extensions:
            X509v3 Basic Constraints: 
                CA:FALSE
            X509v3 Subject Key Identifier: 
                28:73:25:08:D4:C3:9F:BA:AE:92:1A:40:57:A1:C6:2B:9E:E6:9E:51
            X509v3 Authority Key Identifier: 
                keyid:F3:36:1C:8D:6D:A9:A6:A7:EC:CB:E9:2F:69:6F:D8:01:C4:70:04:44
                DirName:/CN=team497-net
                serial:31:5C:D1:48:D6:4C:57:4D:DD:5C:A5:0B:A1:FB:52:C5:F1:C9:73:1A
            X509v3 Extended Key Usage: 
                TLS Web Client Authentication
            X509v3 Key Usage: 
                Digital Signature
    Signature Algorithm: sha256WithRSAEncryption
    Signature Value:
        40:b8:f5:d2:ba:a1:53:87:64:7e:30:6f:c6:1f:06:af:c4:08:
        d9:b6:e6:6c:28:3c:83:f1:bf:29:63:46:73:6d:4d:7a:b9:3f:
        9a:ee:09:5a:57:e3:6b:5f:47:26:21:70:81:92:ad:42:2d:26:
        76:b0:cf:66:f2:b3:f0:73:39:0f:80:84:8b:3f:56:2a:eb:a6:
        61:57:e5:19:37:28:e4:dd:a9:88:d7:e4:da:16:eb:58:76:48:
        44:e3:33:33:aa:ae:04:fd:3c:bc:ec:e4:38:9c:3e:71:2c:a2:
        a3:c9:f7:ba:16:91:4f:43:79:ea:d7:6c:dc:74:f7:ca:ef:53:
        22:3a:70:2b:79:17:77:ba:d3:e7:78:c8:8c:8e:6b:b8:e7:ba:
        b5:16:53:24:58:7a:f8:a9:0c:c6:ed:b1:8f:01:6c:98:4b:31:
        1f:95:e8:d3:78:6e:7a:63:14:ab:bc:bc:9d:3b:1f:a6:bd:42:
        62:fa:75:e6:e1:39:31:28:ba:10:c9:3e:8f:50:27:20:86:77:
        1b:dd:e4:41:d3:ab:12:62:91:5a:6c:82:99:86:7c:21:bd:79:
        c4:41:60:d5:d3:6b:93:39:1c:d1:0d:a0:1b:8e:51:6a:66:75:
        50:2d:67:4e:66:6d:f2:1c:b7:3f:49:12:17:89:89:8a:a7:f1:
        c2:4c:6b:08
-----BEGIN CERTIFICATE-----
MIIDXDCCAkSgAwIBAgIQO3q9HKQm/svjB4TzXlouwzANBgkqhkiG9w0BAQsFADAW
MRQwEgYDVQQDDAt0ZWFtNDk3LW5ldDAeFw0yMzExMDMyMDQ4MjJaFw0yNjEwMTgy
MDQ4MjJaMBkxFzAVBgNVBAMMDnRlYW00OTctY2xpZW50MIIBIjANBgkqhkiG9w0B
AQEFAAOCAQ8AMIIBCgKCAQEAxUZCji9fQHF7ZNnkN+0BwBs8wHD+KmDK5BUp6dbj
RHaUtNbG5ycpgs+Z4KOUJVne3eYndpThNBHN6DCPLEuVkcGlU64T7DZl1LwMjBKv
cO4zXeXfF2PhOWx7EzprFOknkEbZeimyGt9ZjHp315otmgWmCIOZAGlwCcj1TaQL
0X0KH3JOysAAowdlkqEC9dqL7U7lPPBKX5e89CHm5CY8ly1ryMrsI2BnD9aH9wBB
9oySCNkorYB0TDyiz+qBBaMW1Z8EtZ81wLxnsDQSBax9ns829lzKMS8mWRXAb3aC
4qMgV8oXCltwKBiiXvjQzR7ghmVxmq2iJ5kKsfeYqJwuJQIDAQABo4GiMIGfMAkG
A1UdEwQCMAAwHQYDVR0OBBYEFChzJQjUw5+6rpIaQFehxiue5p5RMFEGA1UdIwRK
MEiAFPM2HI1tqaan7MvpL2lv2AHEcAREoRqkGDAWMRQwEgYDVQQDDAt0ZWFtNDk3
LW5ldIIUMVzRSNZMV03dXKULoftSxfHJcxowEwYDVR0lBAwwCgYIKwYBBQUHAwIw
CwYDVR0PBAQDAgeAMA0GCSqGSIb3DQEBCwUAA4IBAQBAuPXSuqFTh2R+MG/GHwav
xAjZtuZsKDyD8b8pY0ZzbU16uT+a7glaV+NrX0cmIXCBkq1CLSZ2sM9m8rPwczkP
gISLP1Yq66ZhV+UZNyjk3amI1+TaFutYdkhE4zMzqq4E/Ty87OQ4nD5xLKKjyfe6
FpFPQ3nq12zcdPfK71MiOnAreRd3utPneMiMjmu457q1FlMkWHr4qQzG7bGPAWyY
SzEflejTeG56YxSrvLydOx+mvUJi+nXm4TkxKLoQyT6PUCcghncb3eRB06sSYpFa
bIKZhnwhvXnEQWDV02uTORzRDaAbjlFqZnVQLWdOZm3yHLc/SRIXiYmKp/HCTGsI
-----END CERTIFICATE-----
