Certificate:
    Data:
        Version: 3 (0x2)
        Serial Number:
            77:cb:92:09:a3:a1:8e:78:1f:c2:76:45:99:93:ac:b0
        Signature Algorithm: sha256WithRSAEncryption
        Issuer: CN=team497-net
        Validity
            Not Before: Nov  4 11:38:52 2023 GMT
            Not After : Oct 19 11:38:52 2026 GMT
        Subject: CN=team497-client
        Subject Public Key Info:
            Public Key Algorithm: rsaEncryption
                Public-Key: (2048 bit)
                Modulus:
                    00:a5:6a:d2:1d:96:c9:20:20:ed:3c:e7:25:20:03:
                    a5:2a:73:5c:c7:0b:92:4a:5b:5d:43:ab:fb:f4:83:
                    b8:eb:e3:3b:2f:2b:11:6d:56:58:cd:f4:62:ed:28:
                    f0:c5:83:bf:cb:c2:7d:f4:df:02:be:cd:ce:16:38:
                    ec:01:d9:dc:52:b8:7d:ad:ac:85:47:3c:d3:35:9b:
                    83:64:f2:f6:1a:f9:25:b4:67:60:e2:79:34:b3:71:
                    12:1a:c4:10:9f:c6:e6:0c:83:5e:5e:0e:32:e1:5d:
                    15:70:35:49:fe:5f:f4:86:a6:46:4e:4a:e5:c5:b4:
                    c6:48:3c:8b:5c:e0:0d:63:23:d0:36:e8:dc:31:06:
                    e4:67:e8:26:41:32:a2:92:db:0f:e5:33:7d:bd:eb:
                    17:6c:db:e0:89:88:e0:cc:cb:c5:c0:61:8d:96:c0:
                    a5:ad:af:9e:67:cf:a8:cf:4e:6d:62:b2:92:a0:95:
                    76:b8:31:63:7b:b7:9f:1b:9a:0a:49:1b:2e:69:55:
                    0e:69:a2:02:81:b6:09:3b:de:a0:85:fd:ab:56:52:
                    30:ae:61:9c:8a:aa:0f:75:25:e5:22:12:4c:d9:4e:
                    1e:fb:08:12:4b:8a:ea:35:c5:0c:ea:e0:52:89:a0:
                    5a:fe:48:f9:99:62:20:f5:39:a0:bc:1e:e8:ea:f9:
                    13:13
                Exponent: 65537 (0x10001)
        X509v3 extensions:
            X509v3 Basic Constraints: 
                CA:FALSE
            X509v3 Subject Key Identifier: 
                A3:E4:F6:52:08:F2:D5:68:18:C9:83:1C:F6:16:90:FA:49:2A:55:E6
            X509v3 Authority Key Identifier: 
                keyid:2C:A4:FD:5A:A8:F7:72:FE:AA:E5:CC:6F:CC:31:B9:B7:D2:44:FB:70
                DirName:/CN=team497-net
                serial:19:1D:23:49:F7:D4:5E:F9:46:C0:A4:2B:A9:A3:B3:0D:E2:52:E1:AD
            X509v3 Extended Key Usage: 
                TLS Web Client Authentication
            X509v3 Key Usage: 
                Digital Signature
    Signature Algorithm: sha256WithRSAEncryption
    Signature Value:
        10:0f:13:26:93:c0:22:22:be:a4:3c:47:ce:68:a4:2b:89:22:
        26:40:76:16:3c:eb:2f:d1:93:cb:77:1c:71:e6:5f:ad:bd:9f:
        4d:f1:2e:a2:db:1f:0f:90:e1:c4:4f:ae:ab:7b:be:db:ac:ca:
        c9:c5:97:73:eb:e4:3b:e6:5c:3e:f3:ba:a7:92:ee:28:b6:6b:
        66:03:9c:de:d4:c4:fd:15:27:78:06:2a:68:b7:db:c1:5f:a3:
        87:ee:14:03:b3:62:b2:9c:09:c3:35:70:79:3d:67:9b:2a:df:
        e2:4c:34:ae:bd:c2:dd:6a:de:1d:8a:5a:af:e3:d2:64:cb:31:
        03:ad:8f:ba:19:5d:f5:2e:84:54:d1:27:23:d3:79:52:52:ab:
        69:91:37:c9:6f:28:d0:c9:45:d7:50:49:5a:cb:a9:04:fe:d6:
        d2:b8:bc:e0:72:fe:c6:44:de:b6:9c:98:11:00:b2:65:b3:c2:
        1b:51:55:37:74:88:b4:95:1f:5f:89:9b:fb:26:eb:67:ad:23:
        e0:c9:21:36:97:18:c4:5e:07:74:18:1c:fe:03:8b:f1:e9:49:
        10:23:7b:dc:2f:13:44:0d:bc:78:d4:c3:27:72:f4:80:e4:42:
        02:19:7f:ef:83:ef:89:c9:5f:7f:76:3f:c2:19:d9:1b:63:13:
        ae:9a:4a:35
-----BEGIN CERTIFICATE-----
MIIDXDCCAkSgAwIBAgIQd8uSCaOhjngfwnZFmZOssDANBgkqhkiG9w0BAQsFADAW
MRQwEgYDVQQDDAt0ZWFtNDk3LW5ldDAeFw0yMzExMDQxMTM4NTJaFw0yNjEwMTkx
MTM4NTJaMBkxFzAVBgNVBAMMDnRlYW00OTctY2xpZW50MIIBIjANBgkqhkiG9w0B
AQEFAAOCAQ8AMIIBCgKCAQEApWrSHZbJICDtPOclIAOlKnNcxwuSSltdQ6v79IO4
6+M7LysRbVZYzfRi7SjwxYO/y8J99N8Cvs3OFjjsAdncUrh9rayFRzzTNZuDZPL2
GvkltGdg4nk0s3ESGsQQn8bmDINeXg4y4V0VcDVJ/l/0hqZGTkrlxbTGSDyLXOAN
YyPQNujcMQbkZ+gmQTKiktsP5TN9vesXbNvgiYjgzMvFwGGNlsClra+eZ8+oz05t
YrKSoJV2uDFje7efG5oKSRsuaVUOaaICgbYJO96ghf2rVlIwrmGciqoPdSXlIhJM
2U4e+wgSS4rqNcUM6uBSiaBa/kj5mWIg9TmgvB7o6vkTEwIDAQABo4GiMIGfMAkG
A1UdEwQCMAAwHQYDVR0OBBYEFKPk9lII8tVoGMmDHPYWkPpJKlXmMFEGA1UdIwRK
MEiAFCyk/Vqo93L+quXMb8wxubfSRPtwoRqkGDAWMRQwEgYDVQQDDAt0ZWFtNDk3
LW5ldIIUGR0jSffUXvlGwKQrqaOzDeJS4a0wEwYDVR0lBAwwCgYIKwYBBQUHAwIw
CwYDVR0PBAQDAgeAMA0GCSqGSIb3DQEBCwUAA4IBAQAQDxMmk8AiIr6kPEfOaKQr
iSImQHYWPOsv0ZPLdxxx5l+tvZ9N8S6i2x8PkOHET66re77brMrJxZdz6+Q75lw+
87qnku4otmtmA5ze1MT9FSd4Bipot9vBX6OH7hQDs2KynAnDNXB5PWebKt/iTDSu
vcLdat4dilqv49JkyzEDrY+6GV31LoRU0Scj03lSUqtpkTfJbyjQyUXXUElay6kE
/tbSuLzgcv7GRN62nJgRALJls8IbUVU3dIi0lR9fiZv7JutnrSPgySE2lxjEXgd0
GBz+A4vx6UkQI3vcLxNEDbx41MMncvSA5EICGX/vg++JyV9/dj/CGdkbYxOumko1
-----END CERTIFICATE-----
