Certificate:
    Data:
        Version: 3 (0x2)
        Serial Number:
            b7:c5:bb:1d:8e:58:04:74:19:ee:31:68:f2:a8:e9:6b
        Signature Algorithm: sha256WithRSAEncryption
        Issuer: CN=team497-net
        Validity
            Not Before: Nov  4 11:38:52 2023 GMT
            Not After : Oct 19 11:38:52 2026 GMT
        Subject: CN=team497-server
        Subject Public Key Info:
            Public Key Algorithm: rsaEncryption
                Public-Key: (2048 bit)
                Modulus:
                    00:a6:fe:14:d0:90:51:91:78:bf:ae:ff:67:70:19:
                    62:1f:c6:ae:a0:3a:64:6d:de:46:a5:75:67:f0:7e:
                    00:85:8d:9f:de:90:9a:ba:a1:0b:fe:a2:0b:3d:63:
                    64:b1:3f:e8:8d:db:28:55:c5:e9:6d:54:e3:a7:b6:
                    78:23:9b:d5:bc:6e:fd:85:31:30:e7:8b:c4:a7:0a:
                    3f:4f:f5:96:f1:d0:91:52:48:00:99:bd:b7:58:7b:
                    33:57:1d:00:ce:1b:f5:77:1a:62:59:1e:16:c6:2e:
                    bb:e6:df:44:69:4e:bc:0d:fe:86:b8:b5:a6:3e:f8:
                    c1:ac:11:49:72:ec:06:a7:80:59:fe:95:9d:4f:36:
                    ea:8f:50:81:14:d7:f1:62:ef:98:06:1b:b5:37:3a:
                    b7:38:1b:11:d0:99:04:6d:ab:36:c8:6e:86:5f:48:
                    ab:f3:24:77:7f:31:90:d9:ed:85:03:4d:e0:7d:ec:
                    35:2c:03:a8:d6:ac:a4:33:93:f0:30:95:8a:45:67:
                    15:33:ae:31:5e:68:dc:87:d6:50:c0:81:50:1d:21:
                    50:97:82:09:ba:79:d9:ee:80:5c:4b:19:d1:3a:aa:
                    ba:2d:0c:c0:d5:f4:3c:a1:9a:75:4d:34:39:34:65:
                    1d:5e:8d:90:0b:9d:da:ae:ba:ea:34:6c:7f:97:e8:
                    a1:53
                Exponent: 65537 (0x10001)
        X509v3 extensions:
            X509v3 Basic Constraints: 
                CA:FALSE
            X509v3 Subject Key Identifier: 
                8B:3A:DB:8F:6B:F3:B4:0C:11:8C:AF:8A:D2:11:C8:1B:65:FA:00:80
            X509v3 Authority Key Identifier: 
                keyid:2C:A4:FD:5A:A8:F7:72:FE:AA:E5:CC:6F:CC:31:B9:B7:D2:44:FB:70
                DirName:/CN=team497-net
                serial:19:1D:23:49:F7:D4:5E:F9:46:C0:A4:2B:A9:A3:B3:0D:E2:52:E1:AD
            X509v3 Extended Key Usage: 
                TLS Web Server Authentication
            X509v3 Key Usage: 
                Digital Signature, Key Encipherment
            X509v3 Subject Alternative Name: 
                DNS:team497-server
    Signature Algorithm: sha256WithRSAEncryption
    Signature Value:
        80:04:7e:e6:77:80:ca:50:82:27:11:e5:cf:85:b6:3f:e2:e0:
        10:a8:ab:d6:f8:05:40:01:c7:5d:d5:f7:5f:0f:b7:f7:3f:54:
        fb:f3:ac:44:1a:ca:64:eb:80:38:e1:40:12:9e:11:09:8a:1c:
        52:de:d1:db:1b:8a:31:45:06:0b:1c:48:9d:8a:8c:59:2d:e0:
        ea:ba:cb:a9:48:f1:bf:0c:ed:82:0a:7f:ce:0f:ae:c8:06:bb:
        98:3e:b6:1a:23:bd:aa:b4:c3:e8:6e:d4:89:21:93:7a:5a:3e:
        fd:0e:db:6d:db:ff:a6:c8:65:bc:3d:51:64:61:7f:f1:0b:72:
        98:c3:0a:f3:f8:0e:7e:5b:7b:15:db:f0:cb:ea:a9:b1:9e:58:
        c5:e4:f5:51:0e:dd:33:07:6f:10:89:e5:f6:6d:79:13:8d:52:
        be:88:de:22:b4:75:63:43:07:f9:b0:ef:62:63:3e:ca:31:b0:
        d9:d9:ae:39:4a:4e:43:86:7a:73:13:64:16:16:ac:4a:7b:fd:
        4e:64:4c:93:0e:52:81:8d:24:10:eb:c2:63:af:48:ee:b9:59:
        f8:e2:79:d5:e3:cf:0a:39:b6:b7:e1:14:3c:b8:ad:b1:06:e3:
        63:ee:e5:cc:78:eb:8d:04:2a:bc:91:dd:5b:84:f0:87:66:73:
        cb:2d:6c:7f
-----BEGIN CERTIFICATE-----
MIIDeDCCAmCgAwIBAgIRALfFux2OWAR0Ge4xaPKo6WswDQYJKoZIhvcNAQELBQAw
FjEUMBIGA1UEAwwLdGVhbTQ5Ny1uZXQwHhcNMjMxMTA0MTEzODUyWhcNMjYxMDE5
MTEzODUyWjAZMRcwFQYDVQQDDA50ZWFtNDk3LXNlcnZlcjCCASIwDQYJKoZIhvcN
AQEBBQADggEPADCCAQoCggEBAKb+FNCQUZF4v67/Z3AZYh/GrqA6ZG3eRqV1Z/B+
AIWNn96QmrqhC/6iCz1jZLE/6I3bKFXF6W1U46e2eCOb1bxu/YUxMOeLxKcKP0/1
lvHQkVJIAJm9t1h7M1cdAM4b9XcaYlkeFsYuu+bfRGlOvA3+hri1pj74wawRSXLs
BqeAWf6VnU826o9QgRTX8WLvmAYbtTc6tzgbEdCZBG2rNshuhl9Iq/Mkd38xkNnt
hQNN4H3sNSwDqNaspDOT8DCVikVnFTOuMV5o3IfWUMCBUB0hUJeCCbp52e6AXEsZ
0Tqqui0MwNX0PKGadU00OTRlHV6NkAud2q666jRsf5fooVMCAwEAAaOBvTCBujAJ
BgNVHRMEAjAAMB0GA1UdDgQWBBSLOtuPa/O0DBGMr4rSEcgbZfoAgDBRBgNVHSME
SjBIgBQspP1aqPdy/qrlzG/MMbm30kT7cKEapBgwFjEUMBIGA1UEAwwLdGVhbTQ5
Ny1uZXSCFBkdI0n31F75RsCkK6mjsw3iUuGtMBMGA1UdJQQMMAoGCCsGAQUFBwMB
MAsGA1UdDwQEAwIFoDAZBgNVHREEEjAQgg50ZWFtNDk3LXNlcnZlcjANBgkqhkiG
9w0BAQsFAAOCAQEAgAR+5neAylCCJxHlz4W2P+LgEKir1vgFQAHHXdX3Xw+39z9U
+/OsRBrKZOuAOOFAEp4RCYocUt7R2xuKMUUGCxxInYqMWS3g6rrLqUjxvwztggp/
zg+uyAa7mD62GiO9qrTD6G7UiSGTelo+/Q7bbdv/pshlvD1RZGF/8QtymMMK8/gO
flt7Fdvwy+qpsZ5YxeT1UQ7dMwdvEInl9m15E41SvojeIrR1Y0MH+bDvYmM+yjGw
2dmuOUpOQ4Z6cxNkFhasSnv9TmRMkw5SgY0kEOvCY69I7rlZ+OJ51ePPCjm2t+EU
PLitsQbjY+7lzHjrjQQqvJHdW4Twh2Zzyy1sfw==
-----END CERTIFICATE-----
