Certificate:
    Data:
        Version: 3 (0x2)
        Serial Number:
            de:3c:fd:37:f8:2f:c4:7e:81:22:70:c6:8c:87:35:4b
        Signature Algorithm: sha256WithRSAEncryption
        Issuer: CN=team497-net
        Validity
            Not Before: Nov  4 10:49:24 2023 GMT
            Not After : Oct 19 10:49:24 2026 GMT
        Subject: CN=team497-client
        Subject Public Key Info:
            Public Key Algorithm: rsaEncryption
                Public-Key: (2048 bit)
                Modulus:
                    00:9c:7e:b4:51:74:0f:84:4d:b5:0e:6c:d4:26:bc:
                    ef:43:55:28:0b:65:40:58:49:10:0e:f9:d9:e0:84:
                    26:7f:74:51:55:bf:5c:1b:b0:3b:2d:46:7d:a0:7d:
                    d7:d3:3d:eb:31:04:7c:38:0b:34:69:66:5d:02:0d:
                    8d:ac:9a:52:7b:d5:50:c8:98:ad:ce:14:28:c7:d8:
                    ef:53:dc:20:73:05:7d:a4:77:f7:62:a7:cb:5c:36:
                    8c:32:0f:12:c1:20:8a:6a:c8:17:df:9a:bb:eb:5b:
                    9f:9c:07:f2:59:46:81:65:13:66:e0:54:e6:3c:a7:
                    56:2a:74:e9:83:c4:05:0f:99:f9:36:99:0b:f0:2b:
                    23:0c:2b:5a:d4:b2:20:54:02:2c:8a:54:58:7f:a8:
                    15:59:5d:36:da:1c:71:f4:b9:81:af:a0:62:4d:3b:
                    fb:8f:48:81:91:e3:6f:c6:c1:74:00:ee:50:af:a8:
                    d5:ca:ef:44:0e:f3:e1:b6:f4:6f:e4:c6:75:71:45:
                    1b:c4:d8:9c:9a:8a:63:31:4f:1b:50:55:f4:3c:ac:
                    54:cb:06:e4:8a:00:88:4b:c5:39:8f:45:22:9c:57:
                    e9:97:8e:8d:7f:cb:69:1b:29:ec:4e:4f:13:23:dd:
                    a2:5f:04:71:4a:75:aa:d7:83:c2:47:06:a9:f9:ab:
                    ee:c3
                Exponent: 65537 (0x10001)
        X509v3 extensions:
            X509v3 Basic Constraints: 
                CA:FALSE
            X509v3 Subject Key Identifier: 
                4F:22:49:79:57:AF:7A:35:D1:D2:60:85:7C:54:70:F2:D1:80:9D:DF
            X509v3 Authority Key Identifier: 
                keyid:EB:CE:95:AE:96:BC:FA:35:B9:83:C3:E3:E8:F4:AB:66:98:AC:5F:06
                DirName:/CN=team497-net
                serial:11:66:63:AB:C2:85:A0:B3:FC:D6:F1:E0:96:30:56:AE:0F:E4:A9:E8
            X509v3 Extended Key Usage: 
                TLS Web Client Authentication
            X509v3 Key Usage: 
                Digital Signature
    Signature Algorithm: sha256WithRSAEncryption
    Signature Value:
        4c:13:8e:a0:b0:23:08:66:22:9b:78:81:eb:b0:72:ed:5b:ad:
        d7:33:a3:34:6a:3c:ef:29:aa:c8:53:11:10:9c:32:97:7a:c5:
        ac:89:fe:db:3c:c1:a7:f5:7f:2d:5b:db:c4:41:d1:66:aa:f2:
        ca:18:55:d5:e7:0b:8d:da:24:ec:67:6e:fe:a1:e1:2b:a9:58:
        ef:10:40:71:db:13:15:52:68:a3:63:cd:f4:f2:c2:b0:e1:58:
        fc:9e:dd:02:be:1a:71:19:e8:4f:f2:5a:37:1f:c8:a9:55:85:
        75:f3:2f:5b:b0:f0:71:20:18:3b:21:5f:bf:c2:78:c1:72:27:
        51:e5:ca:b9:c1:d5:42:da:1b:70:0f:5c:b9:36:4e:3d:bf:32:
        19:6a:86:68:3d:5d:c7:77:97:0e:11:09:e4:3f:75:cc:0a:bb:
        73:6e:0a:e0:04:e8:a5:9b:75:ea:67:4b:bf:de:f9:cd:d5:40:
        e8:ab:bf:b1:aa:01:25:17:6b:66:30:6f:1c:c8:fc:89:74:ea:
        da:cf:e3:34:a8:b8:23:ba:00:83:b5:f2:da:a2:b9:5a:af:ad:
        d8:26:7f:34:42:8d:90:8f:19:10:fe:5a:d7:33:18:58:cb:33:
        7e:2e:b8:91:37:e2:6f:61:b5:ea:41:d8:26:f8:30:8f:78:85:
        7b:f6:54:4f
-----BEGIN CERTIFICATE-----
MIIDXTCCAkWgAwIBAgIRAN48/Tf4L8R+gSJwxoyHNUswDQYJKoZIhvcNAQELBQAw
FjEUMBIGA1UEAwwLdGVhbTQ5Ny1uZXQwHhcNMjMxMTA0MTA0OTI0WhcNMjYxMDE5
MTA0OTI0WjAZMRcwFQYDVQQDDA50ZWFtNDk3LWNsaWVudDCCASIwDQYJKoZIhvcN
AQEBBQADggEPADCCAQoCggEBAJx+tFF0D4RNtQ5s1Ca870NVKAtlQFhJEA752eCE
Jn90UVW/XBuwOy1GfaB919M96zEEfDgLNGlmXQINjayaUnvVUMiYrc4UKMfY71Pc
IHMFfaR392Kny1w2jDIPEsEgimrIF9+au+tbn5wH8llGgWUTZuBU5jynVip06YPE
BQ+Z+TaZC/ArIwwrWtSyIFQCLIpUWH+oFVldNtoccfS5ga+gYk07+49IgZHjb8bB
dADuUK+o1crvRA7z4bb0b+TGdXFFG8TYnJqKYzFPG1BV9DysVMsG5IoAiEvFOY9F
IpxX6ZeOjX/LaRsp7E5PEyPdol8EcUp1qteDwkcGqfmr7sMCAwEAAaOBojCBnzAJ
BgNVHRMEAjAAMB0GA1UdDgQWBBRPIkl5V696NdHSYIV8VHDy0YCd3zBRBgNVHSME
SjBIgBTrzpWulrz6NbmDw+Po9KtmmKxfBqEapBgwFjEUMBIGA1UEAwwLdGVhbTQ5
Ny1uZXSCFBFmY6vChaCz/Nbx4JYwVq4P5KnoMBMGA1UdJQQMMAoGCCsGAQUFBwMC
MAsGA1UdDwQEAwIHgDANBgkqhkiG9w0BAQsFAAOCAQEATBOOoLAjCGYim3iB67By
7Vut1zOjNGo87ymqyFMREJwyl3rFrIn+2zzBp/V/LVvbxEHRZqryyhhV1ecLjdok
7Gdu/qHhK6lY7xBAcdsTFVJoo2PN9PLCsOFY/J7dAr4acRnoT/JaNx/IqVWFdfMv
W7DwcSAYOyFfv8J4wXInUeXKucHVQtobcA9cuTZOPb8yGWqGaD1dx3eXDhEJ5D91
zAq7c24K4ATopZt16mdLv975zdVA6Ku/saoBJRdrZjBvHMj8iXTq2s/jNKi4I7oA
g7Xy2qK5Wq+t2CZ/NEKNkI8ZEP5a1zMYWMszfi64kTfib2G16kHYJvgwj3iFe/ZU
Tw==
-----END CERTIFICATE-----
