Certificate:
    Data:
        Version: 3 (0x2)
        Serial Number:
            0d:09:97:66:b8:0e:c9:13:ad:37:19:9d:1d:e5:11:f2
        Signature Algorithm: sha256WithRSAEncryption
        Issuer: CN=team270-net
        Validity
            Not Before: Nov  4 10:45:40 2023 GMT
            Not After : Oct 19 10:45:40 2026 GMT
        Subject: CN=team270-client
        Subject Public Key Info:
            Public Key Algorithm: rsaEncryption
                Public-Key: (2048 bit)
                Modulus:
                    00:ef:93:6d:71:b7:00:88:fb:a9:bc:08:c7:2f:5c:
                    12:47:0e:4c:bb:f8:5d:8f:e6:18:a6:a4:6e:62:2e:
                    94:2c:88:34:e2:2e:76:7d:77:b9:23:fb:bf:23:8f:
                    3f:b3:73:8e:de:1d:97:7b:67:4f:d7:88:c6:dd:1d:
                    73:07:67:86:f2:28:40:5b:26:7f:26:31:5e:22:f0:
                    00:3a:74:77:5b:40:69:ec:e0:58:47:3e:3c:7a:40:
                    ae:57:53:50:dc:53:8f:11:ad:0c:8c:af:60:32:7e:
                    9c:e4:23:34:49:cc:c8:08:07:4d:fa:a9:4a:b3:81:
                    3b:5f:bf:cc:74:3b:02:ce:89:f7:29:c9:90:0c:da:
                    af:39:2c:59:14:63:68:03:ea:13:46:0d:70:6c:b4:
                    77:71:0e:05:4f:8c:65:bb:5b:8e:af:13:19:9f:2c:
                    c3:50:f7:52:01:91:3f:7d:d7:41:24:06:92:dd:56:
                    f9:a0:27:d3:b9:48:bd:fa:07:7c:2e:c1:87:44:9d:
                    cc:dd:21:3f:30:9f:32:54:12:7b:6a:88:3a:1c:f8:
                    47:cd:66:45:08:52:5f:1b:7a:f5:ea:79:b0:51:c2:
                    54:cb:a8:6e:10:b3:c0:ac:f3:42:55:50:2e:ca:b6:
                    a1:41:7f:01:88:0c:94:3a:21:ea:3c:4b:58:0c:e8:
                    9c:5f
                Exponent: 65537 (0x10001)
        X509v3 extensions:
            X509v3 Basic Constraints: 
                CA:FALSE
            X509v3 Subject Key Identifier: 
                D3:E2:7C:0C:AD:77:72:FA:A9:51:B5:5B:09:DD:67:DB:90:43:D3:A8
            X509v3 Authority Key Identifier: 
                keyid:73:4E:33:BC:58:01:0B:19:93:BC:1F:58:4B:C3:8A:50:08:2A:62:E2
                DirName:/CN=team270-net
                serial:54:C7:7F:D4:85:52:20:97:68:67:DE:3F:22:7A:B3:DC:DF:F0:37:D4
            X509v3 Extended Key Usage: 
                TLS Web Client Authentication
            X509v3 Key Usage: 
                Digital Signature
    Signature Algorithm: sha256WithRSAEncryption
    Signature Value:
        19:a3:4c:b8:be:1d:fb:dc:71:56:97:f9:7d:04:0d:e4:13:8c:
        22:b3:6a:a5:41:ba:df:1e:e4:d4:0f:a7:9e:7b:e7:3a:f9:e5:
        8f:40:28:09:b5:ef:11:1d:b1:25:1e:c4:be:46:a5:c1:dc:57:
        43:d5:1e:67:17:56:55:39:03:e9:d1:cb:0d:2c:18:64:c6:22:
        b0:1a:1e:ec:0c:19:b7:b3:e5:cf:cc:24:a8:34:55:14:a8:1b:
        f4:bf:b0:11:e5:6a:11:9a:ec:92:ea:64:a5:68:50:7e:fc:dd:
        29:48:e8:16:6b:06:1a:59:e5:c6:a3:7a:b2:e8:f9:2e:fb:67:
        32:c1:f4:0a:30:d8:20:39:17:c0:2e:7d:d0:59:9e:e7:7e:93:
        19:31:9f:50:48:c5:9d:e8:06:19:bf:e3:37:25:16:5b:97:c5:
        85:04:5c:d7:f0:54:d5:00:c2:f2:3f:b6:d7:31:a5:23:89:81:
        6a:14:7f:c8:1c:d2:49:1f:8b:4b:cb:9d:dd:3b:67:af:49:6f:
        e9:b1:43:b9:a4:09:7c:05:00:b2:f2:9a:4e:be:5a:60:0c:d2:
        fe:0e:d1:7b:a4:c7:99:bc:bf:f9:8c:f8:62:86:e3:8d:3d:13:
        27:81:68:c8:71:63:48:ee:aa:18:a8:49:e0:ea:b8:85:3a:9f:
        e4:a0:1b:c7
-----BEGIN CERTIFICATE-----
MIIDXDCCAkSgAwIBAgIQDQmXZrgOyROtNxmdHeUR8jANBgkqhkiG9w0BAQsFADAW
MRQwEgYDVQQDDAt0ZWFtMjcwLW5ldDAeFw0yMzExMDQxMDQ1NDBaFw0yNjEwMTkx
MDQ1NDBaMBkxFzAVBgNVBAMMDnRlYW0yNzAtY2xpZW50MIIBIjANBgkqhkiG9w0B
AQEFAAOCAQ8AMIIBCgKCAQEA75NtcbcAiPupvAjHL1wSRw5Mu/hdj+YYpqRuYi6U
LIg04i52fXe5I/u/I48/s3OO3h2Xe2dP14jG3R1zB2eG8ihAWyZ/JjFeIvAAOnR3
W0Bp7OBYRz48ekCuV1NQ3FOPEa0MjK9gMn6c5CM0SczICAdN+qlKs4E7X7/MdDsC
zon3KcmQDNqvOSxZFGNoA+oTRg1wbLR3cQ4FT4xlu1uOrxMZnyzDUPdSAZE/fddB
JAaS3Vb5oCfTuUi9+gd8LsGHRJ3M3SE/MJ8yVBJ7aog6HPhHzWZFCFJfG3r16nmw
UcJUy6huELPArPNCVVAuyrahQX8BiAyUOiHqPEtYDOicXwIDAQABo4GiMIGfMAkG
A1UdEwQCMAAwHQYDVR0OBBYEFNPifAytd3L6qVG1WwndZ9uQQ9OoMFEGA1UdIwRK
MEiAFHNOM7xYAQsZk7wfWEvDilAIKmLioRqkGDAWMRQwEgYDVQQDDAt0ZWFtMjcw
LW5ldIIUVMd/1IVSIJdoZ94/Inqz3N/wN9QwEwYDVR0lBAwwCgYIKwYBBQUHAwIw
CwYDVR0PBAQDAgeAMA0GCSqGSIb3DQEBCwUAA4IBAQAZo0y4vh373HFWl/l9BA3k
E4wis2qlQbrfHuTUD6eee+c6+eWPQCgJte8RHbElHsS+RqXB3FdD1R5nF1ZVOQPp
0csNLBhkxiKwGh7sDBm3s+XPzCSoNFUUqBv0v7AR5WoRmuyS6mSlaFB+/N0pSOgW
awYaWeXGo3qy6Pku+2cywfQKMNggORfALn3QWZ7nfpMZMZ9QSMWd6AYZv+M3JRZb
l8WFBFzX8FTVAMLyP7bXMaUjiYFqFH/IHNJJH4tLy53dO2evSW/psUO5pAl8BQCy
8ppOvlpgDNL+DtF7pMeZvL/5jPhihuONPRMngWjIcWNI7qoYqEng6riFOp/koBvH
-----END CERTIFICATE-----
