Certificate:
    Data:
        Version: 3 (0x2)
        Serial Number:
            28:ce:98:b1:ad:dd:9e:5a:53:8e:aa:39:7f:bf:b3:70
        Signature Algorithm: sha256WithRSAEncryption
        Issuer: CN=team270-net
        Validity
            Not Before: Nov  4 11:33:02 2023 GMT
            Not After : Oct 19 11:33:02 2026 GMT
        Subject: CN=team270-client
        Subject Public Key Info:
            Public Key Algorithm: rsaEncryption
                Public-Key: (2048 bit)
                Modulus:
                    00:d8:0c:1d:f6:c9:24:c1:c4:7a:b6:fc:23:d6:08:
                    8f:dc:26:fa:4c:29:e8:08:d5:ec:08:a2:42:a5:09:
                    60:64:9f:7f:33:a6:6b:60:47:43:fc:cb:15:f9:1f:
                    a7:8c:1a:31:4c:b8:19:d2:1b:ce:bb:89:5c:8e:ba:
                    8e:87:12:00:52:9e:ce:03:a7:26:cc:60:1e:41:ba:
                    99:90:d1:41:56:8e:bc:95:0a:71:b3:8c:67:34:4d:
                    2d:f4:a8:1f:0b:ee:0b:b5:b0:b8:c2:f9:65:5c:47:
                    b5:db:8e:81:02:9a:fc:52:db:03:6a:f6:6d:16:98:
                    71:2f:ad:42:d6:47:a7:d3:91:f8:d3:30:ef:98:25:
                    e3:79:bd:0a:3c:72:a8:e1:5a:97:41:f1:e4:a1:e7:
                    eb:7c:ea:a1:1b:1d:42:fa:16:30:f5:07:85:bb:99:
                    08:ee:40:49:94:b0:07:30:f3:31:8c:37:f5:23:72:
                    99:0d:67:e8:36:97:16:49:0b:58:3e:33:77:74:35:
                    51:c2:88:15:e3:51:05:96:de:07:cb:50:7c:44:73:
                    64:42:45:14:16:e2:0f:61:87:ef:e5:ac:de:4f:78:
                    9e:12:16:d5:d9:3c:c5:9f:79:ce:dc:f3:5c:8b:0e:
                    93:99:0a:e3:ef:ae:5a:69:20:7b:1c:b4:64:39:8a:
                    a7:01
                Exponent: 65537 (0x10001)
        X509v3 extensions:
            X509v3 Basic Constraints: 
                CA:FALSE
            X509v3 Subject Key Identifier: 
                12:D9:6F:96:7C:7D:52:CA:AD:AC:07:EA:9D:C7:7A:92:70:76:79:C4
            X509v3 Authority Key Identifier: 
                keyid:FD:FC:A5:88:06:F3:2A:9F:27:E5:96:5B:88:36:8F:7D:1C:07:E7:C1
                DirName:/CN=team270-net
                serial:68:24:9B:02:F1:89:46:B1:15:8F:E7:D6:E4:84:9B:7E:39:49:B9:DC
            X509v3 Extended Key Usage: 
                TLS Web Client Authentication
            X509v3 Key Usage: 
                Digital Signature
    Signature Algorithm: sha256WithRSAEncryption
    Signature Value:
        80:6a:bb:be:6c:2f:51:d7:d1:44:e0:d3:6a:6c:0e:a5:dc:04:
        b5:de:a3:b9:45:85:84:10:d0:33:12:0e:15:07:e8:fe:de:08:
        2c:ee:42:05:38:16:e8:e8:b7:3f:7e:3c:5a:c0:12:11:1f:41:
        42:9b:92:49:e8:d7:6c:ef:a4:7c:de:a7:98:13:8b:51:8d:5d:
        92:90:fd:aa:b5:95:3c:38:1c:03:e2:c4:d0:93:38:c4:b8:f7:
        d4:cd:c8:4a:8d:4a:02:01:b9:da:57:a6:a0:29:4c:bd:21:b8:
        fe:78:eb:33:68:8b:09:e0:6c:c1:3e:6f:5e:83:7a:77:77:e1:
        6d:7d:08:00:f5:40:d4:cb:a8:96:3f:d5:6c:83:57:fc:64:43:
        2f:86:c5:48:d3:27:36:63:10:1b:e7:27:b5:03:4d:75:15:f4:
        17:83:96:b5:e1:31:1b:46:0b:3c:9a:bb:ab:59:60:3f:08:02:
        e2:01:d3:cd:4e:05:79:5e:a2:aa:e3:26:c9:91:0a:53:69:a4:
        a8:dd:15:db:97:e9:79:54:31:38:a2:4c:66:47:c3:eb:b8:46:
        93:34:69:9a:82:24:cb:bc:2b:a6:d7:18:b7:63:50:61:62:cf:
        83:c2:7b:c9:0e:b8:b8:65:1e:18:a6:5c:47:d4:73:18:df:67:
        a6:0e:c6:86
-----BEGIN CERTIFICATE-----
MIIDXDCCAkSgAwIBAgIQKM6Ysa3dnlpTjqo5f7+zcDANBgkqhkiG9w0BAQsFADAW
MRQwEgYDVQQDDAt0ZWFtMjcwLW5ldDAeFw0yMzExMDQxMTMzMDJaFw0yNjEwMTkx
MTMzMDJaMBkxFzAVBgNVBAMMDnRlYW0yNzAtY2xpZW50MIIBIjANBgkqhkiG9w0B
AQEFAAOCAQ8AMIIBCgKCAQEA2Awd9skkwcR6tvwj1giP3Cb6TCnoCNXsCKJCpQlg
ZJ9/M6ZrYEdD/MsV+R+njBoxTLgZ0hvOu4lcjrqOhxIAUp7OA6cmzGAeQbqZkNFB
Vo68lQpxs4xnNE0t9KgfC+4LtbC4wvllXEe1246BApr8UtsDavZtFphxL61C1ken
05H40zDvmCXjeb0KPHKo4VqXQfHkoefrfOqhGx1C+hYw9QeFu5kI7kBJlLAHMPMx
jDf1I3KZDWfoNpcWSQtYPjN3dDVRwogV41EFlt4Hy1B8RHNkQkUUFuIPYYfv5aze
T3ieEhbV2TzFn3nO3PNciw6TmQrj765aaSB7HLRkOYqnAQIDAQABo4GiMIGfMAkG
A1UdEwQCMAAwHQYDVR0OBBYEFBLZb5Z8fVLKrawH6p3HepJwdnnEMFEGA1UdIwRK
MEiAFP38pYgG8yqfJ+WWW4g2j30cB+fBoRqkGDAWMRQwEgYDVQQDDAt0ZWFtMjcw
LW5ldIIUaCSbAvGJRrEVj+fW5ISbfjlJudwwEwYDVR0lBAwwCgYIKwYBBQUHAwIw
CwYDVR0PBAQDAgeAMA0GCSqGSIb3DQEBCwUAA4IBAQCAaru+bC9R19FE4NNqbA6l
3AS13qO5RYWEENAzEg4VB+j+3ggs7kIFOBbo6Lc/fjxawBIRH0FCm5JJ6Nds76R8
3qeYE4tRjV2SkP2qtZU8OBwD4sTQkzjEuPfUzchKjUoCAbnaV6agKUy9Ibj+eOsz
aIsJ4GzBPm9eg3p3d+FtfQgA9UDUy6iWP9Vsg1f8ZEMvhsVI0yc2YxAb5ye1A011
FfQXg5a14TEbRgs8mrurWWA/CALiAdPNTgV5XqKq4ybJkQpTaaSo3RXbl+l5VDE4
okxmR8PruEaTNGmagiTLvCum1xi3Y1BhYs+DwnvJDri4ZR4YplxH1HMY32emDsaG
-----END CERTIFICATE-----
