Certificate:
    Data:
        Version: 3 (0x2)
        Serial Number:
            57:19:4e:75:11:7c:6f:4d:c5:00:51:06:d8:83:30:1d
        Signature Algorithm: sha256WithRSAEncryption
        Issuer: CN=team270-net
        Validity
            Not Before: Nov  4 11:33:03 2023 GMT
            Not After : Oct 19 11:33:03 2026 GMT
        Subject: CN=team270-server
        Subject Public Key Info:
            Public Key Algorithm: rsaEncryption
                Public-Key: (2048 bit)
                Modulus:
                    00:b3:8f:3a:41:81:85:cf:74:1a:93:ea:11:4a:06:
                    bd:a3:f3:8d:e8:24:b1:85:8d:6f:d5:40:88:ee:a8:
                    e2:3d:aa:4d:7f:be:e3:f9:ad:29:d3:8c:11:52:8f:
                    0b:ca:76:8a:74:1c:2b:a9:e6:6c:f3:a6:17:8b:40:
                    95:49:af:85:84:b6:46:3b:27:39:e5:01:26:18:a5:
                    33:8e:d1:c0:d9:a2:59:42:8e:c9:19:c6:67:29:13:
                    11:b1:d3:7e:a8:df:b3:40:46:93:7d:5b:e8:e2:66:
                    79:37:00:89:62:55:f1:88:12:f8:c8:b9:e2:af:ea:
                    ac:af:54:25:44:cc:d2:dc:63:a1:71:14:26:30:e3:
                    23:44:3f:83:e1:42:73:04:dd:d4:f2:0b:1c:f1:53:
                    92:49:60:7e:ea:3a:a6:13:e7:56:2f:ee:3c:0a:ac:
                    86:9b:35:c9:cd:0e:fc:bf:55:09:43:11:22:9c:00:
                    94:d2:fd:04:cd:e6:5c:5b:37:db:f9:72:26:c1:50:
                    56:ef:15:c9:be:cd:1f:c9:0c:95:42:ee:08:80:49:
                    45:d0:94:64:0f:0e:5a:e0:0c:f0:71:f5:98:11:56:
                    20:0b:f4:39:b1:8f:2a:18:59:ec:81:f6:d7:d5:b0:
                    8b:73:e6:f8:45:37:cb:b9:7e:8c:51:ec:d9:b9:e7:
                    b5:ed
                Exponent: 65537 (0x10001)
        X509v3 extensions:
            X509v3 Basic Constraints: 
                CA:FALSE
            X509v3 Subject Key Identifier: 
                CF:AE:F2:38:BE:3A:0C:8A:A0:B9:77:70:12:A4:92:73:72:BB:31:BD
            X509v3 Authority Key Identifier: 
                keyid:FD:FC:A5:88:06:F3:2A:9F:27:E5:96:5B:88:36:8F:7D:1C:07:E7:C1
                DirName:/CN=team270-net
                serial:68:24:9B:02:F1:89:46:B1:15:8F:E7:D6:E4:84:9B:7E:39:49:B9:DC
            X509v3 Extended Key Usage: 
                TLS Web Server Authentication
            X509v3 Key Usage: 
                Digital Signature, Key Encipherment
            X509v3 Subject Alternative Name: 
                DNS:team270-server
    Signature Algorithm: sha256WithRSAEncryption
    Signature Value:
        3b:cc:62:37:0f:15:80:1d:56:02:65:4d:ab:3a:6a:6e:eb:e9:
        bd:2c:6b:c0:6b:35:72:42:67:64:cf:4e:32:11:af:79:d7:8e:
        03:2c:c7:5f:ae:e1:ab:cf:84:8f:ce:74:f7:3e:3f:68:67:e1:
        69:06:f9:3f:5a:5c:43:6e:0f:41:69:db:02:46:46:61:61:7e:
        fd:ea:ce:16:c6:81:cd:29:c0:b1:43:63:d6:c1:23:5b:e9:e5:
        6b:92:fc:68:72:a7:d3:8f:58:86:cc:71:b7:17:a0:4d:0f:ef:
        dd:c8:ef:fa:7b:a9:3f:ea:88:fa:05:66:16:c5:77:5a:ec:bf:
        9b:ab:26:06:dc:b7:db:e8:5d:97:a3:52:39:78:4d:ab:0a:b9:
        45:b4:ec:8b:67:69:bf:8e:8f:b5:b7:d2:a9:f8:c3:b1:28:98:
        a1:ac:e7:a6:12:24:1b:5b:f2:3b:27:ba:dd:57:6c:a9:eb:e4:
        d5:48:e5:64:fa:bf:2a:73:2c:cf:48:96:39:02:c9:13:f2:f8:
        7f:82:7b:f9:df:f2:67:7d:e2:20:71:3f:c5:db:30:08:8f:61:
        48:4b:06:c4:a1:a0:65:2e:e5:72:42:ed:8f:44:e9:73:c7:c7:
        33:db:2f:1e:61:54:48:a1:fc:9e:a8:49:00:8e:e2:d5:44:f0:
        4b:be:5e:e5
-----BEGIN CERTIFICATE-----
MIIDdzCCAl+gAwIBAgIQVxlOdRF8b03FAFEG2IMwHTANBgkqhkiG9w0BAQsFADAW
MRQwEgYDVQQDDAt0ZWFtMjcwLW5ldDAeFw0yMzExMDQxMTMzMDNaFw0yNjEwMTkx
MTMzMDNaMBkxFzAVBgNVBAMMDnRlYW0yNzAtc2VydmVyMIIBIjANBgkqhkiG9w0B
AQEFAAOCAQ8AMIIBCgKCAQEAs486QYGFz3Qak+oRSga9o/ON6CSxhY1v1UCI7qji
PapNf77j+a0p04wRUo8LynaKdBwrqeZs86YXi0CVSa+FhLZGOyc55QEmGKUzjtHA
2aJZQo7JGcZnKRMRsdN+qN+zQEaTfVvo4mZ5NwCJYlXxiBL4yLnir+qsr1QlRMzS
3GOhcRQmMOMjRD+D4UJzBN3U8gsc8VOSSWB+6jqmE+dWL+48CqyGmzXJzQ78v1UJ
QxEinACU0v0EzeZcWzfb+XImwVBW7xXJvs0fyQyVQu4IgElF0JRkDw5a4AzwcfWY
EVYgC/Q5sY8qGFnsgfbX1bCLc+b4RTfLuX6MUezZuee17QIDAQABo4G9MIG6MAkG
A1UdEwQCMAAwHQYDVR0OBBYEFM+u8ji+OgyKoLl3cBKkknNyuzG9MFEGA1UdIwRK
MEiAFP38pYgG8yqfJ+WWW4g2j30cB+fBoRqkGDAWMRQwEgYDVQQDDAt0ZWFtMjcw
LW5ldIIUaCSbAvGJRrEVj+fW5ISbfjlJudwwEwYDVR0lBAwwCgYIKwYBBQUHAwEw
CwYDVR0PBAQDAgWgMBkGA1UdEQQSMBCCDnRlYW0yNzAtc2VydmVyMA0GCSqGSIb3
DQEBCwUAA4IBAQA7zGI3DxWAHVYCZU2rOmpu6+m9LGvAazVyQmdkz04yEa95144D
LMdfruGrz4SPznT3Pj9oZ+FpBvk/WlxDbg9BadsCRkZhYX796s4WxoHNKcCxQ2PW
wSNb6eVrkvxocqfTj1iGzHG3F6BND+/dyO/6e6k/6oj6BWYWxXda7L+bqyYG3Lfb
6F2Xo1I5eE2rCrlFtOyLZ2m/jo+1t9Kp+MOxKJihrOemEiQbW/I7J7rdV2yp6+TV
SOVk+r8qcyzPSJY5AskT8vh/gnv53/JnfeIgcT/F2zAIj2FISwbEoaBlLuVyQu2P
ROlzx8cz2y8eYVRIofyeqEkAjuLVRPBLvl7l
-----END CERTIFICATE-----
