Certificate:
    Data:
        Version: 3 (0x2)
        Serial Number:
            99:bd:65:66:31:ff:c8:7d:8f:66:39:46:01:ca:ba:18
        Signature Algorithm: sha256WithRSAEncryption
        Issuer: CN=team270-net
        Validity
            Not Before: Nov  3 20:44:14 2023 GMT
            Not After : Oct 18 20:44:14 2026 GMT
        Subject: CN=team270-client
        Subject Public Key Info:
            Public Key Algorithm: rsaEncryption
                Public-Key: (2048 bit)
                Modulus:
                    00:b9:e7:36:4c:85:a1:9f:74:57:98:86:6e:85:19:
                    ca:03:45:7f:c0:d2:db:5c:9b:9e:de:4d:bf:8c:66:
                    df:04:ea:d5:08:08:1b:22:a7:ed:74:3b:77:73:20:
                    c2:2e:e5:d1:89:ba:79:23:79:af:98:37:8c:e8:3f:
                    a8:a2:2a:97:bc:4e:6e:55:3e:54:68:84:65:af:cc:
                    39:12:58:4f:4d:90:6d:1c:89:89:33:f1:9e:c3:3e:
                    72:2c:33:8e:be:fd:14:7c:2d:ce:1f:a6:53:19:d1:
                    e9:6b:2f:32:23:a1:12:5d:d3:27:71:ab:8f:b6:da:
                    70:46:3a:66:f7:c8:65:f1:7b:9f:40:67:c6:ef:ec:
                    24:b9:27:f4:37:1f:fa:ab:c0:7c:b1:d6:b7:03:ad:
                    59:2d:20:59:5c:47:e7:63:26:37:9d:af:55:31:40:
                    6c:c9:70:2e:b6:0f:40:04:df:b7:b4:cc:f9:91:60:
                    c9:87:81:5b:4d:cd:bb:7a:62:48:d6:0e:58:46:04:
                    86:35:18:83:cc:64:12:56:da:7d:cb:3d:99:ec:a9:
                    fa:de:e3:07:19:a0:01:94:a9:c7:31:31:a9:d1:d3:
                    48:19:aa:e2:e7:59:ef:3a:3f:d4:b4:78:99:b9:d0:
                    17:f7:be:c2:70:db:2b:23:d6:ef:3f:39:6f:aa:05:
                    44:a9
                Exponent: 65537 (0x10001)
        X509v3 extensions:
            X509v3 Basic Constraints: 
                CA:FALSE
            X509v3 Subject Key Identifier: 
                F7:40:12:88:72:76:B9:D8:7D:2E:D6:95:6D:5D:16:E1:77:6D:32:22
            X509v3 Authority Key Identifier: 
                keyid:B2:15:49:7F:AE:C7:72:56:2D:8A:3C:5F:BB:28:DC:90:4F:BA:05:48
                DirName:/CN=team270-net
                serial:1B:B0:67:29:C2:E6:B4:31:56:6E:36:C1:F8:C7:52:61:6D:3A:B7:DF
            X509v3 Extended Key Usage: 
                TLS Web Client Authentication
            X509v3 Key Usage: 
                Digital Signature
    Signature Algorithm: sha256WithRSAEncryption
    Signature Value:
        2b:f4:f4:cf:43:70:d7:2d:25:5e:2a:8b:f7:89:78:5e:38:c3:
        6e:b7:7a:9a:c5:57:17:d2:07:3a:ea:b0:eb:eb:57:57:5c:76:
        01:f9:d8:4f:b3:d4:7c:93:e0:dc:ab:41:23:70:9b:1d:3d:0f:
        3f:5d:8d:6a:cb:05:24:3a:d3:ab:68:58:0d:2b:1d:bd:1e:cf:
        5e:77:6e:fb:8c:d0:79:df:ce:fd:58:0d:0b:43:12:d3:17:dc:
        e1:1d:b8:e8:7c:d0:73:83:b8:82:2e:11:cf:bc:54:d4:3b:30:
        a2:ed:af:6e:82:0a:53:76:7b:ce:21:78:11:a5:53:e3:fb:69:
        13:68:d6:d8:a3:a0:98:7f:f8:f6:4a:e3:e4:e8:89:00:f3:57:
        e5:11:07:4f:3d:62:f1:b2:c1:58:49:9b:4d:52:fd:65:7c:d6:
        d2:fc:aa:7e:8b:ba:03:d9:c6:22:77:8b:d7:5b:35:55:08:50:
        98:db:9f:a9:e9:5b:0e:6f:6c:33:a5:76:a6:7b:3f:5d:79:94:
        f1:c6:17:00:17:92:ed:b2:79:50:8b:b0:03:11:16:7a:d3:e7:
        70:c6:9c:76:2b:99:91:0d:d1:11:14:4f:85:28:d7:10:9c:bc:
        a5:17:cb:33:38:47:7a:03:98:5c:a6:b3:be:e2:ca:29:ee:72:
        1b:7e:cf:91
-----BEGIN CERTIFICATE-----
MIIDXTCCAkWgAwIBAgIRAJm9ZWYx/8h9j2Y5RgHKuhgwDQYJKoZIhvcNAQELBQAw
FjEUMBIGA1UEAwwLdGVhbTI3MC1uZXQwHhcNMjMxMTAzMjA0NDE0WhcNMjYxMDE4
MjA0NDE0WjAZMRcwFQYDVQQDDA50ZWFtMjcwLWNsaWVudDCCASIwDQYJKoZIhvcN
AQEBBQADggEPADCCAQoCggEBALnnNkyFoZ90V5iGboUZygNFf8DS21ybnt5Nv4xm
3wTq1QgIGyKn7XQ7d3Mgwi7l0Ym6eSN5r5g3jOg/qKIql7xOblU+VGiEZa/MORJY
T02QbRyJiTPxnsM+ciwzjr79FHwtzh+mUxnR6WsvMiOhEl3TJ3Grj7bacEY6ZvfI
ZfF7n0Bnxu/sJLkn9Dcf+qvAfLHWtwOtWS0gWVxH52MmN52vVTFAbMlwLrYPQATf
t7TM+ZFgyYeBW03Nu3piSNYOWEYEhjUYg8xkElbafcs9meyp+t7jBxmgAZSpxzEx
qdHTSBmq4udZ7zo/1LR4mbnQF/e+wnDbKyPW7z85b6oFRKkCAwEAAaOBojCBnzAJ
BgNVHRMEAjAAMB0GA1UdDgQWBBT3QBKIcna52H0u1pVtXRbhd20yIjBRBgNVHSME
SjBIgBSyFUl/rsdyVi2KPF+7KNyQT7oFSKEapBgwFjEUMBIGA1UEAwwLdGVhbTI3
MC1uZXSCFBuwZynC5rQxVm42wfjHUmFtOrffMBMGA1UdJQQMMAoGCCsGAQUFBwMC
MAsGA1UdDwQEAwIHgDANBgkqhkiG9w0BAQsFAAOCAQEAK/T0z0Nw1y0lXiqL94l4
XjjDbrd6msVXF9IHOuqw6+tXV1x2AfnYT7PUfJPg3KtBI3CbHT0PP12NassFJDrT
q2hYDSsdvR7PXndu+4zQed/O/VgNC0MS0xfc4R246HzQc4O4gi4Rz7xU1Dswou2v
boIKU3Z7ziF4EaVT4/tpE2jW2KOgmH/49krj5OiJAPNX5REHTz1i8bLBWEmbTVL9
ZXzW0vyqfou6A9nGIneL11s1VQhQmNufqelbDm9sM6V2pns/XXmU8cYXABeS7bJ5
UIuwAxEWetPncMacdiuZkQ3RERRPhSjXEJy8pRfLMzhHegOYXKazvuLKKe5yG37P
kQ==
-----END CERTIFICATE-----
