Certificate:
    Data:
        Version: 3 (0x2)
        Serial Number:
            e2:50:b8:6c:a7:14:00:2d:71:80:6a:81:6f:ae:33:84
        Signature Algorithm: sha256WithRSAEncryption
        Issuer: CN=team270-net
        Validity
            Not Before: Nov  4 10:45:41 2023 GMT
            Not After : Oct 19 10:45:41 2026 GMT
        Subject: CN=team270-server
        Subject Public Key Info:
            Public Key Algorithm: rsaEncryption
                Public-Key: (2048 bit)
                Modulus:
                    00:ce:c4:5a:36:df:bc:fe:e2:13:64:48:1d:70:19:
                    05:40:62:59:4f:45:77:58:13:ac:d7:42:e7:2a:2d:
                    ce:14:40:cf:1f:9a:c5:08:74:0e:5b:87:46:9a:87:
                    e2:8a:de:fe:ce:7c:55:7e:b0:8b:cb:7f:62:47:81:
                    5d:e8:52:ec:5a:2d:93:cf:da:b4:a2:9a:ae:6c:14:
                    07:6f:8e:4d:4d:f5:04:8b:9a:0f:78:2d:63:4b:e5:
                    3c:ae:07:bc:13:ff:c9:fd:4a:5e:8b:08:41:5f:ae:
                    5f:20:95:fc:1d:4a:12:d2:08:8f:43:21:26:d5:7c:
                    17:3c:51:ac:60:69:4c:bd:bc:d9:19:de:ec:43:6a:
                    bd:67:18:3c:aa:10:58:b0:95:18:90:e3:07:bc:74:
                    0e:f1:d8:ae:81:ce:0f:a3:9f:ae:9f:55:27:cb:bd:
                    8d:82:8a:7d:53:31:8f:da:54:c0:e6:6d:a5:01:87:
                    79:ad:aa:e8:2b:47:bc:42:10:9f:a4:fc:1e:be:9a:
                    ae:ef:21:bc:e4:3f:68:6a:fe:00:28:bd:cf:05:35:
                    d2:cc:b4:e1:ea:6f:71:72:d9:95:84:fe:ff:05:59:
                    75:34:db:c3:5e:e6:d1:d1:40:42:69:5f:91:1a:9e:
                    98:64:6c:9a:7c:02:47:b8:92:32:c9:f6:eb:c9:f9:
                    0b:d5
                Exponent: 65537 (0x10001)
        X509v3 extensions:
            X509v3 Basic Constraints: 
                CA:FALSE
            X509v3 Subject Key Identifier: 
                84:37:7E:FA:36:F8:84:2D:CC:FC:13:1D:28:B8:EF:F1:E3:C3:20:8F
            X509v3 Authority Key Identifier: 
                keyid:73:4E:33:BC:58:01:0B:19:93:BC:1F:58:4B:C3:8A:50:08:2A:62:E2
                DirName:/CN=team270-net
                serial:54:C7:7F:D4:85:52:20:97:68:67:DE:3F:22:7A:B3:DC:DF:F0:37:D4
            X509v3 Extended Key Usage: 
                TLS Web Server Authentication
            X509v3 Key Usage: 
                Digital Signature, Key Encipherment
            X509v3 Subject Alternative Name: 
                DNS:team270-server
    Signature Algorithm: sha256WithRSAEncryption
    Signature Value:
        7b:65:6a:59:c0:00:8b:ff:24:49:00:07:90:2a:1c:2c:68:f0:
        a5:bd:32:5f:e0:9c:23:f2:d4:9d:33:d8:92:70:21:bb:14:02:
        62:79:15:16:72:31:09:ab:0b:5c:62:59:b6:f2:61:69:c8:f8:
        9b:85:b6:d7:fe:c5:bc:0d:6c:c2:44:f8:23:8e:d9:b2:b7:d3:
        b2:45:e9:9e:70:e6:ab:93:a2:77:aa:e5:cc:3e:7d:ce:27:57:
        84:80:92:c8:e4:87:e3:b0:e0:65:23:0f:3f:4a:86:e2:45:42:
        0e:46:6e:92:d8:ff:6d:84:3c:2e:75:f5:fd:21:6b:af:0e:f9:
        cc:fb:62:98:55:6b:72:5a:86:31:07:08:d7:f7:16:54:85:fb:
        28:36:89:67:a1:1e:c9:b4:b4:2d:65:ae:7e:93:c0:4f:6c:33:
        48:36:fe:78:f0:c9:51:31:36:c0:de:ef:fa:9d:9d:8f:60:c9:
        10:1e:98:7a:70:52:51:06:f3:60:08:b0:d7:85:c9:03:e2:11:
        87:4a:47:69:7b:fd:fe:d5:8e:66:8e:28:b1:8f:f0:8b:80:16:
        20:e0:79:d8:b0:8a:19:b9:ae:b5:8b:eb:05:b7:1d:d9:2c:db:
        9b:8c:24:5a:9a:01:a8:4b:83:c6:4f:45:32:28:14:4e:6c:fe:
        94:99:17:ef
-----BEGIN CERTIFICATE-----
MIIDeDCCAmCgAwIBAgIRAOJQuGynFAAtcYBqgW+uM4QwDQYJKoZIhvcNAQELBQAw
FjEUMBIGA1UEAwwLdGVhbTI3MC1uZXQwHhcNMjMxMTA0MTA0NTQxWhcNMjYxMDE5
MTA0NTQxWjAZMRcwFQYDVQQDDA50ZWFtMjcwLXNlcnZlcjCCASIwDQYJKoZIhvcN
AQEBBQADggEPADCCAQoCggEBAM7EWjbfvP7iE2RIHXAZBUBiWU9Fd1gTrNdC5yot
zhRAzx+axQh0DluHRpqH4ore/s58VX6wi8t/YkeBXehS7Fotk8/atKKarmwUB2+O
TU31BIuaD3gtY0vlPK4HvBP/yf1KXosIQV+uXyCV/B1KEtIIj0MhJtV8FzxRrGBp
TL282Rne7ENqvWcYPKoQWLCVGJDjB7x0DvHYroHOD6Ofrp9VJ8u9jYKKfVMxj9pU
wOZtpQGHea2q6CtHvEIQn6T8Hr6aru8hvOQ/aGr+ACi9zwU10sy04epvcXLZlYT+
/wVZdTTbw17m0dFAQmlfkRqemGRsmnwCR7iSMsn268n5C9UCAwEAAaOBvTCBujAJ
BgNVHRMEAjAAMB0GA1UdDgQWBBSEN376NviELcz8Ex0ouO/x48MgjzBRBgNVHSME
SjBIgBRzTjO8WAELGZO8H1hLw4pQCCpi4qEapBgwFjEUMBIGA1UEAwwLdGVhbTI3
MC1uZXSCFFTHf9SFUiCXaGfePyJ6s9zf8DfUMBMGA1UdJQQMMAoGCCsGAQUFBwMB
MAsGA1UdDwQEAwIFoDAZBgNVHREEEjAQgg50ZWFtMjcwLXNlcnZlcjANBgkqhkiG
9w0BAQsFAAOCAQEAe2VqWcAAi/8kSQAHkCocLGjwpb0yX+CcI/LUnTPYknAhuxQC
YnkVFnIxCasLXGJZtvJhacj4m4W21/7FvA1swkT4I47ZsrfTskXpnnDmq5Oid6rl
zD59zidXhICSyOSH47DgZSMPP0qG4kVCDkZuktj/bYQ8LnX1/SFrrw75zPtimFVr
clqGMQcI1/cWVIX7KDaJZ6EeybS0LWWufpPAT2wzSDb+ePDJUTE2wN7v+p2dj2DJ
EB6YenBSUQbzYAiw14XJA+IRh0pHaXv9/tWOZo4osY/wi4AWIOB52LCKGbmutYvr
Bbcd2Szbm4wkWpoBqEuDxk9FMigUTmz+lJkX7w==
-----END CERTIFICATE-----
