Certificate:
    Data:
        Version: 3 (0x2)
        Serial Number:
            d0:39:f7:90:8e:6b:b2:22:40:85:7e:ef:08:7e:0b:f2
        Signature Algorithm: sha256WithRSAEncryption
        Issuer: CN=team385-net
        Validity
            Not Before: Nov  3 20:46:12 2023 GMT
            Not After : Oct 18 20:46:12 2026 GMT
        Subject: CN=team385-client
        Subject Public Key Info:
            Public Key Algorithm: rsaEncryption
                Public-Key: (2048 bit)
                Modulus:
                    00:be:22:29:42:20:f9:c4:37:1f:b9:7d:f7:e1:42:
                    cb:3e:56:84:d2:09:1b:ab:9d:e3:3b:64:42:90:22:
                    30:5b:17:8c:6e:59:2c:55:9a:ea:a8:2b:72:89:22:
                    cc:75:d9:3c:2b:d2:cc:f2:54:46:ac:91:4a:bc:83:
                    78:7e:fa:9c:29:29:b8:7f:bc:da:5e:93:24:4e:2e:
                    70:45:e9:fb:6f:cb:76:2b:4f:a3:33:dd:86:d2:8a:
                    7a:0a:93:86:8a:57:34:72:6a:6c:4c:e8:12:f0:b5:
                    99:b3:60:9c:ec:e9:d1:2b:47:c2:0c:a9:8b:a5:3b:
                    fb:20:9e:10:24:93:3a:af:81:a5:7e:f9:ff:80:c2:
                    de:41:6c:01:f9:f0:ef:ff:99:be:96:4e:f9:54:43:
                    11:8c:fb:2b:9a:b4:ca:b6:6b:55:27:bc:a5:63:4e:
                    95:28:f5:bc:35:ab:de:58:97:f9:cc:a6:46:78:0d:
                    10:65:26:c7:7e:6b:89:b2:71:9b:f9:4c:e1:aa:ba:
                    08:ca:7c:e8:c8:43:62:a1:11:3a:65:c9:d0:b1:64:
                    1a:cb:34:a5:c5:a8:e2:92:2c:8d:7c:63:fa:ab:d5:
                    df:56:6d:88:ca:04:c6:6c:9a:22:f4:0a:21:42:16:
                    aa:d2:1b:13:5e:77:06:7b:4f:6a:2d:c9:41:f9:d1:
                    3b:f5
                Exponent: 65537 (0x10001)
        X509v3 extensions:
            X509v3 Basic Constraints: 
                CA:FALSE
            X509v3 Subject Key Identifier: 
                8E:E3:6E:19:4B:74:06:A3:1A:10:1D:12:95:19:7C:17:94:12:A4:81
            X509v3 Authority Key Identifier: 
                keyid:F4:AC:CE:BD:E3:57:FE:DF:45:F2:22:44:8E:C6:E9:C3:12:37:F6:9D
                DirName:/CN=team385-net
                serial:5F:2C:CD:C7:E4:F4:C5:4E:E3:58:74:A5:88:67:F1:34:B5:96:0E:55
            X509v3 Extended Key Usage: 
                TLS Web Client Authentication
            X509v3 Key Usage: 
                Digital Signature
    Signature Algorithm: sha256WithRSAEncryption
    Signature Value:
        3a:e5:21:f9:b9:33:53:9d:fd:26:dc:7b:52:67:45:dc:6f:99:
        04:05:8c:86:e2:1f:88:df:9d:a8:0d:16:50:5f:90:53:65:21:
        6f:83:b1:88:2f:18:e4:bf:4d:45:95:81:a5:5b:18:93:1e:dc:
        97:13:51:f8:a1:49:5d:99:55:85:08:78:e8:0e:ce:ee:ca:21:
        99:ad:3e:c2:f4:32:a2:b5:0c:e0:58:1d:16:3b:8a:47:19:c5:
        c9:8e:ab:7a:23:47:9a:48:8b:1b:ce:36:67:52:2c:24:1b:63:
        72:50:4e:9f:d0:fe:48:59:0c:7a:60:a7:6e:91:82:65:6d:d7:
        88:ee:68:4d:d5:11:ca:cb:7c:7a:2d:6f:12:e9:72:a0:14:4c:
        8f:15:5f:95:47:6a:ef:dc:11:8b:d1:4b:b1:ba:53:0f:86:99:
        f8:88:c9:38:e9:42:08:46:68:b5:c2:2e:d1:97:bd:33:58:98:
        d8:0c:35:40:2f:da:34:17:84:80:30:63:24:31:35:5f:6d:bc:
        dc:db:66:d9:bb:4b:d2:c7:6a:fb:2b:bf:7d:b1:37:ad:35:ab:
        91:fc:c5:8d:98:e3:9b:ef:12:6a:eb:8e:f7:26:81:79:84:bc:
        75:00:65:33:9f:93:7d:0b:a4:fd:4f:27:e1:d4:95:6c:aa:c6:
        03:40:8e:2f
-----BEGIN CERTIFICATE-----
MIIDXTCCAkWgAwIBAgIRANA595COa7IiQIV+7wh+C/IwDQYJKoZIhvcNAQELBQAw
FjEUMBIGA1UEAwwLdGVhbTM4NS1uZXQwHhcNMjMxMTAzMjA0NjEyWhcNMjYxMDE4
MjA0NjEyWjAZMRcwFQYDVQQDDA50ZWFtMzg1LWNsaWVudDCCASIwDQYJKoZIhvcN
AQEBBQADggEPADCCAQoCggEBAL4iKUIg+cQ3H7l99+FCyz5WhNIJG6ud4ztkQpAi
MFsXjG5ZLFWa6qgrcokizHXZPCvSzPJURqyRSryDeH76nCkpuH+82l6TJE4ucEXp
+2/LditPozPdhtKKegqThopXNHJqbEzoEvC1mbNgnOzp0StHwgypi6U7+yCeECST
Oq+BpX75/4DC3kFsAfnw7/+ZvpZO+VRDEYz7K5q0yrZrVSe8pWNOlSj1vDWr3liX
+cymRngNEGUmx35ribJxm/lM4aq6CMp86MhDYqEROmXJ0LFkGss0pcWo4pIsjXxj
+qvV31ZtiMoExmyaIvQKIUIWqtIbE153BntPai3JQfnRO/UCAwEAAaOBojCBnzAJ
BgNVHRMEAjAAMB0GA1UdDgQWBBSO424ZS3QGoxoQHRKVGXwXlBKkgTBRBgNVHSME
SjBIgBT0rM6941f+30XyIkSOxunDEjf2naEapBgwFjEUMBIGA1UEAwwLdGVhbTM4
NS1uZXSCFF8szcfk9MVO41h0pYhn8TS1lg5VMBMGA1UdJQQMMAoGCCsGAQUFBwMC
MAsGA1UdDwQEAwIHgDANBgkqhkiG9w0BAQsFAAOCAQEAOuUh+bkzU539Jtx7UmdF
3G+ZBAWMhuIfiN+dqA0WUF+QU2Uhb4OxiC8Y5L9NRZWBpVsYkx7clxNR+KFJXZlV
hQh46A7O7sohma0+wvQyorUM4FgdFjuKRxnFyY6reiNHmkiLG842Z1IsJBtjclBO
n9D+SFkMemCnbpGCZW3XiO5oTdURyst8ei1vEulyoBRMjxVflUdq79wRi9FLsbpT
D4aZ+IjJOOlCCEZotcIu0Ze9M1iY2Aw1QC/aNBeEgDBjJDE1X2283Ntm2btL0sdq
+yu/fbE3rTWrkfzFjZjjm+8SauuO9yaBeYS8dQBlM5+TfQuk/U8n4dSVbKrGA0CO
Lw==
-----END CERTIFICATE-----
