Certificate:
    Data:
        Version: 3 (0x2)
        Serial Number:
            61:80:a1:fc:a0:1b:05:7f:3c:74:06:d9:15:ba:b9:3f
        Signature Algorithm: sha256WithRSAEncryption
        Issuer: CN=team462-net
        Validity
            Not Before: Nov  4 11:37:55 2023 GMT
            Not After : Oct 19 11:37:55 2026 GMT
        Subject: CN=team462-server
        Subject Public Key Info:
            Public Key Algorithm: rsaEncryption
                Public-Key: (2048 bit)
                Modulus:
                    00:c0:05:be:6b:66:99:31:0f:f2:e7:36:9d:3a:19:
                    80:bf:d7:d7:d9:26:5b:93:be:78:cb:4d:17:25:c1:
                    f0:f7:56:33:b4:c5:e7:1a:a0:31:8e:b7:6b:3d:67:
                    60:66:79:b2:af:78:74:74:70:92:b4:b3:ae:2b:2f:
                    0a:dd:f4:7b:de:af:39:74:57:39:59:61:53:b1:3e:
                    62:ae:86:8f:0e:0b:52:a3:ab:d0:61:fb:d7:be:e2:
                    3b:60:7d:a7:e1:6c:66:b9:e3:b2:ef:d5:ab:32:a1:
                    30:2e:f5:bc:f5:46:5d:e2:2b:b4:1b:d5:2f:aa:38:
                    86:c0:ea:d6:40:a9:7a:9f:ed:de:33:84:46:ba:ac:
                    aa:4e:c4:9c:e3:2a:7f:23:66:82:5e:1a:c8:a9:4a:
                    0f:06:f7:72:ce:a2:c5:42:22:c6:5d:1e:36:81:96:
                    17:7a:9a:76:ac:d1:ee:fd:36:6e:2c:3a:c6:e7:58:
                    42:fe:8c:16:78:bc:5c:35:fb:81:a1:99:e8:16:9f:
                    62:ce:90:e5:22:96:53:29:c4:66:2f:2c:98:23:39:
                    bc:8b:f1:db:46:d8:85:32:62:ec:c6:96:99:d5:e0:
                    9b:da:51:38:28:f1:f4:18:6e:2e:cc:25:fe:90:62:
                    cf:14:07:fd:7f:3c:af:35:d3:4f:51:97:1f:d8:b9:
                    a8:d1
                Exponent: 65537 (0x10001)
        X509v3 extensions:
            X509v3 Basic Constraints: 
                CA:FALSE
            X509v3 Subject Key Identifier: 
                AD:C4:12:50:15:02:07:33:98:CA:C3:16:4F:51:E7:65:2B:41:BE:EA
            X509v3 Authority Key Identifier: 
                keyid:67:31:74:26:C9:48:36:65:94:60:10:A2:6B:3A:15:48:5B:94:3A:99
                DirName:/CN=team462-net
                serial:76:F2:C6:CB:0C:48:23:E0:C8:C0:19:D0:97:ED:47:DE:9C:AD:01:8C
            X509v3 Extended Key Usage: 
                TLS Web Server Authentication
            X509v3 Key Usage: 
                Digital Signature, Key Encipherment
            X509v3 Subject Alternative Name: 
                DNS:team462-server
    Signature Algorithm: sha256WithRSAEncryption
    Signature Value:
        55:b4:2f:d4:98:cf:06:cb:4e:b3:e7:e6:27:da:1f:1f:d3:8d:
        ff:23:51:0e:a0:cf:15:2b:e6:51:fb:a3:47:b8:ec:11:12:93:
        27:21:bf:77:ac:8c:f9:b2:6e:c6:56:9a:22:84:79:09:92:f3:
        af:9c:73:66:04:39:84:84:cb:41:5f:db:73:80:4b:40:5c:fb:
        a8:98:e5:c0:64:f7:5b:a4:aa:c4:63:ca:47:42:25:45:f1:8a:
        cb:3a:e5:9d:45:22:a0:f2:15:dc:c0:52:9b:34:1b:92:06:ab:
        13:1c:fa:f7:0c:fc:6d:4e:76:b2:75:69:5f:df:17:2c:6c:4d:
        4e:b1:5f:ce:ae:f8:66:99:4a:4f:f8:b1:94:96:b7:49:10:6c:
        d9:c5:ec:31:d6:e0:a4:75:4c:52:58:60:f9:42:e9:b4:11:35:
        1d:9e:fa:4f:65:a7:bd:54:a2:3c:e2:35:51:5e:22:fa:a9:bf:
        b2:29:7b:f6:81:9c:32:67:fa:b2:be:32:48:e8:dc:02:15:86:
        c5:77:cb:31:08:00:c4:d0:dd:71:73:78:57:cc:2f:00:8f:c9:
        ba:95:28:3b:a9:6a:f0:ed:9a:da:41:9c:f5:ba:ff:a1:35:e6:
        7e:23:97:3c:0f:96:c1:37:65:8a:ff:24:f6:76:91:4c:68:ea:
        f0:59:bb:13
-----BEGIN CERTIFICATE-----
MIIDdzCCAl+gAwIBAgIQYYCh/KAbBX88dAbZFbq5PzANBgkqhkiG9w0BAQsFADAW
MRQwEgYDVQQDDAt0ZWFtNDYyLW5ldDAeFw0yMzExMDQxMTM3NTVaFw0yNjEwMTkx
MTM3NTVaMBkxFzAVBgNVBAMMDnRlYW00NjItc2VydmVyMIIBIjANBgkqhkiG9w0B
AQEFAAOCAQ8AMIIBCgKCAQEAwAW+a2aZMQ/y5zadOhmAv9fX2SZbk754y00XJcHw
91YztMXnGqAxjrdrPWdgZnmyr3h0dHCStLOuKy8K3fR73q85dFc5WWFTsT5iroaP
DgtSo6vQYfvXvuI7YH2n4WxmueOy79WrMqEwLvW89UZd4iu0G9UvqjiGwOrWQKl6
n+3eM4RGuqyqTsSc4yp/I2aCXhrIqUoPBvdyzqLFQiLGXR42gZYXepp2rNHu/TZu
LDrG51hC/owWeLxcNfuBoZnoFp9izpDlIpZTKcRmLyyYIzm8i/HbRtiFMmLsxpaZ
1eCb2lE4KPH0GG4uzCX+kGLPFAf9fzyvNdNPUZcf2Lmo0QIDAQABo4G9MIG6MAkG
A1UdEwQCMAAwHQYDVR0OBBYEFK3EElAVAgczmMrDFk9R52UrQb7qMFEGA1UdIwRK
MEiAFGcxdCbJSDZllGAQoms6FUhblDqZoRqkGDAWMRQwEgYDVQQDDAt0ZWFtNDYy
LW5ldIIUdvLGywxII+DIwBnQl+1H3pytAYwwEwYDVR0lBAwwCgYIKwYBBQUHAwEw
CwYDVR0PBAQDAgWgMBkGA1UdEQQSMBCCDnRlYW00NjItc2VydmVyMA0GCSqGSIb3
DQEBCwUAA4IBAQBVtC/UmM8Gy06z5+Yn2h8f043/I1EOoM8VK+ZR+6NHuOwREpMn
Ib93rIz5sm7GVpoihHkJkvOvnHNmBDmEhMtBX9tzgEtAXPuomOXAZPdbpKrEY8pH
QiVF8YrLOuWdRSKg8hXcwFKbNBuSBqsTHPr3DPxtTnaydWlf3xcsbE1OsV/Orvhm
mUpP+LGUlrdJEGzZxewx1uCkdUxSWGD5Qum0ETUdnvpPZae9VKI84jVRXiL6qb+y
KXv2gZwyZ/qyvjJI6NwCFYbFd8sxCADE0N1xc3hXzC8Aj8m6lSg7qWrw7ZraQZz1
uv+hNeZ+I5c8D5bBN2WK/yT2dpFMaOrwWbsT
-----END CERTIFICATE-----
