Certificate:
    Data:
        Version: 3 (0x2)
        Serial Number:
            cf:f5:2e:f4:59:29:f5:eb:a2:83:6d:f3:9e:51:b1:0e
        Signature Algorithm: sha256WithRSAEncryption
        Issuer: CN=team462-net
        Validity
            Not Before: Nov  4 10:48:50 2023 GMT
            Not After : Oct 19 10:48:50 2026 GMT
        Subject: CN=team462-client
        Subject Public Key Info:
            Public Key Algorithm: rsaEncryption
                Public-Key: (2048 bit)
                Modulus:
                    00:bf:a8:38:58:4b:e8:f4:e9:f7:c9:0d:1b:57:8d:
                    48:51:69:b0:0b:df:22:46:95:9e:1a:7f:d3:6c:8d:
                    f2:d1:68:cb:81:1b:20:2d:8a:7a:1a:cd:df:8f:89:
                    e6:cc:55:f1:cb:79:d5:d9:69:12:6d:ff:71:be:7c:
                    3d:45:e6:17:71:73:ba:ae:ea:52:35:6a:ca:27:27:
                    09:a5:e6:aa:ad:b9:9a:e6:09:0e:e3:57:a4:d1:97:
                    3a:ac:a7:71:98:b8:9b:50:c6:bf:a9:91:8b:0b:c3:
                    7f:23:71:40:fe:cf:33:f4:16:58:71:ef:6f:09:7f:
                    3d:89:34:f5:1d:8c:3c:b2:e3:95:0f:aa:bd:b4:31:
                    3c:0c:fe:00:d1:6b:89:3d:f0:61:1c:c5:ac:05:f9:
                    b9:30:f5:1e:69:88:d7:0a:38:93:6c:90:5e:4e:e8:
                    31:2c:f7:be:6d:db:40:73:21:64:00:b5:74:c8:2d:
                    81:c3:11:67:13:52:c6:be:9a:fa:f5:3b:12:5b:d0:
                    dd:82:65:ae:16:0d:74:54:51:fc:16:93:f0:d8:e6:
                    8b:95:4f:be:86:0c:79:a1:13:e0:fa:e8:bc:ef:bc:
                    d8:aa:63:ae:11:6a:de:d7:89:1f:30:79:b2:35:52:
                    24:71:3d:6c:30:fd:2f:d2:09:23:d8:6c:95:35:e0:
                    53:2d
                Exponent: 65537 (0x10001)
        X509v3 extensions:
            X509v3 Basic Constraints: 
                CA:FALSE
            X509v3 Subject Key Identifier: 
                C3:D4:9B:42:44:D8:7D:BF:5B:18:62:9C:6D:A2:59:BD:A3:0E:6D:E9
            X509v3 Authority Key Identifier: 
                keyid:7D:61:7A:7B:4B:A0:1C:38:E1:68:55:BE:A6:6C:F4:4B:3A:B7:25:72
                DirName:/CN=team462-net
                serial:43:30:F9:B0:79:97:DE:DC:8E:E4:1A:54:37:BA:E1:9F:23:98:C1:E2
            X509v3 Extended Key Usage: 
                TLS Web Client Authentication
            X509v3 Key Usage: 
                Digital Signature
    Signature Algorithm: sha256WithRSAEncryption
    Signature Value:
        55:4a:d9:d7:23:d1:2e:9e:33:ab:1d:4c:f8:23:e7:28:df:a7:
        b2:5d:25:21:89:64:c6:ba:d3:84:12:58:6a:e3:bd:74:6c:83:
        de:fd:dd:98:e7:38:f9:d7:6c:40:c2:4a:21:a8:60:15:b2:a7:
        33:6f:8a:c9:1c:aa:c3:f1:54:2c:c6:3b:f3:e0:5a:ed:f8:3f:
        62:db:d6:e4:3e:ca:4e:42:1d:b4:9a:72:f0:63:e7:65:57:64:
        1b:6b:b9:94:cf:14:5d:da:f1:a4:b7:ac:48:bb:64:74:b6:cd:
        96:e4:b6:06:ce:e1:92:77:00:a1:08:4d:8b:8b:3e:7b:51:ae:
        4d:46:03:67:d1:37:4e:85:92:6e:98:b8:e6:23:95:79:86:4f:
        bf:2a:6c:1d:d2:5a:5f:5e:7f:06:68:7e:d1:51:31:f3:ea:88:
        f9:c2:2c:23:46:b1:c2:cf:36:54:91:04:72:6c:13:16:79:49:
        70:8c:8d:59:0a:64:e1:36:f4:0a:a5:b2:42:bc:05:b8:dc:15:
        a3:0d:a5:6d:79:bc:d4:1e:0e:9a:b9:45:68:5f:80:6c:34:05:
        a0:87:00:f4:ab:f1:58:0f:d1:cc:4b:e2:a7:96:51:7a:a5:04:
        3d:b6:ae:0c:a2:e1:48:f7:66:1c:f4:00:07:cd:fa:0a:82:e8:
        39:70:52:ab
-----BEGIN CERTIFICATE-----
MIIDXTCCAkWgAwIBAgIRAM/1LvRZKfXrooNt855RsQ4wDQYJKoZIhvcNAQELBQAw
FjEUMBIGA1UEAwwLdGVhbTQ2Mi1uZXQwHhcNMjMxMTA0MTA0ODUwWhcNMjYxMDE5
MTA0ODUwWjAZMRcwFQYDVQQDDA50ZWFtNDYyLWNsaWVudDCCASIwDQYJKoZIhvcN
AQEBBQADggEPADCCAQoCggEBAL+oOFhL6PTp98kNG1eNSFFpsAvfIkaVnhp/02yN
8tFoy4EbIC2KehrN34+J5sxV8ct51dlpEm3/cb58PUXmF3Fzuq7qUjVqyicnCaXm
qq25muYJDuNXpNGXOqyncZi4m1DGv6mRiwvDfyNxQP7PM/QWWHHvbwl/PYk09R2M
PLLjlQ+qvbQxPAz+ANFriT3wYRzFrAX5uTD1HmmI1wo4k2yQXk7oMSz3vm3bQHMh
ZAC1dMgtgcMRZxNSxr6a+vU7ElvQ3YJlrhYNdFRR/BaT8Njmi5VPvoYMeaET4Pro
vO+82KpjrhFq3teJHzB5sjVSJHE9bDD9L9IJI9hslTXgUy0CAwEAAaOBojCBnzAJ
BgNVHRMEAjAAMB0GA1UdDgQWBBTD1JtCRNh9v1sYYpxtolm9ow5t6TBRBgNVHSME
SjBIgBR9YXp7S6AcOOFoVb6mbPRLOrclcqEapBgwFjEUMBIGA1UEAwwLdGVhbTQ2
Mi1uZXSCFEMw+bB5l97cjuQaVDe64Z8jmMHiMBMGA1UdJQQMMAoGCCsGAQUFBwMC
MAsGA1UdDwQEAwIHgDANBgkqhkiG9w0BAQsFAAOCAQEAVUrZ1yPRLp4zqx1M+CPn
KN+nsl0lIYlkxrrThBJYauO9dGyD3v3dmOc4+ddsQMJKIahgFbKnM2+KyRyqw/FU
LMY78+Ba7fg/YtvW5D7KTkIdtJpy8GPnZVdkG2u5lM8UXdrxpLesSLtkdLbNluS2
Bs7hkncAoQhNi4s+e1GuTUYDZ9E3ToWSbpi45iOVeYZPvypsHdJaX15/Bmh+0VEx
8+qI+cIsI0axws82VJEEcmwTFnlJcIyNWQpk4Tb0CqWyQrwFuNwVow2lbXm81B4O
mrlFaF+AbDQFoIcA9KvxWA/RzEvip5ZReqUEPbauDKLhSPdmHPQAB836CoLoOXBS
qw==
-----END CERTIFICATE-----
