Certificate:
    Data:
        Version: 3 (0x2)
        Serial Number:
            fb:2b:9f:22:2b:51:23:22:62:0a:23:fe:02:ae:c5:ed
        Signature Algorithm: sha256WithRSAEncryption
        Issuer: CN=team55-net
        Validity
            Not Before: Nov  3 20:40:14 2023 GMT
            Not After : Oct 18 20:40:14 2026 GMT
        Subject: CN=team55-server
        Subject Public Key Info:
            Public Key Algorithm: rsaEncryption
                Public-Key: (2048 bit)
                Modulus:
                    00:ac:6d:b1:5b:ca:a6:eb:f3:99:2a:49:94:e3:dc:
                    8d:66:36:a4:9b:9f:7d:22:85:33:11:96:09:74:1c:
                    77:44:80:ef:11:52:8a:2b:23:de:5e:5e:20:00:af:
                    63:2e:0f:b9:f8:bb:aa:e5:b7:d5:00:05:54:e3:d4:
                    87:d7:e7:75:5d:0f:26:ca:5c:36:a6:6b:c9:c3:f6:
                    30:86:5c:59:1e:f1:32:d2:75:f6:29:39:a9:c0:d4:
                    4b:ed:e1:39:42:18:17:db:c8:e9:6d:e9:93:e3:b4:
                    b0:5b:53:50:9b:e4:a6:e8:87:e6:dc:45:06:a4:5c:
                    6b:2e:6f:88:1c:29:d3:82:86:eb:98:31:33:26:6f:
                    c4:e6:ff:fc:0f:cd:33:9c:c4:c3:77:b8:49:e7:7a:
                    a1:64:3a:c9:26:24:42:31:dc:70:46:ce:5f:b0:12:
                    18:be:00:12:b7:d4:ab:89:c6:fd:54:de:5d:89:36:
                    97:81:ff:31:bc:0f:70:68:4b:35:88:a5:c5:f3:d6:
                    b7:8a:34:b9:d8:26:db:fb:4b:31:d2:32:3e:57:e0:
                    a6:1e:94:a2:ae:77:87:d0:7e:6d:de:21:60:e7:be:
                    94:5a:55:fe:41:cb:2a:c3:cc:d4:b0:a5:4f:9e:a3:
                    c5:f0:93:7c:16:60:d6:28:50:37:8f:85:84:6c:6e:
                    93:7b
                Exponent: 65537 (0x10001)
        X509v3 extensions:
            X509v3 Basic Constraints: 
                CA:FALSE
            X509v3 Subject Key Identifier: 
                2F:36:93:4E:C2:51:00:AD:54:C7:E7:84:19:2E:60:DF:E6:30:56:5D
            X509v3 Authority Key Identifier: 
                keyid:85:C1:DE:C7:EA:9C:47:B6:89:01:19:51:23:4D:B8:25:60:C5:9B:BD
                DirName:/CN=team55-net
                serial:2D:5A:3F:C4:98:CB:FE:DE:C8:5B:CA:AC:1C:16:18:FA:9A:A8:E6:3F
            X509v3 Extended Key Usage: 
                TLS Web Server Authentication
            X509v3 Key Usage: 
                Digital Signature, Key Encipherment
            X509v3 Subject Alternative Name: 
                DNS:team55-server
    Signature Algorithm: sha256WithRSAEncryption
    Signature Value:
        03:13:3d:9a:e2:4c:df:54:a6:a5:c0:bb:6e:70:00:c4:61:e2:
        bd:9d:6d:ae:06:4a:1d:3d:75:d3:86:7e:08:53:05:03:97:e0:
        c3:06:1e:df:80:3d:79:1b:0b:41:46:40:4f:73:b5:b3:6d:b7:
        11:27:36:18:04:a9:9a:a4:87:1d:40:3e:0a:98:82:dc:5d:0f:
        62:b9:56:b8:44:dc:72:b5:62:49:97:b4:ca:4c:05:7f:88:49:
        53:58:fd:d6:13:e0:25:9e:ee:f7:f1:dc:08:b0:40:cb:57:2e:
        89:40:b3:e3:c3:ad:d2:b8:d2:22:cf:10:dc:36:05:63:8c:60:
        f4:1f:0a:d3:70:36:65:5d:2c:8c:bc:50:d3:1f:bf:1f:a3:ce:
        45:32:12:45:e7:40:38:b9:d6:1b:ec:a8:16:93:00:93:14:8d:
        31:a5:42:12:75:87:a8:69:ae:12:cf:bb:4a:2a:a0:e1:f5:83:
        31:c1:db:e7:41:66:0e:ae:82:b6:ac:69:a6:55:79:0b:58:aa:
        f0:93:65:4c:ad:86:c8:6e:3e:63:0c:2d:99:01:d8:07:2f:5b:
        53:38:db:b2:fe:ea:4b:c5:3a:18:41:1a:19:88:89:87:2c:71:
        71:ea:3e:6e:d5:b1:bf:5c:a4:94:52:2a:e1:4d:94:b9:3b:45:
        d3:f6:dd:58
-----BEGIN CERTIFICATE-----
MIIDdDCCAlygAwIBAgIRAPsrnyIrUSMiYgoj/gKuxe0wDQYJKoZIhvcNAQELBQAw
FTETMBEGA1UEAwwKdGVhbTU1LW5ldDAeFw0yMzExMDMyMDQwMTRaFw0yNjEwMTgy
MDQwMTRaMBgxFjAUBgNVBAMMDXRlYW01NS1zZXJ2ZXIwggEiMA0GCSqGSIb3DQEB
AQUAA4IBDwAwggEKAoIBAQCsbbFbyqbr85kqSZTj3I1mNqSbn30ihTMRlgl0HHdE
gO8RUoorI95eXiAAr2MuD7n4u6rlt9UABVTj1IfX53VdDybKXDama8nD9jCGXFke
8TLSdfYpOanA1Evt4TlCGBfbyOlt6ZPjtLBbU1Cb5Kboh+bcRQakXGsub4gcKdOC
huuYMTMmb8Tm//wPzTOcxMN3uEnneqFkOskmJEIx3HBGzl+wEhi+ABK31KuJxv1U
3l2JNpeB/zG8D3BoSzWIpcXz1reKNLnYJtv7SzHSMj5X4KYelKKud4fQfm3eIWDn
vpRaVf5ByyrDzNSwpU+eo8Xwk3wWYNYoUDePhYRsbpN7AgMBAAGjgbswgbgwCQYD
VR0TBAIwADAdBgNVHQ4EFgQULzaTTsJRAK1Ux+eEGS5g3+YwVl0wUAYDVR0jBEkw
R4AUhcHex+qcR7aJARlRI024JWDFm72hGaQXMBUxEzARBgNVBAMMCnRlYW01NS1u
ZXSCFC1aP8SYy/7eyFvKrBwWGPqaqOY/MBMGA1UdJQQMMAoGCCsGAQUFBwMBMAsG
A1UdDwQEAwIFoDAYBgNVHREEETAPgg10ZWFtNTUtc2VydmVyMA0GCSqGSIb3DQEB
CwUAA4IBAQADEz2a4kzfVKalwLtucADEYeK9nW2uBkodPXXThn4IUwUDl+DDBh7f
gD15GwtBRkBPc7WzbbcRJzYYBKmapIcdQD4KmILcXQ9iuVa4RNxytWJJl7TKTAV/
iElTWP3WE+Alnu738dwIsEDLVy6JQLPjw63SuNIizxDcNgVjjGD0HwrTcDZlXSyM
vFDTH78fo85FMhJF50A4udYb7KgWkwCTFI0xpUISdYeoaa4Sz7tKKqDh9YMxwdvn
QWYOroK2rGmmVXkLWKrwk2VMrYbIbj5jDC2ZAdgHL1tTONuy/upLxToYQRoZiImH
LHFx6j5u1bG/XKSUUirhTZS5O0XT9t1Y
-----END CERTIFICATE-----
