Certificate:
    Data:
        Version: 3 (0x2)
        Serial Number:
            43:5c:05:9e:67:0d:83:64:68:f2:4c:2d:9b:23:3c:04
        Signature Algorithm: sha256WithRSAEncryption
        Issuer: CN=team302-net
        Validity
            Not Before: Nov  3 20:44:45 2023 GMT
            Not After : Oct 18 20:44:45 2026 GMT
        Subject: CN=team302-server
        Subject Public Key Info:
            Public Key Algorithm: rsaEncryption
                Public-Key: (2048 bit)
                Modulus:
                    00:b5:7d:59:67:f3:a9:9f:71:68:5c:52:b4:a7:74:
                    70:2b:d6:84:3a:ef:e4:45:fa:72:7a:4b:76:31:7f:
                    95:e3:75:f8:ff:02:39:bd:e8:58:c9:3f:1c:5f:e6:
                    d0:5b:88:93:bf:e8:72:9c:c3:7e:de:97:1e:d4:39:
                    e5:e0:7c:8c:1f:54:fd:44:05:f9:ac:ca:93:91:b1:
                    2b:24:b7:85:f5:28:aa:cd:3d:32:2d:f9:ae:6a:3d:
                    0d:e1:5c:a3:d7:2a:47:ec:a6:37:18:e3:5a:83:9c:
                    b6:0a:80:d1:2a:3a:37:c4:7b:33:0a:b0:76:f8:9f:
                    72:70:2a:58:dd:fb:8e:ec:cd:1f:00:76:4a:2b:bf:
                    fc:0c:70:d6:d2:d8:35:a9:ca:5e:0d:c7:bc:13:21:
                    14:92:b8:29:3a:57:1a:2f:b1:0c:f5:d5:e5:7d:a5:
                    12:e2:6e:f2:f9:5a:84:95:8d:8e:60:fd:b6:31:6e:
                    ef:cd:b5:61:4c:8e:71:8a:b0:d9:cd:fb:5c:6b:f9:
                    df:60:82:79:85:8c:4d:48:e9:be:5a:6e:3d:9f:0e:
                    89:14:d8:27:c6:25:45:9d:38:93:88:86:fc:19:b5:
                    b0:c2:79:bd:0a:08:70:e1:14:0e:be:74:ee:c9:96:
                    46:ca:9d:6e:df:b0:18:a5:78:fa:74:40:b1:37:60:
                    35:a7
                Exponent: 65537 (0x10001)
        X509v3 extensions:
            X509v3 Basic Constraints: 
                CA:FALSE
            X509v3 Subject Key Identifier: 
                F4:B5:44:65:B7:33:A1:61:B1:8E:FB:E6:72:79:9B:48:53:4E:C7:3C
            X509v3 Authority Key Identifier: 
                keyid:B0:79:EA:72:A0:C6:23:10:8A:B1:05:E9:4E:C7:75:15:D1:D6:61:1D
                DirName:/CN=team302-net
                serial:3B:15:25:FF:BF:A1:71:EE:B5:AD:A9:84:3E:34:24:B4:08:8D:81:04
            X509v3 Extended Key Usage: 
                TLS Web Server Authentication
            X509v3 Key Usage: 
                Digital Signature, Key Encipherment
            X509v3 Subject Alternative Name: 
                DNS:team302-server
    Signature Algorithm: sha256WithRSAEncryption
    Signature Value:
        97:36:99:b6:6a:0b:00:bd:6a:13:61:c8:e7:8a:6a:c0:0d:d9:
        44:a5:93:ab:ac:74:b0:c8:5f:47:61:b1:f6:4f:21:8b:f5:c0:
        c0:b7:c4:d8:05:93:ca:67:09:2f:16:03:c9:10:8b:14:b9:df:
        aa:fc:61:b6:03:90:e6:89:26:e0:dc:ac:12:38:b2:a3:e7:95:
        f5:d2:38:45:88:ab:ba:ec:2a:a0:26:de:34:be:f1:59:f2:b7:
        ba:e3:4b:12:67:51:32:7a:76:83:94:9d:d2:d5:53:fa:98:bf:
        d1:5e:92:2c:7a:25:bf:ce:6f:62:b4:8e:c1:58:8d:48:89:e1:
        bf:bd:e9:e2:2a:28:e7:32:32:0c:85:ae:5c:eb:d7:43:c6:b8:
        9f:25:e4:ad:cd:9e:03:10:5f:e3:b5:d6:67:08:c7:30:8f:db:
        6b:2f:37:01:06:8f:5d:05:11:6e:22:91:10:75:a3:2c:45:d5:
        e4:1c:c3:3f:de:9d:1c:24:17:42:3f:ed:cf:05:54:d1:21:df:
        d3:95:f1:2c:76:de:64:a3:29:94:7d:26:b8:eb:bc:4b:f8:cc:
        68:c7:27:4e:ca:d9:ac:dd:b8:cc:e3:0d:f9:26:49:bc:47:0f:
        a2:a4:f3:d1:7e:a3:79:a8:d2:69:90:e4:62:9c:17:ac:b1:ad:
        01:df:3d:32
-----BEGIN CERTIFICATE-----
MIIDdzCCAl+gAwIBAgIQQ1wFnmcNg2Ro8kwtmyM8BDANBgkqhkiG9w0BAQsFADAW
MRQwEgYDVQQDDAt0ZWFtMzAyLW5ldDAeFw0yMzExMDMyMDQ0NDVaFw0yNjEwMTgy
MDQ0NDVaMBkxFzAVBgNVBAMMDnRlYW0zMDItc2VydmVyMIIBIjANBgkqhkiG9w0B
AQEFAAOCAQ8AMIIBCgKCAQEAtX1ZZ/Opn3FoXFK0p3RwK9aEOu/kRfpyekt2MX+V
43X4/wI5vehYyT8cX+bQW4iTv+hynMN+3pce1Dnl4HyMH1T9RAX5rMqTkbErJLeF
9SiqzT0yLfmuaj0N4Vyj1ypH7KY3GONag5y2CoDRKjo3xHszCrB2+J9ycCpY3fuO
7M0fAHZKK7/8DHDW0tg1qcpeDce8EyEUkrgpOlcaL7EM9dXlfaUS4m7y+VqElY2O
YP22MW7vzbVhTI5xirDZzftca/nfYIJ5hYxNSOm+Wm49nw6JFNgnxiVFnTiTiIb8
GbWwwnm9Cghw4RQOvnTuyZZGyp1u37AYpXj6dECxN2A1pwIDAQABo4G9MIG6MAkG
A1UdEwQCMAAwHQYDVR0OBBYEFPS1RGW3M6FhsY775nJ5m0hTTsc8MFEGA1UdIwRK
MEiAFLB56nKgxiMQirEF6U7HdRXR1mEdoRqkGDAWMRQwEgYDVQQDDAt0ZWFtMzAy
LW5ldIIUOxUl/7+hce61ramEPjQktAiNgQQwEwYDVR0lBAwwCgYIKwYBBQUHAwEw
CwYDVR0PBAQDAgWgMBkGA1UdEQQSMBCCDnRlYW0zMDItc2VydmVyMA0GCSqGSIb3
DQEBCwUAA4IBAQCXNpm2agsAvWoTYcjnimrADdlEpZOrrHSwyF9HYbH2TyGL9cDA
t8TYBZPKZwkvFgPJEIsUud+q/GG2A5DmiSbg3KwSOLKj55X10jhFiKu67CqgJt40
vvFZ8re640sSZ1EyenaDlJ3S1VP6mL/RXpIseiW/zm9itI7BWI1IieG/veniKijn
MjIMha5c69dDxrifJeStzZ4DEF/jtdZnCMcwj9trLzcBBo9dBRFuIpEQdaMsRdXk
HMM/3p0cJBdCP+3PBVTRId/TlfEsdt5koymUfSa467xL+MxoxydOytms3bjM4w35
Jkm8Rw+ipPPRfqN5qNJpkORinBessa0B3z0y
-----END CERTIFICATE-----
