Certificate:
    Data:
        Version: 3 (0x2)
        Serial Number:
            11:f1:8b:a3:4b:94:f7:63:14:64:de:f4:f5:1f:c5:05
        Signature Algorithm: sha256WithRSAEncryption
        Issuer: CN=team426-net
        Validity
            Not Before: Nov  4 11:37:02 2023 GMT
            Not After : Oct 19 11:37:02 2026 GMT
        Subject: CN=team426-client
        Subject Public Key Info:
            Public Key Algorithm: rsaEncryption
                Public-Key: (2048 bit)
                Modulus:
                    00:b4:2b:c6:37:6e:dc:6e:ad:9d:5d:67:6f:df:57:
                    a9:be:5d:51:b6:68:9f:82:68:7e:1d:3b:96:ec:bc:
                    c3:92:88:53:6c:13:2f:dc:7b:e1:a2:c6:2f:1f:f2:
                    1e:5d:6f:8d:7b:3c:9b:ff:62:d5:62:ef:c4:e3:3b:
                    71:11:fd:8d:3c:67:56:a7:17:70:6d:4f:f1:c2:25:
                    0a:1f:ae:33:9d:cc:b0:9f:08:81:b2:9f:2b:63:e7:
                    eb:da:8b:59:ce:0c:6c:05:15:cb:4b:b6:30:b9:c4:
                    bf:5d:8b:ef:d1:ca:ad:e1:bc:ea:db:cf:84:0e:9e:
                    99:b9:e1:4b:09:d6:6b:eb:2f:94:6d:5b:62:1e:04:
                    e0:22:5e:2f:f4:cd:c2:28:1b:b0:3a:bf:34:7d:ef:
                    53:29:86:42:05:ba:0c:56:c5:ed:ce:89:4f:82:b6:
                    76:c9:62:4c:e2:6a:fc:88:a4:7d:8e:52:07:99:5f:
                    8a:37:19:2d:68:09:49:fa:0e:74:ed:0c:42:df:62:
                    bc:1e:e3:b1:ca:34:bc:6f:ce:6c:ee:b4:09:de:e9:
                    fc:58:f8:96:8c:e1:52:f6:15:d5:7f:a1:e0:a4:41:
                    1e:9a:55:35:74:95:e9:e3:06:23:ff:ef:e0:03:83:
                    65:18:a7:ec:92:52:76:17:be:d9:ab:36:fd:d4:98:
                    6c:15
                Exponent: 65537 (0x10001)
        X509v3 extensions:
            X509v3 Basic Constraints: 
                CA:FALSE
            X509v3 Subject Key Identifier: 
                63:B0:AF:4E:29:ED:0E:23:E2:DE:24:56:4A:15:D8:B0:A7:BA:02:72
            X509v3 Authority Key Identifier: 
                keyid:F0:E1:6E:46:36:33:20:76:0C:C2:35:DD:EB:CF:8D:97:1E:3D:67:C2
                DirName:/CN=team426-net
                serial:7C:CD:EE:64:76:9F:B1:7C:FF:F2:E4:A0:8F:6D:7A:3D:A7:BC:39:D5
            X509v3 Extended Key Usage: 
                TLS Web Client Authentication
            X509v3 Key Usage: 
                Digital Signature
    Signature Algorithm: sha256WithRSAEncryption
    Signature Value:
        6f:6e:d9:19:82:4a:d9:ae:91:d2:ee:34:ee:76:ca:d0:e0:b5:
        4b:14:09:5f:6a:9e:23:c1:da:c3:ed:c0:54:8e:fb:fa:62:b8:
        b0:e9:f8:b2:07:19:5d:91:d0:e3:e5:35:ab:ec:d3:21:aa:06:
        da:24:99:39:05:6f:81:d3:83:ff:c0:39:34:cb:84:67:6c:08:
        45:06:aa:67:4c:56:6b:e2:f5:1d:e3:14:f9:35:47:4f:c6:66:
        bd:81:a7:43:79:fe:cd:93:8c:88:03:c3:18:7d:9c:20:78:4b:
        bb:be:cc:27:9a:21:63:1b:0a:bc:e3:dc:d2:a0:fe:7f:d2:42:
        57:c6:5f:41:d8:62:9c:51:c4:34:c3:56:1e:80:5a:ee:39:48:
        9b:98:17:60:35:54:56:2d:27:2c:4d:fb:6e:4a:0c:d4:99:7b:
        84:ee:22:85:dc:26:09:ff:62:6b:76:98:df:95:6b:ec:9d:8c:
        da:f7:7e:fe:3c:82:91:17:31:4f:4e:77:ca:c4:4a:92:4b:72:
        58:a1:88:64:ab:61:83:04:59:d7:02:53:f9:32:ae:13:4d:83:
        8b:2a:80:ed:37:0a:51:41:de:c2:85:7c:91:00:9e:4d:95:ea:
        b2:1e:aa:bb:0e:1c:57:2c:ea:ea:2a:02:59:7d:24:05:83:e3:
        e0:52:1b:48
-----BEGIN CERTIFICATE-----
MIIDXDCCAkSgAwIBAgIQEfGLo0uU92MUZN709R/FBTANBgkqhkiG9w0BAQsFADAW
MRQwEgYDVQQDDAt0ZWFtNDI2LW5ldDAeFw0yMzExMDQxMTM3MDJaFw0yNjEwMTkx
MTM3MDJaMBkxFzAVBgNVBAMMDnRlYW00MjYtY2xpZW50MIIBIjANBgkqhkiG9w0B
AQEFAAOCAQ8AMIIBCgKCAQEAtCvGN27cbq2dXWdv31epvl1Rtmifgmh+HTuW7LzD
kohTbBMv3HvhosYvH/IeXW+Nezyb/2LVYu/E4ztxEf2NPGdWpxdwbU/xwiUKH64z
ncywnwiBsp8rY+fr2otZzgxsBRXLS7YwucS/XYvv0cqt4bzq28+EDp6ZueFLCdZr
6y+UbVtiHgTgIl4v9M3CKBuwOr80fe9TKYZCBboMVsXtzolPgrZ2yWJM4mr8iKR9
jlIHmV+KNxktaAlJ+g507QxC32K8HuOxyjS8b85s7rQJ3un8WPiWjOFS9hXVf6Hg
pEEemlU1dJXp4wYj/+/gA4NlGKfsklJ2F77Zqzb91JhsFQIDAQABo4GiMIGfMAkG
A1UdEwQCMAAwHQYDVR0OBBYEFGOwr04p7Q4j4t4kVkoV2LCnugJyMFEGA1UdIwRK
MEiAFPDhbkY2MyB2DMI13evPjZcePWfCoRqkGDAWMRQwEgYDVQQDDAt0ZWFtNDI2
LW5ldIIUfM3uZHafsXz/8uSgj216Pae8OdUwEwYDVR0lBAwwCgYIKwYBBQUHAwIw
CwYDVR0PBAQDAgeAMA0GCSqGSIb3DQEBCwUAA4IBAQBvbtkZgkrZrpHS7jTudsrQ
4LVLFAlfap4jwdrD7cBUjvv6Yriw6fiyBxldkdDj5TWr7NMhqgbaJJk5BW+B04P/
wDk0y4RnbAhFBqpnTFZr4vUd4xT5NUdPxma9gadDef7Nk4yIA8MYfZwgeEu7vswn
miFjGwq849zSoP5/0kJXxl9B2GKcUcQ0w1YegFruOUibmBdgNVRWLScsTftuSgzU
mXuE7iKF3CYJ/2JrdpjflWvsnYza937+PIKRFzFPTnfKxEqSS3JYoYhkq2GDBFnX
AlP5Mq4TTYOLKoDtNwpRQd7ChXyRAJ5NleqyHqq7DhxXLOrqKgJZfSQFg+PgUhtI
-----END CERTIFICATE-----
