Certificate:
    Data:
        Version: 3 (0x2)
        Serial Number:
            1f:27:06:fb:4c:72:b2:97:1b:d0:2b:c3:33:eb:5d:fe
        Signature Algorithm: sha256WithRSAEncryption
        Issuer: CN=team426-net
        Validity
            Not Before: Nov  4 10:48:17 2023 GMT
            Not After : Oct 19 10:48:17 2026 GMT
        Subject: CN=team426-client
        Subject Public Key Info:
            Public Key Algorithm: rsaEncryption
                Public-Key: (2048 bit)
                Modulus:
                    00:c7:49:50:86:2e:35:a0:d9:69:88:e0:f2:c9:da:
                    28:62:08:84:41:70:6b:9d:e3:91:2b:a7:3b:08:23:
                    87:5c:e5:51:19:91:3e:88:d2:90:08:0a:69:d7:63:
                    de:a9:2f:f9:e0:09:42:20:8d:dd:3b:71:8d:f7:9a:
                    42:28:87:ff:87:7e:06:3c:9f:9c:c8:28:72:c8:66:
                    91:3e:12:3f:a2:ea:67:91:01:5d:29:79:9d:90:29:
                    f3:fe:55:05:a1:d7:79:ff:fb:28:4c:5c:90:f0:78:
                    46:1d:45:1a:5f:51:28:6d:ee:d5:db:ec:75:ea:c8:
                    a0:cf:91:a5:16:d1:fc:aa:5c:12:d5:f0:2f:e1:09:
                    f9:7b:05:84:45:fa:87:b7:9b:df:20:2d:4f:a2:16:
                    7b:0b:db:ab:d6:5c:35:cb:7e:da:01:ee:30:b9:93:
                    18:72:20:57:02:75:56:b5:e7:0b:57:48:63:5a:44:
                    20:4a:0d:ad:a0:27:6a:99:5b:e3:88:df:c4:60:c1:
                    9e:2f:65:ef:15:70:d4:16:d0:e3:88:eb:9a:ea:f2:
                    9b:d0:15:13:5f:62:10:a7:8d:23:b0:fe:f1:26:f9:
                    cb:90:c1:3e:72:e6:bf:6e:49:41:14:c0:99:de:ad:
                    49:ca:77:22:26:bb:44:c1:cf:05:d5:0e:4c:18:64:
                    71:81
                Exponent: 65537 (0x10001)
        X509v3 extensions:
            X509v3 Basic Constraints: 
                CA:FALSE
            X509v3 Subject Key Identifier: 
                77:26:00:DF:47:76:CF:25:EC:22:FC:97:E9:EE:D7:59:E3:FE:EE:3B
            X509v3 Authority Key Identifier: 
                keyid:69:FC:91:22:4F:00:99:4C:A0:77:95:B5:FD:02:2D:66:8A:80:46:12
                DirName:/CN=team426-net
                serial:37:3F:A6:60:2D:34:56:E8:B9:6B:60:D5:DE:D3:B1:3B:CE:FD:97:74
            X509v3 Extended Key Usage: 
                TLS Web Client Authentication
            X509v3 Key Usage: 
                Digital Signature
    Signature Algorithm: sha256WithRSAEncryption
    Signature Value:
        37:c0:d2:33:82:97:ce:5f:a1:cb:9e:fa:86:e9:0a:6b:b9:ed:
        2f:a2:40:f5:e1:12:e6:68:db:d8:f6:3c:0d:4f:7b:95:a6:2e:
        72:7b:1f:38:7e:3e:ed:0f:be:57:8c:3a:df:bf:7f:37:78:d2:
        25:2c:5d:ce:ac:79:9d:20:2e:32:d7:75:b5:67:17:61:1d:cb:
        70:6d:47:09:73:84:41:67:86:87:e8:08:fe:6b:a0:ae:46:74:
        57:13:20:db:c5:be:3c:a3:10:36:aa:f8:d1:42:af:3b:1b:d0:
        d5:9f:bc:92:30:0b:71:86:43:7c:cb:e1:9d:b8:56:7a:60:8a:
        b8:48:b3:79:33:af:f6:80:1a:cc:21:56:70:26:da:4b:de:0d:
        4a:40:b9:48:d8:38:b1:11:af:8f:8a:62:f7:30:bf:ef:94:6d:
        2f:41:56:79:ca:20:40:80:e7:27:34:bf:a5:49:de:14:63:68:
        76:36:2a:11:53:00:d7:06:3b:5d:7c:7c:41:23:de:09:21:1c:
        84:9a:0b:cb:1e:a1:1c:88:92:a8:3a:53:9f:4c:f6:11:77:9e:
        08:f9:65:59:65:98:10:7b:eb:72:a0:2a:36:1c:ae:9b:61:d8:
        ee:9b:ae:ae:89:0d:b2:98:de:38:13:83:0d:8f:18:0e:d2:8e:
        bd:3f:0d:13
-----BEGIN CERTIFICATE-----
MIIDXDCCAkSgAwIBAgIQHycG+0xyspcb0CvDM+td/jANBgkqhkiG9w0BAQsFADAW
MRQwEgYDVQQDDAt0ZWFtNDI2LW5ldDAeFw0yMzExMDQxMDQ4MTdaFw0yNjEwMTkx
MDQ4MTdaMBkxFzAVBgNVBAMMDnRlYW00MjYtY2xpZW50MIIBIjANBgkqhkiG9w0B
AQEFAAOCAQ8AMIIBCgKCAQEAx0lQhi41oNlpiODyydooYgiEQXBrneORK6c7CCOH
XOVRGZE+iNKQCApp12PeqS/54AlCII3dO3GN95pCKIf/h34GPJ+cyChyyGaRPhI/
oupnkQFdKXmdkCnz/lUFodd5//soTFyQ8HhGHUUaX1Eobe7V2+x16sigz5GlFtH8
qlwS1fAv4Qn5ewWERfqHt5vfIC1PohZ7C9ur1lw1y37aAe4wuZMYciBXAnVWtecL
V0hjWkQgSg2toCdqmVvjiN/EYMGeL2XvFXDUFtDjiOua6vKb0BUTX2IQp40jsP7x
JvnLkME+cua/bklBFMCZ3q1JynciJrtEwc8F1Q5MGGRxgQIDAQABo4GiMIGfMAkG
A1UdEwQCMAAwHQYDVR0OBBYEFHcmAN9Hds8l7CL8l+nu11nj/u47MFEGA1UdIwRK
MEiAFGn8kSJPAJlMoHeVtf0CLWaKgEYSoRqkGDAWMRQwEgYDVQQDDAt0ZWFtNDI2
LW5ldIIUNz+mYC00Vui5a2DV3tOxO879l3QwEwYDVR0lBAwwCgYIKwYBBQUHAwIw
CwYDVR0PBAQDAgeAMA0GCSqGSIb3DQEBCwUAA4IBAQA3wNIzgpfOX6HLnvqG6Qpr
ue0vokD14RLmaNvY9jwNT3uVpi5yex84fj7tD75XjDrfv383eNIlLF3OrHmdIC4y
13W1ZxdhHctwbUcJc4RBZ4aH6Aj+a6CuRnRXEyDbxb48oxA2qvjRQq87G9DVn7yS
MAtxhkN8y+GduFZ6YIq4SLN5M6/2gBrMIVZwJtpL3g1KQLlI2DixEa+PimL3ML/v
lG0vQVZ5yiBAgOcnNL+lSd4UY2h2NioRUwDXBjtdfHxBI94JIRyEmgvLHqEciJKo
OlOfTPYRd54I+WVZZZgQe+tyoCo2HK6bYdjum66uiQ2ymN44E4MNjxgO0o69Pw0T
-----END CERTIFICATE-----
