Certificate:
    Data:
        Version: 3 (0x2)
        Serial Number:
            ae:92:22:ed:f7:21:59:be:2e:94:e1:98:cf:c2:ab:34
        Signature Algorithm: sha256WithRSAEncryption
        Issuer: CN=team426-net
        Validity
            Not Before: Nov  4 11:37:02 2023 GMT
            Not After : Oct 19 11:37:02 2026 GMT
        Subject: CN=team426-server
        Subject Public Key Info:
            Public Key Algorithm: rsaEncryption
                Public-Key: (2048 bit)
                Modulus:
                    00:b2:12:c5:60:9c:41:5f:8a:e5:04:c3:3d:d4:fd:
                    23:4d:8b:d1:d0:53:bd:76:34:31:df:14:be:db:88:
                    55:68:68:98:30:7a:1a:86:c8:f0:f1:83:c1:35:b1:
                    1b:64:0b:25:3f:01:d4:b7:64:ce:fe:71:fd:09:b6:
                    c4:e4:24:d4:df:50:64:4b:3d:00:20:68:6b:6c:4b:
                    5c:79:7e:80:8f:95:d6:0c:63:d1:6d:d1:af:d0:eb:
                    07:23:ef:1d:4d:d1:3a:bf:f4:a5:62:02:4f:d6:8b:
                    bf:2f:7d:a2:c1:0d:24:f1:08:41:0d:a0:3a:67:d5:
                    72:4e:4f:6e:89:dd:5b:f5:98:b5:3d:ff:3d:58:e4:
                    d4:63:a3:96:0c:b9:a2:56:48:61:1d:74:4a:05:5c:
                    be:03:e5:55:29:df:ae:15:21:f9:9e:f4:69:d5:5f:
                    b7:57:ac:12:44:ab:0b:5b:2a:40:98:ab:40:eb:30:
                    32:28:c8:ba:91:b1:f1:28:2b:d8:89:ff:a8:71:cf:
                    36:e8:e8:d9:57:a2:aa:0f:21:6f:6f:61:dd:ed:c0:
                    09:4b:79:79:9a:2e:0e:22:75:ed:f2:bb:2a:df:49:
                    00:46:3e:75:d2:77:a0:00:c8:bb:00:db:14:9f:b6:
                    8a:d7:19:61:81:f5:8a:12:55:4d:ed:5c:06:4a:e8:
                    32:0b
                Exponent: 65537 (0x10001)
        X509v3 extensions:
            X509v3 Basic Constraints: 
                CA:FALSE
            X509v3 Subject Key Identifier: 
                D6:C1:03:24:C4:73:B7:EF:D6:51:92:F4:BB:B0:5E:06:3C:B9:54:50
            X509v3 Authority Key Identifier: 
                keyid:F0:E1:6E:46:36:33:20:76:0C:C2:35:DD:EB:CF:8D:97:1E:3D:67:C2
                DirName:/CN=team426-net
                serial:7C:CD:EE:64:76:9F:B1:7C:FF:F2:E4:A0:8F:6D:7A:3D:A7:BC:39:D5
            X509v3 Extended Key Usage: 
                TLS Web Server Authentication
            X509v3 Key Usage: 
                Digital Signature, Key Encipherment
            X509v3 Subject Alternative Name: 
                DNS:team426-server
    Signature Algorithm: sha256WithRSAEncryption
    Signature Value:
        36:12:2e:b2:a8:af:05:bc:3f:55:0a:90:6a:0e:af:db:e0:e7:
        49:54:85:3e:2e:7a:a0:28:c0:fd:3c:62:ef:45:68:5e:fa:2c:
        f4:c7:8e:26:54:26:af:98:83:09:2f:98:ff:65:35:6e:e5:2b:
        21:85:31:f5:2c:87:cc:c4:d4:30:5c:c1:96:a2:fa:31:77:e7:
        e0:8d:16:08:d8:54:04:fc:69:a2:b9:86:2e:69:1d:6e:a7:65:
        01:1f:50:91:bf:b2:80:91:fa:e7:d8:c3:c1:9e:92:62:dd:4e:
        96:6f:47:5b:43:8d:ed:a1:6b:fd:0d:f6:dc:5d:3b:c8:27:a0:
        d5:d7:c5:7b:53:5e:d0:b4:b8:bb:ff:46:8b:ce:63:af:21:34:
        ec:fe:14:a4:90:41:32:7d:e3:47:35:48:37:05:35:19:8b:28:
        19:62:2b:b3:ad:3d:9d:98:17:9c:64:5e:a1:49:3b:71:2e:7f:
        43:21:6c:8d:14:2d:f0:56:6a:ae:6a:0b:5a:db:fa:c7:e6:d6:
        9b:78:e8:bb:58:49:26:7a:e0:4f:b4:3d:c4:c1:93:5f:d7:02:
        6e:e1:f6:44:6a:f9:05:15:7a:3b:7c:dd:e4:5a:24:3c:db:82:
        e1:2d:f6:4b:b9:ea:4a:57:83:d3:60:4a:9d:43:a3:29:af:13:
        d9:f3:e8:56
-----BEGIN CERTIFICATE-----
MIIDeDCCAmCgAwIBAgIRAK6SIu33IVm+LpThmM/CqzQwDQYJKoZIhvcNAQELBQAw
FjEUMBIGA1UEAwwLdGVhbTQyNi1uZXQwHhcNMjMxMTA0MTEzNzAyWhcNMjYxMDE5
MTEzNzAyWjAZMRcwFQYDVQQDDA50ZWFtNDI2LXNlcnZlcjCCASIwDQYJKoZIhvcN
AQEBBQADggEPADCCAQoCggEBALISxWCcQV+K5QTDPdT9I02L0dBTvXY0Md8UvtuI
VWhomDB6GobI8PGDwTWxG2QLJT8B1Ldkzv5x/Qm2xOQk1N9QZEs9ACBoa2xLXHl+
gI+V1gxj0W3Rr9DrByPvHU3ROr/0pWICT9aLvy99osENJPEIQQ2gOmfVck5Pbond
W/WYtT3/PVjk1GOjlgy5olZIYR10SgVcvgPlVSnfrhUh+Z70adVft1esEkSrC1sq
QJirQOswMijIupGx8Sgr2In/qHHPNujo2Veiqg8hb29h3e3ACUt5eZouDiJ17fK7
Kt9JAEY+ddJ3oADIuwDbFJ+2itcZYYH1ihJVTe1cBkroMgsCAwEAAaOBvTCBujAJ
BgNVHRMEAjAAMB0GA1UdDgQWBBTWwQMkxHO379ZRkvS7sF4GPLlUUDBRBgNVHSME
SjBIgBTw4W5GNjMgdgzCNd3rz42XHj1nwqEapBgwFjEUMBIGA1UEAwwLdGVhbTQy
Ni1uZXSCFHzN7mR2n7F8//LkoI9tej2nvDnVMBMGA1UdJQQMMAoGCCsGAQUFBwMB
MAsGA1UdDwQEAwIFoDAZBgNVHREEEjAQgg50ZWFtNDI2LXNlcnZlcjANBgkqhkiG
9w0BAQsFAAOCAQEANhIusqivBbw/VQqQag6v2+DnSVSFPi56oCjA/Txi70VoXvos
9MeOJlQmr5iDCS+Y/2U1buUrIYUx9SyHzMTUMFzBlqL6MXfn4I0WCNhUBPxpormG
LmkdbqdlAR9Qkb+ygJH659jDwZ6SYt1Olm9HW0ON7aFr/Q323F07yCeg1dfFe1Ne
0LS4u/9Gi85jryE07P4UpJBBMn3jRzVINwU1GYsoGWIrs609nZgXnGReoUk7cS5/
QyFsjRQt8FZqrmoLWtv6x+bWm3jou1hJJnrgT7Q9xMGTX9cCbuH2RGr5BRV6O3zd
5FokPNuC4S32S7nqSleD02BKnUOjKa8T2fPoVg==
-----END CERTIFICATE-----
