Certificate:
    Data:
        Version: 3 (0x2)
        Serial Number:
            bc:0d:08:fd:01:a8:99:6a:ad:4c:0c:04:aa:fb:21:ec
        Signature Algorithm: sha256WithRSAEncryption
        Issuer: CN=team426-net
        Validity
            Not Before: Nov  4 10:48:17 2023 GMT
            Not After : Oct 19 10:48:17 2026 GMT
        Subject: CN=team426-server
        Subject Public Key Info:
            Public Key Algorithm: rsaEncryption
                Public-Key: (2048 bit)
                Modulus:
                    00:c3:ee:bb:ee:a6:28:7b:29:40:5d:cc:8f:ff:38:
                    14:b9:92:af:fc:e2:09:a8:27:a2:c3:d6:98:8d:d9:
                    4f:4d:67:98:27:be:26:11:da:42:9a:1b:1e:b8:49:
                    0e:41:fb:77:8f:ca:a7:7f:40:68:a2:9f:72:99:a9:
                    ac:3f:1b:8b:94:11:9e:09:21:e0:f7:0c:55:4c:d2:
                    56:fc:76:f7:25:ce:94:5c:52:ae:95:97:8e:54:ac:
                    8a:76:5a:33:90:16:d9:f4:60:70:15:c2:ff:e1:f7:
                    3e:9f:92:f6:ea:3c:16:6f:7d:01:97:c8:1b:d2:3e:
                    5a:dc:ea:03:45:b5:c8:20:2b:0a:e3:9e:97:85:87:
                    92:3c:74:07:5d:ab:d1:de:d8:ac:58:f4:14:5d:d5:
                    92:80:5d:12:8b:9e:cd:cc:13:0a:08:4a:a4:a4:70:
                    79:f0:e5:26:d4:fe:43:dd:35:4a:e9:13:48:09:45:
                    a3:21:4b:7f:15:87:21:6b:18:00:b3:d5:5c:d7:c6:
                    cb:11:9b:f2:93:cf:f2:dd:b1:92:83:73:1b:4d:48:
                    3d:02:cb:5e:20:e7:32:ec:e6:a3:1a:ed:21:a7:f5:
                    47:64:9f:c3:50:28:da:99:40:16:ea:cd:b7:3e:54:
                    4c:01:10:76:c8:0c:61:4d:bf:a8:74:74:e8:22:fe:
                    ce:bf
                Exponent: 65537 (0x10001)
        X509v3 extensions:
            X509v3 Basic Constraints: 
                CA:FALSE
            X509v3 Subject Key Identifier: 
                35:AF:97:74:DF:5F:36:54:8C:BD:20:2C:A3:0C:E1:AB:CD:D9:9D:16
            X509v3 Authority Key Identifier: 
                keyid:69:FC:91:22:4F:00:99:4C:A0:77:95:B5:FD:02:2D:66:8A:80:46:12
                DirName:/CN=team426-net
                serial:37:3F:A6:60:2D:34:56:E8:B9:6B:60:D5:DE:D3:B1:3B:CE:FD:97:74
            X509v3 Extended Key Usage: 
                TLS Web Server Authentication
            X509v3 Key Usage: 
                Digital Signature, Key Encipherment
            X509v3 Subject Alternative Name: 
                DNS:team426-server
    Signature Algorithm: sha256WithRSAEncryption
    Signature Value:
        24:2a:a4:6b:4d:a5:e5:bb:ec:85:83:6c:9e:63:8a:ba:41:09:
        a9:69:da:2f:7d:55:d7:6b:61:ea:db:05:cd:3b:87:54:2e:69:
        70:f6:c0:21:25:f8:13:a4:c3:b1:24:33:81:63:b2:05:50:1f:
        20:b5:3a:b3:53:63:13:1a:28:31:7b:f5:f3:a6:40:22:9a:38:
        1b:1e:b2:d4:9c:21:25:19:d5:76:c4:11:ff:16:fb:37:09:61:
        17:06:93:60:84:31:0a:ed:dc:24:c6:04:b6:bc:ff:1e:e0:a0:
        67:c4:45:02:cc:b2:a1:f1:d9:b9:fd:8d:41:7a:8f:9b:22:5e:
        47:53:bb:7c:0c:ec:91:5a:9c:77:a1:52:62:df:04:0c:3e:4b:
        4b:98:2b:ec:77:be:9f:98:77:8e:1e:06:ec:cf:0b:ab:6c:f8:
        94:99:9a:de:ed:8d:b9:26:d2:7c:84:78:a2:52:98:51:8f:ee:
        3b:56:6b:e3:1b:db:a5:3e:76:b5:1d:da:c4:f2:91:92:0e:27:
        3a:44:e6:b1:81:3a:8c:b3:5b:75:22:93:70:ff:9b:8e:dd:e0:
        2d:1c:d1:4b:00:d0:8b:21:36:5e:0c:6d:16:ea:8d:b0:39:26:
        1b:05:9e:d3:07:f4:8b:17:f4:03:ec:7a:6a:75:8f:33:f9:1a:
        59:1c:cf:d7
-----BEGIN CERTIFICATE-----
MIIDeDCCAmCgAwIBAgIRALwNCP0BqJlqrUwMBKr7IewwDQYJKoZIhvcNAQELBQAw
FjEUMBIGA1UEAwwLdGVhbTQyNi1uZXQwHhcNMjMxMTA0MTA0ODE3WhcNMjYxMDE5
MTA0ODE3WjAZMRcwFQYDVQQDDA50ZWFtNDI2LXNlcnZlcjCCASIwDQYJKoZIhvcN
AQEBBQADggEPADCCAQoCggEBAMPuu+6mKHspQF3Mj/84FLmSr/ziCagnosPWmI3Z
T01nmCe+JhHaQpobHrhJDkH7d4/Kp39AaKKfcpmprD8bi5QRngkh4PcMVUzSVvx2
9yXOlFxSrpWXjlSsinZaM5AW2fRgcBXC/+H3Pp+S9uo8Fm99AZfIG9I+WtzqA0W1
yCArCuOel4WHkjx0B12r0d7YrFj0FF3VkoBdEouezcwTCghKpKRwefDlJtT+Q901
SukTSAlFoyFLfxWHIWsYALPVXNfGyxGb8pPP8t2xkoNzG01IPQLLXiDnMuzmoxrt
Iaf1R2Sfw1Ao2plAFurNtz5UTAEQdsgMYU2/qHR06CL+zr8CAwEAAaOBvTCBujAJ
BgNVHRMEAjAAMB0GA1UdDgQWBBQ1r5d03182VIy9ICyjDOGrzdmdFjBRBgNVHSME
SjBIgBRp/JEiTwCZTKB3lbX9Ai1mioBGEqEapBgwFjEUMBIGA1UEAwwLdGVhbTQy
Ni1uZXSCFDc/pmAtNFbouWtg1d7TsTvO/Zd0MBMGA1UdJQQMMAoGCCsGAQUFBwMB
MAsGA1UdDwQEAwIFoDAZBgNVHREEEjAQgg50ZWFtNDI2LXNlcnZlcjANBgkqhkiG
9w0BAQsFAAOCAQEAJCqka02l5bvshYNsnmOKukEJqWnaL31V12th6tsFzTuHVC5p
cPbAISX4E6TDsSQzgWOyBVAfILU6s1NjExooMXv186ZAIpo4Gx6y1JwhJRnVdsQR
/xb7NwlhFwaTYIQxCu3cJMYEtrz/HuCgZ8RFAsyyofHZuf2NQXqPmyJeR1O7fAzs
kVqcd6FSYt8EDD5LS5gr7He+n5h3jh4G7M8Lq2z4lJma3u2NuSbSfIR4olKYUY/u
O1Zr4xvbpT52tR3axPKRkg4nOkTmsYE6jLNbdSKTcP+bjt3gLRzRSwDQiyE2Xgxt
FuqNsDkmGwWe0wf0ixf0A+x6anWPM/kaWRzP1w==
-----END CERTIFICATE-----
