Certificate:
    Data:
        Version: 3 (0x2)
        Serial Number:
            3f:b1:ec:4e:42:00:0e:25:84:48:db:cf:ba:a9:e6:d2
        Signature Algorithm: sha256WithRSAEncryption
        Issuer: CN=team303-net
        Validity
            Not Before: Nov  3 20:44:47 2023 GMT
            Not After : Oct 18 20:44:47 2026 GMT
        Subject: CN=team303-client
        Subject Public Key Info:
            Public Key Algorithm: rsaEncryption
                Public-Key: (2048 bit)
                Modulus:
                    00:b9:67:f3:32:bb:6b:bf:12:55:3a:ef:2b:fa:c7:
                    4a:fd:57:76:ad:66:e2:47:94:b0:88:5d:63:bc:d7:
                    53:3d:0f:70:09:56:41:1f:c0:97:4e:f2:6e:14:ef:
                    19:b6:9a:22:2b:d3:4c:6b:f4:8b:54:70:70:f5:ca:
                    93:14:62:00:70:6e:de:97:24:dd:75:87:e2:88:4f:
                    f6:cd:68:54:72:eb:63:60:df:6d:ca:3b:09:7c:5b:
                    db:58:3b:27:b9:6e:a9:d7:f3:a3:a8:44:0c:49:ef:
                    8a:79:46:cd:1d:9b:5c:f0:41:23:d2:91:cd:f0:27:
                    83:62:18:b6:80:9c:c5:7f:c0:c6:35:30:d9:27:86:
                    2d:f9:f5:ba:7e:f8:cb:c6:79:4d:15:bd:15:d7:8c:
                    02:97:02:9f:1d:09:c5:7a:cd:e4:df:4c:b5:ee:d8:
                    fc:93:7e:ae:2e:91:59:9e:14:75:cd:5d:df:64:bb:
                    cc:db:74:fe:8e:84:2e:9e:fe:a9:c4:ab:9e:e8:c3:
                    3e:06:99:83:a3:e0:07:1a:47:0d:57:6c:ec:14:60:
                    44:4b:62:d2:5e:fb:2d:05:6a:c2:1a:6f:5d:49:3c:
                    20:11:f9:4b:3b:72:25:0e:40:af:c8:f2:f8:95:27:
                    cd:1b:0f:be:8f:da:58:ed:c0:da:5f:21:74:6f:10:
                    c1:09
                Exponent: 65537 (0x10001)
        X509v3 extensions:
            X509v3 Basic Constraints: 
                CA:FALSE
            X509v3 Subject Key Identifier: 
                9A:94:4D:06:4F:A7:BB:7D:7A:3C:46:0B:01:96:5D:5D:90:A5:B6:D9
            X509v3 Authority Key Identifier: 
                keyid:77:B3:6E:2C:B9:1D:4B:68:73:BC:12:84:4A:A2:66:D2:49:82:BD:5C
                DirName:/CN=team303-net
                serial:65:AB:55:B4:7F:9C:E3:08:BB:EA:51:A4:7C:2E:39:DA:42:5A:2B:5E
            X509v3 Extended Key Usage: 
                TLS Web Client Authentication
            X509v3 Key Usage: 
                Digital Signature
    Signature Algorithm: sha256WithRSAEncryption
    Signature Value:
        33:01:30:ac:91:ed:e7:38:e2:9f:09:f9:bb:54:20:a2:8d:a6:
        a3:df:23:12:fc:e4:a3:c4:f1:85:2b:7d:73:63:32:ce:79:58:
        4f:55:c9:22:c3:a5:0c:02:44:a5:ff:1b:d4:a8:a2:21:b1:76:
        4d:d2:b4:60:b1:aa:12:1e:f1:ba:27:47:bc:cd:0c:c8:51:1c:
        4a:b7:01:c2:58:28:ad:a6:f4:97:24:23:b5:d1:2d:18:3e:42:
        47:3d:71:ed:49:ca:37:2e:b5:6c:3d:fa:96:30:33:88:8b:f1:
        26:6b:ff:da:c9:a3:dc:b4:20:43:13:84:6d:fc:3b:56:d9:c4:
        94:80:7a:1b:e5:86:6e:a8:89:aa:d8:48:bc:ae:94:60:12:b9:
        96:5b:eb:e1:f9:47:f8:f9:e9:04:11:7b:ba:05:45:ec:30:3a:
        c5:ad:25:e3:7a:b9:c4:b2:93:7c:75:9f:9a:c3:4e:36:a3:dd:
        5b:48:67:d5:d2:8e:25:a7:83:76:83:45:7d:0d:94:c2:2d:e5:
        ee:20:9b:31:a8:d3:25:dc:c0:2a:fe:03:74:f3:e2:2d:ee:8e:
        85:38:93:31:31:d9:9d:c2:9d:c1:e1:bc:58:32:8f:1e:3f:d3:
        f1:1c:ea:c5:30:0c:e4:00:14:58:a4:d9:14:18:b1:6f:c3:a1:
        89:a9:ff:8d
-----BEGIN CERTIFICATE-----
MIIDXDCCAkSgAwIBAgIQP7HsTkIADiWESNvPuqnm0jANBgkqhkiG9w0BAQsFADAW
MRQwEgYDVQQDDAt0ZWFtMzAzLW5ldDAeFw0yMzExMDMyMDQ0NDdaFw0yNjEwMTgy
MDQ0NDdaMBkxFzAVBgNVBAMMDnRlYW0zMDMtY2xpZW50MIIBIjANBgkqhkiG9w0B
AQEFAAOCAQ8AMIIBCgKCAQEAuWfzMrtrvxJVOu8r+sdK/Vd2rWbiR5SwiF1jvNdT
PQ9wCVZBH8CXTvJuFO8ZtpoiK9NMa/SLVHBw9cqTFGIAcG7elyTddYfiiE/2zWhU
cutjYN9tyjsJfFvbWDsnuW6p1/OjqEQMSe+KeUbNHZtc8EEj0pHN8CeDYhi2gJzF
f8DGNTDZJ4Yt+fW6fvjLxnlNFb0V14wClwKfHQnFes3k30y17tj8k36uLpFZnhR1
zV3fZLvM23T+joQunv6pxKue6MM+BpmDo+AHGkcNV2zsFGBES2LSXvstBWrCGm9d
STwgEflLO3IlDkCvyPL4lSfNGw++j9pY7cDaXyF0bxDBCQIDAQABo4GiMIGfMAkG
A1UdEwQCMAAwHQYDVR0OBBYEFJqUTQZPp7t9ejxGCwGWXV2QpbbZMFEGA1UdIwRK
MEiAFHezbiy5HUtoc7wShEqiZtJJgr1coRqkGDAWMRQwEgYDVQQDDAt0ZWFtMzAz
LW5ldIIUZatVtH+c4wi76lGkfC452kJaK14wEwYDVR0lBAwwCgYIKwYBBQUHAwIw
CwYDVR0PBAQDAgeAMA0GCSqGSIb3DQEBCwUAA4IBAQAzATCske3nOOKfCfm7VCCi
jaaj3yMS/OSjxPGFK31zYzLOeVhPVckiw6UMAkSl/xvUqKIhsXZN0rRgsaoSHvG6
J0e8zQzIURxKtwHCWCitpvSXJCO10S0YPkJHPXHtSco3LrVsPfqWMDOIi/Ema//a
yaPctCBDE4Rt/DtW2cSUgHob5YZuqImq2Ei8rpRgErmWW+vh+Uf4+ekEEXu6BUXs
MDrFrSXjernEspN8dZ+aw042o91bSGfV0o4lp4N2g0V9DZTCLeXuIJsxqNMl3MAq
/gN08+It7o6FOJMxMdmdwp3B4bxYMo8eP9PxHOrFMAzkABRYpNkUGLFvw6GJqf+N
-----END CERTIFICATE-----
