Certificate:
    Data:
        Version: 3 (0x2)
        Serial Number:
            d0:47:bd:48:41:e6:ce:6b:a1:af:35:88:f8:d2:b5:1c
        Signature Algorithm: sha256WithRSAEncryption
        Issuer: CN=team303-net
        Validity
            Not Before: Nov  3 20:44:47 2023 GMT
            Not After : Oct 18 20:44:47 2026 GMT
        Subject: CN=team303-server
        Subject Public Key Info:
            Public Key Algorithm: rsaEncryption
                Public-Key: (2048 bit)
                Modulus:
                    00:c2:97:ec:5d:5e:b6:2d:05:e9:f7:88:67:46:03:
                    d3:ee:da:4c:e3:c7:09:4f:41:16:ee:23:05:85:f4:
                    85:79:a8:a5:c9:93:ee:93:1c:d0:8b:3f:ca:eb:b8:
                    32:fb:77:c2:9f:a4:88:17:e3:a3:b6:09:e9:b9:22:
                    ea:3e:61:d2:fa:fb:34:50:e1:59:92:a7:60:8d:3d:
                    97:08:1d:37:6e:09:81:1d:f3:56:04:5a:3f:63:23:
                    31:bc:65:87:cc:0a:c3:15:fb:c6:d5:94:cb:64:ee:
                    e8:8f:ac:9c:0b:ca:6e:b7:e4:7d:8e:a8:bc:28:27:
                    47:9c:f2:ff:77:20:a4:dd:10:0c:ac:5d:e0:7a:7b:
                    e2:61:16:b2:b4:23:fd:3e:00:4c:60:f4:78:ae:9b:
                    39:a3:a7:39:b1:15:de:18:97:43:e5:52:ce:80:d2:
                    b1:df:17:9e:a8:94:c7:f8:18:b3:41:4e:ba:70:2f:
                    3c:2f:5c:8f:bf:78:8c:4e:f8:b5:fc:5b:bf:2b:07:
                    ca:ec:d2:94:3f:62:4a:27:af:cd:3d:98:06:71:93:
                    8a:6a:bc:c1:54:5b:e5:df:90:93:66:9f:86:28:e1:
                    18:cd:f9:ca:83:11:2b:b8:a1:24:91:b6:30:b7:c3:
                    86:fd:79:57:c8:c5:32:b9:b8:4b:00:43:a0:d9:78:
                    a1:43
                Exponent: 65537 (0x10001)
        X509v3 extensions:
            X509v3 Basic Constraints: 
                CA:FALSE
            X509v3 Subject Key Identifier: 
                2D:B8:97:58:CC:EE:80:D0:E4:E4:8D:2E:E2:36:66:02:F1:CA:BB:5C
            X509v3 Authority Key Identifier: 
                keyid:77:B3:6E:2C:B9:1D:4B:68:73:BC:12:84:4A:A2:66:D2:49:82:BD:5C
                DirName:/CN=team303-net
                serial:65:AB:55:B4:7F:9C:E3:08:BB:EA:51:A4:7C:2E:39:DA:42:5A:2B:5E
            X509v3 Extended Key Usage: 
                TLS Web Server Authentication
            X509v3 Key Usage: 
                Digital Signature, Key Encipherment
            X509v3 Subject Alternative Name: 
                DNS:team303-server
    Signature Algorithm: sha256WithRSAEncryption
    Signature Value:
        43:84:5a:9a:f1:9f:21:5a:81:2b:79:98:09:ba:16:66:f2:88:
        18:fb:73:25:22:6e:08:76:c5:50:50:3f:d1:9e:3b:b4:2e:0f:
        2b:0b:96:b4:9f:4e:58:16:d3:23:fc:aa:3c:d1:b1:1b:bc:3d:
        d8:7c:f6:99:d9:f7:bc:6f:b7:fe:47:19:cf:f4:05:db:f8:d1:
        88:00:17:a9:ab:c6:85:0f:2c:bc:71:2c:62:73:d0:b1:ba:b0:
        49:f3:0c:6d:3e:d3:6a:99:29:23:6d:c1:f8:98:f9:83:e0:4f:
        24:58:e0:1e:8f:af:5f:72:b5:09:11:f5:cc:96:01:1a:00:62:
        32:ee:bb:2d:b2:47:02:db:d5:4a:05:83:77:aa:12:5f:6c:28:
        98:a1:20:66:a5:ae:33:6f:94:ea:16:8e:e6:e4:76:04:83:ce:
        b7:d4:24:8d:b5:26:1d:9f:92:d9:25:05:ca:d2:e9:2f:60:b7:
        fc:e1:4d:09:28:b7:00:c6:65:05:39:97:88:eb:94:68:99:3d:
        31:77:3e:cc:90:22:86:ec:22:32:c6:d4:ba:51:74:70:7c:13:
        fd:d5:f2:71:06:57:5d:47:be:2d:eb:1a:a0:9f:c2:26:a7:21:
        d3:88:eb:cb:8c:f0:3c:87:ca:fe:e6:e3:ce:8c:63:ad:67:50:
        35:42:ef:e9
-----BEGIN CERTIFICATE-----
MIIDeDCCAmCgAwIBAgIRANBHvUhB5s5roa81iPjStRwwDQYJKoZIhvcNAQELBQAw
FjEUMBIGA1UEAwwLdGVhbTMwMy1uZXQwHhcNMjMxMTAzMjA0NDQ3WhcNMjYxMDE4
MjA0NDQ3WjAZMRcwFQYDVQQDDA50ZWFtMzAzLXNlcnZlcjCCASIwDQYJKoZIhvcN
AQEBBQADggEPADCCAQoCggEBAMKX7F1eti0F6feIZ0YD0+7aTOPHCU9BFu4jBYX0
hXmopcmT7pMc0Is/yuu4Mvt3wp+kiBfjo7YJ6bki6j5h0vr7NFDhWZKnYI09lwgd
N24JgR3zVgRaP2MjMbxlh8wKwxX7xtWUy2Tu6I+snAvKbrfkfY6ovCgnR5zy/3cg
pN0QDKxd4Hp74mEWsrQj/T4ATGD0eK6bOaOnObEV3hiXQ+VSzoDSsd8XnqiUx/gY
s0FOunAvPC9cj794jE74tfxbvysHyuzSlD9iSievzT2YBnGTimq8wVRb5d+Qk2af
hijhGM35yoMRK7ihJJG2MLfDhv15V8jFMrm4SwBDoNl4oUMCAwEAAaOBvTCBujAJ
BgNVHRMEAjAAMB0GA1UdDgQWBBQtuJdYzO6A0OTkjS7iNmYC8cq7XDBRBgNVHSME
SjBIgBR3s24suR1LaHO8EoRKombSSYK9XKEapBgwFjEUMBIGA1UEAwwLdGVhbTMw
My1uZXSCFGWrVbR/nOMIu+pRpHwuOdpCWiteMBMGA1UdJQQMMAoGCCsGAQUFBwMB
MAsGA1UdDwQEAwIFoDAZBgNVHREEEjAQgg50ZWFtMzAzLXNlcnZlcjANBgkqhkiG
9w0BAQsFAAOCAQEAQ4RamvGfIVqBK3mYCboWZvKIGPtzJSJuCHbFUFA/0Z47tC4P
KwuWtJ9OWBbTI/yqPNGxG7w92Hz2mdn3vG+3/kcZz/QF2/jRiAAXqavGhQ8svHEs
YnPQsbqwSfMMbT7TapkpI23B+Jj5g+BPJFjgHo+vX3K1CRH1zJYBGgBiMu67LbJH
AtvVSgWDd6oSX2womKEgZqWuM2+U6haO5uR2BIPOt9QkjbUmHZ+S2SUFytLpL2C3
/OFNCSi3AMZlBTmXiOuUaJk9MXc+zJAihuwiMsbUulF0cHwT/dXycQZXXUe+Lesa
oJ/CJqch04jry4zwPIfK/ubjzoxjrWdQNULv6Q==
-----END CERTIFICATE-----
