Certificate:
    Data:
        Version: 3 (0x2)
        Serial Number:
            6d:f6:f5:cb:84:70:7d:44:ed:62:9a:2b:1b:91:f0:22
        Signature Algorithm: sha256WithRSAEncryption
        Issuer: CN=team364-net
        Validity
            Not Before: Nov  4 10:47:14 2023 GMT
            Not After : Oct 19 10:47:14 2026 GMT
        Subject: CN=team364-client
        Subject Public Key Info:
            Public Key Algorithm: rsaEncryption
                Public-Key: (2048 bit)
                Modulus:
                    00:95:5c:a8:b3:59:6e:cb:e0:ea:ea:d2:f6:fa:a0:
                    06:5f:dc:dd:e1:22:dd:e5:f1:99:36:b1:31:9f:af:
                    07:bf:67:55:95:24:53:9c:4f:be:9c:1a:f6:63:6a:
                    8f:a8:d2:bc:9b:2f:5c:f0:a9:93:5d:95:f0:65:92:
                    56:45:f1:d6:ce:a5:f1:a2:07:cd:7e:95:d5:2e:8b:
                    01:55:de:d7:72:d3:1b:04:90:2c:fd:c7:be:1e:ae:
                    b6:3f:60:22:80:02:27:b7:06:ce:db:54:dc:96:93:
                    0f:97:15:a9:23:12:ba:ff:5b:9e:90:a6:94:a8:78:
                    98:21:ea:71:62:72:87:2b:1b:41:83:36:b2:31:69:
                    59:4d:56:cf:3b:15:61:42:4f:84:9f:15:5b:c8:49:
                    f6:cd:af:60:b1:a3:4a:c9:da:e4:a7:97:50:64:c6:
                    b8:33:06:0c:31:70:7f:a6:8b:80:01:b4:c2:4f:db:
                    c7:da:8e:1b:98:bb:c7:98:b6:22:a8:49:1b:9c:4d:
                    52:c2:b9:27:19:50:3a:84:b3:b0:72:8b:69:29:ce:
                    46:4a:c0:5e:a1:7d:ff:26:68:57:f7:1b:86:49:61:
                    d7:7e:f2:99:38:e8:7b:ce:b7:9d:89:9a:8d:f1:df:
                    9f:fd:86:c9:80:2c:04:74:93:df:ae:76:02:d8:fb:
                    89:1b
                Exponent: 65537 (0x10001)
        X509v3 extensions:
            X509v3 Basic Constraints: 
                CA:FALSE
            X509v3 Subject Key Identifier: 
                E1:39:6A:34:15:E3:CD:4A:4B:CE:0B:08:DE:80:CB:BE:62:43:4F:3A
            X509v3 Authority Key Identifier: 
                keyid:D7:17:7E:80:86:BE:CB:86:37:A1:98:E4:38:81:D0:A2:73:05:40:7C
                DirName:/CN=team364-net
                serial:05:B1:65:0B:B1:6E:AD:B4:9F:11:F5:23:35:AF:39:A9:FD:CA:78:9A
            X509v3 Extended Key Usage: 
                TLS Web Client Authentication
            X509v3 Key Usage: 
                Digital Signature
    Signature Algorithm: sha256WithRSAEncryption
    Signature Value:
        b4:45:21:a6:5b:7e:31:99:2b:6a:de:8b:fa:9a:f2:a0:7f:39:
        d7:d7:04:46:3a:d7:c9:cc:ba:2b:fd:35:92:b4:ad:1c:34:65:
        ab:68:da:d2:a0:dc:69:00:70:ae:0d:f8:cb:52:b3:1e:57:dd:
        bc:fe:4d:6e:ad:23:92:bd:b0:82:72:09:93:2c:4e:58:c7:59:
        5e:eb:82:11:8c:6f:16:48:d2:25:fc:70:39:ff:e2:60:7c:bb:
        46:29:f2:c0:c1:11:0a:41:2a:2f:f1:28:7e:90:95:c7:e9:42:
        c8:16:09:d6:20:65:36:39:50:ed:8c:f4:07:0f:61:8a:a3:a3:
        37:97:db:d0:47:b6:4c:9b:dc:9f:a9:08:a8:52:1e:73:d4:34:
        43:58:3f:b4:d1:c2:1b:2c:f0:41:bc:aa:aa:19:b5:d8:bb:01:
        67:fd:9b:38:7a:76:58:4f:d6:4b:67:5c:c8:42:88:52:22:2a:
        f3:8b:5c:45:8b:05:ad:7a:c1:d8:94:c7:45:d8:5a:45:c9:e3:
        0e:ea:87:a6:b2:78:73:b0:ae:e3:36:4f:75:54:43:bb:63:c6:
        27:d0:cb:67:63:26:17:f0:3d:ef:7a:45:33:03:9a:ab:a9:a2:
        b5:33:31:e6:5d:04:25:a9:84:0a:98:88:51:d6:22:01:54:dd:
        19:35:98:3f
-----BEGIN CERTIFICATE-----
MIIDXDCCAkSgAwIBAgIQbfb1y4RwfUTtYporG5HwIjANBgkqhkiG9w0BAQsFADAW
MRQwEgYDVQQDDAt0ZWFtMzY0LW5ldDAeFw0yMzExMDQxMDQ3MTRaFw0yNjEwMTkx
MDQ3MTRaMBkxFzAVBgNVBAMMDnRlYW0zNjQtY2xpZW50MIIBIjANBgkqhkiG9w0B
AQEFAAOCAQ8AMIIBCgKCAQEAlVyos1luy+Dq6tL2+qAGX9zd4SLd5fGZNrExn68H
v2dVlSRTnE++nBr2Y2qPqNK8my9c8KmTXZXwZZJWRfHWzqXxogfNfpXVLosBVd7X
ctMbBJAs/ce+Hq62P2AigAIntwbO21TclpMPlxWpIxK6/1uekKaUqHiYIepxYnKH
KxtBgzayMWlZTVbPOxVhQk+EnxVbyEn2za9gsaNKydrkp5dQZMa4MwYMMXB/pouA
AbTCT9vH2o4bmLvHmLYiqEkbnE1SwrknGVA6hLOwcotpKc5GSsBeoX3/JmhX9xuG
SWHXfvKZOOh7zrediZqN8d+f/YbJgCwEdJPfrnYC2PuJGwIDAQABo4GiMIGfMAkG
A1UdEwQCMAAwHQYDVR0OBBYEFOE5ajQV481KS84LCN6Ay75iQ086MFEGA1UdIwRK
MEiAFNcXfoCGvsuGN6GY5DiB0KJzBUB8oRqkGDAWMRQwEgYDVQQDDAt0ZWFtMzY0
LW5ldIIUBbFlC7FurbSfEfUjNa85qf3KeJowEwYDVR0lBAwwCgYIKwYBBQUHAwIw
CwYDVR0PBAQDAgeAMA0GCSqGSIb3DQEBCwUAA4IBAQC0RSGmW34xmStq3ov6mvKg
fznX1wRGOtfJzLor/TWStK0cNGWraNrSoNxpAHCuDfjLUrMeV928/k1urSOSvbCC
cgmTLE5Yx1le64IRjG8WSNIl/HA5/+JgfLtGKfLAwREKQSov8Sh+kJXH6ULIFgnW
IGU2OVDtjPQHD2GKo6M3l9vQR7ZMm9yfqQioUh5z1DRDWD+00cIbLPBBvKqqGbXY
uwFn/Zs4enZYT9ZLZ1zIQohSIirzi1xFiwWtesHYlMdF2FpFyeMO6oemsnhzsK7j
Nk91VEO7Y8Yn0MtnYyYX8D3vekUzA5qrqaK1MzHmXQQlqYQKmIhR1iIBVN0ZNZg/
-----END CERTIFICATE-----
