Certificate:
    Data:
        Version: 3 (0x2)
        Serial Number:
            aa:36:87:0b:c1:9f:92:6d:44:1d:61:bb:d8:0b:43:68
        Signature Algorithm: sha256WithRSAEncryption
        Issuer: CN=team364-net
        Validity
            Not Before: Nov  4 11:35:35 2023 GMT
            Not After : Oct 19 11:35:35 2026 GMT
        Subject: CN=team364-client
        Subject Public Key Info:
            Public Key Algorithm: rsaEncryption
                Public-Key: (2048 bit)
                Modulus:
                    00:af:56:7e:1a:4a:84:b9:19:44:6a:53:53:4b:ec:
                    60:90:d7:a6:6a:31:4a:7a:df:72:3a:a5:25:dc:4c:
                    4f:32:de:99:27:e0:70:55:ea:d7:da:f6:83:24:ff:
                    13:ce:d8:9f:c1:09:5b:c6:a9:47:c5:a3:c0:4f:45:
                    91:6e:1f:e8:7a:a0:71:3e:c1:12:7b:35:89:02:69:
                    69:6d:4d:aa:9d:4c:83:47:d8:48:51:8d:bd:b7:56:
                    29:54:60:19:76:be:22:54:1c:f6:fb:9e:b0:cf:20:
                    94:d8:c3:dd:c0:89:ad:c3:e7:da:94:8f:2e:0b:cb:
                    2f:a3:d2:a0:12:8d:a0:56:8e:b4:8a:5e:a2:e3:04:
                    c3:30:52:00:6b:84:56:43:6a:cf:27:5a:7a:2c:02:
                    42:12:47:f9:54:7f:36:aa:9f:33:52:23:cc:8f:a1:
                    37:d3:57:f2:92:b5:82:96:43:0e:77:23:90:9d:ec:
                    6c:c1:c6:8d:c7:88:e6:6f:18:19:4f:54:5c:ec:b6:
                    3e:de:13:f3:83:98:d2:56:de:9a:a6:10:54:d7:3c:
                    fd:5b:83:b1:10:57:6e:b8:7b:90:ad:c8:ab:b6:88:
                    ef:45:26:df:de:f1:4f:f9:8a:e1:51:2d:79:bd:97:
                    5b:a1:a5:8f:a0:9f:f8:94:1e:66:b4:de:f0:09:5b:
                    0f:97
                Exponent: 65537 (0x10001)
        X509v3 extensions:
            X509v3 Basic Constraints: 
                CA:FALSE
            X509v3 Subject Key Identifier: 
                86:AF:5C:19:C5:E6:A2:7E:84:FB:D5:1A:B2:14:64:74:D9:13:17:60
            X509v3 Authority Key Identifier: 
                keyid:CE:6D:AC:FA:38:A5:6B:EA:92:9A:52:04:5F:93:FD:1E:8D:6A:A1:27
                DirName:/CN=team364-net
                serial:02:38:D9:7F:F8:0B:2F:45:C8:46:4F:80:56:22:C9:48:0E:41:CF:AA
            X509v3 Extended Key Usage: 
                TLS Web Client Authentication
            X509v3 Key Usage: 
                Digital Signature
    Signature Algorithm: sha256WithRSAEncryption
    Signature Value:
        c4:46:07:09:4e:84:8f:8a:ef:56:a4:99:a5:c9:32:58:d0:13:
        4f:cc:0a:51:f7:3a:10:d3:4a:01:2d:0f:12:dd:cf:28:d5:7c:
        c6:a5:90:37:76:88:02:df:48:8a:c7:14:44:26:ca:1b:3e:2c:
        c2:d1:bb:f9:cb:d1:de:e8:56:ab:c1:6e:40:1d:1b:6d:a1:9f:
        21:47:93:ba:8d:1c:f8:ba:6d:c3:eb:11:6e:10:01:42:b5:e1:
        47:1f:f2:3f:c5:84:63:02:dd:9d:b9:eb:80:dd:9a:23:7e:dd:
        eb:4a:ec:ee:83:11:2c:46:d6:28:5e:72:cc:b5:55:b9:8c:ba:
        ae:b0:a7:b7:4e:c5:9a:ce:11:4d:0c:db:53:73:e7:61:ae:ce:
        f7:7d:6c:b8:62:95:18:0d:63:84:a1:4a:32:dc:40:cf:5f:9e:
        02:45:12:ae:37:d8:b4:db:b9:96:80:dc:7e:d7:33:3e:13:8d:
        11:db:ab:a3:e1:5a:5f:d4:f1:bf:88:db:f4:6b:1a:5b:44:74:
        c4:a8:64:8b:6b:6d:05:ba:14:b5:ee:42:86:c2:da:cb:d4:23:
        1c:db:2d:fa:22:7b:0b:ce:4a:89:ed:6d:51:89:65:56:39:85:
        13:3b:c2:9b:ac:6f:7b:03:34:70:05:c8:40:0b:7d:12:a2:9b:
        62:4e:a7:ca
-----BEGIN CERTIFICATE-----
MIIDXTCCAkWgAwIBAgIRAKo2hwvBn5JtRB1hu9gLQ2gwDQYJKoZIhvcNAQELBQAw
FjEUMBIGA1UEAwwLdGVhbTM2NC1uZXQwHhcNMjMxMTA0MTEzNTM1WhcNMjYxMDE5
MTEzNTM1WjAZMRcwFQYDVQQDDA50ZWFtMzY0LWNsaWVudDCCASIwDQYJKoZIhvcN
AQEBBQADggEPADCCAQoCggEBAK9WfhpKhLkZRGpTU0vsYJDXpmoxSnrfcjqlJdxM
TzLemSfgcFXq19r2gyT/E87Yn8EJW8apR8WjwE9FkW4f6HqgcT7BEns1iQJpaW1N
qp1Mg0fYSFGNvbdWKVRgGXa+IlQc9vuesM8glNjD3cCJrcPn2pSPLgvLL6PSoBKN
oFaOtIpeouMEwzBSAGuEVkNqzydaeiwCQhJH+VR/NqqfM1IjzI+hN9NX8pK1gpZD
DncjkJ3sbMHGjceI5m8YGU9UXOy2Pt4T84OY0lbemqYQVNc8/VuDsRBXbrh7kK3I
q7aI70Um397xT/mK4VEteb2XW6Glj6Cf+JQeZrTe8AlbD5cCAwEAAaOBojCBnzAJ
BgNVHRMEAjAAMB0GA1UdDgQWBBSGr1wZxeaifoT71RqyFGR02RMXYDBRBgNVHSME
SjBIgBTObaz6OKVr6pKaUgRfk/0ejWqhJ6EapBgwFjEUMBIGA1UEAwwLdGVhbTM2
NC1uZXSCFAI42X/4Cy9FyEZPgFYiyUgOQc+qMBMGA1UdJQQMMAoGCCsGAQUFBwMC
MAsGA1UdDwQEAwIHgDANBgkqhkiG9w0BAQsFAAOCAQEAxEYHCU6Ej4rvVqSZpcky
WNATT8wKUfc6ENNKAS0PEt3PKNV8xqWQN3aIAt9IiscURCbKGz4swtG7+cvR3uhW
q8FuQB0bbaGfIUeTuo0c+Lptw+sRbhABQrXhRx/yP8WEYwLdnbnrgN2aI37d60rs
7oMRLEbWKF5yzLVVuYy6rrCnt07Fms4RTQzbU3PnYa7O931suGKVGA1jhKFKMtxA
z1+eAkUSrjfYtNu5loDcftczPhONEduro+FaX9Txv4jb9GsaW0R0xKhki2ttBboU
te5ChsLay9QjHNst+iJ7C85Kie1tUYllVjmFEzvCm6xvewM0cAXIQAt9EqKbYk6n
yg==
-----END CERTIFICATE-----
