Certificate:
    Data:
        Version: 3 (0x2)
        Serial Number:
            d1:de:de:07:5a:59:84:03:ed:25:a4:35:3a:89:39:b1
        Signature Algorithm: sha256WithRSAEncryption
        Issuer: CN=team364-net
        Validity
            Not Before: Nov  4 11:35:36 2023 GMT
            Not After : Oct 19 11:35:36 2026 GMT
        Subject: CN=team364-server
        Subject Public Key Info:
            Public Key Algorithm: rsaEncryption
                Public-Key: (2048 bit)
                Modulus:
                    00:e3:45:2d:ce:df:30:ad:97:cc:d2:6c:6d:d1:29:
                    06:42:3d:cc:e4:8c:86:48:c8:c4:f7:a7:72:2e:16:
                    70:f9:44:1e:db:bf:90:3a:c7:cb:5d:b7:88:ae:bc:
                    40:db:8e:7e:83:96:61:a3:b9:f7:9d:fb:bf:cb:e7:
                    64:11:ab:fe:db:e4:ba:d7:20:d2:12:5a:99:f2:4a:
                    7a:46:36:b8:69:53:06:c7:7e:b5:00:bf:86:42:69:
                    d6:cb:88:b1:51:00:92:31:c1:b5:08:e2:34:ea:87:
                    68:78:d4:c1:16:b9:8f:19:f2:74:2e:9b:f4:f9:40:
                    d5:3e:b0:df:c5:5e:44:0e:de:5d:ce:b1:59:4d:3b:
                    51:b7:22:15:25:b0:4a:b4:54:20:f0:51:9e:5f:ef:
                    d0:3c:e0:0f:83:b8:53:77:ba:81:cc:5a:74:71:47:
                    b2:1f:4e:ff:3f:a2:65:f2:d7:ae:71:2d:c6:cc:65:
                    e0:33:72:21:06:89:e0:3a:a9:b2:df:2e:19:67:38:
                    34:16:52:87:6c:91:fb:4b:5d:ca:38:cf:88:fc:55:
                    f7:8b:5c:b0:f9:23:f4:3e:cc:85:2c:9e:78:b7:e0:
                    2e:4e:02:03:af:8e:9f:3c:8a:cb:5e:57:08:48:37:
                    46:e3:67:a8:f1:8f:34:30:41:78:45:8d:45:e9:d4:
                    dc:81
                Exponent: 65537 (0x10001)
        X509v3 extensions:
            X509v3 Basic Constraints: 
                CA:FALSE
            X509v3 Subject Key Identifier: 
                08:0A:B0:45:6E:79:64:54:C2:73:A5:2E:51:B2:6C:A4:A1:B1:16:4B
            X509v3 Authority Key Identifier: 
                keyid:CE:6D:AC:FA:38:A5:6B:EA:92:9A:52:04:5F:93:FD:1E:8D:6A:A1:27
                DirName:/CN=team364-net
                serial:02:38:D9:7F:F8:0B:2F:45:C8:46:4F:80:56:22:C9:48:0E:41:CF:AA
            X509v3 Extended Key Usage: 
                TLS Web Server Authentication
            X509v3 Key Usage: 
                Digital Signature, Key Encipherment
            X509v3 Subject Alternative Name: 
                DNS:team364-server
    Signature Algorithm: sha256WithRSAEncryption
    Signature Value:
        6c:09:cd:bc:e8:40:f0:12:97:ec:54:a9:33:f2:83:0b:f0:a1:
        31:6d:9f:0e:d6:99:f0:b4:a6:ed:dd:e1:4a:ee:5a:0d:8a:de:
        88:47:b4:94:ee:42:84:e7:ea:94:04:30:b3:26:44:fb:50:bd:
        f1:89:99:d5:49:16:7d:70:ce:cf:36:d9:7c:3c:fd:ac:4b:1d:
        aa:ea:d3:19:8e:94:15:3d:f8:3c:d0:43:31:33:41:ae:0b:1d:
        25:13:8a:c2:ae:b0:05:a7:b9:bd:13:7b:8e:dc:ac:40:b8:b0:
        b6:9a:44:57:ad:cb:bb:76:3b:7d:09:88:22:2a:f2:ed:49:2e:
        57:fa:6f:ba:8b:c7:08:e5:67:f1:1d:32:bf:61:40:f8:01:ac:
        61:e9:15:32:69:48:f4:e6:4a:78:bd:aa:a1:90:0a:8a:9d:6e:
        4a:fd:ed:53:8c:e2:61:24:cb:75:47:b6:85:b8:c7:09:93:2e:
        ea:2d:1a:f9:3e:33:ed:58:a9:a9:62:0e:2d:33:54:6c:1d:a3:
        21:08:87:75:ec:29:dd:ab:aa:aa:22:27:fd:2b:ed:00:e9:b2:
        d1:45:1b:a9:2d:ef:0f:95:22:c9:54:b8:9a:21:00:2b:16:58:
        82:71:80:48:9f:64:a6:a2:1d:d1:f3:6d:f9:a2:62:95:81:06:
        88:6a:7c:6a
-----BEGIN CERTIFICATE-----
MIIDeDCCAmCgAwIBAgIRANHe3gdaWYQD7SWkNTqJObEwDQYJKoZIhvcNAQELBQAw
FjEUMBIGA1UEAwwLdGVhbTM2NC1uZXQwHhcNMjMxMTA0MTEzNTM2WhcNMjYxMDE5
MTEzNTM2WjAZMRcwFQYDVQQDDA50ZWFtMzY0LXNlcnZlcjCCASIwDQYJKoZIhvcN
AQEBBQADggEPADCCAQoCggEBAONFLc7fMK2XzNJsbdEpBkI9zOSMhkjIxPenci4W
cPlEHtu/kDrHy123iK68QNuOfoOWYaO59537v8vnZBGr/tvkutcg0hJamfJKekY2
uGlTBsd+tQC/hkJp1suIsVEAkjHBtQjiNOqHaHjUwRa5jxnydC6b9PlA1T6w38Ve
RA7eXc6xWU07UbciFSWwSrRUIPBRnl/v0DzgD4O4U3e6gcxadHFHsh9O/z+iZfLX
rnEtxsxl4DNyIQaJ4Dqpst8uGWc4NBZSh2yR+0tdyjjPiPxV94tcsPkj9D7MhSye
eLfgLk4CA6+OnzyKy15XCEg3RuNnqPGPNDBBeEWNRenU3IECAwEAAaOBvTCBujAJ
BgNVHRMEAjAAMB0GA1UdDgQWBBQICrBFbnlkVMJzpS5RsmykobEWSzBRBgNVHSME
SjBIgBTObaz6OKVr6pKaUgRfk/0ejWqhJ6EapBgwFjEUMBIGA1UEAwwLdGVhbTM2
NC1uZXSCFAI42X/4Cy9FyEZPgFYiyUgOQc+qMBMGA1UdJQQMMAoGCCsGAQUFBwMB
MAsGA1UdDwQEAwIFoDAZBgNVHREEEjAQgg50ZWFtMzY0LXNlcnZlcjANBgkqhkiG
9w0BAQsFAAOCAQEAbAnNvOhA8BKX7FSpM/KDC/ChMW2fDtaZ8LSm7d3hSu5aDYre
iEe0lO5ChOfqlAQwsyZE+1C98YmZ1UkWfXDOzzbZfDz9rEsdqurTGY6UFT34PNBD
MTNBrgsdJROKwq6wBae5vRN7jtysQLiwtppEV63Lu3Y7fQmIIiry7UkuV/pvuovH
COVn8R0yv2FA+AGsYekVMmlI9OZKeL2qoZAKip1uSv3tU4ziYSTLdUe2hbjHCZMu
6i0a+T4z7VipqWIOLTNUbB2jIQiHdewp3auqqiIn/SvtAOmy0UUbqS3vD5UiyVS4
miEAKxZYgnGASJ9kpqId0fNt+aJilYEGiGp8ag==
-----END CERTIFICATE-----
