Certificate:
    Data:
        Version: 3 (0x2)
        Serial Number:
            11:b4:09:18:ec:b2:43:6d:be:98:53:ed:8e:9e:ed:01
        Signature Algorithm: sha256WithRSAEncryption
        Issuer: CN=team248-net
        Validity
            Not Before: Nov  3 20:43:50 2023 GMT
            Not After : Oct 18 20:43:50 2026 GMT
        Subject: CN=team248-client
        Subject Public Key Info:
            Public Key Algorithm: rsaEncryption
                Public-Key: (2048 bit)
                Modulus:
                    00:b4:62:9e:d9:ec:73:90:d4:dc:c8:6f:58:79:97:
                    a0:5a:34:21:23:59:28:5d:30:0a:dd:94:07:bd:ff:
                    4d:e0:7c:26:98:82:1e:80:dd:40:83:b9:bc:96:bc:
                    9b:3a:2a:5b:fd:e9:0d:2a:7d:d6:30:43:11:83:c0:
                    2c:58:e7:df:36:b3:de:b3:af:a9:1c:54:8a:6f:cf:
                    58:10:c0:00:ad:e6:1f:b7:0e:c5:f5:70:d4:ec:65:
                    5e:87:29:cc:91:73:69:99:1a:75:67:51:ff:1a:77:
                    b9:47:cd:84:52:b6:44:f4:86:b3:70:13:3e:db:1b:
                    10:9f:66:77:68:ce:7f:92:ee:9f:dc:1d:58:00:f7:
                    2d:5b:b4:ee:8d:02:24:7a:c4:e3:2d:c4:05:ab:c0:
                    31:38:c0:79:03:78:cf:7d:5a:2e:96:c8:55:66:17:
                    66:4b:59:46:90:72:53:81:19:6d:f1:86:72:fe:be:
                    53:be:d5:3a:cf:c5:fc:a3:18:0f:98:d3:3c:bb:80:
                    31:19:d6:b3:1e:66:ab:da:73:da:b8:3f:ce:77:c9:
                    9e:fa:56:f3:d6:8a:19:a6:9c:d8:47:49:0b:09:62:
                    2d:ea:ac:f1:93:94:dd:30:47:f1:0d:97:6b:32:f8:
                    9d:7d:f5:5f:cb:70:8a:b7:f5:a0:c4:da:d0:7c:e3:
                    89:b9
                Exponent: 65537 (0x10001)
        X509v3 extensions:
            X509v3 Basic Constraints: 
                CA:FALSE
            X509v3 Subject Key Identifier: 
                B3:76:BC:3F:3F:A2:4C:66:B6:EF:7B:09:4E:B9:B9:F8:E3:9F:9E:EC
            X509v3 Authority Key Identifier: 
                keyid:A8:A3:7F:AC:41:EC:7F:84:8A:B1:EA:55:C0:B2:F3:F8:6A:79:4F:7D
                DirName:/CN=team248-net
                serial:19:D3:2F:2B:78:E0:02:A9:ED:ED:A8:8B:92:E1:CF:04:D0:30:ED:57
            X509v3 Extended Key Usage: 
                TLS Web Client Authentication
            X509v3 Key Usage: 
                Digital Signature
    Signature Algorithm: sha256WithRSAEncryption
    Signature Value:
        7c:dc:00:be:3f:30:73:4e:0d:b5:59:96:9c:80:57:bb:8c:ad:
        1b:a5:b0:24:08:70:7e:0e:19:43:98:25:af:ce:9d:a6:88:03:
        86:fa:08:f9:6e:8b:ab:4d:b6:ae:92:f2:a5:13:11:c6:dd:7a:
        ac:b4:ec:c5:3f:90:25:06:6f:b3:90:5b:88:fc:60:a8:38:cf:
        14:d7:19:d8:7d:c7:ca:e5:6f:57:76:f4:cf:a3:54:e4:43:bc:
        b0:7c:d2:18:52:8a:74:8a:d7:be:1b:8c:5e:82:31:bb:81:35:
        16:c6:df:cc:66:01:1d:ce:3f:62:b2:6a:ff:9f:8b:db:6d:28:
        e1:d2:8a:78:c6:f1:bc:b9:29:6c:0e:53:34:34:8d:48:45:bc:
        d8:92:fa:fe:b3:66:e5:6e:58:e1:7b:34:bf:91:ad:ba:3f:b6:
        d2:ee:ca:cf:be:bb:95:6e:24:e2:cf:51:90:51:a0:a4:2f:c8:
        98:f1:4a:85:f8:fb:cd:b9:af:c4:6b:0c:9e:f3:eb:60:e9:d2:
        2b:53:f2:ef:80:fe:b6:dd:4c:54:45:a1:0d:f3:2b:e4:3c:6d:
        d9:3d:fa:ac:74:6f:ea:c6:e6:1f:78:01:46:15:56:5d:08:85:
        f0:37:75:e9:f0:58:ad:46:5f:4c:d6:9c:6f:2a:93:b2:20:b0:
        fd:47:4d:74
-----BEGIN CERTIFICATE-----
MIIDXDCCAkSgAwIBAgIQEbQJGOyyQ22+mFPtjp7tATANBgkqhkiG9w0BAQsFADAW
MRQwEgYDVQQDDAt0ZWFtMjQ4LW5ldDAeFw0yMzExMDMyMDQzNTBaFw0yNjEwMTgy
MDQzNTBaMBkxFzAVBgNVBAMMDnRlYW0yNDgtY2xpZW50MIIBIjANBgkqhkiG9w0B
AQEFAAOCAQ8AMIIBCgKCAQEAtGKe2exzkNTcyG9YeZegWjQhI1koXTAK3ZQHvf9N
4HwmmIIegN1Ag7m8lrybOipb/ekNKn3WMEMRg8AsWOffNrPes6+pHFSKb89YEMAA
reYftw7F9XDU7GVehynMkXNpmRp1Z1H/Gne5R82EUrZE9IazcBM+2xsQn2Z3aM5/
ku6f3B1YAPctW7TujQIkesTjLcQFq8AxOMB5A3jPfVoulshVZhdmS1lGkHJTgRlt
8YZy/r5TvtU6z8X8oxgPmNM8u4AxGdazHmar2nPauD/Od8me+lbz1ooZppzYR0kL
CWIt6qzxk5TdMEfxDZdrMvidffVfy3CKt/WgxNrQfOOJuQIDAQABo4GiMIGfMAkG
A1UdEwQCMAAwHQYDVR0OBBYEFLN2vD8/okxmtu97CU65ufjjn57sMFEGA1UdIwRK
MEiAFKijf6xB7H+EirHqVcCy8/hqeU99oRqkGDAWMRQwEgYDVQQDDAt0ZWFtMjQ4
LW5ldIIUGdMvK3jgAqnt7aiLkuHPBNAw7VcwEwYDVR0lBAwwCgYIKwYBBQUHAwIw
CwYDVR0PBAQDAgeAMA0GCSqGSIb3DQEBCwUAA4IBAQB83AC+PzBzTg21WZacgFe7
jK0bpbAkCHB+DhlDmCWvzp2miAOG+gj5bourTbaukvKlExHG3XqstOzFP5AlBm+z
kFuI/GCoOM8U1xnYfcfK5W9XdvTPo1TkQ7ywfNIYUop0ite+G4xegjG7gTUWxt/M
ZgEdzj9ismr/n4vbbSjh0op4xvG8uSlsDlM0NI1IRbzYkvr+s2blbljhezS/ka26
P7bS7srPvruVbiTiz1GQUaCkL8iY8UqF+PvNua/Eawye8+tg6dIrU/LvgP623UxU
RaEN8yvkPG3ZPfqsdG/qxuYfeAFGFVZdCIXwN3Xp8FitRl9M1pxvKpOyILD9R010
-----END CERTIFICATE-----
