Certificate:
    Data:
        Version: 3 (0x2)
        Serial Number:
            1d:5f:8a:36:fd:54:7d:b3:41:74:43:c3:a9:7b:af:de
        Signature Algorithm: sha256WithRSAEncryption
        Issuer: CN=team227-net
        Validity
            Not Before: Nov  4 11:32:05 2023 GMT
            Not After : Oct 19 11:32:05 2026 GMT
        Subject: CN=team227-server
        Subject Public Key Info:
            Public Key Algorithm: rsaEncryption
                Public-Key: (2048 bit)
                Modulus:
                    00:a9:fb:1d:f6:e5:73:08:f4:4d:a4:7e:31:da:32:
                    72:10:dc:a2:ba:8c:23:c9:5d:ae:a0:46:87:ef:36:
                    5e:84:73:0f:1c:45:d0:e9:a9:0e:05:e2:24:84:bf:
                    2a:fc:bd:31:c9:27:3d:4b:6c:a6:3f:83:61:8f:2e:
                    5d:a7:cc:64:f5:b9:f4:ab:27:1f:d9:ca:54:76:c3:
                    7f:97:b8:83:e1:f3:82:80:28:86:4f:75:f3:04:75:
                    c2:ad:5f:78:14:79:50:e4:18:55:86:65:01:6e:53:
                    6a:a5:7b:8d:04:25:89:ad:51:e6:6a:9c:37:62:2c:
                    5f:72:02:26:0e:6f:46:67:b4:bb:d2:7e:9a:05:68:
                    b0:a1:53:67:e3:fa:a6:94:31:84:63:23:3c:9d:7c:
                    1b:0e:3c:90:73:4c:35:f1:31:00:cd:14:96:09:9d:
                    96:26:c0:29:91:20:06:4b:81:b0:b9:1e:20:c0:2e:
                    99:41:3c:68:30:bc:a1:19:2a:f6:04:d0:d3:f2:ad:
                    27:0f:eb:aa:6f:72:bd:26:67:23:a3:cd:d8:57:e5:
                    99:fb:d6:e2:e4:f4:d2:3f:cb:ad:e6:13:44:50:16:
                    6e:da:4b:50:23:b9:8d:d0:6d:4d:b0:f3:9f:22:61:
                    f6:c0:3e:db:0b:2b:b5:5e:9f:c8:6e:39:66:3a:b4:
                    54:83
                Exponent: 65537 (0x10001)
        X509v3 extensions:
            X509v3 Basic Constraints: 
                CA:FALSE
            X509v3 Subject Key Identifier: 
                CB:FF:32:62:E3:14:D1:5D:E6:33:D8:55:17:FE:2E:E2:CF:1B:71:E3
            X509v3 Authority Key Identifier: 
                keyid:2C:23:1B:38:3D:2D:91:79:DB:12:4A:4E:70:17:27:CB:97:F3:48:46
                DirName:/CN=team227-net
                serial:29:79:10:DD:59:13:23:DA:00:5F:CF:9F:34:3F:B6:AB:E5:59:F5:41
            X509v3 Extended Key Usage: 
                TLS Web Server Authentication
            X509v3 Key Usage: 
                Digital Signature, Key Encipherment
            X509v3 Subject Alternative Name: 
                DNS:team227-server
    Signature Algorithm: sha256WithRSAEncryption
    Signature Value:
        07:7d:9f:47:9b:a9:84:b4:30:ed:46:35:dd:47:2b:9b:ea:81:
        d3:d6:c7:e3:b7:f0:2d:f2:05:c7:ab:a3:2c:73:45:97:fd:28:
        37:e3:5b:0f:bd:f9:b5:09:7d:bf:01:bb:be:80:40:27:da:a0:
        06:13:b9:13:39:68:ce:c7:5d:38:fd:0c:98:43:92:05:37:34:
        cd:5e:c4:2a:8f:55:90:a5:89:87:af:41:33:33:07:92:18:e9:
        d2:bf:f7:54:f9:89:d3:5f:dd:64:0b:40:1a:61:1c:48:97:a0:
        c1:c3:4b:6c:74:33:41:6d:be:eb:bf:9c:88:eb:32:49:6c:68:
        6f:0f:3b:c5:5e:26:60:16:2c:42:1a:ce:c4:ce:bb:f1:97:4a:
        04:8c:90:33:d5:8f:10:e2:11:d9:39:b6:1a:48:7f:1e:d1:9e:
        15:ae:bd:0b:01:96:66:91:6c:70:9f:ad:e0:7d:fe:71:f7:fd:
        50:b0:82:78:87:0f:a9:92:bc:f0:f5:f9:8d:f1:47:59:c8:e1:
        68:1e:26:a8:3f:e9:97:0b:ff:b3:7c:c7:6e:16:a6:7a:6c:64:
        a8:88:8b:09:09:7d:33:68:91:de:f2:47:f0:25:20:8a:2d:13:
        1f:c0:f2:82:a2:86:b6:1b:e6:5f:4b:2c:6d:f4:01:51:f5:62:
        e6:d7:f9:1e
-----BEGIN CERTIFICATE-----
MIIDdzCCAl+gAwIBAgIQHV+KNv1UfbNBdEPDqXuv3jANBgkqhkiG9w0BAQsFADAW
MRQwEgYDVQQDDAt0ZWFtMjI3LW5ldDAeFw0yMzExMDQxMTMyMDVaFw0yNjEwMTkx
MTMyMDVaMBkxFzAVBgNVBAMMDnRlYW0yMjctc2VydmVyMIIBIjANBgkqhkiG9w0B
AQEFAAOCAQ8AMIIBCgKCAQEAqfsd9uVzCPRNpH4x2jJyENyiuowjyV2uoEaH7zZe
hHMPHEXQ6akOBeIkhL8q/L0xySc9S2ymP4Nhjy5dp8xk9bn0qycf2cpUdsN/l7iD
4fOCgCiGT3XzBHXCrV94FHlQ5BhVhmUBblNqpXuNBCWJrVHmapw3YixfcgImDm9G
Z7S70n6aBWiwoVNn4/qmlDGEYyM8nXwbDjyQc0w18TEAzRSWCZ2WJsApkSAGS4Gw
uR4gwC6ZQTxoMLyhGSr2BNDT8q0nD+uqb3K9Jmcjo83YV+WZ+9bi5PTSP8ut5hNE
UBZu2ktQI7mN0G1NsPOfImH2wD7bCyu1Xp/IbjlmOrRUgwIDAQABo4G9MIG6MAkG
A1UdEwQCMAAwHQYDVR0OBBYEFMv/MmLjFNFd5jPYVRf+LuLPG3HjMFEGA1UdIwRK
MEiAFCwjGzg9LZF52xJKTnAXJ8uX80hGoRqkGDAWMRQwEgYDVQQDDAt0ZWFtMjI3
LW5ldIIUKXkQ3VkTI9oAX8+fND+2q+VZ9UEwEwYDVR0lBAwwCgYIKwYBBQUHAwEw
CwYDVR0PBAQDAgWgMBkGA1UdEQQSMBCCDnRlYW0yMjctc2VydmVyMA0GCSqGSIb3
DQEBCwUAA4IBAQAHfZ9Hm6mEtDDtRjXdRyub6oHT1sfjt/At8gXHq6Msc0WX/Sg3
41sPvfm1CX2/Abu+gEAn2qAGE7kTOWjOx104/QyYQ5IFNzTNXsQqj1WQpYmHr0Ez
MweSGOnSv/dU+YnTX91kC0AaYRxIl6DBw0tsdDNBbb7rv5yI6zJJbGhvDzvFXiZg
FixCGs7Ezrvxl0oEjJAz1Y8Q4hHZObYaSH8e0Z4Vrr0LAZZmkWxwn63gff5x9/1Q
sIJ4hw+pkrzw9fmN8UdZyOFoHiaoP+mXC/+zfMduFqZ6bGSoiIsJCX0zaJHe8kfw
JSCKLRMfwPKCooa2G+ZfSyxt9AFR9WLm1/ke
-----END CERTIFICATE-----
