Certificate:
    Data:
        Version: 3 (0x2)
        Serial Number:
            21:71:27:2e:ae:75:ab:e5:a5:36:00:83:1c:b7:07:46
        Signature Algorithm: sha256WithRSAEncryption
        Issuer: CN=team227-net
        Validity
            Not Before: Nov  4 10:44:54 2023 GMT
            Not After : Oct 19 10:44:54 2026 GMT
        Subject: CN=team227-server
        Subject Public Key Info:
            Public Key Algorithm: rsaEncryption
                Public-Key: (2048 bit)
                Modulus:
                    00:dc:3f:05:70:07:30:b9:0c:53:c9:95:86:b4:a8:
                    50:70:54:24:70:20:37:7d:df:62:62:d2:27:0c:d6:
                    3f:ca:d7:7b:b6:f9:f6:36:ec:4d:ef:d3:fb:f4:6b:
                    92:63:0f:8b:3f:72:5d:c4:1d:ea:8f:34:00:64:b3:
                    81:3c:2c:de:b1:64:68:d6:7f:7b:c5:17:4c:d6:4e:
                    2c:d3:ca:a2:af:b7:66:98:9c:45:99:e0:6f:f4:6a:
                    b8:38:34:c2:35:23:04:7d:2f:ac:71:ae:eb:d8:90:
                    6d:94:00:59:ba:05:27:93:f5:cb:09:d3:c5:09:28:
                    65:f5:ee:4f:94:eb:64:c4:53:31:2a:17:bc:45:08:
                    ee:48:81:df:23:9a:a6:12:c4:6c:df:9c:0a:b2:2e:
                    97:b5:1e:73:5c:f9:e5:e0:b2:37:d0:c8:3e:6e:4c:
                    bf:d2:75:d5:c5:67:c9:dd:99:e4:c6:1e:30:b8:2d:
                    ca:c4:ef:2d:3e:76:96:ef:96:39:d3:04:46:c0:c3:
                    b5:0d:42:a3:1f:77:a7:1c:2c:52:a0:91:2c:6d:a0:
                    24:68:88:1b:ad:da:3f:92:78:dc:92:42:a0:0e:0f:
                    9c:7e:99:e6:76:45:a4:72:c8:db:7b:fb:f7:d7:35:
                    4b:bf:34:f5:08:e1:3f:7c:07:1d:f5:44:e1:be:b2:
                    e4:d3
                Exponent: 65537 (0x10001)
        X509v3 extensions:
            X509v3 Basic Constraints: 
                CA:FALSE
            X509v3 Subject Key Identifier: 
                6B:3C:02:8B:D0:C1:1A:ED:6B:D0:77:1A:1D:8C:C5:CD:49:28:A2:E8
            X509v3 Authority Key Identifier: 
                keyid:0D:AE:1B:4D:55:87:6F:F9:B1:BE:D1:EA:53:D7:76:51:C3:1B:88:1C
                DirName:/CN=team227-net
                serial:41:B0:79:15:C8:0F:59:CF:F0:6D:13:9F:B0:16:F1:39:F2:64:15:E5
            X509v3 Extended Key Usage: 
                TLS Web Server Authentication
            X509v3 Key Usage: 
                Digital Signature, Key Encipherment
            X509v3 Subject Alternative Name: 
                DNS:team227-server
    Signature Algorithm: sha256WithRSAEncryption
    Signature Value:
        45:fa:15:61:77:bd:47:bd:34:52:21:a1:f1:4e:6f:0b:5f:07:
        a3:b2:9f:3b:d4:a5:cc:e3:d3:1d:8a:80:77:c0:89:15:9a:74:
        fb:d6:29:0c:62:00:2f:f8:08:8e:0e:df:f6:72:bb:4e:46:86:
        ac:6c:fd:e9:54:ed:cd:e7:df:63:ed:c0:dd:ae:30:7d:08:d0:
        5a:ae:b5:54:ef:69:a5:a1:c8:84:6d:56:56:53:a2:f2:b8:4c:
        8c:57:db:19:f5:bb:65:2d:5a:73:39:15:80:cb:54:3a:0e:1b:
        9b:9a:08:7e:29:54:c1:68:a1:e0:54:b6:cd:cd:b0:64:a1:79:
        80:0d:eb:65:37:3a:3b:ca:90:44:99:73:fe:34:96:9a:2a:6b:
        2c:9d:27:af:94:d6:dd:37:1d:79:52:e2:d0:c0:8e:1e:6a:54:
        4a:5b:00:cf:25:89:f7:79:50:e7:e9:55:fe:fc:13:f7:b6:3d:
        d3:3d:df:3a:4b:62:42:32:97:fb:b8:58:11:9d:dd:a0:47:22:
        fb:c9:92:6e:3a:ed:2d:9e:32:fa:a7:05:9f:ee:b9:f9:e2:4d:
        12:be:2b:3e:c6:c5:01:25:7e:a9:f1:47:8d:b9:d3:d0:24:f2:
        03:50:5a:59:38:72:3e:fd:74:d2:09:31:75:92:c0:20:8b:ba:
        1c:4e:10:3c
-----BEGIN CERTIFICATE-----
MIIDdzCCAl+gAwIBAgIQIXEnLq51q+WlNgCDHLcHRjANBgkqhkiG9w0BAQsFADAW
MRQwEgYDVQQDDAt0ZWFtMjI3LW5ldDAeFw0yMzExMDQxMDQ0NTRaFw0yNjEwMTkx
MDQ0NTRaMBkxFzAVBgNVBAMMDnRlYW0yMjctc2VydmVyMIIBIjANBgkqhkiG9w0B
AQEFAAOCAQ8AMIIBCgKCAQEA3D8FcAcwuQxTyZWGtKhQcFQkcCA3fd9iYtInDNY/
ytd7tvn2NuxN79P79GuSYw+LP3JdxB3qjzQAZLOBPCzesWRo1n97xRdM1k4s08qi
r7dmmJxFmeBv9Gq4ODTCNSMEfS+sca7r2JBtlABZugUnk/XLCdPFCShl9e5PlOtk
xFMxKhe8RQjuSIHfI5qmEsRs35wKsi6XtR5zXPnl4LI30Mg+bky/0nXVxWfJ3Znk
xh4wuC3KxO8tPnaW75Y50wRGwMO1DUKjH3enHCxSoJEsbaAkaIgbrdo/knjckkKg
Dg+cfpnmdkWkcsjbe/v31zVLvzT1COE/fAcd9UThvrLk0wIDAQABo4G9MIG6MAkG
A1UdEwQCMAAwHQYDVR0OBBYEFGs8AovQwRrta9B3Gh2Mxc1JKKLoMFEGA1UdIwRK
MEiAFA2uG01Vh2/5sb7R6lPXdlHDG4gcoRqkGDAWMRQwEgYDVQQDDAt0ZWFtMjI3
LW5ldIIUQbB5FcgPWc/wbROfsBbxOfJkFeUwEwYDVR0lBAwwCgYIKwYBBQUHAwEw
CwYDVR0PBAQDAgWgMBkGA1UdEQQSMBCCDnRlYW0yMjctc2VydmVyMA0GCSqGSIb3
DQEBCwUAA4IBAQBF+hVhd71HvTRSIaHxTm8LXwejsp871KXM49MdioB3wIkVmnT7
1ikMYgAv+AiODt/2crtORoasbP3pVO3N599j7cDdrjB9CNBarrVU72mlociEbVZW
U6LyuEyMV9sZ9btlLVpzORWAy1Q6Dhubmgh+KVTBaKHgVLbNzbBkoXmADetlNzo7
ypBEmXP+NJaaKmssnSevlNbdNx15UuLQwI4ealRKWwDPJYn3eVDn6VX+/BP3tj3T
Pd86S2JCMpf7uFgRnd2gRyL7yZJuOu0tnjL6pwWf7rn54k0Svis+xsUBJX6p8UeN
udPQJPIDUFpZOHI+/XTSCTF1ksAgi7ocThA8
-----END CERTIFICATE-----
