Certificate:
    Data:
        Version: 3 (0x2)
        Serial Number:
            3b:3c:e0:f7:ab:9b:3c:96:c6:04:08:6e:fd:6e:04:20
        Signature Algorithm: sha256WithRSAEncryption
        Issuer: CN=team227-net
        Validity
            Not Before: Nov  4 10:44:54 2023 GMT
            Not After : Oct 19 10:44:54 2026 GMT
        Subject: CN=team227-client
        Subject Public Key Info:
            Public Key Algorithm: rsaEncryption
                Public-Key: (2048 bit)
                Modulus:
                    00:90:e0:bc:83:9a:8d:be:71:07:c1:b3:3b:ec:ab:
                    83:72:36:03:ab:ed:97:ee:a2:45:78:e3:ef:24:74:
                    e8:5f:14:db:90:77:df:f3:17:c1:2b:19:d8:48:9e:
                    f5:69:9a:bf:68:c7:43:a7:29:4c:ed:58:c0:95:46:
                    8e:5a:d2:40:18:0c:98:16:b3:7a:bf:39:07:4b:5b:
                    0d:9b:ca:ec:76:8e:e5:1e:38:a9:11:f9:4e:a3:c2:
                    0f:b4:19:92:d7:b1:87:54:1c:0d:f7:75:7d:06:3d:
                    99:d3:48:c9:d8:99:88:7d:1d:46:da:c3:ef:92:fc:
                    ed:8d:f6:ef:3a:98:2c:f8:11:21:4a:f3:e6:b3:19:
                    58:cd:80:1b:5f:7a:71:a7:e2:7a:42:84:10:06:98:
                    76:61:24:c9:a6:2a:86:97:30:a0:99:bc:75:ce:aa:
                    7e:9e:e9:66:62:b5:de:d3:e6:72:45:ba:58:93:2a:
                    9d:b9:a6:88:09:a0:ec:f2:c8:73:1b:b7:cd:ec:df:
                    0a:6c:a2:83:ab:9a:7f:b4:0a:b4:d7:5c:c3:4c:4a:
                    ea:32:55:42:ce:7d:a3:6d:d9:1c:1a:b1:86:ad:a4:
                    4a:5d:aa:cc:66:e2:be:86:02:02:ea:d4:ed:1a:bb:
                    37:e2:29:41:6d:fa:cb:dc:61:d2:60:cd:8f:d4:f5:
                    d5:d1
                Exponent: 65537 (0x10001)
        X509v3 extensions:
            X509v3 Basic Constraints: 
                CA:FALSE
            X509v3 Subject Key Identifier: 
                8A:8F:68:3C:83:C6:06:D9:74:49:97:96:5A:36:E0:C6:F4:F3:48:49
            X509v3 Authority Key Identifier: 
                keyid:0D:AE:1B:4D:55:87:6F:F9:B1:BE:D1:EA:53:D7:76:51:C3:1B:88:1C
                DirName:/CN=team227-net
                serial:41:B0:79:15:C8:0F:59:CF:F0:6D:13:9F:B0:16:F1:39:F2:64:15:E5
            X509v3 Extended Key Usage: 
                TLS Web Client Authentication
            X509v3 Key Usage: 
                Digital Signature
    Signature Algorithm: sha256WithRSAEncryption
    Signature Value:
        6f:af:16:fd:f9:ee:21:5f:ee:e9:35:32:5d:da:ce:58:16:5a:
        d2:51:b1:6a:1f:ff:59:f4:8a:f6:a2:f8:b4:2c:8b:f1:d9:59:
        7b:69:95:ac:b8:a3:23:93:e5:4b:81:ef:ff:ff:04:7d:dc:a1:
        9d:2f:4e:fc:0e:3a:93:86:4a:04:e4:c4:3f:c6:fb:44:82:42:
        cd:7b:29:0a:a4:6d:32:db:d0:f4:9e:c0:7a:59:9e:ec:f8:f2:
        03:2f:ac:6d:3d:d5:ee:11:9c:c2:a2:b3:a2:dd:8f:8b:cb:a8:
        1a:83:a6:df:f8:f2:84:aa:c0:f3:6f:3e:99:18:94:de:9f:94:
        64:0f:9c:9d:3a:1f:a1:01:de:92:b5:db:6a:62:6e:87:6d:1c:
        f0:de:8a:d2:a9:1f:a8:ff:d5:95:46:aa:c7:2b:da:be:c3:d6:
        59:6f:55:be:c3:f6:6d:a2:07:fb:87:81:b4:9c:97:9f:e5:cc:
        fe:3c:fe:9d:c1:4a:28:33:bf:5d:1a:10:a5:4d:75:46:60:4b:
        68:9b:55:d8:39:fb:8a:6b:98:45:22:59:e4:57:da:8e:37:1d:
        06:2d:04:ab:e0:9c:6a:8f:8b:7e:c2:41:9a:bc:2f:6d:4e:84:
        42:e6:eb:a0:33:db:9b:da:20:55:a3:ae:26:46:38:1d:04:b1:
        a3:5b:58:7f
-----BEGIN CERTIFICATE-----
MIIDXDCCAkSgAwIBAgIQOzzg96ubPJbGBAhu/W4EIDANBgkqhkiG9w0BAQsFADAW
MRQwEgYDVQQDDAt0ZWFtMjI3LW5ldDAeFw0yMzExMDQxMDQ0NTRaFw0yNjEwMTkx
MDQ0NTRaMBkxFzAVBgNVBAMMDnRlYW0yMjctY2xpZW50MIIBIjANBgkqhkiG9w0B
AQEFAAOCAQ8AMIIBCgKCAQEAkOC8g5qNvnEHwbM77KuDcjYDq+2X7qJFeOPvJHTo
XxTbkHff8xfBKxnYSJ71aZq/aMdDpylM7VjAlUaOWtJAGAyYFrN6vzkHS1sNm8rs
do7lHjipEflOo8IPtBmS17GHVBwN93V9Bj2Z00jJ2JmIfR1G2sPvkvztjfbvOpgs
+BEhSvPmsxlYzYAbX3pxp+J6QoQQBph2YSTJpiqGlzCgmbx1zqp+nulmYrXe0+Zy
RbpYkyqduaaICaDs8shzG7fN7N8KbKKDq5p/tAq011zDTErqMlVCzn2jbdkcGrGG
raRKXarMZuK+hgIC6tTtGrs34ilBbfrL3GHSYM2P1PXV0QIDAQABo4GiMIGfMAkG
A1UdEwQCMAAwHQYDVR0OBBYEFIqPaDyDxgbZdEmXllo24Mb080hJMFEGA1UdIwRK
MEiAFA2uG01Vh2/5sb7R6lPXdlHDG4gcoRqkGDAWMRQwEgYDVQQDDAt0ZWFtMjI3
LW5ldIIUQbB5FcgPWc/wbROfsBbxOfJkFeUwEwYDVR0lBAwwCgYIKwYBBQUHAwIw
CwYDVR0PBAQDAgeAMA0GCSqGSIb3DQEBCwUAA4IBAQBvrxb9+e4hX+7pNTJd2s5Y
FlrSUbFqH/9Z9Ir2ovi0LIvx2Vl7aZWsuKMjk+VLge///wR93KGdL078DjqThkoE
5MQ/xvtEgkLNeykKpG0y29D0nsB6WZ7s+PIDL6xtPdXuEZzCorOi3Y+Ly6gag6bf
+PKEqsDzbz6ZGJTen5RkD5ydOh+hAd6StdtqYm6HbRzw3orSqR+o/9WVRqrHK9q+
w9ZZb1W+w/Ztogf7h4G0nJef5cz+PP6dwUooM79dGhClTXVGYEtom1XYOfuKa5hF
IlnkV9qONx0GLQSr4Jxqj4t+wkGavC9tToRC5uugM9ub2iBVo64mRjgdBLGjW1h/
-----END CERTIFICATE-----
