Certificate:
    Data:
        Version: 3 (0x2)
        Serial Number:
            d2:35:20:e9:18:93:15:08:78:d7:ce:31:c8:71:53:89
        Signature Algorithm: sha256WithRSAEncryption
        Issuer: CN=team227-net
        Validity
            Not Before: Nov  3 20:43:28 2023 GMT
            Not After : Oct 18 20:43:28 2026 GMT
        Subject: CN=team227-server
        Subject Public Key Info:
            Public Key Algorithm: rsaEncryption
                Public-Key: (2048 bit)
                Modulus:
                    00:b0:6d:8f:84:39:a1:62:d4:51:4d:8f:cc:c5:16:
                    db:3e:85:90:2a:57:02:df:da:85:8a:e8:1e:d0:58:
                    00:20:88:fe:22:4a:87:f0:03:71:18:23:2f:47:c7:
                    e4:68:58:56:a6:78:19:e2:65:45:6c:02:66:23:36:
                    09:65:89:6c:1c:f7:7f:f3:0b:46:8e:b9:b5:7c:b7:
                    40:22:fb:95:38:a7:42:04:c2:5e:60:32:f4:fe:84:
                    57:ea:33:c7:25:32:f1:cb:ce:c1:8c:64:07:df:02:
                    90:14:f7:e0:65:9e:76:7c:e6:41:8c:bb:d9:d3:5e:
                    a3:a1:e3:bf:b6:ab:f4:67:39:e7:fc:fa:8b:95:71:
                    f7:c9:85:f7:2f:bc:1d:9b:ef:00:72:86:2e:c3:36:
                    b6:f4:56:49:cc:1f:67:27:c8:5c:d0:f0:72:3f:7d:
                    9e:ba:73:e1:f1:2a:86:95:03:33:21:f8:fe:ef:de:
                    d8:21:97:e0:3b:57:35:35:26:22:8e:51:a1:35:61:
                    13:47:01:40:35:df:3c:53:a9:9d:e9:40:9a:13:76:
                    c7:99:8d:66:d6:5f:6c:c5:98:0e:36:a3:a2:90:b5:
                    e6:cf:3c:fa:75:8f:a2:4f:92:ac:1c:3d:c7:05:fa:
                    9a:fe:35:64:16:b6:23:05:41:a6:87:1b:19:6d:97:
                    66:01
                Exponent: 65537 (0x10001)
        X509v3 extensions:
            X509v3 Basic Constraints: 
                CA:FALSE
            X509v3 Subject Key Identifier: 
                A2:31:C9:3B:A0:FE:3A:D3:D9:BB:B8:7A:9E:74:1D:81:49:FB:80:DF
            X509v3 Authority Key Identifier: 
                keyid:10:BE:34:8A:E2:4F:D4:AF:FD:FA:AF:81:0D:D8:43:31:FA:9F:56:B9
                DirName:/CN=team227-net
                serial:39:3D:F3:44:1D:5F:3A:D6:7F:E7:AE:A7:44:96:D6:A3:B8:F6:1A:0B
            X509v3 Extended Key Usage: 
                TLS Web Server Authentication
            X509v3 Key Usage: 
                Digital Signature, Key Encipherment
            X509v3 Subject Alternative Name: 
                DNS:team227-server
    Signature Algorithm: sha256WithRSAEncryption
    Signature Value:
        02:07:c8:f7:28:38:08:38:40:19:41:5e:4e:f0:ab:63:f6:5f:
        dd:1b:3a:d8:30:6e:2e:97:10:0f:13:df:a0:de:50:17:f2:08:
        7e:ea:e2:77:50:33:b3:82:1a:d9:6c:80:02:89:07:7b:2d:08:
        b7:d1:cf:27:a1:54:3f:75:c5:6a:b8:72:b1:69:fb:7a:d5:79:
        47:8f:0f:3a:75:6a:b4:de:b4:32:86:94:b2:d9:14:ff:87:c7:
        64:4c:82:aa:10:5d:9a:fa:64:9a:94:47:ee:d2:0c:18:b8:cc:
        12:4c:97:49:02:bd:09:62:e7:ad:3e:34:e9:13:13:d9:db:ae:
        69:97:ba:c2:b3:3a:e0:96:be:ea:14:e1:86:6f:65:2a:48:88:
        25:9a:18:af:c7:e7:dd:00:40:02:80:ff:b5:93:de:df:16:6d:
        45:9e:4d:0c:f9:37:8e:e9:83:df:0a:db:a5:46:0d:b0:e2:ce:
        2b:19:9c:94:4b:33:88:4f:76:da:ee:af:7e:aa:9d:94:ed:f2:
        ee:08:2a:65:1c:dc:86:54:dc:a1:fe:b1:7b:c2:36:ab:ab:85:
        f5:de:3e:25:a6:62:b4:3a:f0:db:c1:43:20:96:89:05:2e:c1:
        5e:3e:6c:4a:0e:b6:65:89:86:32:08:f6:03:b4:ce:9a:a4:e5:
        f9:95:06:79
-----BEGIN CERTIFICATE-----
MIIDeDCCAmCgAwIBAgIRANI1IOkYkxUIeNfOMchxU4kwDQYJKoZIhvcNAQELBQAw
FjEUMBIGA1UEAwwLdGVhbTIyNy1uZXQwHhcNMjMxMTAzMjA0MzI4WhcNMjYxMDE4
MjA0MzI4WjAZMRcwFQYDVQQDDA50ZWFtMjI3LXNlcnZlcjCCASIwDQYJKoZIhvcN
AQEBBQADggEPADCCAQoCggEBALBtj4Q5oWLUUU2PzMUW2z6FkCpXAt/ahYroHtBY
ACCI/iJKh/ADcRgjL0fH5GhYVqZ4GeJlRWwCZiM2CWWJbBz3f/MLRo65tXy3QCL7
lTinQgTCXmAy9P6EV+ozxyUy8cvOwYxkB98CkBT34GWednzmQYy72dNeo6Hjv7ar
9Gc55/z6i5Vx98mF9y+8HZvvAHKGLsM2tvRWScwfZyfIXNDwcj99nrpz4fEqhpUD
MyH4/u/e2CGX4DtXNTUmIo5RoTVhE0cBQDXfPFOpnelAmhN2x5mNZtZfbMWYDjaj
opC15s88+nWPok+SrBw9xwX6mv41ZBa2IwVBpocbGW2XZgECAwEAAaOBvTCBujAJ
BgNVHRMEAjAAMB0GA1UdDgQWBBSiMck7oP4609m7uHqedB2BSfuA3zBRBgNVHSME
SjBIgBQQvjSK4k/Ur/36r4EN2EMx+p9WuaEapBgwFjEUMBIGA1UEAwwLdGVhbTIy
Ny1uZXSCFDk980QdXzrWf+eup0SW1qO49hoLMBMGA1UdJQQMMAoGCCsGAQUFBwMB
MAsGA1UdDwQEAwIFoDAZBgNVHREEEjAQgg50ZWFtMjI3LXNlcnZlcjANBgkqhkiG
9w0BAQsFAAOCAQEAAgfI9yg4CDhAGUFeTvCrY/Zf3Rs62DBuLpcQDxPfoN5QF/II
furid1Azs4Ia2WyAAokHey0It9HPJ6FUP3XFarhysWn7etV5R48POnVqtN60MoaU
stkU/4fHZEyCqhBdmvpkmpRH7tIMGLjMEkyXSQK9CWLnrT406RMT2duuaZe6wrM6
4Ja+6hThhm9lKkiIJZoYr8fn3QBAAoD/tZPe3xZtRZ5NDPk3jumD3wrbpUYNsOLO
KxmclEsziE922u6vfqqdlO3y7ggqZRzchlTcof6xe8I2q6uF9d4+JaZitDrw28FD
IJaJBS7BXj5sSg62ZYmGMgj2A7TOmqTl+ZUGeQ==
-----END CERTIFICATE-----
