Certificate:
    Data:
        Version: 3 (0x2)
        Serial Number:
            fa:2d:6c:3d:1b:a0:40:2e:e9:89:02:63:e1:59:9c:bf
        Signature Algorithm: sha256WithRSAEncryption
        Issuer: CN=team227-net
        Validity
            Not Before: Nov  4 11:32:04 2023 GMT
            Not After : Oct 19 11:32:04 2026 GMT
        Subject: CN=team227-client
        Subject Public Key Info:
            Public Key Algorithm: rsaEncryption
                Public-Key: (2048 bit)
                Modulus:
                    00:c9:23:12:04:02:ed:4f:b4:0a:cb:e4:b3:4a:43:
                    5c:c2:e8:80:1e:e4:2e:1f:1e:ba:40:71:f3:52:77:
                    f2:90:14:45:82:78:30:54:b4:64:10:2c:8a:54:7f:
                    bb:92:98:e0:2a:d0:13:7c:44:cd:50:90:df:12:6e:
                    0f:59:2d:72:d5:a5:d3:fb:8c:f2:1a:c7:48:5a:3a:
                    10:34:3d:1f:22:a2:80:9e:92:2c:3a:67:94:2f:82:
                    44:99:36:96:e9:3c:86:7a:57:17:bc:25:69:c3:a1:
                    a8:42:7b:2f:e5:33:c9:bf:0c:71:93:6f:b2:34:56:
                    ee:f1:84:05:1e:2e:18:ae:e1:69:14:c2:f7:a6:21:
                    7a:77:c4:57:f9:46:f7:ed:04:71:23:08:6f:5a:07:
                    b5:0d:e0:f6:98:2d:72:0f:f0:9c:cb:52:7d:75:c3:
                    8b:eb:45:8f:aa:e0:10:89:bc:43:f8:51:f3:84:b8:
                    7c:15:58:1b:92:f2:5a:d5:cc:f3:85:73:35:66:f1:
                    ce:91:27:64:db:af:40:50:fb:8a:4a:ca:e4:b6:23:
                    8c:45:4f:27:62:b7:51:91:65:9e:54:72:17:a4:c6:
                    3e:f7:37:30:b7:bc:b2:d8:e5:84:75:ad:b8:e4:3a:
                    36:ea:84:9d:94:46:85:c1:7f:43:27:a3:05:f0:80:
                    cd:d1
                Exponent: 65537 (0x10001)
        X509v3 extensions:
            X509v3 Basic Constraints: 
                CA:FALSE
            X509v3 Subject Key Identifier: 
                15:E1:8E:6A:6D:D4:E5:4A:51:9C:9C:7A:E0:81:9E:66:53:61:3C:32
            X509v3 Authority Key Identifier: 
                keyid:2C:23:1B:38:3D:2D:91:79:DB:12:4A:4E:70:17:27:CB:97:F3:48:46
                DirName:/CN=team227-net
                serial:29:79:10:DD:59:13:23:DA:00:5F:CF:9F:34:3F:B6:AB:E5:59:F5:41
            X509v3 Extended Key Usage: 
                TLS Web Client Authentication
            X509v3 Key Usage: 
                Digital Signature
    Signature Algorithm: sha256WithRSAEncryption
    Signature Value:
        9c:e2:be:78:d9:14:23:b8:f2:80:45:d3:f7:d0:52:d9:1d:00:
        b0:7a:97:27:e8:4d:5c:34:1a:10:96:01:3c:64:9e:a7:14:09:
        c5:a4:81:c3:7d:6d:92:c4:8b:6d:35:fd:b7:19:2b:20:17:d3:
        f8:2f:5c:93:dd:b5:01:ad:6e:14:fb:aa:ef:6a:90:c1:55:64:
        b1:49:da:db:42:d0:c4:4e:cb:25:b1:72:96:68:03:16:95:d2:
        f1:18:63:19:71:ea:f5:b0:aa:1c:fa:c8:c9:78:8a:f9:6e:f4:
        7a:4a:5b:de:5a:6a:9c:b5:97:35:c3:25:b9:01:18:43:70:13:
        36:d8:61:3d:62:5c:db:89:49:f1:ff:18:56:18:14:bd:2a:c6:
        f9:13:33:fb:f4:02:8d:24:1b:7b:47:55:f5:85:22:67:ee:02:
        2e:db:e4:f7:66:e7:89:73:9d:56:ca:be:48:90:1f:d3:9b:74:
        83:f2:f9:f3:21:08:6a:4a:c0:ef:91:81:9d:79:8f:08:b1:e4:
        fe:b6:91:0e:93:f6:4e:b2:87:b9:a4:51:09:b5:b9:91:b1:11:
        40:96:21:a7:ef:48:fc:72:dc:0e:ff:ef:5f:23:7f:4d:5a:8d:
        1e:90:11:ec:3d:a7:70:07:01:3a:c6:f3:b0:c6:1d:37:cc:97:
        f5:82:dd:6d
-----BEGIN CERTIFICATE-----
MIIDXTCCAkWgAwIBAgIRAPotbD0boEAu6YkCY+FZnL8wDQYJKoZIhvcNAQELBQAw
FjEUMBIGA1UEAwwLdGVhbTIyNy1uZXQwHhcNMjMxMTA0MTEzMjA0WhcNMjYxMDE5
MTEzMjA0WjAZMRcwFQYDVQQDDA50ZWFtMjI3LWNsaWVudDCCASIwDQYJKoZIhvcN
AQEBBQADggEPADCCAQoCggEBAMkjEgQC7U+0Csvks0pDXMLogB7kLh8eukBx81J3
8pAURYJ4MFS0ZBAsilR/u5KY4CrQE3xEzVCQ3xJuD1ktctWl0/uM8hrHSFo6EDQ9
HyKigJ6SLDpnlC+CRJk2luk8hnpXF7wlacOhqEJ7L+Uzyb8McZNvsjRW7vGEBR4u
GK7haRTC96YhenfEV/lG9+0EcSMIb1oHtQ3g9pgtcg/wnMtSfXXDi+tFj6rgEIm8
Q/hR84S4fBVYG5LyWtXM84VzNWbxzpEnZNuvQFD7ikrK5LYjjEVPJ2K3UZFlnlRy
F6TGPvc3MLe8stjlhHWtuOQ6NuqEnZRGhcF/QyejBfCAzdECAwEAAaOBojCBnzAJ
BgNVHRMEAjAAMB0GA1UdDgQWBBQV4Y5qbdTlSlGcnHrggZ5mU2E8MjBRBgNVHSME
SjBIgBQsIxs4PS2RedsSSk5wFyfLl/NIRqEapBgwFjEUMBIGA1UEAwwLdGVhbTIy
Ny1uZXSCFCl5EN1ZEyPaAF/PnzQ/tqvlWfVBMBMGA1UdJQQMMAoGCCsGAQUFBwMC
MAsGA1UdDwQEAwIHgDANBgkqhkiG9w0BAQsFAAOCAQEAnOK+eNkUI7jygEXT99BS
2R0AsHqXJ+hNXDQaEJYBPGSepxQJxaSBw31tksSLbTX9txkrIBfT+C9ck921Aa1u
FPuq72qQwVVksUna20LQxE7LJbFylmgDFpXS8RhjGXHq9bCqHPrIyXiK+W70ekpb
3lpqnLWXNcMluQEYQ3ATNthhPWJc24lJ8f8YVhgUvSrG+RMz+/QCjSQbe0dV9YUi
Z+4CLtvk92bniXOdVsq+SJAf05t0g/L58yEIakrA75GBnXmPCLHk/raRDpP2TrKH
uaRRCbW5kbERQJYhp+9I/HLcDv/vXyN/TVqNHpAR7D2ncAcBOsbzsMYdN8yX9YLd
bQ==
-----END CERTIFICATE-----
