Certificate:
    Data:
        Version: 3 (0x2)
        Serial Number:
            74:39:f9:18:05:ec:f3:db:c4:99:ce:f8:07:d0:e5:87
        Signature Algorithm: sha256WithRSAEncryption
        Issuer: CN=team292-net
        Validity
            Not Before: Nov  4 10:46:03 2023 GMT
            Not After : Oct 19 10:46:03 2026 GMT
        Subject: CN=team292-server
        Subject Public Key Info:
            Public Key Algorithm: rsaEncryption
                Public-Key: (2048 bit)
                Modulus:
                    00:c1:b1:04:ab:b6:3a:00:68:53:b5:6e:a2:a7:27:
                    21:b1:c7:70:82:ae:bc:d6:e4:12:b6:86:0e:f0:f5:
                    a5:46:44:c7:e3:65:d9:10:5a:7c:46:19:64:b1:04:
                    b9:bf:e5:90:e9:32:1d:a8:12:9e:3d:9d:28:55:09:
                    a8:05:3e:43:97:5e:74:58:fa:93:b7:24:01:ff:0d:
                    ec:8e:76:34:93:2b:64:ce:eb:4e:7c:95:36:5b:17:
                    c6:40:3d:80:95:db:c9:2e:00:22:83:72:30:b6:ac:
                    5c:89:f2:4e:2e:dc:02:49:db:3f:08:e7:59:d8:8b:
                    ff:c7:88:ed:a4:de:90:3f:91:bf:3a:a5:bf:97:66:
                    1c:cc:ab:31:74:ae:ab:8a:0f:29:ce:41:60:03:15:
                    74:78:5c:17:db:7f:c5:6a:ce:92:15:b5:3c:ed:34:
                    a4:53:f5:64:00:f8:bf:1e:64:0d:21:db:b8:b4:15:
                    f0:1b:a6:09:5c:53:48:18:0c:43:8e:7b:c9:c5:9e:
                    97:8c:3b:df:6c:f7:45:e3:fa:5c:ee:fe:e7:b8:8a:
                    dc:99:65:df:f6:7c:4f:0f:d5:38:25:c8:36:ba:1d:
                    4b:86:0a:83:fc:c8:0e:b3:ce:2f:0d:33:8f:b8:98:
                    a1:94:44:7e:2f:2b:20:91:2c:a6:37:e0:f9:8e:fe:
                    27:d9
                Exponent: 65537 (0x10001)
        X509v3 extensions:
            X509v3 Basic Constraints: 
                CA:FALSE
            X509v3 Subject Key Identifier: 
                9F:99:28:10:2B:62:13:3D:6F:64:F6:E8:04:F0:78:BD:72:DD:B0:7C
            X509v3 Authority Key Identifier: 
                keyid:AA:40:83:52:2D:A1:8C:37:6C:74:EF:CD:4D:B6:D1:50:1B:53:AF:6B
                DirName:/CN=team292-net
                serial:1C:BE:DF:A5:8F:6A:1E:60:A2:81:0C:18:17:A1:A4:5A:EA:8D:66:5B
            X509v3 Extended Key Usage: 
                TLS Web Server Authentication
            X509v3 Key Usage: 
                Digital Signature, Key Encipherment
            X509v3 Subject Alternative Name: 
                DNS:team292-server
    Signature Algorithm: sha256WithRSAEncryption
    Signature Value:
        23:da:e0:98:87:da:df:e9:ef:b1:56:63:fb:bb:f6:1e:89:16:
        77:11:19:5f:db:b8:ca:e7:f7:2b:11:fd:e9:aa:dc:30:b6:dd:
        4a:20:20:d0:34:9f:2a:e9:06:3c:62:f0:d5:16:17:1a:4c:38:
        11:13:6a:48:0c:18:1d:02:db:70:6b:9e:82:3c:fe:c1:3d:f3:
        85:cd:73:78:7f:38:a2:27:d0:db:41:25:fe:e0:8a:c9:c6:32:
        9a:ef:74:f1:53:d6:e3:36:1e:7a:6e:81:57:cd:c3:2a:2e:12:
        7d:5d:75:31:fd:1c:d5:d2:54:53:82:7d:ce:92:f8:aa:4f:00:
        d1:dc:2f:93:94:d8:de:44:9c:48:a3:e9:63:68:17:9c:8f:c3:
        d9:50:99:d1:22:f4:be:81:ce:0b:c1:d8:13:d0:aa:c6:73:1a:
        00:97:fb:e2:41:da:45:e3:f4:c6:13:45:9a:ad:95:69:eb:0f:
        e4:44:38:5d:0d:35:13:64:13:9e:a4:9a:f4:32:b7:56:7f:0d:
        ff:60:68:94:3e:af:b8:49:50:ca:e2:33:f1:83:15:dd:88:c8:
        6b:3a:8a:48:4e:45:01:45:60:a0:55:39:3a:7d:71:d8:fe:cb:
        c2:5e:87:0d:97:1d:18:20:e5:2b:ff:d0:03:a8:6a:1d:be:f1:
        8c:ab:35:8f
-----BEGIN CERTIFICATE-----
MIIDdzCCAl+gAwIBAgIQdDn5GAXs89vEmc74B9DlhzANBgkqhkiG9w0BAQsFADAW
MRQwEgYDVQQDDAt0ZWFtMjkyLW5ldDAeFw0yMzExMDQxMDQ2MDNaFw0yNjEwMTkx
MDQ2MDNaMBkxFzAVBgNVBAMMDnRlYW0yOTItc2VydmVyMIIBIjANBgkqhkiG9w0B
AQEFAAOCAQ8AMIIBCgKCAQEAwbEEq7Y6AGhTtW6ipychscdwgq681uQStoYO8PWl
RkTH42XZEFp8RhlksQS5v+WQ6TIdqBKePZ0oVQmoBT5Dl150WPqTtyQB/w3sjnY0
kytkzutOfJU2WxfGQD2AldvJLgAig3IwtqxcifJOLtwCSds/COdZ2Iv/x4jtpN6Q
P5G/OqW/l2YczKsxdK6rig8pzkFgAxV0eFwX23/Fas6SFbU87TSkU/VkAPi/HmQN
Idu4tBXwG6YJXFNIGAxDjnvJxZ6XjDvfbPdF4/pc7v7nuIrcmWXf9nxPD9U4Jcg2
uh1LhgqD/MgOs84vDTOPuJihlER+LysgkSymN+D5jv4n2QIDAQABo4G9MIG6MAkG
A1UdEwQCMAAwHQYDVR0OBBYEFJ+ZKBArYhM9b2T26ATweL1y3bB8MFEGA1UdIwRK
MEiAFKpAg1ItoYw3bHTvzU220VAbU69roRqkGDAWMRQwEgYDVQQDDAt0ZWFtMjky
LW5ldIIUHL7fpY9qHmCigQwYF6GkWuqNZlswEwYDVR0lBAwwCgYIKwYBBQUHAwEw
CwYDVR0PBAQDAgWgMBkGA1UdEQQSMBCCDnRlYW0yOTItc2VydmVyMA0GCSqGSIb3
DQEBCwUAA4IBAQAj2uCYh9rf6e+xVmP7u/YeiRZ3ERlf27jK5/crEf3pqtwwtt1K
ICDQNJ8q6QY8YvDVFhcaTDgRE2pIDBgdAttwa56CPP7BPfOFzXN4fziiJ9DbQSX+
4IrJxjKa73TxU9bjNh56boFXzcMqLhJ9XXUx/RzV0lRTgn3OkviqTwDR3C+TlNje
RJxIo+ljaBecj8PZUJnRIvS+gc4LwdgT0KrGcxoAl/viQdpF4/TGE0WarZVp6w/k
RDhdDTUTZBOepJr0MrdWfw3/YGiUPq+4SVDK4jPxgxXdiMhrOopITkUBRWCgVTk6
fXHY/svCXocNlx0YIOUr/9ADqGodvvGMqzWP
-----END CERTIFICATE-----
