Certificate:
    Data:
        Version: 3 (0x2)
        Serial Number:
            8f:be:fc:b7:a0:e9:ae:f8:eb:65:1d:12:d5:c7:d8:2f
        Signature Algorithm: sha256WithRSAEncryption
        Issuer: CN=team292-net
        Validity
            Not Before: Nov  4 11:33:40 2023 GMT
            Not After : Oct 19 11:33:40 2026 GMT
        Subject: CN=team292-server
        Subject Public Key Info:
            Public Key Algorithm: rsaEncryption
                Public-Key: (2048 bit)
                Modulus:
                    00:b7:ee:9c:b9:74:e6:6c:7b:fc:eb:89:c4:1b:fb:
                    4a:03:87:74:8c:5b:f6:16:e4:c0:ee:fd:dc:95:1b:
                    9e:7e:7e:07:c4:13:82:05:29:88:29:b3:c2:3d:62:
                    ad:14:02:47:6f:b9:a5:39:37:cb:2e:ec:aa:69:9f:
                    cd:2f:db:63:e3:c5:42:a5:02:3e:2d:02:fd:b6:9f:
                    b9:a7:20:4d:5c:1c:df:1f:9e:89:94:15:2a:b4:2d:
                    d0:97:91:68:3b:63:ae:61:fb:be:e1:8e:f2:21:b0:
                    90:7d:e2:73:40:98:dc:77:9d:f0:77:5b:d8:2f:b1:
                    5e:e8:39:3c:f4:86:8e:25:d8:4e:54:21:3d:a8:8d:
                    54:8e:d0:4b:55:45:4b:78:c9:d8:27:7e:27:87:3b:
                    ae:95:3a:39:f7:29:2d:6a:72:28:b9:6f:6f:84:96:
                    4a:2c:ab:5d:7a:a7:ec:06:db:fe:f2:a5:97:be:81:
                    73:d6:68:f2:85:7d:1c:ce:b4:6a:47:86:85:16:2d:
                    30:8d:dd:07:94:da:2f:5c:95:bc:c5:86:bd:f2:34:
                    91:b7:ea:e7:67:26:f6:e2:da:c1:6f:7d:28:70:40:
                    86:05:9b:3b:76:54:d1:a4:c0:89:76:20:89:ec:f8:
                    f2:6e:94:f4:98:ff:e7:90:09:87:02:1f:83:e4:cd:
                    27:51
                Exponent: 65537 (0x10001)
        X509v3 extensions:
            X509v3 Basic Constraints: 
                CA:FALSE
            X509v3 Subject Key Identifier: 
                0D:7C:FB:BD:EC:63:C4:05:22:5A:64:8E:FF:91:B1:FC:D6:30:86:E1
            X509v3 Authority Key Identifier: 
                keyid:4C:1D:D4:4C:98:B3:25:04:92:C8:CF:BD:1E:1F:C9:4D:FE:28:FC:C3
                DirName:/CN=team292-net
                serial:72:5B:05:AE:57:59:40:DA:F5:CA:59:74:DD:39:04:19:0F:E0:9B:79
            X509v3 Extended Key Usage: 
                TLS Web Server Authentication
            X509v3 Key Usage: 
                Digital Signature, Key Encipherment
            X509v3 Subject Alternative Name: 
                DNS:team292-server
    Signature Algorithm: sha256WithRSAEncryption
    Signature Value:
        7a:6a:34:bd:8a:49:56:d1:3d:94:22:e7:4c:f4:2b:7a:c6:1c:
        4c:b7:19:fd:31:1f:2d:22:ba:3c:8b:19:63:f3:6a:d5:48:7e:
        98:d8:22:27:04:81:cd:ed:40:55:8f:1b:f7:38:85:92:21:24:
        eb:da:a3:4e:96:e9:22:dd:8f:d7:ad:c6:8c:26:d6:fb:ad:8e:
        09:0c:86:72:78:49:f3:47:22:fe:7b:6c:ec:49:0f:d2:38:65:
        90:1f:f1:a7:b2:08:cc:fc:46:0b:16:8d:71:d8:d0:f9:91:d5:
        8b:8e:98:d6:49:c7:ba:3e:20:7c:66:8a:a1:7c:0f:6c:18:75:
        0c:1d:dd:1d:e9:f1:3c:c8:29:a2:a8:18:dc:87:fa:d2:77:84:
        07:49:67:2a:46:e8:1c:81:a5:7a:87:22:43:b5:3d:e7:1a:3d:
        8d:d7:b3:76:da:15:80:29:5f:63:be:4f:2c:03:15:7a:a6:f0:
        b0:39:2d:2e:19:7f:5b:2d:97:7b:21:9d:e5:45:bd:d7:3a:00:
        61:ed:f6:6d:5d:4d:79:85:b1:e8:92:4a:f4:32:a4:84:cc:ae:
        8c:dc:06:b5:b9:87:08:00:70:8a:89:3f:df:c5:49:3b:4d:92:
        0c:ca:eb:f0:05:40:40:01:dc:cc:cd:bf:ea:23:94:03:44:f0:
        f1:7e:12:56
-----BEGIN CERTIFICATE-----
MIIDeDCCAmCgAwIBAgIRAI++/Leg6a7462UdEtXH2C8wDQYJKoZIhvcNAQELBQAw
FjEUMBIGA1UEAwwLdGVhbTI5Mi1uZXQwHhcNMjMxMTA0MTEzMzQwWhcNMjYxMDE5
MTEzMzQwWjAZMRcwFQYDVQQDDA50ZWFtMjkyLXNlcnZlcjCCASIwDQYJKoZIhvcN
AQEBBQADggEPADCCAQoCggEBALfunLl05mx7/OuJxBv7SgOHdIxb9hbkwO793JUb
nn5+B8QTggUpiCmzwj1irRQCR2+5pTk3yy7sqmmfzS/bY+PFQqUCPi0C/bafuacg
TVwc3x+eiZQVKrQt0JeRaDtjrmH7vuGO8iGwkH3ic0CY3Hed8Hdb2C+xXug5PPSG
jiXYTlQhPaiNVI7QS1VFS3jJ2Cd+J4c7rpU6OfcpLWpyKLlvb4SWSiyrXXqn7Abb
/vKll76Bc9Zo8oV9HM60akeGhRYtMI3dB5TaL1yVvMWGvfI0kbfq52cm9uLawW99
KHBAhgWbO3ZU0aTAiXYgiez48m6U9Jj/55AJhwIfg+TNJ1ECAwEAAaOBvTCBujAJ
BgNVHRMEAjAAMB0GA1UdDgQWBBQNfPu97GPEBSJaZI7/kbH81jCG4TBRBgNVHSME
SjBIgBRMHdRMmLMlBJLIz70eH8lN/ij8w6EapBgwFjEUMBIGA1UEAwwLdGVhbTI5
Mi1uZXSCFHJbBa5XWUDa9cpZdN05BBkP4Jt5MBMGA1UdJQQMMAoGCCsGAQUFBwMB
MAsGA1UdDwQEAwIFoDAZBgNVHREEEjAQgg50ZWFtMjkyLXNlcnZlcjANBgkqhkiG
9w0BAQsFAAOCAQEAemo0vYpJVtE9lCLnTPQresYcTLcZ/TEfLSK6PIsZY/Nq1Uh+
mNgiJwSBze1AVY8b9ziFkiEk69qjTpbpIt2P163GjCbW+62OCQyGcnhJ80ci/nts
7EkP0jhlkB/xp7IIzPxGCxaNcdjQ+ZHVi46Y1knHuj4gfGaKoXwPbBh1DB3dHenx
PMgpoqgY3If60neEB0lnKkboHIGleociQ7U95xo9jdezdtoVgClfY75PLAMVeqbw
sDktLhl/Wy2XeyGd5UW91zoAYe32bV1NeYWx6JJK9DKkhMyujNwGtbmHCABwiok/
38VJO02SDMrr8AVAQAHczM2/6iOUA0Tw8X4SVg==
-----END CERTIFICATE-----
