Certificate:
    Data:
        Version: 3 (0x2)
        Serial Number:
            a6:cc:9c:c6:b9:8e:8a:0a:02:0e:ad:7e:1c:2f:2e:1b
        Signature Algorithm: sha256WithRSAEncryption
        Issuer: CN=team292-net
        Validity
            Not Before: Nov  4 11:33:40 2023 GMT
            Not After : Oct 19 11:33:40 2026 GMT
        Subject: CN=team292-client
        Subject Public Key Info:
            Public Key Algorithm: rsaEncryption
                Public-Key: (2048 bit)
                Modulus:
                    00:b1:cc:28:fa:a0:2b:17:29:2d:09:b0:1d:9c:3b:
                    7f:7a:9a:23:d6:29:be:84:f8:d0:6a:bc:24:ab:ca:
                    d6:d1:73:e3:f7:48:6c:40:7c:86:7b:5b:16:30:9c:
                    78:89:95:d4:47:aa:71:bd:6f:ae:12:8b:3d:ff:52:
                    a5:10:3b:ca:7e:90:22:0d:4a:c3:9f:ff:86:ac:96:
                    fd:15:1b:36:f3:7e:44:a8:12:48:b0:3e:5f:3a:0e:
                    20:34:9b:b2:da:99:9f:64:bc:9f:33:56:29:23:34:
                    e3:7d:05:22:a8:03:47:a5:b1:be:d6:86:28:a0:4b:
                    52:9a:3e:10:a4:89:5e:a8:cd:d5:90:32:47:d9:44:
                    a7:61:26:9f:7f:d5:45:21:25:91:a4:de:c6:88:7d:
                    ed:03:f4:df:0f:99:a6:66:14:25:38:c9:ee:66:1c:
                    04:56:c7:1f:5c:11:1e:2c:2d:c6:a8:5f:9f:d9:f1:
                    bb:67:a5:0e:6c:e4:46:22:d7:94:e6:d3:74:8d:df:
                    1b:a8:04:52:cb:42:c6:99:de:9a:f0:b5:88:94:55:
                    c4:e1:be:36:b1:25:2b:0a:6c:ba:b1:91:0a:c9:2f:
                    62:b4:c5:c1:4c:02:05:28:c0:34:c5:b3:cf:d4:97:
                    fc:35:d2:b8:94:1e:3f:63:6f:82:3f:53:81:c4:70:
                    73:7d
                Exponent: 65537 (0x10001)
        X509v3 extensions:
            X509v3 Basic Constraints: 
                CA:FALSE
            X509v3 Subject Key Identifier: 
                A2:CC:07:C5:24:5B:9E:F3:77:32:30:34:5E:06:4A:95:06:26:24:38
            X509v3 Authority Key Identifier: 
                keyid:4C:1D:D4:4C:98:B3:25:04:92:C8:CF:BD:1E:1F:C9:4D:FE:28:FC:C3
                DirName:/CN=team292-net
                serial:72:5B:05:AE:57:59:40:DA:F5:CA:59:74:DD:39:04:19:0F:E0:9B:79
            X509v3 Extended Key Usage: 
                TLS Web Client Authentication
            X509v3 Key Usage: 
                Digital Signature
    Signature Algorithm: sha256WithRSAEncryption
    Signature Value:
        33:0d:0b:a1:36:f9:a2:fd:e6:70:3c:c5:ff:fa:56:17:35:bf:
        d0:11:e2:ac:2d:0a:2b:7e:a4:50:c7:6b:ff:63:4c:2f:6c:61:
        a3:99:f3:8c:e5:8b:30:bc:4c:68:6f:af:67:88:e3:f1:5f:82:
        d4:ea:4b:fb:18:28:f2:d8:a6:44:94:e3:aa:8e:ca:7e:65:05:
        39:09:8b:81:cc:fd:3c:17:2e:23:12:a7:8a:ff:ff:56:3e:bf:
        6c:cd:ef:1a:49:e1:8e:a1:06:5f:73:67:4b:b2:b9:ec:22:6c:
        28:40:d3:e8:db:4c:2d:8e:7a:2e:1b:5a:d6:52:36:b5:4c:e7:
        32:81:29:3b:ba:cb:72:7e:ea:94:64:4a:b9:24:88:bb:ed:4c:
        51:c4:c5:92:a3:67:4e:fb:86:27:74:46:c3:fc:42:b7:c8:96:
        bb:ff:c4:1f:bd:c3:9d:46:19:be:ad:3c:f1:4b:d4:b4:a5:9c:
        38:18:74:84:e8:7e:c7:82:bd:48:77:29:2d:16:73:11:90:b1:
        47:e0:cc:98:02:7b:1f:f0:00:aa:42:3a:6e:49:32:50:79:5f:
        93:ed:d4:17:aa:f7:89:a8:d0:6e:9a:c3:af:0e:d3:40:e6:e9:
        24:55:7e:ec:dd:b1:74:54:a3:b2:3c:95:36:6d:9c:8d:fb:b5:
        7e:22:e2:25
-----BEGIN CERTIFICATE-----
MIIDXTCCAkWgAwIBAgIRAKbMnMa5jooKAg6tfhwvLhswDQYJKoZIhvcNAQELBQAw
FjEUMBIGA1UEAwwLdGVhbTI5Mi1uZXQwHhcNMjMxMTA0MTEzMzQwWhcNMjYxMDE5
MTEzMzQwWjAZMRcwFQYDVQQDDA50ZWFtMjkyLWNsaWVudDCCASIwDQYJKoZIhvcN
AQEBBQADggEPADCCAQoCggEBALHMKPqgKxcpLQmwHZw7f3qaI9YpvoT40Gq8JKvK
1tFz4/dIbEB8hntbFjCceImV1Eeqcb1vrhKLPf9SpRA7yn6QIg1Kw5//hqyW/RUb
NvN+RKgSSLA+XzoOIDSbstqZn2S8nzNWKSM0430FIqgDR6WxvtaGKKBLUpo+EKSJ
XqjN1ZAyR9lEp2Emn3/VRSElkaTexoh97QP03w+ZpmYUJTjJ7mYcBFbHH1wRHiwt
xqhfn9nxu2elDmzkRiLXlObTdI3fG6gEUstCxpnemvC1iJRVxOG+NrElKwpsurGR
CskvYrTFwUwCBSjANMWzz9SX/DXSuJQeP2Nvgj9TgcRwc30CAwEAAaOBojCBnzAJ
BgNVHRMEAjAAMB0GA1UdDgQWBBSizAfFJFue83cyMDReBkqVBiYkODBRBgNVHSME
SjBIgBRMHdRMmLMlBJLIz70eH8lN/ij8w6EapBgwFjEUMBIGA1UEAwwLdGVhbTI5
Mi1uZXSCFHJbBa5XWUDa9cpZdN05BBkP4Jt5MBMGA1UdJQQMMAoGCCsGAQUFBwMC
MAsGA1UdDwQEAwIHgDANBgkqhkiG9w0BAQsFAAOCAQEAMw0LoTb5ov3mcDzF//pW
FzW/0BHirC0KK36kUMdr/2NML2xho5nzjOWLMLxMaG+vZ4jj8V+C1OpL+xgo8tim
RJTjqo7KfmUFOQmLgcz9PBcuIxKniv//Vj6/bM3vGknhjqEGX3NnS7K57CJsKEDT
6NtMLY56Lhta1lI2tUznMoEpO7rLcn7qlGRKuSSIu+1MUcTFkqNnTvuGJ3RGw/xC
t8iWu//EH73DnUYZvq088UvUtKWcOBh0hOh+x4K9SHcpLRZzEZCxR+DMmAJ7H/AA
qkI6bkkyUHlfk+3UF6r3iajQbprDrw7TQObpJFV+7N2xdFSjsjyVNm2cjfu1fiLi
JQ==
-----END CERTIFICATE-----
