Certificate:
    Data:
        Version: 3 (0x2)
        Serial Number:
            db:a4:39:79:2b:bc:a5:22:3e:9f:f1:20:df:cc:b4:9b
        Signature Algorithm: sha256WithRSAEncryption
        Issuer: CN=team292-net
        Validity
            Not Before: Nov  4 10:46:02 2023 GMT
            Not After : Oct 19 10:46:02 2026 GMT
        Subject: CN=team292-client
        Subject Public Key Info:
            Public Key Algorithm: rsaEncryption
                Public-Key: (2048 bit)
                Modulus:
                    00:c7:e7:2e:fc:99:0d:3d:ae:42:a9:e7:e3:de:6a:
                    bc:21:d0:54:89:19:e5:43:ee:8c:3d:20:60:4a:18:
                    13:9c:22:fa:cb:2d:45:31:4d:b1:75:05:e4:0a:3c:
                    b9:ce:e9:45:4e:e6:f8:dd:48:8f:f2:80:32:c2:05:
                    23:29:f6:0a:66:7c:d3:a6:7e:cf:e6:b7:f8:3b:3f:
                    76:a9:99:ad:e7:e3:69:3f:28:de:bc:f7:44:9b:9e:
                    aa:4d:3b:85:b9:ed:80:1e:31:f3:67:e6:5f:66:6d:
                    f2:ea:a6:cf:4e:ba:0a:08:05:c1:b7:ad:71:91:38:
                    de:bd:83:7e:c9:d0:36:ba:4b:b1:26:c1:73:0f:d3:
                    0f:76:36:30:8f:40:ec:6c:a4:91:c2:9a:4e:53:88:
                    68:e0:e8:24:bd:ab:59:a3:4a:b3:bb:38:28:30:85:
                    ae:8d:fe:65:17:68:90:bc:be:6c:89:ee:7a:e9:a7:
                    78:fb:89:bd:87:43:73:09:aa:84:77:b1:38:1a:45:
                    ff:4b:14:b8:7d:ef:04:c0:1d:e0:d7:48:a0:da:f9:
                    c0:96:de:4e:62:3c:fe:d0:59:53:2e:63:73:cb:3e:
                    e6:1b:6f:4e:5f:e7:ef:02:54:ef:07:6b:2a:db:89:
                    83:78:21:1a:f4:51:d0:b0:a9:42:a1:3f:2e:0a:34:
                    95:a1
                Exponent: 65537 (0x10001)
        X509v3 extensions:
            X509v3 Basic Constraints: 
                CA:FALSE
            X509v3 Subject Key Identifier: 
                93:99:30:C1:C3:0C:17:A5:2E:3F:75:77:AF:30:9E:E2:F5:7B:BB:3A
            X509v3 Authority Key Identifier: 
                keyid:AA:40:83:52:2D:A1:8C:37:6C:74:EF:CD:4D:B6:D1:50:1B:53:AF:6B
                DirName:/CN=team292-net
                serial:1C:BE:DF:A5:8F:6A:1E:60:A2:81:0C:18:17:A1:A4:5A:EA:8D:66:5B
            X509v3 Extended Key Usage: 
                TLS Web Client Authentication
            X509v3 Key Usage: 
                Digital Signature
    Signature Algorithm: sha256WithRSAEncryption
    Signature Value:
        64:38:ed:8a:45:e2:af:30:52:5a:02:a4:16:1b:07:3a:58:29:
        40:2e:22:a8:b2:2f:c2:61:1e:75:24:8c:36:1a:d9:3f:ea:e1:
        bf:3c:6b:53:1a:bf:06:fa:8e:dc:d2:ad:80:06:72:e7:68:6e:
        4e:8a:15:d6:08:32:42:36:81:05:7f:85:fa:e4:78:96:5a:4d:
        c6:dd:89:12:16:3c:f4:b8:3a:14:70:00:d3:84:62:d8:c5:f4:
        8b:89:fb:95:2d:1c:0a:03:98:52:47:0d:ac:1c:c9:2e:db:1b:
        0c:0d:23:29:fc:4c:48:8a:0f:0a:67:9d:f8:dc:ce:ab:e6:73:
        e5:3b:7e:cd:4b:d9:c9:c4:33:6c:fb:e3:b8:26:31:fd:a2:47:
        dd:e3:b5:35:2b:2a:7b:f9:9c:ba:48:86:c5:26:fc:20:18:40:
        5a:d9:1d:09:38:2e:d4:31:c8:fc:5e:9a:7b:67:56:79:57:b2:
        d8:c9:2b:be:e2:d2:a8:f0:ef:1e:de:16:5c:35:44:8e:fe:e2:
        3e:1f:40:1d:bd:8b:4e:ee:4f:be:67:f3:fe:be:0e:eb:0c:74:
        ec:ce:c0:12:f6:06:a6:07:e9:6e:71:3f:75:7b:26:31:68:46:
        9d:6f:b5:37:52:68:e7:e1:64:d5:2d:b0:23:e9:17:e9:0b:9d:
        b1:51:c0:30
-----BEGIN CERTIFICATE-----
MIIDXTCCAkWgAwIBAgIRANukOXkrvKUiPp/xIN/MtJswDQYJKoZIhvcNAQELBQAw
FjEUMBIGA1UEAwwLdGVhbTI5Mi1uZXQwHhcNMjMxMTA0MTA0NjAyWhcNMjYxMDE5
MTA0NjAyWjAZMRcwFQYDVQQDDA50ZWFtMjkyLWNsaWVudDCCASIwDQYJKoZIhvcN
AQEBBQADggEPADCCAQoCggEBAMfnLvyZDT2uQqnn495qvCHQVIkZ5UPujD0gYEoY
E5wi+sstRTFNsXUF5Ao8uc7pRU7m+N1Ij/KAMsIFIyn2CmZ806Z+z+a3+Ds/dqmZ
refjaT8o3rz3RJueqk07hbntgB4x82fmX2Zt8uqmz066CggFwbetcZE43r2DfsnQ
NrpLsSbBcw/TD3Y2MI9A7GykkcKaTlOIaODoJL2rWaNKs7s4KDCFro3+ZRdokLy+
bInueumnePuJvYdDcwmqhHexOBpF/0sUuH3vBMAd4NdIoNr5wJbeTmI8/tBZUy5j
c8s+5htvTl/n7wJU7wdrKtuJg3ghGvRR0LCpQqE/Lgo0laECAwEAAaOBojCBnzAJ
BgNVHRMEAjAAMB0GA1UdDgQWBBSTmTDBwwwXpS4/dXevMJ7i9Xu7OjBRBgNVHSME
SjBIgBSqQINSLaGMN2x0781NttFQG1Ova6EapBgwFjEUMBIGA1UEAwwLdGVhbTI5
Mi1uZXSCFBy+36WPah5gooEMGBehpFrqjWZbMBMGA1UdJQQMMAoGCCsGAQUFBwMC
MAsGA1UdDwQEAwIHgDANBgkqhkiG9w0BAQsFAAOCAQEAZDjtikXirzBSWgKkFhsH
OlgpQC4iqLIvwmEedSSMNhrZP+rhvzxrUxq/BvqO3NKtgAZy52huTooV1ggyQjaB
BX+F+uR4llpNxt2JEhY89Lg6FHAA04Ri2MX0i4n7lS0cCgOYUkcNrBzJLtsbDA0j
KfxMSIoPCmed+NzOq+Zz5Tt+zUvZycQzbPvjuCYx/aJH3eO1NSsqe/mcukiGxSb8
IBhAWtkdCTgu1DHI/F6ae2dWeVey2MkrvuLSqPDvHt4WXDVEjv7iPh9AHb2LTu5P
vmfz/r4O6wx07M7AEvYGpgfpbnE/dXsmMWhGnW+1N1Jo5+Fk1S2wI+kX6QudsVHA
MA==
-----END CERTIFICATE-----
