Certificate:
    Data:
        Version: 3 (0x2)
        Serial Number:
            ef:33:f1:71:bf:43:47:c4:d7:0d:9a:5d:0a:d7:aa:f4
        Signature Algorithm: sha256WithRSAEncryption
        Issuer: CN=team292-net
        Validity
            Not Before: Nov  3 20:44:36 2023 GMT
            Not After : Oct 18 20:44:36 2026 GMT
        Subject: CN=team292-client
        Subject Public Key Info:
            Public Key Algorithm: rsaEncryption
                Public-Key: (2048 bit)
                Modulus:
                    00:98:de:19:55:21:60:b5:7e:18:ea:5e:3b:73:0d:
                    bd:db:08:70:fc:d2:99:d2:17:53:63:b6:13:a8:eb:
                    e0:96:75:ed:34:5b:31:11:9c:09:0f:9a:7c:72:b9:
                    3b:1c:76:43:62:9b:e0:ff:32:fa:8b:75:e6:51:a9:
                    87:f2:9d:4b:35:b3:52:5d:38:5e:a3:98:95:21:22:
                    14:36:aa:3a:1e:5b:d5:5a:0b:c9:f0:c5:5b:bb:11:
                    81:3e:13:c9:a5:cf:95:2c:81:d7:c0:64:04:7f:50:
                    56:0d:07:2b:3f:67:08:7a:6a:09:aa:89:ae:24:01:
                    fd:ff:50:50:90:b0:18:92:91:52:66:be:4b:00:ad:
                    21:bb:b3:31:80:df:1a:4c:59:45:a0:d5:19:5b:8d:
                    a7:72:1a:88:6e:a3:23:ba:a2:fb:b9:07:94:db:a9:
                    5c:db:44:ea:5d:8d:b5:e4:07:b2:fd:70:63:fc:eb:
                    b8:f3:3c:da:17:ba:a3:ff:0a:80:cb:3d:06:8c:d4:
                    90:9d:a8:a5:f4:50:dd:fb:c9:0a:ab:6b:4b:63:f7:
                    49:70:df:7f:95:69:a5:81:60:1d:fc:3f:89:7a:96:
                    b1:82:07:ef:f3:f5:d0:2d:84:2f:9c:a4:78:76:01:
                    d7:83:45:09:ff:e7:89:29:49:09:7d:a2:7b:0e:af:
                    4d:ff
                Exponent: 65537 (0x10001)
        X509v3 extensions:
            X509v3 Basic Constraints: 
                CA:FALSE
            X509v3 Subject Key Identifier: 
                A4:A6:22:B5:28:5B:3A:2C:1D:85:91:5D:0C:F3:3E:21:FE:ED:68:1C
            X509v3 Authority Key Identifier: 
                keyid:C0:67:49:24:BC:09:08:FA:A9:93:1D:B5:D9:0E:8E:91:C8:98:D5:31
                DirName:/CN=team292-net
                serial:5A:13:5B:A8:BC:1D:50:94:FA:43:B7:55:74:95:C4:07:37:2A:B7:77
            X509v3 Extended Key Usage: 
                TLS Web Client Authentication
            X509v3 Key Usage: 
                Digital Signature
    Signature Algorithm: sha256WithRSAEncryption
    Signature Value:
        1e:b2:02:bb:57:3e:8e:97:7c:62:5f:51:ab:95:ca:44:50:6a:
        6e:ad:7a:65:84:c1:8e:a4:47:c2:3d:f8:83:be:8c:f0:18:dd:
        aa:0b:e6:20:f7:e1:a7:51:cb:20:db:96:94:65:cd:5d:e6:61:
        07:b6:51:e9:01:e3:39:70:5f:17:4c:ec:bf:5e:6d:37:11:5f:
        b1:f8:72:0a:9d:a3:07:24:00:c7:43:a7:71:dc:b3:7c:b8:2c:
        8b:c2:5c:04:b7:fe:69:4b:22:b9:8b:a5:57:52:82:3a:d3:64:
        46:f0:f8:d6:fb:70:8e:5e:96:6d:be:1e:e5:cf:d4:7f:51:2b:
        8f:5c:46:93:1d:df:d6:90:1c:d9:ef:a2:8c:dc:fe:40:ff:04:
        45:62:94:dc:33:85:9b:3a:db:dc:1f:14:af:f5:33:56:c5:a4:
        82:76:73:fb:61:ae:63:80:a0:7c:38:e5:58:f9:3c:21:e7:9e:
        9b:72:f2:03:d1:61:c0:25:c6:fe:7c:9e:cc:07:4f:79:81:5a:
        01:5c:16:19:8c:f0:f5:4e:55:9f:90:65:10:15:3a:8d:ef:67:
        a6:2c:29:80:2f:b8:73:26:b0:3c:5f:a1:ef:4f:aa:fe:9a:e1:
        be:e7:35:ba:d2:d3:e7:ac:06:90:6e:bb:d9:dd:17:fc:58:2a:
        53:ee:41:4d
-----BEGIN CERTIFICATE-----
MIIDXTCCAkWgAwIBAgIRAO8z8XG/Q0fE1w2aXQrXqvQwDQYJKoZIhvcNAQELBQAw
FjEUMBIGA1UEAwwLdGVhbTI5Mi1uZXQwHhcNMjMxMTAzMjA0NDM2WhcNMjYxMDE4
MjA0NDM2WjAZMRcwFQYDVQQDDA50ZWFtMjkyLWNsaWVudDCCASIwDQYJKoZIhvcN
AQEBBQADggEPADCCAQoCggEBAJjeGVUhYLV+GOpeO3MNvdsIcPzSmdIXU2O2E6jr
4JZ17TRbMRGcCQ+afHK5Oxx2Q2Kb4P8y+ot15lGph/KdSzWzUl04XqOYlSEiFDaq
Oh5b1VoLyfDFW7sRgT4TyaXPlSyB18BkBH9QVg0HKz9nCHpqCaqJriQB/f9QUJCw
GJKRUma+SwCtIbuzMYDfGkxZRaDVGVuNp3IaiG6jI7qi+7kHlNupXNtE6l2NteQH
sv1wY/zruPM82he6o/8KgMs9BozUkJ2opfRQ3fvJCqtrS2P3SXDff5VppYFgHfw/
iXqWsYIH7/P10C2EL5ykeHYB14NFCf/niSlJCX2iew6vTf8CAwEAAaOBojCBnzAJ
BgNVHRMEAjAAMB0GA1UdDgQWBBSkpiK1KFs6LB2FkV0M8z4h/u1oHDBRBgNVHSME
SjBIgBTAZ0kkvAkI+qmTHbXZDo6RyJjVMaEapBgwFjEUMBIGA1UEAwwLdGVhbTI5
Mi1uZXSCFFoTW6i8HVCU+kO3VXSVxAc3Krd3MBMGA1UdJQQMMAoGCCsGAQUFBwMC
MAsGA1UdDwQEAwIHgDANBgkqhkiG9w0BAQsFAAOCAQEAHrICu1c+jpd8Yl9Rq5XK
RFBqbq16ZYTBjqRHwj34g76M8BjdqgvmIPfhp1HLINuWlGXNXeZhB7ZR6QHjOXBf
F0zsv15tNxFfsfhyCp2jByQAx0OncdyzfLgsi8JcBLf+aUsiuYulV1KCOtNkRvD4
1vtwjl6Wbb4e5c/Uf1Erj1xGkx3f1pAc2e+ijNz+QP8ERWKU3DOFmzrb3B8Ur/Uz
VsWkgnZz+2GuY4CgfDjlWPk8Ieeem3LyA9FhwCXG/nyezAdPeYFaAVwWGYzw9U5V
n5BlEBU6je9npiwpgC+4cyawPF+h70+q/prhvuc1utLT56wGkG672d0X/FgqU+5B
TQ==
-----END CERTIFICATE-----
