Certificate:
    Data:
        Version: 3 (0x2)
        Serial Number:
            16:7e:6f:40:db:12:79:2e:d8:74:64:ec:f1:40:20:07
        Signature Algorithm: sha256WithRSAEncryption
        Issuer: CN=team39-net
        Validity
            Not Before: Nov  4 11:28:07 2023 GMT
            Not After : Oct 19 11:28:07 2026 GMT
        Subject: CN=team39-client
        Subject Public Key Info:
            Public Key Algorithm: rsaEncryption
                Public-Key: (2048 bit)
                Modulus:
                    00:b3:13:73:ed:fa:78:b8:a3:ce:35:1e:3e:5d:81:
                    ab:25:1e:92:38:1b:40:7b:23:e7:35:53:72:bb:bf:
                    5c:65:a5:9a:07:fb:37:9c:3b:58:df:11:fd:66:b7:
                    7a:46:c4:4b:3c:f5:0f:9f:ab:0b:90:2d:e9:0d:bb:
                    4e:64:d1:81:1d:d7:37:e0:db:ae:a0:23:2c:66:eb:
                    f0:ce:a6:ac:d4:88:3d:44:b6:5d:67:f4:92:7f:c0:
                    e1:49:2e:4a:19:0a:3c:fd:d9:33:6e:2a:27:cb:ab:
                    c5:fb:a3:14:34:3b:7d:55:1b:03:30:60:68:bd:3d:
                    fd:e2:be:9d:1f:b8:06:f4:ce:03:69:d5:15:f5:b0:
                    fe:be:84:94:47:70:65:b1:42:91:7a:a0:e8:a9:dd:
                    7c:ea:da:f3:b0:1d:f3:48:52:7c:9a:96:c6:9f:d7:
                    9f:df:17:7d:1b:ad:15:9a:d8:9b:81:0b:78:76:de:
                    da:c3:61:de:ea:52:02:5e:3d:a0:1b:5d:f4:97:c0:
                    b6:18:c3:dd:a6:d5:5a:af:4b:41:6b:0f:c5:b6:da:
                    05:72:59:c3:80:ba:6b:50:bf:b3:b7:d8:4a:c6:98:
                    f3:4b:28:09:61:0a:98:f8:c8:79:91:50:44:a9:e2:
                    25:88:79:f3:b9:4d:ef:f8:69:25:8c:ed:5f:48:e0:
                    f4:eb
                Exponent: 65537 (0x10001)
        X509v3 extensions:
            X509v3 Basic Constraints: 
                CA:FALSE
            X509v3 Subject Key Identifier: 
                64:16:A7:E1:8B:FF:DB:E9:6B:06:F3:D8:70:45:AE:D6:B0:5C:28:08
            X509v3 Authority Key Identifier: 
                keyid:09:EB:1C:4C:38:A6:BE:B2:47:5C:96:E1:29:21:1A:54:DE:B8:78:70
                DirName:/CN=team39-net
                serial:0E:0B:C4:A8:79:D7:13:8B:7B:B7:38:B0:7D:6B:89:49:87:6D:6C:4F
            X509v3 Extended Key Usage: 
                TLS Web Client Authentication
            X509v3 Key Usage: 
                Digital Signature
    Signature Algorithm: sha256WithRSAEncryption
    Signature Value:
        00:40:e6:5d:a1:45:f7:ca:24:cb:71:19:5b:db:06:b4:32:b3:
        e1:e2:0d:72:6e:6e:e9:09:12:af:c7:f0:c1:ed:e9:04:57:13:
        b9:64:7b:c3:31:d1:f3:67:69:88:23:03:7e:c9:e5:57:bb:09:
        f7:92:69:eb:45:1d:c9:1d:ae:61:f2:84:92:4a:ab:78:40:4c:
        72:ce:f4:0c:5a:c2:da:5d:a9:94:22:ec:55:6e:2e:3a:7c:50:
        82:c8:c9:2b:cc:72:e6:3f:fc:69:fa:c8:8d:91:f4:75:82:78:
        aa:0b:97:2a:a4:a0:43:a6:7d:74:9f:6b:8f:4d:cb:2f:0b:a0:
        ec:70:59:f7:ac:41:c1:7a:81:d3:54:54:4d:4b:18:50:fc:a9:
        f7:49:f9:de:ef:f8:60:55:df:84:87:5c:61:01:42:74:89:2f:
        6c:33:27:3e:ec:29:71:94:ed:2d:3d:ba:33:5c:bc:06:1f:b1:
        b7:d2:d5:b4:c0:96:4a:68:fd:f1:dd:ca:41:85:51:aa:b3:2f:
        a0:45:95:07:a3:66:54:00:b2:ee:71:ed:76:97:55:1e:46:15:
        cc:73:3a:35:e1:31:f9:d0:b0:bb:cf:d6:48:c7:49:1d:64:e9:
        54:b9:9a:59:bc:45:3c:b5:44:e0:e0:81:4d:4b:88:e7:d8:0d:
        fc:cb:f0:3a
-----BEGIN CERTIFICATE-----
MIIDWTCCAkGgAwIBAgIQFn5vQNsSeS7YdGTs8UAgBzANBgkqhkiG9w0BAQsFADAV
MRMwEQYDVQQDDAp0ZWFtMzktbmV0MB4XDTIzMTEwNDExMjgwN1oXDTI2MTAxOTEx
MjgwN1owGDEWMBQGA1UEAwwNdGVhbTM5LWNsaWVudDCCASIwDQYJKoZIhvcNAQEB
BQADggEPADCCAQoCggEBALMTc+36eLijzjUePl2BqyUekjgbQHsj5zVTcru/XGWl
mgf7N5w7WN8R/Wa3ekbESzz1D5+rC5At6Q27TmTRgR3XN+DbrqAjLGbr8M6mrNSI
PUS2XWf0kn/A4UkuShkKPP3ZM24qJ8urxfujFDQ7fVUbAzBgaL09/eK+nR+4BvTO
A2nVFfWw/r6ElEdwZbFCkXqg6KndfOra87Ad80hSfJqWxp/Xn98XfRutFZrYm4EL
eHbe2sNh3upSAl49oBtd9JfAthjD3abVWq9LQWsPxbbaBXJZw4C6a1C/s7fYSsaY
80soCWEKmPjIeZFQRKniJYh587lN7/hpJYztX0jg9OsCAwEAAaOBoTCBnjAJBgNV
HRMEAjAAMB0GA1UdDgQWBBRkFqfhi//b6WsG89hwRa7WsFwoCDBQBgNVHSMESTBH
gBQJ6xxMOKa+skdcluEpIRpU3rh4cKEZpBcwFTETMBEGA1UEAwwKdGVhbTM5LW5l
dIIUDgvEqHnXE4t7tziwfWuJSYdtbE8wEwYDVR0lBAwwCgYIKwYBBQUHAwIwCwYD
VR0PBAQDAgeAMA0GCSqGSIb3DQEBCwUAA4IBAQAAQOZdoUX3yiTLcRlb2wa0MrPh
4g1ybm7pCRKvx/DB7ekEVxO5ZHvDMdHzZ2mIIwN+yeVXuwn3kmnrRR3JHa5h8oSS
Sqt4QExyzvQMWsLaXamUIuxVbi46fFCCyMkrzHLmP/xp+siNkfR1gniqC5cqpKBD
pn10n2uPTcsvC6DscFn3rEHBeoHTVFRNSxhQ/Kn3Sfne7/hgVd+Eh1xhAUJ0iS9s
Myc+7ClxlO0tPbozXLwGH7G30tW0wJZKaP3x3cpBhVGqsy+gRZUHo2ZUALLuce12
l1UeRhXMczo14TH50LC7z9ZIx0kdZOlUuZpZvEU8tUTg4IFNS4jn2A38y/A6
-----END CERTIFICATE-----
