Certificate:
    Data:
        Version: 3 (0x2)
        Serial Number:
            18:8c:d7:7f:a5:7f:8b:6a:31:02:47:8e:d9:0a:d5:39
        Signature Algorithm: sha256WithRSAEncryption
        Issuer: CN=team39-net
        Validity
            Not Before: Nov  4 10:40:57 2023 GMT
            Not After : Oct 19 10:40:57 2026 GMT
        Subject: CN=team39-client
        Subject Public Key Info:
            Public Key Algorithm: rsaEncryption
                Public-Key: (2048 bit)
                Modulus:
                    00:be:30:f4:7d:ac:76:83:28:03:89:98:06:64:50:
                    cd:06:36:ad:a9:db:37:50:3f:82:d3:e8:ae:bd:07:
                    ed:31:aa:53:08:c3:45:5a:2e:7b:bb:76:b2:07:a1:
                    93:6c:ce:f7:e5:f4:65:41:a6:58:24:6b:ee:88:4b:
                    a1:13:a9:8b:70:a7:bb:47:77:bc:11:43:bf:92:4b:
                    b7:dc:ca:2f:e0:52:e9:a2:ab:af:a3:12:e7:52:fc:
                    0c:d7:d6:d1:33:16:6f:2b:5e:96:f7:92:d5:5c:93:
                    74:1a:0d:28:81:60:85:38:bd:95:f3:70:de:8e:6f:
                    63:2c:b4:81:5c:2e:a2:a3:f4:7e:1d:fd:6c:d9:5d:
                    5d:c8:a6:a1:a6:35:f3:63:1e:64:cd:98:e9:2f:08:
                    f6:0c:96:59:6f:83:d0:45:22:36:51:1f:d1:c2:31:
                    fb:cc:01:bc:09:82:e6:73:42:1a:0c:c2:d1:ab:43:
                    96:e0:ac:4c:4e:37:48:dc:4e:df:3b:56:0a:0a:01:
                    f9:59:91:88:b1:f6:9d:ab:9c:54:05:fd:5a:12:f4:
                    57:eb:43:6f:58:d2:7a:b4:1a:f1:ef:29:8e:23:2c:
                    3c:9d:fe:de:dc:b2:91:ee:81:a5:3f:b2:43:cc:df:
                    a4:5b:a0:b0:c2:19:61:10:f3:40:85:28:99:76:1e:
                    2e:b1
                Exponent: 65537 (0x10001)
        X509v3 extensions:
            X509v3 Basic Constraints: 
                CA:FALSE
            X509v3 Subject Key Identifier: 
                AE:80:59:1B:E7:DE:28:4E:14:9C:76:20:DB:71:B3:DE:75:97:94:6B
            X509v3 Authority Key Identifier: 
                keyid:D5:CA:E8:FD:FF:8D:5E:A8:C2:81:54:4C:D6:2B:77:98:70:61:D3:5C
                DirName:/CN=team39-net
                serial:62:AD:20:4F:09:53:24:36:F8:86:7C:A7:EE:40:4F:2E:5D:50:B0:0A
            X509v3 Extended Key Usage: 
                TLS Web Client Authentication
            X509v3 Key Usage: 
                Digital Signature
    Signature Algorithm: sha256WithRSAEncryption
    Signature Value:
        9b:90:e8:8a:e7:fe:0c:0c:28:a8:5d:de:a2:c9:dc:b9:51:d0:
        c2:4f:7c:6d:68:62:6d:fd:de:32:a5:14:79:78:66:87:f1:f9:
        12:37:ea:44:c8:6c:6c:4f:70:22:20:0a:19:1b:14:f9:f8:3a:
        bb:75:e0:20:4b:6b:9d:9a:0b:a4:8a:5c:80:4a:6f:b0:ff:84:
        7f:f2:fe:26:0a:9f:c3:e2:a9:5a:e2:4e:e3:5b:f6:0b:b1:d5:
        ee:7e:f9:32:0e:ef:44:41:6d:29:c8:65:51:dd:a5:98:80:f2:
        c1:d9:2e:b3:b8:f6:23:fd:48:9b:85:66:8e:d3:31:86:fd:f3:
        8f:0c:f7:0d:2d:cf:b1:01:60:c3:c3:a0:d1:b6:17:2d:89:b8:
        98:44:d8:40:70:c5:08:c4:9c:dc:cb:17:07:93:ca:8a:36:08:
        70:b9:e8:4f:d6:06:44:59:7e:1e:7c:db:f3:67:6a:15:bb:4f:
        2b:e9:08:4d:e7:c3:f0:98:ed:7d:e8:89:69:5d:22:ce:f8:00:
        23:5e:72:ce:09:6e:43:d0:d1:49:31:3b:81:69:97:6b:5a:4c:
        af:49:d4:70:fb:c2:1e:b0:a9:bf:fd:4e:28:e1:5b:09:a5:f9:
        0b:f3:5e:cb:6b:28:b1:5c:ae:c7:51:b0:1f:3b:bf:bc:21:a6:
        09:a7:a2:3a
-----BEGIN CERTIFICATE-----
MIIDWTCCAkGgAwIBAgIQGIzXf6V/i2oxAkeO2QrVOTANBgkqhkiG9w0BAQsFADAV
MRMwEQYDVQQDDAp0ZWFtMzktbmV0MB4XDTIzMTEwNDEwNDA1N1oXDTI2MTAxOTEw
NDA1N1owGDEWMBQGA1UEAwwNdGVhbTM5LWNsaWVudDCCASIwDQYJKoZIhvcNAQEB
BQADggEPADCCAQoCggEBAL4w9H2sdoMoA4mYBmRQzQY2ranbN1A/gtPorr0H7TGq
UwjDRVoue7t2sgehk2zO9+X0ZUGmWCRr7ohLoROpi3Cnu0d3vBFDv5JLt9zKL+BS
6aKrr6MS51L8DNfW0TMWbytelveS1VyTdBoNKIFghTi9lfNw3o5vYyy0gVwuoqP0
fh39bNldXcimoaY182MeZM2Y6S8I9gyWWW+D0EUiNlEf0cIx+8wBvAmC5nNCGgzC
0atDluCsTE43SNxO3ztWCgoB+VmRiLH2naucVAX9WhL0V+tDb1jSerQa8e8pjiMs
PJ3+3tyyke6BpT+yQ8zfpFugsMIZYRDzQIUomXYeLrECAwEAAaOBoTCBnjAJBgNV
HRMEAjAAMB0GA1UdDgQWBBSugFkb594oThScdiDbcbPedZeUazBQBgNVHSMESTBH
gBTVyuj9/41eqMKBVEzWK3eYcGHTXKEZpBcwFTETMBEGA1UEAwwKdGVhbTM5LW5l
dIIUYq0gTwlTJDb4hnyn7kBPLl1QsAowEwYDVR0lBAwwCgYIKwYBBQUHAwIwCwYD
VR0PBAQDAgeAMA0GCSqGSIb3DQEBCwUAA4IBAQCbkOiK5/4MDCioXd6iydy5UdDC
T3xtaGJt/d4ypRR5eGaH8fkSN+pEyGxsT3AiIAoZGxT5+Dq7deAgS2udmgukilyA
Sm+w/4R/8v4mCp/D4qla4k7jW/YLsdXufvkyDu9EQW0pyGVR3aWYgPLB2S6zuPYj
/UibhWaO0zGG/fOPDPcNLc+xAWDDw6DRthctibiYRNhAcMUIxJzcyxcHk8qKNghw
uehP1gZEWX4efNvzZ2oVu08r6QhN58PwmO196IlpXSLO+AAjXnLOCW5D0NFJMTuB
aZdrWkyvSdRw+8IesKm//U4o4VsJpfkL817LayixXK7HUbAfO7+8IaYJp6I6
-----END CERTIFICATE-----
