Certificate:
    Data:
        Version: 3 (0x2)
        Serial Number:
            51:b0:d5:19:12:18:15:03:05:84:da:38:59:55:bc:5d
        Signature Algorithm: sha256WithRSAEncryption
        Issuer: CN=team39-net
        Validity
            Not Before: Nov  4 11:28:07 2023 GMT
            Not After : Oct 19 11:28:07 2026 GMT
        Subject: CN=team39-server
        Subject Public Key Info:
            Public Key Algorithm: rsaEncryption
                Public-Key: (2048 bit)
                Modulus:
                    00:9d:34:07:68:12:62:db:c8:70:b2:b6:ca:a1:34:
                    7f:17:97:12:0d:81:27:94:0d:60:51:e4:91:21:9b:
                    7e:a0:7e:de:47:05:7c:8e:45:ba:7e:53:90:c7:4e:
                    f4:e3:88:32:1a:56:21:ae:b3:00:eb:e6:e4:72:65:
                    7a:d0:14:3e:e2:a8:7f:f3:b7:6b:77:68:39:d0:10:
                    24:b8:7e:39:f4:fc:74:02:e7:19:e5:5b:e5:58:09:
                    f9:b0:93:6d:42:ca:81:0c:29:cb:1d:21:3a:52:4c:
                    5a:e7:f1:65:bd:18:79:a0:02:ca:73:98:95:1c:7d:
                    5b:ee:94:09:09:39:7f:b3:54:f9:cf:59:1b:1f:63:
                    2b:7f:a2:40:0b:94:69:bf:6a:e7:14:32:bd:f6:57:
                    98:02:48:b2:cf:21:5b:65:67:61:28:e5:9b:b4:e0:
                    d4:c5:13:1a:28:3a:19:aa:cc:89:f1:c1:11:06:91:
                    25:50:ad:81:20:81:dc:d1:46:92:56:04:17:19:bb:
                    4c:ee:42:ad:62:3c:63:bb:8a:c2:e0:7f:82:cb:e2:
                    43:7c:57:9a:79:6c:7f:53:49:bd:88:d9:fa:9f:a3:
                    17:49:af:da:c8:3f:6a:17:7a:88:7f:f2:b2:1d:d0:
                    e9:43:69:18:ec:eb:e6:27:89:18:b9:42:34:e2:d5:
                    c4:95
                Exponent: 65537 (0x10001)
        X509v3 extensions:
            X509v3 Basic Constraints: 
                CA:FALSE
            X509v3 Subject Key Identifier: 
                DF:0B:41:23:37:06:83:51:7F:72:E2:95:14:75:3B:0D:69:85:49:C8
            X509v3 Authority Key Identifier: 
                keyid:09:EB:1C:4C:38:A6:BE:B2:47:5C:96:E1:29:21:1A:54:DE:B8:78:70
                DirName:/CN=team39-net
                serial:0E:0B:C4:A8:79:D7:13:8B:7B:B7:38:B0:7D:6B:89:49:87:6D:6C:4F
            X509v3 Extended Key Usage: 
                TLS Web Server Authentication
            X509v3 Key Usage: 
                Digital Signature, Key Encipherment
            X509v3 Subject Alternative Name: 
                DNS:team39-server
    Signature Algorithm: sha256WithRSAEncryption
    Signature Value:
        1e:6d:e1:22:c7:a0:40:6c:d1:20:51:88:1a:7e:cc:aa:c6:fc:
        1c:99:4b:08:c9:b2:f7:df:56:04:12:61:86:df:b4:c2:f2:88:
        69:6e:47:14:69:1b:04:ee:85:7c:82:89:1b:2b:9e:c8:7f:30:
        ae:33:31:a7:12:9f:53:ad:0b:bb:f4:e6:67:1c:c3:43:1c:a3:
        6e:65:3b:34:a5:2e:b1:a9:5b:c3:b0:4c:7f:3b:74:ae:e6:77:
        21:3e:d1:88:81:f5:f5:2d:b7:58:05:e8:3b:eb:f4:77:3f:de:
        f5:ae:75:97:64:05:b9:f8:96:65:f9:eb:c2:0d:50:3b:33:73:
        0b:17:59:b4:06:e6:78:75:b7:13:8e:e1:87:1e:be:34:68:35:
        de:ef:07:02:51:a5:ef:87:5f:d8:07:31:5b:ee:24:42:e3:8a:
        1d:51:14:72:82:e2:2f:a6:a4:d0:26:27:c3:eb:d3:5d:3f:89:
        0e:72:60:09:46:8a:41:8d:40:3e:8b:8d:fc:ee:46:e5:9c:6c:
        68:0e:35:5b:d6:e3:67:57:cc:7c:7d:25:6f:e7:15:f9:d7:27:
        f2:c4:08:02:24:ef:5c:e2:22:c1:ca:3f:4f:94:10:67:8b:5d:
        f9:be:8a:d2:0e:a9:17:4e:90:ea:98:22:2e:d0:cd:58:bb:36:
        ab:8d:ad:31
-----BEGIN CERTIFICATE-----
MIIDczCCAlugAwIBAgIQUbDVGRIYFQMFhNo4WVW8XTANBgkqhkiG9w0BAQsFADAV
MRMwEQYDVQQDDAp0ZWFtMzktbmV0MB4XDTIzMTEwNDExMjgwN1oXDTI2MTAxOTEx
MjgwN1owGDEWMBQGA1UEAwwNdGVhbTM5LXNlcnZlcjCCASIwDQYJKoZIhvcNAQEB
BQADggEPADCCAQoCggEBAJ00B2gSYtvIcLK2yqE0fxeXEg2BJ5QNYFHkkSGbfqB+
3kcFfI5Fun5TkMdO9OOIMhpWIa6zAOvm5HJletAUPuKof/O3a3doOdAQJLh+OfT8
dALnGeVb5VgJ+bCTbULKgQwpyx0hOlJMWufxZb0YeaACynOYlRx9W+6UCQk5f7NU
+c9ZGx9jK3+iQAuUab9q5xQyvfZXmAJIss8hW2VnYSjlm7Tg1MUTGig6GarMifHB
EQaRJVCtgSCB3NFGklYEFxm7TO5CrWI8Y7uKwuB/gsviQ3xXmnlsf1NJvYjZ+p+j
F0mv2sg/ahd6iH/ysh3Q6UNpGOzr5ieJGLlCNOLVxJUCAwEAAaOBuzCBuDAJBgNV
HRMEAjAAMB0GA1UdDgQWBBTfC0EjNwaDUX9y4pUUdTsNaYVJyDBQBgNVHSMESTBH
gBQJ6xxMOKa+skdcluEpIRpU3rh4cKEZpBcwFTETMBEGA1UEAwwKdGVhbTM5LW5l
dIIUDgvEqHnXE4t7tziwfWuJSYdtbE8wEwYDVR0lBAwwCgYIKwYBBQUHAwEwCwYD
VR0PBAQDAgWgMBgGA1UdEQQRMA+CDXRlYW0zOS1zZXJ2ZXIwDQYJKoZIhvcNAQEL
BQADggEBAB5t4SLHoEBs0SBRiBp+zKrG/ByZSwjJsvffVgQSYYbftMLyiGluRxRp
GwTuhXyCiRsrnsh/MK4zMacSn1OtC7v05mccw0Mco25lOzSlLrGpW8OwTH87dK7m
dyE+0YiB9fUtt1gF6Dvr9Hc/3vWudZdkBbn4lmX568INUDszcwsXWbQG5nh1txOO
4YcevjRoNd7vBwJRpe+HX9gHMVvuJELjih1RFHKC4i+mpNAmJ8Pr010/iQ5yYAlG
ikGNQD6LjfzuRuWcbGgONVvW42dXzHx9JW/nFfnXJ/LECAIk71ziIsHKP0+UEGeL
Xfm+itIOqRdOkOqYIi7QzVi7NquNrTE=
-----END CERTIFICATE-----
