Certificate:
    Data:
        Version: 3 (0x2)
        Serial Number:
            de:42:92:69:3f:bc:78:67:6d:ec:c2:42:c7:fe:37:65
        Signature Algorithm: sha256WithRSAEncryption
        Issuer: CN=team39-net
        Validity
            Not Before: Nov  4 10:40:57 2023 GMT
            Not After : Oct 19 10:40:57 2026 GMT
        Subject: CN=team39-server
        Subject Public Key Info:
            Public Key Algorithm: rsaEncryption
                Public-Key: (2048 bit)
                Modulus:
                    00:b1:89:4f:0a:97:51:a4:36:a9:3c:3a:a4:06:e4:
                    db:6b:58:d1:a8:9b:e3:0c:bc:60:12:11:20:af:6e:
                    df:cf:c3:cf:8d:da:e6:d6:48:90:01:36:79:01:52:
                    f1:49:fc:d2:9c:aa:20:5d:ff:d6:97:5f:9c:ee:20:
                    f2:c7:13:af:89:3b:77:09:d0:73:f1:a8:e9:25:d8:
                    f3:19:4b:c4:4d:68:d8:f8:19:7e:e9:03:65:c1:b9:
                    c7:eb:d6:83:21:7d:b9:ae:8a:15:78:4f:fc:33:7a:
                    5e:da:63:e8:2f:c1:ab:27:ce:5a:c2:db:4d:3a:0d:
                    ad:31:ce:5d:09:47:2d:79:d9:5b:74:56:90:16:60:
                    27:43:9b:0e:9c:82:73:fb:8f:01:38:94:2b:b0:44:
                    4b:db:b7:6b:04:71:eb:f3:03:0e:59:f8:77:fb:3f:
                    8a:cb:b7:6d:db:9a:97:d2:08:c3:0a:85:d4:2b:07:
                    6f:2b:70:61:1d:f7:81:d2:09:9d:ff:53:47:ea:51:
                    d7:1a:f2:b8:65:2a:94:c7:e3:da:99:a1:6f:28:f4:
                    1e:b7:d5:77:30:f5:70:f5:3f:00:0e:0e:88:ea:28:
                    f2:ef:fe:94:43:02:58:95:f1:84:ef:32:c0:c1:b1:
                    07:63:ff:2e:14:47:ad:d5:01:c0:af:b4:12:7c:58:
                    ae:7f
                Exponent: 65537 (0x10001)
        X509v3 extensions:
            X509v3 Basic Constraints: 
                CA:FALSE
            X509v3 Subject Key Identifier: 
                01:BE:94:1B:7C:16:9F:59:36:F7:5E:07:7F:C2:D9:C3:02:08:A9:2C
            X509v3 Authority Key Identifier: 
                keyid:D5:CA:E8:FD:FF:8D:5E:A8:C2:81:54:4C:D6:2B:77:98:70:61:D3:5C
                DirName:/CN=team39-net
                serial:62:AD:20:4F:09:53:24:36:F8:86:7C:A7:EE:40:4F:2E:5D:50:B0:0A
            X509v3 Extended Key Usage: 
                TLS Web Server Authentication
            X509v3 Key Usage: 
                Digital Signature, Key Encipherment
            X509v3 Subject Alternative Name: 
                DNS:team39-server
    Signature Algorithm: sha256WithRSAEncryption
    Signature Value:
        8f:00:dd:4c:8d:cf:25:cd:3a:3c:2e:64:ac:96:e2:07:f2:71:
        70:55:78:42:88:23:25:5c:85:07:a0:27:e2:b1:a5:c0:e4:a3:
        cf:83:ec:cd:c5:3c:c2:72:13:63:b9:5f:7f:65:ca:4b:52:40:
        0a:4c:29:a0:2d:b5:42:4e:47:0d:84:7f:2c:dd:fc:99:99:7e:
        12:03:f9:e4:87:df:0d:89:2f:c6:6c:ad:b7:e8:83:5a:50:35:
        06:eb:33:c7:e4:44:6f:04:aa:d5:5c:6b:df:b7:59:b2:14:bc:
        81:cc:a1:b5:86:ee:3b:0f:7d:fa:f3:a0:48:d0:26:a5:ff:3a:
        35:d2:b8:b1:5f:c4:3c:fa:61:3f:a8:51:0d:c0:5c:62:d2:4c:
        2a:29:d6:03:8f:d3:8c:ce:8b:69:30:2b:a9:77:6c:cb:59:52:
        1a:34:64:6a:35:67:1e:bd:f3:60:33:ab:a5:39:2c:2e:05:65:
        01:c8:46:bb:c8:bd:45:7b:f8:83:2c:e7:1a:4a:0d:9d:47:42:
        29:09:4b:21:02:21:40:59:ba:8b:e7:42:5b:51:64:b3:87:91:
        05:fe:7f:4b:ea:31:75:6b:6e:ca:88:e5:6e:42:54:ba:4e:54:
        b6:15:fb:21:1d:70:c7:bb:f0:2d:00:91:94:42:ae:83:45:b0:
        38:84:5b:8e
-----BEGIN CERTIFICATE-----
MIIDdDCCAlygAwIBAgIRAN5Ckmk/vHhnbezCQsf+N2UwDQYJKoZIhvcNAQELBQAw
FTETMBEGA1UEAwwKdGVhbTM5LW5ldDAeFw0yMzExMDQxMDQwNTdaFw0yNjEwMTkx
MDQwNTdaMBgxFjAUBgNVBAMMDXRlYW0zOS1zZXJ2ZXIwggEiMA0GCSqGSIb3DQEB
AQUAA4IBDwAwggEKAoIBAQCxiU8Kl1GkNqk8OqQG5NtrWNGom+MMvGASESCvbt/P
w8+N2ubWSJABNnkBUvFJ/NKcqiBd/9aXX5zuIPLHE6+JO3cJ0HPxqOkl2PMZS8RN
aNj4GX7pA2XBucfr1oMhfbmuihV4T/wzel7aY+gvwasnzlrC2006Da0xzl0JRy15
2Vt0VpAWYCdDmw6cgnP7jwE4lCuwREvbt2sEcevzAw5Z+Hf7P4rLt23bmpfSCMMK
hdQrB28rcGEd94HSCZ3/U0fqUdca8rhlKpTH49qZoW8o9B631Xcw9XD1PwAODojq
KPLv/pRDAliV8YTvMsDBsQdj/y4UR63VAcCvtBJ8WK5/AgMBAAGjgbswgbgwCQYD
VR0TBAIwADAdBgNVHQ4EFgQUAb6UG3wWn1k2914Hf8LZwwIIqSwwUAYDVR0jBEkw
R4AU1cro/f+NXqjCgVRM1it3mHBh01yhGaQXMBUxEzARBgNVBAMMCnRlYW0zOS1u
ZXSCFGKtIE8JUyQ2+IZ8p+5ATy5dULAKMBMGA1UdJQQMMAoGCCsGAQUFBwMBMAsG
A1UdDwQEAwIFoDAYBgNVHREEETAPgg10ZWFtMzktc2VydmVyMA0GCSqGSIb3DQEB
CwUAA4IBAQCPAN1Mjc8lzTo8LmSsluIH8nFwVXhCiCMlXIUHoCfisaXA5KPPg+zN
xTzCchNjuV9/ZcpLUkAKTCmgLbVCTkcNhH8s3fyZmX4SA/nkh98NiS/GbK236INa
UDUG6zPH5ERvBKrVXGvft1myFLyBzKG1hu47D33686BI0Cal/zo10rixX8Q8+mE/
qFENwFxi0kwqKdYDj9OMzotpMCupd2zLWVIaNGRqNWcevfNgM6ulOSwuBWUByEa7
yL1Fe/iDLOcaSg2dR0IpCUshAiFAWbqL50JbUWSzh5EF/n9L6jF1a27KiOVuQlS6
TlS2FfshHXDHu/AtAJGUQq6DRbA4hFuO
-----END CERTIFICATE-----
