Certificate:
    Data:
        Version: 3 (0x2)
        Serial Number:
            4d:71:9c:ad:3f:9e:18:6a:a9:cc:41:c1:03:54:cc:bb
        Signature Algorithm: sha256WithRSAEncryption
        Issuer: CN=team399-net
        Validity
            Not Before: Nov  3 20:46:28 2023 GMT
            Not After : Oct 18 20:46:28 2026 GMT
        Subject: CN=team399-server
        Subject Public Key Info:
            Public Key Algorithm: rsaEncryption
                Public-Key: (2048 bit)
                Modulus:
                    00:b5:91:b5:d8:02:d1:0f:e2:cf:02:d8:e7:a7:c2:
                    e0:5b:2e:7f:38:1e:fb:c3:10:97:e7:76:44:d6:67:
                    97:41:89:9b:54:d4:89:c1:f9:97:b7:78:d7:e9:d2:
                    b8:de:cf:92:c8:f7:4b:ba:a3:50:f3:2f:d1:01:cf:
                    db:38:9f:05:4f:f5:35:14:c7:ca:59:3e:2f:e4:f3:
                    e9:b9:5e:cd:fd:27:88:a5:f0:77:33:87:e6:03:b6:
                    b9:28:d4:c8:eb:44:05:73:e5:d5:40:dc:fb:4c:18:
                    0c:c9:e1:4e:6d:41:fd:43:7c:22:52:6a:bc:eb:e0:
                    07:fd:9d:6c:ca:9b:d1:ab:9c:eb:d6:4f:45:17:be:
                    34:91:28:07:7d:07:1e:0b:79:b5:9f:48:44:7d:78:
                    48:5b:48:67:f0:c6:84:d4:c8:98:f8:c8:ff:16:97:
                    7d:72:21:86:1e:bb:6c:35:8c:31:2b:47:49:b9:1d:
                    6d:e2:c7:b7:3e:c0:5e:62:fe:aa:40:a4:33:0d:56:
                    21:d8:7b:6e:63:9c:59:e6:8a:3e:f9:ae:5e:50:75:
                    aa:7a:40:9a:3b:bb:7f:98:95:9f:d7:45:f8:31:23:
                    88:ac:36:de:0f:b4:56:68:b7:ac:d5:1f:34:6f:cb:
                    6b:2b:90:83:32:a8:c4:d7:9c:a6:87:9c:8d:8d:8a:
                    53:cd
                Exponent: 65537 (0x10001)
        X509v3 extensions:
            X509v3 Basic Constraints: 
                CA:FALSE
            X509v3 Subject Key Identifier: 
                2B:C6:0B:06:44:DD:69:E5:04:C2:30:5F:9B:03:64:EE:13:BA:EB:23
            X509v3 Authority Key Identifier: 
                keyid:1B:BA:86:92:B8:85:13:F6:F8:F3:A4:C9:08:EE:4F:ED:2C:28:E2:90
                DirName:/CN=team399-net
                serial:6C:ED:46:91:EE:77:35:49:AD:65:C1:22:D3:56:EC:69:03:0E:0B:A4
            X509v3 Extended Key Usage: 
                TLS Web Server Authentication
            X509v3 Key Usage: 
                Digital Signature, Key Encipherment
            X509v3 Subject Alternative Name: 
                DNS:team399-server
    Signature Algorithm: sha256WithRSAEncryption
    Signature Value:
        24:cb:2e:22:86:5e:48:6a:3d:5f:db:ee:e7:3d:9d:cb:5a:d7:
        61:29:2a:ff:33:5a:e0:2d:dd:4b:e0:6c:0a:13:e2:88:e0:f3:
        2c:8d:2a:39:10:ea:5b:fd:e5:e2:46:35:ef:de:8e:d9:af:8e:
        78:cf:c3:dc:cd:02:5f:72:85:da:8a:b1:b5:c6:6b:6c:14:fa:
        d0:f0:db:df:78:77:d2:70:a3:1d:99:e2:4a:48:19:cd:49:af:
        97:d5:67:7f:ec:b7:aa:35:7f:a4:ca:a0:e2:38:61:0a:5d:ad:
        fc:f5:85:8e:8e:10:c2:18:28:6a:e0:38:53:4f:ca:d1:52:15:
        13:68:cc:55:1f:38:88:9b:b6:8b:10:53:36:1f:3d:ef:6c:c7:
        56:dc:1c:18:63:64:a7:89:83:bc:33:86:a3:c7:9d:03:fa:d0:
        72:e8:73:5b:1a:33:4b:c5:4e:d9:7d:2d:38:75:d7:05:71:e7:
        d5:c2:10:0b:80:6a:2d:67:7c:42:1b:d4:d7:c5:7e:5c:69:7d:
        25:d9:3b:df:c4:69:5b:c6:04:c2:3c:2b:b8:49:8e:45:7e:1c:
        b2:af:b8:26:cc:9c:4a:a7:41:78:00:37:42:06:95:db:70:81:
        a4:20:3b:9b:05:b9:80:f3:d4:00:80:ce:52:c7:bd:22:42:bf:
        5d:a9:59:db
-----BEGIN CERTIFICATE-----
MIIDdzCCAl+gAwIBAgIQTXGcrT+eGGqpzEHBA1TMuzANBgkqhkiG9w0BAQsFADAW
MRQwEgYDVQQDDAt0ZWFtMzk5LW5ldDAeFw0yMzExMDMyMDQ2MjhaFw0yNjEwMTgy
MDQ2MjhaMBkxFzAVBgNVBAMMDnRlYW0zOTktc2VydmVyMIIBIjANBgkqhkiG9w0B
AQEFAAOCAQ8AMIIBCgKCAQEAtZG12ALRD+LPAtjnp8LgWy5/OB77wxCX53ZE1meX
QYmbVNSJwfmXt3jX6dK43s+SyPdLuqNQ8y/RAc/bOJ8FT/U1FMfKWT4v5PPpuV7N
/SeIpfB3M4fmA7a5KNTI60QFc+XVQNz7TBgMyeFObUH9Q3wiUmq86+AH/Z1sypvR
q5zr1k9FF740kSgHfQceC3m1n0hEfXhIW0hn8MaE1MiY+Mj/Fpd9ciGGHrtsNYwx
K0dJuR1t4se3PsBeYv6qQKQzDVYh2HtuY5xZ5oo++a5eUHWqekCaO7t/mJWf10X4
MSOIrDbeD7RWaLes1R80b8trK5CDMqjE15ymh5yNjYpTzQIDAQABo4G9MIG6MAkG
A1UdEwQCMAAwHQYDVR0OBBYEFCvGCwZE3WnlBMIwX5sDZO4TuusjMFEGA1UdIwRK
MEiAFBu6hpK4hRP2+POkyQjuT+0sKOKQoRqkGDAWMRQwEgYDVQQDDAt0ZWFtMzk5
LW5ldIIUbO1Gke53NUmtZcEi01bsaQMOC6QwEwYDVR0lBAwwCgYIKwYBBQUHAwEw
CwYDVR0PBAQDAgWgMBkGA1UdEQQSMBCCDnRlYW0zOTktc2VydmVyMA0GCSqGSIb3
DQEBCwUAA4IBAQAkyy4ihl5Iaj1f2+7nPZ3LWtdhKSr/M1rgLd1L4GwKE+KI4PMs
jSo5EOpb/eXiRjXv3o7Zr454z8PczQJfcoXairG1xmtsFPrQ8NvfeHfScKMdmeJK
SBnNSa+X1Wd/7LeqNX+kyqDiOGEKXa389YWOjhDCGChq4DhTT8rRUhUTaMxVHziI
m7aLEFM2Hz3vbMdW3BwYY2SniYO8M4ajx50D+tBy6HNbGjNLxU7ZfS04ddcFcefV
whALgGotZ3xCG9TXxX5caX0l2TvfxGlbxgTCPCu4SY5Ffhyyr7gmzJxKp0F4ADdC
BpXbcIGkIDubBbmA89QAgM5Sx70iQr9dqVnb
-----END CERTIFICATE-----
