Certificate:
    Data:
        Version: 3 (0x2)
        Serial Number:
            05:21:e7:b9:78:4f:10:64:b1:e0:56:48:59:0d:a6:9f
        Signature Algorithm: sha256WithRSAEncryption
        Issuer: CN=team319-net
        Validity
            Not Before: Nov  4 11:34:27 2023 GMT
            Not After : Oct 19 11:34:27 2026 GMT
        Subject: CN=team319-server
        Subject Public Key Info:
            Public Key Algorithm: rsaEncryption
                Public-Key: (2048 bit)
                Modulus:
                    00:a9:8c:27:a6:a9:a4:17:42:73:19:46:1a:cd:16:
                    4b:76:4a:b9:24:d1:95:4c:d4:ae:df:87:35:d0:df:
                    c9:13:80:ec:80:8a:5b:a3:b6:04:0b:db:b7:04:b2:
                    a3:ea:4d:f3:5c:db:8d:25:30:17:e1:9f:4f:91:59:
                    39:f9:f1:87:4b:69:96:e0:57:11:83:af:21:c6:3d:
                    9e:6c:f7:09:c1:51:78:a7:7a:0a:27:4b:51:4f:6a:
                    dd:39:6b:d1:39:4a:4d:a8:9a:57:a8:70:95:1a:32:
                    8a:ab:f7:0b:89:3e:c0:a6:f7:96:ec:ac:13:40:79:
                    c6:9b:70:1b:9f:e5:4f:85:38:d3:66:66:2a:9f:af:
                    95:2a:8e:8f:8b:9c:f2:a3:d8:69:ed:8b:e0:43:3c:
                    1f:fa:52:cd:1f:e6:9b:58:62:56:32:a6:bf:0c:7f:
                    ba:05:86:bb:06:d5:3b:2e:b6:22:48:29:5a:70:d6:
                    b9:db:2f:9e:de:2d:eb:42:7d:dc:f6:18:ab:b7:fc:
                    a2:4b:31:5b:a0:0d:4d:5b:51:0b:0d:77:5f:04:d5:
                    7e:c9:a5:a6:38:60:68:87:d3:48:67:1d:1f:6f:15:
                    40:d7:52:66:2a:33:14:89:22:b5:a5:25:6b:b2:1e:
                    7a:99:ac:41:03:4f:16:c0:ca:eb:91:68:a1:03:36:
                    63:91
                Exponent: 65537 (0x10001)
        X509v3 extensions:
            X509v3 Basic Constraints: 
                CA:FALSE
            X509v3 Subject Key Identifier: 
                8D:BD:F0:29:4D:9F:99:78:1A:20:A7:32:48:13:75:13:7D:E8:EB:EB
            X509v3 Authority Key Identifier: 
                keyid:35:C6:4B:6F:9C:09:B4:64:F2:3F:CC:86:7B:7B:95:4C:0C:65:78:81
                DirName:/CN=team319-net
                serial:3D:90:D8:82:21:73:59:DA:FA:8D:3E:E5:80:FB:BB:9B:82:4E:58:AF
            X509v3 Extended Key Usage: 
                TLS Web Server Authentication
            X509v3 Key Usage: 
                Digital Signature, Key Encipherment
            X509v3 Subject Alternative Name: 
                DNS:team319-server
    Signature Algorithm: sha256WithRSAEncryption
    Signature Value:
        02:1d:fb:e4:91:c2:5f:c9:88:7d:36:39:9a:69:b6:bb:59:73:
        d3:7e:a8:c8:48:2e:a9:68:40:f8:b4:97:31:c0:17:70:2b:43:
        eb:06:9e:58:6c:04:c4:b2:99:3e:9d:52:ba:99:dd:cf:1f:61:
        b5:57:47:92:b8:5e:c3:a5:ae:e6:cb:82:02:5e:84:ce:58:e2:
        a4:26:00:9c:89:1b:82:16:8f:d3:fa:fd:38:02:d5:39:73:e5:
        ce:af:14:b2:48:2f:18:6e:83:d2:4b:56:5d:1e:99:bd:b4:0e:
        4e:47:e5:f8:59:8d:1f:4f:7b:5c:5f:65:fc:8a:81:07:6c:f3:
        d0:94:52:db:e5:10:03:41:90:76:18:98:9a:eb:d2:92:37:be:
        2b:60:38:2b:55:fc:18:ce:87:c2:8a:a9:b7:a0:fb:60:c2:fe:
        ab:83:95:a9:66:bf:6b:cd:a6:f2:79:6a:1f:f9:c1:91:d4:86:
        3c:9a:27:26:73:ce:6e:80:20:0e:a5:fa:b9:a2:0c:27:29:57:
        1e:e0:08:8b:4c:cb:87:83:24:0d:67:f3:69:8c:85:18:fb:7f:
        78:5d:77:14:2d:14:c1:3c:86:92:46:d8:88:83:fd:27:81:97:
        ea:38:0c:41:16:18:e2:88:9c:2e:1a:98:97:69:7e:9d:fd:92:
        18:27:63:d1
-----BEGIN CERTIFICATE-----
MIIDdzCCAl+gAwIBAgIQBSHnuXhPEGSx4FZIWQ2mnzANBgkqhkiG9w0BAQsFADAW
MRQwEgYDVQQDDAt0ZWFtMzE5LW5ldDAeFw0yMzExMDQxMTM0MjdaFw0yNjEwMTkx
MTM0MjdaMBkxFzAVBgNVBAMMDnRlYW0zMTktc2VydmVyMIIBIjANBgkqhkiG9w0B
AQEFAAOCAQ8AMIIBCgKCAQEAqYwnpqmkF0JzGUYazRZLdkq5JNGVTNSu34c10N/J
E4DsgIpbo7YEC9u3BLKj6k3zXNuNJTAX4Z9PkVk5+fGHS2mW4FcRg68hxj2ebPcJ
wVF4p3oKJ0tRT2rdOWvROUpNqJpXqHCVGjKKq/cLiT7ApveW7KwTQHnGm3Abn+VP
hTjTZmYqn6+VKo6Pi5zyo9hp7YvgQzwf+lLNH+abWGJWMqa/DH+6BYa7BtU7LrYi
SClacNa52y+e3i3rQn3c9hirt/yiSzFboA1NW1ELDXdfBNV+yaWmOGBoh9NIZx0f
bxVA11JmKjMUiSK1pSVrsh56maxBA08WwMrrkWihAzZjkQIDAQABo4G9MIG6MAkG
A1UdEwQCMAAwHQYDVR0OBBYEFI298ClNn5l4GiCnMkgTdRN96OvrMFEGA1UdIwRK
MEiAFDXGS2+cCbRk8j/Mhnt7lUwMZXiBoRqkGDAWMRQwEgYDVQQDDAt0ZWFtMzE5
LW5ldIIUPZDYgiFzWdr6jT7lgPu7m4JOWK8wEwYDVR0lBAwwCgYIKwYBBQUHAwEw
CwYDVR0PBAQDAgWgMBkGA1UdEQQSMBCCDnRlYW0zMTktc2VydmVyMA0GCSqGSIb3
DQEBCwUAA4IBAQACHfvkkcJfyYh9Njmaaba7WXPTfqjISC6paED4tJcxwBdwK0Pr
Bp5YbATEspk+nVK6md3PH2G1V0eSuF7Dpa7my4ICXoTOWOKkJgCciRuCFo/T+v04
AtU5c+XOrxSySC8YboPSS1ZdHpm9tA5OR+X4WY0fT3tcX2X8ioEHbPPQlFLb5RAD
QZB2GJia69KSN74rYDgrVfwYzofCiqm3oPtgwv6rg5WpZr9rzabyeWof+cGR1IY8
micmc85ugCAOpfq5ogwnKVce4AiLTMuHgyQNZ/NpjIUY+394XXcULRTBPIaSRtiI
g/0ngZfqOAxBFhjiiJwuGpiXaX6d/ZIYJ2PR
-----END CERTIFICATE-----
