Certificate:
    Data:
        Version: 3 (0x2)
        Serial Number:
            17:65:ff:d1:17:1d:4d:e4:a5:87:60:c1:81:70:60:29
        Signature Algorithm: sha256WithRSAEncryption
        Issuer: CN=team319-net
        Validity
            Not Before: Nov  3 20:45:04 2023 GMT
            Not After : Oct 18 20:45:04 2026 GMT
        Subject: CN=team319-server
        Subject Public Key Info:
            Public Key Algorithm: rsaEncryption
                Public-Key: (2048 bit)
                Modulus:
                    00:da:1f:73:b1:f0:28:2f:da:fc:eb:17:3d:0b:cc:
                    6d:78:14:57:5e:fc:35:35:f1:75:a8:f0:91:84:f5:
                    9e:c2:ce:46:a2:5e:1d:b8:37:3b:f1:47:ad:21:34:
                    fd:f9:f7:c5:a3:c3:fa:08:f3:2b:17:5d:10:7c:45:
                    c3:b7:29:99:a9:e2:5d:cc:d5:0e:1e:79:d0:75:a3:
                    ef:41:a2:d0:90:41:cd:05:6d:a4:2b:ea:e9:4f:ef:
                    5c:62:7f:57:7f:96:1b:fe:75:70:a8:07:67:2d:ba:
                    00:bf:a8:cf:c7:58:99:0d:39:24:e2:d4:87:44:fd:
                    2b:78:75:09:57:a3:c3:9d:92:ba:86:84:ed:e2:c5:
                    64:64:23:35:a3:a1:fa:f4:3c:00:94:09:59:87:39:
                    a3:d9:b0:5d:cd:b6:d4:41:83:0f:59:52:0b:c6:1b:
                    80:af:2c:bc:05:e5:38:ec:d3:c1:ab:42:d7:30:5a:
                    72:14:74:40:20:65:81:b3:62:9f:16:83:74:27:9b:
                    12:1e:75:c6:e5:d3:7d:bc:c5:db:8f:98:a5:a7:a9:
                    44:00:fa:7d:a3:65:cf:bd:69:cf:9b:4e:84:1e:31:
                    ab:3c:1c:e2:d2:35:0a:da:15:0e:dd:30:41:13:c6:
                    c6:d2:ef:e5:e8:7f:fa:01:20:e6:b8:2c:72:01:c6:
                    72:03
                Exponent: 65537 (0x10001)
        X509v3 extensions:
            X509v3 Basic Constraints: 
                CA:FALSE
            X509v3 Subject Key Identifier: 
                51:D3:83:97:ED:85:7C:E8:2B:18:04:80:8B:08:1C:57:E9:E6:38:5B
            X509v3 Authority Key Identifier: 
                keyid:BB:7D:60:D5:8B:3A:EB:F2:4C:17:99:BD:A2:18:CE:60:E4:6C:CA:82
                DirName:/CN=team319-net
                serial:61:60:E5:D3:DA:8E:D7:C8:81:87:F3:BF:1D:D1:08:2E:47:A9:E2:39
            X509v3 Extended Key Usage: 
                TLS Web Server Authentication
            X509v3 Key Usage: 
                Digital Signature, Key Encipherment
            X509v3 Subject Alternative Name: 
                DNS:team319-server
    Signature Algorithm: sha256WithRSAEncryption
    Signature Value:
        a0:97:c2:a6:dc:4c:f0:ef:24:03:f4:b2:d6:c9:9a:0f:9d:e4:
        f0:fc:6a:c1:79:4c:0e:a5:7f:e5:e0:98:02:fe:68:2b:b7:72:
        42:0b:96:b1:01:fe:93:6c:12:53:96:e2:27:81:aa:81:c6:8e:
        d1:c8:4a:25:94:44:4d:2c:1f:c3:b7:d8:80:05:4f:91:28:32:
        36:7b:96:c7:57:f4:4f:fb:b6:e3:1b:27:23:11:cc:f3:90:7c:
        45:7b:85:6a:12:f8:66:a6:33:28:81:7e:84:df:81:76:2b:17:
        e1:b2:2e:3f:f0:3f:6c:7d:d4:aa:17:8c:75:d6:15:6b:ca:e5:
        8c:47:9b:c9:06:24:14:19:c8:a6:87:bc:cf:b5:dd:b8:d6:ea:
        aa:9a:22:46:ad:ac:a3:23:26:05:85:c6:77:f0:11:9c:34:71:
        da:16:9e:3a:42:d2:bf:f7:15:3b:4c:3b:64:b4:4f:5a:55:9c:
        44:c5:63:c7:c8:8d:f0:f9:c6:7a:21:2e:9b:4b:89:24:f0:ad:
        5d:c7:f6:9e:06:f1:ae:05:31:5c:64:43:78:bf:c4:d1:34:7e:
        b9:8e:d1:6e:8e:6f:72:39:cd:2c:5e:88:fc:05:ed:7e:08:0d:
        c9:e4:e8:94:6c:93:52:0f:dc:f7:12:e1:1e:15:9f:eb:9d:ec:
        f2:45:b6:11
-----BEGIN CERTIFICATE-----
MIIDdzCCAl+gAwIBAgIQF2X/0RcdTeSlh2DBgXBgKTANBgkqhkiG9w0BAQsFADAW
MRQwEgYDVQQDDAt0ZWFtMzE5LW5ldDAeFw0yMzExMDMyMDQ1MDRaFw0yNjEwMTgy
MDQ1MDRaMBkxFzAVBgNVBAMMDnRlYW0zMTktc2VydmVyMIIBIjANBgkqhkiG9w0B
AQEFAAOCAQ8AMIIBCgKCAQEA2h9zsfAoL9r86xc9C8xteBRXXvw1NfF1qPCRhPWe
ws5Gol4duDc78UetITT9+ffFo8P6CPMrF10QfEXDtymZqeJdzNUOHnnQdaPvQaLQ
kEHNBW2kK+rpT+9cYn9Xf5Yb/nVwqAdnLboAv6jPx1iZDTkk4tSHRP0reHUJV6PD
nZK6hoTt4sVkZCM1o6H69DwAlAlZhzmj2bBdzbbUQYMPWVILxhuAryy8BeU47NPB
q0LXMFpyFHRAIGWBs2KfFoN0J5sSHnXG5dN9vMXbj5ilp6lEAPp9o2XPvWnPm06E
HjGrPBzi0jUK2hUO3TBBE8bG0u/l6H/6ASDmuCxyAcZyAwIDAQABo4G9MIG6MAkG
A1UdEwQCMAAwHQYDVR0OBBYEFFHTg5fthXzoKxgEgIsIHFfp5jhbMFEGA1UdIwRK
MEiAFLt9YNWLOuvyTBeZvaIYzmDkbMqCoRqkGDAWMRQwEgYDVQQDDAt0ZWFtMzE5
LW5ldIIUYWDl09qO18iBh/O/HdEILkep4jkwEwYDVR0lBAwwCgYIKwYBBQUHAwEw
CwYDVR0PBAQDAgWgMBkGA1UdEQQSMBCCDnRlYW0zMTktc2VydmVyMA0GCSqGSIb3
DQEBCwUAA4IBAQCgl8Km3Ezw7yQD9LLWyZoPneTw/GrBeUwOpX/l4JgC/mgrt3JC
C5axAf6TbBJTluIngaqBxo7RyEollERNLB/Dt9iABU+RKDI2e5bHV/RP+7bjGycj
EczzkHxFe4VqEvhmpjMogX6E34F2Kxfhsi4/8D9sfdSqF4x11hVryuWMR5vJBiQU
Gcimh7zPtd241uqqmiJGrayjIyYFhcZ38BGcNHHaFp46QtK/9xU7TDtktE9aVZxE
xWPHyI3w+cZ6IS6bS4kk8K1dx/aeBvGuBTFcZEN4v8TRNH65jtFujm9yOc0sXoj8
Be1+CA3J5OiUbJNSD9z3EuEeFZ/rnezyRbYR
-----END CERTIFICATE-----
