Certificate:
    Data:
        Version: 3 (0x2)
        Serial Number:
            e9:b3:47:2b:29:77:53:7a:cd:94:6f:d5:4f:6c:c2:d1
        Signature Algorithm: sha256WithRSAEncryption
        Issuer: CN=team319-net
        Validity
            Not Before: Nov  4 10:46:28 2023 GMT
            Not After : Oct 19 10:46:28 2026 GMT
        Subject: CN=team319-client
        Subject Public Key Info:
            Public Key Algorithm: rsaEncryption
                Public-Key: (2048 bit)
                Modulus:
                    00:b4:fd:84:c5:5f:d0:50:ec:53:f8:70:2e:55:34:
                    21:22:41:a6:3b:cd:4d:10:a3:98:b0:74:1f:fb:47:
                    03:23:d0:03:be:7a:fe:75:8b:b3:7b:39:cf:f4:7e:
                    94:ed:21:02:e1:69:c4:35:06:72:3a:b6:1b:01:0c:
                    fc:90:e4:f8:f5:c6:f5:a5:06:e0:b0:e3:18:da:03:
                    1b:8c:77:63:2c:62:67:ab:57:1b:91:db:60:db:8e:
                    3a:85:68:20:3b:e3:c4:25:79:29:72:9a:a8:d0:9a:
                    ac:22:2f:e0:a8:78:35:8a:1d:d2:f6:41:e6:8c:32:
                    b1:e6:db:9b:5e:48:de:ac:a8:f7:1a:f2:fd:df:17:
                    9f:4b:41:1b:1f:9a:3c:52:61:70:89:26:a3:0d:a6:
                    79:d0:a4:aa:3d:87:d6:c3:ef:64:51:de:df:d6:0c:
                    44:a3:7e:c6:ef:71:bc:2a:de:76:39:91:75:39:56:
                    44:e7:01:38:1c:19:48:8b:b9:7c:e9:56:f2:53:06:
                    da:91:1e:23:65:92:41:db:9a:a8:a7:a5:4a:7e:c2:
                    8a:f8:9e:ac:23:82:cd:32:94:ef:36:3a:9d:46:d3:
                    3f:c6:c8:25:30:2b:fc:87:2c:93:fc:77:d4:19:4f:
                    50:b6:9c:00:7f:4e:5a:e0:bd:47:ce:15:f7:7b:05:
                    d0:e9
                Exponent: 65537 (0x10001)
        X509v3 extensions:
            X509v3 Basic Constraints: 
                CA:FALSE
            X509v3 Subject Key Identifier: 
                67:7F:F5:A8:50:C8:14:7B:40:C7:48:A0:74:8F:C1:47:FB:8D:4F:84
            X509v3 Authority Key Identifier: 
                keyid:3D:36:86:6C:EE:16:DC:7B:74:3D:D5:DE:40:64:02:4E:04:50:60:DF
                DirName:/CN=team319-net
                serial:7E:26:40:D9:3D:48:45:81:46:0A:1F:90:04:FB:76:86:98:D2:ED:69
            X509v3 Extended Key Usage: 
                TLS Web Client Authentication
            X509v3 Key Usage: 
                Digital Signature
    Signature Algorithm: sha256WithRSAEncryption
    Signature Value:
        a2:a8:28:17:2f:32:87:9b:e7:e7:c9:a8:97:16:1b:16:60:c2:
        21:2c:0f:6b:96:cd:cc:d6:7b:7d:7c:90:5b:7a:3e:6f:1b:f9:
        6b:9d:cf:ec:3c:26:84:c3:cb:a4:a1:05:cb:31:63:40:f0:0e:
        c2:61:b0:ce:23:f3:61:f8:f0:32:00:f5:d9:78:ef:9a:c8:3f:
        7d:8d:63:bb:36:4d:5f:3f:0f:8a:1b:81:60:1b:69:f4:d6:ab:
        64:94:40:55:23:98:fa:71:ba:60:49:89:96:09:0d:1d:99:39:
        cb:8d:97:65:08:92:f5:b5:9a:2c:ba:4e:4a:38:c2:ac:3a:4d:
        e4:4f:c8:4c:fe:27:89:7a:07:17:40:7d:ee:b9:a7:f6:b3:e1:
        a5:26:89:14:32:9a:39:7e:98:5e:3d:17:a2:a4:e1:ef:63:51:
        4b:1f:e7:23:be:86:79:52:ea:7b:a3:f2:6f:a9:c4:ae:c3:43:
        e3:2d:8c:58:b6:59:9d:fb:ee:9b:82:29:75:9e:d5:8c:e2:53:
        34:3a:d0:68:20:c3:95:69:f4:3d:7e:e9:8b:2c:42:c0:2e:bb:
        fc:72:71:b8:ce:fa:eb:c9:eb:64:40:62:07:c6:65:65:2a:3c:
        93:09:7f:c5:2b:e9:1a:2e:03:2f:28:6b:0e:ef:21:92:ba:b5:
        5d:4c:c2:4e
-----BEGIN CERTIFICATE-----
MIIDXTCCAkWgAwIBAgIRAOmzRyspd1N6zZRv1U9swtEwDQYJKoZIhvcNAQELBQAw
FjEUMBIGA1UEAwwLdGVhbTMxOS1uZXQwHhcNMjMxMTA0MTA0NjI4WhcNMjYxMDE5
MTA0NjI4WjAZMRcwFQYDVQQDDA50ZWFtMzE5LWNsaWVudDCCASIwDQYJKoZIhvcN
AQEBBQADggEPADCCAQoCggEBALT9hMVf0FDsU/hwLlU0ISJBpjvNTRCjmLB0H/tH
AyPQA756/nWLs3s5z/R+lO0hAuFpxDUGcjq2GwEM/JDk+PXG9aUG4LDjGNoDG4x3
YyxiZ6tXG5HbYNuOOoVoIDvjxCV5KXKaqNCarCIv4Kh4NYod0vZB5owysebbm15I
3qyo9xry/d8Xn0tBGx+aPFJhcIkmow2medCkqj2H1sPvZFHe39YMRKN+xu9xvCre
djmRdTlWROcBOBwZSIu5fOlW8lMG2pEeI2WSQduaqKelSn7CivierCOCzTKU7zY6
nUbTP8bIJTAr/Icsk/x31BlPULacAH9OWuC9R84V93sF0OkCAwEAAaOBojCBnzAJ
BgNVHRMEAjAAMB0GA1UdDgQWBBRnf/WoUMgUe0DHSKB0j8FH+41PhDBRBgNVHSME
SjBIgBQ9NoZs7hbce3Q91d5AZAJOBFBg36EapBgwFjEUMBIGA1UEAwwLdGVhbTMx
OS1uZXSCFH4mQNk9SEWBRgofkAT7doaY0u1pMBMGA1UdJQQMMAoGCCsGAQUFBwMC
MAsGA1UdDwQEAwIHgDANBgkqhkiG9w0BAQsFAAOCAQEAoqgoFy8yh5vn58molxYb
FmDCISwPa5bNzNZ7fXyQW3o+bxv5a53P7DwmhMPLpKEFyzFjQPAOwmGwziPzYfjw
MgD12Xjvmsg/fY1juzZNXz8PihuBYBtp9NarZJRAVSOY+nG6YEmJlgkNHZk5y42X
ZQiS9bWaLLpOSjjCrDpN5E/ITP4niXoHF0B97rmn9rPhpSaJFDKaOX6YXj0XoqTh
72NRSx/nI76GeVLqe6Pyb6nErsND4y2MWLZZnfvum4IpdZ7VjOJTNDrQaCDDlWn0
PX7piyxCwC67/HJxuM7668nrZEBiB8ZlZSo8kwl/xSvpGi4DLyhrDu8hkrq1XUzC
Tg==
-----END CERTIFICATE-----
