Certificate:
    Data:
        Version: 3 (0x2)
        Serial Number:
            fb:42:57:47:e4:04:67:f2:77:30:e5:23:57:fd:76:51
        Signature Algorithm: sha256WithRSAEncryption
        Issuer: CN=team319-net
        Validity
            Not Before: Nov  4 11:34:27 2023 GMT
            Not After : Oct 19 11:34:27 2026 GMT
        Subject: CN=team319-client
        Subject Public Key Info:
            Public Key Algorithm: rsaEncryption
                Public-Key: (2048 bit)
                Modulus:
                    00:cb:a6:77:f5:aa:c7:6a:99:92:9d:b3:23:55:e8:
                    f9:c1:e5:14:f9:5d:ff:e7:7c:9c:66:94:41:12:40:
                    db:fe:36:e8:46:7d:6b:8e:29:52:fb:f8:64:5f:f6:
                    64:5e:b8:39:e6:85:7e:71:86:ec:4b:f0:ea:55:be:
                    f9:f4:94:dd:eb:fe:d0:b4:78:3c:76:bb:cb:c3:57:
                    26:52:90:6a:f7:af:22:63:53:c5:90:8f:87:4a:ca:
                    ae:4a:82:69:d6:ef:84:f6:d7:de:93:d9:de:2d:e1:
                    0e:96:25:61:ed:a2:7c:6c:09:8b:5b:27:50:31:fc:
                    03:9a:d1:28:49:9e:38:ad:7c:54:aa:8a:62:9c:2e:
                    a6:17:ad:eb:e7:b3:05:4a:71:cf:df:d0:3f:9b:15:
                    55:78:c2:ff:7f:99:76:f4:b1:17:1f:66:6b:79:95:
                    f8:72:00:e3:d9:10:88:9d:1e:76:da:d1:75:8e:06:
                    27:2d:ec:83:ab:b1:61:0b:ed:14:a8:1a:73:11:8c:
                    49:54:02:fb:85:a0:b4:2b:ff:a0:80:70:9b:02:44:
                    3a:c3:29:89:f1:a8:cf:38:ec:65:df:1a:a4:4a:49:
                    3e:b5:7d:ca:81:28:ab:74:6b:b4:fe:2c:b4:d3:5b:
                    f0:74:cf:77:3c:c6:eb:45:32:f0:76:5d:7a:f3:f4:
                    6d:2b
                Exponent: 65537 (0x10001)
        X509v3 extensions:
            X509v3 Basic Constraints: 
                CA:FALSE
            X509v3 Subject Key Identifier: 
                30:E0:E3:05:9F:69:1C:4D:4B:3C:A9:48:9B:2E:43:77:9E:7C:C5:EE
            X509v3 Authority Key Identifier: 
                keyid:35:C6:4B:6F:9C:09:B4:64:F2:3F:CC:86:7B:7B:95:4C:0C:65:78:81
                DirName:/CN=team319-net
                serial:3D:90:D8:82:21:73:59:DA:FA:8D:3E:E5:80:FB:BB:9B:82:4E:58:AF
            X509v3 Extended Key Usage: 
                TLS Web Client Authentication
            X509v3 Key Usage: 
                Digital Signature
    Signature Algorithm: sha256WithRSAEncryption
    Signature Value:
        0d:0a:6d:99:47:1b:31:a3:85:2d:a2:ff:10:bb:df:be:e0:61:
        9f:e0:26:fe:a5:29:89:5f:8c:0f:f2:89:7a:5d:8f:37:97:56:
        a4:88:f1:ec:6c:d8:45:fb:dc:7a:7d:b1:ff:14:03:93:4c:5e:
        5b:56:8a:e8:74:30:76:63:4c:cd:67:9c:ef:bb:06:d1:4b:01:
        55:56:c0:7f:5a:b6:1b:ed:94:b5:1c:45:9e:8a:f6:62:bb:30:
        8b:5a:59:ba:6d:56:c5:e7:e9:63:aa:7b:01:a0:64:ad:26:f8:
        1f:91:77:b1:a0:06:4e:64:6e:a2:2a:8e:d5:3a:d1:ac:d6:5c:
        e9:48:a2:ab:46:38:d6:d9:35:89:c5:1f:49:d1:57:30:33:d5:
        19:4f:68:08:61:c1:7f:8b:f1:2f:63:c5:99:fd:9a:25:67:77:
        24:ea:b5:dd:bb:2a:16:f6:54:dc:c7:2b:f2:1b:df:79:f4:7b:
        14:53:c9:a8:23:5f:b7:35:c6:ae:f0:ae:28:f4:4b:3c:e9:9e:
        32:2b:bb:58:83:a8:28:6a:ec:77:5a:62:ac:80:05:61:96:f6:
        33:8e:d3:cd:9a:73:fe:fb:36:64:ef:92:58:a9:2e:b6:f8:a8:
        72:e8:05:bc:e1:99:4f:e2:31:21:c9:bf:c0:a9:2f:90:03:2c:
        24:e7:f2:4a
-----BEGIN CERTIFICATE-----
MIIDXTCCAkWgAwIBAgIRAPtCV0fkBGfydzDlI1f9dlEwDQYJKoZIhvcNAQELBQAw
FjEUMBIGA1UEAwwLdGVhbTMxOS1uZXQwHhcNMjMxMTA0MTEzNDI3WhcNMjYxMDE5
MTEzNDI3WjAZMRcwFQYDVQQDDA50ZWFtMzE5LWNsaWVudDCCASIwDQYJKoZIhvcN
AQEBBQADggEPADCCAQoCggEBAMumd/Wqx2qZkp2zI1Xo+cHlFPld/+d8nGaUQRJA
2/426EZ9a44pUvv4ZF/2ZF64OeaFfnGG7Evw6lW++fSU3ev+0LR4PHa7y8NXJlKQ
avevImNTxZCPh0rKrkqCadbvhPbX3pPZ3i3hDpYlYe2ifGwJi1snUDH8A5rRKEme
OK18VKqKYpwuphet6+ezBUpxz9/QP5sVVXjC/3+ZdvSxFx9ma3mV+HIA49kQiJ0e
dtrRdY4GJy3sg6uxYQvtFKgacxGMSVQC+4WgtCv/oIBwmwJEOsMpifGozzjsZd8a
pEpJPrV9yoEoq3RrtP4stNNb8HTPdzzG60Uy8HZdevP0bSsCAwEAAaOBojCBnzAJ
BgNVHRMEAjAAMB0GA1UdDgQWBBQw4OMFn2kcTUs8qUibLkN3nnzF7jBRBgNVHSME
SjBIgBQ1xktvnAm0ZPI/zIZ7e5VMDGV4gaEapBgwFjEUMBIGA1UEAwwLdGVhbTMx
OS1uZXSCFD2Q2IIhc1na+o0+5YD7u5uCTlivMBMGA1UdJQQMMAoGCCsGAQUFBwMC
MAsGA1UdDwQEAwIHgDANBgkqhkiG9w0BAQsFAAOCAQEADQptmUcbMaOFLaL/ELvf
vuBhn+Am/qUpiV+MD/KJel2PN5dWpIjx7GzYRfvcen2x/xQDk0xeW1aK6HQwdmNM
zWec77sG0UsBVVbAf1q2G+2UtRxFnor2Yrswi1pZum1WxefpY6p7AaBkrSb4H5F3
saAGTmRuoiqO1TrRrNZc6Uiiq0Y41tk1icUfSdFXMDPVGU9oCGHBf4vxL2PFmf2a
JWd3JOq13bsqFvZU3Mcr8hvfefR7FFPJqCNftzXGrvCuKPRLPOmeMiu7WIOoKGrs
d1pirIAFYZb2M47TzZpz/vs2ZO+SWKkutviocugFvOGZT+IxIcm/wKkvkAMsJOfy
Sg==
-----END CERTIFICATE-----
