Certificate:
    Data:
        Version: 3 (0x2)
        Serial Number:
            48:59:e3:89:eb:21:bb:ba:98:33:b6:3c:8e:3a:4a:e1
        Signature Algorithm: sha256WithRSAEncryption
        Issuer: CN=team255-net
        Validity
            Not Before: Nov  4 11:32:41 2023 GMT
            Not After : Oct 19 11:32:41 2026 GMT
        Subject: CN=team255-server
        Subject Public Key Info:
            Public Key Algorithm: rsaEncryption
                Public-Key: (2048 bit)
                Modulus:
                    00:c0:cf:fe:28:77:10:c4:48:62:b9:20:cf:ae:a0:
                    b3:44:49:52:e5:e8:ce:af:a2:fd:f2:f3:de:d2:78:
                    89:0a:44:08:8e:0e:63:5d:f6:c4:50:2a:11:ff:f5:
                    bc:37:bb:66:9d:76:85:a3:b0:3b:94:30:8a:94:29:
                    71:ad:09:19:ca:2c:8c:32:7c:12:95:77:41:fd:00:
                    a6:e0:32:14:b9:2d:73:eb:d6:59:42:cc:69:87:0c:
                    85:77:4a:5a:83:4d:1c:c3:b1:50:f2:bd:ad:15:0b:
                    47:3d:2f:bb:fe:22:5a:28:ad:c5:f0:99:c8:07:d9:
                    32:db:20:9a:0d:4f:11:07:7c:43:a1:5a:ef:a1:f3:
                    24:b7:1f:cd:d4:cc:76:3a:e8:90:c8:5b:d1:6b:db:
                    47:79:01:19:00:35:87:28:45:28:29:99:9e:1a:3f:
                    b9:d5:74:73:aa:ec:2f:04:d0:7c:c9:cb:c6:0d:0a:
                    65:70:d5:ec:85:59:9d:c8:4d:96:e5:46:fb:a8:c2:
                    80:54:b6:bd:ce:f8:93:99:0e:e6:b2:d8:28:92:fc:
                    10:e3:28:ee:27:6f:2d:c3:66:8c:99:54:fe:73:ed:
                    2f:7e:dd:21:83:72:8f:cf:11:dd:ad:bc:8c:4f:6e:
                    5d:17:1e:ec:00:76:5c:4f:9c:c4:8a:0d:54:05:02:
                    80:77
                Exponent: 65537 (0x10001)
        X509v3 extensions:
            X509v3 Basic Constraints: 
                CA:FALSE
            X509v3 Subject Key Identifier: 
                EE:A4:04:A2:99:0B:56:34:F7:1E:76:A7:5C:71:60:13:B4:D3:F8:BD
            X509v3 Authority Key Identifier: 
                keyid:B6:18:B0:CE:FE:E0:F0:CB:92:EF:26:E9:D1:9D:E9:7E:D9:95:6B:A5
                DirName:/CN=team255-net
                serial:74:31:C1:AC:0F:B9:E4:4B:00:A0:A1:86:1A:A5:2C:3B:4D:26:4E:37
            X509v3 Extended Key Usage: 
                TLS Web Server Authentication
            X509v3 Key Usage: 
                Digital Signature, Key Encipherment
            X509v3 Subject Alternative Name: 
                DNS:team255-server
    Signature Algorithm: sha256WithRSAEncryption
    Signature Value:
        76:02:e2:92:3a:e9:0a:67:45:87:f2:7d:54:a0:14:f9:b9:29:
        55:1a:23:1b:b6:c7:ea:ad:a1:c4:e6:c8:75:76:9a:f7:5c:05:
        b9:c6:b2:0e:2c:f7:03:32:d4:6a:5b:86:2a:81:2a:03:bb:2e:
        c6:0f:aa:07:02:4a:41:ef:99:83:ea:2b:0c:5d:73:0b:b9:41:
        f7:90:82:4d:17:a2:c3:05:06:7a:f2:d2:a9:f6:51:75:7c:dd:
        bf:48:3b:f3:dd:57:4d:e4:f3:bb:2c:1d:b4:90:e8:f3:bc:b4:
        08:77:7a:28:92:fd:b7:00:54:da:98:36:d9:e8:d2:6e:af:ca:
        de:d5:17:3e:93:95:83:57:79:60:e6:11:f9:d0:c1:10:99:e9:
        e7:8d:fd:fc:d4:ed:c7:ef:7c:2d:8c:da:0b:7a:00:71:e1:9c:
        bb:f3:a9:d7:b1:fd:05:80:50:f5:fa:4c:75:23:ba:c1:41:39:
        6d:4d:81:06:30:56:4e:6e:09:2e:2e:7d:ec:35:3a:3e:6d:88:
        5a:d0:54:a2:87:0a:3d:f0:63:e0:9c:01:c7:67:f4:f9:e5:92:
        4d:32:cc:93:52:26:c1:26:27:88:c5:84:1a:ea:c5:4a:a8:ff:
        b6:1f:84:d8:4f:26:54:48:48:fb:80:18:2f:81:1b:b1:5b:31:
        9f:0a:59:7a
-----BEGIN CERTIFICATE-----
MIIDdzCCAl+gAwIBAgIQSFnjieshu7qYM7Y8jjpK4TANBgkqhkiG9w0BAQsFADAW
MRQwEgYDVQQDDAt0ZWFtMjU1LW5ldDAeFw0yMzExMDQxMTMyNDFaFw0yNjEwMTkx
MTMyNDFaMBkxFzAVBgNVBAMMDnRlYW0yNTUtc2VydmVyMIIBIjANBgkqhkiG9w0B
AQEFAAOCAQ8AMIIBCgKCAQEAwM/+KHcQxEhiuSDPrqCzRElS5ejOr6L98vPe0niJ
CkQIjg5jXfbEUCoR//W8N7tmnXaFo7A7lDCKlClxrQkZyiyMMnwSlXdB/QCm4DIU
uS1z69ZZQsxphwyFd0pag00cw7FQ8r2tFQtHPS+7/iJaKK3F8JnIB9ky2yCaDU8R
B3xDoVrvofMktx/N1Mx2OuiQyFvRa9tHeQEZADWHKEUoKZmeGj+51XRzquwvBNB8
ycvGDQplcNXshVmdyE2W5Ub7qMKAVLa9zviTmQ7mstgokvwQ4yjuJ28tw2aMmVT+
c+0vft0hg3KPzxHdrbyMT25dFx7sAHZcT5zEig1UBQKAdwIDAQABo4G9MIG6MAkG
A1UdEwQCMAAwHQYDVR0OBBYEFO6kBKKZC1Y09x52p1xxYBO00/i9MFEGA1UdIwRK
MEiAFLYYsM7+4PDLku8m6dGd6X7ZlWuloRqkGDAWMRQwEgYDVQQDDAt0ZWFtMjU1
LW5ldIIUdDHBrA+55EsAoKGGGqUsO00mTjcwEwYDVR0lBAwwCgYIKwYBBQUHAwEw
CwYDVR0PBAQDAgWgMBkGA1UdEQQSMBCCDnRlYW0yNTUtc2VydmVyMA0GCSqGSIb3
DQEBCwUAA4IBAQB2AuKSOukKZ0WH8n1UoBT5uSlVGiMbtsfqraHE5sh1dpr3XAW5
xrIOLPcDMtRqW4YqgSoDuy7GD6oHAkpB75mD6isMXXMLuUH3kIJNF6LDBQZ68tKp
9lF1fN2/SDvz3VdN5PO7LB20kOjzvLQId3ookv23AFTamDbZ6NJur8re1Rc+k5WD
V3lg5hH50MEQmennjf381O3H73wtjNoLegBx4Zy786nXsf0FgFD1+kx1I7rBQTlt
TYEGMFZObgkuLn3sNTo+bYha0FSihwo98GPgnAHHZ/T55ZJNMsyTUibBJieIxYQa
6sVKqP+2H4TYTyZUSEj7gBgvgRuxWzGfCll6
-----END CERTIFICATE-----
