Certificate:
    Data:
        Version: 3 (0x2)
        Serial Number:
            a5:c6:cf:1d:1e:b8:e2:0d:c4:8b:85:fa:c0:3d:bc:9f
        Signature Algorithm: sha256WithRSAEncryption
        Issuer: CN=team255-net
        Validity
            Not Before: Nov  4 10:45:26 2023 GMT
            Not After : Oct 19 10:45:26 2026 GMT
        Subject: CN=team255-server
        Subject Public Key Info:
            Public Key Algorithm: rsaEncryption
                Public-Key: (2048 bit)
                Modulus:
                    00:b0:36:a1:28:54:15:a1:5f:0d:9a:df:fe:49:e6:
                    46:7e:a8:9c:cb:db:c5:9a:b0:62:de:05:92:15:6b:
                    7a:d7:de:3b:77:34:ae:cf:07:aa:43:26:56:4f:fb:
                    64:3b:9a:1f:41:b1:3f:e4:62:63:e6:ae:91:b2:84:
                    27:dd:80:b2:04:f7:d9:fb:d8:6f:bd:a1:05:8b:19:
                    e7:78:32:de:67:82:07:d4:00:b6:6c:cd:c7:ca:d7:
                    f3:d0:2b:29:fc:09:44:24:12:2b:88:40:9d:85:41:
                    79:7d:44:b1:e2:ae:3d:88:80:de:82:19:6c:73:b9:
                    ab:98:93:36:6a:30:e4:bf:a6:79:5f:60:bf:78:4d:
                    73:68:4d:f0:af:49:55:70:ea:f5:3b:56:79:c3:d5:
                    70:b9:f5:16:6d:8b:bb:00:db:7a:8a:84:61:4d:10:
                    4c:f3:7a:a0:0a:ac:20:96:ff:0d:2c:f8:86:f5:9f:
                    60:30:9e:11:35:4f:70:b9:1a:a6:4b:76:d2:4d:a7:
                    16:02:2b:ed:5d:ee:73:3a:b5:a0:5e:78:36:fd:95:
                    7e:37:00:91:fc:8f:d2:fb:3d:dc:bc:1e:bd:ea:25:
                    db:ae:57:f4:ea:b4:a0:36:ad:7a:7b:e5:1b:4a:61:
                    a3:c9:c5:0d:ea:57:95:4f:34:17:b1:a3:b2:0e:ba:
                    99:9f
                Exponent: 65537 (0x10001)
        X509v3 extensions:
            X509v3 Basic Constraints: 
                CA:FALSE
            X509v3 Subject Key Identifier: 
                84:A1:0E:8F:16:15:19:8A:BB:07:12:AB:E4:1C:3B:4B:B0:1D:46:BE
            X509v3 Authority Key Identifier: 
                keyid:9A:FB:66:BE:20:FF:F8:B9:53:0A:FD:75:06:1B:B1:41:82:C9:F5:A4
                DirName:/CN=team255-net
                serial:11:87:6D:D9:C4:51:4D:B4:84:D5:9B:65:52:AB:E7:EC:FC:B0:80:BD
            X509v3 Extended Key Usage: 
                TLS Web Server Authentication
            X509v3 Key Usage: 
                Digital Signature, Key Encipherment
            X509v3 Subject Alternative Name: 
                DNS:team255-server
    Signature Algorithm: sha256WithRSAEncryption
    Signature Value:
        74:0d:95:54:9d:8c:c1:cf:ce:4d:06:38:d3:b1:23:0a:7c:27:
        29:1a:d6:08:9a:99:e9:4a:04:65:ed:c4:8b:a1:b9:de:9a:7f:
        c6:c6:8b:8b:a6:b1:2e:ba:cf:c2:dd:14:1a:ad:ce:54:7e:ae:
        4a:a0:e2:dc:11:ca:cc:88:31:66:b9:ad:3d:2a:95:f6:4e:8e:
        ac:bc:d3:60:de:23:6a:d8:b4:31:06:ac:3a:1f:f0:e0:8a:c2:
        f6:73:ac:a4:d2:4e:59:ed:97:5d:9c:d2:23:ea:06:76:a2:16:
        4a:98:d4:af:28:bf:66:bb:08:2e:ce:62:b4:98:82:68:7c:a5:
        d4:0f:dd:e2:c6:54:86:50:90:92:7a:94:95:dc:64:9a:a4:0d:
        08:c0:2d:88:41:9a:5c:e9:cb:24:36:34:1f:94:e9:de:9e:c6:
        4c:b3:a8:56:6a:79:60:2c:12:ba:d4:de:00:04:6c:23:f6:45:
        b5:15:77:a8:d9:b7:b6:ab:51:f3:91:0a:90:d1:ca:6c:54:9a:
        31:fd:dd:51:b2:d2:e9:bd:1a:a5:7a:3d:ea:58:94:4e:46:17:
        5a:ff:47:d7:cc:ca:d6:38:04:69:44:27:19:c5:36:92:b4:02:
        bf:33:7d:a1:66:c8:b8:ea:31:26:0b:55:7c:5d:64:3a:58:49:
        a3:9c:c3:a6
-----BEGIN CERTIFICATE-----
MIIDeDCCAmCgAwIBAgIRAKXGzx0euOINxIuF+sA9vJ8wDQYJKoZIhvcNAQELBQAw
FjEUMBIGA1UEAwwLdGVhbTI1NS1uZXQwHhcNMjMxMTA0MTA0NTI2WhcNMjYxMDE5
MTA0NTI2WjAZMRcwFQYDVQQDDA50ZWFtMjU1LXNlcnZlcjCCASIwDQYJKoZIhvcN
AQEBBQADggEPADCCAQoCggEBALA2oShUFaFfDZrf/knmRn6onMvbxZqwYt4FkhVr
etfeO3c0rs8HqkMmVk/7ZDuaH0GxP+RiY+aukbKEJ92AsgT32fvYb72hBYsZ53gy
3meCB9QAtmzNx8rX89ArKfwJRCQSK4hAnYVBeX1EseKuPYiA3oIZbHO5q5iTNmow
5L+meV9gv3hNc2hN8K9JVXDq9TtWecPVcLn1Fm2LuwDbeoqEYU0QTPN6oAqsIJb/
DSz4hvWfYDCeETVPcLkapkt20k2nFgIr7V3uczq1oF54Nv2VfjcAkfyP0vs93Lwe
veol265X9Oq0oDatenvlG0pho8nFDepXlU80F7Gjsg66mZ8CAwEAAaOBvTCBujAJ
BgNVHRMEAjAAMB0GA1UdDgQWBBSEoQ6PFhUZirsHEqvkHDtLsB1GvjBRBgNVHSME
SjBIgBSa+2a+IP/4uVMK/XUGG7FBgsn1pKEapBgwFjEUMBIGA1UEAwwLdGVhbTI1
NS1uZXSCFBGHbdnEUU20hNWbZVKr5+z8sIC9MBMGA1UdJQQMMAoGCCsGAQUFBwMB
MAsGA1UdDwQEAwIFoDAZBgNVHREEEjAQgg50ZWFtMjU1LXNlcnZlcjANBgkqhkiG
9w0BAQsFAAOCAQEAdA2VVJ2Mwc/OTQY407EjCnwnKRrWCJqZ6UoEZe3Ei6G53pp/
xsaLi6axLrrPwt0UGq3OVH6uSqDi3BHKzIgxZrmtPSqV9k6OrLzTYN4jati0MQas
Oh/w4IrC9nOspNJOWe2XXZzSI+oGdqIWSpjUryi/ZrsILs5itJiCaHyl1A/d4sZU
hlCQknqUldxkmqQNCMAtiEGaXOnLJDY0H5Tp3p7GTLOoVmp5YCwSutTeAARsI/ZF
tRV3qNm3tqtR85EKkNHKbFSaMf3dUbLS6b0apXo96liUTkYXWv9H18zK1jgEaUQn
GcU2krQCvzN9oWbIuOoxJgtVfF1kOlhJo5zDpg==
-----END CERTIFICATE-----
