Certificate:
    Data:
        Version: 3 (0x2)
        Serial Number:
            12:c1:35:45:ab:96:57:09:23:bd:83:6f:c5:8e:7c:5b
        Signature Algorithm: sha256WithRSAEncryption
        Issuer: CN=team259-net
        Validity
            Not Before: Nov  3 20:44:03 2023 GMT
            Not After : Oct 18 20:44:03 2026 GMT
        Subject: CN=team259-client
        Subject Public Key Info:
            Public Key Algorithm: rsaEncryption
                Public-Key: (2048 bit)
                Modulus:
                    00:9f:47:f9:75:63:50:87:dd:ce:9c:45:61:2d:c2:
                    d6:19:05:91:dc:95:c6:fb:0e:79:e9:ae:7e:8a:be:
                    22:05:d4:b4:66:67:d9:fd:7d:b9:b1:1b:04:31:71:
                    55:3d:b7:d0:f3:ec:52:b8:b8:d6:3f:3d:ea:2b:3a:
                    bc:75:93:f1:59:11:cf:21:ef:8d:c9:a9:b0:23:38:
                    f2:5e:97:dd:0e:b5:d3:e0:5a:d0:ee:fb:9b:4d:29:
                    70:78:e0:2f:f2:1f:40:17:eb:50:40:6d:0f:29:38:
                    48:3f:8c:59:28:40:9f:ee:8c:aa:74:7d:98:1b:0a:
                    a6:49:f0:8b:e3:e1:ca:4f:b7:b2:f0:f1:bb:05:9c:
                    ff:50:cb:8c:cd:cf:d6:d5:fa:50:7a:f8:57:43:1f:
                    61:3d:42:a7:5d:53:36:56:1c:00:e2:0d:1a:78:87:
                    7c:67:61:f6:f2:fd:71:10:cd:e0:57:aa:8d:85:e6:
                    3e:87:5a:6a:68:74:03:a7:98:45:64:ed:01:b8:6e:
                    79:c1:17:0f:49:17:12:a4:44:7f:83:2b:ca:b8:8f:
                    ce:25:0a:b9:7b:5f:4a:af:fe:cd:e7:79:15:1c:40:
                    6f:39:4e:c4:cb:35:a0:12:31:c6:3e:f3:f3:73:2d:
                    ad:de:1d:be:46:ba:78:00:7d:d1:f5:dd:78:fc:63:
                    64:f7
                Exponent: 65537 (0x10001)
        X509v3 extensions:
            X509v3 Basic Constraints: 
                CA:FALSE
            X509v3 Subject Key Identifier: 
                48:C8:54:FB:70:99:F9:6F:34:03:23:E6:12:26:6A:8F:F5:7E:05:97
            X509v3 Authority Key Identifier: 
                keyid:52:11:38:11:24:4B:15:55:11:CE:AD:5C:B7:36:6A:43:84:40:6D:10
                DirName:/CN=team259-net
                serial:0E:C9:1F:39:61:DD:A4:0F:DB:D1:D1:1F:C8:D7:5A:79:74:2B:05:69
            X509v3 Extended Key Usage: 
                TLS Web Client Authentication
            X509v3 Key Usage: 
                Digital Signature
    Signature Algorithm: sha256WithRSAEncryption
    Signature Value:
        59:c2:00:92:ae:73:7c:6e:b8:1d:2b:62:fa:a1:ec:39:f3:4f:
        0a:96:e3:74:0e:98:a6:c6:63:1a:fd:b2:9c:3c:2d:cc:eb:85:
        76:06:dd:54:fe:b9:5d:2b:19:e5:7d:34:79:ec:eb:dd:75:96:
        2a:c1:96:89:4a:b1:73:4b:fc:1e:b5:dc:7a:67:c9:42:71:dc:
        38:0d:4a:94:76:a1:eb:78:79:06:28:0b:e7:d1:2f:9d:c0:eb:
        b7:13:bd:1e:ca:98:3d:33:8f:87:39:30:00:e4:69:3e:3d:70:
        de:74:d9:6f:42:27:1f:5d:af:40:e7:ec:00:a7:59:24:5e:62:
        02:f7:02:60:e6:bb:a8:0c:ce:ab:3c:00:40:f2:ab:c8:e8:30:
        bb:e1:4e:fd:b1:b5:1b:4f:f5:ba:60:27:d7:6e:39:87:1a:30:
        a7:24:59:f6:41:f2:df:00:73:0a:cb:cc:9b:77:52:b1:a5:14:
        cf:2d:4e:fa:cc:05:9a:99:29:61:8f:a3:4c:3a:f2:01:97:7c:
        ca:49:af:6d:33:89:66:7a:2d:44:71:e8:50:b9:13:17:73:eb:
        60:61:5f:26:74:ae:d2:78:a2:96:b5:71:f6:64:c9:32:9d:80:
        6e:1d:25:d7:53:5b:2f:e5:40:b4:17:ed:b0:0f:09:bd:bf:a3:
        2f:7e:3e:b7
-----BEGIN CERTIFICATE-----
MIIDXDCCAkSgAwIBAgIQEsE1RauWVwkjvYNvxY58WzANBgkqhkiG9w0BAQsFADAW
MRQwEgYDVQQDDAt0ZWFtMjU5LW5ldDAeFw0yMzExMDMyMDQ0MDNaFw0yNjEwMTgy
MDQ0MDNaMBkxFzAVBgNVBAMMDnRlYW0yNTktY2xpZW50MIIBIjANBgkqhkiG9w0B
AQEFAAOCAQ8AMIIBCgKCAQEAn0f5dWNQh93OnEVhLcLWGQWR3JXG+w556a5+ir4i
BdS0ZmfZ/X25sRsEMXFVPbfQ8+xSuLjWPz3qKzq8dZPxWRHPIe+NyamwIzjyXpfd
DrXT4FrQ7vubTSlweOAv8h9AF+tQQG0PKThIP4xZKECf7oyqdH2YGwqmSfCL4+HK
T7ey8PG7BZz/UMuMzc/W1fpQevhXQx9hPUKnXVM2VhwA4g0aeId8Z2H28v1xEM3g
V6qNheY+h1pqaHQDp5hFZO0BuG55wRcPSRcSpER/gyvKuI/OJQq5e19Kr/7N53kV
HEBvOU7EyzWgEjHGPvPzcy2t3h2+Rrp4AH3R9d14/GNk9wIDAQABo4GiMIGfMAkG
A1UdEwQCMAAwHQYDVR0OBBYEFEjIVPtwmflvNAMj5hImao/1fgWXMFEGA1UdIwRK
MEiAFFIROBEkSxVVEc6tXLc2akOEQG0QoRqkGDAWMRQwEgYDVQQDDAt0ZWFtMjU5
LW5ldIIUDskfOWHdpA/b0dEfyNdaeXQrBWkwEwYDVR0lBAwwCgYIKwYBBQUHAwIw
CwYDVR0PBAQDAgeAMA0GCSqGSIb3DQEBCwUAA4IBAQBZwgCSrnN8brgdK2L6oew5
808KluN0DpimxmMa/bKcPC3M64V2Bt1U/rldKxnlfTR57OvddZYqwZaJSrFzS/we
tdx6Z8lCcdw4DUqUdqHreHkGKAvn0S+dwOu3E70eypg9M4+HOTAA5Gk+PXDedNlv
QicfXa9A5+wAp1kkXmIC9wJg5ruoDM6rPABA8qvI6DC74U79sbUbT/W6YCfXbjmH
GjCnJFn2QfLfAHMKy8ybd1KxpRTPLU76zAWamSlhj6NMOvIBl3zKSa9tM4lmei1E
cehQuRMXc+tgYV8mdK7SeKKWtXH2ZMkynYBuHSXXU1sv5UC0F+2wDwm9v6Mvfj63
-----END CERTIFICATE-----
