Certificate:
    Data:
        Version: 3 (0x2)
        Serial Number:
            14:ea:ad:2a:46:8b:66:ef:30:28:74:cd:c1:68:c1:26
        Signature Algorithm: sha256WithRSAEncryption
        Issuer: CN=team24-net
        Validity
            Not Before: Nov  4 11:27:49 2023 GMT
            Not After : Oct 19 11:27:49 2026 GMT
        Subject: CN=team24-client
        Subject Public Key Info:
            Public Key Algorithm: rsaEncryption
                Public-Key: (2048 bit)
                Modulus:
                    00:e4:72:c1:81:8b:93:ce:3b:45:55:5b:a1:af:ea:
                    40:5f:3c:63:2d:30:37:a4:06:c1:0c:a5:76:55:69:
                    76:4e:0b:5b:e7:bd:a3:b5:69:6e:f5:60:58:9e:d5:
                    b3:e3:b2:e7:c8:cc:98:32:d9:14:d0:c5:03:ef:a2:
                    8e:7e:a2:df:bd:eb:f8:21:33:1e:cd:80:33:46:f8:
                    33:35:33:60:c9:f8:64:af:8f:09:bf:a5:81:cd:27:
                    c7:e9:23:94:34:47:8c:4c:a7:44:c5:2c:c9:c7:08:
                    46:a2:73:2d:3e:92:b6:f6:77:7a:11:68:8d:31:32:
                    dd:c2:fc:53:2c:f0:d5:c3:6b:bf:e5:0f:77:64:cc:
                    0e:88:c5:ff:83:c4:29:9f:61:71:19:4c:ad:f2:d7:
                    83:08:8e:9f:5e:07:73:99:b8:56:ae:c6:bc:23:92:
                    a7:6e:0b:cc:64:73:7d:74:f1:07:73:69:cb:62:16:
                    21:09:d6:55:8f:45:5b:d2:2a:31:26:8a:02:4f:d9:
                    47:c7:9c:d3:16:f2:df:76:1f:d1:17:c8:ab:17:03:
                    37:7f:2a:1e:8e:1e:4d:b2:1c:a9:08:da:de:fb:0b:
                    90:e3:3b:c3:9d:1d:1d:d4:05:71:db:39:47:a4:3d:
                    21:24:29:17:75:0a:de:bf:4b:41:0b:1e:f5:30:49:
                    bc:d7
                Exponent: 65537 (0x10001)
        X509v3 extensions:
            X509v3 Basic Constraints: 
                CA:FALSE
            X509v3 Subject Key Identifier: 
                D3:A6:A5:5C:29:9A:B4:AF:6B:08:4D:61:0E:3E:0C:45:EA:04:B1:D8
            X509v3 Authority Key Identifier: 
                keyid:AC:7A:79:BF:8C:22:C2:B6:AF:A3:17:0B:C4:12:00:A8:69:8B:EA:04
                DirName:/CN=team24-net
                serial:1B:95:2C:CE:F1:C4:D4:9F:33:EB:95:0F:AB:5B:5E:E5:66:44:14:D9
            X509v3 Extended Key Usage: 
                TLS Web Client Authentication
            X509v3 Key Usage: 
                Digital Signature
    Signature Algorithm: sha256WithRSAEncryption
    Signature Value:
        73:a1:b3:bf:c8:ce:7c:e2:17:79:c6:18:61:11:1c:6d:c2:f6:
        36:5d:18:24:6f:6b:49:fc:f5:4a:30:74:1c:68:dc:a1:95:de:
        35:ae:53:3d:68:e5:bd:aa:b5:67:98:22:e0:5d:86:a1:c4:96:
        0b:7b:d5:8a:05:dc:86:5e:49:f2:a7:a3:02:26:8c:98:b4:d5:
        2a:60:f9:d0:56:1c:51:a7:8a:39:ec:b5:a2:0a:13:7a:76:18:
        f8:c5:e1:bf:e2:ed:1b:32:92:0c:54:86:d2:bf:27:52:6d:91:
        f1:12:af:3d:54:eb:8d:b9:f2:a6:c1:05:ef:5c:e8:7c:b9:d6:
        b8:76:a4:4c:da:33:b6:6a:01:64:1c:33:53:24:c1:4a:04:4d:
        de:a2:e6:b9:d3:51:cb:b0:a6:ea:39:f7:dc:b9:1d:7f:86:19:
        37:98:35:f8:e0:8e:c9:bf:78:a6:7d:5b:87:ae:c5:7c:95:93:
        14:e3:60:93:b8:69:88:79:23:f7:50:90:96:6d:3a:88:fb:42:
        af:1a:68:d1:99:8e:34:d7:86:67:37:b1:b7:4a:52:1e:5f:2b:
        e5:9f:38:c4:40:b1:18:fb:0b:6e:a6:57:8a:58:37:67:ad:6f:
        83:0a:2e:33:52:35:b4:a3:0e:9a:63:a1:86:66:27:24:25:5c:
        0d:ab:47:38
-----BEGIN CERTIFICATE-----
MIIDWTCCAkGgAwIBAgIQFOqtKkaLZu8wKHTNwWjBJjANBgkqhkiG9w0BAQsFADAV
MRMwEQYDVQQDDAp0ZWFtMjQtbmV0MB4XDTIzMTEwNDExMjc0OVoXDTI2MTAxOTEx
Mjc0OVowGDEWMBQGA1UEAwwNdGVhbTI0LWNsaWVudDCCASIwDQYJKoZIhvcNAQEB
BQADggEPADCCAQoCggEBAORywYGLk847RVVboa/qQF88Yy0wN6QGwQyldlVpdk4L
W+e9o7VpbvVgWJ7Vs+Oy58jMmDLZFNDFA++ijn6i373r+CEzHs2AM0b4MzUzYMn4
ZK+PCb+lgc0nx+kjlDRHjEynRMUsyccIRqJzLT6StvZ3ehFojTEy3cL8Uyzw1cNr
v+UPd2TMDojF/4PEKZ9hcRlMrfLXgwiOn14Hc5m4Vq7GvCOSp24LzGRzfXTxB3Np
y2IWIQnWVY9FW9IqMSaKAk/ZR8ec0xby33Yf0RfIqxcDN38qHo4eTbIcqQja3vsL
kOM7w50dHdQFcds5R6Q9ISQpF3UK3r9LQQse9TBJvNcCAwEAAaOBoTCBnjAJBgNV
HRMEAjAAMB0GA1UdDgQWBBTTpqVcKZq0r2sITWEOPgxF6gSx2DBQBgNVHSMESTBH
gBSsenm/jCLCtq+jFwvEEgCoaYvqBKEZpBcwFTETMBEGA1UEAwwKdGVhbTI0LW5l
dIIUG5UszvHE1J8z65UPq1te5WZEFNkwEwYDVR0lBAwwCgYIKwYBBQUHAwIwCwYD
VR0PBAQDAgeAMA0GCSqGSIb3DQEBCwUAA4IBAQBzobO/yM584hd5xhhhERxtwvY2
XRgkb2tJ/PVKMHQcaNyhld41rlM9aOW9qrVnmCLgXYahxJYLe9WKBdyGXknyp6MC
JoyYtNUqYPnQVhxRp4o57LWiChN6dhj4xeG/4u0bMpIMVIbSvydSbZHxEq89VOuN
ufKmwQXvXOh8uda4dqRM2jO2agFkHDNTJMFKBE3eoua501HLsKbqOffcuR1/hhk3
mDX44I7Jv3imfVuHrsV8lZMU42CTuGmIeSP3UJCWbTqI+0KvGmjRmY4014ZnN7G3
SlIeXyvlnzjEQLEY+wtupleKWDdnrW+DCi4zUjW0ow6aY6GGZickJVwNq0c4
-----END CERTIFICATE-----
