Certificate:
    Data:
        Version: 3 (0x2)
        Serial Number:
            44:7a:a8:96:4f:4c:49:d3:17:99:54:f8:c0:eb:4e:a0
        Signature Algorithm: sha256WithRSAEncryption
        Issuer: CN=team24-net
        Validity
            Not Before: Nov  4 11:27:49 2023 GMT
            Not After : Oct 19 11:27:49 2026 GMT
        Subject: CN=team24-server
        Subject Public Key Info:
            Public Key Algorithm: rsaEncryption
                Public-Key: (2048 bit)
                Modulus:
                    00:c6:90:04:a7:1f:6e:0d:9c:32:84:40:7e:f6:5f:
                    9b:cc:0e:a5:91:36:f5:d2:c4:31:3c:d9:59:42:43:
                    9c:a2:d3:a0:97:c6:c4:43:7d:14:63:1c:bb:4d:15:
                    af:cf:a5:ca:54:ce:62:d6:0a:57:9f:33:98:8a:69:
                    90:b8:1f:27:bb:22:05:46:97:33:4d:ab:a4:bb:b6:
                    c9:56:83:60:84:56:24:3b:49:00:a9:5a:9e:85:20:
                    c6:b7:f8:fd:ce:1d:18:12:37:37:dd:5b:6e:52:ed:
                    39:5e:95:f8:07:9f:cd:99:7e:09:d6:ec:a6:fc:0e:
                    10:c8:07:2a:eb:10:87:2b:17:85:a5:24:ad:0e:26:
                    50:52:a4:e0:d9:26:a5:9f:9e:f6:dd:d8:50:74:8f:
                    fc:62:47:67:13:12:64:f2:d1:79:d2:59:19:8b:c5:
                    b1:b6:af:9e:85:5f:eb:f5:94:5a:75:6a:29:47:f5:
                    31:c0:08:12:fa:aa:42:4b:7a:b0:44:44:c7:f6:4b:
                    7a:9e:b0:9d:27:c4:c5:c0:c5:57:dc:5b:24:cf:00:
                    6d:e1:8d:49:04:cd:23:0e:47:69:37:a3:7e:9d:23:
                    76:be:ed:df:15:a1:3d:44:66:80:62:d1:5c:19:cc:
                    cd:c2:48:f1:6a:5e:f9:8c:2f:70:5a:c1:2f:a1:0c:
                    a6:69
                Exponent: 65537 (0x10001)
        X509v3 extensions:
            X509v3 Basic Constraints: 
                CA:FALSE
            X509v3 Subject Key Identifier: 
                D4:17:BC:6C:41:00:04:D7:47:16:44:6D:8D:E7:87:9F:3A:93:76:DD
            X509v3 Authority Key Identifier: 
                keyid:AC:7A:79:BF:8C:22:C2:B6:AF:A3:17:0B:C4:12:00:A8:69:8B:EA:04
                DirName:/CN=team24-net
                serial:1B:95:2C:CE:F1:C4:D4:9F:33:EB:95:0F:AB:5B:5E:E5:66:44:14:D9
            X509v3 Extended Key Usage: 
                TLS Web Server Authentication
            X509v3 Key Usage: 
                Digital Signature, Key Encipherment
            X509v3 Subject Alternative Name: 
                DNS:team24-server
    Signature Algorithm: sha256WithRSAEncryption
    Signature Value:
        43:42:3c:99:c6:06:af:e2:2c:fc:48:bd:f2:60:12:67:e5:c4:
        c4:8e:43:3b:05:67:20:85:55:03:fe:a7:24:ac:47:de:0b:d7:
        40:7f:66:2a:ba:a0:bb:65:41:b3:5c:01:43:61:fd:b9:25:18:
        3a:c9:2b:a9:d9:d5:b9:dc:50:e7:1c:53:13:06:20:c3:4f:29:
        80:d0:51:d2:3b:8f:20:92:b5:1d:7d:71:06:6e:a7:98:42:7d:
        1a:41:8b:ae:3a:e6:23:98:11:4d:ae:85:0e:1e:c6:68:ba:c5:
        2f:eb:ac:ae:f8:32:dc:26:66:63:9b:e2:c2:c7:6d:13:83:3b:
        a1:75:fb:3b:e7:b6:73:dc:a7:e8:f1:ea:c0:67:d2:fc:c4:3d:
        a3:18:13:a1:a3:80:07:b6:f7:ea:d1:fe:73:7d:ef:1f:c6:71:
        62:55:1f:14:96:15:3f:f7:c4:01:a5:33:10:83:d3:ec:8c:8b:
        66:77:bb:74:4d:26:ec:cc:01:8e:2f:9d:91:9c:cd:90:ad:d3:
        0f:b8:30:01:cd:90:95:45:a4:63:b1:65:2a:61:10:70:13:ad:
        8b:35:b4:56:f5:e8:5f:2b:39:c9:cc:37:9e:f1:61:76:2e:5e:
        f7:2b:05:e7:fe:a2:32:73:1e:3d:81:9d:bc:20:e1:74:24:56:
        63:c0:14:7e
-----BEGIN CERTIFICATE-----
MIIDczCCAlugAwIBAgIQRHqolk9MSdMXmVT4wOtOoDANBgkqhkiG9w0BAQsFADAV
MRMwEQYDVQQDDAp0ZWFtMjQtbmV0MB4XDTIzMTEwNDExMjc0OVoXDTI2MTAxOTEx
Mjc0OVowGDEWMBQGA1UEAwwNdGVhbTI0LXNlcnZlcjCCASIwDQYJKoZIhvcNAQEB
BQADggEPADCCAQoCggEBAMaQBKcfbg2cMoRAfvZfm8wOpZE29dLEMTzZWUJDnKLT
oJfGxEN9FGMcu00Vr8+lylTOYtYKV58zmIppkLgfJ7siBUaXM02rpLu2yVaDYIRW
JDtJAKlanoUgxrf4/c4dGBI3N91bblLtOV6V+AefzZl+CdbspvwOEMgHKusQhysX
haUkrQ4mUFKk4NkmpZ+e9t3YUHSP/GJHZxMSZPLRedJZGYvFsbavnoVf6/WUWnVq
KUf1McAIEvqqQkt6sEREx/ZLep6wnSfExcDFV9xbJM8AbeGNSQTNIw5HaTejfp0j
dr7t3xWhPURmgGLRXBnMzcJI8Wpe+YwvcFrBL6EMpmkCAwEAAaOBuzCBuDAJBgNV
HRMEAjAAMB0GA1UdDgQWBBTUF7xsQQAE10cWRG2N54efOpN23TBQBgNVHSMESTBH
gBSsenm/jCLCtq+jFwvEEgCoaYvqBKEZpBcwFTETMBEGA1UEAwwKdGVhbTI0LW5l
dIIUG5UszvHE1J8z65UPq1te5WZEFNkwEwYDVR0lBAwwCgYIKwYBBQUHAwEwCwYD
VR0PBAQDAgWgMBgGA1UdEQQRMA+CDXRlYW0yNC1zZXJ2ZXIwDQYJKoZIhvcNAQEL
BQADggEBAENCPJnGBq/iLPxIvfJgEmflxMSOQzsFZyCFVQP+pySsR94L10B/Ziq6
oLtlQbNcAUNh/bklGDrJK6nZ1bncUOccUxMGIMNPKYDQUdI7jyCStR19cQZup5hC
fRpBi6465iOYEU2uhQ4exmi6xS/rrK74MtwmZmOb4sLHbRODO6F1+zvntnPcp+jx
6sBn0vzEPaMYE6GjgAe29+rR/nN97x/GcWJVHxSWFT/3xAGlMxCD0+yMi2Z3u3RN
JuzMAY4vnZGczZCt0w+4MAHNkJVFpGOxZSphEHATrYs1tFb16F8rOcnMN57xYXYu
XvcrBef+ojJzHj2Bnbwg4XQkVmPAFH4=
-----END CERTIFICATE-----
