Certificate:
    Data:
        Version: 3 (0x2)
        Serial Number:
            e1:7e:1c:37:c1:11:8c:e1:bf:43:c4:b8:a7:ff:4e:e5
        Signature Algorithm: sha256WithRSAEncryption
        Issuer: CN=team24-net
        Validity
            Not Before: Nov  4 10:40:41 2023 GMT
            Not After : Oct 19 10:40:41 2026 GMT
        Subject: CN=team24-server
        Subject Public Key Info:
            Public Key Algorithm: rsaEncryption
                Public-Key: (2048 bit)
                Modulus:
                    00:bd:a2:fc:0c:ab:59:ed:d2:8f:73:40:70:e5:26:
                    2f:29:1a:8f:4e:18:a5:d5:72:75:dd:f0:fa:ff:69:
                    d7:33:ef:cd:6b:2c:eb:e3:25:f2:a9:44:2b:cd:47:
                    f1:4f:45:1e:36:1c:ad:b8:3b:c8:a9:d1:28:d6:08:
                    ab:61:99:df:fe:70:97:36:cd:b0:30:b7:ea:c8:72:
                    2e:7c:2e:ee:cc:e2:07:eb:85:61:be:30:7b:d2:18:
                    eb:b8:48:8c:23:25:35:0c:09:e9:1b:77:4c:af:6d:
                    40:b1:4c:d2:ea:ed:c7:c7:e8:16:9f:c2:0c:50:9f:
                    c4:d7:91:2b:0f:3c:50:b4:91:46:c4:39:1d:ec:27:
                    d7:eb:47:cc:eb:6e:56:2d:da:bb:17:24:86:c0:84:
                    e9:d3:1b:ad:65:08:cb:2a:fc:5a:a2:1d:60:b1:96:
                    17:87:5e:6d:17:57:b7:d0:a3:82:76:0f:3d:f2:45:
                    bb:5c:aa:6a:fe:9f:f7:60:b0:27:37:64:21:e7:48:
                    26:f3:54:ac:76:14:27:7f:49:61:19:bf:ba:6f:8a:
                    70:2d:a3:27:c4:7f:53:82:e1:c6:e6:a3:21:30:60:
                    e3:a1:aa:9a:6e:2a:98:d9:c8:a2:31:38:10:92:cc:
                    3f:76:cc:6e:ac:92:57:f4:bc:a2:97:d9:6f:1b:aa:
                    69:07
                Exponent: 65537 (0x10001)
        X509v3 extensions:
            X509v3 Basic Constraints: 
                CA:FALSE
            X509v3 Subject Key Identifier: 
                8D:CC:87:78:32:9D:94:CD:98:05:94:49:35:40:0D:08:B0:0D:44:A7
            X509v3 Authority Key Identifier: 
                keyid:D5:81:3C:CB:DD:9D:CC:43:63:22:D6:FC:EB:1E:4B:0A:7B:EA:F9:74
                DirName:/CN=team24-net
                serial:4D:F9:FE:B0:05:F4:41:A4:4A:69:4F:23:72:EC:E6:C8:8A:E5:8F:7F
            X509v3 Extended Key Usage: 
                TLS Web Server Authentication
            X509v3 Key Usage: 
                Digital Signature, Key Encipherment
            X509v3 Subject Alternative Name: 
                DNS:team24-server
    Signature Algorithm: sha256WithRSAEncryption
    Signature Value:
        70:c6:cf:8b:56:03:b4:4b:34:03:dc:5c:d1:da:7d:63:cf:1f:
        b6:f0:f0:e6:d5:c9:c4:0d:73:92:f3:b4:19:49:6f:46:79:5a:
        da:ff:91:58:7f:ce:6d:53:fd:e3:14:7e:0b:e0:1a:5e:fe:9d:
        09:e8:d9:3b:aa:9b:80:20:1e:84:09:f7:05:f2:dd:90:6e:57:
        d1:46:5c:0b:3a:62:22:cb:34:ff:35:81:e4:be:47:d9:2a:08:
        b9:6a:84:b4:cf:1b:84:64:e1:3f:cb:ae:3a:b9:80:e1:cc:cb:
        39:39:c6:3e:7c:cf:64:71:8e:dd:bf:92:5d:4e:a0:ea:02:56:
        7e:77:0d:c6:1d:df:e9:9d:50:8e:2c:91:34:24:66:59:3b:84:
        64:7e:7d:11:b9:dc:26:48:15:eb:5b:00:c3:79:7f:53:98:6a:
        79:b0:56:a5:ef:a6:ea:c0:66:9b:d9:b6:14:4e:ec:ce:a2:16:
        51:e1:87:2e:31:a3:12:2f:d9:83:44:9c:4d:f1:37:1f:1e:02:
        5f:ce:5f:d4:1a:85:5a:72:ed:c2:ea:83:5c:bd:0b:9f:e3:c7:
        b8:4d:0d:91:9c:d6:87:bc:83:bf:26:a4:a9:dd:82:99:32:1f:
        c3:c6:61:e9:66:d1:d6:e1:cb:42:74:dd:bb:de:2c:9c:d7:cf:
        d2:2b:7d:58
-----BEGIN CERTIFICATE-----
MIIDdDCCAlygAwIBAgIRAOF+HDfBEYzhv0PEuKf/TuUwDQYJKoZIhvcNAQELBQAw
FTETMBEGA1UEAwwKdGVhbTI0LW5ldDAeFw0yMzExMDQxMDQwNDFaFw0yNjEwMTkx
MDQwNDFaMBgxFjAUBgNVBAMMDXRlYW0yNC1zZXJ2ZXIwggEiMA0GCSqGSIb3DQEB
AQUAA4IBDwAwggEKAoIBAQC9ovwMq1nt0o9zQHDlJi8pGo9OGKXVcnXd8Pr/adcz
781rLOvjJfKpRCvNR/FPRR42HK24O8ip0SjWCKthmd/+cJc2zbAwt+rIci58Lu7M
4gfrhWG+MHvSGOu4SIwjJTUMCekbd0yvbUCxTNLq7cfH6BafwgxQn8TXkSsPPFC0
kUbEOR3sJ9frR8zrblYt2rsXJIbAhOnTG61lCMsq/FqiHWCxlheHXm0XV7fQo4J2
Dz3yRbtcqmr+n/dgsCc3ZCHnSCbzVKx2FCd/SWEZv7pvinAtoyfEf1OC4cbmoyEw
YOOhqppuKpjZyKIxOBCSzD92zG6sklf0vKKX2W8bqmkHAgMBAAGjgbswgbgwCQYD
VR0TBAIwADAdBgNVHQ4EFgQUjcyHeDKdlM2YBZRJNUANCLANRKcwUAYDVR0jBEkw
R4AU1YE8y92dzENjItb86x5LCnvq+XShGaQXMBUxEzARBgNVBAMMCnRlYW0yNC1u
ZXSCFE35/rAF9EGkSmlPI3Ls5siK5Y9/MBMGA1UdJQQMMAoGCCsGAQUFBwMBMAsG
A1UdDwQEAwIFoDAYBgNVHREEETAPgg10ZWFtMjQtc2VydmVyMA0GCSqGSIb3DQEB
CwUAA4IBAQBwxs+LVgO0SzQD3FzR2n1jzx+28PDm1cnEDXOS87QZSW9GeVra/5FY
f85tU/3jFH4L4Bpe/p0J6Nk7qpuAIB6ECfcF8t2QblfRRlwLOmIiyzT/NYHkvkfZ
Kgi5aoS0zxuEZOE/y646uYDhzMs5OcY+fM9kcY7dv5JdTqDqAlZ+dw3GHd/pnVCO
LJE0JGZZO4Rkfn0RudwmSBXrWwDDeX9TmGp5sFal76bqwGab2bYUTuzOohZR4Ycu
MaMSL9mDRJxN8TcfHgJfzl/UGoVacu3C6oNcvQuf48e4TQ2RnNaHvIO/JqSp3YKZ
Mh/DxmHpZtHW4ctCdN273iyc18/SK31Y
-----END CERTIFICATE-----
