Certificate:
    Data:
        Version: 3 (0x2)
        Serial Number:
            33:f8:3b:09:04:a7:8d:28:31:8d:a5:1e:e1:cd:03:69
        Signature Algorithm: sha256WithRSAEncryption
        Issuer: CN=team318-net
        Validity
            Not Before: Nov  3 20:45:02 2023 GMT
            Not After : Oct 18 20:45:02 2026 GMT
        Subject: CN=team318-client
        Subject Public Key Info:
            Public Key Algorithm: rsaEncryption
                Public-Key: (2048 bit)
                Modulus:
                    00:af:f7:9f:a5:ce:aa:b3:bc:d8:00:5f:2e:e0:6b:
                    84:e2:cf:71:80:c8:c8:8e:21:e7:83:3c:c5:2f:53:
                    85:16:1e:85:2a:77:b6:c8:35:b5:1c:e6:3d:aa:7e:
                    14:f8:e0:c1:d6:02:5d:2d:dc:d3:62:4e:bb:a6:cd:
                    52:c4:58:81:ff:6f:8b:4b:52:c8:af:3b:43:3c:63:
                    af:48:8b:a3:b7:98:b0:9e:e8:a7:7a:3e:00:01:24:
                    8f:46:ae:27:8b:f2:37:3a:78:4e:21:8a:27:33:89:
                    58:07:f6:7d:16:64:c5:eb:67:a2:5d:04:21:d7:89:
                    7e:0c:ee:21:56:4d:33:0c:31:fe:08:e2:d5:c2:f6:
                    0a:96:ef:03:16:dd:b0:fa:9a:60:e9:24:0d:f7:1d:
                    d2:cd:06:45:05:2e:a4:ef:c1:49:b0:82:32:8b:b8:
                    ec:0b:86:e0:96:4d:5f:53:de:94:f8:ed:c3:c7:a5:
                    a1:3f:5f:69:eb:3e:d1:36:35:5e:95:df:0a:e1:db:
                    ff:1d:54:66:67:44:88:19:21:ed:38:32:85:66:d4:
                    4b:f4:5b:d0:66:4b:8a:e5:0f:fb:52:8b:3e:56:e3:
                    bd:ad:e3:d6:04:cc:52:f9:c4:9c:ee:44:eb:80:7b:
                    d8:b6:71:20:97:38:e5:64:66:73:48:76:18:a6:72:
                    76:83
                Exponent: 65537 (0x10001)
        X509v3 extensions:
            X509v3 Basic Constraints: 
                CA:FALSE
            X509v3 Subject Key Identifier: 
                B2:03:F1:B6:58:B8:3A:DF:4D:01:E2:8F:66:81:AF:D5:2B:1E:FE:E3
            X509v3 Authority Key Identifier: 
                keyid:CF:73:3D:B5:98:57:1B:40:79:F0:0B:3F:E8:80:5E:10:A1:30:0C:11
                DirName:/CN=team318-net
                serial:5B:AC:AB:0B:DD:D2:C5:45:70:59:E3:7F:42:5C:1C:48:5E:7D:1D:AE
            X509v3 Extended Key Usage: 
                TLS Web Client Authentication
            X509v3 Key Usage: 
                Digital Signature
    Signature Algorithm: sha256WithRSAEncryption
    Signature Value:
        95:a1:c0:d7:1a:93:e7:91:44:05:d4:70:5a:ed:d0:6e:59:45:
        69:f7:f4:45:66:40:fe:33:c8:cf:13:74:79:b9:a5:d6:0e:cb:
        b0:cb:32:1e:9a:2a:07:ba:a3:e8:22:ac:67:5d:29:18:3a:f2:
        68:03:3c:69:dd:bf:44:ab:cb:5f:5e:90:c9:ea:5f:3e:15:1a:
        1f:f3:b9:94:cb:34:5a:f9:64:f1:2b:a8:07:74:72:a3:05:b4:
        18:ba:6d:c3:9a:1c:c2:93:a3:77:ad:54:3b:f6:c7:62:62:b1:
        f1:e0:31:fa:60:a7:1e:27:35:5e:d1:43:8b:06:1b:6a:a4:8e:
        2c:ba:32:7b:bb:99:07:8f:16:a6:56:51:51:1f:09:a6:a9:1f:
        50:f4:74:fb:8d:55:8d:40:36:6e:83:85:4f:89:67:ac:fc:c5:
        7c:23:33:9a:f2:49:53:a3:88:7c:23:ff:39:a7:77:e0:95:8b:
        16:4e:c2:67:70:54:09:e7:41:fb:2a:42:1d:54:ad:2f:28:2c:
        f9:15:fc:44:48:3c:48:f2:6a:7d:ee:e3:c2:98:e9:df:9f:b0:
        2c:17:c1:21:27:34:c5:cf:c6:76:eb:a6:d7:e3:66:26:06:36:
        8d:21:f2:fb:d0:7e:19:7a:c3:54:e0:fa:8b:21:12:bd:b6:02:
        9e:45:ed:13
-----BEGIN CERTIFICATE-----
MIIDXDCCAkSgAwIBAgIQM/g7CQSnjSgxjaUe4c0DaTANBgkqhkiG9w0BAQsFADAW
MRQwEgYDVQQDDAt0ZWFtMzE4LW5ldDAeFw0yMzExMDMyMDQ1MDJaFw0yNjEwMTgy
MDQ1MDJaMBkxFzAVBgNVBAMMDnRlYW0zMTgtY2xpZW50MIIBIjANBgkqhkiG9w0B
AQEFAAOCAQ8AMIIBCgKCAQEAr/efpc6qs7zYAF8u4GuE4s9xgMjIjiHngzzFL1OF
Fh6FKne2yDW1HOY9qn4U+ODB1gJdLdzTYk67ps1SxFiB/2+LS1LIrztDPGOvSIuj
t5iwnuinej4AASSPRq4ni/I3OnhOIYonM4lYB/Z9FmTF62eiXQQh14l+DO4hVk0z
DDH+COLVwvYKlu8DFt2w+ppg6SQN9x3SzQZFBS6k78FJsIIyi7jsC4bglk1fU96U
+O3Dx6WhP19p6z7RNjVeld8K4dv/HVRmZ0SIGSHtODKFZtRL9FvQZkuK5Q/7Uos+
VuO9rePWBMxS+cSc7kTrgHvYtnEglzjlZGZzSHYYpnJ2gwIDAQABo4GiMIGfMAkG
A1UdEwQCMAAwHQYDVR0OBBYEFLID8bZYuDrfTQHij2aBr9UrHv7jMFEGA1UdIwRK
MEiAFM9zPbWYVxtAefALP+iAXhChMAwRoRqkGDAWMRQwEgYDVQQDDAt0ZWFtMzE4
LW5ldIIUW6yrC93SxUVwWeN/QlwcSF59Ha4wEwYDVR0lBAwwCgYIKwYBBQUHAwIw
CwYDVR0PBAQDAgeAMA0GCSqGSIb3DQEBCwUAA4IBAQCVocDXGpPnkUQF1HBa7dBu
WUVp9/RFZkD+M8jPE3R5uaXWDsuwyzIemioHuqPoIqxnXSkYOvJoAzxp3b9Eq8tf
XpDJ6l8+FRof87mUyzRa+WTxK6gHdHKjBbQYum3DmhzCk6N3rVQ79sdiYrHx4DH6
YKceJzVe0UOLBhtqpI4sujJ7u5kHjxamVlFRHwmmqR9Q9HT7jVWNQDZug4VPiWes
/MV8IzOa8klTo4h8I/85p3fglYsWTsJncFQJ50H7KkIdVK0vKCz5FfxESDxI8mp9
7uPCmOnfn7AsF8EhJzTFz8Z266bX42YmBjaNIfL70H4ZesNU4PqLIRK9tgKeRe0T
-----END CERTIFICATE-----
