Certificate:
    Data:
        Version: 3 (0x2)
        Serial Number:
            0d:b8:5d:d9:c9:34:0d:e1:ad:32:af:05:88:aa:54:ce
        Signature Algorithm: sha256WithRSAEncryption
        Issuer: CN=team425-net
        Validity
            Not Before: Nov  4 10:48:16 2023 GMT
            Not After : Oct 19 10:48:16 2026 GMT
        Subject: CN=team425-server
        Subject Public Key Info:
            Public Key Algorithm: rsaEncryption
                Public-Key: (2048 bit)
                Modulus:
                    00:c5:16:be:3a:ab:36:54:46:55:d6:f0:a9:9c:8f:
                    61:f3:61:f7:30:b7:c5:53:bd:20:1c:8f:b6:fa:9a:
                    c5:48:99:04:eb:5a:a1:f4:22:12:cd:ae:cb:c9:7d:
                    74:0a:6d:8d:b2:43:4d:d5:cd:1c:07:b1:7f:3b:01:
                    fa:96:03:93:57:43:5c:46:b9:ff:f1:08:aa:12:08:
                    13:f7:f6:91:81:b0:bd:13:03:e0:21:74:fb:30:53:
                    db:ed:f4:b1:36:88:c5:0d:39:54:c6:5c:10:3a:a7:
                    60:0c:20:27:fe:b7:db:22:97:e5:f1:bd:f9:58:b4:
                    d8:aa:d3:75:a0:3d:4c:8c:b4:9a:b1:47:6d:2e:60:
                    f6:a1:ad:f4:38:8e:4e:2d:50:0b:00:67:92:d1:d4:
                    ca:7c:e0:ba:9c:d0:f2:56:59:70:4f:41:e4:c6:69:
                    66:d1:ef:7a:19:a2:23:b5:d7:e9:a9:4e:94:e6:20:
                    6f:da:39:bc:73:bd:fa:09:b6:3c:07:20:ef:59:a3:
                    43:7e:c7:b1:44:35:e2:e2:f4:0a:bb:d3:3a:18:01:
                    eb:d1:41:64:e8:17:96:f1:34:36:69:ef:3f:13:65:
                    d7:82:b3:49:f4:8c:e0:59:8c:25:e7:97:d9:c6:b1:
                    98:93:80:54:bb:39:41:a6:24:76:c4:c4:22:ff:55:
                    6d:b1
                Exponent: 65537 (0x10001)
        X509v3 extensions:
            X509v3 Basic Constraints: 
                CA:FALSE
            X509v3 Subject Key Identifier: 
                9F:17:27:C8:DD:62:1B:46:8F:93:22:0F:E6:45:DC:D1:74:D8:1D:1F
            X509v3 Authority Key Identifier: 
                keyid:48:DA:48:9D:BE:C2:EC:89:85:BF:B2:F5:13:22:52:28:13:15:C8:67
                DirName:/CN=team425-net
                serial:E6:44:6A:A7:04:01:A6:8F:1B:33:FE:D7:F7:8D:33:D0:C8:36:27
            X509v3 Extended Key Usage: 
                TLS Web Server Authentication
            X509v3 Key Usage: 
                Digital Signature, Key Encipherment
            X509v3 Subject Alternative Name: 
                DNS:team425-server
    Signature Algorithm: sha256WithRSAEncryption
    Signature Value:
        09:c3:ba:69:94:da:59:4b:a5:18:84:71:7d:41:12:14:26:82:
        37:3a:5d:12:8f:d7:41:0d:6a:ee:ad:be:41:82:26:c0:34:c3:
        04:40:fb:08:ea:f2:2d:62:55:31:af:9a:04:d8:58:d2:16:17:
        1f:89:7b:7e:eb:02:0e:a4:98:5c:75:9f:12:26:e7:8a:5a:0e:
        38:23:b6:21:88:26:d5:7a:0e:64:4e:95:d9:b4:f9:aa:e6:1f:
        33:9d:71:f0:09:6e:0a:63:00:7b:f0:ca:85:51:7d:6b:0a:6c:
        dc:5b:29:36:a2:3f:9b:1c:49:aa:3d:a7:62:71:ba:0a:cd:ed:
        b8:f5:29:ba:85:26:6f:ec:9a:d0:29:8b:21:ac:e3:3c:b2:1b:
        b1:61:ef:bd:f2:a9:93:4c:a5:79:7d:52:af:30:55:68:83:71:
        15:3a:71:71:37:91:0c:af:2c:ef:47:cf:e8:57:09:93:52:9a:
        39:58:ee:a3:2d:0d:bf:ac:db:e5:ea:41:0b:5c:63:29:d1:37:
        8f:b3:34:f9:ba:f7:c2:6a:30:07:83:24:51:1e:78:ea:eb:d6:
        e6:e0:31:a8:b0:cc:d6:1a:67:53:f4:80:a2:09:6b:3c:1a:68:
        e5:d8:d7:b1:91:f9:56:46:ed:ad:57:dd:3f:47:71:e5:8e:88:
        af:a2:53:a8
-----BEGIN CERTIFICATE-----
MIIDdzCCAl+gAwIBAgIQDbhd2ck0DeGtMq8FiKpUzjANBgkqhkiG9w0BAQsFADAW
MRQwEgYDVQQDDAt0ZWFtNDI1LW5ldDAeFw0yMzExMDQxMDQ4MTZaFw0yNjEwMTkx
MDQ4MTZaMBkxFzAVBgNVBAMMDnRlYW00MjUtc2VydmVyMIIBIjANBgkqhkiG9w0B
AQEFAAOCAQ8AMIIBCgKCAQEAxRa+Oqs2VEZV1vCpnI9h82H3MLfFU70gHI+2+prF
SJkE61qh9CISza7LyX10Cm2NskNN1c0cB7F/OwH6lgOTV0NcRrn/8QiqEggT9/aR
gbC9EwPgIXT7MFPb7fSxNojFDTlUxlwQOqdgDCAn/rfbIpfl8b35WLTYqtN1oD1M
jLSasUdtLmD2oa30OI5OLVALAGeS0dTKfOC6nNDyVllwT0Hkxmlm0e96GaIjtdfp
qU6U5iBv2jm8c736CbY8ByDvWaNDfsexRDXi4vQKu9M6GAHr0UFk6BeW8TQ2ae8/
E2XXgrNJ9IzgWYwl55fZxrGYk4BUuzlBpiR2xMQi/1VtsQIDAQABo4G9MIG6MAkG
A1UdEwQCMAAwHQYDVR0OBBYEFJ8XJ8jdYhtGj5MiD+ZF3NF02B0fMFEGA1UdIwRK
MEiAFEjaSJ2+wuyJhb+y9RMiUigTFchnoRqkGDAWMRQwEgYDVQQDDAt0ZWFtNDI1
LW5ldIIUAOZEaqcEAaaPGzP+1/eNM9DINicwEwYDVR0lBAwwCgYIKwYBBQUHAwEw
CwYDVR0PBAQDAgWgMBkGA1UdEQQSMBCCDnRlYW00MjUtc2VydmVyMA0GCSqGSIb3
DQEBCwUAA4IBAQAJw7pplNpZS6UYhHF9QRIUJoI3Ol0Sj9dBDWrurb5BgibANMME
QPsI6vItYlUxr5oE2FjSFhcfiXt+6wIOpJhcdZ8SJueKWg44I7YhiCbVeg5kTpXZ
tPmq5h8znXHwCW4KYwB78MqFUX1rCmzcWyk2oj+bHEmqPadicboKze249Sm6hSZv
7JrQKYshrOM8shuxYe+98qmTTKV5fVKvMFVog3EVOnFxN5EMryzvR8/oVwmTUpo5
WO6jLQ2/rNvl6kELXGMp0TePszT5uvfCajAHgyRRHnjq69bm4DGosMzWGmdT9ICi
CWs8Gmjl2NexkflWRu2tV90/R3HljoivolOo
-----END CERTIFICATE-----
