Certificate:
    Data:
        Version: 3 (0x2)
        Serial Number:
            2a:73:43:3c:97:b0:e2:c2:7e:ae:0b:ca:5a:7c:70:7d
        Signature Algorithm: sha256WithRSAEncryption
        Issuer: CN=team425-net
        Validity
            Not Before: Nov  4 11:37:01 2023 GMT
            Not After : Oct 19 11:37:01 2026 GMT
        Subject: CN=team425-client
        Subject Public Key Info:
            Public Key Algorithm: rsaEncryption
                Public-Key: (2048 bit)
                Modulus:
                    00:a2:a1:22:73:ab:b9:1b:7f:12:0a:ca:37:b4:99:
                    2e:c1:3c:67:8a:35:46:b8:1b:59:ae:b3:8a:61:95:
                    79:e0:33:01:c2:ee:07:30:9a:91:bc:33:8b:00:68:
                    44:2f:cd:18:ff:a6:b5:ab:33:e5:00:30:03:a7:11:
                    31:e5:1a:77:1c:2a:5a:1a:1f:4b:dc:1d:4f:2e:e9:
                    76:ad:68:50:af:14:81:43:98:b1:92:ec:21:10:ef:
                    fd:1b:d9:49:15:f3:7c:d0:b6:fb:06:90:a7:9d:d7:
                    88:41:1d:0f:2e:32:2c:85:83:e1:b9:46:31:97:9a:
                    34:47:73:13:87:4e:db:f3:0d:ca:0d:ce:3b:fc:1a:
                    df:c6:d8:5a:3b:93:f4:d1:10:e1:c9:ec:68:21:31:
                    dd:2d:c9:ad:f4:52:94:bd:e8:7e:49:4d:48:c7:c6:
                    f6:5b:9d:5c:c0:25:84:45:f1:2b:fe:fc:09:72:5e:
                    ee:97:4d:e1:1b:b4:a9:e3:b7:00:b6:06:4e:89:48:
                    c4:55:65:85:34:ac:2d:22:b7:b7:5b:b9:24:1c:e3:
                    09:bf:40:ec:e4:0c:33:4e:bc:be:8a:aa:00:52:ca:
                    0c:0c:e3:94:28:2b:69:88:ac:40:65:16:9f:69:89:
                    38:e7:60:24:12:2e:97:de:1f:0f:18:27:53:9c:c8:
                    44:77
                Exponent: 65537 (0x10001)
        X509v3 extensions:
            X509v3 Basic Constraints: 
                CA:FALSE
            X509v3 Subject Key Identifier: 
                61:79:37:2F:B2:7B:A2:C0:BB:13:5E:F5:26:51:37:7E:6B:26:A4:52
            X509v3 Authority Key Identifier: 
                keyid:CB:DA:67:FE:C7:3C:48:8C:74:82:E3:FF:86:59:E5:D6:12:8E:65:6B
                DirName:/CN=team425-net
                serial:27:3A:BC:4E:AA:41:50:00:1F:A8:F1:E0:70:47:2A:78:22:DD:CE:22
            X509v3 Extended Key Usage: 
                TLS Web Client Authentication
            X509v3 Key Usage: 
                Digital Signature
    Signature Algorithm: sha256WithRSAEncryption
    Signature Value:
        04:f9:02:2e:8b:39:eb:ef:f5:3f:2f:c8:9e:34:eb:9c:42:aa:
        64:12:e4:c5:d9:5a:93:b3:da:63:9e:5d:74:8d:2b:27:89:85:
        c8:bc:58:f2:d6:47:04:49:ff:bf:48:4c:44:64:1d:d9:9a:7d:
        64:98:58:f6:ff:af:d5:00:d2:f5:bf:bd:b7:81:0f:7e:1d:90:
        e6:50:67:03:1b:58:ef:42:26:94:4f:d7:f7:91:b8:b7:49:3b:
        85:13:1a:ad:6d:cc:e6:be:2a:59:cf:fe:57:e9:c0:31:6e:f1:
        d4:ed:33:8b:a5:cb:2e:de:de:c3:91:84:a1:5b:b6:1e:58:82:
        72:59:25:e2:08:49:9f:88:6a:f8:ed:6d:77:04:df:11:b7:e9:
        7e:d3:9d:b4:6c:1e:20:98:79:cd:03:4d:82:fa:db:13:4e:55:
        2e:36:22:35:3b:0e:a4:6e:e2:5d:14:47:2b:cb:b0:49:69:6f:
        36:56:0b:d9:f8:83:60:58:29:6f:1f:ee:4c:8a:76:11:78:e6:
        e5:d6:86:00:49:29:9f:17:83:92:5c:36:6d:19:88:ff:5d:dd:
        ba:ee:3d:93:f3:a4:5f:9a:ca:07:f5:a3:d4:c9:1a:1d:cd:1b:
        44:1f:d4:fe:81:20:96:c2:58:cc:9d:a6:d8:cf:27:41:da:f3:
        70:c0:b0:3d
-----BEGIN CERTIFICATE-----
MIIDXDCCAkSgAwIBAgIQKnNDPJew4sJ+rgvKWnxwfTANBgkqhkiG9w0BAQsFADAW
MRQwEgYDVQQDDAt0ZWFtNDI1LW5ldDAeFw0yMzExMDQxMTM3MDFaFw0yNjEwMTkx
MTM3MDFaMBkxFzAVBgNVBAMMDnRlYW00MjUtY2xpZW50MIIBIjANBgkqhkiG9w0B
AQEFAAOCAQ8AMIIBCgKCAQEAoqEic6u5G38SCso3tJkuwTxnijVGuBtZrrOKYZV5
4DMBwu4HMJqRvDOLAGhEL80Y/6a1qzPlADADpxEx5Rp3HCpaGh9L3B1PLul2rWhQ
rxSBQ5ixkuwhEO/9G9lJFfN80Lb7BpCnndeIQR0PLjIshYPhuUYxl5o0R3MTh07b
8w3KDc47/BrfxthaO5P00RDhyexoITHdLcmt9FKUveh+SU1Ix8b2W51cwCWERfEr
/vwJcl7ul03hG7Sp47cAtgZOiUjEVWWFNKwtIre3W7kkHOMJv0Ds5AwzTry+iqoA
UsoMDOOUKCtpiKxAZRafaYk452AkEi6X3h8PGCdTnMhEdwIDAQABo4GiMIGfMAkG
A1UdEwQCMAAwHQYDVR0OBBYEFGF5Ny+ye6LAuxNe9SZRN35rJqRSMFEGA1UdIwRK
MEiAFMvaZ/7HPEiMdILj/4ZZ5dYSjmVroRqkGDAWMRQwEgYDVQQDDAt0ZWFtNDI1
LW5ldIIUJzq8TqpBUAAfqPHgcEcqeCLdziIwEwYDVR0lBAwwCgYIKwYBBQUHAwIw
CwYDVR0PBAQDAgeAMA0GCSqGSIb3DQEBCwUAA4IBAQAE+QIuiznr7/U/L8ieNOuc
QqpkEuTF2VqTs9pjnl10jSsniYXIvFjy1kcESf+/SExEZB3Zmn1kmFj2/6/VANL1
v723gQ9+HZDmUGcDG1jvQiaUT9f3kbi3STuFExqtbczmvipZz/5X6cAxbvHU7TOL
pcsu3t7DkYShW7YeWIJyWSXiCEmfiGr47W13BN8Rt+l+0520bB4gmHnNA02C+tsT
TlUuNiI1Ow6kbuJdFEcry7BJaW82VgvZ+INgWClvH+5MinYReObl1oYASSmfF4OS
XDZtGYj/Xd267j2T86RfmsoH9aPUyRodzRtEH9T+gSCWwljMnabYzydB2vNwwLA9
-----END CERTIFICATE-----
