Certificate:
    Data:
        Version: 3 (0x2)
        Serial Number:
            4b:6d:d3:40:db:b3:6e:5c:0f:55:d3:cd:6f:e4:88:34
        Signature Algorithm: sha256WithRSAEncryption
        Issuer: CN=team425-net
        Validity
            Not Before: Nov  4 11:37:01 2023 GMT
            Not After : Oct 19 11:37:01 2026 GMT
        Subject: CN=team425-server
        Subject Public Key Info:
            Public Key Algorithm: rsaEncryption
                Public-Key: (2048 bit)
                Modulus:
                    00:c3:12:5e:8b:69:27:4a:f8:a1:45:ee:9b:ce:10:
                    19:6c:b7:e2:2f:a9:bf:f0:74:33:cf:9a:c5:53:ef:
                    cb:4e:48:a6:b5:45:05:02:42:e0:8f:25:22:3f:9c:
                    42:2b:11:4e:dd:65:ed:8c:18:86:81:17:2c:cd:e3:
                    ad:f5:a1:f7:5b:97:0d:31:65:38:4a:a6:eb:b9:32:
                    09:53:f9:74:6b:9e:c2:a2:86:cc:58:46:f5:af:bb:
                    9e:e6:1d:b5:65:4a:10:25:e3:ac:23:c1:6d:33:29:
                    72:5a:1a:36:7f:9f:11:e8:63:c1:41:57:44:ca:bd:
                    8a:23:4d:87:4a:49:bc:83:a5:2d:eb:27:8c:60:93:
                    06:63:e2:4f:2d:bf:18:cb:1b:33:15:0a:cd:80:62:
                    07:c4:a4:b4:4e:11:83:5c:8c:76:a0:8b:59:d5:11:
                    46:26:dc:38:ce:fa:ef:32:af:c4:aa:2b:80:d7:03:
                    f6:09:5e:c6:ad:a9:ab:3f:e6:84:80:94:2e:00:11:
                    09:1f:b2:a6:ee:7a:7a:5a:f6:3f:70:2b:62:4e:5b:
                    19:b3:d3:19:99:2c:3b:9c:5f:c8:d2:48:c0:c8:06:
                    8c:54:4e:f2:d4:b2:8b:d1:4c:5b:81:30:8e:47:80:
                    0d:9a:13:db:b4:8d:bc:eb:04:80:35:ef:58:57:d8:
                    f0:93
                Exponent: 65537 (0x10001)
        X509v3 extensions:
            X509v3 Basic Constraints: 
                CA:FALSE
            X509v3 Subject Key Identifier: 
                02:36:E7:59:57:A5:2D:8F:4E:9F:43:9E:01:56:96:8E:30:DF:FD:5D
            X509v3 Authority Key Identifier: 
                keyid:CB:DA:67:FE:C7:3C:48:8C:74:82:E3:FF:86:59:E5:D6:12:8E:65:6B
                DirName:/CN=team425-net
                serial:27:3A:BC:4E:AA:41:50:00:1F:A8:F1:E0:70:47:2A:78:22:DD:CE:22
            X509v3 Extended Key Usage: 
                TLS Web Server Authentication
            X509v3 Key Usage: 
                Digital Signature, Key Encipherment
            X509v3 Subject Alternative Name: 
                DNS:team425-server
    Signature Algorithm: sha256WithRSAEncryption
    Signature Value:
        4d:60:31:31:58:5c:08:cf:3b:86:f2:34:d2:51:9d:97:2d:ca:
        31:63:3e:1e:22:37:69:be:a8:ea:c7:e7:a9:43:a6:6a:05:ad:
        1e:d6:cb:f9:2e:47:ef:27:fa:16:44:68:2a:94:15:99:ee:6e:
        14:38:1f:a4:cb:8a:85:13:a7:a0:d1:b9:a2:dc:3e:53:30:c7:
        87:19:6c:43:7b:18:9a:c7:9c:4a:dc:53:62:93:61:85:2e:79:
        0d:94:27:9d:32:c8:e9:58:b6:f8:8d:a1:5e:f4:ca:84:8f:91:
        7a:db:00:63:d2:da:2a:a9:f1:b4:0f:be:3d:dc:4e:59:2b:96:
        a7:72:24:dc:2b:f1:af:6b:54:6d:95:82:7e:14:52:16:05:d7:
        ac:97:35:cf:eb:b7:1c:f6:9d:49:e2:47:3a:ca:99:88:0e:92:
        29:57:b8:ba:39:62:c2:d6:75:ae:75:19:fe:3a:f0:c7:ff:14:
        ff:da:00:31:27:b9:d6:cc:37:fc:b4:b4:b3:40:d5:0a:09:22:
        b7:39:de:53:69:01:a8:09:62:f9:06:47:6a:fd:87:ee:fc:08:
        22:ca:06:8a:8c:62:69:ac:c7:b5:c9:88:0a:6a:b1:d5:e5:e4:
        5c:ab:18:0e:71:8e:40:4b:b0:e9:dc:63:f1:d8:8a:56:5a:64:
        af:1d:25:28
-----BEGIN CERTIFICATE-----
MIIDdzCCAl+gAwIBAgIQS23TQNuzblwPVdPNb+SINDANBgkqhkiG9w0BAQsFADAW
MRQwEgYDVQQDDAt0ZWFtNDI1LW5ldDAeFw0yMzExMDQxMTM3MDFaFw0yNjEwMTkx
MTM3MDFaMBkxFzAVBgNVBAMMDnRlYW00MjUtc2VydmVyMIIBIjANBgkqhkiG9w0B
AQEFAAOCAQ8AMIIBCgKCAQEAwxJei2knSvihRe6bzhAZbLfiL6m/8HQzz5rFU+/L
TkimtUUFAkLgjyUiP5xCKxFO3WXtjBiGgRcszeOt9aH3W5cNMWU4SqbruTIJU/l0
a57CoobMWEb1r7ue5h21ZUoQJeOsI8FtMylyWho2f58R6GPBQVdEyr2KI02HSkm8
g6Ut6yeMYJMGY+JPLb8YyxszFQrNgGIHxKS0ThGDXIx2oItZ1RFGJtw4zvrvMq/E
qiuA1wP2CV7GramrP+aEgJQuABEJH7Km7np6WvY/cCtiTlsZs9MZmSw7nF/I0kjA
yAaMVE7y1LKL0UxbgTCOR4ANmhPbtI286wSANe9YV9jwkwIDAQABo4G9MIG6MAkG
A1UdEwQCMAAwHQYDVR0OBBYEFAI251lXpS2PTp9DngFWlo4w3/1dMFEGA1UdIwRK
MEiAFMvaZ/7HPEiMdILj/4ZZ5dYSjmVroRqkGDAWMRQwEgYDVQQDDAt0ZWFtNDI1
LW5ldIIUJzq8TqpBUAAfqPHgcEcqeCLdziIwEwYDVR0lBAwwCgYIKwYBBQUHAwEw
CwYDVR0PBAQDAgWgMBkGA1UdEQQSMBCCDnRlYW00MjUtc2VydmVyMA0GCSqGSIb3
DQEBCwUAA4IBAQBNYDExWFwIzzuG8jTSUZ2XLcoxYz4eIjdpvqjqx+epQ6ZqBa0e
1sv5LkfvJ/oWRGgqlBWZ7m4UOB+ky4qFE6eg0bmi3D5TMMeHGWxDexiax5xK3FNi
k2GFLnkNlCedMsjpWLb4jaFe9MqEj5F62wBj0toqqfG0D7493E5ZK5anciTcK/Gv
a1RtlYJ+FFIWBdeslzXP67cc9p1J4kc6ypmIDpIpV7i6OWLC1nWudRn+OvDH/xT/
2gAxJ7nWzDf8tLSzQNUKCSK3Od5TaQGoCWL5Bkdq/Yfu/AgiygaKjGJprMe1yYgK
arHV5eRcqxgOcY5AS7Dp3GPx2IpWWmSvHSUo
-----END CERTIFICATE-----
