Certificate:
    Data:
        Version: 3 (0x2)
        Serial Number:
            75:44:19:d4:3c:ee:2a:02:c8:d6:07:f6:c5:ea:58:4b
        Signature Algorithm: sha256WithRSAEncryption
        Issuer: CN=team425-net
        Validity
            Not Before: Nov  4 10:48:16 2023 GMT
            Not After : Oct 19 10:48:16 2026 GMT
        Subject: CN=team425-client
        Subject Public Key Info:
            Public Key Algorithm: rsaEncryption
                Public-Key: (2048 bit)
                Modulus:
                    00:91:db:43:22:10:d2:35:6e:9f:b2:df:21:75:af:
                    c3:82:81:7f:7d:ac:6f:a1:c4:0c:c5:e4:3e:9a:c4:
                    9a:61:32:bc:0e:89:0a:1e:01:df:f0:74:84:f7:6b:
                    61:a6:e3:c9:4a:89:48:6f:56:d1:23:29:9c:dd:12:
                    cb:70:84:2f:cc:fa:58:39:6a:17:1a:26:9c:fd:db:
                    d7:08:09:22:eb:6a:b9:29:2f:f0:81:ec:af:17:02:
                    b2:c0:1e:0b:b4:ff:12:91:72:59:5c:bb:e1:78:83:
                    7f:5e:a3:43:07:43:41:9b:44:27:f1:29:06:65:48:
                    0a:8e:f7:9d:76:39:83:e6:4a:91:be:b4:d7:3d:d1:
                    de:2b:a9:8e:56:59:e3:cb:5a:1d:81:44:46:cc:ea:
                    a4:e4:5e:22:7f:c4:86:74:88:1c:27:7d:46:41:b0:
                    8c:9e:3f:b9:06:fe:8f:95:c0:14:34:97:01:ca:32:
                    ef:17:7a:fd:35:e0:30:38:70:f5:f4:f5:4f:1d:a9:
                    69:4d:a6:18:63:79:0a:d0:8e:22:10:35:9d:4a:f1:
                    49:d7:3a:af:5a:42:7e:9b:c2:d2:ef:3b:be:f3:e6:
                    9a:bb:0a:96:f3:6b:be:54:5e:e8:4b:18:50:2e:90:
                    cc:59:57:cd:16:cb:83:f4:1e:3b:1d:db:82:14:b0:
                    fb:e3
                Exponent: 65537 (0x10001)
        X509v3 extensions:
            X509v3 Basic Constraints: 
                CA:FALSE
            X509v3 Subject Key Identifier: 
                C4:6F:C3:6F:75:E2:36:31:39:27:14:B6:57:BB:27:F6:7C:38:7D:E2
            X509v3 Authority Key Identifier: 
                keyid:48:DA:48:9D:BE:C2:EC:89:85:BF:B2:F5:13:22:52:28:13:15:C8:67
                DirName:/CN=team425-net
                serial:E6:44:6A:A7:04:01:A6:8F:1B:33:FE:D7:F7:8D:33:D0:C8:36:27
            X509v3 Extended Key Usage: 
                TLS Web Client Authentication
            X509v3 Key Usage: 
                Digital Signature
    Signature Algorithm: sha256WithRSAEncryption
    Signature Value:
        67:58:29:4d:e9:3f:19:4b:d8:23:bd:7c:0e:31:08:db:7b:8c:
        79:2a:86:f9:9b:9b:bc:f8:4f:5d:7e:3b:3c:eb:7b:e0:c7:dd:
        6d:9b:53:2d:f0:d1:4b:27:5f:29:99:8b:fc:d3:d9:42:e9:af:
        b2:f0:07:ec:ce:ce:58:5a:e8:bc:17:14:4c:10:aa:e6:a7:94:
        4e:8e:99:ab:6f:3e:e8:20:40:18:0d:db:72:8e:17:38:4f:ea:
        12:55:bd:89:7f:2f:df:0e:d9:93:71:50:1d:03:e3:63:d0:1c:
        44:98:58:89:96:15:36:d1:fa:89:9b:8a:51:f6:6a:b4:15:33:
        4b:d1:d6:aa:b5:2c:d1:4c:f4:42:86:73:50:b5:ed:7f:46:68:
        a1:c4:df:2d:06:b2:ca:22:1d:71:7c:a5:1d:b0:47:21:1a:b2:
        ec:a9:28:6b:f9:91:8e:16:6a:ab:6e:8b:08:f6:9d:1e:a6:9b:
        70:53:14:1e:77:9c:39:a2:04:13:31:99:42:62:c3:e4:40:8d:
        05:89:8e:30:bc:86:2a:38:50:8c:58:9d:4e:82:bf:b2:21:ca:
        4d:d1:11:63:75:f9:2f:7b:1c:5f:db:a6:03:59:a3:8a:0f:bb:
        e2:94:a1:a5:e6:58:7d:08:59:26:36:07:97:cd:4b:32:50:fe:
        aa:84:e6:fa
-----BEGIN CERTIFICATE-----
MIIDXDCCAkSgAwIBAgIQdUQZ1DzuKgLI1gf2xepYSzANBgkqhkiG9w0BAQsFADAW
MRQwEgYDVQQDDAt0ZWFtNDI1LW5ldDAeFw0yMzExMDQxMDQ4MTZaFw0yNjEwMTkx
MDQ4MTZaMBkxFzAVBgNVBAMMDnRlYW00MjUtY2xpZW50MIIBIjANBgkqhkiG9w0B
AQEFAAOCAQ8AMIIBCgKCAQEAkdtDIhDSNW6fst8hda/DgoF/faxvocQMxeQ+msSa
YTK8DokKHgHf8HSE92thpuPJSolIb1bRIymc3RLLcIQvzPpYOWoXGiac/dvXCAki
62q5KS/wgeyvFwKywB4LtP8SkXJZXLvheIN/XqNDB0NBm0Qn8SkGZUgKjveddjmD
5kqRvrTXPdHeK6mOVlnjy1odgURGzOqk5F4if8SGdIgcJ31GQbCMnj+5Bv6PlcAU
NJcByjLvF3r9NeAwOHD19PVPHalpTaYYY3kK0I4iEDWdSvFJ1zqvWkJ+m8LS7zu+
8+aauwqW82u+VF7oSxhQLpDMWVfNFsuD9B47HduCFLD74wIDAQABo4GiMIGfMAkG
A1UdEwQCMAAwHQYDVR0OBBYEFMRvw2914jYxOScUtle7J/Z8OH3iMFEGA1UdIwRK
MEiAFEjaSJ2+wuyJhb+y9RMiUigTFchnoRqkGDAWMRQwEgYDVQQDDAt0ZWFtNDI1
LW5ldIIUAOZEaqcEAaaPGzP+1/eNM9DINicwEwYDVR0lBAwwCgYIKwYBBQUHAwIw
CwYDVR0PBAQDAgeAMA0GCSqGSIb3DQEBCwUAA4IBAQBnWClN6T8ZS9gjvXwOMQjb
e4x5Kob5m5u8+E9dfjs863vgx91tm1Mt8NFLJ18pmYv809lC6a+y8Afszs5YWui8
FxRMEKrmp5ROjpmrbz7oIEAYDdtyjhc4T+oSVb2Jfy/fDtmTcVAdA+Nj0BxEmFiJ
lhU20fqJm4pR9mq0FTNL0daqtSzRTPRChnNQte1/RmihxN8tBrLKIh1xfKUdsEch
GrLsqShr+ZGOFmqrbosI9p0epptwUxQed5w5ogQTMZlCYsPkQI0FiY4wvIYqOFCM
WJ1Ogr+yIcpN0RFjdfkvexxf26YDWaOKD7vilKGl5lh9CFkmNgeXzUsyUP6qhOb6
-----END CERTIFICATE-----
