Certificate:
    Data:
        Version: 3 (0x2)
        Serial Number:
            90:48:be:fe:72:fc:7e:83:ac:40:37:ce:33:a4:f8:d9
        Signature Algorithm: sha256WithRSAEncryption
        Issuer: CN=team350-net
        Validity
            Not Before: Nov  4 11:35:11 2023 GMT
            Not After : Oct 19 11:35:11 2026 GMT
        Subject: CN=team350-client
        Subject Public Key Info:
            Public Key Algorithm: rsaEncryption
                Public-Key: (2048 bit)
                Modulus:
                    00:e4:3b:78:6a:e5:a7:1b:69:e6:ed:f1:27:08:e6:
                    57:1d:75:22:ca:62:9d:ac:91:43:d8:2d:8e:65:da:
                    d0:17:91:45:10:5e:95:78:6f:54:32:08:de:5d:8e:
                    ed:b0:77:8e:2b:81:4a:2a:9e:67:2d:14:46:12:a7:
                    4f:ca:07:4d:d9:e9:f5:f3:fc:ba:73:0b:c7:7a:41:
                    4f:ed:a3:86:ff:84:61:18:84:28:64:0f:53:47:75:
                    07:d2:b5:87:9e:ab:85:59:7a:75:2d:bd:81:d7:23:
                    45:a1:2c:ae:ae:7f:bd:87:7c:66:db:aa:40:86:ed:
                    a0:0c:2e:56:30:79:7b:0d:29:19:15:17:8a:8c:de:
                    05:8e:6a:13:2b:b7:a9:72:df:89:4f:d7:3e:f8:1a:
                    13:14:26:20:1f:53:d0:4b:07:8b:cf:a0:79:08:ce:
                    82:c8:86:b9:c1:a6:b3:bb:40:9d:fa:36:d8:17:95:
                    11:65:22:8a:c8:9e:82:7d:5b:99:23:f4:a1:da:fb:
                    60:ad:ed:45:c3:e6:94:6f:66:11:fa:26:19:5c:fc:
                    7a:e5:18:3e:d0:69:34:20:5e:45:51:eb:3e:71:eb:
                    3e:e2:61:43:46:0f:f5:c7:07:35:fb:6c:72:c8:e2:
                    8f:49:35:cd:04:e5:76:99:fb:ea:51:d5:77:b8:f6:
                    01:d5
                Exponent: 65537 (0x10001)
        X509v3 extensions:
            X509v3 Basic Constraints: 
                CA:FALSE
            X509v3 Subject Key Identifier: 
                F5:C1:FE:F8:CE:ED:20:FE:0F:DA:D5:29:16:60:69:FD:09:C9:C8:BA
            X509v3 Authority Key Identifier: 
                keyid:38:A6:44:9F:38:7D:05:54:47:8F:3B:49:D4:9F:56:CC:CE:6A:F5:A0
                DirName:/CN=team350-net
                serial:47:F5:1B:94:B6:D9:29:8A:1A:1A:7B:9E:34:18:D6:B9:C0:8B:AE:2D
            X509v3 Extended Key Usage: 
                TLS Web Client Authentication
            X509v3 Key Usage: 
                Digital Signature
    Signature Algorithm: sha256WithRSAEncryption
    Signature Value:
        5d:11:70:9d:57:61:dc:11:f8:95:a6:05:33:98:dc:40:eb:38:
        d2:47:75:01:a7:61:1a:4e:bd:03:d9:17:0c:4c:42:56:a6:c6:
        89:77:8a:7e:cf:48:65:b0:4a:0b:ea:ba:78:e6:b5:98:8c:e7:
        9f:fa:76:44:18:7c:d2:6a:6a:fd:b1:b4:14:ff:b2:ec:bf:83:
        5a:ec:39:7f:7a:7e:27:c5:94:17:f8:93:b1:9c:a6:85:d7:b8:
        14:c9:be:f7:8f:66:07:11:71:09:33:2e:28:df:55:05:d5:3a:
        6c:47:26:8a:e2:b6:10:94:fc:04:f3:da:71:b4:26:e2:b8:24:
        b1:7d:c9:2c:00:8b:40:d2:ce:bd:28:28:31:b8:1b:f2:b2:06:
        b0:ce:29:42:2a:12:91:33:c9:8c:3f:85:ad:57:01:28:8c:55:
        f3:05:c9:23:e1:b9:8f:a9:52:69:f8:ec:1c:57:5a:b2:be:37:
        24:11:ff:41:53:38:a0:a8:37:5a:ec:c7:6f:0e:a1:8c:d4:7b:
        86:27:17:8a:9f:94:64:bf:02:11:87:2f:b8:26:8d:c1:0a:48:
        9d:33:6b:8a:03:a9:0e:3e:42:39:75:52:00:37:a7:ee:d0:d2:
        d0:d8:f7:27:58:e5:63:40:06:42:da:83:aa:94:4a:77:16:32:
        8a:fb:e8:61
-----BEGIN CERTIFICATE-----
MIIDXTCCAkWgAwIBAgIRAJBIvv5y/H6DrEA3zjOk+NkwDQYJKoZIhvcNAQELBQAw
FjEUMBIGA1UEAwwLdGVhbTM1MC1uZXQwHhcNMjMxMTA0MTEzNTExWhcNMjYxMDE5
MTEzNTExWjAZMRcwFQYDVQQDDA50ZWFtMzUwLWNsaWVudDCCASIwDQYJKoZIhvcN
AQEBBQADggEPADCCAQoCggEBAOQ7eGrlpxtp5u3xJwjmVx11IspinayRQ9gtjmXa
0BeRRRBelXhvVDII3l2O7bB3jiuBSiqeZy0URhKnT8oHTdnp9fP8unMLx3pBT+2j
hv+EYRiEKGQPU0d1B9K1h56rhVl6dS29gdcjRaEsrq5/vYd8ZtuqQIbtoAwuVjB5
ew0pGRUXiozeBY5qEyu3qXLfiU/XPvgaExQmIB9T0EsHi8+geQjOgsiGucGms7tA
nfo22BeVEWUiisiegn1bmSP0odr7YK3tRcPmlG9mEfomGVz8euUYPtBpNCBeRVHr
PnHrPuJhQ0YP9ccHNftscsjij0k1zQTldpn76lHVd7j2AdUCAwEAAaOBojCBnzAJ
BgNVHRMEAjAAMB0GA1UdDgQWBBT1wf74zu0g/g/a1SkWYGn9CcnIujBRBgNVHSME
SjBIgBQ4pkSfOH0FVEePO0nUn1bMzmr1oKEapBgwFjEUMBIGA1UEAwwLdGVhbTM1
MC1uZXSCFEf1G5S22SmKGhp7njQY1rnAi64tMBMGA1UdJQQMMAoGCCsGAQUFBwMC
MAsGA1UdDwQEAwIHgDANBgkqhkiG9w0BAQsFAAOCAQEAXRFwnVdh3BH4laYFM5jc
QOs40kd1AadhGk69A9kXDExCVqbGiXeKfs9IZbBKC+q6eOa1mIznn/p2RBh80mpq
/bG0FP+y7L+DWuw5f3p+J8WUF/iTsZymhde4FMm+949mBxFxCTMuKN9VBdU6bEcm
iuK2EJT8BPPacbQm4rgksX3JLACLQNLOvSgoMbgb8rIGsM4pQioSkTPJjD+FrVcB
KIxV8wXJI+G5j6lSafjsHFdasr43JBH/QVM4oKg3WuzHbw6hjNR7hicXip+UZL8C
EYcvuCaNwQpInTNrigOpDj5COXVSADen7tDS0Nj3J1jlY0AGQtqDqpRKdxYyivvo
YQ==
-----END CERTIFICATE-----
