Certificate:
    Data:
        Version: 3 (0x2)
        Serial Number:
            99:15:d6:99:fa:61:85:cf:0d:77:62:dc:37:13:93:ac
        Signature Algorithm: sha256WithRSAEncryption
        Issuer: CN=team350-net
        Validity
            Not Before: Nov  4 10:47:00 2023 GMT
            Not After : Oct 19 10:47:00 2026 GMT
        Subject: CN=team350-server
        Subject Public Key Info:
            Public Key Algorithm: rsaEncryption
                Public-Key: (2048 bit)
                Modulus:
                    00:df:08:5a:b1:0e:5f:a4:ac:84:0b:ff:52:5d:0a:
                    e5:d1:67:17:a6:db:f1:56:47:81:df:a0:ed:e6:f5:
                    b9:87:46:ce:27:25:c3:f8:e8:d5:e6:25:f9:92:ac:
                    da:b4:15:61:a8:a9:d9:a7:bf:60:36:08:58:44:05:
                    7e:02:e6:dc:54:d4:f8:46:c8:ed:af:3a:75:39:3b:
                    23:01:d4:2b:77:47:58:2e:ef:01:93:33:80:2b:c6:
                    b5:44:1e:c5:1a:4a:b9:73:ae:dc:75:47:cf:9a:84:
                    94:28:82:b5:d8:c1:9e:1b:25:fe:b9:3a:84:55:b6:
                    94:c3:63:40:64:b5:40:70:e2:dc:16:8c:b5:6e:35:
                    dc:ee:b5:38:0a:f6:3c:de:a8:17:88:d9:6b:f9:ab:
                    3f:77:49:fe:73:64:a3:01:28:bc:41:f9:88:f0:48:
                    bb:e5:f1:a8:af:54:a3:72:93:39:82:ee:b7:20:e0:
                    68:0b:f0:4a:a9:4d:68:80:99:da:36:92:84:a1:aa:
                    8c:54:43:ce:29:f8:48:18:9b:a2:c1:02:5a:2c:08:
                    98:9a:ce:51:27:86:e0:aa:b6:73:94:9b:be:b9:6b:
                    89:5a:69:9f:b4:8a:5c:79:cd:c7:59:a7:f1:ec:26:
                    55:44:ac:0c:f9:38:1f:bf:a3:63:27:90:f9:f2:26:
                    43:e3
                Exponent: 65537 (0x10001)
        X509v3 extensions:
            X509v3 Basic Constraints: 
                CA:FALSE
            X509v3 Subject Key Identifier: 
                F7:1A:B6:08:AE:DD:63:E8:CC:4B:D2:5F:FD:8A:8C:85:86:37:86:98
            X509v3 Authority Key Identifier: 
                keyid:A5:0E:DE:86:32:BC:F8:19:2D:9B:D0:3F:85:FE:27:90:D3:F8:D4:33
                DirName:/CN=team350-net
                serial:03:86:74:72:7A:92:5C:F8:F1:C9:BD:32:C6:AC:DF:88:63:BF:FF:96
            X509v3 Extended Key Usage: 
                TLS Web Server Authentication
            X509v3 Key Usage: 
                Digital Signature, Key Encipherment
            X509v3 Subject Alternative Name: 
                DNS:team350-server
    Signature Algorithm: sha256WithRSAEncryption
    Signature Value:
        14:08:bf:a4:5a:1c:86:85:62:73:dc:bb:cf:f7:2c:fb:e3:e7:
        7f:b9:4f:c5:5b:2a:d5:8c:35:0b:2b:7a:7a:9f:5b:c6:27:62:
        c0:bf:de:c7:e6:b1:2c:03:a2:9e:35:ba:44:35:8f:17:52:92:
        9b:b9:0f:dc:1e:a2:c9:6c:6c:d3:dd:42:0a:d0:a1:30:58:59:
        dd:0e:3d:a9:26:9d:fb:1f:e5:ec:94:b6:6e:4a:ac:86:2b:da:
        82:20:46:d0:8e:0f:be:46:63:f1:df:82:2f:76:06:8d:0e:4b:
        ea:23:fa:64:58:07:8e:51:c3:a0:38:e0:99:e9:1a:e7:76:f2:
        a8:f6:16:c6:a3:d2:4a:99:4c:ef:ca:99:82:c7:91:dc:25:4d:
        39:81:e1:3e:57:a7:77:1f:b6:a5:91:c2:22:36:40:93:3f:df:
        be:71:80:10:97:f8:e0:f2:3e:9d:18:cf:75:79:37:37:67:b8:
        e3:a6:28:1e:a3:f6:2a:ca:60:d7:7d:c0:53:98:aa:de:ba:c9:
        44:ec:5a:16:c1:d1:0b:c2:b8:2c:da:43:63:02:b6:39:80:91:
        11:5e:6b:e1:63:2b:50:78:e8:97:e0:a1:d6:d2:87:19:59:4b:
        c4:1d:23:14:89:b8:d3:a9:61:24:a9:a2:0a:92:a9:1d:8e:0b:
        b2:9a:42:84
-----BEGIN CERTIFICATE-----
MIIDeDCCAmCgAwIBAgIRAJkV1pn6YYXPDXdi3DcTk6wwDQYJKoZIhvcNAQELBQAw
FjEUMBIGA1UEAwwLdGVhbTM1MC1uZXQwHhcNMjMxMTA0MTA0NzAwWhcNMjYxMDE5
MTA0NzAwWjAZMRcwFQYDVQQDDA50ZWFtMzUwLXNlcnZlcjCCASIwDQYJKoZIhvcN
AQEBBQADggEPADCCAQoCggEBAN8IWrEOX6SshAv/Ul0K5dFnF6bb8VZHgd+g7eb1
uYdGziclw/jo1eYl+ZKs2rQVYaip2ae/YDYIWEQFfgLm3FTU+EbI7a86dTk7IwHU
K3dHWC7vAZMzgCvGtUQexRpKuXOu3HVHz5qElCiCtdjBnhsl/rk6hFW2lMNjQGS1
QHDi3BaMtW413O61OAr2PN6oF4jZa/mrP3dJ/nNkowEovEH5iPBIu+XxqK9Uo3KT
OYLutyDgaAvwSqlNaICZ2jaShKGqjFRDzin4SBibosECWiwImJrOUSeG4Kq2c5Sb
vrlriVppn7SKXHnNx1mn8ewmVUSsDPk4H7+jYyeQ+fImQ+MCAwEAAaOBvTCBujAJ
BgNVHRMEAjAAMB0GA1UdDgQWBBT3GrYIrt1j6MxL0l/9ioyFhjeGmDBRBgNVHSME
SjBIgBSlDt6GMrz4GS2b0D+F/ieQ0/jUM6EapBgwFjEUMBIGA1UEAwwLdGVhbTM1
MC1uZXSCFAOGdHJ6klz48cm9Msas34hjv/+WMBMGA1UdJQQMMAoGCCsGAQUFBwMB
MAsGA1UdDwQEAwIFoDAZBgNVHREEEjAQgg50ZWFtMzUwLXNlcnZlcjANBgkqhkiG
9w0BAQsFAAOCAQEAFAi/pFochoVic9y7z/cs++Pnf7lPxVsq1Yw1Cyt6ep9bxidi
wL/ex+axLAOinjW6RDWPF1KSm7kP3B6iyWxs091CCtChMFhZ3Q49qSad+x/l7JS2
bkqshivagiBG0I4PvkZj8d+CL3YGjQ5L6iP6ZFgHjlHDoDjgmeka53byqPYWxqPS
SplM78qZgseR3CVNOYHhPlendx+2pZHCIjZAkz/fvnGAEJf44PI+nRjPdXk3N2e4
46YoHqP2Kspg133AU5iq3rrJROxaFsHRC8K4LNpDYwK2OYCREV5r4WMrUHjol+Ch
1tKHGVlLxB0jFIm406lhJKmiCpKpHY4LsppChA==
-----END CERTIFICATE-----
