Certificate:
    Data:
        Version: 3 (0x2)
        Serial Number:
            fe:71:69:11:42:01:23:cc:73:c7:f3:e6:b9:fe:5f:f0
        Signature Algorithm: sha256WithRSAEncryption
        Issuer: CN=team350-net
        Validity
            Not Before: Nov  4 10:47:00 2023 GMT
            Not After : Oct 19 10:47:00 2026 GMT
        Subject: CN=team350-client
        Subject Public Key Info:
            Public Key Algorithm: rsaEncryption
                Public-Key: (2048 bit)
                Modulus:
                    00:b8:92:60:75:cb:5e:d4:05:30:49:95:81:44:46:
                    73:ac:42:b4:5b:cd:39:87:16:21:64:14:1b:60:55:
                    05:59:13:a5:b0:27:17:a0:68:0a:36:1c:1f:87:3f:
                    fa:5a:03:ae:ea:32:09:73:e2:04:e3:c0:fb:44:ca:
                    ab:da:97:c5:69:64:a6:3c:08:0b:2f:6f:73:f5:f7:
                    3b:07:f1:9c:19:a1:e2:24:57:cf:36:1c:6a:80:86:
                    12:43:97:70:80:8b:79:c2:0c:75:be:4b:b5:27:b4:
                    21:be:b1:96:bd:48:55:f3:cc:b2:20:7b:0b:eb:f2:
                    1d:3a:86:23:9f:6e:26:0b:bd:d4:5d:8a:a4:8a:1a:
                    5b:52:20:9e:f1:2d:29:ef:70:bf:e6:94:3d:34:3a:
                    17:dc:bc:ab:a8:bf:fb:eb:b3:b7:4d:98:13:a7:96:
                    31:b2:02:36:d2:31:d8:7e:9e:d6:66:b5:d0:f2:d3:
                    90:5b:b6:a8:b7:be:f8:3d:ab:9f:a9:71:5f:fe:16:
                    2a:5b:84:ac:fe:51:3d:e4:7b:d1:fb:cf:00:b9:28:
                    c3:80:fc:79:a3:21:36:e0:55:b2:e8:4f:1d:2d:a4:
                    09:99:e6:da:b6:5d:f8:a7:fb:aa:47:6e:c3:5d:da:
                    89:85:cb:92:98:cd:a7:3c:44:46:22:1a:ff:d7:8a:
                    b5:13
                Exponent: 65537 (0x10001)
        X509v3 extensions:
            X509v3 Basic Constraints: 
                CA:FALSE
            X509v3 Subject Key Identifier: 
                89:93:8C:9D:4D:89:04:85:DC:5A:07:F7:00:5D:3A:55:73:53:54:E8
            X509v3 Authority Key Identifier: 
                keyid:A5:0E:DE:86:32:BC:F8:19:2D:9B:D0:3F:85:FE:27:90:D3:F8:D4:33
                DirName:/CN=team350-net
                serial:03:86:74:72:7A:92:5C:F8:F1:C9:BD:32:C6:AC:DF:88:63:BF:FF:96
            X509v3 Extended Key Usage: 
                TLS Web Client Authentication
            X509v3 Key Usage: 
                Digital Signature
    Signature Algorithm: sha256WithRSAEncryption
    Signature Value:
        3c:d6:ef:97:bd:af:39:01:38:cd:bd:5f:b5:5c:18:e5:87:be:
        82:30:f1:e5:7e:73:85:4d:25:be:d3:27:f4:44:71:86:98:85:
        84:ad:c8:38:4a:9d:1f:92:6e:df:87:41:ff:28:8a:39:cf:12:
        c3:af:2d:ef:05:98:a3:9a:29:ab:fe:e3:1e:49:c1:15:81:d2:
        80:4e:fe:12:0d:8e:0e:e7:42:bd:64:39:2b:c7:e7:65:ab:7d:
        e9:79:ff:52:18:67:31:99:e2:03:52:24:01:5c:2f:1a:40:69:
        d5:91:c3:d1:58:8f:97:71:f5:b6:44:5a:1c:71:f6:fb:07:fb:
        14:be:78:79:c4:e9:a5:8d:75:fd:7a:e4:7a:d0:65:ea:bf:6a:
        72:db:81:b5:29:ea:bf:b3:33:38:e5:18:17:83:76:2c:59:b1:
        55:8f:c7:b3:2c:64:e8:c0:32:c0:dd:4a:b2:89:ba:26:57:d0:
        d9:ef:ea:fe:85:73:57:e9:81:6d:83:f8:22:d2:fe:f1:39:bb:
        f2:34:2b:ae:09:65:bd:24:17:8b:70:32:11:bb:59:44:f9:6b:
        73:d4:c7:17:f1:d0:09:f6:ed:43:ca:95:c8:74:9b:0e:f2:86:
        5f:90:09:89:14:1d:f2:7e:ed:5e:40:5e:8d:80:09:17:1c:f7:
        58:b5:2e:bc
-----BEGIN CERTIFICATE-----
MIIDXTCCAkWgAwIBAgIRAP5xaRFCASPMc8fz5rn+X/AwDQYJKoZIhvcNAQELBQAw
FjEUMBIGA1UEAwwLdGVhbTM1MC1uZXQwHhcNMjMxMTA0MTA0NzAwWhcNMjYxMDE5
MTA0NzAwWjAZMRcwFQYDVQQDDA50ZWFtMzUwLWNsaWVudDCCASIwDQYJKoZIhvcN
AQEBBQADggEPADCCAQoCggEBALiSYHXLXtQFMEmVgURGc6xCtFvNOYcWIWQUG2BV
BVkTpbAnF6BoCjYcH4c/+loDruoyCXPiBOPA+0TKq9qXxWlkpjwICy9vc/X3Owfx
nBmh4iRXzzYcaoCGEkOXcICLecIMdb5LtSe0Ib6xlr1IVfPMsiB7C+vyHTqGI59u
Jgu91F2KpIoaW1IgnvEtKe9wv+aUPTQ6F9y8q6i/++uzt02YE6eWMbICNtIx2H6e
1ma10PLTkFu2qLe++D2rn6lxX/4WKluErP5RPeR70fvPALkow4D8eaMhNuBVsuhP
HS2kCZnm2rZd+Kf7qkduw13aiYXLkpjNpzxERiIa/9eKtRMCAwEAAaOBojCBnzAJ
BgNVHRMEAjAAMB0GA1UdDgQWBBSJk4ydTYkEhdxaB/cAXTpVc1NU6DBRBgNVHSME
SjBIgBSlDt6GMrz4GS2b0D+F/ieQ0/jUM6EapBgwFjEUMBIGA1UEAwwLdGVhbTM1
MC1uZXSCFAOGdHJ6klz48cm9Msas34hjv/+WMBMGA1UdJQQMMAoGCCsGAQUFBwMC
MAsGA1UdDwQEAwIHgDANBgkqhkiG9w0BAQsFAAOCAQEAPNbvl72vOQE4zb1ftVwY
5Ye+gjDx5X5zhU0lvtMn9ERxhpiFhK3IOEqdH5Ju34dB/yiKOc8Sw68t7wWYo5op
q/7jHknBFYHSgE7+Eg2ODudCvWQ5K8fnZat96Xn/UhhnMZniA1IkAVwvGkBp1ZHD
0ViPl3H1tkRaHHH2+wf7FL54ecTppY11/XrketBl6r9qctuBtSnqv7MzOOUYF4N2
LFmxVY/Hsyxk6MAywN1Ksom6JlfQ2e/q/oVzV+mBbYP4ItL+8Tm78jQrrgllvSQX
i3AyEbtZRPlrc9THF/HQCfbtQ8qVyHSbDvKGX5AJiRQd8n7tXkBejYAJFxz3WLUu
vA==
-----END CERTIFICATE-----
