Certificate:
    Data:
        Version: 3 (0x2)
        Serial Number:
            58:80:49:3f:95:e3:7a:f5:d4:50:32:17:98:5b:45:86
        Signature Algorithm: sha256WithRSAEncryption
        Issuer: CN=team256-net
        Validity
            Not Before: Nov  4 11:32:42 2023 GMT
            Not After : Oct 19 11:32:42 2026 GMT
        Subject: CN=team256-client
        Subject Public Key Info:
            Public Key Algorithm: rsaEncryption
                Public-Key: (2048 bit)
                Modulus:
                    00:ce:24:c8:ef:f0:ca:3c:b9:f1:4c:c8:f5:c6:15:
                    3f:86:97:06:f1:d9:7c:f8:de:0b:b6:be:df:20:79:
                    1e:b3:db:f3:d2:de:1a:ca:93:d1:4e:98:ca:f5:bc:
                    da:32:33:66:71:f0:61:79:41:0c:23:e8:42:c3:8c:
                    78:1b:08:c9:41:f9:37:a7:2c:b7:42:c3:1d:5a:72:
                    87:ab:fa:3a:a9:4f:f9:4d:4a:fe:46:a6:c3:d9:ff:
                    a1:3a:2b:58:25:de:55:d1:36:9b:45:08:97:b3:cd:
                    91:b5:46:92:60:0a:a8:76:8d:39:33:f7:bd:85:6a:
                    5a:aa:a6:66:cc:e8:c9:e7:30:27:96:9a:12:89:cf:
                    a5:fa:35:f4:5f:8b:5f:55:5a:66:f0:8a:32:ad:3b:
                    1a:22:ef:b0:ef:8c:2c:84:40:a5:be:c6:8c:f8:c3:
                    27:4a:98:a8:8b:28:d3:ce:08:6f:54:0b:13:d1:0a:
                    a0:91:06:9a:22:39:35:05:ee:4b:b7:41:1d:32:6b:
                    78:55:18:08:50:99:e7:0c:46:81:be:00:88:b2:d1:
                    e5:be:8c:ff:62:d3:00:e9:b8:f2:aa:92:78:1b:fd:
                    10:15:92:d2:cb:e1:14:88:ad:13:86:8f:7e:42:83:
                    0f:28:25:4f:9f:d2:de:e3:77:25:fe:bf:50:e5:69:
                    2c:5b
                Exponent: 65537 (0x10001)
        X509v3 extensions:
            X509v3 Basic Constraints: 
                CA:FALSE
            X509v3 Subject Key Identifier: 
                D9:6C:43:5A:72:10:78:5E:99:E1:FA:07:48:D2:3B:7C:C9:CC:44:CA
            X509v3 Authority Key Identifier: 
                keyid:D0:3D:0C:0E:61:9E:B4:83:F9:BB:0A:AE:78:B1:C6:18:67:DA:5B:06
                DirName:/CN=team256-net
                serial:36:FC:CF:75:E6:A7:41:4D:B4:ED:05:E7:CC:E7:60:69:57:25:46:52
            X509v3 Extended Key Usage: 
                TLS Web Client Authentication
            X509v3 Key Usage: 
                Digital Signature
    Signature Algorithm: sha256WithRSAEncryption
    Signature Value:
        c7:b0:67:59:6c:3b:df:75:ed:48:fd:ad:5f:fb:2b:c0:f7:8a:
        19:a9:02:62:37:78:9d:44:be:60:54:af:28:1c:4c:f6:34:a1:
        d9:c1:d8:bc:78:1b:c8:30:7f:57:4a:e3:ac:7a:80:a2:ef:50:
        7c:a6:fb:ba:50:d7:08:20:30:ed:61:46:73:38:4a:11:8a:78:
        2c:55:38:cf:d2:79:ad:07:5d:b3:2d:1c:39:58:c1:2a:f5:37:
        a6:88:96:ff:7f:a8:9b:07:9d:bb:9d:60:f8:b0:51:a6:49:47:
        4d:4c:45:f0:f7:6d:a4:78:70:61:50:59:8d:20:0e:e4:52:9f:
        81:bf:2e:85:b8:7c:ef:2a:9c:f6:9b:74:78:02:8a:77:4f:80:
        13:b4:c9:ac:05:16:02:d7:84:49:6a:fd:07:43:dd:4c:b5:e1:
        f1:94:5b:92:3b:1c:99:58:17:bd:f2:53:7b:5a:2e:19:2b:32:
        6b:b0:ae:f1:d1:7f:c1:f3:b5:bd:cc:cf:55:02:0f:bf:97:66:
        75:b3:90:8f:96:e3:1e:32:af:31:f1:1e:d0:5f:59:5d:69:a4:
        66:40:03:5a:b2:ae:b6:54:6c:6d:1c:8a:5a:e5:1a:45:80:ec:
        fa:47:f7:44:6d:3a:37:fe:32:e9:a9:1b:4c:e1:62:39:75:a8:
        da:ce:dc:d9
-----BEGIN CERTIFICATE-----
MIIDXDCCAkSgAwIBAgIQWIBJP5XjevXUUDIXmFtFhjANBgkqhkiG9w0BAQsFADAW
MRQwEgYDVQQDDAt0ZWFtMjU2LW5ldDAeFw0yMzExMDQxMTMyNDJaFw0yNjEwMTkx
MTMyNDJaMBkxFzAVBgNVBAMMDnRlYW0yNTYtY2xpZW50MIIBIjANBgkqhkiG9w0B
AQEFAAOCAQ8AMIIBCgKCAQEAziTI7/DKPLnxTMj1xhU/hpcG8dl8+N4Ltr7fIHke
s9vz0t4aypPRTpjK9bzaMjNmcfBheUEMI+hCw4x4GwjJQfk3pyy3QsMdWnKHq/o6
qU/5TUr+RqbD2f+hOitYJd5V0TabRQiXs82RtUaSYAqodo05M/e9hWpaqqZmzOjJ
5zAnlpoSic+l+jX0X4tfVVpm8IoyrTsaIu+w74wshEClvsaM+MMnSpioiyjTzghv
VAsT0QqgkQaaIjk1Be5Lt0EdMmt4VRgIUJnnDEaBvgCIstHlvoz/YtMA6bjyqpJ4
G/0QFZLSy+EUiK0Tho9+QoMPKCVPn9Le43cl/r9Q5WksWwIDAQABo4GiMIGfMAkG
A1UdEwQCMAAwHQYDVR0OBBYEFNlsQ1pyEHhemeH6B0jSO3zJzETKMFEGA1UdIwRK
MEiAFNA9DA5hnrSD+bsKrnixxhhn2lsGoRqkGDAWMRQwEgYDVQQDDAt0ZWFtMjU2
LW5ldIIUNvzPdeanQU207QXnzOdgaVclRlIwEwYDVR0lBAwwCgYIKwYBBQUHAwIw
CwYDVR0PBAQDAgeAMA0GCSqGSIb3DQEBCwUAA4IBAQDHsGdZbDvfde1I/a1f+yvA
94oZqQJiN3idRL5gVK8oHEz2NKHZwdi8eBvIMH9XSuOseoCi71B8pvu6UNcIIDDt
YUZzOEoRingsVTjP0nmtB12zLRw5WMEq9TemiJb/f6ibB527nWD4sFGmSUdNTEXw
922keHBhUFmNIA7kUp+Bvy6FuHzvKpz2m3R4Aop3T4ATtMmsBRYC14RJav0HQ91M
teHxlFuSOxyZWBe98lN7Wi4ZKzJrsK7x0X/B87W9zM9VAg+/l2Z1s5CPluMeMq8x
8R7QX1ldaaRmQANasq62VGxtHIpa5RpFgOz6R/dEbTo3/jLpqRtM4WI5dajaztzZ
-----END CERTIFICATE-----
