Certificate:
    Data:
        Version: 3 (0x2)
        Serial Number:
            81:2d:00:56:a0:d9:31:de:ec:94:d6:f9:cb:48:bc:e4
        Signature Algorithm: sha256WithRSAEncryption
        Issuer: CN=team256-net
        Validity
            Not Before: Nov  4 10:45:27 2023 GMT
            Not After : Oct 19 10:45:27 2026 GMT
        Subject: CN=team256-server
        Subject Public Key Info:
            Public Key Algorithm: rsaEncryption
                Public-Key: (2048 bit)
                Modulus:
                    00:c3:2a:0f:14:de:61:24:d0:26:c8:2c:90:a7:e1:
                    47:34:4d:b5:c4:e5:02:26:af:f6:33:65:1f:13:e6:
                    bb:7a:fc:5b:2b:77:6d:74:d0:2c:f2:c8:81:b1:56:
                    f4:2a:08:6d:4e:e1:99:6d:00:a5:e1:f7:8d:a7:46:
                    3e:62:bc:03:b2:a8:f0:03:03:a3:4e:94:96:7b:09:
                    58:95:c9:48:70:7c:70:4e:5f:8f:65:2f:05:82:87:
                    44:1a:50:f2:82:71:f1:da:fe:63:4f:54:bb:96:2c:
                    6f:53:1f:d9:7f:e1:c9:60:8b:76:e7:8e:e0:77:93:
                    5d:f0:f6:fa:43:c6:ff:ad:dd:c6:57:eb:c4:e6:d4:
                    f4:f3:a7:28:ed:b8:c5:07:d0:08:cd:af:47:6c:7e:
                    80:03:54:ff:14:af:64:5d:70:86:41:38:73:68:73:
                    6a:2a:34:cc:88:75:0f:39:05:f9:f4:fb:21:0a:6d:
                    4b:35:f8:bb:ff:94:68:1a:49:ad:31:7e:29:69:e9:
                    6e:76:ff:2f:74:d2:df:f3:c8:cb:15:e6:78:e5:29:
                    6a:d8:d4:37:98:3e:ea:6b:ae:bc:dc:11:a2:c4:68:
                    a5:78:0e:07:a5:86:e1:83:5a:67:9c:c9:20:98:ca:
                    bd:8b:aa:67:b7:b9:6e:de:5c:11:ce:f3:76:6b:00:
                    dd:5b
                Exponent: 65537 (0x10001)
        X509v3 extensions:
            X509v3 Basic Constraints: 
                CA:FALSE
            X509v3 Subject Key Identifier: 
                F8:86:65:67:C0:7A:2A:BD:E0:64:F8:D8:9D:1F:22:09:D4:93:53:5C
            X509v3 Authority Key Identifier: 
                keyid:92:38:14:29:87:7D:4E:CA:02:65:DA:7B:D3:36:E5:73:D3:40:87:9B
                DirName:/CN=team256-net
                serial:1D:C8:F6:C5:B3:E5:E5:E2:01:89:A7:E0:F8:27:C1:E6:5C:48:C3:01
            X509v3 Extended Key Usage: 
                TLS Web Server Authentication
            X509v3 Key Usage: 
                Digital Signature, Key Encipherment
            X509v3 Subject Alternative Name: 
                DNS:team256-server
    Signature Algorithm: sha256WithRSAEncryption
    Signature Value:
        16:f5:08:3c:43:01:d7:a1:0b:40:47:e5:e2:4f:d2:eb:83:f5:
        e5:ed:da:ff:ba:22:22:c3:14:b8:f3:f8:d2:aa:90:6f:e1:3d:
        2c:1c:3b:d6:3e:5d:ca:f2:16:35:11:4b:4c:45:33:a7:46:b5:
        ce:9e:81:5d:a4:73:7c:c4:cd:3e:c0:56:6b:e6:74:f1:07:d9:
        23:f0:3c:24:6a:d1:ab:df:11:c3:d8:6c:b0:e3:80:5e:44:0a:
        7e:34:c7:57:ae:5a:24:11:f9:16:fb:4f:5c:7f:ec:26:b8:9a:
        45:00:b7:44:c1:55:34:23:48:8b:b1:43:75:8e:cc:5b:dd:e9:
        96:53:45:19:b8:f3:1f:bd:1e:c2:6c:83:62:f5:0a:5f:23:7a:
        61:3d:7c:32:a0:d7:f2:ee:ee:bd:77:11:ef:9c:7a:d5:6d:34:
        71:b4:cb:6d:d4:61:09:0f:85:3d:8b:a5:34:cc:04:1e:fd:7d:
        96:2d:99:89:4c:fe:62:04:4e:fc:ba:8a:76:f6:8d:8a:5b:46:
        f5:0b:4d:99:d5:73:cc:63:53:e2:c9:11:39:12:fb:dd:d9:3c:
        0e:d7:c2:03:2b:48:72:4c:63:98:e7:af:6a:04:4a:a1:8c:a5:
        fe:43:b8:cd:10:54:3f:07:5c:9e:20:16:72:54:de:d8:46:31:
        35:9b:c8:0a
-----BEGIN CERTIFICATE-----
MIIDeDCCAmCgAwIBAgIRAIEtAFag2THe7JTW+ctIvOQwDQYJKoZIhvcNAQELBQAw
FjEUMBIGA1UEAwwLdGVhbTI1Ni1uZXQwHhcNMjMxMTA0MTA0NTI3WhcNMjYxMDE5
MTA0NTI3WjAZMRcwFQYDVQQDDA50ZWFtMjU2LXNlcnZlcjCCASIwDQYJKoZIhvcN
AQEBBQADggEPADCCAQoCggEBAMMqDxTeYSTQJsgskKfhRzRNtcTlAiav9jNlHxPm
u3r8Wyt3bXTQLPLIgbFW9CoIbU7hmW0ApeH3jadGPmK8A7Ko8AMDo06UlnsJWJXJ
SHB8cE5fj2UvBYKHRBpQ8oJx8dr+Y09Uu5Ysb1Mf2X/hyWCLdueO4HeTXfD2+kPG
/63dxlfrxObU9POnKO24xQfQCM2vR2x+gANU/xSvZF1whkE4c2hzaio0zIh1DzkF
+fT7IQptSzX4u/+UaBpJrTF+KWnpbnb/L3TS3/PIyxXmeOUpatjUN5g+6muuvNwR
osRopXgOB6WG4YNaZ5zJIJjKvYuqZ7e5bt5cEc7zdmsA3VsCAwEAAaOBvTCBujAJ
BgNVHRMEAjAAMB0GA1UdDgQWBBT4hmVnwHoqveBk+NidHyIJ1JNTXDBRBgNVHSME
SjBIgBSSOBQph31OygJl2nvTNuVz00CHm6EapBgwFjEUMBIGA1UEAwwLdGVhbTI1
Ni1uZXSCFB3I9sWz5eXiAYmn4PgnweZcSMMBMBMGA1UdJQQMMAoGCCsGAQUFBwMB
MAsGA1UdDwQEAwIFoDAZBgNVHREEEjAQgg50ZWFtMjU2LXNlcnZlcjANBgkqhkiG
9w0BAQsFAAOCAQEAFvUIPEMB16ELQEfl4k/S64P15e3a/7oiIsMUuPP40qqQb+E9
LBw71j5dyvIWNRFLTEUzp0a1zp6BXaRzfMTNPsBWa+Z08QfZI/A8JGrRq98Rw9hs
sOOAXkQKfjTHV65aJBH5FvtPXH/sJriaRQC3RMFVNCNIi7FDdY7MW93pllNFGbjz
H70ewmyDYvUKXyN6YT18MqDX8u7uvXcR75x61W00cbTLbdRhCQ+FPYulNMwEHv19
li2ZiUz+YgRO/LqKdvaNiltG9QtNmdVzzGNT4skRORL73dk8DtfCAytIckxjmOev
agRKoYyl/kO4zRBUPwdcniAWclTe2EYxNZvICg==
-----END CERTIFICATE-----
