Certificate:
    Data:
        Version: 3 (0x2)
        Serial Number:
            f6:70:9f:42:b6:95:b0:3c:db:4a:fb:c7:ff:09:d2:c3
        Signature Algorithm: sha256WithRSAEncryption
        Issuer: CN=team256-net
        Validity
            Not Before: Nov  4 11:32:42 2023 GMT
            Not After : Oct 19 11:32:42 2026 GMT
        Subject: CN=team256-server
        Subject Public Key Info:
            Public Key Algorithm: rsaEncryption
                Public-Key: (2048 bit)
                Modulus:
                    00:af:c6:c3:c1:d1:81:3e:2d:8d:68:e0:f1:91:0f:
                    94:3e:87:cd:3a:64:91:62:22:da:cb:96:b6:40:48:
                    b8:b5:e6:a9:04:c6:0d:9b:16:5c:18:e6:5d:5e:84:
                    5d:43:f8:5a:1a:f6:ba:ca:2f:f7:df:07:16:45:99:
                    a5:6a:4f:ce:8a:ed:6a:7b:c5:2e:3e:c1:f2:be:bc:
                    61:89:a6:09:2a:59:19:fa:20:93:97:7a:8d:29:88:
                    fe:e7:6e:4f:2d:a2:fd:8a:c9:51:12:3f:c7:4b:8e:
                    89:51:a5:06:9e:f8:20:94:11:be:11:c8:19:4e:82:
                    4f:3a:14:c6:f5:37:e0:38:b4:96:13:36:5e:64:7b:
                    bc:2e:17:e6:b1:00:6b:26:aa:5d:18:73:31:f4:be:
                    01:42:af:46:d8:98:f0:bb:38:b8:3f:12:e4:e1:94:
                    9a:11:19:06:ad:bc:2e:c8:8b:54:6a:d5:20:4b:d8:
                    c0:ec:77:d8:d7:8e:01:d3:c7:30:6b:9a:4f:1d:16:
                    63:7e:f2:bf:7e:0b:5d:fa:71:8b:0d:ab:2d:f7:a4:
                    42:65:5e:f5:a1:e4:f6:d5:75:2f:08:bb:04:a2:ef:
                    8d:27:d1:dd:61:ea:78:ae:92:cd:14:83:20:cb:ba:
                    5e:c4:05:61:c8:54:f1:0d:f7:c5:18:25:5f:8c:00:
                    12:3b
                Exponent: 65537 (0x10001)
        X509v3 extensions:
            X509v3 Basic Constraints: 
                CA:FALSE
            X509v3 Subject Key Identifier: 
                C9:B4:B9:D4:A7:D8:3C:E8:D0:6B:6C:F1:EF:98:95:D6:44:AF:99:44
            X509v3 Authority Key Identifier: 
                keyid:D0:3D:0C:0E:61:9E:B4:83:F9:BB:0A:AE:78:B1:C6:18:67:DA:5B:06
                DirName:/CN=team256-net
                serial:36:FC:CF:75:E6:A7:41:4D:B4:ED:05:E7:CC:E7:60:69:57:25:46:52
            X509v3 Extended Key Usage: 
                TLS Web Server Authentication
            X509v3 Key Usage: 
                Digital Signature, Key Encipherment
            X509v3 Subject Alternative Name: 
                DNS:team256-server
    Signature Algorithm: sha256WithRSAEncryption
    Signature Value:
        6d:80:72:07:5f:bb:51:52:ce:da:c0:6c:32:34:b9:ee:00:b8:
        94:41:d7:bb:0b:8b:79:d4:86:31:d8:1e:6d:1f:4e:55:48:ff:
        ac:1d:39:9d:19:dc:df:02:d9:eb:2b:86:a6:bd:a7:14:32:f7:
        3c:89:75:83:d7:8a:a3:77:05:de:94:4f:71:ab:61:30:df:25:
        60:70:6d:ce:fe:02:a7:90:b7:98:6a:ca:0f:5a:f5:52:61:cd:
        98:6f:5c:3e:e1:f0:a2:4f:69:e0:06:b0:dd:11:14:05:5d:18:
        79:97:b0:21:65:26:86:91:ec:f0:a5:d7:05:76:6d:93:2b:15:
        a3:2f:6d:db:6f:e3:2a:6a:9e:a4:ca:fb:05:ab:64:8f:4c:6e:
        e9:a9:9b:e7:bc:e9:67:3d:c6:d0:d4:48:e6:2d:48:ec:f9:92:
        c5:b0:26:59:73:fc:50:92:37:f8:8b:d6:58:f8:10:9a:8c:28:
        81:f8:8f:db:44:c4:fa:50:d1:ab:84:42:26:3c:bd:6c:e7:7f:
        17:92:8a:92:3a:55:b5:ef:8d:0c:04:92:ab:77:07:51:be:6c:
        98:26:ad:c6:44:28:90:82:1c:3a:5b:5d:16:82:b6:e2:c0:12:
        47:f6:eb:db:d8:77:41:ab:d8:a4:2a:e3:25:0d:7f:e9:5c:b1:
        c3:a4:db:72
-----BEGIN CERTIFICATE-----
MIIDeDCCAmCgAwIBAgIRAPZwn0K2lbA820r7x/8J0sMwDQYJKoZIhvcNAQELBQAw
FjEUMBIGA1UEAwwLdGVhbTI1Ni1uZXQwHhcNMjMxMTA0MTEzMjQyWhcNMjYxMDE5
MTEzMjQyWjAZMRcwFQYDVQQDDA50ZWFtMjU2LXNlcnZlcjCCASIwDQYJKoZIhvcN
AQEBBQADggEPADCCAQoCggEBAK/Gw8HRgT4tjWjg8ZEPlD6HzTpkkWIi2suWtkBI
uLXmqQTGDZsWXBjmXV6EXUP4Whr2usov998HFkWZpWpPzortanvFLj7B8r68YYmm
CSpZGfogk5d6jSmI/uduTy2i/YrJURI/x0uOiVGlBp74IJQRvhHIGU6CTzoUxvU3
4Di0lhM2XmR7vC4X5rEAayaqXRhzMfS+AUKvRtiY8Ls4uD8S5OGUmhEZBq28LsiL
VGrVIEvYwOx32NeOAdPHMGuaTx0WY37yv34LXfpxiw2rLfekQmVe9aHk9tV1Lwi7
BKLvjSfR3WHqeK6SzRSDIMu6XsQFYchU8Q33xRglX4wAEjsCAwEAAaOBvTCBujAJ
BgNVHRMEAjAAMB0GA1UdDgQWBBTJtLnUp9g86NBrbPHvmJXWRK+ZRDBRBgNVHSME
SjBIgBTQPQwOYZ60g/m7Cq54scYYZ9pbBqEapBgwFjEUMBIGA1UEAwwLdGVhbTI1
Ni1uZXSCFDb8z3Xmp0FNtO0F58znYGlXJUZSMBMGA1UdJQQMMAoGCCsGAQUFBwMB
MAsGA1UdDwQEAwIFoDAZBgNVHREEEjAQgg50ZWFtMjU2LXNlcnZlcjANBgkqhkiG
9w0BAQsFAAOCAQEAbYByB1+7UVLO2sBsMjS57gC4lEHXuwuLedSGMdgebR9OVUj/
rB05nRnc3wLZ6yuGpr2nFDL3PIl1g9eKo3cF3pRPcathMN8lYHBtzv4Cp5C3mGrK
D1r1UmHNmG9cPuHwok9p4Aaw3REUBV0YeZewIWUmhpHs8KXXBXZtkysVoy9t22/j
KmqepMr7Batkj0xu6amb57zpZz3G0NRI5i1I7PmSxbAmWXP8UJI3+IvWWPgQmowo
gfiP20TE+lDRq4RCJjy9bOd/F5KKkjpVte+NDASSq3cHUb5smCatxkQokIIcOltd
FoK24sASR/br29h3QavYpCrjJQ1/6Vyxw6Tbcg==
-----END CERTIFICATE-----
