Certificate:
    Data:
        Version: 3 (0x2)
        Serial Number:
            2d:36:57:2c:f5:c4:4a:a0:21:a6:e5:5a:cc:fd:a4:e3
        Signature Algorithm: sha256WithRSAEncryption
        Issuer: CN=team85-net
        Validity
            Not Before: Nov  4 11:29:01 2023 GMT
            Not After : Oct 19 11:29:01 2026 GMT
        Subject: CN=team85-server
        Subject Public Key Info:
            Public Key Algorithm: rsaEncryption
                Public-Key: (2048 bit)
                Modulus:
                    00:a3:1a:9c:0c:84:5d:da:23:5c:af:b7:56:cc:42:
                    85:14:3e:87:de:05:95:95:02:bd:9c:f9:8d:da:e5:
                    1b:9e:30:25:49:17:c0:29:91:9e:2e:9a:2b:2d:3c:
                    96:2b:46:d4:42:3e:0b:d2:a5:e5:2f:30:7e:b1:00:
                    89:6c:b6:69:87:56:ec:5e:cf:4b:c8:cf:08:bd:d9:
                    e4:b5:aa:0a:d6:d6:65:74:8b:c2:cf:ea:14:15:6c:
                    ca:9b:9d:90:75:f9:77:af:90:57:26:22:59:36:9f:
                    10:22:78:e0:a6:2c:c0:e7:ce:d1:cf:06:53:f8:01:
                    55:89:93:ee:e6:03:82:ab:bc:6c:af:08:fe:c1:56:
                    32:f1:7a:df:91:24:16:86:a6:27:9b:f0:84:c7:d9:
                    74:96:33:ed:d0:a3:d9:af:48:32:50:ac:ab:2b:2e:
                    a1:23:e1:a1:03:ec:ed:df:9c:f2:07:8a:45:41:0d:
                    54:7e:e5:d8:ea:a4:f4:69:2f:88:5b:43:b1:e4:bb:
                    31:06:6f:b3:6c:d6:09:0e:ac:2c:39:80:3c:74:a6:
                    e5:fb:2b:13:84:b7:e9:14:06:86:20:57:69:e5:ca:
                    76:cf:ec:0c:8b:4f:67:be:01:b1:73:ab:ba:f9:31:
                    c2:e0:f5:95:b5:57:5f:a9:a8:ec:b9:5d:22:70:68:
                    08:f7
                Exponent: 65537 (0x10001)
        X509v3 extensions:
            X509v3 Basic Constraints: 
                CA:FALSE
            X509v3 Subject Key Identifier: 
                8C:40:B4:51:7C:45:88:26:82:CC:F4:87:E4:C1:6B:A5:64:8A:46:65
            X509v3 Authority Key Identifier: 
                keyid:49:6F:85:7F:2C:1D:85:9D:E8:B7:BA:EC:2C:E1:E2:DF:DA:C8:A2:43
                DirName:/CN=team85-net
                serial:14:A0:81:61:E3:0E:C7:FA:ED:F8:2F:5C:0C:9B:9E:AC:58:54:40:5F
            X509v3 Extended Key Usage: 
                TLS Web Server Authentication
            X509v3 Key Usage: 
                Digital Signature, Key Encipherment
            X509v3 Subject Alternative Name: 
                DNS:team85-server
    Signature Algorithm: sha256WithRSAEncryption
    Signature Value:
        17:24:09:b7:75:22:08:98:e7:89:a6:c4:5a:06:2a:ef:83:42:
        85:11:fe:66:e7:90:ee:98:17:2b:ba:f2:83:04:0e:f4:59:69:
        09:a9:ce:37:10:58:3d:7b:98:6a:ea:f9:fb:81:a3:1e:fc:77:
        57:cc:f3:ad:af:74:ca:69:bf:5a:b1:0f:66:18:a4:c5:a3:2f:
        c9:bf:33:be:c2:99:80:41:9e:cd:ca:4a:97:26:ed:87:00:ab:
        e4:f2:ae:1b:c8:03:54:1e:20:2a:36:d4:d7:76:d6:9c:b3:e4:
        00:b9:4b:2a:70:7d:e5:92:6e:41:21:47:99:6a:9a:4d:89:ae:
        b1:26:7b:37:b3:2b:99:14:00:13:82:0f:65:28:2d:10:61:90:
        fd:1f:d8:50:50:a8:85:30:b8:db:68:fd:26:6e:e0:1d:e6:ed:
        38:34:b6:15:e2:c2:ec:03:32:88:7f:11:28:60:df:10:34:bd:
        2a:f0:19:a9:f9:28:94:71:8e:09:9b:3f:60:26:da:7a:c5:53:
        81:2f:86:f5:36:e4:e4:fd:38:44:c0:19:4a:a0:30:6b:45:73:
        6f:5b:92:2d:93:01:81:51:bc:56:e2:5f:08:e9:87:fa:df:ab:
        cb:7c:ba:80:17:3a:40:5f:86:0b:21:50:ba:d0:05:17:c3:f5:
        ff:9f:ff:89
-----BEGIN CERTIFICATE-----
MIIDczCCAlugAwIBAgIQLTZXLPXESqAhpuVazP2k4zANBgkqhkiG9w0BAQsFADAV
MRMwEQYDVQQDDAp0ZWFtODUtbmV0MB4XDTIzMTEwNDExMjkwMVoXDTI2MTAxOTEx
MjkwMVowGDEWMBQGA1UEAwwNdGVhbTg1LXNlcnZlcjCCASIwDQYJKoZIhvcNAQEB
BQADggEPADCCAQoCggEBAKManAyEXdojXK+3VsxChRQ+h94FlZUCvZz5jdrlG54w
JUkXwCmRni6aKy08litG1EI+C9Kl5S8wfrEAiWy2aYdW7F7PS8jPCL3Z5LWqCtbW
ZXSLws/qFBVsypudkHX5d6+QVyYiWTafECJ44KYswOfO0c8GU/gBVYmT7uYDgqu8
bK8I/sFWMvF635EkFoamJ5vwhMfZdJYz7dCj2a9IMlCsqysuoSPhoQPs7d+c8geK
RUENVH7l2Oqk9GkviFtDseS7MQZvs2zWCQ6sLDmAPHSm5fsrE4S36RQGhiBXaeXK
ds/sDItPZ74BsXOruvkxwuD1lbVXX6mo7LldInBoCPcCAwEAAaOBuzCBuDAJBgNV
HRMEAjAAMB0GA1UdDgQWBBSMQLRRfEWIJoLM9IfkwWulZIpGZTBQBgNVHSMESTBH
gBRJb4V/LB2Fnei3uuws4eLf2siiQ6EZpBcwFTETMBEGA1UEAwwKdGVhbTg1LW5l
dIIUFKCBYeMOx/rt+C9cDJuerFhUQF8wEwYDVR0lBAwwCgYIKwYBBQUHAwEwCwYD
VR0PBAQDAgWgMBgGA1UdEQQRMA+CDXRlYW04NS1zZXJ2ZXIwDQYJKoZIhvcNAQEL
BQADggEBABckCbd1IgiY54mmxFoGKu+DQoUR/mbnkO6YFyu68oMEDvRZaQmpzjcQ
WD17mGrq+fuBox78d1fM862vdMppv1qxD2YYpMWjL8m/M77CmYBBns3KSpcm7YcA
q+TyrhvIA1QeICo21Nd21pyz5AC5SypwfeWSbkEhR5lqmk2JrrEmezezK5kUABOC
D2UoLRBhkP0f2FBQqIUwuNto/SZu4B3m7Tg0thXiwuwDMoh/EShg3xA0vSrwGan5
KJRxjgmbP2Am2nrFU4EvhvU25OT9OETAGUqgMGtFc29bki2TAYFRvFbiXwjph/rf
q8t8uoAXOkBfhgshULrQBRfD9f+f/4k=
-----END CERTIFICATE-----
