Certificate:
    Data:
        Version: 3 (0x2)
        Serial Number:
            94:d1:2b:1f:64:bc:ea:8f:4a:c2:6f:f3:41:74:b7
        Signature Algorithm: sha256WithRSAEncryption
        Issuer: CN=team85-net
        Validity
            Not Before: Nov  4 10:41:59 2023 GMT
            Not After : Oct 19 10:41:59 2026 GMT
        Subject: CN=team85-client
        Subject Public Key Info:
            Public Key Algorithm: rsaEncryption
                Public-Key: (2048 bit)
                Modulus:
                    00:db:7c:76:cf:00:cb:95:78:4e:ee:36:7a:2d:8d:
                    b8:fe:3b:23:56:ab:c3:36:97:70:13:f7:58:fd:4f:
                    16:8b:35:73:a0:9d:54:b4:31:fd:c3:73:cf:0d:26:
                    ce:2f:42:ee:cb:89:77:10:7d:e4:8e:72:57:1e:ad:
                    fb:48:bd:05:0c:9f:4c:6f:79:a0:2f:3f:96:f2:78:
                    54:e2:97:33:81:56:5a:00:59:9a:5f:3b:4b:e8:f3:
                    87:ba:b5:46:76:0c:7b:c3:41:9c:9d:4c:2b:a4:95:
                    d0:84:d4:be:79:43:48:7f:8b:a0:cb:b9:17:82:a2:
                    be:91:a4:c8:b5:44:fa:96:90:3a:7b:37:62:08:8d:
                    41:b0:1a:53:5e:00:32:37:75:4c:39:c6:3c:d8:6e:
                    8c:b2:90:44:4f:b1:94:09:7f:dc:e8:d8:bb:d3:68:
                    04:cc:ee:db:8e:8c:9e:50:cc:83:3c:e0:c6:2d:a5:
                    cd:a0:30:7e:23:63:c3:d3:cf:52:8a:ff:00:ea:1e:
                    ad:6c:2b:ea:71:f3:44:11:2c:e3:3f:6d:4e:e4:3f:
                    35:a1:fa:91:a3:64:9f:5a:f6:cd:8d:a5:1d:c8:03:
                    d3:81:57:a7:55:cf:1f:b0:c6:38:3c:9b:77:a6:bb:
                    16:80:ef:90:bd:c8:3f:24:2b:98:ec:e0:94:77:67:
                    b1:db
                Exponent: 65537 (0x10001)
        X509v3 extensions:
            X509v3 Basic Constraints: 
                CA:FALSE
            X509v3 Subject Key Identifier: 
                03:39:7D:B0:39:E9:FB:DE:C6:40:32:A9:63:BB:F9:81:96:D0:04:75
            X509v3 Authority Key Identifier: 
                keyid:2C:2B:DD:FF:44:EE:16:CF:A9:5C:84:E1:27:75:47:45:50:D9:53:F7
                DirName:/CN=team85-net
                serial:60:A5:C7:94:0E:C2:DB:C7:B5:FC:45:A9:CF:4A:1B:98:8C:6E:43:FE
            X509v3 Extended Key Usage: 
                TLS Web Client Authentication
            X509v3 Key Usage: 
                Digital Signature
    Signature Algorithm: sha256WithRSAEncryption
    Signature Value:
        91:34:b0:b5:54:7f:0a:b9:20:ad:59:63:0d:08:3d:81:be:e1:
        6f:2b:ed:b2:44:18:5d:a4:bd:46:74:f1:c1:8d:af:5d:90:88:
        91:1b:33:13:a7:2a:52:57:eb:05:ab:b6:c0:a7:07:d5:da:63:
        77:04:2f:5a:4b:0b:6a:aa:28:a2:0a:5c:cc:ad:cc:9a:d6:d3:
        a6:70:5e:57:f4:12:07:36:ad:f7:17:b4:01:ae:86:29:94:f8:
        47:b3:67:28:8d:d0:c7:77:78:8a:4b:3e:a1:31:b6:9f:e3:6b:
        36:9f:5f:36:64:2d:59:8f:d6:71:83:b1:21:ef:bc:c4:34:39:
        65:8e:5f:f1:62:34:7d:5e:d5:c3:57:64:a5:08:54:cf:ac:f0:
        e8:8b:d2:d6:26:a1:90:01:60:cf:30:c9:1c:f5:06:77:cd:19:
        53:19:0f:5e:a2:9c:7b:2d:31:93:c0:d0:42:c4:d8:2e:05:f3:
        3b:05:82:22:60:00:07:88:9b:17:4d:8d:b9:24:5a:be:ca:be:
        fa:17:51:41:4f:4c:25:dd:32:7e:35:bf:da:a9:da:2f:7a:76:
        43:5e:16:11:8b:b4:a3:62:e8:79:ed:c4:b1:2b:d7:39:50:ba:
        0c:a4:fa:5e:20:f9:3a:f0:59:1e:e4:03:64:a1:9b:fa:d6:14:
        df:96:1c:8c
-----BEGIN CERTIFICATE-----
MIIDWTCCAkGgAwIBAgIQAJTRKx9kvOqPSsJv80F0tzANBgkqhkiG9w0BAQsFADAV
MRMwEQYDVQQDDAp0ZWFtODUtbmV0MB4XDTIzMTEwNDEwNDE1OVoXDTI2MTAxOTEw
NDE1OVowGDEWMBQGA1UEAwwNdGVhbTg1LWNsaWVudDCCASIwDQYJKoZIhvcNAQEB
BQADggEPADCCAQoCggEBANt8ds8Ay5V4Tu42ei2NuP47I1arwzaXcBP3WP1PFos1
c6CdVLQx/cNzzw0mzi9C7suJdxB95I5yVx6t+0i9BQyfTG95oC8/lvJ4VOKXM4FW
WgBZml87S+jzh7q1RnYMe8NBnJ1MK6SV0ITUvnlDSH+LoMu5F4KivpGkyLVE+paQ
Ons3YgiNQbAaU14AMjd1TDnGPNhujLKQRE+xlAl/3OjYu9NoBMzu246MnlDMgzzg
xi2lzaAwfiNjw9PPUor/AOoerWwr6nHzRBEs4z9tTuQ/NaH6kaNkn1r2zY2lHcgD
04FXp1XPH7DGODybd6a7FoDvkL3IPyQrmOzglHdnsdsCAwEAAaOBoTCBnjAJBgNV
HRMEAjAAMB0GA1UdDgQWBBQDOX2wOen73sZAMqlju/mBltAEdTBQBgNVHSMESTBH
gBQsK93/RO4Wz6lchOEndUdFUNlT96EZpBcwFTETMBEGA1UEAwwKdGVhbTg1LW5l
dIIUYKXHlA7C28e1/EWpz0obmIxuQ/4wEwYDVR0lBAwwCgYIKwYBBQUHAwIwCwYD
VR0PBAQDAgeAMA0GCSqGSIb3DQEBCwUAA4IBAQCRNLC1VH8KuSCtWWMNCD2BvuFv
K+2yRBhdpL1GdPHBja9dkIiRGzMTpypSV+sFq7bApwfV2mN3BC9aSwtqqiiiClzM
rcya1tOmcF5X9BIHNq33F7QBroYplPhHs2cojdDHd3iKSz6hMbaf42s2n182ZC1Z
j9Zxg7Eh77zENDlljl/xYjR9XtXDV2SlCFTPrPDoi9LWJqGQAWDPMMkc9QZ3zRlT
GQ9eopx7LTGTwNBCxNguBfM7BYIiYAAHiJsXTY25JFq+yr76F1FBT0wl3TJ+Nb/a
qdovenZDXhYRi7SjYuh57cSxK9c5ULoMpPpeIPk68Fke5ANkoZv61hTflhyM
-----END CERTIFICATE-----
