Certificate:
    Data:
        Version: 3 (0x2)
        Serial Number:
            a0:42:8e:13:49:45:80:c1:a4:ff:19:fc:38:8b:bb:9c
        Signature Algorithm: sha256WithRSAEncryption
        Issuer: CN=team85-net
        Validity
            Not Before: Nov  4 10:41:59 2023 GMT
            Not After : Oct 19 10:41:59 2026 GMT
        Subject: CN=team85-server
        Subject Public Key Info:
            Public Key Algorithm: rsaEncryption
                Public-Key: (2048 bit)
                Modulus:
                    00:ba:66:8e:3d:04:b9:6e:8d:ff:61:57:28:ff:49:
                    2d:cd:2e:f0:2b:f2:d1:d9:af:1c:8c:f1:32:48:df:
                    de:1f:2f:69:f6:20:6d:cf:51:4f:75:bc:e3:49:eb:
                    e8:47:30:af:b4:49:bd:a5:3c:d7:59:aa:4c:4d:6d:
                    72:2b:71:00:79:6a:aa:d8:b9:4e:1e:06:59:93:36:
                    92:28:6e:a8:fa:bb:b0:33:6a:a9:53:17:47:b7:15:
                    ef:10:c8:12:02:04:ab:d6:c5:bc:f1:22:49:a6:89:
                    ed:d9:ec:64:cf:68:78:94:91:4f:c1:9b:0d:bc:7e:
                    08:ad:8f:86:70:55:dc:db:a1:59:9a:1f:9f:64:d0:
                    31:60:5a:c1:58:79:c8:ff:46:a4:e3:f2:8c:7a:66:
                    5b:0f:a1:f7:43:2d:7c:ef:d1:30:27:ce:15:56:56:
                    d9:4d:2a:be:cc:b6:7a:ab:6e:5b:a9:3b:6b:20:90:
                    bc:74:e4:5e:93:3b:90:d4:03:14:d9:8c:03:99:5f:
                    41:08:ec:1e:10:97:a9:18:fb:75:d3:84:aa:82:14:
                    9f:46:36:d5:39:f3:0d:4d:9a:6e:54:14:1a:92:5c:
                    03:9d:34:c5:11:2a:12:6b:13:13:ed:b9:c6:3d:22:
                    25:cd:8f:a4:83:85:13:4a:1b:13:05:3b:e3:a7:c0:
                    c7:79
                Exponent: 65537 (0x10001)
        X509v3 extensions:
            X509v3 Basic Constraints: 
                CA:FALSE
            X509v3 Subject Key Identifier: 
                27:DE:3C:F5:D0:3D:20:62:76:46:89:54:5A:3C:17:BB:9A:BE:C9:24
            X509v3 Authority Key Identifier: 
                keyid:2C:2B:DD:FF:44:EE:16:CF:A9:5C:84:E1:27:75:47:45:50:D9:53:F7
                DirName:/CN=team85-net
                serial:60:A5:C7:94:0E:C2:DB:C7:B5:FC:45:A9:CF:4A:1B:98:8C:6E:43:FE
            X509v3 Extended Key Usage: 
                TLS Web Server Authentication
            X509v3 Key Usage: 
                Digital Signature, Key Encipherment
            X509v3 Subject Alternative Name: 
                DNS:team85-server
    Signature Algorithm: sha256WithRSAEncryption
    Signature Value:
        81:88:1b:3e:3f:c8:83:cd:b4:a4:a3:e3:22:20:1a:fa:18:25:
        b1:61:a5:ca:33:d9:df:67:81:48:83:7a:c9:25:69:c0:b0:4e:
        2f:43:6f:58:ae:60:07:c4:0b:19:64:5b:2e:25:01:37:cc:9e:
        f3:70:d8:58:b8:bf:3f:d9:e2:01:70:cf:11:d9:08:1c:a2:4c:
        a3:ca:15:a2:51:3c:36:19:38:c2:fc:33:f1:06:c9:69:5d:3c:
        3e:e7:ca:65:a1:3b:b3:6c:96:06:00:b4:ea:4f:9b:86:6b:07:
        20:5f:b7:e1:3c:d5:89:4a:73:16:da:f7:c9:53:76:d5:0c:9d:
        8c:14:8b:90:a3:9d:e2:73:18:ab:85:57:3b:5f:c8:d1:e4:cf:
        ba:a6:bf:f9:08:55:0a:31:7d:21:50:a2:2f:c9:b7:62:78:01:
        1c:8c:2f:d7:04:c9:41:17:f0:e8:0c:32:9b:0a:de:b5:c2:f4:
        c5:e7:14:ff:77:b5:09:72:d5:19:28:65:00:6d:72:59:2e:15:
        e3:ca:3b:76:61:7f:04:fa:e2:40:54:9c:9a:cd:8d:94:f1:fb:
        22:9f:c6:45:88:62:65:90:a3:78:d9:80:ef:a1:75:7e:43:ba:
        88:08:77:bc:df:5d:ab:c7:36:a9:20:70:f5:fb:43:69:b1:49:
        45:1f:44:96
-----BEGIN CERTIFICATE-----
MIIDdDCCAlygAwIBAgIRAKBCjhNJRYDBpP8Z/DiLu5wwDQYJKoZIhvcNAQELBQAw
FTETMBEGA1UEAwwKdGVhbTg1LW5ldDAeFw0yMzExMDQxMDQxNTlaFw0yNjEwMTkx
MDQxNTlaMBgxFjAUBgNVBAMMDXRlYW04NS1zZXJ2ZXIwggEiMA0GCSqGSIb3DQEB
AQUAA4IBDwAwggEKAoIBAQC6Zo49BLlujf9hVyj/SS3NLvAr8tHZrxyM8TJI394f
L2n2IG3PUU91vONJ6+hHMK+0Sb2lPNdZqkxNbXIrcQB5aqrYuU4eBlmTNpIobqj6
u7AzaqlTF0e3Fe8QyBICBKvWxbzxIkmmie3Z7GTPaHiUkU/Bmw28fgitj4ZwVdzb
oVmaH59k0DFgWsFYecj/RqTj8ox6ZlsPofdDLXzv0TAnzhVWVtlNKr7Mtnqrblup
O2sgkLx05F6TO5DUAxTZjAOZX0EI7B4Ql6kY+3XThKqCFJ9GNtU58w1Nmm5UFBqS
XAOdNMURKhJrExPtucY9IiXNj6SDhRNKGxMFO+OnwMd5AgMBAAGjgbswgbgwCQYD
VR0TBAIwADAdBgNVHQ4EFgQUJ9489dA9IGJ2RolUWjwXu5q+ySQwUAYDVR0jBEkw
R4AULCvd/0TuFs+pXIThJ3VHRVDZU/ehGaQXMBUxEzARBgNVBAMMCnRlYW04NS1u
ZXSCFGClx5QOwtvHtfxFqc9KG5iMbkP+MBMGA1UdJQQMMAoGCCsGAQUFBwMBMAsG
A1UdDwQEAwIFoDAYBgNVHREEETAPgg10ZWFtODUtc2VydmVyMA0GCSqGSIb3DQEB
CwUAA4IBAQCBiBs+P8iDzbSko+MiIBr6GCWxYaXKM9nfZ4FIg3rJJWnAsE4vQ29Y
rmAHxAsZZFsuJQE3zJ7zcNhYuL8/2eIBcM8R2QgcokyjyhWiUTw2GTjC/DPxBslp
XTw+58ploTuzbJYGALTqT5uGawcgX7fhPNWJSnMW2vfJU3bVDJ2MFIuQo53icxir
hVc7X8jR5M+6pr/5CFUKMX0hUKIvybdieAEcjC/XBMlBF/DoDDKbCt61wvTF5xT/
d7UJctUZKGUAbXJZLhXjyjt2YX8E+uJAVJyazY2U8fsin8ZFiGJlkKN42YDvoXV+
Q7qICHe8312rxzapIHD1+0NpsUlFH0SW
-----END CERTIFICATE-----
