Certificate:
    Data:
        Version: 3 (0x2)
        Serial Number:
            b0:82:26:8b:3e:c2:83:26:9c:97:c0:9d:e9:82:86:f2
        Signature Algorithm: sha256WithRSAEncryption
        Issuer: CN=team85-net
        Validity
            Not Before: Nov  3 20:40:40 2023 GMT
            Not After : Oct 18 20:40:40 2026 GMT
        Subject: CN=team85-server
        Subject Public Key Info:
            Public Key Algorithm: rsaEncryption
                Public-Key: (2048 bit)
                Modulus:
                    00:b7:33:01:13:c1:64:1c:33:97:42:9e:f9:04:55:
                    6d:c5:67:9c:b3:ec:d2:24:8e:61:50:fc:71:1f:10:
                    4d:36:8a:58:68:89:83:ae:17:03:85:5f:1d:c9:2e:
                    ce:84:b0:a1:0d:83:ea:78:36:56:06:ab:df:14:50:
                    3e:a9:3f:1c:e8:74:96:2a:56:fb:a5:86:5c:88:c6:
                    e7:a2:99:e2:0f:ed:d2:96:54:0a:ab:5a:d7:b4:0c:
                    99:81:d8:74:38:fc:d3:c7:f1:03:b3:c1:e3:f2:1e:
                    0a:b8:1f:1b:e2:c2:f5:cd:c0:5f:a5:1d:31:ba:10:
                    f0:68:32:e5:76:58:68:4c:30:77:28:0b:6a:18:27:
                    27:c9:6b:db:6b:82:e9:50:14:a9:e8:31:39:c8:f2:
                    15:ff:65:bb:c3:90:be:fd:13:60:f0:62:4d:50:e1:
                    fa:95:6e:fa:9d:82:57:d2:53:f2:66:2b:c3:46:13:
                    1e:cb:70:f6:1d:29:13:22:ad:4c:e7:bf:56:4c:51:
                    b9:b6:23:7b:f0:2d:52:38:d0:1f:ed:8a:61:5e:f4:
                    8e:a5:cd:58:a6:46:47:70:eb:7d:4f:d6:d1:bd:59:
                    b8:69:43:89:c1:23:5e:e1:dd:77:1b:63:96:59:6a:
                    bf:27:23:be:14:60:79:e7:cf:04:28:4b:83:9f:b5:
                    a9:41
                Exponent: 65537 (0x10001)
        X509v3 extensions:
            X509v3 Basic Constraints: 
                CA:FALSE
            X509v3 Subject Key Identifier: 
                7D:8B:95:78:DB:C8:28:0F:43:B9:F5:B9:20:AE:12:20:06:8D:AE:72
            X509v3 Authority Key Identifier: 
                keyid:97:A8:F0:2A:9E:40:A8:35:3F:19:43:84:19:1A:75:C8:EF:4D:6D:34
                DirName:/CN=team85-net
                serial:71:3E:08:EA:60:1E:83:44:AF:FA:B2:63:2C:51:AD:B6:04:BA:5A:7D
            X509v3 Extended Key Usage: 
                TLS Web Server Authentication
            X509v3 Key Usage: 
                Digital Signature, Key Encipherment
            X509v3 Subject Alternative Name: 
                DNS:team85-server
    Signature Algorithm: sha256WithRSAEncryption
    Signature Value:
        c7:84:a1:38:b6:53:85:16:6b:8c:10:33:83:21:97:46:77:ef:
        73:34:56:ca:86:30:59:11:ee:6f:89:18:86:a1:e0:32:03:a0:
        e3:4b:25:3a:ba:eb:7b:f2:65:ce:df:de:40:e5:a2:aa:c2:cb:
        32:09:69:65:9a:19:29:a1:4f:38:6a:87:86:9d:09:17:16:8c:
        c7:37:bd:7b:1a:09:47:22:40:5f:bf:43:09:af:93:7e:87:4d:
        3e:fe:2b:25:dc:1f:90:9d:9c:24:f6:67:9f:38:6d:fb:be:19:
        44:02:3e:a7:51:76:fd:25:69:98:52:db:f3:27:a0:9b:e3:7a:
        eb:5b:72:a3:86:d8:07:82:1e:6b:1e:f3:ce:15:bd:df:ed:b1:
        c4:7c:71:88:5b:5f:1e:39:74:e8:5c:b5:2e:6d:a0:75:b4:5f:
        90:d8:69:bb:10:4b:c8:5c:e9:f5:f8:2e:7c:4a:70:11:a2:35:
        2f:02:b5:34:cd:97:bd:ad:77:b6:e5:35:6c:13:0b:fe:b4:ed:
        74:ed:71:80:33:8c:52:7b:65:9f:f7:4a:ab:78:dd:0f:86:ab:
        dd:35:8b:5d:c9:41:b9:f9:d3:99:ab:4e:12:af:43:fc:cb:b8:
        f0:47:02:b2:29:ab:3a:93:b6:ca:5e:c9:05:dd:eb:e5:5d:0b:
        d9:74:0d:ce
-----BEGIN CERTIFICATE-----
MIIDdDCCAlygAwIBAgIRALCCJos+woMmnJfAnemChvIwDQYJKoZIhvcNAQELBQAw
FTETMBEGA1UEAwwKdGVhbTg1LW5ldDAeFw0yMzExMDMyMDQwNDBaFw0yNjEwMTgy
MDQwNDBaMBgxFjAUBgNVBAMMDXRlYW04NS1zZXJ2ZXIwggEiMA0GCSqGSIb3DQEB
AQUAA4IBDwAwggEKAoIBAQC3MwETwWQcM5dCnvkEVW3FZ5yz7NIkjmFQ/HEfEE02
ilhoiYOuFwOFXx3JLs6EsKENg+p4NlYGq98UUD6pPxzodJYqVvulhlyIxueimeIP
7dKWVAqrWte0DJmB2HQ4/NPH8QOzwePyHgq4HxviwvXNwF+lHTG6EPBoMuV2WGhM
MHcoC2oYJyfJa9trgulQFKnoMTnI8hX/ZbvDkL79E2DwYk1Q4fqVbvqdglfSU/Jm
K8NGEx7LcPYdKRMirUznv1ZMUbm2I3vwLVI40B/timFe9I6lzVimRkdw631P1tG9
WbhpQ4nBI17h3XcbY5ZZar8nI74UYHnnzwQoS4OftalBAgMBAAGjgbswgbgwCQYD
VR0TBAIwADAdBgNVHQ4EFgQUfYuVeNvIKA9DufW5IK4SIAaNrnIwUAYDVR0jBEkw
R4AUl6jwKp5AqDU/GUOEGRp1yO9NbTShGaQXMBUxEzARBgNVBAMMCnRlYW04NS1u
ZXSCFHE+COpgHoNEr/qyYyxRrbYEulp9MBMGA1UdJQQMMAoGCCsGAQUFBwMBMAsG
A1UdDwQEAwIFoDAYBgNVHREEETAPgg10ZWFtODUtc2VydmVyMA0GCSqGSIb3DQEB
CwUAA4IBAQDHhKE4tlOFFmuMEDODIZdGd+9zNFbKhjBZEe5viRiGoeAyA6DjSyU6
uut78mXO395A5aKqwssyCWllmhkpoU84aoeGnQkXFozHN717GglHIkBfv0MJr5N+
h00+/isl3B+QnZwk9mefOG37vhlEAj6nUXb9JWmYUtvzJ6Cb43rrW3KjhtgHgh5r
HvPOFb3f7bHEfHGIW18eOXToXLUubaB1tF+Q2Gm7EEvIXOn1+C58SnARojUvArU0
zZe9rXe25TVsEwv+tO107XGAM4xSe2Wf90qreN0PhqvdNYtdyUG5+dOZq04Sr0P8
y7jwRwKyKas6k7bKXskF3evlXQvZdA3O
-----END CERTIFICATE-----
