Certificate:
    Data:
        Version: 3 (0x2)
        Serial Number:
            b6:f3:b4:b8:39:64:f8:d3:87:9e:cf:ca:12:9e:7e:99
        Signature Algorithm: sha256WithRSAEncryption
        Issuer: CN=team85-net
        Validity
            Not Before: Nov  4 11:29:00 2023 GMT
            Not After : Oct 19 11:29:00 2026 GMT
        Subject: CN=team85-client
        Subject Public Key Info:
            Public Key Algorithm: rsaEncryption
                Public-Key: (2048 bit)
                Modulus:
                    00:cc:ef:4e:ee:97:c9:48:ec:7a:0b:3d:62:aa:65:
                    73:a9:8c:90:00:07:52:da:38:a2:61:9d:2a:d2:95:
                    a8:e2:22:26:ee:f9:a1:82:48:9c:51:da:26:68:5f:
                    b1:21:27:09:ce:70:e6:fc:7c:ee:81:73:57:fa:90:
                    38:3f:a2:22:92:0f:fb:c1:e5:1c:f9:6b:c4:23:50:
                    b5:b1:0f:39:e8:bb:33:b2:94:90:64:a9:d5:3a:4f:
                    55:3e:01:5e:a0:11:dd:c0:6e:cf:e7:27:57:19:85:
                    37:87:9b:21:0f:80:96:19:6c:8f:6e:cf:59:ab:72:
                    dd:85:78:67:9d:c8:0e:fe:62:3a:dd:06:3c:46:d6:
                    44:e5:eb:ff:0a:58:a4:68:26:e9:df:57:4c:4e:ac:
                    e1:51:a3:2d:03:be:0c:b4:24:36:3e:38:e4:12:46:
                    c1:e3:b7:88:9f:e1:67:3a:35:da:cf:a6:31:d5:7a:
                    60:fb:0d:10:1f:c0:f2:f7:27:b6:f8:8b:bf:7c:13:
                    a8:80:5b:f3:f4:f5:13:89:7f:ec:f3:00:ec:b6:23:
                    81:20:ce:63:99:68:31:e9:6b:bc:ca:5d:e2:71:b9:
                    29:8b:96:e4:ba:13:82:5b:c7:fb:aa:62:0b:f6:9c:
                    fc:d4:e6:ce:79:c2:79:e2:eb:31:7c:7e:a0:5a:d6:
                    8f:45
                Exponent: 65537 (0x10001)
        X509v3 extensions:
            X509v3 Basic Constraints: 
                CA:FALSE
            X509v3 Subject Key Identifier: 
                10:1F:31:64:5B:AB:CF:0D:EB:D3:5E:28:5D:97:A4:13:E6:97:6F:F9
            X509v3 Authority Key Identifier: 
                keyid:49:6F:85:7F:2C:1D:85:9D:E8:B7:BA:EC:2C:E1:E2:DF:DA:C8:A2:43
                DirName:/CN=team85-net
                serial:14:A0:81:61:E3:0E:C7:FA:ED:F8:2F:5C:0C:9B:9E:AC:58:54:40:5F
            X509v3 Extended Key Usage: 
                TLS Web Client Authentication
            X509v3 Key Usage: 
                Digital Signature
    Signature Algorithm: sha256WithRSAEncryption
    Signature Value:
        74:1e:5c:60:ea:4b:a9:2f:34:8d:ab:6e:95:58:2e:c1:13:73:
        31:4c:9b:d7:86:73:b7:77:9d:e9:c8:35:4f:42:5c:ae:ef:2a:
        32:1f:07:a9:5b:bf:98:37:ec:a3:a4:1d:03:7d:16:a2:d3:20:
        9e:6a:44:88:60:dd:9d:aa:d7:46:09:46:06:d6:6b:5e:66:81:
        f0:df:e5:eb:63:d2:e6:70:b6:70:d9:1f:62:5f:e5:c0:52:2c:
        95:cc:94:1a:0a:67:d9:7d:19:c3:ca:d6:9c:b3:0b:e5:f5:18:
        f4:9d:f2:37:13:4f:aa:dc:8a:cb:4b:22:3a:f8:db:ae:3a:b4:
        35:6c:cb:ba:cc:50:be:2e:d8:18:9f:4f:83:b5:c3:c5:e6:48:
        4d:f7:e3:92:b2:ed:c2:d6:85:ba:75:7a:89:3b:39:43:ed:25:
        30:42:96:41:70:71:9e:3a:9a:18:b9:ba:39:7c:f9:e7:ed:f1:
        29:88:63:aa:32:f3:c3:4e:80:22:fd:9f:f4:28:3a:b1:df:44:
        d2:7b:08:78:f1:6a:ef:49:b6:be:1f:02:12:57:3c:2b:26:0f:
        4d:bd:b8:87:d0:1e:25:8d:e5:33:68:2e:5b:35:34:24:bc:4b:
        b8:85:12:6d:a2:ad:06:ff:3c:be:81:04:06:73:95:3e:a3:a8:
        1e:d4:27:79
-----BEGIN CERTIFICATE-----
MIIDWjCCAkKgAwIBAgIRALbztLg5ZPjTh57PyhKefpkwDQYJKoZIhvcNAQELBQAw
FTETMBEGA1UEAwwKdGVhbTg1LW5ldDAeFw0yMzExMDQxMTI5MDBaFw0yNjEwMTkx
MTI5MDBaMBgxFjAUBgNVBAMMDXRlYW04NS1jbGllbnQwggEiMA0GCSqGSIb3DQEB
AQUAA4IBDwAwggEKAoIBAQDM707ul8lI7HoLPWKqZXOpjJAAB1LaOKJhnSrSlaji
Iibu+aGCSJxR2iZoX7EhJwnOcOb8fO6Bc1f6kDg/oiKSD/vB5Rz5a8QjULWxDzno
uzOylJBkqdU6T1U+AV6gEd3Abs/nJ1cZhTeHmyEPgJYZbI9uz1mrct2FeGedyA7+
YjrdBjxG1kTl6/8KWKRoJunfV0xOrOFRoy0Dvgy0JDY+OOQSRsHjt4if4Wc6NdrP
pjHVemD7DRAfwPL3J7b4i798E6iAW/P09ROJf+zzAOy2I4EgzmOZaDHpa7zKXeJx
uSmLluS6E4Jbx/uqYgv2nPzU5s55wnni6zF8fqBa1o9FAgMBAAGjgaEwgZ4wCQYD
VR0TBAIwADAdBgNVHQ4EFgQUEB8xZFurzw3r014oXZekE+aXb/kwUAYDVR0jBEkw
R4AUSW+FfywdhZ3ot7rsLOHi39rIokOhGaQXMBUxEzARBgNVBAMMCnRlYW04NS1u
ZXSCFBSggWHjDsf67fgvXAybnqxYVEBfMBMGA1UdJQQMMAoGCCsGAQUFBwMCMAsG
A1UdDwQEAwIHgDANBgkqhkiG9w0BAQsFAAOCAQEAdB5cYOpLqS80jatulVguwRNz
MUyb14Zzt3ed6cg1T0Jcru8qMh8HqVu/mDfso6QdA30WotMgnmpEiGDdnarXRglG
BtZrXmaB8N/l62PS5nC2cNkfYl/lwFIslcyUGgpn2X0Zw8rWnLML5fUY9J3yNxNP
qtyKy0siOvjbrjq0NWzLusxQvi7YGJ9Pg7XDxeZITffjkrLtwtaFunV6iTs5Q+0l
MEKWQXBxnjqaGLm6OXz55+3xKYhjqjLzw06AIv2f9Cg6sd9E0nsIePFq70m2vh8C
Elc8KyYPTb24h9AeJY3lM2guWzU0JLxLuIUSbaKtBv88voEEBnOVPqOoHtQneQ==
-----END CERTIFICATE-----
