Certificate:
    Data:
        Version: 3 (0x2)
        Serial Number:
            2d:cd:02:4a:ae:59:27:bb:16:a5:f8:bf:3c:66:50:8e
        Signature Algorithm: sha256WithRSAEncryption
        Issuer: CN=team110-net
        Validity
            Not Before: Nov  4 10:42:28 2023 GMT
            Not After : Oct 19 10:42:28 2026 GMT
        Subject: CN=team110-server
        Subject Public Key Info:
            Public Key Algorithm: rsaEncryption
                Public-Key: (2048 bit)
                Modulus:
                    00:df:50:e7:78:9c:70:43:7d:fc:b1:83:3a:aa:64:
                    78:fc:b9:22:e0:08:24:9f:79:c9:01:19:18:92:74:
                    eb:d5:2f:80:98:fc:d1:22:eb:7b:d5:03:49:7d:50:
                    ea:8f:04:95:ce:e7:9d:ba:a9:ae:a6:b1:41:55:f7:
                    9a:a2:3b:7f:c6:32:be:67:ce:7e:d4:e2:f3:71:59:
                    3a:be:df:a2:30:c3:e5:eb:d5:ff:af:0c:cc:9a:89:
                    aa:2d:94:09:2b:c3:a6:db:1e:ef:7d:69:b0:42:0e:
                    2d:f9:14:05:2a:73:53:e2:58:f6:76:fc:aa:7f:5c:
                    a4:7c:ac:da:78:c8:fb:d2:51:81:ad:0d:b1:d0:2f:
                    88:12:ea:c8:74:0c:ac:9d:ac:e2:21:28:3a:62:73:
                    1b:fe:9e:b4:ff:ca:41:13:91:05:bb:f1:1d:9c:f6:
                    22:b5:c8:37:c1:c3:43:5d:95:48:5a:56:08:b8:00:
                    14:2c:f5:13:9c:4c:4c:6f:8c:0d:bd:b0:14:ca:8a:
                    85:d2:ee:b5:b8:a8:c6:cd:6c:ae:bc:99:db:cd:62:
                    e2:c3:4d:a8:5d:15:3a:bd:bb:a6:7e:27:8e:ac:f5:
                    a6:df:06:53:56:40:5a:14:e6:2a:0f:57:98:93:c9:
                    d0:c0:5d:9f:ca:df:9e:f6:24:0d:c7:88:5c:17:aa:
                    2f:db
                Exponent: 65537 (0x10001)
        X509v3 extensions:
            X509v3 Basic Constraints: 
                CA:FALSE
            X509v3 Subject Key Identifier: 
                13:4E:2F:1C:77:87:B9:90:06:91:37:3E:AB:9F:DC:35:0D:1F:3C:72
            X509v3 Authority Key Identifier: 
                keyid:60:FA:4A:8F:9F:94:AB:C9:90:E0:E9:40:5B:56:C7:4F:66:5A:D3:7F
                DirName:/CN=team110-net
                serial:1B:26:81:EF:4B:22:41:0F:D7:B7:8D:DF:FD:20:7F:89:87:F1:95:0C
            X509v3 Extended Key Usage: 
                TLS Web Server Authentication
            X509v3 Key Usage: 
                Digital Signature, Key Encipherment
            X509v3 Subject Alternative Name: 
                DNS:team110-server
    Signature Algorithm: sha256WithRSAEncryption
    Signature Value:
        9c:03:56:cd:fd:c5:d4:7b:d2:88:e6:94:46:f8:3f:15:60:04:
        5f:70:ac:cf:a5:97:c2:60:d9:c0:93:39:95:44:b8:fc:d3:63:
        40:52:48:c3:18:9a:3d:2e:25:73:7d:98:5a:50:d3:03:69:06:
        66:1a:ba:37:0a:06:be:6b:cc:a1:e2:fe:11:e8:51:62:0f:12:
        aa:04:e7:8b:fc:1a:fa:6f:3c:cb:e6:91:c8:db:fe:93:ba:2b:
        1d:62:cd:75:fd:c1:e3:b7:1f:6b:28:fb:3f:3c:5f:49:bc:e0:
        0b:24:14:82:5a:70:41:84:d1:34:73:c8:0a:2d:ff:41:4c:a5:
        39:00:3f:55:43:66:98:42:e4:d3:77:bb:10:4b:ea:32:82:f2:
        c0:d4:80:5a:40:98:9d:2e:c7:69:85:a7:82:99:58:a1:38:f9:
        f2:b2:3f:40:78:6f:9f:39:a7:96:d8:fc:51:4c:9a:bb:0a:d1:
        9d:19:2c:73:67:83:a2:3f:44:03:43:e1:4d:f5:1f:27:32:5d:
        b5:b4:d0:c3:59:18:31:e8:f6:52:a2:80:90:8f:29:32:3d:69:
        cf:c9:d0:f9:f6:53:6f:fa:c5:13:a8:19:62:f5:1a:98:ac:12:
        0e:84:eb:9a:d3:f7:9b:ec:48:0a:2f:b1:0a:f9:6b:39:d5:ab:
        38:4e:e0:7c
-----BEGIN CERTIFICATE-----
MIIDdzCCAl+gAwIBAgIQLc0CSq5ZJ7sWpfi/PGZQjjANBgkqhkiG9w0BAQsFADAW
MRQwEgYDVQQDDAt0ZWFtMTEwLW5ldDAeFw0yMzExMDQxMDQyMjhaFw0yNjEwMTkx
MDQyMjhaMBkxFzAVBgNVBAMMDnRlYW0xMTAtc2VydmVyMIIBIjANBgkqhkiG9w0B
AQEFAAOCAQ8AMIIBCgKCAQEA31DneJxwQ338sYM6qmR4/Lki4Agkn3nJARkYknTr
1S+AmPzRIut71QNJfVDqjwSVzueduqmuprFBVfeaojt/xjK+Z85+1OLzcVk6vt+i
MMPl69X/rwzMmomqLZQJK8Om2x7vfWmwQg4t+RQFKnNT4lj2dvyqf1ykfKzaeMj7
0lGBrQ2x0C+IEurIdAysnaziISg6YnMb/p60/8pBE5EFu/EdnPYitcg3wcNDXZVI
WlYIuAAULPUTnExMb4wNvbAUyoqF0u61uKjGzWyuvJnbzWLiw02oXRU6vbumfieO
rPWm3wZTVkBaFOYqD1eYk8nQwF2fyt+e9iQNx4hcF6ov2wIDAQABo4G9MIG6MAkG
A1UdEwQCMAAwHQYDVR0OBBYEFBNOLxx3h7mQBpE3Pquf3DUNHzxyMFEGA1UdIwRK
MEiAFGD6So+flKvJkODpQFtWx09mWtN/oRqkGDAWMRQwEgYDVQQDDAt0ZWFtMTEw
LW5ldIIUGyaB70siQQ/Xt43f/SB/iYfxlQwwEwYDVR0lBAwwCgYIKwYBBQUHAwEw
CwYDVR0PBAQDAgWgMBkGA1UdEQQSMBCCDnRlYW0xMTAtc2VydmVyMA0GCSqGSIb3
DQEBCwUAA4IBAQCcA1bN/cXUe9KI5pRG+D8VYARfcKzPpZfCYNnAkzmVRLj802NA
UkjDGJo9LiVzfZhaUNMDaQZmGro3Cga+a8yh4v4R6FFiDxKqBOeL/Br6bzzL5pHI
2/6TuisdYs11/cHjtx9rKPs/PF9JvOALJBSCWnBBhNE0c8gKLf9BTKU5AD9VQ2aY
QuTTd7sQS+oygvLA1IBaQJidLsdphaeCmVihOPnysj9AeG+fOaeW2PxRTJq7CtGd
GSxzZ4OiP0QDQ+FN9R8nMl21tNDDWRgx6PZSooCQjykyPWnPydD59lNv+sUTqBli
9RqYrBIOhOua0/eb7EgKL7EK+Ws51as4TuB8
-----END CERTIFICATE-----
