Certificate:
    Data:
        Version: 3 (0x2)
        Serial Number:
            3a:04:66:6c:b1:86:ac:76:a8:c7:9e:ff:5b:11:fe:9d
        Signature Algorithm: sha256WithRSAEncryption
        Issuer: CN=team110-net
        Validity
            Not Before: Nov  3 20:41:07 2023 GMT
            Not After : Oct 18 20:41:07 2026 GMT
        Subject: CN=team110-client
        Subject Public Key Info:
            Public Key Algorithm: rsaEncryption
                Public-Key: (2048 bit)
                Modulus:
                    00:8f:fc:0a:e8:9d:1d:8f:3c:b5:66:7a:91:7d:ac:
                    5c:da:9b:a3:cc:c6:99:a8:7e:16:c4:e5:76:7f:ed:
                    02:59:08:eb:0b:83:83:39:c5:e8:25:15:81:57:79:
                    cd:74:40:4c:22:8e:a3:f5:02:5c:18:2f:39:3c:aa:
                    4a:fa:08:4e:89:52:82:4f:5f:03:30:1f:9b:aa:84:
                    14:e9:ac:39:ca:01:43:c9:fa:8d:05:91:00:b3:83:
                    b2:38:a3:54:1e:45:0f:ae:d9:4f:21:4b:0f:f5:6f:
                    4e:cf:f6:a5:40:d6:56:ea:f7:51:cd:e2:60:43:20:
                    01:41:ee:65:2d:0b:ff:0d:1d:25:3b:e6:78:2c:e7:
                    2b:3b:47:43:ea:49:a1:72:9e:ae:19:5d:92:cd:af:
                    33:fe:34:8b:7b:e0:7f:36:07:6c:99:c4:f9:c1:60:
                    0d:46:4a:f5:97:e0:ca:c5:3d:6c:e8:a8:f1:8f:50:
                    74:c6:57:84:6c:92:64:45:73:90:63:1a:91:5c:e8:
                    67:06:53:0b:92:a0:9d:ce:3f:10:5f:16:92:b8:9f:
                    35:17:6a:5c:12:42:d7:24:f9:42:40:1f:d7:37:79:
                    bc:39:f1:5a:4a:a3:d8:55:b7:13:2b:3f:d1:07:24:
                    2c:76:50:73:be:9c:85:f1:e2:25:ca:6f:3b:6e:5c:
                    fa:51
                Exponent: 65537 (0x10001)
        X509v3 extensions:
            X509v3 Basic Constraints: 
                CA:FALSE
            X509v3 Subject Key Identifier: 
                79:12:2B:5F:64:DC:19:28:63:48:4A:9B:8B:D2:58:B8:76:10:FF:A2
            X509v3 Authority Key Identifier: 
                keyid:D0:90:6E:51:0B:D6:09:B9:53:93:2C:13:E1:2A:FE:80:14:51:56:DA
                DirName:/CN=team110-net
                serial:77:8C:99:82:CE:86:57:18:7B:00:48:79:C2:EC:7A:48:8C:7A:C9:16
            X509v3 Extended Key Usage: 
                TLS Web Client Authentication
            X509v3 Key Usage: 
                Digital Signature
    Signature Algorithm: sha256WithRSAEncryption
    Signature Value:
        97:f8:fd:ca:d7:cb:72:45:6e:d8:c0:4c:c4:fd:da:83:02:a0:
        63:83:28:c8:e5:df:86:8a:4e:b3:40:81:17:b1:83:39:d8:a9:
        d0:f5:f6:ec:95:e0:34:b1:fb:5a:ec:0c:95:5e:3f:84:e5:8a:
        ff:77:d9:d1:31:03:bb:73:a4:a3:61:b2:a8:6b:13:84:02:78:
        fa:4b:e8:e7:45:92:59:df:60:64:e9:79:7f:b3:fb:7b:9e:cc:
        79:dc:9e:2a:bb:c2:64:b8:98:72:19:fc:ed:bf:5e:71:78:ab:
        65:05:20:85:46:c1:29:64:d2:56:a0:f0:a7:81:da:1b:a6:d3:
        16:93:e0:4e:8f:3b:90:5e:ed:bd:0b:52:4b:6f:f7:52:9f:c7:
        41:1a:cd:6f:6c:da:c7:f0:a1:3e:34:dd:90:5a:69:dd:2a:0e:
        44:92:41:b8:eb:48:a3:49:f5:d5:c6:7d:65:aa:e8:bc:90:fb:
        e4:6d:97:96:6d:e2:c6:10:68:9d:91:4d:b2:66:6d:74:20:1d:
        aa:af:de:e7:e5:44:b6:84:3e:8f:e3:77:ab:0e:06:e4:d9:10:
        2c:d1:f4:78:b4:36:1b:5d:5c:88:d6:5d:e8:20:b1:5a:2b:94:
        f9:49:09:8c:a8:ff:b6:a4:03:8d:80:4a:e9:7b:e0:79:d9:a5:
        15:e1:c8:c6
-----BEGIN CERTIFICATE-----
MIIDXDCCAkSgAwIBAgIQOgRmbLGGrHaox57/WxH+nTANBgkqhkiG9w0BAQsFADAW
MRQwEgYDVQQDDAt0ZWFtMTEwLW5ldDAeFw0yMzExMDMyMDQxMDdaFw0yNjEwMTgy
MDQxMDdaMBkxFzAVBgNVBAMMDnRlYW0xMTAtY2xpZW50MIIBIjANBgkqhkiG9w0B
AQEFAAOCAQ8AMIIBCgKCAQEAj/wK6J0djzy1ZnqRfaxc2pujzMaZqH4WxOV2f+0C
WQjrC4ODOcXoJRWBV3nNdEBMIo6j9QJcGC85PKpK+ghOiVKCT18DMB+bqoQU6aw5
ygFDyfqNBZEAs4OyOKNUHkUPrtlPIUsP9W9Oz/alQNZW6vdRzeJgQyABQe5lLQv/
DR0lO+Z4LOcrO0dD6kmhcp6uGV2Sza8z/jSLe+B/NgdsmcT5wWANRkr1l+DKxT1s
6Kjxj1B0xleEbJJkRXOQYxqRXOhnBlMLkqCdzj8QXxaSuJ81F2pcEkLXJPlCQB/X
N3m8OfFaSqPYVbcTKz/RByQsdlBzvpyF8eIlym87blz6UQIDAQABo4GiMIGfMAkG
A1UdEwQCMAAwHQYDVR0OBBYEFHkSK19k3BkoY0hKm4vSWLh2EP+iMFEGA1UdIwRK
MEiAFNCQblEL1gm5U5MsE+Eq/oAUUVbaoRqkGDAWMRQwEgYDVQQDDAt0ZWFtMTEw
LW5ldIIUd4yZgs6GVxh7AEh5wux6SIx6yRYwEwYDVR0lBAwwCgYIKwYBBQUHAwIw
CwYDVR0PBAQDAgeAMA0GCSqGSIb3DQEBCwUAA4IBAQCX+P3K18tyRW7YwEzE/dqD
AqBjgyjI5d+Gik6zQIEXsYM52KnQ9fbsleA0sfta7AyVXj+E5Yr/d9nRMQO7c6Sj
YbKoaxOEAnj6S+jnRZJZ32Bk6Xl/s/t7nsx53J4qu8JkuJhyGfztv15xeKtlBSCF
RsEpZNJWoPCngdobptMWk+BOjzuQXu29C1JLb/dSn8dBGs1vbNrH8KE+NN2QWmnd
Kg5EkkG460ijSfXVxn1lqui8kPvkbZeWbeLGEGidkU2yZm10IB2qr97n5US2hD6P
43erDgbk2RAs0fR4tDYbXVyI1l3oILFaK5T5SQmMqP+2pAONgErpe+B52aUV4cjG
-----END CERTIFICATE-----
