Certificate:
    Data:
        Version: 3 (0x2)
        Serial Number:
            f4:83:2a:d5:0f:f7:4f:40:b5:15:4e:63:d3:9a:15:35
        Signature Algorithm: sha256WithRSAEncryption
        Issuer: CN=team110-net
        Validity
            Not Before: Nov  4 11:29:37 2023 GMT
            Not After : Oct 19 11:29:37 2026 GMT
        Subject: CN=team110-server
        Subject Public Key Info:
            Public Key Algorithm: rsaEncryption
                Public-Key: (2048 bit)
                Modulus:
                    00:b6:a0:af:a5:d7:cd:c7:0a:ac:4f:dc:b4:12:88:
                    87:5b:c8:da:14:be:01:d3:fd:35:27:a8:a0:15:03:
                    4c:f5:12:c9:cf:7b:9d:44:d9:76:c3:ce:0b:80:6c:
                    63:75:1d:15:83:b0:f0:5e:1e:c2:65:f7:5f:1a:13:
                    76:35:3d:57:2b:e1:58:c3:ca:59:35:9f:a3:66:56:
                    2b:94:47:a0:d5:73:f1:15:a1:e6:04:2e:fe:c8:34:
                    10:9c:53:3f:92:c1:b4:85:6a:6f:7e:b3:3f:cf:b3:
                    c6:15:a0:a4:49:c8:3d:52:62:0c:24:d3:f2:c1:54:
                    cd:a7:a2:5f:56:4c:b3:89:ac:22:1d:ef:73:2a:ad:
                    40:eb:1d:2f:86:98:5d:a6:21:68:3c:96:96:eb:50:
                    c5:51:ec:1c:77:7d:5b:f6:d8:db:23:e4:bd:2d:10:
                    b8:3b:7a:a0:cf:58:8b:c3:6a:58:14:4d:fb:98:99:
                    a6:58:65:08:52:c3:02:1a:89:43:f0:ba:37:bb:0e:
                    0a:0c:50:69:93:5b:c8:9f:35:84:86:06:d2:cf:78:
                    ba:65:ad:e9:ac:5d:45:0c:b9:2a:75:f1:9e:64:09:
                    bd:51:e0:36:0b:bd:5b:88:e7:a3:68:12:54:38:5c:
                    1b:0b:b8:2f:ed:41:83:a6:f5:f3:ba:32:ce:0f:64:
                    98:2f
                Exponent: 65537 (0x10001)
        X509v3 extensions:
            X509v3 Basic Constraints: 
                CA:FALSE
            X509v3 Subject Key Identifier: 
                9F:27:42:D3:57:94:A8:CB:16:43:36:82:20:02:FE:D5:B0:79:22:D2
            X509v3 Authority Key Identifier: 
                keyid:5F:89:41:4D:A5:AE:C4:77:09:82:68:AC:AE:E3:63:4A:48:9D:85:F3
                DirName:/CN=team110-net
                serial:5D:4C:1C:59:8B:BA:6E:9F:7A:8C:52:74:A9:92:71:0D:F9:75:F7:3A
            X509v3 Extended Key Usage: 
                TLS Web Server Authentication
            X509v3 Key Usage: 
                Digital Signature, Key Encipherment
            X509v3 Subject Alternative Name: 
                DNS:team110-server
    Signature Algorithm: sha256WithRSAEncryption
    Signature Value:
        5e:48:8e:5e:cf:8d:4d:57:4d:d1:a4:1d:bf:a8:86:bd:80:bb:
        12:00:fe:b0:19:d6:b9:16:f3:5b:3a:d1:bf:04:3d:b4:a3:26:
        55:77:7b:ea:33:91:62:7f:25:68:ce:68:c9:17:9b:62:3f:8d:
        5a:7f:ca:b1:f3:d8:e3:bf:10:b6:cd:64:68:20:44:7f:10:d7:
        12:2f:d6:06:95:9c:c1:ea:09:27:47:d0:51:17:f7:a1:a3:94:
        28:4d:25:8c:6a:70:5c:81:44:6a:29:92:d5:a3:a6:79:76:63:
        ae:2b:f6:4a:b5:57:c0:60:b3:82:0d:cb:a3:24:ab:8c:c5:9d:
        e7:5b:6f:c2:9d:e3:f3:9a:22:61:8e:68:01:25:d5:8c:21:15:
        a6:fa:df:81:06:67:1b:e8:c1:23:c0:97:f8:ea:69:36:3d:bd:
        de:11:6c:56:d3:08:97:54:06:6b:48:c8:f0:2e:cc:af:f1:ae:
        b3:56:8a:ee:e0:12:50:d0:12:4e:8f:a4:f6:cc:17:3c:2b:97:
        59:f8:6f:de:5f:c6:c0:ff:b2:b6:2b:c9:c5:e5:ae:cb:35:9d:
        6b:ce:5f:ef:1c:5c:ac:f5:f3:27:71:e9:fd:ca:60:d7:7b:ea:
        f2:6e:7a:0e:71:a7:94:9f:71:98:75:75:58:78:e5:31:63:16:
        9f:21:3f:41
-----BEGIN CERTIFICATE-----
MIIDeDCCAmCgAwIBAgIRAPSDKtUP909AtRVOY9OaFTUwDQYJKoZIhvcNAQELBQAw
FjEUMBIGA1UEAwwLdGVhbTExMC1uZXQwHhcNMjMxMTA0MTEyOTM3WhcNMjYxMDE5
MTEyOTM3WjAZMRcwFQYDVQQDDA50ZWFtMTEwLXNlcnZlcjCCASIwDQYJKoZIhvcN
AQEBBQADggEPADCCAQoCggEBALagr6XXzccKrE/ctBKIh1vI2hS+AdP9NSeooBUD
TPUSyc97nUTZdsPOC4BsY3UdFYOw8F4ewmX3XxoTdjU9VyvhWMPKWTWfo2ZWK5RH
oNVz8RWh5gQu/sg0EJxTP5LBtIVqb36zP8+zxhWgpEnIPVJiDCTT8sFUzaeiX1ZM
s4msIh3vcyqtQOsdL4aYXaYhaDyWlutQxVHsHHd9W/bY2yPkvS0QuDt6oM9Yi8Nq
WBRN+5iZplhlCFLDAhqJQ/C6N7sOCgxQaZNbyJ81hIYG0s94umWt6axdRQy5KnXx
nmQJvVHgNgu9W4jno2gSVDhcGwu4L+1Bg6b187oyzg9kmC8CAwEAAaOBvTCBujAJ
BgNVHRMEAjAAMB0GA1UdDgQWBBSfJ0LTV5SoyxZDNoIgAv7VsHki0jBRBgNVHSME
SjBIgBRfiUFNpa7EdwmCaKyu42NKSJ2F86EapBgwFjEUMBIGA1UEAwwLdGVhbTEx
MC1uZXSCFF1MHFmLum6feoxSdKmScQ35dfc6MBMGA1UdJQQMMAoGCCsGAQUFBwMB
MAsGA1UdDwQEAwIFoDAZBgNVHREEEjAQgg50ZWFtMTEwLXNlcnZlcjANBgkqhkiG
9w0BAQsFAAOCAQEAXkiOXs+NTVdN0aQdv6iGvYC7EgD+sBnWuRbzWzrRvwQ9tKMm
VXd76jORYn8laM5oyRebYj+NWn/KsfPY478Qts1kaCBEfxDXEi/WBpWcweoJJ0fQ
URf3oaOUKE0ljGpwXIFEaimS1aOmeXZjriv2SrVXwGCzgg3LoySrjMWd51tvwp3j
85oiYY5oASXVjCEVpvrfgQZnG+jBI8CX+OppNj293hFsVtMIl1QGa0jI8C7Mr/Gu
s1aK7uASUNASTo+k9swXPCuXWfhv3l/GwP+ytivJxeWuyzWda85f7xxcrPXzJ3Hp
/cpg13vq8m56DnGnlJ9xmHV1WHjlMWMWnyE/QQ==
-----END CERTIFICATE-----
