Certificate:
    Data:
        Version: 3 (0x2)
        Serial Number:
            33:b9:d1:76:16:d0:25:1b:d0:69:d4:7c:07:b9:ff:89
        Signature Algorithm: sha256WithRSAEncryption
        Issuer: CN=team6-net
        Validity
            Not Before: Nov  4 11:27:31 2023 GMT
            Not After : Oct 19 11:27:31 2026 GMT
        Subject: CN=team6-server
        Subject Public Key Info:
            Public Key Algorithm: rsaEncryption
                Public-Key: (2048 bit)
                Modulus:
                    00:b8:a5:87:4b:7b:37:3b:01:fd:b3:e2:b8:7d:82:
                    d8:d1:51:ba:5c:ee:e9:63:53:f3:1a:e1:f0:86:74:
                    3a:f5:f7:61:b8:e6:62:48:6e:c4:8e:26:44:c9:ad:
                    05:5c:cb:62:59:cc:60:95:77:91:3c:6c:45:eb:1f:
                    19:58:c9:56:b6:b3:ca:bb:94:97:13:44:ec:ad:fb:
                    aa:8a:74:8b:48:ef:9a:9d:15:47:f3:97:3a:6c:bc:
                    f5:ee:68:4d:f7:e0:e2:15:67:70:2c:f9:22:e3:35:
                    7c:56:8b:6b:03:29:4f:6d:04:82:55:43:c2:07:b3:
                    7a:c2:a2:2c:26:f9:3d:db:cc:7d:c4:7f:4e:56:48:
                    52:da:7c:62:a1:c4:70:ee:d2:7b:f2:9a:04:a8:08:
                    fd:79:96:c5:60:e3:54:f5:1c:29:18:95:38:82:ed:
                    f2:ae:10:0e:df:df:41:53:e6:56:74:9a:f5:22:5b:
                    13:ee:c6:56:c0:c2:24:47:42:5a:23:78:96:b2:ba:
                    91:97:da:06:41:f1:2b:3a:82:da:be:d4:92:7f:f2:
                    37:35:b5:e4:b9:38:ba:bf:54:3c:4c:bd:7a:ef:44:
                    87:6a:3b:18:cc:be:e9:11:ac:0e:0f:03:d3:70:1e:
                    f3:db:84:71:63:24:88:c0:9b:82:4f:fe:ab:0e:00:
                    f6:bf
                Exponent: 65537 (0x10001)
        X509v3 extensions:
            X509v3 Basic Constraints: 
                CA:FALSE
            X509v3 Subject Key Identifier: 
                39:B7:A7:8D:F0:BE:0D:7F:7B:50:B4:7A:67:2C:8F:37:F8:27:61:7A
            X509v3 Authority Key Identifier: 
                keyid:9F:31:3C:E7:B8:57:43:25:F0:1B:09:8A:23:B4:22:3A:20:19:C1:A6
                DirName:/CN=team6-net
                serial:03:C0:02:FC:F0:11:B6:AC:75:BB:18:1F:C7:43:23:79:DF:81:41:71
            X509v3 Extended Key Usage: 
                TLS Web Server Authentication
            X509v3 Key Usage: 
                Digital Signature, Key Encipherment
            X509v3 Subject Alternative Name: 
                DNS:team6-server
    Signature Algorithm: sha256WithRSAEncryption
    Signature Value:
        18:e7:09:ee:74:a4:af:76:ca:c4:d5:21:27:06:90:4b:fc:99:
        61:21:10:e7:95:96:c8:8c:b3:0c:41:58:7d:78:3d:52:55:d1:
        b9:70:4c:13:bf:c8:66:32:c5:18:da:c5:63:6a:5e:fd:78:5d:
        b1:1f:51:41:0f:a0:8e:77:07:e3:01:8e:9f:28:d8:17:70:b6:
        e1:e0:75:82:6b:31:91:04:af:11:82:7a:b6:0e:3f:a4:49:b0:
        df:b5:b4:24:39:ac:d5:4d:15:f2:f5:88:ff:d6:9b:2a:a2:b6:
        63:09:75:fa:dd:99:10:b2:c7:2c:5c:fe:cd:96:a4:92:59:c9:
        46:e8:76:0b:d4:52:d3:21:52:06:e3:a6:55:9f:54:81:25:54:
        f9:8d:33:03:d8:23:02:cd:c6:94:22:f1:38:31:54:12:b3:68:
        59:5f:f1:4f:47:54:34:4b:26:bb:3d:84:9a:89:1d:1b:ce:d3:
        76:fd:f3:6b:e1:2f:97:19:b0:a1:d0:c3:9a:19:3d:ab:a4:56:
        0f:28:d5:ce:a0:0d:ae:2e:a6:0c:09:78:0a:d3:b2:ef:3b:47:
        f9:cf:78:a0:b7:13:42:d0:ed:48:b0:06:b2:14:b2:5e:d6:14:
        cd:6a:7f:93:8a:7c:46:e9:67:40:68:c7:3c:d5:b6:f6:f6:c0:
        c9:00:9b:d7
-----BEGIN CERTIFICATE-----
MIIDbzCCAlegAwIBAgIQM7nRdhbQJRvQadR8B7n/iTANBgkqhkiG9w0BAQsFADAU
MRIwEAYDVQQDDAl0ZWFtNi1uZXQwHhcNMjMxMTA0MTEyNzMxWhcNMjYxMDE5MTEy
NzMxWjAXMRUwEwYDVQQDDAx0ZWFtNi1zZXJ2ZXIwggEiMA0GCSqGSIb3DQEBAQUA
A4IBDwAwggEKAoIBAQC4pYdLezc7Af2z4rh9gtjRUbpc7uljU/Ma4fCGdDr192G4
5mJIbsSOJkTJrQVcy2JZzGCVd5E8bEXrHxlYyVa2s8q7lJcTROyt+6qKdItI75qd
FUfzlzpsvPXuaE334OIVZ3As+SLjNXxWi2sDKU9tBIJVQ8IHs3rCoiwm+T3bzH3E
f05WSFLafGKhxHDu0nvymgSoCP15lsVg41T1HCkYlTiC7fKuEA7f30FT5lZ0mvUi
WxPuxlbAwiRHQlojeJayupGX2gZB8Ss6gtq+1JJ/8jc1teS5OLq/VDxMvXrvRIdq
OxjMvukRrA4PA9NwHvPbhHFjJIjAm4JP/qsOAPa/AgMBAAGjgbkwgbYwCQYDVR0T
BAIwADAdBgNVHQ4EFgQUObenjfC+DX97ULR6ZyyPN/gnYXowTwYDVR0jBEgwRoAU
nzE857hXQyXwGwmKI7QiOiAZwaahGKQWMBQxEjAQBgNVBAMMCXRlYW02LW5ldIIU
A8AC/PARtqx1uxgfx0Mjed+BQXEwEwYDVR0lBAwwCgYIKwYBBQUHAwEwCwYDVR0P
BAQDAgWgMBcGA1UdEQQQMA6CDHRlYW02LXNlcnZlcjANBgkqhkiG9w0BAQsFAAOC
AQEAGOcJ7nSkr3bKxNUhJwaQS/yZYSEQ55WWyIyzDEFYfXg9UlXRuXBME7/IZjLF
GNrFY2pe/XhdsR9RQQ+gjncH4wGOnyjYF3C24eB1gmsxkQSvEYJ6tg4/pEmw37W0
JDms1U0V8vWI/9abKqK2Ywl1+t2ZELLHLFz+zZakklnJRuh2C9RS0yFSBuOmVZ9U
gSVU+Y0zA9gjAs3GlCLxODFUErNoWV/xT0dUNEsmuz2EmokdG87Tdv3za+Evlxmw
odDDmhk9q6RWDyjVzqANri6mDAl4CtOy7ztH+c94oLcTQtDtSLAGshSyXtYUzWp/
k4p8RulnQGjHPNW29vbAyQCb1w==
-----END CERTIFICATE-----
