Certificate:
    Data:
        Version: 3 (0x2)
        Serial Number:
            5d:5e:f6:97:d7:9d:29:9f:b9:d3:60:29:ed:f8:b9:70
        Signature Algorithm: sha256WithRSAEncryption
        Issuer: CN=team6-net
        Validity
            Not Before: Nov  4 10:40:19 2023 GMT
            Not After : Oct 19 10:40:19 2026 GMT
        Subject: CN=team6-client
        Subject Public Key Info:
            Public Key Algorithm: rsaEncryption
                Public-Key: (2048 bit)
                Modulus:
                    00:b3:39:0e:a2:fe:10:0b:75:13:5a:f4:07:2b:50:
                    6f:a8:7d:da:5b:2b:09:3d:02:1c:0c:da:92:da:d2:
                    ca:59:7c:d2:ec:38:5b:f6:78:d8:bf:a0:20:7d:03:
                    78:32:2b:69:a2:e5:45:50:0f:f0:21:0e:06:bd:bf:
                    ac:b4:63:f7:c1:27:47:bd:85:43:d7:f5:16:98:d7:
                    00:d9:12:07:3d:e2:b1:cb:0b:cc:13:41:21:53:ea:
                    d6:fb:f6:92:d9:cb:40:f2:34:01:c7:94:bc:42:7a:
                    33:06:4d:72:d1:e8:88:8a:4d:8f:ed:61:db:63:bc:
                    b0:d4:3a:26:45:aa:23:27:e1:69:76:f0:86:c6:e3:
                    d3:88:9c:d8:19:15:28:45:82:10:a0:89:7d:8e:b2:
                    d8:a8:68:c4:cc:c5:5f:e7:3d:cb:d0:14:4a:66:33:
                    a4:30:e4:b2:db:c9:ee:22:74:bb:7f:2a:bc:b8:42:
                    48:3a:78:54:ae:82:06:43:7a:03:d0:b2:65:f7:82:
                    c4:a4:d9:ff:90:c9:86:67:6f:1a:80:7c:52:e8:7b:
                    c9:1c:e9:6b:59:64:55:79:ab:cf:fc:f5:3b:dd:e2:
                    f5:c3:b7:6d:6f:82:45:50:6d:3b:fc:58:3b:23:f3:
                    3b:62:d6:42:1f:9a:4c:1e:3d:d3:db:01:56:0a:07:
                    35:c7
                Exponent: 65537 (0x10001)
        X509v3 extensions:
            X509v3 Basic Constraints: 
                CA:FALSE
            X509v3 Subject Key Identifier: 
                BF:CB:59:A2:90:47:63:00:AB:C5:F6:2F:77:7B:D0:E3:65:22:07:80
            X509v3 Authority Key Identifier: 
                keyid:7A:BC:8D:97:D9:7E:AD:8C:41:C6:10:9C:CF:10:DC:89:25:B4:67:93
                DirName:/CN=team6-net
                serial:1B:6B:00:2D:55:23:1C:F4:A6:DE:06:99:7A:ED:14:53:9B:52:59:45
            X509v3 Extended Key Usage: 
                TLS Web Client Authentication
            X509v3 Key Usage: 
                Digital Signature
    Signature Algorithm: sha256WithRSAEncryption
    Signature Value:
        b0:90:62:52:b2:50:3b:76:d2:fa:5e:e6:0a:5f:d1:8a:8b:57:
        14:d7:cf:1b:69:72:9c:a6:50:50:c0:df:31:d9:67:6b:24:e9:
        ef:dd:99:4d:5c:67:ce:f0:47:58:c7:74:a8:5a:05:ef:da:5e:
        34:04:3c:1c:e1:a5:80:e6:40:48:82:f2:62:4a:2a:0a:f9:4f:
        a3:16:96:73:fa:c1:ed:11:9f:f2:9c:3d:0d:0a:51:01:91:cc:
        12:c8:13:72:98:2a:6e:24:fc:5f:33:26:3c:26:2f:78:d9:5b:
        72:ad:ee:2b:d7:23:df:4a:71:63:4d:89:d9:9f:86:5c:59:ae:
        e4:fe:84:f9:75:0a:91:eb:8c:9e:e4:af:66:e1:da:79:df:57:
        71:a8:e1:f4:8a:8b:f2:98:1b:cd:fc:6e:d0:6d:25:a4:0a:32:
        a3:47:4d:9c:23:6f:4f:5e:bd:40:3d:d7:1c:f0:65:5a:dc:a4:
        b0:d2:2c:0c:bc:02:f1:6b:b8:18:57:0f:f9:d2:bb:8b:62:55:
        58:c9:3d:3a:64:39:e3:0d:ff:3e:79:ba:d1:7c:9b:ed:ba:e9:
        4a:01:67:70:a0:eb:45:f2:d7:1e:21:a1:bf:60:a1:b5:4f:ae:
        f3:30:37:12:27:03:9f:1a:67:74:01:d1:5e:2a:7c:25:a8:d1:
        c5:e7:4e:5c
-----BEGIN CERTIFICATE-----
MIIDVjCCAj6gAwIBAgIQXV72l9edKZ+502Ap7fi5cDANBgkqhkiG9w0BAQsFADAU
MRIwEAYDVQQDDAl0ZWFtNi1uZXQwHhcNMjMxMTA0MTA0MDE5WhcNMjYxMDE5MTA0
MDE5WjAXMRUwEwYDVQQDDAx0ZWFtNi1jbGllbnQwggEiMA0GCSqGSIb3DQEBAQUA
A4IBDwAwggEKAoIBAQCzOQ6i/hALdRNa9AcrUG+ofdpbKwk9AhwM2pLa0spZfNLs
OFv2eNi/oCB9A3gyK2mi5UVQD/AhDga9v6y0Y/fBJ0e9hUPX9RaY1wDZEgc94rHL
C8wTQSFT6tb79pLZy0DyNAHHlLxCejMGTXLR6IiKTY/tYdtjvLDUOiZFqiMn4Wl2
8IbG49OInNgZFShFghCgiX2OstioaMTMxV/nPcvQFEpmM6Qw5LLbye4idLt/Kry4
Qkg6eFSuggZDegPQsmX3gsSk2f+QyYZnbxqAfFLoe8kc6WtZZFV5q8/89Tvd4vXD
t21vgkVQbTv8WDsj8zti1kIfmkwePdPbAVYKBzXHAgMBAAGjgaAwgZ0wCQYDVR0T
BAIwADAdBgNVHQ4EFgQUv8tZopBHYwCrxfYvd3vQ42UiB4AwTwYDVR0jBEgwRoAU
eryNl9l+rYxBxhCczxDciSW0Z5OhGKQWMBQxEjAQBgNVBAMMCXRlYW02LW5ldIIU
G2sALVUjHPSm3gaZeu0UU5tSWUUwEwYDVR0lBAwwCgYIKwYBBQUHAwIwCwYDVR0P
BAQDAgeAMA0GCSqGSIb3DQEBCwUAA4IBAQCwkGJSslA7dtL6XuYKX9GKi1cU188b
aXKcplBQwN8x2WdrJOnv3ZlNXGfO8EdYx3SoWgXv2l40BDwc4aWA5kBIgvJiSioK
+U+jFpZz+sHtEZ/ynD0NClEBkcwSyBNymCpuJPxfMyY8Ji942Vtyre4r1yPfSnFj
TYnZn4ZcWa7k/oT5dQqR64ye5K9m4dp531dxqOH0iovymBvN/G7QbSWkCjKjR02c
I29PXr1APdcc8GVa3KSw0iwMvALxa7gYVw/50ruLYlVYyT06ZDnjDf8+ebrRfJvt
uulKAWdwoOtF8tceIaG/YKG1T67zMDcSJwOfGmd0AdFeKnwlqNHF505c
-----END CERTIFICATE-----
