Certificate:
    Data:
        Version: 3 (0x2)
        Serial Number:
            a6:a0:a7:3d:ff:30:37:7e:23:c7:ef:c5:3c:05:ba:6c
        Signature Algorithm: sha256WithRSAEncryption
        Issuer: CN=team6-net
        Validity
            Not Before: Nov  3 20:39:23 2023 GMT
            Not After : Oct 18 20:39:23 2026 GMT
        Subject: CN=team6-client
        Subject Public Key Info:
            Public Key Algorithm: rsaEncryption
                Public-Key: (2048 bit)
                Modulus:
                    00:ae:81:b8:e7:61:8e:56:35:90:45:9d:89:a9:71:
                    f0:b1:a2:24:9b:33:37:20:63:8b:b8:aa:2a:d8:e5:
                    4c:3e:5e:f6:3f:74:d3:c1:e2:8c:47:f0:01:5c:49:
                    49:8d:9c:b8:62:40:24:98:4b:c7:32:bd:95:3c:2f:
                    73:09:be:88:53:bc:8e:34:ad:ca:b2:d9:96:88:d0:
                    21:b3:d3:eb:ff:2a:37:27:4d:e4:08:d0:f8:f3:fe:
                    b8:dd:a7:36:f8:fc:50:15:f7:7b:21:8e:5c:ec:e1:
                    1d:dd:4a:23:b6:c2:02:28:2f:59:99:3c:60:f5:ad:
                    c8:52:23:cc:45:fb:e9:18:2f:91:35:73:2b:a4:05:
                    d2:de:89:96:27:6a:63:4d:e6:37:1a:85:3f:db:77:
                    3b:0b:cf:66:8c:43:3f:83:69:d7:0c:8d:a8:8e:0b:
                    a4:e6:a5:31:4c:1a:d3:ea:45:e6:2e:8c:8e:40:65:
                    96:86:33:ba:01:06:09:44:28:e0:ee:fd:9d:31:0b:
                    9a:a2:f9:14:14:3b:7b:28:2e:02:6b:d5:d6:91:44:
                    9b:3b:a3:5a:1b:9d:ee:15:46:5e:fd:9f:0f:79:e9:
                    50:79:b5:c4:50:e4:06:12:8b:1a:7a:62:cf:32:0e:
                    53:49:59:34:4b:5a:ca:2d:2e:8f:3f:99:30:4a:93:
                    1f:85
                Exponent: 65537 (0x10001)
        X509v3 extensions:
            X509v3 Basic Constraints: 
                CA:FALSE
            X509v3 Subject Key Identifier: 
                A6:4E:86:46:AE:EB:71:32:8B:18:1C:86:20:B4:6F:B4:D4:F6:E0:53
            X509v3 Authority Key Identifier: 
                keyid:76:CC:A0:83:5A:52:C2:21:06:85:87:58:F9:C7:7A:98:82:0F:0E:E6
                DirName:/CN=team6-net
                serial:1B:EF:B2:2C:77:E4:8C:8B:AB:B7:FD:C4:9C:7A:81:9F:EA:14:49:FA
            X509v3 Extended Key Usage: 
                TLS Web Client Authentication
            X509v3 Key Usage: 
                Digital Signature
    Signature Algorithm: sha256WithRSAEncryption
    Signature Value:
        83:6a:07:7d:eb:90:1c:52:93:91:b7:68:98:d9:80:08:1a:29:
        ab:61:16:bb:55:f0:56:ff:6b:02:7d:d3:ef:85:76:9c:88:1f:
        f2:4d:64:8b:d6:d4:9c:78:6e:d4:40:6e:5b:03:9e:d3:a0:ca:
        d5:b2:87:f0:47:31:5c:da:b6:f3:22:ae:5d:78:91:d3:50:c4:
        42:50:cd:9c:56:8d:d8:3f:ce:81:55:5a:ec:50:0d:a2:e7:b6:
        29:fd:da:f4:10:45:e2:c1:c9:38:fe:6e:cd:f8:58:9e:ac:7a:
        85:06:ee:2a:39:ed:9e:f2:18:7d:54:4e:bc:c6:c6:67:7e:62:
        c9:ad:de:48:97:14:f3:29:e6:67:1a:2b:89:0b:df:ec:3a:6d:
        5d:11:a6:17:d4:e3:25:7a:bf:db:10:c6:e8:9f:2a:1c:ad:bd:
        d8:35:6d:c8:57:4b:a8:72:7f:ec:76:87:70:d8:3a:02:72:27:
        34:a9:78:60:05:0b:05:c8:e3:24:8f:01:e2:fc:0b:9b:67:c0:
        20:f6:a3:26:ff:0b:07:e5:90:a5:33:e2:74:14:00:48:af:3d:
        ec:d5:17:21:76:9d:7b:e2:fc:b3:0a:a1:19:3f:41:82:a8:b8:
        2c:44:49:c8:c5:35:2d:a8:81:36:67:d5:a1:53:33:4b:e9:ce:
        d5:d2:ab:53
-----BEGIN CERTIFICATE-----
MIIDVzCCAj+gAwIBAgIRAKagpz3/MDd+I8fvxTwFumwwDQYJKoZIhvcNAQELBQAw
FDESMBAGA1UEAwwJdGVhbTYtbmV0MB4XDTIzMTEwMzIwMzkyM1oXDTI2MTAxODIw
MzkyM1owFzEVMBMGA1UEAwwMdGVhbTYtY2xpZW50MIIBIjANBgkqhkiG9w0BAQEF
AAOCAQ8AMIIBCgKCAQEAroG452GOVjWQRZ2JqXHwsaIkmzM3IGOLuKoq2OVMPl72
P3TTweKMR/ABXElJjZy4YkAkmEvHMr2VPC9zCb6IU7yONK3KstmWiNAhs9Pr/yo3
J03kCND48/643ac2+PxQFfd7IY5c7OEd3UojtsICKC9ZmTxg9a3IUiPMRfvpGC+R
NXMrpAXS3omWJ2pjTeY3GoU/23c7C89mjEM/g2nXDI2ojguk5qUxTBrT6kXmLoyO
QGWWhjO6AQYJRCjg7v2dMQuaovkUFDt7KC4Ca9XWkUSbO6NaG53uFUZe/Z8PeelQ
ebXEUOQGEosaemLPMg5TSVk0S1rKLS6PP5kwSpMfhQIDAQABo4GgMIGdMAkGA1Ud
EwQCMAAwHQYDVR0OBBYEFKZOhkau63EyixgchiC0b7TU9uBTME8GA1UdIwRIMEaA
FHbMoINaUsIhBoWHWPnHepiCDw7moRikFjAUMRIwEAYDVQQDDAl0ZWFtNi1uZXSC
FBvvsix35IyLq7f9xJx6gZ/qFEn6MBMGA1UdJQQMMAoGCCsGAQUFBwMCMAsGA1Ud
DwQEAwIHgDANBgkqhkiG9w0BAQsFAAOCAQEAg2oHfeuQHFKTkbdomNmACBopq2EW
u1XwVv9rAn3T74V2nIgf8k1ki9bUnHhu1EBuWwOe06DK1bKH8EcxXNq28yKuXXiR
01DEQlDNnFaN2D/OgVVa7FANoue2Kf3a9BBF4sHJOP5uzfhYnqx6hQbuKjntnvIY
fVROvMbGZ35iya3eSJcU8ynmZxoriQvf7DptXRGmF9TjJXq/2xDG6J8qHK292DVt
yFdLqHJ/7HaHcNg6AnInNKl4YAULBcjjJI8B4vwLm2fAIPajJv8LB+WQpTPidBQA
SK897NUXIXade+L8swqhGT9Bgqi4LERJyMU1LaiBNmfVoVMzS+nO1dKrUw==
-----END CERTIFICATE-----
