Certificate:
    Data:
        Version: 3 (0x2)
        Serial Number:
            d6:90:78:35:4a:ad:cd:73:3e:bd:70:93:12:57:65:0a
        Signature Algorithm: sha256WithRSAEncryption
        Issuer: CN=team6-net
        Validity
            Not Before: Nov  4 11:27:31 2023 GMT
            Not After : Oct 19 11:27:31 2026 GMT
        Subject: CN=team6-client
        Subject Public Key Info:
            Public Key Algorithm: rsaEncryption
                Public-Key: (2048 bit)
                Modulus:
                    00:a5:20:17:9b:99:58:f9:ef:e8:d2:99:b3:a2:24:
                    88:c3:81:6c:4f:7a:da:3f:c5:44:fa:53:e7:cf:45:
                    29:99:ba:3f:c6:7c:6f:4e:0a:8f:e9:8b:bf:9b:e0:
                    8e:a5:7e:14:b5:3a:be:61:31:b1:41:3d:f4:29:5a:
                    ad:02:99:c6:fa:26:33:08:1e:aa:fd:55:31:b6:1c:
                    9e:70:b4:27:72:39:ab:31:9c:29:c8:a8:cf:0b:8a:
                    56:94:e8:81:9b:a6:ed:e2:f3:bc:2b:06:ec:65:f6:
                    cb:9a:1b:e8:72:60:f4:1f:4c:dd:12:5f:6c:21:f4:
                    f3:b8:aa:17:08:5d:de:37:70:e6:25:7c:e5:a9:19:
                    01:7d:7a:e2:c2:c0:c1:a0:8e:dc:77:83:ce:ec:be:
                    f2:ae:03:04:aa:38:47:13:74:78:dc:c7:e4:20:ad:
                    c8:95:96:64:8f:60:7d:f7:3d:78:e8:0e:ca:9f:5d:
                    15:fa:c0:05:7a:23:89:a0:e5:f5:0e:be:28:1c:8b:
                    df:d7:68:28:29:f8:c1:b4:95:5d:c8:7e:d8:43:27:
                    73:db:59:01:0b:0e:9b:0b:18:d3:f5:81:34:36:72:
                    6e:ca:b3:22:ad:03:35:19:0d:4a:e1:e7:92:ea:70:
                    42:43:f9:ae:35:c1:b4:ea:d5:9c:6c:4a:9e:82:3e:
                    56:cd
                Exponent: 65537 (0x10001)
        X509v3 extensions:
            X509v3 Basic Constraints: 
                CA:FALSE
            X509v3 Subject Key Identifier: 
                69:6E:62:13:BA:03:A1:22:54:9F:46:51:43:75:EE:18:80:77:7E:2A
            X509v3 Authority Key Identifier: 
                keyid:9F:31:3C:E7:B8:57:43:25:F0:1B:09:8A:23:B4:22:3A:20:19:C1:A6
                DirName:/CN=team6-net
                serial:03:C0:02:FC:F0:11:B6:AC:75:BB:18:1F:C7:43:23:79:DF:81:41:71
            X509v3 Extended Key Usage: 
                TLS Web Client Authentication
            X509v3 Key Usage: 
                Digital Signature
    Signature Algorithm: sha256WithRSAEncryption
    Signature Value:
        92:fd:75:02:19:a5:82:91:f3:78:80:45:cd:4a:e1:a4:cc:92:
        9a:fa:3b:c3:c7:23:37:d2:71:06:af:b6:23:ca:d0:8d:e4:7b:
        30:7f:06:7d:82:af:b5:33:31:79:96:26:a6:e2:bc:5d:a6:65:
        a5:09:1c:55:d3:db:49:b2:89:54:d4:9c:e6:4e:c5:50:b8:e4:
        7d:be:e3:bb:1a:03:ef:70:42:06:fc:ab:53:9a:83:f6:fa:df:
        71:40:37:c6:84:e8:19:ae:20:9f:45:52:28:5e:a6:b1:4c:e6:
        b3:df:0c:48:c2:e3:03:85:46:26:79:a0:35:86:83:6a:81:64:
        8b:6f:e7:0b:4c:e3:f6:12:3e:71:d4:33:9e:2c:09:6e:27:25:
        3d:24:1b:88:1c:b3:b8:73:22:eb:e2:a1:9e:37:38:4a:04:c0:
        20:8d:c3:a6:a3:43:1d:da:ea:fa:7d:8b:cf:0b:57:ae:eb:18:
        51:31:4b:80:9a:76:12:3d:16:e2:05:82:b9:42:6f:56:04:31:
        f7:72:e4:80:35:11:eb:00:db:9f:c6:37:a8:1f:5f:5c:ed:c3:
        68:66:de:48:5c:a0:d1:2a:36:52:34:8a:13:97:81:14:ef:d1:
        d3:4f:fd:13:f0:aa:98:2d:8d:c6:35:35:20:59:ea:e3:d8:20:
        bc:22:52:1b
-----BEGIN CERTIFICATE-----
MIIDVzCCAj+gAwIBAgIRANaQeDVKrc1zPr1wkxJXZQowDQYJKoZIhvcNAQELBQAw
FDESMBAGA1UEAwwJdGVhbTYtbmV0MB4XDTIzMTEwNDExMjczMVoXDTI2MTAxOTEx
MjczMVowFzEVMBMGA1UEAwwMdGVhbTYtY2xpZW50MIIBIjANBgkqhkiG9w0BAQEF
AAOCAQ8AMIIBCgKCAQEApSAXm5lY+e/o0pmzoiSIw4FsT3raP8VE+lPnz0Upmbo/
xnxvTgqP6Yu/m+COpX4UtTq+YTGxQT30KVqtApnG+iYzCB6q/VUxthyecLQncjmr
MZwpyKjPC4pWlOiBm6bt4vO8KwbsZfbLmhvocmD0H0zdEl9sIfTzuKoXCF3eN3Dm
JXzlqRkBfXriwsDBoI7cd4PO7L7yrgMEqjhHE3R43MfkIK3IlZZkj2B99z146A7K
n10V+sAFeiOJoOX1Dr4oHIvf12goKfjBtJVdyH7YQydz21kBCw6bCxjT9YE0NnJu
yrMirQM1GQ1K4eeS6nBCQ/muNcG06tWcbEqegj5WzQIDAQABo4GgMIGdMAkGA1Ud
EwQCMAAwHQYDVR0OBBYEFGluYhO6A6EiVJ9GUUN17hiAd34qME8GA1UdIwRIMEaA
FJ8xPOe4V0Ml8BsJiiO0IjogGcGmoRikFjAUMRIwEAYDVQQDDAl0ZWFtNi1uZXSC
FAPAAvzwEbasdbsYH8dDI3nfgUFxMBMGA1UdJQQMMAoGCCsGAQUFBwMCMAsGA1Ud
DwQEAwIHgDANBgkqhkiG9w0BAQsFAAOCAQEAkv11AhmlgpHzeIBFzUrhpMySmvo7
w8cjN9JxBq+2I8rQjeR7MH8GfYKvtTMxeZYmpuK8XaZlpQkcVdPbSbKJVNSc5k7F
ULjkfb7juxoD73BCBvyrU5qD9vrfcUA3xoToGa4gn0VSKF6msUzms98MSMLjA4VG
JnmgNYaDaoFki2/nC0zj9hI+cdQzniwJbiclPSQbiByzuHMi6+Khnjc4SgTAII3D
pqNDHdrq+n2LzwtXrusYUTFLgJp2Ej0W4gWCuUJvVgQx93LkgDUR6wDbn8Y3qB9f
XO3DaGbeSFyg0So2UjSKE5eBFO/R00/9E/CqmC2NxjU1IFnq49ggvCJSGw==
-----END CERTIFICATE-----
