Certificate:
    Data:
        Version: 3 (0x2)
        Serial Number:
            9f:ba:8d:b8:2e:70:a4:86:7e:2a:87:1c:dc:79:1d:15
        Signature Algorithm: sha256WithRSAEncryption
        Issuer: CN=team296-net
        Validity
            Not Before: Nov  3 20:44:39 2023 GMT
            Not After : Oct 18 20:44:39 2026 GMT
        Subject: CN=team296-client
        Subject Public Key Info:
            Public Key Algorithm: rsaEncryption
                Public-Key: (2048 bit)
                Modulus:
                    00:ec:b9:59:6c:ab:2c:84:02:96:76:01:66:ad:de:
                    b4:06:c9:b7:15:33:31:5a:12:65:2e:08:90:54:21:
                    12:f3:e5:41:4a:c9:d4:f2:ca:6d:b5:2e:2c:9c:0b:
                    8a:db:7c:a5:5f:8b:76:08:fc:da:94:3f:a9:e2:33:
                    58:92:e6:e5:f6:7f:76:c5:ba:66:4d:7c:7c:8a:35:
                    48:88:ad:ce:3f:5b:8d:bb:8f:f2:8d:54:f0:c5:32:
                    a4:a0:14:ac:01:6b:50:c1:85:86:2f:c6:5f:e7:6e:
                    40:03:eb:49:a7:65:b0:63:de:96:4a:c1:db:50:9a:
                    14:84:7c:0b:ca:07:99:ee:89:e1:44:70:21:88:a4:
                    e7:69:14:a5:b9:4c:58:2f:d7:13:5b:57:08:14:e7:
                    60:6e:77:a1:f9:b4:7b:b5:cf:e4:f7:62:d0:cb:70:
                    ed:8c:bd:b2:51:6e:83:c5:dc:f7:22:7c:d4:27:f4:
                    be:b4:c0:57:c0:f5:67:e9:7e:40:51:7b:51:ae:b0:
                    6a:84:6a:4d:90:fa:58:70:40:7a:b2:92:bc:74:49:
                    4c:5e:6e:e5:b0:bb:5c:32:d1:d8:73:f0:96:4b:df:
                    04:57:99:d2:cb:4e:56:f5:c8:d8:ab:66:ab:bd:0c:
                    bf:03:73:94:d4:8e:e0:02:6a:a9:aa:36:f8:60:a9:
                    b7:89
                Exponent: 65537 (0x10001)
        X509v3 extensions:
            X509v3 Basic Constraints: 
                CA:FALSE
            X509v3 Subject Key Identifier: 
                F1:27:95:E2:E9:EC:E4:0C:59:F1:4B:20:AE:77:8D:37:F3:C9:3A:49
            X509v3 Authority Key Identifier: 
                keyid:A4:EF:13:4D:1A:55:CF:47:C8:19:8F:5C:2C:E0:70:0F:0D:B1:26:11
                DirName:/CN=team296-net
                serial:77:E5:A6:B1:80:84:62:F5:8B:2D:38:59:15:F2:71:DB:0D:55:C2:E1
            X509v3 Extended Key Usage: 
                TLS Web Client Authentication
            X509v3 Key Usage: 
                Digital Signature
    Signature Algorithm: sha256WithRSAEncryption
    Signature Value:
        80:3f:ac:5e:7b:cc:2b:7b:5c:d1:d1:da:ba:b8:8f:a0:d0:33:
        ab:14:12:43:d0:48:7e:2a:39:a9:9b:52:20:02:6a:a7:b4:71:
        76:13:87:3f:3e:5b:c2:1b:19:7b:13:5e:7a:55:04:9e:48:a5:
        7e:7c:55:a2:8b:f4:56:c4:49:4c:6e:50:3b:1f:5b:40:f0:cc:
        c2:a9:5e:50:7d:9d:7a:48:8d:05:43:94:21:2b:9f:39:28:af:
        92:42:de:99:93:3b:fe:b1:2d:f9:c0:74:f8:2a:74:cc:19:dc:
        db:05:85:f8:90:23:86:b5:27:44:50:9f:8d:0a:3e:73:05:92:
        e9:e6:eb:fa:63:38:f4:85:d1:17:3a:6f:ae:b7:39:b0:99:a5:
        4f:12:74:d3:14:21:f8:b0:c3:36:80:84:65:46:3f:c4:e9:46:
        21:bb:3f:c1:d3:3c:c5:7f:4a:24:7c:c2:91:04:2b:8e:60:77:
        ed:d5:a8:bb:d5:f5:a0:9f:77:72:eb:fa:f3:a2:f6:1b:6e:ff:
        9d:88:79:1f:e0:dd:46:ab:9d:e7:d6:fa:54:c9:3d:f2:b9:d2:
        9a:28:6e:92:00:c0:a6:c3:74:1b:0f:2c:50:c7:c7:9f:55:da:
        1e:f3:74:4e:6d:73:d3:82:b8:b3:ec:92:e9:be:24:93:e5:84:
        d7:10:9c:f8
-----BEGIN CERTIFICATE-----
MIIDXTCCAkWgAwIBAgIRAJ+6jbgucKSGfiqHHNx5HRUwDQYJKoZIhvcNAQELBQAw
FjEUMBIGA1UEAwwLdGVhbTI5Ni1uZXQwHhcNMjMxMTAzMjA0NDM5WhcNMjYxMDE4
MjA0NDM5WjAZMRcwFQYDVQQDDA50ZWFtMjk2LWNsaWVudDCCASIwDQYJKoZIhvcN
AQEBBQADggEPADCCAQoCggEBAOy5WWyrLIQClnYBZq3etAbJtxUzMVoSZS4IkFQh
EvPlQUrJ1PLKbbUuLJwLitt8pV+Ldgj82pQ/qeIzWJLm5fZ/dsW6Zk18fIo1SIit
zj9bjbuP8o1U8MUypKAUrAFrUMGFhi/GX+duQAPrSadlsGPelkrB21CaFIR8C8oH
me6J4URwIYik52kUpblMWC/XE1tXCBTnYG53ofm0e7XP5Pdi0Mtw7Yy9slFug8Xc
9yJ81Cf0vrTAV8D1Z+l+QFF7Ua6waoRqTZD6WHBAerKSvHRJTF5u5bC7XDLR2HPw
lkvfBFeZ0stOVvXI2Ktmq70MvwNzlNSO4AJqqao2+GCpt4kCAwEAAaOBojCBnzAJ
BgNVHRMEAjAAMB0GA1UdDgQWBBTxJ5Xi6ezkDFnxSyCud40388k6STBRBgNVHSME
SjBIgBSk7xNNGlXPR8gZj1ws4HAPDbEmEaEapBgwFjEUMBIGA1UEAwwLdGVhbTI5
Ni1uZXSCFHflprGAhGL1iy04WRXycdsNVcLhMBMGA1UdJQQMMAoGCCsGAQUFBwMC
MAsGA1UdDwQEAwIHgDANBgkqhkiG9w0BAQsFAAOCAQEAgD+sXnvMK3tc0dHauriP
oNAzqxQSQ9BIfio5qZtSIAJqp7RxdhOHPz5bwhsZexNeelUEnkilfnxVoov0VsRJ
TG5QOx9bQPDMwqleUH2dekiNBUOUISufOSivkkLemZM7/rEt+cB0+Cp0zBnc2wWF
+JAjhrUnRFCfjQo+cwWS6ebr+mM49IXRFzpvrrc5sJmlTxJ00xQh+LDDNoCEZUY/
xOlGIbs/wdM8xX9KJHzCkQQrjmB37dWou9X1oJ93cuv686L2G27/nYh5H+DdRqud
59b6VMk98rnSmihukgDApsN0Gw8sUMfHn1XaHvN0Tm1z04K4s+yS6b4kk+WE1xCc
+A==
-----END CERTIFICATE-----
