Certificate:
    Data:
        Version: 3 (0x2)
        Serial Number:
            97:10:9f:2a:6f:27:72:f8:0a:87:5e:80:6b:d5:c5:d5
        Signature Algorithm: sha256WithRSAEncryption
        Issuer: CN=team38-net
        Validity
            Not Before: Nov  3 20:39:55 2023 GMT
            Not After : Oct 18 20:39:55 2026 GMT
        Subject: CN=team38-server
        Subject Public Key Info:
            Public Key Algorithm: rsaEncryption
                Public-Key: (2048 bit)
                Modulus:
                    00:8f:09:02:08:1a:83:55:f0:2e:d5:0c:8b:cb:23:
                    50:c6:f4:10:ed:16:ee:84:0e:5e:ac:40:27:21:5e:
                    2c:b9:a4:07:c8:d5:2a:aa:4e:e6:33:41:85:09:f5:
                    90:09:4c:5f:2b:cc:4d:65:e4:83:df:63:0d:2d:28:
                    80:57:ee:b9:45:90:01:7a:a1:eb:27:0f:ac:69:90:
                    cd:8b:e2:42:d0:53:f1:66:22:8a:98:a8:93:11:15:
                    ac:9b:4a:39:f6:83:97:9d:5a:42:11:87:9c:75:f2:
                    4f:a0:19:1f:5c:b7:22:09:af:ef:cf:08:c9:d7:ce:
                    06:7c:57:ff:a3:64:e4:7e:ae:8e:d5:1e:b8:59:5b:
                    7f:ae:b6:78:35:66:61:81:60:e4:83:7f:d4:3e:99:
                    b4:55:1d:df:3b:7a:f5:c1:f4:8b:aa:45:be:14:54:
                    28:36:27:04:b7:d6:27:8e:a6:1c:d1:83:40:1f:af:
                    5a:02:6f:d6:2a:b0:3a:90:16:96:fa:21:b5:fe:2c:
                    70:07:57:0a:0e:7b:05:16:44:f5:65:48:26:ff:4e:
                    bb:3a:8d:41:c4:ac:fb:cb:0f:8c:9e:3b:eb:81:22:
                    01:8f:05:0e:8a:6e:5a:f1:86:c3:98:d2:48:26:b5:
                    b0:12:55:ab:26:23:53:27:5e:2a:c0:57:c0:83:35:
                    2a:0d
                Exponent: 65537 (0x10001)
        X509v3 extensions:
            X509v3 Basic Constraints: 
                CA:FALSE
            X509v3 Subject Key Identifier: 
                23:4C:AB:BF:43:F7:C0:27:5C:3D:71:D4:34:98:F3:D7:32:98:F2:63
            X509v3 Authority Key Identifier: 
                keyid:19:89:83:57:9A:FB:62:22:E9:7B:7F:8E:B7:59:56:8E:C7:FD:53:5C
                DirName:/CN=team38-net
                serial:56:49:E8:D1:FE:A5:38:27:BB:18:87:D0:BE:E6:24:30:49:04:51:14
            X509v3 Extended Key Usage: 
                TLS Web Server Authentication
            X509v3 Key Usage: 
                Digital Signature, Key Encipherment
            X509v3 Subject Alternative Name: 
                DNS:team38-server
    Signature Algorithm: sha256WithRSAEncryption
    Signature Value:
        7b:44:9e:52:71:39:ac:57:b2:a8:f8:7f:33:fd:16:53:36:c9:
        42:0b:58:38:12:fe:a6:94:61:e7:87:ee:4d:89:21:68:35:86:
        9d:5e:15:7e:9e:82:d3:a9:ab:f8:e5:32:95:6c:3f:40:21:3e:
        19:92:c4:88:af:3f:fa:fe:36:5b:cc:d5:1c:09:45:18:77:62:
        e4:1c:82:88:4c:6d:fb:23:f1:6d:c0:2d:b5:af:99:1f:c1:75:
        cb:91:09:3d:69:11:12:1c:db:16:b8:69:42:e0:eb:7f:99:df:
        42:2c:ca:10:fd:05:7d:88:e1:43:61:50:bd:06:c9:67:fc:51:
        23:cd:d0:45:8e:87:df:a5:c2:0a:80:2d:2e:e0:31:d0:b4:91:
        22:43:08:10:ff:87:65:07:38:6d:52:b6:b0:ec:6a:12:ca:f6:
        fb:cb:90:46:b5:2c:28:16:3c:d9:0b:ed:96:6f:7b:79:4f:13:
        5d:86:22:6e:9f:90:0e:43:a7:56:67:2b:43:9f:8c:5e:29:b8:
        03:6f:13:4f:4b:f5:8d:b4:9e:89:82:e2:0b:e8:52:97:28:b2:
        51:5a:29:79:67:40:bd:a4:8a:75:fc:cc:55:7a:18:03:47:31:
        49:bf:01:87:cf:39:61:0a:ed:46:54:ea:15:c5:73:47:ac:a1:
        2b:6e:ea:1b
-----BEGIN CERTIFICATE-----
MIIDdDCCAlygAwIBAgIRAJcQnypvJ3L4CodegGvVxdUwDQYJKoZIhvcNAQELBQAw
FTETMBEGA1UEAwwKdGVhbTM4LW5ldDAeFw0yMzExMDMyMDM5NTVaFw0yNjEwMTgy
MDM5NTVaMBgxFjAUBgNVBAMMDXRlYW0zOC1zZXJ2ZXIwggEiMA0GCSqGSIb3DQEB
AQUAA4IBDwAwggEKAoIBAQCPCQIIGoNV8C7VDIvLI1DG9BDtFu6EDl6sQCchXiy5
pAfI1SqqTuYzQYUJ9ZAJTF8rzE1l5IPfYw0tKIBX7rlFkAF6oesnD6xpkM2L4kLQ
U/FmIoqYqJMRFaybSjn2g5edWkIRh5x18k+gGR9ctyIJr+/PCMnXzgZ8V/+jZOR+
ro7VHrhZW3+utng1ZmGBYOSDf9Q+mbRVHd87evXB9IuqRb4UVCg2JwS31ieOphzR
g0Afr1oCb9YqsDqQFpb6IbX+LHAHVwoOewUWRPVlSCb/Trs6jUHErPvLD4yeO+uB
IgGPBQ6KblrxhsOY0kgmtbASVasmI1MnXirAV8CDNSoNAgMBAAGjgbswgbgwCQYD
VR0TBAIwADAdBgNVHQ4EFgQUI0yrv0P3wCdcPXHUNJjz1zKY8mMwUAYDVR0jBEkw
R4AUGYmDV5r7YiLpe3+Ot1lWjsf9U1yhGaQXMBUxEzARBgNVBAMMCnRlYW0zOC1u
ZXSCFFZJ6NH+pTgnuxiH0L7mJDBJBFEUMBMGA1UdJQQMMAoGCCsGAQUFBwMBMAsG
A1UdDwQEAwIFoDAYBgNVHREEETAPgg10ZWFtMzgtc2VydmVyMA0GCSqGSIb3DQEB
CwUAA4IBAQB7RJ5ScTmsV7Ko+H8z/RZTNslCC1g4Ev6mlGHnh+5NiSFoNYadXhV+
noLTqav45TKVbD9AIT4ZksSIrz/6/jZbzNUcCUUYd2LkHIKITG37I/FtwC21r5kf
wXXLkQk9aRESHNsWuGlC4Ot/md9CLMoQ/QV9iOFDYVC9Bsln/FEjzdBFjoffpcIK
gC0u4DHQtJEiQwgQ/4dlBzhtUraw7GoSyvb7y5BGtSwoFjzZC+2Wb3t5TxNdhiJu
n5AOQ6dWZytDn4xeKbgDbxNPS/WNtJ6JguIL6FKXKLJRWil5Z0C9pIp1/MxVehgD
RzFJvwGHzzlhCu1GVOoVxXNHrKErbuob
-----END CERTIFICATE-----
