Certificate:
    Data:
        Version: 3 (0x2)
        Serial Number:
            6e:7b:15:b6:19:bf:a5:83:23:c4:e5:15:3f:47:d2:ae
        Signature Algorithm: sha256WithRSAEncryption
        Issuer: CN=team243-net
        Validity
            Not Before: Nov  4 10:45:11 2023 GMT
            Not After : Oct 19 10:45:11 2026 GMT
        Subject: CN=team243-server
        Subject Public Key Info:
            Public Key Algorithm: rsaEncryption
                Public-Key: (2048 bit)
                Modulus:
                    00:b7:c7:ab:62:45:5b:eb:87:62:a2:45:11:66:4d:
                    ff:10:63:9e:f4:1a:33:c8:82:68:a4:ed:85:cc:42:
                    81:12:87:27:2e:0c:41:4f:fe:d5:c0:b1:ea:17:41:
                    0b:ef:6f:03:31:fe:62:db:bf:4d:60:eb:d9:d4:fc:
                    e0:0e:1c:cf:9e:a7:40:cd:d4:38:9f:92:f4:79:ed:
                    61:27:32:97:07:c8:06:b7:e9:a1:2f:4e:17:20:20:
                    ed:46:a8:dc:a5:05:4d:ab:bc:bb:97:31:01:f1:9c:
                    56:35:fc:97:31:ce:08:83:9f:69:00:8e:9d:45:92:
                    46:cc:07:f3:ff:c8:0a:4a:da:92:57:96:09:5d:69:
                    f0:5f:46:55:73:bf:b8:1c:5f:d7:3b:66:d4:9a:29:
                    7c:71:5c:b6:ba:a8:72:df:87:5a:e7:85:f0:86:1d:
                    d2:3f:3a:28:0d:dd:b7:ca:af:81:00:3d:ed:01:ab:
                    39:16:a5:e0:bb:c2:ee:26:a0:01:3e:22:c8:ae:62:
                    7a:de:18:ae:6c:45:a9:4d:3e:be:13:46:18:b0:f8:
                    94:ff:c5:7d:5c:8c:7b:8e:b8:04:c8:7f:46:6e:db:
                    05:74:d9:35:b5:9f:61:d9:ef:0d:b4:c3:ae:b2:8f:
                    71:43:8f:bf:02:fa:9d:c1:a8:8c:35:ec:6d:80:eb:
                    64:cb
                Exponent: 65537 (0x10001)
        X509v3 extensions:
            X509v3 Basic Constraints: 
                CA:FALSE
            X509v3 Subject Key Identifier: 
                B9:CE:D6:81:2E:6C:9E:6C:D6:8D:D5:47:87:B3:21:90:D6:3B:98:B6
            X509v3 Authority Key Identifier: 
                keyid:1D:D6:62:06:75:E2:23:23:9C:FE:C0:32:14:E2:86:96:62:77:1B:41
                DirName:/CN=team243-net
                serial:28:9B:4A:E3:83:A3:3F:3B:FA:8A:66:C8:AC:64:E0:67:A4:B1:A8:27
            X509v3 Extended Key Usage: 
                TLS Web Server Authentication
            X509v3 Key Usage: 
                Digital Signature, Key Encipherment
            X509v3 Subject Alternative Name: 
                DNS:team243-server
    Signature Algorithm: sha256WithRSAEncryption
    Signature Value:
        17:93:07:4a:cb:1d:ca:d0:ad:3d:a0:0b:6c:df:7a:9c:43:cf:
        f7:44:55:99:b1:57:29:53:9c:3a:20:04:12:71:78:67:f5:39:
        a0:e5:2f:54:9b:01:c6:c4:0e:1f:5d:dd:ee:bb:94:1a:92:f1:
        1a:9b:ee:d1:28:0f:b9:2e:d9:30:7a:0f:b3:de:98:77:45:9a:
        01:13:c0:b3:bb:44:7d:51:db:ba:b9:1b:d4:29:24:be:19:02:
        01:f1:ba:1b:d0:6f:d2:d0:f0:36:76:88:57:fb:21:3e:ce:59:
        ed:ff:2d:a0:9b:41:a7:32:53:e5:2b:8e:4f:f9:19:a4:49:a2:
        07:f9:ed:33:a0:2e:4d:de:21:dd:d2:a6:b4:3c:ee:0d:04:ee:
        f0:cb:ee:f1:43:65:be:d8:31:f5:98:af:7f:f1:c3:f7:90:98:
        ab:7d:34:e8:a5:b3:52:76:98:24:47:ea:62:0f:64:dc:db:ba:
        44:65:ae:a5:ad:41:c5:46:f1:f2:bf:17:f8:ee:af:dd:2e:38:
        fc:ad:9b:83:7d:97:18:06:ee:8f:5f:93:1e:b7:0b:f5:47:fd:
        c7:1b:00:53:4a:7d:0b:52:3f:ad:da:3e:bc:49:82:eb:3e:55:
        7e:d7:1e:84:79:1e:42:b3:73:a9:9c:08:9d:14:6e:8e:9e:8d:
        da:29:5e:b1
-----BEGIN CERTIFICATE-----
MIIDdzCCAl+gAwIBAgIQbnsVthm/pYMjxOUVP0fSrjANBgkqhkiG9w0BAQsFADAW
MRQwEgYDVQQDDAt0ZWFtMjQzLW5ldDAeFw0yMzExMDQxMDQ1MTFaFw0yNjEwMTkx
MDQ1MTFaMBkxFzAVBgNVBAMMDnRlYW0yNDMtc2VydmVyMIIBIjANBgkqhkiG9w0B
AQEFAAOCAQ8AMIIBCgKCAQEAt8erYkVb64diokURZk3/EGOe9BozyIJopO2FzEKB
EocnLgxBT/7VwLHqF0EL728DMf5i279NYOvZ1PzgDhzPnqdAzdQ4n5L0ee1hJzKX
B8gGt+mhL04XICDtRqjcpQVNq7y7lzEB8ZxWNfyXMc4Ig59pAI6dRZJGzAfz/8gK
StqSV5YJXWnwX0ZVc7+4HF/XO2bUmil8cVy2uqhy34da54Xwhh3SPzooDd23yq+B
AD3tAas5FqXgu8LuJqABPiLIrmJ63hiubEWpTT6+E0YYsPiU/8V9XIx7jrgEyH9G
btsFdNk1tZ9h2e8NtMOuso9xQ4+/AvqdwaiMNextgOtkywIDAQABo4G9MIG6MAkG
A1UdEwQCMAAwHQYDVR0OBBYEFLnO1oEubJ5s1o3VR4ezIZDWO5i2MFEGA1UdIwRK
MEiAFB3WYgZ14iMjnP7AMhTihpZidxtBoRqkGDAWMRQwEgYDVQQDDAt0ZWFtMjQz
LW5ldIIUKJtK44OjPzv6imbIrGTgZ6SxqCcwEwYDVR0lBAwwCgYIKwYBBQUHAwEw
CwYDVR0PBAQDAgWgMBkGA1UdEQQSMBCCDnRlYW0yNDMtc2VydmVyMA0GCSqGSIb3
DQEBCwUAA4IBAQAXkwdKyx3K0K09oAts33qcQ8/3RFWZsVcpU5w6IAQScXhn9Tmg
5S9UmwHGxA4fXd3uu5QakvEam+7RKA+5Ltkweg+z3ph3RZoBE8Czu0R9Udu6uRvU
KSS+GQIB8bob0G/S0PA2dohX+yE+zlnt/y2gm0GnMlPlK45P+RmkSaIH+e0zoC5N
3iHd0qa0PO4NBO7wy+7xQ2W+2DH1mK9/8cP3kJirfTTopbNSdpgkR+piD2Tc27pE
Za6lrUHFRvHyvxf47q/dLjj8rZuDfZcYBu6PX5Metwv1R/3HGwBTSn0LUj+t2j68
SYLrPlV+1x6EeR5Cs3OpnAidFG6Ono3aKV6x
-----END CERTIFICATE-----
