Certificate:
    Data:
        Version: 3 (0x2)
        Serial Number:
            9e:25:0b:b5:31:52:3d:22:4b:a7:03:88:cd:d8:b5:e1
        Signature Algorithm: sha256WithRSAEncryption
        Issuer: CN=team243-net
        Validity
            Not Before: Nov  4 11:32:24 2023 GMT
            Not After : Oct 19 11:32:24 2026 GMT
        Subject: CN=team243-server
        Subject Public Key Info:
            Public Key Algorithm: rsaEncryption
                Public-Key: (2048 bit)
                Modulus:
                    00:bd:8b:34:fd:1f:0b:d6:20:25:23:16:ae:a2:65:
                    d4:c3:65:42:2e:ca:b3:3a:9c:c1:61:59:b9:cf:c5:
                    50:2f:6b:7f:6e:15:fb:dd:d7:c5:27:87:9f:44:b9:
                    84:dd:28:25:85:c5:c7:fd:b6:0e:06:e1:51:bb:8f:
                    c7:2e:f8:be:31:72:37:63:aa:c2:7b:66:4c:b2:e7:
                    78:0f:72:11:a6:1a:cd:11:72:1d:ef:b6:63:32:11:
                    c2:42:a7:23:b0:9e:6b:e1:ce:dd:5d:93:25:d9:b4:
                    14:5a:88:e8:00:ec:3a:0e:36:29:c6:2b:34:6c:ff:
                    73:dc:c3:d1:b4:3c:bb:c6:c2:6d:c0:bb:03:45:08:
                    ba:c4:10:c0:31:9f:80:a6:78:a9:e3:32:27:67:a5:
                    32:7c:45:30:99:19:a0:fc:0a:a9:37:37:e8:74:93:
                    5b:f5:97:46:1b:05:f1:28:77:e1:d1:3f:7b:58:b5:
                    e5:3b:5e:af:b9:7f:b9:09:80:89:ed:2d:d2:a2:10:
                    3c:26:b2:f0:c9:9e:5a:df:98:62:b7:ab:8a:5d:28:
                    c8:76:39:59:05:92:f0:36:f7:48:46:fb:2e:c6:16:
                    ed:7d:78:97:32:79:7c:2a:c4:54:df:49:95:90:d7:
                    33:37:ce:c6:b2:8b:b1:9f:c8:da:c7:d9:53:7b:10:
                    c4:29
                Exponent: 65537 (0x10001)
        X509v3 extensions:
            X509v3 Basic Constraints: 
                CA:FALSE
            X509v3 Subject Key Identifier: 
                C8:06:5A:4A:24:BF:99:3D:4D:B1:69:0D:A3:73:F0:D3:0B:BD:4D:E3
            X509v3 Authority Key Identifier: 
                keyid:62:FD:BD:92:25:CA:03:AB:1C:4E:B8:36:F7:39:92:BD:9E:06:5D:A6
                DirName:/CN=team243-net
                serial:1F:AE:05:63:15:65:11:A6:12:05:23:40:3A:4C:A1:C6:BE:51:0F:C0
            X509v3 Extended Key Usage: 
                TLS Web Server Authentication
            X509v3 Key Usage: 
                Digital Signature, Key Encipherment
            X509v3 Subject Alternative Name: 
                DNS:team243-server
    Signature Algorithm: sha256WithRSAEncryption
    Signature Value:
        3e:8c:ac:4c:5e:cd:7c:12:20:d3:64:9f:62:6b:74:d2:a6:72:
        a3:33:bb:3a:8b:8f:f9:38:15:4e:f2:a9:1b:42:db:84:d0:37:
        d1:ea:73:ba:f0:11:b7:ae:81:65:db:ea:83:e7:2b:7d:9b:5a:
        0b:b9:e5:61:78:51:48:67:d9:45:05:ea:92:13:10:69:70:3e:
        d4:19:12:8d:3f:4b:0f:4e:65:7d:37:8a:e7:e5:ab:9e:18:f8:
        32:b8:7b:ae:54:39:9a:95:fb:1f:c1:3d:a9:e0:8a:46:b6:74:
        52:df:06:07:d6:17:06:fd:ad:c0:ee:6a:82:f4:29:29:42:11:
        72:59:52:11:22:8a:80:3f:42:7c:90:4c:c1:4d:83:4d:96:1c:
        32:f6:8f:13:90:af:56:d2:6d:0d:92:ec:d3:1c:01:a5:d4:62:
        58:10:9d:6f:d9:41:5b:59:85:d4:1c:84:ce:2a:de:66:66:6f:
        98:70:02:29:34:2a:24:b9:12:da:47:8b:d7:98:8f:05:32:f4:
        b8:f7:02:99:6c:ad:7f:d5:95:9b:90:cd:74:c7:cc:1d:8d:d5:
        34:11:f5:49:4b:94:48:92:8f:d6:16:93:d3:d7:28:01:48:16:
        46:4d:86:81:5b:68:e3:f0:43:2a:86:89:2c:79:3f:2a:bd:8a:
        9d:50:35:28
-----BEGIN CERTIFICATE-----
MIIDeDCCAmCgAwIBAgIRAJ4lC7UxUj0iS6cDiM3YteEwDQYJKoZIhvcNAQELBQAw
FjEUMBIGA1UEAwwLdGVhbTI0My1uZXQwHhcNMjMxMTA0MTEzMjI0WhcNMjYxMDE5
MTEzMjI0WjAZMRcwFQYDVQQDDA50ZWFtMjQzLXNlcnZlcjCCASIwDQYJKoZIhvcN
AQEBBQADggEPADCCAQoCggEBAL2LNP0fC9YgJSMWrqJl1MNlQi7KszqcwWFZuc/F
UC9rf24V+93XxSeHn0S5hN0oJYXFx/22DgbhUbuPxy74vjFyN2OqwntmTLLneA9y
EaYazRFyHe+2YzIRwkKnI7Cea+HO3V2TJdm0FFqI6ADsOg42KcYrNGz/c9zD0bQ8
u8bCbcC7A0UIusQQwDGfgKZ4qeMyJ2elMnxFMJkZoPwKqTc36HSTW/WXRhsF8Sh3
4dE/e1i15Tter7l/uQmAie0t0qIQPCay8MmeWt+YYreril0oyHY5WQWS8Db3SEb7
LsYW7X14lzJ5fCrEVN9JlZDXMzfOxrKLsZ/I2sfZU3sQxCkCAwEAAaOBvTCBujAJ
BgNVHRMEAjAAMB0GA1UdDgQWBBTIBlpKJL+ZPU2xaQ2jc/DTC71N4zBRBgNVHSME
SjBIgBRi/b2SJcoDqxxOuDb3OZK9ngZdpqEapBgwFjEUMBIGA1UEAwwLdGVhbTI0
My1uZXSCFB+uBWMVZRGmEgUjQDpMoca+UQ/AMBMGA1UdJQQMMAoGCCsGAQUFBwMB
MAsGA1UdDwQEAwIFoDAZBgNVHREEEjAQgg50ZWFtMjQzLXNlcnZlcjANBgkqhkiG
9w0BAQsFAAOCAQEAPoysTF7NfBIg02SfYmt00qZyozO7OouP+TgVTvKpG0LbhNA3
0epzuvARt66BZdvqg+crfZtaC7nlYXhRSGfZRQXqkhMQaXA+1BkSjT9LD05lfTeK
5+Wrnhj4Mrh7rlQ5mpX7H8E9qeCKRrZ0Ut8GB9YXBv2twO5qgvQpKUIRcllSESKK
gD9CfJBMwU2DTZYcMvaPE5CvVtJtDZLs0xwBpdRiWBCdb9lBW1mF1ByEzireZmZv
mHACKTQqJLkS2keL15iPBTL0uPcCmWytf9WVm5DNdMfMHY3VNBH1SUuUSJKP1haT
09coAUgWRk2GgVto4/BDKoaJLHk/Kr2KnVA1KA==
-----END CERTIFICATE-----
