Certificate:
    Data:
        Version: 3 (0x2)
        Serial Number:
            f3:6d:3e:f3:10:8e:ba:7e:ac:66:f8:1c:86:55:8a:c0
        Signature Algorithm: sha256WithRSAEncryption
        Issuer: CN=team243-net
        Validity
            Not Before: Nov  4 10:45:11 2023 GMT
            Not After : Oct 19 10:45:11 2026 GMT
        Subject: CN=team243-client
        Subject Public Key Info:
            Public Key Algorithm: rsaEncryption
                Public-Key: (2048 bit)
                Modulus:
                    00:a1:dd:d1:e2:98:51:87:54:6c:51:c6:b4:13:65:
                    20:62:bc:31:a3:ae:de:8c:78:6e:d0:f0:20:7a:7c:
                    b8:5c:91:dc:bb:63:2f:fc:3d:2d:3e:06:85:19:86:
                    e9:e1:ee:d9:98:d9:1d:26:88:9c:43:d4:e8:e0:c0:
                    93:1e:b8:aa:df:3b:21:d7:75:1d:77:4f:54:ff:89:
                    d0:43:38:dd:c6:19:73:56:4c:3e:53:ba:56:05:40:
                    bc:95:eb:b2:6b:b6:80:c0:0d:47:83:05:30:5c:d1:
                    96:6e:7c:57:a0:a7:e3:05:f2:d8:e5:3c:a7:38:12:
                    34:72:72:67:dc:27:b9:16:01:83:f6:c2:30:e2:05:
                    f4:2c:fb:9e:0b:47:3b:d4:25:02:6b:d8:9a:2e:8d:
                    ae:88:7a:2e:9f:ff:81:39:83:3e:c9:c5:76:05:9c:
                    ac:ad:60:79:fb:f9:4b:53:d2:e3:fd:61:44:11:83:
                    12:15:31:f3:dd:a4:8b:20:bb:21:83:55:de:1b:ab:
                    ab:c4:f1:9c:51:0a:9f:89:8f:f3:95:cc:4f:bc:24:
                    dd:6d:38:ae:fa:f0:76:f6:32:b9:1b:21:47:5a:fa:
                    d2:55:e7:ac:17:ed:07:14:77:2b:a9:4c:0a:c5:c4:
                    7c:7c:7c:7a:29:75:69:60:b4:2e:08:b1:be:98:5e:
                    6c:e9
                Exponent: 65537 (0x10001)
        X509v3 extensions:
            X509v3 Basic Constraints: 
                CA:FALSE
            X509v3 Subject Key Identifier: 
                AC:6C:62:A8:4B:36:41:AC:46:2D:E9:5B:28:EC:7B:8D:AA:E8:9E:D0
            X509v3 Authority Key Identifier: 
                keyid:1D:D6:62:06:75:E2:23:23:9C:FE:C0:32:14:E2:86:96:62:77:1B:41
                DirName:/CN=team243-net
                serial:28:9B:4A:E3:83:A3:3F:3B:FA:8A:66:C8:AC:64:E0:67:A4:B1:A8:27
            X509v3 Extended Key Usage: 
                TLS Web Client Authentication
            X509v3 Key Usage: 
                Digital Signature
    Signature Algorithm: sha256WithRSAEncryption
    Signature Value:
        1a:cc:d2:e8:3e:97:b0:e9:6d:5a:b5:87:53:fc:b6:39:5d:f4:
        56:0a:43:bc:eb:d6:a6:96:a5:a5:ad:b8:d5:bd:0b:a5:dc:ff:
        e8:35:c7:2f:f1:37:9a:5a:88:fe:95:3d:a8:3a:59:23:26:af:
        b2:39:49:b1:58:c1:d6:c1:37:9b:1a:c6:2c:cf:79:b6:13:40:
        af:95:5a:42:e1:76:07:48:a6:52:76:82:c0:ce:78:6c:83:f5:
        f4:06:d2:ce:b3:70:76:92:cf:1a:3a:01:d8:c7:26:07:80:88:
        ff:bc:21:f6:d0:02:b3:b1:79:2a:c7:01:99:d0:26:1a:98:f3:
        c4:59:f5:dc:6b:a5:5f:e2:98:4f:39:54:82:a8:54:2d:a8:af:
        78:d0:80:0e:86:5a:1e:bf:10:90:73:9e:89:70:5c:f0:fc:12:
        82:08:e6:f5:a6:0c:49:86:a5:df:0d:bc:68:2a:37:50:9f:52:
        59:f7:81:89:7d:0e:df:20:b1:7c:38:5f:cb:05:af:b7:fb:21:
        d9:ad:ce:d4:95:ec:ce:74:e1:46:a0:45:1d:e6:63:ec:0f:71:
        c6:be:73:03:40:b8:8e:da:5f:db:a8:a1:3b:72:18:84:33:4b:
        5e:4f:c6:ef:6a:4e:67:c7:06:8c:57:f8:72:fe:da:80:01:6e:
        8b:1b:e5:c1
-----BEGIN CERTIFICATE-----
MIIDXTCCAkWgAwIBAgIRAPNtPvMQjrp+rGb4HIZVisAwDQYJKoZIhvcNAQELBQAw
FjEUMBIGA1UEAwwLdGVhbTI0My1uZXQwHhcNMjMxMTA0MTA0NTExWhcNMjYxMDE5
MTA0NTExWjAZMRcwFQYDVQQDDA50ZWFtMjQzLWNsaWVudDCCASIwDQYJKoZIhvcN
AQEBBQADggEPADCCAQoCggEBAKHd0eKYUYdUbFHGtBNlIGK8MaOu3ox4btDwIHp8
uFyR3LtjL/w9LT4GhRmG6eHu2ZjZHSaInEPU6ODAkx64qt87Idd1HXdPVP+J0EM4
3cYZc1ZMPlO6VgVAvJXrsmu2gMANR4MFMFzRlm58V6Cn4wXy2OU8pzgSNHJyZ9wn
uRYBg/bCMOIF9Cz7ngtHO9QlAmvYmi6Nroh6Lp//gTmDPsnFdgWcrK1gefv5S1PS
4/1hRBGDEhUx892kiyC7IYNV3hurq8TxnFEKn4mP85XMT7wk3W04rvrwdvYyuRsh
R1r60lXnrBftBxR3K6lMCsXEfHx8eil1aWC0LgixvphebOkCAwEAAaOBojCBnzAJ
BgNVHRMEAjAAMB0GA1UdDgQWBBSsbGKoSzZBrEYt6Vso7HuNquie0DBRBgNVHSME
SjBIgBQd1mIGdeIjI5z+wDIU4oaWYncbQaEapBgwFjEUMBIGA1UEAwwLdGVhbTI0
My1uZXSCFCibSuODoz87+opmyKxk4GeksagnMBMGA1UdJQQMMAoGCCsGAQUFBwMC
MAsGA1UdDwQEAwIHgDANBgkqhkiG9w0BAQsFAAOCAQEAGszS6D6XsOltWrWHU/y2
OV30VgpDvOvWppalpa241b0Lpdz/6DXHL/E3mlqI/pU9qDpZIyavsjlJsVjB1sE3
mxrGLM95thNAr5VaQuF2B0imUnaCwM54bIP19AbSzrNwdpLPGjoB2McmB4CI/7wh
9tACs7F5KscBmdAmGpjzxFn13GulX+KYTzlUgqhULaiveNCADoZaHr8QkHOeiXBc
8PwSggjm9aYMSYal3w28aCo3UJ9SWfeBiX0O3yCxfDhfywWvt/sh2a3O1JXsznTh
RqBFHeZj7A9xxr5zA0C4jtpf26ihO3IYhDNLXk/G72pOZ8cGjFf4cv7agAFuixvl
wQ==
-----END CERTIFICATE-----
