Certificate:
    Data:
        Version: 3 (0x2)
        Serial Number:
            22:db:a3:57:d9:cc:b2:37:24:2f:54:b6:0c:be:f5:56
        Signature Algorithm: sha256WithRSAEncryption
        Issuer: CN=team257-net
        Validity
            Not Before: Nov  4 11:32:43 2023 GMT
            Not After : Oct 19 11:32:43 2026 GMT
        Subject: CN=team257-server
        Subject Public Key Info:
            Public Key Algorithm: rsaEncryption
                Public-Key: (2048 bit)
                Modulus:
                    00:b5:8d:5e:40:3a:54:34:4d:9c:eb:21:76:1f:f8:
                    2f:6f:b0:d2:d7:f2:99:30:ba:25:76:bf:a8:35:29:
                    1b:9b:a4:99:51:89:b3:51:d8:47:e8:9a:ef:fe:32:
                    c4:78:84:9b:2f:03:fb:3d:61:9c:7d:a1:c7:e8:e9:
                    f0:0f:49:2f:58:53:2f:24:89:92:18:fc:bc:dd:9f:
                    43:44:c1:f8:3e:e2:88:1d:4d:85:a7:ee:1e:07:76:
                    f3:f4:1a:20:ac:c5:ce:66:6c:8c:81:fc:df:5a:66:
                    98:26:90:a0:46:fe:be:bd:9e:18:0c:73:72:12:e8:
                    6a:8c:0c:db:f0:ba:c8:35:30:2b:bd:62:05:b6:e4:
                    5e:db:51:00:91:89:22:2b:a7:6d:59:a9:d6:8a:a2:
                    6d:bc:de:9c:ea:37:43:8d:af:01:4c:49:75:f9:68:
                    3f:77:85:a5:58:da:d9:50:31:46:6e:6f:e1:70:d3:
                    ce:4c:4d:58:93:86:59:d4:c7:82:58:08:64:2c:7a:
                    f4:89:b6:d8:a6:17:e6:ec:cf:ae:37:81:a1:d4:62:
                    73:a7:fd:29:d0:ce:f2:44:df:5d:fb:73:48:6e:8c:
                    1b:d4:ca:64:eb:f6:8f:9a:ec:7e:95:cf:72:63:1c:
                    60:c4:48:df:a9:99:a2:a6:4e:db:da:2e:42:97:c9:
                    6c:e5
                Exponent: 65537 (0x10001)
        X509v3 extensions:
            X509v3 Basic Constraints: 
                CA:FALSE
            X509v3 Subject Key Identifier: 
                77:5E:CA:E5:67:90:C2:F9:E9:08:DE:D1:61:E6:63:3E:EF:7D:1A:BC
            X509v3 Authority Key Identifier: 
                keyid:99:1D:D5:56:9F:52:60:45:09:B1:63:17:55:A2:C9:F9:07:77:43:C2
                DirName:/CN=team257-net
                serial:2B:33:EB:06:3B:7B:BE:49:62:21:AE:B2:08:C1:14:FA:40:57:0D:89
            X509v3 Extended Key Usage: 
                TLS Web Server Authentication
            X509v3 Key Usage: 
                Digital Signature, Key Encipherment
            X509v3 Subject Alternative Name: 
                DNS:team257-server
    Signature Algorithm: sha256WithRSAEncryption
    Signature Value:
        48:b2:7f:9d:dd:b3:4c:1d:e7:9d:33:8a:5c:97:58:ae:96:02:
        1c:bf:8d:25:f4:1d:63:9d:55:49:c7:72:91:64:1d:39:3f:96:
        7b:f6:3a:5a:38:46:21:96:d0:09:c7:44:c3:d7:88:5c:73:6f:
        72:da:02:d6:2b:f6:4c:fd:c6:6c:a3:db:bb:c1:c7:5d:0d:b0:
        0c:90:90:a8:0a:5c:70:00:bc:5b:45:d8:bf:a4:32:90:f8:59:
        7d:d4:6a:69:3e:be:18:f3:86:ed:21:34:6d:2c:29:f6:35:00:
        de:a7:c4:8e:e3:d9:ec:db:0e:de:6d:66:38:ed:1c:dc:30:2a:
        11:32:5c:c8:b5:3d:98:4a:c1:05:b2:6e:6c:db:8c:c4:2e:0f:
        b6:40:04:b6:8d:9e:11:dd:f6:63:de:17:f3:16:16:5f:fc:1e:
        18:6d:d6:43:c1:c7:a5:e4:24:ed:e3:cf:0c:24:9f:83:8d:03:
        4a:67:a3:e7:04:b9:80:33:43:e9:7c:38:31:48:4b:42:7d:35:
        42:aa:ed:85:c8:ba:e2:a2:c3:71:4d:d5:21:63:c4:61:0f:b5:
        4d:40:bd:cf:21:ac:1b:8c:39:c1:62:85:54:11:a0:a4:2c:60:
        92:38:61:ca:db:bb:3e:1d:33:a1:26:72:18:4c:4d:d1:05:18:
        57:88:68:df
-----BEGIN CERTIFICATE-----
MIIDdzCCAl+gAwIBAgIQItujV9nMsjckL1S2DL71VjANBgkqhkiG9w0BAQsFADAW
MRQwEgYDVQQDDAt0ZWFtMjU3LW5ldDAeFw0yMzExMDQxMTMyNDNaFw0yNjEwMTkx
MTMyNDNaMBkxFzAVBgNVBAMMDnRlYW0yNTctc2VydmVyMIIBIjANBgkqhkiG9w0B
AQEFAAOCAQ8AMIIBCgKCAQEAtY1eQDpUNE2c6yF2H/gvb7DS1/KZMLoldr+oNSkb
m6SZUYmzUdhH6Jrv/jLEeISbLwP7PWGcfaHH6OnwD0kvWFMvJImSGPy83Z9DRMH4
PuKIHU2Fp+4eB3bz9BogrMXOZmyMgfzfWmaYJpCgRv6+vZ4YDHNyEuhqjAzb8LrI
NTArvWIFtuRe21EAkYkiK6dtWanWiqJtvN6c6jdDja8BTEl1+Wg/d4WlWNrZUDFG
bm/hcNPOTE1Yk4ZZ1MeCWAhkLHr0ibbYphfm7M+uN4Gh1GJzp/0p0M7yRN9d+3NI
bowb1Mpk6/aPmux+lc9yYxxgxEjfqZmipk7b2i5Cl8ls5QIDAQABo4G9MIG6MAkG
A1UdEwQCMAAwHQYDVR0OBBYEFHdeyuVnkML56Qje0WHmYz7vfRq8MFEGA1UdIwRK
MEiAFJkd1VafUmBFCbFjF1WiyfkHd0PCoRqkGDAWMRQwEgYDVQQDDAt0ZWFtMjU3
LW5ldIIUKzPrBjt7vkliIa6yCMEU+kBXDYkwEwYDVR0lBAwwCgYIKwYBBQUHAwEw
CwYDVR0PBAQDAgWgMBkGA1UdEQQSMBCCDnRlYW0yNTctc2VydmVyMA0GCSqGSIb3
DQEBCwUAA4IBAQBIsn+d3bNMHeedM4pcl1iulgIcv40l9B1jnVVJx3KRZB05P5Z7
9jpaOEYhltAJx0TD14hcc29y2gLWK/ZM/cZso9u7wcddDbAMkJCoClxwALxbRdi/
pDKQ+Fl91GppPr4Y84btITRtLCn2NQDep8SO49ns2w7ebWY47RzcMCoRMlzItT2Y
SsEFsm5s24zELg+2QAS2jZ4R3fZj3hfzFhZf/B4YbdZDwcel5CTt488MJJ+DjQNK
Z6PnBLmAM0PpfDgxSEtCfTVCqu2FyLriosNxTdUhY8RhD7VNQL3PIawbjDnBYoVU
EaCkLGCSOGHK27s+HTOhJnIYTE3RBRhXiGjf
-----END CERTIFICATE-----
