Certificate:
    Data:
        Version: 3 (0x2)
        Serial Number:
            5f:66:92:56:41:a2:cf:89:c2:c0:2b:ee:48:f8:c3:3c
        Signature Algorithm: sha256WithRSAEncryption
        Issuer: CN=team257-net
        Validity
            Not Before: Nov  4 10:45:27 2023 GMT
            Not After : Oct 19 10:45:27 2026 GMT
        Subject: CN=team257-client
        Subject Public Key Info:
            Public Key Algorithm: rsaEncryption
                Public-Key: (2048 bit)
                Modulus:
                    00:db:18:d3:ec:d7:0a:81:77:d1:51:92:87:d9:6a:
                    15:f2:89:4a:ea:0c:c8:ed:0c:ef:5e:4c:a9:47:86:
                    65:05:69:f8:97:a3:00:91:be:5b:77:3b:ef:33:f2:
                    a0:7d:6e:05:59:c6:e2:59:05:6a:e9:83:93:58:c6:
                    c7:ff:bc:82:fe:35:0f:0d:6b:ca:72:43:ca:4b:a6:
                    12:85:35:68:46:e5:30:42:4c:21:37:a3:b9:a2:92:
                    b3:b5:0a:78:8b:20:6c:bd:a5:7f:10:94:77:30:e6:
                    d7:bf:1d:42:2d:6d:3f:6f:03:2f:09:c2:30:a1:00:
                    3a:82:03:9b:c7:d1:1a:76:95:3a:26:59:06:46:68:
                    fe:ce:29:d8:c1:d6:bf:ef:f7:91:ee:fb:0b:7b:0f:
                    a9:ec:98:9c:10:63:1d:1d:d8:8b:35:75:4f:e6:bc:
                    78:30:21:a8:08:ef:3e:a2:ba:f4:2d:41:76:9d:6a:
                    0e:85:95:26:4c:dd:28:7d:b7:25:aa:90:0f:05:ad:
                    05:8c:28:fc:28:dd:5d:56:78:7f:0a:8d:76:f8:ef:
                    f1:7a:6f:5d:35:56:e2:20:6b:c3:12:93:95:07:e1:
                    88:dd:e3:f0:ca:53:dd:22:00:dd:72:5f:b6:40:be:
                    c0:c8:5f:b0:21:71:51:04:da:28:10:9c:54:78:8f:
                    19:31
                Exponent: 65537 (0x10001)
        X509v3 extensions:
            X509v3 Basic Constraints: 
                CA:FALSE
            X509v3 Subject Key Identifier: 
                D5:E2:0E:03:9F:B7:8E:37:13:6C:2E:36:D8:A6:4C:EA:FA:FF:96:1F
            X509v3 Authority Key Identifier: 
                keyid:3D:4D:A1:8A:9D:70:4B:0B:51:A1:21:A1:2E:58:F3:CC:3A:7A:5E:1D
                DirName:/CN=team257-net
                serial:3E:AF:65:05:3A:D6:A4:1D:4F:88:32:2F:EE:34:57:59:81:55:79:73
            X509v3 Extended Key Usage: 
                TLS Web Client Authentication
            X509v3 Key Usage: 
                Digital Signature
    Signature Algorithm: sha256WithRSAEncryption
    Signature Value:
        43:ba:74:25:9d:5f:5c:3c:6d:c1:52:1b:6e:86:70:08:59:2c:
        85:c7:3b:7f:be:be:eb:83:95:bb:1a:3a:1e:b2:8e:19:93:a7:
        5e:e0:50:d0:1e:91:5c:9b:f9:8d:d4:11:af:a5:61:33:f8:b4:
        55:3a:8c:d0:e1:d8:f4:06:0e:bf:a9:59:7c:47:96:d4:84:d6:
        ee:4e:48:ab:68:13:b4:ae:94:d1:12:65:e1:0c:33:8e:61:54:
        c6:fe:5a:7f:95:ff:39:33:9c:dc:47:d7:d5:4a:b8:e7:9e:0a:
        fa:a4:a1:a2:81:44:e0:80:58:a6:4e:07:58:bf:a7:0a:f8:0e:
        6f:a4:a4:de:7f:86:11:60:ea:1b:e2:bd:67:99:94:31:80:2f:
        d8:48:77:ff:c2:14:4b:f8:f7:18:2f:2e:66:5e:03:40:d5:c7:
        e7:09:47:90:1a:b4:15:3a:c3:30:bf:c8:c4:c3:98:54:0d:2b:
        cf:d7:33:79:6c:ec:46:dc:c9:cc:08:d9:93:57:8d:86:0f:af:
        fc:53:e7:02:1f:b8:bd:49:11:9c:d9:19:00:d6:20:02:15:1f:
        22:71:ac:a8:83:72:3f:d8:ab:5b:41:64:91:6b:f1:88:29:e6:
        53:aa:b6:85:d8:06:c9:80:9a:93:02:4a:72:08:12:b5:c7:41:
        26:62:3f:21
-----BEGIN CERTIFICATE-----
MIIDXDCCAkSgAwIBAgIQX2aSVkGiz4nCwCvuSPjDPDANBgkqhkiG9w0BAQsFADAW
MRQwEgYDVQQDDAt0ZWFtMjU3LW5ldDAeFw0yMzExMDQxMDQ1MjdaFw0yNjEwMTkx
MDQ1MjdaMBkxFzAVBgNVBAMMDnRlYW0yNTctY2xpZW50MIIBIjANBgkqhkiG9w0B
AQEFAAOCAQ8AMIIBCgKCAQEA2xjT7NcKgXfRUZKH2WoV8olK6gzI7QzvXkypR4Zl
BWn4l6MAkb5bdzvvM/KgfW4FWcbiWQVq6YOTWMbH/7yC/jUPDWvKckPKS6YShTVo
RuUwQkwhN6O5opKztQp4iyBsvaV/EJR3MObXvx1CLW0/bwMvCcIwoQA6ggObx9Ea
dpU6JlkGRmj+zinYwda/7/eR7vsLew+p7JicEGMdHdiLNXVP5rx4MCGoCO8+orr0
LUF2nWoOhZUmTN0ofbclqpAPBa0FjCj8KN1dVnh/Co12+O/xem9dNVbiIGvDEpOV
B+GI3ePwylPdIgDdcl+2QL7AyF+wIXFRBNooEJxUeI8ZMQIDAQABo4GiMIGfMAkG
A1UdEwQCMAAwHQYDVR0OBBYEFNXiDgOft443E2wuNtimTOr6/5YfMFEGA1UdIwRK
MEiAFD1NoYqdcEsLUaEhoS5Y88w6el4doRqkGDAWMRQwEgYDVQQDDAt0ZWFtMjU3
LW5ldIIUPq9lBTrWpB1PiDIv7jRXWYFVeXMwEwYDVR0lBAwwCgYIKwYBBQUHAwIw
CwYDVR0PBAQDAgeAMA0GCSqGSIb3DQEBCwUAA4IBAQBDunQlnV9cPG3BUhtuhnAI
WSyFxzt/vr7rg5W7Gjoeso4Zk6de4FDQHpFcm/mN1BGvpWEz+LRVOozQ4dj0Bg6/
qVl8R5bUhNbuTkiraBO0rpTREmXhDDOOYVTG/lp/lf85M5zcR9fVSrjnngr6pKGi
gUTggFimTgdYv6cK+A5vpKTef4YRYOob4r1nmZQxgC/YSHf/whRL+PcYLy5mXgNA
1cfnCUeQGrQVOsMwv8jEw5hUDSvP1zN5bOxG3MnMCNmTV42GD6/8U+cCH7i9SRGc
2RkA1iACFR8icayog3I/2KtbQWSRa/GIKeZTqraF2AbJgJqTAkpyCBK1x0EmYj8h
-----END CERTIFICATE-----
