Certificate:
    Data:
        Version: 3 (0x2)
        Serial Number:
            ab:f8:80:f4:41:44:f1:cb:57:50:56:b5:8a:fe:8a:34
        Signature Algorithm: sha256WithRSAEncryption
        Issuer: CN=team257-net
        Validity
            Not Before: Nov  3 20:44:01 2023 GMT
            Not After : Oct 18 20:44:01 2026 GMT
        Subject: CN=team257-client
        Subject Public Key Info:
            Public Key Algorithm: rsaEncryption
                Public-Key: (2048 bit)
                Modulus:
                    00:93:ce:92:d0:5e:18:4a:48:5f:67:1d:60:fc:8b:
                    99:a1:61:f5:ff:6e:d8:d1:3b:6e:c9:9a:3d:b0:1a:
                    ee:78:1b:94:73:dd:f0:5c:2f:7a:ad:93:e2:6e:23:
                    d9:db:cb:03:1c:09:43:d6:b3:c6:9b:4a:9a:c2:a3:
                    49:48:26:58:a9:1d:6e:1d:ec:92:aa:bb:0f:cd:91:
                    79:fe:97:df:c3:91:21:fc:79:bd:74:42:8e:ec:d8:
                    90:73:fb:9d:d1:ec:23:20:87:11:86:7b:13:61:46:
                    87:24:f9:dc:2c:66:ea:35:9f:34:5d:68:91:69:3e:
                    cc:be:5b:57:74:35:70:b3:53:fc:84:04:21:0c:6e:
                    66:27:74:3e:0c:f8:41:e5:78:d0:db:ad:b3:27:a4:
                    0f:2e:2c:79:86:5a:c5:b9:b0:1c:d6:96:00:72:08:
                    44:fc:85:7d:82:f6:14:c1:92:79:ca:d2:8f:f0:95:
                    f0:40:55:c0:61:11:19:d1:ee:65:00:22:ec:5b:bd:
                    f5:e0:21:21:7d:8e:c6:03:b4:b0:d9:0d:65:a1:51:
                    44:9c:86:86:0a:7f:64:ed:5e:ec:60:a6:82:cd:67:
                    60:c3:e7:07:dd:fd:0b:f9:fb:ec:74:3c:d7:d6:09:
                    4f:64:84:51:05:1e:c1:49:20:c3:dc:54:d9:1b:5c:
                    1f:05
                Exponent: 65537 (0x10001)
        X509v3 extensions:
            X509v3 Basic Constraints: 
                CA:FALSE
            X509v3 Subject Key Identifier: 
                F9:C6:F2:EA:AB:8F:9A:75:FF:03:23:B1:5C:27:7F:6B:19:FF:73:8C
            X509v3 Authority Key Identifier: 
                keyid:9E:52:98:FD:8C:01:29:79:DB:D2:98:C9:C1:B1:8E:AE:05:8A:FC:E7
                DirName:/CN=team257-net
                serial:63:A0:8A:44:CF:A9:59:82:64:6F:5C:E2:36:E7:06:81:FB:3E:94:2B
            X509v3 Extended Key Usage: 
                TLS Web Client Authentication
            X509v3 Key Usage: 
                Digital Signature
    Signature Algorithm: sha256WithRSAEncryption
    Signature Value:
        7a:d7:9b:fb:17:29:15:c7:a0:88:85:cf:c9:c8:57:0a:cc:d4:
        9a:e4:7f:a0:01:b3:18:6a:72:6a:97:0b:83:3b:e4:20:fb:7b:
        3c:f2:ce:4f:8d:5c:d5:83:dc:48:33:82:b6:45:e1:eb:a4:fb:
        c8:8a:a0:cb:bc:7c:1d:43:fa:8a:0e:b6:c0:36:26:e1:90:20:
        19:f4:31:35:88:12:91:c7:11:a2:bf:c3:c5:45:0e:6a:a8:bd:
        56:db:aa:26:3d:6c:5b:70:ec:ae:55:53:c9:f5:df:3e:bb:f8:
        dd:1e:3b:6e:d8:31:c6:95:2e:d4:b5:b4:6f:ed:ff:7f:ce:32:
        f0:e1:7e:85:6b:7c:6c:ba:1e:c4:95:a1:fb:3a:2d:fd:9c:49:
        f0:5a:3a:8f:ba:1a:13:e3:83:3e:cf:c9:30:37:da:9d:22:91:
        f6:fb:ba:33:9b:42:55:98:5f:30:7f:21:2c:a1:7b:f8:b4:28:
        52:32:11:68:2e:18:ae:1d:7d:c6:04:dc:e6:8b:37:92:ea:ba:
        8b:7b:35:6e:73:1b:9e:eb:8b:ea:01:f7:6f:67:64:ba:56:ae:
        94:56:d9:77:51:05:cb:65:e5:78:55:df:6c:f9:fc:98:42:01:
        78:03:9f:f2:cf:86:c1:3c:36:83:64:a5:75:e6:9d:b2:a3:d0:
        ac:15:91:c9
-----BEGIN CERTIFICATE-----
MIIDXTCCAkWgAwIBAgIRAKv4gPRBRPHLV1BWtYr+ijQwDQYJKoZIhvcNAQELBQAw
FjEUMBIGA1UEAwwLdGVhbTI1Ny1uZXQwHhcNMjMxMTAzMjA0NDAxWhcNMjYxMDE4
MjA0NDAxWjAZMRcwFQYDVQQDDA50ZWFtMjU3LWNsaWVudDCCASIwDQYJKoZIhvcN
AQEBBQADggEPADCCAQoCggEBAJPOktBeGEpIX2cdYPyLmaFh9f9u2NE7bsmaPbAa
7ngblHPd8Fwveq2T4m4j2dvLAxwJQ9azxptKmsKjSUgmWKkdbh3skqq7D82Ref6X
38ORIfx5vXRCjuzYkHP7ndHsIyCHEYZ7E2FGhyT53Cxm6jWfNF1okWk+zL5bV3Q1
cLNT/IQEIQxuZid0Pgz4QeV40NutsyekDy4seYZaxbmwHNaWAHIIRPyFfYL2FMGS
ecrSj/CV8EBVwGERGdHuZQAi7Fu99eAhIX2OxgO0sNkNZaFRRJyGhgp/ZO1e7GCm
gs1nYMPnB939C/n77HQ819YJT2SEUQUewUkgw9xU2RtcHwUCAwEAAaOBojCBnzAJ
BgNVHRMEAjAAMB0GA1UdDgQWBBT5xvLqq4+adf8DI7FcJ39rGf9zjDBRBgNVHSME
SjBIgBSeUpj9jAEpedvSmMnBsY6uBYr856EapBgwFjEUMBIGA1UEAwwLdGVhbTI1
Ny1uZXSCFGOgikTPqVmCZG9c4jbnBoH7PpQrMBMGA1UdJQQMMAoGCCsGAQUFBwMC
MAsGA1UdDwQEAwIHgDANBgkqhkiG9w0BAQsFAAOCAQEAeteb+xcpFcegiIXPychX
CszUmuR/oAGzGGpyapcLgzvkIPt7PPLOT41c1YPcSDOCtkXh66T7yIqgy7x8HUP6
ig62wDYm4ZAgGfQxNYgSkccRor/DxUUOaqi9VtuqJj1sW3DsrlVTyfXfPrv43R47
btgxxpUu1LW0b+3/f84y8OF+hWt8bLoexJWh+zot/ZxJ8Fo6j7oaE+ODPs/JMDfa
nSKR9vu6M5tCVZhfMH8hLKF7+LQoUjIRaC4Yrh19xgTc5os3kuq6i3s1bnMbnuuL
6gH3b2dkulaulFbZd1EFy2XleFXfbPn8mEIBeAOf8s+GwTw2g2SldeadsqPQrBWR
yQ==
-----END CERTIFICATE-----
