Certificate:
    Data:
        Version: 3 (0x2)
        Serial Number:
            45:0e:ae:b4:0e:8d:6c:0c:fc:fa:2b:8d:f4:91:d8:39
        Signature Algorithm: sha256WithRSAEncryption
        Issuer: CN=team9-net
        Validity
            Not Before: Nov  3 20:39:26 2023 GMT
            Not After : Oct 18 20:39:26 2026 GMT
        Subject: CN=team9-client
        Subject Public Key Info:
            Public Key Algorithm: rsaEncryption
                Public-Key: (2048 bit)
                Modulus:
                    00:a4:c5:4a:13:bb:07:d4:35:cf:b6:87:4b:97:46:
                    56:ed:25:7a:f6:86:8e:dc:2e:16:88:17:aa:4a:7b:
                    8f:e8:ed:8c:be:ea:9d:26:05:b6:9f:70:6f:18:f4:
                    06:07:cd:12:f7:41:4d:1c:1a:87:52:ed:b3:64:a8:
                    70:c8:42:d0:e7:fa:4c:bd:d3:ad:3b:d0:c2:a3:ae:
                    4c:34:5c:82:67:c4:b6:d4:66:af:12:71:ad:20:ca:
                    d5:23:2e:9b:11:03:9d:a0:69:52:71:50:6c:57:7b:
                    2c:f4:30:75:1e:a7:64:c9:aa:c0:69:68:d1:c6:eb:
                    6a:52:57:e3:ca:d6:e2:fe:5c:be:6a:22:b7:96:15:
                    28:00:64:ee:11:2c:3a:5f:a3:93:51:d5:0d:f7:f2:
                    56:6d:f1:c4:6d:b9:ac:f1:9e:fa:b3:1e:1d:3e:c3:
                    c6:90:60:cf:c5:17:72:37:3e:75:72:a2:b7:5b:f5:
                    ee:bc:70:7e:c7:ed:51:d7:67:b5:c7:e0:d8:f6:7c:
                    3f:8a:3b:07:cd:3c:49:8b:4a:db:f2:1d:3a:c6:94:
                    06:a6:d2:09:ee:e2:7d:b3:51:9c:0d:b2:45:96:f2:
                    e1:cf:13:ed:75:70:25:34:45:ef:66:28:b3:89:83:
                    2e:e4:3a:fc:7e:5d:4e:5b:48:c3:e1:b2:49:ff:8b:
                    12:71
                Exponent: 65537 (0x10001)
        X509v3 extensions:
            X509v3 Basic Constraints: 
                CA:FALSE
            X509v3 Subject Key Identifier: 
                B3:C3:CC:A6:1F:BC:33:F6:7E:3A:D1:20:25:73:D3:A7:84:E2:04:05
            X509v3 Authority Key Identifier: 
                keyid:D5:78:B5:28:6A:C4:A4:D6:7A:64:DA:22:6C:95:D6:90:CC:93:13:8F
                DirName:/CN=team9-net
                serial:54:50:E4:DB:B2:DD:3C:F1:28:D2:39:AE:DE:C5:73:83:DA:79:D8:3D
            X509v3 Extended Key Usage: 
                TLS Web Client Authentication
            X509v3 Key Usage: 
                Digital Signature
    Signature Algorithm: sha256WithRSAEncryption
    Signature Value:
        6b:04:8d:8e:a6:6e:6b:a0:0c:99:fc:92:c6:86:57:4a:9b:85:
        17:13:4a:08:7c:fe:0b:a0:99:95:cf:99:8d:7d:3f:0d:86:24:
        14:4d:6b:e9:90:6a:8b:c1:f2:96:c0:27:73:8e:e0:d3:cb:c1:
        c7:08:25:24:79:14:ae:14:17:1c:ba:16:48:c7:52:09:b0:7c:
        04:24:aa:3f:ad:63:da:ca:e3:d2:20:1c:3b:7b:38:70:2e:82:
        64:55:e2:67:f4:25:73:65:4a:0d:75:09:e9:e5:e7:d3:ef:78:
        eb:d1:15:60:42:3b:7d:3d:d8:a6:48:00:b6:09:12:67:34:9f:
        ee:de:35:dd:ba:62:98:93:f6:e4:b3:ec:70:51:e2:3c:4a:1f:
        0c:17:7b:28:9e:5c:bb:ff:82:44:8e:8f:67:8d:a7:59:dc:26:
        e2:86:73:c7:70:cd:d3:ff:cb:2c:5a:6d:d9:22:92:16:e2:38:
        8d:e2:6e:bc:cc:ef:4c:c6:f8:f4:d0:e4:ea:c9:9b:a2:39:23:
        98:28:8d:87:6a:71:72:b7:1b:c4:67:fa:6c:1f:66:a5:56:e4:
        e4:41:07:c2:01:5f:19:59:76:99:4f:1b:9a:fb:69:36:8a:70:
        81:a5:1a:45:62:fd:76:5e:85:3e:ff:8d:f7:7f:17:29:62:c6:
        78:b1:48:01
-----BEGIN CERTIFICATE-----
MIIDVjCCAj6gAwIBAgIQRQ6utA6NbAz8+iuN9JHYOTANBgkqhkiG9w0BAQsFADAU
MRIwEAYDVQQDDAl0ZWFtOS1uZXQwHhcNMjMxMTAzMjAzOTI2WhcNMjYxMDE4MjAz
OTI2WjAXMRUwEwYDVQQDDAx0ZWFtOS1jbGllbnQwggEiMA0GCSqGSIb3DQEBAQUA
A4IBDwAwggEKAoIBAQCkxUoTuwfUNc+2h0uXRlbtJXr2ho7cLhaIF6pKe4/o7Yy+
6p0mBbafcG8Y9AYHzRL3QU0cGodS7bNkqHDIQtDn+ky906070MKjrkw0XIJnxLbU
Zq8Sca0gytUjLpsRA52gaVJxUGxXeyz0MHUep2TJqsBpaNHG62pSV+PK1uL+XL5q
IreWFSgAZO4RLDpfo5NR1Q338lZt8cRtuazxnvqzHh0+w8aQYM/FF3I3PnVyordb
9e68cH7H7VHXZ7XH4Nj2fD+KOwfNPEmLStvyHTrGlAam0gnu4n2zUZwNskWW8uHP
E+11cCU0Re9mKLOJgy7kOvx+XU5bSMPhskn/ixJxAgMBAAGjgaAwgZ0wCQYDVR0T
BAIwADAdBgNVHQ4EFgQUs8PMph+8M/Z+OtEgJXPTp4TiBAUwTwYDVR0jBEgwRoAU
1Xi1KGrEpNZ6ZNoibJXWkMyTE4+hGKQWMBQxEjAQBgNVBAMMCXRlYW05LW5ldIIU
VFDk27LdPPEo0jmu3sVzg9p52D0wEwYDVR0lBAwwCgYIKwYBBQUHAwIwCwYDVR0P
BAQDAgeAMA0GCSqGSIb3DQEBCwUAA4IBAQBrBI2Opm5roAyZ/JLGhldKm4UXE0oI
fP4LoJmVz5mNfT8NhiQUTWvpkGqLwfKWwCdzjuDTy8HHCCUkeRSuFBccuhZIx1IJ
sHwEJKo/rWPayuPSIBw7ezhwLoJkVeJn9CVzZUoNdQnp5efT73jr0RVgQjt9Pdim
SAC2CRJnNJ/u3jXdumKYk/bks+xwUeI8Sh8MF3sonly7/4JEjo9njadZ3CbihnPH
cM3T/8ssWm3ZIpIW4jiN4m68zO9Mxvj00OTqyZuiOSOYKI2HanFytxvEZ/psH2al
VuTkQQfCAV8ZWXaZTxua+2k2inCBpRpFYv12XoU+/433fxcpYsZ4sUgB
-----END CERTIFICATE-----
