Certificate:
    Data:
        Version: 3 (0x2)
        Serial Number:
            71:e5:6c:c5:3e:17:8d:c2:1b:22:a2:9f:12:32:a2:ef
        Signature Algorithm: sha256WithRSAEncryption
        Issuer: CN=team9-net
        Validity
            Not Before: Oct 31 16:30:19 2023 GMT
            Not After : Oct 15 16:30:19 2026 GMT
        Subject: CN=team9-client
        Subject Public Key Info:
            Public Key Algorithm: rsaEncryption
                Public-Key: (2048 bit)
                Modulus:
                    00:a2:0e:f1:d6:af:47:de:f9:1a:7f:08:88:0d:46:
                    aa:ad:4c:a0:f4:17:1b:0a:65:7c:2b:4b:a3:a0:3f:
                    d6:26:73:05:36:68:2f:1b:f7:f4:e2:d6:e9:6d:4d:
                    cd:f4:33:58:9d:26:5c:f0:b1:d3:13:8e:a4:38:d3:
                    43:37:83:a9:57:39:96:96:71:f1:12:bc:4f:4a:b9:
                    52:3c:95:ff:e0:08:ef:bf:a2:08:cb:da:7b:00:ee:
                    27:62:0c:2e:a5:a4:52:32:2f:01:42:e5:c7:7f:dc:
                    f5:2e:63:3d:7a:38:d0:8b:10:04:07:6b:8b:5e:b7:
                    46:a1:f0:16:20:2e:de:70:61:7c:1b:1a:e2:fc:92:
                    e7:0c:0a:c9:a6:f0:14:ff:8b:05:a1:0c:69:0c:60:
                    38:27:ad:b2:68:38:ba:e6:f2:ce:ef:bb:f2:40:85:
                    58:33:06:e8:85:f6:6b:76:4d:0c:00:d5:96:4c:b0:
                    02:c3:d7:84:29:80:19:47:23:77:aa:98:42:c9:11:
                    75:02:0b:76:12:58:c5:31:7a:2a:14:de:48:c0:64:
                    ca:7f:01:c2:34:1e:db:45:1a:c4:27:bf:25:77:a9:
                    a2:2a:dd:22:2e:96:35:6b:1a:1a:32:8f:71:38:10:
                    ef:fe:77:ee:54:94:5e:80:a6:e7:61:ad:25:3e:35:
                    8b:fd
                Exponent: 65537 (0x10001)
        X509v3 extensions:
            X509v3 Basic Constraints: 
                CA:FALSE
            X509v3 Subject Key Identifier: 
                2F:D7:71:F2:A4:99:0E:E5:BE:84:DE:19:81:9B:F5:E4:B0:54:B4:35
            X509v3 Authority Key Identifier: 
                keyid:4D:9D:89:DB:4B:69:67:C4:D5:D6:D1:B6:62:9B:35:DD:8C:BC:55:3C
                DirName:/CN=team9-net
                serial:01:EB:7B:C2:31:9D:B5:B2:7C:9A:2A:40:7D:21:4E:29:80:E3:94:79
            X509v3 Extended Key Usage: 
                TLS Web Client Authentication
            X509v3 Key Usage: 
                Digital Signature
    Signature Algorithm: sha256WithRSAEncryption
    Signature Value:
        5b:ba:65:7f:cf:a8:0f:f2:d5:45:65:cb:71:be:22:c2:22:d0:
        a2:72:f4:13:38:e9:b5:05:02:06:9e:5d:c0:e7:0b:8b:c4:09:
        f2:78:87:59:e0:1b:a4:4e:8f:a6:d1:95:2e:df:d1:48:98:5f:
        d6:86:7f:73:0b:d6:14:17:b2:b0:a5:0f:50:f5:a3:e5:53:8a:
        35:35:81:60:f5:48:d8:cd:50:1f:04:a0:78:ff:91:b6:21:6e:
        ab:b5:0e:4a:c0:ad:8b:0d:f4:de:2e:3d:73:bf:3b:cf:eb:2e:
        ab:a1:b2:53:db:34:fe:13:8c:4e:cc:f0:48:23:c3:d3:ea:67:
        21:a1:68:35:db:6f:08:0e:0b:30:45:6d:2c:69:de:e0:2a:d6:
        f3:84:26:63:1f:41:d3:34:a9:69:8a:1c:51:f5:15:73:09:a0:
        1f:9d:b8:a7:e0:7a:4c:48:46:92:69:cc:81:28:92:b7:22:0e:
        2b:1c:19:fa:d1:10:81:2b:c6:56:06:6b:c0:e9:e0:8e:6f:c2:
        0e:95:4b:fa:db:1e:dd:4e:0a:47:63:19:d9:76:79:ae:89:33:
        6b:5d:a6:4a:d3:42:c8:65:4a:36:91:75:1f:53:ff:f2:96:39:
        ea:e3:fa:c0:e4:93:3b:46:d2:8e:e1:12:48:35:76:20:aa:28:
        ca:64:ac:5b
-----BEGIN CERTIFICATE-----
MIIDVjCCAj6gAwIBAgIQceVsxT4XjcIbIqKfEjKi7zANBgkqhkiG9w0BAQsFADAU
MRIwEAYDVQQDDAl0ZWFtOS1uZXQwHhcNMjMxMDMxMTYzMDE5WhcNMjYxMDE1MTYz
MDE5WjAXMRUwEwYDVQQDDAx0ZWFtOS1jbGllbnQwggEiMA0GCSqGSIb3DQEBAQUA
A4IBDwAwggEKAoIBAQCiDvHWr0fe+Rp/CIgNRqqtTKD0FxsKZXwrS6OgP9YmcwU2
aC8b9/Ti1ultTc30M1idJlzwsdMTjqQ400M3g6lXOZaWcfESvE9KuVI8lf/gCO+/
ogjL2nsA7idiDC6lpFIyLwFC5cd/3PUuYz16ONCLEAQHa4tet0ah8BYgLt5wYXwb
GuL8kucMCsmm8BT/iwWhDGkMYDgnrbJoOLrm8s7vu/JAhVgzBuiF9mt2TQwA1ZZM
sALD14QpgBlHI3eqmELJEXUCC3YSWMUxeioU3kjAZMp/AcI0HttFGsQnvyV3qaIq
3SIuljVrGhoyj3E4EO/+d+5UlF6ApudhrSU+NYv9AgMBAAGjgaAwgZ0wCQYDVR0T
BAIwADAdBgNVHQ4EFgQUL9dx8qSZDuW+hN4ZgZv15LBUtDUwTwYDVR0jBEgwRoAU
TZ2J20tpZ8TV1tG2Yps13Yy8VTyhGKQWMBQxEjAQBgNVBAMMCXRlYW05LW5ldIIU
Aet7wjGdtbJ8mipAfSFOKYDjlHkwEwYDVR0lBAwwCgYIKwYBBQUHAwIwCwYDVR0P
BAQDAgeAMA0GCSqGSIb3DQEBCwUAA4IBAQBbumV/z6gP8tVFZctxviLCItCicvQT
OOm1BQIGnl3A5wuLxAnyeIdZ4BukTo+m0ZUu39FImF/Whn9zC9YUF7KwpQ9Q9aPl
U4o1NYFg9UjYzVAfBKB4/5G2IW6rtQ5KwK2LDfTeLj1zvzvP6y6robJT2zT+E4xO
zPBII8PT6mchoWg1228IDgswRW0sad7gKtbzhCZjH0HTNKlpihxR9RVzCaAfnbin
4HpMSEaSacyBKJK3Ig4rHBn60RCBK8ZWBmvA6eCOb8IOlUv62x7dTgpHYxnZdnmu
iTNrXaZK00LIZUo2kXUfU//yljnq4/rA5JM7RtKO4RJINXYgqijKZKxb
-----END CERTIFICATE-----
