Certificate:
    Data:
        Version: 3 (0x2)
        Serial Number:
            a6:16:39:ac:d2:bb:86:71:e1:9a:31:a9:39:ae:76:0c
        Signature Algorithm: sha256WithRSAEncryption
        Issuer: CN=team9-net
        Validity
            Not Before: Nov  3 20:39:26 2023 GMT
            Not After : Oct 18 20:39:26 2026 GMT
        Subject: CN=team9-server
        Subject Public Key Info:
            Public Key Algorithm: rsaEncryption
                Public-Key: (2048 bit)
                Modulus:
                    00:b0:44:c4:7c:b0:06:99:63:e1:2d:19:f7:ff:db:
                    fb:28:f7:5c:7f:fe:4f:5a:47:22:51:29:be:6a:2f:
                    57:28:09:62:b6:2b:ed:ed:8d:68:35:c1:c8:cb:65:
                    08:f2:75:7b:07:1e:34:7c:de:45:46:1b:38:89:f7:
                    a1:c1:38:61:c2:26:59:7a:d7:1d:0e:64:84:e6:ba:
                    be:46:bd:d6:a1:6f:7b:51:a3:23:c0:8a:6d:7f:c5:
                    7a:a2:10:f2:28:19:27:ef:8a:05:d3:b0:86:9c:06:
                    56:3f:92:09:23:dd:50:b2:70:cb:78:c6:6d:28:84:
                    c3:95:7d:ec:33:53:b7:b0:cd:26:78:00:59:f6:12:
                    dc:cf:de:96:6b:ff:1c:56:27:12:18:8e:44:0c:f6:
                    b9:32:c9:5a:d4:07:66:5b:60:64:89:ad:59:81:1c:
                    60:d6:c3:19:f2:f9:30:1c:2c:e4:51:c7:40:8d:95:
                    76:ca:14:14:94:11:d4:a3:22:07:6d:db:fc:40:c4:
                    35:8d:d1:c8:7c:04:ac:2e:29:aa:20:ea:03:fd:55:
                    da:c3:a3:95:e7:29:02:63:e0:fd:be:df:f4:62:9b:
                    38:b5:bb:bb:79:c8:a8:54:ac:ee:e5:bb:f8:ac:cd:
                    91:a2:a4:cc:28:2a:b2:1a:0e:e9:09:00:0e:d4:0a:
                    e5:73
                Exponent: 65537 (0x10001)
        X509v3 extensions:
            X509v3 Basic Constraints: 
                CA:FALSE
            X509v3 Subject Key Identifier: 
                15:49:FA:3B:F4:D1:D8:4E:D1:57:54:0A:5A:84:4B:54:CF:1F:9B:22
            X509v3 Authority Key Identifier: 
                keyid:D5:78:B5:28:6A:C4:A4:D6:7A:64:DA:22:6C:95:D6:90:CC:93:13:8F
                DirName:/CN=team9-net
                serial:54:50:E4:DB:B2:DD:3C:F1:28:D2:39:AE:DE:C5:73:83:DA:79:D8:3D
            X509v3 Extended Key Usage: 
                TLS Web Server Authentication
            X509v3 Key Usage: 
                Digital Signature, Key Encipherment
            X509v3 Subject Alternative Name: 
                DNS:team9-server
    Signature Algorithm: sha256WithRSAEncryption
    Signature Value:
        10:52:e4:ad:44:d0:7b:08:36:53:ec:5c:d3:43:8e:55:26:ac:
        32:42:18:b6:df:9c:db:91:c9:5a:4e:12:5c:4c:7e:7b:4b:05:
        f2:be:7f:72:09:d8:62:85:9a:cf:e8:2c:e7:d4:7c:e2:4b:ca:
        99:99:be:ad:9f:35:b9:b0:a1:6c:58:66:c4:de:da:0d:66:3c:
        75:85:7a:fa:0e:46:c0:f2:20:ae:74:d0:2b:16:d8:ce:0b:72:
        60:6a:45:d7:3c:d6:a0:85:c0:9d:59:e8:d9:12:24:a2:4e:fe:
        9d:5f:20:01:6a:d5:cb:b2:a2:57:02:a4:23:7d:25:b5:1c:11:
        5e:eb:b6:09:6b:98:43:39:85:95:db:5d:d5:2b:b8:48:6e:9d:
        20:3d:99:6b:2b:f7:f0:80:88:4b:4d:ea:13:e1:48:64:ed:d1:
        5e:78:90:25:4a:94:2b:48:ad:35:56:33:b1:ec:02:55:4e:9d:
        f8:ce:0f:65:17:03:1b:7e:70:36:e8:94:17:28:0e:e8:c5:36:
        d8:21:97:14:4b:7d:93:e2:f1:40:49:1d:77:59:88:53:d4:61:
        58:6b:7f:8c:44:fc:81:2e:bb:6d:20:42:fb:ae:f9:df:37:a9:
        88:a0:dc:36:c1:5e:d4:ca:0c:08:5d:1f:be:29:9c:6c:4e:25:
        17:f6:86:ce
-----BEGIN CERTIFICATE-----
MIIDcDCCAligAwIBAgIRAKYWOazSu4Zx4ZoxqTmudgwwDQYJKoZIhvcNAQELBQAw
FDESMBAGA1UEAwwJdGVhbTktbmV0MB4XDTIzMTEwMzIwMzkyNloXDTI2MTAxODIw
MzkyNlowFzEVMBMGA1UEAwwMdGVhbTktc2VydmVyMIIBIjANBgkqhkiG9w0BAQEF
AAOCAQ8AMIIBCgKCAQEAsETEfLAGmWPhLRn3/9v7KPdcf/5PWkciUSm+ai9XKAli
tivt7Y1oNcHIy2UI8nV7Bx40fN5FRhs4ifehwThhwiZZetcdDmSE5rq+Rr3WoW97
UaMjwIptf8V6ohDyKBkn74oF07CGnAZWP5IJI91QsnDLeMZtKITDlX3sM1O3sM0m
eABZ9hLcz96Wa/8cVicSGI5EDPa5Msla1AdmW2Bkia1ZgRxg1sMZ8vkwHCzkUcdA
jZV2yhQUlBHUoyIHbdv8QMQ1jdHIfASsLimqIOoD/VXaw6OV5ykCY+D9vt/0Yps4
tbu7ecioVKzu5bv4rM2RoqTMKCqyGg7pCQAO1ArlcwIDAQABo4G5MIG2MAkGA1Ud
EwQCMAAwHQYDVR0OBBYEFBVJ+jv00dhO0VdUClqES1TPH5siME8GA1UdIwRIMEaA
FNV4tShqxKTWemTaImyV1pDMkxOPoRikFjAUMRIwEAYDVQQDDAl0ZWFtOS1uZXSC
FFRQ5Nuy3TzxKNI5rt7Fc4Paedg9MBMGA1UdJQQMMAoGCCsGAQUFBwMBMAsGA1Ud
DwQEAwIFoDAXBgNVHREEEDAOggx0ZWFtOS1zZXJ2ZXIwDQYJKoZIhvcNAQELBQAD
ggEBABBS5K1E0HsINlPsXNNDjlUmrDJCGLbfnNuRyVpOElxMfntLBfK+f3IJ2GKF
ms/oLOfUfOJLypmZvq2fNbmwoWxYZsTe2g1mPHWFevoORsDyIK500CsW2M4LcmBq
Rdc81qCFwJ1Z6NkSJKJO/p1fIAFq1cuyolcCpCN9JbUcEV7rtglrmEM5hZXbXdUr
uEhunSA9mWsr9/CAiEtN6hPhSGTt0V54kCVKlCtIrTVWM7HsAlVOnfjOD2UXAxt+
cDbolBcoDujFNtghlxRLfZPi8UBJHXdZiFPUYVhrf4xE/IEuu20gQvuu+d83qYig
3DbBXtTKDAhdH74pnGxOJRf2hs4=
-----END CERTIFICATE-----
