Certificate:
    Data:
        Version: 3 (0x2)
        Serial Number:
            a7:81:54:10:16:36:85:eb:51:4e:5e:bc:be:bf:7f:eb
        Signature Algorithm: sha256WithRSAEncryption
        Issuer: CN=team9-net
        Validity
            Not Before: Nov  4 10:40:22 2023 GMT
            Not After : Oct 19 10:40:22 2026 GMT
        Subject: CN=team9-client
        Subject Public Key Info:
            Public Key Algorithm: rsaEncryption
                Public-Key: (2048 bit)
                Modulus:
                    00:b8:48:1e:17:18:aa:30:89:48:9c:8f:45:8a:86:
                    fe:e9:f2:97:b7:16:ce:67:55:5d:11:0c:17:8a:bc:
                    fa:27:cf:91:95:de:e6:86:1d:e3:ff:c8:cd:3a:d7:
                    63:a0:1a:1c:24:a6:c3:8e:2e:20:86:c3:9e:68:23:
                    8b:65:41:ee:44:33:c0:6c:32:d3:4b:b0:95:05:0b:
                    c0:fc:9b:b9:29:e8:46:fb:d2:04:6e:e8:f5:98:d8:
                    fb:04:1f:6c:39:5e:89:a3:44:57:f8:ff:f5:d6:a0:
                    74:1d:a3:54:7c:c9:84:da:bc:40:66:26:4a:c8:03:
                    42:f1:23:ac:f8:ad:46:15:c6:28:bf:4c:06:2b:a0:
                    60:c7:bd:ff:28:d7:da:d6:bc:fd:6f:1a:71:4d:6d:
                    57:73:f0:98:ff:db:10:36:5d:1d:af:c8:7e:21:f1:
                    97:fb:6b:ed:76:c4:57:88:c8:8f:41:23:12:36:d8:
                    d5:4d:22:c7:1a:51:2c:43:59:a2:1e:5c:53:03:e4:
                    9e:72:53:fb:95:70:c6:19:4b:75:86:b5:c5:64:33:
                    66:4a:3e:f5:84:f3:d9:8c:99:47:35:b7:65:47:ce:
                    6a:69:51:42:33:f0:d2:89:60:59:e1:3c:17:8d:f2:
                    cd:bb:84:3f:b3:3c:da:e4:de:15:b8:1a:27:e3:e5:
                    9e:67
                Exponent: 65537 (0x10001)
        X509v3 extensions:
            X509v3 Basic Constraints: 
                CA:FALSE
            X509v3 Subject Key Identifier: 
                21:1A:5D:C9:99:9C:BD:6D:6F:D3:D3:A4:87:94:E6:2E:0D:4F:B2:98
            X509v3 Authority Key Identifier: 
                keyid:15:50:B4:04:39:27:C8:67:86:6D:8A:33:62:5D:7B:3F:07:BA:C9:60
                DirName:/CN=team9-net
                serial:18:6E:A1:5A:42:CD:31:62:5D:51:AD:B6:92:E5:3C:77:98:6C:A9:07
            X509v3 Extended Key Usage: 
                TLS Web Client Authentication
            X509v3 Key Usage: 
                Digital Signature
    Signature Algorithm: sha256WithRSAEncryption
    Signature Value:
        85:7a:d5:84:44:bd:f9:ae:cb:79:25:d3:9f:83:03:d2:92:27:
        10:97:53:e2:b2:ef:39:0a:d3:42:22:41:86:0d:fb:3f:f3:b0:
        c7:de:e4:ea:b6:a1:d6:fe:92:83:d9:95:52:e1:e8:ed:cf:79:
        10:13:7b:d7:46:f2:6d:54:3a:7f:d6:55:76:0b:09:f2:d3:11:
        8e:1b:7f:de:1a:cb:30:fe:60:4d:d3:3f:5c:4b:a9:b7:c3:18:
        ae:13:37:9e:4d:0d:b2:1d:c6:0c:96:8f:f6:8a:88:93:32:4b:
        4a:41:34:90:fa:37:3b:0c:b5:81:3c:bb:de:e9:42:fa:cd:b7:
        b5:6d:ae:67:e9:e8:0a:30:42:42:47:51:e2:fa:75:73:55:d2:
        8e:00:38:99:58:96:50:51:80:40:6e:35:61:71:50:57:da:1a:
        fa:b0:8a:0c:ea:47:3c:7c:69:09:eb:04:55:42:03:a4:62:16:
        7a:9a:7b:e4:05:62:47:1f:b3:85:40:db:e9:80:16:06:c9:93:
        09:2f:8b:a2:e5:eb:c8:4a:ea:8c:a0:9b:27:99:65:27:21:e7:
        df:94:47:33:6e:55:15:97:27:ea:2c:a7:bb:58:55:99:03:e6:
        e1:82:fc:64:f2:52:46:58:ba:64:4c:00:c4:a7:9b:d9:2e:0d:
        f9:09:af:c3
-----BEGIN CERTIFICATE-----
MIIDVzCCAj+gAwIBAgIRAKeBVBAWNoXrUU5evL6/f+swDQYJKoZIhvcNAQELBQAw
FDESMBAGA1UEAwwJdGVhbTktbmV0MB4XDTIzMTEwNDEwNDAyMloXDTI2MTAxOTEw
NDAyMlowFzEVMBMGA1UEAwwMdGVhbTktY2xpZW50MIIBIjANBgkqhkiG9w0BAQEF
AAOCAQ8AMIIBCgKCAQEAuEgeFxiqMIlInI9Fiob+6fKXtxbOZ1VdEQwXirz6J8+R
ld7mhh3j/8jNOtdjoBocJKbDji4ghsOeaCOLZUHuRDPAbDLTS7CVBQvA/Ju5KehG
+9IEbuj1mNj7BB9sOV6Jo0RX+P/11qB0HaNUfMmE2rxAZiZKyANC8SOs+K1GFcYo
v0wGK6Bgx73/KNfa1rz9bxpxTW1Xc/CY/9sQNl0dr8h+IfGX+2vtdsRXiMiPQSMS
NtjVTSLHGlEsQ1miHlxTA+SeclP7lXDGGUt1hrXFZDNmSj71hPPZjJlHNbdlR85q
aVFCM/DSiWBZ4TwXjfLNu4Q/szza5N4VuBon4+WeZwIDAQABo4GgMIGdMAkGA1Ud
EwQCMAAwHQYDVR0OBBYEFCEaXcmZnL1tb9PTpIeU5i4NT7KYME8GA1UdIwRIMEaA
FBVQtAQ5J8hnhm2KM2Jdez8HuslgoRikFjAUMRIwEAYDVQQDDAl0ZWFtOS1uZXSC
FBhuoVpCzTFiXVGttpLlPHeYbKkHMBMGA1UdJQQMMAoGCCsGAQUFBwMCMAsGA1Ud
DwQEAwIHgDANBgkqhkiG9w0BAQsFAAOCAQEAhXrVhES9+a7LeSXTn4MD0pInEJdT
4rLvOQrTQiJBhg37P/Owx97k6rah1v6Sg9mVUuHo7c95EBN710bybVQ6f9ZVdgsJ
8tMRjht/3hrLMP5gTdM/XEupt8MYrhM3nk0Nsh3GDJaP9oqIkzJLSkE0kPo3Owy1
gTy73ulC+s23tW2uZ+noCjBCQkdR4vp1c1XSjgA4mViWUFGAQG41YXFQV9oa+rCK
DOpHPHxpCesEVUIDpGIWepp75AViRx+zhUDb6YAWBsmTCS+LouXryErqjKCbJ5ll
JyHn35RHM25VFZcn6iynu1hVmQPm4YL8ZPJSRli6ZEwAxKeb2S4N+Qmvww==
-----END CERTIFICATE-----
