Certificate:
    Data:
        Version: 3 (0x2)
        Serial Number:
            a9:f1:70:a6:86:ef:cb:09:e5:66:ed:67:73:4c:e5:bd
        Signature Algorithm: sha256WithRSAEncryption
        Issuer: CN=team9-net
        Validity
            Not Before: Nov  4 11:27:34 2023 GMT
            Not After : Oct 19 11:27:34 2026 GMT
        Subject: CN=team9-client
        Subject Public Key Info:
            Public Key Algorithm: rsaEncryption
                Public-Key: (2048 bit)
                Modulus:
                    00:b8:99:75:7c:ac:2e:d0:9c:5b:19:66:36:2a:24:
                    47:a1:9e:c8:9d:14:ab:9e:ee:26:e0:cd:ce:82:4b:
                    9d:97:ca:39:33:0c:cc:5a:2c:ef:02:2c:5c:47:1f:
                    be:60:f3:a7:37:25:4a:d7:6c:dc:a2:4c:47:c1:6e:
                    f5:7b:4c:12:08:1f:c6:0a:b2:a8:09:96:57:33:85:
                    58:f1:58:aa:07:5a:96:a4:2d:66:dc:8b:74:99:f1:
                    ce:2b:8e:80:5b:1d:40:d1:fb:db:52:f7:ad:ca:05:
                    50:2a:3a:9b:d3:a0:51:d2:84:f8:0d:44:78:ff:70:
                    3e:de:dd:99:96:ad:4c:bf:d2:6d:6c:24:40:85:1a:
                    3a:43:3a:be:be:7a:a8:e1:30:91:83:bf:e5:2a:e6:
                    9d:fa:c6:ef:ab:66:34:c8:3c:f7:4a:ee:1d:a9:60:
                    7d:7b:31:0c:f1:3c:9e:0d:03:ab:a3:36:1a:f9:2b:
                    7b:bf:65:dd:46:04:6a:de:6a:46:60:a6:24:89:97:
                    0a:18:d9:8c:82:1a:8a:03:fa:b7:71:12:64:48:ab:
                    1d:5e:60:96:1c:ce:6a:df:ca:90:a8:4b:5d:8a:85:
                    81:5a:88:1f:04:c7:be:a0:ea:8e:d3:9a:a7:c2:a8:
                    c9:0c:b6:3f:36:00:52:2d:26:ae:9c:a0:6f:53:77:
                    31:67
                Exponent: 65537 (0x10001)
        X509v3 extensions:
            X509v3 Basic Constraints: 
                CA:FALSE
            X509v3 Subject Key Identifier: 
                06:BA:EA:71:13:71:1D:DF:1D:38:F1:A5:18:B7:03:22:4A:71:EE:7A
            X509v3 Authority Key Identifier: 
                keyid:79:A5:E0:9D:50:9C:C4:55:05:1B:FE:86:44:EB:03:E2:A7:00:33:5E
                DirName:/CN=team9-net
                serial:34:FB:BB:A0:A7:D5:43:19:12:4F:EE:8F:01:B2:04:98:CE:D2:09:2F
            X509v3 Extended Key Usage: 
                TLS Web Client Authentication
            X509v3 Key Usage: 
                Digital Signature
    Signature Algorithm: sha256WithRSAEncryption
    Signature Value:
        1e:77:db:d1:40:fb:d9:72:3b:e0:1a:0a:75:5b:83:31:a5:21:
        15:d1:35:bb:63:50:79:9c:1f:6f:83:92:80:fa:12:b6:90:f0:
        63:a5:75:d8:0e:d6:28:9d:ff:ca:e9:a8:e5:22:19:71:a3:46:
        24:55:bb:57:c5:f2:b2:7d:46:27:1c:86:9a:f1:4b:c6:b8:72:
        9b:50:19:d7:09:ee:10:8d:a1:66:d7:92:e1:e0:7b:aa:7f:4a:
        54:8c:00:67:5b:49:a5:8a:5e:a8:29:9d:de:08:8c:34:08:b2:
        ea:c7:19:e4:d3:ef:55:2d:df:6b:0d:08:d1:f7:11:0d:fb:f8:
        14:f6:4c:e4:d8:09:3c:8d:8f:c9:b3:6e:b5:e0:e5:4b:01:28:
        b7:77:ed:ec:db:a2:55:76:90:e4:e6:8f:85:1e:88:53:b6:4a:
        8c:b5:2c:cc:a8:18:48:2f:3c:37:43:67:4b:2c:18:79:d2:c6:
        eb:13:86:90:82:47:d9:de:c8:6b:88:b0:33:cd:c2:d1:fe:ea:
        b2:7c:09:b9:96:3d:c1:2e:7c:21:48:c3:32:be:9a:cd:92:88:
        38:de:a7:ff:7b:f8:ed:cc:39:13:57:ae:1f:5d:a3:cb:9d:1c:
        c2:1a:c4:c7:9a:e9:44:e7:75:5a:9e:20:b7:35:7b:07:38:0c:
        52:d1:45:0b
-----BEGIN CERTIFICATE-----
MIIDVzCCAj+gAwIBAgIRAKnxcKaG78sJ5WbtZ3NM5b0wDQYJKoZIhvcNAQELBQAw
FDESMBAGA1UEAwwJdGVhbTktbmV0MB4XDTIzMTEwNDExMjczNFoXDTI2MTAxOTEx
MjczNFowFzEVMBMGA1UEAwwMdGVhbTktY2xpZW50MIIBIjANBgkqhkiG9w0BAQEF
AAOCAQ8AMIIBCgKCAQEAuJl1fKwu0JxbGWY2KiRHoZ7InRSrnu4m4M3Ogkudl8o5
MwzMWizvAixcRx++YPOnNyVK12zcokxHwW71e0wSCB/GCrKoCZZXM4VY8ViqB1qW
pC1m3It0mfHOK46AWx1A0fvbUvetygVQKjqb06BR0oT4DUR4/3A+3t2Zlq1Mv9Jt
bCRAhRo6Qzq+vnqo4TCRg7/lKuad+sbvq2Y0yDz3Su4dqWB9ezEM8TyeDQOrozYa
+St7v2XdRgRq3mpGYKYkiZcKGNmMghqKA/q3cRJkSKsdXmCWHM5q38qQqEtdioWB
WogfBMe+oOqO05qnwqjJDLY/NgBSLSaunKBvU3cxZwIDAQABo4GgMIGdMAkGA1Ud
EwQCMAAwHQYDVR0OBBYEFAa66nETcR3fHTjxpRi3AyJKce56ME8GA1UdIwRIMEaA
FHml4J1QnMRVBRv+hkTrA+KnADNeoRikFjAUMRIwEAYDVQQDDAl0ZWFtOS1uZXSC
FDT7u6Cn1UMZEk/ujwGyBJjO0gkvMBMGA1UdJQQMMAoGCCsGAQUFBwMCMAsGA1Ud
DwQEAwIHgDANBgkqhkiG9w0BAQsFAAOCAQEAHnfb0UD72XI74BoKdVuDMaUhFdE1
u2NQeZwfb4OSgPoStpDwY6V12A7WKJ3/yumo5SIZcaNGJFW7V8Xysn1GJxyGmvFL
xrhym1AZ1wnuEI2hZteS4eB7qn9KVIwAZ1tJpYpeqCmd3giMNAiy6scZ5NPvVS3f
aw0I0fcRDfv4FPZM5NgJPI2PybNuteDlSwEot3ft7NuiVXaQ5OaPhR6IU7ZKjLUs
zKgYSC88N0NnSywYedLG6xOGkIJH2d7Ia4iwM83C0f7qsnwJuZY9wS58IUjDMr6a
zZKION6n/3v47cw5E1euH12jy50cwhrEx5rpROd1Wp4gtzV7BzgMUtFFCw==
-----END CERTIFICATE-----
