Certificate:
    Data:
        Version: 3 (0x2)
        Serial Number:
            ac:a6:d7:a5:5f:32:df:01:c5:f0:3f:b4:3d:64:48:bc
        Signature Algorithm: sha256WithRSAEncryption
        Issuer: CN=team9-net
        Validity
            Not Before: Nov  4 10:40:22 2023 GMT
            Not After : Oct 19 10:40:22 2026 GMT
        Subject: CN=team9-server
        Subject Public Key Info:
            Public Key Algorithm: rsaEncryption
                Public-Key: (2048 bit)
                Modulus:
                    00:be:79:db:1f:b9:b3:38:b5:37:93:70:b4:45:96:
                    aa:ce:15:61:63:c4:cb:44:b5:f2:39:a7:c9:ef:18:
                    5a:53:00:42:a9:17:f2:82:62:b4:a6:df:3e:27:a7:
                    6b:8f:68:5a:90:21:0e:bc:02:f2:82:1d:2c:bb:ee:
                    10:d1:f1:1b:b4:27:b5:83:22:5e:13:2f:aa:fc:18:
                    15:49:18:6b:eb:17:a3:00:01:0d:57:14:81:20:8d:
                    54:c8:0d:b6:07:2a:16:c2:8a:6e:f5:a6:73:10:0f:
                    43:1d:36:9c:58:53:a7:eb:56:f8:6a:2f:c0:41:46:
                    4d:4d:d7:21:f3:e8:1e:6d:1c:db:87:ff:ee:3d:ba:
                    03:89:10:0f:1c:22:d9:b6:b5:1c:1f:04:0c:ef:52:
                    d1:53:b2:6f:d6:22:f5:34:36:3a:54:c7:9f:64:6a:
                    ad:a7:9b:fd:15:8b:97:f8:39:c9:69:9b:81:a5:ff:
                    04:e1:b9:e6:a5:d2:a9:48:1c:42:79:16:e7:24:6b:
                    bc:6f:87:5d:b0:fb:02:cb:72:d4:c8:6f:f4:74:a6:
                    d8:08:fa:4f:9b:35:9f:61:59:28:2d:c1:fc:c8:37:
                    f3:62:55:f9:22:f5:2b:5d:8b:82:77:82:49:4d:e0:
                    e5:c7:7e:61:d9:c9:88:2c:9e:10:4b:5d:74:ed:aa:
                    15:a5
                Exponent: 65537 (0x10001)
        X509v3 extensions:
            X509v3 Basic Constraints: 
                CA:FALSE
            X509v3 Subject Key Identifier: 
                7D:AB:21:E3:17:40:F2:DA:DC:F7:4F:25:B3:58:22:C2:99:6B:4B:F5
            X509v3 Authority Key Identifier: 
                keyid:15:50:B4:04:39:27:C8:67:86:6D:8A:33:62:5D:7B:3F:07:BA:C9:60
                DirName:/CN=team9-net
                serial:18:6E:A1:5A:42:CD:31:62:5D:51:AD:B6:92:E5:3C:77:98:6C:A9:07
            X509v3 Extended Key Usage: 
                TLS Web Server Authentication
            X509v3 Key Usage: 
                Digital Signature, Key Encipherment
            X509v3 Subject Alternative Name: 
                DNS:team9-server
    Signature Algorithm: sha256WithRSAEncryption
    Signature Value:
        96:fb:c6:59:ea:bb:20:c8:8c:9d:50:b5:fa:e5:3a:92:aa:05:
        81:8d:b9:de:73:dc:ec:b6:de:ee:a0:3b:c7:dd:47:2c:4a:f3:
        9d:ac:ec:64:08:d3:57:8b:2c:cb:e2:e7:2e:b6:23:33:ee:eb:
        9e:2d:23:df:27:4f:f3:87:f4:c2:58:e0:9b:6a:d0:17:f6:d5:
        b4:5f:ea:b9:f8:25:68:1d:86:a2:a2:b4:0b:62:6b:91:e0:83:
        9d:e6:a2:40:c6:71:8a:71:2c:9d:af:97:42:97:ce:bc:cd:5d:
        3c:3f:fc:52:73:49:64:44:ef:67:7f:f4:13:30:fa:c3:e5:69:
        f9:20:0f:86:8f:2a:4a:f1:74:7b:0b:db:f7:19:43:c1:e9:33:
        7c:78:5b:5a:52:fd:69:70:30:d8:16:22:77:0a:49:2c:02:b4:
        13:2d:8b:10:33:f4:33:cc:9a:7d:de:d7:08:27:06:38:14:ac:
        fd:fb:29:b8:31:6d:d2:ee:19:4a:dc:07:18:11:08:bd:cd:e7:
        9d:5e:3f:b8:fa:ad:f5:84:8a:6b:4c:4c:1d:71:12:1a:0f:73:
        c6:2f:df:8b:bc:44:51:33:1f:78:1e:73:81:04:3d:27:07:35:
        61:9a:a0:ab:95:b1:15:33:57:05:b0:87:ab:fe:66:c9:29:d6:
        7a:f1:d3:56
-----BEGIN CERTIFICATE-----
MIIDcDCCAligAwIBAgIRAKym16VfMt8BxfA/tD1kSLwwDQYJKoZIhvcNAQELBQAw
FDESMBAGA1UEAwwJdGVhbTktbmV0MB4XDTIzMTEwNDEwNDAyMloXDTI2MTAxOTEw
NDAyMlowFzEVMBMGA1UEAwwMdGVhbTktc2VydmVyMIIBIjANBgkqhkiG9w0BAQEF
AAOCAQ8AMIIBCgKCAQEAvnnbH7mzOLU3k3C0RZaqzhVhY8TLRLXyOafJ7xhaUwBC
qRfygmK0pt8+J6drj2hakCEOvALygh0su+4Q0fEbtCe1gyJeEy+q/BgVSRhr6xej
AAENVxSBII1UyA22ByoWwopu9aZzEA9DHTacWFOn61b4ai/AQUZNTdch8+gebRzb
h//uPboDiRAPHCLZtrUcHwQM71LRU7Jv1iL1NDY6VMefZGqtp5v9FYuX+DnJaZuB
pf8E4bnmpdKpSBxCeRbnJGu8b4ddsPsCy3LUyG/0dKbYCPpPmzWfYVkoLcH8yDfz
YlX5IvUrXYuCd4JJTeDlx35h2cmILJ4QS1107aoVpQIDAQABo4G5MIG2MAkGA1Ud
EwQCMAAwHQYDVR0OBBYEFH2rIeMXQPLa3PdPJbNYIsKZa0v1ME8GA1UdIwRIMEaA
FBVQtAQ5J8hnhm2KM2Jdez8HuslgoRikFjAUMRIwEAYDVQQDDAl0ZWFtOS1uZXSC
FBhuoVpCzTFiXVGttpLlPHeYbKkHMBMGA1UdJQQMMAoGCCsGAQUFBwMBMAsGA1Ud
DwQEAwIFoDAXBgNVHREEEDAOggx0ZWFtOS1zZXJ2ZXIwDQYJKoZIhvcNAQELBQAD
ggEBAJb7xlnquyDIjJ1QtfrlOpKqBYGNud5z3Oy23u6gO8fdRyxK852s7GQI01eL
LMvi5y62IzPu654tI98nT/OH9MJY4Jtq0Bf21bRf6rn4JWgdhqKitAtia5Hgg53m
okDGcYpxLJ2vl0KXzrzNXTw//FJzSWRE72d/9BMw+sPlafkgD4aPKkrxdHsL2/cZ
Q8HpM3x4W1pS/WlwMNgWIncKSSwCtBMtixAz9DPMmn3e1wgnBjgUrP37KbgxbdLu
GUrcBxgRCL3N551eP7j6rfWEimtMTB1xEhoPc8Yv34u8RFEzH3gec4EEPScHNWGa
oKuVsRUzVwWwh6v+Zskp1nrx01Y=
-----END CERTIFICATE-----
