Certificate:
    Data:
        Version: 3 (0x2)
        Serial Number:
            c3:bf:e3:38:75:e6:7e:77:c1:2d:48:64:06:7f:35:32
        Signature Algorithm: sha256WithRSAEncryption
        Issuer: CN=team9-net
        Validity
            Not Before: Nov  4 11:27:34 2023 GMT
            Not After : Oct 19 11:27:34 2026 GMT
        Subject: CN=team9-server
        Subject Public Key Info:
            Public Key Algorithm: rsaEncryption
                Public-Key: (2048 bit)
                Modulus:
                    00:f4:dd:ce:36:e0:4e:7d:60:c3:ac:2e:f6:65:2e:
                    25:24:09:f9:ed:a1:b0:f6:b1:81:aa:39:11:be:43:
                    66:87:75:c5:62:72:18:0e:94:b1:e3:e2:7a:ce:de:
                    cd:a6:79:96:30:ed:7c:49:b8:67:47:80:3f:56:35:
                    6a:92:e4:6c:83:04:50:df:bc:93:0a:25:f2:3c:0e:
                    12:ee:ce:d0:bf:1b:3b:2a:c7:b8:38:8c:32:89:6a:
                    c7:f1:b3:09:27:77:35:da:31:da:13:bf:c4:a5:09:
                    92:95:2f:d0:29:95:e7:86:a0:a2:f6:26:b5:63:db:
                    5d:da:41:1d:9c:44:32:69:03:45:a3:86:5c:7d:c9:
                    09:ce:a2:46:45:d0:45:6f:9d:6b:9a:ad:bd:f5:fb:
                    8c:4f:ac:6d:43:a6:c6:ff:ff:32:5b:7f:cb:5f:c5:
                    b6:f3:e0:50:7c:f3:f0:64:0d:cd:af:5e:08:34:c4:
                    d9:10:3e:b4:19:d9:d8:bf:d0:99:73:ff:70:be:05:
                    09:49:57:d6:bb:d5:95:ac:a8:93:6a:46:87:4b:92:
                    9b:62:16:71:34:18:af:83:c6:28:df:eb:c5:40:27:
                    38:15:41:9f:8a:17:e7:b4:ae:d0:aa:54:a7:da:4a:
                    62:6b:8f:bd:0c:0c:84:59:98:03:c6:69:d3:7e:75:
                    34:eb
                Exponent: 65537 (0x10001)
        X509v3 extensions:
            X509v3 Basic Constraints: 
                CA:FALSE
            X509v3 Subject Key Identifier: 
                BA:B7:F6:77:D8:7F:5C:62:A7:59:6F:DA:0E:F7:04:7A:3C:F9:F1:EF
            X509v3 Authority Key Identifier: 
                keyid:79:A5:E0:9D:50:9C:C4:55:05:1B:FE:86:44:EB:03:E2:A7:00:33:5E
                DirName:/CN=team9-net
                serial:34:FB:BB:A0:A7:D5:43:19:12:4F:EE:8F:01:B2:04:98:CE:D2:09:2F
            X509v3 Extended Key Usage: 
                TLS Web Server Authentication
            X509v3 Key Usage: 
                Digital Signature, Key Encipherment
            X509v3 Subject Alternative Name: 
                DNS:team9-server
    Signature Algorithm: sha256WithRSAEncryption
    Signature Value:
        1b:a9:33:29:1a:07:91:00:8d:0b:ea:a3:8e:fe:9f:44:48:0b:
        21:d1:d1:b9:9c:9a:01:11:a9:f5:8e:8b:e6:df:48:36:ff:97:
        72:ff:59:58:d1:e7:78:23:ef:68:2c:c8:38:9a:11:57:39:a1:
        44:54:4c:29:31:45:a8:44:24:06:ba:1a:c6:eb:09:c1:09:3e:
        52:b6:44:ea:ea:78:8d:f0:a9:32:d1:e8:41:68:e5:f3:a8:55:
        b8:66:cb:cb:c6:24:99:6e:6f:0d:50:4d:ed:22:0b:d2:49:ad:
        75:48:1c:5b:78:b0:18:35:22:0c:ca:1f:cd:96:e6:73:02:f2:
        ca:f4:a4:b5:0c:6c:ae:f6:9e:58:89:b2:5d:ac:43:e7:9d:d1:
        08:83:01:28:20:7e:d4:69:50:b8:9d:bb:4b:8c:56:5a:91:7e:
        36:bd:2d:ce:14:fb:f3:1e:36:5b:e2:ff:42:4c:23:22:6a:ee:
        51:91:4c:72:cb:f6:b5:89:2b:77:e1:ed:2d:df:bb:e1:95:94:
        e3:7c:b5:8c:06:74:cf:86:17:a1:c2:a7:46:89:4d:e0:b6:c6:
        4e:e7:ef:0e:53:8f:f3:58:77:53:19:79:78:4c:aa:32:4f:50:
        ad:2d:77:de:83:3b:6e:5c:12:9c:09:0e:af:b6:e9:e6:2f:cf:
        4f:06:7a:6f
-----BEGIN CERTIFICATE-----
MIIDcDCCAligAwIBAgIRAMO/4zh15n53wS1IZAZ/NTIwDQYJKoZIhvcNAQELBQAw
FDESMBAGA1UEAwwJdGVhbTktbmV0MB4XDTIzMTEwNDExMjczNFoXDTI2MTAxOTEx
MjczNFowFzEVMBMGA1UEAwwMdGVhbTktc2VydmVyMIIBIjANBgkqhkiG9w0BAQEF
AAOCAQ8AMIIBCgKCAQEA9N3ONuBOfWDDrC72ZS4lJAn57aGw9rGBqjkRvkNmh3XF
YnIYDpSx4+J6zt7NpnmWMO18SbhnR4A/VjVqkuRsgwRQ37yTCiXyPA4S7s7Qvxs7
Kse4OIwyiWrH8bMJJ3c12jHaE7/EpQmSlS/QKZXnhqCi9ia1Y9td2kEdnEQyaQNF
o4ZcfckJzqJGRdBFb51rmq299fuMT6xtQ6bG//8yW3/LX8W28+BQfPPwZA3Nr14I
NMTZED60GdnYv9CZc/9wvgUJSVfWu9WVrKiTakaHS5KbYhZxNBivg8Yo3+vFQCc4
FUGfihfntK7QqlSn2kpia4+9DAyEWZgDxmnTfnU06wIDAQABo4G5MIG2MAkGA1Ud
EwQCMAAwHQYDVR0OBBYEFLq39nfYf1xip1lv2g73BHo8+fHvME8GA1UdIwRIMEaA
FHml4J1QnMRVBRv+hkTrA+KnADNeoRikFjAUMRIwEAYDVQQDDAl0ZWFtOS1uZXSC
FDT7u6Cn1UMZEk/ujwGyBJjO0gkvMBMGA1UdJQQMMAoGCCsGAQUFBwMBMAsGA1Ud
DwQEAwIFoDAXBgNVHREEEDAOggx0ZWFtOS1zZXJ2ZXIwDQYJKoZIhvcNAQELBQAD
ggEBABupMykaB5EAjQvqo47+n0RICyHR0bmcmgERqfWOi+bfSDb/l3L/WVjR53gj
72gsyDiaEVc5oURUTCkxRahEJAa6GsbrCcEJPlK2ROrqeI3wqTLR6EFo5fOoVbhm
y8vGJJlubw1QTe0iC9JJrXVIHFt4sBg1IgzKH82W5nMC8sr0pLUMbK72nliJsl2s
Q+ed0QiDASggftRpULidu0uMVlqRfja9Lc4U+/MeNlvi/0JMIyJq7lGRTHLL9rWJ
K3fh7S3fu+GVlON8tYwGdM+GF6HCp0aJTeC2xk7n7w5Tj/NYd1MZeXhMqjJPUK0t
d96DO25cEpwJDq+26eYvz08Gem8=
-----END CERTIFICATE-----
