Certificate:
    Data:
        Version: 3 (0x2)
        Serial Number:
            59:36:ff:18:8e:67:20:b8:c4:16:03:b0:cb:d7:c2:59
        Signature Algorithm: sha256WithRSAEncryption
        Issuer: CN=team483-net
        Validity
            Not Before: Nov  4 11:38:32 2023 GMT
            Not After : Oct 19 11:38:32 2026 GMT
        Subject: CN=team483-server
        Subject Public Key Info:
            Public Key Algorithm: rsaEncryption
                Public-Key: (2048 bit)
                Modulus:
                    00:9b:7f:8f:e2:3f:be:80:0b:94:e1:eb:6c:2c:e3:
                    c4:53:04:07:93:93:50:dd:eb:7b:d8:2c:0f:dc:8f:
                    69:5d:6f:ba:6f:5d:7f:7d:7a:5f:2d:58:af:8d:3a:
                    a9:53:66:fa:ad:ee:e4:3d:dd:7b:08:a9:77:80:76:
                    11:c9:19:32:d5:94:2f:0a:63:42:ac:19:7e:8d:48:
                    e7:11:20:23:79:28:98:ea:82:22:93:54:25:3d:00:
                    d5:c3:97:50:42:30:2c:67:a9:32:56:21:5b:90:57:
                    3a:dc:fa:82:f1:6e:9d:9c:b0:84:db:ba:b0:20:23:
                    f2:ba:87:fd:54:83:d0:c7:d2:cd:ba:62:9b:b1:9b:
                    f8:0a:58:70:e1:dc:ee:cc:20:82:68:d1:62:ce:77:
                    ba:c0:58:53:56:43:b6:d2:30:e6:57:d9:4e:83:be:
                    af:40:3d:91:9b:ee:49:5b:d5:a3:3d:83:7d:07:c5:
                    d3:a9:1d:cc:e6:fd:a5:32:f0:a2:a4:d7:9a:e8:e1:
                    64:11:33:d0:64:d8:f8:e3:ba:a7:3f:45:0a:62:1a:
                    2a:9e:a4:ee:99:c8:66:3f:e0:b1:0f:fa:d9:23:55:
                    30:da:01:46:bd:8f:16:40:3c:f0:eb:c7:c9:ad:c0:
                    f6:6a:fe:45:5c:30:89:9b:2f:b9:3a:d7:a9:f3:36:
                    fa:6f
                Exponent: 65537 (0x10001)
        X509v3 extensions:
            X509v3 Basic Constraints: 
                CA:FALSE
            X509v3 Subject Key Identifier: 
                DD:52:68:B4:42:24:20:66:BC:D3:3E:63:5D:1D:71:51:BC:76:3E:A4
            X509v3 Authority Key Identifier: 
                keyid:84:C7:56:A4:22:4D:F8:06:5A:D9:FE:77:81:C1:28:9E:F6:C1:A1:2F
                DirName:/CN=team483-net
                serial:53:37:1F:0A:B0:BC:97:3E:8B:17:1C:B9:C1:49:B7:E4:24:2F:65:1C
            X509v3 Extended Key Usage: 
                TLS Web Server Authentication
            X509v3 Key Usage: 
                Digital Signature, Key Encipherment
            X509v3 Subject Alternative Name: 
                DNS:team483-server
    Signature Algorithm: sha256WithRSAEncryption
    Signature Value:
        0e:b0:03:46:fc:e9:e8:24:83:5b:a9:ab:f3:31:99:1c:56:4f:
        10:04:2c:93:89:e0:46:22:3e:30:19:05:34:44:c3:9b:14:1a:
        56:3f:8b:81:1f:7a:92:54:86:e9:38:f5:e7:45:98:92:a4:f5:
        23:34:1a:63:ef:1d:95:c8:b4:45:fa:75:69:eb:12:7e:30:91:
        fb:72:0a:77:2c:ce:3c:62:39:cd:dd:52:ed:1e:d3:a9:1a:f1:
        12:56:db:94:e2:a5:58:e9:2b:5f:bf:33:cf:74:19:49:c8:dd:
        09:ad:87:28:89:41:77:35:ef:80:00:5b:e3:8a:90:13:5e:03:
        f9:9c:fb:64:22:93:92:77:1c:1d:4c:68:c8:48:23:a6:f2:c9:
        98:ed:f4:ef:41:4b:ba:e8:e0:32:5b:06:44:7a:9d:bc:21:3c:
        4d:63:48:18:17:79:8b:59:4d:75:8b:7d:cc:04:e2:30:b1:5f:
        6f:f0:13:f9:52:1c:9e:46:0d:0d:0f:67:30:8e:c1:26:85:fa:
        9d:53:10:88:34:08:4f:87:c8:80:c7:c1:d1:a9:8e:cb:b9:29:
        98:b7:4a:72:25:93:25:12:88:22:e5:2b:4a:e2:4f:00:b1:15:
        c4:f0:52:f3:37:22:1e:4d:89:40:3c:5d:33:22:8e:f3:b5:45:
        12:a6:70:0e
-----BEGIN CERTIFICATE-----
MIIDdzCCAl+gAwIBAgIQWTb/GI5nILjEFgOwy9fCWTANBgkqhkiG9w0BAQsFADAW
MRQwEgYDVQQDDAt0ZWFtNDgzLW5ldDAeFw0yMzExMDQxMTM4MzJaFw0yNjEwMTkx
MTM4MzJaMBkxFzAVBgNVBAMMDnRlYW00ODMtc2VydmVyMIIBIjANBgkqhkiG9w0B
AQEFAAOCAQ8AMIIBCgKCAQEAm3+P4j++gAuU4etsLOPEUwQHk5NQ3et72CwP3I9p
XW+6b11/fXpfLVivjTqpU2b6re7kPd17CKl3gHYRyRky1ZQvCmNCrBl+jUjnESAj
eSiY6oIik1QlPQDVw5dQQjAsZ6kyViFbkFc63PqC8W6dnLCE27qwICPyuof9VIPQ
x9LNumKbsZv4Clhw4dzuzCCCaNFizne6wFhTVkO20jDmV9lOg76vQD2Rm+5JW9Wj
PYN9B8XTqR3M5v2lMvCipNea6OFkETPQZNj447qnP0UKYhoqnqTumchmP+CxD/rZ
I1Uw2gFGvY8WQDzw68fJrcD2av5FXDCJmy+5Otep8zb6bwIDAQABo4G9MIG6MAkG
A1UdEwQCMAAwHQYDVR0OBBYEFN1SaLRCJCBmvNM+Y10dcVG8dj6kMFEGA1UdIwRK
MEiAFITHVqQiTfgGWtn+d4HBKJ72waEvoRqkGDAWMRQwEgYDVQQDDAt0ZWFtNDgz
LW5ldIIUUzcfCrC8lz6LFxy5wUm35CQvZRwwEwYDVR0lBAwwCgYIKwYBBQUHAwEw
CwYDVR0PBAQDAgWgMBkGA1UdEQQSMBCCDnRlYW00ODMtc2VydmVyMA0GCSqGSIb3
DQEBCwUAA4IBAQAOsANG/OnoJINbqavzMZkcVk8QBCyTieBGIj4wGQU0RMObFBpW
P4uBH3qSVIbpOPXnRZiSpPUjNBpj7x2VyLRF+nVp6xJ+MJH7cgp3LM48YjnN3VLt
HtOpGvESVtuU4qVY6StfvzPPdBlJyN0JrYcoiUF3Ne+AAFvjipATXgP5nPtkIpOS
dxwdTGjISCOm8smY7fTvQUu66OAyWwZEep28ITxNY0gYF3mLWU11i33MBOIwsV9v
8BP5UhyeRg0ND2cwjsEmhfqdUxCINAhPh8iAx8HRqY7LuSmYt0pyJZMlEogi5StK
4k8AsRXE8FLzNyIeTYlAPF0zIo7ztUUSpnAO
-----END CERTIFICATE-----
