Certificate:
    Data:
        Version: 3 (0x2)
        Serial Number:
            74:8b:5f:e5:7c:62:b6:89:15:61:70:f8:56:4a:a6:fe
        Signature Algorithm: sha256WithRSAEncryption
        Issuer: CN=team483-net
        Validity
            Not Before: Nov  4 10:49:08 2023 GMT
            Not After : Oct 19 10:49:08 2026 GMT
        Subject: CN=team483-client
        Subject Public Key Info:
            Public Key Algorithm: rsaEncryption
                Public-Key: (2048 bit)
                Modulus:
                    00:ad:8e:d7:37:30:f3:07:52:74:34:0b:2a:b3:60:
                    a1:a9:be:6e:89:c3:03:4d:f0:3b:de:e3:bb:11:a6:
                    e1:39:97:39:16:4d:9b:94:23:84:54:f6:38:ad:83:
                    3d:80:a5:54:01:7c:a9:de:87:fb:37:8a:fd:bf:dc:
                    c0:27:2e:0e:fb:3d:6f:05:de:0a:82:4f:29:fa:de:
                    96:e1:c8:8c:47:d9:c8:19:c1:2e:e5:7b:b8:46:ac:
                    3c:e5:6c:23:c5:0b:1f:a1:11:41:5a:4e:0f:22:3c:
                    70:e1:68:ee:8a:e5:ff:8e:0a:98:d0:04:00:75:ff:
                    ae:0a:26:12:84:cc:63:49:11:b1:47:4d:af:d4:71:
                    c8:b7:f1:7f:bd:35:64:39:9a:ba:3d:94:c1:63:99:
                    89:a5:7d:80:76:3d:e8:1f:30:be:c7:82:63:fe:c6:
                    01:99:ac:04:51:fa:25:15:c3:07:c5:7e:38:7a:32:
                    9b:fb:6a:5b:b8:d1:ad:75:6d:ea:89:6a:be:c3:9a:
                    99:e2:62:26:bc:7b:0d:d9:6f:d2:92:fb:aa:fc:17:
                    70:74:b3:c0:57:4a:40:f0:36:77:32:83:5b:1d:e6:
                    7b:8a:8b:59:47:58:45:f2:35:fe:f1:f0:c7:dd:07:
                    b6:ff:b7:65:3d:0c:58:d0:ee:20:93:26:98:61:ef:
                    6d:8f
                Exponent: 65537 (0x10001)
        X509v3 extensions:
            X509v3 Basic Constraints: 
                CA:FALSE
            X509v3 Subject Key Identifier: 
                B0:7B:E1:2C:CF:AE:C0:EC:E1:03:63:CB:31:FB:26:56:70:FA:F5:93
            X509v3 Authority Key Identifier: 
                keyid:3A:9A:F6:52:E6:DB:94:E0:34:F8:98:BF:77:DE:0F:12:04:CC:CA:2F
                DirName:/CN=team483-net
                serial:15:9E:9D:D3:82:53:27:23:4A:99:9E:31:39:42:1D:DE:A7:C7:33:C1
            X509v3 Extended Key Usage: 
                TLS Web Client Authentication
            X509v3 Key Usage: 
                Digital Signature
    Signature Algorithm: sha256WithRSAEncryption
    Signature Value:
        61:43:0d:dc:6a:e6:7c:c5:f0:e0:df:ec:bd:4c:f6:c7:55:3b:
        0e:0d:29:17:44:ac:79:3c:05:3c:dc:88:22:34:87:41:09:f8:
        27:07:5f:95:e6:be:c9:f6:4c:d4:13:7c:88:5e:8f:68:0c:f5:
        cf:0e:c2:a4:1e:ad:89:73:c8:80:34:9e:f5:f1:05:4a:c3:db:
        7e:c0:c4:4a:ce:86:81:89:23:0f:ca:34:b8:00:62:4e:93:38:
        27:d9:16:45:20:3b:e1:21:0a:55:93:82:8a:3a:3f:e8:0c:2d:
        4c:a0:f4:13:5e:1d:48:7b:0a:a5:14:e8:a1:6e:29:0b:ab:62:
        d0:85:94:38:16:72:af:33:1a:e5:27:19:56:af:90:64:5a:54:
        b2:e0:74:00:6a:fd:68:7e:0c:ff:f0:b6:67:63:19:f0:9d:32:
        e2:df:ca:2e:78:71:b4:f9:bb:8d:37:b6:57:b6:f7:97:97:7e:
        f2:0e:d9:69:cb:91:9c:27:79:77:9d:2e:4d:2e:b5:64:d4:be:
        df:62:84:04:51:ec:56:51:98:29:3b:d6:66:90:bf:5c:7f:8b:
        88:c5:22:80:1a:0e:96:32:2e:6a:be:66:9a:a5:f1:b7:c7:b8:
        85:28:ef:6b:65:08:ae:52:a9:0b:e3:51:94:03:99:e4:f9:43:
        55:5c:5f:82
-----BEGIN CERTIFICATE-----
MIIDXDCCAkSgAwIBAgIQdItf5XxitokVYXD4Vkqm/jANBgkqhkiG9w0BAQsFADAW
MRQwEgYDVQQDDAt0ZWFtNDgzLW5ldDAeFw0yMzExMDQxMDQ5MDhaFw0yNjEwMTkx
MDQ5MDhaMBkxFzAVBgNVBAMMDnRlYW00ODMtY2xpZW50MIIBIjANBgkqhkiG9w0B
AQEFAAOCAQ8AMIIBCgKCAQEArY7XNzDzB1J0NAsqs2Chqb5uicMDTfA73uO7Eabh
OZc5Fk2blCOEVPY4rYM9gKVUAXyp3of7N4r9v9zAJy4O+z1vBd4Kgk8p+t6W4ciM
R9nIGcEu5Xu4Rqw85WwjxQsfoRFBWk4PIjxw4WjuiuX/jgqY0AQAdf+uCiYShMxj
SRGxR02v1HHIt/F/vTVkOZq6PZTBY5mJpX2Adj3oHzC+x4Jj/sYBmawEUfolFcMH
xX44ejKb+2pbuNGtdW3qiWq+w5qZ4mImvHsN2W/Skvuq/BdwdLPAV0pA8DZ3MoNb
HeZ7iotZR1hF8jX+8fDH3Qe2/7dlPQxY0O4gkyaYYe9tjwIDAQABo4GiMIGfMAkG
A1UdEwQCMAAwHQYDVR0OBBYEFLB74SzPrsDs4QNjyzH7JlZw+vWTMFEGA1UdIwRK
MEiAFDqa9lLm25TgNPiYv3feDxIEzMovoRqkGDAWMRQwEgYDVQQDDAt0ZWFtNDgz
LW5ldIIUFZ6d04JTJyNKmZ4xOUId3qfHM8EwEwYDVR0lBAwwCgYIKwYBBQUHAwIw
CwYDVR0PBAQDAgeAMA0GCSqGSIb3DQEBCwUAA4IBAQBhQw3cauZ8xfDg3+y9TPbH
VTsODSkXRKx5PAU83IgiNIdBCfgnB1+V5r7J9kzUE3yIXo9oDPXPDsKkHq2Jc8iA
NJ718QVKw9t+wMRKzoaBiSMPyjS4AGJOkzgn2RZFIDvhIQpVk4KKOj/oDC1MoPQT
Xh1IewqlFOihbikLq2LQhZQ4FnKvMxrlJxlWr5BkWlSy4HQAav1ofgz/8LZnYxnw
nTLi38oueHG0+buNN7ZXtveXl37yDtlpy5GcJ3l3nS5NLrVk1L7fYoQEUexWUZgp
O9ZmkL9cf4uIxSKAGg6WMi5qvmaapfG3x7iFKO9rZQiuUqkL41GUA5nk+UNVXF+C
-----END CERTIFICATE-----
