Certificate:
    Data:
        Version: 3 (0x2)
        Serial Number:
            86:48:4f:62:f1:25:10:10:92:cf:77:3c:75:b0:3d:21
        Signature Algorithm: sha256WithRSAEncryption
        Issuer: CN=team483-net
        Validity
            Not Before: Nov  3 20:48:04 2023 GMT
            Not After : Oct 18 20:48:04 2026 GMT
        Subject: CN=team483-client
        Subject Public Key Info:
            Public Key Algorithm: rsaEncryption
                Public-Key: (2048 bit)
                Modulus:
                    00:92:44:df:bf:9e:82:c0:33:67:59:e0:2d:b7:79:
                    7b:04:b6:ce:76:7e:3a:b0:63:e1:65:4c:32:46:2b:
                    ef:c2:71:6d:af:cb:e1:05:d8:5f:2d:fd:d7:de:c1:
                    85:9f:88:c6:0e:ff:be:4b:31:1e:42:76:72:42:cf:
                    01:15:66:3b:fe:ad:91:2f:f0:02:7d:e6:48:92:f6:
                    a7:a5:7a:a9:6e:05:c7:5f:10:4c:30:05:92:bc:79:
                    29:44:ce:13:a5:19:45:bd:a2:bd:6e:b2:03:2e:28:
                    aa:76:7c:a9:d6:ec:67:a6:05:d9:d6:c1:ca:6d:85:
                    a0:60:4a:5b:a6:a0:c2:f8:a5:15:c7:78:33:b4:33:
                    70:74:60:00:eb:2c:05:b6:aa:dc:d5:25:3e:32:9c:
                    cd:dd:3f:19:27:91:d0:a3:b3:c2:4b:36:d5:f6:7f:
                    5b:12:8e:d0:f9:76:2f:60:c5:e5:ca:cc:1e:34:ad:
                    6a:77:1e:56:6f:c3:cd:24:a1:3e:9e:24:75:f5:bb:
                    1e:84:e7:12:7e:d4:74:9a:8b:47:68:7d:02:92:40:
                    35:29:b5:b5:f3:1d:94:62:20:8d:ba:99:db:92:dd:
                    99:72:ec:c3:ad:1e:07:63:a9:a2:16:41:19:ab:70:
                    96:74:22:02:4c:3d:97:81:ea:79:4c:5d:25:76:46:
                    97:9d
                Exponent: 65537 (0x10001)
        X509v3 extensions:
            X509v3 Basic Constraints: 
                CA:FALSE
            X509v3 Subject Key Identifier: 
                8E:80:57:18:B0:99:9B:BE:70:DD:05:37:FD:C3:8B:53:35:85:41:D8
            X509v3 Authority Key Identifier: 
                keyid:99:F9:6D:A1:90:40:ED:2F:03:76:B9:3E:EE:6C:10:29:92:DC:76:E6
                DirName:/CN=team483-net
                serial:31:A3:04:A9:53:66:C6:F3:D5:BF:79:5A:0E:99:62:D4:E5:B7:40:BE
            X509v3 Extended Key Usage: 
                TLS Web Client Authentication
            X509v3 Key Usage: 
                Digital Signature
    Signature Algorithm: sha256WithRSAEncryption
    Signature Value:
        15:fa:03:6c:d5:4b:43:64:9f:54:fd:75:e0:42:d8:0d:93:bc:
        9e:7c:d1:68:4e:5e:a9:4e:cc:32:05:67:34:80:88:28:d8:37:
        e4:38:7c:02:db:51:7b:63:7e:d2:78:03:52:9d:d2:52:7d:ed:
        a6:f0:12:9c:72:51:7a:27:5c:49:a2:1e:23:f3:3e:f3:fe:cb:
        d1:e2:3e:e9:e2:25:25:b7:c1:eb:5b:8d:5a:83:a2:40:6d:d9:
        8c:e3:1a:01:61:b7:fd:26:8a:b9:0e:ee:38:9f:85:b9:4a:85:
        a6:55:cd:1e:c0:0b:35:e7:fb:58:79:a2:a0:3b:b3:f2:85:2f:
        c5:e7:7b:32:16:cd:c7:7a:6b:99:0e:74:1c:bd:ca:56:de:a4:
        7f:c7:36:e1:be:98:e0:e5:94:3f:a8:59:dd:4f:92:68:f3:de:
        d3:f4:5b:60:1d:54:a6:3b:8b:fe:e1:66:4e:34:ce:2d:f0:8f:
        e1:4c:da:25:64:e5:2b:54:d0:98:69:fa:c5:47:62:d8:83:35:
        5a:07:93:47:1c:2d:3a:e6:17:b8:d9:db:87:bb:6d:fb:d4:21:
        79:5e:26:8e:71:12:88:04:0d:dd:49:95:e7:f8:3b:ef:8d:13:
        86:23:ba:ee:13:0e:c5:92:c7:c6:1b:69:8f:f5:12:cd:76:90:
        ce:3b:3a:50
-----BEGIN CERTIFICATE-----
MIIDXTCCAkWgAwIBAgIRAIZIT2LxJRAQks93PHWwPSEwDQYJKoZIhvcNAQELBQAw
FjEUMBIGA1UEAwwLdGVhbTQ4My1uZXQwHhcNMjMxMTAzMjA0ODA0WhcNMjYxMDE4
MjA0ODA0WjAZMRcwFQYDVQQDDA50ZWFtNDgzLWNsaWVudDCCASIwDQYJKoZIhvcN
AQEBBQADggEPADCCAQoCggEBAJJE37+egsAzZ1ngLbd5ewS2znZ+OrBj4WVMMkYr
78Jxba/L4QXYXy39197BhZ+Ixg7/vksxHkJ2ckLPARVmO/6tkS/wAn3mSJL2p6V6
qW4Fx18QTDAFkrx5KUTOE6UZRb2ivW6yAy4oqnZ8qdbsZ6YF2dbBym2FoGBKW6ag
wvilFcd4M7QzcHRgAOssBbaq3NUlPjKczd0/GSeR0KOzwks21fZ/WxKO0Pl2L2DF
5crMHjStanceVm/DzSShPp4kdfW7HoTnEn7UdJqLR2h9ApJANSm1tfMdlGIgjbqZ
25LdmXLsw60eB2OpohZBGatwlnQiAkw9l4HqeUxdJXZGl50CAwEAAaOBojCBnzAJ
BgNVHRMEAjAAMB0GA1UdDgQWBBSOgFcYsJmbvnDdBTf9w4tTNYVB2DBRBgNVHSME
SjBIgBSZ+W2hkEDtLwN2uT7ubBApktx25qEapBgwFjEUMBIGA1UEAwwLdGVhbTQ4
My1uZXSCFDGjBKlTZsbz1b95Wg6ZYtTlt0C+MBMGA1UdJQQMMAoGCCsGAQUFBwMC
MAsGA1UdDwQEAwIHgDANBgkqhkiG9w0BAQsFAAOCAQEAFfoDbNVLQ2SfVP114ELY
DZO8nnzRaE5eqU7MMgVnNICIKNg35Dh8AttRe2N+0ngDUp3SUn3tpvASnHJReidc
SaIeI/M+8/7L0eI+6eIlJbfB61uNWoOiQG3ZjOMaAWG3/SaKuQ7uOJ+FuUqFplXN
HsALNef7WHmioDuz8oUvxed7MhbNx3prmQ50HL3KVt6kf8c24b6Y4OWUP6hZ3U+S
aPPe0/RbYB1UpjuL/uFmTjTOLfCP4UzaJWTlK1TQmGn6xUdi2IM1WgeTRxwtOuYX
uNnbh7tt+9QheV4mjnESiAQN3UmV5/g7740ThiO67hMOxZLHxhtpj/USzXaQzjs6
UA==
-----END CERTIFICATE-----
