Certificate:
    Data:
        Version: 3 (0x2)
        Serial Number:
            94:ba:bd:ea:4a:73:30:83:4f:2c:bb:05:65:0e:08:00
        Signature Algorithm: sha256WithRSAEncryption
        Issuer: CN=team483-net
        Validity
            Not Before: Nov  4 11:38:31 2023 GMT
            Not After : Oct 19 11:38:31 2026 GMT
        Subject: CN=team483-client
        Subject Public Key Info:
            Public Key Algorithm: rsaEncryption
                Public-Key: (2048 bit)
                Modulus:
                    00:c0:17:e3:a6:5e:92:4c:50:8e:82:46:9c:16:ca:
                    2c:ab:15:72:7c:b6:0c:39:f2:e6:af:35:24:68:6a:
                    cb:8e:34:3b:fd:b5:90:ed:9a:f2:c3:33:38:80:dd:
                    d5:f1:5a:5c:ed:d3:9e:76:eb:95:fa:50:bd:d3:ae:
                    79:e2:3e:3b:e9:54:5f:45:8d:20:1c:93:1c:42:7d:
                    1c:40:66:f0:7f:36:ff:10:45:32:9e:66:e7:80:0f:
                    5e:0e:61:05:6e:d2:12:dc:d1:47:c1:b2:2d:3b:b5:
                    dc:5a:85:36:2b:e2:eb:c6:a9:fd:e2:77:eb:c8:76:
                    28:80:6e:97:6e:24:81:5f:df:19:c6:08:0b:96:28:
                    bb:35:27:40:bd:6a:4b:e1:bd:f4:5c:ad:fb:2e:dd:
                    78:17:f2:31:eb:e4:8f:c2:6c:0d:2d:c2:64:a6:61:
                    e9:97:39:c8:f3:12:25:76:49:46:ca:a1:82:0f:95:
                    7b:b2:0f:10:50:10:14:54:ea:4d:a1:4e:6b:01:81:
                    e5:d2:3a:2c:ec:c2:f4:7c:9c:fa:c5:12:81:00:5c:
                    43:12:77:c0:78:7b:36:dd:57:d8:7f:53:50:8e:e4:
                    2f:83:93:31:86:69:65:a5:e3:d2:9f:3e:ff:94:c2:
                    64:f8:3b:51:2c:77:31:bc:30:41:ba:47:b1:1b:71:
                    af:71
                Exponent: 65537 (0x10001)
        X509v3 extensions:
            X509v3 Basic Constraints: 
                CA:FALSE
            X509v3 Subject Key Identifier: 
                B6:53:B6:B1:49:35:A9:4C:E0:9B:BD:0D:EF:38:0D:B3:74:47:C2:0E
            X509v3 Authority Key Identifier: 
                keyid:84:C7:56:A4:22:4D:F8:06:5A:D9:FE:77:81:C1:28:9E:F6:C1:A1:2F
                DirName:/CN=team483-net
                serial:53:37:1F:0A:B0:BC:97:3E:8B:17:1C:B9:C1:49:B7:E4:24:2F:65:1C
            X509v3 Extended Key Usage: 
                TLS Web Client Authentication
            X509v3 Key Usage: 
                Digital Signature
    Signature Algorithm: sha256WithRSAEncryption
    Signature Value:
        ac:b0:8b:99:1c:bd:35:22:59:56:5a:8b:51:e7:bc:e0:f8:aa:
        99:6f:0b:65:cb:a5:ce:b1:30:67:f8:d6:69:4c:f0:aa:32:f6:
        40:b4:fc:75:6e:82:a3:27:8b:55:6a:56:74:17:f5:69:5c:71:
        95:82:4a:f7:ae:40:a9:0c:8c:5f:2f:4a:0c:54:64:97:28:77:
        45:fc:43:3b:36:53:30:28:a1:c3:6b:e3:60:8b:21:58:3c:71:
        bc:bb:d9:0f:27:55:18:b2:1f:64:6d:3d:49:c6:cf:e2:a8:0b:
        aa:df:9d:9f:c4:40:69:70:a0:a5:42:9c:f5:7e:d4:0f:d9:85:
        35:d1:10:30:5f:b2:51:f7:1a:d0:d3:e7:59:07:60:6b:8b:85:
        05:93:d7:8c:04:7b:f7:3f:f8:ae:e8:48:40:b1:14:43:35:33:
        4c:c4:1e:56:4a:d8:a5:00:51:4d:39:ff:06:d7:06:36:62:40:
        0f:c0:26:42:59:ab:d0:9c:e0:b9:f1:89:8e:71:b4:01:35:3f:
        7f:0c:08:5c:d9:67:68:86:bc:0d:e0:4b:07:82:53:43:ff:b1:
        f9:86:1c:2e:d0:a5:8b:c3:89:cb:4a:70:8d:62:df:74:b3:0c:
        83:b3:5b:a7:c7:e5:ad:4e:f1:95:aa:ba:15:96:85:be:c0:5f:
        93:5d:1c:6a
-----BEGIN CERTIFICATE-----
MIIDXTCCAkWgAwIBAgIRAJS6vepKczCDTyy7BWUOCAAwDQYJKoZIhvcNAQELBQAw
FjEUMBIGA1UEAwwLdGVhbTQ4My1uZXQwHhcNMjMxMTA0MTEzODMxWhcNMjYxMDE5
MTEzODMxWjAZMRcwFQYDVQQDDA50ZWFtNDgzLWNsaWVudDCCASIwDQYJKoZIhvcN
AQEBBQADggEPADCCAQoCggEBAMAX46ZekkxQjoJGnBbKLKsVcny2DDny5q81JGhq
y440O/21kO2a8sMzOIDd1fFaXO3TnnbrlfpQvdOueeI+O+lUX0WNIByTHEJ9HEBm
8H82/xBFMp5m54APXg5hBW7SEtzRR8GyLTu13FqFNivi68ap/eJ368h2KIBul24k
gV/fGcYIC5YouzUnQL1qS+G99Fyt+y7deBfyMevkj8JsDS3CZKZh6Zc5yPMSJXZJ
Rsqhgg+Ve7IPEFAQFFTqTaFOawGB5dI6LOzC9Hyc+sUSgQBcQxJ3wHh7Nt1X2H9T
UI7kL4OTMYZpZaXj0p8+/5TCZPg7USx3MbwwQbpHsRtxr3ECAwEAAaOBojCBnzAJ
BgNVHRMEAjAAMB0GA1UdDgQWBBS2U7axSTWpTOCbvQ3vOA2zdEfCDjBRBgNVHSME
SjBIgBSEx1akIk34BlrZ/neBwSie9sGhL6EapBgwFjEUMBIGA1UEAwwLdGVhbTQ4
My1uZXSCFFM3HwqwvJc+ixccucFJt+QkL2UcMBMGA1UdJQQMMAoGCCsGAQUFBwMC
MAsGA1UdDwQEAwIHgDANBgkqhkiG9w0BAQsFAAOCAQEArLCLmRy9NSJZVlqLUee8
4PiqmW8LZculzrEwZ/jWaUzwqjL2QLT8dW6CoyeLVWpWdBf1aVxxlYJK965AqQyM
Xy9KDFRklyh3RfxDOzZTMCihw2vjYIshWDxxvLvZDydVGLIfZG09ScbP4qgLqt+d
n8RAaXCgpUKc9X7UD9mFNdEQMF+yUfca0NPnWQdga4uFBZPXjAR79z/4ruhIQLEU
QzUzTMQeVkrYpQBRTTn/BtcGNmJAD8AmQlmr0JzgufGJjnG0ATU/fwwIXNlnaIa8
DeBLB4JTQ/+x+YYcLtCli8OJy0pwjWLfdLMMg7Nbp8flrU7xlaq6FZaFvsBfk10c
ag==
-----END CERTIFICATE-----
