Certificate:
    Data:
        Version: 3 (0x2)
        Serial Number:
            ff:6f:fc:21:77:d7:5a:d9:f7:28:00:b5:7c:d6:a0:a6
        Signature Algorithm: sha256WithRSAEncryption
        Issuer: CN=team213-net
        Validity
            Not Before: Nov  3 20:43:11 2023 GMT
            Not After : Oct 18 20:43:11 2026 GMT
        Subject: CN=team213-server
        Subject Public Key Info:
            Public Key Algorithm: rsaEncryption
                Public-Key: (2048 bit)
                Modulus:
                    00:b1:66:04:69:29:e3:fb:12:9c:51:be:d0:45:2f:
                    e8:29:e8:5a:16:d9:95:20:a8:1d:85:ca:a1:27:c7:
                    1d:df:37:8b:cf:da:d6:7b:d6:18:09:35:67:7e:bb:
                    51:a4:25:c1:f1:68:80:12:cb:cd:8b:e9:11:6c:a2:
                    e5:30:29:a9:39:9f:f1:fe:2a:80:76:a1:5c:f6:b5:
                    d6:2e:d1:f5:25:7f:aa:29:13:ce:1a:a8:c5:a7:ea:
                    78:cc:2f:b2:03:77:4c:70:43:26:86:f4:02:f9:0e:
                    99:5d:9a:36:67:56:51:0b:8c:5a:e7:95:eb:ac:d6:
                    f8:93:cc:d3:ff:cd:a4:ca:86:13:8d:42:be:8c:b7:
                    cf:06:c6:70:6c:d5:67:30:89:c4:0c:a5:19:7a:b1:
                    35:65:77:d3:6e:9b:f9:d6:be:0d:3f:99:1d:b4:40:
                    be:32:a9:75:db:eb:46:8f:d5:fd:d8:43:0e:93:fc:
                    b8:33:55:51:39:89:f2:8d:8a:6f:7d:33:d1:c0:50:
                    fd:4b:45:51:38:c0:44:81:a3:93:53:ef:56:f1:54:
                    4a:5a:53:2b:d3:6c:cd:7f:35:98:61:b3:2c:58:8b:
                    88:38:3b:5f:1d:75:20:be:5b:ee:4a:c3:92:59:e2:
                    6c:d9:23:47:8e:ef:2f:0a:20:9e:2d:e1:3c:64:77:
                    b4:f9
                Exponent: 65537 (0x10001)
        X509v3 extensions:
            X509v3 Basic Constraints: 
                CA:FALSE
            X509v3 Subject Key Identifier: 
                9B:92:C0:46:A9:68:A3:DA:EC:E0:AD:94:F8:9A:1E:B7:1A:FD:62:73
            X509v3 Authority Key Identifier: 
                keyid:D3:24:5F:C5:12:6A:A3:6A:15:D8:0C:03:5B:D7:61:84:AB:1F:82:6B
                DirName:/CN=team213-net
                serial:77:CE:6D:1A:70:77:BC:FB:3E:8F:64:65:72:EC:FC:72:C9:C8:80:32
            X509v3 Extended Key Usage: 
                TLS Web Server Authentication
            X509v3 Key Usage: 
                Digital Signature, Key Encipherment
            X509v3 Subject Alternative Name: 
                DNS:team213-server
    Signature Algorithm: sha256WithRSAEncryption
    Signature Value:
        59:4b:91:08:07:85:f3:f4:6b:29:a2:b1:02:d6:10:36:24:7e:
        14:45:48:53:fb:8d:1a:0e:85:3d:05:64:0f:17:18:ff:34:9c:
        55:f7:dc:87:7e:1c:b9:90:4e:de:36:5d:5f:10:76:fa:35:ac:
        1c:d3:b0:a1:d0:95:6c:d8:1e:ef:aa:88:97:63:72:ea:af:88:
        b5:e6:f3:d1:f1:ed:f8:13:f2:a4:a5:99:cd:22:46:29:2c:aa:
        a5:d2:19:b8:a7:0d:6f:1a:00:2d:46:a3:da:9a:9d:89:bf:e4:
        55:2d:56:36:08:ed:27:a2:4a:87:b9:fc:8e:8c:bb:88:be:1f:
        ef:91:5b:37:52:d4:19:5a:a5:32:4f:5d:e6:27:7b:af:62:20:
        a7:df:80:9c:0c:39:8b:73:2e:b5:35:80:29:06:17:37:36:0d:
        7d:82:65:4c:b2:da:ce:3f:3e:3c:8a:83:06:1f:a9:07:a2:27:
        34:fc:94:44:3c:78:bc:b6:71:99:73:b3:40:61:5d:ae:5c:04:
        e6:86:4e:cd:2f:6b:ce:f9:a8:39:4e:cf:f4:e0:99:17:6e:55:
        b6:b5:48:a1:63:bc:94:7d:f4:4f:6b:c8:07:6a:92:23:50:f2:
        74:93:21:a7:19:78:87:f4:22:52:15:a6:ee:f6:2d:8c:a2:a4:
        8a:9c:33:3d
-----BEGIN CERTIFICATE-----
MIIDeDCCAmCgAwIBAgIRAP9v/CF311rZ9ygAtXzWoKYwDQYJKoZIhvcNAQELBQAw
FjEUMBIGA1UEAwwLdGVhbTIxMy1uZXQwHhcNMjMxMTAzMjA0MzExWhcNMjYxMDE4
MjA0MzExWjAZMRcwFQYDVQQDDA50ZWFtMjEzLXNlcnZlcjCCASIwDQYJKoZIhvcN
AQEBBQADggEPADCCAQoCggEBALFmBGkp4/sSnFG+0EUv6CnoWhbZlSCoHYXKoSfH
Hd83i8/a1nvWGAk1Z367UaQlwfFogBLLzYvpEWyi5TApqTmf8f4qgHahXPa11i7R
9SV/qikTzhqoxafqeMwvsgN3THBDJob0AvkOmV2aNmdWUQuMWueV66zW+JPM0//N
pMqGE41Cvoy3zwbGcGzVZzCJxAylGXqxNWV3026b+da+DT+ZHbRAvjKpddvrRo/V
/dhDDpP8uDNVUTmJ8o2Kb30z0cBQ/UtFUTjARIGjk1PvVvFUSlpTK9NszX81mGGz
LFiLiDg7Xx11IL5b7krDklnibNkjR47vLwogni3hPGR3tPkCAwEAAaOBvTCBujAJ
BgNVHRMEAjAAMB0GA1UdDgQWBBSbksBGqWij2uzgrZT4mh63Gv1iczBRBgNVHSME
SjBIgBTTJF/FEmqjahXYDANb12GEqx+Ca6EapBgwFjEUMBIGA1UEAwwLdGVhbTIx
My1uZXSCFHfObRpwd7z7Po9kZXLs/HLJyIAyMBMGA1UdJQQMMAoGCCsGAQUFBwMB
MAsGA1UdDwQEAwIFoDAZBgNVHREEEjAQgg50ZWFtMjEzLXNlcnZlcjANBgkqhkiG
9w0BAQsFAAOCAQEAWUuRCAeF8/RrKaKxAtYQNiR+FEVIU/uNGg6FPQVkDxcY/zSc
Vffch34cuZBO3jZdXxB2+jWsHNOwodCVbNge76qIl2Ny6q+Itebz0fHt+BPypKWZ
zSJGKSyqpdIZuKcNbxoALUaj2pqdib/kVS1WNgjtJ6JKh7n8joy7iL4f75FbN1LU
GVqlMk9d5id7r2Igp9+AnAw5i3MutTWAKQYXNzYNfYJlTLLazj8+PIqDBh+pB6In
NPyURDx4vLZxmXOzQGFdrlwE5oZOzS9rzvmoOU7P9OCZF25VtrVIoWO8lH30T2vI
B2qSI1DydJMhpxl4h/QiUhWm7vYtjKKkipwzPQ==
-----END CERTIFICATE-----
