Certificate:
    Data:
        Version: 3 (0x2)
        Serial Number:
            f7:38:47:82:cf:f7:94:2d:85:f7:1a:33:00:6d:05:6b
        Signature Algorithm: sha256WithRSAEncryption
        Issuer: CN=team36-net
        Validity
            Not Before: Nov  3 20:39:53 2023 GMT
            Not After : Oct 18 20:39:53 2026 GMT
        Subject: CN=team36-client
        Subject Public Key Info:
            Public Key Algorithm: rsaEncryption
                Public-Key: (2048 bit)
                Modulus:
                    00:8c:6e:fc:fb:53:ce:67:de:bc:be:f4:a2:94:9b:
                    66:fa:97:65:9c:2d:58:89:61:9c:55:0f:e9:ba:b4:
                    1c:d2:85:a6:6b:d5:06:0b:ca:08:3a:78:8d:87:1e:
                    5e:1a:fa:c1:46:5d:68:4f:27:85:6d:ae:de:60:83:
                    99:e0:0a:54:ed:66:87:27:9e:d3:3e:65:22:a7:52:
                    a0:5c:27:26:c9:14:38:71:15:45:e7:ea:ec:6b:ea:
                    a2:22:3b:c8:51:48:76:2c:67:3f:39:37:f9:ff:df:
                    7c:c4:85:b3:6d:c6:fb:a0:e0:09:20:66:e9:3e:36:
                    6b:a8:2d:2f:d3:c3:7a:7b:f4:ed:62:b4:fd:4f:38:
                    39:98:c3:cc:13:d9:45:e3:6d:cd:d4:a6:bf:ac:00:
                    b1:e4:d0:a1:be:18:6d:8a:fd:ed:8c:dd:dc:70:71:
                    6e:90:59:c4:53:a1:9d:a8:8c:de:1a:45:fa:82:6c:
                    23:b2:e2:a7:a7:b6:79:69:50:e3:2d:3b:e1:b1:58:
                    fd:03:a6:bf:e1:af:be:f2:b8:f9:7c:3f:37:e4:c6:
                    50:7f:08:44:3b:4c:2f:b6:b0:c9:fe:68:bc:28:b8:
                    4a:c8:36:e4:62:5f:2a:de:66:8b:0a:01:64:6d:38:
                    c4:a3:6f:87:58:fb:8d:c4:58:71:14:97:45:eb:29:
                    85:5b
                Exponent: 65537 (0x10001)
        X509v3 extensions:
            X509v3 Basic Constraints: 
                CA:FALSE
            X509v3 Subject Key Identifier: 
                D8:60:B3:C0:42:E0:6F:2B:9E:8A:2C:F9:2A:2E:77:41:C1:9E:68:04
            X509v3 Authority Key Identifier: 
                keyid:AD:88:BC:89:DD:F5:CC:70:43:1D:96:BF:FC:31:39:A4:76:1C:FE:C1
                DirName:/CN=team36-net
                serial:3D:7D:BD:3D:F3:CB:2D:5F:08:09:AC:08:35:4E:6E:DE:29:C0:DA:E8
            X509v3 Extended Key Usage: 
                TLS Web Client Authentication
            X509v3 Key Usage: 
                Digital Signature
    Signature Algorithm: sha256WithRSAEncryption
    Signature Value:
        76:f5:dc:4f:cb:fa:26:ce:a8:b3:31:d8:7d:97:d3:57:72:3d:
        09:ff:72:e2:42:75:73:f3:19:b4:8e:36:f7:ed:ae:7d:cb:4c:
        53:47:eb:4e:2c:fc:5e:1a:22:48:d7:3b:bc:2a:05:59:81:3e:
        79:45:f9:27:82:14:78:20:ab:05:6c:89:8a:d0:73:68:fb:b8:
        30:84:cf:5a:36:a3:ff:e0:66:72:5d:fd:62:3b:0f:97:3c:42:
        c6:c9:d1:37:b2:19:44:41:71:64:6e:00:9e:42:ca:24:84:88:
        5b:44:f1:78:96:8e:20:60:ee:d6:a8:b3:a8:b1:c8:4f:53:dd:
        44:b5:b5:bb:c4:31:7c:b9:20:91:e0:d1:f4:1b:60:7e:e8:16:
        ff:c5:be:95:c9:5f:cf:59:45:cd:bb:11:45:83:50:20:2d:fd:
        ac:9c:83:64:ea:72:3e:2d:d1:dc:79:68:13:98:8a:72:05:9b:
        22:c0:59:b0:3d:ef:9c:fc:3e:41:55:e6:63:f7:ab:45:02:db:
        99:ba:1f:58:c8:04:8f:ed:5d:f0:ed:fa:a9:e0:3b:ba:30:81:
        47:33:9c:ff:84:45:31:46:76:2d:f0:c6:46:c0:21:26:f3:cf:
        1e:a2:32:cd:08:b2:3c:2d:8a:e6:ff:44:fc:a9:ac:57:56:c5:
        9d:fe:c5:be
-----BEGIN CERTIFICATE-----
MIIDWjCCAkKgAwIBAgIRAPc4R4LP95QthfcaMwBtBWswDQYJKoZIhvcNAQELBQAw
FTETMBEGA1UEAwwKdGVhbTM2LW5ldDAeFw0yMzExMDMyMDM5NTNaFw0yNjEwMTgy
MDM5NTNaMBgxFjAUBgNVBAMMDXRlYW0zNi1jbGllbnQwggEiMA0GCSqGSIb3DQEB
AQUAA4IBDwAwggEKAoIBAQCMbvz7U85n3ry+9KKUm2b6l2WcLViJYZxVD+m6tBzS
haZr1QYLygg6eI2HHl4a+sFGXWhPJ4Vtrt5gg5ngClTtZocnntM+ZSKnUqBcJybJ
FDhxFUXn6uxr6qIiO8hRSHYsZz85N/n/33zEhbNtxvug4AkgZuk+NmuoLS/Tw3p7
9O1itP1PODmYw8wT2UXjbc3Upr+sALHk0KG+GG2K/e2M3dxwcW6QWcRToZ2ojN4a
RfqCbCOy4qentnlpUOMtO+GxWP0Dpr/hr77yuPl8PzfkxlB/CEQ7TC+2sMn+aLwo
uErINuRiXyreZosKAWRtOMSjb4dY+43EWHEUl0XrKYVbAgMBAAGjgaEwgZ4wCQYD
VR0TBAIwADAdBgNVHQ4EFgQU2GCzwELgbyueiiz5Ki53QcGeaAQwUAYDVR0jBEkw
R4AUrYi8id31zHBDHZa//DE5pHYc/sGhGaQXMBUxEzARBgNVBAMMCnRlYW0zNi1u
ZXSCFD19vT3zyy1fCAmsCDVObt4pwNroMBMGA1UdJQQMMAoGCCsGAQUFBwMCMAsG
A1UdDwQEAwIHgDANBgkqhkiG9w0BAQsFAAOCAQEAdvXcT8v6Js6oszHYfZfTV3I9
Cf9y4kJ1c/MZtI429+2ufctMU0frTiz8XhoiSNc7vCoFWYE+eUX5J4IUeCCrBWyJ
itBzaPu4MITPWjaj/+Bmcl39YjsPlzxCxsnRN7IZREFxZG4AnkLKJISIW0TxeJaO
IGDu1qizqLHIT1PdRLW1u8QxfLkgkeDR9BtgfugW/8W+lclfz1lFzbsRRYNQIC39
rJyDZOpyPi3R3HloE5iKcgWbIsBZsD3vnPw+QVXmY/erRQLbmbofWMgEj+1d8O36
qeA7ujCBRzOc/4RFMUZ2LfDGRsAhJvPPHqIyzQiyPC2K5v9E/KmsV1bFnf7Fvg==
-----END CERTIFICATE-----
