Certificate:
    Data:
        Version: 3 (0x2)
        Serial Number:
            7f:39:ec:91:ea:be:45:1d:59:57:9d:e9:1a:71:fd:cb
        Signature Algorithm: sha256WithRSAEncryption
        Issuer: CN=team330-net
        Validity
            Not Before: Nov  3 20:45:18 2023 GMT
            Not After : Oct 18 20:45:18 2026 GMT
        Subject: CN=team330-client
        Subject Public Key Info:
            Public Key Algorithm: rsaEncryption
                Public-Key: (2048 bit)
                Modulus:
                    00:b2:2a:b6:4b:cc:05:73:fd:23:2c:26:02:36:42:
                    40:bc:58:ba:a0:7b:c5:5d:8d:a8:0e:c2:32:e1:76:
                    b0:32:de:86:28:68:91:85:55:c1:2a:49:e2:7b:4b:
                    28:a8:e2:44:26:2a:fa:32:b3:0b:18:cb:2e:91:18:
                    88:24:9a:8f:fc:40:4c:da:2c:5c:3b:5a:70:a6:76:
                    16:db:cb:e6:3b:64:bd:20:e4:6c:63:54:7a:8a:58:
                    19:da:10:5b:6c:6a:96:8c:89:08:5b:17:15:4e:df:
                    99:ce:0e:96:21:fa:d6:8d:00:6c:41:25:e9:a2:f4:
                    95:81:2c:d1:b4:83:c8:76:92:e8:ea:1b:ee:1f:c1:
                    eb:de:2f:62:c1:e3:89:d7:f1:83:78:f2:6a:20:f6:
                    b1:d4:d4:fd:25:81:1c:8e:08:5e:02:ad:b1:d6:72:
                    16:42:18:61:99:c4:a4:23:cb:9e:20:5f:fe:6d:85:
                    8a:d1:07:b0:72:12:5d:26:7e:bb:24:7a:bd:60:73:
                    4d:3a:2d:ff:8b:d9:ba:34:0e:2d:04:0d:b3:15:1e:
                    fc:06:63:93:ef:fb:cf:1f:9e:49:d7:a1:a9:53:20:
                    0b:14:84:fa:79:1e:6b:b7:05:a0:e6:97:75:a8:c0:
                    79:f9:66:62:26:00:db:93:a5:eb:24:91:60:10:ba:
                    3d:83
                Exponent: 65537 (0x10001)
        X509v3 extensions:
            X509v3 Basic Constraints: 
                CA:FALSE
            X509v3 Subject Key Identifier: 
                F8:E2:7A:F0:F9:22:DB:23:67:88:88:CC:BA:22:47:70:52:ED:A6:8B
            X509v3 Authority Key Identifier: 
                keyid:42:08:A9:66:E7:E8:99:31:46:8A:03:AA:97:09:27:FB:77:22:B4:9D
                DirName:/CN=team330-net
                serial:2E:DE:6F:A7:13:3D:ED:27:D5:DF:04:BE:A2:79:7B:C2:77:CA:A9:58
            X509v3 Extended Key Usage: 
                TLS Web Client Authentication
            X509v3 Key Usage: 
                Digital Signature
    Signature Algorithm: sha256WithRSAEncryption
    Signature Value:
        4b:91:35:7e:a0:2a:44:a4:12:de:62:1b:96:e8:cb:28:43:2d:
        98:fb:e7:b9:8f:3b:c2:5f:5c:c7:ad:9c:39:f2:a1:bb:44:a4:
        af:9a:82:5c:de:1c:f1:47:8c:33:a6:04:a7:c3:60:c9:15:26:
        d7:47:a1:c5:5d:c3:52:48:21:99:a2:1c:1d:a4:9c:22:98:8c:
        ae:8b:3f:65:e0:b6:09:7f:24:18:59:5a:81:f6:61:a7:dd:e0:
        97:cc:67:da:c3:86:a9:e4:dc:81:24:97:a0:b2:b2:23:c3:77:
        e5:da:cf:13:9e:35:20:88:58:94:d8:42:ae:09:80:ce:d8:a9:
        f0:3e:2b:1b:12:f8:20:34:77:49:b0:84:32:78:a8:e3:96:f3:
        b3:2b:4d:54:86:d5:9f:bf:f9:71:24:bb:c3:c6:7f:b6:b2:bf:
        fb:e8:15:18:c9:3c:cd:4f:d2:cb:cd:9f:bd:b9:b9:43:21:59:
        99:be:bd:9f:27:2f:38:b9:ce:0a:3b:66:4b:d1:c7:58:68:e7:
        a4:45:14:33:da:fb:84:ee:ba:44:58:32:64:c1:74:dd:87:49:
        43:14:ca:59:3e:47:0f:14:5c:11:28:3b:c6:cf:9e:8d:28:1e:
        87:03:8c:f2:77:28:27:b0:2d:92:64:70:56:06:12:45:3c:7d:
        d7:8e:a6:4e
-----BEGIN CERTIFICATE-----
MIIDXDCCAkSgAwIBAgIQfznskeq+RR1ZV53pGnH9yzANBgkqhkiG9w0BAQsFADAW
MRQwEgYDVQQDDAt0ZWFtMzMwLW5ldDAeFw0yMzExMDMyMDQ1MThaFw0yNjEwMTgy
MDQ1MThaMBkxFzAVBgNVBAMMDnRlYW0zMzAtY2xpZW50MIIBIjANBgkqhkiG9w0B
AQEFAAOCAQ8AMIIBCgKCAQEAsiq2S8wFc/0jLCYCNkJAvFi6oHvFXY2oDsIy4Xaw
Mt6GKGiRhVXBKknie0soqOJEJir6MrMLGMsukRiIJJqP/EBM2ixcO1pwpnYW28vm
O2S9IORsY1R6ilgZ2hBbbGqWjIkIWxcVTt+Zzg6WIfrWjQBsQSXpovSVgSzRtIPI
dpLo6hvuH8Hr3i9iweOJ1/GDePJqIPax1NT9JYEcjgheAq2x1nIWQhhhmcSkI8ue
IF/+bYWK0QewchJdJn67JHq9YHNNOi3/i9m6NA4tBA2zFR78BmOT7/vPH55J16Gp
UyALFIT6eR5rtwWg5pd1qMB5+WZiJgDbk6XrJJFgELo9gwIDAQABo4GiMIGfMAkG
A1UdEwQCMAAwHQYDVR0OBBYEFPjievD5ItsjZ4iIzLoiR3BS7aaLMFEGA1UdIwRK
MEiAFEIIqWbn6JkxRooDqpcJJ/t3IrSdoRqkGDAWMRQwEgYDVQQDDAt0ZWFtMzMw
LW5ldIIULt5vpxM97SfV3wS+onl7wnfKqVgwEwYDVR0lBAwwCgYIKwYBBQUHAwIw
CwYDVR0PBAQDAgeAMA0GCSqGSIb3DQEBCwUAA4IBAQBLkTV+oCpEpBLeYhuW6Mso
Qy2Y++e5jzvCX1zHrZw58qG7RKSvmoJc3hzxR4wzpgSnw2DJFSbXR6HFXcNSSCGZ
ohwdpJwimIyuiz9l4LYJfyQYWVqB9mGn3eCXzGfaw4ap5NyBJJegsrIjw3fl2s8T
njUgiFiU2EKuCYDO2KnwPisbEvggNHdJsIQyeKjjlvOzK01UhtWfv/lxJLvDxn+2
sr/76BUYyTzNT9LLzZ+9ublDIVmZvr2fJy84uc4KO2ZL0cdYaOekRRQz2vuE7rpE
WDJkwXTdh0lDFMpZPkcPFFwRKDvGz56NKB6HA4zydygnsC2SZHBWBhJFPH3XjqZO
-----END CERTIFICATE-----
