Certificate:
    Data:
        Version: 3 (0x2)
        Serial Number:
            7d:e9:5a:d9:c9:be:96:60:ae:96:f2:08:0b:33:78:af
        Signature Algorithm: sha256WithRSAEncryption
        Issuer: CN=team400-net
        Validity
            Not Before: Nov  3 20:46:28 2023 GMT
            Not After : Oct 18 20:46:28 2026 GMT
        Subject: CN=team400-client
        Subject Public Key Info:
            Public Key Algorithm: rsaEncryption
                Public-Key: (2048 bit)
                Modulus:
                    00:a0:49:3d:42:24:fd:55:68:76:52:5b:ea:0a:ea:
                    5c:ab:8f:85:54:7e:39:d6:09:ae:89:88:b5:a3:02:
                    12:0d:74:d2:58:52:15:a5:04:ab:f6:f0:1f:bf:b0:
                    70:15:79:a3:04:80:50:95:e6:f4:d9:f6:58:90:a3:
                    09:83:06:00:d9:a7:39:63:eb:49:d8:1c:03:8e:63:
                    dd:0f:8e:81:24:69:11:4a:c4:04:d3:78:29:3b:64:
                    8d:e0:bb:f4:d4:55:f7:96:38:64:a7:cb:cd:78:59:
                    41:39:ed:85:be:e8:64:1b:de:cb:4b:8c:93:99:e5:
                    f5:99:f9:b2:a6:c7:82:37:c9:f1:9a:28:22:ec:5f:
                    f1:46:91:55:02:2f:02:3d:3f:8a:39:a8:34:8d:f3:
                    28:d5:9c:07:52:35:51:66:ce:61:96:04:6b:5a:fd:
                    7e:16:d1:b6:da:4e:2a:ae:c1:b7:68:4c:73:37:20:
                    1b:68:45:51:7d:6e:14:2c:07:0c:8a:e9:d4:10:1c:
                    f5:ad:6a:3c:23:c8:7f:d2:e2:55:a9:3e:66:2f:84:
                    27:e1:8c:c0:b2:da:97:42:88:70:74:72:c2:3c:59:
                    0b:cb:53:6e:12:8f:35:cd:36:7f:8f:5b:13:34:dd:
                    03:77:b0:fa:a6:47:15:22:63:dc:58:65:97:d2:d6:
                    e0:81
                Exponent: 65537 (0x10001)
        X509v3 extensions:
            X509v3 Basic Constraints: 
                CA:FALSE
            X509v3 Subject Key Identifier: 
                AD:DD:05:70:DC:F4:BB:37:6E:3C:22:07:29:B6:84:2E:DF:9A:12:30
            X509v3 Authority Key Identifier: 
                keyid:EB:F2:B5:20:E2:E9:C3:D2:3A:7E:0D:0E:DC:C5:D0:24:3C:07:B2:07
                DirName:/CN=team400-net
                serial:7C:73:D1:E4:8F:3C:4D:42:AF:61:D2:31:3F:A4:DA:9B:C2:E3:B4:28
            X509v3 Extended Key Usage: 
                TLS Web Client Authentication
            X509v3 Key Usage: 
                Digital Signature
    Signature Algorithm: sha256WithRSAEncryption
    Signature Value:
        6a:42:1f:80:46:de:d1:49:06:0b:26:b5:01:42:88:2c:80:2e:
        dd:04:3a:c5:53:32:02:0c:ac:aa:9e:10:e6:d1:ba:4e:9c:8c:
        0b:0a:fd:34:0c:6c:4f:06:e8:fd:06:06:f5:2f:62:55:c2:f3:
        2e:74:31:85:5c:d4:3e:cf:7d:28:7c:e9:0f:2a:d3:b3:72:5d:
        b0:8f:ac:57:89:4a:2f:94:61:1b:7f:52:69:2e:92:a6:9b:5c:
        04:03:d8:4b:e2:ae:1c:29:28:c5:e0:9f:18:67:88:85:d1:a8:
        6d:ab:b5:a9:1d:8f:f9:ca:4e:55:68:54:9e:fa:3e:08:10:86:
        4a:c7:10:2a:44:e3:ef:75:6d:e5:1b:ca:37:61:50:62:e7:fa:
        0c:cb:7a:ed:d0:f8:84:4d:70:8f:ad:28:5d:e1:6a:e7:c7:89:
        e7:0c:45:99:10:2b:4b:95:2a:e5:93:94:ad:2a:35:73:39:ef:
        7a:ce:bb:bf:fd:10:36:9c:e7:62:9d:13:f3:0e:dd:29:58:b4:
        01:bf:08:db:2c:39:17:79:81:d6:da:ca:5c:ef:d7:bd:78:cc:
        ad:2a:71:c4:95:15:80:aa:43:65:1a:70:7f:1e:f3:52:8f:f1:
        20:63:8c:4a:c4:3c:d2:7d:a0:90:1d:4e:61:7d:07:70:54:ff:
        2a:87:de:e4
-----BEGIN CERTIFICATE-----
MIIDXDCCAkSgAwIBAgIQfela2cm+lmCulvIICzN4rzANBgkqhkiG9w0BAQsFADAW
MRQwEgYDVQQDDAt0ZWFtNDAwLW5ldDAeFw0yMzExMDMyMDQ2MjhaFw0yNjEwMTgy
MDQ2MjhaMBkxFzAVBgNVBAMMDnRlYW00MDAtY2xpZW50MIIBIjANBgkqhkiG9w0B
AQEFAAOCAQ8AMIIBCgKCAQEAoEk9QiT9VWh2UlvqCupcq4+FVH451gmuiYi1owIS
DXTSWFIVpQSr9vAfv7BwFXmjBIBQleb02fZYkKMJgwYA2ac5Y+tJ2BwDjmPdD46B
JGkRSsQE03gpO2SN4Lv01FX3ljhkp8vNeFlBOe2FvuhkG97LS4yTmeX1mfmypseC
N8nxmigi7F/xRpFVAi8CPT+KOag0jfMo1ZwHUjVRZs5hlgRrWv1+FtG22k4qrsG3
aExzNyAbaEVRfW4ULAcMiunUEBz1rWo8I8h/0uJVqT5mL4Qn4YzAstqXQohwdHLC
PFkLy1NuEo81zTZ/j1sTNN0Dd7D6pkcVImPcWGWX0tbggQIDAQABo4GiMIGfMAkG
A1UdEwQCMAAwHQYDVR0OBBYEFK3dBXDc9Ls3bjwiBym2hC7fmhIwMFEGA1UdIwRK
MEiAFOvytSDi6cPSOn4NDtzF0CQ8B7IHoRqkGDAWMRQwEgYDVQQDDAt0ZWFtNDAw
LW5ldIIUfHPR5I88TUKvYdIxP6Tam8LjtCgwEwYDVR0lBAwwCgYIKwYBBQUHAwIw
CwYDVR0PBAQDAgeAMA0GCSqGSIb3DQEBCwUAA4IBAQBqQh+ARt7RSQYLJrUBQogs
gC7dBDrFUzICDKyqnhDm0bpOnIwLCv00DGxPBuj9Bgb1L2JVwvMudDGFXNQ+z30o
fOkPKtOzcl2wj6xXiUovlGEbf1JpLpKmm1wEA9hL4q4cKSjF4J8YZ4iF0ahtq7Wp
HY/5yk5VaFSe+j4IEIZKxxAqROPvdW3lG8o3YVBi5/oMy3rt0PiETXCPrShd4Wrn
x4nnDEWZECtLlSrlk5StKjVzOe96zru//RA2nOdinRPzDt0pWLQBvwjbLDkXeYHW
2spc79e9eMytKnHElRWAqkNlGnB/HvNSj/EgY4xKxDzSfaCQHU5hfQdwVP8qh97k
-----END CERTIFICATE-----
