Certificate:
    Data:
        Version: 3 (0x2)
        Serial Number:
            65:b7:86:82:a4:b3:3d:9d:fd:64:b7:23:0b:e7:28:69
        Signature Algorithm: sha256WithRSAEncryption
        Issuer: CN=team376-net
        Validity
            Not Before: Nov  4 10:47:27 2023 GMT
            Not After : Oct 19 10:47:27 2026 GMT
        Subject: CN=team376-client
        Subject Public Key Info:
            Public Key Algorithm: rsaEncryption
                Public-Key: (2048 bit)
                Modulus:
                    00:a6:a2:a0:da:cd:89:d6:05:36:19:81:e4:47:b5:
                    9c:ab:80:4a:a7:f8:d0:10:53:e8:c5:f8:ab:c6:03:
                    9e:5a:f0:56:e4:6b:14:e6:40:21:a3:9c:e5:1c:ff:
                    9f:89:f8:c9:f0:08:b1:f1:57:7c:d0:6f:74:75:40:
                    28:a0:44:b3:6e:7b:3a:b0:4c:74:21:b4:7a:a1:ce:
                    11:bf:2b:ee:6a:bc:e7:74:d0:c0:fb:70:84:06:ac:
                    68:03:60:e9:ec:49:3d:13:f1:f1:40:09:6f:a7:02:
                    1c:ed:07:55:db:b8:24:eb:27:fe:c5:c7:f5:7d:9d:
                    23:2e:db:1b:26:b8:36:9e:7f:34:9f:12:80:29:58:
                    60:4d:eb:29:20:7a:79:9f:ad:1c:bd:3b:4d:25:68:
                    f7:61:6a:a6:74:78:e2:c6:fa:70:88:d6:7b:19:4f:
                    4d:06:72:fd:09:ae:34:bc:54:97:3b:64:b0:87:c6:
                    6e:1f:23:bf:f4:c8:5a:5e:b4:e5:97:a9:f4:1d:51:
                    9a:42:24:fe:5b:5c:3d:6c:62:28:0a:dc:95:b0:61:
                    df:f6:67:e5:f1:06:13:dc:a5:21:0d:45:53:01:a4:
                    08:29:9b:e1:0c:1a:c2:10:57:f2:e4:b5:ed:f2:34:
                    57:71:86:da:1a:3b:31:6b:e4:a1:35:ae:03:a0:e6:
                    56:27
                Exponent: 65537 (0x10001)
        X509v3 extensions:
            X509v3 Basic Constraints: 
                CA:FALSE
            X509v3 Subject Key Identifier: 
                53:B0:EA:0E:1D:62:54:39:FB:75:76:0C:80:35:C1:AB:71:BF:81:58
            X509v3 Authority Key Identifier: 
                keyid:3B:10:1F:CA:2E:9D:A2:31:6B:38:85:1B:EB:00:24:1B:4B:49:13:21
                DirName:/CN=team376-net
                serial:5F:86:D8:81:F7:34:69:34:4B:6C:23:62:B7:F7:F8:8D:84:80:2E:58
            X509v3 Extended Key Usage: 
                TLS Web Client Authentication
            X509v3 Key Usage: 
                Digital Signature
    Signature Algorithm: sha256WithRSAEncryption
    Signature Value:
        a0:c1:81:92:8a:f4:f4:0a:57:ff:36:99:18:92:e0:04:b9:e0:
        3a:ae:d3:8d:5b:de:3f:71:b5:19:b1:b9:64:7e:44:c8:0f:a7:
        3b:db:7d:22:60:d7:25:d9:02:08:e6:ae:b7:03:6c:e2:d6:fc:
        2b:56:9f:1c:9a:82:b9:5b:f1:0a:c0:4c:64:eb:21:d9:6c:e8:
        49:23:c8:9d:b0:f9:f5:16:3f:21:60:f8:bf:05:62:5c:13:f9:
        97:5e:ef:86:7e:54:f4:08:b0:34:8f:a7:2f:91:2f:40:23:c1:
        0d:a6:4d:85:a1:92:e1:cc:6a:30:12:fe:52:63:5f:6a:80:b0:
        88:b3:c5:34:a9:45:53:8c:83:97:d8:ee:59:ea:80:c3:c2:cc:
        0b:55:12:02:4f:b2:a9:f1:48:3a:75:07:ea:58:9a:3c:d4:b4:
        a8:68:a1:3b:dc:2b:a3:45:f0:01:96:af:33:5c:2d:34:0b:02:
        4d:e0:5a:d7:47:0c:46:07:46:e2:20:d9:e4:79:89:82:cd:14:
        86:bb:b6:b1:e1:f9:ae:3f:84:70:7a:45:6d:e0:ed:e1:6c:19:
        d2:d1:8a:ea:cf:86:61:56:e3:ca:82:4b:b5:bc:5e:f7:1c:19:
        20:93:a6:3b:3b:f6:da:19:af:72:d8:93:b0:a3:50:24:87:6d:
        87:34:a0:08
-----BEGIN CERTIFICATE-----
MIIDXDCCAkSgAwIBAgIQZbeGgqSzPZ39ZLcjC+coaTANBgkqhkiG9w0BAQsFADAW
MRQwEgYDVQQDDAt0ZWFtMzc2LW5ldDAeFw0yMzExMDQxMDQ3MjdaFw0yNjEwMTkx
MDQ3MjdaMBkxFzAVBgNVBAMMDnRlYW0zNzYtY2xpZW50MIIBIjANBgkqhkiG9w0B
AQEFAAOCAQ8AMIIBCgKCAQEApqKg2s2J1gU2GYHkR7Wcq4BKp/jQEFPoxfirxgOe
WvBW5GsU5kAho5zlHP+fifjJ8Aix8Vd80G90dUAooESzbns6sEx0IbR6oc4Rvyvu
arzndNDA+3CEBqxoA2Dp7Ek9E/HxQAlvpwIc7QdV27gk6yf+xcf1fZ0jLtsbJrg2
nn80nxKAKVhgTespIHp5n60cvTtNJWj3YWqmdHjixvpwiNZ7GU9NBnL9Ca40vFSX
O2Swh8ZuHyO/9MhaXrTll6n0HVGaQiT+W1w9bGIoCtyVsGHf9mfl8QYT3KUhDUVT
AaQIKZvhDBrCEFfy5LXt8jRXcYbaGjsxa+ShNa4DoOZWJwIDAQABo4GiMIGfMAkG
A1UdEwQCMAAwHQYDVR0OBBYEFFOw6g4dYlQ5+3V2DIA1watxv4FYMFEGA1UdIwRK
MEiAFDsQH8ounaIxaziFG+sAJBtLSRMhoRqkGDAWMRQwEgYDVQQDDAt0ZWFtMzc2
LW5ldIIUX4bYgfc0aTRLbCNit/f4jYSALlgwEwYDVR0lBAwwCgYIKwYBBQUHAwIw
CwYDVR0PBAQDAgeAMA0GCSqGSIb3DQEBCwUAA4IBAQCgwYGSivT0Clf/NpkYkuAE
ueA6rtONW94/cbUZsblkfkTID6c7230iYNcl2QII5q63A2zi1vwrVp8cmoK5W/EK
wExk6yHZbOhJI8idsPn1Fj8hYPi/BWJcE/mXXu+GflT0CLA0j6cvkS9AI8ENpk2F
oZLhzGowEv5SY19qgLCIs8U0qUVTjIOX2O5Z6oDDwswLVRICT7Kp8Ug6dQfqWJo8
1LSoaKE73CujRfABlq8zXC00CwJN4FrXRwxGB0biINnkeYmCzRSGu7ax4fmuP4Rw
ekVt4O3hbBnS0Yrqz4ZhVuPKgku1vF73HBkgk6Y7O/baGa9y2JOwo1Akh22HNKAI
-----END CERTIFICATE-----
