Certificate:
    Data:
        Version: 3 (0x2)
        Serial Number:
            67:c6:51:9c:c9:e9:6c:b4:1d:76:9e:82:a8:6f:ee:b1
        Signature Algorithm: sha256WithRSAEncryption
        Issuer: CN=team376-net
        Validity
            Not Before: Nov  4 11:35:53 2023 GMT
            Not After : Oct 19 11:35:53 2026 GMT
        Subject: CN=team376-client
        Subject Public Key Info:
            Public Key Algorithm: rsaEncryption
                Public-Key: (2048 bit)
                Modulus:
                    00:a0:78:7b:3c:3c:b7:4c:87:b5:2e:2f:30:04:22:
                    dc:b5:05:ac:80:7a:b5:1f:07:ae:c3:87:ee:44:de:
                    dc:30:f4:e4:1a:06:96:83:03:cb:2d:e7:df:5b:2c:
                    aa:31:b0:97:6b:9a:a0:ad:9c:f8:15:64:ab:48:49:
                    87:81:d2:61:56:46:bf:51:43:9f:a7:ca:5a:4e:e2:
                    b7:bc:3b:af:c3:7a:f1:a2:82:a6:4d:41:96:80:ff:
                    bd:3d:68:92:39:66:3a:a0:f7:46:44:de:8e:22:5f:
                    ab:c3:5b:ef:7f:43:90:d7:31:67:e3:3d:0a:7e:ec:
                    9b:48:4f:74:05:56:c4:6f:e6:6b:cd:ae:74:2d:5e:
                    82:35:e8:cd:8d:82:ce:1b:16:fe:f2:ac:bb:2f:a2:
                    6c:86:89:4d:10:70:e2:80:a2:22:14:09:59:46:61:
                    0b:df:90:55:97:0e:c3:24:c7:ff:5a:b8:83:c4:bd:
                    ec:eb:49:7b:e9:67:1b:61:94:bb:3f:2f:32:d5:af:
                    9e:fd:5b:40:e7:45:42:8b:12:50:b8:48:c6:ba:a9:
                    91:23:67:dd:18:35:fa:3c:32:b5:70:fc:84:5e:bd:
                    4a:13:59:ad:ac:f8:39:55:37:b0:2f:7d:6c:63:f5:
                    39:cf:2b:de:9f:ca:66:18:d0:f4:9b:11:9b:27:26:
                    9c:af
                Exponent: 65537 (0x10001)
        X509v3 extensions:
            X509v3 Basic Constraints: 
                CA:FALSE
            X509v3 Subject Key Identifier: 
                54:E8:70:0C:87:D3:72:D5:39:8D:B6:66:29:BD:B0:1D:BC:F4:60:7C
            X509v3 Authority Key Identifier: 
                keyid:FA:04:B1:59:66:8C:A8:67:75:B7:3C:61:28:45:9F:DB:C3:A7:66:0D
                DirName:/CN=team376-net
                serial:4E:DB:5D:CD:00:33:12:AB:8C:FA:7E:A6:50:74:60:BF:47:95:BC:5A
            X509v3 Extended Key Usage: 
                TLS Web Client Authentication
            X509v3 Key Usage: 
                Digital Signature
    Signature Algorithm: sha256WithRSAEncryption
    Signature Value:
        41:83:a8:47:3a:f5:b1:f1:69:c7:00:29:cc:3a:cb:b4:66:2a:
        ed:01:0b:ff:26:b6:6d:ee:74:bf:59:47:8f:01:a8:75:20:a5:
        10:37:6c:44:14:6e:4a:89:6d:94:4a:51:77:7f:92:ee:1d:88:
        4e:b7:19:9d:c3:ba:4b:62:a0:22:fb:4b:56:c1:57:6a:1f:cc:
        bf:71:ae:04:30:e5:ae:b6:13:d4:2f:eb:3c:74:33:50:de:13:
        8e:a0:ac:dd:01:5d:e9:7f:3d:89:87:78:c1:9d:19:0a:ee:5d:
        c0:25:01:88:54:fb:f6:b1:64:82:73:53:46:e2:73:43:fc:9c:
        93:99:81:b6:46:31:56:17:d0:42:fb:af:c7:ae:fe:b4:fa:7e:
        43:74:9a:c8:80:fb:a1:ef:6a:2c:e4:f6:4a:2d:65:c8:42:5c:
        cf:f6:13:11:28:df:52:00:78:a0:89:7e:92:af:ad:12:39:1b:
        61:33:e9:73:b6:09:7e:80:95:f4:65:8e:e4:ca:49:3b:f6:e3:
        0f:8d:59:dd:a8:e3:9c:d0:27:58:37:fc:c6:c0:94:08:3a:a4:
        96:a5:cc:eb:ad:ed:e7:e3:70:c2:14:32:fb:0a:1c:e8:fa:fd:
        f2:dd:c1:65:2a:8b:8f:6f:81:e7:22:da:3a:9c:96:20:cb:69:
        44:22:a2:ba
-----BEGIN CERTIFICATE-----
MIIDXDCCAkSgAwIBAgIQZ8ZRnMnpbLQddp6CqG/usTANBgkqhkiG9w0BAQsFADAW
MRQwEgYDVQQDDAt0ZWFtMzc2LW5ldDAeFw0yMzExMDQxMTM1NTNaFw0yNjEwMTkx
MTM1NTNaMBkxFzAVBgNVBAMMDnRlYW0zNzYtY2xpZW50MIIBIjANBgkqhkiG9w0B
AQEFAAOCAQ8AMIIBCgKCAQEAoHh7PDy3TIe1Li8wBCLctQWsgHq1Hweuw4fuRN7c
MPTkGgaWgwPLLeffWyyqMbCXa5qgrZz4FWSrSEmHgdJhVka/UUOfp8paTuK3vDuv
w3rxooKmTUGWgP+9PWiSOWY6oPdGRN6OIl+rw1vvf0OQ1zFn4z0KfuybSE90BVbE
b+Zrza50LV6CNejNjYLOGxb+8qy7L6JsholNEHDigKIiFAlZRmEL35BVlw7DJMf/
WriDxL3s60l76WcbYZS7Py8y1a+e/VtA50VCixJQuEjGuqmRI2fdGDX6PDK1cPyE
Xr1KE1mtrPg5VTewL31sY/U5zyven8pmGND0mxGbJyacrwIDAQABo4GiMIGfMAkG
A1UdEwQCMAAwHQYDVR0OBBYEFFTocAyH03LVOY22Zim9sB289GB8MFEGA1UdIwRK
MEiAFPoEsVlmjKhndbc8YShFn9vDp2YNoRqkGDAWMRQwEgYDVQQDDAt0ZWFtMzc2
LW5ldIIUTttdzQAzEquM+n6mUHRgv0eVvFowEwYDVR0lBAwwCgYIKwYBBQUHAwIw
CwYDVR0PBAQDAgeAMA0GCSqGSIb3DQEBCwUAA4IBAQBBg6hHOvWx8WnHACnMOsu0
ZirtAQv/JrZt7nS/WUePAah1IKUQN2xEFG5KiW2USlF3f5LuHYhOtxmdw7pLYqAi
+0tWwVdqH8y/ca4EMOWuthPUL+s8dDNQ3hOOoKzdAV3pfz2Jh3jBnRkK7l3AJQGI
VPv2sWSCc1NG4nND/JyTmYG2RjFWF9BC+6/Hrv60+n5DdJrIgPuh72os5PZKLWXI
QlzP9hMRKN9SAHigiX6Sr60SORthM+lztgl+gJX0ZY7kykk79uMPjVndqOOc0CdY
N/zGwJQIOqSWpczrre3n43DCFDL7Chzo+v3y3cFlKouPb4HnIto6nJYgy2lEIqK6
-----END CERTIFICATE-----
