Certificate:
    Data:
        Version: 3 (0x2)
        Serial Number:
            c5:68:c4:f4:a3:27:ce:a4:cf:78:f4:3e:97:c3:59:cc
        Signature Algorithm: sha256WithRSAEncryption
        Issuer: CN=team376-net
        Validity
            Not Before: Nov  3 20:46:03 2023 GMT
            Not After : Oct 18 20:46:03 2026 GMT
        Subject: CN=team376-client
        Subject Public Key Info:
            Public Key Algorithm: rsaEncryption
                Public-Key: (2048 bit)
                Modulus:
                    00:9c:44:8b:c5:b1:1b:2b:1c:88:81:7a:51:77:77:
                    19:2e:bf:b3:d9:3a:04:bd:7e:4a:47:1d:ee:dd:74:
                    f0:63:97:39:73:1b:dc:9d:12:d2:19:8d:b7:a1:52:
                    a7:87:a5:65:2b:a5:e7:31:62:3a:51:14:63:e3:0f:
                    36:7c:88:2d:fa:40:87:f2:c4:22:e5:6f:db:5b:a3:
                    47:73:b7:7f:a9:33:3e:42:79:54:74:0a:a7:66:bb:
                    b1:8c:fe:44:6f:0e:38:d0:26:4e:54:f4:4e:fb:4a:
                    f4:dd:99:1a:bc:d8:bb:fe:d1:ed:ac:1d:a5:99:67:
                    c7:fb:f1:1d:f3:34:03:5e:73:10:4c:d5:e9:b4:fa:
                    27:7e:53:e1:5f:ab:4f:55:d2:7e:f8:14:79:21:12:
                    63:e0:fd:c0:7b:76:a1:76:0f:4e:20:b4:99:7c:62:
                    77:3a:f5:62:c5:3e:8b:96:38:6a:29:dd:37:12:49:
                    c2:2f:bc:18:d1:1d:e6:d9:b1:c0:00:aa:a2:c4:af:
                    fa:c0:67:47:59:a1:c9:6f:03:15:6a:99:64:cf:72:
                    20:82:be:cf:d9:83:32:08:4c:65:46:ee:81:5b:4a:
                    1f:c3:6d:3e:19:42:37:d5:1a:a1:53:cb:d0:99:51:
                    ae:53:d4:50:9d:83:c0:ec:f1:bd:de:25:63:0f:7b:
                    22:5b
                Exponent: 65537 (0x10001)
        X509v3 extensions:
            X509v3 Basic Constraints: 
                CA:FALSE
            X509v3 Subject Key Identifier: 
                F5:60:15:BF:EA:AE:A1:FD:4F:3E:78:50:F5:65:8B:6E:CF:F3:38:A9
            X509v3 Authority Key Identifier: 
                keyid:F4:9B:1D:75:75:68:44:C5:EC:3F:44:7E:2D:50:F0:99:28:97:88:7B
                DirName:/CN=team376-net
                serial:13:E3:3C:04:51:A0:70:BF:B5:75:A9:98:59:B6:07:9F:35:58:3B:33
            X509v3 Extended Key Usage: 
                TLS Web Client Authentication
            X509v3 Key Usage: 
                Digital Signature
    Signature Algorithm: sha256WithRSAEncryption
    Signature Value:
        06:dd:13:46:0a:07:b6:bb:37:3b:7d:05:6f:5b:2a:cd:71:ea:
        74:ed:04:8d:63:ab:34:a8:0a:c2:15:da:b8:bd:c5:04:d5:40:
        26:cf:ca:64:db:22:4f:98:d2:82:f6:ca:c9:89:07:08:7d:a3:
        f7:ab:a2:b7:16:07:c1:24:97:f9:f4:f4:84:14:6e:08:b7:32:
        f3:b8:dc:83:c8:6e:2b:80:ff:0f:bc:f9:e1:a6:bd:60:f5:31:
        e7:29:8a:41:69:1d:a8:9d:6c:f9:72:76:4e:6c:e5:5d:4b:80:
        bd:19:69:9e:91:28:d5:d7:3f:fe:49:35:7e:ab:6b:22:1c:be:
        a1:60:ea:fb:6d:94:77:9c:55:e8:d2:48:b6:a9:43:7e:96:27:
        71:b5:b8:2f:41:69:cb:5f:e7:e5:4a:4e:6c:b7:dd:31:be:99:
        a9:90:bb:0a:a9:b3:a5:e4:09:0a:9c:15:61:da:fc:f2:97:18:
        81:43:ff:87:da:76:8d:fc:64:c1:30:1c:1f:d3:df:14:55:3c:
        fe:07:5e:e6:0d:32:be:02:48:c8:fb:f8:05:05:a6:3d:86:00:
        cd:2a:4e:fc:11:93:14:ce:b0:fb:27:35:32:d2:c3:f4:f2:a9:
        cf:99:41:05:ad:75:5f:be:52:3a:80:cd:6f:6b:28:2f:94:91:
        8c:4b:53:60
-----BEGIN CERTIFICATE-----
MIIDXTCCAkWgAwIBAgIRAMVoxPSjJ86kz3j0PpfDWcwwDQYJKoZIhvcNAQELBQAw
FjEUMBIGA1UEAwwLdGVhbTM3Ni1uZXQwHhcNMjMxMTAzMjA0NjAzWhcNMjYxMDE4
MjA0NjAzWjAZMRcwFQYDVQQDDA50ZWFtMzc2LWNsaWVudDCCASIwDQYJKoZIhvcN
AQEBBQADggEPADCCAQoCggEBAJxEi8WxGysciIF6UXd3GS6/s9k6BL1+Skcd7t10
8GOXOXMb3J0S0hmNt6FSp4elZSul5zFiOlEUY+MPNnyILfpAh/LEIuVv21ujR3O3
f6kzPkJ5VHQKp2a7sYz+RG8OONAmTlT0TvtK9N2ZGrzYu/7R7awdpZlnx/vxHfM0
A15zEEzV6bT6J35T4V+rT1XSfvgUeSESY+D9wHt2oXYPTiC0mXxidzr1YsU+i5Y4
aindNxJJwi+8GNEd5tmxwACqosSv+sBnR1mhyW8DFWqZZM9yIIK+z9mDMghMZUbu
gVtKH8NtPhlCN9UaoVPL0JlRrlPUUJ2DwOzxvd4lYw97IlsCAwEAAaOBojCBnzAJ
BgNVHRMEAjAAMB0GA1UdDgQWBBT1YBW/6q6h/U8+eFD1ZYtuz/M4qTBRBgNVHSME
SjBIgBT0mx11dWhExew/RH4tUPCZKJeIe6EapBgwFjEUMBIGA1UEAwwLdGVhbTM3
Ni1uZXSCFBPjPARRoHC/tXWpmFm2B581WDszMBMGA1UdJQQMMAoGCCsGAQUFBwMC
MAsGA1UdDwQEAwIHgDANBgkqhkiG9w0BAQsFAAOCAQEABt0TRgoHtrs3O30Fb1sq
zXHqdO0EjWOrNKgKwhXauL3FBNVAJs/KZNsiT5jSgvbKyYkHCH2j96uitxYHwSSX
+fT0hBRuCLcy87jcg8huK4D/D7z54aa9YPUx5ymKQWkdqJ1s+XJ2TmzlXUuAvRlp
npEo1dc//kk1fqtrIhy+oWDq+22Ud5xV6NJItqlDfpYncbW4L0Fpy1/n5UpObLfd
Mb6ZqZC7CqmzpeQJCpwVYdr88pcYgUP/h9p2jfxkwTAcH9PfFFU8/gde5g0yvgJI
yPv4BQWmPYYAzSpO/BGTFM6w+yc1MtLD9PKpz5lBBa11X75SOoDNb2soL5SRjEtT
YA==
-----END CERTIFICATE-----
