Certificate:
    Data:
        Version: 3 (0x2)
        Serial Number:
            ac:50:00:aa:b1:a9:c0:dc:04:39:dd:ff:00:14:fd:ee
        Signature Algorithm: sha256WithRSAEncryption
        Issuer: CN=team68-net
        Validity
            Not Before: Nov  3 20:40:25 2023 GMT
            Not After : Oct 18 20:40:25 2026 GMT
        Subject: CN=team68-server
        Subject Public Key Info:
            Public Key Algorithm: rsaEncryption
                Public-Key: (2048 bit)
                Modulus:
                    00:ec:0b:b6:da:44:0d:6d:a8:36:45:57:72:a7:97:
                    9c:09:e8:ca:8f:25:c9:78:64:25:6e:65:ee:11:48:
                    70:06:03:3a:f6:6f:a3:4b:3b:55:01:7f:2e:e2:2a:
                    df:6d:be:c4:e6:87:ac:67:1a:79:a0:d9:db:d9:ac:
                    16:d5:30:e8:46:e7:a4:24:8e:3f:2e:9d:55:12:c6:
                    d2:b8:b7:ab:e6:a5:a8:11:73:b9:f4:ab:88:ff:40:
                    e9:71:3d:82:e7:f0:6d:3e:7c:68:47:eb:0a:33:bb:
                    0a:6f:9f:1c:16:6f:6f:f0:0f:c3:ca:87:90:f6:a4:
                    6d:12:46:07:60:de:6a:75:6b:98:7d:36:c7:0a:17:
                    b7:fe:0a:2c:09:75:61:01:4c:c6:f1:d2:75:b2:0a:
                    3f:26:a0:a5:d1:5b:81:0e:7f:8e:36:3e:8e:be:61:
                    d6:9e:dc:3f:69:3c:27:fa:6d:2e:cf:e9:ab:7c:f5:
                    2a:39:dd:42:59:fc:d1:a0:7b:71:d0:57:ae:ca:83:
                    8e:99:5f:e1:5c:b8:ae:9e:19:73:ab:16:6a:1d:67:
                    a9:70:1a:5d:55:2e:be:05:c6:8e:4e:37:46:21:df:
                    11:26:ee:20:4d:83:70:ab:70:93:2c:9b:40:9a:bd:
                    66:0a:07:e1:05:a7:31:fb:ed:2d:6f:58:36:cf:19:
                    22:75
                Exponent: 65537 (0x10001)
        X509v3 extensions:
            X509v3 Basic Constraints: 
                CA:FALSE
            X509v3 Subject Key Identifier: 
                19:39:AB:34:43:69:5D:52:F0:4B:39:A3:E9:20:FD:90:9D:BB:6F:43
            X509v3 Authority Key Identifier: 
                keyid:43:2E:1E:72:D6:7F:98:11:21:6B:9B:2C:6E:FD:A1:5D:5F:1C:F2:6B
                DirName:/CN=team68-net
                serial:5D:7F:DC:E4:6B:C7:0F:E9:AD:E6:4C:FC:49:DA:5C:A3:11:3A:0C:E8
            X509v3 Extended Key Usage: 
                TLS Web Server Authentication
            X509v3 Key Usage: 
                Digital Signature, Key Encipherment
            X509v3 Subject Alternative Name: 
                DNS:team68-server
    Signature Algorithm: sha256WithRSAEncryption
    Signature Value:
        ac:f3:77:1b:7a:fe:1b:f4:3a:07:01:05:b5:c7:84:1b:a3:5f:
        2f:ed:31:e8:3c:ed:13:7b:f4:d6:ef:80:44:fb:c8:7b:17:ff:
        d3:d9:75:93:f9:3e:90:bc:1b:48:25:30:2a:98:03:b7:39:14:
        89:65:bf:e6:a5:81:0a:c6:76:24:e7:7a:fb:44:87:d0:ab:fb:
        82:ce:74:45:94:1e:f9:7c:64:c4:be:a9:29:05:45:87:3d:bb:
        1e:ab:9e:92:b1:71:f8:51:46:f5:7e:18:7b:48:00:b6:84:ef:
        04:39:3b:76:18:55:5f:5e:e6:e2:d3:66:fa:60:38:bb:cd:35:
        b6:35:9c:fe:61:03:ac:1d:78:b6:9d:de:f9:a5:86:7a:e7:e4:
        7c:4a:7e:35:94:53:d1:23:fa:43:6b:11:a9:ca:3b:38:7d:99:
        13:cd:f3:6a:66:46:b4:24:ea:6c:74:11:08:5a:16:40:b2:61:
        e1:00:69:0d:b5:0f:14:5d:c6:3a:b8:93:5b:7a:59:c9:34:b1:
        6c:ea:aa:e6:9d:33:72:d5:73:ee:19:70:e6:b3:a2:03:e0:4a:
        b0:ef:16:f1:33:48:10:2e:6c:2e:d4:b0:3c:37:03:59:a1:bb:
        28:22:91:79:46:29:11:91:87:39:34:48:a0:fd:6b:2f:30:e0:
        6a:a7:eb:aa
-----BEGIN CERTIFICATE-----
MIIDdDCCAlygAwIBAgIRAKxQAKqxqcDcBDnd/wAU/e4wDQYJKoZIhvcNAQELBQAw
FTETMBEGA1UEAwwKdGVhbTY4LW5ldDAeFw0yMzExMDMyMDQwMjVaFw0yNjEwMTgy
MDQwMjVaMBgxFjAUBgNVBAMMDXRlYW02OC1zZXJ2ZXIwggEiMA0GCSqGSIb3DQEB
AQUAA4IBDwAwggEKAoIBAQDsC7baRA1tqDZFV3Knl5wJ6MqPJcl4ZCVuZe4RSHAG
Azr2b6NLO1UBfy7iKt9tvsTmh6xnGnmg2dvZrBbVMOhG56Qkjj8unVUSxtK4t6vm
pagRc7n0q4j/QOlxPYLn8G0+fGhH6wozuwpvnxwWb2/wD8PKh5D2pG0SRgdg3mp1
a5h9NscKF7f+CiwJdWEBTMbx0nWyCj8moKXRW4EOf442Po6+Ydae3D9pPCf6bS7P
6at89So53UJZ/NGge3HQV67Kg46ZX+FcuK6eGXOrFmodZ6lwGl1VLr4Fxo5ON0Yh
3xEm7iBNg3CrcJMsm0CavWYKB+EFpzH77S1vWDbPGSJ1AgMBAAGjgbswgbgwCQYD
VR0TBAIwADAdBgNVHQ4EFgQUGTmrNENpXVLwSzmj6SD9kJ27b0MwUAYDVR0jBEkw
R4AUQy4ectZ/mBEha5ssbv2hXV8c8muhGaQXMBUxEzARBgNVBAMMCnRlYW02OC1u
ZXSCFF1/3ORrxw/preZM/EnaXKMROgzoMBMGA1UdJQQMMAoGCCsGAQUFBwMBMAsG
A1UdDwQEAwIFoDAYBgNVHREEETAPgg10ZWFtNjgtc2VydmVyMA0GCSqGSIb3DQEB
CwUAA4IBAQCs83cbev4b9DoHAQW1x4Qbo18v7THoPO0Te/TW74BE+8h7F//T2XWT
+T6QvBtIJTAqmAO3ORSJZb/mpYEKxnYk53r7RIfQq/uCznRFlB75fGTEvqkpBUWH
Pbseq56SsXH4UUb1fhh7SAC2hO8EOTt2GFVfXubi02b6YDi7zTW2NZz+YQOsHXi2
nd75pYZ65+R8Sn41lFPRI/pDaxGpyjs4fZkTzfNqZka0JOpsdBEIWhZAsmHhAGkN
tQ8UXcY6uJNbelnJNLFs6qrmnTNy1XPuGXDms6ID4Eqw7xbxM0gQLmwu1LA8NwNZ
obsoIpF5RikRkYc5NEig/WsvMOBqp+uq
-----END CERTIFICATE-----
