Certificate:
    Data:
        Version: 3 (0x2)
        Serial Number:
            31:09:f3:60:27:9e:b4:6b:2f:e6:fd:37:9b:d7:95:59
        Signature Algorithm: sha256WithRSAEncryption
        Issuer: CN=team489-net
        Validity
            Not Before: Nov  4 11:38:41 2023 GMT
            Not After : Oct 19 11:38:41 2026 GMT
        Subject: CN=team489-server
        Subject Public Key Info:
            Public Key Algorithm: rsaEncryption
                Public-Key: (2048 bit)
                Modulus:
                    00:bc:d2:42:33:6f:af:67:16:a2:8e:47:bc:56:85:
                    16:b7:b9:c4:51:04:a3:bb:73:55:95:c1:a5:35:23:
                    d7:71:d6:0b:64:3b:63:f2:fc:ce:f5:fe:d9:fc:d5:
                    06:11:ae:61:dd:35:52:a3:f6:9a:ed:11:5d:2e:ce:
                    20:4e:b5:3a:87:7b:f1:25:a0:a8:52:f9:31:5c:33:
                    3e:d7:2a:83:fc:1b:b4:18:23:48:e5:82:ed:17:ab:
                    c6:ca:98:ee:78:cc:52:cc:19:a4:d0:25:b2:3a:bb:
                    86:ca:e9:10:90:94:a2:fa:f0:d6:94:12:0a:97:70:
                    00:bb:9f:e6:3b:d5:21:67:a2:c3:85:68:2a:80:bb:
                    f1:89:17:5f:33:28:41:b4:17:19:5d:db:8c:d0:13:
                    76:91:7f:13:32:e9:66:1e:7d:7f:53:7f:0f:df:3c:
                    87:de:05:d0:39:ef:53:19:7d:50:7f:c3:2b:41:05:
                    94:18:7d:c2:d7:a4:f9:25:cf:bd:03:ba:d0:21:d1:
                    69:cc:72:e4:81:78:3b:4f:ce:31:06:07:0c:35:a1:
                    6d:99:68:68:95:88:ec:95:26:52:ce:df:5c:59:e4:
                    8b:7b:06:98:fd:41:51:01:88:2c:e5:d4:c1:3c:fa:
                    77:eb:8d:04:24:91:7f:54:99:48:ce:ea:51:bb:f9:
                    9a:77
                Exponent: 65537 (0x10001)
        X509v3 extensions:
            X509v3 Basic Constraints: 
                CA:FALSE
            X509v3 Subject Key Identifier: 
                86:9D:D2:96:86:2A:62:14:3B:A8:B2:CE:2A:48:6A:9E:E2:2C:D8:B5
            X509v3 Authority Key Identifier: 
                keyid:8A:27:61:9A:D1:52:7F:75:E3:A9:0D:A1:1F:45:F1:7D:D6:5C:61:84
                DirName:/CN=team489-net
                serial:05:3E:C8:4F:AF:56:63:1B:C6:15:15:94:F6:6B:0D:77:63:AE:AE:8C
            X509v3 Extended Key Usage: 
                TLS Web Server Authentication
            X509v3 Key Usage: 
                Digital Signature, Key Encipherment
            X509v3 Subject Alternative Name: 
                DNS:team489-server
    Signature Algorithm: sha256WithRSAEncryption
    Signature Value:
        39:60:b7:c5:83:9d:dd:d8:a4:49:9c:3b:67:b1:2b:aa:83:a6:
        f3:14:12:8e:8a:36:1a:b5:fb:99:a6:11:c8:10:44:cd:9a:7c:
        e0:09:87:53:1f:ed:79:a9:e1:13:26:17:04:ba:59:ef:2f:43:
        96:69:07:57:03:83:28:e7:f8:c5:d7:74:79:52:06:a6:87:42:
        47:34:8e:9d:b7:60:54:04:35:13:c5:21:7b:e5:ee:c0:51:92:
        ba:c2:c6:af:90:3b:06:a2:5d:04:51:4e:1b:a4:30:f1:cb:29:
        b2:da:98:bc:81:a6:11:d9:0e:3c:80:da:fe:ec:e1:1f:b5:d3:
        5a:11:7f:0d:13:cb:d7:36:de:73:de:7b:d5:d3:2f:e8:b6:ef:
        0c:24:1e:28:db:90:0e:00:ac:b3:f8:42:c7:93:c5:00:c9:b7:
        f7:96:0a:a5:77:78:e8:44:e8:07:a6:70:40:9d:a9:cd:8b:6c:
        cd:91:ae:74:1b:1e:a9:d0:19:2b:ec:33:12:88:f8:53:db:a1:
        08:00:b5:2e:07:56:1e:90:95:1e:79:c8:10:70:18:9a:77:3e:
        77:e2:ae:95:3a:ae:bd:86:87:38:d5:c7:ac:3d:e8:47:80:c9:
        91:7b:d4:3b:6d:3d:c8:a1:25:bc:d2:bd:3a:9b:bb:e3:98:88:
        e8:68:b5:96
-----BEGIN CERTIFICATE-----
MIIDdzCCAl+gAwIBAgIQMQnzYCeetGsv5v03m9eVWTANBgkqhkiG9w0BAQsFADAW
MRQwEgYDVQQDDAt0ZWFtNDg5LW5ldDAeFw0yMzExMDQxMTM4NDFaFw0yNjEwMTkx
MTM4NDFaMBkxFzAVBgNVBAMMDnRlYW00ODktc2VydmVyMIIBIjANBgkqhkiG9w0B
AQEFAAOCAQ8AMIIBCgKCAQEAvNJCM2+vZxaijke8VoUWt7nEUQSju3NVlcGlNSPX
cdYLZDtj8vzO9f7Z/NUGEa5h3TVSo/aa7RFdLs4gTrU6h3vxJaCoUvkxXDM+1yqD
/Bu0GCNI5YLtF6vGypjueMxSzBmk0CWyOruGyukQkJSi+vDWlBIKl3AAu5/mO9Uh
Z6LDhWgqgLvxiRdfMyhBtBcZXduM0BN2kX8TMulmHn1/U38P3zyH3gXQOe9TGX1Q
f8MrQQWUGH3C16T5Jc+9A7rQIdFpzHLkgXg7T84xBgcMNaFtmWholYjslSZSzt9c
WeSLewaY/UFRAYgs5dTBPPp3640EJJF/VJlIzupRu/madwIDAQABo4G9MIG6MAkG
A1UdEwQCMAAwHQYDVR0OBBYEFIad0paGKmIUO6iyzipIap7iLNi1MFEGA1UdIwRK
MEiAFIonYZrRUn9146kNoR9F8X3WXGGEoRqkGDAWMRQwEgYDVQQDDAt0ZWFtNDg5
LW5ldIIUBT7IT69WYxvGFRWU9msNd2OurowwEwYDVR0lBAwwCgYIKwYBBQUHAwEw
CwYDVR0PBAQDAgWgMBkGA1UdEQQSMBCCDnRlYW00ODktc2VydmVyMA0GCSqGSIb3
DQEBCwUAA4IBAQA5YLfFg53d2KRJnDtnsSuqg6bzFBKOijYatfuZphHIEETNmnzg
CYdTH+15qeETJhcEulnvL0OWaQdXA4Mo5/jF13R5Ugamh0JHNI6dt2BUBDUTxSF7
5e7AUZK6wsavkDsGol0EUU4bpDDxyymy2pi8gaYR2Q48gNr+7OEftdNaEX8NE8vX
Nt5z3nvV0y/otu8MJB4o25AOAKyz+ELHk8UAybf3lgqld3joROgHpnBAnanNi2zN
ka50Gx6p0Bkr7DMSiPhT26EIALUuB1YekJUeecgQcBiadz534q6VOq69hoc41ces
PehHgMmRe9Q7bT3IoSW80r06m7vjmIjoaLWW
-----END CERTIFICATE-----
