Certificate:
    Data:
        Version: 3 (0x2)
        Serial Number:
            49:27:c0:c7:13:35:fc:20:b5:c1:81:9e:ba:14:c3:2e
        Signature Algorithm: sha256WithRSAEncryption
        Issuer: CN=team489-net
        Validity
            Not Before: Nov  4 11:38:40 2023 GMT
            Not After : Oct 19 11:38:40 2026 GMT
        Subject: CN=team489-client
        Subject Public Key Info:
            Public Key Algorithm: rsaEncryption
                Public-Key: (2048 bit)
                Modulus:
                    00:b5:a8:67:80:61:e7:8e:79:69:91:8e:41:60:b2:
                    e2:71:54:f8:b0:95:f4:55:32:fc:0f:f0:44:c9:91:
                    7e:25:85:64:7e:29:26:ea:3f:93:c9:86:e4:84:c0:
                    01:ec:38:29:93:67:0f:7e:dd:69:ea:14:33:66:90:
                    ff:05:eb:4d:f9:6e:f7:28:32:83:31:ab:c3:2c:8c:
                    19:20:ef:54:35:1a:d1:dc:ba:ba:05:cc:50:9e:af:
                    79:ff:f7:44:2e:4e:8f:11:8f:c8:99:67:9c:fe:56:
                    35:81:fa:98:02:e5:73:b2:d6:5f:da:1f:77:55:c8:
                    b6:cb:04:22:82:32:98:70:41:18:0a:76:72:fb:74:
                    84:4e:e4:b7:9f:92:53:97:69:68:2b:8d:50:84:a2:
                    8a:7b:2e:e5:52:d0:52:fe:3d:1a:f9:50:2e:90:16:
                    c8:92:e4:87:da:17:2d:c0:85:24:c7:be:f3:48:13:
                    2a:02:5d:d6:5a:39:aa:ad:42:b5:86:0f:11:9f:3e:
                    7b:be:5e:22:a9:76:9e:9d:49:4a:a9:e1:13:a8:f5:
                    6a:84:de:75:56:67:0e:6b:35:bd:3d:f0:37:26:e5:
                    09:e6:9c:4a:47:d7:82:a7:35:e7:d8:9c:b9:4d:35:
                    71:db:e9:4a:8c:1d:43:ae:54:d1:1e:11:cf:98:88:
                    8a:61
                Exponent: 65537 (0x10001)
        X509v3 extensions:
            X509v3 Basic Constraints: 
                CA:FALSE
            X509v3 Subject Key Identifier: 
                67:F4:E1:71:60:08:6A:CE:0B:E8:C7:DE:C3:70:A8:19:B1:CD:67:24
            X509v3 Authority Key Identifier: 
                keyid:8A:27:61:9A:D1:52:7F:75:E3:A9:0D:A1:1F:45:F1:7D:D6:5C:61:84
                DirName:/CN=team489-net
                serial:05:3E:C8:4F:AF:56:63:1B:C6:15:15:94:F6:6B:0D:77:63:AE:AE:8C
            X509v3 Extended Key Usage: 
                TLS Web Client Authentication
            X509v3 Key Usage: 
                Digital Signature
    Signature Algorithm: sha256WithRSAEncryption
    Signature Value:
        0b:02:e6:2f:5d:f5:bc:f9:b7:2d:29:18:a3:e3:24:a1:70:04:
        e8:2c:2a:1c:0b:05:13:ff:6f:d7:4c:23:b1:94:a2:63:67:49:
        6c:3d:25:f4:5c:d6:36:68:dc:c0:82:13:ee:4e:f3:c2:97:49:
        cf:4e:c6:e7:fa:14:7f:d1:64:19:a9:88:d9:c5:8c:56:42:8e:
        57:5e:40:97:5e:63:a7:75:c9:b8:91:2d:a6:98:df:9e:79:af:
        25:d1:f4:4a:fa:a9:37:49:1e:37:58:ba:51:6e:08:97:a4:52:
        43:da:63:51:1a:dc:ca:da:4f:47:e3:86:0c:ac:ab:ae:2f:8e:
        79:66:19:a7:46:c0:55:01:5f:b2:01:f7:8e:91:98:43:22:f4:
        7b:d2:58:78:5f:7a:3b:82:5c:f7:01:9d:fb:c6:e3:c1:e7:9a:
        7e:0b:33:b4:d1:a6:39:44:d5:49:8d:e5:1c:38:c6:4d:97:29:
        fb:f6:ec:61:07:71:1c:82:d9:23:d2:11:b4:47:47:d2:bb:36:
        b3:af:5f:46:5a:6c:a7:d8:73:16:05:8b:05:2e:af:77:8f:97:
        05:0a:5b:33:5e:19:80:15:3b:d1:4a:bb:0f:08:4d:ee:9b:91:
        d7:f0:52:cd:38:d9:1c:20:d1:1e:4a:f6:bd:ad:fc:6e:9e:7d:
        6f:1a:9f:b2
-----BEGIN CERTIFICATE-----
MIIDXDCCAkSgAwIBAgIQSSfAxxM1/CC1wYGeuhTDLjANBgkqhkiG9w0BAQsFADAW
MRQwEgYDVQQDDAt0ZWFtNDg5LW5ldDAeFw0yMzExMDQxMTM4NDBaFw0yNjEwMTkx
MTM4NDBaMBkxFzAVBgNVBAMMDnRlYW00ODktY2xpZW50MIIBIjANBgkqhkiG9w0B
AQEFAAOCAQ8AMIIBCgKCAQEAtahngGHnjnlpkY5BYLLicVT4sJX0VTL8D/BEyZF+
JYVkfikm6j+TyYbkhMAB7Dgpk2cPft1p6hQzZpD/BetN+W73KDKDMavDLIwZIO9U
NRrR3Lq6BcxQnq95//dELk6PEY/ImWec/lY1gfqYAuVzstZf2h93Vci2ywQigjKY
cEEYCnZy+3SETuS3n5JTl2loK41QhKKKey7lUtBS/j0a+VAukBbIkuSH2hctwIUk
x77zSBMqAl3WWjmqrUK1hg8Rnz57vl4iqXaenUlKqeETqPVqhN51VmcOazW9PfA3
JuUJ5pxKR9eCpzXn2Jy5TTVx2+lKjB1DrlTRHhHPmIiKYQIDAQABo4GiMIGfMAkG
A1UdEwQCMAAwHQYDVR0OBBYEFGf04XFgCGrOC+jH3sNwqBmxzWckMFEGA1UdIwRK
MEiAFIonYZrRUn9146kNoR9F8X3WXGGEoRqkGDAWMRQwEgYDVQQDDAt0ZWFtNDg5
LW5ldIIUBT7IT69WYxvGFRWU9msNd2OurowwEwYDVR0lBAwwCgYIKwYBBQUHAwIw
CwYDVR0PBAQDAgeAMA0GCSqGSIb3DQEBCwUAA4IBAQALAuYvXfW8+bctKRij4ySh
cAToLCocCwUT/2/XTCOxlKJjZ0lsPSX0XNY2aNzAghPuTvPCl0nPTsbn+hR/0WQZ
qYjZxYxWQo5XXkCXXmOndcm4kS2mmN+eea8l0fRK+qk3SR43WLpRbgiXpFJD2mNR
GtzK2k9H44YMrKuuL455ZhmnRsBVAV+yAfeOkZhDIvR70lh4X3o7glz3AZ37xuPB
55p+CzO00aY5RNVJjeUcOMZNlyn79uxhB3Ecgtkj0hG0R0fSuzazr19GWmyn2HMW
BYsFLq93j5cFClszXhmAFTvRSrsPCE3um5HX8FLNONkcINEeSva9rfxunn1vGp+y
-----END CERTIFICATE-----
