Certificate:
    Data:
        Version: 3 (0x2)
        Serial Number:
            55:3d:87:72:36:2e:b0:31:62:b3:c7:32:d5:ce:27:34
        Signature Algorithm: sha256WithRSAEncryption
        Issuer: CN=team489-net
        Validity
            Not Before: Nov  3 20:48:11 2023 GMT
            Not After : Oct 18 20:48:11 2026 GMT
        Subject: CN=team489-client
        Subject Public Key Info:
            Public Key Algorithm: rsaEncryption
                Public-Key: (2048 bit)
                Modulus:
                    00:ac:6a:63:2a:cc:72:8e:c6:cf:3e:d8:b7:cd:0e:
                    32:9e:2f:ad:f1:58:2a:c1:45:f0:f8:b9:1f:73:a0:
                    32:e6:2a:b0:a9:e8:14:55:8e:41:e6:93:41:9f:0f:
                    36:16:de:81:68:bc:b7:62:ef:50:5d:62:a9:64:17:
                    21:c8:b9:fd:8c:37:2b:76:c6:7b:9d:1d:ef:3f:e5:
                    5e:f1:0f:c5:62:1e:b8:a8:7c:90:9b:97:54:b5:cd:
                    8f:a4:fe:ff:8b:ed:82:7d:a2:11:fb:c3:59:d4:dc:
                    b1:b4:15:37:4c:37:f1:82:1b:b4:e5:19:d9:39:cc:
                    44:c6:e3:17:98:73:f3:14:43:e6:41:c9:19:8a:7f:
                    bc:0f:d4:8a:33:7e:64:58:fc:78:07:dd:18:79:14:
                    48:49:9e:c7:b6:e9:c0:36:0c:c0:77:56:a5:5e:ce:
                    4d:bf:73:1f:2f:aa:be:c1:9c:4b:95:5d:fe:c6:f2:
                    73:1c:99:84:62:67:cf:22:83:60:2b:5b:74:7d:f1:
                    96:db:04:45:e9:3d:6d:61:be:89:50:e1:6d:d0:72:
                    1b:df:9c:1b:97:26:ac:14:62:4c:31:ad:91:40:1b:
                    16:a1:ab:5b:24:88:d3:ad:51:0d:90:15:6d:f2:10:
                    bc:19:7e:c4:4c:9a:f1:76:62:74:f1:95:b8:44:de:
                    f3:5f
                Exponent: 65537 (0x10001)
        X509v3 extensions:
            X509v3 Basic Constraints: 
                CA:FALSE
            X509v3 Subject Key Identifier: 
                F4:5B:73:E2:7C:86:3E:68:37:4D:5E:FB:43:BA:54:99:75:6A:C5:41
            X509v3 Authority Key Identifier: 
                keyid:03:D6:3B:6A:1B:9F:E5:48:10:0F:79:A2:6E:17:E5:C1:F7:86:BE:70
                DirName:/CN=team489-net
                serial:41:56:34:FA:A1:EF:0C:E4:91:0C:1E:A4:81:B2:99:F8:E1:7B:E8:FD
            X509v3 Extended Key Usage: 
                TLS Web Client Authentication
            X509v3 Key Usage: 
                Digital Signature
    Signature Algorithm: sha256WithRSAEncryption
    Signature Value:
        0f:9c:a6:14:9e:8e:d1:82:29:2d:78:7f:f6:f8:aa:20:68:07:
        aa:3d:7e:2c:45:48:16:08:c1:28:81:e3:24:43:b5:91:5f:3c:
        5d:eb:ae:e9:69:17:7c:63:c8:df:ef:b3:a1:ab:21:27:22:f4:
        b1:d5:71:4b:5d:01:7b:0d:98:24:0f:4c:2f:bd:ff:97:84:76:
        cf:26:a3:23:9e:79:96:46:d0:ea:77:79:92:40:57:f6:8b:bf:
        66:b5:c3:93:38:ed:e9:f8:89:d7:33:a8:d7:56:66:d0:6d:4c:
        09:ba:90:2f:f8:0d:04:d3:e0:27:91:86:ac:dd:5c:23:33:4e:
        9d:bf:82:8f:17:bf:ff:b3:8d:ad:b8:83:c9:42:5d:99:30:30:
        f3:ee:9b:35:00:32:0a:45:e4:8a:13:6e:51:09:9e:12:85:d1:
        f3:42:6b:71:e2:00:ab:7f:b1:e2:d3:8d:16:54:06:7c:85:0c:
        35:f9:79:a0:69:31:fb:5a:9b:80:d0:b8:80:b8:a9:e7:50:71:
        93:80:ae:9c:29:cb:51:a9:36:cb:79:e1:eb:37:fe:da:9f:a0:
        9a:7b:dc:66:6f:5a:ed:b6:cf:e9:1f:42:31:36:2d:b1:74:cb:
        19:64:87:36:72:ed:68:a8:ec:99:80:f7:ae:5e:18:10:03:bb:
        52:10:bc:ee
-----BEGIN CERTIFICATE-----
MIIDXDCCAkSgAwIBAgIQVT2HcjYusDFis8cy1c4nNDANBgkqhkiG9w0BAQsFADAW
MRQwEgYDVQQDDAt0ZWFtNDg5LW5ldDAeFw0yMzExMDMyMDQ4MTFaFw0yNjEwMTgy
MDQ4MTFaMBkxFzAVBgNVBAMMDnRlYW00ODktY2xpZW50MIIBIjANBgkqhkiG9w0B
AQEFAAOCAQ8AMIIBCgKCAQEArGpjKsxyjsbPPti3zQ4yni+t8VgqwUXw+Lkfc6Ay
5iqwqegUVY5B5pNBnw82Ft6BaLy3Yu9QXWKpZBchyLn9jDcrdsZ7nR3vP+Ve8Q/F
Yh64qHyQm5dUtc2PpP7/i+2CfaIR+8NZ1NyxtBU3TDfxghu05RnZOcxExuMXmHPz
FEPmQckZin+8D9SKM35kWPx4B90YeRRISZ7HtunANgzAd1alXs5Nv3MfL6q+wZxL
lV3+xvJzHJmEYmfPIoNgK1t0ffGW2wRF6T1tYb6JUOFt0HIb35wblyasFGJMMa2R
QBsWoatbJIjTrVENkBVt8hC8GX7ETJrxdmJ08ZW4RN7zXwIDAQABo4GiMIGfMAkG
A1UdEwQCMAAwHQYDVR0OBBYEFPRbc+J8hj5oN01e+0O6VJl1asVBMFEGA1UdIwRK
MEiAFAPWO2obn+VIEA95om4X5cH3hr5woRqkGDAWMRQwEgYDVQQDDAt0ZWFtNDg5
LW5ldIIUQVY0+qHvDOSRDB6kgbKZ+OF76P0wEwYDVR0lBAwwCgYIKwYBBQUHAwIw
CwYDVR0PBAQDAgeAMA0GCSqGSIb3DQEBCwUAA4IBAQAPnKYUno7RgikteH/2+Kog
aAeqPX4sRUgWCMEogeMkQ7WRXzxd667paRd8Y8jf77OhqyEnIvSx1XFLXQF7DZgk
D0wvvf+XhHbPJqMjnnmWRtDqd3mSQFf2i79mtcOTOO3p+InXM6jXVmbQbUwJupAv
+A0E0+AnkYas3VwjM06dv4KPF7//s42tuIPJQl2ZMDDz7ps1ADIKReSKE25RCZ4S
hdHzQmtx4gCrf7Hi040WVAZ8hQw1+XmgaTH7WpuA0LiAuKnnUHGTgK6cKctRqTbL
eeHrN/7an6Cae9xmb1rtts/pH0IxNi2xdMsZZIc2cu1oqOyZgPeuXhgQA7tSELzu
-----END CERTIFICATE-----
