Certificate:
    Data:
        Version: 3 (0x2)
        Serial Number:
            ea:40:8f:07:0f:0a:71:fb:b9:9c:55:81:dc:6e:8f:00
        Signature Algorithm: sha256WithRSAEncryption
        Issuer: CN=team489-net
        Validity
            Not Before: Nov  4 10:49:16 2023 GMT
            Not After : Oct 19 10:49:16 2026 GMT
        Subject: CN=team489-client
        Subject Public Key Info:
            Public Key Algorithm: rsaEncryption
                Public-Key: (2048 bit)
                Modulus:
                    00:c5:1d:29:1a:7a:7b:df:af:8c:2c:12:47:7d:a0:
                    6e:90:5d:aa:b5:ad:d5:bd:92:d6:9f:cd:2f:d0:bc:
                    27:a8:be:8f:c2:f4:f0:f7:de:05:2c:95:e5:5e:06:
                    ac:75:ef:d0:58:e1:0f:a7:40:0e:c5:f7:79:24:01:
                    b0:3b:90:ea:db:54:b1:49:3b:20:aa:1c:be:1c:bd:
                    9f:5b:81:4e:b7:c5:27:5f:bb:e0:b8:82:3e:d6:f9:
                    58:b5:08:a9:d0:e6:e8:62:e7:62:9c:eb:f4:34:07:
                    12:0f:30:a5:33:e7:43:ba:e5:8e:2e:c9:e1:69:44:
                    f6:6f:ad:f9:52:0f:0a:fa:78:13:78:51:84:14:88:
                    49:ca:7b:78:95:d8:1f:21:a7:ba:a7:3b:9a:9f:06:
                    0e:c8:a7:60:51:9c:a8:71:03:89:73:3d:82:bb:b8:
                    7b:98:a6:52:62:13:f5:02:12:04:46:8d:ce:2a:84:
                    54:b8:52:fc:77:b8:83:6e:ec:96:9a:b5:86:07:56:
                    c8:b7:52:a4:46:52:59:0d:3a:41:0f:99:d3:3c:5a:
                    91:02:f1:4d:24:cb:2e:35:89:e0:27:32:2f:eb:0a:
                    fc:9b:a9:5c:d3:bc:f3:95:19:23:ec:17:5b:19:fe:
                    e3:fb:18:53:21:50:9b:60:92:f3:3a:c5:6f:2e:72:
                    a4:dd
                Exponent: 65537 (0x10001)
        X509v3 extensions:
            X509v3 Basic Constraints: 
                CA:FALSE
            X509v3 Subject Key Identifier: 
                39:51:4D:EB:31:0B:34:FF:86:6A:8E:6F:B4:57:EC:0E:E6:9D:B7:44
            X509v3 Authority Key Identifier: 
                keyid:84:F9:72:28:F8:8F:4B:96:B0:88:DE:D7:78:7B:5C:96:03:8B:A2:6F
                DirName:/CN=team489-net
                serial:51:1D:80:32:80:BA:B0:D2:E9:B5:3A:DA:DD:D1:1D:0E:BD:8B:01:97
            X509v3 Extended Key Usage: 
                TLS Web Client Authentication
            X509v3 Key Usage: 
                Digital Signature
    Signature Algorithm: sha256WithRSAEncryption
    Signature Value:
        7f:a6:63:cf:ac:e3:6a:1f:02:8e:cd:23:5b:31:f3:6d:43:c3:
        79:01:aa:77:7d:6e:41:c8:d9:94:13:62:50:f5:9f:b6:0c:07:
        91:29:e0:70:da:a2:46:04:4a:cd:20:3c:07:de:9f:d3:c4:8c:
        7c:9a:ff:8b:d3:c6:e9:07:b6:9a:f4:c8:6d:4c:ec:70:62:24:
        b6:4d:03:26:1d:1e:a4:e6:37:99:3e:97:6c:28:08:fb:6c:6e:
        07:70:74:e7:74:c0:00:c7:b3:a2:70:c6:71:f5:d6:d6:d9:79:
        1c:48:44:ba:3c:62:d3:bf:7d:bc:e7:8a:9f:11:f4:b1:5f:44:
        2e:1f:e4:a7:dd:13:27:78:3e:1b:d8:23:27:af:c6:7f:12:e5:
        ee:29:b0:0f:43:5e:6b:3f:12:39:63:01:2a:68:fa:04:b4:82:
        33:e2:83:59:ad:8f:6c:8a:9b:3f:0a:90:c6:b5:5a:8a:b3:55:
        3e:2c:0d:b0:e2:87:e2:8d:2f:ee:c0:3d:8f:69:13:be:29:d9:
        e5:cb:bf:b7:99:fa:77:88:50:41:28:32:45:bf:74:58:82:fc:
        fa:11:8c:1d:ce:81:b9:98:43:9e:65:8e:ef:82:f8:7a:71:7f:
        d6:be:09:61:d8:01:19:b5:75:d2:5c:d2:49:81:25:2f:57:09:
        74:89:6d:0d
-----BEGIN CERTIFICATE-----
MIIDXTCCAkWgAwIBAgIRAOpAjwcPCnH7uZxVgdxujwAwDQYJKoZIhvcNAQELBQAw
FjEUMBIGA1UEAwwLdGVhbTQ4OS1uZXQwHhcNMjMxMTA0MTA0OTE2WhcNMjYxMDE5
MTA0OTE2WjAZMRcwFQYDVQQDDA50ZWFtNDg5LWNsaWVudDCCASIwDQYJKoZIhvcN
AQEBBQADggEPADCCAQoCggEBAMUdKRp6e9+vjCwSR32gbpBdqrWt1b2S1p/NL9C8
J6i+j8L08PfeBSyV5V4GrHXv0FjhD6dADsX3eSQBsDuQ6ttUsUk7IKocvhy9n1uB
TrfFJ1+74LiCPtb5WLUIqdDm6GLnYpzr9DQHEg8wpTPnQ7rlji7J4WlE9m+t+VIP
Cvp4E3hRhBSIScp7eJXYHyGnuqc7mp8GDsinYFGcqHEDiXM9gru4e5imUmIT9QIS
BEaNziqEVLhS/He4g27slpq1hgdWyLdSpEZSWQ06QQ+Z0zxakQLxTSTLLjWJ4Ccy
L+sK/JupXNO885UZI+wXWxn+4/sYUyFQm2CS8zrFby5ypN0CAwEAAaOBojCBnzAJ
BgNVHRMEAjAAMB0GA1UdDgQWBBQ5UU3rMQs0/4Zqjm+0V+wO5p23RDBRBgNVHSME
SjBIgBSE+XIo+I9LlrCI3td4e1yWA4uib6EapBgwFjEUMBIGA1UEAwwLdGVhbTQ4
OS1uZXSCFFEdgDKAurDS6bU62t3RHQ69iwGXMBMGA1UdJQQMMAoGCCsGAQUFBwMC
MAsGA1UdDwQEAwIHgDANBgkqhkiG9w0BAQsFAAOCAQEAf6Zjz6zjah8Cjs0jWzHz
bUPDeQGqd31uQcjZlBNiUPWftgwHkSngcNqiRgRKzSA8B96f08SMfJr/i9PG6Qe2
mvTIbUzscGIktk0DJh0epOY3mT6XbCgI+2xuB3B053TAAMezonDGcfXW1tl5HEhE
ujxi0799vOeKnxH0sV9ELh/kp90TJ3g+G9gjJ6/GfxLl7imwD0Neaz8SOWMBKmj6
BLSCM+KDWa2PbIqbPwqQxrVairNVPiwNsOKH4o0v7sA9j2kTvinZ5cu/t5n6d4hQ
QSgyRb90WIL8+hGMHc6BuZhDnmWO74L4enF/1r4JYdgBGbV10lzSSYElL1cJdIlt
DQ==
-----END CERTIFICATE-----
