Certificate:
    Data:
        Version: 3 (0x2)
        Serial Number:
            99:e9:b6:80:a7:a3:0f:0f:ba:98:0e:bf:98:1c:bf:34
        Signature Algorithm: sha256WithRSAEncryption
        Issuer: CN=team422-net
        Validity
            Not Before: Nov  4 10:48:13 2023 GMT
            Not After : Oct 19 10:48:13 2026 GMT
        Subject: CN=team422-client
        Subject Public Key Info:
            Public Key Algorithm: rsaEncryption
                Public-Key: (2048 bit)
                Modulus:
                    00:b1:3d:36:14:3f:99:aa:18:67:68:50:01:56:94:
                    7f:1d:68:8d:2e:67:e3:90:6e:29:9b:45:60:2a:a5:
                    56:c1:e0:0b:bd:92:fb:57:08:71:5b:c1:95:14:02:
                    ea:2b:54:6b:30:2e:a4:33:5f:68:a2:a1:48:be:02:
                    5d:25:30:5c:c9:a8:d3:33:41:57:a5:eb:3e:93:38:
                    db:f3:c8:6d:d5:88:7b:14:c0:57:31:5c:da:44:7a:
                    66:e6:9b:64:85:29:09:ed:68:99:e0:c0:5d:4c:21:
                    17:b9:c5:fa:c4:b9:f1:b8:c0:e1:96:59:ec:77:e4:
                    c5:02:28:c0:c3:3a:79:de:8d:9f:48:99:2f:2b:e7:
                    22:46:f6:d1:34:ce:b1:21:0f:fc:ac:e7:f1:97:b5:
                    df:8e:42:ff:29:28:66:4d:16:41:8d:95:87:71:1d:
                    77:bd:6c:79:c7:81:e5:c1:43:96:c2:f0:05:aa:d6:
                    d0:c5:4e:db:2b:8d:fb:e7:32:10:44:f7:0e:fb:71:
                    44:f1:40:3b:b5:67:94:c7:f8:06:01:c6:17:47:23:
                    6f:fe:74:be:c8:72:63:02:28:b9:4a:f4:b0:f5:8a:
                    b2:68:e9:72:fb:d6:34:98:ba:ee:55:35:d5:b4:4b:
                    7a:50:6a:1e:aa:b9:4e:35:e6:ed:ff:d7:37:72:fb:
                    4b:7d
                Exponent: 65537 (0x10001)
        X509v3 extensions:
            X509v3 Basic Constraints: 
                CA:FALSE
            X509v3 Subject Key Identifier: 
                7E:28:B1:4C:56:4D:5B:7B:F5:D3:FA:5B:40:25:A2:97:E4:18:FA:AF
            X509v3 Authority Key Identifier: 
                keyid:82:4B:87:17:68:6A:19:41:A6:DD:B2:E1:D7:84:C0:26:85:DA:25:6B
                DirName:/CN=team422-net
                serial:36:3C:3D:65:12:A3:41:D2:5F:59:FB:FC:5F:57:4B:8D:D8:40:21:62
            X509v3 Extended Key Usage: 
                TLS Web Client Authentication
            X509v3 Key Usage: 
                Digital Signature
    Signature Algorithm: sha256WithRSAEncryption
    Signature Value:
        b3:d7:e4:28:29:09:e3:73:bf:a7:05:46:76:b1:a4:dd:2e:7c:
        9a:76:a6:e8:1d:cb:02:67:cc:4e:aa:c2:99:54:05:9a:24:86:
        df:76:86:b5:a9:ac:0b:92:a3:59:05:19:20:45:04:cc:13:42:
        b9:0e:6c:74:dd:41:d7:59:65:8c:17:4b:60:71:7b:eb:e2:b2:
        cc:28:fc:d7:19:17:84:f0:cd:de:02:ad:0f:3b:7f:86:2a:34:
        4d:97:9c:d7:17:8c:44:71:14:2d:c2:27:45:bf:08:83:3a:7f:
        d6:9b:98:74:9c:6c:ab:89:56:b7:eb:75:9c:a6:dc:e0:ea:84:
        f9:ea:b9:79:5c:d2:ca:40:e2:4e:30:39:c5:22:a1:3c:f6:03:
        b1:2e:83:44:05:c2:34:90:5b:f6:98:b4:96:1c:09:db:c2:32:
        79:aa:ed:9e:dd:21:62:c2:84:a5:f7:dd:f1:cb:c0:60:db:ad:
        d3:cb:58:89:4d:cb:c1:0a:d7:d4:2e:d6:51:5d:25:38:43:d1:
        f3:a0:ba:b9:1c:f0:2a:b6:31:b1:35:55:13:59:ec:9a:0a:f2:
        f7:83:c4:8f:9f:34:d3:ef:e8:e5:b1:4f:b1:2e:76:95:db:81:
        fd:90:8b:0a:00:09:62:5d:3d:f6:fb:93:fb:9a:e5:54:92:db:
        5e:12:52:17
-----BEGIN CERTIFICATE-----
MIIDXTCCAkWgAwIBAgIRAJnptoCnow8PupgOv5gcvzQwDQYJKoZIhvcNAQELBQAw
FjEUMBIGA1UEAwwLdGVhbTQyMi1uZXQwHhcNMjMxMTA0MTA0ODEzWhcNMjYxMDE5
MTA0ODEzWjAZMRcwFQYDVQQDDA50ZWFtNDIyLWNsaWVudDCCASIwDQYJKoZIhvcN
AQEBBQADggEPADCCAQoCggEBALE9NhQ/maoYZ2hQAVaUfx1ojS5n45BuKZtFYCql
VsHgC72S+1cIcVvBlRQC6itUazAupDNfaKKhSL4CXSUwXMmo0zNBV6XrPpM42/PI
bdWIexTAVzFc2kR6ZuabZIUpCe1omeDAXUwhF7nF+sS58bjA4ZZZ7HfkxQIowMM6
ed6Nn0iZLyvnIkb20TTOsSEP/Kzn8Ze1345C/ykoZk0WQY2Vh3Edd71seceB5cFD
lsLwBarW0MVO2yuN++cyEET3DvtxRPFAO7VnlMf4BgHGF0cjb/50vshyYwIouUr0
sPWKsmjpcvvWNJi67lU11bRLelBqHqq5TjXm7f/XN3L7S30CAwEAAaOBojCBnzAJ
BgNVHRMEAjAAMB0GA1UdDgQWBBR+KLFMVk1be/XT+ltAJaKX5Bj6rzBRBgNVHSME
SjBIgBSCS4cXaGoZQabdsuHXhMAmhdola6EapBgwFjEUMBIGA1UEAwwLdGVhbTQy
Mi1uZXSCFDY8PWUSo0HSX1n7/F9XS43YQCFiMBMGA1UdJQQMMAoGCCsGAQUFBwMC
MAsGA1UdDwQEAwIHgDANBgkqhkiG9w0BAQsFAAOCAQEAs9fkKCkJ43O/pwVGdrGk
3S58mnam6B3LAmfMTqrCmVQFmiSG33aGtamsC5KjWQUZIEUEzBNCuQ5sdN1B11ll
jBdLYHF76+KyzCj81xkXhPDN3gKtDzt/hio0TZec1xeMRHEULcInRb8Igzp/1puY
dJxsq4lWt+t1nKbc4OqE+eq5eVzSykDiTjA5xSKhPPYDsS6DRAXCNJBb9pi0lhwJ
28Iyeartnt0hYsKEpffd8cvAYNut08tYiU3LwQrX1C7WUV0lOEPR86C6uRzwKrYx
sTVVE1nsmgry94PEj5800+/o5bFPsS52lduB/ZCLCgAJYl099vuT+5rlVJLbXhJS
Fw==
-----END CERTIFICATE-----
