Certificate:
    Data:
        Version: 3 (0x2)
        Serial Number:
            46:26:31:d8:72:9c:80:2a:1c:a5:8d:2d:5a:17:5b:1a
        Signature Algorithm: sha256WithRSAEncryption
        Issuer: CN=team139-net
        Validity
            Not Before: Nov  3 20:41:41 2023 GMT
            Not After : Oct 18 20:41:41 2026 GMT
        Subject: CN=team139-client
        Subject Public Key Info:
            Public Key Algorithm: rsaEncryption
                Public-Key: (2048 bit)
                Modulus:
                    00:9f:71:8a:09:43:01:0b:3d:d7:68:5f:68:1d:f5:
                    5a:95:e4:79:1b:30:50:9b:51:cd:4e:a3:01:b8:43:
                    7f:7b:c9:9a:d1:2c:67:84:6d:b5:b8:cb:1b:1d:ef:
                    67:de:94:42:1d:7e:6f:12:50:be:01:1d:56:31:45:
                    b3:f9:7a:53:6f:4f:08:77:bf:ab:5b:40:e4:14:52:
                    da:59:2e:f0:fc:24:8e:ab:1a:8f:73:40:e3:ea:76:
                    a9:f5:d2:17:5e:97:2a:58:14:24:62:10:87:5b:c5:
                    f7:ef:eb:5b:26:c8:19:54:0d:32:7a:f6:e4:f7:9e:
                    e5:6b:37:4f:3f:cd:15:b6:6b:0c:17:86:82:9e:bc:
                    df:5a:f6:5f:bc:ab:91:33:77:89:ad:b6:76:54:36:
                    bb:59:87:bf:b3:4a:76:66:04:d3:78:05:21:96:32:
                    a1:0c:1e:ca:36:05:97:a2:14:4c:85:8e:cd:78:64:
                    5b:b9:0c:5e:6e:3d:65:52:47:3b:7c:4d:ca:e0:07:
                    4c:f9:28:93:5c:47:62:3e:cb:cb:47:2c:16:ec:e5:
                    5b:6f:ae:e0:3a:ba:02:47:f3:4c:68:03:30:06:7a:
                    b1:93:5f:e6:aa:1e:90:3a:15:9a:3d:f9:04:34:e6:
                    56:56:41:63:5f:c0:49:68:e1:6a:83:cc:1d:2b:c5:
                    9d:61
                Exponent: 65537 (0x10001)
        X509v3 extensions:
            X509v3 Basic Constraints: 
                CA:FALSE
            X509v3 Subject Key Identifier: 
                B0:4A:07:0B:AB:77:A5:30:2E:6C:36:F7:F1:B8:C9:9C:FE:78:56:8F
            X509v3 Authority Key Identifier: 
                keyid:88:08:BA:10:2F:D0:23:4E:CF:14:58:C5:23:DF:C2:8C:BB:B3:28:F3
                DirName:/CN=team139-net
                serial:29:E9:1F:2E:7C:72:43:E6:59:D5:47:AE:1A:3A:29:F4:07:A5:D0:1B
            X509v3 Extended Key Usage: 
                TLS Web Client Authentication
            X509v3 Key Usage: 
                Digital Signature
    Signature Algorithm: sha256WithRSAEncryption
    Signature Value:
        9b:f2:8a:3f:98:57:8a:08:75:52:ca:79:47:90:8e:39:ad:45:
        84:a4:06:e4:92:31:a9:34:07:23:52:04:7a:49:56:4f:0e:08:
        e3:b0:10:0d:c0:7e:42:eb:49:de:f7:2b:46:76:a7:70:c5:de:
        6b:1f:5d:f7:19:30:4d:d5:77:7d:68:2b:8f:dc:5d:1f:2d:25:
        bc:3c:45:f3:da:01:b8:ab:c3:2e:b3:f1:12:e0:31:b2:df:1b:
        e7:03:37:ce:6b:e4:7f:72:e9:38:52:a3:10:cd:4c:74:e8:64:
        39:0b:ca:4e:f4:57:58:42:59:14:cb:e1:50:aa:06:af:5c:ea:
        2c:89:a3:e6:39:f2:64:54:60:0a:50:ae:10:5d:46:e7:5d:b5:
        ba:96:49:01:6e:9f:93:33:71:b9:b5:ba:d8:7f:d0:6d:06:5f:
        b1:ff:7e:18:97:3e:be:b4:81:00:b2:26:d6:63:91:c9:c5:de:
        f0:a1:67:1a:a1:f5:97:0a:28:d5:c9:fa:c5:b6:56:3b:e2:8c:
        88:3a:6d:32:10:70:c0:09:f7:9c:b1:f4:6c:fc:ea:f8:b9:69:
        e3:68:29:d6:dc:30:70:14:b2:16:c3:25:8f:53:32:3a:4c:51:
        60:e8:78:72:73:06:04:db:f7:d0:cd:a9:6d:d6:a6:85:a4:eb:
        e4:34:85:90
-----BEGIN CERTIFICATE-----
MIIDXDCCAkSgAwIBAgIQRiYx2HKcgCocpY0tWhdbGjANBgkqhkiG9w0BAQsFADAW
MRQwEgYDVQQDDAt0ZWFtMTM5LW5ldDAeFw0yMzExMDMyMDQxNDFaFw0yNjEwMTgy
MDQxNDFaMBkxFzAVBgNVBAMMDnRlYW0xMzktY2xpZW50MIIBIjANBgkqhkiG9w0B
AQEFAAOCAQ8AMIIBCgKCAQEAn3GKCUMBCz3XaF9oHfValeR5GzBQm1HNTqMBuEN/
e8ma0SxnhG21uMsbHe9n3pRCHX5vElC+AR1WMUWz+XpTb08Id7+rW0DkFFLaWS7w
/CSOqxqPc0Dj6nap9dIXXpcqWBQkYhCHW8X37+tbJsgZVA0yevbk957lazdPP80V
tmsMF4aCnrzfWvZfvKuRM3eJrbZ2VDa7WYe/s0p2ZgTTeAUhljKhDB7KNgWXohRM
hY7NeGRbuQxebj1lUkc7fE3K4AdM+SiTXEdiPsvLRywW7OVbb67gOroCR/NMaAMw
Bnqxk1/mqh6QOhWaPfkENOZWVkFjX8BJaOFqg8wdK8WdYQIDAQABo4GiMIGfMAkG
A1UdEwQCMAAwHQYDVR0OBBYEFLBKBwurd6UwLmw29/G4yZz+eFaPMFEGA1UdIwRK
MEiAFIgIuhAv0CNOzxRYxSPfwoy7syjzoRqkGDAWMRQwEgYDVQQDDAt0ZWFtMTM5
LW5ldIIUKekfLnxyQ+ZZ1UeuGjop9Ael0BswEwYDVR0lBAwwCgYIKwYBBQUHAwIw
CwYDVR0PBAQDAgeAMA0GCSqGSIb3DQEBCwUAA4IBAQCb8oo/mFeKCHVSynlHkI45
rUWEpAbkkjGpNAcjUgR6SVZPDgjjsBANwH5C60ne9ytGdqdwxd5rH133GTBN1Xd9
aCuP3F0fLSW8PEXz2gG4q8Mus/ES4DGy3xvnAzfOa+R/cuk4UqMQzUx06GQ5C8pO
9FdYQlkUy+FQqgavXOosiaPmOfJkVGAKUK4QXUbnXbW6lkkBbp+TM3G5tbrYf9Bt
Bl+x/34Ylz6+tIEAsibWY5HJxd7woWcaofWXCijVyfrFtlY74oyIOm0yEHDACfec
sfRs/Or4uWnjaCnW3DBwFLIWwyWPUzI6TFFg6HhycwYE2/fQzalt1qaFpOvkNIWQ
-----END CERTIFICATE-----
