Certificate:
    Data:
        Version: 3 (0x2)
        Serial Number:
            29:5b:e2:e8:eb:47:c5:75:19:ce:06:42:f3:e8:88:2e
        Signature Algorithm: sha256WithRSAEncryption
        Issuer: CN=team112-net
        Validity
            Not Before: Nov  4 10:42:30 2023 GMT
            Not After : Oct 19 10:42:30 2026 GMT
        Subject: CN=team112-server
        Subject Public Key Info:
            Public Key Algorithm: rsaEncryption
                Public-Key: (2048 bit)
                Modulus:
                    00:8e:ac:65:90:5a:e9:f0:33:16:cb:f6:68:2f:56:
                    57:4c:15:78:d5:2c:eb:2b:cd:e5:ed:05:48:ea:4f:
                    b6:64:42:00:67:64:fd:eb:54:4c:55:8d:7c:50:ad:
                    f1:53:1b:da:af:21:23:3c:01:db:32:b4:71:ad:f1:
                    8d:29:db:c7:47:bd:a8:80:95:15:41:b4:a1:99:47:
                    12:2f:cf:4a:f2:db:f3:56:32:b2:7c:f3:5c:f0:5d:
                    82:13:3e:1f:40:b4:6e:3d:a3:e7:4f:a4:75:20:09:
                    6d:d1:4c:1c:c3:70:62:a1:e0:35:5a:01:12:13:2f:
                    cd:f3:51:da:96:ea:ac:13:a2:68:4c:66:13:3a:df:
                    02:0a:b3:00:09:a4:0d:90:56:3e:66:dd:b6:17:e8:
                    5f:9e:86:97:a4:42:e3:a5:19:ba:26:36:de:05:26:
                    22:a7:3d:05:bb:78:3a:d4:89:7b:5f:4c:db:b8:1c:
                    0b:22:2f:fe:05:3e:88:76:f5:f0:ff:ed:86:40:d1:
                    63:f6:64:e5:e7:e1:c9:f6:75:c5:37:de:04:47:ed:
                    2f:db:ac:e3:a4:85:09:43:48:ce:66:c6:97:02:f6:
                    e2:14:42:76:96:6d:5e:39:0e:8a:fd:dd:3b:99:0a:
                    f3:1c:4b:f6:7d:fd:cb:27:1b:54:a1:08:dc:53:5c:
                    bd:5d
                Exponent: 65537 (0x10001)
        X509v3 extensions:
            X509v3 Basic Constraints: 
                CA:FALSE
            X509v3 Subject Key Identifier: 
                24:B1:FC:70:0A:84:81:9A:28:4C:0E:91:22:7B:46:C4:68:7A:51:A1
            X509v3 Authority Key Identifier: 
                keyid:82:A0:56:8E:CC:71:CB:D7:04:9D:03:00:DF:F5:6A:EE:98:71:7B:5F
                DirName:/CN=team112-net
                serial:5B:31:91:42:80:E9:A3:1C:20:0A:44:D7:0A:75:04:35:84:E3:2D:53
            X509v3 Extended Key Usage: 
                TLS Web Server Authentication
            X509v3 Key Usage: 
                Digital Signature, Key Encipherment
            X509v3 Subject Alternative Name: 
                DNS:team112-server
    Signature Algorithm: sha256WithRSAEncryption
    Signature Value:
        81:c5:6d:90:40:50:02:d2:5e:5d:cb:5d:70:a1:74:c4:0f:26:
        1c:88:7c:fc:6a:a1:18:4e:80:c0:0e:47:ca:bd:a7:d6:0b:4f:
        31:8c:9a:ff:5d:85:65:45:be:78:fa:fa:a7:8d:41:ef:c2:9b:
        28:22:5e:ca:ee:40:1f:44:c5:19:10:b6:67:1f:33:f7:7a:83:
        55:33:d3:c1:dc:ea:db:24:71:f2:7c:fe:f4:d5:68:da:39:74:
        09:82:a1:91:af:c3:ee:d6:97:ec:77:e4:cc:3e:05:6e:b5:30:
        7f:e4:fe:dd:4d:40:60:08:aa:0a:a6:8e:17:d4:e5:28:14:c5:
        db:fc:80:9c:74:f9:3f:a2:25:6e:04:70:66:b9:ea:e9:1c:6f:
        68:fd:1c:41:d9:34:8f:4b:db:9b:36:4c:ae:90:fb:48:4e:02:
        12:b5:b6:6a:da:bb:2c:35:6f:39:2f:7f:32:5c:4f:a3:20:67:
        9a:83:2e:38:db:78:6f:a5:f9:3c:4d:c5:30:10:c2:e7:48:58:
        0e:eb:59:52:eb:8a:cb:a5:af:80:03:94:21:64:51:17:91:c6:
        16:b4:ba:84:10:85:a7:57:0e:86:87:35:10:4d:7d:c6:96:7a:
        42:3c:3f:82:5c:eb:e9:03:6f:db:35:ea:f1:22:76:29:d7:25:
        56:4a:05:d6
-----BEGIN CERTIFICATE-----
MIIDdzCCAl+gAwIBAgIQKVvi6OtHxXUZzgZC8+iILjANBgkqhkiG9w0BAQsFADAW
MRQwEgYDVQQDDAt0ZWFtMTEyLW5ldDAeFw0yMzExMDQxMDQyMzBaFw0yNjEwMTkx
MDQyMzBaMBkxFzAVBgNVBAMMDnRlYW0xMTItc2VydmVyMIIBIjANBgkqhkiG9w0B
AQEFAAOCAQ8AMIIBCgKCAQEAjqxlkFrp8DMWy/ZoL1ZXTBV41SzrK83l7QVI6k+2
ZEIAZ2T961RMVY18UK3xUxvaryEjPAHbMrRxrfGNKdvHR72ogJUVQbShmUcSL89K
8tvzVjKyfPNc8F2CEz4fQLRuPaPnT6R1IAlt0Uwcw3BioeA1WgESEy/N81Haluqs
E6JoTGYTOt8CCrMACaQNkFY+Zt22F+hfnoaXpELjpRm6JjbeBSYipz0Fu3g61Il7
X0zbuBwLIi/+BT6IdvXw/+2GQNFj9mTl5+HJ9nXFN94ER+0v26zjpIUJQ0jOZsaX
AvbiFEJ2lm1eOQ6K/d07mQrzHEv2ff3LJxtUoQjcU1y9XQIDAQABo4G9MIG6MAkG
A1UdEwQCMAAwHQYDVR0OBBYEFCSx/HAKhIGaKEwOkSJ7RsRoelGhMFEGA1UdIwRK
MEiAFIKgVo7MccvXBJ0DAN/1au6YcXtfoRqkGDAWMRQwEgYDVQQDDAt0ZWFtMTEy
LW5ldIIUWzGRQoDpoxwgCkTXCnUENYTjLVMwEwYDVR0lBAwwCgYIKwYBBQUHAwEw
CwYDVR0PBAQDAgWgMBkGA1UdEQQSMBCCDnRlYW0xMTItc2VydmVyMA0GCSqGSIb3
DQEBCwUAA4IBAQCBxW2QQFAC0l5dy11woXTEDyYciHz8aqEYToDADkfKvafWC08x
jJr/XYVlRb54+vqnjUHvwpsoIl7K7kAfRMUZELZnHzP3eoNVM9PB3OrbJHHyfP70
1WjaOXQJgqGRr8Pu1pfsd+TMPgVutTB/5P7dTUBgCKoKpo4X1OUoFMXb/ICcdPk/
oiVuBHBmuerpHG9o/RxB2TSPS9ubNkyukPtITgIStbZq2rssNW85L38yXE+jIGea
gy4423hvpfk8TcUwEMLnSFgO61lS64rLpa+AA5QhZFEXkcYWtLqEEIWnVw6GhzUQ
TX3GlnpCPD+CXOvpA2/bNerxInYp1yVWSgXW
-----END CERTIFICATE-----
