Certificate:
    Data:
        Version: 3 (0x2)
        Serial Number:
            bd:d7:f4:23:f8:77:15:9e:5b:e7:89:df:9e:2a:e1:d9
        Signature Algorithm: sha256WithRSAEncryption
        Issuer: CN=team112-net
        Validity
            Not Before: Nov  3 20:41:09 2023 GMT
            Not After : Oct 18 20:41:09 2026 GMT
        Subject: CN=team112-server
        Subject Public Key Info:
            Public Key Algorithm: rsaEncryption
                Public-Key: (2048 bit)
                Modulus:
                    00:d1:95:a7:9b:4e:63:b7:ce:b3:c0:fe:6b:c9:bd:
                    9d:e2:71:b5:4d:3f:f1:8c:65:7d:ab:12:5c:b6:f5:
                    ef:e7:99:ba:e1:e7:c6:d7:03:f3:99:06:22:e4:6c:
                    c8:34:85:e0:45:18:0f:91:e6:76:7e:bb:62:85:17:
                    53:20:7d:a6:0c:24:21:6a:96:47:85:27:c8:be:ba:
                    7e:3a:3f:ef:96:dc:fd:43:28:0d:67:fe:6d:70:7a:
                    5d:a2:5e:4c:b2:77:f2:e1:e4:27:7e:0d:84:98:55:
                    c0:46:ff:78:f6:be:20:09:91:99:aa:20:3a:05:28:
                    92:c5:b8:39:df:f6:78:d2:a7:5d:93:88:e7:06:b8:
                    79:f7:49:a5:d7:87:31:83:97:c6:2a:13:2e:83:10:
                    1b:5a:13:a3:de:dd:97:93:8a:c1:9e:8d:e1:17:b7:
                    d5:f2:9f:a4:99:97:28:72:fe:eb:c3:27:0a:78:e4:
                    cd:c3:42:48:c8:5e:f3:bb:5f:ae:15:f8:75:02:5c:
                    50:e9:a3:72:3c:ac:36:49:2d:17:42:7d:9f:73:43:
                    5e:b0:ca:03:fd:12:d0:69:3b:8d:5c:8d:d1:c6:b3:
                    c1:2b:f1:4b:34:d3:88:e6:ae:47:fb:40:68:5d:fc:
                    41:7d:cf:37:71:01:33:06:c5:26:c6:dd:00:89:97:
                    db:91
                Exponent: 65537 (0x10001)
        X509v3 extensions:
            X509v3 Basic Constraints: 
                CA:FALSE
            X509v3 Subject Key Identifier: 
                00:EB:D0:76:FC:08:CB:6B:1D:03:49:91:A3:D6:A0:DB:7D:66:7A:81
            X509v3 Authority Key Identifier: 
                keyid:EC:42:3F:97:01:E5:D4:83:4C:2F:84:32:52:AB:83:C8:DB:8A:E4:6A
                DirName:/CN=team112-net
                serial:54:AF:40:33:89:21:5E:CE:D3:8C:54:0F:25:22:07:84:AA:12:70:69
            X509v3 Extended Key Usage: 
                TLS Web Server Authentication
            X509v3 Key Usage: 
                Digital Signature, Key Encipherment
            X509v3 Subject Alternative Name: 
                DNS:team112-server
    Signature Algorithm: sha256WithRSAEncryption
    Signature Value:
        85:62:ff:6a:67:f9:65:95:b7:ee:01:92:f5:86:c2:9b:cc:a6:
        5c:7d:f5:31:0d:88:40:7c:ea:52:a7:37:7c:ad:3d:4e:98:37:
        94:8b:19:51:c3:47:e4:e0:a9:cd:ad:51:b2:7d:7f:71:9c:8a:
        f3:52:8f:29:5f:ad:18:27:50:57:35:e3:e7:4d:13:10:ab:50:
        8b:04:92:67:ab:24:29:97:2b:95:ab:7d:de:77:23:aa:4b:4c:
        67:9f:ae:26:57:7d:e9:cf:96:17:6a:9c:7d:ca:26:4f:10:a6:
        23:b8:8e:56:0f:4c:04:74:74:b9:c6:61:25:4c:02:ed:7e:2b:
        55:ea:3f:93:e9:4b:39:42:a5:28:d9:ce:70:0d:43:d1:85:d6:
        8a:ba:e8:06:48:7f:c0:80:ea:ad:38:3b:08:5e:8c:e3:3d:21:
        49:ed:8b:55:51:55:c6:ca:68:e9:9d:e7:fc:f8:59:82:69:e7:
        36:81:8a:95:08:fa:dc:ec:a5:35:a5:a2:27:07:ee:51:29:8e:
        bd:66:ee:63:a8:03:fe:8b:51:ee:8a:6f:d8:2e:75:5a:8e:4b:
        81:98:41:57:3d:97:75:8c:5c:80:aa:d2:be:20:00:73:15:2e:
        b4:fb:39:20:16:ca:4f:35:94:0a:8e:7a:3a:32:2d:46:80:15:
        7b:c2:64:70
-----BEGIN CERTIFICATE-----
MIIDeDCCAmCgAwIBAgIRAL3X9CP4dxWeW+eJ354q4dkwDQYJKoZIhvcNAQELBQAw
FjEUMBIGA1UEAwwLdGVhbTExMi1uZXQwHhcNMjMxMTAzMjA0MTA5WhcNMjYxMDE4
MjA0MTA5WjAZMRcwFQYDVQQDDA50ZWFtMTEyLXNlcnZlcjCCASIwDQYJKoZIhvcN
AQEBBQADggEPADCCAQoCggEBANGVp5tOY7fOs8D+a8m9neJxtU0/8YxlfasSXLb1
7+eZuuHnxtcD85kGIuRsyDSF4EUYD5Hmdn67YoUXUyB9pgwkIWqWR4UnyL66fjo/
75bc/UMoDWf+bXB6XaJeTLJ38uHkJ34NhJhVwEb/ePa+IAmRmaogOgUoksW4Od/2
eNKnXZOI5wa4efdJpdeHMYOXxioTLoMQG1oTo97dl5OKwZ6N4Re31fKfpJmXKHL+
68MnCnjkzcNCSMhe87tfrhX4dQJcUOmjcjysNkktF0J9n3NDXrDKA/0S0Gk7jVyN
0cazwSvxSzTTiOauR/tAaF38QX3PN3EBMwbFJsbdAImX25ECAwEAAaOBvTCBujAJ
BgNVHRMEAjAAMB0GA1UdDgQWBBQA69B2/AjLax0DSZGj1qDbfWZ6gTBRBgNVHSME
SjBIgBTsQj+XAeXUg0wvhDJSq4PI24rkaqEapBgwFjEUMBIGA1UEAwwLdGVhbTEx
Mi1uZXSCFFSvQDOJIV7O04xUDyUiB4SqEnBpMBMGA1UdJQQMMAoGCCsGAQUFBwMB
MAsGA1UdDwQEAwIFoDAZBgNVHREEEjAQgg50ZWFtMTEyLXNlcnZlcjANBgkqhkiG
9w0BAQsFAAOCAQEAhWL/amf5ZZW37gGS9YbCm8ymXH31MQ2IQHzqUqc3fK09Tpg3
lIsZUcNH5OCpza1Rsn1/cZyK81KPKV+tGCdQVzXj500TEKtQiwSSZ6skKZcrlat9
3ncjqktMZ5+uJld96c+WF2qcfcomTxCmI7iOVg9MBHR0ucZhJUwC7X4rVeo/k+lL
OUKlKNnOcA1D0YXWirroBkh/wIDqrTg7CF6M4z0hSe2LVVFVxspo6Z3n/PhZgmnn
NoGKlQj63OylNaWiJwfuUSmOvWbuY6gD/otR7opv2C51Wo5LgZhBVz2XdYxcgKrS
viAAcxUutPs5IBbKTzWUCo56OjItRoAVe8JkcA==
-----END CERTIFICATE-----
