Certificate:
    Data:
        Version: 3 (0x2)
        Serial Number:
            a6:9c:14:84:39:0c:81:5f:1c:a8:96:d6:5a:ff:95:15
        Signature Algorithm: sha256WithRSAEncryption
        Issuer: CN=team397-net
        Validity
            Not Before: Nov  3 20:46:24 2023 GMT
            Not After : Oct 18 20:46:24 2026 GMT
        Subject: CN=team397-client
        Subject Public Key Info:
            Public Key Algorithm: rsaEncryption
                Public-Key: (2048 bit)
                Modulus:
                    00:af:5b:16:12:56:fc:2c:60:b0:fa:f1:80:8a:89:
                    1d:52:37:ff:90:2a:ca:46:ab:86:3d:55:77:35:33:
                    cf:b3:f2:87:72:5a:34:4b:ea:4e:c0:9b:04:93:40:
                    8b:dc:28:68:2b:3e:26:cb:e5:ae:9e:12:e7:bb:b2:
                    5d:e6:2f:b8:40:02:ca:d9:b3:cb:68:c2:9b:c6:cc:
                    cd:f4:b5:76:20:bf:bc:d3:ff:b4:1b:26:15:87:a6:
                    ec:29:a3:6e:b6:2c:d2:26:53:ae:3a:e3:ab:60:dd:
                    2d:89:c8:f9:89:94:a2:14:1d:f7:ad:19:79:52:7c:
                    27:d6:68:62:ae:cc:88:e4:26:b3:72:af:66:f0:f5:
                    85:62:b1:87:d5:4f:2b:31:2e:dd:26:7e:82:36:a8:
                    18:91:98:81:8d:a2:de:eb:55:17:02:aa:8d:34:fe:
                    7a:fd:a0:0f:82:86:67:17:ef:f1:d0:28:3d:34:9d:
                    48:11:3d:45:a1:c9:24:ea:37:40:b6:a0:8c:9d:41:
                    f0:52:04:4d:6b:d6:51:cd:11:fa:10:f4:c1:9c:01:
                    03:d5:42:1b:45:3f:ee:ed:1f:c2:18:1c:a8:1a:ae:
                    38:e5:6d:f3:70:cb:b5:11:5d:4b:d0:7d:19:01:40:
                    39:3c:a3:8b:78:10:06:b7:2c:8b:e2:1c:2f:cf:41:
                    d0:5b
                Exponent: 65537 (0x10001)
        X509v3 extensions:
            X509v3 Basic Constraints: 
                CA:FALSE
            X509v3 Subject Key Identifier: 
                FF:31:78:83:98:3B:FF:38:40:AF:A3:E2:9F:98:07:FF:F4:0F:3C:F3
            X509v3 Authority Key Identifier: 
                keyid:44:F9:52:DE:7D:23:56:24:D2:0D:D9:0B:EC:6A:F6:FF:9E:AE:ED:BC
                DirName:/CN=team397-net
                serial:4D:75:95:C7:14:D2:5C:C2:B5:16:4A:25:8E:EA:C3:38:B5:60:66:1B
            X509v3 Extended Key Usage: 
                TLS Web Client Authentication
            X509v3 Key Usage: 
                Digital Signature
    Signature Algorithm: sha256WithRSAEncryption
    Signature Value:
        06:56:d2:99:ef:61:6a:c9:07:1d:f2:b2:b5:28:b2:85:a6:0c:
        f9:ad:87:2c:1d:95:bb:97:97:0e:20:fc:c2:6e:46:2c:bf:1d:
        43:c0:ac:72:4c:f5:54:51:46:2e:7d:cd:b9:b0:a5:22:10:e8:
        41:b3:16:84:01:0b:11:12:98:6c:0d:09:b0:73:51:20:57:5f:
        6a:19:00:a4:a8:44:33:72:25:96:18:7c:bd:7f:21:b5:f5:34:
        b2:91:16:6a:85:37:57:83:42:ff:e8:88:49:fe:73:6a:89:33:
        64:4b:b9:a6:b2:24:9b:70:74:a4:e6:c4:7b:36:a3:e4:f5:33:
        23:8e:f1:ff:ed:f2:1f:54:bc:c6:ad:f3:3d:01:55:17:ce:94:
        81:a7:91:61:98:8c:27:c0:ff:bb:f7:57:92:b9:16:7d:9f:62:
        b4:85:53:de:15:80:a2:32:00:de:b0:e3:d1:20:f5:c7:89:67:
        79:45:88:ae:b8:74:97:25:ae:05:33:a9:2f:b5:0f:21:04:d7:
        c7:c3:1f:ec:d6:12:e2:cb:ee:9a:da:e0:88:b7:40:3e:cc:64:
        cb:cf:52:38:07:02:3d:d7:06:19:6b:ce:f1:fc:85:cd:04:3d:
        b0:0c:0d:92:c8:0e:68:16:90:2d:45:4f:d3:49:33:84:7a:84:
        66:9f:7d:13
-----BEGIN CERTIFICATE-----
MIIDXTCCAkWgAwIBAgIRAKacFIQ5DIFfHKiW1lr/lRUwDQYJKoZIhvcNAQELBQAw
FjEUMBIGA1UEAwwLdGVhbTM5Ny1uZXQwHhcNMjMxMTAzMjA0NjI0WhcNMjYxMDE4
MjA0NjI0WjAZMRcwFQYDVQQDDA50ZWFtMzk3LWNsaWVudDCCASIwDQYJKoZIhvcN
AQEBBQADggEPADCCAQoCggEBAK9bFhJW/CxgsPrxgIqJHVI3/5Aqykarhj1VdzUz
z7Pyh3JaNEvqTsCbBJNAi9woaCs+Jsvlrp4S57uyXeYvuEACytmzy2jCm8bMzfS1
diC/vNP/tBsmFYem7CmjbrYs0iZTrjrjq2DdLYnI+YmUohQd960ZeVJ8J9ZoYq7M
iOQms3KvZvD1hWKxh9VPKzEu3SZ+gjaoGJGYgY2i3utVFwKqjTT+ev2gD4KGZxfv
8dAoPTSdSBE9RaHJJOo3QLagjJ1B8FIETWvWUc0R+hD0wZwBA9VCG0U/7u0fwhgc
qBquOOVt83DLtRFdS9B9GQFAOTyji3gQBrcsi+IcL89B0FsCAwEAAaOBojCBnzAJ
BgNVHRMEAjAAMB0GA1UdDgQWBBT/MXiDmDv/OECvo+KfmAf/9A888zBRBgNVHSME
SjBIgBRE+VLefSNWJNIN2Qvsavb/nq7tvKEapBgwFjEUMBIGA1UEAwwLdGVhbTM5
Ny1uZXSCFE11lccU0lzCtRZKJY7qwzi1YGYbMBMGA1UdJQQMMAoGCCsGAQUFBwMC
MAsGA1UdDwQEAwIHgDANBgkqhkiG9w0BAQsFAAOCAQEABlbSme9haskHHfKytSiy
haYM+a2HLB2Vu5eXDiD8wm5GLL8dQ8Csckz1VFFGLn3NubClIhDoQbMWhAELERKY
bA0JsHNRIFdfahkApKhEM3Illhh8vX8htfU0spEWaoU3V4NC/+iISf5zaokzZEu5
prIkm3B0pObEezaj5PUzI47x/+3yH1S8xq3zPQFVF86UgaeRYZiMJ8D/u/dXkrkW
fZ9itIVT3hWAojIA3rDj0SD1x4lneUWIrrh0lyWuBTOpL7UPIQTXx8Mf7NYS4svu
mtrgiLdAPsxky89SOAcCPdcGGWvO8fyFzQQ9sAwNksgOaBaQLUVP00kzhHqEZp99
Ew==
-----END CERTIFICATE-----
