Certificate:
    Data:
        Version: 3 (0x2)
        Serial Number:
            9e:a7:68:2d:29:da:89:5e:50:93:09:36:de:2d:1f:72
        Signature Algorithm: sha256WithRSAEncryption
        Issuer: CN=team397-net
        Validity
            Not Before: Nov  3 20:46:25 2023 GMT
            Not After : Oct 18 20:46:25 2026 GMT
        Subject: CN=team397-server
        Subject Public Key Info:
            Public Key Algorithm: rsaEncryption
                Public-Key: (2048 bit)
                Modulus:
                    00:ca:1a:17:df:9c:d4:1b:89:c7:dc:4e:0a:b1:18:
                    98:99:28:37:8b:b7:3c:04:9a:2a:1b:d3:c4:51:70:
                    0a:bd:38:00:21:0b:6a:a2:99:0e:81:75:20:a0:8a:
                    28:ad:40:6b:12:60:c4:cd:0d:81:57:7e:87:8d:99:
                    f1:76:0b:d2:e0:a9:2b:11:18:6e:80:a5:f6:44:56:
                    18:24:71:c9:15:88:75:f4:5a:3c:b9:ad:34:56:8e:
                    d8:10:30:3b:cf:68:38:c8:fb:16:b6:c8:7b:1d:8e:
                    07:1f:53:41:84:47:bb:94:d4:9c:f8:80:1e:61:29:
                    25:d2:5d:e5:2b:99:62:13:4d:40:50:10:0e:87:40:
                    ac:98:b0:11:b5:6f:76:e9:42:98:01:44:50:70:bf:
                    40:9f:02:95:78:e5:f0:49:fb:43:d4:50:f6:27:20:
                    7c:df:48:a6:ad:f0:e8:b6:51:99:c6:68:9b:41:c4:
                    1f:78:53:62:33:92:db:b9:fa:2f:bf:bb:b4:2c:96:
                    e8:e4:33:1b:41:7e:09:34:b1:a9:7c:6f:0d:b5:82:
                    bf:a7:d6:ee:fc:d5:13:1a:a0:85:3e:ad:bc:e0:fe:
                    02:3a:48:04:dc:6b:1a:8b:1b:06:9c:8b:6d:18:4c:
                    de:7f:cd:ea:d0:41:de:b2:68:7b:97:cf:c3:8e:2c:
                    e4:f1
                Exponent: 65537 (0x10001)
        X509v3 extensions:
            X509v3 Basic Constraints: 
                CA:FALSE
            X509v3 Subject Key Identifier: 
                01:21:14:15:D1:15:19:AE:B9:94:26:59:24:BB:09:08:2B:EE:03:1D
            X509v3 Authority Key Identifier: 
                keyid:44:F9:52:DE:7D:23:56:24:D2:0D:D9:0B:EC:6A:F6:FF:9E:AE:ED:BC
                DirName:/CN=team397-net
                serial:4D:75:95:C7:14:D2:5C:C2:B5:16:4A:25:8E:EA:C3:38:B5:60:66:1B
            X509v3 Extended Key Usage: 
                TLS Web Server Authentication
            X509v3 Key Usage: 
                Digital Signature, Key Encipherment
            X509v3 Subject Alternative Name: 
                DNS:team397-server
    Signature Algorithm: sha256WithRSAEncryption
    Signature Value:
        77:79:97:71:23:2e:41:9f:35:bf:e3:b2:ed:18:da:f7:c7:15:
        df:ca:a7:ad:6a:c1:61:7b:b7:f9:10:b6:1e:e5:14:a3:ea:99:
        3b:b1:c2:35:22:03:55:6f:37:95:46:e8:79:9e:f8:29:67:98:
        b0:f8:fd:6a:57:48:18:6f:7f:33:8b:0b:6b:48:34:5d:ea:b0:
        68:86:31:8d:3d:a2:4d:d8:e2:e0:05:b4:fc:98:8e:42:21:d4:
        db:6e:47:6f:cf:7a:f3:f6:00:51:35:4a:a4:1c:13:e2:d1:39:
        b5:60:e5:6d:e8:e2:25:dc:7f:46:1c:70:37:d5:3b:08:25:b6:
        86:26:fd:c1:8c:6e:1f:2e:5a:fb:38:bf:7e:79:c5:13:c5:f0:
        80:64:30:15:57:d4:a9:c8:2b:9c:d7:a1:de:a1:99:9f:4d:91:
        13:9d:a9:79:55:fe:fb:1f:cb:1a:05:0d:39:17:61:aa:d5:2e:
        44:29:67:d1:0f:52:16:bb:a2:34:54:6d:71:8a:39:6f:b4:59:
        b2:9a:dd:d0:42:00:fb:d2:5d:98:a7:d0:b7:a3:6d:43:52:cb:
        a0:ff:f7:ab:e1:ad:a3:c4:e3:66:58:e6:e5:c9:8c:91:13:4e:
        af:a8:7f:88:15:f4:e1:00:5c:b0:8e:db:c6:ab:37:e2:df:ce:
        27:e9:ba:19
-----BEGIN CERTIFICATE-----
MIIDeDCCAmCgAwIBAgIRAJ6naC0p2oleUJMJNt4tH3IwDQYJKoZIhvcNAQELBQAw
FjEUMBIGA1UEAwwLdGVhbTM5Ny1uZXQwHhcNMjMxMTAzMjA0NjI1WhcNMjYxMDE4
MjA0NjI1WjAZMRcwFQYDVQQDDA50ZWFtMzk3LXNlcnZlcjCCASIwDQYJKoZIhvcN
AQEBBQADggEPADCCAQoCggEBAMoaF9+c1BuJx9xOCrEYmJkoN4u3PASaKhvTxFFw
Cr04ACELaqKZDoF1IKCKKK1AaxJgxM0NgVd+h42Z8XYL0uCpKxEYboCl9kRWGCRx
yRWIdfRaPLmtNFaO2BAwO89oOMj7FrbIex2OBx9TQYRHu5TUnPiAHmEpJdJd5SuZ
YhNNQFAQDodArJiwEbVvdulCmAFEUHC/QJ8ClXjl8En7Q9RQ9icgfN9Ipq3w6LZR
mcZom0HEH3hTYjOS27n6L7+7tCyW6OQzG0F+CTSxqXxvDbWCv6fW7vzVExqghT6t
vOD+AjpIBNxrGosbBpyLbRhM3n/N6tBB3rJoe5fPw44s5PECAwEAAaOBvTCBujAJ
BgNVHRMEAjAAMB0GA1UdDgQWBBQBIRQV0RUZrrmUJlkkuwkIK+4DHTBRBgNVHSME
SjBIgBRE+VLefSNWJNIN2Qvsavb/nq7tvKEapBgwFjEUMBIGA1UEAwwLdGVhbTM5
Ny1uZXSCFE11lccU0lzCtRZKJY7qwzi1YGYbMBMGA1UdJQQMMAoGCCsGAQUFBwMB
MAsGA1UdDwQEAwIFoDAZBgNVHREEEjAQgg50ZWFtMzk3LXNlcnZlcjANBgkqhkiG
9w0BAQsFAAOCAQEAd3mXcSMuQZ81v+Oy7Rja98cV38qnrWrBYXu3+RC2HuUUo+qZ
O7HCNSIDVW83lUboeZ74KWeYsPj9aldIGG9/M4sLa0g0XeqwaIYxjT2iTdji4AW0
/JiOQiHU225Hb8968/YAUTVKpBwT4tE5tWDlbejiJdx/RhxwN9U7CCW2hib9wYxu
Hy5a+zi/fnnFE8XwgGQwFVfUqcgrnNeh3qGZn02RE52peVX++x/LGgUNORdhqtUu
RCln0Q9SFruiNFRtcYo5b7RZsprd0EIA+9JdmKfQt6NtQ1LLoP/3q+Gto8TjZljm
5cmMkRNOr6h/iBX04QBcsI7bxqs34t/OJ+m6GQ==
-----END CERTIFICATE-----
