Certificate:
    Data:
        Version: 3 (0x2)
        Serial Number:
            72:33:bf:da:a6:ba:2b:d0:cd:37:b2:90:4e:42:84:2c
        Signature Algorithm: sha256WithRSAEncryption
        Issuer: CN=team430-net
        Validity
            Not Before: Nov  4 10:48:22 2023 GMT
            Not After : Oct 19 10:48:22 2026 GMT
        Subject: CN=team430-client
        Subject Public Key Info:
            Public Key Algorithm: rsaEncryption
                Public-Key: (2048 bit)
                Modulus:
                    00:bc:46:06:f7:33:6e:1e:b7:10:60:14:97:46:1c:
                    4f:68:f0:c2:f2:83:65:55:76:58:cc:ec:7b:8e:57:
                    d1:7a:ad:ed:8c:f5:e2:4a:48:96:f4:a7:7f:4a:8d:
                    96:c0:fb:7a:d3:92:6f:e3:5c:b8:79:5e:0e:f2:ba:
                    17:b8:b8:62:74:e9:e3:18:75:70:66:a6:06:60:48:
                    d4:fa:d9:74:cd:b3:a4:67:bd:8a:58:94:43:f0:8f:
                    dd:fb:84:1a:31:9c:eb:05:61:8b:73:31:c4:34:bb:
                    5d:80:2d:43:31:42:61:c8:be:90:e7:00:c1:d7:e5:
                    ba:4c:e0:6a:7e:26:0d:19:8b:aa:48:3f:e7:52:10:
                    d4:6d:42:72:27:86:66:11:8c:84:ed:85:9a:d5:eb:
                    ee:7d:f6:57:bc:20:49:0c:4b:ab:ae:e2:45:5e:9e:
                    87:2b:9e:4a:a4:89:71:8d:8f:4d:5e:a4:c0:0a:43:
                    72:22:7a:26:36:34:d3:74:cf:31:4d:a7:5e:86:47:
                    aa:7e:af:26:36:fc:c6:8b:b2:f8:2e:12:92:5e:d6:
                    7c:1e:2f:31:0c:53:c3:7b:b9:af:ec:5f:37:bc:2f:
                    79:4d:eb:57:af:d2:00:f3:c0:cb:63:61:14:be:7e:
                    75:21:14:15:b2:02:9a:b7:e4:73:5f:e9:bb:54:04:
                    dc:bd
                Exponent: 65537 (0x10001)
        X509v3 extensions:
            X509v3 Basic Constraints: 
                CA:FALSE
            X509v3 Subject Key Identifier: 
                F7:36:97:D5:0E:D3:6A:6B:15:6B:D8:B8:7F:5B:42:73:32:EE:6F:A7
            X509v3 Authority Key Identifier: 
                keyid:20:B8:02:FC:3C:3B:5F:61:5F:D3:BE:1D:3E:A1:A2:23:59:45:FE:2C
                DirName:/CN=team430-net
                serial:23:F3:A3:18:4A:CD:34:55:02:B9:F6:6B:AE:37:23:05:F9:C6:18:3D
            X509v3 Extended Key Usage: 
                TLS Web Client Authentication
            X509v3 Key Usage: 
                Digital Signature
    Signature Algorithm: sha256WithRSAEncryption
    Signature Value:
        15:e7:3c:8f:12:bc:41:19:c2:a0:14:16:1c:3f:a6:12:fc:20:
        40:54:d5:23:d9:19:00:54:1a:fd:cc:f2:f5:1f:18:1e:1f:ce:
        2e:0a:f4:e0:c7:00:0f:eb:3f:d1:b3:6f:3b:72:8e:4b:cb:6a:
        9d:0a:a2:b4:31:98:dc:53:28:69:af:74:66:59:08:98:2b:ae:
        6e:da:a5:e6:b7:4e:87:6e:38:a6:04:7d:29:f9:94:cb:4c:4f:
        f3:a0:97:88:fb:83:a7:d1:98:b7:75:18:09:2c:e6:91:7c:8c:
        02:bb:68:48:c2:66:6a:31:a2:94:92:65:56:d2:06:e5:a9:bb:
        6b:9a:b6:ec:70:d6:d0:ea:55:d5:c9:0b:25:32:2d:45:44:24:
        f4:1d:d4:ed:17:8f:c8:19:b9:17:54:1d:2d:91:cf:97:57:90:
        42:31:35:4d:e5:35:c6:1c:1f:a1:5e:2d:a0:d6:b6:b9:a5:55:
        ed:88:4e:3c:4c:af:a8:ff:9a:54:e4:06:b6:b6:76:34:bc:39:
        66:9c:e8:24:aa:43:19:5e:7b:2b:cc:e4:93:b1:92:f2:d9:e6:
        82:fa:63:56:4f:e9:36:b6:58:d7:3f:1e:1f:bd:7a:35:7a:25:
        30:50:1d:84:3a:4d:f3:da:b1:42:07:76:c9:8f:e1:37:e0:84:
        bf:1b:7b:87
-----BEGIN CERTIFICATE-----
MIIDXDCCAkSgAwIBAgIQcjO/2qa6K9DNN7KQTkKELDANBgkqhkiG9w0BAQsFADAW
MRQwEgYDVQQDDAt0ZWFtNDMwLW5ldDAeFw0yMzExMDQxMDQ4MjJaFw0yNjEwMTkx
MDQ4MjJaMBkxFzAVBgNVBAMMDnRlYW00MzAtY2xpZW50MIIBIjANBgkqhkiG9w0B
AQEFAAOCAQ8AMIIBCgKCAQEAvEYG9zNuHrcQYBSXRhxPaPDC8oNlVXZYzOx7jlfR
eq3tjPXiSkiW9Kd/So2WwPt605Jv41y4eV4O8roXuLhidOnjGHVwZqYGYEjU+tl0
zbOkZ72KWJRD8I/d+4QaMZzrBWGLczHENLtdgC1DMUJhyL6Q5wDB1+W6TOBqfiYN
GYuqSD/nUhDUbUJyJ4ZmEYyE7YWa1evuffZXvCBJDEurruJFXp6HK55KpIlxjY9N
XqTACkNyInomNjTTdM8xTadehkeqfq8mNvzGi7L4LhKSXtZ8Hi8xDFPDe7mv7F83
vC95TetXr9IA88DLY2EUvn51IRQVsgKat+RzX+m7VATcvQIDAQABo4GiMIGfMAkG
A1UdEwQCMAAwHQYDVR0OBBYEFPc2l9UO02prFWvYuH9bQnMy7m+nMFEGA1UdIwRK
MEiAFCC4Avw8O19hX9O+HT6hoiNZRf4soRqkGDAWMRQwEgYDVQQDDAt0ZWFtNDMw
LW5ldIIUI/OjGErNNFUCufZrrjcjBfnGGD0wEwYDVR0lBAwwCgYIKwYBBQUHAwIw
CwYDVR0PBAQDAgeAMA0GCSqGSIb3DQEBCwUAA4IBAQAV5zyPErxBGcKgFBYcP6YS
/CBAVNUj2RkAVBr9zPL1HxgeH84uCvTgxwAP6z/Rs287co5Ly2qdCqK0MZjcUyhp
r3RmWQiYK65u2qXmt06HbjimBH0p+ZTLTE/zoJeI+4On0Zi3dRgJLOaRfIwCu2hI
wmZqMaKUkmVW0gblqbtrmrbscNbQ6lXVyQslMi1FRCT0HdTtF4/IGbkXVB0tkc+X
V5BCMTVN5TXGHB+hXi2g1ra5pVXtiE48TK+o/5pU5Aa2tnY0vDlmnOgkqkMZXnsr
zOSTsZLy2eaC+mNWT+k2tljXPx4fvXo1eiUwUB2EOk3z2rFCB3bJj+E34IS/G3uH
-----END CERTIFICATE-----
