Certificate:
    Data:
        Version: 3 (0x2)
        Serial Number:
            09:84:51:ec:d9:58:bf:71:3e:0b:a8:8c:75:1e:ac:5d
        Signature Algorithm: sha256WithRSAEncryption
        Issuer: CN=team181-net
        Validity
            Not Before: Nov  4 11:31:13 2023 GMT
            Not After : Oct 19 11:31:13 2026 GMT
        Subject: CN=team181-server
        Subject Public Key Info:
            Public Key Algorithm: rsaEncryption
                Public-Key: (2048 bit)
                Modulus:
                    00:97:23:30:74:2e:15:7a:73:11:69:93:2b:03:1b:
                    79:f0:ea:2b:1b:43:f3:21:37:09:e4:1f:bc:4f:7f:
                    71:f0:76:7f:2b:c1:41:b1:0b:67:cc:9f:53:73:97:
                    f9:2b:a3:26:24:fc:64:ed:48:1f:05:fc:25:50:27:
                    06:9d:87:e7:f8:cc:e8:e5:75:1c:c0:e5:8e:e3:2f:
                    e7:7f:5d:60:f5:26:19:3c:3d:1a:a7:68:8c:9c:97:
                    a3:19:72:75:1b:ba:71:81:9d:72:3c:db:3f:f2:12:
                    94:29:ed:12:f9:fb:2c:86:82:7e:78:14:40:5a:27:
                    6b:a1:d0:ac:11:35:54:ce:d2:03:1a:ae:af:87:51:
                    0b:d9:a7:1a:0a:ec:f6:55:a8:36:44:95:54:e4:b0:
                    f0:43:81:a5:60:51:b3:34:02:15:22:c2:40:79:59:
                    63:f1:7e:17:58:30:49:b5:98:1b:9b:a3:8a:4b:5c:
                    17:1d:78:e9:d3:5a:8f:ed:0b:3c:c2:16:a8:78:e5:
                    42:8f:a5:29:da:a5:7d:15:db:4a:08:b1:4c:0c:b4:
                    5b:c2:2c:46:20:24:b2:2d:78:8d:42:e1:bb:8f:0f:
                    37:e7:f2:75:64:cc:a4:f5:db:c9:f4:a0:f0:3b:23:
                    86:5b:c3:1d:70:18:a0:6d:88:3f:b2:d1:4c:e8:b2:
                    2d:79
                Exponent: 65537 (0x10001)
        X509v3 extensions:
            X509v3 Basic Constraints: 
                CA:FALSE
            X509v3 Subject Key Identifier: 
                C2:6A:FA:B2:BC:11:AD:66:38:F8:4B:F9:8F:78:CA:7D:42:DE:D0:B2
            X509v3 Authority Key Identifier: 
                keyid:C0:29:60:11:DD:AE:DC:EB:A7:34:E3:BB:46:38:71:A9:17:74:8B:42
                DirName:/CN=team181-net
                serial:75:26:4D:58:A1:9F:03:DC:A7:9D:6A:58:94:46:52:FB:A7:BD:3E:1A
            X509v3 Extended Key Usage: 
                TLS Web Server Authentication
            X509v3 Key Usage: 
                Digital Signature, Key Encipherment
            X509v3 Subject Alternative Name: 
                DNS:team181-server
    Signature Algorithm: sha256WithRSAEncryption
    Signature Value:
        a1:4b:90:f6:c9:07:5c:a6:7d:70:8d:2c:2c:63:74:74:b6:18:
        c9:8e:48:9b:ed:3a:bb:33:45:d4:78:41:f2:d2:1d:ca:ae:5f:
        e2:b3:50:af:ab:37:f3:59:f2:00:2f:b5:8d:a5:e4:81:37:bf:
        da:94:e8:38:02:3f:1a:bd:48:7f:1a:01:be:d9:12:d4:3d:52:
        0b:61:a2:6b:76:3c:93:4c:b3:aa:b7:73:15:3a:92:b2:bc:2c:
        60:6a:21:9d:0e:49:36:f7:c9:07:d7:11:bd:2f:e6:a9:71:91:
        0f:53:8c:e3:a5:ae:b2:75:ab:eb:cd:88:74:3e:8c:54:6c:ef:
        1f:7a:3f:40:f1:a6:36:8a:3f:47:7c:58:00:17:ca:25:4e:a1:
        36:92:d0:79:eb:4a:c6:67:86:9a:50:39:b5:d6:bb:91:0d:65:
        94:06:52:60:56:38:af:0c:2a:31:0f:e4:c9:54:16:87:56:ac:
        40:b3:d5:be:dc:2d:8d:6c:b6:c9:f1:48:12:72:cb:1d:57:b1:
        cc:93:ae:5b:45:d1:56:c2:f9:97:98:bd:fa:c6:81:a8:3b:8f:
        67:5e:c5:9a:44:d5:55:6f:aa:85:a3:55:94:22:80:ba:a4:4d:
        e7:dd:69:f3:ea:87:a3:b1:53:ca:10:c1:c9:e2:21:f0:0a:97:
        45:89:d9:2b
-----BEGIN CERTIFICATE-----
MIIDdzCCAl+gAwIBAgIQCYRR7NlYv3E+C6iMdR6sXTANBgkqhkiG9w0BAQsFADAW
MRQwEgYDVQQDDAt0ZWFtMTgxLW5ldDAeFw0yMzExMDQxMTMxMTNaFw0yNjEwMTkx
MTMxMTNaMBkxFzAVBgNVBAMMDnRlYW0xODEtc2VydmVyMIIBIjANBgkqhkiG9w0B
AQEFAAOCAQ8AMIIBCgKCAQEAlyMwdC4VenMRaZMrAxt58OorG0PzITcJ5B+8T39x
8HZ/K8FBsQtnzJ9Tc5f5K6MmJPxk7UgfBfwlUCcGnYfn+Mzo5XUcwOWO4y/nf11g
9SYZPD0ap2iMnJejGXJ1G7pxgZ1yPNs/8hKUKe0S+fsshoJ+eBRAWidrodCsETVU
ztIDGq6vh1EL2acaCuz2Vag2RJVU5LDwQ4GlYFGzNAIVIsJAeVlj8X4XWDBJtZgb
m6OKS1wXHXjp01qP7Qs8whaoeOVCj6Up2qV9FdtKCLFMDLRbwixGICSyLXiNQuG7
jw835/J1ZMyk9dvJ9KDwOyOGW8MdcBigbYg/stFM6LIteQIDAQABo4G9MIG6MAkG
A1UdEwQCMAAwHQYDVR0OBBYEFMJq+rK8Ea1mOPhL+Y94yn1C3tCyMFEGA1UdIwRK
MEiAFMApYBHdrtzrpzTju0Y4cakXdItCoRqkGDAWMRQwEgYDVQQDDAt0ZWFtMTgx
LW5ldIIUdSZNWKGfA9ynnWpYlEZS+6e9PhowEwYDVR0lBAwwCgYIKwYBBQUHAwEw
CwYDVR0PBAQDAgWgMBkGA1UdEQQSMBCCDnRlYW0xODEtc2VydmVyMA0GCSqGSIb3
DQEBCwUAA4IBAQChS5D2yQdcpn1wjSwsY3R0thjJjkib7Tq7M0XUeEHy0h3Krl/i
s1CvqzfzWfIAL7WNpeSBN7/alOg4Aj8avUh/GgG+2RLUPVILYaJrdjyTTLOqt3MV
OpKyvCxgaiGdDkk298kH1xG9L+apcZEPU4zjpa6ydavrzYh0PoxUbO8fej9A8aY2
ij9HfFgAF8olTqE2ktB560rGZ4aaUDm11ruRDWWUBlJgVjivDCoxD+TJVBaHVqxA
s9W+3C2NbLbJ8UgScssdV7HMk65bRdFWwvmXmL36xoGoO49nXsWaRNVVb6qFo1WU
IoC6pE3n3Wnz6oejsVPKEMHJ4iHwCpdFidkr
-----END CERTIFICATE-----
