Certificate:
    Data:
        Version: 3 (0x2)
        Serial Number:
            c6:28:e3:65:d6:69:63:13:28:a8:2f:bf:fa:02:47:27
        Signature Algorithm: sha256WithRSAEncryption
        Issuer: CN=team181-net
        Validity
            Not Before: Nov  4 10:43:54 2023 GMT
            Not After : Oct 19 10:43:54 2026 GMT
        Subject: CN=team181-client
        Subject Public Key Info:
            Public Key Algorithm: rsaEncryption
                Public-Key: (2048 bit)
                Modulus:
                    00:92:40:a8:53:8d:4d:25:12:ea:65:55:f8:12:34:
                    f1:e2:c2:b3:88:2e:51:72:13:5a:ff:54:8a:8b:41:
                    dc:75:d0:95:be:da:7f:dc:bb:6e:17:96:b7:f6:ea:
                    95:be:1e:60:6c:20:1d:e7:70:4b:f7:3e:a3:b2:ba:
                    93:1a:8e:49:7b:75:25:ff:a3:ff:84:aa:b0:f0:5a:
                    b1:a5:bc:0d:74:9d:f5:f8:e6:f2:c5:76:c5:1b:71:
                    a3:62:36:ce:bc:48:9b:92:ee:33:0a:ed:c8:42:83:
                    d1:13:dc:0d:c2:1d:a9:3a:32:66:45:c5:98:7b:ff:
                    8b:dd:3e:2e:7c:15:1c:5b:30:b9:d6:b0:d4:21:ed:
                    77:12:1c:75:9c:ab:84:2d:fd:02:58:f6:f7:53:da:
                    0d:1e:b5:65:af:11:fd:02:b6:27:e8:eb:db:61:95:
                    41:e7:56:bd:e3:b3:01:78:26:a5:ef:67:57:ad:b4:
                    f6:ef:f4:37:ad:76:53:72:5c:0c:48:df:e9:c6:9f:
                    20:85:88:34:cb:8b:b8:8d:7f:af:d3:5a:34:2b:a4:
                    a5:3d:3e:b9:9f:08:59:07:c0:fd:19:83:58:26:6c:
                    2d:04:a3:31:fd:3c:62:f6:06:2e:b0:84:fd:2f:24:
                    38:02:13:d6:6c:4e:b8:49:b5:5f:49:28:0b:4e:47:
                    75:8f
                Exponent: 65537 (0x10001)
        X509v3 extensions:
            X509v3 Basic Constraints: 
                CA:FALSE
            X509v3 Subject Key Identifier: 
                D1:88:86:05:72:F1:B3:0B:62:11:28:7F:1C:39:F0:55:58:62:9F:F4
            X509v3 Authority Key Identifier: 
                keyid:53:7F:2D:6C:6D:E0:AD:A2:76:1E:41:24:3D:7B:2E:EF:A0:EB:B8:D6
                DirName:/CN=team181-net
                serial:44:88:F8:43:A5:4C:90:79:53:E9:10:BF:D1:84:BB:61:2B:7C:F1:CF
            X509v3 Extended Key Usage: 
                TLS Web Client Authentication
            X509v3 Key Usage: 
                Digital Signature
    Signature Algorithm: sha256WithRSAEncryption
    Signature Value:
        95:fd:54:31:28:8b:cd:f8:4e:93:58:21:d2:88:34:bc:d2:79:
        c2:a5:11:16:ca:d4:22:4d:ba:87:c4:0e:85:c7:b3:45:bf:41:
        40:2f:4c:52:ac:9c:39:63:a2:a0:94:b1:ce:ad:7d:a4:d0:f5:
        cf:8b:aa:b9:6c:c1:43:61:77:1f:a4:26:4c:0d:b6:c9:cb:19:
        00:7d:d4:e9:69:9b:25:fd:fc:52:5c:2e:60:5a:43:49:2b:cb:
        10:f1:89:20:51:0d:74:f6:29:5f:f1:71:8a:1b:43:06:e3:56:
        21:84:68:2f:37:6a:f5:5d:af:d1:74:2e:a6:19:2b:d9:0a:71:
        75:2e:0c:91:2b:ac:c0:dc:3a:fa:7d:53:9f:bf:fa:70:07:67:
        90:ca:f0:e8:95:1c:36:39:47:93:5b:d0:b0:0f:f7:54:b6:f8:
        db:1e:36:97:be:67:db:00:9b:85:11:52:e1:9c:4b:59:65:ed:
        14:c2:20:d3:66:db:cc:5d:8b:5b:bd:9e:ae:15:a2:ae:e9:f1:
        17:47:03:f4:61:23:80:6d:06:3f:06:55:a4:80:75:fc:78:8d:
        e0:47:11:a6:3c:48:66:59:90:05:75:5e:97:06:09:13:4b:3e:
        b5:5e:63:14:a6:89:2b:c2:a9:5e:44:be:aa:5b:e8:3a:34:d9:
        19:6a:a6:39
-----BEGIN CERTIFICATE-----
MIIDXTCCAkWgAwIBAgIRAMYo42XWaWMTKKgvv/oCRycwDQYJKoZIhvcNAQELBQAw
FjEUMBIGA1UEAwwLdGVhbTE4MS1uZXQwHhcNMjMxMTA0MTA0MzU0WhcNMjYxMDE5
MTA0MzU0WjAZMRcwFQYDVQQDDA50ZWFtMTgxLWNsaWVudDCCASIwDQYJKoZIhvcN
AQEBBQADggEPADCCAQoCggEBAJJAqFONTSUS6mVV+BI08eLCs4guUXITWv9UiotB
3HXQlb7af9y7bheWt/bqlb4eYGwgHedwS/c+o7K6kxqOSXt1Jf+j/4SqsPBasaW8
DXSd9fjm8sV2xRtxo2I2zrxIm5LuMwrtyEKD0RPcDcIdqToyZkXFmHv/i90+LnwV
HFswudaw1CHtdxIcdZyrhC39Alj291PaDR61Za8R/QK2J+jr22GVQedWveOzAXgm
pe9nV6209u/0N612U3JcDEjf6cafIIWINMuLuI1/r9NaNCukpT0+uZ8IWQfA/RmD
WCZsLQSjMf08YvYGLrCE/S8kOAIT1mxOuEm1X0koC05HdY8CAwEAAaOBojCBnzAJ
BgNVHRMEAjAAMB0GA1UdDgQWBBTRiIYFcvGzC2IRKH8cOfBVWGKf9DBRBgNVHSME
SjBIgBRTfy1sbeCtonYeQSQ9ey7voOu41qEapBgwFjEUMBIGA1UEAwwLdGVhbTE4
MS1uZXSCFESI+EOlTJB5U+kQv9GEu2ErfPHPMBMGA1UdJQQMMAoGCCsGAQUFBwMC
MAsGA1UdDwQEAwIHgDANBgkqhkiG9w0BAQsFAAOCAQEAlf1UMSiLzfhOk1gh0og0
vNJ5wqURFsrUIk26h8QOhcezRb9BQC9MUqycOWOioJSxzq19pND1z4uquWzBQ2F3
H6QmTA22ycsZAH3U6WmbJf38UlwuYFpDSSvLEPGJIFENdPYpX/FxihtDBuNWIYRo
Lzdq9V2v0XQuphkr2QpxdS4MkSuswNw6+n1Tn7/6cAdnkMrw6JUcNjlHk1vQsA/3
VLb42x42l75n2wCbhRFS4ZxLWWXtFMIg02bbzF2LW72erhWirunxF0cD9GEjgG0G
PwZVpIB1/HiN4EcRpjxIZlmQBXVelwYJE0s+tV5jFKaJK8KpXkS+qlvoOjTZGWqm
OQ==
-----END CERTIFICATE-----
