Certificate:
    Data:
        Version: 3 (0x2)
        Serial Number:
            ce:84:5d:41:ac:de:f5:5d:0a:d0:ce:36:84:04:87:4c
        Signature Algorithm: sha256WithRSAEncryption
        Issuer: CN=team181-net
        Validity
            Not Before: Nov  4 10:43:55 2023 GMT
            Not After : Oct 19 10:43:55 2026 GMT
        Subject: CN=team181-server
        Subject Public Key Info:
            Public Key Algorithm: rsaEncryption
                Public-Key: (2048 bit)
                Modulus:
                    00:94:6a:a7:aa:87:37:8f:f0:bb:be:b7:a2:1b:f4:
                    ca:cb:f0:44:e8:fe:ae:45:ce:77:a3:d2:d0:00:97:
                    ec:7a:07:3b:51:45:6e:e1:ae:0a:8a:4e:84:8c:19:
                    bb:d7:42:72:78:f7:0f:f6:10:17:c7:bb:b7:f7:34:
                    46:cb:3f:26:f8:4b:92:16:1d:44:2e:56:5b:d3:5f:
                    d1:47:88:82:91:61:44:17:99:5a:31:aa:65:53:4a:
                    7e:48:44:a0:e2:e3:94:23:91:3c:4e:a1:a1:01:44:
                    37:a5:0a:c9:da:f1:3c:05:2a:7a:f4:11:a0:06:72:
                    8c:c4:d8:c7:a0:e2:ab:5b:30:a1:11:0e:f9:98:63:
                    43:22:4a:ac:22:45:79:1d:ec:f8:03:0f:66:a0:15:
                    ed:95:d1:25:c9:6c:87:69:a1:eb:7b:d3:dd:c5:19:
                    ac:3c:36:73:6c:58:24:8a:16:93:81:b7:47:71:fd:
                    90:ca:23:2d:cc:c1:d9:af:9c:bf:1f:4e:c4:e5:ba:
                    78:7a:87:44:ab:e2:c5:9f:9e:02:3d:dc:10:e1:c4:
                    ec:92:1f:fb:74:0c:9d:e2:42:06:d9:31:6d:d2:7b:
                    05:3b:16:c8:87:57:fe:b0:2c:12:1b:78:a3:e0:28:
                    ae:c5:bd:68:bf:89:56:79:01:97:f0:86:ad:05:eb:
                    55:ff
                Exponent: 65537 (0x10001)
        X509v3 extensions:
            X509v3 Basic Constraints: 
                CA:FALSE
            X509v3 Subject Key Identifier: 
                8B:E6:7D:B7:E4:98:3A:76:A7:54:64:EB:0B:B9:58:7F:2A:62:BA:6C
            X509v3 Authority Key Identifier: 
                keyid:53:7F:2D:6C:6D:E0:AD:A2:76:1E:41:24:3D:7B:2E:EF:A0:EB:B8:D6
                DirName:/CN=team181-net
                serial:44:88:F8:43:A5:4C:90:79:53:E9:10:BF:D1:84:BB:61:2B:7C:F1:CF
            X509v3 Extended Key Usage: 
                TLS Web Server Authentication
            X509v3 Key Usage: 
                Digital Signature, Key Encipherment
            X509v3 Subject Alternative Name: 
                DNS:team181-server
    Signature Algorithm: sha256WithRSAEncryption
    Signature Value:
        8e:b1:56:12:87:44:e5:9b:0b:08:40:7a:d1:c4:a5:c5:ce:58:
        53:bc:6a:19:c8:b2:b8:0b:fd:48:6f:f4:57:f6:6e:bd:54:f5:
        ce:86:6a:13:39:fb:90:13:20:e2:74:a2:3a:9d:43:29:fc:86:
        67:b3:af:99:08:26:62:43:71:d3:41:6b:ef:5c:9c:87:98:3a:
        ed:b5:d9:53:35:dd:82:fe:9f:74:c4:b2:ee:5c:87:09:4a:c5:
        28:00:33:f2:38:26:6c:05:16:90:88:81:b1:5a:cc:a9:3e:ad:
        cc:84:d4:7b:54:74:0d:25:cf:5e:71:4f:96:ca:33:ff:e8:bb:
        f5:75:e0:a0:74:23:f9:f0:62:94:c3:81:c5:df:b5:73:c5:3f:
        5a:58:62:0e:d4:b5:e3:8e:43:a3:9f:88:8c:7f:1e:b8:2e:37:
        de:e9:4e:00:24:8e:a5:0d:15:67:85:6b:0a:9b:5a:5a:1d:ea:
        83:ef:31:ab:1f:83:ee:b4:d2:4c:94:7f:f5:7c:87:6e:f9:39:
        ba:76:da:00:86:f1:15:a7:ec:26:a6:70:e3:7a:8e:ae:54:45:
        f5:63:42:75:c5:26:a4:c6:4e:bd:93:05:81:a7:33:ca:64:dc:
        78:f7:b2:fb:49:62:3a:61:76:00:3c:41:f2:30:92:b5:08:04:
        d9:db:00:62
-----BEGIN CERTIFICATE-----
MIIDeDCCAmCgAwIBAgIRAM6EXUGs3vVdCtDONoQEh0wwDQYJKoZIhvcNAQELBQAw
FjEUMBIGA1UEAwwLdGVhbTE4MS1uZXQwHhcNMjMxMTA0MTA0MzU1WhcNMjYxMDE5
MTA0MzU1WjAZMRcwFQYDVQQDDA50ZWFtMTgxLXNlcnZlcjCCASIwDQYJKoZIhvcN
AQEBBQADggEPADCCAQoCggEBAJRqp6qHN4/wu763ohv0ysvwROj+rkXOd6PS0ACX
7HoHO1FFbuGuCopOhIwZu9dCcnj3D/YQF8e7t/c0Rss/JvhLkhYdRC5WW9Nf0UeI
gpFhRBeZWjGqZVNKfkhEoOLjlCORPE6hoQFEN6UKydrxPAUqevQRoAZyjMTYx6Di
q1swoREO+ZhjQyJKrCJFeR3s+AMPZqAV7ZXRJclsh2mh63vT3cUZrDw2c2xYJIoW
k4G3R3H9kMojLczB2a+cvx9OxOW6eHqHRKvixZ+eAj3cEOHE7JIf+3QMneJCBtkx
bdJ7BTsWyIdX/rAsEht4o+AorsW9aL+JVnkBl/CGrQXrVf8CAwEAAaOBvTCBujAJ
BgNVHRMEAjAAMB0GA1UdDgQWBBSL5n235Jg6dqdUZOsLuVh/KmK6bDBRBgNVHSME
SjBIgBRTfy1sbeCtonYeQSQ9ey7voOu41qEapBgwFjEUMBIGA1UEAwwLdGVhbTE4
MS1uZXSCFESI+EOlTJB5U+kQv9GEu2ErfPHPMBMGA1UdJQQMMAoGCCsGAQUFBwMB
MAsGA1UdDwQEAwIFoDAZBgNVHREEEjAQgg50ZWFtMTgxLXNlcnZlcjANBgkqhkiG
9w0BAQsFAAOCAQEAjrFWEodE5ZsLCEB60cSlxc5YU7xqGciyuAv9SG/0V/ZuvVT1
zoZqEzn7kBMg4nSiOp1DKfyGZ7OvmQgmYkNx00Fr71ych5g67bXZUzXdgv6fdMSy
7lyHCUrFKAAz8jgmbAUWkIiBsVrMqT6tzITUe1R0DSXPXnFPlsoz/+i79XXgoHQj
+fBilMOBxd+1c8U/WlhiDtS1445Do5+IjH8euC433ulOACSOpQ0VZ4VrCptaWh3q
g+8xqx+D7rTSTJR/9XyHbvk5unbaAIbxFafsJqZw43qOrlRF9WNCdcUmpMZOvZMF
gaczymTcePey+0liOmF2ADxB8jCStQgE2dsAYg==
-----END CERTIFICATE-----
