Certificate:
    Data:
        Version: 3 (0x2)
        Serial Number:
            d5:09:1b:b4:70:a5:48:be:b9:f7:c0:4e:05:70:ae:3a
        Signature Algorithm: sha256WithRSAEncryption
        Issuer: CN=team181-net
        Validity
            Not Before: Nov  4 11:31:13 2023 GMT
            Not After : Oct 19 11:31:13 2026 GMT
        Subject: CN=team181-client
        Subject Public Key Info:
            Public Key Algorithm: rsaEncryption
                Public-Key: (2048 bit)
                Modulus:
                    00:d6:00:d6:96:02:84:96:d4:bf:3b:a6:a0:a8:02:
                    c0:33:c5:40:25:3e:f9:1a:7d:b0:73:61:eb:4e:76:
                    b3:cf:91:06:ec:a2:dc:a5:43:70:de:2b:40:1b:cb:
                    2d:0a:b6:4e:40:f6:e2:4f:fc:45:7a:a2:a9:41:c4:
                    0c:a1:3d:d4:e2:8a:3d:ad:88:89:83:3f:1b:61:a7:
                    17:5b:b0:55:d4:0c:f5:6a:1b:97:00:b8:4a:3c:a6:
                    26:3c:71:07:9b:f0:6a:8c:d4:25:c6:1f:11:7a:cf:
                    75:99:38:de:4d:da:dc:6c:9a:74:a6:af:f9:9c:1c:
                    de:31:be:80:0d:2b:69:0d:58:b8:c1:5d:84:b8:53:
                    1f:72:74:ed:e7:dd:07:f5:61:47:48:f7:09:e4:32:
                    ab:be:e0:0e:bb:50:d4:b8:52:c2:ce:61:8a:bc:9b:
                    52:10:1c:10:01:12:63:ff:c7:17:ac:d5:da:e9:45:
                    6f:b7:8a:65:1a:de:6b:b3:1b:25:56:78:57:ae:40:
                    40:c0:69:08:b8:b1:37:8e:c4:af:8f:99:be:b5:f6:
                    fb:34:88:42:7a:8a:72:9e:3e:e4:6b:a4:79:e8:7c:
                    9c:69:5d:53:36:5a:a3:53:16:72:0e:4d:4a:c0:09:
                    0d:fd:f2:a4:67:d1:a2:99:1b:f7:8f:2d:2e:17:13:
                    88:a9
                Exponent: 65537 (0x10001)
        X509v3 extensions:
            X509v3 Basic Constraints: 
                CA:FALSE
            X509v3 Subject Key Identifier: 
                24:3B:EF:15:74:3F:2B:89:90:40:9D:6D:F5:B5:40:00:19:4B:A7:A3
            X509v3 Authority Key Identifier: 
                keyid:C0:29:60:11:DD:AE:DC:EB:A7:34:E3:BB:46:38:71:A9:17:74:8B:42
                DirName:/CN=team181-net
                serial:75:26:4D:58:A1:9F:03:DC:A7:9D:6A:58:94:46:52:FB:A7:BD:3E:1A
            X509v3 Extended Key Usage: 
                TLS Web Client Authentication
            X509v3 Key Usage: 
                Digital Signature
    Signature Algorithm: sha256WithRSAEncryption
    Signature Value:
        7d:ab:ef:55:af:2d:fc:80:3e:18:ef:35:17:03:a1:44:ec:ce:
        1f:e4:37:88:45:a8:34:0c:25:f5:88:3a:bd:5f:23:48:e6:3e:
        f8:8f:ff:37:35:a8:5e:ae:b1:de:15:b3:a3:0b:6c:35:40:ad:
        a4:8c:4a:4e:45:c4:96:7f:ce:2a:c9:00:20:51:fe:cc:3b:15:
        3f:52:5b:a8:b3:87:33:39:76:2a:47:f4:49:ff:81:2b:52:8c:
        3e:8a:a6:36:d0:d6:30:89:86:06:31:da:0c:48:49:f8:32:25:
        19:71:c5:2a:7b:2b:0a:58:dc:4f:9d:9e:b8:89:ae:33:33:bb:
        ce:e7:b7:7b:e9:45:d7:39:c6:dc:d6:70:29:b5:2e:63:28:9b:
        b1:f5:29:f9:30:3a:96:44:04:35:59:ea:84:02:46:dc:c0:22:
        fc:54:c4:84:44:80:60:e5:f5:cc:9f:49:a3:0e:35:64:8d:89:
        ae:4f:64:99:16:6a:5e:72:83:eb:a7:3b:bd:47:8d:fe:4a:29:
        21:e3:19:e3:f2:81:99:5e:e5:e6:28:1e:3e:d9:49:ec:05:36:
        d3:2e:9e:57:63:10:75:20:58:0d:83:bf:c8:6c:ee:fc:ef:ba:
        e1:49:4b:f7:52:71:59:79:3f:36:22:d5:d0:89:bb:38:8d:5b:
        20:68:e5:a8
-----BEGIN CERTIFICATE-----
MIIDXTCCAkWgAwIBAgIRANUJG7RwpUi+uffATgVwrjowDQYJKoZIhvcNAQELBQAw
FjEUMBIGA1UEAwwLdGVhbTE4MS1uZXQwHhcNMjMxMTA0MTEzMTEzWhcNMjYxMDE5
MTEzMTEzWjAZMRcwFQYDVQQDDA50ZWFtMTgxLWNsaWVudDCCASIwDQYJKoZIhvcN
AQEBBQADggEPADCCAQoCggEBANYA1pYChJbUvzumoKgCwDPFQCU++Rp9sHNh6052
s8+RBuyi3KVDcN4rQBvLLQq2TkD24k/8RXqiqUHEDKE91OKKPa2IiYM/G2GnF1uw
VdQM9WoblwC4SjymJjxxB5vwaozUJcYfEXrPdZk43k3a3GyadKav+Zwc3jG+gA0r
aQ1YuMFdhLhTH3J07efdB/VhR0j3CeQyq77gDrtQ1LhSws5hirybUhAcEAESY//H
F6zV2ulFb7eKZRrea7MbJVZ4V65AQMBpCLixN47Er4+ZvrX2+zSIQnqKcp4+5Guk
eeh8nGldUzZao1MWcg5NSsAJDf3ypGfRopkb948tLhcTiKkCAwEAAaOBojCBnzAJ
BgNVHRMEAjAAMB0GA1UdDgQWBBQkO+8VdD8riZBAnW31tUAAGUunozBRBgNVHSME
SjBIgBTAKWAR3a7c66c047tGOHGpF3SLQqEapBgwFjEUMBIGA1UEAwwLdGVhbTE4
MS1uZXSCFHUmTVihnwPcp51qWJRGUvunvT4aMBMGA1UdJQQMMAoGCCsGAQUFBwMC
MAsGA1UdDwQEAwIHgDANBgkqhkiG9w0BAQsFAAOCAQEAfavvVa8t/IA+GO81FwOh
ROzOH+Q3iEWoNAwl9Yg6vV8jSOY++I//NzWoXq6x3hWzowtsNUCtpIxKTkXEln/O
KskAIFH+zDsVP1JbqLOHMzl2Kkf0Sf+BK1KMPoqmNtDWMImGBjHaDEhJ+DIlGXHF
KnsrCljcT52euImuMzO7zue3e+lF1znG3NZwKbUuYyibsfUp+TA6lkQENVnqhAJG
3MAi/FTEhESAYOX1zJ9Jow41ZI2Jrk9kmRZqXnKD66c7vUeN/kopIeMZ4/KBmV7l
5igePtlJ7AU20y6eV2MQdSBYDYO/yGzu/O+64UlL91JxWXk/NiLV0Im7OI1bIGjl
qA==
-----END CERTIFICATE-----
