Certificate:
    Data:
        Version: 3 (0x2)
        Serial Number:
            09:2c:7c:61:cf:c7:f8:c3:07:0a:25:78:8c:62:c7:79
        Signature Algorithm: sha256WithRSAEncryption
        Issuer: CN=team490-net
        Validity
            Not Before: Nov  4 11:38:41 2023 GMT
            Not After : Oct 19 11:38:41 2026 GMT
        Subject: CN=team490-client
        Subject Public Key Info:
            Public Key Algorithm: rsaEncryption
                Public-Key: (2048 bit)
                Modulus:
                    00:b7:f6:e7:9a:0a:b2:35:9f:fb:e6:fd:0f:c0:90:
                    e8:0f:48:bf:eb:8f:81:58:8e:df:53:f2:3e:4f:ce:
                    fa:7b:de:91:0b:9d:62:85:ee:c1:06:6a:ad:41:df:
                    b5:8d:b6:f5:d7:96:41:74:69:33:f4:e0:77:b4:31:
                    57:07:76:da:c2:1d:3f:5e:f0:af:50:91:56:9b:ef:
                    ae:83:08:12:55:e7:83:f5:3b:bd:ff:22:0e:bf:1d:
                    50:fa:0b:05:41:2e:8e:bc:3b:68:96:c2:3b:7b:e1:
                    f7:d4:04:2d:0b:a1:0e:7b:11:4b:a9:b6:f1:aa:e7:
                    a5:34:fb:03:69:48:ad:e1:4c:03:a2:24:a1:7b:d1:
                    4d:e2:9c:e8:cc:5b:4c:82:46:4f:5d:48:7d:35:fd:
                    bc:6e:1b:13:22:bb:5f:51:f3:c9:0b:32:8b:4c:57:
                    6c:39:69:fe:b2:fd:fa:e3:85:59:b3:4f:e4:70:72:
                    c8:dc:22:a1:8d:fb:78:49:82:cb:f7:75:4b:63:e8:
                    bb:12:ab:d2:cf:33:57:a8:83:b3:fb:90:ff:0f:af:
                    ef:51:b5:b1:2a:42:40:3c:bf:7f:52:71:2e:2e:b7:
                    8c:d4:36:87:84:a9:55:bd:f7:17:f0:8b:3a:a0:f1:
                    7a:2a:c4:0c:30:bc:2a:d1:70:8e:02:e0:a1:66:d5:
                    b5:6f
                Exponent: 65537 (0x10001)
        X509v3 extensions:
            X509v3 Basic Constraints: 
                CA:FALSE
            X509v3 Subject Key Identifier: 
                09:AE:35:FB:41:CB:21:8F:73:50:7C:21:B4:68:D2:C5:8F:01:6D:35
            X509v3 Authority Key Identifier: 
                keyid:B3:75:49:88:F4:78:7E:F4:4C:96:4D:F7:50:96:FF:E4:3D:7B:BA:08
                DirName:/CN=team490-net
                serial:20:E1:CF:0B:82:00:71:21:6B:C1:7D:9B:13:C9:A5:9A:A6:F2:DE:02
            X509v3 Extended Key Usage: 
                TLS Web Client Authentication
            X509v3 Key Usage: 
                Digital Signature
    Signature Algorithm: sha256WithRSAEncryption
    Signature Value:
        bf:fb:9f:81:18:9c:5d:df:c1:dc:88:79:b7:42:fb:04:3a:92:
        12:59:90:33:51:c8:0a:5e:4d:6f:e5:04:03:47:2e:58:a4:45:
        46:31:da:fe:31:a1:46:19:60:50:dd:c3:d7:9f:c7:91:84:e0:
        2e:f3:31:e7:f0:2b:6a:dc:38:b5:11:b4:a4:ab:89:94:cc:d2:
        ee:39:47:ce:e9:67:f7:de:5a:25:66:76:38:e1:ec:dc:d1:b2:
        db:66:69:26:cc:04:62:cf:c6:0c:22:3e:37:f9:2f:cc:23:33:
        76:49:4f:ca:1d:e6:74:c3:49:96:be:d4:cc:61:8e:13:0a:e3:
        e4:57:c6:56:d2:77:7e:bc:9f:21:e5:79:43:d6:7b:7e:42:a7:
        25:8f:58:b3:fd:1e:81:88:fc:34:e2:f6:8d:7a:ea:08:a4:f9:
        9c:be:64:eb:b7:0d:5a:bc:ca:b3:6c:e1:9f:95:0a:30:71:be:
        34:e2:27:16:3b:ea:5f:20:3f:18:94:82:e3:a2:81:18:b6:b4:
        cf:95:81:4f:e5:53:64:65:f4:37:23:aa:93:9f:73:b9:79:ee:
        44:15:b9:36:9c:6b:8b:3d:32:3b:de:c4:7d:2b:ca:57:a7:90:
        de:41:7b:08:56:e2:9d:e4:eb:d9:40:12:62:af:7b:44:86:45:
        13:2f:80:54
-----BEGIN CERTIFICATE-----
MIIDXDCCAkSgAwIBAgIQCSx8Yc/H+MMHCiV4jGLHeTANBgkqhkiG9w0BAQsFADAW
MRQwEgYDVQQDDAt0ZWFtNDkwLW5ldDAeFw0yMzExMDQxMTM4NDFaFw0yNjEwMTkx
MTM4NDFaMBkxFzAVBgNVBAMMDnRlYW00OTAtY2xpZW50MIIBIjANBgkqhkiG9w0B
AQEFAAOCAQ8AMIIBCgKCAQEAt/bnmgqyNZ/75v0PwJDoD0i/64+BWI7fU/I+T876
e96RC51ihe7BBmqtQd+1jbb115ZBdGkz9OB3tDFXB3bawh0/XvCvUJFWm++ugwgS
VeeD9Tu9/yIOvx1Q+gsFQS6OvDtolsI7e+H31AQtC6EOexFLqbbxquelNPsDaUit
4UwDoiShe9FN4pzozFtMgkZPXUh9Nf28bhsTIrtfUfPJCzKLTFdsOWn+sv3644VZ
s0/kcHLI3CKhjft4SYLL93VLY+i7EqvSzzNXqIOz+5D/D6/vUbWxKkJAPL9/UnEu
LreM1DaHhKlVvfcX8Is6oPF6KsQMMLwq0XCOAuChZtW1bwIDAQABo4GiMIGfMAkG
A1UdEwQCMAAwHQYDVR0OBBYEFAmuNftByyGPc1B8IbRo0sWPAW01MFEGA1UdIwRK
MEiAFLN1SYj0eH70TJZN91CW/+Q9e7oIoRqkGDAWMRQwEgYDVQQDDAt0ZWFtNDkw
LW5ldIIUIOHPC4IAcSFrwX2bE8mlmqby3gIwEwYDVR0lBAwwCgYIKwYBBQUHAwIw
CwYDVR0PBAQDAgeAMA0GCSqGSIb3DQEBCwUAA4IBAQC/+5+BGJxd38HciHm3QvsE
OpISWZAzUcgKXk1v5QQDRy5YpEVGMdr+MaFGGWBQ3cPXn8eRhOAu8zHn8Ctq3Di1
EbSkq4mUzNLuOUfO6Wf33lolZnY44ezc0bLbZmkmzARiz8YMIj43+S/MIzN2SU/K
HeZ0w0mWvtTMYY4TCuPkV8ZW0nd+vJ8h5XlD1nt+Qqclj1iz/R6BiPw04vaNeuoI
pPmcvmTrtw1avMqzbOGflQowcb404icWO+pfID8YlILjooEYtrTPlYFP5VNkZfQ3
I6qTn3O5ee5EFbk2nGuLPTI73sR9K8pXp5DeQXsIVuKd5OvZQBJir3tEhkUTL4BU
-----END CERTIFICATE-----
