Certificate:
    Data:
        Version: 3 (0x2)
        Serial Number:
            69:f4:0c:76:6b:2f:a8:c3:d7:ae:e8:bd:52:a2:d0:7e
        Signature Algorithm: sha256WithRSAEncryption
        Issuer: CN=team304-net
        Validity
            Not Before: Nov  4 11:34:00 2023 GMT
            Not After : Oct 19 11:34:00 2026 GMT
        Subject: CN=team304-server
        Subject Public Key Info:
            Public Key Algorithm: rsaEncryption
                Public-Key: (2048 bit)
                Modulus:
                    00:dc:7f:22:e0:a2:dd:1c:8a:3d:ae:10:04:97:69:
                    45:e9:09:7e:fc:f9:3f:48:7f:67:3a:0f:4e:5c:27:
                    42:6b:8c:15:06:9b:3d:3f:93:3e:66:9e:03:9d:96:
                    fe:a7:87:27:63:ba:50:b8:5a:cb:eb:dc:df:b3:c2:
                    c6:8f:79:69:5d:90:d2:73:69:76:46:c3:62:e8:11:
                    45:37:df:d3:f8:eb:2c:45:5d:8d:c3:0f:51:21:21:
                    00:22:bf:17:8e:ee:26:96:f7:30:ff:30:f2:1d:05:
                    fb:f1:0e:48:34:33:ee:f1:81:49:2a:c1:0c:23:4b:
                    39:23:6f:61:cb:6f:90:9a:33:7b:41:54:61:72:d5:
                    10:b2:1b:c4:46:90:93:b6:a3:ae:ca:9b:3f:b6:9e:
                    ab:4c:e6:f7:ab:7b:38:0f:53:2b:07:83:b1:c8:45:
                    38:59:2e:bf:e0:db:e2:1c:2e:a6:82:f2:2b:59:12:
                    70:64:f9:cf:c1:c4:d5:08:1c:b9:2e:b9:ea:e3:96:
                    44:34:6b:f9:74:2b:a2:0d:4c:5b:30:dd:c4:0d:be:
                    11:c3:e8:5d:96:0e:cf:ea:1a:46:15:ac:18:e4:84:
                    65:c7:5e:a8:59:64:93:25:9c:d5:75:5a:13:a1:b9:
                    ba:be:56:4d:a8:10:68:52:d0:28:a6:e7:19:cd:e0:
                    ec:85
                Exponent: 65537 (0x10001)
        X509v3 extensions:
            X509v3 Basic Constraints: 
                CA:FALSE
            X509v3 Subject Key Identifier: 
                6B:84:71:C0:E5:B2:DE:A1:A1:A7:CB:2A:82:F0:F5:FE:5E:F9:00:00
            X509v3 Authority Key Identifier: 
                keyid:03:D4:5B:31:3B:4D:BC:EF:27:A9:B4:54:D8:BA:8D:0F:6C:4E:BA:9F
                DirName:/CN=team304-net
                serial:22:C3:FE:B8:AB:84:27:B0:45:0D:8B:28:91:5A:A6:3E:EA:D5:0F:D6
            X509v3 Extended Key Usage: 
                TLS Web Server Authentication
            X509v3 Key Usage: 
                Digital Signature, Key Encipherment
            X509v3 Subject Alternative Name: 
                DNS:team304-server
    Signature Algorithm: sha256WithRSAEncryption
    Signature Value:
        7d:62:91:fb:54:20:da:d4:66:e6:c5:53:bd:9a:dd:bc:95:c4:
        53:14:57:c4:c1:0a:0c:76:d0:ee:ad:76:92:d9:d6:cd:a8:57:
        30:af:50:13:b8:68:41:dc:09:49:f6:a5:2e:bd:ce:ad:b0:38:
        6b:3f:64:b7:db:a9:f2:75:0e:a0:26:52:17:ea:f6:19:c3:90:
        aa:8b:3e:91:8b:99:23:8f:5e:f8:1a:69:96:ef:12:25:7f:6a:
        07:5d:0d:74:6b:3b:9e:5c:ce:13:7f:e6:9d:3e:d5:dd:51:fa:
        ea:5c:fd:35:6e:bf:5f:93:3a:fb:25:88:91:90:71:21:6e:27:
        86:cb:91:1f:43:aa:be:94:ad:d7:f2:b7:d6:e6:79:1c:19:bf:
        1d:23:63:d6:01:b2:a1:4b:9c:59:b0:66:9e:fd:4b:15:01:f4:
        66:76:c4:ca:63:ce:2d:7f:0b:49:61:c2:21:87:bf:93:fd:d0:
        83:9f:18:50:9b:e0:ee:45:ef:64:13:0b:91:b1:aa:ad:cf:4c:
        f8:94:39:16:18:d2:69:17:ae:68:fd:f8:61:87:66:6c:4e:83:
        a9:8e:1d:41:ca:64:1f:9c:11:11:15:d1:60:11:7a:11:d3:36:
        77:bd:f3:cc:1f:f2:cd:47:ad:e7:9d:53:c0:5a:23:d9:8b:f4:
        78:a1:ae:88
-----BEGIN CERTIFICATE-----
MIIDdzCCAl+gAwIBAgIQafQMdmsvqMPXrui9UqLQfjANBgkqhkiG9w0BAQsFADAW
MRQwEgYDVQQDDAt0ZWFtMzA0LW5ldDAeFw0yMzExMDQxMTM0MDBaFw0yNjEwMTkx
MTM0MDBaMBkxFzAVBgNVBAMMDnRlYW0zMDQtc2VydmVyMIIBIjANBgkqhkiG9w0B
AQEFAAOCAQ8AMIIBCgKCAQEA3H8i4KLdHIo9rhAEl2lF6Ql+/Pk/SH9nOg9OXCdC
a4wVBps9P5M+Zp4DnZb+p4cnY7pQuFrL69zfs8LGj3lpXZDSc2l2RsNi6BFFN9/T
+OssRV2Nww9RISEAIr8Xju4mlvcw/zDyHQX78Q5INDPu8YFJKsEMI0s5I29hy2+Q
mjN7QVRhctUQshvERpCTtqOuyps/tp6rTOb3q3s4D1MrB4OxyEU4WS6/4NviHC6m
gvIrWRJwZPnPwcTVCBy5Lrnq45ZENGv5dCuiDUxbMN3EDb4Rw+hdlg7P6hpGFawY
5IRlx16oWWSTJZzVdVoTobm6vlZNqBBoUtAopucZzeDshQIDAQABo4G9MIG6MAkG
A1UdEwQCMAAwHQYDVR0OBBYEFGuEccDlst6hoafLKoLw9f5e+QAAMFEGA1UdIwRK
MEiAFAPUWzE7TbzvJ6m0VNi6jQ9sTrqfoRqkGDAWMRQwEgYDVQQDDAt0ZWFtMzA0
LW5ldIIUIsP+uKuEJ7BFDYsokVqmPurVD9YwEwYDVR0lBAwwCgYIKwYBBQUHAwEw
CwYDVR0PBAQDAgWgMBkGA1UdEQQSMBCCDnRlYW0zMDQtc2VydmVyMA0GCSqGSIb3
DQEBCwUAA4IBAQB9YpH7VCDa1GbmxVO9mt28lcRTFFfEwQoMdtDurXaS2dbNqFcw
r1ATuGhB3AlJ9qUuvc6tsDhrP2S326nydQ6gJlIX6vYZw5Cqiz6Ri5kjj174GmmW
7xIlf2oHXQ10azueXM4Tf+adPtXdUfrqXP01br9fkzr7JYiRkHEhbieGy5EfQ6q+
lK3X8rfW5nkcGb8dI2PWAbKhS5xZsGae/UsVAfRmdsTKY84tfwtJYcIhh7+T/dCD
nxhQm+DuRe9kEwuRsaqtz0z4lDkWGNJpF65o/fhhh2ZsToOpjh1BymQfnBERFdFg
EXoR0zZ3vfPMH/LNR63nnVPAWiPZi/R4oa6I
-----END CERTIFICATE-----
