Certificate:
    Data:
        Version: 3 (0x2)
        Serial Number:
            90:6a:7f:10:b3:cc:b4:b8:c4:da:14:af:1f:6e:c4:9c
        Signature Algorithm: sha256WithRSAEncryption
        Issuer: CN=team304-net
        Validity
            Not Before: Nov  3 20:44:48 2023 GMT
            Not After : Oct 18 20:44:48 2026 GMT
        Subject: CN=team304-client
        Subject Public Key Info:
            Public Key Algorithm: rsaEncryption
                Public-Key: (2048 bit)
                Modulus:
                    00:92:32:c0:0b:d5:8b:79:32:61:bd:47:27:e2:a9:
                    02:1e:c6:aa:de:5c:1d:52:0d:a1:3d:59:ef:ba:02:
                    47:60:f4:aa:0b:f0:4f:9b:95:f0:9c:23:23:86:06:
                    a1:60:35:37:f2:d1:9d:e4:0c:ae:72:e1:e1:77:a1:
                    b6:d7:5f:4e:ec:52:09:a4:44:00:ef:1c:55:f5:84:
                    75:df:ed:4c:9a:60:54:f4:e9:85:49:e8:6b:7e:d6:
                    b2:f4:3d:02:a4:2d:69:f0:36:70:cb:4d:a9:7b:a0:
                    f0:5d:85:b6:77:59:dc:33:17:97:fe:91:e7:f7:90:
                    b5:e3:75:aa:9e:c7:be:84:bd:5f:89:02:85:e3:5e:
                    51:b2:0b:ba:c0:8d:a7:06:78:39:d4:fd:2b:67:b8:
                    50:77:cd:69:b9:4d:c2:03:c7:a3:d8:3d:49:69:bf:
                    bd:cd:bc:22:72:cd:e1:ff:2f:d2:e6:cb:5a:05:6e:
                    47:4e:28:6a:be:0c:e6:da:f7:2a:34:0f:89:7e:59:
                    37:fc:d8:c1:c7:92:00:97:ec:c1:84:5b:b0:17:b2:
                    0c:27:41:02:01:f5:fc:26:93:c4:65:bc:a0:3f:19:
                    df:ed:f8:9e:c4:ca:1e:2d:cc:cf:b2:9d:0e:cb:62:
                    b0:2d:e7:f0:88:e3:ff:1c:51:e4:fe:b1:64:b1:94:
                    1d:f1
                Exponent: 65537 (0x10001)
        X509v3 extensions:
            X509v3 Basic Constraints: 
                CA:FALSE
            X509v3 Subject Key Identifier: 
                97:E4:5B:DB:0E:87:00:32:68:59:1B:CF:FC:59:0E:F7:43:92:BA:49
            X509v3 Authority Key Identifier: 
                keyid:C7:14:75:06:E1:B8:FE:8B:7E:DC:49:D3:93:BF:83:0B:35:CD:7A:DE
                DirName:/CN=team304-net
                serial:21:0E:E8:45:D0:34:AD:B8:48:63:2D:A5:DC:78:C4:87:51:F6:81:CD
            X509v3 Extended Key Usage: 
                TLS Web Client Authentication
            X509v3 Key Usage: 
                Digital Signature
    Signature Algorithm: sha256WithRSAEncryption
    Signature Value:
        06:61:b1:d4:0c:92:de:1d:45:9f:d2:c4:16:08:8b:c7:2b:92:
        a6:9c:3d:05:89:af:09:f0:18:2c:97:ac:8d:68:61:ed:8c:6b:
        39:45:14:58:4e:5e:22:a2:63:cb:ed:3e:17:94:d9:0f:b8:d3:
        a8:51:26:18:28:49:83:48:f4:ee:a0:74:61:00:69:93:a1:dc:
        ac:6c:31:97:69:eb:c7:2e:a7:4a:b4:b2:46:07:ab:0d:7d:7c:
        90:21:13:d8:36:05:17:91:ab:04:da:4e:86:9e:b3:dd:39:47:
        f5:92:0e:87:f8:99:86:0b:25:ff:4b:6b:d3:b3:ac:e1:34:b8:
        93:76:1c:a3:b1:4a:ca:b4:82:8c:c1:8d:77:83:78:3d:71:04:
        6d:f7:03:d0:7d:a0:a3:20:88:d4:34:51:4a:a7:1b:8f:b7:70:
        e6:0e:08:96:72:dd:1e:5b:19:86:ef:7e:81:86:b6:96:87:1b:
        ed:7f:85:f3:72:7c:12:e0:9f:64:a2:ee:0e:6a:3e:11:ca:53:
        3d:03:94:5f:ae:0d:b9:80:49:a8:9c:14:08:9e:ba:51:ba:0f:
        bb:02:67:f2:54:77:1a:25:f2:60:13:8c:be:0b:bb:cb:d8:79:
        88:de:20:0f:07:4c:8b:2c:cc:06:e1:0b:6b:6b:d2:3c:43:d1:
        1b:b6:37:58
-----BEGIN CERTIFICATE-----
MIIDXTCCAkWgAwIBAgIRAJBqfxCzzLS4xNoUrx9uxJwwDQYJKoZIhvcNAQELBQAw
FjEUMBIGA1UEAwwLdGVhbTMwNC1uZXQwHhcNMjMxMTAzMjA0NDQ4WhcNMjYxMDE4
MjA0NDQ4WjAZMRcwFQYDVQQDDA50ZWFtMzA0LWNsaWVudDCCASIwDQYJKoZIhvcN
AQEBBQADggEPADCCAQoCggEBAJIywAvVi3kyYb1HJ+KpAh7Gqt5cHVINoT1Z77oC
R2D0qgvwT5uV8JwjI4YGoWA1N/LRneQMrnLh4XehttdfTuxSCaREAO8cVfWEdd/t
TJpgVPTphUnoa37WsvQ9AqQtafA2cMtNqXug8F2FtndZ3DMXl/6R5/eQteN1qp7H
voS9X4kCheNeUbILusCNpwZ4OdT9K2e4UHfNablNwgPHo9g9SWm/vc28InLN4f8v
0ubLWgVuR04oar4M5tr3KjQPiX5ZN/zYwceSAJfswYRbsBeyDCdBAgH1/CaTxGW8
oD8Z3+34nsTKHi3Mz7KdDstisC3n8Ijj/xxR5P6xZLGUHfECAwEAAaOBojCBnzAJ
BgNVHRMEAjAAMB0GA1UdDgQWBBSX5FvbDocAMmhZG8/8WQ73Q5K6STBRBgNVHSME
SjBIgBTHFHUG4bj+i37cSdOTv4MLNc163qEapBgwFjEUMBIGA1UEAwwLdGVhbTMw
NC1uZXSCFCEO6EXQNK24SGMtpdx4xIdR9oHNMBMGA1UdJQQMMAoGCCsGAQUFBwMC
MAsGA1UdDwQEAwIHgDANBgkqhkiG9w0BAQsFAAOCAQEABmGx1AyS3h1Fn9LEFgiL
xyuSppw9BYmvCfAYLJesjWhh7YxrOUUUWE5eIqJjy+0+F5TZD7jTqFEmGChJg0j0
7qB0YQBpk6HcrGwxl2nrxy6nSrSyRgerDX18kCET2DYFF5GrBNpOhp6z3TlH9ZIO
h/iZhgsl/0tr07Os4TS4k3Yco7FKyrSCjMGNd4N4PXEEbfcD0H2goyCI1DRRSqcb
j7dw5g4IlnLdHlsZhu9+gYa2locb7X+F83J8EuCfZKLuDmo+EcpTPQOUX64NuYBJ
qJwUCJ66UboPuwJn8lR3GiXyYBOMvgu7y9h5iN4gDwdMiyzMBuELa2vSPEPRG7Y3
WA==
-----END CERTIFICATE-----
