Certificate:
    Data:
        Version: 3 (0x2)
        Serial Number:
            9a:12:8a:ab:6c:3a:d7:d5:15:40:b8:91:65:0d:98:ff
        Signature Algorithm: sha256WithRSAEncryption
        Issuer: CN=team304-net
        Validity
            Not Before: Nov  4 10:46:13 2023 GMT
            Not After : Oct 19 10:46:13 2026 GMT
        Subject: CN=team304-client
        Subject Public Key Info:
            Public Key Algorithm: rsaEncryption
                Public-Key: (2048 bit)
                Modulus:
                    00:a0:8f:5f:eb:22:73:77:d4:90:bf:10:47:48:39:
                    41:13:f6:f6:af:ae:8a:49:af:94:e9:d3:13:56:79:
                    63:75:38:5e:ae:61:df:70:2a:e0:e9:fd:58:3a:82:
                    a8:f9:ad:90:bf:7a:10:9d:fa:02:44:6d:06:ab:78:
                    e7:28:1b:01:85:31:03:df:ad:70:41:d0:c9:c6:35:
                    41:87:3e:a3:c6:1a:28:78:37:fd:51:69:f7:c2:e8:
                    5d:aa:b6:78:b8:b6:e6:ef:11:48:e9:b2:df:b5:30:
                    13:c3:87:f2:43:c6:d9:86:87:66:a4:56:74:23:c4:
                    48:20:b9:8d:69:0b:c2:91:95:a6:3b:54:82:19:95:
                    f2:69:18:3d:23:3e:4e:c0:58:a6:ea:25:8f:3e:1c:
                    e0:69:92:01:68:42:96:c3:07:06:7a:4d:ad:f9:9d:
                    f6:6a:4c:eb:24:27:bc:10:83:4b:6a:47:97:d2:4f:
                    15:3d:ee:46:cd:f5:93:3f:27:9c:d1:39:99:c9:e9:
                    c4:0d:6a:45:e0:48:db:6b:aa:b9:45:1a:8b:6b:36:
                    e5:12:3a:f5:99:be:77:16:eb:47:84:fd:1c:fe:c5:
                    6d:2b:ac:36:34:1f:ca:a2:a2:fa:55:c3:58:e4:a5:
                    ae:85:a6:a9:09:3a:13:a2:02:55:49:ae:8d:92:60:
                    5a:4f
                Exponent: 65537 (0x10001)
        X509v3 extensions:
            X509v3 Basic Constraints: 
                CA:FALSE
            X509v3 Subject Key Identifier: 
                B0:E0:D8:D2:22:23:64:DD:8D:D1:38:C7:F6:12:24:7B:11:46:D8:FE
            X509v3 Authority Key Identifier: 
                keyid:B8:06:16:BF:2F:D2:ED:14:0E:5F:F5:75:E3:C1:F0:5D:F9:0C:9F:76
                DirName:/CN=team304-net
                serial:5C:DF:06:FF:15:D6:97:D0:93:08:11:DA:6C:E7:88:E9:A2:F0:16:FF
            X509v3 Extended Key Usage: 
                TLS Web Client Authentication
            X509v3 Key Usage: 
                Digital Signature
    Signature Algorithm: sha256WithRSAEncryption
    Signature Value:
        64:6c:59:d8:d8:2a:3f:39:64:f1:3f:81:0f:3f:fb:5c:6d:7f:
        ac:b4:0e:f2:20:0e:af:4c:00:9e:c8:73:64:f2:3c:0c:df:0e:
        c5:95:88:99:fa:b2:52:ae:c9:44:96:4e:e0:0f:a9:6b:da:39:
        2a:6c:6e:a1:e9:0b:0e:20:1c:e4:0d:61:37:2a:8c:51:27:21:
        4b:89:df:c4:6a:11:c3:90:20:5c:80:51:bc:00:1c:2f:e8:29:
        2c:2e:d0:60:cd:40:23:c6:bd:51:14:e8:42:eb:8a:6d:a7:27:
        f6:14:8f:ef:d0:7b:8d:d4:a9:24:e5:e4:0c:e3:3d:71:0f:de:
        04:21:c8:ff:3b:db:27:35:b8:20:b3:19:b3:fe:df:9b:70:92:
        27:4f:3d:8f:da:4a:24:58:57:a6:7e:9c:0d:2c:fb:5e:b3:ae:
        3a:5d:3d:3a:21:42:c9:df:75:ba:54:12:61:64:6e:01:a5:6f:
        13:58:ac:b4:17:6e:68:bf:d3:4d:91:e0:a1:49:ac:45:13:b0:
        0e:bb:1c:9b:c0:2a:90:15:80:6d:72:fb:90:68:93:bf:35:7c:
        04:5f:8d:7f:34:33:e7:85:46:72:a6:cb:a0:68:e6:d6:e0:cf:
        b2:36:56:42:cf:ec:75:9b:71:5b:6a:8d:2d:13:a4:8e:db:fd:
        26:3e:df:4a
-----BEGIN CERTIFICATE-----
MIIDXTCCAkWgAwIBAgIRAJoSiqtsOtfVFUC4kWUNmP8wDQYJKoZIhvcNAQELBQAw
FjEUMBIGA1UEAwwLdGVhbTMwNC1uZXQwHhcNMjMxMTA0MTA0NjEzWhcNMjYxMDE5
MTA0NjEzWjAZMRcwFQYDVQQDDA50ZWFtMzA0LWNsaWVudDCCASIwDQYJKoZIhvcN
AQEBBQADggEPADCCAQoCggEBAKCPX+sic3fUkL8QR0g5QRP29q+uikmvlOnTE1Z5
Y3U4Xq5h33Aq4On9WDqCqPmtkL96EJ36AkRtBqt45ygbAYUxA9+tcEHQycY1QYc+
o8YaKHg3/VFp98LoXaq2eLi25u8RSOmy37UwE8OH8kPG2YaHZqRWdCPESCC5jWkL
wpGVpjtUghmV8mkYPSM+TsBYpuoljz4c4GmSAWhClsMHBnpNrfmd9mpM6yQnvBCD
S2pHl9JPFT3uRs31kz8nnNE5mcnpxA1qReBI22uquUUai2s25RI69Zm+dxbrR4T9
HP7FbSusNjQfyqKi+lXDWOSlroWmqQk6E6ICVUmujZJgWk8CAwEAAaOBojCBnzAJ
BgNVHRMEAjAAMB0GA1UdDgQWBBSw4NjSIiNk3Y3ROMf2EiR7EUbY/jBRBgNVHSME
SjBIgBS4Bha/L9LtFA5f9XXjwfBd+QyfdqEapBgwFjEUMBIGA1UEAwwLdGVhbTMw
NC1uZXSCFFzfBv8V1pfQkwgR2mzniOmi8Bb/MBMGA1UdJQQMMAoGCCsGAQUFBwMC
MAsGA1UdDwQEAwIHgDANBgkqhkiG9w0BAQsFAAOCAQEAZGxZ2NgqPzlk8T+BDz/7
XG1/rLQO8iAOr0wAnshzZPI8DN8OxZWImfqyUq7JRJZO4A+pa9o5KmxuoekLDiAc
5A1hNyqMUSchS4nfxGoRw5AgXIBRvAAcL+gpLC7QYM1AI8a9URToQuuKbacn9hSP
79B7jdSpJOXkDOM9cQ/eBCHI/zvbJzW4ILMZs/7fm3CSJ089j9pKJFhXpn6cDSz7
XrOuOl09OiFCyd91ulQSYWRuAaVvE1istBduaL/TTZHgoUmsRROwDrscm8AqkBWA
bXL7kGiTvzV8BF+NfzQz54VGcqbLoGjm1uDPsjZWQs/sdZtxW2qNLROkjtv9Jj7f
Sg==
-----END CERTIFICATE-----
