Certificate:
    Data:
        Version: 3 (0x2)
        Serial Number:
            db:fe:bc:fd:48:d5:f1:9e:c4:67:33:ec:71:4f:a4:64
        Signature Algorithm: sha256WithRSAEncryption
        Issuer: CN=team304-net
        Validity
            Not Before: Nov  4 10:46:13 2023 GMT
            Not After : Oct 19 10:46:13 2026 GMT
        Subject: CN=team304-server
        Subject Public Key Info:
            Public Key Algorithm: rsaEncryption
                Public-Key: (2048 bit)
                Modulus:
                    00:89:dd:30:c9:dd:d2:85:43:0b:12:67:f7:70:f7:
                    fc:4f:34:9b:e0:a2:d8:0b:f0:1f:09:df:3d:ea:fa:
                    0b:51:eb:a7:dc:e5:8a:fa:5e:6c:1d:17:f3:43:20:
                    3e:06:94:7b:9a:5f:8d:02:a1:0b:09:d9:66:50:29:
                    12:37:08:fc:6d:76:f4:37:cb:e5:10:c9:04:a9:85:
                    c3:50:cd:62:f4:7e:bf:82:13:a9:7d:99:05:26:b4:
                    f0:c4:d9:11:2b:12:00:7a:b3:1b:cf:bc:bd:f3:0b:
                    3d:10:1b:98:8a:31:da:dc:61:45:bc:83:10:ac:f1:
                    54:44:09:87:04:12:71:7c:07:c1:00:ac:47:a1:fd:
                    bb:98:3e:22:fd:ea:0f:c6:bf:17:3d:68:1e:53:e8:
                    8e:d9:a3:b5:b5:5c:86:c9:ba:2d:c9:88:3f:11:9a:
                    5c:6f:68:95:29:61:29:72:c1:62:1b:2a:3c:e0:4b:
                    ee:b8:23:56:54:92:e7:7c:74:1a:ac:3a:9f:4b:d4:
                    59:4f:7b:dd:23:fe:7a:93:db:52:9c:80:87:b5:60:
                    d0:e3:14:df:73:21:d4:cd:fa:05:c2:aa:33:5e:11:
                    99:0b:ea:b4:1e:7b:d2:97:5e:b2:d8:ae:22:ee:5b:
                    a0:62:ea:76:ec:0b:6a:da:fc:da:4b:3d:1f:40:ad:
                    77:1f
                Exponent: 65537 (0x10001)
        X509v3 extensions:
            X509v3 Basic Constraints: 
                CA:FALSE
            X509v3 Subject Key Identifier: 
                24:BC:E1:1B:2C:2B:94:9C:00:2B:96:96:34:ED:48:EB:65:3E:7A:CB
            X509v3 Authority Key Identifier: 
                keyid:B8:06:16:BF:2F:D2:ED:14:0E:5F:F5:75:E3:C1:F0:5D:F9:0C:9F:76
                DirName:/CN=team304-net
                serial:5C:DF:06:FF:15:D6:97:D0:93:08:11:DA:6C:E7:88:E9:A2:F0:16:FF
            X509v3 Extended Key Usage: 
                TLS Web Server Authentication
            X509v3 Key Usage: 
                Digital Signature, Key Encipherment
            X509v3 Subject Alternative Name: 
                DNS:team304-server
    Signature Algorithm: sha256WithRSAEncryption
    Signature Value:
        4d:c1:d9:7f:36:43:f7:c9:92:b0:11:ec:1c:7e:73:93:04:05:
        a8:33:5b:1a:94:74:de:d3:e0:f4:12:38:54:c6:cf:e9:83:65:
        40:b1:54:dd:78:1d:d6:9b:78:2b:a5:45:96:5b:9a:04:58:ac:
        b1:7a:ef:ac:c3:a8:06:8a:85:8a:62:4a:86:a9:66:77:d0:c0:
        38:46:2c:68:bf:ee:fb:fb:4a:69:b4:5e:35:f8:8f:54:0e:19:
        a3:52:06:89:48:13:69:b0:85:1a:3a:67:d4:c9:58:6d:e1:15:
        42:5b:58:23:93:9f:44:81:a4:c0:b4:02:63:f9:61:31:ab:16:
        8c:2c:e3:e1:67:01:2e:cd:6f:0b:05:41:a1:74:33:b6:cd:f8:
        46:a7:18:ef:28:28:e3:02:0b:16:d3:c0:49:f3:66:0b:97:e8:
        15:a8:ae:e7:47:71:fb:5d:64:ab:77:0d:bf:80:9b:41:a0:74:
        f5:ac:b5:ce:d4:2e:64:3a:ea:7e:69:6f:86:73:01:23:3d:ee:
        5a:79:a9:02:62:9d:0c:e7:55:06:ee:51:48:55:c5:88:18:83:
        0c:e5:13:be:df:45:f4:36:dd:4a:3f:5d:3e:65:c6:96:15:c5:
        1a:07:3c:1e:df:c8:3c:a2:41:f8:b0:d5:fb:11:61:52:51:54:
        ee:4f:29:f7
-----BEGIN CERTIFICATE-----
MIIDeDCCAmCgAwIBAgIRANv+vP1I1fGexGcz7HFPpGQwDQYJKoZIhvcNAQELBQAw
FjEUMBIGA1UEAwwLdGVhbTMwNC1uZXQwHhcNMjMxMTA0MTA0NjEzWhcNMjYxMDE5
MTA0NjEzWjAZMRcwFQYDVQQDDA50ZWFtMzA0LXNlcnZlcjCCASIwDQYJKoZIhvcN
AQEBBQADggEPADCCAQoCggEBAIndMMnd0oVDCxJn93D3/E80m+Ci2AvwHwnfPer6
C1Hrp9zlivpebB0X80MgPgaUe5pfjQKhCwnZZlApEjcI/G129DfL5RDJBKmFw1DN
YvR+v4ITqX2ZBSa08MTZESsSAHqzG8+8vfMLPRAbmIox2txhRbyDEKzxVEQJhwQS
cXwHwQCsR6H9u5g+Iv3qD8a/Fz1oHlPojtmjtbVchsm6LcmIPxGaXG9olSlhKXLB
YhsqPOBL7rgjVlSS53x0Gqw6n0vUWU973SP+epPbUpyAh7Vg0OMU33Mh1M36BcKq
M14RmQvqtB570pdestiuIu5boGLqduwLatr82ks9H0Ctdx8CAwEAAaOBvTCBujAJ
BgNVHRMEAjAAMB0GA1UdDgQWBBQkvOEbLCuUnAArlpY07UjrZT56yzBRBgNVHSME
SjBIgBS4Bha/L9LtFA5f9XXjwfBd+QyfdqEapBgwFjEUMBIGA1UEAwwLdGVhbTMw
NC1uZXSCFFzfBv8V1pfQkwgR2mzniOmi8Bb/MBMGA1UdJQQMMAoGCCsGAQUFBwMB
MAsGA1UdDwQEAwIFoDAZBgNVHREEEjAQgg50ZWFtMzA0LXNlcnZlcjANBgkqhkiG
9w0BAQsFAAOCAQEATcHZfzZD98mSsBHsHH5zkwQFqDNbGpR03tPg9BI4VMbP6YNl
QLFU3Xgd1pt4K6VFlluaBFissXrvrMOoBoqFimJKhqlmd9DAOEYsaL/u+/tKabRe
NfiPVA4Zo1IGiUgTabCFGjpn1MlYbeEVQltYI5OfRIGkwLQCY/lhMasWjCzj4WcB
Ls1vCwVBoXQzts34RqcY7ygo4wILFtPASfNmC5foFaiu50dx+11kq3cNv4CbQaB0
9ay1ztQuZDrqfmlvhnMBIz3uWnmpAmKdDOdVBu5RSFXFiBiDDOUTvt9F9DbdSj9d
PmXGlhXFGgc8Ht/IPKJB+LDV+xFhUlFU7k8p9w==
-----END CERTIFICATE-----
