Certificate:
    Data:
        Version: 3 (0x2)
        Serial Number:
            2c:d9:58:e5:5e:b2:d7:2f:82:a0:5d:41:fa:2b:6b:ff
        Signature Algorithm: sha256WithRSAEncryption
        Issuer: CN=team176-net
        Validity
            Not Before: Nov  4 10:43:49 2023 GMT
            Not After : Oct 19 10:43:49 2026 GMT
        Subject: CN=team176-client
        Subject Public Key Info:
            Public Key Algorithm: rsaEncryption
                Public-Key: (2048 bit)
                Modulus:
                    00:a7:79:2b:d5:ec:64:1a:c3:ad:a5:4a:f4:3c:42:
                    13:92:05:b3:65:96:f6:d3:a8:4a:0c:1c:a9:25:d2:
                    f3:0d:d3:b1:d0:82:bb:c9:91:6f:08:d9:17:ae:93:
                    02:65:7e:28:96:92:f8:d3:15:0e:5e:4f:8c:29:55:
                    7b:20:be:63:b9:e0:89:13:24:36:f5:9d:1b:e8:ee:
                    5c:e3:b2:a2:98:e7:78:9b:ec:2d:0a:43:0c:06:d1:
                    9f:14:70:5c:48:8d:57:6a:ca:f5:ec:1b:9e:6c:fc:
                    72:6f:bc:58:6a:0c:37:d5:69:f0:76:5a:80:cf:98:
                    19:6a:4b:34:a6:a0:4d:55:ba:70:29:07:b5:f8:0c:
                    f1:40:ca:32:ed:2f:63:5e:95:a5:df:51:73:d1:44:
                    69:ed:31:e8:f5:41:00:79:d5:ee:eb:35:f6:f3:6c:
                    12:95:b7:ba:bd:b4:4e:9f:38:d1:0d:55:5c:c0:90:
                    12:78:d2:57:0b:fc:d5:f9:6c:e3:40:5b:ef:e1:68:
                    81:e1:c5:81:a7:c0:51:5c:fc:1e:47:94:1d:c5:b7:
                    fa:6c:76:cc:82:61:70:db:58:e4:c6:e5:ab:5c:66:
                    1d:d0:f4:11:c1:29:54:9f:1d:35:5d:fb:cd:20:9c:
                    70:72:cd:80:d1:43:da:f5:8d:49:ba:ca:12:ba:3c:
                    d0:b5
                Exponent: 65537 (0x10001)
        X509v3 extensions:
            X509v3 Basic Constraints: 
                CA:FALSE
            X509v3 Subject Key Identifier: 
                27:76:44:74:16:61:83:24:85:E3:8F:FF:AB:59:B0:06:DD:A9:1E:BA
            X509v3 Authority Key Identifier: 
                keyid:E8:FF:49:E3:EE:2D:ED:13:23:D2:D6:87:A5:2F:02:87:A0:94:75:86
                DirName:/CN=team176-net
                serial:21:CD:F3:6D:CD:35:36:69:CD:63:58:0E:C8:EE:3F:AF:5E:B1:F7:45
            X509v3 Extended Key Usage: 
                TLS Web Client Authentication
            X509v3 Key Usage: 
                Digital Signature
    Signature Algorithm: sha256WithRSAEncryption
    Signature Value:
        c4:87:0d:2c:68:26:c7:12:ff:0f:6f:e7:86:eb:48:2e:90:07:
        30:da:2e:45:c9:e7:d0:48:11:c0:6d:95:9b:b2:b1:bd:9b:01:
        7c:0f:ff:70:ac:17:0b:ec:b6:d6:33:ac:54:77:a7:76:1b:fd:
        2b:b3:2c:b7:2e:94:f6:48:a5:4b:57:db:0d:30:d8:37:70:b5:
        4f:db:56:4c:87:d1:6e:c4:60:db:46:dd:b8:da:98:2b:fa:63:
        2b:13:c1:86:2b:c2:42:49:08:a5:e5:e5:e9:1f:88:13:2b:05:
        3a:92:a9:f6:33:30:b6:4d:9c:0d:d8:1e:5c:13:3a:f9:f7:35:
        0b:79:ea:bc:36:71:4a:a4:73:55:07:eb:a0:55:3c:a9:95:54:
        3f:a6:ec:00:49:eb:6c:97:24:36:63:29:04:e6:17:c0:ed:c3:
        8c:c5:b5:72:34:7b:30:a8:b8:5d:54:22:16:8a:22:91:68:0c:
        9a:ab:bb:d1:7f:76:de:d3:3b:9e:cf:d1:23:60:c3:b2:46:a0:
        aa:2e:2f:4f:cb:9b:62:1e:21:02:5c:f1:1f:f9:e9:4a:26:f1:
        a5:d6:ff:86:71:69:2c:57:a9:e9:24:45:fe:7a:b7:4d:f1:2e:
        a7:b7:fb:0a:42:12:29:39:66:2b:5e:d1:94:af:c4:8e:5a:55:
        32:47:e8:50
-----BEGIN CERTIFICATE-----
MIIDXDCCAkSgAwIBAgIQLNlY5V6y1y+CoF1B+itr/zANBgkqhkiG9w0BAQsFADAW
MRQwEgYDVQQDDAt0ZWFtMTc2LW5ldDAeFw0yMzExMDQxMDQzNDlaFw0yNjEwMTkx
MDQzNDlaMBkxFzAVBgNVBAMMDnRlYW0xNzYtY2xpZW50MIIBIjANBgkqhkiG9w0B
AQEFAAOCAQ8AMIIBCgKCAQEAp3kr1exkGsOtpUr0PEITkgWzZZb206hKDBypJdLz
DdOx0IK7yZFvCNkXrpMCZX4olpL40xUOXk+MKVV7IL5jueCJEyQ29Z0b6O5c47Ki
mOd4m+wtCkMMBtGfFHBcSI1Xasr17BuebPxyb7xYagw31WnwdlqAz5gZaks0pqBN
VbpwKQe1+AzxQMoy7S9jXpWl31Fz0URp7THo9UEAedXu6zX282wSlbe6vbROnzjR
DVVcwJASeNJXC/zV+WzjQFvv4WiB4cWBp8BRXPweR5Qdxbf6bHbMgmFw21jkxuWr
XGYd0PQRwSlUnx01XfvNIJxwcs2A0UPa9Y1JusoSujzQtQIDAQABo4GiMIGfMAkG
A1UdEwQCMAAwHQYDVR0OBBYEFCd2RHQWYYMkheOP/6tZsAbdqR66MFEGA1UdIwRK
MEiAFOj/SePuLe0TI9LWh6UvAoeglHWGoRqkGDAWMRQwEgYDVQQDDAt0ZWFtMTc2
LW5ldIIUIc3zbc01NmnNY1gOyO4/r16x90UwEwYDVR0lBAwwCgYIKwYBBQUHAwIw
CwYDVR0PBAQDAgeAMA0GCSqGSIb3DQEBCwUAA4IBAQDEhw0saCbHEv8Pb+eG60gu
kAcw2i5FyefQSBHAbZWbsrG9mwF8D/9wrBcL7LbWM6xUd6d2G/0rsyy3LpT2SKVL
V9sNMNg3cLVP21ZMh9FuxGDbRt242pgr+mMrE8GGK8JCSQil5eXpH4gTKwU6kqn2
MzC2TZwN2B5cEzr59zULeeq8NnFKpHNVB+ugVTyplVQ/puwASetslyQ2YykE5hfA
7cOMxbVyNHswqLhdVCIWiiKRaAyaq7vRf3be0zuez9EjYMOyRqCqLi9Py5tiHiEC
XPEf+elKJvGl1v+GcWksV6npJEX+erdN8S6nt/sKQhIpOWYrXtGUr8SOWlUyR+hQ
-----END CERTIFICATE-----
