Certificate:
    Data:
        Version: 3 (0x2)
        Serial Number:
            a1:ab:bd:30:cd:c5:42:57:a8:57:71:30:f7:d5:5a:fb
        Signature Algorithm: sha256WithRSAEncryption
        Issuer: CN=team176-net
        Validity
            Not Before: Nov  4 11:31:07 2023 GMT
            Not After : Oct 19 11:31:07 2026 GMT
        Subject: CN=team176-server
        Subject Public Key Info:
            Public Key Algorithm: rsaEncryption
                Public-Key: (2048 bit)
                Modulus:
                    00:c4:24:7f:3c:c9:b9:5c:99:3a:3c:09:1b:60:81:
                    71:1b:4e:4e:1e:5a:35:49:53:c6:2d:5f:5e:43:79:
                    2d:32:d6:8c:0b:1d:6e:23:3a:2b:70:3f:a3:14:25:
                    4a:a2:0a:fb:ef:f6:27:d8:22:72:fa:92:ff:3b:c2:
                    14:e3:fc:a5:94:38:8a:d7:a5:b0:4d:79:2a:50:4a:
                    52:78:97:ba:3a:c0:40:03:43:26:e6:ad:3c:a6:0e:
                    5d:17:ef:c0:0e:bf:1e:b8:0e:3b:f8:fd:db:ed:17:
                    9d:9b:43:08:df:a2:d2:64:3e:db:65:e0:29:a8:fa:
                    1d:2f:0e:70:08:9c:0e:86:f4:68:62:bf:b9:21:d5:
                    5e:cf:7a:d8:af:89:b3:a3:13:ab:23:78:02:ef:d8:
                    d2:40:f0:22:8e:f2:eb:bf:d5:90:6a:33:06:53:22:
                    5a:e0:30:55:df:47:3e:4a:54:77:dc:0a:9b:00:92:
                    cb:dc:02:22:e1:3f:1a:57:02:b7:8c:dc:e5:55:85:
                    af:aa:92:3b:41:55:a5:80:ce:b9:4b:32:a6:25:41:
                    2f:19:4d:76:b1:c7:08:88:2e:d5:84:f9:0e:0e:90:
                    85:2e:be:e7:32:e3:af:9f:2a:52:7f:7f:56:f8:e7:
                    0b:cc:05:6b:b4:8d:80:5e:39:1b:03:04:cb:fc:89:
                    84:4b
                Exponent: 65537 (0x10001)
        X509v3 extensions:
            X509v3 Basic Constraints: 
                CA:FALSE
            X509v3 Subject Key Identifier: 
                31:71:8D:C0:90:DD:36:8D:BB:01:88:56:3C:DF:E8:86:7C:55:0E:9A
            X509v3 Authority Key Identifier: 
                keyid:A1:B9:CA:2E:58:CB:0E:6B:68:17:7B:46:29:1D:B9:85:E8:F9:28:4A
                DirName:/CN=team176-net
                serial:64:31:C7:24:78:AC:C0:71:6E:53:98:92:8B:40:17:1C:E0:62:13:8E
            X509v3 Extended Key Usage: 
                TLS Web Server Authentication
            X509v3 Key Usage: 
                Digital Signature, Key Encipherment
            X509v3 Subject Alternative Name: 
                DNS:team176-server
    Signature Algorithm: sha256WithRSAEncryption
    Signature Value:
        2e:71:57:15:36:c5:01:50:a4:e4:9d:92:52:56:f3:2c:4c:87:
        f3:0b:dd:a1:92:d1:21:0b:0a:a7:3c:6f:33:5c:8d:1a:8d:c1:
        a4:fb:33:67:fc:39:97:4e:24:38:e5:94:7c:d2:be:15:ae:bb:
        81:bf:d5:4e:e2:5c:d6:f2:b7:5a:e2:69:1a:74:f5:69:ad:50:
        ee:60:6c:d8:83:95:6e:60:b4:7d:f8:d0:fe:0c:ca:19:d6:cc:
        a0:f7:26:2c:59:e0:a1:07:1c:0e:f0:ac:67:20:d0:26:81:b6:
        24:bd:7b:4f:1a:2f:fe:de:5f:ca:ea:ac:e6:49:b3:5a:85:e1:
        28:a4:8e:b3:7d:46:b6:1c:5a:be:9c:3f:77:06:e5:29:1f:5e:
        35:f9:0f:bf:f1:88:71:6b:b9:a6:6a:16:d2:1d:09:e6:8e:bc:
        ab:63:1a:b5:1e:68:84:09:48:98:54:b5:92:92:05:d7:b1:3e:
        b1:1a:94:8c:71:46:f8:1a:19:f8:94:c1:71:56:ce:a5:b9:60:
        33:f4:17:fe:3d:90:45:ab:70:61:a9:fe:25:41:ca:3f:05:41:
        ff:91:b6:b0:f9:4e:a7:c9:d8:41:d5:c7:3b:8d:78:19:ad:db:
        5b:2b:9c:78:3d:39:83:00:28:9e:88:b6:eb:c3:de:9b:25:c1:
        ed:16:59:e6
-----BEGIN CERTIFICATE-----
MIIDeDCCAmCgAwIBAgIRAKGrvTDNxUJXqFdxMPfVWvswDQYJKoZIhvcNAQELBQAw
FjEUMBIGA1UEAwwLdGVhbTE3Ni1uZXQwHhcNMjMxMTA0MTEzMTA3WhcNMjYxMDE5
MTEzMTA3WjAZMRcwFQYDVQQDDA50ZWFtMTc2LXNlcnZlcjCCASIwDQYJKoZIhvcN
AQEBBQADggEPADCCAQoCggEBAMQkfzzJuVyZOjwJG2CBcRtOTh5aNUlTxi1fXkN5
LTLWjAsdbiM6K3A/oxQlSqIK++/2J9gicvqS/zvCFOP8pZQ4itelsE15KlBKUniX
ujrAQANDJuatPKYOXRfvwA6/HrgOO/j92+0XnZtDCN+i0mQ+22XgKaj6HS8OcAic
Dob0aGK/uSHVXs962K+Js6MTqyN4Au/Y0kDwIo7y67/VkGozBlMiWuAwVd9HPkpU
d9wKmwCSy9wCIuE/GlcCt4zc5VWFr6qSO0FVpYDOuUsypiVBLxlNdrHHCIgu1YT5
Dg6QhS6+5zLjr58qUn9/VvjnC8wFa7SNgF45GwMEy/yJhEsCAwEAAaOBvTCBujAJ
BgNVHRMEAjAAMB0GA1UdDgQWBBQxcY3AkN02jbsBiFY83+iGfFUOmjBRBgNVHSME
SjBIgBShucouWMsOa2gXe0YpHbmF6PkoSqEapBgwFjEUMBIGA1UEAwwLdGVhbTE3
Ni1uZXSCFGQxxyR4rMBxblOYkotAFxzgYhOOMBMGA1UdJQQMMAoGCCsGAQUFBwMB
MAsGA1UdDwQEAwIFoDAZBgNVHREEEjAQgg50ZWFtMTc2LXNlcnZlcjANBgkqhkiG
9w0BAQsFAAOCAQEALnFXFTbFAVCk5J2SUlbzLEyH8wvdoZLRIQsKpzxvM1yNGo3B
pPszZ/w5l04kOOWUfNK+Fa67gb/VTuJc1vK3WuJpGnT1aa1Q7mBs2IOVbmC0ffjQ
/gzKGdbMoPcmLFngoQccDvCsZyDQJoG2JL17Txov/t5fyuqs5kmzWoXhKKSOs31G
thxavpw/dwblKR9eNfkPv/GIcWu5pmoW0h0J5o68q2MatR5ohAlImFS1kpIF17E+
sRqUjHFG+BoZ+JTBcVbOpblgM/QX/j2QRatwYan+JUHKPwVB/5G2sPlOp8nYQdXH
O414Ga3bWyuceD05gwAonoi268PemyXB7RZZ5g==
-----END CERTIFICATE-----
