Certificate:
    Data:
        Version: 3 (0x2)
        Serial Number:
            1b:c0:63:19:76:7c:f1:c0:44:88:d1:14:58:e9:ba:24
        Signature Algorithm: sha256WithRSAEncryption
        Issuer: CN=team360-net
        Validity
            Not Before: Nov  4 10:47:11 2023 GMT
            Not After : Oct 19 10:47:11 2026 GMT
        Subject: CN=team360-server
        Subject Public Key Info:
            Public Key Algorithm: rsaEncryption
                Public-Key: (2048 bit)
                Modulus:
                    00:f9:4b:00:97:ac:92:51:17:35:3e:20:ee:3d:0a:
                    e2:c3:4a:6a:2a:6c:e7:44:23:55:75:6e:b9:a2:b2:
                    93:6b:4e:64:1c:ec:27:f4:d8:21:e1:07:5b:cd:ab:
                    b5:66:2b:e5:a7:ab:ce:95:e9:68:75:e4:3c:63:c4:
                    5d:dc:40:ac:79:c9:f0:be:6f:94:47:e4:35:21:6e:
                    16:fc:be:eb:16:29:e0:79:6b:15:d2:b4:a9:0c:7b:
                    3a:8b:b0:c4:d7:0f:dc:a4:a7:5b:0a:f8:c8:c7:d5:
                    8c:b0:d2:6a:cd:be:68:4e:1b:c1:f6:a8:d7:ef:6e:
                    25:14:03:ac:3d:aa:ae:a4:3a:b5:4a:ea:0f:4d:05:
                    25:04:9c:7e:f2:b7:da:9e:29:7d:3d:66:64:60:ad:
                    18:ae:3a:70:53:a5:73:e6:4d:ac:67:33:9b:02:fd:
                    08:c0:78:fe:e8:e7:a2:54:18:e3:81:9c:63:e9:5f:
                    9b:93:45:10:2b:1d:2b:19:af:6c:2c:f2:4d:e5:b7:
                    17:5b:69:f3:37:f5:74:d8:9d:05:66:94:38:6a:d4:
                    70:49:de:b6:5f:7d:eb:46:0b:8b:83:15:2a:8f:28:
                    21:d2:87:9f:9d:6a:78:7f:68:2a:b7:d9:f5:35:c2:
                    c6:60:15:88:8a:d3:7e:fa:c4:6d:01:88:14:7a:c3:
                    30:ef
                Exponent: 65537 (0x10001)
        X509v3 extensions:
            X509v3 Basic Constraints: 
                CA:FALSE
            X509v3 Subject Key Identifier: 
                4E:39:A6:3C:90:15:F4:61:68:1E:43:06:EF:73:33:C2:AC:AD:FA:D0
            X509v3 Authority Key Identifier: 
                keyid:D6:55:01:84:D1:92:26:81:43:EE:49:C1:5C:CB:D7:8F:79:D2:C9:88
                DirName:/CN=team360-net
                serial:62:CC:76:D9:42:6D:2B:D6:58:4B:BD:CE:E9:C8:17:CE:F8:D1:F7:90
            X509v3 Extended Key Usage: 
                TLS Web Server Authentication
            X509v3 Key Usage: 
                Digital Signature, Key Encipherment
            X509v3 Subject Alternative Name: 
                DNS:team360-server
    Signature Algorithm: sha256WithRSAEncryption
    Signature Value:
        37:10:75:d0:24:58:f3:27:bc:a8:79:87:81:5d:4d:e0:e1:95:
        19:0c:9e:c1:72:30:a6:57:fa:cb:6c:22:64:b9:f3:85:35:87:
        dd:68:5c:fc:4c:50:86:b5:c3:3b:7d:e2:72:29:4c:33:c7:64:
        ef:b8:dd:6d:f1:0b:7c:63:40:b9:77:51:e8:9d:10:7a:2d:b2:
        78:91:65:ea:bf:2e:e6:9f:0c:de:a7:c0:35:28:6d:12:e7:ed:
        e1:3c:3a:87:d5:d9:96:94:f4:e1:4d:e0:58:4f:f1:53:e3:85:
        bc:aa:18:05:5a:69:ec:1d:e1:f1:e9:0e:24:2f:64:ad:4b:a7:
        ae:97:28:5b:ca:0f:a3:96:18:c4:b1:cd:1c:64:57:61:e8:48:
        c2:c9:5b:36:7d:6e:8f:a2:4b:d5:78:8c:38:c7:18:95:29:77:
        ad:78:b4:98:a3:a6:a9:34:70:6d:c1:27:4d:c7:1f:c1:71:e8:
        24:01:ad:e6:1e:9c:f6:a9:4f:48:5f:75:cb:52:ea:fc:4b:5a:
        27:09:1c:6e:52:5b:b4:1e:49:00:c3:aa:2b:cc:76:92:73:34:
        14:7c:c8:e2:68:d7:a0:d7:a0:5c:c7:21:bf:e2:0c:9f:cf:5c:
        ab:5c:7a:d5:4c:4a:ce:35:67:90:c7:e8:fe:cc:c1:77:3d:4e:
        2c:0d:71:7b
-----BEGIN CERTIFICATE-----
MIIDdzCCAl+gAwIBAgIQG8BjGXZ88cBEiNEUWOm6JDANBgkqhkiG9w0BAQsFADAW
MRQwEgYDVQQDDAt0ZWFtMzYwLW5ldDAeFw0yMzExMDQxMDQ3MTFaFw0yNjEwMTkx
MDQ3MTFaMBkxFzAVBgNVBAMMDnRlYW0zNjAtc2VydmVyMIIBIjANBgkqhkiG9w0B
AQEFAAOCAQ8AMIIBCgKCAQEA+UsAl6ySURc1PiDuPQriw0pqKmznRCNVdW65orKT
a05kHOwn9Ngh4Qdbzau1Zivlp6vOlelodeQ8Y8Rd3ECsecnwvm+UR+Q1IW4W/L7r
FingeWsV0rSpDHs6i7DE1w/cpKdbCvjIx9WMsNJqzb5oThvB9qjX724lFAOsPaqu
pDq1SuoPTQUlBJx+8rfanil9PWZkYK0YrjpwU6Vz5k2sZzObAv0IwHj+6OeiVBjj
gZxj6V+bk0UQKx0rGa9sLPJN5bcXW2nzN/V02J0FZpQ4atRwSd62X33rRguLgxUq
jygh0oefnWp4f2gqt9n1NcLGYBWIitN++sRtAYgUesMw7wIDAQABo4G9MIG6MAkG
A1UdEwQCMAAwHQYDVR0OBBYEFE45pjyQFfRhaB5DBu9zM8KsrfrQMFEGA1UdIwRK
MEiAFNZVAYTRkiaBQ+5JwVzL14950smIoRqkGDAWMRQwEgYDVQQDDAt0ZWFtMzYw
LW5ldIIUYsx22UJtK9ZYS73O6cgXzvjR95AwEwYDVR0lBAwwCgYIKwYBBQUHAwEw
CwYDVR0PBAQDAgWgMBkGA1UdEQQSMBCCDnRlYW0zNjAtc2VydmVyMA0GCSqGSIb3
DQEBCwUAA4IBAQA3EHXQJFjzJ7yoeYeBXU3g4ZUZDJ7BcjCmV/rLbCJkufOFNYfd
aFz8TFCGtcM7feJyKUwzx2TvuN1t8Qt8Y0C5d1HonRB6LbJ4kWXqvy7mnwzep8A1
KG0S5+3hPDqH1dmWlPThTeBYT/FT44W8qhgFWmnsHeHx6Q4kL2StS6eulyhbyg+j
lhjEsc0cZFdh6EjCyVs2fW6PokvVeIw4xxiVKXeteLSYo6apNHBtwSdNxx/Bcegk
Aa3mHpz2qU9IX3XLUur8S1onCRxuUlu0HkkAw6orzHaSczQUfMjiaNeg16BcxyG/
4gyfz1yrXHrVTErONWeQx+j+zMF3PU4sDXF7
-----END CERTIFICATE-----
