Certificate:
    Data:
        Version: 3 (0x2)
        Serial Number:
            22:1a:50:2a:92:c5:d2:bd:00:52:fc:26:b9:ac:e3
        Signature Algorithm: sha256WithRSAEncryption
        Issuer: CN=team360-net
        Validity
            Not Before: Nov  4 11:35:29 2023 GMT
            Not After : Oct 19 11:35:29 2026 GMT
        Subject: CN=team360-server
        Subject Public Key Info:
            Public Key Algorithm: rsaEncryption
                Public-Key: (2048 bit)
                Modulus:
                    00:ab:5b:5e:c8:b9:d7:a3:71:eb:6a:15:c5:55:05:
                    49:5b:0e:3b:20:94:c8:0d:c2:75:bc:2a:95:2f:51:
                    04:99:aa:7c:0e:2c:bf:af:c1:dc:3c:40:01:d8:49:
                    44:c3:0f:a5:62:c8:04:d7:f0:17:a0:bc:2b:eb:cf:
                    ec:78:0b:4d:54:67:23:47:48:a3:61:8b:27:f9:92:
                    e1:51:ae:b1:48:74:11:a7:73:1a:62:34:9a:85:1c:
                    47:93:0d:cf:8e:58:91:be:46:b9:c8:23:cd:b6:99:
                    f4:42:4a:12:57:ab:5b:a6:48:b7:3e:44:8c:fa:a3:
                    85:06:bc:2c:99:47:d8:67:97:d7:52:5a:6b:95:e7:
                    85:13:2e:98:0e:19:29:9a:be:3c:cc:53:6f:2c:5d:
                    40:13:d8:94:8b:bf:e7:6c:0a:1a:5d:ca:f9:06:50:
                    35:09:28:b4:2f:39:92:59:40:ba:fe:79:20:74:ef:
                    33:91:9b:27:3c:e6:78:da:e7:45:37:c4:99:1e:89:
                    2e:25:be:60:94:39:9e:31:68:12:dd:6e:ef:80:9c:
                    68:67:4c:a3:50:0c:49:1d:54:82:4d:44:31:39:65:
                    27:e8:33:4e:6b:82:97:90:7c:0f:5f:3b:e6:da:d7:
                    6f:55:9a:50:54:00:1a:e5:b3:b4:40:48:2a:8b:0d:
                    cc:91
                Exponent: 65537 (0x10001)
        X509v3 extensions:
            X509v3 Basic Constraints: 
                CA:FALSE
            X509v3 Subject Key Identifier: 
                98:D3:DB:C9:C0:CF:FF:58:5D:3F:C9:14:C8:22:14:46:BF:56:94:5F
            X509v3 Authority Key Identifier: 
                keyid:99:BE:58:47:37:C3:78:9F:A2:38:6E:42:7B:E8:B6:29:42:E6:21:64
                DirName:/CN=team360-net
                serial:35:9A:2A:DD:A3:B4:6C:24:55:72:6F:E3:B3:D7:63:AE:5E:FC:5E:45
            X509v3 Extended Key Usage: 
                TLS Web Server Authentication
            X509v3 Key Usage: 
                Digital Signature, Key Encipherment
            X509v3 Subject Alternative Name: 
                DNS:team360-server
    Signature Algorithm: sha256WithRSAEncryption
    Signature Value:
        78:e9:ec:74:9e:1d:de:a9:ee:54:9e:a9:a3:58:77:4d:09:6a:
        19:96:2d:7e:29:6f:62:17:45:59:8f:d1:d5:1f:7b:7f:b7:d2:
        3a:9b:e8:7a:36:0c:e7:be:a3:69:5c:f7:4a:57:56:26:60:f1:
        58:85:c9:6f:7c:5e:21:7d:2e:4e:9a:98:bd:45:4f:76:05:7c:
        cd:d3:ff:90:0f:a3:69:dd:7b:12:4d:52:6a:ac:25:80:09:f7:
        23:7c:95:aa:3d:19:62:9e:14:16:b7:fd:1b:5a:85:14:41:61:
        c1:65:18:2a:9b:29:34:06:fb:28:13:0c:db:f9:74:1f:0b:b3:
        e3:a2:49:ea:3b:dc:b0:97:fe:77:72:63:7f:86:35:b9:b1:95:
        6c:35:36:96:84:b1:82:2e:34:bf:e5:56:12:ea:85:bf:a6:68:
        d9:90:be:56:9a:b4:27:a3:bd:e6:ea:f7:32:a6:36:07:95:9a:
        c6:db:87:c0:b2:60:36:33:b4:38:1a:ae:45:2e:4c:b4:7f:d3:
        4c:d2:62:e0:69:e7:41:21:bb:f3:bc:58:c6:76:d7:18:a9:d5:
        51:01:74:b8:1b:56:6c:22:f4:a4:33:89:85:ae:19:54:b6:5a:
        16:3c:f9:02:b3:f8:56:fc:e3:39:fa:76:15:cb:81:a7:22:da:
        57:bf:fa:7b
-----BEGIN CERTIFICATE-----
MIIDdjCCAl6gAwIBAgIPIhpQKpLF0r0AUvwmuazjMA0GCSqGSIb3DQEBCwUAMBYx
FDASBgNVBAMMC3RlYW0zNjAtbmV0MB4XDTIzMTEwNDExMzUyOVoXDTI2MTAxOTEx
MzUyOVowGTEXMBUGA1UEAwwOdGVhbTM2MC1zZXJ2ZXIwggEiMA0GCSqGSIb3DQEB
AQUAA4IBDwAwggEKAoIBAQCrW17IudejcetqFcVVBUlbDjsglMgNwnW8KpUvUQSZ
qnwOLL+vwdw8QAHYSUTDD6ViyATX8BegvCvrz+x4C01UZyNHSKNhiyf5kuFRrrFI
dBGncxpiNJqFHEeTDc+OWJG+RrnII822mfRCShJXq1umSLc+RIz6o4UGvCyZR9hn
l9dSWmuV54UTLpgOGSmavjzMU28sXUAT2JSLv+dsChpdyvkGUDUJKLQvOZJZQLr+
eSB07zORmyc85nja50U3xJkeiS4lvmCUOZ4xaBLdbu+AnGhnTKNQDEkdVIJNRDE5
ZSfoM05rgpeQfA9fO+ba129VmlBUABrls7RASCqLDcyRAgMBAAGjgb0wgbowCQYD
VR0TBAIwADAdBgNVHQ4EFgQUmNPbycDP/1hdP8kUyCIURr9WlF8wUQYDVR0jBEow
SIAUmb5YRzfDeJ+iOG5Ce+i2KULmIWShGqQYMBYxFDASBgNVBAMMC3RlYW0zNjAt
bmV0ghQ1mirdo7RsJFVyb+Oz12OuXvxeRTATBgNVHSUEDDAKBggrBgEFBQcDATAL
BgNVHQ8EBAMCBaAwGQYDVR0RBBIwEIIOdGVhbTM2MC1zZXJ2ZXIwDQYJKoZIhvcN
AQELBQADggEBAHjp7HSeHd6p7lSeqaNYd00JahmWLX4pb2IXRVmP0dUfe3+30jqb
6Ho2DOe+o2lc90pXViZg8ViFyW98XiF9Lk6amL1FT3YFfM3T/5APo2ndexJNUmqs
JYAJ9yN8lao9GWKeFBa3/RtahRRBYcFlGCqbKTQG+ygTDNv5dB8Ls+OiSeo73LCX
/ndyY3+GNbmxlWw1NpaEsYIuNL/lVhLqhb+maNmQvlaatCejvebq9zKmNgeVmsbb
h8CyYDYztDgarkUuTLR/00zSYuBp50Ehu/O8WMZ21xip1VEBdLgbVmwi9KQziYWu
GVS2WhY8+QKz+Fb84zn6dhXLgaci2le/+ns=
-----END CERTIFICATE-----
