Certificate:
    Data:
        Version: 3 (0x2)
        Serial Number:
            6c:16:b9:94:7e:9e:4d:cf:96:7f:64:bb:bc:c7:de:7f
        Signature Algorithm: sha256WithRSAEncryption
        Issuer: CN=team360-net
        Validity
            Not Before: Nov  3 20:45:50 2023 GMT
            Not After : Oct 18 20:45:50 2026 GMT
        Subject: CN=team360-client
        Subject Public Key Info:
            Public Key Algorithm: rsaEncryption
                Public-Key: (2048 bit)
                Modulus:
                    00:c1:12:33:57:9e:c1:17:55:3f:44:6d:f4:7e:b8:
                    b2:e9:01:bb:72:e5:7b:e4:cd:7c:bd:a7:25:20:16:
                    4a:48:a9:07:1b:d7:32:09:4c:99:8d:11:a0:10:0d:
                    39:dc:20:33:67:a2:7f:73:65:8d:33:4c:5a:ca:b0:
                    48:c3:c9:42:c7:4e:6c:cc:2e:96:7b:6e:ef:02:03:
                    42:9d:f9:01:39:cb:0c:28:59:65:4b:c6:24:3c:f8:
                    88:96:07:03:c0:ed:1e:bb:c6:32:fc:07:4e:5b:ca:
                    41:be:37:9b:88:21:52:19:2e:eb:ec:91:04:a2:6d:
                    52:bf:ac:26:9f:1e:d3:ed:de:65:3e:69:7a:07:e1:
                    60:c1:76:e5:55:94:85:a4:50:9f:9c:2b:b1:a7:f0:
                    d6:02:36:3d:32:a6:d7:87:96:b0:91:8b:3f:0a:b2:
                    97:40:13:fc:3c:43:9a:2f:45:4b:b8:e3:bb:b1:ae:
                    5e:53:03:40:f5:77:3d:c5:fc:99:b2:b8:8c:fc:8b:
                    7d:98:f4:8a:16:35:5a:31:b1:2e:64:a2:06:fa:6e:
                    1f:df:f6:41:fb:e1:64:cd:41:82:4a:f9:fe:5c:b5:
                    51:8e:63:9a:c1:b7:af:fb:a4:1b:17:2a:31:cf:83:
                    fb:65:aa:45:a0:89:02:07:71:06:67:94:dd:df:7e:
                    c4:7b
                Exponent: 65537 (0x10001)
        X509v3 extensions:
            X509v3 Basic Constraints: 
                CA:FALSE
            X509v3 Subject Key Identifier: 
                E3:54:05:1A:D0:CF:1A:B7:8B:46:2D:61:21:89:34:40:FD:79:35:31
            X509v3 Authority Key Identifier: 
                keyid:B6:96:F5:02:7E:9E:1F:93:DE:CB:04:DC:9E:DA:52:F9:8C:D1:05:9A
                DirName:/CN=team360-net
                serial:77:9C:3C:3A:05:AD:91:5B:B9:87:CA:48:89:9F:E9:E0:0D:00:2E:1E
            X509v3 Extended Key Usage: 
                TLS Web Client Authentication
            X509v3 Key Usage: 
                Digital Signature
    Signature Algorithm: sha256WithRSAEncryption
    Signature Value:
        c3:c3:2c:37:75:3f:74:ec:70:77:d2:1f:63:d0:5c:ec:ee:da:
        a8:22:96:a9:ec:0d:b2:98:c6:86:ed:e3:ef:9b:bb:d0:7c:f2:
        24:c1:8f:80:df:2f:24:53:81:77:ff:d5:05:d8:8f:9c:32:d9:
        a0:54:38:19:c7:e5:6e:54:c0:85:87:91:8f:d4:aa:7b:92:ec:
        50:26:07:3f:2f:92:0a:96:ca:f6:c4:5d:fe:bf:ae:12:f9:c0:
        a3:ad:c2:a9:70:0b:9d:cd:dc:5d:b1:89:6c:98:01:e1:03:e0:
        35:49:68:df:96:09:d3:3a:60:33:6f:df:04:a7:51:6e:d6:19:
        2c:b7:5f:9c:c9:5d:70:11:26:b1:9b:aa:60:09:c4:b1:19:2f:
        64:8b:53:8b:4c:28:35:14:d8:3c:d9:9a:b0:04:49:d2:af:1c:
        bd:e7:df:b9:13:aa:5f:30:7b:ce:b9:a2:18:f2:f2:fc:70:85:
        d5:27:a8:e0:72:89:75:70:db:98:d7:a9:f4:d1:64:cb:de:89:
        2b:80:8b:be:e8:70:33:22:d3:62:0f:a2:d3:dc:fd:cc:8b:90:
        a9:c8:95:4d:b3:b6:38:e1:42:78:0f:a9:f8:cd:af:9a:80:4c:
        4f:c4:97:16:38:f4:83:b9:e1:4e:a5:aa:66:12:48:4a:25:d6:
        6d:71:0b:55
-----BEGIN CERTIFICATE-----
MIIDXDCCAkSgAwIBAgIQbBa5lH6eTc+Wf2S7vMfefzANBgkqhkiG9w0BAQsFADAW
MRQwEgYDVQQDDAt0ZWFtMzYwLW5ldDAeFw0yMzExMDMyMDQ1NTBaFw0yNjEwMTgy
MDQ1NTBaMBkxFzAVBgNVBAMMDnRlYW0zNjAtY2xpZW50MIIBIjANBgkqhkiG9w0B
AQEFAAOCAQ8AMIIBCgKCAQEAwRIzV57BF1U/RG30friy6QG7cuV75M18vaclIBZK
SKkHG9cyCUyZjRGgEA053CAzZ6J/c2WNM0xayrBIw8lCx05szC6We27vAgNCnfkB
OcsMKFllS8YkPPiIlgcDwO0eu8Yy/AdOW8pBvjebiCFSGS7r7JEEom1Sv6wmnx7T
7d5lPml6B+FgwXblVZSFpFCfnCuxp/DWAjY9MqbXh5awkYs/CrKXQBP8PEOaL0VL
uOO7sa5eUwNA9Xc9xfyZsriM/It9mPSKFjVaMbEuZKIG+m4f3/ZB++FkzUGCSvn+
XLVRjmOawbev+6QbFyoxz4P7ZapFoIkCB3EGZ5Td337EewIDAQABo4GiMIGfMAkG
A1UdEwQCMAAwHQYDVR0OBBYEFONUBRrQzxq3i0YtYSGJNED9eTUxMFEGA1UdIwRK
MEiAFLaW9QJ+nh+T3ssE3J7aUvmM0QWaoRqkGDAWMRQwEgYDVQQDDAt0ZWFtMzYw
LW5ldIIUd5w8OgWtkVu5h8pIiZ/p4A0ALh4wEwYDVR0lBAwwCgYIKwYBBQUHAwIw
CwYDVR0PBAQDAgeAMA0GCSqGSIb3DQEBCwUAA4IBAQDDwyw3dT907HB30h9j0Fzs
7tqoIpap7A2ymMaG7ePvm7vQfPIkwY+A3y8kU4F3/9UF2I+cMtmgVDgZx+VuVMCF
h5GP1Kp7kuxQJgc/L5IKlsr2xF3+v64S+cCjrcKpcAudzdxdsYlsmAHhA+A1SWjf
lgnTOmAzb98Ep1Fu1hkst1+cyV1wESaxm6pgCcSxGS9ki1OLTCg1FNg82ZqwBEnS
rxy959+5E6pfMHvOuaIY8vL8cIXVJ6jgcol1cNuY16n00WTL3okrgIu+6HAzItNi
D6LT3P3Mi5CpyJVNs7Y44UJ4D6n4za+agExPxJcWOPSDueFOpapmEkhKJdZtcQtV
-----END CERTIFICATE-----
