Certificate:
    Data:
        Version: 3 (0x2)
        Serial Number:
            b1:38:18:ce:0f:dc:be:8e:73:a3:6d:3e:18:28:22:5c
        Signature Algorithm: sha256WithRSAEncryption
        Issuer: CN=team360-net
        Validity
            Not Before: Nov  4 11:35:29 2023 GMT
            Not After : Oct 19 11:35:29 2026 GMT
        Subject: CN=team360-client
        Subject Public Key Info:
            Public Key Algorithm: rsaEncryption
                Public-Key: (2048 bit)
                Modulus:
                    00:90:09:fc:15:d7:45:da:e9:de:8d:28:9f:65:2c:
                    1a:1f:7f:fe:33:84:6a:65:b6:98:11:5e:b2:0a:25:
                    c7:6e:8d:48:e4:f9:08:14:5f:ee:08:92:b2:ac:c0:
                    93:95:b6:c9:9e:98:65:b5:71:8c:34:1e:91:7a:73:
                    4f:ae:d9:2c:5d:87:1d:40:48:80:2c:7d:8c:79:5f:
                    6e:ff:85:09:db:ba:7a:0e:aa:da:65:96:06:16:f0:
                    ee:45:4d:13:55:40:0d:a8:c2:db:20:14:b5:72:53:
                    82:01:57:49:cb:96:74:f4:5f:4d:3b:e0:d3:ee:30:
                    fe:b7:f8:96:70:fe:fe:01:82:9b:6c:e6:cf:9b:4f:
                    fb:b4:f4:48:48:1e:a2:5d:8e:dd:f3:82:f7:a5:65:
                    59:99:f0:58:1a:32:71:e5:d6:b8:56:bf:03:79:50:
                    f6:60:6d:ed:95:aa:19:7b:3f:14:ca:5b:06:77:6b:
                    e7:2c:20:f8:95:17:f8:d5:a3:18:45:b7:cb:ed:ab:
                    a9:b3:35:39:39:7e:5c:8a:05:de:6e:2a:3b:44:f3:
                    b5:c8:21:f2:6a:d1:b6:da:54:ec:a4:df:b6:3d:09:
                    97:7d:49:f1:22:bc:0e:69:73:98:fa:7c:b2:9e:84:
                    61:7a:7e:b6:c1:5d:b3:58:a6:de:dc:40:f3:f3:c6:
                    6c:a9
                Exponent: 65537 (0x10001)
        X509v3 extensions:
            X509v3 Basic Constraints: 
                CA:FALSE
            X509v3 Subject Key Identifier: 
                E4:55:2A:DC:1D:39:81:7F:19:E4:AB:68:BF:21:BC:01:85:2F:1B:44
            X509v3 Authority Key Identifier: 
                keyid:99:BE:58:47:37:C3:78:9F:A2:38:6E:42:7B:E8:B6:29:42:E6:21:64
                DirName:/CN=team360-net
                serial:35:9A:2A:DD:A3:B4:6C:24:55:72:6F:E3:B3:D7:63:AE:5E:FC:5E:45
            X509v3 Extended Key Usage: 
                TLS Web Client Authentication
            X509v3 Key Usage: 
                Digital Signature
    Signature Algorithm: sha256WithRSAEncryption
    Signature Value:
        78:d7:43:73:14:7f:90:ff:bd:64:6f:59:5a:29:8d:19:8f:88:
        21:53:40:97:99:08:8a:d4:15:1f:1e:7d:32:50:ee:29:92:38:
        4e:6e:90:22:68:2d:22:4d:09:73:3c:24:b0:58:f3:e8:c0:35:
        66:d8:2d:91:29:00:4c:97:1f:15:fd:33:1e:9f:c0:da:1a:5d:
        b1:74:b4:48:ee:5d:34:56:8d:af:7e:ed:3b:29:ad:86:93:4d:
        24:85:d2:c3:9b:dd:7c:d6:19:ff:df:9f:fd:9e:f0:5f:2a:e7:
        0e:8b:b9:f1:32:fe:a8:70:1b:2d:a7:1f:05:57:5f:57:5a:4c:
        e6:f0:6b:55:ce:1e:9e:00:12:c4:f7:ec:98:e1:e1:e0:15:49:
        7e:dc:66:c7:c6:38:25:5a:39:0c:b8:82:1b:eb:ac:6b:30:32:
        8f:c4:6c:73:e1:09:88:f1:8e:a3:ad:a2:17:da:92:58:6b:c2:
        9f:ed:eb:03:44:35:d5:e7:36:f0:5e:c1:50:f6:a8:a4:b6:12:
        87:80:94:88:01:67:80:d6:b6:46:8f:df:39:f0:58:69:69:7d:
        db:eb:e1:6d:f8:7b:e0:fc:2a:60:87:6c:34:75:30:bf:98:7d:
        cb:d9:f7:d2:d7:2a:54:1f:95:78:ba:72:f3:38:b9:41:a3:2c:
        2c:10:71:7b
-----BEGIN CERTIFICATE-----
MIIDXTCCAkWgAwIBAgIRALE4GM4P3L6Oc6NtPhgoIlwwDQYJKoZIhvcNAQELBQAw
FjEUMBIGA1UEAwwLdGVhbTM2MC1uZXQwHhcNMjMxMTA0MTEzNTI5WhcNMjYxMDE5
MTEzNTI5WjAZMRcwFQYDVQQDDA50ZWFtMzYwLWNsaWVudDCCASIwDQYJKoZIhvcN
AQEBBQADggEPADCCAQoCggEBAJAJ/BXXRdrp3o0on2UsGh9//jOEamW2mBFesgol
x26NSOT5CBRf7giSsqzAk5W2yZ6YZbVxjDQekXpzT67ZLF2HHUBIgCx9jHlfbv+F
Cdu6eg6q2mWWBhbw7kVNE1VADajC2yAUtXJTggFXScuWdPRfTTvg0+4w/rf4lnD+
/gGCm2zmz5tP+7T0SEgeol2O3fOC96VlWZnwWBoyceXWuFa/A3lQ9mBt7ZWqGXs/
FMpbBndr5ywg+JUX+NWjGEW3y+2rqbM1OTl+XIoF3m4qO0Tztcgh8mrRttpU7KTf
tj0Jl31J8SK8DmlzmPp8sp6EYXp+tsFds1im3txA8/PGbKkCAwEAAaOBojCBnzAJ
BgNVHRMEAjAAMB0GA1UdDgQWBBTkVSrcHTmBfxnkq2i/IbwBhS8bRDBRBgNVHSME
SjBIgBSZvlhHN8N4n6I4bkJ76LYpQuYhZKEapBgwFjEUMBIGA1UEAwwLdGVhbTM2
MC1uZXSCFDWaKt2jtGwkVXJv47PXY65e/F5FMBMGA1UdJQQMMAoGCCsGAQUFBwMC
MAsGA1UdDwQEAwIHgDANBgkqhkiG9w0BAQsFAAOCAQEAeNdDcxR/kP+9ZG9ZWimN
GY+IIVNAl5kIitQVHx59MlDuKZI4Tm6QImgtIk0JczwksFjz6MA1ZtgtkSkATJcf
Ff0zHp/A2hpdsXS0SO5dNFaNr37tOymthpNNJIXSw5vdfNYZ/9+f/Z7wXyrnDou5
8TL+qHAbLacfBVdfV1pM5vBrVc4engASxPfsmOHh4BVJftxmx8Y4JVo5DLiCG+us
azAyj8Rsc+EJiPGOo62iF9qSWGvCn+3rA0Q11ec28F7BUPaopLYSh4CUiAFngNa2
Ro/fOfBYaWl92+vhbfh74PwqYIdsNHUwv5h9y9n30tcqVB+VeLpy8zi5QaMsLBBx
ew==
-----END CERTIFICATE-----
