Certificate:
    Data:
        Version: 3 (0x2)
        Serial Number:
            6b:53:17:45:d5:43:1b:ad:bb:df:af:df:9d:25:48:21
        Signature Algorithm: sha256WithRSAEncryption
        Issuer: CN=team168-net
        Validity
            Not Before: Nov  4 11:30:57 2023 GMT
            Not After : Oct 19 11:30:57 2026 GMT
        Subject: CN=team168-server
        Subject Public Key Info:
            Public Key Algorithm: rsaEncryption
                Public-Key: (2048 bit)
                Modulus:
                    00:e8:cf:2c:e0:3f:cf:c1:3a:58:0b:8b:95:5f:4d:
                    b2:a0:14:0a:f7:7b:97:7f:3e:63:ab:20:d9:e9:0e:
                    b6:b7:2c:49:07:c5:b9:12:b1:e1:1b:f6:6e:fb:52:
                    37:ab:ae:9d:7e:21:79:e5:cb:d5:9f:9c:75:3f:bd:
                    1d:c8:c1:77:d6:d9:b4:5d:df:d4:94:5c:13:01:d2:
                    72:89:eb:b7:e5:45:2b:a9:c3:2a:63:ee:b4:3b:4c:
                    14:0c:ae:7b:88:22:0c:34:f3:cf:95:47:03:6c:04:
                    59:d9:97:39:1b:65:fa:c7:fe:2b:15:86:21:26:5b:
                    79:6f:aa:c7:59:e3:7f:a1:b2:87:b9:7a:c3:c6:44:
                    05:b6:1d:08:b7:40:06:55:f4:26:e1:e0:62:20:df:
                    a6:0c:a6:79:a8:23:54:0f:86:f7:0b:70:7d:06:86:
                    91:97:a4:f0:49:e6:3f:bf:b7:ff:1f:80:3f:16:3e:
                    f2:28:ee:68:59:d4:de:6f:04:af:44:1e:52:3c:4a:
                    d2:0a:3e:84:0c:db:95:f9:72:b1:56:9a:66:8c:c1:
                    d6:c2:3c:a3:71:03:91:12:c2:8f:d1:44:53:55:66:
                    72:1a:b3:c5:5a:80:4f:6e:c0:ed:38:1c:20:69:5e:
                    d6:13:20:3b:55:9a:d9:3f:30:53:64:10:54:9c:3f:
                    ea:73
                Exponent: 65537 (0x10001)
        X509v3 extensions:
            X509v3 Basic Constraints: 
                CA:FALSE
            X509v3 Subject Key Identifier: 
                E9:A4:7F:08:B0:2F:55:A4:5E:EF:14:93:CA:8C:28:7F:D4:A4:D5:2A
            X509v3 Authority Key Identifier: 
                keyid:CE:22:DA:05:BA:59:58:5D:30:72:E0:CF:0F:1A:C2:FC:0C:63:78:A4
                DirName:/CN=team168-net
                serial:2C:3A:1C:F9:01:17:D2:3B:05:ED:C6:8E:30:AC:75:7D:75:D8:B2:7B
            X509v3 Extended Key Usage: 
                TLS Web Server Authentication
            X509v3 Key Usage: 
                Digital Signature, Key Encipherment
            X509v3 Subject Alternative Name: 
                DNS:team168-server
    Signature Algorithm: sha256WithRSAEncryption
    Signature Value:
        d8:d2:c9:04:6a:e8:3d:93:d3:e1:2e:0c:90:97:e2:71:e9:12:
        fc:a1:8e:5d:de:8c:49:2f:cb:4a:cc:61:69:86:a2:2c:7b:35:
        ae:97:18:bf:d7:af:e1:28:70:e8:ec:9d:d9:fb:4a:d3:23:c3:
        bf:51:c2:e0:50:2f:41:01:dd:a3:9d:e0:c7:3a:36:f0:f1:b4:
        72:08:c4:42:45:6f:74:b4:0e:e6:c5:0d:ed:32:10:99:6f:cb:
        0e:67:74:c9:0c:de:2a:57:dd:c1:f7:db:21:53:7f:8d:c6:45:
        2b:96:b9:a8:19:dd:66:0a:cb:80:99:42:a7:8b:9f:33:38:2e:
        55:7b:e5:ae:52:50:37:21:c0:51:8d:4c:8b:07:96:63:d4:09:
        c9:36:17:60:2c:df:a6:4a:66:51:dd:ac:80:05:b2:67:a0:fb:
        cd:2c:18:d8:2b:8d:c2:f5:1d:a1:66:cb:c2:22:73:11:64:60:
        03:3f:13:f7:19:30:72:24:7f:19:00:c8:90:48:0b:f3:50:bf:
        20:36:ad:71:0b:cb:1c:cd:53:43:b9:12:8f:1c:97:7b:85:45:
        c0:95:fc:46:21:71:ce:d0:f1:fb:1f:ab:9a:6b:af:d2:3d:52:
        99:3f:04:31:0a:af:cb:03:11:4a:b4:76:c5:1b:ff:83:c9:e7:
        87:79:aa:7d
-----BEGIN CERTIFICATE-----
MIIDdzCCAl+gAwIBAgIQa1MXRdVDG62736/fnSVIITANBgkqhkiG9w0BAQsFADAW
MRQwEgYDVQQDDAt0ZWFtMTY4LW5ldDAeFw0yMzExMDQxMTMwNTdaFw0yNjEwMTkx
MTMwNTdaMBkxFzAVBgNVBAMMDnRlYW0xNjgtc2VydmVyMIIBIjANBgkqhkiG9w0B
AQEFAAOCAQ8AMIIBCgKCAQEA6M8s4D/PwTpYC4uVX02yoBQK93uXfz5jqyDZ6Q62
tyxJB8W5ErHhG/Zu+1I3q66dfiF55cvVn5x1P70dyMF31tm0Xd/UlFwTAdJyieu3
5UUrqcMqY+60O0wUDK57iCIMNPPPlUcDbARZ2Zc5G2X6x/4rFYYhJlt5b6rHWeN/
obKHuXrDxkQFth0It0AGVfQm4eBiIN+mDKZ5qCNUD4b3C3B9BoaRl6TwSeY/v7f/
H4A/Fj7yKO5oWdTebwSvRB5SPErSCj6EDNuV+XKxVppmjMHWwjyjcQOREsKP0URT
VWZyGrPFWoBPbsDtOBwgaV7WEyA7VZrZPzBTZBBUnD/qcwIDAQABo4G9MIG6MAkG
A1UdEwQCMAAwHQYDVR0OBBYEFOmkfwiwL1WkXu8Uk8qMKH/UpNUqMFEGA1UdIwRK
MEiAFM4i2gW6WVhdMHLgzw8awvwMY3ikoRqkGDAWMRQwEgYDVQQDDAt0ZWFtMTY4
LW5ldIIULDoc+QEX0jsF7caOMKx1fXXYsnswEwYDVR0lBAwwCgYIKwYBBQUHAwEw
CwYDVR0PBAQDAgWgMBkGA1UdEQQSMBCCDnRlYW0xNjgtc2VydmVyMA0GCSqGSIb3
DQEBCwUAA4IBAQDY0skEaug9k9PhLgyQl+Jx6RL8oY5d3oxJL8tKzGFphqIsezWu
lxi/16/hKHDo7J3Z+0rTI8O/UcLgUC9BAd2jneDHOjbw8bRyCMRCRW90tA7mxQ3t
MhCZb8sOZ3TJDN4qV93B99shU3+NxkUrlrmoGd1mCsuAmUKni58zOC5Ve+WuUlA3
IcBRjUyLB5Zj1AnJNhdgLN+mSmZR3ayABbJnoPvNLBjYK43C9R2hZsvCInMRZGAD
PxP3GTByJH8ZAMiQSAvzUL8gNq1xC8sczVNDuRKPHJd7hUXAlfxGIXHO0PH7H6ua
a6/SPVKZPwQxCq/LAxFKtHbFG/+DyeeHeap9
-----END CERTIFICATE-----
