Certificate:
    Data:
        Version: 3 (0x2)
        Serial Number:
            98:73:b0:d1:72:c4:6f:ec:7f:73:e6:61:18:91:ce:61
        Signature Algorithm: sha256WithRSAEncryption
        Issuer: CN=team168-net
        Validity
            Not Before: Nov  4 11:30:56 2023 GMT
            Not After : Oct 19 11:30:56 2026 GMT
        Subject: CN=team168-client
        Subject Public Key Info:
            Public Key Algorithm: rsaEncryption
                Public-Key: (2048 bit)
                Modulus:
                    00:bb:ea:a0:36:94:1c:e5:29:5f:df:96:a2:12:c9:
                    aa:63:05:7f:e7:e1:ca:c8:64:98:94:7a:5d:10:38:
                    78:b4:2b:8c:5b:da:e1:43:0e:f4:58:e3:62:0e:5c:
                    bd:26:a1:6f:39:94:5e:ab:5d:87:e2:c0:3f:4d:40:
                    de:0e:40:5e:79:02:a0:c8:3d:3a:24:16:f1:a0:52:
                    5b:24:06:1a:1c:e3:c9:df:9c:89:83:65:9d:e8:13:
                    22:a7:80:e4:22:2b:dd:ed:fd:b9:d3:8a:66:a4:c4:
                    5c:70:3b:c4:9d:62:d1:cd:98:ad:cb:23:37:61:c0:
                    c3:82:21:a3:bb:f1:df:fa:01:ac:ed:d9:c8:a6:99:
                    5f:75:e2:c5:f2:02:46:80:83:1a:a9:72:e2:cc:37:
                    8d:19:7b:29:a8:8b:53:47:d4:fb:2b:a0:f3:4e:47:
                    16:bb:8c:dd:76:34:93:45:40:bd:85:99:00:38:88:
                    c9:37:9b:ee:07:49:24:da:44:c5:02:31:1c:54:f4:
                    d4:f6:91:89:86:6e:31:71:bf:57:f0:41:db:12:4b:
                    c0:0f:72:35:a2:a2:f0:8a:9c:64:d0:40:44:ad:82:
                    8c:89:48:90:0f:fb:bf:1d:63:e0:10:bd:b5:91:7e:
                    54:40:f5:58:d1:70:2f:6e:6b:2f:00:5c:5b:11:46:
                    56:0b
                Exponent: 65537 (0x10001)
        X509v3 extensions:
            X509v3 Basic Constraints: 
                CA:FALSE
            X509v3 Subject Key Identifier: 
                98:CB:F3:3B:DA:00:1E:F9:40:A0:EB:42:0F:AA:B1:BD:A7:22:A9:7C
            X509v3 Authority Key Identifier: 
                keyid:CE:22:DA:05:BA:59:58:5D:30:72:E0:CF:0F:1A:C2:FC:0C:63:78:A4
                DirName:/CN=team168-net
                serial:2C:3A:1C:F9:01:17:D2:3B:05:ED:C6:8E:30:AC:75:7D:75:D8:B2:7B
            X509v3 Extended Key Usage: 
                TLS Web Client Authentication
            X509v3 Key Usage: 
                Digital Signature
    Signature Algorithm: sha256WithRSAEncryption
    Signature Value:
        b5:d5:1f:f6:62:86:51:57:53:8e:09:6e:ee:92:be:fa:23:7f:
        56:3a:e1:ca:21:e7:25:5b:1a:8b:40:d7:e7:d4:0d:09:80:9f:
        c3:9f:e0:16:d9:2e:df:3b:1a:08:b5:72:55:3e:8a:04:ff:dd:
        eb:36:d8:d8:68:13:81:56:4f:ce:1f:f8:e0:1a:fc:6f:71:92:
        50:1d:c0:ce:34:08:5d:1d:b2:30:ff:ca:2e:ef:fe:ff:34:bc:
        3e:22:94:06:4a:e7:3a:91:8e:76:ee:a5:d3:83:15:dc:a8:5d:
        9b:c3:42:35:64:ef:d3:d2:b3:a5:29:92:9c:eb:f5:18:a7:f7:
        b0:8d:39:c3:80:94:5b:67:de:56:1b:b2:aa:43:8c:61:c7:54:
        9f:58:24:cb:97:b7:af:82:55:8a:e1:19:9a:88:ca:6b:b7:78:
        dd:b9:03:0e:7b:c1:21:82:67:85:8f:9d:f8:ec:92:a5:40:18:
        0c:bf:1c:77:17:a4:f5:2b:b7:1e:e3:61:e4:1e:85:11:de:c2:
        fb:0f:aa:ed:fa:81:87:b5:9b:37:5d:95:c5:00:d7:49:64:d6:
        64:89:17:4e:19:19:5c:41:31:e1:68:5a:71:39:f5:06:c3:c8:
        a3:de:44:41:69:2f:ca:5b:9b:04:0e:2d:f1:27:14:1d:7f:c7:
        0d:ba:6a:b9
-----BEGIN CERTIFICATE-----
MIIDXTCCAkWgAwIBAgIRAJhzsNFyxG/sf3PmYRiRzmEwDQYJKoZIhvcNAQELBQAw
FjEUMBIGA1UEAwwLdGVhbTE2OC1uZXQwHhcNMjMxMTA0MTEzMDU2WhcNMjYxMDE5
MTEzMDU2WjAZMRcwFQYDVQQDDA50ZWFtMTY4LWNsaWVudDCCASIwDQYJKoZIhvcN
AQEBBQADggEPADCCAQoCggEBALvqoDaUHOUpX9+WohLJqmMFf+fhyshkmJR6XRA4
eLQrjFva4UMO9FjjYg5cvSahbzmUXqtdh+LAP01A3g5AXnkCoMg9OiQW8aBSWyQG
Ghzjyd+ciYNlnegTIqeA5CIr3e39udOKZqTEXHA7xJ1i0c2YrcsjN2HAw4Iho7vx
3/oBrO3ZyKaZX3XixfICRoCDGqly4sw3jRl7KaiLU0fU+yug805HFruM3XY0k0VA
vYWZADiIyTeb7gdJJNpExQIxHFT01PaRiYZuMXG/V/BB2xJLwA9yNaKi8IqcZNBA
RK2CjIlIkA/7vx1j4BC9tZF+VED1WNFwL25rLwBcWxFGVgsCAwEAAaOBojCBnzAJ
BgNVHRMEAjAAMB0GA1UdDgQWBBSYy/M72gAe+UCg60IPqrG9pyKpfDBRBgNVHSME
SjBIgBTOItoFullYXTBy4M8PGsL8DGN4pKEapBgwFjEUMBIGA1UEAwwLdGVhbTE2
OC1uZXSCFCw6HPkBF9I7Be3GjjCsdX112LJ7MBMGA1UdJQQMMAoGCCsGAQUFBwMC
MAsGA1UdDwQEAwIHgDANBgkqhkiG9w0BAQsFAAOCAQEAtdUf9mKGUVdTjglu7pK+
+iN/VjrhyiHnJVsai0DX59QNCYCfw5/gFtku3zsaCLVyVT6KBP/d6zbY2GgTgVZP
zh/44Br8b3GSUB3AzjQIXR2yMP/KLu/+/zS8PiKUBkrnOpGOdu6l04MV3Khdm8NC
NWTv09KzpSmSnOv1GKf3sI05w4CUW2feVhuyqkOMYcdUn1gky5e3r4JViuEZmojK
a7d43bkDDnvBIYJnhY+d+OySpUAYDL8cdxek9Su3HuNh5B6FEd7C+w+q7fqBh7Wb
N12VxQDXSWTWZIkXThkZXEEx4WhacTn1BsPIo95EQWkvylubBA4t8ScUHX/HDbpq
uQ==
-----END CERTIFICATE-----
