Certificate:
    Data:
        Version: 3 (0x2)
        Serial Number:
            b8:61:46:b4:e8:a1:83:38:d8:f3:0e:21:e5:17:45:d7
        Signature Algorithm: sha256WithRSAEncryption
        Issuer: CN=team168-net
        Validity
            Not Before: Nov  4 10:43:39 2023 GMT
            Not After : Oct 19 10:43:39 2026 GMT
        Subject: CN=team168-client
        Subject Public Key Info:
            Public Key Algorithm: rsaEncryption
                Public-Key: (2048 bit)
                Modulus:
                    00:d7:e6:00:1c:7d:ca:93:99:1e:10:93:38:06:2b:
                    7c:77:97:fb:6a:5a:6b:96:ad:d7:4d:7d:98:c5:08:
                    67:08:c6:07:a8:3c:ba:35:d2:d7:98:98:52:d3:5e:
                    3b:5b:b7:d9:8e:32:1d:7a:68:fa:e1:c4:2f:75:48:
                    db:62:c6:96:f8:25:57:b6:15:40:98:26:d2:1d:cf:
                    c4:5f:44:ed:87:9c:74:43:58:e3:b5:ac:a6:66:8e:
                    07:56:6c:12:fa:3d:4e:b5:cf:76:34:f1:b6:69:e9:
                    ee:d4:59:ef:1b:16:cf:7e:b4:6b:8d:46:6f:e1:88:
                    7c:7d:69:47:04:f6:41:70:3c:b6:96:1d:80:2a:88:
                    4e:7e:69:78:fd:b6:62:7f:7d:94:be:fc:ec:c3:07:
                    ba:51:24:22:e2:f0:21:ca:1b:27:5b:64:e5:1a:ff:
                    ce:fe:31:de:c3:d6:5a:5a:db:85:36:1f:5f:37:c4:
                    d1:02:98:76:a2:60:5f:f9:81:c1:c2:eb:04:ed:6c:
                    3b:37:78:85:50:01:78:c4:e3:cf:aa:14:d9:d9:e4:
                    69:6b:9f:ba:2d:4b:53:ec:dc:ef:e6:f6:58:60:89:
                    3a:dd:c5:45:50:76:b8:e9:3d:8b:c2:bb:50:d9:4a:
                    43:19:14:39:78:31:eb:e2:d3:4a:1a:45:f4:0d:fa:
                    94:65
                Exponent: 65537 (0x10001)
        X509v3 extensions:
            X509v3 Basic Constraints: 
                CA:FALSE
            X509v3 Subject Key Identifier: 
                C2:2E:A6:4C:A2:07:62:7D:D7:01:50:AF:7F:D1:D0:60:18:B0:40:EF
            X509v3 Authority Key Identifier: 
                keyid:E9:4A:FF:20:0B:7A:49:8C:22:0F:03:28:F9:5D:0C:78:4B:4F:82:C4
                DirName:/CN=team168-net
                serial:40:E8:C0:18:80:97:96:DC:A4:09:AB:A3:AB:2C:2E:1A:1F:44:A4:D0
            X509v3 Extended Key Usage: 
                TLS Web Client Authentication
            X509v3 Key Usage: 
                Digital Signature
    Signature Algorithm: sha256WithRSAEncryption
    Signature Value:
        ce:14:2f:98:84:da:53:10:b6:50:f1:ae:22:5c:01:b1:62:28:
        60:8a:3d:4c:92:a0:0b:dc:37:68:15:85:cf:ca:90:33:aa:a4:
        73:d9:0a:45:d7:34:f2:a2:20:3f:2d:90:ab:50:94:1a:0c:a5:
        67:a2:a2:34:8c:f1:4f:0c:6d:c8:ac:53:11:05:ac:b0:90:c8:
        ce:67:3d:8e:20:46:6e:de:a2:e4:14:59:9c:23:4d:81:c7:74:
        a8:3d:19:42:20:dd:ce:d3:1a:71:d8:e7:1d:f3:7c:27:eb:df:
        d2:24:91:24:42:2f:d4:d6:8a:a5:46:ad:84:1a:55:50:66:7f:
        28:71:04:d2:79:e3:4e:c3:f7:a7:21:b3:87:59:2b:41:b9:e3:
        0e:6f:d4:9f:a7:50:a3:17:ac:a4:11:17:18:5e:09:7f:a8:f7:
        72:e5:10:19:cb:1b:05:5e:b2:e6:83:ab:df:0f:63:2a:58:ef:
        69:33:06:fa:72:3a:bf:c3:2a:60:55:2d:0d:ef:fe:8f:a9:af:
        ce:83:a2:b7:ca:68:83:42:17:c7:fe:c1:de:2e:e0:c2:2d:25:
        29:bf:43:18:29:d6:26:86:ac:2a:7b:1e:d6:77:84:7b:aa:fd:
        bb:f2:f4:88:1b:e6:71:7b:e4:e9:4d:3a:1e:dc:96:56:8f:6f:
        e6:a8:c2:25
-----BEGIN CERTIFICATE-----
MIIDXTCCAkWgAwIBAgIRALhhRrTooYM42PMOIeUXRdcwDQYJKoZIhvcNAQELBQAw
FjEUMBIGA1UEAwwLdGVhbTE2OC1uZXQwHhcNMjMxMTA0MTA0MzM5WhcNMjYxMDE5
MTA0MzM5WjAZMRcwFQYDVQQDDA50ZWFtMTY4LWNsaWVudDCCASIwDQYJKoZIhvcN
AQEBBQADggEPADCCAQoCggEBANfmABx9ypOZHhCTOAYrfHeX+2paa5at1019mMUI
ZwjGB6g8ujXS15iYUtNeO1u32Y4yHXpo+uHEL3VI22LGlvglV7YVQJgm0h3PxF9E
7YecdENY47WspmaOB1ZsEvo9TrXPdjTxtmnp7tRZ7xsWz360a41Gb+GIfH1pRwT2
QXA8tpYdgCqITn5peP22Yn99lL787MMHulEkIuLwIcobJ1tk5Rr/zv4x3sPWWlrb
hTYfXzfE0QKYdqJgX/mBwcLrBO1sOzd4hVABeMTjz6oU2dnkaWufui1LU+zc7+b2
WGCJOt3FRVB2uOk9i8K7UNlKQxkUOXgx6+LTShpF9A36lGUCAwEAAaOBojCBnzAJ
BgNVHRMEAjAAMB0GA1UdDgQWBBTCLqZMogdifdcBUK9/0dBgGLBA7zBRBgNVHSME
SjBIgBTpSv8gC3pJjCIPAyj5XQx4S0+CxKEapBgwFjEUMBIGA1UEAwwLdGVhbTE2
OC1uZXSCFEDowBiAl5bcpAmro6ssLhofRKTQMBMGA1UdJQQMMAoGCCsGAQUFBwMC
MAsGA1UdDwQEAwIHgDANBgkqhkiG9w0BAQsFAAOCAQEAzhQvmITaUxC2UPGuIlwB
sWIoYIo9TJKgC9w3aBWFz8qQM6qkc9kKRdc08qIgPy2Qq1CUGgylZ6KiNIzxTwxt
yKxTEQWssJDIzmc9jiBGbt6i5BRZnCNNgcd0qD0ZQiDdztMacdjnHfN8J+vf0iSR
JEIv1NaKpUathBpVUGZ/KHEE0nnjTsP3pyGzh1krQbnjDm/Un6dQoxespBEXGF4J
f6j3cuUQGcsbBV6y5oOr3w9jKljvaTMG+nI6v8MqYFUtDe/+j6mvzoOit8pog0IX
x/7B3i7gwi0lKb9DGCnWJoasKnse1neEe6r9u/L0iBvmcXvk6U06HtyWVo9v5qjC
JQ==
-----END CERTIFICATE-----
