Certificate:
    Data:
        Version: 3 (0x2)
        Serial Number:
            d3:62:b1:ff:48:4d:27:1d:e1:80:38:25:f9:ed:e4:70
        Signature Algorithm: sha256WithRSAEncryption
        Issuer: CN=team168-net
        Validity
            Not Before: Nov  3 20:42:15 2023 GMT
            Not After : Oct 18 20:42:15 2026 GMT
        Subject: CN=team168-client
        Subject Public Key Info:
            Public Key Algorithm: rsaEncryption
                Public-Key: (2048 bit)
                Modulus:
                    00:ae:d4:4f:1a:1f:fc:6d:8d:1f:a3:10:a2:94:84:
                    ab:65:fe:3a:89:3c:d1:78:7e:4e:73:e3:fd:d4:65:
                    09:e1:7f:df:98:9d:ff:bc:f7:17:8a:45:ec:22:5b:
                    a8:18:c0:b5:9c:1f:4e:71:76:92:f0:0b:27:eb:a6:
                    05:1f:25:11:ec:d9:29:f1:32:51:6b:ca:f1:ec:ed:
                    87:e6:b7:c9:e2:09:ec:58:18:a4:0e:b5:b0:6c:83:
                    74:e7:dc:2a:e2:db:c6:5b:ee:55:ab:e3:00:ae:be:
                    65:15:cb:1e:72:0b:07:78:58:62:1a:97:a9:7a:b3:
                    6e:0a:06:76:1e:e2:5a:cf:82:59:19:5d:35:55:e3:
                    16:6e:48:0b:79:b0:8f:55:51:d2:80:b1:ca:66:fb:
                    e3:64:1e:05:78:2a:96:a3:1b:88:82:27:21:06:58:
                    7a:bc:bb:c1:6b:b4:a7:61:39:c3:c0:9c:67:58:bc:
                    b8:f2:2c:19:18:2c:9f:3d:02:c5:7c:c0:8c:8a:f0:
                    67:55:92:58:c8:f8:22:6b:f1:45:95:2e:07:25:3b:
                    ed:9a:7a:70:7a:d9:b7:47:3c:07:59:aa:9a:06:47:
                    2b:0e:5c:c3:21:f6:79:90:a8:01:08:89:eb:58:f1:
                    33:d7:7d:1a:29:7b:27:84:b1:65:23:1b:db:4c:0a:
                    f9:75
                Exponent: 65537 (0x10001)
        X509v3 extensions:
            X509v3 Basic Constraints: 
                CA:FALSE
            X509v3 Subject Key Identifier: 
                E7:1D:EF:1F:29:28:DF:1A:C5:00:6C:E1:17:B5:8C:B6:C8:11:BC:55
            X509v3 Authority Key Identifier: 
                keyid:14:E7:73:D1:75:FA:D8:43:C9:24:4E:72:26:EE:AB:CF:16:35:23:67
                DirName:/CN=team168-net
                serial:6D:FE:77:8F:64:92:98:0B:F5:06:BA:40:94:F6:E6:DF:09:72:FE:25
            X509v3 Extended Key Usage: 
                TLS Web Client Authentication
            X509v3 Key Usage: 
                Digital Signature
    Signature Algorithm: sha256WithRSAEncryption
    Signature Value:
        16:20:e9:d5:61:09:7b:83:69:c8:a1:c0:8b:c2:44:07:11:22:
        37:9b:cc:2a:74:fc:70:07:cf:8b:16:67:87:7e:2d:4d:42:6d:
        19:53:6e:0a:b5:bd:8b:94:3d:51:3e:2e:8c:da:64:e4:69:bf:
        86:f9:51:4a:76:16:e5:99:b6:09:85:5c:d5:09:b6:f2:25:46:
        a3:4c:3a:6a:a7:49:b9:31:93:ec:8b:64:dc:89:45:3b:b3:65:
        1b:d7:5f:f5:1d:b7:44:97:81:4d:ef:ad:92:66:60:de:b2:02:
        d4:cd:54:ce:7c:3a:80:d9:30:9a:4e:96:95:31:81:69:42:a6:
        46:d3:78:c9:8f:79:03:5e:7a:58:b1:2c:81:cd:de:bc:bb:ff:
        66:1c:77:df:a4:17:57:fb:a7:a4:fa:86:ff:84:70:fd:9c:bf:
        a5:91:00:6a:a8:c8:e8:a5:f7:d1:16:09:e4:8b:ae:b8:dd:56:
        1c:d7:8d:74:5d:f4:80:5e:5d:14:47:5c:57:2c:2c:45:42:f4:
        ea:66:52:19:c6:ec:a8:57:28:de:ff:ea:0a:d8:e2:77:f4:01:
        8b:c5:f0:76:d7:26:62:af:f6:26:bb:25:bf:90:e3:f2:bf:70:
        c6:42:27:04:db:c9:86:30:5b:2a:52:11:94:40:37:ed:a5:bb:
        52:d9:d6:54
-----BEGIN CERTIFICATE-----
MIIDXTCCAkWgAwIBAgIRANNisf9ITScd4YA4Jfnt5HAwDQYJKoZIhvcNAQELBQAw
FjEUMBIGA1UEAwwLdGVhbTE2OC1uZXQwHhcNMjMxMTAzMjA0MjE1WhcNMjYxMDE4
MjA0MjE1WjAZMRcwFQYDVQQDDA50ZWFtMTY4LWNsaWVudDCCASIwDQYJKoZIhvcN
AQEBBQADggEPADCCAQoCggEBAK7UTxof/G2NH6MQopSEq2X+Ook80Xh+TnPj/dRl
CeF/35id/7z3F4pF7CJbqBjAtZwfTnF2kvALJ+umBR8lEezZKfEyUWvK8ezth+a3
yeIJ7FgYpA61sGyDdOfcKuLbxlvuVavjAK6+ZRXLHnILB3hYYhqXqXqzbgoGdh7i
Ws+CWRldNVXjFm5IC3mwj1VR0oCxymb742QeBXgqlqMbiIInIQZYery7wWu0p2E5
w8CcZ1i8uPIsGRgsnz0CxXzAjIrwZ1WSWMj4ImvxRZUuByU77Zp6cHrZt0c8B1mq
mgZHKw5cwyH2eZCoAQiJ61jxM9d9Gil7J4SxZSMb20wK+XUCAwEAAaOBojCBnzAJ
BgNVHRMEAjAAMB0GA1UdDgQWBBTnHe8fKSjfGsUAbOEXtYy2yBG8VTBRBgNVHSME
SjBIgBQU53PRdfrYQ8kkTnIm7qvPFjUjZ6EapBgwFjEUMBIGA1UEAwwLdGVhbTE2
OC1uZXSCFG3+d49kkpgL9Qa6QJT25t8Jcv4lMBMGA1UdJQQMMAoGCCsGAQUFBwMC
MAsGA1UdDwQEAwIHgDANBgkqhkiG9w0BAQsFAAOCAQEAFiDp1WEJe4NpyKHAi8JE
BxEiN5vMKnT8cAfPixZnh34tTUJtGVNuCrW9i5Q9UT4ujNpk5Gm/hvlRSnYW5Zm2
CYVc1Qm28iVGo0w6aqdJuTGT7Itk3IlFO7NlG9df9R23RJeBTe+tkmZg3rIC1M1U
znw6gNkwmk6WlTGBaUKmRtN4yY95A156WLEsgc3evLv/Zhx336QXV/unpPqG/4Rw
/Zy/pZEAaqjI6KX30RYJ5IuuuN1WHNeNdF30gF5dFEdcVywsRUL06mZSGcbsqFco
3v/qCtjid/QBi8XwdtcmYq/2Jrslv5Dj8r9wxkInBNvJhjBbKlIRlEA37aW7UtnW
VA==
-----END CERTIFICATE-----
