Certificate:
    Data:
        Version: 3 (0x2)
        Serial Number:
            f2:fc:48:9c:3d:ec:64:74:0b:f9:c2:a0:a4:c8:50:56
        Signature Algorithm: sha256WithRSAEncryption
        Issuer: CN=team168-net
        Validity
            Not Before: Nov  3 20:42:15 2023 GMT
            Not After : Oct 18 20:42:15 2026 GMT
        Subject: CN=team168-server
        Subject Public Key Info:
            Public Key Algorithm: rsaEncryption
                Public-Key: (2048 bit)
                Modulus:
                    00:e0:07:bd:96:33:26:17:52:12:54:cc:e0:b8:da:
                    36:13:28:54:2b:c0:1a:bf:0e:e4:cd:ba:1b:dd:e9:
                    e4:d3:03:1d:19:3b:de:0b:79:ea:39:ed:f4:dd:6d:
                    4b:08:aa:8c:ee:50:ed:68:4c:65:80:95:9c:c7:13:
                    98:39:29:27:fe:d2:1f:a1:3d:5b:a3:bc:8c:da:7a:
                    e6:09:62:21:3d:fb:5e:97:7a:b3:a6:63:55:59:86:
                    be:5f:38:42:c3:a5:98:99:17:64:c1:29:03:5c:a5:
                    cb:00:1b:6d:94:2c:f6:f3:e9:76:3f:36:58:85:70:
                    84:06:74:5e:b6:a6:c4:8a:9a:14:cd:56:95:52:f8:
                    59:13:b8:be:06:4e:c8:6f:dc:33:d1:fd:c3:f4:20:
                    ee:e8:b3:20:57:db:ec:c4:26:18:7b:84:cf:c1:b9:
                    46:f3:2b:a5:c4:64:b3:67:ed:18:c0:43:0e:42:d0:
                    1f:a8:ba:23:92:89:6b:0d:d3:41:5e:59:20:80:82:
                    90:1d:d1:2f:20:57:5e:df:48:70:70:da:09:7e:d2:
                    64:2e:11:77:d7:09:35:08:5f:c0:b2:35:f3:4c:15:
                    44:26:dd:a3:14:eb:08:08:35:7f:ee:81:cb:fe:1b:
                    e6:49:c4:f4:ef:c3:ec:e7:0f:02:c5:e4:b8:79:bc:
                    96:cf
                Exponent: 65537 (0x10001)
        X509v3 extensions:
            X509v3 Basic Constraints: 
                CA:FALSE
            X509v3 Subject Key Identifier: 
                CB:DA:55:75:2C:4E:E6:BF:B9:4A:FC:A1:EB:B3:C9:17:E1:B2:1F:30
            X509v3 Authority Key Identifier: 
                keyid:14:E7:73:D1:75:FA:D8:43:C9:24:4E:72:26:EE:AB:CF:16:35:23:67
                DirName:/CN=team168-net
                serial:6D:FE:77:8F:64:92:98:0B:F5:06:BA:40:94:F6:E6:DF:09:72:FE:25
            X509v3 Extended Key Usage: 
                TLS Web Server Authentication
            X509v3 Key Usage: 
                Digital Signature, Key Encipherment
            X509v3 Subject Alternative Name: 
                DNS:team168-server
    Signature Algorithm: sha256WithRSAEncryption
    Signature Value:
        3c:14:5f:1b:fd:e6:6b:fe:cc:5f:48:a8:e9:5f:ad:b1:7a:1c:
        d1:0b:8e:3d:ae:ce:69:90:80:59:86:4a:f1:98:e0:6e:e6:d4:
        11:62:78:43:54:8f:8f:23:40:08:7e:d9:2d:28:65:d2:10:c2:
        95:96:49:e1:5f:61:2a:c4:3b:d7:e9:f1:29:43:da:2b:e0:ed:
        13:e9:1c:8c:35:16:88:bc:e2:02:ce:d1:16:50:01:d9:42:93:
        2d:4c:35:93:d8:54:73:04:5a:c2:4c:02:f9:50:22:45:19:a4:
        8a:ec:20:71:a4:36:1d:53:47:63:06:c6:94:e5:a7:a3:b2:ed:
        15:a2:4a:5b:65:6b:14:ea:a4:48:9e:3c:cb:c8:04:13:70:54:
        ec:70:8c:c6:07:68:76:69:e0:9b:7b:ab:82:98:df:a4:1b:35:
        15:b5:14:6e:7c:bd:23:72:c5:ef:d2:99:4a:37:8b:99:43:cb:
        a5:b9:40:62:a1:3c:2c:7f:6d:be:3a:68:22:8d:51:bb:d4:b9:
        3d:a7:cd:0c:8a:4c:ce:4a:68:f8:79:0e:83:c9:b6:62:a0:59:
        84:5d:62:06:ee:5d:60:bc:3a:5a:58:db:fe:f9:14:a1:a0:ad:
        95:1d:6a:0f:3c:8f:50:65:14:22:ab:2c:26:95:07:6b:58:3b:
        9b:ac:75:3e
-----BEGIN CERTIFICATE-----
MIIDeDCCAmCgAwIBAgIRAPL8SJw97GR0C/nCoKTIUFYwDQYJKoZIhvcNAQELBQAw
FjEUMBIGA1UEAwwLdGVhbTE2OC1uZXQwHhcNMjMxMTAzMjA0MjE1WhcNMjYxMDE4
MjA0MjE1WjAZMRcwFQYDVQQDDA50ZWFtMTY4LXNlcnZlcjCCASIwDQYJKoZIhvcN
AQEBBQADggEPADCCAQoCggEBAOAHvZYzJhdSElTM4LjaNhMoVCvAGr8O5M26G93p
5NMDHRk73gt56jnt9N1tSwiqjO5Q7WhMZYCVnMcTmDkpJ/7SH6E9W6O8jNp65gli
IT37Xpd6s6ZjVVmGvl84QsOlmJkXZMEpA1ylywAbbZQs9vPpdj82WIVwhAZ0Xram
xIqaFM1WlVL4WRO4vgZOyG/cM9H9w/Qg7uizIFfb7MQmGHuEz8G5RvMrpcRks2ft
GMBDDkLQH6i6I5KJaw3TQV5ZIICCkB3RLyBXXt9IcHDaCX7SZC4Rd9cJNQhfwLI1
80wVRCbdoxTrCAg1f+6By/4b5knE9O/D7OcPAsXkuHm8ls8CAwEAAaOBvTCBujAJ
BgNVHRMEAjAAMB0GA1UdDgQWBBTL2lV1LE7mv7lK/KHrs8kX4bIfMDBRBgNVHSME
SjBIgBQU53PRdfrYQ8kkTnIm7qvPFjUjZ6EapBgwFjEUMBIGA1UEAwwLdGVhbTE2
OC1uZXSCFG3+d49kkpgL9Qa6QJT25t8Jcv4lMBMGA1UdJQQMMAoGCCsGAQUFBwMB
MAsGA1UdDwQEAwIFoDAZBgNVHREEEjAQgg50ZWFtMTY4LXNlcnZlcjANBgkqhkiG
9w0BAQsFAAOCAQEAPBRfG/3ma/7MX0io6V+tsXoc0QuOPa7OaZCAWYZK8ZjgbubU
EWJ4Q1SPjyNACH7ZLShl0hDClZZJ4V9hKsQ71+nxKUPaK+DtE+kcjDUWiLziAs7R
FlAB2UKTLUw1k9hUcwRawkwC+VAiRRmkiuwgcaQ2HVNHYwbGlOWno7LtFaJKW2Vr
FOqkSJ48y8gEE3BU7HCMxgdodmngm3urgpjfpBs1FbUUbny9I3LF79KZSjeLmUPL
pblAYqE8LH9tvjpoIo1Ru9S5PafNDIpMzkpo+HkOg8m2YqBZhF1iBu5dYLw6Wljb
/vkUoaCtlR1qDzyPUGUUIqssJpUHa1g7m6x1Pg==
-----END CERTIFICATE-----
