Certificate:
    Data:
        Version: 3 (0x2)
        Serial Number:
            51:0d:c7:71:31:20:fd:f4:0d:95:44:78:7e:c0:4a:36
        Signature Algorithm: sha256WithRSAEncryption
        Issuer: CN=team136-net
        Validity
            Not Before: Nov  4 11:30:10 2023 GMT
            Not After : Oct 19 11:30:10 2026 GMT
        Subject: CN=team136-client
        Subject Public Key Info:
            Public Key Algorithm: rsaEncryption
                Public-Key: (2048 bit)
                Modulus:
                    00:cd:c1:98:80:b6:94:2b:ac:b9:05:fc:92:da:23:
                    ae:ec:56:76:8b:ba:5a:dd:28:e2:f7:db:c7:50:9f:
                    e0:9a:f0:69:8c:44:73:bc:5c:6d:5b:ae:16:68:95:
                    38:e3:6e:ea:ca:fb:aa:c6:6f:f2:88:c0:33:76:7c:
                    db:95:0f:8b:c5:c9:0a:85:38:d0:d9:af:35:a8:cc:
                    6d:28:92:b4:db:33:7a:42:3c:b4:c7:a3:55:02:90:
                    c8:f5:38:04:4d:8a:db:26:24:cc:e4:95:39:c1:e4:
                    5e:05:49:2b:4b:df:3f:e1:5a:80:50:86:06:b0:e4:
                    a4:cb:4e:78:dc:0f:61:6a:ec:63:a2:86:d9:d7:c5:
                    44:50:d5:1e:f7:e1:83:23:39:c2:50:cc:9c:49:f6:
                    3f:41:21:2d:dc:35:1f:d9:df:db:b7:ec:f1:8c:b3:
                    be:23:08:63:37:e7:95:32:2b:c4:32:33:d9:07:a0:
                    cf:04:ae:87:bd:c9:45:4f:d9:76:2e:20:1c:d0:e5:
                    13:33:0a:03:c9:dc:7d:3a:10:27:88:3c:3a:69:3d:
                    66:21:db:b7:83:94:ae:c6:fd:d1:95:69:35:ba:b0:
                    f6:ba:3c:9a:cf:29:ec:50:80:73:34:99:2a:7c:9e:
                    b8:b6:b3:1e:b1:92:b5:91:52:69:5a:c3:73:d4:41:
                    64:9d
                Exponent: 65537 (0x10001)
        X509v3 extensions:
            X509v3 Basic Constraints: 
                CA:FALSE
            X509v3 Subject Key Identifier: 
                4B:3F:C5:F2:E4:2F:67:47:B0:88:63:EA:44:44:8A:10:4C:4A:A7:0A
            X509v3 Authority Key Identifier: 
                keyid:D3:B9:DD:9F:80:34:DC:72:2A:79:B0:06:EC:17:00:6A:BC:B0:96:32
                DirName:/CN=team136-net
                serial:4B:96:52:D2:3D:A1:21:45:56:B2:16:17:E6:F6:71:17:50:47:4D:F4
            X509v3 Extended Key Usage: 
                TLS Web Client Authentication
            X509v3 Key Usage: 
                Digital Signature
    Signature Algorithm: sha256WithRSAEncryption
    Signature Value:
        59:e5:a6:30:4d:d0:cc:e5:35:ea:1b:9e:e0:4c:cb:7d:ba:54:
        44:ff:32:48:7b:87:20:11:f7:d2:1f:8a:de:bb:30:57:5d:07:
        60:7b:63:ed:aa:24:b4:2f:f3:d8:fb:27:1d:4c:c0:22:39:ab:
        49:db:8c:8a:77:b3:15:a3:d8:2a:ff:11:62:bf:15:dd:62:e3:
        ea:77:04:4f:81:ed:ba:87:c9:1b:fd:e4:43:c2:9e:35:a6:1f:
        b2:0e:74:2f:52:9c:6b:63:93:d2:e8:e6:c1:4f:30:1d:b4:a5:
        d8:5b:43:0e:02:3f:b0:fa:dd:7c:c7:6d:15:cb:a9:c6:23:b6:
        08:86:0d:3c:48:53:b1:02:db:b4:4f:7d:47:ba:a7:73:fb:8c:
        61:48:aa:0e:b6:66:6e:37:b2:8b:72:c1:7e:f9:1d:ed:fb:1f:
        b5:d1:e9:12:bf:dd:f4:f7:ce:86:61:a1:a1:f2:bb:7d:81:3f:
        ed:3b:60:33:b4:a6:de:fd:42:45:4e:ef:65:83:d5:89:d1:b7:
        77:c6:3c:08:e9:62:0c:92:6f:9b:b3:5e:bc:c3:85:85:b0:ad:
        eb:5a:b8:dc:88:a4:3c:a2:7b:8c:42:a2:bb:06:2a:1f:71:da:
        27:82:1c:3c:7d:13:c7:84:7f:f3:2e:58:cc:4e:0b:4f:6b:f4:
        5f:ca:e8:cd
-----BEGIN CERTIFICATE-----
MIIDXDCCAkSgAwIBAgIQUQ3HcTEg/fQNlUR4fsBKNjANBgkqhkiG9w0BAQsFADAW
MRQwEgYDVQQDDAt0ZWFtMTM2LW5ldDAeFw0yMzExMDQxMTMwMTBaFw0yNjEwMTkx
MTMwMTBaMBkxFzAVBgNVBAMMDnRlYW0xMzYtY2xpZW50MIIBIjANBgkqhkiG9w0B
AQEFAAOCAQ8AMIIBCgKCAQEAzcGYgLaUK6y5BfyS2iOu7FZ2i7pa3Sji99vHUJ/g
mvBpjERzvFxtW64WaJU4427qyvuqxm/yiMAzdnzblQ+LxckKhTjQ2a81qMxtKJK0
2zN6Qjy0x6NVApDI9TgETYrbJiTM5JU5weReBUkrS98/4VqAUIYGsOSky0543A9h
auxjoobZ18VEUNUe9+GDIznCUMycSfY/QSEt3DUf2d/bt+zxjLO+IwhjN+eVMivE
MjPZB6DPBK6HvclFT9l2LiAc0OUTMwoDydx9OhAniDw6aT1mIdu3g5Suxv3RlWk1
urD2ujyazynsUIBzNJkqfJ64trMesZK1kVJpWsNz1EFknQIDAQABo4GiMIGfMAkG
A1UdEwQCMAAwHQYDVR0OBBYEFEs/xfLkL2dHsIhj6kREihBMSqcKMFEGA1UdIwRK
MEiAFNO53Z+ANNxyKnmwBuwXAGq8sJYyoRqkGDAWMRQwEgYDVQQDDAt0ZWFtMTM2
LW5ldIIUS5ZS0j2hIUVWshYX5vZxF1BHTfQwEwYDVR0lBAwwCgYIKwYBBQUHAwIw
CwYDVR0PBAQDAgeAMA0GCSqGSIb3DQEBCwUAA4IBAQBZ5aYwTdDM5TXqG57gTMt9
ulRE/zJIe4cgEffSH4reuzBXXQdge2PtqiS0L/PY+ycdTMAiOatJ24yKd7MVo9gq
/xFivxXdYuPqdwRPge26h8kb/eRDwp41ph+yDnQvUpxrY5PS6ObBTzAdtKXYW0MO
Aj+w+t18x20Vy6nGI7YIhg08SFOxAtu0T31Huqdz+4xhSKoOtmZuN7KLcsF++R3t
+x+10ekSv930986GYaGh8rt9gT/tO2AztKbe/UJFTu9lg9WJ0bd3xjwI6WIMkm+b
s168w4WFsK3rWrjciKQ8onuMQqK7Biofcdonghw8fRPHhH/zLljMTgtPa/RfyujN
-----END CERTIFICATE-----
