Certificate:
    Data:
        Version: 3 (0x2)
        Serial Number:
            6b:99:03:c3:29:65:ab:68:11:aa:99:f7:d9:a1:e8:3a
        Signature Algorithm: sha256WithRSAEncryption
        Issuer: CN=team136-net
        Validity
            Not Before: Nov  3 20:41:38 2023 GMT
            Not After : Oct 18 20:41:38 2026 GMT
        Subject: CN=team136-client
        Subject Public Key Info:
            Public Key Algorithm: rsaEncryption
                Public-Key: (2048 bit)
                Modulus:
                    00:f4:56:d7:29:84:6f:79:c4:a0:0e:c1:11:02:d0:
                    21:d2:30:63:7f:bc:3c:50:ec:64:9d:ed:b3:59:7e:
                    48:32:99:9e:6b:d6:c2:16:28:73:d1:54:30:9b:aa:
                    a7:6a:51:c5:c4:91:f0:52:31:f0:25:58:53:bb:57:
                    1b:b8:6a:ae:01:02:ff:d9:6a:bc:51:31:f8:97:dc:
                    4d:da:97:dd:59:50:ee:58:26:df:fa:e6:05:20:6b:
                    7e:e2:a1:aa:9d:a2:49:c2:3f:d0:44:13:a8:81:74:
                    67:72:16:31:8c:a6:20:da:48:0e:47:fb:45:d9:ec:
                    76:c4:44:28:86:e2:b2:8e:ef:31:24:ea:e3:fa:59:
                    4d:83:fa:18:69:44:54:6f:c3:ee:a3:79:d6:44:fb:
                    42:d4:2d:e9:af:09:78:2f:73:ea:30:37:65:fd:25:
                    c8:bc:ff:9b:d2:ab:d8:d3:b2:61:d1:fe:f5:3b:ee:
                    60:65:5d:00:f7:a7:10:67:c3:ad:0f:7b:86:5e:f9:
                    81:8e:90:85:8a:5a:2c:03:f9:4b:f5:dc:ad:7c:d6:
                    27:78:fc:c1:dd:24:f9:1c:7d:62:13:12:e2:c1:9a:
                    fb:36:51:0a:01:f0:8a:af:06:bd:13:2c:a4:75:d0:
                    e6:77:bd:89:36:86:a1:fc:6d:4a:c6:f8:c2:5f:ea:
                    ed:f7
                Exponent: 65537 (0x10001)
        X509v3 extensions:
            X509v3 Basic Constraints: 
                CA:FALSE
            X509v3 Subject Key Identifier: 
                99:07:47:05:AD:9B:BD:6D:2B:1F:50:32:BD:ED:38:5E:14:3F:AE:7B
            X509v3 Authority Key Identifier: 
                keyid:52:78:57:10:24:05:32:E0:BE:0C:80:6C:CD:CF:78:8D:91:C6:FA:8B
                DirName:/CN=team136-net
                serial:0B:15:72:E0:CF:75:22:F6:E8:99:67:18:80:FB:66:BB:2F:6E:E2:C3
            X509v3 Extended Key Usage: 
                TLS Web Client Authentication
            X509v3 Key Usage: 
                Digital Signature
    Signature Algorithm: sha256WithRSAEncryption
    Signature Value:
        33:39:d5:ee:0f:d1:60:4f:d9:e7:12:91:01:d0:83:9d:50:61:
        bd:6e:14:98:28:9d:06:1f:13:f8:6d:9c:33:61:48:1a:20:90:
        a2:69:a3:90:57:d5:73:2c:94:61:f2:67:91:e2:5b:49:9d:35:
        05:f2:ea:6a:1a:f3:d0:5f:a9:5a:36:96:57:fc:16:dd:75:a4:
        6c:cb:1d:e4:e0:b3:a3:cc:4c:45:c4:60:65:9d:82:43:65:d5:
        b0:ad:a2:b2:56:8e:26:42:07:6e:06:95:fd:f8:cd:ce:04:3e:
        8f:21:5b:f4:0e:8d:71:00:16:9e:e5:05:61:7d:81:bf:a9:be:
        45:5f:b2:54:30:61:52:f9:b5:e1:5f:8e:83:11:80:dc:5a:39:
        ff:8d:f7:21:e5:7c:cd:0a:78:85:11:aa:16:68:4f:35:7c:43:
        77:eb:28:bc:e6:93:f6:bf:ab:22:d3:a4:04:e2:2b:a6:02:b2:
        c4:44:bb:b5:11:94:2e:37:64:eb:50:7c:f0:43:0d:ee:9f:24:
        96:f4:a3:2f:12:91:3f:38:6e:73:91:1b:85:e4:3b:df:64:2f:
        f1:a1:66:4f:fc:b5:68:05:2f:07:f5:2d:16:22:31:bf:c7:97:
        5b:93:e1:f6:8e:88:0e:92:c4:76:6d:4e:79:79:8a:bd:27:92:
        bc:3f:13:3a
-----BEGIN CERTIFICATE-----
MIIDXDCCAkSgAwIBAgIQa5kDwyllq2gRqpn32aHoOjANBgkqhkiG9w0BAQsFADAW
MRQwEgYDVQQDDAt0ZWFtMTM2LW5ldDAeFw0yMzExMDMyMDQxMzhaFw0yNjEwMTgy
MDQxMzhaMBkxFzAVBgNVBAMMDnRlYW0xMzYtY2xpZW50MIIBIjANBgkqhkiG9w0B
AQEFAAOCAQ8AMIIBCgKCAQEA9FbXKYRvecSgDsERAtAh0jBjf7w8UOxkne2zWX5I
Mpmea9bCFihz0VQwm6qnalHFxJHwUjHwJVhTu1cbuGquAQL/2Wq8UTH4l9xN2pfd
WVDuWCbf+uYFIGt+4qGqnaJJwj/QRBOogXRnchYxjKYg2kgOR/tF2ex2xEQohuKy
ju8xJOrj+llNg/oYaURUb8Puo3nWRPtC1C3prwl4L3PqMDdl/SXIvP+b0qvY07Jh
0f71O+5gZV0A96cQZ8OtD3uGXvmBjpCFilosA/lL9dytfNYnePzB3ST5HH1iExLi
wZr7NlEKAfCKrwa9EyykddDmd72JNoah/G1KxvjCX+rt9wIDAQABo4GiMIGfMAkG
A1UdEwQCMAAwHQYDVR0OBBYEFJkHRwWtm71tKx9QMr3tOF4UP657MFEGA1UdIwRK
MEiAFFJ4VxAkBTLgvgyAbM3PeI2RxvqLoRqkGDAWMRQwEgYDVQQDDAt0ZWFtMTM2
LW5ldIIUCxVy4M91IvbomWcYgPtmuy9u4sMwEwYDVR0lBAwwCgYIKwYBBQUHAwIw
CwYDVR0PBAQDAgeAMA0GCSqGSIb3DQEBCwUAA4IBAQAzOdXuD9FgT9nnEpEB0IOd
UGG9bhSYKJ0GHxP4bZwzYUgaIJCiaaOQV9VzLJRh8meR4ltJnTUF8upqGvPQX6la
NpZX/BbddaRsyx3k4LOjzExFxGBlnYJDZdWwraKyVo4mQgduBpX9+M3OBD6PIVv0
Do1xABae5QVhfYG/qb5FX7JUMGFS+bXhX46DEYDcWjn/jfch5XzNCniFEaoWaE81
fEN36yi85pP2v6si06QE4iumArLERLu1EZQuN2TrUHzwQw3unySW9KMvEpE/OG5z
kRuF5DvfZC/xoWZP/LVoBS8H9S0WIjG/x5dbk+H2jogOksR2bU55eYq9J5K8PxM6
-----END CERTIFICATE-----
