Certificate:
    Data:
        Version: 3 (0x2)
        Serial Number:
            d7:41:52:27:c0:d7:f9:a1:3b:30:9e:df:df:f4:80:a2
        Signature Algorithm: sha256WithRSAEncryption
        Issuer: CN=team136-net
        Validity
            Not Before: Nov  4 10:43:02 2023 GMT
            Not After : Oct 19 10:43:02 2026 GMT
        Subject: CN=team136-client
        Subject Public Key Info:
            Public Key Algorithm: rsaEncryption
                Public-Key: (2048 bit)
                Modulus:
                    00:af:87:07:3a:b3:81:b3:31:cf:66:ab:ec:c4:16:
                    ef:e8:a6:00:fd:5d:6d:ee:11:b1:93:76:3f:2b:f0:
                    a8:66:81:e8:a3:bf:4b:bf:cd:aa:e8:16:23:bf:94:
                    0e:08:5d:e3:b2:45:95:c0:e1:ac:d8:d4:eb:f4:b1:
                    f3:ba:40:4b:bf:26:b5:d9:21:b1:98:ec:2f:bb:6d:
                    9d:2b:da:6f:c1:4c:4f:dd:98:83:4c:9e:e4:67:ba:
                    08:15:b9:e5:12:8a:87:85:57:d6:bb:45:7c:dc:b7:
                    70:b8:60:9c:a8:61:76:d7:b4:c7:13:78:b3:da:ee:
                    62:51:dd:f0:c4:50:5b:e0:47:57:56:b5:2a:54:f9:
                    fd:32:6d:83:b3:17:34:71:ce:09:05:3c:78:8a:1e:
                    58:43:8c:0e:b9:52:0d:2f:92:4d:01:57:0f:07:35:
                    f6:57:e6:2f:b3:2f:0a:25:dd:00:4d:87:f7:ae:3a:
                    ea:c4:81:04:13:0c:86:20:24:83:53:83:cf:29:ed:
                    9f:03:bf:d9:73:bf:61:c7:cc:9d:27:36:2f:07:ed:
                    d0:c6:72:66:ba:74:57:fe:9d:43:f2:7b:b1:98:d5:
                    da:61:08:df:d8:8c:0e:b6:f1:a5:f4:32:39:e6:93:
                    09:7b:d4:b0:d7:2c:4b:a5:e4:44:a0:31:0c:d3:8a:
                    07:b5
                Exponent: 65537 (0x10001)
        X509v3 extensions:
            X509v3 Basic Constraints: 
                CA:FALSE
            X509v3 Subject Key Identifier: 
                97:B5:7E:70:8A:B0:6E:87:34:9C:8A:23:8C:F1:3D:A0:81:A8:C7:5D
            X509v3 Authority Key Identifier: 
                keyid:61:04:28:00:C9:92:80:0D:F0:1B:7A:B1:C6:1C:94:2D:D9:B3:ED:39
                DirName:/CN=team136-net
                serial:27:4F:1F:D8:31:A6:74:49:A4:5C:BA:F1:B3:9C:22:27:29:D4:58:DC
            X509v3 Extended Key Usage: 
                TLS Web Client Authentication
            X509v3 Key Usage: 
                Digital Signature
    Signature Algorithm: sha256WithRSAEncryption
    Signature Value:
        6a:c1:d7:4f:21:48:3f:bd:d0:0c:da:19:96:0e:65:cc:82:4a:
        31:b2:b4:8e:39:ab:0f:ea:ea:07:ae:35:0c:d6:a1:15:cb:fe:
        20:07:45:90:82:ec:97:1d:be:40:bf:bf:97:3c:6d:3e:4d:d7:
        3f:6a:24:d1:f8:0f:c6:c0:ad:5a:54:83:31:c2:aa:fd:fc:1f:
        09:1c:10:98:b3:05:6b:53:06:e6:6e:f8:08:c2:77:64:4e:9b:
        86:47:93:5e:69:df:0d:c9:bc:bc:5a:71:e4:a9:ab:4c:39:56:
        c9:2f:f8:a2:b3:09:25:b2:da:fe:bb:9e:79:37:ec:31:ce:0c:
        fc:af:6c:53:23:e8:d2:7e:b3:27:2b:e5:9c:15:8f:c4:d2:5a:
        18:e5:1a:e0:d7:59:86:ec:8a:e6:2b:b0:e8:ed:ce:04:82:d2:
        6d:66:49:8a:fd:e8:2e:12:b9:5d:1b:b5:9f:b1:45:9b:72:3f:
        e9:19:b8:e8:35:c8:06:33:9c:f9:e5:04:d9:81:53:e9:e4:27:
        5d:bc:a2:9d:1e:32:c1:c9:1a:54:b5:e5:8f:9e:3e:19:8b:24:
        f3:1e:a2:d6:4f:f5:99:29:28:36:50:64:c2:4a:21:13:1f:5c:
        98:d6:d6:bf:06:03:ab:ad:c5:9c:c5:6b:88:fc:4d:15:86:b0:
        d4:e8:32:91
-----BEGIN CERTIFICATE-----
MIIDXTCCAkWgAwIBAgIRANdBUifA1/mhOzCe39/0gKIwDQYJKoZIhvcNAQELBQAw
FjEUMBIGA1UEAwwLdGVhbTEzNi1uZXQwHhcNMjMxMTA0MTA0MzAyWhcNMjYxMDE5
MTA0MzAyWjAZMRcwFQYDVQQDDA50ZWFtMTM2LWNsaWVudDCCASIwDQYJKoZIhvcN
AQEBBQADggEPADCCAQoCggEBAK+HBzqzgbMxz2ar7MQW7+imAP1dbe4RsZN2Pyvw
qGaB6KO/S7/NqugWI7+UDghd47JFlcDhrNjU6/Sx87pAS78mtdkhsZjsL7ttnSva
b8FMT92Yg0ye5Ge6CBW55RKKh4VX1rtFfNy3cLhgnKhhdte0xxN4s9ruYlHd8MRQ
W+BHV1a1KlT5/TJtg7MXNHHOCQU8eIoeWEOMDrlSDS+STQFXDwc19lfmL7MvCiXd
AE2H96466sSBBBMMhiAkg1ODzyntnwO/2XO/YcfMnSc2Lwft0MZyZrp0V/6dQ/J7
sZjV2mEI39iMDrbxpfQyOeaTCXvUsNcsS6XkRKAxDNOKB7UCAwEAAaOBojCBnzAJ
BgNVHRMEAjAAMB0GA1UdDgQWBBSXtX5wirBuhzSciiOM8T2ggajHXTBRBgNVHSME
SjBIgBRhBCgAyZKADfAberHGHJQt2bPtOaEapBgwFjEUMBIGA1UEAwwLdGVhbTEz
Ni1uZXSCFCdPH9gxpnRJpFy68bOcIicp1FjcMBMGA1UdJQQMMAoGCCsGAQUFBwMC
MAsGA1UdDwQEAwIHgDANBgkqhkiG9w0BAQsFAAOCAQEAasHXTyFIP73QDNoZlg5l
zIJKMbK0jjmrD+rqB641DNahFcv+IAdFkILslx2+QL+/lzxtPk3XP2ok0fgPxsCt
WlSDMcKq/fwfCRwQmLMFa1MG5m74CMJ3ZE6bhkeTXmnfDcm8vFpx5KmrTDlWyS/4
orMJJbLa/rueeTfsMc4M/K9sUyPo0n6zJyvlnBWPxNJaGOUa4NdZhuyK5iuw6O3O
BILSbWZJiv3oLhK5XRu1n7FFm3I/6Rm46DXIBjOc+eUE2YFT6eQnXbyinR4ywcka
VLXlj54+GYsk8x6i1k/1mSkoNlBkwkohEx9cmNbWvwYDq63FnMVriPxNFYaw1Ogy
kQ==
-----END CERTIFICATE-----
