Certificate:
    Data:
        Version: 3 (0x2)
        Serial Number:
            f8:2f:3c:2e:8d:b5:18:72:80:f3:50:b8:ac:11:c6:a6
        Signature Algorithm: sha256WithRSAEncryption
        Issuer: CN=team136-net
        Validity
            Not Before: Nov  4 10:43:03 2023 GMT
            Not After : Oct 19 10:43:03 2026 GMT
        Subject: CN=team136-server
        Subject Public Key Info:
            Public Key Algorithm: rsaEncryption
                Public-Key: (2048 bit)
                Modulus:
                    00:ce:17:77:2a:2c:3d:b4:86:99:d3:8b:de:b2:c0:
                    8b:ac:4c:55:2b:f1:ef:9e:24:e1:14:97:9f:ca:dd:
                    51:5d:59:76:6b:d4:0b:c5:8a:10:cd:da:74:ce:e0:
                    f5:12:e4:05:11:6f:11:b0:77:99:1d:f8:6b:38:da:
                    54:62:fc:89:ce:96:eb:5c:f9:1d:82:64:df:b4:6e:
                    d0:ad:e1:9c:8b:dd:b7:09:17:d5:09:87:70:09:9e:
                    bf:6e:4c:c5:c6:0e:1e:37:d0:27:53:e8:be:25:6f:
                    96:9c:f4:4e:dd:d1:f3:df:e1:a4:42:2b:54:63:eb:
                    5e:0d:6e:e6:9a:ce:68:66:fa:c4:c1:83:fc:57:af:
                    28:9e:4c:e4:55:31:9b:8a:16:83:3e:4d:b7:93:62:
                    b5:f3:21:a5:60:f9:b9:34:87:ae:ea:00:f6:49:f3:
                    4c:d2:73:22:5d:b5:be:94:4e:c7:3b:7f:2c:07:3f:
                    93:15:67:25:7a:bf:e3:8b:97:dc:b6:1a:5c:1b:59:
                    99:55:5e:4b:57:c1:2b:14:38:78:a0:80:5b:de:4b:
                    95:1d:76:ca:74:f1:c7:b4:67:d3:dc:21:f2:00:bb:
                    32:19:f0:4e:1d:20:d8:a1:dc:43:5b:55:dc:e9:7e:
                    96:e4:b6:06:cc:18:9a:f7:4c:25:0b:ec:fd:d3:1f:
                    b9:97
                Exponent: 65537 (0x10001)
        X509v3 extensions:
            X509v3 Basic Constraints: 
                CA:FALSE
            X509v3 Subject Key Identifier: 
                95:AA:E4:8C:B7:9B:03:52:71:E2:30:05:64:73:D0:D1:7D:1F:3A:40
            X509v3 Authority Key Identifier: 
                keyid:61:04:28:00:C9:92:80:0D:F0:1B:7A:B1:C6:1C:94:2D:D9:B3:ED:39
                DirName:/CN=team136-net
                serial:27:4F:1F:D8:31:A6:74:49:A4:5C:BA:F1:B3:9C:22:27:29:D4:58:DC
            X509v3 Extended Key Usage: 
                TLS Web Server Authentication
            X509v3 Key Usage: 
                Digital Signature, Key Encipherment
            X509v3 Subject Alternative Name: 
                DNS:team136-server
    Signature Algorithm: sha256WithRSAEncryption
    Signature Value:
        4f:b4:ca:08:44:46:e9:7f:ed:c7:b6:a9:c0:ee:ad:16:69:47:
        8b:9c:2a:4c:9c:c0:45:63:a6:aa:68:03:6f:ff:52:be:6c:05:
        66:7e:e2:cb:f6:dd:25:81:48:28:f5:5e:ab:ff:c6:83:0c:1e:
        2a:7f:50:ea:8d:ba:64:4b:40:6a:b7:36:bb:65:a8:55:72:09:
        b5:11:02:59:bf:c3:8d:9c:a0:ea:02:5b:30:0e:29:ac:d4:df:
        aa:eb:77:ff:6c:da:2a:b7:2a:8f:ff:a6:bc:4d:8c:7d:2d:36:
        73:99:a5:b9:1e:00:90:c7:71:8b:34:50:fb:ca:ea:54:53:d2:
        aa:28:82:ff:63:1b:e5:17:72:31:45:85:47:b9:42:48:3d:13:
        56:59:69:0c:41:ca:92:45:26:bd:6b:c1:59:7a:2e:c3:b3:4b:
        43:ca:b4:1a:1e:c5:e8:7c:98:fe:1a:87:31:63:9d:5e:c6:35:
        d7:6b:ca:98:8f:e6:08:bd:ec:ec:e3:f7:21:a8:ce:a2:7c:e0:
        81:22:c7:e4:90:65:3c:89:d4:64:03:c3:92:de:b1:ea:a4:d0:
        dc:6b:d8:b8:c1:84:5b:77:f6:e3:2f:2b:00:88:bb:7f:f0:1e:
        af:6f:76:25:c4:7c:cf:42:ff:5d:08:60:47:3f:e0:c3:8a:e3:
        96:ae:7a:00
-----BEGIN CERTIFICATE-----
MIIDeDCCAmCgAwIBAgIRAPgvPC6NtRhygPNQuKwRxqYwDQYJKoZIhvcNAQELBQAw
FjEUMBIGA1UEAwwLdGVhbTEzNi1uZXQwHhcNMjMxMTA0MTA0MzAzWhcNMjYxMDE5
MTA0MzAzWjAZMRcwFQYDVQQDDA50ZWFtMTM2LXNlcnZlcjCCASIwDQYJKoZIhvcN
AQEBBQADggEPADCCAQoCggEBAM4XdyosPbSGmdOL3rLAi6xMVSvx754k4RSXn8rd
UV1ZdmvUC8WKEM3adM7g9RLkBRFvEbB3mR34azjaVGL8ic6W61z5HYJk37Ru0K3h
nIvdtwkX1QmHcAmev25MxcYOHjfQJ1PoviVvlpz0Tt3R89/hpEIrVGPrXg1u5prO
aGb6xMGD/FevKJ5M5FUxm4oWgz5Nt5NitfMhpWD5uTSHruoA9knzTNJzIl21vpRO
xzt/LAc/kxVnJXq/44uX3LYaXBtZmVVeS1fBKxQ4eKCAW95LlR12ynTxx7Rn09wh
8gC7MhnwTh0g2KHcQ1tV3Ol+luS2BswYmvdMJQvs/dMfuZcCAwEAAaOBvTCBujAJ
BgNVHRMEAjAAMB0GA1UdDgQWBBSVquSMt5sDUnHiMAVkc9DRfR86QDBRBgNVHSME
SjBIgBRhBCgAyZKADfAberHGHJQt2bPtOaEapBgwFjEUMBIGA1UEAwwLdGVhbTEz
Ni1uZXSCFCdPH9gxpnRJpFy68bOcIicp1FjcMBMGA1UdJQQMMAoGCCsGAQUFBwMB
MAsGA1UdDwQEAwIFoDAZBgNVHREEEjAQgg50ZWFtMTM2LXNlcnZlcjANBgkqhkiG
9w0BAQsFAAOCAQEAT7TKCERG6X/tx7apwO6tFmlHi5wqTJzARWOmqmgDb/9SvmwF
Zn7iy/bdJYFIKPVeq//GgwweKn9Q6o26ZEtAarc2u2WoVXIJtRECWb/DjZyg6gJb
MA4prNTfqut3/2zaKrcqj/+mvE2MfS02c5mluR4AkMdxizRQ+8rqVFPSqiiC/2Mb
5RdyMUWFR7lCSD0TVllpDEHKkkUmvWvBWXouw7NLQ8q0Gh7F6HyY/hqHMWOdXsY1
12vKmI/mCL3s7OP3IajOonzggSLH5JBlPInUZAPDkt6x6qTQ3GvYuMGEW3f24y8r
AIi7f/Aer292JcR8z0L/XQhgRz/gw4rjlq56AA==
-----END CERTIFICATE-----
