Certificate:
    Data:
        Version: 3 (0x2)
        Serial Number:
            18:b9:23:a7:11:92:b5:08:08:03:0f:ed:54:a9:47:38
        Signature Algorithm: sha256WithRSAEncryption
        Issuer: CN=team285-net
        Validity
            Not Before: Nov  4 10:45:56 2023 GMT
            Not After : Oct 19 10:45:56 2026 GMT
        Subject: CN=team285-server
        Subject Public Key Info:
            Public Key Algorithm: rsaEncryption
                Public-Key: (2048 bit)
                Modulus:
                    00:a7:e9:78:8c:20:74:2b:61:df:e4:d1:66:67:1d:
                    bd:d2:f7:cf:80:07:72:7c:85:20:21:fc:56:02:b5:
                    f2:8f:82:61:82:34:ed:5d:8b:58:37:66:f1:a6:4e:
                    6a:30:b9:99:50:07:49:25:1f:2c:6a:cc:e8:0e:17:
                    65:61:e7:a7:2f:d4:7b:2a:a1:50:b1:bb:6e:6f:4b:
                    aa:2e:e0:9a:28:21:37:91:6d:47:82:f2:e9:ce:4a:
                    d2:e6:43:ba:f6:8d:d7:5b:a6:5c:31:d3:4d:96:ea:
                    d0:31:e5:aa:5e:dd:5e:f3:0c:ec:36:47:61:00:42:
                    45:90:d9:f9:6c:08:15:22:c8:6d:15:f6:c2:9b:ef:
                    a4:64:d0:2f:c1:7d:0d:9e:ad:74:0c:1a:90:48:0e:
                    6f:58:36:66:6e:7b:92:33:db:c1:1a:ad:27:a0:55:
                    18:5b:99:69:f7:fa:29:9d:cb:ac:2d:fb:6c:3b:f2:
                    6d:b6:b9:0e:3f:45:97:93:52:a7:13:c5:b3:1e:cd:
                    31:5f:f6:30:e0:34:cb:7e:3d:96:12:e4:bf:be:35:
                    ec:4f:2f:15:de:d7:5b:07:39:14:53:93:a1:a7:ee:
                    72:aa:ce:77:a9:8e:46:9f:78:c1:2e:ae:66:b8:0a:
                    6c:12:90:88:87:61:fc:c9:4f:1f:e1:35:f7:17:6f:
                    f4:45
                Exponent: 65537 (0x10001)
        X509v3 extensions:
            X509v3 Basic Constraints: 
                CA:FALSE
            X509v3 Subject Key Identifier: 
                AA:55:21:89:14:86:32:19:F6:DA:DB:72:6F:E7:4B:95:4C:8D:AE:D9
            X509v3 Authority Key Identifier: 
                keyid:A3:45:EF:C6:61:F6:3B:49:52:C2:66:6D:62:33:14:0C:76:83:8D:45
                DirName:/CN=team285-net
                serial:67:56:3B:1C:30:BC:4C:93:52:E3:07:6E:B0:D2:3E:D4:86:9B:08:69
            X509v3 Extended Key Usage: 
                TLS Web Server Authentication
            X509v3 Key Usage: 
                Digital Signature, Key Encipherment
            X509v3 Subject Alternative Name: 
                DNS:team285-server
    Signature Algorithm: sha256WithRSAEncryption
    Signature Value:
        74:d4:18:0e:0e:ce:88:f8:b3:0a:1f:51:8a:7b:2b:32:39:2a:
        47:07:3a:e1:3f:94:28:2f:4a:23:6e:1b:00:8a:a9:e4:82:77:
        51:b0:3e:89:a5:03:4e:1b:45:05:1e:8b:1a:33:70:5b:3f:35:
        1a:bb:dd:23:6d:e3:28:c4:f7:72:89:e9:b7:c4:9d:24:fd:36:
        5c:10:6c:69:b2:7b:90:45:4e:c9:d6:71:c9:7d:25:1d:f7:a3:
        ab:79:67:10:df:b2:5f:94:a2:43:b3:bc:d0:f5:c6:c7:c7:21:
        37:5f:34:1c:d3:fd:03:cd:8b:54:68:a8:3d:4e:ff:5a:17:a2:
        0c:f0:b5:a7:2e:2e:12:fe:02:d0:c9:8a:73:0d:ac:c3:1a:d9:
        83:63:2f:fe:18:e8:5c:d9:97:4a:39:70:15:eb:e6:00:e8:6b:
        28:7c:d5:ee:dd:89:4f:84:9a:3c:84:e9:bc:0e:c8:f0:5d:3b:
        c5:98:25:60:bf:08:98:37:2b:b3:2b:8b:60:34:1e:fa:83:c6:
        e7:fe:8d:dd:17:d3:34:a6:13:1d:e2:92:00:06:eb:47:b1:31:
        33:89:bc:dd:47:44:26:93:f3:54:c4:f3:62:48:f5:ae:d8:ca:
        d0:f8:48:36:03:36:a3:8c:9b:35:f8:eb:1b:a5:92:af:a3:bb:
        a8:b6:db:c8
-----BEGIN CERTIFICATE-----
MIIDdzCCAl+gAwIBAgIQGLkjpxGStQgIAw/tVKlHODANBgkqhkiG9w0BAQsFADAW
MRQwEgYDVQQDDAt0ZWFtMjg1LW5ldDAeFw0yMzExMDQxMDQ1NTZaFw0yNjEwMTkx
MDQ1NTZaMBkxFzAVBgNVBAMMDnRlYW0yODUtc2VydmVyMIIBIjANBgkqhkiG9w0B
AQEFAAOCAQ8AMIIBCgKCAQEAp+l4jCB0K2Hf5NFmZx290vfPgAdyfIUgIfxWArXy
j4JhgjTtXYtYN2bxpk5qMLmZUAdJJR8saszoDhdlYeenL9R7KqFQsbtub0uqLuCa
KCE3kW1HgvLpzkrS5kO69o3XW6ZcMdNNlurQMeWqXt1e8wzsNkdhAEJFkNn5bAgV
IshtFfbCm++kZNAvwX0Nnq10DBqQSA5vWDZmbnuSM9vBGq0noFUYW5lp9/opncus
LftsO/JttrkOP0WXk1KnE8WzHs0xX/Yw4DTLfj2WEuS/vjXsTy8V3tdbBzkUU5Oh
p+5yqs53qY5Gn3jBLq5muApsEpCIh2H8yU8f4TX3F2/0RQIDAQABo4G9MIG6MAkG
A1UdEwQCMAAwHQYDVR0OBBYEFKpVIYkUhjIZ9trbcm/nS5VMja7ZMFEGA1UdIwRK
MEiAFKNF78Zh9jtJUsJmbWIzFAx2g41FoRqkGDAWMRQwEgYDVQQDDAt0ZWFtMjg1
LW5ldIIUZ1Y7HDC8TJNS4wdusNI+1IabCGkwEwYDVR0lBAwwCgYIKwYBBQUHAwEw
CwYDVR0PBAQDAgWgMBkGA1UdEQQSMBCCDnRlYW0yODUtc2VydmVyMA0GCSqGSIb3
DQEBCwUAA4IBAQB01BgODs6I+LMKH1GKeysyOSpHBzrhP5QoL0ojbhsAiqnkgndR
sD6JpQNOG0UFHosaM3BbPzUau90jbeMoxPdyiem3xJ0k/TZcEGxpsnuQRU7J1nHJ
fSUd96OreWcQ37JflKJDs7zQ9cbHxyE3XzQc0/0DzYtUaKg9Tv9aF6IM8LWnLi4S
/gLQyYpzDazDGtmDYy/+GOhc2ZdKOXAV6+YA6GsofNXu3YlPhJo8hOm8DsjwXTvF
mCVgvwiYNyuzK4tgNB76g8bn/o3dF9M0phMd4pIAButHsTEzibzdR0Qmk/NUxPNi
SPWu2MrQ+Eg2AzajjJs1+OsbpZKvo7uottvI
-----END CERTIFICATE-----
