Certificate:
    Data:
        Version: 3 (0x2)
        Serial Number:
            5c:d1:8b:03:cb:30:92:bf:81:8e:b3:eb:fe:75:97:62
        Signature Algorithm: sha256WithRSAEncryption
        Issuer: CN=team285-net
        Validity
            Not Before: Nov  4 11:33:30 2023 GMT
            Not After : Oct 19 11:33:30 2026 GMT
        Subject: CN=team285-client
        Subject Public Key Info:
            Public Key Algorithm: rsaEncryption
                Public-Key: (2048 bit)
                Modulus:
                    00:cd:bb:6a:ea:30:20:03:dd:bb:16:dd:fd:7e:73:
                    16:b6:90:04:46:cd:52:c6:13:4f:b1:85:89:ec:0d:
                    6e:2c:1f:6b:95:c9:6b:79:8d:32:07:31:92:90:52:
                    5c:81:16:f8:15:93:76:cc:ab:64:91:7a:a9:a8:f2:
                    e7:59:e3:10:11:51:7f:4a:a1:27:5e:d8:53:a8:37:
                    dc:65:31:e7:73:d9:25:09:22:27:63:21:fe:8c:84:
                    7a:95:e8:14:11:a7:fd:f7:14:55:c0:1f:75:3a:7e:
                    3b:1b:52:97:6e:85:ac:76:14:a7:28:32:c7:0a:c6:
                    3b:dc:ca:7b:db:1b:a7:ef:27:de:8f:64:2e:8f:e4:
                    ba:55:f6:9c:55:7d:1e:4f:4a:61:f5:79:07:94:7a:
                    d2:fc:87:18:2b:0b:48:68:86:5f:c8:3e:e4:aa:c9:
                    95:8b:bc:d1:fe:56:17:36:7e:f5:1d:87:14:6d:c4:
                    a5:be:60:ec:e1:34:8d:8a:33:03:2c:24:ea:06:61:
                    7a:7e:b7:bd:f0:86:56:67:bd:1c:81:64:9c:7c:f7:
                    d3:cb:2d:ce:17:f8:b6:8b:50:bc:c6:3d:66:43:95:
                    77:18:c4:4e:25:b2:bf:ad:46:44:fb:6a:81:76:ce:
                    51:58:ae:ef:a0:94:d0:62:9e:fe:08:a2:2c:18:52:
                    06:21
                Exponent: 65537 (0x10001)
        X509v3 extensions:
            X509v3 Basic Constraints: 
                CA:FALSE
            X509v3 Subject Key Identifier: 
                51:8A:1A:78:FA:FF:14:9F:67:17:DF:44:B7:5E:6C:88:E3:F8:A9:98
            X509v3 Authority Key Identifier: 
                keyid:F6:BC:8B:EB:18:EA:58:47:0C:22:B7:1F:46:CF:5C:41:17:80:23:92
                DirName:/CN=team285-net
                serial:5A:21:51:9B:7E:8F:AE:C8:74:8B:71:55:19:E7:AF:86:6E:62:45:57
            X509v3 Extended Key Usage: 
                TLS Web Client Authentication
            X509v3 Key Usage: 
                Digital Signature
    Signature Algorithm: sha256WithRSAEncryption
    Signature Value:
        6f:7f:61:7b:06:0c:e6:f0:e6:d9:5e:89:c0:f2:17:b8:f9:df:
        10:13:40:14:ce:2e:a5:f2:e3:5b:9f:3b:1f:7c:e0:00:8d:83:
        f3:90:bd:ec:47:a5:ef:bd:97:f2:75:ae:13:bf:c4:87:63:74:
        91:48:b9:96:63:d9:84:b7:ec:f2:49:c6:3b:cf:8a:e9:25:a8:
        cd:7f:54:ea:fb:18:b2:c3:23:6c:10:93:28:ae:b0:41:1b:33:
        4b:91:54:a3:54:2c:4f:a4:69:93:e5:e7:04:98:b3:61:b4:ef:
        55:b4:60:97:fa:58:76:4d:db:de:e1:a9:88:11:d8:77:71:de:
        e7:f4:ab:ca:3e:9a:f4:7d:e2:d4:60:02:d8:12:c6:c0:9a:68:
        73:b8:90:95:0c:43:28:54:39:80:fa:60:e7:13:c8:fb:fc:42:
        3f:8b:de:d9:fc:e5:3e:79:16:b9:dd:67:bf:11:dd:ec:d1:6e:
        04:ab:f7:2d:24:13:ad:bf:a3:33:bd:c7:ef:98:97:16:4d:1d:
        e7:ee:00:29:f6:8e:b9:4c:b1:c1:7b:98:e2:5b:e7:01:b2:38:
        a4:10:b0:b3:be:5e:af:f3:8c:ad:47:d9:e6:e8:e4:3e:ae:f7:
        34:b1:90:17:35:72:f0:cf:cd:03:71:2e:89:ec:f5:c9:26:78:
        4c:35:2a:9b
-----BEGIN CERTIFICATE-----
MIIDXDCCAkSgAwIBAgIQXNGLA8swkr+BjrPr/nWXYjANBgkqhkiG9w0BAQsFADAW
MRQwEgYDVQQDDAt0ZWFtMjg1LW5ldDAeFw0yMzExMDQxMTMzMzBaFw0yNjEwMTkx
MTMzMzBaMBkxFzAVBgNVBAMMDnRlYW0yODUtY2xpZW50MIIBIjANBgkqhkiG9w0B
AQEFAAOCAQ8AMIIBCgKCAQEAzbtq6jAgA927Ft39fnMWtpAERs1SxhNPsYWJ7A1u
LB9rlclreY0yBzGSkFJcgRb4FZN2zKtkkXqpqPLnWeMQEVF/SqEnXthTqDfcZTHn
c9klCSInYyH+jIR6legUEaf99xRVwB91On47G1KXboWsdhSnKDLHCsY73Mp72xun
7yfej2Quj+S6VfacVX0eT0ph9XkHlHrS/IcYKwtIaIZfyD7kqsmVi7zR/lYXNn71
HYcUbcSlvmDs4TSNijMDLCTqBmF6fre98IZWZ70cgWScfPfTyy3OF/i2i1C8xj1m
Q5V3GMROJbK/rUZE+2qBds5RWK7voJTQYp7+CKIsGFIGIQIDAQABo4GiMIGfMAkG
A1UdEwQCMAAwHQYDVR0OBBYEFFGKGnj6/xSfZxffRLdebIjj+KmYMFEGA1UdIwRK
MEiAFPa8i+sY6lhHDCK3H0bPXEEXgCOSoRqkGDAWMRQwEgYDVQQDDAt0ZWFtMjg1
LW5ldIIUWiFRm36Prsh0i3FVGeevhm5iRVcwEwYDVR0lBAwwCgYIKwYBBQUHAwIw
CwYDVR0PBAQDAgeAMA0GCSqGSIb3DQEBCwUAA4IBAQBvf2F7Bgzm8ObZXonA8he4
+d8QE0AUzi6l8uNbnzsffOAAjYPzkL3sR6XvvZfyda4Tv8SHY3SRSLmWY9mEt+zy
ScY7z4rpJajNf1Tq+xiywyNsEJMorrBBGzNLkVSjVCxPpGmT5ecEmLNhtO9VtGCX
+lh2Tdve4amIEdh3cd7n9KvKPpr0feLUYALYEsbAmmhzuJCVDEMoVDmA+mDnE8j7
/EI/i97Z/OU+eRa53We/Ed3s0W4Eq/ctJBOtv6MzvcfvmJcWTR3n7gAp9o65TLHB
e5jiW+cBsjikELCzvl6v84ytR9nm6OQ+rvc0sZAXNXLwz80DcS6J7PXJJnhMNSqb
-----END CERTIFICATE-----
