Certificate:
    Data:
        Version: 3 (0x2)
        Serial Number:
            9a:ff:5b:fa:be:1a:95:b4:ef:ac:53:cc:39:07:00:60
        Signature Algorithm: sha256WithRSAEncryption
        Issuer: CN=team285-net
        Validity
            Not Before: Nov  4 10:45:56 2023 GMT
            Not After : Oct 19 10:45:56 2026 GMT
        Subject: CN=team285-client
        Subject Public Key Info:
            Public Key Algorithm: rsaEncryption
                Public-Key: (2048 bit)
                Modulus:
                    00:c0:ea:05:6f:d8:1f:3a:20:52:d9:8a:13:13:4b:
                    45:3d:ee:6f:b5:46:31:3a:fd:29:36:ee:08:b5:a1:
                    10:c3:5c:6e:4b:d5:95:b9:3a:ed:a8:12:64:90:4b:
                    01:e4:58:98:db:52:fb:95:fd:12:6f:64:4c:7f:43:
                    e1:ec:ac:29:f7:8a:d5:69:d4:2f:c9:22:93:fa:82:
                    e3:37:de:8c:f8:6c:48:34:13:fc:a6:ac:27:d3:70:
                    94:ad:51:1c:2b:11:37:17:d0:2e:73:58:63:2e:2a:
                    07:66:9a:f2:2e:85:11:0a:4f:aa:48:c5:c0:e4:f7:
                    57:cf:35:22:76:0b:df:7b:18:07:90:fb:12:be:9c:
                    e9:3a:f0:b6:20:a2:ce:03:24:22:20:fc:df:2d:43:
                    f5:5e:2f:66:31:18:e7:8b:cd:e4:b5:af:99:89:59:
                    5e:44:78:42:5a:22:a6:a7:96:7e:22:09:87:7a:8d:
                    ba:74:4b:09:74:de:d6:88:e9:3d:84:87:94:e3:73:
                    a0:44:f2:92:d0:8d:19:3d:f7:eb:98:91:6c:a2:79:
                    b1:9c:3e:fb:34:ce:bf:4e:d9:2e:48:04:e9:28:64:
                    f3:1f:c4:41:6b:4f:10:6d:4e:01:60:c1:e5:52:10:
                    f2:d4:1a:b0:3a:0a:0e:c5:42:b0:a9:81:f4:d2:5f:
                    cc:19
                Exponent: 65537 (0x10001)
        X509v3 extensions:
            X509v3 Basic Constraints: 
                CA:FALSE
            X509v3 Subject Key Identifier: 
                00:48:05:AF:4E:75:CC:D6:B7:79:96:50:A6:79:4A:85:A9:3B:B6:16
            X509v3 Authority Key Identifier: 
                keyid:A3:45:EF:C6:61:F6:3B:49:52:C2:66:6D:62:33:14:0C:76:83:8D:45
                DirName:/CN=team285-net
                serial:67:56:3B:1C:30:BC:4C:93:52:E3:07:6E:B0:D2:3E:D4:86:9B:08:69
            X509v3 Extended Key Usage: 
                TLS Web Client Authentication
            X509v3 Key Usage: 
                Digital Signature
    Signature Algorithm: sha256WithRSAEncryption
    Signature Value:
        2e:14:da:ef:9f:21:4f:1d:3e:f0:d9:8d:9c:1b:68:80:f6:2d:
        b4:89:6d:5c:06:e1:39:23:36:4a:b0:5e:90:f9:a1:e3:ed:a7:
        fd:ac:bd:5a:a4:03:88:a2:5a:3e:8d:0a:05:23:d1:e1:d4:3c:
        fa:19:ca:b0:e5:41:f5:7f:39:41:24:fa:c4:20:72:17:67:24:
        d1:fc:3e:1e:b8:cd:d4:92:76:39:40:17:3b:db:81:47:33:46:
        fd:a9:27:df:c2:e9:bc:52:66:0d:ce:0c:64:47:d0:f9:69:de:
        ab:00:66:a1:57:27:55:9f:30:72:36:46:5b:15:68:ec:43:70:
        1e:af:fc:7e:7b:69:c7:18:25:5d:3d:44:ca:ee:a1:5e:0c:ab:
        78:b1:b5:9b:a6:a0:26:cf:a0:64:77:b6:55:a5:45:ac:0e:43:
        a0:fc:24:69:2f:d5:98:5a:4a:75:59:47:e0:b3:b0:86:5c:9f:
        6b:05:76:dd:c4:49:16:f0:0c:6a:99:ae:3f:c5:d1:9b:0f:01:
        51:8b:51:01:50:f1:a9:91:e2:10:6b:79:e6:1b:b5:7a:57:08:
        f6:29:88:d6:c5:51:e0:87:44:11:d2:88:37:a0:be:d1:4b:88:
        40:2f:80:1c:8e:49:4c:c4:82:8a:a1:e3:eb:80:f1:38:bc:d8:
        78:02:79:0d
-----BEGIN CERTIFICATE-----
MIIDXTCCAkWgAwIBAgIRAJr/W/q+GpW076xTzDkHAGAwDQYJKoZIhvcNAQELBQAw
FjEUMBIGA1UEAwwLdGVhbTI4NS1uZXQwHhcNMjMxMTA0MTA0NTU2WhcNMjYxMDE5
MTA0NTU2WjAZMRcwFQYDVQQDDA50ZWFtMjg1LWNsaWVudDCCASIwDQYJKoZIhvcN
AQEBBQADggEPADCCAQoCggEBAMDqBW/YHzogUtmKExNLRT3ub7VGMTr9KTbuCLWh
EMNcbkvVlbk67agSZJBLAeRYmNtS+5X9Em9kTH9D4eysKfeK1WnUL8kik/qC4zfe
jPhsSDQT/KasJ9NwlK1RHCsRNxfQLnNYYy4qB2aa8i6FEQpPqkjFwOT3V881InYL
33sYB5D7Er6c6TrwtiCizgMkIiD83y1D9V4vZjEY54vN5LWvmYlZXkR4QloipqeW
fiIJh3qNunRLCXTe1ojpPYSHlONzoETyktCNGT3365iRbKJ5sZw++zTOv07ZLkgE
6Shk8x/EQWtPEG1OAWDB5VIQ8tQasDoKDsVCsKmB9NJfzBkCAwEAAaOBojCBnzAJ
BgNVHRMEAjAAMB0GA1UdDgQWBBQASAWvTnXM1rd5llCmeUqFqTu2FjBRBgNVHSME
SjBIgBSjRe/GYfY7SVLCZm1iMxQMdoONRaEapBgwFjEUMBIGA1UEAwwLdGVhbTI4
NS1uZXSCFGdWOxwwvEyTUuMHbrDSPtSGmwhpMBMGA1UdJQQMMAoGCCsGAQUFBwMC
MAsGA1UdDwQEAwIHgDANBgkqhkiG9w0BAQsFAAOCAQEALhTa758hTx0+8NmNnBto
gPYttIltXAbhOSM2SrBekPmh4+2n/ay9WqQDiKJaPo0KBSPR4dQ8+hnKsOVB9X85
QST6xCByF2ck0fw+HrjN1JJ2OUAXO9uBRzNG/akn38LpvFJmDc4MZEfQ+WneqwBm
oVcnVZ8wcjZGWxVo7ENwHq/8fntpxxglXT1Eyu6hXgyreLG1m6agJs+gZHe2VaVF
rA5DoPwkaS/VmFpKdVlH4LOwhlyfawV23cRJFvAMapmuP8XRmw8BUYtRAVDxqZHi
EGt55hu1elcI9imI1sVR4IdEEdKIN6C+0UuIQC+AHI5JTMSCiqHj64DxOLzYeAJ5
DQ==
-----END CERTIFICATE-----
