Certificate:
    Data:
        Version: 3 (0x2)
        Serial Number:
            d8:d5:05:4c:0a:06:35:c7:31:89:99:75:6e:81:fe:7c
        Signature Algorithm: sha256WithRSAEncryption
        Issuer: CN=team285-net
        Validity
            Not Before: Nov  4 11:33:30 2023 GMT
            Not After : Oct 19 11:33:30 2026 GMT
        Subject: CN=team285-server
        Subject Public Key Info:
            Public Key Algorithm: rsaEncryption
                Public-Key: (2048 bit)
                Modulus:
                    00:aa:c0:2d:25:cb:7e:aa:4c:8b:7a:af:6b:e7:85:
                    88:f5:b6:44:c6:85:c8:9a:b8:ba:dd:71:48:5a:bf:
                    f7:f6:91:29:50:ca:27:8d:2d:7f:dd:2c:46:ac:7b:
                    18:1e:ad:9e:01:21:4e:11:ee:84:dc:89:ef:b7:3b:
                    a3:c0:01:ef:1b:fe:58:d5:da:44:7c:01:48:4a:88:
                    f7:72:49:a2:0d:2e:22:ed:3e:0d:29:2d:45:4b:0a:
                    03:df:82:b8:9f:c2:ef:ec:d6:dd:62:22:15:eb:86:
                    6e:99:0a:46:6a:14:aa:f7:dc:cd:77:46:c9:a0:82:
                    5b:de:3c:49:ae:f8:53:6f:b4:5e:45:e0:bd:c1:79:
                    74:d8:63:6a:92:da:8b:e5:23:18:2b:bc:87:a1:25:
                    05:2a:c2:57:ac:bb:13:3c:b9:c4:b6:c9:f2:2c:26:
                    cb:34:f7:ba:d7:bc:d2:00:2a:96:8b:c6:a1:ea:84:
                    c5:2d:e2:80:96:78:92:cd:2f:ef:0c:d1:ac:e0:24:
                    3e:13:96:b8:c3:3e:0e:f2:71:b7:ae:5c:01:c0:bc:
                    06:4e:6a:b7:70:39:b4:dc:37:1a:c8:11:19:04:90:
                    38:69:fd:71:45:d0:ca:07:22:71:be:e3:e8:8e:cd:
                    14:3f:b8:99:03:d8:6b:28:f6:af:2d:d4:30:8b:f3:
                    b1:77
                Exponent: 65537 (0x10001)
        X509v3 extensions:
            X509v3 Basic Constraints: 
                CA:FALSE
            X509v3 Subject Key Identifier: 
                B5:A4:E6:F2:94:57:D5:CF:0F:BD:E7:C1:72:24:25:E3:C0:1F:0C:58
            X509v3 Authority Key Identifier: 
                keyid:F6:BC:8B:EB:18:EA:58:47:0C:22:B7:1F:46:CF:5C:41:17:80:23:92
                DirName:/CN=team285-net
                serial:5A:21:51:9B:7E:8F:AE:C8:74:8B:71:55:19:E7:AF:86:6E:62:45:57
            X509v3 Extended Key Usage: 
                TLS Web Server Authentication
            X509v3 Key Usage: 
                Digital Signature, Key Encipherment
            X509v3 Subject Alternative Name: 
                DNS:team285-server
    Signature Algorithm: sha256WithRSAEncryption
    Signature Value:
        71:55:2a:67:3f:0b:c5:ab:6f:c9:00:73:1c:9d:b5:51:9d:3e:
        a4:76:43:ed:fa:a5:12:58:16:ca:98:c0:62:f5:48:ef:bc:02:
        20:b6:59:8e:da:44:f0:5a:3f:b4:67:9d:76:0e:0c:d9:6a:32:
        2c:e5:b1:29:83:05:30:36:cd:0f:88:e3:f8:ae:a6:e4:24:35:
        d6:0e:7a:67:ed:dd:70:5f:b5:dc:a3:72:11:11:97:c7:98:74:
        a4:02:7e:b4:50:8e:60:a5:27:f2:28:6d:df:98:63:7d:b7:ab:
        2d:0d:15:8e:b5:0b:51:1b:49:8c:ff:a5:0c:93:71:12:14:7d:
        45:da:ee:63:36:1b:b7:d8:bf:37:48:f2:54:cb:b1:59:c7:0b:
        19:45:c0:72:80:2d:e9:cd:0b:3b:cc:ca:11:e0:0b:05:89:a1:
        66:27:9f:dd:bc:4b:b9:cd:c0:db:8d:0b:7d:fb:3a:2f:ea:58:
        be:bf:97:8b:7c:cc:90:60:86:2d:ef:ec:47:0a:e3:1f:cd:ec:
        d2:55:da:dc:02:d7:6e:c8:dc:c3:9c:e1:77:51:0f:d5:86:dd:
        7c:5b:52:ff:0c:6b:b9:f9:0f:a7:36:18:8e:a3:5c:de:34:70:
        35:71:95:69:b0:0d:c5:94:aa:ad:fc:ac:27:c6:53:cf:bf:51:
        cb:41:cd:4e
-----BEGIN CERTIFICATE-----
MIIDeDCCAmCgAwIBAgIRANjVBUwKBjXHMYmZdW6B/nwwDQYJKoZIhvcNAQELBQAw
FjEUMBIGA1UEAwwLdGVhbTI4NS1uZXQwHhcNMjMxMTA0MTEzMzMwWhcNMjYxMDE5
MTEzMzMwWjAZMRcwFQYDVQQDDA50ZWFtMjg1LXNlcnZlcjCCASIwDQYJKoZIhvcN
AQEBBQADggEPADCCAQoCggEBAKrALSXLfqpMi3qva+eFiPW2RMaFyJq4ut1xSFq/
9/aRKVDKJ40tf90sRqx7GB6tngEhThHuhNyJ77c7o8AB7xv+WNXaRHwBSEqI93JJ
og0uIu0+DSktRUsKA9+CuJ/C7+zW3WIiFeuGbpkKRmoUqvfczXdGyaCCW948Sa74
U2+0XkXgvcF5dNhjapLai+UjGCu8h6ElBSrCV6y7Ezy5xLbJ8iwmyzT3ute80gAq
lovGoeqExS3igJZ4ks0v7wzRrOAkPhOWuMM+DvJxt65cAcC8Bk5qt3A5tNw3GsgR
GQSQOGn9cUXQygcicb7j6I7NFD+4mQPYayj2ry3UMIvzsXcCAwEAAaOBvTCBujAJ
BgNVHRMEAjAAMB0GA1UdDgQWBBS1pObylFfVzw+958FyJCXjwB8MWDBRBgNVHSME
SjBIgBT2vIvrGOpYRwwitx9Gz1xBF4AjkqEapBgwFjEUMBIGA1UEAwwLdGVhbTI4
NS1uZXSCFFohUZt+j67IdItxVRnnr4ZuYkVXMBMGA1UdJQQMMAoGCCsGAQUFBwMB
MAsGA1UdDwQEAwIFoDAZBgNVHREEEjAQgg50ZWFtMjg1LXNlcnZlcjANBgkqhkiG
9w0BAQsFAAOCAQEAcVUqZz8LxatvyQBzHJ21UZ0+pHZD7fqlElgWypjAYvVI77wC
ILZZjtpE8Fo/tGeddg4M2WoyLOWxKYMFMDbND4jj+K6m5CQ11g56Z+3dcF+13KNy
ERGXx5h0pAJ+tFCOYKUn8iht35hjfberLQ0VjrULURtJjP+lDJNxEhR9RdruYzYb
t9i/N0jyVMuxWccLGUXAcoAt6c0LO8zKEeALBYmhZief3bxLuc3A240Lffs6L+pY
vr+Xi3zMkGCGLe/sRwrjH83s0lXa3ALXbsjcw5zhd1EP1YbdfFtS/wxrufkPpzYY
jqNc3jRwNXGVabANxZSqrfysJ8ZTz79Ry0HNTg==
-----END CERTIFICATE-----
