Certificate:
    Data:
        Version: 3 (0x2)
        Serial Number:
            03:64:58:5d:bf:ab:49:73:1b:a9:63:39:e3:34:90:25
        Signature Algorithm: sha256WithRSAEncryption
        Issuer: CN=team135-net
        Validity
            Not Before: Nov  4 10:43:01 2023 GMT
            Not After : Oct 19 10:43:01 2026 GMT
        Subject: CN=team135-server
        Subject Public Key Info:
            Public Key Algorithm: rsaEncryption
                Public-Key: (2048 bit)
                Modulus:
                    00:91:51:3a:f0:67:ec:84:47:9a:fe:fb:93:b0:f8:
                    50:85:24:c3:6b:e0:c4:59:0b:98:12:8a:df:3a:e6:
                    6e:a9:14:c0:55:15:a4:21:96:39:0c:f7:30:a1:a6:
                    fe:d3:48:cd:2b:83:24:c7:67:50:14:53:5a:bf:d8:
                    d4:9f:41:59:6f:c9:50:a2:36:f8:b4:56:a1:d3:e7:
                    03:c0:9b:48:ae:7b:7c:c6:04:55:55:71:18:09:72:
                    7c:4e:22:13:8e:e7:40:2d:64:bc:8d:7a:7f:1b:e4:
                    a9:6f:9e:bb:9f:17:16:1e:41:35:a0:1e:9e:cf:6e:
                    61:b7:17:19:e5:fc:61:ec:2f:11:73:86:24:7f:cb:
                    24:92:15:b0:f4:2b:a8:c4:72:47:8d:d3:7d:a5:28:
                    bf:7b:9b:76:b2:b0:2c:be:94:f6:2f:0d:16:09:db:
                    82:e0:4a:3e:93:fc:0b:d6:7b:0c:80:39:99:2a:55:
                    57:80:2f:d9:f3:3d:f2:93:f1:0f:a8:0b:09:45:7a:
                    83:dc:b2:da:99:a0:11:29:a6:26:bc:49:6d:81:ad:
                    35:ca:fa:57:95:0e:1c:d0:6a:a5:6d:8c:0e:f1:06:
                    c1:86:3e:19:43:13:bd:56:aa:ca:da:79:cb:6b:cf:
                    bb:48:d5:1d:f8:1b:2a:1a:f5:47:fe:9b:31:df:81:
                    7d:df
                Exponent: 65537 (0x10001)
        X509v3 extensions:
            X509v3 Basic Constraints: 
                CA:FALSE
            X509v3 Subject Key Identifier: 
                61:9F:C7:F6:A3:5F:EF:1B:38:A7:34:3E:78:E4:8E:19:CC:D6:2A:4F
            X509v3 Authority Key Identifier: 
                keyid:17:A7:D1:45:FE:02:3A:95:BC:72:BC:9E:51:73:53:28:C9:EB:39:12
                DirName:/CN=team135-net
                serial:30:97:7A:4E:FD:54:E8:42:67:DF:B6:77:89:6B:A7:DF:C3:1C:BE:85
            X509v3 Extended Key Usage: 
                TLS Web Server Authentication
            X509v3 Key Usage: 
                Digital Signature, Key Encipherment
            X509v3 Subject Alternative Name: 
                DNS:team135-server
    Signature Algorithm: sha256WithRSAEncryption
    Signature Value:
        86:74:16:f6:27:e2:29:2e:09:26:72:a1:2f:34:23:7f:b4:de:
        73:89:67:93:66:cf:be:fd:98:bc:e3:08:3d:72:b2:46:27:98:
        d8:66:e3:ad:5e:28:3f:3b:55:7b:ed:fa:26:e6:c0:2f:84:81:
        4a:dd:e2:40:d6:90:28:08:0e:58:f0:05:d9:b9:10:1e:c2:98:
        7f:88:3d:7f:3f:d8:6a:0d:77:46:4c:7a:2b:f5:b8:b2:16:11:
        42:2b:19:b4:4d:0a:64:8f:4b:27:1f:87:d2:c7:ae:69:2f:b7:
        ed:b3:98:79:e4:9e:fa:74:01:71:1b:01:0b:2a:9b:9d:b8:27:
        c4:a9:aa:94:24:a9:01:ff:a5:24:d6:fc:ad:07:bf:28:09:7d:
        76:ea:98:04:68:34:aa:f4:53:a1:f1:e4:4d:a3:af:f2:32:ce:
        1e:34:a9:fd:8a:4d:81:fe:30:57:c4:a5:55:76:20:db:10:99:
        5c:ae:5b:48:92:60:6b:64:60:df:17:ec:b7:9e:ce:d7:c0:93:
        79:74:98:7d:09:77:25:71:74:fb:8a:25:1b:7e:89:ea:0f:6d:
        fc:39:5e:43:75:3a:c5:30:32:fb:c0:a3:9e:b5:cf:dd:9e:9d:
        c2:aa:91:1b:71:b5:cb:8c:5d:4c:8a:a1:76:eb:0f:02:8e:e6:
        43:63:15:14
-----BEGIN CERTIFICATE-----
MIIDdzCCAl+gAwIBAgIQA2RYXb+rSXMbqWM54zSQJTANBgkqhkiG9w0BAQsFADAW
MRQwEgYDVQQDDAt0ZWFtMTM1LW5ldDAeFw0yMzExMDQxMDQzMDFaFw0yNjEwMTkx
MDQzMDFaMBkxFzAVBgNVBAMMDnRlYW0xMzUtc2VydmVyMIIBIjANBgkqhkiG9w0B
AQEFAAOCAQ8AMIIBCgKCAQEAkVE68GfshEea/vuTsPhQhSTDa+DEWQuYEorfOuZu
qRTAVRWkIZY5DPcwoab+00jNK4Mkx2dQFFNav9jUn0FZb8lQojb4tFah0+cDwJtI
rnt8xgRVVXEYCXJ8TiITjudALWS8jXp/G+Spb567nxcWHkE1oB6ez25htxcZ5fxh
7C8Rc4Ykf8skkhWw9CuoxHJHjdN9pSi/e5t2srAsvpT2Lw0WCduC4Eo+k/wL1nsM
gDmZKlVXgC/Z8z3yk/EPqAsJRXqD3LLamaARKaYmvEltga01yvpXlQ4c0GqlbYwO
8QbBhj4ZQxO9VqrK2nnLa8+7SNUd+BsqGvVH/psx34F93wIDAQABo4G9MIG6MAkG
A1UdEwQCMAAwHQYDVR0OBBYEFGGfx/ajX+8bOKc0PnjkjhnM1ipPMFEGA1UdIwRK
MEiAFBen0UX+AjqVvHK8nlFzUyjJ6zkSoRqkGDAWMRQwEgYDVQQDDAt0ZWFtMTM1
LW5ldIIUMJd6Tv1U6EJn37Z3iWun38McvoUwEwYDVR0lBAwwCgYIKwYBBQUHAwEw
CwYDVR0PBAQDAgWgMBkGA1UdEQQSMBCCDnRlYW0xMzUtc2VydmVyMA0GCSqGSIb3
DQEBCwUAA4IBAQCGdBb2J+IpLgkmcqEvNCN/tN5ziWeTZs++/Zi84wg9crJGJ5jY
ZuOtXig/O1V77fom5sAvhIFK3eJA1pAoCA5Y8AXZuRAewph/iD1/P9hqDXdGTHor
9biyFhFCKxm0TQpkj0snH4fSx65pL7fts5h55J76dAFxGwELKpuduCfEqaqUJKkB
/6Uk1vytB78oCX126pgEaDSq9FOh8eRNo6/yMs4eNKn9ik2B/jBXxKVVdiDbEJlc
rltIkmBrZGDfF+y3ns7XwJN5dJh9CXclcXT7iiUbfonqD238OV5DdTrFMDL7wKOe
tc/dnp3CqpEbcbXLjF1MiqF26w8CjuZDYxUU
-----END CERTIFICATE-----
