Certificate:
    Data:
        Version: 3 (0x2)
        Serial Number:
            41:25:3c:16:a1:a4:5a:21:f6:6b:d0:86:a7:a9:06:50
        Signature Algorithm: sha256WithRSAEncryption
        Issuer: CN=team135-net
        Validity
            Not Before: Nov  4 11:30:09 2023 GMT
            Not After : Oct 19 11:30:09 2026 GMT
        Subject: CN=team135-server
        Subject Public Key Info:
            Public Key Algorithm: rsaEncryption
                Public-Key: (2048 bit)
                Modulus:
                    00:af:47:39:8b:5f:c6:17:a3:3d:48:38:14:41:37:
                    30:78:b1:34:f1:bd:04:0f:70:78:56:da:e6:1d:bc:
                    cd:df:0b:30:42:0c:7e:43:31:5e:d9:15:73:71:53:
                    f8:f6:b5:a1:63:77:00:72:74:31:2b:bf:90:11:c9:
                    64:9c:22:d4:f8:93:e4:5f:49:45:1b:ed:f7:df:f8:
                    ae:42:18:e8:cd:18:54:fb:fc:57:90:1a:bb:3a:8f:
                    24:4d:be:b2:8f:6c:a3:c6:8d:96:e0:1f:8e:18:d5:
                    c6:d6:58:53:8a:41:bc:cd:89:69:7c:eb:a7:62:c0:
                    52:3d:aa:f5:5a:d8:1a:ab:71:e0:79:bf:57:0f:d4:
                    b9:0d:49:d5:ff:53:23:00:7b:85:65:10:76:61:bf:
                    ba:5a:b6:d2:10:4a:1d:01:e8:96:e9:1d:54:04:71:
                    1b:ad:d8:f9:c2:4a:51:82:d9:65:fb:71:df:ee:e8:
                    8c:1e:26:69:ff:ab:a6:57:3b:23:73:87:dd:f8:bf:
                    8f:7d:54:55:e3:cb:d2:2d:19:fb:27:a8:ad:1d:5f:
                    dd:71:28:ce:23:34:ac:95:15:ea:3d:e0:ba:b4:8f:
                    8b:62:75:2e:77:e1:38:a9:4f:7b:3a:ef:02:62:a8:
                    9c:92:e1:fa:85:96:16:38:ed:23:76:4a:f9:74:12:
                    58:99
                Exponent: 65537 (0x10001)
        X509v3 extensions:
            X509v3 Basic Constraints: 
                CA:FALSE
            X509v3 Subject Key Identifier: 
                58:47:58:A7:3A:1A:02:98:D5:FA:C4:44:3B:24:46:C6:80:BB:F1:F5
            X509v3 Authority Key Identifier: 
                keyid:80:58:33:9F:C5:6C:38:8E:BD:03:A0:4A:33:94:C7:5B:4C:93:4F:EA
                DirName:/CN=team135-net
                serial:70:37:D5:06:03:AF:B3:E6:0C:47:28:ED:36:04:58:B5:5D:4D:71:4B
            X509v3 Extended Key Usage: 
                TLS Web Server Authentication
            X509v3 Key Usage: 
                Digital Signature, Key Encipherment
            X509v3 Subject Alternative Name: 
                DNS:team135-server
    Signature Algorithm: sha256WithRSAEncryption
    Signature Value:
        84:e6:4c:1c:bb:fc:14:58:ea:79:5d:40:72:5a:c4:8e:c4:77:
        5e:9e:a3:d9:54:37:52:e4:f5:66:c4:fc:ea:3a:2e:69:46:0e:
        e5:21:06:c6:c3:0e:e4:4e:ec:e1:21:f3:82:7b:1e:0a:08:8b:
        9e:90:24:60:e2:7b:06:c9:8c:84:4f:ee:e6:ff:d2:f7:e5:1c:
        a1:07:9a:d5:1e:8c:eb:e8:ef:3c:11:58:be:0b:c4:c5:81:ce:
        0e:d3:8f:2c:0d:d8:60:12:37:84:1b:79:14:32:fb:ec:52:62:
        c0:c0:2a:38:4d:31:3a:02:66:6f:1d:4f:22:d4:ae:c8:dd:e3:
        e3:f2:6a:a4:0c:5b:90:59:a9:b3:78:27:5b:2d:2f:80:e0:76:
        ce:28:ec:d0:87:48:1f:7a:bd:50:41:88:ce:a3:15:f7:3d:d8:
        40:ab:f2:ca:db:2c:a0:f7:55:bc:f8:9a:bd:94:41:d1:8a:38:
        12:c7:d2:e5:e0:29:4e:b2:dd:a0:ad:28:db:53:2e:0e:d8:b5:
        b7:ca:77:d7:ef:25:aa:18:18:41:54:41:59:d9:a1:4f:e4:12:
        1f:0a:f8:08:55:f7:98:6e:cd:02:d4:98:b2:61:5f:d7:88:7a:
        ad:59:fe:4f:68:7e:04:d6:81:fc:f9:b6:74:56:18:1d:d2:a4:
        76:a2:a4:20
-----BEGIN CERTIFICATE-----
MIIDdzCCAl+gAwIBAgIQQSU8FqGkWiH2a9CGp6kGUDANBgkqhkiG9w0BAQsFADAW
MRQwEgYDVQQDDAt0ZWFtMTM1LW5ldDAeFw0yMzExMDQxMTMwMDlaFw0yNjEwMTkx
MTMwMDlaMBkxFzAVBgNVBAMMDnRlYW0xMzUtc2VydmVyMIIBIjANBgkqhkiG9w0B
AQEFAAOCAQ8AMIIBCgKCAQEAr0c5i1/GF6M9SDgUQTcweLE08b0ED3B4VtrmHbzN
3wswQgx+QzFe2RVzcVP49rWhY3cAcnQxK7+QEclknCLU+JPkX0lFG+333/iuQhjo
zRhU+/xXkBq7Oo8kTb6yj2yjxo2W4B+OGNXG1lhTikG8zYlpfOunYsBSPar1Wtga
q3Hgeb9XD9S5DUnV/1MjAHuFZRB2Yb+6WrbSEEodAeiW6R1UBHEbrdj5wkpRgtll
+3Hf7uiMHiZp/6umVzsjc4fd+L+PfVRV48vSLRn7J6itHV/dcSjOIzSslRXqPeC6
tI+LYnUud+E4qU97Ou8CYqickuH6hZYWOO0jdkr5dBJYmQIDAQABo4G9MIG6MAkG
A1UdEwQCMAAwHQYDVR0OBBYEFFhHWKc6GgKY1frERDskRsaAu/H1MFEGA1UdIwRK
MEiAFIBYM5/FbDiOvQOgSjOUx1tMk0/qoRqkGDAWMRQwEgYDVQQDDAt0ZWFtMTM1
LW5ldIIUcDfVBgOvs+YMRyjtNgRYtV1NcUswEwYDVR0lBAwwCgYIKwYBBQUHAwEw
CwYDVR0PBAQDAgWgMBkGA1UdEQQSMBCCDnRlYW0xMzUtc2VydmVyMA0GCSqGSIb3
DQEBCwUAA4IBAQCE5kwcu/wUWOp5XUByWsSOxHdenqPZVDdS5PVmxPzqOi5pRg7l
IQbGww7kTuzhIfOCex4KCIuekCRg4nsGyYyET+7m/9L35RyhB5rVHozr6O88EVi+
C8TFgc4O048sDdhgEjeEG3kUMvvsUmLAwCo4TTE6AmZvHU8i1K7I3ePj8mqkDFuQ
WamzeCdbLS+A4HbOKOzQh0gfer1QQYjOoxX3PdhAq/LK2yyg91W8+Jq9lEHRijgS
x9Ll4ClOst2grSjbUy4O2LW3ynfX7yWqGBhBVEFZ2aFP5BIfCvgIVfeYbs0C1Jiy
YV/XiHqtWf5PaH4E1oH8+bZ0Vhgd0qR2oqQg
-----END CERTIFICATE-----
