Certificate:
    Data:
        Version: 3 (0x2)
        Serial Number:
            74:b2:36:4e:9a:8d:79:54:c4:93:c4:8b:b4:1d:24:8c
        Signature Algorithm: sha256WithRSAEncryption
        Issuer: CN=team135-net
        Validity
            Not Before: Nov  4 10:43:01 2023 GMT
            Not After : Oct 19 10:43:01 2026 GMT
        Subject: CN=team135-client
        Subject Public Key Info:
            Public Key Algorithm: rsaEncryption
                Public-Key: (2048 bit)
                Modulus:
                    00:cd:ef:21:c3:07:25:1c:d0:b4:2c:33:27:83:d4:
                    70:79:87:0d:30:c5:1d:7f:83:9b:f9:6e:2e:f9:88:
                    53:25:82:5d:24:c0:fb:70:f3:e1:03:d7:ed:07:de:
                    f4:0e:77:6a:9e:a0:3d:ce:f6:0c:4b:a2:4c:57:b6:
                    24:27:24:9d:ec:24:83:bc:fc:a2:7c:4c:a1:fe:f3:
                    28:fa:cd:35:f5:eb:a1:3a:8f:f8:fb:42:32:55:13:
                    93:04:44:14:42:ad:d1:b4:03:68:01:d2:f9:53:20:
                    00:62:4f:73:05:cf:44:94:43:8a:55:fb:7c:45:de:
                    aa:ea:b1:ff:08:23:3f:0c:e0:eb:a6:7f:6f:1c:30:
                    0f:a1:d8:79:de:c4:5c:30:bd:cd:83:db:4c:54:75:
                    4f:24:74:34:85:d7:81:6e:58:11:dc:82:22:4d:3a:
                    25:33:21:6f:13:4b:ef:a4:8f:80:1a:17:df:7a:cb:
                    bd:8b:a2:fd:b4:93:2b:91:43:a9:86:d0:2c:55:8b:
                    6c:80:7d:87:37:cf:30:09:9c:56:f7:52:8a:c1:05:
                    e2:f7:93:fe:4f:06:41:b0:03:ca:1d:0d:46:78:42:
                    8c:9d:3e:50:ee:9d:8c:b7:f8:72:62:81:63:4b:4d:
                    f3:c0:88:cb:80:6a:bb:22:e0:a8:ff:03:c1:1f:c6:
                    98:3f
                Exponent: 65537 (0x10001)
        X509v3 extensions:
            X509v3 Basic Constraints: 
                CA:FALSE
            X509v3 Subject Key Identifier: 
                E9:CA:EA:A8:87:F1:E8:4A:75:59:3D:5F:F6:6A:F5:73:06:B5:CF:F0
            X509v3 Authority Key Identifier: 
                keyid:17:A7:D1:45:FE:02:3A:95:BC:72:BC:9E:51:73:53:28:C9:EB:39:12
                DirName:/CN=team135-net
                serial:30:97:7A:4E:FD:54:E8:42:67:DF:B6:77:89:6B:A7:DF:C3:1C:BE:85
            X509v3 Extended Key Usage: 
                TLS Web Client Authentication
            X509v3 Key Usage: 
                Digital Signature
    Signature Algorithm: sha256WithRSAEncryption
    Signature Value:
        01:78:0a:56:25:8d:75:7f:e5:ec:71:a3:db:48:f1:30:bb:07:
        2b:9e:f3:e2:11:38:cd:6f:33:4d:c9:9a:3c:85:48:5a:5e:35:
        32:81:c7:78:a7:f6:48:94:97:a7:04:28:f7:96:5b:fc:81:cc:
        93:b3:14:03:48:11:f5:a2:35:c1:02:f6:85:66:82:f5:a0:38:
        43:76:1a:ca:ae:18:45:af:88:5c:55:06:fe:fc:91:11:2a:f7:
        93:b6:33:a6:ce:34:69:48:3b:2e:f6:6f:04:92:f7:9a:78:3c:
        c1:1b:4b:30:fe:d6:e9:5b:3a:da:a0:12:88:0f:04:d0:87:8f:
        36:8f:d9:54:85:ac:b8:86:35:d9:70:6b:4d:83:0d:84:c3:48:
        4d:40:f5:72:a9:1a:78:9d:e7:dc:53:28:c6:8f:13:d5:be:0d:
        9f:a2:ce:3e:68:44:6c:06:d3:26:ba:da:8e:b6:21:4a:e8:05:
        1a:1d:6e:5d:b8:af:c4:c9:92:fb:8f:31:78:5b:f4:25:27:76:
        cc:93:2b:03:0b:4e:87:4d:bf:9d:20:a3:af:70:23:fa:c7:22:
        9d:2f:f9:8d:c7:db:7b:da:c2:22:1e:b9:a2:e5:e4:14:18:82:
        df:f2:a8:8c:0f:67:ec:51:47:29:51:83:01:a8:95:44:ed:1b:
        3a:40:e7:1c
-----BEGIN CERTIFICATE-----
MIIDXDCCAkSgAwIBAgIQdLI2TpqNeVTEk8SLtB0kjDANBgkqhkiG9w0BAQsFADAW
MRQwEgYDVQQDDAt0ZWFtMTM1LW5ldDAeFw0yMzExMDQxMDQzMDFaFw0yNjEwMTkx
MDQzMDFaMBkxFzAVBgNVBAMMDnRlYW0xMzUtY2xpZW50MIIBIjANBgkqhkiG9w0B
AQEFAAOCAQ8AMIIBCgKCAQEAze8hwwclHNC0LDMng9RweYcNMMUdf4Ob+W4u+YhT
JYJdJMD7cPPhA9ftB970DndqnqA9zvYMS6JMV7YkJySd7CSDvPyifEyh/vMo+s01
9euhOo/4+0IyVROTBEQUQq3RtANoAdL5UyAAYk9zBc9ElEOKVft8Rd6q6rH/CCM/
DODrpn9vHDAPodh53sRcML3Ng9tMVHVPJHQ0hdeBblgR3IIiTTolMyFvE0vvpI+A
Ghffesu9i6L9tJMrkUOphtAsVYtsgH2HN88wCZxW91KKwQXi95P+TwZBsAPKHQ1G
eEKMnT5Q7p2Mt/hyYoFjS03zwIjLgGq7IuCo/wPBH8aYPwIDAQABo4GiMIGfMAkG
A1UdEwQCMAAwHQYDVR0OBBYEFOnK6qiH8ehKdVk9X/Zq9XMGtc/wMFEGA1UdIwRK
MEiAFBen0UX+AjqVvHK8nlFzUyjJ6zkSoRqkGDAWMRQwEgYDVQQDDAt0ZWFtMTM1
LW5ldIIUMJd6Tv1U6EJn37Z3iWun38McvoUwEwYDVR0lBAwwCgYIKwYBBQUHAwIw
CwYDVR0PBAQDAgeAMA0GCSqGSIb3DQEBCwUAA4IBAQABeApWJY11f+XscaPbSPEw
uwcrnvPiETjNbzNNyZo8hUhaXjUygcd4p/ZIlJenBCj3llv8gcyTsxQDSBH1ojXB
AvaFZoL1oDhDdhrKrhhFr4hcVQb+/JERKveTtjOmzjRpSDsu9m8EkveaeDzBG0sw
/tbpWzraoBKIDwTQh482j9lUhay4hjXZcGtNgw2Ew0hNQPVyqRp4nefcUyjGjxPV
vg2fos4+aERsBtMmutqOtiFK6AUaHW5duK/EyZL7jzF4W/QlJ3bMkysDC06HTb+d
IKOvcCP6xyKdL/mNx9t72sIiHrmi5eQUGILf8qiMD2fsUUcpUYMBqJVE7Rs6QOcc
-----END CERTIFICATE-----
