Certificate:
    Data:
        Version: 3 (0x2)
        Serial Number:
            d8:91:24:c2:a0:e3:a1:d1:cd:bc:5a:27:f9:cf:18:a5
        Signature Algorithm: sha256WithRSAEncryption
        Issuer: CN=team135-net
        Validity
            Not Before: Nov  3 20:41:37 2023 GMT
            Not After : Oct 18 20:41:37 2026 GMT
        Subject: CN=team135-client
        Subject Public Key Info:
            Public Key Algorithm: rsaEncryption
                Public-Key: (2048 bit)
                Modulus:
                    00:bf:1b:06:b2:46:25:aa:c0:6c:17:c5:1d:c2:88:
                    3e:07:fd:f8:13:f9:c4:4b:46:f2:23:02:f1:44:ce:
                    bc:3c:41:d6:9d:1e:32:d4:f8:28:64:40:aa:a7:a1:
                    99:0d:78:84:50:4d:60:e1:dd:7c:d8:da:af:8a:c9:
                    1d:53:2f:7b:10:8f:76:37:dc:ab:11:d1:ed:5c:49:
                    37:77:16:95:26:c4:84:ec:7f:3b:db:3a:02:ce:4d:
                    df:f6:05:09:52:be:dc:5a:1f:d1:57:f9:43:f0:a6:
                    5a:43:fd:d9:85:38:b4:9c:5a:ce:a5:5a:5b:67:96:
                    1b:b8:4f:d0:5c:c8:5b:16:7f:eb:76:a9:0c:dc:b2:
                    84:1a:d4:31:32:5f:0a:78:29:0f:f8:7f:e9:ba:4d:
                    24:ae:a5:e1:c6:27:1a:df:4b:f9:63:55:f4:6e:1a:
                    88:28:13:ce:1b:1f:d1:9a:58:43:d8:7e:5e:96:d4:
                    ae:95:69:de:10:6f:39:18:90:0d:83:f2:6d:69:21:
                    b2:72:6a:ca:61:fd:75:56:c0:af:6a:8b:46:b7:1c:
                    e4:33:fc:bb:9b:dc:9c:09:a9:a1:cb:67:54:33:43:
                    cd:de:76:1f:b4:05:8c:c6:3d:16:ad:3f:4b:25:dc:
                    c2:27:44:fd:7b:59:10:b5:ac:6c:8a:05:ae:2b:f4:
                    70:71
                Exponent: 65537 (0x10001)
        X509v3 extensions:
            X509v3 Basic Constraints: 
                CA:FALSE
            X509v3 Subject Key Identifier: 
                79:CA:39:14:6E:E3:90:86:1C:0C:46:65:07:A3:4B:E0:E0:52:77:E7
            X509v3 Authority Key Identifier: 
                keyid:A8:15:F9:16:95:A2:C2:4A:B5:C3:95:23:6B:EE:08:7F:3D:78:4C:0F
                DirName:/CN=team135-net
                serial:6E:58:BD:36:7C:F5:49:0E:57:D1:A3:69:A9:36:53:02:CC:A5:1E:61
            X509v3 Extended Key Usage: 
                TLS Web Client Authentication
            X509v3 Key Usage: 
                Digital Signature
    Signature Algorithm: sha256WithRSAEncryption
    Signature Value:
        05:60:f7:7a:bc:2a:e4:6e:f2:b4:12:cc:9c:c7:bb:0e:23:76:
        95:17:2e:0d:a3:a3:2c:c2:84:1d:9e:38:b9:68:15:4c:5e:bc:
        4e:84:2a:e7:39:f9:f1:13:29:25:6e:6b:bb:1d:f8:ed:f9:fb:
        ab:75:25:df:18:49:bc:87:b9:2a:a1:2b:e1:44:b9:8d:2b:4d:
        1f:98:7a:03:67:7a:a0:52:55:2a:4d:4e:e6:fa:a6:fc:2d:4d:
        cb:c3:73:ae:ce:ea:d6:ca:2f:e6:00:7d:0d:6d:c7:e0:52:0f:
        3f:58:e1:77:7b:bb:b8:06:c5:50:f0:db:98:37:9c:72:35:f2:
        d2:b1:9b:30:14:29:e4:1a:31:c3:7e:2c:fb:cf:91:2d:3f:90:
        50:c4:f1:3d:9d:f4:18:e2:a8:b6:0f:f9:59:3e:92:ff:dc:13:
        28:fe:c8:05:df:7e:21:de:a4:24:3b:7a:9e:85:65:28:d2:c4:
        f0:95:ac:3e:a0:54:6c:de:7e:b9:1d:af:a5:79:03:5d:7c:01:
        e3:26:23:aa:5b:d9:01:e1:9e:be:a8:d0:44:ef:f9:3d:d8:ed:
        ba:6d:4b:de:5f:ef:e2:28:4b:4a:f6:15:a8:69:ab:a0:4d:ce:
        78:6a:22:6b:4f:8f:a2:b9:27:9f:16:1d:78:ad:e3:96:96:67:
        5b:e5:64:b1
-----BEGIN CERTIFICATE-----
MIIDXTCCAkWgAwIBAgIRANiRJMKg46HRzbxaJ/nPGKUwDQYJKoZIhvcNAQELBQAw
FjEUMBIGA1UEAwwLdGVhbTEzNS1uZXQwHhcNMjMxMTAzMjA0MTM3WhcNMjYxMDE4
MjA0MTM3WjAZMRcwFQYDVQQDDA50ZWFtMTM1LWNsaWVudDCCASIwDQYJKoZIhvcN
AQEBBQADggEPADCCAQoCggEBAL8bBrJGJarAbBfFHcKIPgf9+BP5xEtG8iMC8UTO
vDxB1p0eMtT4KGRAqqehmQ14hFBNYOHdfNjar4rJHVMvexCPdjfcqxHR7VxJN3cW
lSbEhOx/O9s6As5N3/YFCVK+3Fof0Vf5Q/CmWkP92YU4tJxazqVaW2eWG7hP0FzI
WxZ/63apDNyyhBrUMTJfCngpD/h/6bpNJK6l4cYnGt9L+WNV9G4aiCgTzhsf0ZpY
Q9h+XpbUrpVp3hBvORiQDYPybWkhsnJqymH9dVbAr2qLRrcc5DP8u5vcnAmpoctn
VDNDzd52H7QFjMY9Fq0/SyXcwidE/XtZELWsbIoFriv0cHECAwEAAaOBojCBnzAJ
BgNVHRMEAjAAMB0GA1UdDgQWBBR5yjkUbuOQhhwMRmUHo0vg4FJ35zBRBgNVHSME
SjBIgBSoFfkWlaLCSrXDlSNr7gh/PXhMD6EapBgwFjEUMBIGA1UEAwwLdGVhbTEz
NS1uZXSCFG5YvTZ89UkOV9Gjaak2UwLMpR5hMBMGA1UdJQQMMAoGCCsGAQUFBwMC
MAsGA1UdDwQEAwIHgDANBgkqhkiG9w0BAQsFAAOCAQEABWD3erwq5G7ytBLMnMe7
DiN2lRcuDaOjLMKEHZ44uWgVTF68ToQq5zn58RMpJW5rux347fn7q3Ul3xhJvIe5
KqEr4US5jStNH5h6A2d6oFJVKk1O5vqm/C1Ny8Nzrs7q1sov5gB9DW3H4FIPP1jh
d3u7uAbFUPDbmDeccjXy0rGbMBQp5Boxw34s+8+RLT+QUMTxPZ30GOKotg/5WT6S
/9wTKP7IBd9+Id6kJDt6noVlKNLE8JWsPqBUbN5+uR2vpXkDXXwB4yYjqlvZAeGe
vqjQRO/5Pdjtum1L3l/v4ihLSvYVqGmroE3OeGoia0+PorknnxYdeK3jlpZnW+Vk
sQ==
-----END CERTIFICATE-----
