Certificate:
    Data:
        Version: 3 (0x2)
        Serial Number:
            0a:1e:4a:9d:f9:24:7c:8a:cd:b4:25:db:01:ed:b0:1e
        Signature Algorithm: sha256WithRSAEncryption
        Issuer: CN=team50-net
        Validity
            Not Before: Nov  3 20:40:07 2023 GMT
            Not After : Oct 18 20:40:07 2026 GMT
        Subject: CN=team50-server
        Subject Public Key Info:
            Public Key Algorithm: rsaEncryption
                Public-Key: (2048 bit)
                Modulus:
                    00:c0:28:09:69:3d:f7:f7:42:b1:b2:e3:87:e1:62:
                    aa:93:5c:9b:7e:55:3d:3b:8e:76:b4:6a:8d:53:2d:
                    0c:cb:17:9a:14:8d:5c:9b:cb:ea:ed:a2:d3:05:51:
                    75:03:16:ce:bc:77:0c:d4:68:1e:0b:6a:95:4b:27:
                    93:7b:97:79:7f:3b:3e:65:d6:4f:99:c4:a0:8d:56:
                    f1:aa:16:c1:2a:32:37:d0:81:7a:98:cd:5b:9c:fa:
                    e0:25:6b:af:90:23:5a:bd:bf:98:4d:65:41:69:37:
                    ef:87:b7:85:ad:e1:90:40:8e:80:45:d2:58:b9:e9:
                    5e:8c:6b:9d:d4:10:d0:4e:6f:8c:1b:ad:3d:2b:db:
                    69:11:a5:9b:12:66:15:fe:af:9c:ed:c0:be:b8:2b:
                    39:f2:c9:56:d9:3f:a5:f7:69:d3:6a:f3:91:1b:b0:
                    ae:4e:02:37:4e:3f:fa:61:f5:ae:0a:6c:1f:08:b7:
                    01:a6:a5:26:58:aa:2b:47:c0:4a:a8:f9:61:66:73:
                    7f:e3:be:f3:6e:73:36:1b:c7:bd:11:cb:60:2b:31:
                    0e:94:71:21:18:2f:a8:53:44:0a:9e:ef:0f:fc:54:
                    e6:19:af:a0:d9:79:11:f2:df:29:9b:49:5d:21:6a:
                    2e:cd:84:db:eb:69:7b:a5:00:2d:be:f5:6c:cc:39:
                    d9:d3
                Exponent: 65537 (0x10001)
        X509v3 extensions:
            X509v3 Basic Constraints: 
                CA:FALSE
            X509v3 Subject Key Identifier: 
                D6:71:28:42:14:C0:72:63:42:B6:BD:A8:4D:A0:EE:C8:71:77:07:B3
            X509v3 Authority Key Identifier: 
                keyid:F6:93:38:83:8A:D2:0D:F6:EB:10:D4:66:96:19:9C:72:89:6B:21:B6
                DirName:/CN=team50-net
                serial:73:38:3B:AA:2A:39:70:A7:D8:B9:95:6E:78:3D:D6:66:B1:C0:4B:2C
            X509v3 Extended Key Usage: 
                TLS Web Server Authentication
            X509v3 Key Usage: 
                Digital Signature, Key Encipherment
            X509v3 Subject Alternative Name: 
                DNS:team50-server
    Signature Algorithm: sha256WithRSAEncryption
    Signature Value:
        9d:43:b8:96:83:8d:3f:b8:a6:66:a0:c4:88:b7:3f:6f:c4:05:
        21:62:a1:28:96:ab:18:a0:99:0d:91:2d:d6:05:0f:29:73:54:
        cd:0c:33:72:bf:f8:aa:0e:c2:4d:b6:6f:e1:99:e7:fc:f2:21:
        fa:ac:f4:fe:24:18:bc:44:bb:7d:3a:5a:dd:47:46:7a:ee:a4:
        d6:52:98:1f:2c:75:b3:77:78:ec:54:38:88:ea:27:68:40:9b:
        10:cc:9f:af:7a:b7:b3:0e:d1:dc:e3:1a:5a:70:4a:71:c9:46:
        3f:f2:d3:7b:2a:4e:37:8d:f4:3c:d4:01:3c:f4:82:93:57:14:
        9d:e6:c9:4b:65:24:dc:83:80:b5:a2:05:27:11:3b:03:e5:40:
        6a:a6:ef:ad:af:00:21:3a:1c:a2:8a:8b:ed:e0:ca:64:dd:be:
        ce:b4:5f:f5:6f:b2:cd:3c:06:45:f8:c8:71:e0:ef:19:7c:56:
        4a:66:85:f1:cc:65:22:81:fb:42:07:c0:be:92:d2:1b:de:a1:
        e5:df:27:f6:83:cd:2c:44:f4:65:57:8d:45:d4:c9:c8:ed:33:
        f0:bf:cd:19:f2:a3:e5:47:3a:5f:b7:68:b9:47:34:2e:1b:3c:
        ef:1a:58:5a:9f:91:f6:fa:31:bb:1a:a0:40:b2:e8:cd:85:95:
        7e:f5:04:dd
-----BEGIN CERTIFICATE-----
MIIDczCCAlugAwIBAgIQCh5KnfkkfIrNtCXbAe2wHjANBgkqhkiG9w0BAQsFADAV
MRMwEQYDVQQDDAp0ZWFtNTAtbmV0MB4XDTIzMTEwMzIwNDAwN1oXDTI2MTAxODIw
NDAwN1owGDEWMBQGA1UEAwwNdGVhbTUwLXNlcnZlcjCCASIwDQYJKoZIhvcNAQEB
BQADggEPADCCAQoCggEBAMAoCWk99/dCsbLjh+FiqpNcm35VPTuOdrRqjVMtDMsX
mhSNXJvL6u2i0wVRdQMWzrx3DNRoHgtqlUsnk3uXeX87PmXWT5nEoI1W8aoWwSoy
N9CBepjNW5z64CVrr5AjWr2/mE1lQWk374e3ha3hkECOgEXSWLnpXoxrndQQ0E5v
jButPSvbaRGlmxJmFf6vnO3AvrgrOfLJVtk/pfdp02rzkRuwrk4CN04/+mH1rgps
Hwi3AaalJliqK0fASqj5YWZzf+O+825zNhvHvRHLYCsxDpRxIRgvqFNECp7vD/xU
5hmvoNl5EfLfKZtJXSFqLs2E2+tpe6UALb71bMw52dMCAwEAAaOBuzCBuDAJBgNV
HRMEAjAAMB0GA1UdDgQWBBTWcShCFMByY0K2vahNoO7IcXcHszBQBgNVHSMESTBH
gBT2kziDitIN9usQ1GaWGZxyiWshtqEZpBcwFTETMBEGA1UEAwwKdGVhbTUwLW5l
dIIUczg7qio5cKfYuZVueD3WZrHASywwEwYDVR0lBAwwCgYIKwYBBQUHAwEwCwYD
VR0PBAQDAgWgMBgGA1UdEQQRMA+CDXRlYW01MC1zZXJ2ZXIwDQYJKoZIhvcNAQEL
BQADggEBAJ1DuJaDjT+4pmagxIi3P2/EBSFioSiWqxigmQ2RLdYFDylzVM0MM3K/
+KoOwk22b+GZ5/zyIfqs9P4kGLxEu306Wt1HRnrupNZSmB8sdbN3eOxUOIjqJ2hA
mxDMn696t7MO0dzjGlpwSnHJRj/y03sqTjeN9DzUATz0gpNXFJ3myUtlJNyDgLWi
BScROwPlQGqm762vACE6HKKKi+3gymTdvs60X/Vvss08BkX4yHHg7xl8VkpmhfHM
ZSKB+0IHwL6S0hveoeXfJ/aDzSxE9GVXjUXUycjtM/C/zRnyo+VHOl+3aLlHNC4b
PO8aWFqfkfb6MbsaoECy6M2FlX71BN0=
-----END CERTIFICATE-----
