Certificate:
    Data:
        Version: 3 (0x2)
        Serial Number:
            26:7a:c7:f1:6f:ca:4a:83:5a:f1:37:06:c6:c6:83:46
        Signature Algorithm: sha256WithRSAEncryption
        Issuer: CN=team473-net
        Validity
            Not Before: Nov  4 10:48:59 2023 GMT
            Not After : Oct 19 10:48:59 2026 GMT
        Subject: CN=team473-server
        Subject Public Key Info:
            Public Key Algorithm: rsaEncryption
                Public-Key: (2048 bit)
                Modulus:
                    00:e0:46:91:6d:d5:d0:b2:a5:ed:ff:29:71:9f:de:
                    1c:ec:74:d4:5a:43:5b:58:af:b7:91:9d:37:58:69:
                    51:86:2f:e4:fb:42:62:1a:57:04:93:f9:e4:a5:4e:
                    ce:d5:6f:5c:5d:ee:8b:2c:e3:13:fe:8f:ed:61:d7:
                    bd:23:d8:55:7d:a4:a3:2e:be:d9:75:02:15:1b:73:
                    3f:ce:c7:61:ff:15:7e:29:f4:b1:f9:1c:a5:b9:14:
                    a0:e2:ec:fa:05:f3:11:2b:ba:9e:ee:b8:2b:df:74:
                    fb:11:42:ab:3c:5d:d0:43:89:b3:82:a6:27:33:f6:
                    81:b5:e3:fa:3e:ee:e3:33:fb:e7:16:87:ff:78:3e:
                    9d:2e:11:28:83:73:3f:91:c1:e4:ed:76:4f:59:c2:
                    57:78:1d:8d:9a:d1:f7:1c:b4:b1:bc:fb:96:9b:c7:
                    22:01:9c:cc:73:13:e3:b7:47:9a:44:df:4b:07:85:
                    dd:34:03:69:9c:db:c6:97:84:ad:24:00:19:7c:7b:
                    cb:19:b8:42:d8:0c:e7:11:89:22:c5:9d:3c:a3:ac:
                    1b:9f:8d:68:32:07:e2:c3:19:16:75:6e:66:14:31:
                    b3:a5:8b:63:da:ce:c6:09:a4:5f:21:21:82:43:ee:
                    1d:eb:04:56:a7:f6:83:55:e2:76:d0:e9:38:a8:00:
                    fd:61
                Exponent: 65537 (0x10001)
        X509v3 extensions:
            X509v3 Basic Constraints: 
                CA:FALSE
            X509v3 Subject Key Identifier: 
                B8:16:06:8D:45:C7:34:BE:A4:3C:9F:F6:A6:33:74:4A:A0:5E:06:3A
            X509v3 Authority Key Identifier: 
                keyid:1C:71:1F:00:AF:C1:61:20:DF:04:61:03:03:78:D9:8A:77:62:82:67
                DirName:/CN=team473-net
                serial:4E:D4:F8:3D:A3:3A:12:EB:BF:A4:C4:66:D6:1D:A2:3F:96:28:49:4F
            X509v3 Extended Key Usage: 
                TLS Web Server Authentication
            X509v3 Key Usage: 
                Digital Signature, Key Encipherment
            X509v3 Subject Alternative Name: 
                DNS:team473-server
    Signature Algorithm: sha256WithRSAEncryption
    Signature Value:
        5e:b7:11:5f:21:90:9e:36:ed:46:44:09:47:98:68:db:c1:82:
        2f:a7:a0:ee:2d:16:b8:ad:8e:f2:1b:5f:84:73:6e:d0:ba:96:
        a5:03:7a:41:26:5b:3b:0c:89:99:42:68:ef:a4:09:56:cd:ea:
        db:56:7c:d9:78:e1:db:d7:0e:bd:06:15:80:6b:e0:8d:0c:9d:
        13:c3:75:bc:6f:aa:f6:18:5f:18:e4:b8:4f:66:31:5b:60:79:
        92:96:25:cd:25:8c:e9:b2:3a:af:c7:14:63:2c:1b:06:b8:33:
        ec:9e:15:54:3d:38:4e:16:fc:2c:80:e8:13:5b:f5:b4:80:94:
        4b:5a:8c:b7:dc:d8:37:b8:f8:31:91:71:c7:1a:e7:30:06:5e:
        7f:6a:c8:67:a1:52:4f:19:7e:29:83:a9:43:05:d4:1e:24:62:
        f4:c8:f6:e1:43:5d:af:f7:05:44:56:75:2c:6f:05:12:ef:cc:
        48:04:61:88:dc:b1:e7:ee:92:8e:ec:3c:a1:1f:ff:a3:a1:27:
        99:d1:7e:31:a6:2f:94:fa:f3:99:5c:a6:c5:a7:81:e9:82:1a:
        32:ad:03:4e:64:a1:ab:7b:4c:26:87:a3:e7:c8:08:b5:8c:25:
        ad:84:41:13:39:f8:72:e0:7d:66:6d:9e:cd:62:9a:6e:37:4d:
        45:09:0c:6e
-----BEGIN CERTIFICATE-----
MIIDdzCCAl+gAwIBAgIQJnrH8W/KSoNa8TcGxsaDRjANBgkqhkiG9w0BAQsFADAW
MRQwEgYDVQQDDAt0ZWFtNDczLW5ldDAeFw0yMzExMDQxMDQ4NTlaFw0yNjEwMTkx
MDQ4NTlaMBkxFzAVBgNVBAMMDnRlYW00NzMtc2VydmVyMIIBIjANBgkqhkiG9w0B
AQEFAAOCAQ8AMIIBCgKCAQEA4EaRbdXQsqXt/ylxn94c7HTUWkNbWK+3kZ03WGlR
hi/k+0JiGlcEk/nkpU7O1W9cXe6LLOMT/o/tYde9I9hVfaSjLr7ZdQIVG3M/zsdh
/xV+KfSx+RyluRSg4uz6BfMRK7qe7rgr33T7EUKrPF3QQ4mzgqYnM/aBteP6Pu7j
M/vnFof/eD6dLhEog3M/kcHk7XZPWcJXeB2NmtH3HLSxvPuWm8ciAZzMcxPjt0ea
RN9LB4XdNANpnNvGl4StJAAZfHvLGbhC2AznEYkixZ08o6wbn41oMgfiwxkWdW5m
FDGzpYtj2s7GCaRfISGCQ+4d6wRWp/aDVeJ20Ok4qAD9YQIDAQABo4G9MIG6MAkG
A1UdEwQCMAAwHQYDVR0OBBYEFLgWBo1FxzS+pDyf9qYzdEqgXgY6MFEGA1UdIwRK
MEiAFBxxHwCvwWEg3wRhAwN42Yp3YoJnoRqkGDAWMRQwEgYDVQQDDAt0ZWFtNDcz
LW5ldIIUTtT4PaM6Euu/pMRm1h2iP5YoSU8wEwYDVR0lBAwwCgYIKwYBBQUHAwEw
CwYDVR0PBAQDAgWgMBkGA1UdEQQSMBCCDnRlYW00NzMtc2VydmVyMA0GCSqGSIb3
DQEBCwUAA4IBAQBetxFfIZCeNu1GRAlHmGjbwYIvp6DuLRa4rY7yG1+Ec27Qupal
A3pBJls7DImZQmjvpAlWzerbVnzZeOHb1w69BhWAa+CNDJ0Tw3W8b6r2GF8Y5LhP
ZjFbYHmSliXNJYzpsjqvxxRjLBsGuDPsnhVUPThOFvwsgOgTW/W0gJRLWoy33Ng3
uPgxkXHHGucwBl5/ashnoVJPGX4pg6lDBdQeJGL0yPbhQ12v9wVEVnUsbwUS78xI
BGGI3LHn7pKO7DyhH/+joSeZ0X4xpi+U+vOZXKbFp4HpghoyrQNOZKGre0wmh6Pn
yAi1jCWthEETOfhy4H1mbZ7NYppuN01FCQxu
-----END CERTIFICATE-----
