Certificate:
    Data:
        Version: 3 (0x2)
        Serial Number:
            61:62:5a:0c:c6:4f:70:3f:32:23:bb:54:5c:7c:5c:83
        Signature Algorithm: sha256WithRSAEncryption
        Issuer: CN=team473-net
        Validity
            Not Before: Nov  4 10:48:59 2023 GMT
            Not After : Oct 19 10:48:59 2026 GMT
        Subject: CN=team473-client
        Subject Public Key Info:
            Public Key Algorithm: rsaEncryption
                Public-Key: (2048 bit)
                Modulus:
                    00:df:b0:e1:55:8b:a8:b2:94:5e:e6:83:db:60:d5:
                    27:53:9e:b1:ec:6c:d8:c7:04:13:5b:87:2b:1c:18:
                    0e:9a:5d:d8:a6:aa:19:91:71:43:bc:25:21:e1:34:
                    9e:16:7c:11:29:01:b1:b5:6c:8b:be:a8:ac:e0:75:
                    60:2c:64:9f:8d:41:ed:bd:3e:49:69:ba:8c:a3:45:
                    04:cb:c5:2d:13:d8:70:f0:9c:16:58:6f:cc:60:7d:
                    5f:bd:21:14:94:5e:86:d5:a3:f7:0d:37:c6:9d:ef:
                    13:37:d9:9e:78:fa:4d:66:be:54:c9:23:9e:f7:a7:
                    74:44:68:f0:69:e5:eb:2f:52:99:21:fd:62:c1:98:
                    cb:33:ff:aa:ae:8e:ff:b0:ce:62:18:94:f7:25:e6:
                    89:83:4e:fa:7b:bd:c7:5d:12:ed:b4:ba:a8:ca:17:
                    94:e8:5a:93:bc:57:85:eb:92:89:86:33:64:3a:30:
                    10:63:bc:11:e6:dc:bd:56:fd:79:ca:f6:8a:07:f8:
                    8e:2e:c4:90:0e:fd:c7:60:12:4a:b0:bc:bf:cc:18:
                    73:b6:13:2f:29:73:9f:09:ab:18:86:6d:1a:7e:d1:
                    34:10:95:5e:39:12:6d:b6:17:0f:51:e6:e6:ee:c7:
                    9b:af:66:3d:8a:fb:f6:02:ca:4b:ee:71:73:ae:7d:
                    82:bd
                Exponent: 65537 (0x10001)
        X509v3 extensions:
            X509v3 Basic Constraints: 
                CA:FALSE
            X509v3 Subject Key Identifier: 
                11:40:4D:50:C6:D5:34:97:B4:85:91:51:9C:CD:CD:E5:12:3E:77:4D
            X509v3 Authority Key Identifier: 
                keyid:1C:71:1F:00:AF:C1:61:20:DF:04:61:03:03:78:D9:8A:77:62:82:67
                DirName:/CN=team473-net
                serial:4E:D4:F8:3D:A3:3A:12:EB:BF:A4:C4:66:D6:1D:A2:3F:96:28:49:4F
            X509v3 Extended Key Usage: 
                TLS Web Client Authentication
            X509v3 Key Usage: 
                Digital Signature
    Signature Algorithm: sha256WithRSAEncryption
    Signature Value:
        a7:20:00:72:c6:52:04:36:b8:8f:72:17:32:fb:cc:01:58:ba:
        b8:56:4d:43:97:be:aa:0a:9e:64:38:fd:a4:40:a4:cc:9b:b7:
        88:c3:de:d2:f7:5c:be:1b:bc:ee:12:ff:aa:35:0a:6e:6e:ca:
        4e:60:65:7b:37:39:16:e1:27:0a:cb:04:dd:5b:0c:51:35:68:
        b9:76:21:94:5b:7c:09:ba:9e:0f:4d:2f:48:9a:2a:f8:bd:41:
        8a:7d:07:03:19:d6:d1:3b:4c:b7:5d:a2:e8:35:61:cf:33:b6:
        c1:60:d2:0d:d5:b6:b3:2a:47:02:ca:27:08:68:32:b1:b7:94:
        85:74:e2:04:9b:c8:a7:a4:3a:6d:63:34:9c:fc:a4:dc:72:f9:
        29:7d:56:80:ad:c4:15:5b:71:d3:2a:71:88:d4:01:ce:8e:97:
        9d:38:d2:3e:a2:f1:70:e0:2c:69:c1:64:90:7c:bb:bb:fe:61:
        6f:16:74:7a:07:86:75:c7:4c:ee:d0:65:9d:29:52:25:af:df:
        53:1e:d5:77:ae:b4:90:1e:a4:35:69:11:7e:88:02:d1:eb:41:
        1d:b5:11:9f:5a:ae:24:b0:bf:af:99:e6:92:f3:70:a7:43:74:
        cc:8c:bb:20:cb:df:1d:1d:3b:16:a1:a3:c8:25:11:b9:2f:2e:
        17:ed:78:27
-----BEGIN CERTIFICATE-----
MIIDXDCCAkSgAwIBAgIQYWJaDMZPcD8yI7tUXHxcgzANBgkqhkiG9w0BAQsFADAW
MRQwEgYDVQQDDAt0ZWFtNDczLW5ldDAeFw0yMzExMDQxMDQ4NTlaFw0yNjEwMTkx
MDQ4NTlaMBkxFzAVBgNVBAMMDnRlYW00NzMtY2xpZW50MIIBIjANBgkqhkiG9w0B
AQEFAAOCAQ8AMIIBCgKCAQEA37DhVYuospRe5oPbYNUnU56x7GzYxwQTW4crHBgO
ml3YpqoZkXFDvCUh4TSeFnwRKQGxtWyLvqis4HVgLGSfjUHtvT5JabqMo0UEy8Ut
E9hw8JwWWG/MYH1fvSEUlF6G1aP3DTfGne8TN9meePpNZr5UySOe96d0RGjwaeXr
L1KZIf1iwZjLM/+qro7/sM5iGJT3JeaJg076e73HXRLttLqoyheU6FqTvFeF65KJ
hjNkOjAQY7wR5ty9Vv15yvaKB/iOLsSQDv3HYBJKsLy/zBhzthMvKXOfCasYhm0a
ftE0EJVeORJtthcPUebm7sebr2Y9ivv2AspL7nFzrn2CvQIDAQABo4GiMIGfMAkG
A1UdEwQCMAAwHQYDVR0OBBYEFBFATVDG1TSXtIWRUZzNzeUSPndNMFEGA1UdIwRK
MEiAFBxxHwCvwWEg3wRhAwN42Yp3YoJnoRqkGDAWMRQwEgYDVQQDDAt0ZWFtNDcz
LW5ldIIUTtT4PaM6Euu/pMRm1h2iP5YoSU8wEwYDVR0lBAwwCgYIKwYBBQUHAwIw
CwYDVR0PBAQDAgeAMA0GCSqGSIb3DQEBCwUAA4IBAQCnIAByxlIENriPchcy+8wB
WLq4Vk1Dl76qCp5kOP2kQKTMm7eIw97S91y+G7zuEv+qNQpubspOYGV7NzkW4ScK
ywTdWwxRNWi5diGUW3wJup4PTS9Imir4vUGKfQcDGdbRO0y3XaLoNWHPM7bBYNIN
1bazKkcCyicIaDKxt5SFdOIEm8inpDptYzSc/KTccvkpfVaArcQVW3HTKnGI1AHO
jpedONI+ovFw4CxpwWSQfLu7/mFvFnR6B4Z1x0zu0GWdKVIlr99THtV3rrSQHqQ1
aRF+iALR60EdtRGfWq4ksL+vmeaS83CnQ3TMjLsgy98dHTsWoaPIJRG5Ly4X7Xgn
-----END CERTIFICATE-----
