Certificate:
    Data:
        Version: 3 (0x2)
        Serial Number:
            77:a9:16:5d:42:9f:77:d7:08:e0:a3:26:d0:21:a6:5d
        Signature Algorithm: sha256WithRSAEncryption
        Issuer: CN=team473-net
        Validity
            Not Before: Nov  3 20:47:53 2023 GMT
            Not After : Oct 18 20:47:53 2026 GMT
        Subject: CN=team473-server
        Subject Public Key Info:
            Public Key Algorithm: rsaEncryption
                Public-Key: (2048 bit)
                Modulus:
                    00:94:79:0e:86:e4:0d:7d:43:8a:9a:c1:0f:78:2b:
                    41:66:03:01:d7:2e:ca:c1:36:1a:6f:36:07:bd:7c:
                    85:b9:38:f6:e4:ef:8b:4a:e1:e3:5d:dc:fe:d3:eb:
                    bc:b5:7a:17:e2:58:c8:f0:40:c4:80:1e:25:ef:f8:
                    4f:77:5d:b1:f6:6f:8e:9e:7f:77:5b:83:7c:70:0e:
                    b4:68:7a:2f:f3:bc:4b:4a:90:a4:13:02:13:04:5d:
                    63:54:85:14:9e:4d:7f:aa:2a:a9:d9:e8:fc:b5:8c:
                    0b:50:9f:68:12:da:18:ac:4e:ab:55:a7:94:d5:68:
                    83:31:92:35:3d:ce:f2:e3:88:6d:ca:1e:f8:da:eb:
                    7e:8f:b4:55:cb:9b:9c:4f:65:38:ea:52:cd:76:7b:
                    bb:90:2c:83:17:04:c2:86:9d:75:24:7b:ca:04:70:
                    07:64:05:24:18:9b:5a:91:82:05:56:62:08:eb:02:
                    4a:70:4a:93:14:c2:58:be:c6:b6:ba:df:2c:5a:b2:
                    72:e9:dc:3c:5e:10:70:ba:ca:c5:ec:a3:4c:21:c6:
                    51:24:bc:13:35:e2:0d:6d:e6:d9:e3:4d:2f:dc:de:
                    36:a9:29:b3:3e:e7:e1:1e:71:cd:ef:f6:c6:c7:66:
                    19:04:a4:a6:5c:43:27:11:d9:f0:6a:e9:63:d9:b4:
                    5e:69
                Exponent: 65537 (0x10001)
        X509v3 extensions:
            X509v3 Basic Constraints: 
                CA:FALSE
            X509v3 Subject Key Identifier: 
                02:B1:DC:69:3D:86:EC:F9:DE:FF:91:43:C6:B0:C6:D5:09:18:68:D9
            X509v3 Authority Key Identifier: 
                keyid:04:51:7E:2E:43:82:45:37:E1:39:F8:C8:A3:F3:29:98:70:75:92:32
                DirName:/CN=team473-net
                serial:37:56:70:36:13:51:8C:AD:96:05:7B:F6:D7:2A:D2:02:C9:24:E0:B1
            X509v3 Extended Key Usage: 
                TLS Web Server Authentication
            X509v3 Key Usage: 
                Digital Signature, Key Encipherment
            X509v3 Subject Alternative Name: 
                DNS:team473-server
    Signature Algorithm: sha256WithRSAEncryption
    Signature Value:
        64:d4:8b:fc:61:62:2c:b5:7b:cf:ad:7f:50:cc:b0:1d:69:74:
        7b:ce:6c:08:a5:17:e9:9c:06:ea:55:20:31:14:9e:fc:13:2c:
        9e:a7:d1:3b:d3:5f:7e:26:0a:b3:0d:36:70:b0:ac:4f:0f:1a:
        12:69:bb:2d:0b:bc:86:ee:28:f0:bb:30:fb:51:42:db:cf:08:
        ea:6b:a5:36:c1:0c:d6:b5:af:57:ae:3e:7c:82:9a:c1:b3:d0:
        96:0a:bf:be:1c:1d:42:a4:6b:40:cf:e6:22:fc:40:05:fa:a2:
        1c:c3:0d:49:46:4a:fd:77:86:52:c3:c3:9c:58:ac:a3:a0:36:
        9d:b7:7d:69:eb:68:85:f9:1f:2e:96:84:55:f4:73:f2:9d:cd:
        ce:5d:b2:50:52:f1:9d:4e:ff:b8:17:39:fc:03:c3:35:ed:c4:
        ff:d0:27:4c:cc:22:6a:18:c6:d8:e5:55:74:ad:6d:bd:e5:97:
        89:f4:d9:5a:3a:20:ca:b9:a5:86:ea:9b:8a:35:f1:49:c7:fd:
        4c:87:61:62:a2:f7:cc:9e:e5:0b:d4:8d:4c:fb:71:80:c5:f5:
        3f:7d:58:cd:5e:ba:a9:21:14:88:23:29:9c:f3:53:2a:4e:1b:
        6c:9e:9f:6a:f0:ce:c7:36:fe:d9:85:53:a6:9d:5a:60:62:bd:
        3a:00:eb:58
-----BEGIN CERTIFICATE-----
MIIDdzCCAl+gAwIBAgIQd6kWXUKfd9cI4KMm0CGmXTANBgkqhkiG9w0BAQsFADAW
MRQwEgYDVQQDDAt0ZWFtNDczLW5ldDAeFw0yMzExMDMyMDQ3NTNaFw0yNjEwMTgy
MDQ3NTNaMBkxFzAVBgNVBAMMDnRlYW00NzMtc2VydmVyMIIBIjANBgkqhkiG9w0B
AQEFAAOCAQ8AMIIBCgKCAQEAlHkOhuQNfUOKmsEPeCtBZgMB1y7KwTYabzYHvXyF
uTj25O+LSuHjXdz+0+u8tXoX4ljI8EDEgB4l7/hPd12x9m+Onn93W4N8cA60aHov
87xLSpCkEwITBF1jVIUUnk1/qiqp2ej8tYwLUJ9oEtoYrE6rVaeU1WiDMZI1Pc7y
44htyh742ut+j7RVy5ucT2U46lLNdnu7kCyDFwTChp11JHvKBHAHZAUkGJtakYIF
VmII6wJKcEqTFMJYvsa2ut8sWrJy6dw8XhBwusrF7KNMIcZRJLwTNeINbebZ400v
3N42qSmzPufhHnHN7/bGx2YZBKSmXEMnEdnwaulj2bReaQIDAQABo4G9MIG6MAkG
A1UdEwQCMAAwHQYDVR0OBBYEFAKx3Gk9huz53v+RQ8awxtUJGGjZMFEGA1UdIwRK
MEiAFARRfi5DgkU34Tn4yKPzKZhwdZIyoRqkGDAWMRQwEgYDVQQDDAt0ZWFtNDcz
LW5ldIIUN1ZwNhNRjK2WBXv21yrSAskk4LEwEwYDVR0lBAwwCgYIKwYBBQUHAwEw
CwYDVR0PBAQDAgWgMBkGA1UdEQQSMBCCDnRlYW00NzMtc2VydmVyMA0GCSqGSIb3
DQEBCwUAA4IBAQBk1Iv8YWIstXvPrX9QzLAdaXR7zmwIpRfpnAbqVSAxFJ78Eyye
p9E7019+JgqzDTZwsKxPDxoSabstC7yG7ijwuzD7UULbzwjqa6U2wQzWta9Xrj58
gprBs9CWCr++HB1CpGtAz+Yi/EAF+qIcww1JRkr9d4ZSw8OcWKyjoDadt31p62iF
+R8uloRV9HPync3OXbJQUvGdTv+4Fzn8A8M17cT/0CdMzCJqGMbY5VV0rW295ZeJ
9NlaOiDKuaWG6puKNfFJx/1Mh2FiovfMnuUL1I1M+3GAxfU/fVjNXrqpIRSIIymc
81MqThtsnp9q8M7HNv7ZhVOmnVpgYr06AOtY
-----END CERTIFICATE-----
