Certificate:
    Data:
        Version: 3 (0x2)
        Serial Number:
            c4:a6:0b:d5:85:f2:a5:3b:13:f4:14:ba:c9:fa:37:e2
        Signature Algorithm: sha256WithRSAEncryption
        Issuer: CN=team473-net
        Validity
            Not Before: Nov  4 11:38:14 2023 GMT
            Not After : Oct 19 11:38:14 2026 GMT
        Subject: CN=team473-server
        Subject Public Key Info:
            Public Key Algorithm: rsaEncryption
                Public-Key: (2048 bit)
                Modulus:
                    00:ae:cd:88:e2:32:3b:51:73:db:a0:c7:16:65:74:
                    39:ff:c7:e3:27:78:4a:7a:dc:ad:93:af:2d:ea:11:
                    16:44:af:06:52:e5:3d:a6:18:89:20:c1:a3:07:fc:
                    74:80:3f:92:43:80:fc:e5:84:d6:91:3e:07:4a:fa:
                    e5:2c:05:10:05:7a:78:19:97:2a:28:4e:26:2d:08:
                    d4:56:13:be:33:2b:82:1f:1a:ee:24:6f:4f:17:de:
                    3f:00:d8:72:3c:1d:18:d5:34:3f:a6:31:9f:c5:08:
                    25:f5:f7:ae:4d:f8:58:7a:ed:11:72:ba:97:da:05:
                    57:69:37:58:9a:e7:e9:ea:d8:a8:dd:b0:96:d3:4d:
                    09:2e:dd:46:17:09:ba:5c:d5:23:81:e1:41:49:33:
                    1b:81:e4:cd:45:0f:e8:da:91:43:40:55:dc:12:a7:
                    64:fa:a0:1f:24:e8:b5:9d:1d:65:b6:d0:5d:d9:87:
                    35:ba:b5:fc:72:ef:e6:e3:38:e8:2a:03:9d:8a:60:
                    b6:bc:26:21:b1:9f:97:77:28:21:38:50:7d:e9:de:
                    5e:cc:08:d0:8e:26:74:a4:41:8b:5e:1b:31:2e:5a:
                    4e:04:ca:fa:f5:12:23:e1:2b:f9:dd:7e:b2:9c:c6:
                    c4:4b:38:ee:7d:ab:33:de:eb:e7:61:59:73:60:de:
                    24:7f
                Exponent: 65537 (0x10001)
        X509v3 extensions:
            X509v3 Basic Constraints: 
                CA:FALSE
            X509v3 Subject Key Identifier: 
                BC:33:8D:52:BF:AC:97:DE:60:D0:FE:DD:49:75:DF:9F:22:5A:6B:1C
            X509v3 Authority Key Identifier: 
                keyid:32:D3:74:E4:C3:99:27:58:98:CD:86:1E:35:F2:8F:FE:C1:F3:52:85
                DirName:/CN=team473-net
                serial:26:11:18:0F:F1:6D:E0:8A:CB:F9:DD:C5:65:0C:F2:F4:7B:E4:C4:E1
            X509v3 Extended Key Usage: 
                TLS Web Server Authentication
            X509v3 Key Usage: 
                Digital Signature, Key Encipherment
            X509v3 Subject Alternative Name: 
                DNS:team473-server
    Signature Algorithm: sha256WithRSAEncryption
    Signature Value:
        05:e4:8a:7e:0c:da:04:2d:c0:a8:b4:92:44:b8:ca:8c:18:f3:
        6d:26:0c:ea:f4:be:e9:2d:a1:1e:10:f6:47:69:96:8d:02:63:
        4b:3b:e1:a3:e9:9d:cd:d7:04:39:cb:7b:02:0e:2a:08:b3:6f:
        d9:e6:05:fe:85:c4:30:4c:cb:9b:16:ba:3b:c2:88:a8:1c:14:
        32:41:a2:08:23:ca:03:12:db:ab:27:95:7e:1c:c5:35:40:8d:
        99:fd:5e:f3:c8:7c:81:13:0e:37:34:42:77:52:0b:6b:da:77:
        4a:99:a3:39:16:82:54:f2:2b:71:10:03:ee:22:1d:31:64:bb:
        d1:26:d9:8e:73:c6:cb:f4:84:f6:01:0a:a9:35:7f:4d:81:4a:
        5f:52:f9:80:b2:91:9f:05:be:e0:50:7c:25:8f:a1:8e:7e:31:
        f1:b8:31:e7:40:4f:53:c9:c5:63:17:17:cf:d4:72:a1:08:89:
        79:c0:a4:3a:68:32:a5:fc:99:50:9a:6f:b9:ef:2b:b3:6e:0b:
        d3:b2:11:b2:96:a0:17:18:de:44:0f:a1:9f:44:ff:a4:df:83:
        a4:4b:78:56:67:18:b8:ef:da:26:3d:20:6d:bc:24:55:79:d1:
        b2:46:9b:ed:7d:36:a8:2e:2a:68:07:15:9d:35:4b:01:45:1c:
        a4:7c:52:3c
-----BEGIN CERTIFICATE-----
MIIDeDCCAmCgAwIBAgIRAMSmC9WF8qU7E/QUusn6N+IwDQYJKoZIhvcNAQELBQAw
FjEUMBIGA1UEAwwLdGVhbTQ3My1uZXQwHhcNMjMxMTA0MTEzODE0WhcNMjYxMDE5
MTEzODE0WjAZMRcwFQYDVQQDDA50ZWFtNDczLXNlcnZlcjCCASIwDQYJKoZIhvcN
AQEBBQADggEPADCCAQoCggEBAK7NiOIyO1Fz26DHFmV0Of/H4yd4SnrcrZOvLeoR
FkSvBlLlPaYYiSDBowf8dIA/kkOA/OWE1pE+B0r65SwFEAV6eBmXKihOJi0I1FYT
vjMrgh8a7iRvTxfePwDYcjwdGNU0P6Yxn8UIJfX3rk34WHrtEXK6l9oFV2k3WJrn
6erYqN2wltNNCS7dRhcJulzVI4HhQUkzG4HkzUUP6NqRQ0BV3BKnZPqgHyTotZ0d
ZbbQXdmHNbq1/HLv5uM46CoDnYpgtrwmIbGfl3coIThQfeneXswI0I4mdKRBi14b
MS5aTgTK+vUSI+Er+d1+spzGxEs47n2rM97r52FZc2DeJH8CAwEAAaOBvTCBujAJ
BgNVHRMEAjAAMB0GA1UdDgQWBBS8M41Sv6yX3mDQ/t1Jdd+fIlprHDBRBgNVHSME
SjBIgBQy03Tkw5knWJjNhh418o/+wfNShaEapBgwFjEUMBIGA1UEAwwLdGVhbTQ3
My1uZXSCFCYRGA/xbeCKy/ndxWUM8vR75MThMBMGA1UdJQQMMAoGCCsGAQUFBwMB
MAsGA1UdDwQEAwIFoDAZBgNVHREEEjAQgg50ZWFtNDczLXNlcnZlcjANBgkqhkiG
9w0BAQsFAAOCAQEABeSKfgzaBC3AqLSSRLjKjBjzbSYM6vS+6S2hHhD2R2mWjQJj
Szvho+mdzdcEOct7Ag4qCLNv2eYF/oXEMEzLmxa6O8KIqBwUMkGiCCPKAxLbqyeV
fhzFNUCNmf1e88h8gRMONzRCd1ILa9p3SpmjORaCVPIrcRAD7iIdMWS70SbZjnPG
y/SE9gEKqTV/TYFKX1L5gLKRnwW+4FB8JY+hjn4x8bgx50BPU8nFYxcXz9RyoQiJ
ecCkOmgypfyZUJpvue8rs24L07IRspagFxjeRA+hn0T/pN+DpEt4VmcYuO/aJj0g
bbwkVXnRskab7X02qC4qaAcVnTVLAUUcpHxSPA==
-----END CERTIFICATE-----
