Certificate:
    Data:
        Version: 3 (0x2)
        Serial Number:
            78:1f:c3:aa:c3:64:54:63:3c:df:31:4f:d1:35:1c:f0
        Signature Algorithm: sha256WithRSAEncryption
        Issuer: CN=team53-net
        Validity
            Not Before: Nov  3 20:40:10 2023 GMT
            Not After : Oct 18 20:40:10 2026 GMT
        Subject: CN=team53-server
        Subject Public Key Info:
            Public Key Algorithm: rsaEncryption
                Public-Key: (2048 bit)
                Modulus:
                    00:a1:38:4d:8b:8f:7e:56:5d:cc:e5:34:56:e2:1a:
                    b1:94:f3:32:86:13:ce:c2:3e:9d:30:b4:51:72:02:
                    94:5b:fd:b6:be:59:eb:d3:8a:72:7b:dd:eb:3e:69:
                    c9:df:d1:00:86:26:3c:f7:20:9d:9f:ac:07:11:cf:
                    3b:11:3e:fb:84:c9:c0:b8:0d:07:d6:bd:4c:c2:cb:
                    be:92:42:57:d2:d7:07:68:ed:ab:d5:7f:87:1f:53:
                    0a:8f:32:5e:1f:19:58:1f:ed:a9:e4:76:f9:f6:4f:
                    07:f9:0f:d5:3f:e6:29:66:f2:a0:aa:f9:4a:92:9e:
                    b7:44:5e:6c:5e:ac:0b:83:3c:60:4a:cf:32:0b:ac:
                    fa:e1:8e:23:d9:ba:de:19:3c:fe:ec:e1:b4:90:92:
                    09:b9:52:c4:d2:f4:55:35:ae:87:b5:0f:da:67:f7:
                    c1:aa:b9:18:64:d8:07:e5:8b:a2:70:a2:31:c1:ac:
                    c7:30:48:89:ea:1b:97:c0:be:56:cb:d6:91:ac:39:
                    fb:44:23:b7:88:9f:c2:25:f4:c0:fc:40:8b:7a:95:
                    4c:9e:e3:64:cb:cd:02:e2:3b:a3:32:72:ec:8a:6e:
                    72:c9:cb:a4:78:3e:c4:58:25:98:0c:2d:ca:3c:ee:
                    c4:f5:ab:87:0a:b0:79:02:a3:c1:6f:65:0e:9e:62:
                    6e:75
                Exponent: 65537 (0x10001)
        X509v3 extensions:
            X509v3 Basic Constraints: 
                CA:FALSE
            X509v3 Subject Key Identifier: 
                AF:9F:B7:16:B4:C6:0A:27:A3:4E:46:EA:2B:E1:23:D9:C0:6D:1B:41
            X509v3 Authority Key Identifier: 
                keyid:40:14:C4:C0:FE:E7:86:9E:8C:75:C1:E9:B7:9A:05:7D:49:B4:07:06
                DirName:/CN=team53-net
                serial:0F:20:1A:23:AE:61:58:CE:85:6C:1A:E6:AD:83:66:D9:F4:38:F4:9B
            X509v3 Extended Key Usage: 
                TLS Web Server Authentication
            X509v3 Key Usage: 
                Digital Signature, Key Encipherment
            X509v3 Subject Alternative Name: 
                DNS:team53-server
    Signature Algorithm: sha256WithRSAEncryption
    Signature Value:
        31:be:eb:a6:fd:55:b9:27:14:7a:6c:19:ef:91:05:24:19:29:
        f3:16:47:fd:52:15:e1:1a:2d:03:88:df:70:ae:d5:19:c9:5b:
        5f:5c:58:c7:bc:3b:65:d6:b8:fc:63:3d:e4:59:d8:b6:70:55:
        93:43:09:f9:d8:13:e7:1d:6d:c3:e8:2d:ba:eb:2d:e7:0b:49:
        df:5d:c7:ed:1a:72:be:e2:e9:50:9e:ca:b1:e7:9a:7e:2f:2c:
        d0:d1:d2:66:e9:6f:30:ad:a8:a1:a0:02:85:6e:c6:a4:18:ea:
        c7:48:a2:cb:58:13:a0:bf:23:9e:cb:65:d3:89:a0:93:bd:70:
        a5:d8:11:e6:fb:26:a2:32:60:0c:d1:6d:3e:44:c8:67:5a:c7:
        a8:6b:61:4b:15:91:10:6b:93:3a:b9:44:3e:8b:50:0d:39:97:
        d4:b3:9a:1a:b4:32:6e:da:3b:ce:ed:29:65:a3:a9:59:70:6b:
        67:72:5e:75:b4:35:3a:09:e4:e0:2d:a1:a9:d0:3d:17:e6:1b:
        45:e0:f1:5f:8d:64:b0:9d:fd:2e:46:7f:03:b2:3f:3f:3c:37:
        c9:0d:6a:6c:a7:f9:bb:b6:4a:8b:91:e4:6b:0e:66:7b:b6:85:
        6a:69:20:6d:88:45:e9:c0:b2:a6:e7:88:e5:c5:bb:b1:33:4c:
        5a:40:a5:54
-----BEGIN CERTIFICATE-----
MIIDczCCAlugAwIBAgIQeB/DqsNkVGM83zFP0TUc8DANBgkqhkiG9w0BAQsFADAV
MRMwEQYDVQQDDAp0ZWFtNTMtbmV0MB4XDTIzMTEwMzIwNDAxMFoXDTI2MTAxODIw
NDAxMFowGDEWMBQGA1UEAwwNdGVhbTUzLXNlcnZlcjCCASIwDQYJKoZIhvcNAQEB
BQADggEPADCCAQoCggEBAKE4TYuPflZdzOU0VuIasZTzMoYTzsI+nTC0UXIClFv9
tr5Z69OKcnvd6z5pyd/RAIYmPPcgnZ+sBxHPOxE++4TJwLgNB9a9TMLLvpJCV9LX
B2jtq9V/hx9TCo8yXh8ZWB/tqeR2+fZPB/kP1T/mKWbyoKr5SpKet0RebF6sC4M8
YErPMgus+uGOI9m63hk8/uzhtJCSCblSxNL0VTWuh7UP2mf3waq5GGTYB+WLonCi
McGsxzBIieobl8C+VsvWkaw5+0Qjt4ifwiX0wPxAi3qVTJ7jZMvNAuI7ozJy7Ipu
csnLpHg+xFglmAwtyjzuxPWrhwqweQKjwW9lDp5ibnUCAwEAAaOBuzCBuDAJBgNV
HRMEAjAAMB0GA1UdDgQWBBSvn7cWtMYKJ6NORuor4SPZwG0bQTBQBgNVHSMESTBH
gBRAFMTA/ueGnox1wem3mgV9SbQHBqEZpBcwFTETMBEGA1UEAwwKdGVhbTUzLW5l
dIIUDyAaI65hWM6FbBrmrYNm2fQ49JswEwYDVR0lBAwwCgYIKwYBBQUHAwEwCwYD
VR0PBAQDAgWgMBgGA1UdEQQRMA+CDXRlYW01My1zZXJ2ZXIwDQYJKoZIhvcNAQEL
BQADggEBADG+66b9VbknFHpsGe+RBSQZKfMWR/1SFeEaLQOI33Cu1RnJW19cWMe8
O2XWuPxjPeRZ2LZwVZNDCfnYE+cdbcPoLbrrLecLSd9dx+0acr7i6VCeyrHnmn4v
LNDR0mbpbzCtqKGgAoVuxqQY6sdIostYE6C/I57LZdOJoJO9cKXYEeb7JqIyYAzR
bT5EyGdax6hrYUsVkRBrkzq5RD6LUA05l9Szmhq0Mm7aO87tKWWjqVlwa2dyXnW0
NToJ5OAtoanQPRfmG0Xg8V+NZLCd/S5GfwOyPz88N8kNamyn+bu2SouR5GsOZnu2
hWppIG2IRenAsqbniOXFu7EzTFpApVQ=
-----END CERTIFICATE-----
