Certificate:
    Data:
        Version: 3 (0x2)
        Serial Number:
            31:64:fb:e6:49:67:4e:7c:86:00:74:da:e4:11:46:b5
        Signature Algorithm: sha256WithRSAEncryption
        Issuer: CN=team63-net
        Validity
            Not Before: Nov  3 20:40:20 2023 GMT
            Not After : Oct 18 20:40:20 2026 GMT
        Subject: CN=team63-client
        Subject Public Key Info:
            Public Key Algorithm: rsaEncryption
                Public-Key: (2048 bit)
                Modulus:
                    00:e2:b9:97:22:22:e0:e1:b8:2a:5d:1c:81:a7:3d:
                    0a:b5:7e:03:13:86:44:4f:cb:2f:98:19:a3:c0:c6:
                    d1:57:2d:12:bd:f1:85:df:38:0d:19:49:17:d1:d1:
                    81:d7:9f:9c:83:d9:fa:da:dc:5d:df:3e:fa:96:76:
                    00:ea:d6:3a:b9:1f:53:f4:26:0a:42:1f:e7:14:9f:
                    3e:96:fd:aa:db:53:e6:93:26:07:e7:0d:c3:31:28:
                    47:29:e3:e6:1e:08:f7:25:05:e7:4b:9d:99:70:13:
                    58:43:0f:3d:f4:fa:55:9b:c3:b5:39:93:7f:69:f9:
                    4d:98:4e:21:62:3e:02:68:b2:8f:26:ee:1a:6f:df:
                    dc:c7:09:77:f5:b4:5e:78:7f:ce:6d:ff:7a:0a:56:
                    d7:cf:28:bf:e3:cf:2d:03:56:1d:4d:43:64:6c:38:
                    46:c6:92:4a:b1:24:00:08:3c:5a:92:30:6a:c6:8c:
                    ce:98:18:aa:15:7b:d2:ba:bf:03:15:f9:30:5e:49:
                    1f:dc:86:8a:f6:af:81:97:69:aa:67:b2:7f:3c:c6:
                    1c:a1:19:c6:d4:a7:98:24:5e:d4:20:8a:78:6e:af:
                    7f:42:8d:57:e9:ce:a8:f7:91:c5:2a:9a:1c:c0:b5:
                    50:bd:d3:81:e3:d7:1a:04:6b:6f:3c:50:ee:6e:bb:
                    6f:b1
                Exponent: 65537 (0x10001)
        X509v3 extensions:
            X509v3 Basic Constraints: 
                CA:FALSE
            X509v3 Subject Key Identifier: 
                7F:88:52:B3:1F:60:B7:F7:31:24:C9:41:1C:04:CC:BE:E2:E6:AF:3F
            X509v3 Authority Key Identifier: 
                keyid:D0:A6:19:4E:5D:5C:85:46:23:2D:83:52:F7:CB:80:CC:44:AE:8C:85
                DirName:/CN=team63-net
                serial:24:27:2B:4D:17:13:D2:B6:6D:A0:54:18:29:B3:23:F1:2E:A3:F3:7D
            X509v3 Extended Key Usage: 
                TLS Web Client Authentication
            X509v3 Key Usage: 
                Digital Signature
    Signature Algorithm: sha256WithRSAEncryption
    Signature Value:
        5a:78:b7:ad:b3:f5:09:dc:42:16:35:2a:0f:9b:09:06:89:3e:
        da:59:fd:af:44:70:45:90:6d:37:18:b9:af:e4:7b:ad:09:43:
        7f:4f:60:d6:46:20:52:aa:e7:a7:5b:cc:b0:71:46:1d:09:00:
        5b:4c:a2:19:73:6f:31:32:54:0b:6f:18:ed:48:f4:c8:96:28:
        70:2d:5e:c6:20:5f:05:43:8b:3b:14:38:37:b0:04:6c:fe:73:
        60:e6:c0:c5:3d:f9:8a:cb:49:57:4d:f4:0d:3c:5f:96:22:9f:
        6d:d8:54:97:b8:fa:47:dd:11:7d:c6:4f:81:41:fb:3b:d1:95:
        77:be:38:19:0c:16:58:4b:7f:8b:e6:13:78:e6:89:e1:e4:f9:
        f7:cf:5d:17:eb:83:ce:3f:f9:82:3d:d8:f3:2e:cd:b3:64:5d:
        e5:54:1f:01:8f:59:8d:33:6d:ca:b8:9e:ba:f4:ac:a6:7b:27:
        40:36:1a:69:3b:6f:e3:8c:24:72:9c:67:83:6e:c1:7d:13:ce:
        ed:d4:ed:9e:bf:d3:0c:bb:fa:00:aa:26:90:7d:7c:fc:5f:3f:
        60:13:47:60:e7:bc:92:0c:31:65:a3:36:fd:ad:46:33:e9:a8:
        03:67:fc:40:ab:bf:65:9f:88:cd:f0:07:68:8f:a1:5b:74:1a:
        06:b1:eb:34
-----BEGIN CERTIFICATE-----
MIIDWTCCAkGgAwIBAgIQMWT75klnTnyGAHTa5BFGtTANBgkqhkiG9w0BAQsFADAV
MRMwEQYDVQQDDAp0ZWFtNjMtbmV0MB4XDTIzMTEwMzIwNDAyMFoXDTI2MTAxODIw
NDAyMFowGDEWMBQGA1UEAwwNdGVhbTYzLWNsaWVudDCCASIwDQYJKoZIhvcNAQEB
BQADggEPADCCAQoCggEBAOK5lyIi4OG4Kl0cgac9CrV+AxOGRE/LL5gZo8DG0Vct
Er3xhd84DRlJF9HRgdefnIPZ+trcXd8++pZ2AOrWOrkfU/QmCkIf5xSfPpb9qttT
5pMmB+cNwzEoRynj5h4I9yUF50udmXATWEMPPfT6VZvDtTmTf2n5TZhOIWI+Amiy
jybuGm/f3McJd/W0Xnh/zm3/egpW188ov+PPLQNWHU1DZGw4RsaSSrEkAAg8WpIw
asaMzpgYqhV70rq/AxX5MF5JH9yGivavgZdpqmeyfzzGHKEZxtSnmCRe1CCKeG6v
f0KNV+nOqPeRxSqaHMC1UL3TgePXGgRrbzxQ7m67b7ECAwEAAaOBoTCBnjAJBgNV
HRMEAjAAMB0GA1UdDgQWBBR/iFKzH2C39zEkyUEcBMy+4uavPzBQBgNVHSMESTBH
gBTQphlOXVyFRiMtg1L3y4DMRK6MhaEZpBcwFTETMBEGA1UEAwwKdGVhbTYzLW5l
dIIUJCcrTRcT0rZtoFQYKbMj8S6j830wEwYDVR0lBAwwCgYIKwYBBQUHAwIwCwYD
VR0PBAQDAgeAMA0GCSqGSIb3DQEBCwUAA4IBAQBaeLets/UJ3EIWNSoPmwkGiT7a
Wf2vRHBFkG03GLmv5HutCUN/T2DWRiBSquenW8ywcUYdCQBbTKIZc28xMlQLbxjt
SPTIlihwLV7GIF8FQ4s7FDg3sARs/nNg5sDFPfmKy0lXTfQNPF+WIp9t2FSXuPpH
3RF9xk+BQfs70ZV3vjgZDBZYS3+L5hN45onh5Pn3z10X64POP/mCPdjzLs2zZF3l
VB8Bj1mNM23KuJ669KymeydANhppO2/jjCRynGeDbsF9E87t1O2ev9MMu/oAqiaQ
fXz8Xz9gE0dg57ySDDFlozb9rUYz6agDZ/xAq79ln4jN8Adoj6FbdBoGses0
-----END CERTIFICATE-----
