Certificate:
    Data:
        Version: 3 (0x2)
        Serial Number:
            7f:cb:9f:d9:ac:f2:52:0c:df:12:d4:22:d2:14:c0:db
        Signature Algorithm: sha256WithRSAEncryption
        Issuer: CN=team182-net
        Validity
            Not Before: Nov  3 20:42:33 2023 GMT
            Not After : Oct 18 20:42:33 2026 GMT
        Subject: CN=team182-server
        Subject Public Key Info:
            Public Key Algorithm: rsaEncryption
                Public-Key: (2048 bit)
                Modulus:
                    00:ac:db:17:95:b5:1f:31:53:2a:45:74:c0:23:6a:
                    8c:02:51:06:25:5f:62:a8:78:83:03:ee:39:e3:d5:
                    15:e6:a3:84:94:2a:90:a6:84:24:ac:37:48:71:46:
                    7e:51:5f:84:54:3f:0f:f2:25:22:40:43:b0:7a:4f:
                    91:ec:5a:93:aa:c9:75:73:41:0c:57:d4:db:c7:40:
                    dc:03:04:fb:47:2e:7a:9b:73:72:0f:9b:74:5f:c4:
                    07:f4:1f:2c:c3:5d:17:17:8f:3c:e8:74:c5:5b:71:
                    1a:25:ba:8d:d5:52:7f:1e:ad:9a:60:bc:08:25:40:
                    23:c3:00:b9:7c:53:80:76:a4:49:a5:1e:ca:33:20:
                    59:38:30:de:9a:5a:28:51:d1:df:51:b4:5a:ee:f1:
                    e4:0d:2a:4a:7a:69:35:45:d3:70:8e:4e:37:ef:e0:
                    fc:df:97:d5:9a:ad:f9:dd:07:a0:80:68:66:2a:f9:
                    d8:a1:c1:66:18:47:22:1f:ea:21:71:ba:a1:0e:62:
                    e6:2a:54:6b:b7:40:fc:52:51:31:81:c3:39:29:76:
                    e6:7a:4b:23:05:24:6c:ec:03:1b:f9:79:f1:85:23:
                    01:4b:d4:5c:e7:3f:0d:81:4d:09:5b:76:57:8f:99:
                    4a:16:9d:ca:05:c8:95:75:0e:4e:c7:f6:c8:c2:93:
                    41:85
                Exponent: 65537 (0x10001)
        X509v3 extensions:
            X509v3 Basic Constraints: 
                CA:FALSE
            X509v3 Subject Key Identifier: 
                DF:3D:B3:8A:45:88:E9:50:46:F7:70:81:41:28:33:E1:2F:5D:5A:F8
            X509v3 Authority Key Identifier: 
                keyid:E4:23:22:4F:FF:B7:46:8B:1B:6D:16:68:8D:68:F4:00:FD:5B:76:A1
                DirName:/CN=team182-net
                serial:43:B5:C0:28:56:BB:52:20:08:91:A9:93:BE:DA:0F:E4:91:AD:05:C8
            X509v3 Extended Key Usage: 
                TLS Web Server Authentication
            X509v3 Key Usage: 
                Digital Signature, Key Encipherment
            X509v3 Subject Alternative Name: 
                DNS:team182-server
    Signature Algorithm: sha256WithRSAEncryption
    Signature Value:
        56:3f:5a:f5:ec:20:59:fc:a1:c9:a0:31:6b:fd:0c:f0:d5:7e:
        38:1b:56:86:02:66:5f:bc:e3:d0:28:10:ae:2e:86:de:0e:91:
        30:93:6e:c0:5a:94:47:1c:43:ea:45:4a:c4:31:b3:ee:4c:35:
        f1:e5:f6:10:0e:68:49:e9:dd:11:18:15:ba:c4:33:3e:d1:7e:
        3f:bf:d1:f1:57:92:b5:f0:67:81:08:e1:30:45:c0:e5:19:04:
        34:1e:7e:b6:b3:fd:b9:e9:b5:7b:10:77:9f:fc:d2:50:c0:f8:
        d9:38:ac:59:f0:0e:0f:53:89:ad:32:f0:8c:14:53:88:3c:a8:
        d3:b9:c6:fe:c5:a8:72:4b:a7:99:ba:ce:55:40:a1:33:2d:ce:
        f1:36:cc:56:85:50:37:0c:39:f9:4b:a9:cf:c2:83:43:d2:fe:
        5a:1d:e2:12:71:25:c4:6e:7c:91:da:d2:2e:7c:b7:c4:b9:55:
        0a:2c:ee:c6:4d:a0:90:1d:bf:30:1a:af:75:83:65:4f:9e:60:
        41:be:4a:80:fe:a9:0f:06:df:64:b2:d5:34:f0:93:16:b5:38:
        0f:7d:51:1c:a6:7f:b1:76:24:d2:4a:54:c2:50:12:f9:47:46:
        95:6f:f5:ad:3b:2d:a5:91:ff:89:f2:07:d8:b8:f5:44:de:0d:
        15:4c:45:f9
-----BEGIN CERTIFICATE-----
MIIDdzCCAl+gAwIBAgIQf8uf2azyUgzfEtQi0hTA2zANBgkqhkiG9w0BAQsFADAW
MRQwEgYDVQQDDAt0ZWFtMTgyLW5ldDAeFw0yMzExMDMyMDQyMzNaFw0yNjEwMTgy
MDQyMzNaMBkxFzAVBgNVBAMMDnRlYW0xODItc2VydmVyMIIBIjANBgkqhkiG9w0B
AQEFAAOCAQ8AMIIBCgKCAQEArNsXlbUfMVMqRXTAI2qMAlEGJV9iqHiDA+4549UV
5qOElCqQpoQkrDdIcUZ+UV+EVD8P8iUiQEOwek+R7FqTqsl1c0EMV9Tbx0DcAwT7
Ry56m3NyD5t0X8QH9B8sw10XF4886HTFW3EaJbqN1VJ/Hq2aYLwIJUAjwwC5fFOA
dqRJpR7KMyBZODDemlooUdHfUbRa7vHkDSpKemk1RdNwjk437+D835fVmq353Qeg
gGhmKvnYocFmGEciH+ohcbqhDmLmKlRrt0D8UlExgcM5KXbmeksjBSRs7AMb+Xnx
hSMBS9Rc5z8NgU0JW3ZXj5lKFp3KBciVdQ5Ox/bIwpNBhQIDAQABo4G9MIG6MAkG
A1UdEwQCMAAwHQYDVR0OBBYEFN89s4pFiOlQRvdwgUEoM+EvXVr4MFEGA1UdIwRK
MEiAFOQjIk//t0aLG20WaI1o9AD9W3ahoRqkGDAWMRQwEgYDVQQDDAt0ZWFtMTgy
LW5ldIIUQ7XAKFa7UiAIkamTvtoP5JGtBcgwEwYDVR0lBAwwCgYIKwYBBQUHAwEw
CwYDVR0PBAQDAgWgMBkGA1UdEQQSMBCCDnRlYW0xODItc2VydmVyMA0GCSqGSIb3
DQEBCwUAA4IBAQBWP1r17CBZ/KHJoDFr/Qzw1X44G1aGAmZfvOPQKBCuLobeDpEw
k27AWpRHHEPqRUrEMbPuTDXx5fYQDmhJ6d0RGBW6xDM+0X4/v9HxV5K18GeBCOEw
RcDlGQQ0Hn62s/256bV7EHef/NJQwPjZOKxZ8A4PU4mtMvCMFFOIPKjTucb+xahy
S6eZus5VQKEzLc7xNsxWhVA3DDn5S6nPwoND0v5aHeIScSXEbnyR2tIufLfEuVUK
LO7GTaCQHb8wGq91g2VPnmBBvkqA/qkPBt9kstU08JMWtTgPfVEcpn+xdiTSSlTC
UBL5R0aVb/WtOy2lkf+J8gfYuPVE3g0VTEX5
-----END CERTIFICATE-----
