Certificate:
    Data:
        Version: 3 (0x2)
        Serial Number:
            ea:0c:95:71:11:d6:4b:42:cf:ee:f7:fc:a7:20:79:53
        Signature Algorithm: sha256WithRSAEncryption
        Issuer: CN=team180-net
        Validity
            Not Before: Nov  4 11:31:12 2023 GMT
            Not After : Oct 19 11:31:12 2026 GMT
        Subject: CN=team180-server
        Subject Public Key Info:
            Public Key Algorithm: rsaEncryption
                Public-Key: (2048 bit)
                Modulus:
                    00:94:83:15:76:6a:2b:38:b8:c3:66:41:45:f6:d0:
                    d8:36:59:51:67:f6:d6:0c:bf:08:18:ce:dd:b4:6d:
                    0d:c2:f4:b6:7e:36:97:33:88:ef:34:40:4c:c9:06:
                    bf:e7:8e:65:a4:2b:a4:87:f1:88:c1:f2:31:ed:f1:
                    ed:1c:90:88:c4:33:94:11:bd:ba:08:fe:80:93:5d:
                    3d:7c:9c:10:e2:cb:4d:74:f2:1b:fd:c8:cc:59:f9:
                    bf:8b:fb:b0:f6:d5:54:8f:0a:5a:68:46:f5:1c:6a:
                    a5:82:1e:8a:bf:90:1f:46:45:a3:11:79:fd:b6:e0:
                    2d:f4:6e:93:35:df:39:68:37:f7:25:c3:59:76:c9:
                    4c:ed:a6:4d:b3:3d:9e:1a:2d:cc:9b:49:dd:8a:b1:
                    6e:6d:f4:d5:0b:78:b1:1e:c9:2b:74:b7:e1:8a:c8:
                    3a:0e:2e:07:89:fa:fe:bb:3b:ac:b0:08:7a:80:73:
                    1f:a3:58:00:38:ea:cd:a6:3b:72:8d:34:a4:ff:7d:
                    30:39:c4:2d:3e:3b:5f:ed:94:1c:5c:8f:c3:18:5d:
                    8b:31:57:3f:3f:85:a0:9d:43:59:f3:6f:1e:5f:d6:
                    4a:fc:8c:d7:ec:26:f6:0f:a7:c6:bc:56:5b:29:92:
                    fd:a5:0e:2b:9f:ee:6f:70:dd:e8:bd:cb:fe:6a:8f:
                    3a:67
                Exponent: 65537 (0x10001)
        X509v3 extensions:
            X509v3 Basic Constraints: 
                CA:FALSE
            X509v3 Subject Key Identifier: 
                41:8C:DE:7E:98:49:65:F4:A1:F6:C9:65:51:54:96:66:1E:28:A2:38
            X509v3 Authority Key Identifier: 
                keyid:B8:CA:D0:E3:14:EA:14:60:B0:65:58:E5:DE:22:FF:6A:0D:5F:98:62
                DirName:/CN=team180-net
                serial:56:C8:E2:01:D1:E0:8A:76:4A:EF:E4:72:27:5E:CA:BC:35:20:8A:50
            X509v3 Extended Key Usage: 
                TLS Web Server Authentication
            X509v3 Key Usage: 
                Digital Signature, Key Encipherment
            X509v3 Subject Alternative Name: 
                DNS:team180-server
    Signature Algorithm: sha256WithRSAEncryption
    Signature Value:
        5e:63:b2:c3:4c:b4:b1:64:28:9b:db:b6:0d:5c:09:ee:f5:a0:
        52:08:5a:cb:d6:6a:c1:24:fa:10:eb:f8:3d:55:52:18:40:c9:
        b7:92:7a:92:27:ee:16:3c:9c:14:7c:38:50:ce:7d:c7:a0:2f:
        82:d7:4d:74:3f:61:2a:fe:53:6a:8c:06:f5:73:a7:6d:92:a4:
        18:1d:a7:d0:7f:70:57:27:94:e6:53:f5:cc:2d:bb:b2:59:f3:
        ce:78:6e:ba:fa:65:25:a0:36:09:dc:1a:c9:73:d9:ca:4f:d1:
        d4:bb:31:00:9c:da:6e:d8:ab:0f:4f:b2:5d:86:40:24:f2:36:
        0d:14:49:9b:ba:06:a4:05:69:de:71:c7:45:5c:fe:3c:2a:06:
        e6:61:ce:ac:fc:af:87:14:4c:ba:a6:9f:37:90:46:04:1c:91:
        70:a3:7c:69:4d:1d:37:e0:3d:c1:67:a6:65:e2:67:e7:b9:a2:
        ba:21:b3:16:3d:b1:35:47:26:3e:a8:4b:3e:bc:4e:6e:ca:35:
        fa:4b:bb:ed:e6:f5:17:26:cc:2d:1c:29:fd:b9:17:8e:b4:de:
        e4:e7:44:ff:54:5e:7f:de:5c:c0:38:b9:21:d8:a1:5b:b3:36:
        52:17:54:84:40:1e:f7:90:b7:d5:8c:a8:0d:7c:b2:9c:bd:35:
        be:ba:5c:af
-----BEGIN CERTIFICATE-----
MIIDeDCCAmCgAwIBAgIRAOoMlXER1ktCz+73/KcgeVMwDQYJKoZIhvcNAQELBQAw
FjEUMBIGA1UEAwwLdGVhbTE4MC1uZXQwHhcNMjMxMTA0MTEzMTEyWhcNMjYxMDE5
MTEzMTEyWjAZMRcwFQYDVQQDDA50ZWFtMTgwLXNlcnZlcjCCASIwDQYJKoZIhvcN
AQEBBQADggEPADCCAQoCggEBAJSDFXZqKzi4w2ZBRfbQ2DZZUWf21gy/CBjO3bRt
DcL0tn42lzOI7zRATMkGv+eOZaQrpIfxiMHyMe3x7RyQiMQzlBG9ugj+gJNdPXyc
EOLLTXTyG/3IzFn5v4v7sPbVVI8KWmhG9RxqpYIeir+QH0ZFoxF5/bbgLfRukzXf
OWg39yXDWXbJTO2mTbM9nhotzJtJ3Yqxbm301Qt4sR7JK3S34YrIOg4uB4n6/rs7
rLAIeoBzH6NYADjqzaY7co00pP99MDnELT47X+2UHFyPwxhdizFXPz+FoJ1DWfNv
Hl/WSvyM1+wm9g+nxrxWWymS/aUOK5/ub3Dd6L3L/mqPOmcCAwEAAaOBvTCBujAJ
BgNVHRMEAjAAMB0GA1UdDgQWBBRBjN5+mEll9KH2yWVRVJZmHiiiODBRBgNVHSME
SjBIgBS4ytDjFOoUYLBlWOXeIv9qDV+YYqEapBgwFjEUMBIGA1UEAwwLdGVhbTE4
MC1uZXSCFFbI4gHR4Ip2Su/kcideyrw1IIpQMBMGA1UdJQQMMAoGCCsGAQUFBwMB
MAsGA1UdDwQEAwIFoDAZBgNVHREEEjAQgg50ZWFtMTgwLXNlcnZlcjANBgkqhkiG
9w0BAQsFAAOCAQEAXmOyw0y0sWQom9u2DVwJ7vWgUghay9ZqwST6EOv4PVVSGEDJ
t5J6kifuFjycFHw4UM59x6AvgtdNdD9hKv5TaowG9XOnbZKkGB2n0H9wVyeU5lP1
zC27slnzznhuuvplJaA2CdwayXPZyk/R1LsxAJzabtirD0+yXYZAJPI2DRRJm7oG
pAVp3nHHRVz+PCoG5mHOrPyvhxRMuqafN5BGBByRcKN8aU0dN+A9wWemZeJn57mi
uiGzFj2xNUcmPqhLPrxObso1+ku77eb1FybMLRwp/bkXjrTe5OdE/1Ref95cwDi5
IdihW7M2UhdUhEAe95C31YyoDXyynL01vrpcrw==
-----END CERTIFICATE-----
