Certificate:
    Data:
        Version: 3 (0x2)
        Serial Number:
            45:55:4d:c3:32:d6:10:5a:6d:69:34:5a:76:3b:75:a5
        Signature Algorithm: sha256WithRSAEncryption
        Issuer: CN=team165-net
        Validity
            Not Before: Nov  4 10:43:36 2023 GMT
            Not After : Oct 19 10:43:36 2026 GMT
        Subject: CN=team165-client
        Subject Public Key Info:
            Public Key Algorithm: rsaEncryption
                Public-Key: (2048 bit)
                Modulus:
                    00:8f:cc:30:a6:67:80:4d:78:85:01:9c:04:4e:43:
                    cd:43:18:02:d5:75:9f:dc:21:d0:64:41:25:8f:00:
                    8b:3a:c9:24:e4:fd:ff:f8:09:19:fc:40:5e:84:d4:
                    6d:5b:da:e8:20:6e:b7:ad:5c:00:33:12:b3:2f:2f:
                    33:0f:be:3d:92:05:97:25:65:a0:73:9d:d3:13:ea:
                    40:c1:7c:c5:5f:e9:bf:df:89:0e:a9:2f:1a:56:98:
                    1a:da:77:01:dd:e5:c6:51:ab:33:1b:0d:a6:11:f9:
                    79:75:5d:e3:43:15:b9:50:f8:ee:5f:46:b9:83:f8:
                    97:55:ac:7f:9f:d3:75:2d:2a:62:e3:f1:1e:8c:af:
                    53:29:22:45:37:fa:2b:b0:dc:61:51:ee:4f:c3:2c:
                    09:6e:d5:b5:94:4f:a2:ae:03:37:a9:80:84:be:2a:
                    7d:f8:cf:6b:74:cd:8b:c2:9a:c6:bd:ea:73:a4:6f:
                    d8:84:25:a3:df:31:37:c5:39:13:45:49:ec:d3:c8:
                    5f:c1:05:c2:b9:8e:f4:ef:37:99:c0:39:ed:db:84:
                    af:22:3a:c1:b7:22:ee:ee:7a:f9:d4:a0:78:61:fe:
                    b4:9c:08:07:14:21:b1:61:27:ff:d4:f0:4a:f7:74:
                    5d:73:a9:e8:03:1f:67:43:36:03:03:e3:24:69:53:
                    91:13
                Exponent: 65537 (0x10001)
        X509v3 extensions:
            X509v3 Basic Constraints: 
                CA:FALSE
            X509v3 Subject Key Identifier: 
                A1:86:1B:82:F6:45:22:0E:63:0B:3C:65:56:34:5E:92:A9:32:5F:D8
            X509v3 Authority Key Identifier: 
                keyid:FD:8F:BD:30:74:99:75:7D:95:35:FC:FA:0B:A8:C2:48:42:21:F6:EB
                DirName:/CN=team165-net
                serial:52:F6:58:10:9E:D3:08:7D:F7:A3:AD:CA:25:57:72:C7:1C:09:2D:4D
            X509v3 Extended Key Usage: 
                TLS Web Client Authentication
            X509v3 Key Usage: 
                Digital Signature
    Signature Algorithm: sha256WithRSAEncryption
    Signature Value:
        73:44:ec:95:74:1b:3f:fe:e0:3c:dd:fd:ef:f9:5f:75:f2:40:
        dd:5c:3d:1e:ed:43:79:ea:27:26:4f:69:2b:05:cc:49:d6:a2:
        86:e4:c7:b3:de:a2:73:f0:69:8a:3c:e9:c5:bc:f7:cf:52:b3:
        f5:f6:35:29:e1:a4:12:79:72:cc:e4:71:fb:a8:43:89:2d:80:
        cb:0c:2f:3b:89:52:f0:3e:33:5d:da:29:55:5d:fc:17:1a:5f:
        5b:51:c5:06:ac:d7:03:68:29:31:b6:c9:03:ed:34:34:c3:50:
        3b:cf:d5:58:cb:52:79:c4:da:b2:49:6f:14:6e:73:a1:0a:dd:
        e6:ef:26:ab:8b:c6:ef:a4:7d:c8:9a:c3:03:91:36:dc:09:67:
        68:d7:57:a9:7f:f6:53:a7:4f:69:64:9e:50:c0:8f:b1:64:c2:
        7a:cc:9c:c3:ea:4d:3a:d2:4a:34:10:8d:5d:c2:fa:60:c3:a7:
        5c:93:ab:ae:c3:d0:13:b6:1f:10:75:a1:6f:5e:c1:49:81:16:
        2b:23:42:54:d6:3c:23:5a:66:2e:06:d4:69:9f:3c:fa:b1:f1:
        b2:b9:7e:0f:72:94:d7:ee:14:82:f6:30:4b:2c:04:89:cb:32:
        af:71:92:03:c0:cc:b5:e5:b3:03:35:4f:87:f8:a1:b2:06:03:
        75:9f:59:97
-----BEGIN CERTIFICATE-----
MIIDXDCCAkSgAwIBAgIQRVVNwzLWEFptaTRadjt1pTANBgkqhkiG9w0BAQsFADAW
MRQwEgYDVQQDDAt0ZWFtMTY1LW5ldDAeFw0yMzExMDQxMDQzMzZaFw0yNjEwMTkx
MDQzMzZaMBkxFzAVBgNVBAMMDnRlYW0xNjUtY2xpZW50MIIBIjANBgkqhkiG9w0B
AQEFAAOCAQ8AMIIBCgKCAQEAj8wwpmeATXiFAZwETkPNQxgC1XWf3CHQZEEljwCL
Oskk5P3/+AkZ/EBehNRtW9roIG63rVwAMxKzLy8zD749kgWXJWWgc53TE+pAwXzF
X+m/34kOqS8aVpga2ncB3eXGUaszGw2mEfl5dV3jQxW5UPjuX0a5g/iXVax/n9N1
LSpi4/EejK9TKSJFN/orsNxhUe5PwywJbtW1lE+irgM3qYCEvip9+M9rdM2LwprG
vepzpG/YhCWj3zE3xTkTRUns08hfwQXCuY707zeZwDnt24SvIjrBtyLu7nr51KB4
Yf60nAgHFCGxYSf/1PBK93Rdc6noAx9nQzYDA+MkaVOREwIDAQABo4GiMIGfMAkG
A1UdEwQCMAAwHQYDVR0OBBYEFKGGG4L2RSIOYws8ZVY0XpKpMl/YMFEGA1UdIwRK
MEiAFP2PvTB0mXV9lTX8+guowkhCIfbroRqkGDAWMRQwEgYDVQQDDAt0ZWFtMTY1
LW5ldIIUUvZYEJ7TCH33o63KJVdyxxwJLU0wEwYDVR0lBAwwCgYIKwYBBQUHAwIw
CwYDVR0PBAQDAgeAMA0GCSqGSIb3DQEBCwUAA4IBAQBzROyVdBs//uA83f3v+V91
8kDdXD0e7UN56icmT2krBcxJ1qKG5Mez3qJz8GmKPOnFvPfPUrP19jUp4aQSeXLM
5HH7qEOJLYDLDC87iVLwPjNd2ilVXfwXGl9bUcUGrNcDaCkxtskD7TQ0w1A7z9VY
y1J5xNqySW8UbnOhCt3m7yari8bvpH3ImsMDkTbcCWdo11epf/ZTp09pZJ5QwI+x
ZMJ6zJzD6k060ko0EI1dwvpgw6dck6uuw9ATth8QdaFvXsFJgRYrI0JU1jwjWmYu
BtRpnzz6sfGyuX4PcpTX7hSC9jBLLASJyzKvcZIDwMy15bMDNU+H+KGyBgN1n1mX
-----END CERTIFICATE-----
