Certificate:
    Data:
        Version: 3 (0x2)
        Serial Number:
            87:ba:01:fc:4e:3b:b8:19:e1:dd:f1:a2:5a:5c:e7:86
        Signature Algorithm: sha256WithRSAEncryption
        Issuer: CN=team165-net
        Validity
            Not Before: Nov  4 11:30:53 2023 GMT
            Not After : Oct 19 11:30:53 2026 GMT
        Subject: CN=team165-server
        Subject Public Key Info:
            Public Key Algorithm: rsaEncryption
                Public-Key: (2048 bit)
                Modulus:
                    00:89:a0:9f:41:c1:f3:22:47:0b:59:6d:20:25:7d:
                    7c:2a:b7:a5:0b:c9:a2:02:78:3f:2c:b7:ee:9a:26:
                    59:5c:13:c6:75:58:12:fd:11:28:96:83:85:7a:6b:
                    80:6e:20:ed:12:23:53:d2:ce:65:46:13:de:4e:4b:
                    da:69:d9:d5:0b:9b:70:73:c2:c4:47:a7:49:09:06:
                    2e:28:c0:cc:ab:9a:ff:da:33:b3:5a:0d:a9:7b:ea:
                    4d:e0:a5:d4:c3:bb:62:e0:f7:58:ff:0f:64:0d:de:
                    22:ec:66:c6:12:4d:38:aa:ef:f7:21:b3:0e:b4:7a:
                    fa:09:77:c9:ae:04:a2:28:f2:24:ce:93:d7:f0:2c:
                    27:39:e7:44:40:61:0c:f2:a4:6b:1b:b8:53:9f:16:
                    2e:38:4b:f7:19:84:c9:bb:4c:69:26:62:24:a5:90:
                    72:a6:6c:07:e4:af:ca:c3:df:fd:15:b5:e3:77:b4:
                    ba:e7:d8:8f:55:ad:df:e2:8d:fd:91:ae:21:ec:d4:
                    c1:a0:45:cb:46:13:3d:c0:fe:bb:96:de:4c:e7:cd:
                    10:cf:c0:96:2e:7f:2c:e6:f7:d7:21:d3:60:71:d5:
                    a4:4c:47:e9:ea:a0:8b:d0:d0:8a:df:0e:f6:ee:49:
                    65:27:3c:83:06:ff:07:1d:c7:0a:aa:2b:ff:09:22:
                    6a:81
                Exponent: 65537 (0x10001)
        X509v3 extensions:
            X509v3 Basic Constraints: 
                CA:FALSE
            X509v3 Subject Key Identifier: 
                9B:C5:8F:DF:34:32:34:39:80:53:D9:53:41:CD:8E:02:2F:5A:B9:C4
            X509v3 Authority Key Identifier: 
                keyid:04:6A:2E:0C:4E:18:A9:82:A5:EA:AA:88:EE:86:AF:1E:8A:24:F9:D3
                DirName:/CN=team165-net
                serial:5D:19:20:EF:08:1B:EE:F8:C0:94:93:2B:09:83:0D:18:76:0B:A9:DB
            X509v3 Extended Key Usage: 
                TLS Web Server Authentication
            X509v3 Key Usage: 
                Digital Signature, Key Encipherment
            X509v3 Subject Alternative Name: 
                DNS:team165-server
    Signature Algorithm: sha256WithRSAEncryption
    Signature Value:
        a4:ee:87:ea:f8:bc:69:44:ea:29:f3:8d:1d:09:27:29:4f:c7:
        1e:67:0a:fa:95:e3:45:b0:8a:8f:4c:2a:c2:eb:b6:84:26:b0:
        b3:09:05:37:57:a5:3c:21:9d:b6:4d:64:96:24:0c:8d:18:7d:
        7e:b6:8c:32:ef:08:bc:67:21:27:ca:80:74:53:d4:17:4e:03:
        6c:35:55:ef:57:25:a2:64:d1:61:77:15:17:2a:b7:1a:24:29:
        b7:9f:7f:b6:7c:2b:f7:08:19:29:a8:42:81:9a:18:78:43:f3:
        79:42:be:a1:ab:77:50:37:42:fc:23:4c:2c:ae:3c:79:3b:6a:
        64:f1:97:9f:97:92:c8:3a:bf:cb:be:5f:86:76:59:b9:e0:e4:
        96:35:96:97:cd:81:c2:71:84:7b:72:1f:35:8d:d1:50:55:a1:
        87:06:58:c3:71:57:d9:5e:8b:43:63:dd:ea:cc:2c:40:36:9d:
        3e:36:1f:ba:69:92:ea:af:8b:8f:a3:f7:20:90:92:08:96:79:
        9b:5b:1b:d5:f4:8b:96:a8:53:98:3e:a5:5a:9c:dc:de:a9:14:
        36:46:e5:5c:22:7f:7f:7a:51:50:d8:aa:cd:2d:70:79:d7:20:
        17:f0:65:0e:d2:85:f3:c6:f9:86:b0:36:71:0c:5f:13:dc:5a:
        77:11:a3:f7
-----BEGIN CERTIFICATE-----
MIIDeDCCAmCgAwIBAgIRAIe6AfxOO7gZ4d3xolpc54YwDQYJKoZIhvcNAQELBQAw
FjEUMBIGA1UEAwwLdGVhbTE2NS1uZXQwHhcNMjMxMTA0MTEzMDUzWhcNMjYxMDE5
MTEzMDUzWjAZMRcwFQYDVQQDDA50ZWFtMTY1LXNlcnZlcjCCASIwDQYJKoZIhvcN
AQEBBQADggEPADCCAQoCggEBAImgn0HB8yJHC1ltICV9fCq3pQvJogJ4Pyy37pom
WVwTxnVYEv0RKJaDhXprgG4g7RIjU9LOZUYT3k5L2mnZ1QubcHPCxEenSQkGLijA
zKua/9ozs1oNqXvqTeCl1MO7YuD3WP8PZA3eIuxmxhJNOKrv9yGzDrR6+gl3ya4E
oijyJM6T1/AsJznnREBhDPKkaxu4U58WLjhL9xmEybtMaSZiJKWQcqZsB+SvysPf
/RW143e0uufYj1Wt3+KN/ZGuIezUwaBFy0YTPcD+u5beTOfNEM/Ali5/LOb31yHT
YHHVpExH6eqgi9DQit8O9u5JZSc8gwb/Bx3HCqor/wkiaoECAwEAAaOBvTCBujAJ
BgNVHRMEAjAAMB0GA1UdDgQWBBSbxY/fNDI0OYBT2VNBzY4CL1q5xDBRBgNVHSME
SjBIgBQEai4MThipgqXqqojuhq8eiiT506EapBgwFjEUMBIGA1UEAwwLdGVhbTE2
NS1uZXSCFF0ZIO8IG+74wJSTKwmDDRh2C6nbMBMGA1UdJQQMMAoGCCsGAQUFBwMB
MAsGA1UdDwQEAwIFoDAZBgNVHREEEjAQgg50ZWFtMTY1LXNlcnZlcjANBgkqhkiG
9w0BAQsFAAOCAQEApO6H6vi8aUTqKfONHQknKU/HHmcK+pXjRbCKj0wqwuu2hCaw
swkFN1elPCGdtk1kliQMjRh9fraMMu8IvGchJ8qAdFPUF04DbDVV71clomTRYXcV
Fyq3GiQpt59/tnwr9wgZKahCgZoYeEPzeUK+oat3UDdC/CNMLK48eTtqZPGXn5eS
yDq/y75fhnZZueDkljWWl82BwnGEe3IfNY3RUFWhhwZYw3FX2V6LQ2Pd6swsQDad
PjYfummS6q+Lj6P3IJCSCJZ5m1sb1fSLlqhTmD6lWpzc3qkUNkblXCJ/f3pRUNiq
zS1wedcgF/BlDtKF88b5hrA2cQxfE9xadxGj9w==
-----END CERTIFICATE-----
