Certificate:
    Data:
        Version: 3 (0x2)
        Serial Number:
            ff:91:df:e8:86:ee:d0:9c:eb:75:8e:78:36:e8:52:99
        Signature Algorithm: sha256WithRSAEncryption
        Issuer: CN=team165-net
        Validity
            Not Before: Nov  4 11:30:52 2023 GMT
            Not After : Oct 19 11:30:52 2026 GMT
        Subject: CN=team165-client
        Subject Public Key Info:
            Public Key Algorithm: rsaEncryption
                Public-Key: (2048 bit)
                Modulus:
                    00:a5:c5:4a:fa:7a:f0:49:8b:69:98:91:3f:d8:48:
                    34:23:e4:c9:6a:02:d2:30:ce:b9:92:95:c1:03:a1:
                    29:36:da:2a:7e:ce:63:95:0c:2e:cd:b3:cd:e9:c5:
                    c2:f2:64:47:82:c5:af:79:cb:6c:a5:ce:c4:5a:3c:
                    c1:b9:31:5d:66:99:84:9a:f0:f9:a1:34:f3:cf:28:
                    7d:34:00:a4:61:74:a7:75:04:78:08:23:22:24:7e:
                    39:80:05:d8:17:48:75:57:7f:a2:80:12:93:76:74:
                    78:6f:8d:38:e1:a0:e5:0a:7f:18:ea:9f:e0:98:14:
                    74:40:34:c6:e3:55:e7:55:43:1b:71:37:95:73:af:
                    14:df:c3:67:e4:55:bf:08:7f:49:9b:0a:f3:06:b3:
                    cd:d3:b9:03:8d:1d:51:dd:21:1d:30:a3:22:74:10:
                    eb:9e:86:9e:23:91:fe:7a:61:cb:4b:0e:6a:39:b5:
                    27:95:a9:f4:1c:75:68:84:8f:4f:d5:a4:fe:a4:01:
                    17:c1:6e:b9:89:5b:42:23:27:88:ea:59:d0:5f:22:
                    3f:0b:42:27:37:46:38:d0:8c:87:26:0a:f4:9d:a7:
                    58:aa:4c:d0:c6:fd:59:30:7b:f9:f7:0b:16:84:ef:
                    da:cf:9a:eb:be:ac:71:a8:61:11:23:b0:cb:b0:1c:
                    1e:15
                Exponent: 65537 (0x10001)
        X509v3 extensions:
            X509v3 Basic Constraints: 
                CA:FALSE
            X509v3 Subject Key Identifier: 
                11:70:9B:DB:75:0E:20:F3:0D:20:D2:A0:9C:4F:B0:D3:F0:C9:E4:89
            X509v3 Authority Key Identifier: 
                keyid:04:6A:2E:0C:4E:18:A9:82:A5:EA:AA:88:EE:86:AF:1E:8A:24:F9:D3
                DirName:/CN=team165-net
                serial:5D:19:20:EF:08:1B:EE:F8:C0:94:93:2B:09:83:0D:18:76:0B:A9:DB
            X509v3 Extended Key Usage: 
                TLS Web Client Authentication
            X509v3 Key Usage: 
                Digital Signature
    Signature Algorithm: sha256WithRSAEncryption
    Signature Value:
        29:a4:b7:00:ff:94:1c:97:83:c5:cc:2e:d1:ce:5f:d8:45:9b:
        6f:16:01:46:3e:cb:ce:b6:a9:e2:01:0d:71:ef:81:bc:0d:ed:
        c1:ea:6e:55:36:13:aa:f3:6c:2a:4d:31:31:be:97:08:a7:e0:
        8d:7b:5f:10:e6:1c:7d:5d:04:b5:41:12:70:86:88:c4:6c:8c:
        1e:c6:59:4b:c5:f8:d7:4d:00:9a:a1:4a:e6:47:2a:52:07:91:
        52:04:8b:7e:58:e0:95:a7:ec:8b:94:b1:53:84:bc:ac:26:83:
        bb:1e:04:f2:68:c2:7a:1f:b9:01:13:b0:65:58:ca:7c:23:09:
        45:69:b1:57:b1:92:99:c3:62:3c:e8:fc:d3:02:2c:a1:28:92:
        04:51:16:e4:ce:c2:21:58:07:24:78:d4:4a:a8:ea:eb:9f:0c:
        dc:86:cf:35:ff:df:c7:35:28:36:f6:5a:62:2e:57:a9:25:92:
        14:83:14:84:3f:3e:65:88:8d:66:84:38:5f:23:f2:c0:9b:83:
        1e:72:74:10:d8:33:b0:46:be:e5:1c:22:9f:48:99:c3:6c:ea:
        26:74:42:4c:18:5e:9b:5a:6e:ab:e5:3c:07:31:1c:a3:38:34:
        a2:d9:24:ed:37:b7:f7:19:ce:84:8e:a3:04:1d:75:a7:fc:a7:
        ea:4f:80:d5
-----BEGIN CERTIFICATE-----
MIIDXTCCAkWgAwIBAgIRAP+R3+iG7tCc63WOeDboUpkwDQYJKoZIhvcNAQELBQAw
FjEUMBIGA1UEAwwLdGVhbTE2NS1uZXQwHhcNMjMxMTA0MTEzMDUyWhcNMjYxMDE5
MTEzMDUyWjAZMRcwFQYDVQQDDA50ZWFtMTY1LWNsaWVudDCCASIwDQYJKoZIhvcN
AQEBBQADggEPADCCAQoCggEBAKXFSvp68EmLaZiRP9hINCPkyWoC0jDOuZKVwQOh
KTbaKn7OY5UMLs2zzenFwvJkR4LFr3nLbKXOxFo8wbkxXWaZhJrw+aE0888ofTQA
pGF0p3UEeAgjIiR+OYAF2BdIdVd/ooASk3Z0eG+NOOGg5Qp/GOqf4JgUdEA0xuNV
51VDG3E3lXOvFN/DZ+RVvwh/SZsK8wazzdO5A40dUd0hHTCjInQQ656GniOR/nph
y0sOajm1J5Wp9Bx1aISPT9Wk/qQBF8FuuYlbQiMniOpZ0F8iPwtCJzdGONCMhyYK
9J2nWKpM0Mb9WTB7+fcLFoTv2s+a676scahhESOwy7AcHhUCAwEAAaOBojCBnzAJ
BgNVHRMEAjAAMB0GA1UdDgQWBBQRcJvbdQ4g8w0g0qCcT7DT8MnkiTBRBgNVHSME
SjBIgBQEai4MThipgqXqqojuhq8eiiT506EapBgwFjEUMBIGA1UEAwwLdGVhbTE2
NS1uZXSCFF0ZIO8IG+74wJSTKwmDDRh2C6nbMBMGA1UdJQQMMAoGCCsGAQUFBwMC
MAsGA1UdDwQEAwIHgDANBgkqhkiG9w0BAQsFAAOCAQEAKaS3AP+UHJeDxcwu0c5f
2EWbbxYBRj7Lzrap4gENce+BvA3twepuVTYTqvNsKk0xMb6XCKfgjXtfEOYcfV0E
tUEScIaIxGyMHsZZS8X4100AmqFK5kcqUgeRUgSLfljglafsi5SxU4S8rCaDux4E
8mjCeh+5AROwZVjKfCMJRWmxV7GSmcNiPOj80wIsoSiSBFEW5M7CIVgHJHjUSqjq
658M3IbPNf/fxzUoNvZaYi5XqSWSFIMUhD8+ZYiNZoQ4XyPywJuDHnJ0ENgzsEa+
5Rwin0iZw2zqJnRCTBhem1puq+U8BzEcozg0otkk7Te39xnOhI6jBB11p/yn6k+A
1Q==
-----END CERTIFICATE-----
