Certificate:
    Data:
        Version: 3 (0x2)
        Serial Number:
            1b:ed:83:fa:3a:9c:c3:a3:85:42:3d:f7:c9:22:fb:5f
        Signature Algorithm: sha256WithRSAEncryption
        Issuer: CN=team315-net
        Validity
            Not Before: Nov  3 20:44:59 2023 GMT
            Not After : Oct 18 20:44:59 2026 GMT
        Subject: CN=team315-client
        Subject Public Key Info:
            Public Key Algorithm: rsaEncryption
                Public-Key: (2048 bit)
                Modulus:
                    00:c5:74:d1:4e:8e:e0:94:53:61:71:4b:df:a4:60:
                    2e:1a:9d:78:9f:50:a5:b0:e5:3c:57:9f:88:b9:b1:
                    4c:4d:ae:30:0c:52:4b:1f:d8:27:fd:9f:f4:d5:10:
                    6c:f3:bb:49:72:25:fc:8c:11:ea:c4:49:cc:b2:b6:
                    34:10:98:6f:b5:56:da:9b:29:b8:5d:41:51:7c:fd:
                    4b:1f:97:cf:53:15:e7:36:86:a6:c7:90:c2:2a:f2:
                    eb:11:28:28:1f:8e:05:65:5e:6d:65:53:ab:08:4d:
                    e5:1b:bc:7b:9b:e9:7e:fb:20:39:0c:58:e8:ef:6d:
                    ab:8c:ab:63:03:73:28:8c:d0:d1:da:12:54:c8:4f:
                    3a:c7:4e:b9:2d:ec:3e:59:3b:28:bd:dd:1c:00:ae:
                    4a:1c:1e:e6:6d:cb:05:2d:ed:ee:dc:99:68:79:0a:
                    5d:d8:99:f8:70:8a:22:2c:4c:0c:5c:75:bf:c9:ae:
                    71:af:31:b7:87:71:88:36:a7:52:b9:86:8b:d8:2f:
                    7b:4b:c0:03:b1:b2:b1:fb:c0:e7:06:3e:40:09:95:
                    73:96:bb:be:1a:bd:69:f9:ce:31:a8:34:2c:21:7a:
                    e9:60:a6:bf:af:fb:0a:1a:64:f6:a6:27:9a:38:ef:
                    25:4d:63:ec:61:f6:88:df:5a:48:80:d1:54:47:3e:
                    74:4d
                Exponent: 65537 (0x10001)
        X509v3 extensions:
            X509v3 Basic Constraints: 
                CA:FALSE
            X509v3 Subject Key Identifier: 
                5F:B7:FB:CD:FE:9B:F6:84:4A:76:12:1F:DD:DD:ED:73:6C:83:A0:7A
            X509v3 Authority Key Identifier: 
                keyid:34:D5:89:CC:64:FC:28:07:0A:FE:29:4D:F1:5E:40:EB:4F:0B:6C:9D
                DirName:/CN=team315-net
                serial:4B:4E:CA:AD:AB:B8:5F:EF:99:0F:75:08:6C:83:92:AC:73:F5:2C:45
            X509v3 Extended Key Usage: 
                TLS Web Client Authentication
            X509v3 Key Usage: 
                Digital Signature
    Signature Algorithm: sha256WithRSAEncryption
    Signature Value:
        4e:3f:89:00:6f:f1:71:bf:0a:37:18:8d:45:2f:3f:c2:7d:7b:
        f0:81:44:40:87:2b:e5:24:5f:d8:ce:1f:5b:92:40:1a:26:17:
        39:7f:83:6f:24:8f:50:d4:82:69:47:7a:51:b0:ff:ce:3d:49:
        b0:08:40:8c:b8:5f:35:05:68:dd:64:13:4b:b5:a3:c1:2f:06:
        d3:63:25:c8:a5:cf:8b:50:6d:37:95:2d:6d:7c:62:b8:33:3a:
        e3:76:f6:5e:62:2e:07:82:17:a1:e5:f1:81:09:8b:b6:e2:d6:
        09:7e:ec:ab:a5:80:1e:54:8e:6f:fd:f8:49:00:cc:d1:cf:9e:
        ee:2a:0b:74:c2:72:f2:99:0a:27:47:1f:96:82:bb:72:cc:71:
        da:bb:b5:3e:92:42:b9:29:d5:05:ef:1e:80:e0:fa:31:4c:de:
        a8:1a:e4:85:ac:48:bf:ee:32:c9:67:9b:8b:59:b7:ee:26:3b:
        55:58:94:7a:d6:71:c3:10:fb:7c:53:14:41:6d:dc:3f:72:5a:
        ac:7a:6a:87:e9:62:45:cf:02:0a:42:f6:c4:15:f5:c7:7d:fb:
        c1:d0:05:7f:fe:a0:77:38:b0:b0:d6:d6:78:0a:1a:cb:cd:ee:
        06:f5:2d:1d:98:c6:6a:ff:52:00:9b:7f:0c:9a:03:30:fc:7e:
        31:63:70:dd
-----BEGIN CERTIFICATE-----
MIIDXDCCAkSgAwIBAgIQG+2D+jqcw6OFQj33ySL7XzANBgkqhkiG9w0BAQsFADAW
MRQwEgYDVQQDDAt0ZWFtMzE1LW5ldDAeFw0yMzExMDMyMDQ0NTlaFw0yNjEwMTgy
MDQ0NTlaMBkxFzAVBgNVBAMMDnRlYW0zMTUtY2xpZW50MIIBIjANBgkqhkiG9w0B
AQEFAAOCAQ8AMIIBCgKCAQEAxXTRTo7glFNhcUvfpGAuGp14n1ClsOU8V5+IubFM
Ta4wDFJLH9gn/Z/01RBs87tJciX8jBHqxEnMsrY0EJhvtVbamym4XUFRfP1LH5fP
UxXnNoamx5DCKvLrESgoH44FZV5tZVOrCE3lG7x7m+l++yA5DFjo722rjKtjA3Mo
jNDR2hJUyE86x065Lew+WTsovd0cAK5KHB7mbcsFLe3u3JloeQpd2Jn4cIoiLEwM
XHW/ya5xrzG3h3GINqdSuYaL2C97S8ADsbKx+8DnBj5ACZVzlru+Gr1p+c4xqDQs
IXrpYKa/r/sKGmT2pieaOO8lTWPsYfaI31pIgNFURz50TQIDAQABo4GiMIGfMAkG
A1UdEwQCMAAwHQYDVR0OBBYEFF+3+83+m/aESnYSH93d7XNsg6B6MFEGA1UdIwRK
MEiAFDTVicxk/CgHCv4pTfFeQOtPC2ydoRqkGDAWMRQwEgYDVQQDDAt0ZWFtMzE1
LW5ldIIUS07Krau4X++ZD3UIbIOSrHP1LEUwEwYDVR0lBAwwCgYIKwYBBQUHAwIw
CwYDVR0PBAQDAgeAMA0GCSqGSIb3DQEBCwUAA4IBAQBOP4kAb/Fxvwo3GI1FLz/C
fXvwgURAhyvlJF/Yzh9bkkAaJhc5f4NvJI9Q1IJpR3pRsP/OPUmwCECMuF81BWjd
ZBNLtaPBLwbTYyXIpc+LUG03lS1tfGK4MzrjdvZeYi4Hgheh5fGBCYu24tYJfuyr
pYAeVI5v/fhJAMzRz57uKgt0wnLymQonRx+WgrtyzHHau7U+kkK5KdUF7x6A4Pox
TN6oGuSFrEi/7jLJZ5uLWbfuJjtVWJR61nHDEPt8UxRBbdw/clqsemqH6WJFzwIK
QvbEFfXHffvB0AV//qB3OLCw1tZ4ChrLze4G9S0dmMZq/1IAm38MmgMw/H4xY3Dd
-----END CERTIFICATE-----
