Certificate:
    Data:
        Version: 3 (0x2)
        Serial Number:
            ac:51:24:39:78:dc:a6:4b:c9:a2:3d:1a:4c:a7:ed:23
        Signature Algorithm: sha256WithRSAEncryption
        Issuer: CN=team351-net
        Validity
            Not Before: Nov  4 10:47:01 2023 GMT
            Not After : Oct 19 10:47:01 2026 GMT
        Subject: CN=team351-client
        Subject Public Key Info:
            Public Key Algorithm: rsaEncryption
                Public-Key: (2048 bit)
                Modulus:
                    00:9c:f3:c4:b5:d5:7a:ba:9d:e2:f2:15:27:e0:8e:
                    c5:68:c2:b1:91:c7:e2:19:d4:be:b5:67:5c:4f:e9:
                    7c:aa:9d:1f:5c:c7:c2:09:9c:e2:e3:8c:ac:3d:82:
                    fa:e0:63:c7:0f:a8:ed:35:b3:3d:ff:40:64:75:18:
                    67:14:c5:c8:8d:b8:2a:4d:e7:3b:af:51:6c:82:df:
                    c2:0e:dc:85:af:87:31:d4:04:a4:8c:37:53:c3:c0:
                    f8:ce:71:3c:d3:cc:3b:66:60:35:56:c1:44:5b:de:
                    b9:87:be:c2:f1:76:34:1b:bf:29:d3:51:49:84:e2:
                    35:8d:6d:0e:4d:c5:59:9c:53:bd:c4:4c:e7:4b:de:
                    3b:f8:c4:36:82:89:76:7f:97:6c:2c:f0:53:58:29:
                    22:cf:45:44:53:6c:1a:7a:bb:21:a4:20:f6:d6:01:
                    14:0e:cd:fd:c3:31:d9:ad:15:c6:e3:74:38:66:ef:
                    c8:2f:fe:a8:a1:70:5b:e4:b9:44:a8:6c:93:bf:db:
                    4a:73:50:49:03:c1:14:f4:06:c3:2b:b7:a2:39:60:
                    c1:94:29:19:b3:2d:7c:4c:eb:34:8d:c0:35:d9:2e:
                    25:4d:f3:2d:51:72:70:62:b8:3a:7b:5a:10:c9:01:
                    95:10:9d:e0:18:d5:00:d5:d3:81:5c:f2:ef:e6:95:
                    03:83
                Exponent: 65537 (0x10001)
        X509v3 extensions:
            X509v3 Basic Constraints: 
                CA:FALSE
            X509v3 Subject Key Identifier: 
                BA:F8:BB:47:FC:CC:D6:62:86:C9:C3:43:6C:A8:D9:62:9A:0E:F8:2D
            X509v3 Authority Key Identifier: 
                keyid:68:D6:FB:44:2A:DF:4B:73:14:72:E1:C5:52:DB:C8:75:0F:7A:65:31
                DirName:/CN=team351-net
                serial:01:66:26:84:81:62:73:2B:C0:6D:13:9C:95:A4:90:6C:3F:46:89:AF
            X509v3 Extended Key Usage: 
                TLS Web Client Authentication
            X509v3 Key Usage: 
                Digital Signature
    Signature Algorithm: sha256WithRSAEncryption
    Signature Value:
        33:8e:61:8c:41:89:fb:67:5f:a3:29:85:ef:d4:78:19:8e:14:
        29:ec:a1:4d:8d:72:f1:70:0a:61:0c:c1:2d:ab:e0:87:c3:43:
        fe:c0:45:8b:ce:4b:8e:fc:2e:62:77:d2:23:fd:7e:e4:fc:5b:
        dd:28:04:f2:02:7c:cf:30:ae:7a:43:e4:3c:b9:60:74:92:14:
        86:d2:53:62:d1:5a:25:49:4e:3a:e2:05:f1:0f:64:3d:53:90:
        0b:20:b8:2f:63:c7:8b:5d:79:70:ac:28:1f:20:b6:e4:43:0f:
        9a:87:e3:1c:3f:ab:57:c7:65:92:6e:1b:73:99:bd:c1:96:52:
        41:7a:3c:47:c2:f4:d7:3c:27:6f:ff:96:54:34:1f:d3:70:70:
        40:da:a3:80:ae:99:73:b5:3c:be:a7:01:be:c8:09:81:79:a6:
        66:6b:87:59:82:48:a0:df:26:40:c2:65:80:ea:28:95:10:69:
        49:6b:35:82:15:ab:b2:5e:9f:e3:95:34:eb:61:d1:5a:28:78:
        89:66:56:d5:fd:3c:41:35:fc:17:37:03:81:0b:68:2c:53:9b:
        98:2f:e5:11:1b:b3:87:90:18:23:73:bf:65:54:05:a8:23:9c:
        e6:53:e7:c7:0c:53:4b:70:8b:b9:27:19:c0:98:e4:2e:f7:17:
        87:3e:2b:2a
-----BEGIN CERTIFICATE-----
MIIDXTCCAkWgAwIBAgIRAKxRJDl43KZLyaI9Gkyn7SMwDQYJKoZIhvcNAQELBQAw
FjEUMBIGA1UEAwwLdGVhbTM1MS1uZXQwHhcNMjMxMTA0MTA0NzAxWhcNMjYxMDE5
MTA0NzAxWjAZMRcwFQYDVQQDDA50ZWFtMzUxLWNsaWVudDCCASIwDQYJKoZIhvcN
AQEBBQADggEPADCCAQoCggEBAJzzxLXVerqd4vIVJ+COxWjCsZHH4hnUvrVnXE/p
fKqdH1zHwgmc4uOMrD2C+uBjxw+o7TWzPf9AZHUYZxTFyI24Kk3nO69RbILfwg7c
ha+HMdQEpIw3U8PA+M5xPNPMO2ZgNVbBRFveuYe+wvF2NBu/KdNRSYTiNY1tDk3F
WZxTvcRM50veO/jENoKJdn+XbCzwU1gpIs9FRFNsGnq7IaQg9tYBFA7N/cMx2a0V
xuN0OGbvyC/+qKFwW+S5RKhsk7/bSnNQSQPBFPQGwyu3ojlgwZQpGbMtfEzrNI3A
NdkuJU3zLVFycGK4OntaEMkBlRCd4BjVANXTgVzy7+aVA4MCAwEAAaOBojCBnzAJ
BgNVHRMEAjAAMB0GA1UdDgQWBBS6+LtH/MzWYobJw0NsqNlimg74LTBRBgNVHSME
SjBIgBRo1vtEKt9LcxRy4cVS28h1D3plMaEapBgwFjEUMBIGA1UEAwwLdGVhbTM1
MS1uZXSCFAFmJoSBYnMrwG0TnJWkkGw/RomvMBMGA1UdJQQMMAoGCCsGAQUFBwMC
MAsGA1UdDwQEAwIHgDANBgkqhkiG9w0BAQsFAAOCAQEAM45hjEGJ+2dfoymF79R4
GY4UKeyhTY1y8XAKYQzBLavgh8ND/sBFi85LjvwuYnfSI/1+5Pxb3SgE8gJ8zzCu
ekPkPLlgdJIUhtJTYtFaJUlOOuIF8Q9kPVOQCyC4L2PHi115cKwoHyC25EMPmofj
HD+rV8dlkm4bc5m9wZZSQXo8R8L01zwnb/+WVDQf03BwQNqjgK6Zc7U8vqcBvsgJ
gXmmZmuHWYJIoN8mQMJlgOoolRBpSWs1ghWrsl6f45U062HRWih4iWZW1f08QTX8
FzcDgQtoLFObmC/lERuzh5AYI3O/ZVQFqCOc5lPnxwxTS3CLuScZwJjkLvcXhz4r
Kg==
-----END CERTIFICATE-----
