Certificate:
    Data:
        Version: 3 (0x2)
        Serial Number:
            b5:b4:bd:a6:b4:ae:e4:be:32:6a:c7:3c:b2:8c:ec:7f
        Signature Algorithm: sha256WithRSAEncryption
        Issuer: CN=team351-net
        Validity
            Not Before: Nov  4 11:35:13 2023 GMT
            Not After : Oct 19 11:35:13 2026 GMT
        Subject: CN=team351-client
        Subject Public Key Info:
            Public Key Algorithm: rsaEncryption
                Public-Key: (2048 bit)
                Modulus:
                    00:b5:05:30:8d:7d:1b:65:39:2c:7a:3a:54:78:9b:
                    9b:2f:b6:ae:4f:87:55:fe:74:4a:ae:fd:6b:6b:50:
                    f9:0a:ab:a6:01:4f:6e:1a:b3:fa:b0:7b:6a:fe:f8:
                    6d:f6:7a:02:61:1f:00:db:d8:16:98:2f:0a:fb:35:
                    83:76:8a:d8:50:b0:ba:50:eb:4f:56:3b:e2:06:b6:
                    c5:3e:eb:d7:ac:14:a8:b5:05:85:14:11:4a:64:34:
                    47:07:cc:89:d4:70:e6:e4:d9:8d:59:a2:70:77:ae:
                    bd:6f:57:79:e4:65:c1:e3:6f:36:57:a4:8f:d5:72:
                    9d:27:20:ec:81:58:3c:8c:8b:ee:48:50:40:67:a1:
                    f9:78:a9:e3:2a:63:0d:cc:fb:bc:0e:8a:2e:bb:64:
                    f0:0c:62:0c:c7:49:2d:c0:84:c0:81:a8:85:e5:62:
                    5a:18:97:9b:41:3a:61:49:b8:e1:1d:d4:9e:c2:05:
                    af:66:00:f2:7c:c8:ab:09:fd:0e:db:b6:e9:da:41:
                    8a:e4:04:23:50:c5:a6:08:45:54:88:24:41:fa:31:
                    32:55:28:bd:14:82:e9:d9:b0:e7:16:43:52:87:4b:
                    e6:ef:f9:8a:0c:09:66:13:8e:17:7f:ac:5b:97:01:
                    4b:dd:ba:96:17:8e:19:6d:e3:e4:08:04:e4:a7:3b:
                    8f:fb
                Exponent: 65537 (0x10001)
        X509v3 extensions:
            X509v3 Basic Constraints: 
                CA:FALSE
            X509v3 Subject Key Identifier: 
                82:DF:7E:4E:BA:8D:C0:00:CE:90:58:06:D3:58:EE:B4:C3:CB:21:D6
            X509v3 Authority Key Identifier: 
                keyid:22:A9:60:90:FE:B9:79:5A:AC:BA:80:17:87:17:0E:D5:9E:40:2F:36
                DirName:/CN=team351-net
                serial:6F:EC:8D:75:28:2C:DA:D2:13:71:03:FD:4F:B9:4A:7D:B9:D7:B1:BE
            X509v3 Extended Key Usage: 
                TLS Web Client Authentication
            X509v3 Key Usage: 
                Digital Signature
    Signature Algorithm: sha256WithRSAEncryption
    Signature Value:
        57:7c:47:bf:a7:0e:61:61:61:57:58:7b:92:70:1e:09:61:75:
        f7:b3:1c:24:2d:c8:a3:5f:c1:65:cb:61:c4:86:02:49:5c:96:
        c5:cb:97:d8:0e:dc:02:cc:ec:fe:03:13:66:42:b0:8b:b3:3c:
        5d:48:62:0c:56:ca:10:a3:e8:57:c4:d2:1d:d5:a5:ff:b6:05:
        f9:9a:92:04:35:69:4f:ca:05:6f:c9:56:87:24:b1:e2:63:34:
        ba:0c:e7:47:aa:ec:23:a1:64:bd:ef:8e:29:f0:66:10:08:1e:
        8f:bc:a7:2a:16:fb:81:1e:ff:85:d2:72:32:97:27:2a:cf:54:
        8f:09:90:cf:91:9a:03:3e:29:78:26:28:92:51:93:ed:14:6e:
        ed:65:3b:1c:59:6c:84:00:28:10:e3:4c:d4:24:73:1d:d5:5f:
        65:bd:f3:22:68:74:a1:6b:62:d4:66:f5:3b:95:ac:71:1d:dc:
        b8:d6:52:5d:d9:49:c2:8b:5a:e5:ce:41:37:3d:59:ec:e8:9f:
        2e:92:8d:18:11:70:12:da:3b:cc:bb:dd:52:7d:20:66:e5:b8:
        a9:54:a4:90:d3:b7:6f:88:cd:34:52:2c:b1:18:93:54:fd:e5:
        e4:60:6f:37:04:97:e6:27:aa:84:e2:b8:eb:92:ad:d9:45:6f:
        b2:52:38:81
-----BEGIN CERTIFICATE-----
MIIDXTCCAkWgAwIBAgIRALW0vaa0ruS+MmrHPLKM7H8wDQYJKoZIhvcNAQELBQAw
FjEUMBIGA1UEAwwLdGVhbTM1MS1uZXQwHhcNMjMxMTA0MTEzNTEzWhcNMjYxMDE5
MTEzNTEzWjAZMRcwFQYDVQQDDA50ZWFtMzUxLWNsaWVudDCCASIwDQYJKoZIhvcN
AQEBBQADggEPADCCAQoCggEBALUFMI19G2U5LHo6VHibmy+2rk+HVf50Sq79a2tQ
+QqrpgFPbhqz+rB7av74bfZ6AmEfANvYFpgvCvs1g3aK2FCwulDrT1Y74ga2xT7r
16wUqLUFhRQRSmQ0RwfMidRw5uTZjVmicHeuvW9XeeRlweNvNlekj9VynScg7IFY
PIyL7khQQGeh+Xip4ypjDcz7vA6KLrtk8AxiDMdJLcCEwIGoheViWhiXm0E6YUm4
4R3UnsIFr2YA8nzIqwn9Dtu26dpBiuQEI1DFpghFVIgkQfoxMlUovRSC6dmw5xZD
UodL5u/5igwJZhOOF3+sW5cBS926lheOGW3j5AgE5Kc7j/sCAwEAAaOBojCBnzAJ
BgNVHRMEAjAAMB0GA1UdDgQWBBSC335Ouo3AAM6QWAbTWO60w8sh1jBRBgNVHSME
SjBIgBQiqWCQ/rl5Wqy6gBeHFw7VnkAvNqEapBgwFjEUMBIGA1UEAwwLdGVhbTM1
MS1uZXSCFG/sjXUoLNrSE3ED/U+5Sn2517G+MBMGA1UdJQQMMAoGCCsGAQUFBwMC
MAsGA1UdDwQEAwIHgDANBgkqhkiG9w0BAQsFAAOCAQEAV3xHv6cOYWFhV1h7knAe
CWF197McJC3Io1/BZcthxIYCSVyWxcuX2A7cAszs/gMTZkKwi7M8XUhiDFbKEKPo
V8TSHdWl/7YF+ZqSBDVpT8oFb8lWhySx4mM0ugznR6rsI6Fkve+OKfBmEAgej7yn
Khb7gR7/hdJyMpcnKs9UjwmQz5GaAz4peCYoklGT7RRu7WU7HFlshAAoEONM1CRz
HdVfZb3zImh0oWti1Gb1O5WscR3cuNZSXdlJwota5c5BNz1Z7OifLpKNGBFwEto7
zLvdUn0gZuW4qVSkkNO3b4jNNFIssRiTVP3l5GBvNwSX5ieqhOK465Kt2UVvslI4
gQ==
-----END CERTIFICATE-----
