Certificate:
    Data:
        Version: 3 (0x2)
        Serial Number:
            09:e5:d1:93:3b:55:52:61:53:33:79:09:34:f3:cf:cb
        Signature Algorithm: sha256WithRSAEncryption
        Issuer: CN=team377-net
        Validity
            Not Before: Nov  4 10:47:27 2023 GMT
            Not After : Oct 19 10:47:27 2026 GMT
        Subject: CN=team377-server
        Subject Public Key Info:
            Public Key Algorithm: rsaEncryption
                Public-Key: (2048 bit)
                Modulus:
                    00:b1:51:28:3a:6a:0c:9a:6c:57:59:e7:56:6c:1b:
                    7b:b4:22:4a:bc:dc:71:63:3e:43:11:12:2e:67:7a:
                    87:30:65:fd:fb:eb:1e:ed:5b:6b:c1:47:66:4b:c5:
                    98:60:92:d0:2a:89:87:b1:4a:88:fe:c3:06:a8:4c:
                    5d:48:86:e2:97:db:ad:d6:2b:dd:0e:b4:af:9b:f7:
                    fa:7b:f9:9c:89:12:eb:9d:b7:f0:bf:9f:c2:e7:04:
                    83:7b:92:cb:91:74:f4:62:e9:be:9b:37:6e:ea:72:
                    46:53:b7:7b:69:7d:d9:a8:43:bd:a5:49:3a:65:38:
                    d6:00:35:79:96:8b:f2:12:13:5e:55:37:30:9d:da:
                    06:6a:88:4f:03:e9:b0:7f:ed:70:8d:83:41:1e:3c:
                    98:63:ce:10:ee:aa:01:2f:64:8a:69:ed:8d:46:b6:
                    89:de:a6:63:5b:f6:16:90:e3:6b:70:29:8c:e8:8d:
                    fd:49:62:41:24:f3:b4:01:78:9b:96:ff:aa:82:39:
                    76:70:8b:a4:dc:7e:c2:45:3f:6d:0c:07:31:84:ea:
                    09:6f:79:12:0d:5e:8a:41:e4:f0:6e:25:8b:20:e9:
                    42:69:c0:e6:89:c7:ee:63:17:a8:da:05:cc:05:24:
                    a9:ae:57:3f:d9:7a:b1:1f:7e:3c:08:d6:1e:3d:77:
                    93:af
                Exponent: 65537 (0x10001)
        X509v3 extensions:
            X509v3 Basic Constraints: 
                CA:FALSE
            X509v3 Subject Key Identifier: 
                D9:1D:7B:DE:93:1D:63:BA:AF:D2:10:0C:4E:C4:3C:FF:11:17:E0:22
            X509v3 Authority Key Identifier: 
                keyid:A7:56:C6:AE:92:BA:28:C2:96:18:53:70:31:67:88:31:26:40:8B:9B
                DirName:/CN=team377-net
                serial:59:4B:81:B6:05:68:C1:09:52:C3:65:7F:C5:98:DE:F9:8D:E9:4E:4D
            X509v3 Extended Key Usage: 
                TLS Web Server Authentication
            X509v3 Key Usage: 
                Digital Signature, Key Encipherment
            X509v3 Subject Alternative Name: 
                DNS:team377-server
    Signature Algorithm: sha256WithRSAEncryption
    Signature Value:
        8d:f6:0d:a3:7d:7f:9f:f1:07:18:ee:05:86:32:e3:86:d8:65:
        8f:e7:0d:7c:51:e1:54:c4:57:30:cd:5a:d9:e9:b1:56:45:61:
        f2:85:3a:89:f6:ed:35:ea:e4:65:4f:27:5e:e1:94:33:82:d2:
        65:47:90:85:34:16:89:68:a4:a5:b0:bb:56:55:53:35:2a:d5:
        f8:23:fb:77:d2:c0:4f:44:04:fc:96:0a:8b:15:31:f3:0d:8f:
        82:f6:10:4b:70:90:c5:75:b4:b9:76:92:77:72:5e:0c:c9:13:
        92:d2:73:d6:23:89:c5:72:dc:fd:fa:f9:af:5d:3c:78:68:9d:
        05:38:64:cd:72:5c:51:3e:64:d8:50:68:a2:ed:08:79:c3:2d:
        70:e9:84:f2:d2:49:64:df:41:61:b4:ac:12:f5:52:ff:4e:0c:
        79:a5:e8:1f:cf:c7:2f:36:65:e6:c7:81:d2:83:18:9d:74:4b:
        d0:6f:c1:04:38:9c:be:7e:8a:e8:35:42:4a:e3:1a:48:14:40:
        d7:57:6c:3c:dd:74:5a:06:b0:e2:2c:ae:49:36:bb:de:27:9d:
        65:cc:0e:1b:cb:45:c3:36:fa:87:ed:b7:66:14:4d:19:1d:18:
        f6:f6:71:a2:96:a8:81:46:a7:27:3a:3e:30:61:5a:ae:8f:31:
        27:ad:c8:5c
-----BEGIN CERTIFICATE-----
MIIDdzCCAl+gAwIBAgIQCeXRkztVUmFTM3kJNPPPyzANBgkqhkiG9w0BAQsFADAW
MRQwEgYDVQQDDAt0ZWFtMzc3LW5ldDAeFw0yMzExMDQxMDQ3MjdaFw0yNjEwMTkx
MDQ3MjdaMBkxFzAVBgNVBAMMDnRlYW0zNzctc2VydmVyMIIBIjANBgkqhkiG9w0B
AQEFAAOCAQ8AMIIBCgKCAQEAsVEoOmoMmmxXWedWbBt7tCJKvNxxYz5DERIuZ3qH
MGX9++se7VtrwUdmS8WYYJLQKomHsUqI/sMGqExdSIbil9ut1ivdDrSvm/f6e/mc
iRLrnbfwv5/C5wSDe5LLkXT0Yum+mzdu6nJGU7d7aX3ZqEO9pUk6ZTjWADV5lovy
EhNeVTcwndoGaohPA+mwf+1wjYNBHjyYY84Q7qoBL2SKae2NRraJ3qZjW/YWkONr
cCmM6I39SWJBJPO0AXiblv+qgjl2cIuk3H7CRT9tDAcxhOoJb3kSDV6KQeTwbiWL
IOlCacDmicfuYxeo2gXMBSSprlc/2XqxH348CNYePXeTrwIDAQABo4G9MIG6MAkG
A1UdEwQCMAAwHQYDVR0OBBYEFNkde96THWO6r9IQDE7EPP8RF+AiMFEGA1UdIwRK
MEiAFKdWxq6SuijClhhTcDFniDEmQIuboRqkGDAWMRQwEgYDVQQDDAt0ZWFtMzc3
LW5ldIIUWUuBtgVowQlSw2V/xZje+Y3pTk0wEwYDVR0lBAwwCgYIKwYBBQUHAwEw
CwYDVR0PBAQDAgWgMBkGA1UdEQQSMBCCDnRlYW0zNzctc2VydmVyMA0GCSqGSIb3
DQEBCwUAA4IBAQCN9g2jfX+f8QcY7gWGMuOG2GWP5w18UeFUxFcwzVrZ6bFWRWHy
hTqJ9u016uRlTyde4ZQzgtJlR5CFNBaJaKSlsLtWVVM1KtX4I/t30sBPRAT8lgqL
FTHzDY+C9hBLcJDFdbS5dpJ3cl4MyROS0nPWI4nFctz9+vmvXTx4aJ0FOGTNclxR
PmTYUGii7Qh5wy1w6YTy0klk30FhtKwS9VL/Tgx5pegfz8cvNmXmx4HSgxiddEvQ
b8EEOJy+foroNUJK4xpIFEDXV2w83XRaBrDiLK5JNrveJ51lzA4by0XDNvqH7bdm
FE0ZHRj29nGilqiBRqcnOj4wYVqujzEnrchc
-----END CERTIFICATE-----
