Certificate:
    Data:
        Version: 3 (0x2)
        Serial Number:
            0a:95:a7:46:ff:99:31:63:06:26:ad:4b:e7:18:81:fb
        Signature Algorithm: sha256WithRSAEncryption
        Issuer: CN=team377-net
        Validity
            Not Before: Nov  4 11:35:55 2023 GMT
            Not After : Oct 19 11:35:55 2026 GMT
        Subject: CN=team377-client
        Subject Public Key Info:
            Public Key Algorithm: rsaEncryption
                Public-Key: (2048 bit)
                Modulus:
                    00:a6:9d:31:65:9a:9f:d3:b8:6d:1b:6e:49:ac:90:
                    09:b0:d5:cd:da:a2:63:e7:23:73:41:1d:27:ab:7b:
                    c6:de:81:74:ea:80:c8:31:eb:02:20:33:64:d7:b3:
                    fa:c8:2c:2f:5b:50:af:d7:5a:56:40:2f:55:c2:f6:
                    9c:08:fe:91:e3:ae:fb:67:3b:04:64:66:eb:61:fe:
                    74:2b:a0:45:b6:82:3a:16:eb:e3:8c:a7:94:0c:33:
                    eb:d7:43:92:d9:3b:fa:4c:84:05:04:f8:de:cd:31:
                    9a:b9:3c:ba:48:2b:cc:7c:7f:9f:ec:f5:6f:ff:a8:
                    2c:60:af:1d:43:59:ea:32:6b:d3:5d:d1:b6:bd:29:
                    12:1b:8c:64:10:8d:ca:ec:8e:9e:02:94:69:97:42:
                    e2:20:7d:f3:f5:cc:ee:ed:f9:fc:f3:3f:7d:c3:37:
                    78:c2:63:a5:3d:fc:c0:dc:b5:73:25:c2:43:02:68:
                    7c:bd:9d:40:6c:e3:1d:cf:5c:9e:15:c9:d9:2c:42:
                    0d:c6:1d:2a:5a:ac:8a:a8:15:2c:27:04:e8:a9:7c:
                    55:04:52:c4:52:c2:a9:80:a9:43:c1:60:87:c0:3c:
                    86:b8:10:88:4c:70:a2:fb:a6:9c:f0:61:0f:24:38:
                    aa:32:09:13:43:ca:93:a5:90:53:98:cb:f2:3c:1d:
                    77:03
                Exponent: 65537 (0x10001)
        X509v3 extensions:
            X509v3 Basic Constraints: 
                CA:FALSE
            X509v3 Subject Key Identifier: 
                50:26:75:67:42:E0:25:63:AB:0D:5D:49:8C:B7:D3:71:A1:2B:35:77
            X509v3 Authority Key Identifier: 
                keyid:C2:72:84:74:B3:C6:19:22:13:85:AD:EC:40:70:1A:41:01:C6:98:18
                DirName:/CN=team377-net
                serial:17:14:AC:9E:32:3B:31:FA:2F:B7:4F:01:58:BA:45:01:86:16:7F:69
            X509v3 Extended Key Usage: 
                TLS Web Client Authentication
            X509v3 Key Usage: 
                Digital Signature
    Signature Algorithm: sha256WithRSAEncryption
    Signature Value:
        5d:25:03:c2:48:c9:c6:73:22:80:a3:e3:b9:99:d8:ca:3e:d0:
        94:e4:ac:46:a7:46:bc:b7:24:1e:ca:60:5c:74:71:88:f5:0a:
        53:71:96:44:2f:59:51:5a:5b:c3:03:73:e3:25:59:db:54:34:
        17:09:9d:60:38:57:89:06:67:01:cd:5b:d0:66:c4:61:1a:e9:
        53:f6:66:c4:26:36:d6:9a:0b:e2:e7:e2:dc:b7:58:16:75:39:
        5e:df:48:aa:27:13:f9:b7:dc:e3:aa:ec:6e:d1:b0:be:c7:09:
        2d:f2:9e:5b:cd:cd:2e:1d:f3:db:ac:57:2c:d6:fb:00:6e:b2:
        23:5f:73:99:fb:fa:6f:dd:2e:9e:5c:e5:35:75:2b:4d:0d:3c:
        b6:66:fe:1d:62:3e:0a:e0:52:d8:49:fd:66:64:7d:bd:b1:69:
        0c:94:be:ac:ba:bc:bc:44:9f:37:76:44:ad:46:81:08:b0:ed:
        59:e7:d3:71:7e:33:89:d6:e3:12:e6:62:9f:db:ff:ad:f2:a0:
        64:77:5e:9f:65:11:2a:8c:f8:c8:af:03:67:82:43:b8:67:c0:
        b6:01:c2:53:ab:15:2f:27:fb:2f:d4:5f:ce:86:f1:16:d0:6b:
        11:cf:84:d0:9a:ec:f2:4b:87:f1:f3:30:9a:da:42:dd:23:99:
        0c:6e:fc:b1
-----BEGIN CERTIFICATE-----
MIIDXDCCAkSgAwIBAgIQCpWnRv+ZMWMGJq1L5xiB+zANBgkqhkiG9w0BAQsFADAW
MRQwEgYDVQQDDAt0ZWFtMzc3LW5ldDAeFw0yMzExMDQxMTM1NTVaFw0yNjEwMTkx
MTM1NTVaMBkxFzAVBgNVBAMMDnRlYW0zNzctY2xpZW50MIIBIjANBgkqhkiG9w0B
AQEFAAOCAQ8AMIIBCgKCAQEApp0xZZqf07htG25JrJAJsNXN2qJj5yNzQR0nq3vG
3oF06oDIMesCIDNk17P6yCwvW1Cv11pWQC9VwvacCP6R4677ZzsEZGbrYf50K6BF
toI6FuvjjKeUDDPr10OS2Tv6TIQFBPjezTGauTy6SCvMfH+f7PVv/6gsYK8dQ1nq
MmvTXdG2vSkSG4xkEI3K7I6eApRpl0LiIH3z9czu7fn88z99wzd4wmOlPfzA3LVz
JcJDAmh8vZ1AbOMdz1yeFcnZLEINxh0qWqyKqBUsJwToqXxVBFLEUsKpgKlDwWCH
wDyGuBCITHCi+6ac8GEPJDiqMgkTQ8qTpZBTmMvyPB13AwIDAQABo4GiMIGfMAkG
A1UdEwQCMAAwHQYDVR0OBBYEFFAmdWdC4CVjqw1dSYy303GhKzV3MFEGA1UdIwRK
MEiAFMJyhHSzxhkiE4Wt7EBwGkEBxpgYoRqkGDAWMRQwEgYDVQQDDAt0ZWFtMzc3
LW5ldIIUFxSsnjI7Mfovt08BWLpFAYYWf2kwEwYDVR0lBAwwCgYIKwYBBQUHAwIw
CwYDVR0PBAQDAgeAMA0GCSqGSIb3DQEBCwUAA4IBAQBdJQPCSMnGcyKAo+O5mdjK
PtCU5KxGp0a8tyQeymBcdHGI9QpTcZZEL1lRWlvDA3PjJVnbVDQXCZ1gOFeJBmcB
zVvQZsRhGulT9mbEJjbWmgvi5+Lct1gWdTle30iqJxP5t9zjquxu0bC+xwkt8p5b
zc0uHfPbrFcs1vsAbrIjX3OZ+/pv3S6eXOU1dStNDTy2Zv4dYj4K4FLYSf1mZH29
sWkMlL6sury8RJ83dkStRoEIsO1Z59NxfjOJ1uMS5mKf2/+t8qBkd16fZREqjPjI
rwNngkO4Z8C2AcJTqxUvJ/sv1F/OhvEW0GsRz4TQmuzyS4fx8zCa2kLdI5kMbvyx
-----END CERTIFICATE-----
