Certificate:
    Data:
        Version: 3 (0x2)
        Serial Number:
            11:8f:f9:eb:47:fa:2f:91:65:df:66:01:b8:b8:ff:d1
        Signature Algorithm: sha256WithRSAEncryption
        Issuer: CN=team377-net
        Validity
            Not Before: Nov  3 20:46:04 2023 GMT
            Not After : Oct 18 20:46:04 2026 GMT
        Subject: CN=team377-server
        Subject Public Key Info:
            Public Key Algorithm: rsaEncryption
                Public-Key: (2048 bit)
                Modulus:
                    00:ed:77:4f:f6:20:c3:7b:04:ee:49:84:dd:4f:0a:
                    1a:1d:ad:8d:90:8a:35:96:cc:36:3c:ac:f6:97:9d:
                    43:93:0c:6c:92:43:a4:a0:a8:e4:00:53:e1:46:f7:
                    20:5d:71:4a:96:1c:4c:2a:9f:5a:d2:0a:5e:a3:c7:
                    d8:41:a4:86:19:ad:31:55:63:04:ea:fa:0c:5d:5c:
                    6f:ac:47:51:0a:f7:54:ac:c8:ec:57:8d:e5:bf:b3:
                    a9:8e:6a:00:df:48:4e:1f:a2:08:27:cb:08:ec:4f:
                    62:7a:db:ed:04:5d:55:c1:6d:83:6e:1a:53:e3:64:
                    01:6b:a3:95:00:0c:da:f2:81:d9:4a:e6:04:21:98:
                    d9:85:9d:fd:ef:7f:15:42:d0:62:60:15:1d:38:cd:
                    83:b6:57:cf:92:f7:7d:93:4f:96:6f:aa:ab:cb:79:
                    15:10:0e:5c:45:bf:65:86:6e:13:9c:b2:00:c9:a6:
                    3d:e2:fa:94:de:05:8a:c2:e5:54:c0:41:4a:15:9d:
                    23:92:ca:01:e2:1e:27:de:86:e2:8e:d9:da:c4:2a:
                    43:c1:c7:01:28:d7:fd:46:28:51:69:37:de:88:fc:
                    f7:79:53:f5:e1:80:e3:df:95:a5:90:ab:a2:c1:f4:
                    85:ef:cd:84:07:31:b7:97:38:77:06:c4:8b:b4:1c:
                    18:bb
                Exponent: 65537 (0x10001)
        X509v3 extensions:
            X509v3 Basic Constraints: 
                CA:FALSE
            X509v3 Subject Key Identifier: 
                20:3E:3E:C7:4C:02:62:E3:E5:4E:B0:6B:30:D2:25:CE:EA:24:BE:26
            X509v3 Authority Key Identifier: 
                keyid:E0:4F:EB:83:C1:A5:42:8B:97:46:91:F1:2A:8D:98:6E:F5:0F:02:88
                DirName:/CN=team377-net
                serial:14:92:D8:D7:87:D6:18:4B:4F:AA:F3:F2:32:55:E8:98:72:3B:5B:BC
            X509v3 Extended Key Usage: 
                TLS Web Server Authentication
            X509v3 Key Usage: 
                Digital Signature, Key Encipherment
            X509v3 Subject Alternative Name: 
                DNS:team377-server
    Signature Algorithm: sha256WithRSAEncryption
    Signature Value:
        38:52:6e:6c:c7:49:8b:0c:43:bc:d4:aa:54:42:09:d7:36:fc:
        c7:10:70:84:cd:5a:b0:2e:9f:21:27:66:1c:74:99:b7:b2:91:
        0a:30:ef:e6:24:01:f1:98:2e:6b:d2:f7:79:04:b7:40:63:cd:
        09:89:6f:8a:ca:4d:a9:6a:db:0d:94:d7:de:3b:25:57:58:bb:
        0e:00:5a:8d:a0:a2:91:f8:98:38:00:cf:19:46:f8:ef:19:6e:
        74:57:4f:98:5a:58:61:eb:6f:58:5e:4e:62:1e:31:6c:94:f1:
        f5:62:81:b4:57:2a:9f:05:bf:9a:ce:04:1d:7c:fd:60:57:ef:
        ac:39:3f:97:df:51:f8:a1:2b:72:ff:4c:c2:33:ad:b2:a6:49:
        83:df:a0:85:3b:37:c2:ef:e3:93:af:1f:1e:23:bc:da:92:df:
        09:ce:5b:af:6b:70:4c:11:69:92:b9:10:1b:ea:04:d3:47:14:
        9b:74:31:92:d6:b6:e0:f5:fe:ec:c7:82:53:3c:42:4a:35:58:
        60:86:d3:94:4c:8a:09:f7:9b:a6:12:a3:fc:fe:56:c0:ff:12:
        f5:d7:65:e9:fb:42:f7:0e:cb:b8:35:12:b5:f8:f8:2b:9a:f7:
        c4:ef:0c:85:4b:be:cf:17:38:be:9f:88:17:0a:2a:4a:d2:1c:
        01:bc:9e:81
-----BEGIN CERTIFICATE-----
MIIDdzCCAl+gAwIBAgIQEY/560f6L5Fl32YBuLj/0TANBgkqhkiG9w0BAQsFADAW
MRQwEgYDVQQDDAt0ZWFtMzc3LW5ldDAeFw0yMzExMDMyMDQ2MDRaFw0yNjEwMTgy
MDQ2MDRaMBkxFzAVBgNVBAMMDnRlYW0zNzctc2VydmVyMIIBIjANBgkqhkiG9w0B
AQEFAAOCAQ8AMIIBCgKCAQEA7XdP9iDDewTuSYTdTwoaHa2NkIo1lsw2PKz2l51D
kwxskkOkoKjkAFPhRvcgXXFKlhxMKp9a0gpeo8fYQaSGGa0xVWME6voMXVxvrEdR
CvdUrMjsV43lv7OpjmoA30hOH6IIJ8sI7E9ietvtBF1VwW2DbhpT42QBa6OVAAza
8oHZSuYEIZjZhZ39738VQtBiYBUdOM2DtlfPkvd9k0+Wb6qry3kVEA5cRb9lhm4T
nLIAyaY94vqU3gWKwuVUwEFKFZ0jksoB4h4n3obijtnaxCpDwccBKNf9RihRaTfe
iPz3eVP14YDj35WlkKuiwfSF782EBzG3lzh3BsSLtBwYuwIDAQABo4G9MIG6MAkG
A1UdEwQCMAAwHQYDVR0OBBYEFCA+PsdMAmLj5U6wazDSJc7qJL4mMFEGA1UdIwRK
MEiAFOBP64PBpUKLl0aR8SqNmG71DwKIoRqkGDAWMRQwEgYDVQQDDAt0ZWFtMzc3
LW5ldIIUFJLY14fWGEtPqvPyMlXomHI7W7wwEwYDVR0lBAwwCgYIKwYBBQUHAwEw
CwYDVR0PBAQDAgWgMBkGA1UdEQQSMBCCDnRlYW0zNzctc2VydmVyMA0GCSqGSIb3
DQEBCwUAA4IBAQA4Um5sx0mLDEO81KpUQgnXNvzHEHCEzVqwLp8hJ2YcdJm3spEK
MO/mJAHxmC5r0vd5BLdAY80JiW+Kyk2patsNlNfeOyVXWLsOAFqNoKKR+Jg4AM8Z
RvjvGW50V0+YWlhh629YXk5iHjFslPH1YoG0VyqfBb+azgQdfP1gV++sOT+X31H4
oSty/0zCM62ypkmD36CFOzfC7+OTrx8eI7zakt8Jzluva3BMEWmSuRAb6gTTRxSb
dDGS1rbg9f7sx4JTPEJKNVhghtOUTIoJ95umEqP8/lbA/xL112Xp+0L3Dsu4NRK1
+PgrmvfE7wyFS77PFzi+n4gXCipK0hwBvJ6B
-----END CERTIFICATE-----
