Certificate:
    Data:
        Version: 3 (0x2)
        Serial Number:
            6c:55:83:eb:d5:82:33:a1:d5:6e:01:1d:14:c2:be:d2
        Signature Algorithm: sha256WithRSAEncryption
        Issuer: CN=team377-net
        Validity
            Not Before: Nov  4 10:47:27 2023 GMT
            Not After : Oct 19 10:47:27 2026 GMT
        Subject: CN=team377-client
        Subject Public Key Info:
            Public Key Algorithm: rsaEncryption
                Public-Key: (2048 bit)
                Modulus:
                    00:e4:d4:ba:fe:ed:bf:9f:78:37:5a:5f:a4:49:bf:
                    3e:6d:50:97:50:21:fe:43:7b:19:58:7c:7b:14:02:
                    7a:df:03:51:0a:ac:7b:09:14:95:12:6a:22:63:2a:
                    3c:08:1a:c8:66:82:9a:fb:6d:dc:bc:3c:07:25:c3:
                    29:7c:0f:90:53:4c:aa:2f:b8:32:af:dc:4a:b8:36:
                    76:6b:b9:8d:c2:6c:a8:23:9b:5f:69:a2:bd:4f:a3:
                    01:21:b6:35:69:1d:ae:24:27:a4:71:22:ab:38:3e:
                    fe:95:28:56:f1:12:bf:e2:fc:fa:bf:67:73:bb:0b:
                    a8:9e:d4:a5:8b:a2:01:1b:41:a7:18:a4:0b:18:47:
                    14:7e:e0:47:e2:9d:e6:49:6d:7f:f0:29:fb:c5:ac:
                    54:db:23:e0:e0:30:c1:9f:e4:26:89:d7:aa:d6:d5:
                    f3:e0:99:8f:1b:a7:d0:cb:74:ad:2c:21:be:8d:6e:
                    d2:67:c2:8d:c0:86:ec:e3:30:15:50:5a:fe:76:02:
                    80:26:44:e4:c8:d2:7a:27:b4:76:88:ef:d1:df:52:
                    04:db:a2:c1:45:d3:ac:da:ed:2a:fe:7d:0b:35:f3:
                    5b:07:cd:af:13:f6:69:b8:83:08:af:9c:af:22:ad:
                    4f:70:3a:29:c6:ec:f2:f2:03:de:da:43:b7:b7:0f:
                    76:f5
                Exponent: 65537 (0x10001)
        X509v3 extensions:
            X509v3 Basic Constraints: 
                CA:FALSE
            X509v3 Subject Key Identifier: 
                65:90:03:A3:49:0E:CD:AF:9E:43:7A:CF:07:BA:2F:EE:02:1B:08:68
            X509v3 Authority Key Identifier: 
                keyid:A7:56:C6:AE:92:BA:28:C2:96:18:53:70:31:67:88:31:26:40:8B:9B
                DirName:/CN=team377-net
                serial:59:4B:81:B6:05:68:C1:09:52:C3:65:7F:C5:98:DE:F9:8D:E9:4E:4D
            X509v3 Extended Key Usage: 
                TLS Web Client Authentication
            X509v3 Key Usage: 
                Digital Signature
    Signature Algorithm: sha256WithRSAEncryption
    Signature Value:
        49:30:5d:d7:d8:f4:e8:62:67:95:13:f1:b0:39:68:d7:e8:32:
        a0:81:53:e7:5c:0a:a5:d8:cc:21:80:d6:0b:58:e3:89:e7:a9:
        ab:a1:13:72:08:37:43:79:21:88:1a:18:d6:4b:3b:ee:3f:b5:
        40:02:ff:43:5c:95:f8:00:2e:31:5d:53:c4:8e:83:a8:d6:67:
        fb:67:b0:96:43:2a:c9:87:61:eb:29:c3:6a:e7:58:8c:c8:d1:
        ab:6f:aa:c3:05:8f:bb:aa:fd:31:15:aa:66:e3:7a:89:59:23:
        6a:fe:fe:c1:10:35:1d:54:9a:ed:92:24:6b:56:fc:ab:5a:7b:
        1d:eb:a6:72:6d:f2:f0:fc:dd:35:0e:69:14:7f:02:1e:08:fb:
        a2:7b:72:52:cc:83:1f:4b:6a:56:33:52:77:06:04:fd:e8:a2:
        f6:d0:9f:57:e5:e1:05:d6:fe:e0:18:3e:29:3d:8e:c6:e5:e6:
        cc:2d:6c:b4:c5:71:c6:ee:0e:f5:3b:0f:80:bb:f6:a3:dd:d4:
        1f:34:f0:36:b3:ac:49:93:dd:a3:bc:d4:a8:ba:db:89:8e:16:
        9e:e3:31:bb:ef:0c:cd:59:9f:89:8d:76:d1:45:53:30:76:0e:
        ee:64:8e:b2:ee:6a:df:2a:86:61:a1:97:b5:9b:c4:b6:95:83:
        15:1c:57:9e
-----BEGIN CERTIFICATE-----
MIIDXDCCAkSgAwIBAgIQbFWD69WCM6HVbgEdFMK+0jANBgkqhkiG9w0BAQsFADAW
MRQwEgYDVQQDDAt0ZWFtMzc3LW5ldDAeFw0yMzExMDQxMDQ3MjdaFw0yNjEwMTkx
MDQ3MjdaMBkxFzAVBgNVBAMMDnRlYW0zNzctY2xpZW50MIIBIjANBgkqhkiG9w0B
AQEFAAOCAQ8AMIIBCgKCAQEA5NS6/u2/n3g3Wl+kSb8+bVCXUCH+Q3sZWHx7FAJ6
3wNRCqx7CRSVEmoiYyo8CBrIZoKa+23cvDwHJcMpfA+QU0yqL7gyr9xKuDZ2a7mN
wmyoI5tfaaK9T6MBIbY1aR2uJCekcSKrOD7+lShW8RK/4vz6v2dzuwuontSli6IB
G0GnGKQLGEcUfuBH4p3mSW1/8Cn7xaxU2yPg4DDBn+Qmideq1tXz4JmPG6fQy3St
LCG+jW7SZ8KNwIbs4zAVUFr+dgKAJkTkyNJ6J7R2iO/R31IE26LBRdOs2u0q/n0L
NfNbB82vE/ZpuIMIr5yvIq1PcDopxuzy8gPe2kO3tw929QIDAQABo4GiMIGfMAkG
A1UdEwQCMAAwHQYDVR0OBBYEFGWQA6NJDs2vnkN6zwe6L+4CGwhoMFEGA1UdIwRK
MEiAFKdWxq6SuijClhhTcDFniDEmQIuboRqkGDAWMRQwEgYDVQQDDAt0ZWFtMzc3
LW5ldIIUWUuBtgVowQlSw2V/xZje+Y3pTk0wEwYDVR0lBAwwCgYIKwYBBQUHAwIw
CwYDVR0PBAQDAgeAMA0GCSqGSIb3DQEBCwUAA4IBAQBJMF3X2PToYmeVE/GwOWjX
6DKggVPnXAql2MwhgNYLWOOJ56mroRNyCDdDeSGIGhjWSzvuP7VAAv9DXJX4AC4x
XVPEjoOo1mf7Z7CWQyrJh2HrKcNq51iMyNGrb6rDBY+7qv0xFapm43qJWSNq/v7B
EDUdVJrtkiRrVvyrWnsd66ZybfLw/N01DmkUfwIeCPuie3JSzIMfS2pWM1J3BgT9
6KL20J9X5eEF1v7gGD4pPY7G5ebMLWy0xXHG7g71Ow+Au/aj3dQfNPA2s6xJk92j
vNSoutuJjhae4zG77wzNWZ+JjXbRRVMwdg7uZI6y7mrfKoZhoZe1m8S2lYMVHFee
-----END CERTIFICATE-----
