Certificate:
    Data:
        Version: 3 (0x2)
        Serial Number:
            0f:ed:36:b4:3a:15:6c:a8:71:a6:ac:43:8f:99:3b:a4
        Signature Algorithm: sha256WithRSAEncryption
        Issuer: CN=team398-net
        Validity
            Not Before: Nov  3 20:46:26 2023 GMT
            Not After : Oct 18 20:46:26 2026 GMT
        Subject: CN=team398-client
        Subject Public Key Info:
            Public Key Algorithm: rsaEncryption
                Public-Key: (2048 bit)
                Modulus:
                    00:9f:a7:7c:12:c1:5d:d8:0c:34:89:eb:77:e0:94:
                    bf:ea:84:a3:77:44:8d:fc:0c:81:6a:dd:e5:f7:bc:
                    81:88:63:62:08:93:3b:d9:41:25:6d:6b:e7:2e:2d:
                    55:61:a9:48:c3:15:d0:88:72:7b:07:f3:42:55:44:
                    c5:b1:a0:2b:f1:2c:30:f4:d0:36:54:aa:40:03:ad:
                    21:70:f2:0c:57:d1:ef:2f:45:25:e7:67:e4:d2:4e:
                    f5:48:3d:00:1b:8a:cd:9e:f4:f7:4b:e3:02:56:3f:
                    8c:99:d8:56:32:b8:0c:0d:26:7d:33:2f:62:60:1e:
                    12:e3:77:33:a5:2a:d5:de:6c:61:1b:23:d3:a4:bc:
                    2d:88:06:e7:91:e3:6f:22:f4:18:60:c1:3c:2f:bc:
                    f2:9d:8c:40:b0:d1:64:13:8e:0b:37:b8:70:af:01:
                    ae:56:5f:5c:8d:2b:38:a9:59:49:9a:a0:5c:bc:7a:
                    29:b8:9d:d8:fe:57:ff:4d:c8:3a:44:b8:0d:5b:49:
                    61:3f:c0:99:f8:dd:20:e6:2f:1d:cb:e3:53:8f:e3:
                    5d:9c:24:e4:19:31:06:42:cd:9c:9f:29:f1:40:a6:
                    72:aa:8b:01:f3:a2:91:59:48:ab:60:d8:2a:b3:dc:
                    fd:ce:6e:0a:13:d4:b0:2e:92:26:e3:ed:2a:00:85:
                    e0:e5
                Exponent: 65537 (0x10001)
        X509v3 extensions:
            X509v3 Basic Constraints: 
                CA:FALSE
            X509v3 Subject Key Identifier: 
                AA:2F:3C:5E:0A:A3:B0:B8:A5:A1:C2:DE:3F:65:F1:58:90:85:22:4B
            X509v3 Authority Key Identifier: 
                keyid:E0:E3:63:38:88:83:AA:B4:CB:EF:BD:AA:A7:7E:90:5D:4C:C1:AF:60
                DirName:/CN=team398-net
                serial:71:21:AD:76:09:DB:A1:06:15:AE:7B:0B:92:6C:32:FB:59:62:27:4F
            X509v3 Extended Key Usage: 
                TLS Web Client Authentication
            X509v3 Key Usage: 
                Digital Signature
    Signature Algorithm: sha256WithRSAEncryption
    Signature Value:
        42:0a:51:f8:f7:4c:6c:62:cf:36:be:b9:ef:3f:4f:0d:e1:89:
        12:da:fa:aa:38:0c:be:d1:d1:11:5c:7b:ca:81:79:bc:a6:1d:
        6f:50:62:aa:9d:df:7d:ba:68:84:0b:a3:f3:6a:39:a7:e4:f5:
        86:a2:b8:55:56:7f:85:3e:70:96:7f:a4:51:7a:38:01:d5:60:
        62:fd:54:51:c0:6c:ba:81:ce:3c:47:8e:3d:3f:ce:ab:f6:64:
        c4:30:d4:d4:0d:e3:a6:24:4a:a3:40:20:17:9a:fb:63:f3:85:
        73:97:cd:90:1d:13:42:ff:59:0b:66:44:74:d8:3d:6d:2c:2f:
        70:ea:02:4e:d3:91:e6:7e:99:21:79:66:eb:74:16:04:41:29:
        96:97:f9:8a:8a:75:22:6a:d7:f5:24:76:7e:51:f3:8c:e3:a3:
        45:c9:b8:a7:71:1b:7a:47:98:f3:6a:47:8f:9e:15:58:1e:be:
        b1:fc:87:9d:d8:f9:94:72:5a:74:76:f8:04:ed:ee:9f:c2:42:
        6c:54:d6:08:f5:5f:04:df:0e:e7:a8:4d:cd:7c:1f:32:5c:61:
        df:b6:9c:1c:54:c5:30:00:07:dc:4c:e5:3c:7d:56:35:64:55:
        04:2b:bb:75:23:db:27:4c:b4:32:3a:1a:15:f7:8c:ae:ea:a9:
        cd:01:74:6f
-----BEGIN CERTIFICATE-----
MIIDXDCCAkSgAwIBAgIQD+02tDoVbKhxpqxDj5k7pDANBgkqhkiG9w0BAQsFADAW
MRQwEgYDVQQDDAt0ZWFtMzk4LW5ldDAeFw0yMzExMDMyMDQ2MjZaFw0yNjEwMTgy
MDQ2MjZaMBkxFzAVBgNVBAMMDnRlYW0zOTgtY2xpZW50MIIBIjANBgkqhkiG9w0B
AQEFAAOCAQ8AMIIBCgKCAQEAn6d8EsFd2Aw0iet34JS/6oSjd0SN/AyBat3l97yB
iGNiCJM72UElbWvnLi1VYalIwxXQiHJ7B/NCVUTFsaAr8Sww9NA2VKpAA60hcPIM
V9HvL0Ul52fk0k71SD0AG4rNnvT3S+MCVj+MmdhWMrgMDSZ9My9iYB4S43czpSrV
3mxhGyPTpLwtiAbnkeNvIvQYYME8L7zynYxAsNFkE44LN7hwrwGuVl9cjSs4qVlJ
mqBcvHopuJ3Y/lf/Tcg6RLgNW0lhP8CZ+N0g5i8dy+NTj+NdnCTkGTEGQs2cnynx
QKZyqosB86KRWUirYNgqs9z9zm4KE9SwLpIm4+0qAIXg5QIDAQABo4GiMIGfMAkG
A1UdEwQCMAAwHQYDVR0OBBYEFKovPF4Ko7C4paHC3j9l8ViQhSJLMFEGA1UdIwRK
MEiAFODjYziIg6q0y++9qqd+kF1Mwa9goRqkGDAWMRQwEgYDVQQDDAt0ZWFtMzk4
LW5ldIIUcSGtdgnboQYVrnsLkmwy+1liJ08wEwYDVR0lBAwwCgYIKwYBBQUHAwIw
CwYDVR0PBAQDAgeAMA0GCSqGSIb3DQEBCwUAA4IBAQBCClH490xsYs82vrnvP08N
4YkS2vqqOAy+0dERXHvKgXm8ph1vUGKqnd99umiEC6Pzajmn5PWGorhVVn+FPnCW
f6RRejgB1WBi/VRRwGy6gc48R449P86r9mTEMNTUDeOmJEqjQCAXmvtj84Vzl82Q
HRNC/1kLZkR02D1tLC9w6gJO05HmfpkheWbrdBYEQSmWl/mKinUiatf1JHZ+UfOM
46NFybincRt6R5jzakePnhVYHr6x/Ied2PmUclp0dvgE7e6fwkJsVNYI9V8E3w7n
qE3NfB8yXGHftpwcVMUwAAfcTOU8fVY1ZFUEK7t1I9snTLQyOhoV94yu6qnNAXRv
-----END CERTIFICATE-----
