Certificate:
    Data:
        Version: 3 (0x2)
        Serial Number:
            a6:a7:63:6d:c2:8f:e2:10:d7:2b:5b:bb:51:fe:88:db
        Signature Algorithm: sha256WithRSAEncryption
        Issuer: CN=team398-net
        Validity
            Not Before: Nov  4 11:36:27 2023 GMT
            Not After : Oct 19 11:36:27 2026 GMT
        Subject: CN=team398-client
        Subject Public Key Info:
            Public Key Algorithm: rsaEncryption
                Public-Key: (2048 bit)
                Modulus:
                    00:ac:e8:90:1a:b0:f7:d0:f9:3f:99:96:78:ad:cd:
                    9f:bb:ce:04:b3:b0:9f:31:05:b9:54:bd:29:52:ae:
                    f1:cf:ec:49:1a:1c:33:96:c3:bd:96:9b:0c:41:39:
                    bf:f4:97:34:cb:20:9c:26:1b:40:e5:1f:15:20:93:
                    df:8b:76:cf:e6:cd:05:a3:82:e9:71:e8:39:1d:30:
                    35:72:e2:bd:cd:46:27:05:8b:c6:eb:e6:7b:da:ae:
                    42:0c:cf:82:fd:bb:61:e6:b5:d7:8f:01:35:65:20:
                    5d:cc:76:2d:5a:53:76:51:a4:6e:fa:80:b2:f8:66:
                    eb:b9:e5:c6:6b:1b:c1:48:c1:2c:4a:b9:96:dd:d4:
                    1d:36:cc:d8:a9:d4:35:44:d5:f0:8a:3a:24:81:53:
                    0a:b2:da:ba:23:58:97:a7:eb:5e:4e:fe:1a:77:01:
                    60:35:76:a5:88:9c:2f:9e:d9:b7:2f:af:d7:98:b6:
                    51:d7:a0:48:8d:45:8d:6d:58:16:f2:33:44:fa:02:
                    76:13:c9:1f:54:53:02:c7:17:f6:89:3e:7b:77:31:
                    b1:6e:b0:c9:fa:ac:b3:14:f9:51:ac:f1:18:db:22:
                    62:e2:eb:50:dd:e6:20:08:d5:dd:1d:ef:0a:f0:b0:
                    ff:36:3d:ce:be:2b:e6:76:71:ba:09:28:81:67:1e:
                    d2:23
                Exponent: 65537 (0x10001)
        X509v3 extensions:
            X509v3 Basic Constraints: 
                CA:FALSE
            X509v3 Subject Key Identifier: 
                E6:3B:74:DE:07:85:65:C0:17:08:90:A3:29:44:AF:36:D1:21:56:B4
            X509v3 Authority Key Identifier: 
                keyid:E0:D6:66:74:CC:FD:A4:88:CF:43:AB:40:83:E1:C1:7E:3A:53:C4:6E
                DirName:/CN=team398-net
                serial:44:13:E9:61:EF:10:02:57:95:DF:81:33:FD:9C:01:CA:44:EE:47:09
            X509v3 Extended Key Usage: 
                TLS Web Client Authentication
            X509v3 Key Usage: 
                Digital Signature
    Signature Algorithm: sha256WithRSAEncryption
    Signature Value:
        9d:93:ab:bd:02:5f:19:12:e3:14:e2:ee:d1:84:01:ac:0c:4a:
        d2:55:e0:8f:5c:52:e4:38:ae:49:c8:54:01:83:31:7b:62:0f:
        78:b0:b1:b2:3d:87:9d:c1:43:20:60:27:9a:54:01:e1:9f:0a:
        fa:59:b0:a0:cd:1a:59:fb:4e:2b:54:65:b3:51:8e:30:59:9a:
        1e:bf:80:8a:7b:50:a5:83:95:21:ec:08:9d:ad:f2:a1:b6:bd:
        9e:2f:44:2a:eb:d5:c7:16:04:a1:ae:39:34:fd:f3:7f:8f:9e:
        b8:40:e7:f3:3a:07:09:84:17:39:78:01:59:70:cf:5d:5a:b1:
        6c:73:13:73:1e:ce:70:42:c1:e9:b4:75:8e:b5:47:b8:a7:51:
        ed:09:30:9e:97:25:8f:b5:cc:42:89:7d:ce:5a:5b:f7:c7:25:
        e6:9e:65:49:6a:b6:ea:ef:bd:bc:d7:6c:5d:32:ce:0f:6e:28:
        23:f7:39:93:3c:7d:8e:bd:f1:c2:98:49:3e:cf:18:fc:75:49:
        16:41:73:c0:75:be:d3:ba:04:ab:a7:61:6a:3c:5a:57:82:27:
        ef:42:8d:20:69:4d:10:b3:01:be:5b:d6:b6:b8:d7:08:19:71:
        18:1e:bc:90:99:37:82:ec:03:61:fc:ec:88:91:83:00:8c:e7:
        c4:3c:b5:f8
-----BEGIN CERTIFICATE-----
MIIDXTCCAkWgAwIBAgIRAKanY23Cj+IQ1ytbu1H+iNswDQYJKoZIhvcNAQELBQAw
FjEUMBIGA1UEAwwLdGVhbTM5OC1uZXQwHhcNMjMxMTA0MTEzNjI3WhcNMjYxMDE5
MTEzNjI3WjAZMRcwFQYDVQQDDA50ZWFtMzk4LWNsaWVudDCCASIwDQYJKoZIhvcN
AQEBBQADggEPADCCAQoCggEBAKzokBqw99D5P5mWeK3Nn7vOBLOwnzEFuVS9KVKu
8c/sSRocM5bDvZabDEE5v/SXNMsgnCYbQOUfFSCT34t2z+bNBaOC6XHoOR0wNXLi
vc1GJwWLxuvme9quQgzPgv27Yea1148BNWUgXcx2LVpTdlGkbvqAsvhm67nlxmsb
wUjBLEq5lt3UHTbM2KnUNUTV8Io6JIFTCrLauiNYl6frXk7+GncBYDV2pYicL57Z
ty+v15i2UdegSI1FjW1YFvIzRPoCdhPJH1RTAscX9ok+e3cxsW6wyfqssxT5Uazx
GNsiYuLrUN3mIAjV3R3vCvCw/zY9zr4r5nZxugkogWce0iMCAwEAAaOBojCBnzAJ
BgNVHRMEAjAAMB0GA1UdDgQWBBTmO3TeB4VlwBcIkKMpRK820SFWtDBRBgNVHSME
SjBIgBTg1mZ0zP2kiM9Dq0CD4cF+OlPEbqEapBgwFjEUMBIGA1UEAwwLdGVhbTM5
OC1uZXSCFEQT6WHvEAJXld+BM/2cAcpE7kcJMBMGA1UdJQQMMAoGCCsGAQUFBwMC
MAsGA1UdDwQEAwIHgDANBgkqhkiG9w0BAQsFAAOCAQEAnZOrvQJfGRLjFOLu0YQB
rAxK0lXgj1xS5DiuSchUAYMxe2IPeLCxsj2HncFDIGAnmlQB4Z8K+lmwoM0aWftO
K1Rls1GOMFmaHr+AintQpYOVIewIna3yoba9ni9EKuvVxxYEoa45NP3zf4+euEDn
8zoHCYQXOXgBWXDPXVqxbHMTcx7OcELB6bR1jrVHuKdR7Qkwnpclj7XMQol9zlpb
98cl5p5lSWq26u+9vNdsXTLOD24oI/c5kzx9jr3xwphJPs8Y/HVJFkFzwHW+07oE
q6dhajxaV4In70KNIGlNELMBvlvWtrjXCBlxGB68kJk3guwDYfzsiJGDAIznxDy1
+A==
-----END CERTIFICATE-----
