Certificate:
    Data:
        Version: 3 (0x2)
        Serial Number:
            47:68:bb:f3:af:10:65:c2:5c:27:6e:c5:a9:d0:42:7a
        Signature Algorithm: sha256WithRSAEncryption
        Issuer: CN=team313-net
        Validity
            Not Before: Nov  4 11:34:18 2023 GMT
            Not After : Oct 19 11:34:18 2026 GMT
        Subject: CN=team313-client
        Subject Public Key Info:
            Public Key Algorithm: rsaEncryption
                Public-Key: (2048 bit)
                Modulus:
                    00:b7:51:ec:49:df:ca:9a:36:29:19:98:10:97:ab:
                    62:94:19:6b:72:56:10:11:25:8b:3b:53:ac:8a:72:
                    45:fc:ad:cb:16:96:25:42:60:1b:b5:08:9c:87:e8:
                    ea:bf:9c:58:63:1d:f8:1d:31:f8:52:1c:e0:58:e9:
                    d9:68:79:9b:05:99:02:15:2c:be:b7:5e:d3:a8:73:
                    0e:94:37:44:e1:44:69:58:6b:62:59:f4:d4:fc:1e:
                    28:fb:10:24:5f:2f:21:bc:42:79:4e:3d:94:5a:80:
                    eb:1c:f2:b3:62:ca:64:42:d3:0d:91:be:97:3d:b8:
                    bf:bd:98:fe:16:d0:39:1d:fd:64:4d:a9:fd:e9:3e:
                    11:3b:b4:44:cc:d4:84:b5:d8:8d:7c:e8:04:1f:c8:
                    63:19:55:f2:0c:1d:68:6b:92:0f:44:29:ef:c4:7f:
                    d1:99:0d:f1:1b:a6:b5:e8:c0:76:5a:99:1d:2f:f3:
                    68:22:8c:39:a2:3b:56:2e:77:03:cc:36:d2:66:de:
                    22:28:44:8e:d3:3c:17:42:4f:27:19:26:e9:fc:f8:
                    61:b3:09:28:38:fe:0a:5f:5f:a8:0a:be:83:27:db:
                    2d:86:ff:77:fa:c3:54:25:59:f1:d6:0c:aa:14:c9:
                    bf:c9:44:98:d3:e5:a9:50:5c:8f:42:b5:f7:a7:dd:
                    84:a7
                Exponent: 65537 (0x10001)
        X509v3 extensions:
            X509v3 Basic Constraints: 
                CA:FALSE
            X509v3 Subject Key Identifier: 
                5D:B4:A7:FF:3C:5D:3E:FB:60:72:41:CF:11:F5:5B:C3:5C:06:F1:A9
            X509v3 Authority Key Identifier: 
                keyid:38:CF:AD:FA:18:84:9E:E6:D3:29:C6:DF:56:CA:1C:25:20:F4:22:80
                DirName:/CN=team313-net
                serial:5D:DE:45:E4:B5:83:4E:0A:9C:7D:89:DE:B8:06:BC:D8:8C:2E:DE:93
            X509v3 Extended Key Usage: 
                TLS Web Client Authentication
            X509v3 Key Usage: 
                Digital Signature
    Signature Algorithm: sha256WithRSAEncryption
    Signature Value:
        89:68:b7:14:81:eb:ff:34:49:14:9a:bd:52:8a:b4:83:08:7e:
        5d:c3:ae:c1:bb:d8:97:1e:fd:a0:fe:1c:2f:0e:af:3f:8d:38:
        39:49:a1:39:b6:a4:7f:f6:0f:bf:c0:30:7f:11:61:44:15:e3:
        2e:63:30:88:33:2d:16:7f:01:c2:d2:6a:fa:fe:3b:23:9c:97:
        61:63:4a:5f:84:78:36:a8:60:ef:1b:b6:b9:ad:17:2b:a7:66:
        21:81:68:2f:68:ad:43:dc:ab:fb:10:63:6d:3b:0a:28:36:e4:
        59:5f:16:27:91:2d:54:49:cf:b6:4c:f1:3a:46:b7:1e:54:c1:
        68:bb:eb:78:b5:35:65:5f:e3:54:69:e7:df:7a:9d:fb:a1:4f:
        8e:a6:e7:43:36:70:17:70:78:32:3e:86:03:2a:26:62:1e:d0:
        7d:b0:66:d6:a1:d8:f6:de:8f:2d:41:01:b0:fa:5f:5e:b8:5e:
        93:a9:b8:8c:f4:1d:2c:09:e1:a1:12:4c:15:35:15:78:e4:e3:
        d4:d6:0a:ef:c7:60:20:57:47:a2:3c:41:90:09:cf:82:68:e6:
        62:d8:bd:4d:7a:10:88:90:c5:5e:2e:ea:b5:73:8c:66:40:a7:
        74:6f:5d:3c:75:ad:c3:87:11:6e:61:11:60:bc:20:36:64:29:
        18:e5:c8:39
-----BEGIN CERTIFICATE-----
MIIDXDCCAkSgAwIBAgIQR2i7868QZcJcJ27FqdBCejANBgkqhkiG9w0BAQsFADAW
MRQwEgYDVQQDDAt0ZWFtMzEzLW5ldDAeFw0yMzExMDQxMTM0MThaFw0yNjEwMTkx
MTM0MThaMBkxFzAVBgNVBAMMDnRlYW0zMTMtY2xpZW50MIIBIjANBgkqhkiG9w0B
AQEFAAOCAQ8AMIIBCgKCAQEAt1HsSd/KmjYpGZgQl6tilBlrclYQESWLO1OsinJF
/K3LFpYlQmAbtQich+jqv5xYYx34HTH4UhzgWOnZaHmbBZkCFSy+t17TqHMOlDdE
4URpWGtiWfTU/B4o+xAkXy8hvEJ5Tj2UWoDrHPKzYspkQtMNkb6XPbi/vZj+FtA5
Hf1kTan96T4RO7REzNSEtdiNfOgEH8hjGVXyDB1oa5IPRCnvxH/RmQ3xG6a16MB2
WpkdL/NoIow5ojtWLncDzDbSZt4iKESO0zwXQk8nGSbp/PhhswkoOP4KX1+oCr6D
J9sthv93+sNUJVnx1gyqFMm/yUSY0+WpUFyPQrX3p92EpwIDAQABo4GiMIGfMAkG
A1UdEwQCMAAwHQYDVR0OBBYEFF20p/88XT77YHJBzxH1W8NcBvGpMFEGA1UdIwRK
MEiAFDjPrfoYhJ7m0ynG31bKHCUg9CKAoRqkGDAWMRQwEgYDVQQDDAt0ZWFtMzEz
LW5ldIIUXd5F5LWDTgqcfYneuAa82Iwu3pMwEwYDVR0lBAwwCgYIKwYBBQUHAwIw
CwYDVR0PBAQDAgeAMA0GCSqGSIb3DQEBCwUAA4IBAQCJaLcUgev/NEkUmr1SirSD
CH5dw67Bu9iXHv2g/hwvDq8/jTg5SaE5tqR/9g+/wDB/EWFEFeMuYzCIMy0WfwHC
0mr6/jsjnJdhY0pfhHg2qGDvG7a5rRcrp2YhgWgvaK1D3Kv7EGNtOwooNuRZXxYn
kS1USc+2TPE6RrceVMFou+t4tTVlX+NUaeffep37oU+OpudDNnAXcHgyPoYDKiZi
HtB9sGbWodj23o8tQQGw+l9euF6TqbiM9B0sCeGhEkwVNRV45OPU1grvx2AgV0ei
PEGQCc+CaOZi2L1NehCIkMVeLuq1c4xmQKd0b108da3DhxFuYRFgvCA2ZCkY5cg5
-----END CERTIFICATE-----
