Certificate:
    Data:
        Version: 3 (0x2)
        Serial Number:
            4c:4d:fa:da:5e:85:91:e7:92:1b:b0:9d:b4:b1:75:35
        Signature Algorithm: sha256WithRSAEncryption
        Issuer: CN=team313-net
        Validity
            Not Before: Nov  4 11:34:18 2023 GMT
            Not After : Oct 19 11:34:18 2026 GMT
        Subject: CN=team313-server
        Subject Public Key Info:
            Public Key Algorithm: rsaEncryption
                Public-Key: (2048 bit)
                Modulus:
                    00:a7:57:a6:4d:66:12:1c:5e:d8:80:4e:3d:03:f7:
                    f8:92:63:17:88:c7:26:ba:be:f0:0d:25:7e:95:67:
                    6b:89:b8:6a:8e:df:8b:59:f2:fc:93:12:73:7c:9c:
                    8e:a1:f6:6e:05:e7:b3:d6:cb:2d:04:0f:f7:b5:15:
                    16:de:83:29:df:90:d8:59:db:7b:35:a7:ca:dc:be:
                    99:30:f6:73:3f:fe:bf:8f:c4:c4:de:f4:f7:a3:0f:
                    d8:18:4f:cc:e0:32:13:8a:1f:ae:60:a4:a1:3f:c0:
                    f2:3a:1c:68:74:94:d5:7a:5f:35:eb:c7:40:3f:1f:
                    cc:49:a0:40:08:39:c8:c5:fa:7d:28:a0:8b:7e:6c:
                    81:e8:1e:ee:29:ea:af:cc:90:86:5e:e7:66:69:10:
                    e7:4c:a9:3e:5f:b8:7f:50:e9:6a:c6:21:79:69:02:
                    fa:d4:15:f8:19:40:53:7b:ea:18:a2:1e:de:81:99:
                    63:aa:18:59:b2:8d:78:31:9a:f7:d8:c1:d4:ed:a6:
                    18:eb:90:4a:75:d2:b0:42:b3:32:2e:8f:78:6f:b0:
                    98:9c:5f:a3:ee:db:7f:31:e8:16:e3:9c:c0:a8:ea:
                    53:2f:da:91:6f:2b:df:ab:63:0c:12:64:9a:1b:62:
                    ff:97:6d:0d:eb:b1:b1:f9:d9:90:d7:9f:ec:e8:a7:
                    11:e5
                Exponent: 65537 (0x10001)
        X509v3 extensions:
            X509v3 Basic Constraints: 
                CA:FALSE
            X509v3 Subject Key Identifier: 
                11:9B:AB:F7:E7:A6:C0:84:34:FA:79:F9:05:79:56:72:39:98:AA:99
            X509v3 Authority Key Identifier: 
                keyid:38:CF:AD:FA:18:84:9E:E6:D3:29:C6:DF:56:CA:1C:25:20:F4:22:80
                DirName:/CN=team313-net
                serial:5D:DE:45:E4:B5:83:4E:0A:9C:7D:89:DE:B8:06:BC:D8:8C:2E:DE:93
            X509v3 Extended Key Usage: 
                TLS Web Server Authentication
            X509v3 Key Usage: 
                Digital Signature, Key Encipherment
            X509v3 Subject Alternative Name: 
                DNS:team313-server
    Signature Algorithm: sha256WithRSAEncryption
    Signature Value:
        62:b1:cc:97:d7:1b:06:c1:d1:8c:34:45:fe:22:a0:f6:7c:1e:
        f7:6a:97:2b:fb:4f:48:3c:41:1b:22:c8:90:3e:0d:ef:5b:c3:
        ac:49:e2:ac:6e:64:38:64:0d:43:8f:56:52:48:43:f2:48:ec:
        91:76:64:df:fb:c4:68:57:5c:e1:dd:2c:4d:f3:b0:50:13:fd:
        74:0f:2d:a7:6f:7f:1e:fe:13:b1:c3:63:09:35:22:59:01:e7:
        7a:af:21:e6:2c:52:52:09:d5:cf:b1:bc:b1:df:60:18:a7:02:
        fe:83:fa:b2:1c:9b:df:a3:d5:42:ee:04:92:ef:63:ff:e9:16:
        5d:67:66:a0:db:19:be:e6:39:a7:38:7e:fe:d4:16:82:49:a5:
        2a:c8:e0:85:f7:82:86:93:da:cc:af:f9:ef:a5:ff:95:e0:30:
        64:ae:91:4e:b6:d9:83:8e:01:28:ca:35:7a:0d:e3:24:91:58:
        11:d1:c1:61:be:20:35:74:eb:91:69:c6:44:9a:7d:11:a2:3c:
        18:5f:57:8b:04:1e:bb:83:c4:e2:60:2d:5b:0e:62:2b:48:1b:
        65:10:80:4d:ed:7e:15:94:99:d7:f5:35:9f:e8:f2:5a:91:e5:
        c4:8f:aa:91:76:2f:3d:1e:38:7b:23:ee:0d:63:6d:4a:36:4a:
        6b:21:39:78
-----BEGIN CERTIFICATE-----
MIIDdzCCAl+gAwIBAgIQTE362l6FkeeSG7CdtLF1NTANBgkqhkiG9w0BAQsFADAW
MRQwEgYDVQQDDAt0ZWFtMzEzLW5ldDAeFw0yMzExMDQxMTM0MThaFw0yNjEwMTkx
MTM0MThaMBkxFzAVBgNVBAMMDnRlYW0zMTMtc2VydmVyMIIBIjANBgkqhkiG9w0B
AQEFAAOCAQ8AMIIBCgKCAQEAp1emTWYSHF7YgE49A/f4kmMXiMcmur7wDSV+lWdr
ibhqjt+LWfL8kxJzfJyOofZuBeez1sstBA/3tRUW3oMp35DYWdt7NafK3L6ZMPZz
P/6/j8TE3vT3ow/YGE/M4DITih+uYKShP8DyOhxodJTVel8168dAPx/MSaBACDnI
xfp9KKCLfmyB6B7uKeqvzJCGXudmaRDnTKk+X7h/UOlqxiF5aQL61BX4GUBTe+oY
oh7egZljqhhZso14MZr32MHU7aYY65BKddKwQrMyLo94b7CYnF+j7tt/MegW45zA
qOpTL9qRbyvfq2MMEmSaG2L/l20N67Gx+dmQ15/s6KcR5QIDAQABo4G9MIG6MAkG
A1UdEwQCMAAwHQYDVR0OBBYEFBGbq/fnpsCENPp5+QV5VnI5mKqZMFEGA1UdIwRK
MEiAFDjPrfoYhJ7m0ynG31bKHCUg9CKAoRqkGDAWMRQwEgYDVQQDDAt0ZWFtMzEz
LW5ldIIUXd5F5LWDTgqcfYneuAa82Iwu3pMwEwYDVR0lBAwwCgYIKwYBBQUHAwEw
CwYDVR0PBAQDAgWgMBkGA1UdEQQSMBCCDnRlYW0zMTMtc2VydmVyMA0GCSqGSIb3
DQEBCwUAA4IBAQBiscyX1xsGwdGMNEX+IqD2fB73apcr+09IPEEbIsiQPg3vW8Os
SeKsbmQ4ZA1Dj1ZSSEPySOyRdmTf+8RoV1zh3SxN87BQE/10Dy2nb38e/hOxw2MJ
NSJZAed6ryHmLFJSCdXPsbyx32AYpwL+g/qyHJvfo9VC7gSS72P/6RZdZ2ag2xm+
5jmnOH7+1BaCSaUqyOCF94KGk9rMr/nvpf+V4DBkrpFOttmDjgEoyjV6DeMkkVgR
0cFhviA1dOuRacZEmn0RojwYX1eLBB67g8TiYC1bDmIrSBtlEIBN7X4VlJnX9TWf
6PJakeXEj6qRdi89Hjh7I+4NY21KNkprITl4
-----END CERTIFICATE-----
