Certificate:
    Data:
        Version: 3 (0x2)
        Serial Number:
            53:ef:f8:a0:cc:79:d8:db:ed:29:5b:0a:9a:7d:ac:e8
        Signature Algorithm: sha256WithRSAEncryption
        Issuer: CN=team313-net
        Validity
            Not Before: Nov  4 10:46:21 2023 GMT
            Not After : Oct 19 10:46:21 2026 GMT
        Subject: CN=team313-client
        Subject Public Key Info:
            Public Key Algorithm: rsaEncryption
                Public-Key: (2048 bit)
                Modulus:
                    00:cb:55:09:3c:08:f5:29:eb:9f:28:97:43:56:15:
                    75:43:87:d9:ce:1a:8b:08:63:64:59:92:e4:b7:69:
                    1e:b5:ea:f6:53:f3:55:1d:36:28:60:e0:0a:45:40:
                    9a:62:e8:ae:54:bb:17:a8:55:a8:12:27:94:09:c3:
                    c2:b7:79:f9:0b:e6:47:33:ff:dc:19:6a:a3:96:97:
                    00:d6:9b:3a:77:61:40:fb:0c:67:6d:8f:ba:63:6f:
                    8b:c7:f5:71:4c:55:67:ac:01:ee:09:8e:e0:87:22:
                    d6:79:f2:ff:1a:49:73:30:ed:7c:94:d0:7a:ab:c3:
                    5b:33:b9:d2:42:28:20:4f:87:6b:2a:47:35:b4:88:
                    9a:a9:4d:d6:4a:d1:1a:97:85:63:ff:87:16:e2:f1:
                    9c:1a:67:72:81:7d:5d:e0:87:18:91:59:01:e5:9f:
                    42:d0:03:49:98:07:d5:8e:f1:26:86:1e:1d:ff:4f:
                    55:d7:d5:fc:87:d0:f0:91:f9:8d:35:bd:7d:6e:ed:
                    4f:d4:4c:c4:c9:ad:22:d1:8f:37:75:2f:03:25:df:
                    e6:05:5c:a2:84:fd:7e:e9:a2:d3:7b:99:cb:29:b8:
                    1f:8f:13:23:b4:80:26:16:2a:7d:98:5b:7e:82:bc:
                    89:2d:da:4d:e6:ea:24:1f:bf:63:20:06:98:c6:dc:
                    59:15
                Exponent: 65537 (0x10001)
        X509v3 extensions:
            X509v3 Basic Constraints: 
                CA:FALSE
            X509v3 Subject Key Identifier: 
                24:6C:F7:4C:35:4D:60:6B:0A:89:00:C9:51:CC:F5:52:11:CB:A4:8C
            X509v3 Authority Key Identifier: 
                keyid:46:15:9A:A4:4D:C2:A3:21:EA:9C:B5:BB:35:4D:2A:0A:0E:35:6B:18
                DirName:/CN=team313-net
                serial:25:3F:C0:6D:3C:52:5B:6D:DE:09:53:73:80:CD:69:5F:DD:9A:C0:F5
            X509v3 Extended Key Usage: 
                TLS Web Client Authentication
            X509v3 Key Usage: 
                Digital Signature
    Signature Algorithm: sha256WithRSAEncryption
    Signature Value:
        03:36:f2:19:c3:f4:fc:b9:82:5c:ba:92:76:92:0b:71:87:98:
        d7:ee:85:7b:e6:00:1a:12:42:be:41:08:b3:51:22:d8:b9:03:
        e9:a3:38:54:f4:d0:46:8e:30:71:c1:02:41:11:76:92:e9:7a:
        b6:ed:53:d2:a0:82:29:20:70:8a:93:ab:20:4c:bb:0a:b6:1a:
        25:e7:f1:9c:94:3e:fc:5a:4f:54:d5:4e:e2:76:bf:1d:1d:9e:
        c9:eb:19:d3:7a:3e:e7:a8:a0:58:ba:97:f3:1e:66:7d:49:c4:
        d4:68:62:61:a8:00:e5:26:c4:68:fe:48:03:97:56:5b:9c:fe:
        1d:e1:85:db:c2:17:9d:2c:8d:37:d1:b6:f2:59:e9:b6:3c:f1:
        e3:f1:28:66:26:a3:1a:11:04:d7:7c:9d:fe:74:32:16:92:77:
        de:2a:e4:93:10:a3:4b:47:d1:62:0e:38:56:6f:b8:6c:ee:7b:
        7a:00:4b:f2:a5:0d:ca:75:6c:5e:62:48:5d:4b:07:93:53:89:
        ab:a1:78:93:25:2f:8a:7a:50:ff:f7:59:55:98:ae:9b:9d:bf:
        c8:30:cd:2e:03:42:90:68:7e:57:6c:ac:f7:79:2f:57:7f:99:
        53:7b:ae:93:03:d2:1a:e8:ed:e8:bd:af:14:ad:33:11:33:fd:
        1a:fc:f5:f8
-----BEGIN CERTIFICATE-----
MIIDXDCCAkSgAwIBAgIQU+/4oMx52NvtKVsKmn2s6DANBgkqhkiG9w0BAQsFADAW
MRQwEgYDVQQDDAt0ZWFtMzEzLW5ldDAeFw0yMzExMDQxMDQ2MjFaFw0yNjEwMTkx
MDQ2MjFaMBkxFzAVBgNVBAMMDnRlYW0zMTMtY2xpZW50MIIBIjANBgkqhkiG9w0B
AQEFAAOCAQ8AMIIBCgKCAQEAy1UJPAj1KeufKJdDVhV1Q4fZzhqLCGNkWZLkt2ke
ter2U/NVHTYoYOAKRUCaYuiuVLsXqFWoEieUCcPCt3n5C+ZHM//cGWqjlpcA1ps6
d2FA+wxnbY+6Y2+Lx/VxTFVnrAHuCY7ghyLWefL/GklzMO18lNB6q8NbM7nSQigg
T4drKkc1tIiaqU3WStEal4Vj/4cW4vGcGmdygX1d4IcYkVkB5Z9C0ANJmAfVjvEm
hh4d/09V19X8h9DwkfmNNb19bu1P1EzEya0i0Y83dS8DJd/mBVyihP1+6aLTe5nL
KbgfjxMjtIAmFip9mFt+gryJLdpN5uokH79jIAaYxtxZFQIDAQABo4GiMIGfMAkG
A1UdEwQCMAAwHQYDVR0OBBYEFCRs90w1TWBrCokAyVHM9VIRy6SMMFEGA1UdIwRK
MEiAFEYVmqRNwqMh6py1uzVNKgoONWsYoRqkGDAWMRQwEgYDVQQDDAt0ZWFtMzEz
LW5ldIIUJT/AbTxSW23eCVNzgM1pX92awPUwEwYDVR0lBAwwCgYIKwYBBQUHAwIw
CwYDVR0PBAQDAgeAMA0GCSqGSIb3DQEBCwUAA4IBAQADNvIZw/T8uYJcupJ2kgtx
h5jX7oV75gAaEkK+QQizUSLYuQPpozhU9NBGjjBxwQJBEXaS6Xq27VPSoIIpIHCK
k6sgTLsKthol5/GclD78Wk9U1U7idr8dHZ7J6xnTej7nqKBYupfzHmZ9ScTUaGJh
qADlJsRo/kgDl1ZbnP4d4YXbwhedLI030bbyWem2PPHj8ShmJqMaEQTXfJ3+dDIW
knfeKuSTEKNLR9FiDjhWb7hs7nt6AEvypQ3KdWxeYkhdSweTU4mroXiTJS+KelD/
91lVmK6bnb/IMM0uA0KQaH5XbKz3eS9Xf5lTe66TA9Ia6O3ova8UrTMRM/0a/PX4
-----END CERTIFICATE-----
