Certificate:
    Data:
        Version: 3 (0x2)
        Serial Number:
            b0:2c:46:24:e9:69:2d:f7:c5:a5:23:dd:f9:79:ce:ad
        Signature Algorithm: sha256WithRSAEncryption
        Issuer: CN=team313-net
        Validity
            Not Before: Nov  4 10:46:21 2023 GMT
            Not After : Oct 19 10:46:21 2026 GMT
        Subject: CN=team313-server
        Subject Public Key Info:
            Public Key Algorithm: rsaEncryption
                Public-Key: (2048 bit)
                Modulus:
                    00:db:b9:ba:06:84:a0:54:ec:1e:06:e4:01:8c:fa:
                    be:66:fa:cd:ce:f8:47:16:6b:e6:8c:5a:58:0d:32:
                    4f:41:da:2f:4f:09:97:5f:5f:4d:f1:cf:b6:94:4c:
                    de:aa:50:05:26:02:15:fd:e3:63:46:b3:69:05:40:
                    1c:66:c9:27:16:b2:6e:a8:ba:b6:49:ea:f6:a1:b5:
                    d8:01:2b:70:57:e6:31:93:cc:dd:a0:6e:0d:69:64:
                    0d:c5:3a:06:68:ac:d6:db:18:df:74:88:26:4a:84:
                    80:1e:76:f3:c9:ec:ed:62:b3:c5:41:27:ef:00:af:
                    b2:be:91:24:e2:8e:dd:71:8d:23:72:27:fc:8c:5c:
                    75:68:83:24:43:69:33:23:e1:c4:7a:f5:eb:7a:23:
                    f3:1f:9b:98:dc:19:1c:cc:31:98:57:8f:f2:26:f3:
                    f1:6f:05:27:75:74:93:f3:29:f4:b8:84:b0:d8:54:
                    39:c6:79:8b:e2:85:71:cc:75:81:7f:72:f2:2e:19:
                    32:51:8f:35:e1:9b:49:15:28:46:ba:4b:71:bd:9c:
                    f4:d4:73:1a:2e:e2:39:12:21:a7:ca:a9:ef:4d:ad:
                    a4:22:b1:ea:9a:28:34:c2:7d:9e:79:d0:34:1e:40:
                    d1:d6:55:91:df:27:c4:e2:26:9e:00:74:9b:56:69:
                    1f:4f
                Exponent: 65537 (0x10001)
        X509v3 extensions:
            X509v3 Basic Constraints: 
                CA:FALSE
            X509v3 Subject Key Identifier: 
                85:12:5A:82:85:5D:5C:C8:B3:82:8C:6B:E2:15:7F:A9:50:EE:34:BE
            X509v3 Authority Key Identifier: 
                keyid:46:15:9A:A4:4D:C2:A3:21:EA:9C:B5:BB:35:4D:2A:0A:0E:35:6B:18
                DirName:/CN=team313-net
                serial:25:3F:C0:6D:3C:52:5B:6D:DE:09:53:73:80:CD:69:5F:DD:9A:C0:F5
            X509v3 Extended Key Usage: 
                TLS Web Server Authentication
            X509v3 Key Usage: 
                Digital Signature, Key Encipherment
            X509v3 Subject Alternative Name: 
                DNS:team313-server
    Signature Algorithm: sha256WithRSAEncryption
    Signature Value:
        24:a1:4f:f1:ad:33:cc:b6:07:14:1e:f7:01:8c:43:a9:b6:25:
        9f:c5:80:5a:91:cd:49:87:f6:20:62:2d:0f:91:bf:68:62:94:
        08:cc:7d:b0:10:dd:ec:56:16:5a:8a:c3:34:81:dc:fe:01:65:
        bf:48:71:00:fa:78:db:bd:ab:04:6f:ff:ea:87:0c:2c:45:d2:
        e8:a6:2e:af:16:01:af:f4:39:6f:73:50:01:2e:69:4e:4f:ad:
        6c:32:05:85:75:0e:3c:fb:aa:9f:02:84:66:36:8c:4f:66:b1:
        df:d1:05:dd:2a:00:9a:48:7e:b2:e1:fa:30:ac:4e:f0:ca:4a:
        ba:3d:df:db:09:24:d8:90:7b:23:f7:e2:7d:75:af:65:e2:5a:
        a2:10:a2:37:10:25:20:aa:34:db:28:fb:f1:02:90:28:fb:ca:
        4f:c5:3d:48:6c:bd:9b:37:9f:31:d4:9a:ee:54:90:2f:a6:a0:
        5c:d2:b7:9b:c4:3c:ff:5b:76:62:a4:58:70:ec:45:a3:a3:3b:
        e4:6c:d0:1f:4d:93:ab:4d:e6:35:f5:12:f9:00:0a:2d:73:1a:
        1a:51:e0:89:a4:f6:7a:74:a6:d0:54:29:04:0a:32:e2:aa:a7:
        1f:ad:37:0c:95:43:ba:e7:2f:a1:d7:6f:2c:8e:6d:e2:0e:16:
        67:22:9e:54
-----BEGIN CERTIFICATE-----
MIIDeDCCAmCgAwIBAgIRALAsRiTpaS33xaUj3fl5zq0wDQYJKoZIhvcNAQELBQAw
FjEUMBIGA1UEAwwLdGVhbTMxMy1uZXQwHhcNMjMxMTA0MTA0NjIxWhcNMjYxMDE5
MTA0NjIxWjAZMRcwFQYDVQQDDA50ZWFtMzEzLXNlcnZlcjCCASIwDQYJKoZIhvcN
AQEBBQADggEPADCCAQoCggEBANu5ugaEoFTsHgbkAYz6vmb6zc74RxZr5oxaWA0y
T0HaL08Jl19fTfHPtpRM3qpQBSYCFf3jY0azaQVAHGbJJxaybqi6tknq9qG12AEr
cFfmMZPM3aBuDWlkDcU6Bmis1tsY33SIJkqEgB5288ns7WKzxUEn7wCvsr6RJOKO
3XGNI3In/IxcdWiDJENpMyPhxHr163oj8x+bmNwZHMwxmFeP8ibz8W8FJ3V0k/Mp
9LiEsNhUOcZ5i+KFccx1gX9y8i4ZMlGPNeGbSRUoRrpLcb2c9NRzGi7iORIhp8qp
702tpCKx6pooNMJ9nnnQNB5A0dZVkd8nxOImngB0m1ZpH08CAwEAAaOBvTCBujAJ
BgNVHRMEAjAAMB0GA1UdDgQWBBSFElqChV1cyLOCjGviFX+pUO40vjBRBgNVHSME
SjBIgBRGFZqkTcKjIeqctbs1TSoKDjVrGKEapBgwFjEUMBIGA1UEAwwLdGVhbTMx
My1uZXSCFCU/wG08Ultt3glTc4DNaV/dmsD1MBMGA1UdJQQMMAoGCCsGAQUFBwMB
MAsGA1UdDwQEAwIFoDAZBgNVHREEEjAQgg50ZWFtMzEzLXNlcnZlcjANBgkqhkiG
9w0BAQsFAAOCAQEAJKFP8a0zzLYHFB73AYxDqbYln8WAWpHNSYf2IGItD5G/aGKU
CMx9sBDd7FYWWorDNIHc/gFlv0hxAPp4272rBG//6ocMLEXS6KYurxYBr/Q5b3NQ
AS5pTk+tbDIFhXUOPPuqnwKEZjaMT2ax39EF3SoAmkh+suH6MKxO8MpKuj3f2wkk
2JB7I/fifXWvZeJaohCiNxAlIKo02yj78QKQKPvKT8U9SGy9mzefMdSa7lSQL6ag
XNK3m8Q8/1t2YqRYcOxFo6M75GzQH02Tq03mNfUS+QAKLXMaGlHgiaT2enSm0FQp
BAoy4qqnH603DJVDuucvoddvLI5t4g4WZyKeVA==
-----END CERTIFICATE-----
