Certificate:
    Data:
        Version: 3 (0x2)
        Serial Number:
            ec:8f:7c:c7:9c:98:e3:3d:36:98:c6:d5:86:d1:13:fb
        Signature Algorithm: sha256WithRSAEncryption
        Issuer: CN=team313-net
        Validity
            Not Before: Nov  3 20:44:57 2023 GMT
            Not After : Oct 18 20:44:57 2026 GMT
        Subject: CN=team313-client
        Subject Public Key Info:
            Public Key Algorithm: rsaEncryption
                Public-Key: (2048 bit)
                Modulus:
                    00:c6:2d:01:90:5d:ee:a4:7b:00:7f:88:94:d0:6e:
                    70:ab:14:a2:93:39:ba:5e:8f:6e:7d:2b:35:35:8d:
                    a1:44:63:56:b8:54:c5:88:b0:fa:28:ce:ac:e9:93:
                    79:45:9a:73:f5:71:c6:65:ea:17:e9:ff:5a:5c:71:
                    d2:a0:ac:17:0d:c1:70:39:80:ab:ab:14:73:4c:f7:
                    3c:1e:77:ce:ca:b7:cf:90:54:a7:08:25:29:ac:68:
                    68:93:db:73:b7:f7:13:ce:fb:41:30:b2:c8:5d:46:
                    f6:72:7c:a6:d7:5c:95:b2:8d:12:fb:8b:ca:ba:5b:
                    6d:97:28:76:48:2e:75:ed:44:ff:ba:62:05:4e:dd:
                    75:7c:96:13:53:43:fb:96:1a:c4:5a:2e:15:9e:66:
                    f8:21:d0:48:15:fb:0b:6b:cc:bc:62:39:61:51:9b:
                    c8:a9:32:cf:80:58:04:77:0e:6e:e8:38:51:0a:a3:
                    2d:ff:8b:9a:9b:1d:45:12:2b:c6:dd:97:d4:1d:98:
                    d9:a4:7f:0e:90:b6:8c:e8:4e:05:90:09:be:1e:1f:
                    eb:1e:7f:c5:b7:f7:76:48:fb:3c:ba:f2:fb:82:8d:
                    74:35:0e:2f:2f:90:17:a6:0e:2b:c0:5d:6f:1e:a9:
                    42:f7:44:7d:82:17:50:c7:32:5f:3a:ee:90:33:11:
                    fa:f9
                Exponent: 65537 (0x10001)
        X509v3 extensions:
            X509v3 Basic Constraints: 
                CA:FALSE
            X509v3 Subject Key Identifier: 
                8C:7A:40:5C:4F:F6:3E:F5:96:5C:10:F9:E4:74:75:90:6D:B6:0F:34
            X509v3 Authority Key Identifier: 
                keyid:E7:8E:D2:E9:1F:0B:33:6F:C1:32:29:19:3B:8A:4C:88:29:82:CA:69
                DirName:/CN=team313-net
                serial:6A:63:8C:DE:13:14:CF:69:FF:56:A6:02:58:98:DF:2F:C3:4B:44:8D
            X509v3 Extended Key Usage: 
                TLS Web Client Authentication
            X509v3 Key Usage: 
                Digital Signature
    Signature Algorithm: sha256WithRSAEncryption
    Signature Value:
        03:60:b3:fe:ae:5f:26:21:2a:7d:5a:a7:55:b2:c8:9d:11:9e:
        3c:21:21:40:eb:9c:fd:f5:3d:24:75:57:56:93:45:eb:b4:e5:
        1a:5f:bb:16:6c:d3:ca:8e:27:47:95:46:e6:9f:de:9e:52:15:
        34:63:f2:6b:7e:68:52:78:25:2e:50:b5:ca:15:6f:4e:e1:a3:
        b0:18:a5:e2:c5:d8:af:5c:aa:4b:c8:87:19:3c:f8:1d:93:05:
        cf:a1:f5:e4:6d:bd:58:d0:7d:22:fc:b0:cd:92:20:1c:3f:ab:
        10:31:2c:3f:81:b5:7a:5f:65:ee:0c:4e:7f:61:50:2b:4d:6e:
        0f:f1:97:e2:c7:2e:2f:b8:8b:b4:63:1f:cf:d8:9a:6d:b9:79:
        c3:91:ca:63:9c:8b:cb:d2:08:4f:b0:73:83:b9:3e:7d:d5:53:
        12:93:56:e8:fb:da:b8:9a:37:16:36:a1:38:9d:76:05:42:43:
        3e:1a:2a:99:cb:7a:67:8e:df:ad:d1:02:0d:b2:b9:65:51:eb:
        d8:3e:98:83:af:95:cf:24:bd:37:11:93:97:aa:ad:c7:93:0e:
        80:77:0f:4e:30:68:5e:39:5b:b5:a8:e3:be:d8:57:83:b2:fe:
        21:1c:c8:a9:ba:05:76:57:52:7f:24:7d:08:00:58:3b:86:80:
        5b:c2:fe:b6
-----BEGIN CERTIFICATE-----
MIIDXTCCAkWgAwIBAgIRAOyPfMecmOM9NpjG1YbRE/swDQYJKoZIhvcNAQELBQAw
FjEUMBIGA1UEAwwLdGVhbTMxMy1uZXQwHhcNMjMxMTAzMjA0NDU3WhcNMjYxMDE4
MjA0NDU3WjAZMRcwFQYDVQQDDA50ZWFtMzEzLWNsaWVudDCCASIwDQYJKoZIhvcN
AQEBBQADggEPADCCAQoCggEBAMYtAZBd7qR7AH+IlNBucKsUopM5ul6Pbn0rNTWN
oURjVrhUxYiw+ijOrOmTeUWac/VxxmXqF+n/Wlxx0qCsFw3BcDmAq6sUc0z3PB53
zsq3z5BUpwglKaxoaJPbc7f3E877QTCyyF1G9nJ8ptdclbKNEvuLyrpbbZcodkgu
de1E/7piBU7ddXyWE1ND+5YaxFouFZ5m+CHQSBX7C2vMvGI5YVGbyKkyz4BYBHcO
bug4UQqjLf+LmpsdRRIrxt2X1B2Y2aR/DpC2jOhOBZAJvh4f6x5/xbf3dkj7PLry
+4KNdDUOLy+QF6YOK8Bdbx6pQvdEfYIXUMcyXzrukDMR+vkCAwEAAaOBojCBnzAJ
BgNVHRMEAjAAMB0GA1UdDgQWBBSMekBcT/Y+9ZZcEPnkdHWQbbYPNDBRBgNVHSME
SjBIgBTnjtLpHwszb8EyKRk7ikyIKYLKaaEapBgwFjEUMBIGA1UEAwwLdGVhbTMx
My1uZXSCFGpjjN4TFM9p/1amAliY3y/DS0SNMBMGA1UdJQQMMAoGCCsGAQUFBwMC
MAsGA1UdDwQEAwIHgDANBgkqhkiG9w0BAQsFAAOCAQEAA2Cz/q5fJiEqfVqnVbLI
nRGePCEhQOuc/fU9JHVXVpNF67TlGl+7FmzTyo4nR5VG5p/enlIVNGPya35oUngl
LlC1yhVvTuGjsBil4sXYr1yqS8iHGTz4HZMFz6H15G29WNB9IvywzZIgHD+rEDEs
P4G1el9l7gxOf2FQK01uD/GX4scuL7iLtGMfz9iabbl5w5HKY5yLy9IIT7Bzg7k+
fdVTEpNW6PvauJo3FjahOJ12BUJDPhoqmct6Z47frdECDbK5ZVHr2D6Yg6+VzyS9
NxGTl6qtx5MOgHcPTjBoXjlbtajjvthXg7L+IRzIqboFdldSfyR9CABYO4aAW8L+
tg==
-----END CERTIFICATE-----
