Certificate:
    Data:
        Version: 3 (0x2)
        Serial Number:
            05:b1:c3:03:09:a1:24:d8:65:27:54:95:66:58:16:cb
        Signature Algorithm: sha256WithRSAEncryption
        Issuer: CN=team34-net
        Validity
            Not Before: Nov  4 11:28:01 2023 GMT
            Not After : Oct 19 11:28:01 2026 GMT
        Subject: CN=team34-client
        Subject Public Key Info:
            Public Key Algorithm: rsaEncryption
                Public-Key: (2048 bit)
                Modulus:
                    00:af:86:aa:19:5e:98:82:fe:cd:71:05:b3:3e:59:
                    0f:f7:e0:73:1e:fc:26:a6:48:9e:2a:37:e9:33:43:
                    c3:90:9f:b0:72:fd:f9:cb:9f:56:0c:65:f6:c0:29:
                    b9:11:f4:6f:27:20:42:99:59:7d:a2:8e:fd:8e:be:
                    a3:14:cd:29:73:42:1a:f1:5a:b3:91:9d:93:dc:25:
                    83:2d:0b:47:9c:9b:5c:51:65:ed:52:70:67:43:00:
                    ee:c5:f4:a8:b2:65:dd:53:b6:b3:f7:72:bb:fb:32:
                    b7:c1:d5:03:ea:83:bb:da:e8:8d:e5:f4:50:33:5f:
                    b7:1a:d0:d6:28:4c:f3:22:d4:04:a3:75:ca:f1:2c:
                    ce:0c:4a:d3:49:9f:bc:37:af:9d:e5:4e:f6:cc:a0:
                    88:e9:a0:f7:49:1a:bc:6d:59:e1:32:ac:e1:ef:41:
                    3d:fe:86:fe:e7:74:97:5c:77:e8:f9:b2:b3:27:ec:
                    1d:ff:7d:d0:fb:2a:6d:7b:67:5a:cc:09:c1:79:ba:
                    19:10:f4:d4:45:a1:17:e9:b4:bf:56:2a:a2:97:af:
                    a5:25:36:64:d8:a0:3b:48:d6:5a:82:66:6e:ff:89:
                    45:96:a6:77:33:b5:1b:3b:ae:e6:85:25:cf:55:be:
                    2d:6c:1d:99:8c:30:62:64:b7:ce:a3:e2:82:b6:c7:
                    23:5b
                Exponent: 65537 (0x10001)
        X509v3 extensions:
            X509v3 Basic Constraints: 
                CA:FALSE
            X509v3 Subject Key Identifier: 
                40:C5:AB:BD:F9:99:80:AD:7D:C1:C1:A0:8F:CD:46:91:D9:58:E1:95
            X509v3 Authority Key Identifier: 
                keyid:B4:BE:EC:CB:D1:EB:53:C5:41:C3:5E:15:94:33:20:B0:27:4A:70:02
                DirName:/CN=team34-net
                serial:7A:6C:DE:AE:F8:FD:C0:0C:9B:E4:54:A3:DA:D9:A6:D3:39:97:85:7D
            X509v3 Extended Key Usage: 
                TLS Web Client Authentication
            X509v3 Key Usage: 
                Digital Signature
    Signature Algorithm: sha256WithRSAEncryption
    Signature Value:
        76:bf:0d:79:0d:b8:b1:72:b4:9e:f0:d6:91:b8:2c:4b:c4:57:
        92:5e:50:bc:43:d9:d8:9d:22:d4:2f:cf:86:9e:fc:29:2a:52:
        7c:fe:31:57:7d:9f:d1:3d:9f:a3:c8:14:56:66:03:bc:95:a4:
        a6:d2:77:25:0c:1c:03:f8:0b:cb:e0:b5:34:46:48:93:82:4c:
        a8:d1:ba:c9:08:20:19:0e:3c:da:63:ad:f3:94:f3:cc:a0:e3:
        31:3b:da:96:46:65:78:41:20:db:f6:d2:a8:a3:f8:29:7d:98:
        17:e3:66:fa:dd:c6:a6:45:27:54:2f:da:c2:74:3c:f8:28:b4:
        83:04:6f:1c:6b:73:12:ac:ad:2a:00:df:2e:16:a8:de:46:c7:
        77:cf:84:b3:47:0b:c7:88:61:33:59:9a:ff:73:14:5c:f8:64:
        50:24:36:c3:0d:d1:e7:5f:f5:af:77:db:1b:60:07:d4:3c:ee:
        8d:60:f5:ed:31:8a:34:01:af:c6:3c:de:c1:17:23:23:b1:6f:
        a3:5b:d7:58:b7:68:32:b6:b5:ce:56:eb:49:e3:fc:ab:3e:bb:
        e4:c0:51:2d:eb:a3:4e:81:21:7b:1e:db:4f:a8:f4:50:47:43:
        e9:12:12:4c:9a:2a:5a:54:01:01:b8:d1:9c:65:66:39:15:04:
        14:10:d4:2b
-----BEGIN CERTIFICATE-----
MIIDWTCCAkGgAwIBAgIQBbHDAwmhJNhlJ1SVZlgWyzANBgkqhkiG9w0BAQsFADAV
MRMwEQYDVQQDDAp0ZWFtMzQtbmV0MB4XDTIzMTEwNDExMjgwMVoXDTI2MTAxOTEx
MjgwMVowGDEWMBQGA1UEAwwNdGVhbTM0LWNsaWVudDCCASIwDQYJKoZIhvcNAQEB
BQADggEPADCCAQoCggEBAK+GqhlemIL+zXEFsz5ZD/fgcx78JqZInio36TNDw5Cf
sHL9+cufVgxl9sApuRH0bycgQplZfaKO/Y6+oxTNKXNCGvFas5Gdk9wlgy0LR5yb
XFFl7VJwZ0MA7sX0qLJl3VO2s/dyu/syt8HVA+qDu9rojeX0UDNftxrQ1ihM8yLU
BKN1yvEszgxK00mfvDevneVO9sygiOmg90kavG1Z4TKs4e9BPf6G/ud0l1x36Pmy
syfsHf990PsqbXtnWswJwXm6GRD01EWhF+m0v1YqopevpSU2ZNigO0jWWoJmbv+J
RZamdzO1Gzuu5oUlz1W+LWwdmYwwYmS3zqPigrbHI1sCAwEAAaOBoTCBnjAJBgNV
HRMEAjAAMB0GA1UdDgQWBBRAxau9+ZmArX3BwaCPzUaR2VjhlTBQBgNVHSMESTBH
gBS0vuzL0etTxUHDXhWUMyCwJ0pwAqEZpBcwFTETMBEGA1UEAwwKdGVhbTM0LW5l
dIIUemzervj9wAyb5FSj2tmm0zmXhX0wEwYDVR0lBAwwCgYIKwYBBQUHAwIwCwYD
VR0PBAQDAgeAMA0GCSqGSIb3DQEBCwUAA4IBAQB2vw15DbixcrSe8NaRuCxLxFeS
XlC8Q9nYnSLUL8+GnvwpKlJ8/jFXfZ/RPZ+jyBRWZgO8laSm0nclDBwD+AvL4LU0
RkiTgkyo0brJCCAZDjzaY63zlPPMoOMxO9qWRmV4QSDb9tKoo/gpfZgX42b63cam
RSdUL9rCdDz4KLSDBG8ca3MSrK0qAN8uFqjeRsd3z4SzRwvHiGEzWZr/cxRc+GRQ
JDbDDdHnX/Wvd9sbYAfUPO6NYPXtMYo0Aa/GPN7BFyMjsW+jW9dYt2gytrXOVutJ
4/yrPrvkwFEt66NOgSF7HttPqPRQR0PpEhJMmipaVAEBuNGcZWY5FQQUENQr
-----END CERTIFICATE-----
