Certificate:
    Data:
        Version: 3 (0x2)
        Serial Number:
            59:38:9a:ae:45:c3:c8:5f:8f:34:e9:d2:94:e2:b4:8b
        Signature Algorithm: sha256WithRSAEncryption
        Issuer: CN=team368-net
        Validity
            Not Before: Nov  4 11:35:41 2023 GMT
            Not After : Oct 19 11:35:41 2026 GMT
        Subject: CN=team368-server
        Subject Public Key Info:
            Public Key Algorithm: rsaEncryption
                Public-Key: (2048 bit)
                Modulus:
                    00:c4:7c:50:2d:04:f5:5c:d3:e8:1b:57:fc:a1:73:
                    b3:09:dc:e8:53:50:b2:17:e9:43:0c:57:83:4d:dc:
                    20:0b:53:29:7a:e6:c4:4a:9f:98:91:62:78:a6:76:
                    97:3e:3e:0d:1b:ed:0d:7c:73:81:04:a8:0c:b1:a2:
                    08:68:4a:fe:ed:e0:3e:87:52:74:0f:f8:af:49:3f:
                    67:4f:ac:38:ab:cf:25:82:62:ee:07:7f:95:ed:b9:
                    89:24:13:b2:7f:86:7d:c9:59:ec:6a:8b:a4:f8:37:
                    49:45:de:5d:f4:b8:8c:af:fb:ae:41:d6:6f:54:e6:
                    60:6f:25:4a:e9:16:c5:1c:8e:95:b3:89:dd:c7:e8:
                    f4:0f:e1:23:d5:ed:ae:4a:d4:d8:de:68:24:d1:35:
                    af:69:08:34:00:86:0c:50:ab:22:54:41:34:88:da:
                    dc:5e:81:8a:49:40:c2:32:62:21:9b:88:6c:08:a2:
                    ef:2b:c8:26:08:07:26:50:35:17:ca:9d:82:ae:99:
                    de:29:b1:5c:ce:ba:2e:a1:2c:26:14:ec:2c:99:42:
                    8f:71:77:56:94:28:a9:23:df:05:20:fe:69:58:d9:
                    2e:6d:86:8c:44:8e:d7:dc:08:c8:51:10:84:b3:f8:
                    ed:e6:f3:4c:0c:23:e4:5d:4d:3f:a6:fd:c2:b4:ea:
                    59:31
                Exponent: 65537 (0x10001)
        X509v3 extensions:
            X509v3 Basic Constraints: 
                CA:FALSE
            X509v3 Subject Key Identifier: 
                51:A4:BF:1C:73:CF:2E:29:2F:B8:3E:F0:F0:E8:0E:02:76:84:0F:5C
            X509v3 Authority Key Identifier: 
                keyid:A8:10:09:F7:DB:42:B9:48:4B:A3:6B:C2:D2:B8:8A:69:7D:F3:7E:26
                DirName:/CN=team368-net
                serial:03:E2:53:E5:1E:77:FD:20:F4:4E:12:6A:5B:E3:DA:CE:C8:6D:E3:7F
            X509v3 Extended Key Usage: 
                TLS Web Server Authentication
            X509v3 Key Usage: 
                Digital Signature, Key Encipherment
            X509v3 Subject Alternative Name: 
                DNS:team368-server
    Signature Algorithm: sha256WithRSAEncryption
    Signature Value:
        60:24:68:c2:59:01:7e:a7:89:bc:82:0c:ae:ed:e7:df:1b:30:
        41:ad:88:8e:b6:52:4d:07:68:83:29:eb:7c:10:4a:12:d9:31:
        8a:c6:ef:d2:78:0d:5b:bd:01:b2:e0:2e:c5:78:f1:84:30:dd:
        0d:50:75:d8:a6:30:0c:64:ef:63:69:47:37:f9:01:f8:47:24:
        e7:ca:6a:2d:ee:af:f5:8d:c5:d9:27:3d:d9:36:1e:83:67:fe:
        4b:ee:ee:68:ca:2a:49:bf:1a:41:5e:c1:9c:2f:8d:c4:25:75:
        16:23:0a:48:23:e8:12:a3:e9:69:e8:e8:ce:ce:11:ae:be:d3:
        08:73:55:16:70:36:d6:11:46:4e:56:ef:40:e5:ed:65:45:d9:
        0c:b8:98:07:a7:e3:9d:a3:7f:7f:1a:b5:88:6e:b5:70:ed:18:
        b2:53:bd:9b:0b:7f:85:39:36:46:68:e5:5a:9b:9c:47:08:41:
        06:84:f7:a5:7b:b0:4a:e5:10:14:33:af:4d:5a:b4:95:ae:70:
        38:fb:67:81:a0:17:02:ce:3d:7c:a0:86:4f:b6:2d:8d:e6:90:
        d3:54:b8:ca:57:f1:ce:cd:20:dc:bc:48:80:76:94:84:fd:3a:
        d0:a9:7c:21:9d:1f:31:28:a5:6d:8d:79:85:44:ce:69:ae:84:
        86:6e:c1:b9
-----BEGIN CERTIFICATE-----
MIIDdzCCAl+gAwIBAgIQWTiarkXDyF+PNOnSlOK0izANBgkqhkiG9w0BAQsFADAW
MRQwEgYDVQQDDAt0ZWFtMzY4LW5ldDAeFw0yMzExMDQxMTM1NDFaFw0yNjEwMTkx
MTM1NDFaMBkxFzAVBgNVBAMMDnRlYW0zNjgtc2VydmVyMIIBIjANBgkqhkiG9w0B
AQEFAAOCAQ8AMIIBCgKCAQEAxHxQLQT1XNPoG1f8oXOzCdzoU1CyF+lDDFeDTdwg
C1MpeubESp+YkWJ4pnaXPj4NG+0NfHOBBKgMsaIIaEr+7eA+h1J0D/ivST9nT6w4
q88lgmLuB3+V7bmJJBOyf4Z9yVnsaouk+DdJRd5d9LiMr/uuQdZvVOZgbyVK6RbF
HI6Vs4ndx+j0D+Ej1e2uStTY3mgk0TWvaQg0AIYMUKsiVEE0iNrcXoGKSUDCMmIh
m4hsCKLvK8gmCAcmUDUXyp2CrpneKbFczrouoSwmFOwsmUKPcXdWlCipI98FIP5p
WNkubYaMRI7X3AjIURCEs/jt5vNMDCPkXU0/pv3CtOpZMQIDAQABo4G9MIG6MAkG
A1UdEwQCMAAwHQYDVR0OBBYEFFGkvxxzzy4pL7g+8PDoDgJ2hA9cMFEGA1UdIwRK
MEiAFKgQCffbQrlIS6NrwtK4iml9834moRqkGDAWMRQwEgYDVQQDDAt0ZWFtMzY4
LW5ldIIUA+JT5R53/SD0ThJqW+Pazsht438wEwYDVR0lBAwwCgYIKwYBBQUHAwEw
CwYDVR0PBAQDAgWgMBkGA1UdEQQSMBCCDnRlYW0zNjgtc2VydmVyMA0GCSqGSIb3
DQEBCwUAA4IBAQBgJGjCWQF+p4m8ggyu7effGzBBrYiOtlJNB2iDKet8EEoS2TGK
xu/SeA1bvQGy4C7FePGEMN0NUHXYpjAMZO9jaUc3+QH4RyTnymot7q/1jcXZJz3Z
Nh6DZ/5L7u5oyipJvxpBXsGcL43EJXUWIwpII+gSo+lp6OjOzhGuvtMIc1UWcDbW
EUZOVu9A5e1lRdkMuJgHp+Odo39/GrWIbrVw7RiyU72bC3+FOTZGaOVam5xHCEEG
hPele7BK5RAUM69NWrSVrnA4+2eBoBcCzj18oIZPti2N5pDTVLjKV/HOzSDcvEiA
dpSE/TrQqXwhnR8xKKVtjXmFRM5proSGbsG5
-----END CERTIFICATE-----
