Certificate:
    Data:
        Version: 3 (0x2)
        Serial Number:
            92:28:9a:2e:e1:1c:8b:ab:fb:b9:69:3a:dd:0a:13:69
        Signature Algorithm: sha256WithRSAEncryption
        Issuer: CN=team368-net
        Validity
            Not Before: Nov  4 11:35:41 2023 GMT
            Not After : Oct 19 11:35:41 2026 GMT
        Subject: CN=team368-client
        Subject Public Key Info:
            Public Key Algorithm: rsaEncryption
                Public-Key: (2048 bit)
                Modulus:
                    00:c3:2c:1e:a2:2d:a0:0f:26:12:ba:69:34:ce:b8:
                    05:9e:fd:cd:67:e5:38:72:17:57:72:7b:04:36:66:
                    cd:f7:fc:58:48:46:30:98:c2:9a:eb:fe:11:44:2a:
                    50:93:2c:33:a7:42:3d:b6:17:eb:59:cd:a6:ae:a4:
                    9b:e1:a0:cf:0e:b3:dd:b9:b8:01:68:a1:3c:15:3a:
                    f8:47:df:55:41:b2:04:1b:b8:a1:8f:50:7e:ed:07:
                    03:5a:cc:95:17:c2:1b:f0:5e:1e:6f:93:bf:2e:0a:
                    82:dc:a9:2c:6a:b3:5c:13:07:a7:29:d4:be:a4:70:
                    17:00:79:33:dd:eb:fc:9d:1f:ce:0b:70:7f:07:98:
                    7d:64:69:f1:10:37:83:78:73:c0:90:a8:df:f1:1b:
                    32:19:b2:af:d8:35:65:e8:77:d0:6b:0a:fe:d6:b7:
                    f3:0e:ee:79:de:34:ff:5e:01:25:e3:d5:f1:e2:b4:
                    2c:87:e7:34:fb:94:de:d2:8b:92:7a:73:6a:b1:30:
                    62:76:3d:e4:26:dc:2d:2a:0c:57:52:df:f5:57:bd:
                    14:49:cc:68:a5:ed:fd:8c:5f:7d:3a:ff:95:95:f5:
                    ef:bf:a4:e4:41:7c:15:e6:19:46:f7:ed:bb:f8:04:
                    6f:7f:1c:9b:2c:a8:01:e8:09:ba:72:b6:19:b1:20:
                    c9:cb
                Exponent: 65537 (0x10001)
        X509v3 extensions:
            X509v3 Basic Constraints: 
                CA:FALSE
            X509v3 Subject Key Identifier: 
                DE:2E:D2:77:9B:C6:8C:98:4D:A9:6A:83:90:D5:97:0D:13:B4:BD:BC
            X509v3 Authority Key Identifier: 
                keyid:A8:10:09:F7:DB:42:B9:48:4B:A3:6B:C2:D2:B8:8A:69:7D:F3:7E:26
                DirName:/CN=team368-net
                serial:03:E2:53:E5:1E:77:FD:20:F4:4E:12:6A:5B:E3:DA:CE:C8:6D:E3:7F
            X509v3 Extended Key Usage: 
                TLS Web Client Authentication
            X509v3 Key Usage: 
                Digital Signature
    Signature Algorithm: sha256WithRSAEncryption
    Signature Value:
        43:7f:91:78:60:f1:8e:4d:fe:6e:18:35:55:cd:43:3c:ea:d1:
        14:6f:53:7f:d6:1e:71:0e:a4:d6:a6:67:7e:45:6c:82:5e:03:
        33:06:71:b0:26:03:8c:00:26:ab:99:e1:b3:d6:32:82:e1:33:
        95:1a:bb:c9:0f:df:47:06:d3:e4:80:e7:dc:d2:39:ae:59:98:
        35:bc:31:50:1f:3e:d8:36:ef:65:13:98:21:6b:d9:8d:29:98:
        16:5e:a2:da:e6:f6:49:6f:1a:54:2f:19:2d:37:9e:95:ac:11:
        f8:95:f5:f2:93:d5:25:d3:70:79:bc:ff:3d:fe:59:20:f4:2a:
        c0:0c:b7:62:57:52:82:0d:05:a2:ff:2f:1f:a1:0c:f7:ad:28:
        da:95:a8:08:3b:15:45:0c:34:66:0f:76:79:d3:e5:f9:14:c6:
        3e:8b:0e:05:90:aa:cd:d0:dd:7f:52:04:71:87:05:11:01:61:
        87:d3:8a:d3:fe:42:a7:35:86:e9:00:f4:59:07:1a:dd:19:8a:
        7b:6c:2c:c6:53:bc:19:23:3c:1f:f9:24:8c:5b:a1:13:b4:91:
        8b:9a:63:e9:e0:c2:10:cf:7e:64:2e:8b:d7:e6:50:12:43:a3:
        3c:01:42:13:cc:55:17:c4:95:eb:6c:84:f2:a6:7c:9c:63:69:
        1a:c9:ae:f0
-----BEGIN CERTIFICATE-----
MIIDXTCCAkWgAwIBAgIRAJIomi7hHIur+7lpOt0KE2kwDQYJKoZIhvcNAQELBQAw
FjEUMBIGA1UEAwwLdGVhbTM2OC1uZXQwHhcNMjMxMTA0MTEzNTQxWhcNMjYxMDE5
MTEzNTQxWjAZMRcwFQYDVQQDDA50ZWFtMzY4LWNsaWVudDCCASIwDQYJKoZIhvcN
AQEBBQADggEPADCCAQoCggEBAMMsHqItoA8mErppNM64BZ79zWflOHIXV3J7BDZm
zff8WEhGMJjCmuv+EUQqUJMsM6dCPbYX61nNpq6km+Ggzw6z3bm4AWihPBU6+Eff
VUGyBBu4oY9Qfu0HA1rMlRfCG/BeHm+Tvy4KgtypLGqzXBMHpynUvqRwFwB5M93r
/J0fzgtwfweYfWRp8RA3g3hzwJCo3/EbMhmyr9g1Zeh30GsK/ta38w7ued40/14B
JePV8eK0LIfnNPuU3tKLknpzarEwYnY95CbcLSoMV1Lf9Ve9FEnMaKXt/YxffTr/
lZX177+k5EF8FeYZRvftu/gEb38cmyyoAegJunK2GbEgycsCAwEAAaOBojCBnzAJ
BgNVHRMEAjAAMB0GA1UdDgQWBBTeLtJ3m8aMmE2paoOQ1ZcNE7S9vDBRBgNVHSME
SjBIgBSoEAn320K5SEuja8LSuIppffN+JqEapBgwFjEUMBIGA1UEAwwLdGVhbTM2
OC1uZXSCFAPiU+Ued/0g9E4Salvj2s7IbeN/MBMGA1UdJQQMMAoGCCsGAQUFBwMC
MAsGA1UdDwQEAwIHgDANBgkqhkiG9w0BAQsFAAOCAQEAQ3+ReGDxjk3+bhg1Vc1D
POrRFG9Tf9YecQ6k1qZnfkVsgl4DMwZxsCYDjAAmq5nhs9YyguEzlRq7yQ/fRwbT
5IDn3NI5rlmYNbwxUB8+2DbvZROYIWvZjSmYFl6i2ub2SW8aVC8ZLTeelawR+JX1
8pPVJdNwebz/Pf5ZIPQqwAy3YldSgg0Fov8vH6EM960o2pWoCDsVRQw0Zg92edPl
+RTGPosOBZCqzdDdf1IEcYcFEQFhh9OK0/5CpzWG6QD0WQca3RmKe2wsxlO8GSM8
H/kkjFuhE7SRi5pj6eDCEM9+ZC6L1+ZQEkOjPAFCE8xVF8SV62yE8qZ8nGNpGsmu
8A==
-----END CERTIFICATE-----
