Certificate:
    Data:
        Version: 3 (0x2)
        Serial Number:
            19:62:6d:15:ec:be:de:61:10:c7:84:ef:ce:74:9d:b7
        Signature Algorithm: sha256WithRSAEncryption
        Issuer: CN=team45-net
        Validity
            Not Before: Nov  3 20:40:02 2023 GMT
            Not After : Oct 18 20:40:02 2026 GMT
        Subject: CN=team45-server
        Subject Public Key Info:
            Public Key Algorithm: rsaEncryption
                Public-Key: (2048 bit)
                Modulus:
                    00:e7:cc:ca:21:f0:78:8b:26:9a:bb:35:d7:5b:0f:
                    be:30:34:79:9d:ff:0b:52:e6:a9:ce:f9:62:4f:c0:
                    6c:ea:69:1f:1a:13:41:be:c5:65:16:64:51:59:af:
                    1f:18:aa:84:2c:38:2b:82:ff:51:06:c8:c4:5b:99:
                    94:e3:51:d5:33:50:b1:9d:0a:8c:c4:44:d6:d9:60:
                    c3:63:e9:78:51:8d:e6:48:e8:ae:38:f5:6a:4d:5f:
                    05:6d:ab:ab:14:b9:ae:02:72:e5:ce:06:df:42:c5:
                    2b:24:86:9a:22:39:e7:22:17:4d:59:6e:cd:f1:cc:
                    c4:b1:91:88:57:b7:f6:e5:25:ae:eb:ed:94:77:ee:
                    2f:7a:72:c3:14:66:05:61:81:84:96:b3:2f:26:8f:
                    ef:d1:63:8c:fd:d7:58:8f:06:78:aa:19:67:90:5e:
                    7a:99:f2:8e:87:28:e7:e0:af:81:d8:c0:f6:66:29:
                    e9:2a:20:f6:63:7a:50:1f:8b:b1:ea:7c:86:1b:e6:
                    ee:91:c0:b0:b9:e8:e6:fe:30:39:1a:cc:44:c5:50:
                    d7:fa:68:54:4f:3b:6c:af:20:76:b7:a8:fb:2a:7f:
                    6e:7f:3e:bc:59:82:41:ff:08:ca:cc:a7:fc:09:46:
                    9b:97:cd:48:dd:6e:ad:6c:a4:2f:83:ff:da:0a:d2:
                    f0:5f
                Exponent: 65537 (0x10001)
        X509v3 extensions:
            X509v3 Basic Constraints: 
                CA:FALSE
            X509v3 Subject Key Identifier: 
                AF:BE:64:AF:30:1C:C7:83:2B:D8:BF:12:3D:14:F3:ED:64:6E:D8:5C
            X509v3 Authority Key Identifier: 
                keyid:4F:0E:AB:D9:AE:26:A0:21:DA:04:79:B4:42:28:46:40:66:0C:2C:15
                DirName:/CN=team45-net
                serial:20:D7:04:1A:12:56:31:B4:F6:2F:2D:70:B3:D0:79:CC:53:AC:4B:B5
            X509v3 Extended Key Usage: 
                TLS Web Server Authentication
            X509v3 Key Usage: 
                Digital Signature, Key Encipherment
            X509v3 Subject Alternative Name: 
                DNS:team45-server
    Signature Algorithm: sha256WithRSAEncryption
    Signature Value:
        f8:7a:ee:c6:0a:44:14:3b:0c:43:0e:8a:d4:33:66:f8:ba:49:
        6a:1a:20:5e:1b:4f:3b:a4:c5:93:c0:98:57:d6:44:66:d9:7e:
        59:5a:49:71:5e:97:20:4b:a9:8d:8b:96:ac:49:9d:cd:d3:e0:
        53:9d:42:b3:08:bd:fa:ca:a3:e3:ed:5c:9c:e0:a8:d8:65:a7:
        fa:72:84:7f:f5:4a:94:ce:c0:53:ec:5f:05:ef:be:28:54:a3:
        36:da:42:ac:24:06:24:5d:66:da:cb:1e:ab:e5:41:30:39:19:
        1c:42:44:dc:4a:b7:4c:10:70:5b:87:fb:fa:3d:af:f3:f3:89:
        5b:39:b4:f5:68:3e:d0:04:9d:46:8c:b4:44:92:69:b5:02:50:
        db:7e:14:17:76:ee:52:8c:66:4d:04:37:2a:90:01:19:75:59:
        5d:70:39:21:2f:45:19:ee:8a:3f:a7:58:0a:94:ba:49:53:77:
        0c:bd:c4:dd:7f:3d:4f:08:40:65:9e:50:ea:12:a5:ab:72:10:
        8f:dd:7f:54:24:4e:84:69:27:80:f8:aa:71:80:af:20:4c:e7:
        e1:0d:fb:ab:32:7e:52:49:c0:40:67:5d:58:d8:ac:bb:af:29:
        88:44:a8:a1:ca:f7:a5:46:4e:d9:97:bd:93:40:26:23:80:e4:
        d7:64:62:02
-----BEGIN CERTIFICATE-----
MIIDczCCAlugAwIBAgIQGWJtFey+3mEQx4TvznSdtzANBgkqhkiG9w0BAQsFADAV
MRMwEQYDVQQDDAp0ZWFtNDUtbmV0MB4XDTIzMTEwMzIwNDAwMloXDTI2MTAxODIw
NDAwMlowGDEWMBQGA1UEAwwNdGVhbTQ1LXNlcnZlcjCCASIwDQYJKoZIhvcNAQEB
BQADggEPADCCAQoCggEBAOfMyiHweIsmmrs111sPvjA0eZ3/C1Lmqc75Yk/AbOpp
HxoTQb7FZRZkUVmvHxiqhCw4K4L/UQbIxFuZlONR1TNQsZ0KjMRE1tlgw2PpeFGN
5kjorjj1ak1fBW2rqxS5rgJy5c4G30LFKySGmiI55yIXTVluzfHMxLGRiFe39uUl
ruvtlHfuL3pywxRmBWGBhJazLyaP79FjjP3XWI8GeKoZZ5Beepnyjoco5+CvgdjA
9mYp6Sog9mN6UB+Lsep8hhvm7pHAsLno5v4wORrMRMVQ1/poVE87bK8gdreo+yp/
bn8+vFmCQf8Iysyn/AlGm5fNSN1urWykL4P/2grS8F8CAwEAAaOBuzCBuDAJBgNV
HRMEAjAAMB0GA1UdDgQWBBSvvmSvMBzHgyvYvxI9FPPtZG7YXDBQBgNVHSMESTBH
gBRPDqvZriagIdoEebRCKEZAZgwsFaEZpBcwFTETMBEGA1UEAwwKdGVhbTQ1LW5l
dIIUINcEGhJWMbT2Ly1ws9B5zFOsS7UwEwYDVR0lBAwwCgYIKwYBBQUHAwEwCwYD
VR0PBAQDAgWgMBgGA1UdEQQRMA+CDXRlYW00NS1zZXJ2ZXIwDQYJKoZIhvcNAQEL
BQADggEBAPh67sYKRBQ7DEMOitQzZvi6SWoaIF4bTzukxZPAmFfWRGbZfllaSXFe
lyBLqY2LlqxJnc3T4FOdQrMIvfrKo+PtXJzgqNhlp/pyhH/1SpTOwFPsXwXvvihU
ozbaQqwkBiRdZtrLHqvlQTA5GRxCRNxKt0wQcFuH+/o9r/PziVs5tPVoPtAEnUaM
tESSabUCUNt+FBd27lKMZk0ENyqQARl1WV1wOSEvRRnuij+nWAqUuklTdwy9xN1/
PU8IQGWeUOoSpatyEI/df1QkToRpJ4D4qnGAryBM5+EN+6syflJJwEBnXVjYrLuv
KYhEqKHK96VGTtmXvZNAJiOA5NdkYgI=
-----END CERTIFICATE-----
