Certificate:
    Data:
        Version: 3 (0x2)
        Serial Number:
            6a:60:e4:c6:81:68:65:fc:7d:6d:aa:44:d3:be:73:b0
        Signature Algorithm: sha256WithRSAEncryption
        Issuer: CN=team45-net
        Validity
            Not Before: Nov  4 11:28:15 2023 GMT
            Not After : Oct 19 11:28:15 2026 GMT
        Subject: CN=team45-server
        Subject Public Key Info:
            Public Key Algorithm: rsaEncryption
                Public-Key: (2048 bit)
                Modulus:
                    00:b4:78:ec:a0:e1:61:24:aa:44:78:2a:20:4a:a9:
                    90:50:6e:df:cf:04:6f:b3:bf:70:69:bd:72:50:22:
                    a2:e0:b0:6b:32:b9:05:42:e8:f4:6d:c3:0f:5c:80:
                    bf:78:85:f0:a0:41:1f:16:f2:e8:11:c9:42:7b:a8:
                    af:ed:8d:28:4d:c4:60:3a:24:57:86:92:cf:0b:19:
                    11:a0:00:46:05:eb:4b:40:57:c1:a4:ce:4d:27:37:
                    4e:80:b6:30:ac:73:33:15:bb:f1:45:03:b0:0c:2a:
                    d2:55:f6:db:42:d0:20:9c:ed:a2:6b:82:9a:6b:2d:
                    e8:f2:02:5b:49:6d:96:b4:55:f3:4d:49:fa:68:c8:
                    24:6e:fd:89:7e:c8:f7:10:fa:51:47:28:57:65:52:
                    9b:cf:db:38:68:c6:93:e0:1b:35:45:44:ac:52:c1:
                    53:e4:5c:af:ed:13:b5:19:d2:aa:01:34:02:aa:b3:
                    8f:93:e7:9d:7d:f5:d0:3e:61:57:2d:6e:97:7d:72:
                    b5:99:c0:6d:25:71:5a:67:ca:1d:16:4e:5b:06:3f:
                    c0:fc:81:7c:fa:b8:50:7c:7d:85:5b:23:fa:7e:ea:
                    0d:ab:42:67:17:02:3d:15:19:df:09:9a:47:eb:90:
                    32:cb:fb:25:e2:ea:b9:b0:e6:2f:35:c2:7c:0a:c2:
                    d7:3f
                Exponent: 65537 (0x10001)
        X509v3 extensions:
            X509v3 Basic Constraints: 
                CA:FALSE
            X509v3 Subject Key Identifier: 
                8A:DF:FD:52:C3:11:AA:B8:4D:6D:C7:62:F8:B3:F0:B0:A8:DC:42:C1
            X509v3 Authority Key Identifier: 
                keyid:EB:EF:D8:7A:E3:64:39:D2:F3:B9:F0:E7:AE:A9:55:BD:50:86:53:D7
                DirName:/CN=team45-net
                serial:21:70:48:B6:AB:29:E9:C7:3B:A5:93:DB:3E:01:9D:77:5E:11:CD:45
            X509v3 Extended Key Usage: 
                TLS Web Server Authentication
            X509v3 Key Usage: 
                Digital Signature, Key Encipherment
            X509v3 Subject Alternative Name: 
                DNS:team45-server
    Signature Algorithm: sha256WithRSAEncryption
    Signature Value:
        0f:f1:bb:3a:f0:98:fc:73:99:57:d3:6f:ba:cb:66:56:fb:3b:
        63:7d:fa:d9:bb:2e:49:28:ba:df:26:ee:91:a9:56:28:9b:49:
        28:79:ca:cd:c1:0e:70:87:0e:d6:b5:c9:8e:0a:88:5a:bc:1d:
        ff:98:16:df:f9:0f:37:cf:98:75:5c:3b:cc:57:fb:a1:fb:3f:
        84:c4:88:20:2e:de:22:cd:c7:4d:7d:99:cc:9b:96:8b:9a:18:
        95:21:49:36:45:d1:b1:46:16:2d:48:ee:97:ef:f1:e0:c1:ed:
        2c:37:80:ba:5d:f7:b0:98:33:47:9f:a5:96:cf:1e:05:77:85:
        c6:09:b7:f6:78:3d:b8:20:0a:57:62:04:fb:98:3b:d0:f2:b3:
        32:8b:79:3f:c0:8c:f1:c0:01:82:0e:59:00:ec:3f:e7:22:b3:
        c3:91:bd:6e:5f:4d:d1:64:70:fc:b3:98:da:24:56:e7:bd:a6:
        19:e4:9e:f8:ef:08:25:14:3a:25:06:8f:95:f4:aa:ba:6a:48:
        c8:59:ca:87:be:cb:48:ef:22:26:12:74:dc:23:8a:f4:df:1e:
        a4:2f:28:f2:60:40:ac:10:d6:81:cf:84:36:4a:c2:8c:fa:b3:
        e2:9d:35:d0:3f:fd:80:46:80:37:0a:fc:9c:a3:81:c1:94:8e:
        be:30:16:b9
-----BEGIN CERTIFICATE-----
MIIDczCCAlugAwIBAgIQamDkxoFoZfx9bapE075zsDANBgkqhkiG9w0BAQsFADAV
MRMwEQYDVQQDDAp0ZWFtNDUtbmV0MB4XDTIzMTEwNDExMjgxNVoXDTI2MTAxOTEx
MjgxNVowGDEWMBQGA1UEAwwNdGVhbTQ1LXNlcnZlcjCCASIwDQYJKoZIhvcNAQEB
BQADggEPADCCAQoCggEBALR47KDhYSSqRHgqIEqpkFBu388Eb7O/cGm9clAiouCw
azK5BULo9G3DD1yAv3iF8KBBHxby6BHJQnuor+2NKE3EYDokV4aSzwsZEaAARgXr
S0BXwaTOTSc3ToC2MKxzMxW78UUDsAwq0lX220LQIJztomuCmmst6PICW0ltlrRV
801J+mjIJG79iX7I9xD6UUcoV2VSm8/bOGjGk+AbNUVErFLBU+Rcr+0TtRnSqgE0
Aqqzj5PnnX310D5hVy1ul31ytZnAbSVxWmfKHRZOWwY/wPyBfPq4UHx9hVsj+n7q
DatCZxcCPRUZ3wmaR+uQMsv7JeLqubDmLzXCfArC1z8CAwEAAaOBuzCBuDAJBgNV
HRMEAjAAMB0GA1UdDgQWBBSK3/1SwxGquE1tx2L4s/CwqNxCwTBQBgNVHSMESTBH
gBTr79h642Q50vO58OeuqVW9UIZT16EZpBcwFTETMBEGA1UEAwwKdGVhbTQ1LW5l
dIIUIXBItqsp6cc7pZPbPgGdd14RzUUwEwYDVR0lBAwwCgYIKwYBBQUHAwEwCwYD
VR0PBAQDAgWgMBgGA1UdEQQRMA+CDXRlYW00NS1zZXJ2ZXIwDQYJKoZIhvcNAQEL
BQADggEBAA/xuzrwmPxzmVfTb7rLZlb7O2N9+tm7Lkkout8m7pGpViibSSh5ys3B
DnCHDta1yY4KiFq8Hf+YFt/5DzfPmHVcO8xX+6H7P4TEiCAu3iLNx019mcybloua
GJUhSTZF0bFGFi1I7pfv8eDB7Sw3gLpd97CYM0efpZbPHgV3hcYJt/Z4PbggCldi
BPuYO9DyszKLeT/AjPHAAYIOWQDsP+cis8ORvW5fTdFkcPyzmNokVue9phnknvjv
CCUUOiUGj5X0qrpqSMhZyoe+y0jvIiYSdNwjivTfHqQvKPJgQKwQ1oHPhDZKwoz6
s+KdNdA//YBGgDcK/JyjgcGUjr4wFrk=
-----END CERTIFICATE-----
