Certificate:
    Data:
        Version: 3 (0x2)
        Serial Number:
            da:00:59:9f:da:fa:c6:c0:ce:eb:52:fa:78:13:b9:a0
        Signature Algorithm: sha256WithRSAEncryption
        Issuer: CN=team45-net
        Validity
            Not Before: Nov  4 11:28:15 2023 GMT
            Not After : Oct 19 11:28:15 2026 GMT
        Subject: CN=team45-client
        Subject Public Key Info:
            Public Key Algorithm: rsaEncryption
                Public-Key: (2048 bit)
                Modulus:
                    00:cc:c8:91:e6:b3:df:b0:43:ec:2c:20:fb:46:77:
                    bd:ac:b3:0b:15:f4:37:0c:f1:d6:c3:20:ff:88:0b:
                    d6:e1:65:de:13:ab:10:c8:ef:cf:c5:c7:73:20:a7:
                    04:ca:1f:87:ca:98:57:29:27:9a:c5:0e:fc:7e:26:
                    8e:fd:4c:f3:e1:5d:52:a6:1e:13:e3:cb:6a:f0:0a:
                    d7:35:17:1f:15:78:e8:46:4d:18:95:22:76:05:86:
                    ee:99:43:72:bf:e7:cb:24:15:c0:d1:f8:d9:a0:74:
                    36:68:3b:0f:81:c1:b1:46:07:ad:bc:ca:f9:d4:e4:
                    68:b3:8e:55:44:43:f0:0b:40:0c:4d:6a:72:97:58:
                    ed:22:3f:bc:d6:6d:52:8c:24:7e:06:16:8d:b7:38:
                    b7:b7:c6:9d:bc:7c:7d:54:42:a2:e3:71:60:9e:c8:
                    21:b6:de:f6:6b:ef:61:64:e7:a9:e0:70:95:fa:5d:
                    ba:f8:e4:70:c7:1c:9d:d8:6e:73:bb:52:d9:a9:f5:
                    f2:e7:5b:0f:56:cb:ba:ef:66:80:14:6e:28:bc:b6:
                    9f:47:00:40:72:ea:96:08:cb:32:b7:01:47:1d:de:
                    dd:25:86:51:9c:a3:31:b1:85:64:63:9e:eb:08:68:
                    6f:f0:74:38:62:84:5a:75:c8:88:5a:be:03:67:75:
                    a1:f1
                Exponent: 65537 (0x10001)
        X509v3 extensions:
            X509v3 Basic Constraints: 
                CA:FALSE
            X509v3 Subject Key Identifier: 
                5F:CA:EF:BA:4A:57:14:42:4E:34:4F:2D:65:09:6C:84:E2:67:57:84
            X509v3 Authority Key Identifier: 
                keyid:EB:EF:D8:7A:E3:64:39:D2:F3:B9:F0:E7:AE:A9:55:BD:50:86:53:D7
                DirName:/CN=team45-net
                serial:21:70:48:B6:AB:29:E9:C7:3B:A5:93:DB:3E:01:9D:77:5E:11:CD:45
            X509v3 Extended Key Usage: 
                TLS Web Client Authentication
            X509v3 Key Usage: 
                Digital Signature
    Signature Algorithm: sha256WithRSAEncryption
    Signature Value:
        3b:a9:5d:1c:30:f1:1e:5c:cf:1f:1e:8a:bd:a2:1e:e7:28:03:
        b9:88:46:fb:b7:cc:33:46:ac:91:c4:f4:28:b9:29:31:d4:be:
        4b:68:18:fa:3b:bc:97:5d:1a:dd:75:2a:c3:43:58:7d:16:ce:
        4a:83:16:f0:d0:50:cd:d0:f4:64:fc:90:08:f5:df:43:ec:ba:
        e4:f0:0f:32:fa:5e:8e:8a:a5:06:f4:98:08:a3:69:69:9f:59:
        d4:0b:d8:36:67:3e:8c:11:40:93:72:20:50:f7:23:41:f6:eb:
        f8:44:8a:8e:74:50:d6:ed:f0:1c:e1:73:87:9e:96:b4:de:19:
        59:2f:3c:5f:a6:0c:72:06:12:99:46:e0:7c:ba:23:7d:b6:23:
        06:58:8a:a7:65:d0:a2:7b:be:f6:58:bf:ad:94:fa:2f:59:08:
        3c:6f:45:7e:74:a6:96:95:06:90:06:14:99:c6:1f:77:16:d9:
        f3:8f:14:99:6c:fc:37:ba:a6:fe:ae:8b:41:3d:8e:42:8b:ff:
        21:b7:7f:51:c5:5a:a4:75:59:1d:39:6a:f3:b6:ed:45:5e:bc:
        d0:b7:f7:57:71:f2:59:cc:17:63:e4:82:d4:cf:96:e5:83:1e:
        19:cb:80:38:df:ca:65:4c:da:79:41:69:b1:39:da:fa:46:6f:
        70:db:19:7a
-----BEGIN CERTIFICATE-----
MIIDWjCCAkKgAwIBAgIRANoAWZ/a+sbAzutS+ngTuaAwDQYJKoZIhvcNAQELBQAw
FTETMBEGA1UEAwwKdGVhbTQ1LW5ldDAeFw0yMzExMDQxMTI4MTVaFw0yNjEwMTkx
MTI4MTVaMBgxFjAUBgNVBAMMDXRlYW00NS1jbGllbnQwggEiMA0GCSqGSIb3DQEB
AQUAA4IBDwAwggEKAoIBAQDMyJHms9+wQ+wsIPtGd72sswsV9DcM8dbDIP+IC9bh
Zd4TqxDI78/Fx3MgpwTKH4fKmFcpJ5rFDvx+Jo79TPPhXVKmHhPjy2rwCtc1Fx8V
eOhGTRiVInYFhu6ZQ3K/58skFcDR+NmgdDZoOw+BwbFGB628yvnU5GizjlVEQ/AL
QAxNanKXWO0iP7zWbVKMJH4GFo23OLe3xp28fH1UQqLjcWCeyCG23vZr72Fk56ng
cJX6Xbr45HDHHJ3YbnO7Utmp9fLnWw9Wy7rvZoAUbii8tp9HAEBy6pYIyzK3AUcd
3t0lhlGcozGxhWRjnusIaG/wdDhihFp1yIhavgNndaHxAgMBAAGjgaEwgZ4wCQYD
VR0TBAIwADAdBgNVHQ4EFgQUX8rvukpXFEJONE8tZQlshOJnV4QwUAYDVR0jBEkw
R4AU6+/YeuNkOdLzufDnrqlVvVCGU9ehGaQXMBUxEzARBgNVBAMMCnRlYW00NS1u
ZXSCFCFwSLarKenHO6WT2z4BnXdeEc1FMBMGA1UdJQQMMAoGCCsGAQUFBwMCMAsG
A1UdDwQEAwIHgDANBgkqhkiG9w0BAQsFAAOCAQEAO6ldHDDxHlzPHx6KvaIe5ygD
uYhG+7fMM0askcT0KLkpMdS+S2gY+ju8l10a3XUqw0NYfRbOSoMW8NBQzdD0ZPyQ
CPXfQ+y65PAPMvpejoqlBvSYCKNpaZ9Z1AvYNmc+jBFAk3IgUPcjQfbr+ESKjnRQ
1u3wHOFzh56WtN4ZWS88X6YMcgYSmUbgfLojfbYjBliKp2XQonu+9li/rZT6L1kI
PG9FfnSmlpUGkAYUmcYfdxbZ848UmWz8N7qm/q6LQT2OQov/Ibd/UcVapHVZHTlq
87btRV680Lf3V3HyWcwXY+SC1M+W5YMeGcuAON/KZUzaeUFpsTna+kZvcNsZeg==
-----END CERTIFICATE-----
