Certificate:
    Data:
        Version: 3 (0x2)
        Serial Number:
            8e:2c:76:b3:68:02:0f:23:a4:45:b9:52:11:ed:17:a5
        Signature Algorithm: sha256WithRSAEncryption
        Issuer: CN=team191-net
        Validity
            Not Before: Nov  3 20:42:44 2023 GMT
            Not After : Oct 18 20:42:44 2026 GMT
        Subject: CN=team191-client
        Subject Public Key Info:
            Public Key Algorithm: rsaEncryption
                Public-Key: (2048 bit)
                Modulus:
                    00:9c:91:ae:24:ca:ee:4a:44:b3:e2:ee:66:7d:9b:
                    af:de:80:73:cc:8d:a1:4f:6d:55:66:45:2d:40:f4:
                    b8:cc:59:eb:8f:a3:a8:61:66:d7:6e:a0:e7:af:c8:
                    b9:e4:69:53:d8:13:c3:7d:df:50:1b:4e:1d:3b:29:
                    ed:31:30:91:72:a4:ce:ca:e3:11:23:90:ec:1d:05:
                    46:99:6d:65:23:b8:82:89:e4:18:a1:b0:28:87:65:
                    67:1d:36:4c:f2:01:31:d3:c1:dc:fe:57:d8:93:2e:
                    1a:1d:b0:a0:f5:44:f3:58:a5:67:cf:4c:b2:14:f2:
                    20:33:09:17:8a:39:96:29:3d:cc:01:65:4f:9d:88:
                    d8:40:77:b3:28:e5:0d:54:75:bc:73:1e:e5:26:e5:
                    b8:30:94:27:a6:36:83:50:66:9d:da:c9:3a:0a:c0:
                    13:54:1b:c4:d1:f5:b6:9e:92:d8:b7:4f:01:25:cf:
                    ca:d7:19:31:4c:d9:3c:bb:36:ff:ae:ce:90:7a:b3:
                    14:76:37:23:fd:ae:dd:dc:a2:12:84:47:30:6a:54:
                    60:71:94:ee:9c:46:9a:84:a7:c7:bb:b7:01:3b:7e:
                    80:82:76:18:0b:56:62:15:81:32:3f:bf:7a:cd:64:
                    1e:cb:e1:ca:45:27:c9:79:62:0f:f1:6f:40:38:3a:
                    b1:59
                Exponent: 65537 (0x10001)
        X509v3 extensions:
            X509v3 Basic Constraints: 
                CA:FALSE
            X509v3 Subject Key Identifier: 
                56:25:E5:F4:73:8A:D0:5F:EA:72:F1:DD:40:E7:1E:FA:F3:8B:BC:D6
            X509v3 Authority Key Identifier: 
                keyid:F9:21:A4:22:FC:DA:6A:E9:80:7A:3B:62:62:1A:96:7F:22:32:F0:0F
                DirName:/CN=team191-net
                serial:3E:DC:D1:E9:DE:47:2B:B4:72:AD:8D:4C:3B:DB:D4:F7:85:B9:7B:48
            X509v3 Extended Key Usage: 
                TLS Web Client Authentication
            X509v3 Key Usage: 
                Digital Signature
    Signature Algorithm: sha256WithRSAEncryption
    Signature Value:
        9e:99:99:43:7c:99:85:78:09:6e:98:9e:e9:3a:34:06:41:de:
        17:b8:9e:9c:be:8a:02:53:51:43:da:53:73:ac:26:97:fd:ca:
        2e:93:23:ac:4c:d7:f0:b5:a1:70:84:c0:53:6e:c5:28:2a:1d:
        10:8d:07:55:e2:d2:7d:00:4c:63:e8:8b:68:92:e2:80:31:c5:
        b7:4c:fd:c0:08:1a:47:4e:f6:d5:59:0d:1d:95:4e:a3:3e:0b:
        94:32:85:70:22:14:eb:11:2b:1a:1d:42:8f:43:1e:55:9b:f1:
        05:28:42:34:bb:39:3c:b9:a0:55:52:61:88:58:21:ed:a8:d5:
        bf:97:82:96:85:9f:a2:a8:94:33:5d:f8:60:20:1c:b9:e0:44:
        b8:65:b4:c9:b0:58:56:13:05:78:6e:ff:c7:2b:40:88:cb:ec:
        b2:77:2a:db:ec:ac:22:45:dd:57:1f:87:85:b1:2c:38:1d:0f:
        6e:53:9a:c7:16:11:bf:00:46:ef:8d:d3:28:85:32:e3:33:27:
        c4:ad:5a:2d:f9:83:6e:83:ca:55:ea:32:5f:3c:78:25:ac:76:
        89:aa:c0:4e:fe:c1:38:ee:f5:49:d1:9a:8d:34:fa:ad:3e:8e:
        13:1f:da:f4:c4:f3:5f:ec:5e:13:c4:a9:90:41:c4:d6:b1:1f:
        4d:23:fa:19
-----BEGIN CERTIFICATE-----
MIIDXTCCAkWgAwIBAgIRAI4sdrNoAg8jpEW5UhHtF6UwDQYJKoZIhvcNAQELBQAw
FjEUMBIGA1UEAwwLdGVhbTE5MS1uZXQwHhcNMjMxMTAzMjA0MjQ0WhcNMjYxMDE4
MjA0MjQ0WjAZMRcwFQYDVQQDDA50ZWFtMTkxLWNsaWVudDCCASIwDQYJKoZIhvcN
AQEBBQADggEPADCCAQoCggEBAJyRriTK7kpEs+LuZn2br96Ac8yNoU9tVWZFLUD0
uMxZ64+jqGFm126g56/IueRpU9gTw33fUBtOHTsp7TEwkXKkzsrjESOQ7B0FRplt
ZSO4gonkGKGwKIdlZx02TPIBMdPB3P5X2JMuGh2woPVE81ilZ89MshTyIDMJF4o5
lik9zAFlT52I2EB3syjlDVR1vHMe5SbluDCUJ6Y2g1BmndrJOgrAE1QbxNH1tp6S
2LdPASXPytcZMUzZPLs2/67OkHqzFHY3I/2u3dyiEoRHMGpUYHGU7pxGmoSnx7u3
ATt+gIJ2GAtWYhWBMj+/es1kHsvhykUnyXliD/FvQDg6sVkCAwEAAaOBojCBnzAJ
BgNVHRMEAjAAMB0GA1UdDgQWBBRWJeX0c4rQX+py8d1A5x7684u81jBRBgNVHSME
SjBIgBT5IaQi/Npq6YB6O2JiGpZ/IjLwD6EapBgwFjEUMBIGA1UEAwwLdGVhbTE5
MS1uZXSCFD7c0eneRyu0cq2NTDvb1PeFuXtIMBMGA1UdJQQMMAoGCCsGAQUFBwMC
MAsGA1UdDwQEAwIHgDANBgkqhkiG9w0BAQsFAAOCAQEAnpmZQ3yZhXgJbpie6To0
BkHeF7ienL6KAlNRQ9pTc6wml/3KLpMjrEzX8LWhcITAU27FKCodEI0HVeLSfQBM
Y+iLaJLigDHFt0z9wAgaR0721VkNHZVOoz4LlDKFcCIU6xErGh1Cj0MeVZvxBShC
NLs5PLmgVVJhiFgh7ajVv5eCloWfoqiUM134YCAcueBEuGW0ybBYVhMFeG7/xytA
iMvssncq2+ysIkXdVx+HhbEsOB0PblOaxxYRvwBG743TKIUy4zMnxK1aLfmDboPK
VeoyXzx4Jax2iarATv7BOO71SdGajTT6rT6OEx/a9MTzX+xeE8SpkEHE1rEfTSP6
GQ==
-----END CERTIFICATE-----
