Certificate:
    Data:
        Version: 3 (0x2)
        Serial Number:
            36:38:09:b6:65:85:6f:24:4a:52:43:5e:96:b2:51:a0
        Signature Algorithm: sha256WithRSAEncryption
        Issuer: CN=team52-net
        Validity
            Not Before: Nov  3 20:40:09 2023 GMT
            Not After : Oct 18 20:40:09 2026 GMT
        Subject: CN=team52-server
        Subject Public Key Info:
            Public Key Algorithm: rsaEncryption
                Public-Key: (2048 bit)
                Modulus:
                    00:83:80:bb:b0:10:60:de:3b:64:4f:8a:46:8a:53:
                    35:77:f0:95:25:96:ad:e8:fd:27:44:49:0d:18:25:
                    af:53:b2:d2:65:f1:4e:98:3b:28:5d:70:52:cd:6c:
                    07:0b:22:60:53:23:3e:bb:eb:06:5a:19:16:c9:37:
                    a5:df:48:75:d5:cd:cb:61:c7:d6:c0:f9:ff:12:05:
                    62:c8:93:b5:37:56:aa:14:14:be:50:ed:1b:38:e5:
                    7f:d0:d6:bc:e7:14:82:c2:cc:65:6d:15:c0:02:20:
                    b2:53:7e:28:03:5f:d0:bd:3e:45:1b:66:56:76:cc:
                    d7:c6:97:74:9b:78:4e:41:ed:c4:e8:2f:db:8a:4b:
                    64:2d:ba:40:02:ad:96:9c:88:29:0d:c8:bf:2f:ab:
                    b8:7e:90:b3:2b:95:89:af:a3:3c:fc:91:d2:d1:5c:
                    1c:64:84:f6:c9:ea:d7:d0:d0:f6:f3:a1:d6:69:07:
                    ba:3d:5a:e2:eb:3c:2e:44:45:0f:cf:26:69:15:c3:
                    d4:a0:d4:aa:df:45:cf:4e:f3:a5:3b:37:44:f1:76:
                    b2:0d:68:ff:93:7c:7c:5d:f9:01:9e:55:bc:5b:78:
                    f8:f8:fd:94:e8:f3:96:5e:73:e2:c8:d1:3e:a6:89:
                    e0:c7:05:11:9d:70:14:f4:96:1d:58:88:a1:1b:1e:
                    21:55
                Exponent: 65537 (0x10001)
        X509v3 extensions:
            X509v3 Basic Constraints: 
                CA:FALSE
            X509v3 Subject Key Identifier: 
                EE:6A:A7:4A:5A:E2:9B:6D:0F:65:C6:3F:D7:F9:9C:C0:A4:66:67:7E
            X509v3 Authority Key Identifier: 
                keyid:04:4C:4B:68:59:99:5F:55:4B:94:D1:07:73:BA:EC:92:D5:1E:12:AC
                DirName:/CN=team52-net
                serial:70:29:3F:C5:DF:C6:ED:5A:5C:F4:61:77:E2:31:92:CB:D1:66:04:50
            X509v3 Extended Key Usage: 
                TLS Web Server Authentication
            X509v3 Key Usage: 
                Digital Signature, Key Encipherment
            X509v3 Subject Alternative Name: 
                DNS:team52-server
    Signature Algorithm: sha256WithRSAEncryption
    Signature Value:
        48:2e:3b:f1:0b:84:d7:54:ee:74:84:13:92:e7:9a:c1:b1:1f:
        ff:29:ce:c3:b4:f5:27:cd:fc:c4:a3:b2:93:dc:91:9a:4d:69:
        2b:2f:43:96:1e:9b:7b:5a:d6:6d:b2:68:04:8e:49:8d:dc:91:
        44:6e:6c:03:b3:46:75:64:83:98:b8:d1:03:94:1b:bc:be:7f:
        ee:12:4b:ba:37:41:5c:cc:8f:ac:b4:78:58:c7:d1:24:ca:c8:
        f8:8a:28:5e:2c:7b:ba:8d:10:d0:70:64:d8:ec:c6:a7:46:54:
        ca:cc:db:d0:88:de:03:4e:e7:e7:5d:0a:ab:03:7f:50:db:8e:
        a8:10:8e:98:fe:2c:f0:9f:86:aa:da:e0:cf:a2:58:af:00:fd:
        df:5d:a5:54:a0:4f:18:1e:94:20:9c:08:53:2f:07:79:0d:f8:
        86:6d:d4:da:d6:56:49:28:70:eb:64:ac:48:73:4f:2f:e6:14:
        35:75:36:43:e3:ff:8f:25:36:65:81:f1:fb:4f:51:d2:82:82:
        49:33:b2:79:dd:a0:0e:94:ba:9e:d2:92:fb:0d:97:f4:e8:10:
        31:7d:b7:4f:55:c7:00:13:c9:ab:b4:6b:8e:c7:fd:f4:e7:1c:
        bb:c2:67:81:c7:32:90:eb:0e:db:a2:d5:23:5e:d2:58:73:6f:
        c8:88:e5:6a
-----BEGIN CERTIFICATE-----
MIIDczCCAlugAwIBAgIQNjgJtmWFbyRKUkNelrJRoDANBgkqhkiG9w0BAQsFADAV
MRMwEQYDVQQDDAp0ZWFtNTItbmV0MB4XDTIzMTEwMzIwNDAwOVoXDTI2MTAxODIw
NDAwOVowGDEWMBQGA1UEAwwNdGVhbTUyLXNlcnZlcjCCASIwDQYJKoZIhvcNAQEB
BQADggEPADCCAQoCggEBAIOAu7AQYN47ZE+KRopTNXfwlSWWrej9J0RJDRglr1Oy
0mXxTpg7KF1wUs1sBwsiYFMjPrvrBloZFsk3pd9IddXNy2HH1sD5/xIFYsiTtTdW
qhQUvlDtGzjlf9DWvOcUgsLMZW0VwAIgslN+KANf0L0+RRtmVnbM18aXdJt4TkHt
xOgv24pLZC26QAKtlpyIKQ3Ivy+ruH6QsyuVia+jPPyR0tFcHGSE9snq19DQ9vOh
1mkHuj1a4us8LkRFD88maRXD1KDUqt9Fz07zpTs3RPF2sg1o/5N8fF35AZ5VvFt4
+Pj9lOjzll5z4sjRPqaJ4McFEZ1wFPSWHViIoRseIVUCAwEAAaOBuzCBuDAJBgNV
HRMEAjAAMB0GA1UdDgQWBBTuaqdKWuKbbQ9lxj/X+ZzApGZnfjBQBgNVHSMESTBH
gBQETEtoWZlfVUuU0QdzuuyS1R4SrKEZpBcwFTETMBEGA1UEAwwKdGVhbTUyLW5l
dIIUcCk/xd/G7Vpc9GF34jGSy9FmBFAwEwYDVR0lBAwwCgYIKwYBBQUHAwEwCwYD
VR0PBAQDAgWgMBgGA1UdEQQRMA+CDXRlYW01Mi1zZXJ2ZXIwDQYJKoZIhvcNAQEL
BQADggEBAEguO/ELhNdU7nSEE5LnmsGxH/8pzsO09SfN/MSjspPckZpNaSsvQ5Ye
m3ta1m2yaASOSY3ckURubAOzRnVkg5i40QOUG7y+f+4SS7o3QVzMj6y0eFjH0STK
yPiKKF4se7qNENBwZNjsxqdGVMrM29CI3gNO5+ddCqsDf1DbjqgQjpj+LPCfhqra
4M+iWK8A/d9dpVSgTxgelCCcCFMvB3kN+IZt1NrWVkkocOtkrEhzTy/mFDV1NkPj
/48lNmWB8ftPUdKCgkkzsnndoA6Uup7SkvsNl/ToEDF9t09VxwATyau0a47H/fTn
HLvCZ4HHMpDrDtui1SNe0lhzb8iI5Wo=
-----END CERTIFICATE-----
