Certificate:
    Data:
        Version: 3 (0x2)
        Serial Number:
            42:d7:55:bd:d4:5b:ce:b0:dc:23:29:9c:49:47:6c:ba
        Signature Algorithm: sha256WithRSAEncryption
        Issuer: CN=team52-net
        Validity
            Not Before: Nov  4 10:41:12 2023 GMT
            Not After : Oct 19 10:41:12 2026 GMT
        Subject: CN=team52-server
        Subject Public Key Info:
            Public Key Algorithm: rsaEncryption
                Public-Key: (2048 bit)
                Modulus:
                    00:c9:95:c2:6b:a9:6f:f2:f0:57:1c:fb:5a:a2:bf:
                    eb:8e:96:54:67:8b:f1:71:24:6e:ac:c7:2b:d4:44:
                    2f:1d:cb:fa:13:b2:5c:78:4c:62:a6:e1:e5:44:ce:
                    5b:fd:70:23:ee:59:e6:ba:00:c6:fd:4e:f8:97:37:
                    8b:d6:93:7b:8e:e7:2e:48:4d:05:8b:76:d0:71:6d:
                    99:e1:dd:87:84:fb:25:e4:8d:88:f6:f4:12:d1:4f:
                    d6:57:5b:a7:3a:96:19:30:f3:db:80:1c:c7:ed:17:
                    79:f1:44:50:af:f4:ae:5a:a3:8b:72:d5:fc:af:0c:
                    4c:53:96:00:e3:15:86:a0:84:56:5a:60:be:e0:38:
                    f0:09:a5:35:50:77:b3:0f:f9:75:2a:53:2a:dc:9a:
                    b9:62:b8:cd:97:32:75:54:96:82:16:7b:02:6d:6b:
                    d8:29:1f:6e:79:25:be:bc:68:b5:91:7b:1c:19:df:
                    e5:49:fc:d7:30:5b:3d:32:9d:10:53:6d:9c:d8:c6:
                    72:40:cb:88:d6:57:ca:b9:c2:5a:c8:fb:d6:eb:97:
                    b8:4a:e5:b3:ca:c2:e1:96:ea:e6:25:27:5a:a6:99:
                    81:af:d0:75:5d:b3:7e:13:ad:ab:71:c9:6b:7c:fa:
                    9d:f4:6a:ff:9d:b8:66:61:7b:65:a9:42:ea:88:55:
                    f4:1f
                Exponent: 65537 (0x10001)
        X509v3 extensions:
            X509v3 Basic Constraints: 
                CA:FALSE
            X509v3 Subject Key Identifier: 
                08:A8:71:D5:2C:72:29:8C:32:05:04:FF:08:B3:33:43:FD:D8:45:79
            X509v3 Authority Key Identifier: 
                keyid:8C:A0:53:BE:A6:F9:21:C3:82:6F:6C:B7:33:FB:65:F1:70:D7:CF:46
                DirName:/CN=team52-net
                serial:7D:DF:A6:9A:D7:FC:CC:C2:F7:D7:08:3A:C9:6C:40:50:35:6A:6B:C6
            X509v3 Extended Key Usage: 
                TLS Web Server Authentication
            X509v3 Key Usage: 
                Digital Signature, Key Encipherment
            X509v3 Subject Alternative Name: 
                DNS:team52-server
    Signature Algorithm: sha256WithRSAEncryption
    Signature Value:
        12:0e:9b:69:91:f8:eb:f2:fe:98:f1:7f:95:8b:1a:63:44:48:
        d1:32:eb:c0:fb:cd:67:37:eb:c8:fd:60:ed:a8:84:1a:16:bf:
        df:72:38:4d:86:3e:a2:d7:25:b8:8c:fe:c4:44:4c:24:79:d5:
        c4:5f:de:ca:ae:e0:da:c9:15:6a:06:bb:f6:7b:49:02:e4:7d:
        4b:87:3e:72:dc:cc:38:55:b6:8a:8e:a4:ad:5d:92:36:8c:7e:
        72:88:e2:e3:cf:d8:50:78:f9:c9:f6:27:d5:36:a3:9f:1c:c9:
        a1:35:53:2f:c6:2e:d7:65:d9:fd:2f:78:c9:3b:c9:84:ef:b5:
        8d:42:52:de:3c:d3:61:cd:79:9c:79:0d:5a:fa:e6:0a:44:3a:
        1f:80:bd:c8:33:be:73:aa:a9:49:63:58:b5:71:4f:c3:5f:0c:
        f7:41:33:ef:7d:d3:fc:63:65:8c:90:40:a9:45:0f:3e:75:b2:
        8a:2e:ea:a4:9a:28:4e:a2:22:3b:5f:b5:01:1e:ed:89:5b:a1:
        36:20:de:d8:48:bd:b8:fc:4d:3d:b5:81:8c:76:b2:65:ee:9d:
        ed:fe:fb:60:e6:71:b4:72:e0:ee:ae:a0:ba:05:78:94:b9:04:
        ee:1e:40:d6:db:70:c1:6e:94:4d:8d:3e:35:eb:5b:c3:df:a1:
        f2:da:fe:48
-----BEGIN CERTIFICATE-----
MIIDczCCAlugAwIBAgIQQtdVvdRbzrDcIymcSUdsujANBgkqhkiG9w0BAQsFADAV
MRMwEQYDVQQDDAp0ZWFtNTItbmV0MB4XDTIzMTEwNDEwNDExMloXDTI2MTAxOTEw
NDExMlowGDEWMBQGA1UEAwwNdGVhbTUyLXNlcnZlcjCCASIwDQYJKoZIhvcNAQEB
BQADggEPADCCAQoCggEBAMmVwmupb/LwVxz7WqK/646WVGeL8XEkbqzHK9RELx3L
+hOyXHhMYqbh5UTOW/1wI+5Z5roAxv1O+Jc3i9aTe47nLkhNBYt20HFtmeHdh4T7
JeSNiPb0EtFP1ldbpzqWGTDz24Acx+0XefFEUK/0rlqji3LV/K8MTFOWAOMVhqCE
VlpgvuA48AmlNVB3sw/5dSpTKtyauWK4zZcydVSWghZ7Am1r2CkfbnklvrxotZF7
HBnf5Un81zBbPTKdEFNtnNjGckDLiNZXyrnCWsj71uuXuErls8rC4Zbq5iUnWqaZ
ga/QdV2zfhOtq3HJa3z6nfRq/524ZmF7ZalC6ohV9B8CAwEAAaOBuzCBuDAJBgNV
HRMEAjAAMB0GA1UdDgQWBBQIqHHVLHIpjDIFBP8IszND/dhFeTBQBgNVHSMESTBH
gBSMoFO+pvkhw4JvbLcz+2XxcNfPRqEZpBcwFTETMBEGA1UEAwwKdGVhbTUyLW5l
dIIUfd+mmtf8zML31wg6yWxAUDVqa8YwEwYDVR0lBAwwCgYIKwYBBQUHAwEwCwYD
VR0PBAQDAgWgMBgGA1UdEQQRMA+CDXRlYW01Mi1zZXJ2ZXIwDQYJKoZIhvcNAQEL
BQADggEBABIOm2mR+Ovy/pjxf5WLGmNESNEy68D7zWc368j9YO2ohBoWv99yOE2G
PqLXJbiM/sRETCR51cRf3squ4NrJFWoGu/Z7SQLkfUuHPnLczDhVtoqOpK1dkjaM
fnKI4uPP2FB4+cn2J9U2o58cyaE1Uy/GLtdl2f0veMk7yYTvtY1CUt4802HNeZx5
DVr65gpEOh+AvcgzvnOqqUljWLVxT8NfDPdBM+990/xjZYyQQKlFDz51soou6qSa
KE6iIjtftQEe7YlboTYg3thIvbj8TT21gYx2smXune3++2DmcbRy4O6uoLoFeJS5
BO4eQNbbcMFulE2NPjXrW8PfofLa/kg=
-----END CERTIFICATE-----
