Certificate:
    Data:
        Version: 3 (0x2)
        Serial Number:
            50:b9:ac:83:2f:18:a0:c0:f2:29:c3:ae:db:20:ac:f5
        Signature Algorithm: sha256WithRSAEncryption
        Issuer: CN=team52-net
        Validity
            Not Before: Nov  4 11:28:23 2023 GMT
            Not After : Oct 19 11:28:23 2026 GMT
        Subject: CN=team52-server
        Subject Public Key Info:
            Public Key Algorithm: rsaEncryption
                Public-Key: (2048 bit)
                Modulus:
                    00:dc:48:3b:fc:af:d9:cf:de:be:79:47:82:cd:0f:
                    82:5a:f6:54:26:fb:92:90:00:b6:5c:a9:a6:47:08:
                    2e:0a:05:b1:9d:03:7c:8b:36:b2:d9:b0:3a:3d:c3:
                    86:6b:74:60:2d:66:de:0f:0f:30:b9:4e:83:5a:3c:
                    58:66:12:9f:ff:78:c8:09:ec:44:7f:b2:3c:4d:93:
                    e2:7f:af:ff:92:c9:d9:33:f8:ab:f8:77:2c:63:86:
                    85:b8:41:54:94:68:c7:99:0f:21:24:ed:c1:75:e5:
                    6f:a6:8c:8a:5f:f4:bc:27:54:dd:ab:ba:64:bb:3b:
                    d2:cb:0b:6c:f1:73:61:6d:ed:1a:fa:a8:94:0d:7b:
                    b4:eb:f1:5d:5a:06:04:fb:04:f6:11:94:56:62:b4:
                    e3:66:6e:70:1b:32:9c:ee:fd:7a:c8:18:4e:c8:d0:
                    62:e3:f7:d0:a7:5e:9e:7a:ab:c5:f5:45:22:96:cf:
                    eb:7b:43:9a:2c:9f:22:e9:78:79:23:fe:0a:df:4a:
                    2b:e5:3e:ec:66:d3:17:6b:3c:6c:cb:cd:09:cc:c7:
                    9e:df:71:b9:40:63:cd:98:40:24:c5:c3:2f:8a:55:
                    7e:90:cc:06:7e:30:3f:d8:fb:b1:a3:7e:55:64:fb:
                    8d:bf:fe:49:2e:85:33:0d:b0:4c:e6:95:15:40:a7:
                    ab:77
                Exponent: 65537 (0x10001)
        X509v3 extensions:
            X509v3 Basic Constraints: 
                CA:FALSE
            X509v3 Subject Key Identifier: 
                C6:CD:17:C5:B7:D3:7B:F5:22:9A:4B:75:CC:91:B3:87:8F:D4:95:67
            X509v3 Authority Key Identifier: 
                keyid:D9:30:6C:9E:32:86:3C:28:28:ED:B6:FF:1E:03:4E:B3:5F:06:F7:2F
                DirName:/CN=team52-net
                serial:06:48:76:7C:79:9E:6A:96:51:55:1F:98:35:24:7F:3F:3C:28:40:80
            X509v3 Extended Key Usage: 
                TLS Web Server Authentication
            X509v3 Key Usage: 
                Digital Signature, Key Encipherment
            X509v3 Subject Alternative Name: 
                DNS:team52-server
    Signature Algorithm: sha256WithRSAEncryption
    Signature Value:
        66:76:50:de:86:48:29:79:dc:18:9a:c4:2c:29:a6:d2:dd:f5:
        fa:1c:49:f6:c7:81:4b:6f:39:4a:00:58:0e:ad:3e:04:b3:d8:
        61:c3:46:78:0c:f3:e6:eb:16:d7:2c:61:4e:27:2a:56:c8:4e:
        da:66:24:e4:71:c0:00:20:b1:9f:a6:22:a4:bd:e7:8b:f6:fd:
        7f:98:0a:a7:33:e3:bd:e0:f8:d1:e4:53:1b:99:5d:13:3f:ce:
        1c:5b:bd:38:9f:2e:d0:f7:a7:25:cc:8f:9d:2b:8c:19:cf:38:
        10:38:7b:c7:cc:13:0b:db:2d:2d:bb:2f:25:f6:61:81:ae:5e:
        d7:10:ce:6b:9b:c0:14:c3:6e:9f:c8:88:e1:98:2f:03:48:69:
        8b:8f:30:3f:ae:4a:6b:5c:9f:16:6f:ba:4a:2a:7c:05:42:f2:
        04:8d:4f:8c:3d:54:01:b6:a9:46:e4:49:6f:d0:92:1d:55:3a:
        33:37:91:9e:6f:a8:65:20:58:ee:af:8f:03:4c:e8:2e:16:ad:
        7b:b3:82:13:cd:89:80:0c:6e:7b:eb:90:c5:35:a5:21:43:d5:
        91:a2:96:83:3c:69:1a:3f:0f:48:c6:41:95:df:b9:3c:bf:60:
        42:9d:63:24:f9:bf:b8:0d:13:b5:52:1e:39:b2:41:74:dc:f1:
        9a:01:12:64
-----BEGIN CERTIFICATE-----
MIIDczCCAlugAwIBAgIQULmsgy8YoMDyKcOu2yCs9TANBgkqhkiG9w0BAQsFADAV
MRMwEQYDVQQDDAp0ZWFtNTItbmV0MB4XDTIzMTEwNDExMjgyM1oXDTI2MTAxOTEx
MjgyM1owGDEWMBQGA1UEAwwNdGVhbTUyLXNlcnZlcjCCASIwDQYJKoZIhvcNAQEB
BQADggEPADCCAQoCggEBANxIO/yv2c/evnlHgs0Pglr2VCb7kpAAtlyppkcILgoF
sZ0DfIs2stmwOj3Dhmt0YC1m3g8PMLlOg1o8WGYSn/94yAnsRH+yPE2T4n+v/5LJ
2TP4q/h3LGOGhbhBVJRox5kPISTtwXXlb6aMil/0vCdU3au6ZLs70ssLbPFzYW3t
GvqolA17tOvxXVoGBPsE9hGUVmK042ZucBsynO79esgYTsjQYuP30KdennqrxfVF
IpbP63tDmiyfIul4eSP+Ct9KK+U+7GbTF2s8bMvNCczHnt9xuUBjzZhAJMXDL4pV
fpDMBn4wP9j7saN+VWT7jb/+SS6FMw2wTOaVFUCnq3cCAwEAAaOBuzCBuDAJBgNV
HRMEAjAAMB0GA1UdDgQWBBTGzRfFt9N79SKaS3XMkbOHj9SVZzBQBgNVHSMESTBH
gBTZMGyeMoY8KCjttv8eA06zXwb3L6EZpBcwFTETMBEGA1UEAwwKdGVhbTUyLW5l
dIIUBkh2fHmeapZRVR+YNSR/PzwoQIAwEwYDVR0lBAwwCgYIKwYBBQUHAwEwCwYD
VR0PBAQDAgWgMBgGA1UdEQQRMA+CDXRlYW01Mi1zZXJ2ZXIwDQYJKoZIhvcNAQEL
BQADggEBAGZ2UN6GSCl53BiaxCwpptLd9focSfbHgUtvOUoAWA6tPgSz2GHDRngM
8+brFtcsYU4nKlbITtpmJORxwAAgsZ+mIqS954v2/X+YCqcz473g+NHkUxuZXRM/
zhxbvTifLtD3pyXMj50rjBnPOBA4e8fMEwvbLS27LyX2YYGuXtcQzmubwBTDbp/I
iOGYLwNIaYuPMD+uSmtcnxZvukoqfAVC8gSNT4w9VAG2qUbkSW/Qkh1VOjM3kZ5v
qGUgWO6vjwNM6C4WrXuzghPNiYAMbnvrkMU1pSFD1ZGiloM8aRo/D0jGQZXfuTy/
YEKdYyT5v7gNE7VSHjmyQXTc8ZoBEmQ=
-----END CERTIFICATE-----
