Certificate:
    Data:
        Version: 3 (0x2)
        Serial Number:
            58:c0:93:64:1a:c0:5d:0e:8e:60:c7:a1:6d:20:d0:40
        Signature Algorithm: sha256WithRSAEncryption
        Issuer: CN=team52-net
        Validity
            Not Before: Nov  4 10:41:11 2023 GMT
            Not After : Oct 19 10:41:11 2026 GMT
        Subject: CN=team52-client
        Subject Public Key Info:
            Public Key Algorithm: rsaEncryption
                Public-Key: (2048 bit)
                Modulus:
                    00:a4:e3:a9:18:82:c1:ce:80:82:16:90:d2:4e:54:
                    e5:84:83:06:10:3a:79:67:e4:64:5d:96:51:9c:57:
                    ed:5c:58:e1:e0:ad:6f:9c:fe:30:5a:d5:df:43:70:
                    bc:fd:1a:c2:84:1f:dd:02:75:9d:c8:26:80:eb:ca:
                    04:da:ff:00:f5:a1:c4:93:c2:16:33:53:64:df:97:
                    d5:26:43:67:56:f9:a7:30:23:8d:c9:5d:2a:3b:c6:
                    0e:81:47:ae:ed:7f:20:14:dc:4f:76:d7:33:6c:48:
                    fe:5d:bf:f5:9b:a6:03:a0:7f:94:42:68:a1:c8:48:
                    ae:c1:90:de:9f:d8:ac:12:85:31:7f:dd:65:4a:ee:
                    dc:28:a0:64:cf:19:bc:6f:78:d9:d0:7a:f9:ce:69:
                    f1:f2:36:14:14:22:91:7e:79:16:a6:40:5e:4e:0a:
                    b0:1f:03:16:17:31:d2:ad:e6:93:5c:64:92:98:75:
                    b7:ac:95:e9:4a:87:42:7e:99:17:3d:2e:ad:c9:22:
                    0d:92:6f:4b:a6:2c:77:e2:fe:c6:73:60:89:56:1f:
                    97:8c:7e:eb:e2:5a:e7:6a:34:6f:92:21:fa:53:d9:
                    07:2d:5f:59:e6:24:ed:3d:d4:e3:72:d0:ff:89:3f:
                    ad:85:f2:f5:63:b5:aa:a8:75:19:96:a7:15:8b:7e:
                    ae:e3
                Exponent: 65537 (0x10001)
        X509v3 extensions:
            X509v3 Basic Constraints: 
                CA:FALSE
            X509v3 Subject Key Identifier: 
                44:15:63:A9:8A:1A:22:0B:00:9E:2C:FB:6A:76:18:A0:59:C4:CB:C9
            X509v3 Authority Key Identifier: 
                keyid:8C:A0:53:BE:A6:F9:21:C3:82:6F:6C:B7:33:FB:65:F1:70:D7:CF:46
                DirName:/CN=team52-net
                serial:7D:DF:A6:9A:D7:FC:CC:C2:F7:D7:08:3A:C9:6C:40:50:35:6A:6B:C6
            X509v3 Extended Key Usage: 
                TLS Web Client Authentication
            X509v3 Key Usage: 
                Digital Signature
    Signature Algorithm: sha256WithRSAEncryption
    Signature Value:
        6e:ea:1a:33:12:17:50:eb:a8:a4:91:b7:77:63:b6:e6:bf:3c:
        b7:57:1d:5f:64:bd:87:fa:a2:3a:3e:4a:f8:65:14:87:f2:39:
        64:84:25:28:85:fe:be:43:8f:dc:b6:8f:27:29:fe:58:27:e5:
        dc:3e:68:e6:9c:9e:eb:73:e3:69:aa:a7:7a:26:5d:87:5c:00:
        db:97:4c:ef:69:2c:33:e0:bc:93:02:0e:9e:bb:18:a7:15:05:
        67:8d:ce:e7:f8:c0:e4:89:cf:8f:f0:fa:eb:76:fd:2b:ee:9a:
        70:9c:d4:2c:a5:3e:49:32:e4:d1:55:94:49:df:9c:79:b2:19:
        6c:4e:f9:b1:d9:bf:84:96:b2:6d:f5:4f:88:fa:9a:21:02:26:
        d2:8b:6c:1c:f7:22:c4:36:1e:49:da:af:32:f7:73:51:40:58:
        4e:ab:b6:f1:7b:36:96:da:f3:a3:d3:35:89:3c:31:b0:2b:0a:
        e1:eb:a2:fc:65:c0:88:5c:33:b4:b2:83:51:24:19:d2:c1:53:
        9a:af:e5:98:15:6c:05:e5:49:98:f9:12:fd:cb:35:99:80:76:
        bd:0a:be:ec:48:8e:87:f4:45:4f:54:e7:81:f6:7c:34:b8:9f:
        3d:52:13:b6:23:1f:ce:dc:75:98:76:85:60:7b:e1:41:3d:f1:
        9c:83:ec:34
-----BEGIN CERTIFICATE-----
MIIDWTCCAkGgAwIBAgIQWMCTZBrAXQ6OYMehbSDQQDANBgkqhkiG9w0BAQsFADAV
MRMwEQYDVQQDDAp0ZWFtNTItbmV0MB4XDTIzMTEwNDEwNDExMVoXDTI2MTAxOTEw
NDExMVowGDEWMBQGA1UEAwwNdGVhbTUyLWNsaWVudDCCASIwDQYJKoZIhvcNAQEB
BQADggEPADCCAQoCggEBAKTjqRiCwc6AghaQ0k5U5YSDBhA6eWfkZF2WUZxX7VxY
4eCtb5z+MFrV30NwvP0awoQf3QJ1ncgmgOvKBNr/APWhxJPCFjNTZN+X1SZDZ1b5
pzAjjcldKjvGDoFHru1/IBTcT3bXM2xI/l2/9ZumA6B/lEJoochIrsGQ3p/YrBKF
MX/dZUru3CigZM8ZvG942dB6+c5p8fI2FBQikX55FqZAXk4KsB8DFhcx0q3mk1xk
kph1t6yV6UqHQn6ZFz0urckiDZJvS6Ysd+L+xnNgiVYfl4x+6+Ja52o0b5Ih+lPZ
By1fWeYk7T3U43LQ/4k/rYXy9WO1qqh1GZanFYt+ruMCAwEAAaOBoTCBnjAJBgNV
HRMEAjAAMB0GA1UdDgQWBBREFWOpihoiCwCeLPtqdhigWcTLyTBQBgNVHSMESTBH
gBSMoFO+pvkhw4JvbLcz+2XxcNfPRqEZpBcwFTETMBEGA1UEAwwKdGVhbTUyLW5l
dIIUfd+mmtf8zML31wg6yWxAUDVqa8YwEwYDVR0lBAwwCgYIKwYBBQUHAwIwCwYD
VR0PBAQDAgeAMA0GCSqGSIb3DQEBCwUAA4IBAQBu6hozEhdQ66ikkbd3Y7bmvzy3
Vx1fZL2H+qI6Pkr4ZRSH8jlkhCUohf6+Q4/cto8nKf5YJ+XcPmjmnJ7rc+Npqqd6
Jl2HXADbl0zvaSwz4LyTAg6euxinFQVnjc7n+MDkic+P8Prrdv0r7ppwnNQspT5J
MuTRVZRJ35x5shlsTvmx2b+ElrJt9U+I+pohAibSi2wc9yLENh5J2q8y93NRQFhO
q7bxezaW2vOj0zWJPDGwKwrh66L8ZcCIXDO0soNRJBnSwVOar+WYFWwF5UmY+RL9
yzWZgHa9Cr7sSI6H9EVPVOeB9nw0uJ89UhO2Ix/O3HWYdoVge+FBPfGcg+w0
-----END CERTIFICATE-----
