Certificate:
    Data:
        Version: 3 (0x2)
        Serial Number:
            e6:d5:55:d2:0d:b0:89:8b:68:fe:e7:a7:46:15:bc:b3
        Signature Algorithm: sha256WithRSAEncryption
        Issuer: CN=team52-net
        Validity
            Not Before: Nov  4 11:28:23 2023 GMT
            Not After : Oct 19 11:28:23 2026 GMT
        Subject: CN=team52-client
        Subject Public Key Info:
            Public Key Algorithm: rsaEncryption
                Public-Key: (2048 bit)
                Modulus:
                    00:b9:bf:77:c5:e1:ff:85:d3:9e:e0:53:de:bd:db:
                    3a:67:f4:89:fc:b8:fe:23:e5:60:61:a8:d0:8f:ab:
                    b0:1b:94:5a:e7:49:2a:24:b2:0a:24:ed:15:45:75:
                    5b:23:b7:d5:0c:09:ec:6e:e8:44:17:c1:e2:2d:13:
                    4c:cc:60:5b:6d:39:47:14:30:d6:1b:6d:39:06:69:
                    f9:52:7b:7d:a0:c9:8f:be:75:ea:04:b7:af:02:9b:
                    51:d5:3f:2c:de:27:53:05:3c:9e:14:7f:71:b8:9d:
                    dc:ae:64:a6:b1:59:d2:e6:98:c7:b9:15:55:ea:12:
                    bb:35:0c:55:79:ca:5f:9e:b8:2f:3f:2f:45:cf:bc:
                    14:84:2a:a0:ab:78:88:58:cf:72:e6:9c:9e:7d:49:
                    18:d5:fc:85:b8:80:e1:d6:cd:1c:d7:fe:01:76:4a:
                    76:48:b7:41:6a:49:50:76:c8:bf:73:7e:ca:1f:77:
                    46:f9:65:f8:99:95:4b:3a:b6:08:b2:90:f6:fc:a7:
                    7d:2c:b4:ab:52:bd:fc:2d:4c:99:cf:d3:c1:16:5a:
                    b1:0d:6c:02:7a:d5:4c:75:a3:3f:31:1d:07:08:ae:
                    7a:32:d1:96:2a:99:0e:87:96:d0:fd:1b:a5:cb:3f:
                    b4:77:ec:31:ac:0e:7c:74:f7:55:0e:6b:53:ca:1b:
                    2f:dd
                Exponent: 65537 (0x10001)
        X509v3 extensions:
            X509v3 Basic Constraints: 
                CA:FALSE
            X509v3 Subject Key Identifier: 
                BF:65:BF:FE:AE:6F:DA:39:22:69:16:52:D7:89:93:7D:92:BE:21:38
            X509v3 Authority Key Identifier: 
                keyid:D9:30:6C:9E:32:86:3C:28:28:ED:B6:FF:1E:03:4E:B3:5F:06:F7:2F
                DirName:/CN=team52-net
                serial:06:48:76:7C:79:9E:6A:96:51:55:1F:98:35:24:7F:3F:3C:28:40:80
            X509v3 Extended Key Usage: 
                TLS Web Client Authentication
            X509v3 Key Usage: 
                Digital Signature
    Signature Algorithm: sha256WithRSAEncryption
    Signature Value:
        86:cf:d5:06:27:2b:c4:58:33:aa:25:61:8b:fa:19:83:28:12:
        70:bd:f8:2f:ff:77:96:09:e1:a0:98:cd:1b:38:c6:9d:79:e9:
        0d:f8:b6:23:01:50:7b:9e:1e:7b:dc:21:81:38:90:00:7e:2c:
        da:41:1b:ae:4f:ed:58:d2:1c:51:50:8e:ed:78:78:2c:d0:2c:
        1f:38:51:ea:57:c1:e6:8c:09:db:14:32:c8:84:dd:bb:18:42:
        43:aa:a4:f7:21:b2:79:57:42:c7:e6:63:72:3b:7f:69:17:5c:
        be:fd:00:17:88:38:ee:3a:55:f7:f5:d5:bf:19:1a:30:d4:b6:
        ba:11:9f:66:cb:eb:c0:35:6a:a4:83:2b:6f:04:ef:a0:27:38:
        2f:a8:02:00:db:58:ed:1e:8e:26:12:99:73:aa:ca:56:0a:9e:
        b6:87:39:1d:15:9e:0b:bd:f0:90:73:41:4d:41:d3:e5:b3:ea:
        b4:92:df:43:93:8e:fa:c1:a7:38:32:48:26:a7:08:67:15:17:
        25:01:f6:23:aa:53:54:e2:d0:ea:77:1f:b7:ad:8a:0c:a2:cc:
        2e:a9:e3:b4:5c:7d:34:8c:9f:52:78:cc:54:bd:2c:b1:ea:d8:
        95:fd:15:0e:e1:6f:3c:a3:86:77:ab:6a:08:d9:96:51:af:b9:
        21:03:b7:79
-----BEGIN CERTIFICATE-----
MIIDWjCCAkKgAwIBAgIRAObVVdINsImLaP7np0YVvLMwDQYJKoZIhvcNAQELBQAw
FTETMBEGA1UEAwwKdGVhbTUyLW5ldDAeFw0yMzExMDQxMTI4MjNaFw0yNjEwMTkx
MTI4MjNaMBgxFjAUBgNVBAMMDXRlYW01Mi1jbGllbnQwggEiMA0GCSqGSIb3DQEB
AQUAA4IBDwAwggEKAoIBAQC5v3fF4f+F057gU9692zpn9In8uP4j5WBhqNCPq7Ab
lFrnSSoksgok7RVFdVsjt9UMCexu6EQXweItE0zMYFttOUcUMNYbbTkGaflSe32g
yY++deoEt68Cm1HVPyzeJ1MFPJ4Uf3G4ndyuZKaxWdLmmMe5FVXqErs1DFV5yl+e
uC8/L0XPvBSEKqCreIhYz3LmnJ59SRjV/IW4gOHWzRzX/gF2SnZIt0FqSVB2yL9z
fsofd0b5ZfiZlUs6tgiykPb8p30stKtSvfwtTJnP08EWWrENbAJ61Ux1oz8xHQcI
rnoy0ZYqmQ6HltD9G6XLP7R37DGsDnx091UOa1PKGy/dAgMBAAGjgaEwgZ4wCQYD
VR0TBAIwADAdBgNVHQ4EFgQUv2W//q5v2jkiaRZS14mTfZK+ITgwUAYDVR0jBEkw
R4AU2TBsnjKGPCgo7bb/HgNOs18G9y+hGaQXMBUxEzARBgNVBAMMCnRlYW01Mi1u
ZXSCFAZIdnx5nmqWUVUfmDUkfz88KECAMBMGA1UdJQQMMAoGCCsGAQUFBwMCMAsG
A1UdDwQEAwIHgDANBgkqhkiG9w0BAQsFAAOCAQEAhs/VBicrxFgzqiVhi/oZgygS
cL34L/93lgnhoJjNGzjGnXnpDfi2IwFQe54ee9whgTiQAH4s2kEbrk/tWNIcUVCO
7Xh4LNAsHzhR6lfB5owJ2xQyyITduxhCQ6qk9yGyeVdCx+Zjcjt/aRdcvv0AF4g4
7jpV9/XVvxkaMNS2uhGfZsvrwDVqpIMrbwTvoCc4L6gCANtY7R6OJhKZc6rKVgqe
toc5HRWeC73wkHNBTUHT5bPqtJLfQ5OO+sGnODJIJqcIZxUXJQH2I6pTVOLQ6ncf
t62KDKLMLqnjtFx9NIyfUnjMVL0sserYlf0VDuFvPKOGd6tqCNmWUa+5IQO3eQ==
-----END CERTIFICATE-----
