Certificate:
    Data:
        Version: 3 (0x2)
        Serial Number:
            6c:a0:fd:79:13:31:d9:f4:bd:e0:66:d2:55:21:ed:47
        Signature Algorithm: sha256WithRSAEncryption
        Issuer: CN=team142-net
        Validity
            Not Before: Nov  4 10:43:10 2023 GMT
            Not After : Oct 19 10:43:10 2026 GMT
        Subject: CN=team142-client
        Subject Public Key Info:
            Public Key Algorithm: rsaEncryption
                Public-Key: (2048 bit)
                Modulus:
                    00:c2:df:5e:e0:ba:73:c4:2d:54:52:13:fa:62:46:
                    5e:42:a5:96:13:18:47:d1:33:e4:e1:c1:7e:30:ee:
                    37:7c:77:f0:87:50:2c:0e:a6:c5:8b:f5:10:7c:6c:
                    cb:ac:31:7e:83:88:f3:5e:27:19:22:30:dc:ee:57:
                    74:02:ab:9d:d0:f2:61:4e:1b:ca:b9:ff:dc:c6:ef:
                    91:bd:00:4c:4c:fd:35:98:78:d1:b3:e3:b3:de:71:
                    01:bc:c8:61:97:9f:54:ad:85:04:99:76:ff:81:61:
                    09:8f:44:39:fa:b9:a7:02:57:97:fc:94:c3:80:4d:
                    13:a2:e6:f3:a3:cd:7a:e5:b1:83:01:85:f7:35:ad:
                    93:be:f3:1c:d8:a7:c8:de:30:59:f3:05:e7:af:f0:
                    7b:7b:18:76:99:0f:fb:fc:48:b8:2b:65:f6:8d:9a:
                    66:7c:f5:7b:12:80:fa:14:d2:7c:59:16:db:da:64:
                    44:8b:3f:35:22:28:d1:e7:fa:24:0f:9d:3b:c8:f1:
                    3c:a1:73:99:8d:c0:36:52:73:46:c5:9d:fb:45:7a:
                    45:fa:3a:0c:17:cc:6b:36:af:68:4e:1b:32:45:1a:
                    a6:9a:cd:0e:73:7e:04:40:cd:8a:a1:8a:4a:92:1d:
                    2e:77:fe:7e:a1:3e:c2:f6:cd:35:9a:69:d7:b0:6d:
                    32:ff
                Exponent: 65537 (0x10001)
        X509v3 extensions:
            X509v3 Basic Constraints: 
                CA:FALSE
            X509v3 Subject Key Identifier: 
                89:C0:51:02:0F:8D:3C:C0:67:80:C7:7D:77:2D:BC:34:9C:D1:8B:BB
            X509v3 Authority Key Identifier: 
                keyid:6C:D4:9D:25:D0:41:AF:2A:8B:4C:EB:4E:38:71:53:7D:44:84:02:A1
                DirName:/CN=team142-net
                serial:67:05:F4:7B:07:8C:A0:78:F3:2B:AF:07:54:90:84:FB:2B:DD:82:A6
            X509v3 Extended Key Usage: 
                TLS Web Client Authentication
            X509v3 Key Usage: 
                Digital Signature
    Signature Algorithm: sha256WithRSAEncryption
    Signature Value:
        46:5f:b9:45:4f:38:a9:6b:15:77:cb:e6:18:d6:05:ac:20:95:
        18:4f:58:69:da:3c:7f:f7:08:b2:28:f8:de:38:98:6c:2c:f9:
        e8:3f:7b:f1:9b:c0:34:cc:9e:98:88:e6:53:9e:10:5f:25:0a:
        5a:cc:7d:a9:ee:ba:1a:d2:91:ca:42:46:b7:94:47:60:c6:ff:
        8d:90:e0:85:48:02:61:87:ec:39:de:62:f4:ec:22:48:7a:d0:
        b7:87:76:b6:06:11:6c:b7:c6:c0:c6:ca:d5:3d:1a:89:29:67:
        09:25:e4:2a:14:ff:34:57:3d:63:a9:f8:a1:3e:12:d5:33:ca:
        44:32:04:86:5d:f7:10:37:6e:8a:e5:09:f3:f7:05:e0:3b:8e:
        b9:c5:55:fb:94:a8:93:26:cf:32:9c:7a:4c:fa:1f:d8:37:f4:
        7f:a0:92:c3:9c:30:2a:3f:87:f0:0b:f5:0f:c9:ec:d1:92:3a:
        2d:f7:2c:fe:8e:a2:c3:9f:ba:da:dc:b7:f4:d4:81:6b:0e:68:
        d9:42:8b:f4:cf:f5:d1:75:3f:33:c1:96:3b:3c:f0:68:68:96:
        f3:a2:b2:1a:b1:d3:ee:2a:c0:09:db:1e:55:c6:c2:e9:40:61:
        bc:fc:6b:ae:cc:b8:76:53:34:80:15:b6:b5:fe:19:2d:6a:15:
        66:8f:77:5b
-----BEGIN CERTIFICATE-----
MIIDXDCCAkSgAwIBAgIQbKD9eRMx2fS94GbSVSHtRzANBgkqhkiG9w0BAQsFADAW
MRQwEgYDVQQDDAt0ZWFtMTQyLW5ldDAeFw0yMzExMDQxMDQzMTBaFw0yNjEwMTkx
MDQzMTBaMBkxFzAVBgNVBAMMDnRlYW0xNDItY2xpZW50MIIBIjANBgkqhkiG9w0B
AQEFAAOCAQ8AMIIBCgKCAQEAwt9e4LpzxC1UUhP6YkZeQqWWExhH0TPk4cF+MO43
fHfwh1AsDqbFi/UQfGzLrDF+g4jzXicZIjDc7ld0Aqud0PJhThvKuf/cxu+RvQBM
TP01mHjRs+Oz3nEBvMhhl59UrYUEmXb/gWEJj0Q5+rmnAleX/JTDgE0Toubzo816
5bGDAYX3Na2TvvMc2KfI3jBZ8wXnr/B7exh2mQ/7/Ei4K2X2jZpmfPV7EoD6FNJ8
WRbb2mREiz81IijR5/okD507yPE8oXOZjcA2UnNGxZ37RXpF+joMF8xrNq9oThsy
RRqmms0Oc34EQM2KoYpKkh0ud/5+oT7C9s01mmnXsG0y/wIDAQABo4GiMIGfMAkG
A1UdEwQCMAAwHQYDVR0OBBYEFInAUQIPjTzAZ4DHfXctvDSc0Yu7MFEGA1UdIwRK
MEiAFGzUnSXQQa8qi0zrTjhxU31EhAKhoRqkGDAWMRQwEgYDVQQDDAt0ZWFtMTQy
LW5ldIIUZwX0eweMoHjzK68HVJCE+yvdgqYwEwYDVR0lBAwwCgYIKwYBBQUHAwIw
CwYDVR0PBAQDAgeAMA0GCSqGSIb3DQEBCwUAA4IBAQBGX7lFTzipaxV3y+YY1gWs
IJUYT1hp2jx/9wiyKPjeOJhsLPnoP3vxm8A0zJ6YiOZTnhBfJQpazH2p7roa0pHK
Qka3lEdgxv+NkOCFSAJhh+w53mL07CJIetC3h3a2BhFst8bAxsrVPRqJKWcJJeQq
FP80Vz1jqfihPhLVM8pEMgSGXfcQN26K5Qnz9wXgO465xVX7lKiTJs8ynHpM+h/Y
N/R/oJLDnDAqP4fwC/UPyezRkjot9yz+jqLDn7ra3Lf01IFrDmjZQov0z/XRdT8z
wZY7PPBoaJbzorIasdPuKsAJ2x5VxsLpQGG8/GuuzLh2UzSAFba1/hktahVmj3db
-----END CERTIFICATE-----
