Certificate:
    Data:
        Version: 3 (0x2)
        Serial Number:
            9b:59:82:e6:1e:2a:02:e9:6a:7f:e7:8b:ac:3c:ce:31
        Signature Algorithm: sha256WithRSAEncryption
        Issuer: CN=team142-net
        Validity
            Not Before: Nov  4 10:43:10 2023 GMT
            Not After : Oct 19 10:43:10 2026 GMT
        Subject: CN=team142-server
        Subject Public Key Info:
            Public Key Algorithm: rsaEncryption
                Public-Key: (2048 bit)
                Modulus:
                    00:be:80:87:75:cd:87:53:9c:06:2f:42:3d:8e:b1:
                    46:c5:33:cc:07:1d:f0:0b:6e:58:53:16:5a:eb:5e:
                    2e:c8:25:cf:ef:d0:f9:fc:45:a2:ea:42:a2:b0:4c:
                    41:0f:b2:12:c5:aa:28:b0:fd:eb:48:0a:e3:9c:e5:
                    67:0a:0b:7a:a0:5b:ee:a0:43:91:78:4e:42:ae:ee:
                    ff:e6:32:84:62:ea:6e:14:cd:e1:77:52:52:5f:b2:
                    b1:2b:a7:fa:df:33:41:b4:ba:be:98:2a:ab:73:bc:
                    5d:50:e3:86:2c:6b:a0:7d:3b:7c:82:c2:f2:5a:9b:
                    ac:39:cd:63:95:39:a2:31:15:22:72:20:2d:f0:73:
                    54:b7:8b:31:ca:d0:a1:e2:82:c1:ac:14:da:c4:9d:
                    19:8c:ef:4a:29:a0:61:ae:a0:c6:1d:fd:9d:60:ab:
                    d8:06:98:b4:5a:1a:22:fb:3b:1e:33:cd:c7:8d:d7:
                    f7:88:7b:ab:b6:28:16:cf:89:5e:5b:27:3a:5d:ed:
                    ce:e1:29:91:5c:3c:6a:96:1c:c3:46:3e:2e:66:c3:
                    d3:15:44:de:62:0a:f4:34:f6:78:15:88:3a:a1:ed:
                    24:35:f5:d5:95:da:2c:64:a9:a6:55:34:f7:5e:fb:
                    f5:17:d7:ef:19:89:e1:65:4e:68:09:60:af:1e:87:
                    1c:f3
                Exponent: 65537 (0x10001)
        X509v3 extensions:
            X509v3 Basic Constraints: 
                CA:FALSE
            X509v3 Subject Key Identifier: 
                F4:0D:42:CD:68:9C:86:3D:39:C9:49:9C:ED:86:5C:79:AC:E8:68:F7
            X509v3 Authority Key Identifier: 
                keyid:6C:D4:9D:25:D0:41:AF:2A:8B:4C:EB:4E:38:71:53:7D:44:84:02:A1
                DirName:/CN=team142-net
                serial:67:05:F4:7B:07:8C:A0:78:F3:2B:AF:07:54:90:84:FB:2B:DD:82:A6
            X509v3 Extended Key Usage: 
                TLS Web Server Authentication
            X509v3 Key Usage: 
                Digital Signature, Key Encipherment
            X509v3 Subject Alternative Name: 
                DNS:team142-server
    Signature Algorithm: sha256WithRSAEncryption
    Signature Value:
        85:a3:ee:ab:8a:fc:5f:ac:11:b0:98:fd:08:c5:8e:ba:c1:b3:
        6d:3c:3f:34:5e:6e:c5:9e:b5:3d:df:35:27:21:f3:85:56:47:
        6f:68:53:9c:74:af:66:4e:1c:4e:51:8d:0b:ac:51:c6:8d:99:
        fd:b9:ed:40:b7:53:b4:82:76:36:79:94:1d:c9:33:80:0b:a5:
        f4:e4:e1:d5:e5:7a:67:d9:ed:4d:b4:3c:b9:9c:d7:23:13:0f:
        c2:98:dd:f5:00:78:f7:65:a7:5b:8c:4c:c3:13:76:6e:7c:bf:
        80:d4:e8:c4:15:06:2b:8e:5a:ab:28:b3:d8:1b:c8:3e:48:12:
        08:2a:e5:2c:2e:90:b3:14:c7:e7:0b:a0:ff:20:6b:a8:aa:b2:
        c9:ec:62:ef:11:6d:ac:d0:71:20:30:c3:8d:ce:a9:66:c1:7e:
        ca:47:fa:ba:26:37:3a:6d:75:2e:be:6c:88:5c:0c:80:02:f1:
        0d:e4:47:53:9f:51:93:0a:86:c3:61:3e:5b:1d:77:7c:09:2f:
        85:11:7d:76:81:94:61:bb:13:93:48:5d:a1:65:02:2f:76:be:
        f3:91:15:e6:3f:f8:3c:b6:a7:c5:cf:a9:ca:33:9c:f6:b5:8a:
        98:f2:81:8e:5e:c3:9a:e4:eb:fa:f6:a1:2d:1f:0e:6f:87:f3:
        0a:6b:62:63
-----BEGIN CERTIFICATE-----
MIIDeDCCAmCgAwIBAgIRAJtZguYeKgLpan/ni6w8zjEwDQYJKoZIhvcNAQELBQAw
FjEUMBIGA1UEAwwLdGVhbTE0Mi1uZXQwHhcNMjMxMTA0MTA0MzEwWhcNMjYxMDE5
MTA0MzEwWjAZMRcwFQYDVQQDDA50ZWFtMTQyLXNlcnZlcjCCASIwDQYJKoZIhvcN
AQEBBQADggEPADCCAQoCggEBAL6Ah3XNh1OcBi9CPY6xRsUzzAcd8AtuWFMWWute
Lsglz+/Q+fxFoupCorBMQQ+yEsWqKLD960gK45zlZwoLeqBb7qBDkXhOQq7u/+Yy
hGLqbhTN4XdSUl+ysSun+t8zQbS6vpgqq3O8XVDjhixroH07fILC8lqbrDnNY5U5
ojEVInIgLfBzVLeLMcrQoeKCwawU2sSdGYzvSimgYa6gxh39nWCr2AaYtFoaIvs7
HjPNx43X94h7q7YoFs+JXlsnOl3tzuEpkVw8apYcw0Y+LmbD0xVE3mIK9DT2eBWI
OqHtJDX11ZXaLGSpplU091779RfX7xmJ4WVOaAlgrx6HHPMCAwEAAaOBvTCBujAJ
BgNVHRMEAjAAMB0GA1UdDgQWBBT0DULNaJyGPTnJSZzthlx5rOho9zBRBgNVHSME
SjBIgBRs1J0l0EGvKotM6044cVN9RIQCoaEapBgwFjEUMBIGA1UEAwwLdGVhbTE0
Mi1uZXSCFGcF9HsHjKB48yuvB1SQhPsr3YKmMBMGA1UdJQQMMAoGCCsGAQUFBwMB
MAsGA1UdDwQEAwIFoDAZBgNVHREEEjAQgg50ZWFtMTQyLXNlcnZlcjANBgkqhkiG
9w0BAQsFAAOCAQEAhaPuq4r8X6wRsJj9CMWOusGzbTw/NF5uxZ61Pd81JyHzhVZH
b2hTnHSvZk4cTlGNC6xRxo2Z/bntQLdTtIJ2NnmUHckzgAul9OTh1eV6Z9ntTbQ8
uZzXIxMPwpjd9QB492WnW4xMwxN2bny/gNToxBUGK45aqyiz2BvIPkgSCCrlLC6Q
sxTH5wug/yBrqKqyyexi7xFtrNBxIDDDjc6pZsF+ykf6uiY3Om11Lr5siFwMgALx
DeRHU59RkwqGw2E+Wx13fAkvhRF9doGUYbsTk0hdoWUCL3a+85EV5j/4PLanxc+p
yjOc9rWKmPKBjl7DmuTr+vahLR8Ob4fzCmtiYw==
-----END CERTIFICATE-----
