Certificate:
    Data:
        Version: 3 (0x2)
        Serial Number:
            9e:d9:30:1b:cb:c4:45:00:38:f7:7a:10:44:35:32:fe
        Signature Algorithm: sha256WithRSAEncryption
        Issuer: CN=team142-net
        Validity
            Not Before: Nov  4 11:30:21 2023 GMT
            Not After : Oct 19 11:30:21 2026 GMT
        Subject: CN=team142-server
        Subject Public Key Info:
            Public Key Algorithm: rsaEncryption
                Public-Key: (2048 bit)
                Modulus:
                    00:d8:d1:8f:10:ce:40:f2:1d:28:af:98:e5:f4:04:
                    33:22:d9:f0:de:e1:5a:5c:a5:64:1d:80:33:8e:7a:
                    d5:28:25:d7:64:c8:ad:a8:ac:c6:28:ea:da:b5:c6:
                    31:b1:d4:15:1e:3e:99:f3:90:e6:35:c8:e2:ac:cd:
                    7c:58:c6:76:0e:72:a6:21:b0:11:e4:79:80:58:4b:
                    4e:61:60:ab:a3:89:41:4e:b1:e0:43:f2:31:e4:43:
                    29:2a:1d:85:24:17:a8:18:54:73:18:73:b8:b8:9a:
                    5d:de:20:0e:43:42:89:72:ca:3f:24:3d:32:c8:b7:
                    ed:26:67:ac:52:af:dc:3b:48:03:b1:8b:fa:43:df:
                    06:8f:bc:14:2b:da:a2:c2:a0:33:be:af:1c:bb:e2:
                    3e:ff:bf:a9:1c:4f:26:55:c1:ce:2d:43:8e:61:5f:
                    d3:8d:a5:92:2a:03:61:5d:d2:1d:1e:f3:1d:35:f9:
                    15:2a:1c:1a:40:73:5e:a0:55:d6:9c:b3:0d:61:f2:
                    53:42:d1:93:8c:72:e9:9f:40:03:a3:b3:fa:24:4c:
                    5f:04:d0:79:1b:02:81:8b:d7:69:73:93:46:81:94:
                    41:b6:2e:c5:8f:8d:2c:5b:b2:d2:d1:4d:50:65:80:
                    52:8f:ca:0a:05:b4:51:f9:0d:f1:a7:82:a5:c2:a4:
                    86:89
                Exponent: 65537 (0x10001)
        X509v3 extensions:
            X509v3 Basic Constraints: 
                CA:FALSE
            X509v3 Subject Key Identifier: 
                17:F2:AF:C8:E8:7D:21:E0:E1:33:7D:20:77:7D:DC:01:21:C2:AC:CA
            X509v3 Authority Key Identifier: 
                keyid:3E:32:B8:D0:9E:B9:25:91:C9:C5:0C:AA:07:EB:DB:C4:4B:34:1A:79
                DirName:/CN=team142-net
                serial:51:94:34:E2:41:89:93:15:94:3E:6B:F7:8F:E4:94:72:A8:F6:9C:3D
            X509v3 Extended Key Usage: 
                TLS Web Server Authentication
            X509v3 Key Usage: 
                Digital Signature, Key Encipherment
            X509v3 Subject Alternative Name: 
                DNS:team142-server
    Signature Algorithm: sha256WithRSAEncryption
    Signature Value:
        b8:67:57:4a:62:02:01:04:90:a6:bd:24:ef:16:cb:d7:d6:a4:
        60:0e:a4:28:98:d1:2b:16:1b:c1:0e:f0:57:84:02:70:36:8a:
        e3:19:30:f4:55:80:11:53:83:38:51:fd:21:59:2c:7e:06:38:
        9a:6b:98:49:ff:4e:0f:74:de:36:2f:26:67:6a:0d:97:66:e1:
        77:6a:4e:65:8d:01:26:5f:ad:71:48:1e:c4:85:0b:75:a8:0b:
        3b:39:6d:c0:2d:7e:15:9b:5e:4d:af:ff:de:93:91:cb:09:64:
        ee:bf:b7:e4:11:c2:71:d6:c8:94:35:5e:2f:2a:77:e7:27:72:
        d1:cd:76:47:96:ea:d5:a1:0c:d1:e3:ae:71:95:a1:d9:71:78:
        bd:0d:58:5f:81:e8:52:12:d8:e2:a1:79:93:62:3c:e5:cb:64:
        7d:d9:bc:32:09:11:11:bc:6d:38:e9:e4:23:4e:b0:e5:c2:16:
        41:98:39:0c:7e:bf:3c:0f:1b:92:60:f4:47:d3:ca:3b:bf:08:
        c6:d3:a0:38:da:63:ff:2a:b8:af:4e:c5:3c:82:4f:43:da:4a:
        1f:5c:ad:48:76:21:91:03:45:46:58:2f:13:85:47:34:bc:fc:
        90:79:b8:68:72:fc:d5:54:63:02:1a:51:7d:74:08:24:e3:5e:
        94:7b:b3:d9
-----BEGIN CERTIFICATE-----
MIIDeDCCAmCgAwIBAgIRAJ7ZMBvLxEUAOPd6EEQ1Mv4wDQYJKoZIhvcNAQELBQAw
FjEUMBIGA1UEAwwLdGVhbTE0Mi1uZXQwHhcNMjMxMTA0MTEzMDIxWhcNMjYxMDE5
MTEzMDIxWjAZMRcwFQYDVQQDDA50ZWFtMTQyLXNlcnZlcjCCASIwDQYJKoZIhvcN
AQEBBQADggEPADCCAQoCggEBANjRjxDOQPIdKK+Y5fQEMyLZ8N7hWlylZB2AM456
1Sgl12TIraisxijq2rXGMbHUFR4+mfOQ5jXI4qzNfFjGdg5ypiGwEeR5gFhLTmFg
q6OJQU6x4EPyMeRDKSodhSQXqBhUcxhzuLiaXd4gDkNCiXLKPyQ9Msi37SZnrFKv
3DtIA7GL+kPfBo+8FCvaosKgM76vHLviPv+/qRxPJlXBzi1DjmFf042lkioDYV3S
HR7zHTX5FSocGkBzXqBV1pyzDWHyU0LRk4xy6Z9AA6Oz+iRMXwTQeRsCgYvXaXOT
RoGUQbYuxY+NLFuy0tFNUGWAUo/KCgW0UfkN8aeCpcKkhokCAwEAAaOBvTCBujAJ
BgNVHRMEAjAAMB0GA1UdDgQWBBQX8q/I6H0h4OEzfSB3fdwBIcKsyjBRBgNVHSME
SjBIgBQ+MrjQnrklkcnFDKoH69vESzQaeaEapBgwFjEUMBIGA1UEAwwLdGVhbTE0
Mi1uZXSCFFGUNOJBiZMVlD5r94/klHKo9pw9MBMGA1UdJQQMMAoGCCsGAQUFBwMB
MAsGA1UdDwQEAwIFoDAZBgNVHREEEjAQgg50ZWFtMTQyLXNlcnZlcjANBgkqhkiG
9w0BAQsFAAOCAQEAuGdXSmICAQSQpr0k7xbL19akYA6kKJjRKxYbwQ7wV4QCcDaK
4xkw9FWAEVODOFH9IVksfgY4mmuYSf9OD3TeNi8mZ2oNl2bhd2pOZY0BJl+tcUge
xIULdagLOzltwC1+FZteTa//3pORywlk7r+35BHCcdbIlDVeLyp35ydy0c12R5bq
1aEM0eOucZWh2XF4vQ1YX4HoUhLY4qF5k2I85ctkfdm8MgkREbxtOOnkI06w5cIW
QZg5DH6/PA8bkmD0R9PKO78IxtOgONpj/yq4r07FPIJPQ9pKH1ytSHYhkQNFRlgv
E4VHNLz8kHm4aHL81VRjAhpRfXQIJONelHuz2Q==
-----END CERTIFICATE-----
