Certificate:
    Data:
        Version: 3 (0x2)
        Serial Number:
            f1:f1:e4:96:07:2a:1d:b2:86:57:b0:bd:9d:b0:12:37
        Signature Algorithm: sha256WithRSAEncryption
        Issuer: CN=team142-net
        Validity
            Not Before: Nov  3 20:41:45 2023 GMT
            Not After : Oct 18 20:41:45 2026 GMT
        Subject: CN=team142-client
        Subject Public Key Info:
            Public Key Algorithm: rsaEncryption
                Public-Key: (2048 bit)
                Modulus:
                    00:a6:7a:af:58:f3:20:24:fc:a8:3b:5b:a8:0e:b3:
                    26:fd:fd:6a:50:c5:9e:82:64:f5:51:97:2f:ad:c1:
                    a7:51:db:ad:59:20:dd:10:63:8f:29:1b:db:e5:15:
                    d7:cc:79:9a:cb:71:51:13:68:be:44:85:62:87:5a:
                    bb:1e:6f:19:a1:2f:c2:26:d0:d1:28:7e:c1:24:56:
                    18:8f:ec:bd:82:14:e8:5c:01:c8:fb:44:b4:2c:fc:
                    69:c9:f0:4f:7c:e9:ae:75:9e:fe:7e:e8:47:99:3d:
                    fe:03:6e:7e:83:69:df:35:50:0f:10:83:72:d5:e0:
                    5d:40:e9:bd:32:84:0d:24:33:f7:de:f3:36:40:4d:
                    94:d2:1f:ca:ab:21:1f:ac:63:e0:40:59:f4:fe:bc:
                    cb:4b:01:aa:4a:0b:99:2e:61:94:f9:4f:97:ee:e5:
                    8f:45:ad:0d:a0:6d:66:fc:43:60:c7:65:16:cc:90:
                    2c:46:76:e9:34:48:2d:e7:71:54:a9:59:60:1d:54:
                    04:72:b3:20:be:4d:c9:1c:e0:52:a2:99:dc:b1:de:
                    a3:6f:09:7b:a9:21:ad:34:69:32:51:ba:ed:5c:3e:
                    6c:19:f3:3e:bd:fa:44:48:cf:29:d6:3e:e2:64:5b:
                    d5:66:1d:7f:58:ee:0e:63:8f:be:8f:40:20:19:28:
                    5c:67
                Exponent: 65537 (0x10001)
        X509v3 extensions:
            X509v3 Basic Constraints: 
                CA:FALSE
            X509v3 Subject Key Identifier: 
                71:DA:E6:58:2D:89:EE:A1:13:10:12:22:01:7A:64:20:36:FF:5D:08
            X509v3 Authority Key Identifier: 
                keyid:C8:76:9D:47:03:FB:2B:D8:F6:0D:6C:BD:A8:D1:75:B7:16:53:EE:A8
                DirName:/CN=team142-net
                serial:50:A9:33:D6:C9:57:01:8C:31:AD:1C:45:3C:EA:F1:0F:C3:A8:22:DC
            X509v3 Extended Key Usage: 
                TLS Web Client Authentication
            X509v3 Key Usage: 
                Digital Signature
    Signature Algorithm: sha256WithRSAEncryption
    Signature Value:
        66:c2:68:f2:f4:d6:58:62:40:5b:6b:69:4e:12:c4:ea:c5:64:
        bb:32:74:4c:93:b5:ae:0f:63:1e:cd:ef:b7:10:e5:7f:27:f4:
        a7:a7:3b:4c:f7:71:d8:80:65:81:29:bb:a4:b6:98:b7:c3:10:
        f8:8e:31:43:19:fe:19:a7:57:0d:08:93:e7:ed:c0:74:03:d1:
        54:64:c1:86:50:4d:11:6b:34:28:96:34:25:4e:c9:55:6f:ef:
        cc:ee:32:0a:74:5f:2b:4e:72:2e:1a:54:80:0f:a7:39:87:81:
        1a:1a:33:99:7d:a5:65:cd:31:e4:16:e2:65:6b:0f:0f:bc:7b:
        6c:28:76:de:0e:42:ed:ce:7e:fa:e4:6b:fc:da:3b:8c:03:a0:
        e9:65:7e:f9:18:c3:d6:1c:16:88:4e:a6:9f:31:0f:68:1c:35:
        f9:44:ef:ea:09:c6:66:c5:b6:2a:23:bb:4e:02:bd:90:91:d4:
        4d:69:ba:29:70:95:bc:6a:c0:47:7c:26:7c:13:86:9a:9c:cb:
        78:d5:a4:75:31:f6:da:66:51:92:61:3f:eb:a4:c0:75:79:b0:
        71:16:ea:80:bf:9a:c7:a1:44:68:d0:0f:48:c9:a4:94:51:98:
        51:03:5a:4d:89:2b:0e:a0:b6:27:f5:40:b0:ec:ca:f3:6d:d4:
        46:11:9d:3b
-----BEGIN CERTIFICATE-----
MIIDXTCCAkWgAwIBAgIRAPHx5JYHKh2yhlewvZ2wEjcwDQYJKoZIhvcNAQELBQAw
FjEUMBIGA1UEAwwLdGVhbTE0Mi1uZXQwHhcNMjMxMTAzMjA0MTQ1WhcNMjYxMDE4
MjA0MTQ1WjAZMRcwFQYDVQQDDA50ZWFtMTQyLWNsaWVudDCCASIwDQYJKoZIhvcN
AQEBBQADggEPADCCAQoCggEBAKZ6r1jzICT8qDtbqA6zJv39alDFnoJk9VGXL63B
p1HbrVkg3RBjjykb2+UV18x5mstxURNovkSFYodaux5vGaEvwibQ0Sh+wSRWGI/s
vYIU6FwByPtEtCz8acnwT3zprnWe/n7oR5k9/gNufoNp3zVQDxCDctXgXUDpvTKE
DSQz997zNkBNlNIfyqshH6xj4EBZ9P68y0sBqkoLmS5hlPlPl+7lj0WtDaBtZvxD
YMdlFsyQLEZ26TRILedxVKlZYB1UBHKzIL5NyRzgUqKZ3LHeo28Je6khrTRpMlG6
7Vw+bBnzPr36REjPKdY+4mRb1WYdf1juDmOPvo9AIBkoXGcCAwEAAaOBojCBnzAJ
BgNVHRMEAjAAMB0GA1UdDgQWBBRx2uZYLYnuoRMQEiIBemQgNv9dCDBRBgNVHSME
SjBIgBTIdp1HA/sr2PYNbL2o0XW3FlPuqKEapBgwFjEUMBIGA1UEAwwLdGVhbTE0
Mi1uZXSCFFCpM9bJVwGMMa0cRTzq8Q/DqCLcMBMGA1UdJQQMMAoGCCsGAQUFBwMC
MAsGA1UdDwQEAwIHgDANBgkqhkiG9w0BAQsFAAOCAQEAZsJo8vTWWGJAW2tpThLE
6sVkuzJ0TJO1rg9jHs3vtxDlfyf0p6c7TPdx2IBlgSm7pLaYt8MQ+I4xQxn+GadX
DQiT5+3AdAPRVGTBhlBNEWs0KJY0JU7JVW/vzO4yCnRfK05yLhpUgA+nOYeBGhoz
mX2lZc0x5BbiZWsPD7x7bCh23g5C7c5++uRr/No7jAOg6WV++RjD1hwWiE6mnzEP
aBw1+UTv6gnGZsW2KiO7TgK9kJHUTWm6KXCVvGrAR3wmfBOGmpzLeNWkdTH22mZR
kmE/66TAdXmwcRbqgL+ax6FEaNAPSMmklFGYUQNaTYkrDqC2J/VAsOzK823URhGd
Ow==
-----END CERTIFICATE-----
