Certificate:
    Data:
        Version: 3 (0x2)
        Serial Number:
            65:ab:68:32:29:62:e0:62:08:e9:97:f8:31:1d:85:68
        Signature Algorithm: sha256WithRSAEncryption
        Issuer: CN=team382-net
        Validity
            Not Before: Nov  3 20:46:09 2023 GMT
            Not After : Oct 18 20:46:09 2026 GMT
        Subject: CN=team382-client
        Subject Public Key Info:
            Public Key Algorithm: rsaEncryption
                Public-Key: (2048 bit)
                Modulus:
                    00:96:26:ea:e6:7b:2c:f7:13:a5:59:a2:2d:7b:72:
                    1b:bd:85:60:74:4b:60:79:23:6d:9b:df:0a:ce:3b:
                    ba:87:bc:ad:43:bd:09:c0:99:2f:88:4f:a9:75:3f:
                    5a:40:d0:6a:12:7b:23:d8:88:9d:8f:54:e6:20:6c:
                    4d:f0:4f:ac:5a:d6:31:00:87:31:38:9d:50:6e:6d:
                    b5:80:d0:50:ef:52:f0:7b:fd:16:46:3c:31:20:6c:
                    a2:04:f2:aa:f3:12:fd:08:17:07:0a:b7:88:fc:87:
                    e8:9c:ef:ec:25:ec:ee:2a:eb:d8:ae:1a:ca:1b:77:
                    df:24:f3:ff:e5:8a:40:19:ef:b0:ad:11:df:bb:4a:
                    19:4c:89:44:21:0f:2f:f4:13:db:7b:df:7f:93:d8:
                    d5:a2:e5:28:f7:ea:15:43:ab:15:d0:c0:6d:31:a9:
                    43:b0:15:14:72:01:26:08:9e:d1:00:2a:e3:73:6f:
                    b4:76:65:98:17:73:af:c4:c8:d8:82:02:25:8a:6e:
                    be:30:08:1e:79:83:1a:1e:ca:61:23:47:1f:73:78:
                    2a:58:7b:66:41:93:5f:a9:ff:07:f8:e7:a1:f0:49:
                    f7:73:b7:87:02:6f:9e:f4:b6:c6:97:86:67:71:59:
                    9e:68:be:81:37:ee:7d:cd:17:82:52:3c:a4:53:5f:
                    88:dd
                Exponent: 65537 (0x10001)
        X509v3 extensions:
            X509v3 Basic Constraints: 
                CA:FALSE
            X509v3 Subject Key Identifier: 
                FD:88:15:D8:23:27:56:D0:6B:9D:E0:8D:04:1A:2D:E1:0D:67:D8:11
            X509v3 Authority Key Identifier: 
                keyid:22:61:44:F0:77:8D:37:08:3F:BA:BD:B5:9E:16:C1:E6:98:9E:9F:99
                DirName:/CN=team382-net
                serial:37:F0:9B:3A:C2:BF:EB:ED:E1:A1:8F:B0:59:84:A0:84:52:20:A2:22
            X509v3 Extended Key Usage: 
                TLS Web Client Authentication
            X509v3 Key Usage: 
                Digital Signature
    Signature Algorithm: sha256WithRSAEncryption
    Signature Value:
        43:72:7c:a2:9a:f7:fb:37:d9:71:7e:8b:72:1a:9d:82:a7:dc:
        7e:19:e6:2d:1b:59:26:bf:a4:80:56:8c:6e:ff:ff:91:fc:fa:
        12:15:e6:e7:ff:ae:ad:af:54:9c:57:2e:70:82:2f:ce:d2:ff:
        07:ba:4f:3d:a5:0c:8a:92:86:2e:24:9e:3b:66:dd:2c:da:e1:
        c7:07:01:9f:f5:39:a8:cf:1f:ba:c9:df:cc:82:e2:b9:f3:ae:
        cc:31:e1:c3:b9:14:c0:87:2b:df:bd:fd:98:d5:51:8c:49:b5:
        75:11:c0:57:1f:2e:08:e4:58:c4:18:1a:e2:ec:74:c1:2b:73:
        19:c7:57:ff:b8:db:c5:7d:da:a6:74:af:19:a7:78:f3:a6:40:
        0e:7a:3f:e0:d4:db:e6:19:1e:de:26:78:5a:36:7f:74:fb:f1:
        0c:1b:9f:25:87:85:d9:83:38:3d:7a:51:af:8d:16:e9:90:27:
        90:09:00:47:87:f6:cc:15:17:2c:09:50:57:67:59:7f:ee:a5:
        c7:c8:54:c8:6f:6e:dc:9b:22:c4:ed:cd:c5:05:30:95:9c:a9:
        50:bc:cf:6f:a9:10:c4:b0:c3:8a:d1:ae:9d:f9:6e:32:71:34:
        ea:26:2c:8e:cd:c1:43:e4:2d:a6:ed:75:b1:99:9e:b9:ba:62:
        3a:00:fd:5c
-----BEGIN CERTIFICATE-----
MIIDXDCCAkSgAwIBAgIQZatoMili4GII6Zf4MR2FaDANBgkqhkiG9w0BAQsFADAW
MRQwEgYDVQQDDAt0ZWFtMzgyLW5ldDAeFw0yMzExMDMyMDQ2MDlaFw0yNjEwMTgy
MDQ2MDlaMBkxFzAVBgNVBAMMDnRlYW0zODItY2xpZW50MIIBIjANBgkqhkiG9w0B
AQEFAAOCAQ8AMIIBCgKCAQEAlibq5nss9xOlWaIte3IbvYVgdEtgeSNtm98Kzju6
h7ytQ70JwJkviE+pdT9aQNBqEnsj2Iidj1TmIGxN8E+sWtYxAIcxOJ1Qbm21gNBQ
71Lwe/0WRjwxIGyiBPKq8xL9CBcHCreI/IfonO/sJezuKuvYrhrKG3ffJPP/5YpA
Ge+wrRHfu0oZTIlEIQ8v9BPbe99/k9jVouUo9+oVQ6sV0MBtMalDsBUUcgEmCJ7R
ACrjc2+0dmWYF3OvxMjYggIlim6+MAgeeYMaHsphI0cfc3gqWHtmQZNfqf8H+Oeh
8En3c7eHAm+e9LbGl4ZncVmeaL6BN+59zReCUjykU1+I3QIDAQABo4GiMIGfMAkG
A1UdEwQCMAAwHQYDVR0OBBYEFP2IFdgjJ1bQa53gjQQaLeENZ9gRMFEGA1UdIwRK
MEiAFCJhRPB3jTcIP7q9tZ4WweaYnp+ZoRqkGDAWMRQwEgYDVQQDDAt0ZWFtMzgy
LW5ldIIUN/CbOsK/6+3hoY+wWYSghFIgoiIwEwYDVR0lBAwwCgYIKwYBBQUHAwIw
CwYDVR0PBAQDAgeAMA0GCSqGSIb3DQEBCwUAA4IBAQBDcnyimvf7N9lxfotyGp2C
p9x+GeYtG1kmv6SAVoxu//+R/PoSFebn/66tr1ScVy5wgi/O0v8Huk89pQyKkoYu
JJ47Zt0s2uHHBwGf9Tmozx+6yd/MguK5867MMeHDuRTAhyvfvf2Y1VGMSbV1EcBX
Hy4I5FjEGBri7HTBK3MZx1f/uNvFfdqmdK8Zp3jzpkAOej/g1NvmGR7eJnhaNn90
+/EMG58lh4XZgzg9elGvjRbpkCeQCQBHh/bMFRcsCVBXZ1l/7qXHyFTIb27cmyLE
7c3FBTCVnKlQvM9vqRDEsMOK0a6d+W4ycTTqJiyOzcFD5C2m7XWxmZ65umI6AP1c
-----END CERTIFICATE-----
