Certificate:
    Data:
        Version: 3 (0x2)
        Serial Number:
            89:33:6d:40:c4:e7:7a:71:77:79:39:68:ab:21:1f:4d
        Signature Algorithm: sha256WithRSAEncryption
        Issuer: CN=team382-net
        Validity
            Not Before: Nov  4 10:47:34 2023 GMT
            Not After : Oct 19 10:47:34 2026 GMT
        Subject: CN=team382-server
        Subject Public Key Info:
            Public Key Algorithm: rsaEncryption
                Public-Key: (2048 bit)
                Modulus:
                    00:bd:eb:99:49:5d:53:8b:7b:22:49:9b:3b:e9:92:
                    8e:e2:79:64:08:30:c1:22:c9:ad:57:38:e2:e6:70:
                    65:7d:e0:cb:ae:6d:ff:5e:d1:ca:12:02:c3:89:d9:
                    1e:6f:11:30:b3:ee:c4:bc:f7:3e:da:7d:20:03:ea:
                    b5:1a:cf:a5:c6:e1:3d:fb:82:46:c8:82:64:dc:59:
                    e4:bf:11:0b:1d:1b:8c:2e:a3:83:0c:88:b0:66:e0:
                    ea:5c:7c:0f:e4:12:86:c5:3f:a0:2a:ff:60:21:23:
                    d0:e3:e0:93:2b:20:8e:f6:39:cd:87:0a:46:15:0e:
                    e6:d7:0c:90:ea:d3:e4:1b:62:b8:ca:7a:6f:b5:d8:
                    af:73:25:30:64:d5:ae:dc:11:3c:e4:15:6a:e4:3a:
                    c4:5a:73:2d:85:47:cc:4b:cb:36:1e:fc:39:bb:ed:
                    27:27:16:3f:e2:f6:b1:d6:ec:7e:a7:c6:72:dd:af:
                    f9:ce:a3:de:ca:b5:0e:14:70:24:d7:0c:b5:43:44:
                    ad:09:9c:d3:81:26:1e:52:16:de:b0:53:9b:9f:09:
                    73:6b:c4:e3:13:70:2b:34:dd:43:0a:9f:55:d3:d1:
                    c6:4d:29:c2:59:c1:2f:d6:ca:9c:28:02:fe:61:14:
                    d4:5c:51:a3:26:6f:c9:d5:c3:3e:97:fa:60:22:37:
                    8d:31
                Exponent: 65537 (0x10001)
        X509v3 extensions:
            X509v3 Basic Constraints: 
                CA:FALSE
            X509v3 Subject Key Identifier: 
                D7:04:BD:1D:B0:BD:AB:18:85:11:7D:1A:B4:56:38:03:86:E2:86:FC
            X509v3 Authority Key Identifier: 
                keyid:BE:9E:96:F6:1D:A6:E3:A5:D5:A2:82:9F:5F:EB:80:D9:0D:29:C0:6F
                DirName:/CN=team382-net
                serial:78:3B:FA:C4:A0:8E:6B:7F:2C:6B:EF:94:67:F5:91:C5:1F:8A:E0:31
            X509v3 Extended Key Usage: 
                TLS Web Server Authentication
            X509v3 Key Usage: 
                Digital Signature, Key Encipherment
            X509v3 Subject Alternative Name: 
                DNS:team382-server
    Signature Algorithm: sha256WithRSAEncryption
    Signature Value:
        08:f2:e6:48:8f:af:b0:b0:64:c3:20:79:64:22:6d:0a:fc:72:
        95:51:b5:25:d2:65:c2:8d:a4:e7:4d:89:d7:02:de:03:fb:70:
        44:67:a6:be:8d:fb:ce:89:c2:4a:69:05:f0:ea:34:62:54:94:
        88:9f:cf:60:f6:2b:24:3e:29:23:91:3b:63:70:65:c7:d8:aa:
        04:d8:28:f0:ef:42:dc:40:56:41:6c:76:e5:85:f0:cc:3b:95:
        3a:8b:76:39:36:c7:1e:57:17:8f:70:62:1a:4e:12:fb:1c:3f:
        5a:3f:21:a8:cf:2e:5b:37:6e:45:f3:41:5b:64:84:24:24:d2:
        ac:b9:da:fa:ef:ad:cf:b7:3c:c5:1a:76:a4:bf:65:8b:48:f5:
        91:7c:f3:85:cb:75:8b:35:da:fe:84:4f:f5:86:77:71:eb:47:
        32:6c:e4:25:7f:67:87:5e:6a:d2:3f:19:80:34:c7:c6:d8:5a:
        21:66:73:4d:dc:ad:b3:56:4b:4d:85:4f:96:b0:85:99:c1:7f:
        6f:32:18:85:36:6b:6b:a3:a3:b0:d9:d5:a3:89:d9:1b:10:ce:
        96:94:a8:a6:79:49:0d:11:71:ad:ca:78:7b:2e:ab:45:9a:8e:
        aa:8e:12:af:55:22:28:39:20:25:f6:94:59:a0:a0:cf:5d:20:
        52:97:39:c6
-----BEGIN CERTIFICATE-----
MIIDeDCCAmCgAwIBAgIRAIkzbUDE53pxd3k5aKshH00wDQYJKoZIhvcNAQELBQAw
FjEUMBIGA1UEAwwLdGVhbTM4Mi1uZXQwHhcNMjMxMTA0MTA0NzM0WhcNMjYxMDE5
MTA0NzM0WjAZMRcwFQYDVQQDDA50ZWFtMzgyLXNlcnZlcjCCASIwDQYJKoZIhvcN
AQEBBQADggEPADCCAQoCggEBAL3rmUldU4t7IkmbO+mSjuJ5ZAgwwSLJrVc44uZw
ZX3gy65t/17RyhICw4nZHm8RMLPuxLz3Ptp9IAPqtRrPpcbhPfuCRsiCZNxZ5L8R
Cx0bjC6jgwyIsGbg6lx8D+QShsU/oCr/YCEj0OPgkysgjvY5zYcKRhUO5tcMkOrT
5BtiuMp6b7XYr3MlMGTVrtwRPOQVauQ6xFpzLYVHzEvLNh78ObvtJycWP+L2sdbs
fqfGct2v+c6j3sq1DhRwJNcMtUNErQmc04EmHlIW3rBTm58Jc2vE4xNwKzTdQwqf
VdPRxk0pwlnBL9bKnCgC/mEU1FxRoyZvydXDPpf6YCI3jTECAwEAAaOBvTCBujAJ
BgNVHRMEAjAAMB0GA1UdDgQWBBTXBL0dsL2rGIURfRq0VjgDhuKG/DBRBgNVHSME
SjBIgBS+npb2HabjpdWigp9f64DZDSnAb6EapBgwFjEUMBIGA1UEAwwLdGVhbTM4
Mi1uZXSCFHg7+sSgjmt/LGvvlGf1kcUfiuAxMBMGA1UdJQQMMAoGCCsGAQUFBwMB
MAsGA1UdDwQEAwIFoDAZBgNVHREEEjAQgg50ZWFtMzgyLXNlcnZlcjANBgkqhkiG
9w0BAQsFAAOCAQEACPLmSI+vsLBkwyB5ZCJtCvxylVG1JdJlwo2k502J1wLeA/tw
RGemvo37zonCSmkF8Oo0YlSUiJ/PYPYrJD4pI5E7Y3Blx9iqBNgo8O9C3EBWQWx2
5YXwzDuVOot2OTbHHlcXj3BiGk4S+xw/Wj8hqM8uWzduRfNBW2SEJCTSrLna+u+t
z7c8xRp2pL9li0j1kXzzhct1izXa/oRP9YZ3cetHMmzkJX9nh15q0j8ZgDTHxtha
IWZzTdyts1ZLTYVPlrCFmcF/bzIYhTZra6OjsNnVo4nZGxDOlpSopnlJDRFxrcp4
ey6rRZqOqo4Sr1UiKDkgJfaUWaCgz10gUpc5xg==
-----END CERTIFICATE-----
