Certificate:
    Data:
        Version: 3 (0x2)
        Serial Number:
            73:6b:a7:07:95:0a:eb:da:d3:eb:06:dc:d0:a8:b9:32
        Signature Algorithm: sha256WithRSAEncryption
        Issuer: CN=team290-net
        Validity
            Not Before: Nov  4 11:33:37 2023 GMT
            Not After : Oct 19 11:33:37 2026 GMT
        Subject: CN=team290-client
        Subject Public Key Info:
            Public Key Algorithm: rsaEncryption
                Public-Key: (2048 bit)
                Modulus:
                    00:d6:57:16:a5:5f:65:a9:d4:7f:4d:b7:ab:97:5d:
                    29:30:e0:95:e6:1b:78:74:91:ec:55:bc:67:ed:6c:
                    9e:ed:ff:7a:0a:c5:bd:6d:0c:af:a9:a7:11:c8:3a:
                    6d:f5:82:3e:87:6e:95:36:04:be:d9:bb:3a:4f:43:
                    dd:f6:59:cf:ae:95:6d:b3:f6:09:2c:b6:69:66:33:
                    df:31:89:df:fc:ae:3a:33:d0:1e:84:e2:d6:01:89:
                    74:a6:d0:57:33:13:fe:e1:19:40:6e:ae:7b:53:03:
                    45:2d:c1:33:00:c6:b1:23:d9:25:8f:64:d5:94:13:
                    96:3d:9b:bb:14:34:d6:63:a9:7c:6b:f3:09:3b:f4:
                    7d:60:3c:9c:dc:64:b1:b2:24:dd:13:a6:b0:86:65:
                    ad:59:4e:20:94:b2:a4:95:71:ce:95:44:c3:68:7f:
                    42:33:9f:e6:12:9d:e9:e0:4b:96:d1:d3:ba:f3:93:
                    94:dc:1a:15:68:ab:21:cc:c7:4d:f0:03:39:95:23:
                    f6:b4:e2:3f:26:ee:f3:9e:7e:b1:49:03:49:bb:e0:
                    53:37:02:bd:f7:7f:20:fd:22:d4:ea:d1:83:ea:7d:
                    54:7f:43:30:0d:4c:97:03:1f:1c:5b:e8:aa:fb:1d:
                    0a:9b:76:48:56:92:96:88:2d:8c:1f:13:5c:29:65:
                    d4:47
                Exponent: 65537 (0x10001)
        X509v3 extensions:
            X509v3 Basic Constraints: 
                CA:FALSE
            X509v3 Subject Key Identifier: 
                3B:11:E7:74:AE:B6:58:3C:BE:F1:CE:CA:92:AB:ED:BB:9C:45:0C:50
            X509v3 Authority Key Identifier: 
                keyid:3B:CF:28:3A:D2:4A:81:05:FD:B1:B5:76:B9:D8:80:DB:8F:6E:A8:AA
                DirName:/CN=team290-net
                serial:56:80:6E:F8:88:39:1F:75:82:07:FC:06:57:2F:98:F6:85:7C:B6:D5
            X509v3 Extended Key Usage: 
                TLS Web Client Authentication
            X509v3 Key Usage: 
                Digital Signature
    Signature Algorithm: sha256WithRSAEncryption
    Signature Value:
        44:c9:dd:c7:8b:68:aa:16:f3:8a:70:b7:0d:01:84:fb:75:09:
        87:99:6f:ab:74:a0:ca:55:c1:65:06:26:3d:31:4c:56:fa:5e:
        71:58:54:f1:48:3b:dc:72:5f:68:7f:85:94:af:97:bd:2d:e7:
        3a:24:65:c2:b1:47:32:06:34:6f:ee:13:4a:cf:85:59:63:d4:
        f5:f6:37:fc:46:6b:e8:8b:12:3f:7a:b2:0f:5c:64:a8:03:24:
        1a:65:ce:22:8c:61:54:f6:b7:ea:6f:d6:e7:be:a5:ea:1c:75:
        45:89:e3:d4:3e:d0:2b:83:50:ba:58:51:4b:5d:9f:71:9e:d3:
        2a:52:16:87:9c:fb:61:e3:33:bb:32:c6:d1:71:ee:ea:e2:b1:
        d7:ec:db:18:5d:f5:e9:a9:34:94:c9:dc:12:05:82:82:10:a9:
        12:75:e7:18:52:4e:40:19:7a:94:ea:89:d9:ed:76:ee:94:23:
        78:34:16:f7:0e:48:71:63:02:77:7b:ca:4e:24:92:e8:01:68:
        18:30:b0:89:b2:d0:4f:4d:e1:87:24:a8:b6:cf:8d:37:fa:86:
        14:a8:d1:e3:0b:a8:af:01:9c:b3:1b:f1:b8:3b:d3:49:1e:c9:
        56:62:9b:e4:e7:71:8c:7a:de:7e:98:b1:25:e9:fa:ea:e3:d3:
        5f:d9:a9:23
-----BEGIN CERTIFICATE-----
MIIDXDCCAkSgAwIBAgIQc2unB5UK69rT6wbc0Ki5MjANBgkqhkiG9w0BAQsFADAW
MRQwEgYDVQQDDAt0ZWFtMjkwLW5ldDAeFw0yMzExMDQxMTMzMzdaFw0yNjEwMTkx
MTMzMzdaMBkxFzAVBgNVBAMMDnRlYW0yOTAtY2xpZW50MIIBIjANBgkqhkiG9w0B
AQEFAAOCAQ8AMIIBCgKCAQEA1lcWpV9lqdR/Tberl10pMOCV5ht4dJHsVbxn7Wye
7f96CsW9bQyvqacRyDpt9YI+h26VNgS+2bs6T0Pd9lnPrpVts/YJLLZpZjPfMYnf
/K46M9AehOLWAYl0ptBXMxP+4RlAbq57UwNFLcEzAMaxI9klj2TVlBOWPZu7FDTW
Y6l8a/MJO/R9YDyc3GSxsiTdE6awhmWtWU4glLKklXHOlUTDaH9CM5/mEp3p4EuW
0dO685OU3BoVaKshzMdN8AM5lSP2tOI/Ju7znn6xSQNJu+BTNwK9938g/SLU6tGD
6n1Uf0MwDUyXAx8cW+iq+x0Km3ZIVpKWiC2MHxNcKWXURwIDAQABo4GiMIGfMAkG
A1UdEwQCMAAwHQYDVR0OBBYEFDsR53Sutlg8vvHOypKr7bucRQxQMFEGA1UdIwRK
MEiAFDvPKDrSSoEF/bG1drnYgNuPbqiqoRqkGDAWMRQwEgYDVQQDDAt0ZWFtMjkw
LW5ldIIUVoBu+Ig5H3WCB/wGVy+Y9oV8ttUwEwYDVR0lBAwwCgYIKwYBBQUHAwIw
CwYDVR0PBAQDAgeAMA0GCSqGSIb3DQEBCwUAA4IBAQBEyd3Hi2iqFvOKcLcNAYT7
dQmHmW+rdKDKVcFlBiY9MUxW+l5xWFTxSDvccl9of4WUr5e9Lec6JGXCsUcyBjRv
7hNKz4VZY9T19jf8RmvoixI/erIPXGSoAyQaZc4ijGFU9rfqb9bnvqXqHHVFiePU
PtArg1C6WFFLXZ9xntMqUhaHnPth4zO7MsbRce7q4rHX7NsYXfXpqTSUydwSBYKC
EKkSdecYUk5AGXqU6onZ7XbulCN4NBb3DkhxYwJ3e8pOJJLoAWgYMLCJstBPTeGH
JKi2z403+oYUqNHjC6ivAZyzG/G4O9NJHslWYpvk53GMet5+mLEl6frq49Nf2akj
-----END CERTIFICATE-----
