Certificate:
    Data:
        Version: 3 (0x2)
        Serial Number:
            b9:71:67:0d:c6:8d:ac:7d:e8:33:a5:e4:dc:50:b5:d0
        Signature Algorithm: sha256WithRSAEncryption
        Issuer: CN=team290-net
        Validity
            Not Before: Nov  4 11:33:37 2023 GMT
            Not After : Oct 19 11:33:37 2026 GMT
        Subject: CN=team290-server
        Subject Public Key Info:
            Public Key Algorithm: rsaEncryption
                Public-Key: (2048 bit)
                Modulus:
                    00:ed:57:a2:45:ec:f8:a2:27:cc:a6:5e:b0:3f:ca:
                    0d:f5:0b:31:1c:b7:da:d9:d0:53:ec:66:67:14:a0:
                    61:aa:21:c7:ee:fc:d5:24:ca:a4:2d:00:7d:ac:b5:
                    7d:44:cd:86:d1:4d:a9:fd:d5:20:8e:ff:0c:d9:92:
                    84:58:b7:96:6e:e1:ca:b5:0d:25:54:6c:fa:95:01:
                    3b:f0:89:80:08:89:dd:d1:98:92:f5:0b:d0:39:de:
                    a0:ff:b5:7a:b9:ac:c7:8f:d4:1b:3b:5b:22:d5:0e:
                    8e:b4:e1:dd:75:a1:b7:79:a1:bc:99:a3:88:fa:73:
                    ab:5d:9a:fd:e7:f0:8f:4e:b6:a8:a9:18:d4:89:c1:
                    62:87:5b:7b:fd:fc:fe:87:0d:6a:50:ba:65:b9:38:
                    63:7a:95:03:e4:0e:70:a9:0d:df:7c:19:54:50:1a:
                    f3:38:45:77:16:4f:53:10:ea:7e:68:13:6f:8d:b0:
                    03:d9:2d:2b:c4:40:59:b0:57:ac:48:93:b9:e4:df:
                    b1:80:97:4d:d3:c3:87:80:cc:4a:16:0c:9b:db:b6:
                    e4:98:60:46:ce:05:ec:1f:21:18:57:c5:a5:b7:70:
                    57:5c:da:b0:08:8a:ec:4a:db:47:34:12:9c:50:34:
                    6f:09:48:78:9e:e3:9b:41:92:40:04:a6:83:02:17:
                    df:b5
                Exponent: 65537 (0x10001)
        X509v3 extensions:
            X509v3 Basic Constraints: 
                CA:FALSE
            X509v3 Subject Key Identifier: 
                42:9B:C4:43:5E:30:8C:7B:12:EC:E2:76:2F:5A:16:90:D8:49:A8:68
            X509v3 Authority Key Identifier: 
                keyid:3B:CF:28:3A:D2:4A:81:05:FD:B1:B5:76:B9:D8:80:DB:8F:6E:A8:AA
                DirName:/CN=team290-net
                serial:56:80:6E:F8:88:39:1F:75:82:07:FC:06:57:2F:98:F6:85:7C:B6:D5
            X509v3 Extended Key Usage: 
                TLS Web Server Authentication
            X509v3 Key Usage: 
                Digital Signature, Key Encipherment
            X509v3 Subject Alternative Name: 
                DNS:team290-server
    Signature Algorithm: sha256WithRSAEncryption
    Signature Value:
        10:d2:21:f2:1d:72:29:c7:2f:16:9b:7f:1d:b8:3b:f8:b5:2d:
        41:5c:56:3e:e9:3a:2c:b4:9d:6e:5a:f7:b4:57:4d:d3:81:45:
        f9:65:17:ba:5f:33:c9:10:6f:55:3e:29:4d:04:c1:43:4d:00:
        db:44:f9:cf:22:0b:8a:27:29:bd:40:5a:e2:48:09:32:21:22:
        a3:22:b5:99:48:c4:65:0a:c7:1f:ce:b3:84:09:a2:64:ca:4f:
        f9:35:4f:53:52:aa:19:fc:8c:c7:55:30:ef:44:97:87:db:66:
        e7:59:9d:26:3b:c9:b4:f5:19:68:e5:ab:91:37:83:68:d0:5d:
        05:4e:72:3c:77:d2:98:bb:f7:e2:b3:9b:9f:d2:ca:a9:b0:ff:
        29:31:87:cc:fb:4f:39:dd:8f:7d:8e:33:84:bc:85:74:98:b5:
        9c:27:94:27:01:63:a2:93:fe:97:8c:2b:5a:3a:be:71:d6:04:
        55:48:b0:50:a0:59:3a:c8:d9:1b:26:38:90:f3:fd:51:58:7b:
        ff:8f:28:41:e1:9a:f1:0c:fe:ba:1d:d9:06:8f:24:f5:bc:b8:
        79:6c:01:06:df:50:fa:28:b1:2c:2d:72:88:70:0b:9c:e9:16:
        a2:52:04:3a:e6:a7:f4:8d:4e:56:22:7c:bf:08:2d:a4:fd:17:
        6a:6f:17:1e
-----BEGIN CERTIFICATE-----
MIIDeDCCAmCgAwIBAgIRALlxZw3Gjax96DOl5NxQtdAwDQYJKoZIhvcNAQELBQAw
FjEUMBIGA1UEAwwLdGVhbTI5MC1uZXQwHhcNMjMxMTA0MTEzMzM3WhcNMjYxMDE5
MTEzMzM3WjAZMRcwFQYDVQQDDA50ZWFtMjkwLXNlcnZlcjCCASIwDQYJKoZIhvcN
AQEBBQADggEPADCCAQoCggEBAO1XokXs+KInzKZesD/KDfULMRy32tnQU+xmZxSg
Yaohx+781STKpC0Afay1fUTNhtFNqf3VII7/DNmShFi3lm7hyrUNJVRs+pUBO/CJ
gAiJ3dGYkvUL0DneoP+1ermsx4/UGztbItUOjrTh3XWht3mhvJmjiPpzq12a/efw
j062qKkY1InBYodbe/38/ocNalC6Zbk4Y3qVA+QOcKkN33wZVFAa8zhFdxZPUxDq
fmgTb42wA9ktK8RAWbBXrEiTueTfsYCXTdPDh4DMShYMm9u25JhgRs4F7B8hGFfF
pbdwV1zasAiK7ErbRzQSnFA0bwlIeJ7jm0GSQASmgwIX37UCAwEAAaOBvTCBujAJ
BgNVHRMEAjAAMB0GA1UdDgQWBBRCm8RDXjCMexLs4nYvWhaQ2EmoaDBRBgNVHSME
SjBIgBQ7zyg60kqBBf2xtXa52IDbj26oqqEapBgwFjEUMBIGA1UEAwwLdGVhbTI5
MC1uZXSCFFaAbviIOR91ggf8BlcvmPaFfLbVMBMGA1UdJQQMMAoGCCsGAQUFBwMB
MAsGA1UdDwQEAwIFoDAZBgNVHREEEjAQgg50ZWFtMjkwLXNlcnZlcjANBgkqhkiG
9w0BAQsFAAOCAQEAENIh8h1yKccvFpt/Hbg7+LUtQVxWPuk6LLSdblr3tFdN04FF
+WUXul8zyRBvVT4pTQTBQ00A20T5zyILiicpvUBa4kgJMiEioyK1mUjEZQrHH86z
hAmiZMpP+TVPU1KqGfyMx1Uw70SXh9tm51mdJjvJtPUZaOWrkTeDaNBdBU5yPHfS
mLv34rObn9LKqbD/KTGHzPtPOd2PfY4zhLyFdJi1nCeUJwFjopP+l4wrWjq+cdYE
VUiwUKBZOsjZGyY4kPP9UVh7/48oQeGa8Qz+uh3ZBo8k9by4eWwBBt9Q+iixLC1y
iHALnOkWolIEOuan9I1OViJ8vwgtpP0Xam8XHg==
-----END CERTIFICATE-----
