Certificate:
    Data:
        Version: 3 (0x2)
        Serial Number:
            c4:3c:a2:b3:b8:04:3d:e4:6e:d7:16:19:fc:9f:80:c2
        Signature Algorithm: sha256WithRSAEncryption
        Issuer: CN=team290-net
        Validity
            Not Before: Nov  3 20:44:34 2023 GMT
            Not After : Oct 18 20:44:34 2026 GMT
        Subject: CN=team290-server
        Subject Public Key Info:
            Public Key Algorithm: rsaEncryption
                Public-Key: (2048 bit)
                Modulus:
                    00:ad:39:a8:45:8a:44:0f:4a:c4:03:e8:66:03:91:
                    c0:16:c0:84:4a:fa:50:1e:73:1c:e8:e1:8f:9e:c0:
                    27:32:ef:9b:e6:22:60:6b:f1:cc:c4:f0:01:53:3c:
                    1b:bd:7b:dd:ea:37:52:cf:94:60:0b:07:59:8d:3b:
                    ec:e0:d5:4a:e2:f8:af:e4:7f:4f:8a:3e:4a:ad:f2:
                    3c:63:df:21:e7:c0:f3:f5:c5:d4:2f:0f:24:63:74:
                    34:07:4e:0f:be:f8:49:27:ec:0e:0f:3f:21:5b:38:
                    e5:2c:49:ea:bf:19:33:57:59:f3:98:4a:2a:df:02:
                    cf:ee:0b:fc:30:df:27:3a:f6:df:23:e1:ec:80:f1:
                    e1:df:43:d1:99:4c:f4:90:4e:a9:0f:d0:d5:c8:38:
                    39:ad:fe:69:02:a0:24:6b:db:a7:0d:09:9c:e9:e3:
                    58:cb:72:e5:40:7c:d4:74:67:75:e1:c6:5e:99:e8:
                    2d:dc:f4:ee:ff:96:22:f1:ef:e8:3c:ac:f9:1e:48:
                    0b:92:70:00:99:ca:36:c5:a5:fb:94:89:35:fe:ea:
                    38:61:32:ea:77:0e:e0:b5:14:18:96:d5:7c:1c:97:
                    e5:b7:f6:1c:55:6a:74:2a:67:d5:56:7a:84:ed:08:
                    38:56:c4:58:4c:1c:2f:10:97:b2:1e:9e:f4:e6:d6:
                    8a:b3
                Exponent: 65537 (0x10001)
        X509v3 extensions:
            X509v3 Basic Constraints: 
                CA:FALSE
            X509v3 Subject Key Identifier: 
                E8:5C:CC:A7:3F:F5:A3:0B:B9:97:5F:0A:B0:4A:3B:7B:98:9C:4B:85
            X509v3 Authority Key Identifier: 
                keyid:87:13:73:F3:A6:32:48:D5:8B:FD:A8:37:F1:A1:73:14:C5:F2:35:8B
                DirName:/CN=team290-net
                serial:4F:00:19:7C:CE:44:0F:7A:03:72:DF:B9:48:D9:7B:B1:CB:3B:7B:86
            X509v3 Extended Key Usage: 
                TLS Web Server Authentication
            X509v3 Key Usage: 
                Digital Signature, Key Encipherment
            X509v3 Subject Alternative Name: 
                DNS:team290-server
    Signature Algorithm: sha256WithRSAEncryption
    Signature Value:
        49:5b:f6:63:a2:82:2e:2a:aa:e5:29:0d:a5:52:33:cf:42:5c:
        23:14:f1:d1:bc:9e:6e:59:f8:be:23:df:7d:b1:2d:cc:e4:81:
        3a:5b:36:bb:35:c1:c2:63:09:aa:22:06:71:b8:e4:bd:5d:7c:
        7e:57:7a:da:1b:a7:03:a9:b4:93:99:e4:31:f6:73:94:d6:a3:
        8c:b6:48:a7:2a:68:8e:f6:cb:e7:6d:6a:57:fe:99:c5:65:1d:
        61:ab:b7:6b:e5:f4:b3:81:29:f4:2d:c8:ab:00:20:09:17:d1:
        94:85:a1:25:aa:34:2f:b5:16:ee:67:24:f4:6e:fc:50:04:14:
        82:49:74:37:8d:5a:79:c6:5d:6a:15:a5:84:52:22:a3:89:b0:
        7d:9f:1a:74:b4:d3:ef:1b:f1:bd:ae:b5:b6:a0:a5:2c:51:84:
        de:eb:f8:8b:8f:10:4c:84:40:28:f6:82:ed:c1:be:d9:79:cc:
        e7:81:bd:33:8d:7b:bc:51:d8:95:2a:0b:4e:f8:c1:a7:73:87:
        33:20:ef:c9:39:7f:9e:4e:33:c6:4e:de:59:07:5b:b3:be:2e:
        7b:ff:63:81:f4:91:ce:1f:24:e6:1e:42:09:c0:3b:a2:4a:cb:
        bc:8c:fa:5b:3b:51:6c:12:8f:8f:37:10:d8:b6:ec:0d:b4:9a:
        0d:23:a4:cb
-----BEGIN CERTIFICATE-----
MIIDeDCCAmCgAwIBAgIRAMQ8orO4BD3kbtcWGfyfgMIwDQYJKoZIhvcNAQELBQAw
FjEUMBIGA1UEAwwLdGVhbTI5MC1uZXQwHhcNMjMxMTAzMjA0NDM0WhcNMjYxMDE4
MjA0NDM0WjAZMRcwFQYDVQQDDA50ZWFtMjkwLXNlcnZlcjCCASIwDQYJKoZIhvcN
AQEBBQADggEPADCCAQoCggEBAK05qEWKRA9KxAPoZgORwBbAhEr6UB5zHOjhj57A
JzLvm+YiYGvxzMTwAVM8G7173eo3Us+UYAsHWY077ODVSuL4r+R/T4o+Sq3yPGPf
IefA8/XF1C8PJGN0NAdOD774SSfsDg8/IVs45SxJ6r8ZM1dZ85hKKt8Cz+4L/DDf
Jzr23yPh7IDx4d9D0ZlM9JBOqQ/Q1cg4Oa3+aQKgJGvbpw0JnOnjWMty5UB81HRn
deHGXpnoLdz07v+WIvHv6Dys+R5IC5JwAJnKNsWl+5SJNf7qOGEy6ncO4LUUGJbV
fByX5bf2HFVqdCpn1VZ6hO0IOFbEWEwcLxCXsh6e9ObWirMCAwEAAaOBvTCBujAJ
BgNVHRMEAjAAMB0GA1UdDgQWBBToXMynP/WjC7mXXwqwSjt7mJxLhTBRBgNVHSME
SjBIgBSHE3PzpjJI1Yv9qDfxoXMUxfI1i6EapBgwFjEUMBIGA1UEAwwLdGVhbTI5
MC1uZXSCFE8AGXzORA96A3LfuUjZe7HLO3uGMBMGA1UdJQQMMAoGCCsGAQUFBwMB
MAsGA1UdDwQEAwIFoDAZBgNVHREEEjAQgg50ZWFtMjkwLXNlcnZlcjANBgkqhkiG
9w0BAQsFAAOCAQEASVv2Y6KCLiqq5SkNpVIzz0JcIxTx0byebln4viPffbEtzOSB
Ols2uzXBwmMJqiIGcbjkvV18fld62hunA6m0k5nkMfZzlNajjLZIpypojvbL521q
V/6ZxWUdYau3a+X0s4Ep9C3IqwAgCRfRlIWhJao0L7UW7mck9G78UAQUgkl0N41a
ecZdahWlhFIio4mwfZ8adLTT7xvxva61tqClLFGE3uv4i48QTIRAKPaC7cG+2XnM
54G9M417vFHYlSoLTvjBp3OHMyDvyTl/nk4zxk7eWQdbs74ue/9jgfSRzh8k5h5C
CcA7okrLvIz6WztRbBKPjzcQ2LbsDbSaDSOkyw==
-----END CERTIFICATE-----
