Certificate:
    Data:
        Version: 3 (0x2)
        Serial Number:
            82:50:28:11:1e:64:b1:97:ff:2a:41:ce:f0:af:02:bd
        Signature Algorithm: sha256WithRSAEncryption
        Issuer: CN=team440-net
        Validity
            Not Before: Nov  3 20:47:14 2023 GMT
            Not After : Oct 18 20:47:14 2026 GMT
        Subject: CN=team440-server
        Subject Public Key Info:
            Public Key Algorithm: rsaEncryption
                Public-Key: (2048 bit)
                Modulus:
                    00:aa:8f:0c:c4:d2:ea:e0:dc:20:ca:e2:29:9a:50:
                    e5:14:36:ce:a6:ee:0d:ee:af:9e:85:04:47:ba:62:
                    5b:3d:87:56:88:ef:2f:9f:a1:61:7c:08:60:ce:32:
                    44:8e:5b:1a:fa:0c:33:5f:17:8c:54:13:6f:e9:21:
                    9e:38:4e:a2:a1:dc:49:11:00:a6:aa:53:83:92:26:
                    73:20:b6:d6:a9:2d:a3:76:80:a3:94:40:b2:40:e1:
                    eb:16:c5:5d:91:64:97:b5:1f:74:4a:bf:6a:2b:28:
                    48:e3:3b:2b:f6:a1:59:97:66:67:64:77:12:43:f3:
                    37:90:24:90:99:7b:af:61:4c:8f:2e:33:95:4b:7d:
                    30:bd:4e:98:ab:c9:d3:e8:ed:68:84:df:b7:22:52:
                    11:0c:d0:5d:cf:a6:14:a1:dd:6a:b3:e9:be:87:b8:
                    dd:0c:61:34:9d:da:03:9a:26:37:04:28:27:99:1c:
                    ca:7d:16:ba:98:52:2e:1b:c4:61:de:02:09:13:65:
                    f7:2c:7e:67:fd:e6:e0:56:30:1d:e9:45:41:f8:94:
                    f1:3d:a4:de:61:20:7e:89:4a:2e:8d:00:30:12:2e:
                    d4:51:f2:32:ea:d3:5d:1b:d2:53:20:99:d0:e0:15:
                    d8:fa:a8:25:bb:fc:ff:77:8a:68:92:8d:5f:5f:7b:
                    81:17
                Exponent: 65537 (0x10001)
        X509v3 extensions:
            X509v3 Basic Constraints: 
                CA:FALSE
            X509v3 Subject Key Identifier: 
                B3:5C:4E:25:F8:88:D7:78:A7:D0:4A:85:D0:2D:5B:19:27:42:17:CF
            X509v3 Authority Key Identifier: 
                keyid:9A:6E:4D:B2:DF:56:BA:75:A5:9C:30:21:95:F0:EE:FD:0E:1F:FA:3B
                DirName:/CN=team440-net
                serial:2C:48:66:0F:E2:EF:FE:31:00:9D:02:8F:77:8F:2C:BA:CC:01:C2:24
            X509v3 Extended Key Usage: 
                TLS Web Server Authentication
            X509v3 Key Usage: 
                Digital Signature, Key Encipherment
            X509v3 Subject Alternative Name: 
                DNS:team440-server
    Signature Algorithm: sha256WithRSAEncryption
    Signature Value:
        1d:5d:06:f2:8a:a3:6e:a7:fb:7f:ee:27:03:6e:02:49:44:79:
        f1:9d:53:d3:51:b5:2b:58:65:73:db:08:d0:32:43:74:49:90:
        63:1e:3a:67:60:88:58:9e:7d:ed:30:8f:75:08:c9:7e:27:f9:
        6d:62:b0:57:60:5c:f5:81:48:e8:c7:44:73:8b:b5:4d:17:f3:
        a3:e4:8a:bc:46:43:f3:1c:e7:58:6a:c8:ee:5f:51:d2:dd:df:
        75:77:54:e8:70:c2:e1:c8:b1:47:5b:7d:49:f9:f7:bb:bd:87:
        8f:86:40:cf:06:b4:dd:c4:d8:a7:64:ed:c1:3e:ac:56:0c:e8:
        64:7e:4b:ff:77:f2:f5:b9:95:5a:c2:95:5a:24:8e:97:3d:ce:
        d7:58:0e:2b:fc:66:46:ca:c1:80:fa:83:48:49:3a:cd:e0:7d:
        f7:a7:ce:77:ae:16:f7:b3:a7:ed:a9:df:df:5d:a6:6e:a7:23:
        a5:d4:18:98:f4:55:4d:fa:f2:f1:b5:39:62:6b:e8:33:03:4b:
        c8:9e:2a:48:6d:c9:0b:ef:55:2b:5a:92:4e:c7:ba:b1:2c:ab:
        fb:c2:4b:a7:bf:c9:84:10:7f:a0:df:85:2d:1b:fa:32:87:cd:
        89:0b:0a:57:9e:e5:c4:b0:a2:a1:6d:cd:17:1a:32:3a:ad:1e:
        85:9a:9a:aa
-----BEGIN CERTIFICATE-----
MIIDeDCCAmCgAwIBAgIRAIJQKBEeZLGX/ypBzvCvAr0wDQYJKoZIhvcNAQELBQAw
FjEUMBIGA1UEAwwLdGVhbTQ0MC1uZXQwHhcNMjMxMTAzMjA0NzE0WhcNMjYxMDE4
MjA0NzE0WjAZMRcwFQYDVQQDDA50ZWFtNDQwLXNlcnZlcjCCASIwDQYJKoZIhvcN
AQEBBQADggEPADCCAQoCggEBAKqPDMTS6uDcIMriKZpQ5RQ2zqbuDe6vnoUER7pi
Wz2HVojvL5+hYXwIYM4yRI5bGvoMM18XjFQTb+khnjhOoqHcSREApqpTg5ImcyC2
1qkto3aAo5RAskDh6xbFXZFkl7UfdEq/aisoSOM7K/ahWZdmZ2R3EkPzN5AkkJl7
r2FMjy4zlUt9ML1OmKvJ0+jtaITftyJSEQzQXc+mFKHdarPpvoe43QxhNJ3aA5om
NwQoJ5kcyn0WuphSLhvEYd4CCRNl9yx+Z/3m4FYwHelFQfiU8T2k3mEgfolKLo0A
MBIu1FHyMurTXRvSUyCZ0OAV2PqoJbv8/3eKaJKNX197gRcCAwEAAaOBvTCBujAJ
BgNVHRMEAjAAMB0GA1UdDgQWBBSzXE4l+IjXeKfQSoXQLVsZJ0IXzzBRBgNVHSME
SjBIgBSabk2y31a6daWcMCGV8O79Dh/6O6EapBgwFjEUMBIGA1UEAwwLdGVhbTQ0
MC1uZXSCFCxIZg/i7/4xAJ0Cj3ePLLrMAcIkMBMGA1UdJQQMMAoGCCsGAQUFBwMB
MAsGA1UdDwQEAwIFoDAZBgNVHREEEjAQgg50ZWFtNDQwLXNlcnZlcjANBgkqhkiG
9w0BAQsFAAOCAQEAHV0G8oqjbqf7f+4nA24CSUR58Z1T01G1K1hlc9sI0DJDdEmQ
Yx46Z2CIWJ597TCPdQjJfif5bWKwV2Bc9YFI6MdEc4u1TRfzo+SKvEZD8xznWGrI
7l9R0t3fdXdU6HDC4cixR1t9Sfn3u72Hj4ZAzwa03cTYp2TtwT6sVgzoZH5L/3fy
9bmVWsKVWiSOlz3O11gOK/xmRsrBgPqDSEk6zeB996fOd64W97On7anf312mbqcj
pdQYmPRVTfry8bU5YmvoMwNLyJ4qSG3JC+9VK1qSTse6sSyr+8JLp7/JhBB/oN+F
LRv6MofNiQsKV57lxLCioW3NFxoyOq0ehZqaqg==
-----END CERTIFICATE-----
