Certificate:
    Data:
        Version: 3 (0x2)
        Serial Number:
            8a:ea:28:51:3f:fc:e4:b4:a6:e2:1b:d7:3d:8d:2e:e7
        Signature Algorithm: sha256WithRSAEncryption
        Issuer: CN=team440-net
        Validity
            Not Before: Nov  3 20:47:14 2023 GMT
            Not After : Oct 18 20:47:14 2026 GMT
        Subject: CN=team440-client
        Subject Public Key Info:
            Public Key Algorithm: rsaEncryption
                Public-Key: (2048 bit)
                Modulus:
                    00:c4:e7:ad:19:8a:cc:0f:7d:d5:cf:7b:f0:0a:db:
                    8d:06:c7:85:9e:17:ed:5d:a7:c1:77:45:0c:24:a2:
                    ab:05:e0:92:77:f6:76:61:db:6a:e6:d0:4a:90:c0:
                    f6:c4:25:04:a5:51:96:e0:18:51:f5:81:a9:a0:6d:
                    b4:f7:55:4d:42:81:c7:90:19:1c:b1:d6:34:39:c9:
                    3c:f8:1f:94:ff:60:85:de:4a:b3:ee:87:1f:61:c5:
                    8c:d9:78:4a:22:b0:0a:17:2c:1c:d1:25:80:92:90:
                    e4:54:22:65:58:9d:2c:66:99:6f:50:15:8d:5e:86:
                    fe:b4:f7:7b:14:1a:2e:3c:05:60:0f:13:98:94:b1:
                    88:a0:4a:65:b4:11:54:78:69:0e:6f:b5:f0:9c:df:
                    c7:b7:ad:84:eb:85:f4:e2:dd:c6:5d:fa:a0:39:63:
                    75:ed:7a:11:d8:8a:d2:ae:25:0e:eb:bc:d9:37:95:
                    61:08:e3:73:10:e2:5c:4f:bb:b1:bb:f8:2a:32:61:
                    fb:c2:ae:b2:91:d4:34:c2:4b:2d:74:10:69:5a:8c:
                    53:31:16:57:5d:61:84:7a:32:b2:96:e4:de:63:f5:
                    be:6a:83:b6:72:c9:96:24:aa:d8:12:e9:00:41:c6:
                    ce:ca:09:37:54:6c:00:4f:db:2b:56:7a:4d:1f:9a:
                    89:9d
                Exponent: 65537 (0x10001)
        X509v3 extensions:
            X509v3 Basic Constraints: 
                CA:FALSE
            X509v3 Subject Key Identifier: 
                BF:B2:A5:AF:9B:84:FA:F9:15:25:E8:7D:66:E5:04:C9:CD:59:14:15
            X509v3 Authority Key Identifier: 
                keyid:9A:6E:4D:B2:DF:56:BA:75:A5:9C:30:21:95:F0:EE:FD:0E:1F:FA:3B
                DirName:/CN=team440-net
                serial:2C:48:66:0F:E2:EF:FE:31:00:9D:02:8F:77:8F:2C:BA:CC:01:C2:24
            X509v3 Extended Key Usage: 
                TLS Web Client Authentication
            X509v3 Key Usage: 
                Digital Signature
    Signature Algorithm: sha256WithRSAEncryption
    Signature Value:
        53:6c:2f:16:d6:58:a5:9c:94:45:e4:e2:ca:c9:42:ef:e3:56:
        ba:65:ad:b5:7b:89:a9:42:a3:62:99:c4:14:1c:82:ab:aa:1f:
        8b:36:d0:b9:94:35:d7:2c:42:03:10:b7:0e:20:f5:cc:cc:37:
        64:1b:6b:51:70:46:fe:6d:bd:45:a5:34:96:72:dc:b7:af:cc:
        25:9f:5a:c2:4c:88:28:b9:71:49:96:04:45:19:42:6f:3f:42:
        d2:11:5d:af:3d:b8:7f:c8:e1:20:aa:a2:f1:51:54:59:4a:eb:
        48:c3:c4:89:72:b5:c4:3f:6e:fb:40:bf:64:4c:47:fe:ce:0e:
        85:96:00:41:60:6a:0d:b1:c0:85:24:e3:f9:5f:dd:95:16:7d:
        7f:9d:23:11:44:20:30:3f:81:f7:9c:80:bd:06:1d:54:62:7e:
        f1:78:21:6f:b3:70:41:1a:6d:39:a0:80:b7:9d:eb:45:ac:0e:
        de:a5:46:1e:b6:b0:8f:9b:85:fe:cd:ea:2f:ea:bd:5c:61:05:
        14:cf:a0:28:2a:ce:21:7c:e5:17:4f:85:ee:b4:ac:d9:c1:4f:
        1c:d6:58:b3:d1:d3:c4:36:d4:22:36:09:d4:02:8d:bb:80:80:
        86:35:f8:e1:01:26:17:2f:72:34:4b:ff:32:3c:88:cb:50:94:
        53:77:72:00
-----BEGIN CERTIFICATE-----
MIIDXTCCAkWgAwIBAgIRAIrqKFE//OS0puIb1z2NLucwDQYJKoZIhvcNAQELBQAw
FjEUMBIGA1UEAwwLdGVhbTQ0MC1uZXQwHhcNMjMxMTAzMjA0NzE0WhcNMjYxMDE4
MjA0NzE0WjAZMRcwFQYDVQQDDA50ZWFtNDQwLWNsaWVudDCCASIwDQYJKoZIhvcN
AQEBBQADggEPADCCAQoCggEBAMTnrRmKzA991c978ArbjQbHhZ4X7V2nwXdFDCSi
qwXgknf2dmHbaubQSpDA9sQlBKVRluAYUfWBqaBttPdVTUKBx5AZHLHWNDnJPPgf
lP9ghd5Ks+6HH2HFjNl4SiKwChcsHNElgJKQ5FQiZVidLGaZb1AVjV6G/rT3exQa
LjwFYA8TmJSxiKBKZbQRVHhpDm+18Jzfx7ethOuF9OLdxl36oDljde16EdiK0q4l
Duu82TeVYQjjcxDiXE+7sbv4KjJh+8KuspHUNMJLLXQQaVqMUzEWV11hhHoyspbk
3mP1vmqDtnLJliSq2BLpAEHGzsoJN1RsAE/bK1Z6TR+aiZ0CAwEAAaOBojCBnzAJ
BgNVHRMEAjAAMB0GA1UdDgQWBBS/sqWvm4T6+RUl6H1m5QTJzVkUFTBRBgNVHSME
SjBIgBSabk2y31a6daWcMCGV8O79Dh/6O6EapBgwFjEUMBIGA1UEAwwLdGVhbTQ0
MC1uZXSCFCxIZg/i7/4xAJ0Cj3ePLLrMAcIkMBMGA1UdJQQMMAoGCCsGAQUFBwMC
MAsGA1UdDwQEAwIHgDANBgkqhkiG9w0BAQsFAAOCAQEAU2wvFtZYpZyUReTiyslC
7+NWumWttXuJqUKjYpnEFByCq6ofizbQuZQ11yxCAxC3DiD1zMw3ZBtrUXBG/m29
RaU0lnLct6/MJZ9awkyIKLlxSZYERRlCbz9C0hFdrz24f8jhIKqi8VFUWUrrSMPE
iXK1xD9u+0C/ZExH/s4OhZYAQWBqDbHAhSTj+V/dlRZ9f50jEUQgMD+B95yAvQYd
VGJ+8Xghb7NwQRptOaCAt53rRawO3qVGHrawj5uF/s3qL+q9XGEFFM+gKCrOIXzl
F0+F7rSs2cFPHNZYs9HTxDbUIjYJ1AKNu4CAhjX44QEmFy9yNEv/MjyIy1CUU3dy
AA==
-----END CERTIFICATE-----
