Certificate:
    Data:
        Version: 3 (0x2)
        Serial Number:
            c3:4c:a9:64:d2:e0:e5:df:b2:47:fb:1d:ce:d2:ac:68
        Signature Algorithm: sha256WithRSAEncryption
        Issuer: CN=team440-net
        Validity
            Not Before: Nov  4 11:37:21 2023 GMT
            Not After : Oct 19 11:37:21 2026 GMT
        Subject: CN=team440-server
        Subject Public Key Info:
            Public Key Algorithm: rsaEncryption
                Public-Key: (2048 bit)
                Modulus:
                    00:ab:9c:d5:a6:55:a9:dc:60:f7:e3:2c:c7:4c:22:
                    11:a6:56:18:1c:1f:a4:b9:e2:ad:9b:b0:c3:80:9b:
                    2a:a9:9d:80:28:f8:4f:8c:5e:81:3c:9b:cb:52:7e:
                    a6:d3:dc:93:93:62:69:8e:96:e4:8d:99:ca:e9:d0:
                    c2:dd:64:09:a8:d1:66:40:cc:81:b9:3b:78:e5:82:
                    b1:9a:e2:bb:da:cd:08:32:34:4b:6d:9f:55:72:28:
                    e7:12:0b:66:5b:72:51:fc:04:a1:f0:ec:60:6c:07:
                    57:64:b3:55:1f:16:eb:22:45:3a:15:a4:dd:03:0e:
                    e2:41:d1:cb:ce:8c:53:f4:df:8c:41:85:c2:c8:50:
                    20:7f:6c:2f:58:99:d5:87:15:8a:7d:35:8c:01:8c:
                    9b:90:9c:d0:8c:00:3e:d3:c9:b9:d0:7b:9c:d4:58:
                    fd:6a:7b:11:57:54:a6:4e:f2:a0:71:25:a9:87:64:
                    a6:a1:ae:fc:e2:da:f1:48:2c:ca:57:14:5c:42:8a:
                    b6:17:57:59:d4:96:d6:47:6d:57:c7:e7:cc:8d:e8:
                    ce:52:c5:d1:6d:24:2e:66:87:22:d2:e4:18:83:19:
                    bf:1d:9e:9c:ad:f8:7a:40:a2:c5:48:ce:ac:c0:f2:
                    53:8b:89:d3:da:be:10:f3:5d:06:40:0b:e9:c1:15:
                    f0:f5
                Exponent: 65537 (0x10001)
        X509v3 extensions:
            X509v3 Basic Constraints: 
                CA:FALSE
            X509v3 Subject Key Identifier: 
                6B:74:06:6A:80:2C:5B:5E:A6:D8:76:AC:F7:C0:FA:B2:E3:F1:5A:17
            X509v3 Authority Key Identifier: 
                keyid:EA:5F:FE:B0:1F:54:B4:09:FC:41:79:84:9A:D2:D3:C3:D8:A5:94:23
                DirName:/CN=team440-net
                serial:0E:E8:B3:30:F4:A7:40:DD:41:F9:17:A7:37:94:2F:51:22:B9:F8:67
            X509v3 Extended Key Usage: 
                TLS Web Server Authentication
            X509v3 Key Usage: 
                Digital Signature, Key Encipherment
            X509v3 Subject Alternative Name: 
                DNS:team440-server
    Signature Algorithm: sha256WithRSAEncryption
    Signature Value:
        58:fd:5e:92:29:a4:44:03:74:ef:c1:d2:c2:24:c0:f9:93:3f:
        6e:c3:4c:f8:99:2f:aa:5c:12:06:b6:e3:d0:65:94:79:28:05:
        ef:f8:02:96:78:52:0a:1a:96:68:8a:d4:92:9f:c9:a8:90:0c:
        0c:fc:e4:27:f9:74:93:30:01:e5:22:4d:93:70:4c:56:86:21:
        1d:87:d6:c8:db:e7:a6:cb:b0:b8:3d:fb:1f:86:25:c8:6c:d5:
        f1:33:6c:ea:0a:5e:02:5e:86:2b:c6:e0:13:1f:6e:4a:de:48:
        89:cf:28:74:9e:dd:c5:55:9a:c7:6c:21:36:14:26:e6:bd:46:
        33:4d:44:aa:7d:70:8d:36:0b:4e:4a:9f:d6:ef:79:2d:76:bf:
        d6:fe:79:98:9f:2c:99:4b:53:90:1a:39:79:d2:4c:7e:a5:da:
        69:21:71:6d:78:cf:49:e4:d0:e0:ca:9a:3a:a6:2f:10:be:37:
        af:b5:ab:6e:47:37:6c:65:20:bf:5e:a4:22:cf:d7:b8:ea:75:
        7e:0e:3b:b3:05:b0:9a:12:02:d6:68:5e:1f:0d:6b:a3:53:5b:
        20:d6:92:3f:83:8c:5d:64:00:b5:29:b5:43:fe:83:17:e6:ba:
        f1:6a:ee:2e:83:27:4a:d4:f9:67:f6:39:73:a4:58:dd:ee:4d:
        69:df:4f:c3
-----BEGIN CERTIFICATE-----
MIIDeDCCAmCgAwIBAgIRAMNMqWTS4OXfskf7Hc7SrGgwDQYJKoZIhvcNAQELBQAw
FjEUMBIGA1UEAwwLdGVhbTQ0MC1uZXQwHhcNMjMxMTA0MTEzNzIxWhcNMjYxMDE5
MTEzNzIxWjAZMRcwFQYDVQQDDA50ZWFtNDQwLXNlcnZlcjCCASIwDQYJKoZIhvcN
AQEBBQADggEPADCCAQoCggEBAKuc1aZVqdxg9+Msx0wiEaZWGBwfpLnirZuww4Cb
KqmdgCj4T4xegTyby1J+ptPck5NiaY6W5I2ZyunQwt1kCajRZkDMgbk7eOWCsZri
u9rNCDI0S22fVXIo5xILZltyUfwEofDsYGwHV2SzVR8W6yJFOhWk3QMO4kHRy86M
U/TfjEGFwshQIH9sL1iZ1YcVin01jAGMm5Cc0IwAPtPJudB7nNRY/Wp7EVdUpk7y
oHElqYdkpqGu/OLa8UgsylcUXEKKthdXWdSW1kdtV8fnzI3ozlLF0W0kLmaHItLk
GIMZvx2enK34ekCixUjOrMDyU4uJ09q+EPNdBkAL6cEV8PUCAwEAAaOBvTCBujAJ
BgNVHRMEAjAAMB0GA1UdDgQWBBRrdAZqgCxbXqbYdqz3wPqy4/FaFzBRBgNVHSME
SjBIgBTqX/6wH1S0CfxBeYSa0tPD2KWUI6EapBgwFjEUMBIGA1UEAwwLdGVhbTQ0
MC1uZXSCFA7oszD0p0DdQfkXpzeUL1EiufhnMBMGA1UdJQQMMAoGCCsGAQUFBwMB
MAsGA1UdDwQEAwIFoDAZBgNVHREEEjAQgg50ZWFtNDQwLXNlcnZlcjANBgkqhkiG
9w0BAQsFAAOCAQEAWP1ekimkRAN078HSwiTA+ZM/bsNM+JkvqlwSBrbj0GWUeSgF
7/gClnhSChqWaIrUkp/JqJAMDPzkJ/l0kzAB5SJNk3BMVoYhHYfWyNvnpsuwuD37
H4YlyGzV8TNs6gpeAl6GK8bgEx9uSt5Iic8odJ7dxVWax2whNhQm5r1GM01Eqn1w
jTYLTkqf1u95LXa/1v55mJ8smUtTkBo5edJMfqXaaSFxbXjPSeTQ4MqaOqYvEL43
r7Wrbkc3bGUgv16kIs/XuOp1fg47swWwmhIC1mheHw1ro1NbINaSP4OMXWQAtSm1
Q/6DF+a68WruLoMnStT5Z/Y5c6RY3e5Nad9Pww==
-----END CERTIFICATE-----
