Certificate:
    Data:
        Version: 3 (0x2)
        Serial Number:
            d5:68:82:88:b6:98:5d:54:35:af:80:fb:a6:26:b2:0f
        Signature Algorithm: sha256WithRSAEncryption
        Issuer: CN=team440-net
        Validity
            Not Before: Nov  4 11:37:21 2023 GMT
            Not After : Oct 19 11:37:21 2026 GMT
        Subject: CN=team440-client
        Subject Public Key Info:
            Public Key Algorithm: rsaEncryption
                Public-Key: (2048 bit)
                Modulus:
                    00:98:bd:f3:8f:e3:66:71:c3:93:cf:11:90:4c:21:
                    2e:9d:c4:5b:f2:b9:d0:a9:8a:c8:94:db:4a:3a:3d:
                    a4:45:79:94:a3:c5:6e:2b:9d:03:05:ba:28:86:3b:
                    fd:47:3e:fb:66:14:fa:24:73:8a:d6:30:12:92:e5:
                    a3:3f:10:2d:ce:11:bc:26:ae:63:c8:af:94:58:45:
                    6a:31:63:cf:a1:11:86:81:36:f1:23:cf:27:f1:e6:
                    7e:f3:8c:fe:68:f4:3f:9a:7b:cf:f9:de:1f:73:16:
                    28:eb:ff:6c:8d:88:86:d6:71:79:95:2b:2f:dd:65:
                    f7:9d:71:25:95:ae:f3:44:b0:ce:7e:eb:a0:ce:d9:
                    3c:e8:71:ad:d5:ee:79:b9:b5:df:70:05:33:68:db:
                    8a:6a:c0:d3:14:91:67:ba:7c:07:c4:73:b1:1a:3b:
                    04:cc:5f:48:11:d4:81:5a:19:5d:b8:07:dd:6a:29:
                    b3:c4:9c:44:c2:4f:d8:50:e4:55:30:0c:62:60:f6:
                    dd:6b:2b:c0:96:6b:32:c3:b9:d3:ea:1a:25:fa:aa:
                    23:40:6d:e7:95:33:97:30:22:6a:bb:c1:bb:1f:6d:
                    16:71:14:b2:36:34:19:26:05:8e:3e:30:eb:1b:15:
                    6b:9b:dd:62:33:28:04:dc:30:bf:6f:46:48:5f:4c:
                    3e:c9
                Exponent: 65537 (0x10001)
        X509v3 extensions:
            X509v3 Basic Constraints: 
                CA:FALSE
            X509v3 Subject Key Identifier: 
                E5:0D:F0:6A:50:3C:30:DB:3A:9C:E0:CE:C2:0A:23:31:69:1A:11:D4
            X509v3 Authority Key Identifier: 
                keyid:EA:5F:FE:B0:1F:54:B4:09:FC:41:79:84:9A:D2:D3:C3:D8:A5:94:23
                DirName:/CN=team440-net
                serial:0E:E8:B3:30:F4:A7:40:DD:41:F9:17:A7:37:94:2F:51:22:B9:F8:67
            X509v3 Extended Key Usage: 
                TLS Web Client Authentication
            X509v3 Key Usage: 
                Digital Signature
    Signature Algorithm: sha256WithRSAEncryption
    Signature Value:
        77:b2:a5:88:7a:a7:cf:01:4e:da:cd:90:7f:a4:3c:1f:41:82:
        a8:bb:8d:f6:16:b0:97:a7:7d:27:af:44:fc:eb:ac:e4:c9:83:
        35:c9:60:24:1f:49:9f:de:82:9f:c3:17:5d:47:ba:f9:dd:c8:
        f5:4e:82:66:09:dc:d1:73:e9:3e:a5:0d:a9:48:10:d9:03:14:
        f1:1c:cd:8d:0d:f7:df:54:f7:ad:4b:df:87:29:20:12:5a:97:
        5b:6a:fb:33:d9:ef:26:b9:96:ec:6c:2d:a6:82:75:56:fb:03:
        9f:26:46:f4:a5:55:d8:21:80:31:64:3b:22:9a:ba:c6:ec:84:
        b5:e1:d5:7a:ea:ce:61:f0:0c:16:06:89:21:c5:5c:52:5a:15:
        da:1c:ef:56:22:a8:8b:6a:aa:90:04:6d:6c:fd:59:f3:54:61:
        93:8b:f9:99:14:00:42:46:09:8a:46:13:0f:17:a6:c1:dd:d9:
        79:d0:0c:50:03:c2:52:9f:b5:63:95:0f:32:97:a1:54:fe:3e:
        a2:3b:78:bb:6f:48:8c:7f:2d:a1:fb:39:2f:60:6b:52:bc:35:
        2c:9c:af:bd:44:40:7b:93:27:2a:da:c0:2a:4b:fc:06:7a:45:
        1b:4d:33:97:37:b6:96:e0:08:30:dd:e1:31:5b:2a:7e:6b:8f:
        b0:c6:58:cc
-----BEGIN CERTIFICATE-----
MIIDXTCCAkWgAwIBAgIRANVogoi2mF1UNa+A+6Ymsg8wDQYJKoZIhvcNAQELBQAw
FjEUMBIGA1UEAwwLdGVhbTQ0MC1uZXQwHhcNMjMxMTA0MTEzNzIxWhcNMjYxMDE5
MTEzNzIxWjAZMRcwFQYDVQQDDA50ZWFtNDQwLWNsaWVudDCCASIwDQYJKoZIhvcN
AQEBBQADggEPADCCAQoCggEBAJi984/jZnHDk88RkEwhLp3EW/K50KmKyJTbSjo9
pEV5lKPFbiudAwW6KIY7/Uc++2YU+iRzitYwEpLloz8QLc4RvCauY8ivlFhFajFj
z6ERhoE28SPPJ/HmfvOM/mj0P5p7z/neH3MWKOv/bI2IhtZxeZUrL91l951xJZWu
80Swzn7roM7ZPOhxrdXuebm133AFM2jbimrA0xSRZ7p8B8RzsRo7BMxfSBHUgVoZ
XbgH3Wops8ScRMJP2FDkVTAMYmD23WsrwJZrMsO50+oaJfqqI0Bt55UzlzAiarvB
ux9tFnEUsjY0GSYFjj4w6xsVa5vdYjMoBNwwv29GSF9MPskCAwEAAaOBojCBnzAJ
BgNVHRMEAjAAMB0GA1UdDgQWBBTlDfBqUDww2zqc4M7CCiMxaRoR1DBRBgNVHSME
SjBIgBTqX/6wH1S0CfxBeYSa0tPD2KWUI6EapBgwFjEUMBIGA1UEAwwLdGVhbTQ0
MC1uZXSCFA7oszD0p0DdQfkXpzeUL1EiufhnMBMGA1UdJQQMMAoGCCsGAQUFBwMC
MAsGA1UdDwQEAwIHgDANBgkqhkiG9w0BAQsFAAOCAQEAd7KliHqnzwFO2s2Qf6Q8
H0GCqLuN9hawl6d9J69E/Ous5MmDNclgJB9Jn96Cn8MXXUe6+d3I9U6CZgnc0XPp
PqUNqUgQ2QMU8RzNjQ3331T3rUvfhykgElqXW2r7M9nvJrmW7GwtpoJ1VvsDnyZG
9KVV2CGAMWQ7Ipq6xuyEteHVeurOYfAMFgaJIcVcUloV2hzvViKoi2qqkARtbP1Z
81Rhk4v5mRQAQkYJikYTDxemwd3ZedAMUAPCUp+1Y5UPMpehVP4+ojt4u29IjH8t
ofs5L2BrUrw1LJyvvURAe5MnKtrAKkv8BnpFG00zlze2luAIMN3hMVsqfmuPsMZY
zA==
-----END CERTIFICATE-----
