Certificate:
    Data:
        Version: 3 (0x2)
        Serial Number:
            82:5a:e2:82:67:0c:03:91:b3:e4:d6:ac:07:03:9f:7e
        Signature Algorithm: sha256WithRSAEncryption
        Issuer: CN=team41-net
        Validity
            Not Before: Nov  3 20:39:58 2023 GMT
            Not After : Oct 18 20:39:58 2026 GMT
        Subject: CN=team41-client
        Subject Public Key Info:
            Public Key Algorithm: rsaEncryption
                Public-Key: (2048 bit)
                Modulus:
                    00:af:7b:64:83:ab:03:15:4d:1b:b4:4e:dd:46:37:
                    5f:d8:56:cd:4d:58:1b:0b:35:ac:3d:3c:13:80:18:
                    5f:8e:ba:d9:75:28:2d:99:05:34:9f:53:23:90:19:
                    e3:0f:1e:81:c8:3b:5a:18:f7:ea:bb:ea:e5:15:32:
                    7e:cd:c5:74:99:5a:12:8f:e2:94:63:2c:6b:af:0e:
                    fc:f7:42:2a:e4:44:cd:b5:a7:63:2d:40:72:19:8b:
                    f9:04:0a:17:bf:25:6d:ac:8b:d1:68:ea:52:e7:1c:
                    ee:17:cb:7a:11:4d:38:73:c6:1c:31:85:cd:84:1d:
                    ae:7e:60:2c:30:83:63:98:e8:a3:fc:8b:62:5f:a1:
                    6b:e1:e9:b8:03:f9:29:f7:86:4c:fb:59:6a:38:a1:
                    fb:bf:af:e3:aa:ed:24:7c:c2:39:65:aa:9f:fa:d4:
                    91:1a:92:a0:8d:a0:63:c2:af:32:89:ee:6b:cb:91:
                    ea:34:18:17:1e:55:2d:ec:2b:a5:3a:f6:d7:a8:e6:
                    3c:68:43:8e:2c:df:e0:fc:f7:52:f4:1b:e2:d1:9a:
                    0b:05:56:15:c6:93:95:25:ad:b9:57:2d:1f:62:e4:
                    be:d0:61:3b:81:8c:95:f6:d0:d0:b9:15:b1:df:fc:
                    66:50:d5:fa:94:29:29:c8:f3:b7:21:fd:a7:b7:bc:
                    c9:2d
                Exponent: 65537 (0x10001)
        X509v3 extensions:
            X509v3 Basic Constraints: 
                CA:FALSE
            X509v3 Subject Key Identifier: 
                7D:1F:76:55:5B:27:70:7E:3D:74:CA:0F:74:F9:FA:71:F0:A6:7C:E9
            X509v3 Authority Key Identifier: 
                keyid:10:BA:98:90:10:11:05:3E:5D:A4:17:2D:0B:C9:C2:CA:EE:EC:B2:27
                DirName:/CN=team41-net
                serial:77:D6:D5:70:96:B4:4E:01:B5:86:0D:29:29:73:C7:14:96:66:0F:C7
            X509v3 Extended Key Usage: 
                TLS Web Client Authentication
            X509v3 Key Usage: 
                Digital Signature
    Signature Algorithm: sha256WithRSAEncryption
    Signature Value:
        92:4c:60:b2:3a:90:4c:c1:59:5b:22:fd:bd:bb:18:16:0f:49:
        4d:ef:70:af:c8:a9:a5:fd:25:9c:1f:b5:16:2a:fc:04:a4:b8:
        eb:c5:90:4f:7c:c7:6b:a6:7f:8c:7b:cf:d1:67:2d:4f:6a:b4:
        48:97:cd:e1:9a:88:f5:49:cd:e7:9c:b0:4d:8c:b4:19:52:9d:
        bd:f1:d9:53:a2:7c:2b:ad:f9:4d:89:af:d9:37:bb:18:6f:7a:
        9c:32:a9:7f:42:ff:35:08:8e:bd:5f:e2:93:73:42:f4:49:1e:
        7d:b0:6d:5f:e6:b3:3d:13:9d:9e:14:93:18:20:62:fa:96:e3:
        85:8a:0c:7b:ec:7b:20:a0:19:8f:27:9f:fb:43:bd:3a:88:45:
        01:06:f1:21:3a:76:6a:a2:0e:62:9a:27:7c:9a:9a:1a:6b:7d:
        59:59:2c:b6:3c:26:11:b0:05:55:59:eb:e1:61:21:06:09:89:
        04:23:da:c7:da:9d:5c:e2:f4:f3:c9:5b:49:c5:0a:93:39:20:
        91:c6:03:eb:73:2d:f7:69:8f:17:27:01:35:40:27:fa:26:26:
        a4:66:4f:4e:5d:83:3b:ed:18:67:84:01:5a:bf:ac:41:64:cc:
        92:01:79:58:ae:1d:60:ee:c4:5f:60:f2:e4:e7:7b:76:a0:dc:
        ca:60:b5:63
-----BEGIN CERTIFICATE-----
MIIDWjCCAkKgAwIBAgIRAIJa4oJnDAORs+TWrAcDn34wDQYJKoZIhvcNAQELBQAw
FTETMBEGA1UEAwwKdGVhbTQxLW5ldDAeFw0yMzExMDMyMDM5NThaFw0yNjEwMTgy
MDM5NThaMBgxFjAUBgNVBAMMDXRlYW00MS1jbGllbnQwggEiMA0GCSqGSIb3DQEB
AQUAA4IBDwAwggEKAoIBAQCve2SDqwMVTRu0Tt1GN1/YVs1NWBsLNaw9PBOAGF+O
utl1KC2ZBTSfUyOQGeMPHoHIO1oY9+q76uUVMn7NxXSZWhKP4pRjLGuvDvz3Qirk
RM21p2MtQHIZi/kEChe/JW2si9Fo6lLnHO4Xy3oRTThzxhwxhc2EHa5+YCwwg2OY
6KP8i2JfoWvh6bgD+Sn3hkz7WWo4ofu/r+Oq7SR8wjllqp/61JEakqCNoGPCrzKJ
7mvLkeo0GBceVS3sK6U69teo5jxoQ44s3+D891L0G+LRmgsFVhXGk5UlrblXLR9i
5L7QYTuBjJX20NC5FbHf/GZQ1fqUKSnI87ch/ae3vMktAgMBAAGjgaEwgZ4wCQYD
VR0TBAIwADAdBgNVHQ4EFgQUfR92VVsncH49dMoPdPn6cfCmfOkwUAYDVR0jBEkw
R4AUELqYkBARBT5dpBctC8nCyu7ssiehGaQXMBUxEzARBgNVBAMMCnRlYW00MS1u
ZXSCFHfW1XCWtE4BtYYNKSlzxxSWZg/HMBMGA1UdJQQMMAoGCCsGAQUFBwMCMAsG
A1UdDwQEAwIHgDANBgkqhkiG9w0BAQsFAAOCAQEAkkxgsjqQTMFZWyL9vbsYFg9J
Te9wr8ippf0lnB+1Fir8BKS468WQT3zHa6Z/jHvP0WctT2q0SJfN4ZqI9UnN55yw
TYy0GVKdvfHZU6J8K635TYmv2Te7GG96nDKpf0L/NQiOvV/ik3NC9EkefbBtX+az
PROdnhSTGCBi+pbjhYoMe+x7IKAZjyef+0O9OohFAQbxITp2aqIOYponfJqaGmt9
WVkstjwmEbAFVVnr4WEhBgmJBCPax9qdXOL088lbScUKkzkgkcYD63Mt92mPFycB
NUAn+iYmpGZPTl2DO+0YZ4QBWr+sQWTMkgF5WK4dYO7EX2Dy5Od7dqDcymC1Yw==
-----END CERTIFICATE-----
