Certificate:
    Data:
        Version: 3 (0x2)
        Serial Number:
            0f:bd:10:a3:13:6f:b6:52:05:d7:91:0c:1e:ba:e0:fe
        Signature Algorithm: sha256WithRSAEncryption
        Issuer: CN=team277-net
        Validity
            Not Before: Nov  4 11:33:14 2023 GMT
            Not After : Oct 19 11:33:14 2026 GMT
        Subject: CN=team277-server
        Subject Public Key Info:
            Public Key Algorithm: rsaEncryption
                Public-Key: (2048 bit)
                Modulus:
                    00:cc:86:9a:bf:63:d0:45:fe:9c:2b:9d:bd:5e:fa:
                    c6:47:8a:f1:3e:0c:11:f1:02:78:c9:07:ca:9b:45:
                    77:6b:2a:85:00:a9:89:48:04:31:44:09:ae:c8:97:
                    fd:0c:9d:b6:15:b2:66:71:4f:7c:62:a5:2d:96:c7:
                    6a:6b:61:0e:e9:af:6b:d6:58:50:12:6c:94:46:69:
                    e6:71:e5:46:82:c1:8a:f4:37:60:fd:43:e9:d8:f5:
                    64:44:ef:70:87:06:a2:c3:c1:2e:31:c5:23:30:2e:
                    2e:b1:ca:7b:93:e6:bc:12:a9:dd:93:6e:ca:d3:a8:
                    ac:60:b9:20:a9:ac:4e:bc:8d:b7:54:b5:75:cc:e8:
                    6d:3d:dd:b1:b2:bb:3a:09:0a:d5:2f:41:b2:b2:15:
                    c3:d9:e2:e3:78:88:16:ff:04:a0:5e:a5:ed:ff:36:
                    5a:55:95:f8:ca:43:f3:b8:b8:fc:07:42:ec:c3:ec:
                    2f:d8:c9:f8:7e:9e:66:64:ca:4a:7a:05:d0:76:91:
                    78:2d:7c:1d:b5:90:3a:d5:8b:0c:83:70:59:0b:d5:
                    c4:9d:c2:2a:d8:2a:74:45:28:4a:9f:e3:bf:21:8b:
                    f5:c0:cd:2d:f8:ae:0d:24:0e:a8:e7:aa:88:71:f5:
                    a9:16:8b:e7:97:6c:ff:66:f1:85:47:2d:fc:69:3f:
                    03:f1
                Exponent: 65537 (0x10001)
        X509v3 extensions:
            X509v3 Basic Constraints: 
                CA:FALSE
            X509v3 Subject Key Identifier: 
                6D:8A:11:68:F9:CA:26:14:1A:EB:19:13:1D:BC:DC:83:55:B7:DE:FF
            X509v3 Authority Key Identifier: 
                keyid:44:C3:DB:5A:B3:AF:89:E5:0E:1F:55:B4:D6:F8:FF:86:F5:92:DC:9E
                DirName:/CN=team277-net
                serial:20:72:A9:22:19:B4:69:78:5E:11:30:70:43:3C:99:26:5B:15:3F:7B
            X509v3 Extended Key Usage: 
                TLS Web Server Authentication
            X509v3 Key Usage: 
                Digital Signature, Key Encipherment
            X509v3 Subject Alternative Name: 
                DNS:team277-server
    Signature Algorithm: sha256WithRSAEncryption
    Signature Value:
        9c:2d:16:6f:de:ea:f2:a3:c1:23:21:f1:7d:9c:68:15:88:6f:
        3d:c1:f9:8c:32:bb:c8:f7:12:f9:b3:55:7b:b6:a7:f8:e7:91:
        1c:cc:91:45:03:26:63:59:f6:39:81:4e:9f:23:3f:08:00:e5:
        57:6f:cf:3a:7e:8e:a0:3e:ab:f0:67:7f:e5:0b:d1:b2:db:0b:
        7b:8e:4e:6e:27:79:c8:d0:d5:77:7a:dd:67:b1:c0:22:a8:ae:
        1e:1e:eb:52:79:f8:65:03:38:b3:cc:4a:05:47:2e:30:24:f6:
        d3:b6:a4:fc:8e:ee:69:68:2c:ee:b4:69:a4:ed:92:00:91:bc:
        a5:8f:c9:96:42:41:3e:4e:50:ab:ac:f5:46:6e:a9:3b:86:ab:
        c1:72:07:af:4a:c5:23:f8:03:c5:c7:b6:d1:32:3c:03:46:d2:
        79:f0:75:95:70:b1:41:31:5f:d7:5a:46:80:a9:11:89:b2:8f:
        5d:8a:bf:d1:ec:75:2f:c0:29:a4:2c:72:51:02:b3:c3:6b:2f:
        9b:d2:09:98:6b:e2:fe:6d:64:d7:69:5d:55:c8:48:38:d5:4d:
        8c:6a:b6:6b:3a:60:e8:ee:18:a1:09:c2:eb:8e:64:2c:20:de:
        f3:3e:1a:45:45:34:4b:23:47:25:b9:d2:32:4a:a6:34:81:78:
        3c:a4:1b:34
-----BEGIN CERTIFICATE-----
MIIDdzCCAl+gAwIBAgIQD70QoxNvtlIF15EMHrrg/jANBgkqhkiG9w0BAQsFADAW
MRQwEgYDVQQDDAt0ZWFtMjc3LW5ldDAeFw0yMzExMDQxMTMzMTRaFw0yNjEwMTkx
MTMzMTRaMBkxFzAVBgNVBAMMDnRlYW0yNzctc2VydmVyMIIBIjANBgkqhkiG9w0B
AQEFAAOCAQ8AMIIBCgKCAQEAzIaav2PQRf6cK529XvrGR4rxPgwR8QJ4yQfKm0V3
ayqFAKmJSAQxRAmuyJf9DJ22FbJmcU98YqUtlsdqa2EO6a9r1lhQEmyURmnmceVG
gsGK9Ddg/UPp2PVkRO9whwaiw8EuMcUjMC4uscp7k+a8Eqndk27K06isYLkgqaxO
vI23VLV1zOhtPd2xsrs6CQrVL0GyshXD2eLjeIgW/wSgXqXt/zZaVZX4ykPzuLj8
B0Lsw+wv2Mn4fp5mZMpKegXQdpF4LXwdtZA61YsMg3BZC9XEncIq2Cp0RShKn+O/
IYv1wM0t+K4NJA6o56qIcfWpFovnl2z/ZvGFRy38aT8D8QIDAQABo4G9MIG6MAkG
A1UdEwQCMAAwHQYDVR0OBBYEFG2KEWj5yiYUGusZEx283INVt97/MFEGA1UdIwRK
MEiAFETD21qzr4nlDh9VtNb4/4b1ktyeoRqkGDAWMRQwEgYDVQQDDAt0ZWFtMjc3
LW5ldIIUIHKpIhm0aXheETBwQzyZJlsVP3swEwYDVR0lBAwwCgYIKwYBBQUHAwEw
CwYDVR0PBAQDAgWgMBkGA1UdEQQSMBCCDnRlYW0yNzctc2VydmVyMA0GCSqGSIb3
DQEBCwUAA4IBAQCcLRZv3uryo8EjIfF9nGgViG89wfmMMrvI9xL5s1V7tqf455Ec
zJFFAyZjWfY5gU6fIz8IAOVXb886fo6gPqvwZ3/lC9Gy2wt7jk5uJ3nI0NV3et1n
scAiqK4eHutSefhlAzizzEoFRy4wJPbTtqT8ju5paCzutGmk7ZIAkbylj8mWQkE+
TlCrrPVGbqk7hqvBcgevSsUj+APFx7bRMjwDRtJ58HWVcLFBMV/XWkaAqRGJso9d
ir/R7HUvwCmkLHJRArPDay+b0gmYa+L+bWTXaV1VyEg41U2MarZrOmDo7hihCcLr
jmQsIN7zPhpFRTRLI0cludIySqY0gXg8pBs0
-----END CERTIFICATE-----
