Certificate:
    Data:
        Version: 3 (0x2)
        Serial Number:
            6b:dd:5b:e5:95:6e:3f:75:37:a2:5d:bd:a0:1c:de:24
        Signature Algorithm: sha256WithRSAEncryption
        Issuer: CN=team277-net
        Validity
            Not Before: Nov  4 10:45:47 2023 GMT
            Not After : Oct 19 10:45:47 2026 GMT
        Subject: CN=team277-client
        Subject Public Key Info:
            Public Key Algorithm: rsaEncryption
                Public-Key: (2048 bit)
                Modulus:
                    00:aa:99:0a:6a:2f:aa:09:af:d2:12:ae:39:50:03:
                    10:d1:a0:15:9c:9c:03:3e:50:0a:11:2b:4a:55:0c:
                    77:f0:29:40:77:c5:14:da:ea:f6:73:28:c5:2b:5d:
                    ff:34:9c:c1:49:84:c2:80:ad:ff:83:4e:49:88:dd:
                    d7:3c:38:60:94:fe:bc:c3:91:f1:b0:59:8a:ef:7d:
                    53:04:99:bc:ce:11:13:a4:cb:1e:af:0f:1e:0a:25:
                    6c:d9:a7:55:22:1a:38:f9:c6:5f:34:f7:54:36:70:
                    35:64:aa:92:2a:20:68:80:f7:99:32:4f:57:af:4f:
                    33:cd:4e:e6:9e:ef:94:ed:e5:68:88:8f:6c:f0:66:
                    36:7f:34:ec:14:e8:45:f9:77:f5:d8:cc:49:2e:b5:
                    3e:a8:70:cb:92:96:c9:11:d4:26:39:6d:2e:b8:79:
                    ec:34:36:ff:f3:4a:07:cd:fb:17:9d:55:61:10:54:
                    e4:91:aa:ac:41:a8:83:e2:72:26:d8:e8:47:b8:9b:
                    b8:51:d6:c1:eb:cd:3f:09:fa:26:bd:5e:33:3d:55:
                    4f:04:3f:ff:c7:36:a8:c1:78:f2:0d:a4:a2:a6:20:
                    08:87:7a:39:63:7c:5c:4e:5d:06:10:9d:f7:40:63:
                    04:d2:6f:04:80:6e:04:a7:fa:22:21:15:7b:1a:c5:
                    6c:0f
                Exponent: 65537 (0x10001)
        X509v3 extensions:
            X509v3 Basic Constraints: 
                CA:FALSE
            X509v3 Subject Key Identifier: 
                8A:7D:04:4D:E2:D8:46:17:BE:64:94:27:56:EA:0B:9B:B0:1E:7C:49
            X509v3 Authority Key Identifier: 
                keyid:30:A6:EE:7E:8D:FE:76:89:1A:2F:E0:24:4D:9A:9E:A7:F4:69:AC:EE
                DirName:/CN=team277-net
                serial:35:0B:DD:5E:1F:93:AA:34:08:31:5A:47:62:EF:3E:D4:DB:69:98:97
            X509v3 Extended Key Usage: 
                TLS Web Client Authentication
            X509v3 Key Usage: 
                Digital Signature
    Signature Algorithm: sha256WithRSAEncryption
    Signature Value:
        70:67:e9:4b:c1:78:e4:ec:99:ff:cd:fc:f5:8d:f2:f6:b5:a9:
        40:df:ac:5d:b7:a2:c5:c7:a6:70:6c:b7:4b:4c:0a:5d:fb:d3:
        08:ea:51:04:08:0c:4b:06:15:7c:53:4b:e3:0e:52:6d:22:35:
        ad:a8:9f:92:b2:66:8e:42:4f:0f:e7:52:39:19:c3:42:37:20:
        37:67:f5:3c:04:99:ba:9f:47:cd:3b:ba:a3:fd:73:9e:8a:32:
        e0:46:f0:81:67:da:df:ed:62:28:a7:30:11:c2:05:9d:00:f0:
        5e:04:d5:4f:a0:06:45:50:c3:de:f4:08:aa:d0:c0:11:a4:17:
        cb:95:0c:12:25:e0:bc:67:69:8e:3e:ad:c4:fc:0f:00:01:f2:
        3e:08:96:67:a7:f8:e2:69:61:65:84:9e:f1:7d:be:bf:23:dd:
        ea:0d:39:16:48:25:50:67:57:e6:fa:2d:2b:7c:4e:bc:62:81:
        29:b2:0c:20:c3:b1:34:bb:42:09:b9:a6:a9:8c:3b:e4:c6:c6:
        8c:b7:eb:f0:fe:2a:8b:07:a1:9e:c5:96:f0:76:c4:47:00:83:
        91:6b:90:ef:1b:cc:f3:de:cb:31:a3:6a:92:c1:cf:ec:4a:d6:
        11:9b:5c:2f:f2:7a:5c:8a:3a:b5:e2:f3:2a:2e:18:bb:5a:67:
        22:34:fa:82
-----BEGIN CERTIFICATE-----
MIIDXDCCAkSgAwIBAgIQa91b5ZVuP3U3ol29oBzeJDANBgkqhkiG9w0BAQsFADAW
MRQwEgYDVQQDDAt0ZWFtMjc3LW5ldDAeFw0yMzExMDQxMDQ1NDdaFw0yNjEwMTkx
MDQ1NDdaMBkxFzAVBgNVBAMMDnRlYW0yNzctY2xpZW50MIIBIjANBgkqhkiG9w0B
AQEFAAOCAQ8AMIIBCgKCAQEAqpkKai+qCa/SEq45UAMQ0aAVnJwDPlAKEStKVQx3
8ClAd8UU2ur2cyjFK13/NJzBSYTCgK3/g05JiN3XPDhglP68w5HxsFmK731TBJm8
zhETpMserw8eCiVs2adVIho4+cZfNPdUNnA1ZKqSKiBogPeZMk9Xr08zzU7mnu+U
7eVoiI9s8GY2fzTsFOhF+Xf12MxJLrU+qHDLkpbJEdQmOW0uuHnsNDb/80oHzfsX
nVVhEFTkkaqsQaiD4nIm2OhHuJu4UdbB680/CfomvV4zPVVPBD//xzaowXjyDaSi
piAIh3o5Y3xcTl0GEJ33QGME0m8EgG4Ep/oiIRV7GsVsDwIDAQABo4GiMIGfMAkG
A1UdEwQCMAAwHQYDVR0OBBYEFIp9BE3i2EYXvmSUJ1bqC5uwHnxJMFEGA1UdIwRK
MEiAFDCm7n6N/naJGi/gJE2anqf0aazuoRqkGDAWMRQwEgYDVQQDDAt0ZWFtMjc3
LW5ldIIUNQvdXh+TqjQIMVpHYu8+1NtpmJcwEwYDVR0lBAwwCgYIKwYBBQUHAwIw
CwYDVR0PBAQDAgeAMA0GCSqGSIb3DQEBCwUAA4IBAQBwZ+lLwXjk7Jn/zfz1jfL2
talA36xdt6LFx6ZwbLdLTApd+9MI6lEECAxLBhV8U0vjDlJtIjWtqJ+SsmaOQk8P
51I5GcNCNyA3Z/U8BJm6n0fNO7qj/XOeijLgRvCBZ9rf7WIopzARwgWdAPBeBNVP
oAZFUMPe9Aiq0MARpBfLlQwSJeC8Z2mOPq3E/A8AAfI+CJZnp/jiaWFlhJ7xfb6/
I93qDTkWSCVQZ1fm+i0rfE68YoEpsgwgw7E0u0IJuaapjDvkxsaMt+vw/iqLB6Ge
xZbwdsRHAIORa5DvG8zz3ssxo2qSwc/sStYRm1wv8npcijq14vMqLhi7WmciNPqC
-----END CERTIFICATE-----
