Certificate:
    Data:
        Version: 3 (0x2)
        Serial Number:
            ea:00:b2:9a:e9:47:83:de:19:49:da:83:2f:0c:ed:8c
        Signature Algorithm: sha256WithRSAEncryption
        Issuer: CN=team277-net
        Validity
            Not Before: Nov  4 10:45:47 2023 GMT
            Not After : Oct 19 10:45:47 2026 GMT
        Subject: CN=team277-server
        Subject Public Key Info:
            Public Key Algorithm: rsaEncryption
                Public-Key: (2048 bit)
                Modulus:
                    00:aa:61:ba:7b:ce:2a:f5:aa:87:33:23:16:ec:1b:
                    f1:6d:22:96:7a:b7:ed:02:56:bc:de:cc:5f:82:20:
                    ab:75:19:8a:e8:43:ad:29:ec:b9:84:1a:e5:6b:97:
                    bc:57:66:56:bc:a7:0d:b4:fd:7f:78:06:16:e9:4f:
                    ea:fe:0d:b6:b2:12:be:b1:1c:97:6d:a4:8d:12:67:
                    47:8e:43:0b:9a:a7:29:4b:90:ec:3d:80:73:dc:c1:
                    e7:ab:c9:2f:69:11:e9:29:33:7f:8a:00:be:ff:60:
                    79:bd:65:82:28:95:3c:e4:4b:e6:2f:a0:e6:6e:8c:
                    e0:29:01:75:8f:fa:65:ab:f4:bf:9e:62:7e:ab:b6:
                    d3:cc:6b:d0:f8:21:1e:be:d8:d4:71:30:3b:80:93:
                    20:3c:10:89:e0:3a:03:86:5a:77:bd:21:2d:65:a4:
                    ff:c2:ad:77:08:08:dd:03:bd:71:26:8b:c4:56:27:
                    2c:97:f5:0f:7e:0f:27:e2:4a:bb:29:fd:b8:ea:e5:
                    08:0b:53:ab:7f:09:a9:db:46:f9:e6:43:11:50:23:
                    f7:88:ae:8b:5c:86:5f:d9:0b:5b:d9:4a:cf:a4:03:
                    a8:c0:32:4f:64:cb:8a:34:a4:78:a5:1e:b1:4c:a7:
                    a4:55:67:e7:86:e9:68:d7:89:68:ab:16:e8:d4:06:
                    ab:67
                Exponent: 65537 (0x10001)
        X509v3 extensions:
            X509v3 Basic Constraints: 
                CA:FALSE
            X509v3 Subject Key Identifier: 
                42:5F:FA:02:62:EA:87:15:12:D8:06:70:DB:ED:B9:B1:B5:93:E0:F2
            X509v3 Authority Key Identifier: 
                keyid:30:A6:EE:7E:8D:FE:76:89:1A:2F:E0:24:4D:9A:9E:A7:F4:69:AC:EE
                DirName:/CN=team277-net
                serial:35:0B:DD:5E:1F:93:AA:34:08:31:5A:47:62:EF:3E:D4:DB:69:98:97
            X509v3 Extended Key Usage: 
                TLS Web Server Authentication
            X509v3 Key Usage: 
                Digital Signature, Key Encipherment
            X509v3 Subject Alternative Name: 
                DNS:team277-server
    Signature Algorithm: sha256WithRSAEncryption
    Signature Value:
        4d:ba:b3:2a:e7:c4:a6:c6:03:18:96:ef:f3:15:f4:f1:5d:f7:
        76:a8:91:13:3d:38:40:bd:c9:95:7c:a6:02:ea:78:6b:0d:69:
        57:b7:cf:17:a7:6f:ab:79:17:ad:95:98:67:a0:d0:e6:42:6e:
        65:e5:fa:c7:13:7a:32:48:fc:47:cf:7d:e8:04:58:48:10:b7:
        e8:1d:fb:96:a9:3a:46:c7:76:82:43:40:b0:d1:68:70:38:04:
        09:11:13:29:c9:20:05:37:33:12:ed:8e:69:3f:32:9e:3e:b5:
        ad:ef:5c:8d:2d:41:b2:3a:51:25:0c:a5:ec:ba:8a:ce:7c:77:
        84:9a:42:1b:f9:4f:cc:f6:a7:e1:00:54:93:7b:d6:78:25:34:
        a8:58:b1:ae:e1:fb:95:8d:a1:b2:2f:02:53:47:b6:58:11:72:
        c8:7e:bd:eb:9e:e8:d1:d0:e7:1d:cf:ed:42:a6:df:5b:79:84:
        f6:04:56:20:f8:a3:2c:c8:f0:b9:d7:9f:0e:c7:b7:1e:ef:d0:
        74:75:81:45:a2:a0:12:fc:eb:bf:b6:d7:2b:3a:56:96:91:f4:
        3c:61:b1:18:e7:81:40:2e:eb:34:c9:e2:22:44:3e:53:1a:0f:
        b9:e3:01:63:0e:73:fd:c5:e9:99:d5:61:ce:88:50:f5:86:0c:
        bc:5a:0d:c0
-----BEGIN CERTIFICATE-----
MIIDeDCCAmCgAwIBAgIRAOoAsprpR4PeGUnagy8M7YwwDQYJKoZIhvcNAQELBQAw
FjEUMBIGA1UEAwwLdGVhbTI3Ny1uZXQwHhcNMjMxMTA0MTA0NTQ3WhcNMjYxMDE5
MTA0NTQ3WjAZMRcwFQYDVQQDDA50ZWFtMjc3LXNlcnZlcjCCASIwDQYJKoZIhvcN
AQEBBQADggEPADCCAQoCggEBAKphunvOKvWqhzMjFuwb8W0ilnq37QJWvN7MX4Ig
q3UZiuhDrSnsuYQa5WuXvFdmVrynDbT9f3gGFulP6v4NtrISvrEcl22kjRJnR45D
C5qnKUuQ7D2Ac9zB56vJL2kR6Skzf4oAvv9geb1lgiiVPORL5i+g5m6M4CkBdY/6
Zav0v55ifqu208xr0PghHr7Y1HEwO4CTIDwQieA6A4Zad70hLWWk/8KtdwgI3QO9
cSaLxFYnLJf1D34PJ+JKuyn9uOrlCAtTq38JqdtG+eZDEVAj94iui1yGX9kLW9lK
z6QDqMAyT2TLijSkeKUesUynpFVn54bpaNeJaKsW6NQGq2cCAwEAAaOBvTCBujAJ
BgNVHRMEAjAAMB0GA1UdDgQWBBRCX/oCYuqHFRLYBnDb7bmxtZPg8jBRBgNVHSME
SjBIgBQwpu5+jf52iRov4CRNmp6n9Gms7qEapBgwFjEUMBIGA1UEAwwLdGVhbTI3
Ny1uZXSCFDUL3V4fk6o0CDFaR2LvPtTbaZiXMBMGA1UdJQQMMAoGCCsGAQUFBwMB
MAsGA1UdDwQEAwIFoDAZBgNVHREEEjAQgg50ZWFtMjc3LXNlcnZlcjANBgkqhkiG
9w0BAQsFAAOCAQEATbqzKufEpsYDGJbv8xX08V33dqiREz04QL3JlXymAup4aw1p
V7fPF6dvq3kXrZWYZ6DQ5kJuZeX6xxN6Mkj8R8996ARYSBC36B37lqk6Rsd2gkNA
sNFocDgECRETKckgBTczEu2OaT8ynj61re9cjS1BsjpRJQyl7LqKznx3hJpCG/lP
zPan4QBUk3vWeCU0qFixruH7lY2hsi8CU0e2WBFyyH69657o0dDnHc/tQqbfW3mE
9gRWIPijLMjwudefDse3Hu/QdHWBRaKgEvzrv7bXKzpWlpH0PGGxGOeBQC7rNMni
IkQ+UxoPueMBYw5z/cXpmdVhzohQ9YYMvFoNwA==
-----END CERTIFICATE-----
