Certificate:
    Data:
        Version: 3 (0x2)
        Serial Number:
            84:99:d9:7e:91:28:7e:44:a7:97:12:1f:df:34:26:bb
        Signature Algorithm: sha256WithRSAEncryption
        Issuer: CN=team442-net
        Validity
            Not Before: Nov  4 11:37:24 2023 GMT
            Not After : Oct 19 11:37:24 2026 GMT
        Subject: CN=team442-server
        Subject Public Key Info:
            Public Key Algorithm: rsaEncryption
                Public-Key: (2048 bit)
                Modulus:
                    00:e2:19:50:ad:2a:fb:5e:bb:29:39:d6:10:c3:71:
                    ba:56:a9:b4:50:d6:d1:9c:e2:18:3d:aa:c1:56:6e:
                    28:7e:43:01:cf:85:38:54:91:68:0a:9e:39:ab:89:
                    d1:5f:8e:cb:aa:07:1b:b3:1f:4b:4b:1c:12:c6:3d:
                    62:f1:cf:cb:b3:29:f0:19:9a:24:b6:ce:64:65:84:
                    32:c5:53:e1:14:f5:ce:09:2c:45:3c:d1:3c:be:a7:
                    23:c1:ab:90:a2:a8:09:78:a9:dd:e8:1c:8f:9c:73:
                    62:f4:79:8c:e7:44:7b:62:32:33:8f:5f:8f:2c:76:
                    03:c8:6b:6a:de:4e:cd:3c:11:8d:5d:b3:78:77:5a:
                    69:60:c8:7e:4b:9b:4d:f2:65:a0:45:22:29:75:8a:
                    25:49:8f:d9:6f:74:f4:55:42:a0:09:73:ae:4a:33:
                    39:a9:42:96:14:20:25:24:c5:68:d1:43:3e:3d:f2:
                    df:8b:d7:4c:ce:05:a6:56:ba:82:05:b9:00:2a:03:
                    4e:19:01:a3:93:0d:5a:28:8b:5c:7c:ca:fd:13:d6:
                    b1:4c:6b:68:ec:69:c6:5b:21:20:80:11:25:a3:34:
                    85:ee:db:05:2a:0c:f4:99:56:83:07:7e:69:86:91:
                    b2:3a:79:02:c1:43:f2:c2:cb:22:d1:32:c2:dc:08:
                    7b:69
                Exponent: 65537 (0x10001)
        X509v3 extensions:
            X509v3 Basic Constraints: 
                CA:FALSE
            X509v3 Subject Key Identifier: 
                EE:7E:E0:C3:C8:19:2B:48:AC:4E:78:9B:05:82:92:62:7B:6F:AB:3A
            X509v3 Authority Key Identifier: 
                keyid:E8:8D:A8:E1:6D:07:19:8C:6C:58:34:BA:98:F4:95:71:94:DB:CA:9F
                DirName:/CN=team442-net
                serial:3D:37:D1:89:3F:02:D8:27:3D:4A:1D:EE:E6:C3:E6:1B:D4:85:DB:55
            X509v3 Extended Key Usage: 
                TLS Web Server Authentication
            X509v3 Key Usage: 
                Digital Signature, Key Encipherment
            X509v3 Subject Alternative Name: 
                DNS:team442-server
    Signature Algorithm: sha256WithRSAEncryption
    Signature Value:
        17:9f:fa:2b:7b:be:5e:1b:99:aa:72:23:27:de:e6:b1:f9:e1:
        69:22:be:67:95:03:3d:1b:4a:21:05:80:b7:ca:1b:f2:06:84:
        c3:c8:59:9e:82:8d:60:5b:ca:a1:db:1c:47:e3:a8:98:85:fe:
        2c:f9:fa:6f:ff:ac:b8:5e:b0:ca:30:83:05:3c:32:3a:44:42:
        a1:25:42:34:94:16:94:fa:b2:7b:9a:72:b3:7e:ec:51:16:02:
        56:a8:94:e5:d3:83:88:09:d7:cb:b0:92:b4:4d:8f:41:99:37:
        88:4f:87:01:99:22:a5:0c:a8:f5:55:c6:7a:e0:38:4d:e7:36:
        7e:c8:64:cd:aa:f1:21:b4:ab:3a:d7:d7:3b:aa:14:67:29:e9:
        ab:d0:b8:5b:0a:92:9f:e3:a4:5b:c9:69:a1:8f:12:1d:ea:c4:
        1e:1c:36:ae:70:0a:a2:a8:99:c0:81:00:b6:16:95:33:55:5a:
        ea:eb:ee:48:e1:93:b9:3d:44:d4:c4:23:b9:48:f7:0e:8b:51:
        dc:df:bc:72:0a:1e:62:9e:0d:0c:a3:5d:d7:11:5a:53:b0:55:
        e0:8f:1d:90:aa:81:1d:fa:c6:d8:4e:10:17:04:00:cf:73:11:
        6a:f1:b5:db:ea:23:7a:97:54:c9:04:05:eb:dd:6d:2d:24:55:
        91:ed:4d:d9
-----BEGIN CERTIFICATE-----
MIIDeDCCAmCgAwIBAgIRAISZ2X6RKH5Ep5cSH980JrswDQYJKoZIhvcNAQELBQAw
FjEUMBIGA1UEAwwLdGVhbTQ0Mi1uZXQwHhcNMjMxMTA0MTEzNzI0WhcNMjYxMDE5
MTEzNzI0WjAZMRcwFQYDVQQDDA50ZWFtNDQyLXNlcnZlcjCCASIwDQYJKoZIhvcN
AQEBBQADggEPADCCAQoCggEBAOIZUK0q+167KTnWEMNxulaptFDW0ZziGD2qwVZu
KH5DAc+FOFSRaAqeOauJ0V+Oy6oHG7MfS0scEsY9YvHPy7Mp8BmaJLbOZGWEMsVT
4RT1zgksRTzRPL6nI8GrkKKoCXip3egcj5xzYvR5jOdEe2IyM49fjyx2A8hrat5O
zTwRjV2zeHdaaWDIfkubTfJloEUiKXWKJUmP2W909FVCoAlzrkozOalClhQgJSTF
aNFDPj3y34vXTM4Fpla6ggW5ACoDThkBo5MNWiiLXHzK/RPWsUxraOxpxlshIIAR
JaM0he7bBSoM9JlWgwd+aYaRsjp5AsFD8sLLItEywtwIe2kCAwEAAaOBvTCBujAJ
BgNVHRMEAjAAMB0GA1UdDgQWBBTufuDDyBkrSKxOeJsFgpJie2+rOjBRBgNVHSME
SjBIgBTojajhbQcZjGxYNLqY9JVxlNvKn6EapBgwFjEUMBIGA1UEAwwLdGVhbTQ0
Mi1uZXSCFD030Yk/AtgnPUod7ubD5hvUhdtVMBMGA1UdJQQMMAoGCCsGAQUFBwMB
MAsGA1UdDwQEAwIFoDAZBgNVHREEEjAQgg50ZWFtNDQyLXNlcnZlcjANBgkqhkiG
9w0BAQsFAAOCAQEAF5/6K3u+XhuZqnIjJ97msfnhaSK+Z5UDPRtKIQWAt8ob8gaE
w8hZnoKNYFvKodscR+OomIX+LPn6b/+suF6wyjCDBTwyOkRCoSVCNJQWlPqye5py
s37sURYCVqiU5dODiAnXy7CStE2PQZk3iE+HAZkipQyo9VXGeuA4Tec2fshkzarx
IbSrOtfXO6oUZynpq9C4WwqSn+OkW8lpoY8SHerEHhw2rnAKoqiZwIEAthaVM1Va
6uvuSOGTuT1E1MQjuUj3DotR3N+8cgoeYp4NDKNd1xFaU7BV4I8dkKqBHfrG2E4Q
FwQAz3MRavG12+ojepdUyQQF691tLSRVke1N2Q==
-----END CERTIFICATE-----
