Certificate:
    Data:
        Version: 3 (0x2)
        Serial Number:
            a8:fb:70:21:6a:75:16:00:24:ec:7e:78:e0:64:aa:a5
        Signature Algorithm: sha256WithRSAEncryption
        Issuer: CN=team442-net
        Validity
            Not Before: Nov  3 20:47:16 2023 GMT
            Not After : Oct 18 20:47:16 2026 GMT
        Subject: CN=team442-server
        Subject Public Key Info:
            Public Key Algorithm: rsaEncryption
                Public-Key: (2048 bit)
                Modulus:
                    00:c1:9b:d1:21:f3:44:b5:2c:9c:e3:62:0a:aa:b3:
                    2b:26:8e:72:99:19:39:97:d7:66:f1:09:01:37:cc:
                    3f:47:b0:de:15:b5:37:ec:d8:a3:41:63:89:ba:a8:
                    76:61:6d:10:ba:02:d9:6e:46:28:35:80:70:0a:c1:
                    b6:5b:c8:0e:2f:2c:2f:6c:9c:c8:b8:17:dc:52:16:
                    5e:92:9b:96:71:d3:f9:56:a9:e7:7b:92:aa:2c:93:
                    ae:a6:eb:b7:94:92:df:9e:15:42:bb:f2:3f:d6:9c:
                    fc:a6:14:08:30:90:49:df:73:52:1d:93:68:34:81:
                    aa:e6:f7:d4:38:ad:15:e8:b7:d7:50:08:25:5f:16:
                    9e:c4:7e:60:2d:ba:fb:59:82:89:f6:c9:d1:52:b6:
                    65:3a:0b:cf:5e:1d:a1:72:77:86:d0:10:56:53:3d:
                    52:55:78:f9:35:7e:00:f8:c9:50:00:1e:aa:51:75:
                    2c:09:35:eb:bf:01:e6:4f:91:00:9a:ac:13:11:13:
                    e9:9b:7a:5c:b3:e2:5d:ae:bb:75:99:c9:e0:25:e2:
                    b4:30:a6:95:06:ac:46:16:17:60:b7:e4:1a:51:fa:
                    e2:16:45:94:b9:31:09:9a:e2:6b:87:51:17:20:14:
                    93:04:6d:64:be:78:2c:32:9a:50:b4:e7:c2:01:f8:
                    81:07
                Exponent: 65537 (0x10001)
        X509v3 extensions:
            X509v3 Basic Constraints: 
                CA:FALSE
            X509v3 Subject Key Identifier: 
                66:C9:BC:CD:2E:E8:AB:1F:FA:F2:38:6A:73:1B:DC:0D:24:0E:38:B4
            X509v3 Authority Key Identifier: 
                keyid:3E:D2:0C:12:48:21:1A:AB:B0:93:4D:74:D2:1A:CA:D7:8F:DE:A8:91
                DirName:/CN=team442-net
                serial:10:14:B1:6D:4B:B1:4B:A5:E3:87:80:9E:57:86:78:79:BC:23:84:94
            X509v3 Extended Key Usage: 
                TLS Web Server Authentication
            X509v3 Key Usage: 
                Digital Signature, Key Encipherment
            X509v3 Subject Alternative Name: 
                DNS:team442-server
    Signature Algorithm: sha256WithRSAEncryption
    Signature Value:
        59:f6:f7:69:ba:6c:f9:88:33:7b:e6:79:56:9d:67:a4:cc:11:
        8d:04:98:52:5f:0d:21:4c:0a:1a:d4:85:55:57:4e:ed:0c:a5:
        72:9f:03:bc:e1:72:e1:01:2e:6e:24:8e:f0:78:ae:89:6b:7c:
        d1:c5:be:c4:37:64:89:f3:d9:ce:97:40:ae:3f:b3:af:78:d0:
        a9:9a:17:bc:92:15:7a:d5:12:32:95:30:f0:b4:cc:d9:b1:a9:
        ed:a6:ec:71:ab:10:a0:88:03:8d:c0:93:28:0e:44:61:15:bf:
        0b:73:8e:61:b8:9f:50:16:d5:cb:d6:ec:88:c6:a1:c0:cd:23:
        20:1e:d1:6b:51:39:71:fa:37:b6:9d:5a:86:d1:f3:88:9b:38:
        be:bc:1c:98:ee:8d:12:e4:03:c2:7a:f2:66:fa:1c:63:fa:c9:
        49:a8:d7:f3:a8:77:ff:f2:1c:0d:84:d3:e3:6d:ce:83:7e:d5:
        56:8d:94:37:6d:01:fe:70:0e:39:37:48:31:70:9e:03:64:55:
        2b:e8:96:33:90:32:28:78:28:6c:a1:32:b0:0c:25:6f:b3:12:
        e2:d3:6d:94:8b:83:77:ba:61:74:23:e1:c5:04:78:6c:cd:44:
        e1:9c:17:3e:ac:a6:cd:76:b3:eb:6e:c5:41:58:dd:f4:7d:af:
        8b:0c:fc:ee
-----BEGIN CERTIFICATE-----
MIIDeDCCAmCgAwIBAgIRAKj7cCFqdRYAJOx+eOBkqqUwDQYJKoZIhvcNAQELBQAw
FjEUMBIGA1UEAwwLdGVhbTQ0Mi1uZXQwHhcNMjMxMTAzMjA0NzE2WhcNMjYxMDE4
MjA0NzE2WjAZMRcwFQYDVQQDDA50ZWFtNDQyLXNlcnZlcjCCASIwDQYJKoZIhvcN
AQEBBQADggEPADCCAQoCggEBAMGb0SHzRLUsnONiCqqzKyaOcpkZOZfXZvEJATfM
P0ew3hW1N+zYo0FjibqodmFtELoC2W5GKDWAcArBtlvIDi8sL2ycyLgX3FIWXpKb
lnHT+Vap53uSqiyTrqbrt5SS354VQrvyP9ac/KYUCDCQSd9zUh2TaDSBqub31Dit
Fei311AIJV8WnsR+YC26+1mCifbJ0VK2ZToLz14doXJ3htAQVlM9UlV4+TV+APjJ
UAAeqlF1LAk1678B5k+RAJqsExET6Zt6XLPiXa67dZnJ4CXitDCmlQasRhYXYLfk
GlH64hZFlLkxCZria4dRFyAUkwRtZL54LDKaULTnwgH4gQcCAwEAAaOBvTCBujAJ
BgNVHRMEAjAAMB0GA1UdDgQWBBRmybzNLuirH/ryOGpzG9wNJA44tDBRBgNVHSME
SjBIgBQ+0gwSSCEaq7CTTXTSGsrXj96okaEapBgwFjEUMBIGA1UEAwwLdGVhbTQ0
Mi1uZXSCFBAUsW1LsUul44eAnleGeHm8I4SUMBMGA1UdJQQMMAoGCCsGAQUFBwMB
MAsGA1UdDwQEAwIFoDAZBgNVHREEEjAQgg50ZWFtNDQyLXNlcnZlcjANBgkqhkiG
9w0BAQsFAAOCAQEAWfb3abps+Ygze+Z5Vp1npMwRjQSYUl8NIUwKGtSFVVdO7Qyl
cp8DvOFy4QEubiSO8HiuiWt80cW+xDdkifPZzpdArj+zr3jQqZoXvJIVetUSMpUw
8LTM2bGp7abscasQoIgDjcCTKA5EYRW/C3OOYbifUBbVy9bsiMahwM0jIB7Ra1E5
cfo3tp1ahtHziJs4vrwcmO6NEuQDwnryZvocY/rJSajX86h3//IcDYTT423Og37V
Vo2UN20B/nAOOTdIMXCeA2RVK+iWM5AyKHgobKEysAwlb7MS4tNtlIuDd7phdCPh
xQR4bM1E4ZwXPqymzXaz627FQVjd9H2viwz87g==
-----END CERTIFICATE-----
