Certificate:
    Data:
        Version: 3 (0x2)
        Serial Number:
            cb:da:db:b2:2b:f6:5f:ff:d9:36:47:7f:51:8d:98:dd
        Signature Algorithm: sha256WithRSAEncryption
        Issuer: CN=team442-net
        Validity
            Not Before: Nov  4 10:48:33 2023 GMT
            Not After : Oct 19 10:48:33 2026 GMT
        Subject: CN=team442-server
        Subject Public Key Info:
            Public Key Algorithm: rsaEncryption
                Public-Key: (2048 bit)
                Modulus:
                    00:b0:3a:92:17:2a:bd:b9:2e:f7:eb:7b:db:55:41:
                    50:3e:8f:f9:e3:3b:66:ea:fe:cd:80:0b:92:11:f7:
                    6f:8c:4c:89:9e:5e:52:4f:49:f2:f8:9f:8a:aa:72:
                    95:9e:4d:c1:09:64:79:21:f8:e3:32:1c:37:15:20:
                    e6:1b:97:1c:56:be:8e:6a:85:b7:0a:1f:68:06:3f:
                    ce:38:76:82:1d:66:f5:58:fe:7f:1d:92:11:b4:7f:
                    04:ec:e9:ac:13:2f:5f:cb:55:ae:46:be:b2:5d:62:
                    1d:ee:95:3f:27:e4:35:4f:54:bb:8f:46:09:e5:65:
                    a8:96:07:d1:61:2b:4d:e6:7d:9d:95:15:0c:5a:1d:
                    c5:7c:7e:de:c4:ec:c7:52:b4:14:1c:ac:ec:4a:f9:
                    5f:ad:24:31:84:fe:48:9d:20:80:c9:d3:1a:52:5d:
                    9c:24:25:dc:5c:b0:e2:d8:a9:45:c8:69:71:87:1b:
                    a1:1f:7d:38:01:51:e8:77:d1:ce:57:e2:32:51:ef:
                    4a:6d:8a:63:7c:c0:66:e7:9f:eb:e7:2e:f2:f7:40:
                    d7:e5:9a:1a:b6:f4:15:6d:48:ef:59:03:03:e8:12:
                    d0:1f:50:fd:d8:d2:e1:df:06:12:aa:e6:10:dc:65:
                    6f:f6:6e:8a:46:9f:bc:ff:11:c0:91:bb:bb:9b:d4:
                    c9:95
                Exponent: 65537 (0x10001)
        X509v3 extensions:
            X509v3 Basic Constraints: 
                CA:FALSE
            X509v3 Subject Key Identifier: 
                4A:70:E0:9E:CA:BE:7D:B0:A9:47:41:6D:11:2F:77:74:A9:C8:CB:4F
            X509v3 Authority Key Identifier: 
                keyid:54:EC:66:A3:09:45:1F:CF:6A:D5:E2:23:60:73:56:B8:DF:6A:B5:21
                DirName:/CN=team442-net
                serial:49:91:5B:BD:A0:5D:AD:73:47:CD:2E:DA:D6:92:0E:46:60:D0:E4:2D
            X509v3 Extended Key Usage: 
                TLS Web Server Authentication
            X509v3 Key Usage: 
                Digital Signature, Key Encipherment
            X509v3 Subject Alternative Name: 
                DNS:team442-server
    Signature Algorithm: sha256WithRSAEncryption
    Signature Value:
        5a:80:0a:45:a0:5a:69:f3:07:5e:98:e3:4d:46:35:04:f0:94:
        93:0f:9f:d2:46:a1:68:4a:dc:b6:46:fb:4e:9a:cb:2c:71:d5:
        c4:0e:e5:71:09:d3:0f:dc:87:e6:42:1e:93:fa:ff:e1:ae:a2:
        f4:b9:47:fa:ff:47:ea:80:22:a2:42:47:f0:07:f5:bd:8c:1c:
        ad:4a:9f:14:1d:ee:34:b7:90:79:dc:8c:c8:fb:ff:87:4a:b5:
        86:f4:a3:ea:09:f9:28:4a:2e:0b:ca:9b:fe:bb:15:cb:62:19:
        0d:ff:a9:5c:a9:79:77:1c:d3:33:a6:f1:c3:8d:50:2d:51:04:
        cf:4f:95:ff:b8:3f:4b:94:65:a6:6a:36:4e:3b:24:a4:7f:c0:
        7d:6b:43:d7:4c:82:2e:f1:5a:a3:07:cc:92:1e:2c:f8:34:25:
        8f:d5:e1:c0:d5:99:71:53:fa:90:99:74:cf:99:4e:e2:b7:4f:
        a4:3d:ee:7b:13:79:bf:13:10:79:f6:8a:b5:1d:68:21:f7:3e:
        23:47:1d:e4:1d:43:25:66:85:8e:18:25:ee:17:6e:f7:34:a0:
        1c:d1:52:ad:cf:07:2c:ea:05:18:c6:fc:a7:1a:dc:6b:2a:6f:
        c6:99:b7:e3:f3:dc:3f:a8:10:09:3a:2b:7f:81:bc:de:ce:1c:
        79:8a:af:22
-----BEGIN CERTIFICATE-----
MIIDeDCCAmCgAwIBAgIRAMva27Ir9l//2TZHf1GNmN0wDQYJKoZIhvcNAQELBQAw
FjEUMBIGA1UEAwwLdGVhbTQ0Mi1uZXQwHhcNMjMxMTA0MTA0ODMzWhcNMjYxMDE5
MTA0ODMzWjAZMRcwFQYDVQQDDA50ZWFtNDQyLXNlcnZlcjCCASIwDQYJKoZIhvcN
AQEBBQADggEPADCCAQoCggEBALA6khcqvbku9+t721VBUD6P+eM7Zur+zYALkhH3
b4xMiZ5eUk9J8vifiqpylZ5NwQlkeSH44zIcNxUg5huXHFa+jmqFtwofaAY/zjh2
gh1m9Vj+fx2SEbR/BOzprBMvX8tVrka+sl1iHe6VPyfkNU9Uu49GCeVlqJYH0WEr
TeZ9nZUVDFodxXx+3sTsx1K0FBys7Er5X60kMYT+SJ0ggMnTGlJdnCQl3Fyw4tip
RchpcYcboR99OAFR6HfRzlfiMlHvSm2KY3zAZuef6+cu8vdA1+WaGrb0FW1I71kD
A+gS0B9Q/djS4d8GEqrmENxlb/ZuikafvP8RwJG7u5vUyZUCAwEAAaOBvTCBujAJ
BgNVHRMEAjAAMB0GA1UdDgQWBBRKcOCeyr59sKlHQW0RL3d0qcjLTzBRBgNVHSME
SjBIgBRU7GajCUUfz2rV4iNgc1a432q1IaEapBgwFjEUMBIGA1UEAwwLdGVhbTQ0
Mi1uZXSCFEmRW72gXa1zR80u2taSDkZg0OQtMBMGA1UdJQQMMAoGCCsGAQUFBwMB
MAsGA1UdDwQEAwIFoDAZBgNVHREEEjAQgg50ZWFtNDQyLXNlcnZlcjANBgkqhkiG
9w0BAQsFAAOCAQEAWoAKRaBaafMHXpjjTUY1BPCUkw+f0kahaErctkb7TprLLHHV
xA7lcQnTD9yH5kIek/r/4a6i9LlH+v9H6oAiokJH8Af1vYwcrUqfFB3uNLeQedyM
yPv/h0q1hvSj6gn5KEouC8qb/rsVy2IZDf+pXKl5dxzTM6bxw41QLVEEz0+V/7g/
S5Rlpmo2TjskpH/AfWtD10yCLvFaowfMkh4s+DQlj9XhwNWZcVP6kJl0z5lO4rdP
pD3uexN5vxMQefaKtR1oIfc+I0cd5B1DJWaFjhgl7hdu9zSgHNFSrc8HLOoFGMb8
pxrcaypvxpm34/PcP6gQCTorf4G83s4ceYqvIg==
-----END CERTIFICATE-----
