Certificate:
    Data:
        Version: 3 (0x2)
        Serial Number:
            d2:d4:fc:32:7f:b3:14:2e:6d:c5:8e:92:a8:f0:e1:55
        Signature Algorithm: sha256WithRSAEncryption
        Issuer: CN=team442-net
        Validity
            Not Before: Nov  3 20:47:16 2023 GMT
            Not After : Oct 18 20:47:16 2026 GMT
        Subject: CN=team442-client
        Subject Public Key Info:
            Public Key Algorithm: rsaEncryption
                Public-Key: (2048 bit)
                Modulus:
                    00:d0:b0:17:cb:cc:22:7f:3d:b0:de:b5:c7:a9:f0:
                    c0:42:79:84:12:ec:88:f6:bf:3c:9f:1b:69:58:fb:
                    6e:d1:82:82:19:66:f4:8f:62:35:16:9f:83:31:70:
                    fe:c6:d4:68:14:bb:e2:06:db:1c:e0:e4:98:46:34:
                    b2:72:8e:19:3c:94:d8:16:44:0f:15:11:4b:78:5e:
                    6f:da:48:aa:53:6a:54:a9:4d:de:8d:8d:7d:08:d9:
                    4e:9c:d6:9b:ee:ed:6a:81:f2:e8:7b:07:9b:41:43:
                    68:40:49:22:d7:b6:a9:cb:32:6f:1a:08:dd:fd:5d:
                    7f:ce:30:11:c2:16:63:d8:57:63:97:96:99:cc:77:
                    c6:4a:92:30:90:8e:27:82:b4:0c:e4:77:60:9d:72:
                    37:51:57:f6:2a:09:c4:62:55:a5:60:ce:7d:d8:16:
                    c8:bd:37:1d:13:77:be:d9:21:f6:5e:88:d2:74:6c:
                    67:f2:f3:6b:d7:9a:d0:91:06:5c:b1:d4:90:be:ef:
                    aa:a7:28:54:bc:a1:0b:61:3c:b4:b5:e6:c7:0a:54:
                    c1:b4:52:3b:87:e0:d9:d7:f9:68:a7:2e:d6:1e:b9:
                    d7:85:af:2d:e6:78:44:41:08:08:51:56:42:d4:c7:
                    aa:f1:d5:2c:02:ca:cb:6c:33:19:fc:db:af:c9:8d:
                    b4:c7
                Exponent: 65537 (0x10001)
        X509v3 extensions:
            X509v3 Basic Constraints: 
                CA:FALSE
            X509v3 Subject Key Identifier: 
                68:83:A9:58:31:AD:4A:39:85:CC:85:67:45:95:02:79:AC:A2:AF:8D
            X509v3 Authority Key Identifier: 
                keyid:3E:D2:0C:12:48:21:1A:AB:B0:93:4D:74:D2:1A:CA:D7:8F:DE:A8:91
                DirName:/CN=team442-net
                serial:10:14:B1:6D:4B:B1:4B:A5:E3:87:80:9E:57:86:78:79:BC:23:84:94
            X509v3 Extended Key Usage: 
                TLS Web Client Authentication
            X509v3 Key Usage: 
                Digital Signature
    Signature Algorithm: sha256WithRSAEncryption
    Signature Value:
        4f:eb:23:dc:fd:b8:2f:61:c6:84:68:c0:08:47:a7:a7:c1:8d:
        92:aa:ab:9a:f1:4b:cc:f5:58:1e:e8:1c:b0:40:f1:87:8b:9f:
        de:68:8f:b4:56:b7:e5:3d:95:6f:52:b6:71:c7:85:87:88:5c:
        4e:94:24:7a:aa:2a:dc:3f:ba:84:e1:dd:d0:fc:42:08:26:b2:
        01:1d:da:ee:ad:da:0a:68:23:72:bf:9e:ad:22:aa:4e:15:57:
        0d:e0:11:bf:66:9b:87:bd:fd:64:2d:26:71:96:f4:e7:d5:7d:
        b3:3b:bf:cb:87:14:6c:20:1c:32:3f:3b:d9:7e:ee:78:66:9e:
        54:75:15:18:84:4a:2e:ec:87:96:e4:f6:79:8f:41:0a:62:63:
        4f:da:da:09:92:c2:47:26:c0:c9:e6:20:e5:29:10:2d:3a:dd:
        cc:17:af:b7:d7:bf:b0:5b:dd:bb:f2:12:b4:bf:2d:61:04:f5:
        c3:49:7d:6c:57:e9:40:d6:90:3f:f9:a5:74:e2:8e:6c:07:bb:
        38:9f:c0:03:4b:ad:1d:17:d7:5a:2c:5d:92:81:76:07:ee:59:
        9d:00:ac:81:d1:0f:e0:6f:a4:b4:6f:58:55:2a:f2:a7:9b:6f:
        08:a4:7b:a7:de:8a:74:ce:e3:26:e1:5b:e4:f3:9b:e5:3d:9d:
        c5:7f:ee:01
-----BEGIN CERTIFICATE-----
MIIDXTCCAkWgAwIBAgIRANLU/DJ/sxQubcWOkqjw4VUwDQYJKoZIhvcNAQELBQAw
FjEUMBIGA1UEAwwLdGVhbTQ0Mi1uZXQwHhcNMjMxMTAzMjA0NzE2WhcNMjYxMDE4
MjA0NzE2WjAZMRcwFQYDVQQDDA50ZWFtNDQyLWNsaWVudDCCASIwDQYJKoZIhvcN
AQEBBQADggEPADCCAQoCggEBANCwF8vMIn89sN61x6nwwEJ5hBLsiPa/PJ8baVj7
btGCghlm9I9iNRafgzFw/sbUaBS74gbbHODkmEY0snKOGTyU2BZEDxURS3heb9pI
qlNqVKlN3o2NfQjZTpzWm+7taoHy6HsHm0FDaEBJIte2qcsybxoI3f1df84wEcIW
Y9hXY5eWmcx3xkqSMJCOJ4K0DOR3YJ1yN1FX9ioJxGJVpWDOfdgWyL03HRN3vtkh
9l6I0nRsZ/Lza9ea0JEGXLHUkL7vqqcoVLyhC2E8tLXmxwpUwbRSO4fg2df5aKcu
1h6514WvLeZ4REEICFFWQtTHqvHVLALKy2wzGfzbr8mNtMcCAwEAAaOBojCBnzAJ
BgNVHRMEAjAAMB0GA1UdDgQWBBRog6lYMa1KOYXMhWdFlQJ5rKKvjTBRBgNVHSME
SjBIgBQ+0gwSSCEaq7CTTXTSGsrXj96okaEapBgwFjEUMBIGA1UEAwwLdGVhbTQ0
Mi1uZXSCFBAUsW1LsUul44eAnleGeHm8I4SUMBMGA1UdJQQMMAoGCCsGAQUFBwMC
MAsGA1UdDwQEAwIHgDANBgkqhkiG9w0BAQsFAAOCAQEAT+sj3P24L2HGhGjACEen
p8GNkqqrmvFLzPVYHugcsEDxh4uf3miPtFa35T2Vb1K2cceFh4hcTpQkeqoq3D+6
hOHd0PxCCCayAR3a7q3aCmgjcr+erSKqThVXDeARv2abh739ZC0mcZb059V9szu/
y4cUbCAcMj872X7ueGaeVHUVGIRKLuyHluT2eY9BCmJjT9raCZLCRybAyeYg5SkQ
LTrdzBevt9e/sFvdu/IStL8tYQT1w0l9bFfpQNaQP/mldOKObAe7OJ/AA0utHRfX
WixdkoF2B+5ZnQCsgdEP4G+ktG9YVSryp5tvCKR7p96KdM7jJuFb5POb5T2dxX/u
AQ==
-----END CERTIFICATE-----
