Certificate:
    Data:
        Version: 3 (0x2)
        Serial Number:
            c0:24:33:4f:43:60:ee:b7:4b:21:b6:89:c5:f6:74:62
        Signature Algorithm: sha256WithRSAEncryption
        Issuer: CN=team46-net
        Validity
            Not Before: Nov  4 10:41:05 2023 GMT
            Not After : Oct 19 10:41:05 2026 GMT
        Subject: CN=team46-server
        Subject Public Key Info:
            Public Key Algorithm: rsaEncryption
                Public-Key: (2048 bit)
                Modulus:
                    00:bf:56:9c:70:3d:fe:3f:6e:77:d4:7b:82:37:45:
                    35:27:65:b0:38:14:10:64:a7:cf:da:66:ea:98:53:
                    f4:f9:e9:66:bc:8a:f4:1c:20:ec:0b:61:2a:14:3f:
                    ab:d5:3c:ed:0c:ae:f4:af:1b:90:75:98:2d:47:e0:
                    3a:6b:0a:00:f5:c7:21:59:9b:a4:6b:6d:af:56:76:
                    4d:f1:11:39:c7:2b:52:ea:ea:f6:e4:40:81:9c:dc:
                    ec:4e:a6:c2:9e:69:03:39:97:60:e7:08:26:2e:45:
                    51:48:27:2f:d3:87:15:0c:84:3a:a8:08:dc:e6:99:
                    aa:f7:70:bf:75:72:7b:21:9b:c5:10:e3:55:82:01:
                    2b:91:a5:6c:ab:9c:6e:50:00:a4:4e:3c:e7:97:ad:
                    29:b3:cf:f9:88:d9:c3:1c:06:2a:d3:a9:2c:0e:5b:
                    95:ea:6b:ba:26:7c:a5:28:f3:08:47:cf:94:81:f8:
                    ef:a3:d9:65:da:aa:f6:92:21:23:43:cf:07:0b:41:
                    57:89:37:8b:e5:9a:7b:61:f0:af:0d:aa:73:b3:7f:
                    4a:f6:c5:2c:94:96:c6:c7:5a:fb:6a:fd:43:eb:e8:
                    8e:2a:ad:fa:dd:d8:5b:fa:41:99:74:49:36:15:03:
                    98:ac:03:5a:c5:50:a7:e0:b1:f8:f8:76:40:37:ab:
                    97:f7
                Exponent: 65537 (0x10001)
        X509v3 extensions:
            X509v3 Basic Constraints: 
                CA:FALSE
            X509v3 Subject Key Identifier: 
                BA:1E:8A:99:04:E7:21:88:B4:16:84:B6:EA:EB:F0:50:1F:9C:1D:B6
            X509v3 Authority Key Identifier: 
                keyid:34:BA:DE:BC:45:2C:0D:AF:8C:C7:70:1B:30:98:AB:51:B2:85:3E:22
                DirName:/CN=team46-net
                serial:06:C5:26:30:30:06:1A:D2:81:11:9B:5D:F6:A4:79:5D:0B:05:33:DE
            X509v3 Extended Key Usage: 
                TLS Web Server Authentication
            X509v3 Key Usage: 
                Digital Signature, Key Encipherment
            X509v3 Subject Alternative Name: 
                DNS:team46-server
    Signature Algorithm: sha256WithRSAEncryption
    Signature Value:
        27:40:4f:f3:bd:51:8f:d5:1c:06:5e:e1:a8:70:51:55:c5:8d:
        30:72:d5:34:81:19:f7:4a:3e:27:35:7c:96:1f:90:04:66:f8:
        ef:e3:b0:24:dd:79:02:f8:e7:e4:59:08:f1:66:64:41:da:38:
        1c:37:30:70:c3:a1:b5:b3:df:04:16:f4:45:51:b8:f1:e4:cf:
        42:4a:10:99:bc:e8:41:b3:45:22:5d:c4:62:1b:cc:62:e7:1f:
        63:dc:48:7f:54:d7:4b:d6:8f:33:c1:a3:51:1d:9c:8e:8d:ed:
        20:f9:a1:39:0f:12:ab:5f:a0:2a:5d:02:01:15:a4:1f:87:b2:
        e8:bf:e1:91:b1:37:4c:3c:09:89:fd:6e:6c:a4:57:c4:b0:57:
        c9:d3:ba:db:76:b3:72:b9:a2:01:a5:83:3f:51:55:2c:2f:4f:
        21:4c:c4:75:5e:1b:ec:5f:8c:d6:2a:c5:d6:78:5b:99:21:d3:
        48:00:18:3e:ba:a9:25:50:25:f7:e9:d3:14:9f:78:00:d8:d5:
        d7:7b:62:49:91:0c:2c:36:d1:cc:c4:89:7d:fd:ab:ed:0f:eb:
        4b:b0:25:3e:84:f5:51:17:d2:5c:c7:ad:ad:16:34:72:01:ea:
        71:ab:2c:06:56:86:54:83:ef:20:ed:e1:e0:24:aa:5c:97:b1:
        14:80:ed:44
-----BEGIN CERTIFICATE-----
MIIDdDCCAlygAwIBAgIRAMAkM09DYO63SyG2icX2dGIwDQYJKoZIhvcNAQELBQAw
FTETMBEGA1UEAwwKdGVhbTQ2LW5ldDAeFw0yMzExMDQxMDQxMDVaFw0yNjEwMTkx
MDQxMDVaMBgxFjAUBgNVBAMMDXRlYW00Ni1zZXJ2ZXIwggEiMA0GCSqGSIb3DQEB
AQUAA4IBDwAwggEKAoIBAQC/VpxwPf4/bnfUe4I3RTUnZbA4FBBkp8/aZuqYU/T5
6Wa8ivQcIOwLYSoUP6vVPO0MrvSvG5B1mC1H4DprCgD1xyFZm6Rrba9Wdk3xETnH
K1Lq6vbkQIGc3OxOpsKeaQM5l2DnCCYuRVFIJy/ThxUMhDqoCNzmmar3cL91cnsh
m8UQ41WCASuRpWyrnG5QAKROPOeXrSmzz/mI2cMcBirTqSwOW5Xqa7omfKUo8whH
z5SB+O+j2WXaqvaSISNDzwcLQVeJN4vlmnth8K8NqnOzf0r2xSyUlsbHWvtq/UPr
6I4qrfrd2Fv6QZl0STYVA5isA1rFUKfgsfj4dkA3q5f3AgMBAAGjgbswgbgwCQYD
VR0TBAIwADAdBgNVHQ4EFgQUuh6KmQTnIYi0FoS26uvwUB+cHbYwUAYDVR0jBEkw
R4AUNLrevEUsDa+Mx3AbMJirUbKFPiKhGaQXMBUxEzARBgNVBAMMCnRlYW00Ni1u
ZXSCFAbFJjAwBhrSgRGbXfakeV0LBTPeMBMGA1UdJQQMMAoGCCsGAQUFBwMBMAsG
A1UdDwQEAwIFoDAYBgNVHREEETAPgg10ZWFtNDYtc2VydmVyMA0GCSqGSIb3DQEB
CwUAA4IBAQAnQE/zvVGP1RwGXuGocFFVxY0wctU0gRn3Sj4nNXyWH5AEZvjv47Ak
3XkC+OfkWQjxZmRB2jgcNzBww6G1s98EFvRFUbjx5M9CShCZvOhBs0UiXcRiG8xi
5x9j3Eh/VNdL1o8zwaNRHZyOje0g+aE5DxKrX6AqXQIBFaQfh7Lov+GRsTdMPAmJ
/W5spFfEsFfJ07rbdrNyuaIBpYM/UVUsL08hTMR1XhvsX4zWKsXWeFuZIdNIABg+
uqklUCX36dMUn3gA2NXXe2JJkQwsNtHMxIl9/avtD+tLsCU+hPVRF9Jcx62tFjRy
AepxqywGVoZUg+8g7eHgJKpcl7EUgO1E
-----END CERTIFICATE-----
