Certificate:
    Data:
        Version: 3 (0x2)
        Serial Number:
            c3:c3:fb:70:e0:13:6f:db:6d:9c:84:8f:0f:24:91:48
        Signature Algorithm: sha256WithRSAEncryption
        Issuer: CN=team46-net
        Validity
            Not Before: Nov  4 11:28:16 2023 GMT
            Not After : Oct 19 11:28:16 2026 GMT
        Subject: CN=team46-client
        Subject Public Key Info:
            Public Key Algorithm: rsaEncryption
                Public-Key: (2048 bit)
                Modulus:
                    00:a3:de:03:57:fd:88:06:3b:04:52:d8:99:68:70:
                    10:e8:13:fd:dc:5f:70:b2:29:58:32:2f:d7:53:3b:
                    11:9b:c9:73:dd:9f:1a:4e:af:5c:3b:32:69:c3:e4:
                    9a:16:0a:9b:32:58:5a:e0:07:11:34:ed:15:c0:af:
                    cf:e6:25:a7:ac:b1:47:ee:1f:8d:26:eb:8f:ae:ac:
                    07:31:c6:9d:6a:e4:0c:75:df:78:8a:2a:30:e6:14:
                    5f:fe:46:b8:43:e0:8c:c3:73:c3:5f:01:67:5a:38:
                    ac:96:b2:7a:e8:6a:f5:dc:a9:2f:2c:92:ca:91:e1:
                    85:67:0f:e2:0e:fe:7e:c8:c8:80:a4:d5:04:01:1e:
                    98:ff:f5:9b:10:50:ce:dc:5d:71:0c:dd:7d:ce:53:
                    bd:78:97:8b:1c:f1:0b:35:0d:0c:13:4d:6c:43:4a:
                    c7:16:a8:5f:f4:04:b9:e4:1a:c8:52:59:c8:3d:4a:
                    8d:7e:26:bc:ba:c9:84:c1:7f:99:a5:f3:a7:d6:90:
                    e3:5e:e5:00:06:f3:25:d6:62:7b:a2:0f:84:82:1f:
                    e3:91:63:ff:b9:f9:a6:d3:a4:31:f8:b0:31:74:dc:
                    4b:a1:38:8c:82:2c:bf:85:0d:8b:ff:0d:c1:57:d0:
                    a4:f7:5b:f6:6c:b3:5a:cc:9c:ba:d4:c2:53:ae:fe:
                    24:f3
                Exponent: 65537 (0x10001)
        X509v3 extensions:
            X509v3 Basic Constraints: 
                CA:FALSE
            X509v3 Subject Key Identifier: 
                89:1B:1A:82:CA:B6:6A:E7:85:54:0E:71:18:44:B2:AE:5E:B0:7E:72
            X509v3 Authority Key Identifier: 
                keyid:6C:C6:BE:38:F7:A9:76:46:A0:E6:2B:41:03:F7:98:23:D1:8F:73:BE
                DirName:/CN=team46-net
                serial:7A:0B:26:BF:CA:59:5B:B0:0F:CA:55:38:FB:6A:98:2E:14:28:F9:0C
            X509v3 Extended Key Usage: 
                TLS Web Client Authentication
            X509v3 Key Usage: 
                Digital Signature
    Signature Algorithm: sha256WithRSAEncryption
    Signature Value:
        28:a3:47:67:7f:38:86:e9:98:b6:01:c4:94:2a:9c:cd:f4:d4:
        22:80:17:0f:ef:d8:44:8a:ff:4d:7a:0a:01:5e:10:a1:d6:73:
        fc:1f:48:81:0c:16:23:27:2b:4b:21:c1:17:5a:dd:70:9a:b9:
        63:c9:2b:c4:55:ef:80:90:5d:5a:9e:71:50:8e:9f:74:dd:9b:
        7c:1f:56:30:79:d5:77:53:68:d8:e6:37:9f:ba:9b:e4:38:87:
        4f:0b:e8:de:62:30:90:24:cb:89:48:1e:78:cb:40:0d:de:06:
        e9:89:49:b1:e7:42:f4:72:eb:66:6b:b9:9c:8b:8f:6b:8a:bc:
        04:51:6a:d7:f6:22:fb:e6:bd:06:e0:ce:01:b9:ef:78:0b:0a:
        db:fa:bb:b7:18:f2:d0:b6:25:6e:04:86:3d:ea:fc:03:e0:e2:
        18:fc:d0:a9:10:bd:37:8f:a3:e4:e3:13:05:b1:54:f5:c8:75:
        2f:62:32:32:bb:1b:11:7f:49:c1:20:5c:61:98:d3:a5:ce:f3:
        4f:71:af:8c:60:fb:26:5b:92:37:4c:6b:0e:de:bd:61:14:49:
        f1:dc:23:4e:2f:04:68:69:36:94:66:51:06:f1:35:7a:39:00:
        f7:ba:5e:72:40:88:46:87:03:e9:f8:81:61:62:05:ba:a5:84:
        54:4e:c2:15
-----BEGIN CERTIFICATE-----
MIIDWjCCAkKgAwIBAgIRAMPD+3DgE2/bbZyEjw8kkUgwDQYJKoZIhvcNAQELBQAw
FTETMBEGA1UEAwwKdGVhbTQ2LW5ldDAeFw0yMzExMDQxMTI4MTZaFw0yNjEwMTkx
MTI4MTZaMBgxFjAUBgNVBAMMDXRlYW00Ni1jbGllbnQwggEiMA0GCSqGSIb3DQEB
AQUAA4IBDwAwggEKAoIBAQCj3gNX/YgGOwRS2JlocBDoE/3cX3CyKVgyL9dTOxGb
yXPdnxpOr1w7MmnD5JoWCpsyWFrgBxE07RXAr8/mJaessUfuH40m64+urAcxxp1q
5Ax133iKKjDmFF/+RrhD4IzDc8NfAWdaOKyWsnroavXcqS8sksqR4YVnD+IO/n7I
yICk1QQBHpj/9ZsQUM7cXXEM3X3OU714l4sc8Qs1DQwTTWxDSscWqF/0BLnkGshS
Wcg9So1+Jry6yYTBf5ml86fWkONe5QAG8yXWYnuiD4SCH+ORY/+5+abTpDH4sDF0
3EuhOIyCLL+FDYv/DcFX0KT3W/Zss1rMnLrUwlOu/iTzAgMBAAGjgaEwgZ4wCQYD
VR0TBAIwADAdBgNVHQ4EFgQUiRsagsq2aueFVA5xGESyrl6wfnIwUAYDVR0jBEkw
R4AUbMa+OPepdkag5itBA/eYI9GPc76hGaQXMBUxEzARBgNVBAMMCnRlYW00Ni1u
ZXSCFHoLJr/KWVuwD8pVOPtqmC4UKPkMMBMGA1UdJQQMMAoGCCsGAQUFBwMCMAsG
A1UdDwQEAwIHgDANBgkqhkiG9w0BAQsFAAOCAQEAKKNHZ384humYtgHElCqczfTU
IoAXD+/YRIr/TXoKAV4QodZz/B9IgQwWIycrSyHBF1rdcJq5Y8krxFXvgJBdWp5x
UI6fdN2bfB9WMHnVd1No2OY3n7qb5DiHTwvo3mIwkCTLiUgeeMtADd4G6YlJsedC
9HLrZmu5nIuPa4q8BFFq1/Yi++a9BuDOAbnveAsK2/q7txjy0LYlbgSGPer8A+Di
GPzQqRC9N4+j5OMTBbFU9ch1L2IyMrsbEX9JwSBcYZjTpc7zT3GvjGD7JluSN0xr
Dt69YRRJ8dwjTi8EaGk2lGZRBvE1ejkA97peckCIRocD6fiBYWIFuqWEVE7CFQ==
-----END CERTIFICATE-----
