Certificate:
    Data:
        Version: 3 (0x2)
        Serial Number:
            c8:1c:94:c8:d7:fd:ff:b4:97:20:3c:2b:e8:bc:51:2a
        Signature Algorithm: sha256WithRSAEncryption
        Issuer: CN=team46-net
        Validity
            Not Before: Nov  4 10:41:05 2023 GMT
            Not After : Oct 19 10:41:05 2026 GMT
        Subject: CN=team46-client
        Subject Public Key Info:
            Public Key Algorithm: rsaEncryption
                Public-Key: (2048 bit)
                Modulus:
                    00:b5:72:c0:fb:85:05:eb:a6:fd:13:52:39:b8:c9:
                    41:70:5c:78:23:89:12:01:19:38:33:1c:39:d5:62:
                    03:82:b4:bf:83:f0:43:58:1a:3c:83:c0:d8:32:51:
                    e7:25:ef:d0:08:43:89:77:7a:79:8d:54:8f:ac:1e:
                    d5:0c:da:b6:2c:7d:06:63:a8:0e:b6:fb:67:ce:4d:
                    f4:d8:39:b1:e2:49:ff:5f:8b:5c:fc:ae:b6:4a:d8:
                    c3:71:72:90:19:d8:de:e4:78:a3:34:d0:1c:96:98:
                    52:74:fa:55:5e:3d:79:03:58:f8:dd:15:8c:13:eb:
                    16:55:9b:c0:f2:d9:dd:71:b6:b4:fd:f2:f2:e2:ec:
                    90:c4:57:c7:8e:d4:81:8c:a0:a6:08:1d:81:62:9d:
                    19:36:59:bf:94:3d:0b:b4:e7:a8:56:e1:e5:ba:f6:
                    79:98:e4:53:3a:7f:a8:41:c2:16:77:f7:bc:d5:4c:
                    15:db:f8:a9:8c:78:d1:d8:8b:36:77:3a:94:2f:5e:
                    29:6d:15:98:e9:f2:2f:29:a2:d0:bb:65:a3:51:93:
                    3b:ae:2c:57:2d:40:cd:65:ea:49:ce:46:ac:cb:ac:
                    68:e1:ec:9f:01:4b:f2:06:59:54:d1:04:ce:88:77:
                    67:eb:17:20:e6:c8:c7:ed:dc:da:0c:3a:c2:fd:de:
                    fb:75
                Exponent: 65537 (0x10001)
        X509v3 extensions:
            X509v3 Basic Constraints: 
                CA:FALSE
            X509v3 Subject Key Identifier: 
                14:08:F8:6C:39:A9:52:F9:20:03:A5:B1:B1:07:04:FA:66:FA:3A:56
            X509v3 Authority Key Identifier: 
                keyid:34:BA:DE:BC:45:2C:0D:AF:8C:C7:70:1B:30:98:AB:51:B2:85:3E:22
                DirName:/CN=team46-net
                serial:06:C5:26:30:30:06:1A:D2:81:11:9B:5D:F6:A4:79:5D:0B:05:33:DE
            X509v3 Extended Key Usage: 
                TLS Web Client Authentication
            X509v3 Key Usage: 
                Digital Signature
    Signature Algorithm: sha256WithRSAEncryption
    Signature Value:
        9d:87:24:d0:f9:a9:3f:ba:f7:88:fc:a8:25:a2:b0:e8:a1:b2:
        55:1d:8b:52:09:38:77:1c:ee:3e:54:09:10:8a:a5:01:28:a7:
        16:bc:d4:30:11:13:90:c6:d4:7f:61:49:02:91:a6:a3:7c:e1:
        2a:25:28:a5:3a:20:d7:15:73:b9:89:2d:6a:fa:50:b8:f3:42:
        9e:2f:26:61:6a:14:9e:4e:7b:35:c2:8a:23:4a:28:1e:41:39:
        0a:7b:b9:ea:e0:97:43:1c:2d:ac:d1:3d:5e:56:f0:38:48:c0:
        a9:36:f9:10:3c:13:87:47:6f:8d:d5:cf:f8:51:db:19:e5:15:
        64:a4:5f:e5:ef:b3:c1:3d:b9:bf:59:21:67:37:4b:7d:0c:1b:
        41:f0:15:60:0a:30:7c:27:51:1f:48:dc:96:0c:91:8c:3b:8d:
        de:ea:af:8d:22:bf:cb:54:03:db:fd:a9:4b:f0:db:6f:d6:87:
        ae:9c:36:dd:26:84:81:4a:7d:07:90:1b:1e:1e:04:97:77:fe:
        c9:6b:a6:f7:c7:c0:d9:cf:00:f1:9e:d9:5b:d4:9a:b7:d6:3c:
        ab:0b:af:d1:07:81:46:1c:d4:77:b9:09:a2:08:6e:f4:5c:28:
        28:2c:74:77:39:66:8b:0c:4a:a5:f5:df:8a:e4:a0:d8:12:31:
        ee:90:43:ff
-----BEGIN CERTIFICATE-----
MIIDWjCCAkKgAwIBAgIRAMgclMjX/f+0lyA8K+i8USowDQYJKoZIhvcNAQELBQAw
FTETMBEGA1UEAwwKdGVhbTQ2LW5ldDAeFw0yMzExMDQxMDQxMDVaFw0yNjEwMTkx
MDQxMDVaMBgxFjAUBgNVBAMMDXRlYW00Ni1jbGllbnQwggEiMA0GCSqGSIb3DQEB
AQUAA4IBDwAwggEKAoIBAQC1csD7hQXrpv0TUjm4yUFwXHgjiRIBGTgzHDnVYgOC
tL+D8ENYGjyDwNgyUecl79AIQ4l3enmNVI+sHtUM2rYsfQZjqA62+2fOTfTYObHi
Sf9fi1z8rrZK2MNxcpAZ2N7keKM00ByWmFJ0+lVePXkDWPjdFYwT6xZVm8Dy2d1x
trT98vLi7JDEV8eO1IGMoKYIHYFinRk2Wb+UPQu056hW4eW69nmY5FM6f6hBwhZ3
97zVTBXb+KmMeNHYizZ3OpQvXiltFZjp8i8potC7ZaNRkzuuLFctQM1l6knORqzL
rGjh7J8BS/IGWVTRBM6Id2frFyDmyMft3NoMOsL93vt1AgMBAAGjgaEwgZ4wCQYD
VR0TBAIwADAdBgNVHQ4EFgQUFAj4bDmpUvkgA6WxsQcE+mb6OlYwUAYDVR0jBEkw
R4AUNLrevEUsDa+Mx3AbMJirUbKFPiKhGaQXMBUxEzARBgNVBAMMCnRlYW00Ni1u
ZXSCFAbFJjAwBhrSgRGbXfakeV0LBTPeMBMGA1UdJQQMMAoGCCsGAQUFBwMCMAsG
A1UdDwQEAwIHgDANBgkqhkiG9w0BAQsFAAOCAQEAnYck0PmpP7r3iPyoJaKw6KGy
VR2LUgk4dxzuPlQJEIqlASinFrzUMBETkMbUf2FJApGmo3zhKiUopTog1xVzuYkt
avpQuPNCni8mYWoUnk57NcKKI0ooHkE5Cnu56uCXQxwtrNE9XlbwOEjAqTb5EDwT
h0dvjdXP+FHbGeUVZKRf5e+zwT25v1khZzdLfQwbQfAVYAowfCdRH0jclgyRjDuN
3uqvjSK/y1QD2/2pS/Dbb9aHrpw23SaEgUp9B5AbHh4El3f+yWum98fA2c8A8Z7Z
W9Sat9Y8qwuv0QeBRhzUd7kJoghu9FwoKCx0dzlmiwxKpfXfiuSg2BIx7pBD/w==
-----END CERTIFICATE-----
