Certificate:
    Data:
        Version: 3 (0x2)
        Serial Number:
            f2:98:53:29:97:7f:66:75:a7:6f:e4:92:45:da:1a:e0
        Signature Algorithm: sha256WithRSAEncryption
        Issuer: CN=team46-net
        Validity
            Not Before: Nov  3 20:40:03 2023 GMT
            Not After : Oct 18 20:40:03 2026 GMT
        Subject: CN=team46-server
        Subject Public Key Info:
            Public Key Algorithm: rsaEncryption
                Public-Key: (2048 bit)
                Modulus:
                    00:a0:c1:1a:75:db:cf:99:d9:a6:c5:3d:7f:19:2a:
                    61:5f:ce:7b:29:7d:cd:ad:2e:e8:d3:8f:dd:ba:e8:
                    a4:b3:14:b8:75:1d:2a:9e:43:65:76:7f:b4:86:52:
                    74:fe:7b:17:2c:92:6b:60:44:f3:f9:85:91:69:57:
                    39:3e:a5:5a:3d:4e:68:52:33:e5:12:21:4f:32:2e:
                    86:a4:55:51:af:8d:ae:82:d0:6f:a7:e2:ec:bf:c0:
                    d7:4e:8f:a6:17:da:94:b4:b5:9c:d6:49:59:c8:70:
                    a2:53:b7:5a:6c:32:0e:bb:52:3f:5b:12:2f:23:c7:
                    0c:60:31:49:c8:8d:2f:a8:80:5f:b7:fb:09:3e:98:
                    e0:f8:6a:8f:8f:eb:dc:f9:02:c7:3c:aa:70:a2:9b:
                    34:44:b1:8e:ab:90:ee:0c:e9:5d:f1:6a:f8:8d:48:
                    2d:ee:06:55:cc:3a:67:ab:06:84:a5:69:3f:42:43:
                    ff:a2:ac:d1:b6:59:2c:aa:ea:d7:03:b7:c6:c5:6c:
                    fc:c5:e9:b5:bd:50:37:34:ae:4d:cb:62:f0:40:43:
                    b7:e1:df:8d:ce:0b:a6:a8:76:ae:8a:35:d9:7e:bb:
                    8c:5c:3d:45:64:92:aa:26:93:23:4b:e2:3b:69:75:
                    65:e1:12:f4:b7:75:0d:3e:c5:4f:d1:3f:b3:50:fb:
                    c4:19
                Exponent: 65537 (0x10001)
        X509v3 extensions:
            X509v3 Basic Constraints: 
                CA:FALSE
            X509v3 Subject Key Identifier: 
                38:56:D8:15:F2:F5:74:B6:0E:50:8D:21:C2:70:7D:A7:DD:FD:B7:E5
            X509v3 Authority Key Identifier: 
                keyid:71:06:C0:DC:5B:81:D3:15:5C:95:79:E3:35:4D:AD:90:B0:51:94:DE
                DirName:/CN=team46-net
                serial:48:95:43:8F:73:2D:79:B6:95:7C:1C:D1:A7:C5:D8:7D:53:65:F4:07
            X509v3 Extended Key Usage: 
                TLS Web Server Authentication
            X509v3 Key Usage: 
                Digital Signature, Key Encipherment
            X509v3 Subject Alternative Name: 
                DNS:team46-server
    Signature Algorithm: sha256WithRSAEncryption
    Signature Value:
        78:c4:bc:fb:4a:d5:f3:44:63:ea:23:1a:6c:1b:16:2a:47:8d:
        af:fa:97:5c:5b:60:8c:1a:27:a0:0a:4e:04:18:42:70:08:62:
        e2:22:88:50:e7:59:b6:ba:61:32:aa:77:82:17:23:62:f8:6c:
        00:39:6a:62:f4:0b:8d:e9:f8:63:fc:14:e8:7a:26:1c:fc:c4:
        e9:b9:ad:79:f5:5f:10:fb:91:87:01:27:fa:af:d1:50:67:59:
        f8:16:56:c9:e7:09:3d:fb:c3:79:40:b9:57:6f:cc:d2:d9:6d:
        a9:ed:3c:31:61:8d:f2:60:cc:c6:b1:c8:19:27:4c:cf:02:d7:
        e3:88:30:b0:84:41:3a:5f:31:e9:56:8e:01:5b:22:d6:f9:45:
        cf:e2:a4:82:19:a8:81:88:0c:f3:8f:db:e0:5a:4e:e3:d7:47:
        1d:3b:bc:f2:b5:59:42:99:70:0b:10:b2:e5:c4:cf:46:64:5c:
        5d:64:4d:25:50:b1:33:a3:ed:e0:bc:f6:44:02:b3:be:87:72:
        87:2a:bb:60:92:b9:24:d3:a6:ab:cb:e7:45:f2:73:b8:ee:9e:
        bb:b9:50:19:9c:cd:dc:ff:0e:6b:1c:69:dc:00:c9:93:98:2f:
        ca:e1:b4:96:82:e9:68:5c:5c:fa:6d:ed:9c:c3:76:12:83:6d:
        a6:75:bf:15
-----BEGIN CERTIFICATE-----
MIIDdDCCAlygAwIBAgIRAPKYUymXf2Z1p2/kkkXaGuAwDQYJKoZIhvcNAQELBQAw
FTETMBEGA1UEAwwKdGVhbTQ2LW5ldDAeFw0yMzExMDMyMDQwMDNaFw0yNjEwMTgy
MDQwMDNaMBgxFjAUBgNVBAMMDXRlYW00Ni1zZXJ2ZXIwggEiMA0GCSqGSIb3DQEB
AQUAA4IBDwAwggEKAoIBAQCgwRp128+Z2abFPX8ZKmFfznspfc2tLujTj9266KSz
FLh1HSqeQ2V2f7SGUnT+excskmtgRPP5hZFpVzk+pVo9TmhSM+USIU8yLoakVVGv
ja6C0G+n4uy/wNdOj6YX2pS0tZzWSVnIcKJTt1psMg67Uj9bEi8jxwxgMUnIjS+o
gF+3+wk+mOD4ao+P69z5Asc8qnCimzREsY6rkO4M6V3xaviNSC3uBlXMOmerBoSl
aT9CQ/+irNG2WSyq6tcDt8bFbPzF6bW9UDc0rk3LYvBAQ7fh343OC6aodq6KNdl+
u4xcPUVkkqomkyNL4jtpdWXhEvS3dQ0+xU/RP7NQ+8QZAgMBAAGjgbswgbgwCQYD
VR0TBAIwADAdBgNVHQ4EFgQUOFbYFfL1dLYOUI0hwnB9p939t+UwUAYDVR0jBEkw
R4AUcQbA3FuB0xVclXnjNU2tkLBRlN6hGaQXMBUxEzARBgNVBAMMCnRlYW00Ni1u
ZXSCFEiVQ49zLXm2lXwc0afF2H1TZfQHMBMGA1UdJQQMMAoGCCsGAQUFBwMBMAsG
A1UdDwQEAwIFoDAYBgNVHREEETAPgg10ZWFtNDYtc2VydmVyMA0GCSqGSIb3DQEB
CwUAA4IBAQB4xLz7StXzRGPqIxpsGxYqR42v+pdcW2CMGiegCk4EGEJwCGLiIohQ
51m2umEyqneCFyNi+GwAOWpi9AuN6fhj/BToeiYc/MTpua159V8Q+5GHASf6r9FQ
Z1n4FlbJ5wk9+8N5QLlXb8zS2W2p7TwxYY3yYMzGscgZJ0zPAtfjiDCwhEE6XzHp
Vo4BWyLW+UXP4qSCGaiBiAzzj9vgWk7j10cdO7zytVlCmXALELLlxM9GZFxdZE0l
ULEzo+3gvPZEArO+h3KHKrtgkrkk06ary+dF8nO47p67uVAZnM3c/w5rHGncAMmT
mC/K4bSWguloXFz6be2cw3YSg22mdb8V
-----END CERTIFICATE-----
