Certificate:
    Data:
        Version: 3 (0x2)
        Serial Number:
            fe:76:ff:ee:0b:d2:cb:03:d1:10:9c:77:e6:75:b0:5c
        Signature Algorithm: sha256WithRSAEncryption
        Issuer: CN=team46-net
        Validity
            Not Before: Nov  4 11:28:16 2023 GMT
            Not After : Oct 19 11:28:16 2026 GMT
        Subject: CN=team46-server
        Subject Public Key Info:
            Public Key Algorithm: rsaEncryption
                Public-Key: (2048 bit)
                Modulus:
                    00:b9:6e:48:e9:90:80:3f:b5:7d:71:94:46:cc:6d:
                    02:2a:d7:f8:7d:29:4b:16:2b:3c:6f:a3:b4:1d:c1:
                    6b:ca:a2:26:97:4d:fa:b6:0b:5a:3d:28:61:be:e8:
                    2a:fb:52:38:e5:68:a9:ca:9c:63:a9:f7:20:dd:0d:
                    cf:f6:ac:bb:20:85:9b:ba:eb:40:b2:6a:1e:f2:0c:
                    62:d2:d0:3d:86:b3:3e:e8:86:f3:e1:b6:de:e8:df:
                    37:79:c0:46:75:da:3e:e2:b4:6c:f5:8d:f3:65:48:
                    02:39:80:97:41:32:30:7d:98:4b:4d:49:46:98:9e:
                    be:ac:c0:58:d7:2e:c3:c1:de:62:76:6d:29:63:7f:
                    e5:69:8e:0b:64:4d:2a:dd:80:6a:d0:3a:fa:5a:41:
                    45:0a:eb:09:78:e3:58:82:b5:a8:d8:a4:c3:1a:18:
                    93:36:0c:10:c2:32:11:41:16:db:e3:34:28:c9:88:
                    24:68:72:cc:1c:ef:a0:4f:11:d2:65:2b:05:d7:51:
                    25:0c:20:c3:c5:d0:44:70:61:8c:cb:ae:e6:47:6a:
                    a2:64:31:cc:1a:ba:16:2e:5c:31:b1:47:c7:73:61:
                    e7:12:08:eb:d6:ae:71:50:98:cf:89:f4:11:25:8d:
                    e6:e2:26:8f:b6:31:86:98:b3:e9:db:3b:29:0e:04:
                    17:e9
                Exponent: 65537 (0x10001)
        X509v3 extensions:
            X509v3 Basic Constraints: 
                CA:FALSE
            X509v3 Subject Key Identifier: 
                07:CE:B5:0A:D6:C8:62:69:93:78:51:8B:0E:9D:F0:40:98:B9:B9:73
            X509v3 Authority Key Identifier: 
                keyid:6C:C6:BE:38:F7:A9:76:46:A0:E6:2B:41:03:F7:98:23:D1:8F:73:BE
                DirName:/CN=team46-net
                serial:7A:0B:26:BF:CA:59:5B:B0:0F:CA:55:38:FB:6A:98:2E:14:28:F9:0C
            X509v3 Extended Key Usage: 
                TLS Web Server Authentication
            X509v3 Key Usage: 
                Digital Signature, Key Encipherment
            X509v3 Subject Alternative Name: 
                DNS:team46-server
    Signature Algorithm: sha256WithRSAEncryption
    Signature Value:
        87:b5:df:13:50:49:67:31:db:67:8e:94:3b:42:29:b4:c5:40:
        b5:2e:e0:18:d7:5c:f7:1c:3e:13:25:9b:52:44:2f:b1:ba:fb:
        db:69:67:b2:fd:fd:78:36:ac:1c:c7:8d:6e:e7:be:8e:96:46:
        d5:35:96:a6:40:bc:ce:c8:96:e7:5d:14:5a:67:6f:7d:f8:0e:
        07:2c:12:1c:2b:54:cf:76:a7:51:5f:12:cc:e0:23:08:42:4a:
        01:b0:16:5f:10:76:ae:dd:33:d5:4a:01:87:bd:49:ac:04:60:
        78:a6:1c:a7:6b:e6:9a:64:5c:02:ff:e5:ad:97:49:b4:44:77:
        b0:b5:a1:ad:bf:69:cc:d6:af:a9:be:fe:97:47:e6:46:5b:c9:
        1d:16:4d:41:ce:07:b7:44:4b:61:4c:33:09:0e:05:1f:5e:3e:
        3f:07:9f:d1:3a:f8:94:19:8a:6b:1f:63:21:6e:5b:57:82:d7:
        06:d9:05:dd:97:fc:23:f5:dc:5b:f0:4e:43:b3:d0:fc:45:80:
        b2:5d:32:6c:b1:dd:94:57:38:7a:8d:05:90:ff:91:db:88:b1:
        9d:97:36:1c:7c:57:1a:86:17:6d:a9:39:47:dd:e4:1c:82:0a:
        27:87:e9:d4:48:40:df:c4:2b:d7:ea:3a:fc:f6:24:7a:d0:1d:
        41:d4:e0:9b
-----BEGIN CERTIFICATE-----
MIIDdDCCAlygAwIBAgIRAP52/+4L0ssD0RCcd+Z1sFwwDQYJKoZIhvcNAQELBQAw
FTETMBEGA1UEAwwKdGVhbTQ2LW5ldDAeFw0yMzExMDQxMTI4MTZaFw0yNjEwMTkx
MTI4MTZaMBgxFjAUBgNVBAMMDXRlYW00Ni1zZXJ2ZXIwggEiMA0GCSqGSIb3DQEB
AQUAA4IBDwAwggEKAoIBAQC5bkjpkIA/tX1xlEbMbQIq1/h9KUsWKzxvo7QdwWvK
oiaXTfq2C1o9KGG+6Cr7UjjlaKnKnGOp9yDdDc/2rLsghZu660Cyah7yDGLS0D2G
sz7ohvPhtt7o3zd5wEZ12j7itGz1jfNlSAI5gJdBMjB9mEtNSUaYnr6swFjXLsPB
3mJ2bSljf+VpjgtkTSrdgGrQOvpaQUUK6wl441iCtajYpMMaGJM2DBDCMhFBFtvj
NCjJiCRocswc76BPEdJlKwXXUSUMIMPF0ERwYYzLruZHaqJkMcwauhYuXDGxR8dz
YecSCOvWrnFQmM+J9BEljebiJo+2MYaYs+nbOykOBBfpAgMBAAGjgbswgbgwCQYD
VR0TBAIwADAdBgNVHQ4EFgQUB861CtbIYmmTeFGLDp3wQJi5uXMwUAYDVR0jBEkw
R4AUbMa+OPepdkag5itBA/eYI9GPc76hGaQXMBUxEzARBgNVBAMMCnRlYW00Ni1u
ZXSCFHoLJr/KWVuwD8pVOPtqmC4UKPkMMBMGA1UdJQQMMAoGCCsGAQUFBwMBMAsG
A1UdDwQEAwIFoDAYBgNVHREEETAPgg10ZWFtNDYtc2VydmVyMA0GCSqGSIb3DQEB
CwUAA4IBAQCHtd8TUElnMdtnjpQ7Qim0xUC1LuAY11z3HD4TJZtSRC+xuvvbaWey
/f14Nqwcx41u576OlkbVNZamQLzOyJbnXRRaZ299+A4HLBIcK1TPdqdRXxLM4CMI
QkoBsBZfEHau3TPVSgGHvUmsBGB4phyna+aaZFwC/+Wtl0m0RHewtaGtv2nM1q+p
vv6XR+ZGW8kdFk1Bzge3REthTDMJDgUfXj4/B5/ROviUGYprH2MhbltXgtcG2QXd
l/wj9dxb8E5Ds9D8RYCyXTJssd2UVzh6jQWQ/5HbiLGdlzYcfFcahhdtqTlH3eQc
ggonh+nUSEDfxCvX6jr89iR60B1B1OCb
-----END CERTIFICATE-----
