Certificate:
    Data:
        Version: 3 (0x2)
        Serial Number:
            45:0d:89:f4:59:fc:13:4d:f8:0b:42:92:47:bf:fa:af
        Signature Algorithm: sha256WithRSAEncryption
        Issuer: CN=team371-net
        Validity
            Not Before: Nov  4 10:47:21 2023 GMT
            Not After : Oct 19 10:47:21 2026 GMT
        Subject: CN=team371-client
        Subject Public Key Info:
            Public Key Algorithm: rsaEncryption
                Public-Key: (2048 bit)
                Modulus:
                    00:df:d0:63:57:48:de:05:b7:d5:a8:63:a9:b8:68:
                    f8:71:91:62:3a:a0:34:fa:1d:de:18:d1:fa:61:18:
                    f7:49:26:54:27:5e:62:5c:d0:01:10:f6:d5:ca:09:
                    fe:d9:12:83:b8:f8:3a:40:0e:f1:5c:ea:d5:98:a5:
                    b5:c3:9e:a8:91:eb:2c:8d:f9:3c:ea:0d:45:12:60:
                    18:b5:70:1f:77:78:06:f1:bb:42:ca:af:2c:d8:a4:
                    0c:f7:4f:8b:4c:4e:b2:ef:a6:65:88:b6:45:c2:b9:
                    4f:bb:b1:a5:9f:a5:ce:9a:03:eb:9a:fd:98:6f:44:
                    7c:00:a2:d6:35:52:e2:bf:c4:fc:19:cb:1e:a4:9f:
                    d6:a9:3f:1a:a3:86:85:d2:54:25:11:c9:85:c2:c3:
                    3b:95:a0:c1:74:22:a3:26:d9:37:21:3b:6a:58:a2:
                    ba:f4:4c:c7:60:d3:18:7d:b9:bb:4d:7c:9d:83:55:
                    d3:08:8e:ec:2e:c5:e8:c5:bc:28:a9:df:81:46:51:
                    e9:86:3c:e3:cf:b2:dc:7f:fe:de:02:54:24:28:1e:
                    e8:8c:2a:31:f7:39:02:4c:a9:85:db:3c:05:3b:43:
                    0a:87:13:21:25:09:d8:7d:b8:e5:06:e0:03:2e:69:
                    08:04:2e:25:81:05:1c:90:a2:af:03:5a:bd:e9:bf:
                    5b:6f
                Exponent: 65537 (0x10001)
        X509v3 extensions:
            X509v3 Basic Constraints: 
                CA:FALSE
            X509v3 Subject Key Identifier: 
                E0:6B:BA:7B:2D:8C:47:9D:2E:FB:A6:78:21:B8:BC:9E:44:68:D0:6F
            X509v3 Authority Key Identifier: 
                keyid:03:CB:86:13:47:1A:F1:5B:F1:F2:0B:5A:F6:8E:46:00:97:88:07:4A
                DirName:/CN=team371-net
                serial:53:69:A8:77:D5:B3:60:FB:29:E3:1C:A7:A7:AF:4A:89:57:36:08:82
            X509v3 Extended Key Usage: 
                TLS Web Client Authentication
            X509v3 Key Usage: 
                Digital Signature
    Signature Algorithm: sha256WithRSAEncryption
    Signature Value:
        34:3f:f0:0f:48:bb:a3:c0:b5:d4:e9:3e:4c:22:32:5b:17:9d:
        08:15:f6:0e:84:e0:eb:28:a8:68:0a:66:f3:b6:41:dc:c1:f8:
        b7:63:0b:f9:e4:5c:7d:c8:20:54:06:85:78:00:f5:7a:82:b1:
        ef:71:62:b4:69:25:ac:d2:14:8f:fd:fb:d3:3a:04:c2:02:b6:
        61:4f:76:0b:ad:f6:0e:01:40:20:ee:3c:e1:ba:2c:7b:1a:10:
        e2:76:f6:97:b5:23:b8:55:49:ab:35:8a:fe:a9:bf:2c:bf:53:
        ee:d8:01:61:d7:e6:77:8c:39:53:21:d4:1a:e9:7a:04:f0:0b:
        9c:00:61:f3:b1:cd:86:a0:74:45:a7:60:ef:8c:2b:68:d8:15:
        64:d8:01:0c:e3:6b:4b:b3:70:25:f0:8e:53:aa:03:82:b8:5c:
        60:a1:f7:ff:ff:da:bf:85:41:76:4e:61:41:7f:75:c3:84:97:
        8d:a4:ff:ec:ba:3f:e9:bd:06:2d:64:90:5e:ba:17:17:d4:95:
        ba:1d:8d:e0:d6:7b:a7:d9:1f:37:cb:be:93:47:a3:61:81:ff:
        0a:fc:3c:41:9d:cc:b6:24:da:1a:c2:30:93:04:d7:45:44:ae:
        fe:36:ff:de:c7:a6:74:25:d9:d7:c4:19:23:5d:22:62:4d:35:
        3b:89:ba:06
-----BEGIN CERTIFICATE-----
MIIDXDCCAkSgAwIBAgIQRQ2J9Fn8E034C0KSR7/6rzANBgkqhkiG9w0BAQsFADAW
MRQwEgYDVQQDDAt0ZWFtMzcxLW5ldDAeFw0yMzExMDQxMDQ3MjFaFw0yNjEwMTkx
MDQ3MjFaMBkxFzAVBgNVBAMMDnRlYW0zNzEtY2xpZW50MIIBIjANBgkqhkiG9w0B
AQEFAAOCAQ8AMIIBCgKCAQEA39BjV0jeBbfVqGOpuGj4cZFiOqA0+h3eGNH6YRj3
SSZUJ15iXNABEPbVygn+2RKDuPg6QA7xXOrVmKW1w56okessjfk86g1FEmAYtXAf
d3gG8btCyq8s2KQM90+LTE6y76ZliLZFwrlPu7Gln6XOmgPrmv2Yb0R8AKLWNVLi
v8T8GcsepJ/WqT8ao4aF0lQlEcmFwsM7laDBdCKjJtk3ITtqWKK69EzHYNMYfbm7
TXydg1XTCI7sLsXoxbwoqd+BRlHphjzjz7Lcf/7eAlQkKB7ojCox9zkCTKmF2zwF
O0MKhxMhJQnYfbjlBuADLmkIBC4lgQUckKKvA1q96b9bbwIDAQABo4GiMIGfMAkG
A1UdEwQCMAAwHQYDVR0OBBYEFOBrunstjEedLvumeCG4vJ5EaNBvMFEGA1UdIwRK
MEiAFAPLhhNHGvFb8fILWvaORgCXiAdKoRqkGDAWMRQwEgYDVQQDDAt0ZWFtMzcx
LW5ldIIUU2mod9WzYPsp4xynp69KiVc2CIIwEwYDVR0lBAwwCgYIKwYBBQUHAwIw
CwYDVR0PBAQDAgeAMA0GCSqGSIb3DQEBCwUAA4IBAQA0P/APSLujwLXU6T5MIjJb
F50IFfYOhODrKKhoCmbztkHcwfi3Ywv55Fx9yCBUBoV4APV6grHvcWK0aSWs0hSP
/fvTOgTCArZhT3YLrfYOAUAg7jzhuix7GhDidvaXtSO4VUmrNYr+qb8sv1Pu2AFh
1+Z3jDlTIdQa6XoE8AucAGHzsc2GoHRFp2DvjCto2BVk2AEM42tLs3Al8I5TqgOC
uFxgoff//9q/hUF2TmFBf3XDhJeNpP/suj/pvQYtZJBeuhcX1JW6HY3g1nun2R83
y76TR6Nhgf8K/DxBncy2JNoawjCTBNdFRK7+Nv/ex6Z0JdnXxBkjXSJiTTU7iboG
-----END CERTIFICATE-----
