Certificate:
    Data:
        Version: 3 (0x2)
        Serial Number:
            48:4f:aa:ae:9d:32:41:ae:72:20:63:19:fb:8e:98:e6
        Signature Algorithm: sha256WithRSAEncryption
        Issuer: CN=team371-net
        Validity
            Not Before: Nov  4 11:35:46 2023 GMT
            Not After : Oct 19 11:35:46 2026 GMT
        Subject: CN=team371-server
        Subject Public Key Info:
            Public Key Algorithm: rsaEncryption
                Public-Key: (2048 bit)
                Modulus:
                    00:d8:5d:db:0f:83:55:f6:78:c5:2e:72:1b:f3:97:
                    d1:af:2a:44:05:4f:4b:66:7c:51:56:a7:cd:1a:05:
                    b3:20:e1:ce:3e:09:f9:9e:bc:bd:eb:aa:94:75:4a:
                    a8:53:fc:e1:71:45:1f:86:aa:2b:bd:54:27:d4:ab:
                    7a:9c:89:a1:91:5d:1d:55:a4:58:fe:e7:23:c2:e2:
                    4a:ea:14:de:62:b1:8f:2e:3f:37:49:0b:e5:4a:7f:
                    21:c4:80:f3:f7:af:f7:9d:c6:c4:43:41:15:23:da:
                    ef:0e:4a:83:2e:32:7e:90:cc:4a:87:29:c1:c0:2c:
                    aa:3e:23:1a:86:c0:59:e9:18:0d:28:d6:e7:87:22:
                    88:e4:d6:f4:46:ea:cd:25:38:5a:5a:cc:57:ba:2a:
                    d6:c4:bf:13:e8:da:33:f4:5e:a2:4d:59:64:29:1a:
                    a5:29:41:f0:d2:e9:70:81:a0:90:8a:06:4c:cd:c9:
                    67:c9:c8:2e:48:13:7c:f2:2b:8f:a3:dc:ae:0d:73:
                    96:dc:65:8e:aa:26:57:6d:f9:2d:88:de:4d:be:79:
                    66:a7:76:ce:ad:c0:58:6b:0f:e9:30:6e:86:59:e2:
                    f6:fb:50:87:84:c0:85:91:17:15:60:9a:d3:67:8a:
                    7b:df:81:0b:7e:71:d1:fb:ec:e9:a0:33:33:5e:08:
                    14:a1
                Exponent: 65537 (0x10001)
        X509v3 extensions:
            X509v3 Basic Constraints: 
                CA:FALSE
            X509v3 Subject Key Identifier: 
                39:4E:BE:BA:F8:03:74:3E:81:87:C7:4A:B4:68:E2:E5:5B:BE:81:AB
            X509v3 Authority Key Identifier: 
                keyid:A4:30:59:3E:74:46:28:D3:C5:DA:92:C0:BA:8D:73:26:4D:E0:03:C6
                DirName:/CN=team371-net
                serial:4D:E4:59:80:7D:1F:2E:DD:2A:81:50:11:47:B6:26:0E:D3:9D:13:B9
            X509v3 Extended Key Usage: 
                TLS Web Server Authentication
            X509v3 Key Usage: 
                Digital Signature, Key Encipherment
            X509v3 Subject Alternative Name: 
                DNS:team371-server
    Signature Algorithm: sha256WithRSAEncryption
    Signature Value:
        2c:95:1c:3d:68:30:d1:6f:97:7e:bb:d7:b5:5e:7f:be:2e:d1:
        f3:17:06:f2:e4:ab:64:e3:5f:77:60:26:81:95:86:9e:3e:66:
        db:e9:38:ae:6a:34:90:df:8f:e5:b7:33:ac:82:db:d8:79:d4:
        d9:f8:93:94:ce:9b:cd:6f:7d:ff:c7:70:28:3c:a5:18:94:b3:
        b5:99:e8:9b:0e:42:76:1a:54:f9:e9:f2:30:72:ae:35:f5:8a:
        72:ca:d6:1a:95:8f:0f:0a:b9:cf:81:3c:09:d3:e9:1b:ea:78:
        09:a5:9e:19:a4:92:6e:74:ad:e3:8e:e9:45:13:96:f5:08:59:
        1b:27:09:50:69:5f:4a:6f:46:9c:48:ff:6e:ae:3b:6d:7c:21:
        e6:2a:83:38:55:b9:88:3f:e7:02:02:a7:7b:5c:c3:69:d7:ee:
        d7:85:d5:aa:7d:02:8e:be:01:2f:a8:72:e6:48:ab:9c:0d:f8:
        e6:af:48:0c:c7:3d:43:f3:b7:26:5b:ca:b1:1b:1d:da:4a:80:
        c0:47:4e:85:bb:1e:ae:03:7c:b3:c6:32:0e:ef:36:65:e6:d0:
        7d:f4:28:a8:91:87:c1:1a:93:9a:2b:14:f6:42:07:45:85:07:
        fb:7d:18:0b:ea:c9:b5:08:51:c9:60:eb:c3:2b:e8:42:e8:73:
        cd:66:1c:48
-----BEGIN CERTIFICATE-----
MIIDdzCCAl+gAwIBAgIQSE+qrp0yQa5yIGMZ+46Y5jANBgkqhkiG9w0BAQsFADAW
MRQwEgYDVQQDDAt0ZWFtMzcxLW5ldDAeFw0yMzExMDQxMTM1NDZaFw0yNjEwMTkx
MTM1NDZaMBkxFzAVBgNVBAMMDnRlYW0zNzEtc2VydmVyMIIBIjANBgkqhkiG9w0B
AQEFAAOCAQ8AMIIBCgKCAQEA2F3bD4NV9njFLnIb85fRrypEBU9LZnxRVqfNGgWz
IOHOPgn5nry966qUdUqoU/zhcUUfhqorvVQn1Kt6nImhkV0dVaRY/ucjwuJK6hTe
YrGPLj83SQvlSn8hxIDz96/3ncbEQ0EVI9rvDkqDLjJ+kMxKhynBwCyqPiMahsBZ
6RgNKNbnhyKI5Nb0RurNJThaWsxXuirWxL8T6Noz9F6iTVlkKRqlKUHw0ulwgaCQ
igZMzclnycguSBN88iuPo9yuDXOW3GWOqiZXbfktiN5Nvnlmp3bOrcBYaw/pMG6G
WeL2+1CHhMCFkRcVYJrTZ4p734ELfnHR++zpoDMzXggUoQIDAQABo4G9MIG6MAkG
A1UdEwQCMAAwHQYDVR0OBBYEFDlOvrr4A3Q+gYfHSrRo4uVbvoGrMFEGA1UdIwRK
MEiAFKQwWT50RijTxdqSwLqNcyZN4APGoRqkGDAWMRQwEgYDVQQDDAt0ZWFtMzcx
LW5ldIIUTeRZgH0fLt0qgVARR7YmDtOdE7kwEwYDVR0lBAwwCgYIKwYBBQUHAwEw
CwYDVR0PBAQDAgWgMBkGA1UdEQQSMBCCDnRlYW0zNzEtc2VydmVyMA0GCSqGSIb3
DQEBCwUAA4IBAQAslRw9aDDRb5d+u9e1Xn++LtHzFwby5Ktk4193YCaBlYaePmbb
6TiuajSQ34/ltzOsgtvYedTZ+JOUzpvNb33/x3AoPKUYlLO1meibDkJ2GlT56fIw
cq419YpyytYalY8PCrnPgTwJ0+kb6ngJpZ4ZpJJudK3jjulFE5b1CFkbJwlQaV9K
b0acSP9urjttfCHmKoM4VbmIP+cCAqd7XMNp1+7XhdWqfQKOvgEvqHLmSKucDfjm
r0gMxz1D87cmW8qxGx3aSoDAR06Fux6uA3yzxjIO7zZl5tB99CiokYfBGpOaKxT2
QgdFhQf7fRgL6sm1CFHJYOvDK+hC6HPNZhxI
-----END CERTIFICATE-----
