Certificate:
    Data:
        Version: 3 (0x2)
        Serial Number:
            4f:3e:cf:50:8f:49:3c:0f:db:bd:f2:14:27:be:c7:ff
        Signature Algorithm: sha256WithRSAEncryption
        Issuer: CN=team371-net
        Validity
            Not Before: Nov  4 11:35:45 2023 GMT
            Not After : Oct 19 11:35:45 2026 GMT
        Subject: CN=team371-client
        Subject Public Key Info:
            Public Key Algorithm: rsaEncryption
                Public-Key: (2048 bit)
                Modulus:
                    00:bb:ac:d4:dd:0e:72:d4:13:a9:e0:01:d1:ac:c8:
                    bc:18:37:2d:31:c4:6c:14:bb:49:c8:1d:66:09:43:
                    28:9d:5b:8b:0e:0f:ce:34:91:82:10:b4:ac:fc:86:
                    a9:c7:1a:7b:5f:1c:13:0c:cf:e5:33:aa:00:3c:6a:
                    da:85:8b:61:87:a3:e2:4f:a1:99:1f:3a:d1:85:e4:
                    54:9c:02:81:59:2e:34:6f:ca:b9:65:6f:61:e1:30:
                    89:72:d9:74:b2:a7:a5:b2:6d:fa:48:7e:0f:ae:3a:
                    1e:49:ec:14:7e:64:6b:45:4c:92:e4:4a:1d:80:5e:
                    d3:7b:ce:b6:79:fe:6a:46:c7:a6:79:d5:98:ef:7f:
                    51:8c:74:0f:90:13:91:8e:70:5b:d2:b2:7f:9f:b1:
                    73:4d:4f:28:a7:29:24:b5:64:52:26:37:e3:d4:e7:
                    21:a9:17:e8:70:42:03:9d:1c:a1:d9:3d:8c:e0:38:
                    bb:87:f6:14:3e:8a:1d:da:8c:4e:a6:5f:5d:0c:85:
                    47:45:3c:b0:4f:7f:e9:9c:6c:ec:da:58:0b:e3:d6:
                    c4:60:aa:e1:38:92:4b:f4:8d:07:e2:63:fd:28:87:
                    72:34:f5:46:71:55:c1:85:e8:8f:7e:ba:b6:92:12:
                    a2:07:ac:73:dd:f0:c1:37:6c:a2:09:ce:00:e7:b0:
                    6d:fd
                Exponent: 65537 (0x10001)
        X509v3 extensions:
            X509v3 Basic Constraints: 
                CA:FALSE
            X509v3 Subject Key Identifier: 
                3C:0B:82:EE:8A:3E:DD:C4:55:A5:A4:DB:91:DA:4F:EF:11:17:71:E3
            X509v3 Authority Key Identifier: 
                keyid:A4:30:59:3E:74:46:28:D3:C5:DA:92:C0:BA:8D:73:26:4D:E0:03:C6
                DirName:/CN=team371-net
                serial:4D:E4:59:80:7D:1F:2E:DD:2A:81:50:11:47:B6:26:0E:D3:9D:13:B9
            X509v3 Extended Key Usage: 
                TLS Web Client Authentication
            X509v3 Key Usage: 
                Digital Signature
    Signature Algorithm: sha256WithRSAEncryption
    Signature Value:
        ab:55:b5:f5:66:2d:39:f8:09:05:16:ea:87:68:d2:3c:59:a1:
        2f:b7:74:4d:92:94:d3:54:7e:e1:42:14:bd:a7:99:b6:63:f7:
        4a:aa:b9:2d:30:3b:a6:74:ac:25:5a:21:84:26:40:68:83:bd:
        a0:97:fe:89:d6:0e:27:35:c6:a8:60:83:a8:4d:18:e3:68:5c:
        32:99:a3:c2:c5:53:4a:67:72:22:83:67:7e:86:a7:97:85:23:
        ed:f1:7e:d2:30:77:8c:33:5b:64:bb:74:53:89:bc:a7:7f:e7:
        78:1f:b5:51:35:d8:23:c1:18:2f:98:29:df:9d:5d:e5:ec:59:
        af:34:85:97:b1:41:c6:ad:b7:4e:94:ad:f7:02:cd:96:ea:1e:
        14:9f:07:3d:b9:7d:27:59:b4:00:db:ea:ef:85:78:7b:c1:9b:
        5e:7e:f3:de:bf:ae:b2:02:79:1e:ab:3c:fa:d0:ee:aa:ed:ce:
        f7:6b:bb:2b:42:57:15:50:c7:5e:21:4f:8e:16:70:36:b8:7c:
        bb:9e:0b:88:e5:58:c4:3a:bc:a3:42:33:19:b4:17:62:f9:82:
        29:ba:d4:e0:92:b5:ac:e0:7b:b6:9a:dd:a2:8e:b1:02:4c:12:
        86:d0:2e:6e:65:27:e1:91:0f:39:86:23:b3:49:20:dd:cf:21:
        80:1d:1d:eb
-----BEGIN CERTIFICATE-----
MIIDXDCCAkSgAwIBAgIQTz7PUI9JPA/bvfIUJ77H/zANBgkqhkiG9w0BAQsFADAW
MRQwEgYDVQQDDAt0ZWFtMzcxLW5ldDAeFw0yMzExMDQxMTM1NDVaFw0yNjEwMTkx
MTM1NDVaMBkxFzAVBgNVBAMMDnRlYW0zNzEtY2xpZW50MIIBIjANBgkqhkiG9w0B
AQEFAAOCAQ8AMIIBCgKCAQEAu6zU3Q5y1BOp4AHRrMi8GDctMcRsFLtJyB1mCUMo
nVuLDg/ONJGCELSs/Iapxxp7XxwTDM/lM6oAPGrahYthh6PiT6GZHzrRheRUnAKB
WS40b8q5ZW9h4TCJctl0sqelsm36SH4PrjoeSewUfmRrRUyS5EodgF7Te862ef5q
RsemedWY739RjHQPkBORjnBb0rJ/n7FzTU8opykktWRSJjfj1OchqRfocEIDnRyh
2T2M4Di7h/YUPood2oxOpl9dDIVHRTywT3/pnGzs2lgL49bEYKrhOJJL9I0H4mP9
KIdyNPVGcVXBheiPfrq2khKiB6xz3fDBN2yiCc4A57Bt/QIDAQABo4GiMIGfMAkG
A1UdEwQCMAAwHQYDVR0OBBYEFDwLgu6KPt3EVaWk25HaT+8RF3HjMFEGA1UdIwRK
MEiAFKQwWT50RijTxdqSwLqNcyZN4APGoRqkGDAWMRQwEgYDVQQDDAt0ZWFtMzcx
LW5ldIIUTeRZgH0fLt0qgVARR7YmDtOdE7kwEwYDVR0lBAwwCgYIKwYBBQUHAwIw
CwYDVR0PBAQDAgeAMA0GCSqGSIb3DQEBCwUAA4IBAQCrVbX1Zi05+AkFFuqHaNI8
WaEvt3RNkpTTVH7hQhS9p5m2Y/dKqrktMDumdKwlWiGEJkBog72gl/6J1g4nNcao
YIOoTRjjaFwymaPCxVNKZ3Iig2d+hqeXhSPt8X7SMHeMM1tku3RTibynf+d4H7VR
NdgjwRgvmCnfnV3l7FmvNIWXsUHGrbdOlK33As2W6h4Unwc9uX0nWbQA2+rvhXh7
wZtefvPev66yAnkeqzz60O6q7c73a7srQlcVUMdeIU+OFnA2uHy7nguI5VjEOryj
QjMZtBdi+YIputTgkrWs4Hu2mt2ijrECTBKG0C5uZSfhkQ85hiOzSSDdzyGAHR3r
-----END CERTIFICATE-----
