Certificate:
    Data:
        Version: 3 (0x2)
        Serial Number:
            a9:5b:ea:e2:2b:dd:7e:bd:ca:20:34:ca:d7:ef:fe:af
        Signature Algorithm: sha256WithRSAEncryption
        Issuer: CN=team371-net
        Validity
            Not Before: Nov  4 10:47:22 2023 GMT
            Not After : Oct 19 10:47:22 2026 GMT
        Subject: CN=team371-server
        Subject Public Key Info:
            Public Key Algorithm: rsaEncryption
                Public-Key: (2048 bit)
                Modulus:
                    00:e8:2e:98:e7:6f:3e:86:2c:d9:2f:14:3a:43:96:
                    a2:85:4c:4c:29:99:37:47:61:b5:09:c2:fa:1e:f4:
                    68:83:6d:4b:ac:db:ba:83:ff:91:bf:b0:61:9a:88:
                    a1:37:cf:c7:ec:5c:c6:63:4f:4c:7f:99:40:13:6d:
                    cc:61:de:7b:f3:02:46:c5:0b:78:52:c9:de:1b:10:
                    40:98:d8:cd:38:37:4f:82:36:46:c1:b5:c7:00:95:
                    5b:95:26:a1:fa:7e:a7:5e:66:8a:f6:0b:b0:8c:e2:
                    65:d6:ae:5c:18:e7:d4:bf:3f:d0:b2:58:9c:10:87:
                    6c:32:d2:d3:1c:35:31:85:3a:00:a0:7c:ba:3f:c7:
                    87:ca:64:e2:cb:af:55:77:c0:89:d0:9f:8a:71:8d:
                    7b:c3:09:99:87:2b:4f:13:ad:f5:97:c6:0f:6e:9b:
                    4e:91:b4:62:60:77:d3:dc:eb:1d:95:76:3b:cf:b4:
                    23:f1:5a:9a:bc:b8:1f:1a:30:6a:b4:1a:2f:5c:a7:
                    4f:3e:8f:c1:e9:8c:0b:d5:52:e5:03:07:e7:e1:91:
                    92:ea:db:6a:ff:43:d4:80:71:ec:a0:f6:26:e8:78:
                    32:99:f2:43:f6:3a:d5:87:43:ac:39:dc:ac:21:ed:
                    87:62:de:89:e1:3c:14:1f:67:b6:2a:d9:e3:43:88:
                    5b:0d
                Exponent: 65537 (0x10001)
        X509v3 extensions:
            X509v3 Basic Constraints: 
                CA:FALSE
            X509v3 Subject Key Identifier: 
                4C:F7:1E:AF:E9:EF:68:74:4E:F5:71:31:AD:33:53:6B:76:A0:6D:12
            X509v3 Authority Key Identifier: 
                keyid:03:CB:86:13:47:1A:F1:5B:F1:F2:0B:5A:F6:8E:46:00:97:88:07:4A
                DirName:/CN=team371-net
                serial:53:69:A8:77:D5:B3:60:FB:29:E3:1C:A7:A7:AF:4A:89:57:36:08:82
            X509v3 Extended Key Usage: 
                TLS Web Server Authentication
            X509v3 Key Usage: 
                Digital Signature, Key Encipherment
            X509v3 Subject Alternative Name: 
                DNS:team371-server
    Signature Algorithm: sha256WithRSAEncryption
    Signature Value:
        3f:4b:95:6c:07:eb:40:d8:0e:8b:5f:56:fe:d7:93:be:ce:48:
        6d:af:12:3e:83:19:55:01:c7:94:a3:8a:b4:51:d4:fe:f1:ce:
        ea:30:08:39:13:1d:7b:b5:85:cc:84:2d:0a:b5:7a:97:dd:6f:
        72:e2:3d:32:8b:be:d8:49:54:b8:fa:9a:56:b1:b0:9a:0a:04:
        28:c6:ba:bd:df:b6:1a:ca:33:d5:ca:24:12:c1:98:ec:4a:8b:
        62:4b:b4:31:2a:5f:ab:e3:68:3d:40:dc:ab:d9:2b:5c:ce:40:
        d9:02:a5:73:88:8e:2e:00:69:7c:15:9a:48:a9:89:2b:6a:05:
        cd:b1:b8:b9:2d:9e:65:9f:14:b6:42:17:e0:bb:cf:59:2c:29:
        f3:7f:eb:35:31:76:41:b6:dd:3a:89:b8:58:85:46:1d:b6:46:
        8d:78:9c:60:9b:a0:fe:7d:13:25:a5:87:23:9a:31:c3:52:5d:
        82:2f:b4:62:92:d0:70:9a:a7:5b:24:e8:89:39:a7:92:02:f3:
        cd:c9:27:20:63:f9:e3:68:3e:5b:91:21:df:6d:a4:99:1f:06:
        8c:44:b0:67:45:81:af:8f:92:e3:f2:e1:58:03:75:64:d9:b5:
        89:e1:9c:9d:20:51:55:c3:3b:f7:54:c5:84:a2:a3:5e:e9:fa:
        38:f6:f5:f5
-----BEGIN CERTIFICATE-----
MIIDeDCCAmCgAwIBAgIRAKlb6uIr3X69yiA0ytfv/q8wDQYJKoZIhvcNAQELBQAw
FjEUMBIGA1UEAwwLdGVhbTM3MS1uZXQwHhcNMjMxMTA0MTA0NzIyWhcNMjYxMDE5
MTA0NzIyWjAZMRcwFQYDVQQDDA50ZWFtMzcxLXNlcnZlcjCCASIwDQYJKoZIhvcN
AQEBBQADggEPADCCAQoCggEBAOgumOdvPoYs2S8UOkOWooVMTCmZN0dhtQnC+h70
aINtS6zbuoP/kb+wYZqIoTfPx+xcxmNPTH+ZQBNtzGHee/MCRsULeFLJ3hsQQJjY
zTg3T4I2RsG1xwCVW5Umofp+p15mivYLsIziZdauXBjn1L8/0LJYnBCHbDLS0xw1
MYU6AKB8uj/Hh8pk4suvVXfAidCfinGNe8MJmYcrTxOt9ZfGD26bTpG0YmB309zr
HZV2O8+0I/Famry4HxowarQaL1ynTz6PwemMC9VS5QMH5+GRkurbav9D1IBx7KD2
Juh4MpnyQ/Y61YdDrDncrCHth2LeieE8FB9ntirZ40OIWw0CAwEAAaOBvTCBujAJ
BgNVHRMEAjAAMB0GA1UdDgQWBBRM9x6v6e9odE71cTGtM1NrdqBtEjBRBgNVHSME
SjBIgBQDy4YTRxrxW/HyC1r2jkYAl4gHSqEapBgwFjEUMBIGA1UEAwwLdGVhbTM3
MS1uZXSCFFNpqHfVs2D7KeMcp6evSolXNgiCMBMGA1UdJQQMMAoGCCsGAQUFBwMB
MAsGA1UdDwQEAwIFoDAZBgNVHREEEjAQgg50ZWFtMzcxLXNlcnZlcjANBgkqhkiG
9w0BAQsFAAOCAQEAP0uVbAfrQNgOi19W/teTvs5Iba8SPoMZVQHHlKOKtFHU/vHO
6jAIORMde7WFzIQtCrV6l91vcuI9Mou+2ElUuPqaVrGwmgoEKMa6vd+2Gsoz1cok
EsGY7EqLYku0MSpfq+NoPUDcq9krXM5A2QKlc4iOLgBpfBWaSKmJK2oFzbG4uS2e
ZZ8UtkIX4LvPWSwp83/rNTF2QbbdOom4WIVGHbZGjXicYJug/n0TJaWHI5oxw1Jd
gi+0YpLQcJqnWyToiTmnkgLzzcknIGP542g+W5Eh322kmR8GjESwZ0WBr4+S4/Lh
WAN1ZNm1ieGcnSBRVcM791TFhKKjXun6OPb19Q==
-----END CERTIFICATE-----
