Certificate:
    Data:
        Version: 3 (0x2)
        Serial Number:
            1a:cc:a5:79:87:7d:ac:7f:72:91:72:4b:7e:6f:50:35
        Signature Algorithm: sha256WithRSAEncryption
        Issuer: CN=team76-net
        Validity
            Not Before: Nov  3 20:40:31 2023 GMT
            Not After : Oct 18 20:40:31 2026 GMT
        Subject: CN=team76-client
        Subject Public Key Info:
            Public Key Algorithm: rsaEncryption
                Public-Key: (2048 bit)
                Modulus:
                    00:b8:db:a8:e7:5c:a4:bf:c1:42:0a:5d:04:50:3a:
                    eb:4f:bc:89:bd:0b:30:03:15:45:fe:97:86:ca:f2:
                    fa:ab:21:4a:61:8a:aa:16:1e:52:4c:9a:90:18:9a:
                    d8:cf:cc:90:55:f9:e8:2c:e7:55:1b:5d:a0:61:35:
                    b7:35:5e:00:80:e6:fa:b2:ad:40:21:26:55:81:2f:
                    23:3b:6f:47:dd:f1:7b:10:ad:b3:2b:54:9e:f4:74:
                    02:48:5d:1a:58:46:b6:8f:67:e8:a5:63:a8:c7:30:
                    9f:9a:e7:c3:6c:d2:19:79:ab:b3:f7:8e:c1:6c:2f:
                    b0:63:e0:eb:8a:9c:a3:0c:62:26:5d:07:1e:9d:a0:
                    8f:9a:1c:0d:64:bd:c7:3d:1e:c6:db:f2:1c:f6:8c:
                    f7:e5:ff:17:4c:13:77:bb:4b:fd:e3:97:0f:cc:d7:
                    1f:e4:ab:17:48:f4:02:04:2c:55:1c:17:a7:74:87:
                    87:ab:ab:54:aa:2f:32:86:93:b6:ad:19:a5:e1:99:
                    82:51:b1:90:97:e1:dd:a1:4b:6d:30:82:59:13:09:
                    18:00:18:d4:d6:ff:f9:65:d7:a9:15:f9:e3:62:55:
                    24:c3:f3:d6:4b:d7:2b:61:83:0f:06:41:7b:04:70:
                    3c:de:cd:66:48:6d:09:30:18:8a:1d:9b:a9:75:ee:
                    94:b9
                Exponent: 65537 (0x10001)
        X509v3 extensions:
            X509v3 Basic Constraints: 
                CA:FALSE
            X509v3 Subject Key Identifier: 
                A4:2B:43:CB:BA:E4:A6:F8:EF:96:2C:C1:56:E5:FB:3B:0A:EC:9B:ED
            X509v3 Authority Key Identifier: 
                keyid:2F:51:42:4B:7F:C5:04:BE:AE:13:34:73:AF:43:7F:43:A5:8B:6D:27
                DirName:/CN=team76-net
                serial:28:93:D2:4F:F1:33:7E:8E:C6:30:0D:ED:D8:BE:AD:A5:75:1D:7E:0A
            X509v3 Extended Key Usage: 
                TLS Web Client Authentication
            X509v3 Key Usage: 
                Digital Signature
    Signature Algorithm: sha256WithRSAEncryption
    Signature Value:
        5d:0f:c6:7c:ff:84:f8:4f:0e:37:dd:a2:c2:a3:0a:77:8d:1e:
        ce:40:45:55:93:d8:52:ea:b8:85:c1:9a:af:66:3d:e6:91:9b:
        83:e0:09:49:eb:53:d4:22:47:99:56:4c:d8:44:f1:b9:ac:d0:
        df:0f:2c:b9:ee:1e:ba:4e:34:4a:49:0d:02:4e:c5:fb:2b:3c:
        bd:00:28:18:70:83:43:dd:b2:20:47:c9:0b:8d:0e:e5:b8:83:
        ba:f5:4f:b4:88:6e:e8:10:da:55:62:da:09:40:15:b0:2e:ff:
        75:f7:fe:33:63:5e:3f:89:53:a4:fb:ae:1a:be:09:11:7d:aa:
        06:07:ee:72:c5:42:36:f7:9c:6f:52:ae:8c:b3:72:2f:c1:13:
        be:aa:ba:d3:eb:10:52:80:04:cb:10:e3:cd:5f:54:5e:7e:d5:
        2d:26:e6:17:87:86:70:2b:f9:a2:75:9e:5d:d1:9e:63:9f:f8:
        2c:7b:3f:67:22:3b:ea:08:fb:68:91:6d:0f:17:fa:c8:a9:2a:
        cd:dc:e8:eb:e6:ac:82:e4:2f:bf:20:13:49:08:47:5e:ba:8a:
        da:4f:44:60:88:46:e9:4b:ee:c9:e5:85:71:d0:19:df:5a:2e:
        5e:03:18:28:0d:68:28:2b:68:99:cc:30:15:a4:f4:d5:ca:05:
        d4:66:c4:9b
-----BEGIN CERTIFICATE-----
MIIDWTCCAkGgAwIBAgIQGsyleYd9rH9ykXJLfm9QNTANBgkqhkiG9w0BAQsFADAV
MRMwEQYDVQQDDAp0ZWFtNzYtbmV0MB4XDTIzMTEwMzIwNDAzMVoXDTI2MTAxODIw
NDAzMVowGDEWMBQGA1UEAwwNdGVhbTc2LWNsaWVudDCCASIwDQYJKoZIhvcNAQEB
BQADggEPADCCAQoCggEBALjbqOdcpL/BQgpdBFA660+8ib0LMAMVRf6Xhsry+qsh
SmGKqhYeUkyakBia2M/MkFX56CznVRtdoGE1tzVeAIDm+rKtQCEmVYEvIztvR93x
exCtsytUnvR0AkhdGlhGto9n6KVjqMcwn5rnw2zSGXmrs/eOwWwvsGPg64qcowxi
Jl0HHp2gj5ocDWS9xz0extvyHPaM9+X/F0wTd7tL/eOXD8zXH+SrF0j0AgQsVRwX
p3SHh6urVKovMoaTtq0ZpeGZglGxkJfh3aFLbTCCWRMJGAAY1Nb/+WXXqRX542JV
JMPz1kvXK2GDDwZBewRwPN7NZkhtCTAYih2bqXXulLkCAwEAAaOBoTCBnjAJBgNV
HRMEAjAAMB0GA1UdDgQWBBSkK0PLuuSm+O+WLMFW5fs7Cuyb7TBQBgNVHSMESTBH
gBQvUUJLf8UEvq4TNHOvQ39DpYttJ6EZpBcwFTETMBEGA1UEAwwKdGVhbTc2LW5l
dIIUKJPST/Ezfo7GMA3t2L6tpXUdfgowEwYDVR0lBAwwCgYIKwYBBQUHAwIwCwYD
VR0PBAQDAgeAMA0GCSqGSIb3DQEBCwUAA4IBAQBdD8Z8/4T4Tw433aLCowp3jR7O
QEVVk9hS6riFwZqvZj3mkZuD4AlJ61PUIkeZVkzYRPG5rNDfDyy57h66TjRKSQ0C
TsX7Kzy9ACgYcIND3bIgR8kLjQ7luIO69U+0iG7oENpVYtoJQBWwLv919/4zY14/
iVOk+64avgkRfaoGB+5yxUI295xvUq6Ms3IvwRO+qrrT6xBSgATLEOPNX1ReftUt
JuYXh4ZwK/midZ5d0Z5jn/gsez9nIjvqCPtokW0PF/rIqSrN3Ojr5qyC5C+/IBNJ
CEdeuoraT0RgiEbpS+7J5YVx0BnfWi5eAxgoDWgoK2iZzDAVpPTVygXUZsSb
-----END CERTIFICATE-----
