Certificate:
    Data:
        Version: 3 (0x2)
        Serial Number:
            20:00:d7:39:42:e9:d9:4c:8b:52:ef:f6:71:6f:cf:3d
        Signature Algorithm: sha256WithRSAEncryption
        Issuer: CN=team76-net
        Validity
            Not Before: Nov  4 11:28:51 2023 GMT
            Not After : Oct 19 11:28:51 2026 GMT
        Subject: CN=team76-client
        Subject Public Key Info:
            Public Key Algorithm: rsaEncryption
                Public-Key: (2048 bit)
                Modulus:
                    00:a1:36:c0:94:55:09:9a:dc:84:15:74:8b:2a:0c:
                    f8:f5:dc:9c:d0:3e:0e:42:f8:19:e4:1e:c0:d5:44:
                    f7:ea:21:9d:0b:24:c5:11:ac:7f:00:97:00:a2:98:
                    9d:39:3b:5f:84:84:40:cb:49:eb:52:a5:a5:a6:8d:
                    0c:46:42:c9:9f:38:9b:e6:f0:1d:a5:15:ad:18:c9:
                    d2:a1:8e:d4:17:91:39:dc:fc:cf:9a:d8:d3:91:b1:
                    e1:e6:95:20:a3:60:ed:14:08:b2:70:17:21:96:9b:
                    d4:cd:bd:d4:30:b7:8b:51:13:d8:66:24:80:55:2f:
                    36:ff:62:5a:11:21:01:08:5c:db:31:4b:54:68:25:
                    ff:8a:00:6b:fc:23:59:6c:f6:e3:9f:f2:d5:b7:12:
                    fd:f8:ba:c7:a5:93:9c:14:af:4b:a8:ff:47:63:68:
                    b9:13:79:a6:22:61:ed:24:0e:3e:37:bd:2f:9c:cb:
                    d3:36:90:90:05:eb:37:39:d0:da:b5:39:cd:d5:af:
                    c3:c6:a1:c9:1d:b2:30:2d:28:7a:3c:22:db:ae:02:
                    3a:2b:cc:47:23:13:84:94:b1:a2:a0:b3:06:c0:e6:
                    69:4e:cd:ac:77:aa:61:c1:bd:1c:9f:0e:8e:97:53:
                    d9:3a:31:87:3f:05:83:02:4c:9a:a1:ae:ec:5d:5d:
                    0b:7d
                Exponent: 65537 (0x10001)
        X509v3 extensions:
            X509v3 Basic Constraints: 
                CA:FALSE
            X509v3 Subject Key Identifier: 
                10:A5:AF:9E:3C:21:87:37:A2:45:FE:56:63:05:00:A8:A0:02:30:17
            X509v3 Authority Key Identifier: 
                keyid:CE:5D:E5:1E:90:38:DF:75:93:8C:43:F5:F1:CA:A0:B0:EB:F9:44:85
                DirName:/CN=team76-net
                serial:17:9B:94:CF:11:E3:95:41:2F:BD:54:13:4B:6E:3A:5A:66:3A:4D:ED
            X509v3 Extended Key Usage: 
                TLS Web Client Authentication
            X509v3 Key Usage: 
                Digital Signature
    Signature Algorithm: sha256WithRSAEncryption
    Signature Value:
        28:ca:86:b5:f1:85:2d:72:5b:c4:c9:22:95:5b:e5:6c:af:1b:
        d2:9f:10:31:d4:66:75:a2:49:0f:14:66:25:da:bd:bd:54:34:
        c1:2b:d5:64:f2:88:fa:4b:e9:66:ee:0a:0d:f2:c0:cc:4b:9d:
        c8:c6:05:ba:80:1b:da:b6:87:c1:bb:51:b1:8d:cc:6c:5f:55:
        22:99:a7:6d:09:17:30:dd:3b:40:87:77:9f:07:8b:b3:88:b9:
        3d:fe:46:a8:ed:f4:f8:8c:05:54:4e:ce:0f:4a:6b:c2:52:22:
        fc:eb:04:f7:0b:c7:8d:8e:c8:c9:9c:d0:f5:28:63:fc:4b:fc:
        e0:ef:59:23:15:7e:f2:f6:c6:24:9c:e4:1f:b1:09:2b:e5:f8:
        a8:2f:9d:e9:05:49:e9:66:8c:3d:e2:59:21:31:1b:12:cc:b9:
        05:4e:d3:34:59:a7:d0:57:ce:a2:0f:86:5d:69:0a:e5:13:ca:
        2c:f9:4f:f9:e3:04:b3:fd:4f:a9:47:00:a8:7a:bb:03:a9:07:
        bf:b1:34:72:c6:65:df:c3:78:b0:d0:f2:84:f0:40:d8:89:38:
        8c:be:1c:63:72:d7:de:26:1b:a3:cf:74:2b:a3:20:3c:2f:db:
        71:51:9e:a3:9d:4a:c1:97:db:2f:86:82:b5:ab:e5:29:1d:ae:
        a8:d3:41:39
-----BEGIN CERTIFICATE-----
MIIDWTCCAkGgAwIBAgIQIADXOULp2UyLUu/2cW/PPTANBgkqhkiG9w0BAQsFADAV
MRMwEQYDVQQDDAp0ZWFtNzYtbmV0MB4XDTIzMTEwNDExMjg1MVoXDTI2MTAxOTEx
Mjg1MVowGDEWMBQGA1UEAwwNdGVhbTc2LWNsaWVudDCCASIwDQYJKoZIhvcNAQEB
BQADggEPADCCAQoCggEBAKE2wJRVCZrchBV0iyoM+PXcnNA+DkL4GeQewNVE9+oh
nQskxRGsfwCXAKKYnTk7X4SEQMtJ61KlpaaNDEZCyZ84m+bwHaUVrRjJ0qGO1BeR
Odz8z5rY05Gx4eaVIKNg7RQIsnAXIZab1M291DC3i1ET2GYkgFUvNv9iWhEhAQhc
2zFLVGgl/4oAa/wjWWz245/y1bcS/fi6x6WTnBSvS6j/R2NouRN5piJh7SQOPje9
L5zL0zaQkAXrNznQ2rU5zdWvw8ahyR2yMC0oejwi264COivMRyMThJSxoqCzBsDm
aU7NrHeqYcG9HJ8OjpdT2Toxhz8FgwJMmqGu7F1dC30CAwEAAaOBoTCBnjAJBgNV
HRMEAjAAMB0GA1UdDgQWBBQQpa+ePCGHN6JF/lZjBQCooAIwFzBQBgNVHSMESTBH
gBTOXeUekDjfdZOMQ/XxyqCw6/lEhaEZpBcwFTETMBEGA1UEAwwKdGVhbTc2LW5l
dIIUF5uUzxHjlUEvvVQTS246WmY6Te0wEwYDVR0lBAwwCgYIKwYBBQUHAwIwCwYD
VR0PBAQDAgeAMA0GCSqGSIb3DQEBCwUAA4IBAQAoyoa18YUtclvEySKVW+VsrxvS
nxAx1GZ1okkPFGYl2r29VDTBK9Vk8oj6S+lm7goN8sDMS53IxgW6gBvatofBu1Gx
jcxsX1UimadtCRcw3TtAh3efB4uziLk9/kao7fT4jAVUTs4PSmvCUiL86wT3C8eN
jsjJnND1KGP8S/zg71kjFX7y9sYknOQfsQkr5fioL53pBUnpZow94lkhMRsSzLkF
TtM0WafQV86iD4ZdaQrlE8os+U/54wSz/U+pRwCoersDqQe/sTRyxmXfw3iw0PKE
8EDYiTiMvhxjctfeJhujz3QroyA8L9txUZ6jnUrBl9svhoK1q+UpHa6o00E5
-----END CERTIFICATE-----
