Certificate:
    Data:
        Version: 3 (0x2)
        Serial Number:
            66:dc:d6:e7:df:7b:d6:79:ba:40:9a:e1:c8:3b:46:bc
        Signature Algorithm: sha256WithRSAEncryption
        Issuer: CN=team76-net
        Validity
            Not Before: Nov  3 20:40:31 2023 GMT
            Not After : Oct 18 20:40:31 2026 GMT
        Subject: CN=team76-server
        Subject Public Key Info:
            Public Key Algorithm: rsaEncryption
                Public-Key: (2048 bit)
                Modulus:
                    00:bc:4b:89:e2:1d:c5:6f:b0:30:99:ab:07:10:34:
                    a4:3c:5b:23:6f:eb:f5:7c:d7:c4:c6:c8:22:78:93:
                    d1:f0:c5:69:85:bc:75:78:96:07:cc:8c:f2:2b:49:
                    c1:c2:89:47:19:ce:95:3e:ce:02:39:4f:43:cb:bd:
                    7b:c0:54:97:c2:2f:06:f5:8c:d2:c8:76:94:a7:05:
                    dd:6c:b7:1e:32:f4:df:e6:dc:d7:79:54:bf:49:d9:
                    75:88:a2:8c:75:a1:ab:af:68:66:36:8d:c8:2e:80:
                    b7:6d:68:b3:2f:fd:40:25:fa:9b:5e:2f:16:14:04:
                    35:ee:b2:35:92:8f:37:d3:02:3c:d2:15:ac:0e:52:
                    e8:73:ac:d4:ce:ef:34:fd:1c:7b:13:8a:c2:86:e3:
                    cf:b4:a7:f0:33:40:f5:e3:63:14:87:c2:28:8b:2e:
                    f9:d4:99:b3:d8:f1:e7:28:e9:37:e0:88:19:76:95:
                    90:66:54:23:67:b7:64:f3:05:ee:0c:65:56:7d:de:
                    e1:b6:55:0c:40:5a:84:ac:96:0e:10:2b:cc:f2:ab:
                    8e:59:d2:6d:a7:b7:7d:bf:ad:bc:be:b2:a4:6c:dd:
                    e4:66:51:55:2b:e2:1e:e2:df:b3:fe:0a:07:fe:95:
                    0b:4b:91:0a:75:26:86:de:0b:83:e9:52:4a:9d:6b:
                    f8:2b
                Exponent: 65537 (0x10001)
        X509v3 extensions:
            X509v3 Basic Constraints: 
                CA:FALSE
            X509v3 Subject Key Identifier: 
                32:1E:BF:8B:82:E2:7B:84:87:BC:2A:84:3C:9D:E8:99:33:4D:4F:6E
            X509v3 Authority Key Identifier: 
                keyid:2F:51:42:4B:7F:C5:04:BE:AE:13:34:73:AF:43:7F:43:A5:8B:6D:27
                DirName:/CN=team76-net
                serial:28:93:D2:4F:F1:33:7E:8E:C6:30:0D:ED:D8:BE:AD:A5:75:1D:7E:0A
            X509v3 Extended Key Usage: 
                TLS Web Server Authentication
            X509v3 Key Usage: 
                Digital Signature, Key Encipherment
            X509v3 Subject Alternative Name: 
                DNS:team76-server
    Signature Algorithm: sha256WithRSAEncryption
    Signature Value:
        ce:1f:66:b1:01:f9:61:dd:ef:33:fe:85:c0:e1:c8:c5:77:e4:
        b2:e7:53:da:42:f8:0e:fe:c2:6c:4e:c2:67:ef:b3:13:66:dc:
        76:86:ed:30:02:b7:59:aa:b5:4a:3b:dc:bd:4c:a1:ba:1a:a6:
        95:be:db:a6:49:f3:48:6d:71:c6:c0:8d:a6:f8:86:e2:13:68:
        f2:24:47:41:db:c7:b7:40:6f:9d:a9:ad:a7:0e:0a:d9:da:8a:
        cd:65:1f:da:b6:0b:d0:6d:ff:8b:74:fd:1b:4c:9c:8c:f4:85:
        85:f0:c3:c4:27:63:38:86:0f:6b:97:77:e8:d4:1e:de:87:c7:
        12:73:ba:ec:a2:b9:8e:00:2b:72:28:a7:5e:17:fb:32:b4:12:
        be:0b:d6:db:8f:5f:a4:6b:76:33:f8:76:ab:44:f5:9f:1a:02:
        6f:82:53:eb:ee:45:7e:0c:f5:3d:1c:c8:7f:0a:ab:d0:8c:2b:
        df:64:0c:43:be:2b:f4:de:a6:d3:9f:40:7f:99:c8:2e:7e:da:
        95:4c:84:ed:c1:a0:33:2c:2a:18:8c:a6:d2:a3:34:4f:1a:af:
        27:0d:e9:5e:66:66:d4:f2:fe:2b:5f:d0:2f:bd:59:5c:a3:ac:
        62:8b:86:6f:30:54:42:a8:ef:41:5f:87:ea:4b:90:6f:5d:b0:
        1f:b3:0b:57
-----BEGIN CERTIFICATE-----
MIIDczCCAlugAwIBAgIQZtzW59971nm6QJrhyDtGvDANBgkqhkiG9w0BAQsFADAV
MRMwEQYDVQQDDAp0ZWFtNzYtbmV0MB4XDTIzMTEwMzIwNDAzMVoXDTI2MTAxODIw
NDAzMVowGDEWMBQGA1UEAwwNdGVhbTc2LXNlcnZlcjCCASIwDQYJKoZIhvcNAQEB
BQADggEPADCCAQoCggEBALxLieIdxW+wMJmrBxA0pDxbI2/r9XzXxMbIIniT0fDF
aYW8dXiWB8yM8itJwcKJRxnOlT7OAjlPQ8u9e8BUl8IvBvWM0sh2lKcF3Wy3HjL0
3+bc13lUv0nZdYiijHWhq69oZjaNyC6At21osy/9QCX6m14vFhQENe6yNZKPN9MC
PNIVrA5S6HOs1M7vNP0cexOKwobjz7Sn8DNA9eNjFIfCKIsu+dSZs9jx5yjpN+CI
GXaVkGZUI2e3ZPMF7gxlVn3e4bZVDEBahKyWDhArzPKrjlnSbae3fb+tvL6ypGzd
5GZRVSviHuLfs/4KB/6VC0uRCnUmht4Lg+lSSp1r+CsCAwEAAaOBuzCBuDAJBgNV
HRMEAjAAMB0GA1UdDgQWBBQyHr+LguJ7hIe8KoQ8neiZM01PbjBQBgNVHSMESTBH
gBQvUUJLf8UEvq4TNHOvQ39DpYttJ6EZpBcwFTETMBEGA1UEAwwKdGVhbTc2LW5l
dIIUKJPST/Ezfo7GMA3t2L6tpXUdfgowEwYDVR0lBAwwCgYIKwYBBQUHAwEwCwYD
VR0PBAQDAgWgMBgGA1UdEQQRMA+CDXRlYW03Ni1zZXJ2ZXIwDQYJKoZIhvcNAQEL
BQADggEBAM4fZrEB+WHd7zP+hcDhyMV35LLnU9pC+A7+wmxOwmfvsxNm3HaG7TAC
t1mqtUo73L1MoboappW+26ZJ80htccbAjab4huITaPIkR0Hbx7dAb52pracOCtna
is1lH9q2C9Bt/4t0/RtMnIz0hYXww8QnYziGD2uXd+jUHt6HxxJzuuyiuY4AK3Io
p14X+zK0Er4L1tuPX6RrdjP4dqtE9Z8aAm+CU+vuRX4M9T0cyH8Kq9CMK99kDEO+
K/TeptOfQH+ZyC5+2pVMhO3BoDMsKhiMptKjNE8arycN6V5mZtTy/itf0C+9WVyj
rGKLhm8wVEKo70Ffh+pLkG9dsB+zC1c=
-----END CERTIFICATE-----
