Certificate:
    Data:
        Version: 3 (0x2)
        Serial Number:
            d7:85:bd:18:c2:2e:3d:65:ee:b4:55:8c:7d:ef:5c:75
        Signature Algorithm: sha256WithRSAEncryption
        Issuer: CN=team76-net
        Validity
            Not Before: Nov  4 11:28:51 2023 GMT
            Not After : Oct 19 11:28:51 2026 GMT
        Subject: CN=team76-server
        Subject Public Key Info:
            Public Key Algorithm: rsaEncryption
                Public-Key: (2048 bit)
                Modulus:
                    00:ed:5b:d7:7f:0d:f2:7a:e9:b2:17:30:4c:43:65:
                    43:09:e2:87:c1:6c:8f:40:73:c1:0e:34:06:4c:54:
                    a7:6b:9e:be:09:7c:5d:64:95:8f:a1:23:d7:52:61:
                    09:98:a4:40:48:1b:bf:ef:88:af:4c:5b:ce:aa:9c:
                    4f:fc:07:d7:99:26:b7:92:29:f1:62:13:9c:e1:94:
                    83:0d:2f:5a:50:46:81:4d:3e:c9:cd:c7:a2:8e:34:
                    39:39:54:14:62:c1:63:11:78:e1:d7:f2:a6:79:3f:
                    d5:5d:73:30:c6:0d:8d:55:ed:34:25:41:97:d2:ff:
                    88:e5:fc:cc:a2:ff:7e:2d:2d:c4:9e:85:46:87:46:
                    09:9c:02:25:b5:15:96:d5:b4:35:94:77:33:3a:00:
                    f7:8c:fc:6c:d5:6e:6f:ac:3b:bd:e7:54:87:79:70:
                    e1:6f:70:dd:86:3a:49:2e:d4:8c:90:25:df:9b:a4:
                    74:66:82:03:2e:54:be:4c:d3:55:f5:c9:b5:55:eb:
                    1e:da:14:8e:60:ae:57:16:71:45:4f:b8:11:11:f5:
                    f4:2e:94:ea:a8:19:d7:c7:44:0b:5c:97:b1:48:8d:
                    c8:71:43:a8:f4:fe:e5:3f:d9:c7:60:e4:4e:9d:5d:
                    53:d5:35:80:de:a8:e3:21:76:42:eb:f8:71:1f:c4:
                    11:93
                Exponent: 65537 (0x10001)
        X509v3 extensions:
            X509v3 Basic Constraints: 
                CA:FALSE
            X509v3 Subject Key Identifier: 
                F8:60:67:10:8B:05:73:B4:78:8D:C5:29:D7:14:D8:A1:A8:00:67:9B
            X509v3 Authority Key Identifier: 
                keyid:CE:5D:E5:1E:90:38:DF:75:93:8C:43:F5:F1:CA:A0:B0:EB:F9:44:85
                DirName:/CN=team76-net
                serial:17:9B:94:CF:11:E3:95:41:2F:BD:54:13:4B:6E:3A:5A:66:3A:4D:ED
            X509v3 Extended Key Usage: 
                TLS Web Server Authentication
            X509v3 Key Usage: 
                Digital Signature, Key Encipherment
            X509v3 Subject Alternative Name: 
                DNS:team76-server
    Signature Algorithm: sha256WithRSAEncryption
    Signature Value:
        36:10:83:89:00:58:d2:c3:12:77:0a:0e:b1:c8:6c:67:68:cb:
        ff:95:c5:5c:06:e8:f1:b4:f8:60:8f:f8:61:aa:ab:fb:ad:6f:
        e7:44:76:ed:ad:24:29:f4:e0:7c:42:36:65:45:30:fc:bf:a5:
        dd:75:bd:0d:28:19:c1:34:c4:d9:e8:83:bd:43:47:8a:de:52:
        3d:20:59:dc:63:e1:8b:79:fd:f2:32:cb:99:32:78:36:27:b2:
        23:e4:90:07:ac:cb:02:04:18:ce:a7:95:e9:3f:fe:ef:85:da:
        be:a8:8e:07:ae:e9:33:31:02:67:b1:ef:9b:79:13:56:74:be:
        8a:87:64:68:96:1d:0e:e9:ef:90:81:da:58:d0:82:0b:58:41:
        a9:5a:2b:49:38:8c:c2:75:0f:1c:23:0f:58:42:0a:44:96:bd:
        83:41:5b:d1:ee:3f:69:2e:e0:50:5f:ce:07:e2:02:71:e1:b9:
        5e:1c:eb:d1:40:ac:78:64:e2:00:9b:04:d0:8f:f2:0a:79:c5:
        75:1b:f8:b9:9e:e0:a4:ab:8f:cf:4d:2b:68:41:ca:a2:dc:d4:
        76:65:88:ff:00:0c:95:63:06:d2:eb:67:12:cb:dd:dd:0f:cc:
        ff:1b:8c:c2:85:22:8a:8a:d2:88:d5:31:24:78:e7:46:4c:79:
        8f:d2:1c:4e
-----BEGIN CERTIFICATE-----
MIIDdDCCAlygAwIBAgIRANeFvRjCLj1l7rRVjH3vXHUwDQYJKoZIhvcNAQELBQAw
FTETMBEGA1UEAwwKdGVhbTc2LW5ldDAeFw0yMzExMDQxMTI4NTFaFw0yNjEwMTkx
MTI4NTFaMBgxFjAUBgNVBAMMDXRlYW03Ni1zZXJ2ZXIwggEiMA0GCSqGSIb3DQEB
AQUAA4IBDwAwggEKAoIBAQDtW9d/DfJ66bIXMExDZUMJ4ofBbI9Ac8EONAZMVKdr
nr4JfF1klY+hI9dSYQmYpEBIG7/viK9MW86qnE/8B9eZJreSKfFiE5zhlIMNL1pQ
RoFNPsnNx6KONDk5VBRiwWMReOHX8qZ5P9VdczDGDY1V7TQlQZfS/4jl/Myi/34t
LcSehUaHRgmcAiW1FZbVtDWUdzM6APeM/GzVbm+sO73nVId5cOFvcN2GOkku1IyQ
Jd+bpHRmggMuVL5M01X1ybVV6x7aFI5grlcWcUVPuBER9fQulOqoGdfHRAtcl7FI
jchxQ6j0/uU/2cdg5E6dXVPVNYDeqOMhdkLr+HEfxBGTAgMBAAGjgbswgbgwCQYD
VR0TBAIwADAdBgNVHQ4EFgQU+GBnEIsFc7R4jcUp1xTYoagAZ5swUAYDVR0jBEkw
R4AUzl3lHpA433WTjEP18cqgsOv5RIWhGaQXMBUxEzARBgNVBAMMCnRlYW03Ni1u
ZXSCFBeblM8R45VBL71UE0tuOlpmOk3tMBMGA1UdJQQMMAoGCCsGAQUFBwMBMAsG
A1UdDwQEAwIFoDAYBgNVHREEETAPgg10ZWFtNzYtc2VydmVyMA0GCSqGSIb3DQEB
CwUAA4IBAQA2EIOJAFjSwxJ3Cg6xyGxnaMv/lcVcBujxtPhgj/hhqqv7rW/nRHbt
rSQp9OB8QjZlRTD8v6Xddb0NKBnBNMTZ6IO9Q0eK3lI9IFncY+GLef3yMsuZMng2
J7Ij5JAHrMsCBBjOp5XpP/7vhdq+qI4HrukzMQJnse+beRNWdL6Kh2Rolh0O6e+Q
gdpY0IILWEGpWitJOIzCdQ8cIw9YQgpElr2DQVvR7j9pLuBQX84H4gJx4bleHOvR
QKx4ZOIAmwTQj/IKecV1G/i5nuCkq4/PTStoQcqi3NR2ZYj/AAyVYwbS62cSy93d
D8z/G4zChSKKitKI1TEkeOdGTHmP0hxO
-----END CERTIFICATE-----
