Certificate:
    Data:
        Version: 3 (0x2)
        Serial Number:
            33:96:0b:05:dc:aa:fc:0b:2e:6f:68:92:b7:b0:72:c6
        Signature Algorithm: sha256WithRSAEncryption
        Issuer: CN=team97-net
        Validity
            Not Before: Nov  4 11:29:18 2023 GMT
            Not After : Oct 19 11:29:18 2026 GMT
        Subject: CN=team97-server
        Subject Public Key Info:
            Public Key Algorithm: rsaEncryption
                Public-Key: (2048 bit)
                Modulus:
                    00:a6:78:e8:fb:0f:0b:63:7c:05:11:61:03:e6:f5:
                    7e:27:f0:62:3a:c8:3f:4e:6c:bf:6b:ea:f3:28:02:
                    e7:b2:b8:ba:0d:89:3f:a5:60:c5:99:62:6a:be:85:
                    16:c8:66:42:16:d5:8c:86:ba:fe:85:e2:b3:cb:3c:
                    de:8c:05:98:82:be:a0:4a:ec:13:52:bb:01:09:b1:
                    fb:ac:2b:fa:1d:e0:9c:24:a9:9e:9f:8d:c5:e2:c8:
                    04:d9:3a:8f:7e:3e:73:d8:45:55:5c:78:bb:08:54:
                    ed:59:4d:bf:95:54:54:bc:1c:2e:b8:d9:75:38:2d:
                    06:4d:21:b6:52:3d:60:12:eb:87:af:aa:10:e0:4a:
                    e0:a8:7f:30:43:d9:71:f3:33:a5:92:a7:8e:36:9b:
                    c3:f7:76:fd:44:2f:53:8f:e2:33:89:2a:c6:4d:ce:
                    c3:9d:3f:a2:d6:8d:4b:01:a9:aa:97:57:5f:b5:c7:
                    21:ba:fc:3c:8a:3e:bb:c3:13:60:39:6e:52:9c:b7:
                    ea:83:85:01:63:ae:cc:ba:0f:d4:fa:06:df:e2:6c:
                    a5:62:7e:d3:7a:50:cc:9f:22:30:b5:a1:89:92:97:
                    da:55:dc:4b:e2:64:00:ac:9d:c1:cc:df:11:89:0d:
                    bf:8b:b5:31:26:d1:2d:68:96:9e:6c:b6:4c:a4:e9:
                    44:73
                Exponent: 65537 (0x10001)
        X509v3 extensions:
            X509v3 Basic Constraints: 
                CA:FALSE
            X509v3 Subject Key Identifier: 
                B0:86:52:2B:C0:FB:07:50:BE:5E:A4:F8:48:6C:91:C0:13:18:6A:8B
            X509v3 Authority Key Identifier: 
                keyid:7C:C5:00:C8:9D:E7:7F:A3:35:6B:DC:C7:97:C3:14:77:EF:D3:5B:D6
                DirName:/CN=team97-net
                serial:76:C1:D9:47:71:4F:A0:1C:25:BD:0F:60:AE:6E:10:F5:16:5B:C6:58
            X509v3 Extended Key Usage: 
                TLS Web Server Authentication
            X509v3 Key Usage: 
                Digital Signature, Key Encipherment
            X509v3 Subject Alternative Name: 
                DNS:team97-server
    Signature Algorithm: sha256WithRSAEncryption
    Signature Value:
        03:76:d7:ae:b5:93:3f:05:cd:82:f2:02:77:af:f1:e8:1c:d5:
        2e:6d:7b:c1:19:0d:07:ea:a1:14:79:b1:b1:01:a0:e7:62:34:
        97:af:36:54:0d:d1:e0:f5:3c:1b:5f:ff:89:6e:6e:2a:c4:e7:
        8b:fe:b0:69:66:08:bf:bf:ac:d4:b2:79:e5:fc:e0:26:d6:df:
        a9:a2:05:ef:77:4c:5f:8f:a2:62:94:34:1d:e4:99:fd:fc:af:
        bd:90:55:73:b7:8b:f6:2e:e8:ce:4f:70:42:84:ea:55:0e:ed:
        8b:e9:f5:f5:d2:de:5b:5b:06:70:26:4a:a1:75:14:c0:2a:6d:
        7e:2a:97:b0:2a:76:14:28:09:73:0b:46:48:b5:e9:9d:7c:fa:
        6e:a7:7c:62:2e:a7:c0:19:3f:8b:2d:74:c1:da:0d:a4:96:aa:
        c3:38:9a:aa:3d:2d:a1:e5:fe:55:4d:37:99:f9:99:f2:35:12:
        d5:22:f2:4c:57:aa:58:b9:65:15:bc:e3:7d:47:10:3b:15:6b:
        7c:b7:31:e3:04:7d:80:a1:c0:cf:36:ba:e8:ea:24:21:cf:80:
        c5:ac:81:66:f5:4e:5c:33:aa:c2:25:be:40:ba:12:14:6a:a9:
        3c:b0:25:c9:bb:5e:e0:9f:55:88:40:39:02:7f:b0:91:08:7e:
        57:4d:ce:0b
-----BEGIN CERTIFICATE-----
MIIDczCCAlugAwIBAgIQM5YLBdyq/Asub2iSt7ByxjANBgkqhkiG9w0BAQsFADAV
MRMwEQYDVQQDDAp0ZWFtOTctbmV0MB4XDTIzMTEwNDExMjkxOFoXDTI2MTAxOTEx
MjkxOFowGDEWMBQGA1UEAwwNdGVhbTk3LXNlcnZlcjCCASIwDQYJKoZIhvcNAQEB
BQADggEPADCCAQoCggEBAKZ46PsPC2N8BRFhA+b1fifwYjrIP05sv2vq8ygC57K4
ug2JP6VgxZliar6FFshmQhbVjIa6/oXis8s83owFmIK+oErsE1K7AQmx+6wr+h3g
nCSpnp+NxeLIBNk6j34+c9hFVVx4uwhU7VlNv5VUVLwcLrjZdTgtBk0htlI9YBLr
h6+qEOBK4Kh/MEPZcfMzpZKnjjabw/d2/UQvU4/iM4kqxk3Ow50/otaNSwGpqpdX
X7XHIbr8PIo+u8MTYDluUpy36oOFAWOuzLoP1PoG3+JspWJ+03pQzJ8iMLWhiZKX
2lXcS+JkAKydwczfEYkNv4u1MSbRLWiWnmy2TKTpRHMCAwEAAaOBuzCBuDAJBgNV
HRMEAjAAMB0GA1UdDgQWBBSwhlIrwPsHUL5epPhIbJHAExhqizBQBgNVHSMESTBH
gBR8xQDIned/ozVr3MeXwxR379Nb1qEZpBcwFTETMBEGA1UEAwwKdGVhbTk3LW5l
dIIUdsHZR3FPoBwlvQ9grm4Q9RZbxlgwEwYDVR0lBAwwCgYIKwYBBQUHAwEwCwYD
VR0PBAQDAgWgMBgGA1UdEQQRMA+CDXRlYW05Ny1zZXJ2ZXIwDQYJKoZIhvcNAQEL
BQADggEBAAN21661kz8FzYLyAnev8egc1S5te8EZDQfqoRR5sbEBoOdiNJevNlQN
0eD1PBtf/4lubirE54v+sGlmCL+/rNSyeeX84CbW36miBe93TF+PomKUNB3kmf38
r72QVXO3i/Yu6M5PcEKE6lUO7Yvp9fXS3ltbBnAmSqF1FMAqbX4ql7AqdhQoCXML
Rki16Z18+m6nfGIup8AZP4stdMHaDaSWqsM4mqo9LaHl/lVNN5n5mfI1EtUi8kxX
qli5ZRW8431HEDsVa3y3MeMEfYChwM82uujqJCHPgMWsgWb1TlwzqsIlvkC6EhRq
qTywJcm7XuCfVYhAOQJ/sJEIfldNzgs=
-----END CERTIFICATE-----
