Certificate:
    Data:
        Version: 3 (0x2)
        Serial Number:
            5c:30:a4:db:79:1f:d9:95:91:d3:50:cb:87:31:10:07
        Signature Algorithm: sha256WithRSAEncryption
        Issuer: CN=team97-net
        Validity
            Not Before: Nov  3 20:40:52 2023 GMT
            Not After : Oct 18 20:40:52 2026 GMT
        Subject: CN=team97-server
        Subject Public Key Info:
            Public Key Algorithm: rsaEncryption
                Public-Key: (2048 bit)
                Modulus:
                    00:d5:a9:06:45:07:a7:0b:0a:72:20:55:0d:cb:0a:
                    e1:8c:ab:d0:9a:df:90:9b:9e:9f:bf:38:de:83:08:
                    c9:1e:10:40:df:32:07:1c:dd:aa:a7:76:ed:96:d9:
                    1c:de:c4:88:7d:d2:4d:54:ad:f6:5f:ef:24:7f:4c:
                    32:1c:60:94:38:3e:b7:7d:6d:a9:12:a0:c0:31:1e:
                    c6:36:53:4f:5e:7a:82:c5:0b:1e:f7:12:19:c6:e4:
                    74:ba:d8:a4:de:66:48:2a:e6:ef:42:d6:03:62:ea:
                    0b:fd:f7:f3:15:e8:b2:ee:c5:6e:e2:67:bc:8f:3b:
                    99:0b:f5:c3:f8:0f:00:31:eb:cd:15:cd:bd:f2:8f:
                    e6:fb:20:74:dd:40:24:df:f7:b9:ac:d9:95:bf:37:
                    b8:95:6f:aa:77:22:5e:78:74:01:5e:c4:42:87:16:
                    95:06:d6:1c:c0:7f:42:bf:0f:69:ae:bf:09:95:8a:
                    77:af:94:7e:50:86:ba:20:86:1c:b6:ca:e5:b4:39:
                    fd:92:ea:7f:71:a4:df:c2:d0:2d:0b:e4:16:83:c4:
                    ee:6f:b5:f6:b1:8e:cb:f6:30:c7:27:27:12:31:cd:
                    cc:27:f0:d0:bb:65:e1:cf:40:40:d3:9b:20:f3:62:
                    b1:5b:4b:b9:43:94:68:33:c8:c4:0c:2d:7b:b3:82:
                    02:ad
                Exponent: 65537 (0x10001)
        X509v3 extensions:
            X509v3 Basic Constraints: 
                CA:FALSE
            X509v3 Subject Key Identifier: 
                3F:B4:37:76:48:E2:3C:EA:D3:3A:85:B6:D4:7B:B6:73:2B:DF:68:DA
            X509v3 Authority Key Identifier: 
                keyid:26:AE:BB:80:D2:7A:A5:13:2B:FF:36:1C:BA:3C:E8:67:1B:17:80:DA
                DirName:/CN=team97-net
                serial:06:BE:2E:0F:F0:83:8A:6C:E8:89:4D:11:F5:CE:3A:85:D6:5D:0C:CC
            X509v3 Extended Key Usage: 
                TLS Web Server Authentication
            X509v3 Key Usage: 
                Digital Signature, Key Encipherment
            X509v3 Subject Alternative Name: 
                DNS:team97-server
    Signature Algorithm: sha256WithRSAEncryption
    Signature Value:
        11:b3:87:b9:a0:d9:37:1f:9a:f8:b9:5b:8a:c1:f2:55:d8:dc:
        34:d4:e0:3b:bb:79:01:1c:39:ee:09:57:d0:0b:14:5c:89:c4:
        ce:26:7e:43:62:41:1d:d4:4c:90:48:f5:d9:6b:49:2c:e8:fe:
        49:3e:2b:60:c7:ef:37:b1:8a:06:39:ca:1f:b2:5a:da:48:66:
        5c:46:43:0c:24:6b:ac:a7:a5:f8:2f:49:9d:4a:c4:6a:0a:22:
        da:b3:8f:08:f3:f6:9b:a1:9c:f6:02:d5:fe:9d:5b:24:de:b3:
        0e:ef:78:99:6d:04:98:b6:72:cd:9b:1e:8a:03:73:cc:6d:07:
        17:d6:60:dc:8c:3b:a1:2f:2b:0c:54:02:89:c1:dd:86:ff:42:
        81:6e:d1:36:38:00:70:22:43:f5:f5:c7:81:47:09:34:b8:c4:
        53:00:33:8f:25:9d:ea:24:80:e4:37:7b:1c:1c:a2:a5:ed:78:
        23:14:c6:85:2d:23:ec:46:32:7c:a3:5e:2a:c7:00:19:df:f7:
        62:87:ba:28:b2:f2:dd:05:84:39:cf:69:f1:d7:60:5e:88:5c:
        e6:b1:fb:c5:6e:cd:4f:9b:4f:23:71:28:c2:d3:32:8a:40:07:
        a7:80:90:0b:f7:e7:92:ae:73:ba:b8:c3:cb:3a:d4:f8:5c:79:
        90:41:26:59
-----BEGIN CERTIFICATE-----
MIIDczCCAlugAwIBAgIQXDCk23kf2ZWR01DLhzEQBzANBgkqhkiG9w0BAQsFADAV
MRMwEQYDVQQDDAp0ZWFtOTctbmV0MB4XDTIzMTEwMzIwNDA1MloXDTI2MTAxODIw
NDA1MlowGDEWMBQGA1UEAwwNdGVhbTk3LXNlcnZlcjCCASIwDQYJKoZIhvcNAQEB
BQADggEPADCCAQoCggEBANWpBkUHpwsKciBVDcsK4Yyr0JrfkJuen7843oMIyR4Q
QN8yBxzdqqd27ZbZHN7EiH3STVSt9l/vJH9MMhxglDg+t31tqRKgwDEexjZTT156
gsULHvcSGcbkdLrYpN5mSCrm70LWA2LqC/338xXosu7FbuJnvI87mQv1w/gPADHr
zRXNvfKP5vsgdN1AJN/3uazZlb83uJVvqnciXnh0AV7EQocWlQbWHMB/Qr8Paa6/
CZWKd6+UflCGuiCGHLbK5bQ5/ZLqf3Gk38LQLQvkFoPE7m+19rGOy/YwxycnEjHN
zCfw0Ltl4c9AQNObIPNisVtLuUOUaDPIxAwte7OCAq0CAwEAAaOBuzCBuDAJBgNV
HRMEAjAAMB0GA1UdDgQWBBQ/tDd2SOI86tM6hbbUe7ZzK99o2jBQBgNVHSMESTBH
gBQmrruA0nqlEyv/Nhy6POhnGxeA2qEZpBcwFTETMBEGA1UEAwwKdGVhbTk3LW5l
dIIUBr4uD/CDimzoiU0R9c46hdZdDMwwEwYDVR0lBAwwCgYIKwYBBQUHAwEwCwYD
VR0PBAQDAgWgMBgGA1UdEQQRMA+CDXRlYW05Ny1zZXJ2ZXIwDQYJKoZIhvcNAQEL
BQADggEBABGzh7mg2Tcfmvi5W4rB8lXY3DTU4Du7eQEcOe4JV9ALFFyJxM4mfkNi
QR3UTJBI9dlrSSzo/kk+K2DH7zexigY5yh+yWtpIZlxGQwwka6ynpfgvSZ1KxGoK
Itqzjwjz9puhnPYC1f6dWyTesw7veJltBJi2cs2bHooDc8xtBxfWYNyMO6EvKwxU
AonB3Yb/QoFu0TY4AHAiQ/X1x4FHCTS4xFMAM48lneokgOQ3exwcoqXteCMUxoUt
I+xGMnyjXirHABnf92KHuiiy8t0FhDnPafHXYF6IXOax+8VuzU+bTyNxKMLTMopA
B6eAkAv355Kuc7q4w8s61PhceZBBJlk=
-----END CERTIFICATE-----
