Certificate:
    Data:
        Version: 3 (0x2)
        Serial Number:
            7d:1d:bd:7a:4a:b1:9c:da:91:bc:4a:42:f4:36:71:4c
        Signature Algorithm: sha256WithRSAEncryption
        Issuer: CN=team97-net
        Validity
            Not Before: Nov  3 20:40:52 2023 GMT
            Not After : Oct 18 20:40:52 2026 GMT
        Subject: CN=team97-client
        Subject Public Key Info:
            Public Key Algorithm: rsaEncryption
                Public-Key: (2048 bit)
                Modulus:
                    00:a0:ba:e4:1a:b9:c0:7d:6f:30:e2:2d:33:d2:7d:
                    ed:f7:55:68:63:15:0b:73:1c:39:44:fc:00:4e:4e:
                    a6:6c:16:37:11:ad:8b:72:5c:ed:33:d6:b7:01:ee:
                    c8:53:81:3b:fa:68:70:44:c8:af:4b:2b:96:ac:1c:
                    22:91:a5:80:03:3f:b6:3d:a7:c1:4f:3e:d3:bc:2c:
                    16:bc:a4:05:ed:2b:7f:91:95:b8:8c:59:a9:63:4e:
                    ac:70:ba:b2:22:79:aa:5e:80:f0:c0:8f:02:1f:d1:
                    7b:82:a3:59:d0:a5:c3:4f:2a:49:3d:b1:36:04:d2:
                    f7:2e:40:9b:d9:be:30:a6:30:af:e5:87:66:86:99:
                    3b:d7:92:6d:88:e7:2c:e4:e9:bb:0d:ac:1d:9b:82:
                    0d:c7:28:b7:60:eb:2c:d5:43:b0:b4:dc:c4:b9:28:
                    72:93:9c:49:1c:84:9b:10:ba:f0:8c:4c:a7:d8:19:
                    ce:0b:d6:f0:59:86:d8:1f:57:a8:95:0d:47:88:9d:
                    ae:27:47:ca:5a:72:f0:4d:21:31:ff:ff:7b:a6:31:
                    55:8f:35:ac:d0:04:19:5c:21:36:30:f4:39:cd:f9:
                    0c:73:65:85:71:6e:c4:6f:b4:ef:ff:3e:96:c0:a7:
                    34:b5:6d:18:d6:4c:66:e7:0b:81:00:c4:4e:df:6e:
                    1f:3d
                Exponent: 65537 (0x10001)
        X509v3 extensions:
            X509v3 Basic Constraints: 
                CA:FALSE
            X509v3 Subject Key Identifier: 
                79:4A:90:FC:10:D2:9D:69:E8:42:E9:14:06:52:C1:75:14:C5:B2:AD
            X509v3 Authority Key Identifier: 
                keyid:26:AE:BB:80:D2:7A:A5:13:2B:FF:36:1C:BA:3C:E8:67:1B:17:80:DA
                DirName:/CN=team97-net
                serial:06:BE:2E:0F:F0:83:8A:6C:E8:89:4D:11:F5:CE:3A:85:D6:5D:0C:CC
            X509v3 Extended Key Usage: 
                TLS Web Client Authentication
            X509v3 Key Usage: 
                Digital Signature
    Signature Algorithm: sha256WithRSAEncryption
    Signature Value:
        45:6e:d9:ff:84:b0:5c:ff:f1:dd:5b:c3:95:68:25:50:90:c3:
        b6:bd:09:b3:4f:f7:ac:f7:87:c9:9f:b4:33:65:7e:4c:59:e0:
        31:8c:d6:32:6c:fc:1d:e3:07:63:99:a0:31:7e:a5:90:08:3a:
        cd:a2:ad:99:e1:ac:82:00:31:80:24:d4:34:e1:49:99:21:8a:
        d0:ab:94:83:39:05:76:84:a0:34:dc:89:85:08:62:8c:69:95:
        75:37:84:62:7c:d0:19:9a:ff:c8:6f:33:33:7f:78:d3:3f:95:
        c8:4c:21:40:50:cc:66:46:e3:9b:f7:a5:1f:43:f7:77:6c:76:
        5e:76:eb:6b:24:af:c2:48:28:dc:9f:75:53:2c:1a:1d:76:9a:
        e7:dd:57:be:92:60:58:32:d9:b3:93:8d:4f:61:88:7f:af:b1:
        ac:76:47:c8:a4:ae:a8:50:94:c8:90:04:67:cb:a2:b1:08:ec:
        c1:07:35:ec:21:39:ef:10:f5:73:fb:67:c0:f4:51:5b:58:70:
        f8:c3:ca:f6:8b:75:b1:24:6a:d2:4a:18:44:41:91:07:90:fe:
        68:3c:f3:f7:cf:1d:34:ea:94:36:20:43:5a:52:9d:10:c6:bf:
        bf:7c:03:0e:30:61:8b:07:07:ae:11:40:58:2d:a7:0a:78:61:
        ad:0b:fc:f7
-----BEGIN CERTIFICATE-----
MIIDWTCCAkGgAwIBAgIQfR29ekqxnNqRvEpC9DZxTDANBgkqhkiG9w0BAQsFADAV
MRMwEQYDVQQDDAp0ZWFtOTctbmV0MB4XDTIzMTEwMzIwNDA1MloXDTI2MTAxODIw
NDA1MlowGDEWMBQGA1UEAwwNdGVhbTk3LWNsaWVudDCCASIwDQYJKoZIhvcNAQEB
BQADggEPADCCAQoCggEBAKC65Bq5wH1vMOItM9J97fdVaGMVC3McOUT8AE5OpmwW
NxGti3Jc7TPWtwHuyFOBO/pocETIr0srlqwcIpGlgAM/tj2nwU8+07wsFrykBe0r
f5GVuIxZqWNOrHC6siJ5ql6A8MCPAh/Re4KjWdClw08qST2xNgTS9y5Am9m+MKYw
r+WHZoaZO9eSbYjnLOTpuw2sHZuCDccot2DrLNVDsLTcxLkocpOcSRyEmxC68IxM
p9gZzgvW8FmG2B9XqJUNR4idridHylpy8E0hMf//e6YxVY81rNAEGVwhNjD0Oc35
DHNlhXFuxG+07/8+lsCnNLVtGNZMZucLgQDETt9uHz0CAwEAAaOBoTCBnjAJBgNV
HRMEAjAAMB0GA1UdDgQWBBR5SpD8ENKdaehC6RQGUsF1FMWyrTBQBgNVHSMESTBH
gBQmrruA0nqlEyv/Nhy6POhnGxeA2qEZpBcwFTETMBEGA1UEAwwKdGVhbTk3LW5l
dIIUBr4uD/CDimzoiU0R9c46hdZdDMwwEwYDVR0lBAwwCgYIKwYBBQUHAwIwCwYD
VR0PBAQDAgeAMA0GCSqGSIb3DQEBCwUAA4IBAQBFbtn/hLBc//HdW8OVaCVQkMO2
vQmzT/es94fJn7QzZX5MWeAxjNYybPwd4wdjmaAxfqWQCDrNoq2Z4ayCADGAJNQ0
4UmZIYrQq5SDOQV2hKA03ImFCGKMaZV1N4RifNAZmv/IbzMzf3jTP5XITCFAUMxm
RuOb96UfQ/d3bHZedutrJK/CSCjcn3VTLBoddprn3Ve+kmBYMtmzk41PYYh/r7Gs
dkfIpK6oUJTIkARny6KxCOzBBzXsITnvEPVz+2fA9FFbWHD4w8r2i3WxJGrSShhE
QZEHkP5oPPP3zx006pQ2IENaUp0Qxr+/fAMOMGGLBweuEUBYLacKeGGtC/z3
-----END CERTIFICATE-----
