Certificate:
    Data:
        Version: 3 (0x2)
        Serial Number:
            97:03:d5:e1:d4:59:dc:7c:7f:c2:01:15:46:68:15:7b
        Signature Algorithm: sha256WithRSAEncryption
        Issuer: CN=team97-net
        Validity
            Not Before: Nov  4 10:42:14 2023 GMT
            Not After : Oct 19 10:42:14 2026 GMT
        Subject: CN=team97-server
        Subject Public Key Info:
            Public Key Algorithm: rsaEncryption
                Public-Key: (2048 bit)
                Modulus:
                    00:c6:12:82:af:69:43:0c:47:fc:37:31:c2:3e:2d:
                    0b:dc:33:e5:80:02:83:4b:2a:f6:16:16:54:c4:10:
                    e8:48:96:51:9b:99:4a:cf:07:c3:aa:54:20:44:93:
                    86:09:44:a3:6e:f0:1e:45:20:ba:2b:c2:8b:fe:f8:
                    54:c5:78:86:80:8c:cd:d7:e9:d2:96:39:72:42:14:
                    fc:c5:f8:2e:f4:fb:43:de:4c:6e:aa:51:9b:5f:2f:
                    da:10:d2:ce:58:bf:80:a0:af:b2:12:41:75:d8:b3:
                    a0:14:13:8c:76:a1:49:09:89:10:0c:78:54:6a:9b:
                    9e:22:72:45:ad:94:00:e6:db:c5:6e:66:b5:52:07:
                    72:bc:64:49:8e:07:07:87:e6:b5:34:57:39:ba:21:
                    cd:ff:2d:c5:69:ce:a0:67:91:d2:73:09:67:92:4d:
                    73:7e:2b:7a:01:47:cf:43:76:a1:ed:5b:81:87:d7:
                    52:1c:f8:9d:40:a6:5c:a2:bf:a9:47:5c:70:e3:14:
                    d3:60:ab:30:f0:e7:27:48:43:b6:1f:89:db:d5:48:
                    4f:97:a2:7f:f5:39:50:48:21:d9:61:b0:aa:21:ba:
                    60:9f:34:10:27:cc:e8:a0:16:cf:ba:0f:95:f2:c8:
                    d7:2a:1d:64:1a:98:1d:cb:05:18:59:47:25:2d:2a:
                    8a:89
                Exponent: 65537 (0x10001)
        X509v3 extensions:
            X509v3 Basic Constraints: 
                CA:FALSE
            X509v3 Subject Key Identifier: 
                E1:B3:15:69:D3:EC:66:27:D1:36:09:1C:9B:D2:69:87:E0:0A:F1:2F
            X509v3 Authority Key Identifier: 
                keyid:5B:90:FB:5E:AB:C1:E4:27:54:7F:52:88:EF:84:AC:AE:14:07:4C:20
                DirName:/CN=team97-net
                serial:3C:5D:54:90:82:72:68:8B:DE:E0:82:25:B6:CB:15:3D:B6:88:99:9E
            X509v3 Extended Key Usage: 
                TLS Web Server Authentication
            X509v3 Key Usage: 
                Digital Signature, Key Encipherment
            X509v3 Subject Alternative Name: 
                DNS:team97-server
    Signature Algorithm: sha256WithRSAEncryption
    Signature Value:
        3d:00:54:61:38:65:74:b9:54:2d:d3:1c:d8:9e:93:25:40:d2:
        e3:05:9a:e6:03:4b:f2:41:87:90:b9:27:a3:24:eb:61:02:a9:
        4e:9e:13:d0:81:a9:a9:dc:1b:11:8b:dc:7d:2e:5d:fd:8a:6c:
        fd:01:e3:ed:7b:bf:16:62:e2:6f:cf:61:00:99:1b:e7:25:1c:
        21:ca:b9:ba:0d:60:a0:1c:16:cd:3b:b0:74:be:11:d7:c0:22:
        a6:12:e9:30:87:f2:6b:df:63:57:6b:dc:ee:90:91:d4:45:75:
        78:8b:88:c2:61:59:30:85:c4:86:c7:cb:79:48:82:19:c3:ee:
        47:6c:65:89:67:68:9b:a2:75:38:2d:74:f7:23:4a:e6:cc:b2:
        56:9c:26:8b:f0:9b:96:88:7b:e6:38:ad:36:6d:5d:83:5c:b5:
        09:b8:57:bc:46:be:b3:03:72:89:a2:3f:c6:2e:4c:4d:2b:9a:
        fe:b7:42:d5:61:35:4c:63:c4:31:9f:85:53:ed:63:b2:e6:39:
        d9:c7:3e:e7:98:91:a7:56:49:40:17:66:3a:21:23:f4:bf:fd:
        16:3a:10:2a:3e:cb:f6:ba:ef:d6:64:79:38:5b:d1:6a:b0:2c:
        65:93:05:c2:ee:55:ea:65:9a:37:35:4d:df:76:d1:d8:e7:a9:
        28:a7:34:2f
-----BEGIN CERTIFICATE-----
MIIDdDCCAlygAwIBAgIRAJcD1eHUWdx8f8IBFUZoFXswDQYJKoZIhvcNAQELBQAw
FTETMBEGA1UEAwwKdGVhbTk3LW5ldDAeFw0yMzExMDQxMDQyMTRaFw0yNjEwMTkx
MDQyMTRaMBgxFjAUBgNVBAMMDXRlYW05Ny1zZXJ2ZXIwggEiMA0GCSqGSIb3DQEB
AQUAA4IBDwAwggEKAoIBAQDGEoKvaUMMR/w3McI+LQvcM+WAAoNLKvYWFlTEEOhI
llGbmUrPB8OqVCBEk4YJRKNu8B5FILorwov++FTFeIaAjM3X6dKWOXJCFPzF+C70
+0PeTG6qUZtfL9oQ0s5Yv4Cgr7ISQXXYs6AUE4x2oUkJiRAMeFRqm54ickWtlADm
28VuZrVSB3K8ZEmOBweH5rU0Vzm6Ic3/LcVpzqBnkdJzCWeSTXN+K3oBR89DdqHt
W4GH11Ic+J1Aplyiv6lHXHDjFNNgqzDw5ydIQ7YfidvVSE+Xon/1OVBIIdlhsKoh
umCfNBAnzOigFs+6D5XyyNcqHWQamB3LBRhZRyUtKoqJAgMBAAGjgbswgbgwCQYD
VR0TBAIwADAdBgNVHQ4EFgQU4bMVadPsZifRNgkcm9Jph+AK8S8wUAYDVR0jBEkw
R4AUW5D7XqvB5CdUf1KI74SsrhQHTCChGaQXMBUxEzARBgNVBAMMCnRlYW05Ny1u
ZXSCFDxdVJCCcmiL3uCCJbbLFT22iJmeMBMGA1UdJQQMMAoGCCsGAQUFBwMBMAsG
A1UdDwQEAwIFoDAYBgNVHREEETAPgg10ZWFtOTctc2VydmVyMA0GCSqGSIb3DQEB
CwUAA4IBAQA9AFRhOGV0uVQt0xzYnpMlQNLjBZrmA0vyQYeQuSejJOthAqlOnhPQ
gamp3BsRi9x9Ll39imz9AePte78WYuJvz2EAmRvnJRwhyrm6DWCgHBbNO7B0vhHX
wCKmEukwh/Jr32NXa9zukJHURXV4i4jCYVkwhcSGx8t5SIIZw+5HbGWJZ2ibonU4
LXT3I0rmzLJWnCaL8JuWiHvmOK02bV2DXLUJuFe8Rr6zA3KJoj/GLkxNK5r+t0LV
YTVMY8Qxn4VT7WOy5jnZxz7nmJGnVklAF2Y6ISP0v/0WOhAqPsv2uu/WZHk4W9Fq
sCxlkwXC7lXqZZo3NU3fdtHY56kopzQv
-----END CERTIFICATE-----
