Certificate:
    Data:
        Version: 3 (0x2)
        Serial Number:
            07:10:b3:e3:f5:ba:76:8d:f9:76:46:0b:d2:90:18:51
        Signature Algorithm: sha256WithRSAEncryption
        Issuer: CN=team428-net
        Validity
            Not Before: Nov  4 11:37:04 2023 GMT
            Not After : Oct 19 11:37:04 2026 GMT
        Subject: CN=team428-server
        Subject Public Key Info:
            Public Key Algorithm: rsaEncryption
                Public-Key: (2048 bit)
                Modulus:
                    00:e1:6e:7d:2f:75:6f:24:bf:42:24:e3:34:ef:e3:
                    22:c2:68:ec:67:87:89:03:6f:9d:b6:35:72:f0:95:
                    db:ea:86:1b:20:8a:b3:24:f8:a4:26:05:8f:71:82:
                    43:84:d6:15:c5:e9:46:53:82:0e:36:7c:09:7e:87:
                    45:91:e3:ea:1e:fb:a0:f4:7f:90:95:6e:85:6a:82:
                    9e:00:c2:6a:26:cd:47:13:86:2c:5f:53:25:bc:69:
                    1a:98:52:c6:22:42:3f:25:26:b4:9c:36:e0:04:12:
                    ef:30:c2:b6:c4:a9:30:a7:58:be:1f:57:59:89:76:
                    61:fb:14:db:ba:b4:f9:02:24:e2:a9:5d:f8:08:2b:
                    62:71:d9:d0:1c:bc:dd:e0:ba:4c:5d:92:f2:1a:64:
                    df:0f:c6:71:6f:80:9e:67:47:e4:f6:fa:65:fc:a2:
                    01:9d:2e:1f:c4:81:1e:b9:75:d6:12:40:33:eb:28:
                    e1:29:ee:15:f4:2b:37:ee:e0:c9:32:fe:52:0a:75:
                    5f:e2:1e:15:a8:a7:46:da:69:d7:92:7d:fe:6e:75:
                    0b:3a:4e:49:70:a7:bc:a7:a6:37:58:72:38:1f:cf:
                    ee:e3:d0:64:f0:bc:e4:99:05:78:a7:ee:bd:cd:80:
                    ae:a7:15:8e:f8:f5:fe:70:9e:78:95:a9:ce:d8:1a:
                    5e:63
                Exponent: 65537 (0x10001)
        X509v3 extensions:
            X509v3 Basic Constraints: 
                CA:FALSE
            X509v3 Subject Key Identifier: 
                9B:36:1F:55:BB:00:DB:F7:9E:C9:79:DF:A1:39:75:79:02:35:47:81
            X509v3 Authority Key Identifier: 
                keyid:E7:F1:A8:35:BB:AA:DC:D8:4C:67:30:6A:40:CE:1B:02:C1:F4:C4:58
                DirName:/CN=team428-net
                serial:6E:4B:0F:4A:15:02:12:4A:4C:ED:31:5A:9C:26:C2:D1:AD:A5:B1:97
            X509v3 Extended Key Usage: 
                TLS Web Server Authentication
            X509v3 Key Usage: 
                Digital Signature, Key Encipherment
            X509v3 Subject Alternative Name: 
                DNS:team428-server
    Signature Algorithm: sha256WithRSAEncryption
    Signature Value:
        52:39:60:51:cb:a3:e4:3d:9b:a4:0d:46:2f:cc:d0:73:dd:7a:
        33:d2:9e:e1:39:05:4c:fc:ad:da:40:32:c1:4b:f7:0d:83:6d:
        a8:98:f2:ba:2b:da:ff:f5:d3:c4:59:18:ab:ad:64:40:42:08:
        a2:0c:87:78:60:fd:80:7a:44:3d:bd:ca:c4:f5:67:48:e8:ab:
        78:b7:8c:8a:30:60:58:b1:e1:20:81:0b:ba:d6:99:02:e7:7c:
        4e:ee:a3:6a:21:0d:d2:e0:11:f2:97:d0:c4:85:5e:b4:22:04:
        87:b1:93:82:81:4e:37:b2:4e:14:26:01:ed:82:33:9c:a8:73:
        29:fd:60:6d:9d:92:28:17:be:87:84:09:88:c8:a2:6d:d1:2d:
        af:3c:f4:7e:6a:33:19:2a:70:05:f7:0e:6d:b4:e9:55:6e:d8:
        95:b8:41:48:43:f7:02:28:fb:b5:a0:ad:5f:01:a6:29:cc:79:
        8c:31:a6:3d:58:58:a7:e5:db:42:95:fc:9c:a4:f6:c8:76:af:
        0d:fb:09:77:c3:c0:f9:dd:1a:d0:f3:65:52:12:4d:d7:5d:f8:
        36:3e:28:07:f4:84:05:76:68:96:e2:58:d5:4a:3e:c1:30:de:
        ae:cb:87:88:c4:00:68:12:fe:3c:3e:44:8c:54:a7:07:57:e0:
        ac:43:a8:ce
-----BEGIN CERTIFICATE-----
MIIDdzCCAl+gAwIBAgIQBxCz4/W6do35dkYL0pAYUTANBgkqhkiG9w0BAQsFADAW
MRQwEgYDVQQDDAt0ZWFtNDI4LW5ldDAeFw0yMzExMDQxMTM3MDRaFw0yNjEwMTkx
MTM3MDRaMBkxFzAVBgNVBAMMDnRlYW00Mjgtc2VydmVyMIIBIjANBgkqhkiG9w0B
AQEFAAOCAQ8AMIIBCgKCAQEA4W59L3VvJL9CJOM07+MiwmjsZ4eJA2+dtjVy8JXb
6oYbIIqzJPikJgWPcYJDhNYVxelGU4IONnwJfodFkePqHvug9H+QlW6FaoKeAMJq
Js1HE4YsX1MlvGkamFLGIkI/JSa0nDbgBBLvMMK2xKkwp1i+H1dZiXZh+xTburT5
AiTiqV34CCticdnQHLzd4LpMXZLyGmTfD8Zxb4CeZ0fk9vpl/KIBnS4fxIEeuXXW
EkAz6yjhKe4V9Cs37uDJMv5SCnVf4h4VqKdG2mnXkn3+bnULOk5JcKe8p6Y3WHI4
H8/u49Bk8LzkmQV4p+69zYCupxWO+PX+cJ54lanO2BpeYwIDAQABo4G9MIG6MAkG
A1UdEwQCMAAwHQYDVR0OBBYEFJs2H1W7ANv3nsl536E5dXkCNUeBMFEGA1UdIwRK
MEiAFOfxqDW7qtzYTGcwakDOGwLB9MRYoRqkGDAWMRQwEgYDVQQDDAt0ZWFtNDI4
LW5ldIIUbksPShUCEkpM7TFanCbC0a2lsZcwEwYDVR0lBAwwCgYIKwYBBQUHAwEw
CwYDVR0PBAQDAgWgMBkGA1UdEQQSMBCCDnRlYW00Mjgtc2VydmVyMA0GCSqGSIb3
DQEBCwUAA4IBAQBSOWBRy6PkPZukDUYvzNBz3Xoz0p7hOQVM/K3aQDLBS/cNg22o
mPK6K9r/9dPEWRirrWRAQgiiDId4YP2AekQ9vcrE9WdI6Kt4t4yKMGBYseEggQu6
1pkC53xO7qNqIQ3S4BHyl9DEhV60IgSHsZOCgU43sk4UJgHtgjOcqHMp/WBtnZIo
F76HhAmIyKJt0S2vPPR+ajMZKnAF9w5ttOlVbtiVuEFIQ/cCKPu1oK1fAaYpzHmM
MaY9WFin5dtClfycpPbIdq8N+wl3w8D53RrQ82VSEk3XXfg2PigH9IQFdmiW4ljV
Sj7BMN6uy4eIxABoEv48PkSMVKcHV+CsQ6jO
-----END CERTIFICATE-----
