Certificate:
    Data:
        Version: 3 (0x2)
        Serial Number:
            48:fb:a9:fb:d3:cf:af:f9:c3:3e:8f:b2:ff:98:e9:0a
        Signature Algorithm: sha256WithRSAEncryption
        Issuer: CN=team428-net
        Validity
            Not Before: Nov  4 10:48:20 2023 GMT
            Not After : Oct 19 10:48:20 2026 GMT
        Subject: CN=team428-server
        Subject Public Key Info:
            Public Key Algorithm: rsaEncryption
                Public-Key: (2048 bit)
                Modulus:
                    00:ac:58:82:e5:d6:dd:df:5b:55:66:44:70:74:a4:
                    a2:b6:81:f5:da:7b:b5:f3:7f:6e:34:4b:e6:d1:75:
                    31:7a:43:22:07:c5:14:68:39:94:f1:ac:48:72:af:
                    2a:e9:ad:e5:80:2a:02:7e:e1:97:89:23:e8:6e:98:
                    65:27:05:b2:3a:65:da:35:8b:0e:cd:c8:a3:c6:d2:
                    38:7c:76:dc:eb:21:6e:d9:9f:56:aa:35:e1:54:47:
                    ce:38:85:2c:25:43:75:14:90:6b:3e:ce:68:50:6d:
                    22:4e:9c:e9:42:5f:b5:81:b4:d9:07:b1:32:31:4e:
                    d3:48:92:ab:09:db:d0:f9:a8:b1:19:d9:b5:64:0a:
                    87:70:50:06:77:1c:7c:ab:28:1d:e6:55:ef:cf:55:
                    5c:37:13:cf:0f:15:31:12:1b:10:4a:e0:3e:af:73:
                    27:5f:b1:5c:7d:8b:f0:1b:30:1c:44:cd:ed:fa:d5:
                    09:68:00:cd:e2:ac:43:d5:3e:03:a6:6f:c0:bf:df:
                    24:66:50:fb:97:0d:39:55:57:64:a9:33:ef:fc:56:
                    f5:59:62:cc:63:39:1a:55:d5:36:e6:6f:12:fc:8f:
                    66:f2:6c:f7:aa:82:c9:58:03:ae:8e:d4:06:06:2e:
                    93:d4:3f:4f:65:3a:46:11:89:c3:db:1a:58:8a:51:
                    56:65
                Exponent: 65537 (0x10001)
        X509v3 extensions:
            X509v3 Basic Constraints: 
                CA:FALSE
            X509v3 Subject Key Identifier: 
                EA:17:B7:DE:79:A0:65:34:A8:37:4E:06:D3:C7:9F:E1:38:A3:9A:F9
            X509v3 Authority Key Identifier: 
                keyid:6A:44:45:50:28:91:AB:6E:3A:00:BE:B5:D2:A3:66:DF:2C:0D:12:0A
                DirName:/CN=team428-net
                serial:28:E8:10:F1:1A:B7:91:7F:56:EA:18:96:8E:26:8D:0D:98:8C:D4:0B
            X509v3 Extended Key Usage: 
                TLS Web Server Authentication
            X509v3 Key Usage: 
                Digital Signature, Key Encipherment
            X509v3 Subject Alternative Name: 
                DNS:team428-server
    Signature Algorithm: sha256WithRSAEncryption
    Signature Value:
        2c:18:ee:ed:d7:5c:f9:e5:4a:45:8f:83:c0:63:76:c9:72:29:
        4f:8e:31:e8:70:5d:29:53:2d:f1:c2:ef:1b:42:60:bc:74:02:
        6c:f3:9e:1a:fd:39:bc:1e:d9:fe:b0:a4:c8:42:a6:11:e3:9e:
        8d:3b:88:ce:13:5b:4f:05:b7:5e:9e:77:3d:05:df:7b:cc:a7:
        c9:60:39:03:a7:d6:c6:2d:7a:5d:70:ac:68:a5:ae:bd:c8:b5:
        0c:d4:8b:1c:50:a1:92:43:ad:9c:58:ee:6e:df:15:99:3c:ae:
        94:94:89:01:ae:f5:b2:37:3d:c1:88:24:73:90:b1:29:13:aa:
        51:5e:30:be:9c:f0:3d:20:60:04:ab:1d:77:13:81:75:d3:a3:
        6b:02:19:51:9f:96:51:fb:15:38:fd:9e:09:78:81:7d:0b:83:
        ff:ba:4b:3c:48:ff:e8:ee:94:60:85:22:68:3f:f0:ed:ad:00:
        a3:95:36:a2:53:2c:24:34:e9:21:0d:9e:b4:b4:dc:54:8d:ae:
        d2:b6:5a:cd:b1:ae:bf:07:dc:23:5d:4d:e8:83:cd:51:27:82:
        c3:6d:f2:1c:a8:0f:45:4e:0f:15:50:12:b8:67:ff:39:d4:5f:
        13:0e:17:87:02:0a:31:77:d8:59:82:22:e7:b7:c7:aa:69:2a:
        ac:e8:0d:a7
-----BEGIN CERTIFICATE-----
MIIDdzCCAl+gAwIBAgIQSPup+9PPr/nDPo+y/5jpCjANBgkqhkiG9w0BAQsFADAW
MRQwEgYDVQQDDAt0ZWFtNDI4LW5ldDAeFw0yMzExMDQxMDQ4MjBaFw0yNjEwMTkx
MDQ4MjBaMBkxFzAVBgNVBAMMDnRlYW00Mjgtc2VydmVyMIIBIjANBgkqhkiG9w0B
AQEFAAOCAQ8AMIIBCgKCAQEArFiC5dbd31tVZkRwdKSitoH12nu1839uNEvm0XUx
ekMiB8UUaDmU8axIcq8q6a3lgCoCfuGXiSPobphlJwWyOmXaNYsOzcijxtI4fHbc
6yFu2Z9WqjXhVEfOOIUsJUN1FJBrPs5oUG0iTpzpQl+1gbTZB7EyMU7TSJKrCdvQ
+aixGdm1ZAqHcFAGdxx8qygd5lXvz1VcNxPPDxUxEhsQSuA+r3MnX7FcfYvwGzAc
RM3t+tUJaADN4qxD1T4Dpm/Av98kZlD7lw05VVdkqTPv/Fb1WWLMYzkaVdU25m8S
/I9m8mz3qoLJWAOujtQGBi6T1D9PZTpGEYnD2xpYilFWZQIDAQABo4G9MIG6MAkG
A1UdEwQCMAAwHQYDVR0OBBYEFOoXt955oGU0qDdOBtPHn+E4o5r5MFEGA1UdIwRK
MEiAFGpERVAokatuOgC+tdKjZt8sDRIKoRqkGDAWMRQwEgYDVQQDDAt0ZWFtNDI4
LW5ldIIUKOgQ8Rq3kX9W6hiWjiaNDZiM1AswEwYDVR0lBAwwCgYIKwYBBQUHAwEw
CwYDVR0PBAQDAgWgMBkGA1UdEQQSMBCCDnRlYW00Mjgtc2VydmVyMA0GCSqGSIb3
DQEBCwUAA4IBAQAsGO7t11z55UpFj4PAY3bJcilPjjHocF0pUy3xwu8bQmC8dAJs
854a/Tm8Htn+sKTIQqYR456NO4jOE1tPBbdennc9Bd97zKfJYDkDp9bGLXpdcKxo
pa69yLUM1IscUKGSQ62cWO5u3xWZPK6UlIkBrvWyNz3BiCRzkLEpE6pRXjC+nPA9
IGAEqx13E4F106NrAhlRn5ZR+xU4/Z4JeIF9C4P/uks8SP/o7pRghSJoP/DtrQCj
lTaiUywkNOkhDZ60tNxUja7StlrNsa6/B9wjXU3og81RJ4LDbfIcqA9FTg8VUBK4
Z/851F8TDheHAgoxd9hZgiLnt8eqaSqs6A2n
-----END CERTIFICATE-----
