Certificate:
    Data:
        Version: 3 (0x2)
        Serial Number:
            a1:e4:26:cd:e0:c1:15:37:71:b2:17:2a:df:38:4d:aa
        Signature Algorithm: sha256WithRSAEncryption
        Issuer: CN=team428-net
        Validity
            Not Before: Nov  4 11:37:04 2023 GMT
            Not After : Oct 19 11:37:04 2026 GMT
        Subject: CN=team428-client
        Subject Public Key Info:
            Public Key Algorithm: rsaEncryption
                Public-Key: (2048 bit)
                Modulus:
                    00:c8:36:ee:88:b4:72:6c:bc:b9:23:b5:c1:c3:02:
                    47:ff:87:81:7c:c4:2e:b8:b4:eb:99:df:28:26:b5:
                    3b:c5:36:40:da:b2:58:e6:e1:83:50:ec:ba:09:2c:
                    36:58:b6:c5:83:fa:8c:e6:20:0a:49:2a:71:2c:97:
                    95:3c:6a:a6:10:99:61:d9:02:84:ba:9f:93:ca:26:
                    06:82:94:0f:84:1b:7e:9e:d9:ad:c4:33:2b:ad:ba:
                    e8:1f:6e:ed:cf:45:c1:3f:a3:df:7f:9e:fd:96:3b:
                    d0:e2:7e:05:f4:98:82:35:91:71:2f:dc:39:73:77:
                    b7:7f:60:fa:46:9f:a3:94:c1:91:59:d2:eb:c5:1a:
                    d1:72:6d:b3:3c:5e:7a:c2:50:b7:99:09:d7:48:c0:
                    fc:90:bf:d9:b3:ec:9d:3a:d5:e8:55:81:38:43:c7:
                    8b:05:4d:ac:cb:7a:9a:8f:f5:a2:14:90:cd:76:7e:
                    10:e2:9e:21:b4:41:f3:91:b2:c5:d7:b3:85:b7:61:
                    e5:05:d9:75:65:b1:35:ce:5b:49:7d:90:a3:30:30:
                    05:47:6d:17:6c:ec:c9:6c:5a:63:0a:b9:a0:e7:1a:
                    45:21:e1:00:41:f2:0b:c4:66:68:b1:af:dc:af:6c:
                    2f:a1:cb:58:21:8d:24:f7:3d:94:7c:b9:79:c5:36:
                    be:a9
                Exponent: 65537 (0x10001)
        X509v3 extensions:
            X509v3 Basic Constraints: 
                CA:FALSE
            X509v3 Subject Key Identifier: 
                E7:E6:42:1F:44:CF:5A:F9:BD:34:5B:B5:F3:4E:48:F2:3F:46:E5:57
            X509v3 Authority Key Identifier: 
                keyid:E7:F1:A8:35:BB:AA:DC:D8:4C:67:30:6A:40:CE:1B:02:C1:F4:C4:58
                DirName:/CN=team428-net
                serial:6E:4B:0F:4A:15:02:12:4A:4C:ED:31:5A:9C:26:C2:D1:AD:A5:B1:97
            X509v3 Extended Key Usage: 
                TLS Web Client Authentication
            X509v3 Key Usage: 
                Digital Signature
    Signature Algorithm: sha256WithRSAEncryption
    Signature Value:
        8f:3a:8c:03:ba:1d:fd:63:8b:5b:13:5e:13:ca:5e:0d:06:25:
        be:de:7e:41:e9:11:db:d5:b5:c2:7d:28:ed:ff:d4:14:60:cd:
        9e:19:53:39:99:b7:5b:8d:72:7e:e4:99:15:1f:e1:be:7d:9d:
        a9:b6:8e:ed:96:6a:f7:56:4a:94:0f:9b:00:5e:f7:71:61:9d:
        84:dc:47:fd:cf:0a:03:27:91:fc:51:98:08:0a:22:86:fc:17:
        4c:39:81:72:20:c3:cb:e3:5d:19:9a:44:b0:1a:9d:66:20:fe:
        fd:d0:fd:0f:c2:bf:8a:17:4f:96:02:12:4b:68:4e:ba:18:64:
        5e:d2:30:e6:b9:a2:a9:b7:72:57:bb:d2:d3:f2:42:38:f5:9a:
        aa:69:bd:26:32:1f:40:61:32:d4:aa:b0:57:54:f2:0d:6f:cf:
        3c:5a:b1:b5:90:70:e0:69:d4:7e:a6:98:27:96:ce:d5:8e:e6:
        f4:cf:bc:b5:e3:90:2a:cc:f6:8e:4b:d5:04:d9:f1:e7:62:6e:
        d9:52:9c:ef:28:0d:89:6a:6e:86:81:ea:2a:cd:d5:6a:44:e9:
        35:f8:f9:53:8c:b2:a8:7e:15:44:41:e4:78:67:cb:9e:1d:2a:
        45:73:01:f6:d6:1b:74:f9:74:c5:d8:a2:19:9c:00:55:a7:14:
        af:d0:ab:e0
-----BEGIN CERTIFICATE-----
MIIDXTCCAkWgAwIBAgIRAKHkJs3gwRU3cbIXKt84TaowDQYJKoZIhvcNAQELBQAw
FjEUMBIGA1UEAwwLdGVhbTQyOC1uZXQwHhcNMjMxMTA0MTEzNzA0WhcNMjYxMDE5
MTEzNzA0WjAZMRcwFQYDVQQDDA50ZWFtNDI4LWNsaWVudDCCASIwDQYJKoZIhvcN
AQEBBQADggEPADCCAQoCggEBAMg27oi0cmy8uSO1wcMCR/+HgXzELri065nfKCa1
O8U2QNqyWObhg1DsugksNli2xYP6jOYgCkkqcSyXlTxqphCZYdkChLqfk8omBoKU
D4Qbfp7ZrcQzK6266B9u7c9FwT+j33+e/ZY70OJ+BfSYgjWRcS/cOXN3t39g+kaf
o5TBkVnS68Ua0XJtszxeesJQt5kJ10jA/JC/2bPsnTrV6FWBOEPHiwVNrMt6mo/1
ohSQzXZ+EOKeIbRB85Gyxdezhbdh5QXZdWWxNc5bSX2QozAwBUdtF2zsyWxaYwq5
oOcaRSHhAEHyC8RmaLGv3K9sL6HLWCGNJPc9lHy5ecU2vqkCAwEAAaOBojCBnzAJ
BgNVHRMEAjAAMB0GA1UdDgQWBBTn5kIfRM9a+b00W7XzTkjyP0blVzBRBgNVHSME
SjBIgBTn8ag1u6rc2ExnMGpAzhsCwfTEWKEapBgwFjEUMBIGA1UEAwwLdGVhbTQy
OC1uZXSCFG5LD0oVAhJKTO0xWpwmwtGtpbGXMBMGA1UdJQQMMAoGCCsGAQUFBwMC
MAsGA1UdDwQEAwIHgDANBgkqhkiG9w0BAQsFAAOCAQEAjzqMA7od/WOLWxNeE8pe
DQYlvt5+QekR29W1wn0o7f/UFGDNnhlTOZm3W41yfuSZFR/hvn2dqbaO7ZZq91ZK
lA+bAF73cWGdhNxH/c8KAyeR/FGYCAoihvwXTDmBciDDy+NdGZpEsBqdZiD+/dD9
D8K/ihdPlgISS2hOuhhkXtIw5rmiqbdyV7vS0/JCOPWaqmm9JjIfQGEy1KqwV1Ty
DW/PPFqxtZBw4GnUfqaYJ5bO1Y7m9M+8teOQKsz2jkvVBNnx52Ju2VKc7ygNiWpu
hoHqKs3VakTpNfj5U4yyqH4VREHkeGfLnh0qRXMB9tYbdPl0xdiiGZwAVacUr9Cr
4A==
-----END CERTIFICATE-----
