Certificate:
    Data:
        Version: 3 (0x2)
        Serial Number:
            e6:69:f3:56:de:29:02:1e:9f:59:96:d6:17:14:71:1f
        Signature Algorithm: sha256WithRSAEncryption
        Issuer: CN=team428-net
        Validity
            Not Before: Nov  4 10:48:20 2023 GMT
            Not After : Oct 19 10:48:20 2026 GMT
        Subject: CN=team428-client
        Subject Public Key Info:
            Public Key Algorithm: rsaEncryption
                Public-Key: (2048 bit)
                Modulus:
                    00:8f:ee:e1:d7:57:04:a0:43:02:ef:7d:47:4e:6c:
                    74:70:fc:12:3e:e6:46:ea:df:16:92:7a:84:d9:d0:
                    cd:dc:8d:ea:c6:81:75:61:cb:7a:81:08:c2:85:fd:
                    c0:cf:c0:22:06:2c:2f:bf:58:5e:db:e4:03:99:0b:
                    4d:70:ce:83:1a:53:29:5e:3c:de:4c:a9:eb:ab:eb:
                    23:9e:b3:65:44:db:57:43:d8:02:7e:db:f3:17:ea:
                    1e:ed:b0:63:c8:0d:37:6c:ee:9f:80:49:78:33:84:
                    e2:6c:75:55:c5:1d:1b:5a:33:b5:e4:21:57:30:f9:
                    cf:50:b0:94:ef:ce:37:c3:8d:1d:d6:94:23:c5:4f:
                    99:67:d7:a7:70:fc:4d:be:e5:8d:ce:ce:31:6e:35:
                    41:5f:57:b1:08:ae:49:d9:8a:a7:6d:0e:98:05:c7:
                    f1:8a:ef:3b:0c:d8:27:c7:df:00:10:4c:6b:4d:9c:
                    af:97:a6:8e:48:e4:3c:a1:13:f4:9f:df:02:f8:ca:
                    24:49:04:7b:5a:04:8a:d1:cf:32:35:3d:f2:4d:0e:
                    4b:ed:7a:39:a7:1d:56:85:7b:64:74:0f:9e:dd:91:
                    20:71:15:b8:f1:4d:a6:b9:cf:c1:97:b0:69:9a:b4:
                    9f:95:f7:e2:89:73:21:b7:91:fb:3f:29:ef:6f:8a:
                    b0:1d
                Exponent: 65537 (0x10001)
        X509v3 extensions:
            X509v3 Basic Constraints: 
                CA:FALSE
            X509v3 Subject Key Identifier: 
                E2:48:2D:83:26:31:CB:1B:9F:98:28:18:91:47:03:5A:DC:8A:F3:2F
            X509v3 Authority Key Identifier: 
                keyid:6A:44:45:50:28:91:AB:6E:3A:00:BE:B5:D2:A3:66:DF:2C:0D:12:0A
                DirName:/CN=team428-net
                serial:28:E8:10:F1:1A:B7:91:7F:56:EA:18:96:8E:26:8D:0D:98:8C:D4:0B
            X509v3 Extended Key Usage: 
                TLS Web Client Authentication
            X509v3 Key Usage: 
                Digital Signature
    Signature Algorithm: sha256WithRSAEncryption
    Signature Value:
        7d:fa:83:ec:14:83:2a:9c:5f:9a:7b:53:98:ca:d3:f5:2e:cf:
        a6:65:47:ee:95:36:40:75:e3:61:3d:e8:d9:7b:be:b9:1e:22:
        88:c2:6d:55:c9:3f:5c:8e:15:c0:78:28:28:6b:37:a1:c5:ac:
        1a:86:f6:55:8b:86:fc:ea:a0:4b:ce:5c:d0:02:20:92:d2:50:
        34:62:05:fa:4c:6a:fa:1a:18:b5:4a:9d:d8:1b:e0:e8:13:cf:
        8d:c2:42:0a:82:d2:31:cd:70:5c:4f:88:01:56:aa:2b:56:a3:
        19:7e:64:72:a7:d6:98:3b:c8:4e:46:28:5d:38:09:03:ed:f1:
        6d:a3:27:9d:10:99:e8:63:65:2d:80:9a:1a:b4:49:26:14:62:
        05:3a:b9:9a:be:13:48:b0:39:84:71:4d:e2:73:05:04:d8:f3:
        b5:4d:a1:ad:09:44:11:f2:8f:c8:62:f0:96:96:c6:62:06:af:
        1d:52:fe:e4:03:ff:40:32:a5:b6:59:f5:d2:50:be:05:e9:83:
        9f:05:4b:68:78:8f:8b:58:7a:d8:7b:32:a4:78:f8:2e:93:50:
        eb:e2:19:cd:05:89:5f:ff:c5:d4:a9:9b:64:c2:5a:27:2c:5f:
        b0:ab:58:4d:a7:28:7b:9e:94:d0:d7:09:37:7e:ac:d0:1d:36:
        95:64:72:4f
-----BEGIN CERTIFICATE-----
MIIDXTCCAkWgAwIBAgIRAOZp81beKQIen1mW1hcUcR8wDQYJKoZIhvcNAQELBQAw
FjEUMBIGA1UEAwwLdGVhbTQyOC1uZXQwHhcNMjMxMTA0MTA0ODIwWhcNMjYxMDE5
MTA0ODIwWjAZMRcwFQYDVQQDDA50ZWFtNDI4LWNsaWVudDCCASIwDQYJKoZIhvcN
AQEBBQADggEPADCCAQoCggEBAI/u4ddXBKBDAu99R05sdHD8Ej7mRurfFpJ6hNnQ
zdyN6saBdWHLeoEIwoX9wM/AIgYsL79YXtvkA5kLTXDOgxpTKV483kyp66vrI56z
ZUTbV0PYAn7b8xfqHu2wY8gNN2zun4BJeDOE4mx1VcUdG1ozteQhVzD5z1CwlO/O
N8ONHdaUI8VPmWfXp3D8Tb7ljc7OMW41QV9XsQiuSdmKp20OmAXH8YrvOwzYJ8ff
ABBMa02cr5emjkjkPKET9J/fAvjKJEkEe1oEitHPMjU98k0OS+16OacdVoV7ZHQP
nt2RIHEVuPFNprnPwZewaZq0n5X34olzIbeR+z8p72+KsB0CAwEAAaOBojCBnzAJ
BgNVHRMEAjAAMB0GA1UdDgQWBBTiSC2DJjHLG5+YKBiRRwNa3IrzLzBRBgNVHSME
SjBIgBRqREVQKJGrbjoAvrXSo2bfLA0SCqEapBgwFjEUMBIGA1UEAwwLdGVhbTQy
OC1uZXSCFCjoEPEat5F/VuoYlo4mjQ2YjNQLMBMGA1UdJQQMMAoGCCsGAQUFBwMC
MAsGA1UdDwQEAwIHgDANBgkqhkiG9w0BAQsFAAOCAQEAffqD7BSDKpxfmntTmMrT
9S7PpmVH7pU2QHXjYT3o2Xu+uR4iiMJtVck/XI4VwHgoKGs3ocWsGob2VYuG/Oqg
S85c0AIgktJQNGIF+kxq+hoYtUqd2Bvg6BPPjcJCCoLSMc1wXE+IAVaqK1ajGX5k
cqfWmDvITkYoXTgJA+3xbaMnnRCZ6GNlLYCaGrRJJhRiBTq5mr4TSLA5hHFN4nMF
BNjztU2hrQlEEfKPyGLwlpbGYgavHVL+5AP/QDKltln10lC+BemDnwVLaHiPi1h6
2HsypHj4LpNQ6+IZzQWJX//F1KmbZMJaJyxfsKtYTacoe56U0NcJN36s0B02lWRy
Tw==
-----END CERTIFICATE-----
