Certificate:
    Data:
        Version: 3 (0x2)
        Serial Number:
            17:a3:7c:1b:33:84:70:bc:03:d3:05:b8:bf:83:c6:e7
        Signature Algorithm: sha256WithRSAEncryption
        Issuer: CN=team187-net
        Validity
            Not Before: Nov  4 11:31:19 2023 GMT
            Not After : Oct 19 11:31:19 2026 GMT
        Subject: CN=team187-client
        Subject Public Key Info:
            Public Key Algorithm: rsaEncryption
                Public-Key: (2048 bit)
                Modulus:
                    00:ba:cf:1b:c8:ab:7d:e4:dc:5d:02:0e:d7:73:c5:
                    a3:ee:54:e1:72:e1:2f:32:6f:04:63:bf:d9:f0:29:
                    88:eb:6f:df:25:22:48:ed:d6:95:66:1d:b4:39:66:
                    ab:ac:d7:db:af:96:f9:f2:b7:e8:2f:b5:09:64:d8:
                    2d:e8:d3:eb:df:a4:d2:1d:fe:2a:6b:84:b7:5a:5d:
                    b4:2b:c7:2a:9b:bf:53:8a:18:5b:a8:1f:71:63:32:
                    68:2d:65:d5:4f:0d:00:8a:04:65:6c:a1:02:11:2f:
                    e5:6b:8b:0d:31:10:ed:aa:68:fe:35:77:0c:6f:21:
                    00:94:fe:56:3e:94:2b:3d:32:36:71:7c:6d:ed:0f:
                    e2:8e:c6:ba:74:fe:aa:43:d7:ab:6c:4d:47:ef:3c:
                    20:b2:4f:3a:be:63:1e:a4:ba:f5:d6:ac:f0:74:da:
                    9f:6a:2e:85:3f:95:c3:e4:c1:ce:d0:43:a8:e8:bf:
                    3b:46:33:0b:ab:89:e3:37:99:5f:e4:10:30:70:48:
                    ae:98:86:f9:6c:05:2f:b2:12:22:b3:6a:e0:51:3b:
                    11:56:45:5b:80:2c:66:47:3d:95:5c:97:e8:00:a0:
                    b6:6e:f5:10:fa:46:48:72:80:05:eb:0f:d8:8e:e1:
                    4e:7e:a9:bc:a8:8d:a8:8a:57:01:10:85:62:7c:32:
                    ff:c5
                Exponent: 65537 (0x10001)
        X509v3 extensions:
            X509v3 Basic Constraints: 
                CA:FALSE
            X509v3 Subject Key Identifier: 
                62:E7:FF:E4:C6:FF:71:3F:B0:99:5E:A9:99:D6:E1:26:CB:10:B5:63
            X509v3 Authority Key Identifier: 
                keyid:92:43:95:01:CA:CB:83:B2:78:3D:62:AE:AB:52:81:B4:FF:EF:72:23
                DirName:/CN=team187-net
                serial:5C:78:B0:04:F7:05:50:5F:D9:92:22:38:11:29:93:5D:51:A5:7B:89
            X509v3 Extended Key Usage: 
                TLS Web Client Authentication
            X509v3 Key Usage: 
                Digital Signature
    Signature Algorithm: sha256WithRSAEncryption
    Signature Value:
        24:fd:2a:7e:52:28:7e:cb:36:42:1b:69:e7:e8:5a:8d:71:9a:
        37:ea:ee:00:33:53:b4:49:7c:55:5e:1f:9e:82:22:97:60:52:
        b5:09:2f:a4:5b:e9:bd:d1:ad:eb:d8:19:f0:b9:e1:93:ac:e9:
        9e:32:81:6a:27:f6:ee:db:94:47:ce:a5:b9:35:14:db:ac:37:
        40:aa:75:a3:4a:65:e1:c2:33:82:af:fa:15:5b:62:45:4a:cd:
        74:03:6c:6e:fa:7e:3e:da:a2:84:5d:2e:e6:91:7c:10:34:d8:
        22:64:a4:b8:16:2d:5b:35:a4:38:ad:6c:3b:8d:ce:ad:f8:c9:
        30:b5:f6:bc:23:f2:ef:e8:52:e6:ce:b6:b5:85:c1:df:9c:c8:
        c4:34:8a:fe:cc:1f:89:5b:fb:3b:33:2d:d4:5e:09:f9:44:ad:
        ec:62:d7:b3:49:7a:8c:5d:b0:a9:1e:8a:3c:87:f9:24:94:77:
        6f:2f:a8:b8:df:9d:2f:c5:a7:3a:84:dc:ff:7c:58:f1:f1:17:
        87:8c:34:ab:7e:c6:04:31:99:6c:af:3f:3b:20:8c:cd:87:f8:
        87:47:ea:0a:86:94:81:e8:94:9a:a6:14:df:87:ee:96:10:74:
        12:04:02:00:41:4d:fe:9c:fc:c6:05:6f:66:9f:3f:f2:8a:c6:
        d1:2b:17:48
-----BEGIN CERTIFICATE-----
MIIDXDCCAkSgAwIBAgIQF6N8GzOEcLwD0wW4v4PG5zANBgkqhkiG9w0BAQsFADAW
MRQwEgYDVQQDDAt0ZWFtMTg3LW5ldDAeFw0yMzExMDQxMTMxMTlaFw0yNjEwMTkx
MTMxMTlaMBkxFzAVBgNVBAMMDnRlYW0xODctY2xpZW50MIIBIjANBgkqhkiG9w0B
AQEFAAOCAQ8AMIIBCgKCAQEAus8byKt95NxdAg7Xc8Wj7lThcuEvMm8EY7/Z8CmI
62/fJSJI7daVZh20OWarrNfbr5b58rfoL7UJZNgt6NPr36TSHf4qa4S3Wl20K8cq
m79TihhbqB9xYzJoLWXVTw0AigRlbKECES/la4sNMRDtqmj+NXcMbyEAlP5WPpQr
PTI2cXxt7Q/ijsa6dP6qQ9erbE1H7zwgsk86vmMepLr11qzwdNqfai6FP5XD5MHO
0EOo6L87RjMLq4njN5lf5BAwcEiumIb5bAUvshIis2rgUTsRVkVbgCxmRz2VXJfo
AKC2bvUQ+kZIcoAF6w/YjuFOfqm8qI2oilcBEIVifDL/xQIDAQABo4GiMIGfMAkG
A1UdEwQCMAAwHQYDVR0OBBYEFGLn/+TG/3E/sJleqZnW4SbLELVjMFEGA1UdIwRK
MEiAFJJDlQHKy4OyeD1irqtSgbT/73IjoRqkGDAWMRQwEgYDVQQDDAt0ZWFtMTg3
LW5ldIIUXHiwBPcFUF/ZkiI4ESmTXVGle4kwEwYDVR0lBAwwCgYIKwYBBQUHAwIw
CwYDVR0PBAQDAgeAMA0GCSqGSIb3DQEBCwUAA4IBAQAk/Sp+Uih+yzZCG2nn6FqN
cZo36u4AM1O0SXxVXh+egiKXYFK1CS+kW+m90a3r2BnwueGTrOmeMoFqJ/bu25RH
zqW5NRTbrDdAqnWjSmXhwjOCr/oVW2JFSs10A2xu+n4+2qKEXS7mkXwQNNgiZKS4
Fi1bNaQ4rWw7jc6t+Mkwtfa8I/Lv6FLmzra1hcHfnMjENIr+zB+JW/s7My3UXgn5
RK3sYtezSXqMXbCpHoo8h/kklHdvL6i4350vxac6hNz/fFjx8ReHjDSrfsYEMZls
rz87IIzNh/iHR+oKhpSB6JSaphTfh+6WEHQSBAIAQU3+nPzGBW9mnz/yisbRKxdI
-----END CERTIFICATE-----
