Certificate:
    Data:
        Version: 3 (0x2)
        Serial Number:
            1c:75:8c:5e:49:08:36:b7:8b:c2:81:23:bd:cf:c9:5b
        Signature Algorithm: sha256WithRSAEncryption
        Issuer: CN=team187-net
        Validity
            Not Before: Nov  4 10:44:00 2023 GMT
            Not After : Oct 19 10:44:00 2026 GMT
        Subject: CN=team187-server
        Subject Public Key Info:
            Public Key Algorithm: rsaEncryption
                Public-Key: (2048 bit)
                Modulus:
                    00:b1:f9:0a:33:6c:66:23:6d:dd:2e:5a:b1:71:6b:
                    36:f3:fb:6d:d5:44:48:ec:05:59:62:4e:25:db:f6:
                    e3:f7:c3:c8:87:88:38:03:bc:41:44:0f:87:12:e3:
                    81:7e:fd:58:c6:4e:1b:58:02:92:2c:11:20:f2:41:
                    dc:bd:88:6d:f6:99:ed:34:b9:25:a4:bb:d2:bc:f4:
                    46:ac:77:d2:22:3a:a5:80:0c:78:91:97:5c:be:aa:
                    9b:59:05:c0:bf:d8:3d:76:4b:e4:44:a3:f7:72:e9:
                    86:cf:8a:36:73:e5:7a:f1:f9:1e:73:fd:30:ac:ad:
                    42:b8:98:a8:63:db:2c:a7:be:67:d2:7b:a8:98:f3:
                    09:1f:6f:97:f1:c0:40:67:98:25:56:72:69:c7:d4:
                    27:0e:32:34:20:33:63:87:a6:d2:75:fb:70:74:93:
                    fe:ee:e3:85:1b:aa:9a:34:1c:15:89:80:d9:5f:8c:
                    d0:c6:13:4e:f3:53:bc:b0:fa:2e:09:26:95:d4:5d:
                    22:bf:06:f5:3e:40:aa:24:01:55:97:6f:c8:0a:fc:
                    66:7f:86:d9:41:52:b5:f4:4e:37:b0:50:49:78:69:
                    f9:fb:db:fc:c5:15:92:01:5b:bb:8d:8b:c9:05:8c:
                    04:3c:b7:83:a2:33:7b:99:3c:5f:8f:88:15:8e:80:
                    fd:a9
                Exponent: 65537 (0x10001)
        X509v3 extensions:
            X509v3 Basic Constraints: 
                CA:FALSE
            X509v3 Subject Key Identifier: 
                B4:E2:D0:FF:37:B5:52:45:08:D5:5D:11:62:4E:64:A5:85:DD:EA:F3
            X509v3 Authority Key Identifier: 
                keyid:99:F0:F5:A7:1E:2B:31:71:7D:05:27:6F:83:0A:73:68:A7:9B:03:29
                DirName:/CN=team187-net
                serial:73:5F:7B:91:23:A5:25:C2:D9:69:88:95:96:20:18:69:1A:D7:56:31
            X509v3 Extended Key Usage: 
                TLS Web Server Authentication
            X509v3 Key Usage: 
                Digital Signature, Key Encipherment
            X509v3 Subject Alternative Name: 
                DNS:team187-server
    Signature Algorithm: sha256WithRSAEncryption
    Signature Value:
        28:64:b5:e3:8b:6e:a4:cd:7a:3e:ac:6c:1a:23:60:ad:6b:2c:
        4e:7d:db:dc:bd:61:a3:f0:04:53:a1:8c:57:10:4c:bb:86:ad:
        48:48:68:75:d3:55:84:e5:e4:c7:30:a8:29:43:eb:bd:fb:1c:
        10:97:13:1b:a4:c5:ec:a2:8c:06:17:f7:ce:4c:d5:a1:07:44:
        82:33:7f:05:83:9d:c5:67:1e:11:d3:03:c0:69:ef:02:e4:25:
        99:d5:22:c8:07:aa:bf:d7:84:5b:d8:da:54:fe:79:c8:bd:9f:
        59:6f:2a:39:2f:00:68:a5:da:dc:d3:36:7c:66:cf:b7:82:0f:
        60:8a:a8:b7:61:f0:98:c6:97:d9:7f:96:8e:eb:af:15:6c:2b:
        da:c3:86:a5:bb:54:bf:7c:8d:ec:97:51:a4:da:99:ca:46:29:
        cf:e3:24:18:8d:4d:c7:a0:a5:26:b5:d4:f3:69:77:c0:82:15:
        83:c5:11:f1:65:8e:22:54:b9:06:0c:68:56:a9:62:8f:21:a8:
        e3:0b:53:83:16:ff:5a:a3:f9:e4:0d:69:1d:4d:19:a5:49:83:
        66:cc:e3:a4:01:75:45:0b:60:6d:31:80:b8:7e:d2:e3:98:00:
        1b:e9:33:ff:2d:ba:77:29:21:fd:3e:26:73:b0:27:b0:6c:89:
        13:b1:d6:ac
-----BEGIN CERTIFICATE-----
MIIDdzCCAl+gAwIBAgIQHHWMXkkINreLwoEjvc/JWzANBgkqhkiG9w0BAQsFADAW
MRQwEgYDVQQDDAt0ZWFtMTg3LW5ldDAeFw0yMzExMDQxMDQ0MDBaFw0yNjEwMTkx
MDQ0MDBaMBkxFzAVBgNVBAMMDnRlYW0xODctc2VydmVyMIIBIjANBgkqhkiG9w0B
AQEFAAOCAQ8AMIIBCgKCAQEAsfkKM2xmI23dLlqxcWs28/tt1URI7AVZYk4l2/bj
98PIh4g4A7xBRA+HEuOBfv1Yxk4bWAKSLBEg8kHcvYht9pntNLklpLvSvPRGrHfS
IjqlgAx4kZdcvqqbWQXAv9g9dkvkRKP3cumGz4o2c+V68fkec/0wrK1CuJioY9ss
p75n0nuomPMJH2+X8cBAZ5glVnJpx9QnDjI0IDNjh6bSdftwdJP+7uOFG6qaNBwV
iYDZX4zQxhNO81O8sPouCSaV1F0ivwb1PkCqJAFVl2/ICvxmf4bZQVK19E43sFBJ
eGn5+9v8xRWSAVu7jYvJBYwEPLeDojN7mTxfj4gVjoD9qQIDAQABo4G9MIG6MAkG
A1UdEwQCMAAwHQYDVR0OBBYEFLTi0P83tVJFCNVdEWJOZKWF3erzMFEGA1UdIwRK
MEiAFJnw9aceKzFxfQUnb4MKc2inmwMpoRqkGDAWMRQwEgYDVQQDDAt0ZWFtMTg3
LW5ldIIUc197kSOlJcLZaYiVliAYaRrXVjEwEwYDVR0lBAwwCgYIKwYBBQUHAwEw
CwYDVR0PBAQDAgWgMBkGA1UdEQQSMBCCDnRlYW0xODctc2VydmVyMA0GCSqGSIb3
DQEBCwUAA4IBAQAoZLXji26kzXo+rGwaI2CtayxOfdvcvWGj8ARToYxXEEy7hq1I
SGh101WE5eTHMKgpQ+u9+xwQlxMbpMXsoowGF/fOTNWhB0SCM38Fg53FZx4R0wPA
ae8C5CWZ1SLIB6q/14Rb2NpU/nnIvZ9Zbyo5LwBopdrc0zZ8Zs+3gg9giqi3YfCY
xpfZf5aO668VbCvaw4alu1S/fI3sl1Gk2pnKRinP4yQYjU3HoKUmtdTzaXfAghWD
xRHxZY4iVLkGDGhWqWKPIajjC1ODFv9ao/nkDWkdTRmlSYNmzOOkAXVFC2BtMYC4
ftLjmAAb6TP/Lbp3KSH9PiZzsCewbIkTsdas
-----END CERTIFICATE-----
