Certificate:
    Data:
        Version: 3 (0x2)
        Serial Number:
            0d:41:ef:b3:1c:e6:d8:1f:99:af:62:8c:57:81:0a:9c
        Signature Algorithm: sha256WithRSAEncryption
        Issuer: CN=team272-net
        Validity
            Not Before: Nov  3 20:44:16 2023 GMT
            Not After : Oct 18 20:44:16 2026 GMT
        Subject: CN=team272-server
        Subject Public Key Info:
            Public Key Algorithm: rsaEncryption
                Public-Key: (2048 bit)
                Modulus:
                    00:84:b3:a8:a4:fa:2f:74:9a:2c:a3:46:16:ba:3c:
                    8a:de:4b:6b:ff:6a:a2:81:8b:20:d2:bd:27:b7:06:
                    74:4f:7a:f4:c8:be:84:c8:9b:4b:c6:46:73:3f:9a:
                    d7:d4:db:a6:e4:b0:8e:d5:5a:81:69:53:01:48:51:
                    af:d0:68:3b:36:b1:e0:37:ae:e0:1b:1a:1a:f5:f6:
                    ad:66:68:e6:2f:9d:a3:16:f2:41:f9:b5:91:11:47:
                    0a:f1:04:2b:0b:35:84:d3:3a:02:60:87:be:0c:8e:
                    99:ac:65:87:cd:31:04:4d:3b:74:a6:4e:58:84:34:
                    59:cd:ab:c1:6b:63:30:75:5e:f0:30:2c:66:96:43:
                    b9:3e:5a:d4:c5:92:b9:26:04:d5:d9:43:72:a5:75:
                    7d:fe:8e:e0:c0:cd:47:5b:b4:48:24:15:43:eb:de:
                    c2:db:fb:15:5f:ed:a6:13:95:01:e7:4f:82:c8:15:
                    d4:9d:f7:bb:cd:c2:3d:cc:65:63:9e:59:c4:97:20:
                    f3:b4:4d:34:00:63:f2:1e:95:97:ba:b2:da:4a:90:
                    69:24:17:2e:fa:b1:a8:ac:f9:2f:f9:bb:9d:d9:86:
                    bc:8b:09:08:a8:9b:c3:76:68:71:3c:c8:20:40:f4:
                    72:f2:7a:f0:3a:cc:f2:23:64:2f:11:c9:d1:29:be:
                    31:0b
                Exponent: 65537 (0x10001)
        X509v3 extensions:
            X509v3 Basic Constraints: 
                CA:FALSE
            X509v3 Subject Key Identifier: 
                A0:11:72:9E:28:34:9E:37:47:5F:45:C0:58:74:B2:66:B7:99:7D:A1
            X509v3 Authority Key Identifier: 
                keyid:5D:AA:2A:09:5C:E3:3B:F1:50:0B:EC:1E:FB:51:BF:81:35:98:4E:D7
                DirName:/CN=team272-net
                serial:74:D1:AE:03:92:61:37:6A:1F:1D:F2:CC:38:68:B6:3A:A8:B6:9C
            X509v3 Extended Key Usage: 
                TLS Web Server Authentication
            X509v3 Key Usage: 
                Digital Signature, Key Encipherment
            X509v3 Subject Alternative Name: 
                DNS:team272-server
    Signature Algorithm: sha256WithRSAEncryption
    Signature Value:
        33:d4:22:21:c3:fa:9f:59:f2:9e:3a:69:79:c2:5c:05:74:fb:
        8a:8c:21:1a:d7:49:d5:6c:9a:89:f3:04:4a:85:fe:60:24:04:
        20:9b:be:7c:14:a7:ca:66:cd:b8:e7:f2:83:a8:dc:74:8f:e6:
        f1:d4:d9:bd:d6:f2:56:0e:5e:75:93:73:e1:d3:f0:9f:bf:3b:
        07:06:90:7f:31:13:5f:98:91:5e:10:9a:21:65:b6:5f:1e:a9:
        3e:f3:e9:0a:7e:ff:31:14:4b:ba:82:a3:6d:89:06:77:23:e5:
        b4:89:f8:35:03:5b:e0:c1:c5:b3:2b:39:ab:73:2e:4d:d7:1a:
        94:73:2f:93:dc:88:66:aa:38:9a:08:50:f6:59:47:bf:ca:4d:
        65:66:73:7a:c7:52:99:52:be:cf:d4:8d:d5:96:bd:ee:0e:55:
        a4:ff:1e:7f:07:0c:75:1b:7c:50:46:b1:bb:13:12:04:6f:bc:
        1e:4b:55:36:01:a8:15:82:19:92:f9:ae:06:d7:be:d3:e4:f3:
        9b:03:3f:73:a6:96:fc:b9:95:90:4c:d4:c8:b5:03:46:33:4e:
        6c:a4:d9:6a:36:92:5e:43:d2:88:74:69:42:36:d5:f2:b7:0a:
        e0:69:67:2d:d7:7e:cf:7d:af:e0:f3:0a:f8:3f:44:8c:e7:fa:
        2b:54:0b:f6
-----BEGIN CERTIFICATE-----
MIIDdjCCAl6gAwIBAgIQDUHvsxzm2B+Zr2KMV4EKnDANBgkqhkiG9w0BAQsFADAW
MRQwEgYDVQQDDAt0ZWFtMjcyLW5ldDAeFw0yMzExMDMyMDQ0MTZaFw0yNjEwMTgy
MDQ0MTZaMBkxFzAVBgNVBAMMDnRlYW0yNzItc2VydmVyMIIBIjANBgkqhkiG9w0B
AQEFAAOCAQ8AMIIBCgKCAQEAhLOopPovdJoso0YWujyK3ktr/2qigYsg0r0ntwZ0
T3r0yL6EyJtLxkZzP5rX1Num5LCO1VqBaVMBSFGv0Gg7NrHgN67gGxoa9fatZmjm
L52jFvJB+bWREUcK8QQrCzWE0zoCYIe+DI6ZrGWHzTEETTt0pk5YhDRZzavBa2Mw
dV7wMCxmlkO5PlrUxZK5JgTV2UNypXV9/o7gwM1HW7RIJBVD697C2/sVX+2mE5UB
50+CyBXUnfe7zcI9zGVjnlnElyDztE00AGPyHpWXurLaSpBpJBcu+rGorPkv+bud
2Ya8iwkIqJvDdmhxPMggQPRy8nrwOszyI2QvEcnRKb4xCwIDAQABo4G8MIG5MAkG
A1UdEwQCMAAwHQYDVR0OBBYEFKARcp4oNJ43R19FwFh0sma3mX2hMFAGA1UdIwRJ
MEeAFF2qKglc4zvxUAvsHvtRv4E1mE7XoRqkGDAWMRQwEgYDVQQDDAt0ZWFtMjcy
LW5ldIITdNGuA5JhN2ofHfLMOGi2Oqi2nDATBgNVHSUEDDAKBggrBgEFBQcDATAL
BgNVHQ8EBAMCBaAwGQYDVR0RBBIwEIIOdGVhbTI3Mi1zZXJ2ZXIwDQYJKoZIhvcN
AQELBQADggEBADPUIiHD+p9Z8p46aXnCXAV0+4qMIRrXSdVsmonzBEqF/mAkBCCb
vnwUp8pmzbjn8oOo3HSP5vHU2b3W8lYOXnWTc+HT8J+/OwcGkH8xE1+YkV4QmiFl
tl8eqT7z6Qp+/zEUS7qCo22JBncj5bSJ+DUDW+DBxbMrOatzLk3XGpRzL5PciGaq
OJoIUPZZR7/KTWVmc3rHUplSvs/UjdWWve4OVaT/Hn8HDHUbfFBGsbsTEgRvvB5L
VTYBqBWCGZL5rgbXvtPk85sDP3Omlvy5lZBM1Mi1A0YzTmyk2Wo2kl5D0oh0aUI2
1fK3CuBpZy3Xfs99r+DzCvg/RIzn+itUC/Y=
-----END CERTIFICATE-----
