Certificate:
    Data:
        Version: 3 (0x2)
        Serial Number:
            45:43:ab:f8:d7:3d:f7:cc:d3:e5:c3:ba:38:92:ac:17
        Signature Algorithm: sha256WithRSAEncryption
        Issuer: CN=team61-net
        Validity
            Not Before: Nov  3 20:40:19 2023 GMT
            Not After : Oct 18 20:40:19 2026 GMT
        Subject: CN=team61-server
        Subject Public Key Info:
            Public Key Algorithm: rsaEncryption
                Public-Key: (2048 bit)
                Modulus:
                    00:a5:6e:70:9e:3d:ae:66:2b:e7:1b:81:2e:6a:a2:
                    fc:72:39:73:14:60:c0:eb:08:1c:1a:b0:04:af:24:
                    3b:cc:ab:77:91:ad:97:7f:3a:7f:f1:43:44:cf:2d:
                    95:84:d8:c9:9a:fa:d7:bb:1e:15:e9:f7:f5:52:e4:
                    21:64:48:a7:fe:b0:86:32:f9:06:45:81:33:13:42:
                    f2:87:a6:c7:1f:fd:da:eb:52:03:bb:3d:6a:c0:a7:
                    be:1a:0a:cf:9a:24:89:24:ef:08:b9:7d:7e:33:d6:
                    da:1a:fb:e6:47:29:63:c2:4d:c4:86:aa:56:d3:61:
                    0f:68:0e:ef:f0:ec:71:6d:e5:0b:30:79:3f:c0:7e:
                    92:c5:14:fb:3c:88:73:4e:04:6e:33:cd:e5:2a:15:
                    c0:60:3b:92:cb:8c:0b:3f:33:74:ad:42:20:0e:05:
                    9f:69:be:c0:e6:4c:a3:49:9c:76:89:3a:5f:ce:38:
                    0f:bf:d7:e9:05:ec:2f:fb:e4:06:a6:63:3d:19:8f:
                    b4:b5:d7:63:3a:5f:24:20:b1:87:14:90:25:be:46:
                    bb:f6:e1:51:7c:94:c5:9c:2a:01:d2:35:43:50:45:
                    3f:a8:d0:e4:d6:42:a9:89:62:48:2e:f4:59:5b:ba:
                    f6:53:97:ca:d8:55:00:29:49:3d:8c:b6:e3:f3:59:
                    72:0f
                Exponent: 65537 (0x10001)
        X509v3 extensions:
            X509v3 Basic Constraints: 
                CA:FALSE
            X509v3 Subject Key Identifier: 
                E3:96:37:BF:19:A2:E6:BE:CF:64:92:4C:0C:C8:48:77:0F:F6:ED:10
            X509v3 Authority Key Identifier: 
                keyid:45:D2:0B:D6:42:5A:D2:18:1A:9B:86:EE:B7:51:7E:CC:A4:7C:E7:71
                DirName:/CN=team61-net
                serial:53:32:43:B1:78:8A:43:E6:00:35:F0:A9:3A:B6:EB:D7:EB:3E:68:4B
            X509v3 Extended Key Usage: 
                TLS Web Server Authentication
            X509v3 Key Usage: 
                Digital Signature, Key Encipherment
            X509v3 Subject Alternative Name: 
                DNS:team61-server
    Signature Algorithm: sha256WithRSAEncryption
    Signature Value:
        82:bd:67:34:a6:e9:27:34:1a:a1:9d:ac:f9:d7:b5:32:fb:05:
        5b:9b:bf:ee:37:fc:a8:e3:89:78:a9:cc:a6:f7:06:41:ec:d5:
        a6:f4:81:5b:f6:ef:f5:6a:a9:bd:2f:c4:99:1a:d6:41:12:21:
        78:80:c1:15:e8:3a:e8:01:e1:df:f6:3c:90:e3:fe:df:04:45:
        f9:26:11:9c:76:61:a1:05:b8:0b:3a:7e:76:c5:b4:28:44:dc:
        10:39:0e:4a:88:bd:fd:2b:49:cb:57:d7:ef:9b:03:27:34:56:
        58:bb:2a:b0:57:64:2c:28:a4:5f:40:61:77:2c:9f:2c:a0:b4:
        c6:39:f2:00:d3:d7:24:e3:b7:40:ff:fa:39:1b:0e:58:68:22:
        f6:ca:53:b1:a3:94:68:32:2a:d7:1d:f4:63:0a:aa:6b:47:04:
        69:2f:37:4a:a4:6d:e9:68:58:ae:1e:ea:d8:0b:43:63:9d:8c:
        b3:13:9a:2a:c1:49:f0:f0:21:17:05:6a:be:c6:8d:d9:db:5e:
        1a:e6:2d:49:11:5a:f9:e3:fd:05:99:01:2a:b0:e5:c4:b5:b8:
        d9:d6:bd:53:cb:03:7f:80:f9:16:64:b2:d2:24:bf:49:42:bf:
        be:0b:4b:31:27:d1:cc:06:a6:51:dd:eb:4a:11:5c:f3:df:ef:
        1c:c3:af:b9
-----BEGIN CERTIFICATE-----
MIIDczCCAlugAwIBAgIQRUOr+Nc998zT5cO6OJKsFzANBgkqhkiG9w0BAQsFADAV
MRMwEQYDVQQDDAp0ZWFtNjEtbmV0MB4XDTIzMTEwMzIwNDAxOVoXDTI2MTAxODIw
NDAxOVowGDEWMBQGA1UEAwwNdGVhbTYxLXNlcnZlcjCCASIwDQYJKoZIhvcNAQEB
BQADggEPADCCAQoCggEBAKVucJ49rmYr5xuBLmqi/HI5cxRgwOsIHBqwBK8kO8yr
d5Gtl386f/FDRM8tlYTYyZr617seFen39VLkIWRIp/6whjL5BkWBMxNC8oemxx/9
2utSA7s9asCnvhoKz5okiSTvCLl9fjPW2hr75kcpY8JNxIaqVtNhD2gO7/DscW3l
CzB5P8B+ksUU+zyIc04EbjPN5SoVwGA7ksuMCz8zdK1CIA4Fn2m+wOZMo0mcdok6
X844D7/X6QXsL/vkBqZjPRmPtLXXYzpfJCCxhxSQJb5Gu/bhUXyUxZwqAdI1Q1BF
P6jQ5NZCqYliSC70WVu69lOXythVAClJPYy24/NZcg8CAwEAAaOBuzCBuDAJBgNV
HRMEAjAAMB0GA1UdDgQWBBTjlje/GaLmvs9kkkwMyEh3D/btEDBQBgNVHSMESTBH
gBRF0gvWQlrSGBqbhu63UX7MpHzncaEZpBcwFTETMBEGA1UEAwwKdGVhbTYxLW5l
dIIUUzJDsXiKQ+YANfCpOrbr1+s+aEswEwYDVR0lBAwwCgYIKwYBBQUHAwEwCwYD
VR0PBAQDAgWgMBgGA1UdEQQRMA+CDXRlYW02MS1zZXJ2ZXIwDQYJKoZIhvcNAQEL
BQADggEBAIK9ZzSm6Sc0GqGdrPnXtTL7BVubv+43/KjjiXipzKb3BkHs1ab0gVv2
7/Vqqb0vxJka1kESIXiAwRXoOugB4d/2PJDj/t8ERfkmEZx2YaEFuAs6fnbFtChE
3BA5DkqIvf0rSctX1++bAyc0Vli7KrBXZCwopF9AYXcsnyygtMY58gDT1yTjt0D/
+jkbDlhoIvbKU7GjlGgyKtcd9GMKqmtHBGkvN0qkbeloWK4e6tgLQ2OdjLMTmirB
SfDwIRcFar7GjdnbXhrmLUkRWvnj/QWZASqw5cS1uNnWvVPLA3+A+RZkstIkv0lC
v74LSzEn0cwGplHd60oRXPPf7xzDr7k=
-----END CERTIFICATE-----
