Certificate:
    Data:
        Version: 3 (0x2)
        Serial Number:
            6b:d5:d7:81:a2:7a:df:92:b2:86:0d:48:e6:8c:ba:91
        Signature Algorithm: sha256WithRSAEncryption
        Issuer: CN=team481-net
        Validity
            Not Before: Nov  4 11:38:27 2023 GMT
            Not After : Oct 19 11:38:27 2026 GMT
        Subject: CN=team481-server
        Subject Public Key Info:
            Public Key Algorithm: rsaEncryption
                Public-Key: (2048 bit)
                Modulus:
                    00:b2:5a:8d:2e:1d:5f:21:20:47:9b:e9:d7:7e:b1:
                    ff:8e:19:98:8d:7f:38:cf:af:37:e0:b8:ea:2b:e9:
                    e6:9a:87:30:ec:e5:b7:8a:49:84:c1:9a:e4:ef:7a:
                    79:02:42:67:0f:be:a2:5f:56:cc:a4:e5:74:e3:03:
                    58:d5:05:bc:c9:d6:89:64:fe:87:94:0f:d1:e5:5a:
                    52:a8:2b:79:93:68:ec:ef:8e:e5:b4:5d:ab:cf:3d:
                    57:fa:7b:07:8d:45:58:0a:c8:c5:6c:8f:ed:87:0d:
                    a8:a9:c8:a2:73:2a:d9:fb:59:f7:8d:90:14:cf:6d:
                    47:d0:fb:0d:16:35:ce:5d:ca:20:38:b6:a7:75:35:
                    19:30:96:2a:44:79:2a:f8:08:ac:78:81:b5:b6:7e:
                    a1:2c:01:10:d4:25:ea:cb:1f:a4:bd:46:bc:1c:78:
                    8f:3c:8a:de:0a:b2:b6:39:62:80:68:01:99:93:71:
                    1c:81:c1:29:26:9c:0d:09:d3:8a:28:0f:20:9c:ac:
                    95:3d:c6:1d:44:34:78:6b:6e:89:2b:68:75:5f:66:
                    07:03:18:23:af:49:2f:f9:c1:5d:e3:ca:f4:99:08:
                    83:7e:04:cd:72:48:52:00:55:7c:af:76:ee:90:74:
                    8e:76:70:71:75:25:ef:f9:7e:34:43:ad:8f:55:86:
                    c6:11
                Exponent: 65537 (0x10001)
        X509v3 extensions:
            X509v3 Basic Constraints: 
                CA:FALSE
            X509v3 Subject Key Identifier: 
                99:40:10:9C:21:74:69:58:E0:3A:1A:12:23:92:26:D2:08:37:99:AD
            X509v3 Authority Key Identifier: 
                keyid:E9:93:99:75:69:AB:10:97:F2:C5:CC:D9:A5:9C:9C:8F:25:4B:3D:7F
                DirName:/CN=team481-net
                serial:03:16:44:EA:CF:1E:21:EF:1F:0C:1F:12:44:87:3B:1C:AF:10:DE:C3
            X509v3 Extended Key Usage: 
                TLS Web Server Authentication
            X509v3 Key Usage: 
                Digital Signature, Key Encipherment
            X509v3 Subject Alternative Name: 
                DNS:team481-server
    Signature Algorithm: sha256WithRSAEncryption
    Signature Value:
        55:5f:1c:f9:a6:04:fd:a6:35:c6:1c:9e:11:74:7d:60:6c:68:
        8e:08:5f:8a:10:74:61:8a:b9:99:96:f9:81:e2:b5:77:7b:ca:
        cc:5b:f8:3c:d7:7a:c6:72:54:6c:f1:af:e3:97:aa:25:08:19:
        76:f0:58:5d:10:4e:74:a2:2a:81:96:bd:f2:f4:09:ed:3c:4f:
        52:83:c9:78:54:27:98:33:f7:f3:b1:67:fb:00:99:66:f1:68:
        5b:22:c1:7f:da:76:1e:a1:08:6d:af:aa:b8:e6:6f:97:ba:df:
        fd:29:b9:39:c5:c4:5c:96:e5:8d:e5:37:13:56:6e:e0:e5:3a:
        b7:8c:55:e7:ec:c5:8f:92:b0:9b:23:78:04:62:6b:5b:b5:42:
        73:99:17:9a:d5:74:fc:ef:4f:34:e0:68:90:84:31:dc:6c:2e:
        7c:ac:86:a1:34:0a:12:a0:dd:fa:c3:dc:55:59:93:a4:c7:11:
        75:18:89:bd:3e:a1:bb:5a:d7:3a:f6:09:c6:a4:f4:31:94:81:
        98:2f:d3:12:1b:f4:5f:f4:23:74:d7:28:fd:46:3a:3e:f7:69:
        bd:15:f7:7e:d7:85:ed:b9:4b:0f:9b:5a:58:19:1f:fa:5b:e0:
        6a:49:5c:88:e5:44:5d:04:e7:d1:75:b7:52:db:23:78:9a:88:
        b0:dd:90:da
-----BEGIN CERTIFICATE-----
MIIDdzCCAl+gAwIBAgIQa9XXgaJ635Kyhg1I5oy6kTANBgkqhkiG9w0BAQsFADAW
MRQwEgYDVQQDDAt0ZWFtNDgxLW5ldDAeFw0yMzExMDQxMTM4MjdaFw0yNjEwMTkx
MTM4MjdaMBkxFzAVBgNVBAMMDnRlYW00ODEtc2VydmVyMIIBIjANBgkqhkiG9w0B
AQEFAAOCAQ8AMIIBCgKCAQEAslqNLh1fISBHm+nXfrH/jhmYjX84z6834LjqK+nm
mocw7OW3ikmEwZrk73p5AkJnD76iX1bMpOV04wNY1QW8ydaJZP6HlA/R5VpSqCt5
k2js747ltF2rzz1X+nsHjUVYCsjFbI/thw2oqciicyrZ+1n3jZAUz21H0PsNFjXO
XcogOLandTUZMJYqRHkq+AiseIG1tn6hLAEQ1CXqyx+kvUa8HHiPPIreCrK2OWKA
aAGZk3EcgcEpJpwNCdOKKA8gnKyVPcYdRDR4a26JK2h1X2YHAxgjr0kv+cFd48r0
mQiDfgTNckhSAFV8r3bukHSOdnBxdSXv+X40Q62PVYbGEQIDAQABo4G9MIG6MAkG
A1UdEwQCMAAwHQYDVR0OBBYEFJlAEJwhdGlY4DoaEiOSJtIIN5mtMFEGA1UdIwRK
MEiAFOmTmXVpqxCX8sXM2aWcnI8lSz1/oRqkGDAWMRQwEgYDVQQDDAt0ZWFtNDgx
LW5ldIIUAxZE6s8eIe8fDB8SRIc7HK8Q3sMwEwYDVR0lBAwwCgYIKwYBBQUHAwEw
CwYDVR0PBAQDAgWgMBkGA1UdEQQSMBCCDnRlYW00ODEtc2VydmVyMA0GCSqGSIb3
DQEBCwUAA4IBAQBVXxz5pgT9pjXGHJ4RdH1gbGiOCF+KEHRhirmZlvmB4rV3e8rM
W/g813rGclRs8a/jl6olCBl28FhdEE50oiqBlr3y9AntPE9Sg8l4VCeYM/fzsWf7
AJlm8WhbIsF/2nYeoQhtr6q45m+Xut/9Kbk5xcRcluWN5TcTVm7g5Tq3jFXn7MWP
krCbI3gEYmtbtUJzmRea1XT870804GiQhDHcbC58rIahNAoSoN36w9xVWZOkxxF1
GIm9PqG7Wtc69gnGpPQxlIGYL9MSG/Rf9CN01yj9Rjo+92m9Ffd+14XtuUsPm1pY
GR/6W+BqSVyI5URdBOfRdbdS2yN4moiw3ZDa
-----END CERTIFICATE-----
