Certificate:
    Data:
        Version: 3 (0x2)
        Serial Number:
            a7:44:af:f3:d0:d7:bb:ed:0c:b3:07:2e:ce:3e:7f:2f
        Signature Algorithm: sha256WithRSAEncryption
        Issuer: CN=team481-net
        Validity
            Not Before: Nov  4 10:49:06 2023 GMT
            Not After : Oct 19 10:49:06 2026 GMT
        Subject: CN=team481-server
        Subject Public Key Info:
            Public Key Algorithm: rsaEncryption
                Public-Key: (2048 bit)
                Modulus:
                    00:c2:91:ca:5e:5b:8b:15:96:b9:1c:9e:78:0e:01:
                    ff:f9:bc:97:db:4b:13:2d:2a:8d:2b:5e:f3:61:4a:
                    f8:4d:8f:54:a0:a3:83:91:4b:d4:47:18:48:aa:b8:
                    ce:b4:9e:e5:75:1b:c6:37:9d:0d:30:06:c8:85:c4:
                    85:eb:29:78:cd:d4:4d:fd:ed:d5:61:8a:94:fc:b7:
                    e0:a6:5a:c6:dd:6f:fb:37:3a:bb:bf:d2:d4:b5:e0:
                    88:3c:a9:29:52:80:5e:d8:41:06:6d:00:d8:1f:21:
                    55:9f:a0:10:f3:ab:db:fc:60:e6:50:c4:42:6e:5c:
                    bd:9f:ea:74:ea:0b:a5:3b:de:44:d2:35:89:a6:33:
                    77:db:9d:0a:f9:fd:72:36:50:51:6b:ff:9d:2d:43:
                    d8:fc:ef:2f:9a:09:eb:68:d1:8d:d2:8b:ce:66:e3:
                    0b:ec:44:bf:39:64:83:87:09:bb:7e:c2:50:6a:c4:
                    d4:82:95:3c:54:3e:82:fb:39:dd:ef:ab:85:21:09:
                    8e:29:b0:aa:b1:61:d4:cb:d7:99:0e:bc:8b:0d:a6:
                    5e:eb:89:d2:0a:fd:a6:2f:fa:32:e1:23:b6:6d:c3:
                    cd:ba:5d:8a:b9:d3:fa:77:a4:96:bb:df:49:7c:a5:
                    c1:12:0f:5b:63:d4:9e:9b:13:11:9b:c0:ec:10:5d:
                    d7:09
                Exponent: 65537 (0x10001)
        X509v3 extensions:
            X509v3 Basic Constraints: 
                CA:FALSE
            X509v3 Subject Key Identifier: 
                72:E5:F0:2F:E6:F5:C6:3F:72:9A:2C:56:3A:98:06:9E:C1:59:21:2B
            X509v3 Authority Key Identifier: 
                keyid:28:00:76:8C:97:E1:2C:D5:E9:A9:38:1E:F0:69:90:DF:7E:DE:EF:7F
                DirName:/CN=team481-net
                serial:33:68:21:BD:A4:B6:E9:A7:66:C8:E6:15:99:DA:FC:2E:DD:91:03:F0
            X509v3 Extended Key Usage: 
                TLS Web Server Authentication
            X509v3 Key Usage: 
                Digital Signature, Key Encipherment
            X509v3 Subject Alternative Name: 
                DNS:team481-server
    Signature Algorithm: sha256WithRSAEncryption
    Signature Value:
        2b:ed:5f:fd:72:65:1a:5c:8c:e9:98:bf:09:1a:c8:ae:59:2e:
        19:6f:e2:f6:12:0a:53:51:3f:99:d7:11:c5:da:a9:70:ea:f6:
        64:70:e8:50:fe:4f:b1:39:0d:db:c3:b8:01:44:fc:eb:72:7f:
        92:2e:01:43:cf:54:6f:01:52:01:85:41:d2:f7:0b:63:f8:26:
        60:e2:58:55:69:c1:a2:11:3a:10:d2:f4:35:8c:02:32:16:78:
        02:af:16:ab:a3:6d:5e:98:bf:ac:62:9a:93:63:49:a4:5b:73:
        99:04:1c:55:45:f3:f5:3e:d0:b1:e2:2e:e1:78:8b:bb:31:48:
        a0:38:a1:b7:21:8e:f3:31:9c:18:8d:71:69:c7:41:1e:4a:49:
        56:f3:25:c8:6a:85:e6:70:66:5c:c8:23:a9:e7:53:b7:37:5b:
        46:63:5a:b4:99:df:32:c4:64:2a:a4:05:eb:7e:31:b2:da:b2:
        0e:e3:f8:f5:64:d9:2b:b0:a7:1d:10:95:7d:65:d7:be:60:34:
        95:6a:b9:1f:54:55:35:0a:17:aa:a1:87:a2:2e:72:42:80:1e:
        dc:4e:7f:bf:f0:36:7e:6c:ba:51:8b:0c:c2:2d:77:17:9e:eb:
        a4:f0:20:04:62:a1:27:a7:48:88:b6:43:f8:bc:1a:99:fe:78:
        68:e0:fa:83
-----BEGIN CERTIFICATE-----
MIIDeDCCAmCgAwIBAgIRAKdEr/PQ17vtDLMHLs4+fy8wDQYJKoZIhvcNAQELBQAw
FjEUMBIGA1UEAwwLdGVhbTQ4MS1uZXQwHhcNMjMxMTA0MTA0OTA2WhcNMjYxMDE5
MTA0OTA2WjAZMRcwFQYDVQQDDA50ZWFtNDgxLXNlcnZlcjCCASIwDQYJKoZIhvcN
AQEBBQADggEPADCCAQoCggEBAMKRyl5bixWWuRyeeA4B//m8l9tLEy0qjSte82FK
+E2PVKCjg5FL1EcYSKq4zrSe5XUbxjedDTAGyIXEhespeM3UTf3t1WGKlPy34KZa
xt1v+zc6u7/S1LXgiDypKVKAXthBBm0A2B8hVZ+gEPOr2/xg5lDEQm5cvZ/qdOoL
pTveRNI1iaYzd9udCvn9cjZQUWv/nS1D2PzvL5oJ62jRjdKLzmbjC+xEvzlkg4cJ
u37CUGrE1IKVPFQ+gvs53e+rhSEJjimwqrFh1MvXmQ68iw2mXuuJ0gr9pi/6MuEj
tm3DzbpdirnT+neklrvfSXylwRIPW2PUnpsTEZvA7BBd1wkCAwEAAaOBvTCBujAJ
BgNVHRMEAjAAMB0GA1UdDgQWBBRy5fAv5vXGP3KaLFY6mAaewVkhKzBRBgNVHSME
SjBIgBQoAHaMl+Es1empOB7waZDfft7vf6EapBgwFjEUMBIGA1UEAwwLdGVhbTQ4
MS1uZXSCFDNoIb2ktumnZsjmFZna/C7dkQPwMBMGA1UdJQQMMAoGCCsGAQUFBwMB
MAsGA1UdDwQEAwIFoDAZBgNVHREEEjAQgg50ZWFtNDgxLXNlcnZlcjANBgkqhkiG
9w0BAQsFAAOCAQEAK+1f/XJlGlyM6Zi/CRrIrlkuGW/i9hIKU1E/mdcRxdqpcOr2
ZHDoUP5PsTkN28O4AUT863J/ki4BQ89UbwFSAYVB0vcLY/gmYOJYVWnBohE6ENL0
NYwCMhZ4Aq8Wq6NtXpi/rGKak2NJpFtzmQQcVUXz9T7QseIu4XiLuzFIoDihtyGO
8zGcGI1xacdBHkpJVvMlyGqF5nBmXMgjqedTtzdbRmNatJnfMsRkKqQF634xstqy
DuP49WTZK7CnHRCVfWXXvmA0lWq5H1RVNQoXqqGHoi5yQoAe3E5/v/A2fmy6UYsM
wi13F57rpPAgBGKhJ6dIiLZD+Lwamf54aOD6gw==
-----END CERTIFICATE-----
