Certificate:
    Data:
        Version: 3 (0x2)
        Serial Number:
            ac:49:14:7b:de:3d:77:d1:27:e8:f3:4e:67:e3:c7:04
        Signature Algorithm: sha256WithRSAEncryption
        Issuer: CN=team481-net
        Validity
            Not Before: Nov  4 11:38:26 2023 GMT
            Not After : Oct 19 11:38:26 2026 GMT
        Subject: CN=team481-client
        Subject Public Key Info:
            Public Key Algorithm: rsaEncryption
                Public-Key: (2048 bit)
                Modulus:
                    00:ba:49:39:e2:91:b7:f5:2b:70:41:e1:79:f1:19:
                    69:f2:70:26:b8:87:9f:7c:ce:10:09:25:04:37:93:
                    12:ee:cb:f3:6c:00:95:1b:48:b2:7e:db:a2:10:46:
                    c4:f4:5c:98:26:cb:3a:08:6a:fb:2a:05:f6:ea:e1:
                    f1:a3:c0:6e:5f:a5:4b:a1:82:00:17:5b:f0:fc:1f:
                    bc:45:d4:38:0f:9a:1e:fd:56:ab:60:2d:ea:e9:3b:
                    2c:1a:70:77:36:a9:00:51:90:34:6b:85:cd:c1:a7:
                    ec:73:1e:83:07:00:ea:fe:fe:b7:d9:b1:81:f2:a4:
                    e7:0e:2d:e4:32:7a:b8:f7:60:19:28:57:e7:27:b2:
                    f4:f3:9e:37:1e:42:26:02:46:1a:e8:c8:bd:f2:78:
                    af:7a:ad:13:d0:19:79:69:74:dd:b2:bf:2f:6e:41:
                    f6:4b:c7:48:87:4c:49:1d:6d:bd:c8:88:2a:9d:26:
                    94:0f:de:39:76:07:93:cb:c3:a0:e1:5c:a5:95:89:
                    f3:85:b2:a9:37:45:81:c5:07:b1:0a:7c:84:e3:9d:
                    9e:3d:82:1b:7d:fd:39:de:35:e8:7c:61:0c:b6:78:
                    3d:aa:45:90:03:78:fa:59:92:2c:38:c2:1a:5d:41:
                    30:a7:2d:2e:d8:6b:86:da:a2:3e:28:ef:68:12:89:
                    89:01
                Exponent: 65537 (0x10001)
        X509v3 extensions:
            X509v3 Basic Constraints: 
                CA:FALSE
            X509v3 Subject Key Identifier: 
                22:3A:BB:F7:25:41:79:C4:FE:1D:4A:0A:D0:A9:E4:A0:34:23:3F:8A
            X509v3 Authority Key Identifier: 
                keyid:E9:93:99:75:69:AB:10:97:F2:C5:CC:D9:A5:9C:9C:8F:25:4B:3D:7F
                DirName:/CN=team481-net
                serial:03:16:44:EA:CF:1E:21:EF:1F:0C:1F:12:44:87:3B:1C:AF:10:DE:C3
            X509v3 Extended Key Usage: 
                TLS Web Client Authentication
            X509v3 Key Usage: 
                Digital Signature
    Signature Algorithm: sha256WithRSAEncryption
    Signature Value:
        05:f7:bc:e2:41:d5:49:e2:b7:09:de:85:9b:35:21:de:09:84:
        42:30:00:bf:07:d5:e1:e0:c6:bd:6f:11:d7:50:b6:7c:a9:a8:
        44:d5:62:ee:b8:66:51:1e:05:11:ba:2c:e8:f7:f6:26:69:20:
        10:97:c4:75:72:d5:dd:64:98:d7:ba:fc:d0:3f:f8:ff:34:c3:
        bd:54:9b:de:33:fc:12:98:ad:2e:be:d3:ce:20:f6:d5:48:bc:
        60:0f:b3:77:bc:d7:a4:2d:b6:be:27:32:d6:9f:24:eb:61:80:
        48:d8:c7:07:3a:d1:a8:a5:4f:11:52:48:2a:79:df:97:6c:bd:
        9f:24:ae:bc:19:8f:a3:9e:e2:32:9f:9c:e3:6a:96:98:9d:3c:
        56:c1:b5:73:03:48:49:a9:3f:1f:c4:b2:7b:e8:39:70:58:b8:
        90:1f:10:ad:83:03:ab:d7:9e:60:65:c7:ad:06:17:ca:65:26:
        03:b3:51:8a:ba:df:b8:cf:8b:42:e9:bd:02:89:03:c2:8e:f3:
        0c:e6:40:2a:0a:9b:6a:15:4b:39:16:33:68:7e:a7:40:77:16:
        99:8e:0d:76:fd:3c:3a:0d:38:16:26:12:07:0c:83:c4:ec:2c:
        9a:75:bb:ed:48:42:80:c3:ef:0e:72:b2:b2:0d:64:00:a5:2c:
        02:ea:02:38
-----BEGIN CERTIFICATE-----
MIIDXTCCAkWgAwIBAgIRAKxJFHvePXfRJ+jzTmfjxwQwDQYJKoZIhvcNAQELBQAw
FjEUMBIGA1UEAwwLdGVhbTQ4MS1uZXQwHhcNMjMxMTA0MTEzODI2WhcNMjYxMDE5
MTEzODI2WjAZMRcwFQYDVQQDDA50ZWFtNDgxLWNsaWVudDCCASIwDQYJKoZIhvcN
AQEBBQADggEPADCCAQoCggEBALpJOeKRt/UrcEHhefEZafJwJriHn3zOEAklBDeT
Eu7L82wAlRtIsn7bohBGxPRcmCbLOghq+yoF9urh8aPAbl+lS6GCABdb8PwfvEXU
OA+aHv1Wq2At6uk7LBpwdzapAFGQNGuFzcGn7HMegwcA6v7+t9mxgfKk5w4t5DJ6
uPdgGShX5yey9POeNx5CJgJGGujIvfJ4r3qtE9AZeWl03bK/L25B9kvHSIdMSR1t
vciIKp0mlA/eOXYHk8vDoOFcpZWJ84WyqTdFgcUHsQp8hOOdnj2CG339Od416Hxh
DLZ4PapFkAN4+lmSLDjCGl1BMKctLthrhtqiPijvaBKJiQECAwEAAaOBojCBnzAJ
BgNVHRMEAjAAMB0GA1UdDgQWBBQiOrv3JUF5xP4dSgrQqeSgNCM/ijBRBgNVHSME
SjBIgBTpk5l1aasQl/LFzNmlnJyPJUs9f6EapBgwFjEUMBIGA1UEAwwLdGVhbTQ4
MS1uZXSCFAMWROrPHiHvHwwfEkSHOxyvEN7DMBMGA1UdJQQMMAoGCCsGAQUFBwMC
MAsGA1UdDwQEAwIHgDANBgkqhkiG9w0BAQsFAAOCAQEABfe84kHVSeK3Cd6FmzUh
3gmEQjAAvwfV4eDGvW8R11C2fKmoRNVi7rhmUR4FEbos6Pf2JmkgEJfEdXLV3WSY
17r80D/4/zTDvVSb3jP8EpitLr7TziD21Ui8YA+zd7zXpC22vicy1p8k62GASNjH
BzrRqKVPEVJIKnnfl2y9nySuvBmPo57iMp+c42qWmJ08VsG1cwNISak/H8Sye+g5
cFi4kB8QrYMDq9eeYGXHrQYXymUmA7NRirrfuM+LQum9AokDwo7zDOZAKgqbahVL
ORYzaH6nQHcWmY4Ndv08Og04FiYSBwyDxOwsmnW77UhCgMPvDnKysg1kAKUsAuoC
OA==
-----END CERTIFICATE-----
