Certificate:
    Data:
        Version: 3 (0x2)
        Serial Number:
            d0:c1:3c:1a:ee:dc:7e:9e:03:31:6c:47:33:fb:b4:1e
        Signature Algorithm: sha256WithRSAEncryption
        Issuer: CN=team481-net
        Validity
            Not Before: Nov  3 20:48:02 2023 GMT
            Not After : Oct 18 20:48:02 2026 GMT
        Subject: CN=team481-client
        Subject Public Key Info:
            Public Key Algorithm: rsaEncryption
                Public-Key: (2048 bit)
                Modulus:
                    00:c6:81:1f:b2:7f:f9:c0:f5:81:22:e8:49:01:c7:
                    b8:16:b0:36:0e:ff:d6:b5:59:02:70:d9:56:03:a4:
                    a1:56:f7:d8:f1:b8:b2:dd:51:de:d3:75:4c:67:ab:
                    50:a3:5f:c7:52:9b:fe:3d:39:46:80:a8:c0:2c:ec:
                    7f:ae:99:f3:c2:6a:64:44:b7:3e:1e:bf:2a:af:76:
                    6a:7b:b8:ca:6c:5a:bc:0f:ad:e0:a8:38:72:89:cd:
                    86:b6:c3:b4:5b:97:11:c1:31:46:70:09:f9:e0:e2:
                    ac:db:92:43:eb:87:c5:7e:7d:63:22:90:9b:d5:a3:
                    65:38:4d:96:a4:62:80:66:a6:49:3f:d2:df:20:71:
                    cb:7d:51:ae:49:4a:94:b2:62:8e:7f:12:cd:c9:0e:
                    69:71:cf:4b:b8:a6:b4:ed:55:8e:6d:cc:30:cf:c2:
                    f3:86:6b:0a:18:f0:46:68:36:96:3b:f4:3a:24:90:
                    98:1c:1a:f9:00:d8:dd:4f:05:9c:11:fe:92:31:98:
                    df:75:76:1e:60:a4:cc:bd:e6:9d:f7:c4:85:b4:a2:
                    19:e0:ca:3d:c9:d3:23:79:27:fc:ba:14:e7:b2:05:
                    18:5d:33:bc:26:bc:1c:75:4c:ea:32:ab:43:66:8a:
                    5b:48:18:8b:d1:49:de:e2:52:82:59:ab:9c:1c:56:
                    25:e7
                Exponent: 65537 (0x10001)
        X509v3 extensions:
            X509v3 Basic Constraints: 
                CA:FALSE
            X509v3 Subject Key Identifier: 
                49:AE:81:FA:AA:EE:86:5F:E7:5A:A9:F2:B5:6A:72:8F:19:9B:52:F6
            X509v3 Authority Key Identifier: 
                keyid:6A:90:25:92:41:13:F9:C0:38:2D:58:19:3A:AF:83:65:70:0B:82:C1
                DirName:/CN=team481-net
                serial:75:F5:21:C1:DC:81:74:90:05:EE:CE:C0:2D:37:CD:AA:55:65:13:F2
            X509v3 Extended Key Usage: 
                TLS Web Client Authentication
            X509v3 Key Usage: 
                Digital Signature
    Signature Algorithm: sha256WithRSAEncryption
    Signature Value:
        9f:fb:1b:e9:64:21:0c:03:21:85:53:b1:3b:7b:4b:3b:23:91:
        dc:d1:a8:6a:42:68:e8:45:4a:9d:03:4b:9d:84:70:b1:be:21:
        3e:f9:57:79:0e:46:2b:91:28:f8:e7:fd:69:bd:a3:75:3c:db:
        0f:2e:67:b5:4f:55:0d:a6:c4:f1:77:4d:e1:44:71:a0:73:de:
        f4:c0:5c:20:88:14:57:8e:26:56:96:b9:d0:4b:e7:3e:2e:1b:
        91:fa:38:17:bb:fb:17:4a:2f:9c:1d:d9:3b:68:4a:33:ce:fa:
        88:0f:81:66:39:9c:27:61:d4:7a:2c:fd:ea:d0:37:0f:87:e7:
        02:51:2b:e2:95:78:ab:e1:2d:ee:65:af:34:f7:39:46:40:1f:
        00:df:f0:ac:48:f5:e6:30:20:1a:1f:4f:99:b7:d7:ce:a7:da:
        5c:89:4f:b6:89:ad:69:94:f5:cd:8b:a5:1f:1e:7c:d7:7c:6b:
        28:7d:a2:57:91:5c:b3:54:32:3a:65:20:57:e6:0e:4c:30:5e:
        3b:5a:c8:c6:00:be:71:f9:4d:57:e9:cf:23:a2:c5:b6:68:ab:
        46:c8:ce:04:26:f8:b4:b8:62:51:51:be:29:e3:15:84:4c:44:
        16:32:29:5e:ad:fc:bf:7f:ba:a4:61:0a:09:1b:e8:9b:eb:05:
        8d:33:29:ba
-----BEGIN CERTIFICATE-----
MIIDXTCCAkWgAwIBAgIRANDBPBru3H6eAzFsRzP7tB4wDQYJKoZIhvcNAQELBQAw
FjEUMBIGA1UEAwwLdGVhbTQ4MS1uZXQwHhcNMjMxMTAzMjA0ODAyWhcNMjYxMDE4
MjA0ODAyWjAZMRcwFQYDVQQDDA50ZWFtNDgxLWNsaWVudDCCASIwDQYJKoZIhvcN
AQEBBQADggEPADCCAQoCggEBAMaBH7J/+cD1gSLoSQHHuBawNg7/1rVZAnDZVgOk
oVb32PG4st1R3tN1TGerUKNfx1Kb/j05RoCowCzsf66Z88JqZES3Ph6/Kq92anu4
ymxavA+t4Kg4conNhrbDtFuXEcExRnAJ+eDirNuSQ+uHxX59YyKQm9WjZThNlqRi
gGamST/S3yBxy31RrklKlLJijn8SzckOaXHPS7imtO1Vjm3MMM/C84ZrChjwRmg2
ljv0OiSQmBwa+QDY3U8FnBH+kjGY33V2HmCkzL3mnffEhbSiGeDKPcnTI3kn/LoU
57IFGF0zvCa8HHVM6jKrQ2aKW0gYi9FJ3uJSglmrnBxWJecCAwEAAaOBojCBnzAJ
BgNVHRMEAjAAMB0GA1UdDgQWBBRJroH6qu6GX+daqfK1anKPGZtS9jBRBgNVHSME
SjBIgBRqkCWSQRP5wDgtWBk6r4NlcAuCwaEapBgwFjEUMBIGA1UEAwwLdGVhbTQ4
MS1uZXSCFHX1IcHcgXSQBe7OwC03zapVZRPyMBMGA1UdJQQMMAoGCCsGAQUFBwMC
MAsGA1UdDwQEAwIHgDANBgkqhkiG9w0BAQsFAAOCAQEAn/sb6WQhDAMhhVOxO3tL
OyOR3NGoakJo6EVKnQNLnYRwsb4hPvlXeQ5GK5Eo+Of9ab2jdTzbDy5ntU9VDabE
8XdN4URxoHPe9MBcIIgUV44mVpa50EvnPi4bkfo4F7v7F0ovnB3ZO2hKM876iA+B
ZjmcJ2HUeiz96tA3D4fnAlEr4pV4q+Et7mWvNPc5RkAfAN/wrEj15jAgGh9PmbfX
zqfaXIlPtomtaZT1zYulHx5813xrKH2iV5Fcs1QyOmUgV+YOTDBeO1rIxgC+cflN
V+nPI6LFtmirRsjOBCb4tLhiUVG+KeMVhExEFjIpXq38v3+6pGEKCRvom+sFjTMp
ug==
-----END CERTIFICATE-----
