Certificate:
    Data:
        Version: 3 (0x2)
        Serial Number:
            f7:28:35:70:b6:a9:ca:f1:4d:fd:1c:74:7e:c2:99:03
        Signature Algorithm: sha256WithRSAEncryption
        Issuer: CN=team481-net
        Validity
            Not Before: Nov  4 10:49:06 2023 GMT
            Not After : Oct 19 10:49:06 2026 GMT
        Subject: CN=team481-client
        Subject Public Key Info:
            Public Key Algorithm: rsaEncryption
                Public-Key: (2048 bit)
                Modulus:
                    00:e1:7d:7b:ed:6e:ff:8a:96:d1:68:03:8d:79:8c:
                    3c:d0:64:84:a7:89:83:7f:d8:87:dd:49:4e:c4:79:
                    74:5e:89:77:e8:d5:01:03:b3:ca:bb:ad:8f:30:78:
                    93:d5:6f:9c:78:ef:bb:4d:cb:b6:bc:8c:b6:0e:d6:
                    da:10:f5:c2:40:45:d5:87:46:9a:33:b3:ba:c1:b3:
                    58:2c:85:fd:43:06:83:cb:e1:ef:2e:9e:6a:ca:d6:
                    96:61:11:e9:91:d1:64:b3:5c:35:94:7c:a9:d9:f1:
                    cf:bd:e7:68:52:71:c1:10:3c:7e:4e:fe:86:27:49:
                    42:21:51:db:88:79:b7:51:82:b2:4d:7e:4d:88:81:
                    70:8f:29:0f:bd:50:92:d2:6a:ca:10:5d:e3:8b:4d:
                    fa:7e:8a:3e:f6:b0:51:1d:b6:8d:be:2b:08:6c:c8:
                    a4:9d:e5:81:e5:f0:30:88:a8:42:21:b6:f1:0c:5a:
                    41:63:20:83:62:03:77:11:4f:b5:46:f9:20:85:df:
                    99:e8:50:ab:4e:08:cf:7b:35:e6:75:7b:69:49:c0:
                    e7:b7:58:30:1c:90:02:9a:96:02:21:52:d1:c0:63:
                    bd:11:ce:4d:d9:89:96:1d:3b:46:50:8f:6a:58:8f:
                    77:18:d9:e4:f3:1f:a1:04:16:cb:f1:5b:79:e0:76:
                    fb:5d
                Exponent: 65537 (0x10001)
        X509v3 extensions:
            X509v3 Basic Constraints: 
                CA:FALSE
            X509v3 Subject Key Identifier: 
                0E:B3:E6:B4:7C:15:8D:1F:6D:EB:43:1A:EB:2B:F7:2A:9B:B0:AB:BF
            X509v3 Authority Key Identifier: 
                keyid:28:00:76:8C:97:E1:2C:D5:E9:A9:38:1E:F0:69:90:DF:7E:DE:EF:7F
                DirName:/CN=team481-net
                serial:33:68:21:BD:A4:B6:E9:A7:66:C8:E6:15:99:DA:FC:2E:DD:91:03:F0
            X509v3 Extended Key Usage: 
                TLS Web Client Authentication
            X509v3 Key Usage: 
                Digital Signature
    Signature Algorithm: sha256WithRSAEncryption
    Signature Value:
        80:d8:71:df:e5:6a:84:8b:b9:3d:40:ed:c7:ae:dd:ae:49:03:
        b6:b9:40:89:a6:72:f9:a7:b8:ca:4c:79:fd:3c:54:44:a4:43:
        8e:61:40:81:e4:9d:da:ea:19:75:58:71:e8:86:0d:83:7e:e0:
        f5:cf:2c:57:33:78:14:e3:22:e8:dc:37:55:c4:cb:5a:89:e6:
        04:cc:d4:af:dd:a4:88:69:c8:2d:8c:15:2e:ab:8f:54:3f:e8:
        46:87:85:bb:d7:da:ff:ab:f6:87:60:a1:f6:b3:ee:2e:5b:ec:
        06:e2:cd:36:88:32:82:b3:8a:ee:97:6f:c4:e7:25:80:98:06:
        3c:6f:ce:84:ac:f8:1e:11:b7:b5:6f:8c:1b:a5:82:a6:20:2f:
        dc:41:4d:f8:a2:ec:10:42:6b:b8:cb:39:19:ae:4b:77:84:4c:
        6a:69:cf:6e:9a:ec:0f:7a:1a:55:e8:56:44:ec:a8:fa:0d:f9:
        01:5e:70:5b:75:48:b4:77:e4:7f:d4:6c:03:2d:ed:10:f1:29:
        22:30:4c:bf:09:ea:fb:68:a2:0e:6d:71:ba:67:e4:5b:91:39:
        db:de:05:ba:07:2a:2e:6b:72:b7:86:2e:4d:d2:2c:dc:77:dd:
        75:a6:64:e4:b8:42:36:16:0c:17:43:26:9c:9c:e4:b6:8e:bc:
        7d:d3:a0:84
-----BEGIN CERTIFICATE-----
MIIDXTCCAkWgAwIBAgIRAPcoNXC2qcrxTf0cdH7CmQMwDQYJKoZIhvcNAQELBQAw
FjEUMBIGA1UEAwwLdGVhbTQ4MS1uZXQwHhcNMjMxMTA0MTA0OTA2WhcNMjYxMDE5
MTA0OTA2WjAZMRcwFQYDVQQDDA50ZWFtNDgxLWNsaWVudDCCASIwDQYJKoZIhvcN
AQEBBQADggEPADCCAQoCggEBAOF9e+1u/4qW0WgDjXmMPNBkhKeJg3/Yh91JTsR5
dF6Jd+jVAQOzyrutjzB4k9VvnHjvu03LtryMtg7W2hD1wkBF1YdGmjOzusGzWCyF
/UMGg8vh7y6easrWlmER6ZHRZLNcNZR8qdnxz73naFJxwRA8fk7+hidJQiFR24h5
t1GCsk1+TYiBcI8pD71QktJqyhBd44tN+n6KPvawUR22jb4rCGzIpJ3lgeXwMIio
QiG28QxaQWMgg2IDdxFPtUb5IIXfmehQq04Iz3s15nV7aUnA57dYMByQApqWAiFS
0cBjvRHOTdmJlh07RlCPaliPdxjZ5PMfoQQWy/FbeeB2+10CAwEAAaOBojCBnzAJ
BgNVHRMEAjAAMB0GA1UdDgQWBBQOs+a0fBWNH23rQxrrK/cqm7CrvzBRBgNVHSME
SjBIgBQoAHaMl+Es1empOB7waZDfft7vf6EapBgwFjEUMBIGA1UEAwwLdGVhbTQ4
MS1uZXSCFDNoIb2ktumnZsjmFZna/C7dkQPwMBMGA1UdJQQMMAoGCCsGAQUFBwMC
MAsGA1UdDwQEAwIHgDANBgkqhkiG9w0BAQsFAAOCAQEAgNhx3+VqhIu5PUDtx67d
rkkDtrlAiaZy+ae4ykx5/TxURKRDjmFAgeSd2uoZdVhx6IYNg37g9c8sVzN4FOMi
6Nw3VcTLWonmBMzUr92kiGnILYwVLquPVD/oRoeFu9fa/6v2h2Ch9rPuLlvsBuLN
NogygrOK7pdvxOclgJgGPG/OhKz4HhG3tW+MG6WCpiAv3EFN+KLsEEJruMs5Ga5L
d4RMamnPbprsD3oaVehWROyo+g35AV5wW3VItHfkf9RsAy3tEPEpIjBMvwnq+2ii
Dm1xumfkW5E5294FugcqLmtyt4YuTdIs3HfddaZk5LhCNhYMF0MmnJzkto68fdOg
hA==
-----END CERTIFICATE-----
