Certificate:
    Data:
        Version: 3 (0x2)
        Serial Number:
            8f:a9:65:94:ce:b0:07:56:19:d3:60:16:91:f7:65:ab
        Signature Algorithm: sha256WithRSAEncryption
        Issuer: CN=team337-net
        Validity
            Not Before: Nov  3 20:45:27 2023 GMT
            Not After : Oct 18 20:45:27 2026 GMT
        Subject: CN=team337-server
        Subject Public Key Info:
            Public Key Algorithm: rsaEncryption
                Public-Key: (2048 bit)
                Modulus:
                    00:b7:9e:b6:3e:44:60:fa:e6:fa:62:fe:77:72:30:
                    a6:4a:f0:73:83:61:54:ce:8e:60:54:e2:ff:5f:bc:
                    aa:12:ac:a6:66:5e:bb:04:9a:62:d4:80:51:ac:0e:
                    52:80:22:dd:8f:74:0c:65:cd:0d:52:d5:a7:d0:5b:
                    80:59:d8:15:fa:a8:bb:6d:c9:aa:be:ca:e6:93:ce:
                    88:b7:93:2d:ae:49:50:ab:f7:0d:6b:87:c2:6a:23:
                    3c:fe:db:bd:c6:a8:ad:bc:fd:99:6f:6d:56:f9:08:
                    8b:28:40:e5:42:d7:c5:8d:77:c9:94:6b:6b:ba:03:
                    8c:b0:8e:f6:5d:45:db:62:df:01:59:a4:47:17:d3:
                    78:1a:79:7b:1e:4a:14:1c:09:16:7a:60:30:03:87:
                    f9:14:83:85:65:be:64:5c:ae:5b:06:dd:f5:e2:2d:
                    17:ac:71:71:bf:85:8c:ff:50:13:ff:31:9b:5b:56:
                    7a:73:39:46:3a:40:78:f3:6f:cf:1b:58:09:96:19:
                    4a:b1:a3:ee:18:64:a0:f2:d8:33:0b:54:bb:38:e1:
                    a0:6e:fc:f5:51:41:11:e6:68:6d:d1:00:54:63:f3:
                    ec:55:05:68:ce:5a:7e:25:05:5a:9b:a2:b2:dd:c3:
                    eb:60:e0:f9:b5:01:25:ba:37:86:92:07:d6:1c:81:
                    a8:97
                Exponent: 65537 (0x10001)
        X509v3 extensions:
            X509v3 Basic Constraints: 
                CA:FALSE
            X509v3 Subject Key Identifier: 
                A8:A1:AA:25:2A:15:71:A8:8F:8B:74:A4:3F:28:46:D0:66:EE:B2:C1
            X509v3 Authority Key Identifier: 
                keyid:E7:72:DC:CE:76:AE:DA:DF:E3:B3:70:ED:4F:41:DD:AB:B1:B4:A4:30
                DirName:/CN=team337-net
                serial:6E:24:BE:7A:E6:9F:99:C6:10:2A:FD:02:FE:F0:1E:AA:B8:7C:85:22
            X509v3 Extended Key Usage: 
                TLS Web Server Authentication
            X509v3 Key Usage: 
                Digital Signature, Key Encipherment
            X509v3 Subject Alternative Name: 
                DNS:team337-server
    Signature Algorithm: sha256WithRSAEncryption
    Signature Value:
        2f:4d:89:3d:6c:69:44:56:c9:76:fd:53:fc:38:12:b6:97:37:
        54:dd:13:5b:c7:51:44:84:29:40:a0:d6:4f:42:80:c1:a3:ab:
        ff:33:c7:61:6a:9a:16:16:89:b4:e3:6b:79:22:6c:f2:c6:ad:
        35:22:f8:5b:68:18:9d:85:0a:6a:fc:18:79:fa:b9:11:c1:5b:
        0c:d0:47:97:9f:86:a2:53:bb:70:1e:57:b5:dc:15:4d:7a:ac:
        fe:ad:07:fb:e3:1b:7a:fe:27:86:31:52:bc:62:e9:22:53:99:
        bc:d1:df:81:95:b3:0b:4e:3e:55:16:fb:44:d4:cd:f1:90:9d:
        aa:8d:4c:be:fd:93:ea:0b:a7:c8:72:3b:79:79:fb:ef:2d:97:
        91:8c:13:bc:2c:5b:6b:36:11:47:59:1b:8a:ce:4f:36:a2:5d:
        bc:03:70:69:f6:41:a7:de:06:0b:1c:db:43:de:80:d6:6d:95:
        90:c1:73:59:ab:43:36:6f:58:96:2c:2d:a0:ec:2a:9a:c1:13:
        ef:d2:51:63:f2:f1:5b:d3:45:06:a1:59:90:9f:ef:36:ec:e3:
        01:2c:9a:3f:52:5d:a7:f9:45:a7:c7:59:f7:9e:9d:f1:09:ac:
        b2:cd:51:1a:4c:ec:cb:c4:dc:64:15:5d:d0:f7:19:25:7c:5a:
        3c:60:27:56
-----BEGIN CERTIFICATE-----
MIIDeDCCAmCgAwIBAgIRAI+pZZTOsAdWGdNgFpH3ZaswDQYJKoZIhvcNAQELBQAw
FjEUMBIGA1UEAwwLdGVhbTMzNy1uZXQwHhcNMjMxMTAzMjA0NTI3WhcNMjYxMDE4
MjA0NTI3WjAZMRcwFQYDVQQDDA50ZWFtMzM3LXNlcnZlcjCCASIwDQYJKoZIhvcN
AQEBBQADggEPADCCAQoCggEBALeetj5EYPrm+mL+d3Iwpkrwc4NhVM6OYFTi/1+8
qhKspmZeuwSaYtSAUawOUoAi3Y90DGXNDVLVp9BbgFnYFfqou23Jqr7K5pPOiLeT
La5JUKv3DWuHwmojPP7bvcaorbz9mW9tVvkIiyhA5ULXxY13yZRra7oDjLCO9l1F
22LfAVmkRxfTeBp5ex5KFBwJFnpgMAOH+RSDhWW+ZFyuWwbd9eItF6xxcb+FjP9Q
E/8xm1tWenM5RjpAePNvzxtYCZYZSrGj7hhkoPLYMwtUuzjhoG789VFBEeZobdEA
VGPz7FUFaM5afiUFWpuist3D62Dg+bUBJbo3hpIH1hyBqJcCAwEAAaOBvTCBujAJ
BgNVHRMEAjAAMB0GA1UdDgQWBBSooaolKhVxqI+LdKQ/KEbQZu6ywTBRBgNVHSME
SjBIgBTnctzOdq7a3+OzcO1PQd2rsbSkMKEapBgwFjEUMBIGA1UEAwwLdGVhbTMz
Ny1uZXSCFG4kvnrmn5nGECr9Av7wHqq4fIUiMBMGA1UdJQQMMAoGCCsGAQUFBwMB
MAsGA1UdDwQEAwIFoDAZBgNVHREEEjAQgg50ZWFtMzM3LXNlcnZlcjANBgkqhkiG
9w0BAQsFAAOCAQEAL02JPWxpRFbJdv1T/DgStpc3VN0TW8dRRIQpQKDWT0KAwaOr
/zPHYWqaFhaJtONreSJs8satNSL4W2gYnYUKavwYefq5EcFbDNBHl5+GolO7cB5X
tdwVTXqs/q0H++Mbev4nhjFSvGLpIlOZvNHfgZWzC04+VRb7RNTN8ZCdqo1Mvv2T
6gunyHI7eXn77y2XkYwTvCxbazYRR1kbis5PNqJdvANwafZBp94GCxzbQ96A1m2V
kMFzWatDNm9YliwtoOwqmsET79JRY/LxW9NFBqFZkJ/vNuzjASyaP1Jdp/lFp8dZ
956d8Qmsss1RGkzsy8TcZBVd0PcZJXxaPGAnVg==
-----END CERTIFICATE-----
