Certificate:
    Data:
        Version: 3 (0x2)
        Serial Number:
            36:4f:b4:6a:92:79:84:d3:5a:f5:9b:ee:0f:42:18:30
        Signature Algorithm: sha256WithRSAEncryption
        Issuer: CN=team358-net
        Validity
            Not Before: Nov  3 20:45:47 2023 GMT
            Not After : Oct 18 20:45:47 2026 GMT
        Subject: CN=team358-server
        Subject Public Key Info:
            Public Key Algorithm: rsaEncryption
                Public-Key: (2048 bit)
                Modulus:
                    00:b5:63:62:e3:90:9c:0f:b6:aa:73:9c:4e:85:da:
                    40:76:41:16:78:76:00:74:00:68:ca:1f:b3:f6:b2:
                    bf:72:84:f6:4d:67:07:de:85:59:1e:4b:bd:e6:12:
                    f6:17:7d:37:22:a4:67:ba:b7:f0:b3:b1:ae:c1:25:
                    a7:28:ef:e0:4c:d8:22:f3:fd:5c:a4:fe:1a:dd:33:
                    75:22:6c:30:e6:f9:90:17:73:d5:4b:8a:51:2a:a9:
                    9a:94:87:d3:71:47:b9:50:37:54:ca:5f:b2:7a:e1:
                    70:a3:c3:05:c7:a7:0e:4c:9f:c9:b0:3e:18:7a:76:
                    d8:4c:aa:ee:e9:f6:2b:26:a3:09:8b:15:23:97:56:
                    0c:73:bc:93:d5:2d:59:ad:b6:59:79:c4:8d:7c:ce:
                    0c:5f:9f:01:fe:d5:1a:4c:1c:18:c4:37:fb:d7:25:
                    6c:d3:f3:a1:74:00:a1:0b:63:15:4c:75:0f:3e:1b:
                    e3:89:67:f4:88:45:7d:01:e9:c8:5a:9a:3f:39:0c:
                    5b:f3:28:c3:a7:c8:c7:57:41:60:c7:a5:26:c0:81:
                    39:d4:7a:91:9c:1b:65:79:49:de:8d:18:7d:96:32:
                    12:f6:e7:79:a7:df:f4:d9:6b:ef:75:d5:69:6c:87:
                    ad:58:2e:a1:b5:ad:64:ce:3f:7e:3b:fd:33:ce:0e:
                    48:1d
                Exponent: 65537 (0x10001)
        X509v3 extensions:
            X509v3 Basic Constraints: 
                CA:FALSE
            X509v3 Subject Key Identifier: 
                9B:92:5E:D0:61:7C:68:AC:9F:DE:C4:2A:6C:05:E4:33:CB:32:CF:2C
            X509v3 Authority Key Identifier: 
                keyid:A3:F5:47:0B:23:F3:69:1A:7D:42:C9:EB:5D:B1:ED:2A:44:4E:62:71
                DirName:/CN=team358-net
                serial:79:84:90:A4:7C:A2:86:77:C5:44:61:01:9F:DE:87:FA:87:11:44:BD
            X509v3 Extended Key Usage: 
                TLS Web Server Authentication
            X509v3 Key Usage: 
                Digital Signature, Key Encipherment
            X509v3 Subject Alternative Name: 
                DNS:team358-server
    Signature Algorithm: sha256WithRSAEncryption
    Signature Value:
        12:41:a1:ba:95:31:c3:22:d8:b6:72:2f:0a:b7:22:58:cd:82:
        17:28:dd:64:35:c9:d8:34:d6:74:93:eb:1f:d5:d6:0b:c5:ab:
        fd:24:c7:18:7d:0e:32:9c:78:c9:d4:df:80:e1:2d:1f:d9:18:
        d9:72:f9:7c:8b:98:31:0f:37:b8:e7:d1:75:e5:30:85:e2:70:
        94:1b:7f:d1:d4:a2:26:e1:26:27:25:8a:6f:05:bc:ab:e2:94:
        b4:82:fe:1d:83:f6:85:58:28:dd:88:f3:5a:19:08:83:43:ef:
        b8:a8:1f:33:f1:23:a4:75:0d:cd:ca:95:53:65:30:60:ea:2c:
        95:61:64:80:7b:13:f9:03:9c:e1:e3:3c:14:4a:c9:eb:ab:85:
        34:78:78:e2:17:ac:21:c4:e9:df:fe:6e:c7:e2:e2:85:bf:51:
        34:bd:f1:df:f6:83:c1:e3:4f:eb:7e:b1:f7:73:1c:30:3c:84:
        62:5c:76:29:39:e7:22:65:36:81:0a:08:ea:18:72:83:f4:6e:
        31:7a:bf:03:3e:a9:52:84:fd:88:e3:53:9e:97:71:f3:dd:de:
        ea:08:25:b1:34:4b:c6:9d:20:7b:1b:c8:2a:13:22:cd:e1:a6:
        b8:02:e8:7e:92:6a:76:bf:8d:ad:7d:05:c7:4f:6f:19:c8:94:
        22:37:dd:05
-----BEGIN CERTIFICATE-----
MIIDdzCCAl+gAwIBAgIQNk+0apJ5hNNa9ZvuD0IYMDANBgkqhkiG9w0BAQsFADAW
MRQwEgYDVQQDDAt0ZWFtMzU4LW5ldDAeFw0yMzExMDMyMDQ1NDdaFw0yNjEwMTgy
MDQ1NDdaMBkxFzAVBgNVBAMMDnRlYW0zNTgtc2VydmVyMIIBIjANBgkqhkiG9w0B
AQEFAAOCAQ8AMIIBCgKCAQEAtWNi45CcD7aqc5xOhdpAdkEWeHYAdABoyh+z9rK/
coT2TWcH3oVZHku95hL2F303IqRnurfws7GuwSWnKO/gTNgi8/1cpP4a3TN1Imww
5vmQF3PVS4pRKqmalIfTcUe5UDdUyl+yeuFwo8MFx6cOTJ/JsD4YenbYTKru6fYr
JqMJixUjl1YMc7yT1S1ZrbZZecSNfM4MX58B/tUaTBwYxDf71yVs0/OhdAChC2MV
THUPPhvjiWf0iEV9AenIWpo/OQxb8yjDp8jHV0Fgx6UmwIE51HqRnBtleUnejRh9
ljIS9ud5p9/02WvvddVpbIetWC6hta1kzj9+O/0zzg5IHQIDAQABo4G9MIG6MAkG
A1UdEwQCMAAwHQYDVR0OBBYEFJuSXtBhfGisn97EKmwF5DPLMs8sMFEGA1UdIwRK
MEiAFKP1Rwsj82kafULJ612x7SpETmJxoRqkGDAWMRQwEgYDVQQDDAt0ZWFtMzU4
LW5ldIIUeYSQpHyihnfFRGEBn96H+ocRRL0wEwYDVR0lBAwwCgYIKwYBBQUHAwEw
CwYDVR0PBAQDAgWgMBkGA1UdEQQSMBCCDnRlYW0zNTgtc2VydmVyMA0GCSqGSIb3
DQEBCwUAA4IBAQASQaG6lTHDIti2ci8KtyJYzYIXKN1kNcnYNNZ0k+sf1dYLxav9
JMcYfQ4ynHjJ1N+A4S0f2RjZcvl8i5gxDze459F15TCF4nCUG3/R1KIm4SYnJYpv
Bbyr4pS0gv4dg/aFWCjdiPNaGQiDQ++4qB8z8SOkdQ3NypVTZTBg6iyVYWSAexP5
A5zh4zwUSsnrq4U0eHjiF6whxOnf/m7H4uKFv1E0vfHf9oPB40/rfrH3cxwwPIRi
XHYpOeciZTaBCgjqGHKD9G4xer8DPqlShP2I41Oel3Hz3d7qCCWxNEvGnSB7G8gq
EyLN4aa4Auh+kmp2v42tfQXHT28ZyJQiN90F
-----END CERTIFICATE-----
