Certificate:
    Data:
        Version: 3 (0x2)
        Serial Number:
            b5:ff:7b:68:57:3d:41:35:a7:36:a7:0d:44:7d:61:ea
        Signature Algorithm: sha256WithRSAEncryption
        Issuer: CN=team139-net
        Validity
            Not Before: Nov  4 11:30:17 2023 GMT
            Not After : Oct 19 11:30:17 2026 GMT
        Subject: CN=team139-client
        Subject Public Key Info:
            Public Key Algorithm: rsaEncryption
                Public-Key: (2048 bit)
                Modulus:
                    00:cd:f0:6c:68:c6:92:af:8f:05:2a:eb:09:11:d1:
                    24:14:39:41:aa:26:81:cc:4c:c0:06:bd:97:e7:2e:
                    58:e6:a6:26:2d:c6:38:0a:f8:8a:54:a8:7c:9e:af:
                    05:7d:c1:83:30:ca:56:1a:aa:b8:c8:c9:90:bb:ad:
                    b7:56:31:e6:26:28:65:32:a8:7e:0f:65:03:2c:79:
                    4a:85:ea:5f:85:37:60:70:84:c4:7f:8f:22:06:15:
                    1b:16:e5:70:29:d5:3d:a7:7b:48:c3:cf:5d:88:6d:
                    9b:f7:63:4c:10:9e:30:62:b4:c2:94:71:41:41:35:
                    3f:db:61:7b:79:6d:2c:cf:58:1f:3d:ac:6a:bb:00:
                    a7:1e:98:23:7c:52:b4:40:96:de:8e:f7:33:d2:bc:
                    66:09:81:6a:c8:c2:5c:44:3b:15:b8:b6:06:46:7a:
                    1f:c9:52:1c:4c:d0:c6:c2:de:61:82:ec:ac:27:55:
                    e6:d5:10:b6:5f:2e:de:e1:d4:99:fa:fa:b8:bf:7b:
                    3c:fd:bc:05:f7:70:bc:f9:10:e9:af:0e:b6:c4:8b:
                    22:08:fb:3b:f9:0a:45:cb:ed:20:43:5e:e0:6a:02:
                    6d:b1:b8:01:db:83:9e:51:08:7b:9b:ef:d6:51:fd:
                    ed:38:44:bf:59:bc:46:4a:52:ad:c6:1c:36:29:13:
                    d3:35
                Exponent: 65537 (0x10001)
        X509v3 extensions:
            X509v3 Basic Constraints: 
                CA:FALSE
            X509v3 Subject Key Identifier: 
                8D:F7:CA:19:9D:82:FC:48:43:FC:05:28:9F:B8:55:72:AE:50:8E:31
            X509v3 Authority Key Identifier: 
                keyid:10:78:01:BB:89:7B:29:D8:A8:78:D9:FB:FF:69:2D:D0:E3:C4:23:3D
                DirName:/CN=team139-net
                serial:33:E3:6B:57:F4:E1:62:00:C6:CB:9C:4B:D2:54:CF:8E:0E:54:70:31
            X509v3 Extended Key Usage: 
                TLS Web Client Authentication
            X509v3 Key Usage: 
                Digital Signature
    Signature Algorithm: sha256WithRSAEncryption
    Signature Value:
        98:03:9b:06:2e:30:18:ae:40:a4:9a:0a:65:6e:6b:08:e8:c7:
        4b:c4:36:28:d0:78:92:91:be:7a:69:39:f5:a9:ba:32:25:bf:
        21:78:07:f9:1c:a1:12:33:10:c0:3c:53:b6:f7:f7:12:92:b6:
        86:12:44:cd:cc:34:ab:78:36:b6:bf:2e:5a:7f:52:81:67:05:
        ae:79:b4:46:98:2b:3b:10:c4:b6:d0:e8:f5:ff:0a:ad:d1:16:
        88:04:8f:99:a4:49:c3:00:f4:8f:ec:e5:5f:be:ce:c5:51:0c:
        6d:85:03:2f:76:bc:37:db:c1:69:2a:20:5c:a5:7f:d4:97:71:
        0d:f0:6d:43:b0:ae:8a:62:39:31:d1:9f:f5:bd:25:bc:12:7d:
        bf:12:68:08:34:bb:f1:b1:d3:0a:22:67:2a:f4:de:2b:db:8e:
        c7:83:9e:ab:d2:22:89:b3:7b:2f:ad:35:3a:eb:c3:cf:31:5e:
        20:51:35:aa:18:bb:a3:3d:64:a9:da:9e:5c:aa:19:7a:40:85:
        86:31:14:ea:58:e9:2b:f2:96:65:01:af:14:21:62:a1:96:26:
        6f:c2:d1:d8:10:56:94:0e:65:85:8f:b0:74:66:df:03:a8:f8:
        51:4e:2f:5d:1d:01:ce:9d:b7:39:ea:48:6b:d6:01:4f:05:bf:
        4f:f3:27:29
-----BEGIN CERTIFICATE-----
MIIDXTCCAkWgAwIBAgIRALX/e2hXPUE1pzanDUR9YeowDQYJKoZIhvcNAQELBQAw
FjEUMBIGA1UEAwwLdGVhbTEzOS1uZXQwHhcNMjMxMTA0MTEzMDE3WhcNMjYxMDE5
MTEzMDE3WjAZMRcwFQYDVQQDDA50ZWFtMTM5LWNsaWVudDCCASIwDQYJKoZIhvcN
AQEBBQADggEPADCCAQoCggEBAM3wbGjGkq+PBSrrCRHRJBQ5QaomgcxMwAa9l+cu
WOamJi3GOAr4ilSofJ6vBX3BgzDKVhqquMjJkLutt1Yx5iYoZTKofg9lAyx5SoXq
X4U3YHCExH+PIgYVGxblcCnVPad7SMPPXYhtm/djTBCeMGK0wpRxQUE1P9the3lt
LM9YHz2sarsApx6YI3xStECW3o73M9K8ZgmBasjCXEQ7Fbi2BkZ6H8lSHEzQxsLe
YYLsrCdV5tUQtl8u3uHUmfr6uL97PP28BfdwvPkQ6a8OtsSLIgj7O/kKRcvtIENe
4GoCbbG4AduDnlEIe5vv1lH97ThEv1m8RkpSrcYcNikT0zUCAwEAAaOBojCBnzAJ
BgNVHRMEAjAAMB0GA1UdDgQWBBSN98oZnYL8SEP8BSifuFVyrlCOMTBRBgNVHSME
SjBIgBQQeAG7iXsp2Kh42fv/aS3Q48QjPaEapBgwFjEUMBIGA1UEAwwLdGVhbTEz
OS1uZXSCFDPja1f04WIAxsucS9JUz44OVHAxMBMGA1UdJQQMMAoGCCsGAQUFBwMC
MAsGA1UdDwQEAwIHgDANBgkqhkiG9w0BAQsFAAOCAQEAmAObBi4wGK5ApJoKZW5r
COjHS8Q2KNB4kpG+emk59am6MiW/IXgH+RyhEjMQwDxTtvf3EpK2hhJEzcw0q3g2
tr8uWn9SgWcFrnm0RpgrOxDEttDo9f8KrdEWiASPmaRJwwD0j+zlX77OxVEMbYUD
L3a8N9vBaSogXKV/1JdxDfBtQ7CuimI5MdGf9b0lvBJ9vxJoCDS78bHTCiJnKvTe
K9uOx4Oeq9IiibN7L601OuvDzzFeIFE1qhi7oz1kqdqeXKoZekCFhjEU6ljpK/KW
ZQGvFCFioZYmb8LR2BBWlA5lhY+wdGbfA6j4UU4vXR0Bzp23OepIa9YBTwW/T/Mn
KQ==
-----END CERTIFICATE-----
