Certificate:
    Data:
        Version: 3 (0x2)
        Serial Number:
            f0:95:3e:d4:6e:b5:9c:ec:7b:68:49:3d:7f:25:b2:63
        Signature Algorithm: sha256WithRSAEncryption
        Issuer: CN=team139-net
        Validity
            Not Before: Nov  4 10:43:07 2023 GMT
            Not After : Oct 19 10:43:07 2026 GMT
        Subject: CN=team139-server
        Subject Public Key Info:
            Public Key Algorithm: rsaEncryption
                Public-Key: (2048 bit)
                Modulus:
                    00:ce:ec:fe:3e:68:d3:4e:4e:19:26:86:9c:6e:ca:
                    25:f3:fa:31:90:e7:24:3d:65:a6:1b:bd:50:a7:6f:
                    3f:0e:8e:48:64:26:87:a7:6a:4c:27:d5:5c:9d:4f:
                    57:2e:63:ce:ec:1d:b1:66:c0:aa:21:d7:3c:23:15:
                    8d:44:22:c4:12:ab:32:3d:ad:ae:9e:45:25:06:e2:
                    bf:f8:b5:1a:4a:52:07:ab:c2:b7:2b:b5:81:66:4e:
                    d4:1a:5b:50:ea:d0:50:61:9f:76:8e:07:4c:16:cf:
                    1d:d2:b7:7a:15:73:c4:6b:4b:bc:f9:50:c1:b9:62:
                    c2:97:06:c2:f2:b9:22:cf:90:55:a3:a1:4b:b4:16:
                    d8:78:c8:ca:ac:67:61:f5:cc:99:5b:77:ff:3e:5f:
                    de:0f:d1:58:04:60:2d:69:be:bf:f7:a7:03:63:8b:
                    ce:0e:f1:40:cc:05:bd:5a:94:88:eb:a4:54:c2:75:
                    d8:34:9e:06:b0:ef:62:87:76:d5:95:0e:30:36:9f:
                    d0:42:01:da:d0:4b:d9:5d:88:ac:90:1f:c4:b8:9c:
                    e8:21:00:63:c6:d0:8f:01:f7:06:a5:df:97:e2:e4:
                    6e:0c:19:78:56:f7:91:8a:82:9f:cf:e6:ee:37:2b:
                    70:9b:b6:54:25:3b:44:d5:46:31:b4:d9:3f:48:ec:
                    10:83
                Exponent: 65537 (0x10001)
        X509v3 extensions:
            X509v3 Basic Constraints: 
                CA:FALSE
            X509v3 Subject Key Identifier: 
                69:64:26:2B:D5:D2:55:9F:D4:5A:8F:90:D3:9C:CC:D4:45:99:CB:99
            X509v3 Authority Key Identifier: 
                keyid:E1:5E:37:BE:27:C0:7F:49:A4:5A:9F:29:93:12:5C:5B:85:B6:02:F9
                DirName:/CN=team139-net
                serial:0C:EC:2A:F2:0F:63:85:85:65:1A:60:59:5C:F1:ED:C9:0E:B5:43:22
            X509v3 Extended Key Usage: 
                TLS Web Server Authentication
            X509v3 Key Usage: 
                Digital Signature, Key Encipherment
            X509v3 Subject Alternative Name: 
                DNS:team139-server
    Signature Algorithm: sha256WithRSAEncryption
    Signature Value:
        4f:b5:b3:5d:cd:b4:1c:df:0a:be:d6:5b:09:93:12:08:ca:28:
        c5:36:73:8b:cd:47:cd:0e:ea:39:09:9e:a0:a9:6f:52:78:a6:
        ca:76:c0:44:70:30:3b:42:58:30:02:03:35:b7:83:3e:84:4a:
        17:a6:eb:e0:0c:3e:e7:92:17:dd:a2:c4:66:5a:7b:00:07:0a:
        ac:0d:b4:d9:0c:14:6a:5f:ea:fb:c8:d1:fb:2e:c1:92:1b:ae:
        a4:14:b0:07:e8:26:41:56:e2:76:00:88:c0:df:2a:89:0a:48:
        7a:4d:f9:3c:2b:bd:fa:37:f7:ad:96:a6:22:3c:fb:10:ff:4c:
        ac:8a:7b:6a:be:82:a3:e3:8b:8f:a7:7d:3e:ed:91:da:22:ca:
        54:b2:2c:0c:43:84:25:19:48:1a:1f:29:cc:95:d1:52:d5:e2:
        18:10:d4:7f:78:3e:fa:d5:19:01:b3:24:7d:5f:65:d9:41:5f:
        6f:98:19:bd:74:de:68:73:be:69:1f:45:c2:f3:31:30:c5:5c:
        8d:cc:3f:39:b9:49:17:7b:49:35:03:04:a6:24:74:56:39:1a:
        58:1c:f1:40:12:a6:ac:c9:82:76:b6:37:ce:66:35:0a:c3:23:
        67:a1:1c:8c:64:54:c0:81:8b:51:d4:f5:83:93:10:c3:ac:1b:
        6c:dd:08:18
-----BEGIN CERTIFICATE-----
MIIDeDCCAmCgAwIBAgIRAPCVPtRutZzse2hJPX8lsmMwDQYJKoZIhvcNAQELBQAw
FjEUMBIGA1UEAwwLdGVhbTEzOS1uZXQwHhcNMjMxMTA0MTA0MzA3WhcNMjYxMDE5
MTA0MzA3WjAZMRcwFQYDVQQDDA50ZWFtMTM5LXNlcnZlcjCCASIwDQYJKoZIhvcN
AQEBBQADggEPADCCAQoCggEBAM7s/j5o005OGSaGnG7KJfP6MZDnJD1lphu9UKdv
Pw6OSGQmh6dqTCfVXJ1PVy5jzuwdsWbAqiHXPCMVjUQixBKrMj2trp5FJQbiv/i1
GkpSB6vCtyu1gWZO1BpbUOrQUGGfdo4HTBbPHdK3ehVzxGtLvPlQwbliwpcGwvK5
Is+QVaOhS7QW2HjIyqxnYfXMmVt3/z5f3g/RWARgLWm+v/enA2OLzg7xQMwFvVqU
iOukVMJ12DSeBrDvYod21ZUOMDaf0EIB2tBL2V2IrJAfxLic6CEAY8bQjwH3BqXf
l+LkbgwZeFb3kYqCn8/m7jcrcJu2VCU7RNVGMbTZP0jsEIMCAwEAAaOBvTCBujAJ
BgNVHRMEAjAAMB0GA1UdDgQWBBRpZCYr1dJVn9Raj5DTnMzURZnLmTBRBgNVHSME
SjBIgBThXje+J8B/SaRanymTElxbhbYC+aEapBgwFjEUMBIGA1UEAwwLdGVhbTEz
OS1uZXSCFAzsKvIPY4WFZRpgWVzx7ckOtUMiMBMGA1UdJQQMMAoGCCsGAQUFBwMB
MAsGA1UdDwQEAwIFoDAZBgNVHREEEjAQgg50ZWFtMTM5LXNlcnZlcjANBgkqhkiG
9w0BAQsFAAOCAQEAT7WzXc20HN8KvtZbCZMSCMooxTZzi81HzQ7qOQmeoKlvUnim
ynbARHAwO0JYMAIDNbeDPoRKF6br4Aw+55IX3aLEZlp7AAcKrA202QwUal/q+8jR
+y7BkhuupBSwB+gmQVbidgCIwN8qiQpIek35PCu9+jf3rZamIjz7EP9MrIp7ar6C
o+OLj6d9Pu2R2iLKVLIsDEOEJRlIGh8pzJXRUtXiGBDUf3g++tUZAbMkfV9l2UFf
b5gZvXTeaHO+aR9FwvMxMMVcjcw/OblJF3tJNQMEpiR0VjkaWBzxQBKmrMmCdrY3
zmY1CsMjZ6EcjGRUwIGLUdT1g5MQw6wbbN0IGA==
-----END CERTIFICATE-----
