Certificate:
    Data:
        Version: 3 (0x2)
        Serial Number:
            5e:af:cd:08:aa:f1:d1:62:15:18:73:21:29:41:98:b9
        Signature Algorithm: sha256WithRSAEncryption
        Issuer: CN=team1-net
        Validity
            Not Before: Oct 31 16:30:10 2023 GMT
            Not After : Oct 15 16:30:10 2026 GMT
        Subject: CN=team1-server
        Subject Public Key Info:
            Public Key Algorithm: rsaEncryption
                Public-Key: (2048 bit)
                Modulus:
                    00:a2:01:27:af:60:bb:6a:90:8b:be:13:90:5b:24:
                    f7:c8:21:f9:c0:f9:5e:0e:52:46:54:12:c8:fc:4f:
                    64:2d:49:31:46:b4:18:82:a9:12:a6:ab:02:a0:85:
                    53:bc:a0:3c:d8:4c:26:91:b6:4b:d6:dd:3d:ee:77:
                    bb:50:a3:6e:40:81:52:bf:35:78:e3:f1:eb:98:2a:
                    53:00:91:8a:e5:ab:13:56:c9:7e:e9:ab:c4:09:36:
                    83:28:37:f0:fe:14:dd:5a:04:96:8a:53:3c:aa:81:
                    c3:f2:f0:84:b7:84:76:4a:e0:dd:d3:68:6f:82:2b:
                    e2:56:bd:5e:71:4c:8b:44:d7:9b:d3:ae:11:33:bf:
                    cc:4d:e1:6e:8f:b0:28:02:3d:bc:fe:4e:0d:75:ae:
                    ab:5e:b3:0c:37:f8:30:0f:66:5c:da:3f:85:da:de:
                    5d:d4:fb:3a:30:a1:0f:b0:aa:fd:9c:0a:49:5e:8c:
                    e5:f3:bf:e3:73:c0:59:35:3d:27:12:d2:cb:28:7c:
                    f4:a9:dd:a4:a5:23:f4:33:a6:6c:e2:6c:73:dd:d9:
                    ad:c7:51:55:d6:aa:cb:fa:49:0e:d7:1e:cc:8a:ad:
                    fb:2d:d8:f9:87:1c:b7:c5:3d:17:8d:e6:49:b7:38:
                    6f:09:a2:7a:5b:cf:42:64:a8:ec:04:b7:49:7f:1c:
                    e3:61
                Exponent: 65537 (0x10001)
        X509v3 extensions:
            X509v3 Basic Constraints: 
                CA:FALSE
            X509v3 Subject Key Identifier: 
                DD:2E:6C:9C:FF:39:62:8D:C4:18:18:06:13:BE:47:39:6D:89:E2:36
            X509v3 Authority Key Identifier: 
                keyid:A7:D7:92:A7:99:DD:A9:C7:0A:2D:FF:53:C0:4C:A2:47:E9:AD:54:19
                DirName:/CN=team1-net
                serial:17:BC:F4:D4:F4:A2:FC:A8:83:A5:A6:06:A9:64:9E:ED:98:D0:C2:D7
            X509v3 Extended Key Usage: 
                TLS Web Server Authentication
            X509v3 Key Usage: 
                Digital Signature, Key Encipherment
            X509v3 Subject Alternative Name: 
                DNS:team1-server
    Signature Algorithm: sha256WithRSAEncryption
    Signature Value:
        24:03:de:f4:cc:5b:08:d9:63:5c:57:17:1a:16:c0:2d:f0:d4:
        a1:14:7f:56:4c:dc:07:50:c1:2f:72:97:c4:b5:bd:9e:9b:df:
        b9:c6:8d:7f:fa:aa:46:78:b5:f2:57:37:99:c9:f6:1b:40:28:
        f3:64:6c:d0:e4:ed:9a:fc:b4:b3:8a:2e:1e:a1:ff:d6:ea:4d:
        f9:35:5c:ea:d5:c2:55:71:05:16:96:d2:ee:86:e4:43:a1:c0:
        c2:3a:6b:ea:23:ce:76:cd:e8:5d:be:eb:75:5e:2f:4d:d6:f7:
        1c:e9:1c:15:b7:c9:b1:e5:be:55:5d:4f:0c:fd:74:51:32:a3:
        e6:ea:f7:ae:85:5c:32:99:02:ee:23:ed:90:2a:31:1c:a9:7e:
        b4:7e:18:14:65:8b:a3:0e:fc:b3:b9:73:3e:f4:e7:3e:0e:1f:
        32:8e:4d:8d:2e:bb:3b:fa:b7:99:a6:97:34:d2:74:95:8e:88:
        c9:e4:6e:c8:34:f7:a6:7b:ba:10:56:dd:c7:aa:07:e4:78:fd:
        2e:a3:e9:2c:7c:d2:eb:0e:ea:16:80:26:e4:69:89:6c:31:16:
        d1:43:df:23:32:50:ff:3d:2e:0c:79:f9:f5:f9:c8:9c:06:c9:
        a2:d9:d9:04:59:af:4b:e0:fa:dc:92:78:44:c1:83:43:e4:7d:
        70:3c:ae:33
-----BEGIN CERTIFICATE-----
MIIDbzCCAlegAwIBAgIQXq/NCKrx0WIVGHMhKUGYuTANBgkqhkiG9w0BAQsFADAU
MRIwEAYDVQQDDAl0ZWFtMS1uZXQwHhcNMjMxMDMxMTYzMDEwWhcNMjYxMDE1MTYz
MDEwWjAXMRUwEwYDVQQDDAx0ZWFtMS1zZXJ2ZXIwggEiMA0GCSqGSIb3DQEBAQUA
A4IBDwAwggEKAoIBAQCiASevYLtqkIu+E5BbJPfIIfnA+V4OUkZUEsj8T2QtSTFG
tBiCqRKmqwKghVO8oDzYTCaRtkvW3T3ud7tQo25AgVK/NXjj8euYKlMAkYrlqxNW
yX7pq8QJNoMoN/D+FN1aBJaKUzyqgcPy8IS3hHZK4N3TaG+CK+JWvV5xTItE15vT
rhEzv8xN4W6PsCgCPbz+Tg11rqtesww3+DAPZlzaP4Xa3l3U+zowoQ+wqv2cCkle
jOXzv+NzwFk1PScS0ssofPSp3aSlI/QzpmzibHPd2a3HUVXWqsv6SQ7XHsyKrfst
2PmHHLfFPReN5km3OG8Jonpbz0JkqOwEt0l/HONhAgMBAAGjgbkwgbYwCQYDVR0T
BAIwADAdBgNVHQ4EFgQU3S5snP85Yo3EGBgGE75HOW2J4jYwTwYDVR0jBEgwRoAU
p9eSp5ndqccKLf9TwEyiR+mtVBmhGKQWMBQxEjAQBgNVBAMMCXRlYW0xLW5ldIIU
F7z01PSi/KiDpaYGqWSe7ZjQwtcwEwYDVR0lBAwwCgYIKwYBBQUHAwEwCwYDVR0P
BAQDAgWgMBcGA1UdEQQQMA6CDHRlYW0xLXNlcnZlcjANBgkqhkiG9w0BAQsFAAOC
AQEAJAPe9MxbCNljXFcXGhbALfDUoRR/VkzcB1DBL3KXxLW9npvfucaNf/qqRni1
8lc3mcn2G0Ao82Rs0OTtmvy0s4ouHqH/1upN+TVc6tXCVXEFFpbS7obkQ6HAwjpr
6iPOds3oXb7rdV4vTdb3HOkcFbfJseW+VV1PDP10UTKj5ur3roVcMpkC7iPtkCox
HKl+tH4YFGWLow78s7lzPvTnPg4fMo5NjS67O/q3maaXNNJ0lY6IyeRuyDT3pnu6
EFbdx6oH5Hj9LqPpLHzS6w7qFoAm5GmJbDEW0UPfIzJQ/z0uDHn59fnInAbJotnZ
BFmvS+D63JJ4RMGDQ+R9cDyuMw==
-----END CERTIFICATE-----
