Certificate:
    Data:
        Version: 3 (0x2)
        Serial Number:
            6e:3f:01:53:63:14:82:48:41:14:bc:09:6e:1a:d9:98
        Signature Algorithm: sha256WithRSAEncryption
        Issuer: CN=team339-net
        Validity
            Not Before: Nov  3 20:45:29 2023 GMT
            Not After : Oct 18 20:45:29 2026 GMT
        Subject: CN=team339-server
        Subject Public Key Info:
            Public Key Algorithm: rsaEncryption
                Public-Key: (2048 bit)
                Modulus:
                    00:d4:ad:be:b5:7e:a9:64:d8:7a:4c:4d:31:f1:0b:
                    b6:10:f8:21:3c:4a:4a:ee:b3:88:3e:1e:45:81:ce:
                    92:93:91:50:12:49:a5:d8:84:7a:ef:a7:d8:81:a5:
                    0b:42:3f:a2:90:30:76:53:34:01:68:c3:12:0d:2f:
                    60:80:dc:f0:21:69:66:1c:e7:e7:c4:a4:12:93:12:
                    2c:c9:78:25:4d:88:0d:10:23:01:3d:db:b7:54:cc:
                    e3:62:41:a7:4d:b6:9e:0e:46:a9:29:b6:49:ee:6d:
                    f0:c1:3c:63:62:a0:cc:b8:87:d3:d7:16:90:c5:da:
                    77:f3:03:f3:f2:e5:26:34:99:63:6a:77:13:bf:c0:
                    84:a6:16:94:ff:f0:22:ca:71:e0:3e:8a:4b:29:2f:
                    fd:d9:2d:84:3f:e4:cf:f1:47:32:df:1b:b5:0f:83:
                    cd:82:cc:bf:9d:74:94:a1:2c:e7:7e:38:68:02:06:
                    59:7f:45:71:76:3f:72:db:60:6a:fe:fa:9e:4b:75:
                    62:7d:e2:63:47:c6:5b:f4:25:01:71:16:e2:3d:80:
                    cc:2f:e7:c8:8e:31:49:8c:1f:86:c5:84:8f:c6:08:
                    d8:68:ea:3f:2b:a8:43:3c:3d:c2:54:d6:54:0a:b4:
                    28:90:60:71:db:2b:f7:d1:bd:7e:fa:5c:22:a9:33:
                    bf:0d
                Exponent: 65537 (0x10001)
        X509v3 extensions:
            X509v3 Basic Constraints: 
                CA:FALSE
            X509v3 Subject Key Identifier: 
                BB:B0:65:A4:B1:58:D5:1A:EB:87:1C:62:7C:18:1A:0D:04:09:59:AD
            X509v3 Authority Key Identifier: 
                keyid:68:7B:91:A3:9B:AE:15:B9:5C:63:50:52:D6:CB:12:98:99:48:AC:6B
                DirName:/CN=team339-net
                serial:6A:92:35:E8:09:0C:CA:6C:33:D8:66:A9:26:B7:A3:35:22:C2:2D:1A
            X509v3 Extended Key Usage: 
                TLS Web Server Authentication
            X509v3 Key Usage: 
                Digital Signature, Key Encipherment
            X509v3 Subject Alternative Name: 
                DNS:team339-server
    Signature Algorithm: sha256WithRSAEncryption
    Signature Value:
        47:da:92:2e:7e:49:bb:38:96:a0:21:09:ab:0c:bf:e6:ae:c4:
        69:11:6f:f8:70:15:7f:71:9e:24:45:05:9b:07:56:85:73:a9:
        39:98:74:c8:d8:d4:59:4e:d1:3f:76:b5:7d:31:07:dd:7d:42:
        e8:43:c6:a9:07:cb:90:32:d2:9f:81:e5:00:73:9f:76:4b:ac:
        10:26:58:4a:da:b7:09:02:25:5f:ac:c9:40:5e:f7:0c:0e:08:
        87:be:65:1a:67:6b:76:d4:c0:2a:eb:2c:86:40:42:0a:7c:d0:
        cd:c8:18:2b:ec:38:2c:cd:f9:bd:11:d9:2f:4a:25:d2:03:ae:
        87:4a:52:18:47:16:06:be:68:e7:5a:bd:c3:0e:d3:56:fa:c6:
        6a:31:e8:62:8f:f2:62:37:53:8d:11:5c:82:32:34:6d:09:53:
        9e:39:e0:3d:8f:58:1e:0b:e2:b0:1e:41:e4:9c:c9:cd:91:78:
        3a:32:3f:72:ea:f6:f4:4f:e2:1d:db:62:7f:ad:ad:05:b8:34:
        03:05:55:5c:ab:6a:67:1f:bd:30:f4:a9:26:fb:70:83:bd:c6:
        32:95:ad:bd:37:21:f1:6d:94:81:89:84:6a:ef:d3:89:04:5c:
        2a:ac:18:b2:b6:7c:2a:f8:77:54:2d:87:a7:9e:e9:5c:ef:86:
        9b:57:d7:b7
-----BEGIN CERTIFICATE-----
MIIDdzCCAl+gAwIBAgIQbj8BU2MUgkhBFLwJbhrZmDANBgkqhkiG9w0BAQsFADAW
MRQwEgYDVQQDDAt0ZWFtMzM5LW5ldDAeFw0yMzExMDMyMDQ1MjlaFw0yNjEwMTgy
MDQ1MjlaMBkxFzAVBgNVBAMMDnRlYW0zMzktc2VydmVyMIIBIjANBgkqhkiG9w0B
AQEFAAOCAQ8AMIIBCgKCAQEA1K2+tX6pZNh6TE0x8Qu2EPghPEpK7rOIPh5Fgc6S
k5FQEkml2IR676fYgaULQj+ikDB2UzQBaMMSDS9ggNzwIWlmHOfnxKQSkxIsyXgl
TYgNECMBPdu3VMzjYkGnTbaeDkapKbZJ7m3wwTxjYqDMuIfT1xaQxdp38wPz8uUm
NJljancTv8CEphaU//AiynHgPopLKS/92S2EP+TP8Ucy3xu1D4PNgsy/nXSUoSzn
fjhoAgZZf0Vxdj9y22Bq/vqeS3VifeJjR8Zb9CUBcRbiPYDML+fIjjFJjB+GxYSP
xgjYaOo/K6hDPD3CVNZUCrQokGBx2yv30b1++lwiqTO/DQIDAQABo4G9MIG6MAkG
A1UdEwQCMAAwHQYDVR0OBBYEFLuwZaSxWNUa64ccYnwYGg0ECVmtMFEGA1UdIwRK
MEiAFGh7kaObrhW5XGNQUtbLEpiZSKxroRqkGDAWMRQwEgYDVQQDDAt0ZWFtMzM5
LW5ldIIUapI16AkMymwz2GapJrejNSLCLRowEwYDVR0lBAwwCgYIKwYBBQUHAwEw
CwYDVR0PBAQDAgWgMBkGA1UdEQQSMBCCDnRlYW0zMzktc2VydmVyMA0GCSqGSIb3
DQEBCwUAA4IBAQBH2pIufkm7OJagIQmrDL/mrsRpEW/4cBV/cZ4kRQWbB1aFc6k5
mHTI2NRZTtE/drV9MQfdfULoQ8apB8uQMtKfgeUAc592S6wQJlhK2rcJAiVfrMlA
XvcMDgiHvmUaZ2t21MAq6yyGQEIKfNDNyBgr7Dgszfm9EdkvSiXSA66HSlIYRxYG
vmjnWr3DDtNW+sZqMehij/JiN1ONEVyCMjRtCVOeOeA9j1geC+KwHkHknMnNkXg6
Mj9y6vb0T+Id22J/ra0FuDQDBVVcq2pnH70w9Kkm+3CDvcYyla29NyHxbZSBiYRq
79OJBFwqrBiytnwq+HdULYennulc74abV9e3
-----END CERTIFICATE-----
