Certificate:
    Data:
        Version: 3 (0x2)
        Serial Number:
            45:13:c9:e1:43:43:c8:09:4b:11:0f:e3:53:97:95:16
        Signature Algorithm: sha256WithRSAEncryption
        Issuer: CN=team329-net
        Validity
            Not Before: Nov  4 10:46:38 2023 GMT
            Not After : Oct 19 10:46:38 2026 GMT
        Subject: CN=team329-server
        Subject Public Key Info:
            Public Key Algorithm: rsaEncryption
                Public-Key: (2048 bit)
                Modulus:
                    00:9e:6e:6b:17:d4:95:bf:4b:94:93:45:7d:17:c5:
                    42:93:4c:2f:25:3d:fb:9d:98:43:5d:02:a9:cb:30:
                    1c:6e:00:f1:db:39:9e:c2:81:53:29:62:15:17:29:
                    d1:f0:59:26:18:c1:c5:76:6a:ec:4d:16:a6:67:2b:
                    40:7a:7e:80:d8:fd:39:32:c2:1d:29:1f:36:b7:c3:
                    b4:8d:3e:8e:bb:87:56:9d:10:07:20:2d:3c:5d:68:
                    7e:b0:2f:59:f8:55:c1:99:37:99:f1:fb:2a:f6:4f:
                    37:c1:c5:42:48:a4:d5:4e:9e:54:08:68:0c:bb:5a:
                    bf:26:26:46:96:b5:5a:7d:59:b6:c2:27:61:80:c3:
                    ae:d4:31:0e:3e:71:9c:75:71:42:02:7d:37:00:e3:
                    c5:b3:11:ed:67:22:08:6e:97:59:12:c9:fc:6c:b0:
                    64:19:0a:c9:af:1a:13:9d:da:9a:a1:2b:a4:c7:96:
                    b9:6e:82:4a:63:a8:98:d3:da:a4:75:33:0c:cd:37:
                    a2:74:28:41:36:1b:71:dd:b2:02:df:82:cf:ee:15:
                    3f:63:50:15:9f:82:ad:ec:26:68:0c:f1:88:9c:df:
                    62:6f:b7:17:9e:3d:d0:5c:95:da:6a:ce:43:53:22:
                    ff:79:4b:0f:3d:c1:b4:05:53:9c:91:b3:81:ea:12:
                    14:73
                Exponent: 65537 (0x10001)
        X509v3 extensions:
            X509v3 Basic Constraints: 
                CA:FALSE
            X509v3 Subject Key Identifier: 
                9C:26:40:5E:F5:B4:51:AC:5D:48:16:8A:9C:20:F5:E1:56:3E:E2:B4
            X509v3 Authority Key Identifier: 
                keyid:7F:36:DB:B7:3B:E3:40:83:F7:45:50:81:8E:20:AF:E7:37:B1:07:E9
                DirName:/CN=team329-net
                serial:3E:BD:97:D6:A3:98:3F:D5:6E:19:8C:8E:1C:40:30:28:28:68:43:E6
            X509v3 Extended Key Usage: 
                TLS Web Server Authentication
            X509v3 Key Usage: 
                Digital Signature, Key Encipherment
            X509v3 Subject Alternative Name: 
                DNS:team329-server
    Signature Algorithm: sha256WithRSAEncryption
    Signature Value:
        59:61:ba:c4:22:0f:2e:5d:90:72:73:b8:da:94:ac:dc:73:cc:
        c7:4c:2f:9d:83:87:d9:b8:b1:16:07:bf:66:90:ac:ed:29:26:
        01:8a:34:59:11:6b:31:1c:14:d6:77:db:ce:cf:04:bb:df:54:
        89:6f:ac:4d:45:4a:d8:17:bf:c7:e4:e5:ab:d4:b5:a1:55:77:
        36:04:9d:13:d9:e2:d4:f6:cd:28:eb:e5:e1:6f:0d:de:41:5e:
        24:17:62:04:11:41:18:4b:19:0c:b7:ca:7a:7e:01:a0:b9:62:
        a8:74:30:a5:4c:12:bb:53:7d:b9:09:31:76:b5:b6:c6:fd:23:
        0d:c8:79:78:41:5d:9d:4c:46:d7:ef:d6:2b:3a:f2:6d:8d:11:
        7d:92:70:ab:bc:f9:cd:d9:84:91:a3:86:59:39:40:fd:29:81:
        4c:76:c1:bf:98:9e:68:01:71:70:95:ac:b5:60:0d:a2:d1:38:
        1c:44:ef:ee:c5:67:cc:5b:36:b4:78:cd:5d:14:fd:91:33:c5:
        c1:96:67:c1:59:37:1c:e2:a3:b7:be:71:0e:e6:1b:e4:37:c3:
        1e:06:53:23:de:cd:e9:11:44:23:10:02:80:35:c8:4b:50:09:
        4c:eb:74:09:76:48:8d:07:8d:b7:ac:89:87:15:67:fa:5b:ed:
        22:9c:db:83
-----BEGIN CERTIFICATE-----
MIIDdzCCAl+gAwIBAgIQRRPJ4UNDyAlLEQ/jU5eVFjANBgkqhkiG9w0BAQsFADAW
MRQwEgYDVQQDDAt0ZWFtMzI5LW5ldDAeFw0yMzExMDQxMDQ2MzhaFw0yNjEwMTkx
MDQ2MzhaMBkxFzAVBgNVBAMMDnRlYW0zMjktc2VydmVyMIIBIjANBgkqhkiG9w0B
AQEFAAOCAQ8AMIIBCgKCAQEAnm5rF9SVv0uUk0V9F8VCk0wvJT37nZhDXQKpyzAc
bgDx2zmewoFTKWIVFynR8FkmGMHFdmrsTRamZytAen6A2P05MsIdKR82t8O0jT6O
u4dWnRAHIC08XWh+sC9Z+FXBmTeZ8fsq9k83wcVCSKTVTp5UCGgMu1q/JiZGlrVa
fVm2widhgMOu1DEOPnGcdXFCAn03AOPFsxHtZyIIbpdZEsn8bLBkGQrJrxoTndqa
oSukx5a5boJKY6iY09qkdTMMzTeidChBNhtx3bIC34LP7hU/Y1AVn4Kt7CZoDPGI
nN9ib7cXnj3QXJXaas5DUyL/eUsPPcG0BVOckbOB6hIUcwIDAQABo4G9MIG6MAkG
A1UdEwQCMAAwHQYDVR0OBBYEFJwmQF71tFGsXUgWipwg9eFWPuK0MFEGA1UdIwRK
MEiAFH8227c740CD90VQgY4gr+c3sQfpoRqkGDAWMRQwEgYDVQQDDAt0ZWFtMzI5
LW5ldIIUPr2X1qOYP9VuGYyOHEAwKChoQ+YwEwYDVR0lBAwwCgYIKwYBBQUHAwEw
CwYDVR0PBAQDAgWgMBkGA1UdEQQSMBCCDnRlYW0zMjktc2VydmVyMA0GCSqGSIb3
DQEBCwUAA4IBAQBZYbrEIg8uXZByc7jalKzcc8zHTC+dg4fZuLEWB79mkKztKSYB
ijRZEWsxHBTWd9vOzwS731SJb6xNRUrYF7/H5OWr1LWhVXc2BJ0T2eLU9s0o6+Xh
bw3eQV4kF2IEEUEYSxkMt8p6fgGguWKodDClTBK7U325CTF2tbbG/SMNyHl4QV2d
TEbX79YrOvJtjRF9knCrvPnN2YSRo4ZZOUD9KYFMdsG/mJ5oAXFwlay1YA2i0Tgc
RO/uxWfMWza0eM1dFP2RM8XBlmfBWTcc4qO3vnEO5hvkN8MeBlMj3s3pEUQjEAKA
NchLUAlM63QJdkiNB423rImHFWf6W+0inNuD
-----END CERTIFICATE-----
