Certificate:
    Data:
        Version: 3 (0x2)
        Serial Number:
            4a:82:21:34:eb:c4:33:cf:3b:a6:f4:92:92:fe:ef:51
        Signature Algorithm: sha256WithRSAEncryption
        Issuer: CN=team329-net
        Validity
            Not Before: Nov  4 10:46:38 2023 GMT
            Not After : Oct 19 10:46:38 2026 GMT
        Subject: CN=team329-client
        Subject Public Key Info:
            Public Key Algorithm: rsaEncryption
                Public-Key: (2048 bit)
                Modulus:
                    00:df:d4:1b:a1:8e:e8:09:4a:e8:af:a9:51:fc:5d:
                    55:9e:9c:e1:2c:04:fb:ff:35:ff:93:f3:b2:4c:8d:
                    21:68:ee:1a:1a:27:55:06:1b:4f:c4:f5:32:58:47:
                    3d:33:3f:51:e4:94:2e:ae:54:70:09:79:02:73:c9:
                    9f:72:32:9e:0a:7c:7e:db:cf:be:c7:a2:24:e4:79:
                    c0:11:74:c6:c8:1d:d1:20:d1:81:ac:7c:7a:03:19:
                    d4:17:8e:51:09:64:25:39:4f:ca:62:e6:de:d6:c4:
                    52:37:2a:21:e6:13:1a:8d:c7:da:85:fa:4b:44:48:
                    f4:e2:f0:07:83:ea:d4:c3:27:f0:56:75:b3:c7:7c:
                    1d:cc:c2:ba:24:f8:54:71:82:c9:88:15:9e:11:8e:
                    3d:5e:c7:b3:8b:22:7b:88:61:dd:21:0e:de:76:75:
                    0a:24:2d:f7:5c:c2:0e:5c:73:26:62:96:a8:52:2e:
                    3d:de:2e:63:d0:77:ff:f3:45:8c:19:ea:0c:d0:b2:
                    91:f0:a3:ac:15:15:d8:e0:f5:ce:5f:d0:e2:b8:c9:
                    19:f3:88:6d:d7:0a:5a:8d:c9:dd:8c:2a:9a:1a:3c:
                    ca:d8:5c:ea:c8:f2:06:fe:70:d9:f8:a4:dd:1d:95:
                    d0:bb:df:e5:0f:f9:31:b9:72:0d:cb:3b:d8:aa:d7:
                    48:89
                Exponent: 65537 (0x10001)
        X509v3 extensions:
            X509v3 Basic Constraints: 
                CA:FALSE
            X509v3 Subject Key Identifier: 
                CC:84:74:77:67:95:0D:5F:BD:08:22:3A:5B:5C:30:E1:AC:87:F5:B6
            X509v3 Authority Key Identifier: 
                keyid:7F:36:DB:B7:3B:E3:40:83:F7:45:50:81:8E:20:AF:E7:37:B1:07:E9
                DirName:/CN=team329-net
                serial:3E:BD:97:D6:A3:98:3F:D5:6E:19:8C:8E:1C:40:30:28:28:68:43:E6
            X509v3 Extended Key Usage: 
                TLS Web Client Authentication
            X509v3 Key Usage: 
                Digital Signature
    Signature Algorithm: sha256WithRSAEncryption
    Signature Value:
        88:c1:ae:4b:85:fb:8f:4c:41:8c:59:7a:eb:38:de:d4:f9:27:
        4c:93:3c:54:88:e7:1f:0b:6b:81:14:f0:54:e3:d4:9b:9c:ff:
        ac:e4:c5:5b:ba:43:bb:09:97:56:e7:d7:98:2d:af:e7:3e:1c:
        d4:89:f9:82:d8:3d:70:01:5f:78:e6:3f:aa:e0:24:dd:5e:b6:
        91:5b:8e:78:d4:e6:47:ff:f4:ef:b9:e1:57:fe:8c:8f:23:a7:
        af:48:29:40:be:a2:ae:b0:72:87:5e:79:c8:6e:e7:ad:5a:5b:
        37:6f:37:0e:5a:e4:4b:3b:00:ba:c8:af:3c:b5:7d:47:7b:e5:
        3f:0b:72:c4:70:3c:aa:35:4b:97:a7:05:29:44:2a:71:fc:41:
        3d:de:ae:90:51:e1:c9:34:da:1b:84:5d:00:ff:a6:ea:f2:b8:
        82:d5:b8:3e:20:49:87:15:50:9a:b1:87:82:c6:57:63:aa:49:
        18:3e:68:65:71:a2:5f:55:83:96:fe:78:78:a0:47:72:af:5e:
        75:a2:d0:1a:54:67:48:76:c6:70:ce:4d:5d:3e:30:12:e9:7a:
        be:ff:57:0c:89:25:3e:cc:09:e3:81:da:70:b7:c8:52:66:bf:
        e9:51:b9:51:69:ca:6a:ff:ce:0f:1b:79:14:be:8a:c2:b1:16:
        e4:91:04:12
-----BEGIN CERTIFICATE-----
MIIDXDCCAkSgAwIBAgIQSoIhNOvEM887pvSSkv7vUTANBgkqhkiG9w0BAQsFADAW
MRQwEgYDVQQDDAt0ZWFtMzI5LW5ldDAeFw0yMzExMDQxMDQ2MzhaFw0yNjEwMTkx
MDQ2MzhaMBkxFzAVBgNVBAMMDnRlYW0zMjktY2xpZW50MIIBIjANBgkqhkiG9w0B
AQEFAAOCAQ8AMIIBCgKCAQEA39QboY7oCUror6lR/F1VnpzhLAT7/zX/k/OyTI0h
aO4aGidVBhtPxPUyWEc9Mz9R5JQurlRwCXkCc8mfcjKeCnx+28++x6Ik5HnAEXTG
yB3RINGBrHx6AxnUF45RCWQlOU/KYube1sRSNyoh5hMajcfahfpLREj04vAHg+rU
wyfwVnWzx3wdzMK6JPhUcYLJiBWeEY49XseziyJ7iGHdIQ7ednUKJC33XMIOXHMm
YpaoUi493i5j0Hf/80WMGeoM0LKR8KOsFRXY4PXOX9DiuMkZ84ht1wpajcndjCqa
GjzK2FzqyPIG/nDZ+KTdHZXQu9/lD/kxuXINyzvYqtdIiQIDAQABo4GiMIGfMAkG
A1UdEwQCMAAwHQYDVR0OBBYEFMyEdHdnlQ1fvQgiOltcMOGsh/W2MFEGA1UdIwRK
MEiAFH8227c740CD90VQgY4gr+c3sQfpoRqkGDAWMRQwEgYDVQQDDAt0ZWFtMzI5
LW5ldIIUPr2X1qOYP9VuGYyOHEAwKChoQ+YwEwYDVR0lBAwwCgYIKwYBBQUHAwIw
CwYDVR0PBAQDAgeAMA0GCSqGSIb3DQEBCwUAA4IBAQCIwa5LhfuPTEGMWXrrON7U
+SdMkzxUiOcfC2uBFPBU49SbnP+s5MVbukO7CZdW59eYLa/nPhzUifmC2D1wAV94
5j+q4CTdXraRW4541OZH//TvueFX/oyPI6evSClAvqKusHKHXnnIbuetWls3bzcO
WuRLOwC6yK88tX1He+U/C3LEcDyqNUuXpwUpRCpx/EE93q6QUeHJNNobhF0A/6bq
8riC1bg+IEmHFVCasYeCxldjqkkYPmhlcaJfVYOW/nh4oEdyr151otAaVGdIdsZw
zk1dPjAS6Xq+/1cMiSU+zAnjgdpwt8hSZr/pUblRacpq/84PG3kUvorCsRbkkQQS
-----END CERTIFICATE-----
