Certificate:
    Data:
        Version: 3 (0x2)
        Serial Number:
            6b:9a:9c:c5:3c:54:3b:84:2d:c2:65:a6:15:9d:de:41
        Signature Algorithm: sha256WithRSAEncryption
        Issuer: CN=team329-net
        Validity
            Not Before: Nov  3 20:45:16 2023 GMT
            Not After : Oct 18 20:45:16 2026 GMT
        Subject: CN=team329-client
        Subject Public Key Info:
            Public Key Algorithm: rsaEncryption
                Public-Key: (2048 bit)
                Modulus:
                    00:ec:9c:78:43:60:0e:22:fb:c6:82:73:96:72:ae:
                    dc:e7:df:39:49:92:19:8c:11:4e:83:84:1b:42:e9:
                    2f:cc:0c:bb:c4:82:03:29:e6:d1:1e:3b:91:ec:b3:
                    2e:ce:02:85:2c:83:be:a3:5f:8f:04:8b:08:3b:7d:
                    64:69:41:86:cd:51:8d:ea:80:95:e5:44:8e:6d:88:
                    08:cd:2d:0a:61:bf:1a:57:98:b2:0b:36:57:94:70:
                    cc:1f:a7:e5:70:c5:cb:3e:3f:47:46:d7:50:f3:7f:
                    c7:29:d5:0f:a7:07:ea:c3:cd:9e:02:a1:6f:50:91:
                    dc:2f:2a:66:89:62:ea:da:e0:78:19:a2:74:47:9f:
                    c7:d7:c9:42:f8:1b:7c:80:e3:06:2f:8a:cd:10:ab:
                    33:ee:3c:25:58:b5:33:94:8e:54:50:72:5e:c9:c5:
                    89:48:7b:e8:a0:72:ed:2e:95:64:b4:2d:ed:83:21:
                    35:82:50:ac:dd:c1:6c:28:6b:7e:42:21:77:ce:e2:
                    85:36:24:fe:24:1e:41:d5:5f:7c:f9:7e:fc:9b:5f:
                    bf:e0:68:3f:02:d5:b8:97:58:e8:e6:bd:31:a9:24:
                    64:20:ed:d2:3c:58:97:bc:e2:23:8b:d5:ec:f9:ba:
                    d8:b2:b8:2a:f6:96:d3:45:ea:12:6f:e8:05:e2:ec:
                    2e:31
                Exponent: 65537 (0x10001)
        X509v3 extensions:
            X509v3 Basic Constraints: 
                CA:FALSE
            X509v3 Subject Key Identifier: 
                86:DE:3C:49:49:71:84:8C:4E:53:F1:F8:76:CC:8D:6C:72:E7:24:BF
            X509v3 Authority Key Identifier: 
                keyid:97:37:64:C5:E3:4E:A5:42:7F:65:86:98:93:03:B4:A6:23:5B:A2:3B
                DirName:/CN=team329-net
                serial:0D:73:4E:B1:11:A5:C7:B4:5C:B8:F7:20:9A:0E:D6:3B:20:26:46:32
            X509v3 Extended Key Usage: 
                TLS Web Client Authentication
            X509v3 Key Usage: 
                Digital Signature
    Signature Algorithm: sha256WithRSAEncryption
    Signature Value:
        29:54:6f:0d:e6:bc:18:1e:81:63:1d:d3:00:0b:dc:d1:de:40:
        06:88:a3:14:9b:e4:35:4b:94:14:94:b0:99:1c:d2:9b:2e:08:
        0a:e3:6e:0e:8d:32:83:e8:cb:10:c5:ae:8e:1a:30:f9:14:51:
        92:d2:b5:2f:2a:b7:79:f7:6c:86:83:96:98:6f:d0:5f:e9:3e:
        d0:a9:39:aa:55:66:72:3e:b3:2c:10:50:9c:50:9b:d5:6b:b1:
        78:7e:0d:a0:aa:1e:2d:2d:94:7e:82:64:42:03:79:41:1f:f8:
        b5:fa:66:2a:6b:68:c1:9e:1b:4d:a4:42:25:dc:24:80:b0:f2:
        f0:d2:27:5d:8d:ca:3c:5b:af:98:1c:53:81:f1:8a:1b:81:0f:
        62:66:55:2b:6b:d8:e2:31:b1:13:ef:d0:1d:db:e2:d7:8b:c8:
        64:21:f3:c4:04:38:19:47:2c:51:bf:f0:03:a2:fe:c2:74:43:
        31:f6:e0:d0:b5:53:60:2e:6a:75:e5:a3:fd:f6:ed:f6:d8:85:
        f9:21:39:97:8a:41:76:44:f0:c9:9c:03:7d:6f:a7:aa:dc:f2:
        ca:61:af:e0:09:12:c2:60:5a:76:96:dc:5b:17:77:5b:aa:00:
        17:c6:b7:61:1e:17:a5:3f:31:9b:29:f4:ef:d6:d5:cc:da:b8:
        66:c7:52:db
-----BEGIN CERTIFICATE-----
MIIDXDCCAkSgAwIBAgIQa5qcxTxUO4QtwmWmFZ3eQTANBgkqhkiG9w0BAQsFADAW
MRQwEgYDVQQDDAt0ZWFtMzI5LW5ldDAeFw0yMzExMDMyMDQ1MTZaFw0yNjEwMTgy
MDQ1MTZaMBkxFzAVBgNVBAMMDnRlYW0zMjktY2xpZW50MIIBIjANBgkqhkiG9w0B
AQEFAAOCAQ8AMIIBCgKCAQEA7Jx4Q2AOIvvGgnOWcq7c5985SZIZjBFOg4QbQukv
zAy7xIIDKebRHjuR7LMuzgKFLIO+o1+PBIsIO31kaUGGzVGN6oCV5USObYgIzS0K
Yb8aV5iyCzZXlHDMH6flcMXLPj9HRtdQ83/HKdUPpwfqw82eAqFvUJHcLypmiWLq
2uB4GaJ0R5/H18lC+Bt8gOMGL4rNEKsz7jwlWLUzlI5UUHJeycWJSHvooHLtLpVk
tC3tgyE1glCs3cFsKGt+QiF3zuKFNiT+JB5B1V98+X78m1+/4Gg/AtW4l1jo5r0x
qSRkIO3SPFiXvOIji9Xs+brYsrgq9pbTReoSb+gF4uwuMQIDAQABo4GiMIGfMAkG
A1UdEwQCMAAwHQYDVR0OBBYEFIbePElJcYSMTlPx+HbMjWxy5yS/MFEGA1UdIwRK
MEiAFJc3ZMXjTqVCf2WGmJMDtKYjW6I7oRqkGDAWMRQwEgYDVQQDDAt0ZWFtMzI5
LW5ldIIUDXNOsRGlx7RcuPcgmg7WOyAmRjIwEwYDVR0lBAwwCgYIKwYBBQUHAwIw
CwYDVR0PBAQDAgeAMA0GCSqGSIb3DQEBCwUAA4IBAQApVG8N5rwYHoFjHdMAC9zR
3kAGiKMUm+Q1S5QUlLCZHNKbLggK424OjTKD6MsQxa6OGjD5FFGS0rUvKrd592yG
g5aYb9Bf6T7QqTmqVWZyPrMsEFCcUJvVa7F4fg2gqh4tLZR+gmRCA3lBH/i1+mYq
a2jBnhtNpEIl3CSAsPLw0iddjco8W6+YHFOB8YobgQ9iZlUra9jiMbET79Ad2+LX
i8hkIfPEBDgZRyxRv/ADov7CdEMx9uDQtVNgLmp15aP99u322IX5ITmXikF2RPDJ
nAN9b6eq3PLKYa/gCRLCYFp2ltxbF3dbqgAXxrdhHhelPzGbKfTv1tXM2rhmx1Lb
-----END CERTIFICATE-----
