Certificate:
    Data:
        Version: 3 (0x2)
        Serial Number:
            92:b9:fc:ea:5f:9a:a9:89:1e:5f:6d:10:10:de:bb:df
        Signature Algorithm: sha256WithRSAEncryption
        Issuer: CN=team329-net
        Validity
            Not Before: Nov  4 11:34:43 2023 GMT
            Not After : Oct 19 11:34:43 2026 GMT
        Subject: CN=team329-client
        Subject Public Key Info:
            Public Key Algorithm: rsaEncryption
                Public-Key: (2048 bit)
                Modulus:
                    00:a4:2f:c6:52:20:30:80:4d:b4:53:ba:12:36:46:
                    2a:bd:63:24:1a:92:33:41:ab:a5:18:c2:0d:83:e4:
                    f4:67:0d:0f:45:bf:46:ef:25:80:49:a5:2a:b1:7c:
                    ef:4c:74:cf:fa:98:9b:30:9d:0a:e6:d0:ef:07:b8:
                    7c:e8:b7:aa:17:25:5f:7d:d8:ec:6a:65:bc:0c:7d:
                    9e:4c:1d:05:85:8d:ad:91:cb:35:10:56:99:59:a8:
                    66:00:95:c8:c0:7c:3a:40:f6:e3:e7:c0:34:9e:35:
                    24:34:79:92:67:74:8b:f2:ec:7e:c9:62:b9:d5:ff:
                    53:9a:bb:02:18:52:b6:f1:4e:57:47:d4:8b:69:44:
                    6a:fa:07:1a:23:ab:8c:43:0d:e0:62:6b:58:2b:e2:
                    4f:87:e9:64:7c:b1:e0:5f:10:a5:5c:e6:2c:2d:f6:
                    c7:d6:ea:8b:c6:78:4a:0b:9b:8c:be:3c:d7:10:07:
                    b4:3c:6b:cc:07:23:10:5b:8a:3a:ed:38:d8:ff:b1:
                    da:19:3b:95:4e:98:44:c1:ad:cb:88:02:af:ac:65:
                    9d:11:9b:26:36:4e:c2:c1:53:1d:89:3d:e5:c7:5b:
                    6f:35:f0:bd:f4:a2:e4:06:c6:9f:53:23:72:c4:84:
                    e1:0e:3e:0c:3f:ba:87:fd:41:92:95:46:a5:42:36:
                    14:69
                Exponent: 65537 (0x10001)
        X509v3 extensions:
            X509v3 Basic Constraints: 
                CA:FALSE
            X509v3 Subject Key Identifier: 
                BC:0B:D3:E8:83:1A:19:FA:7B:16:A4:18:33:A5:90:61:1D:1D:F5:78
            X509v3 Authority Key Identifier: 
                keyid:58:3B:91:2F:42:75:7F:D6:43:C6:08:AD:8D:06:A8:43:37:C3:05:A7
                DirName:/CN=team329-net
                serial:5D:FC:36:8B:A4:DE:D0:6D:73:FB:F3:E5:90:BF:F6:A8:E1:32:E2:19
            X509v3 Extended Key Usage: 
                TLS Web Client Authentication
            X509v3 Key Usage: 
                Digital Signature
    Signature Algorithm: sha256WithRSAEncryption
    Signature Value:
        22:c8:61:24:cb:67:51:6f:a6:f9:8e:20:12:cc:09:19:17:bc:
        ba:1d:47:7e:a7:4e:3d:9f:95:a6:ab:95:de:3e:9b:fc:8b:74:
        ad:0c:4f:ca:a6:d9:13:69:2d:de:7b:72:d9:64:9b:3f:9f:eb:
        68:40:fc:87:e5:4c:2f:7c:ba:77:c5:e8:7c:05:5b:c7:dd:b4:
        af:6a:1f:11:d2:b5:1a:69:0f:2c:50:f6:cb:f6:bd:6f:8c:b1:
        d9:bb:83:d2:c5:9b:92:71:ce:d1:0f:a4:f0:72:a6:12:0d:c1:
        20:3c:b3:1e:91:12:38:eb:b5:85:4d:29:3b:22:6d:74:75:a8:
        e9:79:cb:73:d7:64:16:50:3e:21:81:c6:63:5a:c7:8e:71:0f:
        8a:92:23:f4:41:a8:dc:c7:9e:3a:c6:82:16:7e:cf:2a:a4:12:
        ae:22:c7:fe:6c:f7:1f:01:7e:af:53:f1:59:d8:48:02:b8:fc:
        c6:95:a2:0e:fb:07:9c:7f:21:2f:09:37:50:2f:64:78:51:ae:
        c4:36:c1:64:9f:56:bb:25:68:de:84:a1:a9:83:14:fe:1d:bf:
        de:7f:29:72:a0:5d:0c:7c:aa:b7:e6:f4:76:60:93:c0:c1:4f:
        d0:07:53:26:cc:ec:43:39:80:80:f6:d9:8e:fb:f5:69:06:b6:
        05:8d:21:e1
-----BEGIN CERTIFICATE-----
MIIDXTCCAkWgAwIBAgIRAJK5/OpfmqmJHl9tEBDeu98wDQYJKoZIhvcNAQELBQAw
FjEUMBIGA1UEAwwLdGVhbTMyOS1uZXQwHhcNMjMxMTA0MTEzNDQzWhcNMjYxMDE5
MTEzNDQzWjAZMRcwFQYDVQQDDA50ZWFtMzI5LWNsaWVudDCCASIwDQYJKoZIhvcN
AQEBBQADggEPADCCAQoCggEBAKQvxlIgMIBNtFO6EjZGKr1jJBqSM0GrpRjCDYPk
9GcND0W/Ru8lgEmlKrF870x0z/qYmzCdCubQ7we4fOi3qhclX33Y7GplvAx9nkwd
BYWNrZHLNRBWmVmoZgCVyMB8OkD24+fANJ41JDR5kmd0i/LsfsliudX/U5q7AhhS
tvFOV0fUi2lEavoHGiOrjEMN4GJrWCviT4fpZHyx4F8QpVzmLC32x9bqi8Z4Sgub
jL481xAHtDxrzAcjEFuKOu042P+x2hk7lU6YRMGty4gCr6xlnRGbJjZOwsFTHYk9
5cdbbzXwvfSi5AbGn1MjcsSE4Q4+DD+6h/1BkpVGpUI2FGkCAwEAAaOBojCBnzAJ
BgNVHRMEAjAAMB0GA1UdDgQWBBS8C9PogxoZ+nsWpBgzpZBhHR31eDBRBgNVHSME
SjBIgBRYO5EvQnV/1kPGCK2NBqhDN8MFp6EapBgwFjEUMBIGA1UEAwwLdGVhbTMy
OS1uZXSCFF38Nouk3tBtc/vz5ZC/9qjhMuIZMBMGA1UdJQQMMAoGCCsGAQUFBwMC
MAsGA1UdDwQEAwIHgDANBgkqhkiG9w0BAQsFAAOCAQEAIshhJMtnUW+m+Y4gEswJ
GRe8uh1HfqdOPZ+VpquV3j6b/It0rQxPyqbZE2kt3nty2WSbP5/raED8h+VML3y6
d8XofAVbx920r2ofEdK1GmkPLFD2y/a9b4yx2buD0sWbknHO0Q+k8HKmEg3BIDyz
HpESOOu1hU0pOyJtdHWo6XnLc9dkFlA+IYHGY1rHjnEPipIj9EGo3MeeOsaCFn7P
KqQSriLH/mz3HwF+r1PxWdhIArj8xpWiDvsHnH8hLwk3UC9keFGuxDbBZJ9WuyVo
3oShqYMU/h2/3n8pcqBdDHyqt+b0dmCTwMFP0AdTJszsQzmAgPbZjvv1aQa2BY0h
4Q==
-----END CERTIFICATE-----
