Certificate:
    Data:
        Version: 3 (0x2)
        Serial Number:
            c6:e8:06:8d:4c:9b:89:4e:a1:99:32:d7:8e:0f:10:56
        Signature Algorithm: sha256WithRSAEncryption
        Issuer: CN=team329-net
        Validity
            Not Before: Nov  3 20:45:17 2023 GMT
            Not After : Oct 18 20:45:17 2026 GMT
        Subject: CN=team329-server
        Subject Public Key Info:
            Public Key Algorithm: rsaEncryption
                Public-Key: (2048 bit)
                Modulus:
                    00:b1:0a:59:85:e3:9c:16:1d:ae:44:1f:fd:5d:97:
                    fd:22:6d:94:1f:81:14:53:ea:60:ca:2e:79:83:22:
                    07:a7:57:36:43:1f:b2:eb:49:a7:4c:fa:18:46:44:
                    7e:b9:1d:c2:89:1f:d6:36:e3:c0:64:cd:b1:70:1b:
                    d8:0e:7a:f4:b5:e9:8a:b2:16:98:a6:3d:66:21:ab:
                    c1:1d:81:b8:27:b0:29:fb:69:da:a5:96:98:fb:c4:
                    05:c1:95:93:78:a4:0c:70:97:4a:c3:d9:af:8c:22:
                    e2:0c:14:5b:f5:15:30:9c:86:46:8f:b0:f0:4b:de:
                    c3:3d:bb:db:0b:50:8f:3f:73:d0:b3:17:ce:55:80:
                    4d:48:9f:03:c4:6b:cc:5d:ec:d0:0e:6b:6a:0f:de:
                    1e:47:af:31:83:f2:47:26:5a:91:31:52:63:8f:13:
                    a7:cf:4c:a9:d6:44:9c:c5:26:1b:d6:8c:83:04:12:
                    65:58:3e:0f:b9:f5:0d:da:06:1b:b0:a9:dd:96:3e:
                    59:68:81:21:d8:5b:20:d1:80:42:63:93:ae:2d:b8:
                    4b:ef:c9:9a:2f:e8:6d:db:43:40:c6:ce:36:85:d1:
                    07:b9:ed:01:8e:e5:f0:32:46:f7:ea:ce:83:a1:d7:
                    0c:6e:1d:62:8a:67:3c:9e:7c:48:bf:d8:39:6f:9c:
                    d0:9f
                Exponent: 65537 (0x10001)
        X509v3 extensions:
            X509v3 Basic Constraints: 
                CA:FALSE
            X509v3 Subject Key Identifier: 
                FE:11:B9:6B:05:A4:80:AE:26:D3:BC:A8:D6:9D:A8:22:84:AB:3B:D8
            X509v3 Authority Key Identifier: 
                keyid:97:37:64:C5:E3:4E:A5:42:7F:65:86:98:93:03:B4:A6:23:5B:A2:3B
                DirName:/CN=team329-net
                serial:0D:73:4E:B1:11:A5:C7:B4:5C:B8:F7:20:9A:0E:D6:3B:20:26:46:32
            X509v3 Extended Key Usage: 
                TLS Web Server Authentication
            X509v3 Key Usage: 
                Digital Signature, Key Encipherment
            X509v3 Subject Alternative Name: 
                DNS:team329-server
    Signature Algorithm: sha256WithRSAEncryption
    Signature Value:
        04:86:94:d8:ea:e9:bb:18:29:c6:de:54:98:89:e4:f1:92:d1:
        ce:b2:0e:fd:a9:7a:36:0a:df:a2:e8:5a:75:a4:41:a1:26:c9:
        22:ec:56:a8:80:92:18:0f:6b:af:91:5a:17:57:94:a9:97:f2:
        16:ff:b9:c6:89:09:0d:58:a9:f3:f4:d5:0b:71:53:9f:64:cf:
        41:5c:a3:72:d3:be:a3:27:92:c0:06:57:41:32:8e:c7:bb:68:
        40:e6:56:09:83:ca:14:d6:2b:97:b9:ae:34:46:b0:1b:00:83:
        a7:aa:5d:88:39:70:a3:37:cf:bf:fb:25:f6:00:ad:e0:af:69:
        55:3f:cc:e1:20:29:ab:dd:22:41:d1:d9:f8:fa:c0:1b:fc:74:
        0f:f4:f4:a3:0b:ee:ce:7b:99:ec:47:cf:a3:dc:6f:04:86:25:
        39:95:21:58:d9:54:9a:5b:ec:ef:cb:0c:a8:35:1d:f2:d9:47:
        3f:67:9c:a9:0b:84:6a:cd:39:6d:b7:e8:1c:e4:54:f4:e7:59:
        25:03:f4:c5:68:98:6b:d2:21:ee:d7:ea:dc:96:64:a4:71:21:
        8a:b7:b1:fe:82:fd:39:5f:ab:a8:8c:b5:d5:36:d2:5c:0a:1c:
        27:da:1b:d2:89:18:4e:55:9b:85:db:6c:65:cb:b9:11:b3:d4:
        94:f3:00:dc
-----BEGIN CERTIFICATE-----
MIIDeDCCAmCgAwIBAgIRAMboBo1Mm4lOoZky144PEFYwDQYJKoZIhvcNAQELBQAw
FjEUMBIGA1UEAwwLdGVhbTMyOS1uZXQwHhcNMjMxMTAzMjA0NTE3WhcNMjYxMDE4
MjA0NTE3WjAZMRcwFQYDVQQDDA50ZWFtMzI5LXNlcnZlcjCCASIwDQYJKoZIhvcN
AQEBBQADggEPADCCAQoCggEBALEKWYXjnBYdrkQf/V2X/SJtlB+BFFPqYMoueYMi
B6dXNkMfsutJp0z6GEZEfrkdwokf1jbjwGTNsXAb2A569LXpirIWmKY9ZiGrwR2B
uCewKftp2qWWmPvEBcGVk3ikDHCXSsPZr4wi4gwUW/UVMJyGRo+w8Evewz272wtQ
jz9z0LMXzlWATUifA8RrzF3s0A5rag/eHkevMYPyRyZakTFSY48Tp89MqdZEnMUm
G9aMgwQSZVg+D7n1DdoGG7Cp3ZY+WWiBIdhbINGAQmOTri24S+/Jmi/obdtDQMbO
NoXRB7ntAY7l8DJG9+rOg6HXDG4dYopnPJ58SL/YOW+c0J8CAwEAAaOBvTCBujAJ
BgNVHRMEAjAAMB0GA1UdDgQWBBT+EblrBaSAribTvKjWnagihKs72DBRBgNVHSME
SjBIgBSXN2TF406lQn9lhpiTA7SmI1uiO6EapBgwFjEUMBIGA1UEAwwLdGVhbTMy
OS1uZXSCFA1zTrERpce0XLj3IJoO1jsgJkYyMBMGA1UdJQQMMAoGCCsGAQUFBwMB
MAsGA1UdDwQEAwIFoDAZBgNVHREEEjAQgg50ZWFtMzI5LXNlcnZlcjANBgkqhkiG
9w0BAQsFAAOCAQEABIaU2Orpuxgpxt5UmInk8ZLRzrIO/al6NgrfouhadaRBoSbJ
IuxWqICSGA9rr5FaF1eUqZfyFv+5xokJDVip8/TVC3FTn2TPQVyjctO+oyeSwAZX
QTKOx7toQOZWCYPKFNYrl7muNEawGwCDp6pdiDlwozfPv/sl9gCt4K9pVT/M4SAp
q90iQdHZ+PrAG/x0D/T0owvuznuZ7EfPo9xvBIYlOZUhWNlUmlvs78sMqDUd8tlH
P2ecqQuEas05bbfoHORU9OdZJQP0xWiYa9Ih7tfq3JZkpHEhirex/oL9OV+rqIy1
1TbSXAocJ9ob0okYTlWbhdtsZcu5EbPUlPMA3A==
-----END CERTIFICATE-----
