Certificate:
    Data:
        Version: 3 (0x2)
        Serial Number:
            01:4e:63:a2:01:2c:42:82:b8:ef:1b:1a:be:95:40:51
        Signature Algorithm: sha256WithRSAEncryption
        Issuer: CN=team484-net
        Validity
            Not Before: Nov  4 11:38:33 2023 GMT
            Not After : Oct 19 11:38:33 2026 GMT
        Subject: CN=team484-client
        Subject Public Key Info:
            Public Key Algorithm: rsaEncryption
                Public-Key: (2048 bit)
                Modulus:
                    00:de:1d:55:65:f6:db:7f:11:d4:fe:b6:5e:9e:7d:
                    48:9d:54:a7:31:26:54:e4:e6:ba:fd:84:59:b1:3d:
                    6b:e1:ac:48:6d:ad:7d:3d:70:7d:9f:51:21:16:08:
                    44:59:2a:4a:89:cd:a3:ac:c6:e0:97:41:58:0f:cb:
                    97:7c:9b:7b:cf:6d:fb:ba:46:e1:9b:c7:8f:47:f8:
                    45:04:8f:7d:d2:f6:dc:d8:20:9f:c5:26:ab:50:c9:
                    46:00:e1:7c:77:d3:41:1d:a2:c0:ce:bb:b1:9c:da:
                    34:82:2f:45:dd:7c:94:c6:2d:bc:c5:92:3c:0a:3a:
                    ca:76:28:db:14:75:92:aa:e0:d5:19:1e:b2:eb:94:
                    c5:ec:86:7e:6e:74:a3:0c:f3:5d:8c:77:e8:e0:14:
                    e3:51:02:0c:e5:b9:0a:be:db:28:10:73:e9:c3:b5:
                    1d:b6:ff:d5:dc:b4:1f:5e:c8:51:61:54:c7:6c:7c:
                    3e:ce:ec:9e:b3:e8:2c:62:24:d1:f4:21:07:f8:8e:
                    f7:bc:e2:1b:98:c7:a1:c5:4a:18:e7:47:22:c6:54:
                    15:45:6e:96:7e:32:99:d7:fe:33:51:1c:a4:68:27:
                    6e:85:de:45:a5:c6:d2:f2:d7:93:75:fb:e6:c6:fb:
                    95:9f:52:e7:20:ab:54:37:db:c9:93:63:f8:a0:bc:
                    7a:93
                Exponent: 65537 (0x10001)
        X509v3 extensions:
            X509v3 Basic Constraints: 
                CA:FALSE
            X509v3 Subject Key Identifier: 
                D4:EC:AE:A6:16:A2:7B:C6:FD:A9:30:15:5C:05:AA:A1:00:17:73:92
            X509v3 Authority Key Identifier: 
                keyid:AC:BB:51:9A:A3:1B:06:39:81:1D:F2:3E:F0:85:62:2C:CD:54:6B:DF
                DirName:/CN=team484-net
                serial:6F:D3:57:6A:64:97:6E:31:B3:90:CF:A1:42:64:56:18:42:2B:EC:CC
            X509v3 Extended Key Usage: 
                TLS Web Client Authentication
            X509v3 Key Usage: 
                Digital Signature
    Signature Algorithm: sha256WithRSAEncryption
    Signature Value:
        9b:2b:dd:ee:14:67:88:df:70:a1:e3:99:fc:1c:67:b1:a5:12:
        c4:2d:e4:f8:f9:53:b1:7d:95:33:6b:07:c7:3a:59:c3:84:da:
        cc:d3:c6:a5:7c:49:c3:fb:2f:a6:23:ae:b7:62:1c:f3:20:c5:
        1e:6c:93:29:82:ef:6e:2f:c9:01:d0:34:44:8f:de:20:09:34:
        2f:2b:b2:2e:db:a7:cb:49:2d:8a:46:18:ce:48:31:2e:d8:98:
        1d:69:e7:0d:d8:5f:fa:94:bf:e0:ca:bc:96:5b:58:36:d3:26:
        55:bd:42:f8:86:79:eb:82:ce:ca:09:61:de:99:73:32:b8:27:
        cd:60:d9:d4:b4:d9:95:5e:61:1d:42:24:54:ee:93:c3:82:0e:
        d6:9e:91:88:0a:a8:16:79:44:70:7c:de:e1:7f:bb:73:77:4c:
        24:8a:90:5c:58:cc:e2:19:b9:97:da:1a:19:df:83:83:f2:df:
        5c:78:16:85:14:fe:d0:f9:30:65:41:24:af:de:0b:2b:25:6f:
        eb:9c:ba:52:f6:35:d3:a7:69:3f:00:71:d3:e7:1b:f7:5c:57:
        d1:5c:02:9a:d7:2b:c3:ed:56:24:89:ff:69:b3:87:6d:f5:51:
        3e:aa:2e:5d:39:86:90:ee:5d:2f:f4:f5:b7:37:02:ce:91:77:
        b6:c4:25:53
-----BEGIN CERTIFICATE-----
MIIDXDCCAkSgAwIBAgIQAU5jogEsQoK47xsavpVAUTANBgkqhkiG9w0BAQsFADAW
MRQwEgYDVQQDDAt0ZWFtNDg0LW5ldDAeFw0yMzExMDQxMTM4MzNaFw0yNjEwMTkx
MTM4MzNaMBkxFzAVBgNVBAMMDnRlYW00ODQtY2xpZW50MIIBIjANBgkqhkiG9w0B
AQEFAAOCAQ8AMIIBCgKCAQEA3h1VZfbbfxHU/rZenn1InVSnMSZU5Oa6/YRZsT1r
4axIba19PXB9n1EhFghEWSpKic2jrMbgl0FYD8uXfJt7z237ukbhm8ePR/hFBI99
0vbc2CCfxSarUMlGAOF8d9NBHaLAzruxnNo0gi9F3XyUxi28xZI8CjrKdijbFHWS
quDVGR6y65TF7IZ+bnSjDPNdjHfo4BTjUQIM5bkKvtsoEHPpw7Udtv/V3LQfXshR
YVTHbHw+zuyes+gsYiTR9CEH+I73vOIbmMehxUoY50cixlQVRW6WfjKZ1/4zURyk
aCduhd5FpcbS8teTdfvmxvuVn1LnIKtUN9vJk2P4oLx6kwIDAQABo4GiMIGfMAkG
A1UdEwQCMAAwHQYDVR0OBBYEFNTsrqYWonvG/akwFVwFqqEAF3OSMFEGA1UdIwRK
MEiAFKy7UZqjGwY5gR3yPvCFYizNVGvfoRqkGDAWMRQwEgYDVQQDDAt0ZWFtNDg0
LW5ldIIUb9NXamSXbjGzkM+hQmRWGEIr7MwwEwYDVR0lBAwwCgYIKwYBBQUHAwIw
CwYDVR0PBAQDAgeAMA0GCSqGSIb3DQEBCwUAA4IBAQCbK93uFGeI33Ch45n8HGex
pRLELeT4+VOxfZUzawfHOlnDhNrM08alfEnD+y+mI663YhzzIMUebJMpgu9uL8kB
0DREj94gCTQvK7Iu26fLSS2KRhjOSDEu2JgdaecN2F/6lL/gyryWW1g20yZVvUL4
hnnrgs7KCWHemXMyuCfNYNnUtNmVXmEdQiRU7pPDgg7WnpGICqgWeURwfN7hf7tz
d0wkipBcWMziGbmX2hoZ34OD8t9ceBaFFP7Q+TBlQSSv3gsrJW/rnLpS9jXTp2k/
AHHT5xv3XFfRXAKa1yvD7VYkif9ps4dt9VE+qi5dOYaQ7l0v9PW3NwLOkXe2xCVT
-----END CERTIFICATE-----
