Certificate:
    Data:
        Version: 3 (0x2)
        Serial Number:
            41:42:79:16:0d:d9:71:2d:ba:b6:7b:b2:0a:c0:04:00
        Signature Algorithm: sha256WithRSAEncryption
        Issuer: CN=team484-net
        Validity
            Not Before: Nov  4 10:49:09 2023 GMT
            Not After : Oct 19 10:49:09 2026 GMT
        Subject: CN=team484-client
        Subject Public Key Info:
            Public Key Algorithm: rsaEncryption
                Public-Key: (2048 bit)
                Modulus:
                    00:dc:99:59:88:d0:16:76:9d:76:e7:56:06:2b:1d:
                    53:7d:5e:1b:de:54:58:07:86:ac:e0:f4:c6:2b:a5:
                    3a:12:ef:81:78:e4:81:d1:42:51:be:5c:5c:1b:11:
                    eb:51:02:eb:3c:c3:0c:8b:67:a4:e8:81:f0:ff:d2:
                    98:2e:d8:ba:24:28:e5:d1:55:f9:ed:24:a3:99:8f:
                    7b:77:83:6f:05:cd:bd:21:89:56:1c:25:e2:62:04:
                    97:78:16:0a:ad:4d:7e:b1:fa:bb:59:eb:e8:1a:cb:
                    30:90:cf:85:8d:eb:6e:b9:6a:28:0b:43:f8:a0:ff:
                    47:a4:74:55:c3:97:6c:de:97:b9:e7:95:f9:6e:b2:
                    09:f4:c6:11:cb:8b:1b:26:4c:f8:1a:06:cd:8f:96:
                    d8:3c:8e:f0:d8:0f:79:b4:09:45:04:79:54:97:4f:
                    92:1d:27:af:5e:dc:e8:5d:ec:e2:02:22:d3:3b:9c:
                    36:7e:f1:60:19:a6:7d:5a:04:09:bd:cc:27:b7:89:
                    cc:6c:4e:e3:1d:95:b8:3b:5e:5b:a3:c8:6a:e8:f4:
                    38:dd:e2:2f:9c:93:98:66:e0:b1:a8:8c:e2:ec:0a:
                    99:da:1f:a1:84:13:69:69:0f:b0:30:48:16:91:39:
                    31:c2:54:af:56:09:1a:81:16:f0:17:1d:88:23:7d:
                    fe:49
                Exponent: 65537 (0x10001)
        X509v3 extensions:
            X509v3 Basic Constraints: 
                CA:FALSE
            X509v3 Subject Key Identifier: 
                24:15:CD:52:0C:8C:74:98:DC:BE:00:19:50:36:D2:C7:DF:4B:B5:8B
            X509v3 Authority Key Identifier: 
                keyid:24:85:A0:5D:58:2A:43:49:9B:2D:61:D1:79:27:F3:41:A3:F1:1B:7C
                DirName:/CN=team484-net
                serial:31:47:AB:E0:93:35:2C:63:F2:F2:12:85:3B:63:A3:0C:53:B2:58:53
            X509v3 Extended Key Usage: 
                TLS Web Client Authentication
            X509v3 Key Usage: 
                Digital Signature
    Signature Algorithm: sha256WithRSAEncryption
    Signature Value:
        71:27:bd:17:ca:37:45:aa:0d:79:0e:75:b8:f2:34:c0:79:42:
        32:7d:1e:a2:2a:6b:cf:8f:1d:c4:28:e9:63:5d:87:3c:f0:c6:
        2d:08:3d:41:fd:3b:6b:63:41:e1:14:df:9e:a8:62:f3:8d:d2:
        18:46:7b:f2:45:7a:bd:79:3d:3e:81:94:73:be:5b:74:b5:8b:
        c3:58:d7:33:65:ca:d0:6f:5c:9f:ad:7d:20:85:05:e4:d8:40:
        f1:32:bd:cf:20:04:1b:7b:41:d6:17:d4:e0:0d:f3:02:d3:e1:
        d7:01:6e:3a:df:d2:35:c0:2c:14:a0:3c:87:7b:b0:ce:4f:5d:
        74:6b:de:40:70:6b:07:f6:1f:e9:3d:e3:72:1e:73:a9:0b:fc:
        50:aa:18:55:f0:73:f1:50:76:5b:4a:4d:2f:fe:02:ba:a6:76:
        0c:e2:17:ed:9d:29:89:60:dd:6c:48:f4:b2:ba:cf:ee:1e:37:
        0c:06:9b:8e:21:40:06:b4:ed:2d:71:2c:dd:92:e9:76:ea:cc:
        7d:5e:92:4f:b9:fb:4e:81:64:4b:1f:cb:7f:67:6a:3f:cc:9c:
        08:b2:9d:c5:67:61:a9:8c:4a:6a:64:66:be:6f:d4:38:21:a4:
        48:49:c4:92:40:83:a9:3d:53:65:a4:47:ab:4b:36:15:57:40:
        97:ef:f5:86
-----BEGIN CERTIFICATE-----
MIIDXDCCAkSgAwIBAgIQQUJ5Fg3ZcS26tnuyCsAEADANBgkqhkiG9w0BAQsFADAW
MRQwEgYDVQQDDAt0ZWFtNDg0LW5ldDAeFw0yMzExMDQxMDQ5MDlaFw0yNjEwMTkx
MDQ5MDlaMBkxFzAVBgNVBAMMDnRlYW00ODQtY2xpZW50MIIBIjANBgkqhkiG9w0B
AQEFAAOCAQ8AMIIBCgKCAQEA3JlZiNAWdp1251YGKx1TfV4b3lRYB4as4PTGK6U6
Eu+BeOSB0UJRvlxcGxHrUQLrPMMMi2ek6IHw/9KYLti6JCjl0VX57SSjmY97d4Nv
Bc29IYlWHCXiYgSXeBYKrU1+sfq7WevoGsswkM+FjetuuWooC0P4oP9HpHRVw5ds
3pe555X5brIJ9MYRy4sbJkz4GgbNj5bYPI7w2A95tAlFBHlUl0+SHSevXtzoXezi
AiLTO5w2fvFgGaZ9WgQJvcwnt4nMbE7jHZW4O15bo8hq6PQ43eIvnJOYZuCxqIzi
7AqZ2h+hhBNpaQ+wMEgWkTkxwlSvVgkagRbwFx2II33+SQIDAQABo4GiMIGfMAkG
A1UdEwQCMAAwHQYDVR0OBBYEFCQVzVIMjHSY3L4AGVA20sffS7WLMFEGA1UdIwRK
MEiAFCSFoF1YKkNJmy1h0Xkn80Gj8Rt8oRqkGDAWMRQwEgYDVQQDDAt0ZWFtNDg0
LW5ldIIUMUer4JM1LGPy8hKFO2OjDFOyWFMwEwYDVR0lBAwwCgYIKwYBBQUHAwIw
CwYDVR0PBAQDAgeAMA0GCSqGSIb3DQEBCwUAA4IBAQBxJ70XyjdFqg15DnW48jTA
eUIyfR6iKmvPjx3EKOljXYc88MYtCD1B/TtrY0HhFN+eqGLzjdIYRnvyRXq9eT0+
gZRzvlt0tYvDWNczZcrQb1yfrX0ghQXk2EDxMr3PIAQbe0HWF9TgDfMC0+HXAW46
39I1wCwUoDyHe7DOT110a95AcGsH9h/pPeNyHnOpC/xQqhhV8HPxUHZbSk0v/gK6
pnYM4hftnSmJYN1sSPSyus/uHjcMBpuOIUAGtO0tcSzdkul26sx9XpJPuftOgWRL
H8t/Z2o/zJwIsp3FZ2GpjEpqZGa+b9Q4IaRIScSSQIOpPVNlpEerSzYVV0CX7/WG
-----END CERTIFICATE-----
