Certificate:
    Data:
        Version: 3 (0x2)
        Serial Number:
            9d:72:e0:93:b8:57:47:03:ff:1a:50:07:4c:cd:b1:43
        Signature Algorithm: sha256WithRSAEncryption
        Issuer: CN=team484-net
        Validity
            Not Before: Nov  3 20:48:05 2023 GMT
            Not After : Oct 18 20:48:05 2026 GMT
        Subject: CN=team484-client
        Subject Public Key Info:
            Public Key Algorithm: rsaEncryption
                Public-Key: (2048 bit)
                Modulus:
                    00:bf:4b:0a:ff:86:5a:7d:e3:6a:3d:3e:e2:f2:d0:
                    d2:d8:c5:e6:d3:a7:43:bf:0e:0e:36:b3:ad:17:f1:
                    f6:a9:c6:dc:bb:07:30:3d:20:6c:21:47:96:be:d7:
                    16:f6:79:ea:13:47:3b:c8:0e:d6:e0:de:08:f0:cd:
                    0c:9c:58:85:76:a3:0f:16:ee:63:50:18:4d:1e:c7:
                    24:73:43:15:3c:d9:cf:f1:4c:85:0c:19:ee:e8:1a:
                    55:09:b6:f6:14:c2:55:3f:9b:eb:2d:f2:fa:40:eb:
                    fa:4a:77:85:98:ad:05:db:39:4a:67:60:bf:39:c8:
                    94:bb:e1:5b:ed:25:7f:37:7f:33:6d:3e:dc:8c:0f:
                    8e:88:fb:98:de:e9:58:67:14:43:61:52:15:ad:31:
                    61:ad:ee:33:d6:60:2b:38:06:c7:41:92:cb:63:96:
                    23:1b:95:e8:a3:77:24:72:a6:a2:f7:e5:9a:2f:6c:
                    1b:b6:bb:fd:4e:e9:8a:81:99:9c:09:db:01:15:dc:
                    78:78:f5:70:2f:f8:6d:37:14:1c:21:9d:c7:f0:dc:
                    85:e4:9a:69:1c:4a:2e:7c:26:f9:f4:25:66:19:46:
                    55:f1:f1:0d:a0:86:95:a1:0a:ff:a5:5f:cc:ea:7b:
                    60:35:64:38:42:28:2e:f3:a5:50:e3:11:61:e1:f7:
                    78:7d
                Exponent: 65537 (0x10001)
        X509v3 extensions:
            X509v3 Basic Constraints: 
                CA:FALSE
            X509v3 Subject Key Identifier: 
                9C:C2:82:71:11:F0:97:E2:6D:7B:49:88:EC:F1:66:2B:9B:45:CF:73
            X509v3 Authority Key Identifier: 
                keyid:1A:8C:24:E5:76:9D:78:A7:7A:38:8C:73:DF:21:EE:C7:FD:E7:49:53
                DirName:/CN=team484-net
                serial:03:76:A0:0B:4B:0A:B6:55:7F:A0:EF:22:C8:F1:BD:D5:63:BE:5A:BD
            X509v3 Extended Key Usage: 
                TLS Web Client Authentication
            X509v3 Key Usage: 
                Digital Signature
    Signature Algorithm: sha256WithRSAEncryption
    Signature Value:
        0c:fe:26:c9:05:79:d7:87:b5:7a:09:94:b1:68:8c:17:de:61:
        a7:77:68:38:f4:df:2f:2e:10:40:f0:c0:42:d0:a0:3f:6e:31:
        bd:0f:51:63:c6:14:26:36:19:4f:99:e8:e7:5b:71:ad:1a:3d:
        51:97:74:10:9f:ca:bf:54:e3:ae:18:c7:96:37:4a:05:5c:4e:
        8b:e3:5a:a9:90:1c:35:ce:a7:73:79:b6:6c:f1:67:a2:95:cc:
        06:b0:d2:3c:c6:23:46:9d:79:48:51:95:e2:4b:62:ec:f6:df:
        6e:9b:7a:f2:a8:62:74:54:6f:10:d3:13:30:f3:e3:9d:cc:4f:
        81:1e:5c:50:3d:63:4a:60:18:56:c7:f2:07:95:4b:2b:9b:63:
        45:c9:2a:3b:ef:08:15:b8:e1:f4:83:d9:60:27:cb:fe:77:98:
        86:86:23:0d:42:b2:f2:1f:9b:57:d1:ed:ae:c2:2b:c6:24:c2:
        25:a0:ac:ce:f9:44:68:ea:59:91:7e:9b:f3:76:e9:9c:45:15:
        cf:bc:bf:9f:ab:57:36:f4:12:94:dc:d0:5d:64:1b:f1:4f:f1:
        fa:96:c3:3e:2c:2a:dd:2d:bc:c9:15:de:00:a4:41:c0:54:13:
        cb:a6:f9:f4:88:c5:8e:61:d2:ca:0f:bb:51:25:2f:c5:b0:f4:
        c6:9d:52:ba
-----BEGIN CERTIFICATE-----
MIIDXTCCAkWgAwIBAgIRAJ1y4JO4V0cD/xpQB0zNsUMwDQYJKoZIhvcNAQELBQAw
FjEUMBIGA1UEAwwLdGVhbTQ4NC1uZXQwHhcNMjMxMTAzMjA0ODA1WhcNMjYxMDE4
MjA0ODA1WjAZMRcwFQYDVQQDDA50ZWFtNDg0LWNsaWVudDCCASIwDQYJKoZIhvcN
AQEBBQADggEPADCCAQoCggEBAL9LCv+GWn3jaj0+4vLQ0tjF5tOnQ78ODjazrRfx
9qnG3LsHMD0gbCFHlr7XFvZ56hNHO8gO1uDeCPDNDJxYhXajDxbuY1AYTR7HJHND
FTzZz/FMhQwZ7ugaVQm29hTCVT+b6y3y+kDr+kp3hZitBds5SmdgvznIlLvhW+0l
fzd/M20+3IwPjoj7mN7pWGcUQ2FSFa0xYa3uM9ZgKzgGx0GSy2OWIxuV6KN3JHKm
ovflmi9sG7a7/U7pioGZnAnbARXceHj1cC/4bTcUHCGdx/DcheSaaRxKLnwm+fQl
ZhlGVfHxDaCGlaEK/6VfzOp7YDVkOEIoLvOlUOMRYeH3eH0CAwEAAaOBojCBnzAJ
BgNVHRMEAjAAMB0GA1UdDgQWBBScwoJxEfCX4m17SYjs8WYrm0XPczBRBgNVHSME
SjBIgBQajCTldp14p3o4jHPfIe7H/edJU6EapBgwFjEUMBIGA1UEAwwLdGVhbTQ4
NC1uZXSCFAN2oAtLCrZVf6DvIsjxvdVjvlq9MBMGA1UdJQQMMAoGCCsGAQUFBwMC
MAsGA1UdDwQEAwIHgDANBgkqhkiG9w0BAQsFAAOCAQEADP4myQV514e1egmUsWiM
F95hp3doOPTfLy4QQPDAQtCgP24xvQ9RY8YUJjYZT5no51txrRo9UZd0EJ/Kv1Tj
rhjHljdKBVxOi+NaqZAcNc6nc3m2bPFnopXMBrDSPMYjRp15SFGV4kti7Pbfbpt6
8qhidFRvENMTMPPjncxPgR5cUD1jSmAYVsfyB5VLK5tjRckqO+8IFbjh9IPZYCfL
/neYhoYjDUKy8h+bV9HtrsIrxiTCJaCszvlEaOpZkX6b83bpnEUVz7y/n6tXNvQS
lNzQXWQb8U/x+pbDPiwq3S28yRXeAKRBwFQTy6b59IjFjmHSyg+7USUvxbD0xp1S
ug==
-----END CERTIFICATE-----
