Certificate:
    Data:
        Version: 3 (0x2)
        Serial Number:
            9d:89:f2:5b:30:d1:dc:2d:7f:e7:19:61:0e:a6:e9:93
        Signature Algorithm: sha256WithRSAEncryption
        Issuer: CN=team484-net
        Validity
            Not Before: Nov  4 11:38:33 2023 GMT
            Not After : Oct 19 11:38:33 2026 GMT
        Subject: CN=team484-server
        Subject Public Key Info:
            Public Key Algorithm: rsaEncryption
                Public-Key: (2048 bit)
                Modulus:
                    00:cc:05:6e:b3:db:2b:f1:2f:3b:f8:62:87:62:b6:
                    90:02:3d:3b:5c:33:7f:31:59:c0:bc:85:4d:60:41:
                    f9:a3:f4:d6:b2:09:12:3c:99:03:07:39:40:6e:6a:
                    da:8e:00:f0:c9:93:32:b3:12:d9:bd:61:60:4f:32:
                    a2:de:e7:36:8e:1c:a7:eb:9e:79:90:ff:e0:c9:9a:
                    5e:91:03:8d:8c:f9:d4:54:1e:ed:32:ec:53:fe:10:
                    0e:36:6f:2a:04:38:f7:6f:c0:69:dd:45:b7:4f:ff:
                    ab:3a:c7:54:71:d1:f4:89:33:65:18:2d:fb:58:8b:
                    6f:79:ab:07:4a:ad:7b:9e:8c:7a:3e:40:9b:16:1a:
                    3b:5e:80:19:40:41:9a:13:d5:bf:8c:bd:06:cd:4f:
                    c5:29:c4:3a:4e:2f:56:dc:12:9b:e7:0c:31:39:62:
                    fa:58:af:3b:94:17:0a:23:19:4a:2c:5c:0f:5e:93:
                    5c:c9:5a:a0:bf:d7:9f:27:e8:e0:d1:03:e7:d1:61:
                    de:68:63:ab:8f:66:04:59:65:b6:01:0d:72:a7:72:
                    f8:08:68:ee:63:d8:6a:0b:ee:ae:c0:b5:77:b1:80:
                    16:06:59:2d:ba:d4:04:de:e8:7a:29:df:80:44:78:
                    47:f5:a6:ac:d5:a5:2e:66:75:12:ee:04:16:fd:72:
                    6c:35
                Exponent: 65537 (0x10001)
        X509v3 extensions:
            X509v3 Basic Constraints: 
                CA:FALSE
            X509v3 Subject Key Identifier: 
                CA:3C:86:07:7A:D4:05:E8:61:A1:9D:66:32:A0:42:36:EF:D3:73:89
            X509v3 Authority Key Identifier: 
                keyid:AC:BB:51:9A:A3:1B:06:39:81:1D:F2:3E:F0:85:62:2C:CD:54:6B:DF
                DirName:/CN=team484-net
                serial:6F:D3:57:6A:64:97:6E:31:B3:90:CF:A1:42:64:56:18:42:2B:EC:CC
            X509v3 Extended Key Usage: 
                TLS Web Server Authentication
            X509v3 Key Usage: 
                Digital Signature, Key Encipherment
            X509v3 Subject Alternative Name: 
                DNS:team484-server
    Signature Algorithm: sha256WithRSAEncryption
    Signature Value:
        15:68:9d:4b:ca:0b:cb:38:4b:b7:61:50:7b:87:77:2e:3f:00:
        53:cf:62:09:ba:2f:59:e6:41:89:90:54:26:90:64:22:8c:1b:
        a7:9f:71:81:3e:e6:be:05:9f:77:22:4a:9c:d2:8b:3a:7d:5f:
        8b:20:b3:86:2a:7e:a9:1d:76:4f:91:6f:98:2b:e6:12:b9:76:
        5e:2e:89:01:21:96:25:18:0d:da:51:f0:aa:82:52:e7:00:ac:
        44:5d:54:d4:5f:e5:4e:6d:87:6b:62:9f:e9:f4:75:dd:ee:13:
        58:1e:99:7e:66:8a:f7:db:7d:b6:d1:92:30:19:b6:a7:45:ca:
        0c:62:19:d7:c0:c3:db:eb:2f:6e:83:56:58:02:c1:3f:de:db:
        95:67:1c:b6:4d:ec:b1:74:8b:84:28:31:f7:e1:a9:b5:f0:91:
        02:84:a0:23:50:76:31:d3:92:d7:6f:e9:11:ff:5d:44:7e:53:
        92:a5:88:c8:cb:df:e0:b1:4e:12:8b:53:03:8b:09:ea:6d:e3:
        c9:20:10:19:bc:c5:2c:36:66:3d:09:33:e4:bf:eb:ad:a6:82:
        b1:3a:49:81:cb:32:f5:88:65:98:03:2b:e4:62:db:f1:18:cf:
        33:1f:17:5c:b5:1c:fa:4d:18:0e:47:c8:2c:97:98:79:8c:c6:
        8f:08:d1:23
-----BEGIN CERTIFICATE-----
MIIDeDCCAmCgAwIBAgIRAJ2J8lsw0dwtf+cZYQ6m6ZMwDQYJKoZIhvcNAQELBQAw
FjEUMBIGA1UEAwwLdGVhbTQ4NC1uZXQwHhcNMjMxMTA0MTEzODMzWhcNMjYxMDE5
MTEzODMzWjAZMRcwFQYDVQQDDA50ZWFtNDg0LXNlcnZlcjCCASIwDQYJKoZIhvcN
AQEBBQADggEPADCCAQoCggEBAMwFbrPbK/EvO/hih2K2kAI9O1wzfzFZwLyFTWBB
+aP01rIJEjyZAwc5QG5q2o4A8MmTMrMS2b1hYE8yot7nNo4cp+ueeZD/4MmaXpED
jYz51FQe7TLsU/4QDjZvKgQ492/Aad1Ft0//qzrHVHHR9IkzZRgt+1iLb3mrB0qt
e56Mej5AmxYaO16AGUBBmhPVv4y9Bs1PxSnEOk4vVtwSm+cMMTli+livO5QXCiMZ
SixcD16TXMlaoL/Xnyfo4NED59Fh3mhjq49mBFlltgENcqdy+Aho7mPYagvursC1
d7GAFgZZLbrUBN7oeinfgER4R/WmrNWlLmZ1Eu4EFv1ybDUCAwEAAaOBvTCBujAJ
BgNVHRMEAjAAMB0GA1UdDgQWBBTKPIYHetQF6GGhnWYyoEI279NziTBRBgNVHSME
SjBIgBSsu1GaoxsGOYEd8j7whWIszVRr36EapBgwFjEUMBIGA1UEAwwLdGVhbTQ4
NC1uZXSCFG/TV2pkl24xs5DPoUJkVhhCK+zMMBMGA1UdJQQMMAoGCCsGAQUFBwMB
MAsGA1UdDwQEAwIFoDAZBgNVHREEEjAQgg50ZWFtNDg0LXNlcnZlcjANBgkqhkiG
9w0BAQsFAAOCAQEAFWidS8oLyzhLt2FQe4d3Lj8AU89iCbovWeZBiZBUJpBkIowb
p59xgT7mvgWfdyJKnNKLOn1fiyCzhip+qR12T5FvmCvmErl2Xi6JASGWJRgN2lHw
qoJS5wCsRF1U1F/lTm2Ha2Kf6fR13e4TWB6ZfmaK99t9ttGSMBm2p0XKDGIZ18DD
2+svboNWWALBP97blWcctk3ssXSLhCgx9+GptfCRAoSgI1B2MdOS12/pEf9dRH5T
kqWIyMvf4LFOEotTA4sJ6m3jySAQGbzFLDZmPQkz5L/rraaCsTpJgcsy9YhlmAMr
5GLb8RjPMx8XXLUc+k0YDkfILJeYeYzGjwjRIw==
-----END CERTIFICATE-----
