Certificate:
    Data:
        Version: 3 (0x2)
        Serial Number:
            bd:ee:72:7b:f6:d6:57:fb:4a:98:7b:9c:29:63:84:a8
        Signature Algorithm: sha256WithRSAEncryption
        Issuer: CN=team484-net
        Validity
            Not Before: Nov  4 10:49:09 2023 GMT
            Not After : Oct 19 10:49:09 2026 GMT
        Subject: CN=team484-server
        Subject Public Key Info:
            Public Key Algorithm: rsaEncryption
                Public-Key: (2048 bit)
                Modulus:
                    00:d7:b5:ae:d2:20:3e:1f:f9:9f:11:20:dd:8b:9d:
                    39:fc:82:bb:1d:81:c1:14:3d:3f:8a:e7:63:2b:7f:
                    0a:81:f1:25:c6:d3:c3:87:f9:a4:c8:c0:7a:1e:5a:
                    3e:f4:f6:d5:49:f0:e5:cc:5e:17:fe:f0:43:92:90:
                    4b:18:9f:10:86:30:c5:3c:f4:b4:fe:89:17:95:9a:
                    12:98:4c:f0:4d:68:ef:2d:e2:c8:c7:c0:c9:3a:9f:
                    52:56:8a:e2:64:73:60:5e:ca:09:8d:3f:21:87:70:
                    a2:cb:37:c9:b2:cc:80:33:e0:ca:f9:64:35:e0:20:
                    40:c8:d8:28:b7:a6:b2:8a:a7:97:db:0d:03:d1:62:
                    e6:24:cc:1e:9e:16:ae:25:83:98:eb:24:15:9a:41:
                    dc:6d:ba:e7:14:a4:9d:8d:0f:70:57:bb:59:0c:d7:
                    f9:47:78:54:86:ea:86:78:3f:2a:dd:1c:53:90:9c:
                    30:e7:20:4f:28:d0:2f:59:d3:96:b1:1a:05:5f:87:
                    69:3f:32:27:97:1c:54:22:e2:65:25:6a:29:72:cf:
                    cb:55:09:c4:8d:17:00:19:bf:97:33:73:57:a4:70:
                    92:d3:19:97:db:b0:56:91:83:88:fd:3d:30:1e:08:
                    50:3a:f9:6b:b0:53:14:59:39:8e:97:69:cb:87:5f:
                    7c:47
                Exponent: 65537 (0x10001)
        X509v3 extensions:
            X509v3 Basic Constraints: 
                CA:FALSE
            X509v3 Subject Key Identifier: 
                5F:F4:E8:4E:F0:B2:65:B9:9C:02:9A:AD:2B:85:3D:12:43:07:55:83
            X509v3 Authority Key Identifier: 
                keyid:24:85:A0:5D:58:2A:43:49:9B:2D:61:D1:79:27:F3:41:A3:F1:1B:7C
                DirName:/CN=team484-net
                serial:31:47:AB:E0:93:35:2C:63:F2:F2:12:85:3B:63:A3:0C:53:B2:58:53
            X509v3 Extended Key Usage: 
                TLS Web Server Authentication
            X509v3 Key Usage: 
                Digital Signature, Key Encipherment
            X509v3 Subject Alternative Name: 
                DNS:team484-server
    Signature Algorithm: sha256WithRSAEncryption
    Signature Value:
        02:1a:5f:44:9d:08:23:69:87:9a:87:93:35:39:e7:5f:2b:51:
        39:1d:37:ed:fe:1b:2d:4a:bd:e2:94:bd:8b:fc:c2:4e:0c:ae:
        86:b7:b0:a2:d2:fe:43:1c:23:8e:8c:82:44:78:c4:a8:96:72:
        54:c2:3b:2c:df:40:5f:c4:04:04:01:3e:f6:74:5d:b2:51:81:
        10:7b:8e:e1:44:9b:fa:e2:33:9e:c9:6a:59:8f:72:b0:b3:0f:
        95:b3:95:5a:c4:17:e1:6d:6d:88:cb:9d:06:71:28:81:ec:e0:
        83:24:c5:cd:ab:61:10:d3:3e:bd:57:74:c6:90:21:93:37:8c:
        67:cb:3f:fc:b3:4d:32:9e:5c:db:4a:3e:2f:f1:bd:13:b0:6d:
        f9:93:ad:65:fa:75:c3:13:68:0f:2a:d4:3e:d4:68:14:db:24:
        e9:0b:17:ba:bc:32:ec:ff:31:69:41:21:18:1e:57:e2:fa:20:
        c1:fe:2b:f7:5d:db:e4:5d:ba:c4:8b:16:7a:28:96:14:9a:7f:
        19:51:30:63:63:96:b7:ed:2b:1e:7d:d9:9c:1e:78:e4:a4:33:
        c9:25:dc:78:d5:35:b7:c4:29:12:c8:46:71:4b:91:82:76:08:
        3d:91:cb:df:8b:f6:6d:a8:3e:1f:57:dc:e1:08:fe:1a:48:2a:
        bb:ee:9e:2b
-----BEGIN CERTIFICATE-----
MIIDeDCCAmCgAwIBAgIRAL3ucnv21lf7Sph7nCljhKgwDQYJKoZIhvcNAQELBQAw
FjEUMBIGA1UEAwwLdGVhbTQ4NC1uZXQwHhcNMjMxMTA0MTA0OTA5WhcNMjYxMDE5
MTA0OTA5WjAZMRcwFQYDVQQDDA50ZWFtNDg0LXNlcnZlcjCCASIwDQYJKoZIhvcN
AQEBBQADggEPADCCAQoCggEBANe1rtIgPh/5nxEg3YudOfyCux2BwRQ9P4rnYyt/
CoHxJcbTw4f5pMjAeh5aPvT21Unw5cxeF/7wQ5KQSxifEIYwxTz0tP6JF5WaEphM
8E1o7y3iyMfAyTqfUlaK4mRzYF7KCY0/IYdwoss3ybLMgDPgyvlkNeAgQMjYKLem
soqnl9sNA9Fi5iTMHp4WriWDmOskFZpB3G265xSknY0PcFe7WQzX+Ud4VIbqhng/
Kt0cU5CcMOcgTyjQL1nTlrEaBV+HaT8yJ5ccVCLiZSVqKXLPy1UJxI0XABm/lzNz
V6RwktMZl9uwVpGDiP09MB4IUDr5a7BTFFk5jpdpy4dffEcCAwEAAaOBvTCBujAJ
BgNVHRMEAjAAMB0GA1UdDgQWBBRf9OhO8LJluZwCmq0rhT0SQwdVgzBRBgNVHSME
SjBIgBQkhaBdWCpDSZstYdF5J/NBo/EbfKEapBgwFjEUMBIGA1UEAwwLdGVhbTQ4
NC1uZXSCFDFHq+CTNSxj8vIShTtjowxTslhTMBMGA1UdJQQMMAoGCCsGAQUFBwMB
MAsGA1UdDwQEAwIFoDAZBgNVHREEEjAQgg50ZWFtNDg0LXNlcnZlcjANBgkqhkiG
9w0BAQsFAAOCAQEAAhpfRJ0II2mHmoeTNTnnXytROR037f4bLUq94pS9i/zCTgyu
hrewotL+QxwjjoyCRHjEqJZyVMI7LN9AX8QEBAE+9nRdslGBEHuO4USb+uIznslq
WY9ysLMPlbOVWsQX4W1tiMudBnEogezggyTFzathENM+vVd0xpAhkzeMZ8s//LNN
Mp5c20o+L/G9E7Bt+ZOtZfp1wxNoDyrUPtRoFNsk6QsXurwy7P8xaUEhGB5X4vog
wf4r913b5F26xIsWeiiWFJp/GVEwY2OWt+0rHn3ZnB545KQzySXceNU1t8QpEshG
cUuRgnYIPZHL34v2bag+H1fc4Qj+Gkgqu+6eKw==
-----END CERTIFICATE-----
