Certificate:
    Data:
        Version: 3 (0x2)
        Serial Number:
            e1:08:14:83:80:b1:01:6d:51:f4:8c:36:8d:70:f7:49
        Signature Algorithm: sha256WithRSAEncryption
        Issuer: CN=team484-net
        Validity
            Not Before: Nov  3 20:48:05 2023 GMT
            Not After : Oct 18 20:48:05 2026 GMT
        Subject: CN=team484-server
        Subject Public Key Info:
            Public Key Algorithm: rsaEncryption
                Public-Key: (2048 bit)
                Modulus:
                    00:bf:85:37:0c:52:dd:bb:d6:68:bd:c1:d5:bb:1d:
                    92:60:16:2c:ba:d0:1e:ba:99:d9:d7:f5:53:6a:ac:
                    0b:0a:b3:8f:09:06:47:7f:cd:f2:8f:8f:5f:48:0a:
                    6f:24:59:24:48:f2:c3:76:20:b0:4e:71:61:1e:be:
                    bc:89:21:e3:74:6d:7e:c9:ef:d3:1f:56:f0:85:15:
                    ce:78:78:be:0a:ff:85:96:bc:1c:26:64:1e:be:66:
                    68:d4:e9:31:58:50:db:ec:43:d9:90:72:ac:e6:e3:
                    5a:7a:ce:a9:2b:c9:bf:f3:22:91:1d:e8:18:fb:c5:
                    02:1a:de:9e:e0:4e:f3:60:2c:76:64:bb:e2:bc:cf:
                    12:fa:20:4d:94:81:00:e3:19:86:e2:1e:c6:6f:42:
                    b6:a3:00:45:4e:b8:0a:fe:9d:ce:dc:e1:c9:4f:2d:
                    bf:78:bc:33:a1:c4:d9:f3:2c:fd:be:28:3b:df:7d:
                    9b:8b:d2:6a:b7:6b:5a:a2:01:8b:c8:ed:d8:fa:7f:
                    1d:7d:67:7d:ff:97:b6:d5:51:92:2c:4a:ad:59:c4:
                    53:e8:12:b0:89:5d:ea:84:44:c8:2d:08:fe:37:9f:
                    b9:39:f6:37:f8:3f:74:bf:1a:3f:a3:7c:65:2a:94:
                    ae:f2:e1:5b:12:2f:c8:a0:bf:b4:99:19:5d:96:63:
                    e3:b1
                Exponent: 65537 (0x10001)
        X509v3 extensions:
            X509v3 Basic Constraints: 
                CA:FALSE
            X509v3 Subject Key Identifier: 
                83:98:B1:DC:AC:1D:10:BE:3A:23:7B:C9:69:F4:5E:2A:E3:9E:8F:EE
            X509v3 Authority Key Identifier: 
                keyid:1A:8C:24:E5:76:9D:78:A7:7A:38:8C:73:DF:21:EE:C7:FD:E7:49:53
                DirName:/CN=team484-net
                serial:03:76:A0:0B:4B:0A:B6:55:7F:A0:EF:22:C8:F1:BD:D5:63:BE:5A:BD
            X509v3 Extended Key Usage: 
                TLS Web Server Authentication
            X509v3 Key Usage: 
                Digital Signature, Key Encipherment
            X509v3 Subject Alternative Name: 
                DNS:team484-server
    Signature Algorithm: sha256WithRSAEncryption
    Signature Value:
        b4:e2:68:c6:30:65:64:27:92:a8:02:ad:ee:0c:aa:ed:0a:76:
        1f:3c:a3:54:6b:65:9e:d7:13:a0:63:26:f1:2d:7f:8c:ed:05:
        cb:55:2c:42:84:58:9f:53:cb:9a:70:c9:9d:42:f1:4d:70:2a:
        53:91:26:58:e8:4e:7b:85:a1:6b:f4:2e:c9:8d:0a:9d:d5:32:
        b3:52:ab:c5:99:02:ff:2a:90:19:a5:a4:fd:b4:b2:ab:d1:fa:
        e9:6a:75:bd:ed:06:b5:5b:7f:22:c9:8d:3f:20:4e:f3:b0:82:
        0c:34:89:a6:0c:7a:4e:ce:a6:57:19:f1:78:92:4e:bc:f7:c6:
        b3:e7:63:99:25:f1:80:19:79:56:dc:5c:57:99:ec:46:bd:23:
        dd:6e:e5:ec:0c:9b:b1:39:81:80:8a:c2:52:9c:0d:4c:cf:34:
        90:f2:3b:00:d7:3d:97:8c:cc:32:78:ec:f4:95:43:d0:e2:18:
        bd:a1:62:4e:a8:d5:8c:a8:20:f8:94:30:9d:63:c6:7c:c9:aa:
        8e:16:e4:f5:7e:e6:21:d1:8f:49:79:e7:ff:95:c4:72:0a:2d:
        dc:9a:97:9c:3a:8e:eb:e7:90:53:92:ec:74:8d:19:f0:dc:7b:
        c3:5c:45:bd:0f:36:ed:51:91:18:16:44:93:12:f5:f1:e2:e2:
        94:dc:02:43
-----BEGIN CERTIFICATE-----
MIIDeDCCAmCgAwIBAgIRAOEIFIOAsQFtUfSMNo1w90kwDQYJKoZIhvcNAQELBQAw
FjEUMBIGA1UEAwwLdGVhbTQ4NC1uZXQwHhcNMjMxMTAzMjA0ODA1WhcNMjYxMDE4
MjA0ODA1WjAZMRcwFQYDVQQDDA50ZWFtNDg0LXNlcnZlcjCCASIwDQYJKoZIhvcN
AQEBBQADggEPADCCAQoCggEBAL+FNwxS3bvWaL3B1bsdkmAWLLrQHrqZ2df1U2qs
CwqzjwkGR3/N8o+PX0gKbyRZJEjyw3YgsE5xYR6+vIkh43Rtfsnv0x9W8IUVznh4
vgr/hZa8HCZkHr5maNTpMVhQ2+xD2ZByrObjWnrOqSvJv/MikR3oGPvFAhrenuBO
82AsdmS74rzPEvogTZSBAOMZhuIexm9CtqMARU64Cv6dztzhyU8tv3i8M6HE2fMs
/b4oO999m4vSardrWqIBi8jt2Pp/HX1nff+XttVRkixKrVnEU+gSsIld6oREyC0I
/jefuTn2N/g/dL8aP6N8ZSqUrvLhWxIvyKC/tJkZXZZj47ECAwEAAaOBvTCBujAJ
BgNVHRMEAjAAMB0GA1UdDgQWBBSDmLHcrB0Qvjoje8lp9F4q456P7jBRBgNVHSME
SjBIgBQajCTldp14p3o4jHPfIe7H/edJU6EapBgwFjEUMBIGA1UEAwwLdGVhbTQ4
NC1uZXSCFAN2oAtLCrZVf6DvIsjxvdVjvlq9MBMGA1UdJQQMMAoGCCsGAQUFBwMB
MAsGA1UdDwQEAwIFoDAZBgNVHREEEjAQgg50ZWFtNDg0LXNlcnZlcjANBgkqhkiG
9w0BAQsFAAOCAQEAtOJoxjBlZCeSqAKt7gyq7Qp2HzyjVGtlntcToGMm8S1/jO0F
y1UsQoRYn1PLmnDJnULxTXAqU5EmWOhOe4Wha/QuyY0KndUys1KrxZkC/yqQGaWk
/bSyq9H66Wp1ve0GtVt/IsmNPyBO87CCDDSJpgx6Ts6mVxnxeJJOvPfGs+djmSXx
gBl5VtxcV5nsRr0j3W7l7AybsTmBgIrCUpwNTM80kPI7ANc9l4zMMnjs9JVD0OIY
vaFiTqjVjKgg+JQwnWPGfMmqjhbk9X7mIdGPSXnn/5XEcgot3JqXnDqO6+eQU5Ls
dI0Z8Nx7w1xFvQ827VGRGBZEkxL18eLilNwCQw==
-----END CERTIFICATE-----
