Certificate:
    Data:
        Version: 3 (0x2)
        Serial Number:
            39:24:15:b0:87:ba:f7:a4:20:3d:d0:d0:8a:21:57:7f
        Signature Algorithm: sha256WithRSAEncryption
        Issuer: CN=team215-net
        Validity
            Not Before: Nov  3 20:43:14 2023 GMT
            Not After : Oct 18 20:43:14 2026 GMT
        Subject: CN=team215-server
        Subject Public Key Info:
            Public Key Algorithm: rsaEncryption
                Public-Key: (2048 bit)
                Modulus:
                    00:b8:62:af:50:0d:9d:6b:dc:14:e6:4c:3b:da:27:
                    38:e9:46:50:6c:97:99:7f:81:f3:d1:fa:2e:9f:13:
                    71:0b:74:fe:36:36:75:b0:c0:61:b3:a6:75:f7:8c:
                    d2:33:1a:b4:00:2d:04:9e:27:35:87:cf:c3:46:d7:
                    23:16:be:58:49:99:8e:9a:c4:ab:ae:1b:75:d5:0f:
                    94:37:21:09:3b:75:a8:98:ce:7e:91:de:08:83:fc:
                    a2:9e:19:71:9d:c4:75:5e:5c:75:7a:6c:3d:cb:19:
                    fc:3e:0c:98:8a:ec:50:d2:48:99:84:33:a0:f9:37:
                    a0:d3:2c:e4:5e:7c:95:29:b3:d9:79:fe:38:03:59:
                    c3:5f:cf:98:35:41:18:3e:76:ef:61:f7:63:5c:e8:
                    9a:b4:76:17:f3:dd:8b:32:48:66:48:56:c1:e7:c1:
                    c4:1a:3f:3f:89:58:49:6f:0b:00:60:c1:13:be:30:
                    53:8a:2b:fe:17:a0:f4:27:fc:23:93:10:f4:46:d1:
                    3e:d1:61:a8:74:38:43:c0:d3:41:d3:c2:2a:2a:ee:
                    b0:40:71:0e:78:42:3e:6a:08:2f:37:ac:81:eb:51:
                    56:3e:e2:b6:e4:c6:8a:99:ad:4e:28:dd:3e:7a:7d:
                    31:c2:15:19:6b:3b:9b:c9:fe:6d:fc:cc:0d:a6:00:
                    cb:1b
                Exponent: 65537 (0x10001)
        X509v3 extensions:
            X509v3 Basic Constraints: 
                CA:FALSE
            X509v3 Subject Key Identifier: 
                93:D9:27:00:F6:1C:CD:0B:ED:52:92:4B:61:25:26:E3:F7:D5:93:36
            X509v3 Authority Key Identifier: 
                keyid:FB:76:F4:98:85:A1:EB:3D:56:BC:34:6E:F6:D3:FF:34:97:83:2C:64
                DirName:/CN=team215-net
                serial:4F:E3:10:F9:06:17:25:02:C9:60:28:57:F6:B6:6F:0A:61:CB:8A:91
            X509v3 Extended Key Usage: 
                TLS Web Server Authentication
            X509v3 Key Usage: 
                Digital Signature, Key Encipherment
            X509v3 Subject Alternative Name: 
                DNS:team215-server
    Signature Algorithm: sha256WithRSAEncryption
    Signature Value:
        3e:87:ad:1e:c5:b6:5b:54:54:9d:29:b3:e9:ea:1b:ca:0f:f9:
        0a:37:ae:6c:53:ec:78:fc:52:ca:6b:46:43:ef:f7:79:9c:33:
        4a:6a:a4:58:0c:37:01:59:18:d1:41:37:55:75:44:d7:76:64:
        6a:48:4f:d2:9c:2d:5a:a0:ba:5a:f8:8a:33:6f:90:9c:fb:21:
        2a:a1:66:d0:14:59:c6:b2:32:25:46:e3:43:8d:40:23:2d:a6:
        80:65:80:d7:3e:e1:60:b2:b8:3f:8a:99:67:5d:84:c5:9b:9f:
        ad:fc:ac:7b:6c:fb:b8:25:52:2b:38:20:14:07:c2:0c:5e:82:
        fc:dd:c0:83:07:59:f8:59:3b:2e:f8:ad:e4:bf:a5:1a:c6:ef:
        b6:33:e7:20:18:ee:14:c5:cc:10:80:1d:ad:cc:eb:19:7f:24:
        69:f2:71:fa:a4:5a:d0:51:e5:be:bf:57:c3:35:0d:a1:f6:01:
        b4:3e:d5:a5:78:2f:1f:ac:76:44:7b:c6:c6:23:55:29:ec:0e:
        ac:95:92:31:bf:a0:8a:0c:53:ba:61:8e:22:94:9c:08:7a:b4:
        71:aa:dc:2d:4a:1d:49:c0:77:5e:77:d9:f5:a2:5a:ac:52:4d:
        b3:e4:56:91:ea:e3:78:bb:02:bf:e9:36:1e:16:e6:08:8c:bd:
        f2:c3:72:79
-----BEGIN CERTIFICATE-----
MIIDdzCCAl+gAwIBAgIQOSQVsIe696QgPdDQiiFXfzANBgkqhkiG9w0BAQsFADAW
MRQwEgYDVQQDDAt0ZWFtMjE1LW5ldDAeFw0yMzExMDMyMDQzMTRaFw0yNjEwMTgy
MDQzMTRaMBkxFzAVBgNVBAMMDnRlYW0yMTUtc2VydmVyMIIBIjANBgkqhkiG9w0B
AQEFAAOCAQ8AMIIBCgKCAQEAuGKvUA2da9wU5kw72ic46UZQbJeZf4Hz0founxNx
C3T+NjZ1sMBhs6Z194zSMxq0AC0Enic1h8/DRtcjFr5YSZmOmsSrrht11Q+UNyEJ
O3WomM5+kd4Ig/yinhlxncR1Xlx1emw9yxn8PgyYiuxQ0kiZhDOg+Teg0yzkXnyV
KbPZef44A1nDX8+YNUEYPnbvYfdjXOiatHYX892LMkhmSFbB58HEGj8/iVhJbwsA
YMETvjBTiiv+F6D0J/wjkxD0RtE+0WGodDhDwNNB08IqKu6wQHEOeEI+aggvN6yB
61FWPuK25MaKma1OKN0+en0xwhUZazubyf5t/MwNpgDLGwIDAQABo4G9MIG6MAkG
A1UdEwQCMAAwHQYDVR0OBBYEFJPZJwD2HM0L7VKSS2ElJuP31ZM2MFEGA1UdIwRK
MEiAFPt29JiFoes9Vrw0bvbT/zSXgyxkoRqkGDAWMRQwEgYDVQQDDAt0ZWFtMjE1
LW5ldIIUT+MQ+QYXJQLJYChX9rZvCmHLipEwEwYDVR0lBAwwCgYIKwYBBQUHAwEw
CwYDVR0PBAQDAgWgMBkGA1UdEQQSMBCCDnRlYW0yMTUtc2VydmVyMA0GCSqGSIb3
DQEBCwUAA4IBAQA+h60exbZbVFSdKbPp6hvKD/kKN65sU+x4/FLKa0ZD7/d5nDNK
aqRYDDcBWRjRQTdVdUTXdmRqSE/SnC1aoLpa+Iozb5Cc+yEqoWbQFFnGsjIlRuND
jUAjLaaAZYDXPuFgsrg/iplnXYTFm5+t/Kx7bPu4JVIrOCAUB8IMXoL83cCDB1n4
WTsu+K3kv6Uaxu+2M+cgGO4UxcwQgB2tzOsZfyRp8nH6pFrQUeW+v1fDNQ2h9gG0
PtWleC8frHZEe8bGI1Up7A6slZIxv6CKDFO6YY4ilJwIerRxqtwtSh1JwHded9n1
olqsUk2z5FaR6uN4uwK/6TYeFuYIjL3yw3J5
-----END CERTIFICATE-----
