Certificate:
    Data:
        Version: 3 (0x2)
        Serial Number:
            26:57:19:f1:e4:d2:3b:6f:94:8b:98:f6:b8:10:f2:70
        Signature Algorithm: sha256WithRSAEncryption
        Issuer: CN=team280-net
        Validity
            Not Before: Nov  4 11:33:19 2023 GMT
            Not After : Oct 19 11:33:19 2026 GMT
        Subject: CN=team280-client
        Subject Public Key Info:
            Public Key Algorithm: rsaEncryption
                Public-Key: (2048 bit)
                Modulus:
                    00:9e:6c:86:8b:fd:0c:47:f1:d8:3f:4b:c0:0f:4e:
                    ae:c1:b0:79:67:72:b7:9b:6b:15:ad:d9:a5:1a:17:
                    d3:bc:05:89:48:ca:17:b2:7d:18:3d:69:4c:48:43:
                    f6:0b:b9:02:2e:b5:e0:6a:10:3d:7b:8a:31:80:52:
                    d1:b4:ac:a3:40:4b:49:ac:7c:b5:5a:16:2c:d1:e4:
                    cc:59:cc:e7:70:79:57:32:4b:16:4e:32:21:12:d0:
                    3f:66:2d:b0:fc:d4:ef:8c:d0:d1:cf:24:4d:09:24:
                    28:f5:57:62:31:d2:70:17:5f:fb:33:03:20:32:a9:
                    14:d9:b6:20:b4:9a:9f:e1:6b:2c:16:1d:98:b5:48:
                    56:2a:0a:cf:f3:d0:58:35:89:4e:f0:98:d3:b6:7c:
                    95:7d:ca:b3:7e:06:85:4c:35:31:cb:6f:4f:5a:57:
                    b3:db:84:17:f9:f1:3d:1c:c0:51:cc:02:f8:6a:58:
                    30:dc:7f:3b:de:20:16:5f:6a:13:8b:20:c9:e2:1f:
                    44:a3:42:4c:e7:4e:75:89:5e:86:20:22:28:90:22:
                    c6:2a:c7:3e:7e:13:4a:39:7c:59:ae:64:6e:28:a4:
                    0b:ef:62:c3:e8:2a:ce:c0:45:9a:cd:e5:9a:d4:17:
                    df:ff:9f:3e:3e:d3:ae:ec:6a:ea:af:ee:4d:ee:c0:
                    9c:8d
                Exponent: 65537 (0x10001)
        X509v3 extensions:
            X509v3 Basic Constraints: 
                CA:FALSE
            X509v3 Subject Key Identifier: 
                8B:5A:32:F8:C0:E0:64:45:AD:E3:FE:65:03:00:D6:0B:29:36:52:18
            X509v3 Authority Key Identifier: 
                keyid:F2:5A:DD:F3:7B:C2:D6:C0:E4:87:70:45:AC:C9:AF:FB:8D:4A:CA:43
                DirName:/CN=team280-net
                serial:7E:82:47:BA:87:0D:AF:78:28:96:A3:ED:D6:F8:E2:0B:07:86:97:38
            X509v3 Extended Key Usage: 
                TLS Web Client Authentication
            X509v3 Key Usage: 
                Digital Signature
    Signature Algorithm: sha256WithRSAEncryption
    Signature Value:
        5f:36:a0:2e:98:9b:27:7a:75:ad:1b:c1:28:77:95:1c:b8:d2:
        36:3f:fa:fa:07:8f:94:a4:22:71:fe:6c:2a:5c:9d:aa:8a:b1:
        e9:de:0f:97:12:94:6a:4f:53:05:25:b4:58:8b:1b:d4:b4:d1:
        b2:52:64:4d:0b:ef:1f:b7:65:4a:9a:65:5a:a2:b3:b9:8d:0c:
        33:12:b3:33:13:5f:43:39:52:e3:15:d0:c2:1a:24:4c:85:ef:
        8d:7e:9e:78:6d:78:f9:39:df:f6:00:4b:3d:9a:a8:53:f0:91:
        12:1c:06:3a:e2:f3:22:26:2f:28:37:dd:cd:d9:8a:01:f6:cd:
        a3:88:b0:10:1f:a5:18:0a:58:a0:6a:e1:72:f8:24:15:3f:ca:
        38:44:9d:e8:81:1f:fa:36:4c:62:b7:c5:f8:f2:8e:e2:de:c4:
        27:7e:55:c8:22:f9:24:71:3e:68:20:f6:47:3d:5f:b2:c8:a3:
        50:48:c9:30:6a:b5:a5:47:e6:88:3a:96:2d:7f:bf:bc:c4:9b:
        b6:f0:6b:b8:29:ae:a9:be:94:56:f1:ff:96:4c:83:e7:1c:ea:
        1b:80:57:b0:fe:fe:e5:37:41:47:17:40:2c:32:9d:e6:e5:3f:
        95:2f:e4:8b:b4:8c:87:ec:1f:ab:ef:32:f0:c8:47:38:82:76:
        eb:7e:bd:94
-----BEGIN CERTIFICATE-----
MIIDXDCCAkSgAwIBAgIQJlcZ8eTSO2+Ui5j2uBDycDANBgkqhkiG9w0BAQsFADAW
MRQwEgYDVQQDDAt0ZWFtMjgwLW5ldDAeFw0yMzExMDQxMTMzMTlaFw0yNjEwMTkx
MTMzMTlaMBkxFzAVBgNVBAMMDnRlYW0yODAtY2xpZW50MIIBIjANBgkqhkiG9w0B
AQEFAAOCAQ8AMIIBCgKCAQEAnmyGi/0MR/HYP0vAD06uwbB5Z3K3m2sVrdmlGhfT
vAWJSMoXsn0YPWlMSEP2C7kCLrXgahA9e4oxgFLRtKyjQEtJrHy1WhYs0eTMWczn
cHlXMksWTjIhEtA/Zi2w/NTvjNDRzyRNCSQo9VdiMdJwF1/7MwMgMqkU2bYgtJqf
4WssFh2YtUhWKgrP89BYNYlO8JjTtnyVfcqzfgaFTDUxy29PWlez24QX+fE9HMBR
zAL4algw3H873iAWX2oTiyDJ4h9Eo0JM5051iV6GICIokCLGKsc+fhNKOXxZrmRu
KKQL72LD6CrOwEWazeWa1Bff/58+PtOu7Grqr+5N7sCcjQIDAQABo4GiMIGfMAkG
A1UdEwQCMAAwHQYDVR0OBBYEFItaMvjA4GRFreP+ZQMA1gspNlIYMFEGA1UdIwRK
MEiAFPJa3fN7wtbA5IdwRazJr/uNSspDoRqkGDAWMRQwEgYDVQQDDAt0ZWFtMjgw
LW5ldIIUfoJHuocNr3golqPt1vjiCweGlzgwEwYDVR0lBAwwCgYIKwYBBQUHAwIw
CwYDVR0PBAQDAgeAMA0GCSqGSIb3DQEBCwUAA4IBAQBfNqAumJsnenWtG8Eod5Uc
uNI2P/r6B4+UpCJx/mwqXJ2qirHp3g+XEpRqT1MFJbRYixvUtNGyUmRNC+8ft2VK
mmVaorO5jQwzErMzE19DOVLjFdDCGiRMhe+Nfp54bXj5Od/2AEs9mqhT8JESHAY6
4vMiJi8oN93N2YoB9s2jiLAQH6UYCligauFy+CQVP8o4RJ3ogR/6Nkxit8X48o7i
3sQnflXIIvkkcT5oIPZHPV+yyKNQSMkwarWlR+aIOpYtf7+8xJu28Gu4Ka6pvpRW
8f+WTIPnHOobgFew/v7lN0FHF0AsMp3m5T+VL+SLtIyH7B+r7zLwyEc4gnbrfr2U
-----END CERTIFICATE-----
