Certificate:
    Data:
        Version: 3 (0x2)
        Serial Number:
            70:0c:93:29:97:20:b9:57:ab:07:5e:e5:b5:a9:64:ee
        Signature Algorithm: sha256WithRSAEncryption
        Issuer: CN=team280-net
        Validity
            Not Before: Nov  4 10:45:50 2023 GMT
            Not After : Oct 19 10:45:50 2026 GMT
        Subject: CN=team280-client
        Subject Public Key Info:
            Public Key Algorithm: rsaEncryption
                Public-Key: (2048 bit)
                Modulus:
                    00:92:c4:88:62:66:cc:da:aa:a4:ed:be:20:00:87:
                    4d:e1:6e:b5:0f:76:96:c6:01:76:90:03:e4:c9:50:
                    ae:6b:7a:9c:0a:8c:bd:d6:93:d6:b3:a5:3f:b2:c4:
                    b0:75:9e:8d:27:f9:f8:5f:14:4e:87:c8:28:57:04:
                    db:7a:c7:df:aa:ce:22:68:53:d9:d8:be:cd:20:b1:
                    d6:85:0f:8e:4b:55:88:52:92:a6:eb:fc:b9:c3:86:
                    88:63:42:1f:0a:d3:34:4a:70:fc:cf:bd:68:e4:86:
                    5a:0a:08:92:b3:07:72:7e:5f:c6:87:bf:dd:97:44:
                    66:0c:54:14:fb:b2:80:1b:8c:a7:91:b9:a8:52:14:
                    dc:b1:d2:a8:05:5a:3d:76:d1:60:58:8f:84:3c:74:
                    1b:33:22:45:2d:6e:22:c7:97:49:97:95:eb:f8:b0:
                    b5:4a:e4:9a:06:b5:e2:11:8d:9f:04:24:fb:19:c8:
                    e1:2d:66:11:62:9f:1b:c1:6a:6e:84:55:c7:01:d7:
                    2b:30:41:47:4f:d5:8c:67:91:cf:d4:d0:6c:b8:9f:
                    60:ad:d8:6a:bb:17:a4:9d:a8:ff:f6:7f:a6:4e:da:
                    0d:2e:a3:9b:2b:2b:c3:df:00:73:93:4a:18:0e:f7:
                    e2:eb:1a:1e:0a:e5:60:5a:39:0f:74:d7:71:04:c7:
                    b2:47
                Exponent: 65537 (0x10001)
        X509v3 extensions:
            X509v3 Basic Constraints: 
                CA:FALSE
            X509v3 Subject Key Identifier: 
                55:0E:A2:F6:59:7C:D1:E4:24:CE:A9:69:BB:4E:0F:0F:CF:BE:8D:75
            X509v3 Authority Key Identifier: 
                keyid:75:34:EC:5B:79:A3:36:86:F8:5D:CE:41:6A:A3:4F:F1:76:DA:FF:07
                DirName:/CN=team280-net
                serial:27:3A:32:E0:66:05:70:CE:C2:E0:86:C6:99:D0:CE:A7:69:E7:0A:F0
            X509v3 Extended Key Usage: 
                TLS Web Client Authentication
            X509v3 Key Usage: 
                Digital Signature
    Signature Algorithm: sha256WithRSAEncryption
    Signature Value:
        49:d2:e9:7a:98:81:fd:81:b5:ed:16:62:4e:cd:2b:c0:0f:16:
        6e:a9:27:77:96:2a:bf:b9:26:77:a6:3b:c1:e2:f1:b1:46:af:
        c2:78:7b:53:4a:64:ab:38:69:16:1c:d6:c5:4f:d5:19:c1:b1:
        50:6b:32:bd:4a:fd:f2:ec:a0:1a:2b:0c:2a:c0:a0:c8:3c:94:
        ab:7b:37:f0:80:cd:27:27:a7:4c:0d:b9:76:c0:23:8b:b5:8f:
        82:fc:33:8a:3c:13:f3:54:2a:cc:4c:84:81:e1:ec:91:24:ad:
        66:36:45:85:b8:ae:c3:7d:d4:f6:69:24:92:c8:62:3a:96:c6:
        87:20:0f:b3:e3:c3:f7:a5:f1:81:e9:c1:88:f6:1c:36:8b:c2:
        61:3a:e5:e6:d5:91:c1:54:8b:18:a8:c9:ee:63:b9:99:3c:96:
        ec:90:38:57:79:89:5e:36:b7:5e:f7:51:2d:e3:a0:a3:2e:e5:
        ba:a4:77:3d:95:f1:30:14:0e:4c:61:ca:a1:06:c3:71:3e:a9:
        88:00:31:04:51:73:be:3d:fb:ad:5e:23:3c:1f:b1:21:fc:c5:
        28:56:63:56:aa:1e:6b:96:ef:f4:46:cf:60:49:b2:69:a9:cc:
        3c:2c:85:f1:71:ce:48:f7:ad:96:37:04:f4:3c:60:d9:90:e6:
        86:3d:72:51
-----BEGIN CERTIFICATE-----
MIIDXDCCAkSgAwIBAgIQcAyTKZcguVerB17ltalk7jANBgkqhkiG9w0BAQsFADAW
MRQwEgYDVQQDDAt0ZWFtMjgwLW5ldDAeFw0yMzExMDQxMDQ1NTBaFw0yNjEwMTkx
MDQ1NTBaMBkxFzAVBgNVBAMMDnRlYW0yODAtY2xpZW50MIIBIjANBgkqhkiG9w0B
AQEFAAOCAQ8AMIIBCgKCAQEAksSIYmbM2qqk7b4gAIdN4W61D3aWxgF2kAPkyVCu
a3qcCoy91pPWs6U/ssSwdZ6NJ/n4XxROh8goVwTbesffqs4iaFPZ2L7NILHWhQ+O
S1WIUpKm6/y5w4aIY0IfCtM0SnD8z71o5IZaCgiSswdyfl/Gh7/dl0RmDFQU+7KA
G4ynkbmoUhTcsdKoBVo9dtFgWI+EPHQbMyJFLW4ix5dJl5Xr+LC1SuSaBrXiEY2f
BCT7GcjhLWYRYp8bwWpuhFXHAdcrMEFHT9WMZ5HP1NBsuJ9grdhquxeknaj/9n+m
TtoNLqObKyvD3wBzk0oYDvfi6xoeCuVgWjkPdNdxBMeyRwIDAQABo4GiMIGfMAkG
A1UdEwQCMAAwHQYDVR0OBBYEFFUOovZZfNHkJM6pabtODw/Pvo11MFEGA1UdIwRK
MEiAFHU07Ft5ozaG+F3OQWqjT/F22v8HoRqkGDAWMRQwEgYDVQQDDAt0ZWFtMjgw
LW5ldIIUJzoy4GYFcM7C4IbGmdDOp2nnCvAwEwYDVR0lBAwwCgYIKwYBBQUHAwIw
CwYDVR0PBAQDAgeAMA0GCSqGSIb3DQEBCwUAA4IBAQBJ0ul6mIH9gbXtFmJOzSvA
DxZuqSd3liq/uSZ3pjvB4vGxRq/CeHtTSmSrOGkWHNbFT9UZwbFQazK9Sv3y7KAa
KwwqwKDIPJSrezfwgM0nJ6dMDbl2wCOLtY+C/DOKPBPzVCrMTISB4eyRJK1mNkWF
uK7DfdT2aSSSyGI6lsaHIA+z48P3pfGB6cGI9hw2i8JhOuXm1ZHBVIsYqMnuY7mZ
PJbskDhXeYleNrde91Et46CjLuW6pHc9lfEwFA5MYcqhBsNxPqmIADEEUXO+Pfut
XiM8H7Eh/MUoVmNWqh5rlu/0Rs9gSbJpqcw8LIXxcc5I962WNwT0PGDZkOaGPXJR
-----END CERTIFICATE-----
