Certificate:
    Data:
        Version: 3 (0x2)
        Serial Number:
            79:08:1f:14:3d:5c:5e:4e:ea:cc:7e:7e:a1:da:0e:ea
        Signature Algorithm: sha256WithRSAEncryption
        Issuer: CN=team280-net
        Validity
            Not Before: Nov  4 11:33:19 2023 GMT
            Not After : Oct 19 11:33:19 2026 GMT
        Subject: CN=team280-server
        Subject Public Key Info:
            Public Key Algorithm: rsaEncryption
                Public-Key: (2048 bit)
                Modulus:
                    00:b0:c3:6c:2d:1f:3c:ed:28:1b:a1:f1:8b:51:de:
                    2a:7a:cf:e0:60:d0:48:28:b1:f4:60:83:3e:ed:ae:
                    2a:60:2a:84:fb:78:b9:be:14:e3:84:d2:53:e4:d7:
                    26:c0:66:81:e4:3c:4f:bc:ad:bf:59:6c:3c:b1:ac:
                    f4:40:f5:ab:ea:72:88:02:e2:3e:d9:b4:47:8c:53:
                    9c:05:06:ac:9a:ab:a3:a8:32:dc:ef:5b:57:33:cd:
                    98:cf:2c:99:f1:9b:fd:68:a4:36:1b:6e:3c:dc:63:
                    42:63:9c:dd:b8:1e:e8:6e:9a:8d:1c:f5:9b:5c:1d:
                    ab:1f:48:69:04:6d:ec:20:01:ef:f9:24:cf:a5:32:
                    17:7e:f8:98:0a:d1:b0:48:63:3a:6d:15:02:6e:93:
                    74:66:c1:52:25:54:88:73:53:c4:05:96:54:1d:4e:
                    e2:b7:52:7b:d6:5d:d5:47:1e:18:30:7c:c5:84:4e:
                    fa:d7:18:bd:2c:87:53:f3:03:3b:ad:66:ea:e7:48:
                    56:6b:6d:b5:67:d8:57:75:11:48:7c:31:1a:5d:0a:
                    fa:cb:af:53:a3:91:31:55:d4:bd:8c:8e:0e:26:ee:
                    f6:d5:04:17:a2:32:0d:d6:49:e0:f1:81:60:58:2c:
                    b4:38:35:24:9e:7b:c5:39:9b:06:21:22:2a:b7:09:
                    63:55
                Exponent: 65537 (0x10001)
        X509v3 extensions:
            X509v3 Basic Constraints: 
                CA:FALSE
            X509v3 Subject Key Identifier: 
                02:55:90:82:6A:21:FF:4F:C4:1E:E3:47:24:D0:D5:F1:8A:A7:BB:01
            X509v3 Authority Key Identifier: 
                keyid:F2:5A:DD:F3:7B:C2:D6:C0:E4:87:70:45:AC:C9:AF:FB:8D:4A:CA:43
                DirName:/CN=team280-net
                serial:7E:82:47:BA:87:0D:AF:78:28:96:A3:ED:D6:F8:E2:0B:07:86:97:38
            X509v3 Extended Key Usage: 
                TLS Web Server Authentication
            X509v3 Key Usage: 
                Digital Signature, Key Encipherment
            X509v3 Subject Alternative Name: 
                DNS:team280-server
    Signature Algorithm: sha256WithRSAEncryption
    Signature Value:
        74:2e:f0:94:83:3d:06:48:bf:e0:0f:76:49:bb:f9:eb:94:fd:
        64:15:05:9f:5d:40:dd:c5:9b:17:af:83:33:b9:88:6a:a5:96:
        ba:1c:63:9a:89:1f:ea:14:53:bf:be:1d:ba:83:e3:c0:6f:94:
        75:58:54:93:6e:5d:30:e5:24:28:c8:1b:65:2a:e4:54:b1:da:
        ca:ce:59:a6:ca:0e:27:1a:01:9f:7e:28:94:2b:59:bb:00:7f:
        0a:e6:4e:5a:33:3f:ce:86:91:ca:f4:bf:f1:4d:54:05:b9:e4:
        a2:fb:47:86:0f:47:7d:b5:96:22:5a:ce:b8:fb:b7:e1:87:bb:
        fe:a9:aa:8f:5b:2f:2c:15:cd:74:e2:60:71:bf:69:4f:bb:17:
        82:11:4d:a0:3a:07:d5:15:c5:62:4b:df:fe:a4:8e:0c:b0:0d:
        36:06:1d:81:bf:70:85:ba:0a:71:89:ab:b5:e4:e1:85:d6:fe:
        80:cb:c9:af:e0:3b:58:2a:37:48:18:ce:2d:82:47:5a:f2:7a:
        bd:30:fa:0d:77:74:a4:58:76:e8:3d:80:c2:f0:d6:b6:f9:05:
        be:f4:e5:86:31:be:39:c3:1b:25:ac:24:c4:91:e6:84:40:46:
        d8:21:63:b7:2c:b2:dc:11:77:b9:b0:43:b4:5f:33:4a:3c:e9:
        77:a5:de:57
-----BEGIN CERTIFICATE-----
MIIDdzCCAl+gAwIBAgIQeQgfFD1cXk7qzH5+odoO6jANBgkqhkiG9w0BAQsFADAW
MRQwEgYDVQQDDAt0ZWFtMjgwLW5ldDAeFw0yMzExMDQxMTMzMTlaFw0yNjEwMTkx
MTMzMTlaMBkxFzAVBgNVBAMMDnRlYW0yODAtc2VydmVyMIIBIjANBgkqhkiG9w0B
AQEFAAOCAQ8AMIIBCgKCAQEAsMNsLR887SgbofGLUd4qes/gYNBIKLH0YIM+7a4q
YCqE+3i5vhTjhNJT5NcmwGaB5DxPvK2/WWw8saz0QPWr6nKIAuI+2bRHjFOcBQas
mqujqDLc71tXM82YzyyZ8Zv9aKQ2G2483GNCY5zduB7obpqNHPWbXB2rH0hpBG3s
IAHv+STPpTIXfviYCtGwSGM6bRUCbpN0ZsFSJVSIc1PEBZZUHU7it1J71l3VRx4Y
MHzFhE761xi9LIdT8wM7rWbq50hWa221Z9hXdRFIfDEaXQr6y69To5ExVdS9jI4O
Ju721QQXojIN1kng8YFgWCy0ODUknnvFOZsGISIqtwljVQIDAQABo4G9MIG6MAkG
A1UdEwQCMAAwHQYDVR0OBBYEFAJVkIJqIf9PxB7jRyTQ1fGKp7sBMFEGA1UdIwRK
MEiAFPJa3fN7wtbA5IdwRazJr/uNSspDoRqkGDAWMRQwEgYDVQQDDAt0ZWFtMjgw
LW5ldIIUfoJHuocNr3golqPt1vjiCweGlzgwEwYDVR0lBAwwCgYIKwYBBQUHAwEw
CwYDVR0PBAQDAgWgMBkGA1UdEQQSMBCCDnRlYW0yODAtc2VydmVyMA0GCSqGSIb3
DQEBCwUAA4IBAQB0LvCUgz0GSL/gD3ZJu/nrlP1kFQWfXUDdxZsXr4MzuYhqpZa6
HGOaiR/qFFO/vh26g+PAb5R1WFSTbl0w5SQoyBtlKuRUsdrKzlmmyg4nGgGffiiU
K1m7AH8K5k5aMz/OhpHK9L/xTVQFueSi+0eGD0d9tZYiWs64+7fhh7v+qaqPWy8s
Fc104mBxv2lPuxeCEU2gOgfVFcViS9/+pI4MsA02Bh2Bv3CFugpxiau15OGF1v6A
y8mv4DtYKjdIGM4tgkda8nq9MPoNd3SkWHboPYDC8Na2+QW+9OWGMb45wxslrCTE
keaEQEbYIWO3LLLcEXe5sEO0XzNKPOl3pd5X
-----END CERTIFICATE-----
