Certificate:
    Data:
        Version: 3 (0x2)
        Serial Number:
            49:22:55:66:80:ce:23:e7:2d:09:63:fa:7b:b0:34:87
        Signature Algorithm: sha256WithRSAEncryption
        Issuer: CN=team190-net
        Validity
            Not Before: Nov  4 11:31:22 2023 GMT
            Not After : Oct 19 11:31:22 2026 GMT
        Subject: CN=team190-server
        Subject Public Key Info:
            Public Key Algorithm: rsaEncryption
                Public-Key: (2048 bit)
                Modulus:
                    00:8e:25:30:cc:0e:98:f3:c0:7e:6f:ae:0e:7c:45:
                    84:f5:66:59:94:fe:87:61:62:74:2e:8d:6d:14:46:
                    9e:5c:58:aa:29:c2:9f:f1:a0:74:79:bf:07:64:26:
                    39:38:01:ce:cf:44:13:65:34:10:96:2f:44:34:88:
                    40:4e:87:85:d8:64:dc:e4:37:71:6f:99:5c:5f:b2:
                    bd:8b:22:15:bc:72:68:44:c2:da:2b:c5:9a:6b:9e:
                    38:c9:76:d0:5b:12:c8:51:86:7d:61:52:16:f1:1b:
                    e0:bf:fe:2a:6d:a5:16:2d:ab:61:0d:ba:90:9d:67:
                    34:1f:cf:1e:f5:7e:60:7c:0f:0b:83:3c:84:c7:0f:
                    de:34:34:24:d9:85:44:b4:a4:75:c0:5d:0f:aa:f1:
                    8e:d5:01:22:1f:15:3a:f9:66:19:1c:ef:8f:dc:32:
                    1c:63:72:73:a2:1a:0f:6f:f7:84:eb:fe:a4:cd:7b:
                    ca:53:8d:5b:d5:fc:19:c4:2e:ae:5c:5b:ed:e1:56:
                    79:22:4e:7d:43:91:c5:d8:54:c6:9d:41:80:36:c4:
                    3d:9f:b4:e3:54:1e:4b:51:d3:a3:af:c3:da:f6:f5:
                    4f:6d:02:29:b2:b5:4c:57:25:dd:fe:13:dd:10:a8:
                    92:ca:04:a6:e4:a3:fd:e7:ec:f8:06:af:b6:18:29:
                    03:21
                Exponent: 65537 (0x10001)
        X509v3 extensions:
            X509v3 Basic Constraints: 
                CA:FALSE
            X509v3 Subject Key Identifier: 
                39:47:A3:79:35:65:E1:4D:83:9E:B5:EB:03:05:39:FD:0A:D7:60:DC
            X509v3 Authority Key Identifier: 
                keyid:2C:C5:44:EF:8A:94:FB:B4:23:A6:F5:2C:77:5B:92:49:4F:BE:B6:90
                DirName:/CN=team190-net
                serial:6B:89:37:C7:5E:E2:CE:C1:DE:36:E7:A5:D2:54:A5:D3:54:4D:49:53
            X509v3 Extended Key Usage: 
                TLS Web Server Authentication
            X509v3 Key Usage: 
                Digital Signature, Key Encipherment
            X509v3 Subject Alternative Name: 
                DNS:team190-server
    Signature Algorithm: sha256WithRSAEncryption
    Signature Value:
        3c:22:65:3f:b6:69:2d:48:56:47:a6:86:77:bd:bd:2c:3b:9f:
        97:dc:d0:02:29:69:4c:15:7f:1f:58:c2:c5:53:76:1f:38:1f:
        1b:0c:77:2d:4d:53:de:bd:ca:1f:bc:ed:fd:3c:57:bb:63:52:
        ab:c2:d3:e7:ca:0a:c1:ae:53:04:64:a2:3b:37:7f:84:82:57:
        84:55:05:3e:22:09:24:d0:36:33:34:86:97:c3:62:35:24:cf:
        12:8c:1e:f3:b2:13:3b:14:dd:c5:c7:be:49:90:73:6c:df:26:
        3e:c8:1e:e8:81:ea:19:a3:c0:7e:f5:a8:82:cb:f9:da:e6:b5:
        34:71:96:7e:27:d7:7e:bf:16:43:02:02:bc:a4:65:6a:04:ab:
        3b:2b:ec:59:06:0c:64:3a:d4:06:93:2a:f1:0a:04:3f:ec:ea:
        26:93:16:26:5e:95:78:fc:41:c4:2a:b5:dc:dd:1d:f4:ae:c0:
        43:7a:7e:ea:cb:66:6c:12:94:d0:f7:f6:20:33:47:53:f1:e0:
        91:8b:67:01:c6:4e:b7:45:2d:90:c3:be:0b:f2:a7:25:25:af:
        cc:b9:e6:45:25:ce:20:d7:8e:7c:e6:f0:73:47:12:bb:66:6d:
        f4:2c:d0:2a:de:bf:3a:cb:99:af:40:48:f4:91:ef:9f:b5:6b:
        ff:af:d7:84
-----BEGIN CERTIFICATE-----
MIIDdzCCAl+gAwIBAgIQSSJVZoDOI+ctCWP6e7A0hzANBgkqhkiG9w0BAQsFADAW
MRQwEgYDVQQDDAt0ZWFtMTkwLW5ldDAeFw0yMzExMDQxMTMxMjJaFw0yNjEwMTkx
MTMxMjJaMBkxFzAVBgNVBAMMDnRlYW0xOTAtc2VydmVyMIIBIjANBgkqhkiG9w0B
AQEFAAOCAQ8AMIIBCgKCAQEAjiUwzA6Y88B+b64OfEWE9WZZlP6HYWJ0Lo1tFEae
XFiqKcKf8aB0eb8HZCY5OAHOz0QTZTQQli9ENIhAToeF2GTc5Ddxb5lcX7K9iyIV
vHJoRMLaK8Waa544yXbQWxLIUYZ9YVIW8Rvgv/4qbaUWLathDbqQnWc0H88e9X5g
fA8LgzyExw/eNDQk2YVEtKR1wF0PqvGO1QEiHxU6+WYZHO+P3DIcY3JzohoPb/eE
6/6kzXvKU41b1fwZxC6uXFvt4VZ5Ik59Q5HF2FTGnUGANsQ9n7TjVB5LUdOjr8Pa
9vVPbQIpsrVMVyXd/hPdEKiSygSm5KP95+z4Bq+2GCkDIQIDAQABo4G9MIG6MAkG
A1UdEwQCMAAwHQYDVR0OBBYEFDlHo3k1ZeFNg5616wMFOf0K12DcMFEGA1UdIwRK
MEiAFCzFRO+KlPu0I6b1LHdbkklPvraQoRqkGDAWMRQwEgYDVQQDDAt0ZWFtMTkw
LW5ldIIUa4k3x17izsHeNuel0lSl01RNSVMwEwYDVR0lBAwwCgYIKwYBBQUHAwEw
CwYDVR0PBAQDAgWgMBkGA1UdEQQSMBCCDnRlYW0xOTAtc2VydmVyMA0GCSqGSIb3
DQEBCwUAA4IBAQA8ImU/tmktSFZHpoZ3vb0sO5+X3NACKWlMFX8fWMLFU3YfOB8b
DHctTVPevcofvO39PFe7Y1KrwtPnygrBrlMEZKI7N3+EgleEVQU+Igkk0DYzNIaX
w2I1JM8SjB7zshM7FN3Fx75JkHNs3yY+yB7ogeoZo8B+9aiCy/na5rU0cZZ+J9d+
vxZDAgK8pGVqBKs7K+xZBgxkOtQGkyrxCgQ/7OomkxYmXpV4/EHEKrXc3R30rsBD
en7qy2ZsEpTQ9/YgM0dT8eCRi2cBxk63RS2Qw74L8qclJa/MueZFJc4g14585vBz
RxK7Zm30LNAq3r86y5mvQEj0ke+ftWv/r9eE
-----END CERTIFICATE-----
