Certificate:
    Data:
        Version: 3 (0x2)
        Serial Number:
            f4:0c:83:4d:ae:55:4c:07:77:55:85:ec:7a:70:7e:0c
        Signature Algorithm: sha256WithRSAEncryption
        Issuer: CN=team190-net
        Validity
            Not Before: Nov  4 10:44:05 2023 GMT
            Not After : Oct 19 10:44:05 2026 GMT
        Subject: CN=team190-server
        Subject Public Key Info:
            Public Key Algorithm: rsaEncryption
                Public-Key: (2048 bit)
                Modulus:
                    00:be:65:cf:ae:d9:bf:64:18:75:aa:39:43:51:c2:
                    79:7d:21:3e:56:da:17:37:9d:d3:87:d6:23:f0:2b:
                    ac:38:cc:be:72:ab:55:1c:2d:d2:81:cc:d9:e2:c3:
                    e9:9c:55:5b:01:65:af:4d:b7:48:46:a8:55:0a:16:
                    49:50:7b:be:1e:db:40:55:a0:16:9b:82:d8:57:7c:
                    b3:23:d7:b2:87:5a:fe:e3:9b:ad:21:71:0b:98:26:
                    31:8f:79:6b:3d:04:cf:07:bd:5e:93:33:fa:cf:c3:
                    bc:83:f5:a7:c2:42:b3:64:e9:fa:e3:b4:31:85:6c:
                    b3:e3:55:c3:1d:f5:6d:97:33:32:e7:5b:5a:70:2f:
                    0e:92:af:f4:73:ef:8b:f3:e1:59:96:ea:da:66:17:
                    c1:5f:81:51:ad:29:5e:ac:21:ed:38:e9:89:6a:e0:
                    a5:cd:5a:e6:a5:5a:69:4d:c9:de:88:c3:56:8d:cd:
                    d8:4f:c3:ac:ce:c7:59:77:ee:10:93:5d:0c:65:5b:
                    89:c2:53:12:07:08:b2:ff:4d:e5:05:9f:35:c6:0c:
                    01:74:dd:72:e9:16:1e:73:88:51:3c:be:a0:21:75:
                    3d:13:17:a4:3f:51:7e:7c:b6:c7:fa:e4:18:df:73:
                    be:46:27:a7:7f:b1:91:08:df:a5:22:fd:e6:8d:4b:
                    3a:c9
                Exponent: 65537 (0x10001)
        X509v3 extensions:
            X509v3 Basic Constraints: 
                CA:FALSE
            X509v3 Subject Key Identifier: 
                60:29:7D:3E:36:07:0A:C6:A6:17:77:82:37:FE:91:BD:A0:C7:27:A4
            X509v3 Authority Key Identifier: 
                keyid:34:18:E2:EE:1A:B9:74:9F:46:BD:FF:B7:7D:BC:B8:C9:04:37:F0:8B
                DirName:/CN=team190-net
                serial:46:16:4E:30:77:2D:28:C2:69:A7:C5:36:EC:79:E6:96:F9:46:7F:9A
            X509v3 Extended Key Usage: 
                TLS Web Server Authentication
            X509v3 Key Usage: 
                Digital Signature, Key Encipherment
            X509v3 Subject Alternative Name: 
                DNS:team190-server
    Signature Algorithm: sha256WithRSAEncryption
    Signature Value:
        13:a1:df:da:df:90:52:11:cf:f2:63:19:cd:3b:8e:b2:a3:78:
        de:85:60:e0:7d:72:66:59:3f:74:10:96:64:59:97:b9:28:05:
        7d:e9:26:38:0f:b4:ad:52:e4:bf:05:a0:5c:e8:dc:68:76:1d:
        8c:42:3c:eb:02:af:2e:18:f8:34:64:66:0c:73:95:01:ea:27:
        7e:79:c0:4c:27:38:48:4e:04:c4:aa:1a:34:5f:1c:90:51:77:
        ca:6b:24:25:11:0b:05:48:fd:83:db:6b:9e:12:39:63:4f:d5:
        37:ab:af:db:ab:9a:33:df:e4:40:df:aa:8d:27:73:5e:5c:6f:
        ad:4d:de:d0:15:3a:9b:0e:bd:45:9c:eb:15:86:81:01:5f:18:
        80:64:16:17:fb:1f:a5:69:ad:60:5b:ff:26:df:44:ee:6e:d4:
        d5:2d:80:62:90:f6:61:9d:04:42:0c:55:d1:a3:05:84:21:52:
        59:9d:f0:2d:d8:02:c6:cc:a9:19:61:f3:13:88:33:d6:c0:7e:
        0c:29:51:bc:b7:cf:39:16:81:c0:ac:37:e5:88:ea:8a:82:dd:
        0c:14:d2:7b:26:7c:92:a4:2c:8b:cd:f4:48:ca:ea:9c:27:00:
        32:59:9d:7b:16:7b:67:15:9a:74:84:b8:f2:e7:2f:00:a5:f2:
        af:64:9d:e3
-----BEGIN CERTIFICATE-----
MIIDeDCCAmCgAwIBAgIRAPQMg02uVUwHd1WF7HpwfgwwDQYJKoZIhvcNAQELBQAw
FjEUMBIGA1UEAwwLdGVhbTE5MC1uZXQwHhcNMjMxMTA0MTA0NDA1WhcNMjYxMDE5
MTA0NDA1WjAZMRcwFQYDVQQDDA50ZWFtMTkwLXNlcnZlcjCCASIwDQYJKoZIhvcN
AQEBBQADggEPADCCAQoCggEBAL5lz67Zv2QYdao5Q1HCeX0hPlbaFzed04fWI/Ar
rDjMvnKrVRwt0oHM2eLD6ZxVWwFlr023SEaoVQoWSVB7vh7bQFWgFpuC2Fd8syPX
soda/uObrSFxC5gmMY95az0Ezwe9XpMz+s/DvIP1p8JCs2Tp+uO0MYVss+NVwx31
bZczMudbWnAvDpKv9HPvi/PhWZbq2mYXwV+BUa0pXqwh7TjpiWrgpc1a5qVaaU3J
3ojDVo3N2E/DrM7HWXfuEJNdDGVbicJTEgcIsv9N5QWfNcYMAXTdcukWHnOIUTy+
oCF1PRMXpD9Rfny2x/rkGN9zvkYnp3+xkQjfpSL95o1LOskCAwEAAaOBvTCBujAJ
BgNVHRMEAjAAMB0GA1UdDgQWBBRgKX0+NgcKxqYXd4I3/pG9oMcnpDBRBgNVHSME
SjBIgBQ0GOLuGrl0n0a9/7d9vLjJBDfwi6EapBgwFjEUMBIGA1UEAwwLdGVhbTE5
MC1uZXSCFEYWTjB3LSjCaafFNux55pb5Rn+aMBMGA1UdJQQMMAoGCCsGAQUFBwMB
MAsGA1UdDwQEAwIFoDAZBgNVHREEEjAQgg50ZWFtMTkwLXNlcnZlcjANBgkqhkiG
9w0BAQsFAAOCAQEAE6Hf2t+QUhHP8mMZzTuOsqN43oVg4H1yZlk/dBCWZFmXuSgF
fekmOA+0rVLkvwWgXOjcaHYdjEI86wKvLhj4NGRmDHOVAeonfnnATCc4SE4ExKoa
NF8ckFF3ymskJRELBUj9g9trnhI5Y0/VN6uv26uaM9/kQN+qjSdzXlxvrU3e0BU6
mw69RZzrFYaBAV8YgGQWF/sfpWmtYFv/Jt9E7m7U1S2AYpD2YZ0EQgxV0aMFhCFS
WZ3wLdgCxsypGWHzE4gz1sB+DClRvLfPORaBwKw35YjqioLdDBTSeyZ8kqQsi830
SMrqnCcAMlmdexZ7ZxWadIS48ucvAKXyr2Sd4w==
-----END CERTIFICATE-----
