Certificate:
    Data:
        Version: 3 (0x2)
        Serial Number:
            02:d7:49:91:37:9e:ec:60:38:2b:48:98:d2:f7:26:3c
        Signature Algorithm: sha256WithRSAEncryption
        Issuer: CN=team242-net
        Validity
            Not Before: Nov  4 10:45:10 2023 GMT
            Not After : Oct 19 10:45:10 2026 GMT
        Subject: CN=team242-client
        Subject Public Key Info:
            Public Key Algorithm: rsaEncryption
                Public-Key: (2048 bit)
                Modulus:
                    00:c8:6c:24:d6:1f:e4:31:15:8d:10:17:ed:1b:f2:
                    7a:78:22:e0:87:b3:e4:86:e6:28:90:1b:ed:04:d4:
                    d3:8b:96:be:6b:03:38:a6:de:89:b5:47:d0:4b:7c:
                    71:7d:e8:61:de:8d:6e:6d:02:84:42:05:f4:de:e6:
                    95:08:16:15:81:73:e1:b9:b6:47:b7:81:a0:a3:f5:
                    70:3d:29:0b:ef:6f:43:f1:42:1a:fd:19:c9:c5:73:
                    fd:ba:a7:70:8a:7a:7e:50:47:f6:e5:78:b0:76:49:
                    ab:d6:d9:9b:8c:ba:4d:18:b6:75:a4:40:8a:fd:07:
                    cd:29:42:8a:f4:fd:f0:bd:1e:d9:18:65:63:c7:84:
                    0f:b4:9f:bd:bd:b2:38:ee:0b:08:8a:94:27:6b:ea:
                    ec:57:40:1b:5b:f8:a7:13:6d:b2:c8:35:a8:30:6f:
                    94:9a:ec:dd:8e:62:11:fc:a7:f7:37:bd:df:96:68:
                    7f:41:fc:18:a2:8f:cb:99:b1:4e:a3:b9:07:41:0c:
                    f1:bf:b7:8c:85:ca:29:4c:cf:18:86:9d:5f:04:83:
                    e1:66:31:78:03:e2:99:a1:6c:6b:c7:14:48:99:19:
                    56:de:02:71:86:39:2a:2a:ca:1b:e2:b9:90:a0:0a:
                    b8:9c:9b:45:0a:40:7d:77:a6:77:b2:a6:ad:e1:53:
                    21:69
                Exponent: 65537 (0x10001)
        X509v3 extensions:
            X509v3 Basic Constraints: 
                CA:FALSE
            X509v3 Subject Key Identifier: 
                B8:FA:29:AD:99:83:87:6A:0E:DA:87:AF:3E:50:6D:5C:55:B0:46:4B
            X509v3 Authority Key Identifier: 
                keyid:63:AD:FD:87:AC:66:E3:F8:AC:0F:36:2F:BF:65:E1:31:DD:53:EA:3D
                DirName:/CN=team242-net
                serial:72:16:FD:E4:4B:FC:CB:16:00:25:A4:D9:2C:69:72:2F:17:E8:CA:F5
            X509v3 Extended Key Usage: 
                TLS Web Client Authentication
            X509v3 Key Usage: 
                Digital Signature
    Signature Algorithm: sha256WithRSAEncryption
    Signature Value:
        53:ca:45:3a:48:ee:15:87:15:49:ee:94:47:34:f9:97:73:43:
        eb:95:4c:9c:80:3c:e5:ac:cf:d8:4d:cf:c5:9f:b7:cd:9d:ae:
        59:f5:f2:03:24:1e:a0:78:46:fb:8d:36:2a:1e:23:d7:ea:d8:
        e4:cb:86:36:46:90:c9:03:9c:c6:98:66:4a:2c:6a:5d:62:fe:
        d3:29:4a:84:ed:da:88:3d:f3:80:0f:e2:18:d9:24:d6:79:79:
        b2:47:4a:28:d3:11:e9:33:95:5c:00:ee:e9:85:76:67:3b:6d:
        07:25:d1:1f:41:1f:f6:d3:79:2c:ac:bb:23:cf:42:3b:61:18:
        a0:50:50:74:8b:10:2f:80:63:26:9e:9b:10:15:a7:c1:b0:c8:
        14:20:01:b1:63:9c:ec:6a:d6:fa:c1:b1:1b:b0:90:32:97:9a:
        8a:3c:71:d0:90:45:c3:f7:e5:b2:b3:29:84:43:77:3c:b8:df:
        51:c3:bc:8a:cc:f4:91:be:99:53:39:94:f4:1a:0b:aa:81:48:
        f9:8c:48:d8:6c:49:c4:27:20:5d:d5:9e:1c:92:ad:af:a5:81:
        f2:11:50:d4:46:6d:da:21:d9:da:e8:00:7e:e8:50:c5:98:00:
        0e:64:8e:30:51:1a:c1:36:35:92:32:4e:90:0a:be:9f:f3:39:
        3d:60:7b:67
-----BEGIN CERTIFICATE-----
MIIDXDCCAkSgAwIBAgIQAtdJkTee7GA4K0iY0vcmPDANBgkqhkiG9w0BAQsFADAW
MRQwEgYDVQQDDAt0ZWFtMjQyLW5ldDAeFw0yMzExMDQxMDQ1MTBaFw0yNjEwMTkx
MDQ1MTBaMBkxFzAVBgNVBAMMDnRlYW0yNDItY2xpZW50MIIBIjANBgkqhkiG9w0B
AQEFAAOCAQ8AMIIBCgKCAQEAyGwk1h/kMRWNEBftG/J6eCLgh7PkhuYokBvtBNTT
i5a+awM4pt6JtUfQS3xxfehh3o1ubQKEQgX03uaVCBYVgXPhubZHt4Ggo/VwPSkL
729D8UIa/RnJxXP9uqdwinp+UEf25Xiwdkmr1tmbjLpNGLZ1pECK/QfNKUKK9P3w
vR7ZGGVjx4QPtJ+9vbI47gsIipQna+rsV0AbW/inE22yyDWoMG+UmuzdjmIR/Kf3
N73flmh/QfwYoo/LmbFOo7kHQQzxv7eMhcopTM8Yhp1fBIPhZjF4A+KZoWxrxxRI
mRlW3gJxhjkqKsob4rmQoAq4nJtFCkB9d6Z3sqat4VMhaQIDAQABo4GiMIGfMAkG
A1UdEwQCMAAwHQYDVR0OBBYEFLj6Ka2Zg4dqDtqHrz5QbVxVsEZLMFEGA1UdIwRK
MEiAFGOt/YesZuP4rA82L79l4THdU+o9oRqkGDAWMRQwEgYDVQQDDAt0ZWFtMjQy
LW5ldIIUchb95Ev8yxYAJaTZLGlyLxfoyvUwEwYDVR0lBAwwCgYIKwYBBQUHAwIw
CwYDVR0PBAQDAgeAMA0GCSqGSIb3DQEBCwUAA4IBAQBTykU6SO4VhxVJ7pRHNPmX
c0PrlUycgDzlrM/YTc/Fn7fNna5Z9fIDJB6geEb7jTYqHiPX6tjky4Y2RpDJA5zG
mGZKLGpdYv7TKUqE7dqIPfOAD+IY2STWeXmyR0oo0xHpM5VcAO7phXZnO20HJdEf
QR/203ksrLsjz0I7YRigUFB0ixAvgGMmnpsQFafBsMgUIAGxY5zsatb6wbEbsJAy
l5qKPHHQkEXD9+WysymEQ3c8uN9Rw7yKzPSRvplTOZT0GguqgUj5jEjYbEnEJyBd
1Z4ckq2vpYHyEVDURm3aIdna6AB+6FDFmAAOZI4wURrBNjWSMk6QCr6f8zk9YHtn
-----END CERTIFICATE-----
