Certificate:
    Data:
        Version: 3 (0x2)
        Serial Number:
            5e:41:bb:2a:15:69:94:bf:78:eb:1f:5c:60:ab:ed:13
        Signature Algorithm: sha256WithRSAEncryption
        Issuer: CN=team242-net
        Validity
            Not Before: Nov  4 11:32:23 2023 GMT
            Not After : Oct 19 11:32:23 2026 GMT
        Subject: CN=team242-server
        Subject Public Key Info:
            Public Key Algorithm: rsaEncryption
                Public-Key: (2048 bit)
                Modulus:
                    00:b7:6d:a6:71:99:06:5a:53:9f:b3:30:ef:fd:e5:
                    c8:54:46:bb:16:1b:b2:fe:56:98:b3:d1:81:63:a7:
                    ea:c1:d2:97:d2:5a:6c:21:d3:69:c3:8c:3c:3f:e2:
                    74:5e:f3:fb:af:4d:50:46:75:2e:1b:fb:3e:9b:94:
                    99:dd:34:c5:a5:12:6e:8a:89:c5:36:6c:8f:a2:61:
                    44:10:7f:d0:d5:73:42:6e:19:d2:bf:8c:dc:d4:08:
                    14:19:7f:1b:d6:66:12:d8:8b:42:78:cb:6f:04:27:
                    6f:f5:5e:93:6b:ec:f6:17:4c:f7:63:f7:22:71:1f:
                    87:8c:46:0b:61:7f:1e:f1:ca:6c:52:eb:a8:9c:5a:
                    a4:f6:71:12:6a:ae:2c:73:06:05:ce:a8:45:98:f7:
                    48:b5:be:99:5e:bd:81:e2:71:6b:9a:f7:4d:f9:3d:
                    44:57:d2:6f:f0:b7:8a:47:7c:8e:61:ca:84:a6:2f:
                    5e:c7:de:27:6e:ff:1b:b7:79:38:a5:ac:3e:dc:21:
                    59:e7:63:15:4a:19:58:2b:e7:4b:18:2f:98:8f:40:
                    df:fe:24:85:df:da:c8:51:d9:47:77:bf:e4:e7:79:
                    64:6e:dd:ed:0f:de:e9:04:f7:7c:7b:b3:69:26:39:
                    32:b2:f3:11:6b:79:43:01:4b:8b:82:c8:cc:9a:15:
                    cc:5d
                Exponent: 65537 (0x10001)
        X509v3 extensions:
            X509v3 Basic Constraints: 
                CA:FALSE
            X509v3 Subject Key Identifier: 
                A3:F1:D9:46:52:CE:9E:EA:C1:34:E9:11:D3:FD:4D:AF:05:85:05:CF
            X509v3 Authority Key Identifier: 
                keyid:EF:D5:F0:3A:14:CF:C2:90:21:63:DD:D4:E9:C4:72:2B:5C:66:81:1B
                DirName:/CN=team242-net
                serial:0D:BF:C4:F0:F1:40:CB:7B:DA:22:D8:DA:3D:6A:5A:41:45:56:49:8A
            X509v3 Extended Key Usage: 
                TLS Web Server Authentication
            X509v3 Key Usage: 
                Digital Signature, Key Encipherment
            X509v3 Subject Alternative Name: 
                DNS:team242-server
    Signature Algorithm: sha256WithRSAEncryption
    Signature Value:
        13:45:67:5a:e1:c7:ed:e5:e1:ee:bb:bd:4a:86:48:3c:76:5b:
        40:92:70:f5:41:fc:5c:ef:fe:d0:09:5d:09:e1:3d:15:18:c1:
        dc:01:5b:24:bc:0c:dd:c5:40:08:54:ca:61:e9:66:86:30:03:
        77:ce:a7:63:f8:7b:d8:68:db:b0:17:7a:6b:fc:36:86:4f:aa:
        ff:9a:94:d6:2c:1b:7e:82:ff:da:b2:7f:19:a7:89:23:ce:40:
        ed:18:ff:24:04:f7:a6:c0:81:65:80:54:2f:e8:fc:ea:8b:29:
        8b:7e:26:db:e2:5f:ad:dd:de:0a:bf:ea:d9:9b:11:1f:61:22:
        67:80:4a:c8:b4:22:fe:16:ec:08:97:35:2b:a9:8a:b4:42:a7:
        49:67:e3:d1:b8:98:3f:f6:5f:61:72:d8:17:7d:5c:59:29:92:
        5a:19:4e:5b:ee:6a:6c:b3:34:49:5f:5a:17:50:c0:e6:64:42:
        a3:47:04:14:d7:7e:60:bd:48:92:d9:01:5c:85:ee:3e:16:ce:
        8f:30:a3:75:24:ed:38:6c:0b:4c:92:04:a0:7c:c7:0e:18:e7:
        5b:67:e0:9e:ac:ad:88:d6:d1:a9:30:fa:00:2f:ca:c0:7c:52:
        c4:be:51:a0:b1:22:a5:99:a1:19:47:f6:28:c3:d2:8c:15:e2:
        2b:fd:fc:4c
-----BEGIN CERTIFICATE-----
MIIDdzCCAl+gAwIBAgIQXkG7KhVplL946x9cYKvtEzANBgkqhkiG9w0BAQsFADAW
MRQwEgYDVQQDDAt0ZWFtMjQyLW5ldDAeFw0yMzExMDQxMTMyMjNaFw0yNjEwMTkx
MTMyMjNaMBkxFzAVBgNVBAMMDnRlYW0yNDItc2VydmVyMIIBIjANBgkqhkiG9w0B
AQEFAAOCAQ8AMIIBCgKCAQEAt22mcZkGWlOfszDv/eXIVEa7Fhuy/laYs9GBY6fq
wdKX0lpsIdNpw4w8P+J0XvP7r01QRnUuG/s+m5SZ3TTFpRJuionFNmyPomFEEH/Q
1XNCbhnSv4zc1AgUGX8b1mYS2ItCeMtvBCdv9V6Ta+z2F0z3Y/cicR+HjEYLYX8e
8cpsUuuonFqk9nESaq4scwYFzqhFmPdItb6ZXr2B4nFrmvdN+T1EV9Jv8LeKR3yO
YcqEpi9ex94nbv8bt3k4paw+3CFZ52MVShlYK+dLGC+Yj0Df/iSF39rIUdlHd7/k
53lkbt3tD97pBPd8e7NpJjkysvMRa3lDAUuLgsjMmhXMXQIDAQABo4G9MIG6MAkG
A1UdEwQCMAAwHQYDVR0OBBYEFKPx2UZSzp7qwTTpEdP9Ta8FhQXPMFEGA1UdIwRK
MEiAFO/V8DoUz8KQIWPd1OnEcitcZoEboRqkGDAWMRQwEgYDVQQDDAt0ZWFtMjQy
LW5ldIIUDb/E8PFAy3vaItjaPWpaQUVWSYowEwYDVR0lBAwwCgYIKwYBBQUHAwEw
CwYDVR0PBAQDAgWgMBkGA1UdEQQSMBCCDnRlYW0yNDItc2VydmVyMA0GCSqGSIb3
DQEBCwUAA4IBAQATRWda4cft5eHuu71Khkg8dltAknD1Qfxc7/7QCV0J4T0VGMHc
AVskvAzdxUAIVMph6WaGMAN3zqdj+HvYaNuwF3pr/DaGT6r/mpTWLBt+gv/asn8Z
p4kjzkDtGP8kBPemwIFlgFQv6PzqiymLfibb4l+t3d4Kv+rZmxEfYSJngErItCL+
FuwIlzUrqYq0QqdJZ+PRuJg/9l9hctgXfVxZKZJaGU5b7mpsszRJX1oXUMDmZEKj
RwQU135gvUiS2QFche4+Fs6PMKN1JO04bAtMkgSgfMcOGOdbZ+CerK2I1tGpMPoA
L8rAfFLEvlGgsSKlmaEZR/Yow9KMFeIr/fxM
-----END CERTIFICATE-----
