Certificate:
    Data:
        Version: 3 (0x2)
        Serial Number:
            66:13:e8:8e:a0:00:e5:42:e9:2d:d2:f8:dd:75:22:07
        Signature Algorithm: sha256WithRSAEncryption
        Issuer: CN=team242-net
        Validity
            Not Before: Nov  4 10:45:10 2023 GMT
            Not After : Oct 19 10:45:10 2026 GMT
        Subject: CN=team242-server
        Subject Public Key Info:
            Public Key Algorithm: rsaEncryption
                Public-Key: (2048 bit)
                Modulus:
                    00:cc:c4:cb:8b:71:fb:05:10:8b:30:54:3d:7e:68:
                    9b:0f:18:10:b7:70:bb:b0:38:83:8e:98:06:a0:35:
                    87:90:6f:8c:cf:ea:24:00:18:0a:59:37:c5:98:70:
                    b7:72:f9:9f:3c:99:4b:d5:34:c9:88:00:3f:29:a1:
                    92:7b:c9:d2:c7:21:2a:58:5c:65:70:09:88:fd:84:
                    ef:7f:36:d8:1e:da:b3:d1:77:8a:16:95:ae:fc:2d:
                    74:18:44:80:13:37:51:bd:98:e1:f4:54:32:48:01:
                    6d:98:56:34:e0:19:08:01:97:28:91:c5:2c:cf:37:
                    30:a0:cd:87:b7:e9:2c:46:f6:75:ee:c6:26:f4:2c:
                    1e:ac:61:ce:25:72:5a:40:99:c4:71:cd:1f:e0:28:
                    12:70:ef:c5:d3:80:45:fe:24:07:bb:a5:6b:c6:50:
                    51:4c:de:52:99:2d:a6:fd:74:d7:55:f2:b1:e8:a3:
                    37:0f:35:b7:e2:44:a6:bd:df:f3:3e:b4:5c:28:db:
                    a4:be:cf:21:33:c1:1c:4b:bc:1c:54:69:a5:ed:0a:
                    3c:6f:e9:9c:e9:70:df:4f:1a:c6:46:2f:c3:f7:31:
                    c6:18:d4:c0:97:0f:12:3e:9b:ff:9c:14:67:56:f8:
                    e2:a6:77:25:01:d7:ea:0e:d7:93:8e:c1:50:f1:7b:
                    cb:8f
                Exponent: 65537 (0x10001)
        X509v3 extensions:
            X509v3 Basic Constraints: 
                CA:FALSE
            X509v3 Subject Key Identifier: 
                3E:AA:DB:E3:32:71:B3:5D:1F:63:7C:E5:00:18:0B:B1:7B:A4:C3:81
            X509v3 Authority Key Identifier: 
                keyid:63:AD:FD:87:AC:66:E3:F8:AC:0F:36:2F:BF:65:E1:31:DD:53:EA:3D
                DirName:/CN=team242-net
                serial:72:16:FD:E4:4B:FC:CB:16:00:25:A4:D9:2C:69:72:2F:17:E8:CA:F5
            X509v3 Extended Key Usage: 
                TLS Web Server Authentication
            X509v3 Key Usage: 
                Digital Signature, Key Encipherment
            X509v3 Subject Alternative Name: 
                DNS:team242-server
    Signature Algorithm: sha256WithRSAEncryption
    Signature Value:
        15:69:74:e7:2c:95:27:97:d6:55:36:aa:30:51:f1:e2:e5:8c:
        21:e4:d5:85:25:b5:95:5b:59:97:7c:21:b3:bf:a0:0b:3d:05:
        a1:c7:a3:a6:8a:87:92:3f:a3:af:28:03:2a:16:14:4d:29:f4:
        79:22:25:e8:ac:65:87:30:aa:5d:ba:37:a9:40:26:ee:a6:58:
        bc:28:a8:48:8f:c9:bf:97:01:f7:3a:ee:5b:ad:e9:a2:e7:46:
        d3:89:71:63:17:16:ec:1f:3f:2d:c3:2a:93:4b:2b:cf:b1:26:
        cd:59:58:c5:84:84:83:4e:d6:e9:ff:24:f4:58:bc:88:57:95:
        96:51:bd:4a:a5:38:4d:1d:70:95:b4:43:dd:ee:b2:1b:f4:d3:
        c0:9a:e6:5b:40:0b:99:c4:3c:b1:14:e8:c2:87:1e:a8:f5:03:
        ba:22:f9:e5:5f:b0:19:43:aa:1e:0b:48:5a:cc:89:4a:b7:ba:
        97:9c:10:72:96:10:8a:95:f1:e1:69:cf:8e:3c:05:2d:3f:86:
        6e:3d:76:c9:7d:ee:06:e4:00:5f:bf:ee:4b:41:36:fe:68:e3:
        55:b8:74:2b:10:b3:6f:7a:1c:40:0a:60:db:43:07:ab:3d:cd:
        be:e7:1f:2c:a8:33:eb:6d:3a:66:f9:2e:a9:e5:a7:01:84:ae:
        2a:26:7f:d0
-----BEGIN CERTIFICATE-----
MIIDdzCCAl+gAwIBAgIQZhPojqAA5ULpLdL43XUiBzANBgkqhkiG9w0BAQsFADAW
MRQwEgYDVQQDDAt0ZWFtMjQyLW5ldDAeFw0yMzExMDQxMDQ1MTBaFw0yNjEwMTkx
MDQ1MTBaMBkxFzAVBgNVBAMMDnRlYW0yNDItc2VydmVyMIIBIjANBgkqhkiG9w0B
AQEFAAOCAQ8AMIIBCgKCAQEAzMTLi3H7BRCLMFQ9fmibDxgQt3C7sDiDjpgGoDWH
kG+Mz+okABgKWTfFmHC3cvmfPJlL1TTJiAA/KaGSe8nSxyEqWFxlcAmI/YTvfzbY
Htqz0XeKFpWu/C10GESAEzdRvZjh9FQySAFtmFY04BkIAZcokcUszzcwoM2Ht+ks
RvZ17sYm9CwerGHOJXJaQJnEcc0f4CgScO/F04BF/iQHu6VrxlBRTN5SmS2m/XTX
VfKx6KM3DzW34kSmvd/zPrRcKNukvs8hM8EcS7wcVGml7Qo8b+mc6XDfTxrGRi/D
9zHGGNTAlw8SPpv/nBRnVvjipnclAdfqDteTjsFQ8XvLjwIDAQABo4G9MIG6MAkG
A1UdEwQCMAAwHQYDVR0OBBYEFD6q2+MycbNdH2N85QAYC7F7pMOBMFEGA1UdIwRK
MEiAFGOt/YesZuP4rA82L79l4THdU+o9oRqkGDAWMRQwEgYDVQQDDAt0ZWFtMjQy
LW5ldIIUchb95Ev8yxYAJaTZLGlyLxfoyvUwEwYDVR0lBAwwCgYIKwYBBQUHAwEw
CwYDVR0PBAQDAgWgMBkGA1UdEQQSMBCCDnRlYW0yNDItc2VydmVyMA0GCSqGSIb3
DQEBCwUAA4IBAQAVaXTnLJUnl9ZVNqowUfHi5Ywh5NWFJbWVW1mXfCGzv6ALPQWh
x6OmioeSP6OvKAMqFhRNKfR5IiXorGWHMKpdujepQCbupli8KKhIj8m/lwH3Ou5b
remi50bTiXFjFxbsHz8twyqTSyvPsSbNWVjFhISDTtbp/yT0WLyIV5WWUb1KpThN
HXCVtEPd7rIb9NPAmuZbQAuZxDyxFOjChx6o9QO6IvnlX7AZQ6oeC0hazIlKt7qX
nBBylhCKlfHhac+OPAUtP4ZuPXbJfe4G5ABfv+5LQTb+aONVuHQrELNvehxACmDb
QwerPc2+5x8sqDPrbTpm+S6p5acBhK4qJn/Q
-----END CERTIFICATE-----
