Certificate:
    Data:
        Version: 3 (0x2)
        Serial Number:
            0e:a0:f5:90:d8:5b:74:71:c6:27:01:a1:dd:81:b8:c3
        Signature Algorithm: sha256WithRSAEncryption
        Issuer: CN=team233-net
        Validity
            Not Before: Nov  4 11:32:10 2023 GMT
            Not After : Oct 19 11:32:10 2026 GMT
        Subject: CN=team233-client
        Subject Public Key Info:
            Public Key Algorithm: rsaEncryption
                Public-Key: (2048 bit)
                Modulus:
                    00:d0:0e:47:23:a3:e0:5a:12:cc:e1:a4:fc:e6:c5:
                    83:c9:e4:3e:56:e6:e8:c9:55:6b:00:6f:b0:63:5d:
                    57:9d:15:d9:41:d1:d0:86:86:39:33:7b:b2:84:6d:
                    62:34:0a:e7:a2:8f:5a:8c:c0:7c:7c:6a:00:89:ea:
                    b5:3a:75:ad:a6:b7:d7:47:5a:10:e8:e5:67:2f:72:
                    1d:33:c8:df:13:3f:17:e5:5e:a0:3b:75:9e:97:1a:
                    5b:aa:81:7d:3d:39:d4:00:bb:24:13:45:74:8b:f5:
                    37:4d:c8:19:d3:3c:43:67:a0:6b:d8:c4:2a:90:9a:
                    0b:e0:b5:eb:51:e6:9e:10:39:69:78:cf:ef:b5:f9:
                    57:ea:ca:40:52:00:b2:cd:4d:b2:2d:31:13:dc:d8:
                    83:d8:64:a3:6b:b1:df:2f:d5:02:0d:2f:35:48:dd:
                    48:2b:41:d2:d5:30:9c:ac:d6:83:5f:e3:b4:22:07:
                    ae:60:12:0f:9b:fb:74:b5:38:d2:38:65:14:47:7f:
                    d9:70:95:ee:af:40:ba:2d:07:45:0e:a2:83:4a:06:
                    9a:dd:b5:84:6c:d4:61:f6:84:6c:97:59:6c:a3:f6:
                    0a:f9:4d:89:f7:2e:4f:8d:18:f8:cb:6d:6b:2d:9b:
                    6a:ce:13:ef:9c:97:0a:5d:3b:ce:3d:d7:de:ef:1e:
                    f6:9b
                Exponent: 65537 (0x10001)
        X509v3 extensions:
            X509v3 Basic Constraints: 
                CA:FALSE
            X509v3 Subject Key Identifier: 
                EA:1A:57:DD:00:4A:27:A6:12:A9:AC:28:7E:18:5B:45:5C:7E:C5:F8
            X509v3 Authority Key Identifier: 
                keyid:EF:A6:1D:1B:63:F8:50:EB:94:ED:5F:05:CB:17:15:AA:6C:DE:B0:E6
                DirName:/CN=team233-net
                serial:4A:46:E8:E4:30:30:A6:51:85:6D:F0:3D:D3:9A:96:63:19:78:C3:F3
            X509v3 Extended Key Usage: 
                TLS Web Client Authentication
            X509v3 Key Usage: 
                Digital Signature
    Signature Algorithm: sha256WithRSAEncryption
    Signature Value:
        a1:7e:d0:26:3d:86:05:cb:0b:1d:ff:c3:3b:5d:99:e5:91:2b:
        4b:7c:11:48:97:40:32:c4:44:f6:af:dc:5e:df:9f:0b:75:f6:
        b9:6e:09:f2:7d:67:d0:9c:54:41:41:6b:ec:4c:d8:20:79:02:
        6d:6b:6f:35:d9:dd:7d:08:f6:bd:c7:0d:a6:3e:b9:11:02:01:
        da:11:b2:46:60:1a:6d:1f:30:30:0e:e7:49:6a:28:1d:08:be:
        c4:ea:04:c8:c7:49:76:62:b9:9b:3e:7f:d0:3d:47:a8:87:54:
        1d:02:44:5b:60:10:e9:00:24:81:96:8c:6b:44:89:37:51:89:
        0b:0c:d5:64:d7:68:f8:14:ad:b9:e7:7f:7c:ce:b7:52:a2:40:
        46:9b:1c:d7:84:83:0a:20:25:91:66:25:58:82:dd:ac:a1:bd:
        1e:3f:3b:ab:06:ee:cd:23:26:d5:02:53:ed:c9:8c:02:c2:3d:
        ac:79:cf:6c:ea:f9:d7:25:70:9d:37:b2:7c:4f:70:e7:8b:ee:
        ab:9e:a6:dc:6d:2c:b4:ef:b7:3e:97:3e:20:db:74:09:6a:e5:
        cb:f6:74:ae:11:43:c0:8f:42:de:1d:3f:48:eb:b6:d9:c4:50:
        24:4f:0e:23:d4:ae:d1:35:dd:d8:6c:b2:6b:ff:c8:a0:fc:2c:
        82:d5:0a:89
-----BEGIN CERTIFICATE-----
MIIDXDCCAkSgAwIBAgIQDqD1kNhbdHHGJwGh3YG4wzANBgkqhkiG9w0BAQsFADAW
MRQwEgYDVQQDDAt0ZWFtMjMzLW5ldDAeFw0yMzExMDQxMTMyMTBaFw0yNjEwMTkx
MTMyMTBaMBkxFzAVBgNVBAMMDnRlYW0yMzMtY2xpZW50MIIBIjANBgkqhkiG9w0B
AQEFAAOCAQ8AMIIBCgKCAQEA0A5HI6PgWhLM4aT85sWDyeQ+VuboyVVrAG+wY11X
nRXZQdHQhoY5M3uyhG1iNArnoo9ajMB8fGoAieq1OnWtprfXR1oQ6OVnL3IdM8jf
Ez8X5V6gO3WelxpbqoF9PTnUALskE0V0i/U3TcgZ0zxDZ6Br2MQqkJoL4LXrUeae
EDlpeM/vtflX6spAUgCyzU2yLTET3NiD2GSja7HfL9UCDS81SN1IK0HS1TCcrNaD
X+O0IgeuYBIPm/t0tTjSOGUUR3/ZcJXur0C6LQdFDqKDSgaa3bWEbNRh9oRsl1ls
o/YK+U2J9y5PjRj4y21rLZtqzhPvnJcKXTvOPdfe7x72mwIDAQABo4GiMIGfMAkG
A1UdEwQCMAAwHQYDVR0OBBYEFOoaV90ASiemEqmsKH4YW0VcfsX4MFEGA1UdIwRK
MEiAFO+mHRtj+FDrlO1fBcsXFaps3rDmoRqkGDAWMRQwEgYDVQQDDAt0ZWFtMjMz
LW5ldIIUSkbo5DAwplGFbfA905qWYxl4w/MwEwYDVR0lBAwwCgYIKwYBBQUHAwIw
CwYDVR0PBAQDAgeAMA0GCSqGSIb3DQEBCwUAA4IBAQChftAmPYYFywsd/8M7XZnl
kStLfBFIl0AyxET2r9xe358Ldfa5bgnyfWfQnFRBQWvsTNggeQJta2812d19CPa9
xw2mPrkRAgHaEbJGYBptHzAwDudJaigdCL7E6gTIx0l2YrmbPn/QPUeoh1QdAkRb
YBDpACSBloxrRIk3UYkLDNVk12j4FK255398zrdSokBGmxzXhIMKICWRZiVYgt2s
ob0ePzurBu7NIybVAlPtyYwCwj2sec9s6vnXJXCdN7J8T3Dni+6rnqbcbSy077c+
lz4g23QJauXL9nSuEUPAj0LeHT9I67bZxFAkTw4j1K7RNd3YbLJr/8ig/CyC1QqJ
-----END CERTIFICATE-----
