Certificate:
    Data:
        Version: 3 (0x2)
        Serial Number:
            42:be:86:74:94:32:ca:79:d0:12:f7:76:d2:a4:43:22
        Signature Algorithm: sha256WithRSAEncryption
        Issuer: CN=team233-net
        Validity
            Not Before: Nov  4 11:32:10 2023 GMT
            Not After : Oct 19 11:32:10 2026 GMT
        Subject: CN=team233-server
        Subject Public Key Info:
            Public Key Algorithm: rsaEncryption
                Public-Key: (2048 bit)
                Modulus:
                    00:b8:ca:7e:e8:dd:a8:12:73:96:16:63:95:9f:93:
                    1e:4d:e8:84:1c:fa:01:c7:6f:db:92:06:0a:80:fa:
                    63:59:36:cc:e8:f4:72:2e:df:83:98:49:44:85:e9:
                    cd:ab:5e:03:a6:2d:cb:22:3c:ba:23:24:d6:58:72:
                    86:11:db:a4:f3:30:39:a8:5e:e4:b9:56:d1:02:c8:
                    6b:82:0c:c4:2e:08:6e:57:cf:b1:7c:82:1c:ad:dc:
                    28:47:af:f0:62:7d:60:5d:a7:0d:9f:c9:8a:cb:2a:
                    90:cd:1e:78:8a:e2:b9:ac:3a:a4:b4:8e:0d:8a:89:
                    33:99:b8:fe:f4:7b:89:3a:32:89:77:3f:1b:8f:8e:
                    d9:f6:8a:9e:55:47:28:23:01:7d:48:c0:93:ec:0c:
                    47:ee:57:6e:f0:a1:6c:ec:95:60:6f:3a:a4:4b:26:
                    e4:99:25:5a:49:59:eb:f1:e8:d0:9e:86:eb:ea:13:
                    8e:be:9b:9d:2e:26:1f:46:54:6c:5f:69:e9:16:4e:
                    48:cb:8b:03:16:01:c7:09:99:4f:0b:7a:2b:b6:3d:
                    a1:8a:0d:26:5d:6c:f6:c7:29:83:da:34:0f:2c:66:
                    4c:f3:51:c1:2f:9f:bb:1e:81:63:28:71:b7:a3:f1:
                    ea:02:3b:8f:19:df:5f:29:1a:6c:ca:13:b1:55:09:
                    d3:5d
                Exponent: 65537 (0x10001)
        X509v3 extensions:
            X509v3 Basic Constraints: 
                CA:FALSE
            X509v3 Subject Key Identifier: 
                F8:AE:26:D4:69:35:78:66:4A:63:CF:4A:5F:7F:53:AC:50:BB:9C:C5
            X509v3 Authority Key Identifier: 
                keyid:EF:A6:1D:1B:63:F8:50:EB:94:ED:5F:05:CB:17:15:AA:6C:DE:B0:E6
                DirName:/CN=team233-net
                serial:4A:46:E8:E4:30:30:A6:51:85:6D:F0:3D:D3:9A:96:63:19:78:C3:F3
            X509v3 Extended Key Usage: 
                TLS Web Server Authentication
            X509v3 Key Usage: 
                Digital Signature, Key Encipherment
            X509v3 Subject Alternative Name: 
                DNS:team233-server
    Signature Algorithm: sha256WithRSAEncryption
    Signature Value:
        b1:7a:ea:86:37:8d:a2:c4:49:de:aa:76:86:86:53:2e:9f:39:
        7d:d9:3c:7d:10:97:c9:f2:bf:74:07:af:0b:6f:02:6b:ca:8b:
        05:7f:a2:ef:7f:77:b5:6e:3d:c1:b7:c7:34:32:42:4a:81:1c:
        b9:cc:d1:0e:eb:23:e9:72:bc:22:b4:f1:cd:ef:88:b8:06:bd:
        ea:0b:89:65:9d:d8:6e:a6:be:81:bc:1b:82:33:82:91:e1:53:
        03:c1:c6:3d:94:41:f5:b2:68:28:0c:c8:7f:99:7a:6c:fc:f8:
        89:f3:41:5c:07:84:f0:c9:8a:0a:15:0a:85:fa:09:d2:b5:00:
        a4:48:d9:00:75:df:db:02:3a:4c:59:cb:53:d1:06:e6:92:2b:
        72:fb:a1:18:21:7a:bd:42:4e:a9:87:9c:f5:34:2a:ea:e6:b4:
        93:b2:06:de:36:a7:81:bd:1c:9e:8c:f2:14:a5:cc:e1:ee:21:
        8b:ce:52:41:69:66:d3:95:01:51:f7:71:73:02:1e:fb:e6:9b:
        fb:33:33:6d:2f:bb:4b:47:bc:7a:40:7b:c4:ec:01:49:5b:d1:
        d9:82:27:09:5c:93:12:3d:0a:19:6f:74:62:d4:4f:82:e9:19:
        cf:49:3a:96:c7:04:a0:61:c5:23:82:31:f4:5b:62:fd:56:ce:
        54:d4:d1:66
-----BEGIN CERTIFICATE-----
MIIDdzCCAl+gAwIBAgIQQr6GdJQyynnQEvd20qRDIjANBgkqhkiG9w0BAQsFADAW
MRQwEgYDVQQDDAt0ZWFtMjMzLW5ldDAeFw0yMzExMDQxMTMyMTBaFw0yNjEwMTkx
MTMyMTBaMBkxFzAVBgNVBAMMDnRlYW0yMzMtc2VydmVyMIIBIjANBgkqhkiG9w0B
AQEFAAOCAQ8AMIIBCgKCAQEAuMp+6N2oEnOWFmOVn5MeTeiEHPoBx2/bkgYKgPpj
WTbM6PRyLt+DmElEhenNq14Dpi3LIjy6IyTWWHKGEduk8zA5qF7kuVbRAshrggzE
LghuV8+xfIIcrdwoR6/wYn1gXacNn8mKyyqQzR54iuK5rDqktI4Niokzmbj+9HuJ
OjKJdz8bj47Z9oqeVUcoIwF9SMCT7AxH7ldu8KFs7JVgbzqkSybkmSVaSVnr8ejQ
nobr6hOOvpudLiYfRlRsX2npFk5Iy4sDFgHHCZlPC3ortj2hig0mXWz2xymD2jQP
LGZM81HBL5+7HoFjKHG3o/HqAjuPGd9fKRpsyhOxVQnTXQIDAQABo4G9MIG6MAkG
A1UdEwQCMAAwHQYDVR0OBBYEFPiuJtRpNXhmSmPPSl9/U6xQu5zFMFEGA1UdIwRK
MEiAFO+mHRtj+FDrlO1fBcsXFaps3rDmoRqkGDAWMRQwEgYDVQQDDAt0ZWFtMjMz
LW5ldIIUSkbo5DAwplGFbfA905qWYxl4w/MwEwYDVR0lBAwwCgYIKwYBBQUHAwEw
CwYDVR0PBAQDAgWgMBkGA1UdEQQSMBCCDnRlYW0yMzMtc2VydmVyMA0GCSqGSIb3
DQEBCwUAA4IBAQCxeuqGN42ixEneqnaGhlMunzl92Tx9EJfJ8r90B68LbwJryosF
f6Lvf3e1bj3Bt8c0MkJKgRy5zNEO6yPpcrwitPHN74i4Br3qC4llndhupr6BvBuC
M4KR4VMDwcY9lEH1smgoDMh/mXps/PiJ80FcB4TwyYoKFQqF+gnStQCkSNkAdd/b
AjpMWctT0Qbmkity+6EYIXq9Qk6ph5z1NCrq5rSTsgbeNqeBvRyejPIUpczh7iGL
zlJBaWbTlQFR93FzAh775pv7MzNtL7tLR7x6QHvE7AFJW9HZgicJXJMSPQoZb3Ri
1E+C6RnPSTqWxwSgYcUjgjH0W2L9Vs5U1NFm
-----END CERTIFICATE-----
