Certificate:
    Data:
        Version: 3 (0x2)
        Serial Number:
            b1:6e:2d:82:ad:ed:f6:22:4a:b5:3b:cb:10:17:10:32
        Signature Algorithm: sha256WithRSAEncryption
        Issuer: CN=team233-net
        Validity
            Not Before: Nov  4 10:45:00 2023 GMT
            Not After : Oct 19 10:45:00 2026 GMT
        Subject: CN=team233-server
        Subject Public Key Info:
            Public Key Algorithm: rsaEncryption
                Public-Key: (2048 bit)
                Modulus:
                    00:9b:05:b5:02:e3:c6:8a:70:84:2b:84:ca:1c:fd:
                    04:0a:c7:b7:5f:d7:62:68:aa:83:4e:07:10:13:e1:
                    5c:4f:a7:c0:84:f1:1e:13:ec:8c:da:7c:e0:c9:b8:
                    b0:33:6c:81:ec:6b:b2:8d:eb:ba:67:44:a7:f9:20:
                    da:dd:1f:21:61:c4:ca:20:11:63:d6:91:63:dd:be:
                    fe:d8:4e:e7:3f:c3:b7:03:f9:39:ad:07:bb:18:91:
                    45:45:13:30:c8:88:92:39:35:4e:58:f2:d6:d6:77:
                    05:41:bc:2e:cc:cf:2e:dd:b1:46:37:bf:69:69:98:
                    0a:d8:87:99:21:47:4a:23:6b:65:3a:57:c2:dc:97:
                    ec:2c:17:99:be:55:48:83:33:19:e1:b0:86:6c:a7:
                    0c:56:5f:a7:f4:20:68:1e:00:d9:f1:4d:d6:44:67:
                    4b:7b:34:d5:f9:bf:af:d0:d2:8a:87:e8:23:cd:15:
                    ab:b0:79:9a:7e:79:22:80:9b:90:44:76:a4:b0:63:
                    5f:4f:8e:db:c7:67:ed:68:4a:f4:50:9a:c3:45:4a:
                    51:d2:11:38:79:d5:b4:7b:8a:10:3e:d1:5d:07:ee:
                    8f:e7:8b:03:b3:e2:0b:4e:36:2e:09:53:d1:41:b5:
                    69:04:88:18:6c:53:cc:ff:73:34:0e:33:b5:f1:13:
                    28:39
                Exponent: 65537 (0x10001)
        X509v3 extensions:
            X509v3 Basic Constraints: 
                CA:FALSE
            X509v3 Subject Key Identifier: 
                D2:E8:62:15:49:8B:27:F3:57:D7:9E:B4:5A:66:38:B0:B9:43:75:5C
            X509v3 Authority Key Identifier: 
                keyid:96:81:4A:6D:52:90:C6:9C:DC:08:89:42:DC:48:DC:C6:88:F8:8C:8F
                DirName:/CN=team233-net
                serial:28:F9:27:55:40:AF:3E:47:C6:A4:87:0A:17:D6:9D:8B:62:C3:C6:2C
            X509v3 Extended Key Usage: 
                TLS Web Server Authentication
            X509v3 Key Usage: 
                Digital Signature, Key Encipherment
            X509v3 Subject Alternative Name: 
                DNS:team233-server
    Signature Algorithm: sha256WithRSAEncryption
    Signature Value:
        50:a2:fb:84:e0:0e:d1:f8:50:11:9e:1a:93:c4:0a:e5:fe:23:
        64:4d:79:0a:bb:7d:36:da:7e:bd:af:90:bf:95:09:e3:fd:71:
        57:25:5a:e1:85:c4:60:b7:a9:3d:00:06:68:89:d7:f3:3f:68:
        6d:dc:67:3f:1e:2b:75:98:05:bc:37:f1:e5:37:cf:fe:ad:e1:
        20:66:a7:02:24:8d:dd:e8:b2:85:5a:df:73:f7:b2:b2:be:86:
        53:66:2b:b7:d0:db:ec:c7:d2:d8:e9:9d:06:4a:2c:30:13:31:
        58:db:4f:13:12:27:55:e6:72:9a:be:2c:68:e4:01:86:22:3b:
        b6:ac:74:37:6a:98:57:17:82:73:94:c2:9c:20:23:8a:82:6e:
        e3:ff:a9:22:7a:8d:64:05:c7:50:db:21:18:de:51:54:1c:6b:
        ad:29:6e:0f:44:7a:25:38:71:ad:37:10:c6:11:37:8e:7f:ba:
        c2:e7:4a:e8:f8:8a:70:af:34:02:2d:d3:c7:13:6a:75:48:74:
        ae:e1:41:d6:29:22:d4:39:a7:61:7a:1f:b3:27:3d:6f:e6:c0:
        4b:c1:78:d4:7b:21:75:51:42:f5:b0:c6:2e:6f:0e:42:43:fe:
        a1:e1:5a:a6:56:57:87:95:7f:a8:b9:62:5a:f2:6c:32:9c:46:
        f3:41:e5:a8
-----BEGIN CERTIFICATE-----
MIIDeDCCAmCgAwIBAgIRALFuLYKt7fYiSrU7yxAXEDIwDQYJKoZIhvcNAQELBQAw
FjEUMBIGA1UEAwwLdGVhbTIzMy1uZXQwHhcNMjMxMTA0MTA0NTAwWhcNMjYxMDE5
MTA0NTAwWjAZMRcwFQYDVQQDDA50ZWFtMjMzLXNlcnZlcjCCASIwDQYJKoZIhvcN
AQEBBQADggEPADCCAQoCggEBAJsFtQLjxopwhCuEyhz9BArHt1/XYmiqg04HEBPh
XE+nwITxHhPsjNp84Mm4sDNsgexrso3rumdEp/kg2t0fIWHEyiARY9aRY92+/thO
5z/DtwP5Oa0HuxiRRUUTMMiIkjk1Tljy1tZ3BUG8LszPLt2xRje/aWmYCtiHmSFH
SiNrZTpXwtyX7CwXmb5VSIMzGeGwhmynDFZfp/QgaB4A2fFN1kRnS3s01fm/r9DS
iofoI80Vq7B5mn55IoCbkER2pLBjX0+O28dn7WhK9FCaw0VKUdIROHnVtHuKED7R
XQfuj+eLA7PiC042LglT0UG1aQSIGGxTzP9zNA4ztfETKDkCAwEAAaOBvTCBujAJ
BgNVHRMEAjAAMB0GA1UdDgQWBBTS6GIVSYsn81fXnrRaZjiwuUN1XDBRBgNVHSME
SjBIgBSWgUptUpDGnNwIiULcSNzGiPiMj6EapBgwFjEUMBIGA1UEAwwLdGVhbTIz
My1uZXSCFCj5J1VArz5HxqSHChfWnYtiw8YsMBMGA1UdJQQMMAoGCCsGAQUFBwMB
MAsGA1UdDwQEAwIFoDAZBgNVHREEEjAQgg50ZWFtMjMzLXNlcnZlcjANBgkqhkiG
9w0BAQsFAAOCAQEAUKL7hOAO0fhQEZ4ak8QK5f4jZE15Crt9Ntp+va+Qv5UJ4/1x
VyVa4YXEYLepPQAGaInX8z9obdxnPx4rdZgFvDfx5TfP/q3hIGanAiSN3eiyhVrf
c/eysr6GU2Yrt9Db7MfS2OmdBkosMBMxWNtPExInVeZymr4saOQBhiI7tqx0N2qY
VxeCc5TCnCAjioJu4/+pInqNZAXHUNshGN5RVBxrrSluD0R6JThxrTcQxhE3jn+6
wudK6PiKcK80Ai3TxxNqdUh0ruFB1iki1DmnYXofsyc9b+bAS8F41HshdVFC9bDG
Lm8OQkP+oeFaplZXh5V/qLliWvJsMpxG80HlqA==
-----END CERTIFICATE-----
