Certificate:
    Data:
        Version: 3 (0x2)
        Serial Number:
            bb:fd:d1:ff:c2:3d:1d:67:c6:f0:33:d0:ec:23:71:b3
        Signature Algorithm: sha256WithRSAEncryption
        Issuer: CN=team233-net
        Validity
            Not Before: Nov  4 10:45:00 2023 GMT
            Not After : Oct 19 10:45:00 2026 GMT
        Subject: CN=team233-client
        Subject Public Key Info:
            Public Key Algorithm: rsaEncryption
                Public-Key: (2048 bit)
                Modulus:
                    00:a5:66:87:ed:3a:20:bd:ac:46:29:ea:32:0a:c2:
                    10:97:15:38:9a:5e:88:0a:ea:2c:5f:6c:b8:6e:14:
                    6a:f3:63:59:53:dd:3c:5e:79:d7:ff:42:7a:30:4f:
                    bc:df:fd:54:81:da:d8:f6:2a:c7:9e:3c:2f:4e:67:
                    c5:db:c1:01:17:0e:ac:e1:68:1d:bf:d4:27:1f:ec:
                    ef:9b:91:c4:80:45:d7:92:8c:5c:ed:18:68:bd:98:
                    46:9d:c8:ed:ff:cb:6d:0a:e3:31:33:ae:bf:8b:fe:
                    49:04:19:f1:f4:4f:d0:9e:7c:23:d6:cd:19:21:be:
                    08:13:dc:05:e1:ad:d0:83:bb:ef:94:3d:43:0d:15:
                    b8:c7:fb:fd:c7:e1:be:f9:41:4e:4f:02:4d:30:16:
                    b0:27:97:a5:5c:08:33:1b:6e:dc:b1:e5:0e:31:80:
                    d8:52:99:84:55:ba:14:25:f5:0e:b4:56:7a:14:09:
                    85:75:eb:b8:99:44:88:23:52:6f:da:e0:f6:5e:a4:
                    38:10:8f:22:e5:e7:89:5b:6a:23:0c:8a:db:8c:59:
                    4f:cd:65:35:e9:39:d4:cb:10:20:12:cc:11:be:f2:
                    bf:8c:fe:4e:45:cd:eb:28:04:05:f9:54:8e:8e:52:
                    d4:12:69:d7:5d:fe:2e:54:06:57:19:a4:09:9c:e7:
                    1d:1b
                Exponent: 65537 (0x10001)
        X509v3 extensions:
            X509v3 Basic Constraints: 
                CA:FALSE
            X509v3 Subject Key Identifier: 
                AC:94:76:56:14:3D:0C:4C:B6:83:F7:35:05:4D:BE:E1:47:F2:F8:29
            X509v3 Authority Key Identifier: 
                keyid:96:81:4A:6D:52:90:C6:9C:DC:08:89:42:DC:48:DC:C6:88:F8:8C:8F
                DirName:/CN=team233-net
                serial:28:F9:27:55:40:AF:3E:47:C6:A4:87:0A:17:D6:9D:8B:62:C3:C6:2C
            X509v3 Extended Key Usage: 
                TLS Web Client Authentication
            X509v3 Key Usage: 
                Digital Signature
    Signature Algorithm: sha256WithRSAEncryption
    Signature Value:
        9e:38:a0:10:bb:0e:d5:93:9d:aa:99:02:a8:d9:c5:0e:37:5c:
        af:1c:80:9a:fc:27:57:bc:cb:ca:66:c7:b1:4b:b5:e7:09:f0:
        aa:db:6c:d8:34:2e:cf:69:ca:f3:c1:48:05:e0:3c:2b:43:6b:
        dc:78:33:5d:5d:0d:ca:b5:da:eb:56:07:22:b8:c9:7a:83:0d:
        85:15:24:92:1d:0e:1c:52:0e:9b:ab:98:de:f3:e3:68:b0:ec:
        a9:04:89:76:47:e6:dd:89:ba:e4:61:dc:f6:6a:b5:21:f6:2e:
        dd:d6:c6:a3:8d:95:32:fc:fd:b7:f6:6e:99:ba:09:1b:41:8b:
        df:6e:6c:1a:54:a0:8c:0d:1e:5e:14:88:71:97:28:56:16:ed:
        8e:c6:b4:5e:f8:b6:3b:06:3c:7c:a8:5b:98:4f:c7:68:89:a3:
        a6:b8:9d:c3:f4:c5:6b:f8:b7:99:3a:61:e0:f1:dd:17:30:d0:
        bd:0c:78:ae:29:74:dc:4f:8c:94:75:06:79:b2:b9:b4:2c:11:
        3f:b6:8c:5b:81:f0:13:e4:c9:37:e7:04:af:0d:64:e5:23:35:
        9e:6d:d3:1d:1b:8e:e5:3b:1d:b0:11:8c:f0:05:ff:2e:94:b3:
        0d:db:a6:c8:36:6a:72:04:80:3b:14:8a:b3:87:89:d9:5c:e0:
        7d:bb:d4:82
-----BEGIN CERTIFICATE-----
MIIDXTCCAkWgAwIBAgIRALv90f/CPR1nxvAz0OwjcbMwDQYJKoZIhvcNAQELBQAw
FjEUMBIGA1UEAwwLdGVhbTIzMy1uZXQwHhcNMjMxMTA0MTA0NTAwWhcNMjYxMDE5
MTA0NTAwWjAZMRcwFQYDVQQDDA50ZWFtMjMzLWNsaWVudDCCASIwDQYJKoZIhvcN
AQEBBQADggEPADCCAQoCggEBAKVmh+06IL2sRinqMgrCEJcVOJpeiArqLF9suG4U
avNjWVPdPF551/9CejBPvN/9VIHa2PYqx548L05nxdvBARcOrOFoHb/UJx/s75uR
xIBF15KMXO0YaL2YRp3I7f/LbQrjMTOuv4v+SQQZ8fRP0J58I9bNGSG+CBPcBeGt
0IO775Q9Qw0VuMf7/cfhvvlBTk8CTTAWsCeXpVwIMxtu3LHlDjGA2FKZhFW6FCX1
DrRWehQJhXXruJlEiCNSb9rg9l6kOBCPIuXniVtqIwyK24xZT81lNek51MsQIBLM
Eb7yv4z+TkXN6ygEBflUjo5S1BJp113+LlQGVxmkCZznHRsCAwEAAaOBojCBnzAJ
BgNVHRMEAjAAMB0GA1UdDgQWBBSslHZWFD0MTLaD9zUFTb7hR/L4KTBRBgNVHSME
SjBIgBSWgUptUpDGnNwIiULcSNzGiPiMj6EapBgwFjEUMBIGA1UEAwwLdGVhbTIz
My1uZXSCFCj5J1VArz5HxqSHChfWnYtiw8YsMBMGA1UdJQQMMAoGCCsGAQUFBwMC
MAsGA1UdDwQEAwIHgDANBgkqhkiG9w0BAQsFAAOCAQEAnjigELsO1ZOdqpkCqNnF
DjdcrxyAmvwnV7zLymbHsUu15wnwqtts2DQuz2nK88FIBeA8K0Nr3HgzXV0NyrXa
61YHIrjJeoMNhRUkkh0OHFIOm6uY3vPjaLDsqQSJdkfm3Ym65GHc9mq1IfYu3dbG
o42VMvz9t/ZumboJG0GL325sGlSgjA0eXhSIcZcoVhbtjsa0Xvi2OwY8fKhbmE/H
aImjpridw/TFa/i3mTph4PHdFzDQvQx4ril03E+MlHUGebK5tCwRP7aMW4HwE+TJ
N+cErw1k5SM1nm3THRuO5TsdsBGM8AX/LpSzDdumyDZqcgSAOxSKs4eJ2VzgfbvU
gg==
-----END CERTIFICATE-----
