Certificate:
    Data:
        Version: 3 (0x2)
        Serial Number:
            0f:22:8b:8f:8c:23:ff:30:95:d8:29:db:6c:e9:cb:90
        Signature Algorithm: sha256WithRSAEncryption
        Issuer: CN=team162-net
        Validity
            Not Before: Nov  4 10:43:33 2023 GMT
            Not After : Oct 19 10:43:33 2026 GMT
        Subject: CN=team162-client
        Subject Public Key Info:
            Public Key Algorithm: rsaEncryption
                Public-Key: (2048 bit)
                Modulus:
                    00:9a:68:b0:b8:91:80:de:aa:f6:43:58:4e:a3:8b:
                    6d:ee:b7:cf:03:66:e8:18:c7:1f:66:76:2e:23:b7:
                    5d:f2:40:5f:41:0e:40:c3:d9:58:41:e1:7c:04:a6:
                    11:08:f8:26:a0:3f:71:59:a4:6e:9d:f4:0e:df:e6:
                    87:81:65:7a:68:a7:a8:bd:ef:c7:d4:71:0b:be:b5:
                    97:a4:28:96:52:d0:87:4f:93:d5:1e:21:e2:8a:df:
                    e3:bf:d5:b2:26:b1:7e:73:2d:6a:61:4f:66:b4:a6:
                    f6:1f:79:7c:f9:00:f6:0f:57:77:4f:e3:1f:35:3f:
                    e8:0c:40:6d:da:5f:d4:74:2d:72:55:83:f3:0a:85:
                    30:4a:90:d7:5e:31:cc:af:a6:28:b0:0c:31:b9:3e:
                    2d:8b:4d:38:25:57:e2:a3:67:c8:23:30:c2:43:df:
                    c6:78:bb:3e:4a:f2:20:a0:8a:5f:3b:34:26:30:65:
                    63:f8:90:9c:b9:54:80:79:e3:ff:8e:fc:64:a9:88:
                    95:b9:93:32:4b:0b:45:53:3a:b3:f1:fa:f7:6c:75:
                    8a:95:8b:7a:fd:c9:3f:27:8d:34:2b:11:f2:d2:65:
                    1b:7f:89:88:6b:d2:20:5a:ca:0f:dd:a4:11:cc:46:
                    e5:9b:64:6b:d9:b2:b5:89:ac:8b:76:4a:d3:d2:0a:
                    c7:d9
                Exponent: 65537 (0x10001)
        X509v3 extensions:
            X509v3 Basic Constraints: 
                CA:FALSE
            X509v3 Subject Key Identifier: 
                E6:02:8E:61:29:36:7F:C3:8D:D0:25:4E:27:86:5B:56:84:74:A1:16
            X509v3 Authority Key Identifier: 
                keyid:32:E2:5E:79:1D:49:56:32:FA:40:BA:C0:FA:14:C2:51:73:C3:93:31
                DirName:/CN=team162-net
                serial:65:0B:AE:20:D6:FE:E2:57:D8:D1:5A:7D:95:9B:DB:DA:BC:48:FD:3B
            X509v3 Extended Key Usage: 
                TLS Web Client Authentication
            X509v3 Key Usage: 
                Digital Signature
    Signature Algorithm: sha256WithRSAEncryption
    Signature Value:
        73:8a:ce:47:35:ca:60:d9:98:44:19:48:44:7a:11:63:94:a8:
        02:7e:58:ea:4b:d8:71:a8:60:65:7e:b3:f4:e2:1c:da:a8:00:
        83:fb:8c:05:e1:10:f8:e5:1c:f4:70:2a:72:ab:0f:c3:c3:11:
        f8:47:b1:e5:67:f7:7f:68:fb:26:e2:03:5c:1e:cf:da:ca:f0:
        1b:40:e0:12:d0:15:f8:7a:7d:01:67:dc:71:57:dd:bc:24:fb:
        59:fc:f6:75:a6:ee:d1:90:e8:91:41:7d:7f:42:6c:7f:96:4a:
        6a:6f:76:26:b1:72:89:c6:64:c7:1c:5d:06:0e:c1:f2:16:e1:
        77:66:22:c4:e8:85:1e:83:2f:11:3e:cc:af:3c:24:96:6c:a3:
        02:ec:71:98:c4:52:83:94:6b:bf:42:6b:f9:86:32:d8:22:b5:
        bb:37:20:b7:3c:95:0e:c9:06:77:84:c7:28:2d:6e:15:5f:e2:
        09:bf:49:16:d2:d0:1b:15:d8:08:11:c9:7d:45:42:3b:de:6d:
        3b:56:9e:31:9c:17:24:a8:af:e8:f2:3d:f0:37:88:89:19:10:
        d1:9b:a6:54:11:1b:be:c8:7e:0d:0c:d6:f6:0d:fb:7c:14:09:
        95:e0:ec:38:22:da:c2:0c:18:04:9a:a5:05:b7:66:f4:04:0b:
        78:c6:33:0d
-----BEGIN CERTIFICATE-----
MIIDXDCCAkSgAwIBAgIQDyKLj4wj/zCV2CnbbOnLkDANBgkqhkiG9w0BAQsFADAW
MRQwEgYDVQQDDAt0ZWFtMTYyLW5ldDAeFw0yMzExMDQxMDQzMzNaFw0yNjEwMTkx
MDQzMzNaMBkxFzAVBgNVBAMMDnRlYW0xNjItY2xpZW50MIIBIjANBgkqhkiG9w0B
AQEFAAOCAQ8AMIIBCgKCAQEAmmiwuJGA3qr2Q1hOo4tt7rfPA2boGMcfZnYuI7dd
8kBfQQ5Aw9lYQeF8BKYRCPgmoD9xWaRunfQO3+aHgWV6aKeove/H1HELvrWXpCiW
UtCHT5PVHiHiit/jv9WyJrF+cy1qYU9mtKb2H3l8+QD2D1d3T+MfNT/oDEBt2l/U
dC1yVYPzCoUwSpDXXjHMr6YosAwxuT4ti004JVfio2fIIzDCQ9/GeLs+SvIgoIpf
OzQmMGVj+JCcuVSAeeP/jvxkqYiVuZMySwtFUzqz8fr3bHWKlYt6/ck/J400KxHy
0mUbf4mIa9IgWsoP3aQRzEblm2Rr2bK1iayLdkrT0grH2QIDAQABo4GiMIGfMAkG
A1UdEwQCMAAwHQYDVR0OBBYEFOYCjmEpNn/DjdAlTieGW1aEdKEWMFEGA1UdIwRK
MEiAFDLiXnkdSVYy+kC6wPoUwlFzw5MxoRqkGDAWMRQwEgYDVQQDDAt0ZWFtMTYy
LW5ldIIUZQuuINb+4lfY0Vp9lZvb2rxI/TswEwYDVR0lBAwwCgYIKwYBBQUHAwIw
CwYDVR0PBAQDAgeAMA0GCSqGSIb3DQEBCwUAA4IBAQBzis5HNcpg2ZhEGUhEehFj
lKgCfljqS9hxqGBlfrP04hzaqACD+4wF4RD45Rz0cCpyqw/DwxH4R7HlZ/d/aPsm
4gNcHs/ayvAbQOAS0BX4en0BZ9xxV928JPtZ/PZ1pu7RkOiRQX1/Qmx/lkpqb3Ym
sXKJxmTHHF0GDsHyFuF3ZiLE6IUegy8RPsyvPCSWbKMC7HGYxFKDlGu/Qmv5hjLY
IrW7NyC3PJUOyQZ3hMcoLW4VX+IJv0kW0tAbFdgIEcl9RUI73m07Vp4xnBckqK/o
8j3wN4iJGRDRm6ZUERu+yH4NDNb2Dft8FAmV4Ow4ItrCDBgEmqUFt2b0BAt4xjMN
-----END CERTIFICATE-----
