Certificate:
    Data:
        Version: 3 (0x2)
        Serial Number:
            1b:5d:e1:3d:9b:a9:f2:2b:88:c4:49:12:d3:58:f8:3e
        Signature Algorithm: sha256WithRSAEncryption
        Issuer: CN=team162-net
        Validity
            Not Before: Nov  4 11:30:48 2023 GMT
            Not After : Oct 19 11:30:48 2026 GMT
        Subject: CN=team162-client
        Subject Public Key Info:
            Public Key Algorithm: rsaEncryption
                Public-Key: (2048 bit)
                Modulus:
                    00:a5:84:d7:1c:90:4c:32:b7:3c:33:a0:36:1a:33:
                    81:89:3c:ca:5f:e5:e9:a3:dc:b0:03:d6:8e:6b:1b:
                    df:1d:23:16:2e:3e:c9:1d:bf:5a:b5:1b:bb:8b:32:
                    cd:7b:2d:8e:b8:15:2f:9c:bd:00:ce:38:7a:c4:ed:
                    95:81:ae:4d:15:1e:0c:1d:e2:1f:43:c0:7e:cc:18:
                    6e:1e:27:a7:3a:36:cf:3c:41:af:0f:a9:7a:6a:4d:
                    0f:98:52:5d:04:54:cf:97:c6:4d:8d:fa:74:19:4f:
                    e8:03:59:be:d2:06:a9:51:68:ed:91:80:46:cd:7f:
                    95:c6:50:39:68:83:f3:e8:56:6b:b8:ea:6e:8f:3e:
                    ca:7b:40:05:61:65:0a:d1:d8:2c:fa:9c:ce:9e:0a:
                    19:0e:5e:c4:8d:95:49:54:77:54:d7:22:8a:6e:b4:
                    83:62:18:62:07:6c:c3:bd:a7:c3:83:85:6e:65:d6:
                    34:9b:58:8f:ed:e9:48:4e:50:b2:2c:84:81:c3:27:
                    dd:5c:c5:e7:5c:a1:95:da:d6:3d:cb:4d:4a:6e:d7:
                    d6:e8:23:e0:b3:6d:03:4c:40:d3:67:54:9f:f1:40:
                    1d:9e:fd:16:e2:b6:15:17:3f:b1:c9:f1:4b:89:e5:
                    85:da:49:48:c5:a4:6f:d0:3b:f6:1a:27:0e:66:ba:
                    8a:05
                Exponent: 65537 (0x10001)
        X509v3 extensions:
            X509v3 Basic Constraints: 
                CA:FALSE
            X509v3 Subject Key Identifier: 
                47:E2:85:9F:6F:AD:0B:8C:60:7F:46:7C:45:5B:B1:25:55:2A:55:4D
            X509v3 Authority Key Identifier: 
                keyid:E2:A6:E6:7B:54:2E:97:41:FF:16:8D:F8:3F:37:CC:F3:66:2C:F4:90
                DirName:/CN=team162-net
                serial:2D:42:76:0B:B9:77:1B:C5:39:A0:08:2F:4F:81:88:EB:10:E1:5D:AB
            X509v3 Extended Key Usage: 
                TLS Web Client Authentication
            X509v3 Key Usage: 
                Digital Signature
    Signature Algorithm: sha256WithRSAEncryption
    Signature Value:
        04:d4:5f:de:bb:b4:2d:0e:a5:1b:b2:80:38:12:cb:7c:7f:0f:
        59:b4:c2:d2:39:ef:8f:db:60:92:f1:0a:55:6d:7f:32:67:9e:
        fe:88:62:03:78:9a:91:5d:d9:17:61:ad:1e:bd:b5:4e:d1:17:
        46:b7:8a:f1:dd:72:80:60:c9:36:d8:06:94:ea:e1:50:43:ac:
        dc:e7:83:31:6e:34:e5:0a:16:cf:6e:ed:38:f8:77:1d:17:76:
        54:4a:24:ba:60:6a:86:27:29:a3:a5:03:87:4b:75:4b:29:1b:
        9b:c1:ca:92:9a:95:5e:b2:3f:f0:5f:3a:77:0c:44:ff:25:84:
        1f:45:3c:8a:c7:73:7a:a5:7b:c1:3e:76:db:04:73:11:e3:55:
        72:19:c6:5e:74:56:20:12:71:65:f4:cb:01:ad:a0:e4:f6:a0:
        a3:86:84:cf:11:f9:2e:36:92:7b:9b:84:11:6f:5b:9e:f5:3a:
        ee:2e:8c:43:7f:7e:6a:38:45:99:01:8f:0f:6d:20:10:34:77:
        bb:c4:2c:0f:37:62:33:1c:8e:28:1d:9b:58:34:d7:d9:f2:42:
        69:2c:df:99:66:b7:bd:f1:f6:19:4c:e8:9d:f5:0a:a8:50:34:
        7a:9d:89:61:d2:b8:7d:99:48:a2:d1:8d:46:39:11:52:94:b6:
        7c:2b:cb:06
-----BEGIN CERTIFICATE-----
MIIDXDCCAkSgAwIBAgIQG13hPZup8iuIxEkS01j4PjANBgkqhkiG9w0BAQsFADAW
MRQwEgYDVQQDDAt0ZWFtMTYyLW5ldDAeFw0yMzExMDQxMTMwNDhaFw0yNjEwMTkx
MTMwNDhaMBkxFzAVBgNVBAMMDnRlYW0xNjItY2xpZW50MIIBIjANBgkqhkiG9w0B
AQEFAAOCAQ8AMIIBCgKCAQEApYTXHJBMMrc8M6A2GjOBiTzKX+Xpo9ywA9aOaxvf
HSMWLj7JHb9atRu7izLNey2OuBUvnL0Azjh6xO2Vga5NFR4MHeIfQ8B+zBhuHien
OjbPPEGvD6l6ak0PmFJdBFTPl8ZNjfp0GU/oA1m+0gapUWjtkYBGzX+VxlA5aIPz
6FZruOpujz7Ke0AFYWUK0dgs+pzOngoZDl7EjZVJVHdU1yKKbrSDYhhiB2zDvafD
g4VuZdY0m1iP7elITlCyLISBwyfdXMXnXKGV2tY9y01KbtfW6CPgs20DTEDTZ1Sf
8UAdnv0W4rYVFz+xyfFLieWF2klIxaRv0Dv2GicOZrqKBQIDAQABo4GiMIGfMAkG
A1UdEwQCMAAwHQYDVR0OBBYEFEfihZ9vrQuMYH9GfEVbsSVVKlVNMFEGA1UdIwRK
MEiAFOKm5ntULpdB/xaN+D83zPNmLPSQoRqkGDAWMRQwEgYDVQQDDAt0ZWFtMTYy
LW5ldIIULUJ2C7l3G8U5oAgvT4GI6xDhXaswEwYDVR0lBAwwCgYIKwYBBQUHAwIw
CwYDVR0PBAQDAgeAMA0GCSqGSIb3DQEBCwUAA4IBAQAE1F/eu7QtDqUbsoA4Est8
fw9ZtMLSOe+P22CS8QpVbX8yZ57+iGIDeJqRXdkXYa0evbVO0RdGt4rx3XKAYMk2
2AaU6uFQQ6zc54MxbjTlChbPbu04+HcdF3ZUSiS6YGqGJymjpQOHS3VLKRubwcqS
mpVesj/wXzp3DET/JYQfRTyKx3N6pXvBPnbbBHMR41VyGcZedFYgEnFl9MsBraDk
9qCjhoTPEfkuNpJ7m4QRb1ue9TruLoxDf35qOEWZAY8PbSAQNHe7xCwPN2IzHI4o
HZtYNNfZ8kJpLN+ZZre98fYZTOid9QqoUDR6nYlh0rh9mUii0Y1GORFSlLZ8K8sG
-----END CERTIFICATE-----
