Certificate:
    Data:
        Version: 3 (0x2)
        Serial Number:
            26:d1:9e:63:d9:14:e9:7f:79:13:6b:02:5e:0d:18:56
        Signature Algorithm: sha256WithRSAEncryption
        Issuer: CN=team162-net
        Validity
            Not Before: Nov  3 20:42:09 2023 GMT
            Not After : Oct 18 20:42:09 2026 GMT
        Subject: CN=team162-server
        Subject Public Key Info:
            Public Key Algorithm: rsaEncryption
                Public-Key: (2048 bit)
                Modulus:
                    00:d2:54:91:26:0e:cd:fc:25:9f:0e:95:46:bf:29:
                    8d:e6:58:d2:88:51:d4:17:b3:46:f2:87:01:91:a2:
                    1d:1c:63:13:da:36:fe:82:53:2f:50:2f:20:dd:27:
                    31:cb:4f:e8:2b:87:07:49:5e:97:5a:9a:c0:aa:49:
                    c7:4d:e3:cc:b6:a1:ad:a8:2e:5e:95:1d:71:e3:b5:
                    c0:c9:b0:dd:16:ed:af:40:77:c2:34:f0:6d:0d:e8:
                    49:06:3a:9d:5e:d8:89:7d:60:71:a7:0a:38:76:7e:
                    fe:f7:81:c9:6e:af:ce:9f:a9:db:39:8c:bb:a6:dc:
                    ff:e8:48:91:71:07:72:5f:8f:70:35:79:56:08:34:
                    ab:0d:62:05:bc:3a:bb:d2:cb:38:db:7d:64:46:1f:
                    aa:3c:72:71:fc:ea:43:84:34:c2:95:64:ff:64:d9:
                    38:ae:98:f5:93:c8:67:d6:07:d3:a4:9a:08:13:51:
                    0e:5c:d8:bd:cf:d9:d9:b6:bb:1f:d2:39:1d:26:e3:
                    34:3b:20:bc:6c:87:94:43:05:2e:dc:db:21:18:72:
                    ca:54:67:d0:ee:1e:41:63:0b:2c:57:f7:21:bd:53:
                    d3:38:92:9c:04:b3:0b:a3:44:27:12:28:e5:84:d0:
                    9c:e9:fd:31:c9:e9:59:cf:9c:b4:6e:ca:9e:19:3b:
                    75:bd
                Exponent: 65537 (0x10001)
        X509v3 extensions:
            X509v3 Basic Constraints: 
                CA:FALSE
            X509v3 Subject Key Identifier: 
                8E:2F:F3:AE:0F:BB:43:5E:82:1D:89:A9:FC:52:15:82:C3:83:85:00
            X509v3 Authority Key Identifier: 
                keyid:D0:E2:C7:35:41:28:63:3D:E3:A9:7B:6A:56:00:30:95:1C:D3:20:44
                DirName:/CN=team162-net
                serial:45:CD:40:9C:82:7C:66:85:CF:3E:BD:FB:44:88:48:C7:42:5B:B8:21
            X509v3 Extended Key Usage: 
                TLS Web Server Authentication
            X509v3 Key Usage: 
                Digital Signature, Key Encipherment
            X509v3 Subject Alternative Name: 
                DNS:team162-server
    Signature Algorithm: sha256WithRSAEncryption
    Signature Value:
        71:2f:71:e3:74:19:a4:2d:38:3c:c7:3f:dd:29:4e:38:ee:02:
        2d:10:8d:a5:55:86:f2:0d:1e:94:14:e6:84:4d:d7:a6:fa:f9:
        60:a8:ff:29:e8:b0:52:85:42:9f:ec:28:86:4e:79:af:89:52:
        f9:c5:d5:41:72:54:58:73:ea:04:05:81:52:f0:01:c6:2b:c9:
        a4:e9:d5:65:37:1b:50:21:25:7d:84:e3:76:f2:1e:ff:56:6a:
        b5:15:98:ef:da:2d:d9:67:6b:00:14:9b:92:ba:82:48:ca:b6:
        ea:5a:24:fe:ed:94:33:d9:3a:d0:7a:9d:35:d2:f2:82:6b:41:
        81:51:65:59:5a:6d:32:37:55:f1:04:07:9e:fc:34:ec:8d:66:
        2d:14:bb:92:f7:b0:11:93:a2:f7:39:5f:43:91:ac:e5:e3:36:
        2c:44:42:31:e7:d6:54:a4:03:c3:75:06:a6:19:37:14:7e:86:
        dc:29:41:b3:bb:d6:b1:2b:11:82:cc:cb:fe:77:bb:f1:da:1e:
        c0:c7:d2:d8:55:d3:86:79:08:05:a4:4f:fc:ed:88:e7:41:d7:
        fc:42:51:25:d0:07:fb:0b:c8:a3:62:81:71:ea:e0:d9:d8:79:
        df:72:c1:65:54:e5:2c:34:5d:8b:32:f5:09:a4:02:93:4c:90:
        a7:9e:28:5c
-----BEGIN CERTIFICATE-----
MIIDdzCCAl+gAwIBAgIQJtGeY9kU6X95E2sCXg0YVjANBgkqhkiG9w0BAQsFADAW
MRQwEgYDVQQDDAt0ZWFtMTYyLW5ldDAeFw0yMzExMDMyMDQyMDlaFw0yNjEwMTgy
MDQyMDlaMBkxFzAVBgNVBAMMDnRlYW0xNjItc2VydmVyMIIBIjANBgkqhkiG9w0B
AQEFAAOCAQ8AMIIBCgKCAQEA0lSRJg7N/CWfDpVGvymN5ljSiFHUF7NG8ocBkaId
HGMT2jb+glMvUC8g3Scxy0/oK4cHSV6XWprAqknHTePMtqGtqC5elR1x47XAybDd
Fu2vQHfCNPBtDehJBjqdXtiJfWBxpwo4dn7+94HJbq/On6nbOYy7ptz/6EiRcQdy
X49wNXlWCDSrDWIFvDq70ss4231kRh+qPHJx/OpDhDTClWT/ZNk4rpj1k8hn1gfT
pJoIE1EOXNi9z9nZtrsf0jkdJuM0OyC8bIeUQwUu3NshGHLKVGfQ7h5BYwssV/ch
vVPTOJKcBLMLo0QnEijlhNCc6f0xyelZz5y0bsqeGTt1vQIDAQABo4G9MIG6MAkG
A1UdEwQCMAAwHQYDVR0OBBYEFI4v864Pu0Negh2JqfxSFYLDg4UAMFEGA1UdIwRK
MEiAFNDixzVBKGM946l7alYAMJUc0yBEoRqkGDAWMRQwEgYDVQQDDAt0ZWFtMTYy
LW5ldIIURc1AnIJ8ZoXPPr37RIhIx0JbuCEwEwYDVR0lBAwwCgYIKwYBBQUHAwEw
CwYDVR0PBAQDAgWgMBkGA1UdEQQSMBCCDnRlYW0xNjItc2VydmVyMA0GCSqGSIb3
DQEBCwUAA4IBAQBxL3HjdBmkLTg8xz/dKU447gItEI2lVYbyDR6UFOaETdem+vlg
qP8p6LBShUKf7CiGTnmviVL5xdVBclRYc+oEBYFS8AHGK8mk6dVlNxtQISV9hON2
8h7/Vmq1FZjv2i3ZZ2sAFJuSuoJIyrbqWiT+7ZQz2TrQep010vKCa0GBUWVZWm0y
N1XxBAee/DTsjWYtFLuS97ARk6L3OV9Dkazl4zYsREIx59ZUpAPDdQamGTcUfobc
KUGzu9axKxGCzMv+d7vx2h7Ax9LYVdOGeQgFpE/87YjnQdf8QlEl0Af7C8ijYoFx
6uDZ2HnfcsFlVOUsNF2LMvUJpAKTTJCnnihc
-----END CERTIFICATE-----
