Certificate:
    Data:
        Version: 3 (0x2)
        Serial Number:
            41:79:0a:a3:41:45:9e:4c:c0:2f:3f:e4:aa:aa:e7:e6
        Signature Algorithm: sha256WithRSAEncryption
        Issuer: CN=team493-net
        Validity
            Not Before: Nov  3 20:48:17 2023 GMT
            Not After : Oct 18 20:48:17 2026 GMT
        Subject: CN=team493-server
        Subject Public Key Info:
            Public Key Algorithm: rsaEncryption
                Public-Key: (2048 bit)
                Modulus:
                    00:bb:e7:f3:3b:e5:67:6a:ce:0c:c7:79:0c:a1:6c:
                    71:d9:45:33:3a:69:b4:30:82:78:98:46:a5:77:34:
                    00:31:8a:86:ea:1b:c4:55:a4:fd:c4:5c:9c:7e:ee:
                    65:1a:8c:31:43:e7:28:67:59:bb:d9:54:47:22:46:
                    35:cb:47:03:45:b4:7b:b9:c8:4a:f4:df:66:f9:46:
                    dc:ab:b1:4c:1f:9e:89:18:ed:96:37:37:c5:10:d3:
                    14:84:4e:7e:d6:90:b5:2a:be:8a:a9:98:ae:92:5e:
                    1b:b2:62:8e:94:dc:c0:17:0f:c2:dd:fc:76:06:dd:
                    89:75:6f:8c:e0:cb:7c:4e:1e:a1:89:34:e4:b2:b4:
                    0d:f1:b5:b3:60:ac:18:50:00:86:53:80:29:c2:5f:
                    2f:e1:9f:11:06:ca:41:bf:c3:87:2b:a4:16:28:f7:
                    a4:5b:af:09:76:a5:bb:e7:78:62:15:6c:58:52:dd:
                    a7:a2:7b:5e:c4:93:88:2b:9f:89:fc:9e:e1:82:21:
                    e4:43:3b:b0:4c:21:1f:03:c4:4c:2e:d9:c7:c1:be:
                    28:09:c8:d3:11:cd:38:79:19:61:bd:eb:56:61:85:
                    3b:18:de:c7:9f:a0:ca:a0:70:fa:93:2e:b1:53:d9:
                    b7:a0:3b:34:60:4e:a0:b9:17:28:95:c2:28:17:2b:
                    74:1d
                Exponent: 65537 (0x10001)
        X509v3 extensions:
            X509v3 Basic Constraints: 
                CA:FALSE
            X509v3 Subject Key Identifier: 
                FE:BB:C0:C5:BB:87:B2:5C:7B:7D:BC:DF:19:C8:05:50:A9:9F:F2:08
            X509v3 Authority Key Identifier: 
                keyid:89:66:5F:B6:CB:5F:7B:B2:FB:8E:19:7B:31:BC:12:1B:EF:CF:18:9C
                DirName:/CN=team493-net
                serial:72:2F:B3:47:38:8E:8C:E0:D1:91:07:CA:9C:51:58:BC:6B:A9:B1:BF
            X509v3 Extended Key Usage: 
                TLS Web Server Authentication
            X509v3 Key Usage: 
                Digital Signature, Key Encipherment
            X509v3 Subject Alternative Name: 
                DNS:team493-server
    Signature Algorithm: sha256WithRSAEncryption
    Signature Value:
        0f:da:eb:fa:49:fd:9a:bd:f6:86:b3:62:84:dd:fc:2d:47:75:
        d0:96:f1:a6:57:ad:29:87:9d:94:04:7a:e2:66:10:c9:0c:f2:
        a8:e0:50:a0:15:66:da:06:dd:bc:d1:71:55:c8:34:7f:ff:5b:
        47:15:7a:7a:4c:79:84:b3:a8:41:1c:00:89:49:00:b4:a1:86:
        83:f9:ef:c0:17:0e:46:1a:4b:d9:a6:ef:52:04:80:58:83:45:
        6f:3a:f1:42:60:f6:29:6e:e0:04:f9:a9:cb:1f:f1:80:c8:a9:
        51:7d:f7:05:7d:69:8c:b6:3a:d4:01:e0:ec:8a:77:01:8c:6f:
        1c:be:ae:10:53:3f:7b:0a:b0:59:94:db:a8:57:2b:d8:13:65:
        b3:d7:95:16:fb:be:9e:44:82:1f:9f:1e:cc:78:a6:2a:62:4d:
        22:21:e7:d5:af:01:54:2e:2b:09:e2:33:d4:8c:00:65:aa:22:
        f6:c3:47:5b:2f:9a:df:13:40:33:7d:a0:f4:c7:b4:09:9e:06:
        3d:2a:e1:87:f3:4f:62:ae:62:51:5f:ba:67:17:5f:be:0e:aa:
        96:0d:70:8f:d1:a9:f6:14:c1:a3:8b:98:8f:a5:b1:76:43:b8:
        f9:2c:da:02:20:c7:47:24:bd:7b:18:0b:53:24:16:b6:91:d8:
        51:96:b7:da
-----BEGIN CERTIFICATE-----
MIIDdzCCAl+gAwIBAgIQQXkKo0FFnkzALz/kqqrn5jANBgkqhkiG9w0BAQsFADAW
MRQwEgYDVQQDDAt0ZWFtNDkzLW5ldDAeFw0yMzExMDMyMDQ4MTdaFw0yNjEwMTgy
MDQ4MTdaMBkxFzAVBgNVBAMMDnRlYW00OTMtc2VydmVyMIIBIjANBgkqhkiG9w0B
AQEFAAOCAQ8AMIIBCgKCAQEAu+fzO+Vnas4Mx3kMoWxx2UUzOmm0MIJ4mEaldzQA
MYqG6hvEVaT9xFycfu5lGowxQ+coZ1m72VRHIkY1y0cDRbR7uchK9N9m+Ubcq7FM
H56JGO2WNzfFENMUhE5+1pC1Kr6KqZiukl4bsmKOlNzAFw/C3fx2Bt2JdW+M4Mt8
Th6hiTTksrQN8bWzYKwYUACGU4Apwl8v4Z8RBspBv8OHK6QWKPekW68JdqW753hi
FWxYUt2nontexJOIK5+J/J7hgiHkQzuwTCEfA8RMLtnHwb4oCcjTEc04eRlhvetW
YYU7GN7Hn6DKoHD6ky6xU9m3oDs0YE6guRcolcIoFyt0HQIDAQABo4G9MIG6MAkG
A1UdEwQCMAAwHQYDVR0OBBYEFP67wMW7h7Jce3283xnIBVCpn/IIMFEGA1UdIwRK
MEiAFIlmX7bLX3uy+44ZezG8EhvvzxicoRqkGDAWMRQwEgYDVQQDDAt0ZWFtNDkz
LW5ldIIUci+zRziOjODRkQfKnFFYvGupsb8wEwYDVR0lBAwwCgYIKwYBBQUHAwEw
CwYDVR0PBAQDAgWgMBkGA1UdEQQSMBCCDnRlYW00OTMtc2VydmVyMA0GCSqGSIb3
DQEBCwUAA4IBAQAP2uv6Sf2avfaGs2KE3fwtR3XQlvGmV60ph52UBHriZhDJDPKo
4FCgFWbaBt280XFVyDR//1tHFXp6THmEs6hBHACJSQC0oYaD+e/AFw5GGkvZpu9S
BIBYg0VvOvFCYPYpbuAE+anLH/GAyKlRffcFfWmMtjrUAeDsincBjG8cvq4QUz97
CrBZlNuoVyvYE2Wz15UW+76eRIIfnx7MeKYqYk0iIefVrwFULisJ4jPUjABlqiL2
w0dbL5rfE0AzfaD0x7QJngY9KuGH809irmJRX7pnF1++DqqWDXCP0an2FMGji5iP
pbF2Q7j5LNoCIMdHJL17GAtTJBa2kdhRlrfa
-----END CERTIFICATE-----
