Certificate:
    Data:
        Version: 3 (0x2)
        Serial Number:
            7b:6f:c8:29:7d:0e:c3:c6:22:5d:19:86:bb:0e:42:71
        Signature Algorithm: sha256WithRSAEncryption
        Issuer: CN=team493-net
        Validity
            Not Before: Nov  4 11:38:46 2023 GMT
            Not After : Oct 19 11:38:46 2026 GMT
        Subject: CN=team493-client
        Subject Public Key Info:
            Public Key Algorithm: rsaEncryption
                Public-Key: (2048 bit)
                Modulus:
                    00:de:57:2b:e7:a5:20:8b:ac:4c:d4:1c:94:cc:cf:
                    84:32:8e:7e:9b:c3:1a:6d:59:62:4b:bb:47:d5:c7:
                    8b:ca:cd:7d:37:ab:2d:8f:69:08:ca:d2:fa:df:9d:
                    05:7b:11:de:04:75:f4:ae:f0:0a:c2:64:81:32:22:
                    33:ae:a5:ae:0e:a9:29:cb:af:6d:d6:da:91:41:d9:
                    53:51:9c:77:06:ed:53:97:d7:bd:17:e1:8c:aa:58:
                    13:21:36:dd:2d:cc:e8:a7:a7:03:83:d1:31:75:5c:
                    2a:1f:c8:94:47:3d:25:13:de:75:48:34:55:0b:e1:
                    02:ff:bb:e1:7d:da:ef:13:c1:0b:d3:47:ab:c6:a9:
                    54:50:bf:15:52:c1:93:40:c2:8e:df:18:3c:45:82:
                    6e:be:de:84:a4:49:c8:53:cf:13:44:b5:a7:41:10:
                    01:d9:94:d8:68:c5:ac:91:4a:d5:bb:50:bd:43:58:
                    77:93:7b:28:d8:32:1b:5b:77:4d:46:dc:66:24:d4:
                    58:a3:4e:2c:f4:7d:68:ab:1f:f7:cd:54:a5:ad:25:
                    b7:6c:92:39:aa:4f:79:a2:8e:c3:7a:fb:85:6c:c6:
                    b9:f0:1c:31:a9:d9:f5:9e:4f:7c:18:24:f9:2d:fb:
                    a8:ca:2d:c3:8d:42:72:69:6f:d3:ca:aa:d8:b4:ed:
                    34:1b
                Exponent: 65537 (0x10001)
        X509v3 extensions:
            X509v3 Basic Constraints: 
                CA:FALSE
            X509v3 Subject Key Identifier: 
                EA:E5:91:5F:62:AF:50:D9:A9:C9:E1:20:EB:F3:E7:AE:59:74:6C:7E
            X509v3 Authority Key Identifier: 
                keyid:90:58:07:50:F1:7C:55:3B:48:71:3D:E3:52:73:9B:25:AC:57:BC:C9
                DirName:/CN=team493-net
                serial:4E:51:E7:8A:FD:3E:4F:6E:FC:A0:52:87:07:E4:A7:D6:3D:51:CC:57
            X509v3 Extended Key Usage: 
                TLS Web Client Authentication
            X509v3 Key Usage: 
                Digital Signature
    Signature Algorithm: sha256WithRSAEncryption
    Signature Value:
        90:61:34:35:98:75:62:52:c2:86:6d:a5:e6:5d:9a:8a:a0:4c:
        d8:5a:b4:7f:5c:65:79:bc:f3:13:ac:e5:84:d0:a1:da:30:57:
        de:41:23:40:15:d5:bb:a2:69:26:19:ba:39:b5:fe:6f:9b:4f:
        b2:f0:83:49:37:ec:a5:b9:a1:62:5d:72:87:9e:49:ec:82:73:
        11:b7:2f:1e:a6:85:c0:80:b0:1c:e6:79:6a:06:84:45:24:22:
        d8:ff:56:53:a8:50:a5:2a:1f:00:c2:8f:72:59:9e:c0:ab:32:
        c3:f3:eb:35:8c:1d:55:ae:30:c2:b1:14:53:92:f2:83:e3:09:
        8c:20:01:7b:f3:a2:a1:ad:0c:42:9c:3c:9d:64:2d:66:e0:4f:
        0f:39:02:88:66:64:77:04:d9:88:ea:8c:7a:28:aa:2b:a6:76:
        cd:7b:42:79:cd:7c:62:aa:53:bc:c5:28:2d:a3:7f:6d:6b:51:
        8d:c4:b6:c0:38:6f:bf:da:43:51:bb:a8:3b:ac:18:09:bd:78:
        64:3f:5f:31:d8:13:30:92:6c:d6:e2:a0:0d:31:4b:b4:56:5b:
        6d:0b:99:c6:94:41:e6:b0:33:51:1a:01:f8:00:64:60:69:b7:
        90:94:7b:40:f2:61:93:da:a5:d1:33:97:78:d9:c5:1f:69:90:
        a7:8f:a3:f6
-----BEGIN CERTIFICATE-----
MIIDXDCCAkSgAwIBAgIQe2/IKX0Ow8YiXRmGuw5CcTANBgkqhkiG9w0BAQsFADAW
MRQwEgYDVQQDDAt0ZWFtNDkzLW5ldDAeFw0yMzExMDQxMTM4NDZaFw0yNjEwMTkx
MTM4NDZaMBkxFzAVBgNVBAMMDnRlYW00OTMtY2xpZW50MIIBIjANBgkqhkiG9w0B
AQEFAAOCAQ8AMIIBCgKCAQEA3lcr56Ugi6xM1ByUzM+EMo5+m8MabVliS7tH1ceL
ys19N6stj2kIytL6350FexHeBHX0rvAKwmSBMiIzrqWuDqkpy69t1tqRQdlTUZx3
Bu1Tl9e9F+GMqlgTITbdLczop6cDg9ExdVwqH8iURz0lE951SDRVC+EC/7vhfdrv
E8EL00erxqlUUL8VUsGTQMKO3xg8RYJuvt6EpEnIU88TRLWnQRAB2ZTYaMWskUrV
u1C9Q1h3k3so2DIbW3dNRtxmJNRYo04s9H1oqx/3zVSlrSW3bJI5qk95oo7DevuF
bMa58Bwxqdn1nk98GCT5Lfuoyi3DjUJyaW/TyqrYtO00GwIDAQABo4GiMIGfMAkG
A1UdEwQCMAAwHQYDVR0OBBYEFOrlkV9ir1DZqcnhIOvz565ZdGx+MFEGA1UdIwRK
MEiAFJBYB1DxfFU7SHE941JzmyWsV7zJoRqkGDAWMRQwEgYDVQQDDAt0ZWFtNDkz
LW5ldIIUTlHniv0+T278oFKHB+Sn1j1RzFcwEwYDVR0lBAwwCgYIKwYBBQUHAwIw
CwYDVR0PBAQDAgeAMA0GCSqGSIb3DQEBCwUAA4IBAQCQYTQ1mHViUsKGbaXmXZqK
oEzYWrR/XGV5vPMTrOWE0KHaMFfeQSNAFdW7omkmGbo5tf5vm0+y8INJN+yluaFi
XXKHnknsgnMRty8epoXAgLAc5nlqBoRFJCLY/1ZTqFClKh8Awo9yWZ7AqzLD8+s1
jB1VrjDCsRRTkvKD4wmMIAF786KhrQxCnDydZC1m4E8POQKIZmR3BNmI6ox6KKor
pnbNe0J5zXxiqlO8xSgto39ta1GNxLbAOG+/2kNRu6g7rBgJvXhkP18x2BMwkmzW
4qANMUu0VlttC5nGlEHmsDNRGgH4AGRgabeQlHtA8mGT2qXRM5d42cUfaZCnj6P2
-----END CERTIFICATE-----
