Certificate:
    Data:
        Version: 3 (0x2)
        Serial Number:
            7c:62:6e:6f:aa:e6:91:4f:cc:39:e9:68:a4:49:b6:d2
        Signature Algorithm: sha256WithRSAEncryption
        Issuer: CN=team493-net
        Validity
            Not Before: Nov  4 10:49:20 2023 GMT
            Not After : Oct 19 10:49:20 2026 GMT
        Subject: CN=team493-server
        Subject Public Key Info:
            Public Key Algorithm: rsaEncryption
                Public-Key: (2048 bit)
                Modulus:
                    00:9e:19:3e:0a:f7:3e:5a:78:a3:da:be:c2:a1:60:
                    55:e8:1d:bd:32:35:04:71:83:25:06:3a:16:5c:7e:
                    01:d9:e3:3d:47:bd:02:89:c0:7d:a1:0b:32:dc:10:
                    85:4e:6b:46:9b:80:77:f0:da:5a:28:9b:1f:e2:0e:
                    63:6b:78:08:25:9e:d5:bc:f7:a4:94:40:6c:03:e1:
                    5c:ed:87:c7:b6:01:f4:a4:86:5f:f1:39:c9:7c:98:
                    8f:de:2f:cd:f7:72:3d:98:7d:de:00:5d:6c:7e:77:
                    85:89:c1:89:b5:4f:4a:fc:5a:79:7e:98:e2:83:a9:
                    cc:74:2c:26:0f:9e:45:3c:ec:c2:97:ea:56:e3:05:
                    5c:82:93:05:68:19:ed:53:58:8f:fb:64:1f:cf:32:
                    8b:5f:5b:ec:c3:41:11:ab:19:5c:b5:6d:cc:9a:45:
                    e9:f0:a6:3c:00:07:de:90:ca:44:30:c5:28:c8:ea:
                    24:00:ac:85:e7:89:bc:5c:88:4a:49:5d:60:ef:d6:
                    e6:69:c8:ce:3b:3b:2c:d8:90:1e:36:6c:3c:9d:c3:
                    ae:0b:f3:a0:34:e9:ce:ee:21:e9:a1:4c:ce:72:8b:
                    c6:57:a9:8d:41:6f:20:0d:1d:e9:73:f2:00:e4:59:
                    83:4a:68:52:55:07:62:bb:e4:a7:99:15:23:0b:d0:
                    50:37
                Exponent: 65537 (0x10001)
        X509v3 extensions:
            X509v3 Basic Constraints: 
                CA:FALSE
            X509v3 Subject Key Identifier: 
                14:44:25:3E:25:7E:6C:52:30:DD:C2:41:E6:4E:58:6F:2E:FA:8E:AB
            X509v3 Authority Key Identifier: 
                keyid:CF:13:01:68:38:23:16:B3:D7:A9:85:8F:EA:FC:5D:81:E0:BB:84:AF
                DirName:/CN=team493-net
                serial:2E:4B:78:C0:C5:46:1A:B8:4E:9C:C0:7A:FA:B0:BD:57:D3:54:BF:F8
            X509v3 Extended Key Usage: 
                TLS Web Server Authentication
            X509v3 Key Usage: 
                Digital Signature, Key Encipherment
            X509v3 Subject Alternative Name: 
                DNS:team493-server
    Signature Algorithm: sha256WithRSAEncryption
    Signature Value:
        57:54:0f:22:f2:dc:45:d7:6b:0a:92:fa:55:ca:48:0f:b7:ce:
        f3:21:df:4c:ae:93:43:d1:be:42:83:96:96:d8:31:36:54:ca:
        46:5d:a1:c1:9b:e0:a8:7e:de:d4:71:97:de:da:5c:65:d0:b0:
        49:35:ce:42:46:d6:af:c2:c5:2c:78:6e:1d:f5:98:ac:f8:50:
        16:5d:98:df:dd:de:88:f0:be:38:99:5e:06:c9:68:8e:90:10:
        73:53:d7:2f:97:c2:44:17:50:52:af:8c:88:09:e8:ca:ba:1b:
        1f:23:5e:0a:92:a0:49:f6:07:1e:33:c2:fb:69:a1:95:10:8f:
        00:75:ac:44:0f:a9:e5:f8:51:14:9a:d4:b0:79:2a:71:de:b7:
        68:2b:a3:72:93:b6:ed:ec:9b:fb:f4:13:89:48:0a:5b:b3:34:
        4c:ba:5d:10:a8:56:94:56:c0:a0:12:41:db:ba:b4:97:d4:65:
        1a:75:84:d1:d0:40:a0:40:d4:55:e4:d5:9d:38:d6:64:90:ed:
        58:90:93:99:7c:1b:a1:2a:5a:6e:ee:1d:e7:90:af:9a:ad:63:
        29:22:66:37:9a:f1:7b:e4:85:69:90:93:00:f3:12:c5:a5:dd:
        2d:25:46:57:89:79:8c:c8:53:7c:be:d7:9f:13:13:87:ef:bd:
        ca:ab:fe:a2
-----BEGIN CERTIFICATE-----
MIIDdzCCAl+gAwIBAgIQfGJub6rmkU/MOelopEm20jANBgkqhkiG9w0BAQsFADAW
MRQwEgYDVQQDDAt0ZWFtNDkzLW5ldDAeFw0yMzExMDQxMDQ5MjBaFw0yNjEwMTkx
MDQ5MjBaMBkxFzAVBgNVBAMMDnRlYW00OTMtc2VydmVyMIIBIjANBgkqhkiG9w0B
AQEFAAOCAQ8AMIIBCgKCAQEAnhk+Cvc+Wnij2r7CoWBV6B29MjUEcYMlBjoWXH4B
2eM9R70CicB9oQsy3BCFTmtGm4B38NpaKJsf4g5ja3gIJZ7VvPeklEBsA+Fc7YfH
tgH0pIZf8TnJfJiP3i/N93I9mH3eAF1sfneFicGJtU9K/Fp5fpjig6nMdCwmD55F
POzCl+pW4wVcgpMFaBntU1iP+2QfzzKLX1vsw0ERqxlctW3MmkXp8KY8AAfekMpE
MMUoyOokAKyF54m8XIhKSV1g79bmacjOOzss2JAeNmw8ncOuC/OgNOnO7iHpoUzO
covGV6mNQW8gDR3pc/IA5FmDSmhSVQdiu+SnmRUjC9BQNwIDAQABo4G9MIG6MAkG
A1UdEwQCMAAwHQYDVR0OBBYEFBREJT4lfmxSMN3CQeZOWG8u+o6rMFEGA1UdIwRK
MEiAFM8TAWg4Ixaz16mFj+r8XYHgu4SvoRqkGDAWMRQwEgYDVQQDDAt0ZWFtNDkz
LW5ldIIULkt4wMVGGrhOnMB6+rC9V9NUv/gwEwYDVR0lBAwwCgYIKwYBBQUHAwEw
CwYDVR0PBAQDAgWgMBkGA1UdEQQSMBCCDnRlYW00OTMtc2VydmVyMA0GCSqGSIb3
DQEBCwUAA4IBAQBXVA8i8txF12sKkvpVykgPt87zId9MrpND0b5Cg5aW2DE2VMpG
XaHBm+Coft7UcZfe2lxl0LBJNc5CRtavwsUseG4d9Zis+FAWXZjf3d6I8L44mV4G
yWiOkBBzU9cvl8JEF1BSr4yICejKuhsfI14KkqBJ9gceM8L7aaGVEI8AdaxED6nl
+FEUmtSweSpx3rdoK6Nyk7bt7Jv79BOJSApbszRMul0QqFaUVsCgEkHburSX1GUa
dYTR0ECgQNRV5NWdONZkkO1YkJOZfBuhKlpu7h3nkK+arWMpImY3mvF75IVpkJMA
8xLFpd0tJUZXiXmMyFN8vtefExOH773Kq/6i
-----END CERTIFICATE-----
