Certificate:
    Data:
        Version: 3 (0x2)
        Serial Number:
            b8:b7:ae:b5:4a:af:15:9d:29:af:cb:80:06:85:fb:00
        Signature Algorithm: sha256WithRSAEncryption
        Issuer: CN=team493-net
        Validity
            Not Before: Nov  3 20:48:17 2023 GMT
            Not After : Oct 18 20:48:17 2026 GMT
        Subject: CN=team493-client
        Subject Public Key Info:
            Public Key Algorithm: rsaEncryption
                Public-Key: (2048 bit)
                Modulus:
                    00:83:ef:a3:0e:59:44:ef:db:31:81:10:1d:4f:be:
                    f8:72:46:23:e9:b3:eb:08:ef:f9:c8:86:89:51:61:
                    13:22:ea:af:8f:eb:04:eb:e5:18:04:b0:66:53:8e:
                    8a:ed:76:a7:6c:7e:4a:63:ad:83:91:07:d1:cb:e4:
                    84:2d:22:aa:71:b4:91:00:bd:33:f9:5f:3d:7f:8d:
                    8c:34:f4:67:f9:8d:fa:c6:ba:67:0c:3a:27:70:a2:
                    24:3a:41:3c:ba:1f:89:51:f1:14:1d:28:5b:37:13:
                    1d:42:15:d5:c3:c1:4d:6a:f7:6e:b2:c1:bf:6c:64:
                    fe:70:a9:6d:15:dc:cd:c5:e4:4d:7b:64:8e:72:51:
                    a1:c3:62:c7:3c:39:cf:80:15:5d:1e:23:e0:ef:23:
                    28:0a:3d:7a:3c:65:0f:92:ef:0f:e8:82:61:8b:65:
                    69:be:96:51:0a:bf:1c:0b:8b:70:8b:91:9d:b6:ce:
                    7d:8f:15:8c:da:be:d4:60:32:62:32:fb:5d:7b:f2:
                    c4:38:b4:6d:8f:0e:f4:ec:fb:95:31:90:42:3d:e3:
                    e4:d1:2b:49:0a:6d:c3:e5:96:06:3f:cd:cd:bf:86:
                    37:81:13:6b:c7:1f:e3:fe:58:09:26:7f:01:fc:e5:
                    7b:19:98:d5:ca:13:08:c5:ce:11:fd:48:e1:e0:0a:
                    c4:e9
                Exponent: 65537 (0x10001)
        X509v3 extensions:
            X509v3 Basic Constraints: 
                CA:FALSE
            X509v3 Subject Key Identifier: 
                B5:A1:FA:E2:01:9D:D8:8E:72:53:F3:51:4C:AD:80:0A:19:BF:9D:BE
            X509v3 Authority Key Identifier: 
                keyid:89:66:5F:B6:CB:5F:7B:B2:FB:8E:19:7B:31:BC:12:1B:EF:CF:18:9C
                DirName:/CN=team493-net
                serial:72:2F:B3:47:38:8E:8C:E0:D1:91:07:CA:9C:51:58:BC:6B:A9:B1:BF
            X509v3 Extended Key Usage: 
                TLS Web Client Authentication
            X509v3 Key Usage: 
                Digital Signature
    Signature Algorithm: sha256WithRSAEncryption
    Signature Value:
        0c:63:1f:91:3d:80:c3:95:04:2a:c4:72:36:95:6a:84:52:23:
        e0:44:db:ae:ba:5a:a7:4e:2f:e6:ff:bc:13:a8:f7:ab:b5:14:
        c2:38:67:ca:22:bf:7b:b5:6a:c3:d1:57:6b:99:1a:67:30:55:
        30:a7:61:c6:81:52:de:ed:12:64:05:1b:5a:88:6c:5b:bb:ed:
        0d:0e:a3:9a:98:4f:47:56:6d:bf:9c:bc:77:a6:2d:e3:b3:3e:
        cc:01:2a:3e:98:dc:f5:55:40:5e:ce:38:1d:09:29:5c:4f:e1:
        01:a8:b8:25:38:19:eb:b5:f5:7e:39:cb:16:ed:f4:90:4c:20:
        f2:73:37:2b:81:8a:a9:88:d3:61:79:63:48:97:88:8d:7e:5f:
        46:93:75:4f:fa:b3:90:de:ce:18:44:a6:87:aa:46:9a:ba:a9:
        66:7c:3f:ff:78:02:2e:48:6f:99:05:eb:af:f0:0f:90:22:75:
        ff:5c:90:d9:1b:07:1a:ce:bd:4f:e6:bd:11:cc:53:36:c2:84:
        8f:b9:45:1f:cc:64:17:e8:78:dc:0e:98:d7:58:5f:88:43:79:
        44:d1:23:16:61:94:e9:af:09:f9:c8:37:8e:e4:a8:1f:17:0b:
        6b:55:d2:56:84:22:1b:51:f3:fd:5e:10:67:76:91:a0:c5:3e:
        73:ee:4f:97
-----BEGIN CERTIFICATE-----
MIIDXTCCAkWgAwIBAgIRALi3rrVKrxWdKa/LgAaF+wAwDQYJKoZIhvcNAQELBQAw
FjEUMBIGA1UEAwwLdGVhbTQ5My1uZXQwHhcNMjMxMTAzMjA0ODE3WhcNMjYxMDE4
MjA0ODE3WjAZMRcwFQYDVQQDDA50ZWFtNDkzLWNsaWVudDCCASIwDQYJKoZIhvcN
AQEBBQADggEPADCCAQoCggEBAIPvow5ZRO/bMYEQHU+++HJGI+mz6wjv+ciGiVFh
EyLqr4/rBOvlGASwZlOOiu12p2x+SmOtg5EH0cvkhC0iqnG0kQC9M/lfPX+NjDT0
Z/mN+sa6Zww6J3CiJDpBPLofiVHxFB0oWzcTHUIV1cPBTWr3brLBv2xk/nCpbRXc
zcXkTXtkjnJRocNixzw5z4AVXR4j4O8jKAo9ejxlD5LvD+iCYYtlab6WUQq/HAuL
cIuRnbbOfY8VjNq+1GAyYjL7XXvyxDi0bY8O9Oz7lTGQQj3j5NErSQptw+WWBj/N
zb+GN4ETa8cf4/5YCSZ/AfzlexmY1coTCMXOEf1I4eAKxOkCAwEAAaOBojCBnzAJ
BgNVHRMEAjAAMB0GA1UdDgQWBBS1ofriAZ3YjnJT81FMrYAKGb+dvjBRBgNVHSME
SjBIgBSJZl+2y197svuOGXsxvBIb788YnKEapBgwFjEUMBIGA1UEAwwLdGVhbTQ5
My1uZXSCFHIvs0c4jozg0ZEHypxRWLxrqbG/MBMGA1UdJQQMMAoGCCsGAQUFBwMC
MAsGA1UdDwQEAwIHgDANBgkqhkiG9w0BAQsFAAOCAQEADGMfkT2Aw5UEKsRyNpVq
hFIj4ETbrrpap04v5v+8E6j3q7UUwjhnyiK/e7Vqw9FXa5kaZzBVMKdhxoFS3u0S
ZAUbWohsW7vtDQ6jmphPR1Ztv5y8d6Yt47M+zAEqPpjc9VVAXs44HQkpXE/hAai4
JTgZ67X1fjnLFu30kEwg8nM3K4GKqYjTYXljSJeIjX5fRpN1T/qzkN7OGESmh6pG
mrqpZnw//3gCLkhvmQXrr/APkCJ1/1yQ2RsHGs69T+a9EcxTNsKEj7lFH8xkF+h4
3A6Y11hfiEN5RNEjFmGU6a8J+cg3juSoHxcLa1XSVoQiG1Hz/V4QZ3aRoMU+c+5P
lw==
-----END CERTIFICATE-----
