Certificate:
    Data:
        Version: 3 (0x2)
        Serial Number:
            c5:b8:32:bc:a7:c9:d1:ff:96:62:de:c5:8f:04:b1:73
        Signature Algorithm: sha256WithRSAEncryption
        Issuer: CN=team493-net
        Validity
            Not Before: Nov  4 11:38:46 2023 GMT
            Not After : Oct 19 11:38:46 2026 GMT
        Subject: CN=team493-server
        Subject Public Key Info:
            Public Key Algorithm: rsaEncryption
                Public-Key: (2048 bit)
                Modulus:
                    00:ac:5b:9e:ce:68:9e:6b:f5:93:84:c6:77:24:11:
                    42:08:62:b2:1d:93:2d:00:c8:74:9f:00:5e:40:8c:
                    a5:0b:dc:00:f7:0c:4e:39:c9:c0:52:7d:8e:9c:62:
                    8d:29:cd:de:36:00:0d:59:8e:fa:69:3f:9d:2b:1f:
                    0a:b6:6e:2d:ee:da:bf:a7:97:c6:7a:21:d1:34:49:
                    81:5d:d7:7b:b4:f0:a5:3a:7a:a8:9c:36:bb:42:83:
                    86:1a:fb:06:bd:48:6a:f9:26:8c:2b:ad:d8:d2:49:
                    40:fb:43:ce:cc:44:aa:70:84:3b:25:e6:89:e1:22:
                    39:ca:69:19:12:28:69:23:4e:ba:83:a4:ac:eb:2b:
                    90:3c:0f:f6:3f:d1:b7:e9:1c:95:c0:80:a7:ed:c1:
                    9d:90:65:02:67:65:e9:f9:b4:b4:9d:e1:ed:cd:66:
                    f7:71:cc:91:80:95:8f:6b:d7:4d:a1:39:f7:60:77:
                    61:4b:85:f1:24:82:d1:4a:44:ae:98:0c:36:3d:72:
                    f8:65:ac:83:79:55:f6:cb:56:7a:3f:13:d4:18:e7:
                    ae:79:90:77:5b:bb:62:64:6e:04:b4:6e:e3:f6:38:
                    c7:21:d8:9b:3c:f5:21:5a:f9:c7:4c:8b:89:32:f2:
                    ed:81:c6:02:74:b5:17:dd:01:1f:99:bf:ba:50:1f:
                    48:57
                Exponent: 65537 (0x10001)
        X509v3 extensions:
            X509v3 Basic Constraints: 
                CA:FALSE
            X509v3 Subject Key Identifier: 
                45:44:4D:24:5D:C5:1F:FB:E7:52:9E:28:30:20:E5:70:B1:90:F9:C1
            X509v3 Authority Key Identifier: 
                keyid:90:58:07:50:F1:7C:55:3B:48:71:3D:E3:52:73:9B:25:AC:57:BC:C9
                DirName:/CN=team493-net
                serial:4E:51:E7:8A:FD:3E:4F:6E:FC:A0:52:87:07:E4:A7:D6:3D:51:CC:57
            X509v3 Extended Key Usage: 
                TLS Web Server Authentication
            X509v3 Key Usage: 
                Digital Signature, Key Encipherment
            X509v3 Subject Alternative Name: 
                DNS:team493-server
    Signature Algorithm: sha256WithRSAEncryption
    Signature Value:
        16:70:e1:fd:6e:e0:10:56:d1:60:4e:a7:20:3f:a5:11:11:c5:
        58:5f:1d:13:63:49:66:59:30:be:7e:b3:47:4b:ab:84:fd:14:
        ad:50:ee:bf:5a:b8:6d:ce:66:f2:6c:79:b6:68:6e:ea:76:0d:
        0e:8a:df:3c:8d:23:54:d7:9d:8c:d0:98:12:6d:aa:dc:19:51:
        a0:79:3d:d8:66:6f:a6:35:dc:45:a8:d5:bc:77:fa:96:26:f6:
        4f:cc:1b:b6:d5:b7:20:7e:55:0b:86:6f:31:6c:d3:f6:24:12:
        6d:0c:aa:92:14:33:74:2f:5c:59:3a:29:8f:09:78:17:d1:ce:
        60:fd:f1:62:15:3a:16:33:02:d9:09:c0:65:ef:33:3a:e8:37:
        44:fe:96:f4:fe:d7:46:25:3f:8d:61:7b:31:7a:9e:29:3c:f8:
        e7:a0:a9:0d:50:35:80:cb:cd:0f:aa:2b:25:e9:00:2e:49:aa:
        da:4f:0d:59:e2:09:94:b8:18:6d:6a:15:93:93:86:2c:d2:53:
        53:b0:8f:68:a1:6e:ab:9d:eb:81:19:d7:3b:f6:79:e0:0d:46:
        18:03:e3:16:25:c6:a7:54:e2:1b:16:cd:c0:60:c4:32:ae:5f:
        cb:7b:ed:ea:92:5f:be:f6:29:72:f1:e4:62:f4:69:54:52:4b:
        08:b7:1c:8d
-----BEGIN CERTIFICATE-----
MIIDeDCCAmCgAwIBAgIRAMW4MrynydH/lmLexY8EsXMwDQYJKoZIhvcNAQELBQAw
FjEUMBIGA1UEAwwLdGVhbTQ5My1uZXQwHhcNMjMxMTA0MTEzODQ2WhcNMjYxMDE5
MTEzODQ2WjAZMRcwFQYDVQQDDA50ZWFtNDkzLXNlcnZlcjCCASIwDQYJKoZIhvcN
AQEBBQADggEPADCCAQoCggEBAKxbns5onmv1k4TGdyQRQghish2TLQDIdJ8AXkCM
pQvcAPcMTjnJwFJ9jpxijSnN3jYADVmO+mk/nSsfCrZuLe7av6eXxnoh0TRJgV3X
e7TwpTp6qJw2u0KDhhr7Br1IavkmjCut2NJJQPtDzsxEqnCEOyXmieEiOcppGRIo
aSNOuoOkrOsrkDwP9j/Rt+kclcCAp+3BnZBlAmdl6fm0tJ3h7c1m93HMkYCVj2vX
TaE592B3YUuF8SSC0UpErpgMNj1y+GWsg3lV9stWej8T1BjnrnmQd1u7YmRuBLRu
4/Y4xyHYmzz1IVr5x0yLiTLy7YHGAnS1F90BH5m/ulAfSFcCAwEAAaOBvTCBujAJ
BgNVHRMEAjAAMB0GA1UdDgQWBBRFRE0kXcUf++dSnigwIOVwsZD5wTBRBgNVHSME
SjBIgBSQWAdQ8XxVO0hxPeNSc5slrFe8yaEapBgwFjEUMBIGA1UEAwwLdGVhbTQ5
My1uZXSCFE5R54r9Pk9u/KBShwfkp9Y9UcxXMBMGA1UdJQQMMAoGCCsGAQUFBwMB
MAsGA1UdDwQEAwIFoDAZBgNVHREEEjAQgg50ZWFtNDkzLXNlcnZlcjANBgkqhkiG
9w0BAQsFAAOCAQEAFnDh/W7gEFbRYE6nID+lERHFWF8dE2NJZlkwvn6zR0urhP0U
rVDuv1q4bc5m8mx5tmhu6nYNDorfPI0jVNedjNCYEm2q3BlRoHk92GZvpjXcRajV
vHf6lib2T8wbttW3IH5VC4ZvMWzT9iQSbQyqkhQzdC9cWTopjwl4F9HOYP3xYhU6
FjMC2QnAZe8zOug3RP6W9P7XRiU/jWF7MXqeKTz456CpDVA1gMvND6orJekALkmq
2k8NWeIJlLgYbWoVk5OGLNJTU7CPaKFuq53rgRnXO/Z54A1GGAPjFiXGp1TiGxbN
wGDEMq5fy3vt6pJfvvYpcvHkYvRpVFJLCLccjQ==
-----END CERTIFICATE-----
