Certificate:
    Data:
        Version: 3 (0x2)
        Serial Number:
            e9:de:8b:1c:0d:58:f1:9f:69:3b:a2:aa:ae:e5:01:cd
        Signature Algorithm: sha256WithRSAEncryption
        Issuer: CN=team493-net
        Validity
            Not Before: Nov  4 10:49:20 2023 GMT
            Not After : Oct 19 10:49:20 2026 GMT
        Subject: CN=team493-client
        Subject Public Key Info:
            Public Key Algorithm: rsaEncryption
                Public-Key: (2048 bit)
                Modulus:
                    00:92:a5:f3:48:d9:d8:15:ec:bc:01:78:06:91:23:
                    44:fe:03:89:c2:ec:57:d8:4b:d2:5b:fb:c6:f7:0a:
                    98:fb:d2:a0:10:e1:dd:47:57:5f:54:d7:08:29:be:
                    ff:2f:e2:92:00:3a:20:42:3e:8a:d5:6a:8e:b4:64:
                    d9:5b:78:93:37:d8:2c:26:60:68:79:db:3f:25:86:
                    fd:6f:5f:25:27:e5:d3:ab:22:ec:2d:7d:24:90:26:
                    d0:c2:b2:09:f5:5f:ac:1c:20:6d:08:cb:ce:4d:9b:
                    4a:79:f2:29:f6:3a:15:48:9e:73:a5:28:5f:a3:c8:
                    cf:d5:f3:85:fd:1f:8b:51:39:ef:e4:8e:04:e4:69:
                    c0:15:5f:f6:dd:72:76:59:7c:df:5e:de:f3:ec:02:
                    a6:a0:f1:f7:14:50:da:cc:8a:19:19:72:9a:c5:b4:
                    a4:50:a9:42:e4:1f:af:25:ad:f2:b1:95:4e:d3:c2:
                    d1:a2:82:44:06:f5:33:36:98:c1:ef:05:2d:e8:ef:
                    e7:5f:d5:6f:88:f1:77:80:39:db:48:42:8a:ab:73:
                    e1:00:40:f8:3f:a7:3d:fd:88:9e:22:fe:8b:26:5a:
                    c0:99:db:fe:46:b5:e9:6b:d8:d6:8c:51:66:c1:66:
                    62:1a:15:69:fe:76:e4:c1:b8:d5:22:0b:c9:6c:4e:
                    4a:89
                Exponent: 65537 (0x10001)
        X509v3 extensions:
            X509v3 Basic Constraints: 
                CA:FALSE
            X509v3 Subject Key Identifier: 
                47:6D:51:22:B0:BC:21:E4:33:7B:A4:A7:6B:EB:04:48:F2:73:9E:19
            X509v3 Authority Key Identifier: 
                keyid:CF:13:01:68:38:23:16:B3:D7:A9:85:8F:EA:FC:5D:81:E0:BB:84:AF
                DirName:/CN=team493-net
                serial:2E:4B:78:C0:C5:46:1A:B8:4E:9C:C0:7A:FA:B0:BD:57:D3:54:BF:F8
            X509v3 Extended Key Usage: 
                TLS Web Client Authentication
            X509v3 Key Usage: 
                Digital Signature
    Signature Algorithm: sha256WithRSAEncryption
    Signature Value:
        41:49:3d:05:1a:a7:e7:f4:02:71:82:a5:a7:40:b9:c6:5c:66:
        41:9d:d6:3e:10:a9:3d:00:06:f0:40:6f:fc:f8:5e:13:8e:1e:
        0d:5c:3b:60:fa:b3:a2:17:6e:2c:92:ee:65:74:f2:24:61:c2:
        4f:02:4e:85:fb:b6:dc:d4:9c:3c:97:89:a9:e4:a9:5b:53:2e:
        72:16:a1:db:f2:5a:50:d3:a1:c8:07:9f:88:dc:c0:0f:64:e3:
        f7:b0:7d:0a:6e:36:86:e2:e7:d6:af:47:53:c4:77:0e:81:a2:
        b1:b9:df:e3:c7:18:05:ef:9f:44:82:cb:fc:58:12:d4:07:44:
        0d:d8:3f:d5:77:26:fd:6f:15:5f:ba:02:af:80:64:51:49:fb:
        98:87:ce:61:3c:f2:6b:d3:cc:85:c8:6b:85:76:36:b9:2c:aa:
        cc:91:20:ff:89:7b:97:48:a3:f8:40:06:a5:8d:00:ae:af:f2:
        4e:40:3c:09:cf:b0:ef:42:4a:c7:67:aa:b6:60:b9:bc:3c:2a:
        f3:11:46:ab:de:1e:5f:25:35:f2:f6:9f:c4:6f:be:14:b0:c5:
        9f:b9:da:24:14:62:87:9b:db:87:96:25:5a:d5:f4:6a:96:37:
        da:cc:43:63:ab:30:a6:d1:0c:73:9d:09:48:bd:a5:72:ba:63:
        fa:2f:ac:d1
-----BEGIN CERTIFICATE-----
MIIDXTCCAkWgAwIBAgIRAOneixwNWPGfaTuiqq7lAc0wDQYJKoZIhvcNAQELBQAw
FjEUMBIGA1UEAwwLdGVhbTQ5My1uZXQwHhcNMjMxMTA0MTA0OTIwWhcNMjYxMDE5
MTA0OTIwWjAZMRcwFQYDVQQDDA50ZWFtNDkzLWNsaWVudDCCASIwDQYJKoZIhvcN
AQEBBQADggEPADCCAQoCggEBAJKl80jZ2BXsvAF4BpEjRP4DicLsV9hL0lv7xvcK
mPvSoBDh3UdXX1TXCCm+/y/ikgA6IEI+itVqjrRk2Vt4kzfYLCZgaHnbPyWG/W9f
JSfl06si7C19JJAm0MKyCfVfrBwgbQjLzk2bSnnyKfY6FUiec6UoX6PIz9Xzhf0f
i1E57+SOBORpwBVf9t1ydll8317e8+wCpqDx9xRQ2syKGRlymsW0pFCpQuQfryWt
8rGVTtPC0aKCRAb1MzaYwe8FLejv51/Vb4jxd4A520hCiqtz4QBA+D+nPf2IniL+
iyZawJnb/ka16WvY1oxRZsFmYhoVaf525MG41SILyWxOSokCAwEAAaOBojCBnzAJ
BgNVHRMEAjAAMB0GA1UdDgQWBBRHbVEisLwh5DN7pKdr6wRI8nOeGTBRBgNVHSME
SjBIgBTPEwFoOCMWs9ephY/q/F2B4LuEr6EapBgwFjEUMBIGA1UEAwwLdGVhbTQ5
My1uZXSCFC5LeMDFRhq4TpzAevqwvVfTVL/4MBMGA1UdJQQMMAoGCCsGAQUFBwMC
MAsGA1UdDwQEAwIHgDANBgkqhkiG9w0BAQsFAAOCAQEAQUk9BRqn5/QCcYKlp0C5
xlxmQZ3WPhCpPQAG8EBv/PheE44eDVw7YPqzohduLJLuZXTyJGHCTwJOhfu23NSc
PJeJqeSpW1Muchah2/JaUNOhyAefiNzAD2Tj97B9Cm42huLn1q9HU8R3DoGisbnf
48cYBe+fRILL/FgS1AdEDdg/1Xcm/W8VX7oCr4BkUUn7mIfOYTzya9PMhchrhXY2
uSyqzJEg/4l7l0ij+EAGpY0Arq/yTkA8Cc+w70JKx2eqtmC5vDwq8xFGq94eXyU1
8vafxG++FLDFn7naJBRih5vbh5YlWtX0apY32sxDY6swptEMc50JSL2lcrpj+i+s
0Q==
-----END CERTIFICATE-----
