Certificate:
    Data:
        Version: 3 (0x2)
        Serial Number:
            c0:c3:7a:92:59:1c:99:ca:77:64:63:54:15:bb:fa:ae
        Signature Algorithm: sha256WithRSAEncryption
        Issuer: CN=team160-net
        Validity
            Not Before: Nov  3 20:42:07 2023 GMT
            Not After : Oct 18 20:42:07 2026 GMT
        Subject: CN=team160-server
        Subject Public Key Info:
            Public Key Algorithm: rsaEncryption
                Public-Key: (2048 bit)
                Modulus:
                    00:a9:56:25:c9:8b:0e:80:28:d2:f4:32:53:29:4e:
                    a6:92:f2:fe:3b:db:5b:a6:f6:f4:fc:2d:e0:02:b9:
                    ed:ba:29:ac:79:b8:04:cf:cb:48:b8:e1:e5:3c:12:
                    fd:1e:70:49:eb:38:7f:ae:a2:c4:e5:54:70:48:04:
                    de:ae:c5:df:a8:7e:6c:7b:2e:09:8b:1f:09:ad:6b:
                    8c:25:99:c0:97:ca:44:2c:2f:7a:5b:27:05:04:f1:
                    63:ae:6c:71:f3:ab:86:fa:dd:03:ce:bb:01:b9:61:
                    dc:07:fc:a2:b1:41:e8:e8:73:c2:79:25:07:3f:ad:
                    8b:b4:0c:db:0f:25:71:74:20:f2:c8:c4:09:c8:0c:
                    1f:c4:9b:3c:35:a6:ed:45:f7:6b:a1:89:eb:b0:5b:
                    9d:8c:d5:32:bd:00:4e:e6:68:dd:a8:a9:b6:f2:2a:
                    1b:3c:fe:0f:0f:6d:29:96:fd:9c:5c:bc:9c:10:60:
                    ec:b9:bd:13:75:f3:d1:89:07:91:73:f5:39:fa:1d:
                    f6:7b:18:93:af:de:5d:78:42:62:0a:15:81:4e:74:
                    07:05:1d:31:33:46:93:5f:28:27:60:fb:34:02:bf:
                    85:34:09:95:8e:b3:9d:80:d5:0a:10:91:1b:d1:38:
                    6b:92:e6:3c:59:ba:af:8b:56:40:b5:1d:37:ab:07:
                    94:e3
                Exponent: 65537 (0x10001)
        X509v3 extensions:
            X509v3 Basic Constraints: 
                CA:FALSE
            X509v3 Subject Key Identifier: 
                9A:5C:58:33:59:FD:35:B9:41:FD:B9:62:57:9A:BD:F7:D7:95:6A:45
            X509v3 Authority Key Identifier: 
                keyid:59:DB:9C:40:FF:E6:E9:B0:B6:82:3A:30:40:9D:5D:93:85:A4:D8:28
                DirName:/CN=team160-net
                serial:1A:81:C6:20:D8:81:43:25:31:B5:6E:D3:FD:03:B5:F8:12:E7:E8:F9
            X509v3 Extended Key Usage: 
                TLS Web Server Authentication
            X509v3 Key Usage: 
                Digital Signature, Key Encipherment
            X509v3 Subject Alternative Name: 
                DNS:team160-server
    Signature Algorithm: sha256WithRSAEncryption
    Signature Value:
        40:86:1f:74:60:a9:07:0e:92:2c:6e:1e:15:49:65:28:fc:12:
        00:22:5f:aa:c5:56:c8:0e:91:69:1a:cf:7d:7b:75:da:9f:5a:
        17:0a:a9:6d:e6:36:3d:2c:e5:16:9a:c9:96:5d:80:d3:f1:67:
        29:97:b8:53:64:7d:bf:90:c4:41:5e:38:75:a6:2e:7b:42:34:
        0b:bc:20:cc:98:75:ea:d8:2b:5c:21:71:27:31:b5:77:23:8c:
        3b:ab:f3:63:64:89:2f:ab:93:ea:be:ed:b3:7f:b1:40:d9:cb:
        00:b4:78:55:a4:22:ce:67:e8:02:13:13:af:ba:2b:93:ce:b7:
        10:3a:e8:ae:12:36:6d:57:a1:8f:9e:3e:41:eb:7c:a9:1c:b2:
        4e:a7:b9:91:50:cd:53:4e:39:ce:80:02:41:cb:e0:16:88:25:
        74:b7:81:63:f3:c8:cf:57:ec:68:88:57:b9:af:8e:0d:d7:3f:
        30:1f:ef:34:4a:ec:be:04:e8:6b:62:45:ed:bd:9f:28:f2:3c:
        6e:75:87:ae:1f:b3:c3:9e:a2:32:e0:47:6b:33:ca:f0:f5:23:
        8e:5a:63:e3:46:09:09:92:4c:75:2a:55:39:1d:3c:04:ba:e9:
        9d:f9:5c:9d:e3:05:49:52:96:33:59:95:9e:cb:14:f7:12:94:
        f8:20:cd:06
-----BEGIN CERTIFICATE-----
MIIDeDCCAmCgAwIBAgIRAMDDepJZHJnKd2RjVBW7+q4wDQYJKoZIhvcNAQELBQAw
FjEUMBIGA1UEAwwLdGVhbTE2MC1uZXQwHhcNMjMxMTAzMjA0MjA3WhcNMjYxMDE4
MjA0MjA3WjAZMRcwFQYDVQQDDA50ZWFtMTYwLXNlcnZlcjCCASIwDQYJKoZIhvcN
AQEBBQADggEPADCCAQoCggEBAKlWJcmLDoAo0vQyUylOppLy/jvbW6b29Pwt4AK5
7boprHm4BM/LSLjh5TwS/R5wSes4f66ixOVUcEgE3q7F36h+bHsuCYsfCa1rjCWZ
wJfKRCwvelsnBQTxY65scfOrhvrdA867Ablh3Af8orFB6OhzwnklBz+ti7QM2w8l
cXQg8sjECcgMH8SbPDWm7UX3a6GJ67BbnYzVMr0ATuZo3aiptvIqGzz+Dw9tKZb9
nFy8nBBg7Lm9E3Xz0YkHkXP1Ofod9nsYk6/eXXhCYgoVgU50BwUdMTNGk18oJ2D7
NAK/hTQJlY6znYDVChCRG9E4a5LmPFm6r4tWQLUdN6sHlOMCAwEAAaOBvTCBujAJ
BgNVHRMEAjAAMB0GA1UdDgQWBBSaXFgzWf01uUH9uWJXmr3315VqRTBRBgNVHSME
SjBIgBRZ25xA/+bpsLaCOjBAnV2ThaTYKKEapBgwFjEUMBIGA1UEAwwLdGVhbTE2
MC1uZXSCFBqBxiDYgUMlMbVu0/0DtfgS5+j5MBMGA1UdJQQMMAoGCCsGAQUFBwMB
MAsGA1UdDwQEAwIFoDAZBgNVHREEEjAQgg50ZWFtMTYwLXNlcnZlcjANBgkqhkiG
9w0BAQsFAAOCAQEAQIYfdGCpBw6SLG4eFUllKPwSACJfqsVWyA6RaRrPfXt12p9a
FwqpbeY2PSzlFprJll2A0/FnKZe4U2R9v5DEQV44daYue0I0C7wgzJh16tgrXCFx
JzG1dyOMO6vzY2SJL6uT6r7ts3+xQNnLALR4VaQizmfoAhMTr7ork863EDrorhI2
bVehj54+Qet8qRyyTqe5kVDNU045zoACQcvgFogldLeBY/PIz1fsaIhXua+ODdc/
MB/vNErsvgToa2JF7b2fKPI8bnWHrh+zw56iMuBHazPK8PUjjlpj40YJCZJMdSpV
OR08BLrpnflcneMFSVKWM1mVnssU9xKU+CDNBg==
-----END CERTIFICATE-----
