Certificate:
    Data:
        Version: 3 (0x2)
        Serial Number:
            9d:2e:f0:a3:58:c4:cb:9b:18:bc:26:72:ed:f0:97:aa
        Signature Algorithm: sha256WithRSAEncryption
        Issuer: CN=team278-net
        Validity
            Not Before: Nov  4 10:45:48 2023 GMT
            Not After : Oct 19 10:45:48 2026 GMT
        Subject: CN=team278-server
        Subject Public Key Info:
            Public Key Algorithm: rsaEncryption
                Public-Key: (2048 bit)
                Modulus:
                    00:bc:c4:46:a7:2b:bc:27:d6:e8:36:ca:a6:7b:ec:
                    a4:65:db:4b:6c:3c:b6:10:5c:b2:f8:36:b8:cb:b0:
                    c6:26:5a:3a:b8:14:f2:c7:82:5f:34:15:55:c6:57:
                    0b:4e:9f:04:cf:d4:8a:d5:37:45:36:9b:5b:b2:4b:
                    94:41:2d:ba:3b:0d:53:fb:1d:c2:82:0a:58:4c:19:
                    f8:7e:7b:2f:93:54:db:48:58:26:f7:a8:0d:35:eb:
                    9e:09:74:7e:e6:69:c6:7c:6d:e3:ea:5d:a4:8a:ba:
                    f7:c2:fa:39:f0:81:c6:ea:0d:b1:95:92:e3:05:a3:
                    67:11:4d:2c:dd:59:a1:ed:66:1d:75:a9:71:8e:a1:
                    eb:72:7a:38:25:c5:f4:3f:c4:59:a6:cd:61:db:47:
                    92:a1:7f:95:8a:e5:22:9a:21:2f:ef:cf:c8:49:bf:
                    83:df:e5:17:37:42:db:6c:56:03:16:e7:ba:52:eb:
                    c2:c7:41:f8:65:41:48:fb:59:6f:c2:07:ed:f9:dd:
                    7d:b6:cb:8d:6e:9e:e9:17:f3:f1:99:86:c5:64:87:
                    56:df:2a:7e:22:b9:3d:3c:0d:70:5f:d9:61:71:17:
                    a2:41:66:09:60:bb:81:33:08:9f:ad:fd:cb:dd:d4:
                    21:ef:88:5b:c1:1b:e7:b2:e0:4f:b5:6b:06:1c:b0:
                    e8:ff
                Exponent: 65537 (0x10001)
        X509v3 extensions:
            X509v3 Basic Constraints: 
                CA:FALSE
            X509v3 Subject Key Identifier: 
                2E:A7:DE:27:63:B7:26:F9:40:B9:A4:80:EA:7B:1E:DB:1F:BC:8F:0B
            X509v3 Authority Key Identifier: 
                keyid:F9:27:64:31:D0:17:6A:F3:06:DD:C9:98:BF:A0:C4:B9:4B:28:8B:79
                DirName:/CN=team278-net
                serial:07:E3:56:1F:05:B5:A0:FB:D4:55:22:8F:7E:CA:3C:F1:FC:10:07:C2
            X509v3 Extended Key Usage: 
                TLS Web Server Authentication
            X509v3 Key Usage: 
                Digital Signature, Key Encipherment
            X509v3 Subject Alternative Name: 
                DNS:team278-server
    Signature Algorithm: sha256WithRSAEncryption
    Signature Value:
        9f:e1:2d:83:8e:3a:6d:a9:13:c8:0b:a1:da:57:34:e5:4a:18:
        41:f2:73:7c:0d:7f:79:00:99:00:3c:fa:0c:52:14:bd:31:3c:
        3c:4b:21:8c:ca:5b:14:47:65:b0:74:9c:b3:5a:01:37:d4:7a:
        5a:4f:f6:4a:91:df:53:4b:b6:a7:6a:62:8c:c1:f7:40:9d:44:
        91:2b:bf:c1:d6:ad:8d:43:7d:8f:1f:02:3c:0e:2c:f7:11:d8:
        f7:37:a9:9c:0a:67:46:b5:a6:70:24:87:2b:3e:af:7e:54:4a:
        70:3e:e3:02:8f:90:53:9f:8c:11:80:3d:ae:00:dc:05:d0:68:
        f1:7b:7f:40:6d:71:24:95:df:d3:0d:7e:a7:43:a4:96:3a:53:
        6b:56:11:1c:bd:1c:02:02:9c:6a:86:c8:bf:77:1b:f8:a7:7b:
        c7:8c:3c:61:f1:86:9b:f7:fe:7a:50:39:05:be:51:71:49:51:
        a3:1d:1b:9f:fc:44:e9:28:21:0e:9f:22:f9:31:08:c5:d8:7b:
        ac:b7:27:88:4e:5f:48:24:37:37:c6:19:34:ce:d8:46:af:9e:
        c3:f9:5f:e2:24:a6:a9:56:ca:b7:ba:0d:1e:f3:03:91:a1:fb:
        7b:2f:6c:06:c0:1a:40:14:31:70:78:f4:7a:84:11:af:a8:28:
        f5:41:01:ef
-----BEGIN CERTIFICATE-----
MIIDeDCCAmCgAwIBAgIRAJ0u8KNYxMubGLwmcu3wl6owDQYJKoZIhvcNAQELBQAw
FjEUMBIGA1UEAwwLdGVhbTI3OC1uZXQwHhcNMjMxMTA0MTA0NTQ4WhcNMjYxMDE5
MTA0NTQ4WjAZMRcwFQYDVQQDDA50ZWFtMjc4LXNlcnZlcjCCASIwDQYJKoZIhvcN
AQEBBQADggEPADCCAQoCggEBALzERqcrvCfW6DbKpnvspGXbS2w8thBcsvg2uMuw
xiZaOrgU8seCXzQVVcZXC06fBM/UitU3RTabW7JLlEEtujsNU/sdwoIKWEwZ+H57
L5NU20hYJveoDTXrngl0fuZpxnxt4+pdpIq698L6OfCBxuoNsZWS4wWjZxFNLN1Z
oe1mHXWpcY6h63J6OCXF9D/EWabNYdtHkqF/lYrlIpohL+/PyEm/g9/lFzdC22xW
AxbnulLrwsdB+GVBSPtZb8IH7fndfbbLjW6e6Rfz8ZmGxWSHVt8qfiK5PTwNcF/Z
YXEXokFmCWC7gTMIn639y93UIe+IW8Eb57LgT7VrBhyw6P8CAwEAAaOBvTCBujAJ
BgNVHRMEAjAAMB0GA1UdDgQWBBQup94nY7cm+UC5pIDqex7bH7yPCzBRBgNVHSME
SjBIgBT5J2Qx0Bdq8wbdyZi/oMS5SyiLeaEapBgwFjEUMBIGA1UEAwwLdGVhbTI3
OC1uZXSCFAfjVh8FtaD71FUij37KPPH8EAfCMBMGA1UdJQQMMAoGCCsGAQUFBwMB
MAsGA1UdDwQEAwIFoDAZBgNVHREEEjAQgg50ZWFtMjc4LXNlcnZlcjANBgkqhkiG
9w0BAQsFAAOCAQEAn+Etg446bakTyAuh2lc05UoYQfJzfA1/eQCZADz6DFIUvTE8
PEshjMpbFEdlsHScs1oBN9R6Wk/2SpHfU0u2p2pijMH3QJ1EkSu/wdatjUN9jx8C
PA4s9xHY9zepnApnRrWmcCSHKz6vflRKcD7jAo+QU5+MEYA9rgDcBdBo8Xt/QG1x
JJXf0w1+p0OkljpTa1YRHL0cAgKcaobIv3cb+Kd7x4w8YfGGm/f+elA5Bb5RcUlR
ox0bn/xE6SghDp8i+TEIxdh7rLcniE5fSCQ3N8YZNM7YRq+ew/lf4iSmqVbKt7oN
HvMDkaH7ey9sBsAaQBQxcHj0eoQRr6go9UEB7w==
-----END CERTIFICATE-----
