Certificate:
    Data:
        Version: 3 (0x2)
        Serial Number:
            c4:78:f8:6d:24:57:92:99:f7:19:1b:7e:a2:16:62:0d
        Signature Algorithm: sha256WithRSAEncryption
        Issuer: CN=team278-net
        Validity
            Not Before: Nov  4 11:33:16 2023 GMT
            Not After : Oct 19 11:33:16 2026 GMT
        Subject: CN=team278-client
        Subject Public Key Info:
            Public Key Algorithm: rsaEncryption
                Public-Key: (2048 bit)
                Modulus:
                    00:9a:b2:75:53:52:47:df:35:5b:6f:2b:71:7f:e9:
                    1b:74:18:51:ee:f6:06:12:e5:86:be:50:4c:46:d3:
                    29:13:ed:3c:cd:68:ce:67:c4:29:cb:b5:c6:5a:3f:
                    10:0d:4a:1b:c6:48:15:c8:2f:97:6f:07:38:d4:30:
                    33:70:05:bb:ae:f5:23:0e:e4:5b:46:d0:75:59:48:
                    88:f8:fc:18:41:42:ae:78:f4:14:03:c4:47:fe:a0:
                    6b:f2:14:67:12:8a:c4:cc:61:e3:e0:f5:1c:54:07:
                    5d:17:39:3b:b5:51:09:84:f9:2b:04:72:c2:d3:9a:
                    7e:f7:54:ca:12:a2:16:7e:c9:45:03:bc:98:6f:a6:
                    cd:a0:ea:b3:fb:10:b9:bb:ed:24:09:62:22:e5:cd:
                    4c:68:74:f6:19:40:fd:09:6f:6f:29:47:8f:d7:b6:
                    79:ee:b9:47:50:e7:ad:24:b5:e8:cd:8d:19:e6:a1:
                    91:0b:a2:d7:a6:67:9d:de:23:1c:76:d7:ba:7c:88:
                    e9:4e:f0:85:95:86:24:bc:2f:d7:c1:64:d1:a2:39:
                    a2:6a:01:f2:81:42:33:c7:0a:f4:cc:03:b1:88:2c:
                    da:ae:36:28:82:e1:b4:20:cd:59:da:87:3f:e1:58:
                    9d:f3:83:1b:e2:d3:c7:9d:72:45:22:c2:09:82:ae:
                    d3:39
                Exponent: 65537 (0x10001)
        X509v3 extensions:
            X509v3 Basic Constraints: 
                CA:FALSE
            X509v3 Subject Key Identifier: 
                49:A7:F7:BE:9D:A6:5C:C9:AA:E6:9D:07:05:20:60:9D:D7:6D:E0:42
            X509v3 Authority Key Identifier: 
                keyid:A1:4B:10:DB:22:C3:64:73:BA:A2:C2:7D:4C:38:3B:8E:78:AD:07:B1
                DirName:/CN=team278-net
                serial:5B:68:71:D7:C8:8C:7F:2B:A5:F1:EF:3E:B5:29:0A:F0:47:A8:C4:8C
            X509v3 Extended Key Usage: 
                TLS Web Client Authentication
            X509v3 Key Usage: 
                Digital Signature
    Signature Algorithm: sha256WithRSAEncryption
    Signature Value:
        2d:7c:22:f5:a1:a9:3f:78:d4:eb:64:a4:87:3e:bb:2c:cf:ab:
        a0:f5:50:c4:10:1b:92:41:7b:24:10:9a:cb:cf:36:5a:e8:b9:
        8c:e5:ba:b4:e0:46:e2:f3:1f:90:48:96:f0:96:3a:14:a2:7c:
        83:59:b7:29:e9:2d:e5:eb:f2:4f:21:25:2e:df:74:06:6e:47:
        b5:1f:44:3d:79:9e:3c:ca:c9:55:11:ca:01:5d:c0:5b:75:40:
        9a:50:75:80:e6:91:b8:71:eb:b6:c7:7f:2f:45:01:80:14:c8:
        0b:48:78:01:c4:60:39:28:ed:39:b7:1f:cc:64:85:fe:a6:99:
        ee:6a:a5:06:b6:e0:b7:11:02:a6:a5:0b:30:a3:95:29:6f:3e:
        28:11:e6:d8:19:9d:20:b8:18:0e:80:e7:c7:0e:9d:2b:53:90:
        85:7f:92:2d:d2:ee:e1:1f:b5:a4:ac:34:fa:cd:2a:54:d5:bc:
        a9:9a:11:25:3c:e6:90:5e:92:25:9c:5a:34:a8:e1:6f:ee:b3:
        37:fe:16:00:71:00:77:0d:55:f2:1c:6d:09:2e:a5:90:1f:1c:
        ae:73:a6:bc:57:99:1b:cd:1e:13:af:42:fd:5e:c9:fb:05:c8:
        c5:3c:1d:21:e1:11:29:be:b7:9f:dc:59:db:10:bd:dd:5e:ea:
        8c:de:44:25
-----BEGIN CERTIFICATE-----
MIIDXTCCAkWgAwIBAgIRAMR4+G0kV5KZ9xkbfqIWYg0wDQYJKoZIhvcNAQELBQAw
FjEUMBIGA1UEAwwLdGVhbTI3OC1uZXQwHhcNMjMxMTA0MTEzMzE2WhcNMjYxMDE5
MTEzMzE2WjAZMRcwFQYDVQQDDA50ZWFtMjc4LWNsaWVudDCCASIwDQYJKoZIhvcN
AQEBBQADggEPADCCAQoCggEBAJqydVNSR981W28rcX/pG3QYUe72BhLlhr5QTEbT
KRPtPM1ozmfEKcu1xlo/EA1KG8ZIFcgvl28HONQwM3AFu671Iw7kW0bQdVlIiPj8
GEFCrnj0FAPER/6ga/IUZxKKxMxh4+D1HFQHXRc5O7VRCYT5KwRywtOafvdUyhKi
Fn7JRQO8mG+mzaDqs/sQubvtJAliIuXNTGh09hlA/QlvbylHj9e2ee65R1DnrSS1
6M2NGeahkQui16Znnd4jHHbXunyI6U7whZWGJLwv18Fk0aI5omoB8oFCM8cK9MwD
sYgs2q42KILhtCDNWdqHP+FYnfODG+LTx51yRSLCCYKu0zkCAwEAAaOBojCBnzAJ
BgNVHRMEAjAAMB0GA1UdDgQWBBRJp/e+naZcyarmnQcFIGCd123gQjBRBgNVHSME
SjBIgBShSxDbIsNkc7qiwn1MODuOeK0HsaEapBgwFjEUMBIGA1UEAwwLdGVhbTI3
OC1uZXSCFFtocdfIjH8rpfHvPrUpCvBHqMSMMBMGA1UdJQQMMAoGCCsGAQUFBwMC
MAsGA1UdDwQEAwIHgDANBgkqhkiG9w0BAQsFAAOCAQEALXwi9aGpP3jU62Skhz67
LM+roPVQxBAbkkF7JBCay882Wui5jOW6tOBG4vMfkEiW8JY6FKJ8g1m3Kekt5evy
TyElLt90Bm5HtR9EPXmePMrJVRHKAV3AW3VAmlB1gOaRuHHrtsd/L0UBgBTIC0h4
AcRgOSjtObcfzGSF/qaZ7mqlBrbgtxECpqULMKOVKW8+KBHm2BmdILgYDoDnxw6d
K1OQhX+SLdLu4R+1pKw0+s0qVNW8qZoRJTzmkF6SJZxaNKjhb+6zN/4WAHEAdw1V
8hxtCS6lkB8crnOmvFeZG80eE69C/V7J+wXIxTwdIeERKb63n9xZ2xC93V7qjN5E
JQ==
-----END CERTIFICATE-----
