Certificate:
    Data:
        Version: 3 (0x2)
        Serial Number:
            d3:b7:f9:76:fd:82:24:2b:29:70:d8:93:0a:be:53:77
        Signature Algorithm: sha256WithRSAEncryption
        Issuer: CN=team278-net
        Validity
            Not Before: Nov  4 10:45:48 2023 GMT
            Not After : Oct 19 10:45:48 2026 GMT
        Subject: CN=team278-client
        Subject Public Key Info:
            Public Key Algorithm: rsaEncryption
                Public-Key: (2048 bit)
                Modulus:
                    00:af:c6:c6:99:b4:8d:36:e5:33:48:72:9c:a3:26:
                    16:0a:cd:0d:d5:9b:da:f7:1c:ff:24:52:d0:a1:4b:
                    a1:48:e0:86:16:7c:37:e1:55:84:25:16:90:68:7e:
                    7b:af:16:b5:9a:c7:7c:8b:56:c8:12:fe:f4:08:05:
                    bb:6a:f4:87:73:d9:af:ce:b3:23:90:2a:5f:c2:1c:
                    37:00:c4:bb:27:41:c4:1e:fd:8e:dc:04:08:db:25:
                    b5:f6:7e:42:fb:63:3b:33:57:88:74:09:f3:82:d4:
                    57:5f:30:15:f8:a3:04:21:2c:8b:27:7d:33:2a:6e:
                    54:9b:38:8e:02:4b:ba:0d:49:f3:9e:d8:46:62:ad:
                    52:81:b2:ed:10:d7:c3:70:cc:ce:2d:af:c8:d4:58:
                    84:60:40:38:ef:f3:db:86:77:d6:9c:42:d8:70:86:
                    36:1c:67:ed:7f:ed:80:f1:02:e4:25:bb:b3:a8:f8:
                    51:73:aa:e3:ad:27:c6:75:db:09:31:5f:fe:bb:70:
                    99:f5:31:84:bf:b2:1f:0b:16:e9:ed:ed:94:fc:a7:
                    79:90:dc:70:58:f8:12:cd:b9:b9:f0:85:6f:a1:59:
                    ce:a9:c3:94:50:78:24:e9:cb:02:86:da:b6:fb:3f:
                    75:f9:41:5b:e3:27:ca:fd:d3:35:6a:b8:7d:5e:4c:
                    71:21
                Exponent: 65537 (0x10001)
        X509v3 extensions:
            X509v3 Basic Constraints: 
                CA:FALSE
            X509v3 Subject Key Identifier: 
                F2:A5:7B:56:B0:03:3F:5E:33:55:59:AB:E0:85:77:29:19:98:DC:17
            X509v3 Authority Key Identifier: 
                keyid:F9:27:64:31:D0:17:6A:F3:06:DD:C9:98:BF:A0:C4:B9:4B:28:8B:79
                DirName:/CN=team278-net
                serial:07:E3:56:1F:05:B5:A0:FB:D4:55:22:8F:7E:CA:3C:F1:FC:10:07:C2
            X509v3 Extended Key Usage: 
                TLS Web Client Authentication
            X509v3 Key Usage: 
                Digital Signature
    Signature Algorithm: sha256WithRSAEncryption
    Signature Value:
        64:e0:3e:60:ed:46:79:c1:fa:4c:1f:19:6b:68:42:29:d9:a5:
        46:ce:03:e7:ae:dd:53:7b:ba:31:48:6b:29:70:a3:35:e9:f0:
        b5:b9:fa:18:19:b0:ad:d2:e7:f9:d0:62:34:26:44:20:0e:3e:
        09:60:0f:a7:d6:fa:24:0d:3c:c8:61:e4:40:82:a4:26:54:a1:
        5f:69:1d:8a:3b:e9:3c:a5:78:9a:87:8c:71:09:01:d1:0a:5e:
        d8:06:95:8c:32:c7:92:25:17:53:95:d7:ac:b1:1f:30:67:d4:
        81:cb:a4:31:79:93:9d:1e:e5:45:79:84:26:4f:40:3e:74:d7:
        05:16:04:d6:22:66:a6:af:a3:ec:3d:fc:a6:73:95:57:f7:e9:
        78:b4:de:1b:10:04:be:c9:52:8a:65:f9:a8:55:9a:7a:d5:46:
        ef:50:65:75:26:99:94:58:7f:1e:de:68:9c:48:4e:4b:b2:31:
        10:9a:87:44:89:2b:1b:76:8a:c9:64:88:1d:77:ce:fd:ac:6f:
        c0:9f:89:22:72:1b:73:7c:31:7a:4e:dd:4d:bd:c4:ae:ff:8e:
        95:d6:07:da:68:be:d5:a0:2f:24:3d:fe:e8:ae:2e:26:4d:3a:
        57:f8:66:16:de:af:15:f6:fb:27:83:6e:1c:bd:51:8a:d9:2f:
        da:4e:15:0c
-----BEGIN CERTIFICATE-----
MIIDXTCCAkWgAwIBAgIRANO3+Xb9giQrKXDYkwq+U3cwDQYJKoZIhvcNAQELBQAw
FjEUMBIGA1UEAwwLdGVhbTI3OC1uZXQwHhcNMjMxMTA0MTA0NTQ4WhcNMjYxMDE5
MTA0NTQ4WjAZMRcwFQYDVQQDDA50ZWFtMjc4LWNsaWVudDCCASIwDQYJKoZIhvcN
AQEBBQADggEPADCCAQoCggEBAK/Gxpm0jTblM0hynKMmFgrNDdWb2vcc/yRS0KFL
oUjghhZ8N+FVhCUWkGh+e68WtZrHfItWyBL+9AgFu2r0h3PZr86zI5AqX8IcNwDE
uydBxB79jtwECNsltfZ+QvtjOzNXiHQJ84LUV18wFfijBCEsiyd9MypuVJs4jgJL
ug1J857YRmKtUoGy7RDXw3DMzi2vyNRYhGBAOO/z24Z31pxC2HCGNhxn7X/tgPEC
5CW7s6j4UXOq460nxnXbCTFf/rtwmfUxhL+yHwsW6e3tlPyneZDccFj4Es25ufCF
b6FZzqnDlFB4JOnLAobatvs/dflBW+Mnyv3TNWq4fV5McSECAwEAAaOBojCBnzAJ
BgNVHRMEAjAAMB0GA1UdDgQWBBTypXtWsAM/XjNVWavghXcpGZjcFzBRBgNVHSME
SjBIgBT5J2Qx0Bdq8wbdyZi/oMS5SyiLeaEapBgwFjEUMBIGA1UEAwwLdGVhbTI3
OC1uZXSCFAfjVh8FtaD71FUij37KPPH8EAfCMBMGA1UdJQQMMAoGCCsGAQUFBwMC
MAsGA1UdDwQEAwIHgDANBgkqhkiG9w0BAQsFAAOCAQEAZOA+YO1GecH6TB8Za2hC
KdmlRs4D567dU3u6MUhrKXCjNenwtbn6GBmwrdLn+dBiNCZEIA4+CWAPp9b6JA08
yGHkQIKkJlShX2kdijvpPKV4moeMcQkB0Qpe2AaVjDLHkiUXU5XXrLEfMGfUgcuk
MXmTnR7lRXmEJk9APnTXBRYE1iJmpq+j7D38pnOVV/fpeLTeGxAEvslSimX5qFWa
etVG71BldSaZlFh/Ht5onEhOS7IxEJqHRIkrG3aKyWSIHXfO/axvwJ+JInIbc3wx
ek7dTb3Erv+OldYH2mi+1aAvJD3+6K4uJk06V/hmFt6vFfb7J4NuHL1Ritkv2k4V
DA==
-----END CERTIFICATE-----
