Certificate:
    Data:
        Version: 3 (0x2)
        Serial Number:
            f7:c9:f3:00:9b:f5:fb:f1:b2:46:63:86:c8:8e:cf:89
        Signature Algorithm: sha256WithRSAEncryption
        Issuer: CN=team278-net
        Validity
            Not Before: Nov  4 11:33:16 2023 GMT
            Not After : Oct 19 11:33:16 2026 GMT
        Subject: CN=team278-server
        Subject Public Key Info:
            Public Key Algorithm: rsaEncryption
                Public-Key: (2048 bit)
                Modulus:
                    00:8a:57:14:02:6a:cd:cd:34:fe:c8:73:5e:51:4f:
                    75:f2:ad:f1:53:0d:d5:90:5c:40:8f:79:a0:9f:2b:
                    09:08:da:fe:b3:37:5c:54:4b:3b:75:4a:9a:f4:2e:
                    2e:c1:5c:e2:06:87:2d:60:ad:54:11:8d:ef:fb:c3:
                    4a:14:cb:1b:f7:e2:05:08:11:3b:6c:2d:12:e5:23:
                    a7:0d:bb:9d:f8:9a:f3:3e:29:dc:58:ef:9e:db:ec:
                    4e:bb:ca:84:58:1f:cc:35:b4:5c:72:e1:03:3d:19:
                    27:67:59:52:16:63:72:d8:82:9e:c9:5f:8f:a4:fe:
                    f7:11:14:45:01:ca:c5:00:a4:1c:b8:ef:c0:c0:f1:
                    1e:c4:71:27:da:0f:01:f6:13:83:2b:01:08:11:c3:
                    73:3a:6c:e0:76:6f:00:5d:a4:18:ba:96:eb:cc:10:
                    cd:49:bd:9e:8e:f0:4b:29:c0:85:28:fe:a2:77:d3:
                    75:c7:cb:ad:0a:a4:a4:35:d8:85:b8:1e:0c:c6:5e:
                    e1:1a:49:4f:bd:be:0a:37:63:e3:5b:38:96:8c:e3:
                    93:11:1f:ae:66:d9:f7:eb:d7:8b:37:58:3c:27:0d:
                    80:96:28:a0:39:fd:da:6e:23:5d:89:78:b5:db:34:
                    1c:13:70:b6:0d:ac:2d:96:df:03:4e:3b:6d:db:53:
                    6c:29
                Exponent: 65537 (0x10001)
        X509v3 extensions:
            X509v3 Basic Constraints: 
                CA:FALSE
            X509v3 Subject Key Identifier: 
                C3:09:BD:57:9D:84:38:AD:50:A2:DA:7B:31:C3:A4:42:19:B5:EC:E4
            X509v3 Authority Key Identifier: 
                keyid:A1:4B:10:DB:22:C3:64:73:BA:A2:C2:7D:4C:38:3B:8E:78:AD:07:B1
                DirName:/CN=team278-net
                serial:5B:68:71:D7:C8:8C:7F:2B:A5:F1:EF:3E:B5:29:0A:F0:47:A8:C4:8C
            X509v3 Extended Key Usage: 
                TLS Web Server Authentication
            X509v3 Key Usage: 
                Digital Signature, Key Encipherment
            X509v3 Subject Alternative Name: 
                DNS:team278-server
    Signature Algorithm: sha256WithRSAEncryption
    Signature Value:
        32:d9:7b:f9:25:40:49:1e:ec:54:6f:ff:76:e7:f6:18:1e:0f:
        b9:3a:5c:b6:b5:fc:2c:00:12:df:e2:00:88:80:1e:03:3d:d1:
        40:1a:f5:d0:30:e2:d0:b7:a9:d8:f5:24:55:05:ee:02:3b:ea:
        33:75:2d:df:1f:94:30:bf:d1:3c:b8:ea:10:6d:53:6f:7a:09:
        61:d6:6d:9c:c6:de:e1:f8:f1:c3:75:87:84:02:9a:d2:22:a0:
        cd:dc:41:38:4a:fb:e0:d3:50:8e:52:47:d9:07:e0:6a:e4:af:
        0a:63:36:7a:60:78:d8:f8:e9:ef:92:a4:49:12:d2:94:ca:e8:
        d3:44:56:f3:26:68:83:9d:6b:db:cc:45:d5:8e:76:e9:a5:5c:
        66:fd:ea:57:45:5d:50:0d:70:6a:ad:c3:ec:e3:2e:7d:75:1f:
        31:ef:6d:2d:80:dd:10:2f:a1:c7:92:ff:1a:1c:75:46:bc:a6:
        25:22:22:e5:9f:0e:96:83:53:f1:2c:11:1a:c9:95:f6:cb:51:
        df:a9:01:fe:d3:6a:06:76:b4:cf:c6:85:98:3c:a2:05:b8:97:
        91:42:7f:24:be:dc:6f:8a:d5:04:8a:6e:4e:82:d3:e2:19:eb:
        2f:e2:1a:56:8b:55:70:28:7e:cc:8c:7b:2c:cb:c7:36:8e:7e:
        e6:83:c0:65
-----BEGIN CERTIFICATE-----
MIIDeDCCAmCgAwIBAgIRAPfJ8wCb9fvxskZjhsiOz4kwDQYJKoZIhvcNAQELBQAw
FjEUMBIGA1UEAwwLdGVhbTI3OC1uZXQwHhcNMjMxMTA0MTEzMzE2WhcNMjYxMDE5
MTEzMzE2WjAZMRcwFQYDVQQDDA50ZWFtMjc4LXNlcnZlcjCCASIwDQYJKoZIhvcN
AQEBBQADggEPADCCAQoCggEBAIpXFAJqzc00/shzXlFPdfKt8VMN1ZBcQI95oJ8r
CQja/rM3XFRLO3VKmvQuLsFc4gaHLWCtVBGN7/vDShTLG/fiBQgRO2wtEuUjpw27
nfia8z4p3FjvntvsTrvKhFgfzDW0XHLhAz0ZJ2dZUhZjctiCnslfj6T+9xEURQHK
xQCkHLjvwMDxHsRxJ9oPAfYTgysBCBHDczps4HZvAF2kGLqW68wQzUm9no7wSynA
hSj+onfTdcfLrQqkpDXYhbgeDMZe4RpJT72+Cjdj41s4lozjkxEfrmbZ9+vXizdY
PCcNgJYooDn92m4jXYl4tds0HBNwtg2sLZbfA047bdtTbCkCAwEAAaOBvTCBujAJ
BgNVHRMEAjAAMB0GA1UdDgQWBBTDCb1XnYQ4rVCi2nsxw6RCGbXs5DBRBgNVHSME
SjBIgBShSxDbIsNkc7qiwn1MODuOeK0HsaEapBgwFjEUMBIGA1UEAwwLdGVhbTI3
OC1uZXSCFFtocdfIjH8rpfHvPrUpCvBHqMSMMBMGA1UdJQQMMAoGCCsGAQUFBwMB
MAsGA1UdDwQEAwIFoDAZBgNVHREEEjAQgg50ZWFtMjc4LXNlcnZlcjANBgkqhkiG
9w0BAQsFAAOCAQEAMtl7+SVASR7sVG//duf2GB4PuTpctrX8LAAS3+IAiIAeAz3R
QBr10DDi0Lep2PUkVQXuAjvqM3Ut3x+UML/RPLjqEG1Tb3oJYdZtnMbe4fjxw3WH
hAKa0iKgzdxBOEr74NNQjlJH2QfgauSvCmM2emB42Pjp75KkSRLSlMro00RW8yZo
g51r28xF1Y526aVcZv3qV0VdUA1waq3D7OMufXUfMe9tLYDdEC+hx5L/Ghx1Rrym
JSIi5Z8OloNT8SwRGsmV9stR36kB/tNqBna0z8aFmDyiBbiXkUJ/JL7cb4rVBIpu
ToLT4hnrL+IaVotVcCh+zIx7LMvHNo5+5oPAZQ==
-----END CERTIFICATE-----
