Certificate:
    Data:
        Version: 3 (0x2)
        Serial Number:
            1c:61:5c:c2:e2:e5:6c:8a:43:f9:06:64:83:3f:30:41
        Signature Algorithm: sha256WithRSAEncryption
        Issuer: CN=team496-net
        Validity
            Not Before: Nov  3 20:48:21 2023 GMT
            Not After : Oct 18 20:48:21 2026 GMT
        Subject: CN=team496-server
        Subject Public Key Info:
            Public Key Algorithm: rsaEncryption
                Public-Key: (2048 bit)
                Modulus:
                    00:e6:44:40:e4:50:59:83:db:fd:4a:5c:6d:ee:66:
                    b2:6b:c0:9f:02:e7:f8:87:4b:ef:63:77:84:4a:28:
                    52:f6:6b:c7:b4:f1:10:27:da:75:df:4c:d7:04:65:
                    48:2f:7d:2a:89:3f:d7:c5:8e:49:df:18:d8:5f:fb:
                    c3:72:a2:5e:19:61:f0:26:1b:c0:a1:e2:7d:75:52:
                    02:9f:b4:ea:54:63:04:b1:29:8b:cf:75:ec:0f:38:
                    22:27:6c:0c:37:b5:1c:56:7d:bd:12:68:45:53:7c:
                    5f:47:e6:bf:c1:cd:ed:0f:97:85:e9:ec:36:4f:6f:
                    63:17:26:d2:da:ab:0d:7b:02:9b:37:30:8a:57:36:
                    59:d9:ef:ae:d8:eb:18:94:3e:10:b0:f9:49:22:2d:
                    a1:bc:28:8f:e4:ce:c6:61:7c:c8:35:ed:ec:f5:85:
                    b0:5a:44:c2:46:4f:a4:c8:28:fa:f4:40:27:1b:0a:
                    e5:00:9f:11:bf:26:bb:4b:c9:cf:7e:0a:49:f1:91:
                    c1:7c:d8:e9:8c:df:83:c4:1a:98:d2:98:64:1f:ad:
                    dd:0b:0c:71:30:d2:23:8f:1e:06:c6:7f:0b:ab:99:
                    6a:b3:6b:38:98:54:a7:68:5b:87:d4:2d:63:cb:29:
                    49:73:f1:35:df:1d:59:be:7a:ac:41:a5:44:4e:5e:
                    84:21
                Exponent: 65537 (0x10001)
        X509v3 extensions:
            X509v3 Basic Constraints: 
                CA:FALSE
            X509v3 Subject Key Identifier: 
                5B:8B:54:07:5A:F0:9E:3F:A0:0C:D8:7D:93:ED:FC:56:0D:01:D2:18
            X509v3 Authority Key Identifier: 
                keyid:D4:BE:8C:90:77:4E:C5:53:F2:BF:48:81:75:B0:6C:A5:8E:5F:D7:7A
                DirName:/CN=team496-net
                serial:2D:FF:1D:92:4D:64:85:51:34:E2:36:E6:6B:3B:5E:C1:95:F7:22:54
            X509v3 Extended Key Usage: 
                TLS Web Server Authentication
            X509v3 Key Usage: 
                Digital Signature, Key Encipherment
            X509v3 Subject Alternative Name: 
                DNS:team496-server
    Signature Algorithm: sha256WithRSAEncryption
    Signature Value:
        a4:91:9f:66:83:cf:18:ae:21:99:9a:5a:bc:f0:64:4d:c8:2f:
        b9:d8:ea:28:ee:d2:2d:27:3a:c0:9b:58:0f:73:07:69:4a:84:
        43:74:5a:9f:9e:b3:e9:19:55:36:de:09:68:d8:0a:55:ff:e4:
        5e:d8:69:3a:91:bc:01:34:22:82:ed:83:a5:52:72:f8:20:8b:
        2a:a0:71:eb:42:5a:d3:1d:90:f4:8a:1c:d0:02:82:51:58:74:
        c1:92:30:ac:b5:77:a9:24:e9:a1:e6:41:e3:0b:ca:9b:1c:21:
        9b:1c:ac:21:97:66:98:df:d3:a8:dc:36:75:09:7d:56:86:ef:
        94:75:f3:cb:f8:3f:78:da:b8:d2:35:a8:8a:07:ef:87:06:e1:
        d7:ca:75:73:67:88:e7:66:13:25:7b:c9:19:79:de:4f:dc:03:
        7b:97:71:72:b9:cc:2c:5b:0c:c1:f3:49:ef:57:a5:e2:1f:e0:
        4e:b2:49:5b:63:98:75:77:9b:5e:59:5c:61:c8:97:8c:7a:46:
        4c:b3:a2:bd:ed:cc:e1:37:21:18:b3:b0:eb:3c:5e:93:49:35:
        70:14:39:90:80:69:31:64:b8:be:3c:a6:23:f3:f0:03:bf:3b:
        6d:38:08:e2:36:ec:df:22:f1:b7:5a:76:59:88:75:7a:88:27:
        09:e9:20:07
-----BEGIN CERTIFICATE-----
MIIDdzCCAl+gAwIBAgIQHGFcwuLlbIpD+QZkgz8wQTANBgkqhkiG9w0BAQsFADAW
MRQwEgYDVQQDDAt0ZWFtNDk2LW5ldDAeFw0yMzExMDMyMDQ4MjFaFw0yNjEwMTgy
MDQ4MjFaMBkxFzAVBgNVBAMMDnRlYW00OTYtc2VydmVyMIIBIjANBgkqhkiG9w0B
AQEFAAOCAQ8AMIIBCgKCAQEA5kRA5FBZg9v9Slxt7maya8CfAuf4h0vvY3eESihS
9mvHtPEQJ9p130zXBGVIL30qiT/XxY5J3xjYX/vDcqJeGWHwJhvAoeJ9dVICn7Tq
VGMEsSmLz3XsDzgiJ2wMN7UcVn29EmhFU3xfR+a/wc3tD5eF6ew2T29jFybS2qsN
ewKbNzCKVzZZ2e+u2OsYlD4QsPlJIi2hvCiP5M7GYXzINe3s9YWwWkTCRk+kyCj6
9EAnGwrlAJ8Rvya7S8nPfgpJ8ZHBfNjpjN+DxBqY0phkH63dCwxxMNIjjx4Gxn8L
q5lqs2s4mFSnaFuH1C1jyylJc/E13x1ZvnqsQaVETl6EIQIDAQABo4G9MIG6MAkG
A1UdEwQCMAAwHQYDVR0OBBYEFFuLVAda8J4/oAzYfZPt/FYNAdIYMFEGA1UdIwRK
MEiAFNS+jJB3TsVT8r9IgXWwbKWOX9d6oRqkGDAWMRQwEgYDVQQDDAt0ZWFtNDk2
LW5ldIIULf8dkk1khVE04jbmaztewZX3IlQwEwYDVR0lBAwwCgYIKwYBBQUHAwEw
CwYDVR0PBAQDAgWgMBkGA1UdEQQSMBCCDnRlYW00OTYtc2VydmVyMA0GCSqGSIb3
DQEBCwUAA4IBAQCkkZ9mg88YriGZmlq88GRNyC+52Ooo7tItJzrAm1gPcwdpSoRD
dFqfnrPpGVU23glo2ApV/+Re2Gk6kbwBNCKC7YOlUnL4IIsqoHHrQlrTHZD0ihzQ
AoJRWHTBkjCstXepJOmh5kHjC8qbHCGbHKwhl2aY39Oo3DZ1CX1Whu+UdfPL+D94
2rjSNaiKB++HBuHXynVzZ4jnZhMle8kZed5P3AN7l3FyucwsWwzB80nvV6XiH+BO
sklbY5h1d5teWVxhyJeMekZMs6K97czhNyEYs7DrPF6TSTVwFDmQgGkxZLi+PKYj
8/ADvzttOAjiNuzfIvG3WnZZiHV6iCcJ6SAH
-----END CERTIFICATE-----
