Certificate:
    Data:
        Version: 3 (0x2)
        Serial Number:
            d5:cc:32:1d:37:0c:83:65:14:d3:75:f2:81:01:f0:bd
        Signature Algorithm: sha256WithRSAEncryption
        Issuer: CN=team496-net
        Validity
            Not Before: Nov  4 10:49:23 2023 GMT
            Not After : Oct 19 10:49:23 2026 GMT
        Subject: CN=team496-server
        Subject Public Key Info:
            Public Key Algorithm: rsaEncryption
                Public-Key: (2048 bit)
                Modulus:
                    00:98:f0:29:61:f7:16:68:56:9e:f0:27:9d:5c:4e:
                    2c:3d:3a:50:c3:62:0a:68:e1:51:49:ee:75:c3:42:
                    71:2f:3b:71:0e:9e:50:dd:f7:26:79:f3:f3:04:10:
                    63:43:c3:8a:5a:cb:97:f0:3b:ae:c7:7a:f8:cd:10:
                    b1:b9:ab:8f:67:eb:39:0a:1e:b5:0a:77:79:ea:60:
                    ee:d5:20:8c:ca:d4:57:a3:e2:0d:82:a3:a2:77:6e:
                    98:96:5f:4c:bd:75:3e:9e:4b:0e:9e:fd:9f:19:a4:
                    29:dd:74:2c:89:bd:38:0a:37:90:c5:05:a5:73:b3:
                    fc:06:3c:ba:78:57:6c:b6:a0:af:fa:42:ba:0f:45:
                    0c:b1:19:b3:34:9f:64:2c:28:d2:00:59:34:2b:dd:
                    ab:63:0e:d5:75:13:04:d0:d1:0f:97:8b:a2:2c:0e:
                    ef:26:ad:e3:ca:2a:e6:43:85:d2:ff:d6:2f:d0:8b:
                    80:b4:a2:45:70:d5:77:26:fd:44:03:bb:a2:9e:21:
                    93:d9:f5:cb:48:c9:4e:fb:70:93:7e:72:d0:3e:50:
                    93:c9:83:a0:f0:6d:87:c7:0e:d1:ad:67:e4:51:b3:
                    85:97:70:75:9c:21:fb:96:c2:59:10:39:da:0f:cc:
                    53:cd:d2:89:d8:a8:fe:e1:24:16:2f:b0:58:09:4f:
                    f4:bd
                Exponent: 65537 (0x10001)
        X509v3 extensions:
            X509v3 Basic Constraints: 
                CA:FALSE
            X509v3 Subject Key Identifier: 
                4C:F7:82:67:57:B2:A2:7C:4C:F4:5A:DB:70:89:A5:08:AA:ED:49:AF
            X509v3 Authority Key Identifier: 
                keyid:27:9D:20:52:D3:88:67:01:3D:A1:8D:6A:04:45:53:47:78:B9:D0:E3
                DirName:/CN=team496-net
                serial:3C:D6:43:3C:06:3B:AA:DF:D4:7F:89:B7:EE:B2:1A:1D:FD:FE:98:8A
            X509v3 Extended Key Usage: 
                TLS Web Server Authentication
            X509v3 Key Usage: 
                Digital Signature, Key Encipherment
            X509v3 Subject Alternative Name: 
                DNS:team496-server
    Signature Algorithm: sha256WithRSAEncryption
    Signature Value:
        4c:af:79:c4:61:9f:71:50:06:bc:69:f5:32:ab:30:9f:6b:15:
        69:60:8d:d9:5a:a7:72:96:54:73:32:a5:c5:04:2f:f9:50:d8:
        8a:1d:00:85:1b:8b:5e:dd:6a:ef:4d:a2:7b:ef:b9:de:3f:35:
        6c:46:d1:c9:77:56:f7:a9:13:81:fe:bf:7c:c6:d2:b1:e8:19:
        c4:f6:e7:24:2a:c8:05:70:b5:26:9a:2b:9c:68:fe:b1:67:69:
        4e:a9:54:99:e8:73:29:71:72:ba:b5:32:0a:09:0e:85:c7:fc:
        d2:ab:88:3a:80:2c:be:4b:88:c0:46:4d:15:3c:28:7a:34:91:
        08:c0:70:ec:e1:01:b5:fa:4a:fa:cb:44:b8:49:f1:e0:c6:e6:
        59:b9:d0:d4:5a:ae:6e:c7:93:6f:14:02:e7:08:7a:30:d2:a0:
        58:47:88:b2:e1:1d:2d:f4:d4:b2:db:77:a1:66:4c:23:a6:1e:
        3f:09:df:ca:f7:0a:94:97:f7:ef:cb:f5:31:66:6e:4f:0f:28:
        6e:bb:c7:a6:7c:04:b5:41:f4:8e:48:fe:59:49:d5:87:80:a8:
        c9:62:9a:a3:d9:d4:39:cf:59:de:7f:3d:7a:19:2c:8c:5e:5d:
        b2:31:53:54:9a:ce:54:53:c0:b6:4a:4f:6e:1c:93:8d:81:03:
        b3:0a:78:31
-----BEGIN CERTIFICATE-----
MIIDeDCCAmCgAwIBAgIRANXMMh03DINlFNN18oEB8L0wDQYJKoZIhvcNAQELBQAw
FjEUMBIGA1UEAwwLdGVhbTQ5Ni1uZXQwHhcNMjMxMTA0MTA0OTIzWhcNMjYxMDE5
MTA0OTIzWjAZMRcwFQYDVQQDDA50ZWFtNDk2LXNlcnZlcjCCASIwDQYJKoZIhvcN
AQEBBQADggEPADCCAQoCggEBAJjwKWH3FmhWnvAnnVxOLD06UMNiCmjhUUnudcNC
cS87cQ6eUN33Jnnz8wQQY0PDilrLl/A7rsd6+M0Qsbmrj2frOQoetQp3eepg7tUg
jMrUV6PiDYKjondumJZfTL11Pp5LDp79nxmkKd10LIm9OAo3kMUFpXOz/AY8unhX
bLagr/pCug9FDLEZszSfZCwo0gBZNCvdq2MO1XUTBNDRD5eLoiwO7yat48oq5kOF
0v/WL9CLgLSiRXDVdyb9RAO7op4hk9n1y0jJTvtwk35y0D5Qk8mDoPBth8cO0a1n
5FGzhZdwdZwh+5bCWRA52g/MU83Sidio/uEkFi+wWAlP9L0CAwEAAaOBvTCBujAJ
BgNVHRMEAjAAMB0GA1UdDgQWBBRM94JnV7KifEz0WttwiaUIqu1JrzBRBgNVHSME
SjBIgBQnnSBS04hnAT2hjWoERVNHeLnQ46EapBgwFjEUMBIGA1UEAwwLdGVhbTQ5
Ni1uZXSCFDzWQzwGO6rf1H+Jt+6yGh39/piKMBMGA1UdJQQMMAoGCCsGAQUFBwMB
MAsGA1UdDwQEAwIFoDAZBgNVHREEEjAQgg50ZWFtNDk2LXNlcnZlcjANBgkqhkiG
9w0BAQsFAAOCAQEATK95xGGfcVAGvGn1Mqswn2sVaWCN2VqncpZUczKlxQQv+VDY
ih0AhRuLXt1q702ie++53j81bEbRyXdW96kTgf6/fMbSsegZxPbnJCrIBXC1Jpor
nGj+sWdpTqlUmehzKXFyurUyCgkOhcf80quIOoAsvkuIwEZNFTwoejSRCMBw7OEB
tfpK+stEuEnx4MbmWbnQ1FqubseTbxQC5wh6MNKgWEeIsuEdLfTUstt3oWZMI6Ye
PwnfyvcKlJf378v1MWZuTw8obrvHpnwEtUH0jkj+WUnVh4CoyWKao9nUOc9Z3n89
ehksjF5dsjFTVJrOVFPAtkpPbhyTjYEDswp4MQ==
-----END CERTIFICATE-----
