Certificate:
    Data:
        Version: 3 (0x2)
        Serial Number:
            e7:78:82:63:27:ef:2b:fe:d7:9f:35:43:aa:78:16:42
        Signature Algorithm: sha256WithRSAEncryption
        Issuer: CN=team496-net
        Validity
            Not Before: Nov  4 11:38:51 2023 GMT
            Not After : Oct 19 11:38:51 2026 GMT
        Subject: CN=team496-client
        Subject Public Key Info:
            Public Key Algorithm: rsaEncryption
                Public-Key: (2048 bit)
                Modulus:
                    00:dc:b4:d2:5f:d1:b3:9f:f6:9d:e2:15:d8:70:2d:
                    49:e6:13:44:8e:32:f5:46:bc:67:26:b1:80:4b:c6:
                    90:82:04:ba:94:b0:cd:fe:1a:46:9d:58:20:73:15:
                    fb:43:40:8a:d7:83:84:ae:eb:b3:1d:2d:8a:0f:18:
                    ba:16:a8:5e:65:67:34:01:1d:ae:a1:da:7a:9d:c3:
                    71:92:bf:45:24:5d:21:a8:a1:eb:9c:1a:71:3c:f0:
                    6f:07:c2:e9:83:2d:1a:77:98:38:82:be:89:99:6a:
                    ba:0b:4b:45:9b:0c:b1:47:b5:6e:9d:fb:64:a0:d4:
                    fc:cf:a6:d7:ab:55:55:c8:b4:f7:dc:e0:aa:05:d3:
                    e5:fb:6b:37:80:58:e5:4d:22:4c:4a:be:47:96:a8:
                    05:76:6f:46:db:b6:27:82:cb:fe:39:f7:2a:8e:a9:
                    77:bd:2f:da:33:83:b7:52:1b:87:19:bd:b2:61:8b:
                    6e:1c:18:65:21:82:0a:7a:20:a1:14:69:ff:54:42:
                    da:01:1e:44:9c:95:b0:21:f7:ea:f3:1f:0c:8e:94:
                    5f:61:e2:88:b5:53:0c:d8:b7:66:57:6c:fe:de:28:
                    1a:7e:cc:f8:5b:4c:dd:3a:35:89:92:8f:a9:dd:f0:
                    98:38:d0:3c:ce:0d:61:d1:53:94:a7:2d:46:a4:99:
                    3b:fd
                Exponent: 65537 (0x10001)
        X509v3 extensions:
            X509v3 Basic Constraints: 
                CA:FALSE
            X509v3 Subject Key Identifier: 
                58:A6:17:E2:D0:C7:15:06:47:53:0B:01:63:BF:4F:88:C0:27:D0:88
            X509v3 Authority Key Identifier: 
                keyid:C3:FE:46:95:F1:4C:66:85:EC:C6:D3:21:BE:75:8D:49:69:AF:76:9A
                DirName:/CN=team496-net
                serial:7F:BB:CF:2F:3C:BA:C9:2F:E5:07:BF:61:C6:F9:10:10:3C:54:EC:6B
            X509v3 Extended Key Usage: 
                TLS Web Client Authentication
            X509v3 Key Usage: 
                Digital Signature
    Signature Algorithm: sha256WithRSAEncryption
    Signature Value:
        7c:1e:3a:5d:6c:d3:01:9c:53:fe:61:23:f8:81:0d:d5:31:35:
        0a:e9:e6:ce:78:34:be:f8:a6:b9:6b:b4:9e:7f:c1:26:a5:c1:
        9e:d5:c0:49:a8:9e:e9:39:8e:37:d2:64:84:f6:0b:6f:cd:0e:
        83:d9:75:93:a0:f8:17:a8:1a:b7:4c:88:e1:78:a0:91:48:c0:
        2b:87:ba:e0:c1:8c:cb:d7:a1:3e:63:79:f1:3f:ff:ae:df:af:
        7a:8b:2c:de:47:41:17:e1:5f:af:ce:7e:24:0e:23:69:0c:07:
        fc:03:71:fa:64:76:67:62:bd:b8:68:e2:63:b6:06:8c:ee:47:
        70:dd:c5:40:bc:76:53:01:ec:ce:35:49:bc:79:99:44:a0:34:
        9f:cc:d4:c8:d3:2b:76:2c:17:84:89:a5:ce:d8:9e:a2:56:e0:
        26:fb:bc:aa:62:cb:59:b1:ab:b7:be:7b:41:72:62:f0:bd:61:
        4f:7c:b4:ee:c2:38:03:19:87:1f:98:4a:93:fd:7b:3f:12:dc:
        da:d0:17:2e:23:a9:f1:e4:ac:27:1a:16:90:b4:1f:48:83:91:
        f2:1b:13:9c:56:24:95:4f:6a:ef:61:c7:f6:53:f6:5b:a9:0b:
        00:b9:79:71:90:75:10:8a:1c:8f:a0:b7:4c:3a:51:f4:78:cb:
        9c:8a:b5:93
-----BEGIN CERTIFICATE-----
MIIDXTCCAkWgAwIBAgIRAOd4gmMn7yv+1581Q6p4FkIwDQYJKoZIhvcNAQELBQAw
FjEUMBIGA1UEAwwLdGVhbTQ5Ni1uZXQwHhcNMjMxMTA0MTEzODUxWhcNMjYxMDE5
MTEzODUxWjAZMRcwFQYDVQQDDA50ZWFtNDk2LWNsaWVudDCCASIwDQYJKoZIhvcN
AQEBBQADggEPADCCAQoCggEBANy00l/Rs5/2neIV2HAtSeYTRI4y9Ua8ZyaxgEvG
kIIEupSwzf4aRp1YIHMV+0NAiteDhK7rsx0tig8YuhaoXmVnNAEdrqHaep3DcZK/
RSRdIaih65wacTzwbwfC6YMtGneYOIK+iZlqugtLRZsMsUe1bp37ZKDU/M+m16tV
Vci099zgqgXT5ftrN4BY5U0iTEq+R5aoBXZvRtu2J4LL/jn3Ko6pd70v2jODt1Ib
hxm9smGLbhwYZSGCCnogoRRp/1RC2gEeRJyVsCH36vMfDI6UX2HiiLVTDNi3Zlds
/t4oGn7M+FtM3To1iZKPqd3wmDjQPM4NYdFTlKctRqSZO/0CAwEAAaOBojCBnzAJ
BgNVHRMEAjAAMB0GA1UdDgQWBBRYphfi0McVBkdTCwFjv0+IwCfQiDBRBgNVHSME
SjBIgBTD/kaV8UxmhezG0yG+dY1Jaa92mqEapBgwFjEUMBIGA1UEAwwLdGVhbTQ5
Ni1uZXSCFH+7zy88uskv5Qe/Ycb5EBA8VOxrMBMGA1UdJQQMMAoGCCsGAQUFBwMC
MAsGA1UdDwQEAwIHgDANBgkqhkiG9w0BAQsFAAOCAQEAfB46XWzTAZxT/mEj+IEN
1TE1Cunmzng0vvimuWu0nn/BJqXBntXASaie6TmON9JkhPYLb80Og9l1k6D4F6ga
t0yI4XigkUjAK4e64MGMy9ehPmN58T//rt+veoss3kdBF+Ffr85+JA4jaQwH/ANx
+mR2Z2K9uGjiY7YGjO5HcN3FQLx2UwHszjVJvHmZRKA0n8zUyNMrdiwXhImlztie
olbgJvu8qmLLWbGrt757QXJi8L1hT3y07sI4AxmHH5hKk/17PxLc2tAXLiOp8eSs
JxoWkLQfSIOR8hsTnFYklU9q72HH9lP2W6kLALl5cZB1EIocj6C3TDpR9HjLnIq1
kw==
-----END CERTIFICATE-----
