Certificate:
    Data:
        Version: 3 (0x2)
        Serial Number:
            29:fc:4a:61:9f:e6:67:cf:07:2d:3c:3b:b9:66:37:e8
        Signature Algorithm: sha256WithRSAEncryption
        Issuer: CN=team177-net
        Validity
            Not Before: Nov  4 11:31:08 2023 GMT
            Not After : Oct 19 11:31:08 2026 GMT
        Subject: CN=team177-server
        Subject Public Key Info:
            Public Key Algorithm: rsaEncryption
                Public-Key: (2048 bit)
                Modulus:
                    00:a9:77:c8:26:64:e6:64:f7:11:df:18:ec:45:cf:
                    3d:a4:b9:43:65:2e:79:6d:a4:c3:59:6f:1d:32:83:
                    8d:99:15:fe:28:96:02:6d:f4:77:5f:75:5c:ca:af:
                    b8:a2:fc:8e:77:4c:dc:2b:ad:80:64:7c:d6:c4:61:
                    62:c8:7f:39:93:02:23:6d:d0:ec:d1:78:4b:e9:c8:
                    da:80:d1:52:07:da:de:8d:92:cc:d2:ba:9e:a9:52:
                    c7:59:fe:c3:ca:f1:60:af:f8:88:58:e9:4a:14:64:
                    0a:a7:24:d1:23:ab:ae:44:cf:85:6f:17:37:0c:13:
                    01:d9:9d:65:28:4b:0c:40:30:4f:ae:ae:bb:61:73:
                    68:c4:b9:ef:3e:c5:fd:0b:04:4f:5a:df:62:99:59:
                    33:a8:69:4e:1c:49:6c:cf:9f:dc:80:19:09:eb:db:
                    be:db:86:e9:90:90:f6:e2:e8:14:55:be:94:58:66:
                    ee:95:b1:de:c6:2b:47:2d:0e:3c:4b:0c:ed:d3:9c:
                    25:bb:04:89:98:bd:94:8e:0d:ad:10:95:1a:84:60:
                    88:0b:5d:25:3c:79:c1:47:34:f0:8c:12:38:eb:a2:
                    22:d2:ed:65:76:da:28:33:76:5b:64:ac:c6:a8:ec:
                    9c:aa:a0:72:2f:04:e9:bd:ea:22:1e:4b:76:7f:3d:
                    1c:c5
                Exponent: 65537 (0x10001)
        X509v3 extensions:
            X509v3 Basic Constraints: 
                CA:FALSE
            X509v3 Subject Key Identifier: 
                0A:35:48:CF:89:BA:96:9E:51:0A:E8:9A:D2:65:57:D0:50:F9:7E:C6
            X509v3 Authority Key Identifier: 
                keyid:6F:67:24:A8:47:C0:AC:7E:76:17:A6:F4:23:D4:DC:38:C5:AA:D9:DF
                DirName:/CN=team177-net
                serial:3B:BC:6A:C2:A5:7D:71:C3:49:D7:7B:67:09:61:76:77:1A:EC:C5:E5
            X509v3 Extended Key Usage: 
                TLS Web Server Authentication
            X509v3 Key Usage: 
                Digital Signature, Key Encipherment
            X509v3 Subject Alternative Name: 
                DNS:team177-server
    Signature Algorithm: sha256WithRSAEncryption
    Signature Value:
        75:b9:23:2b:dc:56:0a:e8:c1:e3:d4:6b:74:32:cf:99:3c:51:
        c1:42:3c:54:65:99:53:1d:3d:3e:2b:61:31:7e:e5:75:f2:88:
        4c:e4:b0:7f:02:56:a0:f8:f6:1a:69:b7:c4:f5:64:05:cf:33:
        46:39:b9:47:b1:6f:31:62:44:e1:b7:db:45:5c:f8:5b:60:ff:
        19:f3:32:9f:95:04:bb:fd:50:e1:cf:a5:f2:43:f8:a8:9e:00:
        c7:32:ce:b1:74:3f:4f:18:ce:70:32:e0:bc:5d:30:24:e1:e3:
        f8:7c:55:75:d5:22:b1:78:8a:7c:75:ea:50:33:81:b5:b3:ec:
        43:2a:93:c6:5e:3f:61:69:70:cf:79:10:26:96:21:7e:11:ba:
        e0:84:c8:e7:be:dc:c0:e5:85:e5:3d:70:e0:dc:d5:11:bc:54:
        fe:44:c9:d8:f3:f5:12:70:02:e3:b5:0b:4b:31:87:d6:52:aa:
        c4:f0:d8:51:b2:ff:e6:2a:67:65:6e:16:b5:fe:d2:09:e0:6d:
        1b:83:e9:9b:26:87:f2:dc:f8:48:47:06:b1:dd:d4:65:b8:22:
        f4:94:04:2a:b6:99:8c:c9:83:d1:51:94:43:b0:68:8c:7d:51:
        e1:b4:76:8d:ad:db:9e:45:12:1f:22:b9:2a:c8:1f:da:47:36:
        1f:70:f2:cd
-----BEGIN CERTIFICATE-----
MIIDdzCCAl+gAwIBAgIQKfxKYZ/mZ88HLTw7uWY36DANBgkqhkiG9w0BAQsFADAW
MRQwEgYDVQQDDAt0ZWFtMTc3LW5ldDAeFw0yMzExMDQxMTMxMDhaFw0yNjEwMTkx
MTMxMDhaMBkxFzAVBgNVBAMMDnRlYW0xNzctc2VydmVyMIIBIjANBgkqhkiG9w0B
AQEFAAOCAQ8AMIIBCgKCAQEAqXfIJmTmZPcR3xjsRc89pLlDZS55baTDWW8dMoON
mRX+KJYCbfR3X3Vcyq+4ovyOd0zcK62AZHzWxGFiyH85kwIjbdDs0XhL6cjagNFS
B9rejZLM0rqeqVLHWf7DyvFgr/iIWOlKFGQKpyTRI6uuRM+Fbxc3DBMB2Z1lKEsM
QDBPrq67YXNoxLnvPsX9CwRPWt9imVkzqGlOHElsz5/cgBkJ69u+24bpkJD24ugU
Vb6UWGbulbHexitHLQ48Swzt05wluwSJmL2Ujg2tEJUahGCIC10lPHnBRzTwjBI4
66Ii0u1ldtooM3ZbZKzGqOycqqByLwTpveoiHkt2fz0cxQIDAQABo4G9MIG6MAkG
A1UdEwQCMAAwHQYDVR0OBBYEFAo1SM+JupaeUQromtJlV9BQ+X7GMFEGA1UdIwRK
MEiAFG9nJKhHwKx+dhem9CPU3DjFqtnfoRqkGDAWMRQwEgYDVQQDDAt0ZWFtMTc3
LW5ldIIUO7xqwqV9ccNJ13tnCWF2dxrsxeUwEwYDVR0lBAwwCgYIKwYBBQUHAwEw
CwYDVR0PBAQDAgWgMBkGA1UdEQQSMBCCDnRlYW0xNzctc2VydmVyMA0GCSqGSIb3
DQEBCwUAA4IBAQB1uSMr3FYK6MHj1Gt0Ms+ZPFHBQjxUZZlTHT0+K2ExfuV18ohM
5LB/Alag+PYaabfE9WQFzzNGOblHsW8xYkTht9tFXPhbYP8Z8zKflQS7/VDhz6Xy
Q/iongDHMs6xdD9PGM5wMuC8XTAk4eP4fFV11SKxeIp8depQM4G1s+xDKpPGXj9h
aXDPeRAmliF+EbrghMjnvtzA5YXlPXDg3NURvFT+RMnY8/UScALjtQtLMYfWUqrE
8NhRsv/mKmdlbha1/tIJ4G0bg+mbJofy3PhIRwax3dRluCL0lAQqtpmMyYPRUZRD
sGiMfVHhtHaNrdueRRIfIrkqyB/aRzYfcPLN
-----END CERTIFICATE-----
