Certificate:
    Data:
        Version: 3 (0x2)
        Serial Number:
            79:18:37:1c:2e:ad:2d:2e:f8:77:61:aa:ce:38:e1:20
        Signature Algorithm: sha256WithRSAEncryption
        Issuer: CN=team177-net
        Validity
            Not Before: Nov  4 10:43:50 2023 GMT
            Not After : Oct 19 10:43:50 2026 GMT
        Subject: CN=team177-server
        Subject Public Key Info:
            Public Key Algorithm: rsaEncryption
                Public-Key: (2048 bit)
                Modulus:
                    00:95:f2:52:8d:4e:72:ff:b5:93:ec:ea:c5:bd:dc:
                    f4:59:7c:15:2b:6d:66:00:fa:df:cf:97:44:c2:09:
                    4f:c2:7e:41:97:e6:e0:a0:40:a6:2d:9f:64:3d:a5:
                    63:2a:68:9f:15:47:82:96:ba:c1:99:e4:c0:46:2f:
                    16:b0:16:c8:1f:ca:94:d4:9e:81:cb:b4:05:c8:93:
                    e4:84:2e:80:2f:01:9a:6a:b2:e4:28:00:d3:c9:82:
                    43:4d:eb:d0:30:fc:80:8c:5e:dc:a7:48:18:97:aa:
                    a5:79:c6:72:7b:88:58:74:f6:4e:f2:0d:72:56:6a:
                    0c:ba:13:4a:53:7f:c3:7e:67:1a:ed:e9:23:b9:0d:
                    f3:45:6f:f0:03:7c:6c:ca:a8:3b:05:cb:44:6e:35:
                    86:0a:7f:69:de:e3:86:ae:89:8b:28:a3:9b:f7:d0:
                    8f:b6:0a:18:4c:96:13:8c:de:8e:93:ce:5e:86:62:
                    8c:dc:b7:0c:57:37:5a:81:e8:e1:5a:b3:c0:61:bf:
                    50:b8:cd:69:6b:48:5a:e1:a5:b7:2d:fa:36:12:e3:
                    26:d5:3b:29:49:96:cb:b4:f8:0c:ea:e6:9d:c9:2c:
                    71:14:8e:38:3c:8c:05:12:b7:c5:64:1a:52:05:3e:
                    f4:5f:b3:4d:49:f9:2f:df:79:e0:e8:db:78:b0:e5:
                    5e:9b
                Exponent: 65537 (0x10001)
        X509v3 extensions:
            X509v3 Basic Constraints: 
                CA:FALSE
            X509v3 Subject Key Identifier: 
                48:1C:85:F6:F3:D5:0E:03:63:78:12:40:96:44:E0:5B:FB:BF:8B:59
            X509v3 Authority Key Identifier: 
                keyid:7A:21:0A:BF:30:44:BC:34:1D:69:F7:63:47:4C:D6:44:DB:B4:32:32
                DirName:/CN=team177-net
                serial:35:F3:0E:C4:45:F2:4F:41:83:D5:8A:BB:4B:24:CC:A9:89:0C:26:38
            X509v3 Extended Key Usage: 
                TLS Web Server Authentication
            X509v3 Key Usage: 
                Digital Signature, Key Encipherment
            X509v3 Subject Alternative Name: 
                DNS:team177-server
    Signature Algorithm: sha256WithRSAEncryption
    Signature Value:
        6b:64:51:71:b1:a3:0d:02:ba:9b:97:e4:79:5e:b8:a7:61:75:
        8a:ed:bf:98:bc:1d:49:7e:6e:27:e4:d6:22:ca:cb:ce:a5:0b:
        79:1d:3e:eb:a6:40:3b:2e:1b:9a:d1:10:3d:f7:59:6e:07:34:
        21:c9:03:5a:d8:4c:f1:cd:07:ed:bd:cb:b7:aa:8d:61:53:cc:
        df:c3:f1:c3:bf:3d:d0:f8:b1:91:94:fa:72:e4:48:7e:81:38:
        7e:6a:16:b5:c5:7e:fd:c8:6f:57:3e:54:21:a3:fc:27:73:95:
        c6:42:9f:d7:79:70:38:fc:e8:2b:f3:82:30:1c:49:bd:22:bf:
        ad:43:7e:2b:dd:21:3c:cb:b8:79:45:fa:e8:7b:9d:bb:3e:dc:
        ad:c2:e3:00:90:08:ae:93:c6:96:eb:d3:d4:e2:67:33:28:33:
        7c:4f:29:30:06:60:c9:df:3e:e7:1b:9e:6f:06:a3:52:0a:ad:
        25:46:8c:0f:5e:f7:3b:24:ad:76:54:57:4d:54:58:ae:81:f8:
        a9:ee:13:e2:66:9d:49:f2:70:35:e2:b6:03:82:9f:2a:79:13:
        26:16:79:2a:8a:0a:ee:09:de:54:83:be:4b:4b:1b:af:79:5a:
        cc:ef:b0:49:65:45:fd:d8:cb:80:86:6c:ea:19:d8:6e:9b:df:
        d1:29:be:c5
-----BEGIN CERTIFICATE-----
MIIDdzCCAl+gAwIBAgIQeRg3HC6tLS74d2GqzjjhIDANBgkqhkiG9w0BAQsFADAW
MRQwEgYDVQQDDAt0ZWFtMTc3LW5ldDAeFw0yMzExMDQxMDQzNTBaFw0yNjEwMTkx
MDQzNTBaMBkxFzAVBgNVBAMMDnRlYW0xNzctc2VydmVyMIIBIjANBgkqhkiG9w0B
AQEFAAOCAQ8AMIIBCgKCAQEAlfJSjU5y/7WT7OrFvdz0WXwVK21mAPrfz5dEwglP
wn5Bl+bgoECmLZ9kPaVjKmifFUeClrrBmeTARi8WsBbIH8qU1J6By7QFyJPkhC6A
LwGaarLkKADTyYJDTevQMPyAjF7cp0gYl6qlecZye4hYdPZO8g1yVmoMuhNKU3/D
fmca7ekjuQ3zRW/wA3xsyqg7BctEbjWGCn9p3uOGromLKKOb99CPtgoYTJYTjN6O
k85ehmKM3LcMVzdagejhWrPAYb9QuM1pa0ha4aW3Lfo2EuMm1TspSZbLtPgM6uad
ySxxFI44PIwFErfFZBpSBT70X7NNSfkv33ng6Nt4sOVemwIDAQABo4G9MIG6MAkG
A1UdEwQCMAAwHQYDVR0OBBYEFEgchfbz1Q4DY3gSQJZE4Fv7v4tZMFEGA1UdIwRK
MEiAFHohCr8wRLw0HWn3Y0dM1kTbtDIyoRqkGDAWMRQwEgYDVQQDDAt0ZWFtMTc3
LW5ldIIUNfMOxEXyT0GD1Yq7SyTMqYkMJjgwEwYDVR0lBAwwCgYIKwYBBQUHAwEw
CwYDVR0PBAQDAgWgMBkGA1UdEQQSMBCCDnRlYW0xNzctc2VydmVyMA0GCSqGSIb3
DQEBCwUAA4IBAQBrZFFxsaMNArqbl+R5XrinYXWK7b+YvB1Jfm4n5NYiysvOpQt5
HT7rpkA7Lhua0RA991luBzQhyQNa2EzxzQftvcu3qo1hU8zfw/HDvz3Q+LGRlPpy
5Eh+gTh+aha1xX79yG9XPlQho/wnc5XGQp/XeXA4/Ogr84IwHEm9Ir+tQ34r3SE8
y7h5Rfroe527PtytwuMAkAiuk8aW69PU4mczKDN8TykwBmDJ3z7nG55vBqNSCq0l
RowPXvc7JK12VFdNVFiugfip7hPiZp1J8nA14rYDgp8qeRMmFnkqigruCd5Ug75L
SxuveVrM77BJZUX92MuAhmzqGdhum9/RKb7F
-----END CERTIFICATE-----
