Certificate:
    Data:
        Version: 3 (0x2)
        Serial Number:
            81:e7:df:6a:99:dc:3b:46:f6:46:03:d0:2d:52:15:78
        Signature Algorithm: sha256WithRSAEncryption
        Issuer: CN=team177-net
        Validity
            Not Before: Nov  3 20:42:27 2023 GMT
            Not After : Oct 18 20:42:27 2026 GMT
        Subject: CN=team177-server
        Subject Public Key Info:
            Public Key Algorithm: rsaEncryption
                Public-Key: (2048 bit)
                Modulus:
                    00:a4:4e:29:9e:40:e3:a4:58:d4:6b:6c:9b:2c:03:
                    c3:ca:2b:8e:fe:8a:52:fc:ee:2c:61:06:0a:49:e9:
                    aa:08:76:fc:77:70:2b:5f:b6:69:4e:70:1f:db:17:
                    d4:9a:68:ff:1a:a2:0c:7f:b3:6c:d7:65:d3:95:65:
                    11:a6:ef:0a:b7:f9:98:4e:0a:dc:d7:cb:05:63:3e:
                    dd:4c:16:c4:b6:d8:1e:7f:b4:f6:8e:e3:8d:70:37:
                    74:01:c8:85:25:03:7b:41:9d:9b:ce:19:0d:ed:2a:
                    af:e0:a9:32:07:7b:55:e6:25:73:46:6d:aa:47:5b:
                    62:b5:c4:b8:cf:43:62:3a:e1:25:6a:4c:70:e7:76:
                    70:71:63:2f:dc:ea:79:3c:3a:ab:e0:2e:57:bf:83:
                    06:6f:a7:ee:fc:9f:29:bf:96:3e:e6:5d:92:9c:4c:
                    3f:2d:35:79:eb:03:e3:86:ea:d4:35:e8:79:5f:76:
                    81:fc:3a:85:25:4c:43:73:28:52:13:1a:e3:35:95:
                    2a:55:8f:99:45:83:a0:7b:7c:22:89:3a:01:cc:d6:
                    6c:10:17:fe:0f:d6:6e:bf:5c:1f:09:d5:72:c9:e0:
                    c1:47:84:c3:e6:6a:00:ce:08:ec:b6:e8:3f:62:1e:
                    2f:6f:4d:76:d3:29:27:77:ce:4e:b2:2e:bc:0d:60:
                    e4:7d
                Exponent: 65537 (0x10001)
        X509v3 extensions:
            X509v3 Basic Constraints: 
                CA:FALSE
            X509v3 Subject Key Identifier: 
                92:8E:91:4C:F9:67:E6:58:49:E4:34:36:F7:70:41:CD:1E:E8:A7:D1
            X509v3 Authority Key Identifier: 
                keyid:81:33:E1:05:5F:12:A6:56:E9:90:4F:CC:C6:13:6D:8F:B1:A0:EB:BA
                DirName:/CN=team177-net
                serial:79:48:E7:B5:F2:47:DD:A3:4B:E4:C2:71:26:2D:D1:B0:4A:51:C3:47
            X509v3 Extended Key Usage: 
                TLS Web Server Authentication
            X509v3 Key Usage: 
                Digital Signature, Key Encipherment
            X509v3 Subject Alternative Name: 
                DNS:team177-server
    Signature Algorithm: sha256WithRSAEncryption
    Signature Value:
        1d:ad:25:1a:6b:fa:76:98:e6:1d:af:b2:ca:14:0f:c8:b0:f9:
        9d:b0:2f:e7:e8:7e:50:5f:0a:d5:91:fc:74:37:e5:93:09:ae:
        3c:b4:f6:72:e6:1f:ea:e0:39:31:85:25:3c:64:25:08:f6:79:
        7c:dd:9c:7c:7a:58:95:25:c3:21:07:27:57:12:ea:85:d6:04:
        4d:29:6a:29:9e:fe:4f:52:84:7b:4a:dc:2a:6d:a9:cf:ec:a9:
        f5:19:b7:8f:72:79:42:23:e5:b7:a8:c5:9d:48:18:93:0c:b9:
        29:70:ae:f5:11:d8:55:79:64:f7:4f:78:2e:49:c4:43:36:6b:
        b6:99:83:9e:c3:0c:ca:f4:03:3b:c4:5d:e3:18:22:5c:05:d5:
        2b:7f:37:52:75:fe:3d:39:97:c7:a1:18:29:98:2b:4c:1e:20:
        15:fb:1a:85:a1:57:49:ab:06:fb:ee:df:01:55:9c:a7:d4:9d:
        5e:c1:59:f0:c8:1e:d7:29:65:aa:45:4c:1b:27:82:d6:87:5e:
        5b:cf:d3:bd:40:ae:75:db:f2:f5:3c:08:51:1a:76:91:ce:98:
        ff:95:a8:85:95:31:e8:c8:48:62:83:bd:ac:ac:26:58:1c:72:
        eb:13:73:33:90:4a:9d:ed:25:1f:69:09:2e:62:60:2e:ba:ca:
        7c:41:39:12
-----BEGIN CERTIFICATE-----
MIIDeDCCAmCgAwIBAgIRAIHn32qZ3DtG9kYD0C1SFXgwDQYJKoZIhvcNAQELBQAw
FjEUMBIGA1UEAwwLdGVhbTE3Ny1uZXQwHhcNMjMxMTAzMjA0MjI3WhcNMjYxMDE4
MjA0MjI3WjAZMRcwFQYDVQQDDA50ZWFtMTc3LXNlcnZlcjCCASIwDQYJKoZIhvcN
AQEBBQADggEPADCCAQoCggEBAKROKZ5A46RY1GtsmywDw8orjv6KUvzuLGEGCknp
qgh2/HdwK1+2aU5wH9sX1Jpo/xqiDH+zbNdl05VlEabvCrf5mE4K3NfLBWM+3UwW
xLbYHn+09o7jjXA3dAHIhSUDe0Gdm84ZDe0qr+CpMgd7VeYlc0ZtqkdbYrXEuM9D
YjrhJWpMcOd2cHFjL9zqeTw6q+AuV7+DBm+n7vyfKb+WPuZdkpxMPy01eesD44bq
1DXoeV92gfw6hSVMQ3MoUhMa4zWVKlWPmUWDoHt8Iok6AczWbBAX/g/Wbr9cHwnV
csngwUeEw+ZqAM4I7LboP2IeL29NdtMpJ3fOTrIuvA1g5H0CAwEAAaOBvTCBujAJ
BgNVHRMEAjAAMB0GA1UdDgQWBBSSjpFM+WfmWEnkNDb3cEHNHuin0TBRBgNVHSME
SjBIgBSBM+EFXxKmVumQT8zGE22PsaDruqEapBgwFjEUMBIGA1UEAwwLdGVhbTE3
Ny1uZXSCFHlI57XyR92jS+TCcSYt0bBKUcNHMBMGA1UdJQQMMAoGCCsGAQUFBwMB
MAsGA1UdDwQEAwIFoDAZBgNVHREEEjAQgg50ZWFtMTc3LXNlcnZlcjANBgkqhkiG
9w0BAQsFAAOCAQEAHa0lGmv6dpjmHa+yyhQPyLD5nbAv5+h+UF8K1ZH8dDflkwmu
PLT2cuYf6uA5MYUlPGQlCPZ5fN2cfHpYlSXDIQcnVxLqhdYETSlqKZ7+T1KEe0rc
Km2pz+yp9Rm3j3J5QiPlt6jFnUgYkwy5KXCu9RHYVXlk9094LknEQzZrtpmDnsMM
yvQDO8Rd4xgiXAXVK383UnX+PTmXx6EYKZgrTB4gFfsahaFXSasG++7fAVWcp9Sd
XsFZ8Mge1yllqkVMGyeC1odeW8/TvUCuddvy9TwIURp2kc6Y/5WohZUx6MhIYoO9
rKwmWBxy6xNzM5BKne0lH2kJLmJgLrrKfEE5Eg==
-----END CERTIFICATE-----
