Certificate:
    Data:
        Version: 3 (0x2)
        Serial Number:
            84:d2:11:c8:56:94:c2:25:98:6e:53:20:42:41:b0:95
        Signature Algorithm: sha256WithRSAEncryption
        Issuer: CN=team177-net
        Validity
            Not Before: Nov  4 10:43:50 2023 GMT
            Not After : Oct 19 10:43:50 2026 GMT
        Subject: CN=team177-client
        Subject Public Key Info:
            Public Key Algorithm: rsaEncryption
                Public-Key: (2048 bit)
                Modulus:
                    00:ba:00:00:fa:a4:52:5c:7c:89:6c:2d:9f:e5:ff:
                    f2:d0:49:3c:8c:b5:1f:9d:41:57:7f:c9:98:d1:9d:
                    00:29:79:fc:13:c2:63:88:d4:92:e2:1d:38:3e:e9:
                    01:12:2c:b9:eb:0c:00:c2:18:b4:f7:59:cc:e8:b7:
                    b0:15:da:95:0b:56:79:6e:d3:c8:42:04:94:a7:c3:
                    24:64:3c:39:f4:6d:05:48:81:c4:64:1f:9d:b4:f1:
                    7d:62:5f:7a:b1:79:65:c1:9d:40:25:f8:0f:ed:b2:
                    9b:b6:40:0b:82:57:84:39:c5:dd:c6:37:06:8f:40:
                    18:cf:9e:3b:44:48:e5:32:91:7d:27:8f:0e:02:ae:
                    cd:c2:83:2a:98:08:83:81:e8:ac:a0:d4:51:da:12:
                    ed:a2:a5:ce:68:e9:fb:20:f3:b5:2f:b4:cf:1c:25:
                    67:ac:be:1d:ef:83:ea:b3:8e:24:23:9d:e5:08:41:
                    f4:eb:29:1e:9f:ed:79:76:35:15:00:16:b8:16:4d:
                    c9:8f:9a:38:27:be:17:a1:e7:21:23:1e:92:a6:d3:
                    91:60:18:81:a0:23:35:f5:da:be:8f:0a:07:e0:34:
                    a1:64:ab:0b:b6:69:20:96:97:b5:7b:52:07:08:90:
                    8d:d0:c9:14:98:b1:f6:25:ff:cc:28:d2:7f:4e:13:
                    72:13
                Exponent: 65537 (0x10001)
        X509v3 extensions:
            X509v3 Basic Constraints: 
                CA:FALSE
            X509v3 Subject Key Identifier: 
                E0:0E:F3:65:6A:1F:0A:C4:40:B7:C2:A1:8D:54:27:84:6F:0C:6F:9F
            X509v3 Authority Key Identifier: 
                keyid:7A:21:0A:BF:30:44:BC:34:1D:69:F7:63:47:4C:D6:44:DB:B4:32:32
                DirName:/CN=team177-net
                serial:35:F3:0E:C4:45:F2:4F:41:83:D5:8A:BB:4B:24:CC:A9:89:0C:26:38
            X509v3 Extended Key Usage: 
                TLS Web Client Authentication
            X509v3 Key Usage: 
                Digital Signature
    Signature Algorithm: sha256WithRSAEncryption
    Signature Value:
        6a:54:ba:01:5d:20:ce:cf:c6:f2:3b:c4:8d:38:0e:8e:30:e0:
        89:5e:b1:6b:03:52:21:b5:c2:ea:13:ba:27:77:09:71:fa:43:
        73:bf:b3:8b:27:f3:7a:68:77:c5:74:1b:95:b1:20:24:8e:b7:
        4b:c7:87:58:5d:db:06:48:e3:73:19:4e:f5:57:be:f3:66:c4:
        23:5c:e6:39:7e:a3:9c:8b:ad:1a:b4:60:17:26:2a:27:4f:c1:
        ff:e3:b4:56:24:97:30:56:8b:e0:e6:64:57:36:63:bd:af:cc:
        b2:de:78:98:77:c2:2e:b2:bd:bc:5b:5e:33:82:c9:63:04:14:
        05:99:0c:f3:8b:a4:83:96:6b:b0:36:c8:c4:e4:24:21:2a:0a:
        02:75:77:de:0c:ad:4e:f2:f5:56:42:30:98:ed:be:5b:e7:e4:
        ec:7b:ac:a9:76:c0:04:1c:c7:f2:d0:01:a1:ce:9d:a3:b9:e2:
        f7:84:e7:7a:c3:b9:46:b9:99:f9:da:8d:8e:e2:93:6f:2b:c2:
        0d:1a:1b:04:23:c8:e9:02:3a:3b:85:ea:4d:6f:6c:72:56:c8:
        b1:0c:99:34:d3:03:bb:45:13:3f:e7:d3:1b:6a:6d:62:aa:d5:
        c1:e7:2c:ce:c1:29:24:65:5a:8a:06:da:f0:69:48:60:6b:41:
        db:d4:55:87
-----BEGIN CERTIFICATE-----
MIIDXTCCAkWgAwIBAgIRAITSEchWlMIlmG5TIEJBsJUwDQYJKoZIhvcNAQELBQAw
FjEUMBIGA1UEAwwLdGVhbTE3Ny1uZXQwHhcNMjMxMTA0MTA0MzUwWhcNMjYxMDE5
MTA0MzUwWjAZMRcwFQYDVQQDDA50ZWFtMTc3LWNsaWVudDCCASIwDQYJKoZIhvcN
AQEBBQADggEPADCCAQoCggEBALoAAPqkUlx8iWwtn+X/8tBJPIy1H51BV3/JmNGd
ACl5/BPCY4jUkuIdOD7pARIsuesMAMIYtPdZzOi3sBXalQtWeW7TyEIElKfDJGQ8
OfRtBUiBxGQfnbTxfWJferF5ZcGdQCX4D+2ym7ZAC4JXhDnF3cY3Bo9AGM+eO0RI
5TKRfSePDgKuzcKDKpgIg4HorKDUUdoS7aKlzmjp+yDztS+0zxwlZ6y+He+D6rOO
JCOd5QhB9OspHp/teXY1FQAWuBZNyY+aOCe+F6HnISMekqbTkWAYgaAjNfXavo8K
B+A0oWSrC7ZpIJaXtXtSBwiQjdDJFJix9iX/zCjSf04TchMCAwEAAaOBojCBnzAJ
BgNVHRMEAjAAMB0GA1UdDgQWBBTgDvNlah8KxEC3wqGNVCeEbwxvnzBRBgNVHSME
SjBIgBR6IQq/MES8NB1p92NHTNZE27QyMqEapBgwFjEUMBIGA1UEAwwLdGVhbTE3
Ny1uZXSCFDXzDsRF8k9Bg9WKu0skzKmJDCY4MBMGA1UdJQQMMAoGCCsGAQUFBwMC
MAsGA1UdDwQEAwIHgDANBgkqhkiG9w0BAQsFAAOCAQEAalS6AV0gzs/G8jvEjTgO
jjDgiV6xawNSIbXC6hO6J3cJcfpDc7+ziyfzemh3xXQblbEgJI63S8eHWF3bBkjj
cxlO9Ve+82bEI1zmOX6jnIutGrRgFyYqJ0/B/+O0ViSXMFaL4OZkVzZjva/Mst54
mHfCLrK9vFteM4LJYwQUBZkM84ukg5ZrsDbIxOQkISoKAnV33gytTvL1VkIwmO2+
W+fk7HusqXbABBzH8tABoc6do7ni94TnesO5RrmZ+dqNjuKTbyvCDRobBCPI6QI6
O4XqTW9sclbIsQyZNNMDu0UTP+fTG2ptYqrVwecszsEpJGVaigba8GlIYGtB29RV
hw==
-----END CERTIFICATE-----
