Certificate:
    Data:
        Version: 3 (0x2)
        Serial Number:
            d1:a5:a4:70:6b:d6:f4:40:9c:9a:6d:18:92:d4:88:a8
        Signature Algorithm: sha256WithRSAEncryption
        Issuer: CN=team177-net
        Validity
            Not Before: Nov  4 11:31:08 2023 GMT
            Not After : Oct 19 11:31:08 2026 GMT
        Subject: CN=team177-client
        Subject Public Key Info:
            Public Key Algorithm: rsaEncryption
                Public-Key: (2048 bit)
                Modulus:
                    00:bf:37:80:f6:db:69:33:c8:05:cc:07:d4:c4:44:
                    10:9d:9b:e3:32:1b:72:6d:db:df:e0:9b:04:80:1f:
                    bb:41:bb:96:4b:a0:52:c9:bd:f8:51:1c:74:10:51:
                    6e:2a:5a:3d:d5:c9:c8:e1:22:59:c6:d3:d9:57:ae:
                    13:8c:5e:f6:6c:74:66:91:00:8a:24:67:df:03:4b:
                    de:b9:db:4d:f3:a9:37:fa:4d:f0:b5:22:72:cd:0c:
                    75:59:33:e8:d7:4d:58:88:15:0d:5e:00:0e:f4:f8:
                    68:b7:1b:09:ed:51:ca:c7:c3:12:cc:fc:54:ee:69:
                    ce:8d:05:f6:47:68:78:7f:07:2f:bf:d1:5f:cb:a3:
                    4e:22:52:96:48:25:b6:06:36:cf:6d:07:e7:7f:fb:
                    e3:9e:36:67:1b:a0:59:e4:ff:2c:33:98:35:03:ea:
                    de:6e:3f:72:02:1a:85:51:36:e1:7e:27:7f:88:fd:
                    17:41:27:67:21:be:00:d3:1a:f4:12:3c:54:5a:14:
                    fa:5c:0d:02:ca:16:e9:80:6b:f0:26:af:d4:b7:7a:
                    ed:dd:28:95:39:fd:d6:20:31:a2:78:28:5c:ba:fd:
                    71:01:99:62:ea:05:53:a4:02:cd:22:09:84:06:38:
                    1e:07:5b:88:5d:e4:f8:86:66:b4:bf:93:d5:97:6b:
                    ac:27
                Exponent: 65537 (0x10001)
        X509v3 extensions:
            X509v3 Basic Constraints: 
                CA:FALSE
            X509v3 Subject Key Identifier: 
                7E:B5:47:61:C1:2B:3F:A3:D3:35:9B:87:45:4C:9B:0C:21:65:A3:A5
            X509v3 Authority Key Identifier: 
                keyid:6F:67:24:A8:47:C0:AC:7E:76:17:A6:F4:23:D4:DC:38:C5:AA:D9:DF
                DirName:/CN=team177-net
                serial:3B:BC:6A:C2:A5:7D:71:C3:49:D7:7B:67:09:61:76:77:1A:EC:C5:E5
            X509v3 Extended Key Usage: 
                TLS Web Client Authentication
            X509v3 Key Usage: 
                Digital Signature
    Signature Algorithm: sha256WithRSAEncryption
    Signature Value:
        b3:df:53:a9:f8:56:e5:42:f5:ad:d2:09:91:57:9d:db:b5:7b:
        d3:60:50:6e:40:39:2b:3f:ee:8f:34:ae:37:ac:e4:7a:9c:c3:
        32:60:6d:b6:a6:5e:ad:a3:53:0d:b9:65:9c:96:72:0a:64:b1:
        8b:53:d0:34:e3:08:d1:37:ea:85:f5:03:92:b8:a8:a1:ba:22:
        b0:01:eb:4e:6b:1a:fa:23:27:c9:ea:75:cf:c4:68:8f:b8:c2:
        a9:3c:7c:62:8c:23:f2:69:a0:ad:69:ef:49:b6:50:3e:1d:de:
        d5:f6:9d:ae:a3:2b:6b:dd:af:ca:f5:a3:7c:5a:2e:b1:a1:30:
        71:43:c0:8b:2e:f8:39:16:eb:e8:08:22:6e:69:9b:67:2d:3e:
        dd:87:9b:e3:dd:42:b5:9a:79:44:7c:ad:9c:f4:3f:38:5a:75:
        5a:07:0d:e9:24:31:e6:8e:5e:f4:29:81:7a:07:b0:39:93:d5:
        e7:9c:c6:32:90:ed:37:68:fe:72:b2:a2:34:ca:f8:f4:67:d6:
        cd:f1:e7:80:f3:fb:f2:19:ab:59:64:bc:b9:b8:3c:0f:71:94:
        50:06:55:47:b9:32:6f:e9:12:7a:35:aa:46:f1:32:b6:38:85:
        43:6b:ba:93:ec:9c:d6:5b:57:b1:73:d2:d8:f6:ba:ba:94:8d:
        2c:d3:1d:c3
-----BEGIN CERTIFICATE-----
MIIDXTCCAkWgAwIBAgIRANGlpHBr1vRAnJptGJLUiKgwDQYJKoZIhvcNAQELBQAw
FjEUMBIGA1UEAwwLdGVhbTE3Ny1uZXQwHhcNMjMxMTA0MTEzMTA4WhcNMjYxMDE5
MTEzMTA4WjAZMRcwFQYDVQQDDA50ZWFtMTc3LWNsaWVudDCCASIwDQYJKoZIhvcN
AQEBBQADggEPADCCAQoCggEBAL83gPbbaTPIBcwH1MREEJ2b4zIbcm3b3+CbBIAf
u0G7lkugUsm9+FEcdBBRbipaPdXJyOEiWcbT2VeuE4xe9mx0ZpEAiiRn3wNL3rnb
TfOpN/pN8LUics0MdVkz6NdNWIgVDV4ADvT4aLcbCe1RysfDEsz8VO5pzo0F9kdo
eH8HL7/RX8ujTiJSlkgltgY2z20H53/74542ZxugWeT/LDOYNQPq3m4/cgIahVE2
4X4nf4j9F0EnZyG+ANMa9BI8VFoU+lwNAsoW6YBr8Cav1Ld67d0olTn91iAxongo
XLr9cQGZYuoFU6QCzSIJhAY4HgdbiF3k+IZmtL+T1ZdrrCcCAwEAAaOBojCBnzAJ
BgNVHRMEAjAAMB0GA1UdDgQWBBR+tUdhwSs/o9M1m4dFTJsMIWWjpTBRBgNVHSME
SjBIgBRvZySoR8CsfnYXpvQj1Nw4xarZ36EapBgwFjEUMBIGA1UEAwwLdGVhbTE3
Ny1uZXSCFDu8asKlfXHDSdd7Zwlhdnca7MXlMBMGA1UdJQQMMAoGCCsGAQUFBwMC
MAsGA1UdDwQEAwIHgDANBgkqhkiG9w0BAQsFAAOCAQEAs99TqfhW5UL1rdIJkVed
27V702BQbkA5Kz/ujzSuN6zkepzDMmBttqZeraNTDbllnJZyCmSxi1PQNOMI0Tfq
hfUDkriooboisAHrTmsa+iMnyep1z8Roj7jCqTx8Yowj8mmgrWnvSbZQPh3e1fad
rqMra92vyvWjfFousaEwcUPAiy74ORbr6AgibmmbZy0+3Yeb491CtZp5RHytnPQ/
OFp1WgcN6SQx5o5e9CmBegewOZPV55zGMpDtN2j+crKiNMr49GfWzfHngPP78hmr
WWS8ubg8D3GUUAZVR7kyb+kSejWqRvEytjiFQ2u6k+yc1ltXsXPS2Pa6upSNLNMd
ww==
-----END CERTIFICATE-----
