Certificate:
    Data:
        Version: 3 (0x2)
        Serial Number:
            dc:dd:b9:48:a2:b5:cf:cf:2f:0c:23:fa:bf:d5:83:e1
        Signature Algorithm: sha256WithRSAEncryption
        Issuer: CN=team106-net
        Validity
            Not Before: Nov  3 20:41:03 2023 GMT
            Not After : Oct 18 20:41:03 2026 GMT
        Subject: CN=team106-server
        Subject Public Key Info:
            Public Key Algorithm: rsaEncryption
                Public-Key: (2048 bit)
                Modulus:
                    00:c3:12:e3:96:a3:ff:01:d7:0f:1a:39:03:c9:c6:
                    50:e7:3c:2a:28:9d:5f:ed:38:c9:f2:d1:4f:f6:a1:
                    dc:61:53:73:01:c6:a6:71:4f:1d:09:95:56:7e:50:
                    bd:fc:f4:10:85:bb:e9:14:8b:5a:cf:4e:4f:4c:b3:
                    49:2d:ea:07:95:c3:ff:1a:7a:23:8b:ce:1f:4b:0f:
                    6f:5e:a9:51:89:cc:41:49:c1:71:a8:42:33:40:14:
                    38:51:98:a6:b6:17:4e:2b:8b:0d:37:75:9e:fa:65:
                    1f:70:41:53:7c:5d:6e:96:46:f7:23:76:c7:9f:6e:
                    a0:fc:07:9a:c9:bf:0c:85:4b:20:d8:7c:56:ec:d9:
                    b6:c5:de:9e:8a:2f:8f:91:37:46:c2:a3:89:dd:c0:
                    74:af:66:72:ad:84:84:4c:6c:ea:ec:b5:49:e6:2b:
                    90:c1:62:15:40:2b:07:e7:29:86:6f:f4:7c:2b:d3:
                    29:56:c3:20:97:9c:41:04:b8:db:11:fd:1c:cf:ef:
                    c8:2c:d8:cd:e4:b9:78:f4:4c:9b:73:e9:65:18:e7:
                    ad:ab:8d:bc:40:63:17:e1:5d:f5:21:90:04:2e:ff:
                    15:ab:46:e9:f9:45:49:37:ef:b9:70:62:7f:27:e2:
                    9b:56:f6:16:81:d8:0e:db:74:f4:c1:4d:64:76:4a:
                    bf:e9
                Exponent: 65537 (0x10001)
        X509v3 extensions:
            X509v3 Basic Constraints: 
                CA:FALSE
            X509v3 Subject Key Identifier: 
                47:75:D5:8E:BF:27:BD:74:E1:1F:3E:6F:9C:52:48:AC:31:B0:62:25
            X509v3 Authority Key Identifier: 
                keyid:10:A5:B8:E1:97:13:FB:3B:5B:92:4C:04:07:64:EF:C5:20:E5:52:3A
                DirName:/CN=team106-net
                serial:32:C8:C9:A3:23:6B:A7:7B:43:90:35:8A:D8:3D:36:90:B2:70:59:16
            X509v3 Extended Key Usage: 
                TLS Web Server Authentication
            X509v3 Key Usage: 
                Digital Signature, Key Encipherment
            X509v3 Subject Alternative Name: 
                DNS:team106-server
    Signature Algorithm: sha256WithRSAEncryption
    Signature Value:
        8a:c8:2b:b2:1d:3b:e8:dc:2e:ba:5a:05:f3:97:39:59:b2:fd:
        5a:b4:38:9f:70:ad:c6:e7:ca:44:e6:9e:28:d0:c5:f7:02:d9:
        63:df:57:3e:86:7a:27:0b:51:bf:32:db:91:02:cb:ad:07:cb:
        df:af:76:b8:f2:14:9a:28:1c:b6:a4:04:7e:11:1b:50:84:33:
        a3:18:91:2d:1e:20:93:e6:e1:3b:c5:31:8a:8f:b3:c1:ee:ff:
        30:55:d7:05:87:d3:6c:25:8b:60:1d:bf:ec:f7:57:33:71:52:
        ce:cd:97:da:1c:13:8d:81:8d:a2:45:3c:a2:f2:77:7f:e1:bd:
        6b:7b:a2:41:6a:46:d4:d0:b2:a2:59:c7:d7:30:b0:91:d7:91:
        85:70:33:10:be:f6:9e:2d:51:09:f7:b1:89:99:da:a0:26:cb:
        e2:b3:ad:4c:39:79:d5:3e:c0:55:29:92:f1:a6:88:7e:f6:e3:
        67:64:42:d6:83:22:f8:cf:e1:40:b9:70:eb:66:07:1b:e0:ad:
        83:85:fc:ec:82:5e:ff:c9:da:3e:be:33:94:76:3f:8b:f6:ca:
        9d:b5:ef:47:ca:9d:10:1c:e8:21:d7:1e:df:d8:9e:38:a3:10:
        93:86:42:dc:bf:c9:c5:cd:96:69:a8:7c:c9:b4:39:df:6d:a5:
        0c:e5:fc:68
-----BEGIN CERTIFICATE-----
MIIDeDCCAmCgAwIBAgIRANzduUiitc/PLwwj+r/Vg+EwDQYJKoZIhvcNAQELBQAw
FjEUMBIGA1UEAwwLdGVhbTEwNi1uZXQwHhcNMjMxMTAzMjA0MTAzWhcNMjYxMDE4
MjA0MTAzWjAZMRcwFQYDVQQDDA50ZWFtMTA2LXNlcnZlcjCCASIwDQYJKoZIhvcN
AQEBBQADggEPADCCAQoCggEBAMMS45aj/wHXDxo5A8nGUOc8KiidX+04yfLRT/ah
3GFTcwHGpnFPHQmVVn5Qvfz0EIW76RSLWs9OT0yzSS3qB5XD/xp6I4vOH0sPb16p
UYnMQUnBcahCM0AUOFGYprYXTiuLDTd1nvplH3BBU3xdbpZG9yN2x59uoPwHmsm/
DIVLINh8VuzZtsXenoovj5E3RsKjid3AdK9mcq2EhExs6uy1SeYrkMFiFUArB+cp
hm/0fCvTKVbDIJecQQS42xH9HM/vyCzYzeS5ePRMm3PpZRjnrauNvEBjF+Fd9SGQ
BC7/FatG6flFSTfvuXBifyfim1b2FoHYDtt09MFNZHZKv+kCAwEAAaOBvTCBujAJ
BgNVHRMEAjAAMB0GA1UdDgQWBBRHddWOvye9dOEfPm+cUkisMbBiJTBRBgNVHSME
SjBIgBQQpbjhlxP7O1uSTAQHZO/FIOVSOqEapBgwFjEUMBIGA1UEAwwLdGVhbTEw
Ni1uZXSCFDLIyaMja6d7Q5A1itg9NpCycFkWMBMGA1UdJQQMMAoGCCsGAQUFBwMB
MAsGA1UdDwQEAwIFoDAZBgNVHREEEjAQgg50ZWFtMTA2LXNlcnZlcjANBgkqhkiG
9w0BAQsFAAOCAQEAisgrsh076NwuuloF85c5WbL9WrQ4n3CtxufKROaeKNDF9wLZ
Y99XPoZ6JwtRvzLbkQLLrQfL3692uPIUmigctqQEfhEbUIQzoxiRLR4gk+bhO8Ux
io+zwe7/MFXXBYfTbCWLYB2/7PdXM3FSzs2X2hwTjYGNokU8ovJ3f+G9a3uiQWpG
1NCyolnH1zCwkdeRhXAzEL72ni1RCfexiZnaoCbL4rOtTDl51T7AVSmS8aaIfvbj
Z2RC1oMi+M/hQLlw62YHG+Ctg4X87IJe/8naPr4zlHY/i/bKnbXvR8qdEBzoIdce
39ieOKMQk4ZC3L/Jxc2Waah8ybQ5322lDOX8aA==
-----END CERTIFICATE-----
