Certificate:
    Data:
        Version: 3 (0x2)
        Serial Number:
            3b:37:b9:79:7c:c0:81:f3:dd:d5:b7:6e:06:05:72:19
        Signature Algorithm: sha256WithRSAEncryption
        Issuer: CN=team4-net
        Validity
            Not Before: Oct 31 16:30:13 2023 GMT
            Not After : Oct 15 16:30:13 2026 GMT
        Subject: CN=team4-client
        Subject Public Key Info:
            Public Key Algorithm: rsaEncryption
                Public-Key: (2048 bit)
                Modulus:
                    00:b4:90:4d:74:dd:e2:8c:5e:b1:75:e6:7b:81:02:
                    c7:5c:29:74:b4:33:38:75:c0:e1:8f:3c:90:c1:c6:
                    5d:cb:51:e2:48:e1:48:b6:02:a4:03:ad:3c:a9:43:
                    cb:e7:26:70:1f:56:5f:85:c5:86:bb:2a:fd:8b:7f:
                    0c:30:fa:3b:2d:9d:b5:ff:5b:84:91:a5:b5:b5:03:
                    dd:5b:02:8d:8f:9a:99:2b:b9:1f:52:8b:58:bc:f4:
                    5c:c2:09:ae:a7:87:47:ab:bd:0a:72:2f:dc:b2:f1:
                    84:3c:7c:c6:b1:9d:3c:66:24:9d:a1:ba:9d:be:84:
                    ce:e0:04:06:a4:99:26:2b:df:6a:bb:ca:54:6f:23:
                    1c:7e:2c:ab:b3:33:e0:05:df:ca:c8:f6:45:b6:56:
                    8d:b0:49:e5:bf:4a:5e:ca:2b:40:12:f2:5f:b0:fa:
                    bc:56:1e:7e:35:b3:32:8c:84:50:1b:f5:66:10:c7:
                    99:88:d8:7f:5c:29:46:04:41:a4:59:4e:3b:f9:f7:
                    f2:10:c1:24:af:7a:de:fe:ae:46:1b:9f:8d:2c:0f:
                    4c:f6:86:1b:b1:bc:ed:b0:c3:26:48:d0:7a:11:c7:
                    0d:6b:26:5a:92:03:2e:de:0d:a9:47:70:96:8b:66:
                    57:7a:f7:f5:73:33:9d:21:f7:83:54:91:de:ba:e8:
                    04:df
                Exponent: 65537 (0x10001)
        X509v3 extensions:
            X509v3 Basic Constraints: 
                CA:FALSE
            X509v3 Subject Key Identifier: 
                73:33:53:F1:20:6F:14:61:6B:B0:42:A8:DE:74:E1:CC:84:1C:94:72
            X509v3 Authority Key Identifier: 
                keyid:15:AC:1A:60:03:DF:66:8D:B6:C3:45:2A:9A:25:96:26:A2:08:06:B4
                DirName:/CN=team4-net
                serial:7A:40:25:35:3D:1E:C5:DD:30:B9:57:68:EB:43:12:DF:74:E3:57:05
            X509v3 Extended Key Usage: 
                TLS Web Client Authentication
            X509v3 Key Usage: 
                Digital Signature
    Signature Algorithm: sha256WithRSAEncryption
    Signature Value:
        c2:4a:e1:f0:2a:94:4c:94:d7:2f:c8:ed:5e:93:27:62:46:69:
        7c:74:9f:04:18:8f:f2:e0:f1:d6:57:4d:0b:91:f5:35:8f:62:
        07:b9:26:91:48:1c:d8:2d:de:6a:b4:94:0b:fd:bc:e1:41:4b:
        4e:86:07:34:c3:a6:ac:08:7e:8c:da:f1:b6:d9:50:12:49:3e:
        48:67:75:43:72:c4:df:f4:40:af:a6:d4:26:23:f3:70:b9:7f:
        d3:1a:10:b5:8a:6b:32:aa:2e:82:02:46:9c:98:8e:76:92:d0:
        e1:fa:3c:ae:09:0e:e5:51:7e:91:50:21:59:99:d7:8e:e4:6e:
        fb:52:6c:a7:3b:e3:e4:b1:13:cb:ba:33:63:67:61:e5:87:e3:
        46:fb:47:97:cf:8c:d0:69:1b:d3:b7:2c:fd:52:3a:bf:b4:66:
        60:fa:0a:b7:76:4f:fb:c6:f1:06:e2:f5:4f:8c:e0:8f:0c:af:
        52:14:72:74:a1:29:55:1d:a2:11:56:ee:ce:ff:9e:78:cd:83:
        6f:cf:d1:ab:0a:aa:9e:f4:21:c1:50:a2:10:5e:58:7e:8a:e6:
        9e:00:02:be:83:57:fb:9e:5d:ed:e2:86:f6:92:a6:c8:40:1d:
        9b:1b:39:83:bf:aa:7e:70:93:f3:7d:32:c3:98:74:e8:e3:cf:
        72:39:c4:8f
-----BEGIN CERTIFICATE-----
MIIDVjCCAj6gAwIBAgIQOze5eXzAgfPd1bduBgVyGTANBgkqhkiG9w0BAQsFADAU
MRIwEAYDVQQDDAl0ZWFtNC1uZXQwHhcNMjMxMDMxMTYzMDEzWhcNMjYxMDE1MTYz
MDEzWjAXMRUwEwYDVQQDDAx0ZWFtNC1jbGllbnQwggEiMA0GCSqGSIb3DQEBAQUA
A4IBDwAwggEKAoIBAQC0kE103eKMXrF15nuBAsdcKXS0Mzh1wOGPPJDBxl3LUeJI
4Ui2AqQDrTypQ8vnJnAfVl+FxYa7Kv2Lfwww+jstnbX/W4SRpbW1A91bAo2Pmpkr
uR9Si1i89FzCCa6nh0ervQpyL9yy8YQ8fMaxnTxmJJ2hup2+hM7gBAakmSYr32q7
ylRvIxx+LKuzM+AF38rI9kW2Vo2wSeW/Sl7KK0AS8l+w+rxWHn41szKMhFAb9WYQ
x5mI2H9cKUYEQaRZTjv59/IQwSSvet7+rkYbn40sD0z2hhuxvO2wwyZI0HoRxw1r
JlqSAy7eDalHcJaLZld69/VzM50h94NUkd666ATfAgMBAAGjgaAwgZ0wCQYDVR0T
BAIwADAdBgNVHQ4EFgQUczNT8SBvFGFrsEKo3nThzIQclHIwTwYDVR0jBEgwRoAU
FawaYAPfZo22w0UqmiWWJqIIBrShGKQWMBQxEjAQBgNVBAMMCXRlYW00LW5ldIIU
ekAlNT0exd0wuVdo60MS33TjVwUwEwYDVR0lBAwwCgYIKwYBBQUHAwIwCwYDVR0P
BAQDAgeAMA0GCSqGSIb3DQEBCwUAA4IBAQDCSuHwKpRMlNcvyO1ekydiRml8dJ8E
GI/y4PHWV00LkfU1j2IHuSaRSBzYLd5qtJQL/bzhQUtOhgc0w6asCH6M2vG22VAS
ST5IZ3VDcsTf9ECvptQmI/NwuX/TGhC1imsyqi6CAkacmI52ktDh+jyuCQ7lUX6R
UCFZmdeO5G77UmynO+PksRPLujNjZ2Hlh+NG+0eXz4zQaRvTtyz9Ujq/tGZg+gq3
dk/7xvEG4vVPjOCPDK9SFHJ0oSlVHaIRVu7O/554zYNvz9GrCqqe9CHBUKIQXlh+
iuaeAAK+g1f7nl3t4ob2kqbIQB2bGzmDv6p+cJPzfTLDmHTo489yOcSP
-----END CERTIFICATE-----
