Certificate:
    Data:
        Version: 3 (0x2)
        Serial Number:
            3f:2a:9d:c9:89:e5:11:3c:5c:1e:db:ab:d2:01:63:a9
        Signature Algorithm: sha256WithRSAEncryption
        Issuer: CN=team4-net
        Validity
            Not Before: Nov  4 10:40:17 2023 GMT
            Not After : Oct 19 10:40:17 2026 GMT
        Subject: CN=team4-server
        Subject Public Key Info:
            Public Key Algorithm: rsaEncryption
                Public-Key: (2048 bit)
                Modulus:
                    00:c0:b3:0b:96:19:84:ee:0b:e0:42:8c:46:e7:d6:
                    df:cb:8d:b6:85:b6:63:c4:33:53:ea:ab:1a:4f:71:
                    8a:d6:bc:f8:22:b7:95:99:b5:a2:21:d2:39:cb:6c:
                    17:35:85:ab:6f:25:89:10:72:82:04:4d:93:33:2b:
                    08:c5:ed:c4:99:fe:4b:fb:d8:72:9a:0d:b0:c0:8f:
                    97:fd:89:ca:46:c8:43:b7:92:ef:3f:04:73:33:71:
                    15:23:a4:3e:e4:26:50:95:75:68:55:32:f2:ac:ac:
                    4b:1f:33:d8:f4:7f:cd:58:e2:fb:46:56:7e:de:dd:
                    ad:b3:c6:e3:1b:08:ba:cc:d4:24:77:ca:8a:f4:e1:
                    9c:d9:af:ae:22:18:45:68:6c:c9:c7:bc:e0:88:0d:
                    da:eb:78:1a:c1:19:2d:e7:f1:12:77:ec:01:8d:b8:
                    b0:7a:0a:24:79:c7:47:12:67:8c:d6:35:4d:ac:22:
                    92:ae:01:c7:59:1d:eb:60:f7:3b:2c:1d:63:d2:d5:
                    53:77:29:29:74:71:43:c8:29:10:a8:d7:02:2d:33:
                    bb:b3:d9:98:13:ac:a0:18:a9:ab:4f:65:66:6b:f0:
                    ac:93:77:4d:f9:27:d7:2e:09:cd:cf:73:79:03:8f:
                    88:a2:84:a4:45:f5:db:d0:49:de:7e:e7:a5:6c:66:
                    c1:ff
                Exponent: 65537 (0x10001)
        X509v3 extensions:
            X509v3 Basic Constraints: 
                CA:FALSE
            X509v3 Subject Key Identifier: 
                16:9B:E9:D9:1B:F3:7E:1D:26:5E:44:0C:12:3F:1E:D8:21:F3:ED:9B
            X509v3 Authority Key Identifier: 
                keyid:1E:88:9D:7E:0D:55:4B:90:0F:D0:9C:E5:6A:49:66:AB:C6:7B:E9:BA
                DirName:/CN=team4-net
                serial:5B:71:15:E7:67:DD:C2:6B:E1:F3:B7:A1:CB:BA:E9:49:D0:B2:CC:E7
            X509v3 Extended Key Usage: 
                TLS Web Server Authentication
            X509v3 Key Usage: 
                Digital Signature, Key Encipherment
            X509v3 Subject Alternative Name: 
                DNS:team4-server
    Signature Algorithm: sha256WithRSAEncryption
    Signature Value:
        9f:fa:24:42:ea:86:80:5a:d1:e5:b9:ac:1c:27:59:bb:ac:05:
        aa:9c:79:4e:f4:15:2b:68:f2:6c:48:8a:3e:a3:6f:6e:06:c9:
        98:b3:6a:ed:cb:86:c7:73:77:8a:0e:08:d7:12:6f:09:3f:0c:
        11:c6:02:20:bb:8d:25:0f:c4:50:9d:82:4f:83:78:e4:c3:3c:
        d6:1c:f4:df:cd:30:c7:b8:ab:33:48:7b:11:18:1b:2b:ed:35:
        ec:9a:b9:41:b5:e6:27:5f:74:41:1f:67:75:c7:dd:a4:7c:e4:
        7d:b9:b0:ef:9a:c7:95:d1:9d:a0:98:cc:69:a2:9a:61:38:58:
        8f:ac:1c:e0:fe:15:06:df:67:57:4f:1c:8b:fb:c7:05:7e:35:
        1e:2e:05:a3:24:4e:c2:68:c8:88:f5:da:57:b1:1f:11:36:81:
        30:c1:eb:22:db:2f:6d:6b:4c:dc:02:38:19:88:bf:c9:1e:90:
        2d:f1:de:04:53:a3:25:2d:1c:cc:d2:24:b0:b0:88:f6:0f:5d:
        eb:9b:83:bf:61:6b:ce:df:32:cb:0c:fc:71:97:6f:ee:0d:6f:
        50:cf:5a:8d:ec:cf:8d:82:06:cb:ef:ef:5b:1f:1e:e6:df:21:
        c3:fe:f4:03:ab:42:f1:b3:6d:50:6d:97:b8:11:97:66:a3:a2:
        87:54:e2:b9
-----BEGIN CERTIFICATE-----
MIIDbzCCAlegAwIBAgIQPyqdyYnlETxcHtur0gFjqTANBgkqhkiG9w0BAQsFADAU
MRIwEAYDVQQDDAl0ZWFtNC1uZXQwHhcNMjMxMTA0MTA0MDE3WhcNMjYxMDE5MTA0
MDE3WjAXMRUwEwYDVQQDDAx0ZWFtNC1zZXJ2ZXIwggEiMA0GCSqGSIb3DQEBAQUA
A4IBDwAwggEKAoIBAQDAswuWGYTuC+BCjEbn1t/LjbaFtmPEM1PqqxpPcYrWvPgi
t5WZtaIh0jnLbBc1hatvJYkQcoIETZMzKwjF7cSZ/kv72HKaDbDAj5f9icpGyEO3
ku8/BHMzcRUjpD7kJlCVdWhVMvKsrEsfM9j0f81Y4vtGVn7e3a2zxuMbCLrM1CR3
yor04ZzZr64iGEVobMnHvOCIDdrreBrBGS3n8RJ37AGNuLB6CiR5x0cSZ4zWNU2s
IpKuAcdZHetg9zssHWPS1VN3KSl0cUPIKRCo1wItM7uz2ZgTrKAYqatPZWZr8KyT
d035J9cuCc3Pc3kDj4iihKRF9dvQSd5+56VsZsH/AgMBAAGjgbkwgbYwCQYDVR0T
BAIwADAdBgNVHQ4EFgQUFpvp2Rvzfh0mXkQMEj8e2CHz7ZswTwYDVR0jBEgwRoAU
Hoidfg1VS5AP0Jzlaklmq8Z76bqhGKQWMBQxEjAQBgNVBAMMCXRlYW00LW5ldIIU
W3EV52fdwmvh87ehy7rpSdCyzOcwEwYDVR0lBAwwCgYIKwYBBQUHAwEwCwYDVR0P
BAQDAgWgMBcGA1UdEQQQMA6CDHRlYW00LXNlcnZlcjANBgkqhkiG9w0BAQsFAAOC
AQEAn/okQuqGgFrR5bmsHCdZu6wFqpx5TvQVK2jybEiKPqNvbgbJmLNq7cuGx3N3
ig4I1xJvCT8MEcYCILuNJQ/EUJ2CT4N45MM81hz0380wx7irM0h7ERgbK+017Jq5
QbXmJ190QR9ndcfdpHzkfbmw75rHldGdoJjMaaKaYThYj6wc4P4VBt9nV08ci/vH
BX41Hi4FoyROwmjIiPXaV7EfETaBMMHrItsvbWtM3AI4GYi/yR6QLfHeBFOjJS0c
zNIksLCI9g9d65uDv2Frzt8yywz8cZdv7g1vUM9ajezPjYIGy+/vWx8e5t8hw/70
A6tC8bNtUG2XuBGXZqOih1TiuQ==
-----END CERTIFICATE-----
