Certificate:
    Data:
        Version: 3 (0x2)
        Serial Number:
            ab:cb:40:e3:65:21:1f:92:ff:5c:0e:ac:62:9d:6e:21
        Signature Algorithm: sha256WithRSAEncryption
        Issuer: CN=team4-net
        Validity
            Not Before: Nov  3 20:39:21 2023 GMT
            Not After : Oct 18 20:39:21 2026 GMT
        Subject: CN=team4-server
        Subject Public Key Info:
            Public Key Algorithm: rsaEncryption
                Public-Key: (2048 bit)
                Modulus:
                    00:af:fc:b7:23:e4:5b:ee:3d:e2:78:1e:8e:06:ea:
                    df:d6:21:88:83:01:d4:15:88:1b:b8:e5:c3:b5:39:
                    86:c7:d0:2c:a1:93:61:5d:eb:0b:b3:1b:eb:d0:fc:
                    da:60:7d:e7:9a:9b:e0:6e:b4:d4:0f:f7:ab:72:61:
                    88:ef:f1:fa:c9:e4:39:82:af:e5:a2:b3:9e:43:16:
                    4d:56:fa:72:83:b0:22:ea:b4:57:0e:6f:c1:a3:75:
                    7b:22:b7:01:b5:89:32:9b:47:9b:7b:e1:a9:35:25:
                    aa:df:63:e9:d2:b6:23:7b:14:68:62:b7:83:4f:71:
                    fd:e8:6f:d9:4e:e1:f4:ef:fd:d3:1e:e2:88:b9:70:
                    3c:18:dd:13:7d:c8:69:dd:81:27:89:d4:09:14:e6:
                    9d:97:6a:75:7d:0b:c6:83:c7:f8:f7:30:da:ee:4d:
                    ea:6c:c0:6c:05:7b:ab:fd:5e:12:d1:61:5f:70:ce:
                    8f:fb:01:09:95:77:5e:da:49:aa:0d:5c:f4:83:2e:
                    cd:b5:65:39:d5:fb:1f:aa:74:ac:c7:c0:53:2c:dd:
                    81:3c:ab:c5:5d:ae:68:16:cb:ad:aa:72:a7:6d:39:
                    ef:cd:0e:18:11:95:f3:0e:f8:21:d7:79:35:36:3f:
                    45:9b:81:8f:b1:99:f3:36:64:9b:53:52:25:90:5b:
                    4b:6b
                Exponent: 65537 (0x10001)
        X509v3 extensions:
            X509v3 Basic Constraints: 
                CA:FALSE
            X509v3 Subject Key Identifier: 
                78:86:4E:24:B9:7B:57:E7:09:93:C7:4D:B1:AD:88:29:55:F0:35:B8
            X509v3 Authority Key Identifier: 
                keyid:1B:1D:80:EE:C2:94:03:4D:14:F7:B1:2D:73:12:7C:03:AD:F8:06:D1
                DirName:/CN=team4-net
                serial:4F:0A:29:C1:E1:83:96:D5:8F:8E:C2:87:20:7B:29:5D:C2:04:A9:F3
            X509v3 Extended Key Usage: 
                TLS Web Server Authentication
            X509v3 Key Usage: 
                Digital Signature, Key Encipherment
            X509v3 Subject Alternative Name: 
                DNS:team4-server
    Signature Algorithm: sha256WithRSAEncryption
    Signature Value:
        74:3b:24:02:22:cb:d4:85:d9:98:39:2d:d4:94:9d:70:d2:e3:
        63:1c:db:8a:b9:69:3e:63:74:95:41:c9:34:70:5a:d2:e4:4b:
        fa:79:81:d7:aa:97:7a:8d:f7:62:d6:87:cf:4a:7e:59:ed:9e:
        5a:b6:f6:82:58:a1:bd:75:d1:01:b2:87:78:9b:a9:d7:95:33:
        76:e3:9c:f4:33:54:33:a2:79:15:b0:cd:18:86:d9:85:a2:55:
        70:41:2e:a0:b9:ca:06:77:ae:2f:63:63:6e:c5:6c:b6:3e:9f:
        39:a6:cd:a6:f1:6c:ef:de:6d:6b:5e:e8:e8:12:87:5d:2e:c5:
        55:9d:c8:c7:a9:32:f4:a9:d3:66:65:14:f2:d9:4b:89:89:8e:
        4a:a8:9b:69:e8:8d:a3:0c:1c:e6:c2:da:7d:37:ff:8d:35:6a:
        a9:85:82:55:79:12:5a:b7:fe:53:68:fb:1c:1b:27:07:cb:eb:
        28:38:f8:4e:d2:3b:97:b4:a9:6c:a2:2b:0f:1e:59:7b:ed:4d:
        52:1c:26:94:f6:cd:17:9f:cd:79:1b:70:a1:af:28:33:58:7d:
        e0:c0:a0:01:a4:8e:50:11:53:57:c0:e2:89:65:7c:1e:96:e5:
        22:e0:f5:e2:a8:99:51:a6:86:35:f5:81:67:93:ec:c0:b7:b6:
        07:e5:a3:db
-----BEGIN CERTIFICATE-----
MIIDcDCCAligAwIBAgIRAKvLQONlIR+S/1wOrGKdbiEwDQYJKoZIhvcNAQELBQAw
FDESMBAGA1UEAwwJdGVhbTQtbmV0MB4XDTIzMTEwMzIwMzkyMVoXDTI2MTAxODIw
MzkyMVowFzEVMBMGA1UEAwwMdGVhbTQtc2VydmVyMIIBIjANBgkqhkiG9w0BAQEF
AAOCAQ8AMIIBCgKCAQEAr/y3I+Rb7j3ieB6OBurf1iGIgwHUFYgbuOXDtTmGx9As
oZNhXesLsxvr0PzaYH3nmpvgbrTUD/ercmGI7/H6yeQ5gq/lorOeQxZNVvpyg7Ai
6rRXDm/Bo3V7IrcBtYkym0ebe+GpNSWq32Pp0rYjexRoYreDT3H96G/ZTuH07/3T
HuKIuXA8GN0Tfchp3YEnidQJFOadl2p1fQvGg8f49zDa7k3qbMBsBXur/V4S0WFf
cM6P+wEJlXde2kmqDVz0gy7NtWU51fsfqnSsx8BTLN2BPKvFXa5oFsutqnKnbTnv
zQ4YEZXzDvgh13k1Nj9Fm4GPsZnzNmSbU1IlkFtLawIDAQABo4G5MIG2MAkGA1Ud
EwQCMAAwHQYDVR0OBBYEFHiGTiS5e1fnCZPHTbGtiClV8DW4ME8GA1UdIwRIMEaA
FBsdgO7ClANNFPexLXMSfAOt+AbRoRikFjAUMRIwEAYDVQQDDAl0ZWFtNC1uZXSC
FE8KKcHhg5bVj47ChyB7KV3CBKnzMBMGA1UdJQQMMAoGCCsGAQUFBwMBMAsGA1Ud
DwQEAwIFoDAXBgNVHREEEDAOggx0ZWFtNC1zZXJ2ZXIwDQYJKoZIhvcNAQELBQAD
ggEBAHQ7JAIiy9SF2Zg5LdSUnXDS42Mc24q5aT5jdJVByTRwWtLkS/p5gdeql3qN
92LWh89Kflntnlq29oJYob110QGyh3ibqdeVM3bjnPQzVDOieRWwzRiG2YWiVXBB
LqC5ygZ3ri9jY27FbLY+nzmmzabxbO/ebWte6OgSh10uxVWdyMepMvSp02ZlFPLZ
S4mJjkqom2nojaMMHObC2n03/401aqmFglV5Elq3/lNo+xwbJwfL6yg4+E7SO5e0
qWyiKw8eWXvtTVIcJpT2zRefzXkbcKGvKDNYfeDAoAGkjlARU1fA4ollfB6W5SLg
9eKomVGmhjX1gWeT7MC3tgflo9s=
-----END CERTIFICATE-----
