Certificate:
    Data:
        Version: 3 (0x2)
        Serial Number:
            ed:8c:45:20:fc:11:a7:cd:42:84:2a:54:3c:21:7d:fa
        Signature Algorithm: sha256WithRSAEncryption
        Issuer: CN=team4-net
        Validity
            Not Before: Nov  4 11:27:30 2023 GMT
            Not After : Oct 19 11:27:30 2026 GMT
        Subject: CN=team4-server
        Subject Public Key Info:
            Public Key Algorithm: rsaEncryption
                Public-Key: (2048 bit)
                Modulus:
                    00:84:7b:34:5b:3b:45:04:56:f3:ce:a0:52:0f:5b:
                    0d:1e:00:66:a6:6c:07:5f:20:23:6e:b5:30:30:d1:
                    ea:25:05:3a:23:42:7a:16:aa:6d:20:48:e7:29:4f:
                    cf:e3:2d:3e:9e:59:59:dd:45:4f:bb:e1:24:7c:0e:
                    3d:4e:b1:b8:1d:f3:d5:b5:d1:b0:d3:4d:83:1f:d6:
                    e9:e4:8f:b7:1b:ee:0d:61:4f:94:03:39:11:33:e6:
                    26:77:16:22:71:fc:16:8a:8b:2e:bb:72:35:3c:9b:
                    c7:7f:e5:0f:06:96:c2:c3:c9:76:d9:a3:ac:8c:f2:
                    d9:47:3b:10:ce:48:85:46:2f:ea:d7:33:17:76:d9:
                    e8:7f:2f:90:64:a7:5f:c4:59:68:98:5c:64:96:c0:
                    dd:91:d4:47:30:d0:24:2c:4d:e6:cf:eb:d2:8c:6f:
                    b9:43:58:9a:0f:6b:8c:7f:52:59:81:ee:f6:d7:f8:
                    b0:f6:8e:3d:12:b7:d1:35:4e:26:5c:12:25:2f:4c:
                    30:3e:28:d3:f5:97:03:dc:2b:62:2d:7f:aa:1a:c2:
                    64:77:3f:22:42:ef:d9:ff:03:7f:91:b2:3f:5d:d2:
                    d2:3d:d8:c9:e5:05:85:db:94:db:97:f1:6e:25:3f:
                    e7:8b:3e:3c:bd:d8:7a:a7:1c:4e:46:97:67:6c:7a:
                    83:5f
                Exponent: 65537 (0x10001)
        X509v3 extensions:
            X509v3 Basic Constraints: 
                CA:FALSE
            X509v3 Subject Key Identifier: 
                24:96:C1:95:BE:48:B6:32:BF:D9:53:2F:6F:EE:98:FA:B2:88:17:73
            X509v3 Authority Key Identifier: 
                keyid:13:11:E3:76:0B:97:C4:A1:CA:B9:8A:AD:1B:8F:EB:24:D7:3E:04:D2
                DirName:/CN=team4-net
                serial:51:DC:55:13:BC:8B:08:E0:B1:4D:EF:4C:53:DA:0E:E9:62:12:80:B4
            X509v3 Extended Key Usage: 
                TLS Web Server Authentication
            X509v3 Key Usage: 
                Digital Signature, Key Encipherment
            X509v3 Subject Alternative Name: 
                DNS:team4-server
    Signature Algorithm: sha256WithRSAEncryption
    Signature Value:
        83:73:01:8f:ff:5e:f6:00:f7:ab:61:6c:3f:2b:e7:b3:0f:c1:
        6e:a4:55:20:83:c1:bf:ba:6c:fc:1d:e4:54:de:2f:19:a3:fe:
        fe:cd:cf:ca:14:f4:b4:95:6a:5d:7c:93:22:8d:a3:05:99:e4:
        bc:5a:7c:99:2d:46:f6:1a:52:7e:61:dd:71:bb:4d:fd:8d:ea:
        c7:9b:e2:fe:26:d5:c9:8b:af:8a:51:b8:93:b9:c6:53:8c:39:
        06:d4:9a:0a:27:f6:05:88:6a:72:ec:ff:85:7c:30:15:2a:5e:
        ee:f5:1a:60:2f:21:d7:b4:6c:a1:65:c8:8f:a7:dd:03:90:79:
        f8:2e:34:42:b3:85:0a:81:dd:8f:48:0a:03:c9:57:21:7b:4e:
        88:03:e9:b4:dd:84:f2:7b:71:85:cd:9f:18:10:b3:34:2f:55:
        f4:8a:b9:2d:45:d2:d8:63:7a:40:ca:41:85:bc:58:8e:96:6f:
        e5:0c:5e:11:e5:af:87:e4:dd:0c:67:ff:90:62:23:03:ea:ab:
        37:69:eb:76:b8:5b:ff:ac:86:09:ab:a4:0c:bb:6a:ff:96:e8:
        8e:74:42:cb:58:c2:6c:54:31:d2:c8:89:fe:c2:9d:99:51:f2:
        a9:66:35:e8:9a:46:35:b7:59:7c:47:c2:b7:2c:b4:0c:ae:c7:
        cd:ac:b5:ea
-----BEGIN CERTIFICATE-----
MIIDcDCCAligAwIBAgIRAO2MRSD8EafNQoQqVDwhffowDQYJKoZIhvcNAQELBQAw
FDESMBAGA1UEAwwJdGVhbTQtbmV0MB4XDTIzMTEwNDExMjczMFoXDTI2MTAxOTEx
MjczMFowFzEVMBMGA1UEAwwMdGVhbTQtc2VydmVyMIIBIjANBgkqhkiG9w0BAQEF
AAOCAQ8AMIIBCgKCAQEAhHs0WztFBFbzzqBSD1sNHgBmpmwHXyAjbrUwMNHqJQU6
I0J6FqptIEjnKU/P4y0+nllZ3UVPu+EkfA49TrG4HfPVtdGw002DH9bp5I+3G+4N
YU+UAzkRM+YmdxYicfwWiosuu3I1PJvHf+UPBpbCw8l22aOsjPLZRzsQzkiFRi/q
1zMXdtnofy+QZKdfxFlomFxklsDdkdRHMNAkLE3mz+vSjG+5Q1iaD2uMf1JZge72
1/iw9o49ErfRNU4mXBIlL0wwPijT9ZcD3CtiLX+qGsJkdz8iQu/Z/wN/kbI/XdLS
PdjJ5QWF25Tbl/FuJT/niz48vdh6pxxORpdnbHqDXwIDAQABo4G5MIG2MAkGA1Ud
EwQCMAAwHQYDVR0OBBYEFCSWwZW+SLYyv9lTL2/umPqyiBdzME8GA1UdIwRIMEaA
FBMR43YLl8ShyrmKrRuP6yTXPgTSoRikFjAUMRIwEAYDVQQDDAl0ZWFtNC1uZXSC
FFHcVRO8iwjgsU3vTFPaDuliEoC0MBMGA1UdJQQMMAoGCCsGAQUFBwMBMAsGA1Ud
DwQEAwIFoDAXBgNVHREEEDAOggx0ZWFtNC1zZXJ2ZXIwDQYJKoZIhvcNAQELBQAD
ggEBAINzAY//XvYA96thbD8r57MPwW6kVSCDwb+6bPwd5FTeLxmj/v7Nz8oU9LSV
al18kyKNowWZ5LxafJktRvYaUn5h3XG7Tf2N6seb4v4m1cmLr4pRuJO5xlOMOQbU
mgon9gWIanLs/4V8MBUqXu71GmAvIde0bKFlyI+n3QOQefguNEKzhQqB3Y9ICgPJ
VyF7TogD6bTdhPJ7cYXNnxgQszQvVfSKuS1F0thjekDKQYW8WI6Wb+UMXhHlr4fk
3Qxn/5BiIwPqqzdp63a4W/+shgmrpAy7av+W6I50QstYwmxUMdLIif7CnZlR8qlm
NeiaRjW3WXxHwrcstAyux82steo=
-----END CERTIFICATE-----
