Certificate:
    Data:
        Version: 3 (0x2)
        Serial Number:
            61:76:38:c5:c6:e7:77:b6:12:2c:a8:bb:4e:2e:21:0c
        Signature Algorithm: sha256WithRSAEncryption
        Issuer: CN=team114-net
        Validity
            Not Before: Nov  3 20:41:11 2023 GMT
            Not After : Oct 18 20:41:11 2026 GMT
        Subject: CN=team114-server
        Subject Public Key Info:
            Public Key Algorithm: rsaEncryption
                Public-Key: (2048 bit)
                Modulus:
                    00:b7:d6:0b:25:15:89:86:95:e0:9d:93:8d:b1:d9:
                    4a:4b:40:53:3e:86:ad:4c:73:73:09:6a:2b:80:d0:
                    95:95:32:6f:26:f7:66:f8:c6:96:6c:8f:2b:80:30:
                    21:3d:f0:4e:60:80:15:2d:dc:8d:d6:db:a2:21:0c:
                    41:62:9d:5d:07:14:86:4e:77:dc:d5:c9:4d:b4:84:
                    62:50:67:15:73:73:14:b7:2d:13:3c:67:fb:a7:a9:
                    11:f9:55:1d:b9:f9:64:c5:09:04:e8:ab:f6:bf:5e:
                    f9:8c:5f:38:5e:6d:7f:84:52:a6:c0:eb:f9:3c:89:
                    17:98:a7:4b:03:58:d4:8f:03:eb:76:8f:3f:7c:68:
                    30:55:1e:3c:23:e5:9b:6f:3f:b4:ef:fb:fa:b5:0a:
                    a2:bd:d2:5d:6d:42:78:a3:d9:c4:36:6b:1c:8c:9e:
                    80:ce:1d:91:ce:64:75:20:44:fd:c7:d4:f0:62:44:
                    ef:ac:44:b2:d4:83:57:12:31:5a:54:14:ee:b0:e4:
                    0e:06:42:b4:51:4c:40:dc:bc:8c:75:09:75:ff:64:
                    f8:d2:2c:e6:6c:89:54:fa:af:60:c5:19:aa:5b:bc:
                    23:c4:76:fc:23:4b:a1:fa:eb:5f:9f:dc:1a:82:d6:
                    9e:49:21:3f:55:9a:50:e3:75:a0:72:2e:df:af:6c:
                    4c:f1
                Exponent: 65537 (0x10001)
        X509v3 extensions:
            X509v3 Basic Constraints: 
                CA:FALSE
            X509v3 Subject Key Identifier: 
                2B:1B:7A:83:DB:81:A6:31:1D:68:2A:CD:3E:18:70:8D:F4:B2:48:B7
            X509v3 Authority Key Identifier: 
                keyid:3F:7F:17:1B:9A:62:47:55:AB:89:66:C0:F0:0E:28:CA:8B:A3:0C:76
                DirName:/CN=team114-net
                serial:10:8C:AB:CA:B7:62:3E:4B:58:03:2E:BA:42:6B:07:44:2B:BE:C9:67
            X509v3 Extended Key Usage: 
                TLS Web Server Authentication
            X509v3 Key Usage: 
                Digital Signature, Key Encipherment
            X509v3 Subject Alternative Name: 
                DNS:team114-server
    Signature Algorithm: sha256WithRSAEncryption
    Signature Value:
        57:6f:46:3b:cc:c4:77:16:80:f9:65:e2:de:72:6e:85:3b:f6:
        f7:7c:58:43:9f:53:97:1e:97:67:93:59:92:41:ad:59:76:53:
        df:b3:6f:4f:ce:22:8b:02:32:b8:a1:94:9c:9e:98:dc:01:7a:
        64:32:26:f1:05:20:1c:05:94:f0:24:91:50:a0:8a:9e:e8:aa:
        a1:5a:f4:e4:f0:d6:56:a4:e4:82:9e:62:86:ec:ef:07:f0:69:
        1e:bf:46:80:db:f5:e2:53:c9:45:b2:7e:8d:73:c8:f3:8a:48:
        8a:21:51:aa:8a:54:a2:e8:65:8a:5a:77:69:b4:6f:05:fc:7b:
        13:7c:15:d5:75:0b:9d:59:06:e8:81:97:d3:f3:c2:28:a5:4e:
        be:49:b0:05:f0:c6:d6:63:c2:b9:e0:9c:34:f3:0f:5c:24:d9:
        34:36:c4:d8:9f:eb:23:b3:4a:a4:51:96:a6:94:8c:34:9f:d5:
        34:a1:58:32:fb:14:f6:8f:52:5d:bc:a5:75:cc:14:28:f4:e8:
        f5:f2:6d:f0:1c:2f:ea:e9:4a:e9:30:25:1d:58:f7:c6:6b:20:
        09:c2:35:38:53:38:79:e9:61:da:3d:7e:e3:00:8d:45:64:9b:
        38:86:c9:02:4a:e3:48:f2:7a:d6:d3:dd:a4:f6:e0:51:ef:02:
        79:09:ee:ef
-----BEGIN CERTIFICATE-----
MIIDdzCCAl+gAwIBAgIQYXY4xcbnd7YSLKi7Ti4hDDANBgkqhkiG9w0BAQsFADAW
MRQwEgYDVQQDDAt0ZWFtMTE0LW5ldDAeFw0yMzExMDMyMDQxMTFaFw0yNjEwMTgy
MDQxMTFaMBkxFzAVBgNVBAMMDnRlYW0xMTQtc2VydmVyMIIBIjANBgkqhkiG9w0B
AQEFAAOCAQ8AMIIBCgKCAQEAt9YLJRWJhpXgnZONsdlKS0BTPoatTHNzCWorgNCV
lTJvJvdm+MaWbI8rgDAhPfBOYIAVLdyN1tuiIQxBYp1dBxSGTnfc1clNtIRiUGcV
c3MUty0TPGf7p6kR+VUduflkxQkE6Kv2v175jF84Xm1/hFKmwOv5PIkXmKdLA1jU
jwPrdo8/fGgwVR48I+Wbbz+07/v6tQqivdJdbUJ4o9nENmscjJ6Azh2RzmR1IET9
x9TwYkTvrESy1INXEjFaVBTusOQOBkK0UUxA3LyMdQl1/2T40izmbIlU+q9gxRmq
W7wjxHb8I0uh+utfn9wagtaeSSE/VZpQ43Wgci7fr2xM8QIDAQABo4G9MIG6MAkG
A1UdEwQCMAAwHQYDVR0OBBYEFCsbeoPbgaYxHWgqzT4YcI30ski3MFEGA1UdIwRK
MEiAFD9/FxuaYkdVq4lmwPAOKMqLowx2oRqkGDAWMRQwEgYDVQQDDAt0ZWFtMTE0
LW5ldIIUEIyryrdiPktYAy66QmsHRCu+yWcwEwYDVR0lBAwwCgYIKwYBBQUHAwEw
CwYDVR0PBAQDAgWgMBkGA1UdEQQSMBCCDnRlYW0xMTQtc2VydmVyMA0GCSqGSIb3
DQEBCwUAA4IBAQBXb0Y7zMR3FoD5ZeLecm6FO/b3fFhDn1OXHpdnk1mSQa1ZdlPf
s29PziKLAjK4oZScnpjcAXpkMibxBSAcBZTwJJFQoIqe6KqhWvTk8NZWpOSCnmKG
7O8H8Gkev0aA2/XiU8lFsn6Nc8jzikiKIVGqilSi6GWKWndptG8F/HsTfBXVdQud
WQbogZfT88IopU6+SbAF8MbWY8K54Jw08w9cJNk0NsTYn+sjs0qkUZamlIw0n9U0
oVgy+xT2j1JdvKV1zBQo9Oj18m3wHC/q6UrpMCUdWPfGayAJwjU4Uzh56WHaPX7j
AI1FZJs4hskCSuNI8nrW092k9uBR7wJ5Ce7v
-----END CERTIFICATE-----
