Certificate:
    Data:
        Version: 3 (0x2)
        Serial Number:
            bf:24:62:e7:00:ce:81:d3:8e:9e:0f:84:b1:ae:ee:13
        Signature Algorithm: sha256WithRSAEncryption
        Issuer: CN=team372-net
        Validity
            Not Before: Nov  3 20:46:00 2023 GMT
            Not After : Oct 18 20:46:00 2026 GMT
        Subject: CN=team372-server
        Subject Public Key Info:
            Public Key Algorithm: rsaEncryption
                Public-Key: (2048 bit)
                Modulus:
                    00:ea:30:bb:61:ef:54:b2:4f:04:24:ab:35:1c:0a:
                    da:3d:d9:07:f3:4c:7c:6a:5b:f2:97:05:5b:1f:2e:
                    32:45:96:e1:d3:41:e8:a7:3f:cd:22:e1:78:83:21:
                    d3:ed:54:b6:68:b0:e7:cf:4e:22:0b:b5:8a:52:a7:
                    c8:5d:d9:5d:9f:29:4c:31:fd:10:5f:04:c0:e6:84:
                    88:de:e2:2c:d0:81:5d:b7:aa:e7:e2:2a:ad:c1:00:
                    fe:63:86:ef:fd:09:96:cf:61:54:96:3a:aa:fa:bb:
                    a2:a3:79:5f:2c:ed:9f:14:16:1a:bb:b8:77:f4:5e:
                    9c:f0:2a:1f:68:39:8b:35:a8:f8:d8:70:13:30:09:
                    e3:7a:83:a1:9e:58:78:c1:70:ac:02:62:52:c6:77:
                    da:1b:23:ca:d2:f2:4c:20:a5:ef:5a:c4:30:07:21:
                    bb:a8:74:24:c7:54:c2:85:2f:e1:72:54:9c:0b:6a:
                    7c:a5:5a:f1:46:40:31:52:ea:54:95:d5:3c:30:a3:
                    b1:bd:7c:50:11:b5:16:b4:32:fb:ef:5b:b6:c5:04:
                    e1:f1:a7:ce:0c:d9:e9:66:6d:a5:6c:b1:ae:b4:39:
                    b9:35:2b:a6:95:32:4a:a6:2d:13:f7:b5:58:2a:e5:
                    1b:1a:a1:3a:d2:83:94:89:8e:d2:df:e2:c8:a0:fc:
                    75:77
                Exponent: 65537 (0x10001)
        X509v3 extensions:
            X509v3 Basic Constraints: 
                CA:FALSE
            X509v3 Subject Key Identifier: 
                FD:20:41:9D:0F:AA:02:21:9B:C8:2B:EC:D5:62:B8:2D:25:88:31:0B
            X509v3 Authority Key Identifier: 
                keyid:D4:82:C7:42:D0:E6:00:5C:C1:DC:42:EA:03:A3:82:91:78:38:6D:92
                DirName:/CN=team372-net
                serial:7B:F9:72:B9:6A:CD:33:41:D7:31:FA:B2:8D:20:C3:22:88:7C:2E:00
            X509v3 Extended Key Usage: 
                TLS Web Server Authentication
            X509v3 Key Usage: 
                Digital Signature, Key Encipherment
            X509v3 Subject Alternative Name: 
                DNS:team372-server
    Signature Algorithm: sha256WithRSAEncryption
    Signature Value:
        6c:93:c3:f3:06:c1:ed:74:88:2a:ac:cc:52:a0:42:cc:c6:73:
        0a:73:d2:c6:85:88:a5:d0:3e:94:fd:08:f4:fd:57:dc:02:15:
        ba:8c:7f:d1:1f:44:04:19:ee:76:31:33:3a:2e:24:e1:3f:b8:
        a4:a9:1c:d6:66:59:b8:c9:d7:01:d1:29:84:5d:29:05:2e:dd:
        54:1c:d9:f1:0b:4d:df:59:cf:c1:90:79:c0:c5:eb:ab:f8:c7:
        c0:c6:92:38:28:5c:fd:c5:30:48:78:cd:80:ba:56:66:93:6f:
        eb:33:81:78:07:9c:5d:1d:bc:51:b3:66:93:ed:1f:4b:1e:d6:
        dc:2f:3a:bb:2a:54:a2:f0:3c:ef:45:f2:bf:4b:98:99:84:8d:
        15:f8:ca:8a:da:da:0f:86:c3:b0:e2:e6:67:3c:fd:92:0f:2f:
        e5:ba:01:ec:a6:02:0b:64:c6:12:59:11:6d:88:94:f3:b4:04:
        51:55:d9:8c:57:a5:71:f5:bf:e5:6d:8d:ed:86:45:a4:14:71:
        2a:8f:1b:8f:f6:17:eb:b1:29:4e:6c:f6:1e:c9:fe:02:70:02:
        94:55:e3:90:6c:f5:0a:b4:73:6d:35:8e:ed:32:d1:13:4d:09:
        66:4c:ff:7b:e2:3f:56:df:20:fd:ad:d0:a4:91:4c:53:d6:b2:
        ef:0a:e3:5b
-----BEGIN CERTIFICATE-----
MIIDeDCCAmCgAwIBAgIRAL8kYucAzoHTjp4PhLGu7hMwDQYJKoZIhvcNAQELBQAw
FjEUMBIGA1UEAwwLdGVhbTM3Mi1uZXQwHhcNMjMxMTAzMjA0NjAwWhcNMjYxMDE4
MjA0NjAwWjAZMRcwFQYDVQQDDA50ZWFtMzcyLXNlcnZlcjCCASIwDQYJKoZIhvcN
AQEBBQADggEPADCCAQoCggEBAOowu2HvVLJPBCSrNRwK2j3ZB/NMfGpb8pcFWx8u
MkWW4dNB6Kc/zSLheIMh0+1Utmiw589OIgu1ilKnyF3ZXZ8pTDH9EF8EwOaEiN7i
LNCBXbeq5+IqrcEA/mOG7/0Jls9hVJY6qvq7oqN5XyztnxQWGru4d/RenPAqH2g5
izWo+NhwEzAJ43qDoZ5YeMFwrAJiUsZ32hsjytLyTCCl71rEMAchu6h0JMdUwoUv
4XJUnAtqfKVa8UZAMVLqVJXVPDCjsb18UBG1FrQy++9btsUE4fGnzgzZ6WZtpWyx
rrQ5uTUrppUySqYtE/e1WCrlGxqhOtKDlImO0t/iyKD8dXcCAwEAAaOBvTCBujAJ
BgNVHRMEAjAAMB0GA1UdDgQWBBT9IEGdD6oCIZvIK+zVYrgtJYgxCzBRBgNVHSME
SjBIgBTUgsdC0OYAXMHcQuoDo4KReDhtkqEapBgwFjEUMBIGA1UEAwwLdGVhbTM3
Mi1uZXSCFHv5crlqzTNB1zH6so0gwyKIfC4AMBMGA1UdJQQMMAoGCCsGAQUFBwMB
MAsGA1UdDwQEAwIFoDAZBgNVHREEEjAQgg50ZWFtMzcyLXNlcnZlcjANBgkqhkiG
9w0BAQsFAAOCAQEAbJPD8wbB7XSIKqzMUqBCzMZzCnPSxoWIpdA+lP0I9P1X3AIV
uox/0R9EBBnudjEzOi4k4T+4pKkc1mZZuMnXAdEphF0pBS7dVBzZ8QtN31nPwZB5
wMXrq/jHwMaSOChc/cUwSHjNgLpWZpNv6zOBeAecXR28UbNmk+0fSx7W3C86uypU
ovA870Xyv0uYmYSNFfjKitraD4bDsOLmZzz9kg8v5boB7KYCC2TGElkRbYiU87QE
UVXZjFelcfW/5W2N7YZFpBRxKo8bj/YX67EpTmz2Hsn+AnAClFXjkGz1CrRzbTWO
7TLRE00JZkz/e+I/Vt8g/a3QpJFMU9ay7wrjWw==
-----END CERTIFICATE-----
