Certificate:
    Data:
        Version: 3 (0x2)
        Serial Number:
            86:71:bd:17:36:59:8a:74:09:cd:33:15:6b:75:3d:3c
        Signature Algorithm: sha256WithRSAEncryption
        Issuer: CN=team460-net
        Validity
            Not Before: Nov  3 20:47:38 2023 GMT
            Not After : Oct 18 20:47:38 2026 GMT
        Subject: CN=team460-client
        Subject Public Key Info:
            Public Key Algorithm: rsaEncryption
                Public-Key: (2048 bit)
                Modulus:
                    00:d3:5f:97:81:8e:5d:83:bf:09:05:3c:a1:7e:81:
                    37:ea:6e:70:41:2e:39:42:4e:df:0b:4d:92:f2:bd:
                    41:d5:1b:18:5a:d3:86:37:0c:69:a2:77:ca:6a:4f:
                    d6:ca:a0:f4:15:35:ca:82:5b:73:48:3c:96:ca:01:
                    30:11:9b:6b:5b:d1:34:27:9e:0e:1f:88:da:da:21:
                    96:10:5e:10:ab:3f:f3:56:c0:a9:73:29:ea:b4:c4:
                    dc:3e:6a:de:67:9b:28:df:08:6f:f8:9a:7d:87:c1:
                    34:4b:06:eb:ae:0b:f0:19:97:a3:f5:fa:20:f4:0a:
                    47:b1:b6:22:0e:c3:9a:7f:d9:68:4f:bc:61:f4:d3:
                    5c:28:b9:e8:bc:53:4d:1d:24:07:89:4d:9f:cc:65:
                    36:84:a2:e0:cf:a7:38:b3:6e:a7:b6:aa:e0:4c:03:
                    f1:05:e8:6b:d2:79:62:37:b0:f5:c1:6d:77:28:12:
                    7b:78:32:60:ef:e2:53:29:b8:ff:d2:74:a1:9e:d8:
                    ab:9c:ef:0f:b7:93:f9:dd:a1:57:de:e3:ea:19:91:
                    d5:62:13:89:c0:a4:86:8d:b6:2f:e3:d5:f4:23:8d:
                    53:7f:75:24:5d:50:95:11:85:53:bb:55:7e:6f:a4:
                    b0:29:b7:fa:2d:c6:1e:26:4f:05:b5:34:bc:1a:59:
                    c7:33
                Exponent: 65537 (0x10001)
        X509v3 extensions:
            X509v3 Basic Constraints: 
                CA:FALSE
            X509v3 Subject Key Identifier: 
                C2:9C:AA:05:73:3B:E6:F8:5E:BA:DC:EF:46:1F:25:8A:79:15:5A:40
            X509v3 Authority Key Identifier: 
                keyid:21:62:21:D3:98:A2:68:16:52:C9:2A:B3:94:DB:8A:60:D2:38:AE:59
                DirName:/CN=team460-net
                serial:19:2B:2E:B8:EE:75:D3:D2:93:4D:F6:7F:22:51:CC:4E:81:30:07:95
            X509v3 Extended Key Usage: 
                TLS Web Client Authentication
            X509v3 Key Usage: 
                Digital Signature
    Signature Algorithm: sha256WithRSAEncryption
    Signature Value:
        67:45:59:50:58:7f:c4:d5:1e:6c:c4:a5:d6:15:55:89:75:d0:
        e7:2b:70:3b:f0:c4:26:64:9e:e9:43:4f:57:f7:f9:20:5a:f9:
        21:d6:46:d6:fd:be:4a:5f:52:51:72:8c:4d:1c:da:7b:f8:63:
        39:09:be:f0:52:e7:f5:88:a2:0c:00:c7:1e:6e:cf:1d:a6:f4:
        21:35:06:22:4f:d1:c2:60:95:05:fa:92:8a:c3:1f:46:8d:72:
        49:77:cf:cf:62:d0:c5:22:09:a5:9e:e9:88:b7:b7:a5:e0:fc:
        c2:e2:89:24:17:ab:3e:be:c2:c3:20:ba:91:3c:23:5a:bb:f6:
        0b:01:fb:6f:7d:bc:e1:be:08:32:3d:db:87:24:53:35:4d:21:
        78:31:36:58:21:62:af:3d:af:d3:39:bd:a8:a5:d6:10:85:14:
        ed:b2:e3:69:28:68:25:6c:e1:c3:c6:ee:7c:9f:60:66:21:ca:
        63:29:54:84:4a:ff:5f:e7:75:25:36:9a:78:13:17:c1:e5:67:
        d3:d2:99:c9:c5:9e:6c:6c:6d:a6:48:ba:9f:6c:e1:e9:92:eb:
        0d:41:2d:2f:a7:41:fc:2e:0d:37:ee:d3:70:4b:dd:30:b0:88:
        31:63:97:f6:14:f8:75:58:3e:80:cc:ea:3f:2b:d8:da:84:c0:
        6c:c9:71:aa
-----BEGIN CERTIFICATE-----
MIIDXTCCAkWgAwIBAgIRAIZxvRc2WYp0Cc0zFWt1PTwwDQYJKoZIhvcNAQELBQAw
FjEUMBIGA1UEAwwLdGVhbTQ2MC1uZXQwHhcNMjMxMTAzMjA0NzM4WhcNMjYxMDE4
MjA0NzM4WjAZMRcwFQYDVQQDDA50ZWFtNDYwLWNsaWVudDCCASIwDQYJKoZIhvcN
AQEBBQADggEPADCCAQoCggEBANNfl4GOXYO/CQU8oX6BN+pucEEuOUJO3wtNkvK9
QdUbGFrThjcMaaJ3ympP1sqg9BU1yoJbc0g8lsoBMBGba1vRNCeeDh+I2tohlhBe
EKs/81bAqXMp6rTE3D5q3mebKN8Ib/iafYfBNEsG664L8BmXo/X6IPQKR7G2Ig7D
mn/ZaE+8YfTTXCi56LxTTR0kB4lNn8xlNoSi4M+nOLNup7aq4EwD8QXoa9J5Yjew
9cFtdygSe3gyYO/iUym4/9J0oZ7Yq5zvD7eT+d2hV97j6hmR1WITicCkho22L+PV
9CONU391JF1QlRGFU7tVfm+ksCm3+i3GHiZPBbU0vBpZxzMCAwEAAaOBojCBnzAJ
BgNVHRMEAjAAMB0GA1UdDgQWBBTCnKoFczvm+F663O9GHyWKeRVaQDBRBgNVHSME
SjBIgBQhYiHTmKJoFlLJKrOU24pg0jiuWaEapBgwFjEUMBIGA1UEAwwLdGVhbTQ2
MC1uZXSCFBkrLrjuddPSk032fyJRzE6BMAeVMBMGA1UdJQQMMAoGCCsGAQUFBwMC
MAsGA1UdDwQEAwIHgDANBgkqhkiG9w0BAQsFAAOCAQEAZ0VZUFh/xNUebMSl1hVV
iXXQ5ytwO/DEJmSe6UNPV/f5IFr5IdZG1v2+Sl9SUXKMTRzae/hjOQm+8FLn9Yii
DADHHm7PHab0ITUGIk/RwmCVBfqSisMfRo1ySXfPz2LQxSIJpZ7piLe3peD8wuKJ
JBerPr7CwyC6kTwjWrv2CwH7b3284b4IMj3bhyRTNU0heDE2WCFirz2v0zm9qKXW
EIUU7bLjaShoJWzhw8bufJ9gZiHKYylUhEr/X+d1JTaaeBMXweVn09KZycWebGxt
pki6n2zh6ZLrDUEtL6dB/C4NN+7TcEvdMLCIMWOX9hT4dVg+gMzqPyvY2oTAbMlx
qg==
-----END CERTIFICATE-----
