Certificate:
    Data:
        Version: 3 (0x2)
        Serial Number:
            92:37:7c:24:74:b6:b7:ce:27:bf:f1:e0:f0:98:5d:cd
        Signature Algorithm: sha256WithRSAEncryption
        Issuer: CN=team460-net
        Validity
            Not Before: Nov  4 11:37:51 2023 GMT
            Not After : Oct 19 11:37:51 2026 GMT
        Subject: CN=team460-client
        Subject Public Key Info:
            Public Key Algorithm: rsaEncryption
                Public-Key: (2048 bit)
                Modulus:
                    00:c2:d7:0d:cb:0b:d0:0f:1d:e8:c3:e8:b5:95:82:
                    ff:61:2b:a6:d1:04:76:57:93:01:d7:a2:65:5a:f1:
                    37:31:12:eb:f8:b6:a0:3b:29:ab:86:a0:d2:b8:12:
                    8b:83:d7:43:cf:e2:6a:8c:16:30:f1:ea:db:40:a0:
                    6b:7a:60:2e:f3:ce:6b:cd:97:23:d4:c1:3a:b2:3a:
                    20:f1:20:1c:6a:3c:a7:6e:99:f7:8f:16:3a:05:89:
                    4f:d1:b4:22:f8:80:e3:6f:c7:b9:44:ea:69:39:98:
                    89:86:7d:d4:0d:0b:bf:4c:19:78:aa:08:c6:69:ee:
                    30:dd:61:28:af:9c:45:dc:4c:52:9b:89:96:96:ea:
                    0b:bc:2a:3e:60:f5:09:3b:91:f8:f7:2b:ad:00:b1:
                    0e:d4:2f:6c:fe:6c:65:ab:56:78:ff:b6:7e:1f:54:
                    85:97:b6:a8:63:54:6f:e3:d5:25:4a:40:1a:22:c2:
                    a9:22:b7:d8:a9:cc:1b:d4:67:58:a4:e7:c8:9e:85:
                    96:33:72:29:f7:d6:be:a2:42:40:82:c0:8c:45:bc:
                    ce:5e:34:91:07:7a:ea:8a:14:cf:7b:79:9c:47:e7:
                    ce:2e:57:32:f1:2b:78:52:25:d2:d8:24:fc:f5:e4:
                    b4:45:4f:56:bb:81:7a:ad:28:be:4c:08:dd:61:e6:
                    8b:53
                Exponent: 65537 (0x10001)
        X509v3 extensions:
            X509v3 Basic Constraints: 
                CA:FALSE
            X509v3 Subject Key Identifier: 
                59:87:AD:76:AF:80:EF:F0:3A:9A:FB:DC:50:55:63:84:A4:4E:FB:16
            X509v3 Authority Key Identifier: 
                keyid:3B:D9:66:16:26:F1:FE:C4:B0:D2:59:AA:33:C9:0E:E8:1B:2C:F1:10
                DirName:/CN=team460-net
                serial:12:4F:B1:8A:5E:FA:74:64:0E:B2:95:60:22:78:A0:B1:94:27:05:9D
            X509v3 Extended Key Usage: 
                TLS Web Client Authentication
            X509v3 Key Usage: 
                Digital Signature
    Signature Algorithm: sha256WithRSAEncryption
    Signature Value:
        8d:21:14:82:d6:a8:a6:91:9a:87:c8:10:53:27:70:46:b5:0c:
        88:08:15:8a:c3:f9:4a:a2:54:fa:0d:8b:d6:d6:23:13:63:fe:
        c8:8c:8c:a2:96:4f:d8:a1:63:ec:77:77:68:d7:61:40:1c:f0:
        7a:a0:46:fe:6a:7f:e7:7e:44:3d:f2:93:a4:13:16:9b:69:96:
        b7:d5:8b:c2:b8:04:57:8e:41:06:3f:31:8f:19:72:3d:42:28:
        2d:15:38:4d:12:a1:9a:97:52:ad:71:bc:f4:bb:15:3f:4e:67:
        26:fc:d0:db:b9:08:8c:eb:d0:92:00:fc:ea:4a:09:84:7c:ff:
        82:4e:ac:d6:f0:b1:3e:7e:23:43:60:09:4e:63:3e:7c:62:1b:
        f9:4d:59:99:61:1a:9e:03:00:93:fe:06:1c:04:90:cf:6e:29:
        9a:01:d9:93:9f:7e:62:c6:87:49:cb:8f:10:db:be:13:85:00:
        f0:db:00:f7:22:0f:37:d7:a6:30:65:59:ca:37:87:fb:c2:87:
        f5:6f:02:0e:40:28:db:bf:7e:f1:81:dd:4c:43:99:0f:f0:82:
        a3:f5:e4:18:cb:d1:df:1f:8c:8e:f5:6c:ab:81:b4:87:cf:a0:
        7d:37:5e:70:a5:8f:c1:fa:28:0c:4c:8a:33:29:b5:16:96:ea:
        cc:d7:e6:48
-----BEGIN CERTIFICATE-----
MIIDXTCCAkWgAwIBAgIRAJI3fCR0trfOJ7/x4PCYXc0wDQYJKoZIhvcNAQELBQAw
FjEUMBIGA1UEAwwLdGVhbTQ2MC1uZXQwHhcNMjMxMTA0MTEzNzUxWhcNMjYxMDE5
MTEzNzUxWjAZMRcwFQYDVQQDDA50ZWFtNDYwLWNsaWVudDCCASIwDQYJKoZIhvcN
AQEBBQADggEPADCCAQoCggEBAMLXDcsL0A8d6MPotZWC/2ErptEEdleTAdeiZVrx
NzES6/i2oDspq4ag0rgSi4PXQ8/iaowWMPHq20Cga3pgLvPOa82XI9TBOrI6IPEg
HGo8p26Z948WOgWJT9G0IviA42/HuUTqaTmYiYZ91A0Lv0wZeKoIxmnuMN1hKK+c
RdxMUpuJlpbqC7wqPmD1CTuR+PcrrQCxDtQvbP5sZatWeP+2fh9UhZe2qGNUb+PV
JUpAGiLCqSK32KnMG9RnWKTnyJ6FljNyKffWvqJCQILAjEW8zl40kQd66ooUz3t5
nEfnzi5XMvEreFIl0tgk/PXktEVPVruBeq0ovkwI3WHmi1MCAwEAAaOBojCBnzAJ
BgNVHRMEAjAAMB0GA1UdDgQWBBRZh612r4Dv8Dqa+9xQVWOEpE77FjBRBgNVHSME
SjBIgBQ72WYWJvH+xLDSWaozyQ7oGyzxEKEapBgwFjEUMBIGA1UEAwwLdGVhbTQ2
MC1uZXSCFBJPsYpe+nRkDrKVYCJ4oLGUJwWdMBMGA1UdJQQMMAoGCCsGAQUFBwMC
MAsGA1UdDwQEAwIHgDANBgkqhkiG9w0BAQsFAAOCAQEAjSEUgtaoppGah8gQUydw
RrUMiAgVisP5SqJU+g2L1tYjE2P+yIyMopZP2KFj7Hd3aNdhQBzweqBG/mp/535E
PfKTpBMWm2mWt9WLwrgEV45BBj8xjxlyPUIoLRU4TRKhmpdSrXG89LsVP05nJvzQ
27kIjOvQkgD86koJhHz/gk6s1vCxPn4jQ2AJTmM+fGIb+U1ZmWEangMAk/4GHASQ
z24pmgHZk59+YsaHScuPENu+E4UA8NsA9yIPN9emMGVZyjeH+8KH9W8CDkAo279+
8YHdTEOZD/CCo/XkGMvR3x+MjvVsq4G0h8+gfTdecKWPwfooDEyKMym1FpbqzNfm
SA==
-----END CERTIFICATE-----
