Certificate:
    Data:
        Version: 3 (0x2)
        Serial Number:
            af:65:4e:4a:68:a7:86:2e:27:fc:b9:f4:eb:af:d1:63
        Signature Algorithm: sha256WithRSAEncryption
        Issuer: CN=team460-net
        Validity
            Not Before: Nov  4 10:48:48 2023 GMT
            Not After : Oct 19 10:48:48 2026 GMT
        Subject: CN=team460-client
        Subject Public Key Info:
            Public Key Algorithm: rsaEncryption
                Public-Key: (2048 bit)
                Modulus:
                    00:bc:20:75:34:e9:07:b3:47:3a:b3:a2:e2:b5:c9:
                    32:af:26:01:38:d8:12:9e:ed:a0:70:f5:9b:ab:a6:
                    29:6b:4e:a7:df:93:79:2f:bd:36:c6:4d:06:00:f7:
                    23:7c:d1:ae:f4:00:3b:12:a2:57:db:66:18:30:8d:
                    b0:b5:78:d0:46:3d:ba:2b:a3:a6:d8:34:0d:2f:64:
                    f7:bc:a4:40:0a:1e:25:01:0d:54:8e:bf:7a:a4:c0:
                    0b:b8:fa:b8:30:c4:87:05:17:bc:ab:7c:1a:03:f7:
                    af:04:f0:1b:0b:93:b1:76:24:60:14:01:92:e7:75:
                    92:a3:34:5f:7f:cf:97:1c:d6:37:ff:8b:fb:96:fb:
                    dc:77:cb:57:54:84:fb:59:6f:27:65:8e:af:eb:f4:
                    55:aa:32:21:e3:5f:e6:c3:f3:84:55:63:48:42:9b:
                    d3:5b:9a:73:24:3c:62:bf:12:ac:3d:e4:7a:f2:47:
                    5f:18:34:d0:3a:db:7f:e9:2a:66:86:a9:41:82:1c:
                    7b:a8:9e:ce:b5:d2:df:00:7a:0c:e7:c4:4a:19:41:
                    98:05:24:29:2f:b9:e9:af:77:01:bb:ff:17:3f:06:
                    ae:51:59:dc:be:1d:83:9b:a2:68:dd:77:0a:a3:d6:
                    a4:f7:72:27:bf:5a:64:51:67:a4:05:17:92:3c:a1:
                    2c:a5
                Exponent: 65537 (0x10001)
        X509v3 extensions:
            X509v3 Basic Constraints: 
                CA:FALSE
            X509v3 Subject Key Identifier: 
                89:8B:E1:A5:3F:84:C1:35:1B:E3:2E:CC:3B:B4:C8:DF:22:59:DE:DC
            X509v3 Authority Key Identifier: 
                keyid:06:AE:B5:90:02:F1:90:CA:77:EB:DD:1F:44:14:17:5D:44:84:CA:33
                DirName:/CN=team460-net
                serial:39:46:47:59:F6:45:D6:66:6C:CF:7F:83:9C:6D:99:3A:C3:80:95:A0
            X509v3 Extended Key Usage: 
                TLS Web Client Authentication
            X509v3 Key Usage: 
                Digital Signature
    Signature Algorithm: sha256WithRSAEncryption
    Signature Value:
        78:fc:4d:c2:44:d9:69:60:f3:a5:96:7b:ad:ee:5a:32:e9:46:
        b6:1b:8d:a6:c2:65:ff:96:27:70:ab:8d:09:e7:8f:73:08:e6:
        cb:e5:db:39:3d:af:dd:88:b4:26:b4:73:1a:d7:33:fa:1c:14:
        22:87:84:22:00:c5:85:a0:7b:d7:74:15:7a:a1:e9:81:f9:d6:
        f9:3a:43:8b:1e:c6:91:bc:de:66:e8:8d:57:cc:db:e5:fb:f8:
        cb:15:f4:b5:aa:d7:b8:d7:05:5f:68:93:50:e5:b4:cf:1a:d2:
        af:19:ff:06:e5:ba:6a:52:74:38:75:da:87:d9:d1:4e:22:2c:
        8b:69:70:bb:6c:98:9f:0f:db:da:88:30:7b:a8:53:0d:ab:8c:
        34:f9:92:6a:bd:35:67:a6:09:b9:90:fc:89:c2:3e:d8:d0:2e:
        7e:8b:d0:6c:9a:c1:23:b6:86:06:77:0c:e6:44:00:bf:7d:a6:
        32:46:7e:2b:19:8a:db:af:10:ec:f4:01:2e:28:3e:f5:1d:22:
        19:e9:b0:2a:8b:45:ea:31:2b:12:34:17:d7:14:77:a8:df:6b:
        30:a4:b4:8a:cb:32:bb:1e:52:0b:8c:0f:e5:cc:c3:0c:23:9f:
        24:d5:38:61:dc:95:8f:9c:b7:f9:bc:fb:a5:98:ab:62:fc:25:
        46:de:0b:57
-----BEGIN CERTIFICATE-----
MIIDXTCCAkWgAwIBAgIRAK9lTkpop4YuJ/y59Ouv0WMwDQYJKoZIhvcNAQELBQAw
FjEUMBIGA1UEAwwLdGVhbTQ2MC1uZXQwHhcNMjMxMTA0MTA0ODQ4WhcNMjYxMDE5
MTA0ODQ4WjAZMRcwFQYDVQQDDA50ZWFtNDYwLWNsaWVudDCCASIwDQYJKoZIhvcN
AQEBBQADggEPADCCAQoCggEBALwgdTTpB7NHOrOi4rXJMq8mATjYEp7toHD1m6um
KWtOp9+TeS+9NsZNBgD3I3zRrvQAOxKiV9tmGDCNsLV40EY9uiujptg0DS9k97yk
QAoeJQENVI6/eqTAC7j6uDDEhwUXvKt8GgP3rwTwGwuTsXYkYBQBkud1kqM0X3/P
lxzWN/+L+5b73HfLV1SE+1lvJ2WOr+v0VaoyIeNf5sPzhFVjSEKb01uacyQ8Yr8S
rD3kevJHXxg00Drbf+kqZoapQYIce6iezrXS3wB6DOfEShlBmAUkKS+56a93Abv/
Fz8GrlFZ3L4dg5uiaN13CqPWpPdyJ79aZFFnpAUXkjyhLKUCAwEAAaOBojCBnzAJ
BgNVHRMEAjAAMB0GA1UdDgQWBBSJi+GlP4TBNRvjLsw7tMjfIlne3DBRBgNVHSME
SjBIgBQGrrWQAvGQynfr3R9EFBddRITKM6EapBgwFjEUMBIGA1UEAwwLdGVhbTQ2
MC1uZXSCFDlGR1n2RdZmbM9/g5xtmTrDgJWgMBMGA1UdJQQMMAoGCCsGAQUFBwMC
MAsGA1UdDwQEAwIHgDANBgkqhkiG9w0BAQsFAAOCAQEAePxNwkTZaWDzpZZ7re5a
MulGthuNpsJl/5YncKuNCeePcwjmy+XbOT2v3Yi0JrRzGtcz+hwUIoeEIgDFhaB7
13QVeqHpgfnW+TpDix7GkbzeZuiNV8zb5fv4yxX0tarXuNcFX2iTUOW0zxrSrxn/
BuW6alJ0OHXah9nRTiIsi2lwu2yYnw/b2ogwe6hTDauMNPmSar01Z6YJuZD8icI+
2NAufovQbJrBI7aGBncM5kQAv32mMkZ+KxmK268Q7PQBLig+9R0iGemwKotF6jEr
EjQX1xR3qN9rMKS0issyux5SC4wP5czDDCOfJNU4YdyVj5y3+bz7pZirYvwlRt4L
Vw==
-----END CERTIFICATE-----
