Certificate:
    Data:
        Version: 3 (0x2)
        Serial Number:
            ca:c8:92:2e:7d:4f:06:69:16:22:e3:c5:9a:ac:ba:d4
        Signature Algorithm: sha256WithRSAEncryption
        Issuer: CN=team460-net
        Validity
            Not Before: Nov  4 10:48:48 2023 GMT
            Not After : Oct 19 10:48:48 2026 GMT
        Subject: CN=team460-server
        Subject Public Key Info:
            Public Key Algorithm: rsaEncryption
                Public-Key: (2048 bit)
                Modulus:
                    00:8f:70:64:39:a6:04:39:03:67:80:4c:d1:c8:bc:
                    0f:2c:ce:5d:5b:51:e6:28:dc:e4:4f:83:1e:eb:40:
                    bb:93:a8:dd:0a:23:0a:68:57:39:67:bc:be:a9:be:
                    8d:00:74:19:e5:b2:45:9a:8e:d9:45:57:09:e1:db:
                    28:21:8c:b4:c2:43:b0:e1:48:49:d7:0e:42:94:11:
                    12:a9:dc:d4:79:df:1c:42:2a:c5:4b:a8:6a:8b:fa:
                    38:c7:0b:0d:1b:cb:df:55:20:d5:32:f3:a1:5a:9a:
                    a0:79:aa:80:75:82:9b:32:01:dd:62:55:25:c0:62:
                    03:3f:6b:c2:67:32:30:be:e7:0f:83:6a:53:82:7b:
                    64:c8:7c:db:b1:93:c0:81:05:dc:b6:f5:d7:f8:3b:
                    4f:8a:93:dc:d3:f3:bd:2c:fb:c1:c9:66:2a:eb:94:
                    f8:df:af:59:41:0d:3a:bf:c0:15:b9:bf:cb:ae:f1:
                    02:a1:f5:91:3e:23:bc:06:b3:ca:63:dc:2b:47:b6:
                    0a:9f:80:84:35:39:b7:97:49:0f:0f:a5:fe:09:03:
                    31:26:4b:7a:09:97:1a:24:d7:93:24:a0:d5:eb:d3:
                    d3:b7:4d:73:44:da:6a:a0:16:4b:48:7d:79:46:ce:
                    af:05:78:81:b3:09:25:be:00:6b:5b:78:59:6b:61:
                    87:cf
                Exponent: 65537 (0x10001)
        X509v3 extensions:
            X509v3 Basic Constraints: 
                CA:FALSE
            X509v3 Subject Key Identifier: 
                0A:AA:39:80:B9:C5:1A:DF:00:BC:EA:A2:31:29:1C:8A:1E:48:73:C3
            X509v3 Authority Key Identifier: 
                keyid:06:AE:B5:90:02:F1:90:CA:77:EB:DD:1F:44:14:17:5D:44:84:CA:33
                DirName:/CN=team460-net
                serial:39:46:47:59:F6:45:D6:66:6C:CF:7F:83:9C:6D:99:3A:C3:80:95:A0
            X509v3 Extended Key Usage: 
                TLS Web Server Authentication
            X509v3 Key Usage: 
                Digital Signature, Key Encipherment
            X509v3 Subject Alternative Name: 
                DNS:team460-server
    Signature Algorithm: sha256WithRSAEncryption
    Signature Value:
        5c:98:bf:d4:27:98:38:a2:c9:2f:97:38:60:d8:02:30:ab:dd:
        3d:67:3b:0f:98:eb:60:89:44:ac:68:24:63:9e:49:42:bb:06:
        e9:86:5a:d4:2c:f0:e9:c5:0e:0c:6d:d6:04:b4:fc:3e:20:34:
        69:92:93:7f:26:1f:74:c3:02:4b:4d:cc:bb:01:71:f6:04:0b:
        01:4b:04:82:4c:11:84:9d:29:7f:f2:55:db:47:d4:64:4a:09:
        5e:c9:c1:c1:3d:3e:22:ea:cb:7a:d1:b0:8f:84:2d:c9:a5:ce:
        cb:8f:18:6c:45:43:73:9d:6b:99:37:95:54:f1:c0:85:a8:15:
        27:be:96:4d:5e:c6:1f:0a:01:98:79:f7:dc:dc:ac:2e:38:5e:
        6a:27:70:ac:b0:77:b5:fc:16:ac:25:89:e2:32:b5:84:0c:0b:
        90:c3:63:75:51:b9:c4:23:b4:f5:a1:a5:2d:e3:9e:f6:f0:ba:
        d9:14:92:01:7d:92:fb:7f:c5:d7:00:f8:a3:2a:5c:94:de:0f:
        78:ce:78:59:26:35:b3:58:60:57:1b:dd:e6:97:6f:5b:5a:09:
        3e:c8:3b:5a:4b:61:5c:5d:18:38:6a:4f:39:33:ef:93:91:3a:
        9e:f8:50:70:29:a2:55:bf:4d:6c:42:47:a6:4d:0e:bc:6f:49:
        a1:7c:2a:8d
-----BEGIN CERTIFICATE-----
MIIDeDCCAmCgAwIBAgIRAMrIki59TwZpFiLjxZqsutQwDQYJKoZIhvcNAQELBQAw
FjEUMBIGA1UEAwwLdGVhbTQ2MC1uZXQwHhcNMjMxMTA0MTA0ODQ4WhcNMjYxMDE5
MTA0ODQ4WjAZMRcwFQYDVQQDDA50ZWFtNDYwLXNlcnZlcjCCASIwDQYJKoZIhvcN
AQEBBQADggEPADCCAQoCggEBAI9wZDmmBDkDZ4BM0ci8DyzOXVtR5ijc5E+DHutA
u5Oo3QojCmhXOWe8vqm+jQB0GeWyRZqO2UVXCeHbKCGMtMJDsOFISdcOQpQREqnc
1HnfHEIqxUuoaov6OMcLDRvL31Ug1TLzoVqaoHmqgHWCmzIB3WJVJcBiAz9rwmcy
ML7nD4NqU4J7ZMh827GTwIEF3Lb11/g7T4qT3NPzvSz7wclmKuuU+N+vWUENOr/A
Fbm/y67xAqH1kT4jvAazymPcK0e2Cp+AhDU5t5dJDw+l/gkDMSZLegmXGiTXkySg
1evT07dNc0TaaqAWS0h9eUbOrwV4gbMJJb4Aa1t4WWthh88CAwEAAaOBvTCBujAJ
BgNVHRMEAjAAMB0GA1UdDgQWBBQKqjmAucUa3wC86qIxKRyKHkhzwzBRBgNVHSME
SjBIgBQGrrWQAvGQynfr3R9EFBddRITKM6EapBgwFjEUMBIGA1UEAwwLdGVhbTQ2
MC1uZXSCFDlGR1n2RdZmbM9/g5xtmTrDgJWgMBMGA1UdJQQMMAoGCCsGAQUFBwMB
MAsGA1UdDwQEAwIFoDAZBgNVHREEEjAQgg50ZWFtNDYwLXNlcnZlcjANBgkqhkiG
9w0BAQsFAAOCAQEAXJi/1CeYOKLJL5c4YNgCMKvdPWc7D5jrYIlErGgkY55JQrsG
6YZa1Czw6cUODG3WBLT8PiA0aZKTfyYfdMMCS03MuwFx9gQLAUsEgkwRhJ0pf/JV
20fUZEoJXsnBwT0+IurLetGwj4QtyaXOy48YbEVDc51rmTeVVPHAhagVJ76WTV7G
HwoBmHn33NysLjheaidwrLB3tfwWrCWJ4jK1hAwLkMNjdVG5xCO09aGlLeOe9vC6
2RSSAX2S+3/F1wD4oypclN4PeM54WSY1s1hgVxvd5pdvW1oJPsg7WkthXF0YOGpP
OTPvk5E6nvhQcCmiVb9NbEJHpk0OvG9JoXwqjQ==
-----END CERTIFICATE-----
