Certificate:
    Data:
        Version: 3 (0x2)
        Serial Number:
            36:93:5a:c1:78:66:4b:3e:9e:c1:2e:8c:1f:3f:8f:0b
        Signature Algorithm: sha256WithRSAEncryption
        Issuer: CN=team71-net
        Validity
            Not Before: Nov  3 20:40:27 2023 GMT
            Not After : Oct 18 20:40:27 2026 GMT
        Subject: CN=team71-client
        Subject Public Key Info:
            Public Key Algorithm: rsaEncryption
                Public-Key: (2048 bit)
                Modulus:
                    00:fb:15:e5:15:6c:b0:bc:b2:ad:41:8b:ef:6b:bd:
                    d9:98:80:ef:23:37:80:2b:95:dd:a4:65:ee:e2:91:
                    83:26:68:46:42:f3:01:53:5d:e8:0c:be:23:b0:f1:
                    46:e6:c4:1a:24:d5:05:1f:ab:b3:d5:d6:c4:d1:d5:
                    72:25:4f:d6:6d:71:50:9e:9a:67:f3:1d:ac:82:86:
                    c4:2b:c3:83:04:04:4f:e3:6d:d4:2a:2d:f3:9e:ac:
                    ef:48:32:75:d2:57:6a:de:fe:76:a3:ab:4b:8d:53:
                    0a:0b:a7:51:50:9c:eb:2c:ec:c5:bd:b5:5c:a7:59:
                    c0:c1:dc:f7:3d:e3:87:d5:4e:39:c3:b2:37:4a:2f:
                    bc:c9:f3:76:ce:b7:55:2a:e4:8c:17:9d:57:7e:04:
                    6b:ef:1e:5c:a9:88:71:ef:08:23:62:6e:e2:3b:af:
                    cc:6e:64:34:f7:57:29:2d:c9:c5:48:3b:39:ff:71:
                    47:a1:c5:ee:3e:ae:86:ce:55:a1:c1:3d:fd:17:c1:
                    b8:b8:c6:81:8a:a3:cd:a4:95:36:c7:b5:e9:f3:b6:
                    45:9d:d0:68:5e:b2:b9:db:10:65:77:6c:45:a0:49:
                    0c:36:ef:b8:46:4d:08:d7:80:94:3d:8c:0c:da:b6:
                    9e:d6:0d:dc:e2:a1:ef:a8:a5:3d:79:0f:f2:59:16:
                    4b:27
                Exponent: 65537 (0x10001)
        X509v3 extensions:
            X509v3 Basic Constraints: 
                CA:FALSE
            X509v3 Subject Key Identifier: 
                B7:AA:80:32:8A:25:EE:83:7E:14:59:81:34:14:AD:31:E0:F4:20:62
            X509v3 Authority Key Identifier: 
                keyid:3D:17:84:AA:72:8B:C8:68:71:AD:4D:D3:0A:5D:BE:0F:69:92:EB:21
                DirName:/CN=team71-net
                serial:4B:6F:6E:61:78:8B:47:1F:F3:9B:70:1B:D6:DC:93:6B:1E:18:2D:A2
            X509v3 Extended Key Usage: 
                TLS Web Client Authentication
            X509v3 Key Usage: 
                Digital Signature
    Signature Algorithm: sha256WithRSAEncryption
    Signature Value:
        27:10:4a:b1:2d:e4:86:24:35:40:36:30:22:bb:d0:c2:44:c9:
        54:52:f0:05:50:8f:b9:62:bb:0c:fa:f0:c8:0d:95:da:4b:ef:
        d8:35:53:93:b9:45:d2:8d:c3:be:e8:83:43:32:02:1d:7c:aa:
        a0:fe:68:c2:15:60:07:80:4e:e4:b7:2c:0d:9f:16:42:f3:60:
        a1:f9:8b:48:57:13:f5:30:59:06:07:31:47:2c:51:b1:7d:11:
        e4:c8:6f:e6:fd:7b:98:22:5f:27:5e:14:d6:31:b9:5f:f6:4c:
        7c:db:cc:bd:91:f2:20:db:0d:31:51:a6:96:ef:b8:01:d8:05:
        6a:bb:73:c3:a6:df:5f:1e:b4:99:9c:f6:bb:65:63:19:48:14:
        73:6c:ed:f3:d7:b6:63:87:bb:bb:dd:30:93:de:38:72:af:a1:
        1a:48:30:89:fa:88:ce:90:dd:52:87:3c:20:e8:d0:97:23:55:
        5d:7c:1c:b8:ca:60:82:55:e6:a2:ef:5a:fb:8f:2f:a5:38:31:
        3a:21:76:c9:d9:e5:7e:a7:a8:bc:0f:7f:ea:70:62:35:66:15:
        84:fb:46:cb:c5:30:63:b1:12:01:59:68:c0:66:95:30:96:f2:
        85:0b:dc:8a:ec:f7:84:9c:1a:54:0c:d5:6e:94:34:e7:7e:a8:
        3c:4c:c1:50
-----BEGIN CERTIFICATE-----
MIIDWTCCAkGgAwIBAgIQNpNawXhmSz6ewS6MHz+PCzANBgkqhkiG9w0BAQsFADAV
MRMwEQYDVQQDDAp0ZWFtNzEtbmV0MB4XDTIzMTEwMzIwNDAyN1oXDTI2MTAxODIw
NDAyN1owGDEWMBQGA1UEAwwNdGVhbTcxLWNsaWVudDCCASIwDQYJKoZIhvcNAQEB
BQADggEPADCCAQoCggEBAPsV5RVssLyyrUGL72u92ZiA7yM3gCuV3aRl7uKRgyZo
RkLzAVNd6Ay+I7DxRubEGiTVBR+rs9XWxNHVciVP1m1xUJ6aZ/MdrIKGxCvDgwQE
T+Nt1Cot856s70gyddJXat7+dqOrS41TCgunUVCc6yzsxb21XKdZwMHc9z3jh9VO
OcOyN0ovvMnzds63VSrkjBedV34Ea+8eXKmIce8II2Ju4juvzG5kNPdXKS3JxUg7
Of9xR6HF7j6uhs5VocE9/RfBuLjGgYqjzaSVNse16fO2RZ3QaF6yudsQZXdsRaBJ
DDbvuEZNCNeAlD2MDNq2ntYN3OKh76ilPXkP8lkWSycCAwEAAaOBoTCBnjAJBgNV
HRMEAjAAMB0GA1UdDgQWBBS3qoAyiiXug34UWYE0FK0x4PQgYjBQBgNVHSMESTBH
gBQ9F4SqcovIaHGtTdMKXb4PaZLrIaEZpBcwFTETMBEGA1UEAwwKdGVhbTcxLW5l
dIIUS29uYXiLRx/zm3Ab1tyTax4YLaIwEwYDVR0lBAwwCgYIKwYBBQUHAwIwCwYD
VR0PBAQDAgeAMA0GCSqGSIb3DQEBCwUAA4IBAQAnEEqxLeSGJDVANjAiu9DCRMlU
UvAFUI+5YrsM+vDIDZXaS+/YNVOTuUXSjcO+6INDMgIdfKqg/mjCFWAHgE7ktywN
nxZC82Ch+YtIVxP1MFkGBzFHLFGxfRHkyG/m/XuYIl8nXhTWMblf9kx828y9kfIg
2w0xUaaW77gB2AVqu3PDpt9fHrSZnPa7ZWMZSBRzbO3z17Zjh7u73TCT3jhyr6Ea
SDCJ+ojOkN1Shzwg6NCXI1VdfBy4ymCCVeai71r7jy+lODE6IXbJ2eV+p6i8D3/q
cGI1ZhWE+0bLxTBjsRIBWWjAZpUwlvKFC9yK7PeEnBpUDNVulDTnfqg8TMFQ
-----END CERTIFICATE-----
