Certificate:
    Data:
        Version: 3 (0x2)
        Serial Number:
            5f:2a:ea:2c:6a:6a:59:07:8e:44:d2:bd:cd:6e:9f:71
        Signature Algorithm: sha256WithRSAEncryption
        Issuer: CN=team384-net
        Validity
            Not Before: Nov  4 10:47:36 2023 GMT
            Not After : Oct 19 10:47:36 2026 GMT
        Subject: CN=team384-client
        Subject Public Key Info:
            Public Key Algorithm: rsaEncryption
                Public-Key: (2048 bit)
                Modulus:
                    00:d7:d3:a3:2a:32:68:80:01:aa:97:1c:b9:46:f7:
                    33:e9:15:87:c8:17:0b:a1:d6:d1:be:a1:85:6c:81:
                    d4:8a:eb:61:0b:76:a3:b7:4a:0e:f0:6d:26:27:88:
                    22:d5:e8:7d:79:d0:17:c5:e9:84:26:46:7b:67:f8:
                    2b:b2:2b:7f:34:3a:1d:b7:9a:ca:b1:3e:71:27:62:
                    80:c3:ac:6f:71:88:af:e4:da:a7:60:d0:af:fa:bb:
                    2d:73:c3:19:22:44:51:e8:ff:be:da:64:f4:d3:80:
                    9e:23:c1:c1:fc:a2:98:63:61:67:5b:bd:58:c2:05:
                    43:14:a6:e8:49:e8:73:64:3d:fe:55:62:11:b2:29:
                    db:5a:5c:9b:cc:ab:30:2d:81:83:73:bd:42:7f:82:
                    77:33:0d:a3:0c:d2:80:59:b3:c9:17:17:05:d5:d0:
                    f5:32:96:f6:b4:c4:46:7e:3b:f8:48:f3:21:1a:0f:
                    ef:4e:ea:f6:f4:e9:b1:dd:0f:62:0d:06:a5:d2:7e:
                    c7:93:93:f0:79:0e:ee:5a:93:91:be:18:e6:51:4f:
                    58:12:07:4d:28:fc:df:7e:87:40:1c:40:82:d3:d4:
                    13:05:fd:40:30:88:c9:4a:4b:37:42:87:70:25:2b:
                    c0:b2:3b:f1:b2:08:5e:9e:db:a6:09:61:f7:4a:08:
                    de:03
                Exponent: 65537 (0x10001)
        X509v3 extensions:
            X509v3 Basic Constraints: 
                CA:FALSE
            X509v3 Subject Key Identifier: 
                B6:E1:60:4D:1E:F4:04:E7:A3:E2:E3:C5:54:63:CF:3A:BF:38:D5:5B
            X509v3 Authority Key Identifier: 
                keyid:BE:FE:47:3D:F3:4E:D5:17:D5:49:A8:95:6C:C4:54:28:2F:77:79:BB
                DirName:/CN=team384-net
                serial:53:5B:6B:4F:85:5F:D7:3A:9A:E3:64:A6:54:D4:EF:47:11:7B:A7:35
            X509v3 Extended Key Usage: 
                TLS Web Client Authentication
            X509v3 Key Usage: 
                Digital Signature
    Signature Algorithm: sha256WithRSAEncryption
    Signature Value:
        90:f9:81:23:71:68:05:65:f6:18:9c:0f:92:3c:c0:8b:8b:fb:
        e4:6e:0c:ae:3f:4d:dd:ab:a1:38:f3:8f:18:00:4d:a9:27:cf:
        16:37:4e:6a:36:64:f0:92:43:d4:cb:10:42:64:48:04:f2:dc:
        1a:ef:e7:32:d8:eb:5b:bd:05:e3:2c:23:cb:29:fc:e3:b6:65:
        5e:2e:3e:89:48:12:b3:7a:b3:3e:a1:b6:ed:be:64:3f:95:b7:
        48:1d:e8:fc:35:7f:2a:ff:0d:54:3c:9a:62:af:eb:12:da:17:
        00:1c:64:aa:ab:8b:18:2b:e4:86:95:be:98:69:38:4e:dd:b0:
        c3:7e:e4:6c:65:28:90:4a:b5:ed:81:f2:96:08:39:6a:da:ec:
        9b:ad:25:5b:4e:ef:03:29:96:97:48:6b:a9:3c:98:9b:66:84:
        a9:a9:54:da:c5:6f:61:73:84:8f:cf:c6:cb:c8:d4:e1:7c:4e:
        a2:db:6b:13:b3:13:1a:0c:85:24:f3:42:bc:ec:12:dc:76:9b:
        17:5c:19:ce:fc:f1:2c:db:2e:10:4d:03:42:6f:13:ff:d8:34:
        fb:4a:41:1c:d1:e6:d3:04:3f:64:bf:b9:f4:eb:90:c9:fc:8c:
        42:d8:15:ae:30:55:f3:56:7d:6c:fc:3c:28:78:24:3f:7a:a1:
        a2:b4:63:0a
-----BEGIN CERTIFICATE-----
MIIDXDCCAkSgAwIBAgIQXyrqLGpqWQeORNK9zW6fcTANBgkqhkiG9w0BAQsFADAW
MRQwEgYDVQQDDAt0ZWFtMzg0LW5ldDAeFw0yMzExMDQxMDQ3MzZaFw0yNjEwMTkx
MDQ3MzZaMBkxFzAVBgNVBAMMDnRlYW0zODQtY2xpZW50MIIBIjANBgkqhkiG9w0B
AQEFAAOCAQ8AMIIBCgKCAQEA19OjKjJogAGqlxy5Rvcz6RWHyBcLodbRvqGFbIHU
iuthC3ajt0oO8G0mJ4gi1eh9edAXxemEJkZ7Z/grsit/NDodt5rKsT5xJ2KAw6xv
cYiv5NqnYNCv+rstc8MZIkRR6P++2mT004CeI8HB/KKYY2FnW71YwgVDFKboSehz
ZD3+VWIRsinbWlybzKswLYGDc71Cf4J3Mw2jDNKAWbPJFxcF1dD1Mpb2tMRGfjv4
SPMhGg/vTur29Omx3Q9iDQal0n7Hk5PweQ7uWpORvhjmUU9YEgdNKPzffodAHECC
09QTBf1AMIjJSks3QodwJSvAsjvxsghentumCWH3SgjeAwIDAQABo4GiMIGfMAkG
A1UdEwQCMAAwHQYDVR0OBBYEFLbhYE0e9ATno+LjxVRjzzq/ONVbMFEGA1UdIwRK
MEiAFL7+Rz3zTtUX1UmolWzEVCgvd3m7oRqkGDAWMRQwEgYDVQQDDAt0ZWFtMzg0
LW5ldIIUU1trT4Vf1zqa42SmVNTvRxF7pzUwEwYDVR0lBAwwCgYIKwYBBQUHAwIw
CwYDVR0PBAQDAgeAMA0GCSqGSIb3DQEBCwUAA4IBAQCQ+YEjcWgFZfYYnA+SPMCL
i/vkbgyuP03dq6E4848YAE2pJ88WN05qNmTwkkPUyxBCZEgE8twa7+cy2OtbvQXj
LCPLKfzjtmVeLj6JSBKzerM+obbtvmQ/lbdIHej8NX8q/w1UPJpir+sS2hcAHGSq
q4sYK+SGlb6YaThO3bDDfuRsZSiQSrXtgfKWCDlq2uybrSVbTu8DKZaXSGupPJib
ZoSpqVTaxW9hc4SPz8bLyNThfE6i22sTsxMaDIUk80K87BLcdpsXXBnO/PEs2y4Q
TQNCbxP/2DT7SkEc0ebTBD9kv7n065DJ/IxC2BWuMFXzVn1s/DwoeCQ/eqGitGMK
-----END CERTIFICATE-----
