Certificate:
    Data:
        Version: 3 (0x2)
        Serial Number:
            9c:33:e2:18:49:9c:67:ef:00:34:4a:11:f8:6a:3c:35
        Signature Algorithm: sha256WithRSAEncryption
        Issuer: CN=team384-net
        Validity
            Not Before: Nov  4 11:36:06 2023 GMT
            Not After : Oct 19 11:36:06 2026 GMT
        Subject: CN=team384-client
        Subject Public Key Info:
            Public Key Algorithm: rsaEncryption
                Public-Key: (2048 bit)
                Modulus:
                    00:ac:39:7c:4d:9d:0e:6e:c4:42:6b:d2:6a:ce:17:
                    40:45:7c:aa:32:b2:52:49:b7:07:e9:43:2c:4c:b6:
                    10:c7:23:1e:72:18:06:87:28:96:e7:bf:69:29:07:
                    55:3c:75:eb:6e:9c:69:66:c8:36:21:b0:7c:7b:f9:
                    9d:c4:6c:34:97:45:e2:aa:73:d9:65:07:71:f1:d8:
                    ab:41:ff:6e:85:09:8a:4e:c3:ac:1d:7c:43:fe:06:
                    64:79:f7:e7:6b:49:b8:c8:e9:72:08:5a:41:e1:5d:
                    74:e3:e2:ac:91:20:a3:1c:01:85:7b:39:9e:d8:bd:
                    2c:38:37:41:54:b3:15:9a:6e:56:a3:46:78:85:cc:
                    d5:a5:17:2e:f8:0c:65:ea:63:80:aa:d6:e8:de:34:
                    fe:66:58:c7:9a:2d:e1:fd:d7:54:42:c1:76:5f:e1:
                    b6:f2:c7:28:ee:05:f9:1d:e0:08:7b:f7:2b:6f:70:
                    e2:ce:aa:76:5e:a7:57:53:bf:db:24:9d:12:83:db:
                    44:47:8c:6f:f1:6b:ac:3e:f0:d9:91:3d:52:e8:f4:
                    ce:d0:db:d6:cb:aa:40:c0:53:90:60:a9:2d:d5:d0:
                    c4:7c:b9:7f:2d:f9:0f:16:f1:40:fe:3c:88:0b:51:
                    10:65:3b:d5:42:b9:50:c5:4c:0f:77:af:f7:82:32:
                    59:ab
                Exponent: 65537 (0x10001)
        X509v3 extensions:
            X509v3 Basic Constraints: 
                CA:FALSE
            X509v3 Subject Key Identifier: 
                11:F0:5E:9D:C3:E8:00:48:FF:DE:61:B9:0A:84:A5:C4:CD:0B:A9:19
            X509v3 Authority Key Identifier: 
                keyid:93:54:D0:49:74:47:68:FB:6C:10:AC:18:CF:EB:8A:06:18:0D:5C:3A
                DirName:/CN=team384-net
                serial:60:E1:0F:46:88:22:18:23:84:36:43:9B:4E:BE:F1:39:C7:04:D7:6F
            X509v3 Extended Key Usage: 
                TLS Web Client Authentication
            X509v3 Key Usage: 
                Digital Signature
    Signature Algorithm: sha256WithRSAEncryption
    Signature Value:
        8a:f3:83:32:e0:bf:dc:b8:c9:e9:44:11:23:e5:9a:25:d2:d0:
        fa:4d:34:03:56:18:21:11:5a:2b:38:01:4e:d5:ca:29:7a:de:
        7f:ef:4e:d2:62:e5:c9:84:51:f3:6d:3a:97:83:9b:5c:14:fd:
        d9:78:b9:d0:f6:7c:fc:6f:7d:3a:4e:52:b8:90:75:b4:6e:41:
        64:f1:59:7e:2e:48:90:5d:13:5d:a9:b1:be:c4:30:aa:3f:80:
        00:52:67:59:e0:a6:d0:88:28:cb:e2:8f:01:cb:30:28:94:c1:
        81:8c:9a:82:3c:a4:88:5c:ee:fc:a9:01:88:e6:39:3f:c7:3b:
        c0:19:76:da:78:76:cc:69:2e:20:5a:23:91:d2:2b:e5:39:e9:
        cf:61:f9:90:4f:df:51:33:34:fe:22:42:ef:85:2f:4c:90:e8:
        8a:36:83:ad:60:27:4c:75:9b:41:28:76:ec:0f:b7:95:8a:17:
        df:ae:9a:81:1b:1d:c1:81:12:37:7a:58:9d:de:8a:29:0d:fb:
        0d:c8:b6:bf:1c:5b:f9:ac:b6:b6:bf:9d:34:c5:a7:dd:5a:cd:
        e8:ce:ff:e6:b3:0a:4d:ca:aa:78:51:99:5a:bc:df:df:81:9d:
        41:68:b5:f5:af:9a:ca:5a:07:69:3c:76:14:87:eb:71:18:1b:
        94:a9:c3:14
-----BEGIN CERTIFICATE-----
MIIDXTCCAkWgAwIBAgIRAJwz4hhJnGfvADRKEfhqPDUwDQYJKoZIhvcNAQELBQAw
FjEUMBIGA1UEAwwLdGVhbTM4NC1uZXQwHhcNMjMxMTA0MTEzNjA2WhcNMjYxMDE5
MTEzNjA2WjAZMRcwFQYDVQQDDA50ZWFtMzg0LWNsaWVudDCCASIwDQYJKoZIhvcN
AQEBBQADggEPADCCAQoCggEBAKw5fE2dDm7EQmvSas4XQEV8qjKyUkm3B+lDLEy2
EMcjHnIYBocolue/aSkHVTx1626caWbINiGwfHv5ncRsNJdF4qpz2WUHcfHYq0H/
boUJik7DrB18Q/4GZHn352tJuMjpcghaQeFddOPirJEgoxwBhXs5nti9LDg3QVSz
FZpuVqNGeIXM1aUXLvgMZepjgKrW6N40/mZYx5ot4f3XVELBdl/htvLHKO4F+R3g
CHv3K29w4s6qdl6nV1O/2ySdEoPbREeMb/FrrD7w2ZE9Uuj0ztDb1suqQMBTkGCp
LdXQxHy5fy35DxbxQP48iAtREGU71UK5UMVMD3ev94IyWasCAwEAAaOBojCBnzAJ
BgNVHRMEAjAAMB0GA1UdDgQWBBQR8F6dw+gASP/eYbkKhKXEzQupGTBRBgNVHSME
SjBIgBSTVNBJdEdo+2wQrBjP64oGGA1cOqEapBgwFjEUMBIGA1UEAwwLdGVhbTM4
NC1uZXSCFGDhD0aIIhgjhDZDm06+8TnHBNdvMBMGA1UdJQQMMAoGCCsGAQUFBwMC
MAsGA1UdDwQEAwIHgDANBgkqhkiG9w0BAQsFAAOCAQEAivODMuC/3LjJ6UQRI+Wa
JdLQ+k00A1YYIRFaKzgBTtXKKXref+9O0mLlyYRR8206l4ObXBT92Xi50PZ8/G99
Ok5SuJB1tG5BZPFZfi5IkF0TXamxvsQwqj+AAFJnWeCm0Igoy+KPAcswKJTBgYya
gjykiFzu/KkBiOY5P8c7wBl22nh2zGkuIFojkdIr5Tnpz2H5kE/fUTM0/iJC74Uv
TJDoijaDrWAnTHWbQSh27A+3lYoX366agRsdwYESN3pYnd6KKQ37Dci2vxxb+ay2
tr+dNMWn3VrN6M7/5rMKTcqqeFGZWrzf34GdQWi19a+ayloHaTx2FIfrcRgblKnD
FA==
-----END CERTIFICATE-----
