Certificate:
    Data:
        Version: 3 (0x2)
        Serial Number:
            a7:51:77:43:a2:9d:9f:4a:d4:fe:95:40:13:2b:fc:52
        Signature Algorithm: sha256WithRSAEncryption
        Issuer: CN=team384-net
        Validity
            Not Before: Nov  4 11:36:06 2023 GMT
            Not After : Oct 19 11:36:06 2026 GMT
        Subject: CN=team384-server
        Subject Public Key Info:
            Public Key Algorithm: rsaEncryption
                Public-Key: (2048 bit)
                Modulus:
                    00:92:ee:10:74:e1:04:12:a9:41:ab:29:44:b9:69:
                    55:8e:ed:fb:82:f7:c2:1c:08:6d:af:da:d3:4d:99:
                    80:20:b6:25:90:94:11:1b:95:6c:8e:c5:b6:f7:45:
                    3b:c3:c2:df:a0:d0:d5:14:f7:12:4d:f6:fa:a4:2c:
                    1a:02:86:c9:46:06:35:04:8c:31:d6:98:df:a1:2f:
                    75:47:30:03:a0:ba:c3:5a:b6:e0:8c:cc:98:3e:a8:
                    f2:27:7e:d0:fa:94:5f:d4:89:66:18:e2:5c:21:5f:
                    6b:59:b4:d4:39:8e:d4:40:ce:9e:03:cd:49:83:8d:
                    3e:e1:96:85:27:19:48:06:92:90:22:96:3a:71:6d:
                    63:b8:0a:b4:5b:5d:c0:1b:62:df:59:45:25:66:0b:
                    c8:82:83:0e:58:a3:77:c2:06:14:e8:12:b9:76:dc:
                    aa:29:fb:7c:ab:f6:ef:4a:1a:b5:a7:db:44:af:44:
                    ad:21:02:33:85:7a:ff:e8:4d:82:ad:c7:b5:03:a3:
                    55:12:86:e9:9a:14:4e:84:a1:fc:dd:1c:94:97:dd:
                    18:65:b2:fb:1d:77:78:f5:5a:ba:f7:b0:c2:4c:95:
                    09:52:51:76:2c:09:65:94:e1:0e:6a:1e:bd:f0:38:
                    fc:c4:a8:9e:54:35:2a:e2:15:b0:72:65:27:90:ee:
                    1c:0b
                Exponent: 65537 (0x10001)
        X509v3 extensions:
            X509v3 Basic Constraints: 
                CA:FALSE
            X509v3 Subject Key Identifier: 
                96:56:DA:8C:DB:BE:B2:70:19:D1:AF:4C:73:97:73:CD:9C:21:6D:72
            X509v3 Authority Key Identifier: 
                keyid:93:54:D0:49:74:47:68:FB:6C:10:AC:18:CF:EB:8A:06:18:0D:5C:3A
                DirName:/CN=team384-net
                serial:60:E1:0F:46:88:22:18:23:84:36:43:9B:4E:BE:F1:39:C7:04:D7:6F
            X509v3 Extended Key Usage: 
                TLS Web Server Authentication
            X509v3 Key Usage: 
                Digital Signature, Key Encipherment
            X509v3 Subject Alternative Name: 
                DNS:team384-server
    Signature Algorithm: sha256WithRSAEncryption
    Signature Value:
        35:cb:26:ee:5f:b1:1b:05:d0:30:45:89:a6:02:44:1b:bd:30:
        2f:18:a3:15:e7:01:ab:fc:1f:f2:29:26:11:70:f9:1d:20:75:
        01:c5:d0:09:27:38:16:ca:dc:32:f6:4c:b3:62:2c:ae:6e:0b:
        4f:48:27:49:ce:ad:16:c2:ac:93:67:dc:13:d8:ad:d4:3c:93:
        29:12:26:75:b5:21:3b:8c:49:f7:20:d2:17:58:13:21:fc:dd:
        ad:87:ba:3c:bf:b5:73:a7:18:e2:27:5b:14:fa:b1:f9:41:e7:
        6d:8f:10:5d:22:c5:a4:73:d1:b1:ed:b0:48:e1:69:48:d0:5e:
        47:2a:73:98:c0:8a:18:62:23:4b:23:91:54:87:ae:4a:0c:37:
        c9:45:b4:2a:e1:14:45:03:71:e1:a2:22:cf:74:4f:55:75:8c:
        1f:bc:56:2d:c8:4b:98:7f:d1:65:66:2e:2a:7e:ff:a4:81:eb:
        4e:ce:9a:65:9c:ba:9d:14:66:02:1c:51:2f:1e:f9:52:14:25:
        ea:21:13:44:6f:85:51:44:f3:b9:16:f3:ff:4e:87:d8:11:e6:
        6d:b9:8d:42:76:2c:63:a1:82:13:f3:36:98:3e:56:ab:44:31:
        4f:a0:53:ab:6b:5b:ae:02:09:94:4d:51:0e:91:b5:4c:8e:c4:
        e8:24:7a:a2
-----BEGIN CERTIFICATE-----
MIIDeDCCAmCgAwIBAgIRAKdRd0OinZ9K1P6VQBMr/FIwDQYJKoZIhvcNAQELBQAw
FjEUMBIGA1UEAwwLdGVhbTM4NC1uZXQwHhcNMjMxMTA0MTEzNjA2WhcNMjYxMDE5
MTEzNjA2WjAZMRcwFQYDVQQDDA50ZWFtMzg0LXNlcnZlcjCCASIwDQYJKoZIhvcN
AQEBBQADggEPADCCAQoCggEBAJLuEHThBBKpQaspRLlpVY7t+4L3whwIba/a002Z
gCC2JZCUERuVbI7FtvdFO8PC36DQ1RT3Ek32+qQsGgKGyUYGNQSMMdaY36EvdUcw
A6C6w1q24IzMmD6o8id+0PqUX9SJZhjiXCFfa1m01DmO1EDOngPNSYONPuGWhScZ
SAaSkCKWOnFtY7gKtFtdwBti31lFJWYLyIKDDlijd8IGFOgSuXbcqin7fKv270oa
tafbRK9ErSECM4V6/+hNgq3HtQOjVRKG6ZoUToSh/N0clJfdGGWy+x13ePVauvew
wkyVCVJRdiwJZZThDmoevfA4/MSonlQ1KuIVsHJlJ5DuHAsCAwEAAaOBvTCBujAJ
BgNVHRMEAjAAMB0GA1UdDgQWBBSWVtqM276ycBnRr0xzl3PNnCFtcjBRBgNVHSME
SjBIgBSTVNBJdEdo+2wQrBjP64oGGA1cOqEapBgwFjEUMBIGA1UEAwwLdGVhbTM4
NC1uZXSCFGDhD0aIIhgjhDZDm06+8TnHBNdvMBMGA1UdJQQMMAoGCCsGAQUFBwMB
MAsGA1UdDwQEAwIFoDAZBgNVHREEEjAQgg50ZWFtMzg0LXNlcnZlcjANBgkqhkiG
9w0BAQsFAAOCAQEANcsm7l+xGwXQMEWJpgJEG70wLxijFecBq/wf8ikmEXD5HSB1
AcXQCSc4FsrcMvZMs2Isrm4LT0gnSc6tFsKsk2fcE9it1DyTKRImdbUhO4xJ9yDS
F1gTIfzdrYe6PL+1c6cY4idbFPqx+UHnbY8QXSLFpHPRse2wSOFpSNBeRypzmMCK
GGIjSyORVIeuSgw3yUW0KuEURQNx4aIiz3RPVXWMH7xWLchLmH/RZWYuKn7/pIHr
Ts6aZZy6nRRmAhxRLx75UhQl6iETRG+FUUTzuRbz/06H2BHmbbmNQnYsY6GCE/M2
mD5Wq0QxT6BTq2tbrgIJlE1RDpG1TI7E6CR6og==
-----END CERTIFICATE-----
