Certificate:
    Data:
        Version: 3 (0x2)
        Serial Number:
            df:a6:b0:2e:1c:b4:62:2d:cc:ed:b0:b7:4f:5b:a2:18
        Signature Algorithm: sha256WithRSAEncryption
        Issuer: CN=team384-net
        Validity
            Not Before: Nov  4 10:47:36 2023 GMT
            Not After : Oct 19 10:47:36 2026 GMT
        Subject: CN=team384-server
        Subject Public Key Info:
            Public Key Algorithm: rsaEncryption
                Public-Key: (2048 bit)
                Modulus:
                    00:d7:e0:f3:18:5b:66:8c:3a:81:dd:d8:e4:5f:c2:
                    6e:6e:46:09:32:08:42:3a:18:58:2d:b9:e6:43:2a:
                    f8:51:f6:94:fa:a1:dd:6a:23:60:64:a5:a7:9b:e5:
                    3c:20:1e:24:1f:ff:e7:ea:52:f2:1b:ed:29:03:f3:
                    8e:9e:30:6b:d3:1d:db:94:7d:b0:13:66:e9:16:38:
                    58:8e:aa:26:16:ca:d6:1f:c4:f6:70:86:bf:61:59:
                    a6:1d:cf:ec:1d:b1:a9:87:5b:29:e4:fd:2f:c5:8e:
                    37:3b:b8:b5:65:3d:5b:a5:a6:35:21:c2:5a:15:32:
                    f9:ef:71:28:67:27:af:d7:4c:a8:27:37:0f:3d:29:
                    2f:5a:f6:25:d3:38:fb:7a:6b:b7:d0:e3:10:43:a0:
                    1d:e5:2a:92:9b:c2:6e:0e:8e:ef:4e:0b:46:7e:26:
                    20:7d:46:24:70:00:41:e4:a8:99:d2:a7:b8:e4:ae:
                    ab:82:35:6d:b4:0c:89:48:e0:57:1f:51:81:42:3c:
                    6a:79:3d:c1:4d:09:07:5b:5f:5f:66:2f:ce:fa:bf:
                    be:6d:c8:ea:2b:09:a4:3e:03:8b:73:47:4d:01:b3:
                    aa:3a:28:5b:1a:48:26:f4:cd:3c:9f:4e:0f:97:69:
                    f5:92:14:44:5c:c2:29:2d:8e:c7:21:a0:5e:fb:d2:
                    d6:63
                Exponent: 65537 (0x10001)
        X509v3 extensions:
            X509v3 Basic Constraints: 
                CA:FALSE
            X509v3 Subject Key Identifier: 
                6C:E7:88:9E:24:AB:43:B8:A1:81:D4:9E:CE:81:18:3E:73:71:A4:7E
            X509v3 Authority Key Identifier: 
                keyid:BE:FE:47:3D:F3:4E:D5:17:D5:49:A8:95:6C:C4:54:28:2F:77:79:BB
                DirName:/CN=team384-net
                serial:53:5B:6B:4F:85:5F:D7:3A:9A:E3:64:A6:54:D4:EF:47:11:7B:A7:35
            X509v3 Extended Key Usage: 
                TLS Web Server Authentication
            X509v3 Key Usage: 
                Digital Signature, Key Encipherment
            X509v3 Subject Alternative Name: 
                DNS:team384-server
    Signature Algorithm: sha256WithRSAEncryption
    Signature Value:
        b1:98:da:1f:05:5c:5e:28:d4:2c:02:69:ba:b1:27:df:d8:45:
        50:28:ee:0f:f8:63:b3:28:0e:1a:63:df:07:0a:6c:16:eb:c4:
        0e:f9:70:d7:6d:ae:ef:95:a5:1a:6d:6c:72:98:d7:bc:8b:33:
        b9:86:29:c1:15:2c:bd:38:11:ff:d8:eb:0e:b0:df:13:7c:aa:
        e4:b5:19:ae:5f:0f:1e:d9:fa:0b:ac:c0:62:d9:6a:d3:60:4d:
        6f:5d:19:53:c0:0c:06:15:4a:b0:77:b8:06:94:de:f3:bf:f2:
        da:ed:35:5c:e7:35:72:ad:2f:56:65:52:93:b7:27:a2:5d:94:
        13:90:ce:9f:67:25:a0:5b:8b:42:5a:91:a7:a5:3f:f1:ba:1a:
        bd:d3:c2:f7:59:25:14:cc:46:4e:36:3d:ac:55:dd:09:63:df:
        a1:01:73:a3:a1:c8:bb:12:ab:6c:49:55:5a:fa:da:0c:a8:e7:
        d9:67:98:93:4d:60:02:10:2f:c2:8a:95:16:72:df:d4:ea:e5:
        01:63:d3:06:79:30:1e:bb:6f:36:53:df:b0:39:9f:e6:91:24:
        b6:06:2e:9f:c3:5a:00:cf:94:3e:1a:dc:ba:0a:56:d5:07:fd:
        36:9c:2f:79:b9:03:6a:ef:9b:e0:e1:5e:0a:22:96:f1:2f:7e:
        d6:75:58:b1
-----BEGIN CERTIFICATE-----
MIIDeDCCAmCgAwIBAgIRAN+msC4ctGItzO2wt09bohgwDQYJKoZIhvcNAQELBQAw
FjEUMBIGA1UEAwwLdGVhbTM4NC1uZXQwHhcNMjMxMTA0MTA0NzM2WhcNMjYxMDE5
MTA0NzM2WjAZMRcwFQYDVQQDDA50ZWFtMzg0LXNlcnZlcjCCASIwDQYJKoZIhvcN
AQEBBQADggEPADCCAQoCggEBANfg8xhbZow6gd3Y5F/Cbm5GCTIIQjoYWC255kMq
+FH2lPqh3WojYGSlp5vlPCAeJB//5+pS8hvtKQPzjp4wa9Md25R9sBNm6RY4WI6q
JhbK1h/E9nCGv2FZph3P7B2xqYdbKeT9L8WONzu4tWU9W6WmNSHCWhUy+e9xKGcn
r9dMqCc3Dz0pL1r2JdM4+3prt9DjEEOgHeUqkpvCbg6O704LRn4mIH1GJHAAQeSo
mdKnuOSuq4I1bbQMiUjgVx9RgUI8ank9wU0JB1tfX2Yvzvq/vm3I6isJpD4Di3NH
TQGzqjooWxpIJvTNPJ9OD5dp9ZIURFzCKS2OxyGgXvvS1mMCAwEAAaOBvTCBujAJ
BgNVHRMEAjAAMB0GA1UdDgQWBBRs54ieJKtDuKGB1J7OgRg+c3GkfjBRBgNVHSME
SjBIgBS+/kc9807VF9VJqJVsxFQoL3d5u6EapBgwFjEUMBIGA1UEAwwLdGVhbTM4
NC1uZXSCFFNba0+FX9c6muNkplTU70cRe6c1MBMGA1UdJQQMMAoGCCsGAQUFBwMB
MAsGA1UdDwQEAwIFoDAZBgNVHREEEjAQgg50ZWFtMzg0LXNlcnZlcjANBgkqhkiG
9w0BAQsFAAOCAQEAsZjaHwVcXijULAJpurEn39hFUCjuD/hjsygOGmPfBwpsFuvE
Dvlw122u75WlGm1scpjXvIszuYYpwRUsvTgR/9jrDrDfE3yq5LUZrl8PHtn6C6zA
Ytlq02BNb10ZU8AMBhVKsHe4BpTe87/y2u01XOc1cq0vVmVSk7cnol2UE5DOn2cl
oFuLQlqRp6U/8boavdPC91klFMxGTjY9rFXdCWPfoQFzo6HIuxKrbElVWvraDKjn
2WeYk01gAhAvwoqVFnLf1OrlAWPTBnkwHrtvNlPfsDmf5pEktgYun8NaAM+UPhrc
ugpW1Qf9NpwvebkDau+b4OFeCiKW8S9+1nVYsQ==
-----END CERTIFICATE-----
