Certificate:
    Data:
        Version: 3 (0x2)
        Serial Number:
            33:2e:d4:35:f5:c4:d6:d2:81:e9:ea:71:fb:61:05:b9
        Signature Algorithm: sha256WithRSAEncryption
        Issuer: CN=team352-net
        Validity
            Not Before: Nov  3 20:45:41 2023 GMT
            Not After : Oct 18 20:45:41 2026 GMT
        Subject: CN=team352-server
        Subject Public Key Info:
            Public Key Algorithm: rsaEncryption
                Public-Key: (2048 bit)
                Modulus:
                    00:a6:ad:f5:21:da:56:61:32:8e:b6:32:1b:37:de:
                    55:ed:cc:eb:c3:36:d1:63:65:39:6f:93:de:90:4e:
                    54:72:01:85:81:96:ca:8c:ad:9f:8e:42:ba:60:a4:
                    d7:52:7d:40:bc:52:31:8e:bb:8f:49:2f:f1:30:91:
                    7f:c6:69:d7:50:50:ed:73:27:1d:0f:b4:54:96:91:
                    74:95:51:81:66:c5:7b:e0:41:2f:e5:f0:d0:c3:b6:
                    a9:e0:ee:27:10:ef:0e:84:0b:36:d3:72:1d:7f:6f:
                    a4:59:d5:f5:e3:77:4c:8d:fe:46:b5:d6:f3:6a:76:
                    cb:46:52:ec:9f:56:99:ff:47:51:8b:79:5b:47:c9:
                    83:13:76:71:80:3f:1f:f2:eb:c2:9d:c5:36:40:21:
                    ca:f6:c4:fd:2b:91:6c:1d:60:dc:3f:ba:70:aa:c5:
                    07:a8:58:51:94:2e:e3:f6:b1:7c:b9:e3:b7:40:25:
                    73:dd:b6:33:a7:b0:5c:37:26:e4:78:b1:b5:60:e7:
                    12:be:ce:38:11:e5:cc:25:03:f8:39:67:b7:10:98:
                    1c:a3:4e:68:2b:17:2d:34:11:e9:68:6c:df:ce:91:
                    79:ee:5e:74:b1:e1:b9:46:41:1f:02:f2:47:87:71:
                    d9:ad:d9:af:7f:de:7b:7a:1e:52:29:bf:40:4a:c4:
                    f7:b9
                Exponent: 65537 (0x10001)
        X509v3 extensions:
            X509v3 Basic Constraints: 
                CA:FALSE
            X509v3 Subject Key Identifier: 
                B1:6E:2E:AF:67:F8:F8:AF:70:9A:E4:35:2F:0B:8C:80:6F:E1:BF:8E
            X509v3 Authority Key Identifier: 
                keyid:06:A8:FF:25:98:E0:9B:40:A8:91:96:AE:DC:89:95:92:8E:90:D1:CE
                DirName:/CN=team352-net
                serial:52:4D:38:D2:0E:D3:2C:00:A8:93:90:BE:59:DB:85:71:41:05:7E:DD
            X509v3 Extended Key Usage: 
                TLS Web Server Authentication
            X509v3 Key Usage: 
                Digital Signature, Key Encipherment
            X509v3 Subject Alternative Name: 
                DNS:team352-server
    Signature Algorithm: sha256WithRSAEncryption
    Signature Value:
        a1:72:14:a5:45:53:b6:7a:74:cc:38:32:7d:2f:31:16:27:6e:
        4d:60:14:e6:fb:80:eb:dd:61:a6:97:63:63:eb:16:e4:37:9f:
        a1:b7:c2:3c:b0:f4:83:91:e5:30:d6:c4:22:56:ca:60:d9:6b:
        be:f7:c7:0c:f3:f1:e1:e7:72:1a:c7:a2:df:53:3e:de:43:ad:
        c4:6d:d0:b1:51:f6:c8:2d:de:8e:9e:21:d4:d3:03:73:c5:6f:
        ee:0d:2d:71:7c:18:58:e5:c8:8d:f6:79:eb:40:9d:69:37:a3:
        06:52:c3:8d:ae:af:e8:bf:bf:1c:80:7e:ce:28:3a:65:26:ad:
        d2:30:55:c6:09:1f:ca:2d:66:89:5b:ef:74:6a:da:64:e9:44:
        5a:74:b2:70:62:6f:cc:a0:f9:e8:10:ce:f9:e1:b6:ea:f4:f0:
        df:24:f9:a3:d5:22:a7:e0:31:d9:3a:b7:ea:f2:8a:2f:e6:7f:
        6c:02:2c:c1:7a:36:60:ba:cc:ef:5c:3f:b3:2b:ac:4a:ee:6a:
        e9:89:49:3f:67:b0:13:15:aa:52:41:27:f2:d0:a8:ab:d2:eb:
        9f:a4:08:3b:04:07:2e:96:99:4b:05:71:a2:0e:22:2f:13:ad:
        1b:d0:8f:e8:12:03:4e:5d:43:ae:8e:01:e4:50:e4:6f:78:f0:
        af:dc:bb:e5
-----BEGIN CERTIFICATE-----
MIIDdzCCAl+gAwIBAgIQMy7UNfXE1tKB6epx+2EFuTANBgkqhkiG9w0BAQsFADAW
MRQwEgYDVQQDDAt0ZWFtMzUyLW5ldDAeFw0yMzExMDMyMDQ1NDFaFw0yNjEwMTgy
MDQ1NDFaMBkxFzAVBgNVBAMMDnRlYW0zNTItc2VydmVyMIIBIjANBgkqhkiG9w0B
AQEFAAOCAQ8AMIIBCgKCAQEApq31IdpWYTKOtjIbN95V7czrwzbRY2U5b5PekE5U
cgGFgZbKjK2fjkK6YKTXUn1AvFIxjruPSS/xMJF/xmnXUFDtcycdD7RUlpF0lVGB
ZsV74EEv5fDQw7ap4O4nEO8OhAs203Idf2+kWdX143dMjf5GtdbzanbLRlLsn1aZ
/0dRi3lbR8mDE3ZxgD8f8uvCncU2QCHK9sT9K5FsHWDcP7pwqsUHqFhRlC7j9rF8
ueO3QCVz3bYzp7BcNybkeLG1YOcSvs44EeXMJQP4OWe3EJgco05oKxctNBHpaGzf
zpF57l50seG5RkEfAvJHh3HZrdmvf957eh5SKb9ASsT3uQIDAQABo4G9MIG6MAkG
A1UdEwQCMAAwHQYDVR0OBBYEFLFuLq9n+PivcJrkNS8LjIBv4b+OMFEGA1UdIwRK
MEiAFAao/yWY4JtAqJGWrtyJlZKOkNHOoRqkGDAWMRQwEgYDVQQDDAt0ZWFtMzUy
LW5ldIIUUk040g7TLACok5C+WduFcUEFft0wEwYDVR0lBAwwCgYIKwYBBQUHAwEw
CwYDVR0PBAQDAgWgMBkGA1UdEQQSMBCCDnRlYW0zNTItc2VydmVyMA0GCSqGSIb3
DQEBCwUAA4IBAQChchSlRVO2enTMODJ9LzEWJ25NYBTm+4Dr3WGml2Nj6xbkN5+h
t8I8sPSDkeUw1sQiVspg2Wu+98cM8/Hh53Iax6LfUz7eQ63EbdCxUfbILd6OniHU
0wNzxW/uDS1xfBhY5ciN9nnrQJ1pN6MGUsONrq/ov78cgH7OKDplJq3SMFXGCR/K
LWaJW+90atpk6URadLJwYm/MoPnoEM754bbq9PDfJPmj1SKn4DHZOrfq8oov5n9s
AizBejZguszvXD+zK6xK7mrpiUk/Z7ATFapSQSfy0Kir0uufpAg7BAculplLBXGi
DiIvE60b0I/oEgNOXUOujgHkUORvePCv3Lvl
-----END CERTIFICATE-----
