Certificate:
    Data:
        Version: 3 (0x2)
        Serial Number:
            5a:35:fc:e8:56:5b:34:dd:31:9f:b8:b2:96:48:9b:48
        Signature Algorithm: sha256WithRSAEncryption
        Issuer: CN=team352-net
        Validity
            Not Before: Nov  4 10:47:02 2023 GMT
            Not After : Oct 19 10:47:02 2026 GMT
        Subject: CN=team352-server
        Subject Public Key Info:
            Public Key Algorithm: rsaEncryption
                Public-Key: (2048 bit)
                Modulus:
                    00:df:3d:2b:3a:c7:ee:e6:4d:c7:8e:66:23:f4:49:
                    bb:43:24:a8:9a:8a:d2:fe:cb:7c:30:56:ac:10:8f:
                    4f:c3:44:68:46:d5:9d:ee:71:54:2c:2b:87:ee:df:
                    37:89:10:25:6b:a4:b9:b5:a7:9d:d9:d5:ce:4d:6b:
                    91:48:88:d3:e2:50:34:44:da:43:e1:49:9c:31:29:
                    3e:32:8e:81:1e:c1:a4:41:a6:db:c2:f6:4a:ac:07:
                    96:1c:7a:23:59:60:13:c1:d8:dc:00:ca:da:af:3a:
                    4a:9d:7c:22:3c:a8:95:84:42:a4:94:37:87:10:71:
                    32:6c:d7:dc:36:b8:7c:47:42:99:5b:e0:f4:63:46:
                    74:03:d3:f9:c6:40:c4:df:14:28:4e:88:54:ce:8b:
                    0f:d5:bb:84:c7:7f:a1:b8:a4:14:0c:d9:47:6c:08:
                    a3:28:c5:d2:16:6f:32:60:8f:63:75:3e:47:30:7c:
                    6b:30:33:7c:fd:ab:a3:fd:29:37:2b:0a:db:58:27:
                    b5:b2:3d:a1:fd:1c:0a:97:0e:c3:71:d6:47:8a:3f:
                    ed:55:5d:d3:95:6e:13:bf:9f:bb:97:c0:89:87:e8:
                    26:67:de:88:71:0d:a5:05:fa:71:c2:e6:ad:b4:60:
                    f5:f9:7c:0b:ea:c3:36:ff:cb:c0:a7:13:01:22:2a:
                    bc:21
                Exponent: 65537 (0x10001)
        X509v3 extensions:
            X509v3 Basic Constraints: 
                CA:FALSE
            X509v3 Subject Key Identifier: 
                76:14:3A:9A:C4:4D:01:45:B3:72:FB:AB:EF:F5:50:77:78:42:9F:A7
            X509v3 Authority Key Identifier: 
                keyid:B1:16:5D:AF:46:6E:61:F3:D1:17:2D:66:E6:D0:38:84:68:96:4A:E6
                DirName:/CN=team352-net
                serial:8A:56:3F:0B:ED:E4:F0:58:37:6A:20:59:E9:B1:A7:2F:D0:60:66
            X509v3 Extended Key Usage: 
                TLS Web Server Authentication
            X509v3 Key Usage: 
                Digital Signature, Key Encipherment
            X509v3 Subject Alternative Name: 
                DNS:team352-server
    Signature Algorithm: sha256WithRSAEncryption
    Signature Value:
        d8:b6:c5:f1:39:a3:58:14:db:ae:2a:ff:28:84:c3:9b:54:05:
        02:f3:55:89:d3:ad:5c:b5:8f:29:c9:7b:31:5c:13:b2:8a:e8:
        26:75:fe:c2:99:15:0f:8f:78:3f:f8:38:5f:a5:98:9d:d1:81:
        56:fc:4c:6c:f8:0e:5f:de:a7:8a:7c:2c:54:6b:50:a7:0d:f2:
        9e:78:49:57:a8:5c:da:9b:13:6a:57:ab:9f:3b:df:f6:44:92:
        a5:7a:3b:f9:86:6f:74:52:38:cb:85:48:bc:39:af:17:b9:d8:
        67:e6:e0:03:98:e0:bf:de:5a:00:f9:0e:ec:3f:e6:51:50:39:
        5a:4a:8b:3e:36:d4:ef:f2:62:83:54:af:1f:93:d7:8b:97:61:
        33:34:c1:d8:13:60:ce:0f:64:9e:11:d3:71:eb:ab:f2:9b:95:
        13:c9:01:5e:cf:52:9f:f9:7e:58:1a:28:1f:21:20:8b:43:74:
        85:51:19:e5:d1:79:77:93:0e:bc:43:b1:27:d8:fe:18:23:f1:
        5c:26:7d:64:d0:f2:a6:61:3d:88:91:05:ce:e9:58:00:27:9d:
        9f:d6:ba:dd:c9:e0:3e:d7:90:98:1e:1b:b8:f6:c4:3c:df:96:
        da:2c:60:e9:5c:72:00:c2:93:63:14:af:96:39:8a:bf:4e:94:
        08:d7:65:99
-----BEGIN CERTIFICATE-----
MIIDdzCCAl+gAwIBAgIQWjX86FZbNN0xn7iylkibSDANBgkqhkiG9w0BAQsFADAW
MRQwEgYDVQQDDAt0ZWFtMzUyLW5ldDAeFw0yMzExMDQxMDQ3MDJaFw0yNjEwMTkx
MDQ3MDJaMBkxFzAVBgNVBAMMDnRlYW0zNTItc2VydmVyMIIBIjANBgkqhkiG9w0B
AQEFAAOCAQ8AMIIBCgKCAQEA3z0rOsfu5k3HjmYj9Em7QySomorS/st8MFasEI9P
w0RoRtWd7nFULCuH7t83iRAla6S5taed2dXOTWuRSIjT4lA0RNpD4UmcMSk+Mo6B
HsGkQabbwvZKrAeWHHojWWATwdjcAMrarzpKnXwiPKiVhEKklDeHEHEybNfcNrh8
R0KZW+D0Y0Z0A9P5xkDE3xQoTohUzosP1buEx3+huKQUDNlHbAijKMXSFm8yYI9j
dT5HMHxrMDN8/auj/Sk3KwrbWCe1sj2h/RwKlw7DcdZHij/tVV3TlW4Tv5+7l8CJ
h+gmZ96IcQ2lBfpxwuattGD1+XwL6sM2/8vApxMBIiq8IQIDAQABo4G9MIG6MAkG
A1UdEwQCMAAwHQYDVR0OBBYEFHYUOprETQFFs3L7q+/1UHd4Qp+nMFEGA1UdIwRK
MEiAFLEWXa9GbmHz0RctZubQOIRolkrmoRqkGDAWMRQwEgYDVQQDDAt0ZWFtMzUy
LW5ldIIUAIpWPwvt5PBYN2ogWemxpy/QYGYwEwYDVR0lBAwwCgYIKwYBBQUHAwEw
CwYDVR0PBAQDAgWgMBkGA1UdEQQSMBCCDnRlYW0zNTItc2VydmVyMA0GCSqGSIb3
DQEBCwUAA4IBAQDYtsXxOaNYFNuuKv8ohMObVAUC81WJ061ctY8pyXsxXBOyiugm
df7CmRUPj3g/+DhfpZid0YFW/Exs+A5f3qeKfCxUa1CnDfKeeElXqFzamxNqV6uf
O9/2RJKlejv5hm90UjjLhUi8Oa8Xudhn5uADmOC/3loA+Q7sP+ZRUDlaSos+NtTv
8mKDVK8fk9eLl2EzNMHYE2DOD2SeEdNx66vym5UTyQFez1Kf+X5YGigfISCLQ3SF
URnl0Xl3kw68Q7En2P4YI/FcJn1k0PKmYT2IkQXO6VgAJ52f1rrdyeA+15CYHhu4
9sQ835baLGDpXHIAwpNjFK+WOYq/TpQI12WZ
-----END CERTIFICATE-----
