Certificate:
    Data:
        Version: 3 (0x2)
        Serial Number:
            3b:b3:ba:11:d5:27:31:b1:50:eb:3d:e7:e4:ec:d0:e7
        Signature Algorithm: sha256WithRSAEncryption
        Issuer: CN=team212-net
        Validity
            Not Before: Nov  4 11:31:48 2023 GMT
            Not After : Oct 19 11:31:48 2026 GMT
        Subject: CN=team212-server
        Subject Public Key Info:
            Public Key Algorithm: rsaEncryption
                Public-Key: (2048 bit)
                Modulus:
                    00:ea:0a:7f:91:21:89:1e:b0:4f:c8:96:89:e3:56:
                    78:eb:4e:41:a2:fb:c2:13:24:ff:b0:b9:be:74:e0:
                    f7:9a:ee:91:13:4d:ee:ff:ed:07:af:db:55:c5:c4:
                    19:65:2f:a3:3d:ae:d1:9d:91:fc:95:d6:1d:00:4a:
                    2f:c6:e4:e8:96:fe:ad:fa:ba:88:8e:f1:ef:d6:e9:
                    e9:bf:2f:01:48:0f:63:cb:9c:e1:8d:22:df:12:ea:
                    46:3f:7f:22:a1:ba:b2:1c:4d:ec:3a:f3:72:e7:70:
                    cf:b8:1a:d2:60:6d:6c:9d:a1:0d:19:4a:9b:a0:bd:
                    08:1e:ab:51:68:7d:c0:f0:22:d1:a7:3e:3e:2d:a8:
                    56:13:32:82:91:a1:7a:52:48:c2:0e:9c:d2:35:dd:
                    ef:57:b9:70:81:cf:6a:6c:0c:df:64:52:3c:b0:5a:
                    24:16:d5:e7:13:eb:80:3d:b9:a6:61:7c:98:24:88:
                    50:aa:4c:6e:7c:b0:1c:22:b3:e7:80:08:3b:c3:a9:
                    9e:ef:d4:45:d1:13:ec:b7:16:40:c0:29:a0:47:2f:
                    31:12:42:62:fb:25:b2:55:27:86:ea:82:48:d8:75:
                    14:0b:76:a8:6e:7a:62:be:24:51:b9:c1:da:80:0b:
                    e8:7e:e7:19:43:9d:a3:69:2a:68:c7:93:24:09:12:
                    5f:e7
                Exponent: 65537 (0x10001)
        X509v3 extensions:
            X509v3 Basic Constraints: 
                CA:FALSE
            X509v3 Subject Key Identifier: 
                6C:09:BE:5E:82:7D:04:B3:D1:48:90:39:3A:A3:02:9E:82:27:45:12
            X509v3 Authority Key Identifier: 
                keyid:BD:0F:AE:CE:63:69:07:67:C2:7E:C8:66:9D:EA:A9:C9:83:CA:4D:67
                DirName:/CN=team212-net
                serial:26:34:0C:3B:A8:73:92:E5:4C:07:74:B7:2E:B9:93:54:46:20:3B:54
            X509v3 Extended Key Usage: 
                TLS Web Server Authentication
            X509v3 Key Usage: 
                Digital Signature, Key Encipherment
            X509v3 Subject Alternative Name: 
                DNS:team212-server
    Signature Algorithm: sha256WithRSAEncryption
    Signature Value:
        16:e5:4b:5a:5e:92:a1:8e:6e:ef:2e:4e:72:a2:89:38:e4:8e:
        16:c5:f8:57:92:de:9e:85:0f:88:d1:54:5a:b9:1d:ca:8d:7e:
        79:e3:28:94:6a:9a:5b:fb:26:ce:57:0f:56:6c:85:57:80:e5:
        0e:68:26:8e:79:17:97:46:86:b3:9d:2f:07:1d:6a:43:8c:e1:
        fe:c3:28:08:2a:ea:c5:42:61:fb:c6:b2:78:8e:e3:fc:81:ab:
        76:3b:26:92:b6:a0:3d:94:1c:b8:05:99:fa:2f:45:e0:8b:3a:
        07:88:d6:55:e3:b6:6c:32:6c:e5:93:d4:16:82:03:35:d0:53:
        20:b5:aa:81:34:61:8e:c3:3b:12:da:0d:4e:a8:c7:65:46:87:
        c9:01:20:5c:ed:c4:57:85:5b:a6:6f:35:9c:ff:14:c6:ed:39:
        9d:13:30:8a:62:62:fa:48:57:c7:4b:f1:5c:b3:c6:dc:8f:d0:
        c2:a5:a9:73:ee:c1:79:71:48:79:8e:5d:b4:c1:7b:7f:61:01:
        5d:77:80:73:40:b7:0b:37:87:3a:51:a7:95:27:ec:e5:9a:d9:
        f8:ef:97:c6:10:07:04:69:ff:87:69:7d:d1:0d:12:57:3e:4d:
        37:b4:97:0f:0b:b8:8a:2b:3f:89:c4:5b:a6:dd:91:34:fb:91:
        7b:e1:80:04
-----BEGIN CERTIFICATE-----
MIIDdzCCAl+gAwIBAgIQO7O6EdUnMbFQ6z3n5OzQ5zANBgkqhkiG9w0BAQsFADAW
MRQwEgYDVQQDDAt0ZWFtMjEyLW5ldDAeFw0yMzExMDQxMTMxNDhaFw0yNjEwMTkx
MTMxNDhaMBkxFzAVBgNVBAMMDnRlYW0yMTItc2VydmVyMIIBIjANBgkqhkiG9w0B
AQEFAAOCAQ8AMIIBCgKCAQEA6gp/kSGJHrBPyJaJ41Z4605BovvCEyT/sLm+dOD3
mu6RE03u/+0Hr9tVxcQZZS+jPa7RnZH8ldYdAEovxuTolv6t+rqIjvHv1unpvy8B
SA9jy5zhjSLfEupGP38iobqyHE3sOvNy53DPuBrSYG1snaENGUqboL0IHqtRaH3A
8CLRpz4+LahWEzKCkaF6UkjCDpzSNd3vV7lwgc9qbAzfZFI8sFokFtXnE+uAPbmm
YXyYJIhQqkxufLAcIrPngAg7w6me79RF0RPstxZAwCmgRy8xEkJi+yWyVSeG6oJI
2HUUC3aobnpiviRRucHagAvofucZQ52jaSpox5MkCRJf5wIDAQABo4G9MIG6MAkG
A1UdEwQCMAAwHQYDVR0OBBYEFGwJvl6CfQSz0UiQOTqjAp6CJ0USMFEGA1UdIwRK
MEiAFL0Prs5jaQdnwn7IZp3qqcmDyk1noRqkGDAWMRQwEgYDVQQDDAt0ZWFtMjEy
LW5ldIIUJjQMO6hzkuVMB3S3LrmTVEYgO1QwEwYDVR0lBAwwCgYIKwYBBQUHAwEw
CwYDVR0PBAQDAgWgMBkGA1UdEQQSMBCCDnRlYW0yMTItc2VydmVyMA0GCSqGSIb3
DQEBCwUAA4IBAQAW5UtaXpKhjm7vLk5yook45I4WxfhXkt6ehQ+I0VRauR3KjX55
4yiUappb+ybOVw9WbIVXgOUOaCaOeReXRoaznS8HHWpDjOH+wygIKurFQmH7xrJ4
juP8gat2OyaStqA9lBy4BZn6L0XgizoHiNZV47ZsMmzlk9QWggM10FMgtaqBNGGO
wzsS2g1OqMdlRofJASBc7cRXhVumbzWc/xTG7TmdEzCKYmL6SFfHS/Fcs8bcj9DC
palz7sF5cUh5jl20wXt/YQFdd4BzQLcLN4c6UaeVJ+zlmtn475fGEAcEaf+HaX3R
DRJXPk03tJcPC7iKKz+JxFum3ZE0+5F74YAE
-----END CERTIFICATE-----
