Certificate:
    Data:
        Version: 3 (0x2)
        Serial Number:
            a2:15:47:b7:6d:c5:a8:2a:77:41:9a:1c:b0:b9:ef:12
        Signature Algorithm: sha256WithRSAEncryption
        Issuer: CN=team212-net
        Validity
            Not Before: Nov  3 20:43:09 2023 GMT
            Not After : Oct 18 20:43:09 2026 GMT
        Subject: CN=team212-client
        Subject Public Key Info:
            Public Key Algorithm: rsaEncryption
                Public-Key: (2048 bit)
                Modulus:
                    00:cf:dc:58:f4:b2:fd:f7:c2:77:91:03:b9:54:4e:
                    49:b9:fc:01:45:15:46:9a:b1:1b:d5:1d:5c:04:7f:
                    33:de:7a:d0:5e:fc:bc:3f:d3:25:f6:5d:8c:6d:0d:
                    01:d4:72:e6:bf:0c:bf:f2:3b:72:63:43:5e:85:85:
                    e1:6c:ac:70:73:4b:51:e2:24:6b:c1:dd:c1:9b:a9:
                    75:d4:9b:20:a8:3d:56:92:5e:73:79:cc:17:1d:50:
                    77:85:71:3d:b7:5b:0c:ff:4e:43:97:b0:a7:2f:c2:
                    4a:45:10:f8:9c:67:d6:ed:47:88:bd:93:26:4f:7b:
                    0f:ad:c2:68:91:f6:26:4b:9e:29:0e:10:7e:6e:aa:
                    f7:30:a4:d1:74:65:e5:0f:fa:97:1e:18:81:6f:44:
                    4b:f4:85:6b:25:bc:49:f4:fa:ca:1a:d5:4f:aa:de:
                    f0:b9:da:3f:fe:aa:91:cc:65:5e:c3:91:72:56:68:
                    d1:89:d2:25:57:db:9e:f6:eb:f4:37:0c:52:a9:20:
                    ae:d0:ea:38:c8:bc:13:17:eb:e3:1e:5f:31:f1:33:
                    19:78:8a:32:cf:41:81:b0:be:0f:45:02:57:01:6e:
                    18:a8:b8:76:32:42:b5:f1:83:e1:41:84:75:a5:3b:
                    d3:ee:21:d2:9a:37:02:26:72:66:35:f4:90:90:50:
                    f3:3d
                Exponent: 65537 (0x10001)
        X509v3 extensions:
            X509v3 Basic Constraints: 
                CA:FALSE
            X509v3 Subject Key Identifier: 
                42:ED:B4:DC:2E:8C:2F:CF:BE:5A:F1:78:B1:F8:26:8B:1A:59:2B:4F
            X509v3 Authority Key Identifier: 
                keyid:07:06:D0:6C:B9:D5:A4:B9:84:EB:36:B8:8F:2E:AA:77:96:C1:FA:47
                DirName:/CN=team212-net
                serial:56:31:70:C0:F3:9A:63:86:03:2E:BC:65:2B:B6:1C:6D:90:19:B8:A8
            X509v3 Extended Key Usage: 
                TLS Web Client Authentication
            X509v3 Key Usage: 
                Digital Signature
    Signature Algorithm: sha256WithRSAEncryption
    Signature Value:
        b4:96:4a:37:37:34:dd:3d:1d:cd:d0:65:5f:c9:36:ef:be:83:
        d3:0a:12:9e:f2:09:36:bf:df:e3:e2:ed:43:a1:be:d3:07:45:
        81:cf:c1:99:48:95:b5:bc:9c:f0:6f:dd:29:93:e1:78:4e:ee:
        ab:b9:a1:a7:f6:39:a0:25:92:85:97:14:cc:3c:c7:bd:fa:77:
        60:91:b9:58:3b:01:04:04:8b:68:d1:ba:bf:e3:c2:24:ed:1d:
        87:a1:74:85:9f:41:55:87:a4:6d:e0:d3:bf:5f:ce:67:1e:8f:
        9c:0c:34:3a:1d:0d:13:2f:03:5a:99:4c:b3:75:5b:2c:81:7c:
        49:25:52:35:7a:6d:df:db:63:aa:8c:cd:ca:06:1c:74:45:85:
        08:46:5c:2e:b2:d1:93:c0:19:67:e3:87:2c:81:be:fd:f7:f1:
        22:2a:6e:b7:b6:84:4d:4f:a6:02:0b:c1:a8:70:32:a2:e9:ac:
        fa:04:19:ae:d4:8a:c2:6c:b4:19:b8:36:e6:93:99:df:ac:90:
        36:5a:f8:52:a0:da:a5:79:26:c8:1f:db:4e:a5:21:e2:bf:5d:
        5a:c5:14:5a:3c:50:45:4c:f5:8a:93:75:f0:49:26:a5:c4:5e:
        cc:f5:f4:c1:42:7c:86:24:89:74:6f:7b:56:ed:87:44:ae:4d:
        b6:a4:eb:9b
-----BEGIN CERTIFICATE-----
MIIDXTCCAkWgAwIBAgIRAKIVR7dtxagqd0GaHLC57xIwDQYJKoZIhvcNAQELBQAw
FjEUMBIGA1UEAwwLdGVhbTIxMi1uZXQwHhcNMjMxMTAzMjA0MzA5WhcNMjYxMDE4
MjA0MzA5WjAZMRcwFQYDVQQDDA50ZWFtMjEyLWNsaWVudDCCASIwDQYJKoZIhvcN
AQEBBQADggEPADCCAQoCggEBAM/cWPSy/ffCd5EDuVROSbn8AUUVRpqxG9UdXAR/
M9560F78vD/TJfZdjG0NAdRy5r8Mv/I7cmNDXoWF4WyscHNLUeIka8HdwZupddSb
IKg9VpJec3nMFx1Qd4VxPbdbDP9OQ5ewpy/CSkUQ+Jxn1u1HiL2TJk97D63CaJH2
JkueKQ4Qfm6q9zCk0XRl5Q/6lx4YgW9ES/SFayW8SfT6yhrVT6re8LnaP/6qkcxl
XsORclZo0YnSJVfbnvbr9DcMUqkgrtDqOMi8Exfr4x5fMfEzGXiKMs9BgbC+D0UC
VwFuGKi4djJCtfGD4UGEdaU70+4h0po3AiZyZjX0kJBQ8z0CAwEAAaOBojCBnzAJ
BgNVHRMEAjAAMB0GA1UdDgQWBBRC7bTcLowvz75a8Xix+CaLGlkrTzBRBgNVHSME
SjBIgBQHBtBsudWkuYTrNriPLqp3lsH6R6EapBgwFjEUMBIGA1UEAwwLdGVhbTIx
Mi1uZXSCFFYxcMDzmmOGAy68ZSu2HG2QGbioMBMGA1UdJQQMMAoGCCsGAQUFBwMC
MAsGA1UdDwQEAwIHgDANBgkqhkiG9w0BAQsFAAOCAQEAtJZKNzc03T0dzdBlX8k2
776D0woSnvIJNr/f4+LtQ6G+0wdFgc/BmUiVtbyc8G/dKZPheE7uq7mhp/Y5oCWS
hZcUzDzHvfp3YJG5WDsBBASLaNG6v+PCJO0dh6F0hZ9BVYekbeDTv1/OZx6PnAw0
Oh0NEy8DWplMs3VbLIF8SSVSNXpt39tjqozNygYcdEWFCEZcLrLRk8AZZ+OHLIG+
/ffxIiput7aETU+mAgvBqHAyoums+gQZrtSKwmy0Gbg25pOZ36yQNlr4UqDapXkm
yB/bTqUh4r9dWsUUWjxQRUz1ipN18EkmpcRezPX0wUJ8hiSJdG97Vu2HRK5NtqTr
mw==
-----END CERTIFICATE-----
