Certificate:
    Data:
        Version: 3 (0x2)
        Serial Number:
            28:21:20:31:94:cd:e3:44:92:6f:68:d4:e0:40:b8:18
        Signature Algorithm: sha256WithRSAEncryption
        Issuer: CN=team322-net
        Validity
            Not Before: Nov  4 11:34:32 2023 GMT
            Not After : Oct 19 11:34:32 2026 GMT
        Subject: CN=team322-server
        Subject Public Key Info:
            Public Key Algorithm: rsaEncryption
                Public-Key: (2048 bit)
                Modulus:
                    00:c0:d3:25:38:76:61:97:1a:19:c2:3e:a9:21:f7:
                    ca:61:88:2c:03:ec:df:a0:88:0f:10:6b:de:ab:ce:
                    fa:ea:88:5a:e6:29:52:b7:80:a5:c8:b5:45:c7:35:
                    f7:59:98:90:e3:fc:2b:dc:56:2f:5b:ec:28:4b:9c:
                    ff:5a:c4:bd:73:cf:55:ab:c0:ad:ae:97:a6:7d:5b:
                    81:40:6c:c3:6d:22:3c:65:b7:1d:5f:44:79:1b:43:
                    d8:b0:76:58:13:dc:e0:84:88:41:8a:7c:01:bd:87:
                    de:53:5d:ab:aa:62:95:a5:2b:47:9e:60:c1:39:2c:
                    f5:96:b3:e4:c9:47:cf:34:72:bd:1c:34:a7:d5:bc:
                    6a:25:5b:a3:94:40:48:4c:07:c4:e3:2c:af:44:61:
                    b8:d2:94:13:dc:05:82:fe:bd:32:c8:4b:9c:26:91:
                    ba:d9:e0:98:67:27:58:d3:11:0d:53:ac:74:b1:5d:
                    6f:e6:1b:84:40:c3:9c:0b:eb:ec:87:62:5f:14:d5:
                    74:9c:57:58:e3:f3:e3:52:d3:24:97:5a:a6:20:0e:
                    e3:8b:78:cb:16:05:00:dd:3e:16:38:2b:ed:65:bc:
                    4f:0b:76:1e:eb:b9:03:d3:90:dd:e6:8e:9f:8b:ba:
                    b4:c1:49:21:fa:f7:3b:a9:db:ab:79:a8:e4:11:01:
                    a0:b9
                Exponent: 65537 (0x10001)
        X509v3 extensions:
            X509v3 Basic Constraints: 
                CA:FALSE
            X509v3 Subject Key Identifier: 
                9F:10:80:8D:7D:68:CF:A4:14:C4:E4:29:9A:F3:66:CE:10:0F:BC:07
            X509v3 Authority Key Identifier: 
                keyid:55:20:7C:76:7A:B0:7F:35:3D:48:63:73:F9:0B:21:06:F4:EF:66:DA
                DirName:/CN=team322-net
                serial:55:6A:29:56:00:6B:18:E3:3B:16:53:7F:74:32:D9:6F:65:04:7F:07
            X509v3 Extended Key Usage: 
                TLS Web Server Authentication
            X509v3 Key Usage: 
                Digital Signature, Key Encipherment
            X509v3 Subject Alternative Name: 
                DNS:team322-server
    Signature Algorithm: sha256WithRSAEncryption
    Signature Value:
        72:5b:b9:a6:91:e3:2d:56:fb:30:49:d1:a4:a2:cc:94:b9:83:
        46:a7:54:97:47:19:11:17:af:d4:65:08:fa:ce:91:ec:61:e7:
        8f:da:91:e2:62:06:a6:a0:29:47:40:75:e9:0a:d1:7a:ce:0f:
        a3:d3:90:c3:26:28:3e:e6:8b:67:74:1c:8f:71:2c:a3:70:0b:
        a5:4e:49:2e:81:4d:ee:2e:66:a1:5d:2c:1b:74:d4:30:d4:3c:
        c9:86:44:75:43:4c:1b:a1:14:5f:a7:50:03:30:52:7d:9f:ff:
        fb:01:7d:c5:6e:1c:b4:d6:b4:dd:53:ae:71:1f:de:de:a1:6a:
        c1:91:f3:46:ae:a1:ac:48:b4:36:13:49:28:b7:c5:22:a3:87:
        06:d4:10:f8:37:34:aa:83:fd:44:ef:0b:8b:dc:73:c5:51:51:
        6b:0b:ed:25:74:98:67:52:4f:b2:cb:2d:de:47:31:11:f8:06:
        88:12:2d:8a:34:3a:26:20:b1:7a:a4:82:91:89:f4:cb:e6:ac:
        61:c1:d9:ef:70:e1:01:3d:3b:bf:38:01:f6:ec:14:48:6c:02:
        23:f8:e0:49:a9:b7:3f:20:14:cf:09:1d:14:8c:9b:4f:77:d8:
        1c:2c:e5:79:0f:7c:69:79:04:f7:52:81:58:80:f3:e8:cf:cb:
        e8:da:25:7a
-----BEGIN CERTIFICATE-----
MIIDdzCCAl+gAwIBAgIQKCEgMZTN40SSb2jU4EC4GDANBgkqhkiG9w0BAQsFADAW
MRQwEgYDVQQDDAt0ZWFtMzIyLW5ldDAeFw0yMzExMDQxMTM0MzJaFw0yNjEwMTkx
MTM0MzJaMBkxFzAVBgNVBAMMDnRlYW0zMjItc2VydmVyMIIBIjANBgkqhkiG9w0B
AQEFAAOCAQ8AMIIBCgKCAQEAwNMlOHZhlxoZwj6pIffKYYgsA+zfoIgPEGveq876
6oha5ilSt4ClyLVFxzX3WZiQ4/wr3FYvW+woS5z/WsS9c89Vq8CtrpemfVuBQGzD
bSI8ZbcdX0R5G0PYsHZYE9zghIhBinwBvYfeU12rqmKVpStHnmDBOSz1lrPkyUfP
NHK9HDSn1bxqJVujlEBITAfE4yyvRGG40pQT3AWC/r0yyEucJpG62eCYZydY0xEN
U6x0sV1v5huEQMOcC+vsh2JfFNV0nFdY4/PjUtMkl1qmIA7ji3jLFgUA3T4WOCvt
ZbxPC3Ye67kD05Dd5o6fi7q0wUkh+vc7qdureajkEQGguQIDAQABo4G9MIG6MAkG
A1UdEwQCMAAwHQYDVR0OBBYEFJ8QgI19aM+kFMTkKZrzZs4QD7wHMFEGA1UdIwRK
MEiAFFUgfHZ6sH81PUhjc/kLIQb072baoRqkGDAWMRQwEgYDVQQDDAt0ZWFtMzIy
LW5ldIIUVWopVgBrGOM7FlN/dDLZb2UEfwcwEwYDVR0lBAwwCgYIKwYBBQUHAwEw
CwYDVR0PBAQDAgWgMBkGA1UdEQQSMBCCDnRlYW0zMjItc2VydmVyMA0GCSqGSIb3
DQEBCwUAA4IBAQByW7mmkeMtVvswSdGkosyUuYNGp1SXRxkRF6/UZQj6zpHsYeeP
2pHiYgamoClHQHXpCtF6zg+j05DDJig+5otndByPcSyjcAulTkkugU3uLmahXSwb
dNQw1DzJhkR1Q0wboRRfp1ADMFJ9n//7AX3Fbhy01rTdU65xH97eoWrBkfNGrqGs
SLQ2E0kot8Uio4cG1BD4NzSqg/1E7wuL3HPFUVFrC+0ldJhnUk+yyy3eRzER+AaI
Ei2KNDomILF6pIKRifTL5qxhwdnvcOEBPTu/OAH27BRIbAIj+OBJqbc/IBTPCR0U
jJtPd9gcLOV5D3xpeQT3UoFYgPPoz8vo2iV6
-----END CERTIFICATE-----
