Certificate:
    Data:
        Version: 3 (0x2)
        Serial Number:
            60:24:e4:1a:cf:d8:ff:54:25:93:a9:9f:11:1f:be:f2
        Signature Algorithm: sha256WithRSAEncryption
        Issuer: CN=team322-net
        Validity
            Not Before: Nov  4 10:46:30 2023 GMT
            Not After : Oct 19 10:46:30 2026 GMT
        Subject: CN=team322-server
        Subject Public Key Info:
            Public Key Algorithm: rsaEncryption
                Public-Key: (2048 bit)
                Modulus:
                    00:cf:79:ab:1c:8c:56:dc:e2:c1:4d:eb:99:e3:b5:
                    b6:d8:7d:ce:a3:e2:82:e9:bd:18:52:24:1d:dc:0e:
                    47:1b:2f:a2:0d:73:bb:aa:46:c2:2c:ac:97:48:e1:
                    9b:89:18:9c:32:3c:cc:13:48:23:dd:56:8b:b5:75:
                    91:65:af:d3:be:1d:ce:3d:05:21:3c:ae:0f:c2:87:
                    8b:4e:b1:28:26:70:59:0b:3a:5b:47:a8:4d:cd:c6:
                    7b:7b:43:f5:ec:f1:6e:cd:d9:fc:7c:99:cd:45:3f:
                    b9:5b:c5:f9:1e:a5:76:97:e8:f4:ba:00:42:ba:ae:
                    c8:f8:67:7d:aa:6e:97:45:d4:88:2f:a4:5d:14:dc:
                    61:bf:6a:4c:19:1a:e6:c6:a1:9c:0f:b5:c4:2f:10:
                    b1:8a:7a:72:5a:48:64:7c:0c:35:9c:fd:8f:43:f9:
                    90:d3:34:b1:30:a0:81:98:b8:69:e0:c8:bf:74:b1:
                    6b:86:f3:00:1e:05:b8:d4:71:45:ad:cd:0f:a9:e4:
                    98:f3:55:2c:63:6c:1a:9a:bf:4d:65:f4:05:db:f7:
                    76:9c:b1:c3:78:2a:f4:49:c7:17:22:8e:1b:07:17:
                    cb:9e:3f:ca:1a:5a:38:4e:88:cc:78:eb:85:28:6c:
                    e0:1f:bc:e1:86:77:18:a8:2e:5d:1d:5b:e9:29:7c:
                    76:65
                Exponent: 65537 (0x10001)
        X509v3 extensions:
            X509v3 Basic Constraints: 
                CA:FALSE
            X509v3 Subject Key Identifier: 
                58:BD:34:7B:AD:82:2B:52:A5:E0:89:0E:7C:FB:D3:1D:37:EF:09:55
            X509v3 Authority Key Identifier: 
                keyid:E8:64:D8:A3:C8:31:A0:37:F8:2A:FC:90:91:0E:AD:4F:37:11:A9:A9
                DirName:/CN=team322-net
                serial:41:75:9B:21:B5:7D:9C:DF:8A:F4:F9:11:9D:74:87:71:4C:5D:46:CE
            X509v3 Extended Key Usage: 
                TLS Web Server Authentication
            X509v3 Key Usage: 
                Digital Signature, Key Encipherment
            X509v3 Subject Alternative Name: 
                DNS:team322-server
    Signature Algorithm: sha256WithRSAEncryption
    Signature Value:
        25:7f:14:5c:b5:f6:6f:3a:36:fb:88:55:69:54:e2:81:77:3e:
        a8:94:da:0a:ca:3c:93:33:a1:84:8c:e1:c9:0c:9e:3c:53:d9:
        e8:68:e4:33:f2:ee:9f:fc:a6:a3:cc:1c:f0:b0:8e:56:61:3c:
        96:b4:1b:7a:a8:2a:2d:93:12:c3:35:96:1f:73:29:b8:40:60:
        8c:96:e1:09:c6:38:01:80:0e:0a:0a:3b:6d:3e:ff:7e:a6:b8:
        c4:48:d0:05:dc:b6:26:c8:dc:12:51:ff:7d:70:ca:20:a4:c5:
        11:d6:fd:3b:fe:33:39:7d:f7:1b:96:2b:43:97:f5:cd:3d:0e:
        52:f9:37:b0:42:8a:b5:e6:3a:56:ea:c6:1f:57:9f:3b:e8:8b:
        9a:68:ce:ca:9e:e4:02:51:ff:5c:fd:56:5f:5b:b3:e4:a3:a7:
        e0:1c:09:96:cc:64:fd:9b:89:80:c0:8a:ba:64:56:62:2e:31:
        1d:18:27:b2:dc:65:35:60:bd:90:41:1d:45:40:a8:c4:ff:52:
        73:7d:c1:b7:6a:4a:f0:7c:b7:e4:80:a0:06:ef:81:30:a8:34:
        b5:e6:26:f2:2e:e6:b6:2e:53:09:c5:70:1a:56:e7:d7:f5:4d:
        2a:03:f9:35:c5:de:db:b9:ff:a3:ec:63:38:8b:15:d5:5c:7c:
        82:cf:e1:4a
-----BEGIN CERTIFICATE-----
MIIDdzCCAl+gAwIBAgIQYCTkGs/Y/1Qlk6mfER++8jANBgkqhkiG9w0BAQsFADAW
MRQwEgYDVQQDDAt0ZWFtMzIyLW5ldDAeFw0yMzExMDQxMDQ2MzBaFw0yNjEwMTkx
MDQ2MzBaMBkxFzAVBgNVBAMMDnRlYW0zMjItc2VydmVyMIIBIjANBgkqhkiG9w0B
AQEFAAOCAQ8AMIIBCgKCAQEAz3mrHIxW3OLBTeuZ47W22H3Oo+KC6b0YUiQd3A5H
Gy+iDXO7qkbCLKyXSOGbiRicMjzME0gj3VaLtXWRZa/Tvh3OPQUhPK4PwoeLTrEo
JnBZCzpbR6hNzcZ7e0P17PFuzdn8fJnNRT+5W8X5HqV2l+j0ugBCuq7I+Gd9qm6X
RdSIL6RdFNxhv2pMGRrmxqGcD7XELxCxinpyWkhkfAw1nP2PQ/mQ0zSxMKCBmLhp
4Mi/dLFrhvMAHgW41HFFrc0PqeSY81UsY2wamr9NZfQF2/d2nLHDeCr0SccXIo4b
BxfLnj/KGlo4TojMeOuFKGzgH7zhhncYqC5dHVvpKXx2ZQIDAQABo4G9MIG6MAkG
A1UdEwQCMAAwHQYDVR0OBBYEFFi9NHutgitSpeCJDnz70x037wlVMFEGA1UdIwRK
MEiAFOhk2KPIMaA3+Cr8kJEOrU83EampoRqkGDAWMRQwEgYDVQQDDAt0ZWFtMzIy
LW5ldIIUQXWbIbV9nN+K9PkRnXSHcUxdRs4wEwYDVR0lBAwwCgYIKwYBBQUHAwEw
CwYDVR0PBAQDAgWgMBkGA1UdEQQSMBCCDnRlYW0zMjItc2VydmVyMA0GCSqGSIb3
DQEBCwUAA4IBAQAlfxRctfZvOjb7iFVpVOKBdz6olNoKyjyTM6GEjOHJDJ48U9no
aOQz8u6f/KajzBzwsI5WYTyWtBt6qCotkxLDNZYfcym4QGCMluEJxjgBgA4KCjtt
Pv9+prjESNAF3LYmyNwSUf99cMogpMUR1v07/jM5ffcblitDl/XNPQ5S+TewQoq1
5jpW6sYfV5876IuaaM7KnuQCUf9c/VZfW7Pko6fgHAmWzGT9m4mAwIq6ZFZiLjEd
GCey3GU1YL2QQR1FQKjE/1JzfcG3akrwfLfkgKAG74EwqDS15ibyLua2LlMJxXAa
VufX9U0qA/k1xd7buf+j7GM4ixXVXHyCz+FK
-----END CERTIFICATE-----
