Certificate:
    Data:
        Version: 3 (0x2)
        Serial Number:
            84:67:fa:6a:ed:f2:7b:4a:6b:18:bb:36:d0:90:0c:0c
        Signature Algorithm: sha256WithRSAEncryption
        Issuer: CN=team322-net
        Validity
            Not Before: Nov  4 11:34:32 2023 GMT
            Not After : Oct 19 11:34:32 2026 GMT
        Subject: CN=team322-client
        Subject Public Key Info:
            Public Key Algorithm: rsaEncryption
                Public-Key: (2048 bit)
                Modulus:
                    00:e1:ac:9e:0a:82:ec:b6:83:5d:49:b3:67:f2:ab:
                    0d:c3:25:31:ee:15:c4:04:91:63:2e:44:8f:f5:22:
                    d0:59:00:61:75:cc:ce:8b:ce:99:e5:ba:a1:76:77:
                    0e:83:99:3f:8b:68:77:10:d4:05:23:0e:17:ca:99:
                    4b:dc:86:b3:95:2b:87:fc:b1:8b:4a:61:36:70:91:
                    66:c7:6c:4f:ae:61:59:7e:4f:e2:26:c9:07:fe:f8:
                    7a:77:7b:7b:93:41:d6:00:22:f4:03:d9:73:64:61:
                    ee:db:9e:ee:16:c8:8c:b8:cd:2a:de:cf:1d:80:77:
                    1b:cd:15:80:75:e8:bb:5c:7b:93:95:e9:11:56:af:
                    69:69:58:a3:43:67:5a:e8:43:a1:ad:52:af:8f:5b:
                    5e:41:86:eb:d0:ca:02:ec:d7:9d:e1:fe:a5:ff:e1:
                    55:b7:e0:ac:c2:19:82:b9:3f:46:8c:96:6b:67:28:
                    09:7e:cc:27:9e:55:84:62:01:dd:cd:3c:6f:83:a4:
                    ff:d9:b1:b6:b2:81:bf:58:52:c8:2f:a0:54:3a:c7:
                    14:00:a1:dc:a9:0a:99:70:38:d3:1b:5a:d5:1d:1a:
                    7f:cb:f7:92:a0:93:eb:87:c0:09:5f:54:63:7c:d6:
                    2a:d5:32:c6:ca:bd:fe:e6:ac:a3:7b:b9:34:32:dd:
                    3a:59
                Exponent: 65537 (0x10001)
        X509v3 extensions:
            X509v3 Basic Constraints: 
                CA:FALSE
            X509v3 Subject Key Identifier: 
                61:7F:5B:C0:E4:60:67:13:49:4E:23:DC:73:BA:53:64:0D:8F:DA:62
            X509v3 Authority Key Identifier: 
                keyid:55:20:7C:76:7A:B0:7F:35:3D:48:63:73:F9:0B:21:06:F4:EF:66:DA
                DirName:/CN=team322-net
                serial:55:6A:29:56:00:6B:18:E3:3B:16:53:7F:74:32:D9:6F:65:04:7F:07
            X509v3 Extended Key Usage: 
                TLS Web Client Authentication
            X509v3 Key Usage: 
                Digital Signature
    Signature Algorithm: sha256WithRSAEncryption
    Signature Value:
        29:e5:e9:d2:0a:47:68:41:b4:d2:f2:8f:69:9a:e7:50:f9:3a:
        7f:a0:77:7c:e7:af:b0:62:b2:f7:9d:97:8e:21:04:15:ec:b7:
        01:fe:c4:4d:e0:77:94:2e:bb:0e:08:a6:e5:31:d9:eb:84:db:
        00:89:bb:7f:8f:eb:7b:12:a5:a5:80:e4:c7:36:6d:24:76:1d:
        c7:f2:de:b9:0e:68:be:45:5b:dc:70:12:9a:32:53:f6:cb:b8:
        09:c5:3f:08:5c:13:be:e7:60:6b:d4:08:31:4c:5a:c6:9a:dd:
        48:e7:9e:84:81:da:8d:b1:d8:d8:0a:36:99:90:8d:7a:62:75:
        16:e6:8c:8c:38:b2:71:08:1e:09:0b:e2:64:61:b9:81:00:ac:
        59:a5:4f:36:26:7a:ca:b7:3b:ba:1b:78:8d:15:e5:0b:a5:a9:
        f1:f0:2c:8e:15:78:d7:b4:6c:f8:60:7d:0a:b1:a5:c0:ab:e0:
        27:c0:13:27:9f:a1:40:6f:b6:f8:01:1a:97:b9:f2:0a:b5:7b:
        59:da:2f:04:34:b7:70:aa:21:26:9d:6a:5d:c6:4f:d5:fe:98:
        87:63:1d:97:1e:13:a1:f0:cb:97:8b:fc:79:ce:a2:58:38:0c:
        65:2b:f4:2e:8e:85:bc:ab:1b:36:02:cd:92:2b:c5:9b:f1:80:
        97:03:55:5b
-----BEGIN CERTIFICATE-----
MIIDXTCCAkWgAwIBAgIRAIRn+mrt8ntKaxi7NtCQDAwwDQYJKoZIhvcNAQELBQAw
FjEUMBIGA1UEAwwLdGVhbTMyMi1uZXQwHhcNMjMxMTA0MTEzNDMyWhcNMjYxMDE5
MTEzNDMyWjAZMRcwFQYDVQQDDA50ZWFtMzIyLWNsaWVudDCCASIwDQYJKoZIhvcN
AQEBBQADggEPADCCAQoCggEBAOGsngqC7LaDXUmzZ/KrDcMlMe4VxASRYy5Ej/Ui
0FkAYXXMzovOmeW6oXZ3DoOZP4todxDUBSMOF8qZS9yGs5Urh/yxi0phNnCRZsds
T65hWX5P4ibJB/74end7e5NB1gAi9APZc2Rh7tue7hbIjLjNKt7PHYB3G80VgHXo
u1x7k5XpEVavaWlYo0NnWuhDoa1Sr49bXkGG69DKAuzXneH+pf/hVbfgrMIZgrk/
RoyWa2coCX7MJ55VhGIB3c08b4Ok/9mxtrKBv1hSyC+gVDrHFACh3KkKmXA40xta
1R0af8v3kqCT64fACV9UY3zWKtUyxsq9/uaso3u5NDLdOlkCAwEAAaOBojCBnzAJ
BgNVHRMEAjAAMB0GA1UdDgQWBBRhf1vA5GBnE0lOI9xzulNkDY/aYjBRBgNVHSME
SjBIgBRVIHx2erB/NT1IY3P5CyEG9O9m2qEapBgwFjEUMBIGA1UEAwwLdGVhbTMy
Mi1uZXSCFFVqKVYAaxjjOxZTf3Qy2W9lBH8HMBMGA1UdJQQMMAoGCCsGAQUFBwMC
MAsGA1UdDwQEAwIHgDANBgkqhkiG9w0BAQsFAAOCAQEAKeXp0gpHaEG00vKPaZrn
UPk6f6B3fOevsGKy952XjiEEFey3Af7ETeB3lC67Dgim5THZ64TbAIm7f4/rexKl
pYDkxzZtJHYdx/LeuQ5ovkVb3HASmjJT9su4CcU/CFwTvudga9QIMUxaxprdSOee
hIHajbHY2Ao2mZCNemJ1FuaMjDiycQgeCQviZGG5gQCsWaVPNiZ6yrc7uht4jRXl
C6Wp8fAsjhV417Rs+GB9CrGlwKvgJ8ATJ5+hQG+2+AEal7nyCrV7WdovBDS3cKoh
Jp1qXcZP1f6Yh2Mdlx4TofDLl4v8ec6iWDgMZSv0Lo6FvKsbNgLNkivFm/GAlwNV
Ww==
-----END CERTIFICATE-----
