Certificate:
    Data:
        Version: 3 (0x2)
        Serial Number:
            e2:41:3c:f3:11:00:aa:00:77:d6:c9:67:75:74:a0:25
        Signature Algorithm: sha256WithRSAEncryption
        Issuer: CN=team322-net
        Validity
            Not Before: Nov  4 10:46:30 2023 GMT
            Not After : Oct 19 10:46:30 2026 GMT
        Subject: CN=team322-client
        Subject Public Key Info:
            Public Key Algorithm: rsaEncryption
                Public-Key: (2048 bit)
                Modulus:
                    00:aa:ed:76:0d:31:27:97:eb:90:61:c1:f0:4a:57:
                    d8:28:9e:e9:fc:ea:7d:d1:05:3f:a9:90:d5:42:7f:
                    ba:2f:4d:46:0b:27:9d:9f:f7:d0:2d:8a:34:b2:48:
                    6b:85:04:3b:56:dc:3e:75:a6:63:e0:df:31:4c:e6:
                    41:37:f9:3e:23:ef:fd:1d:77:c2:2e:02:57:54:7d:
                    05:ae:ae:35:2a:91:76:45:d9:97:17:09:63:3f:07:
                    ee:84:4c:19:37:06:49:ff:c7:dd:26:9e:f3:de:e1:
                    ca:7f:4b:76:be:7a:7a:b8:54:e8:84:15:00:73:ac:
                    1f:e4:62:a7:8e:eb:39:e4:fc:14:9f:1e:2d:97:0e:
                    1a:d5:25:12:9a:f4:c5:0b:da:75:71:ee:16:b5:fa:
                    cd:57:be:6c:bf:cc:2b:92:48:d5:9e:e7:c0:09:49:
                    0c:0e:10:f2:df:65:27:a1:31:16:70:d7:e2:1c:41:
                    17:b1:9e:33:ff:9d:79:45:87:9e:2e:c8:a5:72:d5:
                    27:a9:87:3a:06:92:97:42:90:20:45:22:8c:bb:6e:
                    c0:e3:5f:d2:be:93:99:3a:0e:b2:c5:db:70:41:8c:
                    07:d1:95:c2:b6:3a:3d:9e:59:5c:21:c8:af:a9:1a:
                    75:26:63:c7:4c:b0:ff:f8:22:ff:52:8f:85:e4:e2:
                    d7:17
                Exponent: 65537 (0x10001)
        X509v3 extensions:
            X509v3 Basic Constraints: 
                CA:FALSE
            X509v3 Subject Key Identifier: 
                51:C3:8E:6E:91:52:B5:3D:40:88:32:2F:C9:A2:E3:4F:0D:8C:89:C5
            X509v3 Authority Key Identifier: 
                keyid:E8:64:D8:A3:C8:31:A0:37:F8:2A:FC:90:91:0E:AD:4F:37:11:A9:A9
                DirName:/CN=team322-net
                serial:41:75:9B:21:B5:7D:9C:DF:8A:F4:F9:11:9D:74:87:71:4C:5D:46:CE
            X509v3 Extended Key Usage: 
                TLS Web Client Authentication
            X509v3 Key Usage: 
                Digital Signature
    Signature Algorithm: sha256WithRSAEncryption
    Signature Value:
        4c:32:c9:89:ec:d9:cb:45:30:7b:07:63:f8:2a:43:91:ee:96:
        64:16:f9:2a:de:d8:09:12:a5:45:8d:a5:f6:50:60:45:96:f2:
        73:67:e9:c2:36:58:93:1b:ec:c6:0c:e4:30:e8:4c:85:a4:53:
        54:c5:51:bd:ed:bf:22:e3:c8:29:42:5f:14:5e:d2:42:e5:5f:
        1d:e1:26:d2:3b:4c:30:de:00:ee:b3:83:92:9e:59:fd:20:18:
        01:a3:b2:45:7a:01:e8:b4:9f:d0:80:15:a3:a6:82:5c:2c:b6:
        d3:53:66:70:30:e3:83:ef:ac:d2:df:1e:76:2f:6f:94:bd:f7:
        b7:f2:89:e6:4f:6d:4b:d1:49:b5:0b:6c:58:55:64:6c:7c:3d:
        78:a5:81:d3:20:f6:c2:7f:1a:d3:ad:2d:12:3f:12:c3:6e:fd:
        b5:2c:59:c0:bc:e3:be:c9:74:94:bd:13:40:e1:69:9a:46:86:
        f5:27:64:4c:bf:d7:f9:c6:b4:d5:6a:af:de:db:39:24:eb:84:
        12:04:b7:1e:ad:10:5c:5c:38:00:43:60:22:49:b1:2b:ea:ab:
        bb:50:7d:64:db:4d:9e:84:90:ea:44:ec:65:9f:92:ab:f9:f7:
        87:5a:cf:5d:ab:70:81:eb:ae:a7:5e:22:7c:74:32:4b:d5:3a:
        96:7a:1a:2d
-----BEGIN CERTIFICATE-----
MIIDXTCCAkWgAwIBAgIRAOJBPPMRAKoAd9bJZ3V0oCUwDQYJKoZIhvcNAQELBQAw
FjEUMBIGA1UEAwwLdGVhbTMyMi1uZXQwHhcNMjMxMTA0MTA0NjMwWhcNMjYxMDE5
MTA0NjMwWjAZMRcwFQYDVQQDDA50ZWFtMzIyLWNsaWVudDCCASIwDQYJKoZIhvcN
AQEBBQADggEPADCCAQoCggEBAKrtdg0xJ5frkGHB8EpX2Cie6fzqfdEFP6mQ1UJ/
ui9NRgsnnZ/30C2KNLJIa4UEO1bcPnWmY+DfMUzmQTf5PiPv/R13wi4CV1R9Ba6u
NSqRdkXZlxcJYz8H7oRMGTcGSf/H3Sae897hyn9Ldr56erhU6IQVAHOsH+Rip47r
OeT8FJ8eLZcOGtUlEpr0xQvadXHuFrX6zVe+bL/MK5JI1Z7nwAlJDA4Q8t9lJ6Ex
FnDX4hxBF7GeM/+deUWHni7IpXLVJ6mHOgaSl0KQIEUijLtuwONf0r6TmToOssXb
cEGMB9GVwrY6PZ5ZXCHIr6kadSZjx0yw//gi/1KPheTi1xcCAwEAAaOBojCBnzAJ
BgNVHRMEAjAAMB0GA1UdDgQWBBRRw45ukVK1PUCIMi/JouNPDYyJxTBRBgNVHSME
SjBIgBToZNijyDGgN/gq/JCRDq1PNxGpqaEapBgwFjEUMBIGA1UEAwwLdGVhbTMy
Mi1uZXSCFEF1myG1fZzfivT5EZ10h3FMXUbOMBMGA1UdJQQMMAoGCCsGAQUFBwMC
MAsGA1UdDwQEAwIHgDANBgkqhkiG9w0BAQsFAAOCAQEATDLJiezZy0Uwewdj+CpD
ke6WZBb5Kt7YCRKlRY2l9lBgRZbyc2fpwjZYkxvsxgzkMOhMhaRTVMVRve2/IuPI
KUJfFF7SQuVfHeEm0jtMMN4A7rODkp5Z/SAYAaOyRXoB6LSf0IAVo6aCXCy201Nm
cDDjg++s0t8edi9vlL33t/KJ5k9tS9FJtQtsWFVkbHw9eKWB0yD2wn8a060tEj8S
w279tSxZwLzjvsl0lL0TQOFpmkaG9SdkTL/X+ca01Wqv3ts5JOuEEgS3Hq0QXFw4
AENgIkmxK+qru1B9ZNtNnoSQ6kTsZZ+Sq/n3h1rPXatwgeuup14ifHQyS9U6lnoa
LQ==
-----END CERTIFICATE-----
