Certificate:
    Data:
        Version: 3 (0x2)
        Serial Number:
            85:2b:84:c0:6c:3a:a8:83:fc:c9:a7:6b:fb:17:3c:6e
        Signature Algorithm: sha256WithRSAEncryption
        Issuer: CN=team184-net
        Validity
            Not Before: Nov  3 20:42:35 2023 GMT
            Not After : Oct 18 20:42:35 2026 GMT
        Subject: CN=team184-server
        Subject Public Key Info:
            Public Key Algorithm: rsaEncryption
                Public-Key: (2048 bit)
                Modulus:
                    00:e6:5b:eb:56:d6:b7:b3:24:86:f2:df:4e:77:94:
                    de:8e:0c:69:18:37:88:a6:f3:43:8e:15:de:2c:91:
                    c2:58:1d:16:6e:70:5d:61:70:9f:8e:0c:a9:10:87:
                    71:1c:c3:ee:2a:54:fa:b1:01:96:17:fb:9a:6d:33:
                    d9:0f:40:1a:dc:1d:e7:91:70:34:6d:16:c1:09:10:
                    01:1f:a3:aa:e1:fe:eb:e2:0d:25:e9:9a:77:df:0b:
                    6b:cd:af:05:57:45:7c:fe:64:2c:a7:38:09:d6:39:
                    6b:5e:ba:4c:de:fc:66:eb:f3:bb:6b:32:ca:8a:8d:
                    d2:77:da:8d:0f:6f:96:eb:0d:35:25:39:55:32:ce:
                    1b:9f:1c:a7:46:a2:20:7b:00:4a:fc:2f:e4:d9:46:
                    8f:26:75:3c:93:d3:61:3d:a4:8d:1f:cd:f5:2c:80:
                    86:7e:57:a7:98:2d:d6:2b:38:73:c3:5c:5c:e3:3d:
                    b8:1b:b1:90:62:23:56:6b:1c:57:57:16:a2:9c:9e:
                    3f:0a:67:ef:a5:86:91:50:40:a3:fc:55:4e:d7:e1:
                    48:32:2d:cc:8d:9a:79:76:6c:0e:3c:0f:8e:6b:02:
                    6a:00:5d:c7:d9:06:50:4c:56:9a:33:ba:4b:fb:f0:
                    db:e5:27:32:b7:7f:8a:b7:11:38:2e:2d:7a:5f:ae:
                    75:fb
                Exponent: 65537 (0x10001)
        X509v3 extensions:
            X509v3 Basic Constraints: 
                CA:FALSE
            X509v3 Subject Key Identifier: 
                6E:3A:09:36:09:5A:14:52:24:D7:4B:F9:EB:18:AB:07:5A:BB:A8:76
            X509v3 Authority Key Identifier: 
                keyid:2F:D4:FB:94:9D:03:0E:62:CC:85:C1:94:D6:93:3A:EF:08:D9:DA:E3
                DirName:/CN=team184-net
                serial:0B:02:73:AA:1F:82:75:C6:E2:89:8A:36:8B:7A:27:46:76:87:44:AD
            X509v3 Extended Key Usage: 
                TLS Web Server Authentication
            X509v3 Key Usage: 
                Digital Signature, Key Encipherment
            X509v3 Subject Alternative Name: 
                DNS:team184-server
    Signature Algorithm: sha256WithRSAEncryption
    Signature Value:
        75:e8:b4:37:d1:58:ab:b5:0b:05:e3:0c:d9:bb:e5:f9:cb:62:
        3d:d3:66:70:00:45:4b:80:c6:e3:d3:8e:5e:41:5c:e5:65:fc:
        fd:60:b6:f1:23:60:3e:8c:a4:1e:90:60:28:de:5d:64:b8:a3:
        10:63:00:0b:d7:b6:45:68:2a:39:ed:b0:8a:75:99:0f:61:b1:
        f6:99:0f:e5:44:ac:bf:6b:01:51:e2:55:21:5f:3c:d3:bb:f2:
        52:97:75:cd:90:44:23:60:cb:98:5e:a6:da:a3:0b:f8:0c:35:
        ac:75:d4:5f:dc:ca:8e:36:4d:8b:6d:5a:8a:5d:cc:ea:1b:d3:
        87:b9:66:af:82:1d:ec:7a:76:30:68:f4:be:71:19:bc:9f:a4:
        0c:ad:71:4c:3e:63:10:e9:96:f2:46:01:1e:68:cd:c7:28:04:
        0f:c2:6c:de:cb:aa:db:40:88:4f:35:ed:91:ae:91:be:7e:a4:
        fb:4d:c3:38:76:c6:ca:10:8e:54:a1:f3:19:7a:3f:89:e5:31:
        88:6e:bd:ce:bc:41:97:f1:89:d2:39:2c:49:2a:2e:7b:15:86:
        eb:f7:a8:79:ef:d4:9a:a9:04:37:01:43:c5:f0:5f:13:ca:e4:
        67:2a:79:63:85:d7:1b:b0:53:68:05:b3:10:65:94:2e:12:0c:
        e7:24:f6:3d
-----BEGIN CERTIFICATE-----
MIIDeDCCAmCgAwIBAgIRAIUrhMBsOqiD/Mmna/sXPG4wDQYJKoZIhvcNAQELBQAw
FjEUMBIGA1UEAwwLdGVhbTE4NC1uZXQwHhcNMjMxMTAzMjA0MjM1WhcNMjYxMDE4
MjA0MjM1WjAZMRcwFQYDVQQDDA50ZWFtMTg0LXNlcnZlcjCCASIwDQYJKoZIhvcN
AQEBBQADggEPADCCAQoCggEBAOZb61bWt7MkhvLfTneU3o4MaRg3iKbzQ44V3iyR
wlgdFm5wXWFwn44MqRCHcRzD7ipU+rEBlhf7mm0z2Q9AGtwd55FwNG0WwQkQAR+j
quH+6+INJemad98La82vBVdFfP5kLKc4CdY5a166TN78Zuvzu2syyoqN0nfajQ9v
lusNNSU5VTLOG58cp0aiIHsASvwv5NlGjyZ1PJPTYT2kjR/N9SyAhn5Xp5gt1is4
c8NcXOM9uBuxkGIjVmscV1cWopyePwpn76WGkVBAo/xVTtfhSDItzI2aeXZsDjwP
jmsCagBdx9kGUExWmjO6S/vw2+UnMrd/ircROC4tel+udfsCAwEAAaOBvTCBujAJ
BgNVHRMEAjAAMB0GA1UdDgQWBBRuOgk2CVoUUiTXS/nrGKsHWruodjBRBgNVHSME
SjBIgBQv1PuUnQMOYsyFwZTWkzrvCNna46EapBgwFjEUMBIGA1UEAwwLdGVhbTE4
NC1uZXSCFAsCc6ofgnXG4omKNot6J0Z2h0StMBMGA1UdJQQMMAoGCCsGAQUFBwMB
MAsGA1UdDwQEAwIFoDAZBgNVHREEEjAQgg50ZWFtMTg0LXNlcnZlcjANBgkqhkiG
9w0BAQsFAAOCAQEAdei0N9FYq7ULBeMM2bvl+ctiPdNmcABFS4DG49OOXkFc5WX8
/WC28SNgPoykHpBgKN5dZLijEGMAC9e2RWgqOe2winWZD2Gx9pkP5USsv2sBUeJV
IV8807vyUpd1zZBEI2DLmF6m2qML+Aw1rHXUX9zKjjZNi21ail3M6hvTh7lmr4Id
7Hp2MGj0vnEZvJ+kDK1xTD5jEOmW8kYBHmjNxygED8Js3suq20CITzXtka6Rvn6k
+03DOHbGyhCOVKHzGXo/ieUxiG69zrxBl/GJ0jksSSouexWG6/eoee/UmqkENwFD
xfBfE8rkZyp5Y4XXG7BTaAWzEGWULhIM5yT2PQ==
-----END CERTIFICATE-----
