Certificate:
    Data:
        Version: 3 (0x2)
        Serial Number:
            27:c3:50:93:47:67:46:38:de:19:c0:8b:26:43:1f:04
        Signature Algorithm: sha256WithRSAEncryption
        Issuer: CN=team184-net
        Validity
            Not Before: Nov  3 20:42:35 2023 GMT
            Not After : Oct 18 20:42:35 2026 GMT
        Subject: CN=team184-client
        Subject Public Key Info:
            Public Key Algorithm: rsaEncryption
                Public-Key: (2048 bit)
                Modulus:
                    00:9e:fe:18:0a:99:60:e0:01:34:e1:1b:59:11:7d:
                    ac:74:04:09:b4:e6:0e:5c:62:07:8d:d3:09:a2:8c:
                    b1:54:4b:c9:68:6a:cc:75:3b:1b:c7:dc:95:16:95:
                    8c:56:64:78:40:01:e2:e8:86:63:d6:44:5f:3b:2e:
                    27:29:64:1d:33:4e:40:c1:37:37:8b:ed:22:1c:3b:
                    8c:7b:c2:be:af:a0:ed:ab:44:18:c4:b1:bb:0a:3a:
                    84:5d:40:68:d7:c1:87:58:54:77:30:e5:f4:f4:2f:
                    60:f4:1c:28:10:f3:27:e6:6f:d3:14:65:06:b4:27:
                    de:ee:fd:00:62:df:4b:eb:b8:0e:c7:54:90:1c:7d:
                    4c:22:df:7d:f9:ab:83:ce:1a:b5:8c:c5:2b:68:7e:
                    30:d7:d7:f3:f7:ee:f4:57:a3:3e:37:c9:c2:83:55:
                    86:f3:ec:22:2e:16:9c:e7:b1:48:61:6d:f4:63:61:
                    b0:7c:3b:27:d9:b1:cf:3f:24:75:2a:e4:88:19:b9:
                    40:ab:8e:b8:08:fe:76:b1:df:2a:ad:29:4a:53:c2:
                    e5:e2:74:9c:da:44:24:33:43:e5:14:fc:bf:6e:35:
                    e8:53:19:67:9d:ac:d7:d3:68:a5:79:33:b3:1a:17:
                    d5:dc:c5:3a:95:b2:3d:de:5f:1e:7e:d2:44:38:a3:
                    18:7d
                Exponent: 65537 (0x10001)
        X509v3 extensions:
            X509v3 Basic Constraints: 
                CA:FALSE
            X509v3 Subject Key Identifier: 
                78:77:7C:53:9B:E0:62:DF:EA:95:0B:FF:C2:F8:E1:28:1B:56:AE:D8
            X509v3 Authority Key Identifier: 
                keyid:2F:D4:FB:94:9D:03:0E:62:CC:85:C1:94:D6:93:3A:EF:08:D9:DA:E3
                DirName:/CN=team184-net
                serial:0B:02:73:AA:1F:82:75:C6:E2:89:8A:36:8B:7A:27:46:76:87:44:AD
            X509v3 Extended Key Usage: 
                TLS Web Client Authentication
            X509v3 Key Usage: 
                Digital Signature
    Signature Algorithm: sha256WithRSAEncryption
    Signature Value:
        8f:ab:01:c4:00:df:0c:17:8e:f7:99:57:ba:ba:26:c7:1a:52:
        43:30:65:7c:79:b1:96:4c:42:ce:37:d5:0c:01:2f:53:52:ff:
        65:07:c4:f3:f3:22:ef:b9:c6:ca:25:65:5e:5e:b4:17:f3:f3:
        85:29:c6:f7:77:7f:eb:27:40:61:11:f3:45:62:50:64:e7:a9:
        35:da:04:f6:9e:14:19:1e:98:05:47:36:b6:ae:c6:40:46:e3:
        8c:75:f7:58:87:fb:06:e4:f3:df:3b:d2:cc:23:42:d3:ef:aa:
        e4:ea:8a:1f:52:b4:57:fe:ad:81:8a:17:bc:0e:3b:cb:0d:33:
        1f:21:af:d2:b0:f0:d3:81:73:07:64:ee:ef:0d:fe:76:10:d3:
        1e:52:80:36:1c:80:e1:7b:fa:b4:a9:e6:8d:5e:8d:dd:bd:c0:
        08:4a:74:69:a8:cf:a7:db:3c:68:9b:8a:3e:dd:6f:ac:07:f1:
        8e:21:13:1f:46:47:c7:2a:0c:f4:f7:fe:0e:b8:4d:2c:99:bd:
        ba:57:3f:5e:10:ea:52:f3:9d:0d:81:bb:16:df:07:a3:f9:d6:
        32:2d:16:cf:af:9b:42:e1:74:4b:44:a3:f9:0d:ab:84:55:d6:
        cb:63:5f:d2:d9:0c:f9:43:bb:9b:67:d5:d5:9c:52:ec:26:eb:
        f0:81:b9:b8
-----BEGIN CERTIFICATE-----
MIIDXDCCAkSgAwIBAgIQJ8NQk0dnRjjeGcCLJkMfBDANBgkqhkiG9w0BAQsFADAW
MRQwEgYDVQQDDAt0ZWFtMTg0LW5ldDAeFw0yMzExMDMyMDQyMzVaFw0yNjEwMTgy
MDQyMzVaMBkxFzAVBgNVBAMMDnRlYW0xODQtY2xpZW50MIIBIjANBgkqhkiG9w0B
AQEFAAOCAQ8AMIIBCgKCAQEAnv4YCplg4AE04RtZEX2sdAQJtOYOXGIHjdMJooyx
VEvJaGrMdTsbx9yVFpWMVmR4QAHi6IZj1kRfOy4nKWQdM05AwTc3i+0iHDuMe8K+
r6Dtq0QYxLG7CjqEXUBo18GHWFR3MOX09C9g9BwoEPMn5m/TFGUGtCfe7v0AYt9L
67gOx1SQHH1MIt99+auDzhq1jMUraH4w19fz9+70V6M+N8nCg1WG8+wiLhac57FI
YW30Y2GwfDsn2bHPPyR1KuSIGblAq464CP52sd8qrSlKU8Ll4nSc2kQkM0PlFPy/
bjXoUxlnnazX02ileTOzGhfV3MU6lbI93l8eftJEOKMYfQIDAQABo4GiMIGfMAkG
A1UdEwQCMAAwHQYDVR0OBBYEFHh3fFOb4GLf6pUL/8L44SgbVq7YMFEGA1UdIwRK
MEiAFC/U+5SdAw5izIXBlNaTOu8I2drjoRqkGDAWMRQwEgYDVQQDDAt0ZWFtMTg0
LW5ldIIUCwJzqh+CdcbiiYo2i3onRnaHRK0wEwYDVR0lBAwwCgYIKwYBBQUHAwIw
CwYDVR0PBAQDAgeAMA0GCSqGSIb3DQEBCwUAA4IBAQCPqwHEAN8MF473mVe6uibH
GlJDMGV8ebGWTELON9UMAS9TUv9lB8Tz8yLvucbKJWVeXrQX8/OFKcb3d3/rJ0Bh
EfNFYlBk56k12gT2nhQZHpgFRza2rsZARuOMdfdYh/sG5PPfO9LMI0LT76rk6oof
UrRX/q2Bihe8DjvLDTMfIa/SsPDTgXMHZO7vDf52ENMeUoA2HIDhe/q0qeaNXo3d
vcAISnRpqM+n2zxom4o+3W+sB/GOIRMfRkfHKgz09/4OuE0smb26Vz9eEOpS850N
gbsW3wej+dYyLRbPr5tC4XRLRKP5DauEVdbLY1/S2Qz5Q7ubZ9XVnFLsJuvwgbm4
-----END CERTIFICATE-----
