Certificate:
    Data:
        Version: 3 (0x2)
        Serial Number:
            48:0a:88:24:e0:8e:f6:7a:cb:7a:d9:f6:5a:ef:0a:b3
        Signature Algorithm: sha256WithRSAEncryption
        Issuer: CN=team3-net
        Validity
            Not Before: Nov  4 11:27:29 2023 GMT
            Not After : Oct 19 11:27:29 2026 GMT
        Subject: CN=team3-server
        Subject Public Key Info:
            Public Key Algorithm: rsaEncryption
                Public-Key: (2048 bit)
                Modulus:
                    00:b5:80:a3:c3:cb:c2:6a:55:1d:45:82:60:37:ab:
                    7c:1c:36:8c:34:80:cf:71:4c:f2:3d:16:b3:ee:89:
                    53:14:26:bb:5e:e8:19:19:84:cc:b2:87:52:18:1b:
                    37:f7:15:22:16:32:ad:f0:1d:95:26:5a:40:85:33:
                    cd:24:16:a5:19:5a:58:37:a8:38:de:0b:a9:62:70:
                    e6:d7:c2:2c:7a:80:7b:a1:3d:4d:13:6e:c6:29:90:
                    07:88:cc:b8:51:ee:f6:57:ae:19:f1:e1:a1:73:51:
                    51:ad:43:ec:d5:b5:c4:0d:07:52:4c:6f:c7:fe:89:
                    92:9e:4d:b1:8b:f3:fa:92:2b:f6:57:31:0d:75:f2:
                    d4:86:ce:99:03:84:ef:6c:3c:88:38:b8:ed:d0:8b:
                    33:cb:61:5b:5b:b6:b9:f2:47:23:7e:7d:3f:7b:85:
                    b4:1f:12:c9:7e:ab:cc:11:80:4a:4b:1c:dc:85:51:
                    4e:00:e4:5c:cc:f4:78:fb:e0:56:3b:50:67:03:fa:
                    d2:48:40:f6:79:c2:8d:02:6f:ff:be:af:81:6b:a2:
                    f8:fc:af:90:bd:77:ab:4a:a2:3d:9d:95:78:a6:82:
                    48:c7:fd:6d:39:c9:da:2b:77:ec:7b:34:ad:95:c9:
                    0f:9d:39:6d:01:39:f1:ee:ab:7e:e2:0c:15:2c:86:
                    64:3b
                Exponent: 65537 (0x10001)
        X509v3 extensions:
            X509v3 Basic Constraints: 
                CA:FALSE
            X509v3 Subject Key Identifier: 
                48:4E:15:0A:0D:FC:05:6B:45:DB:54:64:99:B2:A6:57:09:A7:72:3F
            X509v3 Authority Key Identifier: 
                keyid:75:97:E5:D8:EA:E3:72:63:96:12:83:79:5D:1F:3F:51:59:97:9B:9D
                DirName:/CN=team3-net
                serial:50:2C:88:AB:AC:1E:37:AC:72:B6:ED:69:A3:30:BD:C1:FC:90:C2:0E
            X509v3 Extended Key Usage: 
                TLS Web Server Authentication
            X509v3 Key Usage: 
                Digital Signature, Key Encipherment
            X509v3 Subject Alternative Name: 
                DNS:team3-server
    Signature Algorithm: sha256WithRSAEncryption
    Signature Value:
        1f:84:f7:e2:df:17:12:04:b6:0c:23:9e:36:50:9e:70:3e:fa:
        07:5c:d2:15:b3:21:bd:0d:09:52:1f:73:6e:ff:ae:7f:a0:dc:
        c4:ee:e4:82:8a:2f:25:64:24:00:b7:3a:a4:70:60:04:4b:11:
        ba:ef:2b:72:b4:26:bb:aa:8a:b9:be:1e:56:53:85:f9:0b:07:
        bc:1f:b4:84:be:1b:07:3b:a4:ab:c6:be:71:e4:20:48:a7:c2:
        4a:ca:65:94:a4:9d:aa:ec:f6:6d:76:17:01:9e:9b:8f:36:be:
        e1:81:ad:0d:c5:b8:83:70:c2:55:9b:76:9c:3b:f5:eb:ec:0e:
        22:71:74:db:c0:20:49:da:fb:60:5b:ae:93:48:cf:69:50:66:
        d2:2b:b5:ce:f3:97:f3:c1:25:09:dd:e5:ba:04:82:f8:91:ad:
        7e:73:67:b0:c9:35:b6:76:d0:eb:c3:01:36:39:36:19:84:37:
        54:36:c5:e5:7d:4a:e0:33:ad:6f:8d:08:7c:4e:56:50:9a:e3:
        4e:16:4b:d4:88:e0:e3:47:ea:11:c7:df:f8:4d:16:a6:41:f2:
        2d:e8:72:b3:dc:97:19:5c:c7:b0:61:1f:42:62:e9:c6:7b:6d:
        e0:9f:fc:d4:d9:c5:1e:68:2c:84:4e:97:05:f1:15:c9:9e:9d:
        f8:56:53:74
-----BEGIN CERTIFICATE-----
MIIDbzCCAlegAwIBAgIQSAqIJOCO9nrLetn2Wu8KszANBgkqhkiG9w0BAQsFADAU
MRIwEAYDVQQDDAl0ZWFtMy1uZXQwHhcNMjMxMTA0MTEyNzI5WhcNMjYxMDE5MTEy
NzI5WjAXMRUwEwYDVQQDDAx0ZWFtMy1zZXJ2ZXIwggEiMA0GCSqGSIb3DQEBAQUA
A4IBDwAwggEKAoIBAQC1gKPDy8JqVR1FgmA3q3wcNow0gM9xTPI9FrPuiVMUJrte
6BkZhMyyh1IYGzf3FSIWMq3wHZUmWkCFM80kFqUZWlg3qDjeC6licObXwix6gHuh
PU0TbsYpkAeIzLhR7vZXrhnx4aFzUVGtQ+zVtcQNB1JMb8f+iZKeTbGL8/qSK/ZX
MQ118tSGzpkDhO9sPIg4uO3QizPLYVtbtrnyRyN+fT97hbQfEsl+q8wRgEpLHNyF
UU4A5FzM9Hj74FY7UGcD+tJIQPZ5wo0Cb/++r4Frovj8r5C9d6tKoj2dlXimgkjH
/W05ydord+x7NK2VyQ+dOW0BOfHuq37iDBUshmQ7AgMBAAGjgbkwgbYwCQYDVR0T
BAIwADAdBgNVHQ4EFgQUSE4VCg38BWtF21RkmbKmVwmncj8wTwYDVR0jBEgwRoAU
dZfl2OrjcmOWEoN5XR8/UVmXm52hGKQWMBQxEjAQBgNVBAMMCXRlYW0zLW5ldIIU
UCyIq6weN6xytu1pozC9wfyQwg4wEwYDVR0lBAwwCgYIKwYBBQUHAwEwCwYDVR0P
BAQDAgWgMBcGA1UdEQQQMA6CDHRlYW0zLXNlcnZlcjANBgkqhkiG9w0BAQsFAAOC
AQEAH4T34t8XEgS2DCOeNlCecD76B1zSFbMhvQ0JUh9zbv+uf6DcxO7kgoovJWQk
ALc6pHBgBEsRuu8rcrQmu6qKub4eVlOF+QsHvB+0hL4bBzukq8a+ceQgSKfCSspl
lKSdquz2bXYXAZ6bjza+4YGtDcW4g3DCVZt2nDv16+wOInF028AgSdr7YFuuk0jP
aVBm0iu1zvOX88ElCd3lugSC+JGtfnNnsMk1tnbQ68MBNjk2GYQ3VDbF5X1K4DOt
b40IfE5WUJrjThZL1Ijg40fqEcff+E0WpkHyLehys9yXGVzHsGEfQmLpxntt4J/8
1NnFHmgshE6XBfEVyZ6d+FZTdA==
-----END CERTIFICATE-----
