Certificate:
    Data:
        Version: 3 (0x2)
        Serial Number:
            62:f2:dc:83:8e:d2:63:9a:71:fa:d0:64:45:91:b3:f7
        Signature Algorithm: sha256WithRSAEncryption
        Issuer: CN=team3-net
        Validity
            Not Before: Nov  4 10:40:16 2023 GMT
            Not After : Oct 19 10:40:16 2026 GMT
        Subject: CN=team3-client
        Subject Public Key Info:
            Public Key Algorithm: rsaEncryption
                Public-Key: (2048 bit)
                Modulus:
                    00:b1:77:fc:78:4b:26:12:3a:da:78:33:d0:48:39:
                    64:1b:4b:16:eb:9d:38:9d:4a:31:56:ca:3d:96:ab:
                    2d:f2:24:49:27:14:15:77:12:ef:c6:6d:3b:7d:16:
                    ac:31:a0:6f:ec:f8:4f:09:3f:0b:81:b9:db:e8:3a:
                    e9:ce:75:d3:24:c8:6c:df:20:29:b4:89:42:ce:8b:
                    be:14:35:bb:13:2d:95:52:1d:e0:16:06:fa:1f:86:
                    bf:2e:97:57:6d:03:8f:08:e2:85:82:e6:9a:eb:d0:
                    27:f9:bf:28:f9:f5:df:b0:e5:5a:86:c7:fa:e1:80:
                    54:13:9f:e4:c4:90:30:e4:5f:58:b5:5d:d8:dc:88:
                    41:8d:ba:24:4a:9a:88:61:b2:da:d7:43:8a:0a:eb:
                    05:8d:01:28:16:1e:fa:de:50:86:0f:5d:49:27:0a:
                    23:40:37:9b:76:13:3d:42:a7:a6:64:a3:8c:6b:11:
                    b8:93:dd:17:f6:e1:52:2d:04:cf:78:2f:e4:d9:77:
                    99:82:8e:30:42:c3:c9:c8:67:5d:c6:ce:20:d7:b2:
                    b3:39:db:2a:29:08:89:59:d2:b0:dc:25:65:00:2f:
                    23:b3:7d:7e:25:59:0e:a3:b2:db:87:be:69:d1:d7:
                    62:56:d3:b8:f3:65:45:7b:06:ef:24:fe:21:91:bc:
                    ac:93
                Exponent: 65537 (0x10001)
        X509v3 extensions:
            X509v3 Basic Constraints: 
                CA:FALSE
            X509v3 Subject Key Identifier: 
                C9:97:EC:7B:81:10:4B:C3:60:76:10:83:97:DC:3D:B9:E3:EF:30:B7
            X509v3 Authority Key Identifier: 
                keyid:16:9A:95:FE:8D:84:27:91:17:03:79:A1:C2:7D:C3:FA:BC:DF:6F:5E
                DirName:/CN=team3-net
                serial:75:FB:21:1A:30:9C:6B:7D:28:3C:5E:9C:61:D4:6C:75:83:FD:C6:8B
            X509v3 Extended Key Usage: 
                TLS Web Client Authentication
            X509v3 Key Usage: 
                Digital Signature
    Signature Algorithm: sha256WithRSAEncryption
    Signature Value:
        16:cc:e1:3b:05:fa:32:b9:c1:5c:ff:bd:bb:87:59:42:e5:0a:
        7d:4f:cb:37:37:18:5a:ac:e2:c2:21:d8:fb:ad:fa:de:56:9f:
        b2:d4:f9:d5:11:c9:a1:fb:e6:fa:21:b4:67:40:50:f4:11:91:
        db:11:0d:94:eb:e1:6e:98:e0:56:c8:f4:86:57:77:ce:e8:de:
        dd:e2:e1:41:52:f4:56:e1:08:7a:95:ff:ef:0f:90:89:ee:ac:
        03:da:03:48:6a:8a:df:4d:7f:1e:df:2c:57:b1:c8:da:cc:c4:
        90:6f:18:ce:4e:d3:a9:61:6e:d0:5d:7a:dd:d2:bc:f9:17:3c:
        70:95:dd:07:f4:f3:d9:89:19:56:a7:3e:c7:40:86:33:19:46:
        8f:f6:a1:35:58:ea:4f:28:cf:b5:52:96:9d:42:dc:51:52:7d:
        86:a0:82:fc:1f:c7:41:f4:55:7b:f7:e6:22:05:9a:16:ba:47:
        c2:12:c7:21:c9:20:7f:9b:13:b7:e3:21:4a:52:3b:ce:f2:70:
        91:bd:c0:51:5d:9e:57:55:d2:4c:fc:42:48:7c:78:e4:85:cb:
        5b:d0:08:19:bb:68:f1:e7:f4:07:47:97:f4:e8:49:a4:81:17:
        8d:6b:1b:14:6f:4b:a2:8c:38:20:2e:d2:70:49:9d:44:f3:a7:
        57:d5:a8:49
-----BEGIN CERTIFICATE-----
MIIDVjCCAj6gAwIBAgIQYvLcg47SY5px+tBkRZGz9zANBgkqhkiG9w0BAQsFADAU
MRIwEAYDVQQDDAl0ZWFtMy1uZXQwHhcNMjMxMTA0MTA0MDE2WhcNMjYxMDE5MTA0
MDE2WjAXMRUwEwYDVQQDDAx0ZWFtMy1jbGllbnQwggEiMA0GCSqGSIb3DQEBAQUA
A4IBDwAwggEKAoIBAQCxd/x4SyYSOtp4M9BIOWQbSxbrnTidSjFWyj2Wqy3yJEkn
FBV3Eu/GbTt9FqwxoG/s+E8JPwuBudvoOunOddMkyGzfICm0iULOi74UNbsTLZVS
HeAWBvofhr8ul1dtA48I4oWC5prr0Cf5vyj59d+w5VqGx/rhgFQTn+TEkDDkX1i1
XdjciEGNuiRKmohhstrXQ4oK6wWNASgWHvreUIYPXUknCiNAN5t2Ez1Cp6Zko4xr
EbiT3Rf24VItBM94L+TZd5mCjjBCw8nIZ13GziDXsrM52yopCIlZ0rDcJWUALyOz
fX4lWQ6jstuHvmnR12JW07jzZUV7Bu8k/iGRvKyTAgMBAAGjgaAwgZ0wCQYDVR0T
BAIwADAdBgNVHQ4EFgQUyZfse4EQS8NgdhCDl9w9uePvMLcwTwYDVR0jBEgwRoAU
FpqV/o2EJ5EXA3mhwn3D+rzfb16hGKQWMBQxEjAQBgNVBAMMCXRlYW0zLW5ldIIU
dfshGjCca30oPF6cYdRsdYP9xoswEwYDVR0lBAwwCgYIKwYBBQUHAwIwCwYDVR0P
BAQDAgeAMA0GCSqGSIb3DQEBCwUAA4IBAQAWzOE7BfoyucFc/727h1lC5Qp9T8s3
NxharOLCIdj7rfreVp+y1PnVEcmh++b6IbRnQFD0EZHbEQ2U6+FumOBWyPSGV3fO
6N7d4uFBUvRW4Qh6lf/vD5CJ7qwD2gNIaorfTX8e3yxXscjazMSQbxjOTtOpYW7Q
XXrd0rz5Fzxwld0H9PPZiRlWpz7HQIYzGUaP9qE1WOpPKM+1UpadQtxRUn2GoIL8
H8dB9FV79+YiBZoWukfCEschySB/mxO34yFKUjvO8nCRvcBRXZ5XVdJM/EJIfHjk
hctb0AgZu2jx5/QHR5f06EmkgReNaxsUb0uijDggLtJwSZ1E86dX1ahJ
-----END CERTIFICATE-----
