Certificate:
    Data:
        Version: 3 (0x2)
        Serial Number:
            d8:8d:6b:4a:79:5b:56:fb:9b:f3:7b:7b:2e:72:21:c7
        Signature Algorithm: sha256WithRSAEncryption
        Issuer: CN=team3-net
        Validity
            Not Before: Oct 31 16:30:12 2023 GMT
            Not After : Oct 15 16:30:12 2026 GMT
        Subject: CN=team3-client
        Subject Public Key Info:
            Public Key Algorithm: rsaEncryption
                Public-Key: (2048 bit)
                Modulus:
                    00:cf:7f:8d:0d:93:ba:27:91:54:c5:88:ee:02:b2:
                    af:18:15:4f:9b:05:9c:71:9d:e9:92:31:c9:c0:5f:
                    99:27:4f:44:bf:34:b0:ab:e9:9f:3c:ea:82:86:cf:
                    8f:c4:41:15:5d:02:dc:da:c4:bf:72:81:00:a4:d1:
                    f0:2f:5a:5a:28:52:da:a5:5f:ab:31:da:76:a6:0d:
                    d6:04:df:a6:83:51:c9:72:b7:8f:e7:3e:ed:db:71:
                    4d:82:aa:cf:6e:49:7a:57:b6:e4:9e:57:5e:f2:31:
                    d9:f2:a2:63:6e:37:db:a4:19:b9:49:be:17:13:29:
                    23:b0:03:14:c2:94:9b:29:c3:8a:ba:8b:a4:1c:e5:
                    e7:b7:cf:c2:14:fa:89:02:1b:4a:64:2a:88:0b:18:
                    bb:1c:6f:ca:37:80:72:d9:37:2d:d3:2a:78:8c:49:
                    71:57:1c:64:d2:06:aa:a9:b8:5e:07:81:ae:86:a5:
                    ad:07:6f:48:d1:3e:a1:ad:9a:18:ee:1e:d8:aa:d0:
                    43:09:f6:6e:73:53:a2:ee:66:3f:63:61:d5:ef:5a:
                    8c:4a:f2:92:a8:65:8e:50:16:57:e6:ad:57:b9:d0:
                    47:1a:3e:2d:86:69:ac:a1:d6:ae:4a:1e:4f:22:fd:
                    32:b6:20:3f:87:e6:d1:93:cb:6d:35:fa:cb:02:eb:
                    9e:b1
                Exponent: 65537 (0x10001)
        X509v3 extensions:
            X509v3 Basic Constraints: 
                CA:FALSE
            X509v3 Subject Key Identifier: 
                81:B0:EB:FF:7A:72:7A:B5:79:F2:42:43:8A:73:13:B3:CA:4C:49:24
            X509v3 Authority Key Identifier: 
                keyid:63:FD:9B:39:B8:EA:01:4E:F6:1D:F6:BE:45:E8:05:6D:D6:AD:52:50
                DirName:/CN=team3-net
                serial:72:35:65:A6:43:BC:4D:15:85:19:3B:EC:31:54:74:72:11:98:DC:15
            X509v3 Extended Key Usage: 
                TLS Web Client Authentication
            X509v3 Key Usage: 
                Digital Signature
    Signature Algorithm: sha256WithRSAEncryption
    Signature Value:
        11:9d:04:e7:83:30:c3:2c:5e:33:ee:e1:18:99:f4:d5:cb:de:
        7c:fc:18:f5:a5:df:71:e7:20:a6:23:5f:8e:f4:78:fe:81:de:
        80:00:7a:bf:e2:e0:40:d7:33:66:74:13:a7:85:64:e3:f2:aa:
        c1:de:81:54:3f:9b:28:4f:6b:19:63:e0:c7:a0:cc:04:f9:c2:
        ac:39:17:52:d7:94:12:e2:5e:8b:02:cc:12:2f:59:d2:8c:af:
        78:2d:5b:0a:2b:b2:0f:3c:7c:07:84:a7:15:49:85:fa:76:7e:
        50:b1:35:5e:eb:35:30:af:4d:be:41:74:93:f8:ff:43:cb:1c:
        94:70:0f:5b:99:72:ed:61:fd:28:a8:5d:3a:cf:89:a4:54:c2:
        8c:7c:b3:6e:36:2d:99:cb:0c:a4:3f:5b:61:f3:0c:dd:d1:b6:
        0d:13:07:d1:92:d0:2d:d8:89:8e:64:be:8c:70:5f:87:b8:a5:
        13:d9:c4:09:e3:2c:f1:e5:f5:55:99:6d:fc:a8:8d:b7:9c:b7:
        01:20:67:42:39:cf:0c:bc:be:d9:f7:0e:c5:35:7a:e8:93:07:
        3c:67:21:41:ec:8d:03:3f:ac:a3:65:f5:51:83:ec:5e:67:3b:
        be:a4:9b:e8:96:b0:20:53:a4:ea:56:6b:1e:35:09:a8:ec:14:
        1e:a0:03:7b
-----BEGIN CERTIFICATE-----
MIIDVzCCAj+gAwIBAgIRANiNa0p5W1b7m/N7ey5yIccwDQYJKoZIhvcNAQELBQAw
FDESMBAGA1UEAwwJdGVhbTMtbmV0MB4XDTIzMTAzMTE2MzAxMloXDTI2MTAxNTE2
MzAxMlowFzEVMBMGA1UEAwwMdGVhbTMtY2xpZW50MIIBIjANBgkqhkiG9w0BAQEF
AAOCAQ8AMIIBCgKCAQEAz3+NDZO6J5FUxYjuArKvGBVPmwWccZ3pkjHJwF+ZJ09E
vzSwq+mfPOqChs+PxEEVXQLc2sS/coEApNHwL1paKFLapV+rMdp2pg3WBN+mg1HJ
creP5z7t23FNgqrPbkl6V7bknlde8jHZ8qJjbjfbpBm5Sb4XEykjsAMUwpSbKcOK
uoukHOXnt8/CFPqJAhtKZCqICxi7HG/KN4By2Tct0yp4jElxVxxk0gaqqbheB4Gu
hqWtB29I0T6hrZoY7h7YqtBDCfZuc1Oi7mY/Y2HV71qMSvKSqGWOUBZX5q1XudBH
Gj4thmmsodauSh5PIv0ytiA/h+bRk8ttNfrLAuuesQIDAQABo4GgMIGdMAkGA1Ud
EwQCMAAwHQYDVR0OBBYEFIGw6/96cnq1efJCQ4pzE7PKTEkkME8GA1UdIwRIMEaA
FGP9mzm46gFO9h32vkXoBW3WrVJQoRikFjAUMRIwEAYDVQQDDAl0ZWFtMy1uZXSC
FHI1ZaZDvE0VhRk77DFUdHIRmNwVMBMGA1UdJQQMMAoGCCsGAQUFBwMCMAsGA1Ud
DwQEAwIHgDANBgkqhkiG9w0BAQsFAAOCAQEAEZ0E54MwwyxeM+7hGJn01cvefPwY
9aXfcecgpiNfjvR4/oHegAB6v+LgQNczZnQTp4Vk4/Kqwd6BVD+bKE9rGWPgx6DM
BPnCrDkXUteUEuJeiwLMEi9Z0oyveC1bCiuyDzx8B4SnFUmF+nZ+ULE1Xus1MK9N
vkF0k/j/Q8sclHAPW5ly7WH9KKhdOs+JpFTCjHyzbjYtmcsMpD9bYfMM3dG2DRMH
0ZLQLdiJjmS+jHBfh7ilE9nECeMs8eX1VZlt/KiNt5y3ASBnQjnPDLy+2fcOxTV6
6JMHPGchQeyNAz+so2X1UYPsXmc7vqSb6JawIFOk6lZrHjUJqOwUHqADew==
-----END CERTIFICATE-----
