Certificate:
    Data:
        Version: 3 (0x2)
        Serial Number:
            f3:af:bf:56:39:0f:53:2d:a9:f0:ef:ef:f0:1d:cd:ef
        Signature Algorithm: sha256WithRSAEncryption
        Issuer: CN=team3-net
        Validity
            Not Before: Oct 31 16:30:12 2023 GMT
            Not After : Oct 15 16:30:12 2026 GMT
        Subject: CN=team3-server
        Subject Public Key Info:
            Public Key Algorithm: rsaEncryption
                Public-Key: (2048 bit)
                Modulus:
                    00:8a:45:bb:b1:16:38:d8:13:5b:ab:21:e2:a6:74:
                    87:65:69:6e:a7:1f:c7:ad:39:6a:de:0c:30:f4:9b:
                    80:0c:a8:85:ba:48:12:b7:2f:45:fd:a7:a2:d5:86:
                    4d:0f:25:d2:a2:29:ae:f4:01:ec:e9:8d:0b:d2:eb:
                    c1:97:17:71:29:f9:ea:b7:b9:17:8d:ff:22:8b:2f:
                    33:11:e4:71:4c:1e:05:1d:a3:ed:de:52:80:a6:d8:
                    63:ca:4e:a5:20:eb:ed:22:3f:5d:4a:07:a4:2f:b2:
                    2b:17:fc:c4:ed:0c:e0:81:53:b5:39:85:da:3a:dc:
                    b9:cb:0d:13:dd:7b:0e:f0:52:a4:ed:98:5c:3f:69:
                    70:08:b8:06:6e:c6:1d:55:0c:81:33:cc:13:37:9c:
                    cf:8a:2f:90:55:39:37:b6:3a:ed:89:1a:82:7b:85:
                    c0:08:60:6b:3f:5d:4b:28:c8:cf:ab:e6:98:2a:64:
                    3d:e6:2d:3a:09:2f:86:65:dd:58:87:ac:4c:65:ea:
                    17:5a:cd:3d:4e:4a:ed:ee:aa:6b:27:f8:20:68:db:
                    41:83:b9:2f:38:5b:12:48:c9:d9:a3:04:aa:4a:72:
                    8c:92:12:7e:79:c5:b9:5b:19:03:72:eb:0f:28:f9:
                    7d:81:6c:3a:e0:ab:fd:97:ea:08:32:1f:53:3f:b2:
                    d2:fd
                Exponent: 65537 (0x10001)
        X509v3 extensions:
            X509v3 Basic Constraints: 
                CA:FALSE
            X509v3 Subject Key Identifier: 
                0D:0D:39:00:3B:5E:44:F6:6F:DD:D0:DB:52:0D:98:80:2A:44:88:43
            X509v3 Authority Key Identifier: 
                keyid:63:FD:9B:39:B8:EA:01:4E:F6:1D:F6:BE:45:E8:05:6D:D6:AD:52:50
                DirName:/CN=team3-net
                serial:72:35:65:A6:43:BC:4D:15:85:19:3B:EC:31:54:74:72:11:98:DC:15
            X509v3 Extended Key Usage: 
                TLS Web Server Authentication
            X509v3 Key Usage: 
                Digital Signature, Key Encipherment
            X509v3 Subject Alternative Name: 
                DNS:team3-server
    Signature Algorithm: sha256WithRSAEncryption
    Signature Value:
        95:0d:3a:d1:e0:45:93:ac:2e:21:63:9c:04:16:97:26:37:af:
        03:93:2c:eb:ac:ad:8e:d3:71:84:32:84:b1:e7:26:9c:95:cb:
        a7:33:28:bd:d0:7d:12:c5:b1:39:f2:6a:18:fe:be:86:9a:0b:
        18:c2:6d:33:3f:1d:34:90:fa:6d:ce:a9:b4:d2:13:fb:6f:e1:
        ca:33:66:06:7b:b0:b8:9b:03:26:59:7e:2a:8c:d2:75:4f:69:
        da:3e:09:b7:c0:c1:83:40:92:c2:23:cb:b3:88:1f:0c:93:55:
        5a:2a:21:85:7a:e1:f9:c2:37:8b:c3:e5:3a:ef:52:d6:f0:64:
        86:39:82:56:11:32:4a:fa:8c:54:5d:45:cc:a2:39:50:9c:bf:
        74:72:05:05:70:d2:e2:4b:f7:cb:83:f2:4c:b4:98:79:d1:e3:
        b1:87:15:76:51:d0:e2:36:e7:04:a3:27:da:52:c3:ad:00:e6:
        08:ff:2c:09:f7:ed:0f:38:08:2d:ae:9c:1b:e3:e0:14:93:d5:
        ba:77:c7:fb:8b:b9:e3:45:10:a7:85:2c:1d:fe:de:3e:89:c5:
        94:2e:6d:0f:b6:0a:c7:f5:d3:00:dc:c8:09:32:09:45:d9:d7:
        b8:b7:c2:f8:e0:fe:98:d9:2e:5d:c9:33:ba:86:f1:ae:5d:23:
        44:b3:5d:d7
-----BEGIN CERTIFICATE-----
MIIDcDCCAligAwIBAgIRAPOvv1Y5D1MtqfDv7/Adze8wDQYJKoZIhvcNAQELBQAw
FDESMBAGA1UEAwwJdGVhbTMtbmV0MB4XDTIzMTAzMTE2MzAxMloXDTI2MTAxNTE2
MzAxMlowFzEVMBMGA1UEAwwMdGVhbTMtc2VydmVyMIIBIjANBgkqhkiG9w0BAQEF
AAOCAQ8AMIIBCgKCAQEAikW7sRY42BNbqyHipnSHZWlupx/HrTlq3gww9JuADKiF
ukgSty9F/aei1YZNDyXSoimu9AHs6Y0L0uvBlxdxKfnqt7kXjf8iiy8zEeRxTB4F
HaPt3lKApthjyk6lIOvtIj9dSgekL7IrF/zE7QzggVO1OYXaOty5yw0T3XsO8FKk
7ZhcP2lwCLgGbsYdVQyBM8wTN5zPii+QVTk3tjrtiRqCe4XACGBrP11LKMjPq+aY
KmQ95i06CS+GZd1Yh6xMZeoXWs09Tkrt7qprJ/ggaNtBg7kvOFsSSMnZowSqSnKM
khJ+ecW5WxkDcusPKPl9gWw64Kv9l+oIMh9TP7LS/QIDAQABo4G5MIG2MAkGA1Ud
EwQCMAAwHQYDVR0OBBYEFA0NOQA7XkT2b93Q21INmIAqRIhDME8GA1UdIwRIMEaA
FGP9mzm46gFO9h32vkXoBW3WrVJQoRikFjAUMRIwEAYDVQQDDAl0ZWFtMy1uZXSC
FHI1ZaZDvE0VhRk77DFUdHIRmNwVMBMGA1UdJQQMMAoGCCsGAQUFBwMBMAsGA1Ud
DwQEAwIFoDAXBgNVHREEEDAOggx0ZWFtMy1zZXJ2ZXIwDQYJKoZIhvcNAQELBQAD
ggEBAJUNOtHgRZOsLiFjnAQWlyY3rwOTLOusrY7TcYQyhLHnJpyVy6czKL3QfRLF
sTnyahj+voaaCxjCbTM/HTSQ+m3OqbTSE/tv4cozZgZ7sLibAyZZfiqM0nVPado+
CbfAwYNAksIjy7OIHwyTVVoqIYV64fnCN4vD5TrvUtbwZIY5glYRMkr6jFRdRcyi
OVCcv3RyBQVw0uJL98uD8ky0mHnR47GHFXZR0OI25wSjJ9pSw60A5gj/LAn37Q84
CC2unBvj4BST1bp3x/uLueNFEKeFLB3+3j6JxZQubQ+2Csf10wDcyAkyCUXZ17i3
wvjg/pjZLl3JM7qG8a5dI0SzXdc=
-----END CERTIFICATE-----
