Certificate:
    Data:
        Version: 3 (0x2)
        Serial Number:
            82:e0:67:2f:79:b8:80:43:db:c9:9d:32:26:e8:00:c3
        Signature Algorithm: sha256WithRSAEncryption
        Issuer: CN=team404-net
        Validity
            Not Before: Nov  4 11:36:36 2023 GMT
            Not After : Oct 19 11:36:36 2026 GMT
        Subject: CN=team404-server
        Subject Public Key Info:
            Public Key Algorithm: rsaEncryption
                Public-Key: (2048 bit)
                Modulus:
                    00:da:25:1a:2c:cb:bb:70:80:d4:ff:7c:ca:4d:17:
                    e7:ab:9b:0b:35:68:74:16:33:cb:7f:30:c4:f2:18:
                    e4:b1:73:67:27:d2:77:d9:4b:1e:ab:99:51:0a:71:
                    24:a9:9c:71:24:ac:b4:67:41:50:1c:d1:f7:6a:40:
                    e7:7c:c5:7b:2e:31:f3:61:06:12:e9:90:b5:bc:47:
                    5a:55:fb:da:34:c9:b8:80:24:1c:73:58:72:e2:8a:
                    e0:d6:71:6b:eb:37:72:ec:0d:6e:ea:39:80:2c:78:
                    7c:35:4a:3c:b2:0f:8c:1a:ed:e5:63:21:17:e4:e4:
                    b0:30:43:e9:64:74:15:10:ad:0f:5e:54:d4:7e:51:
                    86:77:e2:69:21:86:91:b9:53:b9:74:39:40:e2:e3:
                    9b:32:e0:17:75:ec:00:88:7d:55:2c:de:53:bf:cd:
                    ae:d1:89:87:d2:b1:ef:98:9f:97:77:24:6c:cb:df:
                    71:52:e3:ae:8a:1f:5b:73:39:42:b7:cd:29:5c:06:
                    83:15:30:ac:ec:51:fa:46:e2:9c:e8:27:2e:8a:5b:
                    e2:a6:64:91:26:3e:5a:a4:7f:ea:d5:66:d8:b9:8b:
                    89:dc:d1:75:3d:21:38:cf:4f:dc:12:80:ad:98:cb:
                    59:9f:51:9d:2d:50:89:b5:09:be:28:9c:46:99:3b:
                    c2:79
                Exponent: 65537 (0x10001)
        X509v3 extensions:
            X509v3 Basic Constraints: 
                CA:FALSE
            X509v3 Subject Key Identifier: 
                34:74:2F:D3:00:50:D3:BF:22:28:50:82:93:99:4D:04:31:EB:52:CB
            X509v3 Authority Key Identifier: 
                keyid:B0:7B:A1:7F:C0:70:2A:A3:5E:32:61:CA:A9:4F:51:26:40:72:DB:0D
                DirName:/CN=team404-net
                serial:7D:38:BE:52:4B:B2:93:D4:E4:E1:EC:3A:0E:EA:16:6D:90:4F:D5:CF
            X509v3 Extended Key Usage: 
                TLS Web Server Authentication
            X509v3 Key Usage: 
                Digital Signature, Key Encipherment
            X509v3 Subject Alternative Name: 
                DNS:team404-server
    Signature Algorithm: sha256WithRSAEncryption
    Signature Value:
        0d:da:ea:59:66:4c:9a:e2:5c:cb:20:3a:21:2f:60:6f:e1:aa:
        57:1a:85:99:4b:1e:c5:a4:7a:c5:46:af:fc:aa:93:f9:4d:f0:
        b8:d1:18:34:11:88:69:a3:80:30:21:18:39:fe:c5:c8:c2:2b:
        e2:c8:34:29:7e:6f:f8:8e:4a:0c:8f:71:61:dc:39:64:d4:5c:
        ef:5f:de:2a:84:8e:82:57:ed:c2:03:23:7a:e6:77:98:e1:20:
        65:89:89:16:6b:f8:fd:6b:a6:67:4b:15:93:8d:0a:38:70:4f:
        d5:52:9a:54:51:3b:c6:bb:88:47:47:ba:d8:80:4a:4c:d5:fc:
        bc:22:30:fe:2d:29:7e:a2:14:40:f5:d5:4b:25:5a:89:86:cd:
        5e:74:3d:d7:84:bd:a7:fd:2e:7b:26:bf:d4:ef:36:56:80:41:
        82:ed:25:8f:b9:34:5d:4a:47:89:b2:3e:58:91:bb:e9:aa:46:
        b7:f4:b3:25:82:df:62:be:b9:7b:dd:ae:48:3b:eb:b4:46:1b:
        54:2a:d7:f9:d7:e0:e2:a4:cb:5e:ce:8c:3c:95:33:03:02:a3:
        8f:05:ae:3c:16:af:aa:1e:90:2c:92:98:95:35:29:f6:95:0a:
        7b:d3:44:3b:5b:85:0b:d5:69:13:c5:c9:c1:8e:ef:8e:13:d6:
        b4:37:9b:f4
-----BEGIN CERTIFICATE-----
MIIDeDCCAmCgAwIBAgIRAILgZy95uIBD28mdMiboAMMwDQYJKoZIhvcNAQELBQAw
FjEUMBIGA1UEAwwLdGVhbTQwNC1uZXQwHhcNMjMxMTA0MTEzNjM2WhcNMjYxMDE5
MTEzNjM2WjAZMRcwFQYDVQQDDA50ZWFtNDA0LXNlcnZlcjCCASIwDQYJKoZIhvcN
AQEBBQADggEPADCCAQoCggEBANolGizLu3CA1P98yk0X56ubCzVodBYzy38wxPIY
5LFzZyfSd9lLHquZUQpxJKmccSSstGdBUBzR92pA53zFey4x82EGEumQtbxHWlX7
2jTJuIAkHHNYcuKK4NZxa+s3cuwNbuo5gCx4fDVKPLIPjBrt5WMhF+TksDBD6WR0
FRCtD15U1H5RhnfiaSGGkblTuXQ5QOLjmzLgF3XsAIh9VSzeU7/NrtGJh9Kx75if
l3ckbMvfcVLjroofW3M5QrfNKVwGgxUwrOxR+kbinOgnLopb4qZkkSY+WqR/6tVm
2LmLidzRdT0hOM9P3BKArZjLWZ9RnS1QibUJviicRpk7wnkCAwEAAaOBvTCBujAJ
BgNVHRMEAjAAMB0GA1UdDgQWBBQ0dC/TAFDTvyIoUIKTmU0EMetSyzBRBgNVHSME
SjBIgBSwe6F/wHAqo14yYcqpT1EmQHLbDaEapBgwFjEUMBIGA1UEAwwLdGVhbTQw
NC1uZXSCFH04vlJLspPU5OHsOg7qFm2QT9XPMBMGA1UdJQQMMAoGCCsGAQUFBwMB
MAsGA1UdDwQEAwIFoDAZBgNVHREEEjAQgg50ZWFtNDA0LXNlcnZlcjANBgkqhkiG
9w0BAQsFAAOCAQEADdrqWWZMmuJcyyA6IS9gb+GqVxqFmUsexaR6xUav/KqT+U3w
uNEYNBGIaaOAMCEYOf7FyMIr4sg0KX5v+I5KDI9xYdw5ZNRc71/eKoSOglftwgMj
euZ3mOEgZYmJFmv4/WumZ0sVk40KOHBP1VKaVFE7xruIR0e62IBKTNX8vCIw/i0p
fqIUQPXVSyVaiYbNXnQ914S9p/0ueya/1O82VoBBgu0lj7k0XUpHibI+WJG76apG
t/SzJYLfYr65e92uSDvrtEYbVCrX+dfg4qTLXs6MPJUzAwKjjwWuPBavqh6QLJKY
lTUp9pUKe9NEO1uFC9VpE8XJwY7vjhPWtDeb9A==
-----END CERTIFICATE-----
