Certificate:
    Data:
        Version: 3 (0x2)
        Serial Number:
            f7:e1:92:b8:c1:98:70:53:9e:fc:01:7f:1d:08:16:38
        Signature Algorithm: sha256WithRSAEncryption
        Issuer: CN=team404-net
        Validity
            Not Before: Nov  4 10:47:55 2023 GMT
            Not After : Oct 19 10:47:55 2026 GMT
        Subject: CN=team404-client
        Subject Public Key Info:
            Public Key Algorithm: rsaEncryption
                Public-Key: (2048 bit)
                Modulus:
                    00:b5:5d:04:d6:76:63:6a:fc:64:b6:c9:de:d9:1a:
                    0b:16:2f:46:67:22:da:75:4a:29:ad:7a:fa:2f:1a:
                    35:81:e8:4f:3d:aa:67:5e:ff:cb:aa:cc:95:72:ae:
                    1b:7b:85:1b:a7:a4:14:d3:c6:7a:a4:c8:ca:55:e6:
                    39:56:42:2a:25:2d:cc:1b:6a:dc:ae:5a:5a:bd:7d:
                    86:a4:eb:d2:07:a5:95:f2:df:aa:57:18:52:57:b5:
                    3b:bd:d5:37:63:a1:b0:f7:ce:86:3a:f6:18:ad:3f:
                    b2:33:7c:c7:ae:9a:dd:ad:d7:11:f2:7b:1d:a0:48:
                    b4:ca:fb:e6:9f:82:f1:5a:fa:6f:fc:62:16:1c:67:
                    cf:39:fe:21:e3:61:4e:18:9a:f8:36:80:fc:1d:bf:
                    f3:a4:e1:e8:07:d8:d5:41:7e:6b:4a:49:cd:fc:60:
                    af:02:e0:a4:85:0e:e3:c9:f9:c2:5f:bc:2d:93:b3:
                    11:7a:0c:f8:9a:0a:06:2a:bf:57:d4:73:2d:36:c5:
                    0d:9d:91:6a:47:f9:34:ea:5d:42:79:79:ee:eb:61:
                    f2:64:63:24:ad:d7:e3:70:b9:50:88:67:f4:34:fa:
                    f5:b1:38:4a:fb:90:de:33:b1:8b:d0:60:83:9f:3f:
                    6b:a1:24:26:b6:b5:df:be:35:94:f0:20:a5:f7:9c:
                    32:93
                Exponent: 65537 (0x10001)
        X509v3 extensions:
            X509v3 Basic Constraints: 
                CA:FALSE
            X509v3 Subject Key Identifier: 
                C9:7A:98:B7:C0:86:F5:6D:D5:9F:B4:E3:A7:C3:CD:33:38:2C:D0:80
            X509v3 Authority Key Identifier: 
                keyid:10:2B:D2:11:70:06:EE:8C:A3:34:3A:87:9C:A5:FC:6D:E2:67:39:6B
                DirName:/CN=team404-net
                serial:50:49:FF:A1:2F:E6:69:12:12:83:0C:A4:5A:91:27:35:25:08:9A:82
            X509v3 Extended Key Usage: 
                TLS Web Client Authentication
            X509v3 Key Usage: 
                Digital Signature
    Signature Algorithm: sha256WithRSAEncryption
    Signature Value:
        8f:9a:d7:62:2c:a6:63:4e:0e:b2:ed:0d:6a:77:54:bd:5a:56:
        29:bd:23:c8:0f:81:8a:a4:b6:a2:42:63:56:73:cd:13:44:3b:
        e0:6d:e4:b6:eb:d9:89:95:c2:9f:c7:62:95:5a:5d:24:0c:8a:
        c0:66:63:f8:08:c9:7a:0b:1d:8d:3f:e4:b2:c4:38:04:f5:63:
        e4:ff:46:1a:d9:48:88:83:4b:8d:58:c9:4b:84:e2:a5:7b:be:
        c9:40:64:c3:3a:a4:d3:c1:6d:b0:77:11:97:cf:6f:b5:62:5d:
        1f:57:a9:42:3a:0d:be:87:4c:f7:fa:a3:da:70:bd:d8:10:dc:
        1a:22:0c:97:ed:12:3f:30:ec:69:7f:b6:fe:f2:65:ed:e1:a1:
        63:5f:93:8d:e7:cf:75:34:63:07:b5:1f:34:5e:76:17:eb:83:
        9b:bf:2a:b4:d1:47:e0:8c:18:80:8c:0c:3e:ec:18:af:15:74:
        92:61:74:c0:28:c4:1a:78:4d:49:72:2b:cf:de:05:94:6b:e7:
        7e:16:1e:2c:d9:8b:d5:01:77:b3:0e:60:0b:85:eb:d6:0f:b8:
        f2:9d:52:97:f7:b0:9b:23:73:ee:cc:f3:e2:19:ec:b4:d9:0a:
        e8:8c:42:cc:ea:43:b1:ce:fa:aa:84:b5:74:a8:d3:76:34:e7:
        03:e0:1f:38
-----BEGIN CERTIFICATE-----
MIIDXTCCAkWgAwIBAgIRAPfhkrjBmHBTnvwBfx0IFjgwDQYJKoZIhvcNAQELBQAw
FjEUMBIGA1UEAwwLdGVhbTQwNC1uZXQwHhcNMjMxMTA0MTA0NzU1WhcNMjYxMDE5
MTA0NzU1WjAZMRcwFQYDVQQDDA50ZWFtNDA0LWNsaWVudDCCASIwDQYJKoZIhvcN
AQEBBQADggEPADCCAQoCggEBALVdBNZ2Y2r8ZLbJ3tkaCxYvRmci2nVKKa16+i8a
NYHoTz2qZ17/y6rMlXKuG3uFG6ekFNPGeqTIylXmOVZCKiUtzBtq3K5aWr19hqTr
0gellfLfqlcYUle1O73VN2OhsPfOhjr2GK0/sjN8x66a3a3XEfJ7HaBItMr75p+C
8Vr6b/xiFhxnzzn+IeNhThia+DaA/B2/86Th6AfY1UF+a0pJzfxgrwLgpIUO48n5
wl+8LZOzEXoM+JoKBiq/V9RzLTbFDZ2Rakf5NOpdQnl57uth8mRjJK3X43C5UIhn
9DT69bE4SvuQ3jOxi9Bgg58/a6EkJra13741lPAgpfecMpMCAwEAAaOBojCBnzAJ
BgNVHRMEAjAAMB0GA1UdDgQWBBTJepi3wIb1bdWftOOnw80zOCzQgDBRBgNVHSME
SjBIgBQQK9IRcAbujKM0Ooecpfxt4mc5a6EapBgwFjEUMBIGA1UEAwwLdGVhbTQw
NC1uZXSCFFBJ/6Ev5mkSEoMMpFqRJzUlCJqCMBMGA1UdJQQMMAoGCCsGAQUFBwMC
MAsGA1UdDwQEAwIHgDANBgkqhkiG9w0BAQsFAAOCAQEAj5rXYiymY04Osu0NandU
vVpWKb0jyA+BiqS2okJjVnPNE0Q74G3ktuvZiZXCn8dilVpdJAyKwGZj+AjJegsd
jT/kssQ4BPVj5P9GGtlIiINLjVjJS4TipXu+yUBkwzqk08FtsHcRl89vtWJdH1ep
QjoNvodM9/qj2nC92BDcGiIMl+0SPzDsaX+2/vJl7eGhY1+TjefPdTRjB7UfNF52
F+uDm78qtNFH4IwYgIwMPuwYrxV0kmF0wCjEGnhNSXIrz94FlGvnfhYeLNmL1QF3
sw5gC4Xr1g+48p1Sl/ewmyNz7szz4hnstNkK6IxCzOpDsc76qoS1dKjTdjTnA+Af
OA==
-----END CERTIFICATE-----
