Certificate:
    Data:
        Version: 3 (0x2)
        Serial Number:
            15:ac:f8:50:04:9d:c1:06:b4:c0:22:de:11:9c:8b:1d
        Signature Algorithm: sha256WithRSAEncryption
        Issuer: CN=team33-net
        Validity
            Not Before: Nov  4 10:40:50 2023 GMT
            Not After : Oct 19 10:40:50 2026 GMT
        Subject: CN=team33-client
        Subject Public Key Info:
            Public Key Algorithm: rsaEncryption
                Public-Key: (2048 bit)
                Modulus:
                    00:b6:3e:63:19:24:eb:2b:84:e6:1a:c7:f0:1f:86:
                    38:2d:2b:e8:a2:21:cb:8d:f8:f6:b9:8b:3f:8f:4d:
                    a8:ae:48:c2:8e:f2:15:26:28:fc:ef:d9:94:47:92:
                    72:ca:15:fe:89:1e:71:0f:77:4f:b5:1b:ee:73:0f:
                    9a:c1:d0:9f:00:5f:2e:a4:e8:82:b3:d8:03:96:90:
                    c7:6b:4e:0c:b8:56:f4:8d:80:fc:b4:1c:91:94:a5:
                    cb:9e:a6:a2:ca:6b:ef:3d:c8:f7:0b:26:c7:c5:e7:
                    86:c1:85:c0:ba:53:9e:f8:39:da:33:f2:95:13:c0:
                    47:8b:f9:71:b8:61:fd:70:6e:eb:0d:64:f0:df:bd:
                    76:ea:d4:b1:29:3a:10:59:0c:0c:05:cc:28:6a:59:
                    41:f3:6e:fa:36:8e:75:0f:32:55:6f:0c:83:1f:86:
                    b3:17:cc:b5:eb:f9:be:23:7b:9e:e0:3b:6a:3f:91:
                    00:98:15:e2:ca:f8:d9:8e:61:b8:58:f9:88:71:ee:
                    75:53:d6:f1:6a:32:60:a4:3d:56:76:50:8a:50:f4:
                    1c:23:1a:b7:ed:7f:87:a5:02:5b:2e:80:b0:2d:4d:
                    3c:03:3b:e8:a7:91:57:8f:da:7f:e3:59:e3:40:c6:
                    73:e9:14:67:5b:6a:f2:ec:99:0d:3a:46:b9:27:22:
                    19:1b
                Exponent: 65537 (0x10001)
        X509v3 extensions:
            X509v3 Basic Constraints: 
                CA:FALSE
            X509v3 Subject Key Identifier: 
                80:5C:18:AD:FC:D7:6D:74:58:49:E7:22:EB:03:98:F1:B2:67:3D:CD
            X509v3 Authority Key Identifier: 
                keyid:CA:48:B8:2A:0D:DE:EB:AC:CE:CD:2D:15:F6:3A:C6:B1:9A:18:EF:F3
                DirName:/CN=team33-net
                serial:07:4C:62:B7:CD:B8:8D:25:53:57:25:71:11:F8:75:18:B9:79:76:D8
            X509v3 Extended Key Usage: 
                TLS Web Client Authentication
            X509v3 Key Usage: 
                Digital Signature
    Signature Algorithm: sha256WithRSAEncryption
    Signature Value:
        93:95:f0:03:b5:dd:6e:06:f2:f7:06:43:7e:d6:64:00:20:a2:
        f1:11:95:f8:7c:d9:5c:17:66:17:b1:33:58:b0:53:4b:9a:91:
        d4:df:81:08:2b:b8:67:a2:7f:05:fc:f0:93:a2:17:29:81:c6:
        b7:af:64:eb:e7:3e:9a:86:8b:10:c3:e8:65:f2:c9:d1:ed:b9:
        12:a6:2f:3c:19:0f:0d:85:a1:a3:61:b4:7f:c9:2c:82:08:fb:
        cc:97:da:3d:9d:0e:cb:1c:bb:97:0d:8f:c6:db:38:6a:65:5e:
        20:8a:87:99:3c:78:70:55:28:27:08:c6:8e:55:b1:d6:5a:f3:
        13:a8:da:23:4d:75:d2:cb:24:b6:e0:a2:72:46:23:06:27:d0:
        a6:95:28:5c:d3:c2:38:45:8b:d9:1f:2f:56:4e:72:0a:50:1a:
        5c:9e:6c:e0:70:4e:66:51:c8:d2:5d:d6:f8:01:d7:8d:df:8d:
        9a:6f:89:b3:98:be:37:d8:24:f3:b3:56:82:b8:e1:bc:e6:a8:
        3e:59:ea:f1:1a:36:be:6d:68:af:85:86:11:3c:a9:1d:24:3b:
        64:87:f2:1c:2d:10:3e:ac:9d:df:0a:59:a2:9c:9b:f8:67:f2:
        91:a8:89:d1:db:9b:39:72:0d:c8:f6:81:06:cf:14:da:85:5c:
        7a:30:7b:39
-----BEGIN CERTIFICATE-----
MIIDWTCCAkGgAwIBAgIQFaz4UASdwQa0wCLeEZyLHTANBgkqhkiG9w0BAQsFADAV
MRMwEQYDVQQDDAp0ZWFtMzMtbmV0MB4XDTIzMTEwNDEwNDA1MFoXDTI2MTAxOTEw
NDA1MFowGDEWMBQGA1UEAwwNdGVhbTMzLWNsaWVudDCCASIwDQYJKoZIhvcNAQEB
BQADggEPADCCAQoCggEBALY+Yxkk6yuE5hrH8B+GOC0r6KIhy4349rmLP49NqK5I
wo7yFSYo/O/ZlEeScsoV/okecQ93T7Ub7nMPmsHQnwBfLqTogrPYA5aQx2tODLhW
9I2A/LQckZSly56mospr7z3I9wsmx8XnhsGFwLpTnvg52jPylRPAR4v5cbhh/XBu
6w1k8N+9durUsSk6EFkMDAXMKGpZQfNu+jaOdQ8yVW8Mgx+GsxfMtev5viN7nuA7
aj+RAJgV4sr42Y5huFj5iHHudVPW8WoyYKQ9VnZQilD0HCMat+1/h6UCWy6AsC1N
PAM76KeRV4/af+NZ40DGc+kUZ1tq8uyZDTpGuSciGRsCAwEAAaOBoTCBnjAJBgNV
HRMEAjAAMB0GA1UdDgQWBBSAXBit/NdtdFhJ5yLrA5jxsmc9zTBQBgNVHSMESTBH
gBTKSLgqDd7rrM7NLRX2Osaxmhjv86EZpBcwFTETMBEGA1UEAwwKdGVhbTMzLW5l
dIIUB0xit824jSVTVyVxEfh1GLl5dtgwEwYDVR0lBAwwCgYIKwYBBQUHAwIwCwYD
VR0PBAQDAgeAMA0GCSqGSIb3DQEBCwUAA4IBAQCTlfADtd1uBvL3BkN+1mQAIKLx
EZX4fNlcF2YXsTNYsFNLmpHU34EIK7hnon8F/PCTohcpgca3r2Tr5z6ahosQw+hl
8snR7bkSpi88GQ8NhaGjYbR/ySyCCPvMl9o9nQ7LHLuXDY/G2zhqZV4gioeZPHhw
VSgnCMaOVbHWWvMTqNojTXXSyyS24KJyRiMGJ9CmlShc08I4RYvZHy9WTnIKUBpc
nmzgcE5mUcjSXdb4AdeN342ab4mzmL432CTzs1aCuOG85qg+WerxGja+bWivhYYR
PKkdJDtkh/IcLRA+rJ3fClminJv4Z/KRqInR25s5cg3I9oEGzxTahVx6MHs5
-----END CERTIFICATE-----
