Certificate:
    Data:
        Version: 3 (0x2)
        Serial Number:
            49:ac:41:9c:eb:e5:2d:93:86:44:76:4d:0a:27:9b:c6
        Signature Algorithm: sha256WithRSAEncryption
        Issuer: CN=team33-net
        Validity
            Not Before: Nov  4 11:27:59 2023 GMT
            Not After : Oct 19 11:27:59 2026 GMT
        Subject: CN=team33-client
        Subject Public Key Info:
            Public Key Algorithm: rsaEncryption
                Public-Key: (2048 bit)
                Modulus:
                    00:8b:60:3a:02:c4:3e:03:08:89:9b:45:d2:b3:c2:
                    02:8a:a2:de:3b:7e:33:6c:24:39:7e:16:e8:c3:0f:
                    d0:49:f0:61:dc:23:cf:bc:8f:7b:a5:3c:6e:c4:85:
                    92:2b:e0:b9:f1:a5:a2:5d:8f:75:09:05:65:77:85:
                    68:98:70:9b:ac:3f:01:8c:18:bd:30:1c:72:a0:93:
                    19:75:e4:b3:05:fa:02:e8:1f:0f:06:83:c2:2a:f8:
                    61:d9:73:80:49:33:73:08:51:41:ec:cc:46:ee:57:
                    e8:42:7d:10:fa:ad:8b:dc:27:43:eb:d6:98:96:e1:
                    d2:b9:98:20:6d:d8:41:d1:78:61:9b:58:c1:db:71:
                    83:74:6c:30:be:82:2b:9b:cd:c7:0c:e1:e3:3c:8d:
                    fc:da:5d:3e:3b:89:3e:fb:b8:50:8e:b9:c1:f3:91:
                    47:bd:3e:5c:79:8a:6b:6d:ac:88:d4:76:e7:8e:79:
                    84:bd:03:fc:da:e5:7b:e3:59:dd:07:a3:64:e2:3f:
                    d9:bc:a7:f8:62:52:a0:f5:54:1b:17:85:33:9b:88:
                    e3:a9:73:ad:e8:fc:eb:89:3a:a2:0a:bb:2f:19:9a:
                    c9:ba:3a:b7:65:3f:63:d0:7c:64:5c:3a:4b:0c:96:
                    4e:5a:86:bd:59:61:04:84:59:a2:13:9e:bf:c9:1f:
                    d3:b7
                Exponent: 65537 (0x10001)
        X509v3 extensions:
            X509v3 Basic Constraints: 
                CA:FALSE
            X509v3 Subject Key Identifier: 
                0E:55:77:1D:DE:24:06:F6:0B:E8:A4:F9:35:0B:00:C6:45:71:F8:96
            X509v3 Authority Key Identifier: 
                keyid:E5:0B:75:9E:0F:12:07:5D:D4:F7:CB:38:62:ED:85:0F:22:A7:5E:91
                DirName:/CN=team33-net
                serial:74:C5:09:5E:0C:AE:85:F7:26:03:39:09:B3:7E:B9:7B:9E:A6:EB:5D
            X509v3 Extended Key Usage: 
                TLS Web Client Authentication
            X509v3 Key Usage: 
                Digital Signature
    Signature Algorithm: sha256WithRSAEncryption
    Signature Value:
        8d:2b:d1:d8:13:70:91:5c:43:21:00:2b:30:65:78:40:ea:df:
        28:bf:c5:23:9e:78:c8:f8:0b:e2:c7:d6:fb:d3:c9:a8:16:07:
        88:a8:65:81:51:92:81:a7:d4:34:ca:56:1a:a4:83:6c:72:25:
        86:73:37:f1:1b:5e:93:1b:de:8a:23:7e:c0:9e:d4:52:56:aa:
        97:c5:7f:e7:2b:07:0e:7f:90:78:b3:42:6d:2c:eb:78:62:15:
        b0:56:02:7d:c7:25:32:55:ed:3a:0b:a5:2c:83:8d:b1:17:fa:
        f1:ac:d5:bb:de:1f:22:86:a4:3c:0a:d6:19:9a:ab:db:69:c1:
        ec:7b:23:2a:50:42:97:fa:1e:85:31:09:ff:d0:6d:2f:fa:d7:
        99:a9:ec:ec:51:b0:6e:96:cd:03:e6:22:17:a2:6b:60:c1:c4:
        1d:bd:e6:8c:88:52:cc:aa:db:7b:9d:fa:91:2f:db:44:7d:7b:
        43:63:f1:ea:a0:10:42:be:50:b2:62:f9:74:3e:04:db:50:3e:
        bf:8b:fb:dd:f1:1b:8c:39:4c:ef:aa:e0:e8:f1:06:9f:3d:c2:
        31:fb:e6:31:6a:e2:7b:f5:3e:74:ab:33:ca:17:b3:fb:33:79:
        a2:51:51:81:68:9e:0e:63:bc:bd:3b:1f:10:ec:25:79:5d:c5:
        d1:9f:2c:44
-----BEGIN CERTIFICATE-----
MIIDWTCCAkGgAwIBAgIQSaxBnOvlLZOGRHZNCiebxjANBgkqhkiG9w0BAQsFADAV
MRMwEQYDVQQDDAp0ZWFtMzMtbmV0MB4XDTIzMTEwNDExMjc1OVoXDTI2MTAxOTEx
Mjc1OVowGDEWMBQGA1UEAwwNdGVhbTMzLWNsaWVudDCCASIwDQYJKoZIhvcNAQEB
BQADggEPADCCAQoCggEBAItgOgLEPgMIiZtF0rPCAoqi3jt+M2wkOX4W6MMP0Enw
Ydwjz7yPe6U8bsSFkivgufGlol2PdQkFZXeFaJhwm6w/AYwYvTAccqCTGXXkswX6
AugfDwaDwir4YdlzgEkzcwhRQezMRu5X6EJ9EPqti9wnQ+vWmJbh0rmYIG3YQdF4
YZtYwdtxg3RsML6CK5vNxwzh4zyN/NpdPjuJPvu4UI65wfORR70+XHmKa22siNR2
5455hL0D/Nrle+NZ3QejZOI/2byn+GJSoPVUGxeFM5uI46lzrej864k6ogq7Lxma
ybo6t2U/Y9B8ZFw6SwyWTlqGvVlhBIRZohOev8kf07cCAwEAAaOBoTCBnjAJBgNV
HRMEAjAAMB0GA1UdDgQWBBQOVXcd3iQG9gvopPk1CwDGRXH4ljBQBgNVHSMESTBH
gBTlC3WeDxIHXdT3yzhi7YUPIqdekaEZpBcwFTETMBEGA1UEAwwKdGVhbTMzLW5l
dIIUdMUJXgyuhfcmAzkJs365e56m610wEwYDVR0lBAwwCgYIKwYBBQUHAwIwCwYD
VR0PBAQDAgeAMA0GCSqGSIb3DQEBCwUAA4IBAQCNK9HYE3CRXEMhACswZXhA6t8o
v8UjnnjI+Avix9b708moFgeIqGWBUZKBp9Q0ylYapINsciWGczfxG16TG96KI37A
ntRSVqqXxX/nKwcOf5B4s0JtLOt4YhWwVgJ9xyUyVe06C6Usg42xF/rxrNW73h8i
hqQ8CtYZmqvbacHseyMqUEKX+h6FMQn/0G0v+teZqezsUbBuls0D5iIXomtgwcQd
veaMiFLMqtt7nfqRL9tEfXtDY/HqoBBCvlCyYvl0PgTbUD6/i/vd8RuMOUzvquDo
8QafPcIx++YxauJ79T50qzPKF7P7M3miUVGBaJ4OY7y9Ox8Q7CV5XcXRnyxE
-----END CERTIFICATE-----
