Certificate:
    Data:
        Version: 3 (0x2)
        Serial Number:
            4b:63:68:00:d2:25:e5:c4:8b:02:8a:b8:5e:52:8f:67
        Signature Algorithm: sha256WithRSAEncryption
        Issuer: CN=team33-net
        Validity
            Not Before: Nov  4 11:28:00 2023 GMT
            Not After : Oct 19 11:28:00 2026 GMT
        Subject: CN=team33-server
        Subject Public Key Info:
            Public Key Algorithm: rsaEncryption
                Public-Key: (2048 bit)
                Modulus:
                    00:f6:51:ac:31:8e:b1:b6:80:50:09:a2:8a:32:2b:
                    4c:38:17:12:97:a4:fd:ea:4d:18:4b:6a:cf:8b:fe:
                    2c:e6:e4:a9:91:eb:01:6b:8e:63:26:da:58:47:de:
                    6a:8b:00:df:22:e5:34:bf:ff:74:eb:8f:d3:aa:29:
                    b5:14:b3:79:ec:e9:d6:0a:a9:27:0e:0b:d3:bb:e0:
                    6a:56:04:26:15:b8:8d:16:c4:fd:09:d4:64:26:25:
                    e4:86:74:41:4b:a2:b4:f9:06:7e:a8:38:e2:bc:bf:
                    c5:88:55:53:50:5c:3f:b1:83:07:52:f8:0b:3a:7c:
                    91:de:7d:c7:16:ef:3b:72:b6:79:67:7f:2d:28:d8:
                    27:d0:a1:6a:b1:8f:c4:13:54:e5:eb:59:7b:90:4e:
                    ba:85:75:85:f0:a9:4b:7c:08:33:c7:c0:05:3f:81:
                    d0:8a:8c:86:be:ec:ac:ed:01:06:a0:21:b5:34:92:
                    c0:c4:43:d6:60:09:f0:c2:36:89:ea:93:2d:8b:3a:
                    65:1d:58:e3:82:2e:5b:d2:d5:cd:a0:90:5f:bc:43:
                    32:ac:f0:36:7e:dc:ed:f5:62:db:5b:70:cd:11:4f:
                    f6:b6:93:8e:01:1c:dd:a3:a0:09:7b:02:b2:2d:f9:
                    38:f0:b8:f9:e4:39:69:7c:79:7e:e5:6a:2e:a7:3b:
                    0b:e7
                Exponent: 65537 (0x10001)
        X509v3 extensions:
            X509v3 Basic Constraints: 
                CA:FALSE
            X509v3 Subject Key Identifier: 
                CD:69:06:0D:6B:44:73:49:82:5A:31:E2:95:E2:B6:4C:AF:AF:78:5B
            X509v3 Authority Key Identifier: 
                keyid:E5:0B:75:9E:0F:12:07:5D:D4:F7:CB:38:62:ED:85:0F:22:A7:5E:91
                DirName:/CN=team33-net
                serial:74:C5:09:5E:0C:AE:85:F7:26:03:39:09:B3:7E:B9:7B:9E:A6:EB:5D
            X509v3 Extended Key Usage: 
                TLS Web Server Authentication
            X509v3 Key Usage: 
                Digital Signature, Key Encipherment
            X509v3 Subject Alternative Name: 
                DNS:team33-server
    Signature Algorithm: sha256WithRSAEncryption
    Signature Value:
        32:cb:e0:98:d5:45:6a:0a:cf:4b:e4:c4:4b:91:2c:2e:24:7f:
        f8:82:14:34:79:38:84:d9:2d:2c:9e:82:02:b0:d5:7b:fc:d5:
        4f:8c:18:4b:15:99:8d:e4:bc:95:70:aa:b3:1b:8d:1f:96:8d:
        6b:37:6f:83:e5:70:39:85:ff:37:45:92:b0:5c:b6:3d:d7:50:
        04:2c:e1:f7:09:96:e8:f2:dd:67:36:22:82:16:88:33:29:c4:
        80:e8:da:45:b5:80:c9:e5:02:6f:27:1e:91:78:03:d8:0f:e3:
        76:16:0d:68:78:01:84:93:db:96:f5:a6:6f:dd:97:45:90:fa:
        96:7e:fd:17:2d:8f:5d:a9:98:ef:76:89:e0:ee:d8:83:8c:20:
        79:12:2c:15:41:4f:05:bf:11:33:31:1e:8c:31:7d:08:da:ef:
        54:6b:ae:98:ca:b1:ef:85:44:3f:6e:59:bc:a3:99:e6:73:0f:
        62:20:22:28:1b:59:37:f4:90:05:eb:ee:3d:20:c1:70:d9:97:
        50:3b:53:93:86:10:ac:38:0b:44:43:e0:84:fa:18:97:ff:8c:
        3b:c3:97:7a:e9:06:16:7a:a5:c0:73:4c:77:d0:23:cb:86:74:
        7a:d5:56:d1:e6:dd:01:42:0e:59:e6:b2:71:7d:c9:e6:5c:5f:
        f1:c0:22:fe
-----BEGIN CERTIFICATE-----
MIIDczCCAlugAwIBAgIQS2NoANIl5cSLAoq4XlKPZzANBgkqhkiG9w0BAQsFADAV
MRMwEQYDVQQDDAp0ZWFtMzMtbmV0MB4XDTIzMTEwNDExMjgwMFoXDTI2MTAxOTEx
MjgwMFowGDEWMBQGA1UEAwwNdGVhbTMzLXNlcnZlcjCCASIwDQYJKoZIhvcNAQEB
BQADggEPADCCAQoCggEBAPZRrDGOsbaAUAmiijIrTDgXEpek/epNGEtqz4v+LObk
qZHrAWuOYybaWEfeaosA3yLlNL//dOuP06optRSzeezp1gqpJw4L07vgalYEJhW4
jRbE/QnUZCYl5IZ0QUuitPkGfqg44ry/xYhVU1BcP7GDB1L4Czp8kd59xxbvO3K2
eWd/LSjYJ9CharGPxBNU5etZe5BOuoV1hfCpS3wIM8fABT+B0IqMhr7srO0BBqAh
tTSSwMRD1mAJ8MI2ieqTLYs6ZR1Y44IuW9LVzaCQX7xDMqzwNn7c7fVi21twzRFP
9raTjgEc3aOgCXsCsi35OPC4+eQ5aXx5fuVqLqc7C+cCAwEAAaOBuzCBuDAJBgNV
HRMEAjAAMB0GA1UdDgQWBBTNaQYNa0RzSYJaMeKV4rZMr694WzBQBgNVHSMESTBH
gBTlC3WeDxIHXdT3yzhi7YUPIqdekaEZpBcwFTETMBEGA1UEAwwKdGVhbTMzLW5l
dIIUdMUJXgyuhfcmAzkJs365e56m610wEwYDVR0lBAwwCgYIKwYBBQUHAwEwCwYD
VR0PBAQDAgWgMBgGA1UdEQQRMA+CDXRlYW0zMy1zZXJ2ZXIwDQYJKoZIhvcNAQEL
BQADggEBADLL4JjVRWoKz0vkxEuRLC4kf/iCFDR5OITZLSyeggKw1Xv81U+MGEsV
mY3kvJVwqrMbjR+WjWs3b4PlcDmF/zdFkrBctj3XUAQs4fcJlujy3Wc2IoIWiDMp
xIDo2kW1gMnlAm8nHpF4A9gP43YWDWh4AYST25b1pm/dl0WQ+pZ+/Rctj12pmO92
ieDu2IOMIHkSLBVBTwW/ETMxHowxfQja71RrrpjKse+FRD9uWbyjmeZzD2IgIigb
WTf0kAXr7j0gwXDZl1A7U5OGEKw4C0RD4IT6GJf/jDvDl3rpBhZ6pcBzTHfQI8uG
dHrVVtHm3QFCDlnmsnF9yeZcX/HAIv4=
-----END CERTIFICATE-----
