Certificate:
    Data:
        Version: 3 (0x2)
        Serial Number:
            40:98:36:7e:d4:99:16:2d:5e:a0:54:72:d3:3a:e1:9b
        Signature Algorithm: sha256WithRSAEncryption
        Issuer: CN=team372-net
        Validity
            Not Before: Nov  4 11:35:48 2023 GMT
            Not After : Oct 19 11:35:48 2026 GMT
        Subject: CN=team372-server
        Subject Public Key Info:
            Public Key Algorithm: rsaEncryption
                Public-Key: (2048 bit)
                Modulus:
                    00:a8:a3:95:78:0d:05:b9:06:1b:04:23:44:dc:f7:
                    6e:e7:ed:1e:91:37:df:d8:28:f1:8a:0b:74:df:e1:
                    cc:80:d8:f5:11:b2:8a:b3:52:a8:d5:e8:c5:96:2a:
                    0e:3c:f7:fd:f6:d5:f4:a5:6e:66:ef:13:15:58:67:
                    a4:d9:a7:cf:a1:58:17:97:c4:80:d3:87:de:67:2a:
                    f1:71:92:f0:c5:3f:5d:32:1c:98:d8:01:9e:5d:39:
                    c4:cf:b5:26:a5:55:51:53:ab:a6:cb:51:95:9b:02:
                    29:2d:0f:fe:4c:32:51:ad:1e:a8:54:9f:84:8e:82:
                    fc:2c:e4:e2:ac:9d:4e:ab:ec:a5:41:4a:76:68:39:
                    68:80:7f:a1:5b:d6:6a:92:b0:00:0e:5e:01:a6:88:
                    0a:7f:99:d2:7e:c2:38:e6:14:fc:44:fe:79:4c:88:
                    59:bb:e7:79:30:c9:c6:89:b0:7a:6a:37:cf:c5:96:
                    f0:c2:52:07:6b:a9:e3:7c:13:16:a1:9b:a0:92:db:
                    0b:99:dd:00:3f:f5:dd:3d:50:d5:ba:5a:2c:e5:ab:
                    e9:20:88:c2:6e:bc:5f:a7:08:4d:37:cd:bd:2a:da:
                    1d:c8:39:5d:b7:6b:32:71:79:3e:c0:a8:d0:60:0b:
                    de:f5:7b:97:ae:02:44:86:91:4b:9d:3f:5e:af:de:
                    a8:ed
                Exponent: 65537 (0x10001)
        X509v3 extensions:
            X509v3 Basic Constraints: 
                CA:FALSE
            X509v3 Subject Key Identifier: 
                DB:6E:9C:52:15:05:AB:19:B0:90:78:04:13:27:03:BB:C3:66:FB:00
            X509v3 Authority Key Identifier: 
                keyid:60:4D:2C:7F:7C:FE:B2:3C:3D:97:3A:2C:01:75:AC:9B:7D:CC:F2:FF
                DirName:/CN=team372-net
                serial:51:08:57:7E:8B:3F:17:74:B5:3D:26:D4:79:B6:07:D2:12:6B:2F:21
            X509v3 Extended Key Usage: 
                TLS Web Server Authentication
            X509v3 Key Usage: 
                Digital Signature, Key Encipherment
            X509v3 Subject Alternative Name: 
                DNS:team372-server
    Signature Algorithm: sha256WithRSAEncryption
    Signature Value:
        02:b1:b4:d6:0a:7b:15:10:a7:46:69:82:86:41:b0:37:8e:40:
        0e:07:96:de:3e:23:a6:d1:bb:f3:14:6e:1d:d4:d2:62:bc:a7:
        ac:6f:2f:93:5c:54:4f:52:8e:43:6d:3e:94:10:36:d9:04:b9:
        4b:33:03:a0:26:fb:e2:a2:8a:8b:ec:37:90:e6:c0:8b:4c:3b:
        a5:fb:4a:b4:f7:d8:4c:af:4f:78:e0:13:d8:61:3e:a7:75:b0:
        ad:3e:50:a0:8a:0d:ba:20:c0:9b:48:10:6c:85:04:28:72:bb:
        35:de:50:7d:3c:62:2e:b0:72:b1:f7:23:9b:43:46:ae:53:13:
        0b:60:57:e1:18:56:9e:8b:e0:5d:ab:bc:54:f0:33:31:29:fe:
        d0:c3:88:73:4f:c3:e8:0b:b5:b8:82:89:ff:3e:8d:31:33:a7:
        fd:69:eb:a1:a9:cd:be:eb:af:41:a7:f0:2b:8d:05:30:64:c5:
        c9:47:8e:ed:69:c2:3e:72:c2:87:7a:12:e7:e4:28:d0:ed:fa:
        a1:93:c6:e4:45:25:7e:af:be:3b:01:04:78:45:08:98:43:cb:
        ec:32:d0:12:01:56:a4:03:f1:03:f2:a1:69:05:f8:2d:16:ea:
        bf:d6:06:4b:ee:c0:fc:0f:7f:b0:62:22:62:f8:22:3d:77:cc:
        89:c7:94:07
-----BEGIN CERTIFICATE-----
MIIDdzCCAl+gAwIBAgIQQJg2ftSZFi1eoFRy0zrhmzANBgkqhkiG9w0BAQsFADAW
MRQwEgYDVQQDDAt0ZWFtMzcyLW5ldDAeFw0yMzExMDQxMTM1NDhaFw0yNjEwMTkx
MTM1NDhaMBkxFzAVBgNVBAMMDnRlYW0zNzItc2VydmVyMIIBIjANBgkqhkiG9w0B
AQEFAAOCAQ8AMIIBCgKCAQEAqKOVeA0FuQYbBCNE3Pdu5+0ekTff2Cjxigt03+HM
gNj1EbKKs1Ko1ejFlioOPPf99tX0pW5m7xMVWGek2afPoVgXl8SA04feZyrxcZLw
xT9dMhyY2AGeXTnEz7UmpVVRU6umy1GVmwIpLQ/+TDJRrR6oVJ+EjoL8LOTirJ1O
q+ylQUp2aDlogH+hW9ZqkrAADl4BpogKf5nSfsI45hT8RP55TIhZu+d5MMnGibB6
ajfPxZbwwlIHa6njfBMWoZugktsLmd0AP/XdPVDVulos5avpIIjCbrxfpwhNN829
KtodyDldt2sycXk+wKjQYAve9XuXrgJEhpFLnT9er96o7QIDAQABo4G9MIG6MAkG
A1UdEwQCMAAwHQYDVR0OBBYEFNtunFIVBasZsJB4BBMnA7vDZvsAMFEGA1UdIwRK
MEiAFGBNLH98/rI8PZc6LAF1rJt9zPL/oRqkGDAWMRQwEgYDVQQDDAt0ZWFtMzcy
LW5ldIIUUQhXfos/F3S1PSbUebYH0hJrLyEwEwYDVR0lBAwwCgYIKwYBBQUHAwEw
CwYDVR0PBAQDAgWgMBkGA1UdEQQSMBCCDnRlYW0zNzItc2VydmVyMA0GCSqGSIb3
DQEBCwUAA4IBAQACsbTWCnsVEKdGaYKGQbA3jkAOB5bePiOm0bvzFG4d1NJivKes
by+TXFRPUo5DbT6UEDbZBLlLMwOgJvviooqL7DeQ5sCLTDul+0q099hMr0944BPY
YT6ndbCtPlCgig26IMCbSBBshQQocrs13lB9PGIusHKx9yObQ0auUxMLYFfhGFae
i+Bdq7xU8DMxKf7Qw4hzT8PoC7W4gon/Po0xM6f9aeuhqc2+669Bp/ArjQUwZMXJ
R47tacI+csKHehLn5CjQ7fqhk8bkRSV+r747AQR4RQiYQ8vsMtASAVakA/ED8qFp
BfgtFuq/1gZL7sD8D3+wYiJi+CI9d8yJx5QH
-----END CERTIFICATE-----
