Certificate:
    Data:
        Version: 3 (0x2)
        Serial Number:
            56:e5:b4:7f:9e:bc:6c:53:cc:fe:4c:5a:d9:0b:ee:b8
        Signature Algorithm: sha256WithRSAEncryption
        Issuer: CN=team372-net
        Validity
            Not Before: Nov  4 10:47:23 2023 GMT
            Not After : Oct 19 10:47:23 2026 GMT
        Subject: CN=team372-server
        Subject Public Key Info:
            Public Key Algorithm: rsaEncryption
                Public-Key: (2048 bit)
                Modulus:
                    00:90:c9:b1:9e:eb:7c:e7:45:fa:12:92:ca:35:40:
                    de:0c:dc:ff:9f:8d:c1:47:86:75:f4:e6:10:9c:38:
                    08:43:9f:15:ee:a3:9c:e2:70:10:4c:5e:b1:d8:8b:
                    97:1a:71:8a:4f:34:dc:78:39:e8:61:57:74:07:33:
                    02:37:b3:68:14:20:25:e2:e3:8a:70:85:87:7c:a3:
                    19:81:61:36:b2:77:7d:7f:3d:85:b0:c8:72:52:48:
                    21:25:bc:d9:d9:10:22:00:c3:62:da:a4:6e:47:d2:
                    ae:19:12:10:61:a9:a9:99:69:b5:11:34:14:b7:ff:
                    d7:34:ff:64:45:0b:d2:f5:98:93:f5:e0:03:97:78:
                    44:72:ac:b1:9e:06:b4:c5:ba:87:df:9c:dc:4f:27:
                    b8:08:16:23:fa:b6:8f:d6:6b:bc:8f:ae:41:c2:e1:
                    58:c0:0a:85:9b:d9:3d:2b:12:d1:5d:6f:70:44:c8:
                    91:cc:cd:78:75:da:5e:da:4c:ae:e4:59:46:05:c5:
                    eb:0c:9c:8c:a2:36:22:9e:4e:be:fc:d4:62:3f:ad:
                    6b:58:58:2c:a2:d3:5d:fa:92:45:db:08:90:f5:6a:
                    36:3c:ed:a6:23:24:79:13:bd:9d:7d:97:46:76:ce:
                    50:39:ef:c5:cd:fb:2e:25:0d:dd:98:de:82:75:63:
                    82:47
                Exponent: 65537 (0x10001)
        X509v3 extensions:
            X509v3 Basic Constraints: 
                CA:FALSE
            X509v3 Subject Key Identifier: 
                7B:95:B8:A9:DD:06:74:A6:45:EF:80:C0:3D:2D:44:38:12:21:02:E2
            X509v3 Authority Key Identifier: 
                keyid:8B:00:BD:8F:F8:0F:49:94:2A:8F:3B:39:F8:9A:EC:F6:6C:D7:6D:04
                DirName:/CN=team372-net
                serial:7E:D9:41:8E:4A:10:EC:79:16:C0:37:50:4F:27:F1:3D:CF:84:46:4C
            X509v3 Extended Key Usage: 
                TLS Web Server Authentication
            X509v3 Key Usage: 
                Digital Signature, Key Encipherment
            X509v3 Subject Alternative Name: 
                DNS:team372-server
    Signature Algorithm: sha256WithRSAEncryption
    Signature Value:
        1a:45:89:aa:da:35:b5:e0:41:11:d7:bf:d4:f8:7a:13:2a:b7:
        5f:f3:fe:7f:ea:0d:e9:a1:a0:80:46:61:a2:cf:cb:97:bc:06:
        d2:06:df:c7:af:4b:2e:32:2b:e4:b5:12:47:6d:bf:76:e8:a4:
        89:9e:8f:9d:ad:3d:ce:99:e1:c9:8f:1c:66:23:e3:33:19:64:
        a8:b7:b5:8c:fd:fa:2b:bb:dd:ed:74:cf:f7:1f:53:aa:f3:69:
        7a:8e:5d:05:27:8d:46:98:c3:89:0c:61:a7:1c:5b:fd:4c:7a:
        06:0a:a6:84:d1:fc:bd:df:87:51:68:5b:bc:6a:af:68:a9:15:
        a7:8a:8a:59:13:0d:99:08:e7:61:be:65:b8:f7:1f:99:91:fa:
        23:f9:3b:c7:eb:30:5a:e1:c3:41:20:5f:ff:1d:4f:ca:c2:26:
        c5:b0:56:79:cc:69:39:6d:ed:66:3d:a0:54:b0:44:f4:d2:df:
        f3:76:52:23:d1:bf:16:ca:7f:91:03:a4:c4:4a:ec:7f:e8:cb:
        97:58:87:3f:0d:20:50:c9:3a:37:bb:c3:cc:cf:08:f0:76:19:
        17:98:fe:b2:95:c0:e7:ca:88:64:e2:e4:48:90:b5:cd:02:90:
        7d:d4:52:48:d0:10:44:cb:74:98:c8:89:3e:44:de:88:fe:e7:
        94:af:cf:54
-----BEGIN CERTIFICATE-----
MIIDdzCCAl+gAwIBAgIQVuW0f568bFPM/kxa2QvuuDANBgkqhkiG9w0BAQsFADAW
MRQwEgYDVQQDDAt0ZWFtMzcyLW5ldDAeFw0yMzExMDQxMDQ3MjNaFw0yNjEwMTkx
MDQ3MjNaMBkxFzAVBgNVBAMMDnRlYW0zNzItc2VydmVyMIIBIjANBgkqhkiG9w0B
AQEFAAOCAQ8AMIIBCgKCAQEAkMmxnut850X6EpLKNUDeDNz/n43BR4Z19OYQnDgI
Q58V7qOc4nAQTF6x2IuXGnGKTzTceDnoYVd0BzMCN7NoFCAl4uOKcIWHfKMZgWE2
snd9fz2FsMhyUkghJbzZ2RAiAMNi2qRuR9KuGRIQYampmWm1ETQUt//XNP9kRQvS
9ZiT9eADl3hEcqyxnga0xbqH35zcTye4CBYj+raP1mu8j65BwuFYwAqFm9k9KxLR
XW9wRMiRzM14ddpe2kyu5FlGBcXrDJyMojYink6+/NRiP61rWFgsotNd+pJF2wiQ
9Wo2PO2mIyR5E72dfZdGds5QOe/FzfsuJQ3dmN6CdWOCRwIDAQABo4G9MIG6MAkG
A1UdEwQCMAAwHQYDVR0OBBYEFHuVuKndBnSmRe+AwD0tRDgSIQLiMFEGA1UdIwRK
MEiAFIsAvY/4D0mUKo87Ofia7PZs120EoRqkGDAWMRQwEgYDVQQDDAt0ZWFtMzcy
LW5ldIIUftlBjkoQ7HkWwDdQTyfxPc+ERkwwEwYDVR0lBAwwCgYIKwYBBQUHAwEw
CwYDVR0PBAQDAgWgMBkGA1UdEQQSMBCCDnRlYW0zNzItc2VydmVyMA0GCSqGSIb3
DQEBCwUAA4IBAQAaRYmq2jW14EER17/U+HoTKrdf8/5/6g3poaCARmGiz8uXvAbS
Bt/Hr0suMivktRJHbb926KSJno+drT3OmeHJjxxmI+MzGWSot7WM/foru93tdM/3
H1Oq82l6jl0FJ41GmMOJDGGnHFv9THoGCqaE0fy934dRaFu8aq9oqRWniopZEw2Z
COdhvmW49x+Zkfoj+TvH6zBa4cNBIF//HU/KwibFsFZ5zGk5be1mPaBUsET00t/z
dlIj0b8Wyn+RA6TESux/6MuXWIc/DSBQyTo3u8PMzwjwdhkXmP6ylcDnyohk4uRI
kLXNApB91FJI0BBEy3SYyIk+RN6I/ueUr89U
-----END CERTIFICATE-----
