Certificate:
    Data:
        Version: 3 (0x2)
        Serial Number:
            e1:20:aa:d8:48:ae:06:a3:8d:fb:a5:89:81:98:dd:64
        Signature Algorithm: sha256WithRSAEncryption
        Issuer: CN=team372-net
        Validity
            Not Before: Nov  4 10:47:23 2023 GMT
            Not After : Oct 19 10:47:23 2026 GMT
        Subject: CN=team372-client
        Subject Public Key Info:
            Public Key Algorithm: rsaEncryption
                Public-Key: (2048 bit)
                Modulus:
                    00:ac:d5:78:f6:1f:cb:6d:77:92:e1:37:32:e5:c6:
                    7e:80:e0:96:37:5d:62:31:2c:8d:e7:8b:cf:aa:0f:
                    2a:59:d3:31:11:0f:e3:2f:64:90:c3:46:32:be:fe:
                    4e:92:63:00:ca:fb:c6:b9:81:11:c9:8c:a5:ac:94:
                    a3:5a:da:c0:38:00:e9:2d:01:69:cc:80:14:3d:7a:
                    f6:f4:46:5d:1c:a8:95:62:0d:6e:b7:20:00:3e:90:
                    40:68:54:1a:a9:08:f1:1e:28:46:7e:ea:9b:f8:1e:
                    72:7f:7a:98:8e:65:51:3e:5c:df:93:f9:06:70:31:
                    df:6d:62:02:49:6a:9c:88:b0:34:c3:b0:74:ee:16:
                    39:ac:72:93:9a:3d:0b:fd:4f:d3:8e:dc:5e:a2:ea:
                    e4:0b:c0:fb:a9:ea:37:12:12:4c:00:ad:1c:0a:3e:
                    a4:6e:d3:54:52:f4:fb:21:68:2a:b0:4c:cf:59:20:
                    bd:c3:23:3a:4a:a6:5e:42:5a:b2:4f:c5:ea:9d:f5:
                    f4:db:24:02:40:d0:f4:cd:46:f9:99:e8:c0:db:ea:
                    e6:96:ee:27:c0:81:c7:01:08:03:4b:86:6e:84:27:
                    01:c7:3e:83:2f:8e:48:c8:7a:3b:6a:36:79:2d:41:
                    39:93:0a:fc:ca:97:87:29:ca:82:1c:55:63:58:0a:
                    93:c5
                Exponent: 65537 (0x10001)
        X509v3 extensions:
            X509v3 Basic Constraints: 
                CA:FALSE
            X509v3 Subject Key Identifier: 
                EB:23:FE:BB:BC:93:21:58:61:D4:2B:82:11:E1:DE:D9:25:2C:DD:F1
            X509v3 Authority Key Identifier: 
                keyid:8B:00:BD:8F:F8:0F:49:94:2A:8F:3B:39:F8:9A:EC:F6:6C:D7:6D:04
                DirName:/CN=team372-net
                serial:7E:D9:41:8E:4A:10:EC:79:16:C0:37:50:4F:27:F1:3D:CF:84:46:4C
            X509v3 Extended Key Usage: 
                TLS Web Client Authentication
            X509v3 Key Usage: 
                Digital Signature
    Signature Algorithm: sha256WithRSAEncryption
    Signature Value:
        55:60:6e:33:99:b4:bd:c0:bc:21:67:58:7d:24:71:c0:01:64:
        6f:ac:c4:b4:9e:d2:cc:89:39:f3:4b:34:22:74:17:42:96:d2:
        5e:3f:8a:d9:7c:f5:3a:51:3d:61:94:d0:db:1b:3c:db:61:46:
        bc:d9:a3:c1:ef:7c:ff:fb:db:a2:5b:e1:a1:ab:a9:46:50:0b:
        83:87:1d:47:e3:7c:db:1e:fd:ae:4f:f4:78:db:bf:6f:81:3a:
        35:2e:ce:78:76:80:03:64:cb:d3:c6:c8:fd:5b:d9:53:df:69:
        81:a7:f9:74:78:c8:c8:75:b7:2d:ce:e2:67:47:79:a5:13:67:
        cf:15:52:03:22:ce:88:ba:51:a8:2c:14:83:cb:b8:fb:0c:86:
        6a:ab:e9:2b:29:d7:0d:b0:a1:81:73:a7:b5:b8:b4:3a:67:64:
        fb:ce:13:3d:15:e9:60:24:40:eb:2b:be:9a:85:4a:b5:b5:5f:
        6a:a4:ba:7f:61:73:78:fd:53:40:d1:93:68:ac:aa:ca:31:c1:
        88:2c:7b:98:4c:ff:cb:7e:c8:11:6c:e9:4b:16:ea:69:6e:4a:
        38:ec:4a:ec:77:02:30:db:99:a2:b4:19:fc:d0:ad:02:fa:23:
        c5:73:9f:5f:5f:b0:88:a4:11:64:1e:13:d4:b7:c7:c8:b1:96:
        80:6d:10:55
-----BEGIN CERTIFICATE-----
MIIDXTCCAkWgAwIBAgIRAOEgqthIrgajjfuliYGY3WQwDQYJKoZIhvcNAQELBQAw
FjEUMBIGA1UEAwwLdGVhbTM3Mi1uZXQwHhcNMjMxMTA0MTA0NzIzWhcNMjYxMDE5
MTA0NzIzWjAZMRcwFQYDVQQDDA50ZWFtMzcyLWNsaWVudDCCASIwDQYJKoZIhvcN
AQEBBQADggEPADCCAQoCggEBAKzVePYfy213kuE3MuXGfoDgljddYjEsjeeLz6oP
KlnTMREP4y9kkMNGMr7+TpJjAMr7xrmBEcmMpayUo1rawDgA6S0BacyAFD169vRG
XRyolWINbrcgAD6QQGhUGqkI8R4oRn7qm/gecn96mI5lUT5c35P5BnAx321iAklq
nIiwNMOwdO4WOaxyk5o9C/1P047cXqLq5AvA+6nqNxISTACtHAo+pG7TVFL0+yFo
KrBMz1kgvcMjOkqmXkJask/F6p319NskAkDQ9M1G+ZnowNvq5pbuJ8CBxwEIA0uG
boQnAcc+gy+OSMh6O2o2eS1BOZMK/MqXhynKghxVY1gKk8UCAwEAAaOBojCBnzAJ
BgNVHRMEAjAAMB0GA1UdDgQWBBTrI/67vJMhWGHUK4IR4d7ZJSzd8TBRBgNVHSME
SjBIgBSLAL2P+A9JlCqPOzn4muz2bNdtBKEapBgwFjEUMBIGA1UEAwwLdGVhbTM3
Mi1uZXSCFH7ZQY5KEOx5FsA3UE8n8T3PhEZMMBMGA1UdJQQMMAoGCCsGAQUFBwMC
MAsGA1UdDwQEAwIHgDANBgkqhkiG9w0BAQsFAAOCAQEAVWBuM5m0vcC8IWdYfSRx
wAFkb6zEtJ7SzIk580s0InQXQpbSXj+K2Xz1OlE9YZTQ2xs822FGvNmjwe98//vb
olvhoaupRlALg4cdR+N82x79rk/0eNu/b4E6NS7OeHaAA2TL08bI/VvZU99pgaf5
dHjIyHW3Lc7iZ0d5pRNnzxVSAyLOiLpRqCwUg8u4+wyGaqvpKynXDbChgXOntbi0
Omdk+84TPRXpYCRA6yu+moVKtbVfaqS6f2FzeP1TQNGTaKyqyjHBiCx7mEz/y37I
EWzpSxbqaW5KOOxK7HcCMNuZorQZ/NCtAvojxXOfX1+wiKQRZB4T1LfHyLGWgG0Q
VQ==
-----END CERTIFICATE-----
