Certificate:
    Data:
        Version: 3 (0x2)
        Serial Number:
            72:d0:6c:24:39:bd:9e:e7:f0:1d:cf:5f:82:7e:e4
        Signature Algorithm: sha256WithRSAEncryption
        Issuer: CN=team170-net
        Validity
            Not Before: Nov  4 11:30:59 2023 GMT
            Not After : Oct 19 11:30:59 2026 GMT
        Subject: CN=team170-client
        Subject Public Key Info:
            Public Key Algorithm: rsaEncryption
                Public-Key: (2048 bit)
                Modulus:
                    00:9d:70:66:8d:2a:20:71:8b:88:86:5b:2a:f9:0e:
                    ad:b2:22:0c:44:b3:17:d2:3e:66:9c:47:79:3d:25:
                    16:ac:7e:a1:46:b1:d5:72:fc:3c:c2:20:11:a4:cf:
                    1f:c3:f3:23:31:da:d8:0d:45:25:10:46:bd:ee:e1:
                    84:33:2d:3a:c6:b0:e1:31:22:77:d0:0e:e7:c3:bd:
                    2c:f8:f7:d8:d4:e5:31:fd:8b:a6:34:9d:82:35:81:
                    6e:ef:f8:3d:61:89:3e:8a:0d:ad:7a:f7:ba:0a:a7:
                    c9:e1:4a:72:b2:83:66:66:33:2f:9e:66:08:24:6f:
                    20:e5:3c:49:54:f1:af:47:e2:ce:0c:2b:48:96:a6:
                    57:c0:12:8c:76:0f:14:b4:32:5d:30:2d:19:79:01:
                    b4:f4:9c:47:ea:15:21:3a:a9:15:c4:01:2d:e6:14:
                    12:7a:91:cf:d8:3d:cd:e6:8f:16:74:4d:b2:cc:f6:
                    30:9e:d8:35:df:58:bd:3c:50:51:4e:8d:26:64:7b:
                    ba:52:d1:20:d7:75:f3:9c:10:b9:a7:77:16:74:58:
                    2c:82:71:da:77:8e:10:55:ff:a9:e9:72:f8:e1:0c:
                    91:13:a9:b9:1f:b4:f2:62:3f:0d:bc:3f:33:37:e0:
                    65:e7:ce:40:a8:7f:ce:d2:db:39:a9:74:0e:fe:51:
                    da:1b
                Exponent: 65537 (0x10001)
        X509v3 extensions:
            X509v3 Basic Constraints: 
                CA:FALSE
            X509v3 Subject Key Identifier: 
                B3:9E:28:D8:1D:F3:92:DD:82:7F:3D:BA:25:47:E7:70:1E:37:74:29
            X509v3 Authority Key Identifier: 
                keyid:3A:CF:FD:82:8D:2C:72:E6:71:75:D2:7C:D1:F0:AD:14:C7:CD:1C:47
                DirName:/CN=team170-net
                serial:5E:89:66:B0:8D:17:EA:FF:7B:FA:8F:C9:02:65:B8:9C:AE:06:D8:AD
            X509v3 Extended Key Usage: 
                TLS Web Client Authentication
            X509v3 Key Usage: 
                Digital Signature
    Signature Algorithm: sha256WithRSAEncryption
    Signature Value:
        0f:6b:54:b8:2c:53:ad:98:c8:8c:c1:fc:a1:d7:95:d0:49:ee:
        67:b3:bd:f3:84:e4:e0:ed:85:10:77:e5:98:1b:70:5b:d8:e2:
        37:87:89:d2:e0:16:ec:da:0b:79:fb:77:8e:c9:34:c2:28:50:
        3a:bd:cd:0b:16:70:cb:1f:df:21:3d:d4:84:f4:3b:2e:2b:b4:
        dc:35:ad:bd:79:10:7c:9b:38:b6:e0:63:a9:38:c1:82:db:a3:
        86:1a:d5:e8:b1:ab:7f:a5:fe:fc:50:ef:2c:bf:b4:f0:15:27:
        6d:2a:a8:21:5e:78:9a:ca:4c:d2:d6:9c:92:bd:1e:49:53:01:
        b3:51:c6:c4:26:3a:b8:7e:62:45:dd:6e:e8:04:c2:f2:96:30:
        ea:13:fd:3f:ae:63:71:7e:01:61:08:49:6f:13:90:0c:1c:12:
        ea:51:fe:8b:0b:ec:ba:81:b8:04:bf:42:30:e3:56:db:83:85:
        51:06:de:95:c7:c5:16:d7:c5:c9:48:c1:1f:43:ae:d8:a4:e3:
        3b:26:75:b5:72:32:27:61:e5:e1:17:f2:ee:35:c3:b6:a3:9b:
        99:1c:43:f7:e0:35:d2:5e:2e:d2:ca:d3:25:c0:45:d7:53:ef:
        da:5b:cc:5b:ac:a2:50:f4:49:c9:69:4d:f5:9a:7e:aa:76:6e:
        f0:b9:e7:e7
-----BEGIN CERTIFICATE-----
MIIDWzCCAkOgAwIBAgIPctBsJDm9nufwHc9fgn7kMA0GCSqGSIb3DQEBCwUAMBYx
FDASBgNVBAMMC3RlYW0xNzAtbmV0MB4XDTIzMTEwNDExMzA1OVoXDTI2MTAxOTEx
MzA1OVowGTEXMBUGA1UEAwwOdGVhbTE3MC1jbGllbnQwggEiMA0GCSqGSIb3DQEB
AQUAA4IBDwAwggEKAoIBAQCdcGaNKiBxi4iGWyr5Dq2yIgxEsxfSPmacR3k9JRas
fqFGsdVy/DzCIBGkzx/D8yMx2tgNRSUQRr3u4YQzLTrGsOExInfQDufDvSz499jU
5TH9i6Y0nYI1gW7v+D1hiT6KDa1697oKp8nhSnKyg2ZmMy+eZggkbyDlPElU8a9H
4s4MK0iWplfAEox2DxS0Ml0wLRl5AbT0nEfqFSE6qRXEAS3mFBJ6kc/YPc3mjxZ0
TbLM9jCe2DXfWL08UFFOjSZke7pS0SDXdfOcELmndxZ0WCyCcdp3jhBV/6npcvjh
DJETqbkftPJiPw28PzM34GXnzkCof87S2zmpdA7+UdobAgMBAAGjgaIwgZ8wCQYD
VR0TBAIwADAdBgNVHQ4EFgQUs54o2B3zkt2Cfz26JUfncB43dCkwUQYDVR0jBEow
SIAUOs/9go0scuZxddJ80fCtFMfNHEehGqQYMBYxFDASBgNVBAMMC3RlYW0xNzAt
bmV0ghReiWawjRfq/3v6j8kCZbicrgbYrTATBgNVHSUEDDAKBggrBgEFBQcDAjAL
BgNVHQ8EBAMCB4AwDQYJKoZIhvcNAQELBQADggEBAA9rVLgsU62YyIzB/KHXldBJ
7mezvfOE5ODthRB35ZgbcFvY4jeHidLgFuzaC3n7d47JNMIoUDq9zQsWcMsf3yE9
1IT0Oy4rtNw1rb15EHybOLbgY6k4wYLbo4Ya1eixq3+l/vxQ7yy/tPAVJ20qqCFe
eJrKTNLWnJK9HklTAbNRxsQmOrh+YkXdbugEwvKWMOoT/T+uY3F+AWEISW8TkAwc
EupR/osL7LqBuAS/QjDjVtuDhVEG3pXHxRbXxclIwR9Drtik4zsmdbVyMidh5eEX
8u41w7ajm5kcQ/fgNdJeLtLK0yXARddT79pbzFusolD0SclpTfWafqp2bvC55+c=
-----END CERTIFICATE-----
