Certificate:
    Data:
        Version: 3 (0x2)
        Serial Number:
            f7:0e:3a:68:86:bc:3c:41:54:40:4b:e5:8b:3a:53:0d
        Signature Algorithm: sha256WithRSAEncryption
        Issuer: CN=team170-net
        Validity
            Not Before: Nov  4 10:43:42 2023 GMT
            Not After : Oct 19 10:43:42 2026 GMT
        Subject: CN=team170-server
        Subject Public Key Info:
            Public Key Algorithm: rsaEncryption
                Public-Key: (2048 bit)
                Modulus:
                    00:a9:e1:1e:b6:f2:4a:ca:ed:66:e2:7a:01:9e:d5:
                    25:03:a8:2d:20:6c:ee:b6:e7:39:1f:d8:6b:ce:fc:
                    47:d8:1f:ba:70:e7:56:48:0f:e7:85:04:2d:31:6f:
                    b0:61:ef:f7:ce:6c:6b:f2:05:42:9f:46:4b:5d:45:
                    0d:e3:1d:13:c4:c2:1e:aa:7f:a9:a8:16:20:49:7d:
                    be:0b:d6:24:8a:73:92:46:5f:29:18:b4:2f:bd:4e:
                    54:a7:3b:35:12:db:89:d3:1a:4d:c8:cb:35:cf:b7:
                    45:2c:48:82:13:fd:eb:47:ff:58:ac:2f:53:40:f4:
                    f4:6d:86:fc:9f:35:d0:68:8b:a8:17:d0:9f:34:24:
                    61:e6:e7:0c:4c:4b:6c:76:aa:ab:ef:16:7c:5c:06:
                    bc:9d:b2:4a:cf:d0:f2:62:34:e0:99:2b:3a:92:50:
                    45:b7:a5:7d:ad:72:00:0a:dd:8e:87:eb:bf:8c:d6:
                    ae:3f:af:01:f0:bf:f0:35:7d:ee:cf:8c:85:0e:cd:
                    10:b1:c2:ef:8d:d2:3d:06:9f:69:ba:fd:f2:a8:32:
                    b8:e9:86:66:d4:e8:5d:7f:c7:ec:8c:09:41:39:68:
                    05:16:7f:db:1a:bc:bf:b7:ea:89:3e:2e:60:36:c4:
                    c7:a4:70:58:06:78:8e:d5:d0:9e:a6:53:05:a6:bf:
                    ff:55
                Exponent: 65537 (0x10001)
        X509v3 extensions:
            X509v3 Basic Constraints: 
                CA:FALSE
            X509v3 Subject Key Identifier: 
                D7:34:2D:AC:88:21:B5:D1:F5:B4:A8:B7:F2:AB:5F:6D:CA:D0:5E:08
            X509v3 Authority Key Identifier: 
                keyid:32:4C:28:84:0B:68:5F:D8:4E:CB:F5:A6:95:5A:A3:9F:96:98:AA:5A
                DirName:/CN=team170-net
                serial:40:CA:E6:0C:0D:E6:07:FA:05:98:8C:82:38:C9:DE:76:EE:15:9A:CD
            X509v3 Extended Key Usage: 
                TLS Web Server Authentication
            X509v3 Key Usage: 
                Digital Signature, Key Encipherment
            X509v3 Subject Alternative Name: 
                DNS:team170-server
    Signature Algorithm: sha256WithRSAEncryption
    Signature Value:
        56:2b:2c:01:77:d1:aa:6f:2f:79:30:15:48:f0:90:a6:4b:de:
        8f:ab:e9:df:7c:d5:24:52:ff:0d:d7:8b:2e:d4:81:23:d1:fb:
        4f:54:4c:fa:e1:9a:bf:80:a5:13:a7:c4:5f:ce:39:fb:e4:4f:
        09:bf:3c:22:57:f5:4d:bc:27:d1:f5:84:09:e8:1a:fb:b6:ea:
        40:e1:5e:19:e2:96:5a:a6:e0:e5:f0:6c:72:ce:b1:21:f4:6a:
        2d:24:ac:08:08:db:b7:41:47:fd:6c:95:b5:ab:da:78:78:f2:
        6d:18:8e:b0:95:11:70:f7:58:6b:67:1e:36:db:ba:17:98:cb:
        ba:ac:5b:d6:d1:eb:83:bd:02:60:03:18:f7:73:34:b7:4f:37:
        0c:2a:8f:d5:03:13:d1:3a:8b:e5:52:5f:1f:31:26:36:cd:c8:
        01:3d:d8:c5:d8:9b:d7:78:92:0e:d1:8a:45:26:bd:4d:9f:ec:
        19:9c:a3:bc:41:17:8a:74:d7:fe:50:8c:fd:c8:e8:47:e6:17:
        5e:ba:ff:37:d8:7a:8f:dc:0f:4c:7e:9d:a0:c0:bf:72:fa:58:
        d1:06:2c:81:73:20:a9:e2:77:3f:bf:d5:8d:bb:4b:fa:d6:56:
        e9:f4:52:d6:cc:61:0d:e1:04:bf:4f:3c:21:de:22:a4:9e:32:
        e9:4a:12:ad
-----BEGIN CERTIFICATE-----
MIIDeDCCAmCgAwIBAgIRAPcOOmiGvDxBVEBL5Ys6Uw0wDQYJKoZIhvcNAQELBQAw
FjEUMBIGA1UEAwwLdGVhbTE3MC1uZXQwHhcNMjMxMTA0MTA0MzQyWhcNMjYxMDE5
MTA0MzQyWjAZMRcwFQYDVQQDDA50ZWFtMTcwLXNlcnZlcjCCASIwDQYJKoZIhvcN
AQEBBQADggEPADCCAQoCggEBAKnhHrbySsrtZuJ6AZ7VJQOoLSBs7rbnOR/Ya878
R9gfunDnVkgP54UELTFvsGHv985sa/IFQp9GS11FDeMdE8TCHqp/qagWIEl9vgvW
JIpzkkZfKRi0L71OVKc7NRLbidMaTcjLNc+3RSxIghP960f/WKwvU0D09G2G/J81
0GiLqBfQnzQkYebnDExLbHaqq+8WfFwGvJ2ySs/Q8mI04JkrOpJQRbelfa1yAArd
jofrv4zWrj+vAfC/8DV97s+MhQ7NELHC743SPQafabr98qgyuOmGZtToXX/H7IwJ
QTloBRZ/2xq8v7fqiT4uYDbEx6RwWAZ4jtXQnqZTBaa//1UCAwEAAaOBvTCBujAJ
BgNVHRMEAjAAMB0GA1UdDgQWBBTXNC2siCG10fW0qLfyq19tytBeCDBRBgNVHSME
SjBIgBQyTCiEC2hf2E7L9aaVWqOflpiqWqEapBgwFjEUMBIGA1UEAwwLdGVhbTE3
MC1uZXSCFEDK5gwN5gf6BZiMgjjJ3nbuFZrNMBMGA1UdJQQMMAoGCCsGAQUFBwMB
MAsGA1UdDwQEAwIFoDAZBgNVHREEEjAQgg50ZWFtMTcwLXNlcnZlcjANBgkqhkiG
9w0BAQsFAAOCAQEAVissAXfRqm8veTAVSPCQpkvej6vp33zVJFL/DdeLLtSBI9H7
T1RM+uGav4ClE6fEX845++RPCb88Ilf1Tbwn0fWECega+7bqQOFeGeKWWqbg5fBs
cs6xIfRqLSSsCAjbt0FH/WyVtavaeHjybRiOsJURcPdYa2ceNtu6F5jLuqxb1tHr
g70CYAMY93M0t083DCqP1QMT0TqL5VJfHzEmNs3IAT3Yxdib13iSDtGKRSa9TZ/s
GZyjvEEXinTX/lCM/cjoR+YXXrr/N9h6j9wPTH6doMC/cvpY0QYsgXMgqeJ3P7/V
jbtL+tZW6fRS1sxhDeEEv088Id4ipJ4y6UoSrQ==
-----END CERTIFICATE-----
