Certificate:
    Data:
        Version: 3 (0x2)
        Serial Number:
            16:be:10:2e:a0:31:fa:ef:a1:da:9a:bb:5a:1d:47:21
        Signature Algorithm: sha256WithRSAEncryption
        Issuer: CN=team448-net
        Validity
            Not Before: Nov  3 20:47:24 2023 GMT
            Not After : Oct 18 20:47:24 2026 GMT
        Subject: CN=team448-server
        Subject Public Key Info:
            Public Key Algorithm: rsaEncryption
                Public-Key: (2048 bit)
                Modulus:
                    00:af:6f:1f:39:72:a7:ce:63:19:0b:71:18:5d:6a:
                    33:48:a2:83:73:67:70:bd:2b:e0:0c:e6:e7:18:75:
                    9c:6a:34:e4:8b:c6:0b:0f:6b:87:34:30:ab:10:5b:
                    a3:5b:f0:4a:15:9c:35:a8:21:ba:c1:84:72:ea:b7:
                    43:2d:a6:1c:68:fa:4f:ac:6f:6e:6c:f7:0b:f5:dd:
                    a9:24:46:41:1b:5f:1b:d8:1d:d8:5c:9e:6e:cd:95:
                    f4:73:2b:50:bb:66:9a:c5:d5:58:f6:be:83:51:42:
                    bd:6a:63:8e:56:c9:50:08:ca:dd:5a:e5:d5:ed:85:
                    68:6c:be:e7:df:2a:1e:79:d1:8f:27:0a:9a:c3:4d:
                    19:12:c1:cc:8b:86:be:d2:66:ec:ec:d3:85:49:f6:
                    6f:45:3e:7b:2d:9b:a6:38:80:14:93:8c:2b:b0:dc:
                    b2:8e:a9:f0:30:cb:c8:84:ef:5e:0d:58:39:e2:61:
                    4c:02:1b:84:55:a9:d5:42:9c:9d:87:40:bb:2f:7e:
                    e9:79:b4:cc:7b:03:6a:9c:1e:6e:f5:9f:8b:7a:a0:
                    b0:7c:ed:86:aa:c2:67:f6:2e:ca:8e:44:a5:68:21:
                    2f:23:de:d4:8d:52:b9:ef:04:4a:a0:c9:58:0d:04:
                    89:c8:bc:ff:48:43:4e:3a:56:13:7b:ac:8e:b9:7c:
                    9a:cf
                Exponent: 65537 (0x10001)
        X509v3 extensions:
            X509v3 Basic Constraints: 
                CA:FALSE
            X509v3 Subject Key Identifier: 
                FE:76:5C:39:6E:8F:F1:47:B9:22:74:3C:67:59:D4:E6:34:01:37:B0
            X509v3 Authority Key Identifier: 
                keyid:94:5B:ED:45:F5:8B:82:E6:2B:C0:C5:11:04:DC:FF:03:33:08:33:A6
                DirName:/CN=team448-net
                serial:40:1C:E4:03:61:E8:C0:13:FD:E8:CD:D6:73:D1:48:FF:31:92:68:1A
            X509v3 Extended Key Usage: 
                TLS Web Server Authentication
            X509v3 Key Usage: 
                Digital Signature, Key Encipherment
            X509v3 Subject Alternative Name: 
                DNS:team448-server
    Signature Algorithm: sha256WithRSAEncryption
    Signature Value:
        9f:23:89:81:08:44:7c:32:4e:13:a0:79:15:b2:3a:32:a8:88:
        08:6b:19:36:82:b6:5b:2e:57:bf:a1:08:fb:bd:7f:bb:cb:92:
        4b:e0:e6:1d:c8:64:c8:dc:b9:44:67:09:fd:54:4b:e2:2d:45:
        c3:ba:a3:77:e1:55:ca:92:4f:77:15:ad:84:f8:9d:c4:e0:f3:
        83:82:fd:76:cb:32:18:dc:49:a1:c4:d4:3a:89:4a:dc:a4:a7:
        2a:65:61:79:af:7d:33:da:62:36:86:c7:84:ff:2c:bc:d5:ab:
        1d:11:ab:d9:f3:94:e3:c9:b4:a2:df:8c:f7:a8:b0:ea:8b:94:
        80:6b:1c:36:14:61:a3:8b:12:3c:77:ab:24:b3:68:04:54:de:
        84:f8:c7:d2:77:ea:3e:90:00:1c:02:e8:98:cf:87:02:98:b1:
        bb:9d:87:27:de:62:0d:bd:66:0f:8e:ed:38:0a:19:d9:fb:c9:
        58:79:d9:39:99:a3:a2:21:e4:91:ae:22:b2:38:ae:c5:cc:44:
        a0:5e:1a:ef:85:56:5e:f8:99:eb:30:46:ae:4f:05:45:a7:4f:
        e9:c2:6f:17:0b:a1:38:63:30:a9:72:ce:ea:ed:9b:ba:71:3e:
        19:26:b3:3e:c2:ed:75:0d:3d:08:58:47:07:dd:2c:52:cb:36:
        12:11:da:97
-----BEGIN CERTIFICATE-----
MIIDdzCCAl+gAwIBAgIQFr4QLqAx+u+h2pq7Wh1HITANBgkqhkiG9w0BAQsFADAW
MRQwEgYDVQQDDAt0ZWFtNDQ4LW5ldDAeFw0yMzExMDMyMDQ3MjRaFw0yNjEwMTgy
MDQ3MjRaMBkxFzAVBgNVBAMMDnRlYW00NDgtc2VydmVyMIIBIjANBgkqhkiG9w0B
AQEFAAOCAQ8AMIIBCgKCAQEAr28fOXKnzmMZC3EYXWozSKKDc2dwvSvgDObnGHWc
ajTki8YLD2uHNDCrEFujW/BKFZw1qCG6wYRy6rdDLaYcaPpPrG9ubPcL9d2pJEZB
G18b2B3YXJ5uzZX0cytQu2aaxdVY9r6DUUK9amOOVslQCMrdWuXV7YVobL7n3yoe
edGPJwqaw00ZEsHMi4a+0mbs7NOFSfZvRT57LZumOIAUk4wrsNyyjqnwMMvIhO9e
DVg54mFMAhuEVanVQpydh0C7L37pebTMewNqnB5u9Z+LeqCwfO2GqsJn9i7KjkSl
aCEvI97UjVK57wRKoMlYDQSJyLz/SENOOlYTe6yOuXyazwIDAQABo4G9MIG6MAkG
A1UdEwQCMAAwHQYDVR0OBBYEFP52XDluj/FHuSJ0PGdZ1OY0ATewMFEGA1UdIwRK
MEiAFJRb7UX1i4LmK8DFEQTc/wMzCDOmoRqkGDAWMRQwEgYDVQQDDAt0ZWFtNDQ4
LW5ldIIUQBzkA2HowBP96M3Wc9FI/zGSaBowEwYDVR0lBAwwCgYIKwYBBQUHAwEw
CwYDVR0PBAQDAgWgMBkGA1UdEQQSMBCCDnRlYW00NDgtc2VydmVyMA0GCSqGSIb3
DQEBCwUAA4IBAQCfI4mBCER8Mk4ToHkVsjoyqIgIaxk2grZbLle/oQj7vX+7y5JL
4OYdyGTI3LlEZwn9VEviLUXDuqN34VXKkk93Fa2E+J3E4PODgv12yzIY3EmhxNQ6
iUrcpKcqZWF5r30z2mI2hseE/yy81asdEavZ85TjybSi34z3qLDqi5SAaxw2FGGj
ixI8d6sks2gEVN6E+MfSd+o+kAAcAuiYz4cCmLG7nYcn3mINvWYPju04ChnZ+8lY
edk5maOiIeSRriKyOK7FzESgXhrvhVZe+JnrMEauTwVFp0/pwm8XC6E4YzCpcs7q
7Zu6cT4ZJrM+wu11DT0IWEcH3SxSyzYSEdqX
-----END CERTIFICATE-----
