Certificate:
    Data:
        Version: 3 (0x2)
        Serial Number:
            41:89:30:5a:66:02:b9:14:70:90:33:3a:8b:4b:9c:80
        Signature Algorithm: sha256WithRSAEncryption
        Issuer: CN=team432-net
        Validity
            Not Before: Nov  4 11:37:09 2023 GMT
            Not After : Oct 19 11:37:09 2026 GMT
        Subject: CN=team432-client
        Subject Public Key Info:
            Public Key Algorithm: rsaEncryption
                Public-Key: (2048 bit)
                Modulus:
                    00:95:c7:0f:1f:d8:f1:68:93:9f:5b:a0:94:ac:e3:
                    78:cf:09:60:67:70:f0:9c:61:5a:1c:8f:17:cc:8e:
                    1e:a0:f6:c7:3d:99:58:1f:f3:07:21:ee:32:81:48:
                    9a:d0:22:5c:f2:18:9f:61:94:99:54:81:b9:49:d0:
                    55:7f:82:80:b3:a3:04:93:cd:90:c1:61:40:6c:5c:
                    d4:1e:71:13:6c:24:4a:8c:5a:44:ea:db:d4:79:9c:
                    51:34:22:5e:7b:84:d2:e8:ef:89:27:0f:56:42:0e:
                    37:08:c5:a6:68:3c:78:98:24:34:4f:75:08:2b:3b:
                    a4:fa:80:b8:ec:e6:8d:cb:c4:f4:6b:02:0e:56:27:
                    84:c0:49:51:d0:e6:41:8a:e7:bf:ed:2f:4a:dc:e9:
                    dc:9a:5e:6f:d9:7d:c2:13:9d:25:65:14:eb:2b:1f:
                    d5:26:68:ca:ea:40:2e:bd:7a:71:60:c0:b4:fc:95:
                    37:ae:45:e2:8a:d5:91:57:8a:17:ba:94:2f:27:10:
                    69:35:66:54:87:ca:68:ba:64:d0:fe:ac:fd:39:5e:
                    67:7e:04:e3:d4:f6:26:8e:aa:39:3c:f2:6e:57:a7:
                    4a:11:01:88:66:ed:fd:04:d8:15:95:4a:13:8c:0d:
                    8e:70:21:4b:d6:9b:34:99:81:ae:b7:e9:57:75:8a:
                    2e:d1
                Exponent: 65537 (0x10001)
        X509v3 extensions:
            X509v3 Basic Constraints: 
                CA:FALSE
            X509v3 Subject Key Identifier: 
                EB:50:4B:27:83:D4:15:37:A4:36:EE:90:AE:5E:28:01:D9:31:A8:72
            X509v3 Authority Key Identifier: 
                keyid:50:8A:0B:48:03:DC:7F:95:96:E2:3A:3B:1A:E0:1B:D8:8C:FB:A6:20
                DirName:/CN=team432-net
                serial:22:89:AA:DF:A8:55:D0:40:29:42:46:85:D6:0D:A5:8B:EB:CC:68:29
            X509v3 Extended Key Usage: 
                TLS Web Client Authentication
            X509v3 Key Usage: 
                Digital Signature
    Signature Algorithm: sha256WithRSAEncryption
    Signature Value:
        06:f7:4f:a0:ff:5f:c7:10:86:01:43:6b:6f:05:32:2a:7e:cc:
        47:6e:a1:44:dc:38:c1:8d:4e:6a:07:19:5f:0b:89:76:3c:5b:
        00:2b:3a:b3:e8:77:32:36:e6:96:f7:40:dc:7b:37:19:e5:c6:
        61:93:c4:82:87:87:e9:5d:02:c6:d4:60:3c:35:f0:f3:3e:d0:
        ef:22:08:0e:0d:4d:04:ff:d0:80:a1:21:05:7a:2f:f1:db:05:
        b5:e5:d1:36:dd:85:b9:87:c5:c5:48:5f:25:04:08:65:90:63:
        32:cb:f9:9f:28:97:c5:57:d7:2b:fb:7d:95:f9:d0:9b:1e:dc:
        f1:3e:d9:6d:02:a1:e1:54:21:5c:d3:6f:dc:ed:92:d8:c7:7c:
        dc:e6:db:74:b4:af:e2:7d:89:9a:ac:82:bf:80:8f:74:91:75:
        11:73:e3:31:12:ab:f2:dd:23:72:bc:72:fb:98:e5:0a:e7:29:
        20:3d:a8:8e:c8:a3:c5:08:7d:f4:6f:ff:da:d7:68:72:99:32:
        f6:8e:65:fe:9c:bc:b4:78:3a:2d:2a:7e:fa:3f:90:bd:f5:74:
        86:f5:04:21:76:d9:93:37:de:4c:c1:9f:67:a3:2e:71:f7:1b:
        74:fb:4f:0a:6d:e6:d0:9d:9a:e9:f0:95:01:4e:fc:4d:27:9a:
        a8:05:13:9b
-----BEGIN CERTIFICATE-----
MIIDXDCCAkSgAwIBAgIQQYkwWmYCuRRwkDM6i0ucgDANBgkqhkiG9w0BAQsFADAW
MRQwEgYDVQQDDAt0ZWFtNDMyLW5ldDAeFw0yMzExMDQxMTM3MDlaFw0yNjEwMTkx
MTM3MDlaMBkxFzAVBgNVBAMMDnRlYW00MzItY2xpZW50MIIBIjANBgkqhkiG9w0B
AQEFAAOCAQ8AMIIBCgKCAQEAlccPH9jxaJOfW6CUrON4zwlgZ3DwnGFaHI8XzI4e
oPbHPZlYH/MHIe4ygUia0CJc8hifYZSZVIG5SdBVf4KAs6MEk82QwWFAbFzUHnET
bCRKjFpE6tvUeZxRNCJee4TS6O+JJw9WQg43CMWmaDx4mCQ0T3UIKzuk+oC47OaN
y8T0awIOVieEwElR0OZBiue/7S9K3Oncml5v2X3CE50lZRTrKx/VJmjK6kAuvXpx
YMC0/JU3rkXiitWRV4oXupQvJxBpNWZUh8poumTQ/qz9OV5nfgTj1PYmjqo5PPJu
V6dKEQGIZu39BNgVlUoTjA2OcCFL1ps0mYGut+lXdYou0QIDAQABo4GiMIGfMAkG
A1UdEwQCMAAwHQYDVR0OBBYEFOtQSyeD1BU3pDbukK5eKAHZMahyMFEGA1UdIwRK
MEiAFFCKC0gD3H+VluI6OxrgG9iM+6YgoRqkGDAWMRQwEgYDVQQDDAt0ZWFtNDMy
LW5ldIIUIomq36hV0EApQkaF1g2li+vMaCkwEwYDVR0lBAwwCgYIKwYBBQUHAwIw
CwYDVR0PBAQDAgeAMA0GCSqGSIb3DQEBCwUAA4IBAQAG90+g/1/HEIYBQ2tvBTIq
fsxHbqFE3DjBjU5qBxlfC4l2PFsAKzqz6HcyNuaW90DcezcZ5cZhk8SCh4fpXQLG
1GA8NfDzPtDvIggODU0E/9CAoSEFei/x2wW15dE23YW5h8XFSF8lBAhlkGMyy/mf
KJfFV9cr+32V+dCbHtzxPtltAqHhVCFc02/c7ZLYx3zc5tt0tK/ifYmarIK/gI90
kXURc+MxEqvy3SNyvHL7mOUK5ykgPaiOyKPFCH30b//a12hymTL2jmX+nLy0eDot
Kn76P5C99XSG9QQhdtmTN95MwZ9noy5x9xt0+08KbebQnZrp8JUBTvxNJ5qoBROb
-----END CERTIFICATE-----
