Certificate:
    Data:
        Version: 3 (0x2)
        Serial Number:
            97:af:e8:24:08:10:eb:74:d2:90:bc:1a:1b:6d:ba:c4
        Signature Algorithm: sha256WithRSAEncryption
        Issuer: CN=team432-net
        Validity
            Not Before: Nov  4 10:48:24 2023 GMT
            Not After : Oct 19 10:48:24 2026 GMT
        Subject: CN=team432-server
        Subject Public Key Info:
            Public Key Algorithm: rsaEncryption
                Public-Key: (2048 bit)
                Modulus:
                    00:b4:d7:6d:26:ea:12:62:d6:b3:70:65:20:64:57:
                    da:be:5f:00:5b:85:a3:14:54:af:7d:24:dd:37:8f:
                    b3:b3:e5:25:77:d6:14:01:99:23:16:71:e1:4d:cc:
                    0f:1a:e4:c0:3b:e2:8f:9c:5f:e4:37:ed:07:09:4c:
                    04:96:1c:86:c4:c2:21:dd:0d:c6:46:37:fa:41:21:
                    8a:25:6b:38:87:38:2d:27:d9:6d:21:2e:55:07:7e:
                    7e:7b:e1:bb:55:c9:3f:1c:77:d9:3e:04:84:6e:d3:
                    fe:6f:75:59:07:72:85:1d:5c:6d:c4:a2:16:11:06:
                    48:26:60:34:84:05:62:c9:b3:66:1c:dc:ab:fb:26:
                    64:db:35:e6:58:60:c9:79:05:27:f8:94:24:81:15:
                    7e:5a:f0:8b:07:3c:51:e2:ad:5a:3a:bc:63:a3:81:
                    3a:26:61:b0:99:2a:82:1f:bf:6c:e0:f5:f7:5f:62:
                    7f:f0:b6:17:40:a3:36:68:80:50:06:7e:70:3f:ef:
                    ad:5c:2c:5e:ae:52:b4:7b:8a:4a:f2:61:d4:99:7e:
                    0a:32:fb:fe:33:90:96:e7:38:44:87:a2:83:8e:0b:
                    dd:13:8d:38:e2:25:59:f4:bc:b0:ea:ad:06:ed:75:
                    52:4b:6c:63:52:b7:73:08:c4:aa:ce:40:b5:74:ec:
                    b5:11
                Exponent: 65537 (0x10001)
        X509v3 extensions:
            X509v3 Basic Constraints: 
                CA:FALSE
            X509v3 Subject Key Identifier: 
                DA:C7:A3:43:E7:A3:50:90:B6:93:8E:E5:9C:36:F1:4D:52:AF:17:B5
            X509v3 Authority Key Identifier: 
                keyid:F1:05:75:AE:4B:B3:0F:B9:42:52:A9:CF:B7:8F:22:8A:B6:D5:2D:E5
                DirName:/CN=team432-net
                serial:03:A5:7A:19:6C:7D:77:73:06:B3:68:74:B3:7D:6D:BC:DD:4A:5D:2A
            X509v3 Extended Key Usage: 
                TLS Web Server Authentication
            X509v3 Key Usage: 
                Digital Signature, Key Encipherment
            X509v3 Subject Alternative Name: 
                DNS:team432-server
    Signature Algorithm: sha256WithRSAEncryption
    Signature Value:
        71:8c:4d:29:e9:f0:de:6f:69:b5:13:49:ff:ca:f1:b7:d6:8e:
        7a:de:a3:6e:4b:9a:8b:34:76:f5:75:e5:bb:37:2f:c9:be:11:
        73:37:8a:82:36:ce:1d:17:81:8e:62:39:e3:2f:c5:bb:90:6c:
        31:5c:83:57:b5:21:1f:21:91:45:d5:15:69:15:0d:c6:a8:66:
        e0:7c:a3:9d:b7:56:6e:25:16:59:00:fd:d1:e0:f7:ef:fa:24:
        81:82:43:ee:dd:a9:5c:05:85:bf:42:a6:cb:f1:66:16:50:38:
        4e:4b:fe:ad:69:2e:85:88:75:54:ba:fe:7a:8e:fe:3a:55:cc:
        eb:f9:79:cf:72:79:c2:d4:aa:e4:17:58:05:02:27:4d:e1:f4:
        bb:ab:86:64:a6:97:84:f1:b8:ad:64:fa:97:02:50:a0:5f:29:
        9e:2c:52:b5:b4:79:e2:01:44:38:62:6c:bf:06:b7:80:9e:e2:
        ab:08:be:ad:69:37:af:d0:3e:44:24:24:3f:a3:27:fd:d2:aa:
        49:72:59:18:d8:bd:c9:9c:24:01:d5:4e:dc:17:ac:d2:be:84:
        df:b8:53:c8:f5:27:2a:61:36:b4:42:d9:32:7e:fc:9c:18:f9:
        06:38:e9:f4:63:20:27:3d:a6:ff:4f:ad:21:11:17:8e:b6:22:
        6e:81:0d:af
-----BEGIN CERTIFICATE-----
MIIDeDCCAmCgAwIBAgIRAJev6CQIEOt00pC8GhttusQwDQYJKoZIhvcNAQELBQAw
FjEUMBIGA1UEAwwLdGVhbTQzMi1uZXQwHhcNMjMxMTA0MTA0ODI0WhcNMjYxMDE5
MTA0ODI0WjAZMRcwFQYDVQQDDA50ZWFtNDMyLXNlcnZlcjCCASIwDQYJKoZIhvcN
AQEBBQADggEPADCCAQoCggEBALTXbSbqEmLWs3BlIGRX2r5fAFuFoxRUr30k3TeP
s7PlJXfWFAGZIxZx4U3MDxrkwDvij5xf5DftBwlMBJYchsTCId0NxkY3+kEhiiVr
OIc4LSfZbSEuVQd+fnvhu1XJPxx32T4EhG7T/m91WQdyhR1cbcSiFhEGSCZgNIQF
YsmzZhzcq/smZNs15lhgyXkFJ/iUJIEVflrwiwc8UeKtWjq8Y6OBOiZhsJkqgh+/
bOD1919if/C2F0CjNmiAUAZ+cD/vrVwsXq5StHuKSvJh1Jl+CjL7/jOQluc4RIei
g44L3RONOOIlWfS8sOqtBu11UktsY1K3cwjEqs5AtXTstRECAwEAAaOBvTCBujAJ
BgNVHRMEAjAAMB0GA1UdDgQWBBTax6ND56NQkLaTjuWcNvFNUq8XtTBRBgNVHSME
SjBIgBTxBXWuS7MPuUJSqc+3jyKKttUt5aEapBgwFjEUMBIGA1UEAwwLdGVhbTQz
Mi1uZXSCFAOlehlsfXdzBrNodLN9bbzdSl0qMBMGA1UdJQQMMAoGCCsGAQUFBwMB
MAsGA1UdDwQEAwIFoDAZBgNVHREEEjAQgg50ZWFtNDMyLXNlcnZlcjANBgkqhkiG
9w0BAQsFAAOCAQEAcYxNKenw3m9ptRNJ/8rxt9aOet6jbkuaizR29XXluzcvyb4R
czeKgjbOHReBjmI54y/Fu5BsMVyDV7UhHyGRRdUVaRUNxqhm4HyjnbdWbiUWWQD9
0eD37/okgYJD7t2pXAWFv0Kmy/FmFlA4Tkv+rWkuhYh1VLr+eo7+OlXM6/l5z3J5
wtSq5BdYBQInTeH0u6uGZKaXhPG4rWT6lwJQoF8pnixStbR54gFEOGJsvwa3gJ7i
qwi+rWk3r9A+RCQkP6Mn/dKqSXJZGNi9yZwkAdVO3Bes0r6E37hTyPUnKmE2tELZ
Mn78nBj5Bjjp9GMgJz2m/0+tIREXjrYiboENrw==
-----END CERTIFICATE-----
