Certificate:
    Data:
        Version: 3 (0x2)
        Serial Number:
            9b:25:c0:bb:b2:55:cc:73:ba:42:70:94:6d:10:50:ec
        Signature Algorithm: sha256WithRSAEncryption
        Issuer: CN=team432-net
        Validity
            Not Before: Nov  4 11:37:10 2023 GMT
            Not After : Oct 19 11:37:10 2026 GMT
        Subject: CN=team432-server
        Subject Public Key Info:
            Public Key Algorithm: rsaEncryption
                Public-Key: (2048 bit)
                Modulus:
                    00:b4:97:74:b5:b9:39:5b:59:20:52:74:05:82:5a:
                    8b:33:6d:ab:5d:29:e7:de:91:40:a1:be:27:e3:d1:
                    86:00:a7:84:8b:47:14:18:d0:10:eb:47:e2:13:f3:
                    4c:f9:b4:ea:4f:d2:24:92:c3:e2:60:8b:bc:95:58:
                    2a:f6:27:e8:59:25:ef:af:22:81:9c:5d:cf:ed:e3:
                    a8:91:a4:f6:1d:71:b6:53:ae:9c:61:0c:00:16:db:
                    ba:38:d1:31:1e:93:a2:d9:3d:68:53:ca:68:58:3b:
                    8a:b7:0a:74:5c:44:7e:35:d3:d6:4b:66:8f:c8:a2:
                    25:36:4f:c7:e6:f0:d4:05:00:e4:18:c1:f5:ac:d0:
                    35:72:de:d0:68:4e:9d:ef:7c:85:a4:41:29:29:17:
                    9a:98:58:80:c7:82:bd:45:28:3c:84:9b:19:73:2d:
                    5f:7f:a4:ce:7d:91:51:93:70:cf:90:57:32:06:d9:
                    79:9b:bd:fa:ff:40:60:2f:fd:f3:d8:d2:c1:e0:71:
                    50:4d:2c:bc:11:bb:00:0d:ab:22:88:7f:88:32:f6:
                    54:8d:3c:49:d4:34:c9:b4:0c:c4:4a:97:d1:f5:99:
                    36:11:1c:af:cb:fa:02:ba:e7:dd:a7:46:c4:4f:21:
                    24:7d:59:2a:1a:3e:6d:30:52:2b:d3:6e:35:aa:57:
                    95:6d
                Exponent: 65537 (0x10001)
        X509v3 extensions:
            X509v3 Basic Constraints: 
                CA:FALSE
            X509v3 Subject Key Identifier: 
                A5:2D:B1:CA:69:7A:21:24:37:61:96:D6:92:7B:23:00:75:4E:70:13
            X509v3 Authority Key Identifier: 
                keyid:50:8A:0B:48:03:DC:7F:95:96:E2:3A:3B:1A:E0:1B:D8:8C:FB:A6:20
                DirName:/CN=team432-net
                serial:22:89:AA:DF:A8:55:D0:40:29:42:46:85:D6:0D:A5:8B:EB:CC:68:29
            X509v3 Extended Key Usage: 
                TLS Web Server Authentication
            X509v3 Key Usage: 
                Digital Signature, Key Encipherment
            X509v3 Subject Alternative Name: 
                DNS:team432-server
    Signature Algorithm: sha256WithRSAEncryption
    Signature Value:
        62:02:9b:c1:59:60:eb:1e:d2:a4:c0:12:95:45:4e:73:35:a3:
        c9:da:39:56:56:44:75:db:39:78:13:43:52:b5:00:b4:ee:6d:
        bf:be:ff:62:27:f0:a7:f0:59:b8:49:4c:13:c5:98:11:a6:94:
        51:da:66:8c:d5:6f:42:88:b0:ea:c0:92:ba:ca:42:c8:3a:aa:
        8c:ea:43:bc:7e:cc:11:0e:b9:4f:17:83:3e:36:1d:e0:6a:87:
        c2:cd:a3:10:b2:6d:19:8c:02:93:f7:9b:1a:e7:22:14:f8:fd:
        f9:cc:da:70:e9:58:34:08:38:29:75:bb:0a:04:74:f7:06:7e:
        f5:4a:a5:d6:bd:c0:f8:36:6a:22:97:5d:f4:f1:af:7a:68:f7:
        fe:c6:5a:7c:44:67:01:aa:fb:84:ea:ca:be:01:bd:3f:d2:37:
        5f:61:4f:16:b2:49:3e:56:31:53:23:6e:b8:6b:68:73:f0:fb:
        f2:5b:e4:34:67:b3:d1:c2:53:b6:98:52:1e:d5:cc:92:ef:02:
        25:50:23:2e:8e:39:66:70:99:fd:09:c7:51:6b:fe:c4:28:7a:
        d2:e9:85:49:e3:03:f3:e6:2f:cd:28:5e:89:cc:9b:9c:61:68:
        ae:5d:af:66:aa:c9:7b:cd:1e:18:b8:78:fe:08:b9:58:44:79:
        de:52:ef:9f
-----BEGIN CERTIFICATE-----
MIIDeDCCAmCgAwIBAgIRAJslwLuyVcxzukJwlG0QUOwwDQYJKoZIhvcNAQELBQAw
FjEUMBIGA1UEAwwLdGVhbTQzMi1uZXQwHhcNMjMxMTA0MTEzNzEwWhcNMjYxMDE5
MTEzNzEwWjAZMRcwFQYDVQQDDA50ZWFtNDMyLXNlcnZlcjCCASIwDQYJKoZIhvcN
AQEBBQADggEPADCCAQoCggEBALSXdLW5OVtZIFJ0BYJaizNtq10p596RQKG+J+PR
hgCnhItHFBjQEOtH4hPzTPm06k/SJJLD4mCLvJVYKvYn6Fkl768igZxdz+3jqJGk
9h1xtlOunGEMABbbujjRMR6Totk9aFPKaFg7ircKdFxEfjXT1ktmj8iiJTZPx+bw
1AUA5BjB9azQNXLe0GhOne98haRBKSkXmphYgMeCvUUoPISbGXMtX3+kzn2RUZNw
z5BXMgbZeZu9+v9AYC/989jSweBxUE0svBG7AA2rIoh/iDL2VI08SdQ0ybQMxEqX
0fWZNhEcr8v6Arrn3adGxE8hJH1ZKho+bTBSK9NuNapXlW0CAwEAAaOBvTCBujAJ
BgNVHRMEAjAAMB0GA1UdDgQWBBSlLbHKaXohJDdhltaSeyMAdU5wEzBRBgNVHSME
SjBIgBRQigtIA9x/lZbiOjsa4BvYjPumIKEapBgwFjEUMBIGA1UEAwwLdGVhbTQz
Mi1uZXSCFCKJqt+oVdBAKUJGhdYNpYvrzGgpMBMGA1UdJQQMMAoGCCsGAQUFBwMB
MAsGA1UdDwQEAwIFoDAZBgNVHREEEjAQgg50ZWFtNDMyLXNlcnZlcjANBgkqhkiG
9w0BAQsFAAOCAQEAYgKbwVlg6x7SpMASlUVOczWjydo5VlZEdds5eBNDUrUAtO5t
v77/Yifwp/BZuElME8WYEaaUUdpmjNVvQoiw6sCSuspCyDqqjOpDvH7MEQ65TxeD
PjYd4GqHws2jELJtGYwCk/ebGuciFPj9+czacOlYNAg4KXW7CgR09wZ+9Uql1r3A
+DZqIpdd9PGvemj3/sZafERnAar7hOrKvgG9P9I3X2FPFrJJPlYxUyNuuGtoc/D7
8lvkNGez0cJTtphSHtXMku8CJVAjLo45ZnCZ/QnHUWv+xCh60umFSeMD8+YvzShe
icybnGForl2vZqrJe80eGLh4/gi5WER53lLvnw==
-----END CERTIFICATE-----
