Certificate:
    Data:
        Version: 3 (0x2)
        Serial Number:
            a0:88:3e:05:fc:2a:69:b1:dc:23:45:8e:03:94:88:17
        Signature Algorithm: sha256WithRSAEncryption
        Issuer: CN=team432-net
        Validity
            Not Before: Nov  3 20:47:06 2023 GMT
            Not After : Oct 18 20:47:06 2026 GMT
        Subject: CN=team432-server
        Subject Public Key Info:
            Public Key Algorithm: rsaEncryption
                Public-Key: (2048 bit)
                Modulus:
                    00:d1:bb:98:54:77:b8:c4:f9:1d:50:0b:39:38:e5:
                    7d:af:fa:f1:f0:78:51:3c:09:4b:d9:29:45:a8:27:
                    64:7c:bf:03:6e:41:2c:31:ca:18:a2:6b:75:98:d4:
                    1e:80:18:3f:55:7f:d0:9c:6a:ba:ea:af:32:0e:a7:
                    9e:61:c0:6c:ac:9c:16:05:ba:14:45:09:0d:48:19:
                    a3:06:ca:6e:4a:25:fb:3e:c5:aa:5d:69:1f:45:ff:
                    8c:b2:e4:04:1f:da:de:37:f8:fa:27:c5:9a:17:8c:
                    0a:dd:17:05:14:31:20:a6:1d:37:b5:52:76:87:60:
                    d4:d9:c0:a0:04:6a:95:6a:17:dc:ef:e2:7b:a4:ea:
                    c0:5d:8e:1a:46:f6:97:59:f6:e4:76:23:ff:e0:4a:
                    61:4b:36:56:44:9d:81:aa:c0:00:d5:8a:a7:b8:d5:
                    2d:de:d6:01:9e:c0:5f:dd:02:99:a7:3a:c1:26:dd:
                    42:a2:46:ee:53:c7:64:83:86:40:09:ef:1f:e1:27:
                    d7:94:20:93:40:f4:1c:fa:eb:07:0b:ad:96:fe:bb:
                    51:fb:2e:66:15:77:77:fc:8b:37:88:d4:86:eb:dc:
                    43:87:5c:54:b2:6d:10:fe:08:73:97:b6:ad:a3:29:
                    f8:4a:ca:61:ca:c8:4a:3c:7f:75:b9:a9:cd:ca:cc:
                    1d:29
                Exponent: 65537 (0x10001)
        X509v3 extensions:
            X509v3 Basic Constraints: 
                CA:FALSE
            X509v3 Subject Key Identifier: 
                FC:E6:CE:15:89:0E:75:E9:DE:21:E4:85:ED:54:16:A0:AE:2E:1C:AC
            X509v3 Authority Key Identifier: 
                keyid:6F:A0:39:B2:87:38:D6:96:57:E4:CC:3B:43:5B:CF:CE:92:50:24:D2
                DirName:/CN=team432-net
                serial:18:C0:29:B5:00:54:0B:57:5F:47:AD:1A:16:D4:A4:C0:DE:BE:0D:0A
            X509v3 Extended Key Usage: 
                TLS Web Server Authentication
            X509v3 Key Usage: 
                Digital Signature, Key Encipherment
            X509v3 Subject Alternative Name: 
                DNS:team432-server
    Signature Algorithm: sha256WithRSAEncryption
    Signature Value:
        68:0e:c8:6a:61:72:30:13:d9:63:de:ee:cf:4f:96:09:bd:cc:
        d9:c5:40:ed:2c:10:e5:e9:d9:12:c3:70:50:4e:1a:f8:13:bb:
        e0:49:7f:8f:d1:9f:2d:ab:ca:a4:f7:bf:0a:8f:9c:37:12:9e:
        5e:9d:8d:6d:8f:79:cf:cf:06:6c:d6:9b:33:e6:07:13:ee:af:
        9b:70:b4:96:17:b0:87:46:a2:45:d7:e5:b9:e7:0e:cf:0c:65:
        95:cd:1a:1f:41:7c:c2:c8:25:ef:75:2c:6c:e3:7c:0f:fa:b2:
        c6:40:46:77:8c:9b:e3:cc:fe:40:75:5f:b5:f3:94:35:a9:4b:
        27:f7:fb:df:e3:0c:bc:c5:c6:24:0a:28:2a:02:6f:b4:66:3a:
        15:50:73:f7:57:ca:a0:fd:75:3f:6e:71:f3:55:91:41:7a:6a:
        60:ad:3a:db:d7:d6:fa:0b:2c:3b:83:9d:32:22:72:78:51:bb:
        bd:7c:1b:5b:d2:bd:60:39:d7:1f:91:04:54:09:95:86:9a:66:
        f3:1c:92:6e:43:48:a6:1b:34:71:77:c8:62:f1:f4:fd:d8:5c:
        d1:aa:b2:37:91:7b:9d:aa:9b:a7:de:e6:5b:98:08:9d:19:d6:
        a5:4b:e4:b3:04:13:a7:9b:5e:9b:63:83:4d:77:91:15:fb:0c:
        14:d7:f0:78
-----BEGIN CERTIFICATE-----
MIIDeDCCAmCgAwIBAgIRAKCIPgX8Kmmx3CNFjgOUiBcwDQYJKoZIhvcNAQELBQAw
FjEUMBIGA1UEAwwLdGVhbTQzMi1uZXQwHhcNMjMxMTAzMjA0NzA2WhcNMjYxMDE4
MjA0NzA2WjAZMRcwFQYDVQQDDA50ZWFtNDMyLXNlcnZlcjCCASIwDQYJKoZIhvcN
AQEBBQADggEPADCCAQoCggEBANG7mFR3uMT5HVALOTjlfa/68fB4UTwJS9kpRagn
ZHy/A25BLDHKGKJrdZjUHoAYP1V/0JxquuqvMg6nnmHAbKycFgW6FEUJDUgZowbK
bkol+z7Fql1pH0X/jLLkBB/a3jf4+ifFmheMCt0XBRQxIKYdN7VSdodg1NnAoARq
lWoX3O/ie6TqwF2OGkb2l1n25HYj/+BKYUs2VkSdgarAANWKp7jVLd7WAZ7AX90C
mac6wSbdQqJG7lPHZIOGQAnvH+En15Qgk0D0HPrrBwutlv67UfsuZhV3d/yLN4jU
huvcQ4dcVLJtEP4Ic5e2raMp+ErKYcrISjx/dbmpzcrMHSkCAwEAAaOBvTCBujAJ
BgNVHRMEAjAAMB0GA1UdDgQWBBT85s4ViQ516d4h5IXtVBagri4crDBRBgNVHSME
SjBIgBRvoDmyhzjWllfkzDtDW8/OklAk0qEapBgwFjEUMBIGA1UEAwwLdGVhbTQz
Mi1uZXSCFBjAKbUAVAtXX0etGhbUpMDevg0KMBMGA1UdJQQMMAoGCCsGAQUFBwMB
MAsGA1UdDwQEAwIFoDAZBgNVHREEEjAQgg50ZWFtNDMyLXNlcnZlcjANBgkqhkiG
9w0BAQsFAAOCAQEAaA7IamFyMBPZY97uz0+WCb3M2cVA7SwQ5enZEsNwUE4a+BO7
4El/j9GfLavKpPe/Co+cNxKeXp2NbY95z88GbNabM+YHE+6vm3C0lhewh0aiRdfl
uecOzwxllc0aH0F8wsgl73UsbON8D/qyxkBGd4yb48z+QHVftfOUNalLJ/f73+MM
vMXGJAooKgJvtGY6FVBz91fKoP11P25x81WRQXpqYK0629fW+gssO4OdMiJyeFG7
vXwbW9K9YDnXH5EEVAmVhppm8xySbkNIphs0cXfIYvH0/dhc0aqyN5F7naqbp97m
W5gInRnWpUvkswQTp5tem2ODTXeRFfsMFNfweA==
-----END CERTIFICATE-----
