Certificate:
    Data:
        Version: 3 (0x2)
        Serial Number:
            c5:c2:25:a5:f4:53:be:dd:06:a3:ba:da:31:38:a9:cf
        Signature Algorithm: sha256WithRSAEncryption
        Issuer: CN=team432-net
        Validity
            Not Before: Nov  3 20:47:05 2023 GMT
            Not After : Oct 18 20:47:05 2026 GMT
        Subject: CN=team432-client
        Subject Public Key Info:
            Public Key Algorithm: rsaEncryption
                Public-Key: (2048 bit)
                Modulus:
                    00:c3:af:c9:9b:3c:b9:77:aa:5c:a1:0a:cb:71:8a:
                    23:b8:8b:03:86:9e:e1:eb:31:32:fb:b1:4c:7f:b7:
                    45:ed:9f:0a:87:4f:46:2e:94:5e:ed:3b:1a:c5:eb:
                    96:24:ec:60:14:76:4a:97:94:f9:b5:b4:91:21:92:
                    87:b3:3a:a7:7a:cb:60:9e:0d:d3:ab:1e:23:d2:b2:
                    52:b5:ab:8c:26:b4:3b:ba:fd:77:5b:54:04:1b:71:
                    7e:a5:68:66:f7:af:01:7c:46:05:eb:f1:b9:5c:6e:
                    71:c6:2c:1b:e4:c5:de:50:b0:ad:10:ae:d4:2b:1d:
                    8a:c5:85:71:2e:d3:14:fc:41:78:5a:48:2c:30:5d:
                    e2:4c:71:c0:30:46:f0:b2:a3:4c:dd:35:6c:8b:25:
                    15:8d:1d:50:fd:0f:22:fa:7b:6d:d2:3d:35:74:a7:
                    e5:a7:94:d4:80:17:94:df:1d:77:78:2e:55:30:be:
                    e9:20:6f:59:a6:dd:6a:39:c6:5c:bd:3f:60:bd:84:
                    12:80:bb:d2:0b:10:9e:93:21:b9:88:9d:af:77:9a:
                    b7:dd:22:b2:ee:ef:4c:98:53:a6:c2:f7:de:5d:7d:
                    3c:47:f8:56:c3:68:ac:d0:aa:b5:55:14:de:e2:8d:
                    2a:d3:a3:3a:39:6e:bb:78:aa:63:f3:db:ce:f4:3e:
                    a8:5f
                Exponent: 65537 (0x10001)
        X509v3 extensions:
            X509v3 Basic Constraints: 
                CA:FALSE
            X509v3 Subject Key Identifier: 
                31:22:6C:EE:9B:3A:8E:D2:83:32:18:98:D5:8A:BF:21:8C:20:3D:8C
            X509v3 Authority Key Identifier: 
                keyid:6F:A0:39:B2:87:38:D6:96:57:E4:CC:3B:43:5B:CF:CE:92:50:24:D2
                DirName:/CN=team432-net
                serial:18:C0:29:B5:00:54:0B:57:5F:47:AD:1A:16:D4:A4:C0:DE:BE:0D:0A
            X509v3 Extended Key Usage: 
                TLS Web Client Authentication
            X509v3 Key Usage: 
                Digital Signature
    Signature Algorithm: sha256WithRSAEncryption
    Signature Value:
        37:b8:e9:3b:07:3f:37:09:38:0b:d4:c4:75:e4:b0:17:6e:19:
        c3:e5:87:9c:e1:19:58:20:b3:ac:70:95:98:3e:d4:a0:2f:c7:
        b0:59:bb:4b:fa:de:e8:25:14:b8:4b:3f:66:97:e4:0c:41:8e:
        2d:40:3c:50:91:ed:d2:70:88:ae:f3:13:52:1f:e5:a0:aa:e2:
        29:be:74:9d:65:ae:b7:6d:87:0d:56:4c:d2:39:84:f0:10:7e:
        0b:47:d4:98:15:b0:8a:ce:dc:c3:5b:68:3a:d7:c0:3c:ff:ed:
        55:c0:82:92:a1:a4:87:bd:91:15:e9:87:15:85:ee:fb:5d:0d:
        ec:49:8c:2f:87:2c:ae:73:cf:fd:3e:62:8a:0b:ff:34:b3:05:
        09:5e:08:78:21:c5:59:d0:a9:fa:bd:08:bb:cf:fb:29:dd:af:
        b7:57:70:16:0c:6a:97:cc:00:9f:a1:22:27:27:05:44:00:b6:
        2e:02:e7:97:dc:d9:7c:2f:38:1e:c3:3a:df:57:3c:c0:99:24:
        24:d6:a5:bc:81:14:6f:dc:89:7c:91:b8:f6:bf:b5:5e:51:78:
        62:82:15:48:c0:7f:ce:f0:35:98:9b:ed:d9:fb:71:8b:5d:45:
        d4:e1:dc:b1:d8:b6:51:46:f3:9d:91:cb:e8:34:40:5b:7c:31:
        24:0f:f5:33
-----BEGIN CERTIFICATE-----
MIIDXTCCAkWgAwIBAgIRAMXCJaX0U77dBqO62jE4qc8wDQYJKoZIhvcNAQELBQAw
FjEUMBIGA1UEAwwLdGVhbTQzMi1uZXQwHhcNMjMxMTAzMjA0NzA1WhcNMjYxMDE4
MjA0NzA1WjAZMRcwFQYDVQQDDA50ZWFtNDMyLWNsaWVudDCCASIwDQYJKoZIhvcN
AQEBBQADggEPADCCAQoCggEBAMOvyZs8uXeqXKEKy3GKI7iLA4ae4esxMvuxTH+3
Re2fCodPRi6UXu07GsXrliTsYBR2SpeU+bW0kSGSh7M6p3rLYJ4N06seI9KyUrWr
jCa0O7r9d1tUBBtxfqVoZvevAXxGBevxuVxuccYsG+TF3lCwrRCu1CsdisWFcS7T
FPxBeFpILDBd4kxxwDBG8LKjTN01bIslFY0dUP0PIvp7bdI9NXSn5aeU1IAXlN8d
d3guVTC+6SBvWabdajnGXL0/YL2EEoC70gsQnpMhuYidr3eat90isu7vTJhTpsL3
3l19PEf4VsNorNCqtVUU3uKNKtOjOjluu3iqY/PbzvQ+qF8CAwEAAaOBojCBnzAJ
BgNVHRMEAjAAMB0GA1UdDgQWBBQxImzumzqO0oMyGJjVir8hjCA9jDBRBgNVHSME
SjBIgBRvoDmyhzjWllfkzDtDW8/OklAk0qEapBgwFjEUMBIGA1UEAwwLdGVhbTQz
Mi1uZXSCFBjAKbUAVAtXX0etGhbUpMDevg0KMBMGA1UdJQQMMAoGCCsGAQUFBwMC
MAsGA1UdDwQEAwIHgDANBgkqhkiG9w0BAQsFAAOCAQEAN7jpOwc/Nwk4C9TEdeSw
F24Zw+WHnOEZWCCzrHCVmD7UoC/HsFm7S/re6CUUuEs/ZpfkDEGOLUA8UJHt0nCI
rvMTUh/loKriKb50nWWut22HDVZM0jmE8BB+C0fUmBWwis7cw1toOtfAPP/tVcCC
kqGkh72RFemHFYXu+10N7EmML4csrnPP/T5iigv/NLMFCV4IeCHFWdCp+r0Iu8/7
Kd2vt1dwFgxql8wAn6EiJycFRAC2LgLnl9zZfC84HsM631c8wJkkJNalvIEUb9yJ
fJG49r+1XlF4YoIVSMB/zvA1mJvt2ftxi11F1OHcsdi2UUbznZHL6DRAW3wxJA/1
Mw==
-----END CERTIFICATE-----
