Certificate:
    Data:
        Version: 3 (0x2)
        Serial Number:
            ca:66:64:19:83:90:b4:d9:a2:72:22:eb:34:3f:96:d1
        Signature Algorithm: sha256WithRSAEncryption
        Issuer: CN=team386-net
        Validity
            Not Before: Nov  3 20:46:13 2023 GMT
            Not After : Oct 18 20:46:13 2026 GMT
        Subject: CN=team386-client
        Subject Public Key Info:
            Public Key Algorithm: rsaEncryption
                Public-Key: (2048 bit)
                Modulus:
                    00:b8:4f:48:e5:0b:ab:54:d8:13:38:a6:3d:15:66:
                    73:2d:80:75:88:07:2c:ec:54:8d:dc:38:10:d6:69:
                    32:89:8f:4b:1a:49:13:b3:ed:8c:25:2a:d3:77:22:
                    c5:d3:24:e7:a8:21:c0:5b:a6:68:4e:03:15:00:e2:
                    d6:dc:43:c9:48:0f:62:47:ff:bf:f4:c1:c8:33:b8:
                    ba:5a:fe:52:97:0e:c2:8f:98:1e:04:4c:69:c7:83:
                    c2:69:db:fe:3f:0e:0f:12:b5:31:8f:59:77:1f:0a:
                    12:b3:dd:26:4c:c7:f6:57:2c:c0:41:8d:b3:19:90:
                    b0:e8:72:35:5b:1d:e5:7d:8f:6b:a0:40:c7:aa:06:
                    c9:93:df:64:5e:66:b1:ab:cc:b7:df:0c:23:9a:49:
                    cc:43:2d:d3:95:37:96:73:be:23:b8:bb:28:81:0a:
                    12:f9:fb:48:b8:6a:77:10:72:00:8d:66:d3:17:ad:
                    0b:1b:f4:dd:b0:a0:02:34:0f:55:50:56:bc:25:70:
                    9f:89:d4:2d:b0:8b:bc:b2:1e:46:8d:03:d2:f8:35:
                    fe:df:ee:40:83:4b:c6:83:79:3d:a0:1e:7c:81:59:
                    5c:62:ea:7c:d4:41:7e:cf:08:cf:da:d5:d9:21:66:
                    6a:d4:63:e6:0b:5d:e1:85:6b:0b:ec:2d:ba:ab:92:
                    14:83
                Exponent: 65537 (0x10001)
        X509v3 extensions:
            X509v3 Basic Constraints: 
                CA:FALSE
            X509v3 Subject Key Identifier: 
                F9:52:84:A0:4A:90:13:B6:B5:5C:80:E6:B6:9B:FC:09:49:7A:CC:C2
            X509v3 Authority Key Identifier: 
                keyid:BC:6B:00:18:AC:CF:FE:38:AC:3E:AF:02:C4:C6:31:26:49:98:56:A8
                DirName:/CN=team386-net
                serial:23:42:19:23:85:12:78:06:1B:FC:78:12:BC:07:74:AB:54:A8:74:A2
            X509v3 Extended Key Usage: 
                TLS Web Client Authentication
            X509v3 Key Usage: 
                Digital Signature
    Signature Algorithm: sha256WithRSAEncryption
    Signature Value:
        a5:4f:f5:32:ee:ef:8c:b9:01:dc:97:b9:66:f8:ae:40:33:f2:
        e4:a3:53:32:e1:e1:b7:5d:bf:21:9c:3c:48:85:77:6a:f3:2a:
        38:50:6c:6b:4f:1d:04:bd:86:48:ef:be:d7:68:17:4a:ce:75:
        c4:e7:90:4d:50:86:12:7e:69:d9:61:2d:f6:63:8f:0f:4d:9c:
        ea:33:d9:c7:c2:d5:4c:d6:0f:8b:5e:d0:e9:15:ee:82:20:32:
        bb:1c:09:9b:d2:7b:f2:db:f6:7b:72:cb:42:7a:db:1a:94:dd:
        21:03:25:fe:b1:e6:e9:d4:38:d4:fe:42:08:d7:41:dd:f5:9b:
        10:90:a4:ff:cb:45:14:d1:d6:98:29:e2:c5:df:0f:9d:aa:b6:
        87:3d:13:bd:c8:82:e4:98:61:17:b9:c5:e8:65:6c:d5:13:ff:
        be:3e:76:e4:e6:60:fe:70:60:4e:8f:66:7b:88:23:59:72:44:
        7f:c6:91:f9:ea:0a:00:bf:68:8b:1c:5a:d1:27:bf:96:cb:f5:
        1d:83:0f:43:ac:ed:20:35:55:0d:58:34:c1:70:eb:b3:25:86:
        b5:4a:60:6e:e9:75:6f:17:bd:60:1b:b7:93:f7:59:6b:86:37:
        37:7a:a9:32:4f:18:ad:cb:33:85:ed:08:c7:3c:25:1f:86:29:
        f0:a2:0b:ce
-----BEGIN CERTIFICATE-----
MIIDXTCCAkWgAwIBAgIRAMpmZBmDkLTZonIi6zQ/ltEwDQYJKoZIhvcNAQELBQAw
FjEUMBIGA1UEAwwLdGVhbTM4Ni1uZXQwHhcNMjMxMTAzMjA0NjEzWhcNMjYxMDE4
MjA0NjEzWjAZMRcwFQYDVQQDDA50ZWFtMzg2LWNsaWVudDCCASIwDQYJKoZIhvcN
AQEBBQADggEPADCCAQoCggEBALhPSOULq1TYEzimPRVmcy2AdYgHLOxUjdw4ENZp
MomPSxpJE7PtjCUq03cixdMk56ghwFumaE4DFQDi1txDyUgPYkf/v/TByDO4ulr+
UpcOwo+YHgRMaceDwmnb/j8ODxK1MY9Zdx8KErPdJkzH9lcswEGNsxmQsOhyNVsd
5X2Pa6BAx6oGyZPfZF5msavMt98MI5pJzEMt05U3lnO+I7i7KIEKEvn7SLhqdxBy
AI1m0xetCxv03bCgAjQPVVBWvCVwn4nULbCLvLIeRo0D0vg1/t/uQINLxoN5PaAe
fIFZXGLqfNRBfs8Iz9rV2SFmatRj5gtd4YVrC+wtuquSFIMCAwEAAaOBojCBnzAJ
BgNVHRMEAjAAMB0GA1UdDgQWBBT5UoSgSpATtrVcgOa2m/wJSXrMwjBRBgNVHSME
SjBIgBS8awAYrM/+OKw+rwLExjEmSZhWqKEapBgwFjEUMBIGA1UEAwwLdGVhbTM4
Ni1uZXSCFCNCGSOFEngGG/x4ErwHdKtUqHSiMBMGA1UdJQQMMAoGCCsGAQUFBwMC
MAsGA1UdDwQEAwIHgDANBgkqhkiG9w0BAQsFAAOCAQEApU/1Mu7vjLkB3Je5Zviu
QDPy5KNTMuHht12/IZw8SIV3avMqOFBsa08dBL2GSO++12gXSs51xOeQTVCGEn5p
2WEt9mOPD02c6jPZx8LVTNYPi17Q6RXugiAyuxwJm9J78tv2e3LLQnrbGpTdIQMl
/rHm6dQ41P5CCNdB3fWbEJCk/8tFFNHWmCnixd8Pnaq2hz0TvciC5JhhF7nF6GVs
1RP/vj525OZg/nBgTo9me4gjWXJEf8aR+eoKAL9oixxa0Se/lsv1HYMPQ6ztIDVV
DVg0wXDrsyWGtUpgbul1bxe9YBu3k/dZa4Y3N3qpMk8Yrcszhe0IxzwlH4Yp8KIL
zg==
-----END CERTIFICATE-----
