Certificate:
    Data:
        Version: 3 (0x2)
        Serial Number:
            ea:9e:4e:f9:c6:d1:26:df:37:d8:78:39:65:14:1a:77
        Signature Algorithm: sha256WithRSAEncryption
        Issuer: CN=team386-net
        Validity
            Not Before: Nov  3 20:46:13 2023 GMT
            Not After : Oct 18 20:46:13 2026 GMT
        Subject: CN=team386-server
        Subject Public Key Info:
            Public Key Algorithm: rsaEncryption
                Public-Key: (2048 bit)
                Modulus:
                    00:c3:32:89:d7:f1:07:94:9b:c4:a7:13:10:87:bb:
                    12:32:aa:62:90:30:b6:5a:81:ec:36:66:0d:82:6e:
                    34:d0:9c:64:ff:df:be:15:7c:0e:a6:c4:ba:ea:69:
                    52:68:fb:70:50:e1:d9:97:85:ae:1a:0a:64:58:69:
                    d7:c7:79:3a:3b:8b:9c:ef:bb:eb:d9:b1:3c:ec:ad:
                    94:3b:9d:c3:74:67:25:a8:bc:53:60:66:a2:d8:a8:
                    5e:ef:2f:57:03:79:98:c5:8b:65:d1:fb:28:18:0d:
                    c1:b3:46:fc:e3:0c:b6:83:75:f8:de:ae:02:34:9a:
                    2c:77:bd:bd:7c:75:af:d4:f5:78:c2:7f:97:30:d7:
                    29:54:b8:5c:68:92:d9:8b:4d:d4:fe:6a:ec:b5:cb:
                    80:48:2c:8d:12:09:e8:bc:f6:77:4d:ae:a2:c3:cc:
                    c8:10:a8:59:e1:d9:a3:b3:75:79:28:6a:98:27:52:
                    51:46:e1:cb:96:2a:77:5f:36:76:21:67:0f:7a:a0:
                    e6:2b:e7:6f:cd:7c:50:53:38:d8:d1:8b:34:4e:7d:
                    5a:45:33:7c:f1:6d:0a:0e:8a:0e:11:45:ec:9b:81:
                    58:4c:0c:fc:06:c4:15:a1:b7:5a:f3:2d:4f:5a:c0:
                    f5:c4:6d:0f:ac:b9:f6:54:61:4c:a8:31:33:3d:42:
                    44:d7
                Exponent: 65537 (0x10001)
        X509v3 extensions:
            X509v3 Basic Constraints: 
                CA:FALSE
            X509v3 Subject Key Identifier: 
                3D:17:89:1F:71:ED:74:2C:02:61:7C:59:B0:3F:B2:53:71:15:59:A0
            X509v3 Authority Key Identifier: 
                keyid:BC:6B:00:18:AC:CF:FE:38:AC:3E:AF:02:C4:C6:31:26:49:98:56:A8
                DirName:/CN=team386-net
                serial:23:42:19:23:85:12:78:06:1B:FC:78:12:BC:07:74:AB:54:A8:74:A2
            X509v3 Extended Key Usage: 
                TLS Web Server Authentication
            X509v3 Key Usage: 
                Digital Signature, Key Encipherment
            X509v3 Subject Alternative Name: 
                DNS:team386-server
    Signature Algorithm: sha256WithRSAEncryption
    Signature Value:
        2d:e8:66:eb:1d:99:a5:95:04:90:d0:1f:5f:e8:d2:3f:17:ae:
        f8:a5:5a:ac:46:52:9a:99:1c:4a:b2:50:31:8c:0c:31:a0:cb:
        75:ad:df:f7:cb:74:53:2c:ef:0a:e8:61:25:72:f4:7e:62:df:
        80:00:00:b7:2b:72:08:a6:a0:5d:a8:80:20:3e:a2:ff:b2:b4:
        7e:ea:ca:06:38:1d:13:ae:f7:be:0e:db:96:20:33:6e:f3:67:
        df:c8:36:f7:c6:9f:cb:e7:69:de:55:b8:14:24:1d:c9:36:43:
        e2:64:77:52:f3:a7:9c:c5:ac:5d:f5:83:46:53:85:f4:db:5e:
        02:f6:54:0f:35:b1:95:7b:81:e0:e0:bf:cd:1c:db:5c:9a:03:
        fe:59:26:2a:12:c3:73:d7:de:b9:18:d1:f1:89:89:05:e7:4c:
        a3:fe:ee:38:af:b3:87:e3:00:a6:23:0e:b8:83:fd:62:ce:58:
        42:b4:71:77:26:2b:c0:dc:53:73:b3:4e:1a:c3:5b:db:86:78:
        43:18:05:41:05:e2:cd:99:50:a8:78:29:53:e3:9a:10:75:eb:
        fb:46:55:da:56:b6:23:f3:a3:5d:50:d5:9b:08:ce:29:eb:b4:
        70:b7:2d:3e:db:0e:47:c3:a1:b8:01:12:b3:00:83:21:f7:3b:
        3a:fe:80:51
-----BEGIN CERTIFICATE-----
MIIDeDCCAmCgAwIBAgIRAOqeTvnG0SbfN9h4OWUUGncwDQYJKoZIhvcNAQELBQAw
FjEUMBIGA1UEAwwLdGVhbTM4Ni1uZXQwHhcNMjMxMTAzMjA0NjEzWhcNMjYxMDE4
MjA0NjEzWjAZMRcwFQYDVQQDDA50ZWFtMzg2LXNlcnZlcjCCASIwDQYJKoZIhvcN
AQEBBQADggEPADCCAQoCggEBAMMyidfxB5SbxKcTEIe7EjKqYpAwtlqB7DZmDYJu
NNCcZP/fvhV8DqbEuuppUmj7cFDh2ZeFrhoKZFhp18d5OjuLnO+769mxPOytlDud
w3RnJai8U2BmotioXu8vVwN5mMWLZdH7KBgNwbNG/OMMtoN1+N6uAjSaLHe9vXx1
r9T1eMJ/lzDXKVS4XGiS2YtN1P5q7LXLgEgsjRIJ6Lz2d02uosPMyBCoWeHZo7N1
eShqmCdSUUbhy5Yqd182diFnD3qg5ivnb818UFM42NGLNE59WkUzfPFtCg6KDhFF
7JuBWEwM/AbEFaG3WvMtT1rA9cRtD6y59lRhTKgxMz1CRNcCAwEAAaOBvTCBujAJ
BgNVHRMEAjAAMB0GA1UdDgQWBBQ9F4kfce10LAJhfFmwP7JTcRVZoDBRBgNVHSME
SjBIgBS8awAYrM/+OKw+rwLExjEmSZhWqKEapBgwFjEUMBIGA1UEAwwLdGVhbTM4
Ni1uZXSCFCNCGSOFEngGG/x4ErwHdKtUqHSiMBMGA1UdJQQMMAoGCCsGAQUFBwMB
MAsGA1UdDwQEAwIFoDAZBgNVHREEEjAQgg50ZWFtMzg2LXNlcnZlcjANBgkqhkiG
9w0BAQsFAAOCAQEALehm6x2ZpZUEkNAfX+jSPxeu+KVarEZSmpkcSrJQMYwMMaDL
da3f98t0UyzvCuhhJXL0fmLfgAAAtytyCKagXaiAID6i/7K0furKBjgdE673vg7b
liAzbvNn38g298afy+dp3lW4FCQdyTZD4mR3UvOnnMWsXfWDRlOF9NteAvZUDzWx
lXuB4OC/zRzbXJoD/lkmKhLDc9feuRjR8YmJBedMo/7uOK+zh+MApiMOuIP9Ys5Y
QrRxdyYrwNxTc7NOGsNb24Z4QxgFQQXizZlQqHgpU+OaEHXr+0ZV2la2I/OjXVDV
mwjOKeu0cLctPtsOR8OhuAESswCDIfc7Ov6AUQ==
-----END CERTIFICATE-----
