Certificate:
    Data:
        Version: 3 (0x2)
        Serial Number:
            fe:0c:7e:d8:c6:8f:4a:c7:02:dd:a0:5b:c1:ff:85:2e
        Signature Algorithm: sha256WithRSAEncryption
        Issuer: CN=team431-net
        Validity
            Not Before: Nov  3 20:47:04 2023 GMT
            Not After : Oct 18 20:47:04 2026 GMT
        Subject: CN=team431-client
        Subject Public Key Info:
            Public Key Algorithm: rsaEncryption
                Public-Key: (2048 bit)
                Modulus:
                    00:b5:be:e6:e9:3d:a9:4c:60:5e:ee:02:1f:25:00:
                    44:56:15:74:f2:56:a9:2c:e7:6c:37:12:73:90:28:
                    66:b1:a9:37:9b:0e:24:31:17:52:cd:e0:e5:1f:5f:
                    fe:1a:c8:e9:8e:9b:ba:f1:15:eb:a8:f6:c6:fc:c6:
                    c9:ec:88:8f:1c:52:75:ae:02:3d:14:42:fa:92:b2:
                    72:bd:b8:f3:de:46:e6:56:44:90:e1:fc:e9:d5:97:
                    e4:7e:e4:58:06:e8:32:a8:b3:58:d3:3f:e6:16:c7:
                    21:ce:84:e6:8e:31:36:92:27:2a:a1:3e:f6:87:94:
                    af:33:de:48:17:4a:7e:65:8d:46:dd:b2:4b:db:b9:
                    10:76:d6:a3:af:ad:89:ee:ae:d7:e1:51:2a:f1:11:
                    28:7a:15:b3:4f:f6:ee:3c:09:b4:cd:4c:3a:39:6c:
                    32:e1:ef:2d:cb:3e:61:b3:dd:9b:65:f8:14:ad:44:
                    8d:4a:b9:7a:eb:ed:45:9c:73:b5:9e:3e:63:a3:31:
                    e2:91:b8:8a:a1:1f:20:6d:fd:99:66:fe:e6:7f:98:
                    74:0c:74:a8:08:4c:a2:a6:ca:93:3e:90:45:50:6a:
                    94:4e:77:3d:3e:30:66:82:ab:d0:37:61:64:ab:10:
                    fe:a6:8a:d8:b4:02:de:9a:a3:57:71:5c:c6:22:2c:
                    28:0d
                Exponent: 65537 (0x10001)
        X509v3 extensions:
            X509v3 Basic Constraints: 
                CA:FALSE
            X509v3 Subject Key Identifier: 
                F7:48:09:02:B6:9B:5D:91:B5:BF:91:5A:58:71:17:34:AC:01:12:0F
            X509v3 Authority Key Identifier: 
                keyid:C6:40:23:AE:74:E9:54:61:88:8F:C0:43:9D:76:31:AD:D5:73:CE:81
                DirName:/CN=team431-net
                serial:38:A7:C1:9A:24:EF:CC:3F:CC:6C:43:15:76:B2:72:D6:47:28:24:F9
            X509v3 Extended Key Usage: 
                TLS Web Client Authentication
            X509v3 Key Usage: 
                Digital Signature
    Signature Algorithm: sha256WithRSAEncryption
    Signature Value:
        18:10:85:98:e1:13:fb:9a:01:b2:1f:94:c4:8e:f0:86:9e:ba:
        85:b0:78:39:aa:ef:69:13:ec:b5:7a:c6:c5:92:4a:f4:9b:d8:
        fb:cb:77:96:86:c2:6f:88:82:c8:f7:da:71:94:72:0e:7f:c8:
        35:0a:4f:0c:91:74:0b:ff:fe:9e:62:e8:d5:bc:66:1d:1d:e3:
        4f:eb:1c:fc:a3:42:22:03:9a:65:d6:86:1f:8e:1c:b4:a6:c1:
        a7:5e:91:b3:aa:0d:2a:b1:e9:5d:ae:ab:73:ee:5b:2d:6a:30:
        74:b4:dd:37:6d:b9:33:9f:a3:b7:60:48:69:49:64:32:dc:d5:
        41:bd:64:0a:3c:30:98:33:ce:48:37:f1:f3:16:5a:b5:63:18:
        58:72:ba:26:d6:c6:c6:e1:07:d2:2f:a9:09:a3:fc:47:3e:73:
        c6:b5:9f:5b:60:a6:d1:30:cc:54:86:d1:8b:9f:5c:bf:6f:11:
        a7:02:3c:12:35:7b:f5:7d:c7:12:4e:01:a5:84:74:f2:73:4b:
        9c:02:ee:c8:5f:43:44:19:e7:8a:98:e8:99:c8:3a:76:40:34:
        c6:39:82:d7:79:51:cd:bb:b5:01:f3:20:e0:4f:d2:ba:8d:df:
        84:2c:4e:af:d1:6f:9a:a0:59:70:d6:40:f6:3d:d0:6d:fa:0c:
        42:b5:18:53
-----BEGIN CERTIFICATE-----
MIIDXTCCAkWgAwIBAgIRAP4MftjGj0rHAt2gW8H/hS4wDQYJKoZIhvcNAQELBQAw
FjEUMBIGA1UEAwwLdGVhbTQzMS1uZXQwHhcNMjMxMTAzMjA0NzA0WhcNMjYxMDE4
MjA0NzA0WjAZMRcwFQYDVQQDDA50ZWFtNDMxLWNsaWVudDCCASIwDQYJKoZIhvcN
AQEBBQADggEPADCCAQoCggEBALW+5uk9qUxgXu4CHyUARFYVdPJWqSznbDcSc5Ao
ZrGpN5sOJDEXUs3g5R9f/hrI6Y6buvEV66j2xvzGyeyIjxxSda4CPRRC+pKycr24
895G5lZEkOH86dWX5H7kWAboMqizWNM/5hbHIc6E5o4xNpInKqE+9oeUrzPeSBdK
fmWNRt2yS9u5EHbWo6+tie6u1+FRKvERKHoVs0/27jwJtM1MOjlsMuHvLcs+YbPd
m2X4FK1EjUq5euvtRZxztZ4+Y6Mx4pG4iqEfIG39mWb+5n+YdAx0qAhMoqbKkz6Q
RVBqlE53PT4wZoKr0DdhZKsQ/qaK2LQC3pqjV3FcxiIsKA0CAwEAAaOBojCBnzAJ
BgNVHRMEAjAAMB0GA1UdDgQWBBT3SAkCtptdkbW/kVpYcRc0rAESDzBRBgNVHSME
SjBIgBTGQCOudOlUYYiPwEOddjGt1XPOgaEapBgwFjEUMBIGA1UEAwwLdGVhbTQz
MS1uZXSCFDinwZok78w/zGxDFXayctZHKCT5MBMGA1UdJQQMMAoGCCsGAQUFBwMC
MAsGA1UdDwQEAwIHgDANBgkqhkiG9w0BAQsFAAOCAQEAGBCFmOET+5oBsh+UxI7w
hp66hbB4OarvaRPstXrGxZJK9JvY+8t3lobCb4iCyPfacZRyDn/INQpPDJF0C//+
nmLo1bxmHR3jT+sc/KNCIgOaZdaGH44ctKbBp16Rs6oNKrHpXa6rc+5bLWowdLTd
N225M5+jt2BIaUlkMtzVQb1kCjwwmDPOSDfx8xZatWMYWHK6JtbGxuEH0i+pCaP8
Rz5zxrWfW2Cm0TDMVIbRi59cv28RpwI8EjV79X3HEk4BpYR08nNLnALuyF9DRBnn
ipjomcg6dkA0xjmC13lRzbu1AfMg4E/Suo3fhCxOr9FvmqBZcNZA9j3QbfoMQrUY
Uw==
-----END CERTIFICATE-----
