Certificate:
    Data:
        Version: 3 (0x2)
        Serial Number:
            e6:04:55:2e:5a:99:9b:2b:6e:9a:43:ee:e7:0c:7f:d4
        Signature Algorithm: sha256WithRSAEncryption
        Issuer: CN=team223-net
        Validity
            Not Before: Nov  3 20:43:24 2023 GMT
            Not After : Oct 18 20:43:24 2026 GMT
        Subject: CN=team223-client
        Subject Public Key Info:
            Public Key Algorithm: rsaEncryption
                Public-Key: (2048 bit)
                Modulus:
                    00:a4:2e:79:09:9f:bc:f3:00:07:df:b2:55:08:c2:
                    0c:42:df:6c:e8:53:3b:6b:13:48:15:95:c6:8c:c4:
                    06:c3:db:93:16:4a:9e:d3:5f:57:ad:ff:1b:f9:b3:
                    b5:71:a6:8d:f2:83:28:86:0e:30:a4:48:2b:d3:ee:
                    d3:9d:13:73:10:03:60:e2:1b:d8:78:7e:3d:6d:b2:
                    18:18:93:ab:5b:11:36:38:d9:9d:dc:71:63:b5:eb:
                    67:2a:bc:3f:90:8d:21:e5:b4:22:e5:0e:81:57:92:
                    d4:f9:2d:f7:1b:74:d7:b4:7a:41:66:f0:aa:c0:96:
                    4a:4b:6d:c0:5b:29:c7:93:4f:72:a8:75:0d:cd:d9:
                    68:ce:49:f9:69:a3:95:51:a2:a2:be:29:af:c8:ef:
                    e2:28:c0:de:12:6b:cb:5f:c5:19:c2:82:8c:a0:99:
                    d2:5b:ac:25:27:15:29:89:a1:d8:d2:a8:9e:05:b2:
                    1a:d5:d4:39:83:05:0e:63:02:01:36:e2:f2:1a:85:
                    03:1d:66:45:b7:7c:9d:ed:e3:29:0a:5f:2f:a7:42:
                    ef:e1:08:f0:91:d2:b5:c1:0b:54:ac:1e:51:dc:59:
                    20:f6:5d:12:1f:03:2b:38:97:b1:d8:a6:18:07:00:
                    10:3f:03:7a:b9:d6:a1:d1:e4:13:51:54:d3:f6:4b:
                    09:a3
                Exponent: 65537 (0x10001)
        X509v3 extensions:
            X509v3 Basic Constraints: 
                CA:FALSE
            X509v3 Subject Key Identifier: 
                8B:17:77:DE:7B:57:B7:8B:01:B5:6A:7D:CE:D0:45:74:56:95:3D:56
            X509v3 Authority Key Identifier: 
                keyid:C6:D7:FC:01:68:45:57:8F:DA:C4:AD:6E:61:11:F7:04:1A:E6:01:F4
                DirName:/CN=team223-net
                serial:34:24:92:78:0C:F5:5A:08:9E:50:04:E7:CB:09:81:CA:27:4C:A2:6B
            X509v3 Extended Key Usage: 
                TLS Web Client Authentication
            X509v3 Key Usage: 
                Digital Signature
    Signature Algorithm: sha256WithRSAEncryption
    Signature Value:
        b5:bd:ee:79:a9:a0:e3:fe:3b:9e:df:f5:65:9b:76:a2:0e:a0:
        f0:89:40:7b:3d:4b:38:85:cd:d2:32:6a:ae:38:98:cf:b5:0b:
        ef:14:50:ce:89:a0:ed:bc:5e:6d:97:b9:e9:f0:84:1d:75:56:
        40:7d:8a:b2:c8:0c:c7:07:c7:fc:d4:3a:5b:76:d1:58:6e:63:
        54:1d:ec:91:b9:99:b9:89:6c:fb:d8:6c:48:7b:ce:f2:74:8c:
        5f:f1:64:db:67:00:7c:79:5e:23:8c:f3:98:ce:56:e9:75:65:
        bc:57:0a:eb:0a:0b:1e:06:64:8b:e9:39:72:07:6e:ba:b9:e2:
        b4:41:32:5b:92:91:6e:df:5a:8c:cc:ad:df:14:65:35:79:cf:
        c9:31:40:2b:96:c8:79:b6:91:cb:50:c4:c7:06:50:e5:dc:82:
        69:d4:64:e0:5e:76:59:87:4e:f9:22:e4:43:9f:72:09:29:2a:
        dc:6e:0e:81:ea:4c:96:bd:11:39:bd:27:6c:08:d4:be:7b:06:
        31:27:2e:b5:2b:5e:25:0f:31:a9:32:b0:b7:c6:5a:7b:30:bf:
        0e:4d:ce:4e:1b:66:75:87:0b:09:56:3d:ee:cb:df:a7:69:de:
        87:90:32:61:3a:8e:43:e3:f9:e2:e3:3f:80:87:cc:d0:00:40:
        6d:e3:fb:ac
-----BEGIN CERTIFICATE-----
MIIDXTCCAkWgAwIBAgIRAOYEVS5amZsrbppD7ucMf9QwDQYJKoZIhvcNAQELBQAw
FjEUMBIGA1UEAwwLdGVhbTIyMy1uZXQwHhcNMjMxMTAzMjA0MzI0WhcNMjYxMDE4
MjA0MzI0WjAZMRcwFQYDVQQDDA50ZWFtMjIzLWNsaWVudDCCASIwDQYJKoZIhvcN
AQEBBQADggEPADCCAQoCggEBAKQueQmfvPMAB9+yVQjCDELfbOhTO2sTSBWVxozE
BsPbkxZKntNfV63/G/mztXGmjfKDKIYOMKRIK9Pu050TcxADYOIb2Hh+PW2yGBiT
q1sRNjjZndxxY7XrZyq8P5CNIeW0IuUOgVeS1Pkt9xt017R6QWbwqsCWSkttwFsp
x5NPcqh1Dc3ZaM5J+WmjlVGior4pr8jv4ijA3hJry1/FGcKCjKCZ0lusJScVKYmh
2NKongWyGtXUOYMFDmMCATbi8hqFAx1mRbd8ne3jKQpfL6dC7+EI8JHStcELVKwe
UdxZIPZdEh8DKziXsdimGAcAED8DernWodHkE1FU0/ZLCaMCAwEAAaOBojCBnzAJ
BgNVHRMEAjAAMB0GA1UdDgQWBBSLF3fee1e3iwG1an3O0EV0VpU9VjBRBgNVHSME
SjBIgBTG1/wBaEVXj9rErW5hEfcEGuYB9KEapBgwFjEUMBIGA1UEAwwLdGVhbTIy
My1uZXSCFDQkkngM9VoInlAE58sJgconTKJrMBMGA1UdJQQMMAoGCCsGAQUFBwMC
MAsGA1UdDwQEAwIHgDANBgkqhkiG9w0BAQsFAAOCAQEAtb3ueamg4/47nt/1ZZt2
og6g8IlAez1LOIXN0jJqrjiYz7UL7xRQzomg7bxebZe56fCEHXVWQH2KssgMxwfH
/NQ6W3bRWG5jVB3skbmZuYls+9hsSHvO8nSMX/Fk22cAfHleI4zzmM5W6XVlvFcK
6woLHgZki+k5cgduurnitEEyW5KRbt9ajMyt3xRlNXnPyTFAK5bIebaRy1DExwZQ
5dyCadRk4F52WYdO+SLkQ59yCSkq3G4OgepMlr0ROb0nbAjUvnsGMScutSteJQ8x
qTKwt8ZaezC/Dk3OThtmdYcLCVY97svfp2neh5AyYTqOQ+P54uM/gIfM0ABAbeP7
rA==
-----END CERTIFICATE-----
