Certificate:
    Data:
        Version: 3 (0x2)
        Serial Number:
            ef:60:6b:12:45:78:4b:59:bf:db:5e:88:7a:d9:cd:f0
        Signature Algorithm: sha256WithRSAEncryption
        Issuer: CN=team111-net
        Validity
            Not Before: Nov  3 20:41:08 2023 GMT
            Not After : Oct 18 20:41:08 2026 GMT
        Subject: CN=team111-server
        Subject Public Key Info:
            Public Key Algorithm: rsaEncryption
                Public-Key: (2048 bit)
                Modulus:
                    00:8c:20:14:63:70:25:b8:c0:a3:2c:22:98:ce:e6:
                    bf:80:ea:d3:1a:27:17:77:f8:54:a6:aa:ed:3b:e3:
                    de:d9:cb:bb:51:fb:bf:ad:0b:7f:58:e4:cf:81:4b:
                    9a:16:3a:9a:51:c9:34:4d:96:dc:3b:fd:57:9e:b2:
                    b0:3d:73:4d:18:6e:3a:1b:a6:b4:b0:a0:a1:20:4d:
                    57:37:f3:63:cc:61:7b:97:87:25:70:89:0f:ee:36:
                    04:0b:f4:cc:9a:2b:26:64:fd:a9:5b:fa:d2:6f:29:
                    74:0b:b5:33:54:a4:34:c2:77:a8:21:67:58:49:f8:
                    83:a8:94:8b:cf:38:23:33:85:95:27:d0:7b:f0:5f:
                    b5:b7:0e:e2:2f:44:9a:18:cb:46:95:9d:41:ac:8b:
                    3d:7e:7e:45:10:cc:6f:e9:c6:73:09:37:dd:d0:8d:
                    30:90:6e:a4:83:45:49:1d:43:62:ee:a8:dc:c4:92:
                    cc:5f:69:a5:5f:dd:97:ec:73:34:46:75:8f:86:a6:
                    c7:4b:90:d3:a1:10:93:f7:00:8f:fd:f8:46:e3:54:
                    0c:51:7d:66:24:91:41:a1:5c:0b:d6:95:82:56:4d:
                    db:ab:2f:6e:d5:4a:a2:fa:ff:b5:59:8e:96:35:f2:
                    d4:06:1e:df:3c:de:7f:9b:c7:9a:aa:dc:3d:3e:da:
                    38:3d
                Exponent: 65537 (0x10001)
        X509v3 extensions:
            X509v3 Basic Constraints: 
                CA:FALSE
            X509v3 Subject Key Identifier: 
                FB:03:BC:B3:C6:2B:7A:BC:45:A9:15:92:07:91:87:4A:29:37:AF:A7
            X509v3 Authority Key Identifier: 
                keyid:26:CC:1C:27:44:8D:3C:95:36:99:28:B8:6B:15:B8:C4:1E:70:41:2C
                DirName:/CN=team111-net
                serial:45:32:8C:30:47:D0:B8:B6:A5:82:AF:42:E8:CB:A2:50:9F:C6:95:07
            X509v3 Extended Key Usage: 
                TLS Web Server Authentication
            X509v3 Key Usage: 
                Digital Signature, Key Encipherment
            X509v3 Subject Alternative Name: 
                DNS:team111-server
    Signature Algorithm: sha256WithRSAEncryption
    Signature Value:
        86:c8:70:a5:da:f6:1a:60:8d:23:34:35:c9:c7:ac:79:8c:1a:
        7c:35:67:36:1f:df:b4:f1:03:5c:4b:5a:28:a5:6e:7c:06:d6:
        85:d2:ab:38:a4:19:05:18:f1:d3:3a:f7:8b:53:b7:e5:39:84:
        37:2e:a6:66:cd:f9:ab:aa:a1:c0:0e:b5:36:04:29:b0:88:10:
        0c:fa:1a:98:6e:cb:ca:80:e3:7d:46:1d:aa:5f:f3:ed:98:2a:
        ca:6f:74:d1:d5:7c:4b:bb:5f:68:5b:34:57:ff:f6:e7:81:50:
        34:86:97:bf:a9:5b:ab:88:c6:a4:ec:f5:5b:50:9a:21:6b:41:
        6c:3d:eb:5c:1e:37:1e:48:29:64:72:5c:8e:f1:75:f1:f6:cc:
        de:ff:a1:a3:68:8f:74:78:57:c0:47:a3:8b:70:da:9f:03:b9:
        51:ba:08:4b:66:d7:2b:8e:72:5a:a8:c2:b2:70:fd:58:9c:4a:
        b8:a8:f7:17:1e:31:2c:90:9c:79:ad:3a:30:1a:46:1b:12:fd:
        69:ac:6f:95:f2:ca:90:c8:f1:be:2b:b8:0c:a4:85:cf:a8:eb:
        ec:76:18:52:23:9f:4f:54:43:0f:da:4b:2f:6e:ce:47:31:71:
        55:ea:b0:e3:6a:b9:3d:d0:a5:3a:dc:07:f2:c8:b0:4f:17:c9:
        cf:ae:6d:e3
-----BEGIN CERTIFICATE-----
MIIDeDCCAmCgAwIBAgIRAO9gaxJFeEtZv9teiHrZzfAwDQYJKoZIhvcNAQELBQAw
FjEUMBIGA1UEAwwLdGVhbTExMS1uZXQwHhcNMjMxMTAzMjA0MTA4WhcNMjYxMDE4
MjA0MTA4WjAZMRcwFQYDVQQDDA50ZWFtMTExLXNlcnZlcjCCASIwDQYJKoZIhvcN
AQEBBQADggEPADCCAQoCggEBAIwgFGNwJbjAoywimM7mv4Dq0xonF3f4VKaq7Tvj
3tnLu1H7v60Lf1jkz4FLmhY6mlHJNE2W3Dv9V56ysD1zTRhuOhumtLCgoSBNVzfz
Y8xhe5eHJXCJD+42BAv0zJorJmT9qVv60m8pdAu1M1SkNMJ3qCFnWEn4g6iUi884
IzOFlSfQe/BftbcO4i9EmhjLRpWdQayLPX5+RRDMb+nGcwk33dCNMJBupINFSR1D
Yu6o3MSSzF9ppV/dl+xzNEZ1j4amx0uQ06EQk/cAj/34RuNUDFF9ZiSRQaFcC9aV
glZN26svbtVKovr/tVmOljXy1AYe3zzef5vHmqrcPT7aOD0CAwEAAaOBvTCBujAJ
BgNVHRMEAjAAMB0GA1UdDgQWBBT7A7yzxit6vEWpFZIHkYdKKTevpzBRBgNVHSME
SjBIgBQmzBwnRI08lTaZKLhrFbjEHnBBLKEapBgwFjEUMBIGA1UEAwwLdGVhbTEx
MS1uZXSCFEUyjDBH0Li2pYKvQujLolCfxpUHMBMGA1UdJQQMMAoGCCsGAQUFBwMB
MAsGA1UdDwQEAwIFoDAZBgNVHREEEjAQgg50ZWFtMTExLXNlcnZlcjANBgkqhkiG
9w0BAQsFAAOCAQEAhshwpdr2GmCNIzQ1yceseYwafDVnNh/ftPEDXEtaKKVufAbW
hdKrOKQZBRjx0zr3i1O35TmENy6mZs35q6qhwA61NgQpsIgQDPoamG7LyoDjfUYd
ql/z7Zgqym900dV8S7tfaFs0V//254FQNIaXv6lbq4jGpOz1W1CaIWtBbD3rXB43
HkgpZHJcjvF18fbM3v+ho2iPdHhXwEeji3DanwO5UboIS2bXK45yWqjCsnD9WJxK
uKj3Fx4xLJCcea06MBpGGxL9aaxvlfLKkMjxviu4DKSFz6jr7HYYUiOfT1RDD9pL
L27ORzFxVeqw42q5PdClOtwH8siwTxfJz65t4w==
-----END CERTIFICATE-----
