Certificate:
    Data:
        Version: 3 (0x2)
        Serial Number:
            d1:69:3e:d4:ae:ef:76:7e:d5:a0:8a:bf:2e:46:a7
        Signature Algorithm: sha256WithRSAEncryption
        Issuer: CN=team395-net
        Validity
            Not Before: Nov  3 20:46:23 2023 GMT
            Not After : Oct 18 20:46:23 2026 GMT
        Subject: CN=team395-server
        Subject Public Key Info:
            Public Key Algorithm: rsaEncryption
                Public-Key: (2048 bit)
                Modulus:
                    00:ae:bd:ff:5b:6a:b8:ca:88:f6:d6:da:53:33:b0:
                    b3:82:bf:25:60:4b:1b:8c:7a:d2:b3:90:90:85:0b:
                    5b:09:cf:d5:0b:ee:b2:ff:4d:e0:16:f8:56:e7:12:
                    c0:85:57:84:35:88:b2:ef:97:37:94:39:3b:5c:b3:
                    c5:2f:bd:a8:3e:94:47:85:ef:1c:7e:97:3c:4c:7e:
                    83:7c:b0:c7:a4:18:e3:c7:3e:b5:63:e2:ed:ef:54:
                    91:76:a5:fe:f5:6f:01:c5:f1:6e:14:55:c0:6c:3c:
                    a1:ad:45:43:8e:b5:94:61:93:d0:c5:0b:e4:29:dc:
                    61:60:3a:59:63:f8:be:91:af:0d:d5:1b:5c:ba:e0:
                    f5:01:8b:62:aa:1e:f3:8a:aa:9e:34:c5:af:53:29:
                    e9:3a:ac:20:9b:54:21:13:09:5f:c2:53:e2:09:d0:
                    43:0b:08:0c:80:15:30:da:f8:f0:c4:c7:71:e0:d0:
                    7e:1d:e8:ab:4c:3c:84:44:73:84:d9:5b:7d:83:3a:
                    d1:ce:9a:6c:cc:7d:48:16:06:90:f9:de:91:9b:18:
                    98:45:f1:bd:88:8c:e1:62:4f:63:45:1a:ed:7b:1d:
                    a2:1c:46:91:3d:91:8a:ce:ea:75:f0:48:44:7b:8d:
                    88:cf:8a:05:c5:bb:c4:e2:fb:ed:a0:92:26:42:83:
                    79:d9
                Exponent: 65537 (0x10001)
        X509v3 extensions:
            X509v3 Basic Constraints: 
                CA:FALSE
            X509v3 Subject Key Identifier: 
                30:20:37:BD:F4:B7:3E:BC:78:62:8C:0B:D6:A1:C4:A2:3A:04:B8:EE
            X509v3 Authority Key Identifier: 
                keyid:8B:B6:72:71:A9:DF:69:D3:2A:E4:43:2D:B1:5D:50:8C:7C:A3:A3:40
                DirName:/CN=team395-net
                serial:6A:B2:49:63:2E:CC:09:08:FB:19:78:F9:1B:40:EA:40:EF:E9:BC:2C
            X509v3 Extended Key Usage: 
                TLS Web Server Authentication
            X509v3 Key Usage: 
                Digital Signature, Key Encipherment
            X509v3 Subject Alternative Name: 
                DNS:team395-server
    Signature Algorithm: sha256WithRSAEncryption
    Signature Value:
        0d:00:42:2e:0d:f7:c1:50:88:5e:7c:e4:d8:32:56:aa:55:74:
        fe:b0:fe:91:64:92:9b:b1:e2:fa:ac:48:16:54:9b:a0:8e:a3:
        4c:91:1a:ed:2e:db:6d:bb:b1:2a:2f:31:3e:15:a0:d3:9b:ec:
        00:b6:c6:db:9c:b8:67:80:1e:68:e3:1b:b8:6c:d1:ed:18:c2:
        90:db:24:cf:e8:12:84:b4:03:a3:86:ae:77:b4:4d:52:bc:94:
        74:af:ce:fb:47:7c:2f:aa:dc:c5:78:e0:7b:84:0a:94:71:3b:
        f8:7e:a4:dd:2f:e1:70:f0:4d:e4:d7:f5:52:42:c3:1f:7e:40:
        9e:36:25:5e:52:85:17:02:39:04:14:c6:80:6c:77:f1:98:53:
        29:a9:8f:9a:ce:50:b4:18:de:9f:f2:d7:b7:cc:b2:8b:56:b9:
        72:47:cc:44:91:7a:de:28:8e:2c:78:f0:58:90:db:cb:b6:f0:
        2b:85:61:6b:59:25:5b:a7:6a:fa:1b:43:ff:8e:56:09:77:44:
        3d:85:e8:b3:78:a1:7b:90:e0:7e:6e:88:be:0f:d0:ab:eb:1d:
        a8:d2:8c:1e:b3:c9:c5:16:c2:c1:24:d5:d9:0f:ab:15:4a:dd:
        20:0f:b2:60:6f:5b:85:4d:4d:b8:28:7f:73:77:1c:f8:36:10:
        a5:91:59:a4
-----BEGIN CERTIFICATE-----
MIIDdzCCAl+gAwIBAgIQANFpPtSu73Z+1aCKvy5GpzANBgkqhkiG9w0BAQsFADAW
MRQwEgYDVQQDDAt0ZWFtMzk1LW5ldDAeFw0yMzExMDMyMDQ2MjNaFw0yNjEwMTgy
MDQ2MjNaMBkxFzAVBgNVBAMMDnRlYW0zOTUtc2VydmVyMIIBIjANBgkqhkiG9w0B
AQEFAAOCAQ8AMIIBCgKCAQEArr3/W2q4yoj21tpTM7Czgr8lYEsbjHrSs5CQhQtb
Cc/VC+6y/03gFvhW5xLAhVeENYiy75c3lDk7XLPFL72oPpRHhe8cfpc8TH6DfLDH
pBjjxz61Y+Lt71SRdqX+9W8BxfFuFFXAbDyhrUVDjrWUYZPQxQvkKdxhYDpZY/i+
ka8N1RtcuuD1AYtiqh7ziqqeNMWvUynpOqwgm1QhEwlfwlPiCdBDCwgMgBUw2vjw
xMdx4NB+HeirTDyERHOE2Vt9gzrRzppszH1IFgaQ+d6RmxiYRfG9iIzhYk9jRRrt
ex2iHEaRPZGKzup18EhEe42Iz4oFxbvE4vvtoJImQoN52QIDAQABo4G9MIG6MAkG
A1UdEwQCMAAwHQYDVR0OBBYEFDAgN730tz68eGKMC9ahxKI6BLjuMFEGA1UdIwRK
MEiAFIu2cnGp32nTKuRDLbFdUIx8o6NAoRqkGDAWMRQwEgYDVQQDDAt0ZWFtMzk1
LW5ldIIUarJJYy7MCQj7GXj5G0DqQO/pvCwwEwYDVR0lBAwwCgYIKwYBBQUHAwEw
CwYDVR0PBAQDAgWgMBkGA1UdEQQSMBCCDnRlYW0zOTUtc2VydmVyMA0GCSqGSIb3
DQEBCwUAA4IBAQANAEIuDffBUIhefOTYMlaqVXT+sP6RZJKbseL6rEgWVJugjqNM
kRrtLtttu7EqLzE+FaDTm+wAtsbbnLhngB5o4xu4bNHtGMKQ2yTP6BKEtAOjhq53
tE1SvJR0r877R3wvqtzFeOB7hAqUcTv4fqTdL+Fw8E3k1/VSQsMffkCeNiVeUoUX
AjkEFMaAbHfxmFMpqY+azlC0GN6f8te3zLKLVrlyR8xEkXreKI4sePBYkNvLtvAr
hWFrWSVbp2r6G0P/jlYJd0Q9heizeKF7kOB+boi+D9Cr6x2o0owes8nFFsLBJNXZ
D6sVSt0gD7Jgb1uFTU24KH9zdxz4NhClkVmk
-----END CERTIFICATE-----
