Certificate:
    Data:
        Version: 3 (0x2)
        Serial Number:
            16:e4:52:6f:60:be:00:61:e8:ad:c6:66:04:de:0c:c0
        Signature Algorithm: sha256WithRSAEncryption
        Issuer: CN=team381-net
        Validity
            Not Before: Nov  3 20:46:08 2023 GMT
            Not After : Oct 18 20:46:08 2026 GMT
        Subject: CN=team381-client
        Subject Public Key Info:
            Public Key Algorithm: rsaEncryption
                Public-Key: (2048 bit)
                Modulus:
                    00:a8:27:b3:62:cc:21:17:6e:b2:19:bd:aa:b8:07:
                    18:88:fe:c3:a3:f1:4b:94:2e:05:b5:73:ae:55:5c:
                    ef:8a:ff:6f:96:97:38:38:41:11:c6:a3:46:60:24:
                    b4:52:9b:48:91:7d:04:32:f1:8e:2b:74:29:4f:36:
                    69:52:b6:7b:dd:f5:51:29:7f:2f:10:86:5f:e2:49:
                    d0:53:c8:9c:2d:88:00:a5:42:00:ef:d8:3c:91:e1:
                    4c:9b:27:55:e0:20:ad:48:a6:5b:e0:ba:0c:28:1f:
                    4a:7f:10:f8:63:55:f9:31:ab:5f:ed:cf:50:ad:72:
                    21:22:57:ca:33:d2:97:c8:cb:85:f7:1c:82:70:4b:
                    3c:6e:29:08:62:22:51:95:bc:82:03:fb:9e:eb:e4:
                    77:4b:e0:87:58:aa:70:bd:ba:af:07:04:c0:91:78:
                    da:38:ed:f6:0f:62:1b:2b:29:a2:00:8e:fa:5c:ec:
                    81:e4:3b:af:3b:70:fa:74:ae:6d:8a:1a:c6:29:a3:
                    7f:f3:95:e3:88:18:48:70:24:cf:52:c2:5b:51:77:
                    11:df:15:ce:ad:20:bb:9e:62:9b:8a:b4:67:18:c7:
                    f5:2a:aa:31:b6:e8:d0:95:90:c9:ff:2d:e2:eb:ee:
                    28:8f:5d:3c:61:03:9d:4d:fd:ee:04:12:ac:a7:b3:
                    41:e7
                Exponent: 65537 (0x10001)
        X509v3 extensions:
            X509v3 Basic Constraints: 
                CA:FALSE
            X509v3 Subject Key Identifier: 
                8F:91:AA:CB:33:2F:42:2A:78:39:88:B9:06:D7:F1:4A:0A:BC:82:AC
            X509v3 Authority Key Identifier: 
                keyid:20:96:7A:DE:69:99:09:5C:F4:48:DD:80:DC:0D:E2:2F:F6:BF:62:0A
                DirName:/CN=team381-net
                serial:51:14:67:DA:39:4B:5B:83:24:C9:7E:FC:26:5D:8C:FD:AA:34:E3:09
            X509v3 Extended Key Usage: 
                TLS Web Client Authentication
            X509v3 Key Usage: 
                Digital Signature
    Signature Algorithm: sha256WithRSAEncryption
    Signature Value:
        75:af:c4:74:5b:1a:9d:07:5f:71:08:bd:69:bc:08:7d:68:5b:
        eb:4c:f3:d5:8e:68:bd:5f:63:d1:a9:7a:87:17:f7:42:60:0c:
        1b:a2:3c:ba:7e:2a:87:0f:2a:6a:dc:a5:43:6a:cb:db:6c:bb:
        51:8a:ab:a1:cb:3e:40:dd:d5:bc:4d:a6:74:ed:73:f1:de:88:
        10:3b:8c:5c:be:92:c0:49:69:16:60:fa:8c:29:12:b4:80:cb:
        18:c1:d5:88:75:2e:48:1d:17:f4:30:2b:67:cf:eb:d3:56:6b:
        ab:22:c9:0c:85:a4:a9:25:0d:f7:9d:92:23:81:df:6c:51:21:
        19:2b:29:3e:ea:af:e8:10:00:b9:3b:d2:8c:95:2d:f9:db:8b:
        f9:09:44:75:96:81:d2:17:1a:af:59:2a:73:36:31:ae:4b:64:
        91:9f:3e:9a:8e:0f:c1:2d:2b:dd:7c:8b:f1:68:b9:07:42:15:
        f9:be:cb:c7:81:84:04:ce:f3:21:44:45:41:36:c0:6d:3b:77:
        72:77:28:e0:13:e4:86:4e:2d:01:32:1a:3f:71:04:d4:ec:c6:
        ea:d5:72:25:bb:cf:8a:f7:53:29:1d:d1:6a:bd:3e:68:4a:1f:
        c8:4a:d1:47:32:3d:7b:14:8f:8a:af:34:63:ee:04:85:42:cc:
        7d:c1:1f:0e
-----BEGIN CERTIFICATE-----
MIIDXDCCAkSgAwIBAgIQFuRSb2C+AGHorcZmBN4MwDANBgkqhkiG9w0BAQsFADAW
MRQwEgYDVQQDDAt0ZWFtMzgxLW5ldDAeFw0yMzExMDMyMDQ2MDhaFw0yNjEwMTgy
MDQ2MDhaMBkxFzAVBgNVBAMMDnRlYW0zODEtY2xpZW50MIIBIjANBgkqhkiG9w0B
AQEFAAOCAQ8AMIIBCgKCAQEAqCezYswhF26yGb2quAcYiP7Do/FLlC4FtXOuVVzv
iv9vlpc4OEERxqNGYCS0UptIkX0EMvGOK3QpTzZpUrZ73fVRKX8vEIZf4knQU8ic
LYgApUIA79g8keFMmydV4CCtSKZb4LoMKB9KfxD4Y1X5Matf7c9QrXIhIlfKM9KX
yMuF9xyCcEs8bikIYiJRlbyCA/ue6+R3S+CHWKpwvbqvBwTAkXjaOO32D2IbKymi
AI76XOyB5DuvO3D6dK5tihrGKaN/85XjiBhIcCTPUsJbUXcR3xXOrSC7nmKbirRn
GMf1KqoxtujQlZDJ/y3i6+4oj108YQOdTf3uBBKsp7NB5wIDAQABo4GiMIGfMAkG
A1UdEwQCMAAwHQYDVR0OBBYEFI+RqsszL0IqeDmIuQbX8UoKvIKsMFEGA1UdIwRK
MEiAFCCWet5pmQlc9EjdgNwN4i/2v2IKoRqkGDAWMRQwEgYDVQQDDAt0ZWFtMzgx
LW5ldIIUURRn2jlLW4MkyX78Jl2M/ao04wkwEwYDVR0lBAwwCgYIKwYBBQUHAwIw
CwYDVR0PBAQDAgeAMA0GCSqGSIb3DQEBCwUAA4IBAQB1r8R0WxqdB19xCL1pvAh9
aFvrTPPVjmi9X2PRqXqHF/dCYAwbojy6fiqHDypq3KVDasvbbLtRiquhyz5A3dW8
TaZ07XPx3ogQO4xcvpLASWkWYPqMKRK0gMsYwdWIdS5IHRf0MCtnz+vTVmurIskM
haSpJQ33nZIjgd9sUSEZKyk+6q/oEAC5O9KMlS3524v5CUR1loHSFxqvWSpzNjGu
S2SRnz6ajg/BLSvdfIvxaLkHQhX5vsvHgYQEzvMhREVBNsBtO3dydyjgE+SGTi0B
Mho/cQTU7Mbq1XIlu8+K91MpHdFqvT5oSh/IStFHMj17FI+KrzRj7gSFQsx9wR8O
-----END CERTIFICATE-----
