Certificate:
    Data:
        Version: 3 (0x2)
        Serial Number:
            71:da:14:c9:94:66:c9:02:e2:53:52:fa:3a:45:b7:ad
        Signature Algorithm: sha256WithRSAEncryption
        Issuer: CN=team381-net
        Validity
            Not Before: Nov  4 10:47:32 2023 GMT
            Not After : Oct 19 10:47:32 2026 GMT
        Subject: CN=team381-client
        Subject Public Key Info:
            Public Key Algorithm: rsaEncryption
                Public-Key: (2048 bit)
                Modulus:
                    00:be:1f:ad:79:eb:cb:52:f1:e1:d0:ab:32:80:1e:
                    3b:cb:75:ed:52:3a:fc:de:68:12:71:ee:42:59:13:
                    b2:1c:87:19:ef:7a:4e:24:ff:99:dd:77:76:6e:e2:
                    eb:9a:c4:e1:23:14:31:a8:95:04:f2:5d:d8:fe:28:
                    c4:be:23:11:00:5d:94:37:91:66:f7:ef:91:33:c3:
                    6b:17:59:70:26:63:c3:9e:a9:8d:b7:21:53:68:f3:
                    e1:65:03:66:5c:ee:bf:ec:86:23:63:2e:84:5b:d9:
                    11:ce:b9:37:45:d3:0f:c2:17:f7:6a:62:7c:ae:b4:
                    25:ce:5f:cf:8e:00:19:30:02:f1:a8:0f:74:77:3c:
                    1e:75:ac:8d:1d:0d:e0:f6:01:c2:72:11:f1:0a:cc:
                    fc:04:cd:86:91:d8:25:7e:0b:7d:08:0c:c7:8e:4d:
                    b5:98:f0:c8:44:1f:fd:90:3d:5d:ce:b0:36:ae:92:
                    1b:95:3b:56:e3:11:93:a9:33:76:6d:7a:e2:45:f8:
                    d0:3e:e3:ec:f2:ad:00:1f:ba:cf:b9:42:1b:55:9e:
                    17:84:23:24:50:71:88:a4:3f:7b:e5:16:c7:c2:1c:
                    02:1d:a6:f3:1d:86:a4:f0:83:fe:0b:b1:af:39:15:
                    bb:19:58:95:51:00:de:e1:72:5c:17:4c:09:9f:9b:
                    64:a1
                Exponent: 65537 (0x10001)
        X509v3 extensions:
            X509v3 Basic Constraints: 
                CA:FALSE
            X509v3 Subject Key Identifier: 
                80:75:4C:42:0A:1D:CD:6B:87:AA:CC:84:24:CA:B0:36:AC:41:6B:CA
            X509v3 Authority Key Identifier: 
                keyid:18:B9:E0:88:F2:9D:67:CA:BF:E8:AD:5F:9B:FC:5E:E5:FC:09:62:6D
                DirName:/CN=team381-net
                serial:7A:92:A7:D7:FF:31:C5:AA:D2:01:58:58:EC:60:C5:5F:C2:72:AB:2D
            X509v3 Extended Key Usage: 
                TLS Web Client Authentication
            X509v3 Key Usage: 
                Digital Signature
    Signature Algorithm: sha256WithRSAEncryption
    Signature Value:
        c0:19:f4:da:8e:d7:ed:4b:b6:1f:f0:19:a9:56:21:89:a2:06:
        ec:14:c2:c2:a7:1b:7a:12:00:98:92:d7:9d:d9:66:74:1d:c1:
        a5:6d:80:24:9c:c0:75:fe:08:f9:f0:c0:ca:3d:17:d2:0a:15:
        ef:50:b3:45:45:be:55:b2:b3:00:6c:a7:f1:c0:d4:31:de:bc:
        11:ee:4e:bb:d0:b9:a0:06:ad:56:66:72:4a:53:9a:82:77:0b:
        cc:4b:8a:62:10:50:a6:82:7a:df:49:b5:86:11:52:68:20:fe:
        fc:46:c3:75:16:96:5c:89:fc:25:a0:63:c7:81:20:ed:11:1a:
        19:b3:ec:9a:b9:57:8a:1d:54:4c:01:f6:b7:05:ff:a1:74:6b:
        8e:a0:d4:50:e6:bb:82:d0:f2:06:4c:49:ea:83:e9:29:d7:9c:
        fe:ab:8c:af:77:52:5b:c7:2c:54:6e:1a:2a:65:45:62:82:87:
        49:95:36:1a:a9:8c:e7:ac:01:70:ba:d9:a8:a5:fb:e3:1c:37:
        ed:59:ad:7f:6b:d0:5f:e3:e5:30:d3:d6:6e:d8:e7:cc:49:80:
        10:6e:15:6d:62:3a:0c:a5:2c:ff:0a:17:32:a5:1d:54:01:ba:
        fd:b9:a4:0a:7c:c7:5b:73:6d:2d:4d:63:78:ae:b9:ca:64:40:
        f2:bd:62:62
-----BEGIN CERTIFICATE-----
MIIDXDCCAkSgAwIBAgIQcdoUyZRmyQLiU1L6OkW3rTANBgkqhkiG9w0BAQsFADAW
MRQwEgYDVQQDDAt0ZWFtMzgxLW5ldDAeFw0yMzExMDQxMDQ3MzJaFw0yNjEwMTkx
MDQ3MzJaMBkxFzAVBgNVBAMMDnRlYW0zODEtY2xpZW50MIIBIjANBgkqhkiG9w0B
AQEFAAOCAQ8AMIIBCgKCAQEAvh+teevLUvHh0KsygB47y3XtUjr83mgSce5CWROy
HIcZ73pOJP+Z3Xd2buLrmsThIxQxqJUE8l3Y/ijEviMRAF2UN5Fm9++RM8NrF1lw
JmPDnqmNtyFTaPPhZQNmXO6/7IYjYy6EW9kRzrk3RdMPwhf3amJ8rrQlzl/PjgAZ
MALxqA90dzwedayNHQ3g9gHCchHxCsz8BM2Gkdglfgt9CAzHjk21mPDIRB/9kD1d
zrA2rpIblTtW4xGTqTN2bXriRfjQPuPs8q0AH7rPuUIbVZ4XhCMkUHGIpD975RbH
whwCHabzHYak8IP+C7GvORW7GViVUQDe4XJcF0wJn5tkoQIDAQABo4GiMIGfMAkG
A1UdEwQCMAAwHQYDVR0OBBYEFIB1TEIKHc1rh6rMhCTKsDasQWvKMFEGA1UdIwRK
MEiAFBi54IjynWfKv+itX5v8XuX8CWJtoRqkGDAWMRQwEgYDVQQDDAt0ZWFtMzgx
LW5ldIIUepKn1/8xxarSAVhY7GDFX8Jyqy0wEwYDVR0lBAwwCgYIKwYBBQUHAwIw
CwYDVR0PBAQDAgeAMA0GCSqGSIb3DQEBCwUAA4IBAQDAGfTajtftS7Yf8BmpViGJ
ogbsFMLCpxt6EgCYkted2WZ0HcGlbYAknMB1/gj58MDKPRfSChXvULNFRb5VsrMA
bKfxwNQx3rwR7k670LmgBq1WZnJKU5qCdwvMS4piEFCmgnrfSbWGEVJoIP78RsN1
FpZcifwloGPHgSDtERoZs+yauVeKHVRMAfa3Bf+hdGuOoNRQ5ruC0PIGTEnqg+kp
15z+q4yvd1JbxyxUbhoqZUVigodJlTYaqYznrAFwutmopfvjHDftWa1/a9Bf4+Uw
09Zu2OfMSYAQbhVtYjoMpSz/ChcypR1UAbr9uaQKfMdbc20tTWN4rrnKZEDyvWJi
-----END CERTIFICATE-----
