Certificate:
    Data:
        Version: 3 (0x2)
        Serial Number:
            75:62:82:f1:56:e9:94:1a:67:c0:c4:22:c7:1b:d0:fc
        Signature Algorithm: sha256WithRSAEncryption
        Issuer: CN=team381-net
        Validity
            Not Before: Nov  4 11:36:03 2023 GMT
            Not After : Oct 19 11:36:03 2026 GMT
        Subject: CN=team381-server
        Subject Public Key Info:
            Public Key Algorithm: rsaEncryption
                Public-Key: (2048 bit)
                Modulus:
                    00:a3:6b:12:8f:58:11:5d:b6:e7:62:fb:8b:a6:40:
                    e4:9b:36:2f:d7:a2:3e:5b:78:ea:52:55:05:88:67:
                    82:a8:36:87:3a:25:0c:ab:1f:28:34:ec:19:51:03:
                    90:23:a8:d4:bf:e8:c7:c7:a1:c9:e6:23:35:e6:b4:
                    64:b8:db:ae:b7:80:5b:3c:e2:ff:33:3c:e3:d3:6e:
                    6c:3f:bb:8b:d7:6c:19:67:a8:46:33:8e:56:35:e0:
                    77:55:62:19:ca:dd:c8:2d:36:c4:a1:c3:3f:ff:53:
                    75:77:91:06:25:6a:2b:99:96:1f:2e:a6:a1:e8:c9:
                    29:fb:21:09:9f:65:7c:92:79:97:cf:e0:ea:1d:74:
                    57:be:a5:40:84:62:9f:28:6e:69:b0:e9:9c:47:93:
                    a5:ef:7e:62:c3:be:bd:e6:2c:a1:ae:64:fc:2f:74:
                    23:d2:1d:69:18:65:e4:41:6d:0d:35:54:7f:a5:c1:
                    76:c2:89:84:63:27:d0:21:cd:14:56:d7:6a:48:b7:
                    95:d1:43:a0:70:29:4f:0e:fc:be:11:6a:4c:c7:8c:
                    27:fc:f3:c9:bd:76:2b:b1:fc:f0:be:92:6c:b5:ff:
                    e4:c2:5e:31:3a:ff:38:c1:45:dd:45:8a:46:e2:3f:
                    5d:51:2e:f3:7d:6c:95:99:f7:7a:d4:94:8c:65:11:
                    65:d3
                Exponent: 65537 (0x10001)
        X509v3 extensions:
            X509v3 Basic Constraints: 
                CA:FALSE
            X509v3 Subject Key Identifier: 
                41:BF:7E:C9:E4:52:49:D2:18:97:8D:61:43:0F:4B:58:26:0A:EA:BF
            X509v3 Authority Key Identifier: 
                keyid:D6:E5:A1:DE:B7:9A:71:6E:A3:AD:10:B1:A6:F7:DC:4E:72:A0:6F:64
                DirName:/CN=team381-net
                serial:02:25:D4:9D:D7:A8:D6:30:A8:9C:0B:4D:1A:C6:90:26:47:D1:E2:38
            X509v3 Extended Key Usage: 
                TLS Web Server Authentication
            X509v3 Key Usage: 
                Digital Signature, Key Encipherment
            X509v3 Subject Alternative Name: 
                DNS:team381-server
    Signature Algorithm: sha256WithRSAEncryption
    Signature Value:
        13:31:c2:0a:b3:10:1e:fa:34:a2:45:2f:19:bc:24:f8:7d:53:
        16:c4:b4:06:28:e4:29:23:14:56:53:08:ae:e0:7f:cc:d7:61:
        84:85:f7:6a:4f:a9:48:3d:41:f8:f0:8a:eb:df:4a:94:33:06:
        71:45:ce:aa:5d:98:23:32:57:df:cb:13:ed:f7:88:0b:88:70:
        2a:64:a9:89:f1:29:be:90:45:5a:a4:b1:f0:0c:0c:2d:bb:92:
        e3:26:42:fb:89:9c:6b:0d:21:6b:c8:cb:86:79:a4:6b:a2:36:
        9c:80:1e:d7:63:15:db:34:e8:65:20:60:68:7f:0b:ba:92:fb:
        41:98:cf:ec:62:a1:ad:a5:f9:1c:9e:e0:ed:8c:a0:63:ef:81:
        8b:d3:ca:1f:5c:b5:c1:b8:36:7f:8d:a3:b9:98:f9:c8:48:22:
        7d:5e:0d:5a:c8:c6:ff:63:15:c8:a7:b0:d9:31:29:4e:92:17:
        17:06:8c:0b:08:c4:ea:26:ba:01:7f:bb:8e:9a:28:3d:ae:55:
        08:c3:47:5e:99:3e:7f:f8:cb:e9:45:17:a1:17:1c:28:d0:f1:
        06:2b:82:de:79:cb:1f:a5:34:f8:89:70:02:4c:31:cc:82:d1:
        92:4d:36:47:9d:d5:12:27:8f:d9:0b:dd:14:8a:c2:5b:98:09:
        ba:a1:b3:be
-----BEGIN CERTIFICATE-----
MIIDdzCCAl+gAwIBAgIQdWKC8VbplBpnwMQixxvQ/DANBgkqhkiG9w0BAQsFADAW
MRQwEgYDVQQDDAt0ZWFtMzgxLW5ldDAeFw0yMzExMDQxMTM2MDNaFw0yNjEwMTkx
MTM2MDNaMBkxFzAVBgNVBAMMDnRlYW0zODEtc2VydmVyMIIBIjANBgkqhkiG9w0B
AQEFAAOCAQ8AMIIBCgKCAQEAo2sSj1gRXbbnYvuLpkDkmzYv16I+W3jqUlUFiGeC
qDaHOiUMqx8oNOwZUQOQI6jUv+jHx6HJ5iM15rRkuNuut4BbPOL/Mzzj025sP7uL
12wZZ6hGM45WNeB3VWIZyt3ILTbEocM//1N1d5EGJWormZYfLqah6Mkp+yEJn2V8
knmXz+DqHXRXvqVAhGKfKG5psOmcR5Ol735iw7695iyhrmT8L3Qj0h1pGGXkQW0N
NVR/pcF2womEYyfQIc0UVtdqSLeV0UOgcClPDvy+EWpMx4wn/PPJvXYrsfzwvpJs
tf/kwl4xOv84wUXdRYpG4j9dUS7zfWyVmfd61JSMZRFl0wIDAQABo4G9MIG6MAkG
A1UdEwQCMAAwHQYDVR0OBBYEFEG/fsnkUknSGJeNYUMPS1gmCuq/MFEGA1UdIwRK
MEiAFNblod63mnFuo60Qsab33E5yoG9koRqkGDAWMRQwEgYDVQQDDAt0ZWFtMzgx
LW5ldIIUAiXUndeo1jConAtNGsaQJkfR4jgwEwYDVR0lBAwwCgYIKwYBBQUHAwEw
CwYDVR0PBAQDAgWgMBkGA1UdEQQSMBCCDnRlYW0zODEtc2VydmVyMA0GCSqGSIb3
DQEBCwUAA4IBAQATMcIKsxAe+jSiRS8ZvCT4fVMWxLQGKOQpIxRWUwiu4H/M12GE
hfdqT6lIPUH48Irr30qUMwZxRc6qXZgjMlffyxPt94gLiHAqZKmJ8Sm+kEVapLHw
DAwtu5LjJkL7iZxrDSFryMuGeaRrojacgB7XYxXbNOhlIGBofwu6kvtBmM/sYqGt
pfkcnuDtjKBj74GL08ofXLXBuDZ/jaO5mPnISCJ9Xg1ayMb/YxXIp7DZMSlOkhcX
BowLCMTqJroBf7uOmig9rlUIw0demT5/+MvpRRehFxwo0PEGK4LeecsfpTT4iXAC
TDHMgtGSTTZHndUSJ4/ZC90UisJbmAm6obO+
-----END CERTIFICATE-----
