Certificate:
    Data:
        Version: 3 (0x2)
        Serial Number:
            29:79:8c:56:97:dd:08:c8:8d:48:1b:2d:44:40:2e:c5
        Signature Algorithm: sha256WithRSAEncryption
        Issuer: CN=team104-net
        Validity
            Not Before: Nov  4 11:29:29 2023 GMT
            Not After : Oct 19 11:29:29 2026 GMT
        Subject: CN=team104-client
        Subject Public Key Info:
            Public Key Algorithm: rsaEncryption
                Public-Key: (2048 bit)
                Modulus:
                    00:ec:2c:50:ee:e0:fe:8b:a5:06:11:93:cd:75:22:
                    3a:fa:f9:66:a5:8f:a9:2c:0d:9e:2a:3a:7e:d8:c8:
                    22:21:bf:59:7a:58:ec:6c:4a:d5:70:bf:97:47:a3:
                    3f:05:40:07:90:6f:21:bf:ad:d6:75:4f:73:66:e0:
                    95:65:f7:2c:0c:34:7c:0b:f0:aa:12:6a:9b:39:ad:
                    e9:13:5b:40:35:23:8c:86:13:5c:d7:f9:a7:d8:d4:
                    ed:49:ae:d7:a2:59:f9:c9:94:a6:4e:5e:87:24:ee:
                    4a:f9:93:1b:33:39:a7:cd:95:25:f2:a9:93:bb:01:
                    d7:4f:fc:c6:33:0e:19:7f:33:52:46:90:bf:70:ab:
                    58:e2:07:e7:44:5c:71:69:e2:42:3e:90:70:bb:64:
                    db:e6:17:d1:2b:80:4a:c3:1a:3f:41:6b:01:d9:dc:
                    fe:19:82:9e:38:ff:b3:e6:29:da:0d:69:99:a9:7f:
                    c5:41:7d:db:ff:38:f7:d4:8e:fa:00:05:ee:42:83:
                    3d:a6:36:32:23:84:8a:d9:36:03:f8:c4:6c:b9:86:
                    2c:f8:55:3b:2f:31:50:a5:91:b0:a6:02:cd:e0:0b:
                    f4:14:7c:32:09:ae:2e:6f:a7:12:be:e0:84:b6:4f:
                    e3:20:64:70:58:9f:3a:e0:dd:33:06:9c:43:ef:8c:
                    e0:39
                Exponent: 65537 (0x10001)
        X509v3 extensions:
            X509v3 Basic Constraints: 
                CA:FALSE
            X509v3 Subject Key Identifier: 
                A0:0B:B9:1B:EC:37:A6:23:1D:DA:C1:14:07:D9:1D:71:21:53:96:22
            X509v3 Authority Key Identifier: 
                keyid:B1:E2:24:4F:3D:FB:03:C0:E6:C2:70:78:85:ED:E1:91:AC:BE:FC:EB
                DirName:/CN=team104-net
                serial:2D:1A:60:42:59:63:A3:F0:E0:EF:D0:45:8B:1C:25:D9:D5:5A:A7:2D
            X509v3 Extended Key Usage: 
                TLS Web Client Authentication
            X509v3 Key Usage: 
                Digital Signature
    Signature Algorithm: sha256WithRSAEncryption
    Signature Value:
        6f:7c:6b:e5:fa:93:86:d7:be:65:05:7a:a8:8e:e2:70:74:83:
        c6:98:72:c1:7f:1d:e2:5d:18:ee:6c:9a:fc:af:c2:34:4d:eb:
        a8:52:d9:96:aa:28:f1:96:5c:17:c8:ea:ff:86:3b:35:28:6c:
        dc:93:51:06:a7:be:db:de:e4:68:ac:f2:8d:4d:0f:0c:d1:93:
        1b:63:b5:dc:99:0e:a1:a9:b5:66:1b:a7:7e:f3:2b:fc:38:eb:
        b2:fb:7d:36:e3:2c:da:1b:44:60:30:a3:e0:8b:a4:30:0b:d9:
        5e:13:0d:7f:dc:2c:0e:59:cc:1b:2a:d1:f1:f1:dd:93:a3:ae:
        d9:66:22:3e:f6:18:de:be:4d:54:89:b9:bb:06:54:db:0b:5c:
        86:c9:20:84:37:11:ef:46:fc:8b:3b:37:eb:70:0d:e7:15:fc:
        72:f8:46:63:7a:48:11:eb:5e:9d:f7:2f:6b:18:ba:0f:91:7d:
        33:a8:22:c4:cd:1d:4e:6d:06:a2:6e:12:11:a6:1f:f2:d8:be:
        12:d1:51:dc:88:c9:e8:13:c3:10:a5:cf:08:c5:5c:cd:2e:a9:
        9f:7d:a4:9f:00:0f:fd:e4:cd:07:b8:a1:46:4b:2b:4c:65:cd:
        07:ab:7b:5f:bc:9e:10:17:e3:1c:a2:39:22:6b:28:da:59:a4:
        e1:a2:4c:79
-----BEGIN CERTIFICATE-----
MIIDXDCCAkSgAwIBAgIQKXmMVpfdCMiNSBstREAuxTANBgkqhkiG9w0BAQsFADAW
MRQwEgYDVQQDDAt0ZWFtMTA0LW5ldDAeFw0yMzExMDQxMTI5MjlaFw0yNjEwMTkx
MTI5MjlaMBkxFzAVBgNVBAMMDnRlYW0xMDQtY2xpZW50MIIBIjANBgkqhkiG9w0B
AQEFAAOCAQ8AMIIBCgKCAQEA7CxQ7uD+i6UGEZPNdSI6+vlmpY+pLA2eKjp+2Mgi
Ib9ZeljsbErVcL+XR6M/BUAHkG8hv63WdU9zZuCVZfcsDDR8C/CqEmqbOa3pE1tA
NSOMhhNc1/mn2NTtSa7Xoln5yZSmTl6HJO5K+ZMbMzmnzZUl8qmTuwHXT/zGMw4Z
fzNSRpC/cKtY4gfnRFxxaeJCPpBwu2Tb5hfRK4BKwxo/QWsB2dz+GYKeOP+z5ina
DWmZqX/FQX3b/zj31I76AAXuQoM9pjYyI4SK2TYD+MRsuYYs+FU7LzFQpZGwpgLN
4Av0FHwyCa4ub6cSvuCEtk/jIGRwWJ864N0zBpxD74zgOQIDAQABo4GiMIGfMAkG
A1UdEwQCMAAwHQYDVR0OBBYEFKALuRvsN6YjHdrBFAfZHXEhU5YiMFEGA1UdIwRK
MEiAFLHiJE89+wPA5sJweIXt4ZGsvvzroRqkGDAWMRQwEgYDVQQDDAt0ZWFtMTA0
LW5ldIIULRpgQlljo/Dg79BFixwl2dVapy0wEwYDVR0lBAwwCgYIKwYBBQUHAwIw
CwYDVR0PBAQDAgeAMA0GCSqGSIb3DQEBCwUAA4IBAQBvfGvl+pOG175lBXqojuJw
dIPGmHLBfx3iXRjubJr8r8I0TeuoUtmWqijxllwXyOr/hjs1KGzck1EGp77b3uRo
rPKNTQ8M0ZMbY7XcmQ6hqbVmG6d+8yv8OOuy+3024yzaG0RgMKPgi6QwC9leEw1/
3CwOWcwbKtHx8d2To67ZZiI+9hjevk1Uibm7BlTbC1yGySCENxHvRvyLOzfrcA3n
Ffxy+EZjekgR616d9y9rGLoPkX0zqCLEzR1ObQaibhIRph/y2L4S0VHciMnoE8MQ
pc8IxVzNLqmffaSfAA/95M0HuKFGSytMZc0Hq3tfvJ4QF+McojkiayjaWaThokx5
-----END CERTIFICATE-----
