Certificate:
    Data:
        Version: 3 (0x2)
        Serial Number:
            39:67:76:fe:ef:50:14:e0:20:c9:f2:6d:a8:a4:69:bf
        Signature Algorithm: sha256WithRSAEncryption
        Issuer: CN=team104-net
        Validity
            Not Before: Nov  3 20:40:59 2023 GMT
            Not After : Oct 18 20:40:59 2026 GMT
        Subject: CN=team104-client
        Subject Public Key Info:
            Public Key Algorithm: rsaEncryption
                Public-Key: (2048 bit)
                Modulus:
                    00:ab:47:fd:c6:47:b1:04:f9:44:0d:17:ec:11:bc:
                    9d:19:f8:78:30:7c:1d:55:75:77:93:6e:c3:40:57:
                    6e:4c:53:69:17:3d:a5:2d:5d:2d:f3:84:27:5d:0e:
                    e8:39:25:50:7c:89:9e:1b:15:ed:7b:6b:dd:bf:6a:
                    4e:58:7d:b4:e8:d9:bc:bd:58:31:0c:cb:eb:10:aa:
                    04:88:3f:3b:f3:52:94:6f:50:27:f4:79:06:9f:08:
                    cc:0d:d6:7b:0c:b1:96:64:86:bb:79:16:62:7a:e7:
                    dd:22:46:0a:a8:cf:18:80:8e:b6:20:4d:5e:1a:d6:
                    63:10:67:1f:51:7a:89:9f:a1:b6:10:87:95:e8:4d:
                    76:04:0b:75:09:9a:f7:3e:ec:5c:d6:56:2d:bf:41:
                    7b:1c:09:25:3a:86:bd:84:5a:9f:36:18:38:b0:46:
                    aa:0c:8b:05:6a:63:0d:9b:f4:94:d1:ff:27:f4:17:
                    7e:ad:7c:ad:95:28:37:5d:98:f5:09:6a:27:ab:8b:
                    52:1c:7c:9d:7e:34:d5:7b:85:fa:05:5e:07:30:cf:
                    4c:16:c6:73:3a:75:57:2f:0a:25:88:67:b2:b4:3b:
                    d8:5f:fe:3e:a0:5e:72:87:91:d8:c6:c6:ba:1f:2c:
                    85:d2:e4:a4:6b:f2:46:cc:ce:e4:82:fc:87:de:1a:
                    78:05
                Exponent: 65537 (0x10001)
        X509v3 extensions:
            X509v3 Basic Constraints: 
                CA:FALSE
            X509v3 Subject Key Identifier: 
                90:E4:95:8C:73:E6:F7:F6:C0:60:D7:A9:20:64:33:A0:B7:1D:C0:A4
            X509v3 Authority Key Identifier: 
                keyid:F7:DF:C5:A8:2D:F0:1E:C9:29:F4:36:5D:61:C5:38:02:C6:9E:1F:08
                DirName:/CN=team104-net
                serial:5C:9A:87:41:77:86:BC:B9:9D:0F:6A:9C:4F:FB:8A:41:D2:D4:A8:C9
            X509v3 Extended Key Usage: 
                TLS Web Client Authentication
            X509v3 Key Usage: 
                Digital Signature
    Signature Algorithm: sha256WithRSAEncryption
    Signature Value:
        66:be:f4:24:59:1c:52:0b:f0:f7:e3:e4:1c:b8:98:de:44:ae:
        9b:4f:a2:8f:85:4d:92:8a:fc:24:b8:0a:59:5a:72:1e:b3:63:
        86:d7:ac:6e:4c:d5:41:ae:20:6d:56:91:b6:fb:fa:4d:44:1a:
        81:9b:84:cc:66:90:c5:6b:c3:8f:12:4c:b9:12:ae:1c:7f:5b:
        11:33:18:e8:aa:8b:e5:cf:6f:1a:7b:67:e6:0d:c2:ca:72:e8:
        d9:9d:78:4d:e2:c3:f9:7e:e8:a0:f6:3a:fe:17:78:91:48:b9:
        ab:82:cf:4e:4b:aa:5f:74:eb:ec:67:ff:eb:ff:e9:1a:5a:8a:
        08:78:c6:2a:8a:50:4a:cc:61:86:7f:81:b1:bc:70:23:0d:3a:
        c2:27:ce:a5:97:80:0f:eb:a3:72:97:a1:6f:7a:ec:8f:30:16:
        63:c3:86:fb:e4:70:c4:e6:2b:0f:8a:c8:3c:d3:53:9a:f9:c2:
        73:63:71:74:1f:a5:ae:c5:72:54:2d:9c:83:e3:2b:fc:50:1c:
        9c:96:88:5f:3a:2a:2e:2d:4f:4a:6f:4f:90:88:5e:06:15:bb:
        f1:7b:51:ca:00:38:af:94:fa:03:91:48:63:7c:3e:65:b3:5d:
        0c:45:6e:1a:83:d0:53:6b:89:ad:2e:4a:ec:04:4b:22:c4:04:
        d1:cf:34:fd
-----BEGIN CERTIFICATE-----
MIIDXDCCAkSgAwIBAgIQOWd2/u9QFOAgyfJtqKRpvzANBgkqhkiG9w0BAQsFADAW
MRQwEgYDVQQDDAt0ZWFtMTA0LW5ldDAeFw0yMzExMDMyMDQwNTlaFw0yNjEwMTgy
MDQwNTlaMBkxFzAVBgNVBAMMDnRlYW0xMDQtY2xpZW50MIIBIjANBgkqhkiG9w0B
AQEFAAOCAQ8AMIIBCgKCAQEAq0f9xkexBPlEDRfsEbydGfh4MHwdVXV3k27DQFdu
TFNpFz2lLV0t84QnXQ7oOSVQfImeGxXte2vdv2pOWH206Nm8vVgxDMvrEKoEiD87
81KUb1An9HkGnwjMDdZ7DLGWZIa7eRZieufdIkYKqM8YgI62IE1eGtZjEGcfUXqJ
n6G2EIeV6E12BAt1CZr3Puxc1lYtv0F7HAklOoa9hFqfNhg4sEaqDIsFamMNm/SU
0f8n9Bd+rXytlSg3XZj1CWonq4tSHHydfjTVe4X6BV4HMM9MFsZzOnVXLwoliGey
tDvYX/4+oF5yh5HYxsa6HyyF0uSka/JGzM7kgvyH3hp4BQIDAQABo4GiMIGfMAkG
A1UdEwQCMAAwHQYDVR0OBBYEFJDklYxz5vf2wGDXqSBkM6C3HcCkMFEGA1UdIwRK
MEiAFPffxagt8B7JKfQ2XWHFOALGnh8IoRqkGDAWMRQwEgYDVQQDDAt0ZWFtMTA0
LW5ldIIUXJqHQXeGvLmdD2qcT/uKQdLUqMkwEwYDVR0lBAwwCgYIKwYBBQUHAwIw
CwYDVR0PBAQDAgeAMA0GCSqGSIb3DQEBCwUAA4IBAQBmvvQkWRxSC/D34+QcuJje
RK6bT6KPhU2SivwkuApZWnIes2OG16xuTNVBriBtVpG2+/pNRBqBm4TMZpDFa8OP
Eky5Eq4cf1sRMxjoqovlz28ae2fmDcLKcujZnXhN4sP5fuig9jr+F3iRSLmrgs9O
S6pfdOvsZ//r/+kaWooIeMYqilBKzGGGf4GxvHAjDTrCJ86ll4AP66Nyl6FveuyP
MBZjw4b75HDE5isPisg801Oa+cJzY3F0H6WuxXJULZyD4yv8UByclohfOiouLU9K
b0+QiF4GFbvxe1HKADivlPoDkUhjfD5ls10MRW4ag9BTa4mtLkrsBEsixATRzzT9
-----END CERTIFICATE-----
