Certificate:
    Data:
        Version: 3 (0x2)
        Serial Number:
            83:55:67:2e:2b:68:ec:02:d8:e6:2d:5e:20:1c:83:4c
        Signature Algorithm: sha256WithRSAEncryption
        Issuer: CN=team104-net
        Validity
            Not Before: Nov  4 10:42:21 2023 GMT
            Not After : Oct 19 10:42:21 2026 GMT
        Subject: CN=team104-client
        Subject Public Key Info:
            Public Key Algorithm: rsaEncryption
                Public-Key: (2048 bit)
                Modulus:
                    00:ef:ee:a8:50:88:27:37:46:b4:e5:bb:c1:61:f3:
                    38:ce:ee:07:be:36:d4:e8:e8:bb:31:99:28:15:21:
                    de:ca:da:1f:49:b1:ad:8c:de:71:d0:83:0f:a4:1f:
                    a2:31:4d:7a:db:de:8f:eb:47:a2:88:2a:06:39:72:
                    2f:1f:8b:89:cd:39:27:6c:e2:71:b8:ab:f6:73:90:
                    96:8f:f2:a9:98:eb:73:8d:23:5d:93:fe:04:3b:74:
                    21:de:47:51:dd:ba:0c:f3:f8:f0:25:f4:0b:74:2f:
                    b7:d8:c0:8d:b9:e6:10:87:cf:d0:5c:be:01:fd:bb:
                    a7:0a:2d:ad:04:25:a8:83:89:4e:d9:99:93:61:34:
                    52:60:33:37:70:ee:c8:1c:fe:9c:2b:73:8d:94:65:
                    d2:9e:39:70:84:eb:b9:a8:df:0c:ff:be:74:4d:e3:
                    c9:a8:03:b1:88:a9:8d:01:76:2f:d8:a7:5c:ae:1e:
                    d4:19:f2:22:6d:f1:de:a4:54:5b:b6:b9:15:4c:ad:
                    2a:f7:81:a8:f0:41:16:f0:37:13:97:4e:19:56:74:
                    32:91:50:ec:c4:bc:1e:3c:46:b8:75:18:d3:bd:00:
                    1c:49:e2:0f:49:47:53:e0:ae:87:fd:b2:4c:b1:91:
                    25:13:a2:55:bd:14:d3:0b:1e:88:56:94:e0:af:9d:
                    ad:83
                Exponent: 65537 (0x10001)
        X509v3 extensions:
            X509v3 Basic Constraints: 
                CA:FALSE
            X509v3 Subject Key Identifier: 
                D0:87:A4:D9:22:38:09:F2:C1:5B:4B:81:2C:23:75:B7:92:51:D9:85
            X509v3 Authority Key Identifier: 
                keyid:47:46:BD:92:D7:50:98:13:9D:C7:5C:2D:29:A5:C0:60:54:A3:76:40
                DirName:/CN=team104-net
                serial:37:0E:B0:99:08:DB:94:08:D0:D2:9C:E9:84:C9:71:A6:B9:31:DA:75
            X509v3 Extended Key Usage: 
                TLS Web Client Authentication
            X509v3 Key Usage: 
                Digital Signature
    Signature Algorithm: sha256WithRSAEncryption
    Signature Value:
        61:a6:70:b0:d2:78:7b:fa:58:f1:5a:87:31:0b:26:ab:0d:f4:
        68:ff:11:99:63:7d:af:43:db:79:de:df:34:ca:62:66:8f:6b:
        fb:64:7c:85:d2:bf:16:dd:37:82:0b:7e:c0:ec:2d:58:d3:c8:
        fb:aa:22:81:d9:17:1b:6f:27:62:ce:49:b0:64:db:58:2a:7f:
        e0:83:44:b8:5a:8a:a4:7b:60:0c:43:0c:ab:e2:18:dd:3f:87:
        72:4b:72:e4:dc:35:b8:d7:6c:61:38:bb:14:f8:c4:75:e0:56:
        9e:3a:3a:3b:a7:36:3c:46:a9:ff:24:b6:54:73:e0:ce:76:f6:
        2c:8e:eb:70:aa:b2:4e:cd:b1:e3:4d:ef:9f:52:45:88:49:6f:
        3e:fc:82:2d:db:b5:ab:f5:ed:b3:4b:58:bc:43:77:e0:31:75:
        98:96:d9:32:ce:2d:62:27:c9:27:d6:27:ee:25:9c:8b:7f:d6:
        1e:67:b4:a5:0e:66:dd:01:6f:51:32:f2:3e:b2:cb:90:1e:7b:
        67:90:8c:52:66:5f:a0:3d:cd:35:79:b9:e0:77:db:e4:c9:8b:
        82:11:69:77:a4:76:4c:ed:34:b1:63:6f:7e:c3:28:68:1f:a6:
        23:96:36:6f:76:54:88:a9:2b:f0:d0:13:0a:78:2a:2c:6b:a6:
        a6:8c:3b:97
-----BEGIN CERTIFICATE-----
MIIDXTCCAkWgAwIBAgIRAINVZy4raOwC2OYtXiAcg0wwDQYJKoZIhvcNAQELBQAw
FjEUMBIGA1UEAwwLdGVhbTEwNC1uZXQwHhcNMjMxMTA0MTA0MjIxWhcNMjYxMDE5
MTA0MjIxWjAZMRcwFQYDVQQDDA50ZWFtMTA0LWNsaWVudDCCASIwDQYJKoZIhvcN
AQEBBQADggEPADCCAQoCggEBAO/uqFCIJzdGtOW7wWHzOM7uB7421OjouzGZKBUh
3sraH0mxrYzecdCDD6QfojFNetvej+tHoogqBjlyLx+Lic05J2zicbir9nOQlo/y
qZjrc40jXZP+BDt0Id5HUd26DPP48CX0C3Qvt9jAjbnmEIfP0Fy+Af27pwotrQQl
qIOJTtmZk2E0UmAzN3DuyBz+nCtzjZRl0p45cITruajfDP++dE3jyagDsYipjQF2
L9inXK4e1BnyIm3x3qRUW7a5FUytKveBqPBBFvA3E5dOGVZ0MpFQ7MS8HjxGuHUY
070AHEniD0lHU+Cuh/2yTLGRJROiVb0U0wseiFaU4K+drYMCAwEAAaOBojCBnzAJ
BgNVHRMEAjAAMB0GA1UdDgQWBBTQh6TZIjgJ8sFbS4EsI3W3klHZhTBRBgNVHSME
SjBIgBRHRr2S11CYE53HXC0ppcBgVKN2QKEapBgwFjEUMBIGA1UEAwwLdGVhbTEw
NC1uZXSCFDcOsJkI25QI0NKc6YTJcaa5Mdp1MBMGA1UdJQQMMAoGCCsGAQUFBwMC
MAsGA1UdDwQEAwIHgDANBgkqhkiG9w0BAQsFAAOCAQEAYaZwsNJ4e/pY8VqHMQsm
qw30aP8RmWN9r0Pbed7fNMpiZo9r+2R8hdK/Ft03ggt+wOwtWNPI+6oigdkXG28n
Ys5JsGTbWCp/4INEuFqKpHtgDEMMq+IY3T+Hckty5Nw1uNdsYTi7FPjEdeBWnjo6
O6c2PEap/yS2VHPgznb2LI7rcKqyTs2x403vn1JFiElvPvyCLdu1q/Xts0tYvEN3
4DF1mJbZMs4tYifJJ9Yn7iWci3/WHme0pQ5m3QFvUTLyPrLLkB57Z5CMUmZfoD3N
NXm54Hfb5MmLghFpd6R2TO00sWNvfsMoaB+mI5Y2b3ZUiKkr8NATCngqLGumpow7
lw==
-----END CERTIFICATE-----
