Certificate:
    Data:
        Version: 3 (0x2)
        Serial Number:
            f9:b8:c6:b6:15:7d:b8:de:73:bc:bb:94:d5:08:bc:50
        Signature Algorithm: sha256WithRSAEncryption
        Issuer: CN=team104-net
        Validity
            Not Before: Nov  4 11:29:29 2023 GMT
            Not After : Oct 19 11:29:29 2026 GMT
        Subject: CN=team104-server
        Subject Public Key Info:
            Public Key Algorithm: rsaEncryption
                Public-Key: (2048 bit)
                Modulus:
                    00:c2:79:28:cf:e8:59:41:1c:65:a9:f6:26:5a:a5:
                    21:8e:e7:d2:c9:d7:a1:14:b6:42:e3:6b:2e:eb:58:
                    a1:7a:80:49:e0:25:d3:59:af:d5:08:2b:5e:40:f1:
                    9a:3f:e9:7c:e3:4f:82:b8:73:8b:91:3b:89:00:9a:
                    c2:b4:ec:3f:fb:2d:df:bc:86:7b:0a:ff:de:26:d5:
                    fc:e9:26:c1:b6:b0:a8:db:f8:3a:8e:55:02:d5:9b:
                    6f:33:ae:51:02:7f:98:9d:e4:ef:25:9e:c9:17:c6:
                    79:13:89:14:ff:8b:03:c8:21:1b:45:f8:0f:f2:30:
                    2b:91:ce:30:79:11:7f:18:31:d7:1c:58:3c:55:50:
                    3a:4b:62:87:11:c6:35:3b:2b:25:3f:8a:94:eb:4d:
                    d3:be:0e:04:9a:75:2b:54:e3:73:43:c7:a5:07:f8:
                    14:10:f8:45:cb:6d:e8:bc:49:5d:14:a1:7e:32:96:
                    4d:b5:e3:8f:51:19:0f:b5:fc:cd:f5:de:88:aa:a0:
                    62:49:57:11:80:15:7a:fe:9f:fc:9c:4c:94:1d:61:
                    e7:d3:75:10:40:39:43:c9:d8:35:39:35:6d:2d:ac:
                    ed:e2:9b:6a:37:82:91:73:50:47:5b:04:cf:4a:9c:
                    1d:e6:73:2e:61:2a:55:f3:8b:6a:8d:20:fd:a3:66:
                    a5:db
                Exponent: 65537 (0x10001)
        X509v3 extensions:
            X509v3 Basic Constraints: 
                CA:FALSE
            X509v3 Subject Key Identifier: 
                5D:E9:9E:6D:61:7C:35:42:03:D7:40:36:FC:55:8A:AD:49:31:7D:AD
            X509v3 Authority Key Identifier: 
                keyid:B1:E2:24:4F:3D:FB:03:C0:E6:C2:70:78:85:ED:E1:91:AC:BE:FC:EB
                DirName:/CN=team104-net
                serial:2D:1A:60:42:59:63:A3:F0:E0:EF:D0:45:8B:1C:25:D9:D5:5A:A7:2D
            X509v3 Extended Key Usage: 
                TLS Web Server Authentication
            X509v3 Key Usage: 
                Digital Signature, Key Encipherment
            X509v3 Subject Alternative Name: 
                DNS:team104-server
    Signature Algorithm: sha256WithRSAEncryption
    Signature Value:
        58:46:4b:8e:44:c1:5b:9c:5d:cd:bd:2d:e1:e6:43:6e:11:0d:
        5a:99:f2:3e:86:9b:7b:7f:e7:07:76:04:82:b5:f3:3e:d5:7a:
        b4:e1:f4:81:de:23:b9:5c:0b:f7:d8:fd:5d:c9:39:16:7a:5e:
        97:40:b7:fc:43:e9:03:b6:7e:97:67:60:09:02:6c:3e:1f:66:
        61:de:d5:cd:66:3e:c4:18:2f:3b:f0:80:19:ed:5e:64:29:90:
        6d:1f:44:76:d2:a2:b0:53:b8:86:5c:08:22:d3:1a:48:cc:47:
        e0:b6:c0:78:0d:b2:66:12:ff:a7:9e:73:38:5a:db:03:76:4f:
        84:d3:10:2d:bd:d8:9c:e4:36:dc:16:81:9e:27:95:49:32:6a:
        db:12:ff:35:eb:9a:d8:7f:c1:ec:0b:31:cc:07:45:79:67:6b:
        d6:8a:ce:bd:e2:b6:2e:f2:0b:85:0a:2a:3b:34:04:1b:5d:6e:
        28:1c:6c:d9:e6:50:e8:8a:8f:b6:eb:eb:1d:e8:05:23:41:f0:
        af:d6:f4:32:03:2b:f4:e0:49:ac:6c:64:e8:4c:bf:af:e6:b1:
        3b:e5:8e:2b:64:7c:a0:2d:a6:5f:47:9f:b5:98:d8:99:06:6d:
        58:ef:c9:8b:56:7e:8a:0e:58:ba:b8:c1:14:42:d5:06:c6:19:
        d0:90:37:a0
-----BEGIN CERTIFICATE-----
MIIDeDCCAmCgAwIBAgIRAPm4xrYVfbjec7y7lNUIvFAwDQYJKoZIhvcNAQELBQAw
FjEUMBIGA1UEAwwLdGVhbTEwNC1uZXQwHhcNMjMxMTA0MTEyOTI5WhcNMjYxMDE5
MTEyOTI5WjAZMRcwFQYDVQQDDA50ZWFtMTA0LXNlcnZlcjCCASIwDQYJKoZIhvcN
AQEBBQADggEPADCCAQoCggEBAMJ5KM/oWUEcZan2JlqlIY7n0snXoRS2QuNrLutY
oXqASeAl01mv1QgrXkDxmj/pfONPgrhzi5E7iQCawrTsP/st37yGewr/3ibV/Okm
wbawqNv4Oo5VAtWbbzOuUQJ/mJ3k7yWeyRfGeROJFP+LA8ghG0X4D/IwK5HOMHkR
fxgx1xxYPFVQOktihxHGNTsrJT+KlOtN074OBJp1K1Tjc0PHpQf4FBD4Rctt6LxJ
XRShfjKWTbXjj1EZD7X8zfXeiKqgYklXEYAVev6f/JxMlB1h59N1EEA5Q8nYNTk1
bS2s7eKbajeCkXNQR1sEz0qcHeZzLmEqVfOLao0g/aNmpdsCAwEAAaOBvTCBujAJ
BgNVHRMEAjAAMB0GA1UdDgQWBBRd6Z5tYXw1QgPXQDb8VYqtSTF9rTBRBgNVHSME
SjBIgBSx4iRPPfsDwObCcHiF7eGRrL7866EapBgwFjEUMBIGA1UEAwwLdGVhbTEw
NC1uZXSCFC0aYEJZY6Pw4O/QRYscJdnVWqctMBMGA1UdJQQMMAoGCCsGAQUFBwMB
MAsGA1UdDwQEAwIFoDAZBgNVHREEEjAQgg50ZWFtMTA0LXNlcnZlcjANBgkqhkiG
9w0BAQsFAAOCAQEAWEZLjkTBW5xdzb0t4eZDbhENWpnyPoabe3/nB3YEgrXzPtV6
tOH0gd4juVwL99j9Xck5Fnpel0C3/EPpA7Z+l2dgCQJsPh9mYd7VzWY+xBgvO/CA
Ge1eZCmQbR9EdtKisFO4hlwIItMaSMxH4LbAeA2yZhL/p55zOFrbA3ZPhNMQLb3Y
nOQ23BaBnieVSTJq2xL/Neua2H/B7AsxzAdFeWdr1orOveK2LvILhQoqOzQEG11u
KBxs2eZQ6IqPtuvrHegFI0Hwr9b0MgMr9OBJrGxk6Ey/r+axO+WOK2R8oC2mX0ef
tZjYmQZtWO/Ji1Z+ig5YurjBFELVBsYZ0JA3oA==
-----END CERTIFICATE-----
