Certificate:
    Data:
        Version: 3 (0x2)
        Serial Number:
            4b:52:be:da:8c:2d:92:9d:9b:10:5e:18:9f:ba:a9:ce
        Signature Algorithm: sha256WithRSAEncryption
        Issuer: CN=team316-net
        Validity
            Not Before: Nov  4 11:34:23 2023 GMT
            Not After : Oct 19 11:34:23 2026 GMT
        Subject: CN=team316-server
        Subject Public Key Info:
            Public Key Algorithm: rsaEncryption
                Public-Key: (2048 bit)
                Modulus:
                    00:bd:81:ba:17:25:72:67:8d:4d:33:4a:dd:03:8c:
                    ee:0b:54:c0:d6:58:bf:34:cd:7c:ee:eb:d5:8c:bd:
                    64:4b:ee:0b:a0:34:08:cb:f9:18:11:01:21:60:bd:
                    70:5f:dd:fc:8a:7a:30:c6:4d:cf:ab:d2:76:3b:08:
                    d3:61:c0:58:24:67:ad:e9:63:66:e7:63:90:75:77:
                    d4:65:01:4a:94:4f:2f:bf:be:9b:e9:a8:a8:7b:8f:
                    3e:c2:15:e4:7f:e3:ef:93:0d:91:75:ec:aa:3d:bb:
                    34:6a:f0:c3:0b:8b:be:e3:8c:35:d7:e3:c9:ae:9f:
                    f8:47:a6:12:6a:8b:3d:ae:2b:e9:71:9c:7d:c1:64:
                    95:f4:e9:c1:2b:8d:de:58:b6:d3:70:29:aa:05:e8:
                    51:d2:73:3b:3b:9c:64:4f:32:a6:b8:e9:74:64:2e:
                    14:78:c6:00:a0:ca:be:12:e7:7e:0d:28:bc:d6:5a:
                    c0:d1:c7:ac:34:8b:c4:79:66:fd:5d:c5:35:59:ba:
                    ca:a7:cc:e5:6f:92:d8:f0:5c:7e:55:28:80:75:d8:
                    69:6a:b6:f2:f6:5a:01:e9:1f:34:f0:16:c9:e0:97:
                    c6:79:ac:a9:7f:29:ca:9b:8c:bc:6f:d2:66:d7:f7:
                    57:c1:d9:d3:7e:2b:4b:69:62:35:01:64:a5:b4:23:
                    3e:7f
                Exponent: 65537 (0x10001)
        X509v3 extensions:
            X509v3 Basic Constraints: 
                CA:FALSE
            X509v3 Subject Key Identifier: 
                A6:92:18:72:A9:9C:37:B8:49:94:0D:DF:1D:DC:F5:3E:A1:09:45:A4
            X509v3 Authority Key Identifier: 
                keyid:E0:03:33:24:60:BC:A8:C7:A0:FB:C5:50:B2:50:AB:B5:45:0B:25:9B
                DirName:/CN=team316-net
                serial:02:4A:95:EE:FA:2D:60:50:41:2B:AD:FF:F4:AD:5E:F9:6D:50:79:1D
            X509v3 Extended Key Usage: 
                TLS Web Server Authentication
            X509v3 Key Usage: 
                Digital Signature, Key Encipherment
            X509v3 Subject Alternative Name: 
                DNS:team316-server
    Signature Algorithm: sha256WithRSAEncryption
    Signature Value:
        9f:f2:67:62:7c:a6:eb:ca:dd:4a:1c:c9:4a:b6:c9:69:4a:6d:
        58:80:48:da:83:ff:c2:57:51:14:3e:a5:d9:dd:8f:bf:5f:46:
        cc:e2:7c:62:f1:49:16:6d:c4:3f:6d:6c:c0:06:90:7d:08:af:
        84:30:c5:d4:7f:2b:f5:a4:73:4e:03:58:67:91:92:bd:16:62:
        10:c2:e0:13:a5:4b:81:75:c2:be:4e:ed:4c:f7:0d:9c:42:64:
        43:e4:0b:7d:e9:02:e6:d2:0c:fd:4e:c5:7a:b7:77:2a:a1:e9:
        01:86:1a:98:21:39:81:61:f1:82:02:c3:52:7e:ec:6a:d2:aa:
        11:a9:7e:cc:11:26:13:02:1c:fe:9d:eb:cd:cd:17:cc:2c:42:
        51:b2:f0:cc:87:f8:69:f5:c3:89:3e:fd:a0:91:bc:70:a1:69:
        04:2a:68:c3:e6:a1:f9:eb:40:c4:03:b2:5c:38:c6:1c:ee:e7:
        34:9f:5c:43:a3:11:ca:67:48:9f:67:56:c5:1c:fe:6f:17:b1:
        40:19:58:b0:a3:d9:57:74:c7:8e:1a:0d:f1:43:01:83:45:b8:
        ba:a4:24:fc:50:30:71:43:32:b9:bd:8c:58:15:dd:07:77:db:
        5d:81:18:c7:24:dd:02:79:51:22:e4:86:eb:94:a0:55:6e:a5:
        a9:23:24:ad
-----BEGIN CERTIFICATE-----
MIIDdzCCAl+gAwIBAgIQS1K+2owtkp2bEF4Yn7qpzjANBgkqhkiG9w0BAQsFADAW
MRQwEgYDVQQDDAt0ZWFtMzE2LW5ldDAeFw0yMzExMDQxMTM0MjNaFw0yNjEwMTkx
MTM0MjNaMBkxFzAVBgNVBAMMDnRlYW0zMTYtc2VydmVyMIIBIjANBgkqhkiG9w0B
AQEFAAOCAQ8AMIIBCgKCAQEAvYG6FyVyZ41NM0rdA4zuC1TA1li/NM187uvVjL1k
S+4LoDQIy/kYEQEhYL1wX938inowxk3Pq9J2OwjTYcBYJGet6WNm52OQdXfUZQFK
lE8vv76b6aioe48+whXkf+Pvkw2RdeyqPbs0avDDC4u+44w11+PJrp/4R6YSaos9
rivpcZx9wWSV9OnBK43eWLbTcCmqBehR0nM7O5xkTzKmuOl0ZC4UeMYAoMq+Eud+
DSi81lrA0cesNIvEeWb9XcU1WbrKp8zlb5LY8Fx+VSiAddhparby9loB6R808BbJ
4JfGeaypfynKm4y8b9Jm1/dXwdnTfitLaWI1AWSltCM+fwIDAQABo4G9MIG6MAkG
A1UdEwQCMAAwHQYDVR0OBBYEFKaSGHKpnDe4SZQN3x3c9T6hCUWkMFEGA1UdIwRK
MEiAFOADMyRgvKjHoPvFULJQq7VFCyWboRqkGDAWMRQwEgYDVQQDDAt0ZWFtMzE2
LW5ldIIUAkqV7votYFBBK63/9K1e+W1QeR0wEwYDVR0lBAwwCgYIKwYBBQUHAwEw
CwYDVR0PBAQDAgWgMBkGA1UdEQQSMBCCDnRlYW0zMTYtc2VydmVyMA0GCSqGSIb3
DQEBCwUAA4IBAQCf8mdifKbryt1KHMlKtslpSm1YgEjag//CV1EUPqXZ3Y+/X0bM
4nxi8UkWbcQ/bWzABpB9CK+EMMXUfyv1pHNOA1hnkZK9FmIQwuATpUuBdcK+Tu1M
9w2cQmRD5At96QLm0gz9TsV6t3cqoekBhhqYITmBYfGCAsNSfuxq0qoRqX7MESYT
Ahz+nevNzRfMLEJRsvDMh/hp9cOJPv2gkbxwoWkEKmjD5qH560DEA7JcOMYc7uc0
n1xDoxHKZ0ifZ1bFHP5vF7FAGViwo9lXdMeOGg3xQwGDRbi6pCT8UDBxQzK5vYxY
Fd0Hd9tdgRjHJN0CeVEi5IbrlKBVbqWpIySt
-----END CERTIFICATE-----
