Certificate:
    Data:
        Version: 3 (0x2)
        Serial Number:
            b6:a7:24:02:af:f8:12:70:4b:3e:4d:96:89:2a:70:15
        Signature Algorithm: sha256WithRSAEncryption
        Issuer: CN=team316-net
        Validity
            Not Before: Nov  4 11:34:23 2023 GMT
            Not After : Oct 19 11:34:23 2026 GMT
        Subject: CN=team316-client
        Subject Public Key Info:
            Public Key Algorithm: rsaEncryption
                Public-Key: (2048 bit)
                Modulus:
                    00:c0:e4:d9:a0:38:1a:df:88:55:4c:a6:93:a8:df:
                    b5:db:80:5b:5a:84:2a:a7:38:eb:82:e6:b7:99:87:
                    c1:28:96:4e:bc:f4:87:24:f9:32:5f:96:2f:52:e6:
                    52:bc:37:6f:30:a8:04:e4:57:97:53:b5:26:30:dc:
                    42:ae:92:ac:d8:f8:eb:66:6a:5a:d6:fb:ee:29:fa:
                    50:f0:18:b9:35:b5:de:64:3a:d4:a1:64:2c:17:62:
                    1a:0e:3a:7e:0b:6f:23:3d:64:ae:d0:0b:7e:1e:16:
                    61:2f:f5:55:21:62:5b:01:ff:ca:09:f8:49:88:11:
                    ad:0f:b0:92:1d:e2:ab:d5:40:94:f5:01:6e:81:f9:
                    fd:ec:9e:7d:a6:03:39:6b:7b:f8:0c:03:8d:4e:ba:
                    51:ed:ca:59:77:6b:37:28:10:89:a5:11:45:5d:af:
                    28:80:0a:0d:78:35:f2:38:e7:1d:d4:88:d3:d7:52:
                    81:3d:d9:3e:78:18:e2:4e:d3:b4:34:7c:c1:0e:4e:
                    1a:61:f8:e7:d8:73:7a:79:41:57:89:82:d3:72:fa:
                    ec:b2:71:82:9a:53:1e:ad:4e:17:23:55:cc:ec:d1:
                    dd:8b:1b:75:18:0a:4e:5f:40:17:2e:a5:7b:f2:d5:
                    56:3a:71:79:68:13:8d:98:c1:38:45:73:3c:66:b4:
                    0c:99
                Exponent: 65537 (0x10001)
        X509v3 extensions:
            X509v3 Basic Constraints: 
                CA:FALSE
            X509v3 Subject Key Identifier: 
                A6:2C:AB:B3:86:6D:19:13:4F:52:56:9B:25:62:D2:DC:FC:64:73:4D
            X509v3 Authority Key Identifier: 
                keyid:E0:03:33:24:60:BC:A8:C7:A0:FB:C5:50:B2:50:AB:B5:45:0B:25:9B
                DirName:/CN=team316-net
                serial:02:4A:95:EE:FA:2D:60:50:41:2B:AD:FF:F4:AD:5E:F9:6D:50:79:1D
            X509v3 Extended Key Usage: 
                TLS Web Client Authentication
            X509v3 Key Usage: 
                Digital Signature
    Signature Algorithm: sha256WithRSAEncryption
    Signature Value:
        6b:26:73:a9:b7:a0:04:63:32:93:2e:7b:53:62:d0:d8:c6:a7:
        e5:11:35:f0:f0:05:2b:40:b1:6f:18:ec:df:a8:cb:8f:f0:0b:
        5b:16:c1:45:f2:fe:6f:bd:f2:f4:d6:05:bc:cd:fb:a3:32:df:
        71:bd:76:a0:71:d7:b0:0b:31:49:5c:ae:61:96:ce:bf:cb:c4:
        7e:6a:86:4b:26:62:3e:bb:5b:fa:09:11:0c:50:35:ad:1f:4a:
        4b:d3:e5:9d:96:fb:72:c2:32:ca:31:83:b2:44:97:a2:4c:9a:
        d7:dd:7d:ca:50:4b:e9:6b:84:ed:14:9d:e9:6d:f1:3d:77:6c:
        96:b8:96:4a:c4:d7:ff:f2:52:3b:f3:09:2c:81:cd:3a:9c:57:
        8d:20:d5:86:f1:df:f8:5f:db:73:78:02:46:ef:06:c4:5b:90:
        0d:1c:3a:62:db:8c:ec:58:74:53:9c:e9:a0:2a:4d:03:d6:fa:
        1a:49:7b:df:a9:9f:9c:db:f9:ac:9a:1c:ff:2b:fe:1e:57:81:
        b6:6d:bb:0f:bf:3a:df:e9:8d:9d:bb:3b:7b:10:5f:2a:a8:ae:
        c6:5c:a8:2d:8a:b3:5f:5b:d8:a3:a8:df:80:98:1a:3f:2a:af:
        e6:84:25:56:b4:ac:fa:58:e8:2c:a8:42:b9:01:e4:e7:ac:3a:
        38:4e:77:0d
-----BEGIN CERTIFICATE-----
MIIDXTCCAkWgAwIBAgIRALanJAKv+BJwSz5NlokqcBUwDQYJKoZIhvcNAQELBQAw
FjEUMBIGA1UEAwwLdGVhbTMxNi1uZXQwHhcNMjMxMTA0MTEzNDIzWhcNMjYxMDE5
MTEzNDIzWjAZMRcwFQYDVQQDDA50ZWFtMzE2LWNsaWVudDCCASIwDQYJKoZIhvcN
AQEBBQADggEPADCCAQoCggEBAMDk2aA4Gt+IVUymk6jftduAW1qEKqc464Lmt5mH
wSiWTrz0hyT5Ml+WL1LmUrw3bzCoBORXl1O1JjDcQq6SrNj462ZqWtb77in6UPAY
uTW13mQ61KFkLBdiGg46fgtvIz1krtALfh4WYS/1VSFiWwH/ygn4SYgRrQ+wkh3i
q9VAlPUBboH5/eyefaYDOWt7+AwDjU66Ue3KWXdrNygQiaURRV2vKIAKDXg18jjn
HdSI09dSgT3ZPngY4k7TtDR8wQ5OGmH459hzenlBV4mC03L67LJxgppTHq1OFyNV
zOzR3YsbdRgKTl9AFy6le/LVVjpxeWgTjZjBOEVzPGa0DJkCAwEAAaOBojCBnzAJ
BgNVHRMEAjAAMB0GA1UdDgQWBBSmLKuzhm0ZE09SVpslYtLc/GRzTTBRBgNVHSME
SjBIgBTgAzMkYLyox6D7xVCyUKu1RQslm6EapBgwFjEUMBIGA1UEAwwLdGVhbTMx
Ni1uZXSCFAJKle76LWBQQSut//StXvltUHkdMBMGA1UdJQQMMAoGCCsGAQUFBwMC
MAsGA1UdDwQEAwIHgDANBgkqhkiG9w0BAQsFAAOCAQEAayZzqbegBGMyky57U2LQ
2Man5RE18PAFK0Cxbxjs36jLj/ALWxbBRfL+b73y9NYFvM37ozLfcb12oHHXsAsx
SVyuYZbOv8vEfmqGSyZiPrtb+gkRDFA1rR9KS9PlnZb7csIyyjGDskSXokya1919
ylBL6WuE7RSd6W3xPXdslriWSsTX//JSO/MJLIHNOpxXjSDVhvHf+F/bc3gCRu8G
xFuQDRw6YtuM7Fh0U5zpoCpNA9b6Gkl736mfnNv5rJoc/yv+HleBtm27D7863+mN
nbs7exBfKqiuxlyoLYqzX1vYo6jfgJgaPyqv5oQlVrSs+ljoLKhCuQHk56w6OE53
DQ==
-----END CERTIFICATE-----
