Certificate:
    Data:
        Version: 3 (0x2)
        Serial Number:
            0d:4d:0f:46:9e:65:9a:0d:c4:cb:ed:09:b7:1c:dd:14
        Signature Algorithm: sha256WithRSAEncryption
        Issuer: CN=team420-net
        Validity
            Not Before: Nov  4 10:48:12 2023 GMT
            Not After : Oct 19 10:48:12 2026 GMT
        Subject: CN=team420-server
        Subject Public Key Info:
            Public Key Algorithm: rsaEncryption
                Public-Key: (2048 bit)
                Modulus:
                    00:ce:07:82:3b:2d:48:20:d4:29:41:0f:21:9f:21:
                    91:89:af:9d:43:5d:71:f0:3f:e0:44:a9:52:18:c0:
                    21:24:6a:57:75:b9:b3:a6:79:af:d5:15:79:f5:47:
                    a1:ec:74:35:e9:b6:f8:9e:51:00:3e:0e:ae:c1:72:
                    b5:28:3b:8b:73:df:03:af:f7:12:9a:3b:fb:5d:c4:
                    5f:e2:2b:35:ef:9e:33:0e:c5:dd:5f:6c:f9:a0:e0:
                    80:f9:aa:9a:ad:4d:25:5b:fd:a6:ed:cd:63:4a:de:
                    c9:50:4e:a2:6b:26:49:bd:2b:6c:ed:03:e7:6e:33:
                    c4:23:58:b4:2e:96:ec:d6:39:05:1c:cf:2a:f9:96:
                    30:d7:fe:ad:2f:48:35:76:2d:a7:0c:4c:cf:eb:49:
                    8b:3e:5c:dd:49:a5:9b:2f:b5:f1:ab:5f:95:a9:4a:
                    2e:7b:dd:f0:92:88:aa:ff:74:3a:79:e7:78:0c:ed:
                    bf:bc:f2:2f:52:0b:b4:f0:2d:35:fe:bc:20:f9:1b:
                    7f:57:b5:d2:2d:51:e9:4c:89:1e:37:5e:6f:a4:b3:
                    0f:7e:02:4a:21:b3:1c:13:dc:87:b9:fe:f4:32:c2:
                    26:36:93:dc:5b:23:d1:0a:ae:0d:03:73:4e:bc:2e:
                    2c:67:89:06:85:e5:cd:59:80:ac:e3:bf:fb:0c:21:
                    10:25
                Exponent: 65537 (0x10001)
        X509v3 extensions:
            X509v3 Basic Constraints: 
                CA:FALSE
            X509v3 Subject Key Identifier: 
                64:FA:10:03:93:47:C6:30:AF:6A:A2:77:6A:40:93:B7:6B:D0:73:02
            X509v3 Authority Key Identifier: 
                keyid:C6:80:13:24:8B:91:41:36:77:2B:23:8C:E7:A2:5A:A9:0B:F5:33:2A
                DirName:/CN=team420-net
                serial:51:26:75:83:F7:EC:35:5B:C7:42:01:A7:F7:A5:E2:F9:19:65:BB:84
            X509v3 Extended Key Usage: 
                TLS Web Server Authentication
            X509v3 Key Usage: 
                Digital Signature, Key Encipherment
            X509v3 Subject Alternative Name: 
                DNS:team420-server
    Signature Algorithm: sha256WithRSAEncryption
    Signature Value:
        91:f7:30:32:61:78:16:5d:b1:98:82:b5:30:11:57:b8:c8:1e:
        44:e4:4d:4b:3e:14:e1:22:fb:78:0a:ec:29:dc:d0:1a:cf:4a:
        b4:49:32:42:fe:c0:0b:15:f4:f7:87:6e:f1:5e:04:0d:f2:27:
        7a:be:6d:7d:e1:8c:43:bc:d9:5a:05:d4:ff:0d:05:1a:90:0c:
        76:88:50:17:84:18:09:7f:a6:b6:4d:22:e7:97:96:c3:36:ec:
        99:84:59:63:d6:91:63:01:12:31:f5:6f:8e:b2:97:b4:47:94:
        09:bb:5d:31:6f:94:a8:73:68:de:4e:ae:27:0f:6a:df:b0:b1:
        a1:8e:aa:31:bd:a0:68:3d:af:48:da:4a:c1:97:3e:cb:11:8c:
        90:ec:db:6f:22:ba:71:ba:d2:6d:29:e6:53:e9:92:70:7e:3e:
        c5:57:a0:81:67:1c:c3:91:b9:3b:ee:b5:2f:1c:2f:7e:16:bc:
        24:a4:a3:86:55:bd:fb:c0:6f:78:e8:a8:69:ba:d3:ba:7b:93:
        dd:d4:9e:db:86:e9:9b:0d:74:1f:83:07:87:24:86:5a:17:2e:
        7b:74:c0:d6:ac:21:59:a4:28:5f:75:c6:65:ad:18:00:8d:ca:
        5c:5c:d9:08:40:1c:9d:ba:4a:a7:2f:2e:5f:72:56:24:27:c7:
        1f:c1:ea:8c
-----BEGIN CERTIFICATE-----
MIIDdzCCAl+gAwIBAgIQDU0PRp5lmg3Ey+0JtxzdFDANBgkqhkiG9w0BAQsFADAW
MRQwEgYDVQQDDAt0ZWFtNDIwLW5ldDAeFw0yMzExMDQxMDQ4MTJaFw0yNjEwMTkx
MDQ4MTJaMBkxFzAVBgNVBAMMDnRlYW00MjAtc2VydmVyMIIBIjANBgkqhkiG9w0B
AQEFAAOCAQ8AMIIBCgKCAQEAzgeCOy1IINQpQQ8hnyGRia+dQ11x8D/gRKlSGMAh
JGpXdbmzpnmv1RV59Ueh7HQ16bb4nlEAPg6uwXK1KDuLc98Dr/cSmjv7XcRf4is1
754zDsXdX2z5oOCA+aqarU0lW/2m7c1jSt7JUE6iayZJvSts7QPnbjPEI1i0Lpbs
1jkFHM8q+ZYw1/6tL0g1di2nDEzP60mLPlzdSaWbL7Xxq1+VqUoue93wkoiq/3Q6
eed4DO2/vPIvUgu08C01/rwg+Rt/V7XSLVHpTIkeN15vpLMPfgJKIbMcE9yHuf70
MsImNpPcWyPRCq4NA3NOvC4sZ4kGheXNWYCs47/7DCEQJQIDAQABo4G9MIG6MAkG
A1UdEwQCMAAwHQYDVR0OBBYEFGT6EAOTR8Ywr2qid2pAk7dr0HMCMFEGA1UdIwRK
MEiAFMaAEySLkUE2dysjjOeiWqkL9TMqoRqkGDAWMRQwEgYDVQQDDAt0ZWFtNDIw
LW5ldIIUUSZ1g/fsNVvHQgGn96Xi+Rllu4QwEwYDVR0lBAwwCgYIKwYBBQUHAwEw
CwYDVR0PBAQDAgWgMBkGA1UdEQQSMBCCDnRlYW00MjAtc2VydmVyMA0GCSqGSIb3
DQEBCwUAA4IBAQCR9zAyYXgWXbGYgrUwEVe4yB5E5E1LPhThIvt4Cuwp3NAaz0q0
STJC/sALFfT3h27xXgQN8id6vm194YxDvNlaBdT/DQUakAx2iFAXhBgJf6a2TSLn
l5bDNuyZhFlj1pFjARIx9W+Ospe0R5QJu10xb5Soc2jeTq4nD2rfsLGhjqoxvaBo
Pa9I2krBlz7LEYyQ7NtvIrpxutJtKeZT6ZJwfj7FV6CBZxzDkbk77rUvHC9+Frwk
pKOGVb37wG946KhputO6e5Pd1J7bhumbDXQfgweHJIZaFy57dMDWrCFZpChfdcZl
rRgAjcpcXNkIQBydukqnLy5fclYkJ8cfweqM
-----END CERTIFICATE-----
