Certificate:
    Data:
        Version: 3 (0x2)
        Serial Number:
            1b:02:f1:52:ec:9a:3b:56:0f:62:05:b2:11:ff:9c:f0
        Signature Algorithm: sha256WithRSAEncryption
        Issuer: CN=team420-net
        Validity
            Not Before: Nov  4 11:36:55 2023 GMT
            Not After : Oct 19 11:36:55 2026 GMT
        Subject: CN=team420-server
        Subject Public Key Info:
            Public Key Algorithm: rsaEncryption
                Public-Key: (2048 bit)
                Modulus:
                    00:89:79:cb:83:e4:ec:fc:4a:b4:dc:b2:e5:85:be:
                    b8:d1:62:75:67:42:47:f8:e8:5b:07:e6:7e:b1:d9:
                    3b:1c:da:cf:14:81:1a:7a:79:88:9e:83:e2:10:f0:
                    d6:4d:b6:05:e3:31:7f:63:f0:d3:bc:33:3a:46:35:
                    1a:55:85:e5:62:9c:55:80:b9:53:0a:f9:ea:b9:6e:
                    ed:9e:26:d8:b4:78:7f:36:13:d4:ff:99:17:52:a6:
                    59:7a:bc:0c:a2:ff:32:35:6f:06:04:1e:4f:70:15:
                    07:48:22:1f:a0:5b:60:0a:a0:2d:dc:05:64:78:09:
                    ca:83:0b:a4:60:96:01:28:b1:bf:a4:93:ed:dc:a4:
                    8a:79:30:39:6f:3c:c2:0f:26:b9:9b:7e:15:12:c5:
                    48:1d:d2:7d:18:1f:f9:7a:48:90:4e:e1:16:d8:7b:
                    42:69:53:cc:a0:a7:5a:80:58:41:b0:cb:4d:ec:2c:
                    33:86:95:fb:17:ca:d7:21:c2:90:e8:91:8a:2f:51:
                    4a:81:7f:ef:45:0b:b0:32:1a:51:a6:3d:37:fa:61:
                    8e:2d:14:82:39:96:c5:c0:a1:91:12:ff:54:a8:75:
                    18:36:69:1a:ed:3e:f8:47:44:d1:49:62:24:c7:a3:
                    f5:fe:3e:8e:fe:7d:e8:82:8a:07:38:5c:36:ec:d8:
                    71:ff
                Exponent: 65537 (0x10001)
        X509v3 extensions:
            X509v3 Basic Constraints: 
                CA:FALSE
            X509v3 Subject Key Identifier: 
                DE:4A:E9:D6:7D:E7:18:23:07:64:7F:6F:C0:71:30:2D:1C:39:58:05
            X509v3 Authority Key Identifier: 
                keyid:EE:4E:CA:D7:C4:B0:E8:DA:76:75:29:A1:2F:76:61:0E:28:DF:BD:13
                DirName:/CN=team420-net
                serial:4D:4A:78:3A:B8:50:D7:BA:8D:E4:0A:1E:48:71:95:BD:9F:A3:FC:53
            X509v3 Extended Key Usage: 
                TLS Web Server Authentication
            X509v3 Key Usage: 
                Digital Signature, Key Encipherment
            X509v3 Subject Alternative Name: 
                DNS:team420-server
    Signature Algorithm: sha256WithRSAEncryption
    Signature Value:
        0e:b4:28:bf:b8:ef:fe:b7:81:2d:30:b9:6c:c8:1c:44:c5:f8:
        60:95:e0:9c:54:de:a8:e7:22:81:f5:c6:82:57:05:d3:cf:82:
        2c:3f:cc:ac:6d:08:a1:df:df:a8:fa:21:62:50:c8:86:96:5e:
        c7:c8:05:52:b5:e8:fd:fe:6d:ea:9f:a2:a1:f3:09:1c:0a:34:
        c9:45:7f:73:7a:8a:e2:d9:b7:e8:b0:80:d6:8e:a8:53:fc:d4:
        fa:f1:dc:4c:66:2a:6a:de:98:0f:ed:1a:c0:33:c6:fa:db:23:
        39:76:64:1a:7e:e4:05:a6:27:06:07:65:fe:3f:e6:3a:17:e6:
        21:7c:2b:99:c7:2a:38:98:87:67:9a:d6:46:27:49:30:bf:3f:
        9b:1e:5e:08:e8:95:e1:ea:aa:a3:dc:bb:16:eb:7c:89:72:49:
        d5:54:cd:9b:50:75:bd:ea:72:ce:c3:6e:37:94:af:59:03:ff:
        5d:0b:61:3b:fd:62:5f:b4:98:1e:24:4b:83:04:2c:41:39:31:
        37:37:52:41:0b:c7:f8:4b:a0:06:c3:8a:ae:65:f2:00:22:ca:
        8f:3c:0d:36:ca:39:49:05:6c:7c:9d:67:3b:c8:0d:f3:00:37:
        aa:c9:88:c9:e0:c8:58:f6:dd:19:17:2d:d6:e8:3f:b8:e1:83:
        de:37:cf:af
-----BEGIN CERTIFICATE-----
MIIDdzCCAl+gAwIBAgIQGwLxUuyaO1YPYgWyEf+c8DANBgkqhkiG9w0BAQsFADAW
MRQwEgYDVQQDDAt0ZWFtNDIwLW5ldDAeFw0yMzExMDQxMTM2NTVaFw0yNjEwMTkx
MTM2NTVaMBkxFzAVBgNVBAMMDnRlYW00MjAtc2VydmVyMIIBIjANBgkqhkiG9w0B
AQEFAAOCAQ8AMIIBCgKCAQEAiXnLg+Ts/Eq03LLlhb640WJ1Z0JH+OhbB+Z+sdk7
HNrPFIEaenmInoPiEPDWTbYF4zF/Y/DTvDM6RjUaVYXlYpxVgLlTCvnquW7tnibY
tHh/NhPU/5kXUqZZerwMov8yNW8GBB5PcBUHSCIfoFtgCqAt3AVkeAnKgwukYJYB
KLG/pJPt3KSKeTA5bzzCDya5m34VEsVIHdJ9GB/5ekiQTuEW2HtCaVPMoKdagFhB
sMtN7CwzhpX7F8rXIcKQ6JGKL1FKgX/vRQuwMhpRpj03+mGOLRSCOZbFwKGREv9U
qHUYNmka7T74R0TRSWIkx6P1/j6O/n3ogooHOFw27Nhx/wIDAQABo4G9MIG6MAkG
A1UdEwQCMAAwHQYDVR0OBBYEFN5K6dZ95xgjB2R/b8BxMC0cOVgFMFEGA1UdIwRK
MEiAFO5OytfEsOjadnUpoS92YQ4o370ToRqkGDAWMRQwEgYDVQQDDAt0ZWFtNDIw
LW5ldIIUTUp4OrhQ17qN5AoeSHGVvZ+j/FMwEwYDVR0lBAwwCgYIKwYBBQUHAwEw
CwYDVR0PBAQDAgWgMBkGA1UdEQQSMBCCDnRlYW00MjAtc2VydmVyMA0GCSqGSIb3
DQEBCwUAA4IBAQAOtCi/uO/+t4EtMLlsyBxExfhgleCcVN6o5yKB9caCVwXTz4Is
P8ysbQih39+o+iFiUMiGll7HyAVStej9/m3qn6Kh8wkcCjTJRX9zeori2bfosIDW
jqhT/NT68dxMZipq3pgP7RrAM8b62yM5dmQafuQFpicGB2X+P+Y6F+YhfCuZxyo4
mIdnmtZGJ0kwvz+bHl4I6JXh6qqj3LsW63yJcknVVM2bUHW96nLOw243lK9ZA/9d
C2E7/WJftJgeJEuDBCxBOTE3N1JBC8f4S6AGw4quZfIAIsqPPA02yjlJBWx8nWc7
yA3zADeqyYjJ4MhY9t0ZFy3W6D+44YPeN8+v
-----END CERTIFICATE-----
