Certificate:
    Data:
        Version: 3 (0x2)
        Serial Number:
            52:d1:e1:25:60:dd:a4:68:5a:fb:0f:e9:a8:41:00:36
        Signature Algorithm: sha256WithRSAEncryption
        Issuer: CN=team420-net
        Validity
            Not Before: Nov  4 11:36:55 2023 GMT
            Not After : Oct 19 11:36:55 2026 GMT
        Subject: CN=team420-client
        Subject Public Key Info:
            Public Key Algorithm: rsaEncryption
                Public-Key: (2048 bit)
                Modulus:
                    00:c0:54:b2:5d:21:ea:06:54:51:66:a7:ba:3f:7c:
                    3e:12:c0:df:96:f7:b9:4b:e1:c7:19:ee:fe:b3:71:
                    84:66:35:a8:2c:9b:33:9e:05:4f:7e:cf:69:62:2a:
                    9e:d7:d1:e8:c9:75:63:99:df:62:06:84:43:18:ef:
                    f9:7c:8e:eb:af:69:3e:4f:f5:80:d9:c5:91:83:0e:
                    24:d1:a5:50:b7:87:e9:19:ad:b2:bc:39:db:50:d6:
                    dd:9e:a4:7a:c1:82:ec:3e:1d:f1:05:c0:72:4f:2e:
                    1f:f9:34:02:81:1d:65:5b:b7:67:6a:ba:3e:3c:45:
                    0f:fa:a0:17:79:4e:a0:cb:f7:31:90:15:2b:4a:25:
                    82:fd:d7:86:d5:ae:76:b3:e4:54:07:12:d7:3f:93:
                    23:ea:7f:2e:a6:39:80:2f:fe:75:5b:d7:8d:94:3a:
                    33:8f:b2:94:8a:bd:6e:2a:3a:83:91:96:f3:57:97:
                    34:5c:bf:ed:dd:9c:28:3a:e4:4c:63:13:09:62:39:
                    e6:aa:41:ec:c5:26:8e:ed:a7:f3:23:3f:5e:8e:b3:
                    48:5e:51:88:43:8f:e1:99:09:50:85:ea:02:33:25:
                    d8:cd:6f:82:42:12:fb:bf:3d:81:57:1b:00:42:b0:
                    5f:d8:76:41:32:a4:43:47:37:ef:64:5b:69:13:98:
                    ac:6f
                Exponent: 65537 (0x10001)
        X509v3 extensions:
            X509v3 Basic Constraints: 
                CA:FALSE
            X509v3 Subject Key Identifier: 
                C4:57:A7:2A:05:44:47:B3:52:31:94:ED:AD:A8:41:A6:94:8C:E3:67
            X509v3 Authority Key Identifier: 
                keyid:EE:4E:CA:D7:C4:B0:E8:DA:76:75:29:A1:2F:76:61:0E:28:DF:BD:13
                DirName:/CN=team420-net
                serial:4D:4A:78:3A:B8:50:D7:BA:8D:E4:0A:1E:48:71:95:BD:9F:A3:FC:53
            X509v3 Extended Key Usage: 
                TLS Web Client Authentication
            X509v3 Key Usage: 
                Digital Signature
    Signature Algorithm: sha256WithRSAEncryption
    Signature Value:
        b1:ca:b6:35:93:4f:0f:32:49:e1:ac:2b:08:24:31:bd:f3:55:
        0a:0c:7b:4f:6f:6a:1c:89:93:75:4d:76:e2:52:52:8a:13:67:
        46:2c:81:7d:48:be:c2:52:59:e5:11:1e:e0:9d:21:11:b1:d9:
        74:4e:7a:d3:0b:50:61:e1:ce:d1:84:b1:b1:d9:5b:29:0d:08:
        c7:d3:fa:e8:e2:6b:ba:40:11:1a:b8:1f:01:b4:0a:b3:0f:64:
        c6:b5:ca:df:da:31:c2:b8:23:aa:44:77:22:95:bb:06:51:b3:
        b0:6d:f0:67:b3:92:99:23:90:a1:97:6a:59:36:92:69:03:d3:
        63:4e:cd:55:29:e7:68:8a:e1:73:03:6d:85:21:50:40:69:cf:
        88:4b:48:84:2e:c5:18:4a:3c:d0:12:0e:50:64:ad:9c:36:a5:
        3d:d1:9d:93:51:f8:8d:7e:1f:74:b6:a7:f6:44:12:74:1c:ea:
        b7:b5:ae:e8:ff:e3:bf:e4:e6:47:67:b1:59:80:4d:a9:9f:b0:
        75:2f:87:23:c0:e6:42:8d:d1:6c:cd:40:55:63:de:13:b6:63:
        7e:5a:c2:9d:a2:7b:ec:73:b4:63:bc:8c:a6:62:5b:8f:9a:2e:
        e8:37:cd:51:0e:c3:08:70:67:ac:b1:3d:26:98:89:66:ea:9f:
        19:4c:da:4c
-----BEGIN CERTIFICATE-----
MIIDXDCCAkSgAwIBAgIQUtHhJWDdpGha+w/pqEEANjANBgkqhkiG9w0BAQsFADAW
MRQwEgYDVQQDDAt0ZWFtNDIwLW5ldDAeFw0yMzExMDQxMTM2NTVaFw0yNjEwMTkx
MTM2NTVaMBkxFzAVBgNVBAMMDnRlYW00MjAtY2xpZW50MIIBIjANBgkqhkiG9w0B
AQEFAAOCAQ8AMIIBCgKCAQEAwFSyXSHqBlRRZqe6P3w+EsDflve5S+HHGe7+s3GE
ZjWoLJszngVPfs9pYiqe19HoyXVjmd9iBoRDGO/5fI7rr2k+T/WA2cWRgw4k0aVQ
t4fpGa2yvDnbUNbdnqR6wYLsPh3xBcByTy4f+TQCgR1lW7dnaro+PEUP+qAXeU6g
y/cxkBUrSiWC/deG1a52s+RUBxLXP5Mj6n8upjmAL/51W9eNlDozj7KUir1uKjqD
kZbzV5c0XL/t3ZwoOuRMYxMJYjnmqkHsxSaO7afzIz9ejrNIXlGIQ4/hmQlQheoC
MyXYzW+CQhL7vz2BVxsAQrBf2HZBMqRDRzfvZFtpE5isbwIDAQABo4GiMIGfMAkG
A1UdEwQCMAAwHQYDVR0OBBYEFMRXpyoFREezUjGU7a2oQaaUjONnMFEGA1UdIwRK
MEiAFO5OytfEsOjadnUpoS92YQ4o370ToRqkGDAWMRQwEgYDVQQDDAt0ZWFtNDIw
LW5ldIIUTUp4OrhQ17qN5AoeSHGVvZ+j/FMwEwYDVR0lBAwwCgYIKwYBBQUHAwIw
CwYDVR0PBAQDAgeAMA0GCSqGSIb3DQEBCwUAA4IBAQCxyrY1k08PMknhrCsIJDG9
81UKDHtPb2ociZN1TXbiUlKKE2dGLIF9SL7CUlnlER7gnSERsdl0TnrTC1Bh4c7R
hLGx2VspDQjH0/ro4mu6QBEauB8BtAqzD2TGtcrf2jHCuCOqRHcilbsGUbOwbfBn
s5KZI5Chl2pZNpJpA9NjTs1VKedoiuFzA22FIVBAac+IS0iELsUYSjzQEg5QZK2c
NqU90Z2TUfiNfh90tqf2RBJ0HOq3ta7o/+O/5OZHZ7FZgE2pn7B1L4cjwOZCjdFs
zUBVY94TtmN+WsKdonvsc7RjvIymYluPmi7oN81RDsMIcGessT0mmIlm6p8ZTNpM
-----END CERTIFICATE-----
