Certificate:
    Data:
        Version: 3 (0x2)
        Serial Number:
            f2:28:81:d8:13:69:de:21:a4:8b:b9:b8:8c:23:59:54
        Signature Algorithm: sha256WithRSAEncryption
        Issuer: CN=team420-net
        Validity
            Not Before: Nov  3 20:46:51 2023 GMT
            Not After : Oct 18 20:46:51 2026 GMT
        Subject: CN=team420-client
        Subject Public Key Info:
            Public Key Algorithm: rsaEncryption
                Public-Key: (2048 bit)
                Modulus:
                    00:f3:16:86:c0:f2:18:72:ab:86:4c:c1:25:0b:2b:
                    7c:96:c0:be:c7:23:f3:70:0e:33:9c:ec:ce:a9:ab:
                    33:80:5b:32:c1:53:eb:1e:5e:e3:7b:46:22:72:4d:
                    2c:99:85:e0:ab:6b:f2:96:f3:26:36:3d:68:0d:21:
                    04:5d:bc:7d:39:6b:ce:b2:bd:e2:fe:18:a2:5d:dd:
                    4f:00:03:39:12:20:88:90:d1:6d:79:93:f1:eb:5e:
                    28:81:db:2b:1a:71:ff:d7:8b:43:43:86:39:6c:21:
                    cf:02:9f:1c:25:fe:d8:4d:cc:78:ef:9a:ee:69:86:
                    50:0a:f0:36:1c:1e:a8:e8:0b:f9:93:8f:73:95:6d:
                    3a:57:e2:cd:bc:f3:2d:1a:2a:e7:ee:84:24:05:7f:
                    0c:bf:03:1d:79:d1:b8:15:09:fa:6b:d2:c7:ba:2d:
                    cb:26:aa:b5:f0:e5:50:48:2d:ed:92:39:23:1c:3b:
                    7c:70:df:09:5d:b0:09:f3:29:a3:0a:33:ca:38:ae:
                    b9:79:f0:55:cd:1e:b7:6f:7e:ec:76:f9:6d:c9:83:
                    bf:0b:3f:1a:7a:cb:71:0d:90:88:5d:50:44:6b:21:
                    f1:90:75:98:c3:30:ba:ac:6c:d7:60:64:14:fa:26:
                    10:ad:ba:9f:0a:83:82:a0:2b:8f:eb:b1:42:8f:b1:
                    95:d1
                Exponent: 65537 (0x10001)
        X509v3 extensions:
            X509v3 Basic Constraints: 
                CA:FALSE
            X509v3 Subject Key Identifier: 
                D3:E1:3E:75:39:1E:EC:F6:1F:F7:6E:F2:CA:53:76:DD:6D:B9:FF:D0
            X509v3 Authority Key Identifier: 
                keyid:56:C1:79:70:A2:7C:46:FB:94:42:1C:44:C3:77:B3:C7:BE:A6:70:63
                DirName:/CN=team420-net
                serial:0C:24:48:34:8B:B4:45:63:3F:4F:DE:C2:02:B8:B8:E7:CA:28:87:95
            X509v3 Extended Key Usage: 
                TLS Web Client Authentication
            X509v3 Key Usage: 
                Digital Signature
    Signature Algorithm: sha256WithRSAEncryption
    Signature Value:
        0f:52:82:43:8c:22:49:8c:05:16:33:89:32:2a:fb:3b:ba:70:
        04:06:af:25:41:01:4d:27:8d:c8:64:19:68:12:10:c3:92:02:
        53:2d:23:14:dd:07:43:78:0c:22:7f:7a:21:27:b7:72:2e:b1:
        da:d3:19:64:9e:ab:6b:cd:c8:b4:f0:16:45:55:cf:fd:47:c0:
        09:8a:e2:21:1e:37:df:96:7f:8c:c9:e3:e8:08:b2:30:57:13:
        d7:e8:3a:7c:30:1c:2d:f7:83:a1:90:44:55:37:b2:13:56:a3:
        c6:4e:b3:4e:fe:5a:fc:40:51:10:b8:ed:ac:b5:0b:40:4a:98:
        3b:3c:dc:00:bc:2e:d4:d9:ee:c2:50:9a:f9:7c:f5:a1:8a:67:
        a4:f8:f6:04:58:4d:a3:ea:d3:2b:fa:d4:f9:32:69:87:4a:c7:
        c2:e2:66:35:3b:1b:78:60:89:96:3b:5c:3f:25:74:01:23:11:
        c6:b7:65:24:1b:23:a4:54:a7:00:34:b4:98:81:b7:08:2e:d4:
        26:0d:b4:56:72:42:de:94:f5:3e:ed:0a:53:a0:1b:10:d7:9e:
        48:39:6e:52:23:f2:fb:19:e9:22:45:36:f0:ca:c7:f3:b6:2c:
        37:d9:8f:9c:26:fb:5b:d6:12:f7:81:1c:b0:8f:1e:ae:a4:ba:
        c6:92:da:fe
-----BEGIN CERTIFICATE-----
MIIDXTCCAkWgAwIBAgIRAPIogdgTad4hpIu5uIwjWVQwDQYJKoZIhvcNAQELBQAw
FjEUMBIGA1UEAwwLdGVhbTQyMC1uZXQwHhcNMjMxMTAzMjA0NjUxWhcNMjYxMDE4
MjA0NjUxWjAZMRcwFQYDVQQDDA50ZWFtNDIwLWNsaWVudDCCASIwDQYJKoZIhvcN
AQEBBQADggEPADCCAQoCggEBAPMWhsDyGHKrhkzBJQsrfJbAvscj83AOM5zszqmr
M4BbMsFT6x5e43tGInJNLJmF4Ktr8pbzJjY9aA0hBF28fTlrzrK94v4Yol3dTwAD
ORIgiJDRbXmT8eteKIHbKxpx/9eLQ0OGOWwhzwKfHCX+2E3MeO+a7mmGUArwNhwe
qOgL+ZOPc5VtOlfizbzzLRoq5+6EJAV/DL8DHXnRuBUJ+mvSx7otyyaqtfDlUEgt
7ZI5Ixw7fHDfCV2wCfMpowozyjiuuXnwVc0et29+7Hb5bcmDvws/GnrLcQ2QiF1Q
RGsh8ZB1mMMwuqxs12BkFPomEK26nwqDgqArj+uxQo+xldECAwEAAaOBojCBnzAJ
BgNVHRMEAjAAMB0GA1UdDgQWBBTT4T51OR7s9h/3bvLKU3bdbbn/0DBRBgNVHSME
SjBIgBRWwXlwonxG+5RCHETDd7PHvqZwY6EapBgwFjEUMBIGA1UEAwwLdGVhbTQy
MC1uZXSCFAwkSDSLtEVjP0/ewgK4uOfKKIeVMBMGA1UdJQQMMAoGCCsGAQUFBwMC
MAsGA1UdDwQEAwIHgDANBgkqhkiG9w0BAQsFAAOCAQEAD1KCQ4wiSYwFFjOJMir7
O7pwBAavJUEBTSeNyGQZaBIQw5ICUy0jFN0HQ3gMIn96ISe3ci6x2tMZZJ6ra83I
tPAWRVXP/UfACYriIR4335Z/jMnj6AiyMFcT1+g6fDAcLfeDoZBEVTeyE1ajxk6z
Tv5a/EBRELjtrLULQEqYOzzcALwu1NnuwlCa+Xz1oYpnpPj2BFhNo+rTK/rU+TJp
h0rHwuJmNTsbeGCJljtcPyV0ASMRxrdlJBsjpFSnADS0mIG3CC7UJg20VnJC3pT1
Pu0KU6AbENeeSDluUiPy+xnpIkU28MrH87YsN9mPnCb7W9YS94EcsI8erqS6xpLa
/g==
-----END CERTIFICATE-----
