Certificate:
    Data:
        Version: 3 (0x2)
        Serial Number:
            12:19:ae:97:16:da:4a:42:32:cf:29:c6:85:64:a4:ae
        Signature Algorithm: sha256WithRSAEncryption
        Issuer: CN=team367-net
        Validity
            Not Before: Nov  3 20:45:56 2023 GMT
            Not After : Oct 18 20:45:56 2026 GMT
        Subject: CN=team367-server
        Subject Public Key Info:
            Public Key Algorithm: rsaEncryption
                Public-Key: (2048 bit)
                Modulus:
                    00:b0:9c:69:73:89:d3:94:47:10:4a:db:c8:b9:4f:
                    55:0c:47:21:3f:f1:23:05:1a:0d:b7:1b:15:de:be:
                    5b:b0:74:48:d0:c6:e0:52:31:36:cd:96:62:75:83:
                    61:56:85:8d:9e:1e:17:35:97:8e:55:25:a1:2f:1c:
                    9c:e6:94:b1:61:ba:25:f3:9b:eb:21:a4:a9:cd:d9:
                    e2:83:93:04:6d:5c:00:0d:6e:c3:8c:3a:2a:a3:9c:
                    3e:f0:1b:39:00:71:bd:a8:40:22:3f:6e:98:8b:bb:
                    f0:3c:99:8e:f0:6d:8c:35:22:c0:56:2f:2c:6e:01:
                    ef:25:4b:3d:3e:54:2e:ec:93:ed:d4:fd:4d:83:35:
                    ef:16:8a:5c:74:bc:2c:11:2e:ca:76:75:45:2b:7a:
                    6d:49:e9:65:fa:18:97:9c:fa:d9:27:ea:73:5c:5e:
                    bd:9f:3d:d2:33:73:b4:52:08:e8:1f:0f:e6:f2:b7:
                    9c:01:e2:87:72:2f:cd:29:58:c1:8d:cb:42:84:45:
                    9e:06:51:e3:5e:c4:0a:51:1d:98:97:4f:c5:25:b9:
                    7f:44:82:2d:5b:c0:83:d9:70:71:18:62:6b:f7:5b:
                    34:5a:e8:cf:63:6b:c0:74:f8:83:f8:1f:0d:ed:07:
                    86:0c:63:e9:c2:d0:da:52:5f:a7:1a:15:d2:cc:88:
                    ee:25
                Exponent: 65537 (0x10001)
        X509v3 extensions:
            X509v3 Basic Constraints: 
                CA:FALSE
            X509v3 Subject Key Identifier: 
                B8:E5:32:E1:0F:2F:AA:4F:49:37:0F:1B:F0:9E:7C:D8:FE:C8:4E:4E
            X509v3 Authority Key Identifier: 
                keyid:9D:5B:14:6F:23:8A:91:9C:0D:9D:09:50:63:F6:81:AA:E6:E8:B8:3D
                DirName:/CN=team367-net
                serial:60:99:08:34:07:4F:20:8F:B5:AB:C7:1E:5B:45:ED:A7:09:E0:7D:C0
            X509v3 Extended Key Usage: 
                TLS Web Server Authentication
            X509v3 Key Usage: 
                Digital Signature, Key Encipherment
            X509v3 Subject Alternative Name: 
                DNS:team367-server
    Signature Algorithm: sha256WithRSAEncryption
    Signature Value:
        a1:e0:0c:41:8d:32:19:0d:15:03:ac:71:63:2d:d9:25:32:da:
        96:bf:94:d4:06:63:33:a0:71:12:46:42:96:42:4a:47:a8:01:
        bf:56:8f:b1:d8:64:b4:8c:98:5b:89:46:de:25:50:4f:32:42:
        63:d6:2a:c3:85:b8:1e:82:c8:23:01:e6:89:48:48:ef:76:75:
        0e:9e:12:cd:2a:8a:6a:d6:87:13:bd:b2:a0:e9:ac:0c:8e:2e:
        48:ff:be:9d:37:5f:6b:06:47:25:5e:73:c0:35:c9:c1:1a:de:
        fe:15:1e:53:9b:83:41:b3:e5:b2:03:6d:a1:ae:34:dc:39:53:
        5e:3b:99:5e:56:ec:c1:f0:f3:af:a3:f2:53:7b:80:8e:8f:a5:
        e1:0a:5f:fa:6b:35:6f:70:21:67:3e:fb:d5:5d:9e:f9:66:f2:
        28:24:3f:f9:06:94:24:10:2c:14:05:36:52:6a:9a:50:6b:f7:
        db:44:90:a2:2e:b0:31:c6:29:f2:b2:25:bc:37:2a:21:84:72:
        84:14:2d:12:fb:b3:ab:8c:3d:c1:d9:18:9e:19:09:a9:53:77:
        ee:d5:a2:1e:72:b4:a9:37:2a:8a:55:d2:01:87:83:ff:77:e1:
        16:fa:b1:ff:9a:98:45:4f:bc:7c:f4:53:88:16:b2:77:9b:a1:
        04:c4:81:89
-----BEGIN CERTIFICATE-----
MIIDdzCCAl+gAwIBAgIQEhmulxbaSkIyzynGhWSkrjANBgkqhkiG9w0BAQsFADAW
MRQwEgYDVQQDDAt0ZWFtMzY3LW5ldDAeFw0yMzExMDMyMDQ1NTZaFw0yNjEwMTgy
MDQ1NTZaMBkxFzAVBgNVBAMMDnRlYW0zNjctc2VydmVyMIIBIjANBgkqhkiG9w0B
AQEFAAOCAQ8AMIIBCgKCAQEAsJxpc4nTlEcQStvIuU9VDEchP/EjBRoNtxsV3r5b
sHRI0MbgUjE2zZZidYNhVoWNnh4XNZeOVSWhLxyc5pSxYbol85vrIaSpzdnig5ME
bVwADW7DjDoqo5w+8Bs5AHG9qEAiP26Yi7vwPJmO8G2MNSLAVi8sbgHvJUs9PlQu
7JPt1P1NgzXvFopcdLwsES7KdnVFK3ptSell+hiXnPrZJ+pzXF69nz3SM3O0Ugjo
Hw/m8recAeKHci/NKVjBjctChEWeBlHjXsQKUR2Yl0/FJbl/RIItW8CD2XBxGGJr
91s0WujPY2vAdPiD+B8N7QeGDGPpwtDaUl+nGhXSzIjuJQIDAQABo4G9MIG6MAkG
A1UdEwQCMAAwHQYDVR0OBBYEFLjlMuEPL6pPSTcPG/CefNj+yE5OMFEGA1UdIwRK
MEiAFJ1bFG8jipGcDZ0JUGP2garm6Lg9oRqkGDAWMRQwEgYDVQQDDAt0ZWFtMzY3
LW5ldIIUYJkINAdPII+1q8ceW0XtpwngfcAwEwYDVR0lBAwwCgYIKwYBBQUHAwEw
CwYDVR0PBAQDAgWgMBkGA1UdEQQSMBCCDnRlYW0zNjctc2VydmVyMA0GCSqGSIb3
DQEBCwUAA4IBAQCh4AxBjTIZDRUDrHFjLdklMtqWv5TUBmMzoHESRkKWQkpHqAG/
Vo+x2GS0jJhbiUbeJVBPMkJj1irDhbgegsgjAeaJSEjvdnUOnhLNKopq1ocTvbKg
6awMji5I/76dN19rBkclXnPANcnBGt7+FR5Tm4NBs+WyA22hrjTcOVNeO5leVuzB
8POvo/JTe4COj6XhCl/6azVvcCFnPvvVXZ75ZvIoJD/5BpQkECwUBTZSappQa/fb
RJCiLrAxxinysiW8NyohhHKEFC0S+7OrjD3B2RieGQmpU3fu1aIecrSpNyqKVdIB
h4P/d+EW+rH/mphFT7x89FOIFrJ3m6EExIGJ
-----END CERTIFICATE-----
