Certificate:
    Data:
        Version: 3 (0x2)
        Serial Number:
            58:0d:db:db:9c:c6:fe:18:13:1c:0f:ed:ad:89:47:83
        Signature Algorithm: sha256WithRSAEncryption
        Issuer: CN=team367-net
        Validity
            Not Before: Nov  3 20:45:56 2023 GMT
            Not After : Oct 18 20:45:56 2026 GMT
        Subject: CN=team367-client
        Subject Public Key Info:
            Public Key Algorithm: rsaEncryption
                Public-Key: (2048 bit)
                Modulus:
                    00:dc:87:b2:f3:60:aa:25:76:7a:60:b5:5a:73:b9:
                    95:3f:1a:5c:50:55:9f:c2:6f:31:06:58:4c:63:a9:
                    03:f3:af:11:ef:04:eb:da:13:14:d4:f0:29:86:64:
                    66:ec:2c:d9:35:c5:75:c4:01:e4:a1:d5:18:95:d2:
                    35:8e:cf:be:23:6e:1b:28:31:7c:13:65:f8:a8:82:
                    b6:b1:85:dd:40:09:dd:2e:b7:83:09:ba:25:28:07:
                    9f:d1:7a:26:a3:6f:8c:7b:29:c4:e5:17:89:03:e9:
                    8d:8c:0c:9a:e9:99:d2:c2:79:d3:33:df:d0:c0:3b:
                    d5:65:24:aa:b0:d5:c6:e5:79:29:06:37:68:f9:c2:
                    5f:40:4d:c9:8c:b4:cf:45:8d:08:42:ec:ba:28:7a:
                    b4:f8:3e:e5:e4:af:fa:a0:b9:84:3c:10:90:31:b5:
                    02:ec:a8:58:0d:72:9e:94:56:5f:92:5b:9f:a0:71:
                    2e:4c:3b:14:b0:47:cd:ba:bf:d3:f5:92:88:31:ed:
                    88:7d:95:c3:03:29:ab:d9:1d:fa:07:6c:01:b0:5d:
                    9b:83:fc:47:a9:93:ac:33:a4:9d:6d:ab:64:19:35:
                    ef:3f:73:a9:a1:75:00:75:07:11:b9:0a:ae:34:83:
                    9b:1d:6d:c2:7b:fc:e5:3e:bb:0d:d3:6a:15:e6:0b:
                    35:df
                Exponent: 65537 (0x10001)
        X509v3 extensions:
            X509v3 Basic Constraints: 
                CA:FALSE
            X509v3 Subject Key Identifier: 
                3A:9B:B1:68:37:D4:84:11:92:BF:EC:E2:DE:3F:C5:71:FE:EC:47:57
            X509v3 Authority Key Identifier: 
                keyid:9D:5B:14:6F:23:8A:91:9C:0D:9D:09:50:63:F6:81:AA:E6:E8:B8:3D
                DirName:/CN=team367-net
                serial:60:99:08:34:07:4F:20:8F:B5:AB:C7:1E:5B:45:ED:A7:09:E0:7D:C0
            X509v3 Extended Key Usage: 
                TLS Web Client Authentication
            X509v3 Key Usage: 
                Digital Signature
    Signature Algorithm: sha256WithRSAEncryption
    Signature Value:
        59:bf:55:17:6f:f7:de:d7:ad:41:93:e1:1d:14:a4:c2:12:be:
        a0:9c:c0:25:93:8c:19:08:26:5f:da:77:d0:3b:4f:af:5f:a7:
        01:ec:93:ba:cf:04:a8:b9:f5:37:64:65:b4:40:b2:ba:7a:95:
        9e:e7:e6:6c:56:90:63:63:dc:8b:bb:9f:f5:a4:1c:73:b1:4a:
        b5:c4:e8:b0:3f:27:53:56:cf:62:84:15:49:4c:da:1e:05:95:
        4d:8d:dc:e7:d8:bb:2c:6a:78:51:3b:a7:07:47:ad:12:5b:58:
        53:b8:70:be:e9:a9:b4:41:eb:c4:6d:27:7d:40:66:1b:a4:13:
        ab:d4:33:95:c1:c0:48:e5:78:14:2a:8f:42:cd:96:b8:ee:f0:
        b9:7e:92:3f:75:c1:1e:54:f9:2f:17:e0:76:e7:7f:99:60:bd:
        61:f8:6a:fd:d9:fe:af:69:c5:84:2c:37:a9:59:6e:f5:30:bf:
        80:c4:d6:73:ea:ec:b4:b3:c9:46:e0:f2:90:21:97:d8:94:6b:
        4f:96:6a:bb:bb:f9:68:81:7e:14:d8:f4:06:75:f0:86:cd:d2:
        87:a5:72:3d:c5:3b:a2:62:19:85:c8:3d:39:85:5f:46:6f:18:
        eb:46:2d:1e:13:ab:0e:e8:dd:d6:ee:93:f4:04:e3:1a:bd:0c:
        7c:41:5c:46
-----BEGIN CERTIFICATE-----
MIIDXDCCAkSgAwIBAgIQWA3b25zG/hgTHA/trYlHgzANBgkqhkiG9w0BAQsFADAW
MRQwEgYDVQQDDAt0ZWFtMzY3LW5ldDAeFw0yMzExMDMyMDQ1NTZaFw0yNjEwMTgy
MDQ1NTZaMBkxFzAVBgNVBAMMDnRlYW0zNjctY2xpZW50MIIBIjANBgkqhkiG9w0B
AQEFAAOCAQ8AMIIBCgKCAQEA3Iey82CqJXZ6YLVac7mVPxpcUFWfwm8xBlhMY6kD
868R7wTr2hMU1PAphmRm7CzZNcV1xAHkodUYldI1js++I24bKDF8E2X4qIK2sYXd
QAndLreDCbolKAef0Xomo2+MeynE5ReJA+mNjAya6ZnSwnnTM9/QwDvVZSSqsNXG
5XkpBjdo+cJfQE3JjLTPRY0IQuy6KHq0+D7l5K/6oLmEPBCQMbUC7KhYDXKelFZf
klufoHEuTDsUsEfNur/T9ZKIMe2IfZXDAymr2R36B2wBsF2bg/xHqZOsM6Sdbatk
GTXvP3OpoXUAdQcRuQquNIObHW3Ce/zlPrsN02oV5gs13wIDAQABo4GiMIGfMAkG
A1UdEwQCMAAwHQYDVR0OBBYEFDqbsWg31IQRkr/s4t4/xXH+7EdXMFEGA1UdIwRK
MEiAFJ1bFG8jipGcDZ0JUGP2garm6Lg9oRqkGDAWMRQwEgYDVQQDDAt0ZWFtMzY3
LW5ldIIUYJkINAdPII+1q8ceW0XtpwngfcAwEwYDVR0lBAwwCgYIKwYBBQUHAwIw
CwYDVR0PBAQDAgeAMA0GCSqGSIb3DQEBCwUAA4IBAQBZv1UXb/fe161Bk+EdFKTC
Er6gnMAlk4wZCCZf2nfQO0+vX6cB7JO6zwSoufU3ZGW0QLK6epWe5+ZsVpBjY9yL
u5/1pBxzsUq1xOiwPydTVs9ihBVJTNoeBZVNjdzn2LssanhRO6cHR60SW1hTuHC+
6am0QevEbSd9QGYbpBOr1DOVwcBI5XgUKo9CzZa47vC5fpI/dcEeVPkvF+B253+Z
YL1h+Gr92f6vacWELDepWW71ML+AxNZz6uy0s8lG4PKQIZfYlGtPlmq7u/logX4U
2PQGdfCGzdKHpXI9xTuiYhmFyD05hV9GbxjrRi0eE6sO6N3W7pP0BOMavQx8QVxG
-----END CERTIFICATE-----
