Certificate:
    Data:
        Version: 3 (0x2)
        Serial Number:
            94:b2:12:9c:e2:ba:1b:a8:34:80:a9:e2:38:53:f3:8d
        Signature Algorithm: sha256WithRSAEncryption
        Issuer: CN=team367-net
        Validity
            Not Before: Nov  4 10:47:18 2023 GMT
            Not After : Oct 19 10:47:18 2026 GMT
        Subject: CN=team367-client
        Subject Public Key Info:
            Public Key Algorithm: rsaEncryption
                Public-Key: (2048 bit)
                Modulus:
                    00:b7:e2:8d:cc:00:c1:3f:35:d7:09:f1:51:03:f7:
                    54:9c:72:9d:9b:c3:00:53:25:b4:4e:ca:4a:64:56:
                    04:d3:65:65:10:a9:86:15:b4:fb:0e:31:44:05:c2:
                    e8:ea:d9:22:b1:b8:33:2e:11:b4:d5:70:a5:15:7e:
                    55:f5:aa:fc:f2:44:87:3d:a6:1f:fc:3b:e8:81:14:
                    f3:03:16:8d:f5:e4:9f:ef:ba:5e:ec:17:73:d7:8f:
                    79:fd:56:63:db:da:81:2b:81:d6:ef:09:23:d8:60:
                    a9:47:21:4a:76:bc:b5:36:34:6e:3d:20:72:9e:51:
                    9d:f6:ed:44:f9:97:89:c6:c2:ce:c5:4b:44:a1:f6:
                    16:49:2e:1e:88:55:d5:68:2d:5b:08:95:ea:e9:8d:
                    ab:9b:c1:a0:bd:17:03:5f:da:85:e1:12:86:61:1a:
                    e4:21:fa:00:34:37:f8:2f:df:81:d7:9b:16:36:f1:
                    5c:58:b2:a9:49:be:68:55:c9:5f:94:14:00:e0:2a:
                    e9:a4:9c:27:e1:f4:4f:c5:a8:b8:b4:c2:88:13:2b:
                    ce:6b:13:95:67:43:8b:39:eb:ec:a7:14:15:78:24:
                    b3:2e:e4:fe:9c:08:d0:44:2e:61:22:bf:83:2a:ad:
                    dc:ca:0f:f1:54:66:44:e7:c6:aa:fe:b5:9c:71:53:
                    80:0f
                Exponent: 65537 (0x10001)
        X509v3 extensions:
            X509v3 Basic Constraints: 
                CA:FALSE
            X509v3 Subject Key Identifier: 
                85:D4:99:ED:CA:FD:82:DC:CD:B6:E9:26:28:AE:DF:93:AE:E5:36:6A
            X509v3 Authority Key Identifier: 
                keyid:F9:75:0E:99:A3:72:98:34:E1:6B:FA:71:2C:90:8F:3D:90:DA:ED:F1
                DirName:/CN=team367-net
                serial:21:AA:97:72:AF:73:33:41:9F:5A:79:EF:CF:5B:4B:E2:8B:F7:F3:0C
            X509v3 Extended Key Usage: 
                TLS Web Client Authentication
            X509v3 Key Usage: 
                Digital Signature
    Signature Algorithm: sha256WithRSAEncryption
    Signature Value:
        2e:b8:20:59:e3:86:95:db:33:a1:a9:17:0d:88:7d:7e:0e:3e:
        91:f3:4f:f8:8f:67:32:4f:3c:d0:71:31:c9:ee:a4:28:2a:1b:
        6d:1f:86:47:11:1c:5a:e5:23:21:1e:43:45:3d:72:79:ea:38:
        1b:79:15:dd:fe:a5:5b:7e:6c:7c:89:15:7a:e7:20:c7:92:eb:
        15:4b:a2:c9:31:81:21:19:76:34:6d:22:d0:ae:48:e9:58:a0:
        61:a6:db:1a:8a:3e:24:78:78:f5:d6:ac:7f:85:9e:0d:10:b4:
        d6:32:e6:9e:1b:95:68:80:16:87:99:9a:86:02:a8:14:65:15:
        fb:6e:9a:09:8e:d5:45:4c:10:9a:50:24:57:78:96:35:49:9c:
        1e:05:e5:6d:17:fb:3e:56:c1:b1:1f:6e:1d:60:00:36:b9:87:
        96:9d:51:26:4b:67:97:5d:88:6d:59:52:5c:d5:80:a1:ee:62:
        74:01:4a:f7:dc:b2:f1:6d:c0:09:3e:2d:d5:31:e9:90:b9:11:
        82:5a:72:4d:33:d2:61:cf:55:13:a4:1a:1c:50:23:b1:e0:a3:
        38:4e:d5:25:8e:59:bc:d2:40:1a:dc:dc:58:01:ad:2c:0e:fc:
        38:58:fe:b2:02:4d:38:25:f7:46:67:bf:24:de:1c:8c:cf:8b:
        62:df:6e:f0
-----BEGIN CERTIFICATE-----
MIIDXTCCAkWgAwIBAgIRAJSyEpziuhuoNICp4jhT840wDQYJKoZIhvcNAQELBQAw
FjEUMBIGA1UEAwwLdGVhbTM2Ny1uZXQwHhcNMjMxMTA0MTA0NzE4WhcNMjYxMDE5
MTA0NzE4WjAZMRcwFQYDVQQDDA50ZWFtMzY3LWNsaWVudDCCASIwDQYJKoZIhvcN
AQEBBQADggEPADCCAQoCggEBALfijcwAwT811wnxUQP3VJxynZvDAFMltE7KSmRW
BNNlZRCphhW0+w4xRAXC6OrZIrG4My4RtNVwpRV+VfWq/PJEhz2mH/w76IEU8wMW
jfXkn++6XuwXc9ePef1WY9vagSuB1u8JI9hgqUchSna8tTY0bj0gcp5RnfbtRPmX
icbCzsVLRKH2FkkuHohV1WgtWwiV6umNq5vBoL0XA1/aheEShmEa5CH6ADQ3+C/f
gdebFjbxXFiyqUm+aFXJX5QUAOAq6aScJ+H0T8WouLTCiBMrzmsTlWdDiznr7KcU
FXgksy7k/pwI0EQuYSK/gyqt3MoP8VRmROfGqv61nHFTgA8CAwEAAaOBojCBnzAJ
BgNVHRMEAjAAMB0GA1UdDgQWBBSF1Jntyv2C3M226SYort+TruU2ajBRBgNVHSME
SjBIgBT5dQ6Zo3KYNOFr+nEskI89kNrt8aEapBgwFjEUMBIGA1UEAwwLdGVhbTM2
Ny1uZXSCFCGql3KvczNBn1p5789bS+KL9/MMMBMGA1UdJQQMMAoGCCsGAQUFBwMC
MAsGA1UdDwQEAwIHgDANBgkqhkiG9w0BAQsFAAOCAQEALrggWeOGldszoakXDYh9
fg4+kfNP+I9nMk880HExye6kKCobbR+GRxEcWuUjIR5DRT1yeeo4G3kV3f6lW35s
fIkVeucgx5LrFUuiyTGBIRl2NG0i0K5I6VigYabbGoo+JHh49dasf4WeDRC01jLm
nhuVaIAWh5mahgKoFGUV+26aCY7VRUwQmlAkV3iWNUmcHgXlbRf7PlbBsR9uHWAA
NrmHlp1RJktnl12IbVlSXNWAoe5idAFK99yy8W3ACT4t1THpkLkRglpyTTPSYc9V
E6QaHFAjseCjOE7VJY5ZvNJAGtzcWAGtLA78OFj+sgJNOCX3Rme/JN4cjM+LYt9u
8A==
-----END CERTIFICATE-----
