Certificate:
    Data:
        Version: 3 (0x2)
        Serial Number:
            cb:99:ed:64:f6:5c:d4:ee:fb:c9:1c:bd:91:a8:b4:4e
        Signature Algorithm: sha256WithRSAEncryption
        Issuer: CN=team367-net
        Validity
            Not Before: Nov  4 10:47:18 2023 GMT
            Not After : Oct 19 10:47:18 2026 GMT
        Subject: CN=team367-server
        Subject Public Key Info:
            Public Key Algorithm: rsaEncryption
                Public-Key: (2048 bit)
                Modulus:
                    00:d1:eb:66:f5:9c:2a:41:b7:91:ef:3e:79:a4:50:
                    1e:e6:49:08:de:89:9e:c3:80:59:92:bc:9c:ac:7e:
                    19:18:fe:6a:02:9b:cd:1a:9f:20:29:ea:17:38:47:
                    37:1f:69:07:20:db:43:54:93:1b:fa:0c:96:28:cb:
                    38:cd:07:35:97:5e:41:85:23:83:9e:ba:cb:cb:7f:
                    93:d4:a5:7c:61:ad:13:ec:2d:83:71:9f:90:1e:be:
                    31:8c:33:84:5a:10:75:06:4a:c0:83:3b:f4:f5:e9:
                    4b:f8:30:64:cc:51:2e:21:9b:d9:4a:cb:18:ae:24:
                    0b:85:d9:ef:ff:65:ad:c9:30:33:ac:ec:a6:76:d8:
                    1d:5f:2b:45:9e:c5:89:0f:c1:91:1c:a2:16:52:76:
                    9e:34:ae:ce:8f:d9:5c:2c:16:d9:08:56:3b:c7:ee:
                    da:48:48:f5:0a:65:73:f3:c5:9e:3f:6b:f4:65:cd:
                    d2:02:7e:c9:d0:ce:ea:a7:c1:58:9b:62:e2:a0:eb:
                    07:d1:1d:be:31:72:42:10:62:cb:00:63:a5:dc:af:
                    d6:51:27:09:0a:4e:bc:cf:b4:89:0d:14:db:b0:66:
                    86:8a:ad:8d:47:6f:76:e4:61:0f:33:c8:ef:47:8e:
                    c3:c1:6d:94:90:14:17:a4:1b:2b:c3:49:20:20:11:
                    36:29
                Exponent: 65537 (0x10001)
        X509v3 extensions:
            X509v3 Basic Constraints: 
                CA:FALSE
            X509v3 Subject Key Identifier: 
                60:7F:CB:D3:48:CA:09:7E:E1:6A:F3:57:DA:C7:15:E3:8E:99:EE:BE
            X509v3 Authority Key Identifier: 
                keyid:F9:75:0E:99:A3:72:98:34:E1:6B:FA:71:2C:90:8F:3D:90:DA:ED:F1
                DirName:/CN=team367-net
                serial:21:AA:97:72:AF:73:33:41:9F:5A:79:EF:CF:5B:4B:E2:8B:F7:F3:0C
            X509v3 Extended Key Usage: 
                TLS Web Server Authentication
            X509v3 Key Usage: 
                Digital Signature, Key Encipherment
            X509v3 Subject Alternative Name: 
                DNS:team367-server
    Signature Algorithm: sha256WithRSAEncryption
    Signature Value:
        8a:2c:39:a7:6f:6a:62:ff:57:d2:8b:f9:60:bc:88:17:f9:52:
        dc:57:e6:2d:55:57:76:88:ab:82:e8:0c:e4:d6:56:44:a2:62:
        a2:8d:90:24:b1:c8:dc:bd:16:a6:f0:80:5a:6c:81:c0:52:51:
        29:31:29:04:d2:e1:1e:81:54:45:b2:55:08:9f:0e:fe:41:51:
        08:1b:56:96:0f:49:7d:9c:31:40:20:d0:b0:71:29:59:ea:c1:
        9a:6e:1c:b6:e6:c4:a1:09:be:ac:1c:de:0c:47:52:fe:a5:96:
        79:2b:e9:db:08:d0:1b:61:4c:fd:46:79:23:79:e9:71:fb:43:
        c8:f3:1c:f4:c7:01:74:80:e6:9c:2d:23:fa:aa:f6:07:2a:08:
        f4:fe:ac:27:5b:6a:d4:01:da:53:20:c3:fd:14:2f:c0:8a:e9:
        df:6c:23:33:53:25:cd:40:48:d6:e5:b1:15:b5:47:40:7f:ef:
        35:0b:4a:9d:88:5d:7b:af:79:3d:05:61:c4:b2:f0:58:33:6e:
        15:6b:df:70:21:4a:55:43:45:f4:4b:78:81:31:02:16:4c:a8:
        19:7c:6c:2a:3d:6b:1d:d2:23:89:96:76:77:54:af:7c:29:a9:
        a2:26:c7:26:1f:dc:09:ad:5d:04:d0:ed:23:c4:65:02:a5:68:
        c1:9f:7a:48
-----BEGIN CERTIFICATE-----
MIIDeDCCAmCgAwIBAgIRAMuZ7WT2XNTu+8kcvZGotE4wDQYJKoZIhvcNAQELBQAw
FjEUMBIGA1UEAwwLdGVhbTM2Ny1uZXQwHhcNMjMxMTA0MTA0NzE4WhcNMjYxMDE5
MTA0NzE4WjAZMRcwFQYDVQQDDA50ZWFtMzY3LXNlcnZlcjCCASIwDQYJKoZIhvcN
AQEBBQADggEPADCCAQoCggEBANHrZvWcKkG3ke8+eaRQHuZJCN6JnsOAWZK8nKx+
GRj+agKbzRqfICnqFzhHNx9pByDbQ1STG/oMlijLOM0HNZdeQYUjg566y8t/k9Sl
fGGtE+wtg3GfkB6+MYwzhFoQdQZKwIM79PXpS/gwZMxRLiGb2UrLGK4kC4XZ7/9l
rckwM6zspnbYHV8rRZ7FiQ/BkRyiFlJ2njSuzo/ZXCwW2QhWO8fu2khI9Qplc/PF
nj9r9GXN0gJ+ydDO6qfBWJti4qDrB9EdvjFyQhBiywBjpdyv1lEnCQpOvM+0iQ0U
27BmhoqtjUdvduRhDzPI70eOw8FtlJAUF6QbK8NJICARNikCAwEAAaOBvTCBujAJ
BgNVHRMEAjAAMB0GA1UdDgQWBBRgf8vTSMoJfuFq81faxxXjjpnuvjBRBgNVHSME
SjBIgBT5dQ6Zo3KYNOFr+nEskI89kNrt8aEapBgwFjEUMBIGA1UEAwwLdGVhbTM2
Ny1uZXSCFCGql3KvczNBn1p5789bS+KL9/MMMBMGA1UdJQQMMAoGCCsGAQUFBwMB
MAsGA1UdDwQEAwIFoDAZBgNVHREEEjAQgg50ZWFtMzY3LXNlcnZlcjANBgkqhkiG
9w0BAQsFAAOCAQEAiiw5p29qYv9X0ov5YLyIF/lS3FfmLVVXdoirgugM5NZWRKJi
oo2QJLHI3L0WpvCAWmyBwFJRKTEpBNLhHoFURbJVCJ8O/kFRCBtWlg9JfZwxQCDQ
sHEpWerBmm4ctubEoQm+rBzeDEdS/qWWeSvp2wjQG2FM/UZ5I3npcftDyPMc9McB
dIDmnC0j+qr2ByoI9P6sJ1tq1AHaUyDD/RQvwIrp32wjM1MlzUBI1uWxFbVHQH/v
NQtKnYhde695PQVhxLLwWDNuFWvfcCFKVUNF9Et4gTECFkyoGXxsKj1rHdIjiZZ2
d1SvfCmpoibHJh/cCa1dBNDtI8RlAqVowZ96SA==
-----END CERTIFICATE-----
