Certificate:
    Data:
        Version: 3 (0x2)
        Serial Number:
            dc:b4:9e:39:c1:7d:06:54:87:08:f1:85:4e:42:34:20
        Signature Algorithm: sha256WithRSAEncryption
        Issuer: CN=team367-net
        Validity
            Not Before: Nov  4 11:35:40 2023 GMT
            Not After : Oct 19 11:35:40 2026 GMT
        Subject: CN=team367-client
        Subject Public Key Info:
            Public Key Algorithm: rsaEncryption
                Public-Key: (2048 bit)
                Modulus:
                    00:b9:dd:65:82:74:a3:2c:61:0e:2a:9f:9a:4f:f0:
                    dc:53:eb:b6:0b:1c:25:6c:45:c5:83:8a:f4:e6:f7:
                    59:86:18:51:87:97:04:95:eb:aa:ee:2e:32:c0:1d:
                    b5:22:00:d7:94:30:d1:19:03:4c:1e:4b:e7:ce:9d:
                    7e:ec:bc:8a:c7:ef:ae:7e:4a:4d:79:a6:59:03:9d:
                    7e:80:73:13:b1:9b:ab:a1:0d:58:1f:63:4f:1a:79:
                    08:ae:f3:b0:87:c6:f8:cb:1f:84:c0:91:71:14:90:
                    fb:d5:27:ba:c8:80:0a:cd:f8:ae:a5:d7:f2:70:a6:
                    07:30:bf:97:36:15:36:c4:9c:01:a2:c8:4d:65:fa:
                    cb:bc:e1:42:de:07:1f:01:86:80:15:1c:65:a3:f3:
                    1f:27:90:33:3d:44:8d:c9:17:2f:94:bc:74:cf:d6:
                    9a:90:f2:98:64:42:68:55:8e:e1:47:18:96:c8:c2:
                    2d:1b:2c:6a:7d:31:4a:3e:b6:c2:02:01:fd:5b:35:
                    d6:27:28:10:9b:35:ca:04:21:94:8b:f4:27:43:91:
                    38:97:f5:5c:5e:23:19:b9:1f:33:03:4c:f1:2a:10:
                    47:a0:e2:0d:50:33:d2:3f:70:4a:8e:52:50:ee:ea:
                    28:a0:5b:c6:6d:89:0c:81:a9:90:c1:32:11:54:ae:
                    d0:11
                Exponent: 65537 (0x10001)
        X509v3 extensions:
            X509v3 Basic Constraints: 
                CA:FALSE
            X509v3 Subject Key Identifier: 
                7D:C4:58:73:54:96:D6:A4:F5:DE:08:26:23:4B:03:7C:52:FD:9D:33
            X509v3 Authority Key Identifier: 
                keyid:2D:7A:44:A8:AB:4D:80:A6:DA:F5:88:DA:DD:89:FF:0C:6C:8C:6F:D2
                DirName:/CN=team367-net
                serial:29:44:C5:83:06:C6:F5:27:7F:3B:E7:86:CA:79:AE:49:33:AF:E0:12
            X509v3 Extended Key Usage: 
                TLS Web Client Authentication
            X509v3 Key Usage: 
                Digital Signature
    Signature Algorithm: sha256WithRSAEncryption
    Signature Value:
        9e:26:5f:3e:a5:91:dd:1b:4f:78:d8:e3:03:74:b8:f1:78:30:
        81:e8:2d:45:4e:08:8c:e1:5b:f7:8b:50:42:13:50:c7:1e:56:
        de:96:23:f5:f7:ff:55:ef:09:db:67:c2:e2:27:93:ee:d2:b1:
        1d:a8:65:71:94:34:07:cd:9a:0e:9e:7f:95:dc:2d:9b:26:0c:
        ab:8a:17:a2:e6:0f:2e:da:89:1c:0a:06:06:d2:d9:a3:32:c0:
        b6:4e:90:e8:dc:70:1e:21:1b:db:b5:7b:d1:b2:7b:c6:8f:4c:
        e5:bb:c3:a3:26:e6:a2:4e:dc:3b:9f:de:1a:8e:a3:e9:cd:3e:
        e8:56:7d:cb:f0:fe:5e:83:6c:dd:a3:e4:e8:61:a1:cd:1c:9e:
        5c:23:f0:e6:18:59:e6:17:2e:59:7c:5f:1b:43:40:c7:2d:b8:
        1d:d3:71:b1:d5:6a:f2:b8:ff:0b:3c:69:61:e6:97:1b:b9:e8:
        bc:aa:ae:8b:ce:c9:72:c4:91:75:a7:b3:ac:b7:9a:5c:32:0a:
        f5:bc:29:ce:de:d2:b3:f8:99:ef:37:53:41:9f:31:ca:e2:5e:
        ef:5a:22:bb:74:93:15:1e:df:07:ac:93:8e:76:ac:4b:d8:ae:
        d5:91:3e:53:64:0b:39:76:cc:c9:65:a7:7d:1e:26:f3:85:0c:
        78:5e:1c:1c
-----BEGIN CERTIFICATE-----
MIIDXTCCAkWgAwIBAgIRANy0njnBfQZUhwjxhU5CNCAwDQYJKoZIhvcNAQELBQAw
FjEUMBIGA1UEAwwLdGVhbTM2Ny1uZXQwHhcNMjMxMTA0MTEzNTQwWhcNMjYxMDE5
MTEzNTQwWjAZMRcwFQYDVQQDDA50ZWFtMzY3LWNsaWVudDCCASIwDQYJKoZIhvcN
AQEBBQADggEPADCCAQoCggEBALndZYJ0oyxhDiqfmk/w3FPrtgscJWxFxYOK9Ob3
WYYYUYeXBJXrqu4uMsAdtSIA15Qw0RkDTB5L586dfuy8isfvrn5KTXmmWQOdfoBz
E7Gbq6ENWB9jTxp5CK7zsIfG+MsfhMCRcRSQ+9UnusiACs34rqXX8nCmBzC/lzYV
NsScAaLITWX6y7zhQt4HHwGGgBUcZaPzHyeQMz1EjckXL5S8dM/WmpDymGRCaFWO
4UcYlsjCLRssan0xSj62wgIB/Vs11icoEJs1ygQhlIv0J0OROJf1XF4jGbkfMwNM
8SoQR6DiDVAz0j9wSo5SUO7qKKBbxm2JDIGpkMEyEVSu0BECAwEAAaOBojCBnzAJ
BgNVHRMEAjAAMB0GA1UdDgQWBBR9xFhzVJbWpPXeCCYjSwN8Uv2dMzBRBgNVHSME
SjBIgBQtekSoq02Aptr1iNrdif8MbIxv0qEapBgwFjEUMBIGA1UEAwwLdGVhbTM2
Ny1uZXSCFClExYMGxvUnfzvnhsp5rkkzr+ASMBMGA1UdJQQMMAoGCCsGAQUFBwMC
MAsGA1UdDwQEAwIHgDANBgkqhkiG9w0BAQsFAAOCAQEAniZfPqWR3RtPeNjjA3S4
8XgwgegtRU4IjOFb94tQQhNQxx5W3pYj9ff/Ve8J22fC4ieT7tKxHahlcZQ0B82a
Dp5/ldwtmyYMq4oXouYPLtqJHAoGBtLZozLAtk6Q6NxwHiEb27V70bJ7xo9M5bvD
oybmok7cO5/eGo6j6c0+6FZ9y/D+XoNs3aPk6GGhzRyeXCPw5hhZ5hcuWXxfG0NA
xy24HdNxsdVq8rj/CzxpYeaXG7novKqui87JcsSRdaezrLeaXDIK9bwpzt7Ss/iZ
7zdTQZ8xyuJe71oiu3STFR7fB6yTjnasS9iu1ZE+U2QLOXbMyWWnfR4m84UMeF4c
HA==
-----END CERTIFICATE-----
