Certificate:
    Data:
        Version: 3 (0x2)
        Serial Number:
            f1:11:41:63:eb:70:b3:50:17:c8:7b:a0:f7:99:37:52
        Signature Algorithm: sha256WithRSAEncryption
        Issuer: CN=team367-net
        Validity
            Not Before: Nov  4 11:35:40 2023 GMT
            Not After : Oct 19 11:35:40 2026 GMT
        Subject: CN=team367-server
        Subject Public Key Info:
            Public Key Algorithm: rsaEncryption
                Public-Key: (2048 bit)
                Modulus:
                    00:d4:ed:6f:bf:5f:6c:66:0a:57:15:7b:8f:8e:f7:
                    4f:e6:d2:ec:67:86:22:ad:6b:c4:f1:3a:f4:8e:52:
                    87:b8:8e:82:7d:3a:f2:a1:8f:e2:1d:ca:54:bb:cb:
                    91:c4:80:80:e3:22:da:aa:81:73:f5:e7:e6:2f:9f:
                    ab:cb:55:c5:38:29:9b:87:80:28:79:b3:7d:1a:e3:
                    3c:fe:09:f7:da:40:af:f5:9c:b4:ae:61:bc:41:6e:
                    c2:e5:58:08:fa:88:4e:6f:3c:9f:15:e4:f4:7c:1a:
                    e0:4f:0a:bb:42:1c:f6:32:07:12:17:ca:d8:87:cb:
                    a5:d9:3e:cb:ec:ef:52:41:29:1a:34:43:f5:4d:e0:
                    b1:06:b9:c3:5e:33:81:5e:a8:12:6c:55:44:76:5f:
                    ee:a3:5e:cf:08:a9:84:b4:ed:4b:a6:a8:ed:10:eb:
                    f9:60:e2:79:83:33:a3:8d:4c:30:a5:7c:82:e4:bf:
                    ee:0f:a8:ea:ef:01:35:3e:95:09:3f:eb:b1:09:92:
                    63:b2:6d:ea:4e:58:a5:11:70:31:18:3a:ab:2f:6e:
                    06:f7:da:d5:12:fc:d5:76:fb:61:a4:ae:bc:d9:26:
                    eb:7d:27:34:a5:d8:d3:cd:04:33:6b:6d:96:0d:fc:
                    35:e9:af:f9:41:f0:bd:9a:ef:38:23:20:25:79:36:
                    7b:eb
                Exponent: 65537 (0x10001)
        X509v3 extensions:
            X509v3 Basic Constraints: 
                CA:FALSE
            X509v3 Subject Key Identifier: 
                C9:C4:5B:21:7D:67:DD:3D:F4:D2:53:00:1F:F0:10:85:64:F6:68:25
            X509v3 Authority Key Identifier: 
                keyid:2D:7A:44:A8:AB:4D:80:A6:DA:F5:88:DA:DD:89:FF:0C:6C:8C:6F:D2
                DirName:/CN=team367-net
                serial:29:44:C5:83:06:C6:F5:27:7F:3B:E7:86:CA:79:AE:49:33:AF:E0:12
            X509v3 Extended Key Usage: 
                TLS Web Server Authentication
            X509v3 Key Usage: 
                Digital Signature, Key Encipherment
            X509v3 Subject Alternative Name: 
                DNS:team367-server
    Signature Algorithm: sha256WithRSAEncryption
    Signature Value:
        98:5d:68:0b:b2:d6:8b:c9:7c:2c:76:fb:81:81:9e:d2:53:c5:
        53:4d:03:31:dd:bb:03:cb:0e:20:f7:80:09:2d:99:38:19:f3:
        2a:db:b3:95:2c:0a:f6:aa:3a:1d:21:e0:e0:0e:42:c4:27:0f:
        55:8f:97:cc:14:f8:eb:74:00:ef:6c:b0:91:4d:51:d5:06:ff:
        e7:8f:1b:4c:8a:87:37:39:2b:e6:07:77:16:a0:5b:e7:24:92:
        f6:74:ae:bf:21:01:ad:fb:91:0f:13:65:50:be:98:ce:93:76:
        92:e4:50:65:af:86:6c:64:6d:68:de:1c:ae:71:14:41:4e:29:
        c4:b3:10:c6:d1:1e:64:8e:59:ad:20:6b:7a:1f:65:a9:18:c2:
        00:d5:3b:bb:25:d5:f6:e0:a3:68:db:d2:16:9a:29:79:39:4f:
        7d:44:5c:ae:76:4c:1c:1e:2e:b3:51:c5:b5:c9:4e:1c:18:9d:
        6a:f2:b4:ea:2a:7a:24:7d:ca:64:c2:07:78:a7:be:a0:83:f7:
        85:30:14:a6:e9:d4:44:94:d0:14:b0:d8:8b:fc:b7:e1:d8:ca:
        df:f6:e3:f1:25:39:37:b5:26:15:84:0d:d8:48:09:ec:c4:76:
        e0:75:71:e3:98:5a:ce:38:87:b2:ee:0a:cd:ff:3b:5d:6e:4d:
        07:9a:0e:8d
-----BEGIN CERTIFICATE-----
MIIDeDCCAmCgAwIBAgIRAPERQWPrcLNQF8h7oPeZN1IwDQYJKoZIhvcNAQELBQAw
FjEUMBIGA1UEAwwLdGVhbTM2Ny1uZXQwHhcNMjMxMTA0MTEzNTQwWhcNMjYxMDE5
MTEzNTQwWjAZMRcwFQYDVQQDDA50ZWFtMzY3LXNlcnZlcjCCASIwDQYJKoZIhvcN
AQEBBQADggEPADCCAQoCggEBANTtb79fbGYKVxV7j473T+bS7GeGIq1rxPE69I5S
h7iOgn068qGP4h3KVLvLkcSAgOMi2qqBc/Xn5i+fq8tVxTgpm4eAKHmzfRrjPP4J
99pAr/WctK5hvEFuwuVYCPqITm88nxXk9Hwa4E8Ku0Ic9jIHEhfK2IfLpdk+y+zv
UkEpGjRD9U3gsQa5w14zgV6oEmxVRHZf7qNezwiphLTtS6ao7RDr+WDieYMzo41M
MKV8guS/7g+o6u8BNT6VCT/rsQmSY7Jt6k5YpRFwMRg6qy9uBvfa1RL81Xb7YaSu
vNkm630nNKXY080EM2ttlg38Nemv+UHwvZrvOCMgJXk2e+sCAwEAAaOBvTCBujAJ
BgNVHRMEAjAAMB0GA1UdDgQWBBTJxFshfWfdPfTSUwAf8BCFZPZoJTBRBgNVHSME
SjBIgBQtekSoq02Aptr1iNrdif8MbIxv0qEapBgwFjEUMBIGA1UEAwwLdGVhbTM2
Ny1uZXSCFClExYMGxvUnfzvnhsp5rkkzr+ASMBMGA1UdJQQMMAoGCCsGAQUFBwMB
MAsGA1UdDwQEAwIFoDAZBgNVHREEEjAQgg50ZWFtMzY3LXNlcnZlcjANBgkqhkiG
9w0BAQsFAAOCAQEAmF1oC7LWi8l8LHb7gYGe0lPFU00DMd27A8sOIPeACS2ZOBnz
KtuzlSwK9qo6HSHg4A5CxCcPVY+XzBT463QA72ywkU1R1Qb/548bTIqHNzkr5gd3
FqBb5ySS9nSuvyEBrfuRDxNlUL6YzpN2kuRQZa+GbGRtaN4crnEUQU4pxLMQxtEe
ZI5ZrSBreh9lqRjCANU7uyXV9uCjaNvSFpopeTlPfURcrnZMHB4us1HFtclOHBid
avK06ip6JH3KZMIHeKe+oIP3hTAUpunURJTQFLDYi/y34djK3/bj8SU5N7UmFYQN
2EgJ7MR24HVx45hazjiHsu4Kzf87XW5NB5oOjQ==
-----END CERTIFICATE-----
