Certificate:
    Data:
        Version: 3 (0x2)
        Serial Number:
            5b:4f:1f:fb:95:d0:76:d9:79:b3:bd:4a:fd:9d:58:6a
        Signature Algorithm: sha256WithRSAEncryption
        Issuer: CN=team118-net
        Validity
            Not Before: Nov  4 10:42:38 2023 GMT
            Not After : Oct 19 10:42:38 2026 GMT
        Subject: CN=team118-server
        Subject Public Key Info:
            Public Key Algorithm: rsaEncryption
                Public-Key: (2048 bit)
                Modulus:
                    00:b1:de:04:e6:6f:3b:bb:2c:37:a2:71:bb:bf:90:
                    04:5a:0b:d5:47:9e:ea:95:28:52:8a:04:27:a0:83:
                    51:24:0f:f4:bf:54:c0:f4:11:37:73:20:24:8f:b8:
                    0a:38:ff:5e:ae:bc:87:be:d1:f2:19:de:3e:f1:fd:
                    f7:65:1b:b0:a6:4e:52:ca:99:92:ab:3d:4c:7f:d8:
                    38:34:5b:19:90:a4:08:2e:18:8a:e6:2f:61:fc:ff:
                    72:9e:4c:d1:14:d9:00:e6:31:b0:98:7e:2b:ec:62:
                    c3:44:ca:ce:f5:4a:f3:6c:c3:af:ac:10:18:11:7b:
                    b9:bb:65:43:71:3f:fb:58:98:f6:59:f1:26:ca:51:
                    db:6a:6a:fe:bf:2f:4d:a4:9a:b3:25:ce:fb:3b:9b:
                    7a:2f:38:b2:53:12:f4:91:af:98:3a:54:d0:ad:4f:
                    fe:05:4d:a6:6f:79:32:3f:f1:07:ad:fd:df:9e:fc:
                    b0:10:8d:02:a7:9e:94:50:b3:d2:71:5e:cb:01:16:
                    dd:5a:00:00:56:e9:83:60:fd:98:e5:14:ff:35:38:
                    da:d1:7e:8f:36:e5:07:4d:0c:db:31:e9:48:fd:f0:
                    e9:fa:6f:40:72:b9:9d:20:9f:61:76:03:a0:a1:98:
                    0a:6c:3f:93:f9:34:64:94:f9:97:81:50:b5:1c:81:
                    3e:69
                Exponent: 65537 (0x10001)
        X509v3 extensions:
            X509v3 Basic Constraints: 
                CA:FALSE
            X509v3 Subject Key Identifier: 
                9F:D5:27:B0:DF:66:30:33:E7:D3:FB:25:97:59:2D:88:95:20:A9:B6
            X509v3 Authority Key Identifier: 
                keyid:FD:6D:18:E9:04:AD:08:E5:F4:98:07:6D:96:AB:2D:20:A1:E0:94:46
                DirName:/CN=team118-net
                serial:77:18:8C:E5:C3:50:7A:6D:11:C8:ED:B5:73:8E:8F:2C:AD:93:13:C1
            X509v3 Extended Key Usage: 
                TLS Web Server Authentication
            X509v3 Key Usage: 
                Digital Signature, Key Encipherment
            X509v3 Subject Alternative Name: 
                DNS:team118-server
    Signature Algorithm: sha256WithRSAEncryption
    Signature Value:
        68:d4:cd:d3:6a:93:30:5b:62:87:14:0b:bb:ad:08:61:f1:1e:
        4c:84:cf:4e:6c:31:f9:31:50:ee:4c:72:f3:47:a6:1b:b4:3e:
        ca:76:7d:79:2f:0e:e4:f8:32:49:49:c7:a7:5f:4b:a0:98:b5:
        01:19:3d:2e:94:d0:b4:59:07:21:40:78:a3:9c:1f:0a:4a:74:
        8f:76:b6:37:69:4d:19:5b:93:8e:6c:b9:91:7c:f6:8b:f0:b1:
        48:b8:5a:0f:d6:03:d5:e0:0d:6c:aa:61:ab:f6:3c:af:9f:ce:
        c5:1f:9b:fc:d4:45:3d:6e:3b:1e:80:8d:38:35:02:ff:8e:ea:
        af:5c:e9:a5:9f:29:e0:a8:59:25:eb:d1:c1:b0:80:1a:42:cf:
        d2:ec:af:19:d3:af:fa:ed:07:c2:f1:0a:e9:49:15:a5:75:37:
        cc:9c:2c:96:52:a9:7b:e3:72:3f:2f:14:44:4f:b3:8a:10:0d:
        71:84:58:15:fd:f3:04:4b:ef:f0:d2:c5:1b:1a:80:9c:8d:ba:
        7c:98:52:7a:24:d6:d1:4e:3b:b1:85:d7:07:c5:5d:b2:b1:86:
        2c:d4:27:3b:b7:d8:e9:91:fb:62:71:07:93:2b:cf:55:70:dc:
        87:42:51:14:56:e6:85:24:56:32:d5:55:9d:40:54:3a:6c:f8:
        8a:eb:9d:a8
-----BEGIN CERTIFICATE-----
MIIDdzCCAl+gAwIBAgIQW08f+5XQdtl5s71K/Z1YajANBgkqhkiG9w0BAQsFADAW
MRQwEgYDVQQDDAt0ZWFtMTE4LW5ldDAeFw0yMzExMDQxMDQyMzhaFw0yNjEwMTkx
MDQyMzhaMBkxFzAVBgNVBAMMDnRlYW0xMTgtc2VydmVyMIIBIjANBgkqhkiG9w0B
AQEFAAOCAQ8AMIIBCgKCAQEAsd4E5m87uyw3onG7v5AEWgvVR57qlShSigQnoINR
JA/0v1TA9BE3cyAkj7gKOP9erryHvtHyGd4+8f33ZRuwpk5SypmSqz1Mf9g4NFsZ
kKQILhiK5i9h/P9ynkzRFNkA5jGwmH4r7GLDRMrO9UrzbMOvrBAYEXu5u2VDcT/7
WJj2WfEmylHbamr+vy9NpJqzJc77O5t6LziyUxL0ka+YOlTQrU/+BU2mb3kyP/EH
rf3fnvywEI0Cp56UULPScV7LARbdWgAAVumDYP2Y5RT/NTja0X6PNuUHTQzbMelI
/fDp+m9AcrmdIJ9hdgOgoZgKbD+T+TRklPmXgVC1HIE+aQIDAQABo4G9MIG6MAkG
A1UdEwQCMAAwHQYDVR0OBBYEFJ/VJ7DfZjAz59P7JZdZLYiVIKm2MFEGA1UdIwRK
MEiAFP1tGOkErQjl9JgHbZarLSCh4JRGoRqkGDAWMRQwEgYDVQQDDAt0ZWFtMTE4
LW5ldIIUdxiM5cNQem0RyO21c46PLK2TE8EwEwYDVR0lBAwwCgYIKwYBBQUHAwEw
CwYDVR0PBAQDAgWgMBkGA1UdEQQSMBCCDnRlYW0xMTgtc2VydmVyMA0GCSqGSIb3
DQEBCwUAA4IBAQBo1M3TapMwW2KHFAu7rQhh8R5MhM9ObDH5MVDuTHLzR6YbtD7K
dn15Lw7k+DJJScenX0ugmLUBGT0ulNC0WQchQHijnB8KSnSPdrY3aU0ZW5OObLmR
fPaL8LFIuFoP1gPV4A1sqmGr9jyvn87FH5v81EU9bjsegI04NQL/juqvXOmlnyng
qFkl69HBsIAaQs/S7K8Z06/67QfC8QrpSRWldTfMnCyWUql743I/LxRET7OKEA1x
hFgV/fMES+/w0sUbGoCcjbp8mFJ6JNbRTjuxhdcHxV2ysYYs1Cc7t9jpkfticQeT
K89VcNyHQlEUVuaFJFYy1VWdQFQ6bPiK652o
-----END CERTIFICATE-----
