Certificate:
    Data:
        Version: 3 (0x2)
        Serial Number:
            65:f9:09:eb:91:85:bf:6a:9f:c8:f9:f7:7b:77:1b:46
        Signature Algorithm: sha256WithRSAEncryption
        Issuer: CN=team118-net
        Validity
            Not Before: Nov  4 11:29:48 2023 GMT
            Not After : Oct 19 11:29:48 2026 GMT
        Subject: CN=team118-server
        Subject Public Key Info:
            Public Key Algorithm: rsaEncryption
                Public-Key: (2048 bit)
                Modulus:
                    00:89:c9:ad:a9:fa:31:b1:32:ee:c7:26:41:d4:11:
                    91:0e:b4:9a:80:ce:23:0f:51:0c:52:a9:39:44:3f:
                    74:0e:62:1c:cf:a1:9e:62:29:34:82:c4:a7:32:da:
                    ab:4e:81:4f:43:63:62:cf:95:18:11:5b:62:71:5d:
                    96:fc:ef:d7:67:8e:d2:c8:c3:6e:1e:ab:73:9a:dc:
                    ab:d2:94:48:67:f0:e4:02:fd:70:94:ac:47:11:1a:
                    53:2f:26:c0:8b:e5:6c:27:44:24:8f:67:b7:03:ea:
                    ba:0e:6e:0b:06:88:21:cc:83:5e:31:4c:8d:2c:30:
                    36:6a:c6:e5:1f:b6:69:82:23:82:98:82:7a:54:15:
                    9a:f0:7e:33:fa:55:70:33:9b:04:d8:ca:25:e0:e5:
                    08:dd:0b:87:ea:f4:c1:f6:1a:cd:ab:da:59:18:ea:
                    17:b9:97:2e:18:85:92:81:f6:41:19:d5:a6:11:11:
                    1a:20:b9:ca:b6:e5:85:d3:3f:78:db:49:af:82:42:
                    98:c6:92:d8:b6:f8:f1:f8:6e:04:86:48:ca:58:8e:
                    e3:49:02:88:8e:86:a7:49:fe:18:33:b2:8b:a8:e3:
                    66:2d:14:79:d7:16:9f:d5:bb:9d:ae:92:12:9e:d8:
                    71:95:fc:c1:9c:ef:85:f5:5b:ab:49:8c:28:6a:2d:
                    0a:41
                Exponent: 65537 (0x10001)
        X509v3 extensions:
            X509v3 Basic Constraints: 
                CA:FALSE
            X509v3 Subject Key Identifier: 
                8D:88:DE:EA:87:F7:50:62:06:07:DA:EB:CB:28:E6:C4:82:29:55:4A
            X509v3 Authority Key Identifier: 
                keyid:01:CF:F7:77:4C:0B:B6:8E:93:C5:91:51:C5:9A:1D:47:24:67:88:1E
                DirName:/CN=team118-net
                serial:19:F2:50:0C:66:6A:53:AB:39:F7:DA:FC:21:23:55:2E:21:B4:07:53
            X509v3 Extended Key Usage: 
                TLS Web Server Authentication
            X509v3 Key Usage: 
                Digital Signature, Key Encipherment
            X509v3 Subject Alternative Name: 
                DNS:team118-server
    Signature Algorithm: sha256WithRSAEncryption
    Signature Value:
        55:ab:b8:f5:af:f6:d9:9e:7d:ed:33:b8:1b:f3:58:ae:e2:f9:
        63:8d:67:7e:9e:45:39:94:10:ba:b5:42:fa:4e:73:ce:dc:fd:
        74:c1:e5:30:dd:4e:56:71:42:86:29:dd:b2:53:9f:5f:63:89:
        ec:b5:f8:46:cf:0a:a3:61:d2:71:ee:71:d9:54:c8:6d:90:df:
        f7:60:90:9b:af:41:6e:f3:01:b9:c1:37:67:db:ae:39:86:09:
        a8:ea:46:d3:2f:e5:55:6c:34:b7:6e:4f:85:f6:7b:85:de:7c:
        19:cc:f4:df:89:a5:9b:2b:f2:32:bd:dc:06:44:9d:54:f4:04:
        78:d5:ed:5a:54:f8:b2:fa:1e:b1:df:0a:22:b0:66:75:47:98:
        f9:1d:3f:43:80:aa:16:ad:8b:2c:50:bd:f4:fd:5b:ac:d5:ca:
        fb:9d:f6:12:c0:26:94:e7:70:c6:07:44:cc:e1:eb:5b:66:8c:
        02:63:38:7f:94:f5:b6:5f:95:61:95:59:2f:9f:e2:2d:bf:21:
        ec:ed:97:f3:15:0a:ac:85:eb:ee:f2:c9:71:f1:20:71:8d:bc:
        76:7e:01:3e:7c:aa:16:22:31:e7:fb:61:69:8f:f2:87:34:0f:
        c8:73:50:24:52:2d:d1:79:a4:31:e3:a9:31:c9:dc:00:85:29:
        86:b0:57:0b
-----BEGIN CERTIFICATE-----
MIIDdzCCAl+gAwIBAgIQZfkJ65GFv2qfyPn3e3cbRjANBgkqhkiG9w0BAQsFADAW
MRQwEgYDVQQDDAt0ZWFtMTE4LW5ldDAeFw0yMzExMDQxMTI5NDhaFw0yNjEwMTkx
MTI5NDhaMBkxFzAVBgNVBAMMDnRlYW0xMTgtc2VydmVyMIIBIjANBgkqhkiG9w0B
AQEFAAOCAQ8AMIIBCgKCAQEAicmtqfoxsTLuxyZB1BGRDrSagM4jD1EMUqk5RD90
DmIcz6GeYik0gsSnMtqrToFPQ2Niz5UYEVticV2W/O/XZ47SyMNuHqtzmtyr0pRI
Z/DkAv1wlKxHERpTLybAi+VsJ0Qkj2e3A+q6Dm4LBoghzINeMUyNLDA2asblH7Zp
giOCmIJ6VBWa8H4z+lVwM5sE2Mol4OUI3QuH6vTB9hrNq9pZGOoXuZcuGIWSgfZB
GdWmEREaILnKtuWF0z9420mvgkKYxpLYtvjx+G4EhkjKWI7jSQKIjoanSf4YM7KL
qONmLRR51xaf1budrpISnthxlfzBnO+F9VurSYwoai0KQQIDAQABo4G9MIG6MAkG
A1UdEwQCMAAwHQYDVR0OBBYEFI2I3uqH91BiBgfa68so5sSCKVVKMFEGA1UdIwRK
MEiAFAHP93dMC7aOk8WRUcWaHUckZ4geoRqkGDAWMRQwEgYDVQQDDAt0ZWFtMTE4
LW5ldIIUGfJQDGZqU6s599r8ISNVLiG0B1MwEwYDVR0lBAwwCgYIKwYBBQUHAwEw
CwYDVR0PBAQDAgWgMBkGA1UdEQQSMBCCDnRlYW0xMTgtc2VydmVyMA0GCSqGSIb3
DQEBCwUAA4IBAQBVq7j1r/bZnn3tM7gb81iu4vljjWd+nkU5lBC6tUL6TnPO3P10
weUw3U5WcUKGKd2yU59fY4nstfhGzwqjYdJx7nHZVMhtkN/3YJCbr0Fu8wG5wTdn
2645hgmo6kbTL+VVbDS3bk+F9nuF3nwZzPTfiaWbK/IyvdwGRJ1U9AR41e1aVPiy
+h6x3woisGZ1R5j5HT9DgKoWrYssUL30/Vus1cr7nfYSwCaU53DGB0TM4etbZowC
Yzh/lPW2X5VhlVkvn+ItvyHs7ZfzFQqshevu8slx8SBxjbx2fgE+fKoWIjHn+2Fp
j/KHNA/Ic1AkUi3ReaQx46kxydwAhSmGsFcL
-----END CERTIFICATE-----
