Certificate:
    Data:
        Version: 3 (0x2)
        Serial Number:
            c9:1f:0a:e8:4f:9e:d9:3c:cb:7c:3d:13:77:d4:85:0f
        Signature Algorithm: sha256WithRSAEncryption
        Issuer: CN=team118-net
        Validity
            Not Before: Nov  4 11:29:48 2023 GMT
            Not After : Oct 19 11:29:48 2026 GMT
        Subject: CN=team118-client
        Subject Public Key Info:
            Public Key Algorithm: rsaEncryption
                Public-Key: (2048 bit)
                Modulus:
                    00:b0:1b:9c:b8:0e:2d:b4:69:dd:d0:00:47:d9:61:
                    cd:4a:cf:ea:85:ac:44:a5:0f:81:46:db:75:f0:d5:
                    cb:8a:ed:ac:4d:13:b9:fe:c1:2e:30:5e:14:06:f9:
                    93:cd:23:db:e5:a5:e8:f6:05:19:57:fe:1f:53:10:
                    78:d4:55:db:17:3a:ea:25:ba:bc:70:97:77:59:8d:
                    ab:6d:4f:06:00:41:cb:89:e6:0c:f3:1b:95:94:93:
                    d2:0a:d9:25:ba:5d:4f:83:23:a6:89:11:4a:72:4c:
                    1e:c7:8b:9c:56:ae:1d:00:98:68:ad:a0:8a:47:b0:
                    73:75:d5:fa:1c:9e:23:6e:4f:d2:e2:b9:0b:5e:f8:
                    08:3f:6d:f6:95:e1:3f:68:dc:d6:85:5b:1b:70:e1:
                    99:0e:24:cf:86:5b:2b:cf:42:57:03:6c:a8:97:bf:
                    78:11:3a:6a:63:98:6d:9b:6d:34:56:85:a6:e1:73:
                    d4:59:1d:f4:f0:ac:2d:9c:d6:70:8f:6c:82:28:f3:
                    fe:8c:da:14:68:ed:a7:7f:a0:c3:75:aa:6a:69:97:
                    d2:ca:19:41:e0:6f:91:52:dd:ee:32:c5:78:d2:b3:
                    ea:15:79:ce:c7:6c:df:dc:6c:03:60:22:0a:89:aa:
                    93:6a:8f:10:b6:a6:fc:d9:29:45:c7:1c:a2:04:12:
                    b1:cf
                Exponent: 65537 (0x10001)
        X509v3 extensions:
            X509v3 Basic Constraints: 
                CA:FALSE
            X509v3 Subject Key Identifier: 
                CC:ED:C3:58:56:F6:99:FF:D9:A2:11:78:DD:25:C2:83:8C:17:FC:F8
            X509v3 Authority Key Identifier: 
                keyid:01:CF:F7:77:4C:0B:B6:8E:93:C5:91:51:C5:9A:1D:47:24:67:88:1E
                DirName:/CN=team118-net
                serial:19:F2:50:0C:66:6A:53:AB:39:F7:DA:FC:21:23:55:2E:21:B4:07:53
            X509v3 Extended Key Usage: 
                TLS Web Client Authentication
            X509v3 Key Usage: 
                Digital Signature
    Signature Algorithm: sha256WithRSAEncryption
    Signature Value:
        0a:0d:e3:cf:6a:f6:91:2c:73:c3:d4:e7:e7:ee:18:9e:48:45:
        39:e1:e0:10:92:72:1f:17:16:b5:fd:a8:2b:a9:f6:85:bf:0a:
        b0:24:18:46:ac:25:ec:85:96:76:bb:ec:cb:b1:b1:4b:64:e3:
        fa:84:1a:7f:57:ce:a7:c2:33:c5:3c:82:bd:58:fa:61:6d:22:
        c3:01:84:4a:5e:02:1d:11:fb:2c:c7:d5:1d:b2:93:1a:2e:ec:
        86:6f:1e:e2:d5:8c:6b:20:58:fe:63:eb:15:23:a0:9e:ff:2a:
        a2:41:36:b2:92:f6:97:28:79:55:aa:bc:f8:d3:d2:0c:57:ca:
        dd:0d:03:dd:1e:79:de:7f:df:ea:a1:55:90:14:13:fe:62:20:
        0c:92:97:7c:c4:ba:1e:a8:a4:b7:63:0c:1c:3a:56:79:2f:bb:
        26:22:ac:92:f6:e6:fd:f9:27:b8:09:1f:87:45:0a:db:8c:b4:
        09:4b:07:55:da:a0:b4:de:6b:bb:b8:ec:df:9f:d4:ea:02:97:
        3d:24:3a:3c:7e:a6:d1:c6:59:51:0e:4d:b3:f1:c9:f2:3a:ee:
        39:da:41:53:d8:6d:36:4e:63:74:de:43:85:84:60:8e:a1:07:
        95:5a:d0:ad:30:15:aa:dd:09:1c:03:c7:88:db:88:05:c9:d3:
        c6:b0:69:61
-----BEGIN CERTIFICATE-----
MIIDXTCCAkWgAwIBAgIRAMkfCuhPntk8y3w9E3fUhQ8wDQYJKoZIhvcNAQELBQAw
FjEUMBIGA1UEAwwLdGVhbTExOC1uZXQwHhcNMjMxMTA0MTEyOTQ4WhcNMjYxMDE5
MTEyOTQ4WjAZMRcwFQYDVQQDDA50ZWFtMTE4LWNsaWVudDCCASIwDQYJKoZIhvcN
AQEBBQADggEPADCCAQoCggEBALAbnLgOLbRp3dAAR9lhzUrP6oWsRKUPgUbbdfDV
y4rtrE0Tuf7BLjBeFAb5k80j2+Wl6PYFGVf+H1MQeNRV2xc66iW6vHCXd1mNq21P
BgBBy4nmDPMblZST0grZJbpdT4MjpokRSnJMHseLnFauHQCYaK2gikewc3XV+hye
I25P0uK5C174CD9t9pXhP2jc1oVbG3DhmQ4kz4ZbK89CVwNsqJe/eBE6amOYbZtt
NFaFpuFz1Fkd9PCsLZzWcI9sgijz/ozaFGjtp3+gw3WqammX0soZQeBvkVLd7jLF
eNKz6hV5zsds39xsA2AiComqk2qPELam/NkpRcccogQSsc8CAwEAAaOBojCBnzAJ
BgNVHRMEAjAAMB0GA1UdDgQWBBTM7cNYVvaZ/9miEXjdJcKDjBf8+DBRBgNVHSME
SjBIgBQBz/d3TAu2jpPFkVHFmh1HJGeIHqEapBgwFjEUMBIGA1UEAwwLdGVhbTEx
OC1uZXSCFBnyUAxmalOrOffa/CEjVS4htAdTMBMGA1UdJQQMMAoGCCsGAQUFBwMC
MAsGA1UdDwQEAwIHgDANBgkqhkiG9w0BAQsFAAOCAQEACg3jz2r2kSxzw9Tn5+4Y
nkhFOeHgEJJyHxcWtf2oK6n2hb8KsCQYRqwl7IWWdrvsy7GxS2Tj+oQaf1fOp8Iz
xTyCvVj6YW0iwwGESl4CHRH7LMfVHbKTGi7shm8e4tWMayBY/mPrFSOgnv8qokE2
spL2lyh5Vaq8+NPSDFfK3Q0D3R553n/f6qFVkBQT/mIgDJKXfMS6Hqikt2MMHDpW
eS+7JiKskvbm/fknuAkfh0UK24y0CUsHVdqgtN5ru7js35/U6gKXPSQ6PH6m0cZZ
UQ5Ns/HJ8jruOdpBU9htNk5jdN5DhYRgjqEHlVrQrTAVqt0JHAPHiNuIBcnTxrBp
YQ==
-----END CERTIFICATE-----
