Certificate:
    Data:
        Version: 3 (0x2)
        Serial Number:
            06:3d:29:18:0e:9f:06:b4:8e:ee:69:08:e4:1a:52:f0
        Signature Algorithm: sha256WithRSAEncryption
        Issuer: CN=team49-net
        Validity
            Not Before: Nov  4 11:28:19 2023 GMT
            Not After : Oct 19 11:28:19 2026 GMT
        Subject: CN=team49-client
        Subject Public Key Info:
            Public Key Algorithm: rsaEncryption
                Public-Key: (2048 bit)
                Modulus:
                    00:b3:ce:74:93:7a:a3:f8:ff:ae:ed:3d:24:9c:6e:
                    c8:f7:e7:01:36:63:5d:c0:76:8c:11:e3:e7:cd:0a:
                    00:a6:91:67:6c:1f:45:f8:69:65:ec:ea:af:ab:69:
                    0d:80:31:47:f2:d4:b9:44:ae:4a:27:27:c4:d3:93:
                    2d:7a:83:c3:b2:f9:a8:9c:27:66:0f:12:b1:0a:3d:
                    f2:6d:e8:6a:e6:66:2b:a8:47:8c:1c:3e:02:ef:a6:
                    af:d6:95:99:3e:b9:cf:b5:5e:cf:12:00:7d:54:ea:
                    d3:85:73:59:66:5c:42:dc:53:6f:aa:99:b0:23:18:
                    e4:0c:11:12:b4:92:3f:70:38:a2:97:26:76:56:51:
                    2b:53:5f:cd:89:9a:03:7b:74:31:a4:9a:af:18:35:
                    3b:cb:24:86:d6:a1:ff:ed:16:32:87:d0:ce:19:ad:
                    6b:ab:7d:63:69:12:2b:a9:35:77:67:97:e9:88:04:
                    61:6e:4a:e4:41:30:30:1a:d0:6b:0e:24:b9:78:4f:
                    26:6b:75:4b:d8:2c:09:75:53:6a:bd:bd:0f:86:3d:
                    f6:fb:fc:a6:c4:fe:00:9a:bb:27:b0:9f:2c:70:c8:
                    0b:99:22:db:1d:8b:dd:22:22:83:4d:18:ae:6b:b4:
                    08:1c:39:86:c2:f9:5d:9d:cc:e2:b5:4d:32:f2:e2:
                    26:fd
                Exponent: 65537 (0x10001)
        X509v3 extensions:
            X509v3 Basic Constraints: 
                CA:FALSE
            X509v3 Subject Key Identifier: 
                1D:D0:BD:D9:42:9D:BE:F1:D1:5D:BB:E7:99:F2:68:FA:10:DC:E5:8A
            X509v3 Authority Key Identifier: 
                keyid:63:36:9C:3B:A6:60:21:91:1D:6A:38:0A:1B:8F:54:9F:37:76:1C:6B
                DirName:/CN=team49-net
                serial:01:E3:E3:13:1A:10:AF:B2:90:74:79:E4:A6:4E:D6:B1:82:31:C7:F8
            X509v3 Extended Key Usage: 
                TLS Web Client Authentication
            X509v3 Key Usage: 
                Digital Signature
    Signature Algorithm: sha256WithRSAEncryption
    Signature Value:
        5a:f3:96:1b:38:0f:93:10:13:f8:36:b8:c1:34:80:16:f1:fb:
        97:f3:73:65:2e:61:27:75:ef:cf:9c:8c:ac:a7:1c:09:44:60:
        b6:74:fd:3f:12:1c:7f:8c:bf:28:8f:7b:a6:d6:54:c5:7f:9c:
        70:e0:0c:8c:65:af:04:57:e5:72:ba:6c:4c:95:30:ee:f5:c7:
        cf:e4:3e:a1:47:8f:5a:16:d0:21:d2:c5:ac:80:52:9f:bd:e9:
        5f:46:a9:3a:c0:80:f7:54:32:c6:be:31:4a:b7:ea:a5:78:57:
        15:02:05:10:ca:7c:97:8e:3e:6c:91:ca:36:d6:c9:65:41:fb:
        49:ca:86:15:f5:bf:a0:19:51:9d:9d:e5:cb:5d:16:2b:7d:0d:
        4c:c1:ae:9a:5c:46:18:3c:7d:02:b1:e5:cd:32:f8:3f:04:a1:
        38:ab:6c:7a:3a:95:30:49:dc:14:80:47:05:d8:71:dc:35:1e:
        a5:56:a9:b0:70:53:7e:e3:da:c0:e2:aa:bb:24:e5:fe:db:7d:
        49:8f:fa:df:bd:59:63:4b:22:2f:03:7d:ff:0a:93:5f:84:b9:
        1a:31:c3:03:9d:4d:52:f0:f3:54:71:a7:31:71:31:6f:45:85:
        70:30:c2:4c:d5:51:fe:ad:55:9e:7d:bd:68:cc:62:d6:5d:5f:
        4f:72:47:9a
-----BEGIN CERTIFICATE-----
MIIDWTCCAkGgAwIBAgIQBj0pGA6fBrSO7mkI5BpS8DANBgkqhkiG9w0BAQsFADAV
MRMwEQYDVQQDDAp0ZWFtNDktbmV0MB4XDTIzMTEwNDExMjgxOVoXDTI2MTAxOTEx
MjgxOVowGDEWMBQGA1UEAwwNdGVhbTQ5LWNsaWVudDCCASIwDQYJKoZIhvcNAQEB
BQADggEPADCCAQoCggEBALPOdJN6o/j/ru09JJxuyPfnATZjXcB2jBHj580KAKaR
Z2wfRfhpZezqr6tpDYAxR/LUuUSuSicnxNOTLXqDw7L5qJwnZg8SsQo98m3oauZm
K6hHjBw+Au+mr9aVmT65z7VezxIAfVTq04VzWWZcQtxTb6qZsCMY5AwRErSSP3A4
opcmdlZRK1NfzYmaA3t0MaSarxg1O8skhtah/+0WMofQzhmta6t9Y2kSK6k1d2eX
6YgEYW5K5EEwMBrQaw4kuXhPJmt1S9gsCXVTar29D4Y99vv8psT+AJq7J7CfLHDI
C5ki2x2L3SIig00Yrmu0CBw5hsL5XZ3M4rVNMvLiJv0CAwEAAaOBoTCBnjAJBgNV
HRMEAjAAMB0GA1UdDgQWBBQd0L3ZQp2+8dFdu+eZ8mj6ENzlijBQBgNVHSMESTBH
gBRjNpw7pmAhkR1qOAobj1SfN3Yca6EZpBcwFTETMBEGA1UEAwwKdGVhbTQ5LW5l
dIIUAePjExoQr7KQdHnkpk7WsYIxx/gwEwYDVR0lBAwwCgYIKwYBBQUHAwIwCwYD
VR0PBAQDAgeAMA0GCSqGSIb3DQEBCwUAA4IBAQBa85YbOA+TEBP4NrjBNIAW8fuX
83NlLmEnde/PnIyspxwJRGC2dP0/Ehx/jL8oj3um1lTFf5xw4AyMZa8EV+VyumxM
lTDu9cfP5D6hR49aFtAh0sWsgFKfvelfRqk6wID3VDLGvjFKt+qleFcVAgUQynyX
jj5skco21sllQftJyoYV9b+gGVGdneXLXRYrfQ1Mwa6aXEYYPH0CseXNMvg/BKE4
q2x6OpUwSdwUgEcF2HHcNR6lVqmwcFN+49rA4qq7JOX+231Jj/rfvVljSyIvA33/
CpNfhLkaMcMDnU1S8PNUcacxcTFvRYVwMMJM1VH+rVWefb1ozGLWXV9Pckea
-----END CERTIFICATE-----
