Certificate:
    Data:
        Version: 3 (0x2)
        Serial Number:
            d2:15:b9:eb:ea:8d:fc:3c:6c:fc:71:dd:e4:48:f2:0e
        Signature Algorithm: sha256WithRSAEncryption
        Issuer: CN=team49-net
        Validity
            Not Before: Nov  3 20:40:06 2023 GMT
            Not After : Oct 18 20:40:06 2026 GMT
        Subject: CN=team49-server
        Subject Public Key Info:
            Public Key Algorithm: rsaEncryption
                Public-Key: (2048 bit)
                Modulus:
                    00:b1:ef:6d:63:81:46:ca:21:71:58:e1:58:cb:80:
                    03:5f:89:75:ae:df:6c:35:83:0b:06:2c:6d:6d:f8:
                    fd:38:2f:c0:cb:cd:64:3b:fd:46:44:19:b9:da:71:
                    1d:06:86:85:ad:17:08:83:ce:7a:4c:d9:2c:5d:57:
                    58:49:96:4d:cb:99:d8:c0:71:aa:7a:2f:66:28:19:
                    7a:99:68:13:86:71:0b:e8:3f:31:51:b9:76:09:04:
                    bd:b4:cb:fb:f7:59:7b:48:6f:68:ab:94:0f:a8:c1:
                    00:e1:94:d1:21:e4:fa:7c:05:ab:7a:43:d9:5b:b4:
                    b8:0c:70:9a:85:47:7d:47:2d:5f:61:a3:79:3b:aa:
                    0a:1f:94:85:8e:8a:21:a9:b1:64:2b:c1:99:2e:2f:
                    0d:70:d6:57:85:52:41:a4:c0:68:50:80:3a:f1:72:
                    f4:4e:ba:90:15:c8:95:55:c7:10:2f:5b:71:04:a0:
                    4d:18:4e:bc:44:0e:b8:aa:f7:79:31:b5:03:57:a2:
                    52:fb:f0:c1:e0:02:6b:20:6f:fe:d6:db:81:23:00:
                    80:6c:23:10:7f:b0:f7:e4:0b:9d:11:69:73:00:4c:
                    e8:a3:2b:9b:ff:50:1a:cc:66:e7:44:ba:2a:a0:37:
                    95:54:69:25:a6:12:8e:61:44:d7:75:7c:ec:5d:3d:
                    2d:89
                Exponent: 65537 (0x10001)
        X509v3 extensions:
            X509v3 Basic Constraints: 
                CA:FALSE
            X509v3 Subject Key Identifier: 
                C0:AC:B2:F1:1E:24:70:97:A4:F7:45:0D:B7:1A:C9:6D:AE:72:A2:9B
            X509v3 Authority Key Identifier: 
                keyid:C6:00:D6:F0:E6:56:4C:79:5E:11:D8:84:98:10:6C:C8:32:27:4D:BB
                DirName:/CN=team49-net
                serial:1E:95:14:FD:7C:AC:E4:5B:1F:59:67:AF:E3:0D:A6:FB:3A:51:AA:A9
            X509v3 Extended Key Usage: 
                TLS Web Server Authentication
            X509v3 Key Usage: 
                Digital Signature, Key Encipherment
            X509v3 Subject Alternative Name: 
                DNS:team49-server
    Signature Algorithm: sha256WithRSAEncryption
    Signature Value:
        70:21:26:3c:b4:8f:ef:9c:08:ce:ff:20:7e:bb:8b:35:96:a1:
        1f:59:02:8c:d6:ab:cf:3c:61:a8:01:49:a7:d2:d8:bd:89:5f:
        c1:f0:e6:c3:73:c6:cb:7f:59:a9:94:9e:2b:5f:bd:ae:06:e9:
        a1:23:7c:14:40:11:7f:99:4c:60:2e:e8:ae:8c:bf:c6:67:cd:
        4c:17:54:fa:86:49:6a:a8:85:52:f8:b2:4b:7f:10:42:75:65:
        61:e3:f1:45:46:6d:6b:74:60:bd:09:8f:a1:ae:f7:37:08:b9:
        eb:5f:82:3b:80:8d:c5:e3:be:d2:51:39:2d:af:a5:1a:94:8d:
        67:ea:47:18:4b:31:61:10:9e:1c:5a:e0:53:70:56:e0:aa:0b:
        7d:32:75:e4:12:7a:07:22:ad:f5:cc:ff:bd:3b:48:19:7a:51:
        cb:62:a7:a0:38:d0:e2:2e:30:40:3b:2f:1e:6e:4d:b8:90:c7:
        98:11:ce:f4:8c:d3:df:a2:35:d9:0f:f9:c6:74:84:9b:d5:ae:
        30:34:f2:d3:92:8e:bd:91:30:64:32:49:58:ed:a2:b0:a2:da:
        3d:f6:e6:a7:bb:c4:bc:86:56:2b:d0:b8:7a:f3:fa:3f:96:74:
        dd:cb:2c:64:0f:6d:35:a3:e2:cd:bb:d2:3e:12:95:3c:92:c9:
        48:ca:a0:17
-----BEGIN CERTIFICATE-----
MIIDdDCCAlygAwIBAgIRANIVuevqjfw8bPxx3eRI8g4wDQYJKoZIhvcNAQELBQAw
FTETMBEGA1UEAwwKdGVhbTQ5LW5ldDAeFw0yMzExMDMyMDQwMDZaFw0yNjEwMTgy
MDQwMDZaMBgxFjAUBgNVBAMMDXRlYW00OS1zZXJ2ZXIwggEiMA0GCSqGSIb3DQEB
AQUAA4IBDwAwggEKAoIBAQCx721jgUbKIXFY4VjLgANfiXWu32w1gwsGLG1t+P04
L8DLzWQ7/UZEGbnacR0GhoWtFwiDznpM2SxdV1hJlk3LmdjAcap6L2YoGXqZaBOG
cQvoPzFRuXYJBL20y/v3WXtIb2irlA+owQDhlNEh5Pp8Bat6Q9lbtLgMcJqFR31H
LV9ho3k7qgoflIWOiiGpsWQrwZkuLw1w1leFUkGkwGhQgDrxcvROupAVyJVVxxAv
W3EEoE0YTrxEDriq93kxtQNXolL78MHgAmsgb/7W24EjAIBsIxB/sPfkC50RaXMA
TOijK5v/UBrMZudEuiqgN5VUaSWmEo5hRNd1fOxdPS2JAgMBAAGjgbswgbgwCQYD
VR0TBAIwADAdBgNVHQ4EFgQUwKyy8R4kcJek90UNtxrJba5yopswUAYDVR0jBEkw
R4AUxgDW8OZWTHleEdiEmBBsyDInTbuhGaQXMBUxEzARBgNVBAMMCnRlYW00OS1u
ZXSCFB6VFP18rORbH1lnr+MNpvs6UaqpMBMGA1UdJQQMMAoGCCsGAQUFBwMBMAsG
A1UdDwQEAwIFoDAYBgNVHREEETAPgg10ZWFtNDktc2VydmVyMA0GCSqGSIb3DQEB
CwUAA4IBAQBwISY8tI/vnAjO/yB+u4s1lqEfWQKM1qvPPGGoAUmn0ti9iV/B8ObD
c8bLf1mplJ4rX72uBumhI3wUQBF/mUxgLuiujL/GZ81MF1T6hklqqIVS+LJLfxBC
dWVh4/FFRm1rdGC9CY+hrvc3CLnrX4I7gI3F477SUTktr6UalI1n6kcYSzFhEJ4c
WuBTcFbgqgt9MnXkEnoHIq31zP+9O0gZelHLYqegONDiLjBAOy8ebk24kMeYEc70
jNPfojXZD/nGdISb1a4wNPLTko69kTBkMklY7aKwoto99uanu8S8hlYr0Lh68/o/
lnTdyyxkD201o+LNu9I+EpU8kslIyqAX
-----END CERTIFICATE-----
