Certificate:
    Data:
        Version: 3 (0x2)
        Serial Number:
            97:2d:30:ca:8a:9f:2c:0a:d3:f9:9e:7a:07:7f:ea:65
        Signature Algorithm: sha256WithRSAEncryption
        Issuer: CN=team393-net
        Validity
            Not Before: Nov  4 11:36:21 2023 GMT
            Not After : Oct 19 11:36:21 2026 GMT
        Subject: CN=team393-client
        Subject Public Key Info:
            Public Key Algorithm: rsaEncryption
                Public-Key: (2048 bit)
                Modulus:
                    00:9b:61:b7:76:c5:b2:d3:64:be:ea:f0:fa:fe:04:
                    d5:1c:d7:fb:84:1e:d3:3d:c0:17:d0:ff:c7:18:dd:
                    1e:89:e3:92:39:51:cf:ae:59:51:d6:1d:be:1e:51:
                    ea:a1:63:e8:86:55:44:d6:d8:f2:b3:89:1a:35:87:
                    a0:02:1b:71:b5:4b:83:c1:72:14:26:d8:64:21:6d:
                    4a:eb:81:e7:41:a3:95:f8:b0:0b:82:54:c3:30:02:
                    8c:97:e3:98:c2:c8:6b:59:e6:f7:ef:13:e9:0b:84:
                    c5:aa:b6:7e:c5:ea:de:1b:73:da:be:90:69:05:f5:
                    36:39:ba:30:db:0d:0e:aa:65:b4:cd:41:c3:34:af:
                    64:d1:d2:84:58:4a:2b:e4:57:3e:b1:34:87:4c:13:
                    77:af:c9:a7:b0:2e:8f:a2:1d:8a:59:51:e1:43:f4:
                    dc:56:9a:61:b6:7a:3a:ab:80:52:7f:1c:85:68:7d:
                    50:d4:1b:6e:06:53:71:a8:37:24:5d:29:2a:f4:33:
                    3d:82:ab:b3:b9:0f:f2:6a:46:c4:bc:f3:1d:21:21:
                    36:03:bb:5b:3e:49:a6:1e:70:1c:45:f6:49:c4:a2:
                    68:db:fe:c2:78:c5:e2:57:5c:9a:4e:6e:68:76:ea:
                    58:7f:d0:bb:27:ad:5b:c4:d3:25:31:7b:b6:2f:0f:
                    61:ab
                Exponent: 65537 (0x10001)
        X509v3 extensions:
            X509v3 Basic Constraints: 
                CA:FALSE
            X509v3 Subject Key Identifier: 
                E7:74:31:8F:9A:56:95:1A:FC:24:E8:98:29:AA:76:E7:EB:31:7E:D7
            X509v3 Authority Key Identifier: 
                keyid:33:DE:57:B2:03:87:3F:58:CF:75:33:7F:5E:79:DA:A0:A6:1D:26:D6
                DirName:/CN=team393-net
                serial:61:35:3B:9C:E2:A0:88:F7:70:98:2F:86:9A:BE:17:34:AA:40:49:68
            X509v3 Extended Key Usage: 
                TLS Web Client Authentication
            X509v3 Key Usage: 
                Digital Signature
    Signature Algorithm: sha256WithRSAEncryption
    Signature Value:
        3a:cf:d5:9c:45:0c:b0:3b:61:4d:93:b3:c4:88:8a:a0:8f:94:
        55:78:08:5e:a0:85:59:88:61:f8:c3:a3:12:75:36:f1:db:b5:
        3a:4d:bf:09:7b:ff:86:de:af:14:e6:da:5a:dc:9f:92:ad:13:
        74:b9:b9:ee:98:df:c4:dd:0c:39:02:12:ab:a4:92:02:96:de:
        45:49:6d:dd:97:fe:bc:4b:be:b9:fa:56:37:e9:21:ba:d1:2f:
        3a:b6:21:05:b8:b6:f3:0b:a8:59:20:b9:f6:bc:19:4e:16:c2:
        26:23:34:df:87:eb:5d:77:e0:fd:f1:11:ca:60:95:9f:96:5d:
        67:d6:01:9d:1f:1a:e4:8d:ac:8a:e2:eb:a3:3f:05:29:a5:b8:
        c9:d6:63:7f:76:89:53:3f:65:c6:83:c6:03:e6:7e:67:70:93:
        da:8a:ad:69:66:5a:41:14:4b:d8:b3:80:da:97:31:49:6e:06:
        2f:5c:7d:24:08:9a:fb:58:9d:e0:53:25:8e:74:c6:41:20:66:
        98:68:47:67:f8:3d:0a:1c:09:01:3c:1f:80:ee:36:8e:0b:50:
        6e:8a:a0:5f:9b:9e:50:de:eb:af:b6:31:4e:90:68:b3:d0:bd:
        dd:0e:fe:09:d7:6f:18:f8:b9:ec:0a:c4:e7:a7:0b:ba:68:73:
        4f:e5:0b:8d
-----BEGIN CERTIFICATE-----
MIIDXTCCAkWgAwIBAgIRAJctMMqKnywK0/meegd/6mUwDQYJKoZIhvcNAQELBQAw
FjEUMBIGA1UEAwwLdGVhbTM5My1uZXQwHhcNMjMxMTA0MTEzNjIxWhcNMjYxMDE5
MTEzNjIxWjAZMRcwFQYDVQQDDA50ZWFtMzkzLWNsaWVudDCCASIwDQYJKoZIhvcN
AQEBBQADggEPADCCAQoCggEBAJtht3bFstNkvurw+v4E1RzX+4Qe0z3AF9D/xxjd
HonjkjlRz65ZUdYdvh5R6qFj6IZVRNbY8rOJGjWHoAIbcbVLg8FyFCbYZCFtSuuB
50GjlfiwC4JUwzACjJfjmMLIa1nm9+8T6QuExaq2fsXq3htz2r6QaQX1Njm6MNsN
DqpltM1BwzSvZNHShFhKK+RXPrE0h0wTd6/Jp7Auj6IdillR4UP03FaaYbZ6OquA
Un8chWh9UNQbbgZTcag3JF0pKvQzPYKrs7kP8mpGxLzzHSEhNgO7Wz5Jph5wHEX2
ScSiaNv+wnjF4ldcmk5uaHbqWH/QuyetW8TTJTF7ti8PYasCAwEAAaOBojCBnzAJ
BgNVHRMEAjAAMB0GA1UdDgQWBBTndDGPmlaVGvwk6Jgpqnbn6zF+1zBRBgNVHSME
SjBIgBQz3leyA4c/WM91M39eedqgph0m1qEapBgwFjEUMBIGA1UEAwwLdGVhbTM5
My1uZXSCFGE1O5zioIj3cJgvhpq+FzSqQEloMBMGA1UdJQQMMAoGCCsGAQUFBwMC
MAsGA1UdDwQEAwIHgDANBgkqhkiG9w0BAQsFAAOCAQEAOs/VnEUMsDthTZOzxIiK
oI+UVXgIXqCFWYhh+MOjEnU28du1Ok2/CXv/ht6vFObaWtyfkq0TdLm57pjfxN0M
OQISq6SSApbeRUlt3Zf+vEu+ufpWN+khutEvOrYhBbi28wuoWSC59rwZThbCJiM0
34frXXfg/fERymCVn5ZdZ9YBnR8a5I2siuLroz8FKaW4ydZjf3aJUz9lxoPGA+Z+
Z3CT2oqtaWZaQRRL2LOA2pcxSW4GL1x9JAia+1id4FMljnTGQSBmmGhHZ/g9ChwJ
ATwfgO42jgtQboqgX5ueUN7rr7YxTpBos9C93Q7+CddvGPi57ArE56cLumhzT+UL
jQ==
-----END CERTIFICATE-----
