Certificate:
    Data:
        Version: 3 (0x2)
        Serial Number:
            c4:c5:db:89:45:34:e0:29:4e:74:81:68:9f:11:f6:39
        Signature Algorithm: sha256WithRSAEncryption
        Issuer: CN=team393-net
        Validity
            Not Before: Nov  3 20:46:20 2023 GMT
            Not After : Oct 18 20:46:20 2026 GMT
        Subject: CN=team393-server
        Subject Public Key Info:
            Public Key Algorithm: rsaEncryption
                Public-Key: (2048 bit)
                Modulus:
                    00:e1:1a:7f:4e:97:a5:ce:d7:9f:b3:a5:d7:ba:8e:
                    25:fa:91:8f:6b:d9:da:f8:b5:d4:ee:db:45:1e:4e:
                    69:74:bb:c1:ac:04:77:50:12:b1:4f:d4:85:30:d9:
                    3a:1a:c4:e9:37:7d:e4:1e:27:e9:89:b3:1d:76:10:
                    8a:e7:6b:72:8c:fa:41:28:22:c7:23:45:76:cc:8c:
                    ed:12:48:3f:4b:ae:2e:26:7d:c4:16:ad:19:d3:67:
                    a4:3c:66:5e:91:f5:59:48:f8:38:b9:c1:ba:fc:75:
                    b8:09:8c:32:c3:1a:b5:e2:ac:9a:58:21:68:09:a3:
                    23:73:7d:19:d1:cc:fa:67:dc:aa:80:c8:ac:45:61:
                    e1:53:c4:8f:12:a1:d3:14:3a:fd:97:d1:32:8a:9c:
                    1f:de:73:56:31:53:9f:cf:a7:01:97:b4:1b:e6:7e:
                    2f:9c:91:9b:bd:f3:5c:fd:54:ff:e3:e4:22:aa:0a:
                    8c:4d:f2:a2:8a:fd:51:00:c0:ba:6f:76:fc:d0:0e:
                    b2:53:b2:f1:a7:43:f7:58:3e:fb:8f:06:2e:7a:09:
                    d3:88:c6:47:dc:44:fa:53:c8:45:08:fc:12:7b:b1:
                    ad:71:5b:e5:2e:1a:32:9a:2a:b9:68:ca:06:1f:66:
                    c7:81:c0:7d:f3:b3:8d:a1:44:86:70:28:2e:bb:b3:
                    3b:bb
                Exponent: 65537 (0x10001)
        X509v3 extensions:
            X509v3 Basic Constraints: 
                CA:FALSE
            X509v3 Subject Key Identifier: 
                DD:68:09:58:F6:76:F7:A2:15:71:0A:21:B8:E3:72:23:D4:4C:12:A0
            X509v3 Authority Key Identifier: 
                keyid:DF:06:39:87:53:71:5B:D6:89:17:79:7A:89:62:A7:2B:60:89:59:75
                DirName:/CN=team393-net
                serial:78:AF:B7:ED:C4:89:AB:72:F5:F3:37:B8:6A:B7:3B:CE:51:07:56:E2
            X509v3 Extended Key Usage: 
                TLS Web Server Authentication
            X509v3 Key Usage: 
                Digital Signature, Key Encipherment
            X509v3 Subject Alternative Name: 
                DNS:team393-server
    Signature Algorithm: sha256WithRSAEncryption
    Signature Value:
        0f:4c:dc:8b:c3:bc:6d:24:3f:08:52:b7:bd:06:05:5d:e1:f3:
        98:d3:96:3d:90:38:a4:9f:2e:49:e0:22:5a:24:81:26:c9:87:
        33:0c:a9:0a:07:0d:39:d8:86:89:f5:e2:3f:08:01:36:4b:c5:
        93:30:4a:f8:2f:3f:4d:44:53:68:04:29:28:44:36:04:3a:65:
        5d:a3:44:88:76:97:c2:b7:ea:e5:26:4c:f4:82:90:ba:30:73:
        16:7c:91:3e:90:75:3d:38:bc:bc:fa:f8:3d:7a:d1:5f:9b:0d:
        86:46:3c:3d:3e:cd:35:1c:bf:24:ae:cd:88:51:c6:f6:39:19:
        c0:05:49:71:86:47:ea:fd:a9:5a:89:dd:f3:a3:8c:9a:d8:ab:
        38:93:88:d5:8b:dc:93:d5:d6:d7:de:0a:83:33:fa:52:03:26:
        24:ca:a1:2e:eb:fc:3b:90:f2:54:df:27:0b:66:64:e6:32:86:
        b8:f8:e2:58:a3:28:84:20:da:a1:f4:45:1e:45:8b:a7:ea:e8:
        93:6b:f8:fa:63:6f:d9:e2:9d:b9:45:aa:fd:bc:ef:58:2b:f7:
        52:bf:46:1d:a0:a5:66:36:c5:64:bf:1a:20:13:df:a3:f3:e1:
        ed:b7:39:96:db:fd:47:c9:e5:c4:8d:d8:d4:3b:be:6f:dc:c1:
        35:e4:65:9a
-----BEGIN CERTIFICATE-----
MIIDeDCCAmCgAwIBAgIRAMTF24lFNOApTnSBaJ8R9jkwDQYJKoZIhvcNAQELBQAw
FjEUMBIGA1UEAwwLdGVhbTM5My1uZXQwHhcNMjMxMTAzMjA0NjIwWhcNMjYxMDE4
MjA0NjIwWjAZMRcwFQYDVQQDDA50ZWFtMzkzLXNlcnZlcjCCASIwDQYJKoZIhvcN
AQEBBQADggEPADCCAQoCggEBAOEaf06Xpc7Xn7Ol17qOJfqRj2vZ2vi11O7bRR5O
aXS7wawEd1ASsU/UhTDZOhrE6Td95B4n6YmzHXYQiudrcoz6QSgixyNFdsyM7RJI
P0uuLiZ9xBatGdNnpDxmXpH1WUj4OLnBuvx1uAmMMsMateKsmlghaAmjI3N9GdHM
+mfcqoDIrEVh4VPEjxKh0xQ6/ZfRMoqcH95zVjFTn8+nAZe0G+Z+L5yRm73zXP1U
/+PkIqoKjE3yoor9UQDAum92/NAOslOy8adD91g++48GLnoJ04jGR9xE+lPIRQj8
EnuxrXFb5S4aMpoquWjKBh9mx4HAffOzjaFEhnAoLruzO7sCAwEAAaOBvTCBujAJ
BgNVHRMEAjAAMB0GA1UdDgQWBBTdaAlY9nb3ohVxCiG443Ij1EwSoDBRBgNVHSME
SjBIgBTfBjmHU3Fb1okXeXqJYqcrYIlZdaEapBgwFjEUMBIGA1UEAwwLdGVhbTM5
My1uZXSCFHivt+3Eiaty9fM3uGq3O85RB1biMBMGA1UdJQQMMAoGCCsGAQUFBwMB
MAsGA1UdDwQEAwIFoDAZBgNVHREEEjAQgg50ZWFtMzkzLXNlcnZlcjANBgkqhkiG
9w0BAQsFAAOCAQEAD0zci8O8bSQ/CFK3vQYFXeHzmNOWPZA4pJ8uSeAiWiSBJsmH
MwypCgcNOdiGifXiPwgBNkvFkzBK+C8/TURTaAQpKEQ2BDplXaNEiHaXwrfq5SZM
9IKQujBzFnyRPpB1PTi8vPr4PXrRX5sNhkY8PT7NNRy/JK7NiFHG9jkZwAVJcYZH
6v2pWond86OMmtirOJOI1Yvck9XW194KgzP6UgMmJMqhLuv8O5DyVN8nC2Zk5jKG
uPjiWKMohCDaofRFHkWLp+rok2v4+mNv2eKduUWq/bzvWCv3Ur9GHaClZjbFZL8a
IBPfo/Ph7bc5ltv9R8nlxI3Y1Du+b9zBNeRlmg==
-----END CERTIFICATE-----
