Certificate:
    Data:
        Version: 3 (0x2)
        Serial Number:
            d1:3f:77:20:18:53:13:15:18:7c:d2:1b:36:d8:d9:ba
        Signature Algorithm: sha256WithRSAEncryption
        Issuer: CN=team393-net
        Validity
            Not Before: Nov  4 10:47:44 2023 GMT
            Not After : Oct 19 10:47:44 2026 GMT
        Subject: CN=team393-server
        Subject Public Key Info:
            Public Key Algorithm: rsaEncryption
                Public-Key: (2048 bit)
                Modulus:
                    00:a2:99:7c:3d:9f:0f:cd:f8:18:14:f6:ee:29:4a:
                    d9:01:c7:c7:66:3a:c5:ac:ce:ae:14:7d:51:7f:eb:
                    20:9f:39:0e:d8:eb:64:50:3f:91:12:bb:99:13:c5:
                    f5:ee:9c:6c:9d:f0:5f:62:a6:a6:c1:95:5a:c3:89:
                    7e:bd:88:db:b8:c2:97:bc:35:31:07:b4:a0:92:10:
                    e1:70:b5:cb:dd:25:2f:85:26:0f:ad:2b:d8:01:84:
                    d0:e0:0b:11:d8:77:43:8d:8e:30:1f:8d:2e:04:06:
                    80:e8:db:1b:a1:22:c0:8e:c3:d3:d4:b6:f6:5a:d8:
                    09:00:16:3c:1c:58:fe:20:ba:c9:51:be:75:7b:8e:
                    97:d7:44:99:8c:d7:ba:ec:70:11:56:af:6d:e7:16:
                    4d:6e:d8:0d:80:a2:ba:bb:23:86:2f:e1:20:f3:10:
                    95:73:b0:c6:d0:89:67:6c:1b:4c:3e:7d:b1:05:e9:
                    e6:78:01:eb:fe:54:ef:77:7b:f9:e0:97:7c:33:97:
                    aa:42:81:92:8b:04:8d:07:eb:f0:37:57:3c:03:c7:
                    b3:a7:14:61:fd:95:09:27:f4:46:d7:0f:04:c9:e8:
                    ec:97:63:3e:e6:2d:95:47:e2:1b:78:63:a3:53:9a:
                    bc:19:d9:67:0d:dd:b5:59:52:24:c7:1c:a4:a3:a3:
                    52:d7
                Exponent: 65537 (0x10001)
        X509v3 extensions:
            X509v3 Basic Constraints: 
                CA:FALSE
            X509v3 Subject Key Identifier: 
                24:FE:96:00:10:AD:50:9B:3E:D2:E1:DF:5D:AC:FD:E1:C4:64:B6:5D
            X509v3 Authority Key Identifier: 
                keyid:95:29:5D:B9:54:B6:ED:1B:3B:95:30:C3:C9:88:EF:03:2C:15:8A:44
                DirName:/CN=team393-net
                serial:09:91:9C:1E:BA:3A:B1:94:84:2B:DA:CF:AD:09:87:4B:9C:82:5D:08
            X509v3 Extended Key Usage: 
                TLS Web Server Authentication
            X509v3 Key Usage: 
                Digital Signature, Key Encipherment
            X509v3 Subject Alternative Name: 
                DNS:team393-server
    Signature Algorithm: sha256WithRSAEncryption
    Signature Value:
        83:8f:b5:d7:02:ce:c4:b5:f8:3d:11:0b:90:87:1a:5d:ed:27:
        41:df:b9:2f:ff:56:5b:cd:ed:ef:d9:dd:8b:99:65:c9:8f:46:
        e3:93:39:72:1c:4e:7f:c4:b8:7f:0d:a9:31:b6:3c:8f:22:8c:
        16:f6:80:c8:43:02:25:5c:9e:8e:05:ec:6d:98:df:0e:71:fb:
        32:c8:ab:86:f0:81:82:bf:e0:4a:ec:6f:01:75:19:b7:35:84:
        e5:ae:57:74:11:81:ff:ab:57:20:df:d2:eb:f6:e0:41:1b:48:
        7f:db:a2:7f:83:f4:2d:02:60:25:d2:6c:49:b9:f1:01:7a:38:
        04:27:ed:fe:86:16:66:1d:12:ab:8c:b7:5f:ab:fe:55:7f:a1:
        d4:96:90:7a:fa:62:2a:9e:cb:52:32:62:4c:47:62:eb:0f:71:
        01:6e:38:2f:e2:e1:bd:93:53:10:3f:db:3f:cb:63:b8:b2:1c:
        d4:af:49:0b:9f:f4:c5:ae:24:f3:e6:81:c6:8e:15:96:b1:bf:
        6d:b8:0c:75:5f:01:c6:08:16:ce:55:c3:80:29:1c:88:3e:88:
        b9:0c:d8:a8:a1:89:98:22:ff:69:12:8f:98:45:3b:a9:14:0d:
        08:97:97:58:8e:a1:37:94:b0:1a:c4:20:3a:a4:15:72:a2:18:
        19:49:68:42
-----BEGIN CERTIFICATE-----
MIIDeDCCAmCgAwIBAgIRANE/dyAYUxMVGHzSGzbY2bowDQYJKoZIhvcNAQELBQAw
FjEUMBIGA1UEAwwLdGVhbTM5My1uZXQwHhcNMjMxMTA0MTA0NzQ0WhcNMjYxMDE5
MTA0NzQ0WjAZMRcwFQYDVQQDDA50ZWFtMzkzLXNlcnZlcjCCASIwDQYJKoZIhvcN
AQEBBQADggEPADCCAQoCggEBAKKZfD2fD834GBT27ilK2QHHx2Y6xazOrhR9UX/r
IJ85DtjrZFA/kRK7mRPF9e6cbJ3wX2KmpsGVWsOJfr2I27jCl7w1MQe0oJIQ4XC1
y90lL4UmD60r2AGE0OALEdh3Q42OMB+NLgQGgOjbG6EiwI7D09S29lrYCQAWPBxY
/iC6yVG+dXuOl9dEmYzXuuxwEVavbecWTW7YDYCiursjhi/hIPMQlXOwxtCJZ2wb
TD59sQXp5ngB6/5U73d7+eCXfDOXqkKBkosEjQfr8DdXPAPHs6cUYf2VCSf0RtcP
BMno7JdjPuYtlUfiG3hjo1OavBnZZw3dtVlSJMccpKOjUtcCAwEAAaOBvTCBujAJ
BgNVHRMEAjAAMB0GA1UdDgQWBBQk/pYAEK1Qmz7S4d9drP3hxGS2XTBRBgNVHSME
SjBIgBSVKV25VLbtGzuVMMPJiO8DLBWKRKEapBgwFjEUMBIGA1UEAwwLdGVhbTM5
My1uZXSCFAmRnB66OrGUhCvaz60Jh0ucgl0IMBMGA1UdJQQMMAoGCCsGAQUFBwMB
MAsGA1UdDwQEAwIFoDAZBgNVHREEEjAQgg50ZWFtMzkzLXNlcnZlcjANBgkqhkiG
9w0BAQsFAAOCAQEAg4+11wLOxLX4PRELkIcaXe0nQd+5L/9WW83t79ndi5llyY9G
45M5chxOf8S4fw2pMbY8jyKMFvaAyEMCJVyejgXsbZjfDnH7MsirhvCBgr/gSuxv
AXUZtzWE5a5XdBGB/6tXIN/S6/bgQRtIf9uif4P0LQJgJdJsSbnxAXo4BCft/oYW
Zh0Sq4y3X6v+VX+h1JaQevpiKp7LUjJiTEdi6w9xAW44L+LhvZNTED/bP8tjuLIc
1K9JC5/0xa4k8+aBxo4VlrG/bbgMdV8BxggWzlXDgCkciD6IuQzYqKGJmCL/aRKP
mEU7qRQNCJeXWI6hN5SwGsQgOqQVcqIYGUloQg==
-----END CERTIFICATE-----
