Certificate:
    Data:
        Version: 3 (0x2)
        Serial Number:
            e7:29:b2:05:e8:cd:a9:c3:2b:03:f7:de:f2:50:16:36
        Signature Algorithm: sha256WithRSAEncryption
        Issuer: CN=team393-net
        Validity
            Not Before: Nov  4 11:36:21 2023 GMT
            Not After : Oct 19 11:36:21 2026 GMT
        Subject: CN=team393-server
        Subject Public Key Info:
            Public Key Algorithm: rsaEncryption
                Public-Key: (2048 bit)
                Modulus:
                    00:9d:c7:05:73:ac:50:16:de:7a:74:48:15:52:78:
                    8d:58:93:ee:4e:28:4b:c8:1f:47:18:a8:3d:85:a7:
                    7e:d2:fc:42:67:ad:22:5b:09:f1:d0:62:77:45:12:
                    30:a2:8f:d6:d1:df:e8:7e:4b:18:bd:d7:4f:f1:0f:
                    f4:01:14:a3:e3:0a:d6:a1:34:c8:71:a7:6d:75:a9:
                    f4:d1:49:3e:75:2e:9e:f1:80:5f:38:d5:0e:5c:02:
                    64:11:37:2d:f4:c7:93:34:80:5b:43:eb:28:c6:bb:
                    44:70:d6:33:dd:e0:21:4e:f3:a6:53:68:9b:e1:ac:
                    80:3e:88:63:d1:62:ba:86:1b:45:90:0d:ae:bd:ce:
                    d5:11:98:de:20:f6:4d:09:9f:04:c1:38:d2:95:ab:
                    ec:b0:ce:5d:46:af:b8:ea:9c:eb:cb:1f:87:e9:f2:
                    f8:02:e6:5e:1a:6b:26:5f:7c:f7:ec:28:2f:fd:d8:
                    8b:0f:3d:37:e7:33:96:3d:91:82:47:ca:e8:6a:50:
                    53:7b:9b:11:d2:79:0e:39:27:a7:b2:1e:b1:53:ca:
                    f3:d9:6b:cc:cc:bf:6d:fb:79:74:a1:31:4f:bf:bb:
                    9e:e1:60:15:ac:45:f9:94:2b:01:b9:a2:33:0d:bc:
                    95:43:68:8f:8e:8b:97:79:a2:24:1d:f9:bb:15:a3:
                    16:37
                Exponent: 65537 (0x10001)
        X509v3 extensions:
            X509v3 Basic Constraints: 
                CA:FALSE
            X509v3 Subject Key Identifier: 
                16:CF:86:2E:D9:B2:00:B6:99:A7:8B:D3:D8:AD:14:39:1C:B0:99:B4
            X509v3 Authority Key Identifier: 
                keyid:33:DE:57:B2:03:87:3F:58:CF:75:33:7F:5E:79:DA:A0:A6:1D:26:D6
                DirName:/CN=team393-net
                serial:61:35:3B:9C:E2:A0:88:F7:70:98:2F:86:9A:BE:17:34:AA:40:49:68
            X509v3 Extended Key Usage: 
                TLS Web Server Authentication
            X509v3 Key Usage: 
                Digital Signature, Key Encipherment
            X509v3 Subject Alternative Name: 
                DNS:team393-server
    Signature Algorithm: sha256WithRSAEncryption
    Signature Value:
        18:8a:72:9c:17:5f:89:20:c0:23:56:3f:f6:c0:a1:83:f2:d3:
        06:48:b6:25:f2:5b:e5:ae:dd:56:3e:bf:dd:dd:47:5c:a2:23:
        71:62:c6:3a:d7:3a:4d:bb:c2:e8:0a:13:81:a4:af:3a:c7:e6:
        3b:a1:48:e0:9a:a7:49:46:ff:96:a8:b0:92:2c:76:e1:e0:b4:
        63:17:d6:1a:df:55:ee:cd:a9:48:9e:6a:3c:df:61:b9:ad:72:
        70:02:bc:ae:50:38:53:54:03:01:4d:9f:69:de:f1:a7:13:7a:
        bb:b2:23:bf:0c:e1:2b:9a:53:a7:1e:54:cd:1e:5c:2a:f1:80:
        4b:f6:d4:cf:50:9a:f1:70:ed:1a:bb:5c:ce:a8:69:c1:9f:23:
        c9:5a:ef:07:19:c1:ac:d2:d9:14:f9:d8:75:a6:b2:ea:eb:a4:
        15:ea:12:dd:2f:e8:d6:55:94:f8:9c:c0:63:a8:f4:18:3c:96:
        bd:eb:c1:3f:84:cd:5c:ec:ba:84:15:36:c5:d4:5e:9f:f1:39:
        78:bb:f5:54:b3:60:17:71:15:54:2b:64:9a:8d:77:a9:d7:17:
        fa:7f:5b:9b:7b:07:29:10:3b:d6:a3:73:bf:83:5a:a0:ad:31:
        2a:96:a7:11:75:36:ed:93:85:e5:e3:e7:4a:ef:50:92:8e:27:
        a7:bc:80:8d
-----BEGIN CERTIFICATE-----
MIIDeDCCAmCgAwIBAgIRAOcpsgXozanDKwP33vJQFjYwDQYJKoZIhvcNAQELBQAw
FjEUMBIGA1UEAwwLdGVhbTM5My1uZXQwHhcNMjMxMTA0MTEzNjIxWhcNMjYxMDE5
MTEzNjIxWjAZMRcwFQYDVQQDDA50ZWFtMzkzLXNlcnZlcjCCASIwDQYJKoZIhvcN
AQEBBQADggEPADCCAQoCggEBAJ3HBXOsUBbeenRIFVJ4jViT7k4oS8gfRxioPYWn
ftL8QmetIlsJ8dBid0USMKKP1tHf6H5LGL3XT/EP9AEUo+MK1qE0yHGnbXWp9NFJ
PnUunvGAXzjVDlwCZBE3LfTHkzSAW0PrKMa7RHDWM93gIU7zplNom+GsgD6IY9Fi
uoYbRZANrr3O1RGY3iD2TQmfBME40pWr7LDOXUavuOqc68sfh+ny+ALmXhprJl98
9+woL/3Yiw89N+czlj2RgkfK6GpQU3ubEdJ5Djknp7IesVPK89lrzMy/bft5dKEx
T7+7nuFgFaxF+ZQrAbmiMw28lUNoj46Ll3miJB35uxWjFjcCAwEAAaOBvTCBujAJ
BgNVHRMEAjAAMB0GA1UdDgQWBBQWz4Yu2bIAtpmni9PYrRQ5HLCZtDBRBgNVHSME
SjBIgBQz3leyA4c/WM91M39eedqgph0m1qEapBgwFjEUMBIGA1UEAwwLdGVhbTM5
My1uZXSCFGE1O5zioIj3cJgvhpq+FzSqQEloMBMGA1UdJQQMMAoGCCsGAQUFBwMB
MAsGA1UdDwQEAwIFoDAZBgNVHREEEjAQgg50ZWFtMzkzLXNlcnZlcjANBgkqhkiG
9w0BAQsFAAOCAQEAGIpynBdfiSDAI1Y/9sChg/LTBki2JfJb5a7dVj6/3d1HXKIj
cWLGOtc6TbvC6AoTgaSvOsfmO6FI4JqnSUb/lqiwkix24eC0YxfWGt9V7s2pSJ5q
PN9hua1ycAK8rlA4U1QDAU2fad7xpxN6u7IjvwzhK5pTpx5UzR5cKvGAS/bUz1Ca
8XDtGrtczqhpwZ8jyVrvBxnBrNLZFPnYdaay6uukFeoS3S/o1lWU+JzAY6j0GDyW
vevBP4TNXOy6hBU2xdRen/E5eLv1VLNgF3EVVCtkmo13qdcX+n9bm3sHKRA71qNz
v4NaoK0xKpanEXU27ZOF5ePnSu9Qko4np7yAjQ==
-----END CERTIFICATE-----
