Certificate:
    Data:
        Version: 3 (0x2)
        Serial Number:
            d2:8d:ab:4e:7a:b3:6c:8b:ab:c8:d3:02:03:8f:10:c5
        Signature Algorithm: sha256WithRSAEncryption
        Issuer: CN=team317-net
        Validity
            Not Before: Nov  3 20:45:01 2023 GMT
            Not After : Oct 18 20:45:01 2026 GMT
        Subject: CN=team317-client
        Subject Public Key Info:
            Public Key Algorithm: rsaEncryption
                Public-Key: (2048 bit)
                Modulus:
                    00:e4:52:63:41:06:33:55:78:b1:20:32:69:99:83:
                    ca:cc:b9:74:f5:88:a2:55:de:ac:4b:6f:c6:ac:b6:
                    38:37:60:7a:1a:71:28:60:62:d7:94:1e:f4:75:a5:
                    3e:06:cc:9f:98:76:c4:98:51:8c:50:df:a2:aa:22:
                    8f:40:27:1a:12:e2:59:27:fb:1c:c1:e9:64:2c:67:
                    70:cd:f9:72:5d:1c:01:80:c8:86:8f:b9:3c:5f:a8:
                    54:24:98:f0:38:a1:da:86:91:83:3b:33:b4:5e:c7:
                    77:89:4c:fe:d2:3c:49:34:7a:1d:79:8b:c5:73:05:
                    7c:28:9c:2d:8b:7f:86:c9:2f:63:8c:c3:ab:72:e0:
                    ff:50:c7:11:15:01:56:92:0f:95:74:3d:8e:4e:e2:
                    23:1c:fa:b7:65:9e:0b:35:50:0f:88:54:a0:17:f1:
                    d4:a9:b7:a6:37:33:c9:98:86:f0:a4:9c:35:38:d8:
                    c1:bd:2a:af:96:1b:5a:5a:ec:98:6d:8c:dc:9b:fa:
                    dd:f5:57:0c:18:b0:4e:21:7a:b6:cf:bb:1b:f3:7b:
                    c7:df:59:cf:72:4a:f7:4e:4b:85:24:89:a8:d8:82:
                    54:09:ef:be:84:62:dc:26:c3:29:c6:ef:83:ca:82:
                    21:03:3d:06:30:20:1d:c8:20:f8:09:72:ac:c2:9c:
                    e0:df
                Exponent: 65537 (0x10001)
        X509v3 extensions:
            X509v3 Basic Constraints: 
                CA:FALSE
            X509v3 Subject Key Identifier: 
                A7:F6:27:09:5B:4D:C9:49:CE:48:F9:0E:B8:E6:25:0F:E9:7D:15:91
            X509v3 Authority Key Identifier: 
                keyid:07:D9:9D:90:A6:7D:24:9B:AE:60:4E:F2:22:93:A3:65:B9:AC:D0:4C
                DirName:/CN=team317-net
                serial:40:F2:81:84:52:7C:4D:5F:AE:23:32:9F:4C:EE:67:CB:5F:E4:E0:89
            X509v3 Extended Key Usage: 
                TLS Web Client Authentication
            X509v3 Key Usage: 
                Digital Signature
    Signature Algorithm: sha256WithRSAEncryption
    Signature Value:
        34:6a:2a:1d:9d:7e:2f:27:65:4a:b0:0e:cb:b2:52:60:4c:e9:
        2f:26:9a:08:52:2b:c8:44:bd:94:c0:b1:e1:3a:7a:9b:4b:ca:
        00:b5:63:d1:0e:60:2a:dc:03:0f:44:41:52:c8:fb:aa:73:7c:
        81:b5:d7:83:ae:a7:44:de:52:74:ba:88:3e:f0:35:be:b8:1a:
        61:4e:d1:30:3c:73:d3:05:64:63:87:c4:35:11:6a:11:9d:3c:
        ee:8d:07:d2:3e:4f:27:c3:47:e4:fb:3c:e2:3e:e0:b2:25:88:
        e6:ab:66:27:06:95:0f:af:73:b4:0d:be:c7:04:fb:b4:36:a2:
        fa:cd:61:09:97:a5:77:f8:fe:28:05:79:31:74:89:f5:bd:8d:
        e9:1c:a5:a7:67:2c:47:bd:6f:ef:45:c2:e0:8c:6d:0d:e5:3b:
        17:76:3c:83:13:23:fd:65:e0:7e:c1:70:99:bf:d6:75:6b:9f:
        96:7d:b0:15:23:4f:fa:54:41:d7:c6:92:83:cc:28:2f:b3:dc:
        07:32:54:87:b3:ec:ce:97:f5:d9:d9:fd:e4:94:b2:c1:3f:da:
        5c:d7:37:4a:e3:ac:10:86:41:bb:f3:a3:db:4d:e3:be:41:ef:
        9b:b1:b4:1b:4d:44:e1:6c:16:3c:60:a2:95:9e:5e:0d:aa:f3:
        58:42:de:43
-----BEGIN CERTIFICATE-----
MIIDXTCCAkWgAwIBAgIRANKNq056s2yLq8jTAgOPEMUwDQYJKoZIhvcNAQELBQAw
FjEUMBIGA1UEAwwLdGVhbTMxNy1uZXQwHhcNMjMxMTAzMjA0NTAxWhcNMjYxMDE4
MjA0NTAxWjAZMRcwFQYDVQQDDA50ZWFtMzE3LWNsaWVudDCCASIwDQYJKoZIhvcN
AQEBBQADggEPADCCAQoCggEBAORSY0EGM1V4sSAyaZmDysy5dPWIolXerEtvxqy2
ODdgehpxKGBi15Qe9HWlPgbMn5h2xJhRjFDfoqoij0AnGhLiWSf7HMHpZCxncM35
cl0cAYDIho+5PF+oVCSY8Dih2oaRgzsztF7Hd4lM/tI8STR6HXmLxXMFfCicLYt/
hskvY4zDq3Lg/1DHERUBVpIPlXQ9jk7iIxz6t2WeCzVQD4hUoBfx1Km3pjczyZiG
8KScNTjYwb0qr5YbWlrsmG2M3Jv63fVXDBiwTiF6ts+7G/N7x99Zz3JK905LhSSJ
qNiCVAnvvoRi3CbDKcbvg8qCIQM9BjAgHcgg+AlyrMKc4N8CAwEAAaOBojCBnzAJ
BgNVHRMEAjAAMB0GA1UdDgQWBBSn9icJW03JSc5I+Q645iUP6X0VkTBRBgNVHSME
SjBIgBQH2Z2Qpn0km65gTvIik6NluazQTKEapBgwFjEUMBIGA1UEAwwLdGVhbTMx
Ny1uZXSCFEDygYRSfE1friMyn0zuZ8tf5OCJMBMGA1UdJQQMMAoGCCsGAQUFBwMC
MAsGA1UdDwQEAwIHgDANBgkqhkiG9w0BAQsFAAOCAQEANGoqHZ1+LydlSrAOy7JS
YEzpLyaaCFIryES9lMCx4Tp6m0vKALVj0Q5gKtwDD0RBUsj7qnN8gbXXg66nRN5S
dLqIPvA1vrgaYU7RMDxz0wVkY4fENRFqEZ087o0H0j5PJ8NH5Ps84j7gsiWI5qtm
JwaVD69ztA2+xwT7tDai+s1hCZeld/j+KAV5MXSJ9b2N6Rylp2csR71v70XC4Ixt
DeU7F3Y8gxMj/WXgfsFwmb/WdWufln2wFSNP+lRB18aSg8woL7PcBzJUh7Pszpf1
2dn95JSywT/aXNc3SuOsEIZBu/Oj203jvkHvm7G0G01E4WwWPGCilZ5eDarzWELe
Qw==
-----END CERTIFICATE-----
