Certificate:
    Data:
        Version: 3 (0x2)
        Serial Number:
            03:c7:54:00:8a:45:7c:d6:3c:5a:ab:87:e3:ef:e6:06
        Signature Algorithm: sha256WithRSAEncryption
        Issuer: CN=team459-net
        Validity
            Not Before: Nov  3 20:47:38 2023 GMT
            Not After : Oct 18 20:47:38 2026 GMT
        Subject: CN=team459-server
        Subject Public Key Info:
            Public Key Algorithm: rsaEncryption
                Public-Key: (2048 bit)
                Modulus:
                    00:d0:41:9c:0d:52:d2:ed:84:b1:7e:39:64:df:76:
                    94:68:2f:68:4b:60:36:43:49:63:8a:84:55:b2:7e:
                    1e:0f:73:c3:8c:e3:ba:86:c5:a8:35:d4:44:a4:34:
                    8c:0e:ec:23:dd:7a:12:b1:a4:5f:a6:1e:09:9a:55:
                    8b:86:2b:14:81:73:37:d8:78:6b:ae:40:57:68:73:
                    47:96:91:55:4d:8d:e3:51:53:a9:9d:31:b9:25:15:
                    a1:0e:c5:31:47:48:30:fa:d2:2f:00:55:6d:d4:91:
                    99:c2:e8:a3:cd:46:1b:8d:d8:76:9f:35:3e:b4:6e:
                    29:f8:98:1d:bc:91:2f:3e:8f:68:6c:b1:90:27:a3:
                    8a:c5:15:a3:c8:05:ff:ea:17:a8:de:71:ae:29:99:
                    dd:1c:b8:3d:54:87:a9:00:b2:b0:32:cf:e8:d6:24:
                    6b:5b:13:73:a9:b7:34:41:14:90:e3:1d:60:14:47:
                    35:9f:9b:b3:89:e1:8a:90:64:a0:6a:53:a8:b1:06:
                    b7:6b:36:2b:c5:d1:4e:c6:73:39:d1:fb:eb:cf:a7:
                    a2:31:4f:2c:73:0f:6c:9e:8b:70:d6:84:c2:a1:91:
                    5a:6a:f6:2b:2c:32:03:98:11:f7:2c:9a:26:78:8a:
                    84:50:7e:93:ff:e2:a9:e8:b2:11:cf:24:47:78:f1:
                    5c:4b
                Exponent: 65537 (0x10001)
        X509v3 extensions:
            X509v3 Basic Constraints: 
                CA:FALSE
            X509v3 Subject Key Identifier: 
                45:48:0A:79:E0:25:9A:91:5F:23:58:57:14:79:3D:2A:40:CC:A6:D8
            X509v3 Authority Key Identifier: 
                keyid:FA:C5:43:EB:61:08:F3:C8:27:CA:B3:26:02:3F:76:FA:37:ED:03:84
                DirName:/CN=team459-net
                serial:18:80:EB:63:48:37:8F:8C:D9:8F:AE:CB:39:F5:47:80:2C:34:CE:D7
            X509v3 Extended Key Usage: 
                TLS Web Server Authentication
            X509v3 Key Usage: 
                Digital Signature, Key Encipherment
            X509v3 Subject Alternative Name: 
                DNS:team459-server
    Signature Algorithm: sha256WithRSAEncryption
    Signature Value:
        00:c6:fb:26:1a:c3:c7:ff:f9:15:69:53:b4:a7:26:c8:f7:a7:
        93:2a:e4:c0:c1:93:39:32:38:64:fe:ea:af:aa:b6:41:55:19:
        43:84:b0:e6:7e:e5:2a:ea:c3:6d:50:e7:3c:80:80:33:04:56:
        5f:4b:91:6b:fb:18:80:3c:94:1d:50:59:f9:37:09:12:77:50:
        19:30:bf:96:12:97:15:e0:85:10:11:65:a0:cf:4b:17:7a:41:
        31:6a:11:6e:8c:c5:9f:0d:2f:b2:b4:e5:2a:b4:04:33:49:80:
        7b:01:75:bc:99:67:be:4b:0f:83:28:a5:63:d4:9d:a7:7d:21:
        cc:a0:cf:f9:c1:03:bc:03:3a:71:22:e5:0b:68:b8:c9:e5:5b:
        89:6b:f3:46:88:f0:00:f7:10:46:ca:77:37:5d:85:2f:7e:f8:
        9f:f8:ee:a4:fa:08:9c:83:8f:24:74:f5:c2:57:b5:4a:c4:06:
        a1:55:58:f3:c8:cf:b5:04:c4:b2:2a:bf:5c:a9:0f:dd:cd:9a:
        08:02:31:07:e1:29:0f:7e:b9:7c:16:56:ca:30:c8:a6:55:3f:
        c1:d0:3a:6a:dc:bb:f1:e1:c2:08:cd:23:b8:28:d2:65:4c:91:
        1a:0d:b8:13:5f:ac:09:9e:5d:a8:4a:30:71:73:62:0a:1f:b0:
        fc:d0:a2:f3
-----BEGIN CERTIFICATE-----
MIIDdzCCAl+gAwIBAgIQA8dUAIpFfNY8WquH4+/mBjANBgkqhkiG9w0BAQsFADAW
MRQwEgYDVQQDDAt0ZWFtNDU5LW5ldDAeFw0yMzExMDMyMDQ3MzhaFw0yNjEwMTgy
MDQ3MzhaMBkxFzAVBgNVBAMMDnRlYW00NTktc2VydmVyMIIBIjANBgkqhkiG9w0B
AQEFAAOCAQ8AMIIBCgKCAQEA0EGcDVLS7YSxfjlk33aUaC9oS2A2Q0ljioRVsn4e
D3PDjOO6hsWoNdREpDSMDuwj3XoSsaRfph4JmlWLhisUgXM32HhrrkBXaHNHlpFV
TY3jUVOpnTG5JRWhDsUxR0gw+tIvAFVt1JGZwuijzUYbjdh2nzU+tG4p+JgdvJEv
Po9obLGQJ6OKxRWjyAX/6heo3nGuKZndHLg9VIepALKwMs/o1iRrWxNzqbc0QRSQ
4x1gFEc1n5uzieGKkGSgalOosQa3azYrxdFOxnM50fvrz6eiMU8scw9snotw1oTC
oZFaavYrLDIDmBH3LJomeIqEUH6T/+Kp6LIRzyRHePFcSwIDAQABo4G9MIG6MAkG
A1UdEwQCMAAwHQYDVR0OBBYEFEVICnngJZqRXyNYVxR5PSpAzKbYMFEGA1UdIwRK
MEiAFPrFQ+thCPPIJ8qzJgI/dvo37QOEoRqkGDAWMRQwEgYDVQQDDAt0ZWFtNDU5
LW5ldIIUGIDrY0g3j4zZj67LOfVHgCw0ztcwEwYDVR0lBAwwCgYIKwYBBQUHAwEw
CwYDVR0PBAQDAgWgMBkGA1UdEQQSMBCCDnRlYW00NTktc2VydmVyMA0GCSqGSIb3
DQEBCwUAA4IBAQAAxvsmGsPH//kVaVO0pybI96eTKuTAwZM5Mjhk/uqvqrZBVRlD
hLDmfuUq6sNtUOc8gIAzBFZfS5Fr+xiAPJQdUFn5NwkSd1AZML+WEpcV4IUQEWWg
z0sXekExahFujMWfDS+ytOUqtAQzSYB7AXW8mWe+Sw+DKKVj1J2nfSHMoM/5wQO8
AzpxIuULaLjJ5VuJa/NGiPAA9xBGync3XYUvfvif+O6k+gicg48kdPXCV7VKxAah
VVjzyM+1BMSyKr9cqQ/dzZoIAjEH4SkPfrl8FlbKMMimVT/B0Dpq3Lvx4cIIzSO4
KNJlTJEaDbgTX6wJnl2oSjBxc2IKH7D80KLz
-----END CERTIFICATE-----
