Certificate:
    Data:
        Version: 3 (0x2)
        Serial Number:
            d6:f0:5f:d9:29:a2:a5:84:1a:45:38:a5:76:9d:f7:75
        Signature Algorithm: sha256WithRSAEncryption
        Issuer: CN=team459-net
        Validity
            Not Before: Nov  3 20:47:38 2023 GMT
            Not After : Oct 18 20:47:38 2026 GMT
        Subject: CN=team459-client
        Subject Public Key Info:
            Public Key Algorithm: rsaEncryption
                Public-Key: (2048 bit)
                Modulus:
                    00:a1:31:95:5f:8b:23:f5:78:c2:9b:d6:b2:a8:04:
                    d7:f3:a1:73:b7:ea:ef:d7:64:4d:08:4c:c0:94:31:
                    9a:9b:30:94:a4:0d:c1:f6:c4:b2:07:88:06:a9:2a:
                    61:2d:19:48:83:1d:12:b1:98:61:a6:6c:76:e2:b9:
                    8b:d2:c1:dd:3d:88:0b:12:0a:ea:9a:db:c5:e7:d8:
                    64:19:46:e3:59:02:fc:61:8f:25:9b:66:fb:08:e5:
                    19:44:86:49:d0:ba:d4:99:07:36:9c:b5:70:4c:61:
                    f1:26:68:24:8c:c7:fc:c8:62:6a:db:b2:70:db:88:
                    94:f4:99:b6:a9:ad:f8:3f:28:7b:70:20:07:bd:13:
                    85:83:39:bb:0e:64:ee:c1:66:ca:c3:3a:a9:b5:03:
                    4c:6e:be:0f:2b:e4:72:31:16:ca:b6:f7:d1:82:27:
                    57:34:0c:78:96:de:dd:ac:1f:a5:86:7d:f1:4d:cb:
                    7a:b7:c4:7f:39:91:37:ff:a1:a4:c2:75:7e:37:5c:
                    03:1d:41:b1:16:81:86:1c:c3:5d:77:63:09:94:54:
                    31:44:9f:52:c5:75:6c:a9:02:e9:de:dd:e7:fd:e0:
                    42:6e:58:1c:67:a5:c8:58:0a:43:37:a1:b6:5b:2e:
                    f4:82:5b:a0:31:1d:be:22:ac:1e:38:bc:4f:87:5a:
                    8c:ed
                Exponent: 65537 (0x10001)
        X509v3 extensions:
            X509v3 Basic Constraints: 
                CA:FALSE
            X509v3 Subject Key Identifier: 
                22:95:60:3D:25:A5:F2:A2:74:8E:A3:D6:EC:8E:34:53:AA:76:0B:07
            X509v3 Authority Key Identifier: 
                keyid:FA:C5:43:EB:61:08:F3:C8:27:CA:B3:26:02:3F:76:FA:37:ED:03:84
                DirName:/CN=team459-net
                serial:18:80:EB:63:48:37:8F:8C:D9:8F:AE:CB:39:F5:47:80:2C:34:CE:D7
            X509v3 Extended Key Usage: 
                TLS Web Client Authentication
            X509v3 Key Usage: 
                Digital Signature
    Signature Algorithm: sha256WithRSAEncryption
    Signature Value:
        8d:6b:ca:a1:f8:70:c9:fa:a6:cf:91:33:07:57:a4:ca:2d:73:
        d2:62:77:90:c9:78:e8:55:d5:99:32:72:62:06:14:54:c8:6f:
        6b:51:f2:bd:13:15:33:13:7c:3b:06:8f:d5:04:ad:06:6f:36:
        5a:f0:cf:4f:7a:92:b9:73:65:23:73:9b:ec:bb:78:51:9e:17:
        45:03:43:26:90:07:94:6e:5b:02:fb:fa:68:47:55:c9:05:fa:
        a6:fd:ad:7a:5f:16:94:a0:08:de:ef:bd:cf:16:f5:38:f1:81:
        45:86:d4:0d:39:4f:8e:2b:37:be:88:4d:dd:e5:c8:87:43:09:
        96:ac:97:58:48:cc:12:55:57:d3:64:fd:d0:9c:6f:66:48:c8:
        11:f1:ef:8d:8b:2e:58:ce:36:b2:dd:50:53:9d:96:3b:f2:7e:
        57:20:50:3d:d4:42:2a:85:72:13:e2:e6:8b:82:c0:3a:6c:55:
        e0:0d:b9:81:1b:a2:3f:00:c7:c8:2f:e1:79:9c:30:98:d8:5c:
        d4:aa:89:73:f0:c1:86:39:d1:86:40:0f:ed:53:1b:8b:8e:d9:
        ac:cf:ac:12:d8:2b:c8:2b:a8:56:dd:1c:a5:2d:3f:69:83:a7:
        10:dd:a3:bb:23:c5:7f:22:3f:1e:27:f0:c9:15:7e:41:54:d0:
        1f:0d:2e:6a
-----BEGIN CERTIFICATE-----
MIIDXTCCAkWgAwIBAgIRANbwX9kpoqWEGkU4pXad93UwDQYJKoZIhvcNAQELBQAw
FjEUMBIGA1UEAwwLdGVhbTQ1OS1uZXQwHhcNMjMxMTAzMjA0NzM4WhcNMjYxMDE4
MjA0NzM4WjAZMRcwFQYDVQQDDA50ZWFtNDU5LWNsaWVudDCCASIwDQYJKoZIhvcN
AQEBBQADggEPADCCAQoCggEBAKExlV+LI/V4wpvWsqgE1/Ohc7fq79dkTQhMwJQx
mpswlKQNwfbEsgeIBqkqYS0ZSIMdErGYYaZsduK5i9LB3T2ICxIK6prbxefYZBlG
41kC/GGPJZtm+wjlGUSGSdC61JkHNpy1cExh8SZoJIzH/MhiatuycNuIlPSZtqmt
+D8oe3AgB70ThYM5uw5k7sFmysM6qbUDTG6+DyvkcjEWyrb30YInVzQMeJbe3awf
pYZ98U3LerfEfzmRN/+hpMJ1fjdcAx1BsRaBhhzDXXdjCZRUMUSfUsV1bKkC6d7d
5/3gQm5YHGelyFgKQzehtlsu9IJboDEdviKsHji8T4dajO0CAwEAAaOBojCBnzAJ
BgNVHRMEAjAAMB0GA1UdDgQWBBQilWA9JaXyonSOo9bsjjRTqnYLBzBRBgNVHSME
SjBIgBT6xUPrYQjzyCfKsyYCP3b6N+0DhKEapBgwFjEUMBIGA1UEAwwLdGVhbTQ1
OS1uZXSCFBiA62NIN4+M2Y+uyzn1R4AsNM7XMBMGA1UdJQQMMAoGCCsGAQUFBwMC
MAsGA1UdDwQEAwIHgDANBgkqhkiG9w0BAQsFAAOCAQEAjWvKofhwyfqmz5EzB1ek
yi1z0mJ3kMl46FXVmTJyYgYUVMhva1HyvRMVMxN8OwaP1QStBm82WvDPT3qSuXNl
I3Ob7Lt4UZ4XRQNDJpAHlG5bAvv6aEdVyQX6pv2tel8WlKAI3u+9zxb1OPGBRYbU
DTlPjis3vohN3eXIh0MJlqyXWEjMElVX02T90JxvZkjIEfHvjYsuWM42st1QU52W
O/J+VyBQPdRCKoVyE+Lmi4LAOmxV4A25gRuiPwDHyC/heZwwmNhc1KqJc/DBhjnR
hkAP7VMbi47ZrM+sEtgryCuoVt0cpS0/aYOnEN2juyPFfyI/HifwyRV+QVTQHw0u
ag==
-----END CERTIFICATE-----
