Certificate:
    Data:
        Version: 3 (0x2)
        Serial Number:
            27:5c:5b:de:4e:5d:05:fa:e7:bf:2e:97:ee:d1:ec:18
        Signature Algorithm: sha256WithRSAEncryption
        Issuer: CN=team50-net
        Validity
            Not Before: Nov  4 10:41:09 2023 GMT
            Not After : Oct 19 10:41:09 2026 GMT
        Subject: CN=team50-client
        Subject Public Key Info:
            Public Key Algorithm: rsaEncryption
                Public-Key: (2048 bit)
                Modulus:
                    00:bf:2e:73:d3:85:f6:45:c9:f9:23:1d:fc:76:dd:
                    18:88:1c:57:a2:ea:0b:70:32:c3:36:c8:a2:38:22:
                    a7:44:13:57:e3:92:f3:ab:b0:3e:5a:c3:06:62:4d:
                    92:10:7d:d5:aa:af:5c:aa:ce:f2:fb:4c:1a:f2:01:
                    8c:b7:0d:e2:4c:57:4e:90:4b:e9:6b:46:d2:06:9a:
                    61:05:c1:12:d0:06:90:da:63:36:23:69:b7:73:65:
                    e7:08:1f:1e:a6:f5:c7:f5:ca:59:b8:88:5d:6e:c5:
                    32:71:13:a3:ba:a4:25:58:78:1a:2e:68:e4:17:41:
                    c6:37:75:d4:c3:19:d1:6c:b2:1b:c4:90:30:6d:6a:
                    66:8f:3e:87:70:4c:0c:a1:08:83:ac:ed:3b:41:61:
                    99:13:d2:ff:cd:b9:47:3a:ae:7d:0c:f0:9b:24:f6:
                    f1:0e:d3:0a:28:22:74:97:f7:04:5d:28:df:2f:40:
                    ec:f7:0e:90:48:8f:51:dd:2b:f0:85:c8:0f:a8:74:
                    c0:35:9b:8e:22:41:76:aa:87:f0:bd:ab:24:89:e6:
                    e5:77:a2:dd:b7:ed:30:02:09:36:8e:80:58:6f:3e:
                    ab:01:67:49:de:df:f2:5d:be:1a:40:6b:31:68:e1:
                    b8:3a:89:dc:11:63:3e:2a:8c:85:ef:bf:24:df:57:
                    4e:bd
                Exponent: 65537 (0x10001)
        X509v3 extensions:
            X509v3 Basic Constraints: 
                CA:FALSE
            X509v3 Subject Key Identifier: 
                AF:8F:44:C0:4A:1C:66:3E:6F:AA:EA:A8:D9:F6:8C:40:8E:15:38:57
            X509v3 Authority Key Identifier: 
                keyid:07:87:B8:73:07:D3:13:DE:A9:37:04:6E:A1:A8:B6:C4:85:17:B8:4A
                DirName:/CN=team50-net
                serial:4A:E4:69:3B:E9:13:54:4A:19:08:09:D7:0A:EB:C7:4B:BC:41:A9:96
            X509v3 Extended Key Usage: 
                TLS Web Client Authentication
            X509v3 Key Usage: 
                Digital Signature
    Signature Algorithm: sha256WithRSAEncryption
    Signature Value:
        8c:87:df:35:f3:61:88:fe:7b:d4:b7:87:f8:04:d4:fb:e3:76:
        94:73:79:fb:58:6c:59:bf:43:54:d9:cc:d3:be:eb:dd:6f:a9:
        73:53:87:46:fa:0d:b2:f5:33:b9:20:70:4c:ac:e0:f1:15:b8:
        4d:1e:67:9f:26:fe:77:bb:08:3d:0d:7e:8e:79:56:5f:5b:78:
        ea:17:b5:3d:0e:3c:ae:3d:84:c8:bd:14:08:5e:41:7b:2e:72:
        00:e1:c6:fa:24:52:1e:cc:76:85:3b:43:76:c4:b9:83:57:e1:
        34:74:9c:c5:84:02:14:43:f2:6a:ca:b3:97:61:0c:99:b2:1e:
        37:cd:9a:32:8e:cb:34:3b:d2:48:2b:5c:2f:54:c0:83:fd:7a:
        c2:91:70:fe:75:db:ed:cb:e2:d3:b2:11:24:b8:fc:c5:16:f1:
        e7:fa:8f:ff:17:20:6c:81:15:18:54:18:c6:e5:4e:7a:09:ff:
        65:ff:ff:d5:4e:f1:b0:f0:12:58:0c:88:24:5b:29:72:89:11:
        33:fc:b7:5f:2d:f7:36:cf:0b:cc:29:2f:2d:8a:7d:4c:84:26:
        5d:5e:56:62:d5:a4:02:22:b9:43:3a:63:57:bb:d4:85:c9:5c:
        1b:0f:2d:63:c6:bd:f1:b2:24:b1:cb:55:3d:a7:22:22:e9:a3:
        5b:36:e6:2d
-----BEGIN CERTIFICATE-----
MIIDWTCCAkGgAwIBAgIQJ1xb3k5dBfrnvy6X7tHsGDANBgkqhkiG9w0BAQsFADAV
MRMwEQYDVQQDDAp0ZWFtNTAtbmV0MB4XDTIzMTEwNDEwNDEwOVoXDTI2MTAxOTEw
NDEwOVowGDEWMBQGA1UEAwwNdGVhbTUwLWNsaWVudDCCASIwDQYJKoZIhvcNAQEB
BQADggEPADCCAQoCggEBAL8uc9OF9kXJ+SMd/HbdGIgcV6LqC3AywzbIojgip0QT
V+OS86uwPlrDBmJNkhB91aqvXKrO8vtMGvIBjLcN4kxXTpBL6WtG0gaaYQXBEtAG
kNpjNiNpt3Nl5wgfHqb1x/XKWbiIXW7FMnETo7qkJVh4Gi5o5BdBxjd11MMZ0Wyy
G8SQMG1qZo8+h3BMDKEIg6ztO0FhmRPS/825RzqufQzwmyT28Q7TCigidJf3BF0o
3y9A7PcOkEiPUd0r8IXID6h0wDWbjiJBdqqH8L2rJInm5Xei3bftMAIJNo6AWG8+
qwFnSd7f8l2+GkBrMWjhuDqJ3BFjPiqMhe+/JN9XTr0CAwEAAaOBoTCBnjAJBgNV
HRMEAjAAMB0GA1UdDgQWBBSvj0TAShxmPm+q6qjZ9oxAjhU4VzBQBgNVHSMESTBH
gBQHh7hzB9MT3qk3BG6hqLbEhRe4SqEZpBcwFTETMBEGA1UEAwwKdGVhbTUwLW5l
dIIUSuRpO+kTVEoZCAnXCuvHS7xBqZYwEwYDVR0lBAwwCgYIKwYBBQUHAwIwCwYD
VR0PBAQDAgeAMA0GCSqGSIb3DQEBCwUAA4IBAQCMh98182GI/nvUt4f4BNT743aU
c3n7WGxZv0NU2czTvuvdb6lzU4dG+g2y9TO5IHBMrODxFbhNHmefJv53uwg9DX6O
eVZfW3jqF7U9DjyuPYTIvRQIXkF7LnIA4cb6JFIezHaFO0N2xLmDV+E0dJzFhAIU
Q/JqyrOXYQyZsh43zZoyjss0O9JIK1wvVMCD/XrCkXD+ddvty+LTshEkuPzFFvHn
+o//FyBsgRUYVBjG5U56Cf9l///VTvGw8BJYDIgkWylyiREz/LdfLfc2zwvMKS8t
in1MhCZdXlZi1aQCIrlDOmNXu9SFyVwbDy1jxr3xsiSxy1U9pyIi6aNbNuYt
-----END CERTIFICATE-----
