Certificate:
    Data:
        Version: 3 (0x2)
        Serial Number:
            8c:6d:7a:a3:cc:d6:15:bc:ee:3c:89:dc:4a:21:8e:c3
        Signature Algorithm: sha256WithRSAEncryption
        Issuer: CN=team50-net
        Validity
            Not Before: Nov  4 11:28:20 2023 GMT
            Not After : Oct 19 11:28:20 2026 GMT
        Subject: CN=team50-client
        Subject Public Key Info:
            Public Key Algorithm: rsaEncryption
                Public-Key: (2048 bit)
                Modulus:
                    00:bc:cf:f7:9a:f0:08:cb:16:5b:7f:51:5a:d3:9c:
                    ed:3a:9a:a5:e2:d6:07:24:76:7f:7a:0e:d7:95:f5:
                    14:29:80:29:07:e5:a5:11:ef:ad:5a:43:91:2e:0e:
                    d5:1b:9b:f5:79:6e:eb:a7:59:10:c5:ec:79:06:2f:
                    5c:31:b7:d5:1a:b0:14:d1:f3:7f:79:e0:e0:59:bb:
                    27:f4:a9:8a:bd:38:b6:cc:58:e1:c2:d5:58:17:30:
                    5b:99:01:81:f5:1a:3f:aa:41:a5:08:e9:90:86:56:
                    b2:6f:ca:ae:81:60:a4:62:47:b6:3c:1d:cd:11:ab:
                    ec:88:2b:fd:27:0a:03:16:56:4c:31:e5:03:d2:41:
                    71:1f:28:97:4f:97:c4:e9:50:56:3c:1e:6e:2d:f5:
                    36:28:ed:22:b1:4f:ad:b7:80:fe:9e:00:a3:70:0f:
                    e1:a8:a9:f6:04:5e:cb:88:d6:37:bb:77:71:40:1e:
                    20:78:b6:cd:80:ac:b1:ff:b0:73:4d:1a:41:d9:29:
                    13:b5:40:50:80:aa:f3:32:a8:1e:11:01:73:af:69:
                    5d:79:a0:79:f3:07:b3:9a:6c:62:7a:bc:bb:f1:4e:
                    42:c4:53:5a:a9:20:88:5a:a0:4e:14:21:9e:c2:e5:
                    32:ac:67:f4:c5:90:dc:79:64:de:aa:d9:cd:f3:8b:
                    f4:59
                Exponent: 65537 (0x10001)
        X509v3 extensions:
            X509v3 Basic Constraints: 
                CA:FALSE
            X509v3 Subject Key Identifier: 
                C0:8C:6D:26:21:72:FB:7A:63:44:BF:DD:48:AF:09:DC:EA:50:C1:B5
            X509v3 Authority Key Identifier: 
                keyid:C2:71:EA:71:1C:BF:EA:49:4B:9E:F3:1E:59:BB:AB:8A:00:BD:5D:0B
                DirName:/CN=team50-net
                serial:0B:FF:CC:5E:43:BC:4F:F3:D3:B6:D0:34:75:AB:33:DC:99:26:35:A8
            X509v3 Extended Key Usage: 
                TLS Web Client Authentication
            X509v3 Key Usage: 
                Digital Signature
    Signature Algorithm: sha256WithRSAEncryption
    Signature Value:
        84:26:fa:cb:b6:4c:6b:79:ad:15:ac:24:fb:ca:ab:19:bb:fd:
        42:ab:51:19:ad:c1:9a:d8:d6:fe:cd:7b:11:4a:fe:3d:9c:3b:
        51:4c:22:8c:6b:50:57:e6:a3:9d:48:4f:e3:84:83:cd:82:65:
        7f:81:a7:8e:93:29:72:60:d5:be:50:69:6a:ab:61:bb:f5:58:
        ec:09:25:88:31:a7:7c:d7:23:a3:f1:8c:b9:97:4d:a5:86:11:
        f5:6e:ca:a2:35:3f:31:fd:5a:79:cb:fe:e8:e5:3d:bd:b9:45:
        8e:94:42:9a:a5:a1:36:94:85:a7:9d:9a:7a:79:b5:84:ce:a3:
        ad:40:51:ef:29:d1:34:4e:e6:f1:9b:be:d3:e2:61:48:96:c7:
        33:a8:fe:67:5a:37:29:64:3b:44:74:22:35:9b:95:84:bf:ac:
        b4:c1:9d:96:99:6e:50:7b:8e:ad:13:4f:96:49:f2:88:5e:8b:
        83:7b:11:e5:8f:e0:07:63:16:69:02:85:88:67:07:b7:34:df:
        2d:df:df:9a:26:b0:77:71:4e:fd:05:f4:1a:22:67:3e:00:75:
        49:48:4c:58:4c:43:f2:e7:58:a7:02:42:2f:3c:09:84:0c:cd:
        bb:91:0c:ae:c8:e0:c7:7f:66:cd:b5:f6:f8:06:9c:b2:f3:51:
        b5:96:69:53
-----BEGIN CERTIFICATE-----
MIIDWjCCAkKgAwIBAgIRAIxteqPM1hW87jyJ3EohjsMwDQYJKoZIhvcNAQELBQAw
FTETMBEGA1UEAwwKdGVhbTUwLW5ldDAeFw0yMzExMDQxMTI4MjBaFw0yNjEwMTkx
MTI4MjBaMBgxFjAUBgNVBAMMDXRlYW01MC1jbGllbnQwggEiMA0GCSqGSIb3DQEB
AQUAA4IBDwAwggEKAoIBAQC8z/ea8AjLFlt/UVrTnO06mqXi1gckdn96DteV9RQp
gCkH5aUR761aQ5EuDtUbm/V5buunWRDF7HkGL1wxt9UasBTR83954OBZuyf0qYq9
OLbMWOHC1VgXMFuZAYH1Gj+qQaUI6ZCGVrJvyq6BYKRiR7Y8Hc0Rq+yIK/0nCgMW
Vkwx5QPSQXEfKJdPl8TpUFY8Hm4t9TYo7SKxT623gP6eAKNwD+GoqfYEXsuI1je7
d3FAHiB4ts2ArLH/sHNNGkHZKRO1QFCAqvMyqB4RAXOvaV15oHnzB7OabGJ6vLvx
TkLEU1qpIIhaoE4UIZ7C5TKsZ/TFkNx5ZN6q2c3zi/RZAgMBAAGjgaEwgZ4wCQYD
VR0TBAIwADAdBgNVHQ4EFgQUwIxtJiFy+3pjRL/dSK8J3OpQwbUwUAYDVR0jBEkw
R4AUwnHqcRy/6klLnvMeWburigC9XQuhGaQXMBUxEzARBgNVBAMMCnRlYW01MC1u
ZXSCFAv/zF5DvE/z07bQNHWrM9yZJjWoMBMGA1UdJQQMMAoGCCsGAQUFBwMCMAsG
A1UdDwQEAwIHgDANBgkqhkiG9w0BAQsFAAOCAQEAhCb6y7ZMa3mtFawk+8qrGbv9
QqtRGa3BmtjW/s17EUr+PZw7UUwijGtQV+ajnUhP44SDzYJlf4GnjpMpcmDVvlBp
aqthu/VY7AkliDGnfNcjo/GMuZdNpYYR9W7KojU/Mf1aecv+6OU9vblFjpRCmqWh
NpSFp52aenm1hM6jrUBR7ynRNE7m8Zu+0+JhSJbHM6j+Z1o3KWQ7RHQiNZuVhL+s
tMGdlpluUHuOrRNPlknyiF6Lg3sR5Y/gB2MWaQKFiGcHtzTfLd/fmiawd3FO/QX0
GiJnPgB1SUhMWExD8udYpwJCLzwJhAzNu5EMrsjgx39mzbX2+AacsvNRtZZpUw==
-----END CERTIFICATE-----
