Certificate:
    Data:
        Version: 3 (0x2)
        Serial Number:
            ce:98:eb:46:95:76:ca:3a:ad:cb:93:fd:04:1d:22:9a
        Signature Algorithm: sha256WithRSAEncryption
        Issuer: CN=team50-net
        Validity
            Not Before: Nov  4 10:41:09 2023 GMT
            Not After : Oct 19 10:41:09 2026 GMT
        Subject: CN=team50-server
        Subject Public Key Info:
            Public Key Algorithm: rsaEncryption
                Public-Key: (2048 bit)
                Modulus:
                    00:cf:44:fa:aa:42:46:02:7e:cd:da:8d:19:58:84:
                    8f:dd:2a:09:9a:94:62:09:8b:b3:47:ae:bf:5e:48:
                    74:b7:0d:4d:d8:0b:ef:b6:e1:21:db:17:38:ba:17:
                    6b:80:22:19:d4:c5:7a:53:65:91:98:08:d0:71:01:
                    b2:58:5f:5c:09:6f:1d:36:6c:04:28:ff:7b:aa:63:
                    66:b7:5c:a5:ba:e4:56:7e:40:8e:07:a2:e8:f8:7a:
                    88:02:01:00:ed:9d:cd:28:8b:4d:40:ac:87:08:d8:
                    49:88:ed:e7:70:02:57:4b:74:10:e3:65:ea:cb:1f:
                    17:94:18:69:39:52:ed:0c:e0:a3:2a:80:f4:24:b9:
                    82:d3:d3:47:9c:85:c7:7d:25:83:34:b2:01:ae:55:
                    41:2f:51:d7:8c:ff:0e:43:d2:83:a0:01:f4:52:22:
                    bb:23:b9:f2:cf:0f:30:5c:eb:a2:cc:81:d5:c6:96:
                    ff:9f:6e:3b:05:b7:33:81:7c:0b:86:32:38:de:69:
                    cc:62:e4:2d:84:22:94:7b:0c:83:79:ca:0d:d7:7b:
                    30:fc:b7:86:42:de:55:69:aa:25:49:dc:8b:74:19:
                    98:7c:9b:8b:cd:e4:35:63:51:d3:65:be:16:1b:50:
                    f6:f1:c1:bc:b7:b6:99:b5:57:b9:d7:2f:ba:99:b2:
                    17:19
                Exponent: 65537 (0x10001)
        X509v3 extensions:
            X509v3 Basic Constraints: 
                CA:FALSE
            X509v3 Subject Key Identifier: 
                62:73:6D:DB:DF:9C:3A:20:F8:F2:9A:A1:77:B1:3A:09:F6:59:28:89
            X509v3 Authority Key Identifier: 
                keyid:07:87:B8:73:07:D3:13:DE:A9:37:04:6E:A1:A8:B6:C4:85:17:B8:4A
                DirName:/CN=team50-net
                serial:4A:E4:69:3B:E9:13:54:4A:19:08:09:D7:0A:EB:C7:4B:BC:41:A9:96
            X509v3 Extended Key Usage: 
                TLS Web Server Authentication
            X509v3 Key Usage: 
                Digital Signature, Key Encipherment
            X509v3 Subject Alternative Name: 
                DNS:team50-server
    Signature Algorithm: sha256WithRSAEncryption
    Signature Value:
        58:70:61:8b:0e:52:18:40:e9:b0:70:cf:ac:65:42:29:c3:5b:
        45:97:d7:9e:e9:d6:59:84:51:51:c1:67:1b:4a:c7:df:79:e3:
        49:12:3b:f6:fc:b6:f6:4b:90:d6:52:c8:14:33:b9:0c:62:ee:
        da:61:33:bb:ef:ee:e9:a4:86:b0:2f:13:cd:38:26:08:2f:ea:
        aa:cb:bd:44:de:b3:62:61:95:24:1e:f0:93:de:dd:97:b0:98:
        1f:86:08:dd:d2:21:a0:8e:cc:cf:c6:7f:63:42:49:24:84:3e:
        bb:c1:0b:b3:bf:54:06:b4:28:3a:47:84:68:c3:de:28:e5:4a:
        a6:af:fe:ce:80:d0:9b:c8:62:2b:fa:97:f8:1c:a3:21:9f:92:
        16:d3:6a:36:c6:99:6f:4f:aa:bc:2a:b8:53:f9:29:e5:f1:e0:
        dc:73:a4:5f:39:3e:d5:91:bc:89:c5:39:ba:90:15:ca:d6:a2:
        e9:d8:87:d5:1b:5b:b5:19:6a:1c:16:7e:e0:58:08:86:2b:47:
        7c:b5:65:84:85:db:87:3e:0f:9d:d9:13:d5:9f:8c:ff:30:2a:
        ff:04:b6:69:da:e7:16:2b:5c:7f:51:02:16:cd:8b:8a:07:7d:
        22:37:7c:db:d2:38:87:1c:3d:59:2d:50:e0:19:87:db:53:89:
        74:bd:65:dd
-----BEGIN CERTIFICATE-----
MIIDdDCCAlygAwIBAgIRAM6Y60aVdso6rcuT/QQdIpowDQYJKoZIhvcNAQELBQAw
FTETMBEGA1UEAwwKdGVhbTUwLW5ldDAeFw0yMzExMDQxMDQxMDlaFw0yNjEwMTkx
MDQxMDlaMBgxFjAUBgNVBAMMDXRlYW01MC1zZXJ2ZXIwggEiMA0GCSqGSIb3DQEB
AQUAA4IBDwAwggEKAoIBAQDPRPqqQkYCfs3ajRlYhI/dKgmalGIJi7NHrr9eSHS3
DU3YC++24SHbFzi6F2uAIhnUxXpTZZGYCNBxAbJYX1wJbx02bAQo/3uqY2a3XKW6
5FZ+QI4Houj4eogCAQDtnc0oi01ArIcI2EmI7edwAldLdBDjZerLHxeUGGk5Uu0M
4KMqgPQkuYLT00echcd9JYM0sgGuVUEvUdeM/w5D0oOgAfRSIrsjufLPDzBc66LM
gdXGlv+fbjsFtzOBfAuGMjjeacxi5C2EIpR7DIN5yg3XezD8t4ZC3lVpqiVJ3It0
GZh8m4vN5DVjUdNlvhYbUPbxwby3tpm1V7nXL7qZshcZAgMBAAGjgbswgbgwCQYD
VR0TBAIwADAdBgNVHQ4EFgQUYnNt29+cOiD48pqhd7E6CfZZKIkwUAYDVR0jBEkw
R4AUB4e4cwfTE96pNwRuoai2xIUXuEqhGaQXMBUxEzARBgNVBAMMCnRlYW01MC1u
ZXSCFErkaTvpE1RKGQgJ1wrrx0u8QamWMBMGA1UdJQQMMAoGCCsGAQUFBwMBMAsG
A1UdDwQEAwIFoDAYBgNVHREEETAPgg10ZWFtNTAtc2VydmVyMA0GCSqGSIb3DQEB
CwUAA4IBAQBYcGGLDlIYQOmwcM+sZUIpw1tFl9ee6dZZhFFRwWcbSsffeeNJEjv2
/Lb2S5DWUsgUM7kMYu7aYTO77+7ppIawLxPNOCYIL+qqy71E3rNiYZUkHvCT3t2X
sJgfhgjd0iGgjszPxn9jQkkkhD67wQuzv1QGtCg6R4Row94o5Uqmr/7OgNCbyGIr
+pf4HKMhn5IW02o2xplvT6q8KrhT+Snl8eDcc6RfOT7VkbyJxTm6kBXK1qLp2IfV
G1u1GWocFn7gWAiGK0d8tWWEhduHPg+d2RPVn4z/MCr/BLZp2ucWK1x/UQIWzYuK
B30iN3zb0jiHHD1ZLVDgGYfbU4l0vWXd
-----END CERTIFICATE-----
