Certificate:
    Data:
        Version: 3 (0x2)
        Serial Number:
            30:4a:c2:6f:ed:c8:15:c4:9d:b5:93:a7:bd:46:7f:d7
        Signature Algorithm: sha256WithRSAEncryption
        Issuer: CN=team302-net
        Validity
            Not Before: Nov  4 10:46:12 2023 GMT
            Not After : Oct 19 10:46:12 2026 GMT
        Subject: CN=team302-client
        Subject Public Key Info:
            Public Key Algorithm: rsaEncryption
                Public-Key: (2048 bit)
                Modulus:
                    00:d0:68:b3:d0:8d:bf:9c:80:42:b5:86:f3:8a:fa:
                    19:ff:be:ea:da:b1:09:00:81:00:4c:53:33:fc:e6:
                    94:3a:ca:7b:0f:e4:28:92:cf:8d:39:c7:bf:e1:b2:
                    26:11:b4:f3:b4:11:c9:68:0a:a8:e6:b4:da:74:a3:
                    45:f8:4d:19:9e:23:4d:21:b7:92:dc:f2:aa:af:69:
                    98:8f:d2:b8:6c:ee:bd:a8:15:31:94:9e:3b:3d:2f:
                    87:85:c0:78:24:a7:9b:b0:9f:e7:b5:3d:21:10:aa:
                    aa:17:2d:a8:c1:48:87:2e:98:a6:74:49:07:4b:e3:
                    07:de:16:3d:bb:c8:f6:8a:4c:46:d3:c3:e2:06:88:
                    9c:3a:a0:4a:f3:e6:23:aa:ee:17:4e:c0:67:fe:94:
                    10:fd:86:c3:cd:af:34:98:03:b4:4f:fb:3f:85:56:
                    bf:77:de:aa:03:a2:39:02:da:76:3f:58:65:9d:10:
                    a5:71:bc:d9:6e:b4:48:17:ef:96:41:07:72:ad:10:
                    33:bd:4f:d5:d8:4b:a1:92:4f:f2:19:85:44:2e:d2:
                    54:63:a0:cb:d1:6f:7b:88:4f:bd:dd:02:c2:72:3d:
                    f0:0d:87:5f:e5:8c:8f:bd:07:af:76:ba:9b:1d:4a:
                    0a:d5:aa:23:93:0f:b2:aa:0b:c5:6e:fb:43:0a:a6:
                    1b:8b
                Exponent: 65537 (0x10001)
        X509v3 extensions:
            X509v3 Basic Constraints: 
                CA:FALSE
            X509v3 Subject Key Identifier: 
                15:40:14:AE:76:7D:6F:5D:EA:D4:B0:E1:3B:29:68:BA:E6:C3:7A:96
            X509v3 Authority Key Identifier: 
                keyid:04:5D:F8:BB:94:AE:8E:53:AE:DB:1B:54:7D:2D:D4:1D:A8:05:70:07
                DirName:/CN=team302-net
                serial:57:EA:A5:9C:F9:54:D7:D5:00:EC:DC:93:95:96:4B:21:BB:38:C5:1F
            X509v3 Extended Key Usage: 
                TLS Web Client Authentication
            X509v3 Key Usage: 
                Digital Signature
    Signature Algorithm: sha256WithRSAEncryption
    Signature Value:
        10:e5:6e:95:4a:49:ad:fe:38:c2:0c:4e:a7:ac:ff:5e:14:de:
        c9:60:93:26:87:54:46:e4:52:46:88:cb:5e:e4:ed:60:95:14:
        b1:2d:54:b2:7f:be:08:ec:eb:3a:97:f1:56:99:f4:7f:6f:79:
        2e:e0:8a:1a:78:06:d4:94:67:6f:84:da:5e:d0:cf:53:db:77:
        1c:c6:79:60:22:92:42:21:a6:5b:a1:5a:bd:c7:f4:70:57:be:
        91:98:0a:ba:f2:99:ea:d1:21:29:db:d5:ed:c9:dd:be:05:86:
        ba:af:18:7b:51:78:99:82:27:9f:39:7f:97:f0:65:29:bb:13:
        72:89:af:88:19:2a:99:2d:26:55:b9:61:2a:67:c5:33:9a:d8:
        d1:ed:25:26:45:cb:c2:4a:a0:56:c5:ae:95:83:77:18:b9:c0:
        fb:7d:1f:95:b6:21:dc:a7:86:09:93:eb:15:5d:91:bc:31:0d:
        e6:c9:9d:b3:37:ba:15:46:a2:dd:b9:4a:33:34:61:f8:71:b9:
        e1:32:e7:1a:3d:b4:87:f1:dd:30:0e:ac:e6:aa:9f:4c:49:96:
        09:c3:2b:93:8a:30:f3:68:6a:7d:8c:5e:8f:5b:c2:8b:48:c4:
        36:c4:7e:7b:9d:ef:75:37:e5:6b:0e:05:7e:05:29:24:7e:81:
        02:32:06:3a
-----BEGIN CERTIFICATE-----
MIIDXDCCAkSgAwIBAgIQMErCb+3IFcSdtZOnvUZ/1zANBgkqhkiG9w0BAQsFADAW
MRQwEgYDVQQDDAt0ZWFtMzAyLW5ldDAeFw0yMzExMDQxMDQ2MTJaFw0yNjEwMTkx
MDQ2MTJaMBkxFzAVBgNVBAMMDnRlYW0zMDItY2xpZW50MIIBIjANBgkqhkiG9w0B
AQEFAAOCAQ8AMIIBCgKCAQEA0Giz0I2/nIBCtYbzivoZ/77q2rEJAIEATFMz/OaU
Osp7D+Qoks+NOce/4bImEbTztBHJaAqo5rTadKNF+E0ZniNNIbeS3PKqr2mYj9K4
bO69qBUxlJ47PS+HhcB4JKebsJ/ntT0hEKqqFy2owUiHLpimdEkHS+MH3hY9u8j2
ikxG08PiBoicOqBK8+Yjqu4XTsBn/pQQ/YbDza80mAO0T/s/hVa/d96qA6I5Atp2
P1hlnRClcbzZbrRIF++WQQdyrRAzvU/V2Euhkk/yGYVELtJUY6DL0W97iE+93QLC
cj3wDYdf5YyPvQevdrqbHUoK1aojkw+yqgvFbvtDCqYbiwIDAQABo4GiMIGfMAkG
A1UdEwQCMAAwHQYDVR0OBBYEFBVAFK52fW9d6tSw4TspaLrmw3qWMFEGA1UdIwRK
MEiAFARd+LuUro5TrtsbVH0t1B2oBXAHoRqkGDAWMRQwEgYDVQQDDAt0ZWFtMzAy
LW5ldIIUV+qlnPlU19UA7NyTlZZLIbs4xR8wEwYDVR0lBAwwCgYIKwYBBQUHAwIw
CwYDVR0PBAQDAgeAMA0GCSqGSIb3DQEBCwUAA4IBAQAQ5W6VSkmt/jjCDE6nrP9e
FN7JYJMmh1RG5FJGiMte5O1glRSxLVSyf74I7Os6l/FWmfR/b3ku4IoaeAbUlGdv
hNpe0M9T23ccxnlgIpJCIaZboVq9x/RwV76RmAq68pnq0SEp29Xtyd2+BYa6rxh7
UXiZgiefOX+X8GUpuxNyia+IGSqZLSZVuWEqZ8UzmtjR7SUmRcvCSqBWxa6Vg3cY
ucD7fR+VtiHcp4YJk+sVXZG8MQ3myZ2zN7oVRqLduUozNGH4cbnhMucaPbSH8d0w
Dqzmqp9MSZYJwyuTijDzaGp9jF6PW8KLSMQ2xH57ne91N+VrDgV+BSkkfoECMgY6
-----END CERTIFICATE-----
