Certificate:
    Data:
        Version: 3 (0x2)
        Serial Number:
            d2:6f:76:03:48:6a:59:b1:23:95:b3:4e:88:94:90:9d
        Signature Algorithm: sha256WithRSAEncryption
        Issuer: CN=team302-net
        Validity
            Not Before: Nov  4 10:46:12 2023 GMT
            Not After : Oct 19 10:46:12 2026 GMT
        Subject: CN=team302-server
        Subject Public Key Info:
            Public Key Algorithm: rsaEncryption
                Public-Key: (2048 bit)
                Modulus:
                    00:c0:46:2b:bb:60:f0:d9:14:9c:5b:b3:2d:04:f7:
                    eb:91:9b:02:1e:21:17:d3:00:9b:14:cb:f6:a3:40:
                    3c:76:cd:0a:6b:c7:c2:5c:a8:5a:08:39:a8:fb:86:
                    a2:83:31:85:c4:e7:2a:e9:6b:0a:9f:16:5a:ca:b8:
                    14:d5:fd:4f:3a:b5:62:8f:67:61:73:a2:67:0e:f1:
                    66:6a:ec:30:73:a3:2b:0a:a7:ed:31:b3:59:75:66:
                    a7:9c:54:d1:cc:1d:4f:11:44:98:88:68:3c:4f:dc:
                    7e:93:71:e2:cf:31:c7:de:03:11:6c:9d:95:7d:3f:
                    2f:52:a9:1f:73:12:88:28:b4:cb:40:3a:57:16:86:
                    87:15:bb:ed:bc:c0:f3:cc:18:c7:58:5d:81:47:7f:
                    af:b5:f9:ba:3e:09:4d:87:55:06:c0:d2:5f:41:9e:
                    ec:fe:ba:88:78:26:d7:18:d1:8c:32:fd:a1:de:50:
                    a0:5e:bb:fb:9d:07:0a:06:e1:d8:c8:cf:22:21:a9:
                    5f:01:58:43:50:e1:26:16:50:1d:59:91:96:3e:64:
                    d7:e5:ec:68:ed:72:e0:3b:bc:8f:fd:12:3d:d5:7a:
                    82:9e:89:91:82:3e:94:02:1b:94:4a:b4:ff:0e:f1:
                    2e:18:63:48:e3:32:54:44:53:60:1c:88:76:ae:8c:
                    36:d7
                Exponent: 65537 (0x10001)
        X509v3 extensions:
            X509v3 Basic Constraints: 
                CA:FALSE
            X509v3 Subject Key Identifier: 
                FA:D3:D4:F3:78:4B:D3:0D:45:F0:0C:38:8B:49:02:8C:87:2B:CD:3C
            X509v3 Authority Key Identifier: 
                keyid:04:5D:F8:BB:94:AE:8E:53:AE:DB:1B:54:7D:2D:D4:1D:A8:05:70:07
                DirName:/CN=team302-net
                serial:57:EA:A5:9C:F9:54:D7:D5:00:EC:DC:93:95:96:4B:21:BB:38:C5:1F
            X509v3 Extended Key Usage: 
                TLS Web Server Authentication
            X509v3 Key Usage: 
                Digital Signature, Key Encipherment
            X509v3 Subject Alternative Name: 
                DNS:team302-server
    Signature Algorithm: sha256WithRSAEncryption
    Signature Value:
        08:ab:1a:68:48:89:fc:a8:c0:d4:f6:11:e2:3e:ba:ea:c4:76:
        f3:21:ff:ba:fc:45:ef:1c:50:d2:0e:e7:fe:ec:36:9b:1f:64:
        6c:4a:7b:68:0d:6e:b3:5a:0c:85:9d:9f:d2:b7:34:9b:c8:32:
        a7:4a:22:5f:d5:e6:c0:98:0c:ae:b8:26:cd:54:28:d6:be:94:
        3c:a5:69:1d:06:29:aa:18:6c:69:fe:5e:4c:6a:b4:c1:67:6d:
        b6:c7:bb:19:c2:fc:90:9e:2f:26:cd:fa:60:29:35:fd:7c:89:
        bd:b6:72:17:9d:a1:45:26:ef:07:39:38:a5:cf:7f:3f:a9:dd:
        8c:0f:72:71:60:b6:4a:a7:1b:0f:11:30:33:01:b7:ef:c9:ae:
        d0:b3:a5:da:d7:76:de:94:7c:11:b1:60:0a:b8:af:a2:02:ee:
        1a:d5:f6:8d:32:51:ed:af:75:f2:53:51:5f:59:88:2c:4d:68:
        c5:04:0d:55:dc:dc:43:cf:0b:ad:d0:59:19:cc:a9:45:5a:34:
        7d:fc:1f:06:8e:2e:f2:7f:df:03:be:86:bc:5b:94:24:8d:e4:
        ab:2a:c9:35:2f:84:26:a2:f2:f9:60:20:f5:c0:36:1c:74:21:
        e0:50:de:e8:d1:c1:eb:51:3a:41:5f:30:f1:4e:9f:ff:38:d7:
        4a:d5:5e:d6
-----BEGIN CERTIFICATE-----
MIIDeDCCAmCgAwIBAgIRANJvdgNIalmxI5WzToiUkJ0wDQYJKoZIhvcNAQELBQAw
FjEUMBIGA1UEAwwLdGVhbTMwMi1uZXQwHhcNMjMxMTA0MTA0NjEyWhcNMjYxMDE5
MTA0NjEyWjAZMRcwFQYDVQQDDA50ZWFtMzAyLXNlcnZlcjCCASIwDQYJKoZIhvcN
AQEBBQADggEPADCCAQoCggEBAMBGK7tg8NkUnFuzLQT365GbAh4hF9MAmxTL9qNA
PHbNCmvHwlyoWgg5qPuGooMxhcTnKulrCp8WWsq4FNX9Tzq1Yo9nYXOiZw7xZmrs
MHOjKwqn7TGzWXVmp5xU0cwdTxFEmIhoPE/cfpNx4s8xx94DEWydlX0/L1KpH3MS
iCi0y0A6VxaGhxW77bzA88wYx1hdgUd/r7X5uj4JTYdVBsDSX0Ge7P66iHgm1xjR
jDL9od5QoF67+50HCgbh2MjPIiGpXwFYQ1DhJhZQHVmRlj5k1+XsaO1y4Du8j/0S
PdV6gp6JkYI+lAIblEq0/w7xLhhjSOMyVERTYByIdq6MNtcCAwEAAaOBvTCBujAJ
BgNVHRMEAjAAMB0GA1UdDgQWBBT609TzeEvTDUXwDDiLSQKMhyvNPDBRBgNVHSME
SjBIgBQEXfi7lK6OU67bG1R9LdQdqAVwB6EapBgwFjEUMBIGA1UEAwwLdGVhbTMw
Mi1uZXSCFFfqpZz5VNfVAOzck5WWSyG7OMUfMBMGA1UdJQQMMAoGCCsGAQUFBwMB
MAsGA1UdDwQEAwIFoDAZBgNVHREEEjAQgg50ZWFtMzAyLXNlcnZlcjANBgkqhkiG
9w0BAQsFAAOCAQEACKsaaEiJ/KjA1PYR4j666sR28yH/uvxF7xxQ0g7n/uw2mx9k
bEp7aA1us1oMhZ2f0rc0m8gyp0oiX9XmwJgMrrgmzVQo1r6UPKVpHQYpqhhsaf5e
TGq0wWdttse7GcL8kJ4vJs36YCk1/XyJvbZyF52hRSbvBzk4pc9/P6ndjA9ycWC2
SqcbDxEwMwG378mu0LOl2td23pR8EbFgCrivogLuGtX2jTJR7a918lNRX1mILE1o
xQQNVdzcQ88LrdBZGcypRVo0ffwfBo4u8n/fA76GvFuUJI3kqyrJNS+EJqLy+WAg
9cA2HHQh4FDe6NHB61E6QV8w8U6f/zjXStVe1g==
-----END CERTIFICATE-----
