Certificate:
    Data:
        Version: 3 (0x2)
        Serial Number:
            e5:e1:55:d0:7c:d6:73:42:80:78:90:e0:6b:fd:eb:94
        Signature Algorithm: sha256WithRSAEncryption
        Issuer: CN=team302-net
        Validity
            Not Before: Nov  3 20:44:45 2023 GMT
            Not After : Oct 18 20:44:45 2026 GMT
        Subject: CN=team302-client
        Subject Public Key Info:
            Public Key Algorithm: rsaEncryption
                Public-Key: (2048 bit)
                Modulus:
                    00:b7:7f:a2:4d:f6:57:16:9f:db:c8:06:77:2f:7e:
                    9e:c9:a2:a4:b0:3f:af:e3:c0:ab:12:bd:0b:1f:5e:
                    60:00:6f:6d:b2:c1:8c:e4:70:89:d1:09:ac:a8:13:
                    13:68:83:bb:bd:bb:6a:ad:3f:e0:6f:18:ac:63:2e:
                    57:26:32:33:c8:45:78:ed:8a:7c:26:e3:89:82:7b:
                    5d:38:7d:5a:a9:f8:cd:66:4f:0f:b6:19:c1:e6:ab:
                    9b:c8:87:9c:15:02:d0:dc:ea:8a:23:79:3c:c6:72:
                    32:41:96:fb:91:87:92:6d:18:40:a9:73:89:98:99:
                    8f:7e:e7:b6:28:da:42:27:e8:bf:90:ba:e5:e8:ff:
                    db:5c:04:e1:7d:2e:9a:bb:d7:d4:89:b1:12:16:db:
                    15:ea:fa:3d:ae:b4:d3:32:68:ee:49:2d:63:8a:b2:
                    61:6a:c4:b8:53:8c:13:b6:ba:fa:d1:34:c7:81:8d:
                    b0:72:b4:e7:44:39:39:95:88:ed:04:a7:5e:aa:0a:
                    d6:38:02:cf:81:3f:72:cc:b1:1e:26:4e:b1:2e:00:
                    83:c5:d3:a4:56:61:b4:11:51:62:10:0d:e6:3d:05:
                    0f:e5:13:70:9d:9b:9a:6f:95:0f:1b:ea:82:9a:4c:
                    cf:0a:98:2b:38:00:5d:70:bb:e0:b4:c4:6a:c4:5a:
                    c8:49
                Exponent: 65537 (0x10001)
        X509v3 extensions:
            X509v3 Basic Constraints: 
                CA:FALSE
            X509v3 Subject Key Identifier: 
                B4:7B:C6:C0:16:4B:51:81:4B:A3:97:70:4C:3F:0C:6E:90:BE:6F:CC
            X509v3 Authority Key Identifier: 
                keyid:B0:79:EA:72:A0:C6:23:10:8A:B1:05:E9:4E:C7:75:15:D1:D6:61:1D
                DirName:/CN=team302-net
                serial:3B:15:25:FF:BF:A1:71:EE:B5:AD:A9:84:3E:34:24:B4:08:8D:81:04
            X509v3 Extended Key Usage: 
                TLS Web Client Authentication
            X509v3 Key Usage: 
                Digital Signature
    Signature Algorithm: sha256WithRSAEncryption
    Signature Value:
        d6:0a:19:18:5c:46:9c:50:b4:b3:59:0d:03:a0:c1:ef:1c:de:
        91:a0:ff:97:4b:65:99:82:2d:21:7f:44:cc:fc:59:7d:15:53:
        48:22:2c:94:a2:f9:84:8a:a3:aa:14:f9:f7:21:90:6c:94:07:
        a6:02:d9:c1:94:05:d6:48:7c:7c:fe:e1:b6:51:3a:10:e1:3d:
        0f:79:9a:72:e1:45:10:f5:af:df:73:c6:4a:a3:11:e0:75:58:
        17:84:70:cd:bf:c3:79:b3:1a:4c:b1:d4:89:a8:c9:e7:ee:9b:
        f1:e1:7f:36:f0:84:2e:0c:65:bd:71:90:a5:7b:a5:d4:9d:f4:
        53:54:00:dd:c9:84:1a:29:39:34:7e:b9:cc:36:06:a3:55:36:
        28:81:55:ce:15:ff:6d:f8:48:15:fd:c9:b4:59:0e:d1:fb:cf:
        d3:4c:75:ba:e7:95:90:6a:9c:76:db:ca:b3:b7:6f:c9:ba:84:
        80:54:bb:44:33:b1:6b:58:fb:b3:35:8f:30:ff:9d:ae:60:db:
        5a:a9:1d:b4:92:04:b3:84:1d:53:8a:e6:6a:82:1c:27:3a:08:
        a5:2a:a2:29:9a:ea:45:89:f8:35:9d:ad:7b:58:f6:d0:b7:2a:
        9e:ea:c8:56:af:f1:4a:25:bf:98:90:ca:80:30:da:98:a2:28:
        61:e8:e7:c2
-----BEGIN CERTIFICATE-----
MIIDXTCCAkWgAwIBAgIRAOXhVdB81nNCgHiQ4Gv965QwDQYJKoZIhvcNAQELBQAw
FjEUMBIGA1UEAwwLdGVhbTMwMi1uZXQwHhcNMjMxMTAzMjA0NDQ1WhcNMjYxMDE4
MjA0NDQ1WjAZMRcwFQYDVQQDDA50ZWFtMzAyLWNsaWVudDCCASIwDQYJKoZIhvcN
AQEBBQADggEPADCCAQoCggEBALd/ok32Vxaf28gGdy9+nsmipLA/r+PAqxK9Cx9e
YABvbbLBjORwidEJrKgTE2iDu727aq0/4G8YrGMuVyYyM8hFeO2KfCbjiYJ7XTh9
Wqn4zWZPD7YZwearm8iHnBUC0NzqiiN5PMZyMkGW+5GHkm0YQKlziZiZj37ntija
Qifov5C65ej/21wE4X0umrvX1ImxEhbbFer6Pa600zJo7kktY4qyYWrEuFOME7a6
+tE0x4GNsHK050Q5OZWI7QSnXqoK1jgCz4E/csyxHiZOsS4Ag8XTpFZhtBFRYhAN
5j0FD+UTcJ2bmm+VDxvqgppMzwqYKzgAXXC74LTEasRayEkCAwEAAaOBojCBnzAJ
BgNVHRMEAjAAMB0GA1UdDgQWBBS0e8bAFktRgUujl3BMPwxukL5vzDBRBgNVHSME
SjBIgBSweepyoMYjEIqxBelOx3UV0dZhHaEapBgwFjEUMBIGA1UEAwwLdGVhbTMw
Mi1uZXSCFDsVJf+/oXHuta2phD40JLQIjYEEMBMGA1UdJQQMMAoGCCsGAQUFBwMC
MAsGA1UdDwQEAwIHgDANBgkqhkiG9w0BAQsFAAOCAQEA1goZGFxGnFC0s1kNA6DB
7xzekaD/l0tlmYItIX9EzPxZfRVTSCIslKL5hIqjqhT59yGQbJQHpgLZwZQF1kh8
fP7htlE6EOE9D3macuFFEPWv33PGSqMR4HVYF4Rwzb/DebMaTLHUiajJ5+6b8eF/
NvCELgxlvXGQpXul1J30U1QA3cmEGik5NH65zDYGo1U2KIFVzhX/bfhIFf3JtFkO
0fvP00x1uueVkGqcdtvKs7dvybqEgFS7RDOxa1j7szWPMP+drmDbWqkdtJIEs4Qd
U4rmaoIcJzoIpSqiKZrqRYn4NZ2te1j20LcqnurIVq/xSiW/mJDKgDDamKIoYejn
wg==
-----END CERTIFICATE-----
