Certificate:
    Data:
        Version: 3 (0x2)
        Serial Number:
            46:59:5f:58:2c:47:08:ce:e2:1c:c9:55:21:ad:62:7c
        Signature Algorithm: sha256WithRSAEncryption
        Issuer: CN=team318-net
        Validity
            Not Before: Nov  3 20:45:02 2023 GMT
            Not After : Oct 18 20:45:02 2026 GMT
        Subject: CN=team318-server
        Subject Public Key Info:
            Public Key Algorithm: rsaEncryption
                Public-Key: (2048 bit)
                Modulus:
                    00:d6:c9:54:2c:3e:83:ab:35:df:98:23:d3:a9:0d:
                    20:93:88:cd:90:72:c8:f6:b5:4b:d9:6d:db:6a:9c:
                    bf:b3:e6:70:85:78:d7:28:01:dd:80:4f:5f:c8:d0:
                    64:84:3d:d5:a5:cd:88:5a:b7:de:dc:02:7b:2b:bd:
                    88:07:b8:0f:7c:49:93:36:96:4d:1f:07:a6:e7:cc:
                    f3:60:9c:7e:3a:d6:d0:d9:bc:81:8a:0c:ce:1f:a7:
                    09:fb:87:96:de:15:49:69:9a:df:99:1d:6d:a3:6f:
                    f6:a9:8b:8f:63:22:4c:33:06:3e:a3:e5:2c:79:9d:
                    eb:f1:87:9c:e4:1e:72:02:ae:f6:e0:dc:fd:23:ba:
                    71:89:a7:b1:43:b4:72:1e:fe:d8:d2:f9:3a:dd:26:
                    2b:ed:41:64:23:32:d4:de:b6:36:93:0a:55:e0:51:
                    a1:9c:f2:01:19:0e:a0:96:f8:aa:fa:d1:0d:65:fc:
                    d3:bf:0c:6f:63:6b:3f:f3:b8:10:95:57:30:66:cf:
                    fc:ce:cf:86:83:aa:ca:2c:c5:eb:6d:db:58:9c:13:
                    16:fb:82:b9:97:bc:d1:43:7c:8c:23:64:e4:b6:ed:
                    6c:d8:b2:67:27:bf:ef:f2:21:73:bf:65:b5:d4:58:
                    49:59:db:d5:06:d0:33:61:91:71:9c:a8:96:79:dc:
                    1f:7f
                Exponent: 65537 (0x10001)
        X509v3 extensions:
            X509v3 Basic Constraints: 
                CA:FALSE
            X509v3 Subject Key Identifier: 
                97:BE:AE:9D:34:67:44:B4:E2:68:8A:65:6B:61:FC:4F:EF:61:58:19
            X509v3 Authority Key Identifier: 
                keyid:CF:73:3D:B5:98:57:1B:40:79:F0:0B:3F:E8:80:5E:10:A1:30:0C:11
                DirName:/CN=team318-net
                serial:5B:AC:AB:0B:DD:D2:C5:45:70:59:E3:7F:42:5C:1C:48:5E:7D:1D:AE
            X509v3 Extended Key Usage: 
                TLS Web Server Authentication
            X509v3 Key Usage: 
                Digital Signature, Key Encipherment
            X509v3 Subject Alternative Name: 
                DNS:team318-server
    Signature Algorithm: sha256WithRSAEncryption
    Signature Value:
        a3:ca:f4:3d:e1:63:56:a0:3f:f7:d0:5c:b7:92:ea:a8:cf:bc:
        24:4d:f2:b0:1b:f1:7f:33:14:34:39:d8:40:f6:d0:d5:06:da:
        c0:48:37:54:34:f6:45:83:bc:d4:a5:25:2b:65:3d:6d:64:dc:
        4d:e1:34:25:d9:8d:e1:42:d8:10:78:ff:46:cc:b5:52:c5:e4:
        eb:a4:6d:47:0d:c5:05:b1:85:65:13:7b:c2:cd:cd:1f:d6:65:
        b4:19:a5:30:71:10:55:bd:7d:fb:47:73:2b:be:03:92:4b:0a:
        e9:85:77:f2:dc:ad:0a:f9:e1:b5:73:06:ba:7a:88:e5:6f:f0:
        90:65:e4:8a:bd:0b:60:6f:72:75:80:9e:7f:dc:a7:5a:f5:bb:
        7d:10:85:31:80:d4:bc:bc:19:e2:b3:17:67:34:1b:54:3a:30:
        45:8f:8b:06:0c:ec:ea:45:54:4d:d9:43:01:3a:aa:ac:50:ee:
        dc:19:f6:76:3c:48:66:bc:73:28:6b:f2:2a:68:e5:2b:43:25:
        be:49:44:c2:fb:a4:97:8b:a4:b1:6e:02:71:42:8a:9e:a1:c8:
        8f:88:7c:d6:69:51:4e:9f:37:54:14:96:c2:98:f1:91:e7:fe:
        c0:00:c0:e0:67:16:b4:82:a5:eb:d2:b1:9e:9f:e9:e3:75:bd:
        20:d5:4d:7a
-----BEGIN CERTIFICATE-----
MIIDdzCCAl+gAwIBAgIQRllfWCxHCM7iHMlVIa1ifDANBgkqhkiG9w0BAQsFADAW
MRQwEgYDVQQDDAt0ZWFtMzE4LW5ldDAeFw0yMzExMDMyMDQ1MDJaFw0yNjEwMTgy
MDQ1MDJaMBkxFzAVBgNVBAMMDnRlYW0zMTgtc2VydmVyMIIBIjANBgkqhkiG9w0B
AQEFAAOCAQ8AMIIBCgKCAQEA1slULD6DqzXfmCPTqQ0gk4jNkHLI9rVL2W3bapy/
s+ZwhXjXKAHdgE9fyNBkhD3Vpc2IWrfe3AJ7K72IB7gPfEmTNpZNHwem58zzYJx+
OtbQ2byBigzOH6cJ+4eW3hVJaZrfmR1to2/2qYuPYyJMMwY+o+UseZ3r8Yec5B5y
Aq724Nz9I7pxiaexQ7RyHv7Y0vk63SYr7UFkIzLU3rY2kwpV4FGhnPIBGQ6glviq
+tENZfzTvwxvY2s/87gQlVcwZs/8zs+Gg6rKLMXrbdtYnBMW+4K5l7zRQ3yMI2Tk
tu1s2LJnJ7/v8iFzv2W11FhJWdvVBtAzYZFxnKiWedwffwIDAQABo4G9MIG6MAkG
A1UdEwQCMAAwHQYDVR0OBBYEFJe+rp00Z0S04miKZWth/E/vYVgZMFEGA1UdIwRK
MEiAFM9zPbWYVxtAefALP+iAXhChMAwRoRqkGDAWMRQwEgYDVQQDDAt0ZWFtMzE4
LW5ldIIUW6yrC93SxUVwWeN/QlwcSF59Ha4wEwYDVR0lBAwwCgYIKwYBBQUHAwEw
CwYDVR0PBAQDAgWgMBkGA1UdEQQSMBCCDnRlYW0zMTgtc2VydmVyMA0GCSqGSIb3
DQEBCwUAA4IBAQCjyvQ94WNWoD/30Fy3kuqoz7wkTfKwG/F/MxQ0OdhA9tDVBtrA
SDdUNPZFg7zUpSUrZT1tZNxN4TQl2Y3hQtgQeP9GzLVSxeTrpG1HDcUFsYVlE3vC
zc0f1mW0GaUwcRBVvX37R3MrvgOSSwrphXfy3K0K+eG1cwa6eojlb/CQZeSKvQtg
b3J1gJ5/3Kda9bt9EIUxgNS8vBnisxdnNBtUOjBFj4sGDOzqRVRN2UMBOqqsUO7c
GfZ2PEhmvHMoa/IqaOUrQyW+SUTC+6SXi6SxbgJxQoqeociPiHzWaVFOnzdUFJbC
mPGR5/7AAMDgZxa0gqXr0rGen+njdb0g1U16
-----END CERTIFICATE-----
