Certificate:
    Data:
        Version: 3 (0x2)
        Serial Number:
            5f:3f:2f:f4:29:d5:b9:63:ee:21:d7:4e:76:e1:1d:1d
        Signature Algorithm: sha256WithRSAEncryption
        Issuer: CN=team318-net
        Validity
            Not Before: Nov  4 10:46:26 2023 GMT
            Not After : Oct 19 10:46:26 2026 GMT
        Subject: CN=team318-client
        Subject Public Key Info:
            Public Key Algorithm: rsaEncryption
                Public-Key: (2048 bit)
                Modulus:
                    00:cd:7c:97:84:c4:a3:e4:f4:64:14:60:76:14:b3:
                    c2:f4:67:4a:e8:fd:2b:88:f7:bf:64:bc:1b:d9:ca:
                    11:11:76:2b:f5:6c:99:e1:01:f9:8a:00:cf:37:0a:
                    81:ca:2e:70:88:c0:43:b9:f5:8e:dd:94:4a:64:6d:
                    49:fc:5e:27:5e:b6:0b:8e:b4:34:d8:ac:e6:b0:f9:
                    57:be:ab:80:08:3d:a4:0b:c6:ed:93:1f:38:29:9b:
                    0c:6e:a0:f3:53:76:b0:40:1f:8c:45:78:73:70:12:
                    f2:35:3b:cc:fc:21:3e:13:32:bd:cd:14:97:ae:07:
                    b9:c8:29:b1:9c:86:dc:45:8a:ad:7e:f8:94:8d:ce:
                    0d:9c:66:dd:36:cc:32:02:24:80:31:1c:5b:0f:21:
                    62:f9:c3:7b:ad:e3:44:b0:92:88:f7:8a:bb:6b:36:
                    f8:ac:6b:3f:97:87:d1:8a:6e:4d:4d:86:53:ba:cd:
                    d3:9f:df:1e:87:75:39:f0:f2:42:d8:66:2a:6a:64:
                    64:49:c2:0d:5e:ed:da:d5:a7:34:8c:27:9a:bd:9e:
                    96:8a:4b:d8:79:d0:c4:a0:91:ec:ef:44:36:e3:75:
                    8f:81:1a:65:e4:79:5e:3c:e2:02:0e:48:6f:04:ab:
                    4c:7b:9d:7d:83:4e:cc:ea:cd:eb:07:ad:f0:91:9e:
                    c9:db
                Exponent: 65537 (0x10001)
        X509v3 extensions:
            X509v3 Basic Constraints: 
                CA:FALSE
            X509v3 Subject Key Identifier: 
                33:A6:4F:6E:01:7D:8E:B7:88:A7:08:88:87:E8:D2:24:A7:DE:B6:50
            X509v3 Authority Key Identifier: 
                keyid:A0:60:37:2D:DF:58:23:EE:89:32:58:10:E6:94:6C:B8:C1:55:82:D4
                DirName:/CN=team318-net
                serial:35:AD:F7:DB:50:AC:33:2B:26:0E:C5:05:1A:FD:5E:99:EF:F6:0A:DB
            X509v3 Extended Key Usage: 
                TLS Web Client Authentication
            X509v3 Key Usage: 
                Digital Signature
    Signature Algorithm: sha256WithRSAEncryption
    Signature Value:
        31:ef:0a:cc:73:d9:26:d0:e2:11:7d:1f:62:5d:23:7a:a9:c1:
        55:6f:16:44:94:89:6f:09:79:c0:7c:d5:9d:16:05:35:10:37:
        dd:6c:18:8e:13:19:19:69:b6:ab:c7:cd:8d:58:4b:26:94:b3:
        07:a8:60:43:ff:84:dc:7c:63:99:56:7b:a1:3e:0f:97:ec:63:
        02:c0:e7:0e:de:ca:e3:a4:48:21:26:9f:d3:34:1d:02:c0:e4:
        b5:30:77:6b:d3:45:cd:f9:9c:15:a0:6a:e3:13:29:2d:38:5a:
        d2:9e:d4:83:47:bd:8a:34:25:4c:75:4d:ff:5b:2d:47:70:70:
        01:57:83:b2:7e:65:5f:86:4d:2e:73:f2:ee:3a:22:f1:6b:9f:
        87:53:2c:d9:16:21:d4:d0:1e:13:be:9c:97:07:b0:ae:5e:b8:
        93:03:9e:41:e9:b3:0d:12:e5:69:80:db:66:42:7f:45:5b:c7:
        98:87:2d:1a:91:c1:33:15:33:c2:1b:8e:a9:7a:41:e6:96:64:
        37:b5:da:e1:66:09:25:13:b0:dc:e9:99:b6:3f:97:be:1e:0f:
        5a:98:ec:df:39:6b:63:06:79:6f:f5:80:16:40:18:50:fe:90:
        9b:42:cb:14:20:05:cf:ce:b1:e5:59:31:6d:59:57:ae:d8:a6:
        2b:e8:14:b2
-----BEGIN CERTIFICATE-----
MIIDXDCCAkSgAwIBAgIQXz8v9CnVuWPuIddOduEdHTANBgkqhkiG9w0BAQsFADAW
MRQwEgYDVQQDDAt0ZWFtMzE4LW5ldDAeFw0yMzExMDQxMDQ2MjZaFw0yNjEwMTkx
MDQ2MjZaMBkxFzAVBgNVBAMMDnRlYW0zMTgtY2xpZW50MIIBIjANBgkqhkiG9w0B
AQEFAAOCAQ8AMIIBCgKCAQEAzXyXhMSj5PRkFGB2FLPC9GdK6P0riPe/ZLwb2coR
EXYr9WyZ4QH5igDPNwqByi5wiMBDufWO3ZRKZG1J/F4nXrYLjrQ02KzmsPlXvquA
CD2kC8btkx84KZsMbqDzU3awQB+MRXhzcBLyNTvM/CE+EzK9zRSXrge5yCmxnIbc
RYqtfviUjc4NnGbdNswyAiSAMRxbDyFi+cN7reNEsJKI94q7azb4rGs/l4fRim5N
TYZTus3Tn98eh3U58PJC2GYqamRkScINXu3a1ac0jCeavZ6WikvYedDEoJHs70Q2
43WPgRpl5HlePOICDkhvBKtMe519g07M6s3rB63wkZ7J2wIDAQABo4GiMIGfMAkG
A1UdEwQCMAAwHQYDVR0OBBYEFDOmT24BfY63iKcIiIfo0iSn3rZQMFEGA1UdIwRK
MEiAFKBgNy3fWCPuiTJYEOaUbLjBVYLUoRqkGDAWMRQwEgYDVQQDDAt0ZWFtMzE4
LW5ldIIUNa3321CsMysmDsUFGv1eme/2CtswEwYDVR0lBAwwCgYIKwYBBQUHAwIw
CwYDVR0PBAQDAgeAMA0GCSqGSIb3DQEBCwUAA4IBAQAx7wrMc9km0OIRfR9iXSN6
qcFVbxZElIlvCXnAfNWdFgU1EDfdbBiOExkZabarx82NWEsmlLMHqGBD/4TcfGOZ
VnuhPg+X7GMCwOcO3srjpEghJp/TNB0CwOS1MHdr00XN+ZwVoGrjEyktOFrSntSD
R72KNCVMdU3/Wy1HcHABV4OyfmVfhk0uc/LuOiLxa5+HUyzZFiHU0B4TvpyXB7Cu
XriTA55B6bMNEuVpgNtmQn9FW8eYhy0akcEzFTPCG46pekHmlmQ3tdrhZgklE7Dc
6Zm2P5e+Hg9amOzfOWtjBnlv9YAWQBhQ/pCbQssUIAXPzrHlWTFtWVeu2KYr6BSy
-----END CERTIFICATE-----
