Certificate:
    Data:
        Version: 3 (0x2)
        Serial Number:
            ec:cc:e1:b4:fc:87:ef:d2:47:b0:4c:c0:ad:71:bb:04
        Signature Algorithm: sha256WithRSAEncryption
        Issuer: CN=team318-net
        Validity
            Not Before: Nov  4 11:34:26 2023 GMT
            Not After : Oct 19 11:34:26 2026 GMT
        Subject: CN=team318-server
        Subject Public Key Info:
            Public Key Algorithm: rsaEncryption
                Public-Key: (2048 bit)
                Modulus:
                    00:d5:ef:3f:ea:ea:45:92:7a:9b:96:1f:9b:4b:63:
                    22:df:65:79:66:9a:79:7f:cd:28:d3:6a:20:90:c1:
                    4f:f1:0b:7f:30:24:c8:54:5e:40:52:58:d3:4d:1f:
                    75:ef:45:08:7a:1b:a6:86:de:42:97:f6:36:02:be:
                    07:8e:b9:40:70:6b:17:61:80:bd:7b:7b:31:6d:01:
                    97:16:80:9c:62:b8:b3:ef:73:3b:d6:ab:22:8c:3f:
                    ec:72:81:86:9a:03:b0:7e:cf:e7:aa:d5:eb:12:68:
                    68:45:8a:17:ff:cd:34:e9:ba:c0:0a:c9:61:1c:61:
                    83:42:c2:a8:ff:68:de:c0:65:c7:3a:f5:3f:3e:ba:
                    1e:19:aa:c8:cd:31:c2:39:ca:4a:a5:30:7e:ea:92:
                    0d:3e:af:6b:af:f0:19:e1:ac:b4:0f:a2:2e:f4:c7:
                    5b:00:3b:b2:7c:78:65:de:2f:fb:d3:04:a5:71:67:
                    3a:ae:be:e5:8d:a9:10:ff:e8:2b:04:d3:2c:9b:80:
                    57:01:e3:94:04:a0:e1:87:0d:41:b4:bd:ec:51:72:
                    01:f1:a6:a8:ee:a0:7a:7c:1a:40:08:30:f2:81:5a:
                    aa:9a:0d:9a:b3:9e:07:1d:45:18:b2:0e:09:7b:5a:
                    0a:38:ad:39:6a:6d:88:a9:15:77:1c:0c:21:3d:b2:
                    6b:53
                Exponent: 65537 (0x10001)
        X509v3 extensions:
            X509v3 Basic Constraints: 
                CA:FALSE
            X509v3 Subject Key Identifier: 
                47:63:5F:E2:59:F2:B6:D0:48:4D:76:08:46:F1:E0:07:DD:DB:BB:1A
            X509v3 Authority Key Identifier: 
                keyid:10:06:A4:31:54:A3:F7:23:0F:85:90:B2:9F:61:84:58:68:35:CB:43
                DirName:/CN=team318-net
                serial:39:09:71:24:11:45:40:8E:A5:F7:3B:4A:EA:A4:42:2E:D0:7B:C6:43
            X509v3 Extended Key Usage: 
                TLS Web Server Authentication
            X509v3 Key Usage: 
                Digital Signature, Key Encipherment
            X509v3 Subject Alternative Name: 
                DNS:team318-server
    Signature Algorithm: sha256WithRSAEncryption
    Signature Value:
        4b:9b:46:ea:48:69:41:32:12:f6:28:b0:fb:9d:ea:81:8e:bd:
        d7:b3:cb:a0:e4:36:e7:42:28:a6:b0:d9:74:bb:ab:9d:07:0f:
        40:05:fb:8b:aa:8f:2f:18:6f:f3:4c:e6:9c:d4:2a:32:9d:23:
        36:6c:60:e1:07:e2:68:58:2f:c0:9d:0b:9c:2d:3f:e5:c6:40:
        d4:c1:3c:f9:2f:15:f4:f4:dc:4d:fb:15:40:de:73:aa:b3:52:
        75:b6:c3:a1:b2:92:52:03:5c:ac:85:80:88:75:4c:93:2a:e0:
        c8:5d:85:e8:60:4d:51:12:3c:fb:a7:fa:51:81:cf:50:a9:28:
        3e:d4:ea:37:20:5b:8c:12:05:d7:20:a8:ac:dd:44:ee:a0:9c:
        e2:9c:98:04:ad:99:5b:58:55:f8:c1:25:91:84:b7:4b:f8:60:
        f8:53:d6:a6:ad:20:89:0d:1a:bb:bf:97:40:40:4c:0b:a6:7f:
        33:61:05:c0:07:c0:2c:c0:7d:bc:e1:78:33:5d:01:86:81:fd:
        db:07:e0:f9:82:a2:82:a3:c1:6c:6a:72:28:f4:e2:3f:28:9b:
        58:5c:42:32:42:02:dd:a8:2e:78:22:86:b1:6b:6d:83:81:e4:
        ad:e7:d6:67:70:99:c4:81:66:50:e8:cc:98:3f:7c:92:4f:dd:
        b6:81:d1:dd
-----BEGIN CERTIFICATE-----
MIIDeDCCAmCgAwIBAgIRAOzM4bT8h+/SR7BMwK1xuwQwDQYJKoZIhvcNAQELBQAw
FjEUMBIGA1UEAwwLdGVhbTMxOC1uZXQwHhcNMjMxMTA0MTEzNDI2WhcNMjYxMDE5
MTEzNDI2WjAZMRcwFQYDVQQDDA50ZWFtMzE4LXNlcnZlcjCCASIwDQYJKoZIhvcN
AQEBBQADggEPADCCAQoCggEBANXvP+rqRZJ6m5Yfm0tjIt9leWaaeX/NKNNqIJDB
T/ELfzAkyFReQFJY000fde9FCHobpobeQpf2NgK+B465QHBrF2GAvXt7MW0BlxaA
nGK4s+9zO9arIow/7HKBhpoDsH7P56rV6xJoaEWKF//NNOm6wArJYRxhg0LCqP9o
3sBlxzr1Pz66HhmqyM0xwjnKSqUwfuqSDT6va6/wGeGstA+iLvTHWwA7snx4Zd4v
+9MEpXFnOq6+5Y2pEP/oKwTTLJuAVwHjlASg4YcNQbS97FFyAfGmqO6genwaQAgw
8oFaqpoNmrOeBx1FGLIOCXtaCjitOWptiKkVdxwMIT2ya1MCAwEAAaOBvTCBujAJ
BgNVHRMEAjAAMB0GA1UdDgQWBBRHY1/iWfK20EhNdghG8eAH3du7GjBRBgNVHSME
SjBIgBQQBqQxVKP3Iw+FkLKfYYRYaDXLQ6EapBgwFjEUMBIGA1UEAwwLdGVhbTMx
OC1uZXSCFDkJcSQRRUCOpfc7SuqkQi7Qe8ZDMBMGA1UdJQQMMAoGCCsGAQUFBwMB
MAsGA1UdDwQEAwIFoDAZBgNVHREEEjAQgg50ZWFtMzE4LXNlcnZlcjANBgkqhkiG
9w0BAQsFAAOCAQEAS5tG6khpQTIS9iiw+53qgY6917PLoOQ250IoprDZdLurnQcP
QAX7i6qPLxhv80zmnNQqMp0jNmxg4QfiaFgvwJ0LnC0/5cZA1ME8+S8V9PTcTfsV
QN5zqrNSdbbDobKSUgNcrIWAiHVMkyrgyF2F6GBNURI8+6f6UYHPUKkoPtTqNyBb
jBIF1yCorN1E7qCc4pyYBK2ZW1hV+MElkYS3S/hg+FPWpq0giQ0au7+XQEBMC6Z/
M2EFwAfALMB9vOF4M10BhoH92wfg+YKigqPBbGpyKPTiPyibWFxCMkIC3agueCKG
sWttg4HkrefWZ3CZxIFmUOjMmD98kk/dtoHR3Q==
-----END CERTIFICATE-----
