Certificate:
    Data:
        Version: 3 (0x2)
        Serial Number:
            c2:49:ef:94:23:85:3b:e5:59:fe:85:90:e6:8b:66:10
        Signature Algorithm: sha256WithRSAEncryption
        Issuer: CN=team426-net
        Validity
            Not Before: Nov  3 20:46:59 2023 GMT
            Not After : Oct 18 20:46:59 2026 GMT
        Subject: CN=team426-client
        Subject Public Key Info:
            Public Key Algorithm: rsaEncryption
                Public-Key: (2048 bit)
                Modulus:
                    00:d3:60:4b:8b:d6:bc:c6:a7:5b:b3:6d:96:98:c8:
                    01:4f:bb:2a:53:0c:76:28:13:62:3d:b8:ce:6e:9a:
                    bf:40:53:c4:f8:84:7e:53:f4:e1:4e:ff:83:7f:28:
                    0a:9f:6f:43:2d:f1:fb:79:2f:bf:e2:e5:b3:11:12:
                    d8:e7:75:1a:e8:b1:a5:3e:21:6b:69:fa:a0:46:a8:
                    be:5f:6e:2c:01:5b:82:55:9c:26:de:ed:64:af:a6:
                    d3:50:50:03:ec:8d:4b:74:b8:f7:23:eb:4e:cc:8b:
                    a6:fb:88:63:f5:a3:70:2f:c3:c3:71:2d:a8:91:54:
                    1f:7a:56:31:bf:0b:ba:be:64:5e:92:84:9e:f6:10:
                    36:9a:93:e4:0b:9d:4e:54:1a:1f:87:78:97:65:7d:
                    7e:bb:bb:78:d9:fe:91:4c:23:f0:ab:82:6c:5d:b5:
                    15:5a:14:96:04:bc:8f:aa:9f:17:07:74:75:16:13:
                    e6:53:b7:87:3f:7e:78:7e:0e:fb:bb:7d:ec:1c:36:
                    16:9a:b2:26:db:a3:08:57:4e:bb:7d:f4:ef:6a:52:
                    dc:8a:96:b2:43:c1:c8:0e:8c:8f:19:3c:4f:92:0e:
                    e9:0d:1f:f9:ee:78:63:ce:d4:79:f1:0b:1b:61:e3:
                    a5:17:40:5d:fc:b3:8f:53:6d:4b:1e:68:7d:6b:f6:
                    59:49
                Exponent: 65537 (0x10001)
        X509v3 extensions:
            X509v3 Basic Constraints: 
                CA:FALSE
            X509v3 Subject Key Identifier: 
                B2:08:E2:B2:8A:82:6B:40:96:3E:52:0C:D3:52:6F:F7:F4:D4:5F:4A
            X509v3 Authority Key Identifier: 
                keyid:E2:56:0D:16:00:E6:75:0E:19:7D:B2:74:37:87:C3:56:93:8F:43:1A
                DirName:/CN=team426-net
                serial:3A:79:4C:FB:A1:96:0C:C1:E8:97:8D:86:F8:9B:EF:C7:97:F4:E8:33
            X509v3 Extended Key Usage: 
                TLS Web Client Authentication
            X509v3 Key Usage: 
                Digital Signature
    Signature Algorithm: sha256WithRSAEncryption
    Signature Value:
        40:a9:31:13:77:11:54:10:fd:9a:fd:bb:db:14:ec:fb:e4:28:
        b2:4c:69:69:4e:ad:bd:57:ee:11:fc:9e:56:0a:1f:cd:d9:25:
        ae:0c:5d:1b:99:b4:7d:76:24:80:bf:c3:0e:1c:8a:62:6f:8d:
        10:b9:5f:35:4e:88:7b:6c:7c:24:e6:e4:ad:16:76:60:24:e7:
        6f:7b:55:48:00:76:48:15:17:4c:5f:ef:36:f5:f6:32:0e:a4:
        8b:8f:0a:ea:55:f6:78:2a:98:8c:a6:78:2d:33:37:ea:3d:9f:
        af:e2:d4:f5:9d:3f:bb:ce:a0:18:1e:64:5d:77:f0:55:c8:a7:
        f7:22:4c:fb:b3:58:c7:87:62:e8:ac:16:1a:c6:f0:a6:bb:03:
        a0:80:bb:a4:48:2d:b1:51:b6:23:04:b4:b7:2f:68:65:52:de:
        2e:17:bb:64:44:1c:26:fb:2f:5a:7a:a4:25:5b:9e:a9:02:b7:
        16:2b:2f:58:6e:64:96:89:bb:67:16:08:63:7b:43:88:e5:86:
        33:ce:62:34:0e:58:21:ca:da:81:e1:76:83:f2:bd:de:4d:4f:
        3d:d9:18:bf:e5:17:9d:6e:4d:29:ab:0b:c0:c9:78:08:6e:a5:
        c4:9c:36:9d:ad:1d:c5:2f:54:9d:1e:00:a4:be:1f:b2:ec:92:
        af:29:c8:0d
-----BEGIN CERTIFICATE-----
MIIDXTCCAkWgAwIBAgIRAMJJ75QjhTvlWf6FkOaLZhAwDQYJKoZIhvcNAQELBQAw
FjEUMBIGA1UEAwwLdGVhbTQyNi1uZXQwHhcNMjMxMTAzMjA0NjU5WhcNMjYxMDE4
MjA0NjU5WjAZMRcwFQYDVQQDDA50ZWFtNDI2LWNsaWVudDCCASIwDQYJKoZIhvcN
AQEBBQADggEPADCCAQoCggEBANNgS4vWvManW7NtlpjIAU+7KlMMdigTYj24zm6a
v0BTxPiEflP04U7/g38oCp9vQy3x+3kvv+LlsxES2Od1GuixpT4ha2n6oEaovl9u
LAFbglWcJt7tZK+m01BQA+yNS3S49yPrTsyLpvuIY/WjcC/Dw3EtqJFUH3pWMb8L
ur5kXpKEnvYQNpqT5AudTlQaH4d4l2V9fru7eNn+kUwj8KuCbF21FVoUlgS8j6qf
Fwd0dRYT5lO3hz9+eH4O+7t97Bw2FpqyJtujCFdOu33072pS3IqWskPByA6Mjxk8
T5IO6Q0f+e54Y87UefELG2HjpRdAXfyzj1NtSx5ofWv2WUkCAwEAAaOBojCBnzAJ
BgNVHRMEAjAAMB0GA1UdDgQWBBSyCOKyioJrQJY+UgzTUm/39NRfSjBRBgNVHSME
SjBIgBTiVg0WAOZ1Dhl9snQ3h8NWk49DGqEapBgwFjEUMBIGA1UEAwwLdGVhbTQy
Ni1uZXSCFDp5TPuhlgzB6JeNhvib78eX9OgzMBMGA1UdJQQMMAoGCCsGAQUFBwMC
MAsGA1UdDwQEAwIHgDANBgkqhkiG9w0BAQsFAAOCAQEAQKkxE3cRVBD9mv272xTs
++QoskxpaU6tvVfuEfyeVgofzdklrgxdG5m0fXYkgL/DDhyKYm+NELlfNU6Ie2x8
JObkrRZ2YCTnb3tVSAB2SBUXTF/vNvX2Mg6ki48K6lX2eCqYjKZ4LTM36j2fr+LU
9Z0/u86gGB5kXXfwVcin9yJM+7NYx4di6KwWGsbwprsDoIC7pEgtsVG2IwS0ty9o
ZVLeLhe7ZEQcJvsvWnqkJVueqQK3FisvWG5klom7ZxYIY3tDiOWGM85iNA5YIcra
geF2g/K93k1PPdkYv+UXnW5NKasLwMl4CG6lxJw2na0dxS9UnR4ApL4fsuySrynI
DQ==
-----END CERTIFICATE-----
