Certificate:
    Data:
        Version: 3 (0x2)
        Serial Number:
            37:08:ed:f9:a1:a1:bc:02:9e:8a:02:97:f6:6e:16:c0
        Signature Algorithm: sha256WithRSAEncryption
        Issuer: CN=team194-net
        Validity
            Not Before: Nov  4 11:31:27 2023 GMT
            Not After : Oct 19 11:31:27 2026 GMT
        Subject: CN=team194-server
        Subject Public Key Info:
            Public Key Algorithm: rsaEncryption
                Public-Key: (2048 bit)
                Modulus:
                    00:d9:39:57:3b:61:c6:ae:29:9a:85:b3:0f:6d:fd:
                    f6:c5:54:4f:5b:31:5e:cb:b0:1d:ed:85:f7:c5:d5:
                    43:08:81:53:60:88:96:a7:1a:e8:18:77:62:8f:21:
                    7a:f1:a6:70:bb:f2:e1:c7:12:ff:3f:5f:a3:f4:d9:
                    f0:a9:de:26:d5:55:fe:4d:cb:f8:52:6a:53:1d:9c:
                    7c:ac:ea:cd:58:5c:d5:92:38:73:e4:3e:ca:17:b0:
                    5e:84:3d:13:f1:bd:47:55:09:c1:f1:4a:18:d4:77:
                    4d:34:41:6b:f7:74:16:3e:b4:24:96:af:dc:a3:85:
                    4a:e4:d6:f7:9b:e7:44:8a:79:7f:91:ae:5b:fe:c4:
                    50:92:d5:26:3a:d1:5f:38:e5:ad:fc:26:fe:b7:e7:
                    8f:12:cd:b4:e7:3b:f8:81:f1:4c:23:7d:4c:b2:45:
                    df:07:fd:6b:5c:c6:ef:8a:c1:4d:c6:a3:d5:f3:0c:
                    00:7f:1f:b6:9a:a0:d3:86:a1:8a:f3:c1:b7:28:2b:
                    67:01:6d:8e:21:4d:a6:d8:09:3e:96:d2:2f:d3:8c:
                    0d:25:89:ff:c1:53:5c:1f:9a:5a:c5:67:30:e0:ae:
                    ee:38:14:2e:e1:f8:3c:cc:93:96:70:d6:88:9b:5c:
                    17:97:83:3a:ad:4d:2c:7b:dc:5a:26:b0:43:68:c1:
                    19:6f
                Exponent: 65537 (0x10001)
        X509v3 extensions:
            X509v3 Basic Constraints: 
                CA:FALSE
            X509v3 Subject Key Identifier: 
                98:3F:0E:C5:5F:C9:01:D2:2E:BB:2A:70:2B:9D:32:7B:F3:C6:6D:E0
            X509v3 Authority Key Identifier: 
                keyid:73:D6:E0:8E:BC:65:99:99:12:BE:7C:DF:7C:C4:3F:45:39:FD:F3:BF
                DirName:/CN=team194-net
                serial:10:2D:9F:51:3D:DB:F7:A2:92:0E:6B:54:8D:7C:A9:5B:1C:80:48:9A
            X509v3 Extended Key Usage: 
                TLS Web Server Authentication
            X509v3 Key Usage: 
                Digital Signature, Key Encipherment
            X509v3 Subject Alternative Name: 
                DNS:team194-server
    Signature Algorithm: sha256WithRSAEncryption
    Signature Value:
        ab:70:ee:f1:e0:38:8b:9e:e2:b6:81:52:ee:42:e5:71:9a:48:
        95:4d:86:69:7a:33:5a:f5:18:a3:15:9d:0c:5c:84:05:58:d1:
        66:26:e5:b4:82:17:0f:ea:d9:48:d8:51:9b:f8:8f:b1:6b:7c:
        11:ef:da:78:06:6c:20:12:bc:48:01:81:d7:17:80:3c:bd:91:
        a0:ff:41:05:a7:49:cf:bc:e2:ca:78:6d:c1:b6:1d:44:01:e2:
        20:9b:2a:f0:f4:04:2c:d3:48:ae:80:8d:1e:b9:16:af:2d:db:
        b0:27:e2:af:be:7b:1c:71:55:24:cc:6f:98:00:ea:12:b3:99:
        31:9d:51:b8:6b:ff:29:c0:d6:20:6c:3b:98:11:3b:f5:2c:d5:
        ac:ff:7b:ee:a4:64:8b:8d:92:78:f7:60:57:78:ed:88:96:b7:
        cf:d9:b4:eb:8e:03:2c:29:ee:e0:a9:f1:f7:cc:8b:68:ee:91:
        bd:c0:f7:3b:1b:2a:bb:4b:ba:7c:29:85:e2:9b:c2:1f:77:30:
        5d:bc:4a:4f:40:51:30:be:4c:9d:af:93:ae:82:01:f8:df:e8:
        47:db:63:53:00:0b:61:7b:6c:b3:2f:6b:08:d1:1c:61:d3:fa:
        50:ee:e2:81:63:6d:7b:42:90:c6:4d:e6:23:71:9c:8d:fa:66:
        b0:15:d0:f5
-----BEGIN CERTIFICATE-----
MIIDdzCCAl+gAwIBAgIQNwjt+aGhvAKeigKX9m4WwDANBgkqhkiG9w0BAQsFADAW
MRQwEgYDVQQDDAt0ZWFtMTk0LW5ldDAeFw0yMzExMDQxMTMxMjdaFw0yNjEwMTkx
MTMxMjdaMBkxFzAVBgNVBAMMDnRlYW0xOTQtc2VydmVyMIIBIjANBgkqhkiG9w0B
AQEFAAOCAQ8AMIIBCgKCAQEA2TlXO2HGrimahbMPbf32xVRPWzFey7Ad7YX3xdVD
CIFTYIiWpxroGHdijyF68aZwu/LhxxL/P1+j9Nnwqd4m1VX+Tcv4UmpTHZx8rOrN
WFzVkjhz5D7KF7BehD0T8b1HVQnB8UoY1HdNNEFr93QWPrQklq/co4VK5Nb3m+dE
inl/ka5b/sRQktUmOtFfOOWt/Cb+t+ePEs205zv4gfFMI31MskXfB/1rXMbvisFN
xqPV8wwAfx+2mqDThqGK88G3KCtnAW2OIU2m2Ak+ltIv04wNJYn/wVNcH5paxWcw
4K7uOBQu4fg8zJOWcNaIm1wXl4M6rU0se9xaJrBDaMEZbwIDAQABo4G9MIG6MAkG
A1UdEwQCMAAwHQYDVR0OBBYEFJg/DsVfyQHSLrsqcCudMnvzxm3gMFEGA1UdIwRK
MEiAFHPW4I68ZZmZEr5833zEP0U5/fO/oRqkGDAWMRQwEgYDVQQDDAt0ZWFtMTk0
LW5ldIIUEC2fUT3b96KSDmtUjXypWxyASJowEwYDVR0lBAwwCgYIKwYBBQUHAwEw
CwYDVR0PBAQDAgWgMBkGA1UdEQQSMBCCDnRlYW0xOTQtc2VydmVyMA0GCSqGSIb3
DQEBCwUAA4IBAQCrcO7x4DiLnuK2gVLuQuVxmkiVTYZpejNa9RijFZ0MXIQFWNFm
JuW0ghcP6tlI2FGb+I+xa3wR79p4BmwgErxIAYHXF4A8vZGg/0EFp0nPvOLKeG3B
th1EAeIgmyrw9AQs00iugI0euRavLduwJ+KvvnsccVUkzG+YAOoSs5kxnVG4a/8p
wNYgbDuYETv1LNWs/3vupGSLjZJ492BXeO2IlrfP2bTrjgMsKe7gqfH3zIto7pG9
wPc7Gyq7S7p8KYXim8IfdzBdvEpPQFEwvkydr5OuggH43+hH22NTAAthe2yzL2sI
0Rxh0/pQ7uKBY217QpDGTeYjcZyN+mawFdD1
-----END CERTIFICATE-----
