Certificate:
    Data:
        Version: 3 (0x2)
        Serial Number:
            c6:e8:30:8d:9a:f4:27:84:54:f3:31:8c:77:c6:a4:66
        Signature Algorithm: sha256WithRSAEncryption
        Issuer: CN=team194-net
        Validity
            Not Before: Nov  4 11:31:27 2023 GMT
            Not After : Oct 19 11:31:27 2026 GMT
        Subject: CN=team194-client
        Subject Public Key Info:
            Public Key Algorithm: rsaEncryption
                Public-Key: (2048 bit)
                Modulus:
                    00:c6:de:0e:ef:c4:d6:27:f8:6e:1e:38:f4:e9:32:
                    7c:ba:da:9a:42:38:d7:3e:08:4c:7b:81:56:6a:e6:
                    bf:16:fd:ec:62:b4:68:7a:49:98:68:aa:fc:2a:5e:
                    51:1f:2a:eb:4f:96:53:0e:17:61:73:2c:af:0a:84:
                    82:c6:6f:b6:f9:df:64:7f:d9:dd:19:d2:2d:93:2c:
                    1a:0a:44:98:4b:88:ce:a7:f1:c5:73:32:8b:37:0b:
                    5a:ec:8c:40:37:6c:39:4a:56:6f:88:9f:0b:06:39:
                    66:7a:88:e2:88:f5:8a:56:54:51:0b:4f:ce:f0:6e:
                    46:67:2d:9f:b8:88:63:45:0f:fe:65:c1:a4:dd:c5:
                    fd:33:53:ba:4a:e9:47:3f:b4:ce:f6:5d:36:2e:1e:
                    cf:a4:09:9e:cb:a5:8a:0d:cc:27:43:16:16:38:7b:
                    5d:b4:2a:a8:84:17:4f:c7:91:bc:f3:93:a6:5e:d5:
                    8f:d9:9a:cb:f1:1b:10:11:a3:24:7f:77:76:4a:f7:
                    78:bc:8c:80:71:7e:bc:ba:6a:f2:9e:92:9c:3a:6e:
                    a9:d1:9b:2a:51:9a:29:ad:3f:2f:44:a4:da:db:80:
                    58:b2:0c:27:46:a1:b1:63:e4:67:b7:b1:81:d2:25:
                    9b:ce:48:b4:80:ce:61:79:87:de:18:0d:f2:5d:e0:
                    9e:5f
                Exponent: 65537 (0x10001)
        X509v3 extensions:
            X509v3 Basic Constraints: 
                CA:FALSE
            X509v3 Subject Key Identifier: 
                33:B6:11:56:AB:DD:A2:87:60:4E:F1:92:89:7B:DD:E0:12:94:05:FE
            X509v3 Authority Key Identifier: 
                keyid:73:D6:E0:8E:BC:65:99:99:12:BE:7C:DF:7C:C4:3F:45:39:FD:F3:BF
                DirName:/CN=team194-net
                serial:10:2D:9F:51:3D:DB:F7:A2:92:0E:6B:54:8D:7C:A9:5B:1C:80:48:9A
            X509v3 Extended Key Usage: 
                TLS Web Client Authentication
            X509v3 Key Usage: 
                Digital Signature
    Signature Algorithm: sha256WithRSAEncryption
    Signature Value:
        14:61:ef:07:18:dd:25:82:f7:bc:b1:78:66:2c:c5:35:e3:23:
        bc:d9:ce:01:2f:47:e0:08:0b:87:c9:0a:86:a1:0b:80:55:25:
        06:ed:61:93:28:40:17:52:22:b5:e8:58:f0:49:c4:43:53:a7:
        4e:c1:71:53:4b:72:28:59:16:dc:45:d4:a2:35:8c:59:70:29:
        f8:69:f8:ed:a8:b4:47:85:2b:74:d7:c6:f0:bd:55:ca:54:e4:
        2d:16:92:36:63:d1:3d:6b:6d:33:27:f7:d5:29:ac:83:54:f0:
        0d:b4:c9:ed:74:ff:8f:52:7f:67:bd:5e:b1:a1:52:d9:6f:2c:
        68:db:13:11:15:d6:e5:60:bc:03:d6:cd:7b:90:4d:2b:68:47:
        8e:e0:73:b1:5c:b2:cf:8f:69:90:74:85:dd:c7:eb:a4:47:79:
        4b:b6:d8:9d:72:3d:bb:21:69:b8:76:88:2b:6c:9b:85:b7:4c:
        53:f6:80:87:d1:7c:e0:42:82:ea:70:8a:01:28:71:5d:04:e4:
        72:fd:4f:be:03:59:66:f9:7b:e1:4f:34:b6:8d:9c:df:54:85:
        12:10:5f:da:9f:d1:dc:5f:0e:76:32:8d:d1:16:4f:b8:20:03:
        58:47:6e:1c:a4:e6:f7:d2:ad:3f:64:d3:d4:89:f1:54:65:dc:
        45:2c:c0:85
-----BEGIN CERTIFICATE-----
MIIDXTCCAkWgAwIBAgIRAMboMI2a9CeEVPMxjHfGpGYwDQYJKoZIhvcNAQELBQAw
FjEUMBIGA1UEAwwLdGVhbTE5NC1uZXQwHhcNMjMxMTA0MTEzMTI3WhcNMjYxMDE5
MTEzMTI3WjAZMRcwFQYDVQQDDA50ZWFtMTk0LWNsaWVudDCCASIwDQYJKoZIhvcN
AQEBBQADggEPADCCAQoCggEBAMbeDu/E1if4bh449OkyfLramkI41z4ITHuBVmrm
vxb97GK0aHpJmGiq/CpeUR8q60+WUw4XYXMsrwqEgsZvtvnfZH/Z3RnSLZMsGgpE
mEuIzqfxxXMyizcLWuyMQDdsOUpWb4ifCwY5ZnqI4oj1ilZUUQtPzvBuRmctn7iI
Y0UP/mXBpN3F/TNTukrpRz+0zvZdNi4ez6QJnsulig3MJ0MWFjh7XbQqqIQXT8eR
vPOTpl7Vj9may/EbEBGjJH93dkr3eLyMgHF+vLpq8p6SnDpuqdGbKlGaKa0/L0Sk
2tuAWLIMJ0ahsWPkZ7exgdIlm85ItIDOYXmH3hgN8l3gnl8CAwEAAaOBojCBnzAJ
BgNVHRMEAjAAMB0GA1UdDgQWBBQzthFWq92ih2BO8ZKJe93gEpQF/jBRBgNVHSME
SjBIgBRz1uCOvGWZmRK+fN98xD9FOf3zv6EapBgwFjEUMBIGA1UEAwwLdGVhbTE5
NC1uZXSCFBAtn1E92/eikg5rVI18qVscgEiaMBMGA1UdJQQMMAoGCCsGAQUFBwMC
MAsGA1UdDwQEAwIHgDANBgkqhkiG9w0BAQsFAAOCAQEAFGHvBxjdJYL3vLF4ZizF
NeMjvNnOAS9H4AgLh8kKhqELgFUlBu1hkyhAF1IitehY8EnEQ1OnTsFxU0tyKFkW
3EXUojWMWXAp+Gn47ai0R4UrdNfG8L1VylTkLRaSNmPRPWttMyf31Smsg1TwDbTJ
7XT/j1J/Z71esaFS2W8saNsTERXW5WC8A9bNe5BNK2hHjuBzsVyyz49pkHSF3cfr
pEd5S7bYnXI9uyFpuHaIK2ybhbdMU/aAh9F84EKC6nCKAShxXQTkcv1PvgNZZvl7
4U80to2c31SFEhBf2p/R3F8OdjKN0RZPuCADWEduHKTm99KtP2TT1InxVGXcRSzA
hQ==
-----END CERTIFICATE-----
