Certificate:
    Data:
        Version: 3 (0x2)
        Serial Number:
            e6:1d:ec:13:31:77:f4:35:9f:40:d0:fa:80:08:ab:a2
        Signature Algorithm: sha256WithRSAEncryption
        Issuer: CN=team194-net
        Validity
            Not Before: Nov  4 10:44:10 2023 GMT
            Not After : Oct 19 10:44:10 2026 GMT
        Subject: CN=team194-server
        Subject Public Key Info:
            Public Key Algorithm: rsaEncryption
                Public-Key: (2048 bit)
                Modulus:
                    00:d0:94:ef:93:0c:2b:40:06:5f:5a:49:d9:e2:aa:
                    48:31:4b:88:db:7d:ea:20:f9:a8:2c:fc:81:87:af:
                    bc:f8:31:0c:6f:52:48:e2:61:9e:25:71:17:de:b2:
                    6f:73:ec:fd:3d:7f:71:29:2d:78:61:19:26:57:90:
                    19:2a:4b:0c:6f:bb:78:70:c6:b7:69:6f:37:be:05:
                    6e:1c:46:1e:20:92:c0:0b:ec:9c:06:0d:f3:7d:b5:
                    17:0a:75:a0:8a:7e:20:c2:6e:b6:a4:7d:32:54:79:
                    bf:a2:37:c4:c1:84:37:ff:ee:bb:8a:05:34:ce:30:
                    24:ae:4a:50:b1:dc:b4:b3:c0:c9:7f:47:cc:3d:d9:
                    6b:68:7e:26:52:fa:3c:a3:51:8e:4b:29:0f:ac:45:
                    5c:b9:7c:3e:f9:7d:29:e2:c5:9d:72:72:cd:c0:a6:
                    ce:1f:f4:f3:e3:5a:33:f6:81:0b:73:fb:fe:2b:53:
                    26:91:3d:50:ff:4e:a9:64:6f:3e:35:bf:41:16:d7:
                    fc:ac:cc:81:49:66:d1:88:5d:b3:80:18:3c:58:82:
                    9e:57:38:de:5e:77:36:8b:9a:9d:be:5a:cc:7e:e0:
                    34:d4:85:d3:ab:39:59:1b:c1:08:32:dc:c9:1f:96:
                    db:b6:d6:bf:b7:17:96:bc:a7:72:3e:af:5c:84:9a:
                    8b:bb
                Exponent: 65537 (0x10001)
        X509v3 extensions:
            X509v3 Basic Constraints: 
                CA:FALSE
            X509v3 Subject Key Identifier: 
                B8:31:2C:2C:3E:A4:F7:E7:48:87:5A:05:B8:22:73:BD:2C:B8:DC:80
            X509v3 Authority Key Identifier: 
                keyid:A1:2D:DF:65:86:32:EF:69:90:CC:83:BE:50:53:4C:97:50:39:23:37
                DirName:/CN=team194-net
                serial:3C:DA:F1:BA:23:DF:16:9D:6E:57:FA:9F:9C:BF:82:9A:93:61:D2:24
            X509v3 Extended Key Usage: 
                TLS Web Server Authentication
            X509v3 Key Usage: 
                Digital Signature, Key Encipherment
            X509v3 Subject Alternative Name: 
                DNS:team194-server
    Signature Algorithm: sha256WithRSAEncryption
    Signature Value:
        77:f0:34:77:77:74:cf:92:a4:31:1e:96:eb:12:07:62:61:47:
        72:4f:ae:93:d7:bc:4e:29:18:c8:13:25:61:41:02:6f:a0:d8:
        05:54:55:78:8f:8b:ef:fe:49:2c:93:0c:45:68:d6:df:c4:7d:
        95:57:ba:88:77:80:89:b5:e1:b2:c6:ea:15:c7:63:9f:4b:17:
        2f:35:55:ca:73:3e:17:31:4f:a5:b4:78:a9:b6:6f:01:d7:10:
        7e:01:5c:f5:d1:b0:9a:11:c8:b4:36:67:51:b2:20:6f:27:29:
        9b:c9:8c:f9:65:5b:ac:a3:40:9d:27:8d:00:77:9b:9f:1d:78:
        92:fa:d8:f6:d0:0a:de:51:7a:70:89:a3:ad:21:f9:1e:8e:fb:
        79:a4:51:f8:81:8e:10:0b:28:62:f8:97:11:0a:46:ff:8c:ef:
        0d:91:f0:15:a2:34:ae:5a:bb:e6:58:47:21:f5:29:e3:a7:1e:
        4b:5f:16:57:c6:47:b1:ae:da:04:4f:f5:e1:d0:0a:1a:9e:f5:
        fd:5c:90:38:8d:15:74:41:2e:5c:63:a3:14:73:f3:cd:e1:14:
        28:87:17:f3:23:bd:19:7d:71:02:4b:68:ae:35:af:68:fe:47:
        0d:5c:a5:f6:45:54:3c:e0:1c:b8:f0:72:7a:f6:0b:f9:d4:4f:
        59:0e:91:b3
-----BEGIN CERTIFICATE-----
MIIDeDCCAmCgAwIBAgIRAOYd7BMxd/Q1n0DQ+oAIq6IwDQYJKoZIhvcNAQELBQAw
FjEUMBIGA1UEAwwLdGVhbTE5NC1uZXQwHhcNMjMxMTA0MTA0NDEwWhcNMjYxMDE5
MTA0NDEwWjAZMRcwFQYDVQQDDA50ZWFtMTk0LXNlcnZlcjCCASIwDQYJKoZIhvcN
AQEBBQADggEPADCCAQoCggEBANCU75MMK0AGX1pJ2eKqSDFLiNt96iD5qCz8gYev
vPgxDG9SSOJhniVxF96yb3Ps/T1/cSkteGEZJleQGSpLDG+7eHDGt2lvN74FbhxG
HiCSwAvsnAYN8321Fwp1oIp+IMJutqR9MlR5v6I3xMGEN//uu4oFNM4wJK5KULHc
tLPAyX9HzD3Za2h+JlL6PKNRjkspD6xFXLl8Pvl9KeLFnXJyzcCmzh/08+NaM/aB
C3P7/itTJpE9UP9OqWRvPjW/QRbX/KzMgUlm0Yhds4AYPFiCnlc43l53Nouanb5a
zH7gNNSF06s5WRvBCDLcyR+W27bWv7cXlryncj6vXISai7sCAwEAAaOBvTCBujAJ
BgNVHRMEAjAAMB0GA1UdDgQWBBS4MSwsPqT350iHWgW4InO9LLjcgDBRBgNVHSME
SjBIgBShLd9lhjLvaZDMg75QU0yXUDkjN6EapBgwFjEUMBIGA1UEAwwLdGVhbTE5
NC1uZXSCFDza8boj3xadblf6n5y/gpqTYdIkMBMGA1UdJQQMMAoGCCsGAQUFBwMB
MAsGA1UdDwQEAwIFoDAZBgNVHREEEjAQgg50ZWFtMTk0LXNlcnZlcjANBgkqhkiG
9w0BAQsFAAOCAQEAd/A0d3d0z5KkMR6W6xIHYmFHck+uk9e8TikYyBMlYUECb6DY
BVRVeI+L7/5JLJMMRWjW38R9lVe6iHeAibXhssbqFcdjn0sXLzVVynM+FzFPpbR4
qbZvAdcQfgFc9dGwmhHItDZnUbIgbycpm8mM+WVbrKNAnSeNAHebnx14kvrY9tAK
3lF6cImjrSH5Ho77eaRR+IGOEAsoYviXEQpG/4zvDZHwFaI0rlq75lhHIfUp46ce
S18WV8ZHsa7aBE/14dAKGp71/VyQOI0VdEEuXGOjFHPzzeEUKIcX8yO9GX1xAkto
rjWvaP5HDVyl9kVUPOAcuPByevYL+dRPWQ6Rsw==
-----END CERTIFICATE-----
