Certificate:
    Data:
        Version: 3 (0x2)
        Serial Number:
            11:1b:35:62:62:e5:3a:c6:ed:d0:42:09:9c:e6:93:55
        Signature Algorithm: sha256WithRSAEncryption
        Issuer: CN=team86-net
        Validity
            Not Before: Nov  4 11:29:02 2023 GMT
            Not After : Oct 19 11:29:02 2026 GMT
        Subject: CN=team86-client
        Subject Public Key Info:
            Public Key Algorithm: rsaEncryption
                Public-Key: (2048 bit)
                Modulus:
                    00:c1:47:39:05:c8:d5:30:dc:7c:49:99:6b:c5:df:
                    52:ae:49:50:8d:80:4c:9c:6f:ca:da:cd:e9:36:e2:
                    43:c0:be:40:1b:90:ea:40:0f:fc:2f:10:81:94:e5:
                    4a:ec:66:12:da:81:77:6b:a3:9f:e9:7c:f5:d2:ab:
                    33:e4:aa:9a:85:b0:2b:47:b3:51:c3:52:c8:e4:a4:
                    78:4b:b3:d8:42:f6:4a:90:aa:24:80:a6:dc:3c:46:
                    a8:98:ea:7a:33:66:ff:c9:4a:23:ab:32:5b:07:44:
                    28:10:34:91:8d:c1:6d:81:78:ed:72:72:55:b7:3c:
                    a1:cd:9e:a7:58:30:15:56:db:46:fc:f2:48:28:57:
                    b7:ed:15:9a:4a:c4:cf:d6:cd:08:0c:3f:ea:9c:94:
                    86:3d:a5:f5:56:07:1d:28:1d:dd:4b:66:20:f0:d9:
                    ef:e6:68:06:09:a5:38:64:08:d8:bf:09:7c:20:7e:
                    5d:3b:21:4e:8b:19:31:90:8c:20:2c:e2:a9:de:c3:
                    2e:bd:01:66:9c:35:ca:00:9f:92:48:8b:60:1a:f5:
                    d0:73:02:c2:2e:3c:2c:29:d1:db:19:ac:fa:d3:41:
                    e3:d4:ec:db:06:ab:6f:a2:d5:95:67:ec:ec:69:e9:
                    8d:e1:b6:44:6a:30:02:46:4f:e5:1a:59:85:fd:42:
                    eb:f3
                Exponent: 65537 (0x10001)
        X509v3 extensions:
            X509v3 Basic Constraints: 
                CA:FALSE
            X509v3 Subject Key Identifier: 
                15:62:15:41:72:CB:86:6D:31:CA:26:85:04:2C:D0:DE:1F:BA:09:E1
            X509v3 Authority Key Identifier: 
                keyid:E5:FA:0C:F8:A1:D0:38:01:F6:D3:A1:69:59:10:9F:A8:E6:EB:19:EA
                DirName:/CN=team86-net
                serial:1D:F4:46:15:C3:D2:75:65:FC:DC:E8:38:B6:2C:EC:A2:1F:B4:FA:63
            X509v3 Extended Key Usage: 
                TLS Web Client Authentication
            X509v3 Key Usage: 
                Digital Signature
    Signature Algorithm: sha256WithRSAEncryption
    Signature Value:
        66:43:6b:23:db:5d:5f:5b:45:a9:6d:77:3d:f1:7b:21:57:b6:
        0d:8f:7c:28:1e:5e:4d:47:6e:3d:16:4a:cb:73:cb:a1:ba:93:
        3f:8d:04:23:f9:5b:c1:57:cd:b9:c0:a8:0e:4a:5a:db:bd:0a:
        42:58:bd:57:04:29:14:5f:52:2f:bf:bc:b3:c1:5f:76:8d:91:
        bb:65:bc:02:89:cc:ab:d4:ab:bb:89:2d:03:8c:ad:f2:47:a0:
        88:89:dd:29:ea:47:fe:d9:77:ba:56:4d:e4:5c:de:88:10:35:
        98:25:39:bc:20:89:d6:12:35:dd:12:e3:6b:61:fd:0d:04:62:
        7e:54:78:c1:9b:be:fd:20:ca:78:d4:9a:28:71:7d:fc:94:0d:
        ff:7b:e8:99:70:f1:2c:da:59:c0:0d:9b:f1:ae:d3:da:cb:61:
        2f:9f:65:fc:ea:41:1a:83:03:62:c4:49:30:b2:36:dc:66:b4:
        7b:98:4e:7e:a4:8e:22:12:ab:e5:c1:23:90:16:6c:92:97:f4:
        c8:44:d2:33:8e:39:bf:e6:d3:2f:34:0d:38:29:ad:4b:cf:e5:
        27:26:53:bd:9c:e0:3f:d3:75:4c:93:7e:fd:b7:a1:17:04:af:
        fa:eb:44:f6:b1:f8:94:85:4e:cf:4e:6a:cf:22:f0:32:82:f8:
        00:8d:30:fd
-----BEGIN CERTIFICATE-----
MIIDWTCCAkGgAwIBAgIQERs1YmLlOsbt0EIJnOaTVTANBgkqhkiG9w0BAQsFADAV
MRMwEQYDVQQDDAp0ZWFtODYtbmV0MB4XDTIzMTEwNDExMjkwMloXDTI2MTAxOTEx
MjkwMlowGDEWMBQGA1UEAwwNdGVhbTg2LWNsaWVudDCCASIwDQYJKoZIhvcNAQEB
BQADggEPADCCAQoCggEBAMFHOQXI1TDcfEmZa8XfUq5JUI2ATJxvytrN6TbiQ8C+
QBuQ6kAP/C8QgZTlSuxmEtqBd2ujn+l89dKrM+SqmoWwK0ezUcNSyOSkeEuz2EL2
SpCqJICm3DxGqJjqejNm/8lKI6syWwdEKBA0kY3BbYF47XJyVbc8oc2ep1gwFVbb
RvzySChXt+0VmkrEz9bNCAw/6pyUhj2l9VYHHSgd3UtmIPDZ7+ZoBgmlOGQI2L8J
fCB+XTshTosZMZCMICziqd7DLr0BZpw1ygCfkkiLYBr10HMCwi48LCnR2xms+tNB
49Ts2warb6LVlWfs7GnpjeG2RGowAkZP5RpZhf1C6/MCAwEAAaOBoTCBnjAJBgNV
HRMEAjAAMB0GA1UdDgQWBBQVYhVBcsuGbTHKJoUELNDeH7oJ4TBQBgNVHSMESTBH
gBTl+gz4odA4AfbToWlZEJ+o5usZ6qEZpBcwFTETMBEGA1UEAwwKdGVhbTg2LW5l
dIIUHfRGFcPSdWX83Og4tizsoh+0+mMwEwYDVR0lBAwwCgYIKwYBBQUHAwIwCwYD
VR0PBAQDAgeAMA0GCSqGSIb3DQEBCwUAA4IBAQBmQ2sj211fW0WpbXc98XshV7YN
j3woHl5NR249FkrLc8uhupM/jQQj+VvBV825wKgOSlrbvQpCWL1XBCkUX1Ivv7yz
wV92jZG7ZbwCicyr1Ku7iS0DjK3yR6CIid0p6kf+2Xe6Vk3kXN6IEDWYJTm8IInW
EjXdEuNrYf0NBGJ+VHjBm779IMp41JoocX38lA3/e+iZcPEs2lnADZvxrtPay2Ev
n2X86kEagwNixEkwsjbcZrR7mE5+pI4iEqvlwSOQFmySl/TIRNIzjjm/5tMvNA04
Ka1Lz+UnJlO9nOA/03VMk379t6EXBK/660T2sfiUhU7PTmrPIvAygvgAjTD9
-----END CERTIFICATE-----
