Certificate:
    Data:
        Version: 3 (0x2)
        Serial Number:
            69:01:5d:7c:d5:fe:cd:ec:4d:1a:6d:bd:4c:59:fa:09
        Signature Algorithm: sha256WithRSAEncryption
        Issuer: CN=team86-net
        Validity
            Not Before: Nov  4 10:42:00 2023 GMT
            Not After : Oct 19 10:42:00 2026 GMT
        Subject: CN=team86-client
        Subject Public Key Info:
            Public Key Algorithm: rsaEncryption
                Public-Key: (2048 bit)
                Modulus:
                    00:c2:98:65:5b:fc:e9:1e:a1:70:bf:6f:fb:9c:1e:
                    d6:8e:93:23:fe:4f:57:e2:87:44:7e:80:b2:39:57:
                    d3:00:c7:58:5c:06:fd:71:93:57:60:a1:4b:ac:14:
                    7f:6a:2e:33:4a:06:a1:96:5a:ea:ee:11:bc:4d:40:
                    ee:97:08:36:8f:9f:d9:b6:6c:df:e8:35:b0:05:14:
                    2b:dd:2b:90:6e:c1:d3:a8:d8:f4:56:1c:3e:ca:d5:
                    3b:77:b5:1d:55:d4:00:8b:50:a5:89:25:7d:5c:db:
                    bb:06:b8:0a:f2:f2:6f:9e:a2:a9:dd:24:43:b7:bb:
                    ff:53:70:0d:4f:82:3b:b5:22:8a:bb:53:84:2b:c1:
                    a1:1d:8e:25:8d:b0:4e:ee:fa:08:9e:35:5f:a7:24:
                    4f:57:3a:a1:c0:57:f2:33:ca:39:a2:3a:14:e6:e2:
                    84:7f:c0:63:90:3f:5a:f3:b3:5a:f5:39:57:2f:a0:
                    07:2c:f8:d5:0e:f9:d5:78:90:57:05:a6:35:ba:46:
                    52:d5:89:f4:16:ca:e7:3c:b9:cf:ad:b0:ac:11:53:
                    3c:06:9d:4e:55:51:b1:b8:8e:5a:ec:56:c7:65:9a:
                    67:2e:bf:8b:09:84:14:db:14:59:4c:1e:64:ed:88:
                    11:a3:c9:ba:0f:25:25:64:0f:81:64:ba:75:3b:ca:
                    5d:b1
                Exponent: 65537 (0x10001)
        X509v3 extensions:
            X509v3 Basic Constraints: 
                CA:FALSE
            X509v3 Subject Key Identifier: 
                38:7A:7C:F4:33:D9:E6:55:12:21:B7:F8:5E:2E:B5:5A:05:65:E0:67
            X509v3 Authority Key Identifier: 
                keyid:42:89:B9:2F:D6:B8:3F:39:77:9A:C8:4B:CE:40:1B:FE:2A:81:6B:AB
                DirName:/CN=team86-net
                serial:38:B5:65:A6:5C:14:69:7C:58:13:FF:C0:5A:36:71:B4:36:20:97:E3
            X509v3 Extended Key Usage: 
                TLS Web Client Authentication
            X509v3 Key Usage: 
                Digital Signature
    Signature Algorithm: sha256WithRSAEncryption
    Signature Value:
        48:f0:02:55:6d:05:48:1a:71:cb:b5:8f:b3:a8:4b:46:1a:4a:
        6c:9d:74:be:a3:db:56:32:f8:ec:f3:9a:3e:6f:19:4c:e4:e8:
        fc:a4:1b:e3:87:ce:8e:0a:47:75:76:04:e8:32:b1:ee:5b:38:
        18:33:72:0e:eb:48:20:4f:af:db:6b:5b:6c:e9:e8:ce:8e:43:
        ff:8c:5e:4a:1b:a9:8a:d1:5f:60:59:06:3c:af:53:8b:df:4e:
        4b:c8:39:df:04:3f:c8:2d:c5:f5:3d:b0:1d:77:0e:c7:df:43:
        67:ee:9a:c8:c0:4b:9e:0d:95:5c:2b:8a:b6:62:04:63:b9:6f:
        ce:52:6f:66:8d:f9:72:94:d9:fd:cb:d6:a3:aa:25:46:f1:3a:
        a8:6f:14:ee:4c:f3:76:40:58:1f:a8:99:fd:fd:f4:60:3b:2d:
        f8:18:28:68:73:d0:f9:b7:d4:a2:02:41:f9:52:97:90:6d:6f:
        0b:f5:19:c2:dd:e0:42:08:8c:c7:63:03:c6:81:0c:db:02:c8:
        32:86:ea:0c:16:14:bc:65:31:5e:1c:96:ed:30:98:d3:96:30:
        34:38:e2:20:77:d9:13:49:ad:58:4e:97:6f:fd:d7:39:dd:27:
        bf:39:a5:56:67:20:b2:58:61:da:2e:c0:49:32:0d:b7:98:c8:
        53:c2:0a:14
-----BEGIN CERTIFICATE-----
MIIDWTCCAkGgAwIBAgIQaQFdfNX+zexNGm29TFn6CTANBgkqhkiG9w0BAQsFADAV
MRMwEQYDVQQDDAp0ZWFtODYtbmV0MB4XDTIzMTEwNDEwNDIwMFoXDTI2MTAxOTEw
NDIwMFowGDEWMBQGA1UEAwwNdGVhbTg2LWNsaWVudDCCASIwDQYJKoZIhvcNAQEB
BQADggEPADCCAQoCggEBAMKYZVv86R6hcL9v+5we1o6TI/5PV+KHRH6AsjlX0wDH
WFwG/XGTV2ChS6wUf2ouM0oGoZZa6u4RvE1A7pcINo+f2bZs3+g1sAUUK90rkG7B
06jY9FYcPsrVO3e1HVXUAItQpYklfVzbuwa4CvLyb56iqd0kQ7e7/1NwDU+CO7Ui
irtThCvBoR2OJY2wTu76CJ41X6ckT1c6ocBX8jPKOaI6FObihH/AY5A/WvOzWvU5
Vy+gByz41Q751XiQVwWmNbpGUtWJ9BbK5zy5z62wrBFTPAadTlVRsbiOWuxWx2Wa
Zy6/iwmEFNsUWUweZO2IEaPJug8lJWQPgWS6dTvKXbECAwEAAaOBoTCBnjAJBgNV
HRMEAjAAMB0GA1UdDgQWBBQ4enz0M9nmVRIht/heLrVaBWXgZzBQBgNVHSMESTBH
gBRCibkv1rg/OXeayEvOQBv+KoFrq6EZpBcwFTETMBEGA1UEAwwKdGVhbTg2LW5l
dIIUOLVlplwUaXxYE//AWjZxtDYgl+MwEwYDVR0lBAwwCgYIKwYBBQUHAwIwCwYD
VR0PBAQDAgeAMA0GCSqGSIb3DQEBCwUAA4IBAQBI8AJVbQVIGnHLtY+zqEtGGkps
nXS+o9tWMvjs85o+bxlM5Oj8pBvjh86OCkd1dgToMrHuWzgYM3IO60ggT6/ba1ts
6ejOjkP/jF5KG6mK0V9gWQY8r1OL305LyDnfBD/ILcX1PbAddw7H30Nn7prIwEue
DZVcK4q2YgRjuW/OUm9mjflylNn9y9ajqiVG8TqobxTuTPN2QFgfqJn9/fRgOy34
GChoc9D5t9SiAkH5UpeQbW8L9RnC3eBCCIzHYwPGgQzbAsgyhuoMFhS8ZTFeHJbt
MJjTljA0OOIgd9kTSa1YTpdv/dc53Se/OaVWZyCyWGHaLsBJMg23mMhTwgoU
-----END CERTIFICATE-----
