Certificate:
    Data:
        Version: 3 (0x2)
        Serial Number:
            15:42:4c:76:cd:8b:d2:a7:cb:b6:20:cf:80:f9:47:f5
        Signature Algorithm: sha256WithRSAEncryption
        Issuer: CN=team14-net
        Validity
            Not Before: Nov  4 11:27:38 2023 GMT
            Not After : Oct 19 11:27:38 2026 GMT
        Subject: CN=team14-client
        Subject Public Key Info:
            Public Key Algorithm: rsaEncryption
                Public-Key: (2048 bit)
                Modulus:
                    00:c1:92:d5:de:4e:29:e6:70:a6:01:06:00:32:be:
                    42:4a:ef:cd:c9:55:7b:fc:f0:bd:f6:e8:3d:c8:54:
                    dd:d5:7c:96:32:a1:13:b7:21:83:10:7f:d4:c8:f5:
                    36:c5:b9:df:6c:00:83:16:59:08:63:58:ce:c6:b4:
                    41:57:7d:b9:a6:6a:8b:a3:bb:b3:70:b7:6e:72:c2:
                    a1:6a:6f:06:2f:3e:54:5c:9a:40:7b:6d:2d:34:ed:
                    58:d2:ff:9c:cc:7b:61:98:c7:a9:f4:c6:24:25:cc:
                    a4:5b:0e:2b:6d:a8:32:d4:85:f8:cf:53:12:09:3a:
                    40:27:67:79:91:f5:24:43:57:d3:3f:0e:94:7e:74:
                    6d:9b:21:2a:2d:ef:e4:5a:78:ac:e4:e5:c0:56:4a:
                    61:d1:03:f8:06:8d:15:07:3a:c8:19:76:b0:02:56:
                    ea:cf:22:2b:70:15:ab:ac:1d:81:ce:d5:b0:ca:c9:
                    0e:92:95:5d:99:a3:a4:3c:a3:d6:e8:7a:40:9a:10:
                    69:eb:c1:73:5b:ce:32:fd:68:b8:d4:ab:20:e2:5b:
                    20:38:37:f9:d7:05:74:e4:cc:44:06:d8:19:ee:5a:
                    e4:de:dc:c4:ae:90:78:d2:77:f7:0f:6d:d4:5d:f3:
                    eb:34:cf:a8:dd:47:5a:fb:e6:a7:83:4b:83:4c:1e:
                    b0:c9
                Exponent: 65537 (0x10001)
        X509v3 extensions:
            X509v3 Basic Constraints: 
                CA:FALSE
            X509v3 Subject Key Identifier: 
                A2:78:F7:29:BC:A7:C3:84:5C:C9:78:2B:5C:14:A8:2A:A9:CC:03:A0
            X509v3 Authority Key Identifier: 
                keyid:72:64:AA:E5:F2:37:CD:30:F9:F4:FA:2B:27:AE:6E:20:F4:8A:89:06
                DirName:/CN=team14-net
                serial:66:FC:D9:E3:F4:18:6A:C7:65:69:26:55:33:CD:EB:41:83:81:4D:0B
            X509v3 Extended Key Usage: 
                TLS Web Client Authentication
            X509v3 Key Usage: 
                Digital Signature
    Signature Algorithm: sha256WithRSAEncryption
    Signature Value:
        57:ab:6d:5f:ad:40:96:fb:39:24:8b:b4:85:8a:f3:6a:79:5a:
        aa:73:15:f1:f6:b9:a3:54:51:69:11:fe:a0:c9:8a:f2:9a:4c:
        f7:0a:bb:e7:b3:d4:96:0e:bb:98:7d:3c:49:20:00:d2:45:03:
        58:01:1b:f3:dc:3f:d5:79:50:05:22:7b:e2:4f:e4:42:00:c9:
        f8:8c:78:fc:c4:0a:d1:84:1c:cc:3c:63:c5:ae:2c:c2:28:a7:
        43:23:79:ac:ca:f2:6f:35:cb:7f:38:7d:bc:69:1c:f8:50:d7:
        2e:cc:a1:d0:a7:75:9b:1f:38:63:04:fb:7f:af:1b:d9:cb:a9:
        fa:82:09:a5:b6:47:aa:b5:32:a1:ee:7b:5f:5e:4d:4f:ab:de:
        f2:d9:a5:b9:e4:26:42:78:8a:f1:22:3a:70:d2:eb:12:bf:93:
        d9:0a:36:c7:aa:12:ea:b5:97:62:cc:4c:21:73:56:96:ba:b0:
        f2:cb:a0:48:09:3c:fa:64:d2:58:ba:0e:23:17:3b:be:96:a1:
        78:72:fa:ca:36:3a:37:10:c0:9c:b2:23:f5:fb:d3:65:a2:f1:
        c3:17:fd:d0:dd:7f:5c:30:75:8d:e8:c3:7e:3f:8f:be:ff:79:
        60:66:44:10:9f:d9:bc:03:e9:63:0f:7a:fc:ab:f4:ef:70:4d:
        13:49:29:b0
-----BEGIN CERTIFICATE-----
MIIDWTCCAkGgAwIBAgIQFUJMds2L0qfLtiDPgPlH9TANBgkqhkiG9w0BAQsFADAV
MRMwEQYDVQQDDAp0ZWFtMTQtbmV0MB4XDTIzMTEwNDExMjczOFoXDTI2MTAxOTEx
MjczOFowGDEWMBQGA1UEAwwNdGVhbTE0LWNsaWVudDCCASIwDQYJKoZIhvcNAQEB
BQADggEPADCCAQoCggEBAMGS1d5OKeZwpgEGADK+QkrvzclVe/zwvfboPchU3dV8
ljKhE7chgxB/1Mj1NsW532wAgxZZCGNYzsa0QVd9uaZqi6O7s3C3bnLCoWpvBi8+
VFyaQHttLTTtWNL/nMx7YZjHqfTGJCXMpFsOK22oMtSF+M9TEgk6QCdneZH1JENX
0z8OlH50bZshKi3v5Fp4rOTlwFZKYdED+AaNFQc6yBl2sAJW6s8iK3AVq6wdgc7V
sMrJDpKVXZmjpDyj1uh6QJoQaevBc1vOMv1ouNSrIOJbIDg3+dcFdOTMRAbYGe5a
5N7cxK6QeNJ39w9t1F3z6zTPqN1HWvvmp4NLg0wesMkCAwEAAaOBoTCBnjAJBgNV
HRMEAjAAMB0GA1UdDgQWBBSiePcpvKfDhFzJeCtcFKgqqcwDoDBQBgNVHSMESTBH
gBRyZKrl8jfNMPn0+isnrm4g9IqJBqEZpBcwFTETMBEGA1UEAwwKdGVhbTE0LW5l
dIIUZvzZ4/QYasdlaSZVM83rQYOBTQswEwYDVR0lBAwwCgYIKwYBBQUHAwIwCwYD
VR0PBAQDAgeAMA0GCSqGSIb3DQEBCwUAA4IBAQBXq21frUCW+zkki7SFivNqeVqq
cxXx9rmjVFFpEf6gyYrymkz3Crvns9SWDruYfTxJIADSRQNYARvz3D/VeVAFInvi
T+RCAMn4jHj8xArRhBzMPGPFrizCKKdDI3msyvJvNct/OH28aRz4UNcuzKHQp3Wb
HzhjBPt/rxvZy6n6ggmltkeqtTKh7ntfXk1Pq97y2aW55CZCeIrxIjpw0usSv5PZ
CjbHqhLqtZdizEwhc1aWurDyy6BICTz6ZNJYug4jFzu+lqF4cvrKNjo3EMCcsiP1
+9NlovHDF/3Q3X9cMHWN6MN+P4++/3lgZkQQn9m8A+ljD3r8q/TvcE0TSSmw
-----END CERTIFICATE-----
