Certificate:
    Data:
        Version: 3 (0x2)
        Serial Number:
            18:5a:25:a6:98:2e:5e:6c:44:5c:a2:f2:0b:cb:3e:24
        Signature Algorithm: sha256WithRSAEncryption
        Issuer: CN=team14-net
        Validity
            Not Before: Nov  3 20:39:32 2023 GMT
            Not After : Oct 18 20:39:32 2026 GMT
        Subject: CN=team14-client
        Subject Public Key Info:
            Public Key Algorithm: rsaEncryption
                Public-Key: (2048 bit)
                Modulus:
                    00:a8:dd:97:79:cd:bc:0f:14:67:0c:19:b8:2f:c2:
                    94:00:7e:6a:7d:38:dd:ed:44:47:4e:29:9d:ae:a9:
                    f9:c6:1c:b0:20:01:4e:88:5c:f5:bc:94:02:9c:8f:
                    bb:72:ab:44:b4:88:3f:48:02:63:1b:43:df:a8:2c:
                    e3:c4:2c:76:f9:f5:60:07:dc:16:21:f9:35:6d:3f:
                    29:8a:99:69:b5:b1:b8:f5:8b:76:75:4c:35:a2:ac:
                    54:4c:e4:e7:1d:65:73:69:83:c5:e4:15:27:94:25:
                    5b:fd:6d:93:26:0f:0a:63:0c:1a:c4:44:be:d0:73:
                    0a:8d:de:d3:24:29:75:7e:83:a1:6f:fd:b5:ed:6f:
                    69:d4:67:97:53:db:d9:37:99:7e:31:da:65:7b:7c:
                    ab:fc:78:d9:8e:1d:54:c5:23:c0:fd:68:c7:14:84:
                    a4:03:db:04:d9:99:1b:5c:f2:6a:55:b3:c0:62:41:
                    87:85:96:a8:ec:5f:ed:df:c0:aa:db:e1:d7:31:ea:
                    ae:23:7b:69:f9:c9:76:8f:5c:19:7e:85:3c:28:09:
                    16:54:9a:ae:68:73:cb:b0:28:d8:84:85:cf:aa:7b:
                    15:c9:5b:59:b2:1e:0c:67:49:25:55:aa:12:fb:24:
                    0f:ad:b8:d0:7b:d1:ae:98:c3:fa:b6:e9:8d:77:c5:
                    2b:1b
                Exponent: 65537 (0x10001)
        X509v3 extensions:
            X509v3 Basic Constraints: 
                CA:FALSE
            X509v3 Subject Key Identifier: 
                8A:62:81:23:20:04:83:D2:40:4E:D2:3F:98:31:72:63:CB:AC:34:38
            X509v3 Authority Key Identifier: 
                keyid:C3:5F:04:4A:C2:93:D2:A8:5A:E2:15:FF:04:C9:83:C2:AE:B1:A4:F7
                DirName:/CN=team14-net
                serial:28:46:8A:57:64:C9:38:30:C7:66:54:F4:F4:36:7A:1D:D7:3D:CC:F5
            X509v3 Extended Key Usage: 
                TLS Web Client Authentication
            X509v3 Key Usage: 
                Digital Signature
    Signature Algorithm: sha256WithRSAEncryption
    Signature Value:
        28:f5:94:5e:fe:c2:67:e1:2b:33:96:51:c6:d1:ff:8d:d8:44:
        23:df:27:ee:40:fe:6e:2f:76:f0:f9:4e:d4:f1:55:22:66:80:
        67:10:5c:f8:27:53:e8:a7:b7:aa:ab:33:a0:02:a0:7e:10:64:
        bf:02:3f:ee:8f:1c:fa:31:82:58:3f:2f:53:4b:a6:11:f0:96:
        ff:9c:d1:03:3d:d6:54:fc:fe:2c:70:a8:3f:a6:69:2a:89:4f:
        9e:aa:48:b9:b9:60:fd:ec:0f:35:6f:09:f5:47:d6:1a:67:3c:
        63:24:10:75:74:11:ab:29:27:7f:8e:5b:9b:4d:45:96:78:d1:
        70:a1:d5:11:03:cd:92:80:d5:70:6b:94:ea:02:cf:03:de:76:
        f2:0a:a8:3a:47:b7:5c:80:97:2c:e9:05:6b:18:ee:3c:03:a0:
        ba:22:c5:d0:b4:93:28:29:8e:ee:5c:f3:ef:33:e5:1d:80:7a:
        82:29:08:96:29:fb:06:1c:b2:85:63:46:c8:81:06:63:6b:e4:
        8a:cc:bc:fc:6d:03:3d:17:bd:c7:a4:ed:10:f5:94:2e:fe:3d:
        01:84:55:ec:15:35:e7:15:b9:ff:d9:06:7c:f2:21:20:0f:f3:
        e0:fd:46:4b:53:a3:79:66:74:5b:45:75:eb:33:42:24:df:d2:
        55:fd:c8:f4
-----BEGIN CERTIFICATE-----
MIIDWTCCAkGgAwIBAgIQGFolppguXmxEXKLyC8s+JDANBgkqhkiG9w0BAQsFADAV
MRMwEQYDVQQDDAp0ZWFtMTQtbmV0MB4XDTIzMTEwMzIwMzkzMloXDTI2MTAxODIw
MzkzMlowGDEWMBQGA1UEAwwNdGVhbTE0LWNsaWVudDCCASIwDQYJKoZIhvcNAQEB
BQADggEPADCCAQoCggEBAKjdl3nNvA8UZwwZuC/ClAB+an043e1ER04pna6p+cYc
sCABTohc9byUApyPu3KrRLSIP0gCYxtD36gs48Qsdvn1YAfcFiH5NW0/KYqZabWx
uPWLdnVMNaKsVEzk5x1lc2mDxeQVJ5QlW/1tkyYPCmMMGsREvtBzCo3e0yQpdX6D
oW/9te1vadRnl1Pb2TeZfjHaZXt8q/x42Y4dVMUjwP1oxxSEpAPbBNmZG1zyalWz
wGJBh4WWqOxf7d/Aqtvh1zHqriN7afnJdo9cGX6FPCgJFlSarmhzy7Ao2ISFz6p7
FclbWbIeDGdJJVWqEvskD6240HvRrpjD+rbpjXfFKxsCAwEAAaOBoTCBnjAJBgNV
HRMEAjAAMB0GA1UdDgQWBBSKYoEjIASD0kBO0j+YMXJjy6w0ODBQBgNVHSMESTBH
gBTDXwRKwpPSqFriFf8EyYPCrrGk96EZpBcwFTETMBEGA1UEAwwKdGVhbTE0LW5l
dIIUKEaKV2TJODDHZlT09DZ6Hdc9zPUwEwYDVR0lBAwwCgYIKwYBBQUHAwIwCwYD
VR0PBAQDAgeAMA0GCSqGSIb3DQEBCwUAA4IBAQAo9ZRe/sJn4SszllHG0f+N2EQj
3yfuQP5uL3bw+U7U8VUiZoBnEFz4J1Pop7eqqzOgAqB+EGS/Aj/ujxz6MYJYPy9T
S6YR8Jb/nNEDPdZU/P4scKg/pmkqiU+eqki5uWD97A81bwn1R9YaZzxjJBB1dBGr
KSd/jlubTUWWeNFwodURA82SgNVwa5TqAs8D3nbyCqg6R7dcgJcs6QVrGO48A6C6
IsXQtJMoKY7uXPPvM+UdgHqCKQiWKfsGHLKFY0bIgQZja+SKzLz8bQM9F73HpO0Q
9ZQu/j0BhFXsFTXnFbn/2QZ88iEgD/Pg/UZLU6N5ZnRbRXXrM0Ik39JV/cj0
-----END CERTIFICATE-----
