Certificate:
    Data:
        Version: 3 (0x2)
        Serial Number:
            28:24:48:06:86:10:fa:91:9e:c6:c0:de:e4:90:cc:65
        Signature Algorithm: sha256WithRSAEncryption
        Issuer: CN=team14-net
        Validity
            Not Before: Oct 31 16:30:25 2023 GMT
            Not After : Oct 15 16:30:25 2026 GMT
        Subject: CN=team14-server
        Subject Public Key Info:
            Public Key Algorithm: rsaEncryption
                Public-Key: (2048 bit)
                Modulus:
                    00:e7:11:bc:28:a9:bd:a1:b9:ef:9e:90:2d:02:b4:
                    c6:0c:c2:ca:13:9b:2e:70:11:64:dc:da:b1:c6:77:
                    a3:17:8e:54:b4:24:fd:50:bd:63:b4:0b:76:27:fb:
                    e0:20:79:ef:bd:c0:b7:8c:74:5f:6c:fe:f3:91:78:
                    91:6c:69:83:99:79:7a:09:6c:59:8f:37:e8:29:df:
                    98:86:dc:3d:c0:77:93:de:50:aa:62:3c:78:21:81:
                    bd:76:00:59:b4:08:ba:0c:97:b0:bd:2e:42:dd:3e:
                    01:37:d3:56:a8:fa:19:82:9b:2d:2e:3b:ec:f0:4d:
                    7d:55:7f:17:5b:c3:a7:3a:30:b7:8c:31:08:8a:64:
                    63:f8:f7:60:9c:30:13:05:d2:0e:e2:81:dc:4c:d7:
                    da:0c:a1:70:72:f0:c2:1c:c5:f7:6c:71:d8:0f:20:
                    73:11:5e:66:47:ea:0b:53:97:b3:c7:84:21:30:8e:
                    99:19:a2:0c:15:b3:45:e6:5b:94:8a:56:2a:46:c2:
                    26:82:eb:6e:28:6f:9d:c5:81:91:dd:10:e9:d7:91:
                    a3:50:f3:7c:57:08:8e:db:23:ee:4e:56:b9:6f:11:
                    15:62:6a:9f:d8:ad:5a:de:aa:46:e9:1c:f2:ae:26:
                    98:66:52:e2:76:7d:23:bb:25:96:41:0f:27:2b:e1:
                    b6:bb
                Exponent: 65537 (0x10001)
        X509v3 extensions:
            X509v3 Basic Constraints: 
                CA:FALSE
            X509v3 Subject Key Identifier: 
                B7:AC:A8:67:C1:D7:BB:C2:80:C6:55:41:F7:4B:B8:93:D8:F6:10:A1
            X509v3 Authority Key Identifier: 
                keyid:07:55:E6:F0:70:C9:71:8C:0A:4E:16:DE:3E:B4:CA:49:02:95:74:E4
                DirName:/CN=team14-net
                serial:0A:4D:9D:FD:34:B9:3B:74:55:4C:65:81:0A:4F:2F:03:E6:B2:60:64
            X509v3 Extended Key Usage: 
                TLS Web Server Authentication
            X509v3 Key Usage: 
                Digital Signature, Key Encipherment
            X509v3 Subject Alternative Name: 
                DNS:team14-server
    Signature Algorithm: sha256WithRSAEncryption
    Signature Value:
        3c:4b:6e:01:7f:5a:a5:f8:c2:fa:a8:10:8b:62:78:f5:1b:c5:
        ca:94:a6:13:61:00:ad:d8:a6:25:71:2a:23:55:5f:e7:7b:28:
        6a:09:45:23:6e:63:a8:9a:c1:4c:e2:bb:fe:ec:2c:ca:6f:67:
        2f:ce:a9:bb:53:1a:09:a3:23:d3:62:13:97:12:6a:a5:ae:4f:
        d5:39:f7:57:95:43:16:45:0a:54:b0:85:5e:58:72:f8:7b:32:
        c9:9e:c5:3a:d4:be:bd:c3:6c:32:b2:db:49:82:b1:3d:d6:cf:
        71:ea:d0:25:2f:bc:10:c0:46:1a:e7:40:03:31:95:04:c0:a2:
        19:a7:51:e5:19:7a:85:a1:16:5b:4f:66:54:ad:bf:cd:bc:62:
        0d:d5:b2:ae:d4:cb:d9:f3:b7:ac:17:bf:2b:42:58:29:fb:39:
        33:ba:5e:ea:f0:27:48:55:1a:e1:20:22:36:4d:35:43:c7:87:
        f7:19:64:c2:6b:cb:04:20:33:4b:87:62:9b:2c:8e:da:3d:8a:
        30:2f:34:00:8b:ab:2d:9d:0c:f8:60:d6:53:c5:95:cd:0c:ad:
        11:19:3b:39:1f:31:a7:8d:b1:5d:8d:4d:16:4d:ac:32:00:fb:
        bd:53:c5:1e:96:b9:48:72:59:dc:9e:39:b3:15:cb:b2:5b:ff:
        91:82:fa:9f
-----BEGIN CERTIFICATE-----
MIIDczCCAlugAwIBAgIQKCRIBoYQ+pGexsDe5JDMZTANBgkqhkiG9w0BAQsFADAV
MRMwEQYDVQQDDAp0ZWFtMTQtbmV0MB4XDTIzMTAzMTE2MzAyNVoXDTI2MTAxNTE2
MzAyNVowGDEWMBQGA1UEAwwNdGVhbTE0LXNlcnZlcjCCASIwDQYJKoZIhvcNAQEB
BQADggEPADCCAQoCggEBAOcRvCipvaG5756QLQK0xgzCyhObLnARZNzascZ3oxeO
VLQk/VC9Y7QLdif74CB5773At4x0X2z+85F4kWxpg5l5eglsWY836CnfmIbcPcB3
k95QqmI8eCGBvXYAWbQIugyXsL0uQt0+ATfTVqj6GYKbLS477PBNfVV/F1vDpzow
t4wxCIpkY/j3YJwwEwXSDuKB3EzX2gyhcHLwwhzF92xx2A8gcxFeZkfqC1OXs8eE
ITCOmRmiDBWzReZblIpWKkbCJoLrbihvncWBkd0Q6deRo1DzfFcIjtsj7k5WuW8R
FWJqn9itWt6qRukc8q4mmGZS4nZ9I7sllkEPJyvhtrsCAwEAAaOBuzCBuDAJBgNV
HRMEAjAAMB0GA1UdDgQWBBS3rKhnwde7woDGVUH3S7iT2PYQoTBQBgNVHSMESTBH
gBQHVebwcMlxjApOFt4+tMpJApV05KEZpBcwFTETMBEGA1UEAwwKdGVhbTE0LW5l
dIIUCk2d/TS5O3RVTGWBCk8vA+ayYGQwEwYDVR0lBAwwCgYIKwYBBQUHAwEwCwYD
VR0PBAQDAgWgMBgGA1UdEQQRMA+CDXRlYW0xNC1zZXJ2ZXIwDQYJKoZIhvcNAQEL
BQADggEBADxLbgF/WqX4wvqoEItiePUbxcqUphNhAK3YpiVxKiNVX+d7KGoJRSNu
Y6iawUziu/7sLMpvZy/OqbtTGgmjI9NiE5cSaqWuT9U591eVQxZFClSwhV5Ycvh7
MsmexTrUvr3DbDKy20mCsT3Wz3Hq0CUvvBDARhrnQAMxlQTAohmnUeUZeoWhFltP
ZlStv828Yg3Vsq7Uy9nzt6wXvytCWCn7OTO6XurwJ0hVGuEgIjZNNUPHh/cZZMJr
ywQgM0uHYpssjto9ijAvNACLqy2dDPhg1lPFlc0MrREZOzkfMaeNsV2NTRZNrDIA
+71TxR6WuUhyWdyeObMVy7Jb/5GC+p8=
-----END CERTIFICATE-----
