Certificate:
    Data:
        Version: 3 (0x2)
        Serial Number:
            47:c2:48:7b:c1:67:06:7b:70:4f:be:71:e2:62:6f:cb
        Signature Algorithm: sha256WithRSAEncryption
        Issuer: CN=team14-net
        Validity
            Not Before: Nov  4 11:27:38 2023 GMT
            Not After : Oct 19 11:27:38 2026 GMT
        Subject: CN=team14-server
        Subject Public Key Info:
            Public Key Algorithm: rsaEncryption
                Public-Key: (2048 bit)
                Modulus:
                    00:d3:07:9b:d4:d0:ff:3a:6b:d3:cf:75:91:61:91:
                    51:b9:e8:cf:62:a9:6b:49:3c:db:2a:7a:d6:11:45:
                    4a:c5:93:b7:d8:a2:1d:a2:bb:02:d4:cc:52:7b:66:
                    98:95:1e:1f:68:05:a0:d9:c5:df:2e:b6:7d:3b:d4:
                    a8:fc:8c:95:d5:f9:37:f8:bb:a3:da:18:4f:70:43:
                    92:02:92:5c:cb:c0:79:96:9c:b3:c6:b5:5a:07:82:
                    7a:35:22:99:90:12:fe:97:5d:cb:9f:5c:c1:a0:bd:
                    10:d7:44:81:5e:8a:58:f0:99:5c:ee:94:92:32:40:
                    d7:24:f4:fd:f1:b7:7e:b2:fb:24:ea:d9:d1:30:0c:
                    29:12:34:38:b2:5e:00:31:85:be:80:0f:e2:6b:87:
                    94:6c:cb:96:6f:09:19:fc:7b:f8:50:2f:cc:c0:6d:
                    a3:3c:ea:15:04:f4:68:7b:ca:e7:68:15:ae:29:62:
                    f0:f8:d7:c9:5f:f5:82:9a:b9:c4:cc:06:b2:37:38:
                    d9:12:ef:8a:48:05:0b:06:83:25:e4:89:5b:d7:54:
                    66:fe:3d:47:5b:8c:6d:e5:aa:5b:c2:4b:f0:c5:4d:
                    eb:63:7a:6e:3a:ef:e4:a7:1e:b4:ca:a2:7c:2d:67:
                    04:a9:a0:68:02:6b:e4:53:78:e0:04:56:a9:f5:42:
                    d1:ff
                Exponent: 65537 (0x10001)
        X509v3 extensions:
            X509v3 Basic Constraints: 
                CA:FALSE
            X509v3 Subject Key Identifier: 
                9D:23:CB:93:45:F1:8E:50:81:78:C1:D5:0F:A4:22:7D:C2:FF:89:5D
            X509v3 Authority Key Identifier: 
                keyid:72:64:AA:E5:F2:37:CD:30:F9:F4:FA:2B:27:AE:6E:20:F4:8A:89:06
                DirName:/CN=team14-net
                serial:66:FC:D9:E3:F4:18:6A:C7:65:69:26:55:33:CD:EB:41:83:81:4D:0B
            X509v3 Extended Key Usage: 
                TLS Web Server Authentication
            X509v3 Key Usage: 
                Digital Signature, Key Encipherment
            X509v3 Subject Alternative Name: 
                DNS:team14-server
    Signature Algorithm: sha256WithRSAEncryption
    Signature Value:
        2a:64:bd:6b:8f:f1:ac:f2:41:6a:3a:c6:0c:d8:65:de:22:e9:
        d9:95:36:32:fe:ba:5d:47:c9:96:69:42:24:bb:c5:82:bc:c5:
        02:98:c1:6a:7d:da:c3:a3:26:3b:e4:52:b3:33:ab:2f:43:a9:
        5d:19:54:09:dd:08:13:76:e1:be:e9:c1:60:f8:26:e3:3d:47:
        51:d8:37:d4:46:ae:fd:70:ea:99:78:05:b2:88:ad:e5:b1:87:
        91:ff:92:f6:7b:a2:ec:19:c3:a8:6d:a3:6c:70:89:89:b3:ed:
        e1:6e:c7:87:37:b7:63:d6:c5:5a:1a:c4:75:6d:c7:e2:bb:b3:
        b2:ee:3d:86:57:5c:1e:ab:94:3b:b4:b7:f4:c6:ba:ba:97:60:
        db:7f:ba:25:4c:e4:b1:94:14:fe:e7:4d:96:8f:75:87:93:b4:
        6d:d0:ec:db:fe:03:c8:fb:c4:27:bd:8c:16:90:ee:f3:80:23:
        80:a7:ce:77:66:55:f4:ad:ed:b9:ef:7f:94:89:ec:32:be:f6:
        90:74:65:15:30:1e:4d:e9:8a:56:6c:22:16:e2:c0:9c:ef:df:
        80:8b:64:75:1b:34:c2:ce:d7:91:0a:7d:b1:32:91:1e:0e:ea:
        25:c5:4c:5e:4d:bf:dd:96:41:8f:d5:af:54:48:58:95:20:aa:
        f9:2d:6f:07
-----BEGIN CERTIFICATE-----
MIIDczCCAlugAwIBAgIQR8JIe8FnBntwT75x4mJvyzANBgkqhkiG9w0BAQsFADAV
MRMwEQYDVQQDDAp0ZWFtMTQtbmV0MB4XDTIzMTEwNDExMjczOFoXDTI2MTAxOTEx
MjczOFowGDEWMBQGA1UEAwwNdGVhbTE0LXNlcnZlcjCCASIwDQYJKoZIhvcNAQEB
BQADggEPADCCAQoCggEBANMHm9TQ/zpr0891kWGRUbnoz2Kpa0k82yp61hFFSsWT
t9iiHaK7AtTMUntmmJUeH2gFoNnF3y62fTvUqPyMldX5N/i7o9oYT3BDkgKSXMvA
eZacs8a1WgeCejUimZAS/pddy59cwaC9ENdEgV6KWPCZXO6UkjJA1yT0/fG3frL7
JOrZ0TAMKRI0OLJeADGFvoAP4muHlGzLlm8JGfx7+FAvzMBtozzqFQT0aHvK52gV
rili8PjXyV/1gpq5xMwGsjc42RLvikgFCwaDJeSJW9dUZv49R1uMbeWqW8JL8MVN
62N6bjrv5KcetMqifC1nBKmgaAJr5FN44ARWqfVC0f8CAwEAAaOBuzCBuDAJBgNV
HRMEAjAAMB0GA1UdDgQWBBSdI8uTRfGOUIF4wdUPpCJ9wv+JXTBQBgNVHSMESTBH
gBRyZKrl8jfNMPn0+isnrm4g9IqJBqEZpBcwFTETMBEGA1UEAwwKdGVhbTE0LW5l
dIIUZvzZ4/QYasdlaSZVM83rQYOBTQswEwYDVR0lBAwwCgYIKwYBBQUHAwEwCwYD
VR0PBAQDAgWgMBgGA1UdEQQRMA+CDXRlYW0xNC1zZXJ2ZXIwDQYJKoZIhvcNAQEL
BQADggEBACpkvWuP8azyQWo6xgzYZd4i6dmVNjL+ul1HyZZpQiS7xYK8xQKYwWp9
2sOjJjvkUrMzqy9DqV0ZVAndCBN24b7pwWD4JuM9R1HYN9RGrv1w6pl4BbKIreWx
h5H/kvZ7ouwZw6hto2xwiYmz7eFux4c3t2PWxVoaxHVtx+K7s7LuPYZXXB6rlDu0
t/TGurqXYNt/uiVM5LGUFP7nTZaPdYeTtG3Q7Nv+A8j7xCe9jBaQ7vOAI4Cnzndm
VfSt7bnvf5SJ7DK+9pB0ZRUwHk3pilZsIhbiwJzv34CLZHUbNMLO15EKfbEykR4O
6iXFTF5Nv92WQY/Vr1RIWJUgqvktbwc=
-----END CERTIFICATE-----
