Certificate:
    Data:
        Version: 3 (0x2)
        Serial Number:
            5b:5e:c8:72:4b:5e:e3:91:86:49:ec:67:bf:70:69:da
        Signature Algorithm: sha256WithRSAEncryption
        Issuer: CN=team14-net
        Validity
            Not Before: Oct 31 16:30:25 2023 GMT
            Not After : Oct 15 16:30:25 2026 GMT
        Subject: CN=team14-client
        Subject Public Key Info:
            Public Key Algorithm: rsaEncryption
                Public-Key: (2048 bit)
                Modulus:
                    00:b8:c3:23:58:64:05:4e:40:e7:fa:a4:d0:0c:c0:
                    a7:7a:85:07:42:c9:3b:3b:77:8a:09:1d:8c:38:b6:
                    88:98:36:a4:40:b9:f6:21:34:5f:98:2f:0d:4c:77:
                    f6:1e:91:9b:bb:dc:21:ca:1f:43:8c:68:dd:38:75:
                    25:06:e9:47:86:72:8d:d7:55:68:c2:83:40:3e:05:
                    0c:5a:6b:35:c4:7d:3a:78:47:2f:e7:0c:52:14:9d:
                    00:e2:de:e8:28:37:b9:57:d3:21:b8:2c:3a:b7:06:
                    02:07:5a:5a:dd:f5:c5:a0:a3:db:d7:47:3a:76:57:
                    e0:77:b1:e5:bb:42:f5:5c:47:14:d9:51:99:90:7d:
                    4c:aa:6d:8c:f4:ca:48:ac:2b:59:38:fa:60:98:ab:
                    09:ea:43:62:b0:80:9f:9d:86:47:93:ee:79:1d:8b:
                    59:d6:d6:fc:b1:8e:89:e1:0f:5d:78:c1:6b:ba:03:
                    4a:d2:2c:3f:85:7c:6b:38:4e:fc:89:3f:09:94:cf:
                    41:c0:d2:27:35:04:fe:19:b1:50:8b:ca:2c:25:1e:
                    c4:80:42:f1:9c:26:3c:60:3f:dd:10:43:40:0b:f3:
                    95:c7:ee:29:b6:0e:75:a6:9c:93:93:ba:b2:e9:4d:
                    71:c5:af:fb:87:17:ab:62:47:16:14:e1:58:8f:17:
                    75:79
                Exponent: 65537 (0x10001)
        X509v3 extensions:
            X509v3 Basic Constraints: 
                CA:FALSE
            X509v3 Subject Key Identifier: 
                DD:C3:F1:D5:93:46:58:59:E7:B2:95:4E:5F:0B:18:B9:1E:AE:BD:8E
            X509v3 Authority Key Identifier: 
                keyid:07:55:E6:F0:70:C9:71:8C:0A:4E:16:DE:3E:B4:CA:49:02:95:74:E4
                DirName:/CN=team14-net
                serial:0A:4D:9D:FD:34:B9:3B:74:55:4C:65:81:0A:4F:2F:03:E6:B2:60:64
            X509v3 Extended Key Usage: 
                TLS Web Client Authentication
            X509v3 Key Usage: 
                Digital Signature
    Signature Algorithm: sha256WithRSAEncryption
    Signature Value:
        71:6f:59:89:74:e8:fa:bc:46:b5:99:d3:f1:b8:77:49:eb:cd:
        f8:2a:b6:49:7e:94:18:29:4d:19:ea:61:e5:33:bf:69:2c:71:
        da:5b:4d:ed:18:a9:f3:4c:5c:84:26:9b:eb:f5:08:0c:75:78:
        8f:39:d8:6f:99:e2:e4:d8:9f:5c:71:e9:a4:cd:b8:df:69:e9:
        62:27:91:f5:eb:7e:29:72:6a:5a:07:ba:fc:23:ad:62:ce:f2:
        1f:7a:c0:62:d7:2d:18:3a:bc:4d:d8:a0:65:19:8f:db:20:1a:
        8f:53:68:1f:a6:ac:42:3a:d8:07:9e:6f:72:3b:80:dc:89:36:
        91:09:bc:87:e3:1e:70:67:c7:c0:f4:21:da:17:87:ee:96:3d:
        81:d8:06:23:00:92:69:e2:ad:30:e3:59:7f:70:90:88:6e:80:
        1b:d2:e0:13:e3:1f:89:c8:ae:a4:ae:8a:43:71:eb:f4:96:f5:
        4e:00:7b:90:67:1b:49:f7:c7:04:d0:7c:0b:6e:5e:7d:c9:b2:
        64:09:5d:41:3f:c3:a5:bc:3a:95:02:3b:b2:a0:88:f5:44:30:
        31:ef:ce:9f:8b:7e:3f:61:64:e8:e0:f2:a4:60:23:97:50:76:
        cc:81:9f:ed:b4:77:23:c1:88:3f:05:41:00:e2:ce:c9:23:66:
        9c:48:01:09
-----BEGIN CERTIFICATE-----
MIIDWTCCAkGgAwIBAgIQW17Ickte45GGSexnv3Bp2jANBgkqhkiG9w0BAQsFADAV
MRMwEQYDVQQDDAp0ZWFtMTQtbmV0MB4XDTIzMTAzMTE2MzAyNVoXDTI2MTAxNTE2
MzAyNVowGDEWMBQGA1UEAwwNdGVhbTE0LWNsaWVudDCCASIwDQYJKoZIhvcNAQEB
BQADggEPADCCAQoCggEBALjDI1hkBU5A5/qk0AzAp3qFB0LJOzt3igkdjDi2iJg2
pEC59iE0X5gvDUx39h6Rm7vcIcofQ4xo3Th1JQbpR4ZyjddVaMKDQD4FDFprNcR9
OnhHL+cMUhSdAOLe6Cg3uVfTIbgsOrcGAgdaWt31xaCj29dHOnZX4Hex5btC9VxH
FNlRmZB9TKptjPTKSKwrWTj6YJirCepDYrCAn52GR5PueR2LWdbW/LGOieEPXXjB
a7oDStIsP4V8azhO/Ik/CZTPQcDSJzUE/hmxUIvKLCUexIBC8ZwmPGA/3RBDQAvz
lcfuKbYOdaack5O6sulNccWv+4cXq2JHFhThWI8XdXkCAwEAAaOBoTCBnjAJBgNV
HRMEAjAAMB0GA1UdDgQWBBTdw/HVk0ZYWeeylU5fCxi5Hq69jjBQBgNVHSMESTBH
gBQHVebwcMlxjApOFt4+tMpJApV05KEZpBcwFTETMBEGA1UEAwwKdGVhbTE0LW5l
dIIUCk2d/TS5O3RVTGWBCk8vA+ayYGQwEwYDVR0lBAwwCgYIKwYBBQUHAwIwCwYD
VR0PBAQDAgeAMA0GCSqGSIb3DQEBCwUAA4IBAQBxb1mJdOj6vEa1mdPxuHdJ6834
KrZJfpQYKU0Z6mHlM79pLHHaW03tGKnzTFyEJpvr9QgMdXiPOdhvmeLk2J9ccemk
zbjfaeliJ5H1634pcmpaB7r8I61izvIfesBi1y0YOrxN2KBlGY/bIBqPU2gfpqxC
OtgHnm9yO4DciTaRCbyH4x5wZ8fA9CHaF4fulj2B2AYjAJJp4q0w41l/cJCIboAb
0uAT4x+JyK6kropDcev0lvVOAHuQZxtJ98cE0HwLbl59ybJkCV1BP8OlvDqVAjuy
oIj1RDAx786fi34/YWTo4PKkYCOXUHbMgZ/ttHcjwYg/BUEA4s7JI2acSAEJ
-----END CERTIFICATE-----
