Certificate:
    Data:
        Version: 3 (0x2)
        Serial Number:
            5e:59:eb:01:db:02:0b:1e:73:67:ed:7c:95:51:a8:b0
        Signature Algorithm: sha256WithRSAEncryption
        Issuer: CN=team14-net
        Validity
            Not Before: Nov  3 20:39:32 2023 GMT
            Not After : Oct 18 20:39:32 2026 GMT
        Subject: CN=team14-server
        Subject Public Key Info:
            Public Key Algorithm: rsaEncryption
                Public-Key: (2048 bit)
                Modulus:
                    00:bb:9a:c5:d9:aa:f5:fe:ab:e2:be:e7:d0:69:73:
                    23:81:aa:19:18:01:11:62:a5:45:04:50:1f:2b:de:
                    e2:c6:73:20:b0:a6:70:c1:e8:4c:1c:35:af:7b:9c:
                    56:00:71:3c:5b:cd:63:45:ce:93:eb:01:5f:d5:84:
                    00:5a:45:40:b3:41:9b:7c:e6:1c:71:14:c8:3a:ff:
                    58:60:34:a0:39:84:17:07:5e:16:2b:e2:16:d2:d7:
                    c3:cf:92:a9:09:95:84:51:89:27:cd:2a:6e:9c:d5:
                    04:6a:17:18:35:09:74:96:d9:0c:24:9b:d2:df:53:
                    a1:8d:93:88:4f:0d:4e:a4:73:1f:de:f1:84:fa:58:
                    7d:12:2c:dd:10:3e:80:cd:b9:00:72:48:6f:a2:8b:
                    92:db:ab:11:92:57:b1:c0:c1:e9:5f:2b:ca:f6:60:
                    68:69:06:d5:f2:d3:62:99:23:db:f0:dd:c8:1c:10:
                    df:2d:d9:06:ae:44:ef:04:e5:4e:5e:8f:29:94:a0:
                    e6:b9:e9:ce:38:72:00:26:cd:cb:49:35:47:85:de:
                    27:f5:f1:f4:53:b9:51:3a:b8:33:19:36:dc:1f:33:
                    bf:e7:e5:32:4b:fd:b0:84:73:84:d1:a3:8b:ff:29:
                    5d:6b:71:f8:11:98:3f:90:67:dc:7a:cf:cb:f6:58:
                    18:4b
                Exponent: 65537 (0x10001)
        X509v3 extensions:
            X509v3 Basic Constraints: 
                CA:FALSE
            X509v3 Subject Key Identifier: 
                CB:22:B6:29:8B:07:A2:B2:E6:A1:4C:7D:54:91:08:3B:AC:3E:DE:C2
            X509v3 Authority Key Identifier: 
                keyid:C3:5F:04:4A:C2:93:D2:A8:5A:E2:15:FF:04:C9:83:C2:AE:B1:A4:F7
                DirName:/CN=team14-net
                serial:28:46:8A:57:64:C9:38:30:C7:66:54:F4:F4:36:7A:1D:D7:3D:CC:F5
            X509v3 Extended Key Usage: 
                TLS Web Server Authentication
            X509v3 Key Usage: 
                Digital Signature, Key Encipherment
            X509v3 Subject Alternative Name: 
                DNS:team14-server
    Signature Algorithm: sha256WithRSAEncryption
    Signature Value:
        ea:82:f9:73:c4:cd:b1:9c:bf:ef:36:34:a3:2b:ec:ce:61:ca:
        82:4f:eb:19:02:dd:cb:af:8a:f0:d3:5c:55:ca:3d:8c:7e:e7:
        80:14:4f:2a:d5:67:b4:27:5a:76:37:3e:75:02:de:fc:1e:04:
        41:b7:2d:f8:f3:75:b4:bc:42:28:7f:6b:5d:c9:c8:ff:ad:48:
        1f:a9:e9:c4:09:33:f0:03:75:e1:6f:43:a9:b8:92:ac:37:d9:
        53:9a:05:6a:5d:ba:13:40:e5:bb:18:13:4d:e9:68:99:49:0a:
        a5:45:51:f9:d6:52:bb:cd:64:05:8e:aa:40:0e:69:63:0a:b3:
        b2:3d:82:00:05:68:d3:ec:4e:27:15:4a:b9:aa:35:b6:b6:7a:
        db:7f:1c:f3:b1:45:79:f8:48:38:bd:31:9f:0b:96:6b:7d:bb:
        cf:56:7f:d2:6e:97:43:02:ec:1d:2c:46:31:09:31:fc:e9:84:
        04:08:9d:6a:6d:4b:58:ea:a0:77:43:42:f0:8d:35:95:1f:10:
        f7:44:a7:c1:59:22:cb:c2:e2:2b:af:a9:a5:a8:fe:67:98:70:
        6f:e7:ba:a5:5d:4c:be:40:cb:71:05:9f:6d:0b:d9:5e:d3:28:
        c7:b8:bc:7a:e1:f8:39:c2:2b:6d:3a:f7:96:59:8a:68:36:2f:
        c4:0d:03:16
-----BEGIN CERTIFICATE-----
MIIDczCCAlugAwIBAgIQXlnrAdsCCx5zZ+18lVGosDANBgkqhkiG9w0BAQsFADAV
MRMwEQYDVQQDDAp0ZWFtMTQtbmV0MB4XDTIzMTEwMzIwMzkzMloXDTI2MTAxODIw
MzkzMlowGDEWMBQGA1UEAwwNdGVhbTE0LXNlcnZlcjCCASIwDQYJKoZIhvcNAQEB
BQADggEPADCCAQoCggEBALuaxdmq9f6r4r7n0GlzI4GqGRgBEWKlRQRQHyve4sZz
ILCmcMHoTBw1r3ucVgBxPFvNY0XOk+sBX9WEAFpFQLNBm3zmHHEUyDr/WGA0oDmE
FwdeFiviFtLXw8+SqQmVhFGJJ80qbpzVBGoXGDUJdJbZDCSb0t9ToY2TiE8NTqRz
H97xhPpYfRIs3RA+gM25AHJIb6KLkturEZJXscDB6V8ryvZgaGkG1fLTYpkj2/Dd
yBwQ3y3ZBq5E7wTlTl6PKZSg5rnpzjhyACbNy0k1R4XeJ/Xx9FO5UTq4Mxk23B8z
v+flMkv9sIRzhNGji/8pXWtx+BGYP5Bn3HrPy/ZYGEsCAwEAAaOBuzCBuDAJBgNV
HRMEAjAAMB0GA1UdDgQWBBTLIrYpiweisuahTH1UkQg7rD7ewjBQBgNVHSMESTBH
gBTDXwRKwpPSqFriFf8EyYPCrrGk96EZpBcwFTETMBEGA1UEAwwKdGVhbTE0LW5l
dIIUKEaKV2TJODDHZlT09DZ6Hdc9zPUwEwYDVR0lBAwwCgYIKwYBBQUHAwEwCwYD
VR0PBAQDAgWgMBgGA1UdEQQRMA+CDXRlYW0xNC1zZXJ2ZXIwDQYJKoZIhvcNAQEL
BQADggEBAOqC+XPEzbGcv+82NKMr7M5hyoJP6xkC3cuvivDTXFXKPYx+54AUTyrV
Z7QnWnY3PnUC3vweBEG3LfjzdbS8Qih/a13JyP+tSB+p6cQJM/ADdeFvQ6m4kqw3
2VOaBWpduhNA5bsYE03paJlJCqVFUfnWUrvNZAWOqkAOaWMKs7I9ggAFaNPsTicV
SrmqNba2ett/HPOxRXn4SDi9MZ8Llmt9u89Wf9Jul0MC7B0sRjEJMfzphAQInWpt
S1jqoHdDQvCNNZUfEPdEp8FZIsvC4iuvqaWo/meYcG/nuqVdTL5Ay3EFn20L2V7T
KMe4vHrh+DnCK20695ZZimg2L8QNAxY=
-----END CERTIFICATE-----
