Certificate:
    Data:
        Version: 3 (0x2)
        Serial Number:
            7d:f9:85:19:f5:44:74:bf:e1:a5:a2:8e:01:3a:15:2d
        Signature Algorithm: sha256WithRSAEncryption
        Issuer: CN=team14-net
        Validity
            Not Before: Nov  4 10:40:27 2023 GMT
            Not After : Oct 19 10:40:27 2026 GMT
        Subject: CN=team14-server
        Subject Public Key Info:
            Public Key Algorithm: rsaEncryption
                Public-Key: (2048 bit)
                Modulus:
                    00:95:ba:4a:27:4f:ba:9b:6b:3c:80:f6:43:30:f6:
                    45:f8:d7:91:59:52:9f:e6:08:24:20:3e:13:90:c5:
                    55:e0:c8:1f:53:fe:26:77:ed:69:4f:95:b0:fd:a2:
                    c9:a2:4f:7e:70:41:f9:0c:13:c3:2a:b1:0e:1c:17:
                    eb:3a:2d:29:18:bd:02:13:3d:ec:ee:2d:2f:05:69:
                    48:7f:66:3c:39:7e:66:68:16:d2:ab:fc:e2:ee:d5:
                    1d:0a:3f:d4:6e:13:40:e4:ec:86:db:a9:b1:68:6c:
                    c6:9e:b5:2a:85:13:88:f1:8a:c4:4d:61:d4:3e:30:
                    c1:2a:7c:af:fa:45:69:df:3d:04:3f:be:4d:6b:f2:
                    08:bb:6e:87:03:06:b9:e8:ca:84:ed:4c:37:71:b5:
                    f5:1f:7e:c7:3b:dc:a3:b7:ba:4b:b8:6e:cd:c7:77:
                    78:f0:07:3b:4d:e0:a7:1f:d7:8d:ed:d3:76:4b:12:
                    ca:75:5c:39:66:e7:4c:f3:66:57:39:1b:ad:b6:b3:
                    b8:cb:6c:06:8f:66:c8:d6:01:4e:ea:1c:27:53:d3:
                    47:9d:86:57:4a:d7:a2:f9:b2:ef:be:43:e5:76:13:
                    c2:0a:47:41:aa:23:32:bb:51:d1:f2:20:b3:fa:ee:
                    a7:5e:14:54:63:fa:a6:23:1a:6e:07:84:d9:32:53:
                    ba:73
                Exponent: 65537 (0x10001)
        X509v3 extensions:
            X509v3 Basic Constraints: 
                CA:FALSE
            X509v3 Subject Key Identifier: 
                58:DD:90:A3:1E:FF:43:CD:BA:5F:60:3B:B1:E9:9F:98:40:75:C6:17
            X509v3 Authority Key Identifier: 
                keyid:38:AF:FB:FF:FA:06:47:27:81:55:DA:20:2D:32:DA:82:3D:73:E7:D5
                DirName:/CN=team14-net
                serial:07:25:BF:CF:F9:61:D7:23:0A:5A:71:C8:F8:2B:66:A2:E3:C9:83:4F
            X509v3 Extended Key Usage: 
                TLS Web Server Authentication
            X509v3 Key Usage: 
                Digital Signature, Key Encipherment
            X509v3 Subject Alternative Name: 
                DNS:team14-server
    Signature Algorithm: sha256WithRSAEncryption
    Signature Value:
        2c:07:61:d5:1f:e1:95:a3:70:8c:a7:3d:4d:ed:04:71:36:93:
        2d:fa:8f:26:29:e3:b6:8f:f6:36:a0:b1:39:0a:2c:72:da:34:
        e8:5c:07:d8:85:79:f4:b1:e1:b8:86:08:4d:9a:86:bf:33:03:
        5a:ee:9e:22:b3:42:8e:2a:7e:ce:61:e9:bc:0c:a0:da:11:be:
        45:55:5c:be:c4:91:b7:9d:24:44:ff:28:99:08:a1:63:3a:af:
        29:90:d9:bb:cf:27:67:cd:03:7a:76:e0:ab:3e:37:03:4f:d5:
        4e:1b:63:6d:9c:96:9b:9f:01:1e:e9:b0:e8:d7:88:1c:18:90:
        e2:d0:dc:8b:f6:f7:aa:07:73:6c:11:76:5b:04:fe:05:88:2a:
        4e:b1:e4:ee:bb:e8:b0:e1:9b:cc:9e:c1:ba:78:a2:0b:92:81:
        65:9d:34:c7:51:90:ed:16:9e:3b:b9:7f:3f:1a:06:99:3b:08:
        f8:16:93:82:77:f5:7f:35:31:4f:e8:6b:99:d3:40:3e:b6:9d:
        02:55:6a:74:fa:89:d8:bc:55:f7:b0:50:02:8d:c7:3b:e3:d9:
        21:63:c5:be:b3:e8:e6:54:77:ed:b6:21:89:2d:72:ed:0c:88:
        fb:f2:81:af:ab:7d:79:9a:b2:50:fc:4f:c1:97:c7:99:d2:87:
        46:24:e3:72
-----BEGIN CERTIFICATE-----
MIIDczCCAlugAwIBAgIQffmFGfVEdL/hpaKOAToVLTANBgkqhkiG9w0BAQsFADAV
MRMwEQYDVQQDDAp0ZWFtMTQtbmV0MB4XDTIzMTEwNDEwNDAyN1oXDTI2MTAxOTEw
NDAyN1owGDEWMBQGA1UEAwwNdGVhbTE0LXNlcnZlcjCCASIwDQYJKoZIhvcNAQEB
BQADggEPADCCAQoCggEBAJW6SidPuptrPID2QzD2RfjXkVlSn+YIJCA+E5DFVeDI
H1P+JnftaU+VsP2iyaJPfnBB+QwTwyqxDhwX6zotKRi9AhM97O4tLwVpSH9mPDl+
ZmgW0qv84u7VHQo/1G4TQOTshtupsWhsxp61KoUTiPGKxE1h1D4wwSp8r/pFad89
BD++TWvyCLtuhwMGuejKhO1MN3G19R9+xzvco7e6S7huzcd3ePAHO03gpx/Xje3T
dksSynVcOWbnTPNmVzkbrbazuMtsBo9myNYBTuocJ1PTR52GV0rXovmy775D5XYT
wgpHQaojMrtR0fIgs/rup14UVGP6piMabgeE2TJTunMCAwEAAaOBuzCBuDAJBgNV
HRMEAjAAMB0GA1UdDgQWBBRY3ZCjHv9DzbpfYDux6Z+YQHXGFzBQBgNVHSMESTBH
gBQ4r/v/+gZHJ4FV2iAtMtqCPXPn1aEZpBcwFTETMBEGA1UEAwwKdGVhbTE0LW5l
dIIUByW/z/lh1yMKWnHI+CtmouPJg08wEwYDVR0lBAwwCgYIKwYBBQUHAwEwCwYD
VR0PBAQDAgWgMBgGA1UdEQQRMA+CDXRlYW0xNC1zZXJ2ZXIwDQYJKoZIhvcNAQEL
BQADggEBACwHYdUf4ZWjcIynPU3tBHE2ky36jyYp47aP9jagsTkKLHLaNOhcB9iF
efSx4biGCE2ahr8zA1runiKzQo4qfs5h6bwMoNoRvkVVXL7EkbedJET/KJkIoWM6
rymQ2bvPJ2fNA3p24Ks+NwNP1U4bY22clpufAR7psOjXiBwYkOLQ3Iv296oHc2wR
dlsE/gWIKk6x5O676LDhm8yewbp4oguSgWWdNMdRkO0Wnju5fz8aBpk7CPgWk4J3
9X81MU/oa5nTQD62nQJVanT6idi8VfewUAKNxzvj2SFjxb6z6OZUd+22IYktcu0M
iPvyga+rfXmaslD8T8GXx5nSh0Yk43I=
-----END CERTIFICATE-----
