Certificate:
    Data:
        Version: 3 (0x2)
        Serial Number:
            c1:68:0e:04:60:1d:55:ad:be:b6:5c:f8:a6:9f:9b:14
        Signature Algorithm: sha256WithRSAEncryption
        Issuer: CN=team14-net
        Validity
            Not Before: Nov  4 10:40:27 2023 GMT
            Not After : Oct 19 10:40:27 2026 GMT
        Subject: CN=team14-client
        Subject Public Key Info:
            Public Key Algorithm: rsaEncryption
                Public-Key: (2048 bit)
                Modulus:
                    00:f5:6d:c1:5a:7c:ce:18:33:7a:a4:4f:7b:0b:f7:
                    69:d7:d6:10:65:c0:de:a9:8c:ee:76:b4:c5:bb:d4:
                    3c:85:67:de:57:4f:96:4e:6f:f2:de:62:11:c5:ff:
                    8c:e3:00:a2:55:a9:00:49:08:13:08:c8:60:1e:17:
                    0c:08:f3:c9:37:d6:de:55:bd:77:cd:66:1b:01:b7:
                    ad:51:ae:57:79:47:2a:91:25:da:e1:87:bd:c0:e7:
                    49:21:68:05:54:f1:d0:69:a9:2d:4e:73:c8:39:9c:
                    7f:59:42:b1:98:d2:ab:6a:fd:36:32:3c:64:74:a9:
                    cc:08:4d:cb:65:e8:c8:77:42:12:5f:9e:6f:30:3f:
                    a8:12:5c:55:66:e1:08:57:70:ca:20:b6:ef:29:00:
                    d4:c2:41:ef:6a:b4:c0:90:92:d9:11:e4:89:d3:3a:
                    5e:7f:64:92:5d:4f:79:8f:9e:fe:21:2c:ed:37:5a:
                    f4:7b:11:14:42:99:d9:9f:8e:fd:46:6b:f9:4c:e8:
                    bf:ba:19:8a:b0:e7:bd:77:f1:4f:50:cf:8a:2e:d5:
                    cf:e3:c5:91:66:07:fe:47:b2:32:47:aa:80:42:fa:
                    32:40:b9:ae:cd:75:66:19:c0:8c:0c:f4:b2:b8:c8:
                    43:a4:f8:c2:74:0a:89:02:e0:be:24:29:6f:28:c0:
                    b8:9d
                Exponent: 65537 (0x10001)
        X509v3 extensions:
            X509v3 Basic Constraints: 
                CA:FALSE
            X509v3 Subject Key Identifier: 
                80:AC:52:6B:5C:7E:0A:93:5D:6C:22:F7:63:80:14:8E:47:97:F0:8E
            X509v3 Authority Key Identifier: 
                keyid:38:AF:FB:FF:FA:06:47:27:81:55:DA:20:2D:32:DA:82:3D:73:E7:D5
                DirName:/CN=team14-net
                serial:07:25:BF:CF:F9:61:D7:23:0A:5A:71:C8:F8:2B:66:A2:E3:C9:83:4F
            X509v3 Extended Key Usage: 
                TLS Web Client Authentication
            X509v3 Key Usage: 
                Digital Signature
    Signature Algorithm: sha256WithRSAEncryption
    Signature Value:
        78:87:f2:05:38:9f:b0:48:91:22:a1:85:44:1f:8b:b3:8e:56:
        02:31:30:c7:41:d2:2b:6a:24:05:b1:da:d3:9c:ec:b0:52:c4:
        9d:9e:0c:b7:87:ec:57:4c:01:01:e2:d8:46:e0:27:74:a2:e4:
        89:5f:52:6e:bf:dc:ca:98:6d:aa:77:90:d5:fd:98:a3:ca:ef:
        65:e8:f8:68:4d:2f:26:9c:c7:9e:cf:f7:e7:f8:5f:f2:d8:4d:
        46:68:25:e7:71:fd:63:34:69:6a:7b:c5:e7:30:cb:b6:01:84:
        08:ef:62:b2:51:bf:33:07:e8:94:3b:48:e6:48:a0:51:e0:f8:
        06:63:5f:a7:8e:36:1f:09:28:38:59:96:03:c2:b6:53:e6:4f:
        97:1f:16:fa:7e:c4:39:55:46:63:ba:7a:6b:73:10:05:5e:19:
        fa:ea:d8:af:bd:d8:0b:d5:94:54:a8:96:e0:65:de:a8:47:7c:
        9d:f5:17:45:77:ab:4b:e5:07:b8:1e:67:5c:c8:2f:4f:dc:08:
        57:be:80:66:08:66:3e:2d:9c:13:5d:8e:86:f9:02:58:21:4a:
        f0:ba:ad:d6:b6:1a:36:ff:f4:fb:f4:94:8d:a1:88:dc:0c:cb:
        bd:cf:09:e3:0a:51:6c:2e:26:78:cb:a9:ec:2f:e4:10:e1:04:
        39:ae:75:63
-----BEGIN CERTIFICATE-----
MIIDWjCCAkKgAwIBAgIRAMFoDgRgHVWtvrZc+KafmxQwDQYJKoZIhvcNAQELBQAw
FTETMBEGA1UEAwwKdGVhbTE0LW5ldDAeFw0yMzExMDQxMDQwMjdaFw0yNjEwMTkx
MDQwMjdaMBgxFjAUBgNVBAMMDXRlYW0xNC1jbGllbnQwggEiMA0GCSqGSIb3DQEB
AQUAA4IBDwAwggEKAoIBAQD1bcFafM4YM3qkT3sL92nX1hBlwN6pjO52tMW71DyF
Z95XT5ZOb/LeYhHF/4zjAKJVqQBJCBMIyGAeFwwI88k31t5VvXfNZhsBt61Rrld5
RyqRJdrhh73A50khaAVU8dBpqS1Oc8g5nH9ZQrGY0qtq/TYyPGR0qcwITctl6Mh3
QhJfnm8wP6gSXFVm4QhXcMogtu8pANTCQe9qtMCQktkR5InTOl5/ZJJdT3mPnv4h
LO03WvR7ERRCmdmfjv1Ga/lM6L+6GYqw57138U9Qz4ou1c/jxZFmB/5HsjJHqoBC
+jJAua7NdWYZwIwM9LK4yEOk+MJ0CokC4L4kKW8owLidAgMBAAGjgaEwgZ4wCQYD
VR0TBAIwADAdBgNVHQ4EFgQUgKxSa1x+CpNdbCL3Y4AUjkeX8I4wUAYDVR0jBEkw
R4AUOK/7//oGRyeBVdogLTLagj1z59WhGaQXMBUxEzARBgNVBAMMCnRlYW0xNC1u
ZXSCFAclv8/5YdcjClpxyPgrZqLjyYNPMBMGA1UdJQQMMAoGCCsGAQUFBwMCMAsG
A1UdDwQEAwIHgDANBgkqhkiG9w0BAQsFAAOCAQEAeIfyBTifsEiRIqGFRB+Ls45W
AjEwx0HSK2okBbHa05zssFLEnZ4Mt4fsV0wBAeLYRuAndKLkiV9Sbr/cyphtqneQ
1f2Yo8rvZej4aE0vJpzHns/35/hf8thNRmgl53H9YzRpanvF5zDLtgGECO9islG/
MwfolDtI5kigUeD4BmNfp442HwkoOFmWA8K2U+ZPlx8W+n7EOVVGY7p6a3MQBV4Z
+urYr73YC9WUVKiW4GXeqEd8nfUXRXerS+UHuB5nXMgvT9wIV76AZghmPi2cE12O
hvkCWCFK8Lqt1rYaNv/0+/SUjaGI3AzLvc8J4wpRbC4meMup7C/kEOEEOa51Yw==
-----END CERTIFICATE-----
