Certificate:
    Data:
        Version: 3 (0x2)
        Serial Number:
            63:74:f1:04:fe:af:02:4a:60:24:b4:a1:37:74:d3:5d
        Signature Algorithm: sha256WithRSAEncryption
        Issuer: CN=team408-net
        Validity
            Not Before: Nov  3 20:46:38 2023 GMT
            Not After : Oct 18 20:46:38 2026 GMT
        Subject: CN=team408-server
        Subject Public Key Info:
            Public Key Algorithm: rsaEncryption
                Public-Key: (2048 bit)
                Modulus:
                    00:bd:2e:ef:f3:f9:5c:90:62:35:f1:2c:58:ed:a2:
                    27:13:79:57:43:e0:eb:97:4b:97:d7:05:a9:60:52:
                    6e:66:b1:4c:3e:d3:5c:bb:2a:22:36:be:4e:db:47:
                    10:35:c3:18:9b:52:7e:74:5b:ea:60:d6:90:0a:40:
                    d8:44:fb:f2:9d:25:d4:85:1c:8a:4f:17:0b:6b:19:
                    4e:4c:e2:fb:d5:32:3c:39:56:df:fc:99:88:1b:73:
                    4b:ca:10:73:35:1b:d4:9b:e7:28:53:d3:2f:5a:c2:
                    be:2a:50:bd:52:a7:36:1a:96:4b:eb:29:f5:ec:21:
                    9a:e3:06:77:ee:1e:9c:76:17:19:08:9c:ee:dc:30:
                    d9:4b:10:b0:6b:4b:f0:11:0d:39:b1:99:c1:c9:f2:
                    14:36:cc:8d:42:49:3a:be:fe:8b:fc:73:fe:93:42:
                    74:f9:d6:30:ab:c5:51:2e:ab:9f:8f:b2:33:c0:ac:
                    20:7b:1c:ee:84:5f:e6:db:42:5f:13:89:d1:4a:f1:
                    2f:e1:32:71:e5:b1:f4:b1:93:37:40:e0:ba:ac:ed:
                    3e:c8:c6:cd:8f:19:54:4f:d2:88:9b:27:43:1d:f8:
                    a0:b6:9d:af:e0:c0:16:9f:af:3d:75:c1:2b:34:77:
                    33:cc:54:a4:26:48:2d:c7:25:6e:9b:af:78:ec:ac:
                    53:2d
                Exponent: 65537 (0x10001)
        X509v3 extensions:
            X509v3 Basic Constraints: 
                CA:FALSE
            X509v3 Subject Key Identifier: 
                78:0A:FE:63:CA:AB:44:41:09:1B:31:C2:50:A9:9E:89:BF:06:8D:02
            X509v3 Authority Key Identifier: 
                keyid:ED:A8:5A:8E:1A:A8:74:E9:33:96:55:07:0B:45:47:E4:09:C1:D1:16
                DirName:/CN=team408-net
                serial:5F:8C:29:45:CB:C8:A6:C7:27:9C:6A:BD:F0:1E:26:F4:65:A4:7F:BD
            X509v3 Extended Key Usage: 
                TLS Web Server Authentication
            X509v3 Key Usage: 
                Digital Signature, Key Encipherment
            X509v3 Subject Alternative Name: 
                DNS:team408-server
    Signature Algorithm: sha256WithRSAEncryption
    Signature Value:
        60:82:6b:c5:b4:dc:5a:ee:65:6f:48:f5:a6:ae:60:86:a7:94:
        37:45:ac:e9:3c:a8:06:31:31:b2:26:8d:61:5e:30:21:2e:81:
        72:e4:e9:44:d1:eb:b9:c6:c8:49:c6:31:c7:f6:05:53:5b:20:
        03:91:4d:6e:4e:e9:99:7c:13:7f:82:84:68:fd:2c:81:3b:8c:
        0b:a5:77:42:10:26:1c:95:0f:6e:ba:cd:5e:43:25:81:3a:05:
        a0:dd:73:5f:01:62:41:e4:72:d7:ba:3b:ce:75:d6:74:62:8a:
        08:fb:44:9f:cb:1a:31:1d:6a:01:ac:35:7c:04:4f:c8:4c:65:
        f3:c1:a7:02:15:45:bc:90:fc:0d:af:b1:f2:83:7f:8f:d2:49:
        a2:7d:fd:0e:19:a0:a2:a9:19:42:11:05:60:d5:b6:a0:e0:bb:
        99:3f:b3:66:3b:f9:35:4b:ea:68:18:01:5f:c5:96:b4:96:33:
        89:56:6a:32:6c:b7:84:8d:c3:bc:71:34:18:74:76:ab:e2:a1:
        83:ca:e6:b3:6f:e0:bc:3f:7e:69:61:b0:cd:c2:a1:fb:ce:8d:
        51:b4:22:12:cc:1f:bc:e5:75:56:e2:dc:60:9d:ee:c8:72:8c:
        2d:fc:9f:02:93:99:39:fb:e9:da:0b:22:64:38:ca:c2:6b:42:
        e7:9b:ef:b9
-----BEGIN CERTIFICATE-----
MIIDdzCCAl+gAwIBAgIQY3TxBP6vAkpgJLShN3TTXTANBgkqhkiG9w0BAQsFADAW
MRQwEgYDVQQDDAt0ZWFtNDA4LW5ldDAeFw0yMzExMDMyMDQ2MzhaFw0yNjEwMTgy
MDQ2MzhaMBkxFzAVBgNVBAMMDnRlYW00MDgtc2VydmVyMIIBIjANBgkqhkiG9w0B
AQEFAAOCAQ8AMIIBCgKCAQEAvS7v8/lckGI18SxY7aInE3lXQ+Drl0uX1wWpYFJu
ZrFMPtNcuyoiNr5O20cQNcMYm1J+dFvqYNaQCkDYRPvynSXUhRyKTxcLaxlOTOL7
1TI8OVbf/JmIG3NLyhBzNRvUm+coU9MvWsK+KlC9Uqc2GpZL6yn17CGa4wZ37h6c
dhcZCJzu3DDZSxCwa0vwEQ05sZnByfIUNsyNQkk6vv6L/HP+k0J0+dYwq8VRLquf
j7IzwKwgexzuhF/m20JfE4nRSvEv4TJx5bH0sZM3QOC6rO0+yMbNjxlUT9KImydD
Hfigtp2v4MAWn689dcErNHczzFSkJkgtxyVum6947KxTLQIDAQABo4G9MIG6MAkG
A1UdEwQCMAAwHQYDVR0OBBYEFHgK/mPKq0RBCRsxwlCpnom/Bo0CMFEGA1UdIwRK
MEiAFO2oWo4aqHTpM5ZVBwtFR+QJwdEWoRqkGDAWMRQwEgYDVQQDDAt0ZWFtNDA4
LW5ldIIUX4wpRcvIpscnnGq98B4m9GWkf70wEwYDVR0lBAwwCgYIKwYBBQUHAwEw
CwYDVR0PBAQDAgWgMBkGA1UdEQQSMBCCDnRlYW00MDgtc2VydmVyMA0GCSqGSIb3
DQEBCwUAA4IBAQBggmvFtNxa7mVvSPWmrmCGp5Q3RazpPKgGMTGyJo1hXjAhLoFy
5OlE0eu5xshJxjHH9gVTWyADkU1uTumZfBN/goRo/SyBO4wLpXdCECYclQ9uus1e
QyWBOgWg3XNfAWJB5HLXujvOddZ0YooI+0SfyxoxHWoBrDV8BE/ITGXzwacCFUW8
kPwNr7Hyg3+P0kmiff0OGaCiqRlCEQVg1bag4LuZP7NmO/k1S+poGAFfxZa0ljOJ
VmoybLeEjcO8cTQYdHar4qGDyuazb+C8P35pYbDNwqH7zo1RtCISzB+85XVW4txg
ne7Icowt/J8Ck5k5++naCyJkOMrCa0Lnm++5
-----END CERTIFICATE-----
