Certificate:
    Data:
        Version: 3 (0x2)
        Serial Number:
            66:22:60:7d:42:c8:83:fb:f2:16:8e:45:da:73:44:3e
        Signature Algorithm: sha256WithRSAEncryption
        Issuer: CN=team332-net
        Validity
            Not Before: Nov  4 10:46:42 2023 GMT
            Not After : Oct 19 10:46:42 2026 GMT
        Subject: CN=team332-client
        Subject Public Key Info:
            Public Key Algorithm: rsaEncryption
                Public-Key: (2048 bit)
                Modulus:
                    00:95:18:88:c1:48:1b:e9:9e:c9:aa:41:b9:19:08:
                    e1:9b:62:cc:4a:b3:99:5a:51:c1:d9:60:98:e0:b5:
                    c6:ff:78:fe:1b:08:08:77:26:11:77:08:3e:2b:96:
                    4e:fd:6c:a4:fe:cb:db:77:6a:f6:92:f0:0f:ee:f3:
                    9b:95:ae:ec:de:50:59:1b:74:20:7a:92:8e:b6:84:
                    02:f5:25:17:94:d4:90:8e:15:12:39:6b:9c:49:24:
                    e9:1d:94:5e:d3:5c:c3:0c:7a:ce:9f:68:27:81:5b:
                    41:19:6b:82:be:29:4e:96:2c:8a:dd:46:8e:b4:d2:
                    4c:e3:a1:6a:83:7f:0a:e0:e4:31:c3:da:86:13:6d:
                    ef:d0:1d:78:d0:b2:1e:86:08:22:61:be:e9:54:83:
                    15:c4:ff:4a:b6:b3:b7:9d:c5:9c:cc:fe:c9:5f:d9:
                    48:31:fa:13:59:21:d9:ab:a2:af:e8:b0:12:74:54:
                    e6:a8:d2:74:73:91:07:30:2b:08:80:37:d9:f3:6d:
                    12:5b:d2:44:0d:aa:57:c3:c7:93:78:1c:82:57:7e:
                    83:33:2a:af:3d:d3:03:f4:08:b4:fc:43:bb:ce:9e:
                    1b:ed:73:ac:44:4f:64:34:cd:9b:de:5f:07:ed:81:
                    84:42:6d:e7:bd:cd:73:90:45:c6:8e:40:53:c5:c8:
                    08:07
                Exponent: 65537 (0x10001)
        X509v3 extensions:
            X509v3 Basic Constraints: 
                CA:FALSE
            X509v3 Subject Key Identifier: 
                52:FB:DA:F4:23:50:10:9F:54:4E:95:A1:03:8F:1B:86:F2:F8:58:5B
            X509v3 Authority Key Identifier: 
                keyid:4E:AB:23:13:62:92:A1:8A:9B:18:31:37:F9:5C:96:D8:31:B3:E3:2C
                DirName:/CN=team332-net
                serial:76:59:AD:19:7A:A5:FB:E7:1D:9D:0C:83:C4:89:CA:89:9A:84:6E:E7
            X509v3 Extended Key Usage: 
                TLS Web Client Authentication
            X509v3 Key Usage: 
                Digital Signature
    Signature Algorithm: sha256WithRSAEncryption
    Signature Value:
        36:58:93:a4:0d:53:ad:d8:8d:09:0b:f5:43:17:d6:f0:83:7e:
        d9:f4:fd:73:5c:a4:64:47:98:7d:e1:2d:d1:18:85:46:bf:7d:
        a3:88:fe:ad:cb:59:6b:08:56:ef:0f:fd:57:58:5f:2f:07:44:
        3a:c2:45:27:36:a3:01:8b:c8:b1:5c:19:3b:0f:aa:b4:08:bd:
        1b:90:50:a1:8e:39:c9:3c:a1:65:1f:99:c1:d2:ef:9d:8f:c1:
        cf:c4:81:f9:7d:61:a0:3f:b2:90:68:07:04:a0:71:e6:fe:3e:
        90:fa:09:62:a2:c5:6a:4d:2a:b8:93:4f:e7:c9:d0:d2:38:b6:
        43:90:da:15:31:4a:f2:e7:dc:49:2a:02:5b:b0:90:9f:59:75:
        c0:f4:a1:72:47:bb:c1:79:e2:8d:b5:87:41:d2:31:3e:50:a6:
        bd:a6:5f:25:0c:02:68:49:8d:87:c8:c8:f1:16:c8:d3:a3:9c:
        93:0d:40:0b:c5:cb:d1:25:01:da:7e:31:ef:0a:2e:96:4a:81:
        26:7c:6e:65:62:f5:da:c1:8a:e3:e4:af:2b:f1:7b:f6:20:c9:
        65:29:12:dc:d3:98:33:b1:a4:f4:b8:5d:7e:9d:a5:d6:59:ca:
        8c:27:94:cc:b5:b8:b1:19:4b:f4:be:5f:c8:a2:06:84:6c:ac:
        30:9a:bb:ce
-----BEGIN CERTIFICATE-----
MIIDXDCCAkSgAwIBAgIQZiJgfULIg/vyFo5F2nNEPjANBgkqhkiG9w0BAQsFADAW
MRQwEgYDVQQDDAt0ZWFtMzMyLW5ldDAeFw0yMzExMDQxMDQ2NDJaFw0yNjEwMTkx
MDQ2NDJaMBkxFzAVBgNVBAMMDnRlYW0zMzItY2xpZW50MIIBIjANBgkqhkiG9w0B
AQEFAAOCAQ8AMIIBCgKCAQEAlRiIwUgb6Z7JqkG5GQjhm2LMSrOZWlHB2WCY4LXG
/3j+GwgIdyYRdwg+K5ZO/Wyk/svbd2r2kvAP7vObla7s3lBZG3QgepKOtoQC9SUX
lNSQjhUSOWucSSTpHZRe01zDDHrOn2gngVtBGWuCvilOliyK3UaOtNJM46Fqg38K
4OQxw9qGE23v0B140LIehggiYb7pVIMVxP9KtrO3ncWczP7JX9lIMfoTWSHZq6Kv
6LASdFTmqNJ0c5EHMCsIgDfZ820SW9JEDapXw8eTeByCV36DMyqvPdMD9Ai0/EO7
zp4b7XOsRE9kNM2b3l8H7YGEQm3nvc1zkEXGjkBTxcgIBwIDAQABo4GiMIGfMAkG
A1UdEwQCMAAwHQYDVR0OBBYEFFL72vQjUBCfVE6VoQOPG4by+FhbMFEGA1UdIwRK
MEiAFE6rIxNikqGKmxgxN/lcltgxs+MsoRqkGDAWMRQwEgYDVQQDDAt0ZWFtMzMy
LW5ldIIUdlmtGXql++cdnQyDxInKiZqEbucwEwYDVR0lBAwwCgYIKwYBBQUHAwIw
CwYDVR0PBAQDAgeAMA0GCSqGSIb3DQEBCwUAA4IBAQA2WJOkDVOt2I0JC/VDF9bw
g37Z9P1zXKRkR5h94S3RGIVGv32jiP6ty1lrCFbvD/1XWF8vB0Q6wkUnNqMBi8ix
XBk7D6q0CL0bkFChjjnJPKFlH5nB0u+dj8HPxIH5fWGgP7KQaAcEoHHm/j6Q+gli
osVqTSq4k0/nydDSOLZDkNoVMUry59xJKgJbsJCfWXXA9KFyR7vBeeKNtYdB0jE+
UKa9pl8lDAJoSY2HyMjxFsjTo5yTDUALxcvRJQHafjHvCi6WSoEmfG5lYvXawYrj
5K8r8Xv2IMllKRLc05gzsaT0uF1+naXWWcqMJ5TMtbixGUv0vl/IogaEbKwwmrvO
-----END CERTIFICATE-----
