Certificate:
    Data:
        Version: 3 (0x2)
        Serial Number:
            d5:8c:c0:ca:00:48:08:b1:8b:3c:90:2a:f8:a0:cf:35
        Signature Algorithm: sha256WithRSAEncryption
        Issuer: CN=team332-net
        Validity
            Not Before: Nov  4 10:46:42 2023 GMT
            Not After : Oct 19 10:46:42 2026 GMT
        Subject: CN=team332-server
        Subject Public Key Info:
            Public Key Algorithm: rsaEncryption
                Public-Key: (2048 bit)
                Modulus:
                    00:c5:2e:b8:8c:25:f1:54:07:30:ef:a4:04:06:80:
                    05:28:15:db:81:2d:fb:36:1d:11:f0:8b:61:d6:b9:
                    fe:66:fa:1f:24:d3:cf:bf:c3:a5:bf:b1:be:07:9c:
                    65:51:7f:3b:99:d6:68:76:3a:c7:d1:80:ec:77:7f:
                    85:5d:e3:0f:1e:eb:a1:7a:fe:78:fc:7c:b0:52:61:
                    3b:55:fe:83:7f:9b:0d:33:07:37:6a:81:25:1a:c7:
                    7a:38:70:39:15:25:fb:41:3a:8d:6a:eb:69:b3:22:
                    e9:f3:2a:43:22:a8:fc:c4:15:0e:e9:c5:91:12:d7:
                    01:06:b4:7b:58:0e:45:a3:23:ae:bf:dc:d3:a9:ae:
                    8e:08:a7:78:ce:90:f3:3a:1d:b3:22:24:30:c2:e4:
                    e1:3e:27:ea:62:52:67:f3:03:72:36:c1:2f:ad:e6:
                    ed:a9:3a:93:90:c9:79:a4:fa:3f:b3:de:41:03:ff:
                    73:ba:22:6c:31:91:72:35:2c:93:df:f4:ff:95:ad:
                    40:a8:99:de:80:b6:a1:b7:54:ec:df:70:3a:a2:48:
                    2f:fc:c6:99:25:df:d7:d7:b2:06:85:9a:dc:f5:19:
                    79:c3:d7:af:58:fb:c5:8d:23:1c:87:f3:96:f5:48:
                    ef:c3:71:7a:40:ca:e3:e0:8d:1c:cb:40:d6:39:e0:
                    83:6f
                Exponent: 65537 (0x10001)
        X509v3 extensions:
            X509v3 Basic Constraints: 
                CA:FALSE
            X509v3 Subject Key Identifier: 
                45:FF:18:CA:2B:C9:A4:B2:E9:D4:34:1A:81:01:33:45:6B:74:B1:AB
            X509v3 Authority Key Identifier: 
                keyid:4E:AB:23:13:62:92:A1:8A:9B:18:31:37:F9:5C:96:D8:31:B3:E3:2C
                DirName:/CN=team332-net
                serial:76:59:AD:19:7A:A5:FB:E7:1D:9D:0C:83:C4:89:CA:89:9A:84:6E:E7
            X509v3 Extended Key Usage: 
                TLS Web Server Authentication
            X509v3 Key Usage: 
                Digital Signature, Key Encipherment
            X509v3 Subject Alternative Name: 
                DNS:team332-server
    Signature Algorithm: sha256WithRSAEncryption
    Signature Value:
        7e:d3:c7:89:5e:dd:f3:3d:df:2d:2d:b2:83:be:cd:08:b5:92:
        7e:4d:f6:05:c9:37:38:90:6a:32:8d:a6:cc:2b:6b:ec:7a:2a:
        e5:18:81:d7:cb:6c:17:a2:d7:f7:0e:94:da:6d:84:d2:70:26:
        9f:3f:81:8e:47:00:2b:82:02:bd:2b:3c:ac:e2:6a:0f:f3:77:
        62:ee:09:f4:9d:30:bf:10:58:d1:ad:53:7f:0d:0f:ed:65:62:
        8b:d6:b6:9e:ec:4f:dd:47:a2:ed:91:fe:ad:c9:58:4b:c3:8b:
        ba:6a:67:84:54:bb:15:a7:98:4a:da:2e:39:22:59:57:7f:9d:
        e1:e1:0c:d5:6a:f9:ec:e9:e4:46:93:7f:4e:42:e8:f3:a2:df:
        a2:10:cc:a2:15:73:d9:82:38:9b:62:9d:f3:37:d0:38:86:c7:
        5b:26:41:6a:28:99:7a:b6:d7:ad:48:09:e0:12:35:20:05:e2:
        bf:dc:de:7a:bc:ba:7e:87:8d:a5:9b:fa:36:58:6b:5d:ce:a1:
        0d:46:0f:fd:77:58:70:cf:20:32:85:46:c4:11:ec:aa:d0:a8:
        6d:2a:9a:5d:6a:60:b7:5d:d2:43:87:8c:0e:7d:5e:fe:00:a4:
        eb:22:fa:7c:60:5c:51:5a:ae:2c:3b:af:9e:21:fa:38:6e:3b:
        cf:b7:5f:01
-----BEGIN CERTIFICATE-----
MIIDeDCCAmCgAwIBAgIRANWMwMoASAixizyQKvigzzUwDQYJKoZIhvcNAQELBQAw
FjEUMBIGA1UEAwwLdGVhbTMzMi1uZXQwHhcNMjMxMTA0MTA0NjQyWhcNMjYxMDE5
MTA0NjQyWjAZMRcwFQYDVQQDDA50ZWFtMzMyLXNlcnZlcjCCASIwDQYJKoZIhvcN
AQEBBQADggEPADCCAQoCggEBAMUuuIwl8VQHMO+kBAaABSgV24Et+zYdEfCLYda5
/mb6HyTTz7/Dpb+xvgecZVF/O5nWaHY6x9GA7Hd/hV3jDx7roXr+ePx8sFJhO1X+
g3+bDTMHN2qBJRrHejhwORUl+0E6jWrrabMi6fMqQyKo/MQVDunFkRLXAQa0e1gO
RaMjrr/c06mujgineM6Q8zodsyIkMMLk4T4n6mJSZ/MDcjbBL63m7ak6k5DJeaT6
P7PeQQP/c7oibDGRcjUsk9/0/5WtQKiZ3oC2obdU7N9wOqJIL/zGmSXf19eyBoWa
3PUZecPXr1j7xY0jHIfzlvVI78NxekDK4+CNHMtA1jngg28CAwEAAaOBvTCBujAJ
BgNVHRMEAjAAMB0GA1UdDgQWBBRF/xjKK8mksunUNBqBATNFa3SxqzBRBgNVHSME
SjBIgBROqyMTYpKhipsYMTf5XJbYMbPjLKEapBgwFjEUMBIGA1UEAwwLdGVhbTMz
Mi1uZXSCFHZZrRl6pfvnHZ0Mg8SJyomahG7nMBMGA1UdJQQMMAoGCCsGAQUFBwMB
MAsGA1UdDwQEAwIFoDAZBgNVHREEEjAQgg50ZWFtMzMyLXNlcnZlcjANBgkqhkiG
9w0BAQsFAAOCAQEAftPHiV7d8z3fLS2yg77NCLWSfk32Bck3OJBqMo2mzCtr7Hoq
5RiB18tsF6LX9w6U2m2E0nAmnz+BjkcAK4ICvSs8rOJqD/N3Yu4J9J0wvxBY0a1T
fw0P7WVii9a2nuxP3Uei7ZH+rclYS8OLumpnhFS7FaeYStouOSJZV3+d4eEM1Wr5
7OnkRpN/TkLo86LfohDMohVz2YI4m2Kd8zfQOIbHWyZBaiiZerbXrUgJ4BI1IAXi
v9zeery6foeNpZv6NlhrXc6hDUYP/XdYcM8gMoVGxBHsqtCobSqaXWpgt13SQ4eM
Dn1e/gCk6yL6fGBcUVquLDuvniH6OG47z7dfAQ==
-----END CERTIFICATE-----
