Certificate:
    Data:
        Version: 3 (0x2)
        Serial Number:
            3d:61:c2:cb:ea:26:05:b7:16:71:00:75:c0:f7:dd:53
        Signature Algorithm: sha256WithRSAEncryption
        Issuer: CN=team132-net
        Validity
            Not Before: Nov  4 10:42:58 2023 GMT
            Not After : Oct 19 10:42:58 2026 GMT
        Subject: CN=team132-server
        Subject Public Key Info:
            Public Key Algorithm: rsaEncryption
                Public-Key: (2048 bit)
                Modulus:
                    00:c5:4b:ac:2a:af:8f:6c:ff:65:0a:87:2e:e3:95:
                    7d:32:fc:5c:ca:78:71:bb:e2:0a:3b:de:c4:5b:99:
                    a4:41:88:73:d4:6e:d0:f5:4b:b9:0e:d2:8b:23:c4:
                    8b:cc:ea:81:b2:af:14:e3:54:6a:e2:c3:66:9e:21:
                    94:a6:c3:c9:04:27:8e:e5:64:d8:23:f8:dc:4d:09:
                    d9:57:d4:58:2c:8b:1f:27:e6:54:3d:68:54:5e:90:
                    a5:8f:5f:87:fe:78:05:e7:6b:53:7e:43:1e:44:da:
                    a2:1a:7f:38:95:c0:e0:69:0f:0d:a1:db:3e:14:fb:
                    18:2f:c1:e0:ef:81:0e:bb:97:64:ba:4e:08:bd:20:
                    60:cd:2b:94:9f:80:ef:38:d1:98:8e:eb:ad:f2:e2:
                    39:b0:40:cd:a7:f1:c6:dc:e3:e9:63:3c:04:14:2f:
                    16:58:54:23:3c:04:06:7b:fb:04:69:63:ff:03:93:
                    ea:6c:4b:31:96:cf:aa:10:8a:0d:de:e5:1d:dd:9a:
                    b6:dc:2b:01:93:ad:ed:0d:9e:60:b3:97:d6:ef:d6:
                    84:44:32:87:a9:1b:76:9b:56:c1:1e:ae:23:9b:38:
                    0e:74:38:f4:47:82:af:77:76:c9:45:f8:c9:c8:95:
                    67:81:70:47:bc:c6:be:84:ff:01:bd:28:87:69:a7:
                    65:8f
                Exponent: 65537 (0x10001)
        X509v3 extensions:
            X509v3 Basic Constraints: 
                CA:FALSE
            X509v3 Subject Key Identifier: 
                93:D5:51:FF:30:4A:7B:06:C4:D6:66:6A:0D:32:B3:D6:45:63:43:68
            X509v3 Authority Key Identifier: 
                keyid:FF:B3:4C:91:6B:5E:33:FF:09:65:DE:E4:92:16:FA:A7:DD:D4:6C:FB
                DirName:/CN=team132-net
                serial:1B:E7:C8:47:1C:57:43:4C:C1:3A:EE:C3:11:2D:F1:03:7B:37:5D:0F
            X509v3 Extended Key Usage: 
                TLS Web Server Authentication
            X509v3 Key Usage: 
                Digital Signature, Key Encipherment
            X509v3 Subject Alternative Name: 
                DNS:team132-server
    Signature Algorithm: sha256WithRSAEncryption
    Signature Value:
        48:01:f9:f4:36:5b:29:f1:db:06:f4:ba:ff:2c:ae:49:48:4b:
        f5:f3:63:b7:75:7b:44:1c:6b:dd:5e:aa:e6:60:6b:02:8e:ef:
        a1:58:a0:69:33:c8:a2:ad:a0:6f:f5:82:6a:a4:b7:f9:87:94:
        5f:e9:8a:d0:7d:41:de:67:22:bf:5e:4e:c9:e1:d5:6e:e0:bb:
        cc:57:30:d2:86:53:17:ec:8a:17:0b:f7:1e:dc:21:b4:b1:7a:
        3c:b4:31:6d:86:07:54:d1:7e:3a:27:73:f2:c2:04:3c:af:66:
        de:b8:9a:1b:5e:9b:09:58:9e:ac:f7:6a:16:86:54:4e:53:36:
        06:78:13:9a:68:46:45:3f:51:01:d8:ba:0a:03:3f:d6:4e:cf:
        00:5f:f0:17:b8:11:c6:2d:3f:33:2c:ab:90:dc:6f:5d:68:86:
        fd:e5:b1:d4:ca:ae:49:1d:6b:8c:3b:39:ed:05:ca:dc:b2:41:
        aa:80:59:b6:c7:d3:74:55:b7:a1:6c:3d:6c:10:c3:d9:37:fa:
        b8:f6:de:c2:2b:aa:a1:95:2c:0b:04:17:0a:05:d8:f1:58:55:
        00:2e:25:91:a2:c2:79:21:68:16:63:40:89:4f:44:b0:ab:4a:
        f1:5c:76:04:ee:d1:62:fb:54:09:2d:c1:2b:39:2b:b2:55:6e:
        5e:ff:28:72
-----BEGIN CERTIFICATE-----
MIIDdzCCAl+gAwIBAgIQPWHCy+omBbcWcQB1wPfdUzANBgkqhkiG9w0BAQsFADAW
MRQwEgYDVQQDDAt0ZWFtMTMyLW5ldDAeFw0yMzExMDQxMDQyNThaFw0yNjEwMTkx
MDQyNThaMBkxFzAVBgNVBAMMDnRlYW0xMzItc2VydmVyMIIBIjANBgkqhkiG9w0B
AQEFAAOCAQ8AMIIBCgKCAQEAxUusKq+PbP9lCocu45V9Mvxcynhxu+IKO97EW5mk
QYhz1G7Q9Uu5DtKLI8SLzOqBsq8U41Rq4sNmniGUpsPJBCeO5WTYI/jcTQnZV9RY
LIsfJ+ZUPWhUXpClj1+H/ngF52tTfkMeRNqiGn84lcDgaQ8Nods+FPsYL8Hg74EO
u5dkuk4IvSBgzSuUn4DvONGYjuut8uI5sEDNp/HG3OPpYzwEFC8WWFQjPAQGe/sE
aWP/A5PqbEsxls+qEIoN3uUd3Zq23CsBk63tDZ5gs5fW79aERDKHqRt2m1bBHq4j
mzgOdDj0R4Kvd3bJRfjJyJVngXBHvMa+hP8BvSiHaadljwIDAQABo4G9MIG6MAkG
A1UdEwQCMAAwHQYDVR0OBBYEFJPVUf8wSnsGxNZmag0ys9ZFY0NoMFEGA1UdIwRK
MEiAFP+zTJFrXjP/CWXe5JIW+qfd1Gz7oRqkGDAWMRQwEgYDVQQDDAt0ZWFtMTMy
LW5ldIIUG+fIRxxXQ0zBOu7DES3xA3s3XQ8wEwYDVR0lBAwwCgYIKwYBBQUHAwEw
CwYDVR0PBAQDAgWgMBkGA1UdEQQSMBCCDnRlYW0xMzItc2VydmVyMA0GCSqGSIb3
DQEBCwUAA4IBAQBIAfn0Nlsp8dsG9Lr/LK5JSEv182O3dXtEHGvdXqrmYGsCju+h
WKBpM8iiraBv9YJqpLf5h5Rf6YrQfUHeZyK/Xk7J4dVu4LvMVzDShlMX7IoXC/ce
3CG0sXo8tDFthgdU0X46J3PywgQ8r2beuJobXpsJWJ6s92oWhlROUzYGeBOaaEZF
P1EB2LoKAz/WTs8AX/AXuBHGLT8zLKuQ3G9daIb95bHUyq5JHWuMOzntBcrcskGq
gFm2x9N0VbehbD1sEMPZN/q49t7CK6qhlSwLBBcKBdjxWFUALiWRosJ5IWgWY0CJ
T0Swq0rxXHYE7tFi+1QJLcErOSuyVW5e/yhy
-----END CERTIFICATE-----
