Certificate:
    Data:
        Version: 3 (0x2)
        Serial Number:
            3d:c1:a4:b1:b8:8a:1e:54:98:2e:8e:0d:82:8d:ea:5c
        Signature Algorithm: sha256WithRSAEncryption
        Issuer: CN=team132-net
        Validity
            Not Before: Nov  4 11:30:06 2023 GMT
            Not After : Oct 19 11:30:06 2026 GMT
        Subject: CN=team132-client
        Subject Public Key Info:
            Public Key Algorithm: rsaEncryption
                Public-Key: (2048 bit)
                Modulus:
                    00:9f:a1:5d:59:c3:fd:c6:b6:5c:da:99:3c:98:93:
                    c0:00:7c:8c:3e:ba:64:4e:27:09:28:5a:a2:fc:04:
                    ed:47:e6:44:6d:86:bd:83:33:40:f3:7c:48:e4:70:
                    7f:f6:88:78:83:79:8d:b3:22:3a:9b:b3:46:78:3d:
                    eb:5c:8e:a0:99:12:91:f2:91:22:28:57:d8:12:9e:
                    cd:cd:f9:76:cb:43:bb:56:01:fe:e1:89:61:f2:47:
                    aa:11:77:da:c8:40:c1:02:ba:6d:d6:58:25:4d:a4:
                    b3:86:f1:fa:c9:3f:b0:12:e4:19:f6:1d:6f:64:21:
                    6f:99:cd:9d:82:fd:28:99:c2:ea:2a:b3:69:d0:f4:
                    dd:b1:68:52:91:d9:5a:2a:52:8d:2b:e5:35:78:39:
                    8a:6f:ce:ba:8e:5a:c2:6c:0e:cf:0f:6f:42:3c:bb:
                    4a:f9:6c:82:11:34:71:6b:5d:c3:a4:4a:50:58:de:
                    46:a8:b2:50:06:58:64:46:b0:c3:0b:ef:33:c0:d8:
                    52:df:df:2a:7e:52:71:b9:92:5d:74:eb:55:dd:ee:
                    e8:c4:8c:23:1e:a5:6b:7e:1c:f9:8f:3f:af:35:58:
                    73:63:52:73:89:24:5d:86:56:a3:e9:7c:42:71:e3:
                    84:1b:68:0b:96:38:b5:04:e5:bb:70:4a:76:45:36:
                    92:d1
                Exponent: 65537 (0x10001)
        X509v3 extensions:
            X509v3 Basic Constraints: 
                CA:FALSE
            X509v3 Subject Key Identifier: 
                C5:05:3F:C0:48:51:96:9C:47:2B:0B:CD:8C:3A:4C:3B:A5:B9:3A:41
            X509v3 Authority Key Identifier: 
                keyid:BF:5D:9E:46:9A:B4:ED:25:8C:76:7B:B4:48:4F:B9:3A:2B:DD:01:CF
                DirName:/CN=team132-net
                serial:31:B4:7F:CF:72:2B:50:C0:E0:BD:68:EA:08:01:82:89:31:D6:74:C8
            X509v3 Extended Key Usage: 
                TLS Web Client Authentication
            X509v3 Key Usage: 
                Digital Signature
    Signature Algorithm: sha256WithRSAEncryption
    Signature Value:
        7e:78:14:4a:29:a7:9e:5c:c6:dc:77:bc:92:00:5b:8f:51:42:
        74:8f:90:ae:bc:ec:64:0a:9c:b5:4e:9d:57:fb:d7:dd:86:a4:
        ba:21:0c:ee:28:bd:5f:4d:75:2e:5f:1b:53:0a:f8:2f:7d:f2:
        0f:14:95:b1:e5:fe:28:18:7a:40:c7:6f:57:50:10:07:8e:93:
        67:77:f3:da:b2:6c:0d:fc:51:cc:e6:97:a6:eb:94:7a:ed:01:
        81:aa:6a:e7:58:21:fb:28:bd:25:03:d8:be:ae:8e:0e:17:d0:
        5a:b1:4e:64:41:16:70:58:97:86:53:6e:b9:ff:88:c2:97:5f:
        3a:8d:60:d5:1c:45:97:a1:63:b2:05:f2:86:81:4c:9f:34:f2:
        6b:a5:89:a4:d4:c4:58:a4:3d:75:a1:4e:85:01:2e:40:67:09:
        73:52:1e:82:17:10:3a:ea:72:46:41:01:19:3e:ec:dd:24:b0:
        c8:cc:ea:d0:d8:a6:5d:79:8b:68:cb:01:7d:4e:2e:2b:53:10:
        76:e1:27:c9:eb:e0:0b:07:23:58:9c:14:e9:af:5c:a6:7f:c6:
        e5:24:b7:ff:21:87:d9:75:6a:4a:7e:9a:7d:e3:3a:f0:c6:ce:
        60:7f:f1:7a:fd:e5:37:f1:16:18:e2:71:a1:25:b9:65:93:ce:
        75:2b:c7:38
-----BEGIN CERTIFICATE-----
MIIDXDCCAkSgAwIBAgIQPcGksbiKHlSYLo4Ngo3qXDANBgkqhkiG9w0BAQsFADAW
MRQwEgYDVQQDDAt0ZWFtMTMyLW5ldDAeFw0yMzExMDQxMTMwMDZaFw0yNjEwMTkx
MTMwMDZaMBkxFzAVBgNVBAMMDnRlYW0xMzItY2xpZW50MIIBIjANBgkqhkiG9w0B
AQEFAAOCAQ8AMIIBCgKCAQEAn6FdWcP9xrZc2pk8mJPAAHyMPrpkTicJKFqi/ATt
R+ZEbYa9gzNA83xI5HB/9oh4g3mNsyI6m7NGeD3rXI6gmRKR8pEiKFfYEp7Nzfl2
y0O7VgH+4Ylh8keqEXfayEDBArpt1lglTaSzhvH6yT+wEuQZ9h1vZCFvmc2dgv0o
mcLqKrNp0PTdsWhSkdlaKlKNK+U1eDmKb866jlrCbA7PD29CPLtK+WyCETRxa13D
pEpQWN5GqLJQBlhkRrDDC+8zwNhS398qflJxuZJddOtV3e7oxIwjHqVrfhz5jz+v
NVhzY1JziSRdhlaj6XxCceOEG2gLlji1BOW7cEp2RTaS0QIDAQABo4GiMIGfMAkG
A1UdEwQCMAAwHQYDVR0OBBYEFMUFP8BIUZacRysLzYw6TDuluTpBMFEGA1UdIwRK
MEiAFL9dnkaatO0ljHZ7tEhPuTor3QHPoRqkGDAWMRQwEgYDVQQDDAt0ZWFtMTMy
LW5ldIIUMbR/z3IrUMDgvWjqCAGCiTHWdMgwEwYDVR0lBAwwCgYIKwYBBQUHAwIw
CwYDVR0PBAQDAgeAMA0GCSqGSIb3DQEBCwUAA4IBAQB+eBRKKaeeXMbcd7ySAFuP
UUJ0j5CuvOxkCpy1Tp1X+9fdhqS6IQzuKL1fTXUuXxtTCvgvffIPFJWx5f4oGHpA
x29XUBAHjpNnd/PasmwN/FHM5pem65R67QGBqmrnWCH7KL0lA9i+ro4OF9BasU5k
QRZwWJeGU265/4jCl186jWDVHEWXoWOyBfKGgUyfNPJrpYmk1MRYpD11oU6FAS5A
ZwlzUh6CFxA66nJGQQEZPuzdJLDIzOrQ2KZdeYtoywF9Ti4rUxB24SfJ6+ALByNY
nBTpr1ymf8blJLf/IYfZdWpKfpp94zrwxs5gf/F6/eU38RYY4nGhJbllk851K8c4
-----END CERTIFICATE-----
