Certificate:
    Data:
        Version: 3 (0x2)
        Serial Number:
            5d:3f:70:56:56:85:1d:80:62:fc:e0:39:5a:1a:cf:1a
        Signature Algorithm: sha256WithRSAEncryption
        Issuer: CN=team132-net
        Validity
            Not Before: Nov  4 10:42:58 2023 GMT
            Not After : Oct 19 10:42:58 2026 GMT
        Subject: CN=team132-client
        Subject Public Key Info:
            Public Key Algorithm: rsaEncryption
                Public-Key: (2048 bit)
                Modulus:
                    00:ce:91:3a:82:7b:fe:58:88:84:9d:87:6f:97:7a:
                    85:ca:d2:ca:98:40:b9:99:54:5e:63:1a:c2:6d:ed:
                    8f:2f:5e:77:95:36:23:f8:e0:98:76:24:b6:f2:8f:
                    74:53:83:a6:3b:f4:02:38:ce:c5:6c:cb:8c:72:ec:
                    07:fb:a4:77:df:5d:a7:a1:c0:a3:9a:3b:9a:b5:9b:
                    34:bd:aa:b2:f1:ab:41:3f:e9:23:f9:dd:e5:55:01:
                    51:99:7c:37:70:69:c7:c1:93:ab:c2:fa:12:b5:7b:
                    15:6c:68:f7:42:8d:1f:23:b8:0e:00:9f:85:4b:9f:
                    63:7a:83:c0:80:f0:2c:44:06:f2:1e:62:58:21:e3:
                    f4:1f:03:90:0f:33:23:2d:46:9c:f5:21:d5:13:d8:
                    cb:42:e0:23:d2:b0:85:e1:32:25:b5:19:c5:51:0c:
                    56:51:76:e7:26:51:e9:0a:2f:d6:14:78:68:52:c9:
                    83:00:f1:3e:e0:19:f8:df:53:14:b3:57:ab:b4:97:
                    e9:44:4f:6f:6d:5f:f9:b7:4e:3d:51:52:56:35:59:
                    c1:02:49:bf:1b:b6:cc:8a:88:5f:0f:c3:b4:4a:0b:
                    1e:94:26:28:19:bd:1a:42:a7:93:13:18:21:fc:35:
                    75:0f:dd:2e:43:25:0a:41:34:ca:66:50:b3:30:17:
                    b0:d5
                Exponent: 65537 (0x10001)
        X509v3 extensions:
            X509v3 Basic Constraints: 
                CA:FALSE
            X509v3 Subject Key Identifier: 
                66:CA:6F:EF:A6:04:C4:69:A6:04:0E:D7:F9:81:CC:FA:A6:D1:D2:5B
            X509v3 Authority Key Identifier: 
                keyid:FF:B3:4C:91:6B:5E:33:FF:09:65:DE:E4:92:16:FA:A7:DD:D4:6C:FB
                DirName:/CN=team132-net
                serial:1B:E7:C8:47:1C:57:43:4C:C1:3A:EE:C3:11:2D:F1:03:7B:37:5D:0F
            X509v3 Extended Key Usage: 
                TLS Web Client Authentication
            X509v3 Key Usage: 
                Digital Signature
    Signature Algorithm: sha256WithRSAEncryption
    Signature Value:
        26:97:b6:c3:17:60:74:19:ef:bd:88:14:a7:21:fa:57:48:00:
        82:78:c4:51:56:18:33:90:64:38:ed:dc:2a:81:c5:d8:67:45:
        39:d7:83:4a:6b:43:7f:fa:ed:b2:44:35:d9:ae:cc:80:95:38:
        03:71:df:27:93:8b:8d:1f:14:8a:cd:1f:da:07:ec:f6:4b:39:
        b4:4d:1f:5c:4c:53:7d:81:10:cc:de:d3:27:6c:d0:d1:c5:30:
        c0:45:68:14:ae:b3:cb:e0:65:fa:ff:46:4a:d0:2b:ef:30:aa:
        4a:a3:4d:91:db:dc:41:fd:7b:df:94:0a:98:c0:f3:74:51:ff:
        81:83:95:b5:04:7c:84:95:4c:90:03:48:70:14:f5:89:34:28:
        e6:32:f2:41:03:99:71:1d:1e:60:b0:3c:08:21:8f:df:ef:6f:
        30:2a:0a:28:26:e3:70:c1:5c:26:67:94:0e:ab:91:d7:0c:63:
        51:98:3c:93:7e:75:27:40:b3:49:1b:64:ac:e0:37:a1:28:e0:
        7a:58:c6:1e:36:53:9e:3d:c4:ca:55:90:8a:d9:4f:39:3a:c1:
        2a:51:a5:74:34:29:e3:35:c8:ff:f5:5e:92:32:31:58:f1:a2:
        ac:46:80:01:28:86:3d:61:50:1b:ab:2d:20:12:61:af:57:f5:
        09:1f:3c:be
-----BEGIN CERTIFICATE-----
MIIDXDCCAkSgAwIBAgIQXT9wVlaFHYBi/OA5WhrPGjANBgkqhkiG9w0BAQsFADAW
MRQwEgYDVQQDDAt0ZWFtMTMyLW5ldDAeFw0yMzExMDQxMDQyNThaFw0yNjEwMTkx
MDQyNThaMBkxFzAVBgNVBAMMDnRlYW0xMzItY2xpZW50MIIBIjANBgkqhkiG9w0B
AQEFAAOCAQ8AMIIBCgKCAQEAzpE6gnv+WIiEnYdvl3qFytLKmEC5mVReYxrCbe2P
L153lTYj+OCYdiS28o90U4OmO/QCOM7FbMuMcuwH+6R3312nocCjmjuatZs0vaqy
8atBP+kj+d3lVQFRmXw3cGnHwZOrwvoStXsVbGj3Qo0fI7gOAJ+FS59jeoPAgPAs
RAbyHmJYIeP0HwOQDzMjLUac9SHVE9jLQuAj0rCF4TIltRnFUQxWUXbnJlHpCi/W
FHhoUsmDAPE+4Bn431MUs1ertJfpRE9vbV/5t049UVJWNVnBAkm/G7bMiohfD8O0
SgselCYoGb0aQqeTExgh/DV1D90uQyUKQTTKZlCzMBew1QIDAQABo4GiMIGfMAkG
A1UdEwQCMAAwHQYDVR0OBBYEFGbKb++mBMRppgQO1/mBzPqm0dJbMFEGA1UdIwRK
MEiAFP+zTJFrXjP/CWXe5JIW+qfd1Gz7oRqkGDAWMRQwEgYDVQQDDAt0ZWFtMTMy
LW5ldIIUG+fIRxxXQ0zBOu7DES3xA3s3XQ8wEwYDVR0lBAwwCgYIKwYBBQUHAwIw
CwYDVR0PBAQDAgeAMA0GCSqGSIb3DQEBCwUAA4IBAQAml7bDF2B0Ge+9iBSnIfpX
SACCeMRRVhgzkGQ47dwqgcXYZ0U514NKa0N/+u2yRDXZrsyAlTgDcd8nk4uNHxSK
zR/aB+z2Szm0TR9cTFN9gRDM3tMnbNDRxTDARWgUrrPL4GX6/0ZK0CvvMKpKo02R
29xB/XvflAqYwPN0Uf+Bg5W1BHyElUyQA0hwFPWJNCjmMvJBA5lxHR5gsDwIIY/f
728wKgooJuNwwVwmZ5QOq5HXDGNRmDyTfnUnQLNJG2Ss4DehKOB6WMYeNlOePcTK
VZCK2U85OsEqUaV0NCnjNcj/9V6SMjFY8aKsRoABKIY9YVAbqy0gEmGvV/UJHzy+
-----END CERTIFICATE-----
