Certificate:
    Data:
        Version: 3 (0x2)
        Serial Number:
            86:ef:ff:30:34:ed:bf:ce:08:ee:cd:16:36:1d:9d:a5
        Signature Algorithm: sha256WithRSAEncryption
        Issuer: CN=team132-net
        Validity
            Not Before: Nov  4 11:30:06 2023 GMT
            Not After : Oct 19 11:30:06 2026 GMT
        Subject: CN=team132-server
        Subject Public Key Info:
            Public Key Algorithm: rsaEncryption
                Public-Key: (2048 bit)
                Modulus:
                    00:ba:3e:ee:9e:9c:90:41:c6:a4:d5:7d:81:40:07:
                    e0:6b:4b:3c:40:ef:0a:83:a7:ad:8c:43:22:7d:fa:
                    df:4e:a7:68:1d:2c:6e:eb:54:65:03:c5:f7:73:a8:
                    33:3b:93:5a:15:2d:c3:a1:02:e2:3f:0d:34:4b:cd:
                    a3:2c:10:50:d9:de:b1:ce:23:95:5b:8f:2e:20:b4:
                    a7:c8:ce:08:95:2d:8f:55:56:a1:aa:5a:13:ec:d2:
                    c3:6e:94:8c:07:f7:c1:e4:f1:43:93:5f:df:50:3d:
                    79:60:55:f0:e6:dd:cd:b9:ff:1d:5e:cd:01:b8:bd:
                    10:da:ce:8d:1d:0d:40:6c:03:1f:3d:eb:89:e6:6b:
                    8f:bf:f1:8b:2b:22:68:da:60:96:60:95:9a:a9:7b:
                    3f:3a:d7:d6:25:ee:aa:ea:45:4d:17:01:70:6a:44:
                    98:db:cc:26:6b:2a:ec:82:c2:cd:d9:a2:10:a9:ec:
                    f6:00:06:3c:eb:be:89:c0:67:b1:39:8e:1c:c6:3b:
                    ef:f6:bc:1e:f6:85:f6:66:07:92:d9:b4:ac:9d:25:
                    dc:20:e7:e7:b0:48:d6:3d:ee:fd:69:f1:38:a2:50:
                    ea:16:41:75:12:fa:4a:56:3b:a8:26:39:5b:34:81:
                    fb:e2:b8:ae:ab:c8:60:07:a8:27:3c:e6:52:34:f0:
                    ce:a3
                Exponent: 65537 (0x10001)
        X509v3 extensions:
            X509v3 Basic Constraints: 
                CA:FALSE
            X509v3 Subject Key Identifier: 
                D1:D3:48:2D:48:D2:4B:BC:87:06:6C:01:AE:86:13:E4:27:B6:56:4B
            X509v3 Authority Key Identifier: 
                keyid:BF:5D:9E:46:9A:B4:ED:25:8C:76:7B:B4:48:4F:B9:3A:2B:DD:01:CF
                DirName:/CN=team132-net
                serial:31:B4:7F:CF:72:2B:50:C0:E0:BD:68:EA:08:01:82:89:31:D6:74:C8
            X509v3 Extended Key Usage: 
                TLS Web Server Authentication
            X509v3 Key Usage: 
                Digital Signature, Key Encipherment
            X509v3 Subject Alternative Name: 
                DNS:team132-server
    Signature Algorithm: sha256WithRSAEncryption
    Signature Value:
        c8:23:80:2e:63:30:7c:6a:e2:4d:0d:1f:cb:1f:a8:94:e1:c9:
        29:ab:2f:32:84:96:e7:48:46:8a:ea:3b:f6:86:37:20:94:78:
        1b:e0:5b:66:4c:ef:4b:a3:30:ed:05:f1:51:3a:2a:20:6e:19:
        23:e4:42:72:53:c5:43:24:c3:7b:3a:53:06:e8:b5:d2:df:b8:
        cd:68:29:4a:15:1c:50:c5:96:5a:c8:f8:ae:b2:c2:81:d6:2e:
        84:c5:02:08:de:73:79:4f:ff:d0:04:34:d4:3d:9f:42:aa:b7:
        88:c6:08:81:cd:bc:ff:d8:03:39:20:4c:cb:f5:5c:42:41:60:
        9b:00:bd:fd:e1:23:99:47:27:ba:2f:3c:48:2a:b6:88:f5:33:
        08:45:37:e0:45:04:10:5a:66:d6:e8:78:e6:21:ba:88:6e:b6:
        19:61:e6:a2:5b:85:11:97:83:74:56:80:87:8d:19:a4:30:61:
        5d:bc:a6:b2:ad:29:0d:af:8a:b3:29:b7:2a:58:09:ea:9b:d1:
        07:57:b0:82:54:c5:c6:71:66:09:01:b1:73:c3:84:dd:de:a5:
        bc:9b:37:4a:fe:39:52:a7:35:36:76:10:02:69:7e:28:24:34:
        5a:b0:7d:9b:c6:42:79:ec:30:e6:59:6f:12:d5:c1:6e:c1:25:
        ae:3e:0d:c9
-----BEGIN CERTIFICATE-----
MIIDeDCCAmCgAwIBAgIRAIbv/zA07b/OCO7NFjYdnaUwDQYJKoZIhvcNAQELBQAw
FjEUMBIGA1UEAwwLdGVhbTEzMi1uZXQwHhcNMjMxMTA0MTEzMDA2WhcNMjYxMDE5
MTEzMDA2WjAZMRcwFQYDVQQDDA50ZWFtMTMyLXNlcnZlcjCCASIwDQYJKoZIhvcN
AQEBBQADggEPADCCAQoCggEBALo+7p6ckEHGpNV9gUAH4GtLPEDvCoOnrYxDIn36
306naB0sbutUZQPF93OoMzuTWhUtw6EC4j8NNEvNoywQUNnesc4jlVuPLiC0p8jO
CJUtj1VWoapaE+zSw26UjAf3weTxQ5Nf31A9eWBV8Obdzbn/HV7NAbi9ENrOjR0N
QGwDHz3rieZrj7/xiysiaNpglmCVmql7PzrX1iXuqupFTRcBcGpEmNvMJmsq7ILC
zdmiEKns9gAGPOu+icBnsTmOHMY77/a8HvaF9mYHktm0rJ0l3CDn57BI1j3u/Wnx
OKJQ6hZBdRL6SlY7qCY5WzSB++K4rqvIYAeoJzzmUjTwzqMCAwEAAaOBvTCBujAJ
BgNVHRMEAjAAMB0GA1UdDgQWBBTR00gtSNJLvIcGbAGuhhPkJ7ZWSzBRBgNVHSME
SjBIgBS/XZ5GmrTtJYx2e7RIT7k6K90Bz6EapBgwFjEUMBIGA1UEAwwLdGVhbTEz
Mi1uZXSCFDG0f89yK1DA4L1o6ggBgokx1nTIMBMGA1UdJQQMMAoGCCsGAQUFBwMB
MAsGA1UdDwQEAwIFoDAZBgNVHREEEjAQgg50ZWFtMTMyLXNlcnZlcjANBgkqhkiG
9w0BAQsFAAOCAQEAyCOALmMwfGriTQ0fyx+olOHJKasvMoSW50hGiuo79oY3IJR4
G+BbZkzvS6Mw7QXxUToqIG4ZI+RCclPFQyTDezpTBui10t+4zWgpShUcUMWWWsj4
rrLCgdYuhMUCCN5zeU//0AQ01D2fQqq3iMYIgc28/9gDOSBMy/VcQkFgmwC9/eEj
mUcnui88SCq2iPUzCEU34EUEEFpm1uh45iG6iG62GWHmoluFEZeDdFaAh40ZpDBh
Xbymsq0pDa+Ksym3KlgJ6pvRB1ewglTFxnFmCQGxc8OE3d6lvJs3Sv45Uqc1NnYQ
Aml+KCQ0WrB9m8ZCeeww5llvEtXBbsElrj4NyQ==
-----END CERTIFICATE-----
