Certificate:
    Data:
        Version: 3 (0x2)
        Serial Number:
            85:cb:0a:cf:5e:f7:2e:19:07:4c:0a:8a:18:7a:61:21
        Signature Algorithm: sha256WithRSAEncryption
        Issuer: CN=team436-net
        Validity
            Not Before: Nov  3 20:47:10 2023 GMT
            Not After : Oct 18 20:47:10 2026 GMT
        Subject: CN=team436-server
        Subject Public Key Info:
            Public Key Algorithm: rsaEncryption
                Public-Key: (2048 bit)
                Modulus:
                    00:bf:d4:f1:d9:c2:40:94:7d:fe:cc:5d:c4:6e:92:
                    c5:9c:d6:03:70:5a:c6:f3:26:f9:7e:8d:fd:60:69:
                    ac:ef:1e:71:b3:04:b4:dd:10:ac:c5:c0:66:bc:ee:
                    af:e4:b3:cc:4f:81:81:23:58:25:aa:af:2c:0f:c9:
                    ab:2e:35:5d:a4:8b:ad:1c:cf:e5:11:be:b2:d7:3e:
                    85:46:6d:73:d7:f7:45:9b:de:c8:70:9e:2c:41:bc:
                    4e:db:c9:f5:1e:2f:37:6f:af:1b:8c:52:75:1f:d9:
                    ab:97:dd:99:b1:0a:4c:ae:f3:3d:4d:f1:d1:f5:a9:
                    2d:a8:8a:d3:24:bb:07:e7:d2:fd:ac:53:13:de:48:
                    ab:f8:c0:5e:f0:b7:87:d5:82:eb:5d:0a:f7:2e:ed:
                    e8:f4:c1:6c:a7:bc:79:f7:a4:1c:ba:cd:e9:1b:51:
                    32:15:53:d9:47:b6:66:b8:e2:9b:c5:e6:7d:3c:c6:
                    ff:27:df:ef:c4:0a:60:86:de:e5:f3:9b:66:6e:8e:
                    93:19:0a:e3:43:30:b1:b8:dc:62:a8:09:fd:9d:50:
                    b8:18:e5:83:77:35:77:ff:8e:18:97:77:e8:eb:b3:
                    87:ef:6c:83:53:ef:74:80:24:85:6d:50:56:bf:41:
                    c1:3a:d2:c4:12:2c:2d:3c:9f:23:4a:38:38:f0:8b:
                    69:35
                Exponent: 65537 (0x10001)
        X509v3 extensions:
            X509v3 Basic Constraints: 
                CA:FALSE
            X509v3 Subject Key Identifier: 
                74:09:69:DB:0F:BF:39:A8:DF:12:DA:98:C0:88:03:5C:73:8E:2D:06
            X509v3 Authority Key Identifier: 
                keyid:7E:03:94:02:2B:39:08:87:6D:04:BB:91:05:3D:C9:1C:FE:85:6D:BD
                DirName:/CN=team436-net
                serial:0A:86:79:6B:F9:0D:6B:15:DE:FE:62:94:B4:58:B2:B6:7C:6B:CB:13
            X509v3 Extended Key Usage: 
                TLS Web Server Authentication
            X509v3 Key Usage: 
                Digital Signature, Key Encipherment
            X509v3 Subject Alternative Name: 
                DNS:team436-server
    Signature Algorithm: sha256WithRSAEncryption
    Signature Value:
        67:82:8e:ae:35:cc:8d:88:c2:c1:e4:4a:51:46:fa:8d:5d:ec:
        7c:30:4e:41:b3:ed:ee:b6:b9:0c:c6:a3:f3:86:45:ed:94:48:
        d8:4d:2c:c1:31:ed:cd:dc:e7:13:07:cc:10:9f:5d:ae:93:43:
        b5:57:59:4c:49:4a:70:cc:ba:cf:8c:23:96:cd:03:00:76:fa:
        fc:61:16:1f:44:9a:7e:78:5b:ee:93:f9:81:d1:2a:7b:b0:8a:
        38:9c:e3:cf:e1:07:c4:87:d5:08:c4:3a:9e:69:ec:fa:8a:ca:
        8b:a2:f9:4b:d3:1c:13:e7:a2:06:00:ad:bb:ef:0a:84:dd:28:
        a3:80:89:67:34:14:ea:21:c0:b5:a3:72:3e:85:ed:82:bf:bf:
        8b:a0:50:d4:b3:3b:8e:3d:89:cb:18:81:ad:2a:69:ed:61:a2:
        40:e8:37:1e:61:fc:53:6f:d2:54:9d:6c:09:46:5b:be:c8:e1:
        60:d7:b8:2e:52:73:ba:7f:72:f5:1c:5e:24:ab:fb:38:76:56:
        07:99:24:2d:60:af:e9:44:33:23:48:79:87:67:49:53:9d:1e:
        93:30:6d:84:a2:15:e0:ca:e9:29:55:fd:c7:9f:1e:af:4d:c3:
        12:3b:e6:14:4f:67:bb:d3:2b:93:83:a9:e1:46:9d:da:82:bd:
        17:3a:b2:85
-----BEGIN CERTIFICATE-----
MIIDeDCCAmCgAwIBAgIRAIXLCs9e9y4ZB0wKihh6YSEwDQYJKoZIhvcNAQELBQAw
FjEUMBIGA1UEAwwLdGVhbTQzNi1uZXQwHhcNMjMxMTAzMjA0NzEwWhcNMjYxMDE4
MjA0NzEwWjAZMRcwFQYDVQQDDA50ZWFtNDM2LXNlcnZlcjCCASIwDQYJKoZIhvcN
AQEBBQADggEPADCCAQoCggEBAL/U8dnCQJR9/sxdxG6SxZzWA3BaxvMm+X6N/WBp
rO8ecbMEtN0QrMXAZrzur+SzzE+BgSNYJaqvLA/Jqy41XaSLrRzP5RG+stc+hUZt
c9f3RZveyHCeLEG8TtvJ9R4vN2+vG4xSdR/Zq5fdmbEKTK7zPU3x0fWpLaiK0yS7
B+fS/axTE95Iq/jAXvC3h9WC610K9y7t6PTBbKe8efekHLrN6RtRMhVT2Ue2Zrji
m8XmfTzG/yff78QKYIbe5fObZm6OkxkK40MwsbjcYqgJ/Z1QuBjlg3c1d/+OGJd3
6Ouzh+9sg1PvdIAkhW1QVr9BwTrSxBIsLTyfI0o4OPCLaTUCAwEAAaOBvTCBujAJ
BgNVHRMEAjAAMB0GA1UdDgQWBBR0CWnbD785qN8S2pjAiANcc44tBjBRBgNVHSME
SjBIgBR+A5QCKzkIh20Eu5EFPckc/oVtvaEapBgwFjEUMBIGA1UEAwwLdGVhbTQz
Ni1uZXSCFAqGeWv5DWsV3v5ilLRYsrZ8a8sTMBMGA1UdJQQMMAoGCCsGAQUFBwMB
MAsGA1UdDwQEAwIFoDAZBgNVHREEEjAQgg50ZWFtNDM2LXNlcnZlcjANBgkqhkiG
9w0BAQsFAAOCAQEAZ4KOrjXMjYjCweRKUUb6jV3sfDBOQbPt7ra5DMaj84ZF7ZRI
2E0swTHtzdznEwfMEJ9drpNDtVdZTElKcMy6z4wjls0DAHb6/GEWH0Safnhb7pP5
gdEqe7CKOJzjz+EHxIfVCMQ6nmns+orKi6L5S9McE+eiBgCtu+8KhN0oo4CJZzQU
6iHAtaNyPoXtgr+/i6BQ1LM7jj2JyxiBrSpp7WGiQOg3HmH8U2/SVJ1sCUZbvsjh
YNe4LlJzun9y9RxeJKv7OHZWB5kkLWCv6UQzI0h5h2dJU50ekzBthKIV4MrpKVX9
x58er03DEjvmFE9nu9Mrk4Op4Uad2oK9FzqyhQ==
-----END CERTIFICATE-----
