Certificate:
    Data:
        Version: 3 (0x2)
        Serial Number:
            24:45:86:66:34:82:60:3d:65:1e:d8:a0:29:6e:b8:ee
        Signature Algorithm: sha256WithRSAEncryption
        Issuer: CN=team164-net
        Validity
            Not Before: Nov  3 20:42:11 2023 GMT
            Not After : Oct 18 20:42:11 2026 GMT
        Subject: CN=team164-server
        Subject Public Key Info:
            Public Key Algorithm: rsaEncryption
                Public-Key: (2048 bit)
                Modulus:
                    00:92:92:b3:81:d0:91:d2:dd:d0:18:e4:4b:1f:56:
                    e2:91:5e:29:08:25:aa:12:1b:81:70:66:02:ed:39:
                    9e:6c:5e:9f:6f:7b:27:bc:79:eb:c3:c8:2e:c8:c1:
                    65:99:cb:09:4a:7b:59:54:43:2d:ed:f2:7e:25:0b:
                    ea:b3:92:c1:1d:9d:3e:5f:6b:29:76:9a:9c:8f:d0:
                    bb:dc:9d:3d:b4:a0:68:ee:80:41:7b:6c:26:bf:ec:
                    64:4e:e8:ca:86:e8:ea:67:49:dd:9f:32:d4:3d:03:
                    5e:3c:bb:7b:06:7a:d9:67:00:c1:a5:cc:e6:07:a4:
                    f5:74:ed:70:0c:87:38:a8:a9:98:0e:07:08:96:3f:
                    60:c9:ed:5b:c0:9a:5d:05:cc:aa:3d:fe:d9:1d:77:
                    1b:b5:55:0f:83:6b:6c:bf:b5:a7:35:82:cb:24:9c:
                    88:04:5b:b0:b2:73:f1:46:bc:29:1c:aa:6f:78:fc:
                    cd:0c:86:0e:03:e6:24:53:58:87:9f:d2:8f:d0:13:
                    d7:6d:2c:db:2a:16:12:58:64:2b:46:8d:b6:4c:7b:
                    6c:aa:0b:f1:94:cf:80:48:2f:5a:53:17:ea:5f:71:
                    d4:36:c5:f7:00:cf:41:c9:f4:90:f2:5d:45:62:90:
                    6d:0e:20:f7:fa:38:19:16:a7:e0:de:24:24:77:da:
                    7d:b7
                Exponent: 65537 (0x10001)
        X509v3 extensions:
            X509v3 Basic Constraints: 
                CA:FALSE
            X509v3 Subject Key Identifier: 
                9A:C3:41:6E:16:23:B4:E9:0A:34:54:43:2E:15:AF:0E:28:25:CB:E0
            X509v3 Authority Key Identifier: 
                keyid:80:DB:CE:E3:7E:38:14:0C:EF:B2:60:FF:64:CC:66:14:D7:15:BE:40
                DirName:/CN=team164-net
                serial:74:C6:B5:A6:12:BE:AD:23:BA:77:44:20:70:01:52:1F:BB:41:35:DA
            X509v3 Extended Key Usage: 
                TLS Web Server Authentication
            X509v3 Key Usage: 
                Digital Signature, Key Encipherment
            X509v3 Subject Alternative Name: 
                DNS:team164-server
    Signature Algorithm: sha256WithRSAEncryption
    Signature Value:
        59:99:e0:fe:b0:1c:e6:9d:93:94:64:87:4b:99:4a:f6:aa:9f:
        91:5a:1b:91:84:00:76:1b:fa:24:41:b1:d1:9a:ba:39:8d:6f:
        0d:ce:a2:2b:9c:ac:d2:6c:77:83:b5:78:93:4a:11:b6:1b:34:
        fc:7b:69:20:56:68:7e:b1:6f:7e:83:89:18:e3:38:b8:cf:b8:
        ac:cb:0a:c5:58:a6:4c:d8:25:ed:4f:37:97:1b:95:5c:fb:e0:
        9b:9f:d4:77:24:73:88:33:6f:1c:e6:ed:40:5d:e0:47:6e:0a:
        9f:8b:ce:45:fe:d1:44:cb:a6:9b:22:ee:3c:85:0e:7d:91:2d:
        b2:f9:b6:09:33:69:d9:08:19:c5:83:75:ab:5c:20:a2:8a:d1:
        6f:24:5a:6e:22:10:4e:2f:9b:4a:38:3f:c6:b5:85:49:45:aa:
        a7:6b:1b:c4:95:50:4b:c0:e4:82:37:d5:f0:fe:7e:7b:c8:75:
        bf:be:f1:a6:2b:70:cb:44:fa:58:e4:49:a5:6a:61:d6:71:01:
        f1:c2:58:74:c0:1f:c6:51:8f:e8:f2:af:ac:2b:21:dc:ea:65:
        49:19:88:5d:8b:bd:45:eb:9d:a5:06:ec:55:93:a1:e0:be:c1:
        16:9a:3b:05:fa:0d:cf:2d:23:0b:1f:71:51:68:f1:cd:be:5a:
        c9:b5:70:3c
-----BEGIN CERTIFICATE-----
MIIDdzCCAl+gAwIBAgIQJEWGZjSCYD1lHtigKW647jANBgkqhkiG9w0BAQsFADAW
MRQwEgYDVQQDDAt0ZWFtMTY0LW5ldDAeFw0yMzExMDMyMDQyMTFaFw0yNjEwMTgy
MDQyMTFaMBkxFzAVBgNVBAMMDnRlYW0xNjQtc2VydmVyMIIBIjANBgkqhkiG9w0B
AQEFAAOCAQ8AMIIBCgKCAQEAkpKzgdCR0t3QGORLH1bikV4pCCWqEhuBcGYC7Tme
bF6fb3snvHnrw8guyMFlmcsJSntZVEMt7fJ+JQvqs5LBHZ0+X2spdpqcj9C73J09
tKBo7oBBe2wmv+xkTujKhujqZ0ndnzLUPQNePLt7BnrZZwDBpczmB6T1dO1wDIc4
qKmYDgcIlj9gye1bwJpdBcyqPf7ZHXcbtVUPg2tsv7WnNYLLJJyIBFuwsnPxRrwp
HKpvePzNDIYOA+YkU1iHn9KP0BPXbSzbKhYSWGQrRo22THtsqgvxlM+ASC9aUxfq
X3HUNsX3AM9ByfSQ8l1FYpBtDiD3+jgZFqfg3iQkd9p9twIDAQABo4G9MIG6MAkG
A1UdEwQCMAAwHQYDVR0OBBYEFJrDQW4WI7TpCjRUQy4Vrw4oJcvgMFEGA1UdIwRK
MEiAFIDbzuN+OBQM77Jg/2TMZhTXFb5AoRqkGDAWMRQwEgYDVQQDDAt0ZWFtMTY0
LW5ldIIUdMa1phK+rSO6d0QgcAFSH7tBNdowEwYDVR0lBAwwCgYIKwYBBQUHAwEw
CwYDVR0PBAQDAgWgMBkGA1UdEQQSMBCCDnRlYW0xNjQtc2VydmVyMA0GCSqGSIb3
DQEBCwUAA4IBAQBZmeD+sBzmnZOUZIdLmUr2qp+RWhuRhAB2G/okQbHRmro5jW8N
zqIrnKzSbHeDtXiTShG2GzT8e2kgVmh+sW9+g4kY4zi4z7isywrFWKZM2CXtTzeX
G5Vc++Cbn9R3JHOIM28c5u1AXeBHbgqfi85F/tFEy6abIu48hQ59kS2y+bYJM2nZ
CBnFg3WrXCCiitFvJFpuIhBOL5tKOD/GtYVJRaqnaxvElVBLwOSCN9Xw/n57yHW/
vvGmK3DLRPpY5EmlamHWcQHxwlh0wB/GUY/o8q+sKyHc6mVJGYhdi71F652lBuxV
k6HgvsEWmjsF+g3PLSMLH3FRaPHNvlrJtXA8
-----END CERTIFICATE-----
