Certificate:
    Data:
        Version: 3 (0x2)
        Serial Number:
            28:14:3b:f5:8a:6f:8f:3d:5e:72:b9:a2:78:d5:49:20
        Signature Algorithm: sha256WithRSAEncryption
        Issuer: CN=team164-net
        Validity
            Not Before: Nov  4 11:30:52 2023 GMT
            Not After : Oct 19 11:30:52 2026 GMT
        Subject: CN=team164-server
        Subject Public Key Info:
            Public Key Algorithm: rsaEncryption
                Public-Key: (2048 bit)
                Modulus:
                    00:c1:a1:89:0d:5a:7a:5b:52:0e:d9:50:53:98:ab:
                    99:84:13:52:49:c6:ce:b9:6e:86:71:ae:eb:3e:65:
                    34:04:d3:55:64:ce:f7:4f:50:2d:6f:ff:c5:fa:fd:
                    71:e8:10:d0:1c:b0:5e:bf:be:71:f1:a1:e1:30:fa:
                    1d:f9:16:39:e6:01:b9:68:f7:c7:b5:f9:e7:c3:fa:
                    ed:96:9d:03:13:6a:5a:1e:34:64:3b:b6:5c:3c:7c:
                    1f:f6:c5:82:1e:c3:3a:02:bf:39:9f:52:6b:69:0d:
                    b6:4e:ba:b7:64:fe:ee:a7:dd:87:ab:39:a6:8c:f8:
                    12:ca:46:f0:8d:d7:f6:b4:2e:86:c1:28:c6:95:1a:
                    38:7c:06:57:78:0d:33:a9:96:8b:1d:c9:70:e4:d6:
                    c9:9e:93:f4:65:78:8b:65:78:a9:89:06:73:32:92:
                    85:eb:cf:f3:78:01:a4:98:f6:4b:83:43:08:6d:18:
                    02:61:b9:49:5e:eb:e7:86:92:00:64:b7:bc:d3:92:
                    42:76:3d:3a:3a:f5:5b:8e:0d:12:02:33:df:b1:5e:
                    e9:2a:83:2e:d1:7f:f4:43:17:94:84:f1:e0:ec:92:
                    24:cc:d3:29:e9:4e:4c:30:2d:8c:73:31:66:e9:e4:
                    79:91:58:9b:3d:5b:2c:07:2d:f4:3c:29:9d:ca:c6:
                    c3:0f
                Exponent: 65537 (0x10001)
        X509v3 extensions:
            X509v3 Basic Constraints: 
                CA:FALSE
            X509v3 Subject Key Identifier: 
                43:C0:DD:C0:F7:18:48:50:D9:6B:3E:0E:E0:BC:4C:2C:1C:A7:55:8B
            X509v3 Authority Key Identifier: 
                keyid:09:98:F7:EC:B8:D3:59:1D:0D:F0:BF:2F:67:5D:09:6A:35:43:42:93
                DirName:/CN=team164-net
                serial:FB:93:BD:27:09:03:FD:C4:E9:C9:60:F4:F4:BB:D3:BE:96:5A:92
            X509v3 Extended Key Usage: 
                TLS Web Server Authentication
            X509v3 Key Usage: 
                Digital Signature, Key Encipherment
            X509v3 Subject Alternative Name: 
                DNS:team164-server
    Signature Algorithm: sha256WithRSAEncryption
    Signature Value:
        39:05:6b:63:e5:62:e5:19:81:3c:ba:8f:22:71:be:02:59:b1:
        4a:96:e5:7a:4a:07:cd:b6:d9:41:d5:52:25:26:3f:01:bf:73:
        2c:db:1f:90:4f:25:c1:ba:ff:6f:fe:ca:b2:c3:54:65:83:b0:
        02:62:a2:3a:28:b9:16:1f:45:26:aa:f8:6a:39:94:8b:59:c2:
        18:ef:a7:cc:bd:89:b4:ad:79:6f:b6:e7:c9:7b:bb:01:bf:eb:
        d4:c5:69:d6:e4:ac:09:83:8a:3b:72:ae:aa:d0:46:c2:be:dd:
        11:b2:ba:75:c2:e6:4e:51:8d:22:d2:45:36:2e:01:e1:8a:6c:
        72:e7:e8:00:b5:b1:31:ae:59:05:68:62:e9:c3:af:45:b8:64:
        6d:a5:40:b0:b4:a4:08:10:70:21:e6:d7:f1:d4:d2:4a:e0:bc:
        75:d2:d2:ea:29:4c:be:1d:5b:49:87:2c:e7:43:6b:1a:90:7c:
        98:16:9f:13:17:88:6b:d4:42:97:bf:47:04:92:11:fa:7b:18:
        a2:1e:11:de:a4:04:93:a6:d6:e0:f8:85:f2:56:48:93:dc:ec:
        d6:6b:46:39:05:ca:93:8b:24:4d:9c:1c:54:9a:48:c2:77:3c:
        90:bf:ed:69:b4:48:88:7d:d6:eb:94:11:e3:cb:35:c5:ee:b8:
        f1:f8:c0:77
-----BEGIN CERTIFICATE-----
MIIDdzCCAl+gAwIBAgIQKBQ79Ypvjz1ecrmieNVJIDANBgkqhkiG9w0BAQsFADAW
MRQwEgYDVQQDDAt0ZWFtMTY0LW5ldDAeFw0yMzExMDQxMTMwNTJaFw0yNjEwMTkx
MTMwNTJaMBkxFzAVBgNVBAMMDnRlYW0xNjQtc2VydmVyMIIBIjANBgkqhkiG9w0B
AQEFAAOCAQ8AMIIBCgKCAQEAwaGJDVp6W1IO2VBTmKuZhBNSScbOuW6Gca7rPmU0
BNNVZM73T1Atb//F+v1x6BDQHLBev75x8aHhMPod+RY55gG5aPfHtfnnw/rtlp0D
E2paHjRkO7ZcPHwf9sWCHsM6Ar85n1JraQ22Trq3ZP7up92HqzmmjPgSykbwjdf2
tC6GwSjGlRo4fAZXeA0zqZaLHclw5NbJnpP0ZXiLZXipiQZzMpKF68/zeAGkmPZL
g0MIbRgCYblJXuvnhpIAZLe805JCdj06OvVbjg0SAjPfsV7pKoMu0X/0QxeUhPHg
7JIkzNMp6U5MMC2MczFm6eR5kVibPVssBy30PCmdysbDDwIDAQABo4G9MIG6MAkG
A1UdEwQCMAAwHQYDVR0OBBYEFEPA3cD3GEhQ2Ws+DuC8TCwcp1WLMFEGA1UdIwRK
MEiAFAmY9+y401kdDfC/L2ddCWo1Q0KToRqkGDAWMRQwEgYDVQQDDAt0ZWFtMTY0
LW5ldIIUAPuTvScJA/3E6clg9PS7076WWpIwEwYDVR0lBAwwCgYIKwYBBQUHAwEw
CwYDVR0PBAQDAgWgMBkGA1UdEQQSMBCCDnRlYW0xNjQtc2VydmVyMA0GCSqGSIb3
DQEBCwUAA4IBAQA5BWtj5WLlGYE8uo8icb4CWbFKluV6SgfNttlB1VIlJj8Bv3Ms
2x+QTyXBuv9v/sqyw1Rlg7ACYqI6KLkWH0UmqvhqOZSLWcIY76fMvYm0rXlvtufJ
e7sBv+vUxWnW5KwJg4o7cq6q0EbCvt0Rsrp1wuZOUY0i0kU2LgHhimxy5+gAtbEx
rlkFaGLpw69FuGRtpUCwtKQIEHAh5tfx1NJK4Lx10tLqKUy+HVtJhyznQ2sakHyY
Fp8TF4hr1EKXv0cEkhH6exiiHhHepASTptbg+IXyVkiT3OzWa0Y5BcqTiyRNnBxU
mkjCdzyQv+1ptEiIfdbrlBHjyzXF7rjx+MB3
-----END CERTIFICATE-----
