Certificate:
    Data:
        Version: 3 (0x2)
        Serial Number:
            69:43:63:96:c9:38:46:20:b2:25:73:8a:cc:78:75:dc
        Signature Algorithm: sha256WithRSAEncryption
        Issuer: CN=team164-net
        Validity
            Not Before: Nov  4 10:43:35 2023 GMT
            Not After : Oct 19 10:43:35 2026 GMT
        Subject: CN=team164-client
        Subject Public Key Info:
            Public Key Algorithm: rsaEncryption
                Public-Key: (2048 bit)
                Modulus:
                    00:9f:c8:d9:61:80:48:2e:2b:fb:21:09:e8:13:3f:
                    8d:8a:c0:d2:f2:55:a5:e5:00:77:4e:8f:0a:a6:1c:
                    3a:a1:e5:b4:98:f5:33:da:60:92:cc:21:f3:99:b9:
                    4c:2b:7d:06:ff:05:f4:1c:bd:4c:08:4e:d9:94:3a:
                    7b:8d:8f:33:f3:fb:81:f4:88:3a:62:8c:cf:a8:41:
                    7b:ab:90:e1:04:49:bd:79:4e:d3:54:20:17:19:a7:
                    80:1d:66:6e:66:f1:c2:dc:b4:a4:8b:eb:66:4a:16:
                    f9:5b:84:36:54:84:7c:38:a4:25:fa:1f:79:89:9f:
                    11:1a:e4:9d:0e:11:77:16:67:06:1d:17:6b:8b:e3:
                    0f:67:3a:79:f7:8a:1c:fc:e2:9c:65:7e:7b:79:f9:
                    c2:5d:d6:49:02:0c:b2:68:ba:29:77:77:61:40:2c:
                    2e:5a:7a:a1:ba:e2:1f:b3:d8:7c:bb:d4:a0:70:cf:
                    e4:c6:6f:9b:7f:0a:01:85:2b:51:e4:b2:d5:f1:e6:
                    d7:67:1e:48:b3:6f:4c:e1:b8:b6:cb:c4:fd:26:19:
                    3d:eb:7b:73:f9:9c:1f:66:e3:3b:ec:a9:4a:02:21:
                    c4:60:f5:13:2b:ab:72:ca:ae:63:14:d1:ca:c5:70:
                    39:56:e8:86:2d:27:0f:df:5b:1a:91:c7:76:60:ed:
                    91:e7
                Exponent: 65537 (0x10001)
        X509v3 extensions:
            X509v3 Basic Constraints: 
                CA:FALSE
            X509v3 Subject Key Identifier: 
                1F:66:A7:32:2B:84:DC:CD:F7:CC:25:35:D4:D4:84:EF:A9:D2:B8:49
            X509v3 Authority Key Identifier: 
                keyid:13:92:AA:A1:5C:37:A8:2C:E2:D9:98:85:86:E9:5E:D3:9B:7A:E9:65
                DirName:/CN=team164-net
                serial:0C:C1:F6:02:F3:49:49:89:2C:6B:DB:E0:57:EC:7B:0C:CD:A3:F7:28
            X509v3 Extended Key Usage: 
                TLS Web Client Authentication
            X509v3 Key Usage: 
                Digital Signature
    Signature Algorithm: sha256WithRSAEncryption
    Signature Value:
        44:61:c8:1c:85:6a:12:38:61:13:ef:3d:44:d6:a6:30:9e:16:
        59:9c:72:be:b3:74:3a:0b:3b:30:35:9c:47:a7:3f:a4:0d:af:
        99:c0:ce:ed:36:d7:45:a8:78:ef:26:1f:c1:d1:67:70:b8:1e:
        52:32:26:a8:e1:e4:38:e4:54:18:45:53:53:17:48:9c:1a:04:
        04:37:a5:57:15:4f:2f:63:1b:3b:29:2b:d8:bc:a3:bb:c2:cd:
        80:26:55:d4:b4:28:75:24:68:c4:0a:83:93:da:de:83:1e:db:
        ea:35:a9:81:f9:88:1f:ca:51:86:38:d0:3d:32:10:d1:22:0c:
        22:d0:37:72:5f:01:72:6c:ac:63:d5:44:81:89:97:61:88:6b:
        29:ca:e1:fd:4b:45:3d:8b:22:7b:93:c3:a0:ff:0a:dc:65:63:
        d7:2a:59:d7:25:7c:d1:3f:81:91:e6:09:99:52:4b:27:a9:61:
        24:f3:bf:02:68:0f:3b:0b:61:ed:d6:ce:c5:cf:62:e7:46:45:
        9f:b2:5c:4b:52:85:bf:cc:e1:34:f3:5b:11:65:14:47:1c:71:
        55:5f:02:4c:3e:aa:38:29:de:31:72:87:b6:5c:82:4e:66:1a:
        08:ec:be:04:d2:e5:44:d2:ec:67:b2:93:c0:69:e5:64:bf:95:
        a5:2d:a4:7d
-----BEGIN CERTIFICATE-----
MIIDXDCCAkSgAwIBAgIQaUNjlsk4RiCyJXOKzHh13DANBgkqhkiG9w0BAQsFADAW
MRQwEgYDVQQDDAt0ZWFtMTY0LW5ldDAeFw0yMzExMDQxMDQzMzVaFw0yNjEwMTkx
MDQzMzVaMBkxFzAVBgNVBAMMDnRlYW0xNjQtY2xpZW50MIIBIjANBgkqhkiG9w0B
AQEFAAOCAQ8AMIIBCgKCAQEAn8jZYYBILiv7IQnoEz+NisDS8lWl5QB3To8Kphw6
oeW0mPUz2mCSzCHzmblMK30G/wX0HL1MCE7ZlDp7jY8z8/uB9Ig6YozPqEF7q5Dh
BEm9eU7TVCAXGaeAHWZuZvHC3LSki+tmShb5W4Q2VIR8OKQl+h95iZ8RGuSdDhF3
FmcGHRdri+MPZzp594oc/OKcZX57efnCXdZJAgyyaLopd3dhQCwuWnqhuuIfs9h8
u9SgcM/kxm+bfwoBhStR5LLV8ebXZx5Is29M4bi2y8T9Jhk963tz+ZwfZuM77KlK
AiHEYPUTK6tyyq5jFNHKxXA5VuiGLScP31sakcd2YO2R5wIDAQABo4GiMIGfMAkG
A1UdEwQCMAAwHQYDVR0OBBYEFB9mpzIrhNzN98wlNdTUhO+p0rhJMFEGA1UdIwRK
MEiAFBOSqqFcN6gs4tmYhYbpXtObeulloRqkGDAWMRQwEgYDVQQDDAt0ZWFtMTY0
LW5ldIIUDMH2AvNJSYksa9vgV+x7DM2j9ygwEwYDVR0lBAwwCgYIKwYBBQUHAwIw
CwYDVR0PBAQDAgeAMA0GCSqGSIb3DQEBCwUAA4IBAQBEYcgchWoSOGET7z1E1qYw
nhZZnHK+s3Q6CzswNZxHpz+kDa+ZwM7tNtdFqHjvJh/B0WdwuB5SMiao4eQ45FQY
RVNTF0icGgQEN6VXFU8vYxs7KSvYvKO7ws2AJlXUtCh1JGjECoOT2t6DHtvqNamB
+YgfylGGONA9MhDRIgwi0DdyXwFybKxj1USBiZdhiGspyuH9S0U9iyJ7k8Og/wrc
ZWPXKlnXJXzRP4GR5gmZUksnqWEk878CaA87C2Ht1s7Fz2LnRkWfslxLUoW/zOE0
81sRZRRHHHFVXwJMPqo4Kd4xcoe2XIJOZhoI7L4E0uVE0uxnspPAaeVkv5WlLaR9
-----END CERTIFICATE-----
