Certificate:
    Data:
        Version: 3 (0x2)
        Serial Number:
            69:68:f5:1c:1e:cc:1c:f1:1f:aa:c7:5c:3a:2f:79:ea
        Signature Algorithm: sha256WithRSAEncryption
        Issuer: CN=team164-net
        Validity
            Not Before: Nov  4 10:43:35 2023 GMT
            Not After : Oct 19 10:43:35 2026 GMT
        Subject: CN=team164-server
        Subject Public Key Info:
            Public Key Algorithm: rsaEncryption
                Public-Key: (2048 bit)
                Modulus:
                    00:a5:ba:b8:d7:7c:f1:5d:96:9a:ea:ab:50:7d:09:
                    03:db:35:22:58:42:a9:e3:61:31:73:30:61:8e:32:
                    27:8d:f6:23:6b:ce:cb:dd:80:f3:16:f4:8d:4f:04:
                    41:30:40:14:f7:7a:ae:a2:92:38:a6:76:a7:77:3b:
                    a5:69:cb:cc:f1:6f:a2:6b:ed:40:a2:64:0e:23:ef:
                    62:76:10:a0:21:86:2a:34:a1:fe:4a:03:79:3f:ad:
                    c6:a9:47:55:cc:59:4b:c1:b7:55:ec:6c:a8:12:bc:
                    dc:13:50:18:e6:1d:0e:b6:e9:d2:63:1f:5d:58:5a:
                    b5:58:54:b1:36:28:1f:53:14:6c:d7:54:84:51:b9:
                    7e:ac:1d:47:78:8b:8b:74:84:da:88:da:e4:06:95:
                    de:7e:e5:6d:ff:6a:ba:7c:18:8b:a3:01:dc:6e:ca:
                    e4:26:ee:50:f8:d2:42:b2:58:46:b3:62:de:5c:3a:
                    af:1a:2a:40:34:f9:eb:91:0c:cd:86:56:7a:de:70:
                    a0:bb:e6:d0:91:2f:b5:62:46:94:d0:ca:ff:07:61:
                    86:02:4d:c9:0e:10:14:50:ea:0d:0a:98:75:d7:51:
                    f5:91:00:28:ce:9d:05:91:28:d3:e7:12:4f:d1:90:
                    e0:b0:3c:cd:47:ce:81:1c:0d:90:0f:2c:8c:18:e9:
                    4e:d5
                Exponent: 65537 (0x10001)
        X509v3 extensions:
            X509v3 Basic Constraints: 
                CA:FALSE
            X509v3 Subject Key Identifier: 
                B5:EC:90:C1:D8:A1:C9:64:D2:4A:A1:1F:96:B9:EB:51:36:9D:18:33
            X509v3 Authority Key Identifier: 
                keyid:13:92:AA:A1:5C:37:A8:2C:E2:D9:98:85:86:E9:5E:D3:9B:7A:E9:65
                DirName:/CN=team164-net
                serial:0C:C1:F6:02:F3:49:49:89:2C:6B:DB:E0:57:EC:7B:0C:CD:A3:F7:28
            X509v3 Extended Key Usage: 
                TLS Web Server Authentication
            X509v3 Key Usage: 
                Digital Signature, Key Encipherment
            X509v3 Subject Alternative Name: 
                DNS:team164-server
    Signature Algorithm: sha256WithRSAEncryption
    Signature Value:
        6f:74:b2:0c:a5:9a:b6:61:b7:7b:56:e7:fc:55:b0:bf:bd:c1:
        c0:c0:95:7d:f9:d8:a4:b3:69:06:36:66:6f:02:4b:d4:82:24:
        24:67:f2:a3:15:62:36:8a:a4:dc:69:1a:ab:24:82:22:2c:4c:
        18:4c:cd:de:cc:01:6a:38:b7:9e:3c:2e:71:38:4e:a4:0f:94:
        ec:7d:8c:9f:1c:2a:12:b7:d0:b1:08:2e:4c:72:02:19:0b:6a:
        b2:b4:78:53:1d:c9:5e:2f:fc:d9:d2:c3:bf:9e:d2:01:89:74:
        95:a0:7e:3e:67:f2:c9:e4:d5:54:e0:fb:65:5c:1e:b4:fc:03:
        aa:73:fb:c0:5b:1e:82:9e:54:0d:22:df:46:59:50:be:a9:d7:
        0e:f7:2d:39:bd:47:11:f0:72:cc:db:e6:39:a0:97:2f:24:85:
        a5:34:a8:80:9e:1b:35:d9:96:c8:98:03:58:7c:47:b9:1d:07:
        2b:42:d6:7b:8f:b1:fc:d4:c2:72:6d:6f:2b:a5:0b:c2:7f:dc:
        05:c7:64:3c:2b:bb:9e:58:12:82:97:6e:90:9b:21:5f:0d:11:
        9c:a8:64:31:38:12:c3:8b:42:5c:79:0e:9d:c1:ef:83:02:bd:
        f1:1e:22:dd:4d:22:e4:fc:45:22:bf:5c:54:08:9d:a0:2b:56:
        b1:63:4b:3b
-----BEGIN CERTIFICATE-----
MIIDdzCCAl+gAwIBAgIQaWj1HB7MHPEfqsdcOi956jANBgkqhkiG9w0BAQsFADAW
MRQwEgYDVQQDDAt0ZWFtMTY0LW5ldDAeFw0yMzExMDQxMDQzMzVaFw0yNjEwMTkx
MDQzMzVaMBkxFzAVBgNVBAMMDnRlYW0xNjQtc2VydmVyMIIBIjANBgkqhkiG9w0B
AQEFAAOCAQ8AMIIBCgKCAQEApbq413zxXZaa6qtQfQkD2zUiWEKp42ExczBhjjIn
jfYja87L3YDzFvSNTwRBMEAU93quopI4pnandzulacvM8W+ia+1AomQOI+9idhCg
IYYqNKH+SgN5P63GqUdVzFlLwbdV7GyoErzcE1AY5h0OtunSYx9dWFq1WFSxNigf
UxRs11SEUbl+rB1HeIuLdITaiNrkBpXefuVt/2q6fBiLowHcbsrkJu5Q+NJCslhG
s2LeXDqvGipANPnrkQzNhlZ63nCgu+bQkS+1YkaU0Mr/B2GGAk3JDhAUUOoNCph1
11H1kQAozp0FkSjT5xJP0ZDgsDzNR86BHA2QDyyMGOlO1QIDAQABo4G9MIG6MAkG
A1UdEwQCMAAwHQYDVR0OBBYEFLXskMHYoclk0kqhH5a561E2nRgzMFEGA1UdIwRK
MEiAFBOSqqFcN6gs4tmYhYbpXtObeulloRqkGDAWMRQwEgYDVQQDDAt0ZWFtMTY0
LW5ldIIUDMH2AvNJSYksa9vgV+x7DM2j9ygwEwYDVR0lBAwwCgYIKwYBBQUHAwEw
CwYDVR0PBAQDAgWgMBkGA1UdEQQSMBCCDnRlYW0xNjQtc2VydmVyMA0GCSqGSIb3
DQEBCwUAA4IBAQBvdLIMpZq2Ybd7Vuf8VbC/vcHAwJV9+diks2kGNmZvAkvUgiQk
Z/KjFWI2iqTcaRqrJIIiLEwYTM3ezAFqOLeePC5xOE6kD5TsfYyfHCoSt9CxCC5M
cgIZC2qytHhTHcleL/zZ0sO/ntIBiXSVoH4+Z/LJ5NVU4PtlXB60/AOqc/vAWx6C
nlQNIt9GWVC+qdcO9y05vUcR8HLM2+Y5oJcvJIWlNKiAnhs12ZbImANYfEe5HQcr
QtZ7j7H81MJybW8rpQvCf9wFx2Q8K7ueWBKCl26QmyFfDRGcqGQxOBLDi0JceQ6d
we+DAr3xHiLdTSLk/EUiv1xUCJ2gK1axY0s7
-----END CERTIFICATE-----
