Certificate:
    Data:
        Version: 3 (0x2)
        Serial Number:
            7a:19:66:86:f6:23:8b:d3:18:f9:01:34:d7:83:88:96
        Signature Algorithm: sha256WithRSAEncryption
        Issuer: CN=team164-net
        Validity
            Not Before: Nov  4 11:30:51 2023 GMT
            Not After : Oct 19 11:30:51 2026 GMT
        Subject: CN=team164-client
        Subject Public Key Info:
            Public Key Algorithm: rsaEncryption
                Public-Key: (2048 bit)
                Modulus:
                    00:c4:2b:dd:4c:3e:6e:3b:16:7a:d9:4b:6b:c4:0f:
                    c5:7d:ae:1a:46:51:86:08:2a:58:86:15:62:97:ef:
                    59:b5:bb:07:60:d5:3f:10:e3:e2:ac:bc:b8:86:17:
                    88:65:de:3b:4a:2e:91:9d:c8:c1:d3:7b:a7:a9:9d:
                    b5:1b:6c:b8:db:2d:24:be:3b:5b:83:45:4b:d8:d1:
                    99:dc:ed:6f:ea:63:f1:d0:9b:c0:87:28:78:06:ba:
                    10:47:78:29:c3:19:66:34:53:6d:ba:66:2a:56:0c:
                    5c:e2:9d:82:d4:f3:76:35:d0:75:f4:e9:3d:11:58:
                    da:86:a2:b3:1f:8b:41:cc:7f:a8:11:8c:52:40:81:
                    a7:fd:97:0a:38:3c:80:a1:d7:db:e1:ac:2b:73:92:
                    f9:7b:6c:e7:42:60:1b:08:d7:79:fe:ad:b4:42:c8:
                    26:6b:74:c4:7f:ab:22:e8:60:7b:bc:69:ea:5b:e0:
                    4d:3c:b7:92:9b:48:fb:8e:57:b5:8e:d8:78:27:09:
                    f1:2a:a0:09:b1:d8:18:36:20:21:17:c2:83:52:4f:
                    9b:9c:9a:77:18:88:cd:76:ab:dd:0e:47:d1:5c:20:
                    a3:fe:11:19:a4:14:51:fe:df:1b:2e:44:82:6a:90:
                    69:94:fa:6b:ed:03:ce:4d:38:e0:ca:62:81:40:b9:
                    a5:25
                Exponent: 65537 (0x10001)
        X509v3 extensions:
            X509v3 Basic Constraints: 
                CA:FALSE
            X509v3 Subject Key Identifier: 
                5E:01:A4:80:B4:73:D5:BA:0B:10:C3:CA:2A:88:75:7D:6C:CE:40:D3
            X509v3 Authority Key Identifier: 
                keyid:09:98:F7:EC:B8:D3:59:1D:0D:F0:BF:2F:67:5D:09:6A:35:43:42:93
                DirName:/CN=team164-net
                serial:FB:93:BD:27:09:03:FD:C4:E9:C9:60:F4:F4:BB:D3:BE:96:5A:92
            X509v3 Extended Key Usage: 
                TLS Web Client Authentication
            X509v3 Key Usage: 
                Digital Signature
    Signature Algorithm: sha256WithRSAEncryption
    Signature Value:
        73:c2:12:9b:da:b3:8e:78:49:96:4f:54:c6:44:2d:0a:53:41:
        8d:44:5a:25:f3:39:f2:74:9c:5b:43:c7:8f:08:b9:f9:09:e9:
        ad:46:f8:f0:21:91:2d:21:d7:b7:3e:d7:72:ae:2f:87:66:5a:
        b9:d2:93:63:74:c9:cb:e2:31:e8:1f:6c:23:a2:ef:d6:cd:3c:
        1a:84:93:82:c8:a1:83:47:21:76:8c:18:64:98:02:34:f8:18:
        79:eb:50:34:a2:55:e0:88:0c:be:ac:38:83:f8:2a:b6:99:6b:
        a8:c5:3b:53:b3:05:44:0f:c9:6c:e5:90:64:97:1e:b2:f1:f6:
        40:ff:07:58:a4:09:2c:38:91:0e:b3:c8:2f:d8:81:89:5c:45:
        51:a5:a0:c7:61:fb:dd:86:0a:e5:32:9a:18:b2:40:24:41:ea:
        55:fd:5c:23:14:f1:e6:c9:37:ab:2a:3b:02:bb:a6:65:4b:69:
        18:a2:c7:75:6d:7e:39:a9:53:2a:3d:5c:2a:82:45:43:34:f5:
        8c:34:07:32:b3:6f:9b:45:dd:08:15:0f:b9:b6:28:6a:41:c1:
        56:5d:a8:9e:97:43:f8:67:ef:a8:13:20:b5:a5:04:4e:34:e6:
        1d:11:c0:d6:93:ae:98:77:15:b3:6a:54:30:2f:ed:a5:95:6d:
        dd:f8:7a:b0
-----BEGIN CERTIFICATE-----
MIIDXDCCAkSgAwIBAgIQehlmhvYji9MY+QE014OIljANBgkqhkiG9w0BAQsFADAW
MRQwEgYDVQQDDAt0ZWFtMTY0LW5ldDAeFw0yMzExMDQxMTMwNTFaFw0yNjEwMTkx
MTMwNTFaMBkxFzAVBgNVBAMMDnRlYW0xNjQtY2xpZW50MIIBIjANBgkqhkiG9w0B
AQEFAAOCAQ8AMIIBCgKCAQEAxCvdTD5uOxZ62UtrxA/Ffa4aRlGGCCpYhhVil+9Z
tbsHYNU/EOPirLy4hheIZd47Si6RncjB03unqZ21G2y42y0kvjtbg0VL2NGZ3O1v
6mPx0JvAhyh4BroQR3gpwxlmNFNtumYqVgxc4p2C1PN2NdB19Ok9EVjahqKzH4tB
zH+oEYxSQIGn/ZcKODyAodfb4awrc5L5e2znQmAbCNd5/q20Qsgma3TEf6si6GB7
vGnqW+BNPLeSm0j7jle1jth4JwnxKqAJsdgYNiAhF8KDUk+bnJp3GIjNdqvdDkfR
XCCj/hEZpBRR/t8bLkSCapBplPpr7QPOTTjgymKBQLmlJQIDAQABo4GiMIGfMAkG
A1UdEwQCMAAwHQYDVR0OBBYEFF4BpIC0c9W6CxDDyiqIdX1szkDTMFEGA1UdIwRK
MEiAFAmY9+y401kdDfC/L2ddCWo1Q0KToRqkGDAWMRQwEgYDVQQDDAt0ZWFtMTY0
LW5ldIIUAPuTvScJA/3E6clg9PS7076WWpIwEwYDVR0lBAwwCgYIKwYBBQUHAwIw
CwYDVR0PBAQDAgeAMA0GCSqGSIb3DQEBCwUAA4IBAQBzwhKb2rOOeEmWT1TGRC0K
U0GNRFol8znydJxbQ8ePCLn5CemtRvjwIZEtIde3Ptdyri+HZlq50pNjdMnL4jHo
H2wjou/WzTwahJOCyKGDRyF2jBhkmAI0+Bh561A0olXgiAy+rDiD+Cq2mWuoxTtT
swVED8ls5ZBklx6y8fZA/wdYpAksOJEOs8gv2IGJXEVRpaDHYfvdhgrlMpoYskAk
QepV/VwjFPHmyTerKjsCu6ZlS2kYosd1bX45qVMqPVwqgkVDNPWMNAcys2+bRd0I
FQ+5tihqQcFWXaiel0P4Z++oEyC1pQRONOYdEcDWk66YdxWzalQwL+2llW3d+Hqw
-----END CERTIFICATE-----
