Certificate:
    Data:
        Version: 3 (0x2)
        Serial Number:
            2b:34:ff:c9:6b:e6:7c:dc:56:19:3c:35:73:17:d3:9c
        Signature Algorithm: sha256WithRSAEncryption
        Issuer: CN=team100-net
        Validity
            Not Before: Nov  4 11:29:21 2023 GMT
            Not After : Oct 19 11:29:21 2026 GMT
        Subject: CN=team100-client
        Subject Public Key Info:
            Public Key Algorithm: rsaEncryption
                Public-Key: (2048 bit)
                Modulus:
                    00:a7:22:94:62:6a:4b:1e:e6:67:0f:e2:cb:01:36:
                    62:3f:78:7e:c1:cc:60:93:ce:ea:54:b3:47:2a:c9:
                    66:ad:7b:e4:c1:83:ac:f7:4e:0c:e6:f9:90:a9:dc:
                    55:05:57:4c:a1:47:d5:c0:a9:77:70:8a:a9:1f:db:
                    3b:92:f4:e2:e1:dc:04:88:97:ee:72:7b:15:5c:96:
                    34:96:34:b3:24:f0:bc:83:24:31:39:0c:b7:23:b7:
                    ef:38:b0:d0:e2:3a:b3:67:69:ed:0b:3d:2e:a0:8a:
                    7d:a8:fc:a0:46:b7:c6:7f:27:83:0a:11:3f:bf:3b:
                    65:43:b8:35:91:0f:a9:51:8a:b7:0f:f9:d8:f0:d9:
                    99:56:6d:bc:5c:5b:99:b4:e6:34:c2:79:1f:aa:a1:
                    4a:1a:3d:8a:b1:bd:77:1e:79:ed:91:e0:36:91:a3:
                    da:3a:ed:00:c1:71:67:7e:dc:89:ab:51:d5:73:b7:
                    a7:7f:2e:22:99:ff:a7:16:8d:22:71:4a:70:d8:b2:
                    23:a4:6f:46:73:b4:c7:e4:79:c4:b9:71:96:f5:f1:
                    a4:55:24:9a:19:45:3b:27:fc:3b:53:5b:d0:d9:5a:
                    8e:46:33:fd:72:a9:fb:57:6c:be:aa:db:df:e0:46:
                    7b:82:ef:cd:1b:e8:80:01:c0:97:25:02:c1:44:e6:
                    a2:77
                Exponent: 65537 (0x10001)
        X509v3 extensions:
            X509v3 Basic Constraints: 
                CA:FALSE
            X509v3 Subject Key Identifier: 
                F2:24:C7:ED:05:75:D2:E4:3D:FA:19:2E:BE:F4:B3:18:E0:5E:76:B7
            X509v3 Authority Key Identifier: 
                keyid:73:80:30:74:28:B0:46:74:27:94:51:8E:8E:7A:9F:74:F4:52:11:AF
                DirName:/CN=team100-net
                serial:13:62:C3:EB:07:0B:F5:59:0D:A4:7C:8C:1D:36:0B:72:E5:FE:F4:F9
            X509v3 Extended Key Usage: 
                TLS Web Client Authentication
            X509v3 Key Usage: 
                Digital Signature
    Signature Algorithm: sha256WithRSAEncryption
    Signature Value:
        9e:ce:5f:58:62:f0:5a:61:0e:a4:25:e0:37:e5:89:7c:d1:a6:
        46:07:b6:b6:ec:5f:16:b7:38:a9:64:9d:3f:0a:33:ee:ff:ab:
        7c:50:a8:0b:37:8c:55:ba:eb:70:3e:5a:6a:c0:57:2e:37:74:
        45:32:d2:ef:55:bf:46:69:ae:49:23:ea:28:af:5f:41:4a:29:
        d3:68:e8:07:37:be:a8:34:5e:e0:cb:95:55:03:f5:ac:12:38:
        58:ff:d4:e4:f6:fe:be:98:cb:82:dd:37:53:84:f1:c7:44:8d:
        71:1a:79:4b:08:80:4e:47:1e:f7:46:93:84:8c:8d:78:0c:72:
        1a:ca:5a:77:ab:56:30:8e:d6:1f:78:c3:33:d8:d9:13:db:e2:
        d1:55:7b:a9:6c:16:e6:b6:1d:60:e6:d5:43:6c:6f:f4:81:d5:
        f4:71:e8:6a:e7:f3:65:cc:a0:ca:df:97:65:7c:59:93:01:00:
        18:e9:57:11:9e:e4:fa:44:80:04:b2:d4:59:4e:2e:9a:bb:1b:
        67:33:0e:58:b0:ae:a6:3a:95:01:a0:6e:dc:e3:5f:9b:b8:56:
        4b:4c:e0:00:76:ca:97:db:ae:61:ef:b1:70:c5:96:34:46:fa:
        f9:f3:6a:6b:c8:67:9e:2b:a5:88:11:bd:e9:91:0f:a1:dd:23:
        ce:a9:39:3d
-----BEGIN CERTIFICATE-----
MIIDXDCCAkSgAwIBAgIQKzT/yWvmfNxWGTw1cxfTnDANBgkqhkiG9w0BAQsFADAW
MRQwEgYDVQQDDAt0ZWFtMTAwLW5ldDAeFw0yMzExMDQxMTI5MjFaFw0yNjEwMTkx
MTI5MjFaMBkxFzAVBgNVBAMMDnRlYW0xMDAtY2xpZW50MIIBIjANBgkqhkiG9w0B
AQEFAAOCAQ8AMIIBCgKCAQEApyKUYmpLHuZnD+LLATZiP3h+wcxgk87qVLNHKslm
rXvkwYOs904M5vmQqdxVBVdMoUfVwKl3cIqpH9s7kvTi4dwEiJfucnsVXJY0ljSz
JPC8gyQxOQy3I7fvOLDQ4jqzZ2ntCz0uoIp9qPygRrfGfyeDChE/vztlQ7g1kQ+p
UYq3D/nY8NmZVm28XFuZtOY0wnkfqqFKGj2Ksb13HnntkeA2kaPaOu0AwXFnftyJ
q1HVc7enfy4imf+nFo0icUpw2LIjpG9Gc7TH5HnEuXGW9fGkVSSaGUU7J/w7U1vQ
2VqORjP9cqn7V2y+qtvf4EZ7gu/NG+iAAcCXJQLBROaidwIDAQABo4GiMIGfMAkG
A1UdEwQCMAAwHQYDVR0OBBYEFPIkx+0FddLkPfoZLr70sxjgXna3MFEGA1UdIwRK
MEiAFHOAMHQosEZ0J5RRjo56n3T0UhGvoRqkGDAWMRQwEgYDVQQDDAt0ZWFtMTAw
LW5ldIIUE2LD6wcL9VkNpHyMHTYLcuX+9PkwEwYDVR0lBAwwCgYIKwYBBQUHAwIw
CwYDVR0PBAQDAgeAMA0GCSqGSIb3DQEBCwUAA4IBAQCezl9YYvBaYQ6kJeA35Yl8
0aZGB7a27F8WtzipZJ0/CjPu/6t8UKgLN4xVuutwPlpqwFcuN3RFMtLvVb9Gaa5J
I+oor19BSinTaOgHN76oNF7gy5VVA/WsEjhY/9Tk9v6+mMuC3TdThPHHRI1xGnlL
CIBORx73RpOEjI14DHIaylp3q1YwjtYfeMMz2NkT2+LRVXupbBbmth1g5tVDbG/0
gdX0cehq5/NlzKDK35dlfFmTAQAY6VcRnuT6RIAEstRZTi6auxtnMw5YsK6mOpUB
oG7c41+buFZLTOAAdsqX265h77FwxZY0Rvr582pryGeeK6WIEb3pkQ+h3SPOqTk9
-----END CERTIFICATE-----
