Certificate:
    Data:
        Version: 3 (0x2)
        Serial Number:
            31:6e:32:52:bb:55:41:92:ac:39:db:77:73:3a:88:ba
        Signature Algorithm: sha256WithRSAEncryption
        Issuer: CN=team100-net
        Validity
            Not Before: Nov  4 10:42:17 2023 GMT
            Not After : Oct 19 10:42:17 2026 GMT
        Subject: CN=team100-client
        Subject Public Key Info:
            Public Key Algorithm: rsaEncryption
                Public-Key: (2048 bit)
                Modulus:
                    00:cb:97:85:95:84:2e:8b:35:da:28:bf:81:ca:7f:
                    65:9a:84:ee:3d:3c:09:2e:ce:7c:b4:86:49:61:bb:
                    95:2f:28:0e:d7:d0:db:96:57:33:a0:f4:84:89:1a:
                    85:4d:57:aa:3d:62:fb:3a:87:b2:29:bc:a3:cb:c8:
                    3f:5f:bc:3f:10:89:a7:65:07:6f:4b:9a:2d:12:b5:
                    30:68:8c:7e:de:2f:9b:f9:25:fa:8d:2d:20:0a:fe:
                    da:84:38:47:3d:4d:20:b5:53:c2:44:f1:ac:31:84:
                    31:37:9e:a5:cf:fb:07:75:ae:1b:08:8c:bc:a9:17:
                    ba:9d:27:11:f9:a5:0c:f1:fd:7a:d3:25:4c:c1:cb:
                    05:5d:20:86:31:bc:aa:09:2b:56:47:58:7b:f3:38:
                    5f:4b:c4:09:e4:20:e8:a1:ac:6d:d6:01:44:d1:5b:
                    9e:10:b3:64:60:e6:3e:1b:50:52:30:e3:3f:fb:ed:
                    bf:cc:20:a5:f3:e6:3d:d1:c7:c3:9b:1b:f5:14:73:
                    f3:7f:e8:45:94:3f:8c:82:31:95:90:1e:1c:b5:59:
                    0a:0c:be:69:fc:95:70:db:40:b8:5b:d9:1b:05:ce:
                    7d:62:b1:00:ea:fa:71:b0:53:b8:54:d8:35:e7:25:
                    92:c0:b4:35:42:ac:50:e5:f2:a5:79:f2:6b:d9:74:
                    73:c3
                Exponent: 65537 (0x10001)
        X509v3 extensions:
            X509v3 Basic Constraints: 
                CA:FALSE
            X509v3 Subject Key Identifier: 
                C9:6F:70:F3:09:87:90:88:97:41:9E:32:6B:D6:0A:51:47:A2:A6:E8
            X509v3 Authority Key Identifier: 
                keyid:C3:11:9A:4E:EF:BC:E5:5F:95:F6:18:EB:66:14:CA:A3:BD:0D:4B:70
                DirName:/CN=team100-net
                serial:79:EB:6C:70:89:58:AE:78:20:90:C1:A7:9C:33:93:18:F4:DF:EA:DB
            X509v3 Extended Key Usage: 
                TLS Web Client Authentication
            X509v3 Key Usage: 
                Digital Signature
    Signature Algorithm: sha256WithRSAEncryption
    Signature Value:
        6b:b8:b4:a2:3d:86:ca:12:6f:36:70:95:a3:89:7c:04:c6:02:
        22:39:6e:08:7a:12:e1:02:92:b9:36:81:61:5a:4c:a1:47:96:
        6c:5c:fb:1d:cd:04:62:0b:0f:53:21:04:77:ec:10:d2:f3:eb:
        56:36:22:ba:77:a0:dd:52:f2:77:83:1d:88:f1:6d:59:fd:bc:
        08:47:31:3e:1b:7b:71:a2:f6:4e:ef:44:b9:f7:a7:7c:7e:d2:
        08:7e:4e:02:ba:eb:12:74:04:19:01:57:1f:08:76:7f:17:8e:
        af:87:94:62:a1:07:13:cd:76:a9:a1:b3:4e:79:96:d1:45:5b:
        c1:7d:b6:7b:6e:cb:9b:f9:09:30:d7:4d:da:97:76:8a:55:c6:
        12:c8:54:f2:58:1c:b5:ff:e9:8d:a3:1f:19:66:81:e9:80:63:
        93:b3:83:49:bf:3c:6d:e6:ad:df:5f:55:8c:9e:4d:8d:7d:9f:
        55:de:9e:6d:d4:0d:25:72:fd:64:db:f6:65:34:44:68:cc:a9:
        32:47:c5:c4:b2:0e:22:94:5b:15:0e:57:bd:a4:eb:dd:d5:b0:
        93:6f:d1:79:6f:8a:22:3b:c8:8c:78:d2:9f:43:a2:9f:1f:93:
        3c:55:84:19:1a:da:ec:b7:11:f9:a7:e2:6f:b7:d9:05:bc:43:
        d4:45:e9:e0
-----BEGIN CERTIFICATE-----
MIIDXDCCAkSgAwIBAgIQMW4yUrtVQZKsOdt3czqIujANBgkqhkiG9w0BAQsFADAW
MRQwEgYDVQQDDAt0ZWFtMTAwLW5ldDAeFw0yMzExMDQxMDQyMTdaFw0yNjEwMTkx
MDQyMTdaMBkxFzAVBgNVBAMMDnRlYW0xMDAtY2xpZW50MIIBIjANBgkqhkiG9w0B
AQEFAAOCAQ8AMIIBCgKCAQEAy5eFlYQuizXaKL+Byn9lmoTuPTwJLs58tIZJYbuV
LygO19DbllczoPSEiRqFTVeqPWL7OoeyKbyjy8g/X7w/EImnZQdvS5otErUwaIx+
3i+b+SX6jS0gCv7ahDhHPU0gtVPCRPGsMYQxN56lz/sHda4bCIy8qRe6nScR+aUM
8f160yVMwcsFXSCGMbyqCStWR1h78zhfS8QJ5CDooaxt1gFE0VueELNkYOY+G1BS
MOM/++2/zCCl8+Y90cfDmxv1FHPzf+hFlD+MgjGVkB4ctVkKDL5p/JVw20C4W9kb
Bc59YrEA6vpxsFO4VNg15yWSwLQ1QqxQ5fKlefJr2XRzwwIDAQABo4GiMIGfMAkG
A1UdEwQCMAAwHQYDVR0OBBYEFMlvcPMJh5CIl0GeMmvWClFHoqboMFEGA1UdIwRK
MEiAFMMRmk7vvOVflfYY62YUyqO9DUtwoRqkGDAWMRQwEgYDVQQDDAt0ZWFtMTAw
LW5ldIIUeetscIlYrnggkMGnnDOTGPTf6tswEwYDVR0lBAwwCgYIKwYBBQUHAwIw
CwYDVR0PBAQDAgeAMA0GCSqGSIb3DQEBCwUAA4IBAQBruLSiPYbKEm82cJWjiXwE
xgIiOW4IehLhApK5NoFhWkyhR5ZsXPsdzQRiCw9TIQR37BDS8+tWNiK6d6DdUvJ3
gx2I8W1Z/bwIRzE+G3txovZO70S596d8ftIIfk4CuusSdAQZAVcfCHZ/F46vh5Ri
oQcTzXapobNOeZbRRVvBfbZ7bsub+Qkw103al3aKVcYSyFTyWBy1/+mNox8ZZoHp
gGOTs4NJvzxt5q3fX1WMnk2NfZ9V3p5t1A0lcv1k2/ZlNERozKkyR8XEsg4ilFsV
Dle9pOvd1bCTb9F5b4oiO8iMeNKfQ6KfH5M8VYQZGtrstxH5p+Jvt9kFvEPUReng
-----END CERTIFICATE-----
