Certificate:
    Data:
        Version: 3 (0x2)
        Serial Number:
            7d:60:39:bc:bd:23:94:43:b9:f6:92:f1:16:26:3e:0a
        Signature Algorithm: sha256WithRSAEncryption
        Issuer: CN=team100-net
        Validity
            Not Before: Nov  4 10:42:17 2023 GMT
            Not After : Oct 19 10:42:17 2026 GMT
        Subject: CN=team100-server
        Subject Public Key Info:
            Public Key Algorithm: rsaEncryption
                Public-Key: (2048 bit)
                Modulus:
                    00:a1:08:85:3a:99:f7:0e:87:12:c9:10:24:20:76:
                    2f:06:1a:ea:d1:ad:18:00:ad:c2:e0:1d:e1:1a:c4:
                    c5:c9:5e:f7:e6:e6:c0:d4:22:8f:35:27:be:b4:bd:
                    ff:91:d2:da:d6:0d:32:cf:6d:ec:ea:d8:8c:db:ae:
                    9b:c3:d0:f3:4a:a5:f9:37:b8:12:b6:67:2c:b5:d5:
                    21:f5:ef:07:d8:2e:4d:28:e8:b4:9a:ad:cc:e6:f8:
                    9c:e1:9f:9d:da:a3:ed:a6:96:19:5a:c6:31:42:a9:
                    f6:8b:94:9b:c2:b8:db:57:18:58:65:0b:43:13:27:
                    a9:cf:57:7e:c5:e1:24:60:19:cc:fd:5b:de:ec:b6:
                    fd:7e:d2:e2:75:05:c9:aa:8e:87:1f:1b:f0:5e:25:
                    98:81:9a:e9:e8:66:e1:8a:d9:11:15:d5:f1:d3:de:
                    6e:03:1b:f6:ec:5b:82:3e:2f:df:c2:d9:21:2b:50:
                    c8:3e:d3:5e:59:5a:69:3d:23:a2:b4:37:12:ba:0c:
                    2b:eb:4c:6e:3c:3f:07:12:d0:60:23:ec:1a:df:90:
                    7c:db:fc:8e:89:ad:dd:34:15:37:37:c7:ac:99:cc:
                    b9:55:f8:cd:a8:4b:be:d9:9d:6b:4e:23:51:9d:91:
                    b5:1f:26:c2:48:5a:d2:55:db:7d:a6:04:d8:66:5e:
                    2a:8b
                Exponent: 65537 (0x10001)
        X509v3 extensions:
            X509v3 Basic Constraints: 
                CA:FALSE
            X509v3 Subject Key Identifier: 
                1D:DE:3D:C7:91:67:91:B5:60:64:3A:87:CD:8A:7E:78:45:A0:8E:9E
            X509v3 Authority Key Identifier: 
                keyid:C3:11:9A:4E:EF:BC:E5:5F:95:F6:18:EB:66:14:CA:A3:BD:0D:4B:70
                DirName:/CN=team100-net
                serial:79:EB:6C:70:89:58:AE:78:20:90:C1:A7:9C:33:93:18:F4:DF:EA:DB
            X509v3 Extended Key Usage: 
                TLS Web Server Authentication
            X509v3 Key Usage: 
                Digital Signature, Key Encipherment
            X509v3 Subject Alternative Name: 
                DNS:team100-server
    Signature Algorithm: sha256WithRSAEncryption
    Signature Value:
        88:f6:0b:03:77:45:8c:68:6b:33:5a:57:f6:ff:b6:db:c1:b6:
        fb:bd:03:62:dc:b8:32:48:d0:f8:fa:8a:82:db:6e:da:4b:74:
        ec:5f:60:6c:23:4d:03:be:8c:c1:bd:b1:c8:02:b9:3b:a9:53:
        f0:60:f0:97:39:ef:07:e8:f0:4a:b3:af:8b:be:b5:60:9c:f6:
        3e:8d:a4:58:7b:88:77:48:92:a5:df:5c:46:4f:43:bc:63:d3:
        70:ff:86:cb:09:73:16:70:a9:5e:bb:5d:da:3f:7b:91:50:72:
        28:58:5c:ea:cb:e3:ed:44:fc:a7:4c:af:c9:ce:5d:62:77:17:
        11:39:93:4a:e9:a0:4d:00:74:c2:da:12:d4:f1:03:28:69:9e:
        69:64:32:99:67:06:f4:54:40:c9:99:55:f7:5f:5c:37:1b:8e:
        41:4c:cc:bb:b1:be:83:49:3e:90:33:91:6f:5d:b7:43:5e:1d:
        60:c1:a5:92:00:8b:4e:50:91:ea:82:f6:18:f4:11:e9:a2:03:
        14:4d:9d:6a:c8:6c:fd:a5:3a:30:d0:03:e8:21:fa:1a:a4:03:
        48:2b:65:c9:29:03:9a:57:2f:8f:0b:76:a5:dc:18:3a:93:87:
        fc:31:1b:f9:6e:75:3b:86:98:f1:2a:72:5f:7b:2d:c2:3f:e7:
        e6:3a:45:17
-----BEGIN CERTIFICATE-----
MIIDdzCCAl+gAwIBAgIQfWA5vL0jlEO59pLxFiY+CjANBgkqhkiG9w0BAQsFADAW
MRQwEgYDVQQDDAt0ZWFtMTAwLW5ldDAeFw0yMzExMDQxMDQyMTdaFw0yNjEwMTkx
MDQyMTdaMBkxFzAVBgNVBAMMDnRlYW0xMDAtc2VydmVyMIIBIjANBgkqhkiG9w0B
AQEFAAOCAQ8AMIIBCgKCAQEAoQiFOpn3DocSyRAkIHYvBhrq0a0YAK3C4B3hGsTF
yV735ubA1CKPNSe+tL3/kdLa1g0yz23s6tiM266bw9DzSqX5N7gStmcstdUh9e8H
2C5NKOi0mq3M5vic4Z+d2qPtppYZWsYxQqn2i5SbwrjbVxhYZQtDEyepz1d+xeEk
YBnM/Vve7Lb9ftLidQXJqo6HHxvwXiWYgZrp6GbhitkRFdXx095uAxv27FuCPi/f
wtkhK1DIPtNeWVppPSOitDcSugwr60xuPD8HEtBgI+wa35B82/yOia3dNBU3N8es
mcy5VfjNqEu+2Z1rTiNRnZG1HybCSFrSVdt9pgTYZl4qiwIDAQABo4G9MIG6MAkG
A1UdEwQCMAAwHQYDVR0OBBYEFB3ePceRZ5G1YGQ6h82KfnhFoI6eMFEGA1UdIwRK
MEiAFMMRmk7vvOVflfYY62YUyqO9DUtwoRqkGDAWMRQwEgYDVQQDDAt0ZWFtMTAw
LW5ldIIUeetscIlYrnggkMGnnDOTGPTf6tswEwYDVR0lBAwwCgYIKwYBBQUHAwEw
CwYDVR0PBAQDAgWgMBkGA1UdEQQSMBCCDnRlYW0xMDAtc2VydmVyMA0GCSqGSIb3
DQEBCwUAA4IBAQCI9gsDd0WMaGszWlf2/7bbwbb7vQNi3LgySND4+oqC227aS3Ts
X2BsI00DvozBvbHIArk7qVPwYPCXOe8H6PBKs6+LvrVgnPY+jaRYe4h3SJKl31xG
T0O8Y9Nw/4bLCXMWcKleu13aP3uRUHIoWFzqy+PtRPynTK/Jzl1idxcROZNK6aBN
AHTC2hLU8QMoaZ5pZDKZZwb0VEDJmVX3X1w3G45BTMy7sb6DST6QM5FvXbdDXh1g
waWSAItOUJHqgvYY9BHpogMUTZ1qyGz9pTow0APoIfoapANIK2XJKQOaVy+PC3al
3Bg6k4f8MRv5bnU7hpjxKnJfey3CP+fmOkUX
-----END CERTIFICATE-----
