Certificate:
    Data:
        Version: 3 (0x2)
        Serial Number:
            c4:1f:ee:4e:7e:9a:de:34:61:b6:17:10:f3:d6:d3:78
        Signature Algorithm: sha256WithRSAEncryption
        Issuer: CN=team100-net
        Validity
            Not Before: Nov  3 20:40:54 2023 GMT
            Not After : Oct 18 20:40:54 2026 GMT
        Subject: CN=team100-client
        Subject Public Key Info:
            Public Key Algorithm: rsaEncryption
                Public-Key: (2048 bit)
                Modulus:
                    00:bc:4f:a6:d6:1e:a3:59:43:a7:b2:ce:a2:d0:2c:
                    cc:f2:4f:c5:3f:7a:4f:92:28:f2:f5:1f:24:6d:44:
                    bd:8a:bd:89:db:c9:86:a9:e6:a3:0d:5f:07:61:c0:
                    1d:4a:b5:0d:b2:3c:a1:e9:10:6f:f1:f7:9d:1a:2f:
                    dc:11:f6:79:90:6b:55:26:7c:ff:7e:f8:f6:2a:b7:
                    f9:52:da:44:f7:52:31:9f:ab:fd:9a:65:30:93:02:
                    1d:4e:2a:23:0f:94:32:54:08:ae:45:8c:7b:52:3a:
                    51:28:a5:c9:33:f1:e7:43:00:c3:8d:66:00:46:ed:
                    f0:2f:02:d5:10:81:ec:f4:87:da:0a:0e:cc:b6:a6:
                    a7:bd:0b:eb:90:a5:1b:3b:3b:ba:93:1a:5f:33:0e:
                    7d:98:99:ba:99:64:28:d1:82:5c:91:d6:a2:8f:33:
                    3a:4f:5e:38:7b:dd:3a:42:15:ea:3f:72:21:27:5c:
                    ed:86:d9:7d:92:7f:cb:43:23:88:23:2b:46:6c:c4:
                    78:8d:01:f1:bc:3a:6f:a8:ab:5f:9e:70:fc:a4:f0:
                    9b:79:e3:79:81:98:f2:ca:06:43:a6:c3:db:16:29:
                    a6:a5:2a:7a:9c:5c:b5:1b:53:15:f4:f8:58:a0:08:
                    ed:71:76:10:96:2d:8c:16:b2:5e:da:68:65:b9:df:
                    83:f5
                Exponent: 65537 (0x10001)
        X509v3 extensions:
            X509v3 Basic Constraints: 
                CA:FALSE
            X509v3 Subject Key Identifier: 
                4A:F8:8C:B0:74:59:7D:04:9C:98:C7:EB:D8:43:4C:DF:0A:DA:50:C5
            X509v3 Authority Key Identifier: 
                keyid:9D:4A:0B:34:3D:14:17:EA:AB:86:EB:67:CB:67:AF:82:F4:22:09:03
                DirName:/CN=team100-net
                serial:32:78:84:E6:ED:28:25:30:A5:7D:E8:DE:7D:87:8B:E0:5B:4C:AD:E0
            X509v3 Extended Key Usage: 
                TLS Web Client Authentication
            X509v3 Key Usage: 
                Digital Signature
    Signature Algorithm: sha256WithRSAEncryption
    Signature Value:
        b6:b7:9e:14:48:0b:7c:d8:7f:22:c1:37:21:43:a1:5c:ba:0a:
        8c:b9:bb:e3:26:5e:09:78:0b:52:7a:c5:d0:6d:2f:17:50:c7:
        1c:a8:fc:f6:72:a9:4e:8e:4f:09:b0:a1:a2:81:c0:0c:5a:c2:
        2b:d3:70:50:98:db:92:12:b7:08:d5:68:d0:db:b5:80:c7:73:
        7b:0a:f8:af:2a:5a:b3:17:ab:dc:70:e2:5c:31:0e:2d:38:04:
        9b:79:5d:18:03:0d:ab:11:99:e0:ae:03:2a:01:9f:81:73:7b:
        7d:90:66:b5:95:7f:1b:35:58:fa:95:e6:90:91:c1:a5:d9:df:
        d0:53:99:e9:0f:32:77:d4:6d:ca:50:49:a6:c2:6a:61:b8:49:
        f3:47:b4:a7:8e:0b:0a:15:ab:1e:24:d0:b3:01:70:5e:9f:98:
        84:07:4d:3c:ec:ae:80:88:b9:9a:5f:a3:05:d0:fe:32:b4:4c:
        b6:67:2c:ee:fa:a0:dd:f0:d5:af:ea:b4:98:81:49:1e:f5:e1:
        32:33:ce:4d:55:2a:0f:db:6b:25:4c:20:ac:76:d0:74:db:83:
        dc:00:78:b0:99:f3:91:63:9c:ff:0c:33:47:96:ef:71:37:15:
        01:61:1a:58:a2:1e:44:f2:1b:f9:4c:5d:c7:8f:33:6b:32:b4:
        cb:34:80:97
-----BEGIN CERTIFICATE-----
MIIDXTCCAkWgAwIBAgIRAMQf7k5+mt40YbYXEPPW03gwDQYJKoZIhvcNAQELBQAw
FjEUMBIGA1UEAwwLdGVhbTEwMC1uZXQwHhcNMjMxMTAzMjA0MDU0WhcNMjYxMDE4
MjA0MDU0WjAZMRcwFQYDVQQDDA50ZWFtMTAwLWNsaWVudDCCASIwDQYJKoZIhvcN
AQEBBQADggEPADCCAQoCggEBALxPptYeo1lDp7LOotAszPJPxT96T5Io8vUfJG1E
vYq9idvJhqnmow1fB2HAHUq1DbI8oekQb/H3nRov3BH2eZBrVSZ8/3749iq3+VLa
RPdSMZ+r/ZplMJMCHU4qIw+UMlQIrkWMe1I6USilyTPx50MAw41mAEbt8C8C1RCB
7PSH2goOzLamp70L65ClGzs7upMaXzMOfZiZuplkKNGCXJHWoo8zOk9eOHvdOkIV
6j9yISdc7YbZfZJ/y0MjiCMrRmzEeI0B8bw6b6irX55w/KTwm3njeYGY8soGQ6bD
2xYppqUqepxctRtTFfT4WKAI7XF2EJYtjBayXtpoZbnfg/UCAwEAAaOBojCBnzAJ
BgNVHRMEAjAAMB0GA1UdDgQWBBRK+IywdFl9BJyYx+vYQ0zfCtpQxTBRBgNVHSME
SjBIgBSdSgs0PRQX6quG62fLZ6+C9CIJA6EapBgwFjEUMBIGA1UEAwwLdGVhbTEw
MC1uZXSCFDJ4hObtKCUwpX3o3n2Hi+BbTK3gMBMGA1UdJQQMMAoGCCsGAQUFBwMC
MAsGA1UdDwQEAwIHgDANBgkqhkiG9w0BAQsFAAOCAQEAtreeFEgLfNh/IsE3IUOh
XLoKjLm74yZeCXgLUnrF0G0vF1DHHKj89nKpTo5PCbChooHADFrCK9NwUJjbkhK3
CNVo0Nu1gMdzewr4rypasxer3HDiXDEOLTgEm3ldGAMNqxGZ4K4DKgGfgXN7fZBm
tZV/GzVY+pXmkJHBpdnf0FOZ6Q8yd9RtylBJpsJqYbhJ80e0p44LChWrHiTQswFw
Xp+YhAdNPOyugIi5ml+jBdD+MrRMtmcs7vqg3fDVr+q0mIFJHvXhMjPOTVUqD9tr
JUwgrHbQdNuD3AB4sJnzkWOc/wwzR5bvcTcVAWEaWKIeRPIb+Uxdx48zazK0yzSA
lw==
-----END CERTIFICATE-----
