Certificate:
    Data:
        Version: 3 (0x2)
        Serial Number:
            9e:69:a1:0c:47:cd:29:1b:3a:fc:f6:44:a1:35:cc:5a
        Signature Algorithm: sha256WithRSAEncryption
        Issuer: CN=team51-net
        Validity
            Not Before: Nov  3 20:40:08 2023 GMT
            Not After : Oct 18 20:40:08 2026 GMT
        Subject: CN=team51-client
        Subject Public Key Info:
            Public Key Algorithm: rsaEncryption
                Public-Key: (2048 bit)
                Modulus:
                    00:df:c2:6b:d1:87:3e:93:41:d0:73:7a:3e:6a:fc:
                    99:f0:5d:cd:a2:87:d5:8d:d1:f6:05:b3:34:76:17:
                    5b:95:3b:8d:e3:c4:61:11:c4:37:18:a8:43:13:4d:
                    88:d8:19:18:6d:e4:61:10:7c:66:7f:7c:e0:19:23:
                    40:fa:b2:7b:98:ea:04:97:fc:ef:4d:f4:96:9e:dc:
                    a6:3e:ca:f0:dd:76:75:42:e5:5a:bf:fe:16:44:20:
                    49:e5:aa:18:20:60:2b:e3:2d:55:41:e1:16:1a:cd:
                    d2:96:7a:3b:19:0b:c3:d8:8c:fe:f1:81:60:38:6d:
                    25:f2:0e:11:38:10:79:d5:16:96:2d:7c:f1:1d:55:
                    0e:f1:11:56:70:03:8a:dc:70:f1:99:6e:53:90:26:
                    3d:94:78:6e:2d:ac:24:ef:cb:85:e7:6e:f6:20:95:
                    c7:70:52:d9:a2:f0:0c:08:43:44:55:3a:42:a8:3e:
                    d8:83:e3:e0:9c:0b:c5:55:a3:98:03:21:9e:34:31:
                    f0:57:c9:2c:ae:08:c4:c9:41:20:df:65:fe:7a:40:
                    8a:82:67:db:5e:66:91:83:37:37:99:1b:25:6c:14:
                    aa:00:e4:21:85:4b:86:de:9e:4b:d7:80:c8:37:7a:
                    aa:e6:8a:fa:d2:87:3f:7e:4d:9f:b8:72:21:78:77:
                    f5:e5
                Exponent: 65537 (0x10001)
        X509v3 extensions:
            X509v3 Basic Constraints: 
                CA:FALSE
            X509v3 Subject Key Identifier: 
                A8:98:32:9E:E3:7E:CB:48:7F:C7:CE:5E:DA:59:67:2A:A5:8A:C9:04
            X509v3 Authority Key Identifier: 
                keyid:46:A3:B1:E8:97:FD:A7:39:7D:24:DB:63:86:F9:78:93:1C:F5:37:8D
                DirName:/CN=team51-net
                serial:12:D9:F2:38:F7:3C:93:62:84:2F:41:3D:4D:AA:15:B0:EC:EC:7E:41
            X509v3 Extended Key Usage: 
                TLS Web Client Authentication
            X509v3 Key Usage: 
                Digital Signature
    Signature Algorithm: sha256WithRSAEncryption
    Signature Value:
        dc:ec:8d:ef:6a:89:02:bb:2b:64:0a:06:da:f0:2d:0f:a5:93:
        de:d6:39:94:cc:85:d2:c6:19:d7:fb:5f:20:d4:a6:f6:b3:72:
        5a:03:7d:79:62:07:11:06:f0:af:93:ad:de:36:63:48:58:41:
        91:42:3a:18:de:8a:5c:fa:65:bb:91:4b:ca:aa:e1:20:8d:0e:
        00:7b:51:fe:e0:1e:d0:d3:17:da:5d:87:b6:dc:8b:bf:41:95:
        7f:37:7c:e4:8e:7d:da:39:35:82:05:90:68:aa:cd:71:7c:75:
        eb:92:7e:f1:e5:e5:12:82:ab:c8:ad:95:ac:68:46:4f:2b:2e:
        de:72:9d:e0:a2:13:cd:be:6d:1f:8a:3e:58:dc:84:86:ce:18:
        ab:86:b0:73:2d:ca:01:ee:58:ec:53:54:b2:0b:c1:28:07:0a:
        90:96:85:b3:c8:24:54:7b:7f:b1:19:44:06:ac:1e:1c:e7:c1:
        bb:f1:35:96:ec:4a:e5:44:3b:cd:a2:97:db:0a:24:65:f1:eb:
        1b:15:70:60:d2:2c:10:d6:c5:65:ba:cb:fd:56:70:45:df:08:
        0c:62:cb:b9:43:7a:95:be:42:46:ed:d1:85:ac:a1:d7:4a:29:
        b9:13:0b:65:dc:6e:c0:cf:73:e9:a9:04:66:fd:e5:2c:1f:f7:
        c9:23:29:6c
-----BEGIN CERTIFICATE-----
MIIDWjCCAkKgAwIBAgIRAJ5poQxHzSkbOvz2RKE1zFowDQYJKoZIhvcNAQELBQAw
FTETMBEGA1UEAwwKdGVhbTUxLW5ldDAeFw0yMzExMDMyMDQwMDhaFw0yNjEwMTgy
MDQwMDhaMBgxFjAUBgNVBAMMDXRlYW01MS1jbGllbnQwggEiMA0GCSqGSIb3DQEB
AQUAA4IBDwAwggEKAoIBAQDfwmvRhz6TQdBzej5q/JnwXc2ih9WN0fYFszR2F1uV
O43jxGERxDcYqEMTTYjYGRht5GEQfGZ/fOAZI0D6snuY6gSX/O9N9Jae3KY+yvDd
dnVC5Vq//hZEIEnlqhggYCvjLVVB4RYazdKWejsZC8PYjP7xgWA4bSXyDhE4EHnV
FpYtfPEdVQ7xEVZwA4rccPGZblOQJj2UeG4trCTvy4XnbvYglcdwUtmi8AwIQ0RV
OkKoPtiD4+CcC8VVo5gDIZ40MfBXySyuCMTJQSDfZf56QIqCZ9teZpGDNzeZGyVs
FKoA5CGFS4benkvXgMg3eqrmivrShz9+TZ+4ciF4d/XlAgMBAAGjgaEwgZ4wCQYD
VR0TBAIwADAdBgNVHQ4EFgQUqJgynuN+y0h/x85e2llnKqWKyQQwUAYDVR0jBEkw
R4AURqOx6Jf9pzl9JNtjhvl4kxz1N42hGaQXMBUxEzARBgNVBAMMCnRlYW01MS1u
ZXSCFBLZ8jj3PJNihC9BPU2qFbDs7H5BMBMGA1UdJQQMMAoGCCsGAQUFBwMCMAsG
A1UdDwQEAwIHgDANBgkqhkiG9w0BAQsFAAOCAQEA3OyN72qJArsrZAoG2vAtD6WT
3tY5lMyF0sYZ1/tfINSm9rNyWgN9eWIHEQbwr5Ot3jZjSFhBkUI6GN6KXPplu5FL
yqrhII0OAHtR/uAe0NMX2l2HttyLv0GVfzd85I592jk1ggWQaKrNcXx165J+8eXl
EoKryK2VrGhGTysu3nKd4KITzb5tH4o+WNyEhs4Yq4awcy3KAe5Y7FNUsgvBKAcK
kJaFs8gkVHt/sRlEBqweHOfBu/E1luxK5UQ7zaKX2wokZfHrGxVwYNIsENbFZbrL
/VZwRd8IDGLLuUN6lb5CRu3Rhayh10opuRMLZdxuwM9z6akEZv3lLB/3ySMpbA==
-----END CERTIFICATE-----
