Certificate:
    Data:
        Version: 3 (0x2)
        Serial Number:
            63:de:c9:34:39:1e:51:3d:43:35:57:61:3b:bb:e5:8a
        Signature Algorithm: sha256WithRSAEncryption
        Issuer: CN=team153-net
        Validity
            Not Before: Nov  4 11:30:36 2023 GMT
            Not After : Oct 19 11:30:36 2026 GMT
        Subject: CN=team153-client
        Subject Public Key Info:
            Public Key Algorithm: rsaEncryption
                Public-Key: (2048 bit)
                Modulus:
                    00:c9:02:e4:e2:6c:2b:49:15:46:c6:b0:dc:d4:9b:
                    71:9b:d6:2f:8f:65:42:a3:d2:21:95:39:ba:3b:eb:
                    10:98:f2:cc:08:24:d3:4f:83:d3:92:84:3d:0e:b3:
                    d6:7b:50:c5:ba:35:0e:75:14:cd:73:55:48:11:b8:
                    4d:8f:e6:08:e4:45:94:76:7e:d8:94:9d:36:45:b6:
                    b5:75:cd:25:e1:1d:6a:63:63:e9:61:9c:db:24:f8:
                    f8:57:7e:f2:2c:62:8d:ee:45:45:21:d6:fa:de:a8:
                    57:cf:1d:59:c4:9b:dc:5d:9a:8c:a2:0f:a4:2e:53:
                    93:ae:17:03:50:78:e5:f3:61:cc:ad:d8:84:0f:3e:
                    5e:54:a7:5e:7a:34:88:7c:a8:45:f1:78:40:82:5e:
                    5b:32:e6:7e:ba:dd:97:ae:6b:db:e3:14:32:8b:f2:
                    59:1f:01:7a:8f:ec:f3:d7:74:c2:7a:dd:80:91:74:
                    47:08:5b:e9:be:a6:24:04:ad:47:c7:15:3e:e6:cb:
                    16:8c:c5:0d:06:6b:1b:dc:08:ec:76:c6:1e:85:61:
                    ad:af:15:59:9d:ab:1d:8c:0f:1a:78:86:77:82:bc:
                    ac:b9:65:d2:7d:3b:52:81:56:c7:01:8b:2b:9e:64:
                    71:46:b4:d8:9f:1d:6d:79:ce:8f:55:5d:09:bc:0f:
                    7d:25
                Exponent: 65537 (0x10001)
        X509v3 extensions:
            X509v3 Basic Constraints: 
                CA:FALSE
            X509v3 Subject Key Identifier: 
                E6:81:D2:3F:82:96:3C:CE:95:57:85:8A:43:88:51:55:2A:12:A1:B8
            X509v3 Authority Key Identifier: 
                keyid:22:A3:99:00:C0:8B:6C:4C:1E:45:FD:06:F6:0A:2B:EF:BF:4C:6F:C5
                DirName:/CN=team153-net
                serial:25:7E:CE:E0:CC:F5:E5:69:BA:21:37:CA:5F:E6:30:D6:4C:14:15:94
            X509v3 Extended Key Usage: 
                TLS Web Client Authentication
            X509v3 Key Usage: 
                Digital Signature
    Signature Algorithm: sha256WithRSAEncryption
    Signature Value:
        5f:3a:47:60:27:f8:81:ff:1d:19:dc:75:5a:82:f3:29:4a:c9:
        61:70:19:14:51:50:fc:51:3a:e5:f3:f0:bf:64:c4:60:5f:93:
        39:ee:7a:9c:7a:61:a9:bd:20:85:58:61:25:6a:b2:b0:fd:f0:
        c5:a9:d1:eb:ba:2f:e7:19:10:1d:4a:bc:82:d2:98:a3:76:ea:
        92:e8:04:92:d6:83:e4:1b:fb:02:21:96:e0:9c:00:1d:30:b9:
        b3:09:f5:d0:27:26:a0:77:f4:81:f0:9e:24:2a:9e:52:b6:a3:
        78:7a:d1:25:ce:15:7a:bb:1e:40:cc:64:9d:33:ce:27:26:8a:
        f4:d5:f5:f4:38:51:2a:5a:dd:5d:9a:4b:8e:db:73:e2:af:5d:
        ab:49:92:3c:64:1b:aa:b6:a8:c3:e7:ac:39:20:4f:86:57:9b:
        16:9f:d7:a4:b4:b9:77:04:aa:a1:ff:a0:46:b1:fd:24:34:a3:
        87:ac:95:25:5f:a9:20:ea:85:69:d7:62:4e:d0:42:92:64:59:
        6e:cc:7b:45:f4:54:1c:9e:90:1b:59:55:53:e2:3a:a4:df:20:
        1f:d9:1d:b6:73:a5:c2:44:0f:7e:5f:a7:0c:73:a6:32:c1:9d:
        0f:29:4b:68:48:46:53:3b:64:0b:88:19:61:7e:28:fb:cf:ab:
        da:f4:28:21
-----BEGIN CERTIFICATE-----
MIIDXDCCAkSgAwIBAgIQY97JNDkeUT1DNVdhO7vlijANBgkqhkiG9w0BAQsFADAW
MRQwEgYDVQQDDAt0ZWFtMTUzLW5ldDAeFw0yMzExMDQxMTMwMzZaFw0yNjEwMTkx
MTMwMzZaMBkxFzAVBgNVBAMMDnRlYW0xNTMtY2xpZW50MIIBIjANBgkqhkiG9w0B
AQEFAAOCAQ8AMIIBCgKCAQEAyQLk4mwrSRVGxrDc1Jtxm9Yvj2VCo9IhlTm6O+sQ
mPLMCCTTT4PTkoQ9DrPWe1DFujUOdRTNc1VIEbhNj+YI5EWUdn7YlJ02Rba1dc0l
4R1qY2PpYZzbJPj4V37yLGKN7kVFIdb63qhXzx1ZxJvcXZqMog+kLlOTrhcDUHjl
82HMrdiEDz5eVKdeejSIfKhF8XhAgl5bMuZ+ut2Xrmvb4xQyi/JZHwF6j+zz13TC
et2AkXRHCFvpvqYkBK1HxxU+5ssWjMUNBmsb3AjsdsYehWGtrxVZnasdjA8aeIZ3
grysuWXSfTtSgVbHAYsrnmRxRrTYnx1tec6PVV0JvA99JQIDAQABo4GiMIGfMAkG
A1UdEwQCMAAwHQYDVR0OBBYEFOaB0j+CljzOlVeFikOIUVUqEqG4MFEGA1UdIwRK
MEiAFCKjmQDAi2xMHkX9BvYKK++/TG/FoRqkGDAWMRQwEgYDVQQDDAt0ZWFtMTUz
LW5ldIIUJX7O4Mz15Wm6ITfKX+Yw1kwUFZQwEwYDVR0lBAwwCgYIKwYBBQUHAwIw
CwYDVR0PBAQDAgeAMA0GCSqGSIb3DQEBCwUAA4IBAQBfOkdgJ/iB/x0Z3HVagvMp
SslhcBkUUVD8UTrl8/C/ZMRgX5M57nqcemGpvSCFWGElarKw/fDFqdHrui/nGRAd
SryC0pijduqS6ASS1oPkG/sCIZbgnAAdMLmzCfXQJyagd/SB8J4kKp5StqN4etEl
zhV6ux5AzGSdM84nJor01fX0OFEqWt1dmkuO23Pir12rSZI8ZBuqtqjD56w5IE+G
V5sWn9ektLl3BKqh/6BGsf0kNKOHrJUlX6kg6oVp12JO0EKSZFluzHtF9FQcnpAb
WVVT4jqk3yAf2R22c6XCRA9+X6cMc6YywZ0PKUtoSEZTO2QLiBlhfij7z6va9Cgh
-----END CERTIFICATE-----
