Certificate:
    Data:
        Version: 3 (0x2)
        Serial Number:
            b0:5f:db:57:67:d9:22:3f:42:7f:d2:ed:10:27:c0:02
        Signature Algorithm: sha256WithRSAEncryption
        Issuer: CN=team153-net
        Validity
            Not Before: Nov  4 10:43:23 2023 GMT
            Not After : Oct 19 10:43:23 2026 GMT
        Subject: CN=team153-server
        Subject Public Key Info:
            Public Key Algorithm: rsaEncryption
                Public-Key: (2048 bit)
                Modulus:
                    00:c3:f0:7d:18:6c:39:d1:5c:ca:50:e1:ab:fa:79:
                    30:b6:07:f7:69:82:af:50:46:46:ee:82:4f:b3:c8:
                    73:b0:16:62:f3:76:24:2b:a0:a9:c0:f4:05:dc:ab:
                    c9:cd:c1:98:f0:a7:f9:82:7a:ad:9e:dc:6f:e2:d8:
                    a5:bf:97:67:68:00:6b:34:55:5f:be:81:73:4c:2d:
                    90:8b:86:54:c5:4a:0b:00:5b:af:27:dc:d4:0b:88:
                    c8:6d:04:5c:6c:e1:bf:c1:12:f5:fd:7b:4a:39:3f:
                    c4:4f:a8:92:e8:6a:6e:d5:dc:ea:1a:3d:17:1a:5c:
                    de:77:73:9c:ff:f5:ba:c0:fa:06:c3:97:58:43:5d:
                    95:ef:77:0d:c9:e7:14:d9:c0:73:ad:a8:1b:1a:22:
                    6c:cb:8d:51:c7:fa:c0:6e:33:c6:56:a9:4a:d4:3b:
                    09:90:db:46:cc:b5:32:64:e4:78:6c:27:2c:8f:fa:
                    eb:95:94:ad:03:8e:4c:14:c8:ca:8d:9d:1f:f4:07:
                    94:94:32:f3:62:ef:2a:71:d0:9b:7d:35:ce:30:7e:
                    89:6c:41:4e:5c:4b:00:0a:77:5d:00:ac:91:0b:a0:
                    d6:4a:0d:cf:6d:ec:65:ac:4d:5c:2b:8b:50:e0:8a:
                    f4:b0:5a:82:58:de:5f:f5:c1:55:e8:42:4f:ca:cb:
                    39:05
                Exponent: 65537 (0x10001)
        X509v3 extensions:
            X509v3 Basic Constraints: 
                CA:FALSE
            X509v3 Subject Key Identifier: 
                69:CE:9D:59:6C:0D:9C:C6:36:AA:67:3D:BF:E7:17:0E:F6:E9:60:E9
            X509v3 Authority Key Identifier: 
                keyid:FC:5F:CF:BD:BB:22:63:CC:63:76:F4:27:AF:15:7F:83:21:8F:60:7E
                DirName:/CN=team153-net
                serial:1C:59:3A:C2:A6:FB:C2:F2:5F:E5:90:56:3E:0B:56:17:5E:1B:8F:08
            X509v3 Extended Key Usage: 
                TLS Web Server Authentication
            X509v3 Key Usage: 
                Digital Signature, Key Encipherment
            X509v3 Subject Alternative Name: 
                DNS:team153-server
    Signature Algorithm: sha256WithRSAEncryption
    Signature Value:
        a0:62:88:9d:df:52:76:96:ee:6d:4b:83:2a:e4:15:dd:40:33:
        03:65:64:dd:f8:05:d5:d0:bf:8e:1c:bc:64:c1:cd:33:be:e7:
        e1:f9:e2:ce:d5:8a:48:93:53:ab:9c:e4:44:3b:c6:cd:06:0b:
        41:6d:7b:79:99:92:5b:93:ed:5d:1c:89:8c:0a:49:3b:4f:c8:
        d5:df:77:a9:10:29:d7:43:7a:c4:bc:16:e0:2b:31:4d:e3:e1:
        f5:ae:65:b8:fd:40:b2:de:88:63:3a:85:7f:4c:50:c6:0f:b4:
        9e:5d:46:dd:b9:67:53:c6:48:a2:62:83:e3:2c:19:fc:b4:93:
        c3:cd:96:2e:dd:dd:5d:65:9a:c0:74:7a:d9:a0:38:83:8e:92:
        02:81:cd:93:72:dc:a7:90:c5:81:33:a8:a1:5b:5f:34:4d:d4:
        8a:a3:73:e4:ad:df:22:a2:f0:a1:c0:df:66:21:da:f0:e3:72:
        88:87:0e:e5:81:6a:3c:79:cd:ac:db:81:e3:19:ce:04:da:ca:
        fc:ae:89:92:4d:5a:13:49:33:3e:1c:65:0f:72:6d:55:3c:a5:
        71:95:53:6a:09:df:ad:18:50:c3:db:df:50:32:a5:02:cc:51:
        04:89:a1:19:ba:c3:7e:f5:21:e9:f6:20:b7:a8:f7:4a:23:33:
        c4:10:91:27
-----BEGIN CERTIFICATE-----
MIIDeDCCAmCgAwIBAgIRALBf21dn2SI/Qn/S7RAnwAIwDQYJKoZIhvcNAQELBQAw
FjEUMBIGA1UEAwwLdGVhbTE1My1uZXQwHhcNMjMxMTA0MTA0MzIzWhcNMjYxMDE5
MTA0MzIzWjAZMRcwFQYDVQQDDA50ZWFtMTUzLXNlcnZlcjCCASIwDQYJKoZIhvcN
AQEBBQADggEPADCCAQoCggEBAMPwfRhsOdFcylDhq/p5MLYH92mCr1BGRu6CT7PI
c7AWYvN2JCugqcD0Bdyryc3BmPCn+YJ6rZ7cb+LYpb+XZ2gAazRVX76Bc0wtkIuG
VMVKCwBbryfc1AuIyG0EXGzhv8ES9f17Sjk/xE+okuhqbtXc6ho9Fxpc3ndznP/1
usD6BsOXWENdle93DcnnFNnAc62oGxoibMuNUcf6wG4zxlapStQ7CZDbRsy1MmTk
eGwnLI/665WUrQOOTBTIyo2dH/QHlJQy82LvKnHQm301zjB+iWxBTlxLAAp3XQCs
kQug1koNz23sZaxNXCuLUOCK9LBagljeX/XBVehCT8rLOQUCAwEAAaOBvTCBujAJ
BgNVHRMEAjAAMB0GA1UdDgQWBBRpzp1ZbA2cxjaqZz2/5xcO9ulg6TBRBgNVHSME
SjBIgBT8X8+9uyJjzGN29CevFX+DIY9gfqEapBgwFjEUMBIGA1UEAwwLdGVhbTE1
My1uZXSCFBxZOsKm+8LyX+WQVj4LVhdeG48IMBMGA1UdJQQMMAoGCCsGAQUFBwMB
MAsGA1UdDwQEAwIFoDAZBgNVHREEEjAQgg50ZWFtMTUzLXNlcnZlcjANBgkqhkiG
9w0BAQsFAAOCAQEAoGKInd9SdpbubUuDKuQV3UAzA2Vk3fgF1dC/jhy8ZMHNM77n
4fniztWKSJNTq5zkRDvGzQYLQW17eZmSW5PtXRyJjApJO0/I1d93qRAp10N6xLwW
4CsxTePh9a5luP1Ast6IYzqFf0xQxg+0nl1G3blnU8ZIomKD4ywZ/LSTw82WLt3d
XWWawHR62aA4g46SAoHNk3Lcp5DFgTOooVtfNE3UiqNz5K3fIqLwocDfZiHa8ONy
iIcO5YFqPHnNrNuB4xnOBNrK/K6Jkk1aE0kzPhxlD3JtVTylcZVTagnfrRhQw9vf
UDKlAsxRBImhGbrDfvUh6fYgt6j3SiMzxBCRJw==
-----END CERTIFICATE-----
