Certificate:
    Data:
        Version: 3 (0x2)
        Serial Number:
            c1:ce:e0:90:d7:1c:5d:fa:1e:55:db:16:20:7c:32:4c
        Signature Algorithm: sha256WithRSAEncryption
        Issuer: CN=team153-net
        Validity
            Not Before: Nov  4 10:43:23 2023 GMT
            Not After : Oct 19 10:43:23 2026 GMT
        Subject: CN=team153-client
        Subject Public Key Info:
            Public Key Algorithm: rsaEncryption
                Public-Key: (2048 bit)
                Modulus:
                    00:bd:9d:27:aa:80:d4:82:c8:07:e2:5e:e7:cb:d6:
                    c8:20:c1:31:5a:95:a3:3b:a1:4e:dd:d6:30:08:37:
                    11:b2:16:3b:54:f2:0f:84:b4:64:b1:91:62:15:b5:
                    96:aa:30:fb:67:fa:44:1c:91:4c:61:eb:d3:3f:6a:
                    43:45:f9:41:f5:36:a8:4f:a0:14:f4:ac:18:29:8f:
                    4e:c3:e9:40:79:e5:24:04:ca:7b:86:1c:59:b2:d8:
                    35:c5:17:67:d2:3c:88:c5:31:6d:7f:e5:cd:8c:20:
                    37:49:67:b4:a3:cd:9d:b8:07:9b:a4:95:80:54:aa:
                    fe:b9:62:ab:0b:c6:80:e7:14:ba:41:f1:50:b5:4e:
                    0c:cd:10:48:9b:4a:8f:c1:0e:4a:ef:70:67:e8:6e:
                    fe:62:77:50:df:11:1c:cc:ef:d1:7d:c8:3d:c3:fa:
                    01:51:74:d8:aa:33:f4:f6:87:b9:2b:52:6d:18:f7:
                    77:95:45:95:bc:dc:c5:fa:18:a2:b6:42:03:00:94:
                    53:45:06:55:6b:34:d7:c4:0c:97:d4:d7:78:80:69:
                    45:d3:85:e0:02:73:93:54:94:7d:d7:19:c8:0f:d5:
                    84:2e:90:f3:d9:18:a9:39:6b:93:0f:42:3a:27:d6:
                    98:16:4a:cc:ed:5f:a2:65:84:53:c5:71:31:d6:0a:
                    c8:c7
                Exponent: 65537 (0x10001)
        X509v3 extensions:
            X509v3 Basic Constraints: 
                CA:FALSE
            X509v3 Subject Key Identifier: 
                6B:4A:EF:D0:C2:DB:96:74:E7:6D:7B:71:3B:C8:9D:5F:FD:64:3D:63
            X509v3 Authority Key Identifier: 
                keyid:FC:5F:CF:BD:BB:22:63:CC:63:76:F4:27:AF:15:7F:83:21:8F:60:7E
                DirName:/CN=team153-net
                serial:1C:59:3A:C2:A6:FB:C2:F2:5F:E5:90:56:3E:0B:56:17:5E:1B:8F:08
            X509v3 Extended Key Usage: 
                TLS Web Client Authentication
            X509v3 Key Usage: 
                Digital Signature
    Signature Algorithm: sha256WithRSAEncryption
    Signature Value:
        46:76:8e:39:f2:3d:2d:91:4d:22:1a:db:e8:cf:63:e0:31:ef:
        33:86:73:1b:02:cc:3b:6d:c3:69:a3:5c:8c:d2:ba:99:44:fc:
        71:56:57:cd:25:57:8a:16:b3:e0:e2:56:bb:52:01:64:fd:7e:
        6e:a5:53:fa:c3:53:9e:dd:29:d6:b0:a6:20:e5:6d:16:c0:35:
        84:9d:50:16:af:d3:93:12:46:0d:2f:04:b0:b8:2f:59:05:26:
        6b:28:4d:93:75:0f:01:ad:1f:7c:a0:cc:2e:20:98:51:3e:89:
        d4:9d:29:4d:dd:47:f0:0f:96:8b:5f:e5:e7:ba:24:f6:7b:9b:
        04:f8:ca:c5:6c:58:49:99:ff:07:67:ca:62:32:6c:f0:2c:88:
        b3:ff:15:b6:c6:12:8f:26:84:37:a1:3f:fd:18:cb:1c:e5:16:
        1d:09:6b:a5:82:9c:78:05:58:19:22:98:f6:a6:c9:5d:8f:2a:
        3a:a5:be:92:86:04:f8:e2:bd:c5:05:7c:1d:4c:49:82:e1:69:
        3a:b7:ec:65:99:fa:5b:34:46:7e:29:79:94:c1:1e:e0:57:75:
        6b:06:8b:d6:00:3f:e4:fa:fb:b3:14:59:ae:5c:b6:d7:05:ac:
        65:00:ba:77:2c:90:65:92:56:f4:62:7a:54:0a:7a:23:9d:2b:
        05:8c:27:8f
-----BEGIN CERTIFICATE-----
MIIDXTCCAkWgAwIBAgIRAMHO4JDXHF36HlXbFiB8MkwwDQYJKoZIhvcNAQELBQAw
FjEUMBIGA1UEAwwLdGVhbTE1My1uZXQwHhcNMjMxMTA0MTA0MzIzWhcNMjYxMDE5
MTA0MzIzWjAZMRcwFQYDVQQDDA50ZWFtMTUzLWNsaWVudDCCASIwDQYJKoZIhvcN
AQEBBQADggEPADCCAQoCggEBAL2dJ6qA1ILIB+Je58vWyCDBMVqVozuhTt3WMAg3
EbIWO1TyD4S0ZLGRYhW1lqow+2f6RByRTGHr0z9qQ0X5QfU2qE+gFPSsGCmPTsPp
QHnlJATKe4YcWbLYNcUXZ9I8iMUxbX/lzYwgN0lntKPNnbgHm6SVgFSq/rliqwvG
gOcUukHxULVODM0QSJtKj8EOSu9wZ+hu/mJ3UN8RHMzv0X3IPcP6AVF02Koz9PaH
uStSbRj3d5VFlbzcxfoYorZCAwCUU0UGVWs018QMl9TXeIBpRdOF4AJzk1SUfdcZ
yA/VhC6Q89kYqTlrkw9COifWmBZKzO1fomWEU8VxMdYKyMcCAwEAAaOBojCBnzAJ
BgNVHRMEAjAAMB0GA1UdDgQWBBRrSu/QwtuWdOdte3E7yJ1f/WQ9YzBRBgNVHSME
SjBIgBT8X8+9uyJjzGN29CevFX+DIY9gfqEapBgwFjEUMBIGA1UEAwwLdGVhbTE1
My1uZXSCFBxZOsKm+8LyX+WQVj4LVhdeG48IMBMGA1UdJQQMMAoGCCsGAQUFBwMC
MAsGA1UdDwQEAwIHgDANBgkqhkiG9w0BAQsFAAOCAQEARnaOOfI9LZFNIhrb6M9j
4DHvM4ZzGwLMO23DaaNcjNK6mUT8cVZXzSVXihaz4OJWu1IBZP1+bqVT+sNTnt0p
1rCmIOVtFsA1hJ1QFq/TkxJGDS8EsLgvWQUmayhNk3UPAa0ffKDMLiCYUT6J1J0p
Td1H8A+Wi1/l57ok9nubBPjKxWxYSZn/B2fKYjJs8CyIs/8VtsYSjyaEN6E//RjL
HOUWHQlrpYKceAVYGSKY9qbJXY8qOqW+koYE+OK9xQV8HUxJguFpOrfsZZn6WzRG
fil5lMEe4Fd1awaL1gA/5Pr7sxRZrly21wWsZQC6dyyQZZJW9GJ6VAp6I50rBYwn
jw==
-----END CERTIFICATE-----
