Certificate:
    Data:
        Version: 3 (0x2)
        Serial Number:
            53:3c:fb:0e:97:1a:32:95:bc:5d:05:17:69:2b:5e:30
        Signature Algorithm: sha256WithRSAEncryption
        Issuer: CN=team230-net
        Validity
            Not Before: Nov  4 11:32:07 2023 GMT
            Not After : Oct 19 11:32:07 2026 GMT
        Subject: CN=team230-server
        Subject Public Key Info:
            Public Key Algorithm: rsaEncryption
                Public-Key: (2048 bit)
                Modulus:
                    00:f8:83:cb:a1:d6:48:fd:af:69:63:bf:9d:fc:0f:
                    87:9b:f2:dc:0d:61:a2:50:54:ea:35:ad:91:ed:2e:
                    dc:79:e3:e2:13:ed:c0:04:a4:1b:3b:10:9c:93:3c:
                    6e:47:b0:54:e9:d8:46:21:1d:17:6d:93:eb:27:6e:
                    43:92:73:ac:70:fb:e5:23:b5:66:21:96:59:b8:12:
                    87:60:9f:83:1c:75:5a:3b:62:17:84:c0:a9:5b:51:
                    b2:28:a9:29:47:ad:e2:73:0d:1b:d8:d1:c4:0c:11:
                    57:55:4c:05:16:07:f9:e2:44:d8:c4:e7:09:6d:2e:
                    f3:f0:88:5c:89:31:47:92:57:3b:8c:41:4d:43:03:
                    ce:14:82:4a:60:ce:91:7d:87:71:26:5b:54:5c:f7:
                    d2:27:6f:be:5e:8f:fa:1e:e1:d0:ed:72:fd:71:01:
                    9f:64:f0:63:4c:a4:00:3c:e9:85:3e:bc:70:84:1e:
                    cd:d0:50:89:db:f5:5d:0f:88:a3:8d:96:e2:6f:6f:
                    ab:f0:ce:21:25:0f:61:74:59:bd:ec:d3:23:fa:dc:
                    c3:1f:7b:e1:ad:1f:53:a3:00:93:2d:c5:3e:1f:be:
                    3a:0d:ff:a1:1a:7d:5a:66:a2:66:fe:fd:c5:c1:93:
                    81:c6:d0:cf:d0:0d:49:c7:46:51:fb:f8:92:6a:42:
                    be:f7
                Exponent: 65537 (0x10001)
        X509v3 extensions:
            X509v3 Basic Constraints: 
                CA:FALSE
            X509v3 Subject Key Identifier: 
                89:AF:D6:39:C2:DA:7A:56:58:EB:CF:C8:BC:74:CE:6D:38:ED:63:21
            X509v3 Authority Key Identifier: 
                keyid:FC:52:9F:E9:8B:1E:9B:4F:51:13:E5:D7:7B:2A:9D:D2:08:06:04:FF
                DirName:/CN=team230-net
                serial:7C:BC:42:07:9C:8E:47:34:89:60:70:A8:4C:15:78:6A:F9:BA:50:7B
            X509v3 Extended Key Usage: 
                TLS Web Server Authentication
            X509v3 Key Usage: 
                Digital Signature, Key Encipherment
            X509v3 Subject Alternative Name: 
                DNS:team230-server
    Signature Algorithm: sha256WithRSAEncryption
    Signature Value:
        20:d5:7e:18:01:d0:82:83:7f:03:9e:9f:e1:a9:3b:af:87:80:
        7b:03:a3:d8:21:78:27:d0:7d:f3:91:ce:47:68:e1:d4:d6:c0:
        5a:a6:3d:f7:c2:c0:5b:09:5a:a7:d5:28:10:53:24:33:87:5c:
        95:fe:1d:65:84:d8:39:a1:d0:33:c2:20:f5:4a:87:e1:ca:97:
        2e:ae:5f:d7:8b:2f:d4:63:b4:d5:c8:01:7a:61:be:fe:6a:c3:
        e8:c1:e0:9c:b5:f0:f9:a5:8c:61:99:cc:56:42:09:c2:04:f9:
        9e:57:43:d8:9c:75:09:e5:6e:bf:d4:3b:12:a4:4c:2b:05:24:
        c1:56:43:f9:7c:74:d7:43:45:85:28:a0:b0:b3:65:8b:af:12:
        d0:86:7f:15:3f:db:7a:ff:ac:86:ab:39:61:d8:c0:99:f7:5d:
        c4:21:9f:22:0c:4c:93:94:d0:46:9b:e4:d4:51:50:f5:2e:e1:
        0c:93:40:43:a9:fb:10:c5:55:d7:dc:af:2c:c5:00:6c:54:8a:
        4c:03:bc:e4:a8:19:36:5f:3b:23:1f:74:f8:21:3c:5f:5f:65:
        64:d4:5e:c7:04:15:92:84:4b:76:63:8f:a1:b8:03:eb:19:b0:
        39:74:ed:c5:43:9a:b4:fb:22:43:34:03:08:d2:b3:b9:27:13:
        95:22:a8:6d
-----BEGIN CERTIFICATE-----
MIIDdzCCAl+gAwIBAgIQUzz7DpcaMpW8XQUXaSteMDANBgkqhkiG9w0BAQsFADAW
MRQwEgYDVQQDDAt0ZWFtMjMwLW5ldDAeFw0yMzExMDQxMTMyMDdaFw0yNjEwMTkx
MTMyMDdaMBkxFzAVBgNVBAMMDnRlYW0yMzAtc2VydmVyMIIBIjANBgkqhkiG9w0B
AQEFAAOCAQ8AMIIBCgKCAQEA+IPLodZI/a9pY7+d/A+Hm/LcDWGiUFTqNa2R7S7c
eePiE+3ABKQbOxCckzxuR7BU6dhGIR0XbZPrJ25DknOscPvlI7VmIZZZuBKHYJ+D
HHVaO2IXhMCpW1GyKKkpR63icw0b2NHEDBFXVUwFFgf54kTYxOcJbS7z8IhciTFH
klc7jEFNQwPOFIJKYM6RfYdxJltUXPfSJ2++Xo/6HuHQ7XL9cQGfZPBjTKQAPOmF
PrxwhB7N0FCJ2/VdD4ijjZbib2+r8M4hJQ9hdFm97NMj+tzDH3vhrR9TowCTLcU+
H746Df+hGn1aZqJm/v3FwZOBxtDP0A1Jx0ZR+/iSakK+9wIDAQABo4G9MIG6MAkG
A1UdEwQCMAAwHQYDVR0OBBYEFImv1jnC2npWWOvPyLx0zm047WMhMFEGA1UdIwRK
MEiAFPxSn+mLHptPURPl13sqndIIBgT/oRqkGDAWMRQwEgYDVQQDDAt0ZWFtMjMw
LW5ldIIUfLxCB5yORzSJYHCoTBV4avm6UHswEwYDVR0lBAwwCgYIKwYBBQUHAwEw
CwYDVR0PBAQDAgWgMBkGA1UdEQQSMBCCDnRlYW0yMzAtc2VydmVyMA0GCSqGSIb3
DQEBCwUAA4IBAQAg1X4YAdCCg38Dnp/hqTuvh4B7A6PYIXgn0H3zkc5HaOHU1sBa
pj33wsBbCVqn1SgQUyQzh1yV/h1lhNg5odAzwiD1Sofhypcurl/Xiy/UY7TVyAF6
Yb7+asPoweCctfD5pYxhmcxWQgnCBPmeV0PYnHUJ5W6/1DsSpEwrBSTBVkP5fHTX
Q0WFKKCws2WLrxLQhn8VP9t6/6yGqzlh2MCZ913EIZ8iDEyTlNBGm+TUUVD1LuEM
k0BDqfsQxVXX3K8sxQBsVIpMA7zkqBk2XzsjH3T4ITxfX2Vk1F7HBBWShEt2Y4+h
uAPrGbA5dO3FQ5q0+yJDNAMI0rO5JxOVIqht
-----END CERTIFICATE-----
