Certificate:
    Data:
        Version: 3 (0x2)
        Serial Number:
            05:89:97:94:51:3a:85:e6:39:77:6f:a0:47:df:9e:b1
        Signature Algorithm: sha256WithRSAEncryption
        Issuer: CN=team463-net
        Validity
            Not Before: Nov  4 10:48:51 2023 GMT
            Not After : Oct 19 10:48:51 2026 GMT
        Subject: CN=team463-server
        Subject Public Key Info:
            Public Key Algorithm: rsaEncryption
                Public-Key: (2048 bit)
                Modulus:
                    00:a6:16:d6:b0:5b:1d:3f:ef:9b:35:88:bd:dd:be:
                    19:76:bc:0f:50:a3:29:29:69:55:0c:82:34:b3:56:
                    40:8f:73:37:5d:e4:52:42:48:94:99:0f:33:1c:62:
                    92:36:7f:f5:44:02:9c:c8:3a:43:01:44:f4:81:cc:
                    7c:1a:94:7c:ca:eb:b9:9c:21:d5:9b:68:a4:41:d8:
                    5c:20:e5:d9:7a:9c:59:65:ac:83:d3:96:9a:13:6d:
                    ca:65:64:d3:6f:29:c5:aa:67:c0:ea:6d:03:dc:dd:
                    0a:58:11:24:28:f9:f4:b0:1c:38:b1:1a:6d:ea:21:
                    bd:28:4d:44:24:e5:37:9d:f9:5e:e3:c4:da:1f:0e:
                    06:bf:ac:9f:ed:b9:29:bf:44:d5:2a:84:bb:b1:15:
                    c2:c4:a0:23:fa:bc:3d:70:90:12:51:89:21:64:c0:
                    e2:29:0a:9d:e5:4d:ce:26:43:c2:ef:21:d3:35:70:
                    b2:80:03:da:dd:d5:8e:e0:a8:b2:af:f7:03:2e:0d:
                    ea:82:45:79:23:3a:42:45:56:81:3b:1a:ce:ae:bd:
                    30:d1:e9:f4:15:91:d8:67:02:84:03:17:d7:35:72:
                    db:2e:12:5c:cc:31:ce:1b:44:52:6f:5c:c5:80:74:
                    25:47:69:4d:c3:b8:dd:ff:ec:5e:97:2a:a1:1e:a5:
                    c2:f5
                Exponent: 65537 (0x10001)
        X509v3 extensions:
            X509v3 Basic Constraints: 
                CA:FALSE
            X509v3 Subject Key Identifier: 
                F9:1A:55:F8:C8:A6:8F:A3:F7:49:A0:02:60:E7:6B:A9:D9:9C:59:E2
            X509v3 Authority Key Identifier: 
                keyid:F7:33:8D:C7:12:65:2B:D6:06:C5:A1:F2:D3:4F:0C:DF:A1:C6:DC:DD
                DirName:/CN=team463-net
                serial:08:5A:47:CA:03:3A:4F:90:7C:B9:29:1A:77:D6:26:E6:B7:5D:12:AB
            X509v3 Extended Key Usage: 
                TLS Web Server Authentication
            X509v3 Key Usage: 
                Digital Signature, Key Encipherment
            X509v3 Subject Alternative Name: 
                DNS:team463-server
    Signature Algorithm: sha256WithRSAEncryption
    Signature Value:
        a0:3b:3e:3c:20:73:48:23:ff:c6:1f:10:71:39:67:77:64:9a:
        13:81:b0:24:8a:43:0d:12:3f:ab:1a:19:c9:4b:24:ba:92:8c:
        26:59:b2:50:06:cf:c5:a0:de:5a:ee:d0:24:45:8a:d6:51:18:
        9d:72:a8:40:4c:86:ca:ee:2c:41:f8:5a:b7:a2:c8:33:18:26:
        4a:b9:a3:4b:31:b1:ac:ff:98:88:7c:d0:66:50:41:92:63:a0:
        2f:49:ed:80:84:64:9e:e3:82:d3:87:b8:f2:73:91:50:94:f7:
        f8:a7:31:60:db:b0:37:45:6d:41:48:28:fd:67:39:82:36:3b:
        9c:87:e3:81:81:db:30:1f:f2:de:a3:77:d9:54:25:60:e0:5f:
        65:2e:3a:56:d9:85:2d:28:73:00:29:ab:85:c3:c6:c3:81:b2:
        dc:ce:a6:3b:ed:46:cc:95:86:d5:ac:7c:74:ff:3f:c2:91:87:
        93:00:fb:f2:d3:08:d6:56:54:df:e2:96:d2:26:8b:af:93:66:
        01:f3:57:77:8b:e7:d7:81:d8:d9:9c:88:3d:7a:37:e1:a4:bf:
        6b:fa:f9:33:03:cc:ba:3e:a3:0b:37:8e:74:85:ce:a6:b8:e3:
        13:9f:a5:12:e5:12:e6:78:eb:55:57:ae:da:98:8a:ff:cd:27:
        36:71:ec:bb
-----BEGIN CERTIFICATE-----
MIIDdzCCAl+gAwIBAgIQBYmXlFE6heY5d2+gR9+esTANBgkqhkiG9w0BAQsFADAW
MRQwEgYDVQQDDAt0ZWFtNDYzLW5ldDAeFw0yMzExMDQxMDQ4NTFaFw0yNjEwMTkx
MDQ4NTFaMBkxFzAVBgNVBAMMDnRlYW00NjMtc2VydmVyMIIBIjANBgkqhkiG9w0B
AQEFAAOCAQ8AMIIBCgKCAQEAphbWsFsdP++bNYi93b4ZdrwPUKMpKWlVDII0s1ZA
j3M3XeRSQkiUmQ8zHGKSNn/1RAKcyDpDAUT0gcx8GpR8yuu5nCHVm2ikQdhcIOXZ
epxZZayD05aaE23KZWTTbynFqmfA6m0D3N0KWBEkKPn0sBw4sRpt6iG9KE1EJOU3
nfle48TaHw4Gv6yf7bkpv0TVKoS7sRXCxKAj+rw9cJASUYkhZMDiKQqd5U3OJkPC
7yHTNXCygAPa3dWO4Kiyr/cDLg3qgkV5IzpCRVaBOxrOrr0w0en0FZHYZwKEAxfX
NXLbLhJczDHOG0RSb1zFgHQlR2lNw7jd/+xelyqhHqXC9QIDAQABo4G9MIG6MAkG
A1UdEwQCMAAwHQYDVR0OBBYEFPkaVfjIpo+j90mgAmDna6nZnFniMFEGA1UdIwRK
MEiAFPczjccSZSvWBsWh8tNPDN+hxtzdoRqkGDAWMRQwEgYDVQQDDAt0ZWFtNDYz
LW5ldIIUCFpHygM6T5B8uSkad9Ym5rddEqswEwYDVR0lBAwwCgYIKwYBBQUHAwEw
CwYDVR0PBAQDAgWgMBkGA1UdEQQSMBCCDnRlYW00NjMtc2VydmVyMA0GCSqGSIb3
DQEBCwUAA4IBAQCgOz48IHNII//GHxBxOWd3ZJoTgbAkikMNEj+rGhnJSyS6kowm
WbJQBs/FoN5a7tAkRYrWURidcqhATIbK7ixB+Fq3osgzGCZKuaNLMbGs/5iIfNBm
UEGSY6AvSe2AhGSe44LTh7jyc5FQlPf4pzFg27A3RW1BSCj9ZzmCNjuch+OBgdsw
H/Leo3fZVCVg4F9lLjpW2YUtKHMAKauFw8bDgbLczqY77UbMlYbVrHx0/z/CkYeT
APvy0wjWVlTf4pbSJouvk2YB81d3i+fXgdjZnIg9ejfhpL9r+vkzA8y6PqMLN450
hc6muOMTn6US5RLmeOtVV67amIr/zSc2cey7
-----END CERTIFICATE-----
