Certificate:
    Data:
        Version: 3 (0x2)
        Serial Number:
            9a:04:cc:31:52:cc:7d:b7:cc:f4:ac:38:a0:8d:6f:5d
        Signature Algorithm: sha256WithRSAEncryption
        Issuer: CN=team463-net
        Validity
            Not Before: Nov  3 20:47:42 2023 GMT
            Not After : Oct 18 20:47:42 2026 GMT
        Subject: CN=team463-client
        Subject Public Key Info:
            Public Key Algorithm: rsaEncryption
                Public-Key: (2048 bit)
                Modulus:
                    00:96:c4:cf:47:26:43:03:5f:df:53:07:db:e0:74:
                    71:33:c0:cf:30:52:f3:f4:e2:8d:a9:2f:98:bc:cd:
                    42:95:de:59:7c:df:be:3f:c1:cb:88:f4:a1:c7:88:
                    ce:ec:0e:fa:d3:02:7c:69:16:15:52:27:b3:d5:e2:
                    0f:1e:da:23:48:34:83:47:df:7c:35:59:31:9b:95:
                    35:91:7d:8c:d7:74:9b:57:f9:19:b2:3e:71:ad:50:
                    70:df:7c:fb:b7:3e:f5:18:fb:fa:54:17:fe:d9:d5:
                    dd:9d:22:c7:c3:b3:29:ff:0d:2b:ba:17:56:57:c3:
                    c3:4e:a9:2f:4e:22:4c:d3:40:e6:ee:e4:98:4b:cc:
                    d4:55:c8:e7:58:6c:96:4f:1b:df:4d:21:cf:f9:21:
                    3f:c5:b4:52:96:76:7e:fc:d0:3a:50:14:34:bc:79:
                    c1:31:f4:47:84:95:a5:86:21:91:ff:93:57:f1:b6:
                    c1:a0:cf:34:4a:ea:e0:22:c6:39:b8:20:73:5b:7f:
                    02:93:ed:c8:f4:cf:76:d1:57:4c:b0:1a:d6:a3:5c:
                    24:bd:7d:59:92:4b:dd:e3:49:5f:fe:65:03:29:a4:
                    31:e3:1f:97:39:58:b1:a3:22:0e:9a:d5:ad:76:55:
                    18:35:d3:cf:27:46:ba:af:97:51:f0:df:74:e4:f3:
                    61:33
                Exponent: 65537 (0x10001)
        X509v3 extensions:
            X509v3 Basic Constraints: 
                CA:FALSE
            X509v3 Subject Key Identifier: 
                6D:6B:B1:EF:E4:F6:AE:B8:12:84:E3:5C:3B:31:95:40:73:73:65:43
            X509v3 Authority Key Identifier: 
                keyid:9B:8A:01:61:9F:2C:F8:B4:96:B6:5E:50:8C:FA:A3:B3:07:27:12:DB
                DirName:/CN=team463-net
                serial:8B:D6:C0:89:F8:EC:78:91:8E:2D:CA:4F:EE:EF:C2:73:DC:B2:B4
            X509v3 Extended Key Usage: 
                TLS Web Client Authentication
            X509v3 Key Usage: 
                Digital Signature
    Signature Algorithm: sha256WithRSAEncryption
    Signature Value:
        a1:b5:68:8d:0e:3a:2f:e0:00:ff:aa:8f:d4:2a:54:4b:66:b8:
        43:cc:2e:c0:7a:be:8b:56:6a:6f:6d:9e:c0:9c:79:cf:6c:a4:
        f3:47:0b:0c:84:b1:c7:55:03:2a:7e:8f:d7:1c:36:1e:2e:28:
        37:ba:7b:72:0c:01:5e:fb:6b:cb:b7:d2:e1:7e:1c:6f:97:32:
        0c:0b:0c:4f:2e:eb:2c:31:a4:10:e0:95:39:59:59:b1:13:6e:
        ea:c4:2a:85:fc:10:69:14:1d:0c:78:f5:21:a0:98:5e:01:74:
        e5:bb:fe:4c:83:5e:46:bc:f4:ce:44:1b:0a:b8:08:b0:1e:de:
        dd:08:2f:d7:c4:0b:22:ab:72:9b:dd:94:ca:5e:7d:d4:e0:8d:
        4c:6f:fd:42:33:41:31:6d:e3:d1:10:93:b3:29:d6:b6:64:26:
        60:8c:10:72:79:39:55:71:29:ca:60:34:3f:8d:8a:19:ce:b4:
        bb:25:ba:02:55:2c:08:49:e2:45:5d:2b:96:f6:08:a5:d1:d1:
        af:e5:d6:8c:6c:89:e8:92:32:ab:ab:c8:f5:c6:6d:88:82:1a:
        57:da:15:50:ad:2a:d4:2a:c3:ed:7a:1a:65:38:e4:5a:6b:4f:
        ea:1e:f9:2e:23:fc:1a:1e:0b:22:68:bd:f0:e5:40:f9:55:64:
        5a:60:4b:4f
-----BEGIN CERTIFICATE-----
MIIDXTCCAkWgAwIBAgIRAJoEzDFSzH23zPSsOKCNb10wDQYJKoZIhvcNAQELBQAw
FjEUMBIGA1UEAwwLdGVhbTQ2My1uZXQwHhcNMjMxMTAzMjA0NzQyWhcNMjYxMDE4
MjA0NzQyWjAZMRcwFQYDVQQDDA50ZWFtNDYzLWNsaWVudDCCASIwDQYJKoZIhvcN
AQEBBQADggEPADCCAQoCggEBAJbEz0cmQwNf31MH2+B0cTPAzzBS8/TijakvmLzN
QpXeWXzfvj/By4j0oceIzuwO+tMCfGkWFVIns9XiDx7aI0g0g0fffDVZMZuVNZF9
jNd0m1f5GbI+ca1QcN98+7c+9Rj7+lQX/tnV3Z0ix8OzKf8NK7oXVlfDw06pL04i
TNNA5u7kmEvM1FXI51hslk8b300hz/khP8W0UpZ2fvzQOlAUNLx5wTH0R4SVpYYh
kf+TV/G2waDPNErq4CLGObggc1t/ApPtyPTPdtFXTLAa1qNcJL19WZJL3eNJX/5l
AymkMeMflzlYsaMiDprVrXZVGDXTzydGuq+XUfDfdOTzYTMCAwEAAaOBojCBnzAJ
BgNVHRMEAjAAMB0GA1UdDgQWBBRta7Hv5PauuBKE41w7MZVAc3NlQzBRBgNVHSME
SjBIgBSbigFhnyz4tJa2XlCM+qOzBycS26EapBgwFjEUMBIGA1UEAwwLdGVhbTQ2
My1uZXSCFACL1sCJ+Ox4kY4tyk/u78Jz3LK0MBMGA1UdJQQMMAoGCCsGAQUFBwMC
MAsGA1UdDwQEAwIHgDANBgkqhkiG9w0BAQsFAAOCAQEAobVojQ46L+AA/6qP1CpU
S2a4Q8wuwHq+i1Zqb22ewJx5z2yk80cLDISxx1UDKn6P1xw2Hi4oN7p7cgwBXvtr
y7fS4X4cb5cyDAsMTy7rLDGkEOCVOVlZsRNu6sQqhfwQaRQdDHj1IaCYXgF05bv+
TINeRrz0zkQbCrgIsB7e3Qgv18QLIqtym92Uyl591OCNTG/9QjNBMW3j0RCTsynW
tmQmYIwQcnk5VXEpymA0P42KGc60uyW6AlUsCEniRV0rlvYIpdHRr+XWjGyJ6JIy
q6vI9cZtiIIaV9oVUK0q1CrD7XoaZTjkWmtP6h75LiP8Gh4LImi98OVA+VVkWmBL
Tw==
-----END CERTIFICATE-----
