Certificate:
    Data:
        Version: 3 (0x2)
        Serial Number:
            b8:19:d3:3f:b5:9a:f5:fd:e8:4b:2a:82:3a:1a:67:27
        Signature Algorithm: sha256WithRSAEncryption
        Issuer: CN=team463-net
        Validity
            Not Before: Nov  4 11:37:56 2023 GMT
            Not After : Oct 19 11:37:56 2026 GMT
        Subject: CN=team463-client
        Subject Public Key Info:
            Public Key Algorithm: rsaEncryption
                Public-Key: (2048 bit)
                Modulus:
                    00:89:1c:eb:ca:c2:be:6b:c3:fe:19:a9:58:d3:e2:
                    39:77:0e:ea:40:39:3d:4a:f0:c6:79:32:1b:90:d1:
                    1d:d1:e5:c2:b0:a9:4a:65:ca:00:c4:b9:a6:a3:a5:
                    6a:5a:cd:a8:24:68:b5:7d:b6:f8:5a:4a:a9:84:94:
                    6e:af:7f:34:ff:6f:3c:46:af:09:51:be:3a:a6:15:
                    11:b8:67:c6:8c:6a:8c:15:39:9c:f1:e7:fb:23:cc:
                    23:65:39:82:04:55:61:47:ab:00:33:aa:13:c0:0b:
                    ad:69:a2:b5:76:aa:b0:de:11:4a:19:59:14:72:1f:
                    19:95:74:bf:55:1c:a6:ab:58:a7:e3:79:f7:73:26:
                    a1:7e:9f:03:9c:40:6a:94:30:43:59:86:51:c3:98:
                    67:9d:a1:86:9a:2a:90:98:fe:6f:5f:84:45:3c:7f:
                    eb:fe:23:05:c4:a8:64:d6:e4:83:cf:2b:68:27:2b:
                    fa:85:66:12:69:2a:9a:47:20:ee:1c:d8:42:61:84:
                    f9:75:29:d9:07:56:28:f3:3c:0c:44:f0:4d:82:d0:
                    59:53:a2:0b:db:e9:ff:08:4f:94:23:d7:8a:af:5d:
                    cc:53:3b:08:c9:56:1a:d9:eb:de:9e:2c:fb:5a:ef:
                    d1:7c:95:b2:7a:57:5a:e3:3f:4f:44:aa:1a:c6:d7:
                    79:bb
                Exponent: 65537 (0x10001)
        X509v3 extensions:
            X509v3 Basic Constraints: 
                CA:FALSE
            X509v3 Subject Key Identifier: 
                30:05:3D:15:82:1E:B5:2F:84:EF:0D:88:C8:F6:7D:4E:A8:1F:BC:00
            X509v3 Authority Key Identifier: 
                keyid:1C:71:3E:A7:5E:C9:15:C1:FA:E8:15:B3:2E:81:7D:11:9A:2A:2D:6B
                DirName:/CN=team463-net
                serial:61:77:E9:33:D0:A9:09:CD:C3:4B:7B:CD:B6:F3:32:30:C1:CA:70:46
            X509v3 Extended Key Usage: 
                TLS Web Client Authentication
            X509v3 Key Usage: 
                Digital Signature
    Signature Algorithm: sha256WithRSAEncryption
    Signature Value:
        26:cf:04:8b:66:0b:8c:9d:68:b0:5e:02:c6:40:00:aa:8f:69:
        cd:27:bd:01:49:9a:f2:2e:58:c2:f2:b6:c1:04:2f:99:c1:7b:
        7b:01:41:d9:fb:94:2c:08:e0:a3:c9:79:2e:40:cd:44:c4:75:
        0e:97:63:9c:b7:65:4b:08:1f:39:b1:2d:f9:d2:95:de:38:bb:
        04:6c:0f:dc:1e:ea:c2:71:61:18:cd:4d:26:21:df:8e:5b:05:
        05:69:5a:0b:bc:df:16:1a:5e:b9:28:01:99:52:d0:f2:bc:a7:
        bd:dd:44:26:a7:7b:ad:6c:25:61:f9:8b:ee:6f:b0:da:1a:29:
        e5:ef:3b:96:22:11:5a:36:4c:57:ba:96:4a:d4:76:4e:88:16:
        58:e0:3e:4e:bf:c6:68:16:21:1f:c8:0f:42:fb:e1:6b:a3:a1:
        06:51:9d:b7:f7:90:b5:71:61:6c:36:dd:b1:da:af:69:64:32:
        de:b2:65:cf:e6:32:b5:6c:83:a9:b5:99:cd:d2:0d:32:53:82:
        40:31:ff:b3:7a:2e:c6:d4:64:f4:89:9a:67:6e:5b:f7:46:06:
        60:e5:b4:4a:3f:01:a5:05:e8:6c:43:ff:a1:63:83:8a:03:3c:
        77:d3:fc:e1:73:d2:fa:45:6c:98:ec:ae:5a:00:f0:a0:b0:c1:
        8c:f0:01:78
-----BEGIN CERTIFICATE-----
MIIDXTCCAkWgAwIBAgIRALgZ0z+1mvX96EsqgjoaZycwDQYJKoZIhvcNAQELBQAw
FjEUMBIGA1UEAwwLdGVhbTQ2My1uZXQwHhcNMjMxMTA0MTEzNzU2WhcNMjYxMDE5
MTEzNzU2WjAZMRcwFQYDVQQDDA50ZWFtNDYzLWNsaWVudDCCASIwDQYJKoZIhvcN
AQEBBQADggEPADCCAQoCggEBAIkc68rCvmvD/hmpWNPiOXcO6kA5PUrwxnkyG5DR
HdHlwrCpSmXKAMS5pqOlalrNqCRotX22+FpKqYSUbq9/NP9vPEavCVG+OqYVEbhn
xoxqjBU5nPHn+yPMI2U5ggRVYUerADOqE8ALrWmitXaqsN4RShlZFHIfGZV0v1Uc
pqtYp+N593MmoX6fA5xAapQwQ1mGUcOYZ52hhpoqkJj+b1+ERTx/6/4jBcSoZNbk
g88raCcr+oVmEmkqmkcg7hzYQmGE+XUp2QdWKPM8DETwTYLQWVOiC9vp/whPlCPX
iq9dzFM7CMlWGtnr3p4s+1rv0XyVsnpXWuM/T0SqGsbXebsCAwEAAaOBojCBnzAJ
BgNVHRMEAjAAMB0GA1UdDgQWBBQwBT0Vgh61L4TvDYjI9n1OqB+8ADBRBgNVHSME
SjBIgBQccT6nXskVwfroFbMugX0Rmiota6EapBgwFjEUMBIGA1UEAwwLdGVhbTQ2
My1uZXSCFGF36TPQqQnNw0t7zbbzMjDBynBGMBMGA1UdJQQMMAoGCCsGAQUFBwMC
MAsGA1UdDwQEAwIHgDANBgkqhkiG9w0BAQsFAAOCAQEAJs8Ei2YLjJ1osF4CxkAA
qo9pzSe9AUma8i5YwvK2wQQvmcF7ewFB2fuULAjgo8l5LkDNRMR1DpdjnLdlSwgf
ObEt+dKV3ji7BGwP3B7qwnFhGM1NJiHfjlsFBWlaC7zfFhpeuSgBmVLQ8rynvd1E
Jqd7rWwlYfmL7m+w2hop5e87liIRWjZMV7qWStR2TogWWOA+Tr/GaBYhH8gPQvvh
a6OhBlGdt/eQtXFhbDbdsdqvaWQy3rJlz+YytWyDqbWZzdINMlOCQDH/s3ouxtRk
9ImaZ25b90YGYOW0Sj8BpQXobEP/oWODigM8d9P84XPS+kVsmOyuWgDwoLDBjPAB
eA==
-----END CERTIFICATE-----
