Certificate:
    Data:
        Version: 3 (0x2)
        Serial Number:
            d5:f2:8c:a3:29:f8:df:1f:03:f3:be:54:12:09:d9:3b
        Signature Algorithm: sha256WithRSAEncryption
        Issuer: CN=team463-net
        Validity
            Not Before: Nov  4 10:48:51 2023 GMT
            Not After : Oct 19 10:48:51 2026 GMT
        Subject: CN=team463-client
        Subject Public Key Info:
            Public Key Algorithm: rsaEncryption
                Public-Key: (2048 bit)
                Modulus:
                    00:c0:09:1e:cd:c5:25:79:c0:07:80:e6:c8:af:11:
                    83:44:95:a6:c7:5d:5d:2c:36:05:db:88:a1:b5:3d:
                    c1:73:09:89:41:20:8b:54:05:09:85:f2:41:76:78:
                    73:be:a0:63:a6:be:22:2c:ee:74:2a:a3:4a:e9:bd:
                    5b:f6:91:52:3b:ab:1a:05:50:2a:85:f1:2a:58:22:
                    3e:46:f0:59:dd:d6:32:e9:54:13:0b:69:4d:31:d7:
                    71:86:7b:36:81:e8:43:1e:89:b6:0f:3c:d4:dc:40:
                    32:7b:75:e1:db:a8:17:36:a3:57:68:b1:94:65:6e:
                    c9:e7:bf:36:7e:68:64:52:58:78:31:f2:45:06:98:
                    67:1e:5e:36:6e:dd:45:0b:b5:fc:e3:e5:5a:50:62:
                    7b:bf:72:4c:8d:1e:4b:c4:57:86:67:ce:8d:f3:84:
                    0d:ae:5c:5e:2c:c4:20:09:4b:e5:e9:82:bf:51:5f:
                    c4:07:95:68:be:f7:df:4f:ab:61:d2:36:bb:8a:09:
                    eb:af:10:b6:e4:0e:fb:60:21:9a:02:c4:7a:30:35:
                    41:c6:f8:27:1e:84:c3:19:88:9e:94:14:a1:67:5e:
                    1c:3e:b5:78:4d:2f:b7:9c:68:ae:e4:10:cd:25:c0:
                    92:00:bc:3d:18:a4:66:d3:92:c3:f7:b5:17:03:f8:
                    e8:65
                Exponent: 65537 (0x10001)
        X509v3 extensions:
            X509v3 Basic Constraints: 
                CA:FALSE
            X509v3 Subject Key Identifier: 
                26:1D:9C:7D:AA:A5:18:74:31:A7:AA:CF:8F:CA:73:09:57:74:CE:FD
            X509v3 Authority Key Identifier: 
                keyid:F7:33:8D:C7:12:65:2B:D6:06:C5:A1:F2:D3:4F:0C:DF:A1:C6:DC:DD
                DirName:/CN=team463-net
                serial:08:5A:47:CA:03:3A:4F:90:7C:B9:29:1A:77:D6:26:E6:B7:5D:12:AB
            X509v3 Extended Key Usage: 
                TLS Web Client Authentication
            X509v3 Key Usage: 
                Digital Signature
    Signature Algorithm: sha256WithRSAEncryption
    Signature Value:
        5a:ba:96:ae:c4:8b:cd:89:ca:3e:0d:5c:23:22:0a:40:42:20:
        97:a5:cc:de:29:b8:8a:f9:73:de:85:06:e4:1f:b5:64:6d:bf:
        bc:61:16:21:bf:31:f4:2e:f2:c3:8b:a9:38:a6:c5:b4:6a:e1:
        da:10:b9:1c:19:3c:1d:11:8a:75:ce:2d:6f:b2:d1:d4:04:6e:
        11:9a:eb:7f:5c:d0:b3:d7:1e:cb:28:ab:52:14:c9:dd:8e:ba:
        96:c9:ef:14:4f:1f:5f:d5:71:ea:2b:76:e9:9c:39:12:7e:0e:
        66:5a:8e:32:d4:cc:53:7c:61:24:e4:d7:fa:57:7a:c2:c0:26:
        27:b9:09:a2:90:08:52:02:e9:ce:62:9a:5a:7b:05:10:21:f2:
        b9:77:d2:b9:0e:0f:1d:71:e4:5c:8b:a0:cc:59:0b:16:11:da:
        be:b8:ce:e1:d2:19:f1:ec:c0:24:2d:31:ea:ce:ae:53:b7:fd:
        b5:1b:62:db:b0:93:26:fe:4e:b5:e7:03:ee:60:97:9e:dd:ab:
        22:3c:b2:52:8b:30:a3:d8:8d:6d:7b:f9:bb:88:28:12:96:9b:
        26:31:ea:bd:75:c6:6f:44:9b:38:77:03:ea:be:b9:b6:e8:31:
        1c:48:a6:e2:8b:21:7a:ae:84:01:d6:3c:a4:ec:99:c8:7d:47:
        5b:b5:66:66
-----BEGIN CERTIFICATE-----
MIIDXTCCAkWgAwIBAgIRANXyjKMp+N8fA/O+VBIJ2TswDQYJKoZIhvcNAQELBQAw
FjEUMBIGA1UEAwwLdGVhbTQ2My1uZXQwHhcNMjMxMTA0MTA0ODUxWhcNMjYxMDE5
MTA0ODUxWjAZMRcwFQYDVQQDDA50ZWFtNDYzLWNsaWVudDCCASIwDQYJKoZIhvcN
AQEBBQADggEPADCCAQoCggEBAMAJHs3FJXnAB4DmyK8Rg0SVpsddXSw2BduIobU9
wXMJiUEgi1QFCYXyQXZ4c76gY6a+IizudCqjSum9W/aRUjurGgVQKoXxKlgiPkbw
Wd3WMulUEwtpTTHXcYZ7NoHoQx6Jtg881NxAMnt14duoFzajV2ixlGVuyee/Nn5o
ZFJYeDHyRQaYZx5eNm7dRQu1/OPlWlBie79yTI0eS8RXhmfOjfOEDa5cXizEIAlL
5emCv1FfxAeVaL7330+rYdI2u4oJ668QtuQO+2AhmgLEejA1Qcb4Jx6EwxmInpQU
oWdeHD61eE0vt5xoruQQzSXAkgC8PRikZtOSw/e1FwP46GUCAwEAAaOBojCBnzAJ
BgNVHRMEAjAAMB0GA1UdDgQWBBQmHZx9qqUYdDGnqs+PynMJV3TO/TBRBgNVHSME
SjBIgBT3M43HEmUr1gbFofLTTwzfocbc3aEapBgwFjEUMBIGA1UEAwwLdGVhbTQ2
My1uZXSCFAhaR8oDOk+QfLkpGnfWJua3XRKrMBMGA1UdJQQMMAoGCCsGAQUFBwMC
MAsGA1UdDwQEAwIHgDANBgkqhkiG9w0BAQsFAAOCAQEAWrqWrsSLzYnKPg1cIyIK
QEIgl6XM3im4ivlz3oUG5B+1ZG2/vGEWIb8x9C7yw4upOKbFtGrh2hC5HBk8HRGK
dc4tb7LR1ARuEZrrf1zQs9ceyyirUhTJ3Y66lsnvFE8fX9Vx6it26Zw5En4OZlqO
MtTMU3xhJOTX+ld6wsAmJ7kJopAIUgLpzmKaWnsFECHyuXfSuQ4PHXHkXIugzFkL
FhHavrjO4dIZ8ezAJC0x6s6uU7f9tRti27CTJv5OtecD7mCXnt2rIjyyUoswo9iN
bXv5u4goEpabJjHqvXXGb0SbOHcD6r65tugxHEim4osheq6EAdY8pOyZyH1HW7Vm
Zg==
-----END CERTIFICATE-----
