Certificate:
    Data:
        Version: 3 (0x2)
        Serial Number:
            40:2a:7a:a8:5d:b2:86:9b:a0:79:a9:36:47:07:3f:02
        Signature Algorithm: sha256WithRSAEncryption
        Issuer: CN=team301-net
        Validity
            Not Before: Nov  4 10:46:11 2023 GMT
            Not After : Oct 19 10:46:11 2026 GMT
        Subject: CN=team301-server
        Subject Public Key Info:
            Public Key Algorithm: rsaEncryption
                Public-Key: (2048 bit)
                Modulus:
                    00:ac:2d:c3:35:8e:ec:a9:6f:02:16:ba:eb:e3:27:
                    32:ef:30:54:a3:6e:0c:22:dd:6e:66:9e:08:2b:c9:
                    21:b1:4e:31:25:2d:04:c3:0a:7d:3d:8a:78:83:b8:
                    67:9a:32:1c:c0:3f:11:14:c9:d5:d8:cd:e9:05:9f:
                    37:59:61:b5:7a:c5:79:c5:93:05:40:be:cb:ab:65:
                    d5:ba:39:17:26:6a:bf:90:06:c9:7e:6e:6e:bd:9f:
                    c8:70:78:e1:25:25:2b:4a:34:dd:00:8a:b0:5b:bf:
                    4e:c3:8e:9a:68:1e:92:a1:24:e3:43:57:11:d8:7d:
                    8b:20:91:77:fa:5a:0c:b4:c7:f6:98:4d:30:8a:63:
                    13:dc:67:a4:32:0f:ac:e7:3d:73:41:b9:32:88:87:
                    8a:04:a2:21:d0:9c:ba:91:a7:f3:95:74:75:40:2b:
                    f2:b8:f0:c0:e2:94:f1:2d:3d:56:b2:ca:19:ed:c3:
                    bc:c4:f7:d8:f9:29:bc:43:6e:97:9d:fb:70:14:8f:
                    2a:81:2d:5e:bc:3e:f9:b3:17:b7:fb:2b:25:0e:65:
                    5c:d4:50:1b:2c:0b:8f:a2:7f:5d:dc:9a:f0:aa:97:
                    52:10:d5:26:eb:bb:1e:c4:44:8a:7a:04:03:ae:6a:
                    7d:4e:52:e7:ac:f9:a8:55:0f:fb:4a:4f:1e:25:b4:
                    e9:59
                Exponent: 65537 (0x10001)
        X509v3 extensions:
            X509v3 Basic Constraints: 
                CA:FALSE
            X509v3 Subject Key Identifier: 
                53:16:D0:28:A5:C0:F4:CF:FC:9A:3B:65:98:8E:18:8E:BF:FA:A1:CC
            X509v3 Authority Key Identifier: 
                keyid:18:12:DC:83:73:F4:5A:0F:50:BC:11:E7:DB:8F:50:49:03:24:97:77
                DirName:/CN=team301-net
                serial:3D:1A:06:DF:60:23:77:88:4E:09:45:2D:CF:B1:BC:8C:96:5F:6A:E5
            X509v3 Extended Key Usage: 
                TLS Web Server Authentication
            X509v3 Key Usage: 
                Digital Signature, Key Encipherment
            X509v3 Subject Alternative Name: 
                DNS:team301-server
    Signature Algorithm: sha256WithRSAEncryption
    Signature Value:
        0b:7d:cf:42:40:54:00:ad:cf:d7:0a:4d:35:d7:29:44:98:d3:
        1b:5d:ad:48:d7:a7:98:88:53:9e:45:58:fe:69:67:bd:e4:89:
        87:d3:45:e2:e6:95:14:38:7c:28:1c:82:cd:6e:3c:f1:f0:a4:
        eb:2a:dd:2c:86:b5:a0:0d:0e:65:c4:da:f4:86:9b:49:cf:f4:
        c7:41:e4:c3:07:e1:16:23:c6:d7:e9:68:bf:0e:27:df:33:53:
        45:be:d5:93:1f:0a:fe:e4:6e:0f:a8:1e:c3:dc:44:50:3a:88:
        a8:2f:bc:e4:b6:41:4e:c2:fd:ea:5e:f9:23:b3:4d:39:db:79:
        c3:08:62:99:1d:71:b5:fb:01:48:20:39:39:98:15:a0:34:4f:
        78:0a:30:cf:8c:ab:7e:f2:a7:cc:d6:b5:3e:68:4c:b4:2e:36:
        31:ce:47:d3:9e:b1:2f:59:81:67:bc:ba:1a:c4:78:8d:7a:76:
        27:18:c4:9d:5a:a3:40:1f:de:31:ed:e1:4e:55:88:0f:10:66:
        bf:00:98:69:85:e6:71:31:d1:c3:70:70:e7:6f:5f:8d:ba:1a:
        2d:ee:bd:56:c5:2a:4d:e4:6f:b5:60:89:54:71:f4:42:12:bd:
        31:a0:8f:96:2a:5a:df:43:1b:62:b9:21:5a:15:80:3f:b7:a3:
        fb:10:5f:71
-----BEGIN CERTIFICATE-----
MIIDdzCCAl+gAwIBAgIQQCp6qF2yhpugeak2Rwc/AjANBgkqhkiG9w0BAQsFADAW
MRQwEgYDVQQDDAt0ZWFtMzAxLW5ldDAeFw0yMzExMDQxMDQ2MTFaFw0yNjEwMTkx
MDQ2MTFaMBkxFzAVBgNVBAMMDnRlYW0zMDEtc2VydmVyMIIBIjANBgkqhkiG9w0B
AQEFAAOCAQ8AMIIBCgKCAQEArC3DNY7sqW8CFrrr4ycy7zBUo24MIt1uZp4IK8kh
sU4xJS0Ewwp9PYp4g7hnmjIcwD8RFMnV2M3pBZ83WWG1esV5xZMFQL7Lq2XVujkX
Jmq/kAbJfm5uvZ/IcHjhJSUrSjTdAIqwW79Ow46aaB6SoSTjQ1cR2H2LIJF3+loM
tMf2mE0wimMT3GekMg+s5z1zQbkyiIeKBKIh0Jy6kafzlXR1QCvyuPDA4pTxLT1W
ssoZ7cO8xPfY+Sm8Q26XnftwFI8qgS1evD75sxe3+yslDmVc1FAbLAuPon9d3Jrw
qpdSENUm67sexESKegQDrmp9TlLnrPmoVQ/7Sk8eJbTpWQIDAQABo4G9MIG6MAkG
A1UdEwQCMAAwHQYDVR0OBBYEFFMW0CilwPTP/Jo7ZZiOGI6/+qHMMFEGA1UdIwRK
MEiAFBgS3INz9FoPULwR59uPUEkDJJd3oRqkGDAWMRQwEgYDVQQDDAt0ZWFtMzAx
LW5ldIIUPRoG32Ajd4hOCUUtz7G8jJZfauUwEwYDVR0lBAwwCgYIKwYBBQUHAwEw
CwYDVR0PBAQDAgWgMBkGA1UdEQQSMBCCDnRlYW0zMDEtc2VydmVyMA0GCSqGSIb3
DQEBCwUAA4IBAQALfc9CQFQArc/XCk011ylEmNMbXa1I16eYiFOeRVj+aWe95ImH
00Xi5pUUOHwoHILNbjzx8KTrKt0shrWgDQ5lxNr0hptJz/THQeTDB+EWI8bX6Wi/
DiffM1NFvtWTHwr+5G4PqB7D3ERQOoioL7zktkFOwv3qXvkjs00523nDCGKZHXG1
+wFIIDk5mBWgNE94CjDPjKt+8qfM1rU+aEy0LjYxzkfTnrEvWYFnvLoaxHiNenYn
GMSdWqNAH94x7eFOVYgPEGa/AJhpheZxMdHDcHDnb1+Nuhot7r1WxSpN5G+1YIlU
cfRCEr0xoI+WKlrfQxtiuSFaFYA/t6P7EF9x
-----END CERTIFICATE-----
