Certificate:
    Data:
        Version: 3 (0x2)
        Serial Number:
            25:ec:c1:eb:37:3d:98:2b:d4:fe:e1:61:cd:97:4b:a3
        Signature Algorithm: sha256WithRSAEncryption
        Issuer: CN=team300-net
        Validity
            Not Before: Nov  3 20:44:43 2023 GMT
            Not After : Oct 18 20:44:43 2026 GMT
        Subject: CN=team300-server
        Subject Public Key Info:
            Public Key Algorithm: rsaEncryption
                Public-Key: (2048 bit)
                Modulus:
                    00:97:0c:49:e3:35:71:23:aa:b2:c1:66:5a:7d:d6:
                    f6:96:c7:69:1f:fe:20:81:a5:42:24:16:9e:58:a3:
                    fa:7f:be:de:4c:37:cc:1c:2c:1a:c0:97:58:41:e7:
                    d7:fe:dd:dd:1b:13:24:73:0c:1d:e6:fb:52:5a:52:
                    85:1d:73:ed:47:59:0d:8d:5c:95:9c:be:82:3e:df:
                    e4:00:b1:81:37:31:80:71:9e:3b:7c:ea:6c:72:0d:
                    16:54:b0:45:9c:ef:6a:aa:ab:1b:50:02:cb:7c:e9:
                    aa:5e:30:4c:5d:94:3d:23:9a:86:60:6f:c5:13:07:
                    93:8b:8b:0a:2d:f5:a9:16:a0:f2:66:a1:80:92:b5:
                    29:10:16:d9:02:9a:75:09:7b:49:30:7c:6b:4f:16:
                    a5:9d:8b:e1:b3:c5:4a:68:d1:64:0e:7b:64:92:7a:
                    e3:91:a4:7a:25:a2:03:7b:95:e5:c9:75:49:a1:c7:
                    7b:4e:ba:5a:10:10:1d:26:d9:da:5a:49:ee:73:f0:
                    7d:bb:1d:1c:04:ab:f5:cc:49:1a:0d:6a:73:08:0e:
                    06:bb:97:41:9b:40:ae:f8:5d:b1:0d:42:64:21:91:
                    b8:bb:0a:00:e3:a9:6d:85:e4:5f:e2:bb:5b:38:5f:
                    73:28:1e:5b:52:b2:9f:49:16:e8:22:9d:ba:2e:6e:
                    21:d9
                Exponent: 65537 (0x10001)
        X509v3 extensions:
            X509v3 Basic Constraints: 
                CA:FALSE
            X509v3 Subject Key Identifier: 
                1C:39:20:69:D9:29:61:58:80:30:93:E0:6F:44:00:37:AD:95:BE:72
            X509v3 Authority Key Identifier: 
                keyid:1F:10:DE:92:CD:79:00:DD:CF:B4:6F:07:3D:9D:CF:C5:F7:F0:80:71
                DirName:/CN=team300-net
                serial:37:7D:CF:7E:BE:E2:EE:3C:AD:F0:E2:26:DC:6C:B3:7A:CF:9C:3F:CF
            X509v3 Extended Key Usage: 
                TLS Web Server Authentication
            X509v3 Key Usage: 
                Digital Signature, Key Encipherment
            X509v3 Subject Alternative Name: 
                DNS:team300-server
    Signature Algorithm: sha256WithRSAEncryption
    Signature Value:
        86:b6:35:bf:e2:8b:d8:09:37:59:13:c3:b3:4e:63:8f:5c:05:
        00:7b:bf:b0:fb:6f:94:92:f1:8d:9f:4c:63:3a:ea:33:3b:37:
        35:e6:be:58:b1:30:1b:7a:e1:b3:c3:32:ae:4b:3d:78:30:4f:
        c4:5b:c1:30:15:e3:57:26:d0:04:5e:7c:cb:74:c4:c7:23:33:
        03:fa:db:68:39:79:c9:80:9c:83:e5:ae:66:e2:50:9e:0f:67:
        aa:3b:49:47:6d:ee:fe:2f:55:79:4a:a8:c1:ef:26:3d:92:4b:
        25:e3:91:8f:a9:e3:86:0c:09:70:b1:7b:f1:9e:b3:96:a3:91:
        34:da:aa:07:65:a2:65:0b:6a:33:9b:9f:9c:37:4c:e1:d1:7c:
        c7:0b:ea:93:d5:95:0d:99:98:ab:16:c5:d4:77:b2:ba:49:78:
        bb:7d:72:7e:18:f6:a9:a2:c3:7a:07:14:d4:a3:c4:82:ee:66:
        90:74:d1:44:cc:df:6c:d8:7e:b7:5b:1a:e0:17:b6:d9:eb:40:
        4c:d8:7e:e7:9f:bd:02:00:93:89:8b:26:e2:62:09:09:0c:3f:
        1e:4a:a8:cb:5d:62:1e:fb:88:4f:31:48:49:30:62:01:bd:37:
        01:49:ec:9e:d4:ca:20:4a:f4:3e:d0:c6:0c:64:fc:a1:7e:fd:
        3e:97:6f:59
-----BEGIN CERTIFICATE-----
MIIDdzCCAl+gAwIBAgIQJezB6zc9mCvU/uFhzZdLozANBgkqhkiG9w0BAQsFADAW
MRQwEgYDVQQDDAt0ZWFtMzAwLW5ldDAeFw0yMzExMDMyMDQ0NDNaFw0yNjEwMTgy
MDQ0NDNaMBkxFzAVBgNVBAMMDnRlYW0zMDAtc2VydmVyMIIBIjANBgkqhkiG9w0B
AQEFAAOCAQ8AMIIBCgKCAQEAlwxJ4zVxI6qywWZafdb2lsdpH/4ggaVCJBaeWKP6
f77eTDfMHCwawJdYQefX/t3dGxMkcwwd5vtSWlKFHXPtR1kNjVyVnL6CPt/kALGB
NzGAcZ47fOpscg0WVLBFnO9qqqsbUALLfOmqXjBMXZQ9I5qGYG/FEweTi4sKLfWp
FqDyZqGAkrUpEBbZApp1CXtJMHxrTxalnYvhs8VKaNFkDntkknrjkaR6JaIDe5Xl
yXVJocd7TrpaEBAdJtnaWknuc/B9ux0cBKv1zEkaDWpzCA4Gu5dBm0Cu+F2xDUJk
IZG4uwoA46ltheRf4rtbOF9zKB5bUrKfSRboIp26Lm4h2QIDAQABo4G9MIG6MAkG
A1UdEwQCMAAwHQYDVR0OBBYEFBw5IGnZKWFYgDCT4G9EADetlb5yMFEGA1UdIwRK
MEiAFB8Q3pLNeQDdz7RvBz2dz8X38IBxoRqkGDAWMRQwEgYDVQQDDAt0ZWFtMzAw
LW5ldIIUN33Pfr7i7jyt8OIm3Gyzes+cP88wEwYDVR0lBAwwCgYIKwYBBQUHAwEw
CwYDVR0PBAQDAgWgMBkGA1UdEQQSMBCCDnRlYW0zMDAtc2VydmVyMA0GCSqGSIb3
DQEBCwUAA4IBAQCGtjW/4ovYCTdZE8OzTmOPXAUAe7+w+2+UkvGNn0xjOuozOzc1
5r5YsTAbeuGzwzKuSz14ME/EW8EwFeNXJtAEXnzLdMTHIzMD+ttoOXnJgJyD5a5m
4lCeD2eqO0lHbe7+L1V5SqjB7yY9kksl45GPqeOGDAlwsXvxnrOWo5E02qoHZaJl
C2ozm5+cN0zh0XzHC+qT1ZUNmZirFsXUd7K6SXi7fXJ+GPaposN6BxTUo8SC7maQ
dNFEzN9s2H63WxrgF7bZ60BM2H7nn70CAJOJiybiYgkJDD8eSqjLXWIe+4hPMUhJ
MGIBvTcBSeye1MogSvQ+0MYMZPyhfv0+l29Z
-----END CERTIFICATE-----
