Certificate:
    Data:
        Version: 3 (0x2)
        Serial Number:
            60:97:b3:84:a0:3d:ee:4d:9e:69:03:55:a5:e3:28:dc
        Signature Algorithm: sha256WithRSAEncryption
        Issuer: CN=team300-net
        Validity
            Not Before: Nov  4 11:33:55 2023 GMT
            Not After : Oct 19 11:33:55 2026 GMT
        Subject: CN=team300-client
        Subject Public Key Info:
            Public Key Algorithm: rsaEncryption
                Public-Key: (2048 bit)
                Modulus:
                    00:b3:91:49:5c:a6:81:6b:d8:83:b8:dc:3a:c1:1e:
                    ec:4a:03:d2:1c:cc:8e:fc:8e:7b:5f:ea:72:53:6b:
                    ca:dd:01:d6:1b:f8:51:d4:05:10:f8:85:12:4f:62:
                    8b:e7:b6:35:b3:38:a4:23:e8:72:0d:6c:42:53:6d:
                    ad:c5:45:89:07:cc:5f:f0:fd:95:27:48:61:da:64:
                    6e:01:99:a0:37:91:2f:eb:1c:e6:7f:78:c6:1c:d4:
                    40:6d:fe:1c:31:7d:c9:58:9e:84:35:7a:50:f3:89:
                    c4:57:22:a6:a7:b2:7a:62:d6:16:13:08:75:77:3a:
                    a6:32:8a:53:e5:22:cc:47:fb:f9:b5:2b:e8:dc:9d:
                    a6:44:82:f3:ad:de:28:5f:5f:29:a9:be:05:55:36:
                    c4:da:57:ad:6a:e8:aa:05:3c:f2:e6:3a:a8:70:c6:
                    de:93:03:2b:b9:42:cd:a1:33:4e:5a:8a:52:64:b3:
                    db:f6:87:68:a1:43:49:ab:2a:93:eb:93:5c:b4:0b:
                    10:03:04:2c:31:7f:7e:3c:16:c9:32:f6:04:d4:7b:
                    87:8c:e4:76:16:e4:23:c8:3d:07:4b:35:d5:6e:62:
                    8e:5d:f2:3a:01:96:1c:30:ee:cb:36:ab:8b:9b:ec:
                    17:74:b2:10:de:ab:76:8b:1d:59:9e:84:71:d3:18:
                    d6:87
                Exponent: 65537 (0x10001)
        X509v3 extensions:
            X509v3 Basic Constraints: 
                CA:FALSE
            X509v3 Subject Key Identifier: 
                30:F8:C7:29:72:1B:B2:9A:C1:9C:AE:0C:A9:B6:F5:D7:29:6F:9A:9E
            X509v3 Authority Key Identifier: 
                keyid:50:FB:80:ED:F2:EB:89:79:2B:89:9D:F3:81:EE:02:94:44:96:E0:F0
                DirName:/CN=team300-net
                serial:79:40:E6:75:83:FE:BE:81:F4:B7:4F:FA:65:AB:57:F2:77:66:89:A6
            X509v3 Extended Key Usage: 
                TLS Web Client Authentication
            X509v3 Key Usage: 
                Digital Signature
    Signature Algorithm: sha256WithRSAEncryption
    Signature Value:
        69:fc:b1:2e:29:7d:95:1d:5b:8a:ac:3b:cf:6c:cd:49:33:5e:
        00:76:7a:24:3f:36:ce:41:b7:60:c3:a5:3a:97:38:ca:06:f2:
        4a:d2:94:6a:46:c5:62:29:0f:6d:28:cf:cd:06:d5:e2:5c:77:
        12:8e:fc:9f:38:26:1f:1e:f8:63:12:12:2f:93:b3:62:17:52:
        53:60:9a:7c:f8:49:fa:43:cc:3a:d8:27:4e:e6:29:39:94:a1:
        2f:08:9f:07:93:91:15:03:1c:b1:d9:8a:38:77:f5:a1:6f:c4:
        ee:02:2a:4a:76:6f:37:e1:83:b6:48:6f:c8:aa:d2:9d:7f:20:
        04:46:27:49:98:09:12:3c:50:7b:66:0e:01:a5:dd:84:6d:ba:
        53:b0:f8:62:b6:18:cc:1f:2e:50:78:3f:2c:e3:fc:d5:4c:22:
        86:e0:63:83:05:ed:ff:df:ae:78:1e:be:1c:f4:6b:c6:bc:85:
        7c:22:d2:d7:e1:bd:1a:86:3e:b6:3d:02:9f:98:fa:69:cd:0a:
        4f:6f:8c:d0:36:d8:b3:97:59:ff:83:a6:11:20:2d:35:e3:fe:
        7c:f2:ef:8a:cb:96:48:2f:ba:39:e5:de:f8:11:4f:e3:12:90:
        a4:a7:67:6b:19:3f:76:8e:cc:5e:ae:78:ea:12:16:5a:35:d5:
        96:55:7b:e8
-----BEGIN CERTIFICATE-----
MIIDXDCCAkSgAwIBAgIQYJezhKA97k2eaQNVpeMo3DANBgkqhkiG9w0BAQsFADAW
MRQwEgYDVQQDDAt0ZWFtMzAwLW5ldDAeFw0yMzExMDQxMTMzNTVaFw0yNjEwMTkx
MTMzNTVaMBkxFzAVBgNVBAMMDnRlYW0zMDAtY2xpZW50MIIBIjANBgkqhkiG9w0B
AQEFAAOCAQ8AMIIBCgKCAQEAs5FJXKaBa9iDuNw6wR7sSgPSHMyO/I57X+pyU2vK
3QHWG/hR1AUQ+IUST2KL57Y1szikI+hyDWxCU22txUWJB8xf8P2VJ0hh2mRuAZmg
N5Ev6xzmf3jGHNRAbf4cMX3JWJ6ENXpQ84nEVyKmp7J6YtYWEwh1dzqmMopT5SLM
R/v5tSvo3J2mRILzrd4oX18pqb4FVTbE2letauiqBTzy5jqocMbekwMruULNoTNO
WopSZLPb9odooUNJqyqT65NctAsQAwQsMX9+PBbJMvYE1HuHjOR2FuQjyD0HSzXV
bmKOXfI6AZYcMO7LNquLm+wXdLIQ3qt2ix1ZnoRx0xjWhwIDAQABo4GiMIGfMAkG
A1UdEwQCMAAwHQYDVR0OBBYEFDD4xylyG7KawZyuDKm29dcpb5qeMFEGA1UdIwRK
MEiAFFD7gO3y64l5K4md84HuApREluDwoRqkGDAWMRQwEgYDVQQDDAt0ZWFtMzAw
LW5ldIIUeUDmdYP+voH0t0/6ZatX8ndmiaYwEwYDVR0lBAwwCgYIKwYBBQUHAwIw
CwYDVR0PBAQDAgeAMA0GCSqGSIb3DQEBCwUAA4IBAQBp/LEuKX2VHVuKrDvPbM1J
M14AdnokPzbOQbdgw6U6lzjKBvJK0pRqRsViKQ9tKM/NBtXiXHcSjvyfOCYfHvhj
EhIvk7NiF1JTYJp8+En6Q8w62CdO5ik5lKEvCJ8Hk5EVAxyx2Yo4d/Whb8TuAipK
dm834YO2SG/IqtKdfyAERidJmAkSPFB7Zg4Bpd2EbbpTsPhithjMHy5QeD8s4/zV
TCKG4GODBe3/3654Hr4c9GvGvIV8ItLX4b0ahj62PQKfmPppzQpPb4zQNtizl1n/
g6YRIC014/588u+Ky5ZIL7o55d74EU/jEpCkp2drGT92jsxernjqEhZaNdWWVXvo
-----END CERTIFICATE-----
