Certificate:
    Data:
        Version: 3 (0x2)
        Serial Number:
            74:a9:e6:20:10:2d:b2:d2:46:50:7b:97:7a:a1:ea:cb
        Signature Algorithm: sha256WithRSAEncryption
        Issuer: CN=team300-net
        Validity
            Not Before: Nov  4 10:46:10 2023 GMT
            Not After : Oct 19 10:46:10 2026 GMT
        Subject: CN=team300-client
        Subject Public Key Info:
            Public Key Algorithm: rsaEncryption
                Public-Key: (2048 bit)
                Modulus:
                    00:be:2e:d3:cf:26:a8:08:da:93:53:47:76:b7:79:
                    a2:de:66:4b:19:b3:c4:ec:b7:11:a0:d8:ae:42:8d:
                    e4:f6:5a:6e:18:94:04:b2:e4:3c:59:b1:2f:fa:1a:
                    0f:dc:99:c9:7c:7f:46:1d:8b:0e:4b:e5:ea:83:eb:
                    21:f3:41:3e:3c:a2:3f:5d:2b:8b:27:0c:91:16:2d:
                    92:f4:70:37:c3:2e:44:ed:58:05:6e:0e:88:7d:17:
                    41:ff:56:a0:b8:bc:62:be:a9:9e:92:9b:cb:d1:74:
                    4e:4a:53:73:8d:6c:d5:af:cc:e7:60:4b:90:62:d0:
                    98:ab:e8:03:b1:9a:67:14:d5:5f:e4:b2:05:36:e3:
                    2a:0a:b5:d0:96:78:85:75:6f:60:26:a8:69:61:c5:
                    8a:bd:c0:30:27:27:d9:44:23:20:25:ab:1c:b0:ce:
                    cb:1e:9e:de:fa:27:a1:3e:6a:32:55:cd:42:2b:92:
                    03:0a:21:f8:31:b6:cb:3b:ae:66:21:84:f3:39:6f:
                    59:8c:bb:d5:aa:32:d7:09:e9:7a:da:33:62:46:61:
                    82:a9:8f:c3:79:e8:7d:fa:9a:e4:c0:eb:03:b3:b5:
                    c4:2d:bf:88:1e:74:3b:ca:bc:60:53:f7:9e:f0:d1:
                    e1:ad:5d:15:7c:41:49:09:1a:07:bb:25:eb:54:d0:
                    dd:6d
                Exponent: 65537 (0x10001)
        X509v3 extensions:
            X509v3 Basic Constraints: 
                CA:FALSE
            X509v3 Subject Key Identifier: 
                F8:E8:E6:F0:33:F3:1C:66:12:2F:9B:8B:C5:35:96:33:27:27:4B:E6
            X509v3 Authority Key Identifier: 
                keyid:1F:22:3E:00:D7:78:B8:68:F1:82:91:77:37:CE:4A:12:67:0E:5E:47
                DirName:/CN=team300-net
                serial:28:DC:69:46:90:78:EF:FB:27:11:9B:4A:6E:14:66:26:59:44:F6:00
            X509v3 Extended Key Usage: 
                TLS Web Client Authentication
            X509v3 Key Usage: 
                Digital Signature
    Signature Algorithm: sha256WithRSAEncryption
    Signature Value:
        66:63:37:23:43:d4:ab:62:65:24:ba:6d:3c:00:c6:e2:aa:c7:
        c1:31:22:c5:bd:e5:8a:5f:dd:22:70:20:b5:ff:86:b8:1d:f5:
        c4:99:75:d4:19:92:ce:eb:18:f0:94:d8:52:a9:03:14:4f:2d:
        6c:06:66:d8:56:9d:06:71:27:ed:7c:7b:53:09:cc:c7:f5:53:
        00:79:66:82:0b:99:ef:2e:03:85:dd:62:4b:c6:b6:86:38:58:
        23:81:93:75:9b:07:8d:65:42:00:f0:18:cf:f5:e0:11:c4:26:
        ee:26:b7:31:0c:ad:fa:53:19:80:0d:0a:3b:80:1f:13:66:f5:
        6f:27:f1:e3:4d:22:44:f8:c3:00:94:19:27:10:56:c8:f6:1c:
        1a:7f:5e:f0:6f:a5:32:38:fa:45:f5:26:36:b8:66:c6:aa:89:
        a3:bc:7e:54:b6:99:1b:0b:76:07:76:a9:24:b6:ac:25:ef:e8:
        e2:cc:0d:15:1b:5c:73:bd:99:ba:1c:65:72:94:9f:55:b8:63:
        7c:7d:91:1c:5d:e0:97:d2:18:e9:ee:3c:5d:76:e5:c0:71:f8:
        6f:74:f2:cb:69:e1:b7:62:4e:fd:5f:9c:bc:0a:71:01:b7:ae:
        b7:5e:d6:8d:72:9b:a3:fe:0f:ac:21:28:b8:c3:92:4b:e9:63:
        02:1d:ea:a4
-----BEGIN CERTIFICATE-----
MIIDXDCCAkSgAwIBAgIQdKnmIBAtstJGUHuXeqHqyzANBgkqhkiG9w0BAQsFADAW
MRQwEgYDVQQDDAt0ZWFtMzAwLW5ldDAeFw0yMzExMDQxMDQ2MTBaFw0yNjEwMTkx
MDQ2MTBaMBkxFzAVBgNVBAMMDnRlYW0zMDAtY2xpZW50MIIBIjANBgkqhkiG9w0B
AQEFAAOCAQ8AMIIBCgKCAQEAvi7TzyaoCNqTU0d2t3mi3mZLGbPE7LcRoNiuQo3k
9lpuGJQEsuQ8WbEv+hoP3JnJfH9GHYsOS+Xqg+sh80E+PKI/XSuLJwyRFi2S9HA3
wy5E7VgFbg6IfRdB/1aguLxivqmekpvL0XROSlNzjWzVr8znYEuQYtCYq+gDsZpn
FNVf5LIFNuMqCrXQlniFdW9gJqhpYcWKvcAwJyfZRCMgJascsM7LHp7e+iehPmoy
Vc1CK5IDCiH4MbbLO65mIYTzOW9ZjLvVqjLXCel62jNiRmGCqY/Deeh9+prkwOsD
s7XELb+IHnQ7yrxgU/ee8NHhrV0VfEFJCRoHuyXrVNDdbQIDAQABo4GiMIGfMAkG
A1UdEwQCMAAwHQYDVR0OBBYEFPjo5vAz8xxmEi+bi8U1ljMnJ0vmMFEGA1UdIwRK
MEiAFB8iPgDXeLho8YKRdzfOShJnDl5HoRqkGDAWMRQwEgYDVQQDDAt0ZWFtMzAw
LW5ldIIUKNxpRpB47/snEZtKbhRmJllE9gAwEwYDVR0lBAwwCgYIKwYBBQUHAwIw
CwYDVR0PBAQDAgeAMA0GCSqGSIb3DQEBCwUAA4IBAQBmYzcjQ9SrYmUkum08AMbi
qsfBMSLFveWKX90icCC1/4a4HfXEmXXUGZLO6xjwlNhSqQMUTy1sBmbYVp0GcSft
fHtTCczH9VMAeWaCC5nvLgOF3WJLxraGOFgjgZN1mweNZUIA8BjP9eARxCbuJrcx
DK36UxmADQo7gB8TZvVvJ/HjTSJE+MMAlBknEFbI9hwaf17wb6UyOPpF9SY2uGbG
qomjvH5UtpkbC3YHdqkktqwl7+jizA0VG1xzvZm6HGVylJ9VuGN8fZEcXeCX0hjp
7jxdduXAcfhvdPLLaeG3Yk79X5y8CnEBt663XtaNcpuj/g+sISi4w5JL6WMCHeqk
-----END CERTIFICATE-----
