Certificate:
    Data:
        Version: 3 (0x2)
        Serial Number:
            a7:90:54:63:bb:89:be:dd:da:0d:28:b6:26:1e:35:dc
        Signature Algorithm: sha256WithRSAEncryption
        Issuer: CN=team300-net
        Validity
            Not Before: Nov  4 10:46:10 2023 GMT
            Not After : Oct 19 10:46:10 2026 GMT
        Subject: CN=team300-server
        Subject Public Key Info:
            Public Key Algorithm: rsaEncryption
                Public-Key: (2048 bit)
                Modulus:
                    00:b8:03:cc:ba:a1:c2:b8:21:6e:f3:40:09:aa:1b:
                    64:cd:db:f0:04:df:69:82:26:8a:63:e8:a4:72:2c:
                    ac:41:a5:59:9e:0a:41:c0:38:54:59:08:d9:f7:f9:
                    66:81:f6:de:07:d5:45:82:25:3f:92:09:c4:5c:b5:
                    fd:ec:39:a5:df:63:fd:3e:58:63:a1:d1:51:63:7b:
                    d2:97:f5:89:77:86:f6:1d:d0:e9:d4:de:e6:7d:2c:
                    c2:e8:bd:a0:83:b5:d9:16:59:92:33:45:a7:9b:c0:
                    05:e2:bf:72:f3:71:48:77:1c:30:d7:a4:85:1c:9b:
                    2d:39:65:08:43:0d:30:1e:36:62:14:99:5f:88:af:
                    48:d6:fc:4d:ee:08:70:03:c5:83:4a:e4:cb:44:cd:
                    cc:3f:ad:45:f9:6d:7d:70:cc:c6:bf:9a:bf:8f:ef:
                    a9:dc:23:d0:5d:eb:b6:d9:83:4a:e6:e6:80:a3:b2:
                    3e:25:a7:1e:e5:13:3c:3b:37:c3:54:e4:97:77:e5:
                    a4:d9:6f:e6:f6:f4:53:74:88:b9:d7:86:ce:a4:6c:
                    b6:f6:85:f8:3f:dd:09:f0:73:b5:ff:36:32:d5:0f:
                    73:5e:0f:63:7a:97:61:9c:db:2f:36:50:68:f2:61:
                    d0:27:a1:42:d9:48:99:e2:9a:81:c9:11:49:5e:38:
                    ac:ad
                Exponent: 65537 (0x10001)
        X509v3 extensions:
            X509v3 Basic Constraints: 
                CA:FALSE
            X509v3 Subject Key Identifier: 
                2C:70:03:3C:0F:49:65:BF:BE:51:7F:5E:1D:23:EB:B4:E8:1B:68:E3
            X509v3 Authority Key Identifier: 
                keyid:1F:22:3E:00:D7:78:B8:68:F1:82:91:77:37:CE:4A:12:67:0E:5E:47
                DirName:/CN=team300-net
                serial:28:DC:69:46:90:78:EF:FB:27:11:9B:4A:6E:14:66:26:59:44:F6:00
            X509v3 Extended Key Usage: 
                TLS Web Server Authentication
            X509v3 Key Usage: 
                Digital Signature, Key Encipherment
            X509v3 Subject Alternative Name: 
                DNS:team300-server
    Signature Algorithm: sha256WithRSAEncryption
    Signature Value:
        37:5b:3b:85:af:b9:a5:a3:ea:e9:88:3a:43:c9:db:07:03:55:
        83:95:4f:ca:37:b1:a6:a4:82:e4:2f:38:e7:2d:81:7a:a3:b9:
        b0:26:50:51:84:c8:32:8e:16:5d:fe:58:16:61:36:94:d1:bb:
        c8:aa:32:ea:c4:ae:03:8a:07:19:92:7a:55:f1:fa:e1:92:cf:
        55:59:8c:73:ce:98:89:e2:b2:17:70:96:31:27:80:d3:48:0b:
        34:ae:cd:53:20:01:58:63:d5:a5:ba:8b:b5:cd:ac:c7:cc:ad:
        1f:cf:51:ea:59:20:21:77:f5:2a:b9:ba:99:06:af:09:8b:99:
        73:7d:4f:d3:cc:6e:72:e4:cc:60:c5:ee:fc:aa:de:c0:37:d0:
        69:90:43:63:88:71:60:8a:bb:80:4b:b5:9e:f4:09:32:b1:78:
        95:c2:10:36:76:5e:75:aa:97:ee:b2:79:fb:08:a9:10:83:a8:
        e2:bd:5a:5c:65:b9:76:cf:c4:51:90:a9:6b:e5:09:3e:31:b4:
        bd:e9:e4:96:fe:98:24:2a:7d:bd:39:ff:e8:15:87:e5:8b:61:
        66:d5:8d:ca:d2:39:fa:24:83:72:81:a4:e1:ea:97:f2:26:1c:
        87:14:a7:12:bc:69:4a:90:7b:42:88:5d:87:6f:a1:a9:99:94:
        e1:d6:c5:df
-----BEGIN CERTIFICATE-----
MIIDeDCCAmCgAwIBAgIRAKeQVGO7ib7d2g0otiYeNdwwDQYJKoZIhvcNAQELBQAw
FjEUMBIGA1UEAwwLdGVhbTMwMC1uZXQwHhcNMjMxMTA0MTA0NjEwWhcNMjYxMDE5
MTA0NjEwWjAZMRcwFQYDVQQDDA50ZWFtMzAwLXNlcnZlcjCCASIwDQYJKoZIhvcN
AQEBBQADggEPADCCAQoCggEBALgDzLqhwrghbvNACaobZM3b8ATfaYImimPopHIs
rEGlWZ4KQcA4VFkI2ff5ZoH23gfVRYIlP5IJxFy1/ew5pd9j/T5YY6HRUWN70pf1
iXeG9h3Q6dTe5n0swui9oIO12RZZkjNFp5vABeK/cvNxSHccMNekhRybLTllCEMN
MB42YhSZX4ivSNb8Te4IcAPFg0rky0TNzD+tRfltfXDMxr+av4/vqdwj0F3rttmD
SubmgKOyPiWnHuUTPDs3w1Tkl3flpNlv5vb0U3SIudeGzqRstvaF+D/dCfBztf82
MtUPc14PY3qXYZzbLzZQaPJh0CehQtlImeKagckRSV44rK0CAwEAAaOBvTCBujAJ
BgNVHRMEAjAAMB0GA1UdDgQWBBQscAM8D0llv75Rf14dI+u06Bto4zBRBgNVHSME
SjBIgBQfIj4A13i4aPGCkXc3zkoSZw5eR6EapBgwFjEUMBIGA1UEAwwLdGVhbTMw
MC1uZXSCFCjcaUaQeO/7JxGbSm4UZiZZRPYAMBMGA1UdJQQMMAoGCCsGAQUFBwMB
MAsGA1UdDwQEAwIFoDAZBgNVHREEEjAQgg50ZWFtMzAwLXNlcnZlcjANBgkqhkiG
9w0BAQsFAAOCAQEAN1s7ha+5paPq6Yg6Q8nbBwNVg5VPyjexpqSC5C845y2BeqO5
sCZQUYTIMo4WXf5YFmE2lNG7yKoy6sSuA4oHGZJ6VfH64ZLPVVmMc86YieKyF3CW
MSeA00gLNK7NUyABWGPVpbqLtc2sx8ytH89R6lkgIXf1Krm6mQavCYuZc31P08xu
cuTMYMXu/KrewDfQaZBDY4hxYIq7gEu1nvQJMrF4lcIQNnZedaqX7rJ5+wipEIOo
4r1aXGW5ds/EUZCpa+UJPjG0venklv6YJCp9vTn/6BWH5YthZtWNytI5+iSDcoGk
4eqX8iYchxSnErxpSpB7Qohdh2+hqZmU4dbF3w==
-----END CERTIFICATE-----
