Certificate:
    Data:
        Version: 3 (0x2)
        Serial Number:
            3f:77:3a:35:ec:73:3d:70:1f:d8:04:ec:2a:02:61:c6
        Signature Algorithm: sha256WithRSAEncryption
        Issuer: CN=team21-net
        Validity
            Not Before: Nov  4 10:40:37 2023 GMT
            Not After : Oct 19 10:40:37 2026 GMT
        Subject: CN=team21-server
        Subject Public Key Info:
            Public Key Algorithm: rsaEncryption
                Public-Key: (2048 bit)
                Modulus:
                    00:c5:07:f2:4c:7b:ba:f3:40:2d:26:37:0a:39:cd:
                    5d:bb:49:59:9e:e5:92:36:d3:94:6a:71:6b:85:e4:
                    68:b7:40:13:89:8c:57:9e:42:dc:67:5e:67:ca:a4:
                    9d:1e:05:53:8c:cd:c5:9f:72:a3:10:8c:d2:aa:e0:
                    fa:04:24:97:f3:ff:1c:aa:cb:09:a6:a2:bf:ef:09:
                    85:5a:7f:f5:e3:8c:7b:56:b7:b1:4f:04:c6:dc:ef:
                    0b:50:07:91:cb:fa:ba:eb:51:d1:51:9f:55:8b:77:
                    89:ce:fb:de:f2:85:a7:22:ee:67:04:44:eb:ef:ac:
                    29:da:36:6d:c9:26:c4:2b:41:62:c0:d5:23:b9:65:
                    5f:c3:cf:8a:58:9b:c1:b9:9b:44:a3:e9:b1:09:f2:
                    5c:3d:95:a8:42:6f:81:7a:67:d7:5f:a4:bd:d2:6a:
                    c2:51:f6:f2:4a:fb:e4:10:b1:f6:c6:11:31:b2:b9:
                    09:ea:ff:f8:44:52:fa:0e:a8:28:40:b7:94:be:e3:
                    e7:ce:4b:69:d6:7c:9f:a6:51:8c:79:43:d8:a6:e4:
                    d7:2d:12:db:48:c0:24:20:80:96:3b:d4:c6:31:21:
                    4b:22:56:37:2b:d9:ce:fa:cc:dd:5a:a1:fe:77:3a:
                    d7:d5:12:42:f5:d4:ec:00:c5:5e:c4:ac:31:db:cb:
                    ee:a9
                Exponent: 65537 (0x10001)
        X509v3 extensions:
            X509v3 Basic Constraints: 
                CA:FALSE
            X509v3 Subject Key Identifier: 
                B7:C4:32:6C:8F:78:69:6A:E1:80:23:D7:3A:FB:E9:16:D4:F6:F4:F4
            X509v3 Authority Key Identifier: 
                keyid:57:13:DB:43:F6:36:B0:B3:39:E2:B9:F2:FC:1B:B9:14:53:F3:E3:DA
                DirName:/CN=team21-net
                serial:03:9B:96:3D:DC:53:EC:50:81:0A:49:01:65:9D:52:A9:94:4A:3C:F4
            X509v3 Extended Key Usage: 
                TLS Web Server Authentication
            X509v3 Key Usage: 
                Digital Signature, Key Encipherment
            X509v3 Subject Alternative Name: 
                DNS:team21-server
    Signature Algorithm: sha256WithRSAEncryption
    Signature Value:
        04:e0:b5:64:3e:86:c6:99:13:42:27:e3:4d:f3:2d:c5:42:57:
        47:5e:27:ab:f6:2e:5c:1a:5e:e3:22:9c:a0:f0:9b:8f:12:bf:
        a4:86:af:75:98:03:7f:0f:ba:dd:8f:9a:f7:10:b7:81:b0:95:
        0c:1f:06:35:7e:d1:e2:36:3f:77:64:7f:8d:2e:89:ea:6e:1c:
        e9:34:78:cb:44:54:8d:ad:95:35:ad:06:9e:7d:c0:79:f9:29:
        e4:ef:bb:d9:09:84:db:47:2e:87:73:51:f0:2e:11:6f:f5:6b:
        23:0f:56:17:21:e3:45:aa:dd:55:22:5f:8a:e7:42:3e:aa:c7:
        bb:94:60:b0:43:af:ea:47:9a:b7:5a:6a:d5:97:53:e1:4f:68:
        39:95:ea:c8:e4:82:c1:96:23:a2:8c:6f:6f:22:cb:6b:43:28:
        f6:82:4e:80:d6:98:42:5f:41:be:96:d9:ba:f5:7c:b1:60:48:
        cb:a2:a8:27:80:e7:2f:ba:e7:95:10:b1:81:cf:58:dc:30:e6:
        4c:85:04:f1:5a:34:b4:60:3e:4e:ac:4d:c0:ce:0d:24:49:5e:
        77:78:75:67:a9:6b:12:77:87:3c:3b:a2:e7:4d:09:fb:e7:09:
        93:ff:5a:60:91:7e:1a:1b:ef:85:d0:01:9e:81:25:ad:41:b6:
        8d:50:d4:80
-----BEGIN CERTIFICATE-----
MIIDczCCAlugAwIBAgIQP3c6NexzPXAf2ATsKgJhxjANBgkqhkiG9w0BAQsFADAV
MRMwEQYDVQQDDAp0ZWFtMjEtbmV0MB4XDTIzMTEwNDEwNDAzN1oXDTI2MTAxOTEw
NDAzN1owGDEWMBQGA1UEAwwNdGVhbTIxLXNlcnZlcjCCASIwDQYJKoZIhvcNAQEB
BQADggEPADCCAQoCggEBAMUH8kx7uvNALSY3CjnNXbtJWZ7lkjbTlGpxa4XkaLdA
E4mMV55C3GdeZ8qknR4FU4zNxZ9yoxCM0qrg+gQkl/P/HKrLCaaiv+8JhVp/9eOM
e1a3sU8ExtzvC1AHkcv6uutR0VGfVYt3ic773vKFpyLuZwRE6++sKdo2bckmxCtB
YsDVI7llX8PPilibwbmbRKPpsQnyXD2VqEJvgXpn11+kvdJqwlH28kr75BCx9sYR
MbK5Cer/+ERS+g6oKEC3lL7j585LadZ8n6ZRjHlD2Kbk1y0S20jAJCCAljvUxjEh
SyJWNyvZzvrM3Vqh/nc619USQvXU7ADFXsSsMdvL7qkCAwEAAaOBuzCBuDAJBgNV
HRMEAjAAMB0GA1UdDgQWBBS3xDJsj3hpauGAI9c6++kW1Pb09DBQBgNVHSMESTBH
gBRXE9tD9jawszniufL8G7kUU/Pj2qEZpBcwFTETMBEGA1UEAwwKdGVhbTIxLW5l
dIIUA5uWPdxT7FCBCkkBZZ1SqZRKPPQwEwYDVR0lBAwwCgYIKwYBBQUHAwEwCwYD
VR0PBAQDAgWgMBgGA1UdEQQRMA+CDXRlYW0yMS1zZXJ2ZXIwDQYJKoZIhvcNAQEL
BQADggEBAATgtWQ+hsaZE0In403zLcVCV0deJ6v2LlwaXuMinKDwm48Sv6SGr3WY
A38Put2PmvcQt4GwlQwfBjV+0eI2P3dkf40uiepuHOk0eMtEVI2tlTWtBp59wHn5
KeTvu9kJhNtHLodzUfAuEW/1ayMPVhch40Wq3VUiX4rnQj6qx7uUYLBDr+pHmrda
atWXU+FPaDmV6sjkgsGWI6KMb28iy2tDKPaCToDWmEJfQb6W2br1fLFgSMuiqCeA
5y+655UQsYHPWNww5kyFBPFaNLRgPk6sTcDODSRJXnd4dWepaxJ3hzw7oudNCfvn
CZP/WmCRfhob74XQAZ6BJa1Bto1Q1IA=
-----END CERTIFICATE-----
