Certificate:
    Data:
        Version: 3 (0x2)
        Serial Number:
            54:b1:ad:36:36:a0:36:98:a6:34:02:ac:f0:d1:e5:b1
        Signature Algorithm: sha256WithRSAEncryption
        Issuer: CN=team21-net
        Validity
            Not Before: Nov  4 11:27:46 2023 GMT
            Not After : Oct 19 11:27:46 2026 GMT
        Subject: CN=team21-server
        Subject Public Key Info:
            Public Key Algorithm: rsaEncryption
                Public-Key: (2048 bit)
                Modulus:
                    00:f8:94:72:43:3a:eb:c5:3b:09:74:e4:0a:aa:66:
                    58:eb:50:a9:7b:d3:5c:5d:3e:e1:bd:f6:74:28:ae:
                    36:ca:5c:67:fb:cd:91:65:78:06:13:a3:1f:18:b6:
                    8e:77:75:c5:bb:b1:5c:4a:21:b7:f9:ed:07:92:6e:
                    dd:af:d7:c7:1d:ee:31:37:f1:3f:69:d4:41:02:d0:
                    03:7c:dc:d3:bb:44:f3:c2:bf:dd:d9:97:59:48:9a:
                    7d:9a:ff:ea:e2:c1:cb:64:71:ec:f9:71:38:88:f1:
                    b4:2e:38:8c:1d:8b:9a:96:25:26:c9:1a:d2:3d:7d:
                    de:f8:29:db:d0:64:1c:75:d5:d2:2a:da:99:e0:5d:
                    49:12:61:fe:b3:a8:d9:3f:2a:ed:3e:18:1b:4c:1a:
                    65:c5:ed:14:19:c7:68:3f:59:7b:9f:b0:32:8e:63:
                    54:9c:b0:e9:24:b8:56:62:d8:01:b0:30:c5:e6:2c:
                    f0:82:ab:82:aa:bf:63:e9:27:d2:65:8e:49:c7:24:
                    ff:c7:36:14:74:79:07:81:c4:3f:ca:e5:6f:26:7b:
                    b7:f3:5a:37:ed:4f:53:1f:ca:bf:31:3e:b9:26:69:
                    bc:1c:fd:20:ea:33:1f:f8:54:3b:ee:3d:3a:46:6f:
                    4a:b2:4c:2d:fb:ea:03:a1:a5:89:84:84:f6:ed:87:
                    5e:a5
                Exponent: 65537 (0x10001)
        X509v3 extensions:
            X509v3 Basic Constraints: 
                CA:FALSE
            X509v3 Subject Key Identifier: 
                E0:50:8E:EA:F2:39:48:C1:70:6A:EC:F3:91:1C:BE:E7:33:B5:BD:1D
            X509v3 Authority Key Identifier: 
                keyid:6C:E4:81:98:2E:E2:9D:72:4B:5B:D7:D9:B1:CA:96:6A:62:9D:C5:24
                DirName:/CN=team21-net
                serial:4D:1A:D3:E9:FC:90:5F:0A:30:5C:03:47:BC:5D:F2:FC:7A:54:80:D7
            X509v3 Extended Key Usage: 
                TLS Web Server Authentication
            X509v3 Key Usage: 
                Digital Signature, Key Encipherment
            X509v3 Subject Alternative Name: 
                DNS:team21-server
    Signature Algorithm: sha256WithRSAEncryption
    Signature Value:
        85:cd:79:a9:cf:f7:48:12:15:5f:38:5f:9c:66:e8:af:4b:cd:
        8f:52:d1:ef:fd:db:5b:aa:18:9f:34:b6:ff:fd:75:21:d2:2f:
        46:61:c1:f5:00:8a:0c:34:de:10:3a:0a:ae:49:b8:4e:4a:18:
        3d:2f:81:c1:e5:10:6f:74:24:27:0c:a4:dd:bb:21:3c:7a:b5:
        f9:d4:09:4a:29:9d:25:59:5d:98:e1:7d:e8:e4:16:5f:8d:bb:
        04:3d:e1:e6:8c:6b:c5:3e:2c:f3:80:ce:5b:e3:b2:d0:e7:7f:
        3f:33:ed:12:7e:f0:28:a5:4f:67:3e:e6:40:1c:a4:29:55:b2:
        60:f9:e1:24:eb:d7:17:28:19:e0:94:21:d3:ac:9b:af:3c:66:
        d3:ef:bb:4b:63:2a:cb:ef:d3:cc:a3:dc:8a:cc:09:dc:64:27:
        60:d0:1e:d8:fb:7f:eb:48:2c:1b:30:bf:62:ae:41:a3:3d:44:
        8e:27:86:a4:42:2e:62:6a:c1:78:d2:98:b4:4a:c1:40:37:01:
        0b:74:da:f1:8c:2e:ec:ae:9b:dc:db:dc:50:a8:6e:0b:7d:dd:
        cd:a6:fb:68:1c:59:e7:58:8f:16:ac:45:4a:65:f1:b3:e7:ee:
        7e:82:ed:84:28:14:26:34:25:80:bd:43:4b:a5:f0:21:5c:9a:
        e0:0a:c8:8a
-----BEGIN CERTIFICATE-----
MIIDczCCAlugAwIBAgIQVLGtNjagNpimNAKs8NHlsTANBgkqhkiG9w0BAQsFADAV
MRMwEQYDVQQDDAp0ZWFtMjEtbmV0MB4XDTIzMTEwNDExMjc0NloXDTI2MTAxOTEx
Mjc0NlowGDEWMBQGA1UEAwwNdGVhbTIxLXNlcnZlcjCCASIwDQYJKoZIhvcNAQEB
BQADggEPADCCAQoCggEBAPiUckM668U7CXTkCqpmWOtQqXvTXF0+4b32dCiuNspc
Z/vNkWV4BhOjHxi2jnd1xbuxXEoht/ntB5Ju3a/Xxx3uMTfxP2nUQQLQA3zc07tE
88K/3dmXWUiafZr/6uLBy2Rx7PlxOIjxtC44jB2LmpYlJska0j193vgp29BkHHXV
0irameBdSRJh/rOo2T8q7T4YG0waZcXtFBnHaD9Ze5+wMo5jVJyw6SS4VmLYAbAw
xeYs8IKrgqq/Y+kn0mWOScck/8c2FHR5B4HEP8rlbyZ7t/NaN+1PUx/KvzE+uSZp
vBz9IOozH/hUO+49OkZvSrJMLfvqA6GliYSE9u2HXqUCAwEAAaOBuzCBuDAJBgNV
HRMEAjAAMB0GA1UdDgQWBBTgUI7q8jlIwXBq7PORHL7nM7W9HTBQBgNVHSMESTBH
gBRs5IGYLuKdcktb19mxypZqYp3FJKEZpBcwFTETMBEGA1UEAwwKdGVhbTIxLW5l
dIIUTRrT6fyQXwowXANHvF3y/HpUgNcwEwYDVR0lBAwwCgYIKwYBBQUHAwEwCwYD
VR0PBAQDAgWgMBgGA1UdEQQRMA+CDXRlYW0yMS1zZXJ2ZXIwDQYJKoZIhvcNAQEL
BQADggEBAIXNeanP90gSFV84X5xm6K9LzY9S0e/921uqGJ80tv/9dSHSL0ZhwfUA
igw03hA6Cq5JuE5KGD0vgcHlEG90JCcMpN27ITx6tfnUCUopnSVZXZjhfejkFl+N
uwQ94eaMa8U+LPOAzlvjstDnfz8z7RJ+8CilT2c+5kAcpClVsmD54STr1xcoGeCU
IdOsm688ZtPvu0tjKsvv08yj3IrMCdxkJ2DQHtj7f+tILBswv2KuQaM9RI4nhqRC
LmJqwXjSmLRKwUA3AQt02vGMLuyum9zb3FCobgt93c2m+2gcWedYjxasRUpl8bPn
7n6C7YQoFCY0JYC9Q0ul8CFcmuAKyIo=
-----END CERTIFICATE-----
