Certificate:
    Data:
        Version: 3 (0x2)
        Serial Number:
            83:6f:bf:fa:79:b8:cd:88:bd:c3:5e:ee:3e:2b:27:4a
        Signature Algorithm: sha256WithRSAEncryption
        Issuer: CN=team21-net
        Validity
            Not Before: Nov  4 10:40:37 2023 GMT
            Not After : Oct 19 10:40:37 2026 GMT
        Subject: CN=team21-client
        Subject Public Key Info:
            Public Key Algorithm: rsaEncryption
                Public-Key: (2048 bit)
                Modulus:
                    00:c7:c0:6c:08:02:80:4f:ad:fe:70:55:9e:c5:8f:
                    04:10:e9:52:3c:19:96:fc:0e:40:1f:6b:7e:df:ec:
                    76:ff:bc:82:bf:29:98:d7:41:50:88:b6:dc:e7:39:
                    ba:b0:b0:59:e5:48:6d:0b:b6:87:41:0a:4f:94:22:
                    07:9a:ad:89:57:35:39:46:1e:64:6a:70:c6:fd:51:
                    f0:ba:f6:a1:49:08:a5:12:97:33:0e:d3:c3:4f:1c:
                    16:8a:7f:90:af:99:91:85:6d:6b:90:37:e8:af:8f:
                    48:88:e7:f0:9b:e5:52:4e:94:d7:05:f5:cc:44:4a:
                    1c:72:17:63:ad:89:3e:a6:f2:e0:4c:9f:19:5c:4e:
                    8e:ff:25:e4:2d:57:d5:3b:dc:fd:a4:16:0b:4f:e9:
                    22:23:00:1e:82:2b:72:5c:06:58:42:c3:70:df:81:
                    65:8d:82:a7:c0:7b:9d:bb:c9:80:51:24:bd:51:5e:
                    db:3f:4d:e8:a9:aa:5a:1c:93:d3:4d:72:cf:74:16:
                    96:3e:a2:ac:82:de:fe:54:00:3d:af:8e:7c:d2:48:
                    57:42:a5:92:a6:8a:94:bf:e4:83:cc:9c:92:93:1e:
                    f7:34:5c:9b:ef:8d:a6:7d:b1:68:e9:3e:f7:1f:61:
                    59:e2:1d:c9:7d:ff:8a:60:7d:1f:e3:79:64:6b:7e:
                    8e:71
                Exponent: 65537 (0x10001)
        X509v3 extensions:
            X509v3 Basic Constraints: 
                CA:FALSE
            X509v3 Subject Key Identifier: 
                2A:17:59:72:C3:7F:7B:6D:50:52:D7:53:ED:84:C8:52:B9:76:26:C6
            X509v3 Authority Key Identifier: 
                keyid:57:13:DB:43:F6:36:B0:B3:39:E2:B9:F2:FC:1B:B9:14:53:F3:E3:DA
                DirName:/CN=team21-net
                serial:03:9B:96:3D:DC:53:EC:50:81:0A:49:01:65:9D:52:A9:94:4A:3C:F4
            X509v3 Extended Key Usage: 
                TLS Web Client Authentication
            X509v3 Key Usage: 
                Digital Signature
    Signature Algorithm: sha256WithRSAEncryption
    Signature Value:
        51:05:f4:d4:e8:75:a5:39:60:62:6d:c4:51:61:93:d4:b1:4c:
        51:21:37:f4:9d:25:23:9f:b7:08:e7:4d:25:c2:05:58:b3:11:
        a3:65:1b:73:de:20:d1:d5:8a:7f:e9:cc:26:72:c1:e2:4e:4b:
        8b:b4:b7:28:35:ac:33:92:ea:ff:40:8b:98:d8:02:43:86:3c:
        60:04:78:b8:b4:d3:70:f8:87:60:44:43:b2:8b:24:2d:ee:2d:
        ca:d7:a7:74:85:bf:28:9a:fb:ef:a0:04:22:68:89:78:44:38:
        c9:0f:49:c5:9e:2c:f9:9b:45:e9:2b:6f:73:1c:b4:d5:a7:76:
        68:2e:b7:22:a3:34:28:0c:be:ef:c3:18:a7:25:df:16:72:4b:
        27:aa:d3:79:57:8a:44:10:ec:c8:30:2a:c8:7b:80:88:74:ea:
        82:8f:bb:32:b2:37:de:31:3d:49:18:dc:91:8a:98:dd:86:2d:
        76:1c:85:ea:2d:5b:c4:40:1f:bc:e9:28:ca:69:d1:6d:b3:51:
        f2:03:68:9f:6f:b9:c6:77:c1:b4:b8:a2:af:70:12:99:0e:e1:
        05:55:ed:fa:da:2e:a9:68:85:be:a6:b0:dd:1a:02:22:05:64:
        e5:01:2e:2d:06:ad:72:39:8a:a1:c1:17:fc:22:ee:cb:99:49:
        ba:f5:2d:01
-----BEGIN CERTIFICATE-----
MIIDWjCCAkKgAwIBAgIRAINvv/p5uM2IvcNe7j4rJ0owDQYJKoZIhvcNAQELBQAw
FTETMBEGA1UEAwwKdGVhbTIxLW5ldDAeFw0yMzExMDQxMDQwMzdaFw0yNjEwMTkx
MDQwMzdaMBgxFjAUBgNVBAMMDXRlYW0yMS1jbGllbnQwggEiMA0GCSqGSIb3DQEB
AQUAA4IBDwAwggEKAoIBAQDHwGwIAoBPrf5wVZ7FjwQQ6VI8GZb8DkAfa37f7Hb/
vIK/KZjXQVCIttznObqwsFnlSG0LtodBCk+UIgearYlXNTlGHmRqcMb9UfC69qFJ
CKUSlzMO08NPHBaKf5CvmZGFbWuQN+ivj0iI5/Cb5VJOlNcF9cxEShxyF2OtiT6m
8uBMnxlcTo7/JeQtV9U73P2kFgtP6SIjAB6CK3JcBlhCw3DfgWWNgqfAe527yYBR
JL1RXts/Teipqlock9NNcs90FpY+oqyC3v5UAD2vjnzSSFdCpZKmipS/5IPMnJKT
Hvc0XJvvjaZ9sWjpPvcfYVniHcl9/4pgfR/jeWRrfo5xAgMBAAGjgaEwgZ4wCQYD
VR0TBAIwADAdBgNVHQ4EFgQUKhdZcsN/e21QUtdT7YTIUrl2JsYwUAYDVR0jBEkw
R4AUVxPbQ/Y2sLM54rny/Bu5FFPz49qhGaQXMBUxEzARBgNVBAMMCnRlYW0yMS1u
ZXSCFAOblj3cU+xQgQpJAWWdUqmUSjz0MBMGA1UdJQQMMAoGCCsGAQUFBwMCMAsG
A1UdDwQEAwIHgDANBgkqhkiG9w0BAQsFAAOCAQEAUQX01Oh1pTlgYm3EUWGT1LFM
USE39J0lI5+3COdNJcIFWLMRo2Ubc94g0dWKf+nMJnLB4k5Li7S3KDWsM5Lq/0CL
mNgCQ4Y8YAR4uLTTcPiHYERDsoskLe4tytendIW/KJr776AEImiJeEQ4yQ9JxZ4s
+ZtF6Stvcxy01ad2aC63IqM0KAy+78MYpyXfFnJLJ6rTeVeKRBDsyDAqyHuAiHTq
go+7MrI33jE9SRjckYqY3YYtdhyF6i1bxEAfvOkoymnRbbNR8gNon2+5xnfBtLii
r3ASmQ7hBVXt+touqWiFvqaw3RoCIgVk5QEuLQatcjmKocEX/CLuy5lJuvUtAQ==
-----END CERTIFICATE-----
