Certificate:
    Data:
        Version: 3 (0x2)
        Serial Number:
            48:43:fc:b9:b6:3d:da:e7:fe:a4:ab:1c:52:e8:b2:24
        Signature Algorithm: sha256WithRSAEncryption
        Issuer: CN=team337-net
        Validity
            Not Before: Nov  4 11:34:53 2023 GMT
            Not After : Oct 19 11:34:53 2026 GMT
        Subject: CN=team337-server
        Subject Public Key Info:
            Public Key Algorithm: rsaEncryption
                Public-Key: (2048 bit)
                Modulus:
                    00:ba:89:5c:7d:af:65:6e:4f:07:d8:b2:f2:ab:c3:
                    6f:d2:c1:66:16:52:ba:f5:8c:bd:f2:80:e0:50:f8:
                    56:f8:73:59:e0:ce:17:3f:fd:0a:01:a6:e9:7b:50:
                    01:f0:ba:8c:39:ed:30:f5:86:87:43:7e:b1:2b:29:
                    73:64:fe:65:76:61:f8:2b:e6:9d:09:fe:e4:e5:39:
                    f4:51:a4:d4:2e:e3:79:00:c2:e4:41:d9:ef:c3:f3:
                    1a:9e:8b:af:f6:17:ee:18:b2:46:08:b9:91:42:21:
                    ad:0f:2b:10:7e:d3:fe:3b:32:a8:d1:77:d4:68:57:
                    e6:e8:4f:23:f2:33:a0:2a:6a:89:07:f2:d4:3e:b4:
                    d6:66:59:e8:db:ed:46:5f:94:1a:c9:ad:43:3c:b8:
                    ae:e1:a2:cc:18:13:33:75:a3:7a:f2:c1:0e:1b:59:
                    d6:f6:68:bf:7e:b9:77:bd:28:1a:60:0a:77:d9:2c:
                    a9:5d:5d:16:be:26:26:14:f8:96:5e:d2:00:64:eb:
                    83:ee:30:39:58:23:b0:20:a2:86:a6:96:dd:d1:c2:
                    80:0e:14:82:2c:34:05:73:51:1e:d0:34:68:4f:69:
                    69:af:38:64:1c:21:25:20:f9:67:e3:4f:eb:bb:bd:
                    10:ab:c5:df:3d:90:c9:db:c5:a5:d4:99:57:87:84:
                    2f:7b
                Exponent: 65537 (0x10001)
        X509v3 extensions:
            X509v3 Basic Constraints: 
                CA:FALSE
            X509v3 Subject Key Identifier: 
                6C:B7:89:18:C1:94:5C:96:3E:96:10:F5:56:40:5E:FF:5F:4B:3B:F9
            X509v3 Authority Key Identifier: 
                keyid:51:85:3D:62:5D:A0:28:29:8D:26:D9:DD:5F:1F:27:6F:62:CF:1B:04
                DirName:/CN=team337-net
                serial:7F:C9:A4:A6:D1:2F:F5:E7:F9:74:37:EE:35:51:DA:A3:53:8C:45:71
            X509v3 Extended Key Usage: 
                TLS Web Server Authentication
            X509v3 Key Usage: 
                Digital Signature, Key Encipherment
            X509v3 Subject Alternative Name: 
                DNS:team337-server
    Signature Algorithm: sha256WithRSAEncryption
    Signature Value:
        d7:86:dc:bd:0a:d2:19:c6:e5:1f:a9:b8:be:83:9c:3c:38:df:
        f1:e6:34:0e:56:bf:38:23:ab:22:dd:2d:80:9d:e8:7a:f9:e5:
        cc:27:71:e9:6b:5d:15:35:de:bb:71:a5:f8:c3:c9:2e:49:9b:
        98:56:10:cb:47:00:4b:60:ee:6e:0d:6b:32:15:81:c3:73:80:
        ad:85:99:65:b9:25:70:12:ea:01:14:d3:61:74:72:76:0d:bd:
        eb:cc:17:cd:e4:aa:c2:0c:61:98:b7:29:a2:45:7a:52:73:b4:
        8d:a5:0d:3f:16:dd:22:28:dd:f5:03:b9:12:83:e0:de:51:d8:
        d5:78:c2:fa:f8:99:3f:d2:75:8a:4d:86:ae:cb:29:fc:f0:f1:
        3e:c2:60:b7:65:48:ac:cd:2a:f8:c2:07:de:50:f7:4a:50:ab:
        2b:a6:76:cc:4e:a3:ec:f4:3f:d6:9c:d7:6c:bd:d9:0d:b6:93:
        01:b2:00:68:21:51:86:67:0a:95:0b:0f:62:09:c9:c0:73:d3:
        89:3e:6d:8b:ce:0d:e9:03:39:34:ed:0f:3a:15:02:9d:76:62:
        35:67:f1:e9:45:d9:16:03:c1:f7:72:b1:af:8f:cd:71:6d:f4:
        d6:a3:cd:75:37:e3:8e:7c:ff:3b:09:20:bf:94:ba:97:f5:6e:
        53:c0:b8:88
-----BEGIN CERTIFICATE-----
MIIDdzCCAl+gAwIBAgIQSEP8ubY92uf+pKscUuiyJDANBgkqhkiG9w0BAQsFADAW
MRQwEgYDVQQDDAt0ZWFtMzM3LW5ldDAeFw0yMzExMDQxMTM0NTNaFw0yNjEwMTkx
MTM0NTNaMBkxFzAVBgNVBAMMDnRlYW0zMzctc2VydmVyMIIBIjANBgkqhkiG9w0B
AQEFAAOCAQ8AMIIBCgKCAQEAuolcfa9lbk8H2LLyq8Nv0sFmFlK69Yy98oDgUPhW
+HNZ4M4XP/0KAabpe1AB8LqMOe0w9YaHQ36xKylzZP5ldmH4K+adCf7k5Tn0UaTU
LuN5AMLkQdnvw/Manouv9hfuGLJGCLmRQiGtDysQftP+OzKo0XfUaFfm6E8j8jOg
KmqJB/LUPrTWZlno2+1GX5Qaya1DPLiu4aLMGBMzdaN68sEOG1nW9mi/frl3vSga
YAp32SypXV0WviYmFPiWXtIAZOuD7jA5WCOwIKKGppbd0cKADhSCLDQFc1Ee0DRo
T2lprzhkHCElIPln40/ru70Qq8XfPZDJ28Wl1JlXh4QvewIDAQABo4G9MIG6MAkG
A1UdEwQCMAAwHQYDVR0OBBYEFGy3iRjBlFyWPpYQ9VZAXv9fSzv5MFEGA1UdIwRK
MEiAFFGFPWJdoCgpjSbZ3V8fJ29izxsEoRqkGDAWMRQwEgYDVQQDDAt0ZWFtMzM3
LW5ldIIUf8mkptEv9ef5dDfuNVHao1OMRXEwEwYDVR0lBAwwCgYIKwYBBQUHAwEw
CwYDVR0PBAQDAgWgMBkGA1UdEQQSMBCCDnRlYW0zMzctc2VydmVyMA0GCSqGSIb3
DQEBCwUAA4IBAQDXhty9CtIZxuUfqbi+g5w8ON/x5jQOVr84I6si3S2Aneh6+eXM
J3Hpa10VNd67caX4w8kuSZuYVhDLRwBLYO5uDWsyFYHDc4CthZlluSVwEuoBFNNh
dHJ2Db3rzBfN5KrCDGGYtymiRXpSc7SNpQ0/Ft0iKN31A7kSg+DeUdjVeML6+Jk/
0nWKTYauyyn88PE+wmC3ZUiszSr4wgfeUPdKUKsrpnbMTqPs9D/WnNdsvdkNtpMB
sgBoIVGGZwqVCw9iCcnAc9OJPm2Lzg3pAzk07Q86FQKddmI1Z/HpRdkWA8H3crGv
j81xbfTWo811N+OOfP87CSC/lLqX9W5TwLiI
-----END CERTIFICATE-----
