Certificate:
    Data:
        Version: 3 (0x2)
        Serial Number:
            9b:b2:04:d3:66:71:ca:d2:69:b8:7c:c9:d4:41:3b:6f
        Signature Algorithm: sha256WithRSAEncryption
        Issuer: CN=team337-net
        Validity
            Not Before: Nov  4 10:46:47 2023 GMT
            Not After : Oct 19 10:46:47 2026 GMT
        Subject: CN=team337-client
        Subject Public Key Info:
            Public Key Algorithm: rsaEncryption
                Public-Key: (2048 bit)
                Modulus:
                    00:cf:e4:0b:39:09:1f:f3:51:5a:3e:18:de:c9:c4:
                    c5:6e:ae:2a:74:8b:3a:57:b5:d9:36:6d:3b:5f:7c:
                    46:2f:c8:8e:3c:32:6d:a3:71:67:3f:d0:07:46:14:
                    cf:9d:15:24:17:2b:77:6d:08:2f:00:42:f5:95:25:
                    3b:67:05:df:bf:57:ef:c5:45:95:2b:fa:2c:9c:b0:
                    6d:33:d2:92:e7:c7:04:ab:3c:bf:cb:8d:5e:ae:06:
                    19:5f:29:67:29:6a:b0:c9:38:15:8e:f4:43:7e:ef:
                    fe:53:42:de:81:2e:fd:bf:2e:ff:f2:54:47:69:77:
                    ca:78:ad:fe:c5:00:c4:24:bb:cb:cc:1e:30:00:7e:
                    c4:b2:08:73:61:e3:9a:5e:a6:7b:22:8f:83:76:55:
                    b4:4d:22:9c:37:5c:8a:3d:60:e7:a3:4d:7f:b7:87:
                    11:fa:25:4d:cd:ee:c0:f6:5b:4c:c5:90:01:c4:0d:
                    f4:f9:e8:4f:fd:47:30:5b:94:0d:1a:c7:59:ce:9d:
                    e1:5c:99:77:c7:fe:7b:ee:91:70:f7:ea:f3:0b:2f:
                    c8:3b:29:5f:61:55:bf:00:13:d6:43:1b:48:49:e0:
                    62:cd:9b:fa:90:5f:21:1f:bf:af:d9:aa:dc:a2:1c:
                    25:22:96:6b:01:ae:d4:88:82:7e:de:af:74:6c:2b:
                    f4:e9
                Exponent: 65537 (0x10001)
        X509v3 extensions:
            X509v3 Basic Constraints: 
                CA:FALSE
            X509v3 Subject Key Identifier: 
                D5:61:11:DC:D2:39:4F:EA:00:57:B3:56:82:64:13:23:50:EF:50:D9
            X509v3 Authority Key Identifier: 
                keyid:42:65:BE:A3:56:BC:DC:CE:B6:48:08:2B:6C:96:0C:F8:0F:4F:77:42
                DirName:/CN=team337-net
                serial:1C:11:3A:59:FB:AA:B9:92:B7:80:C4:32:E5:E3:9E:FF:C2:BF:65:A1
            X509v3 Extended Key Usage: 
                TLS Web Client Authentication
            X509v3 Key Usage: 
                Digital Signature
    Signature Algorithm: sha256WithRSAEncryption
    Signature Value:
        6d:1a:87:f5:9b:32:72:be:b8:2a:75:30:0a:d5:2a:cd:30:04:
        bc:0c:56:3a:8a:48:75:5d:a0:04:24:af:fd:33:53:a4:05:b8:
        e5:18:06:7c:20:36:36:0b:ec:0e:9a:94:6d:5e:d1:a2:89:8c:
        50:05:6e:ba:a7:b7:98:f3:63:5d:f3:e6:bc:f4:a1:41:10:3d:
        36:51:ba:41:0f:47:9f:64:db:77:b4:14:ef:af:3b:87:b8:b8:
        a7:a9:f5:b3:24:e0:9f:df:74:1a:cb:70:bd:47:ae:af:4e:ea:
        5d:b5:8c:fe:fc:a5:d0:b0:04:e0:0e:38:ee:6b:7e:37:06:a5:
        75:3a:e5:13:dd:52:31:49:71:ea:e7:a7:21:c3:bf:9b:a7:20:
        2f:06:92:72:71:a3:f3:48:77:fd:b1:29:7a:a1:29:c0:a9:cf:
        48:75:0d:f3:41:3b:07:8a:79:73:0d:21:e2:e8:be:c9:a4:fb:
        2a:0e:08:a2:18:53:0c:15:ef:b7:b1:b3:bd:aa:7c:d9:27:ee:
        cf:f9:64:af:6a:89:f0:d1:3c:52:ff:8f:2d:88:ae:30:e9:9d:
        1c:fe:8b:a8:c7:38:02:ff:56:da:fc:2a:54:d3:a5:82:a0:52:
        73:c5:76:3b:b2:85:22:c3:d3:d8:7c:67:32:69:59:cb:91:d9:
        60:30:a7:be
-----BEGIN CERTIFICATE-----
MIIDXTCCAkWgAwIBAgIRAJuyBNNmccrSabh8ydRBO28wDQYJKoZIhvcNAQELBQAw
FjEUMBIGA1UEAwwLdGVhbTMzNy1uZXQwHhcNMjMxMTA0MTA0NjQ3WhcNMjYxMDE5
MTA0NjQ3WjAZMRcwFQYDVQQDDA50ZWFtMzM3LWNsaWVudDCCASIwDQYJKoZIhvcN
AQEBBQADggEPADCCAQoCggEBAM/kCzkJH/NRWj4Y3snExW6uKnSLOle12TZtO198
Ri/IjjwybaNxZz/QB0YUz50VJBcrd20ILwBC9ZUlO2cF379X78VFlSv6LJywbTPS
kufHBKs8v8uNXq4GGV8pZylqsMk4FY70Q37v/lNC3oEu/b8u//JUR2l3ynit/sUA
xCS7y8weMAB+xLIIc2Hjml6meyKPg3ZVtE0inDdcij1g56NNf7eHEfolTc3uwPZb
TMWQAcQN9PnoT/1HMFuUDRrHWc6d4VyZd8f+e+6RcPfq8wsvyDspX2FVvwAT1kMb
SEngYs2b+pBfIR+/r9mq3KIcJSKWawGu1IiCft6vdGwr9OkCAwEAAaOBojCBnzAJ
BgNVHRMEAjAAMB0GA1UdDgQWBBTVYRHc0jlP6gBXs1aCZBMjUO9Q2TBRBgNVHSME
SjBIgBRCZb6jVrzczrZICCtslgz4D093QqEapBgwFjEUMBIGA1UEAwwLdGVhbTMz
Ny1uZXSCFBwROln7qrmSt4DEMuXjnv/Cv2WhMBMGA1UdJQQMMAoGCCsGAQUFBwMC
MAsGA1UdDwQEAwIHgDANBgkqhkiG9w0BAQsFAAOCAQEAbRqH9Zsycr64KnUwCtUq
zTAEvAxWOopIdV2gBCSv/TNTpAW45RgGfCA2NgvsDpqUbV7RoomMUAVuuqe3mPNj
XfPmvPShQRA9NlG6QQ9Hn2Tbd7QU7687h7i4p6n1syTgn990GstwvUeur07qXbWM
/vyl0LAE4A447mt+NwaldTrlE91SMUlx6uenIcO/m6cgLwaScnGj80h3/bEpeqEp
wKnPSHUN80E7B4p5cw0h4ui+yaT7Kg4IohhTDBXvt7Gzvap82Sfuz/lkr2qJ8NE8
Uv+PLYiuMOmdHP6LqMc4Av9W2vwqVNOlgqBSc8V2O7KFIsPT2HxnMmlZy5HZYDCn
vg==
-----END CERTIFICATE-----
