Certificate:
    Data:
        Version: 3 (0x2)
        Serial Number:
            b6:f0:79:fd:29:02:02:1c:96:5d:e5:c6:97:7d:93:b4
        Signature Algorithm: sha256WithRSAEncryption
        Issuer: CN=team337-net
        Validity
            Not Before: Nov  4 10:46:47 2023 GMT
            Not After : Oct 19 10:46:47 2026 GMT
        Subject: CN=team337-server
        Subject Public Key Info:
            Public Key Algorithm: rsaEncryption
                Public-Key: (2048 bit)
                Modulus:
                    00:ac:80:60:ab:aa:59:87:0c:f9:be:9c:b4:d2:3b:
                    98:7a:85:8d:66:ff:5f:b4:72:a9:72:9c:08:9f:94:
                    8d:70:c7:c9:37:1c:c2:ea:4a:13:b5:ae:b5:ab:37:
                    84:39:6b:e1:16:41:7a:a3:bf:0f:0a:22:36:68:e1:
                    46:fd:dd:04:7d:8c:5e:a1:00:91:85:51:25:25:13:
                    76:7a:d0:a9:43:21:a7:42:26:36:93:b2:8a:58:14:
                    a7:07:02:5a:96:47:6b:48:88:1e:f9:64:24:67:e5:
                    ac:d3:cb:e3:da:b4:5e:37:87:3b:c1:53:13:e1:d8:
                    f8:87:1b:63:c0:c3:9d:42:40:2c:2e:1d:a6:8e:48:
                    73:49:b1:48:01:fc:d3:dd:39:66:95:f1:5b:3d:1a:
                    af:1b:07:7d:06:8f:c1:bd:a6:06:ae:a7:92:aa:e6:
                    d6:fb:35:5e:d4:8c:6e:17:9b:ff:6c:68:80:b5:40:
                    b2:56:41:d4:db:01:81:c9:b6:43:8f:71:fb:d4:1a:
                    59:11:5d:92:2b:cd:4c:da:48:ba:43:5a:c9:d2:e7:
                    0e:ed:04:a9:00:21:c0:ca:b7:19:61:ab:54:e8:17:
                    3c:67:7a:86:ae:6c:aa:f0:d6:d1:15:d3:fb:de:c9:
                    16:42:f3:28:e8:10:0b:93:7e:cc:9f:a4:2f:25:98:
                    7a:1f
                Exponent: 65537 (0x10001)
        X509v3 extensions:
            X509v3 Basic Constraints: 
                CA:FALSE
            X509v3 Subject Key Identifier: 
                48:B1:FF:59:89:7A:15:FF:30:60:F6:52:20:6C:6F:20:DD:B8:E7:94
            X509v3 Authority Key Identifier: 
                keyid:42:65:BE:A3:56:BC:DC:CE:B6:48:08:2B:6C:96:0C:F8:0F:4F:77:42
                DirName:/CN=team337-net
                serial:1C:11:3A:59:FB:AA:B9:92:B7:80:C4:32:E5:E3:9E:FF:C2:BF:65:A1
            X509v3 Extended Key Usage: 
                TLS Web Server Authentication
            X509v3 Key Usage: 
                Digital Signature, Key Encipherment
            X509v3 Subject Alternative Name: 
                DNS:team337-server
    Signature Algorithm: sha256WithRSAEncryption
    Signature Value:
        47:23:a6:50:4e:ac:c3:a8:dc:b3:e8:93:8f:ac:38:72:a7:df:
        c2:c7:57:6a:d0:2e:2b:e3:d0:c4:18:18:2e:68:fa:f0:d3:9f:
        8f:f0:4a:ae:1d:a4:8b:04:92:bd:a9:8c:d7:51:3e:d3:f8:33:
        51:88:a8:e9:4f:ce:81:cc:10:22:f9:93:51:6e:b2:68:e6:cd:
        19:db:b6:b8:f3:c7:22:5c:6b:c6:0d:8a:dc:19:cc:59:95:76:
        e9:54:60:b0:1a:ed:94:2b:51:d4:d3:c1:4f:e0:54:c0:1a:80:
        70:dd:b5:30:0c:f7:a4:b7:57:f9:ac:8b:ef:c3:40:29:a5:d4:
        3f:be:c8:9a:3e:79:49:b0:68:a7:d4:14:cd:29:46:06:ca:81:
        79:c0:bd:5d:4a:83:70:78:2f:b9:6b:6f:63:49:ce:47:19:38:
        cf:07:32:9a:25:99:5a:5b:9c:11:e5:b8:2f:38:e9:6e:44:25:
        9e:21:20:0d:44:0d:7a:61:2a:de:1a:e7:af:28:f9:8e:f2:c6:
        38:73:f2:57:40:b5:36:07:e1:90:8b:58:97:23:ea:23:f6:32:
        30:69:47:af:da:41:ea:64:67:54:a8:5c:6b:84:a8:e4:d4:59:
        4a:ad:38:f3:db:0c:7e:2b:a1:32:2c:24:09:67:78:73:4b:2f:
        3c:05:3b:15
-----BEGIN CERTIFICATE-----
MIIDeDCCAmCgAwIBAgIRALbwef0pAgIcll3lxpd9k7QwDQYJKoZIhvcNAQELBQAw
FjEUMBIGA1UEAwwLdGVhbTMzNy1uZXQwHhcNMjMxMTA0MTA0NjQ3WhcNMjYxMDE5
MTA0NjQ3WjAZMRcwFQYDVQQDDA50ZWFtMzM3LXNlcnZlcjCCASIwDQYJKoZIhvcN
AQEBBQADggEPADCCAQoCggEBAKyAYKuqWYcM+b6ctNI7mHqFjWb/X7RyqXKcCJ+U
jXDHyTccwupKE7Wutas3hDlr4RZBeqO/DwoiNmjhRv3dBH2MXqEAkYVRJSUTdnrQ
qUMhp0ImNpOyilgUpwcCWpZHa0iIHvlkJGflrNPL49q0XjeHO8FTE+HY+IcbY8DD
nUJALC4dpo5Ic0mxSAH80905ZpXxWz0arxsHfQaPwb2mBq6nkqrm1vs1XtSMbheb
/2xogLVAslZB1NsBgcm2Q49x+9QaWRFdkivNTNpIukNaydLnDu0EqQAhwMq3GWGr
VOgXPGd6hq5sqvDW0RXT+97JFkLzKOgQC5N+zJ+kLyWYeh8CAwEAAaOBvTCBujAJ
BgNVHRMEAjAAMB0GA1UdDgQWBBRIsf9ZiXoV/zBg9lIgbG8g3bjnlDBRBgNVHSME
SjBIgBRCZb6jVrzczrZICCtslgz4D093QqEapBgwFjEUMBIGA1UEAwwLdGVhbTMz
Ny1uZXSCFBwROln7qrmSt4DEMuXjnv/Cv2WhMBMGA1UdJQQMMAoGCCsGAQUFBwMB
MAsGA1UdDwQEAwIFoDAZBgNVHREEEjAQgg50ZWFtMzM3LXNlcnZlcjANBgkqhkiG
9w0BAQsFAAOCAQEARyOmUE6sw6jcs+iTj6w4cqffwsdXatAuK+PQxBgYLmj68NOf
j/BKrh2kiwSSvamM11E+0/gzUYio6U/OgcwQIvmTUW6yaObNGdu2uPPHIlxrxg2K
3BnMWZV26VRgsBrtlCtR1NPBT+BUwBqAcN21MAz3pLdX+ayL78NAKaXUP77Imj55
SbBop9QUzSlGBsqBecC9XUqDcHgvuWtvY0nORxk4zwcymiWZWlucEeW4LzjpbkQl
niEgDUQNemEq3hrnryj5jvLGOHPyV0C1NgfhkItYlyPqI/YyMGlHr9pB6mRnVKhc
a4So5NRZSq0489sMfiuhMiwkCWd4c0svPAU7FQ==
-----END CERTIFICATE-----
