Certificate:
    Data:
        Version: 3 (0x2)
        Serial Number:
            c5:0a:61:86:07:8d:75:fe:bc:7f:3d:69:00:1a:d0:e8
        Signature Algorithm: sha256WithRSAEncryption
        Issuer: CN=team337-net
        Validity
            Not Before: Nov  4 11:34:53 2023 GMT
            Not After : Oct 19 11:34:53 2026 GMT
        Subject: CN=team337-client
        Subject Public Key Info:
            Public Key Algorithm: rsaEncryption
                Public-Key: (2048 bit)
                Modulus:
                    00:a4:ef:f5:b6:ca:51:4f:2f:d6:7c:29:85:20:af:
                    ff:36:78:53:8c:ca:c5:00:2a:87:ad:1f:3f:e8:20:
                    d4:d5:92:a5:82:af:39:0d:58:00:97:c4:ff:35:bf:
                    fd:27:8d:63:ed:ad:f3:f5:fb:93:dc:d0:2b:85:0f:
                    52:21:41:c1:91:5c:cf:72:7d:1e:31:5e:58:19:e6:
                    cd:d0:ea:aa:5a:a7:85:fd:91:63:e2:d5:f1:a6:8e:
                    0d:d9:1c:79:49:b6:f7:ae:d4:8b:00:ff:a2:1e:49:
                    72:43:58:54:f8:8c:1b:72:b7:a0:e6:d2:b9:eb:8a:
                    63:0a:3e:15:23:a4:78:63:9e:a6:15:85:3f:5c:a3:
                    48:ab:7d:fa:37:c4:fa:c8:00:f6:5e:b7:38:0f:b2:
                    50:b1:90:ac:97:78:92:0b:5c:56:5b:5e:09:f1:1c:
                    fc:44:6b:0b:6c:47:2e:05:c5:52:d1:26:12:67:27:
                    33:73:5a:c8:ca:41:d6:19:84:a3:36:30:0e:b6:86:
                    37:51:a7:ad:bc:dd:23:3a:93:b1:4f:94:04:0f:78:
                    5d:79:9a:3e:24:16:73:7a:fa:b2:b3:b6:60:ef:18:
                    c3:d8:da:64:88:36:59:f7:8d:53:15:9c:75:35:4b:
                    25:dc:b2:f3:6c:84:df:4e:aa:39:38:2d:22:9a:b8:
                    db:cf
                Exponent: 65537 (0x10001)
        X509v3 extensions:
            X509v3 Basic Constraints: 
                CA:FALSE
            X509v3 Subject Key Identifier: 
                1E:C6:89:3A:93:24:38:EE:06:C5:0D:3B:51:AC:92:74:BF:14:34:5C
            X509v3 Authority Key Identifier: 
                keyid:51:85:3D:62:5D:A0:28:29:8D:26:D9:DD:5F:1F:27:6F:62:CF:1B:04
                DirName:/CN=team337-net
                serial:7F:C9:A4:A6:D1:2F:F5:E7:F9:74:37:EE:35:51:DA:A3:53:8C:45:71
            X509v3 Extended Key Usage: 
                TLS Web Client Authentication
            X509v3 Key Usage: 
                Digital Signature
    Signature Algorithm: sha256WithRSAEncryption
    Signature Value:
        46:ab:b6:79:3e:d4:40:8f:b6:f7:6e:6e:c4:ce:14:6b:36:0f:
        42:96:41:79:d8:63:fe:7a:f6:50:ac:4c:44:fa:58:28:30:d0:
        54:3e:79:95:88:b8:5f:43:7b:4b:17:97:44:c5:6f:45:80:d1:
        14:8f:6c:8a:81:76:62:51:b4:b4:c0:c7:69:81:26:3c:4b:3e:
        09:80:9d:07:ec:55:37:4e:b3:cf:06:a4:2b:3f:76:ea:04:ed:
        6d:94:c3:6b:b4:27:fd:ef:bc:7f:d5:49:b8:4e:cd:d2:aa:53:
        49:8e:c2:8c:55:9e:46:f2:7e:b7:96:71:50:26:56:59:af:0b:
        b6:64:92:1e:f9:9e:1c:e5:9e:e9:99:8b:16:3f:69:d6:e8:b6:
        8f:a0:04:7e:76:2b:d3:88:af:7b:39:df:30:07:01:2f:0b:10:
        9b:b4:39:1c:db:db:8e:fb:ed:0a:df:45:57:cf:54:a1:90:4d:
        9f:a2:0c:a0:4e:90:fb:21:37:d4:bd:d2:a8:86:ba:52:86:51:
        f3:93:10:c0:c9:59:88:3b:96:8e:68:9d:d9:a1:4a:86:81:19:
        11:77:7c:76:4c:31:7c:b6:1f:89:e3:0a:a5:2f:19:82:45:bb:
        cf:13:03:ed:b1:65:41:92:42:24:54:2a:97:2e:f7:88:1f:93:
        3b:c5:75:19
-----BEGIN CERTIFICATE-----
MIIDXTCCAkWgAwIBAgIRAMUKYYYHjXX+vH89aQAa0OgwDQYJKoZIhvcNAQELBQAw
FjEUMBIGA1UEAwwLdGVhbTMzNy1uZXQwHhcNMjMxMTA0MTEzNDUzWhcNMjYxMDE5
MTEzNDUzWjAZMRcwFQYDVQQDDA50ZWFtMzM3LWNsaWVudDCCASIwDQYJKoZIhvcN
AQEBBQADggEPADCCAQoCggEBAKTv9bbKUU8v1nwphSCv/zZ4U4zKxQAqh60fP+gg
1NWSpYKvOQ1YAJfE/zW//SeNY+2t8/X7k9zQK4UPUiFBwZFcz3J9HjFeWBnmzdDq
qlqnhf2RY+LV8aaODdkceUm2967UiwD/oh5JckNYVPiMG3K3oObSueuKYwo+FSOk
eGOephWFP1yjSKt9+jfE+sgA9l63OA+yULGQrJd4kgtcVlteCfEc/ERrC2xHLgXF
UtEmEmcnM3NayMpB1hmEozYwDraGN1GnrbzdIzqTsU+UBA94XXmaPiQWc3r6srO2
YO8Yw9jaZIg2WfeNUxWcdTVLJdyy82yE306qOTgtIpq4288CAwEAAaOBojCBnzAJ
BgNVHRMEAjAAMB0GA1UdDgQWBBQexok6kyQ47gbFDTtRrJJ0vxQ0XDBRBgNVHSME
SjBIgBRRhT1iXaAoKY0m2d1fHydvYs8bBKEapBgwFjEUMBIGA1UEAwwLdGVhbTMz
Ny1uZXSCFH/JpKbRL/Xn+XQ37jVR2qNTjEVxMBMGA1UdJQQMMAoGCCsGAQUFBwMC
MAsGA1UdDwQEAwIHgDANBgkqhkiG9w0BAQsFAAOCAQEARqu2eT7UQI+2925uxM4U
azYPQpZBedhj/nr2UKxMRPpYKDDQVD55lYi4X0N7SxeXRMVvRYDRFI9sioF2YlG0
tMDHaYEmPEs+CYCdB+xVN06zzwakKz926gTtbZTDa7Qn/e+8f9VJuE7N0qpTSY7C
jFWeRvJ+t5ZxUCZWWa8LtmSSHvmeHOWe6ZmLFj9p1ui2j6AEfnYr04iveznfMAcB
LwsQm7Q5HNvbjvvtCt9FV89UoZBNn6IMoE6Q+yE31L3SqIa6UoZR85MQwMlZiDuW
jmid2aFKhoEZEXd8dkwxfLYfieMKpS8ZgkW7zxMD7bFlQZJCJFQqly73iB+TO8V1
GQ==
-----END CERTIFICATE-----
