Certificate:
    Data:
        Version: 3 (0x2)
        Serial Number:
            1b:8c:9c:49:30:62:cb:8e:0d:45:e4:01:7a:61:c6:b9
        Signature Algorithm: sha256WithRSAEncryption
        Issuer: CN=team325-net
        Validity
            Not Before: Nov  4 11:34:37 2023 GMT
            Not After : Oct 19 11:34:37 2026 GMT
        Subject: CN=team325-client
        Subject Public Key Info:
            Public Key Algorithm: rsaEncryption
                Public-Key: (2048 bit)
                Modulus:
                    00:a8:76:8b:77:69:b9:b0:37:b0:ec:4e:2f:3a:82:
                    18:ea:1d:6c:cd:ee:3d:37:58:01:60:4c:92:21:11:
                    c1:f3:f7:44:13:65:70:cd:fc:0e:9a:f9:15:9a:0b:
                    bb:2a:5b:65:14:1a:f3:85:c2:c4:dc:8d:90:c9:24:
                    ed:74:8a:31:00:01:df:47:c6:87:a3:8c:43:6e:dd:
                    45:40:e2:e6:10:fc:07:e8:09:50:7a:a5:e0:77:8d:
                    dc:ec:3c:f8:d3:91:7a:bb:4e:2e:ee:b6:75:30:46:
                    99:53:a7:41:27:7d:4c:06:3b:ed:53:52:8d:e2:93:
                    65:d4:6a:03:98:38:77:66:52:cd:27:3d:f8:3b:a4:
                    14:1e:d2:f8:9f:60:c2:68:eb:3d:03:2a:d1:36:a1:
                    f9:b4:51:2b:9b:11:1a:3e:9a:cb:1f:71:68:60:c8:
                    b0:ce:24:c0:a0:4f:08:36:cf:dd:00:52:2c:32:ce:
                    92:84:34:12:76:a3:29:c5:4c:14:37:4d:7f:a5:29:
                    fb:3b:fc:da:66:aa:8c:0d:97:73:20:b9:21:51:05:
                    60:da:45:9c:54:4a:83:27:29:40:3f:9a:f4:a3:5b:
                    29:dc:46:b0:b0:ac:50:0b:c1:d6:85:5a:b3:fd:b5:
                    87:f2:df:5e:05:c7:0f:33:9c:ac:80:02:5a:09:1e:
                    86:b9
                Exponent: 65537 (0x10001)
        X509v3 extensions:
            X509v3 Basic Constraints: 
                CA:FALSE
            X509v3 Subject Key Identifier: 
                E7:42:B0:CF:A7:77:20:38:28:45:E5:C8:68:13:96:11:05:B1:94:96
            X509v3 Authority Key Identifier: 
                keyid:74:0E:40:70:60:A3:9C:F2:18:B8:45:12:5A:9F:B2:AD:2A:38:8D:E6
                DirName:/CN=team325-net
                serial:78:7F:AF:F3:4C:E7:01:00:BD:6B:9E:09:7E:CE:48:55:9A:71:25:4C
            X509v3 Extended Key Usage: 
                TLS Web Client Authentication
            X509v3 Key Usage: 
                Digital Signature
    Signature Algorithm: sha256WithRSAEncryption
    Signature Value:
        85:6b:a9:14:90:43:15:70:cc:0d:60:f4:21:cb:f8:a7:da:ce:
        c0:a3:73:c5:a4:c4:4d:58:6a:8a:c3:cc:00:eb:32:85:d0:9e:
        26:bc:6a:08:36:67:d8:ab:6b:ff:f7:db:ad:5c:b6:fe:d7:20:
        83:d8:59:ce:f6:b3:39:33:8f:22:6d:a6:84:3e:7c:e0:94:2d:
        ac:b2:70:43:89:b2:d1:7e:27:f5:7d:31:b2:d0:d6:ef:ed:02:
        10:02:f3:2d:18:a0:0e:ec:15:31:86:34:b0:15:7c:68:54:ff:
        84:8f:6c:21:62:7a:76:d5:04:df:16:69:0e:d0:af:b1:e6:ac:
        6c:15:84:b6:01:a3:b4:ea:16:5d:b0:e5:8a:c3:69:f1:7f:21:
        0f:af:1f:65:95:b8:de:84:86:ed:bd:ac:9a:f6:a4:b3:dd:ca:
        c1:b2:83:b9:17:b9:9c:bc:7c:c1:a2:6c:df:f3:06:5e:98:fe:
        85:8e:19:ef:72:1d:79:1c:da:1d:30:c4:22:cd:b6:2b:83:8d:
        b3:0c:d1:c9:1e:f9:e5:f1:1f:dd:c0:7e:82:bd:06:c8:b4:67:
        f3:cb:c2:36:c6:59:3f:66:6f:7c:15:8b:55:31:1c:97:24:ab:
        93:83:b2:6f:b2:d2:31:71:e0:13:6e:9a:21:25:84:89:9a:eb:
        aa:5c:29:56
-----BEGIN CERTIFICATE-----
MIIDXDCCAkSgAwIBAgIQG4ycSTBiy44NReQBemHGuTANBgkqhkiG9w0BAQsFADAW
MRQwEgYDVQQDDAt0ZWFtMzI1LW5ldDAeFw0yMzExMDQxMTM0MzdaFw0yNjEwMTkx
MTM0MzdaMBkxFzAVBgNVBAMMDnRlYW0zMjUtY2xpZW50MIIBIjANBgkqhkiG9w0B
AQEFAAOCAQ8AMIIBCgKCAQEAqHaLd2m5sDew7E4vOoIY6h1sze49N1gBYEySIRHB
8/dEE2VwzfwOmvkVmgu7KltlFBrzhcLE3I2QySTtdIoxAAHfR8aHo4xDbt1FQOLm
EPwH6AlQeqXgd43c7Dz405F6u04u7rZ1MEaZU6dBJ31MBjvtU1KN4pNl1GoDmDh3
ZlLNJz34O6QUHtL4n2DCaOs9AyrRNqH5tFErmxEaPprLH3FoYMiwziTAoE8INs/d
AFIsMs6ShDQSdqMpxUwUN01/pSn7O/zaZqqMDZdzILkhUQVg2kWcVEqDJylAP5r0
o1sp3EawsKxQC8HWhVqz/bWH8t9eBccPM5ysgAJaCR6GuQIDAQABo4GiMIGfMAkG
A1UdEwQCMAAwHQYDVR0OBBYEFOdCsM+ndyA4KEXlyGgTlhEFsZSWMFEGA1UdIwRK
MEiAFHQOQHBgo5zyGLhFElqfsq0qOI3moRqkGDAWMRQwEgYDVQQDDAt0ZWFtMzI1
LW5ldIIUeH+v80znAQC9a54Jfs5IVZpxJUwwEwYDVR0lBAwwCgYIKwYBBQUHAwIw
CwYDVR0PBAQDAgeAMA0GCSqGSIb3DQEBCwUAA4IBAQCFa6kUkEMVcMwNYPQhy/in
2s7Ao3PFpMRNWGqKw8wA6zKF0J4mvGoINmfYq2v/99utXLb+1yCD2FnO9rM5M48i
baaEPnzglC2ssnBDibLRfif1fTGy0Nbv7QIQAvMtGKAO7BUxhjSwFXxoVP+Ej2wh
Ynp21QTfFmkO0K+x5qxsFYS2AaO06hZdsOWKw2nxfyEPrx9llbjehIbtvaya9qSz
3crBsoO5F7mcvHzBomzf8wZemP6Fjhnvch15HNodMMQizbYrg42zDNHJHvnl8R/d
wH6CvQbItGfzy8I2xlk/Zm98FYtVMRyXJKuTg7JvstIxceATbpohJYSJmuuqXClW
-----END CERTIFICATE-----
