Certificate:
    Data:
        Version: 3 (0x2)
        Serial Number:
            fb:96:2f:fe:49:1a:7a:33:24:41:39:d4:a0:54:5d:45
        Signature Algorithm: sha256WithRSAEncryption
        Issuer: CN=team325-net
        Validity
            Not Before: Nov  4 11:34:37 2023 GMT
            Not After : Oct 19 11:34:37 2026 GMT
        Subject: CN=team325-server
        Subject Public Key Info:
            Public Key Algorithm: rsaEncryption
                Public-Key: (2048 bit)
                Modulus:
                    00:f9:91:30:1c:ca:11:f2:fa:1a:4e:a2:4b:7e:02:
                    ea:da:30:3a:49:d9:1c:a2:93:28:f1:5b:ed:76:e7:
                    5d:19:0f:93:ee:bc:83:dc:50:8a:33:fa:ea:8c:4a:
                    67:5c:20:59:8b:ea:1a:bf:93:d0:4f:0a:85:85:f6:
                    ff:1b:80:3c:4e:8d:7f:09:41:73:b2:b2:24:26:89:
                    d4:34:ca:cd:17:a4:95:a7:ad:6f:61:00:29:48:16:
                    fe:0b:71:b1:1d:9f:ff:c6:ca:af:d9:1d:9c:9d:e5:
                    c5:d7:1b:09:2a:84:65:c5:d7:1d:54:9c:30:34:f0:
                    71:17:33:0c:b2:e8:99:5d:fc:3c:10:c5:61:b3:e6:
                    49:70:ce:b3:66:a7:b3:74:88:6a:fa:b0:c1:4e:d9:
                    20:56:4d:58:18:5f:e2:a0:98:e7:fb:65:d6:a7:8a:
                    d2:9e:d2:e1:21:df:37:f7:ea:44:0a:9e:60:7d:a9:
                    2b:a9:a3:73:0c:a7:62:cf:c0:1f:88:78:c3:a6:b5:
                    12:20:49:f7:1a:7d:1a:54:38:55:e2:55:1e:79:12:
                    94:d3:b0:df:8e:c6:b9:d6:57:b9:9f:ab:89:58:03:
                    f2:6e:94:03:fe:ca:b3:db:e0:86:4f:94:ca:29:d2:
                    1e:da:7d:4d:e4:ce:95:2f:69:1b:6e:21:f7:0d:53:
                    ea:d7
                Exponent: 65537 (0x10001)
        X509v3 extensions:
            X509v3 Basic Constraints: 
                CA:FALSE
            X509v3 Subject Key Identifier: 
                87:EC:0D:C4:3A:75:41:5B:EA:CF:B2:DA:CF:35:D0:29:F5:68:50:C1
            X509v3 Authority Key Identifier: 
                keyid:74:0E:40:70:60:A3:9C:F2:18:B8:45:12:5A:9F:B2:AD:2A:38:8D:E6
                DirName:/CN=team325-net
                serial:78:7F:AF:F3:4C:E7:01:00:BD:6B:9E:09:7E:CE:48:55:9A:71:25:4C
            X509v3 Extended Key Usage: 
                TLS Web Server Authentication
            X509v3 Key Usage: 
                Digital Signature, Key Encipherment
            X509v3 Subject Alternative Name: 
                DNS:team325-server
    Signature Algorithm: sha256WithRSAEncryption
    Signature Value:
        90:21:62:46:84:4d:d9:ec:05:5e:83:c5:fe:fe:d4:7e:8b:e8:
        fd:4a:39:fa:11:57:7d:06:23:03:84:48:89:93:2c:fc:3f:ab:
        91:b1:3e:c8:b9:a3:4d:8e:e2:0a:f4:0e:0e:e0:62:6c:bb:ca:
        4e:77:b1:7d:4b:5a:9d:8e:85:38:cd:81:12:3f:5b:17:21:62:
        67:85:79:ea:b4:75:e5:54:c2:25:be:96:bf:cd:c2:cc:cc:a7:
        0e:43:dd:c4:04:28:79:e9:3f:e0:54:39:06:ad:eb:63:b2:a4:
        97:4e:ab:52:0f:2d:de:af:eb:9e:ba:ef:64:52:66:17:f0:4a:
        1b:32:c2:7d:c6:5d:2b:20:fe:6e:94:25:4b:91:d6:9e:99:5e:
        1a:63:80:5d:22:49:23:34:ca:fe:ff:18:86:53:e8:34:0e:0a:
        1f:e7:c2:17:c2:e0:43:5e:6c:55:43:65:51:7d:01:a5:0e:79:
        f9:73:a0:33:85:22:f7:5e:e4:02:ed:e6:ce:f0:8e:9d:ab:78:
        96:bb:82:c5:c1:93:2d:85:bd:04:a6:47:25:80:48:c7:09:e0:
        e9:2b:ad:13:d1:c8:d8:2d:1e:16:34:71:6f:62:b6:3a:49:40:
        5d:c9:9e:09:05:76:06:ac:9f:16:60:08:b7:44:60:07:81:b0:
        f0:17:7e:fa
-----BEGIN CERTIFICATE-----
MIIDeDCCAmCgAwIBAgIRAPuWL/5JGnozJEE51KBUXUUwDQYJKoZIhvcNAQELBQAw
FjEUMBIGA1UEAwwLdGVhbTMyNS1uZXQwHhcNMjMxMTA0MTEzNDM3WhcNMjYxMDE5
MTEzNDM3WjAZMRcwFQYDVQQDDA50ZWFtMzI1LXNlcnZlcjCCASIwDQYJKoZIhvcN
AQEBBQADggEPADCCAQoCggEBAPmRMBzKEfL6Gk6iS34C6towOknZHKKTKPFb7Xbn
XRkPk+68g9xQijP66oxKZ1wgWYvqGr+T0E8KhYX2/xuAPE6NfwlBc7KyJCaJ1DTK
zReklaetb2EAKUgW/gtxsR2f/8bKr9kdnJ3lxdcbCSqEZcXXHVScMDTwcRczDLLo
mV38PBDFYbPmSXDOs2ans3SIavqwwU7ZIFZNWBhf4qCY5/tl1qeK0p7S4SHfN/fq
RAqeYH2pK6mjcwynYs/AH4h4w6a1EiBJ9xp9GlQ4VeJVHnkSlNOw347GudZXuZ+r
iVgD8m6UA/7Ks9vghk+UyinSHtp9TeTOlS9pG24h9w1T6tcCAwEAAaOBvTCBujAJ
BgNVHRMEAjAAMB0GA1UdDgQWBBSH7A3EOnVBW+rPstrPNdAp9WhQwTBRBgNVHSME
SjBIgBR0DkBwYKOc8hi4RRJan7KtKjiN5qEapBgwFjEUMBIGA1UEAwwLdGVhbTMy
NS1uZXSCFHh/r/NM5wEAvWueCX7OSFWacSVMMBMGA1UdJQQMMAoGCCsGAQUFBwMB
MAsGA1UdDwQEAwIFoDAZBgNVHREEEjAQgg50ZWFtMzI1LXNlcnZlcjANBgkqhkiG
9w0BAQsFAAOCAQEAkCFiRoRN2ewFXoPF/v7Ufovo/Uo5+hFXfQYjA4RIiZMs/D+r
kbE+yLmjTY7iCvQODuBibLvKTnexfUtanY6FOM2BEj9bFyFiZ4V56rR15VTCJb6W
v83CzMynDkPdxAQoeek/4FQ5Bq3rY7Kkl06rUg8t3q/rnrrvZFJmF/BKGzLCfcZd
KyD+bpQlS5HWnpleGmOAXSJJIzTK/v8YhlPoNA4KH+fCF8LgQ15sVUNlUX0BpQ55
+XOgM4Ui917kAu3mzvCOnat4lruCxcGTLYW9BKZHJYBIxwng6SutE9HI2C0eFjRx
b2K2OklAXcmeCQV2BqyfFmAIt0RgB4Gw8Bd++g==
-----END CERTIFICATE-----
