Certificate:
    Data:
        Version: 3 (0x2)
        Serial Number:
            41:f6:31:c7:8c:98:55:f5:54:98:4f:63:84:ae:ad:c1
        Signature Algorithm: sha256WithRSAEncryption
        Issuer: CN=team167-net
        Validity
            Not Before: Nov  4 11:30:55 2023 GMT
            Not After : Oct 19 11:30:55 2026 GMT
        Subject: CN=team167-server
        Subject Public Key Info:
            Public Key Algorithm: rsaEncryption
                Public-Key: (2048 bit)
                Modulus:
                    00:e7:9c:36:fd:0c:dc:e8:bd:c6:ab:4c:fe:e6:80:
                    33:0b:f4:b5:35:fd:16:46:63:11:23:63:6b:e8:a5:
                    95:cb:c7:f3:56:84:78:7c:a2:a5:50:17:e2:d2:46:
                    46:62:71:b7:8d:bd:ff:70:e9:05:d6:46:eb:1c:41:
                    31:3d:28:d5:52:d3:9b:ea:e6:8a:77:eb:68:92:8e:
                    c3:b0:3e:86:2f:3a:e6:7b:31:18:f8:53:9f:bc:f5:
                    e1:91:32:59:00:8a:0e:64:8a:e2:f8:61:34:28:c4:
                    e3:2f:04:a1:d4:db:08:b8:61:76:22:a4:bf:57:37:
                    d7:9e:04:85:9c:78:5b:ec:a2:d9:02:78:7f:da:72:
                    a6:8a:f1:ef:5d:18:0c:58:0e:74:38:e8:4f:ab:a9:
                    57:30:79:11:16:d1:33:5d:86:05:20:82:53:9f:35:
                    c7:3f:9d:65:78:32:3b:c1:45:18:8c:e9:8a:27:45:
                    f5:59:1f:7b:62:9d:7f:e3:f7:05:59:1c:9e:cf:91:
                    76:e9:99:ce:3c:c2:ad:7c:c3:93:6e:d0:ce:a1:5a:
                    69:6e:b0:8e:09:20:08:71:16:df:49:a1:bf:d8:b7:
                    83:37:f7:94:36:f9:13:40:dd:92:b2:f1:50:ff:d5:
                    9f:d9:05:6e:83:d2:13:c3:41:fd:67:cb:ca:89:66:
                    14:c1
                Exponent: 65537 (0x10001)
        X509v3 extensions:
            X509v3 Basic Constraints: 
                CA:FALSE
            X509v3 Subject Key Identifier: 
                24:3E:A9:B2:89:1C:A2:3E:EE:39:83:59:A1:E6:93:B2:9F:71:E7:EC
            X509v3 Authority Key Identifier: 
                keyid:CB:E3:56:C7:3E:B7:54:76:AE:3A:1A:A3:D3:8E:83:51:5D:B0:4B:32
                DirName:/CN=team167-net
                serial:0C:4C:74:50:50:96:A5:92:BD:DC:D1:B6:0E:41:04:12:25:09:5E:D2
            X509v3 Extended Key Usage: 
                TLS Web Server Authentication
            X509v3 Key Usage: 
                Digital Signature, Key Encipherment
            X509v3 Subject Alternative Name: 
                DNS:team167-server
    Signature Algorithm: sha256WithRSAEncryption
    Signature Value:
        ad:31:94:a8:38:18:39:3d:ff:26:de:1c:51:62:76:5c:78:68:
        0e:29:6d:22:60:be:38:1f:fc:7d:47:d6:97:0e:79:01:74:73:
        cc:6b:1d:52:d6:0b:c5:44:37:71:b0:d0:cc:4d:3c:85:51:d5:
        85:63:a3:1e:90:1c:54:2c:68:ae:bf:0e:93:d4:34:1b:96:b8:
        3b:14:f2:19:cf:b1:40:aa:19:10:d0:d2:e4:a9:1f:2e:07:b5:
        3d:93:58:40:7c:a6:c7:3f:c4:ab:f0:45:56:e0:e9:9c:9a:d4:
        c0:79:fe:43:c4:d2:3f:7a:08:a8:96:2f:d4:0e:c0:90:47:16:
        f4:43:89:51:74:40:36:a0:02:25:7d:27:0c:ac:57:9d:92:83:
        74:85:a2:df:65:a9:53:52:4f:af:32:2a:b3:85:f2:4d:db:4e:
        f5:4f:4b:3f:d4:a8:13:81:4d:01:fe:80:12:1b:93:a0:9b:68:
        a6:69:c0:c2:8c:11:25:bf:cf:bf:0a:40:ec:6f:04:96:36:86:
        fc:d9:d2:5c:44:fc:a8:84:a3:dd:fb:6e:8e:e6:10:ae:3a:b5:
        82:0a:1e:88:9c:3e:d7:51:e3:4a:aa:85:42:2b:09:e4:ef:7f:
        33:39:0a:2e:26:49:ee:3e:c9:bd:86:94:4c:be:99:ed:51:80:
        72:32:3a:29
-----BEGIN CERTIFICATE-----
MIIDdzCCAl+gAwIBAgIQQfYxx4yYVfVUmE9jhK6twTANBgkqhkiG9w0BAQsFADAW
MRQwEgYDVQQDDAt0ZWFtMTY3LW5ldDAeFw0yMzExMDQxMTMwNTVaFw0yNjEwMTkx
MTMwNTVaMBkxFzAVBgNVBAMMDnRlYW0xNjctc2VydmVyMIIBIjANBgkqhkiG9w0B
AQEFAAOCAQ8AMIIBCgKCAQEA55w2/Qzc6L3Gq0z+5oAzC/S1Nf0WRmMRI2Nr6KWV
y8fzVoR4fKKlUBfi0kZGYnG3jb3/cOkF1kbrHEExPSjVUtOb6uaKd+toko7DsD6G
LzrmezEY+FOfvPXhkTJZAIoOZIri+GE0KMTjLwSh1NsIuGF2IqS/VzfXngSFnHhb
7KLZAnh/2nKmivHvXRgMWA50OOhPq6lXMHkRFtEzXYYFIIJTnzXHP51leDI7wUUY
jOmKJ0X1WR97Yp1/4/cFWRyez5F26ZnOPMKtfMOTbtDOoVppbrCOCSAIcRbfSaG/
2LeDN/eUNvkTQN2SsvFQ/9Wf2QVug9ITw0H9Z8vKiWYUwQIDAQABo4G9MIG6MAkG
A1UdEwQCMAAwHQYDVR0OBBYEFCQ+qbKJHKI+7jmDWaHmk7KfcefsMFEGA1UdIwRK
MEiAFMvjVsc+t1R2rjoao9OOg1FdsEsyoRqkGDAWMRQwEgYDVQQDDAt0ZWFtMTY3
LW5ldIIUDEx0UFCWpZK93NG2DkEEEiUJXtIwEwYDVR0lBAwwCgYIKwYBBQUHAwEw
CwYDVR0PBAQDAgWgMBkGA1UdEQQSMBCCDnRlYW0xNjctc2VydmVyMA0GCSqGSIb3
DQEBCwUAA4IBAQCtMZSoOBg5Pf8m3hxRYnZceGgOKW0iYL44H/x9R9aXDnkBdHPM
ax1S1gvFRDdxsNDMTTyFUdWFY6MekBxULGiuvw6T1DQblrg7FPIZz7FAqhkQ0NLk
qR8uB7U9k1hAfKbHP8Sr8EVW4OmcmtTAef5DxNI/egioli/UDsCQRxb0Q4lRdEA2
oAIlfScMrFedkoN0haLfZalTUk+vMiqzhfJN2071T0s/1KgTgU0B/oASG5Ogm2im
acDCjBElv8+/CkDsbwSWNob82dJcRPyohKPd+26O5hCuOrWCCh6InD7XUeNKqoVC
Kwnk738zOQouJknuPsm9hpRMvpntUYByMjop
-----END CERTIFICATE-----
