Certificate:
    Data:
        Version: 3 (0x2)
        Serial Number:
            4f:d2:b5:23:1e:00:31:f1:b4:a5:21:57:38:d1:c4:a7
        Signature Algorithm: sha256WithRSAEncryption
        Issuer: CN=team167-net
        Validity
            Not Before: Nov  4 11:30:55 2023 GMT
            Not After : Oct 19 11:30:55 2026 GMT
        Subject: CN=team167-client
        Subject Public Key Info:
            Public Key Algorithm: rsaEncryption
                Public-Key: (2048 bit)
                Modulus:
                    00:d6:ae:5a:0d:a8:b7:57:96:8b:49:c4:c3:a9:ed:
                    cf:56:0a:08:71:b6:07:53:30:48:25:3f:fc:cc:2d:
                    8b:1c:68:da:23:11:97:d3:40:cd:4a:1a:e3:68:60:
                    1e:55:74:b4:ba:d4:50:b0:d1:d9:1a:67:29:0c:46:
                    cd:3e:15:f3:6e:e6:55:c1:40:79:b1:f7:d8:4f:5e:
                    2a:b3:0e:36:f4:c0:1d:17:10:bf:a4:2b:cb:74:9f:
                    73:b2:16:68:f3:fb:31:82:16:93:ef:fd:ce:00:de:
                    2b:ec:68:ac:d4:ba:6e:8f:bb:e2:d5:78:43:fe:0d:
                    3b:d6:7d:35:64:3d:a0:ce:33:87:55:4c:5c:bd:b0:
                    db:ef:b3:8b:fc:de:38:20:18:5e:56:48:51:0d:53:
                    ce:63:60:d7:f1:eb:94:b4:c1:ad:b2:b2:15:04:f5:
                    ae:0b:08:ed:51:44:5d:15:45:1c:04:c0:df:12:5c:
                    2b:76:f9:d6:6c:d2:82:c7:76:31:a1:5e:c5:9d:d2:
                    47:f6:78:a6:23:86:b7:d2:40:1f:75:a6:7a:b9:b9:
                    37:16:ef:6c:ec:6d:de:ea:8a:6e:57:1a:96:2a:e1:
                    70:5c:7b:9e:d2:6b:ea:aa:62:57:d4:36:45:ae:a2:
                    e5:5d:f4:24:51:b9:38:5a:c5:09:05:cb:dc:5c:23:
                    0b:ed
                Exponent: 65537 (0x10001)
        X509v3 extensions:
            X509v3 Basic Constraints: 
                CA:FALSE
            X509v3 Subject Key Identifier: 
                D9:C2:5A:7E:F7:A1:4A:97:60:D3:1E:0A:92:42:50:27:9F:D5:97:10
            X509v3 Authority Key Identifier: 
                keyid:CB:E3:56:C7:3E:B7:54:76:AE:3A:1A:A3:D3:8E:83:51:5D:B0:4B:32
                DirName:/CN=team167-net
                serial:0C:4C:74:50:50:96:A5:92:BD:DC:D1:B6:0E:41:04:12:25:09:5E:D2
            X509v3 Extended Key Usage: 
                TLS Web Client Authentication
            X509v3 Key Usage: 
                Digital Signature
    Signature Algorithm: sha256WithRSAEncryption
    Signature Value:
        5d:c5:af:3c:43:91:71:bb:ac:49:c8:65:5e:55:c8:2d:b3:12:
        5c:5c:68:5d:f3:ef:f9:15:79:01:34:ac:ba:15:87:9c:24:f4:
        14:26:2a:39:69:5a:8d:67:08:68:4e:94:df:1e:42:e0:cf:34:
        cd:2c:ab:7f:96:f6:03:b4:c7:6d:f9:93:4f:9b:57:d9:7c:88:
        86:35:4b:84:04:f8:65:52:3a:d6:f3:84:e9:c6:12:9a:5c:0c:
        9d:5a:f9:44:71:66:10:54:eb:3c:ea:f0:6d:6d:52:8f:6c:5d:
        dd:dc:26:e3:d3:e7:a5:ab:3a:dc:8c:7f:fe:72:de:27:42:d2:
        df:54:f3:a0:db:8b:76:15:45:90:02:1b:d1:d8:3c:db:ee:80:
        bc:28:36:b3:a5:98:aa:4c:56:6d:d8:82:50:20:ff:a4:14:b5:
        1d:1d:21:44:76:bd:0f:c1:34:ed:d6:af:ff:09:6d:44:7b:55:
        00:29:2c:c2:ac:77:ac:a1:80:e8:ed:5d:11:c3:c3:bf:ab:ad:
        d7:70:28:73:ff:2a:e5:d3:21:00:ed:4e:02:d4:cd:55:73:b9:
        8d:49:b5:a3:4f:0d:0f:51:cd:a4:77:1e:d0:6d:f6:57:9d:1d:
        f3:30:f7:66:10:48:e0:88:4b:fa:3f:e3:95:65:2c:41:33:f5:
        0e:4b:e8:5b
-----BEGIN CERTIFICATE-----
MIIDXDCCAkSgAwIBAgIQT9K1Ix4AMfG0pSFXONHEpzANBgkqhkiG9w0BAQsFADAW
MRQwEgYDVQQDDAt0ZWFtMTY3LW5ldDAeFw0yMzExMDQxMTMwNTVaFw0yNjEwMTkx
MTMwNTVaMBkxFzAVBgNVBAMMDnRlYW0xNjctY2xpZW50MIIBIjANBgkqhkiG9w0B
AQEFAAOCAQ8AMIIBCgKCAQEA1q5aDai3V5aLScTDqe3PVgoIcbYHUzBIJT/8zC2L
HGjaIxGX00DNShrjaGAeVXS0utRQsNHZGmcpDEbNPhXzbuZVwUB5sffYT14qsw42
9MAdFxC/pCvLdJ9zshZo8/sxghaT7/3OAN4r7Gis1Lpuj7vi1XhD/g071n01ZD2g
zjOHVUxcvbDb77OL/N44IBheVkhRDVPOY2DX8euUtMGtsrIVBPWuCwjtUURdFUUc
BMDfElwrdvnWbNKCx3YxoV7FndJH9nimI4a30kAfdaZ6ubk3Fu9s7G3e6opuVxqW
KuFwXHue0mvqqmJX1DZFrqLlXfQkUbk4WsUJBcvcXCML7QIDAQABo4GiMIGfMAkG
A1UdEwQCMAAwHQYDVR0OBBYEFNnCWn73oUqXYNMeCpJCUCef1ZcQMFEGA1UdIwRK
MEiAFMvjVsc+t1R2rjoao9OOg1FdsEsyoRqkGDAWMRQwEgYDVQQDDAt0ZWFtMTY3
LW5ldIIUDEx0UFCWpZK93NG2DkEEEiUJXtIwEwYDVR0lBAwwCgYIKwYBBQUHAwIw
CwYDVR0PBAQDAgeAMA0GCSqGSIb3DQEBCwUAA4IBAQBdxa88Q5Fxu6xJyGVeVcgt
sxJcXGhd8+/5FXkBNKy6FYecJPQUJio5aVqNZwhoTpTfHkLgzzTNLKt/lvYDtMdt
+ZNPm1fZfIiGNUuEBPhlUjrW84TpxhKaXAydWvlEcWYQVOs86vBtbVKPbF3d3Cbj
0+elqzrcjH/+ct4nQtLfVPOg24t2FUWQAhvR2Dzb7oC8KDazpZiqTFZt2IJQIP+k
FLUdHSFEdr0PwTTt1q//CW1Ee1UAKSzCrHesoYDo7V0Rw8O/q63XcChz/yrl0yEA
7U4C1M1Vc7mNSbWjTw0PUc2kdx7QbfZXnR3zMPdmEEjgiEv6P+OVZSxBM/UOS+hb
-----END CERTIFICATE-----
