Certificate:
    Data:
        Version: 3 (0x2)
        Serial Number:
            bb:80:56:6b:3c:8d:e6:6c:55:40:39:cd:9e:8f:0a:4d
        Signature Algorithm: sha256WithRSAEncryption
        Issuer: CN=team167-net
        Validity
            Not Before: Nov  4 10:43:38 2023 GMT
            Not After : Oct 19 10:43:38 2026 GMT
        Subject: CN=team167-server
        Subject Public Key Info:
            Public Key Algorithm: rsaEncryption
                Public-Key: (2048 bit)
                Modulus:
                    00:d5:06:05:42:f7:5f:fb:d8:cf:9c:80:00:ff:37:
                    13:b6:63:dd:59:e6:0a:de:20:e9:db:c5:eb:64:2a:
                    7c:b5:5a:66:88:b2:95:0d:de:b7:bd:80:a1:93:44:
                    27:3a:97:5a:1b:57:21:d0:88:7c:64:a0:64:a0:c6:
                    f1:b1:8d:3a:c1:61:db:71:cd:e8:57:9d:2b:58:6d:
                    29:5c:62:03:c3:91:50:3f:90:02:f5:6a:dc:18:9a:
                    2f:fb:42:1e:b9:50:29:dc:ef:6a:2c:9c:26:63:7c:
                    8c:22:3e:63:dc:96:04:c2:62:ad:b9:f5:da:f8:39:
                    74:45:76:78:bd:a7:00:59:77:39:47:28:c9:7e:99:
                    68:d0:35:4a:4a:37:ed:00:ad:2b:69:3c:b8:c0:f6:
                    4d:88:db:20:2b:d1:0e:ed:b5:ca:bd:0a:d0:39:6d:
                    02:c9:19:9a:a8:0d:b5:65:16:bb:45:0c:9f:ad:48:
                    a5:33:00:d9:8e:fe:e2:b2:57:26:90:78:90:ac:cc:
                    a8:f2:d4:2e:01:31:70:2c:0d:96:c5:68:64:4a:b5:
                    d0:a4:81:1c:ba:0b:6c:44:12:8d:a2:e7:0f:e4:e1:
                    a6:5d:23:5a:fe:4e:7d:2f:eb:d3:37:7b:43:e5:0a:
                    75:ef:ca:11:8c:63:9a:1c:4b:04:00:4a:d5:88:87:
                    9b:3b
                Exponent: 65537 (0x10001)
        X509v3 extensions:
            X509v3 Basic Constraints: 
                CA:FALSE
            X509v3 Subject Key Identifier: 
                15:C4:12:94:9A:53:2A:29:39:C4:FD:27:EE:CA:77:3D:32:4F:5B:88
            X509v3 Authority Key Identifier: 
                keyid:D9:A4:BF:0B:46:D2:C8:57:C1:59:8E:D4:D4:18:72:17:0B:20:29:10
                DirName:/CN=team167-net
                serial:6C:D9:07:F5:31:43:0D:B8:F8:75:BE:5C:D8:BA:96:0D:E7:00:BD:AE
            X509v3 Extended Key Usage: 
                TLS Web Server Authentication
            X509v3 Key Usage: 
                Digital Signature, Key Encipherment
            X509v3 Subject Alternative Name: 
                DNS:team167-server
    Signature Algorithm: sha256WithRSAEncryption
    Signature Value:
        6c:c0:32:2c:1a:a7:19:0b:cc:90:cb:73:1e:66:05:0e:80:3e:
        a3:ef:2f:fb:0a:53:cd:31:23:9e:8f:8c:ad:63:33:01:d5:bb:
        3f:7e:43:5f:36:32:1b:09:eb:e8:31:ea:95:ce:12:4c:d2:81:
        05:0f:18:aa:a9:04:f8:0b:e1:f2:b1:fe:4c:d5:d7:ec:52:f1:
        12:3e:41:ff:40:01:c5:7a:db:a5:a6:bf:e1:9e:a7:3b:61:ac:
        31:ed:71:80:8f:72:2e:6f:4c:13:ec:8a:98:6f:38:d2:4e:05:
        fd:ce:11:8c:1c:14:f7:0b:54:de:36:c5:dd:df:6a:68:58:5a:
        7e:1b:ae:fb:74:c2:0a:21:aa:07:27:54:a7:41:dd:b4:30:ef:
        2a:b2:ef:5b:e9:9b:14:e0:ae:7f:25:6e:d7:c1:0c:a0:46:f5:
        1c:27:db:50:d3:25:50:7e:f6:cc:68:a8:7a:19:a7:70:e0:5d:
        be:21:bf:40:a0:c4:47:35:8e:c5:ba:76:7c:ec:36:82:c7:b0:
        dc:0f:43:a4:15:25:2c:2d:64:c3:3a:3f:7d:af:ff:2c:ba:73:
        a6:80:d9:0d:41:2f:08:d2:a0:ce:bd:af:76:79:21:d0:33:24:
        a2:fa:30:56:46:da:0c:81:27:04:68:9d:8b:da:c7:fe:49:88:
        01:ac:c7:eb
-----BEGIN CERTIFICATE-----
MIIDeDCCAmCgAwIBAgIRALuAVms8jeZsVUA5zZ6PCk0wDQYJKoZIhvcNAQELBQAw
FjEUMBIGA1UEAwwLdGVhbTE2Ny1uZXQwHhcNMjMxMTA0MTA0MzM4WhcNMjYxMDE5
MTA0MzM4WjAZMRcwFQYDVQQDDA50ZWFtMTY3LXNlcnZlcjCCASIwDQYJKoZIhvcN
AQEBBQADggEPADCCAQoCggEBANUGBUL3X/vYz5yAAP83E7Zj3VnmCt4g6dvF62Qq
fLVaZoiylQ3et72AoZNEJzqXWhtXIdCIfGSgZKDG8bGNOsFh23HN6FedK1htKVxi
A8ORUD+QAvVq3BiaL/tCHrlQKdzvaiycJmN8jCI+Y9yWBMJirbn12vg5dEV2eL2n
AFl3OUcoyX6ZaNA1Sko37QCtK2k8uMD2TYjbICvRDu21yr0K0DltAskZmqgNtWUW
u0UMn61IpTMA2Y7+4rJXJpB4kKzMqPLULgExcCwNlsVoZEq10KSBHLoLbEQSjaLn
D+Thpl0jWv5OfS/r0zd7Q+UKde/KEYxjmhxLBABK1YiHmzsCAwEAAaOBvTCBujAJ
BgNVHRMEAjAAMB0GA1UdDgQWBBQVxBKUmlMqKTnE/Sfuync9Mk9biDBRBgNVHSME
SjBIgBTZpL8LRtLIV8FZjtTUGHIXCyApEKEapBgwFjEUMBIGA1UEAwwLdGVhbTE2
Ny1uZXSCFGzZB/UxQw24+HW+XNi6lg3nAL2uMBMGA1UdJQQMMAoGCCsGAQUFBwMB
MAsGA1UdDwQEAwIFoDAZBgNVHREEEjAQgg50ZWFtMTY3LXNlcnZlcjANBgkqhkiG
9w0BAQsFAAOCAQEAbMAyLBqnGQvMkMtzHmYFDoA+o+8v+wpTzTEjno+MrWMzAdW7
P35DXzYyGwnr6DHqlc4STNKBBQ8YqqkE+Avh8rH+TNXX7FLxEj5B/0ABxXrbpaa/
4Z6nO2GsMe1xgI9yLm9ME+yKmG840k4F/c4RjBwU9wtU3jbF3d9qaFhafhuu+3TC
CiGqBydUp0HdtDDvKrLvW+mbFOCufyVu18EMoEb1HCfbUNMlUH72zGioehmncOBd
viG/QKDERzWOxbp2fOw2gsew3A9DpBUlLC1kwzo/fa//LLpzpoDZDUEvCNKgzr2v
dnkh0DMkovowVkbaDIEnBGidi9rH/kmIAazH6w==
-----END CERTIFICATE-----
