Certificate:
    Data:
        Version: 3 (0x2)
        Serial Number:
            60:36:09:a7:42:c0:4f:f8:39:f3:a6:3a:2d:43:63:01
        Signature Algorithm: sha256WithRSAEncryption
        Issuer: CN=team338-net
        Validity
            Not Before: Nov  3 20:45:28 2023 GMT
            Not After : Oct 18 20:45:28 2026 GMT
        Subject: CN=team338-server
        Subject Public Key Info:
            Public Key Algorithm: rsaEncryption
                Public-Key: (2048 bit)
                Modulus:
                    00:ae:26:37:aa:0d:37:5c:55:27:d9:29:57:bc:e6:
                    69:1f:ae:79:a2:e0:ad:3e:2d:4f:3b:8e:b6:d8:ac:
                    cc:b3:1a:e7:65:2d:d9:f6:ba:36:5f:34:fe:2f:ba:
                    6e:7e:21:53:b8:d9:65:74:69:a8:41:59:79:51:53:
                    bb:63:5e:a2:e1:b9:07:9d:2e:0e:ce:4e:47:37:4b:
                    72:41:25:07:99:bd:3a:12:ae:8d:a6:a9:56:5d:2d:
                    04:07:ec:23:8d:56:08:1a:3c:f1:7b:f8:84:8f:55:
                    23:e2:30:94:82:ae:6c:51:f4:55:a1:f3:41:5a:c0:
                    f7:b2:ee:ba:32:96:c7:f8:1f:c9:d6:a5:38:b4:18:
                    73:19:08:87:1f:6e:be:57:94:77:91:3f:40:df:85:
                    09:b4:ee:5d:81:46:72:77:f9:ea:cd:dd:7b:a4:bb:
                    ba:42:d6:28:f4:8f:0b:89:e1:38:e0:8f:98:4e:3a:
                    c2:c3:b3:a8:33:84:0b:4d:ab:5e:bb:d6:87:0b:c0:
                    15:b1:78:e2:c4:cf:e3:9d:0a:67:95:44:e5:e0:8f:
                    28:04:47:6d:0f:06:9e:47:cf:6a:8c:22:e7:6a:1a:
                    36:79:e5:35:2a:48:9c:69:fd:43:f3:8d:3a:31:f7:
                    ce:e6:a7:f9:f6:32:9b:49:fb:82:fa:7d:16:15:65:
                    a5:d5
                Exponent: 65537 (0x10001)
        X509v3 extensions:
            X509v3 Basic Constraints: 
                CA:FALSE
            X509v3 Subject Key Identifier: 
                54:81:73:1F:9C:16:79:11:4A:F9:C1:C7:E5:00:64:84:68:FD:C2:26
            X509v3 Authority Key Identifier: 
                keyid:F8:06:1C:CA:49:B1:48:89:E2:44:5A:40:5B:60:27:29:B0:E2:D1:12
                DirName:/CN=team338-net
                serial:6C:30:B9:53:C4:DD:05:FE:10:0A:5D:5F:88:93:D7:16:78:88:7E:FD
            X509v3 Extended Key Usage: 
                TLS Web Server Authentication
            X509v3 Key Usage: 
                Digital Signature, Key Encipherment
            X509v3 Subject Alternative Name: 
                DNS:team338-server
    Signature Algorithm: sha256WithRSAEncryption
    Signature Value:
        98:d3:7d:f2:e7:02:72:3e:89:51:8b:34:00:a4:d9:21:6a:ea:
        c1:cb:91:45:79:93:67:b2:da:56:fc:74:9a:36:2b:5f:0d:2c:
        12:0c:c8:4b:df:04:58:f5:d4:da:5d:a0:46:5c:e9:d0:e0:d5:
        c2:1f:cd:5d:d3:be:bf:a3:bc:2b:d2:29:4f:c6:6b:7b:82:9b:
        fe:61:04:f7:47:fa:1b:d5:f7:2b:eb:60:aa:b7:e7:28:c5:a7:
        62:34:c5:39:9c:09:47:7b:b3:97:78:1f:32:05:53:fd:45:ff:
        b6:4f:75:bf:69:03:aa:d3:92:66:48:61:f3:2f:1f:1c:ce:f0:
        d6:c2:8d:82:de:d0:87:63:8f:33:28:5e:a3:2a:48:72:d6:96:
        a7:5d:35:10:b2:6c:5b:76:bc:22:5c:8a:2e:6b:6e:2d:de:c9:
        b5:99:45:7b:39:9d:f1:0c:cc:6c:57:ae:29:a1:c2:62:bd:81:
        cf:0a:26:1e:2f:3b:73:41:33:f3:23:02:3c:c5:2a:10:00:23:
        c7:12:f1:22:df:e6:2d:85:4c:76:70:33:82:d0:c6:e4:6a:c0:
        ea:f0:a0:4c:8f:70:13:1b:ef:76:e2:41:89:96:f8:d0:4f:c3:
        72:af:11:c7:7d:16:84:44:52:c4:31:c3:31:a2:2d:91:66:a2:
        d8:bb:19:7c
-----BEGIN CERTIFICATE-----
MIIDdzCCAl+gAwIBAgIQYDYJp0LAT/g586Y6LUNjATANBgkqhkiG9w0BAQsFADAW
MRQwEgYDVQQDDAt0ZWFtMzM4LW5ldDAeFw0yMzExMDMyMDQ1MjhaFw0yNjEwMTgy
MDQ1MjhaMBkxFzAVBgNVBAMMDnRlYW0zMzgtc2VydmVyMIIBIjANBgkqhkiG9w0B
AQEFAAOCAQ8AMIIBCgKCAQEAriY3qg03XFUn2SlXvOZpH655ouCtPi1PO4622KzM
sxrnZS3Z9ro2XzT+L7pufiFTuNlldGmoQVl5UVO7Y16i4bkHnS4Ozk5HN0tyQSUH
mb06Eq6NpqlWXS0EB+wjjVYIGjzxe/iEj1Uj4jCUgq5sUfRVofNBWsD3su66MpbH
+B/J1qU4tBhzGQiHH26+V5R3kT9A34UJtO5dgUZyd/nqzd17pLu6QtYo9I8LieE4
4I+YTjrCw7OoM4QLTateu9aHC8AVsXjixM/jnQpnlUTl4I8oBEdtDwaeR89qjCLn
aho2eeU1Kkicaf1D8406MffO5qf59jKbSfuC+n0WFWWl1QIDAQABo4G9MIG6MAkG
A1UdEwQCMAAwHQYDVR0OBBYEFFSBcx+cFnkRSvnBx+UAZIRo/cImMFEGA1UdIwRK
MEiAFPgGHMpJsUiJ4kRaQFtgJymw4tESoRqkGDAWMRQwEgYDVQQDDAt0ZWFtMzM4
LW5ldIIUbDC5U8TdBf4QCl1fiJPXFniIfv0wEwYDVR0lBAwwCgYIKwYBBQUHAwEw
CwYDVR0PBAQDAgWgMBkGA1UdEQQSMBCCDnRlYW0zMzgtc2VydmVyMA0GCSqGSIb3
DQEBCwUAA4IBAQCY033y5wJyPolRizQApNkhaurBy5FFeZNnstpW/HSaNitfDSwS
DMhL3wRY9dTaXaBGXOnQ4NXCH81d076/o7wr0ilPxmt7gpv+YQT3R/ob1fcr62Cq
t+coxadiNMU5nAlHe7OXeB8yBVP9Rf+2T3W/aQOq05JmSGHzLx8czvDWwo2C3tCH
Y48zKF6jKkhy1panXTUQsmxbdrwiXIoua24t3sm1mUV7OZ3xDMxsV64pocJivYHP
CiYeLztzQTPzIwI8xSoQACPHEvEi3+YthUx2cDOC0MbkasDq8KBMj3ATG+924kGJ
lvjQT8NyrxHHfRaERFLEMcMxoi2RZqLYuxl8
-----END CERTIFICATE-----
