Certificate:
    Data:
        Version: 3 (0x2)
        Serial Number:
            69:cb:c4:8f:26:a4:34:aa:15:61:56:f1:bd:b2:6b:08
        Signature Algorithm: sha256WithRSAEncryption
        Issuer: CN=team338-net
        Validity
            Not Before: Nov  4 10:46:48 2023 GMT
            Not After : Oct 19 10:46:48 2026 GMT
        Subject: CN=team338-client
        Subject Public Key Info:
            Public Key Algorithm: rsaEncryption
                Public-Key: (2048 bit)
                Modulus:
                    00:ac:76:50:7c:c0:88:ed:d1:08:f8:7d:0a:27:42:
                    ca:48:5e:85:e3:5c:0a:f9:25:97:c1:d5:be:c9:29:
                    96:88:f3:ae:f5:1d:e4:8b:4a:71:5f:2a:7f:40:51:
                    ad:ab:54:8e:21:06:8b:a8:02:bd:2d:30:a2:a1:66:
                    46:a6:8d:af:45:fa:4a:08:78:49:1b:df:0c:b8:a4:
                    04:eb:c3:34:38:1f:ff:cd:48:ac:4f:1a:95:e2:90:
                    e7:c8:9c:35:7c:28:82:b8:40:54:f8:1e:e1:46:71:
                    c2:87:98:d7:19:63:d4:77:db:b4:d2:d5:07:ae:02:
                    c6:50:be:80:d4:57:76:75:2c:33:57:ac:b2:b0:60:
                    18:db:4b:a2:f8:8e:6d:9b:d6:72:fb:45:a4:24:46:
                    e5:e9:64:26:a9:dd:84:22:24:e2:26:cf:6c:fe:73:
                    61:b9:8b:09:8d:89:71:ea:06:30:3c:46:b3:4b:d5:
                    2d:34:0e:35:ff:81:01:6f:ce:68:46:fb:a1:b0:e5:
                    f2:86:45:9e:c1:e6:60:0f:83:99:5a:5b:c4:dc:db:
                    58:76:a7:22:1a:f8:ca:7c:cf:1d:11:b8:ce:8e:46:
                    8f:31:48:1b:56:b2:e3:d1:79:73:c0:2b:57:13:1e:
                    07:1e:f3:dd:a5:70:fc:0f:eb:03:82:67:aa:c2:fb:
                    4a:65
                Exponent: 65537 (0x10001)
        X509v3 extensions:
            X509v3 Basic Constraints: 
                CA:FALSE
            X509v3 Subject Key Identifier: 
                54:2B:D7:68:CE:F4:2B:62:A2:81:9C:F6:87:37:A0:C6:8D:D0:B1:60
            X509v3 Authority Key Identifier: 
                keyid:9E:D9:4A:E3:EC:43:E0:3F:D4:33:B9:11:5F:D8:3D:1B:15:81:9C:B1
                DirName:/CN=team338-net
                serial:36:12:DE:92:96:E2:57:3D:2F:CD:6C:3A:DF:2A:5B:0A:CC:AB:76:D7
            X509v3 Extended Key Usage: 
                TLS Web Client Authentication
            X509v3 Key Usage: 
                Digital Signature
    Signature Algorithm: sha256WithRSAEncryption
    Signature Value:
        7a:5d:60:21:26:ce:ff:46:45:0a:e6:1b:70:82:14:53:0f:d7:
        08:4c:3b:05:41:03:46:23:aa:7b:90:f9:e9:d1:56:94:d8:c1:
        3f:d4:4c:cf:17:66:c7:fc:d9:9f:f3:53:ee:42:86:66:09:f3:
        0b:b4:ed:8b:62:7a:6a:55:7f:59:3a:ae:a9:0c:d3:96:96:a0:
        94:35:46:cd:5e:d7:3c:5c:ff:44:43:99:a8:be:db:f5:37:32:
        91:ef:95:74:b4:6a:fa:03:35:44:14:27:49:59:4c:14:df:65:
        d4:bc:82:fd:c5:96:3a:e7:56:bc:ba:e1:64:47:0c:47:b1:90:
        30:c0:7d:23:4d:53:eb:aa:21:d0:c8:66:c6:f9:0d:1f:43:c5:
        b3:ab:46:db:b2:9c:47:fc:f9:c4:b3:98:76:5f:94:4a:63:0a:
        c0:f6:51:75:10:08:8a:f6:82:9e:11:8c:8d:1f:8e:8d:e1:57:
        32:a6:0d:d8:7a:a0:89:99:8b:6f:13:62:ed:5a:4f:7e:84:5f:
        18:e1:9f:d8:53:d6:7a:81:f2:a1:e8:a6:2a:21:53:d7:2a:df:
        c6:bf:4d:de:6d:0a:ad:c0:4c:e4:d1:57:cc:21:f3:00:59:9e:
        aa:d2:a8:e4:22:fc:31:c5:b4:48:37:36:6e:06:14:f4:25:cf:
        f5:dc:db:6f
-----BEGIN CERTIFICATE-----
MIIDXDCCAkSgAwIBAgIQacvEjyakNKoVYVbxvbJrCDANBgkqhkiG9w0BAQsFADAW
MRQwEgYDVQQDDAt0ZWFtMzM4LW5ldDAeFw0yMzExMDQxMDQ2NDhaFw0yNjEwMTkx
MDQ2NDhaMBkxFzAVBgNVBAMMDnRlYW0zMzgtY2xpZW50MIIBIjANBgkqhkiG9w0B
AQEFAAOCAQ8AMIIBCgKCAQEArHZQfMCI7dEI+H0KJ0LKSF6F41wK+SWXwdW+ySmW
iPOu9R3ki0pxXyp/QFGtq1SOIQaLqAK9LTCioWZGpo2vRfpKCHhJG98MuKQE68M0
OB//zUisTxqV4pDnyJw1fCiCuEBU+B7hRnHCh5jXGWPUd9u00tUHrgLGUL6A1Fd2
dSwzV6yysGAY20ui+I5tm9Zy+0WkJEbl6WQmqd2EIiTiJs9s/nNhuYsJjYlx6gYw
PEazS9UtNA41/4EBb85oRvuhsOXyhkWeweZgD4OZWlvE3NtYdqciGvjKfM8dEbjO
jkaPMUgbVrLj0XlzwCtXEx4HHvPdpXD8D+sDgmeqwvtKZQIDAQABo4GiMIGfMAkG
A1UdEwQCMAAwHQYDVR0OBBYEFFQr12jO9CtiooGc9oc3oMaN0LFgMFEGA1UdIwRK
MEiAFJ7ZSuPsQ+A/1DO5EV/YPRsVgZyxoRqkGDAWMRQwEgYDVQQDDAt0ZWFtMzM4
LW5ldIIUNhLekpbiVz0vzWw63ypbCsyrdtcwEwYDVR0lBAwwCgYIKwYBBQUHAwIw
CwYDVR0PBAQDAgeAMA0GCSqGSIb3DQEBCwUAA4IBAQB6XWAhJs7/RkUK5htwghRT
D9cITDsFQQNGI6p7kPnp0VaU2ME/1EzPF2bH/Nmf81PuQoZmCfMLtO2LYnpqVX9Z
Oq6pDNOWlqCUNUbNXtc8XP9EQ5movtv1NzKR75V0tGr6AzVEFCdJWUwU32XUvIL9
xZY651a8uuFkRwxHsZAwwH0jTVPrqiHQyGbG+Q0fQ8Wzq0bbspxH/PnEs5h2X5RK
YwrA9lF1EAiK9oKeEYyNH46N4Vcypg3YeqCJmYtvE2LtWk9+hF8Y4Z/YU9Z6gfKh
6KYqIVPXKt/Gv03ebQqtwEzk0VfMIfMAWZ6q0qjkIvwxxbRINzZuBhT0Jc/13Ntv
-----END CERTIFICATE-----
