Certificate:
    Data:
        Version: 3 (0x2)
        Serial Number:
            a4:47:67:aa:6f:40:70:34:10:70:6a:9e:ad:bd:27:f9
        Signature Algorithm: sha256WithRSAEncryption
        Issuer: CN=team338-net
        Validity
            Not Before: Nov  4 10:46:48 2023 GMT
            Not After : Oct 19 10:46:48 2026 GMT
        Subject: CN=team338-server
        Subject Public Key Info:
            Public Key Algorithm: rsaEncryption
                Public-Key: (2048 bit)
                Modulus:
                    00:b4:45:5f:83:df:6a:3a:3b:51:43:b8:96:ad:21:
                    41:ef:3f:18:e0:b5:e0:d6:a9:dd:76:04:e1:8b:41:
                    fb:d6:ba:01:03:0c:2e:7a:b0:8d:b3:17:78:2f:cd:
                    04:7d:2e:63:13:76:e1:ba:73:f0:80:3e:29:f9:d9:
                    81:6c:ba:7b:ea:bb:83:41:ab:02:01:72:b6:62:3c:
                    14:7d:96:b5:2e:13:32:e5:83:9a:f1:25:05:89:69:
                    80:01:56:71:d0:51:28:34:c6:c4:cb:6b:4b:a3:da:
                    fd:55:88:5f:b8:f5:50:b6:a4:95:c9:e5:91:dc:90:
                    00:70:e3:83:d9:ec:91:ac:c3:99:04:fc:b3:22:82:
                    4b:6f:07:15:7c:fe:26:b5:3b:8e:ad:38:f3:2e:31:
                    21:41:cc:55:08:42:18:72:0b:a7:5f:66:97:a8:2b:
                    fe:3c:7d:d3:88:e6:3a:eb:d4:0c:35:32:30:86:b6:
                    f4:bc:fd:ba:3d:94:28:ff:01:9a:f0:bc:36:f8:83:
                    8b:23:c8:da:da:52:4a:54:9c:ef:1f:84:fe:97:f6:
                    65:b4:fd:5b:c3:0c:e2:e9:76:13:81:7b:cd:2f:b5:
                    53:41:37:f6:ed:10:8d:fe:89:2d:9e:db:94:5c:b5:
                    5c:e0:38:4e:53:fd:ec:d0:66:d1:0a:e6:2d:2c:5c:
                    2f:b1
                Exponent: 65537 (0x10001)
        X509v3 extensions:
            X509v3 Basic Constraints: 
                CA:FALSE
            X509v3 Subject Key Identifier: 
                81:08:F4:A3:3B:0F:8F:A5:BD:D0:D0:86:70:18:BF:77:CD:68:67:2F
            X509v3 Authority Key Identifier: 
                keyid:9E:D9:4A:E3:EC:43:E0:3F:D4:33:B9:11:5F:D8:3D:1B:15:81:9C:B1
                DirName:/CN=team338-net
                serial:36:12:DE:92:96:E2:57:3D:2F:CD:6C:3A:DF:2A:5B:0A:CC:AB:76:D7
            X509v3 Extended Key Usage: 
                TLS Web Server Authentication
            X509v3 Key Usage: 
                Digital Signature, Key Encipherment
            X509v3 Subject Alternative Name: 
                DNS:team338-server
    Signature Algorithm: sha256WithRSAEncryption
    Signature Value:
        24:57:67:45:44:ed:2e:ee:22:e2:41:bb:2c:e7:80:e2:b8:03:
        2b:75:0d:31:11:7d:ca:50:7a:12:89:c5:b8:dc:4a:e9:44:77:
        9a:9f:22:d1:ce:ba:c5:0e:c5:39:32:a2:a2:37:1c:79:61:c8:
        17:a3:d4:46:c1:11:8a:0f:d9:70:41:5f:56:12:5a:92:71:7f:
        57:76:8d:65:1f:b0:fc:ad:f6:17:f7:2d:a2:85:72:e4:46:7f:
        0a:4a:84:fe:e9:cd:19:82:96:74:d9:ad:cc:32:9d:66:bc:9c:
        23:f9:7d:a0:a9:d1:a8:18:60:13:71:4b:f7:e8:38:68:54:e3:
        12:1e:09:4d:d2:81:bd:e3:9e:6d:06:ba:34:ec:b8:de:34:a9:
        b0:58:b4:1c:11:4e:57:49:43:e1:19:9f:6b:c8:3b:7b:bd:0a:
        a0:53:c6:49:dd:8a:c7:4c:29:9b:8b:ba:ce:05:c9:ef:19:dc:
        b4:0b:02:ef:08:a6:c7:38:e0:81:25:7e:27:15:e0:fe:aa:b1:
        0f:d4:95:9d:90:d7:9a:39:a0:0a:eb:d5:31:81:ad:c8:11:73:
        52:5a:b5:79:36:ae:b6:b4:77:22:eb:5d:92:59:b0:ce:0b:32:
        e6:8f:d5:43:9c:59:34:0f:ca:af:10:fa:48:d2:14:b9:ff:4b:
        d3:5c:9a:6a
-----BEGIN CERTIFICATE-----
MIIDeDCCAmCgAwIBAgIRAKRHZ6pvQHA0EHBqnq29J/kwDQYJKoZIhvcNAQELBQAw
FjEUMBIGA1UEAwwLdGVhbTMzOC1uZXQwHhcNMjMxMTA0MTA0NjQ4WhcNMjYxMDE5
MTA0NjQ4WjAZMRcwFQYDVQQDDA50ZWFtMzM4LXNlcnZlcjCCASIwDQYJKoZIhvcN
AQEBBQADggEPADCCAQoCggEBALRFX4Pfajo7UUO4lq0hQe8/GOC14Nap3XYE4YtB
+9a6AQMMLnqwjbMXeC/NBH0uYxN24bpz8IA+KfnZgWy6e+q7g0GrAgFytmI8FH2W
tS4TMuWDmvElBYlpgAFWcdBRKDTGxMtrS6Pa/VWIX7j1ULaklcnlkdyQAHDjg9ns
kazDmQT8syKCS28HFXz+JrU7jq048y4xIUHMVQhCGHILp19ml6gr/jx904jmOuvU
DDUyMIa29Lz9uj2UKP8BmvC8NviDiyPI2tpSSlSc7x+E/pf2ZbT9W8MM4ul2E4F7
zS+1U0E39u0Qjf6JLZ7blFy1XOA4TlP97NBm0QrmLSxcL7ECAwEAAaOBvTCBujAJ
BgNVHRMEAjAAMB0GA1UdDgQWBBSBCPSjOw+Ppb3Q0IZwGL93zWhnLzBRBgNVHSME
SjBIgBSe2Urj7EPgP9QzuRFf2D0bFYGcsaEapBgwFjEUMBIGA1UEAwwLdGVhbTMz
OC1uZXSCFDYS3pKW4lc9L81sOt8qWwrMq3bXMBMGA1UdJQQMMAoGCCsGAQUFBwMB
MAsGA1UdDwQEAwIFoDAZBgNVHREEEjAQgg50ZWFtMzM4LXNlcnZlcjANBgkqhkiG
9w0BAQsFAAOCAQEAJFdnRUTtLu4i4kG7LOeA4rgDK3UNMRF9ylB6EonFuNxK6UR3
mp8i0c66xQ7FOTKiojcceWHIF6PURsERig/ZcEFfVhJaknF/V3aNZR+w/K32F/ct
ooVy5EZ/CkqE/unNGYKWdNmtzDKdZrycI/l9oKnRqBhgE3FL9+g4aFTjEh4JTdKB
veOebQa6NOy43jSpsFi0HBFOV0lD4Rmfa8g7e70KoFPGSd2Kx0wpm4u6zgXJ7xnc
tAsC7wimxzjggSV+JxXg/qqxD9SVnZDXmjmgCuvVMYGtyBFzUlq1eTautrR3Iutd
klmwzgsy5o/VQ5xZNA/KrxD6SNIUuf9L01yaag==
-----END CERTIFICATE-----
