Certificate:
    Data:
        Version: 3 (0x2)
        Serial Number:
            e4:89:d3:a8:eb:35:5f:cf:c5:00:dc:1a:12:4f:4c:9c
        Signature Algorithm: sha256WithRSAEncryption
        Issuer: CN=team338-net
        Validity
            Not Before: Nov  3 20:45:28 2023 GMT
            Not After : Oct 18 20:45:28 2026 GMT
        Subject: CN=team338-client
        Subject Public Key Info:
            Public Key Algorithm: rsaEncryption
                Public-Key: (2048 bit)
                Modulus:
                    00:ad:94:c3:cf:2d:fd:ef:2d:11:0c:78:42:07:66:
                    89:85:af:0c:fd:81:79:bc:53:35:2e:4e:49:d7:67:
                    1d:5b:67:b6:15:be:0f:5f:f7:fe:9e:be:5b:3d:f6:
                    7f:ac:8d:a2:37:54:aa:95:2e:fa:77:39:0c:d0:25:
                    5c:76:87:ac:48:78:0a:9c:69:70:a5:c0:09:24:3f:
                    c7:3a:83:0e:8c:7b:e2:32:6d:b9:36:de:b3:89:aa:
                    f3:93:e4:3d:2e:ee:19:cd:46:33:41:84:91:f1:54:
                    c0:a6:84:b0:10:a1:49:25:dd:99:44:1e:51:79:3d:
                    de:d3:69:bf:ac:5c:08:fc:65:d6:f1:f5:9d:25:21:
                    6d:6a:ae:cc:eb:c6:d7:b3:4f:84:8d:4d:87:66:a9:
                    7b:d9:7d:0a:f3:76:5a:ad:8d:bd:fa:ff:9b:fc:cf:
                    f1:db:f6:3f:14:3a:e6:b7:16:b4:c7:99:22:87:d1:
                    50:7a:7d:e9:e4:df:62:17:7d:73:17:9a:ac:14:c9:
                    3e:b4:43:80:92:18:b9:d4:09:12:f9:11:94:48:4e:
                    5d:a1:d8:f5:8b:34:6d:e5:7a:52:25:79:f4:f0:f3:
                    23:09:61:92:83:7a:01:c6:a1:58:48:11:5f:a2:b6:
                    f4:c8:24:ee:2f:af:a4:ac:38:f4:d8:28:4b:ea:f9:
                    21:af
                Exponent: 65537 (0x10001)
        X509v3 extensions:
            X509v3 Basic Constraints: 
                CA:FALSE
            X509v3 Subject Key Identifier: 
                F4:26:9C:2F:FF:1F:07:A4:FF:05:D8:52:2C:E5:50:04:A9:D1:72:64
            X509v3 Authority Key Identifier: 
                keyid:F8:06:1C:CA:49:B1:48:89:E2:44:5A:40:5B:60:27:29:B0:E2:D1:12
                DirName:/CN=team338-net
                serial:6C:30:B9:53:C4:DD:05:FE:10:0A:5D:5F:88:93:D7:16:78:88:7E:FD
            X509v3 Extended Key Usage: 
                TLS Web Client Authentication
            X509v3 Key Usage: 
                Digital Signature
    Signature Algorithm: sha256WithRSAEncryption
    Signature Value:
        6f:85:e7:de:03:76:72:5c:f7:e8:1b:e4:bf:45:1c:83:fb:d5:
        4d:44:be:7f:a0:50:38:9e:e6:42:81:9e:6c:ea:33:2d:5d:93:
        e9:18:b3:38:58:03:ff:2c:dc:6e:82:75:44:73:db:6d:4c:4c:
        8b:41:69:0f:37:80:73:b7:6a:4c:39:d8:ca:b7:48:31:86:5a:
        d0:c5:32:28:7e:84:5b:e9:74:28:bd:38:4d:dc:0a:ab:dd:ab:
        1b:2f:a3:fe:f1:13:25:06:d0:44:16:e9:4f:e8:46:3a:be:e3:
        89:31:cd:68:f3:8b:30:9a:96:31:9c:49:39:3e:07:81:cd:73:
        b2:3a:86:b0:72:52:ed:d2:75:62:d5:db:bf:14:05:8d:57:27:
        9f:ca:ee:92:bb:8f:1a:0e:e7:9f:27:ee:7e:1b:9a:6d:90:32:
        8c:34:11:e6:3a:0f:7e:a4:08:35:19:33:3f:9c:cb:7d:78:5b:
        6d:11:df:90:ac:fc:ed:c2:e8:3e:c2:06:e9:77:60:4a:ff:3f:
        50:57:3d:b6:5b:e5:0d:a1:b7:0e:7f:95:ea:79:2b:83:ae:fb:
        52:86:14:19:48:dd:10:57:ee:01:ef:b3:13:f6:85:df:26:18:
        ef:3d:89:f5:d0:a1:3a:df:47:40:b4:3d:70:32:c5:67:22:62:
        c9:4a:d4:4c
-----BEGIN CERTIFICATE-----
MIIDXTCCAkWgAwIBAgIRAOSJ06jrNV/PxQDcGhJPTJwwDQYJKoZIhvcNAQELBQAw
FjEUMBIGA1UEAwwLdGVhbTMzOC1uZXQwHhcNMjMxMTAzMjA0NTI4WhcNMjYxMDE4
MjA0NTI4WjAZMRcwFQYDVQQDDA50ZWFtMzM4LWNsaWVudDCCASIwDQYJKoZIhvcN
AQEBBQADggEPADCCAQoCggEBAK2Uw88t/e8tEQx4QgdmiYWvDP2BebxTNS5OSddn
HVtnthW+D1/3/p6+Wz32f6yNojdUqpUu+nc5DNAlXHaHrEh4CpxpcKXACSQ/xzqD
Dox74jJtuTbes4mq85PkPS7uGc1GM0GEkfFUwKaEsBChSSXdmUQeUXk93tNpv6xc
CPxl1vH1nSUhbWquzOvG17NPhI1Nh2ape9l9CvN2Wq2Nvfr/m/zP8dv2PxQ65rcW
tMeZIofRUHp96eTfYhd9cxearBTJPrRDgJIYudQJEvkRlEhOXaHY9Ys0beV6UiV5
9PDzIwlhkoN6AcahWEgRX6K29Mgk7i+vpKw49NgoS+r5Ia8CAwEAAaOBojCBnzAJ
BgNVHRMEAjAAMB0GA1UdDgQWBBT0Jpwv/x8HpP8F2FIs5VAEqdFyZDBRBgNVHSME
SjBIgBT4BhzKSbFIieJEWkBbYCcpsOLREqEapBgwFjEUMBIGA1UEAwwLdGVhbTMz
OC1uZXSCFGwwuVPE3QX+EApdX4iT1xZ4iH79MBMGA1UdJQQMMAoGCCsGAQUFBwMC
MAsGA1UdDwQEAwIHgDANBgkqhkiG9w0BAQsFAAOCAQEAb4Xn3gN2clz36Bvkv0Uc
g/vVTUS+f6BQOJ7mQoGebOozLV2T6RizOFgD/yzcboJ1RHPbbUxMi0FpDzeAc7dq
TDnYyrdIMYZa0MUyKH6EW+l0KL04TdwKq92rGy+j/vETJQbQRBbpT+hGOr7jiTHN
aPOLMJqWMZxJOT4Hgc1zsjqGsHJS7dJ1YtXbvxQFjVcnn8rukruPGg7nnyfufhua
bZAyjDQR5joPfqQINRkzP5zLfXhbbRHfkKz87cLoPsIG6XdgSv8/UFc9tlvlDaG3
Dn+V6nkrg677UoYUGUjdEFfuAe+zE/aF3yYY7z2J9dChOt9HQLQ9cDLFZyJiyUrU
TA==
-----END CERTIFICATE-----
