Certificate:
    Data:
        Version: 3 (0x2)
        Serial Number:
            8d:84:21:fe:c3:4c:8e:d6:64:6c:d1:bd:3f:53:b1:3e
        Signature Algorithm: sha256WithRSAEncryption
        Issuer: CN=team153-net
        Validity
            Not Before: Nov  3 20:41:58 2023 GMT
            Not After : Oct 18 20:41:58 2026 GMT
        Subject: CN=team153-server
        Subject Public Key Info:
            Public Key Algorithm: rsaEncryption
                Public-Key: (2048 bit)
                Modulus:
                    00:dd:5d:b2:a9:cc:4e:63:5d:70:f0:af:49:ec:02:
                    94:98:37:a4:cb:51:ca:ca:0a:fd:30:96:06:e7:ec:
                    d5:e6:d7:ad:c4:d0:d8:53:cf:a8:f6:95:e5:da:99:
                    0d:30:61:3c:8e:24:f5:8e:49:a7:3c:f8:9a:74:c5:
                    53:6d:90:e7:ff:07:74:4c:45:0d:04:22:59:87:e6:
                    84:7c:a9:f0:d2:b3:07:95:4b:00:0c:91:4f:69:03:
                    61:40:50:49:cc:c2:da:9c:9e:5a:60:a2:a4:6f:d0:
                    a3:2b:b0:61:ae:34:96:2c:56:c1:a4:01:1d:af:86:
                    42:fb:b4:04:7b:42:db:2a:40:85:0a:4b:87:09:0d:
                    91:e8:93:02:b5:6d:11:e6:19:96:30:e4:a0:46:c5:
                    db:32:bf:ba:4e:97:1b:29:a1:4d:80:5a:45:5f:22:
                    cb:9b:59:01:3d:60:9d:92:96:a2:4c:50:d9:2d:c8:
                    7d:16:fe:6e:2c:76:b5:03:5a:e9:66:40:0c:24:66:
                    19:75:dd:30:a7:3d:4b:1d:81:62:3a:95:b0:a6:c0:
                    55:e9:74:e8:83:78:cd:f2:08:de:e1:15:40:4f:cc:
                    d5:a4:91:e0:85:5d:9a:13:a4:cb:d8:4d:0a:ea:55:
                    42:de:75:c7:54:dc:72:3e:f5:75:ae:8d:81:c6:74:
                    c6:65
                Exponent: 65537 (0x10001)
        X509v3 extensions:
            X509v3 Basic Constraints: 
                CA:FALSE
            X509v3 Subject Key Identifier: 
                4B:A7:BC:20:64:F9:94:5F:38:FD:40:91:DD:83:6B:C1:14:DA:65:41
            X509v3 Authority Key Identifier: 
                keyid:46:E6:CE:0F:52:A6:57:25:D0:1D:B7:13:49:DF:47:C1:AF:1C:C2:8D
                DirName:/CN=team153-net
                serial:24:1E:FF:6D:E1:C5:1B:4F:67:A9:51:66:E1:F6:18:6A:7C:4F:46:30
            X509v3 Extended Key Usage: 
                TLS Web Server Authentication
            X509v3 Key Usage: 
                Digital Signature, Key Encipherment
            X509v3 Subject Alternative Name: 
                DNS:team153-server
    Signature Algorithm: sha256WithRSAEncryption
    Signature Value:
        83:2d:2a:17:26:84:a5:d1:e6:d3:2d:1c:3c:3b:a0:8f:b3:be:
        e7:1c:f6:ae:ed:2c:61:c4:b9:15:ba:bf:45:74:47:0e:69:23:
        a9:0f:d6:dc:62:97:40:4b:b3:2a:0f:96:c7:68:7c:1e:46:45:
        ec:67:31:14:54:92:e2:7e:53:76:f3:7d:43:ca:93:66:d4:a5:
        65:07:19:d4:be:3d:5e:fb:90:ea:b6:61:fd:9e:c9:d9:a2:e3:
        c9:30:f1:92:a0:ef:99:56:25:4a:05:b9:10:87:76:01:21:ff:
        e7:79:a2:66:27:83:7f:16:74:0d:6b:9c:99:83:48:c6:91:07:
        11:57:1f:ae:c2:32:29:51:5d:b3:95:cd:39:53:b4:c2:4e:0c:
        0e:38:f8:d5:c3:8d:89:45:cb:75:bc:2c:99:c9:b3:d4:84:e9:
        15:dd:5c:46:11:17:98:6e:7e:34:c2:30:97:49:31:22:17:59:
        6a:09:09:08:d6:0a:bf:f7:a5:5d:da:8f:f0:ff:32:a9:a4:07:
        62:6c:8d:b9:67:17:1a:4f:95:f7:72:b2:79:66:80:79:98:45:
        8d:20:52:20:c8:81:2f:09:50:23:34:4d:86:30:42:02:b6:fa:
        d3:e3:99:dc:8a:fa:8e:65:29:01:e7:a6:b1:6b:8f:47:70:9b:
        41:2f:b8:03
-----BEGIN CERTIFICATE-----
MIIDeDCCAmCgAwIBAgIRAI2EIf7DTI7WZGzRvT9TsT4wDQYJKoZIhvcNAQELBQAw
FjEUMBIGA1UEAwwLdGVhbTE1My1uZXQwHhcNMjMxMTAzMjA0MTU4WhcNMjYxMDE4
MjA0MTU4WjAZMRcwFQYDVQQDDA50ZWFtMTUzLXNlcnZlcjCCASIwDQYJKoZIhvcN
AQEBBQADggEPADCCAQoCggEBAN1dsqnMTmNdcPCvSewClJg3pMtRysoK/TCWBufs
1ebXrcTQ2FPPqPaV5dqZDTBhPI4k9Y5Jpzz4mnTFU22Q5/8HdExFDQQiWYfmhHyp
8NKzB5VLAAyRT2kDYUBQSczC2pyeWmCipG/QoyuwYa40lixWwaQBHa+GQvu0BHtC
2ypAhQpLhwkNkeiTArVtEeYZljDkoEbF2zK/uk6XGymhTYBaRV8iy5tZAT1gnZKW
okxQ2S3IfRb+bix2tQNa6WZADCRmGXXdMKc9Sx2BYjqVsKbAVel06IN4zfII3uEV
QE/M1aSR4IVdmhOky9hNCupVQt51x1Tccj71da6NgcZ0xmUCAwEAAaOBvTCBujAJ
BgNVHRMEAjAAMB0GA1UdDgQWBBRLp7wgZPmUXzj9QJHdg2vBFNplQTBRBgNVHSME
SjBIgBRG5s4PUqZXJdAdtxNJ30fBrxzCjaEapBgwFjEUMBIGA1UEAwwLdGVhbTE1
My1uZXSCFCQe/23hxRtPZ6lRZuH2GGp8T0YwMBMGA1UdJQQMMAoGCCsGAQUFBwMB
MAsGA1UdDwQEAwIFoDAZBgNVHREEEjAQgg50ZWFtMTUzLXNlcnZlcjANBgkqhkiG
9w0BAQsFAAOCAQEAgy0qFyaEpdHm0y0cPDugj7O+5xz2ru0sYcS5Fbq/RXRHDmkj
qQ/W3GKXQEuzKg+Wx2h8HkZF7GcxFFSS4n5TdvN9Q8qTZtSlZQcZ1L49XvuQ6rZh
/Z7J2aLjyTDxkqDvmVYlSgW5EId2ASH/53miZieDfxZ0DWucmYNIxpEHEVcfrsIy
KVFds5XNOVO0wk4MDjj41cONiUXLdbwsmcmz1ITpFd1cRhEXmG5+NMIwl0kxIhdZ
agkJCNYKv/elXdqP8P8yqaQHYmyNuWcXGk+V93KyeWaAeZhFjSBSIMiBLwlQIzRN
hjBCArb60+OZ3Ir6jmUpAeemsWuPR3CbQS+4Aw==
-----END CERTIFICATE-----
