Certificate:
    Data:
        Version: 3 (0x2)
        Serial Number:
            23:30:f2:bc:f2:c6:9b:5c:e2:c7:bf:6e:e4:e9:6e:d4
        Signature Algorithm: sha256WithRSAEncryption
        Issuer: CN=team155-net
        Validity
            Not Before: Nov  3 20:42:00 2023 GMT
            Not After : Oct 18 20:42:00 2026 GMT
        Subject: CN=team155-client
        Subject Public Key Info:
            Public Key Algorithm: rsaEncryption
                Public-Key: (2048 bit)
                Modulus:
                    00:b2:f3:1a:9a:cc:c0:d0:4a:53:d1:04:ae:e9:87:
                    f8:3e:66:07:f2:7e:0c:6c:e6:a5:c3:41:96:39:5d:
                    b2:15:37:f7:f0:dd:bc:e6:da:42:84:96:d3:c1:06:
                    52:9b:9a:00:a3:5f:a5:b4:8d:23:ad:e4:f2:52:e3:
                    40:03:6a:c2:be:35:6f:63:70:74:18:ea:57:28:48:
                    40:a0:fc:75:6e:28:64:4a:c7:60:d1:3b:71:29:18:
                    a6:cb:11:46:eb:55:84:03:13:67:9b:e9:50:fc:76:
                    bb:ee:44:70:6f:13:39:2a:93:be:86:63:e5:c2:b5:
                    08:ee:0d:05:0a:51:b9:41:23:9c:b1:3c:d4:f1:ff:
                    73:72:0f:b0:91:29:d3:a7:76:39:65:cb:ef:6e:1f:
                    f4:13:5a:bb:6d:15:45:51:13:37:21:b3:fd:09:aa:
                    a7:6b:01:29:a3:8e:77:31:37:cb:2b:6b:9d:19:c7:
                    24:eb:2b:01:8e:f3:3b:0f:f7:29:9f:d5:d3:f7:5a:
                    9d:4c:1b:d8:68:b7:aa:fb:62:22:95:66:e5:06:f1:
                    1d:c5:aa:f1:47:b9:d4:d1:c8:f6:47:19:51:74:f1:
                    13:e0:36:98:64:dc:d4:0e:9f:65:c7:df:b8:b4:ab:
                    1e:aa:90:74:b2:79:f5:bc:5f:19:d1:83:30:87:db:
                    ac:91
                Exponent: 65537 (0x10001)
        X509v3 extensions:
            X509v3 Basic Constraints: 
                CA:FALSE
            X509v3 Subject Key Identifier: 
                A5:5D:8B:A4:9B:6F:98:E9:90:69:3D:BA:42:0D:44:2C:2F:07:4D:D3
            X509v3 Authority Key Identifier: 
                keyid:47:B0:2D:A6:A9:E3:D0:43:CB:95:8B:79:02:84:7C:BB:64:16:0C:4C
                DirName:/CN=team155-net
                serial:0C:23:B8:51:70:FF:0C:A6:CC:E8:24:FB:47:9D:DD:D3:6B:E4:DD:73
            X509v3 Extended Key Usage: 
                TLS Web Client Authentication
            X509v3 Key Usage: 
                Digital Signature
    Signature Algorithm: sha256WithRSAEncryption
    Signature Value:
        81:52:18:cf:6e:4d:10:d4:bc:4d:c6:b3:4a:7c:9b:94:de:ec:
        d9:28:08:be:05:03:8a:19:af:ae:05:11:e4:ad:4c:e7:63:20:
        95:e1:b2:d7:ed:7c:14:2d:f1:ff:aa:41:ec:2d:26:80:3f:90:
        8c:17:cc:33:1b:76:04:24:cd:86:43:4c:d7:5e:7a:58:74:85:
        d1:db:48:93:cf:bc:db:51:56:66:c2:6f:7e:28:52:b1:5d:fd:
        e8:c6:e0:f1:fd:bf:ff:f2:93:2e:e2:60:0b:2d:a8:ce:40:d6:
        67:b4:e9:a6:4c:e2:cf:e2:2b:c2:90:99:93:31:46:c0:f4:47:
        3b:7f:c6:6d:87:4d:f1:c2:cd:31:65:a4:2d:49:b6:a9:83:9e:
        78:7a:56:7a:cf:9b:dd:ec:bb:16:08:0a:7e:0e:4d:50:8d:24:
        41:16:2f:51:b9:1e:c5:0a:a2:c2:00:80:9f:f9:2d:78:df:13:
        1f:98:95:68:a0:3d:33:34:62:46:32:55:ca:26:d4:79:a9:f7:
        2c:00:8e:9a:d8:a2:88:46:48:70:80:eb:1c:6f:47:8a:71:87:
        15:58:c1:52:e4:d3:35:1c:e1:2d:76:8d:ee:dd:43:d2:fa:6f:
        b0:23:9e:87:55:ab:8e:e4:34:90:6f:c4:c6:9b:4d:df:ac:2c:
        52:4a:31:fd
-----BEGIN CERTIFICATE-----
MIIDXDCCAkSgAwIBAgIQIzDyvPLGm1zix79u5Olu1DANBgkqhkiG9w0BAQsFADAW
MRQwEgYDVQQDDAt0ZWFtMTU1LW5ldDAeFw0yMzExMDMyMDQyMDBaFw0yNjEwMTgy
MDQyMDBaMBkxFzAVBgNVBAMMDnRlYW0xNTUtY2xpZW50MIIBIjANBgkqhkiG9w0B
AQEFAAOCAQ8AMIIBCgKCAQEAsvMamszA0EpT0QSu6Yf4PmYH8n4MbOalw0GWOV2y
FTf38N285tpChJbTwQZSm5oAo1+ltI0jreTyUuNAA2rCvjVvY3B0GOpXKEhAoPx1
bihkSsdg0TtxKRimyxFG61WEAxNnm+lQ/Ha77kRwbxM5KpO+hmPlwrUI7g0FClG5
QSOcsTzU8f9zcg+wkSnTp3Y5Zcvvbh/0E1q7bRVFURM3IbP9CaqnawEpo453MTfL
K2udGcck6ysBjvM7D/cpn9XT91qdTBvYaLeq+2IilWblBvEdxarxR7nU0cj2RxlR
dPET4DaYZNzUDp9lx9+4tKseqpB0snn1vF8Z0YMwh9uskQIDAQABo4GiMIGfMAkG
A1UdEwQCMAAwHQYDVR0OBBYEFKVdi6Sbb5jpkGk9ukINRCwvB03TMFEGA1UdIwRK
MEiAFEewLaap49BDy5WLeQKEfLtkFgxMoRqkGDAWMRQwEgYDVQQDDAt0ZWFtMTU1
LW5ldIIUDCO4UXD/DKbM6CT7R53d02vk3XMwEwYDVR0lBAwwCgYIKwYBBQUHAwIw
CwYDVR0PBAQDAgeAMA0GCSqGSIb3DQEBCwUAA4IBAQCBUhjPbk0Q1LxNxrNKfJuU
3uzZKAi+BQOKGa+uBRHkrUznYyCV4bLX7XwULfH/qkHsLSaAP5CMF8wzG3YEJM2G
Q0zXXnpYdIXR20iTz7zbUVZmwm9+KFKxXf3oxuDx/b//8pMu4mALLajOQNZntOmm
TOLP4ivCkJmTMUbA9Ec7f8Zth03xws0xZaQtSbapg554elZ6z5vd7LsWCAp+Dk1Q
jSRBFi9RuR7FCqLCAICf+S143xMfmJVooD0zNGJGMlXKJtR5qfcsAI6a2KKIRkhw
gOscb0eKcYcVWMFS5NM1HOEtdo3u3UPS+m+wI56HVauO5DSQb8TGm03frCxSSjH9
-----END CERTIFICATE-----
