Certificate:
    Data:
        Version: 3 (0x2)
        Serial Number:
            4b:03:12:04:74:45:3b:b6:36:b6:e2:82:58:b0:7e:88
        Signature Algorithm: sha256WithRSAEncryption
        Issuer: CN=team155-net
        Validity
            Not Before: Nov  3 20:42:00 2023 GMT
            Not After : Oct 18 20:42:00 2026 GMT
        Subject: CN=team155-server
        Subject Public Key Info:
            Public Key Algorithm: rsaEncryption
                Public-Key: (2048 bit)
                Modulus:
                    00:a2:00:c2:3c:8a:53:7b:75:8d:72:16:de:e6:44:
                    13:4e:76:34:3c:00:21:03:5e:7d:f7:3a:7b:1d:0f:
                    fa:7c:8c:f5:ae:2c:2a:33:e3:5a:e5:1a:24:05:69:
                    d3:5d:a3:f7:13:61:c1:38:6e:74:c3:24:75:6c:ca:
                    2f:ed:9e:47:a8:61:1c:f4:a9:e1:ee:cf:5c:6e:aa:
                    3a:2f:06:71:e7:17:33:43:37:6c:60:49:bb:ed:66:
                    4a:b4:f5:3e:4c:1a:e4:9c:b5:10:a3:18:21:93:cb:
                    72:96:be:f7:43:be:6d:9c:26:96:ff:18:af:89:46:
                    f9:2f:40:34:fa:e6:a5:55:d8:8f:c8:66:45:8c:8f:
                    96:ed:d8:6f:fe:d1:89:42:74:a3:76:dd:62:71:5f:
                    86:65:be:1d:cd:68:a3:65:6b:bb:78:3d:f6:42:7b:
                    b3:9c:4d:c0:ac:54:d8:77:28:f0:21:bc:a5:33:4c:
                    45:13:96:e3:aa:2a:0d:08:e2:1f:ee:5c:d2:a9:d2:
                    50:99:14:58:5f:1b:5c:70:92:41:0d:c2:ff:76:43:
                    0b:9f:af:93:3f:de:0a:cc:55:3d:07:be:23:7a:16:
                    80:0d:15:94:b3:94:27:96:18:f6:26:f6:38:6f:18:
                    65:76:c8:70:59:c4:d5:af:b0:c2:07:3d:d6:a7:22:
                    6d:73
                Exponent: 65537 (0x10001)
        X509v3 extensions:
            X509v3 Basic Constraints: 
                CA:FALSE
            X509v3 Subject Key Identifier: 
                38:BA:E9:B4:DB:1F:56:6B:D8:CC:A0:02:90:19:01:A0:98:3B:A6:E3
            X509v3 Authority Key Identifier: 
                keyid:47:B0:2D:A6:A9:E3:D0:43:CB:95:8B:79:02:84:7C:BB:64:16:0C:4C
                DirName:/CN=team155-net
                serial:0C:23:B8:51:70:FF:0C:A6:CC:E8:24:FB:47:9D:DD:D3:6B:E4:DD:73
            X509v3 Extended Key Usage: 
                TLS Web Server Authentication
            X509v3 Key Usage: 
                Digital Signature, Key Encipherment
            X509v3 Subject Alternative Name: 
                DNS:team155-server
    Signature Algorithm: sha256WithRSAEncryption
    Signature Value:
        42:cb:ad:4b:ed:15:59:d1:4c:40:5d:f2:f7:36:b1:7f:d0:86:
        f4:9c:df:b0:a9:54:0f:66:f2:e8:9e:fd:12:25:a8:b2:c0:1c:
        df:aa:27:c3:e9:32:12:40:f3:75:69:76:55:9d:bd:16:4c:01:
        c3:b9:cc:ec:7e:94:78:0a:ce:3e:c9:95:ed:2b:0c:2e:0d:b5:
        b1:3e:29:b8:c3:f7:21:7f:05:12:bc:01:09:1d:11:63:67:c2:
        32:41:cd:20:cc:02:0e:8c:67:ef:54:08:66:d5:47:39:ed:68:
        5b:22:8f:e0:c9:bd:e3:3e:c8:c6:9c:a8:1d:1a:60:50:67:91:
        51:3e:a8:64:c3:05:10:72:b0:1e:ee:92:ab:8a:f8:15:31:df:
        c4:96:21:c4:c7:b5:5e:68:53:11:26:3e:e8:14:1b:49:c9:ce:
        72:cf:55:92:e3:64:6c:4f:f2:c5:12:44:ee:5e:99:26:e3:3b:
        a9:2d:7e:91:bb:e7:d9:ba:62:3b:43:37:1f:af:84:bc:ef:a1:
        d9:8c:4b:7b:eb:1c:89:27:f4:3e:d9:fd:26:1d:4d:d4:82:57:
        ee:1a:24:86:1f:b3:68:f1:df:c8:32:de:c6:ba:b7:c8:9a:4f:
        7b:5e:71:18:66:6d:9f:e3:d2:14:68:aa:a3:69:31:59:76:6b:
        e1:00:3f:42
-----BEGIN CERTIFICATE-----
MIIDdzCCAl+gAwIBAgIQSwMSBHRFO7Y2tuKCWLB+iDANBgkqhkiG9w0BAQsFADAW
MRQwEgYDVQQDDAt0ZWFtMTU1LW5ldDAeFw0yMzExMDMyMDQyMDBaFw0yNjEwMTgy
MDQyMDBaMBkxFzAVBgNVBAMMDnRlYW0xNTUtc2VydmVyMIIBIjANBgkqhkiG9w0B
AQEFAAOCAQ8AMIIBCgKCAQEAogDCPIpTe3WNchbe5kQTTnY0PAAhA1599zp7HQ/6
fIz1riwqM+Na5RokBWnTXaP3E2HBOG50wyR1bMov7Z5HqGEc9Knh7s9cbqo6LwZx
5xczQzdsYEm77WZKtPU+TBrknLUQoxghk8tylr73Q75tnCaW/xiviUb5L0A0+ual
VdiPyGZFjI+W7dhv/tGJQnSjdt1icV+GZb4dzWijZWu7eD32QnuznE3ArFTYdyjw
IbylM0xFE5bjqioNCOIf7lzSqdJQmRRYXxtccJJBDcL/dkMLn6+TP94KzFU9B74j
ehaADRWUs5Qnlhj2JvY4bxhldshwWcTVr7DCBz3WpyJtcwIDAQABo4G9MIG6MAkG
A1UdEwQCMAAwHQYDVR0OBBYEFDi66bTbH1Zr2MygApAZAaCYO6bjMFEGA1UdIwRK
MEiAFEewLaap49BDy5WLeQKEfLtkFgxMoRqkGDAWMRQwEgYDVQQDDAt0ZWFtMTU1
LW5ldIIUDCO4UXD/DKbM6CT7R53d02vk3XMwEwYDVR0lBAwwCgYIKwYBBQUHAwEw
CwYDVR0PBAQDAgWgMBkGA1UdEQQSMBCCDnRlYW0xNTUtc2VydmVyMA0GCSqGSIb3
DQEBCwUAA4IBAQBCy61L7RVZ0UxAXfL3NrF/0Ib0nN+wqVQPZvLonv0SJaiywBzf
qifD6TISQPN1aXZVnb0WTAHDuczsfpR4Cs4+yZXtKwwuDbWxPim4w/chfwUSvAEJ
HRFjZ8IyQc0gzAIOjGfvVAhm1Uc57WhbIo/gyb3jPsjGnKgdGmBQZ5FRPqhkwwUQ
crAe7pKrivgVMd/EliHEx7VeaFMRJj7oFBtJyc5yz1WS42RsT/LFEkTuXpkm4zup
LX6Ru+fZumI7Qzcfr4S876HZjEt76xyJJ/Q+2f0mHU3UglfuGiSGH7No8d/IMt7G
urfImk97XnEYZm2f49IUaKqjaTFZdmvhAD9C
-----END CERTIFICATE-----
