Certificate:
    Data:
        Version: 3 (0x2)
        Serial Number:
            3e:49:19:46:ed:0b:55:79:01:6a:53:f4:11:3e:08:ab
        Signature Algorithm: sha256WithRSAEncryption
        Issuer: CN=team218-net
        Validity
            Not Before: Nov  4 10:44:44 2023 GMT
            Not After : Oct 19 10:44:44 2026 GMT
        Subject: CN=team218-server
        Subject Public Key Info:
            Public Key Algorithm: rsaEncryption
                Public-Key: (2048 bit)
                Modulus:
                    00:d2:75:22:3a:0b:e0:e1:f6:eb:a3:19:49:7c:e7:
                    a3:bd:ba:78:e4:fb:29:b9:3d:f7:10:6c:31:d7:c5:
                    ca:85:8b:1c:30:4f:2d:37:64:de:18:4e:8e:a3:ec:
                    dd:9b:e4:74:4d:23:69:d7:81:d4:df:db:bc:45:af:
                    98:5d:c3:47:3a:76:c3:63:83:00:ad:63:3b:5e:91:
                    a2:f3:a3:cc:cb:45:b5:17:f7:0a:a6:16:ab:d2:d2:
                    8c:bd:be:59:a3:78:86:f7:57:0c:9b:bf:a6:b2:4e:
                    d2:5c:75:ab:44:4a:03:d5:2f:2d:75:19:01:96:b1:
                    5d:07:b6:98:41:59:0c:c8:37:f4:34:6d:4f:9b:82:
                    c2:ed:70:a5:d5:31:2f:0a:87:4e:93:73:33:31:3c:
                    71:81:9e:78:e7:0c:56:bd:ec:c8:03:76:02:04:d8:
                    31:1f:6f:ae:3a:8d:38:e1:0a:e5:56:fd:1f:67:f1:
                    b1:de:e1:55:9d:7e:1d:b0:30:b9:6e:d0:7d:fc:d9:
                    bd:82:52:9e:11:ed:18:d4:41:e4:4c:cc:45:66:32:
                    51:d5:13:bf:c9:ab:c1:95:72:fe:1a:58:32:a0:7d:
                    f9:9e:3c:7e:8c:f6:3b:da:be:bf:b1:9c:b5:a7:f9:
                    fe:d9:9f:31:a1:99:b0:7a:c5:7e:b2:81:36:d7:89:
                    02:5d
                Exponent: 65537 (0x10001)
        X509v3 extensions:
            X509v3 Basic Constraints: 
                CA:FALSE
            X509v3 Subject Key Identifier: 
                85:30:92:02:5B:F1:33:1B:C9:D1:88:68:A4:40:60:CD:C0:AF:18:BE
            X509v3 Authority Key Identifier: 
                keyid:40:B3:E9:F1:58:70:89:23:0C:19:65:54:79:98:04:9D:85:EC:D0:E4
                DirName:/CN=team218-net
                serial:5C:7A:5F:92:A9:3A:D3:F5:D4:CB:73:62:DC:80:89:D0:A3:F1:E8:F0
            X509v3 Extended Key Usage: 
                TLS Web Server Authentication
            X509v3 Key Usage: 
                Digital Signature, Key Encipherment
            X509v3 Subject Alternative Name: 
                DNS:team218-server
    Signature Algorithm: sha256WithRSAEncryption
    Signature Value:
        72:8b:38:6b:38:e1:97:d2:da:55:40:07:d7:99:2b:93:bf:54:
        39:60:a8:ca:c3:c2:5b:c7:8a:b7:32:67:48:77:eb:93:be:ad:
        64:3c:94:91:33:b8:bc:be:6a:b4:fa:47:c5:35:c5:34:0b:56:
        36:d9:a1:05:01:84:8e:6d:90:3d:26:4e:61:2e:40:b8:4f:bb:
        ea:b9:47:e2:69:98:6d:e8:73:06:5c:91:15:21:ed:45:8c:67:
        b9:62:bf:b1:b2:e4:31:5b:a1:87:c5:f3:29:47:7b:6d:88:4e:
        fd:ee:68:e5:45:82:e8:1a:4d:5d:00:05:72:59:42:e4:f7:15:
        e6:09:e5:21:4c:63:8c:9f:6f:02:6d:fd:6b:6e:54:e6:e9:84:
        32:a2:4b:c9:e2:a2:bf:a2:3d:2a:84:50:4e:36:dc:0e:e7:a7:
        f7:cf:43:9a:0d:46:d5:94:b9:7d:08:3b:a4:c5:e3:1d:2a:4f:
        30:a4:10:14:91:52:05:04:49:99:51:db:6a:3f:2a:41:ba:7e:
        8a:05:45:67:ef:79:0a:23:a7:ef:40:55:8f:3e:0f:b1:bb:c9:
        ee:01:c3:01:33:20:9f:d4:1d:ad:20:88:ef:61:91:8b:73:fb:
        e4:90:63:ff:30:96:60:77:91:e9:a3:ec:3b:1f:d7:ef:e9:95:
        53:42:58:76
-----BEGIN CERTIFICATE-----
MIIDdzCCAl+gAwIBAgIQPkkZRu0LVXkBalP0ET4IqzANBgkqhkiG9w0BAQsFADAW
MRQwEgYDVQQDDAt0ZWFtMjE4LW5ldDAeFw0yMzExMDQxMDQ0NDRaFw0yNjEwMTkx
MDQ0NDRaMBkxFzAVBgNVBAMMDnRlYW0yMTgtc2VydmVyMIIBIjANBgkqhkiG9w0B
AQEFAAOCAQ8AMIIBCgKCAQEA0nUiOgvg4fbroxlJfOejvbp45PspuT33EGwx18XK
hYscME8tN2TeGE6Oo+zdm+R0TSNp14HU39u8Ra+YXcNHOnbDY4MArWM7XpGi86PM
y0W1F/cKphar0tKMvb5Zo3iG91cMm7+msk7SXHWrREoD1S8tdRkBlrFdB7aYQVkM
yDf0NG1Pm4LC7XCl1TEvCodOk3MzMTxxgZ545wxWvezIA3YCBNgxH2+uOo044Qrl
Vv0fZ/Gx3uFVnX4dsDC5btB9/Nm9glKeEe0Y1EHkTMxFZjJR1RO/yavBlXL+Glgy
oH35njx+jPY72r6/sZy1p/n+2Z8xoZmwesV+soE214kCXQIDAQABo4G9MIG6MAkG
A1UdEwQCMAAwHQYDVR0OBBYEFIUwkgJb8TMbydGIaKRAYM3Arxi+MFEGA1UdIwRK
MEiAFECz6fFYcIkjDBllVHmYBJ2F7NDkoRqkGDAWMRQwEgYDVQQDDAt0ZWFtMjE4
LW5ldIIUXHpfkqk60/XUy3Ni3ICJ0KPx6PAwEwYDVR0lBAwwCgYIKwYBBQUHAwEw
CwYDVR0PBAQDAgWgMBkGA1UdEQQSMBCCDnRlYW0yMTgtc2VydmVyMA0GCSqGSIb3
DQEBCwUAA4IBAQByizhrOOGX0tpVQAfXmSuTv1Q5YKjKw8Jbx4q3MmdId+uTvq1k
PJSRM7i8vmq0+kfFNcU0C1Y22aEFAYSObZA9Jk5hLkC4T7vquUfiaZht6HMGXJEV
Ie1FjGe5Yr+xsuQxW6GHxfMpR3ttiE797mjlRYLoGk1dAAVyWULk9xXmCeUhTGOM
n28Cbf1rblTm6YQyokvJ4qK/oj0qhFBONtwO56f3z0OaDUbVlLl9CDukxeMdKk8w
pBAUkVIFBEmZUdtqPypBun6KBUVn73kKI6fvQFWPPg+xu8nuAcMBMyCf1B2tIIjv
YZGLc/vkkGP/MJZgd5Hpo+w7H9fv6ZVTQlh2
-----END CERTIFICATE-----
