Certificate:
    Data:
        Version: 3 (0x2)
        Serial Number:
            59:e5:15:69:de:2f:b2:54:5b:99:60:79:a9:ac:0a:5e
        Signature Algorithm: sha256WithRSAEncryption
        Issuer: CN=team218-net
        Validity
            Not Before: Nov  4 11:31:54 2023 GMT
            Not After : Oct 19 11:31:54 2026 GMT
        Subject: CN=team218-client
        Subject Public Key Info:
            Public Key Algorithm: rsaEncryption
                Public-Key: (2048 bit)
                Modulus:
                    00:b2:7d:de:f5:ec:1c:23:20:91:43:18:11:ab:48:
                    ef:cd:0c:0d:dc:ff:52:d0:d9:ee:b4:20:ae:f5:bf:
                    46:ca:5a:b2:65:c5:65:4e:57:6c:b7:05:45:b4:55:
                    64:10:47:b5:38:0d:53:d5:65:07:71:16:66:78:17:
                    77:34:95:3d:12:bc:d8:6f:9c:8a:f7:c5:ea:6a:57:
                    0d:1b:ae:25:bb:35:48:9f:86:07:08:05:fc:33:1f:
                    2a:6f:28:d0:9a:db:62:03:33:03:c9:f4:d0:09:c2:
                    c4:1c:e5:38:e8:33:e0:f9:74:47:c8:fd:3c:47:ca:
                    65:26:97:7c:c0:98:f9:29:6b:e4:21:ed:e4:9d:f6:
                    02:e5:2d:c6:69:5e:06:3b:90:6a:62:99:95:7e:7b:
                    b2:28:93:5e:8a:05:e2:9b:02:a7:98:ad:b7:2a:12:
                    71:39:92:32:18:59:b5:db:27:57:9c:c5:c6:bd:a3:
                    4e:cc:3a:63:52:65:2f:cf:85:c0:f7:b5:df:49:52:
                    53:c0:97:a5:cb:be:e6:9f:ee:00:1a:36:c6:22:81:
                    4f:b6:29:cb:45:5b:72:7a:e8:7a:a5:0f:4e:27:9f:
                    96:d8:7f:df:36:8e:5e:3e:c8:29:19:32:67:42:c8:
                    30:c0:dc:aa:c6:20:dc:cb:49:15:8a:34:a7:b3:d6:
                    e7:53
                Exponent: 65537 (0x10001)
        X509v3 extensions:
            X509v3 Basic Constraints: 
                CA:FALSE
            X509v3 Subject Key Identifier: 
                B2:C4:A5:18:9A:B0:B1:23:36:4C:D1:A0:3A:03:00:78:6F:83:B6:CA
            X509v3 Authority Key Identifier: 
                keyid:91:E5:BF:64:BA:8A:C6:C7:CD:CA:C5:38:83:A5:07:B9:CB:26:9B:D7
                DirName:/CN=team218-net
                serial:57:E4:1E:BD:F5:EF:08:23:5A:53:4A:BA:14:A1:47:0E:B4:34:93:97
            X509v3 Extended Key Usage: 
                TLS Web Client Authentication
            X509v3 Key Usage: 
                Digital Signature
    Signature Algorithm: sha256WithRSAEncryption
    Signature Value:
        23:f6:44:56:5d:6d:7c:4d:42:95:ea:d9:c8:d4:01:f6:08:3d:
        61:f7:86:b7:9a:b1:d6:b4:5b:c0:32:18:32:e3:2a:50:17:47:
        95:24:e4:03:5c:33:3c:c4:95:94:e6:a2:c0:61:5d:35:ce:16:
        20:c6:ae:05:19:98:e0:04:08:48:79:7c:1d:e0:76:9f:23:48:
        99:0e:78:4f:1a:53:8e:9f:36:8d:c0:bc:54:8f:98:03:be:c5:
        1d:3a:64:c5:21:87:cb:19:9e:b9:1c:15:d5:b9:8f:9d:4d:10:
        8b:48:5f:3e:e5:f6:8d:71:db:2b:28:09:dd:87:08:ed:f3:68:
        45:8f:3d:c5:f3:2d:10:78:c6:2f:f1:f3:4a:1d:b2:7b:69:fc:
        bb:b9:8e:8c:e0:e2:80:31:ca:a7:bb:71:66:e2:42:0a:1a:c1:
        66:37:66:e3:d6:74:86:5f:e4:04:70:1d:07:cc:ee:a8:0b:66:
        73:74:42:50:10:06:70:81:a3:5b:a1:99:df:54:82:35:0f:d6:
        e4:7d:04:66:14:cc:32:15:3a:c9:d4:41:c8:3e:ff:09:48:5b:
        13:67:f5:87:4f:8b:52:b5:cc:f8:dd:58:c8:af:fe:22:5e:ab:
        bb:55:8f:0c:14:63:5f:4d:01:a5:e1:d9:cb:8b:79:10:e3:e2:
        30:64:51:35
-----BEGIN CERTIFICATE-----
MIIDXDCCAkSgAwIBAgIQWeUVad4vslRbmWB5qawKXjANBgkqhkiG9w0BAQsFADAW
MRQwEgYDVQQDDAt0ZWFtMjE4LW5ldDAeFw0yMzExMDQxMTMxNTRaFw0yNjEwMTkx
MTMxNTRaMBkxFzAVBgNVBAMMDnRlYW0yMTgtY2xpZW50MIIBIjANBgkqhkiG9w0B
AQEFAAOCAQ8AMIIBCgKCAQEAsn3e9ewcIyCRQxgRq0jvzQwN3P9S0NnutCCu9b9G
ylqyZcVlTldstwVFtFVkEEe1OA1T1WUHcRZmeBd3NJU9ErzYb5yK98XqalcNG64l
uzVIn4YHCAX8Mx8qbyjQmttiAzMDyfTQCcLEHOU46DPg+XRHyP08R8plJpd8wJj5
KWvkIe3knfYC5S3GaV4GO5BqYpmVfnuyKJNeigXimwKnmK23KhJxOZIyGFm12ydX
nMXGvaNOzDpjUmUvz4XA97XfSVJTwJely77mn+4AGjbGIoFPtinLRVtyeuh6pQ9O
J5+W2H/fNo5ePsgpGTJnQsgwwNyqxiDcy0kVijSns9bnUwIDAQABo4GiMIGfMAkG
A1UdEwQCMAAwHQYDVR0OBBYEFLLEpRiasLEjNkzRoDoDAHhvg7bKMFEGA1UdIwRK
MEiAFJHlv2S6isbHzcrFOIOlB7nLJpvXoRqkGDAWMRQwEgYDVQQDDAt0ZWFtMjE4
LW5ldIIUV+QevfXvCCNaU0q6FKFHDrQ0k5cwEwYDVR0lBAwwCgYIKwYBBQUHAwIw
CwYDVR0PBAQDAgeAMA0GCSqGSIb3DQEBCwUAA4IBAQAj9kRWXW18TUKV6tnI1AH2
CD1h94a3mrHWtFvAMhgy4ypQF0eVJOQDXDM8xJWU5qLAYV01zhYgxq4FGZjgBAhI
eXwd4HafI0iZDnhPGlOOnzaNwLxUj5gDvsUdOmTFIYfLGZ65HBXVuY+dTRCLSF8+
5faNcdsrKAndhwjt82hFjz3F8y0QeMYv8fNKHbJ7afy7uY6M4OKAMcqnu3Fm4kIK
GsFmN2bj1nSGX+QEcB0HzO6oC2ZzdEJQEAZwgaNboZnfVII1D9bkfQRmFMwyFTrJ
1EHIPv8JSFsTZ/WHT4tStcz43VjIr/4iXqu7VY8MFGNfTQGl4dnLi3kQ4+IwZFE1
-----END CERTIFICATE-----
