Certificate:
    Data:
        Version: 3 (0x2)
        Serial Number:
            76:44:25:84:c3:49:ce:a0:3d:66:f4:6a:48:43:70:86
        Signature Algorithm: sha256WithRSAEncryption
        Issuer: CN=team218-net
        Validity
            Not Before: Nov  4 10:44:43 2023 GMT
            Not After : Oct 19 10:44:43 2026 GMT
        Subject: CN=team218-client
        Subject Public Key Info:
            Public Key Algorithm: rsaEncryption
                Public-Key: (2048 bit)
                Modulus:
                    00:b2:11:15:2c:12:ea:89:4e:86:3d:74:02:a7:b5:
                    04:d1:dd:ba:3a:36:3a:83:77:a9:ff:11:d7:ce:8a:
                    83:eb:cf:e5:63:d3:b8:6d:bf:b8:8b:04:e6:2a:0c:
                    0d:cd:07:f4:2f:f4:78:d3:f9:9e:df:69:a4:02:f5:
                    97:6d:c5:40:5c:ac:8b:26:28:43:4e:48:db:2e:ab:
                    8e:e1:c6:9c:c1:a6:fd:0b:e3:9c:b1:ea:2b:7d:ad:
                    de:9c:57:e7:61:b3:9f:5a:1a:f4:d6:0b:6c:e3:8f:
                    23:8c:8d:d1:fc:67:3d:30:e7:f3:8c:5b:15:82:b6:
                    0f:a3:c5:e4:24:de:d2:a9:0b:bf:a9:0e:d3:61:d6:
                    4a:0b:16:be:fd:af:54:2e:d3:06:86:b7:e4:ef:db:
                    ef:54:30:98:bd:df:8d:c4:5c:96:82:6a:29:86:c2:
                    56:da:db:bf:60:81:6f:84:20:56:f1:a3:49:fd:f2:
                    e3:95:a0:ea:72:af:8b:e5:f3:e8:33:f3:87:f6:36:
                    9e:2f:df:28:f8:1e:7b:36:19:64:c0:02:6f:19:35:
                    a8:26:0b:2a:69:cd:07:89:66:87:49:ee:0c:2e:0f:
                    c2:b3:e7:cc:97:1e:ab:89:0a:98:b1:a1:ac:84:1a:
                    e2:8b:b1:e1:1d:eb:a3:ef:39:d6:77:98:b8:b0:35:
                    73:85
                Exponent: 65537 (0x10001)
        X509v3 extensions:
            X509v3 Basic Constraints: 
                CA:FALSE
            X509v3 Subject Key Identifier: 
                ED:B2:A1:16:ED:C8:EE:AC:E6:F3:64:33:57:51:29:C9:8B:39:48:86
            X509v3 Authority Key Identifier: 
                keyid:40:B3:E9:F1:58:70:89:23:0C:19:65:54:79:98:04:9D:85:EC:D0:E4
                DirName:/CN=team218-net
                serial:5C:7A:5F:92:A9:3A:D3:F5:D4:CB:73:62:DC:80:89:D0:A3:F1:E8:F0
            X509v3 Extended Key Usage: 
                TLS Web Client Authentication
            X509v3 Key Usage: 
                Digital Signature
    Signature Algorithm: sha256WithRSAEncryption
    Signature Value:
        06:e6:8c:21:3c:d3:dd:b2:c5:b3:4d:bf:83:da:6d:d0:7d:54:
        fc:80:6a:c4:29:c0:8a:b7:c1:38:71:df:a8:93:65:df:50:d4:
        cb:55:1a:90:88:93:62:12:de:0c:22:96:52:e9:91:db:9a:4a:
        60:2c:67:03:14:4d:26:d9:78:5b:ee:b2:ef:10:9e:67:fc:6e:
        ea:43:3c:09:2d:2d:93:4d:ad:5e:6d:6c:86:93:f4:8d:7b:94:
        da:fb:b1:c3:53:76:98:6e:22:80:d8:94:e1:a2:5c:d5:11:1e:
        f7:fd:12:22:a0:66:55:84:7a:49:4e:e2:9a:2b:65:ac:fc:1c:
        35:e4:cd:13:7d:02:bb:c0:53:f8:b4:8c:74:d9:c3:9f:6f:38:
        23:0c:f7:d9:21:13:86:8b:3e:c4:12:0a:03:6c:90:c4:c0:0c:
        0c:9b:9f:03:01:d6:f0:d4:26:4f:ba:7a:b9:92:a7:63:ed:bd:
        44:54:9d:85:a4:4b:0c:d4:8d:70:f7:c1:30:f1:65:0e:af:87:
        6d:6e:f6:17:ee:7a:2e:50:90:0b:bf:a2:de:e0:4f:3b:df:59:
        0e:d8:2f:77:dd:0e:e8:f3:f6:f3:28:88:82:89:66:ad:1f:f2:
        f1:a7:be:db:86:89:3f:9d:a5:96:56:84:87:60:d1:16:a8:d7:
        ef:89:af:21
-----BEGIN CERTIFICATE-----
MIIDXDCCAkSgAwIBAgIQdkQlhMNJzqA9ZvRqSENwhjANBgkqhkiG9w0BAQsFADAW
MRQwEgYDVQQDDAt0ZWFtMjE4LW5ldDAeFw0yMzExMDQxMDQ0NDNaFw0yNjEwMTkx
MDQ0NDNaMBkxFzAVBgNVBAMMDnRlYW0yMTgtY2xpZW50MIIBIjANBgkqhkiG9w0B
AQEFAAOCAQ8AMIIBCgKCAQEAshEVLBLqiU6GPXQCp7UE0d26OjY6g3ep/xHXzoqD
68/lY9O4bb+4iwTmKgwNzQf0L/R40/me32mkAvWXbcVAXKyLJihDTkjbLquO4cac
wab9C+Ocseorfa3enFfnYbOfWhr01gts448jjI3R/Gc9MOfzjFsVgrYPo8XkJN7S
qQu/qQ7TYdZKCxa+/a9ULtMGhrfk79vvVDCYvd+NxFyWgmophsJW2tu/YIFvhCBW
8aNJ/fLjlaDqcq+L5fPoM/OH9jaeL98o+B57NhlkwAJvGTWoJgsqac0HiWaHSe4M
Lg/Cs+fMlx6riQqYsaGshBrii7HhHeuj7znWd5i4sDVzhQIDAQABo4GiMIGfMAkG
A1UdEwQCMAAwHQYDVR0OBBYEFO2yoRbtyO6s5vNkM1dRKcmLOUiGMFEGA1UdIwRK
MEiAFECz6fFYcIkjDBllVHmYBJ2F7NDkoRqkGDAWMRQwEgYDVQQDDAt0ZWFtMjE4
LW5ldIIUXHpfkqk60/XUy3Ni3ICJ0KPx6PAwEwYDVR0lBAwwCgYIKwYBBQUHAwIw
CwYDVR0PBAQDAgeAMA0GCSqGSIb3DQEBCwUAA4IBAQAG5owhPNPdssWzTb+D2m3Q
fVT8gGrEKcCKt8E4cd+ok2XfUNTLVRqQiJNiEt4MIpZS6ZHbmkpgLGcDFE0m2Xhb
7rLvEJ5n/G7qQzwJLS2TTa1ebWyGk/SNe5Ta+7HDU3aYbiKA2JTholzVER73/RIi
oGZVhHpJTuKaK2Ws/Bw15M0TfQK7wFP4tIx02cOfbzgjDPfZIROGiz7EEgoDbJDE
wAwMm58DAdbw1CZPunq5kqdj7b1EVJ2FpEsM1I1w98Ew8WUOr4dtbvYX7nouUJAL
v6Le4E8731kO2C933Q7o8/bzKIiCiWatH/Lxp77bhok/naWWVoSHYNEWqNfvia8h
-----END CERTIFICATE-----
