Certificate:
    Data:
        Version: 3 (0x2)
        Serial Number:
            7d:80:72:c1:34:ff:ff:f6:a5:9c:3e:9d:ca:0f:a7:41
        Signature Algorithm: sha256WithRSAEncryption
        Issuer: CN=team218-net
        Validity
            Not Before: Nov  4 11:31:54 2023 GMT
            Not After : Oct 19 11:31:54 2026 GMT
        Subject: CN=team218-server
        Subject Public Key Info:
            Public Key Algorithm: rsaEncryption
                Public-Key: (2048 bit)
                Modulus:
                    00:be:f8:bf:c0:e9:c2:61:4a:cf:37:bd:3b:8d:87:
                    56:4a:60:73:55:e9:4e:48:13:09:3c:bc:8b:78:70:
                    46:32:78:20:cf:88:b7:2b:ca:b6:e1:41:de:50:3f:
                    4c:ad:f2:c2:2a:28:31:78:9f:83:55:3c:c7:a2:dc:
                    26:e1:b3:8b:7f:ce:51:63:c3:e8:9a:fe:95:0b:c2:
                    93:1b:30:9c:ac:3c:57:a8:87:d2:20:04:09:18:ca:
                    94:60:67:ce:fa:f0:ff:b2:e5:9f:fd:fd:eb:77:08:
                    98:18:89:ec:07:e8:3c:ed:cd:bb:53:f2:1d:a8:95:
                    87:01:ba:e5:b0:85:39:b4:b6:29:da:2a:a9:82:a2:
                    cc:11:71:30:bd:de:7b:2f:af:fa:13:da:69:25:81:
                    9a:3c:87:72:f4:15:06:a9:40:75:ee:70:a0:da:c9:
                    ec:03:93:78:40:60:8a:70:e5:a6:6d:12:69:39:6f:
                    54:cf:0f:30:b7:94:e1:94:f1:64:d0:88:63:45:41:
                    73:df:96:61:7a:fe:a7:61:fb:5b:c1:d3:97:f1:ff:
                    7a:32:65:5b:93:8c:eb:12:b7:87:90:32:a9:10:f3:
                    95:88:92:1e:c4:7a:c8:d0:88:bc:22:ce:be:b7:0f:
                    ee:73:cd:7b:0c:d0:6d:55:06:94:3f:69:35:0b:2e:
                    f7:11
                Exponent: 65537 (0x10001)
        X509v3 extensions:
            X509v3 Basic Constraints: 
                CA:FALSE
            X509v3 Subject Key Identifier: 
                3D:B9:32:08:FC:44:5B:5B:CA:3C:0D:FC:AC:06:A3:23:5D:59:C2:88
            X509v3 Authority Key Identifier: 
                keyid:91:E5:BF:64:BA:8A:C6:C7:CD:CA:C5:38:83:A5:07:B9:CB:26:9B:D7
                DirName:/CN=team218-net
                serial:57:E4:1E:BD:F5:EF:08:23:5A:53:4A:BA:14:A1:47:0E:B4:34:93:97
            X509v3 Extended Key Usage: 
                TLS Web Server Authentication
            X509v3 Key Usage: 
                Digital Signature, Key Encipherment
            X509v3 Subject Alternative Name: 
                DNS:team218-server
    Signature Algorithm: sha256WithRSAEncryption
    Signature Value:
        7a:96:71:10:87:b0:b7:55:b1:09:3a:79:f9:49:83:8d:8c:65:
        d3:b7:e6:6b:f1:fe:ba:83:de:6a:01:99:71:1f:eb:cc:1c:ba:
        25:64:b0:fe:02:94:4f:6d:a4:8e:db:e2:a8:6e:8b:88:f0:27:
        30:3b:6f:03:8e:8d:5c:48:e0:63:91:6b:79:e7:b3:58:02:df:
        a4:ae:53:e7:4c:78:1f:b9:73:14:fb:10:c9:c9:17:c1:65:02:
        e2:7d:98:51:43:59:ee:f3:9a:95:2e:52:aa:e9:3e:f9:4a:21:
        06:e2:68:38:f4:ba:e5:56:a2:3a:71:93:19:e2:92:42:ee:3f:
        62:b5:5d:ef:d9:43:7c:7c:04:9e:8c:74:4d:9f:c5:a0:e7:7d:
        ef:1b:5d:e0:39:74:10:ea:9e:f0:43:fa:64:2c:2b:b7:7a:b1:
        db:a6:da:ab:17:66:dc:89:a6:bb:93:4d:8a:50:e9:70:ae:b8:
        80:67:ba:34:dd:44:11:f7:5e:7c:33:bb:ba:cd:b2:25:b0:5b:
        b6:58:75:d7:b9:e5:c0:d1:4d:9a:8b:51:3b:01:e8:1a:95:1f:
        5d:b6:07:a8:20:d8:2e:a7:21:29:8c:f3:50:e6:27:3d:b3:28:
        e0:d6:76:d0:42:68:5c:7a:da:d4:3a:98:85:7d:8d:9c:bc:cd:
        24:a5:f0:3b
-----BEGIN CERTIFICATE-----
MIIDdzCCAl+gAwIBAgIQfYBywTT///alnD6dyg+nQTANBgkqhkiG9w0BAQsFADAW
MRQwEgYDVQQDDAt0ZWFtMjE4LW5ldDAeFw0yMzExMDQxMTMxNTRaFw0yNjEwMTkx
MTMxNTRaMBkxFzAVBgNVBAMMDnRlYW0yMTgtc2VydmVyMIIBIjANBgkqhkiG9w0B
AQEFAAOCAQ8AMIIBCgKCAQEAvvi/wOnCYUrPN707jYdWSmBzVelOSBMJPLyLeHBG
Mnggz4i3K8q24UHeUD9MrfLCKigxeJ+DVTzHotwm4bOLf85RY8Pomv6VC8KTGzCc
rDxXqIfSIAQJGMqUYGfO+vD/suWf/f3rdwiYGInsB+g87c27U/IdqJWHAbrlsIU5
tLYp2iqpgqLMEXEwvd57L6/6E9ppJYGaPIdy9BUGqUB17nCg2snsA5N4QGCKcOWm
bRJpOW9Uzw8wt5ThlPFk0IhjRUFz35Zhev6nYftbwdOX8f96MmVbk4zrEreHkDKp
EPOViJIexHrI0Ii8Is6+tw/uc817DNBtVQaUP2k1Cy73EQIDAQABo4G9MIG6MAkG
A1UdEwQCMAAwHQYDVR0OBBYEFD25Mgj8RFtbyjwN/KwGoyNdWcKIMFEGA1UdIwRK
MEiAFJHlv2S6isbHzcrFOIOlB7nLJpvXoRqkGDAWMRQwEgYDVQQDDAt0ZWFtMjE4
LW5ldIIUV+QevfXvCCNaU0q6FKFHDrQ0k5cwEwYDVR0lBAwwCgYIKwYBBQUHAwEw
CwYDVR0PBAQDAgWgMBkGA1UdEQQSMBCCDnRlYW0yMTgtc2VydmVyMA0GCSqGSIb3
DQEBCwUAA4IBAQB6lnEQh7C3VbEJOnn5SYONjGXTt+Zr8f66g95qAZlxH+vMHLol
ZLD+ApRPbaSO2+KobouI8CcwO28Djo1cSOBjkWt557NYAt+krlPnTHgfuXMU+xDJ
yRfBZQLifZhRQ1nu85qVLlKq6T75SiEG4mg49LrlVqI6cZMZ4pJC7j9itV3v2UN8
fASejHRNn8Wg533vG13gOXQQ6p7wQ/pkLCu3erHbptqrF2bciaa7k02KUOlwrriA
Z7o03UQR9158M7u6zbIlsFu2WHXXueXA0U2ai1E7AegalR9dtgeoINgupyEpjPNQ
5ic9syjg1nbQQmhcetrUOpiFfY2cvM0kpfA7
-----END CERTIFICATE-----
