Certificate:
    Data:
        Version: 3 (0x2)
        Serial Number:
            37:74:70:5b:00:96:b4:a5:eb:ec:6f:68:dc:22:c5:57
        Signature Algorithm: sha256WithRSAEncryption
        Issuer: CN=team257-net
        Validity
            Not Before: Nov  3 20:44:01 2023 GMT
            Not After : Oct 18 20:44:01 2026 GMT
        Subject: CN=team257-server
        Subject Public Key Info:
            Public Key Algorithm: rsaEncryption
                Public-Key: (2048 bit)
                Modulus:
                    00:88:24:8f:a5:e7:bf:59:1d:fb:ee:14:4f:4d:c3:
                    fe:8c:6c:39:52:d5:df:9f:34:92:3a:e2:ef:f8:7d:
                    e1:76:91:8e:95:9f:84:53:6a:aa:e5:a0:2b:36:90:
                    ca:52:12:b5:b0:55:22:4b:f0:0c:94:bb:ef:d5:da:
                    07:23:bf:21:ef:b2:e6:8a:38:a8:7f:0d:b2:80:a0:
                    5c:f3:03:8a:25:8e:69:ad:ab:0e:d5:bc:f6:c9:66:
                    56:1e:35:3f:79:6a:d5:ea:3c:cd:b7:b3:e2:56:10:
                    d3:20:5d:52:5c:75:ab:58:ae:32:54:a9:82:2c:d8:
                    f2:2f:3c:92:7e:cc:75:24:11:e8:26:66:07:ec:1f:
                    de:3c:03:b7:57:2c:fe:29:26:d0:e6:3f:c2:6f:63:
                    c0:2b:67:b9:11:6a:26:c6:22:ae:97:d3:ab:e3:63:
                    94:6f:b2:eb:25:56:98:b7:9f:0a:5a:29:a0:38:90:
                    66:12:b0:84:ca:09:8b:65:30:e8:03:13:b5:d3:78:
                    cf:1c:3e:d8:8f:d5:c7:19:50:8b:b5:77:3a:b6:e4:
                    03:a9:4c:bd:08:99:7f:3d:af:6d:d9:77:52:3e:e5:
                    02:5a:19:b4:75:86:f1:35:cc:c6:4a:df:cf:47:21:
                    2a:7e:00:e7:11:00:ee:98:8b:fe:c3:74:fe:bf:22:
                    92:27
                Exponent: 65537 (0x10001)
        X509v3 extensions:
            X509v3 Basic Constraints: 
                CA:FALSE
            X509v3 Subject Key Identifier: 
                45:E9:A4:BF:C6:7A:1E:FA:EA:C1:78:E7:98:9F:B6:47:68:77:CB:31
            X509v3 Authority Key Identifier: 
                keyid:9E:52:98:FD:8C:01:29:79:DB:D2:98:C9:C1:B1:8E:AE:05:8A:FC:E7
                DirName:/CN=team257-net
                serial:63:A0:8A:44:CF:A9:59:82:64:6F:5C:E2:36:E7:06:81:FB:3E:94:2B
            X509v3 Extended Key Usage: 
                TLS Web Server Authentication
            X509v3 Key Usage: 
                Digital Signature, Key Encipherment
            X509v3 Subject Alternative Name: 
                DNS:team257-server
    Signature Algorithm: sha256WithRSAEncryption
    Signature Value:
        c3:e5:07:5c:6a:08:6a:7b:4a:2e:a2:a8:fe:20:a1:47:57:c7:
        38:a1:ef:aa:a2:b9:4f:ab:c3:ec:9b:4c:79:7d:5e:9e:de:1b:
        c2:a5:81:62:ed:1d:a3:a3:21:7b:69:35:e6:55:9e:71:74:9b:
        8b:1b:5c:20:65:d7:c3:01:1a:49:d2:5d:76:b6:94:cf:34:d4:
        ef:7c:60:51:ee:4f:05:b1:bd:6d:c0:60:36:53:d2:a7:36:cb:
        ef:9d:9d:78:fe:d8:22:e1:0b:04:31:f1:71:0b:87:4e:5f:23:
        db:d3:c9:cb:4a:8c:45:53:d8:1e:1e:8f:83:a2:61:27:1d:4e:
        eb:45:dd:1c:92:8a:09:69:2f:48:5e:56:a0:b0:d6:a4:eb:3f:
        db:11:bd:e8:42:a6:01:30:62:88:f5:8c:9c:61:4b:d2:5b:6d:
        4f:a1:fe:cf:ed:17:b5:a1:36:b4:60:eb:ab:4d:db:0a:e4:58:
        45:87:0c:9b:30:57:6d:60:58:22:65:6f:04:09:4c:c7:c8:76:
        76:61:e4:b9:6b:b1:2f:28:85:13:a1:ec:c4:ef:50:5a:97:9f:
        33:76:ae:5e:3f:96:fb:d1:d9:09:98:ce:43:98:20:ca:52:d0:
        7d:c7:af:8b:3f:5e:06:df:12:d2:4d:20:5f:8f:1e:81:d8:08:
        25:ac:c7:bf
-----BEGIN CERTIFICATE-----
MIIDdzCCAl+gAwIBAgIQN3RwWwCWtKXr7G9o3CLFVzANBgkqhkiG9w0BAQsFADAW
MRQwEgYDVQQDDAt0ZWFtMjU3LW5ldDAeFw0yMzExMDMyMDQ0MDFaFw0yNjEwMTgy
MDQ0MDFaMBkxFzAVBgNVBAMMDnRlYW0yNTctc2VydmVyMIIBIjANBgkqhkiG9w0B
AQEFAAOCAQ8AMIIBCgKCAQEAiCSPpee/WR377hRPTcP+jGw5UtXfnzSSOuLv+H3h
dpGOlZ+EU2qq5aArNpDKUhK1sFUiS/AMlLvv1doHI78h77Lmijiofw2ygKBc8wOK
JY5prasO1bz2yWZWHjU/eWrV6jzNt7PiVhDTIF1SXHWrWK4yVKmCLNjyLzySfsx1
JBHoJmYH7B/ePAO3Vyz+KSbQ5j/Cb2PAK2e5EWomxiKul9Or42OUb7LrJVaYt58K
WimgOJBmErCEygmLZTDoAxO103jPHD7Yj9XHGVCLtXc6tuQDqUy9CJl/Pa9t2XdS
PuUCWhm0dYbxNczGSt/PRyEqfgDnEQDumIv+w3T+vyKSJwIDAQABo4G9MIG6MAkG
A1UdEwQCMAAwHQYDVR0OBBYEFEXppL/Geh766sF455iftkdod8sxMFEGA1UdIwRK
MEiAFJ5SmP2MASl529KYycGxjq4FivznoRqkGDAWMRQwEgYDVQQDDAt0ZWFtMjU3
LW5ldIIUY6CKRM+pWYJkb1ziNucGgfs+lCswEwYDVR0lBAwwCgYIKwYBBQUHAwEw
CwYDVR0PBAQDAgWgMBkGA1UdEQQSMBCCDnRlYW0yNTctc2VydmVyMA0GCSqGSIb3
DQEBCwUAA4IBAQDD5Qdcaghqe0ouoqj+IKFHV8c4oe+qorlPq8Psm0x5fV6e3hvC
pYFi7R2joyF7aTXmVZ5xdJuLG1wgZdfDARpJ0l12tpTPNNTvfGBR7k8Fsb1twGA2
U9KnNsvvnZ14/tgi4QsEMfFxC4dOXyPb08nLSoxFU9geHo+DomEnHU7rRd0ckooJ
aS9IXlagsNak6z/bEb3oQqYBMGKI9YycYUvSW21Pof7P7Re1oTa0YOurTdsK5FhF
hwybMFdtYFgiZW8ECUzHyHZ2YeS5a7EvKIUToezE71Bal58zdq5eP5b70dkJmM5D
mCDKUtB9x6+LP14G3xLSTSBfjx6B2AglrMe/
-----END CERTIFICATE-----
