Certificate:
    Data:
        Version: 3 (0x2)
        Serial Number:
            50:d6:99:cb:5a:74:db:05:04:d3:9f:50:17:39:1f:26
        Signature Algorithm: sha256WithRSAEncryption
        Issuer: CN=team334-net
        Validity
            Not Before: Nov  4 11:34:49 2023 GMT
            Not After : Oct 19 11:34:49 2026 GMT
        Subject: CN=team334-client
        Subject Public Key Info:
            Public Key Algorithm: rsaEncryption
                Public-Key: (2048 bit)
                Modulus:
                    00:b5:ac:d5:7c:1a:63:b6:2d:a6:33:d5:10:ea:cc:
                    a5:89:3a:5b:1c:b6:13:13:a8:48:e6:9d:7f:f5:85:
                    35:88:f9:4a:b0:75:d5:df:26:e0:8b:71:e1:01:37:
                    09:8a:4a:0a:17:ce:80:06:d1:b1:47:a7:1d:16:ce:
                    0d:7e:34:62:2c:ce:d2:a8:ba:ce:19:3f:d4:df:a7:
                    70:f8:c2:dd:7d:39:96:1d:b9:b0:db:de:dd:42:1b:
                    c7:14:63:5d:5a:77:17:6a:b3:a8:bf:3c:51:76:ee:
                    09:7b:f3:03:a9:1e:e4:64:36:9d:89:36:6a:fb:c1:
                    5d:0a:0a:ed:61:71:79:4f:e1:32:a7:d6:43:0a:bf:
                    fd:df:bc:43:00:44:47:51:38:27:ed:22:c9:29:ff:
                    57:5c:5f:f0:26:ab:67:3e:8f:7f:5e:c6:72:57:9d:
                    e9:29:4e:ec:f1:00:bc:85:78:82:ac:c9:54:d9:3e:
                    7e:7d:f3:45:8a:ad:19:97:fb:23:59:d8:8c:24:9d:
                    a9:6a:61:e4:71:27:7a:58:f6:97:4a:8b:d9:90:d0:
                    c7:b4:fa:bb:64:f5:3c:ec:14:18:ab:26:bc:fb:50:
                    5b:df:f3:cb:ae:29:5c:9f:29:b6:49:ea:41:a9:6a:
                    3b:ac:7a:3a:7f:15:3c:de:cd:0a:12:07:9e:9a:ad:
                    e2:d1
                Exponent: 65537 (0x10001)
        X509v3 extensions:
            X509v3 Basic Constraints: 
                CA:FALSE
            X509v3 Subject Key Identifier: 
                A7:B1:57:72:3D:99:7B:9C:40:10:69:CE:A1:47:2A:07:10:7D:2F:3A
            X509v3 Authority Key Identifier: 
                keyid:DD:BE:12:E8:12:11:1C:78:D7:80:A8:A2:59:BC:43:38:A9:B2:1E:5C
                DirName:/CN=team334-net
                serial:5C:4E:36:C7:D5:98:53:73:77:EF:5E:36:2E:09:41:2A:65:62:73:9A
            X509v3 Extended Key Usage: 
                TLS Web Client Authentication
            X509v3 Key Usage: 
                Digital Signature
    Signature Algorithm: sha256WithRSAEncryption
    Signature Value:
        06:b0:ec:a4:d0:38:c3:cc:03:5b:94:c8:c6:f0:9f:bf:4f:91:
        8a:d2:7a:bd:ac:e4:c2:0a:59:fb:4f:75:e1:b2:da:ec:64:6f:
        4b:70:d9:e9:5c:c8:55:94:54:34:f4:38:34:8d:e0:91:25:f9:
        76:6b:7a:5f:65:1f:29:79:06:55:ce:91:df:9c:fe:57:30:9e:
        94:4e:97:db:a7:27:99:5e:60:c6:50:9a:16:15:7a:77:cd:d1:
        aa:16:ba:59:a1:9c:f0:9e:0c:cf:1e:97:52:22:d2:a2:76:2e:
        63:a7:da:16:c6:cf:79:39:71:d7:58:e8:e9:14:0d:74:8b:06:
        e2:26:c5:dc:4c:67:90:b1:73:63:7e:45:fa:1b:b3:13:d1:52:
        bc:c3:f4:93:d6:b2:e2:fd:2a:07:90:ed:e5:1d:19:d4:86:cd:
        13:62:33:3e:ea:55:80:90:26:06:73:82:c2:a9:e5:df:32:4d:
        7e:a7:e7:f7:22:d4:44:ae:b5:3f:a1:a4:14:e8:ba:42:ef:b5:
        05:ea:bf:d7:bd:21:0b:42:e9:18:eb:25:aa:44:1e:72:c5:99:
        9e:86:6a:14:33:4f:57:ec:46:39:80:cb:4c:fc:fd:b1:24:e8:
        24:e2:ef:3c:77:68:ce:8c:8c:16:04:38:c8:1d:93:0b:a8:fc:
        17:07:e6:54
-----BEGIN CERTIFICATE-----
MIIDXDCCAkSgAwIBAgIQUNaZy1p02wUE059QFzkfJjANBgkqhkiG9w0BAQsFADAW
MRQwEgYDVQQDDAt0ZWFtMzM0LW5ldDAeFw0yMzExMDQxMTM0NDlaFw0yNjEwMTkx
MTM0NDlaMBkxFzAVBgNVBAMMDnRlYW0zMzQtY2xpZW50MIIBIjANBgkqhkiG9w0B
AQEFAAOCAQ8AMIIBCgKCAQEAtazVfBpjti2mM9UQ6syliTpbHLYTE6hI5p1/9YU1
iPlKsHXV3ybgi3HhATcJikoKF86ABtGxR6cdFs4NfjRiLM7SqLrOGT/U36dw+MLd
fTmWHbmw297dQhvHFGNdWncXarOovzxRdu4Je/MDqR7kZDadiTZq+8FdCgrtYXF5
T+Eyp9ZDCr/937xDAERHUTgn7SLJKf9XXF/wJqtnPo9/XsZyV53pKU7s8QC8hXiC
rMlU2T5+ffNFiq0Zl/sjWdiMJJ2pamHkcSd6WPaXSovZkNDHtPq7ZPU87BQYqya8
+1Bb3/PLrilcnym2SepBqWo7rHo6fxU83s0KEgeemq3i0QIDAQABo4GiMIGfMAkG
A1UdEwQCMAAwHQYDVR0OBBYEFKexV3I9mXucQBBpzqFHKgcQfS86MFEGA1UdIwRK
MEiAFN2+EugSERx414Coolm8Qzipsh5coRqkGDAWMRQwEgYDVQQDDAt0ZWFtMzM0
LW5ldIIUXE42x9WYU3N37142LglBKmVic5owEwYDVR0lBAwwCgYIKwYBBQUHAwIw
CwYDVR0PBAQDAgeAMA0GCSqGSIb3DQEBCwUAA4IBAQAGsOyk0DjDzANblMjG8J+/
T5GK0nq9rOTCCln7T3XhstrsZG9LcNnpXMhVlFQ09Dg0jeCRJfl2a3pfZR8peQZV
zpHfnP5XMJ6UTpfbpyeZXmDGUJoWFXp3zdGqFrpZoZzwngzPHpdSItKidi5jp9oW
xs95OXHXWOjpFA10iwbiJsXcTGeQsXNjfkX6G7MT0VK8w/ST1rLi/SoHkO3lHRnU
hs0TYjM+6lWAkCYGc4LCqeXfMk1+p+f3ItRErrU/oaQU6LpC77UF6r/XvSELQukY
6yWqRB5yxZmehmoUM09X7EY5gMtM/P2xJOgk4u88d2jOjIwWBDjIHZMLqPwXB+ZU
-----END CERTIFICATE-----
