Certificate:
    Data:
        Version: 3 (0x2)
        Serial Number:
            e6:7f:37:89:19:3a:de:f0:73:d0:65:4f:89:3a:b3:c8
        Signature Algorithm: sha256WithRSAEncryption
        Issuer: CN=team334-net
        Validity
            Not Before: Nov  4 10:46:43 2023 GMT
            Not After : Oct 19 10:46:43 2026 GMT
        Subject: CN=team334-server
        Subject Public Key Info:
            Public Key Algorithm: rsaEncryption
                Public-Key: (2048 bit)
                Modulus:
                    00:b1:4a:fb:c2:fc:21:3c:e3:91:b0:98:4f:e4:74:
                    e8:ca:08:93:a4:4e:23:e8:46:6f:83:07:6f:2f:94:
                    14:fa:c0:7f:d8:d5:08:28:e3:1c:c1:e6:9f:e4:85:
                    1f:79:f3:16:bb:c4:af:8b:16:06:b3:cc:4e:6a:a0:
                    d9:69:c7:6d:af:91:6c:3b:cc:c6:8a:43:38:1f:ca:
                    12:51:96:53:a7:67:e7:50:bc:b6:96:dc:8b:9c:66:
                    ad:ae:05:b0:b5:2d:17:28:42:4a:fc:e2:f4:b9:1b:
                    04:dd:cf:5f:3a:08:b4:10:67:e7:cb:85:fd:f0:ec:
                    bc:33:09:87:d3:1d:6f:86:79:2f:52:5a:66:dc:9d:
                    36:03:e4:22:0f:d3:e6:8f:f0:4b:00:c3:72:bb:89:
                    fe:e9:17:e8:65:95:a7:cb:43:a2:6f:80:42:3a:50:
                    f9:13:cb:04:dd:d3:f9:77:65:8f:aa:6b:cb:3c:17:
                    17:7a:61:8b:00:6c:f1:dd:fb:ec:5e:63:23:02:05:
                    f7:4a:18:04:98:00:38:66:f4:12:dc:0f:e0:bd:e0:
                    8b:ca:e2:12:aa:9b:02:e3:1a:65:d0:da:27:59:2b:
                    00:ab:c7:65:97:7f:d0:f9:59:ba:61:6b:59:4b:eb:
                    60:07:bc:2d:ae:7d:77:eb:63:fb:bc:d0:4e:d0:9e:
                    62:7d
                Exponent: 65537 (0x10001)
        X509v3 extensions:
            X509v3 Basic Constraints: 
                CA:FALSE
            X509v3 Subject Key Identifier: 
                15:29:57:61:2E:AE:F5:43:13:45:A8:2E:64:3E:B9:58:B8:3E:83:B5
            X509v3 Authority Key Identifier: 
                keyid:3F:71:C4:8C:6B:BF:D1:9E:76:14:62:25:CC:E0:9A:3E:0E:A0:2B:F6
                DirName:/CN=team334-net
                serial:73:DA:35:2A:95:96:08:0D:BE:17:DC:D3:2B:75:D2:8E:EA:CD:B2:77
            X509v3 Extended Key Usage: 
                TLS Web Server Authentication
            X509v3 Key Usage: 
                Digital Signature, Key Encipherment
            X509v3 Subject Alternative Name: 
                DNS:team334-server
    Signature Algorithm: sha256WithRSAEncryption
    Signature Value:
        4f:dd:4c:d1:a6:6d:a7:11:ad:29:be:3f:29:d1:5b:c7:93:d8:
        2a:41:45:70:0a:32:de:70:a9:f2:ae:8a:ab:07:67:bb:f9:6c:
        6a:e1:5c:91:d5:c0:72:5e:45:bc:d7:84:07:94:00:b0:79:aa:
        c5:27:03:59:6d:0f:7a:b8:17:bb:87:09:c5:fd:c7:3a:ec:92:
        d9:62:aa:27:53:04:c8:00:6f:46:e2:a1:93:55:c3:95:b8:eb:
        13:69:c8:4a:3c:65:44:1e:b9:69:dc:bc:f1:2e:99:89:8d:49:
        21:dc:26:73:8c:ce:5e:04:99:4b:96:ed:12:11:ed:bf:41:3b:
        7c:08:32:db:c6:72:79:54:e8:50:7c:b2:ec:68:fe:c3:b6:e8:
        86:d9:5d:43:b5:99:13:d0:23:cc:2d:74:3f:64:c9:19:39:2c:
        02:6b:fc:08:15:d9:86:a2:d6:82:d8:34:95:d5:7c:32:12:f3:
        13:4b:44:bf:81:be:27:96:61:8c:b2:5f:41:24:d3:52:9e:9b:
        52:7a:42:39:e0:1a:b1:37:36:df:a8:e6:71:42:f7:29:07:65:
        84:b6:10:0f:63:52:09:1a:4d:05:33:03:6f:82:51:23:28:09:
        58:db:84:94:f9:cc:15:cc:2f:ae:b2:64:f5:a2:5f:f7:6c:5c:
        8b:89:72:62
-----BEGIN CERTIFICATE-----
MIIDeDCCAmCgAwIBAgIRAOZ/N4kZOt7wc9BlT4k6s8gwDQYJKoZIhvcNAQELBQAw
FjEUMBIGA1UEAwwLdGVhbTMzNC1uZXQwHhcNMjMxMTA0MTA0NjQzWhcNMjYxMDE5
MTA0NjQzWjAZMRcwFQYDVQQDDA50ZWFtMzM0LXNlcnZlcjCCASIwDQYJKoZIhvcN
AQEBBQADggEPADCCAQoCggEBALFK+8L8ITzjkbCYT+R06MoIk6ROI+hGb4MHby+U
FPrAf9jVCCjjHMHmn+SFH3nzFrvEr4sWBrPMTmqg2WnHba+RbDvMxopDOB/KElGW
U6dn51C8tpbci5xmra4FsLUtFyhCSvzi9LkbBN3PXzoItBBn58uF/fDsvDMJh9Md
b4Z5L1JaZtydNgPkIg/T5o/wSwDDcruJ/ukX6GWVp8tDom+AQjpQ+RPLBN3T+Xdl
j6pryzwXF3phiwBs8d377F5jIwIF90oYBJgAOGb0EtwP4L3gi8riEqqbAuMaZdDa
J1krAKvHZZd/0PlZumFrWUvrYAe8La59d+tj+7zQTtCeYn0CAwEAAaOBvTCBujAJ
BgNVHRMEAjAAMB0GA1UdDgQWBBQVKVdhLq71QxNFqC5kPrlYuD6DtTBRBgNVHSME
SjBIgBQ/ccSMa7/RnnYUYiXM4Jo+DqAr9qEapBgwFjEUMBIGA1UEAwwLdGVhbTMz
NC1uZXSCFHPaNSqVlggNvhfc0yt10o7qzbJ3MBMGA1UdJQQMMAoGCCsGAQUFBwMB
MAsGA1UdDwQEAwIFoDAZBgNVHREEEjAQgg50ZWFtMzM0LXNlcnZlcjANBgkqhkiG
9w0BAQsFAAOCAQEAT91M0aZtpxGtKb4/KdFbx5PYKkFFcAoy3nCp8q6Kqwdnu/ls
auFckdXAcl5FvNeEB5QAsHmqxScDWW0PergXu4cJxf3HOuyS2WKqJ1MEyABvRuKh
k1XDlbjrE2nISjxlRB65ady88S6ZiY1JIdwmc4zOXgSZS5btEhHtv0E7fAgy28Zy
eVToUHyy7Gj+w7bohtldQ7WZE9AjzC10P2TJGTksAmv8CBXZhqLWgtg0ldV8MhLz
E0tEv4G+J5ZhjLJfQSTTUp6bUnpCOeAasTc236jmcUL3KQdlhLYQD2NSCRpNBTMD
b4JRIygJWNuElPnMFcwvrrJk9aJf92xci4lyYg==
-----END CERTIFICATE-----
