Certificate:
    Data:
        Version: 3 (0x2)
        Serial Number:
            dd:2a:3b:66:8f:7e:60:a9:20:26:1c:e8:16:79:bf:84
        Signature Algorithm: sha256WithRSAEncryption
        Issuer: CN=team374-net
        Validity
            Not Before: Nov  3 20:46:02 2023 GMT
            Not After : Oct 18 20:46:02 2026 GMT
        Subject: CN=team374-client
        Subject Public Key Info:
            Public Key Algorithm: rsaEncryption
                Public-Key: (2048 bit)
                Modulus:
                    00:b0:66:21:e5:13:76:28:f8:f1:0c:1b:12:d1:dc:
                    02:1d:b0:0f:d0:57:ae:31:e0:d5:ff:36:ad:95:55:
                    13:2c:d4:89:3f:fc:76:1c:7c:8f:26:ff:a0:6e:05:
                    30:f1:e6:21:3b:f1:12:b1:ef:7f:47:d4:8a:bf:fd:
                    13:a7:03:47:73:c5:e1:69:fd:30:9c:f0:9e:37:65:
                    80:cf:21:75:60:de:d2:9f:50:22:43:3d:00:c4:94:
                    9a:e3:75:8c:00:86:75:bb:43:49:61:4b:43:b6:a6:
                    c7:83:c6:7b:db:42:23:9e:db:e3:8b:69:d7:f1:ad:
                    a6:ad:b0:29:cc:75:a2:0b:f1:f1:22:03:07:4a:85:
                    75:03:0a:cd:1f:a8:e3:75:92:23:24:2f:46:8e:a1:
                    4b:01:ab:a3:87:b0:18:ee:52:95:95:44:f1:31:85:
                    d9:e4:b5:73:be:8f:d4:3d:04:3b:27:2d:24:8a:d1:
                    07:b3:ce:2f:b6:71:93:16:cb:41:1b:b8:e8:9c:48:
                    db:5b:81:61:d4:42:74:04:08:dc:35:61:4d:50:95:
                    cf:7b:0e:e8:20:df:3b:af:72:a3:3f:1f:10:07:22:
                    7f:15:d0:5b:7c:92:1f:ff:07:27:ac:28:22:94:20:
                    70:07:3e:1a:20:c5:09:89:c8:05:73:64:2e:13:47:
                    35:91
                Exponent: 65537 (0x10001)
        X509v3 extensions:
            X509v3 Basic Constraints: 
                CA:FALSE
            X509v3 Subject Key Identifier: 
                9C:F0:55:6C:06:1E:F4:B4:CF:49:83:CB:DC:EB:37:D3:2C:C6:53:90
            X509v3 Authority Key Identifier: 
                keyid:C1:36:DD:FB:22:4A:79:80:E4:EA:74:8D:00:09:AA:1A:10:E9:AA:A9
                DirName:/CN=team374-net
                serial:45:10:C3:03:49:8B:ED:95:FA:69:7F:50:AF:44:C7:56:AC:2E:10:74
            X509v3 Extended Key Usage: 
                TLS Web Client Authentication
            X509v3 Key Usage: 
                Digital Signature
    Signature Algorithm: sha256WithRSAEncryption
    Signature Value:
        3b:1d:d8:83:5a:50:36:75:3e:31:7c:d6:83:e7:57:15:f0:5d:
        b6:62:c7:2f:96:d5:fb:0b:24:25:b7:40:b1:8e:90:55:c9:1e:
        a1:ce:30:9a:9a:33:3a:c4:5f:33:06:e4:63:4e:04:77:19:8b:
        b7:c3:fe:d5:a7:5a:8f:a0:9c:a4:5d:33:11:59:7a:09:07:af:
        6b:18:9d:59:33:76:8e:7a:b7:5b:2f:68:94:08:c7:54:c7:59:
        5b:81:c5:c4:78:99:ef:f7:67:81:62:73:c5:61:34:10:76:4d:
        fc:0a:dd:a7:3a:0f:d1:a9:d7:1c:06:21:02:d9:58:13:ec:66:
        8e:51:50:4f:ff:06:d3:2e:4d:9a:5f:34:43:2c:26:3b:fb:0f:
        af:e7:d2:d5:e5:3d:2c:e8:84:9f:f3:6b:37:ca:32:59:a3:ea:
        44:6a:af:4d:63:5a:2d:d7:f5:de:3a:cd:d0:ef:e1:5e:96:79:
        de:f6:a4:91:54:22:5b:b5:70:b6:20:cc:c8:52:06:6c:cc:db:
        c3:ea:ae:d6:dc:db:71:e9:fe:a3:9f:09:41:0a:99:4d:24:46:
        7f:28:fe:94:10:67:c1:6e:4e:c0:52:d5:90:76:9f:57:64:b8:
        57:be:4c:d1:dc:c2:cd:f2:43:f4:08:d8:ff:fc:51:b6:2a:c7:
        7d:b6:c0:13
-----BEGIN CERTIFICATE-----
MIIDXTCCAkWgAwIBAgIRAN0qO2aPfmCpICYc6BZ5v4QwDQYJKoZIhvcNAQELBQAw
FjEUMBIGA1UEAwwLdGVhbTM3NC1uZXQwHhcNMjMxMTAzMjA0NjAyWhcNMjYxMDE4
MjA0NjAyWjAZMRcwFQYDVQQDDA50ZWFtMzc0LWNsaWVudDCCASIwDQYJKoZIhvcN
AQEBBQADggEPADCCAQoCggEBALBmIeUTdij48QwbEtHcAh2wD9BXrjHg1f82rZVV
EyzUiT/8dhx8jyb/oG4FMPHmITvxErHvf0fUir/9E6cDR3PF4Wn9MJzwnjdlgM8h
dWDe0p9QIkM9AMSUmuN1jACGdbtDSWFLQ7amx4PGe9tCI57b44tp1/Gtpq2wKcx1
ogvx8SIDB0qFdQMKzR+o43WSIyQvRo6hSwGro4ewGO5SlZVE8TGF2eS1c76P1D0E
OyctJIrRB7POL7ZxkxbLQRu46JxI21uBYdRCdAQI3DVhTVCVz3sO6CDfO69yoz8f
EAcifxXQW3ySH/8HJ6woIpQgcAc+GiDFCYnIBXNkLhNHNZECAwEAAaOBojCBnzAJ
BgNVHRMEAjAAMB0GA1UdDgQWBBSc8FVsBh70tM9Jg8vc6zfTLMZTkDBRBgNVHSME
SjBIgBTBNt37Ikp5gOTqdI0ACaoaEOmqqaEapBgwFjEUMBIGA1UEAwwLdGVhbTM3
NC1uZXSCFEUQwwNJi+2V+ml/UK9Ex1asLhB0MBMGA1UdJQQMMAoGCCsGAQUFBwMC
MAsGA1UdDwQEAwIHgDANBgkqhkiG9w0BAQsFAAOCAQEAOx3Yg1pQNnU+MXzWg+dX
FfBdtmLHL5bV+wskJbdAsY6QVckeoc4wmpozOsRfMwbkY04EdxmLt8P+1adaj6Cc
pF0zEVl6CQevaxidWTN2jnq3Wy9olAjHVMdZW4HFxHiZ7/dngWJzxWE0EHZN/Ard
pzoP0anXHAYhAtlYE+xmjlFQT/8G0y5Nml80QywmO/sPr+fS1eU9LOiEn/NrN8oy
WaPqRGqvTWNaLdf13jrN0O/hXpZ53vakkVQiW7VwtiDMyFIGbMzbw+qu1tzbcen+
o58JQQqZTSRGfyj+lBBnwW5OwFLVkHafV2S4V75M0dzCzfJD9AjY//xRtirHfbbA
Ew==
-----END CERTIFICATE-----
