Certificate:
    Data:
        Version: 3 (0x2)
        Serial Number:
            33:9d:c7:2b:15:94:b4:99:06:7f:1b:e3:c8:cc:f8:45
        Signature Algorithm: sha256WithRSAEncryption
        Issuer: CN=team68-net
        Validity
            Not Before: Nov  3 20:40:24 2023 GMT
            Not After : Oct 18 20:40:24 2026 GMT
        Subject: CN=team68-client
        Subject Public Key Info:
            Public Key Algorithm: rsaEncryption
                Public-Key: (2048 bit)
                Modulus:
                    00:f6:8d:a4:47:40:e2:8f:01:2b:4c:32:9f:b3:6d:
                    65:00:b9:e9:ec:0d:ae:f8:e5:9c:bc:92:bc:b6:c1:
                    47:54:7a:00:9d:bf:79:91:c4:2e:95:5c:4e:17:90:
                    a6:f5:5c:d3:88:a5:a5:89:1d:75:81:ab:c5:8f:01:
                    18:c7:08:63:7a:eb:77:ff:88:6f:32:cc:65:96:7e:
                    d2:33:ac:f7:c7:b5:69:51:d7:99:b3:77:0b:fe:46:
                    8c:1a:a3:d8:9b:07:6e:fa:65:55:8f:8b:7a:fa:48:
                    84:aa:30:6c:29:c9:9c:77:b9:05:5d:ad:11:6f:7c:
                    b4:07:1f:5d:de:a2:de:43:f5:e4:76:f2:f6:3c:ab:
                    fe:dc:b6:07:c6:79:9f:6c:7f:2a:27:2c:7f:b2:ca:
                    99:b3:28:97:81:3d:c1:20:a9:14:d0:31:66:44:4a:
                    d9:87:a7:f3:00:8b:65:a9:1e:bb:50:df:cb:db:c1:
                    fc:ce:40:a9:7f:1a:39:28:6e:0e:94:18:39:9c:eb:
                    ae:51:28:a1:2e:36:58:10:7d:c7:3e:a6:b3:24:5c:
                    a3:d4:72:bb:c5:03:7a:57:01:e4:3c:59:f2:4b:9b:
                    a3:7d:52:f5:c5:ca:c7:3b:a5:79:d8:41:2c:68:eb:
                    28:07:ed:52:f1:75:c1:07:01:28:bf:53:93:90:b2:
                    91:b5
                Exponent: 65537 (0x10001)
        X509v3 extensions:
            X509v3 Basic Constraints: 
                CA:FALSE
            X509v3 Subject Key Identifier: 
                2D:69:FF:3D:31:3F:0F:D0:89:DF:B1:C8:8C:88:FA:49:AA:5F:26:0D
            X509v3 Authority Key Identifier: 
                keyid:43:2E:1E:72:D6:7F:98:11:21:6B:9B:2C:6E:FD:A1:5D:5F:1C:F2:6B
                DirName:/CN=team68-net
                serial:5D:7F:DC:E4:6B:C7:0F:E9:AD:E6:4C:FC:49:DA:5C:A3:11:3A:0C:E8
            X509v3 Extended Key Usage: 
                TLS Web Client Authentication
            X509v3 Key Usage: 
                Digital Signature
    Signature Algorithm: sha256WithRSAEncryption
    Signature Value:
        6b:36:b9:84:8c:8f:02:6b:01:b2:c0:18:de:ce:8a:79:9d:3e:
        55:b2:e9:62:91:9e:eb:ec:fb:03:ca:71:0c:7a:2a:37:92:ae:
        9a:4c:6e:14:82:45:9e:76:01:a9:08:3f:f4:2d:17:75:52:fc:
        75:89:5a:60:18:10:1c:1f:2c:fc:31:16:94:57:e8:c6:97:a1:
        65:48:e6:2e:42:83:60:8b:73:db:e2:3a:f7:f7:1b:d2:b1:0f:
        f7:d8:15:12:08:a8:bb:b5:7d:fd:cc:cb:ef:b0:9e:ba:eb:61:
        09:b0:4f:0c:72:ed:39:24:e3:4d:5f:3e:ea:33:5e:0c:98:c0:
        2c:76:8d:69:7e:92:e7:b0:58:e6:c4:8c:a5:bc:b1:f4:90:18:
        9d:48:c1:48:b1:8a:e4:7a:3b:7b:32:9a:75:72:e1:31:e0:e5:
        71:2d:3f:83:ce:10:87:4c:80:06:8b:c1:e2:ba:8a:ca:2c:f2:
        a8:91:66:43:f4:c1:b4:99:0c:7c:37:bb:e3:cd:48:a8:30:f3:
        e0:39:a5:0b:62:5b:da:a4:c7:2d:24:2f:56:b6:81:d7:82:54:
        1d:7c:1d:65:72:1a:06:ec:0b:48:56:ae:e3:40:6d:35:90:de:
        c1:6e:0f:c1:48:6d:9d:5e:15:63:61:fe:b3:05:f4:c5:2f:fc:
        8b:7d:69:e9
-----BEGIN CERTIFICATE-----
MIIDWTCCAkGgAwIBAgIQM53HKxWUtJkGfxvjyMz4RTANBgkqhkiG9w0BAQsFADAV
MRMwEQYDVQQDDAp0ZWFtNjgtbmV0MB4XDTIzMTEwMzIwNDAyNFoXDTI2MTAxODIw
NDAyNFowGDEWMBQGA1UEAwwNdGVhbTY4LWNsaWVudDCCASIwDQYJKoZIhvcNAQEB
BQADggEPADCCAQoCggEBAPaNpEdA4o8BK0wyn7NtZQC56ewNrvjlnLySvLbBR1R6
AJ2/eZHELpVcTheQpvVc04ilpYkddYGrxY8BGMcIY3rrd/+IbzLMZZZ+0jOs98e1
aVHXmbN3C/5GjBqj2JsHbvplVY+LevpIhKowbCnJnHe5BV2tEW98tAcfXd6i3kP1
5Hby9jyr/ty2B8Z5n2x/Kicsf7LKmbMol4E9wSCpFNAxZkRK2Yen8wCLZakeu1Df
y9vB/M5AqX8aOShuDpQYOZzrrlEooS42WBB9xz6msyRco9Ryu8UDelcB5DxZ8kub
o31S9cXKxzuledhBLGjrKAftUvF1wQcBKL9Tk5CykbUCAwEAAaOBoTCBnjAJBgNV
HRMEAjAAMB0GA1UdDgQWBBQtaf89MT8P0InfsciMiPpJql8mDTBQBgNVHSMESTBH
gBRDLh5y1n+YESFrmyxu/aFdXxzya6EZpBcwFTETMBEGA1UEAwwKdGVhbTY4LW5l
dIIUXX/c5GvHD+mt5kz8SdpcoxE6DOgwEwYDVR0lBAwwCgYIKwYBBQUHAwIwCwYD
VR0PBAQDAgeAMA0GCSqGSIb3DQEBCwUAA4IBAQBrNrmEjI8CawGywBjezop5nT5V
sulikZ7r7PsDynEMeio3kq6aTG4UgkWedgGpCD/0LRd1Uvx1iVpgGBAcHyz8MRaU
V+jGl6FlSOYuQoNgi3Pb4jr39xvSsQ/32BUSCKi7tX39zMvvsJ6662EJsE8Mcu05
JONNXz7qM14MmMAsdo1pfpLnsFjmxIylvLH0kBidSMFIsYrkejt7Mpp1cuEx4OVx
LT+DzhCHTIAGi8HiuorKLPKokWZD9MG0mQx8N7vjzUioMPPgOaULYlvapMctJC9W
toHXglQdfB1lchoG7AtIVq7jQG01kN7Bbg/BSG2dXhVjYf6zBfTFL/yLfWnp
-----END CERTIFICATE-----
