Certificate:
    Data:
        Version: 3 (0x2)
        Serial Number:
            b1:e2:0f:03:54:8b:f2:e4:1a:52:ef:fe:de:51:1d:4a
        Signature Algorithm: sha256WithRSAEncryption
        Issuer: CN=team68-net
        Validity
            Not Before: Nov  4 10:41:36 2023 GMT
            Not After : Oct 19 10:41:36 2026 GMT
        Subject: CN=team68-client
        Subject Public Key Info:
            Public Key Algorithm: rsaEncryption
                Public-Key: (2048 bit)
                Modulus:
                    00:ed:e8:1f:06:86:7f:72:b8:87:ff:5e:d7:cf:37:
                    1e:f9:b9:8f:1c:47:00:96:f8:a4:03:92:51:3f:ad:
                    12:72:cc:5a:2a:70:30:d2:a9:80:29:cc:ed:28:de:
                    65:b7:c2:d9:e0:16:20:7d:cf:87:c4:7f:06:6b:1f:
                    60:3f:f8:72:93:ef:fc:79:cf:ff:91:06:c6:8d:26:
                    f3:89:99:3b:0d:0d:50:80:2e:f2:36:a5:50:6c:4a:
                    0d:07:31:93:75:81:8d:26:ba:80:52:53:66:7f:d9:
                    ec:ca:a4:9e:79:b8:5f:b6:97:d6:48:8d:b9:12:bb:
                    7c:bf:d0:5f:0a:26:32:a6:79:81:27:40:df:c6:de:
                    01:c7:ae:fb:c7:51:5a:eb:3f:2c:60:42:e5:48:a6:
                    2b:07:58:2d:28:e4:91:61:11:9e:ec:01:94:79:2a:
                    73:0b:72:75:fe:52:81:62:5a:56:82:96:8c:6c:5a:
                    5d:a7:39:6e:09:89:31:ba:e6:1e:b7:e3:d1:a8:89:
                    55:06:01:54:3c:7e:7c:3d:49:fd:28:00:da:2c:a0:
                    db:59:8e:70:a9:d8:18:29:08:bf:1f:e8:d6:eb:15:
                    4c:c8:c9:71:bc:19:6e:09:b4:c9:da:40:f1:5d:1a:
                    4b:0e:4a:39:35:ae:36:dc:cb:91:bd:a1:90:88:ae:
                    6d:81
                Exponent: 65537 (0x10001)
        X509v3 extensions:
            X509v3 Basic Constraints: 
                CA:FALSE
            X509v3 Subject Key Identifier: 
                05:87:C1:1A:49:9D:98:3E:95:9B:55:C0:11:DF:40:47:43:18:60:9B
            X509v3 Authority Key Identifier: 
                keyid:1C:21:6B:69:DE:5C:01:00:40:4C:E2:3A:36:A4:FF:6A:67:15:45:CA
                DirName:/CN=team68-net
                serial:7F:1E:34:FB:97:17:52:7C:48:25:B0:D1:30:83:BC:45:5B:34:29:F2
            X509v3 Extended Key Usage: 
                TLS Web Client Authentication
            X509v3 Key Usage: 
                Digital Signature
    Signature Algorithm: sha256WithRSAEncryption
    Signature Value:
        14:39:88:7b:6b:31:2b:50:df:02:08:ae:7d:1e:a4:a7:9c:9e:
        ac:e3:7c:04:0b:9d:3e:a3:a0:a7:47:3b:17:90:52:38:12:e7:
        8f:5f:5f:a7:d5:26:bf:92:c6:20:34:55:b2:03:64:fd:f2:45:
        d4:90:0e:6d:87:18:da:42:61:11:d6:4c:71:69:24:de:85:5e:
        ae:59:7b:9e:1d:49:47:63:c4:50:15:77:a5:0b:7f:80:44:67:
        7d:8b:84:cb:82:80:fb:5c:70:0c:7e:42:e0:d2:c6:a4:4e:e3:
        6f:b8:b5:2f:f6:88:d1:0f:67:ab:c5:00:fd:8c:c4:f7:ae:c3:
        4f:25:00:d0:18:b7:59:ee:6d:99:3e:47:6f:b0:c6:c6:da:12:
        6a:cd:8b:b7:7e:28:75:57:3f:81:9b:4b:fd:89:af:75:c5:be:
        ee:ec:23:44:18:b0:c9:fa:12:8f:1b:fe:d2:86:c7:46:b0:39:
        c9:2d:c4:ba:91:4d:9e:52:e5:42:df:20:b3:de:23:ac:09:ad:
        ef:cc:84:6e:ac:d3:1c:eb:32:94:37:d7:2e:28:21:cb:33:d8:
        2e:a5:6a:6d:78:69:95:23:c6:0d:5b:d7:3d:99:17:8b:78:3a:
        23:20:e2:22:d7:34:a8:e5:21:c5:28:f0:8c:cb:c6:3b:80:60:
        d7:37:e9:a2
-----BEGIN CERTIFICATE-----
MIIDWjCCAkKgAwIBAgIRALHiDwNUi/LkGlLv/t5RHUowDQYJKoZIhvcNAQELBQAw
FTETMBEGA1UEAwwKdGVhbTY4LW5ldDAeFw0yMzExMDQxMDQxMzZaFw0yNjEwMTkx
MDQxMzZaMBgxFjAUBgNVBAMMDXRlYW02OC1jbGllbnQwggEiMA0GCSqGSIb3DQEB
AQUAA4IBDwAwggEKAoIBAQDt6B8Ghn9yuIf/XtfPNx75uY8cRwCW+KQDklE/rRJy
zFoqcDDSqYApzO0o3mW3wtngFiB9z4fEfwZrH2A/+HKT7/x5z/+RBsaNJvOJmTsN
DVCALvI2pVBsSg0HMZN1gY0muoBSU2Z/2ezKpJ55uF+2l9ZIjbkSu3y/0F8KJjKm
eYEnQN/G3gHHrvvHUVrrPyxgQuVIpisHWC0o5JFhEZ7sAZR5KnMLcnX+UoFiWlaC
loxsWl2nOW4JiTG65h6349GoiVUGAVQ8fnw9Sf0oANosoNtZjnCp2BgpCL8f6Nbr
FUzIyXG8GW4JtMnaQPFdGksOSjk1rjbcy5G9oZCIrm2BAgMBAAGjgaEwgZ4wCQYD
VR0TBAIwADAdBgNVHQ4EFgQUBYfBGkmdmD6Vm1XAEd9AR0MYYJswUAYDVR0jBEkw
R4AUHCFrad5cAQBATOI6NqT/amcVRcqhGaQXMBUxEzARBgNVBAMMCnRlYW02OC1u
ZXSCFH8eNPuXF1J8SCWw0TCDvEVbNCnyMBMGA1UdJQQMMAoGCCsGAQUFBwMCMAsG
A1UdDwQEAwIHgDANBgkqhkiG9w0BAQsFAAOCAQEAFDmIe2sxK1DfAgiufR6kp5ye
rON8BAudPqOgp0c7F5BSOBLnj19fp9Umv5LGIDRVsgNk/fJF1JAObYcY2kJhEdZM
cWkk3oVerll7nh1JR2PEUBV3pQt/gERnfYuEy4KA+1xwDH5C4NLGpE7jb7i1L/aI
0Q9nq8UA/YzE967DTyUA0Bi3We5tmT5Hb7DGxtoSas2Lt34odVc/gZtL/YmvdcW+
7uwjRBiwyfoSjxv+0obHRrA5yS3EupFNnlLlQt8gs94jrAmt78yEbqzTHOsylDfX
LighyzPYLqVqbXhplSPGDVvXPZkXi3g6IyDiItc0qOUhxSjwjMvGO4Bg1zfpog==
-----END CERTIFICATE-----
