Certificate:
    Data:
        Version: 3 (0x2)
        Serial Number:
            b5:b2:7c:e0:97:6b:66:6b:6f:c7:45:13:cd:7d:dc:cd
        Signature Algorithm: sha256WithRSAEncryption
        Issuer: CN=team68-net
        Validity
            Not Before: Nov  4 11:28:41 2023 GMT
            Not After : Oct 19 11:28:41 2026 GMT
        Subject: CN=team68-server
        Subject Public Key Info:
            Public Key Algorithm: rsaEncryption
                Public-Key: (2048 bit)
                Modulus:
                    00:d6:e6:1b:38:e2:60:e9:be:74:c3:3c:8b:ad:25:
                    51:7c:f1:cd:bc:16:b5:66:2e:95:a9:2d:7a:42:10:
                    00:2a:b8:c6:ac:cb:25:c9:7b:95:0d:9e:66:0d:11:
                    ee:9c:63:b7:8e:82:6c:f4:a6:9e:8c:0b:0a:02:57:
                    42:9f:f1:c8:d6:b3:6c:9d:7d:41:e4:c1:7f:8e:1b:
                    77:79:67:24:ca:a3:39:fc:f6:3c:e3:21:71:f7:93:
                    fb:30:32:1b:5b:8d:95:5f:91:8f:52:a7:1b:50:49:
                    10:90:3b:e1:27:bf:c4:2d:d8:9b:6d:36:fe:fe:21:
                    ea:a8:50:94:a5:16:f6:69:c9:23:d5:6a:5b:c7:52:
                    15:26:45:98:b7:6c:56:5e:92:ee:f4:68:ae:f4:b2:
                    65:31:bf:25:23:d1:b9:d8:98:27:1a:4a:9e:f7:ce:
                    68:67:d2:34:e6:82:c7:9d:59:c4:3a:56:0d:2f:a5:
                    67:25:1e:b7:03:18:cf:db:5a:2c:ca:95:b9:21:5e:
                    05:57:e8:bb:6d:9f:14:1c:ee:f0:17:dd:4f:80:24:
                    52:d2:e7:e7:24:0f:6e:98:6b:2a:ae:9f:86:4a:1d:
                    9b:8c:0c:19:ea:88:71:9e:51:8c:bd:e0:8d:45:d2:
                    7e:0f:c4:dc:b3:f1:9d:15:bb:20:26:8e:1b:e5:68:
                    c3:3d
                Exponent: 65537 (0x10001)
        X509v3 extensions:
            X509v3 Basic Constraints: 
                CA:FALSE
            X509v3 Subject Key Identifier: 
                5F:69:A7:51:00:4A:87:73:C0:14:3B:B4:74:71:E5:AB:F4:F3:0B:3B
            X509v3 Authority Key Identifier: 
                keyid:C2:61:AE:B1:F3:E0:88:03:97:34:F0:2E:73:7F:F9:C1:6F:49:74:35
                DirName:/CN=team68-net
                serial:7F:30:02:4D:FD:0D:9B:30:94:AC:2F:58:73:DB:B7:ED:70:AB:0B:09
            X509v3 Extended Key Usage: 
                TLS Web Server Authentication
            X509v3 Key Usage: 
                Digital Signature, Key Encipherment
            X509v3 Subject Alternative Name: 
                DNS:team68-server
    Signature Algorithm: sha256WithRSAEncryption
    Signature Value:
        40:4e:33:2d:47:e6:29:f3:0e:72:b6:b9:f3:27:d2:60:e4:bc:
        3d:e6:77:90:ce:f9:a9:cf:5d:b1:57:93:be:eb:74:b2:2a:15:
        d6:d5:c2:b2:ad:61:9c:5c:61:84:8f:df:ef:89:26:c1:b3:f6:
        f0:c5:8c:24:88:ae:91:c3:1e:f0:73:c1:c6:11:8d:9a:c5:12:
        69:0b:8e:f7:e8:22:f6:d0:d7:32:68:75:28:d3:43:6b:41:cb:
        62:ec:28:cb:67:e2:5d:4c:56:46:26:16:6a:3d:4a:bc:5d:0e:
        09:88:47:2c:3c:49:ba:e5:06:b1:69:a4:b2:70:34:22:71:6d:
        13:e2:ff:ac:95:38:d4:07:14:ff:cd:e3:75:fe:55:78:ac:89:
        d6:0d:15:01:3b:5d:a4:8c:93:0b:94:a6:f8:22:ce:5b:e0:24:
        0d:10:a0:a2:a6:a6:e7:55:5f:6e:e0:5c:55:d7:19:4d:8a:2a:
        a6:1f:4c:b0:8c:c3:1a:17:27:86:6d:87:41:fb:02:d2:3c:60:
        ce:7b:7a:83:7d:f8:51:b7:c7:7c:31:24:4d:85:bc:fc:a9:a5:
        e5:2d:af:c8:a2:00:b5:33:4b:ee:79:03:a1:75:b9:24:64:88:
        dd:39:9a:14:b7:aa:c8:29:fe:17:f6:52:3c:d5:15:bf:20:57:
        b9:91:26:56
-----BEGIN CERTIFICATE-----
MIIDdDCCAlygAwIBAgIRALWyfOCXa2Zrb8dFE8193M0wDQYJKoZIhvcNAQELBQAw
FTETMBEGA1UEAwwKdGVhbTY4LW5ldDAeFw0yMzExMDQxMTI4NDFaFw0yNjEwMTkx
MTI4NDFaMBgxFjAUBgNVBAMMDXRlYW02OC1zZXJ2ZXIwggEiMA0GCSqGSIb3DQEB
AQUAA4IBDwAwggEKAoIBAQDW5hs44mDpvnTDPIutJVF88c28FrVmLpWpLXpCEAAq
uMasyyXJe5UNnmYNEe6cY7eOgmz0pp6MCwoCV0Kf8cjWs2ydfUHkwX+OG3d5ZyTK
ozn89jzjIXH3k/swMhtbjZVfkY9SpxtQSRCQO+Env8Qt2JttNv7+IeqoUJSlFvZp
ySPValvHUhUmRZi3bFZeku70aK70smUxvyUj0bnYmCcaSp73zmhn0jTmgsedWcQ6
Vg0vpWclHrcDGM/bWizKlbkhXgVX6LttnxQc7vAX3U+AJFLS5+ckD26Yayqun4ZK
HZuMDBnqiHGeUYy94I1F0n4PxNyz8Z0VuyAmjhvlaMM9AgMBAAGjgbswgbgwCQYD
VR0TBAIwADAdBgNVHQ4EFgQUX2mnUQBKh3PAFDu0dHHlq/TzCzswUAYDVR0jBEkw
R4AUwmGusfPgiAOXNPAuc3/5wW9JdDWhGaQXMBUxEzARBgNVBAMMCnRlYW02OC1u
ZXSCFH8wAk39DZswlKwvWHPbt+1wqwsJMBMGA1UdJQQMMAoGCCsGAQUFBwMBMAsG
A1UdDwQEAwIFoDAYBgNVHREEETAPgg10ZWFtNjgtc2VydmVyMA0GCSqGSIb3DQEB
CwUAA4IBAQBATjMtR+Yp8w5ytrnzJ9Jg5Lw95neQzvmpz12xV5O+63SyKhXW1cKy
rWGcXGGEj9/viSbBs/bwxYwkiK6Rwx7wc8HGEY2axRJpC4736CL20NcyaHUo00Nr
Qcti7CjLZ+JdTFZGJhZqPUq8XQ4JiEcsPEm65QaxaaSycDQicW0T4v+slTjUBxT/
zeN1/lV4rInWDRUBO12kjJMLlKb4Is5b4CQNEKCipqbnVV9u4FxV1xlNiiqmH0yw
jMMaFyeGbYdB+wLSPGDOe3qDffhRt8d8MSRNhbz8qaXlLa/IogC1M0vueQOhdbkk
ZIjdOZoUt6rIKf4X9lI81RW/IFe5kSZW
-----END CERTIFICATE-----
