Certificate:
    Data:
        Version: 3 (0x2)
        Serial Number:
            08:53:e6:91:ad:1f:67:f8:3f:82:a3:cc:0e:13:c8:c1
        Signature Algorithm: sha256WithRSAEncryption
        Issuer: CN=team273-net
        Validity
            Not Before: Nov  4 11:33:09 2023 GMT
            Not After : Oct 19 11:33:09 2026 GMT
        Subject: CN=team273-client
        Subject Public Key Info:
            Public Key Algorithm: rsaEncryption
                Public-Key: (2048 bit)
                Modulus:
                    00:ca:89:9e:23:d7:0b:3f:bc:7c:20:84:cd:fa:66:
                    94:c5:9c:1a:6c:e6:ff:94:53:45:7f:c4:86:ce:88:
                    d5:7c:fd:fb:d2:93:a9:8f:09:40:d7:3f:e2:5d:a1:
                    e9:59:c9:78:b0:9c:12:08:97:9b:08:4c:d8:6d:f0:
                    a8:26:d1:a9:6e:dc:9a:8f:86:97:2b:83:93:dd:f5:
                    10:96:be:7a:1c:10:ad:a2:d0:43:07:25:90:a5:87:
                    51:31:c1:5c:da:17:03:ba:0a:4a:15:cb:70:33:e5:
                    b6:1b:de:21:91:e0:46:a1:86:04:bb:2d:52:30:41:
                    89:7e:4b:49:18:0f:f6:2f:12:d6:d6:fa:4d:ad:51:
                    33:7e:f6:02:1b:fd:75:28:3f:f7:f6:14:d5:d9:98:
                    e5:13:5f:67:02:1e:eb:c6:67:d7:fe:6d:66:53:fd:
                    57:b3:8e:ed:dc:d2:47:df:4a:b4:f7:a1:0e:e1:5b:
                    2f:83:77:bd:05:e6:ca:7b:00:a2:dc:a2:91:17:d0:
                    1c:1d:d8:03:fe:ee:0e:d1:f7:69:1f:21:a6:09:44:
                    e8:f6:eb:6b:71:b8:f6:fa:06:25:43:f9:66:c9:7b:
                    93:91:ce:c3:2e:e0:93:0d:1c:74:65:e9:e9:b7:aa:
                    72:e5:86:53:75:59:0f:8d:0a:e0:d6:19:fb:6f:f2:
                    fd:1f
                Exponent: 65537 (0x10001)
        X509v3 extensions:
            X509v3 Basic Constraints: 
                CA:FALSE
            X509v3 Subject Key Identifier: 
                5C:EF:66:A5:92:A8:CF:09:7D:99:DB:5B:A2:0B:F7:EA:D5:E8:A4:C5
            X509v3 Authority Key Identifier: 
                keyid:F8:53:EE:C5:67:2D:83:0B:FA:B1:A6:4F:F4:ED:53:7B:85:5D:33:85
                DirName:/CN=team273-net
                serial:48:FC:84:F1:64:D3:30:CB:AF:B5:D0:2F:EE:D7:E8:19:3C:89:32:E6
            X509v3 Extended Key Usage: 
                TLS Web Client Authentication
            X509v3 Key Usage: 
                Digital Signature
    Signature Algorithm: sha256WithRSAEncryption
    Signature Value:
        39:d0:cb:5b:b1:30:3b:b0:1e:3b:f7:5f:58:da:8b:10:bb:24:
        4a:51:6b:63:9f:4c:06:98:ac:cd:7b:db:9d:b0:36:be:80:90:
        a4:68:3b:37:46:b5:9a:c1:cb:c3:d4:ec:70:62:4e:bd:a0:7f:
        61:6a:3a:22:4c:70:07:db:02:cd:b5:63:fa:91:91:cc:67:04:
        9e:ef:ba:45:b9:b7:ed:c2:06:81:60:2c:10:be:35:4e:b3:3f:
        be:9c:6b:87:36:7b:53:a5:0d:89:36:1f:f7:dc:8a:63:7e:d9:
        42:9d:a8:23:db:6d:69:8a:c9:e0:16:b0:88:76:81:fa:4e:0a:
        6e:47:62:36:13:6f:2f:18:ba:3e:c9:af:c6:12:2c:7c:e5:2e:
        1f:1a:81:e3:e3:d1:4c:3d:15:80:ba:7e:cb:38:bc:40:4b:ca:
        5c:4a:c8:d3:6f:62:36:95:6e:ca:e8:0f:bf:04:fa:32:60:03:
        82:88:58:46:4e:1a:71:6f:59:f2:5d:06:2a:01:5e:1e:98:e1:
        a1:fe:99:3a:d9:c1:8f:8f:ac:68:fc:b8:8b:70:6e:6e:33:6e:
        18:83:97:84:2b:ad:f5:c3:76:e1:04:4b:b3:8a:e7:c3:96:7d:
        31:e8:1a:a0:dd:00:eb:11:8b:c4:a8:44:e3:55:52:a3:5f:45:
        db:ad:46:49
-----BEGIN CERTIFICATE-----
MIIDXDCCAkSgAwIBAgIQCFPmka0fZ/g/gqPMDhPIwTANBgkqhkiG9w0BAQsFADAW
MRQwEgYDVQQDDAt0ZWFtMjczLW5ldDAeFw0yMzExMDQxMTMzMDlaFw0yNjEwMTkx
MTMzMDlaMBkxFzAVBgNVBAMMDnRlYW0yNzMtY2xpZW50MIIBIjANBgkqhkiG9w0B
AQEFAAOCAQ8AMIIBCgKCAQEAyomeI9cLP7x8IITN+maUxZwabOb/lFNFf8SGzojV
fP370pOpjwlA1z/iXaHpWcl4sJwSCJebCEzYbfCoJtGpbtyaj4aXK4OT3fUQlr56
HBCtotBDByWQpYdRMcFc2hcDugpKFctwM+W2G94hkeBGoYYEuy1SMEGJfktJGA/2
LxLW1vpNrVEzfvYCG/11KD/39hTV2ZjlE19nAh7rxmfX/m1mU/1Xs47t3NJH30q0
96EO4Vsvg3e9BebKewCi3KKRF9AcHdgD/u4O0fdpHyGmCUTo9utrcbj2+gYlQ/lm
yXuTkc7DLuCTDRx0Zenpt6py5YZTdVkPjQrg1hn7b/L9HwIDAQABo4GiMIGfMAkG
A1UdEwQCMAAwHQYDVR0OBBYEFFzvZqWSqM8JfZnbW6IL9+rV6KTFMFEGA1UdIwRK
MEiAFPhT7sVnLYML+rGmT/TtU3uFXTOFoRqkGDAWMRQwEgYDVQQDDAt0ZWFtMjcz
LW5ldIIUSPyE8WTTMMuvtdAv7tfoGTyJMuYwEwYDVR0lBAwwCgYIKwYBBQUHAwIw
CwYDVR0PBAQDAgeAMA0GCSqGSIb3DQEBCwUAA4IBAQA50MtbsTA7sB47919Y2osQ
uyRKUWtjn0wGmKzNe9udsDa+gJCkaDs3RrWawcvD1OxwYk69oH9hajoiTHAH2wLN
tWP6kZHMZwSe77pFubftwgaBYCwQvjVOsz++nGuHNntTpQ2JNh/33IpjftlCnagj
221pisngFrCIdoH6TgpuR2I2E28vGLo+ya/GEix85S4fGoHj49FMPRWAun7LOLxA
S8pcSsjTb2I2lW7K6A+/BPoyYAOCiFhGThpxb1nyXQYqAV4emOGh/pk62cGPj6xo
/LiLcG5uM24Yg5eEK631w3bhBEuziufDln0x6Bqg3QDrEYvEqETjVVKjX0XbrUZJ
-----END CERTIFICATE-----
