Certificate:
    Data:
        Version: 3 (0x2)
        Serial Number:
            3d:f9:e5:4e:6f:00:ca:bd:5c:91:53:a6:c4:99:76:78
        Signature Algorithm: sha256WithRSAEncryption
        Issuer: CN=team273-net
        Validity
            Not Before: Nov  4 11:33:10 2023 GMT
            Not After : Oct 19 11:33:10 2026 GMT
        Subject: CN=team273-server
        Subject Public Key Info:
            Public Key Algorithm: rsaEncryption
                Public-Key: (2048 bit)
                Modulus:
                    00:a0:16:a1:eb:da:6a:22:56:eb:8a:d3:1b:dc:83:
                    0a:03:14:8b:82:09:11:61:0c:4d:9d:b9:96:58:0c:
                    2f:34:7b:95:ab:6e:a8:a3:13:29:62:73:b9:bf:36:
                    84:d8:ea:c0:a5:3e:15:50:44:19:c2:eb:31:69:66:
                    6d:11:02:84:f3:dc:19:1b:65:6c:f7:84:cc:0f:85:
                    57:69:56:e1:9a:9b:be:4c:6a:32:ef:d1:1b:30:40:
                    6e:a9:09:80:d2:60:81:a2:f1:8c:f3:b7:bd:db:7e:
                    79:b9:3c:fe:43:46:2e:86:1c:2c:59:34:13:ce:32:
                    30:73:44:55:3a:d3:b2:76:68:64:1e:45:41:c3:03:
                    a5:57:ea:80:79:0e:96:c9:4f:58:10:ba:b1:d8:cd:
                    01:93:53:69:d7:59:6c:35:4b:7a:df:0f:24:fa:31:
                    83:16:73:fb:50:03:7a:ce:9b:a0:c9:3c:7b:d8:88:
                    13:07:3e:78:7b:d9:5f:78:bd:11:88:05:3d:69:a5:
                    ca:a9:b5:f5:8e:52:d7:d5:eb:6e:81:09:ed:13:e1:
                    5f:19:b0:21:c4:44:6c:7d:93:ba:47:28:69:eb:b7:
                    68:83:52:fa:78:8f:89:e8:29:84:bb:0a:bb:46:1d:
                    ef:86:aa:9b:cf:e8:81:8e:f0:cf:e3:0b:2c:0f:fb:
                    c1:03
                Exponent: 65537 (0x10001)
        X509v3 extensions:
            X509v3 Basic Constraints: 
                CA:FALSE
            X509v3 Subject Key Identifier: 
                A5:BC:25:22:C6:70:4B:48:14:6B:4D:58:6D:07:C4:4C:A1:BA:B2:35
            X509v3 Authority Key Identifier: 
                keyid:F8:53:EE:C5:67:2D:83:0B:FA:B1:A6:4F:F4:ED:53:7B:85:5D:33:85
                DirName:/CN=team273-net
                serial:48:FC:84:F1:64:D3:30:CB:AF:B5:D0:2F:EE:D7:E8:19:3C:89:32:E6
            X509v3 Extended Key Usage: 
                TLS Web Server Authentication
            X509v3 Key Usage: 
                Digital Signature, Key Encipherment
            X509v3 Subject Alternative Name: 
                DNS:team273-server
    Signature Algorithm: sha256WithRSAEncryption
    Signature Value:
        72:e7:5f:67:09:3c:7b:3a:66:ad:ef:67:85:fe:c7:73:de:54:
        ee:8c:a1:e6:c3:1c:5f:97:b4:e3:fc:13:63:ef:50:5c:46:1c:
        a0:87:2b:08:89:5f:93:b2:66:23:a1:33:00:f3:3e:74:b7:7d:
        fa:58:5e:66:d3:8e:8c:5f:ca:5a:a6:fd:1b:8e:5f:93:50:ce:
        a3:83:96:b2:03:14:4f:d6:32:9b:44:18:6b:24:48:a9:6f:29:
        a3:68:03:d2:a9:c5:9b:55:74:b9:3b:98:4d:9e:25:e4:91:1e:
        f4:22:bd:e5:8e:8b:52:a8:9d:89:e3:c2:e1:ae:09:0d:4a:1f:
        d2:b4:6c:a2:be:b9:c6:d7:cc:7f:4c:7b:0a:1d:fb:ab:ce:55:
        21:ad:5d:cb:65:bf:93:07:18:4e:2d:07:75:1d:fc:2e:35:11:
        2b:93:93:7a:97:0e:de:28:7d:50:a8:4f:96:24:25:48:ef:17:
        e8:18:74:06:93:18:5d:bc:68:12:20:f0:ce:49:b8:3d:ab:15:
        71:1c:42:06:6f:92:32:02:d3:88:44:62:8e:d9:7c:f0:64:01:
        2f:c3:93:f8:52:7c:c3:05:b1:24:27:b8:9d:c1:4e:21:d1:17:
        78:05:90:d6:f5:74:2c:ef:c7:be:9e:d1:c4:dd:6d:7c:6e:41:
        83:e9:2a:31
-----BEGIN CERTIFICATE-----
MIIDdzCCAl+gAwIBAgIQPfnlTm8Ayr1ckVOmxJl2eDANBgkqhkiG9w0BAQsFADAW
MRQwEgYDVQQDDAt0ZWFtMjczLW5ldDAeFw0yMzExMDQxMTMzMTBaFw0yNjEwMTkx
MTMzMTBaMBkxFzAVBgNVBAMMDnRlYW0yNzMtc2VydmVyMIIBIjANBgkqhkiG9w0B
AQEFAAOCAQ8AMIIBCgKCAQEAoBah69pqIlbritMb3IMKAxSLggkRYQxNnbmWWAwv
NHuVq26ooxMpYnO5vzaE2OrApT4VUEQZwusxaWZtEQKE89wZG2Vs94TMD4VXaVbh
mpu+TGoy79EbMEBuqQmA0mCBovGM87e92355uTz+Q0YuhhwsWTQTzjIwc0RVOtOy
dmhkHkVBwwOlV+qAeQ6WyU9YELqx2M0Bk1Np11lsNUt63w8k+jGDFnP7UAN6zpug
yTx72IgTBz54e9lfeL0RiAU9aaXKqbX1jlLX1etugQntE+FfGbAhxERsfZO6Ryhp
67dog1L6eI+J6CmEuwq7Rh3vhqqbz+iBjvDP4wssD/vBAwIDAQABo4G9MIG6MAkG
A1UdEwQCMAAwHQYDVR0OBBYEFKW8JSLGcEtIFGtNWG0HxEyhurI1MFEGA1UdIwRK
MEiAFPhT7sVnLYML+rGmT/TtU3uFXTOFoRqkGDAWMRQwEgYDVQQDDAt0ZWFtMjcz
LW5ldIIUSPyE8WTTMMuvtdAv7tfoGTyJMuYwEwYDVR0lBAwwCgYIKwYBBQUHAwEw
CwYDVR0PBAQDAgWgMBkGA1UdEQQSMBCCDnRlYW0yNzMtc2VydmVyMA0GCSqGSIb3
DQEBCwUAA4IBAQBy519nCTx7Omat72eF/sdz3lTujKHmwxxfl7Tj/BNj71BcRhyg
hysIiV+TsmYjoTMA8z50t336WF5m046MX8papv0bjl+TUM6jg5ayAxRP1jKbRBhr
JEipbymjaAPSqcWbVXS5O5hNniXkkR70Ir3ljotSqJ2J48LhrgkNSh/StGyivrnG
18x/THsKHfurzlUhrV3LZb+TBxhOLQd1HfwuNRErk5N6lw7eKH1QqE+WJCVI7xfo
GHQGkxhdvGgSIPDOSbg9qxVxHEIGb5IyAtOIRGKO2XzwZAEvw5P4UnzDBbEkJ7id
wU4h0Rd4BZDW9XQs78e+ntHE3W18bkGD6Sox
-----END CERTIFICATE-----
