Certificate:
    Data:
        Version: 3 (0x2)
        Serial Number:
            f2:f9:18:26:ac:df:c5:b4:a1:d6:da:34:8e:a2:eb:26
        Signature Algorithm: sha256WithRSAEncryption
        Issuer: CN=team273-net
        Validity
            Not Before: Nov  4 10:45:44 2023 GMT
            Not After : Oct 19 10:45:44 2026 GMT
        Subject: CN=team273-server
        Subject Public Key Info:
            Public Key Algorithm: rsaEncryption
                Public-Key: (2048 bit)
                Modulus:
                    00:d7:c8:94:ee:df:4b:65:28:0e:3c:bb:cd:c7:27:
                    33:dc:62:02:20:c6:f9:3f:99:68:d1:b2:e3:0f:e7:
                    c7:32:19:db:b2:ec:0d:7f:36:17:48:6c:78:ab:f0:
                    76:62:67:14:d2:79:e5:71:b3:e3:3a:b7:df:88:97:
                    82:f5:8a:0c:ff:ec:7a:ea:ce:d1:4f:2a:27:fe:ee:
                    8f:08:bc:9b:ac:a8:8b:93:b9:c8:a9:b5:84:00:58:
                    f6:ea:67:fa:a3:71:4c:ba:25:62:ea:48:e5:b1:6d:
                    1a:26:f8:3a:ed:1a:8a:bd:a3:87:20:a8:ce:54:bf:
                    4c:c3:8e:f8:cc:48:c3:86:37:9e:60:b2:c9:ec:c8:
                    dd:62:10:a5:40:bc:da:ed:fa:58:69:2c:bd:d8:ab:
                    e3:8d:3e:af:85:a7:0d:b2:9c:22:fd:ee:e5:f9:f6:
                    44:86:ec:de:92:70:57:80:41:8e:36:1f:d8:3b:a0:
                    43:78:72:c8:25:55:da:b9:ac:2b:63:49:8a:45:b0:
                    a0:e1:d8:62:1e:47:56:a8:5c:65:8c:98:0f:fa:a9:
                    5b:b0:9b:07:88:b4:36:b3:8a:2f:2a:da:4f:c7:c6:
                    d6:71:5a:b0:1e:d2:bb:3b:c1:e4:97:e2:bd:a4:5f:
                    3d:62:73:45:a9:a4:47:f3:1e:ed:b5:a9:97:d1:39:
                    2d:d7
                Exponent: 65537 (0x10001)
        X509v3 extensions:
            X509v3 Basic Constraints: 
                CA:FALSE
            X509v3 Subject Key Identifier: 
                89:00:88:A6:ED:1D:44:D6:9D:DC:AA:33:D0:F4:6F:63:2A:C4:DA:B0
            X509v3 Authority Key Identifier: 
                keyid:83:AF:6D:36:44:FD:D6:07:B9:91:41:E3:70:52:62:C5:24:53:CB:5B
                DirName:/CN=team273-net
                serial:02:5B:5B:F6:C6:1A:16:C0:8C:23:98:0B:5E:7B:C6:53:AC:94:95:32
            X509v3 Extended Key Usage: 
                TLS Web Server Authentication
            X509v3 Key Usage: 
                Digital Signature, Key Encipherment
            X509v3 Subject Alternative Name: 
                DNS:team273-server
    Signature Algorithm: sha256WithRSAEncryption
    Signature Value:
        b9:83:ce:26:2b:f9:b2:6f:63:fc:a4:0d:f6:61:30:e0:f8:e9:
        5f:69:cb:82:b2:54:e7:e0:b9:c9:98:89:ea:55:de:5e:6f:34:
        9a:b5:01:87:26:f3:e6:76:02:d5:09:4e:d9:38:57:aa:12:d2:
        cb:67:c9:83:1b:d8:67:7f:10:75:69:e6:10:b1:b7:46:bd:95:
        ea:f5:f5:9e:35:7e:57:22:d7:80:96:5c:2a:fd:d0:fb:8b:f1:
        25:cc:e3:90:2a:51:7f:a2:df:1f:84:dd:a4:76:03:78:7b:93:
        c6:df:dd:87:4d:a9:14:32:0d:c4:fd:6a:d4:27:f2:d4:44:8d:
        e4:bb:93:ee:f8:ec:d4:3c:e6:b3:b0:fd:17:a5:66:85:f5:e7:
        a9:55:2d:e2:c5:15:0b:d8:fe:0b:4b:a5:98:7e:82:05:86:f1:
        4d:1e:30:6c:7f:09:07:e6:a5:0c:88:b9:fa:cb:a0:e5:bc:3d:
        a0:86:ad:2a:5a:5e:69:40:70:73:34:c0:0b:dc:8a:32:ea:f4:
        12:df:54:99:38:89:a9:fd:55:ec:98:b4:3d:de:84:65:73:ed:
        4f:8f:d7:36:94:31:32:65:15:0e:06:2c:80:9c:8a:69:14:10:
        cd:1f:2b:97:5a:d9:a2:89:62:f3:d8:61:6f:6a:4a:b0:ed:d5:
        ee:2e:59:46
-----BEGIN CERTIFICATE-----
MIIDeDCCAmCgAwIBAgIRAPL5GCas38W0odbaNI6i6yYwDQYJKoZIhvcNAQELBQAw
FjEUMBIGA1UEAwwLdGVhbTI3My1uZXQwHhcNMjMxMTA0MTA0NTQ0WhcNMjYxMDE5
MTA0NTQ0WjAZMRcwFQYDVQQDDA50ZWFtMjczLXNlcnZlcjCCASIwDQYJKoZIhvcN
AQEBBQADggEPADCCAQoCggEBANfIlO7fS2UoDjy7zccnM9xiAiDG+T+ZaNGy4w/n
xzIZ27LsDX82F0hseKvwdmJnFNJ55XGz4zq334iXgvWKDP/seurO0U8qJ/7ujwi8
m6yoi5O5yKm1hABY9upn+qNxTLolYupI5bFtGib4Ou0air2jhyCozlS/TMOO+MxI
w4Y3nmCyyezI3WIQpUC82u36WGksvdir440+r4WnDbKcIv3u5fn2RIbs3pJwV4BB
jjYf2DugQ3hyyCVV2rmsK2NJikWwoOHYYh5HVqhcZYyYD/qpW7CbB4i0NrOKLyra
T8fG1nFasB7SuzvB5JfivaRfPWJzRamkR/Me7bWpl9E5LdcCAwEAAaOBvTCBujAJ
BgNVHRMEAjAAMB0GA1UdDgQWBBSJAIim7R1E1p3cqjPQ9G9jKsTasDBRBgNVHSME
SjBIgBSDr202RP3WB7mRQeNwUmLFJFPLW6EapBgwFjEUMBIGA1UEAwwLdGVhbTI3
My1uZXSCFAJbW/bGGhbAjCOYC157xlOslJUyMBMGA1UdJQQMMAoGCCsGAQUFBwMB
MAsGA1UdDwQEAwIFoDAZBgNVHREEEjAQgg50ZWFtMjczLXNlcnZlcjANBgkqhkiG
9w0BAQsFAAOCAQEAuYPOJiv5sm9j/KQN9mEw4PjpX2nLgrJU5+C5yZiJ6lXeXm80
mrUBhybz5nYC1QlO2ThXqhLSy2fJgxvYZ38QdWnmELG3Rr2V6vX1njV+VyLXgJZc
Kv3Q+4vxJczjkCpRf6LfH4TdpHYDeHuTxt/dh02pFDINxP1q1Cfy1ESN5LuT7vjs
1Dzms7D9F6VmhfXnqVUt4sUVC9j+C0ulmH6CBYbxTR4wbH8JB+alDIi5+sug5bw9
oIatKlpeaUBwczTAC9yKMur0Et9UmTiJqf1V7Ji0Pd6EZXPtT4/XNpQxMmUVDgYs
gJyKaRQQzR8rl1rZooli89hhb2pKsO3V7i5ZRg==
-----END CERTIFICATE-----
