Certificate:
    Data:
        Version: 3 (0x2)
        Serial Number:
            01:56:5b:bf:98:5a:29:94:15:41:be:a0:ec:47:77:2c
        Signature Algorithm: sha256WithRSAEncryption
        Issuer: CN=team465-net
        Validity
            Not Before: Nov  3 20:47:44 2023 GMT
            Not After : Oct 18 20:47:44 2026 GMT
        Subject: CN=team465-server
        Subject Public Key Info:
            Public Key Algorithm: rsaEncryption
                Public-Key: (2048 bit)
                Modulus:
                    00:aa:01:1d:5e:14:ae:f6:02:fd:9b:12:2a:29:c7:
                    29:ec:41:94:a9:b9:f2:6b:12:a4:60:11:48:c5:35:
                    d3:71:2a:d2:36:78:ee:36:16:4d:f8:56:83:53:7e:
                    4d:81:00:68:82:e1:01:b6:b7:22:a7:d9:7e:fd:5e:
                    a0:3a:93:d9:3a:08:20:d7:ae:a9:24:8a:6f:da:cd:
                    4e:ee:f5:8f:bb:45:26:0d:c4:02:ce:0d:13:a7:b4:
                    58:c3:be:04:65:9e:3a:02:91:16:63:e8:a0:e7:b0:
                    c1:6a:0e:d8:3e:40:da:42:46:bc:fb:73:08:4d:0f:
                    54:cf:1d:15:bc:16:40:84:24:80:71:e0:ae:37:6a:
                    54:43:58:8c:48:6a:7f:43:6d:f5:9a:ce:08:ae:29:
                    54:06:b3:a8:43:90:f8:cc:a2:4d:60:29:51:89:d6:
                    ed:9a:7b:d1:98:21:c5:65:32:e1:be:09:a5:b8:11:
                    57:04:81:59:36:38:ef:bc:97:68:fc:b2:f0:33:cf:
                    b1:4a:0c:ca:62:d7:2f:e3:66:bf:20:62:47:de:39:
                    cf:b9:41:1e:53:54:cd:93:a9:42:35:1d:ba:f6:58:
                    6a:69:c5:bd:3e:00:d8:4f:3f:f7:d6:19:8e:40:37:
                    10:f8:e6:a7:d8:2b:8e:cb:ca:ed:ef:ba:f7:07:2a:
                    8a:43
                Exponent: 65537 (0x10001)
        X509v3 extensions:
            X509v3 Basic Constraints: 
                CA:FALSE
            X509v3 Subject Key Identifier: 
                86:FD:42:66:B2:D9:FC:2C:C6:26:95:69:13:5C:1B:77:2C:82:AC:B5
            X509v3 Authority Key Identifier: 
                keyid:08:2A:08:54:93:11:E4:92:EB:AA:4C:08:BD:45:45:B2:89:D5:31:F8
                DirName:/CN=team465-net
                serial:06:D4:DB:D0:9D:F2:04:D8:FB:5F:FF:0F:29:CA:9F:22:F6:D2:08:D3
            X509v3 Extended Key Usage: 
                TLS Web Server Authentication
            X509v3 Key Usage: 
                Digital Signature, Key Encipherment
            X509v3 Subject Alternative Name: 
                DNS:team465-server
    Signature Algorithm: sha256WithRSAEncryption
    Signature Value:
        70:b7:73:9b:25:4a:44:1c:68:f4:f4:63:7c:0b:84:b1:85:46:
        19:ed:0e:00:2a:68:69:f4:56:b2:c3:a7:93:ee:88:5f:aa:cc:
        9c:16:78:eb:90:a6:11:ac:10:03:61:b7:f3:70:df:90:e3:c5:
        e3:43:10:a6:95:e6:a6:60:ec:9c:9a:70:3b:fa:11:4e:b8:49:
        74:f2:b5:77:b7:f8:4b:62:8b:2b:a0:14:94:28:6e:2c:64:45:
        f6:16:cc:7d:95:80:4f:e0:78:5e:98:fc:f6:e5:41:36:a1:67:
        55:6f:70:ea:4f:6d:c5:07:fa:b5:6e:a2:f8:f6:de:ff:d2:79:
        18:14:40:2a:16:4c:13:94:51:75:94:7c:52:9f:15:88:eb:31:
        33:64:9f:53:70:9c:ce:ca:58:55:83:6e:93:3d:3b:61:58:35:
        0f:7b:70:e1:49:8f:3b:2a:9c:91:ac:f3:2d:3d:8f:0c:4a:68:
        3a:8b:81:0f:9a:d8:37:bd:45:10:e3:19:08:9f:44:a0:11:14:
        a6:d6:b9:9b:b5:7c:a4:f6:e4:d6:a3:f8:67:81:7c:2c:55:a3:
        8b:f8:4a:3a:b5:ab:73:a3:7c:65:e1:8a:21:ea:c3:ed:c2:2b:
        8f:48:89:18:73:af:60:bb:79:17:e7:b1:50:c0:72:1d:bc:97:
        09:06:21:6a
-----BEGIN CERTIFICATE-----
MIIDdzCCAl+gAwIBAgIQAVZbv5haKZQVQb6g7Ed3LDANBgkqhkiG9w0BAQsFADAW
MRQwEgYDVQQDDAt0ZWFtNDY1LW5ldDAeFw0yMzExMDMyMDQ3NDRaFw0yNjEwMTgy
MDQ3NDRaMBkxFzAVBgNVBAMMDnRlYW00NjUtc2VydmVyMIIBIjANBgkqhkiG9w0B
AQEFAAOCAQ8AMIIBCgKCAQEAqgEdXhSu9gL9mxIqKccp7EGUqbnyaxKkYBFIxTXT
cSrSNnjuNhZN+FaDU35NgQBoguEBtrcip9l+/V6gOpPZOggg166pJIpv2s1O7vWP
u0UmDcQCzg0Tp7RYw74EZZ46ApEWY+ig57DBag7YPkDaQka8+3MITQ9Uzx0VvBZA
hCSAceCuN2pUQ1iMSGp/Q231ms4IrilUBrOoQ5D4zKJNYClRidbtmnvRmCHFZTLh
vgmluBFXBIFZNjjvvJdo/LLwM8+xSgzKYtcv42a/IGJH3jnPuUEeU1TNk6lCNR26
9lhqacW9PgDYTz/31hmOQDcQ+Oan2CuOy8rt77r3ByqKQwIDAQABo4G9MIG6MAkG
A1UdEwQCMAAwHQYDVR0OBBYEFIb9Qmay2fwsxiaVaRNcG3csgqy1MFEGA1UdIwRK
MEiAFAgqCFSTEeSS66pMCL1FRbKJ1TH4oRqkGDAWMRQwEgYDVQQDDAt0ZWFtNDY1
LW5ldIIUBtTb0J3yBNj7X/8PKcqfIvbSCNMwEwYDVR0lBAwwCgYIKwYBBQUHAwEw
CwYDVR0PBAQDAgWgMBkGA1UdEQQSMBCCDnRlYW00NjUtc2VydmVyMA0GCSqGSIb3
DQEBCwUAA4IBAQBwt3ObJUpEHGj09GN8C4SxhUYZ7Q4AKmhp9Fayw6eT7ohfqsyc
FnjrkKYRrBADYbfzcN+Q48XjQxCmleamYOycmnA7+hFOuEl08rV3t/hLYosroBSU
KG4sZEX2Fsx9lYBP4HhemPz25UE2oWdVb3DqT23FB/q1bqL49t7/0nkYFEAqFkwT
lFF1lHxSnxWI6zEzZJ9TcJzOylhVg26TPTthWDUPe3DhSY87KpyRrPMtPY8MSmg6
i4EPmtg3vUUQ4xkIn0SgERSm1rmbtXyk9uTWo/hngXwsVaOL+Eo6tatzo3xl4Yoh
6sPtwiuPSIkYc69gu3kX57FQwHIdvJcJBiFq
-----END CERTIFICATE-----
