Certificate:
    Data:
        Version: 3 (0x2)
        Serial Number:
            ca:07:4a:dc:c6:ce:ea:6f:15:84:bc:6f:aa:3b:5e:b6
        Signature Algorithm: sha256WithRSAEncryption
        Issuer: CN=team465-net
        Validity
            Not Before: Nov  4 11:38:01 2023 GMT
            Not After : Oct 19 11:38:01 2026 GMT
        Subject: CN=team465-client
        Subject Public Key Info:
            Public Key Algorithm: rsaEncryption
                Public-Key: (2048 bit)
                Modulus:
                    00:b8:06:10:8c:02:1a:cb:bc:b9:15:af:19:e6:ee:
                    2e:1c:a5:fa:20:83:eb:52:d3:c9:31:51:04:c9:9a:
                    2f:cb:bd:ec:55:42:0a:e0:bc:36:77:b6:f3:37:12:
                    1c:64:22:bd:c6:f8:50:fb:2a:ad:ce:e4:c9:8f:62:
                    30:4f:c2:5d:c6:37:66:b5:86:1a:db:ec:91:51:86:
                    06:3d:12:d4:fb:cb:97:32:ca:48:31:dd:8f:8f:c1:
                    ea:28:42:e7:ec:af:2b:32:25:21:09:ca:c6:37:99:
                    0a:25:39:68:8e:70:42:93:2b:93:52:62:f1:d2:cc:
                    be:e5:0e:83:c5:d5:d2:a2:57:44:b2:19:e2:c8:35:
                    69:5f:7b:0b:a4:6d:1d:6d:a1:88:98:fb:c7:e0:56:
                    af:41:21:06:64:70:f3:81:ca:77:a4:af:21:73:ac:
                    66:0d:27:05:c4:44:11:39:3e:11:75:e4:b0:3a:83:
                    35:5d:dd:0f:f1:6e:07:3f:04:11:df:48:51:fa:e1:
                    90:3d:a7:c4:ca:ca:a8:d3:2a:93:7d:36:14:21:c0:
                    e8:1a:80:2a:1b:b8:b2:69:2b:66:17:49:56:60:9d:
                    d5:d3:f0:40:48:eb:98:d3:25:63:53:3d:84:fe:92:
                    6d:7d:94:c6:d6:3d:53:6f:e3:8b:f9:f8:c2:47:a3:
                    b2:05
                Exponent: 65537 (0x10001)
        X509v3 extensions:
            X509v3 Basic Constraints: 
                CA:FALSE
            X509v3 Subject Key Identifier: 
                C4:53:0E:90:98:22:96:62:26:C3:35:E6:C6:E2:58:8E:90:5A:08:F4
            X509v3 Authority Key Identifier: 
                keyid:95:C2:EC:13:15:54:DC:F5:0A:21:6A:4F:16:36:B4:43:48:B7:35:E4
                DirName:/CN=team465-net
                serial:38:A9:54:AD:BA:B6:E8:97:BA:E2:83:5E:E3:3D:FB:EA:CC:FA:6E:F0
            X509v3 Extended Key Usage: 
                TLS Web Client Authentication
            X509v3 Key Usage: 
                Digital Signature
    Signature Algorithm: sha256WithRSAEncryption
    Signature Value:
        9e:d5:8c:f0:76:a1:c0:2c:52:92:5a:92:82:39:77:25:d9:d1:
        97:8b:f2:db:86:2a:66:fc:20:b7:b7:06:83:ad:c4:03:83:64:
        37:09:58:91:e0:be:d6:47:0d:07:8f:09:aa:20:e4:a7:de:6c:
        24:05:cb:1a:bb:56:68:23:2f:99:12:1d:71:eb:88:bf:12:bf:
        2e:09:c9:c9:4c:96:d5:b6:da:21:d8:d6:0c:b5:67:e9:4a:22:
        c4:50:0c:98:a1:b4:06:68:26:7e:21:34:1b:6b:a3:4d:bb:12:
        95:fd:93:0d:ce:92:d6:3e:eb:98:ad:55:b9:47:0d:27:02:52:
        cb:cc:bd:4a:27:84:57:30:ed:4d:b2:43:40:0a:22:2d:9f:ee:
        5c:6d:16:e6:ee:94:4d:f4:a9:6c:3c:19:b5:26:48:8d:d4:64:
        99:d3:60:d2:e4:e4:2b:a3:c7:0e:f2:00:9d:90:7b:9e:29:e8:
        07:4f:6b:09:9c:28:84:bf:97:37:03:24:32:31:9d:fd:17:8a:
        e7:fc:62:43:f9:43:df:f5:17:73:7c:07:60:23:ba:63:91:1a:
        32:76:94:ad:88:6d:ab:ac:93:e4:a3:4f:0b:ed:37:da:82:d0:
        38:26:dc:bd:27:35:20:b7:30:2c:80:d3:b8:e7:d4:68:62:c4:
        de:e0:b1:28
-----BEGIN CERTIFICATE-----
MIIDXTCCAkWgAwIBAgIRAMoHStzGzupvFYS8b6o7XrYwDQYJKoZIhvcNAQELBQAw
FjEUMBIGA1UEAwwLdGVhbTQ2NS1uZXQwHhcNMjMxMTA0MTEzODAxWhcNMjYxMDE5
MTEzODAxWjAZMRcwFQYDVQQDDA50ZWFtNDY1LWNsaWVudDCCASIwDQYJKoZIhvcN
AQEBBQADggEPADCCAQoCggEBALgGEIwCGsu8uRWvGebuLhyl+iCD61LTyTFRBMma
L8u97FVCCuC8Nne28zcSHGQivcb4UPsqrc7kyY9iME/CXcY3ZrWGGtvskVGGBj0S
1PvLlzLKSDHdj4/B6ihC5+yvKzIlIQnKxjeZCiU5aI5wQpMrk1Ji8dLMvuUOg8XV
0qJXRLIZ4sg1aV97C6RtHW2hiJj7x+BWr0EhBmRw84HKd6SvIXOsZg0nBcREETk+
EXXksDqDNV3dD/FuBz8EEd9IUfrhkD2nxMrKqNMqk302FCHA6BqAKhu4smkrZhdJ
VmCd1dPwQEjrmNMlY1M9hP6SbX2UxtY9U2/ji/n4wkejsgUCAwEAAaOBojCBnzAJ
BgNVHRMEAjAAMB0GA1UdDgQWBBTEUw6QmCKWYibDNebG4liOkFoI9DBRBgNVHSME
SjBIgBSVwuwTFVTc9Qohak8WNrRDSLc15KEapBgwFjEUMBIGA1UEAwwLdGVhbTQ2
NS1uZXSCFDipVK26tuiXuuKDXuM9++rM+m7wMBMGA1UdJQQMMAoGCCsGAQUFBwMC
MAsGA1UdDwQEAwIHgDANBgkqhkiG9w0BAQsFAAOCAQEAntWM8HahwCxSklqSgjl3
JdnRl4vy24YqZvwgt7cGg63EA4NkNwlYkeC+1kcNB48JqiDkp95sJAXLGrtWaCMv
mRIdceuIvxK/LgnJyUyW1bbaIdjWDLVn6UoixFAMmKG0BmgmfiE0G2ujTbsSlf2T
Dc6S1j7rmK1VuUcNJwJSy8y9SieEVzDtTbJDQAoiLZ/uXG0W5u6UTfSpbDwZtSZI
jdRkmdNg0uTkK6PHDvIAnZB7ninoB09rCZwohL+XNwMkMjGd/ReK5/xiQ/lD3/UX
c3wHYCO6Y5EaMnaUrYhtq6yT5KNPC+032oLQOCbcvSc1ILcwLIDTuOfUaGLE3uCx
KA==
-----END CERTIFICATE-----
