Certificate:
    Data:
        Version: 3 (0x2)
        Serial Number:
            ce:19:68:68:6b:79:fc:f0:c8:62:26:7c:56:b5:f6:a7
        Signature Algorithm: sha256WithRSAEncryption
        Issuer: CN=team465-net
        Validity
            Not Before: Nov  4 10:48:53 2023 GMT
            Not After : Oct 19 10:48:53 2026 GMT
        Subject: CN=team465-server
        Subject Public Key Info:
            Public Key Algorithm: rsaEncryption
                Public-Key: (2048 bit)
                Modulus:
                    00:ce:ab:69:e8:26:ae:d8:a4:dd:51:f3:1b:a4:43:
                    7f:b4:45:a8:57:91:45:02:81:0b:04:dd:f5:2b:05:
                    5e:d5:81:4e:57:db:35:d6:89:b9:76:7e:e1:8a:a1:
                    7c:b2:5e:67:38:72:48:fe:67:96:63:5f:69:fe:29:
                    dc:01:14:b1:7e:de:13:d1:6a:64:af:df:23:05:61:
                    b8:d8:88:c5:82:8e:f3:73:1f:0d:6b:68:20:cd:7d:
                    9c:4a:f6:03:bd:09:a5:cb:c1:d0:92:ca:e0:d0:aa:
                    15:f0:3d:01:95:32:85:61:3f:0c:4f:38:60:7d:0a:
                    d5:2b:82:32:e0:8e:4c:3a:4e:58:bf:a1:62:f4:91:
                    99:62:12:9d:28:58:e1:34:9e:8c:89:cc:e5:c3:71:
                    41:af:bb:55:ab:2b:a8:2e:a1:d5:ea:bf:ff:34:91:
                    17:4d:1c:97:50:d4:06:4d:a7:53:7b:a6:b1:02:b3:
                    56:3b:8e:87:21:88:37:68:19:40:19:aa:4b:be:23:
                    40:63:b0:3e:db:31:ca:b4:e9:e5:4f:13:2e:99:6d:
                    8d:e2:84:07:9c:f0:e7:ed:47:a3:3b:ba:7c:29:1b:
                    63:60:88:e6:42:d2:84:fa:a1:fd:cd:26:8c:b9:dc:
                    0d:82:43:01:43:5a:84:15:a8:24:f2:69:e5:44:6e:
                    b4:29
                Exponent: 65537 (0x10001)
        X509v3 extensions:
            X509v3 Basic Constraints: 
                CA:FALSE
            X509v3 Subject Key Identifier: 
                85:22:DE:B1:9F:B5:EB:6E:D5:D3:39:66:D0:4C:4D:85:4A:76:52:E4
            X509v3 Authority Key Identifier: 
                keyid:03:D6:11:B4:E3:32:80:2A:FC:95:BC:DF:63:8B:26:61:DA:1E:E2:13
                DirName:/CN=team465-net
                serial:6D:7B:B8:FA:04:0E:91:53:3C:AD:3B:89:CC:46:7B:D0:ED:48:15:C6
            X509v3 Extended Key Usage: 
                TLS Web Server Authentication
            X509v3 Key Usage: 
                Digital Signature, Key Encipherment
            X509v3 Subject Alternative Name: 
                DNS:team465-server
    Signature Algorithm: sha256WithRSAEncryption
    Signature Value:
        cc:a5:da:b1:5c:ec:48:e0:48:a6:64:64:a3:8d:39:1b:8a:34:
        e7:78:92:64:1c:a2:e6:f7:a3:2e:6e:7d:43:d4:c3:56:bd:13:
        e8:cc:b0:b6:a8:5e:5a:f7:8f:f8:6c:bb:1e:72:a5:5b:48:37:
        1b:f3:c3:6f:d0:d0:b9:e5:55:d7:53:17:4b:5f:f0:66:e4:35:
        cc:93:c5:10:df:07:e4:85:6b:c1:92:3f:20:b2:2b:7e:69:ac:
        d5:71:32:50:1a:90:2e:3a:9f:09:9c:7d:e1:34:2b:7a:2e:87:
        79:80:65:a4:7b:3c:fc:04:58:ce:98:1d:64:be:8a:5e:98:8b:
        ee:8a:37:82:1a:de:1d:41:e4:ec:bb:29:d1:f5:c6:83:af:46:
        f1:a5:52:25:f5:bd:f1:0b:a5:1c:fe:6e:21:cf:97:be:8c:2f:
        4c:19:b8:1b:69:be:3d:83:44:3e:02:32:44:67:f4:be:5d:d8:
        31:d1:a6:7a:01:ab:69:de:13:9d:34:ef:52:67:b2:a6:ca:19:
        6d:ed:1d:b1:79:61:19:e1:3b:39:c7:e8:ba:bd:ec:f9:7a:2a:
        33:33:2e:e7:0b:9a:54:99:57:10:89:aa:e2:4b:a3:9b:6c:fe:
        47:4b:c1:8d:a7:fa:ce:5f:d4:5e:8c:71:06:65:e4:2d:48:82:
        c7:e3:dd:96
-----BEGIN CERTIFICATE-----
MIIDeDCCAmCgAwIBAgIRAM4ZaGhrefzwyGImfFa19qcwDQYJKoZIhvcNAQELBQAw
FjEUMBIGA1UEAwwLdGVhbTQ2NS1uZXQwHhcNMjMxMTA0MTA0ODUzWhcNMjYxMDE5
MTA0ODUzWjAZMRcwFQYDVQQDDA50ZWFtNDY1LXNlcnZlcjCCASIwDQYJKoZIhvcN
AQEBBQADggEPADCCAQoCggEBAM6raegmrtik3VHzG6RDf7RFqFeRRQKBCwTd9SsF
XtWBTlfbNdaJuXZ+4YqhfLJeZzhySP5nlmNfaf4p3AEUsX7eE9FqZK/fIwVhuNiI
xYKO83MfDWtoIM19nEr2A70JpcvB0JLK4NCqFfA9AZUyhWE/DE84YH0K1SuCMuCO
TDpOWL+hYvSRmWISnShY4TSejInM5cNxQa+7VasrqC6h1eq//zSRF00cl1DUBk2n
U3umsQKzVjuOhyGIN2gZQBmqS74jQGOwPtsxyrTp5U8TLpltjeKEB5zw5+1Hozu6
fCkbY2CI5kLShPqh/c0mjLncDYJDAUNahBWoJPJp5URutCkCAwEAAaOBvTCBujAJ
BgNVHRMEAjAAMB0GA1UdDgQWBBSFIt6xn7XrbtXTOWbQTE2FSnZS5DBRBgNVHSME
SjBIgBQD1hG04zKAKvyVvN9jiyZh2h7iE6EapBgwFjEUMBIGA1UEAwwLdGVhbTQ2
NS1uZXSCFG17uPoEDpFTPK07icxGe9DtSBXGMBMGA1UdJQQMMAoGCCsGAQUFBwMB
MAsGA1UdDwQEAwIFoDAZBgNVHREEEjAQgg50ZWFtNDY1LXNlcnZlcjANBgkqhkiG
9w0BAQsFAAOCAQEAzKXasVzsSOBIpmRko405G4o053iSZByi5vejLm59Q9TDVr0T
6MywtqheWveP+Gy7HnKlW0g3G/PDb9DQueVV11MXS1/wZuQ1zJPFEN8H5IVrwZI/
ILIrfmms1XEyUBqQLjqfCZx94TQrei6HeYBlpHs8/ARYzpgdZL6KXpiL7oo3ghre
HUHk7Lsp0fXGg69G8aVSJfW98QulHP5uIc+XvowvTBm4G2m+PYNEPgIyRGf0vl3Y
MdGmegGrad4TnTTvUmeypsoZbe0dsXlhGeE7Ocfour3s+XoqMzMu5wuaVJlXEImq
4kujm2z+R0vBjaf6zl/UXoxxBmXkLUiCx+Pdlg==
-----END CERTIFICATE-----
