Certificate:
    Data:
        Version: 3 (0x2)
        Serial Number:
            fd:b2:b7:84:ff:43:e3:04:e2:7a:19:55:b2:c8:aa:e7
        Signature Algorithm: sha256WithRSAEncryption
        Issuer: CN=team465-net
        Validity
            Not Before: Nov  4 11:38:02 2023 GMT
            Not After : Oct 19 11:38:02 2026 GMT
        Subject: CN=team465-server
        Subject Public Key Info:
            Public Key Algorithm: rsaEncryption
                Public-Key: (2048 bit)
                Modulus:
                    00:a1:71:50:5b:9e:c3:89:35:e2:cc:0b:3f:d2:08:
                    97:4b:ea:5c:40:4e:fa:81:e0:f9:4a:a9:c9:fa:1e:
                    be:d9:fe:03:a6:29:86:79:c4:04:71:58:a3:ce:90:
                    d4:6c:80:06:d5:90:b0:25:49:c4:24:db:7e:9c:02:
                    c3:75:c2:40:68:fc:ad:a5:6e:fa:b5:39:4a:36:1d:
                    39:26:8d:35:b1:19:8b:36:b9:33:d6:4d:c8:cd:47:
                    03:3f:5c:be:53:ab:16:82:0e:81:dc:7f:be:04:e0:
                    5a:4b:ae:08:2e:06:4d:92:6e:56:5b:35:6a:b7:59:
                    37:71:1b:c1:68:ed:ef:53:3e:20:0a:8f:f9:1e:0a:
                    7f:35:fd:72:eb:33:09:7e:cd:b9:f0:97:73:69:ef:
                    42:4b:ca:16:f6:d3:ba:b0:07:21:c6:99:6a:3a:6d:
                    c3:dd:09:47:a8:2a:4b:d8:4a:9f:d7:8a:ad:a3:30:
                    7b:b7:28:51:6e:6e:3e:e4:7a:cf:63:97:5c:74:b7:
                    7f:13:8f:e8:03:04:11:20:3d:6c:72:49:43:94:b5:
                    4c:11:7e:c8:29:4e:dc:13:1d:8a:1a:93:89:06:3b:
                    d8:46:0b:07:8a:2d:4d:3c:2d:f0:d2:62:34:c7:94:
                    8d:a9:8a:c2:ed:20:10:af:2f:c7:65:51:df:80:d0:
                    cb:59
                Exponent: 65537 (0x10001)
        X509v3 extensions:
            X509v3 Basic Constraints: 
                CA:FALSE
            X509v3 Subject Key Identifier: 
                63:8F:0A:6B:A5:E1:97:BE:51:00:17:0A:20:A1:B6:0C:70:17:B9:EE
            X509v3 Authority Key Identifier: 
                keyid:95:C2:EC:13:15:54:DC:F5:0A:21:6A:4F:16:36:B4:43:48:B7:35:E4
                DirName:/CN=team465-net
                serial:38:A9:54:AD:BA:B6:E8:97:BA:E2:83:5E:E3:3D:FB:EA:CC:FA:6E:F0
            X509v3 Extended Key Usage: 
                TLS Web Server Authentication
            X509v3 Key Usage: 
                Digital Signature, Key Encipherment
            X509v3 Subject Alternative Name: 
                DNS:team465-server
    Signature Algorithm: sha256WithRSAEncryption
    Signature Value:
        1c:f9:05:35:0a:81:80:51:63:78:e0:b6:75:c1:08:48:74:73:
        23:69:64:2a:0f:bb:cd:76:f6:48:f9:3a:7d:eb:f3:77:36:6e:
        3e:0e:e2:1f:ce:60:ec:dc:24:a5:81:04:4f:5f:67:81:e5:97:
        e9:08:b2:8d:47:5c:74:c1:21:4b:3d:4e:eb:54:80:df:a9:24:
        7b:a1:b5:f2:67:d2:28:ee:d6:d6:81:e0:fe:2b:56:75:a6:1e:
        59:08:e0:90:24:b0:8b:24:46:46:a8:5a:db:22:01:a6:3c:6f:
        81:eb:cf:03:77:a6:97:0a:d3:1e:3a:7d:f5:94:c3:85:94:52:
        92:c7:7a:8e:d4:24:58:8a:da:53:f2:e0:66:67:12:08:d1:be:
        bc:5b:b6:92:b6:09:79:71:9d:22:12:46:82:1a:c9:90:44:b3:
        e8:56:4c:ab:e2:84:e9:85:79:4f:4c:fa:de:ec:86:04:d9:16:
        88:3e:e1:9b:42:c6:32:c1:e2:06:5a:71:61:3f:d1:2b:6a:24:
        f2:85:7c:5d:e9:b6:ca:03:f0:a0:47:ac:59:95:26:34:9c:4c:
        4a:b1:fc:7c:65:a7:df:6f:fc:6e:c1:77:af:04:ea:1d:64:95:
        f4:f2:eb:16:8a:4f:07:44:07:00:8d:36:8f:59:75:b5:80:5a:
        1f:b3:e9:36
-----BEGIN CERTIFICATE-----
MIIDeDCCAmCgAwIBAgIRAP2yt4T/Q+ME4noZVbLIqucwDQYJKoZIhvcNAQELBQAw
FjEUMBIGA1UEAwwLdGVhbTQ2NS1uZXQwHhcNMjMxMTA0MTEzODAyWhcNMjYxMDE5
MTEzODAyWjAZMRcwFQYDVQQDDA50ZWFtNDY1LXNlcnZlcjCCASIwDQYJKoZIhvcN
AQEBBQADggEPADCCAQoCggEBAKFxUFuew4k14swLP9IIl0vqXEBO+oHg+Uqpyfoe
vtn+A6YphnnEBHFYo86Q1GyABtWQsCVJxCTbfpwCw3XCQGj8raVu+rU5SjYdOSaN
NbEZiza5M9ZNyM1HAz9cvlOrFoIOgdx/vgTgWkuuCC4GTZJuVls1ardZN3EbwWjt
71M+IAqP+R4KfzX9cuszCX7NufCXc2nvQkvKFvbTurAHIcaZajptw90JR6gqS9hK
n9eKraMwe7coUW5uPuR6z2OXXHS3fxOP6AMEESA9bHJJQ5S1TBF+yClO3BMdihqT
iQY72EYLB4otTTwt8NJiNMeUjamKwu0gEK8vx2VR34DQy1kCAwEAAaOBvTCBujAJ
BgNVHRMEAjAAMB0GA1UdDgQWBBRjjwprpeGXvlEAFwogobYMcBe57jBRBgNVHSME
SjBIgBSVwuwTFVTc9Qohak8WNrRDSLc15KEapBgwFjEUMBIGA1UEAwwLdGVhbTQ2
NS1uZXSCFDipVK26tuiXuuKDXuM9++rM+m7wMBMGA1UdJQQMMAoGCCsGAQUFBwMB
MAsGA1UdDwQEAwIFoDAZBgNVHREEEjAQgg50ZWFtNDY1LXNlcnZlcjANBgkqhkiG
9w0BAQsFAAOCAQEAHPkFNQqBgFFjeOC2dcEISHRzI2lkKg+7zXb2SPk6fevzdzZu
Pg7iH85g7NwkpYEET19ngeWX6QiyjUdcdMEhSz1O61SA36kke6G18mfSKO7W1oHg
/itWdaYeWQjgkCSwiyRGRqha2yIBpjxvgevPA3emlwrTHjp99ZTDhZRSksd6jtQk
WIraU/LgZmcSCNG+vFu2krYJeXGdIhJGghrJkESz6FZMq+KE6YV5T0z63uyGBNkW
iD7hm0LGMsHiBlpxYT/RK2ok8oV8Xem2ygPwoEesWZUmNJxMSrH8fGWn32/8bsF3
rwTqHWSV9PLrFopPB0QHAI02j1l1tYBaH7PpNg==
-----END CERTIFICATE-----
