Certificate:
    Data:
        Version: 3 (0x2)
        Serial Number:
            88:25:78:5a:5d:c3:7a:26:dc:77:79:95:64:d4:ba:84
        Signature Algorithm: sha256WithRSAEncryption
        Issuer: CN=team310-net
        Validity
            Not Before: Nov  3 20:44:54 2023 GMT
            Not After : Oct 18 20:44:54 2026 GMT
        Subject: CN=team310-server
        Subject Public Key Info:
            Public Key Algorithm: rsaEncryption
                Public-Key: (2048 bit)
                Modulus:
                    00:c2:43:59:aa:19:bc:1d:10:47:f5:f8:f5:86:c4:
                    ed:61:79:56:b2:0f:f3:d5:de:9a:74:ee:ff:33:aa:
                    ce:c0:7d:c2:62:5e:9a:19:17:55:13:57:7e:d1:cd:
                    47:9c:50:d3:db:2d:b1:00:97:c2:9a:ab:7b:79:21:
                    2f:5f:16:54:ff:62:78:4b:61:ff:94:b6:2c:fd:03:
                    5d:69:8d:63:ca:3a:6a:a1:5e:ca:09:b7:1e:a5:39:
                    6d:87:72:31:6d:45:45:82:1e:8b:e9:7d:c0:49:e4:
                    06:ba:1a:b5:42:36:78:9a:eb:25:11:1b:52:2b:8c:
                    2f:9d:22:e6:ad:c6:ac:fd:d3:da:60:63:e0:26:74:
                    36:88:62:c0:f2:8e:32:e7:8f:1d:f8:85:2c:54:70:
                    7b:96:04:76:85:5a:81:68:c4:b1:76:28:c4:d6:e3:
                    32:bd:d1:5f:93:1f:f6:00:57:f0:22:13:00:0e:3a:
                    43:2e:02:ec:cc:a3:9f:52:d8:82:96:9f:b9:a2:c2:
                    2e:39:33:5e:ed:57:cb:e7:99:cb:ba:29:57:d1:fa:
                    d8:d7:8a:7c:aa:c2:89:19:d4:33:57:49:11:aa:89:
                    40:55:ba:27:ae:04:fe:a7:37:ec:63:d4:ca:a8:88:
                    93:66:17:5e:ed:6f:d1:ae:5f:3a:e6:55:54:54:b4:
                    93:c9
                Exponent: 65537 (0x10001)
        X509v3 extensions:
            X509v3 Basic Constraints: 
                CA:FALSE
            X509v3 Subject Key Identifier: 
                CA:AF:F4:94:B2:A2:EB:B2:72:72:BE:DA:AB:70:82:09:58:FE:E8:16
            X509v3 Authority Key Identifier: 
                keyid:7D:93:79:AB:C7:94:4A:96:B0:3C:59:1A:A5:17:69:83:B9:6D:58:3A
                DirName:/CN=team310-net
                serial:3C:3C:75:A4:B4:11:90:A5:9E:D8:E7:18:9B:99:CB:15:F7:90:7B:F2
            X509v3 Extended Key Usage: 
                TLS Web Server Authentication
            X509v3 Key Usage: 
                Digital Signature, Key Encipherment
            X509v3 Subject Alternative Name: 
                DNS:team310-server
    Signature Algorithm: sha256WithRSAEncryption
    Signature Value:
        89:b1:a1:0c:c2:43:92:51:f5:a1:a3:ff:8e:66:9f:85:4f:2c:
        0f:65:99:e5:0d:a3:c0:26:de:b5:ba:bc:5e:70:a9:0a:22:e8:
        58:c7:bb:c6:9a:39:72:20:a4:fe:db:78:7a:e6:35:12:52:90:
        05:66:c3:58:c5:f5:85:01:94:2f:51:33:0d:de:94:60:27:14:
        d9:cf:fc:31:36:01:b4:5d:1e:56:10:77:15:ff:2c:27:59:a5:
        e5:77:3b:3f:e0:94:fc:99:a5:d0:82:6a:a0:9d:c3:c4:3a:d9:
        80:ce:c4:5a:64:61:e6:89:80:55:c8:38:e5:bd:24:f0:de:65:
        e3:e2:24:68:74:5c:cc:42:32:85:2f:35:b8:e1:65:1a:c2:e2:
        5c:1a:d6:52:ce:10:80:2a:97:9d:5a:29:03:0b:14:02:a2:88:
        43:62:16:e4:23:5e:13:e3:03:50:8a:2d:30:79:a3:86:51:d1:
        74:de:e6:8b:de:bf:7d:e9:77:2d:2b:38:fd:af:2b:44:22:04:
        ab:e2:98:f3:f6:7c:d0:d6:60:4c:cd:4e:27:91:f7:04:1b:d8:
        2d:9d:1c:1b:f2:e4:4d:b9:81:83:69:2a:71:a3:69:e8:68:12:
        f8:39:b0:34:fd:11:05:f6:ff:bf:16:b8:f0:3b:95:7d:dd:8d:
        1c:87:62:25
-----BEGIN CERTIFICATE-----
MIIDeDCCAmCgAwIBAgIRAIgleFpdw3om3Hd5lWTUuoQwDQYJKoZIhvcNAQELBQAw
FjEUMBIGA1UEAwwLdGVhbTMxMC1uZXQwHhcNMjMxMTAzMjA0NDU0WhcNMjYxMDE4
MjA0NDU0WjAZMRcwFQYDVQQDDA50ZWFtMzEwLXNlcnZlcjCCASIwDQYJKoZIhvcN
AQEBBQADggEPADCCAQoCggEBAMJDWaoZvB0QR/X49YbE7WF5VrIP89XemnTu/zOq
zsB9wmJemhkXVRNXftHNR5xQ09stsQCXwpqre3khL18WVP9ieEth/5S2LP0DXWmN
Y8o6aqFeygm3HqU5bYdyMW1FRYIei+l9wEnkBroatUI2eJrrJREbUiuML50i5q3G
rP3T2mBj4CZ0NohiwPKOMuePHfiFLFRwe5YEdoVagWjEsXYoxNbjMr3RX5Mf9gBX
8CITAA46Qy4C7Myjn1LYgpafuaLCLjkzXu1Xy+eZy7opV9H62NeKfKrCiRnUM1dJ
EaqJQFW6J64E/qc37GPUyqiIk2YXXu1v0a5fOuZVVFS0k8kCAwEAAaOBvTCBujAJ
BgNVHRMEAjAAMB0GA1UdDgQWBBTKr/SUsqLrsnJyvtqrcIIJWP7oFjBRBgNVHSME
SjBIgBR9k3mrx5RKlrA8WRqlF2mDuW1YOqEapBgwFjEUMBIGA1UEAwwLdGVhbTMx
MC1uZXSCFDw8daS0EZClntjnGJuZyxX3kHvyMBMGA1UdJQQMMAoGCCsGAQUFBwMB
MAsGA1UdDwQEAwIFoDAZBgNVHREEEjAQgg50ZWFtMzEwLXNlcnZlcjANBgkqhkiG
9w0BAQsFAAOCAQEAibGhDMJDklH1oaP/jmafhU8sD2WZ5Q2jwCbetbq8XnCpCiLo
WMe7xpo5ciCk/tt4euY1ElKQBWbDWMX1hQGUL1EzDd6UYCcU2c/8MTYBtF0eVhB3
Ff8sJ1ml5Xc7P+CU/Jml0IJqoJ3DxDrZgM7EWmRh5omAVcg45b0k8N5l4+IkaHRc
zEIyhS81uOFlGsLiXBrWUs4QgCqXnVopAwsUAqKIQ2IW5CNeE+MDUIotMHmjhlHR
dN7mi96/fel3LSs4/a8rRCIEq+KY8/Z80NZgTM1OJ5H3BBvYLZ0cG/LkTbmBg2kq
caNp6GgS+DmwNP0RBfb/vxa48DuVfd2NHIdiJQ==
-----END CERTIFICATE-----
