Certificate:
    Data:
        Version: 3 (0x2)
        Serial Number:
            28:b6:b2:27:25:ba:5d:84:82:d2:cc:f4:fd:e5:01:2a
        Signature Algorithm: sha256WithRSAEncryption
        Issuer: CN=team223-net
        Validity
            Not Before: Nov  3 20:43:25 2023 GMT
            Not After : Oct 18 20:43:25 2026 GMT
        Subject: CN=team223-server
        Subject Public Key Info:
            Public Key Algorithm: rsaEncryption
                Public-Key: (2048 bit)
                Modulus:
                    00:d6:82:9c:80:89:5f:97:09:33:a3:c4:cf:c8:51:
                    f2:cb:09:e5:95:1d:e8:91:5a:a2:42:0a:08:63:0e:
                    a1:6b:da:83:5b:24:46:f7:2b:ae:f6:f6:07:9e:e3:
                    28:cc:bf:8b:f9:69:3b:24:04:22:b8:b2:84:04:e7:
                    d3:06:7f:dc:52:f5:84:39:ef:40:81:9e:c9:85:8a:
                    b1:b1:45:8e:88:e7:a3:a1:f8:bb:41:09:22:12:dd:
                    58:7f:ba:e2:09:98:ff:e5:7c:cc:68:d4:1e:71:c0:
                    75:c3:d4:c2:72:1a:68:b4:25:08:43:64:c9:fe:b6:
                    ae:e7:90:d3:e9:1f:5a:dd:1a:1d:d7:69:29:0b:88:
                    7d:4d:ae:d4:9a:39:c2:07:9d:1e:88:69:bf:2d:7b:
                    c6:c1:d8:12:aa:14:5f:e8:9a:62:a3:65:d7:c2:94:
                    b9:c3:c2:3d:e8:72:9c:17:74:4c:b4:7a:d2:50:43:
                    02:94:39:29:58:f8:58:94:e5:b0:70:4b:87:d5:f9:
                    3c:31:a4:63:38:e6:5d:40:0a:a4:52:4a:a1:d3:5a:
                    5e:d0:88:d2:fb:01:9e:af:07:16:fa:41:dc:5f:04:
                    b1:48:02:0b:ed:08:be:8f:0d:d0:05:8c:b8:14:52:
                    3d:91:9d:9a:fb:28:81:c3:2b:24:fb:9c:10:3c:f9:
                    40:53
                Exponent: 65537 (0x10001)
        X509v3 extensions:
            X509v3 Basic Constraints: 
                CA:FALSE
            X509v3 Subject Key Identifier: 
                D6:75:5A:4D:14:02:F0:43:92:E6:33:4F:76:BC:E9:4B:54:7A:A9:A6
            X509v3 Authority Key Identifier: 
                keyid:C6:D7:FC:01:68:45:57:8F:DA:C4:AD:6E:61:11:F7:04:1A:E6:01:F4
                DirName:/CN=team223-net
                serial:34:24:92:78:0C:F5:5A:08:9E:50:04:E7:CB:09:81:CA:27:4C:A2:6B
            X509v3 Extended Key Usage: 
                TLS Web Server Authentication
            X509v3 Key Usage: 
                Digital Signature, Key Encipherment
            X509v3 Subject Alternative Name: 
                DNS:team223-server
    Signature Algorithm: sha256WithRSAEncryption
    Signature Value:
        05:2e:46:28:2c:e6:1a:fa:e3:ba:af:97:d7:56:5e:1d:9b:9f:
        fc:18:93:d2:77:c0:88:bd:f2:94:26:17:8b:e3:5b:45:ec:43:
        37:23:74:d0:a0:8d:04:94:95:11:88:9a:c3:18:f6:e6:42:5a:
        be:c1:f8:5e:67:4f:db:e6:60:e9:dc:50:43:9d:c4:31:8d:be:
        64:d4:3b:cc:56:ca:60:9f:e8:aa:85:94:d7:fc:b0:10:3e:72:
        1a:79:a6:3b:f6:bb:59:f0:d6:b3:1e:9e:9e:0e:e0:e4:6f:11:
        b4:9b:de:00:96:01:62:03:ec:50:46:3f:1a:21:39:51:65:8d:
        1d:04:5a:ff:a4:b1:1b:e8:47:91:e3:97:3e:aa:f9:b5:65:3e:
        3a:e5:ee:fb:4a:ab:76:37:6f:bb:07:e0:54:5e:c6:23:96:d6:
        3b:df:aa:d5:d1:64:e6:5e:eb:26:fc:78:65:77:d3:42:7f:1f:
        1c:38:96:9f:6e:5d:b6:b9:4d:ad:ec:2e:ed:01:bb:23:d4:c7:
        67:91:c7:69:49:04:af:c4:e4:6f:3f:7e:e4:d1:3a:9f:bf:64:
        b4:fd:ee:c5:3e:4a:b2:df:45:d0:57:f8:bf:17:46:fe:48:4d:
        ce:96:5b:2d:46:42:2f:36:d6:0b:67:f4:73:95:77:18:ac:3b:
        14:42:c6:2e
-----BEGIN CERTIFICATE-----
MIIDdzCCAl+gAwIBAgIQKLayJyW6XYSC0sz0/eUBKjANBgkqhkiG9w0BAQsFADAW
MRQwEgYDVQQDDAt0ZWFtMjIzLW5ldDAeFw0yMzExMDMyMDQzMjVaFw0yNjEwMTgy
MDQzMjVaMBkxFzAVBgNVBAMMDnRlYW0yMjMtc2VydmVyMIIBIjANBgkqhkiG9w0B
AQEFAAOCAQ8AMIIBCgKCAQEA1oKcgIlflwkzo8TPyFHyywnllR3okVqiQgoIYw6h
a9qDWyRG9yuu9vYHnuMozL+L+Wk7JAQiuLKEBOfTBn/cUvWEOe9AgZ7JhYqxsUWO
iOejofi7QQkiEt1Yf7riCZj/5XzMaNQeccB1w9TCchpotCUIQ2TJ/rau55DT6R9a
3Rod12kpC4h9Ta7UmjnCB50eiGm/LXvGwdgSqhRf6Jpio2XXwpS5w8I96HKcF3RM
tHrSUEMClDkpWPhYlOWwcEuH1fk8MaRjOOZdQAqkUkqh01pe0IjS+wGerwcW+kHc
XwSxSAIL7Qi+jw3QBYy4FFI9kZ2a+yiBwysk+5wQPPlAUwIDAQABo4G9MIG6MAkG
A1UdEwQCMAAwHQYDVR0OBBYEFNZ1Wk0UAvBDkuYzT3a86UtUeqmmMFEGA1UdIwRK
MEiAFMbX/AFoRVeP2sStbmER9wQa5gH0oRqkGDAWMRQwEgYDVQQDDAt0ZWFtMjIz
LW5ldIIUNCSSeAz1WgieUATnywmByidMomswEwYDVR0lBAwwCgYIKwYBBQUHAwEw
CwYDVR0PBAQDAgWgMBkGA1UdEQQSMBCCDnRlYW0yMjMtc2VydmVyMA0GCSqGSIb3
DQEBCwUAA4IBAQAFLkYoLOYa+uO6r5fXVl4dm5/8GJPSd8CIvfKUJheL41tF7EM3
I3TQoI0ElJURiJrDGPbmQlq+wfheZ0/b5mDp3FBDncQxjb5k1DvMVspgn+iqhZTX
/LAQPnIaeaY79rtZ8NazHp6eDuDkbxG0m94AlgFiA+xQRj8aITlRZY0dBFr/pLEb
6EeR45c+qvm1ZT465e77Sqt2N2+7B+BUXsYjltY736rV0WTmXusm/Hhld9NCfx8c
OJafbl22uU2t7C7tAbsj1MdnkcdpSQSvxORvP37k0Tqfv2S0/e7FPkqy30XQV/i/
F0b+SE3OllstRkIvNtYLZ/RzlXcYrDsUQsYu
-----END CERTIFICATE-----
