Certificate:
    Data:
        Version: 3 (0x2)
        Serial Number:
            78:ee:36:a2:d7:45:41:ec:e2:86:bc:6d:ff:10:e6:40
        Signature Algorithm: sha256WithRSAEncryption
        Issuer: CN=team223-net
        Validity
            Not Before: Nov  4 10:44:49 2023 GMT
            Not After : Oct 19 10:44:49 2026 GMT
        Subject: CN=team223-server
        Subject Public Key Info:
            Public Key Algorithm: rsaEncryption
                Public-Key: (2048 bit)
                Modulus:
                    00:bc:f9:f3:93:1a:bd:cd:5e:92:d5:3c:64:da:fd:
                    b3:e1:39:f9:af:c1:1b:25:66:af:dd:e2:8f:36:a5:
                    d5:05:e5:39:45:fd:9e:4f:3f:d6:61:ff:e8:ce:8d:
                    b5:e4:9d:d8:0c:52:69:5e:26:99:86:e1:54:8d:a4:
                    0d:f8:07:a0:99:2c:a6:3a:c6:e3:87:66:e7:99:5b:
                    5c:9e:8b:35:56:6d:b7:4d:b3:72:0b:17:f1:d7:09:
                    55:ba:e1:fe:6c:e9:90:80:4c:d6:de:8b:ca:c2:77:
                    ad:2a:c0:c4:6a:78:96:83:e1:61:71:66:44:6a:82:
                    a2:d7:e4:e8:5a:3d:c4:a4:5f:57:80:a8:b9:41:f4:
                    70:70:0e:60:fd:91:1d:2e:42:b7:67:68:f9:af:64:
                    a3:6b:de:d3:3f:ba:24:3f:6b:e3:7e:48:77:2b:e9:
                    9e:41:cc:e2:29:06:16:20:8b:03:0a:b6:bf:b4:15:
                    0a:e6:3f:cd:c2:19:32:77:11:97:8a:ac:e3:04:78:
                    42:d3:5d:46:c3:26:ca:9d:4a:3f:d2:0f:35:58:2b:
                    8e:3c:66:48:9e:84:4c:9c:cf:3a:eb:88:4d:8f:b2:
                    6b:03:87:8d:df:d1:f9:1e:76:f7:60:d9:49:ed:ee:
                    9c:59:9d:a3:b1:2e:38:67:fc:e5:3e:92:a5:1c:ba:
                    a7:e3
                Exponent: 65537 (0x10001)
        X509v3 extensions:
            X509v3 Basic Constraints: 
                CA:FALSE
            X509v3 Subject Key Identifier: 
                2D:D9:C1:C2:48:69:38:1E:58:4B:E8:5E:4A:4F:CA:06:5D:F5:62:F4
            X509v3 Authority Key Identifier: 
                keyid:9E:7E:73:9B:17:0F:3A:90:76:4D:41:53:C0:89:3E:7B:EA:27:6B:B6
                DirName:/CN=team223-net
                serial:43:51:20:48:E4:42:94:0D:D8:10:7C:64:A4:0D:E3:65:C6:DA:D7:73
            X509v3 Extended Key Usage: 
                TLS Web Server Authentication
            X509v3 Key Usage: 
                Digital Signature, Key Encipherment
            X509v3 Subject Alternative Name: 
                DNS:team223-server
    Signature Algorithm: sha256WithRSAEncryption
    Signature Value:
        ca:bd:07:58:b2:f1:83:08:b8:9e:de:05:3c:81:d0:70:d3:ff:
        9e:7b:b6:6c:77:98:ef:3e:41:96:83:14:f6:09:a2:38:c1:d5:
        98:0a:2a:e7:69:1a:09:0a:65:46:9a:87:6b:c7:e4:1d:1f:85:
        71:9d:aa:d2:11:bb:1a:41:02:31:60:97:e5:db:86:6f:a6:62:
        fc:4f:f1:9a:59:61:cf:a3:ef:10:26:6a:c6:6d:e8:e9:a7:d9:
        5f:69:a7:6c:2c:41:a5:27:7f:29:73:9a:65:e7:e0:99:a0:64:
        a3:03:09:ab:ba:6b:f5:2f:e2:a9:1a:2b:0e:e2:b1:12:70:08:
        f7:43:c7:1d:d8:50:94:a8:04:51:e9:ab:3f:2b:5e:b4:69:8c:
        19:7b:38:c7:95:05:66:d8:b8:f1:9b:81:e4:a8:76:a5:b7:92:
        6c:ff:e8:89:05:c3:ab:09:6c:86:a2:6a:f6:f0:4c:98:bc:65:
        0b:3e:68:f3:48:e7:1f:09:27:dc:a6:4b:32:a6:83:25:6b:8a:
        33:34:a5:6a:96:65:e7:6f:0d:a3:a9:71:94:30:8f:3d:ba:ab:
        a8:60:b2:02:77:fe:40:4c:55:64:cb:1e:f4:07:4e:0a:e7:71:
        56:17:44:10:f9:6e:98:5d:a4:12:32:98:dc:b1:27:50:ea:b0:
        bf:5f:45:6f
-----BEGIN CERTIFICATE-----
MIIDdzCCAl+gAwIBAgIQeO42otdFQezihrxt/xDmQDANBgkqhkiG9w0BAQsFADAW
MRQwEgYDVQQDDAt0ZWFtMjIzLW5ldDAeFw0yMzExMDQxMDQ0NDlaFw0yNjEwMTkx
MDQ0NDlaMBkxFzAVBgNVBAMMDnRlYW0yMjMtc2VydmVyMIIBIjANBgkqhkiG9w0B
AQEFAAOCAQ8AMIIBCgKCAQEAvPnzkxq9zV6S1Txk2v2z4Tn5r8EbJWav3eKPNqXV
BeU5Rf2eTz/WYf/ozo215J3YDFJpXiaZhuFUjaQN+AegmSymOsbjh2bnmVtcnos1
Vm23TbNyCxfx1wlVuuH+bOmQgEzW3ovKwnetKsDEaniWg+FhcWZEaoKi1+ToWj3E
pF9XgKi5QfRwcA5g/ZEdLkK3Z2j5r2Sja97TP7okP2vjfkh3K+meQcziKQYWIIsD
Cra/tBUK5j/NwhkydxGXiqzjBHhC011GwybKnUo/0g81WCuOPGZInoRMnM8664hN
j7JrA4eN39H5Hnb3YNlJ7e6cWZ2jsS44Z/zlPpKlHLqn4wIDAQABo4G9MIG6MAkG
A1UdEwQCMAAwHQYDVR0OBBYEFC3ZwcJIaTgeWEvoXkpPygZd9WL0MFEGA1UdIwRK
MEiAFJ5+c5sXDzqQdk1BU8CJPnvqJ2u2oRqkGDAWMRQwEgYDVQQDDAt0ZWFtMjIz
LW5ldIIUQ1EgSORClA3YEHxkpA3jZcba13MwEwYDVR0lBAwwCgYIKwYBBQUHAwEw
CwYDVR0PBAQDAgWgMBkGA1UdEQQSMBCCDnRlYW0yMjMtc2VydmVyMA0GCSqGSIb3
DQEBCwUAA4IBAQDKvQdYsvGDCLie3gU8gdBw0/+ee7Zsd5jvPkGWgxT2CaI4wdWY
CirnaRoJCmVGmodrx+QdH4VxnarSEbsaQQIxYJfl24ZvpmL8T/GaWWHPo+8QJmrG
bejpp9lfaadsLEGlJ38pc5pl5+CZoGSjAwmrumv1L+KpGisO4rEScAj3Q8cd2FCU
qARR6as/K160aYwZezjHlQVm2Ljxm4HkqHalt5Js/+iJBcOrCWyGomr28EyYvGUL
PmjzSOcfCSfcpksypoMla4ozNKVqlmXnbw2jqXGUMI89uquoYLICd/5ATFVkyx70
B04K53FWF0QQ+W6YXaQSMpjcsSdQ6rC/X0Vv
-----END CERTIFICATE-----
