Certificate:
    Data:
        Version: 3 (0x2)
        Serial Number:
            d6:33:88:38:22:5e:af:7f:f4:7f:25:aa:65:7d:10:af
        Signature Algorithm: sha256WithRSAEncryption
        Issuer: CN=team223-net
        Validity
            Not Before: Nov  4 10:44:48 2023 GMT
            Not After : Oct 19 10:44:48 2026 GMT
        Subject: CN=team223-client
        Subject Public Key Info:
            Public Key Algorithm: rsaEncryption
                Public-Key: (2048 bit)
                Modulus:
                    00:a6:14:c8:b0:1b:7e:73:08:a7:08:36:ad:22:f7:
                    ee:fc:81:c5:ae:75:27:ec:3c:e9:81:16:a9:f4:7c:
                    43:95:df:29:ff:50:e7:f7:bb:f8:c0:6c:d8:50:db:
                    47:ab:e7:cf:53:e5:7e:8b:9d:7d:a0:47:5b:93:24:
                    c0:98:3b:03:63:02:38:03:f0:22:9f:6b:47:a2:04:
                    85:f9:8e:8d:91:04:b7:08:76:2f:4f:ec:4e:da:0f:
                    9a:04:76:21:ff:ae:15:d3:70:81:69:63:68:13:96:
                    cd:89:d3:b3:01:60:4c:86:1c:98:a1:54:5f:2a:91:
                    a3:7c:31:83:02:42:c7:b4:2d:6c:45:53:ae:9b:a7:
                    5c:3a:32:86:cb:fd:9b:d3:9b:61:12:81:be:b6:d3:
                    8a:7f:e0:f7:52:f6:48:17:52:01:6e:e7:e6:ca:76:
                    d8:d4:69:bb:34:0f:82:06:02:79:a5:80:f5:e1:a6:
                    17:d5:23:3b:bf:11:73:c9:0b:f3:60:1a:9a:bd:d6:
                    dd:47:70:3f:2b:87:0f:85:2f:d0:3e:38:4b:d4:7d:
                    e5:25:cb:27:f7:b4:10:0f:0c:18:67:22:cc:22:28:
                    47:22:58:43:3e:d4:ac:ac:23:4d:8e:8e:65:35:69:
                    e8:c4:19:22:47:fe:db:c4:7d:07:59:55:f9:5f:8a:
                    45:31
                Exponent: 65537 (0x10001)
        X509v3 extensions:
            X509v3 Basic Constraints: 
                CA:FALSE
            X509v3 Subject Key Identifier: 
                17:63:A9:44:09:A2:19:8C:92:28:93:C8:82:13:1F:7E:BB:E1:B5:87
            X509v3 Authority Key Identifier: 
                keyid:9E:7E:73:9B:17:0F:3A:90:76:4D:41:53:C0:89:3E:7B:EA:27:6B:B6
                DirName:/CN=team223-net
                serial:43:51:20:48:E4:42:94:0D:D8:10:7C:64:A4:0D:E3:65:C6:DA:D7:73
            X509v3 Extended Key Usage: 
                TLS Web Client Authentication
            X509v3 Key Usage: 
                Digital Signature
    Signature Algorithm: sha256WithRSAEncryption
    Signature Value:
        e3:f6:6f:8d:1e:ca:62:c0:65:e3:ff:b3:ca:f6:0c:3f:55:39:
        c7:79:92:4e:13:20:9a:ff:c3:fe:b6:c5:fd:25:e1:01:1c:90:
        0d:ef:65:3d:69:3a:e2:ff:66:07:f2:18:65:54:70:a3:91:7a:
        4a:b0:98:92:64:fc:dd:80:57:cd:1a:32:f8:68:46:16:84:32:
        00:10:c2:c0:bd:5b:c5:bd:cc:88:57:01:91:67:d4:55:bd:42:
        0c:81:73:da:9a:0f:f5:34:71:b3:4c:e1:0d:9c:d8:71:f1:ba:
        5d:06:b2:33:ee:c3:8b:80:39:59:39:81:a2:8f:8d:fd:22:2c:
        65:ca:03:ad:a4:ae:f9:28:ba:c2:bb:8f:e9:3a:5e:6a:68:ed:
        9f:60:6c:87:f5:e0:52:f3:f7:ed:ae:04:9a:87:af:d0:4e:3b:
        a1:54:6c:3a:1b:70:73:60:fa:95:ec:2e:30:e0:78:99:5b:d2:
        f1:19:f3:1f:b9:71:70:4e:97:11:95:37:9a:27:4a:a2:a6:ec:
        94:c9:33:66:ff:d8:b2:a0:b5:a9:51:7a:73:7b:a0:e1:59:96:
        92:6f:78:a9:d7:ce:e9:30:a5:ae:ee:ad:0e:53:3b:8a:fe:8e:
        13:bc:03:55:36:3c:24:ce:f6:9c:a2:bc:9f:18:6a:8c:56:c5:
        ca:8e:16:b1
-----BEGIN CERTIFICATE-----
MIIDXTCCAkWgAwIBAgIRANYziDgiXq9/9H8lqmV9EK8wDQYJKoZIhvcNAQELBQAw
FjEUMBIGA1UEAwwLdGVhbTIyMy1uZXQwHhcNMjMxMTA0MTA0NDQ4WhcNMjYxMDE5
MTA0NDQ4WjAZMRcwFQYDVQQDDA50ZWFtMjIzLWNsaWVudDCCASIwDQYJKoZIhvcN
AQEBBQADggEPADCCAQoCggEBAKYUyLAbfnMIpwg2rSL37vyBxa51J+w86YEWqfR8
Q5XfKf9Q5/e7+MBs2FDbR6vnz1PlfoudfaBHW5MkwJg7A2MCOAPwIp9rR6IEhfmO
jZEEtwh2L0/sTtoPmgR2If+uFdNwgWljaBOWzYnTswFgTIYcmKFUXyqRo3wxgwJC
x7QtbEVTrpunXDoyhsv9m9ObYRKBvrbTin/g91L2SBdSAW7n5sp22NRpuzQPggYC
eaWA9eGmF9UjO78Rc8kL82Aamr3W3UdwPyuHD4Uv0D44S9R95SXLJ/e0EA8MGGci
zCIoRyJYQz7UrKwjTY6OZTVp6MQZIkf+28R9B1lV+V+KRTECAwEAAaOBojCBnzAJ
BgNVHRMEAjAAMB0GA1UdDgQWBBQXY6lECaIZjJIok8iCEx9+u+G1hzBRBgNVHSME
SjBIgBSefnObFw86kHZNQVPAiT576idrtqEapBgwFjEUMBIGA1UEAwwLdGVhbTIy
My1uZXSCFENRIEjkQpQN2BB8ZKQN42XG2tdzMBMGA1UdJQQMMAoGCCsGAQUFBwMC
MAsGA1UdDwQEAwIHgDANBgkqhkiG9w0BAQsFAAOCAQEA4/ZvjR7KYsBl4/+zyvYM
P1U5x3mSThMgmv/D/rbF/SXhARyQDe9lPWk64v9mB/IYZVRwo5F6SrCYkmT83YBX
zRoy+GhGFoQyABDCwL1bxb3MiFcBkWfUVb1CDIFz2poP9TRxs0zhDZzYcfG6XQay
M+7Di4A5WTmBoo+N/SIsZcoDraSu+Si6wruP6Tpeamjtn2Bsh/XgUvP37a4Emoev
0E47oVRsOhtwc2D6lewuMOB4mVvS8RnzH7lxcE6XEZU3midKoqbslMkzZv/YsqC1
qVF6c3ug4VmWkm94qdfO6TClru6tDlM7iv6OE7wDVTY8JM72nKK8nxhqjFbFyo4W
sQ==
-----END CERTIFICATE-----
