Certificate:
    Data:
        Version: 3 (0x2)
        Serial Number:
            83:51:86:c7:65:80:91:fc:36:89:f2:9b:bc:bf:b9:7b
        Signature Algorithm: sha256WithRSAEncryption
        Issuer: CN=team453-net
        Validity
            Not Before: Nov  3 20:47:29 2023 GMT
            Not After : Oct 18 20:47:29 2026 GMT
        Subject: CN=team453-client
        Subject Public Key Info:
            Public Key Algorithm: rsaEncryption
                Public-Key: (2048 bit)
                Modulus:
                    00:91:5f:94:17:fe:fb:94:dd:72:e6:a3:26:71:c5:
                    f0:e9:45:f7:0c:42:db:65:57:e5:1f:5e:32:0f:c7:
                    59:38:0c:78:14:71:2a:42:60:97:ef:59:6e:1b:81:
                    a8:57:4f:ca:b8:ab:b9:8c:d7:ef:01:27:44:cb:81:
                    6b:ed:2b:16:d0:9d:be:81:2c:e1:23:96:63:80:39:
                    15:fe:6d:3d:45:6a:d3:db:3d:27:7c:c1:c0:74:57:
                    7e:21:cc:f2:a6:42:c6:bd:ad:92:aa:8e:e4:9d:61:
                    34:36:7f:23:15:ac:33:54:b2:72:92:96:4b:21:90:
                    70:f5:8a:fe:ab:47:40:ee:b1:34:8f:d4:fc:81:fe:
                    9a:81:af:68:a9:6e:5b:6a:5e:60:e8:5f:47:15:df:
                    ef:67:a6:7f:2c:f9:d5:be:e8:27:ed:a7:5b:40:16:
                    92:f1:d0:a1:83:ce:f5:6c:a7:09:2d:12:44:89:cc:
                    8b:1f:70:bb:52:88:0a:b3:ae:b9:bd:c9:aa:26:1c:
                    53:c1:66:08:88:16:61:3f:d7:06:74:b8:1d:d7:53:
                    83:74:b5:52:1c:57:16:8b:e5:fa:31:81:0e:c2:22:
                    fe:ac:4e:d8:6d:8d:9c:bf:c6:de:ba:de:b2:d2:0c:
                    f5:a3:03:41:6b:8a:42:45:74:0b:8d:3c:e8:b2:37:
                    d4:4f
                Exponent: 65537 (0x10001)
        X509v3 extensions:
            X509v3 Basic Constraints: 
                CA:FALSE
            X509v3 Subject Key Identifier: 
                0E:57:0F:D0:76:7C:98:1E:9C:FE:BE:BD:14:83:10:95:94:DA:60:35
            X509v3 Authority Key Identifier: 
                keyid:5C:41:F9:B7:4B:DE:58:9F:45:61:2C:AE:24:DE:09:52:03:85:95:71
                DirName:/CN=team453-net
                serial:39:80:D5:50:09:AF:11:72:01:44:86:06:41:36:D0:8A:6E:E4:A7:C8
            X509v3 Extended Key Usage: 
                TLS Web Client Authentication
            X509v3 Key Usage: 
                Digital Signature
    Signature Algorithm: sha256WithRSAEncryption
    Signature Value:
        23:0f:9e:2b:44:a4:27:35:de:e9:ff:42:b7:1c:63:94:48:c9:
        e6:7b:e1:a6:89:7f:40:26:6a:7a:b6:7f:d6:12:e9:e7:10:a2:
        25:88:39:46:38:46:70:68:8d:46:7e:73:8e:2c:2c:15:31:f0:
        73:b4:51:71:f5:a7:7b:bc:64:cf:54:c9:d1:09:43:6b:7a:80:
        ba:f2:22:c8:be:e6:88:61:88:84:4c:13:87:e1:c0:84:6f:63:
        16:36:ab:0a:93:1c:fb:fc:6b:40:de:71:40:b6:86:23:78:48:
        fd:14:d3:2f:78:ed:6f:1b:00:27:e6:9a:1e:e7:a3:81:c9:12:
        39:2f:af:ae:59:47:22:33:cc:6b:97:2d:ad:86:1b:38:9a:72:
        0f:7f:43:be:33:a8:59:98:34:b9:63:0a:3e:9d:d4:87:b4:98:
        28:e7:b3:69:bb:aa:4a:32:08:56:fd:d8:07:80:f9:41:32:94:
        20:93:79:19:bd:a1:33:c1:7e:8d:ee:40:7d:13:16:aa:70:ad:
        b6:32:f7:ae:00:ad:74:2a:b3:69:03:fb:7f:82:e6:7e:f3:a0:
        e8:6b:b3:54:3a:0f:48:19:63:50:3f:84:e8:f0:f9:5d:8f:f9:
        61:d7:16:ee:c2:bb:c5:e5:81:a0:4c:ab:13:08:64:bf:c9:f9:
        fe:a7:e9:b4
-----BEGIN CERTIFICATE-----
MIIDXTCCAkWgAwIBAgIRAINRhsdlgJH8Nonym7y/uXswDQYJKoZIhvcNAQELBQAw
FjEUMBIGA1UEAwwLdGVhbTQ1My1uZXQwHhcNMjMxMTAzMjA0NzI5WhcNMjYxMDE4
MjA0NzI5WjAZMRcwFQYDVQQDDA50ZWFtNDUzLWNsaWVudDCCASIwDQYJKoZIhvcN
AQEBBQADggEPADCCAQoCggEBAJFflBf++5TdcuajJnHF8OlF9wxC22VX5R9eMg/H
WTgMeBRxKkJgl+9ZbhuBqFdPyriruYzX7wEnRMuBa+0rFtCdvoEs4SOWY4A5Ff5t
PUVq09s9J3zBwHRXfiHM8qZCxr2tkqqO5J1hNDZ/IxWsM1SycpKWSyGQcPWK/qtH
QO6xNI/U/IH+moGvaKluW2peYOhfRxXf72emfyz51b7oJ+2nW0AWkvHQoYPO9Wyn
CS0SRInMix9wu1KICrOuub3JqiYcU8FmCIgWYT/XBnS4HddTg3S1UhxXFovl+jGB
DsIi/qxO2G2NnL/G3rrestIM9aMDQWuKQkV0C4086LI31E8CAwEAAaOBojCBnzAJ
BgNVHRMEAjAAMB0GA1UdDgQWBBQOVw/QdnyYHpz+vr0UgxCVlNpgNTBRBgNVHSME
SjBIgBRcQfm3S95Yn0VhLK4k3glSA4WVcaEapBgwFjEUMBIGA1UEAwwLdGVhbTQ1
My1uZXSCFDmA1VAJrxFyAUSGBkE20Ipu5KfIMBMGA1UdJQQMMAoGCCsGAQUFBwMC
MAsGA1UdDwQEAwIHgDANBgkqhkiG9w0BAQsFAAOCAQEAIw+eK0SkJzXe6f9Ctxxj
lEjJ5nvhpol/QCZqerZ/1hLp5xCiJYg5RjhGcGiNRn5zjiwsFTHwc7RRcfWne7xk
z1TJ0QlDa3qAuvIiyL7miGGIhEwTh+HAhG9jFjarCpMc+/xrQN5xQLaGI3hI/RTT
L3jtbxsAJ+aaHuejgckSOS+vrllHIjPMa5ctrYYbOJpyD39DvjOoWZg0uWMKPp3U
h7SYKOezabuqSjIIVv3YB4D5QTKUIJN5Gb2hM8F+je5AfRMWqnCttjL3rgCtdCqz
aQP7f4LmfvOg6GuzVDoPSBljUD+E6PD5XY/5YdcW7sK7xeWBoEyrEwhkv8n5/qfp
tA==
-----END CERTIFICATE-----
