Certificate:
    Data:
        Version: 3 (0x2)
        Serial Number:
            79:d4:eb:c5:c9:f4:38:d8:db:99:6a:76:0a:4b:84:72
        Signature Algorithm: sha256WithRSAEncryption
        Issuer: CN=team294-net
        Validity
            Not Before: Nov  4 10:46:04 2023 GMT
            Not After : Oct 19 10:46:04 2026 GMT
        Subject: CN=team294-server
        Subject Public Key Info:
            Public Key Algorithm: rsaEncryption
                Public-Key: (2048 bit)
                Modulus:
                    00:94:02:90:83:d7:3c:38:88:5d:f6:67:a9:4f:67:
                    fa:0e:74:ee:cd:15:f6:54:43:d6:2b:a4:01:c8:e4:
                    8a:94:e2:80:86:d6:8e:48:1e:6c:0a:6b:2f:99:ca:
                    71:d7:c5:89:62:a1:13:f1:7c:8b:ba:6b:66:a6:9c:
                    6d:18:8a:8d:50:aa:94:a7:e4:43:c7:60:54:73:e1:
                    cb:69:67:01:61:29:53:ff:d1:6f:b5:86:7b:73:a3:
                    10:2a:b5:56:c8:3e:d6:de:33:eb:c4:69:76:cd:fd:
                    d2:23:cc:c0:49:72:83:78:8a:fd:7f:5a:2d:64:13:
                    51:00:3b:70:11:93:44:a3:e2:9c:bb:ce:90:9f:d2:
                    11:e5:01:31:21:8c:46:5c:5b:df:ed:6f:75:58:c5:
                    9c:1c:97:f2:04:72:52:07:bf:17:a4:66:b8:26:31:
                    de:16:bf:96:c6:a8:a3:e4:25:6c:65:84:e2:5e:38:
                    55:87:19:55:75:a2:5d:94:f6:00:b9:86:9b:dd:7f:
                    9a:be:56:cc:90:2a:9f:0f:6a:40:eb:14:17:23:14:
                    a8:19:a6:5a:cc:25:33:3a:83:93:c0:20:eb:57:27:
                    ca:f1:7b:b4:72:1a:5f:6d:0d:5a:0e:5d:17:6d:15:
                    96:71:11:ba:de:d7:54:a6:d3:05:d0:da:9a:05:b9:
                    ca:51
                Exponent: 65537 (0x10001)
        X509v3 extensions:
            X509v3 Basic Constraints: 
                CA:FALSE
            X509v3 Subject Key Identifier: 
                A7:B8:30:2C:18:9F:0B:5B:1D:01:29:B0:6C:0A:DC:0B:D1:74:D2:93
            X509v3 Authority Key Identifier: 
                keyid:DD:4D:03:55:5B:CB:0D:AB:DC:65:66:4B:67:3B:EF:A3:45:2B:2A:D6
                DirName:/CN=team294-net
                serial:1B:CD:6D:D5:24:27:6C:17:01:00:38:E8:69:77:46:B7:EA:7C:0D:00
            X509v3 Extended Key Usage: 
                TLS Web Server Authentication
            X509v3 Key Usage: 
                Digital Signature, Key Encipherment
            X509v3 Subject Alternative Name: 
                DNS:team294-server
    Signature Algorithm: sha256WithRSAEncryption
    Signature Value:
        37:c8:2c:60:4a:91:45:04:f8:b8:7b:04:9d:47:15:90:f9:42:
        0a:6a:5c:e8:4a:1d:ba:3c:89:d1:0d:4c:f2:59:fc:69:2d:fc:
        99:d1:55:db:89:80:5b:e9:61:a1:83:9b:c5:22:e7:12:cb:f9:
        95:a9:79:2a:19:e3:5a:d5:6a:0e:9d:22:df:3c:32:87:75:00:
        1b:d5:1a:7b:e6:16:26:56:85:38:83:0e:39:1e:7c:83:75:6a:
        66:93:07:d2:3e:4a:c2:62:87:49:69:55:02:d1:b1:1b:9e:e6:
        cc:7e:0e:8b:90:99:3e:2c:48:7a:78:88:cb:ff:f0:40:3e:0c:
        c0:b9:77:8a:0b:be:c7:3b:4e:88:0d:6f:30:81:d6:c6:4a:9b:
        4a:46:4c:fd:32:d6:2f:df:c7:2c:50:e9:52:2e:b8:2a:0d:3a:
        c9:1e:d3:5f:88:76:57:0c:d1:0b:83:71:e2:59:7c:79:10:b1:
        c1:66:47:4d:50:02:98:68:ee:59:07:01:38:8c:8b:7b:d7:21:
        b9:78:3d:b1:a3:5f:0f:38:bb:90:a8:1d:55:07:4e:18:c7:b5:
        94:36:f4:c1:08:e4:a4:f7:4e:31:6f:0b:92:e1:52:c2:fd:bb:
        80:c0:d5:40:c9:24:aa:52:5a:2e:ce:52:d8:4d:c8:13:72:86:
        00:96:00:2f
-----BEGIN CERTIFICATE-----
MIIDdzCCAl+gAwIBAgIQedTrxcn0ONjbmWp2CkuEcjANBgkqhkiG9w0BAQsFADAW
MRQwEgYDVQQDDAt0ZWFtMjk0LW5ldDAeFw0yMzExMDQxMDQ2MDRaFw0yNjEwMTkx
MDQ2MDRaMBkxFzAVBgNVBAMMDnRlYW0yOTQtc2VydmVyMIIBIjANBgkqhkiG9w0B
AQEFAAOCAQ8AMIIBCgKCAQEAlAKQg9c8OIhd9mepT2f6DnTuzRX2VEPWK6QByOSK
lOKAhtaOSB5sCmsvmcpx18WJYqET8XyLumtmppxtGIqNUKqUp+RDx2BUc+HLaWcB
YSlT/9FvtYZ7c6MQKrVWyD7W3jPrxGl2zf3SI8zASXKDeIr9f1otZBNRADtwEZNE
o+Kcu86Qn9IR5QExIYxGXFvf7W91WMWcHJfyBHJSB78XpGa4JjHeFr+Wxqij5CVs
ZYTiXjhVhxlVdaJdlPYAuYab3X+avlbMkCqfD2pA6xQXIxSoGaZazCUzOoOTwCDr
VyfK8Xu0chpfbQ1aDl0XbRWWcRG63tdUptMF0NqaBbnKUQIDAQABo4G9MIG6MAkG
A1UdEwQCMAAwHQYDVR0OBBYEFKe4MCwYnwtbHQEpsGwK3AvRdNKTMFEGA1UdIwRK
MEiAFN1NA1Vbyw2r3GVmS2c776NFKyrWoRqkGDAWMRQwEgYDVQQDDAt0ZWFtMjk0
LW5ldIIUG81t1SQnbBcBADjoaXdGt+p8DQAwEwYDVR0lBAwwCgYIKwYBBQUHAwEw
CwYDVR0PBAQDAgWgMBkGA1UdEQQSMBCCDnRlYW0yOTQtc2VydmVyMA0GCSqGSIb3
DQEBCwUAA4IBAQA3yCxgSpFFBPi4ewSdRxWQ+UIKalzoSh26PInRDUzyWfxpLfyZ
0VXbiYBb6WGhg5vFIucSy/mVqXkqGeNa1WoOnSLfPDKHdQAb1Rp75hYmVoU4gw45
HnyDdWpmkwfSPkrCYodJaVUC0bEbnubMfg6LkJk+LEh6eIjL//BAPgzAuXeKC77H
O06IDW8wgdbGSptKRkz9MtYv38csUOlSLrgqDTrJHtNfiHZXDNELg3HiWXx5ELHB
ZkdNUAKYaO5ZBwE4jIt71yG5eD2xo18POLuQqB1VB04Yx7WUNvTBCOSk904xbwuS
4VLC/buAwNVAySSqUlouzlLYTcgTcoYAlgAv
-----END CERTIFICATE-----
