Certificate:
    Data:
        Version: 3 (0x2)
        Serial Number:
            96:82:90:ce:49:dc:5a:14:ff:8f:a7:25:03:31:4e:5e
        Signature Algorithm: sha256WithRSAEncryption
        Issuer: CN=team294-net
        Validity
            Not Before: Nov  4 10:46:04 2023 GMT
            Not After : Oct 19 10:46:04 2026 GMT
        Subject: CN=team294-client
        Subject Public Key Info:
            Public Key Algorithm: rsaEncryption
                Public-Key: (2048 bit)
                Modulus:
                    00:c3:c3:54:c9:5f:48:d5:07:ca:11:62:67:86:7f:
                    b9:68:83:37:ea:d6:e1:dc:a3:fe:4f:15:7e:7d:0b:
                    ba:e5:42:11:50:e7:08:18:10:f6:5b:f8:f9:55:45:
                    e8:e7:fb:cc:44:45:66:30:55:b8:b3:16:fc:27:00:
                    2b:88:5e:42:71:c0:9f:ab:5a:92:9c:14:95:69:2a:
                    a5:61:d7:21:69:de:db:a0:79:29:10:b0:a1:a9:43:
                    6d:d0:66:fc:ea:de:2a:94:03:26:80:9e:d9:a7:75:
                    19:4f:9e:27:3a:29:b2:36:da:9c:cf:5c:d1:c9:43:
                    ee:a5:d0:78:1d:94:eb:68:6b:6f:ff:b0:7e:9e:58:
                    19:96:6b:e9:77:9e:af:48:b2:54:46:be:96:70:b8:
                    a3:2f:e3:8a:78:51:a0:87:48:54:66:9b:f4:d6:ff:
                    78:51:d0:49:25:12:ad:d0:ed:56:92:be:1e:34:31:
                    65:1e:4c:34:5d:bd:49:68:10:4c:f8:ac:b4:09:3d:
                    11:e0:48:34:52:7b:3f:ab:15:f6:cb:b4:96:10:47:
                    03:6b:57:84:55:96:76:e8:fb:00:96:8d:10:82:cc:
                    e9:ce:f8:30:22:7a:b2:cd:1f:a8:2b:b4:98:70:39:
                    89:5c:6d:f3:8e:b3:75:c5:44:b8:89:d9:1d:b7:ee:
                    82:dd
                Exponent: 65537 (0x10001)
        X509v3 extensions:
            X509v3 Basic Constraints: 
                CA:FALSE
            X509v3 Subject Key Identifier: 
                0D:32:FA:31:5B:63:B5:D6:E6:E7:1E:B7:6E:C3:C1:86:20:03:BD:1C
            X509v3 Authority Key Identifier: 
                keyid:DD:4D:03:55:5B:CB:0D:AB:DC:65:66:4B:67:3B:EF:A3:45:2B:2A:D6
                DirName:/CN=team294-net
                serial:1B:CD:6D:D5:24:27:6C:17:01:00:38:E8:69:77:46:B7:EA:7C:0D:00
            X509v3 Extended Key Usage: 
                TLS Web Client Authentication
            X509v3 Key Usage: 
                Digital Signature
    Signature Algorithm: sha256WithRSAEncryption
    Signature Value:
        7d:eb:da:4d:1c:71:92:27:2f:2a:5b:b9:ba:f6:00:e1:10:52:
        0f:84:3d:52:a9:64:63:06:07:b4:78:f8:c9:a3:60:1c:d8:fc:
        57:6c:55:79:40:78:1f:6b:0e:e6:c1:3e:4e:c8:51:b9:a1:be:
        49:04:7c:db:45:32:e8:b6:ab:7d:06:aa:fe:ef:01:85:fa:79:
        b1:37:87:71:34:ce:46:32:a8:e6:b6:1f:10:63:4b:3a:7c:b7:
        0f:4d:9b:b1:4d:7a:6e:84:77:10:88:87:b1:fc:38:73:be:89:
        35:33:a8:f2:8d:2e:82:1b:5b:c5:d8:30:21:4c:ad:eb:0b:0e:
        bf:b7:dd:6f:43:a9:df:34:43:87:9a:31:ac:da:32:0f:f9:b0:
        f2:5f:4d:5c:8c:d5:dc:5a:00:a1:2b:6c:49:69:b3:28:83:b4:
        de:23:64:92:32:6f:93:73:9f:4e:cc:d0:97:0b:dc:c5:0a:09:
        d7:04:e0:df:a0:30:d8:81:08:81:fa:fa:19:a7:71:3c:78:48:
        00:24:14:c6:12:3b:55:e8:95:3c:67:e1:48:b4:13:d7:85:10:
        ac:3a:93:07:48:41:b9:48:1f:4f:19:5b:d6:c9:9d:68:48:e3:
        95:c3:fd:36:e3:29:bb:f8:05:14:3f:39:4e:87:81:48:2a:d0:
        38:b0:f0:08
-----BEGIN CERTIFICATE-----
MIIDXTCCAkWgAwIBAgIRAJaCkM5J3FoU/4+nJQMxTl4wDQYJKoZIhvcNAQELBQAw
FjEUMBIGA1UEAwwLdGVhbTI5NC1uZXQwHhcNMjMxMTA0MTA0NjA0WhcNMjYxMDE5
MTA0NjA0WjAZMRcwFQYDVQQDDA50ZWFtMjk0LWNsaWVudDCCASIwDQYJKoZIhvcN
AQEBBQADggEPADCCAQoCggEBAMPDVMlfSNUHyhFiZ4Z/uWiDN+rW4dyj/k8Vfn0L
uuVCEVDnCBgQ9lv4+VVF6Of7zERFZjBVuLMW/CcAK4heQnHAn6takpwUlWkqpWHX
IWne26B5KRCwoalDbdBm/OreKpQDJoCe2ad1GU+eJzopsjbanM9c0clD7qXQeB2U
62hrb/+wfp5YGZZr6Xeer0iyVEa+lnC4oy/jinhRoIdIVGab9Nb/eFHQSSUSrdDt
VpK+HjQxZR5MNF29SWgQTPistAk9EeBINFJ7P6sV9su0lhBHA2tXhFWWduj7AJaN
EILM6c74MCJ6ss0fqCu0mHA5iVxt846zdcVEuInZHbfugt0CAwEAAaOBojCBnzAJ
BgNVHRMEAjAAMB0GA1UdDgQWBBQNMvoxW2O11ubnHrduw8GGIAO9HDBRBgNVHSME
SjBIgBTdTQNVW8sNq9xlZktnO++jRSsq1qEapBgwFjEUMBIGA1UEAwwLdGVhbTI5
NC1uZXSCFBvNbdUkJ2wXAQA46Gl3RrfqfA0AMBMGA1UdJQQMMAoGCCsGAQUFBwMC
MAsGA1UdDwQEAwIHgDANBgkqhkiG9w0BAQsFAAOCAQEAfevaTRxxkicvKlu5uvYA
4RBSD4Q9UqlkYwYHtHj4yaNgHNj8V2xVeUB4H2sO5sE+TshRuaG+SQR820Uy6Lar
fQaq/u8Bhfp5sTeHcTTORjKo5rYfEGNLOny3D02bsU16boR3EIiHsfw4c76JNTOo
8o0ughtbxdgwIUyt6wsOv7fdb0Op3zRDh5oxrNoyD/mw8l9NXIzV3FoAoStsSWmz
KIO03iNkkjJvk3OfTszQlwvcxQoJ1wTg36Aw2IEIgfr6GadxPHhIACQUxhI7VeiV
PGfhSLQT14UQrDqTB0hBuUgfTxlb1smdaEjjlcP9NuMpu/gFFD85ToeBSCrQOLDw
CA==
-----END CERTIFICATE-----
