Certificate:
    Data:
        Version: 3 (0x2)
        Serial Number:
            d1:53:9f:2f:67:ec:0b:b2:f8:df:7e:0c:70:23:9f:98
        Signature Algorithm: sha256WithRSAEncryption
        Issuer: CN=team294-net
        Validity
            Not Before: Nov  4 11:33:44 2023 GMT
            Not After : Oct 19 11:33:44 2026 GMT
        Subject: CN=team294-client
        Subject Public Key Info:
            Public Key Algorithm: rsaEncryption
                Public-Key: (2048 bit)
                Modulus:
                    00:d8:61:b5:d3:7f:8e:61:56:e3:75:8a:1d:6e:45:
                    71:67:6c:6c:a6:b7:88:44:8d:a0:98:1a:78:b5:a4:
                    68:32:e5:9e:c3:c9:77:49:23:ed:20:72:4c:69:7c:
                    f6:03:4c:09:69:9d:02:8e:46:f4:cb:96:eb:b0:1e:
                    6e:b7:58:c5:d2:62:c0:f0:d9:24:d2:aa:f6:1b:6e:
                    94:0c:da:d4:82:a4:51:f5:48:b7:94:37:aa:2d:a9:
                    84:b6:e1:e4:03:53:8b:b4:ea:33:55:ae:11:c5:34:
                    b7:98:63:37:56:02:d6:d9:75:6c:7b:1f:ee:58:a8:
                    36:0b:d5:61:b5:db:ff:23:87:d5:eb:3d:9e:49:c9:
                    1d:7d:9c:d3:1e:4b:6d:c1:17:de:42:c6:96:3e:f6:
                    e5:90:17:17:e2:6f:b5:5e:9a:e8:12:7b:b4:63:1f:
                    1c:75:ef:cd:00:6f:56:9a:f5:53:fd:02:71:51:cc:
                    7c:32:83:8f:21:d8:df:5f:90:32:58:9a:3c:21:bd:
                    dd:e9:79:64:fb:f3:8c:fb:52:b5:b9:20:c5:a7:a5:
                    38:a8:e3:d5:43:26:62:2f:f5:14:be:c2:5d:6d:72:
                    0a:8b:ac:b3:bf:ec:22:60:0c:6c:fd:64:81:b6:1f:
                    13:57:ca:32:ea:a1:04:25:66:1c:0d:de:76:18:1f:
                    e3:e5
                Exponent: 65537 (0x10001)
        X509v3 extensions:
            X509v3 Basic Constraints: 
                CA:FALSE
            X509v3 Subject Key Identifier: 
                1F:0E:3C:00:8A:1A:09:A0:EB:06:51:90:63:09:77:0B:80:1D:0C:43
            X509v3 Authority Key Identifier: 
                keyid:68:EA:8A:E5:F7:1A:21:0D:71:CF:BA:3C:FD:6F:EB:D9:B1:AC:43:64
                DirName:/CN=team294-net
                serial:48:29:3A:2B:68:33:02:8D:CF:AD:43:1F:9B:AE:74:5C:0F:B0:EB:9B
            X509v3 Extended Key Usage: 
                TLS Web Client Authentication
            X509v3 Key Usage: 
                Digital Signature
    Signature Algorithm: sha256WithRSAEncryption
    Signature Value:
        05:5c:1b:a0:e2:2f:bb:80:4e:10:99:ad:73:95:4f:00:2a:6a:
        34:99:20:5d:a8:cf:98:a3:1a:46:fa:0e:a3:67:1a:6a:2b:bc:
        5a:2a:3f:97:81:36:ae:d9:a3:ec:37:7a:bb:19:a3:49:29:86:
        1f:2a:77:5b:f2:61:79:4c:cc:e7:64:9d:4f:16:80:6f:7b:b3:
        cd:b3:ab:de:ca:c0:bd:f0:92:d6:ea:d9:8a:cd:75:e7:08:d5:
        cf:f3:b0:b9:00:99:57:88:8e:dc:72:42:f0:d3:82:89:48:02:
        4a:ad:b5:f1:f1:05:9e:b8:be:12:ce:07:03:c6:42:e6:3a:43:
        e2:50:e7:65:03:72:77:12:95:d8:21:9b:5d:9d:2f:a7:d0:6d:
        e8:6f:b5:24:6a:4f:f6:de:84:b6:ed:07:58:89:3c:59:cd:63:
        95:87:d1:ab:a5:85:59:dd:9c:87:f0:a4:06:60:da:65:5f:c9:
        44:13:c3:c9:bf:da:83:61:d5:fd:73:18:75:d1:76:6e:a3:b5:
        16:f9:87:ae:7c:60:06:ad:9e:7e:ca:58:ca:71:aa:11:30:5f:
        62:16:64:48:1c:37:a6:dc:82:e1:13:fc:dd:d3:0c:48:5a:b9:
        a6:73:a8:64:48:1f:65:37:ad:2e:5e:b5:2b:91:21:12:23:24:
        64:ee:b0:5f
-----BEGIN CERTIFICATE-----
MIIDXTCCAkWgAwIBAgIRANFTny9n7Auy+N9+DHAjn5gwDQYJKoZIhvcNAQELBQAw
FjEUMBIGA1UEAwwLdGVhbTI5NC1uZXQwHhcNMjMxMTA0MTEzMzQ0WhcNMjYxMDE5
MTEzMzQ0WjAZMRcwFQYDVQQDDA50ZWFtMjk0LWNsaWVudDCCASIwDQYJKoZIhvcN
AQEBBQADggEPADCCAQoCggEBANhhtdN/jmFW43WKHW5FcWdsbKa3iESNoJgaeLWk
aDLlnsPJd0kj7SByTGl89gNMCWmdAo5G9MuW67AebrdYxdJiwPDZJNKq9htulAza
1IKkUfVIt5Q3qi2phLbh5ANTi7TqM1WuEcU0t5hjN1YC1tl1bHsf7lioNgvVYbXb
/yOH1es9nknJHX2c0x5LbcEX3kLGlj725ZAXF+JvtV6a6BJ7tGMfHHXvzQBvVpr1
U/0CcVHMfDKDjyHY31+QMliaPCG93el5ZPvzjPtStbkgxaelOKjj1UMmYi/1FL7C
XW1yCouss7/sImAMbP1kgbYfE1fKMuqhBCVmHA3edhgf4+UCAwEAAaOBojCBnzAJ
BgNVHRMEAjAAMB0GA1UdDgQWBBQfDjwAihoJoOsGUZBjCXcLgB0MQzBRBgNVHSME
SjBIgBRo6orl9xohDXHPujz9b+vZsaxDZKEapBgwFjEUMBIGA1UEAwwLdGVhbTI5
NC1uZXSCFEgpOitoMwKNz61DH5uudFwPsOubMBMGA1UdJQQMMAoGCCsGAQUFBwMC
MAsGA1UdDwQEAwIHgDANBgkqhkiG9w0BAQsFAAOCAQEABVwboOIvu4BOEJmtc5VP
ACpqNJkgXajPmKMaRvoOo2caaiu8Wio/l4E2rtmj7Dd6uxmjSSmGHyp3W/JheUzM
52SdTxaAb3uzzbOr3srAvfCS1urZis115wjVz/OwuQCZV4iO3HJC8NOCiUgCSq21
8fEFnri+Es4HA8ZC5jpD4lDnZQNydxKV2CGbXZ0vp9Bt6G+1JGpP9t6Etu0HWIk8
Wc1jlYfRq6WFWd2ch/CkBmDaZV/JRBPDyb/ag2HV/XMYddF2bqO1FvmHrnxgBq2e
fspYynGqETBfYhZkSBw3ptyC4RP83dMMSFq5pnOoZEgfZTetLl61K5EhEiMkZO6w
Xw==
-----END CERTIFICATE-----
