Certificate:
    Data:
        Version: 3 (0x2)
        Serial Number:
            53:38:cb:49:85:fd:8f:4a:35:50:b4:5f:40:8b:61:6d
        Signature Algorithm: sha256WithRSAEncryption
        Issuer: CN=team265-net
        Validity
            Not Before: Nov  4 10:45:37 2023 GMT
            Not After : Oct 19 10:45:37 2026 GMT
        Subject: CN=team265-server
        Subject Public Key Info:
            Public Key Algorithm: rsaEncryption
                Public-Key: (2048 bit)
                Modulus:
                    00:af:76:7e:cc:b1:bf:0d:5c:29:eb:d0:41:d2:bb:
                    8c:31:43:23:e2:0e:89:9e:9a:c4:2d:a9:99:32:90:
                    a3:5f:29:06:bb:99:b1:92:c0:a7:9c:b3:95:70:2b:
                    98:bc:a9:d3:9b:d7:5e:14:9b:9c:1b:f3:b5:a3:a6:
                    5c:ad:e6:f9:d4:37:ce:0f:d6:62:60:a4:a3:c1:80:
                    ca:ef:36:4a:7f:31:1a:4d:22:e1:91:46:96:27:59:
                    54:45:cf:90:36:c0:86:2a:e9:b1:fc:9c:18:72:22:
                    19:22:f4:5e:eb:d9:f0:31:28:20:9f:f4:25:06:15:
                    64:09:6a:ba:97:c2:98:52:21:1c:cf:58:b4:9c:16:
                    70:b4:20:df:b8:5b:86:66:ea:f3:c6:25:39:4d:47:
                    a1:63:2b:c8:b8:1b:20:0f:3e:e8:e4:3d:47:90:9a:
                    39:2b:6c:29:92:35:28:2f:a5:b1:05:7a:2c:08:59:
                    5f:8d:d7:97:2a:06:68:3b:55:86:51:a4:c5:05:8d:
                    84:ea:5a:a1:96:bd:da:83:a6:42:aa:1e:a9:5e:b7:
                    be:3c:d8:86:29:c5:8f:6f:a4:75:85:6f:8f:57:c6:
                    33:38:2b:ac:7b:93:22:c3:2f:89:83:f2:4c:43:92:
                    e4:22:d2:f1:5e:5e:d4:91:03:63:05:a5:8e:a1:87:
                    30:c7
                Exponent: 65537 (0x10001)
        X509v3 extensions:
            X509v3 Basic Constraints: 
                CA:FALSE
            X509v3 Subject Key Identifier: 
                73:4A:10:7A:37:30:EE:B2:D9:92:C1:8E:C1:EF:A3:8C:18:EC:B8:F0
            X509v3 Authority Key Identifier: 
                keyid:CE:96:CF:1E:22:7A:9E:D0:3D:FB:75:95:76:EC:EE:9C:33:6B:6F:F7
                DirName:/CN=team265-net
                serial:50:18:89:FF:F7:26:AC:A8:04:50:D5:12:24:03:5B:8A:B1:9D:13:0E
            X509v3 Extended Key Usage: 
                TLS Web Server Authentication
            X509v3 Key Usage: 
                Digital Signature, Key Encipherment
            X509v3 Subject Alternative Name: 
                DNS:team265-server
    Signature Algorithm: sha256WithRSAEncryption
    Signature Value:
        42:f1:a7:fa:c3:a0:99:8c:48:07:6b:56:14:00:be:92:54:77:
        8a:42:fc:f9:31:44:32:3d:d2:ea:3e:b8:55:1f:54:83:4b:e4:
        ad:4c:dd:91:67:e3:9a:14:7b:9a:2a:d7:e8:37:59:f1:0b:3d:
        91:f7:44:7d:13:ec:fc:57:ec:1f:40:19:45:cc:aa:6d:70:da:
        f5:4e:2b:48:6e:dc:40:3a:b0:41:1d:b5:6c:c7:87:b1:dd:0c:
        84:e4:42:61:fc:1d:8c:04:1a:79:8c:88:f7:8d:0f:f9:fb:d4:
        43:6f:19:ce:42:5f:59:0b:b1:63:59:4e:5c:a4:8b:d9:40:8a:
        9d:f4:ff:1b:fb:6a:31:2b:bb:02:92:c2:4b:1f:88:86:f5:a6:
        06:ea:1e:6d:9d:1b:58:a6:58:6a:11:0c:b0:fc:68:e1:46:0e:
        f6:74:72:dc:27:53:86:0a:f6:c4:77:9d:7c:13:25:6e:5d:e4:
        d5:07:26:c1:5f:b1:a9:0d:0d:16:47:0f:62:72:fb:35:4b:ce:
        5b:1a:da:94:a6:56:86:6a:3d:ed:0a:5d:98:b2:ea:48:7d:c3:
        82:4b:65:a4:cc:ef:4d:ab:af:7d:b9:a9:3c:1a:74:97:2b:72:
        ac:9e:6e:28:47:64:c0:72:a8:f9:d1:72:57:a2:08:f7:45:06:
        49:bc:8f:e7
-----BEGIN CERTIFICATE-----
MIIDdzCCAl+gAwIBAgIQUzjLSYX9j0o1ULRfQIthbTANBgkqhkiG9w0BAQsFADAW
MRQwEgYDVQQDDAt0ZWFtMjY1LW5ldDAeFw0yMzExMDQxMDQ1MzdaFw0yNjEwMTkx
MDQ1MzdaMBkxFzAVBgNVBAMMDnRlYW0yNjUtc2VydmVyMIIBIjANBgkqhkiG9w0B
AQEFAAOCAQ8AMIIBCgKCAQEAr3Z+zLG/DVwp69BB0ruMMUMj4g6JnprELamZMpCj
XykGu5mxksCnnLOVcCuYvKnTm9deFJucG/O1o6Zcreb51DfOD9ZiYKSjwYDK7zZK
fzEaTSLhkUaWJ1lURc+QNsCGKumx/JwYciIZIvRe69nwMSggn/QlBhVkCWq6l8KY
UiEcz1i0nBZwtCDfuFuGZurzxiU5TUehYyvIuBsgDz7o5D1HkJo5K2wpkjUoL6Wx
BXosCFlfjdeXKgZoO1WGUaTFBY2E6lqhlr3ag6ZCqh6pXre+PNiGKcWPb6R1hW+P
V8YzOCuse5Miwy+Jg/JMQ5LkItLxXl7UkQNjBaWOoYcwxwIDAQABo4G9MIG6MAkG
A1UdEwQCMAAwHQYDVR0OBBYEFHNKEHo3MO6y2ZLBjsHvo4wY7LjwMFEGA1UdIwRK
MEiAFM6Wzx4iep7QPft1lXbs7pwza2/3oRqkGDAWMRQwEgYDVQQDDAt0ZWFtMjY1
LW5ldIIUUBiJ//cmrKgEUNUSJANbirGdEw4wEwYDVR0lBAwwCgYIKwYBBQUHAwEw
CwYDVR0PBAQDAgWgMBkGA1UdEQQSMBCCDnRlYW0yNjUtc2VydmVyMA0GCSqGSIb3
DQEBCwUAA4IBAQBC8af6w6CZjEgHa1YUAL6SVHeKQvz5MUQyPdLqPrhVH1SDS+St
TN2RZ+OaFHuaKtfoN1nxCz2R90R9E+z8V+wfQBlFzKptcNr1TitIbtxAOrBBHbVs
x4ex3QyE5EJh/B2MBBp5jIj3jQ/5+9RDbxnOQl9ZC7FjWU5cpIvZQIqd9P8b+2ox
K7sCksJLH4iG9aYG6h5tnRtYplhqEQyw/GjhRg72dHLcJ1OGCvbEd518EyVuXeTV
BybBX7GpDQ0WRw9icvs1S85bGtqUplaGaj3tCl2YsupIfcOCS2WkzO9Nq699uak8
GnSXK3Ksnm4oR2TAcqj50XJXogj3RQZJvI/n
-----END CERTIFICATE-----
