Certificate:
    Data:
        Version: 3 (0x2)
        Serial Number:
            ad:4f:7f:64:8a:c7:97:e7:9e:d9:7b:3a:f7:92:be:1c
        Signature Algorithm: sha256WithRSAEncryption
        Issuer: CN=team265-net
        Validity
            Not Before: Nov  4 10:45:36 2023 GMT
            Not After : Oct 19 10:45:36 2026 GMT
        Subject: CN=team265-client
        Subject Public Key Info:
            Public Key Algorithm: rsaEncryption
                Public-Key: (2048 bit)
                Modulus:
                    00:b2:46:55:95:89:68:b4:4c:35:8c:19:47:32:fe:
                    eb:6e:d1:ae:6f:6f:58:93:e4:f3:41:b6:30:35:ac:
                    fc:94:0e:3a:b4:49:b6:c7:64:66:62:62:b1:32:64:
                    84:54:d6:cc:e3:de:99:80:14:dd:83:2d:75:e0:7b:
                    13:80:1a:b7:1d:c0:00:3f:4d:c2:1f:c0:7f:62:be:
                    ec:3f:e5:35:41:b1:51:3f:ff:ef:47:7d:9f:c4:5a:
                    72:93:6f:83:70:b8:a4:f3:b6:4b:ad:22:e1:c9:a7:
                    5c:c3:2b:d3:cd:83:35:1b:8b:18:cf:4a:eb:13:dc:
                    ea:4f:7d:ec:7e:7d:26:23:f3:10:eb:9e:ee:56:50:
                    bd:6c:65:e0:3b:3c:95:bc:04:96:7e:2f:47:3b:59:
                    24:a5:12:45:c4:35:4f:90:b8:b5:63:3d:ae:cf:32:
                    30:81:d2:8f:d9:86:3d:0b:56:d3:8b:f0:62:c9:04:
                    47:f0:2f:69:1f:99:88:2e:8c:aa:58:31:33:5a:c4:
                    27:a8:b5:b6:2e:9b:b5:97:45:b3:7c:99:46:f8:7c:
                    54:47:e2:32:e8:14:90:35:55:05:78:09:50:da:6d:
                    67:c0:53:0b:c5:10:5b:e0:66:4f:2b:94:e1:81:4f:
                    bb:cf:98:4e:c1:d2:05:15:37:9c:7a:f6:66:24:d3:
                    e7:e7
                Exponent: 65537 (0x10001)
        X509v3 extensions:
            X509v3 Basic Constraints: 
                CA:FALSE
            X509v3 Subject Key Identifier: 
                54:D6:D3:E0:63:51:72:D4:F4:48:4D:02:61:93:BE:DE:C4:F5:D9:8B
            X509v3 Authority Key Identifier: 
                keyid:CE:96:CF:1E:22:7A:9E:D0:3D:FB:75:95:76:EC:EE:9C:33:6B:6F:F7
                DirName:/CN=team265-net
                serial:50:18:89:FF:F7:26:AC:A8:04:50:D5:12:24:03:5B:8A:B1:9D:13:0E
            X509v3 Extended Key Usage: 
                TLS Web Client Authentication
            X509v3 Key Usage: 
                Digital Signature
    Signature Algorithm: sha256WithRSAEncryption
    Signature Value:
        0a:b4:2b:ca:6b:bf:a5:f1:af:49:8a:1c:eb:c4:a2:2f:d6:92:
        20:76:2f:12:4e:71:b4:48:14:7b:cb:22:9c:18:26:29:87:bb:
        b8:2d:c4:0e:fa:bb:ae:77:e6:36:ac:d8:45:85:5a:82:8c:f7:
        7d:b2:43:b3:4d:49:e5:0b:bf:b4:68:aa:e9:b5:c6:f0:df:20:
        21:51:66:10:23:29:8f:a8:3b:cd:bf:1a:c8:00:61:84:b3:65:
        d4:74:d0:af:d7:e2:3b:39:84:06:42:b8:76:34:0b:9e:5f:35:
        68:c0:a0:4c:06:b0:12:46:2f:2c:f4:b2:4e:39:0f:8f:f5:95:
        39:2b:a8:b4:eb:4c:19:22:95:ee:2b:c1:7e:b7:b6:59:d0:c7:
        d7:4f:9a:87:80:d6:a1:35:29:b2:de:19:d0:40:0d:9b:c4:6a:
        ec:81:2b:95:2a:4b:19:26:3c:df:ba:46:3d:3f:6f:f6:3e:00:
        8c:a2:f7:12:5c:a6:76:51:24:17:14:9b:3a:1e:46:2a:a6:1c:
        5d:90:3d:b5:f4:2b:01:97:fb:4a:df:94:53:7c:6a:e7:f0:e3:
        0c:6e:b6:6f:85:8b:40:67:1f:86:88:d5:db:24:ab:c9:44:ac:
        c7:12:f4:c1:47:3e:ef:a6:75:65:d8:98:4f:66:c0:3b:18:22:
        4b:93:00:81
-----BEGIN CERTIFICATE-----
MIIDXTCCAkWgAwIBAgIRAK1Pf2SKx5fnntl7OveSvhwwDQYJKoZIhvcNAQELBQAw
FjEUMBIGA1UEAwwLdGVhbTI2NS1uZXQwHhcNMjMxMTA0MTA0NTM2WhcNMjYxMDE5
MTA0NTM2WjAZMRcwFQYDVQQDDA50ZWFtMjY1LWNsaWVudDCCASIwDQYJKoZIhvcN
AQEBBQADggEPADCCAQoCggEBALJGVZWJaLRMNYwZRzL+627Rrm9vWJPk80G2MDWs
/JQOOrRJtsdkZmJisTJkhFTWzOPemYAU3YMtdeB7E4Aatx3AAD9Nwh/Af2K+7D/l
NUGxUT//70d9n8RacpNvg3C4pPO2S60i4cmnXMMr082DNRuLGM9K6xPc6k997H59
JiPzEOue7lZQvWxl4Ds8lbwEln4vRztZJKUSRcQ1T5C4tWM9rs8yMIHSj9mGPQtW
04vwYskER/AvaR+ZiC6MqlgxM1rEJ6i1ti6btZdFs3yZRvh8VEfiMugUkDVVBXgJ
UNptZ8BTC8UQW+BmTyuU4YFPu8+YTsHSBRU3nHr2ZiTT5+cCAwEAAaOBojCBnzAJ
BgNVHRMEAjAAMB0GA1UdDgQWBBRU1tPgY1Fy1PRITQJhk77exPXZizBRBgNVHSME
SjBIgBTOls8eInqe0D37dZV27O6cM2tv96EapBgwFjEUMBIGA1UEAwwLdGVhbTI2
NS1uZXSCFFAYif/3JqyoBFDVEiQDW4qxnRMOMBMGA1UdJQQMMAoGCCsGAQUFBwMC
MAsGA1UdDwQEAwIHgDANBgkqhkiG9w0BAQsFAAOCAQEACrQrymu/pfGvSYoc68Si
L9aSIHYvEk5xtEgUe8sinBgmKYe7uC3EDvq7rnfmNqzYRYVagoz3fbJDs01J5Qu/
tGiq6bXG8N8gIVFmECMpj6g7zb8ayABhhLNl1HTQr9fiOzmEBkK4djQLnl81aMCg
TAawEkYvLPSyTjkPj/WVOSuotOtMGSKV7ivBfre2WdDH10+ah4DWoTUpst4Z0EAN
m8Rq7IErlSpLGSY837pGPT9v9j4AjKL3ElymdlEkFxSbOh5GKqYcXZA9tfQrAZf7
St+UU3xq5/DjDG62b4WLQGcfhojV2ySryUSsxxL0wUc+76Z1ZdiYT2bAOxgiS5MA
gQ==
-----END CERTIFICATE-----
