Certificate:
    Data:
        Version: 3 (0x2)
        Serial Number:
            ca:5a:cd:70:32:6a:24:0c:b2:fb:93:1c:46:14:0d:63
        Signature Algorithm: sha256WithRSAEncryption
        Issuer: CN=team265-net
        Validity
            Not Before: Nov  3 20:44:10 2023 GMT
            Not After : Oct 18 20:44:10 2026 GMT
        Subject: CN=team265-client
        Subject Public Key Info:
            Public Key Algorithm: rsaEncryption
                Public-Key: (2048 bit)
                Modulus:
                    00:9d:fb:8a:d9:24:ca:8a:4a:47:a0:14:c0:73:d6:
                    fe:5b:b8:23:8f:c3:49:43:3a:11:d3:5d:7e:3f:31:
                    87:9c:25:f5:64:1c:7f:86:eb:a7:fa:46:ac:d1:69:
                    ba:b9:54:9c:4f:47:ca:48:86:5b:44:0c:f7:08:db:
                    cf:1c:fb:3e:5e:f2:00:84:c9:d5:10:dc:f4:11:ab:
                    b7:cd:a9:0a:b4:fd:38:6c:0a:b7:75:50:6f:43:84:
                    05:45:96:27:2f:44:1f:81:2a:59:91:88:be:0a:90:
                    30:7d:d5:ae:2d:8a:f8:a2:62:db:24:9d:06:05:f7:
                    df:1d:86:8c:58:be:dc:9d:2b:9d:9a:a6:70:a5:df:
                    a1:50:ac:df:ef:f5:ae:d4:5c:a6:ab:35:df:09:05:
                    44:cb:b4:3f:dd:9d:49:77:8a:70:6b:71:cc:6e:20:
                    87:95:c5:76:13:b4:8c:22:b2:63:5e:90:e5:18:8d:
                    54:15:e0:9a:ad:2d:cf:0a:17:57:98:ff:87:5c:d4:
                    8d:ee:c0:4d:e5:b1:9d:8b:77:3d:c4:ed:ed:a7:ad:
                    36:5c:8d:cb:e9:c7:f2:16:1b:db:41:90:43:5d:47:
                    46:38:37:13:40:df:3c:82:7a:35:f8:1f:4f:50:13:
                    e9:bf:82:2a:c6:63:82:90:d8:ba:91:23:1e:f8:87:
                    b5:9d
                Exponent: 65537 (0x10001)
        X509v3 extensions:
            X509v3 Basic Constraints: 
                CA:FALSE
            X509v3 Subject Key Identifier: 
                46:00:D9:5A:7C:DE:87:D7:9F:F0:E9:42:53:E3:DB:CC:DB:09:4B:93
            X509v3 Authority Key Identifier: 
                keyid:92:0B:A7:92:F4:81:A4:C9:4C:76:BC:9A:67:E4:84:ED:29:05:2C:75
                DirName:/CN=team265-net
                serial:7F:2F:54:A0:32:59:25:8F:71:1F:07:74:32:6E:57:D4:C1:96:8B:B7
            X509v3 Extended Key Usage: 
                TLS Web Client Authentication
            X509v3 Key Usage: 
                Digital Signature
    Signature Algorithm: sha256WithRSAEncryption
    Signature Value:
        5f:7f:a4:31:b4:22:0e:a4:b8:97:dd:18:46:65:e8:e9:28:2f:
        17:3e:0b:8b:15:ab:0c:66:cf:79:d8:08:39:52:56:51:c8:91:
        19:e6:78:95:d0:f6:9a:95:9d:83:0b:30:f2:96:39:56:5b:2b:
        97:4e:43:43:f7:bd:ae:97:7d:ec:0f:f6:87:98:30:30:d5:8a:
        0b:03:ff:b9:db:90:e9:fe:3f:82:40:b4:8e:7e:1d:14:74:3b:
        3a:5b:14:e3:de:15:8a:bb:f5:d0:a6:f3:a8:b7:d3:a1:d0:04:
        79:76:53:dc:dc:76:33:3e:51:48:48:5c:8b:2f:c9:ca:6c:cc:
        ff:b8:dc:6b:fd:d7:d5:5b:f4:45:10:9d:f9:60:d6:1e:b1:f8:
        6b:ec:6f:7c:18:09:9f:8f:03:6d:6e:2b:38:12:1f:74:4a:fd:
        cf:ed:00:52:bd:f5:b9:6f:cb:2d:c5:a0:c4:49:b8:3a:ae:83:
        b0:8d:f9:51:9d:aa:ca:7f:18:60:6e:88:65:7a:37:9a:4f:84:
        c8:d5:eb:08:9d:3c:cf:8f:6d:da:61:e8:7b:f3:99:f9:0f:3d:
        ec:b6:a5:44:a4:33:42:4b:25:76:f6:94:2f:36:61:f3:62:f2:
        ed:d4:f4:ff:77:6e:ee:ac:67:31:c6:12:e3:9b:2b:01:f6:6c:
        71:69:25:62
-----BEGIN CERTIFICATE-----
MIIDXTCCAkWgAwIBAgIRAMpazXAyaiQMsvuTHEYUDWMwDQYJKoZIhvcNAQELBQAw
FjEUMBIGA1UEAwwLdGVhbTI2NS1uZXQwHhcNMjMxMTAzMjA0NDEwWhcNMjYxMDE4
MjA0NDEwWjAZMRcwFQYDVQQDDA50ZWFtMjY1LWNsaWVudDCCASIwDQYJKoZIhvcN
AQEBBQADggEPADCCAQoCggEBAJ37itkkyopKR6AUwHPW/lu4I4/DSUM6EdNdfj8x
h5wl9WQcf4brp/pGrNFpurlUnE9HykiGW0QM9wjbzxz7Pl7yAITJ1RDc9BGrt82p
CrT9OGwKt3VQb0OEBUWWJy9EH4EqWZGIvgqQMH3Vri2K+KJi2ySdBgX33x2GjFi+
3J0rnZqmcKXfoVCs3+/1rtRcpqs13wkFRMu0P92dSXeKcGtxzG4gh5XFdhO0jCKy
Y16Q5RiNVBXgmq0tzwoXV5j/h1zUje7ATeWxnYt3PcTt7aetNlyNy+nH8hYb20GQ
Q11HRjg3E0DfPIJ6NfgfT1AT6b+CKsZjgpDYupEjHviHtZ0CAwEAAaOBojCBnzAJ
BgNVHRMEAjAAMB0GA1UdDgQWBBRGANlafN6H15/w6UJT49vM2wlLkzBRBgNVHSME
SjBIgBSSC6eS9IGkyUx2vJpn5ITtKQUsdaEapBgwFjEUMBIGA1UEAwwLdGVhbTI2
NS1uZXSCFH8vVKAyWSWPcR8HdDJuV9TBlou3MBMGA1UdJQQMMAoGCCsGAQUFBwMC
MAsGA1UdDwQEAwIHgDANBgkqhkiG9w0BAQsFAAOCAQEAX3+kMbQiDqS4l90YRmXo
6SgvFz4LixWrDGbPedgIOVJWUciRGeZ4ldD2mpWdgwsw8pY5Vlsrl05DQ/e9rpd9
7A/2h5gwMNWKCwP/uduQ6f4/gkC0jn4dFHQ7OlsU494Virv10KbzqLfTodAEeXZT
3Nx2Mz5RSEhciy/JymzM/7jca/3X1Vv0RRCd+WDWHrH4a+xvfBgJn48DbW4rOBIf
dEr9z+0AUr31uW/LLcWgxEm4Oq6DsI35UZ2qyn8YYG6IZXo3mk+EyNXrCJ08z49t
2mHoe/OZ+Q897LalRKQzQksldvaULzZh82Ly7dT0/3du7qxnMcYS45srAfZscWkl
Yg==
-----END CERTIFICATE-----
