Certificate:
    Data:
        Version: 3 (0x2)
        Serial Number:
            3c:45:fd:4a:fc:18:66:ee:ac:c0:ce:86:c0:06:9b:69
        Signature Algorithm: sha256WithRSAEncryption
        Issuer: CN=team403-net
        Validity
            Not Before: Nov  3 20:46:32 2023 GMT
            Not After : Oct 18 20:46:32 2026 GMT
        Subject: CN=team403-client
        Subject Public Key Info:
            Public Key Algorithm: rsaEncryption
                Public-Key: (2048 bit)
                Modulus:
                    00:be:fb:f7:ba:f7:b1:18:0b:65:d0:28:75:51:a5:
                    ab:52:24:6b:45:f6:bd:1b:84:c5:84:ee:4e:06:e3:
                    72:1a:25:15:50:5a:fd:1e:2e:d0:fe:96:83:03:07:
                    ad:3e:58:03:75:97:58:cc:12:f8:88:2e:37:84:d3:
                    f5:54:f5:64:84:14:36:31:51:bd:1e:d5:d5:62:e0:
                    57:92:37:06:97:38:e7:77:a2:33:5e:e6:41:4a:be:
                    d5:0f:b1:91:b4:d5:f2:48:fd:7c:de:de:cd:b1:cd:
                    6c:8d:6b:0e:8f:93:3d:26:2c:91:ca:83:1f:79:8b:
                    ff:55:ff:f3:06:3e:55:d8:71:bb:14:5b:83:2d:cd:
                    aa:ee:4c:01:14:fe:14:24:fb:3a:68:3d:35:43:1e:
                    3b:68:34:90:29:13:16:13:e0:9c:c7:9a:f4:e3:cd:
                    2f:a4:b2:aa:7e:90:3d:9f:43:93:40:ec:46:3c:68:
                    b9:19:4b:0d:20:01:e1:94:ce:17:f4:cb:d6:75:56:
                    d6:5d:49:f9:94:38:d8:d1:bc:68:c5:21:a5:1b:36:
                    ae:aa:e6:60:d2:55:d3:ea:f7:1c:e3:8d:04:18:f1:
                    15:49:be:69:88:64:c8:09:69:88:e6:4b:a1:a2:b7:
                    60:8c:41:2b:c8:be:80:85:2f:f3:43:8b:04:79:73:
                    f4:61
                Exponent: 65537 (0x10001)
        X509v3 extensions:
            X509v3 Basic Constraints: 
                CA:FALSE
            X509v3 Subject Key Identifier: 
                71:7B:BD:D4:A5:A1:05:CA:0B:0B:84:71:61:8C:78:08:3C:E4:40:F6
            X509v3 Authority Key Identifier: 
                keyid:53:FF:BC:6E:10:59:B2:2D:48:94:07:C7:17:08:4B:87:CE:F2:DE:25
                DirName:/CN=team403-net
                serial:53:E3:A2:40:EC:EF:C0:49:C1:E9:DE:98:84:4F:B5:AF:7B:1F:16:F9
            X509v3 Extended Key Usage: 
                TLS Web Client Authentication
            X509v3 Key Usage: 
                Digital Signature
    Signature Algorithm: sha256WithRSAEncryption
    Signature Value:
        69:71:5f:6d:4b:3a:a7:eb:4e:b9:1b:69:32:c7:e7:78:99:c1:
        f0:99:de:4d:23:6b:ef:88:13:47:b1:87:02:77:36:d5:c1:d1:
        eb:e4:e7:a0:0f:5f:4f:fc:e6:b4:43:7f:6b:8c:bc:9d:12:69:
        a4:2c:75:77:cc:18:44:1f:1d:3b:ba:80:40:54:d9:68:81:c7:
        fd:e2:6a:9f:6e:b1:6d:4a:8d:e2:cb:7b:10:38:1b:d3:03:b5:
        f1:54:eb:ba:39:b8:9a:9b:76:a6:d1:b3:ab:5d:b2:38:b0:0c:
        0d:48:52:77:5b:e9:c3:39:9b:c0:96:db:6b:1d:d0:fc:1c:14:
        4c:f3:86:a8:77:4b:db:82:73:8c:ef:08:97:9a:42:95:cd:5a:
        29:d8:fd:d7:50:f2:2d:97:23:22:c6:80:8c:95:35:a9:68:7a:
        bc:81:29:70:44:64:92:34:90:56:1b:3c:fb:dc:c0:27:18:c0:
        14:da:c1:5f:c0:f9:18:d3:50:2c:ba:3d:33:f0:7e:aa:4c:56:
        b3:ec:7a:c3:98:47:44:bf:e2:f2:1e:40:25:7d:37:f4:05:98:
        65:57:31:7e:3c:65:6e:85:18:94:96:a3:55:e0:e9:53:fc:23:
        6a:32:69:c9:31:4d:d6:3a:42:c0:2d:4d:93:59:04:0f:17:0f:
        04:77:5d:9f
-----BEGIN CERTIFICATE-----
MIIDXDCCAkSgAwIBAgIQPEX9SvwYZu6swM6GwAabaTANBgkqhkiG9w0BAQsFADAW
MRQwEgYDVQQDDAt0ZWFtNDAzLW5ldDAeFw0yMzExMDMyMDQ2MzJaFw0yNjEwMTgy
MDQ2MzJaMBkxFzAVBgNVBAMMDnRlYW00MDMtY2xpZW50MIIBIjANBgkqhkiG9w0B
AQEFAAOCAQ8AMIIBCgKCAQEAvvv3uvexGAtl0Ch1UaWrUiRrRfa9G4TFhO5OBuNy
GiUVUFr9Hi7Q/paDAwetPlgDdZdYzBL4iC43hNP1VPVkhBQ2MVG9HtXVYuBXkjcG
lzjnd6IzXuZBSr7VD7GRtNXySP183t7Nsc1sjWsOj5M9JiyRyoMfeYv/Vf/zBj5V
2HG7FFuDLc2q7kwBFP4UJPs6aD01Qx47aDSQKRMWE+Ccx5r0480vpLKqfpA9n0OT
QOxGPGi5GUsNIAHhlM4X9MvWdVbWXUn5lDjY0bxoxSGlGzauquZg0lXT6vcc440E
GPEVSb5piGTICWmI5kuhordgjEEryL6AhS/zQ4sEeXP0YQIDAQABo4GiMIGfMAkG
A1UdEwQCMAAwHQYDVR0OBBYEFHF7vdSloQXKCwuEcWGMeAg85ED2MFEGA1UdIwRK
MEiAFFP/vG4QWbItSJQHxxcIS4fO8t4loRqkGDAWMRQwEgYDVQQDDAt0ZWFtNDAz
LW5ldIIUU+OiQOzvwEnB6d6YhE+1r3sfFvkwEwYDVR0lBAwwCgYIKwYBBQUHAwIw
CwYDVR0PBAQDAgeAMA0GCSqGSIb3DQEBCwUAA4IBAQBpcV9tSzqn6065G2kyx+d4
mcHwmd5NI2vviBNHsYcCdzbVwdHr5OegD19P/Oa0Q39rjLydEmmkLHV3zBhEHx07
uoBAVNlogcf94mqfbrFtSo3iy3sQOBvTA7XxVOu6Obiam3am0bOrXbI4sAwNSFJ3
W+nDOZvAlttrHdD8HBRM84aod0vbgnOM7wiXmkKVzVop2P3XUPItlyMixoCMlTWp
aHq8gSlwRGSSNJBWGzz73MAnGMAU2sFfwPkY01Asuj0z8H6qTFaz7HrDmEdEv+Ly
HkAlfTf0BZhlVzF+PGVuhRiUlqNV4OlT/CNqMmnJMU3WOkLALU2TWQQPFw8Ed12f
-----END CERTIFICATE-----
