Certificate:
    Data:
        Version: 3 (0x2)
        Serial Number:
            20:51:58:d7:84:f9:9f:35:80:f7:b8:65:46:95:e1:f2
        Signature Algorithm: sha256WithRSAEncryption
        Issuer: CN=team438-net
        Validity
            Not Before: Nov  4 10:48:30 2023 GMT
            Not After : Oct 19 10:48:30 2026 GMT
        Subject: CN=team438-client
        Subject Public Key Info:
            Public Key Algorithm: rsaEncryption
                Public-Key: (2048 bit)
                Modulus:
                    00:c7:cb:f0:48:20:49:44:95:b5:27:70:89:e7:eb:
                    80:f4:1a:f5:b6:1d:c2:13:84:17:0e:75:fe:df:fc:
                    94:ab:74:15:76:47:32:b5:7f:05:0c:ee:8a:b7:a5:
                    e1:87:ea:b9:8a:26:fc:d2:5b:ba:7b:7d:5d:42:20:
                    a5:f7:91:a0:69:ef:26:7d:f4:75:3a:6c:bd:89:34:
                    06:6b:33:03:f9:ce:b9:1a:4c:40:1a:3f:8e:4b:11:
                    ba:5a:98:58:49:dc:cf:ca:cd:ba:31:9d:d4:0c:92:
                    53:af:54:b0:e0:9b:44:33:95:de:fb:e4:5b:89:67:
                    3a:fc:44:36:d3:0f:e8:7f:21:f4:32:e7:14:ee:17:
                    d6:1e:4e:a2:0f:61:7a:d2:16:57:ba:3c:43:df:95:
                    5d:f5:08:b3:98:74:ca:e9:d2:cf:08:c7:9f:dd:6e:
                    5b:5d:17:71:06:f8:2d:f1:b5:d8:24:8c:34:79:e4:
                    64:f5:0f:ce:9e:4c:35:5a:5a:e9:3f:71:96:56:ed:
                    74:5c:b5:3f:25:7d:d7:aa:14:5e:32:7e:1e:ef:cb:
                    a9:f0:4c:68:b8:7b:0c:b3:ad:ab:8a:77:83:67:60:
                    16:66:cf:a4:5d:e2:25:1f:a2:6e:be:2c:db:b0:c1:
                    cb:09:41:dd:d9:c7:3d:32:ce:54:78:5c:65:ec:3c:
                    e7:d3
                Exponent: 65537 (0x10001)
        X509v3 extensions:
            X509v3 Basic Constraints: 
                CA:FALSE
            X509v3 Subject Key Identifier: 
                94:3E:32:BD:49:35:03:A4:83:7E:E1:AB:36:48:74:FE:68:88:57:45
            X509v3 Authority Key Identifier: 
                keyid:14:17:AD:9A:DD:43:D9:01:FE:34:B1:61:6C:2D:19:2D:ED:AB:25:F7
                DirName:/CN=team438-net
                serial:40:7A:59:EC:76:47:EF:01:7E:66:A8:71:29:E5:76:E1:89:14:A8:A1
            X509v3 Extended Key Usage: 
                TLS Web Client Authentication
            X509v3 Key Usage: 
                Digital Signature
    Signature Algorithm: sha256WithRSAEncryption
    Signature Value:
        43:00:ed:bf:59:a9:36:4c:ce:cb:01:a8:5f:46:25:01:49:9b:
        86:40:f1:10:fc:bf:e8:2c:2f:62:91:47:92:82:f8:42:95:3a:
        4b:d6:12:a1:65:54:8d:e7:94:6e:f4:24:fe:da:2c:c2:f0:83:
        8b:86:c6:7e:42:9e:25:b2:7a:ed:34:ff:ae:6b:9c:29:09:77:
        45:e5:52:46:a7:ad:68:2f:ee:e7:5a:8b:5b:c6:0c:15:2a:6e:
        f1:da:13:04:5f:6f:4b:e1:50:7e:b6:c5:dd:f0:af:26:33:9f:
        7a:55:62:1a:b3:6e:ca:dc:e6:45:2b:d9:5f:96:2a:f4:e6:44:
        b7:8a:17:f2:01:2a:43:78:75:68:42:d5:37:ae:aa:65:45:93:
        a3:44:72:23:e9:00:5c:41:46:8b:4f:4f:17:e5:74:63:7f:5b:
        a2:c6:33:0d:e2:1b:1a:ec:0f:93:2f:1a:49:a5:45:fe:f7:a4:
        44:ba:b7:5f:c9:f1:b8:7c:86:75:fd:f4:c2:4a:7a:01:63:46:
        5e:67:0f:38:ee:93:96:74:c1:09:b0:2e:8f:75:06:6c:84:e7:
        96:e9:3b:c0:5d:f2:08:91:71:35:5c:04:26:e4:fa:e9:ec:b0:
        ce:60:d9:67:31:c3:0c:b5:01:c4:b0:6a:f7:ab:7c:56:42:fe:
        b8:14:b6:87
-----BEGIN CERTIFICATE-----
MIIDXDCCAkSgAwIBAgIQIFFY14T5nzWA97hlRpXh8jANBgkqhkiG9w0BAQsFADAW
MRQwEgYDVQQDDAt0ZWFtNDM4LW5ldDAeFw0yMzExMDQxMDQ4MzBaFw0yNjEwMTkx
MDQ4MzBaMBkxFzAVBgNVBAMMDnRlYW00MzgtY2xpZW50MIIBIjANBgkqhkiG9w0B
AQEFAAOCAQ8AMIIBCgKCAQEAx8vwSCBJRJW1J3CJ5+uA9Br1th3CE4QXDnX+3/yU
q3QVdkcytX8FDO6Kt6Xhh+q5iib80lu6e31dQiCl95Ggae8mffR1Omy9iTQGazMD
+c65GkxAGj+OSxG6WphYSdzPys26MZ3UDJJTr1Sw4JtEM5Xe++RbiWc6/EQ20w/o
fyH0MucU7hfWHk6iD2F60hZXujxD35Vd9QizmHTK6dLPCMef3W5bXRdxBvgt8bXY
JIw0eeRk9Q/Onkw1WlrpP3GWVu10XLU/JX3XqhReMn4e78up8ExouHsMs62rineD
Z2AWZs+kXeIlH6JuvizbsMHLCUHd2cc9Ms5UeFxl7Dzn0wIDAQABo4GiMIGfMAkG
A1UdEwQCMAAwHQYDVR0OBBYEFJQ+Mr1JNQOkg37hqzZIdP5oiFdFMFEGA1UdIwRK
MEiAFBQXrZrdQ9kB/jSxYWwtGS3tqyX3oRqkGDAWMRQwEgYDVQQDDAt0ZWFtNDM4
LW5ldIIUQHpZ7HZH7wF+ZqhxKeV24YkUqKEwEwYDVR0lBAwwCgYIKwYBBQUHAwIw
CwYDVR0PBAQDAgeAMA0GCSqGSIb3DQEBCwUAA4IBAQBDAO2/Wak2TM7LAahfRiUB
SZuGQPEQ/L/oLC9ikUeSgvhClTpL1hKhZVSN55Ru9CT+2izC8IOLhsZ+Qp4lsnrt
NP+ua5wpCXdF5VJGp61oL+7nWotbxgwVKm7x2hMEX29L4VB+tsXd8K8mM596VWIa
s27K3OZFK9lflir05kS3ihfyASpDeHVoQtU3rqplRZOjRHIj6QBcQUaLT08X5XRj
f1uixjMN4hsa7A+TLxpJpUX+96REurdfyfG4fIZ1/fTCSnoBY0ZeZw847pOWdMEJ
sC6PdQZshOeW6TvAXfIIkXE1XAQm5Prp7LDOYNlnMcMMtQHEsGr3q3xWQv64FLaH
-----END CERTIFICATE-----
