Certificate:
    Data:
        Version: 3 (0x2)
        Serial Number:
            a3:bf:0a:22:0b:39:ba:1d:af:6d:5f:39:fc:5c:b0:58
        Signature Algorithm: sha256WithRSAEncryption
        Issuer: CN=team438-net
        Validity
            Not Before: Nov  4 11:37:17 2023 GMT
            Not After : Oct 19 11:37:17 2026 GMT
        Subject: CN=team438-server
        Subject Public Key Info:
            Public Key Algorithm: rsaEncryption
                Public-Key: (2048 bit)
                Modulus:
                    00:9a:fa:9b:d3:f5:89:98:fc:fa:db:44:4c:6d:98:
                    aa:1e:4b:c5:7a:c2:6d:45:9d:78:5c:07:e4:9b:c1:
                    af:7f:72:d8:88:06:b4:7f:c8:69:cd:25:be:5c:29:
                    80:36:16:21:06:15:fa:8e:44:c8:78:ef:fd:84:7f:
                    d0:6e:a2:2a:33:b4:36:d1:b7:29:77:3d:4f:c2:c0:
                    7c:a7:ad:92:78:f6:ac:3d:2f:69:f0:bd:4a:ad:2c:
                    f4:e0:67:8f:32:dc:7b:55:e6:bd:28:18:f6:b4:17:
                    9c:23:0b:70:bb:10:3f:9f:a1:fa:8a:f9:31:64:6e:
                    5d:49:20:df:8b:82:56:f1:f2:2d:0c:39:f3:9d:fc:
                    92:c1:1d:41:fb:1f:a0:a6:15:76:f8:f2:3e:f2:fc:
                    68:49:dd:9a:fc:9e:cb:d9:a4:cd:97:a0:37:9a:d6:
                    0f:0f:74:c1:90:be:c0:eb:03:06:7f:9c:82:b9:32:
                    13:d6:69:d5:bd:16:f2:6a:bf:3e:0f:0c:5f:ef:b5:
                    43:79:ec:00:19:82:68:a2:3e:96:23:cf:40:ad:b9:
                    f6:4d:b9:03:b5:eb:79:87:5a:e5:f0:ef:91:46:5c:
                    a0:74:de:bd:95:9c:f6:e2:70:d4:28:d7:62:02:fc:
                    7c:19:b9:ed:cb:ee:dc:0a:81:07:cf:65:d0:49:b4:
                    24:7f
                Exponent: 65537 (0x10001)
        X509v3 extensions:
            X509v3 Basic Constraints: 
                CA:FALSE
            X509v3 Subject Key Identifier: 
                12:96:E4:47:16:48:A5:D2:D0:ED:1D:C6:BC:01:42:E1:C2:8C:FB:69
            X509v3 Authority Key Identifier: 
                keyid:8F:2A:DE:AD:A7:35:B2:6D:70:46:8F:78:62:1E:BD:8A:11:12:8D:40
                DirName:/CN=team438-net
                serial:58:62:31:84:FB:D6:1E:A2:DB:96:88:0E:AD:E6:9A:41:34:AC:E1:91
            X509v3 Extended Key Usage: 
                TLS Web Server Authentication
            X509v3 Key Usage: 
                Digital Signature, Key Encipherment
            X509v3 Subject Alternative Name: 
                DNS:team438-server
    Signature Algorithm: sha256WithRSAEncryption
    Signature Value:
        4a:29:66:b9:9d:f4:25:8b:13:04:be:9d:99:98:d8:86:95:0e:
        cb:28:f4:33:d6:13:26:cf:be:5f:42:d4:44:b2:fb:43:96:ec:
        e6:e5:20:bb:70:cd:df:d7:51:99:64:b3:69:81:53:41:ba:eb:
        0d:29:8a:b0:57:51:3b:87:a3:29:0a:a2:d6:e2:00:5e:95:7e:
        d1:74:f2:20:63:7d:38:c3:be:75:f3:59:7c:82:1e:e0:50:b9:
        9a:ed:47:d2:b5:7f:67:82:f0:12:b4:94:0c:80:2b:09:8b:2c:
        a5:e8:66:f1:7b:a9:50:1c:ef:94:23:8b:15:a2:af:c8:8c:3f:
        ea:42:be:ca:c1:e2:08:05:b5:f1:71:13:cd:00:0b:4c:75:ab:
        42:4c:d8:15:82:6e:34:c8:c5:79:7a:f8:d2:80:5b:17:20:3e:
        36:a1:2f:5f:53:6d:79:e2:3b:ab:59:e4:8a:ec:f9:13:b9:8a:
        7d:77:5f:23:ba:ff:4c:76:22:be:c0:7e:1a:50:94:43:a4:ca:
        ef:06:41:5c:d4:18:12:9d:f7:2c:f8:15:6b:43:61:75:2b:48:
        7f:9b:44:2c:f3:2c:dd:6f:fb:fe:6e:93:e4:76:df:37:07:74:
        7b:c5:fe:d7:14:39:29:38:30:f1:75:5c:88:f2:bd:e9:c6:9b:
        f5:29:c3:67
-----BEGIN CERTIFICATE-----
MIIDeDCCAmCgAwIBAgIRAKO/CiILObodr21fOfxcsFgwDQYJKoZIhvcNAQELBQAw
FjEUMBIGA1UEAwwLdGVhbTQzOC1uZXQwHhcNMjMxMTA0MTEzNzE3WhcNMjYxMDE5
MTEzNzE3WjAZMRcwFQYDVQQDDA50ZWFtNDM4LXNlcnZlcjCCASIwDQYJKoZIhvcN
AQEBBQADggEPADCCAQoCggEBAJr6m9P1iZj8+ttETG2Yqh5LxXrCbUWdeFwH5JvB
r39y2IgGtH/Iac0lvlwpgDYWIQYV+o5EyHjv/YR/0G6iKjO0NtG3KXc9T8LAfKet
knj2rD0vafC9Sq0s9OBnjzLce1XmvSgY9rQXnCMLcLsQP5+h+or5MWRuXUkg34uC
VvHyLQw58538ksEdQfsfoKYVdvjyPvL8aEndmvyey9mkzZegN5rWDw90wZC+wOsD
Bn+cgrkyE9Zp1b0W8mq/Pg8MX++1Q3nsABmCaKI+liPPQK259k25A7XreYda5fDv
kUZcoHTevZWc9uJw1CjXYgL8fBm57cvu3AqBB89l0Em0JH8CAwEAAaOBvTCBujAJ
BgNVHRMEAjAAMB0GA1UdDgQWBBQSluRHFkil0tDtHca8AULhwoz7aTBRBgNVHSME
SjBIgBSPKt6tpzWybXBGj3hiHr2KERKNQKEapBgwFjEUMBIGA1UEAwwLdGVhbTQz
OC1uZXSCFFhiMYT71h6i25aIDq3mmkE0rOGRMBMGA1UdJQQMMAoGCCsGAQUFBwMB
MAsGA1UdDwQEAwIFoDAZBgNVHREEEjAQgg50ZWFtNDM4LXNlcnZlcjANBgkqhkiG
9w0BAQsFAAOCAQEASilmuZ30JYsTBL6dmZjYhpUOyyj0M9YTJs++X0LURLL7Q5bs
5uUgu3DN39dRmWSzaYFTQbrrDSmKsFdRO4ejKQqi1uIAXpV+0XTyIGN9OMO+dfNZ
fIIe4FC5mu1H0rV/Z4LwErSUDIArCYsspehm8XupUBzvlCOLFaKvyIw/6kK+ysHi
CAW18XETzQALTHWrQkzYFYJuNMjFeXr40oBbFyA+NqEvX1NteeI7q1nkiuz5E7mK
fXdfI7r/THYivsB+GlCUQ6TK7wZBXNQYEp33LPgVa0NhdStIf5tELPMs3W/7/m6T
5HbfNwd0e8X+1xQ5KTgw8XVciPK96cab9SnDZw==
-----END CERTIFICATE-----
