Certificate:
    Data:
        Version: 3 (0x2)
        Serial Number:
            bb:9b:1a:e6:f6:f6:b0:b3:c4:a3:41:6d:2a:46:fb:1e
        Signature Algorithm: sha256WithRSAEncryption
        Issuer: CN=team438-net
        Validity
            Not Before: Nov  4 11:37:17 2023 GMT
            Not After : Oct 19 11:37:17 2026 GMT
        Subject: CN=team438-client
        Subject Public Key Info:
            Public Key Algorithm: rsaEncryption
                Public-Key: (2048 bit)
                Modulus:
                    00:a0:c6:80:86:e7:0b:ba:f9:89:bf:c2:6b:6f:1b:
                    4a:f9:ff:4d:27:06:c5:85:ad:25:dd:fe:ce:46:01:
                    cd:72:2c:95:75:a7:4a:f1:a0:4d:d5:ad:d5:2c:94:
                    0b:59:f9:46:86:4a:db:eb:ac:87:31:64:13:dd:41:
                    78:56:fd:15:f9:83:b9:43:ad:3f:94:2f:a8:7b:33:
                    a7:11:99:06:97:b1:ac:cd:26:35:93:e5:3a:f9:1d:
                    8b:c3:50:c2:f2:2d:61:cc:55:a4:6b:84:3e:c3:f9:
                    4d:20:23:7e:bf:7f:e6:fd:6e:a7:52:82:3d:c9:cb:
                    96:e7:5d:0c:c2:93:48:ea:25:47:ba:3d:c5:3b:2a:
                    cc:96:0a:98:70:8a:2b:fc:d7:12:f8:89:8b:76:18:
                    26:49:b6:7e:bd:99:01:5b:06:ef:4a:58:84:91:59:
                    32:5f:06:61:9e:49:a7:40:09:a3:d1:4f:0c:22:3b:
                    1d:13:d6:3f:16:00:cd:7a:6b:b4:7a:eb:b8:70:fe:
                    a5:d1:e1:03:a5:de:bf:a8:fd:43:94:44:ee:6f:cc:
                    df:17:2f:ed:e6:fe:ed:5d:70:15:7c:79:c4:d7:5f:
                    a3:7e:b3:2f:c9:5f:c5:26:8a:7d:78:0e:71:fd:30:
                    44:ea:67:a0:bf:12:a8:b6:eb:6e:70:39:32:0e:d2:
                    0e:c9
                Exponent: 65537 (0x10001)
        X509v3 extensions:
            X509v3 Basic Constraints: 
                CA:FALSE
            X509v3 Subject Key Identifier: 
                39:92:3D:58:9C:E0:A2:73:79:54:59:5C:DD:19:14:A2:1D:D8:7D:32
            X509v3 Authority Key Identifier: 
                keyid:8F:2A:DE:AD:A7:35:B2:6D:70:46:8F:78:62:1E:BD:8A:11:12:8D:40
                DirName:/CN=team438-net
                serial:58:62:31:84:FB:D6:1E:A2:DB:96:88:0E:AD:E6:9A:41:34:AC:E1:91
            X509v3 Extended Key Usage: 
                TLS Web Client Authentication
            X509v3 Key Usage: 
                Digital Signature
    Signature Algorithm: sha256WithRSAEncryption
    Signature Value:
        40:65:23:27:7a:04:af:dd:6f:e3:da:96:39:8f:8b:8b:42:64:
        e3:38:c4:81:24:ff:25:e2:8b:36:6a:68:32:77:28:2a:06:ca:
        b9:61:d2:06:2c:0e:b0:39:5f:87:13:3f:5f:4e:36:d3:59:a4:
        a2:c4:b1:dc:9b:22:68:1d:24:05:41:3b:bc:51:e4:a1:d7:5d:
        12:2f:60:60:6d:01:1e:16:36:be:df:6e:14:9e:4a:d9:9f:61:
        74:c2:63:39:75:c6:22:f0:29:1c:35:af:1f:58:35:7f:66:53:
        ab:16:d7:c3:58:6c:83:3f:c2:b8:c7:05:f0:90:55:e9:c1:c4:
        1b:5e:06:d6:fd:d4:c6:59:4e:5c:2b:5d:2e:97:c4:85:98:64:
        d0:d3:5c:0a:48:3a:c5:62:7e:21:05:50:4e:87:70:02:40:a3:
        a9:77:e2:76:1c:e2:78:5b:48:a0:e9:37:d0:68:3e:a5:a1:4c:
        3f:dd:a1:1e:b4:ff:aa:66:67:d8:55:49:69:6a:66:b1:e1:4d:
        0d:38:5b:1e:ee:bb:40:f8:ca:43:c8:31:d5:a9:44:2d:a6:79:
        9b:92:06:79:4f:a3:20:3c:d9:5e:62:64:16:0f:9b:9e:04:3a:
        3b:94:af:f1:b6:7f:f6:a1:10:c8:18:5b:53:e5:c1:c3:ee:79:
        c5:11:1e:f8
-----BEGIN CERTIFICATE-----
MIIDXTCCAkWgAwIBAgIRALubGub29rCzxKNBbSpG+x4wDQYJKoZIhvcNAQELBQAw
FjEUMBIGA1UEAwwLdGVhbTQzOC1uZXQwHhcNMjMxMTA0MTEzNzE3WhcNMjYxMDE5
MTEzNzE3WjAZMRcwFQYDVQQDDA50ZWFtNDM4LWNsaWVudDCCASIwDQYJKoZIhvcN
AQEBBQADggEPADCCAQoCggEBAKDGgIbnC7r5ib/Ca28bSvn/TScGxYWtJd3+zkYB
zXIslXWnSvGgTdWt1SyUC1n5RoZK2+ushzFkE91BeFb9FfmDuUOtP5QvqHszpxGZ
BpexrM0mNZPlOvkdi8NQwvItYcxVpGuEPsP5TSAjfr9/5v1up1KCPcnLluddDMKT
SOolR7o9xTsqzJYKmHCKK/zXEviJi3YYJkm2fr2ZAVsG70pYhJFZMl8GYZ5Jp0AJ
o9FPDCI7HRPWPxYAzXprtHrruHD+pdHhA6Xev6j9Q5RE7m/M3xcv7eb+7V1wFXx5
xNdfo36zL8lfxSaKfXgOcf0wROpnoL8SqLbrbnA5Mg7SDskCAwEAAaOBojCBnzAJ
BgNVHRMEAjAAMB0GA1UdDgQWBBQ5kj1YnOCic3lUWVzdGRSiHdh9MjBRBgNVHSME
SjBIgBSPKt6tpzWybXBGj3hiHr2KERKNQKEapBgwFjEUMBIGA1UEAwwLdGVhbTQz
OC1uZXSCFFhiMYT71h6i25aIDq3mmkE0rOGRMBMGA1UdJQQMMAoGCCsGAQUFBwMC
MAsGA1UdDwQEAwIHgDANBgkqhkiG9w0BAQsFAAOCAQEAQGUjJ3oEr91v49qWOY+L
i0Jk4zjEgST/JeKLNmpoMncoKgbKuWHSBiwOsDlfhxM/X04201mkosSx3JsiaB0k
BUE7vFHkodddEi9gYG0BHhY2vt9uFJ5K2Z9hdMJjOXXGIvApHDWvH1g1f2ZTqxbX
w1hsgz/CuMcF8JBV6cHEG14G1v3UxllOXCtdLpfEhZhk0NNcCkg6xWJ+IQVQTodw
AkCjqXfidhzieFtIoOk30Gg+paFMP92hHrT/qmZn2FVJaWpmseFNDThbHu67QPjK
Q8gx1alELaZ5m5IGeU+jIDzZXmJkFg+bngQ6O5Sv8bZ/9qEQyBhbU+XBw+55xREe
+A==
-----END CERTIFICATE-----
