Certificate:
    Data:
        Version: 3 (0x2)
        Serial Number:
            c5:e9:42:ea:55:c0:9d:ca:6f:3d:4e:25:56:c6:6f:d1
        Signature Algorithm: sha256WithRSAEncryption
        Issuer: CN=team438-net
        Validity
            Not Before: Nov  3 20:47:12 2023 GMT
            Not After : Oct 18 20:47:12 2026 GMT
        Subject: CN=team438-server
        Subject Public Key Info:
            Public Key Algorithm: rsaEncryption
                Public-Key: (2048 bit)
                Modulus:
                    00:c9:9a:1e:17:f5:24:f8:a3:49:e6:d9:5f:84:28:
                    74:38:94:6b:d5:6a:6b:04:b9:f9:fc:14:2a:59:a8:
                    88:26:59:fe:29:f4:70:b0:69:7a:95:41:ab:a0:45:
                    0d:bc:6e:42:13:b5:cc:60:7b:11:e3:b2:fb:a1:e0:
                    4e:b4:59:02:67:1a:68:fd:7b:d2:d1:54:28:ba:77:
                    ce:bf:5f:9a:00:95:2b:d7:17:df:92:23:e4:f7:ea:
                    7d:0e:a6:44:f6:f2:fc:a8:30:48:59:7f:38:7b:36:
                    01:3d:3e:8c:17:bd:9a:77:02:b3:55:20:8e:e0:c0:
                    bd:dc:0b:df:43:91:79:a4:be:42:7e:c0:60:3e:bc:
                    77:56:61:a6:65:e9:b0:be:85:04:56:0e:67:45:1d:
                    f7:32:90:94:d0:c0:88:7d:65:39:75:77:bf:52:b9:
                    6d:a4:b3:58:e7:09:54:c5:a4:c6:a5:13:1c:36:cd:
                    6e:90:f2:f5:42:9d:c4:e0:22:6f:9d:d5:c6:76:6d:
                    67:ae:fe:06:b4:25:35:c7:ca:b2:23:8d:eb:fc:d2:
                    bc:10:64:26:7b:e6:47:e6:f6:e0:57:48:bc:2a:50:
                    62:34:72:e2:52:73:ce:64:e3:5f:c7:4d:65:c2:f8:
                    df:dd:e4:38:b6:12:cf:c2:1e:f3:07:a2:31:1e:43:
                    a1:99
                Exponent: 65537 (0x10001)
        X509v3 extensions:
            X509v3 Basic Constraints: 
                CA:FALSE
            X509v3 Subject Key Identifier: 
                E6:93:C7:13:CA:6E:5E:5D:9D:0D:DF:F2:3A:1A:DD:39:A4:DD:D3:F6
            X509v3 Authority Key Identifier: 
                keyid:26:4C:32:76:EC:56:BC:EC:32:C4:A6:22:08:55:93:C5:65:3E:10:97
                DirName:/CN=team438-net
                serial:4C:94:E7:3E:A5:11:43:82:48:A6:A9:6C:96:C5:FC:56:8C:8F:27:98
            X509v3 Extended Key Usage: 
                TLS Web Server Authentication
            X509v3 Key Usage: 
                Digital Signature, Key Encipherment
            X509v3 Subject Alternative Name: 
                DNS:team438-server
    Signature Algorithm: sha256WithRSAEncryption
    Signature Value:
        8a:31:95:72:e9:2e:a2:07:4a:8e:b1:53:5d:a2:14:6e:a3:ae:
        62:4d:b7:f5:99:25:d9:bb:ab:e5:f0:41:42:52:7b:f3:c2:2c:
        74:9c:ba:b6:ad:02:ff:13:81:7f:c7:59:c9:9e:9e:a9:ab:ce:
        78:a2:66:e3:c4:11:72:2f:f1:7f:0f:b8:c1:9f:bd:12:91:e4:
        92:e6:9c:49:71:43:95:bf:19:0c:58:75:ad:05:03:e0:eb:61:
        fe:f2:b6:c1:b1:9a:f2:e8:ce:76:be:bc:a5:47:49:4f:74:11:
        88:f8:46:9c:77:28:c8:f3:7a:21:86:4a:96:e0:b6:f1:42:cf:
        6c:13:f2:bc:2e:37:e9:cc:56:69:2e:eb:c7:7d:e1:e0:6a:6b:
        87:88:00:db:34:62:f7:9b:7e:91:9b:9d:62:32:b2:ef:64:b7:
        1e:e0:98:ec:d3:e0:32:e6:c7:fb:ac:e5:5e:78:41:be:93:fd:
        b3:8e:1a:4a:58:92:cd:f2:b5:84:44:2c:26:31:c8:f8:94:6b:
        d0:45:a3:44:33:1c:46:8b:3c:25:87:26:d1:2c:3d:d6:e8:f6:
        7f:0b:b4:25:57:16:24:38:b8:8b:8e:b6:98:8a:ff:84:85:ce:
        a5:6e:ee:0f:9b:1e:d3:f8:27:e0:2d:11:c0:3e:73:4c:4a:a9:
        b6:2e:9f:25
-----BEGIN CERTIFICATE-----
MIIDeDCCAmCgAwIBAgIRAMXpQupVwJ3Kbz1OJVbGb9EwDQYJKoZIhvcNAQELBQAw
FjEUMBIGA1UEAwwLdGVhbTQzOC1uZXQwHhcNMjMxMTAzMjA0NzEyWhcNMjYxMDE4
MjA0NzEyWjAZMRcwFQYDVQQDDA50ZWFtNDM4LXNlcnZlcjCCASIwDQYJKoZIhvcN
AQEBBQADggEPADCCAQoCggEBAMmaHhf1JPijSebZX4QodDiUa9VqawS5+fwUKlmo
iCZZ/in0cLBpepVBq6BFDbxuQhO1zGB7EeOy+6HgTrRZAmcaaP170tFUKLp3zr9f
mgCVK9cX35Ij5PfqfQ6mRPby/KgwSFl/OHs2AT0+jBe9mncCs1UgjuDAvdwL30OR
eaS+Qn7AYD68d1ZhpmXpsL6FBFYOZ0Ud9zKQlNDAiH1lOXV3v1K5baSzWOcJVMWk
xqUTHDbNbpDy9UKdxOAib53VxnZtZ67+BrQlNcfKsiON6/zSvBBkJnvmR+b24FdI
vCpQYjRy4lJzzmTjX8dNZcL4393kOLYSz8Ie8weiMR5DoZkCAwEAAaOBvTCBujAJ
BgNVHRMEAjAAMB0GA1UdDgQWBBTmk8cTym5eXZ0N3/I6Gt05pN3T9jBRBgNVHSME
SjBIgBQmTDJ27Fa87DLEpiIIVZPFZT4Ql6EapBgwFjEUMBIGA1UEAwwLdGVhbTQz
OC1uZXSCFEyU5z6lEUOCSKapbJbF/FaMjyeYMBMGA1UdJQQMMAoGCCsGAQUFBwMB
MAsGA1UdDwQEAwIFoDAZBgNVHREEEjAQgg50ZWFtNDM4LXNlcnZlcjANBgkqhkiG
9w0BAQsFAAOCAQEAijGVcukuogdKjrFTXaIUbqOuYk239Zkl2bur5fBBQlJ788Is
dJy6tq0C/xOBf8dZyZ6eqavOeKJm48QRci/xfw+4wZ+9EpHkkuacSXFDlb8ZDFh1
rQUD4Oth/vK2wbGa8ujOdr68pUdJT3QRiPhGnHcoyPN6IYZKluC28ULPbBPyvC43
6cxWaS7rx33h4Gprh4gA2zRi95t+kZudYjKy72S3HuCY7NPgMubH+6zlXnhBvpP9
s44aSliSzfK1hEQsJjHI+JRr0EWjRDMcRos8JYcm0Sw91uj2fwu0JVcWJDi4i462
mIr/hIXOpW7uD5se0/gn4C0RwD5zTEqpti6fJQ==
-----END CERTIFICATE-----
