Certificate:
    Data:
        Version: 3 (0x2)
        Serial Number:
            2d:57:fa:1d:6a:c3:8d:47:1b:a3:e3:f4:b6:f8:14:d0
        Signature Algorithm: sha256WithRSAEncryption
        Issuer: CN=team84-net
        Validity
            Not Before: Nov  4 11:29:00 2023 GMT
            Not After : Oct 19 11:29:00 2026 GMT
        Subject: CN=team84-client
        Subject Public Key Info:
            Public Key Algorithm: rsaEncryption
                Public-Key: (2048 bit)
                Modulus:
                    00:ab:b4:08:85:5d:17:be:38:a5:48:2b:76:5c:16:
                    bb:b9:aa:04:92:fa:c8:cf:b3:2c:38:0d:ac:13:91:
                    d8:f1:ef:25:20:45:1c:dd:a6:96:42:e6:b3:28:62:
                    c8:a7:73:13:e5:da:ef:5a:51:f3:89:1e:f4:76:34:
                    74:17:c6:07:07:03:81:6d:ce:cd:0b:f3:3e:d6:ac:
                    99:5c:30:eb:af:60:7e:3a:69:a1:ae:95:58:45:ca:
                    bd:6e:b5:b3:82:0e:fb:0a:19:92:13:54:23:c7:7d:
                    c2:53:13:91:74:6f:4e:c6:8c:0d:d4:89:47:08:7b:
                    91:0c:ba:19:b1:05:15:38:17:73:ac:a7:01:b4:d3:
                    35:01:18:63:5f:e4:f1:6a:92:d3:c3:1e:8a:2d:e6:
                    08:57:c5:24:6d:cc:7e:b2:93:c3:44:6c:9a:83:90:
                    50:64:6a:56:41:34:d7:4a:92:d0:4f:5e:a4:f6:9b:
                    22:41:82:45:ea:35:68:18:14:91:2f:72:1f:4c:a3:
                    87:12:46:1f:4b:a8:bc:94:fb:df:db:cc:50:74:02:
                    06:1b:51:03:d2:dc:42:f6:23:fb:9f:89:19:9a:33:
                    e1:cc:fb:41:14:5f:0b:42:ff:60:77:b7:32:93:d7:
                    6c:e9:2e:ac:60:ed:2c:3d:d6:69:45:41:cd:86:73:
                    46:27
                Exponent: 65537 (0x10001)
        X509v3 extensions:
            X509v3 Basic Constraints: 
                CA:FALSE
            X509v3 Subject Key Identifier: 
                EB:CF:75:F0:A7:3C:CD:7F:EF:13:EF:E5:4A:A4:19:EF:95:0A:30:34
            X509v3 Authority Key Identifier: 
                keyid:CC:7A:52:ED:7F:14:E3:D9:CD:57:D7:FB:0A:12:19:F8:02:81:15:B6
                DirName:/CN=team84-net
                serial:48:39:7A:A9:AB:2F:32:F4:98:13:F0:6A:85:F9:23:33:EB:1F:25:08
            X509v3 Extended Key Usage: 
                TLS Web Client Authentication
            X509v3 Key Usage: 
                Digital Signature
    Signature Algorithm: sha256WithRSAEncryption
    Signature Value:
        87:f6:e5:2d:70:66:29:3c:58:e5:fc:a1:1f:8d:45:3b:14:bc:
        3e:11:1a:42:71:10:e6:e8:ae:9e:18:09:8b:79:da:ad:4e:7a:
        05:c5:96:f0:ba:c5:d9:67:cd:a9:7d:b3:03:ab:4a:ce:05:4a:
        d9:e2:2d:43:8d:37:b4:a6:c2:97:4c:a5:9f:65:19:ac:53:94:
        84:aa:d5:a3:a3:98:c8:48:08:51:d0:42:52:f2:d9:f6:58:56:
        65:f0:33:0f:bd:5c:b4:44:b7:53:47:fb:51:c3:78:18:37:0d:
        d8:05:30:00:e8:e7:df:93:79:bc:cb:ac:30:a5:63:c3:92:cb:
        6c:ea:34:77:fc:39:5f:db:bb:72:b8:10:19:e8:e4:73:fd:8c:
        4d:89:37:10:07:47:39:b2:fc:0b:c7:96:73:33:01:c5:25:c2:
        b6:8b:76:a5:95:bf:db:45:a6:02:d8:bd:12:d5:ec:45:62:62:
        ea:1b:35:ad:c8:c8:b1:c9:4c:a5:58:2d:57:e9:12:72:bc:68:
        05:5a:46:c2:77:07:f8:d6:a6:fa:52:68:16:5a:67:4e:a8:df:
        0c:0c:d1:38:c0:42:22:5c:64:ba:a2:4e:ea:df:8c:03:40:68:
        95:fa:22:7e:cd:cc:43:40:f0:b0:d7:50:27:5c:da:a0:f7:f4:
        63:15:26:44
-----BEGIN CERTIFICATE-----
MIIDWTCCAkGgAwIBAgIQLVf6HWrDjUcbo+P0tvgU0DANBgkqhkiG9w0BAQsFADAV
MRMwEQYDVQQDDAp0ZWFtODQtbmV0MB4XDTIzMTEwNDExMjkwMFoXDTI2MTAxOTEx
MjkwMFowGDEWMBQGA1UEAwwNdGVhbTg0LWNsaWVudDCCASIwDQYJKoZIhvcNAQEB
BQADggEPADCCAQoCggEBAKu0CIVdF744pUgrdlwWu7mqBJL6yM+zLDgNrBOR2PHv
JSBFHN2mlkLmsyhiyKdzE+Xa71pR84ke9HY0dBfGBwcDgW3OzQvzPtasmVww669g
fjppoa6VWEXKvW61s4IO+woZkhNUI8d9wlMTkXRvTsaMDdSJRwh7kQy6GbEFFTgX
c6ynAbTTNQEYY1/k8WqS08Meii3mCFfFJG3MfrKTw0RsmoOQUGRqVkE010qS0E9e
pPabIkGCReo1aBgUkS9yH0yjhxJGH0uovJT739vMUHQCBhtRA9LcQvYj+5+JGZoz
4cz7QRRfC0L/YHe3MpPXbOkurGDtLD3WaUVBzYZzRicCAwEAAaOBoTCBnjAJBgNV
HRMEAjAAMB0GA1UdDgQWBBTrz3XwpzzNf+8T7+VKpBnvlQowNDBQBgNVHSMESTBH
gBTMelLtfxTj2c1X1/sKEhn4AoEVtqEZpBcwFTETMBEGA1UEAwwKdGVhbTg0LW5l
dIIUSDl6qasvMvSYE/BqhfkjM+sfJQgwEwYDVR0lBAwwCgYIKwYBBQUHAwIwCwYD
VR0PBAQDAgeAMA0GCSqGSIb3DQEBCwUAA4IBAQCH9uUtcGYpPFjl/KEfjUU7FLw+
ERpCcRDm6K6eGAmLedqtTnoFxZbwusXZZ82pfbMDq0rOBUrZ4i1DjTe0psKXTKWf
ZRmsU5SEqtWjo5jISAhR0EJS8tn2WFZl8DMPvVy0RLdTR/tRw3gYNw3YBTAA6Off
k3m8y6wwpWPDksts6jR3/Dlf27tyuBAZ6ORz/YxNiTcQB0c5svwLx5ZzMwHFJcK2
i3allb/bRaYC2L0S1exFYmLqGzWtyMixyUylWC1X6RJyvGgFWkbCdwf41qb6UmgW
WmdOqN8MDNE4wEIiXGS6ok7q34wDQGiV+iJ+zcxDQPCw11AnXNqg9/RjFSZE
-----END CERTIFICATE-----
