Certificate:
    Data:
        Version: 3 (0x2)
        Serial Number:
            98:58:be:04:65:a1:c5:6d:99:b7:2f:9d:47:8a:7c:6c
        Signature Algorithm: sha256WithRSAEncryption
        Issuer: CN=team84-net
        Validity
            Not Before: Nov  4 10:41:58 2023 GMT
            Not After : Oct 19 10:41:58 2026 GMT
        Subject: CN=team84-client
        Subject Public Key Info:
            Public Key Algorithm: rsaEncryption
                Public-Key: (2048 bit)
                Modulus:
                    00:f1:27:02:ed:a2:7c:cd:bc:f2:42:30:f6:44:7b:
                    cc:fe:0e:35:2d:a7:37:4a:86:44:db:69:3f:ac:06:
                    98:87:bc:b3:25:ee:b8:d6:41:c7:02:a1:1b:34:67:
                    28:77:65:fc:9d:f1:4c:e4:56:b9:c4:9b:f0:87:1f:
                    11:5a:db:9f:2d:8b:f8:c4:74:53:9a:18:32:5d:7f:
                    79:94:06:99:7b:28:71:06:2e:bd:15:ff:72:ca:b6:
                    2a:f3:67:92:79:1e:62:b6:76:90:6e:35:1a:ec:cc:
                    20:ac:c7:cb:5e:71:55:8f:ce:4e:01:cb:0b:04:6f:
                    f3:85:7e:e4:69:fe:8f:a8:ee:76:a8:75:b4:20:19:
                    d8:91:da:bc:a3:b8:15:23:eb:85:10:2c:53:5d:47:
                    30:62:40:a4:c0:5f:eb:17:15:6f:3e:35:df:c5:4c:
                    36:d8:5c:46:2d:58:c5:b6:d8:bf:76:e8:37:bd:09:
                    38:23:3d:8f:10:ec:84:34:24:67:a7:66:1a:4c:5f:
                    02:fc:08:4b:5b:95:b4:61:c8:6f:8d:56:51:b5:c1:
                    5d:83:fb:12:b6:fb:cb:7b:73:ba:ea:f3:4a:04:95:
                    53:4a:57:b1:19:fb:fc:7e:b3:00:e4:62:19:f0:59:
                    b2:bd:93:c2:a0:77:1a:e2:76:7f:ba:8a:25:40:69:
                    38:6d
                Exponent: 65537 (0x10001)
        X509v3 extensions:
            X509v3 Basic Constraints: 
                CA:FALSE
            X509v3 Subject Key Identifier: 
                C1:6D:6D:24:97:07:0C:62:9F:F6:C8:41:04:76:2B:19:93:21:FA:99
            X509v3 Authority Key Identifier: 
                keyid:FE:C9:33:07:87:62:CF:D5:B6:52:41:4D:9C:A6:0A:F6:C6:83:FF:FC
                DirName:/CN=team84-net
                serial:66:74:E4:AD:FE:0F:BC:5D:55:B4:56:FB:91:10:32:99:E1:CB:39:17
            X509v3 Extended Key Usage: 
                TLS Web Client Authentication
            X509v3 Key Usage: 
                Digital Signature
    Signature Algorithm: sha256WithRSAEncryption
    Signature Value:
        0f:4f:70:36:49:5c:d2:b4:ec:b7:6b:b4:ab:15:03:f0:c5:08:
        5e:aa:4b:88:0c:df:f1:7a:13:43:2d:eb:8a:c1:6d:d5:46:80:
        0b:e3:f5:05:b7:03:de:1f:d8:25:c3:2f:e7:c9:a1:55:e9:3b:
        27:48:89:98:67:ec:53:f3:bb:46:5c:5c:9a:84:c7:87:ca:00:
        01:3e:c3:74:b1:9c:70:02:7b:24:5d:f4:87:59:f6:e7:fd:92:
        9f:d7:2c:ba:8b:ad:a5:96:1b:d8:0e:84:53:40:69:03:e7:21:
        c1:80:31:ab:69:e8:d5:bf:41:72:a9:ce:71:6f:dc:9e:af:84:
        4d:ea:69:95:05:59:f2:3d:18:ed:3f:96:7e:7d:eb:fd:91:c9:
        7c:f8:3d:d2:fa:ae:19:0c:b4:14:3c:59:07:8d:d3:09:fe:9a:
        01:50:36:a7:1d:cf:50:7f:98:a7:01:f0:c4:52:f1:67:52:f8:
        ff:af:16:93:1f:72:41:f9:26:17:3e:c9:c6:31:71:36:cf:ff:
        82:db:e5:5c:69:a5:4d:6a:26:c5:f4:5a:cb:1f:c1:e1:55:2a:
        35:94:52:e3:44:60:03:8a:1e:34:87:fa:97:51:39:65:df:5a:
        48:f3:d4:7f:0d:13:ee:cf:89:c9:41:8d:0b:70:4b:21:9f:3c:
        4a:ae:df:3a
-----BEGIN CERTIFICATE-----
MIIDWjCCAkKgAwIBAgIRAJhYvgRlocVtmbcvnUeKfGwwDQYJKoZIhvcNAQELBQAw
FTETMBEGA1UEAwwKdGVhbTg0LW5ldDAeFw0yMzExMDQxMDQxNThaFw0yNjEwMTkx
MDQxNThaMBgxFjAUBgNVBAMMDXRlYW04NC1jbGllbnQwggEiMA0GCSqGSIb3DQEB
AQUAA4IBDwAwggEKAoIBAQDxJwLtonzNvPJCMPZEe8z+DjUtpzdKhkTbaT+sBpiH
vLMl7rjWQccCoRs0Zyh3Zfyd8UzkVrnEm/CHHxFa258ti/jEdFOaGDJdf3mUBpl7
KHEGLr0V/3LKtirzZ5J5HmK2dpBuNRrszCCsx8tecVWPzk4BywsEb/OFfuRp/o+o
7naodbQgGdiR2ryjuBUj64UQLFNdRzBiQKTAX+sXFW8+Nd/FTDbYXEYtWMW22L92
6De9CTgjPY8Q7IQ0JGenZhpMXwL8CEtblbRhyG+NVlG1wV2D+xK2+8t7c7rq80oE
lVNKV7EZ+/x+swDkYhnwWbK9k8Kgdxridn+6iiVAaThtAgMBAAGjgaEwgZ4wCQYD
VR0TBAIwADAdBgNVHQ4EFgQUwW1tJJcHDGKf9shBBHYrGZMh+pkwUAYDVR0jBEkw
R4AU/skzB4diz9W2UkFNnKYK9saD//yhGaQXMBUxEzARBgNVBAMMCnRlYW04NC1u
ZXSCFGZ05K3+D7xdVbRW+5EQMpnhyzkXMBMGA1UdJQQMMAoGCCsGAQUFBwMCMAsG
A1UdDwQEAwIHgDANBgkqhkiG9w0BAQsFAAOCAQEAD09wNklc0rTst2u0qxUD8MUI
XqpLiAzf8XoTQy3risFt1UaAC+P1BbcD3h/YJcMv58mhVek7J0iJmGfsU/O7Rlxc
moTHh8oAAT7DdLGccAJ7JF30h1n25/2Sn9csuoutpZYb2A6EU0BpA+chwYAxq2no
1b9BcqnOcW/cnq+ETepplQVZ8j0Y7T+Wfn3r/ZHJfPg90vquGQy0FDxZB43TCf6a
AVA2px3PUH+YpwHwxFLxZ1L4/68Wkx9yQfkmFz7JxjFxNs//gtvlXGmlTWomxfRa
yx/B4VUqNZRS40RgA4oeNIf6l1E5Zd9aSPPUfw0T7s+JyUGNC3BLIZ88Sq7fOg==
-----END CERTIFICATE-----
