Certificate:
    Data:
        Version: 3 (0x2)
        Serial Number:
            1a:10:b7:5c:95:3b:f1:41:ba:c1:78:5d:36:12:64:67
        Signature Algorithm: sha256WithRSAEncryption
        Issuer: CN=team19-net
        Validity
            Not Before: Nov  4 11:27:43 2023 GMT
            Not After : Oct 19 11:27:43 2026 GMT
        Subject: CN=team19-server
        Subject Public Key Info:
            Public Key Algorithm: rsaEncryption
                Public-Key: (2048 bit)
                Modulus:
                    00:b8:34:40:87:76:a0:af:e2:0a:59:10:16:c7:2a:
                    a0:0d:62:42:1f:30:ce:3d:f5:86:2f:3a:53:05:2e:
                    1f:79:d5:4d:3b:12:a5:d1:07:49:5a:f4:b7:8a:40:
                    44:f7:69:1e:35:a3:e5:75:7d:46:ce:2d:f6:8a:cc:
                    c3:e6:4c:38:84:02:37:94:28:20:f4:4e:d9:24:39:
                    68:13:72:fc:79:f3:66:3a:d7:f8:59:d5:7e:7e:4b:
                    c7:7d:0e:cf:5c:bd:b0:c8:55:c4:f3:8d:44:95:ed:
                    13:47:10:99:50:aa:5f:8b:b7:1e:1e:c9:80:cb:b5:
                    11:fe:ea:a1:b6:82:de:4e:ef:4a:fb:4d:14:01:db:
                    55:2b:3e:76:1a:88:08:df:be:11:74:1d:7a:17:b3:
                    37:31:68:0c:58:33:6a:e7:af:e4:e8:c0:67:cb:42:
                    08:76:84:6f:37:5f:62:94:4c:36:e1:06:54:9f:9f:
                    ca:21:ce:52:b2:c1:44:04:8b:b1:40:7e:78:9d:7e:
                    88:de:be:62:ea:cd:b3:60:8a:06:9c:db:c5:7d:33:
                    67:85:f4:32:23:d5:16:b7:f2:8e:7e:da:19:15:5c:
                    e6:1d:75:6c:36:1e:24:c4:df:38:d7:a3:f6:00:65:
                    40:74:fa:79:9f:1a:80:91:c4:d1:37:9a:39:65:5e:
                    f9:c7
                Exponent: 65537 (0x10001)
        X509v3 extensions:
            X509v3 Basic Constraints: 
                CA:FALSE
            X509v3 Subject Key Identifier: 
                26:95:0B:A7:2D:01:43:8C:59:62:A3:64:BC:42:1E:50:D7:A9:6A:27
            X509v3 Authority Key Identifier: 
                keyid:D1:7C:A7:B9:3D:DA:D5:39:BF:B3:1C:80:A0:C9:7F:A8:C4:E9:B1:EF
                DirName:/CN=team19-net
                serial:2F:4D:EE:0D:DC:64:E0:8A:96:92:14:0A:36:1D:95:31:B4:D0:A6:54
            X509v3 Extended Key Usage: 
                TLS Web Server Authentication
            X509v3 Key Usage: 
                Digital Signature, Key Encipherment
            X509v3 Subject Alternative Name: 
                DNS:team19-server
    Signature Algorithm: sha256WithRSAEncryption
    Signature Value:
        22:94:14:29:ab:7f:55:95:b9:18:e0:3f:0f:c8:cd:ca:40:d3:
        77:9c:47:fc:82:83:6c:4e:32:57:fd:0d:0d:0a:e7:53:19:57:
        fd:57:1a:97:3f:4e:ad:14:21:86:99:1f:6c:1a:12:e6:80:a3:
        4f:b7:9c:18:bc:34:4f:ea:01:80:c9:76:3f:1d:94:82:60:6e:
        6b:89:41:10:c7:7b:70:ee:f4:ef:9f:64:61:0d:cc:53:41:24:
        40:8e:98:0d:a7:93:e4:73:13:41:54:29:c2:82:f2:98:c3:9a:
        33:4e:b7:1b:21:76:2b:85:74:1f:9a:68:f7:57:01:d1:25:bd:
        e0:a7:d4:72:8b:9d:cc:cf:7c:23:24:48:6e:21:c5:52:b7:51:
        d3:6e:ee:00:e0:0f:1e:dc:90:4a:5e:79:9e:c9:e3:32:78:0b:
        5e:d8:ae:c5:82:9d:8d:ec:69:2b:5d:2a:65:5c:eb:15:bc:bc:
        c6:d3:23:31:7b:81:0a:be:d3:be:24:65:ae:91:a2:31:95:71:
        d8:93:b7:7d:15:eb:f6:34:64:05:60:29:c8:f3:37:d6:52:ee:
        cc:f0:42:9f:3d:4c:bc:aa:63:21:aa:dd:27:9a:ce:07:a6:80:
        8a:9c:12:46:5d:09:31:7a:8c:c3:3c:36:9a:89:3d:b1:12:b9:
        8c:30:9d:f6
-----BEGIN CERTIFICATE-----
MIIDczCCAlugAwIBAgIQGhC3XJU78UG6wXhdNhJkZzANBgkqhkiG9w0BAQsFADAV
MRMwEQYDVQQDDAp0ZWFtMTktbmV0MB4XDTIzMTEwNDExMjc0M1oXDTI2MTAxOTEx
Mjc0M1owGDEWMBQGA1UEAwwNdGVhbTE5LXNlcnZlcjCCASIwDQYJKoZIhvcNAQEB
BQADggEPADCCAQoCggEBALg0QId2oK/iClkQFscqoA1iQh8wzj31hi86UwUuH3nV
TTsSpdEHSVr0t4pARPdpHjWj5XV9Rs4t9orMw+ZMOIQCN5QoIPRO2SQ5aBNy/Hnz
ZjrX+FnVfn5Lx30Oz1y9sMhVxPONRJXtE0cQmVCqX4u3Hh7JgMu1Ef7qobaC3k7v
SvtNFAHbVSs+dhqICN++EXQdehezNzFoDFgzauev5OjAZ8tCCHaEbzdfYpRMNuEG
VJ+fyiHOUrLBRASLsUB+eJ1+iN6+YurNs2CKBpzbxX0zZ4X0MiPVFrfyjn7aGRVc
5h11bDYeJMTfONej9gBlQHT6eZ8agJHE0TeaOWVe+ccCAwEAAaOBuzCBuDAJBgNV
HRMEAjAAMB0GA1UdDgQWBBQmlQunLQFDjFlio2S8Qh5Q16lqJzBQBgNVHSMESTBH
gBTRfKe5PdrVOb+zHICgyX+oxOmx76EZpBcwFTETMBEGA1UEAwwKdGVhbTE5LW5l
dIIUL03uDdxk4IqWkhQKNh2VMbTQplQwEwYDVR0lBAwwCgYIKwYBBQUHAwEwCwYD
VR0PBAQDAgWgMBgGA1UdEQQRMA+CDXRlYW0xOS1zZXJ2ZXIwDQYJKoZIhvcNAQEL
BQADggEBACKUFCmrf1WVuRjgPw/IzcpA03ecR/yCg2xOMlf9DQ0K51MZV/1XGpc/
Tq0UIYaZH2waEuaAo0+3nBi8NE/qAYDJdj8dlIJgbmuJQRDHe3Du9O+fZGENzFNB
JECOmA2nk+RzE0FUKcKC8pjDmjNOtxshdiuFdB+aaPdXAdElveCn1HKLnczPfCMk
SG4hxVK3UdNu7gDgDx7ckEpeeZ7J4zJ4C17YrsWCnY3saStdKmVc6xW8vMbTIzF7
gQq+074kZa6RojGVcdiTt30V6/Y0ZAVgKcjzN9ZS7szwQp89TLyqYyGq3Seazgem
gIqcEkZdCTF6jMM8NpqJPbESuYwwnfY=
-----END CERTIFICATE-----
