Certificate:
    Data:
        Version: 3 (0x2)
        Serial Number:
            5c:66:31:24:52:f7:35:a2:32:8c:be:44:55:51:3f:ed
        Signature Algorithm: sha256WithRSAEncryption
        Issuer: CN=team19-net
        Validity
            Not Before: Nov  4 10:40:35 2023 GMT
            Not After : Oct 19 10:40:35 2026 GMT
        Subject: CN=team19-server
        Subject Public Key Info:
            Public Key Algorithm: rsaEncryption
                Public-Key: (2048 bit)
                Modulus:
                    00:9e:32:bc:46:8e:14:fb:b2:11:b2:79:6a:e0:42:
                    8e:5a:fb:e6:9f:52:4b:aa:32:18:a2:32:61:9a:60:
                    d1:ba:e9:2c:fb:a2:a1:89:5e:c4:74:f3:af:8f:c0:
                    2a:2c:ca:09:62:d2:b2:0e:c5:3c:60:aa:d4:35:21:
                    ca:a8:d5:fb:5f:26:53:6a:a7:df:7c:4d:7b:5c:14:
                    20:ff:3d:11:99:56:89:48:d5:65:ce:20:4e:a2:04:
                    57:d3:34:15:a6:f7:6b:b0:c9:da:5f:21:e3:d8:81:
                    02:ae:96:56:f0:29:78:84:8f:60:b5:56:a1:ca:ac:
                    7a:73:47:0f:f8:d5:e6:ac:be:de:df:2c:4d:aa:43:
                    fd:6b:14:0d:43:c4:a0:fd:a8:fa:19:fd:a2:74:5b:
                    fc:90:bb:2f:22:5b:51:c2:4a:c3:5b:64:31:b7:b1:
                    2d:42:a4:e0:45:68:7a:f6:95:a8:a0:23:99:cc:99:
                    83:41:65:ee:65:cb:9b:81:2f:c7:54:15:8f:0e:24:
                    93:cc:ca:79:7c:06:6d:82:68:c1:62:90:a7:ed:49:
                    8c:c8:a1:98:fe:97:1c:c7:fe:1a:e0:3b:62:fe:a3:
                    6d:63:ee:bc:68:21:fd:35:69:77:28:76:81:fb:3b:
                    ba:0e:bc:d8:75:51:51:6e:78:2a:32:1c:db:1c:da:
                    ba:4d
                Exponent: 65537 (0x10001)
        X509v3 extensions:
            X509v3 Basic Constraints: 
                CA:FALSE
            X509v3 Subject Key Identifier: 
                F7:0E:31:FF:27:06:24:DC:D9:B3:70:9A:A6:15:52:4D:86:24:90:8A
            X509v3 Authority Key Identifier: 
                keyid:AD:F2:7E:4F:3D:AD:08:BF:78:DD:29:0A:23:CA:45:0C:AB:CF:36:76
                DirName:/CN=team19-net
                serial:51:29:0E:25:E8:31:5D:9A:C7:03:1E:76:24:C9:C0:7D:9A:77:63:54
            X509v3 Extended Key Usage: 
                TLS Web Server Authentication
            X509v3 Key Usage: 
                Digital Signature, Key Encipherment
            X509v3 Subject Alternative Name: 
                DNS:team19-server
    Signature Algorithm: sha256WithRSAEncryption
    Signature Value:
        bd:6c:d2:5a:5a:33:4d:25:b5:da:14:fd:6b:10:88:90:8a:c7:
        e1:cd:20:b2:da:d2:f0:36:0b:f7:bd:1f:19:24:9f:7b:5c:16:
        72:4a:94:f1:47:0d:37:14:60:f9:ec:43:de:0f:af:d3:72:aa:
        cc:ad:38:0c:79:56:23:b7:9d:c3:50:18:cf:5a:d3:5c:b8:ab:
        e1:d4:2c:5a:bb:85:a2:af:30:f4:c7:89:90:12:3c:27:55:a4:
        b9:c2:df:cc:8a:39:86:35:dc:9e:b0:b1:8f:d7:3a:53:50:ce:
        ff:ce:31:77:5b:e9:c0:4b:92:59:f2:24:4f:ec:03:70:6e:e6:
        1d:a2:a9:f1:bb:ec:b6:de:39:e1:d3:43:d0:a2:63:74:05:f6:
        8e:1f:a8:d4:f1:14:8a:51:4a:01:7b:2c:cb:6c:48:90:72:6e:
        16:3f:c9:8e:45:5f:e8:e0:3b:8f:cb:9e:61:cd:21:f0:71:99:
        61:ed:b4:65:e1:90:63:0c:c7:54:8d:82:0e:d9:7b:db:24:f6:
        fb:87:f8:76:0a:b2:70:36:1b:24:35:d8:4b:d8:03:d4:14:78:
        5b:ca:99:90:a8:aa:18:7b:e9:69:a9:e8:dd:c7:20:9d:85:ea:
        73:87:d4:82:8f:b0:77:07:0b:61:1b:27:1d:e4:8f:5c:7f:12:
        a9:41:56:ee
-----BEGIN CERTIFICATE-----
MIIDczCCAlugAwIBAgIQXGYxJFL3NaIyjL5EVVE/7TANBgkqhkiG9w0BAQsFADAV
MRMwEQYDVQQDDAp0ZWFtMTktbmV0MB4XDTIzMTEwNDEwNDAzNVoXDTI2MTAxOTEw
NDAzNVowGDEWMBQGA1UEAwwNdGVhbTE5LXNlcnZlcjCCASIwDQYJKoZIhvcNAQEB
BQADggEPADCCAQoCggEBAJ4yvEaOFPuyEbJ5auBCjlr75p9SS6oyGKIyYZpg0brp
LPuioYlexHTzr4/AKizKCWLSsg7FPGCq1DUhyqjV+18mU2qn33xNe1wUIP89EZlW
iUjVZc4gTqIEV9M0Fab3a7DJ2l8h49iBAq6WVvApeISPYLVWocqsenNHD/jV5qy+
3t8sTapD/WsUDUPEoP2o+hn9onRb/JC7LyJbUcJKw1tkMbexLUKk4EVoevaVqKAj
mcyZg0Fl7mXLm4Evx1QVjw4kk8zKeXwGbYJowWKQp+1JjMihmP6XHMf+GuA7Yv6j
bWPuvGgh/TVpdyh2gfs7ug682HVRUW54KjIc2xzauk0CAwEAAaOBuzCBuDAJBgNV
HRMEAjAAMB0GA1UdDgQWBBT3DjH/JwYk3NmzcJqmFVJNhiSQijBQBgNVHSMESTBH
gBSt8n5PPa0Iv3jdKQojykUMq882dqEZpBcwFTETMBEGA1UEAwwKdGVhbTE5LW5l
dIIUUSkOJegxXZrHAx52JMnAfZp3Y1QwEwYDVR0lBAwwCgYIKwYBBQUHAwEwCwYD
VR0PBAQDAgWgMBgGA1UdEQQRMA+CDXRlYW0xOS1zZXJ2ZXIwDQYJKoZIhvcNAQEL
BQADggEBAL1s0lpaM00ltdoU/WsQiJCKx+HNILLa0vA2C/e9Hxkkn3tcFnJKlPFH
DTcUYPnsQ94Pr9NyqsytOAx5ViO3ncNQGM9a01y4q+HULFq7haKvMPTHiZASPCdV
pLnC38yKOYY13J6wsY/XOlNQzv/OMXdb6cBLklnyJE/sA3Bu5h2iqfG77LbeOeHT
Q9CiY3QF9o4fqNTxFIpRSgF7LMtsSJBybhY/yY5FX+jgO4/LnmHNIfBxmWHttGXh
kGMMx1SNgg7Ze9sk9vuH+HYKsnA2GyQ12EvYA9QUeFvKmZCoqhh76Wmp6N3HIJ2F
6nOH1IKPsHcHC2EbJx3kj1x/EqlBVu4=
-----END CERTIFICATE-----
