Certificate:
    Data:
        Version: 3 (0x2)
        Serial Number:
            97:bc:88:8d:bf:9c:7f:4c:6b:f4:75:5f:78:37:f9:95
        Signature Algorithm: sha256WithRSAEncryption
        Issuer: CN=team19-net
        Validity
            Not Before: Nov  3 20:39:36 2023 GMT
            Not After : Oct 18 20:39:36 2026 GMT
        Subject: CN=team19-client
        Subject Public Key Info:
            Public Key Algorithm: rsaEncryption
                Public-Key: (2048 bit)
                Modulus:
                    00:db:ce:fd:5e:c8:b0:7d:18:d0:af:32:fc:29:23:
                    08:2d:b4:2c:8c:6e:29:17:e3:c3:ec:9d:96:d0:52:
                    7b:ab:8b:9c:21:00:87:06:8a:3f:1d:6e:06:be:9d:
                    6b:a6:19:04:2b:87:fa:15:a6:0a:89:62:e7:56:d6:
                    8c:29:80:d8:21:e5:5c:06:4e:fd:f2:25:6c:98:b0:
                    d2:40:ad:77:5a:55:b3:ad:1c:0a:56:05:e7:19:49:
                    db:ed:da:86:3e:61:bd:85:7b:94:ee:a6:e7:8c:c2:
                    a5:ae:eb:58:ef:67:41:f9:4e:d4:d9:2f:91:6e:33:
                    28:1b:2d:70:7a:4c:8b:cc:73:2a:89:f9:a7:f7:d6:
                    a2:ba:4d:47:07:dd:b3:fe:5d:b1:21:d5:3c:3f:70:
                    dc:af:21:41:8a:3f:0e:a6:85:fd:42:ae:21:c6:ef:
                    5c:a3:ed:42:34:05:38:0f:1a:49:74:ac:81:9c:48:
                    9e:ae:65:93:c8:49:cc:17:f3:93:7a:0a:15:ea:b9:
                    2e:5f:3e:7c:cd:94:da:a7:03:16:1f:e3:5a:51:3a:
                    0f:b9:e5:b0:63:67:64:8e:e5:2f:61:7c:c7:87:f3:
                    ba:f0:b9:a4:d9:98:ae:d5:e4:5d:3e:80:e2:5b:5e:
                    ea:9f:95:24:1f:38:0f:ab:28:89:c6:3c:3f:8d:d8:
                    46:c5
                Exponent: 65537 (0x10001)
        X509v3 extensions:
            X509v3 Basic Constraints: 
                CA:FALSE
            X509v3 Subject Key Identifier: 
                E4:45:22:F9:51:19:7E:96:AA:98:21:35:00:85:B0:39:10:D5:5F:C8
            X509v3 Authority Key Identifier: 
                keyid:6A:BF:48:23:F5:26:47:CC:8B:07:2E:C8:92:F1:63:A3:7C:4B:5D:E8
                DirName:/CN=team19-net
                serial:50:17:AA:87:BB:B4:51:34:81:EB:85:C6:55:BE:0D:37:8C:11:7A:44
            X509v3 Extended Key Usage: 
                TLS Web Client Authentication
            X509v3 Key Usage: 
                Digital Signature
    Signature Algorithm: sha256WithRSAEncryption
    Signature Value:
        18:55:51:ef:2b:74:ef:24:07:d2:1c:04:98:b8:5c:13:47:a7:
        bd:e7:3a:a4:b8:f7:43:7c:4a:e3:fb:15:5b:90:54:dd:a3:73:
        5b:8a:b3:07:f7:f6:a5:f2:e2:8b:00:4d:08:f2:91:1b:72:f7:
        66:7d:d3:5c:2c:a8:92:76:a3:dd:20:4c:47:82:7b:e4:bc:ec:
        94:0b:1e:3f:94:f1:94:54:e5:66:b1:d4:ac:05:4b:bb:cb:b0:
        c3:95:0e:85:15:34:d8:82:8f:2d:61:63:cc:05:a3:60:25:cd:
        a9:ba:ce:a3:04:37:4c:c0:94:85:ae:38:31:bd:c8:15:eb:42:
        76:d5:f1:d1:8d:5b:9d:66:f0:3c:48:ea:5d:27:ef:a0:18:bf:
        ed:67:23:5a:85:57:a0:68:04:33:9c:f5:de:bf:00:41:b3:7a:
        a6:30:a4:b2:5e:5b:73:a4:a2:81:11:48:11:8f:e7:3a:95:b2:
        f1:15:09:44:dd:30:bd:0b:8d:e5:7d:4e:8d:8b:8b:4d:bd:a4:
        ef:85:51:53:74:45:68:f0:0b:5b:37:32:b8:89:93:80:94:3f:
        e6:d3:77:fc:44:9e:54:1c:83:73:c6:f9:5d:39:7e:e4:d6:2f:
        35:50:f6:80:3a:d4:2a:bc:c5:ad:88:e5:0b:5a:23:e9:5c:2e:
        da:99:2f:88
-----BEGIN CERTIFICATE-----
MIIDWjCCAkKgAwIBAgIRAJe8iI2/nH9Ma/R1X3g3+ZUwDQYJKoZIhvcNAQELBQAw
FTETMBEGA1UEAwwKdGVhbTE5LW5ldDAeFw0yMzExMDMyMDM5MzZaFw0yNjEwMTgy
MDM5MzZaMBgxFjAUBgNVBAMMDXRlYW0xOS1jbGllbnQwggEiMA0GCSqGSIb3DQEB
AQUAA4IBDwAwggEKAoIBAQDbzv1eyLB9GNCvMvwpIwgttCyMbikX48PsnZbQUnur
i5whAIcGij8dbga+nWumGQQrh/oVpgqJYudW1owpgNgh5VwGTv3yJWyYsNJArXda
VbOtHApWBecZSdvt2oY+Yb2Fe5TupueMwqWu61jvZ0H5TtTZL5FuMygbLXB6TIvM
cyqJ+af31qK6TUcH3bP+XbEh1Tw/cNyvIUGKPw6mhf1CriHG71yj7UI0BTgPGkl0
rIGcSJ6uZZPIScwX85N6ChXquS5fPnzNlNqnAxYf41pROg+55bBjZ2SO5S9hfMeH
87rwuaTZmK7V5F0+gOJbXuqflSQfOA+rKInGPD+N2EbFAgMBAAGjgaEwgZ4wCQYD
VR0TBAIwADAdBgNVHQ4EFgQU5EUi+VEZfpaqmCE1AIWwORDVX8gwUAYDVR0jBEkw
R4AUar9II/UmR8yLBy7IkvFjo3xLXeihGaQXMBUxEzARBgNVBAMMCnRlYW0xOS1u
ZXSCFFAXqoe7tFE0geuFxlW+DTeMEXpEMBMGA1UdJQQMMAoGCCsGAQUFBwMCMAsG
A1UdDwQEAwIHgDANBgkqhkiG9w0BAQsFAAOCAQEAGFVR7yt07yQH0hwEmLhcE0en
vec6pLj3Q3xK4/sVW5BU3aNzW4qzB/f2pfLiiwBNCPKRG3L3Zn3TXCyoknaj3SBM
R4J75LzslAseP5TxlFTlZrHUrAVLu8uww5UOhRU02IKPLWFjzAWjYCXNqbrOowQ3
TMCUha44Mb3IFetCdtXx0Y1bnWbwPEjqXSfvoBi/7WcjWoVXoGgEM5z13r8AQbN6
pjCksl5bc6SigRFIEY/nOpWy8RUJRN0wvQuN5X1OjYuLTb2k74VRU3RFaPALWzcy
uImTgJQ/5tN3/ESeVByDc8b5XTl+5NYvNVD2gDrUKrzFrYjlC1oj6Vwu2pkviA==
-----END CERTIFICATE-----
