Certificate:
    Data:
        Version: 3 (0x2)
        Serial Number:
            b1:4a:8a:99:f9:d6:fa:28:d0:d8:43:fa:98:c9:aa:75
        Signature Algorithm: sha256WithRSAEncryption
        Issuer: CN=team19-net
        Validity
            Not Before: Nov  4 10:40:34 2023 GMT
            Not After : Oct 19 10:40:34 2026 GMT
        Subject: CN=team19-client
        Subject Public Key Info:
            Public Key Algorithm: rsaEncryption
                Public-Key: (2048 bit)
                Modulus:
                    00:b2:63:0d:1a:d9:34:c6:91:f1:e3:7a:6b:46:05:
                    e1:df:6a:83:e9:d0:b0:bb:ce:a2:b9:19:79:3e:54:
                    1d:1e:02:a3:2b:22:c7:5e:f1:6e:46:8b:c6:0a:52:
                    09:6f:3d:ca:ba:93:37:99:83:af:b8:15:76:92:4b:
                    81:76:3c:2e:71:08:b2:74:6d:5b:5a:70:08:6e:c5:
                    89:dd:bf:c0:5b:a5:4c:88:99:68:33:86:eb:73:af:
                    25:f8:33:2b:65:c6:14:4b:bd:dc:b8:ba:62:c5:a0:
                    d1:85:e9:05:21:f8:4b:50:b7:12:85:ca:67:04:e8:
                    ed:e1:f4:69:07:9f:ba:a6:d6:50:84:12:f8:7c:a1:
                    df:26:23:0e:95:c5:09:d6:7a:8e:fb:63:58:cb:03:
                    2f:69:d0:d4:3b:71:ed:d3:40:c3:10:69:91:56:26:
                    5c:5c:5e:f9:a4:5e:e4:1b:b4:6a:de:26:d4:33:d2:
                    24:5a:70:44:bc:b5:7d:b7:af:0f:14:c8:78:a3:a9:
                    91:1f:3f:53:e3:de:fc:76:78:7c:3d:ba:6a:b1:76:
                    74:cf:7c:bc:31:4c:84:39:4a:1c:55:e6:1e:d2:ce:
                    4e:3e:e3:c6:6f:b1:09:37:9c:b2:ea:b0:00:16:1f:
                    b0:26:0f:18:37:d2:fe:0b:07:ca:3b:2b:e7:df:c9:
                    8e:23
                Exponent: 65537 (0x10001)
        X509v3 extensions:
            X509v3 Basic Constraints: 
                CA:FALSE
            X509v3 Subject Key Identifier: 
                D8:29:95:A0:46:A9:20:28:F5:22:8B:E4:6A:0A:45:CA:16:30:BC:0B
            X509v3 Authority Key Identifier: 
                keyid:AD:F2:7E:4F:3D:AD:08:BF:78:DD:29:0A:23:CA:45:0C:AB:CF:36:76
                DirName:/CN=team19-net
                serial:51:29:0E:25:E8:31:5D:9A:C7:03:1E:76:24:C9:C0:7D:9A:77:63:54
            X509v3 Extended Key Usage: 
                TLS Web Client Authentication
            X509v3 Key Usage: 
                Digital Signature
    Signature Algorithm: sha256WithRSAEncryption
    Signature Value:
        3f:3d:ab:5b:e6:81:57:29:16:3f:e1:3d:bf:ad:54:98:7b:ab:
        87:0f:11:b8:7a:d6:05:a0:77:67:8a:29:08:7c:f6:29:66:13:
        c3:69:83:ca:e6:d4:e5:b8:bb:85:4f:0e:2e:40:ac:79:e7:05:
        a3:60:24:57:0f:35:63:c0:e2:e7:02:6a:12:fd:3b:b8:8a:8a:
        f0:68:e4:e1:fb:7b:e8:7f:19:36:2c:50:b0:57:96:8e:eb:e8:
        86:bb:74:94:74:2e:31:dc:9e:cd:6e:3a:32:40:91:49:61:a1:
        52:62:22:53:fa:09:34:3d:4e:39:3e:0f:70:28:ed:a3:09:d2:
        00:68:da:95:6f:d8:a1:7c:55:35:af:e0:b6:76:2f:8f:ff:7d:
        01:c3:46:82:2c:ac:cf:d4:1f:82:a3:a4:37:75:b2:2c:4b:b9:
        d1:bc:9c:aa:21:db:ad:63:13:5e:99:9a:79:b7:c9:14:26:97:
        4e:2a:d0:27:b6:5c:c6:51:e0:07:be:ab:6d:d4:4f:f8:48:0e:
        58:14:00:43:6d:5f:6d:d6:49:11:36:19:46:01:56:dd:e0:3e:
        e1:de:0b:bf:c6:d9:84:59:e1:b4:06:0d:66:b7:06:37:67:6d:
        d0:ef:5b:4d:27:49:fa:2d:ed:4e:28:de:14:13:57:4c:f8:a9:
        40:5b:1a:92
-----BEGIN CERTIFICATE-----
MIIDWjCCAkKgAwIBAgIRALFKipn51voo0NhD+pjJqnUwDQYJKoZIhvcNAQELBQAw
FTETMBEGA1UEAwwKdGVhbTE5LW5ldDAeFw0yMzExMDQxMDQwMzRaFw0yNjEwMTkx
MDQwMzRaMBgxFjAUBgNVBAMMDXRlYW0xOS1jbGllbnQwggEiMA0GCSqGSIb3DQEB
AQUAA4IBDwAwggEKAoIBAQCyYw0a2TTGkfHjemtGBeHfaoPp0LC7zqK5GXk+VB0e
AqMrIsde8W5Gi8YKUglvPcq6kzeZg6+4FXaSS4F2PC5xCLJ0bVtacAhuxYndv8Bb
pUyImWgzhutzryX4MytlxhRLvdy4umLFoNGF6QUh+EtQtxKFymcE6O3h9GkHn7qm
1lCEEvh8od8mIw6VxQnWeo77Y1jLAy9p0NQ7ce3TQMMQaZFWJlxcXvmkXuQbtGre
JtQz0iRacES8tX23rw8UyHijqZEfP1Pj3vx2eHw9umqxdnTPfLwxTIQ5ShxV5h7S
zk4+48ZvsQk3nLLqsAAWH7AmDxg30v4LB8o7K+ffyY4jAgMBAAGjgaEwgZ4wCQYD
VR0TBAIwADAdBgNVHQ4EFgQU2CmVoEapICj1IovkagpFyhYwvAswUAYDVR0jBEkw
R4AUrfJ+Tz2tCL943SkKI8pFDKvPNnahGaQXMBUxEzARBgNVBAMMCnRlYW0xOS1u
ZXSCFFEpDiXoMV2axwMediTJwH2ad2NUMBMGA1UdJQQMMAoGCCsGAQUFBwMCMAsG
A1UdDwQEAwIHgDANBgkqhkiG9w0BAQsFAAOCAQEAPz2rW+aBVykWP+E9v61UmHur
hw8RuHrWBaB3Z4opCHz2KWYTw2mDyubU5bi7hU8OLkCseecFo2AkVw81Y8Di5wJq
Ev07uIqK8Gjk4ft76H8ZNixQsFeWjuvohrt0lHQuMdyezW46MkCRSWGhUmIiU/oJ
ND1OOT4PcCjtownSAGjalW/YoXxVNa/gtnYvj/99AcNGgiysz9QfgqOkN3WyLEu5
0bycqiHbrWMTXpmaebfJFCaXTirQJ7ZcxlHgB76rbdRP+EgOWBQAQ21fbdZJETYZ
RgFW3eA+4d4Lv8bZhFnhtAYNZrcGN2dt0O9bTSdJ+i3tTijeFBNXTPipQFsakg==
-----END CERTIFICATE-----
