Certificate:
    Data:
        Version: 3 (0x2)
        Serial Number:
            d1:ba:2e:2f:d6:60:45:d5:37:bc:c3:e1:07:e9:39:af
        Signature Algorithm: sha256WithRSAEncryption
        Issuer: CN=team19-net
        Validity
            Not Before: Nov  3 20:39:36 2023 GMT
            Not After : Oct 18 20:39:36 2026 GMT
        Subject: CN=team19-server
        Subject Public Key Info:
            Public Key Algorithm: rsaEncryption
                Public-Key: (2048 bit)
                Modulus:
                    00:d2:e5:0d:78:18:74:9d:e7:f9:00:a3:65:1e:01:
                    f7:e5:f5:b6:a6:60:a7:5c:a6:80:d5:26:85:55:be:
                    27:b8:65:3d:5c:1a:92:97:56:d6:36:d1:63:dd:ca:
                    9c:c5:d3:27:6c:b5:96:2b:2b:4a:ff:ba:78:f1:2a:
                    5f:1a:23:b0:93:10:d2:37:d3:c9:72:a7:ce:6e:3a:
                    3c:eb:15:95:e6:a5:90:50:3a:3f:94:e7:fb:6f:6c:
                    e0:cd:2a:bb:85:01:1f:bc:17:55:2f:56:01:1f:a6:
                    f9:3f:bf:c1:c4:f6:ed:75:b2:63:75:0f:34:54:3c:
                    0f:33:cc:b1:92:36:e5:48:15:d3:7c:06:bf:75:a6:
                    21:50:a9:1a:da:82:cb:1c:3e:f3:af:2a:15:a6:16:
                    f6:18:f0:e1:6e:50:1e:b0:96:4c:b1:f9:be:60:74:
                    43:81:4e:33:78:d0:13:d3:24:75:d1:7b:3f:1a:18:
                    72:6a:52:f9:0e:b2:9a:00:b9:07:f3:eb:7c:13:ef:
                    ca:60:c7:16:4f:34:2d:95:be:5f:97:97:c6:42:eb:
                    b3:68:74:04:2b:10:d7:ea:28:8a:57:ba:89:8b:f2:
                    3f:3c:fd:cf:bd:07:4c:65:f8:2a:72:74:a9:f1:c5:
                    09:89:6e:b9:6b:e3:e2:5b:5a:3f:82:2a:b0:5e:3d:
                    e3:a7
                Exponent: 65537 (0x10001)
        X509v3 extensions:
            X509v3 Basic Constraints: 
                CA:FALSE
            X509v3 Subject Key Identifier: 
                77:41:CF:B4:F3:04:1B:92:8C:4E:C1:6D:43:DC:17:93:EB:3C:16:6B
            X509v3 Authority Key Identifier: 
                keyid:6A:BF:48:23:F5:26:47:CC:8B:07:2E:C8:92:F1:63:A3:7C:4B:5D:E8
                DirName:/CN=team19-net
                serial:50:17:AA:87:BB:B4:51:34:81:EB:85:C6:55:BE:0D:37:8C:11:7A:44
            X509v3 Extended Key Usage: 
                TLS Web Server Authentication
            X509v3 Key Usage: 
                Digital Signature, Key Encipherment
            X509v3 Subject Alternative Name: 
                DNS:team19-server
    Signature Algorithm: sha256WithRSAEncryption
    Signature Value:
        40:ed:2d:27:df:ef:29:b7:8a:7f:8b:ad:f5:dc:20:4d:f2:b9:
        59:57:a3:25:c7:e3:93:a1:97:c8:98:33:6e:c8:ea:d7:9f:c7:
        92:3f:3b:c9:a4:57:e1:a7:a6:65:57:f8:7e:15:94:7d:1e:22:
        35:89:36:ae:3f:39:63:8a:e3:55:c1:38:e0:ed:f7:44:66:56:
        b5:a6:33:87:51:86:91:7a:05:35:01:a4:9d:83:50:77:b3:69:
        80:cf:08:e4:1e:74:f6:d9:4e:71:98:ee:f5:0c:e9:39:3f:a5:
        d4:53:20:16:73:6d:4f:51:69:2a:64:d5:bb:7b:bc:ab:c2:37:
        ab:00:84:3f:93:e5:45:5e:c9:25:a6:96:6c:12:c9:bb:15:f4:
        47:7a:24:62:0d:56:16:6f:48:b7:dd:e0:df:1b:6b:4e:61:1d:
        a8:cd:84:18:a1:65:aa:88:ba:b4:7e:e1:d2:22:15:22:97:9c:
        23:07:26:21:a8:d7:ed:c3:45:d0:e5:f7:bc:ab:5e:52:81:20:
        ad:b4:bd:bf:33:18:c1:c6:7e:0a:ad:f9:1f:5d:4a:4e:96:0e:
        62:43:55:88:ef:b2:07:b9:db:2b:83:13:31:f8:f5:38:d5:52:
        2a:45:1a:52:6a:9b:db:d1:d2:8c:30:f4:67:4c:20:76:45:f5:
        21:dd:1d:ee
-----BEGIN CERTIFICATE-----
MIIDdDCCAlygAwIBAgIRANG6Li/WYEXVN7zD4QfpOa8wDQYJKoZIhvcNAQELBQAw
FTETMBEGA1UEAwwKdGVhbTE5LW5ldDAeFw0yMzExMDMyMDM5MzZaFw0yNjEwMTgy
MDM5MzZaMBgxFjAUBgNVBAMMDXRlYW0xOS1zZXJ2ZXIwggEiMA0GCSqGSIb3DQEB
AQUAA4IBDwAwggEKAoIBAQDS5Q14GHSd5/kAo2UeAffl9bamYKdcpoDVJoVVvie4
ZT1cGpKXVtY20WPdypzF0ydstZYrK0r/unjxKl8aI7CTENI308lyp85uOjzrFZXm
pZBQOj+U5/tvbODNKruFAR+8F1UvVgEfpvk/v8HE9u11smN1DzRUPA8zzLGSNuVI
FdN8Br91piFQqRragsscPvOvKhWmFvYY8OFuUB6wlkyx+b5gdEOBTjN40BPTJHXR
ez8aGHJqUvkOspoAuQfz63wT78pgxxZPNC2Vvl+Xl8ZC67NodAQrENfqKIpXuomL
8j88/c+9B0xl+CpydKnxxQmJbrlr4+JbWj+CKrBePeOnAgMBAAGjgbswgbgwCQYD
VR0TBAIwADAdBgNVHQ4EFgQUd0HPtPMEG5KMTsFtQ9wXk+s8FmswUAYDVR0jBEkw
R4AUar9II/UmR8yLBy7IkvFjo3xLXeihGaQXMBUxEzARBgNVBAMMCnRlYW0xOS1u
ZXSCFFAXqoe7tFE0geuFxlW+DTeMEXpEMBMGA1UdJQQMMAoGCCsGAQUFBwMBMAsG
A1UdDwQEAwIFoDAYBgNVHREEETAPgg10ZWFtMTktc2VydmVyMA0GCSqGSIb3DQEB
CwUAA4IBAQBA7S0n3+8pt4p/i6313CBN8rlZV6Mlx+OToZfImDNuyOrXn8eSPzvJ
pFfhp6ZlV/h+FZR9HiI1iTauPzljiuNVwTjg7fdEZla1pjOHUYaRegU1AaSdg1B3
s2mAzwjkHnT22U5xmO71DOk5P6XUUyAWc21PUWkqZNW7e7yrwjerAIQ/k+VFXskl
ppZsEsm7FfRHeiRiDVYWb0i33eDfG2tOYR2ozYQYoWWqiLq0fuHSIhUil5wjByYh
qNftw0XQ5fe8q15SgSCttL2/MxjBxn4KrfkfXUpOlg5iQ1WI77IHudsrgxMx+PU4
1VIqRRpSapvb0dKMMPRnTCB2RfUh3R3u
-----END CERTIFICATE-----
