Certificate:
    Data:
        Version: 3 (0x2)
        Serial Number:
            36:d1:f0:68:93:78:87:92:30:6c:ee:a4:82:04:2f:18
        Signature Algorithm: sha256WithRSAEncryption
        Issuer: CN=team136-net
        Validity
            Not Before: Nov  3 20:41:38 2023 GMT
            Not After : Oct 18 20:41:38 2026 GMT
        Subject: CN=team136-server
        Subject Public Key Info:
            Public Key Algorithm: rsaEncryption
                Public-Key: (2048 bit)
                Modulus:
                    00:b1:a6:f8:46:ec:1a:ea:f8:d1:68:6d:f7:7a:f1:
                    d6:0f:f6:fb:2e:56:6d:92:fa:94:80:c3:ac:61:e5:
                    20:5d:48:1c:97:17:04:83:43:50:98:c4:a4:a5:3e:
                    28:58:fc:c0:82:3a:58:e3:a2:26:df:4a:69:7b:2b:
                    47:34:4f:9b:c8:0f:ad:1d:23:0b:64:fe:4e:e3:00:
                    83:99:0e:0a:3f:af:67:24:67:89:32:d2:17:f4:39:
                    71:82:b7:6b:61:19:ce:cc:04:60:9e:86:96:45:82:
                    20:32:db:8e:10:c2:aa:28:23:27:0b:dd:ea:c7:28:
                    f4:23:a2:b7:e1:ac:b2:70:5d:29:8a:08:eb:11:99:
                    70:fe:e1:20:cd:26:10:29:f5:2c:84:83:88:91:84:
                    5e:39:25:6c:7f:90:f3:1f:fc:58:e5:cf:62:75:94:
                    44:a8:a4:06:7d:33:5a:fa:c4:b7:55:5a:42:74:18:
                    0b:cb:89:26:ec:6e:d0:0d:5e:a3:ba:cf:6a:04:89:
                    13:84:5b:50:63:57:77:1a:72:45:2f:16:7d:84:7c:
                    56:4b:b9:97:26:e7:8f:77:f7:52:89:33:e2:c9:9c:
                    64:f2:2c:67:c0:0f:49:d2:ea:ba:2a:39:79:61:12:
                    ed:ee:52:5a:5a:eb:e4:a4:d2:37:2b:73:96:9f:49:
                    12:cf
                Exponent: 65537 (0x10001)
        X509v3 extensions:
            X509v3 Basic Constraints: 
                CA:FALSE
            X509v3 Subject Key Identifier: 
                71:DF:60:05:B5:D3:7C:9C:88:30:CF:DE:44:E9:98:45:E3:C6:FC:51
            X509v3 Authority Key Identifier: 
                keyid:52:78:57:10:24:05:32:E0:BE:0C:80:6C:CD:CF:78:8D:91:C6:FA:8B
                DirName:/CN=team136-net
                serial:0B:15:72:E0:CF:75:22:F6:E8:99:67:18:80:FB:66:BB:2F:6E:E2:C3
            X509v3 Extended Key Usage: 
                TLS Web Server Authentication
            X509v3 Key Usage: 
                Digital Signature, Key Encipherment
            X509v3 Subject Alternative Name: 
                DNS:team136-server
    Signature Algorithm: sha256WithRSAEncryption
    Signature Value:
        c6:89:7e:e7:ac:79:48:32:08:e6:5d:6c:17:40:f9:45:a5:b8:
        6a:94:ce:c3:83:11:85:c4:87:db:26:4e:ef:1e:30:40:0b:c9:
        a6:0b:3b:e7:3c:6b:ad:d5:03:ea:ce:99:6f:65:c6:21:a8:53:
        a6:4a:0d:69:77:7e:15:8f:6e:65:2a:d1:20:57:71:45:9f:20:
        5b:7c:52:90:4e:9c:0b:8e:22:47:de:8a:8d:ab:b6:d4:96:62:
        70:83:83:ba:f3:c2:f3:1f:50:5c:01:94:33:9f:03:53:ac:12:
        59:fe:b2:50:60:34:a7:57:53:9e:b2:4f:b2:3e:70:8a:be:33:
        88:62:3b:fd:da:2c:dd:8e:f6:67:9c:d5:c1:f6:cf:30:a1:3f:
        e0:8f:c2:5a:a9:fb:23:9f:5d:fe:6d:a7:05:a5:78:a0:7a:b4:
        4f:82:cf:06:7d:88:fa:1c:b8:6d:be:45:dc:87:fc:07:04:48:
        9e:1e:f9:59:03:58:7b:a6:9d:4a:49:d1:a7:ea:82:bf:46:2a:
        e4:59:15:a7:b7:34:6f:74:6a:4e:27:fc:42:54:69:f9:81:f1:
        5e:1e:c9:09:fb:b6:d4:60:4d:23:c0:a5:50:28:43:e8:c7:8c:
        03:7e:6e:73:27:98:65:84:c3:f9:f8:fe:c8:d5:82:7d:50:01:
        d5:13:1f:94
-----BEGIN CERTIFICATE-----
MIIDdzCCAl+gAwIBAgIQNtHwaJN4h5IwbO6kggQvGDANBgkqhkiG9w0BAQsFADAW
MRQwEgYDVQQDDAt0ZWFtMTM2LW5ldDAeFw0yMzExMDMyMDQxMzhaFw0yNjEwMTgy
MDQxMzhaMBkxFzAVBgNVBAMMDnRlYW0xMzYtc2VydmVyMIIBIjANBgkqhkiG9w0B
AQEFAAOCAQ8AMIIBCgKCAQEAsab4Ruwa6vjRaG33evHWD/b7LlZtkvqUgMOsYeUg
XUgclxcEg0NQmMSkpT4oWPzAgjpY46Im30ppeytHNE+byA+tHSMLZP5O4wCDmQ4K
P69nJGeJMtIX9DlxgrdrYRnOzARgnoaWRYIgMtuOEMKqKCMnC93qxyj0I6K34ayy
cF0pigjrEZlw/uEgzSYQKfUshIOIkYReOSVsf5DzH/xY5c9idZREqKQGfTNa+sS3
VVpCdBgLy4km7G7QDV6jus9qBIkThFtQY1d3GnJFLxZ9hHxWS7mXJuePd/dSiTPi
yZxk8ixnwA9J0uq6Kjl5YRLt7lJaWuvkpNI3K3OWn0kSzwIDAQABo4G9MIG6MAkG
A1UdEwQCMAAwHQYDVR0OBBYEFHHfYAW103yciDDP3kTpmEXjxvxRMFEGA1UdIwRK
MEiAFFJ4VxAkBTLgvgyAbM3PeI2RxvqLoRqkGDAWMRQwEgYDVQQDDAt0ZWFtMTM2
LW5ldIIUCxVy4M91IvbomWcYgPtmuy9u4sMwEwYDVR0lBAwwCgYIKwYBBQUHAwEw
CwYDVR0PBAQDAgWgMBkGA1UdEQQSMBCCDnRlYW0xMzYtc2VydmVyMA0GCSqGSIb3
DQEBCwUAA4IBAQDGiX7nrHlIMgjmXWwXQPlFpbhqlM7DgxGFxIfbJk7vHjBAC8mm
CzvnPGut1QPqzplvZcYhqFOmSg1pd34Vj25lKtEgV3FFnyBbfFKQTpwLjiJH3oqN
q7bUlmJwg4O688LzH1BcAZQznwNTrBJZ/rJQYDSnV1Oesk+yPnCKvjOIYjv92izd
jvZnnNXB9s8woT/gj8Jaqfsjn13+bacFpXigerRPgs8GfYj6HLhtvkXch/wHBEie
HvlZA1h7pp1KSdGn6oK/RirkWRWntzRvdGpOJ/xCVGn5gfFeHskJ+7bUYE0jwKVQ
KEPox4wDfm5zJ5hlhMP5+P7I1YJ9UAHVEx+U
-----END CERTIFICATE-----
