Certificate:
    Data:
        Version: 3 (0x2)
        Serial Number:
            df:43:b8:ca:16:a7:cb:b5:19:a8:e1:bc:fc:3c:96:fa
        Signature Algorithm: sha256WithRSAEncryption
        Issuer: CN=team499-net
        Validity
            Not Before: Nov  4 11:38:55 2023 GMT
            Not After : Oct 19 11:38:55 2026 GMT
        Subject: CN=team499-client
        Subject Public Key Info:
            Public Key Algorithm: rsaEncryption
                Public-Key: (2048 bit)
                Modulus:
                    00:e2:01:f5:d0:26:b3:a8:d9:c2:84:f9:d6:b2:c9:
                    33:c6:8f:0c:14:04:d6:d3:6a:a5:6f:9c:a0:48:b1:
                    09:04:b3:63:4e:8f:d7:27:31:e7:ac:20:d2:2c:65:
                    98:df:5a:98:bd:b5:03:9c:74:a0:13:e2:83:23:84:
                    b1:92:c7:ad:28:09:ef:30:28:f0:25:fe:15:1b:e4:
                    50:ba:4f:ae:e7:d8:41:c6:60:36:79:95:fa:a2:27:
                    7a:61:48:38:4c:9e:73:36:ba:98:31:76:68:00:a4:
                    a0:6f:ff:41:e7:76:01:aa:fd:7f:3a:ba:40:36:41:
                    03:43:81:49:bf:ea:e7:f3:a6:bf:1d:ce:f9:51:e2:
                    8c:90:da:6f:b9:c3:1e:8e:ab:3a:27:5f:66:65:8d:
                    44:8a:aa:b9:4a:7f:6f:5a:f2:fe:11:e3:42:91:bb:
                    16:f8:60:a3:19:67:02:26:0f:77:42:fa:d4:85:10:
                    e7:c6:1e:b1:9d:8a:bf:26:3a:41:0f:56:1c:26:ff:
                    50:9b:57:37:61:d3:21:f0:f2:f9:e8:d3:7a:39:f9:
                    eb:26:82:b9:75:ab:3c:c9:69:7b:bb:b8:69:2f:02:
                    82:a4:e3:8f:d0:fe:b5:8f:6b:1c:7a:20:25:32:46:
                    8f:77:36:73:a4:d7:b1:23:f7:3f:31:a9:42:4c:47:
                    b1:85
                Exponent: 65537 (0x10001)
        X509v3 extensions:
            X509v3 Basic Constraints: 
                CA:FALSE
            X509v3 Subject Key Identifier: 
                DC:8A:93:CE:49:EB:4C:AC:D7:BC:0C:77:7A:25:99:78:08:51:8E:7F
            X509v3 Authority Key Identifier: 
                keyid:C7:7A:DA:19:7A:AC:3D:16:37:E7:3F:0B:80:5A:D6:5A:B3:6D:EC:C6
                DirName:/CN=team499-net
                serial:46:05:38:14:8D:25:24:43:49:E8:76:90:AA:B5:B7:DE:C0:B9:DB:CB
            X509v3 Extended Key Usage: 
                TLS Web Client Authentication
            X509v3 Key Usage: 
                Digital Signature
    Signature Algorithm: sha256WithRSAEncryption
    Signature Value:
        10:1a:71:d8:22:85:88:19:ca:5b:e5:74:96:69:4c:be:31:b0:
        12:48:ff:bc:dd:d1:47:4c:bf:f9:28:9b:6c:de:7f:ff:12:35:
        7c:fe:71:9d:e5:c1:00:f4:e4:17:80:87:82:d0:6a:c2:8e:6a:
        c3:64:86:d2:a0:d3:5c:4e:c0:39:a3:fb:d2:ca:26:44:97:95:
        4b:d4:53:00:2a:f0:00:0e:16:26:b8:4d:27:fc:a4:00:89:c3:
        c7:74:29:4a:6c:fc:81:3d:24:b4:d9:5d:de:9c:6a:ed:7d:ed:
        18:f4:2c:49:94:f6:5f:b8:6f:a5:86:c6:6b:da:ef:29:6b:bb:
        0f:c8:72:c7:ed:c4:28:3f:58:35:4a:ee:dd:cf:d3:8e:06:3d:
        81:69:92:0e:90:8d:c0:01:fb:c0:20:67:81:65:a1:53:27:ea:
        ad:49:d7:8c:a6:ac:03:71:15:68:3a:f2:77:c8:7f:4f:f4:20:
        19:c7:8b:f9:dd:a2:44:1f:e6:18:fb:4c:f1:77:cb:87:85:ed:
        da:54:3a:a4:ba:17:4a:a2:04:58:26:e9:3a:f6:da:81:f2:f2:
        72:8c:67:ca:85:81:16:a7:66:dc:c2:9f:c0:9b:3b:75:9e:79:
        ff:68:27:7f:00:f8:07:e0:ab:3c:3f:39:7a:66:ec:16:18:f0:
        c5:86:af:f6
-----BEGIN CERTIFICATE-----
MIIDXTCCAkWgAwIBAgIRAN9DuMoWp8u1GajhvPw8lvowDQYJKoZIhvcNAQELBQAw
FjEUMBIGA1UEAwwLdGVhbTQ5OS1uZXQwHhcNMjMxMTA0MTEzODU1WhcNMjYxMDE5
MTEzODU1WjAZMRcwFQYDVQQDDA50ZWFtNDk5LWNsaWVudDCCASIwDQYJKoZIhvcN
AQEBBQADggEPADCCAQoCggEBAOIB9dAms6jZwoT51rLJM8aPDBQE1tNqpW+coEix
CQSzY06P1ycx56wg0ixlmN9amL21A5x0oBPigyOEsZLHrSgJ7zAo8CX+FRvkULpP
rufYQcZgNnmV+qInemFIOEyecza6mDF2aACkoG//Qed2Aar9fzq6QDZBA0OBSb/q
5/Omvx3O+VHijJDab7nDHo6rOidfZmWNRIqquUp/b1ry/hHjQpG7FvhgoxlnAiYP
d0L61IUQ58YesZ2KvyY6QQ9WHCb/UJtXN2HTIfDy+ejTejn56yaCuXWrPMlpe7u4
aS8CgqTjj9D+tY9rHHogJTJGj3c2c6TXsSP3PzGpQkxHsYUCAwEAAaOBojCBnzAJ
BgNVHRMEAjAAMB0GA1UdDgQWBBTcipPOSetMrNe8DHd6JZl4CFGOfzBRBgNVHSME
SjBIgBTHetoZeqw9FjfnPwuAWtZas23sxqEapBgwFjEUMBIGA1UEAwwLdGVhbTQ5
OS1uZXSCFEYFOBSNJSRDSeh2kKq1t97AudvLMBMGA1UdJQQMMAoGCCsGAQUFBwMC
MAsGA1UdDwQEAwIHgDANBgkqhkiG9w0BAQsFAAOCAQEAEBpx2CKFiBnKW+V0lmlM
vjGwEkj/vN3RR0y/+SibbN5//xI1fP5xneXBAPTkF4CHgtBqwo5qw2SG0qDTXE7A
OaP70somRJeVS9RTACrwAA4WJrhNJ/ykAInDx3QpSmz8gT0ktNld3pxq7X3tGPQs
SZT2X7hvpYbGa9rvKWu7D8hyx+3EKD9YNUru3c/TjgY9gWmSDpCNwAH7wCBngWWh
UyfqrUnXjKasA3EVaDryd8h/T/QgGceL+d2iRB/mGPtM8XfLh4Xt2lQ6pLoXSqIE
WCbpOvbagfLycoxnyoWBFqdm3MKfwJs7dZ55/2gnfwD4B+CrPD85embsFhjwxYav
9g==
-----END CERTIFICATE-----
