Certificate:
    Data:
        Version: 3 (0x2)
        Serial Number:
            f2:89:cb:86:9a:79:8c:aa:c7:2e:26:e4:ed:78:2f:8a
        Signature Algorithm: sha256WithRSAEncryption
        Issuer: CN=team499-net
        Validity
            Not Before: Nov  4 11:38:55 2023 GMT
            Not After : Oct 19 11:38:55 2026 GMT
        Subject: CN=team499-server
        Subject Public Key Info:
            Public Key Algorithm: rsaEncryption
                Public-Key: (2048 bit)
                Modulus:
                    00:b5:f6:f6:0a:4a:73:7a:fa:f8:15:ff:c8:de:8a:
                    ce:47:7c:7b:9f:b9:8c:5d:34:2d:45:9e:1e:3d:41:
                    cc:be:b9:0e:e8:86:a8:8c:4d:27:46:ca:5b:e1:1c:
                    29:a2:50:36:7f:cd:72:ef:2f:45:45:04:7d:22:03:
                    4f:c5:c0:88:de:5f:88:57:d2:d1:d9:ba:22:28:fe:
                    de:ce:03:d9:00:97:da:b9:51:45:86:d8:0c:4a:2a:
                    04:bb:35:84:1e:33:11:1d:b7:34:81:79:32:1a:a0:
                    e6:31:85:67:5b:2f:b1:9b:94:92:9d:cd:f5:5a:3a:
                    14:4d:7a:b6:12:a8:c2:fd:72:a3:0c:7b:94:72:b8:
                    e5:7c:bb:e6:28:1f:3f:a4:c5:43:57:11:11:5b:8d:
                    7c:8d:e5:ad:f5:bc:52:01:27:f1:54:fe:1a:50:e8:
                    ae:2d:25:07:65:f0:4e:af:5b:0d:2a:0d:95:20:71:
                    06:37:20:54:90:ce:ae:87:27:48:4e:b0:86:a3:1c:
                    b9:77:6d:83:35:1a:62:a7:a6:86:bc:99:6e:0b:42:
                    8e:93:55:24:15:3d:7c:9e:5b:f2:fa:44:9a:bd:35:
                    ee:09:94:76:98:1b:ea:b5:02:be:e0:9f:00:73:17:
                    be:ac:b0:00:b1:aa:5a:15:c7:b6:b7:c5:f0:bd:02:
                    c0:01
                Exponent: 65537 (0x10001)
        X509v3 extensions:
            X509v3 Basic Constraints: 
                CA:FALSE
            X509v3 Subject Key Identifier: 
                66:7B:90:59:CC:7C:FF:91:42:F2:FA:CC:24:C4:41:1F:0F:C5:A9:25
            X509v3 Authority Key Identifier: 
                keyid:C7:7A:DA:19:7A:AC:3D:16:37:E7:3F:0B:80:5A:D6:5A:B3:6D:EC:C6
                DirName:/CN=team499-net
                serial:46:05:38:14:8D:25:24:43:49:E8:76:90:AA:B5:B7:DE:C0:B9:DB:CB
            X509v3 Extended Key Usage: 
                TLS Web Server Authentication
            X509v3 Key Usage: 
                Digital Signature, Key Encipherment
            X509v3 Subject Alternative Name: 
                DNS:team499-server
    Signature Algorithm: sha256WithRSAEncryption
    Signature Value:
        c8:75:fe:22:9f:b6:5e:6d:0a:28:4f:92:29:38:60:75:05:3b:
        1c:67:5e:aa:06:48:0f:85:85:66:4c:97:58:ab:16:df:d8:2a:
        0e:5d:c3:fe:cc:64:8b:39:e6:4a:bc:7f:76:43:74:e4:66:e0:
        9a:8b:d9:26:94:2a:c8:04:9a:a5:36:90:7c:a2:34:82:4f:0a:
        0c:e6:21:f0:a3:85:b5:09:23:c0:04:6e:f0:19:35:b2:f5:38:
        3d:84:b6:88:bf:b3:d7:9f:8c:0f:ad:56:62:6d:9f:78:2c:4d:
        1b:f0:79:f6:8b:da:f5:7b:a0:5c:a7:43:c7:3d:a2:f7:ed:55:
        c2:b0:ce:54:ee:35:26:f0:5f:9d:78:1d:8e:c8:e6:f7:c3:32:
        b3:59:87:4a:e7:de:79:b9:74:43:aa:a0:04:f8:c1:af:ac:90:
        5c:22:20:03:93:b4:91:04:0c:b1:89:d1:c4:3d:1e:5c:37:73:
        9e:12:6b:59:74:aa:26:66:0f:ae:95:0f:41:f9:42:f4:81:92:
        0f:25:70:ea:1b:c7:ef:95:80:73:d8:57:fd:ae:fc:ca:6c:36:
        3e:2b:42:f9:ce:7d:11:04:d2:15:17:03:22:04:c2:2f:1c:9c:
        b1:b5:01:5a:04:62:8f:61:62:77:5c:da:3b:c4:33:a5:0d:91:
        aa:c2:a8:f6
-----BEGIN CERTIFICATE-----
MIIDeDCCAmCgAwIBAgIRAPKJy4aaeYyqxy4m5O14L4owDQYJKoZIhvcNAQELBQAw
FjEUMBIGA1UEAwwLdGVhbTQ5OS1uZXQwHhcNMjMxMTA0MTEzODU1WhcNMjYxMDE5
MTEzODU1WjAZMRcwFQYDVQQDDA50ZWFtNDk5LXNlcnZlcjCCASIwDQYJKoZIhvcN
AQEBBQADggEPADCCAQoCggEBALX29gpKc3r6+BX/yN6Kzkd8e5+5jF00LUWeHj1B
zL65DuiGqIxNJ0bKW+EcKaJQNn/Ncu8vRUUEfSIDT8XAiN5fiFfS0dm6Iij+3s4D
2QCX2rlRRYbYDEoqBLs1hB4zER23NIF5Mhqg5jGFZ1svsZuUkp3N9Vo6FE16thKo
wv1yowx7lHK45Xy75igfP6TFQ1cREVuNfI3lrfW8UgEn8VT+GlDori0lB2XwTq9b
DSoNlSBxBjcgVJDOrocnSE6whqMcuXdtgzUaYqemhryZbgtCjpNVJBU9fJ5b8vpE
mr017gmUdpgb6rUCvuCfAHMXvqywALGqWhXHtrfF8L0CwAECAwEAAaOBvTCBujAJ
BgNVHRMEAjAAMB0GA1UdDgQWBBRme5BZzHz/kULy+swkxEEfD8WpJTBRBgNVHSME
SjBIgBTHetoZeqw9FjfnPwuAWtZas23sxqEapBgwFjEUMBIGA1UEAwwLdGVhbTQ5
OS1uZXSCFEYFOBSNJSRDSeh2kKq1t97AudvLMBMGA1UdJQQMMAoGCCsGAQUFBwMB
MAsGA1UdDwQEAwIFoDAZBgNVHREEEjAQgg50ZWFtNDk5LXNlcnZlcjANBgkqhkiG
9w0BAQsFAAOCAQEAyHX+Ip+2Xm0KKE+SKThgdQU7HGdeqgZID4WFZkyXWKsW39gq
Dl3D/sxkiznmSrx/dkN05GbgmovZJpQqyASapTaQfKI0gk8KDOYh8KOFtQkjwARu
8Bk1svU4PYS2iL+z15+MD61WYm2feCxNG/B59ova9XugXKdDxz2i9+1VwrDOVO41
JvBfnXgdjsjm98Mys1mHSufeebl0Q6qgBPjBr6yQXCIgA5O0kQQMsYnRxD0eXDdz
nhJrWXSqJmYPrpUPQflC9IGSDyVw6hvH75WAc9hX/a78ymw2PitC+c59EQTSFRcD
IgTCLxycsbUBWgRij2Fid1zaO8QzpQ2RqsKo9g==
-----END CERTIFICATE-----
