Certificate:
    Data:
        Version: 3 (0x2)
        Serial Number:
            4d:3f:d2:1e:23:08:1b:d4:a3:92:a3:88:6e:a9:67:ec
        Signature Algorithm: sha256WithRSAEncryption
        Issuer: CN=team171-net
        Validity
            Not Before: Nov  4 10:43:43 2023 GMT
            Not After : Oct 19 10:43:43 2026 GMT
        Subject: CN=team171-client
        Subject Public Key Info:
            Public Key Algorithm: rsaEncryption
                Public-Key: (2048 bit)
                Modulus:
                    00:9c:bb:ac:48:02:6b:07:9c:bf:98:8b:cf:2a:74:
                    71:a5:26:f8:6a:72:2a:fd:31:de:12:9a:d7:cf:30:
                    95:17:17:f0:29:e7:3c:7f:e3:f2:24:e1:a3:ea:bb:
                    d3:76:97:30:be:47:8d:83:17:fe:b3:ce:b5:5a:04:
                    4a:e4:59:32:0c:d8:0d:83:d0:98:e6:39:f6:ab:aa:
                    71:da:9e:76:1b:64:1f:10:be:b7:2c:5f:a9:4b:ad:
                    6f:51:6d:cb:9d:42:7c:1f:2b:6f:e7:f4:45:43:3a:
                    31:14:64:38:e7:8f:30:1e:fa:a4:23:11:5f:a2:52:
                    b3:c6:6a:92:47:24:76:02:14:13:dc:ff:ae:07:5b:
                    28:38:48:cc:12:eb:b5:46:5b:0e:c2:79:16:c0:45:
                    c7:dc:4c:54:19:e3:c0:d3:ec:7a:6e:b5:cf:e0:c0:
                    ff:32:7e:b2:d7:92:df:4a:8c:89:5f:31:bb:0e:2d:
                    b3:3d:ea:7c:07:49:70:62:d6:74:6c:a0:d2:14:f2:
                    16:7a:06:3a:c4:d5:a9:ca:76:95:aa:4c:81:3b:4f:
                    19:af:c3:ec:0b:e8:93:90:62:ac:81:7c:1d:b5:55:
                    32:7a:10:01:29:82:ff:dc:42:b1:c7:c6:d8:7c:29:
                    3c:f6:14:38:6a:c9:c2:61:43:29:d2:ee:a5:83:8a:
                    bb:41
                Exponent: 65537 (0x10001)
        X509v3 extensions:
            X509v3 Basic Constraints: 
                CA:FALSE
            X509v3 Subject Key Identifier: 
                2B:72:D6:87:98:16:8F:E5:21:CA:DB:B2:52:B7:82:58:EF:D4:E6:D1
            X509v3 Authority Key Identifier: 
                keyid:B8:76:B9:F6:09:47:25:5B:BA:14:88:23:65:1E:8E:BC:3A:2E:2D:8D
                DirName:/CN=team171-net
                serial:5E:15:8F:83:01:16:2A:83:9C:10:17:44:86:0C:58:CC:09:8B:61:FF
            X509v3 Extended Key Usage: 
                TLS Web Client Authentication
            X509v3 Key Usage: 
                Digital Signature
    Signature Algorithm: sha256WithRSAEncryption
    Signature Value:
        78:44:96:76:d1:56:63:e6:8f:ae:63:8d:25:18:1c:65:07:76:
        e4:68:45:d5:7b:19:7b:08:6b:1e:d5:f4:04:fc:68:46:5a:34:
        05:c6:d1:fe:b6:8b:ae:82:0e:82:4b:ba:33:cf:e7:38:58:07:
        66:b3:37:70:83:c1:f9:ec:d0:da:59:5d:db:b4:82:a1:b7:23:
        48:7b:ae:70:6c:b1:fd:6f:d7:e7:0c:65:d5:d7:80:d4:07:03:
        02:71:d4:08:cf:7d:95:bc:bd:81:f0:ff:8b:bb:19:55:4a:71:
        39:95:1d:89:55:8c:2d:5a:38:6d:50:6f:fb:f4:cc:4c:4a:07:
        b8:43:ae:92:32:d3:fb:9a:ca:22:38:aa:d0:f1:bd:f1:26:63:
        dd:12:cd:80:18:73:a9:64:80:6b:9a:e9:e7:f5:3d:0b:81:98:
        7e:e0:1f:f2:4a:c4:c3:f0:7e:d7:8e:47:d0:de:27:b7:c1:31:
        e1:49:2e:18:ec:8e:30:83:e9:8e:47:54:be:15:20:45:82:52:
        0e:5b:79:61:04:3f:c7:e8:1c:c6:a6:7d:c6:98:67:6a:f1:b8:
        42:af:03:4d:5a:74:13:cd:a0:79:69:b1:cb:fb:4a:3e:ac:f8:
        af:bb:31:85:e2:e7:15:90:27:9b:d8:b6:49:41:6a:01:9c:fc:
        50:5b:38:6a
-----BEGIN CERTIFICATE-----
MIIDXDCCAkSgAwIBAgIQTT/SHiMIG9SjkqOIbqln7DANBgkqhkiG9w0BAQsFADAW
MRQwEgYDVQQDDAt0ZWFtMTcxLW5ldDAeFw0yMzExMDQxMDQzNDNaFw0yNjEwMTkx
MDQzNDNaMBkxFzAVBgNVBAMMDnRlYW0xNzEtY2xpZW50MIIBIjANBgkqhkiG9w0B
AQEFAAOCAQ8AMIIBCgKCAQEAnLusSAJrB5y/mIvPKnRxpSb4anIq/THeEprXzzCV
FxfwKec8f+PyJOGj6rvTdpcwvkeNgxf+s861WgRK5FkyDNgNg9CY5jn2q6px2p52
G2QfEL63LF+pS61vUW3LnUJ8Hytv5/RFQzoxFGQ4548wHvqkIxFfolKzxmqSRyR2
AhQT3P+uB1soOEjMEuu1RlsOwnkWwEXH3ExUGePA0+x6brXP4MD/Mn6y15LfSoyJ
XzG7Di2zPep8B0lwYtZ0bKDSFPIWegY6xNWpynaVqkyBO08Zr8PsC+iTkGKsgXwd
tVUyehABKYL/3EKxx8bYfCk89hQ4asnCYUMp0u6lg4q7QQIDAQABo4GiMIGfMAkG
A1UdEwQCMAAwHQYDVR0OBBYEFCty1oeYFo/lIcrbslK3gljv1ObRMFEGA1UdIwRK
MEiAFLh2ufYJRyVbuhSII2Uejrw6Li2NoRqkGDAWMRQwEgYDVQQDDAt0ZWFtMTcx
LW5ldIIUXhWPgwEWKoOcEBdEhgxYzAmLYf8wEwYDVR0lBAwwCgYIKwYBBQUHAwIw
CwYDVR0PBAQDAgeAMA0GCSqGSIb3DQEBCwUAA4IBAQB4RJZ20VZj5o+uY40lGBxl
B3bkaEXVexl7CGse1fQE/GhGWjQFxtH+touugg6CS7ozz+c4WAdmszdwg8H57NDa
WV3btIKhtyNIe65wbLH9b9fnDGXV14DUBwMCcdQIz32VvL2B8P+LuxlVSnE5lR2J
VYwtWjhtUG/79MxMSge4Q66SMtP7msoiOKrQ8b3xJmPdEs2AGHOpZIBrmunn9T0L
gZh+4B/ySsTD8H7XjkfQ3ie3wTHhSS4Y7I4wg+mOR1S+FSBFglIOW3lhBD/H6BzG
pn3GmGdq8bhCrwNNWnQTzaB5abHL+0o+rPivuzGF4ucVkCeb2LZJQWoBnPxQWzhq
-----END CERTIFICATE-----
