Certificate:
    Data:
        Version: 3 (0x2)
        Serial Number:
            97:35:01:23:21:fb:b3:3c:5d:f6:18:d1:1e:03:dc:ef
        Signature Algorithm: sha256WithRSAEncryption
        Issuer: CN=team171-net
        Validity
            Not Before: Nov  4 10:43:43 2023 GMT
            Not After : Oct 19 10:43:43 2026 GMT
        Subject: CN=team171-server
        Subject Public Key Info:
            Public Key Algorithm: rsaEncryption
                Public-Key: (2048 bit)
                Modulus:
                    00:db:22:99:02:c7:ff:e2:3f:c2:60:a9:3a:73:3b:
                    26:18:fd:5b:ee:94:3e:41:5a:e5:6e:bf:78:b9:9f:
                    b2:37:a8:bf:8f:d8:4b:74:a0:b3:05:e7:6e:15:cb:
                    0c:8c:7d:38:bb:ba:9b:03:be:12:0d:06:f8:56:81:
                    30:8c:d5:5d:69:19:af:28:67:0d:f1:89:d8:25:ff:
                    e6:87:52:eb:17:be:61:f3:71:ba:f3:e8:26:1e:e2:
                    2e:e9:f6:18:5a:9e:e5:56:16:da:c2:43:51:e4:bb:
                    aa:f0:ff:20:ab:df:1e:84:95:bd:8f:89:46:50:f8:
                    06:31:0e:ad:9f:ed:70:8d:f0:ef:2e:1f:4a:4d:75:
                    21:bf:e7:49:cb:42:29:a6:1f:94:18:a6:4f:46:2a:
                    68:64:7e:49:d5:9f:eb:73:57:8c:fe:05:b4:e5:a1:
                    c4:0a:9f:5b:61:3f:94:76:dd:c7:ad:ae:ad:a8:b9:
                    99:59:1a:74:e2:44:62:75:b9:65:a8:9d:e8:58:af:
                    27:b3:74:76:d2:f7:82:8d:d5:3c:25:98:33:2b:5c:
                    1f:ea:44:27:3b:a7:27:7c:7c:fa:0a:3b:9f:4a:f2:
                    4b:5f:3e:82:0b:87:44:fd:56:3a:9e:bd:3f:bd:65:
                    db:06:8c:91:52:04:e4:8d:6b:cd:30:08:ef:c7:6b:
                    d3:c9
                Exponent: 65537 (0x10001)
        X509v3 extensions:
            X509v3 Basic Constraints: 
                CA:FALSE
            X509v3 Subject Key Identifier: 
                D8:A7:8A:31:D4:1B:29:60:DE:C7:1B:BB:F2:EE:76:52:9E:C2:4B:9C
            X509v3 Authority Key Identifier: 
                keyid:B8:76:B9:F6:09:47:25:5B:BA:14:88:23:65:1E:8E:BC:3A:2E:2D:8D
                DirName:/CN=team171-net
                serial:5E:15:8F:83:01:16:2A:83:9C:10:17:44:86:0C:58:CC:09:8B:61:FF
            X509v3 Extended Key Usage: 
                TLS Web Server Authentication
            X509v3 Key Usage: 
                Digital Signature, Key Encipherment
            X509v3 Subject Alternative Name: 
                DNS:team171-server
    Signature Algorithm: sha256WithRSAEncryption
    Signature Value:
        24:a9:d3:06:84:c0:21:23:2b:e0:ea:6f:bb:f3:a3:85:b6:81:
        7a:15:aa:6c:8a:ac:13:db:6d:9a:79:ad:9c:6d:86:5d:b1:3b:
        ac:10:ea:20:42:ce:f1:8b:7d:a8:35:bd:9a:f6:9d:2e:44:03:
        c0:c9:8b:ff:e9:77:b1:f3:db:55:04:33:9f:2a:d3:65:7c:a4:
        7b:80:48:bf:68:56:d9:22:78:5e:ff:17:8a:df:3c:85:7f:1d:
        b2:8b:7d:db:33:80:d8:f0:72:a3:32:c9:24:fb:b5:ce:0a:68:
        7c:3f:10:0f:e0:11:d0:7e:cf:97:51:14:6b:e9:41:9e:8c:07:
        92:6f:18:28:49:eb:09:c3:4f:8f:a3:75:3a:35:75:23:2c:3a:
        2c:53:e6:69:63:f5:06:f0:bb:da:12:15:30:a1:9f:4d:fc:80:
        17:f9:9b:1e:73:22:b0:c9:ad:f7:ed:31:7f:f7:19:33:b1:e0:
        91:af:58:88:9f:df:13:f0:af:b0:49:0b:7d:74:e4:2f:fc:79:
        d2:62:ca:f9:65:b5:13:b6:67:75:89:e4:a1:44:c4:20:1c:82:
        7b:3f:ed:5f:9e:ca:2f:0e:62:1c:f5:fe:4a:cd:43:a3:70:5e:
        9e:c4:f7:be:72:b6:86:bd:fc:0a:b9:57:4d:50:17:2c:ba:40:
        1f:8e:ed:d8
-----BEGIN CERTIFICATE-----
MIIDeDCCAmCgAwIBAgIRAJc1ASMh+7M8XfYY0R4D3O8wDQYJKoZIhvcNAQELBQAw
FjEUMBIGA1UEAwwLdGVhbTE3MS1uZXQwHhcNMjMxMTA0MTA0MzQzWhcNMjYxMDE5
MTA0MzQzWjAZMRcwFQYDVQQDDA50ZWFtMTcxLXNlcnZlcjCCASIwDQYJKoZIhvcN
AQEBBQADggEPADCCAQoCggEBANsimQLH/+I/wmCpOnM7Jhj9W+6UPkFa5W6/eLmf
sjeov4/YS3SgswXnbhXLDIx9OLu6mwO+Eg0G+FaBMIzVXWkZryhnDfGJ2CX/5odS
6xe+YfNxuvPoJh7iLun2GFqe5VYW2sJDUeS7qvD/IKvfHoSVvY+JRlD4BjEOrZ/t
cI3w7y4fSk11Ib/nSctCKaYflBimT0YqaGR+SdWf63NXjP4FtOWhxAqfW2E/lHbd
x62urai5mVkadOJEYnW5Zaid6FivJ7N0dtL3go3VPCWYMytcH+pEJzunJ3x8+go7
n0ryS18+gguHRP1WOp69P71l2waMkVIE5I1rzTAI78dr08kCAwEAAaOBvTCBujAJ
BgNVHRMEAjAAMB0GA1UdDgQWBBTYp4ox1BspYN7HG7vy7nZSnsJLnDBRBgNVHSME
SjBIgBS4drn2CUclW7oUiCNlHo68Oi4tjaEapBgwFjEUMBIGA1UEAwwLdGVhbTE3
MS1uZXSCFF4Vj4MBFiqDnBAXRIYMWMwJi2H/MBMGA1UdJQQMMAoGCCsGAQUFBwMB
MAsGA1UdDwQEAwIFoDAZBgNVHREEEjAQgg50ZWFtMTcxLXNlcnZlcjANBgkqhkiG
9w0BAQsFAAOCAQEAJKnTBoTAISMr4Opvu/OjhbaBehWqbIqsE9ttmnmtnG2GXbE7
rBDqIELO8Yt9qDW9mvadLkQDwMmL/+l3sfPbVQQznyrTZXyke4BIv2hW2SJ4Xv8X
it88hX8dsot92zOA2PByozLJJPu1zgpofD8QD+AR0H7Pl1EUa+lBnowHkm8YKEnr
CcNPj6N1OjV1Iyw6LFPmaWP1BvC72hIVMKGfTfyAF/mbHnMisMmt9+0xf/cZM7Hg
ka9YiJ/fE/CvsEkLfXTkL/x50mLK+WW1E7ZndYnkoUTEIByCez/tX57KLw5iHPX+
Ss1Do3BensT3vnK2hr38CrlXTVAXLLpAH47t2A==
-----END CERTIFICATE-----
