Certificate:
    Data:
        Version: 3 (0x2)
        Serial Number:
            bf:eb:1e:83:80:a5:60:45:5d:d8:b8:0e:76:b4:d4:02
        Signature Algorithm: sha256WithRSAEncryption
        Issuer: CN=team171-net
        Validity
            Not Before: Nov  4 11:31:01 2023 GMT
            Not After : Oct 19 11:31:01 2026 GMT
        Subject: CN=team171-server
        Subject Public Key Info:
            Public Key Algorithm: rsaEncryption
                Public-Key: (2048 bit)
                Modulus:
                    00:dc:f1:81:73:1a:79:4e:d0:86:47:c6:7b:07:11:
                    8a:de:d5:07:8c:0e:01:80:46:66:77:05:1a:29:02:
                    5a:8b:cc:14:92:21:9a:25:ac:f3:10:73:c0:fd:c8:
                    43:b5:41:76:f9:d5:d1:42:4e:3b:e3:f8:8f:e1:a4:
                    39:9f:a6:b7:89:cf:65:02:8b:23:65:29:92:9e:0c:
                    22:69:f9:5d:7a:7a:75:bf:02:0c:16:5b:4a:cc:78:
                    90:58:84:2f:25:1d:c2:02:c3:33:ba:01:10:4f:e3:
                    23:c5:e0:ea:ee:85:06:ef:02:2f:38:d8:24:29:9b:
                    8c:7c:cb:c2:7e:14:4b:2b:ef:24:38:4c:aa:32:17:
                    f7:6b:ea:c3:99:e2:87:b3:e6:24:ef:d2:f8:d1:f5:
                    e9:0b:8d:98:a0:45:9e:5e:e3:08:e8:a9:28:a4:64:
                    fa:33:4f:ef:5e:9b:b8:90:92:f1:bd:d2:c1:13:26:
                    28:54:ff:04:82:8c:be:49:ef:7d:4f:2a:cf:c5:10:
                    ae:2d:ba:fa:70:50:91:8f:af:34:65:ff:df:bd:ca:
                    8a:18:1b:a8:4e:97:93:76:60:f8:35:d3:67:ca:3d:
                    76:b2:d7:46:dc:b3:c1:0e:8a:45:1a:1f:7e:b4:bd:
                    17:03:74:ba:67:29:37:09:c9:09:e1:b4:83:ba:6a:
                    1c:d9
                Exponent: 65537 (0x10001)
        X509v3 extensions:
            X509v3 Basic Constraints: 
                CA:FALSE
            X509v3 Subject Key Identifier: 
                DA:D4:DF:BB:B6:77:32:D3:55:0A:3B:61:F2:1B:CA:B8:93:FD:EC:C7
            X509v3 Authority Key Identifier: 
                keyid:C0:12:70:68:08:55:21:8D:A4:47:B4:E0:98:33:7A:F1:5B:C1:B4:06
                DirName:/CN=team171-net
                serial:35:24:92:DF:68:02:39:FE:DE:B1:06:C5:FE:71:70:A3:FF:DF:D6:CC
            X509v3 Extended Key Usage: 
                TLS Web Server Authentication
            X509v3 Key Usage: 
                Digital Signature, Key Encipherment
            X509v3 Subject Alternative Name: 
                DNS:team171-server
    Signature Algorithm: sha256WithRSAEncryption
    Signature Value:
        a3:93:5f:45:4e:2a:95:82:8c:12:80:f1:f0:fc:1e:b5:00:b8:
        9a:39:62:77:c7:80:86:3d:a7:e9:bc:1b:31:d3:a6:40:ab:14:
        ca:6c:80:10:08:78:48:1f:92:72:de:b2:5a:0c:fe:e8:0e:59:
        e2:51:26:5e:41:75:08:df:dc:2f:15:9a:de:2e:e9:eb:e4:77:
        2b:52:6d:86:ee:ed:02:45:8b:1a:3f:80:7d:15:01:b2:c1:8d:
        07:93:88:71:c0:5f:ec:52:9e:a9:a7:41:d2:f4:78:04:a6:28:
        b0:3d:8d:f9:5c:ed:6c:ed:e0:52:fa:68:d7:ef:95:5b:60:65:
        0a:85:fa:a5:8b:76:86:46:a7:da:7f:02:c8:b1:80:4e:d0:f2:
        b5:c8:d2:82:71:8f:09:7e:69:0c:b1:22:90:59:df:14:c0:47:
        28:45:63:25:81:58:f6:1f:de:86:83:fd:25:28:5e:1d:b6:68:
        52:c9:94:7d:50:66:89:1e:38:8e:15:e8:6c:43:23:d0:4a:a5:
        13:7c:2d:71:44:6b:2b:bf:51:38:38:3f:cc:9e:6e:80:5b:58:
        49:b0:db:2a:0f:20:0d:08:75:63:96:f8:f2:a9:55:bf:76:7c:
        dd:31:23:ea:60:90:24:6f:fd:5e:5b:a1:8c:7c:fb:b7:b4:a2:
        9e:4d:90:90
-----BEGIN CERTIFICATE-----
MIIDeDCCAmCgAwIBAgIRAL/rHoOApWBFXdi4Dna01AIwDQYJKoZIhvcNAQELBQAw
FjEUMBIGA1UEAwwLdGVhbTE3MS1uZXQwHhcNMjMxMTA0MTEzMTAxWhcNMjYxMDE5
MTEzMTAxWjAZMRcwFQYDVQQDDA50ZWFtMTcxLXNlcnZlcjCCASIwDQYJKoZIhvcN
AQEBBQADggEPADCCAQoCggEBANzxgXMaeU7QhkfGewcRit7VB4wOAYBGZncFGikC
WovMFJIhmiWs8xBzwP3IQ7VBdvnV0UJOO+P4j+GkOZ+mt4nPZQKLI2Upkp4MImn5
XXp6db8CDBZbSsx4kFiELyUdwgLDM7oBEE/jI8Xg6u6FBu8CLzjYJCmbjHzLwn4U
SyvvJDhMqjIX92vqw5nih7PmJO/S+NH16QuNmKBFnl7jCOipKKRk+jNP716buJCS
8b3SwRMmKFT/BIKMvknvfU8qz8UQri26+nBQkY+vNGX/373KihgbqE6Xk3Zg+DXT
Z8o9drLXRtyzwQ6KRRoffrS9FwN0umcpNwnJCeG0g7pqHNkCAwEAAaOBvTCBujAJ
BgNVHRMEAjAAMB0GA1UdDgQWBBTa1N+7tncy01UKO2HyG8q4k/3sxzBRBgNVHSME
SjBIgBTAEnBoCFUhjaRHtOCYM3rxW8G0BqEapBgwFjEUMBIGA1UEAwwLdGVhbTE3
MS1uZXSCFDUkkt9oAjn+3rEGxf5xcKP/39bMMBMGA1UdJQQMMAoGCCsGAQUFBwMB
MAsGA1UdDwQEAwIFoDAZBgNVHREEEjAQgg50ZWFtMTcxLXNlcnZlcjANBgkqhkiG
9w0BAQsFAAOCAQEAo5NfRU4qlYKMEoDx8PwetQC4mjlid8eAhj2n6bwbMdOmQKsU
ymyAEAh4SB+Sct6yWgz+6A5Z4lEmXkF1CN/cLxWa3i7p6+R3K1Jthu7tAkWLGj+A
fRUBssGNB5OIccBf7FKeqadB0vR4BKYosD2N+VztbO3gUvpo1++VW2BlCoX6pYt2
hkan2n8CyLGATtDytcjSgnGPCX5pDLEikFnfFMBHKEVjJYFY9h/ehoP9JSheHbZo
UsmUfVBmiR44jhXobEMj0EqlE3wtcURrK79RODg/zJ5ugFtYSbDbKg8gDQh1Y5b4
8qlVv3Z83TEj6mCQJG/9XluhjHz7t7Sink2QkA==
-----END CERTIFICATE-----
