Certificate:
    Data:
        Version: 3 (0x2)
        Serial Number:
            6a:ea:82:f9:52:b3:c3:41:43:e2:2f:1c:16:85:95:93
        Signature Algorithm: sha256WithRSAEncryption
        Issuer: CN=team163-net
        Validity
            Not Before: Nov  4 11:30:50 2023 GMT
            Not After : Oct 19 11:30:50 2026 GMT
        Subject: CN=team163-client
        Subject Public Key Info:
            Public Key Algorithm: rsaEncryption
                Public-Key: (2048 bit)
                Modulus:
                    00:bd:c4:9b:ab:24:a5:29:dc:fc:06:0e:bd:e6:ba:
                    94:a5:94:43:00:62:ae:ff:67:30:b3:88:bb:d2:a1:
                    64:8f:94:a8:2b:97:a2:b0:e7:14:ca:76:18:26:f1:
                    71:ff:05:e0:02:e0:a8:27:6b:59:3a:65:ee:f2:35:
                    2d:2e:8a:24:d5:66:15:b7:e5:98:53:3c:51:31:9b:
                    47:df:6b:15:3e:8f:97:a5:97:a1:df:d4:df:da:4e:
                    16:37:49:48:8a:f7:4a:ef:eb:2d:71:4c:7a:c7:fd:
                    5f:37:63:73:bb:c1:cd:9c:eb:fb:a0:b0:e8:29:54:
                    ce:15:33:f0:d8:de:70:64:dc:8d:5d:3e:57:5d:57:
                    7a:fd:66:56:ea:7a:c7:3c:be:0a:c1:00:fa:1f:96:
                    46:63:92:a0:8b:71:30:8e:30:02:66:9e:e9:22:f7:
                    72:3c:8f:c6:2b:01:16:23:bc:9f:b0:13:39:30:0b:
                    a0:ae:bb:75:6e:16:35:da:8f:22:34:9a:8c:a9:c9:
                    99:6f:d1:bc:e0:53:c3:af:02:66:a7:09:03:eb:7e:
                    05:3c:7f:27:4e:42:44:0e:aa:33:47:bd:af:70:4e:
                    c5:f0:ef:a7:00:7e:dc:24:a7:ac:5f:ba:ab:57:7a:
                    93:01:b8:55:82:50:e6:60:48:8e:ac:51:bf:41:40:
                    83:8b
                Exponent: 65537 (0x10001)
        X509v3 extensions:
            X509v3 Basic Constraints: 
                CA:FALSE
            X509v3 Subject Key Identifier: 
                DE:9F:55:FB:42:04:F4:F6:82:A2:6B:07:94:C2:49:0E:AB:31:8A:E0
            X509v3 Authority Key Identifier: 
                keyid:64:77:51:AE:D9:93:1B:93:2C:51:A1:A8:BF:51:34:17:7F:63:73:A4
                DirName:/CN=team163-net
                serial:38:2B:87:E8:C0:DE:CA:45:CE:BB:93:BE:40:52:6B:4C:1F:EC:CC:1C
            X509v3 Extended Key Usage: 
                TLS Web Client Authentication
            X509v3 Key Usage: 
                Digital Signature
    Signature Algorithm: sha256WithRSAEncryption
    Signature Value:
        88:02:e0:f0:f5:bc:f9:d4:6b:ef:8e:98:66:d1:b9:9c:1f:ea:
        27:61:86:51:21:5d:58:8d:02:bf:0f:22:b0:be:91:24:e2:9a:
        4c:19:2d:32:87:58:d8:52:9f:37:05:98:19:72:70:87:9d:98:
        7d:77:67:6b:31:25:25:53:0c:3a:33:36:2a:cc:b6:34:ea:d3:
        3f:8e:11:da:b3:6d:56:ab:27:ed:fb:fe:b4:5c:27:69:3c:7b:
        0f:71:bd:7b:5d:ea:b7:ec:8b:8c:26:66:5d:19:24:fb:41:17:
        f3:58:96:30:61:cc:8a:91:b6:a7:8d:4d:b5:df:fb:1a:3e:69:
        f3:34:a3:21:cb:72:66:70:1c:78:06:87:ab:17:0d:53:31:65:
        d5:81:f6:61:c2:6c:0e:93:9e:51:e3:b2:d7:8d:d3:f6:64:f1:
        ee:e7:4f:1c:f0:cc:ce:48:81:bf:e7:d4:ba:11:94:3e:36:a2:
        23:ff:e3:ef:e4:1a:a0:13:1a:4f:3c:ca:03:a5:95:49:3d:04:
        0e:38:8b:68:ac:fd:bf:c6:6a:26:bc:e0:18:1f:87:ad:bb:ad:
        74:c0:82:45:6f:5c:07:28:bb:d8:9d:73:b7:29:30:9c:18:71:
        89:3e:10:9b:1b:56:b4:fa:20:13:b4:6d:57:bc:41:a3:e3:63:
        00:61:e0:b2
-----BEGIN CERTIFICATE-----
MIIDXDCCAkSgAwIBAgIQauqC+VKzw0FD4i8cFoWVkzANBgkqhkiG9w0BAQsFADAW
MRQwEgYDVQQDDAt0ZWFtMTYzLW5ldDAeFw0yMzExMDQxMTMwNTBaFw0yNjEwMTkx
MTMwNTBaMBkxFzAVBgNVBAMMDnRlYW0xNjMtY2xpZW50MIIBIjANBgkqhkiG9w0B
AQEFAAOCAQ8AMIIBCgKCAQEAvcSbqySlKdz8Bg695rqUpZRDAGKu/2cws4i70qFk
j5SoK5eisOcUynYYJvFx/wXgAuCoJ2tZOmXu8jUtLook1WYVt+WYUzxRMZtH32sV
Po+XpZeh39Tf2k4WN0lIivdK7+stcUx6x/1fN2Nzu8HNnOv7oLDoKVTOFTPw2N5w
ZNyNXT5XXVd6/WZW6nrHPL4KwQD6H5ZGY5Kgi3EwjjACZp7pIvdyPI/GKwEWI7yf
sBM5MAugrrt1bhY12o8iNJqMqcmZb9G84FPDrwJmpwkD634FPH8nTkJEDqozR72v
cE7F8O+nAH7cJKesX7qrV3qTAbhVglDmYEiOrFG/QUCDiwIDAQABo4GiMIGfMAkG
A1UdEwQCMAAwHQYDVR0OBBYEFN6fVftCBPT2gqJrB5TCSQ6rMYrgMFEGA1UdIwRK
MEiAFGR3Ua7ZkxuTLFGhqL9RNBd/Y3OkoRqkGDAWMRQwEgYDVQQDDAt0ZWFtMTYz
LW5ldIIUOCuH6MDeykXOu5O+QFJrTB/szBwwEwYDVR0lBAwwCgYIKwYBBQUHAwIw
CwYDVR0PBAQDAgeAMA0GCSqGSIb3DQEBCwUAA4IBAQCIAuDw9bz51Gvvjphm0bmc
H+onYYZRIV1YjQK/DyKwvpEk4ppMGS0yh1jYUp83BZgZcnCHnZh9d2drMSUlUww6
MzYqzLY06tM/jhHas21Wqyft+/60XCdpPHsPcb17Xeq37IuMJmZdGST7QRfzWJYw
YcyKkbanjU213/saPmnzNKMhy3JmcBx4BoerFw1TMWXVgfZhwmwOk55R47LXjdP2
ZPHu508c8MzOSIG/59S6EZQ+NqIj/+Pv5BqgExpPPMoDpZVJPQQOOItorP2/xmom
vOAYH4etu610wIJFb1wHKLvYnXO3KTCcGHGJPhCbG1a0+iATtG1XvEGj42MAYeCy
-----END CERTIFICATE-----
