Certificate:
    Data:
        Version: 3 (0x2)
        Serial Number:
            6c:d9:b9:83:5a:a9:6b:27:a3:47:a2:83:96:68:5c:65
        Signature Algorithm: sha256WithRSAEncryption
        Issuer: CN=team163-net
        Validity
            Not Before: Nov  4 10:43:34 2023 GMT
            Not After : Oct 19 10:43:34 2026 GMT
        Subject: CN=team163-client
        Subject Public Key Info:
            Public Key Algorithm: rsaEncryption
                Public-Key: (2048 bit)
                Modulus:
                    00:c9:82:27:ee:23:17:8c:a8:56:08:14:c6:14:56:
                    30:1b:ab:8b:0e:6f:a8:ee:88:37:77:3d:f0:a9:ee:
                    56:ee:17:7e:98:13:b4:ae:b2:25:bc:8b:be:0f:5f:
                    76:35:bc:fc:2a:40:eb:50:e1:9e:19:85:da:5c:cf:
                    b1:1f:31:4f:87:44:0b:6b:40:24:ae:ce:2a:77:dd:
                    94:62:24:07:1d:18:d6:43:bd:95:21:4d:54:32:44:
                    07:74:42:21:7d:d5:62:74:ea:e1:db:b9:af:37:46:
                    7d:cb:94:f0:98:31:b6:b9:5d:04:da:6a:ee:9c:bc:
                    13:63:f0:88:45:ab:84:39:e9:e8:f5:eb:b4:b9:e0:
                    8a:19:a5:8c:60:35:1b:4d:c4:22:5a:df:8c:b6:39:
                    bb:c3:96:72:5b:34:38:ee:42:21:2a:52:b9:1e:1c:
                    37:62:b7:00:e9:17:06:db:1e:3b:1e:a3:3f:ae:58:
                    e1:6c:6c:1d:78:02:8c:1f:97:38:e4:ad:2f:96:2a:
                    38:b3:85:b5:de:2f:67:0e:d0:b9:69:6f:f1:9d:a2:
                    91:e7:be:46:74:a2:87:e7:b6:5f:79:0f:ff:53:7e:
                    96:db:25:1a:15:38:a0:0b:9b:21:6e:f7:3d:7f:53:
                    4c:55:b3:1e:20:5e:dc:a3:e5:a6:1c:1f:21:45:06:
                    da:1b
                Exponent: 65537 (0x10001)
        X509v3 extensions:
            X509v3 Basic Constraints: 
                CA:FALSE
            X509v3 Subject Key Identifier: 
                0D:72:C6:57:4A:4B:AC:AB:FB:B8:D4:23:83:73:13:9C:47:92:3F:2E
            X509v3 Authority Key Identifier: 
                keyid:C3:A5:A6:5C:EB:44:C6:91:FF:FE:DF:66:FA:3E:27:B9:D7:46:37:64
                DirName:/CN=team163-net
                serial:15:3D:E8:95:61:F7:03:57:8E:AF:9C:DF:B8:72:40:DB:23:19:05:25
            X509v3 Extended Key Usage: 
                TLS Web Client Authentication
            X509v3 Key Usage: 
                Digital Signature
    Signature Algorithm: sha256WithRSAEncryption
    Signature Value:
        63:dd:e2:fa:1b:b1:a0:ef:97:39:68:b6:4f:64:d7:e2:30:0c:
        6d:2b:87:fd:49:48:9c:d9:97:58:f2:ee:0d:f6:bb:05:46:5f:
        da:a1:59:c6:12:2f:f3:b8:e7:9f:5a:ba:d9:f9:da:fc:e4:ef:
        5f:b8:78:ac:74:09:82:08:c5:43:c7:7d:f9:3a:5c:10:57:82:
        cf:c3:d7:61:cf:de:42:24:0d:92:d2:e0:b6:01:ec:75:34:f2:
        0f:d9:80:60:43:29:fc:57:c6:78:88:81:94:de:d5:d1:de:51:
        11:3a:49:d2:fd:c2:90:3f:4f:04:84:73:bd:cf:41:68:6d:13:
        e9:b4:a3:e7:32:d9:c5:c8:c3:85:33:c1:96:07:09:17:01:0a:
        02:44:3c:94:1d:51:75:b3:f0:4c:a0:56:d0:5d:37:36:14:32:
        ad:6d:3a:58:c1:b9:4c:6e:56:83:2b:99:d2:51:aa:13:65:a4:
        c2:61:1f:aa:fa:a7:29:64:a8:17:e4:3c:e9:7e:bf:46:a7:94:
        b8:91:3a:9a:a1:61:51:d5:b4:1d:15:5b:c7:a4:82:63:89:c8:
        f4:43:ed:1b:6d:54:77:48:aa:2f:0d:5a:cf:1b:b5:db:5f:58:
        95:ae:1f:6c:08:1e:44:0d:72:ff:0d:fa:5e:e8:7a:0e:fd:94:
        7c:5e:fd:76
-----BEGIN CERTIFICATE-----
MIIDXDCCAkSgAwIBAgIQbNm5g1qpayejR6KDlmhcZTANBgkqhkiG9w0BAQsFADAW
MRQwEgYDVQQDDAt0ZWFtMTYzLW5ldDAeFw0yMzExMDQxMDQzMzRaFw0yNjEwMTkx
MDQzMzRaMBkxFzAVBgNVBAMMDnRlYW0xNjMtY2xpZW50MIIBIjANBgkqhkiG9w0B
AQEFAAOCAQ8AMIIBCgKCAQEAyYIn7iMXjKhWCBTGFFYwG6uLDm+o7og3dz3wqe5W
7hd+mBO0rrIlvIu+D192Nbz8KkDrUOGeGYXaXM+xHzFPh0QLa0Akrs4qd92UYiQH
HRjWQ72VIU1UMkQHdEIhfdVidOrh27mvN0Z9y5TwmDG2uV0E2mrunLwTY/CIRauE
Oeno9eu0ueCKGaWMYDUbTcQiWt+Mtjm7w5ZyWzQ47kIhKlK5Hhw3YrcA6RcG2x47
HqM/rljhbGwdeAKMH5c45K0vlio4s4W13i9nDtC5aW/xnaKR575GdKKH57ZfeQ//
U36W2yUaFTigC5shbvc9f1NMVbMeIF7co+WmHB8hRQbaGwIDAQABo4GiMIGfMAkG
A1UdEwQCMAAwHQYDVR0OBBYEFA1yxldKS6yr+7jUI4NzE5xHkj8uMFEGA1UdIwRK
MEiAFMOlplzrRMaR//7fZvo+J7nXRjdkoRqkGDAWMRQwEgYDVQQDDAt0ZWFtMTYz
LW5ldIIUFT3olWH3A1eOr5zfuHJA2yMZBSUwEwYDVR0lBAwwCgYIKwYBBQUHAwIw
CwYDVR0PBAQDAgeAMA0GCSqGSIb3DQEBCwUAA4IBAQBj3eL6G7Gg75c5aLZPZNfi
MAxtK4f9SUic2ZdY8u4N9rsFRl/aoVnGEi/zuOefWrrZ+dr85O9fuHisdAmCCMVD
x335OlwQV4LPw9dhz95CJA2S0uC2Aex1NPIP2YBgQyn8V8Z4iIGU3tXR3lEROknS
/cKQP08EhHO9z0FobRPptKPnMtnFyMOFM8GWBwkXAQoCRDyUHVF1s/BMoFbQXTc2
FDKtbTpYwblMblaDK5nSUaoTZaTCYR+q+qcpZKgX5Dzpfr9Gp5S4kTqaoWFR1bQd
FVvHpIJjicj0Q+0bbVR3SKovDVrPG7XbX1iVrh9sCB5EDXL/Dfpe6HoO/ZR8Xv12
-----END CERTIFICATE-----
