Certificate:
    Data:
        Version: 3 (0x2)
        Serial Number:
            ff:88:7e:5f:95:13:b0:19:e5:0c:47:bf:ed:17:1e:d2
        Signature Algorithm: sha256WithRSAEncryption
        Issuer: CN=team163-net
        Validity
            Not Before: Nov  4 11:30:50 2023 GMT
            Not After : Oct 19 11:30:50 2026 GMT
        Subject: CN=team163-server
        Subject Public Key Info:
            Public Key Algorithm: rsaEncryption
                Public-Key: (2048 bit)
                Modulus:
                    00:b8:43:6a:d7:8f:2e:2f:ce:e0:5b:b1:ba:47:79:
                    c3:f4:b1:b2:60:07:21:54:70:97:8b:82:ce:65:7b:
                    d5:a2:20:81:7e:af:97:14:32:e9:5d:ed:0c:32:2d:
                    07:e5:02:e4:92:d9:f5:4b:71:70:32:a6:5d:77:c9:
                    09:71:97:53:56:db:4d:ab:f9:02:aa:b8:56:e6:9c:
                    9d:e3:4a:15:53:a5:62:e4:81:2f:3c:d0:71:bf:1b:
                    76:cc:f7:a2:88:5f:26:80:21:87:bf:dc:d5:6f:03:
                    6a:69:09:34:95:f0:bb:24:ac:66:c7:82:0f:2f:fa:
                    21:0a:28:e4:a9:13:5a:97:52:3c:0d:8f:68:f3:38:
                    cc:75:0c:e7:b9:7c:f6:d2:f4:a1:fa:e3:b3:03:bd:
                    2f:48:d1:81:ff:90:81:57:1c:11:76:72:07:58:9e:
                    8f:e2:3e:14:b8:d7:b3:b4:b5:8f:b0:04:94:04:d8:
                    aa:11:76:68:b9:bb:97:1c:a6:d9:da:0d:19:e9:3a:
                    f2:ae:89:dd:e8:31:97:66:99:79:7f:91:a7:19:fe:
                    e4:50:33:73:19:81:5c:cd:8d:4a:a0:a2:d2:26:f6:
                    39:5a:77:14:2d:bb:d2:69:da:e0:a1:ad:93:cd:4e:
                    4d:1b:87:ee:d1:15:4e:e2:f6:ca:38:64:e7:bb:9a:
                    84:b7
                Exponent: 65537 (0x10001)
        X509v3 extensions:
            X509v3 Basic Constraints: 
                CA:FALSE
            X509v3 Subject Key Identifier: 
                51:9E:A3:17:50:D5:0C:0A:1C:EE:E3:0A:0E:0C:83:7D:97:69:88:68
            X509v3 Authority Key Identifier: 
                keyid:64:77:51:AE:D9:93:1B:93:2C:51:A1:A8:BF:51:34:17:7F:63:73:A4
                DirName:/CN=team163-net
                serial:38:2B:87:E8:C0:DE:CA:45:CE:BB:93:BE:40:52:6B:4C:1F:EC:CC:1C
            X509v3 Extended Key Usage: 
                TLS Web Server Authentication
            X509v3 Key Usage: 
                Digital Signature, Key Encipherment
            X509v3 Subject Alternative Name: 
                DNS:team163-server
    Signature Algorithm: sha256WithRSAEncryption
    Signature Value:
        6e:17:b9:58:cd:f4:ae:11:89:b9:b1:dd:91:eb:04:45:0b:52:
        11:6a:4c:d0:a6:04:34:e0:ff:08:e0:12:3c:0d:6a:d7:18:00:
        44:5f:85:8f:23:22:41:6a:de:2d:7f:a4:89:07:24:f5:9a:6b:
        32:2a:6e:1d:3c:8b:0b:cf:9e:eb:7e:4e:c0:c9:94:f9:3e:bd:
        39:ad:cc:8f:f2:db:52:a1:0a:d0:72:9d:08:d8:8b:b2:07:d7:
        76:53:e7:6c:9b:80:89:78:47:cc:a9:ec:cc:d6:f9:22:02:40:
        21:3c:3b:99:1c:f0:d3:5a:d1:f2:1d:99:08:92:95:f0:73:12:
        85:eb:e8:71:37:5f:1e:b5:0f:f7:27:bb:65:39:ca:6f:02:60:
        91:c1:2d:98:61:55:3c:a5:e9:39:4b:fd:6e:8b:6d:39:ba:c9:
        1e:e4:2b:d7:c5:cb:34:0d:c1:3e:1e:56:35:c5:8c:11:0a:d6:
        4f:f3:84:61:7b:75:ca:78:b0:0d:ff:19:90:e4:90:26:4e:98:
        0b:5b:dd:7d:2d:93:67:e7:94:52:eb:09:25:14:a5:83:3f:20:
        52:0b:c8:38:a5:25:ae:6d:87:f5:53:6e:b3:c4:bd:80:61:e6:
        8d:3f:d6:c7:64:01:2b:53:c2:d2:ca:ae:7c:b8:c4:a4:d0:28:
        7d:35:68:24
-----BEGIN CERTIFICATE-----
MIIDeDCCAmCgAwIBAgIRAP+Ifl+VE7AZ5QxHv+0XHtIwDQYJKoZIhvcNAQELBQAw
FjEUMBIGA1UEAwwLdGVhbTE2My1uZXQwHhcNMjMxMTA0MTEzMDUwWhcNMjYxMDE5
MTEzMDUwWjAZMRcwFQYDVQQDDA50ZWFtMTYzLXNlcnZlcjCCASIwDQYJKoZIhvcN
AQEBBQADggEPADCCAQoCggEBALhDatePLi/O4Fuxukd5w/SxsmAHIVRwl4uCzmV7
1aIggX6vlxQy6V3tDDItB+UC5JLZ9UtxcDKmXXfJCXGXU1bbTav5Aqq4VuacneNK
FVOlYuSBLzzQcb8bdsz3oohfJoAhh7/c1W8DamkJNJXwuySsZseCDy/6IQoo5KkT
WpdSPA2PaPM4zHUM57l89tL0ofrjswO9L0jRgf+QgVccEXZyB1iej+I+FLjXs7S1
j7AElATYqhF2aLm7lxym2doNGek68q6J3egxl2aZeX+Rpxn+5FAzcxmBXM2NSqCi
0ib2OVp3FC270mna4KGtk81OTRuH7tEVTuL2yjhk57uahLcCAwEAAaOBvTCBujAJ
BgNVHRMEAjAAMB0GA1UdDgQWBBRRnqMXUNUMChzu4woODIN9l2mIaDBRBgNVHSME
SjBIgBRkd1Gu2ZMbkyxRoai/UTQXf2NzpKEapBgwFjEUMBIGA1UEAwwLdGVhbTE2
My1uZXSCFDgrh+jA3spFzruTvkBSa0wf7MwcMBMGA1UdJQQMMAoGCCsGAQUFBwMB
MAsGA1UdDwQEAwIFoDAZBgNVHREEEjAQgg50ZWFtMTYzLXNlcnZlcjANBgkqhkiG
9w0BAQsFAAOCAQEAbhe5WM30rhGJubHdkesERQtSEWpM0KYENOD/COASPA1q1xgA
RF+FjyMiQWreLX+kiQck9ZprMipuHTyLC8+e635OwMmU+T69Oa3Mj/LbUqEK0HKd
CNiLsgfXdlPnbJuAiXhHzKnszNb5IgJAITw7mRzw01rR8h2ZCJKV8HMShevocTdf
HrUP9ye7ZTnKbwJgkcEtmGFVPKXpOUv9bottObrJHuQr18XLNA3BPh5WNcWMEQrW
T/OEYXt1yniwDf8ZkOSQJk6YC1vdfS2TZ+eUUusJJRSlgz8gUgvIOKUlrm2H9VNu
s8S9gGHmjT/Wx2QBK1PC0squfLjEpNAofTVoJA==
-----END CERTIFICATE-----
