Certificate:
    Data:
        Version: 3 (0x2)
        Serial Number:
            4a:31:ef:27:eb:61:1d:31:6e:fd:b5:a0:17:7a:34:40
        Signature Algorithm: sha256WithRSAEncryption
        Issuer: CN=team137-net
        Validity
            Not Before: Nov  3 20:41:39 2023 GMT
            Not After : Oct 18 20:41:39 2026 GMT
        Subject: CN=team137-client
        Subject Public Key Info:
            Public Key Algorithm: rsaEncryption
                Public-Key: (2048 bit)
                Modulus:
                    00:b7:e1:cb:25:d2:59:f9:43:a6:30:28:39:b7:26:
                    cf:df:ee:6a:16:7b:e5:b1:ff:03:06:2f:e2:12:98:
                    d7:a6:af:81:cf:4c:63:16:b0:c9:2f:bc:cd:d8:31:
                    0c:49:53:07:88:26:18:5b:c8:3a:3a:f3:d2:81:eb:
                    60:d5:9f:d9:bf:ad:a9:e0:f6:ca:5a:86:b7:e2:d3:
                    df:43:8f:f3:68:92:44:c1:88:99:4d:e2:24:a0:52:
                    e0:c0:08:55:04:6a:66:bb:6c:f2:c0:6e:2b:7e:70:
                    57:19:70:9a:c3:fb:24:49:c2:f3:6b:c9:a1:4f:3d:
                    87:56:f1:2a:06:d3:cc:ae:ad:d4:83:25:b4:99:fa:
                    8f:03:bf:4f:af:ec:15:be:d9:77:83:e0:df:cb:e6:
                    58:98:9c:ca:a8:80:f8:e5:95:0b:f7:04:5a:6f:38:
                    0d:6e:ce:eb:a5:1f:e6:62:dc:83:26:ca:71:f1:ce:
                    48:a0:04:3c:d8:89:f8:8d:b9:ed:13:e3:9e:bf:ae:
                    c2:01:1a:15:a0:5c:8e:bb:fa:d6:ec:2b:78:0c:aa:
                    bf:74:0f:23:b5:e6:7d:34:79:4a:74:6e:de:b8:e1:
                    c8:aa:5b:a7:db:15:72:7b:e2:b4:5f:56:35:49:30:
                    34:f2:f6:6d:36:95:10:c0:8d:f2:f4:6e:42:8a:98:
                    7d:3b
                Exponent: 65537 (0x10001)
        X509v3 extensions:
            X509v3 Basic Constraints: 
                CA:FALSE
            X509v3 Subject Key Identifier: 
                91:D1:4A:D6:5B:23:1E:00:38:8E:57:14:D7:DE:C8:AE:71:4E:1B:45
            X509v3 Authority Key Identifier: 
                keyid:99:43:69:9A:03:44:A5:89:8C:C1:BF:B6:D8:46:25:6E:A0:01:09:74
                DirName:/CN=team137-net
                serial:53:31:60:6F:89:60:2E:4F:46:CC:5E:64:89:43:53:4F:64:0F:46:51
            X509v3 Extended Key Usage: 
                TLS Web Client Authentication
            X509v3 Key Usage: 
                Digital Signature
    Signature Algorithm: sha256WithRSAEncryption
    Signature Value:
        17:c1:50:ae:d8:30:3e:4d:82:50:6a:26:9b:93:b3:bd:be:3e:
        7b:52:21:f7:1d:57:fc:63:c7:59:ba:4f:e1:8a:4f:1f:90:18:
        20:38:90:ce:e4:1d:35:27:98:5c:0f:b2:75:51:10:56:27:ed:
        3e:13:2c:32:e4:99:b5:f5:1d:bf:89:f6:a6:38:02:a3:81:e7:
        d6:f5:66:8c:5b:6d:15:db:10:60:23:92:c7:43:3c:32:27:b8:
        37:15:6e:d6:79:77:8e:15:de:b1:1f:41:7c:9a:c9:0d:10:c0:
        47:02:ad:7a:e8:d0:6e:15:60:af:87:fc:c2:0c:4a:6e:26:9c:
        75:b8:77:4d:56:a3:03:84:87:18:dd:36:d5:9e:d1:a6:de:cd:
        f8:9c:89:c1:69:e4:d3:e2:b1:bb:61:0e:97:f3:3d:33:d7:e9:
        b7:99:a4:89:e1:84:11:ac:1e:58:33:ca:a3:15:4f:46:fd:a8:
        8d:d8:61:54:65:00:ff:0a:2c:fe:a7:92:c7:a8:11:b5:b0:e6:
        cf:92:3b:ee:07:9c:ba:2d:c3:87:4f:54:f2:8b:f3:9f:09:7b:
        e3:2c:7f:61:7d:a6:03:83:31:6b:64:e8:1d:9d:cc:12:58:f6:
        7b:28:72:81:80:a4:ab:0a:f2:5b:17:cf:25:fd:b1:cb:26:99:
        39:c8:bc:be
-----BEGIN CERTIFICATE-----
MIIDXDCCAkSgAwIBAgIQSjHvJ+thHTFu/bWgF3o0QDANBgkqhkiG9w0BAQsFADAW
MRQwEgYDVQQDDAt0ZWFtMTM3LW5ldDAeFw0yMzExMDMyMDQxMzlaFw0yNjEwMTgy
MDQxMzlaMBkxFzAVBgNVBAMMDnRlYW0xMzctY2xpZW50MIIBIjANBgkqhkiG9w0B
AQEFAAOCAQ8AMIIBCgKCAQEAt+HLJdJZ+UOmMCg5tybP3+5qFnvlsf8DBi/iEpjX
pq+Bz0xjFrDJL7zN2DEMSVMHiCYYW8g6OvPSgetg1Z/Zv62p4PbKWoa34tPfQ4/z
aJJEwYiZTeIkoFLgwAhVBGpmu2zywG4rfnBXGXCaw/skScLza8mhTz2HVvEqBtPM
rq3UgyW0mfqPA79Pr+wVvtl3g+Dfy+ZYmJzKqID45ZUL9wRabzgNbs7rpR/mYtyD
Jspx8c5IoAQ82In4jbntE+Oev67CARoVoFyOu/rW7Ct4DKq/dA8jteZ9NHlKdG7e
uOHIqlun2xVye+K0X1Y1STA08vZtNpUQwI3y9G5Ciph9OwIDAQABo4GiMIGfMAkG
A1UdEwQCMAAwHQYDVR0OBBYEFJHRStZbIx4AOI5XFNfeyK5xThtFMFEGA1UdIwRK
MEiAFJlDaZoDRKWJjMG/tthGJW6gAQl0oRqkGDAWMRQwEgYDVQQDDAt0ZWFtMTM3
LW5ldIIUUzFgb4lgLk9GzF5kiUNTT2QPRlEwEwYDVR0lBAwwCgYIKwYBBQUHAwIw
CwYDVR0PBAQDAgeAMA0GCSqGSIb3DQEBCwUAA4IBAQAXwVCu2DA+TYJQaiabk7O9
vj57UiH3HVf8Y8dZuk/hik8fkBggOJDO5B01J5hcD7J1URBWJ+0+Eywy5Jm19R2/
ifamOAKjgefW9WaMW20V2xBgI5LHQzwyJ7g3FW7WeXeOFd6xH0F8mskNEMBHAq16
6NBuFWCvh/zCDEpuJpx1uHdNVqMDhIcY3TbVntGm3s34nInBaeTT4rG7YQ6X8z0z
1+m3maSJ4YQRrB5YM8qjFU9G/aiN2GFUZQD/Ciz+p5LHqBG1sObPkjvuB5y6LcOH
T1Tyi/OfCXvjLH9hfaYDgzFrZOgdncwSWPZ7KHKBgKSrCvJbF88l/bHLJpk5yLy+
-----END CERTIFICATE-----
