Certificate:
    Data:
        Version: 3 (0x2)
        Serial Number:
            4f:e7:14:cb:a2:b5:f7:1b:f3:44:5a:94:a5:7c:e3:df
        Signature Algorithm: sha256WithRSAEncryption
        Issuer: CN=team137-net
        Validity
            Not Before: Nov  4 11:30:13 2023 GMT
            Not After : Oct 19 11:30:13 2026 GMT
        Subject: CN=team137-server
        Subject Public Key Info:
            Public Key Algorithm: rsaEncryption
                Public-Key: (2048 bit)
                Modulus:
                    00:9c:28:90:96:0d:fa:7e:32:df:97:d2:38:c1:76:
                    5e:9b:a1:03:e4:cb:8e:36:64:9f:cd:ea:a3:a4:ef:
                    2c:5a:56:ae:6b:a0:27:67:85:1a:f2:84:89:a0:ac:
                    4e:cf:7c:5e:77:d9:a2:3f:40:b2:02:e3:f1:e0:eb:
                    7d:2a:47:70:e8:0d:ab:eb:4d:29:13:7a:31:e8:c7:
                    f7:99:e2:b0:0b:ee:8d:f7:11:69:8b:29:ff:b8:e9:
                    d9:f6:c1:43:3a:0a:a4:e6:9c:74:ac:50:fe:34:b3:
                    f4:9a:ed:b9:32:c7:19:78:bd:26:a9:e2:bd:ab:f2:
                    59:b8:ab:69:f5:c0:d3:4b:f7:50:4a:a1:a6:86:ba:
                    3f:df:4b:45:6a:ad:f1:e6:33:b2:72:c8:6d:3c:f0:
                    0c:31:71:81:79:53:99:9d:83:33:18:ca:eb:cf:59:
                    71:13:a7:f6:59:38:79:cc:ef:b4:de:0f:64:a8:21:
                    56:cc:e0:aa:0c:32:fe:13:cf:ed:1c:01:a1:f0:f7:
                    d9:32:a2:57:01:cc:77:7a:26:b9:ff:00:b1:e0:88:
                    44:2e:66:6d:50:3e:c2:2b:01:5d:32:f5:1e:7f:8b:
                    86:ae:13:72:27:56:7e:3b:ba:ea:54:d6:32:c3:92:
                    38:34:17:7b:1a:55:49:d4:af:8d:ef:83:a8:2e:84:
                    5c:a9
                Exponent: 65537 (0x10001)
        X509v3 extensions:
            X509v3 Basic Constraints: 
                CA:FALSE
            X509v3 Subject Key Identifier: 
                77:6A:94:C6:E6:A4:AE:1A:A4:1A:17:0D:9F:18:C0:CB:E2:B8:77:3B
            X509v3 Authority Key Identifier: 
                keyid:03:F4:4B:A4:AC:53:EE:03:76:40:E6:C7:06:08:46:2F:18:D0:18:41
                DirName:/CN=team137-net
                serial:19:69:D3:F9:23:66:4C:11:D4:0B:9F:17:4E:13:71:6E:6F:67:F7:B0
            X509v3 Extended Key Usage: 
                TLS Web Server Authentication
            X509v3 Key Usage: 
                Digital Signature, Key Encipherment
            X509v3 Subject Alternative Name: 
                DNS:team137-server
    Signature Algorithm: sha256WithRSAEncryption
    Signature Value:
        78:e0:0f:33:45:36:1c:ec:c4:39:8d:de:5c:ef:38:1d:17:1a:
        d3:77:5c:29:34:d0:b3:59:a0:c9:48:84:a3:0d:1e:53:7c:35:
        26:4e:56:76:3f:b7:6e:d3:ee:de:90:1a:7c:c5:23:6b:55:e6:
        a9:44:56:b0:c0:14:ae:aa:f4:6e:78:37:dd:db:ef:da:6d:82:
        70:dc:04:cf:fd:86:a3:e2:de:1f:33:fe:be:00:99:17:76:fe:
        2c:3c:32:ba:b4:67:97:10:4f:7e:88:ea:65:a9:79:12:7a:ed:
        0b:66:d0:65:50:3c:fb:5e:7d:e5:83:f0:a5:c4:fe:4d:3e:9a:
        35:35:4e:05:8f:b3:88:a9:ee:33:1f:fa:93:57:af:59:2c:b2:
        5d:1c:b5:31:10:3c:39:88:0b:3b:d4:da:00:be:3e:e6:af:a5:
        a3:00:e6:37:c6:c0:2d:fb:a8:ef:ea:ea:89:e6:8a:e2:b2:21:
        85:48:58:a9:1b:3f:e9:2e:4a:94:5f:29:47:45:3f:b2:00:52:
        0f:8a:c5:f4:d8:b1:f2:63:6f:2c:a8:b9:cb:18:7d:07:3f:83:
        1b:f8:e5:bb:26:14:dd:e7:00:f7:b9:16:df:b8:9a:b3:75:71:
        7e:99:65:d6:d0:64:24:1c:b0:6c:7a:9e:66:d7:40:f0:69:83:
        2a:8d:bf:16
-----BEGIN CERTIFICATE-----
MIIDdzCCAl+gAwIBAgIQT+cUy6K19xvzRFqUpXzj3zANBgkqhkiG9w0BAQsFADAW
MRQwEgYDVQQDDAt0ZWFtMTM3LW5ldDAeFw0yMzExMDQxMTMwMTNaFw0yNjEwMTkx
MTMwMTNaMBkxFzAVBgNVBAMMDnRlYW0xMzctc2VydmVyMIIBIjANBgkqhkiG9w0B
AQEFAAOCAQ8AMIIBCgKCAQEAnCiQlg36fjLfl9I4wXZem6ED5MuONmSfzeqjpO8s
Wlaua6AnZ4Ua8oSJoKxOz3xed9miP0CyAuPx4Ot9Kkdw6A2r600pE3ox6Mf3meKw
C+6N9xFpiyn/uOnZ9sFDOgqk5px0rFD+NLP0mu25MscZeL0mqeK9q/JZuKtp9cDT
S/dQSqGmhro/30tFaq3x5jOycshtPPAMMXGBeVOZnYMzGMrrz1lxE6f2WTh5zO+0
3g9kqCFWzOCqDDL+E8/tHAGh8PfZMqJXAcx3eia5/wCx4IhELmZtUD7CKwFdMvUe
f4uGrhNyJ1Z+O7rqVNYyw5I4NBd7GlVJ1K+N74OoLoRcqQIDAQABo4G9MIG6MAkG
A1UdEwQCMAAwHQYDVR0OBBYEFHdqlMbmpK4apBoXDZ8YwMviuHc7MFEGA1UdIwRK
MEiAFAP0S6SsU+4DdkDmxwYIRi8Y0BhBoRqkGDAWMRQwEgYDVQQDDAt0ZWFtMTM3
LW5ldIIUGWnT+SNmTBHUC58XThNxbm9n97AwEwYDVR0lBAwwCgYIKwYBBQUHAwEw
CwYDVR0PBAQDAgWgMBkGA1UdEQQSMBCCDnRlYW0xMzctc2VydmVyMA0GCSqGSIb3
DQEBCwUAA4IBAQB44A8zRTYc7MQ5jd5c7zgdFxrTd1wpNNCzWaDJSISjDR5TfDUm
TlZ2P7du0+7ekBp8xSNrVeapRFawwBSuqvRueDfd2+/abYJw3ATP/Yaj4t4fM/6+
AJkXdv4sPDK6tGeXEE9+iOplqXkSeu0LZtBlUDz7Xn3lg/ClxP5NPpo1NU4Fj7OI
qe4zH/qTV69ZLLJdHLUxEDw5iAs71NoAvj7mr6WjAOY3xsAt+6jv6uqJ5orisiGF
SFipGz/pLkqUXylHRT+yAFIPisX02LHyY28sqLnLGH0HP4Mb+OW7JhTd5wD3uRbf
uJqzdXF+mWXW0GQkHLBsep5m10DwaYMqjb8W
-----END CERTIFICATE-----
