Certificate:
    Data:
        Version: 3 (0x2)
        Serial Number:
            6a:84:fc:e7:e9:95:4d:f8:77:5a:92:25:86:1c:3a:d2
        Signature Algorithm: sha256WithRSAEncryption
        Issuer: CN=team137-net
        Validity
            Not Before: Nov  4 10:43:04 2023 GMT
            Not After : Oct 19 10:43:04 2026 GMT
        Subject: CN=team137-client
        Subject Public Key Info:
            Public Key Algorithm: rsaEncryption
                Public-Key: (2048 bit)
                Modulus:
                    00:e9:b7:de:07:30:56:33:78:44:ea:18:8f:6e:31:
                    50:c9:29:8f:68:e8:c9:1a:7c:1f:6b:e1:0b:77:a6:
                    30:f9:7e:2a:8e:e0:26:12:a6:e3:25:e0:30:e6:9d:
                    01:99:50:57:e7:d1:7b:aa:93:ed:fe:cc:da:9c:98:
                    66:43:71:b4:88:df:45:06:31:92:f0:1f:3c:a1:19:
                    42:52:08:a9:c9:4a:b3:2b:62:4e:14:88:ca:37:82:
                    04:58:88:fe:a8:1d:0d:a7:60:ba:9d:68:8b:ec:d2:
                    53:dc:85:ae:83:21:e6:69:f3:a5:7f:d6:64:90:24:
                    81:d5:e7:cc:bc:61:3d:b7:93:ab:60:42:7c:74:29:
                    d2:c7:89:e6:dc:75:ac:9e:47:8a:bb:36:62:ea:62:
                    d3:58:71:da:1d:ac:db:2e:b7:7d:22:c5:0e:af:46:
                    0f:22:dd:74:66:55:74:4c:72:f6:f8:8f:21:ee:84:
                    44:1d:44:ba:20:72:a1:df:b7:28:11:46:71:d9:61:
                    af:cd:6a:18:5c:8a:06:4e:dc:90:9d:70:59:38:cd:
                    61:b5:cb:79:79:7a:b7:18:d3:02:3b:60:15:15:86:
                    50:7c:5d:2f:a3:52:a7:bc:ce:64:c1:32:75:d7:b9:
                    c2:97:8f:78:f6:28:55:5f:5d:e3:9e:5f:18:6f:61:
                    60:09
                Exponent: 65537 (0x10001)
        X509v3 extensions:
            X509v3 Basic Constraints: 
                CA:FALSE
            X509v3 Subject Key Identifier: 
                91:F4:A3:18:36:E5:5B:03:43:56:77:24:6F:27:7E:96:D0:D7:C5:70
            X509v3 Authority Key Identifier: 
                keyid:C7:6F:6E:C2:AE:4D:D7:9C:FE:B6:0E:43:A3:77:A3:4D:CA:CD:0B:FC
                DirName:/CN=team137-net
                serial:49:09:D2:92:BB:F4:FD:B5:93:B7:E7:AC:64:0B:34:36:4F:AF:E8:B0
            X509v3 Extended Key Usage: 
                TLS Web Client Authentication
            X509v3 Key Usage: 
                Digital Signature
    Signature Algorithm: sha256WithRSAEncryption
    Signature Value:
        6b:49:5a:1b:9d:44:81:e3:52:a4:d4:de:60:27:4a:34:36:8c:
        a2:7c:20:1c:ca:ce:b2:c2:53:69:77:0f:76:62:35:f3:62:c0:
        2b:76:e1:c7:2b:f5:e3:9d:22:c9:f2:5c:28:ad:cd:95:a9:e4:
        40:c7:04:27:9a:46:d2:41:ec:5e:13:2d:ba:fc:8b:00:b1:6b:
        b6:fb:48:59:fe:5d:bc:23:c3:7c:c7:96:11:71:ef:fb:be:e4:
        65:19:8c:b8:1a:09:15:c2:45:af:67:1f:5f:d3:33:7d:02:61:
        e5:09:3e:0f:49:c5:e3:be:87:bb:cf:91:94:9a:d6:8b:c2:fd:
        96:89:e4:64:d3:95:4a:65:01:07:c9:68:ee:f7:ca:ea:e8:3a:
        8b:84:54:26:58:34:45:40:a5:b8:e7:4d:25:a3:cd:cd:b4:b1:
        a3:90:b5:22:58:b4:31:54:d4:85:93:46:61:57:b5:bf:c9:e1:
        3b:c5:3d:f6:3f:a9:f4:c5:98:52:5b:31:b5:0f:0b:16:a5:13:
        97:2b:30:ef:19:c2:61:da:f1:3b:d7:6d:a2:d9:c2:76:1b:d3:
        f5:69:44:3e:12:80:ed:e8:03:13:28:83:33:9d:f2:b7:4e:50:
        a6:ef:09:5f:ed:04:d3:06:4a:db:c2:a9:ea:1b:75:61:0c:27:
        f1:dc:9f:6b
-----BEGIN CERTIFICATE-----
MIIDXDCCAkSgAwIBAgIQaoT85+mVTfh3WpIlhhw60jANBgkqhkiG9w0BAQsFADAW
MRQwEgYDVQQDDAt0ZWFtMTM3LW5ldDAeFw0yMzExMDQxMDQzMDRaFw0yNjEwMTkx
MDQzMDRaMBkxFzAVBgNVBAMMDnRlYW0xMzctY2xpZW50MIIBIjANBgkqhkiG9w0B
AQEFAAOCAQ8AMIIBCgKCAQEA6bfeBzBWM3hE6hiPbjFQySmPaOjJGnwfa+ELd6Yw
+X4qjuAmEqbjJeAw5p0BmVBX59F7qpPt/szanJhmQ3G0iN9FBjGS8B88oRlCUgip
yUqzK2JOFIjKN4IEWIj+qB0Np2C6nWiL7NJT3IWugyHmafOlf9ZkkCSB1efMvGE9
t5OrYEJ8dCnSx4nm3HWsnkeKuzZi6mLTWHHaHazbLrd9IsUOr0YPIt10ZlV0THL2
+I8h7oREHUS6IHKh37coEUZx2WGvzWoYXIoGTtyQnXBZOM1htct5eXq3GNMCO2AV
FYZQfF0vo1KnvM5kwTJ117nCl4949ihVX13jnl8Yb2FgCQIDAQABo4GiMIGfMAkG
A1UdEwQCMAAwHQYDVR0OBBYEFJH0oxg25VsDQ1Z3JG8nfpbQ18VwMFEGA1UdIwRK
MEiAFMdvbsKuTdec/rYOQ6N3o03KzQv8oRqkGDAWMRQwEgYDVQQDDAt0ZWFtMTM3
LW5ldIIUSQnSkrv0/bWTt+esZAs0Nk+v6LAwEwYDVR0lBAwwCgYIKwYBBQUHAwIw
CwYDVR0PBAQDAgeAMA0GCSqGSIb3DQEBCwUAA4IBAQBrSVobnUSB41Kk1N5gJ0o0
NoyifCAcys6ywlNpdw92YjXzYsArduHHK/XjnSLJ8lworc2VqeRAxwQnmkbSQexe
Ey26/IsAsWu2+0hZ/l28I8N8x5YRce/7vuRlGYy4GgkVwkWvZx9f0zN9AmHlCT4P
ScXjvoe7z5GUmtaLwv2WieRk05VKZQEHyWju98rq6DqLhFQmWDRFQKW4500lo83N
tLGjkLUiWLQxVNSFk0ZhV7W/yeE7xT32P6n0xZhSWzG1DwsWpROXKzDvGcJh2vE7
122i2cJ2G9P1aUQ+EoDt6AMTKIMznfK3TlCm7wlf7QTTBkrbwqnqG3VhDCfx3J9r
-----END CERTIFICATE-----
