Certificate:
    Data:
        Version: 3 (0x2)
        Serial Number:
            c9:83:ec:47:4f:98:ad:94:2c:f8:5f:c3:0b:1d:35:61
        Signature Algorithm: sha256WithRSAEncryption
        Issuer: CN=team186-net
        Validity
            Not Before: Nov  3 20:42:39 2023 GMT
            Not After : Oct 18 20:42:39 2026 GMT
        Subject: CN=team186-client
        Subject Public Key Info:
            Public Key Algorithm: rsaEncryption
                Public-Key: (2048 bit)
                Modulus:
                    00:df:ce:c1:22:3c:ee:e1:75:29:b4:5a:de:bc:d9:
                    77:1f:68:21:de:00:a4:a8:9a:80:9e:83:27:f1:ef:
                    30:aa:8c:9f:92:08:bb:93:3b:eb:de:57:66:18:ee:
                    f1:68:b7:bf:0a:07:18:dc:0f:15:22:4b:44:d5:5c:
                    96:0e:37:3e:87:cd:74:50:6b:21:68:2e:56:82:23:
                    5e:fa:0a:34:1f:05:55:ac:d4:e3:50:83:f7:f8:ad:
                    bf:a1:89:57:ed:a0:bb:ab:36:85:5c:d5:ce:6d:2c:
                    dd:e7:cf:71:ab:9f:47:85:1c:d8:fc:0a:fd:d0:ca:
                    8d:1a:a7:48:5a:6c:c0:1f:40:dd:c6:15:82:10:82:
                    57:74:23:38:27:a7:3a:95:55:70:be:95:0d:c8:8c:
                    43:be:94:00:56:62:83:c6:43:0d:fa:fb:bb:bb:07:
                    27:08:ca:6f:82:21:35:5b:2d:e4:86:d3:12:8b:b4:
                    f4:9e:f0:5b:16:40:bc:36:f2:11:37:84:3c:67:e3:
                    0f:06:64:b5:d4:67:bf:c6:b5:89:bf:6c:06:02:03:
                    82:35:35:6b:2b:d5:15:a8:ff:68:c4:f3:d7:e6:0d:
                    da:b0:86:bf:e6:2c:ac:67:07:9d:41:f2:5e:a0:e2:
                    39:dd:dc:b1:01:b6:37:21:7c:10:7e:2e:6e:11:2f:
                    01:a9
                Exponent: 65537 (0x10001)
        X509v3 extensions:
            X509v3 Basic Constraints: 
                CA:FALSE
            X509v3 Subject Key Identifier: 
                15:20:46:B3:31:17:05:39:47:B0:4C:5C:0E:B6:3B:90:1C:F0:B1:E8
            X509v3 Authority Key Identifier: 
                keyid:2F:4E:6E:EB:86:52:BA:69:BE:E5:85:DE:21:ED:41:68:5A:F6:E3:57
                DirName:/CN=team186-net
                serial:29:BD:79:F6:65:BD:0B:E5:67:7C:17:52:DA:DB:92:D3:B2:4E:C2:68
            X509v3 Extended Key Usage: 
                TLS Web Client Authentication
            X509v3 Key Usage: 
                Digital Signature
    Signature Algorithm: sha256WithRSAEncryption
    Signature Value:
        08:c3:95:be:a2:1d:b0:4d:bd:74:65:d9:cb:4c:b5:4f:a2:0b:
        f6:e6:1a:93:16:64:8e:99:36:83:2f:a3:9a:af:8c:24:e4:93:
        1c:85:87:da:08:cf:a2:9d:4f:5c:66:17:cc:02:e8:46:4a:8e:
        70:22:a5:c7:6c:4a:43:b5:00:59:e4:ce:39:25:28:fa:2f:8a:
        d9:6e:a0:2f:40:cb:47:15:2c:b1:37:c1:d3:d5:8d:af:87:4e:
        21:7e:96:a3:5e:28:ad:e2:1a:f5:16:bd:3d:db:67:ff:5e:38:
        a2:67:51:69:15:8e:b7:32:94:9a:e7:47:ab:d3:88:36:e1:fc:
        08:29:1a:cc:07:56:93:3c:18:e6:66:2f:5d:ff:19:6a:ab:70:
        1c:f9:9d:87:e9:b0:87:65:3e:5b:71:eb:3e:cd:46:17:86:53:
        1d:6d:ad:cf:23:bc:83:14:c5:ab:c7:5e:2c:c4:af:94:7f:71:
        c4:ee:9e:99:1e:91:46:1d:be:38:e5:e9:93:0d:cd:5d:e6:6b:
        52:6b:c9:d1:20:e8:97:3f:3f:b5:99:66:b8:2c:05:89:a3:0f:
        8a:22:85:7f:b7:0c:86:11:df:98:18:15:30:80:f6:34:b8:f8:
        c1:95:5c:dc:89:9a:d1:f0:85:ee:04:fe:c5:7c:d1:95:39:94:
        b2:db:7a:e1
-----BEGIN CERTIFICATE-----
MIIDXTCCAkWgAwIBAgIRAMmD7EdPmK2ULPhfwwsdNWEwDQYJKoZIhvcNAQELBQAw
FjEUMBIGA1UEAwwLdGVhbTE4Ni1uZXQwHhcNMjMxMTAzMjA0MjM5WhcNMjYxMDE4
MjA0MjM5WjAZMRcwFQYDVQQDDA50ZWFtMTg2LWNsaWVudDCCASIwDQYJKoZIhvcN
AQEBBQADggEPADCCAQoCggEBAN/OwSI87uF1KbRa3rzZdx9oId4ApKiagJ6DJ/Hv
MKqMn5IIu5M7695XZhju8Wi3vwoHGNwPFSJLRNVclg43PofNdFBrIWguVoIjXvoK
NB8FVazU41CD9/itv6GJV+2gu6s2hVzVzm0s3efPcaufR4Uc2PwK/dDKjRqnSFps
wB9A3cYVghCCV3QjOCenOpVVcL6VDciMQ76UAFZig8ZDDfr7u7sHJwjKb4IhNVst
5IbTEou09J7wWxZAvDbyETeEPGfjDwZktdRnv8a1ib9sBgIDgjU1ayvVFaj/aMTz
1+YN2rCGv+YsrGcHnUHyXqDiOd3csQG2NyF8EH4ubhEvAakCAwEAAaOBojCBnzAJ
BgNVHRMEAjAAMB0GA1UdDgQWBBQVIEazMRcFOUewTFwOtjuQHPCx6DBRBgNVHSME
SjBIgBQvTm7rhlK6ab7lhd4h7UFoWvbjV6EapBgwFjEUMBIGA1UEAwwLdGVhbTE4
Ni1uZXSCFCm9efZlvQvlZ3wXUtrbktOyTsJoMBMGA1UdJQQMMAoGCCsGAQUFBwMC
MAsGA1UdDwQEAwIHgDANBgkqhkiG9w0BAQsFAAOCAQEACMOVvqIdsE29dGXZy0y1
T6IL9uYakxZkjpk2gy+jmq+MJOSTHIWH2gjPop1PXGYXzALoRkqOcCKlx2xKQ7UA
WeTOOSUo+i+K2W6gL0DLRxUssTfB09WNr4dOIX6Wo14oreIa9Ra9Pdtn/144omdR
aRWOtzKUmudHq9OINuH8CCkazAdWkzwY5mYvXf8ZaqtwHPmdh+mwh2U+W3HrPs1G
F4ZTHW2tzyO8gxTFq8deLMSvlH9xxO6emR6RRh2+OOXpkw3NXeZrUmvJ0SDolz8/
tZlmuCwFiaMPiiKFf7cMhhHfmBgVMID2NLj4wZVc3Ima0fCF7gT+xXzRlTmUstt6
4Q==
-----END CERTIFICATE-----
