Certificate:
    Data:
        Version: 3 (0x2)
        Serial Number:
            17:59:d9:26:2e:86:b5:c1:ed:04:a0:39:82:3b:d6:45
        Signature Algorithm: sha256WithRSAEncryption
        Issuer: CN=team145-net
        Validity
            Not Before: Nov  4 11:30:25 2023 GMT
            Not After : Oct 19 11:30:25 2026 GMT
        Subject: CN=team145-server
        Subject Public Key Info:
            Public Key Algorithm: rsaEncryption
                Public-Key: (2048 bit)
                Modulus:
                    00:f5:ea:d6:1e:0c:01:8d:da:bf:c8:b5:31:01:3c:
                    06:41:c4:e1:27:ef:ca:cd:8a:87:44:af:49:7f:e9:
                    2d:da:90:63:f4:68:46:04:8a:0f:61:91:7d:6c:96:
                    ef:6a:52:eb:0c:f7:5a:60:e2:ad:48:73:cb:72:38:
                    cc:bc:70:e9:66:88:12:08:17:64:12:48:e1:90:12:
                    62:0c:30:97:cb:46:ba:97:92:d0:43:37:ee:7a:b3:
                    c0:73:06:bc:00:62:e0:69:31:b8:60:c9:9d:5c:9d:
                    9d:af:75:94:65:ce:1c:c7:28:1e:c3:c3:c3:b3:04:
                    73:06:ba:7c:bb:f8:d3:ef:3e:90:53:bd:36:55:29:
                    a8:e7:64:ba:78:00:07:83:57:81:59:44:98:22:a2:
                    64:82:6d:9d:28:b2:c2:df:cd:b6:b8:88:bf:84:67:
                    40:37:f6:2e:6c:54:21:83:d7:58:7d:8c:9e:8c:d6:
                    dc:8b:03:b5:21:9a:b3:b1:ee:ec:d2:06:d5:9e:8f:
                    51:4f:54:db:e6:c5:81:17:d7:ce:39:2c:8d:29:62:
                    9d:23:74:9e:ed:b2:81:b5:62:2e:33:5d:4e:1b:41:
                    4e:14:ee:92:e3:4b:3a:89:09:88:1b:5e:1f:f1:f1:
                    1c:d5:c0:61:90:7b:1a:e2:9e:56:df:b6:12:05:75:
                    cb:25
                Exponent: 65537 (0x10001)
        X509v3 extensions:
            X509v3 Basic Constraints: 
                CA:FALSE
            X509v3 Subject Key Identifier: 
                3B:B9:E2:B6:03:81:0C:D3:E9:07:A0:2E:92:B6:CD:57:20:74:86:E6
            X509v3 Authority Key Identifier: 
                keyid:7B:CC:5D:E5:C3:EC:02:76:68:6A:1E:64:86:93:86:11:5B:A4:D0:AA
                DirName:/CN=team145-net
                serial:19:79:8E:55:4B:30:62:FF:25:AD:CC:23:70:07:33:E9:E1:96:D6:0E
            X509v3 Extended Key Usage: 
                TLS Web Server Authentication
            X509v3 Key Usage: 
                Digital Signature, Key Encipherment
            X509v3 Subject Alternative Name: 
                DNS:team145-server
    Signature Algorithm: sha256WithRSAEncryption
    Signature Value:
        7c:56:88:d4:a2:a4:46:48:35:99:e4:f1:40:62:98:08:f6:8f:
        27:69:24:5c:0b:ee:19:76:4d:b7:ee:91:26:62:2c:4f:a4:aa:
        cd:87:9f:b6:11:5a:95:68:93:05:0a:ef:bf:89:eb:8d:10:79:
        e4:94:c4:b5:b4:1f:0b:35:b8:17:08:3f:30:13:ba:b0:8c:dc:
        af:d6:b4:62:db:69:69:e9:5a:7f:84:ee:68:eb:6c:be:65:fd:
        c7:31:e1:ca:55:2c:1c:34:a4:dd:77:69:fa:9d:ce:cf:76:0e:
        f5:6e:d9:d7:15:35:78:92:17:4e:bd:a8:06:ec:84:62:57:b0:
        a4:f2:2d:65:5a:bf:39:c8:30:0e:1b:ee:b5:ba:3f:27:b6:af:
        01:a8:33:c5:be:ad:08:7f:e7:6b:35:bd:76:44:60:1b:8a:05:
        8a:cf:ed:d8:e4:3e:08:a5:79:cc:07:a2:3c:ac:fa:85:dd:e0:
        b1:60:e9:d6:19:da:4e:d1:13:fb:aa:09:bb:d9:d4:c2:9e:af:
        a8:2b:91:44:22:18:c1:78:4c:5b:ad:7d:96:13:09:31:56:2a:
        df:cc:78:ab:89:c1:05:96:aa:aa:a0:fa:0b:5b:c0:77:bc:9e:
        8c:bf:c1:84:0d:63:3f:0c:cb:a0:b1:ab:56:71:82:a6:05:2c:
        3f:07:c1:33
-----BEGIN CERTIFICATE-----
MIIDdzCCAl+gAwIBAgIQF1nZJi6GtcHtBKA5gjvWRTANBgkqhkiG9w0BAQsFADAW
MRQwEgYDVQQDDAt0ZWFtMTQ1LW5ldDAeFw0yMzExMDQxMTMwMjVaFw0yNjEwMTkx
MTMwMjVaMBkxFzAVBgNVBAMMDnRlYW0xNDUtc2VydmVyMIIBIjANBgkqhkiG9w0B
AQEFAAOCAQ8AMIIBCgKCAQEA9erWHgwBjdq/yLUxATwGQcThJ+/KzYqHRK9Jf+kt
2pBj9GhGBIoPYZF9bJbvalLrDPdaYOKtSHPLcjjMvHDpZogSCBdkEkjhkBJiDDCX
y0a6l5LQQzfuerPAcwa8AGLgaTG4YMmdXJ2dr3WUZc4cxygew8PDswRzBrp8u/jT
7z6QU702VSmo52S6eAAHg1eBWUSYIqJkgm2dKLLC3822uIi/hGdAN/YubFQhg9dY
fYyejNbciwO1IZqzse7s0gbVno9RT1Tb5sWBF9fOOSyNKWKdI3Se7bKBtWIuM11O
G0FOFO6S40s6iQmIG14f8fEc1cBhkHsa4p5W37YSBXXLJQIDAQABo4G9MIG6MAkG
A1UdEwQCMAAwHQYDVR0OBBYEFDu54rYDgQzT6QegLpK2zVcgdIbmMFEGA1UdIwRK
MEiAFHvMXeXD7AJ2aGoeZIaThhFbpNCqoRqkGDAWMRQwEgYDVQQDDAt0ZWFtMTQ1
LW5ldIIUGXmOVUswYv8lrcwjcAcz6eGW1g4wEwYDVR0lBAwwCgYIKwYBBQUHAwEw
CwYDVR0PBAQDAgWgMBkGA1UdEQQSMBCCDnRlYW0xNDUtc2VydmVyMA0GCSqGSIb3
DQEBCwUAA4IBAQB8VojUoqRGSDWZ5PFAYpgI9o8naSRcC+4Zdk237pEmYixPpKrN
h5+2EVqVaJMFCu+/ieuNEHnklMS1tB8LNbgXCD8wE7qwjNyv1rRi22lp6Vp/hO5o
62y+Zf3HMeHKVSwcNKTdd2n6nc7Pdg71btnXFTV4khdOvagG7IRiV7Ck8i1lWr85
yDAOG+61uj8ntq8BqDPFvq0If+drNb12RGAbigWKz+3Y5D4IpXnMB6I8rPqF3eCx
YOnWGdpO0RP7qgm72dTCnq+oK5FEIhjBeExbrX2WEwkxVirfzHiricEFlqqqoPoL
W8B3vJ6Mv8GEDWM/DMugsatWcYKmBSw/B8Ez
-----END CERTIFICATE-----
