Certificate:
    Data:
        Version: 3 (0x2)
        Serial Number:
            63:e5:9c:a6:40:a1:fd:1f:46:11:79:8c:bf:00:a2:20
        Signature Algorithm: sha256WithRSAEncryption
        Issuer: CN=team145-net
        Validity
            Not Before: Nov  4 11:30:25 2023 GMT
            Not After : Oct 19 11:30:25 2026 GMT
        Subject: CN=team145-client
        Subject Public Key Info:
            Public Key Algorithm: rsaEncryption
                Public-Key: (2048 bit)
                Modulus:
                    00:a4:af:69:a9:9a:2e:d2:b9:3d:11:e8:38:f7:d0:
                    2b:17:af:58:4a:c0:35:b4:a8:47:9f:b5:98:4c:2f:
                    00:39:e3:bc:ac:89:cb:74:80:18:47:57:4d:9c:ae:
                    3e:40:e1:78:a9:cc:2f:fc:ad:b9:44:42:57:5c:bc:
                    37:3a:a3:20:02:c8:5d:be:c5:7d:68:88:8b:cf:63:
                    43:5a:04:2a:00:ad:2b:30:81:44:15:fb:85:c8:3f:
                    99:c5:de:95:c6:f0:bb:48:6f:9f:66:0c:31:a8:5f:
                    3c:fc:a0:f8:b1:6f:d4:8e:5c:5e:85:36:84:a7:8a:
                    60:ed:7f:02:d2:bb:ee:a3:62:d1:d4:2f:a0:ad:39:
                    7a:77:20:34:eb:43:58:ec:95:01:05:27:be:7b:94:
                    e7:89:e5:11:e1:f2:0a:f5:57:d1:66:e5:40:54:41:
                    80:4f:6d:fe:b1:3a:b2:9c:44:f9:7b:8e:21:64:a1:
                    da:2e:3c:86:d6:e9:b5:9d:fd:45:d1:5d:60:d2:c0:
                    de:31:54:0e:a5:f1:8e:b1:ae:1d:c2:c1:a6:55:c3:
                    2a:7f:96:89:a7:f8:e8:a1:72:bf:01:66:bf:7c:26:
                    7e:96:7b:1e:3b:3b:41:23:23:f4:81:f9:8d:0b:ea:
                    9c:67:c6:40:89:2a:3b:65:e1:dd:18:61:69:e7:5a:
                    cf:c5
                Exponent: 65537 (0x10001)
        X509v3 extensions:
            X509v3 Basic Constraints: 
                CA:FALSE
            X509v3 Subject Key Identifier: 
                21:6D:53:64:2B:E8:29:0D:A7:8D:09:F4:43:BE:79:14:0A:66:36:AC
            X509v3 Authority Key Identifier: 
                keyid:7B:CC:5D:E5:C3:EC:02:76:68:6A:1E:64:86:93:86:11:5B:A4:D0:AA
                DirName:/CN=team145-net
                serial:19:79:8E:55:4B:30:62:FF:25:AD:CC:23:70:07:33:E9:E1:96:D6:0E
            X509v3 Extended Key Usage: 
                TLS Web Client Authentication
            X509v3 Key Usage: 
                Digital Signature
    Signature Algorithm: sha256WithRSAEncryption
    Signature Value:
        5c:a7:bf:44:39:75:a8:c3:5b:94:81:de:ae:9a:73:f4:d2:76:
        a2:ad:ec:3b:92:38:51:e6:20:8b:20:83:00:b8:59:4a:5b:43:
        60:76:ea:6f:b4:36:af:1a:55:6a:3e:ba:37:f9:b9:bb:c0:2c:
        45:58:82:3c:2b:75:bb:8a:60:e4:f3:a1:30:e5:e0:a0:95:94:
        5e:f4:c6:64:7c:44:82:62:67:26:1c:77:11:b5:8b:69:6a:f0:
        65:7a:e7:81:b9:ff:ce:42:29:ff:51:f2:87:cd:b8:7d:fa:9c:
        9f:57:82:5a:a8:10:b5:69:b1:2a:8b:f9:23:47:af:6a:d7:35:
        a1:c4:29:3e:f9:1e:d0:c1:c3:e0:24:19:63:65:c3:f0:8c:a2:
        6f:f1:b2:97:e7:3f:e9:5a:18:a8:3c:36:db:81:64:0c:fb:02:
        92:18:03:d5:76:55:6f:41:dc:34:cd:07:3c:3a:63:d3:38:49:
        f1:9d:25:35:99:52:b3:25:36:93:17:ed:be:3b:66:01:3a:77:
        e1:d0:d1:42:73:86:5d:90:09:d9:66:30:2d:bc:93:56:9b:f0:
        1f:ae:a8:03:38:08:68:90:bb:68:35:9b:c6:6c:32:fb:01:f2:
        ef:b1:a6:31:b2:4f:42:5d:26:70:d9:b9:ed:be:ab:c5:d5:aa:
        4e:88:03:7b
-----BEGIN CERTIFICATE-----
MIIDXDCCAkSgAwIBAgIQY+WcpkCh/R9GEXmMvwCiIDANBgkqhkiG9w0BAQsFADAW
MRQwEgYDVQQDDAt0ZWFtMTQ1LW5ldDAeFw0yMzExMDQxMTMwMjVaFw0yNjEwMTkx
MTMwMjVaMBkxFzAVBgNVBAMMDnRlYW0xNDUtY2xpZW50MIIBIjANBgkqhkiG9w0B
AQEFAAOCAQ8AMIIBCgKCAQEApK9pqZou0rk9Eeg499ArF69YSsA1tKhHn7WYTC8A
OeO8rInLdIAYR1dNnK4+QOF4qcwv/K25REJXXLw3OqMgAshdvsV9aIiLz2NDWgQq
AK0rMIFEFfuFyD+Zxd6VxvC7SG+fZgwxqF88/KD4sW/UjlxehTaEp4pg7X8C0rvu
o2LR1C+grTl6dyA060NY7JUBBSe+e5TnieUR4fIK9VfRZuVAVEGAT23+sTqynET5
e44hZKHaLjyG1um1nf1F0V1g0sDeMVQOpfGOsa4dwsGmVcMqf5aJp/jooXK/AWa/
fCZ+lnseOztBIyP0gfmNC+qcZ8ZAiSo7ZeHdGGFp51rPxQIDAQABo4GiMIGfMAkG
A1UdEwQCMAAwHQYDVR0OBBYEFCFtU2Qr6CkNp40J9EO+eRQKZjasMFEGA1UdIwRK
MEiAFHvMXeXD7AJ2aGoeZIaThhFbpNCqoRqkGDAWMRQwEgYDVQQDDAt0ZWFtMTQ1
LW5ldIIUGXmOVUswYv8lrcwjcAcz6eGW1g4wEwYDVR0lBAwwCgYIKwYBBQUHAwIw
CwYDVR0PBAQDAgeAMA0GCSqGSIb3DQEBCwUAA4IBAQBcp79EOXWow1uUgd6umnP0
0nairew7kjhR5iCLIIMAuFlKW0NgdupvtDavGlVqPro3+bm7wCxFWII8K3W7imDk
86Ew5eCglZRe9MZkfESCYmcmHHcRtYtpavBleueBuf/OQin/UfKHzbh9+pyfV4Ja
qBC1abEqi/kjR69q1zWhxCk++R7QwcPgJBljZcPwjKJv8bKX5z/pWhioPDbbgWQM
+wKSGAPVdlVvQdw0zQc8OmPTOEnxnSU1mVKzJTaTF+2+O2YBOnfh0NFCc4ZdkAnZ
ZjAtvJNWm/AfrqgDOAhokLtoNZvGbDL7AfLvsaYxsk9CXSZw2bntvqvF1apOiAN7
-----END CERTIFICATE-----
