Certificate:
    Data:
        Version: 3 (0x2)
        Serial Number:
            b8:da:a6:62:db:cd:e0:a1:a6:ac:15:4b:d8:d8:81:ce
        Signature Algorithm: sha256WithRSAEncryption
        Issuer: CN=team145-net
        Validity
            Not Before: Nov  4 10:43:14 2023 GMT
            Not After : Oct 19 10:43:14 2026 GMT
        Subject: CN=team145-client
        Subject Public Key Info:
            Public Key Algorithm: rsaEncryption
                Public-Key: (2048 bit)
                Modulus:
                    00:d7:52:90:50:50:0d:17:32:95:e8:ea:c3:05:8b:
                    8f:88:9e:43:dc:55:49:e4:12:96:28:e8:b7:ab:d4:
                    a2:88:d2:36:25:b7:ff:c1:64:ad:40:d7:36:1f:66:
                    f9:73:99:b0:56:d8:d8:0e:c1:eb:93:23:30:bb:30:
                    27:c6:ba:21:1e:7e:3d:dc:15:76:2a:ae:10:32:57:
                    ca:d4:9f:a4:5c:6d:f5:3a:4e:2f:7e:41:88:56:00:
                    e4:27:1a:fe:0c:af:af:99:cf:64:94:ed:78:95:74:
                    38:c9:17:7b:84:77:9d:88:4c:fe:78:b2:5d:4c:f4:
                    d4:01:2b:00:c3:33:fc:ba:4e:2f:4d:7e:66:c8:a3:
                    e4:9e:91:45:36:83:21:a6:69:30:74:b2:0e:9f:0d:
                    56:91:ce:7c:ac:78:c4:1f:82:20:ec:22:d7:b9:1f:
                    1c:e8:bc:3d:1e:ca:07:d3:47:41:e0:f2:c1:bf:9d:
                    94:09:ab:25:46:cc:36:d0:24:23:5a:77:7e:87:1d:
                    59:73:62:a1:87:86:e7:3c:43:a7:26:67:e2:c7:94:
                    ea:a1:55:a9:d9:bc:ca:9b:50:05:65:84:77:32:62:
                    d3:93:e7:03:ad:fc:11:b1:e5:4c:9c:92:cd:98:b3:
                    da:cc:44:2f:5a:22:94:d8:d5:79:80:57:79:20:ab:
                    87:9d
                Exponent: 65537 (0x10001)
        X509v3 extensions:
            X509v3 Basic Constraints: 
                CA:FALSE
            X509v3 Subject Key Identifier: 
                8D:63:29:70:EC:11:A3:BC:5A:C2:2E:06:01:7F:AB:F9:0A:E4:6D:AE
            X509v3 Authority Key Identifier: 
                keyid:02:E9:80:A4:3E:21:DB:F3:D3:7D:DA:FE:6E:91:B3:AD:E8:33:C2:AE
                DirName:/CN=team145-net
                serial:5E:A1:FB:C9:B6:71:5B:E4:D2:39:17:78:F7:3C:C1:6D:E0:B5:1B:78
            X509v3 Extended Key Usage: 
                TLS Web Client Authentication
            X509v3 Key Usage: 
                Digital Signature
    Signature Algorithm: sha256WithRSAEncryption
    Signature Value:
        81:cd:92:ca:2e:3c:1c:09:ce:3b:5e:ea:37:97:45:77:9a:59:
        cf:7d:f9:37:0a:44:3f:a3:d5:09:9e:90:f4:15:78:82:83:82:
        da:96:1a:7e:ff:11:d0:0e:e4:ab:3d:73:93:3d:b2:be:db:e5:
        1e:81:2b:df:95:43:b6:43:b7:05:9f:13:f0:af:43:7e:f6:c9:
        1d:37:33:f4:ce:24:22:c7:91:43:66:7f:a0:f1:95:0d:04:1f:
        68:fc:71:9d:ab:6e:c3:d7:9e:28:6a:3a:b4:56:80:fa:d9:f9:
        22:6f:68:b9:c9:7e:4a:b1:ae:f4:a6:fe:73:06:82:c9:bf:95:
        4d:72:e4:21:9d:d5:4c:e7:10:a5:96:bc:47:dc:17:b8:a6:a4:
        70:bc:a3:b6:09:d9:3a:22:85:be:0e:52:18:50:c3:24:65:4e:
        59:12:3e:8c:a9:0a:78:4f:20:b8:cb:b3:58:8d:0e:de:fb:87:
        08:2a:12:71:4a:41:ec:40:45:22:52:14:79:d3:43:1f:90:08:
        4a:e6:1e:07:02:af:19:06:ae:46:fb:bd:5e:86:82:49:33:4d:
        a7:0d:94:25:f9:2a:9c:be:28:44:3c:e2:55:27:38:8d:c7:30:
        8f:2e:00:9b:59:98:84:00:7c:75:a9:09:74:d2:86:0e:2e:50:
        aa:fc:c8:d4
-----BEGIN CERTIFICATE-----
MIIDXTCCAkWgAwIBAgIRALjapmLbzeChpqwVS9jYgc4wDQYJKoZIhvcNAQELBQAw
FjEUMBIGA1UEAwwLdGVhbTE0NS1uZXQwHhcNMjMxMTA0MTA0MzE0WhcNMjYxMDE5
MTA0MzE0WjAZMRcwFQYDVQQDDA50ZWFtMTQ1LWNsaWVudDCCASIwDQYJKoZIhvcN
AQEBBQADggEPADCCAQoCggEBANdSkFBQDRcylejqwwWLj4ieQ9xVSeQSlijot6vU
oojSNiW3/8FkrUDXNh9m+XOZsFbY2A7B65MjMLswJ8a6IR5+PdwVdiquEDJXytSf
pFxt9TpOL35BiFYA5Cca/gyvr5nPZJTteJV0OMkXe4R3nYhM/niyXUz01AErAMMz
/LpOL01+Zsij5J6RRTaDIaZpMHSyDp8NVpHOfKx4xB+CIOwi17kfHOi8PR7KB9NH
QeDywb+dlAmrJUbMNtAkI1p3focdWXNioYeG5zxDpyZn4seU6qFVqdm8yptQBWWE
dzJi05PnA638EbHlTJySzZiz2sxEL1oilNjVeYBXeSCrh50CAwEAAaOBojCBnzAJ
BgNVHRMEAjAAMB0GA1UdDgQWBBSNYylw7BGjvFrCLgYBf6v5CuRtrjBRBgNVHSME
SjBIgBQC6YCkPiHb89N92v5ukbOt6DPCrqEapBgwFjEUMBIGA1UEAwwLdGVhbTE0
NS1uZXSCFF6h+8m2cVvk0jkXePc8wW3gtRt4MBMGA1UdJQQMMAoGCCsGAQUFBwMC
MAsGA1UdDwQEAwIHgDANBgkqhkiG9w0BAQsFAAOCAQEAgc2Syi48HAnOO17qN5dF
d5pZz335NwpEP6PVCZ6Q9BV4goOC2pYafv8R0A7kqz1zkz2yvtvlHoEr35VDtkO3
BZ8T8K9DfvbJHTcz9M4kIseRQ2Z/oPGVDQQfaPxxnatuw9eeKGo6tFaA+tn5Im9o
ucl+SrGu9Kb+cwaCyb+VTXLkIZ3VTOcQpZa8R9wXuKakcLyjtgnZOiKFvg5SGFDD
JGVOWRI+jKkKeE8guMuzWI0O3vuHCCoScUpB7EBFIlIUedNDH5AISuYeBwKvGQau
Rvu9XoaCSTNNpw2UJfkqnL4oRDziVSc4jccwjy4Am1mYhAB8dakJdNKGDi5QqvzI
1A==
-----END CERTIFICATE-----
