Certificate:
    Data:
        Version: 3 (0x2)
        Serial Number:
            cb:0f:e5:be:9b:92:f7:c9:e7:db:2f:f6:60:ca:85:39
        Signature Algorithm: sha256WithRSAEncryption
        Issuer: CN=team145-net
        Validity
            Not Before: Nov  4 10:43:14 2023 GMT
            Not After : Oct 19 10:43:14 2026 GMT
        Subject: CN=team145-server
        Subject Public Key Info:
            Public Key Algorithm: rsaEncryption
                Public-Key: (2048 bit)
                Modulus:
                    00:ed:32:48:6a:59:73:bf:0f:68:24:a6:45:38:d3:
                    d6:e7:6d:bb:2c:22:4a:d8:84:f8:1b:fc:af:ab:03:
                    11:bd:e8:1c:bf:5d:70:c4:af:03:d5:fa:3d:33:26:
                    28:3d:3c:d5:94:7c:2f:7e:3c:86:d2:02:1b:6d:19:
                    fd:ca:9f:b6:54:38:85:ee:53:01:12:29:b7:c5:ee:
                    05:c6:4d:9d:6b:fe:bd:e1:90:b5:48:96:f4:df:d0:
                    45:f9:39:01:65:52:91:c0:f7:7c:ff:5a:1c:79:b1:
                    af:9a:f5:af:cf:0c:04:86:b6:60:30:ba:79:ea:1c:
                    b2:7f:0a:4d:e2:8e:38:81:a9:ad:2a:9d:98:87:62:
                    d6:a8:93:88:c0:3d:e2:f0:1d:ce:ca:36:ba:3a:89:
                    62:a2:b4:22:8d:5d:1a:a8:b5:58:8d:bc:74:c0:f3:
                    dd:cc:80:53:3d:89:3b:3e:aa:23:f5:3a:4c:6f:91:
                    2c:26:a7:87:6c:74:39:07:19:14:41:ee:94:28:e9:
                    7a:5b:1b:b2:2b:35:01:83:34:cc:27:c1:33:b5:00:
                    6f:82:8c:f4:e0:c1:2c:ce:a7:cf:e2:d8:23:92:f7:
                    12:3b:04:52:ef:90:ad:7e:7a:67:95:96:e0:6d:4e:
                    a8:bb:f8:3c:f2:51:b3:11:6b:01:6b:5e:4d:11:44:
                    9f:37
                Exponent: 65537 (0x10001)
        X509v3 extensions:
            X509v3 Basic Constraints: 
                CA:FALSE
            X509v3 Subject Key Identifier: 
                84:4D:D6:BC:7F:6E:0A:3F:D0:3A:BA:44:79:DB:EB:03:CB:10:1C:61
            X509v3 Authority Key Identifier: 
                keyid:02:E9:80:A4:3E:21:DB:F3:D3:7D:DA:FE:6E:91:B3:AD:E8:33:C2:AE
                DirName:/CN=team145-net
                serial:5E:A1:FB:C9:B6:71:5B:E4:D2:39:17:78:F7:3C:C1:6D:E0:B5:1B:78
            X509v3 Extended Key Usage: 
                TLS Web Server Authentication
            X509v3 Key Usage: 
                Digital Signature, Key Encipherment
            X509v3 Subject Alternative Name: 
                DNS:team145-server
    Signature Algorithm: sha256WithRSAEncryption
    Signature Value:
        3b:e2:03:01:50:9a:a0:87:7c:36:b9:2d:3a:cf:8c:e0:f8:7a:
        40:c8:f1:70:aa:f0:1f:1d:1c:8e:59:6c:c7:0d:2b:07:ad:14:
        ca:40:5a:4f:25:d0:a6:ca:43:ce:54:a5:01:29:94:9f:30:b6:
        a1:56:d0:4f:6d:b5:00:0f:9e:06:ec:92:6c:9b:e8:26:cd:6e:
        ee:69:4f:8f:e9:2f:0f:a0:d8:07:92:eb:7b:83:09:05:9d:2c:
        29:a3:66:68:5f:4d:b7:7c:f4:43:49:3b:9f:79:27:aa:d4:af:
        29:c0:05:f1:2b:a7:fe:1b:2a:cc:fe:1b:f0:dd:fb:30:58:8f:
        ae:c7:81:d1:8f:9c:4a:6a:5b:6d:d5:34:9e:e6:9a:ae:bd:35:
        fc:e3:5a:27:87:7c:bb:27:95:96:18:90:51:15:d5:ea:73:7e:
        51:7f:61:9b:e3:35:f6:20:66:f3:8d:57:c2:3b:d9:47:77:16:
        62:84:53:a3:9e:7e:65:c9:ed:6b:af:13:16:3e:34:53:0f:73:
        68:46:80:9f:97:11:0f:ac:a5:5b:7f:60:18:0b:39:ba:2e:8c:
        9c:e0:a1:d0:86:d5:2c:1e:1d:c9:c2:7e:12:88:b5:63:43:10:
        85:53:da:50:b4:52:16:1c:da:01:08:4a:cd:4b:17:fc:08:88:
        3c:cc:6b:48
-----BEGIN CERTIFICATE-----
MIIDeDCCAmCgAwIBAgIRAMsP5b6bkvfJ59sv9mDKhTkwDQYJKoZIhvcNAQELBQAw
FjEUMBIGA1UEAwwLdGVhbTE0NS1uZXQwHhcNMjMxMTA0MTA0MzE0WhcNMjYxMDE5
MTA0MzE0WjAZMRcwFQYDVQQDDA50ZWFtMTQ1LXNlcnZlcjCCASIwDQYJKoZIhvcN
AQEBBQADggEPADCCAQoCggEBAO0ySGpZc78PaCSmRTjT1udtuywiStiE+Bv8r6sD
Eb3oHL9dcMSvA9X6PTMmKD081ZR8L348htICG20Z/cqftlQ4he5TARIpt8XuBcZN
nWv+veGQtUiW9N/QRfk5AWVSkcD3fP9aHHmxr5r1r88MBIa2YDC6eeocsn8KTeKO
OIGprSqdmIdi1qiTiMA94vAdzso2ujqJYqK0Io1dGqi1WI28dMDz3cyAUz2JOz6q
I/U6TG+RLCanh2x0OQcZFEHulCjpelsbsis1AYM0zCfBM7UAb4KM9ODBLM6nz+LY
I5L3EjsEUu+QrX56Z5WW4G1OqLv4PPJRsxFrAWteTRFEnzcCAwEAAaOBvTCBujAJ
BgNVHRMEAjAAMB0GA1UdDgQWBBSETda8f24KP9A6ukR52+sDyxAcYTBRBgNVHSME
SjBIgBQC6YCkPiHb89N92v5ukbOt6DPCrqEapBgwFjEUMBIGA1UEAwwLdGVhbTE0
NS1uZXSCFF6h+8m2cVvk0jkXePc8wW3gtRt4MBMGA1UdJQQMMAoGCCsGAQUFBwMB
MAsGA1UdDwQEAwIFoDAZBgNVHREEEjAQgg50ZWFtMTQ1LXNlcnZlcjANBgkqhkiG
9w0BAQsFAAOCAQEAO+IDAVCaoId8NrktOs+M4Ph6QMjxcKrwHx0cjllsxw0rB60U
ykBaTyXQpspDzlSlASmUnzC2oVbQT221AA+eBuySbJvoJs1u7mlPj+kvD6DYB5Lr
e4MJBZ0sKaNmaF9Nt3z0Q0k7n3knqtSvKcAF8Sun/hsqzP4b8N37MFiPrseB0Y+c
SmpbbdU0nuaarr01/ONaJ4d8uyeVlhiQURXV6nN+UX9hm+M19iBm841XwjvZR3cW
YoRTo55+Zcnta68TFj40Uw9zaEaAn5cRD6ylW39gGAs5ui6MnOCh0IbVLB4dycJ+
Eoi1Y0MQhVPaULRSFhzaAQhKzUsX/AiIPMxrSA==
-----END CERTIFICATE-----
