Certificate:
    Data:
        Version: 3 (0x2)
        Serial Number:
            1b:d4:18:f3:fd:63:1a:d3:2d:89:ea:7a:f6:35:00:7e
        Signature Algorithm: sha256WithRSAEncryption
        Issuer: CN=team295-net
        Validity
            Not Before: Nov  4 11:33:46 2023 GMT
            Not After : Oct 19 11:33:46 2026 GMT
        Subject: CN=team295-server
        Subject Public Key Info:
            Public Key Algorithm: rsaEncryption
                Public-Key: (2048 bit)
                Modulus:
                    00:f7:5e:55:e0:e2:ce:04:d0:a3:2a:55:35:8e:a4:
                    9d:8e:16:0d:b0:0a:67:bd:81:48:25:37:f7:2c:08:
                    5c:49:02:3d:7f:94:46:d1:27:d8:73:92:49:d2:ca:
                    72:39:a0:eb:c1:f9:e9:7c:7c:1f:a8:21:f8:1d:97:
                    7e:1f:f7:26:b0:1d:63:5f:7e:c7:fb:f9:2d:73:5b:
                    2a:5e:0f:2f:ac:1a:cf:9c:40:a8:9e:98:8a:25:1e:
                    36:ee:5c:28:89:4a:0e:65:15:47:7c:e5:ec:fc:04:
                    cd:8e:df:5e:da:04:e0:f2:d2:ce:5e:88:8e:ca:13:
                    e3:69:70:c9:d9:af:d5:70:95:86:dd:0d:43:f1:fd:
                    1a:d9:fc:37:68:f9:88:e9:01:cb:51:c5:ea:3e:1d:
                    3f:76:89:94:33:5d:80:29:b2:a7:fe:ba:b1:c3:8d:
                    b2:9e:b4:bd:01:05:6e:d9:5d:43:5b:ca:de:01:9f:
                    21:5b:79:a9:b5:0c:f1:a4:8b:07:78:32:6b:a0:1a:
                    5b:92:18:62:44:c3:b9:72:70:49:51:55:ad:d8:bd:
                    e5:3e:87:74:5c:c3:f3:ca:ec:f3:84:5c:8e:79:0c:
                    89:05:57:e8:78:08:51:46:af:c9:49:40:c0:dc:41:
                    b7:96:de:ea:7d:7c:c5:12:57:73:31:8d:9f:55:97:
                    de:11
                Exponent: 65537 (0x10001)
        X509v3 extensions:
            X509v3 Basic Constraints: 
                CA:FALSE
            X509v3 Subject Key Identifier: 
                74:0C:21:86:9C:9B:19:33:88:9F:C4:E5:8A:E3:C9:3D:DD:3C:54:2F
            X509v3 Authority Key Identifier: 
                keyid:A7:56:D1:B1:F4:9A:1F:54:BC:BC:D3:52:07:BF:D9:F8:F0:97:3E:6E
                DirName:/CN=team295-net
                serial:5B:07:CB:88:79:D0:F7:88:A9:CE:9A:7F:53:61:52:67:97:9D:2C:84
            X509v3 Extended Key Usage: 
                TLS Web Server Authentication
            X509v3 Key Usage: 
                Digital Signature, Key Encipherment
            X509v3 Subject Alternative Name: 
                DNS:team295-server
    Signature Algorithm: sha256WithRSAEncryption
    Signature Value:
        4c:40:59:49:cb:cf:f8:53:cf:f2:4e:10:1b:f8:98:63:10:18:
        bf:8e:fc:b0:30:3e:ae:37:53:ed:60:5f:fa:3e:a7:c5:1c:53:
        9c:89:bd:e0:2b:f6:9d:86:79:02:05:67:c3:5f:7f:9f:5d:5e:
        53:3f:ed:3e:f6:bd:76:f5:ec:22:e0:f7:2c:b1:48:13:01:84:
        f0:55:f0:4d:2e:b1:86:27:a3:2f:ee:e9:5a:3f:a9:d2:39:2f:
        6a:9d:06:8a:4c:83:13:cb:a4:f1:f2:fb:25:96:ad:8b:94:34:
        7e:40:0b:d2:5f:94:09:5a:29:b9:9c:ec:38:2e:9d:aa:95:1e:
        94:48:93:08:a6:01:18:f6:92:36:34:ae:d9:51:41:9e:a1:85:
        5e:0b:58:8e:c9:57:79:fa:dc:b9:f5:db:0d:0b:a4:ec:68:00:
        80:6a:ff:8e:31:a6:74:fd:07:d5:e3:f6:af:1e:50:6e:e8:4b:
        08:9d:32:f1:56:29:27:5e:ba:27:e9:07:0b:94:3a:65:23:45:
        74:d0:f4:59:40:08:3b:98:37:47:3f:15:34:5f:ed:e4:e8:b7:
        b5:56:29:8c:61:02:3c:95:ed:1a:84:10:5f:09:3c:f8:c5:ff:
        5c:4c:ef:a6:7d:fe:b2:7d:dc:5c:d5:06:40:f9:e6:a6:a0:5c:
        42:d0:7f:c1
-----BEGIN CERTIFICATE-----
MIIDdzCCAl+gAwIBAgIQG9QY8/1jGtMtiep69jUAfjANBgkqhkiG9w0BAQsFADAW
MRQwEgYDVQQDDAt0ZWFtMjk1LW5ldDAeFw0yMzExMDQxMTMzNDZaFw0yNjEwMTkx
MTMzNDZaMBkxFzAVBgNVBAMMDnRlYW0yOTUtc2VydmVyMIIBIjANBgkqhkiG9w0B
AQEFAAOCAQ8AMIIBCgKCAQEA915V4OLOBNCjKlU1jqSdjhYNsApnvYFIJTf3LAhc
SQI9f5RG0SfYc5JJ0spyOaDrwfnpfHwfqCH4HZd+H/cmsB1jX37H+/ktc1sqXg8v
rBrPnEConpiKJR427lwoiUoOZRVHfOXs/ATNjt9e2gTg8tLOXoiOyhPjaXDJ2a/V
cJWG3Q1D8f0a2fw3aPmI6QHLUcXqPh0/domUM12AKbKn/rqxw42ynrS9AQVu2V1D
W8reAZ8hW3mptQzxpIsHeDJroBpbkhhiRMO5cnBJUVWt2L3lPod0XMPzyuzzhFyO
eQyJBVfoeAhRRq/JSUDA3EG3lt7qfXzFEldzMY2fVZfeEQIDAQABo4G9MIG6MAkG
A1UdEwQCMAAwHQYDVR0OBBYEFHQMIYacmxkziJ/E5YrjyT3dPFQvMFEGA1UdIwRK
MEiAFKdW0bH0mh9UvLzTUge/2fjwlz5uoRqkGDAWMRQwEgYDVQQDDAt0ZWFtMjk1
LW5ldIIUWwfLiHnQ94ipzpp/U2FSZ5edLIQwEwYDVR0lBAwwCgYIKwYBBQUHAwEw
CwYDVR0PBAQDAgWgMBkGA1UdEQQSMBCCDnRlYW0yOTUtc2VydmVyMA0GCSqGSIb3
DQEBCwUAA4IBAQBMQFlJy8/4U8/yThAb+JhjEBi/jvywMD6uN1PtYF/6PqfFHFOc
ib3gK/adhnkCBWfDX3+fXV5TP+0+9r129ewi4PcssUgTAYTwVfBNLrGGJ6Mv7ula
P6nSOS9qnQaKTIMTy6Tx8vsllq2LlDR+QAvSX5QJWim5nOw4Lp2qlR6USJMIpgEY
9pI2NK7ZUUGeoYVeC1iOyVd5+ty59dsNC6TsaACAav+OMaZ0/QfV4/avHlBu6EsI
nTLxViknXron6QcLlDplI0V00PRZQAg7mDdHPxU0X+3k6Le1VimMYQI8le0ahBBf
CTz4xf9cTO+mff6yfdxc1QZA+eamoFxC0H/B
-----END CERTIFICATE-----
