Certificate:
    Data:
        Version: 3 (0x2)
        Serial Number:
            92:ad:b1:7d:7c:b0:b9:23:4f:3f:1a:ea:d8:85:72:0a
        Signature Algorithm: sha256WithRSAEncryption
        Issuer: CN=team295-net
        Validity
            Not Before: Nov  4 10:46:05 2023 GMT
            Not After : Oct 19 10:46:05 2026 GMT
        Subject: CN=team295-server
        Subject Public Key Info:
            Public Key Algorithm: rsaEncryption
                Public-Key: (2048 bit)
                Modulus:
                    00:c8:dc:37:2e:04:86:83:13:4e:18:83:d9:98:2c:
                    b6:9f:0b:f1:31:21:b5:f5:65:b1:55:b1:40:de:54:
                    cd:33:17:c6:fa:32:d9:8a:54:bf:e5:97:aa:07:89:
                    f2:3b:c1:47:4b:84:1d:65:2f:c1:79:52:49:54:b3:
                    75:a2:ee:f1:e8:e7:74:5a:86:e5:2c:6a:ac:2d:bb:
                    00:93:35:9c:21:7c:e6:3b:4c:65:87:62:a5:37:37:
                    e4:eb:7b:c8:b6:8e:b2:58:d6:0a:20:fe:be:20:f5:
                    fd:44:6d:1f:b0:d4:a2:5e:e4:b1:c2:41:86:ec:d8:
                    32:cd:e7:99:94:29:69:bd:6a:9f:54:97:82:61:97:
                    41:65:98:80:ee:a5:55:36:10:d7:0b:d6:95:a3:44:
                    25:6f:2a:0f:cb:b1:1b:e0:d9:5c:ac:e1:1b:8c:fe:
                    98:67:5a:2f:39:f0:25:cf:31:37:92:d7:80:1b:0e:
                    f9:fe:bf:dd:f8:4d:f6:b2:23:07:2e:81:9b:ca:79:
                    a2:c3:c5:93:b3:3a:e9:08:10:f8:17:f5:69:ba:c0:
                    df:33:5d:b5:b1:9a:fa:ba:fd:a1:40:3d:10:68:36:
                    38:d1:76:84:4e:f1:8b:ef:a5:18:71:22:30:7b:a8:
                    7d:df:2d:6d:a0:e3:ac:c2:c9:ce:da:3b:cb:e5:38:
                    4a:d3
                Exponent: 65537 (0x10001)
        X509v3 extensions:
            X509v3 Basic Constraints: 
                CA:FALSE
            X509v3 Subject Key Identifier: 
                3F:55:C6:00:24:DF:FC:85:91:6A:3A:E2:80:FF:A9:28:68:48:7F:A4
            X509v3 Authority Key Identifier: 
                keyid:61:F4:FB:D1:55:8D:E4:60:F9:6F:E6:DD:C8:22:C9:A9:E5:7F:F7:8E
                DirName:/CN=team295-net
                serial:20:F4:DB:F2:BE:2B:26:88:8A:64:FA:D3:5E:5F:5C:47:BB:02:6C:EE
            X509v3 Extended Key Usage: 
                TLS Web Server Authentication
            X509v3 Key Usage: 
                Digital Signature, Key Encipherment
            X509v3 Subject Alternative Name: 
                DNS:team295-server
    Signature Algorithm: sha256WithRSAEncryption
    Signature Value:
        02:b7:9c:a9:d3:d0:59:d0:27:5b:13:10:d6:fd:4a:0a:a1:ce:
        8b:bc:d1:14:d3:21:19:a9:07:dd:65:b6:ad:5d:ae:af:54:78:
        45:4b:4e:1e:62:80:f5:90:bd:c0:1d:bc:17:71:22:f0:a1:6c:
        be:76:32:29:17:16:6b:87:7a:52:37:5e:a1:a5:91:b5:88:38:
        85:92:66:a5:b9:99:a7:96:cd:01:c8:59:47:15:32:9a:c2:f1:
        72:66:c6:18:fa:67:96:9b:8d:6c:ec:0c:fe:39:63:c3:77:e7:
        a6:fb:1a:74:50:9a:00:0d:94:14:a1:a7:c7:2c:b7:c4:33:50:
        f5:df:23:96:88:11:4b:1f:e4:40:9f:d2:70:f2:78:26:42:6c:
        80:18:9d:74:b4:c2:8c:81:bf:8f:5c:d5:97:72:c2:6c:48:51:
        3b:b0:fc:07:ad:1d:c0:41:b1:a4:f9:f2:b4:46:f3:0e:1d:99:
        f7:31:81:b5:0f:62:32:1c:d8:34:39:a6:0e:26:f4:f4:6a:e8:
        2a:ec:15:d6:81:71:53:c6:f2:4a:65:10:f0:8d:8d:04:3c:53:
        c5:85:64:12:50:13:d9:f9:97:16:0e:76:86:cf:11:82:60:95:
        b2:44:d3:31:01:3c:97:08:2e:5e:c3:c0:df:59:af:b8:10:4e:
        66:bf:1d:66
-----BEGIN CERTIFICATE-----
MIIDeDCCAmCgAwIBAgIRAJKtsX18sLkjTz8a6tiFcgowDQYJKoZIhvcNAQELBQAw
FjEUMBIGA1UEAwwLdGVhbTI5NS1uZXQwHhcNMjMxMTA0MTA0NjA1WhcNMjYxMDE5
MTA0NjA1WjAZMRcwFQYDVQQDDA50ZWFtMjk1LXNlcnZlcjCCASIwDQYJKoZIhvcN
AQEBBQADggEPADCCAQoCggEBAMjcNy4EhoMTThiD2Zgstp8L8TEhtfVlsVWxQN5U
zTMXxvoy2YpUv+WXqgeJ8jvBR0uEHWUvwXlSSVSzdaLu8ejndFqG5SxqrC27AJM1
nCF85jtMZYdipTc35Ot7yLaOsljWCiD+viD1/URtH7DUol7kscJBhuzYMs3nmZQp
ab1qn1SXgmGXQWWYgO6lVTYQ1wvWlaNEJW8qD8uxG+DZXKzhG4z+mGdaLznwJc8x
N5LXgBsO+f6/3fhN9rIjBy6Bm8p5osPFk7M66QgQ+Bf1abrA3zNdtbGa+rr9oUA9
EGg2ONF2hE7xi++lGHEiMHuofd8tbaDjrMLJzto7y+U4StMCAwEAAaOBvTCBujAJ
BgNVHRMEAjAAMB0GA1UdDgQWBBQ/VcYAJN/8hZFqOuKA/6koaEh/pDBRBgNVHSME
SjBIgBRh9PvRVY3kYPlv5t3IIsmp5X/3jqEapBgwFjEUMBIGA1UEAwwLdGVhbTI5
NS1uZXSCFCD02/K+KyaIimT6015fXEe7AmzuMBMGA1UdJQQMMAoGCCsGAQUFBwMB
MAsGA1UdDwQEAwIFoDAZBgNVHREEEjAQgg50ZWFtMjk1LXNlcnZlcjANBgkqhkiG
9w0BAQsFAAOCAQEAArecqdPQWdAnWxMQ1v1KCqHOi7zRFNMhGakH3WW2rV2ur1R4
RUtOHmKA9ZC9wB28F3Ei8KFsvnYyKRcWa4d6UjdeoaWRtYg4hZJmpbmZp5bNAchZ
RxUymsLxcmbGGPpnlpuNbOwM/jljw3fnpvsadFCaAA2UFKGnxyy3xDNQ9d8jlogR
Sx/kQJ/ScPJ4JkJsgBiddLTCjIG/j1zVl3LCbEhRO7D8B60dwEGxpPnytEbzDh2Z
9zGBtQ9iMhzYNDmmDib09GroKuwV1oFxU8bySmUQ8I2NBDxTxYVkElAT2fmXFg52
hs8RgmCVskTTMQE8lwguXsPA31mvuBBOZr8dZg==
-----END CERTIFICATE-----
