Certificate:
    Data:
        Version: 3 (0x2)
        Serial Number:
            aa:41:92:c5:61:f8:28:e2:71:09:b8:b7:44:bd:f4:91
        Signature Algorithm: sha256WithRSAEncryption
        Issuer: CN=team295-net
        Validity
            Not Before: Nov  4 11:33:46 2023 GMT
            Not After : Oct 19 11:33:46 2026 GMT
        Subject: CN=team295-client
        Subject Public Key Info:
            Public Key Algorithm: rsaEncryption
                Public-Key: (2048 bit)
                Modulus:
                    00:d9:33:8a:d9:f6:1b:40:c0:15:96:2b:b4:cf:9b:
                    36:12:e0:bd:4c:59:00:bc:60:cd:e2:e9:d5:ee:e5:
                    d9:06:46:b5:14:57:14:66:14:d6:48:1c:df:32:3e:
                    57:75:71:42:42:28:d3:09:0b:27:9e:3c:fd:6a:87:
                    e3:0e:4e:6e:71:8e:0a:f9:fd:5e:54:fc:ac:ca:b2:
                    c8:65:a7:db:91:87:2c:c0:08:3f:35:eb:ef:4a:58:
                    99:ba:b7:cd:f7:e3:17:59:ea:1b:cb:39:15:9a:06:
                    52:5a:da:72:84:8d:47:a1:9e:4f:d9:8a:9a:20:8f:
                    f3:c2:92:ef:ee:ae:47:3b:42:31:79:c8:c1:0f:73:
                    cd:5b:c8:ef:ed:52:bd:a1:ce:29:7b:bb:69:52:90:
                    92:ac:6a:21:30:f7:97:68:fb:ba:42:9a:fb:90:25:
                    68:3b:2e:3d:f5:1f:a2:4d:f9:83:80:31:db:0f:68:
                    35:31:ca:1e:73:83:9a:93:02:45:3d:ae:59:3e:b9:
                    c7:2e:32:2f:3d:65:ad:cc:9d:a3:ed:4c:75:b9:fb:
                    4b:90:a6:62:c3:ec:1c:fe:c5:ce:20:14:07:4d:a0:
                    ca:1d:2e:d3:af:a4:66:d2:a1:18:54:91:c6:dc:cf:
                    6a:fa:55:d9:a3:89:4d:47:ab:31:8c:d2:39:d8:9f:
                    3a:65
                Exponent: 65537 (0x10001)
        X509v3 extensions:
            X509v3 Basic Constraints: 
                CA:FALSE
            X509v3 Subject Key Identifier: 
                E0:FB:3A:9C:1B:8B:2A:9D:3D:D5:01:15:77:EC:93:99:3F:83:2D:AD
            X509v3 Authority Key Identifier: 
                keyid:A7:56:D1:B1:F4:9A:1F:54:BC:BC:D3:52:07:BF:D9:F8:F0:97:3E:6E
                DirName:/CN=team295-net
                serial:5B:07:CB:88:79:D0:F7:88:A9:CE:9A:7F:53:61:52:67:97:9D:2C:84
            X509v3 Extended Key Usage: 
                TLS Web Client Authentication
            X509v3 Key Usage: 
                Digital Signature
    Signature Algorithm: sha256WithRSAEncryption
    Signature Value:
        78:f6:74:85:b3:b0:cc:43:a9:15:3f:45:17:5f:f3:9b:de:46:
        d9:b4:76:01:45:f9:bb:67:89:e2:93:16:27:67:3a:ab:83:4a:
        c2:cc:bd:c4:1e:6a:95:54:bd:48:98:72:68:5e:c1:d6:5a:1b:
        0c:47:ac:0f:8f:84:3c:87:fd:21:fd:d9:78:19:f6:dd:0c:54:
        54:16:91:7c:53:9f:32:a4:33:83:04:8c:77:c6:1d:ad:73:1d:
        2f:b1:23:e7:e0:c7:a8:3c:13:b8:35:5c:51:2f:0e:df:0d:e8:
        d9:92:6b:b3:be:a2:bc:46:e7:7b:bb:a4:4f:4f:60:ec:66:fb:
        58:b7:2f:44:e9:2b:ba:46:d5:71:95:5b:2b:f4:8d:ba:b5:91:
        a1:e4:5e:1e:ec:9c:20:5b:d6:d7:c8:41:97:d9:e1:83:06:a0:
        89:51:c9:b8:1f:5d:6b:f2:b4:b2:e3:33:fa:73:a4:3d:54:e9:
        de:52:33:cf:ab:1d:e5:78:a8:55:18:30:d6:b3:75:9f:60:f3:
        4c:05:e8:c4:cf:90:17:c9:15:56:3f:79:60:8e:19:8f:a2:bc:
        fb:a0:33:f1:c4:23:96:c6:25:c8:2a:2b:a4:6e:9e:71:49:bd:
        c1:72:6e:cb:95:ff:37:dc:e0:88:40:ca:5b:c3:f3:36:bc:c6:
        1b:0c:14:d7
-----BEGIN CERTIFICATE-----
MIIDXTCCAkWgAwIBAgIRAKpBksVh+CjicQm4t0S99JEwDQYJKoZIhvcNAQELBQAw
FjEUMBIGA1UEAwwLdGVhbTI5NS1uZXQwHhcNMjMxMTA0MTEzMzQ2WhcNMjYxMDE5
MTEzMzQ2WjAZMRcwFQYDVQQDDA50ZWFtMjk1LWNsaWVudDCCASIwDQYJKoZIhvcN
AQEBBQADggEPADCCAQoCggEBANkzitn2G0DAFZYrtM+bNhLgvUxZALxgzeLp1e7l
2QZGtRRXFGYU1kgc3zI+V3VxQkIo0wkLJ548/WqH4w5ObnGOCvn9XlT8rMqyyGWn
25GHLMAIPzXr70pYmbq3zffjF1nqG8s5FZoGUlracoSNR6GeT9mKmiCP88KS7+6u
RztCMXnIwQ9zzVvI7+1SvaHOKXu7aVKQkqxqITD3l2j7ukKa+5AlaDsuPfUfok35
g4Ax2w9oNTHKHnODmpMCRT2uWT65xy4yLz1lrcydo+1Mdbn7S5CmYsPsHP7FziAU
B02gyh0u06+kZtKhGFSRxtzPavpV2aOJTUerMYzSOdifOmUCAwEAAaOBojCBnzAJ
BgNVHRMEAjAAMB0GA1UdDgQWBBTg+zqcG4sqnT3VARV37JOZP4MtrTBRBgNVHSME
SjBIgBSnVtGx9JofVLy801IHv9n48Jc+bqEapBgwFjEUMBIGA1UEAwwLdGVhbTI5
NS1uZXSCFFsHy4h50PeIqc6af1NhUmeXnSyEMBMGA1UdJQQMMAoGCCsGAQUFBwMC
MAsGA1UdDwQEAwIHgDANBgkqhkiG9w0BAQsFAAOCAQEAePZ0hbOwzEOpFT9FF1/z
m95G2bR2AUX5u2eJ4pMWJ2c6q4NKwsy9xB5qlVS9SJhyaF7B1lobDEesD4+EPIf9
If3ZeBn23QxUVBaRfFOfMqQzgwSMd8YdrXMdL7Ej5+DHqDwTuDVcUS8O3w3o2ZJr
s76ivEbne7ukT09g7Gb7WLcvROkrukbVcZVbK/SNurWRoeReHuycIFvW18hBl9nh
gwagiVHJuB9da/K0suMz+nOkPVTp3lIzz6sd5XioVRgw1rN1n2DzTAXoxM+QF8kV
Vj95YI4Zj6K8+6Az8cQjlsYlyCorpG6ecUm9wXJuy5X/N9zgiEDKW8PzNrzGGwwU
1w==
-----END CERTIFICATE-----
