Certificate:
    Data:
        Version: 3 (0x2)
        Serial Number:
            d8:f3:97:5f:51:2f:0c:45:8d:55:fe:7b:db:9e:e5:22
        Signature Algorithm: sha256WithRSAEncryption
        Issuer: CN=team295-net
        Validity
            Not Before: Nov  3 20:44:39 2023 GMT
            Not After : Oct 18 20:44:39 2026 GMT
        Subject: CN=team295-server
        Subject Public Key Info:
            Public Key Algorithm: rsaEncryption
                Public-Key: (2048 bit)
                Modulus:
                    00:ad:ed:a0:20:da:e1:03:04:b7:c3:bf:d1:06:7a:
                    32:ed:8e:3f:96:5c:d1:eb:90:f1:a0:d0:a2:52:46:
                    11:b9:d1:f9:17:18:38:75:da:22:2e:29:07:eb:3f:
                    4b:e5:4e:64:38:27:9a:75:40:9d:a8:de:9d:cb:21:
                    6b:79:79:25:8d:2f:7f:b9:6c:eb:e9:b7:01:03:f3:
                    db:3f:6d:9b:a5:8a:af:f6:fe:28:33:de:0c:6c:63:
                    a8:9b:17:4e:6b:72:ef:90:5e:32:79:f2:fe:c7:e4:
                    7a:4d:4a:a3:47:6e:d2:d1:4b:d8:d8:b8:87:fd:c7:
                    fd:bf:3a:5c:60:5a:94:e0:b7:4c:ba:e9:5a:81:50:
                    85:86:dc:c4:56:0c:90:3a:be:07:3b:90:70:91:81:
                    cc:86:74:1b:f0:f8:aa:92:ba:e6:90:ab:bf:59:3e:
                    e4:83:60:25:a4:53:53:6c:7a:f3:eb:0b:b9:28:57:
                    84:fb:e6:3d:3a:81:3c:d1:6a:0b:96:86:24:94:84:
                    54:09:c1:7d:a6:c7:07:f9:87:67:c8:82:34:ca:ee:
                    fe:af:c9:d1:a5:d8:66:13:f9:d7:86:45:af:03:02:
                    c5:88:2a:13:58:2b:11:11:f5:7b:08:f1:13:21:87:
                    b2:4a:86:38:08:ef:78:f0:e3:ab:ff:38:4a:ae:2f:
                    36:6f
                Exponent: 65537 (0x10001)
        X509v3 extensions:
            X509v3 Basic Constraints: 
                CA:FALSE
            X509v3 Subject Key Identifier: 
                92:0C:2C:65:3F:45:83:AA:A1:91:7D:07:84:09:3A:E2:2E:94:A7:26
            X509v3 Authority Key Identifier: 
                keyid:41:84:77:71:97:2F:EB:71:39:CE:37:5D:00:A3:17:96:08:97:44:D0
                DirName:/CN=team295-net
                serial:39:94:71:23:1E:F0:95:CD:99:B6:F6:2E:23:7E:A7:F3:F0:81:F0:09
            X509v3 Extended Key Usage: 
                TLS Web Server Authentication
            X509v3 Key Usage: 
                Digital Signature, Key Encipherment
            X509v3 Subject Alternative Name: 
                DNS:team295-server
    Signature Algorithm: sha256WithRSAEncryption
    Signature Value:
        67:4b:45:ad:cd:ea:95:bd:13:61:45:c3:16:c1:0b:89:9b:e5:
        bd:b3:7b:c4:b1:d9:93:48:6a:37:da:4b:e2:df:fc:3a:b5:5b:
        9d:69:6e:c5:bb:69:d4:9d:ff:92:09:c2:c0:aa:52:e7:47:94:
        0c:d4:6f:17:89:be:60:29:e8:9d:26:22:64:47:d9:02:74:d9:
        c1:69:d2:5b:52:37:34:77:46:37:66:ed:d5:2d:52:f1:a7:e0:
        da:57:52:71:3b:fc:4b:10:87:da:18:b0:c6:d9:8a:d8:bd:47:
        01:cf:8d:a1:08:a5:a5:45:44:77:10:7c:d6:8c:07:b7:6e:83:
        78:f6:37:49:d2:08:ff:c3:c4:42:b6:43:7d:79:77:de:e1:38:
        d2:16:fe:47:b9:5a:ed:25:da:f3:80:a3:c2:bc:4b:14:a8:2f:
        df:d1:58:41:bf:b4:0c:e0:c0:3a:5a:ac:e7:dd:50:2f:ee:94:
        0b:a6:56:af:88:02:65:2b:27:1b:d7:6d:18:5a:33:e6:e9:fb:
        b9:5a:f4:00:db:33:55:75:17:7b:da:a0:f2:09:42:20:64:60:
        df:f2:a7:23:fa:f0:82:56:bc:e1:f1:fc:6a:ee:a6:05:8f:47:
        7c:da:bd:3e:f3:ec:04:ba:f3:92:0d:7f:32:1a:0e:b4:5d:4c:
        41:4e:fe:3a
-----BEGIN CERTIFICATE-----
MIIDeDCCAmCgAwIBAgIRANjzl19RLwxFjVX+e9ue5SIwDQYJKoZIhvcNAQELBQAw
FjEUMBIGA1UEAwwLdGVhbTI5NS1uZXQwHhcNMjMxMTAzMjA0NDM5WhcNMjYxMDE4
MjA0NDM5WjAZMRcwFQYDVQQDDA50ZWFtMjk1LXNlcnZlcjCCASIwDQYJKoZIhvcN
AQEBBQADggEPADCCAQoCggEBAK3toCDa4QMEt8O/0QZ6Mu2OP5Zc0euQ8aDQolJG
EbnR+RcYOHXaIi4pB+s/S+VOZDgnmnVAnajencsha3l5JY0vf7ls6+m3AQPz2z9t
m6WKr/b+KDPeDGxjqJsXTmty75BeMnny/sfkek1Ko0du0tFL2Ni4h/3H/b86XGBa
lOC3TLrpWoFQhYbcxFYMkDq+BzuQcJGBzIZ0G/D4qpK65pCrv1k+5INgJaRTU2x6
8+sLuShXhPvmPTqBPNFqC5aGJJSEVAnBfabHB/mHZ8iCNMru/q/J0aXYZhP514ZF
rwMCxYgqE1grERH1ewjxEyGHskqGOAjvePDjq/84Sq4vNm8CAwEAAaOBvTCBujAJ
BgNVHRMEAjAAMB0GA1UdDgQWBBSSDCxlP0WDqqGRfQeECTriLpSnJjBRBgNVHSME
SjBIgBRBhHdxly/rcTnON10AoxeWCJdE0KEapBgwFjEUMBIGA1UEAwwLdGVhbTI5
NS1uZXSCFDmUcSMe8JXNmbb2LiN+p/PwgfAJMBMGA1UdJQQMMAoGCCsGAQUFBwMB
MAsGA1UdDwQEAwIFoDAZBgNVHREEEjAQgg50ZWFtMjk1LXNlcnZlcjANBgkqhkiG
9w0BAQsFAAOCAQEAZ0tFrc3qlb0TYUXDFsELiZvlvbN7xLHZk0hqN9pL4t/8OrVb
nWluxbtp1J3/kgnCwKpS50eUDNRvF4m+YCnonSYiZEfZAnTZwWnSW1I3NHdGN2bt
1S1S8afg2ldScTv8SxCH2hiwxtmK2L1HAc+NoQilpUVEdxB81owHt26DePY3SdII
/8PEQrZDfXl33uE40hb+R7la7SXa84CjwrxLFKgv39FYQb+0DODAOlqs591QL+6U
C6ZWr4gCZSsnG9dtGFoz5un7uVr0ANszVXUXe9qg8glCIGRg3/KnI/rwgla84fH8
au6mBY9HfNq9PvPsBLrzkg1/MhoOtF1MQU7+Og==
-----END CERTIFICATE-----
