Certificate:
    Data:
        Version: 3 (0x2)
        Serial Number:
            30:c1:c2:16:99:29:b7:41:82:4e:ab:82:0d:e9:24:92
        Signature Algorithm: sha256WithRSAEncryption
        Issuer: CN=team387-net
        Validity
            Not Before: Nov  4 11:36:10 2023 GMT
            Not After : Oct 19 11:36:10 2026 GMT
        Subject: CN=team387-client
        Subject Public Key Info:
            Public Key Algorithm: rsaEncryption
                Public-Key: (2048 bit)
                Modulus:
                    00:d7:47:ef:de:9d:5b:37:ac:3a:ff:f6:e8:8d:cb:
                    a6:b3:b9:f9:5a:73:c9:67:3b:ac:fb:18:ce:ec:fc:
                    24:ff:2b:cf:51:94:56:eb:a9:ad:fa:29:69:0c:10:
                    f5:6c:a8:8c:c9:50:8c:84:81:a9:27:83:d3:52:f0:
                    71:c2:46:0f:6a:6c:80:57:b0:63:5c:25:d8:97:07:
                    4b:ad:a4:ba:a5:3e:a1:1e:d4:3c:c6:67:65:0b:cb:
                    5f:72:5d:ac:96:b4:69:92:23:04:9b:8d:17:63:63:
                    01:ab:df:a9:fe:6b:da:92:c9:9a:64:c7:df:9e:8a:
                    89:af:9e:28:47:b6:da:9b:11:c7:f6:11:7b:1f:2f:
                    df:fd:64:dd:1f:0a:05:a7:53:46:df:19:46:6a:2b:
                    a4:c9:ba:73:51:10:40:75:fd:55:ab:d2:bd:f0:5e:
                    4c:5d:df:9a:16:84:7d:ea:fb:d4:95:3b:40:fa:4f:
                    62:32:95:09:11:5d:58:9a:5b:06:40:54:70:a5:64:
                    3e:c8:b7:cb:28:0a:5e:4c:5f:f8:b8:26:98:06:59:
                    76:a1:15:7c:66:56:f8:7f:42:b9:9b:7b:42:e0:d5:
                    2f:83:25:93:80:9b:6f:b4:cc:50:42:eb:f7:0e:29:
                    1c:95:8f:ad:bc:c5:5f:4b:1f:f0:ce:6c:a7:13:23:
                    19:25
                Exponent: 65537 (0x10001)
        X509v3 extensions:
            X509v3 Basic Constraints: 
                CA:FALSE
            X509v3 Subject Key Identifier: 
                64:98:CD:F0:C3:B9:12:8E:F7:9C:6F:89:DA:84:10:53:08:FC:95:EE
            X509v3 Authority Key Identifier: 
                keyid:40:D1:68:6E:2F:09:DD:65:C4:73:66:8F:AF:62:9C:2A:6C:13:A6:F3
                DirName:/CN=team387-net
                serial:44:F9:CD:59:9F:4A:F1:43:18:7D:6A:22:9E:D0:7D:EF:55:5C:2B:AB
            X509v3 Extended Key Usage: 
                TLS Web Client Authentication
            X509v3 Key Usage: 
                Digital Signature
    Signature Algorithm: sha256WithRSAEncryption
    Signature Value:
        7f:74:7c:d8:f1:bb:53:8f:20:7a:7f:37:d8:90:90:6e:35:85:
        da:67:4b:99:e2:a5:d0:ce:21:80:b4:f7:3f:d3:4b:fc:71:d2:
        64:0f:3b:d0:ba:2b:92:42:74:b9:20:ce:a0:46:c6:86:cf:0b:
        9d:d6:12:27:72:da:89:21:49:e1:da:f1:e6:0a:ab:f2:ea:3f:
        9f:8b:03:16:e9:04:c4:64:c4:2d:25:5c:27:13:5a:ae:98:66:
        61:46:b5:30:e5:0f:e5:53:44:1b:79:29:a0:eb:99:ca:da:c9:
        e0:e5:8d:01:a5:4a:a1:81:e5:1b:26:68:58:45:43:7a:32:43:
        3f:2b:31:59:e7:28:8a:be:d0:a7:f1:8d:97:2b:b2:2b:e8:d4:
        1e:24:05:c9:13:ee:2f:51:14:c3:95:79:0d:ec:e2:2a:15:67:
        06:80:3d:6d:29:4d:ab:20:8a:51:9b:0a:a7:38:b3:cd:7e:6f:
        7f:17:45:6c:10:0c:d9:49:54:9e:50:50:30:c1:8e:3a:a8:e6:
        70:88:59:55:71:9d:b6:bb:01:92:de:55:e6:b7:52:81:c3:2f:
        c3:4c:27:86:e1:92:bd:73:2d:56:2d:94:7d:a0:56:b9:de:a6:
        ec:ec:5c:8a:0a:4f:4a:76:e7:9d:af:76:81:6c:8b:0d:d1:9f:
        4f:bd:0c:ed
-----BEGIN CERTIFICATE-----
MIIDXDCCAkSgAwIBAgIQMMHCFpkpt0GCTquCDekkkjANBgkqhkiG9w0BAQsFADAW
MRQwEgYDVQQDDAt0ZWFtMzg3LW5ldDAeFw0yMzExMDQxMTM2MTBaFw0yNjEwMTkx
MTM2MTBaMBkxFzAVBgNVBAMMDnRlYW0zODctY2xpZW50MIIBIjANBgkqhkiG9w0B
AQEFAAOCAQ8AMIIBCgKCAQEA10fv3p1bN6w6//bojcums7n5WnPJZzus+xjO7Pwk
/yvPUZRW66mt+ilpDBD1bKiMyVCMhIGpJ4PTUvBxwkYPamyAV7BjXCXYlwdLraS6
pT6hHtQ8xmdlC8tfcl2slrRpkiMEm40XY2MBq9+p/mvaksmaZMffnoqJr54oR7ba
mxHH9hF7Hy/f/WTdHwoFp1NG3xlGaiukybpzURBAdf1Vq9K98F5MXd+aFoR96vvU
lTtA+k9iMpUJEV1YmlsGQFRwpWQ+yLfLKApeTF/4uCaYBll2oRV8Zlb4f0K5m3tC
4NUvgyWTgJtvtMxQQuv3DikclY+tvMVfSx/wzmynEyMZJQIDAQABo4GiMIGfMAkG
A1UdEwQCMAAwHQYDVR0OBBYEFGSYzfDDuRKO95xvidqEEFMI/JXuMFEGA1UdIwRK
MEiAFEDRaG4vCd1lxHNmj69inCpsE6bzoRqkGDAWMRQwEgYDVQQDDAt0ZWFtMzg3
LW5ldIIURPnNWZ9K8UMYfWointB971VcK6swEwYDVR0lBAwwCgYIKwYBBQUHAwIw
CwYDVR0PBAQDAgeAMA0GCSqGSIb3DQEBCwUAA4IBAQB/dHzY8btTjyB6fzfYkJBu
NYXaZ0uZ4qXQziGAtPc/00v8cdJkDzvQuiuSQnS5IM6gRsaGzwud1hInctqJIUnh
2vHmCqvy6j+fiwMW6QTEZMQtJVwnE1qumGZhRrUw5Q/lU0QbeSmg65nK2sng5Y0B
pUqhgeUbJmhYRUN6MkM/KzFZ5yiKvtCn8Y2XK7Ir6NQeJAXJE+4vURTDlXkN7OIq
FWcGgD1tKU2rIIpRmwqnOLPNfm9/F0VsEAzZSVSeUFAwwY46qOZwiFlVcZ22uwGS
3lXmt1KBwy/DTCeG4ZK9cy1WLZR9oFa53qbs7FyKCk9Kduedr3aBbIsN0Z9PvQzt
-----END CERTIFICATE-----
