Certificate:
    Data:
        Version: 3 (0x2)
        Serial Number:
            62:36:69:10:83:b3:82:4d:b4:77:d0:66:5b:d9:f0:84
        Signature Algorithm: sha256WithRSAEncryption
        Issuer: CN=team387-net
        Validity
            Not Before: Nov  4 10:47:38 2023 GMT
            Not After : Oct 19 10:47:38 2026 GMT
        Subject: CN=team387-server
        Subject Public Key Info:
            Public Key Algorithm: rsaEncryption
                Public-Key: (2048 bit)
                Modulus:
                    00:c9:aa:49:c0:48:be:19:a4:de:2a:df:99:a0:fe:
                    a0:b2:eb:3f:2f:a1:6d:16:6d:1f:85:17:a6:6d:e5:
                    c2:e1:47:76:c0:6d:fa:bd:d7:61:33:a3:17:01:a4:
                    ca:04:1b:e9:c9:05:3d:5b:84:df:8a:1c:66:e8:43:
                    3a:f5:7b:04:76:1b:6a:db:8f:11:ec:34:e9:72:36:
                    6c:25:be:de:36:1d:7c:ba:7c:a6:bf:b7:90:ba:49:
                    de:9d:bf:fe:fe:87:95:72:1f:06:4e:57:1e:b3:e7:
                    0f:1c:4c:ca:6b:db:4b:20:a6:6d:fd:40:a6:18:dc:
                    82:04:07:60:12:6b:74:30:8d:ed:46:eb:01:7a:d1:
                    8d:01:1a:54:e3:db:c1:58:52:62:3a:96:21:8c:80:
                    48:35:20:a7:2c:25:f7:c3:ac:da:25:2f:71:15:f3:
                    19:4c:b9:98:18:aa:b5:7b:e7:aa:8f:ec:c5:93:8b:
                    d0:97:e8:58:94:48:ae:99:a0:b2:e6:39:a9:e9:41:
                    cc:8f:36:9e:44:f0:86:aa:10:06:fb:ca:29:32:a0:
                    16:45:2e:ab:6e:4b:9a:ff:f3:11:2a:bb:a7:d7:1c:
                    fd:ce:63:14:40:47:0b:62:76:e6:fa:f2:02:1e:c7:
                    4c:c7:8b:f7:c7:7e:b9:c8:bb:e1:bf:db:55:66:93:
                    bc:67
                Exponent: 65537 (0x10001)
        X509v3 extensions:
            X509v3 Basic Constraints: 
                CA:FALSE
            X509v3 Subject Key Identifier: 
                83:DE:21:0A:3E:DE:6A:47:0B:4C:32:32:71:E9:1E:BB:89:F2:56:93
            X509v3 Authority Key Identifier: 
                keyid:11:95:24:BC:C6:15:2F:AE:E6:1C:E2:F3:17:C1:E3:B2:4D:6D:FC:2D
                DirName:/CN=team387-net
                serial:5F:36:60:C8:89:3E:3C:68:D2:C1:5A:73:77:50:BB:8F:58:FA:BD:63
            X509v3 Extended Key Usage: 
                TLS Web Server Authentication
            X509v3 Key Usage: 
                Digital Signature, Key Encipherment
            X509v3 Subject Alternative Name: 
                DNS:team387-server
    Signature Algorithm: sha256WithRSAEncryption
    Signature Value:
        62:38:47:8a:13:70:60:95:e9:ff:d1:fe:e3:d6:64:75:22:35:
        98:ff:c2:cb:38:86:85:52:f8:d4:1c:7f:1d:b8:03:a6:cb:a7:
        33:a1:ff:0b:72:da:1e:f3:28:db:18:e1:4c:5e:15:5d:2e:22:
        91:76:aa:fc:8d:f1:83:25:35:a9:6b:35:a8:95:a2:36:c8:d0:
        ec:94:06:7f:79:2b:b9:9d:04:5a:ea:12:1e:20:f3:ed:83:6b:
        69:7e:6c:28:fe:3a:9a:55:c6:66:72:06:8f:c9:de:67:bc:e2:
        fa:68:0d:5b:a7:f5:2f:ea:01:19:d9:0c:02:bb:88:dd:2c:a9:
        fa:b4:fb:a0:07:fd:8d:d7:c8:a0:4b:f1:aa:a8:35:e8:6a:6e:
        46:c9:1a:15:d5:4e:56:df:ea:33:11:05:11:41:8d:ec:fd:ec:
        9d:7f:9a:08:89:c8:0b:1f:99:b3:87:01:41:76:4f:2c:ac:12:
        6a:87:ac:68:51:f4:54:4c:3a:d3:2e:19:3e:71:42:2e:4c:f7:
        83:ce:b9:f6:db:85:51:56:ac:56:57:f7:83:b0:0e:32:00:ae:
        76:f6:b4:9b:94:7a:1e:9b:2f:c1:84:0b:e0:3b:fb:4f:20:f9:
        11:e8:94:0f:03:2b:08:df:d7:c0:6e:52:a8:db:2e:80:d5:b2:
        76:26:b7:f7
-----BEGIN CERTIFICATE-----
MIIDdzCCAl+gAwIBAgIQYjZpEIOzgk20d9BmW9nwhDANBgkqhkiG9w0BAQsFADAW
MRQwEgYDVQQDDAt0ZWFtMzg3LW5ldDAeFw0yMzExMDQxMDQ3MzhaFw0yNjEwMTkx
MDQ3MzhaMBkxFzAVBgNVBAMMDnRlYW0zODctc2VydmVyMIIBIjANBgkqhkiG9w0B
AQEFAAOCAQ8AMIIBCgKCAQEAyapJwEi+GaTeKt+ZoP6gsus/L6FtFm0fhRembeXC
4Ud2wG36vddhM6MXAaTKBBvpyQU9W4Tfihxm6EM69XsEdhtq248R7DTpcjZsJb7e
Nh18unymv7eQuknenb/+/oeVch8GTlces+cPHEzKa9tLIKZt/UCmGNyCBAdgEmt0
MI3tRusBetGNARpU49vBWFJiOpYhjIBINSCnLCX3w6zaJS9xFfMZTLmYGKq1e+eq
j+zFk4vQl+hYlEiumaCy5jmp6UHMjzaeRPCGqhAG+8opMqAWRS6rbkua//MRKrun
1xz9zmMUQEcLYnbm+vICHsdMx4v3x365yLvhv9tVZpO8ZwIDAQABo4G9MIG6MAkG
A1UdEwQCMAAwHQYDVR0OBBYEFIPeIQo+3mpHC0wyMnHpHruJ8laTMFEGA1UdIwRK
MEiAFBGVJLzGFS+u5hzi8xfB47JNbfwtoRqkGDAWMRQwEgYDVQQDDAt0ZWFtMzg3
LW5ldIIUXzZgyIk+PGjSwVpzd1C7j1j6vWMwEwYDVR0lBAwwCgYIKwYBBQUHAwEw
CwYDVR0PBAQDAgWgMBkGA1UdEQQSMBCCDnRlYW0zODctc2VydmVyMA0GCSqGSIb3
DQEBCwUAA4IBAQBiOEeKE3Bglen/0f7j1mR1IjWY/8LLOIaFUvjUHH8duAOmy6cz
of8Lctoe8yjbGOFMXhVdLiKRdqr8jfGDJTWpazWolaI2yNDslAZ/eSu5nQRa6hIe
IPPtg2tpfmwo/jqaVcZmcgaPyd5nvOL6aA1bp/Uv6gEZ2QwCu4jdLKn6tPugB/2N
18igS/GqqDXoam5GyRoV1U5W3+ozEQURQY3s/eydf5oIicgLH5mzhwFBdk8srBJq
h6xoUfRUTDrTLhk+cUIuTPeDzrn224VRVqxWV/eDsA4yAK529rSblHoemy/BhAvg
O/tPIPkR6JQPAysI39fAblKo2y6A1bJ2Jrf3
-----END CERTIFICATE-----
