Certificate:
    Data:
        Version: 3 (0x2)
        Serial Number:
            64:26:e2:45:cb:52:40:8b:d8:b6:25:91:1b:e5:9b:eb
        Signature Algorithm: sha256WithRSAEncryption
        Issuer: CN=team387-net
        Validity
            Not Before: Nov  3 20:46:14 2023 GMT
            Not After : Oct 18 20:46:14 2026 GMT
        Subject: CN=team387-server
        Subject Public Key Info:
            Public Key Algorithm: rsaEncryption
                Public-Key: (2048 bit)
                Modulus:
                    00:d2:8e:af:66:d6:ee:b4:f5:d7:aa:a8:83:3c:f0:
                    03:90:fa:54:01:07:a4:9b:39:09:c5:e2:40:a2:fd:
                    37:40:8b:93:09:55:da:2c:7d:02:ea:b0:4a:d0:d6:
                    cb:9e:e1:f1:82:ec:ad:55:4c:26:31:c5:52:22:9f:
                    32:f8:7d:a9:8c:df:14:7b:2a:a3:18:07:06:e7:0c:
                    c6:9e:65:91:80:b3:b5:86:8e:ed:e6:61:ea:c9:6b:
                    2f:6e:37:9b:30:b2:5b:99:39:a9:83:ff:9d:1c:34:
                    19:57:57:9a:d2:e4:98:36:57:29:93:1b:80:e1:e6:
                    46:c9:02:08:12:13:03:4f:81:a8:64:1c:c5:26:4b:
                    ee:12:44:c6:50:70:3b:22:d0:49:33:d9:f1:32:b8:
                    6d:06:5c:21:7e:d5:c4:fd:28:6f:1d:db:ba:0a:b7:
                    c5:82:83:09:02:56:62:00:2c:f3:5c:77:b1:97:1d:
                    e9:aa:9d:2a:90:dd:7e:20:ca:b1:5b:d4:a4:53:40:
                    0f:18:44:b0:98:ba:de:73:9e:e6:4c:81:77:3c:3e:
                    10:94:af:b8:25:84:c4:2f:57:f1:bc:2c:da:88:46:
                    46:01:f5:4e:f7:c3:7d:08:ea:bd:dd:8e:b8:4c:88:
                    30:6d:56:73:89:70:ff:e6:75:03:c1:d9:b7:0a:2e:
                    33:05
                Exponent: 65537 (0x10001)
        X509v3 extensions:
            X509v3 Basic Constraints: 
                CA:FALSE
            X509v3 Subject Key Identifier: 
                95:48:88:07:08:8C:6F:AA:AA:4D:54:2A:21:9B:5E:3A:B7:57:2B:80
            X509v3 Authority Key Identifier: 
                keyid:84:A9:81:59:E0:64:ED:79:3A:F9:CB:2C:41:F4:9D:13:F8:37:63:4A
                DirName:/CN=team387-net
                serial:22:48:C6:42:5E:D3:28:1F:46:52:E0:DF:31:14:11:11:15:B0:1D:2F
            X509v3 Extended Key Usage: 
                TLS Web Server Authentication
            X509v3 Key Usage: 
                Digital Signature, Key Encipherment
            X509v3 Subject Alternative Name: 
                DNS:team387-server
    Signature Algorithm: sha256WithRSAEncryption
    Signature Value:
        69:1d:49:51:66:7e:9e:74:68:9b:40:b0:1e:66:d4:53:ca:70:
        d1:30:ac:4c:c8:e2:2b:90:cd:a1:b7:eb:35:a2:78:15:7d:34:
        45:87:b6:90:54:5a:01:9c:3f:12:dc:4a:bd:e2:3a:9c:10:27:
        4b:4b:1c:57:1f:f8:6a:3e:fe:45:ef:fe:f7:3c:91:e6:f6:3c:
        72:59:f7:c8:ba:43:8d:b6:ce:7b:38:1c:f4:c8:88:a5:92:5f:
        56:84:69:06:7f:69:c6:df:b2:33:26:95:d6:1a:97:a7:e4:13:
        c2:03:8b:7d:33:d8:23:92:03:70:2c:78:b1:21:e6:d1:d4:d7:
        22:30:57:e3:80:b9:af:15:28:cc:f7:90:b2:37:23:1a:dc:27:
        0f:4d:22:64:7d:e6:b3:60:de:ce:f6:fe:4a:8d:9b:df:f3:56:
        91:d4:a6:0c:81:e1:b2:03:4b:74:a6:80:e1:70:78:a8:47:ca:
        0d:f0:00:4d:f6:6e:99:fa:b2:c5:25:34:27:7f:6f:56:7f:2f:
        f3:8c:7b:28:3e:4a:46:4f:0d:20:51:9f:9e:0a:58:57:41:25:
        07:7d:af:b6:59:a3:7b:40:f5:35:c0:b6:22:fe:2e:c4:38:47:
        3b:58:0d:49:fb:7d:c6:07:09:4f:b5:11:21:eb:1d:f0:46:d3:
        9e:e0:75:69
-----BEGIN CERTIFICATE-----
MIIDdzCCAl+gAwIBAgIQZCbiRctSQIvYtiWRG+Wb6zANBgkqhkiG9w0BAQsFADAW
MRQwEgYDVQQDDAt0ZWFtMzg3LW5ldDAeFw0yMzExMDMyMDQ2MTRaFw0yNjEwMTgy
MDQ2MTRaMBkxFzAVBgNVBAMMDnRlYW0zODctc2VydmVyMIIBIjANBgkqhkiG9w0B
AQEFAAOCAQ8AMIIBCgKCAQEA0o6vZtbutPXXqqiDPPADkPpUAQekmzkJxeJAov03
QIuTCVXaLH0C6rBK0NbLnuHxguytVUwmMcVSIp8y+H2pjN8UeyqjGAcG5wzGnmWR
gLO1ho7t5mHqyWsvbjebMLJbmTmpg/+dHDQZV1ea0uSYNlcpkxuA4eZGyQIIEhMD
T4GoZBzFJkvuEkTGUHA7ItBJM9nxMrhtBlwhftXE/ShvHdu6CrfFgoMJAlZiACzz
XHexlx3pqp0qkN1+IMqxW9SkU0APGESwmLrec57mTIF3PD4QlK+4JYTEL1fxvCza
iEZGAfVO98N9COq93Y64TIgwbVZziXD/5nUDwdm3Ci4zBQIDAQABo4G9MIG6MAkG
A1UdEwQCMAAwHQYDVR0OBBYEFJVIiAcIjG+qqk1UKiGbXjq3VyuAMFEGA1UdIwRK
MEiAFISpgVngZO15OvnLLEH0nRP4N2NKoRqkGDAWMRQwEgYDVQQDDAt0ZWFtMzg3
LW5ldIIUIkjGQl7TKB9GUuDfMRQRERWwHS8wEwYDVR0lBAwwCgYIKwYBBQUHAwEw
CwYDVR0PBAQDAgWgMBkGA1UdEQQSMBCCDnRlYW0zODctc2VydmVyMA0GCSqGSIb3
DQEBCwUAA4IBAQBpHUlRZn6edGibQLAeZtRTynDRMKxMyOIrkM2ht+s1ongVfTRF
h7aQVFoBnD8S3Eq94jqcECdLSxxXH/hqPv5F7/73PJHm9jxyWffIukONts57OBz0
yIilkl9WhGkGf2nG37IzJpXWGpen5BPCA4t9M9gjkgNwLHixIebR1NciMFfjgLmv
FSjM95CyNyMa3CcPTSJkfeazYN7O9v5KjZvf81aR1KYMgeGyA0t0poDhcHioR8oN
8ABN9m6Z+rLFJTQnf29Wfy/zjHsoPkpGTw0gUZ+eClhXQSUHfa+2WaN7QPU1wLYi
/i7EOEc7WA1J+33GBwlPtREh6x3wRtOe4HVp
-----END CERTIFICATE-----
