Certificate:
    Data:
        Version: 3 (0x2)
        Serial Number:
            6c:df:2e:6d:a2:6a:f2:56:4c:82:ea:05:11:29:bb:48
        Signature Algorithm: sha256WithRSAEncryption
        Issuer: CN=team387-net
        Validity
            Not Before: Nov  4 10:47:38 2023 GMT
            Not After : Oct 19 10:47:38 2026 GMT
        Subject: CN=team387-client
        Subject Public Key Info:
            Public Key Algorithm: rsaEncryption
                Public-Key: (2048 bit)
                Modulus:
                    00:ad:14:bf:75:9f:ec:da:93:d1:37:1c:21:23:21:
                    19:26:1d:70:57:d5:67:0d:15:da:60:3d:da:59:08:
                    3f:2e:28:22:c6:83:a1:da:72:08:b1:0c:0c:e5:1b:
                    e3:fb:49:6e:f6:ea:bf:c9:e6:c7:da:ab:d5:40:a6:
                    93:23:4b:e8:68:c4:ca:0c:e8:d0:5e:99:70:cc:c4:
                    d4:3d:b1:60:5d:cb:bc:52:1e:ab:ae:d3:e2:eb:4b:
                    30:2a:14:aa:0e:c6:15:d0:e9:cc:9d:00:52:a0:f2:
                    49:72:64:68:06:85:e5:59:eb:49:91:41:b2:33:c5:
                    e9:38:cf:88:a2:96:2f:c3:8c:c9:07:4e:37:6f:d8:
                    1b:63:0a:6b:75:9f:9c:3e:cf:75:51:69:cd:6e:c9:
                    6c:11:82:7a:12:7f:d6:71:4c:6d:48:42:ef:2e:a1:
                    d3:8f:41:a2:80:e2:9a:2a:c8:66:d5:b9:aa:38:0c:
                    1f:70:43:81:e4:5d:06:63:ab:9a:9e:5a:f9:4d:1a:
                    50:df:19:9f:17:1a:58:f8:84:66:61:8a:38:1c:b3:
                    65:40:20:57:8d:5e:b5:cf:c9:43:87:5a:3a:45:85:
                    45:44:8a:6e:e8:61:61:77:5a:f6:1e:58:28:da:0a:
                    3e:69:10:c3:32:60:69:f0:62:95:ef:50:fd:57:fc:
                    fe:c9
                Exponent: 65537 (0x10001)
        X509v3 extensions:
            X509v3 Basic Constraints: 
                CA:FALSE
            X509v3 Subject Key Identifier: 
                2A:97:A7:DB:0B:AF:14:E7:F5:1A:B0:0F:A9:19:6E:53:D9:93:49:0D
            X509v3 Authority Key Identifier: 
                keyid:11:95:24:BC:C6:15:2F:AE:E6:1C:E2:F3:17:C1:E3:B2:4D:6D:FC:2D
                DirName:/CN=team387-net
                serial:5F:36:60:C8:89:3E:3C:68:D2:C1:5A:73:77:50:BB:8F:58:FA:BD:63
            X509v3 Extended Key Usage: 
                TLS Web Client Authentication
            X509v3 Key Usage: 
                Digital Signature
    Signature Algorithm: sha256WithRSAEncryption
    Signature Value:
        1e:30:54:8b:47:35:aa:5f:07:a6:72:37:69:93:94:66:0f:3b:
        65:ec:b9:c2:43:30:91:46:82:3b:ab:41:f5:9d:36:70:97:ce:
        e7:84:81:29:cb:a3:0d:62:43:02:59:40:da:95:18:9a:8f:b7:
        1e:e2:fd:d8:84:65:13:cd:5a:41:0b:23:f2:21:f3:86:70:e9:
        79:15:eb:8c:c0:d3:14:be:f9:68:f6:a0:62:3b:89:16:e4:ef:
        d3:80:fc:37:37:1e:d3:13:27:f6:6f:73:3e:7b:63:98:b2:ba:
        32:3b:55:d6:b6:47:62:ca:96:39:8d:16:c3:f7:20:9e:7b:60:
        9a:d7:97:a5:7e:6c:8b:df:fe:b7:e3:f1:1a:60:22:43:12:03:
        6a:a2:2b:42:f1:89:2b:7f:6a:9d:a7:f9:f9:99:fc:ea:82:8a:
        13:ab:75:d0:97:9a:87:45:51:8b:c8:c2:1a:0e:c1:d8:e2:c0:
        ea:4c:21:b3:1b:19:03:96:7e:82:76:00:90:6f:43:db:9f:d4:
        af:05:8b:c4:59:be:c1:fa:71:f7:89:44:cf:a6:32:6c:62:fb:
        53:de:06:5e:c8:4d:95:60:98:f8:e6:6c:ab:99:8f:a2:8b:cb:
        fb:23:9b:71:9f:89:78:21:2b:0c:bf:ce:aa:d7:08:9a:e6:54:
        3a:32:02:4e
-----BEGIN CERTIFICATE-----
MIIDXDCCAkSgAwIBAgIQbN8ubaJq8lZMguoFESm7SDANBgkqhkiG9w0BAQsFADAW
MRQwEgYDVQQDDAt0ZWFtMzg3LW5ldDAeFw0yMzExMDQxMDQ3MzhaFw0yNjEwMTkx
MDQ3MzhaMBkxFzAVBgNVBAMMDnRlYW0zODctY2xpZW50MIIBIjANBgkqhkiG9w0B
AQEFAAOCAQ8AMIIBCgKCAQEArRS/dZ/s2pPRNxwhIyEZJh1wV9VnDRXaYD3aWQg/
LigixoOh2nIIsQwM5Rvj+0lu9uq/yebH2qvVQKaTI0voaMTKDOjQXplwzMTUPbFg
Xcu8Uh6rrtPi60swKhSqDsYV0OnMnQBSoPJJcmRoBoXlWetJkUGyM8XpOM+IopYv
w4zJB043b9gbYwprdZ+cPs91UWnNbslsEYJ6En/WcUxtSELvLqHTj0GigOKaKshm
1bmqOAwfcEOB5F0GY6uanlr5TRpQ3xmfFxpY+IRmYYo4HLNlQCBXjV61z8lDh1o6
RYVFRIpu6GFhd1r2Hlgo2go+aRDDMmBp8GKV71D9V/z+yQIDAQABo4GiMIGfMAkG
A1UdEwQCMAAwHQYDVR0OBBYEFCqXp9sLrxTn9RqwD6kZblPZk0kNMFEGA1UdIwRK
MEiAFBGVJLzGFS+u5hzi8xfB47JNbfwtoRqkGDAWMRQwEgYDVQQDDAt0ZWFtMzg3
LW5ldIIUXzZgyIk+PGjSwVpzd1C7j1j6vWMwEwYDVR0lBAwwCgYIKwYBBQUHAwIw
CwYDVR0PBAQDAgeAMA0GCSqGSIb3DQEBCwUAA4IBAQAeMFSLRzWqXwemcjdpk5Rm
Dztl7LnCQzCRRoI7q0H1nTZwl87nhIEpy6MNYkMCWUDalRiaj7ce4v3YhGUTzVpB
CyPyIfOGcOl5FeuMwNMUvvlo9qBiO4kW5O/TgPw3Nx7TEyf2b3M+e2OYsroyO1XW
tkdiypY5jRbD9yCee2Ca15elfmyL3/634/EaYCJDEgNqoitC8Ykrf2qdp/n5mfzq
gooTq3XQl5qHRVGLyMIaDsHY4sDqTCGzGxkDln6CdgCQb0Pbn9SvBYvEWb7B+nH3
iUTPpjJsYvtT3gZeyE2VYJj45myrmY+ii8v7I5txn4l4ISsMv86q1wia5lQ6MgJO
-----END CERTIFICATE-----
