Certificate:
    Data:
        Version: 3 (0x2)
        Serial Number:
            b3:dd:3d:92:58:0d:4c:f7:27:a8:f2:08:56:f1:02:4c
        Signature Algorithm: sha256WithRSAEncryption
        Issuer: CN=team387-net
        Validity
            Not Before: Nov  4 11:36:11 2023 GMT
            Not After : Oct 19 11:36:11 2026 GMT
        Subject: CN=team387-server
        Subject Public Key Info:
            Public Key Algorithm: rsaEncryption
                Public-Key: (2048 bit)
                Modulus:
                    00:93:85:37:fd:f2:e1:44:e1:50:16:4f:33:3d:04:
                    b1:dd:45:c4:fa:c0:3f:31:34:27:c4:21:8f:4c:dc:
                    4d:69:bb:12:1b:bf:f2:04:f1:7c:8c:58:02:d5:12:
                    a8:0e:12:2b:c4:0b:6d:d1:64:1f:81:fd:22:74:1c:
                    6f:e1:6f:3e:8b:24:95:52:7b:d9:73:11:cc:b9:64:
                    25:8c:b6:9c:f5:24:57:60:50:ad:ba:27:7b:e6:b0:
                    66:64:7a:6e:ce:2c:5d:64:41:03:22:00:4d:78:51:
                    e3:ce:89:87:e4:c4:51:a7:0c:49:4a:ce:12:48:da:
                    20:6f:98:61:62:ed:23:1e:8e:d3:27:c7:8d:e6:28:
                    65:11:34:2e:7d:25:d8:48:26:f5:94:e7:38:80:c0:
                    0d:a7:35:ac:ba:46:b7:40:5a:9b:e1:dd:0d:ae:34:
                    2f:37:94:92:d9:6f:18:2a:4c:18:aa:c6:6e:ef:77:
                    5d:df:3f:fd:e8:f1:c1:7c:95:a9:61:b8:cd:b3:b0:
                    c1:9b:fc:f9:73:f0:f5:af:0c:2d:dc:e7:1a:8e:ff:
                    2d:ca:c1:09:cb:e4:aa:f7:26:5b:a2:ea:e3:b8:03:
                    4c:27:e9:12:d3:2b:28:8f:3b:7d:84:f4:ed:fa:f8:
                    e9:4e:9b:2a:ab:e7:f5:68:40:6c:7c:cd:25:ea:92:
                    6b:d3
                Exponent: 65537 (0x10001)
        X509v3 extensions:
            X509v3 Basic Constraints: 
                CA:FALSE
            X509v3 Subject Key Identifier: 
                DA:4D:C9:C1:77:DF:17:AD:61:19:ED:8F:E9:2B:FA:C3:E7:7C:06:A7
            X509v3 Authority Key Identifier: 
                keyid:40:D1:68:6E:2F:09:DD:65:C4:73:66:8F:AF:62:9C:2A:6C:13:A6:F3
                DirName:/CN=team387-net
                serial:44:F9:CD:59:9F:4A:F1:43:18:7D:6A:22:9E:D0:7D:EF:55:5C:2B:AB
            X509v3 Extended Key Usage: 
                TLS Web Server Authentication
            X509v3 Key Usage: 
                Digital Signature, Key Encipherment
            X509v3 Subject Alternative Name: 
                DNS:team387-server
    Signature Algorithm: sha256WithRSAEncryption
    Signature Value:
        5f:66:e6:8a:14:26:f4:98:10:3e:3d:5f:99:f9:d1:5a:d6:e0:
        72:35:e8:36:ae:d1:74:e3:24:a7:8f:b5:12:72:4c:ad:48:8c:
        62:fc:9d:eb:54:13:d0:f9:07:43:01:09:81:f0:6b:d1:f1:c8:
        b3:5d:3c:a8:5f:88:47:ff:5b:31:fc:ab:d2:36:ea:d6:74:dc:
        b1:13:0f:8e:18:35:cc:35:2f:9f:86:89:22:f7:ee:24:ce:95:
        9f:a2:bd:b2:c6:15:7d:07:05:bc:38:9e:d6:bf:76:9d:5d:b8:
        0b:0b:a4:d3:fb:77:f6:02:04:13:42:23:c4:13:0f:ab:1f:84:
        40:21:13:70:05:1b:7a:c1:72:72:5e:eb:97:ea:c0:f0:18:11:
        bc:ec:e1:ce:b8:57:d8:70:f8:c8:40:60:41:d1:2a:ca:e6:e4:
        b2:61:a2:fb:be:94:c8:16:6a:c4:02:18:13:9f:b4:e6:f8:d3:
        ce:3c:fb:dd:31:c0:ca:e2:d1:fb:fe:f1:bb:bd:fc:9c:a0:9c:
        85:14:82:ee:9a:0c:f3:b6:7f:fe:1e:11:5f:b7:36:58:70:29:
        2d:2e:68:28:c7:20:d5:56:d6:b6:5e:fb:0f:a7:3f:67:9e:ea:
        cd:7a:8a:e0:e7:de:b5:00:c6:a8:06:d6:10:44:a8:f5:5c:b0:
        56:15:4f:bc
-----BEGIN CERTIFICATE-----
MIIDeDCCAmCgAwIBAgIRALPdPZJYDUz3J6jyCFbxAkwwDQYJKoZIhvcNAQELBQAw
FjEUMBIGA1UEAwwLdGVhbTM4Ny1uZXQwHhcNMjMxMTA0MTEzNjExWhcNMjYxMDE5
MTEzNjExWjAZMRcwFQYDVQQDDA50ZWFtMzg3LXNlcnZlcjCCASIwDQYJKoZIhvcN
AQEBBQADggEPADCCAQoCggEBAJOFN/3y4UThUBZPMz0Esd1FxPrAPzE0J8Qhj0zc
TWm7Ehu/8gTxfIxYAtUSqA4SK8QLbdFkH4H9InQcb+FvPosklVJ72XMRzLlkJYy2
nPUkV2BQrbone+awZmR6bs4sXWRBAyIATXhR486Jh+TEUacMSUrOEkjaIG+YYWLt
Ix6O0yfHjeYoZRE0Ln0l2Egm9ZTnOIDADac1rLpGt0Bam+HdDa40LzeUktlvGCpM
GKrGbu93Xd8//ejxwXyVqWG4zbOwwZv8+XPw9a8MLdznGo7/LcrBCcvkqvcmW6Lq
47gDTCfpEtMrKI87fYT07fr46U6bKqvn9WhAbHzNJeqSa9MCAwEAAaOBvTCBujAJ
BgNVHRMEAjAAMB0GA1UdDgQWBBTaTcnBd98XrWEZ7Y/pK/rD53wGpzBRBgNVHSME
SjBIgBRA0WhuLwndZcRzZo+vYpwqbBOm86EapBgwFjEUMBIGA1UEAwwLdGVhbTM4
Ny1uZXSCFET5zVmfSvFDGH1qIp7Qfe9VXCurMBMGA1UdJQQMMAoGCCsGAQUFBwMB
MAsGA1UdDwQEAwIFoDAZBgNVHREEEjAQgg50ZWFtMzg3LXNlcnZlcjANBgkqhkiG
9w0BAQsFAAOCAQEAX2bmihQm9JgQPj1fmfnRWtbgcjXoNq7RdOMkp4+1EnJMrUiM
Yvyd61QT0PkHQwEJgfBr0fHIs108qF+IR/9bMfyr0jbq1nTcsRMPjhg1zDUvn4aJ
IvfuJM6Vn6K9ssYVfQcFvDie1r92nV24Cwuk0/t39gIEE0IjxBMPqx+EQCETcAUb
esFycl7rl+rA8BgRvOzhzrhX2HD4yEBgQdEqyubksmGi+76UyBZqxAIYE5+05vjT
zjz73THAyuLR+/7xu738nKCchRSC7poM87Z//h4RX7c2WHApLS5oKMcg1VbWtl77
D6c/Z57qzXqK4OfetQDGqAbWEESo9VywVhVPvA==
-----END CERTIFICATE-----
