Certificate:
    Data:
        Version: 3 (0x2)
        Serial Number:
            2d:bc:36:2b:64:ed:4a:e3:2e:c6:1f:d4:18:49:8a:ee
        Signature Algorithm: sha256WithRSAEncryption
        Issuer: CN=team380-net
        Validity
            Not Before: Nov  3 20:46:07 2023 GMT
            Not After : Oct 18 20:46:07 2026 GMT
        Subject: CN=team380-server
        Subject Public Key Info:
            Public Key Algorithm: rsaEncryption
                Public-Key: (2048 bit)
                Modulus:
                    00:d5:84:d3:e2:29:54:3e:a3:fc:5f:87:6a:f4:46:
                    d7:46:72:fa:55:e4:4b:4d:1d:dc:80:33:85:67:9b:
                    53:bf:64:d4:bf:7d:05:ea:56:74:1e:a0:30:df:48:
                    91:c2:b7:c4:ed:fa:a5:f3:3f:86:bc:3d:a9:73:05:
                    7c:4e:b7:8e:59:41:28:d0:50:ba:82:15:64:13:5e:
                    3f:db:1e:a5:37:18:77:a9:04:de:0e:68:b5:c5:cc:
                    9a:bf:60:a1:2a:be:b4:bf:47:95:ed:18:e3:a6:6a:
                    ce:d6:b0:05:64:0f:ca:ab:9f:ca:23:16:3e:94:1e:
                    ac:d4:0e:f1:85:c3:96:3e:2b:8e:d9:b5:73:8d:2c:
                    da:d0:6c:dc:3c:a3:c8:9b:93:ac:9f:23:21:3f:c3:
                    57:ff:6b:ed:6c:27:6e:98:eb:d8:0c:7f:17:fb:fa:
                    5a:26:46:9e:23:6c:2d:88:f2:74:8e:20:ac:19:65:
                    c7:75:e2:de:19:26:0b:7c:2e:cd:35:39:1b:21:30:
                    25:e7:5c:84:f1:36:2b:c7:dd:46:1e:a1:8b:c4:17:
                    df:ab:94:0d:c4:2b:fc:63:bc:8b:7a:dd:72:8f:41:
                    99:f2:5e:c6:01:f7:5c:ab:44:e0:b0:ac:39:00:e4:
                    44:12:98:12:69:da:ed:6f:e9:6a:2c:81:44:b0:ad:
                    07:fb
                Exponent: 65537 (0x10001)
        X509v3 extensions:
            X509v3 Basic Constraints: 
                CA:FALSE
            X509v3 Subject Key Identifier: 
                B1:62:9E:BE:1F:3A:48:D3:AC:95:82:77:12:64:AB:B4:30:9C:82:27
            X509v3 Authority Key Identifier: 
                keyid:67:6D:13:4D:6F:65:34:1E:E0:E6:19:E4:C0:0C:DD:FB:5D:EF:26:47
                DirName:/CN=team380-net
                serial:05:BC:DC:77:2B:10:B1:57:06:AE:02:93:88:EF:17:C2:A6:12:76:70
            X509v3 Extended Key Usage: 
                TLS Web Server Authentication
            X509v3 Key Usage: 
                Digital Signature, Key Encipherment
            X509v3 Subject Alternative Name: 
                DNS:team380-server
    Signature Algorithm: sha256WithRSAEncryption
    Signature Value:
        a0:10:11:58:05:34:4b:60:6a:e8:41:c5:77:ef:9a:31:87:82:
        c1:05:ad:67:38:c6:fc:cc:2b:46:7a:df:fa:6d:e1:fc:56:a1:
        78:75:1a:42:72:e3:dc:69:e2:cf:8a:1e:09:fc:70:6a:7b:b0:
        03:a9:17:34:f4:d4:19:89:75:51:6b:04:5d:b4:2f:cc:59:7b:
        42:b6:01:dd:2e:f9:e4:30:1c:59:01:8c:eb:5d:fb:31:3b:e8:
        0a:c4:00:0f:73:72:e5:a3:53:e6:3b:55:4c:a5:b4:c6:c9:f3:
        a1:9c:af:cf:d3:16:1f:94:33:19:cd:5d:a2:12:9d:2e:6a:92:
        24:20:9f:83:0b:58:cc:56:df:35:af:8d:88:1b:92:3e:e7:40:
        2f:2a:78:f0:52:b8:59:ec:fc:4f:6e:cd:07:48:e9:fb:55:74:
        ca:b7:09:8d:ef:13:58:6a:a6:71:e8:ed:d4:87:8b:63:c1:bf:
        e7:e1:c9:d7:11:c7:e5:b5:35:9d:cd:a7:30:0c:69:1e:1d:25:
        5a:a2:42:ab:fa:5f:df:a4:b9:aa:b4:17:b5:62:29:7b:5e:27:
        9c:a6:bf:7c:6d:3c:9a:f2:10:18:bc:a5:26:71:d1:ac:0f:65:
        85:a9:61:d5:47:b8:42:d7:67:00:18:29:8e:32:58:52:4b:97:
        ca:02:49:53
-----BEGIN CERTIFICATE-----
MIIDdzCCAl+gAwIBAgIQLbw2K2TtSuMuxh/UGEmK7jANBgkqhkiG9w0BAQsFADAW
MRQwEgYDVQQDDAt0ZWFtMzgwLW5ldDAeFw0yMzExMDMyMDQ2MDdaFw0yNjEwMTgy
MDQ2MDdaMBkxFzAVBgNVBAMMDnRlYW0zODAtc2VydmVyMIIBIjANBgkqhkiG9w0B
AQEFAAOCAQ8AMIIBCgKCAQEA1YTT4ilUPqP8X4dq9EbXRnL6VeRLTR3cgDOFZ5tT
v2TUv30F6lZ0HqAw30iRwrfE7fql8z+GvD2pcwV8TreOWUEo0FC6ghVkE14/2x6l
Nxh3qQTeDmi1xcyav2ChKr60v0eV7RjjpmrO1rAFZA/Kq5/KIxY+lB6s1A7xhcOW
PiuO2bVzjSza0GzcPKPIm5OsnyMhP8NX/2vtbCdumOvYDH8X+/paJkaeI2wtiPJ0
jiCsGWXHdeLeGSYLfC7NNTkbITAl51yE8TYrx91GHqGLxBffq5QNxCv8Y7yLet1y
j0GZ8l7GAfdcq0TgsKw5AOREEpgSadrtb+lqLIFEsK0H+wIDAQABo4G9MIG6MAkG
A1UdEwQCMAAwHQYDVR0OBBYEFLFinr4fOkjTrJWCdxJkq7QwnIInMFEGA1UdIwRK
MEiAFGdtE01vZTQe4OYZ5MAM3ftd7yZHoRqkGDAWMRQwEgYDVQQDDAt0ZWFtMzgw
LW5ldIIUBbzcdysQsVcGrgKTiO8XwqYSdnAwEwYDVR0lBAwwCgYIKwYBBQUHAwEw
CwYDVR0PBAQDAgWgMBkGA1UdEQQSMBCCDnRlYW0zODAtc2VydmVyMA0GCSqGSIb3
DQEBCwUAA4IBAQCgEBFYBTRLYGroQcV375oxh4LBBa1nOMb8zCtGet/6beH8VqF4
dRpCcuPcaeLPih4J/HBqe7ADqRc09NQZiXVRawRdtC/MWXtCtgHdLvnkMBxZAYzr
XfsxO+gKxAAPc3Llo1PmO1VMpbTGyfOhnK/P0xYflDMZzV2iEp0uapIkIJ+DC1jM
Vt81r42IG5I+50AvKnjwUrhZ7PxPbs0HSOn7VXTKtwmN7xNYaqZx6O3Uh4tjwb/n
4cnXEcfltTWdzacwDGkeHSVaokKr+l/fpLmqtBe1Yil7Xiecpr98bTya8hAYvKUm
cdGsD2WFqWHVR7hC12cAGCmOMlhSS5fKAklT
-----END CERTIFICATE-----
