Certificate:
    Data:
        Version: 3 (0x2)
        Serial Number:
            d3:ee:c8:2f:f6:4c:87:20:4f:95:11:cd:5b:0a:12:39
        Signature Algorithm: sha256WithRSAEncryption
        Issuer: CN=team380-net
        Validity
            Not Before: Nov  4 10:47:32 2023 GMT
            Not After : Oct 19 10:47:32 2026 GMT
        Subject: CN=team380-server
        Subject Public Key Info:
            Public Key Algorithm: rsaEncryption
                Public-Key: (2048 bit)
                Modulus:
                    00:c9:98:45:21:b4:a6:17:a8:13:d3:2a:8d:c9:94:
                    e1:17:19:a9:77:a2:80:3d:e2:0c:65:de:b7:47:f7:
                    b4:ab:4e:b6:0b:6a:1f:1f:e9:bb:86:5f:a3:ca:d7:
                    48:5a:64:e9:ca:83:b0:35:56:3a:78:41:a8:41:02:
                    34:a2:5f:fa:71:fe:b7:b3:90:eb:e8:05:6a:a9:42:
                    ec:38:89:fd:2f:35:ac:92:98:8b:11:ea:7b:44:cd:
                    14:4e:b2:f0:c6:6b:04:ef:ae:f6:02:f5:b7:6c:e9:
                    e3:a1:bc:3e:47:c5:6e:fb:0b:c3:99:f6:44:44:4a:
                    61:21:cf:50:2f:ef:29:d5:c7:f8:68:54:13:0b:9f:
                    27:f9:bb:cb:9f:3c:95:94:96:ec:bc:72:61:2c:8d:
                    24:5e:9e:a3:8b:b5:2a:4e:3f:51:84:60:54:b9:98:
                    40:1e:ab:b7:73:7f:56:c7:6a:71:ea:88:c6:b2:4c:
                    a2:d3:8b:d5:7b:34:2e:02:70:44:bb:71:d8:ea:25:
                    9e:ff:c5:b0:c9:bd:37:4b:eb:9c:a8:cd:02:19:5b:
                    92:00:ac:f0:f7:70:61:25:97:8d:06:86:d6:aa:f4:
                    dc:07:11:cf:e8:c8:1c:76:ce:ed:36:b5:76:9a:e1:
                    5b:87:81:d6:21:18:75:54:10:cf:6e:36:fb:d5:36:
                    38:87
                Exponent: 65537 (0x10001)
        X509v3 extensions:
            X509v3 Basic Constraints: 
                CA:FALSE
            X509v3 Subject Key Identifier: 
                A7:33:70:3F:97:0F:B9:88:32:06:2C:27:E1:BE:AA:91:D8:75:43:AB
            X509v3 Authority Key Identifier: 
                keyid:7A:69:5F:F4:53:25:C7:BF:95:EF:78:22:88:9E:C7:F0:19:06:9C:88
                DirName:/CN=team380-net
                serial:61:CF:B6:6A:D5:2E:D4:F2:8A:05:31:F2:BF:71:BB:1E:AD:4E:BA:94
            X509v3 Extended Key Usage: 
                TLS Web Server Authentication
            X509v3 Key Usage: 
                Digital Signature, Key Encipherment
            X509v3 Subject Alternative Name: 
                DNS:team380-server
    Signature Algorithm: sha256WithRSAEncryption
    Signature Value:
        6a:e0:74:d4:1e:0e:10:20:a3:46:1a:bd:bc:de:69:83:9e:b7:
        6e:76:31:76:ea:92:3e:51:56:73:d1:f7:48:1d:e6:52:1a:7e:
        de:d0:1c:0b:67:ae:47:ac:a9:fd:71:41:f2:73:47:d4:3d:e6:
        3e:9b:fe:a7:ed:a7:89:e4:00:2b:62:62:08:a1:18:16:17:dd:
        d4:d9:90:b3:46:33:bf:75:85:c4:99:e7:26:e8:31:21:b2:23:
        67:e0:1e:5b:2b:8b:bc:1f:01:2e:77:61:65:07:9b:2a:f9:f8:
        89:5c:5d:5d:dc:27:56:24:8e:a0:41:81:48:f9:31:19:11:1e:
        64:ce:31:de:1b:2a:43:5e:a9:ee:c8:56:c0:e2:10:10:27:4f:
        0a:38:99:37:9f:5c:10:7a:90:d7:0d:d7:0c:49:c5:a5:2d:8e:
        f5:61:92:67:8e:8b:61:81:38:78:95:e2:b0:62:ee:36:27:34:
        a4:bf:9c:63:55:ec:7c:08:20:09:4a:a4:5a:78:76:9b:41:5d:
        d7:11:46:db:6d:71:b4:95:f1:55:04:1a:b2:e4:3f:98:b4:f3:
        f8:22:b5:90:0d:61:bb:2e:00:33:94:08:01:07:0a:88:39:ca:
        13:a4:49:62:08:bf:29:a1:ba:c3:e2:af:e8:d9:ab:c6:94:48:
        94:13:5e:53
-----BEGIN CERTIFICATE-----
MIIDeDCCAmCgAwIBAgIRANPuyC/2TIcgT5URzVsKEjkwDQYJKoZIhvcNAQELBQAw
FjEUMBIGA1UEAwwLdGVhbTM4MC1uZXQwHhcNMjMxMTA0MTA0NzMyWhcNMjYxMDE5
MTA0NzMyWjAZMRcwFQYDVQQDDA50ZWFtMzgwLXNlcnZlcjCCASIwDQYJKoZIhvcN
AQEBBQADggEPADCCAQoCggEBAMmYRSG0pheoE9MqjcmU4RcZqXeigD3iDGXet0f3
tKtOtgtqHx/pu4Zfo8rXSFpk6cqDsDVWOnhBqEECNKJf+nH+t7OQ6+gFaqlC7DiJ
/S81rJKYixHqe0TNFE6y8MZrBO+u9gL1t2zp46G8PkfFbvsLw5n2RERKYSHPUC/v
KdXH+GhUEwufJ/m7y588lZSW7LxyYSyNJF6eo4u1Kk4/UYRgVLmYQB6rt3N/Vsdq
ceqIxrJMotOL1Xs0LgJwRLtx2Oolnv/FsMm9N0vrnKjNAhlbkgCs8PdwYSWXjQaG
1qr03AcRz+jIHHbO7Ta1dprhW4eB1iEYdVQQz242+9U2OIcCAwEAAaOBvTCBujAJ
BgNVHRMEAjAAMB0GA1UdDgQWBBSnM3A/lw+5iDIGLCfhvqqR2HVDqzBRBgNVHSME
SjBIgBR6aV/0UyXHv5XveCKInsfwGQaciKEapBgwFjEUMBIGA1UEAwwLdGVhbTM4
MC1uZXSCFGHPtmrVLtTyigUx8r9xux6tTrqUMBMGA1UdJQQMMAoGCCsGAQUFBwMB
MAsGA1UdDwQEAwIFoDAZBgNVHREEEjAQgg50ZWFtMzgwLXNlcnZlcjANBgkqhkiG
9w0BAQsFAAOCAQEAauB01B4OECCjRhq9vN5pg563bnYxduqSPlFWc9H3SB3mUhp+
3tAcC2euR6yp/XFB8nNH1D3mPpv+p+2nieQAK2JiCKEYFhfd1NmQs0Yzv3WFxJnn
JugxIbIjZ+AeWyuLvB8BLndhZQebKvn4iVxdXdwnViSOoEGBSPkxGREeZM4x3hsq
Q16p7shWwOIQECdPCjiZN59cEHqQ1w3XDEnFpS2O9WGSZ46LYYE4eJXisGLuNic0
pL+cY1XsfAggCUqkWnh2m0Fd1xFG221xtJXxVQQasuQ/mLTz+CK1kA1huy4AM5QI
AQcKiDnKE6RJYgi/KaG6w+Kv6NmrxpRIlBNeUw==
-----END CERTIFICATE-----
