Certificate:
    Data:
        Version: 3 (0x2)
        Serial Number:
            46:89:bf:ed:8a:f1:a8:22:dd:de:75:81:c1:1d:d6:b0
        Signature Algorithm: sha256WithRSAEncryption
        Issuer: CN=team185-net
        Validity
            Not Before: Nov  3 20:42:36 2023 GMT
            Not After : Oct 18 20:42:36 2026 GMT
        Subject: CN=team185-server
        Subject Public Key Info:
            Public Key Algorithm: rsaEncryption
                Public-Key: (2048 bit)
                Modulus:
                    00:d1:df:d3:22:46:9c:fd:94:f2:da:a0:21:4a:b9:
                    62:91:04:b2:8f:10:92:30:5a:b7:67:5a:dd:0a:f1:
                    3a:e4:bd:90:0f:65:16:b1:d3:97:43:09:68:de:f3:
                    c7:f3:79:47:65:25:be:05:50:29:13:70:97:0e:6f:
                    3c:35:d8:b7:4c:9a:64:83:e5:f1:99:13:11:16:ba:
                    e8:af:31:e7:29:22:ad:d2:8d:b9:75:37:83:82:dd:
                    47:3d:4f:69:0e:8e:34:84:52:63:b8:28:e1:ed:56:
                    fc:04:4e:dd:8a:44:7c:23:d4:48:22:1f:66:15:fe:
                    1e:7c:d7:88:7b:08:08:8c:b3:ee:25:ee:f4:74:10:
                    fa:97:59:cd:d2:c6:7b:a1:b4:a4:26:14:91:7e:ad:
                    a7:90:7e:f0:77:cc:4b:b8:71:4b:b9:90:d0:ad:a0:
                    98:41:97:41:6b:ee:0f:a1:71:48:f1:92:ba:ff:95:
                    fb:a4:bc:d7:98:1a:3f:e5:59:af:56:1c:bd:7c:9f:
                    23:02:bf:e4:e2:aa:20:a0:4d:26:6c:72:0b:7d:1a:
                    86:be:9e:59:4c:2b:fc:38:49:1f:c5:36:a7:70:86:
                    b8:67:43:50:50:7b:2d:d3:c1:33:c1:99:af:ea:df:
                    4f:60:57:9a:7a:51:45:fe:98:44:98:a0:36:f9:d6:
                    81:f9
                Exponent: 65537 (0x10001)
        X509v3 extensions:
            X509v3 Basic Constraints: 
                CA:FALSE
            X509v3 Subject Key Identifier: 
                FD:EE:8F:A6:C1:75:FB:0E:1E:18:A5:70:C5:97:D2:9A:23:DD:C4:A7
            X509v3 Authority Key Identifier: 
                keyid:B2:1A:AF:E1:70:0B:F1:39:9D:41:0B:76:9D:0C:FC:84:06:86:A6:9D
                DirName:/CN=team185-net
                serial:7B:EC:C8:B2:EF:B0:97:D1:33:45:90:2E:5D:CE:00:B6:B1:0E:FB:04
            X509v3 Extended Key Usage: 
                TLS Web Server Authentication
            X509v3 Key Usage: 
                Digital Signature, Key Encipherment
            X509v3 Subject Alternative Name: 
                DNS:team185-server
    Signature Algorithm: sha256WithRSAEncryption
    Signature Value:
        7e:88:de:0c:e5:f9:94:15:76:df:cb:e3:7e:e8:94:0d:e7:29:
        2c:fe:a4:dc:76:27:90:3a:28:48:4b:d6:70:b7:f6:96:eb:82:
        7b:d2:eb:9f:a1:0c:dd:fe:7f:17:6a:04:dc:12:3f:9a:13:7f:
        38:d1:b1:fc:cd:a5:1e:90:e5:6f:85:a5:ac:2a:cf:b0:e7:16:
        b2:50:7d:2b:ba:36:02:36:5e:65:26:14:a1:d9:04:a8:e1:a6:
        b4:28:0b:1e:2c:61:04:b0:d8:97:1c:2d:ba:5a:69:d1:12:6b:
        fe:72:b9:c7:09:9a:67:81:f6:7c:97:6b:2c:a7:93:16:7a:f3:
        b1:4b:1c:4b:f9:8c:3b:96:39:5b:ca:45:ad:ac:7f:ff:89:f3:
        97:63:25:51:90:ac:82:ca:d8:12:76:2b:0a:d7:a6:47:e2:5d:
        43:76:a7:e0:a4:4f:f0:49:ab:c6:dc:ad:b0:bc:32:a9:ec:87:
        c7:bd:be:25:08:96:fb:b2:bc:4e:14:68:1a:62:c6:72:30:ff:
        c8:99:1e:96:2a:88:47:f6:20:8e:ed:ab:53:bc:94:43:4a:39:
        a9:8e:2b:5a:0c:8d:88:67:5c:73:7b:fd:67:09:d4:6b:b4:9f:
        80:2a:9d:97:f5:eb:32:f6:c8:81:81:90:c5:98:6f:14:14:42:
        38:65:ba:f0
-----BEGIN CERTIFICATE-----
MIIDdzCCAl+gAwIBAgIQRom/7YrxqCLd3nWBwR3WsDANBgkqhkiG9w0BAQsFADAW
MRQwEgYDVQQDDAt0ZWFtMTg1LW5ldDAeFw0yMzExMDMyMDQyMzZaFw0yNjEwMTgy
MDQyMzZaMBkxFzAVBgNVBAMMDnRlYW0xODUtc2VydmVyMIIBIjANBgkqhkiG9w0B
AQEFAAOCAQ8AMIIBCgKCAQEA0d/TIkac/ZTy2qAhSrlikQSyjxCSMFq3Z1rdCvE6
5L2QD2UWsdOXQwlo3vPH83lHZSW+BVApE3CXDm88Ndi3TJpkg+XxmRMRFrrorzHn
KSKt0o25dTeDgt1HPU9pDo40hFJjuCjh7Vb8BE7dikR8I9RIIh9mFf4efNeIewgI
jLPuJe70dBD6l1nN0sZ7obSkJhSRfq2nkH7wd8xLuHFLuZDQraCYQZdBa+4PoXFI
8ZK6/5X7pLzXmBo/5VmvVhy9fJ8jAr/k4qogoE0mbHILfRqGvp5ZTCv8OEkfxTan
cIa4Z0NQUHst08EzwZmv6t9PYFeaelFF/phEmKA2+daB+QIDAQABo4G9MIG6MAkG
A1UdEwQCMAAwHQYDVR0OBBYEFP3uj6bBdfsOHhilcMWX0poj3cSnMFEGA1UdIwRK
MEiAFLIar+FwC/E5nUELdp0M/IQGhqadoRqkGDAWMRQwEgYDVQQDDAt0ZWFtMTg1
LW5ldIIUe+zIsu+wl9EzRZAuXc4AtrEO+wQwEwYDVR0lBAwwCgYIKwYBBQUHAwEw
CwYDVR0PBAQDAgWgMBkGA1UdEQQSMBCCDnRlYW0xODUtc2VydmVyMA0GCSqGSIb3
DQEBCwUAA4IBAQB+iN4M5fmUFXbfy+N+6JQN5yks/qTcdieQOihIS9Zwt/aW64J7
0uufoQzd/n8XagTcEj+aE3840bH8zaUekOVvhaWsKs+w5xayUH0rujYCNl5lJhSh
2QSo4aa0KAseLGEEsNiXHC26WmnREmv+crnHCZpngfZ8l2ssp5MWevOxSxxL+Yw7
ljlbykWtrH//ifOXYyVRkKyCytgSdisK16ZH4l1DdqfgpE/wSavG3K2wvDKp7IfH
vb4lCJb7srxOFGgaYsZyMP/ImR6WKohH9iCO7atTvJRDSjmpjitaDI2IZ1xze/1n
CdRrtJ+AKp2X9esy9siBgZDFmG8UFEI4Zbrw
-----END CERTIFICATE-----
