Certificate:
    Data:
        Version: 3 (0x2)
        Serial Number:
            5f:bf:67:40:2b:27:21:90:54:e1:09:d7:70:d0:70:a0
        Signature Algorithm: sha256WithRSAEncryption
        Issuer: CN=team185-net
        Validity
            Not Before: Nov  4 10:43:58 2023 GMT
            Not After : Oct 19 10:43:58 2026 GMT
        Subject: CN=team185-server
        Subject Public Key Info:
            Public Key Algorithm: rsaEncryption
                Public-Key: (2048 bit)
                Modulus:
                    00:a4:fa:59:fb:82:1d:ac:96:ea:e9:b4:05:64:c6:
                    48:65:11:b1:bc:11:f4:d6:cf:bd:34:ee:8d:68:f1:
                    1b:17:99:1a:b4:bf:3f:3c:ad:66:db:e0:27:3f:da:
                    78:25:9f:80:ae:9a:40:a8:d2:1d:2a:21:45:1b:4e:
                    fc:7c:df:53:77:92:63:f4:7e:d9:01:ef:7f:d4:73:
                    39:c2:a6:89:1d:34:a2:43:69:1e:0f:33:36:4a:39:
                    f6:68:9f:08:21:18:3f:7c:a8:cc:ac:d5:07:71:43:
                    92:91:e0:fa:51:93:31:8a:40:0d:63:08:b1:7e:49:
                    72:fe:f8:37:17:c6:fc:c6:e2:58:fe:95:fd:4c:b4:
                    1b:52:fb:25:c7:10:2e:d0:aa:2c:5d:9f:48:64:13:
                    94:cd:a2:6b:d0:20:95:c5:01:39:53:0d:ee:0b:0a:
                    9d:6a:a4:b0:f9:fb:06:d0:24:99:f6:8e:e1:f1:ca:
                    89:8d:3b:e3:74:99:09:34:ea:11:ce:98:50:04:84:
                    6e:2e:11:2a:6f:c4:9b:2d:dc:ea:66:4a:8b:ee:2a:
                    51:dd:07:fb:3c:cd:c8:d3:5f:1d:2c:35:66:16:cf:
                    37:fa:4e:de:e0:81:0c:49:15:fd:fc:cf:bb:19:52:
                    dd:4a:d0:b2:bd:16:38:67:ec:1a:e4:3f:15:8c:c5:
                    13:a7
                Exponent: 65537 (0x10001)
        X509v3 extensions:
            X509v3 Basic Constraints: 
                CA:FALSE
            X509v3 Subject Key Identifier: 
                2F:15:F8:30:BA:47:16:69:FD:B0:AD:3C:81:6A:6A:2E:F7:20:78:2D
            X509v3 Authority Key Identifier: 
                keyid:9E:27:30:88:FA:D0:D6:EF:52:9F:DB:E1:E6:99:BB:09:8E:D9:2D:32
                DirName:/CN=team185-net
                serial:5E:23:1E:68:B1:70:11:B3:3B:43:7D:62:00:47:D8:9D:D5:DB:27:42
            X509v3 Extended Key Usage: 
                TLS Web Server Authentication
            X509v3 Key Usage: 
                Digital Signature, Key Encipherment
            X509v3 Subject Alternative Name: 
                DNS:team185-server
    Signature Algorithm: sha256WithRSAEncryption
    Signature Value:
        72:92:99:e0:55:31:06:a0:88:fd:ae:21:84:6e:62:0e:0a:2d:
        0b:d5:ef:3f:78:1a:11:e5:98:df:49:6b:0a:ce:33:2b:db:cd:
        e7:9f:a4:95:e9:8e:f1:9f:d3:2c:bd:ca:b5:91:4d:5f:1f:0b:
        46:78:d7:4d:5e:e2:02:04:58:0a:74:bb:3d:06:ee:fe:95:df:
        9b:0e:5f:ef:98:ac:b9:d0:5f:66:b1:ab:e4:c4:10:8d:c0:a3:
        76:57:f4:ca:bd:f8:de:06:b8:81:2a:16:f9:42:2b:d1:9c:91:
        f9:78:28:26:21:ff:e1:b3:82:e6:b1:d7:74:08:93:18:6a:93:
        9c:95:5c:e7:4b:8d:21:d1:a0:38:70:36:bc:43:9f:ba:a2:e6:
        14:2d:07:84:6c:a6:de:d3:b9:14:47:33:a9:4a:96:4d:e3:86:
        80:a7:44:64:6a:6b:ba:48:71:dd:cf:06:38:bd:79:31:37:0b:
        3d:a8:f6:5d:37:b4:c0:af:65:c4:1b:69:42:cf:c9:f5:7a:41:
        7a:80:07:9d:fb:4d:5b:e2:7b:0e:be:d0:ed:d6:14:4f:43:68:
        af:9b:e4:12:3f:31:c4:f3:b1:72:d1:90:a5:e9:a0:09:08:fd:
        23:34:7b:c0:b2:39:38:26:34:e4:27:28:6d:6b:17:da:5a:d9:
        4a:b5:81:e9
-----BEGIN CERTIFICATE-----
MIIDdzCCAl+gAwIBAgIQX79nQCsnIZBU4QnXcNBwoDANBgkqhkiG9w0BAQsFADAW
MRQwEgYDVQQDDAt0ZWFtMTg1LW5ldDAeFw0yMzExMDQxMDQzNThaFw0yNjEwMTkx
MDQzNThaMBkxFzAVBgNVBAMMDnRlYW0xODUtc2VydmVyMIIBIjANBgkqhkiG9w0B
AQEFAAOCAQ8AMIIBCgKCAQEApPpZ+4IdrJbq6bQFZMZIZRGxvBH01s+9NO6NaPEb
F5katL8/PK1m2+AnP9p4JZ+ArppAqNIdKiFFG078fN9Td5Jj9H7ZAe9/1HM5wqaJ
HTSiQ2keDzM2Sjn2aJ8IIRg/fKjMrNUHcUOSkeD6UZMxikANYwixfkly/vg3F8b8
xuJY/pX9TLQbUvslxxAu0KosXZ9IZBOUzaJr0CCVxQE5Uw3uCwqdaqSw+fsG0CSZ
9o7h8cqJjTvjdJkJNOoRzphQBIRuLhEqb8SbLdzqZkqL7ipR3Qf7PM3I018dLDVm
Fs83+k7e4IEMSRX9/M+7GVLdStCyvRY4Z+wa5D8VjMUTpwIDAQABo4G9MIG6MAkG
A1UdEwQCMAAwHQYDVR0OBBYEFC8V+DC6RxZp/bCtPIFqai73IHgtMFEGA1UdIwRK
MEiAFJ4nMIj60NbvUp/b4eaZuwmO2S0yoRqkGDAWMRQwEgYDVQQDDAt0ZWFtMTg1
LW5ldIIUXiMeaLFwEbM7Q31iAEfYndXbJ0IwEwYDVR0lBAwwCgYIKwYBBQUHAwEw
CwYDVR0PBAQDAgWgMBkGA1UdEQQSMBCCDnRlYW0xODUtc2VydmVyMA0GCSqGSIb3
DQEBCwUAA4IBAQBykpngVTEGoIj9riGEbmIOCi0L1e8/eBoR5ZjfSWsKzjMr283n
n6SV6Y7xn9Msvcq1kU1fHwtGeNdNXuICBFgKdLs9Bu7+ld+bDl/vmKy50F9msavk
xBCNwKN2V/TKvfjeBriBKhb5QivRnJH5eCgmIf/hs4Lmsdd0CJMYapOclVznS40h
0aA4cDa8Q5+6ouYULQeEbKbe07kURzOpSpZN44aAp0Rkamu6SHHdzwY4vXkxNws9
qPZdN7TAr2XEG2lCz8n1ekF6gAed+01b4nsOvtDt1hRPQ2ivm+QSPzHE87Fy0ZCl
6aAJCP0jNHvAsjk4JjTkJyhtaxfaWtlKtYHp
-----END CERTIFICATE-----
