Certificate:
    Data:
        Version: 3 (0x2)
        Serial Number:
            94:cc:c9:7a:6c:1d:97:22:a7:42:67:90:48:33:9c:da
        Signature Algorithm: sha256WithRSAEncryption
        Issuer: CN=team185-net
        Validity
            Not Before: Nov  4 11:31:17 2023 GMT
            Not After : Oct 19 11:31:17 2026 GMT
        Subject: CN=team185-server
        Subject Public Key Info:
            Public Key Algorithm: rsaEncryption
                Public-Key: (2048 bit)
                Modulus:
                    00:c0:b6:e2:ec:df:6b:61:7d:74:e9:d4:ec:32:03:
                    c1:f2:70:12:1f:84:5e:70:ce:5b:d7:76:f5:33:df:
                    7f:8b:6c:d6:0c:8c:6a:2b:58:76:3a:19:3c:21:fe:
                    35:b0:12:75:f4:38:8c:75:1c:08:ba:80:b3:e4:43:
                    86:eb:ea:98:40:f4:b2:f3:0f:d1:d0:8c:ba:1c:e1:
                    69:3e:21:cc:79:3b:91:c9:d9:48:f0:a3:ff:c9:b6:
                    01:8a:a6:07:56:f8:a9:b0:93:28:49:54:ce:49:f7:
                    32:a8:79:47:a5:a3:30:4e:71:42:eb:57:cb:1e:69:
                    0a:cf:8c:c8:a9:49:e5:72:86:62:10:db:78:b5:33:
                    14:d2:24:5d:44:22:45:c6:b5:7c:74:3e:f5:54:0c:
                    5b:3b:35:ab:20:64:8f:94:78:55:07:ff:55:43:25:
                    ce:64:15:e6:49:3c:23:f2:f1:f4:42:73:21:3c:c0:
                    fd:b9:06:ae:bc:ba:17:eb:cb:7f:a3:38:e5:9d:d8:
                    7f:8e:56:0a:be:3f:ee:7b:20:f8:0b:fa:b0:ae:87:
                    65:84:eb:0b:6c:8f:f4:b5:c0:8a:62:d7:3e:f6:68:
                    2b:eb:b7:d7:f4:5e:22:b9:73:71:19:e6:be:69:a2:
                    90:05:25:80:fe:ac:cb:4e:e4:c8:39:16:b0:13:00:
                    52:6f
                Exponent: 65537 (0x10001)
        X509v3 extensions:
            X509v3 Basic Constraints: 
                CA:FALSE
            X509v3 Subject Key Identifier: 
                87:4B:8B:F2:A2:6B:B4:EA:49:6E:40:22:6A:E9:D1:B5:A6:40:26:15
            X509v3 Authority Key Identifier: 
                keyid:A6:61:1D:56:56:6E:CE:70:CB:6C:16:1F:5C:2C:56:4E:7D:0F:84:93
                DirName:/CN=team185-net
                serial:59:F7:B9:9F:7F:C5:0F:2E:2D:43:D1:37:8B:29:AD:4F:3B:16:D1:F7
            X509v3 Extended Key Usage: 
                TLS Web Server Authentication
            X509v3 Key Usage: 
                Digital Signature, Key Encipherment
            X509v3 Subject Alternative Name: 
                DNS:team185-server
    Signature Algorithm: sha256WithRSAEncryption
    Signature Value:
        43:7e:18:3d:ea:c2:f2:a9:dd:7f:3d:e3:66:20:7f:17:fb:61:
        f4:72:51:02:9c:2a:bd:cc:c1:f4:f4:32:3a:a9:e0:33:25:13:
        86:e0:33:1b:ee:b1:b1:b8:d5:af:cc:8c:be:2a:ba:ff:3e:06:
        e7:c1:3b:cc:3a:6c:8e:09:40:0f:c6:a6:7e:48:44:70:dd:51:
        b3:28:d7:60:d4:33:65:e2:9a:c6:1e:b8:9b:a7:2a:bd:f2:96:
        42:62:e3:b8:b3:db:48:f2:eb:36:43:20:2d:c6:70:1c:6f:ea:
        d7:b7:ad:1f:02:35:73:d1:d7:a2:ed:e2:ec:a3:27:22:d5:5a:
        09:9a:48:d7:77:eb:da:1f:38:23:50:9d:4f:48:d5:38:24:05:
        d5:b5:82:e2:ea:4d:dd:98:85:5a:ec:68:ec:04:f3:33:7a:84:
        8d:e9:26:96:46:08:f0:53:11:a0:3f:86:fb:7f:82:a9:dc:d2:
        35:d6:0b:c1:76:be:85:dd:9f:79:f5:e3:f8:28:ff:87:48:f4:
        64:7d:ef:69:4e:ef:87:69:ab:3a:ac:40:51:30:aa:7e:c9:eb:
        1e:50:44:be:d3:fb:14:38:e6:c1:f8:49:61:27:09:28:b5:65:
        9f:f5:c4:28:9a:7d:c7:f8:9e:aa:b7:f9:93:32:90:68:84:62:
        d0:9f:3c:48
-----BEGIN CERTIFICATE-----
MIIDeDCCAmCgAwIBAgIRAJTMyXpsHZcip0JnkEgznNowDQYJKoZIhvcNAQELBQAw
FjEUMBIGA1UEAwwLdGVhbTE4NS1uZXQwHhcNMjMxMTA0MTEzMTE3WhcNMjYxMDE5
MTEzMTE3WjAZMRcwFQYDVQQDDA50ZWFtMTg1LXNlcnZlcjCCASIwDQYJKoZIhvcN
AQEBBQADggEPADCCAQoCggEBAMC24uzfa2F9dOnU7DIDwfJwEh+EXnDOW9d29TPf
f4ts1gyMaitYdjoZPCH+NbASdfQ4jHUcCLqAs+RDhuvqmED0svMP0dCMuhzhaT4h
zHk7kcnZSPCj/8m2AYqmB1b4qbCTKElUzkn3Mqh5R6WjME5xQutXyx5pCs+MyKlJ
5XKGYhDbeLUzFNIkXUQiRca1fHQ+9VQMWzs1qyBkj5R4VQf/VUMlzmQV5kk8I/Lx
9EJzITzA/bkGrry6F+vLf6M45Z3Yf45WCr4/7nsg+Av6sK6HZYTrC2yP9LXAimLX
PvZoK+u31/ReIrlzcRnmvmmikAUlgP6sy07kyDkWsBMAUm8CAwEAAaOBvTCBujAJ
BgNVHRMEAjAAMB0GA1UdDgQWBBSHS4vyomu06kluQCJq6dG1pkAmFTBRBgNVHSME
SjBIgBSmYR1WVm7OcMtsFh9cLFZOfQ+Ek6EapBgwFjEUMBIGA1UEAwwLdGVhbTE4
NS1uZXSCFFn3uZ9/xQ8uLUPRN4sprU87FtH3MBMGA1UdJQQMMAoGCCsGAQUFBwMB
MAsGA1UdDwQEAwIFoDAZBgNVHREEEjAQgg50ZWFtMTg1LXNlcnZlcjANBgkqhkiG
9w0BAQsFAAOCAQEAQ34YPerC8qndfz3jZiB/F/th9HJRApwqvczB9PQyOqngMyUT
huAzG+6xsbjVr8yMviq6/z4G58E7zDpsjglAD8amfkhEcN1RsyjXYNQzZeKaxh64
m6cqvfKWQmLjuLPbSPLrNkMgLcZwHG/q17etHwI1c9HXou3i7KMnItVaCZpI13fr
2h84I1CdT0jVOCQF1bWC4upN3ZiFWuxo7ATzM3qEjekmlkYI8FMRoD+G+3+CqdzS
NdYLwXa+hd2fefXj+Cj/h0j0ZH3vaU7vh2mrOqxAUTCqfsnrHlBEvtP7FDjmwfhJ
YScJKLVln/XEKJp9x/ieqrf5kzKQaIRi0J88SA==
-----END CERTIFICATE-----
