Certificate:
    Data:
        Version: 3 (0x2)
        Serial Number:
            0a:a9:7a:b6:e5:1a:66:3b:d5:63:7e:b6:3f:e6:76:d9
        Signature Algorithm: sha256WithRSAEncryption
        Issuer: CN=team383-net
        Validity
            Not Before: Nov  4 11:36:05 2023 GMT
            Not After : Oct 19 11:36:05 2026 GMT
        Subject: CN=team383-client
        Subject Public Key Info:
            Public Key Algorithm: rsaEncryption
                Public-Key: (2048 bit)
                Modulus:
                    00:b3:2b:05:03:ab:10:f9:e7:6c:46:eb:e2:bd:aa:
                    38:8a:d3:88:82:68:a2:67:fd:d9:cf:f5:20:0e:e1:
                    6f:34:e7:3d:f8:6e:54:e3:5f:08:d9:95:74:67:6c:
                    8e:36:79:db:52:84:a7:34:e9:30:66:ad:5d:84:be:
                    f4:88:13:bd:93:ca:ed:c8:9b:50:83:6d:da:c0:4f:
                    8d:ab:39:8e:85:11:67:22:3a:19:86:da:4c:c2:92:
                    ab:d7:9a:d2:9c:fc:54:03:43:64:1e:b1:d7:23:bc:
                    97:68:46:66:a3:ec:5f:de:c0:5f:ef:09:13:1a:41:
                    b9:f8:4f:10:67:e2:d4:ca:4d:86:8e:57:9c:06:e3:
                    76:69:55:84:16:fa:af:47:fa:a3:93:1d:d0:f8:06:
                    ef:d7:71:6f:5a:91:53:b1:3b:19:c8:ab:3a:81:d2:
                    0e:6c:b9:bc:d3:76:0c:b3:d3:b2:a4:95:49:db:2c:
                    d3:8e:ed:a1:69:61:c7:d3:84:7b:cc:8e:68:99:55:
                    c1:2c:46:19:f0:38:c1:20:4f:96:e2:87:7a:f0:75:
                    75:91:d9:cd:2d:0c:a4:34:5e:21:4b:ec:17:0f:53:
                    55:be:f2:de:a5:31:f1:a2:ed:b1:96:aa:66:83:63:
                    86:77:ff:c3:16:19:10:89:18:76:0f:1b:a9:4d:04:
                    9a:21
                Exponent: 65537 (0x10001)
        X509v3 extensions:
            X509v3 Basic Constraints: 
                CA:FALSE
            X509v3 Subject Key Identifier: 
                AF:E6:1A:6E:8E:9B:66:1C:36:A6:F9:CA:D4:4D:F2:ED:C6:32:7D:AD
            X509v3 Authority Key Identifier: 
                keyid:6B:6D:86:C3:E7:AD:1A:6C:44:4F:72:CB:78:DB:6E:CD:A6:0F:C5:AC
                DirName:/CN=team383-net
                serial:1E:87:E4:BA:9B:25:5E:F5:A5:2C:49:0D:A6:F5:72:1E:57:7F:0C:37
            X509v3 Extended Key Usage: 
                TLS Web Client Authentication
            X509v3 Key Usage: 
                Digital Signature
    Signature Algorithm: sha256WithRSAEncryption
    Signature Value:
        98:55:3e:32:4d:a5:00:5d:d4:6d:22:6f:b8:a0:48:bf:15:b9:
        ad:4f:be:d2:08:72:77:d6:1e:a6:d3:34:cd:4f:cd:5d:be:a2:
        66:db:c1:9a:25:e4:21:d0:c2:94:df:f4:0a:c7:dd:b2:f3:1d:
        6a:d4:9c:a8:35:12:92:96:77:e2:74:d5:7f:38:f8:36:0d:bb:
        83:89:25:c2:ef:c9:66:c1:7f:a7:39:b0:46:35:a0:d4:1d:60:
        69:dd:e3:8a:7a:bc:8b:39:08:a3:47:c2:e1:d5:f0:8f:ca:3a:
        9d:9f:58:6c:c5:20:99:25:07:a8:a0:27:0a:21:96:39:21:ee:
        93:f6:7e:27:9d:b9:14:70:4d:2f:18:ef:61:ce:78:f5:21:ee:
        13:f3:55:f0:e3:94:91:46:a1:56:37:00:4e:33:0c:d9:5f:69:
        59:56:0c:66:da:71:32:56:3b:fb:09:42:79:1e:eb:87:14:db:
        01:aa:05:bc:57:c8:e7:dd:b6:9c:8d:df:ce:ac:ac:f1:db:cf:
        eb:45:62:ee:3f:3f:7f:b1:5b:4e:cf:9a:9e:94:41:a9:a0:88:
        aa:24:6c:a2:de:40:a2:1b:41:63:c6:39:b3:71:c8:02:4d:75:
        e9:ad:f8:97:fe:36:3a:45:36:8b:d6:0c:b7:69:08:56:65:12:
        aa:cb:c8:eb
-----BEGIN CERTIFICATE-----
MIIDXDCCAkSgAwIBAgIQCql6tuUaZjvVY362P+Z22TANBgkqhkiG9w0BAQsFADAW
MRQwEgYDVQQDDAt0ZWFtMzgzLW5ldDAeFw0yMzExMDQxMTM2MDVaFw0yNjEwMTkx
MTM2MDVaMBkxFzAVBgNVBAMMDnRlYW0zODMtY2xpZW50MIIBIjANBgkqhkiG9w0B
AQEFAAOCAQ8AMIIBCgKCAQEAsysFA6sQ+edsRuvivao4itOIgmiiZ/3Zz/UgDuFv
NOc9+G5U418I2ZV0Z2yONnnbUoSnNOkwZq1dhL70iBO9k8rtyJtQg23awE+NqzmO
hRFnIjoZhtpMwpKr15rSnPxUA0NkHrHXI7yXaEZmo+xf3sBf7wkTGkG5+E8QZ+LU
yk2GjlecBuN2aVWEFvqvR/qjkx3Q+Abv13FvWpFTsTsZyKs6gdIObLm803YMs9Oy
pJVJ2yzTju2haWHH04R7zI5omVXBLEYZ8DjBIE+W4od68HV1kdnNLQykNF4hS+wX
D1NVvvLepTHxou2xlqpmg2OGd//DFhkQiRh2DxupTQSaIQIDAQABo4GiMIGfMAkG
A1UdEwQCMAAwHQYDVR0OBBYEFK/mGm6Om2YcNqb5ytRN8u3GMn2tMFEGA1UdIwRK
MEiAFGtthsPnrRpsRE9yy3jbbs2mD8WsoRqkGDAWMRQwEgYDVQQDDAt0ZWFtMzgz
LW5ldIIUHofkupslXvWlLEkNpvVyHld/DDcwEwYDVR0lBAwwCgYIKwYBBQUHAwIw
CwYDVR0PBAQDAgeAMA0GCSqGSIb3DQEBCwUAA4IBAQCYVT4yTaUAXdRtIm+4oEi/
FbmtT77SCHJ31h6m0zTNT81dvqJm28GaJeQh0MKU3/QKx92y8x1q1JyoNRKSlnfi
dNV/OPg2DbuDiSXC78lmwX+nObBGNaDUHWBp3eOKeryLOQijR8Lh1fCPyjqdn1hs
xSCZJQeooCcKIZY5Ie6T9n4nnbkUcE0vGO9hznj1Ie4T81Xw45SRRqFWNwBOMwzZ
X2lZVgxm2nEyVjv7CUJ5HuuHFNsBqgW8V8jn3bacjd/OrKzx28/rRWLuPz9/sVtO
z5qelEGpoIiqJGyi3kCiG0FjxjmzccgCTXXprfiX/jY6RTaL1gy3aQhWZRKqy8jr
-----END CERTIFICATE-----
