Certificate:
    Data:
        Version: 3 (0x2)
        Serial Number:
            7e:a6:d1:82:dd:0b:e1:c1:33:11:64:33:03:c4:a5:ae
        Signature Algorithm: sha256WithRSAEncryption
        Issuer: CN=team383-net
        Validity
            Not Before: Nov  4 11:36:05 2023 GMT
            Not After : Oct 19 11:36:05 2026 GMT
        Subject: CN=team383-server
        Subject Public Key Info:
            Public Key Algorithm: rsaEncryption
                Public-Key: (2048 bit)
                Modulus:
                    00:b6:cd:bd:38:93:4a:22:60:48:1f:22:c2:c3:25:
                    59:d2:cb:2d:70:c0:d7:bd:1a:2b:b7:c1:4c:b7:d9:
                    e4:bd:91:4d:7d:fb:16:35:35:b6:d3:62:13:fc:39:
                    e1:41:89:5a:e5:e9:3d:17:82:0c:86:be:11:31:ad:
                    c8:11:8a:45:29:34:f1:1e:63:7b:a6:3b:58:a4:10:
                    f1:04:26:4c:24:31:2c:37:ed:f7:ad:0c:79:c5:2e:
                    ab:dd:d1:96:81:2c:6c:c9:f6:e7:c7:11:fc:66:b9:
                    3d:ca:d4:f1:46:41:82:23:ea:9d:bb:22:82:f8:8a:
                    d2:80:5a:cd:a8:4e:08:1a:1d:55:74:f8:97:08:18:
                    9f:89:0f:b7:74:11:3b:a9:48:9f:01:88:d7:4a:1b:
                    6c:5b:7e:64:aa:f4:5e:2a:82:22:ae:80:f5:71:ae:
                    5a:63:fc:e7:09:87:b9:69:53:41:a8:96:cf:d5:0e:
                    65:db:b1:10:50:08:fe:6b:ec:59:26:06:5c:01:f9:
                    6d:2d:be:ce:4c:ea:a5:18:cf:15:2a:88:0f:0d:b6:
                    a7:14:b8:4a:9c:b5:07:82:01:ca:83:2f:2b:86:fb:
                    3c:38:ea:a0:99:46:2e:45:0e:58:33:45:dd:ba:cc:
                    21:3d:7a:99:13:7f:04:af:ec:ea:3c:73:c9:f5:4c:
                    00:6d
                Exponent: 65537 (0x10001)
        X509v3 extensions:
            X509v3 Basic Constraints: 
                CA:FALSE
            X509v3 Subject Key Identifier: 
                AD:72:3A:69:0B:F6:8D:9E:87:0F:D3:80:F6:CD:36:0C:0F:D6:C7:CB
            X509v3 Authority Key Identifier: 
                keyid:6B:6D:86:C3:E7:AD:1A:6C:44:4F:72:CB:78:DB:6E:CD:A6:0F:C5:AC
                DirName:/CN=team383-net
                serial:1E:87:E4:BA:9B:25:5E:F5:A5:2C:49:0D:A6:F5:72:1E:57:7F:0C:37
            X509v3 Extended Key Usage: 
                TLS Web Server Authentication
            X509v3 Key Usage: 
                Digital Signature, Key Encipherment
            X509v3 Subject Alternative Name: 
                DNS:team383-server
    Signature Algorithm: sha256WithRSAEncryption
    Signature Value:
        1a:0d:8e:04:b2:64:ef:c4:ff:ae:b6:58:e7:59:9c:2e:0b:92:
        c6:b3:59:94:1f:5e:72:ec:60:6d:e7:49:a5:ed:d5:b1:0e:d8:
        de:82:6e:f3:9d:22:ee:e9:e0:f1:71:56:e9:00:4b:5c:2e:a6:
        21:20:af:0d:e6:cd:7b:b0:ff:17:08:63:69:db:bd:d7:9e:c6:
        c4:28:73:34:60:b2:e2:e4:71:84:20:ad:77:f9:ce:1e:4a:24:
        10:5c:a6:d3:6d:db:ba:7f:31:50:96:08:a5:33:f0:64:80:67:
        5e:71:0a:a4:ae:42:ae:3a:dd:78:8c:46:57:f8:10:e6:81:75:
        ea:a4:f9:cb:46:a8:4e:f3:ed:5a:bb:01:e0:58:c0:c1:f4:19:
        8c:88:a4:8b:8c:e4:35:eb:b1:19:a1:e5:26:13:28:76:ca:50:
        1e:de:d4:20:96:15:1d:ba:fa:05:17:c6:71:36:1b:a7:32:ea:
        56:c5:e1:2b:86:c9:07:4c:03:d7:26:36:63:4b:79:8e:b5:b7:
        74:9c:86:26:aa:84:bc:be:0f:f3:49:e0:e6:8a:18:ed:ff:21:
        f0:fd:cb:ad:a1:67:73:d3:4c:6b:23:b7:9b:a2:5a:a1:64:af:
        2e:44:34:f0:3f:33:3e:58:03:b6:aa:8c:38:e1:d0:49:6a:04:
        51:be:2e:da
-----BEGIN CERTIFICATE-----
MIIDdzCCAl+gAwIBAgIQfqbRgt0L4cEzEWQzA8SlrjANBgkqhkiG9w0BAQsFADAW
MRQwEgYDVQQDDAt0ZWFtMzgzLW5ldDAeFw0yMzExMDQxMTM2MDVaFw0yNjEwMTkx
MTM2MDVaMBkxFzAVBgNVBAMMDnRlYW0zODMtc2VydmVyMIIBIjANBgkqhkiG9w0B
AQEFAAOCAQ8AMIIBCgKCAQEAts29OJNKImBIHyLCwyVZ0sstcMDXvRort8FMt9nk
vZFNffsWNTW202IT/DnhQYla5ek9F4IMhr4RMa3IEYpFKTTxHmN7pjtYpBDxBCZM
JDEsN+33rQx5xS6r3dGWgSxsyfbnxxH8Zrk9ytTxRkGCI+qduyKC+IrSgFrNqE4I
Gh1VdPiXCBifiQ+3dBE7qUifAYjXShtsW35kqvReKoIiroD1ca5aY/znCYe5aVNB
qJbP1Q5l27EQUAj+a+xZJgZcAfltLb7OTOqlGM8VKogPDbanFLhKnLUHggHKgy8r
hvs8OOqgmUYuRQ5YM0XduswhPXqZE38Er+zqPHPJ9UwAbQIDAQABo4G9MIG6MAkG
A1UdEwQCMAAwHQYDVR0OBBYEFK1yOmkL9o2ehw/TgPbNNgwP1sfLMFEGA1UdIwRK
MEiAFGtthsPnrRpsRE9yy3jbbs2mD8WsoRqkGDAWMRQwEgYDVQQDDAt0ZWFtMzgz
LW5ldIIUHofkupslXvWlLEkNpvVyHld/DDcwEwYDVR0lBAwwCgYIKwYBBQUHAwEw
CwYDVR0PBAQDAgWgMBkGA1UdEQQSMBCCDnRlYW0zODMtc2VydmVyMA0GCSqGSIb3
DQEBCwUAA4IBAQAaDY4EsmTvxP+utljnWZwuC5LGs1mUH15y7GBt50ml7dWxDtje
gm7znSLu6eDxcVbpAEtcLqYhIK8N5s17sP8XCGNp273XnsbEKHM0YLLi5HGEIK13
+c4eSiQQXKbTbdu6fzFQlgilM/BkgGdecQqkrkKuOt14jEZX+BDmgXXqpPnLRqhO
8+1auwHgWMDB9BmMiKSLjOQ167EZoeUmEyh2ylAe3tQglhUduvoFF8ZxNhunMupW
xeErhskHTAPXJjZjS3mOtbd0nIYmqoS8vg/zSeDmihjt/yHw/cutoWdz00xrI7eb
olqhZK8uRDTwPzM+WAO2qow44dBJagRRvi7a
-----END CERTIFICATE-----
