Certificate:
    Data:
        Version: 3 (0x2)
        Serial Number:
            8d:4d:be:81:a5:a2:1c:78:c1:3c:08:0e:3d:2b:a6:cb
        Signature Algorithm: sha256WithRSAEncryption
        Issuer: CN=team383-net
        Validity
            Not Before: Nov  3 20:46:10 2023 GMT
            Not After : Oct 18 20:46:10 2026 GMT
        Subject: CN=team383-client
        Subject Public Key Info:
            Public Key Algorithm: rsaEncryption
                Public-Key: (2048 bit)
                Modulus:
                    00:9b:99:b2:76:23:ff:b8:d9:9d:fb:b1:11:42:58:
                    41:c8:e2:a1:40:b6:5c:d5:db:45:85:6a:69:5e:0c:
                    c0:c1:27:81:be:ae:b3:ab:0c:fb:9c:6f:22:f7:89:
                    e5:76:3d:98:c2:86:b3:b1:cd:3b:93:5d:ce:07:70:
                    a6:01:9e:12:cf:49:22:57:cd:93:62:9c:48:86:9e:
                    34:26:eb:4f:f0:eb:a2:d1:31:35:b7:09:1e:d2:2b:
                    ab:69:ef:cc:cf:e2:24:fc:34:b3:4e:5c:04:a5:ab:
                    82:d4:86:84:f3:94:6f:20:21:7c:43:85:7b:d4:d5:
                    f4:9b:62:2f:d9:1f:0a:6d:4a:21:59:b5:af:53:45:
                    7b:90:2e:93:97:da:0c:39:01:70:20:3d:ac:31:b5:
                    c5:36:76:81:8e:b5:6e:2b:b8:f0:cb:0f:10:f2:4b:
                    64:c3:20:e9:b0:f3:2c:d7:8c:ea:79:f7:34:e8:6a:
                    df:b5:ce:e1:11:4c:37:6e:e4:22:b9:54:9e:ab:f3:
                    b2:5f:9b:29:21:5d:ac:0a:0b:a8:84:7c:1c:a2:b5:
                    3b:98:43:9d:dc:4a:f4:a7:2d:fb:a3:f8:10:10:71:
                    72:a5:55:81:20:de:2d:0b:24:fc:41:03:ad:55:cc:
                    ee:21:8a:82:4f:66:e4:3c:9b:f0:94:8b:3a:13:9d:
                    65:21
                Exponent: 65537 (0x10001)
        X509v3 extensions:
            X509v3 Basic Constraints: 
                CA:FALSE
            X509v3 Subject Key Identifier: 
                F3:48:4D:62:DC:F1:97:72:2B:A9:48:3D:A5:C6:D1:DF:88:01:25:82
            X509v3 Authority Key Identifier: 
                keyid:2B:06:63:70:E5:2F:0D:63:FC:ED:F8:00:E4:4C:7C:6A:1D:96:C6:10
                DirName:/CN=team383-net
                serial:12:1F:9F:1D:47:83:9E:18:D7:4A:47:CE:28:73:77:90:4F:5C:4E:C7
            X509v3 Extended Key Usage: 
                TLS Web Client Authentication
            X509v3 Key Usage: 
                Digital Signature
    Signature Algorithm: sha256WithRSAEncryption
    Signature Value:
        a2:d2:5c:e8:85:10:f5:34:23:c5:a4:f4:aa:10:8f:82:f3:30:
        31:67:9c:cf:88:a7:89:97:7f:6a:1d:5e:a3:e7:a7:6d:4e:f9:
        1b:85:e4:89:2e:63:72:93:d7:e9:a3:e5:78:87:1f:fa:b7:95:
        45:d7:4b:4d:ef:c0:78:5e:87:26:d8:e1:25:34:14:e5:29:33:
        7b:1c:bf:6e:a0:c1:10:d2:1c:07:ae:31:a6:c7:7e:f4:51:f6:
        23:41:5e:ad:b1:e3:b6:e0:e2:10:8b:a8:0f:dd:e0:7d:98:ee:
        f4:c5:30:9c:0d:7b:95:ed:65:3c:d0:81:72:00:8d:9b:67:12:
        a7:ac:d1:0e:3e:cd:cb:e4:05:64:4e:18:2a:c2:5f:a9:9a:23:
        e4:f2:54:7c:2d:fa:3b:7b:d5:c3:27:05:43:39:00:b3:49:4c:
        fa:4e:c0:50:e0:fa:72:69:74:27:11:1d:73:08:d7:d7:92:e4:
        56:34:97:b1:89:d4:f9:30:79:3a:9f:5c:cc:64:a4:7c:dc:6d:
        dc:9d:68:7f:3e:2a:14:6c:83:03:6b:05:96:9a:a7:e9:e6:88:
        d1:65:b3:ce:c8:56:3a:95:10:3d:14:40:1f:67:1d:41:f3:ff:
        34:78:f4:7d:ae:f7:cf:56:ab:f8:a8:95:83:e8:c3:de:2e:98:
        f0:64:ac:7b
-----BEGIN CERTIFICATE-----
MIIDXTCCAkWgAwIBAgIRAI1NvoGlohx4wTwIDj0rpsswDQYJKoZIhvcNAQELBQAw
FjEUMBIGA1UEAwwLdGVhbTM4My1uZXQwHhcNMjMxMTAzMjA0NjEwWhcNMjYxMDE4
MjA0NjEwWjAZMRcwFQYDVQQDDA50ZWFtMzgzLWNsaWVudDCCASIwDQYJKoZIhvcN
AQEBBQADggEPADCCAQoCggEBAJuZsnYj/7jZnfuxEUJYQcjioUC2XNXbRYVqaV4M
wMEngb6us6sM+5xvIveJ5XY9mMKGs7HNO5NdzgdwpgGeEs9JIlfNk2KcSIaeNCbr
T/DrotExNbcJHtIrq2nvzM/iJPw0s05cBKWrgtSGhPOUbyAhfEOFe9TV9JtiL9kf
Cm1KIVm1r1NFe5Auk5faDDkBcCA9rDG1xTZ2gY61biu48MsPEPJLZMMg6bDzLNeM
6nn3NOhq37XO4RFMN27kIrlUnqvzsl+bKSFdrAoLqIR8HKK1O5hDndxK9Kct+6P4
EBBxcqVVgSDeLQsk/EEDrVXM7iGKgk9m5Dyb8JSLOhOdZSECAwEAAaOBojCBnzAJ
BgNVHRMEAjAAMB0GA1UdDgQWBBTzSE1i3PGXciupSD2lxtHfiAElgjBRBgNVHSME
SjBIgBQrBmNw5S8NY/zt+ADkTHxqHZbGEKEapBgwFjEUMBIGA1UEAwwLdGVhbTM4
My1uZXSCFBIfnx1Hg54Y10pHzihzd5BPXE7HMBMGA1UdJQQMMAoGCCsGAQUFBwMC
MAsGA1UdDwQEAwIHgDANBgkqhkiG9w0BAQsFAAOCAQEAotJc6IUQ9TQjxaT0qhCP
gvMwMWecz4iniZd/ah1eo+enbU75G4XkiS5jcpPX6aPleIcf+reVRddLTe/AeF6H
JtjhJTQU5Skzexy/bqDBENIcB64xpsd+9FH2I0FerbHjtuDiEIuoD93gfZju9MUw
nA17le1lPNCBcgCNm2cSp6zRDj7Ny+QFZE4YKsJfqZoj5PJUfC36O3vVwycFQzkA
s0lM+k7AUOD6cml0JxEdcwjX15LkVjSXsYnU+TB5Op9czGSkfNxt3J1ofz4qFGyD
A2sFlpqn6eaI0WWzzshWOpUQPRRAH2cdQfP/NHj0fa73z1ar+KiVg+jD3i6Y8GSs
ew==
-----END CERTIFICATE-----
