Certificate:
    Data:
        Version: 3 (0x2)
        Serial Number:
            24:9e:e8:64:a8:50:3e:24:38:5f:4c:71:9d:1c:2e:b4
        Signature Algorithm: sha256WithRSAEncryption
        Issuer: CN=team73-net
        Validity
            Not Before: Nov  3 20:40:28 2023 GMT
            Not After : Oct 18 20:40:28 2026 GMT
        Subject: CN=team73-client
        Subject Public Key Info:
            Public Key Algorithm: rsaEncryption
                Public-Key: (2048 bit)
                Modulus:
                    00:af:e7:c7:46:25:59:77:b6:2e:90:e2:60:b4:bc:
                    8c:b1:09:a8:2b:24:dd:a8:df:73:8f:ad:b3:dc:1c:
                    c2:aa:82:90:95:8c:78:0d:6e:77:57:97:b3:8d:27:
                    88:6d:1b:99:fa:19:ac:51:8f:c8:31:ab:d8:e4:84:
                    f3:8e:58:ac:1c:d7:96:62:f2:12:57:cb:3f:39:45:
                    c0:b3:5d:31:24:fd:7d:61:26:aa:40:cb:78:75:f3:
                    79:2b:ea:bf:fb:a0:f8:79:d7:c7:14:f1:51:48:18:
                    ca:4b:ff:2d:7d:8c:b3:a4:94:a4:95:1e:a4:37:ea:
                    f5:3a:f9:64:f9:0f:47:9f:d2:73:f2:56:ac:ab:cd:
                    3c:4f:13:f6:20:8a:fd:40:62:99:0a:0f:33:32:82:
                    be:53:48:cb:75:77:7f:40:38:78:14:1f:29:6a:03:
                    5c:6c:f4:eb:06:11:6f:b6:e8:50:81:47:27:2a:ea:
                    e1:8a:91:6a:33:02:39:a9:a0:26:32:c2:de:13:e8:
                    8c:7c:ad:78:6a:e6:c2:81:1d:fa:57:b4:e0:19:3e:
                    5a:ab:1b:82:f7:21:28:a8:ea:50:81:9a:85:05:91:
                    e7:c4:4e:2c:8e:08:14:81:19:06:8a:a7:95:93:74:
                    43:d4:9f:f4:47:a6:22:00:16:29:2f:47:fa:27:d8:
                    56:7d
                Exponent: 65537 (0x10001)
        X509v3 extensions:
            X509v3 Basic Constraints: 
                CA:FALSE
            X509v3 Subject Key Identifier: 
                CD:57:0E:57:8A:CE:96:EC:15:70:F1:F5:1F:C5:42:1E:D4:77:67:71
            X509v3 Authority Key Identifier: 
                keyid:33:41:CB:9D:06:F2:B4:D4:1B:2F:1D:D5:21:3F:2D:24:5B:99:85:0F
                DirName:/CN=team73-net
                serial:06:0D:8A:B0:75:E0:48:05:B1:64:68:BB:E9:4E:A1:C4:6E:E1:24:7D
            X509v3 Extended Key Usage: 
                TLS Web Client Authentication
            X509v3 Key Usage: 
                Digital Signature
    Signature Algorithm: sha256WithRSAEncryption
    Signature Value:
        89:29:1c:8b:d3:de:82:10:21:e6:c0:33:07:6a:f7:4b:ef:3d:
        bb:a8:e4:1a:dd:f5:d4:e0:68:05:6f:89:31:e1:14:0d:60:5f:
        c6:0f:dd:42:a5:92:02:a5:f4:aa:67:0f:93:35:20:90:43:ea:
        fb:34:2f:91:55:0a:7a:51:e6:f5:da:2f:a4:b8:3c:c5:6a:ff:
        b5:10:bd:38:8c:96:8f:3f:66:0d:74:e7:10:3a:4f:ee:d3:0b:
        ec:64:c7:b7:87:70:b5:3a:77:65:42:08:46:a5:72:0d:ff:ed:
        0a:64:0a:92:43:44:dc:0f:e8:e8:28:c6:22:01:7b:f5:b1:9a:
        ef:bb:d2:4c:19:94:bd:e2:15:fb:65:ab:84:e9:17:66:89:11:
        d0:ab:f2:7e:e9:57:b7:a0:c6:5b:7f:ce:ba:1c:c0:1a:35:0c:
        fa:ab:75:9a:36:18:34:24:1d:1c:3f:fb:83:8e:db:d3:7d:7f:
        7a:03:f3:c4:a5:29:94:6e:a0:34:cf:35:83:61:bf:5b:30:3e:
        8e:b2:c6:d1:a1:c8:97:da:01:58:8b:b3:d7:c3:ed:9c:03:51:
        aa:12:84:b6:90:96:0b:fc:5b:e1:0b:57:bc:7d:e2:d9:df:61:
        55:1f:b8:dc:78:f8:84:38:45:b3:bd:98:16:9c:d3:e3:ca:21:
        66:10:d3:d8
-----BEGIN CERTIFICATE-----
MIIDWTCCAkGgAwIBAgIQJJ7oZKhQPiQ4X0xxnRwutDANBgkqhkiG9w0BAQsFADAV
MRMwEQYDVQQDDAp0ZWFtNzMtbmV0MB4XDTIzMTEwMzIwNDAyOFoXDTI2MTAxODIw
NDAyOFowGDEWMBQGA1UEAwwNdGVhbTczLWNsaWVudDCCASIwDQYJKoZIhvcNAQEB
BQADggEPADCCAQoCggEBAK/nx0YlWXe2LpDiYLS8jLEJqCsk3ajfc4+ts9wcwqqC
kJWMeA1ud1eXs40niG0bmfoZrFGPyDGr2OSE845YrBzXlmLyElfLPzlFwLNdMST9
fWEmqkDLeHXzeSvqv/ug+HnXxxTxUUgYykv/LX2Ms6SUpJUepDfq9Tr5ZPkPR5/S
c/JWrKvNPE8T9iCK/UBimQoPMzKCvlNIy3V3f0A4eBQfKWoDXGz06wYRb7boUIFH
Jyrq4YqRajMCOamgJjLC3hPojHyteGrmwoEd+le04Bk+WqsbgvchKKjqUIGahQWR
58ROLI4IFIEZBoqnlZN0Q9Sf9EemIgAWKS9H+ifYVn0CAwEAAaOBoTCBnjAJBgNV
HRMEAjAAMB0GA1UdDgQWBBTNVw5Xis6W7BVw8fUfxUIe1HdncTBQBgNVHSMESTBH
gBQzQcudBvK01BsvHdUhPy0kW5mFD6EZpBcwFTETMBEGA1UEAwwKdGVhbTczLW5l
dIIUBg2KsHXgSAWxZGi76U6hxG7hJH0wEwYDVR0lBAwwCgYIKwYBBQUHAwIwCwYD
VR0PBAQDAgeAMA0GCSqGSIb3DQEBCwUAA4IBAQCJKRyL096CECHmwDMHavdL7z27
qOQa3fXU4GgFb4kx4RQNYF/GD91CpZICpfSqZw+TNSCQQ+r7NC+RVQp6Ueb12i+k
uDzFav+1EL04jJaPP2YNdOcQOk/u0wvsZMe3h3C1OndlQghGpXIN/+0KZAqSQ0Tc
D+joKMYiAXv1sZrvu9JMGZS94hX7ZauE6RdmiRHQq/J+6Ve3oMZbf866HMAaNQz6
q3WaNhg0JB0cP/uDjtvTfX96A/PEpSmUbqA0zzWDYb9bMD6OssbRociX2gFYi7PX
w+2cA1GqEoS2kJYL/FvhC1e8feLZ32FVH7jcePiEOEWzvZgWnNPjyiFmENPY
-----END CERTIFICATE-----
