Certificate:
    Data:
        Version: 3 (0x2)
        Serial Number:
            25:de:56:15:20:14:96:c5:d6:78:24:bf:44:3b:d2:08
        Signature Algorithm: sha256WithRSAEncryption
        Issuer: CN=team73-net
        Validity
            Not Before: Nov  3 20:40:28 2023 GMT
            Not After : Oct 18 20:40:28 2026 GMT
        Subject: CN=team73-server
        Subject Public Key Info:
            Public Key Algorithm: rsaEncryption
                Public-Key: (2048 bit)
                Modulus:
                    00:98:e0:f0:f9:65:33:df:13:2e:66:70:94:3f:95:
                    b1:7b:4c:26:d3:6a:96:62:2c:1b:50:67:45:1a:b5:
                    b8:ee:0b:9e:ed:45:05:ad:42:48:c3:36:7a:24:4f:
                    91:0f:a9:c8:3d:fb:b1:01:5d:97:74:dd:65:32:81:
                    22:48:b6:a2:3a:4b:a7:a8:4d:d2:0c:ea:05:f6:60:
                    3c:9c:24:da:c8:95:f3:48:68:f2:0d:1b:30:87:bd:
                    69:85:d2:f5:1b:7e:a5:2c:74:3b:a5:fa:f3:3f:a7:
                    a5:de:52:01:7e:af:f7:0c:50:9a:2d:3f:1c:5e:49:
                    f6:70:28:53:0d:06:41:f8:6a:52:35:83:47:78:ac:
                    c8:fb:66:fb:b8:0a:23:ed:b8:1b:4a:b7:62:ef:87:
                    8e:bd:90:3c:5a:1a:d9:58:24:75:8b:b1:88:8f:ce:
                    16:99:d2:79:43:43:a8:ce:73:04:11:91:53:95:ba:
                    fa:98:ef:32:aa:e9:4d:bb:4e:82:2a:03:d0:6a:59:
                    4d:0b:fd:c9:b5:60:b4:2f:a6:13:16:25:dd:c8:cf:
                    ca:fe:a3:0a:73:fe:62:0a:df:7f:5a:9f:25:c1:b4:
                    3b:c0:42:00:78:56:1a:df:a3:a0:49:1f:82:01:2f:
                    02:3b:07:5e:ca:74:8b:48:a9:cf:40:2f:99:60:e9:
                    21:83
                Exponent: 65537 (0x10001)
        X509v3 extensions:
            X509v3 Basic Constraints: 
                CA:FALSE
            X509v3 Subject Key Identifier: 
                D0:4D:D4:29:25:24:CB:76:D0:24:E6:34:C8:45:00:CD:FF:9E:CA:A9
            X509v3 Authority Key Identifier: 
                keyid:33:41:CB:9D:06:F2:B4:D4:1B:2F:1D:D5:21:3F:2D:24:5B:99:85:0F
                DirName:/CN=team73-net
                serial:06:0D:8A:B0:75:E0:48:05:B1:64:68:BB:E9:4E:A1:C4:6E:E1:24:7D
            X509v3 Extended Key Usage: 
                TLS Web Server Authentication
            X509v3 Key Usage: 
                Digital Signature, Key Encipherment
            X509v3 Subject Alternative Name: 
                DNS:team73-server
    Signature Algorithm: sha256WithRSAEncryption
    Signature Value:
        2d:ae:5d:dd:d0:d3:62:cc:69:da:52:fe:db:5c:23:62:c1:6d:
        02:49:cd:1a:a2:f1:f4:5a:8f:41:8f:97:10:4a:d3:36:c1:75:
        9b:6e:c1:ab:38:2f:ca:fd:24:e4:99:c7:12:35:24:13:bd:45:
        e5:23:84:91:83:2e:3c:55:61:b1:e0:c0:b1:d0:e7:a9:17:0e:
        e1:e5:af:df:78:dc:da:ea:85:a4:5f:7d:b1:48:79:93:f9:53:
        88:d4:ec:9f:c0:88:7f:78:3c:9f:22:bb:6e:d3:ff:71:3c:90:
        ba:34:d9:b2:bd:2f:b6:70:47:51:ca:44:d8:b4:2e:a7:4f:19:
        d3:c4:22:ab:3a:d3:01:ac:f4:3f:18:fd:04:29:c6:45:8c:a2:
        35:12:9e:ab:23:13:8a:33:78:8f:3e:4f:b1:ee:b7:58:d6:48:
        45:04:51:b8:02:d0:41:2e:24:e8:5e:69:eb:67:b3:18:28:c4:
        fa:31:4d:06:6a:db:5a:cb:bf:32:41:6a:ae:2f:69:53:4d:f5:
        49:53:3e:2c:7f:8a:ce:c0:0a:00:82:a1:c5:61:ce:81:49:d5:
        14:91:10:a1:5a:6d:e8:54:8d:78:ff:f8:51:68:a3:59:da:9d:
        8f:e0:74:8d:d0:cf:13:cc:5f:ab:47:74:a0:c0:00:a8:66:20:
        e4:3a:a3:e9
-----BEGIN CERTIFICATE-----
MIIDczCCAlugAwIBAgIQJd5WFSAUlsXWeCS/RDvSCDANBgkqhkiG9w0BAQsFADAV
MRMwEQYDVQQDDAp0ZWFtNzMtbmV0MB4XDTIzMTEwMzIwNDAyOFoXDTI2MTAxODIw
NDAyOFowGDEWMBQGA1UEAwwNdGVhbTczLXNlcnZlcjCCASIwDQYJKoZIhvcNAQEB
BQADggEPADCCAQoCggEBAJjg8PllM98TLmZwlD+VsXtMJtNqlmIsG1BnRRq1uO4L
nu1FBa1CSMM2eiRPkQ+pyD37sQFdl3TdZTKBIki2ojpLp6hN0gzqBfZgPJwk2siV
80ho8g0bMIe9aYXS9Rt+pSx0O6X68z+npd5SAX6v9wxQmi0/HF5J9nAoUw0GQfhq
UjWDR3isyPtm+7gKI+24G0q3Yu+Hjr2QPFoa2VgkdYuxiI/OFpnSeUNDqM5zBBGR
U5W6+pjvMqrpTbtOgioD0GpZTQv9ybVgtC+mExYl3cjPyv6jCnP+Ygrff1qfJcG0
O8BCAHhWGt+joEkfggEvAjsHXsp0i0ipz0AvmWDpIYMCAwEAAaOBuzCBuDAJBgNV
HRMEAjAAMB0GA1UdDgQWBBTQTdQpJSTLdtAk5jTIRQDN/57KqTBQBgNVHSMESTBH
gBQzQcudBvK01BsvHdUhPy0kW5mFD6EZpBcwFTETMBEGA1UEAwwKdGVhbTczLW5l
dIIUBg2KsHXgSAWxZGi76U6hxG7hJH0wEwYDVR0lBAwwCgYIKwYBBQUHAwEwCwYD
VR0PBAQDAgWgMBgGA1UdEQQRMA+CDXRlYW03My1zZXJ2ZXIwDQYJKoZIhvcNAQEL
BQADggEBAC2uXd3Q02LMadpS/ttcI2LBbQJJzRqi8fRaj0GPlxBK0zbBdZtuwas4
L8r9JOSZxxI1JBO9ReUjhJGDLjxVYbHgwLHQ56kXDuHlr9943NrqhaRffbFIeZP5
U4jU7J/AiH94PJ8iu27T/3E8kLo02bK9L7ZwR1HKRNi0LqdPGdPEIqs60wGs9D8Y
/QQpxkWMojUSnqsjE4ozeI8+T7Hut1jWSEUEUbgC0EEuJOheaetnsxgoxPoxTQZq
21rLvzJBaq4vaVNN9UlTPix/is7ACgCCocVhzoFJ1RSREKFabehUjXj/+FFoo1na
nY/gdI3QzxPMX6tHdKDAAKhmIOQ6o+k=
-----END CERTIFICATE-----
