Certificate:
    Data:
        Version: 3 (0x2)
        Serial Number:
            35:2a:c7:d9:b5:ad:99:ee:2d:de:ff:78:35:46:e4:a0
        Signature Algorithm: sha256WithRSAEncryption
        Issuer: CN=team73-net
        Validity
            Not Before: Nov  4 10:41:43 2023 GMT
            Not After : Oct 19 10:41:43 2026 GMT
        Subject: CN=team73-client
        Subject Public Key Info:
            Public Key Algorithm: rsaEncryption
                Public-Key: (2048 bit)
                Modulus:
                    00:e1:2b:19:85:3b:fb:41:9d:a9:d2:ce:c0:05:a1:
                    f8:21:2d:ca:7b:fc:ff:16:4d:37:9c:f5:fb:4d:f3:
                    7c:32:29:65:57:80:1a:43:7c:fa:f2:70:c5:95:40:
                    ee:ab:4c:3f:eb:61:11:01:d1:3f:f6:09:80:09:c6:
                    c5:77:8f:7b:5d:00:68:2b:a8:98:02:51:b7:61:8d:
                    af:19:21:9c:a1:25:42:c2:26:e0:46:5b:54:9b:b8:
                    21:2c:96:6e:46:79:90:4f:be:73:4f:43:27:f6:d7:
                    ad:45:42:0f:97:ab:96:58:da:f8:ed:05:ec:0e:f3:
                    7e:51:34:05:43:d1:5c:13:6a:39:d9:99:bd:12:d9:
                    48:17:e5:57:38:80:1d:20:f5:2c:a8:e2:9b:82:fb:
                    5c:11:69:5e:cc:a2:20:eb:37:53:ec:a0:d9:e8:19:
                    6b:71:27:59:3c:06:e2:4b:89:eb:bd:c7:38:d5:7f:
                    f2:19:b3:b4:11:eb:74:2e:a4:36:0b:7b:99:f5:10:
                    f8:07:64:21:d7:a4:d6:8e:06:9a:65:c1:fd:68:88:
                    cd:d5:80:5f:b8:a3:4b:1d:8d:78:c5:4b:7b:bd:15:
                    4f:a8:f4:48:4e:8b:40:d6:99:b5:12:d7:e7:88:50:
                    5f:9e:b3:f5:7e:ed:43:36:97:ff:bd:09:8f:22:9e:
                    e3:03
                Exponent: 65537 (0x10001)
        X509v3 extensions:
            X509v3 Basic Constraints: 
                CA:FALSE
            X509v3 Subject Key Identifier: 
                9F:D0:BD:BF:12:E7:B9:06:38:37:93:14:A3:E0:9C:6C:E7:F6:1A:06
            X509v3 Authority Key Identifier: 
                keyid:8E:B1:5C:AA:C7:81:64:33:62:89:90:4E:64:98:A0:E8:52:E0:19:39
                DirName:/CN=team73-net
                serial:25:74:4A:0A:5C:E7:B7:A8:4E:14:7D:BF:6F:A0:9A:68:E0:99:2B:F1
            X509v3 Extended Key Usage: 
                TLS Web Client Authentication
            X509v3 Key Usage: 
                Digital Signature
    Signature Algorithm: sha256WithRSAEncryption
    Signature Value:
        ac:ca:75:dd:8a:bc:1c:d8:68:7c:20:f3:fd:d3:e3:35:12:eb:
        69:40:67:0c:6d:0c:b8:09:49:26:42:5e:1d:5d:91:d8:3a:f4:
        76:a8:12:07:d7:d0:29:eb:4d:25:a2:c5:74:13:d5:ad:22:d0:
        30:c3:91:c3:d7:7a:d8:89:2d:36:b3:c0:8e:2f:cc:90:79:36:
        cb:50:0e:ca:36:81:e7:52:18:97:08:61:b3:09:90:1d:65:20:
        77:ae:38:36:8d:ba:2d:12:ee:e4:bf:e8:72:d7:51:34:ba:23:
        1d:91:ef:c3:0a:0d:40:2a:79:c3:69:fb:a3:fa:ea:0c:d9:8d:
        b9:cb:61:05:4c:b4:0b:ee:90:1c:b8:67:41:7e:12:45:06:0d:
        23:70:9b:2d:f2:8e:ed:7d:51:c0:5c:4d:87:05:75:05:7f:01:
        aa:93:b5:6d:97:03:f9:94:39:7e:0f:20:0c:44:43:2b:7b:8f:
        f6:7c:c5:c4:ca:90:a8:46:67:fb:ba:df:a0:c9:6f:6c:33:c8:
        15:cd:5e:c1:12:40:fe:2e:3b:5a:1b:cc:5d:46:ad:b3:42:a7:
        39:c1:15:da:bf:e0:2b:d7:de:e9:1a:b3:49:9b:1f:81:75:bb:
        61:13:42:da:0e:46:8d:9d:b3:1b:f0:33:2f:ed:b8:0a:6d:8d:
        6b:a4:d0:17
-----BEGIN CERTIFICATE-----
MIIDWTCCAkGgAwIBAgIQNSrH2bWtme4t3v94NUbkoDANBgkqhkiG9w0BAQsFADAV
MRMwEQYDVQQDDAp0ZWFtNzMtbmV0MB4XDTIzMTEwNDEwNDE0M1oXDTI2MTAxOTEw
NDE0M1owGDEWMBQGA1UEAwwNdGVhbTczLWNsaWVudDCCASIwDQYJKoZIhvcNAQEB
BQADggEPADCCAQoCggEBAOErGYU7+0GdqdLOwAWh+CEtynv8/xZNN5z1+03zfDIp
ZVeAGkN8+vJwxZVA7qtMP+thEQHRP/YJgAnGxXePe10AaCuomAJRt2GNrxkhnKEl
QsIm4EZbVJu4ISyWbkZ5kE++c09DJ/bXrUVCD5erllja+O0F7A7zflE0BUPRXBNq
OdmZvRLZSBflVziAHSD1LKjim4L7XBFpXsyiIOs3U+yg2egZa3EnWTwG4kuJ673H
ONV/8hmztBHrdC6kNgt7mfUQ+AdkIdek1o4GmmXB/WiIzdWAX7ijSx2NeMVLe70V
T6j0SE6LQNaZtRLX54hQX56z9X7tQzaX/70JjyKe4wMCAwEAAaOBoTCBnjAJBgNV
HRMEAjAAMB0GA1UdDgQWBBSf0L2/Eue5Bjg3kxSj4Jxs5/YaBjBQBgNVHSMESTBH
gBSOsVyqx4FkM2KJkE5kmKDoUuAZOaEZpBcwFTETMBEGA1UEAwwKdGVhbTczLW5l
dIIUJXRKClznt6hOFH2/b6CaaOCZK/EwEwYDVR0lBAwwCgYIKwYBBQUHAwIwCwYD
VR0PBAQDAgeAMA0GCSqGSIb3DQEBCwUAA4IBAQCsynXdirwc2Gh8IPP90+M1Eutp
QGcMbQy4CUkmQl4dXZHYOvR2qBIH19Ap600losV0E9WtItAww5HD13rYiS02s8CO
L8yQeTbLUA7KNoHnUhiXCGGzCZAdZSB3rjg2jbotEu7kv+hy11E0uiMdke/DCg1A
KnnDafuj+uoM2Y25y2EFTLQL7pAcuGdBfhJFBg0jcJst8o7tfVHAXE2HBXUFfwGq
k7VtlwP5lDl+DyAMREMre4/2fMXEypCoRmf7ut+gyW9sM8gVzV7BEkD+LjtaG8xd
Rq2zQqc5wRXav+Ar197pGrNJmx+BdbthE0LaDkaNnbMb8DMv7bgKbY1rpNAX
-----END CERTIFICATE-----
