Certificate:
    Data:
        Version: 3 (0x2)
        Serial Number:
            3e:bc:7e:77:68:5d:cf:e1:1e:37:a6:4a:8e:b2:ce:4d
        Signature Algorithm: sha256WithRSAEncryption
        Issuer: CN=team73-net
        Validity
            Not Before: Nov  4 11:28:47 2023 GMT
            Not After : Oct 19 11:28:47 2026 GMT
        Subject: CN=team73-client
        Subject Public Key Info:
            Public Key Algorithm: rsaEncryption
                Public-Key: (2048 bit)
                Modulus:
                    00:d1:40:7b:25:8c:fa:a1:ed:68:9a:d1:83:f4:44:
                    a7:b7:d8:91:8f:80:24:52:26:ad:94:0e:aa:8f:84:
                    87:72:0b:0e:6b:e4:8e:7e:d1:8c:c7:72:70:b1:62:
                    13:ab:05:d0:7c:14:e6:cf:8f:29:a0:e2:cb:7e:17:
                    27:07:b5:ae:5c:53:ce:30:cc:37:94:5e:c9:78:96:
                    16:ce:c5:bd:8b:14:ea:b9:71:01:06:23:e2:86:22:
                    f3:99:fd:78:13:38:08:0a:01:57:0e:76:c0:2b:b6:
                    e1:47:a7:ed:49:83:9a:75:57:ab:9c:c0:56:77:c9:
                    71:20:1a:16:b2:73:51:a4:09:69:66:be:c2:d2:69:
                    38:86:7e:e6:74:d2:81:bd:a6:6c:42:03:15:2c:8d:
                    32:4b:b3:9b:ca:f8:ed:2b:1b:a7:81:ec:5e:40:df:
                    c9:a6:54:61:61:91:c7:6d:9b:2a:d1:2c:c9:b3:4f:
                    3b:fd:e3:5a:99:5d:d5:96:a0:63:79:04:69:b6:57:
                    3b:36:41:a4:3f:2d:89:bf:97:52:16:e2:34:4e:1d:
                    61:78:6a:23:d3:40:74:6d:15:ef:bf:88:bf:61:77:
                    13:3b:62:c0:36:81:46:80:03:64:86:67:97:4d:9e:
                    4b:43:54:e2:40:0f:b1:87:c8:5c:a7:5d:96:13:d0:
                    3e:0d
                Exponent: 65537 (0x10001)
        X509v3 extensions:
            X509v3 Basic Constraints: 
                CA:FALSE
            X509v3 Subject Key Identifier: 
                57:53:AC:A8:C8:40:01:23:95:A8:6E:BA:85:8C:98:C3:B7:6E:B5:8D
            X509v3 Authority Key Identifier: 
                keyid:8A:26:41:B3:0C:79:A1:A1:47:20:13:C0:A5:52:A4:AA:D7:E0:0F:B4
                DirName:/CN=team73-net
                serial:6B:58:F2:06:49:A7:4B:E9:A6:9E:D8:A7:AB:19:5C:E1:42:A0:B4:08
            X509v3 Extended Key Usage: 
                TLS Web Client Authentication
            X509v3 Key Usage: 
                Digital Signature
    Signature Algorithm: sha256WithRSAEncryption
    Signature Value:
        db:e8:d7:ce:8b:89:e0:3d:7f:06:d9:f5:7f:60:80:6f:60:04:
        0d:89:a4:88:3d:a3:98:45:50:ae:8a:08:c4:6b:17:1c:ba:5c:
        3f:5b:fb:2b:fc:36:08:1f:b9:b1:f2:9e:f4:37:67:f4:e3:ed:
        e2:96:bc:2e:16:54:75:09:9b:65:b7:07:4d:c0:ad:e1:33:c9:
        a5:06:81:4d:b7:43:69:26:c5:76:a8:0f:4b:3c:57:f7:23:83:
        bd:40:39:42:02:f2:93:ed:11:a0:b6:f1:a7:f7:bf:0e:ec:24:
        0f:6d:ea:14:18:15:a7:35:e9:9f:ea:d8:71:0e:37:eb:df:2a:
        e3:f9:8c:7c:0f:c6:59:61:33:82:01:f6:f0:69:1c:cf:98:cb:
        59:82:c7:1c:e4:9e:ab:59:3f:2d:3d:24:2b:53:43:f4:3f:7b:
        9f:c2:b7:02:f9:df:5d:2a:5a:c1:1d:1a:bb:47:61:55:cd:0e:
        b6:33:04:82:48:35:08:f3:60:8e:98:42:37:3e:98:90:7d:d7:
        55:1f:d1:bf:92:51:cc:83:c7:d4:8c:24:35:f6:7f:57:6c:c2:
        f7:f3:9f:58:33:b4:3d:3a:3b:f5:50:4e:f4:6a:e3:3a:8b:55:
        ab:70:1d:e8:40:55:6c:b4:aa:6c:c4:15:00:c6:a9:4c:b9:5a:
        60:1f:c5:ff
-----BEGIN CERTIFICATE-----
MIIDWTCCAkGgAwIBAgIQPrx+d2hdz+EeN6ZKjrLOTTANBgkqhkiG9w0BAQsFADAV
MRMwEQYDVQQDDAp0ZWFtNzMtbmV0MB4XDTIzMTEwNDExMjg0N1oXDTI2MTAxOTEx
Mjg0N1owGDEWMBQGA1UEAwwNdGVhbTczLWNsaWVudDCCASIwDQYJKoZIhvcNAQEB
BQADggEPADCCAQoCggEBANFAeyWM+qHtaJrRg/REp7fYkY+AJFImrZQOqo+Eh3IL
Dmvkjn7RjMdycLFiE6sF0HwU5s+PKaDiy34XJwe1rlxTzjDMN5ReyXiWFs7FvYsU
6rlxAQYj4oYi85n9eBM4CAoBVw52wCu24Uen7UmDmnVXq5zAVnfJcSAaFrJzUaQJ
aWa+wtJpOIZ+5nTSgb2mbEIDFSyNMkuzm8r47Ssbp4HsXkDfyaZUYWGRx22bKtEs
ybNPO/3jWpld1ZagY3kEabZXOzZBpD8tib+XUhbiNE4dYXhqI9NAdG0V77+Iv2F3
EztiwDaBRoADZIZnl02eS0NU4kAPsYfIXKddlhPQPg0CAwEAAaOBoTCBnjAJBgNV
HRMEAjAAMB0GA1UdDgQWBBRXU6yoyEABI5WobrqFjJjDt261jTBQBgNVHSMESTBH
gBSKJkGzDHmhoUcgE8ClUqSq1+APtKEZpBcwFTETMBEGA1UEAwwKdGVhbTczLW5l
dIIUa1jyBkmnS+mmntinqxlc4UKgtAgwEwYDVR0lBAwwCgYIKwYBBQUHAwIwCwYD
VR0PBAQDAgeAMA0GCSqGSIb3DQEBCwUAA4IBAQDb6NfOi4ngPX8G2fV/YIBvYAQN
iaSIPaOYRVCuigjEaxcculw/W/sr/DYIH7mx8p70N2f04+3ilrwuFlR1CZtltwdN
wK3hM8mlBoFNt0NpJsV2qA9LPFf3I4O9QDlCAvKT7RGgtvGn978O7CQPbeoUGBWn
Nemf6thxDjfr3yrj+Yx8D8ZZYTOCAfbwaRzPmMtZgscc5J6rWT8tPSQrU0P0P3uf
wrcC+d9dKlrBHRq7R2FVzQ62MwSCSDUI82COmEI3PpiQfddVH9G/klHMg8fUjCQ1
9n9XbML3859YM7Q9Ojv1UE70auM6i1WrcB3oQFVstKpsxBUAxqlMuVpgH8X/
-----END CERTIFICATE-----
