Certificate:
    Data:
        Version: 3 (0x2)
        Serial Number:
            eb:4f:0e:44:76:60:60:3d:f9:e1:7c:6c:18:14:e0:7e
        Signature Algorithm: sha256WithRSAEncryption
        Issuer: CN=team73-net
        Validity
            Not Before: Nov  4 10:41:43 2023 GMT
            Not After : Oct 19 10:41:43 2026 GMT
        Subject: CN=team73-server
        Subject Public Key Info:
            Public Key Algorithm: rsaEncryption
                Public-Key: (2048 bit)
                Modulus:
                    00:9c:1e:93:83:c0:05:df:10:82:02:d0:aa:b7:98:
                    7e:00:d5:97:54:a0:51:27:b2:50:04:44:9e:1a:28:
                    db:8d:de:db:81:54:34:d4:0a:93:02:32:46:b9:65:
                    e8:68:5e:2e:c2:bd:be:90:f3:6e:f5:9d:c2:d8:2e:
                    23:93:87:09:d4:8f:5d:85:bb:07:10:b8:f3:40:61:
                    4e:ca:dd:db:93:0b:d3:b7:d8:24:3e:df:be:48:35:
                    41:e3:0b:e9:d4:ce:b6:3c:0c:d0:dd:ff:fc:92:94:
                    2f:b8:cb:75:3b:ee:25:3c:d6:00:28:60:b5:41:8e:
                    25:04:59:2d:87:3d:46:99:d1:26:96:b0:c7:ae:d8:
                    e5:1c:a5:f7:79:18:44:1e:12:94:73:d5:9b:04:56:
                    de:45:d4:dc:6b:84:8d:6b:24:61:39:c8:3d:3f:2e:
                    5f:68:8e:d2:a0:89:8f:8d:93:d2:23:ee:8d:4e:eb:
                    00:4e:30:33:d9:ee:1c:9d:f0:e0:ab:0f:b7:98:a8:
                    da:f1:b8:cc:24:d0:4d:65:b7:0d:fe:bb:b0:3e:07:
                    a8:d2:82:2b:a8:61:45:a4:31:8d:18:c2:68:fd:96:
                    c2:54:a5:c7:ff:e6:ca:78:2f:f0:9f:ff:6e:e3:45:
                    34:9a:a9:30:80:89:f4:3d:09:ba:e0:08:c9:8e:20:
                    72:fb
                Exponent: 65537 (0x10001)
        X509v3 extensions:
            X509v3 Basic Constraints: 
                CA:FALSE
            X509v3 Subject Key Identifier: 
                45:17:B0:FD:E3:12:11:19:9D:FF:A1:A4:97:DE:B9:A9:B1:7F:A9:DC
            X509v3 Authority Key Identifier: 
                keyid:8E:B1:5C:AA:C7:81:64:33:62:89:90:4E:64:98:A0:E8:52:E0:19:39
                DirName:/CN=team73-net
                serial:25:74:4A:0A:5C:E7:B7:A8:4E:14:7D:BF:6F:A0:9A:68:E0:99:2B:F1
            X509v3 Extended Key Usage: 
                TLS Web Server Authentication
            X509v3 Key Usage: 
                Digital Signature, Key Encipherment
            X509v3 Subject Alternative Name: 
                DNS:team73-server
    Signature Algorithm: sha256WithRSAEncryption
    Signature Value:
        98:07:de:1b:9d:81:0a:ad:a5:5f:36:86:17:a9:9d:61:5b:0d:
        0b:08:c3:b1:18:c6:13:ff:dd:a8:5a:5d:2b:94:84:f0:c8:b8:
        a5:08:34:46:08:b8:47:29:03:a6:1f:85:54:7f:bc:52:dd:bd:
        b7:fb:8d:80:d0:5a:ad:0c:da:e1:95:a2:e0:87:52:66:47:15:
        4f:4f:1c:30:25:e6:dc:a1:e2:8c:a8:89:64:35:61:a7:22:53:
        39:45:9b:89:43:a8:e5:49:3d:1c:12:a8:e2:ee:78:37:d2:1c:
        1d:da:b8:d3:43:82:18:cc:6d:45:4b:e5:36:17:32:5c:d7:60:
        4c:d5:af:65:6d:98:cf:7a:9f:38:94:61:db:5c:04:5c:35:69:
        5c:a7:49:61:0f:d4:2f:53:5f:7b:36:47:f7:3d:47:14:89:00:
        74:9a:4d:e2:fa:b3:bd:28:5c:ed:07:f3:73:78:ba:db:e2:99:
        8f:62:77:25:01:e2:94:2f:57:2c:51:4c:3c:c8:dc:a7:d5:aa:
        f8:41:7f:51:83:25:c7:21:8a:fe:34:69:e2:d2:68:6f:ac:56:
        53:a9:e0:aa:3a:12:da:7a:53:7f:68:e2:36:96:c5:09:fb:f3:
        49:65:e5:03:22:15:45:d2:4e:d1:6f:27:70:fa:e8:d8:46:9c:
        fc:3f:53:96
-----BEGIN CERTIFICATE-----
MIIDdDCCAlygAwIBAgIRAOtPDkR2YGA9+eF8bBgU4H4wDQYJKoZIhvcNAQELBQAw
FTETMBEGA1UEAwwKdGVhbTczLW5ldDAeFw0yMzExMDQxMDQxNDNaFw0yNjEwMTkx
MDQxNDNaMBgxFjAUBgNVBAMMDXRlYW03My1zZXJ2ZXIwggEiMA0GCSqGSIb3DQEB
AQUAA4IBDwAwggEKAoIBAQCcHpODwAXfEIIC0Kq3mH4A1ZdUoFEnslAERJ4aKNuN
3tuBVDTUCpMCMka5ZehoXi7Cvb6Q8271ncLYLiOThwnUj12FuwcQuPNAYU7K3duT
C9O32CQ+375INUHjC+nUzrY8DNDd//ySlC+4y3U77iU81gAoYLVBjiUEWS2HPUaZ
0SaWsMeu2OUcpfd5GEQeEpRz1ZsEVt5F1NxrhI1rJGE5yD0/Ll9ojtKgiY+Nk9Ij
7o1O6wBOMDPZ7hyd8OCrD7eYqNrxuMwk0E1ltw3+u7A+B6jSgiuoYUWkMY0Ywmj9
lsJUpcf/5sp4L/Cf/27jRTSaqTCAifQ9CbrgCMmOIHL7AgMBAAGjgbswgbgwCQYD
VR0TBAIwADAdBgNVHQ4EFgQURRew/eMSERmd/6Gkl965qbF/qdwwUAYDVR0jBEkw
R4AUjrFcqseBZDNiiZBOZJig6FLgGTmhGaQXMBUxEzARBgNVBAMMCnRlYW03My1u
ZXSCFCV0Sgpc57eoThR9v2+gmmjgmSvxMBMGA1UdJQQMMAoGCCsGAQUFBwMBMAsG
A1UdDwQEAwIFoDAYBgNVHREEETAPgg10ZWFtNzMtc2VydmVyMA0GCSqGSIb3DQEB
CwUAA4IBAQCYB94bnYEKraVfNoYXqZ1hWw0LCMOxGMYT/92oWl0rlITwyLilCDRG
CLhHKQOmH4VUf7xS3b23+42A0FqtDNrhlaLgh1JmRxVPTxwwJebcoeKMqIlkNWGn
IlM5RZuJQ6jlST0cEqji7ng30hwd2rjTQ4IYzG1FS+U2FzJc12BM1a9lbZjPep84
lGHbXARcNWlcp0lhD9QvU197Nkf3PUcUiQB0mk3i+rO9KFztB/NzeLrb4pmPYncl
AeKUL1csUUw8yNyn1ar4QX9RgyXHIYr+NGni0mhvrFZTqeCqOhLaelN/aOI2lsUJ
+/NJZeUDIhVF0k7Rbydw+ujYRpz8P1OW
-----END CERTIFICATE-----
