Certificate:
    Data:
        Version: 3 (0x2)
        Serial Number:
            56:61:ef:fe:fc:cd:c2:29:29:78:b5:ab:fc:5c:9d:d1
        Signature Algorithm: sha256WithRSAEncryption
        Issuer: CN=team173-net
        Validity
            Not Before: Nov  4 11:31:03 2023 GMT
            Not After : Oct 19 11:31:03 2026 GMT
        Subject: CN=team173-server
        Subject Public Key Info:
            Public Key Algorithm: rsaEncryption
                Public-Key: (2048 bit)
                Modulus:
                    00:b1:08:43:05:b9:15:59:2c:1d:38:fb:1c:d5:dc:
                    35:f1:a3:c4:e0:4d:ca:5e:37:b8:84:4e:1b:17:55:
                    ef:4f:7f:06:3f:60:f0:ee:28:d2:b1:07:31:63:72:
                    57:8c:14:bc:99:e7:4e:4f:79:ec:8f:41:27:58:1b:
                    de:f5:e9:05:a8:7d:e3:9c:eb:b9:d1:dd:18:61:c5:
                    e2:0a:26:0f:3a:87:dd:06:bf:b1:1f:0e:21:36:7f:
                    67:66:c4:fc:c0:45:ac:01:8f:8f:fe:0c:c2:d7:d0:
                    6d:17:37:13:00:2c:a4:35:ea:7f:73:74:a2:25:65:
                    1f:04:d6:1e:ab:4c:61:7e:59:11:be:14:1b:d4:4e:
                    6e:76:85:c2:2f:84:dd:53:7a:28:d1:20:9a:b7:f6:
                    06:9a:a9:b5:06:fc:e5:c5:49:9d:c5:6b:90:14:e3:
                    26:c2:27:89:55:36:c0:30:97:3f:47:f3:0b:72:76:
                    44:ac:9a:89:a9:67:c6:72:cd:b1:82:f3:ea:37:01:
                    a0:c8:c3:9c:4a:04:4a:80:ce:4c:bc:90:da:85:0e:
                    b9:21:af:2a:3b:44:e2:66:7f:ae:95:33:ef:5a:b2:
                    ab:c7:db:37:93:d4:87:03:da:f3:88:26:11:9f:59:
                    67:66:4c:86:28:5d:0b:3a:21:3d:c7:6e:28:83:69:
                    3d:43
                Exponent: 65537 (0x10001)
        X509v3 extensions:
            X509v3 Basic Constraints: 
                CA:FALSE
            X509v3 Subject Key Identifier: 
                58:97:1C:9E:E6:AE:2B:D5:84:3D:27:17:24:12:B2:AA:17:B3:3B:75
            X509v3 Authority Key Identifier: 
                keyid:85:DA:7E:BC:17:83:9F:D2:C0:2A:14:E6:BC:53:2E:0C:AC:EE:94:85
                DirName:/CN=team173-net
                serial:4D:9D:F8:2B:46:2A:03:80:5D:0E:8E:B9:C8:33:49:C6:43:2C:A6:61
            X509v3 Extended Key Usage: 
                TLS Web Server Authentication
            X509v3 Key Usage: 
                Digital Signature, Key Encipherment
            X509v3 Subject Alternative Name: 
                DNS:team173-server
    Signature Algorithm: sha256WithRSAEncryption
    Signature Value:
        a7:01:90:08:46:56:3b:b4:fc:5b:01:66:7e:73:6d:74:d6:59:
        86:16:0d:fd:c2:45:91:c5:8f:e2:23:cb:8b:2d:05:cd:1f:a4:
        92:18:d5:2f:8d:4b:e3:a2:4a:12:e9:7d:21:47:34:ff:6f:3d:
        e1:da:99:b9:e8:89:cc:7b:e0:d6:5f:6f:b0:d3:27:3b:6e:12:
        d1:30:39:a6:5e:07:56:fa:15:48:5f:a3:ff:71:bc:97:67:68:
        0e:c2:3e:88:0d:80:08:98:c0:68:19:57:e5:d0:c6:fa:7c:db:
        ff:43:2b:be:29:bf:35:3a:04:ad:4f:64:89:2d:e5:e4:74:36:
        0e:09:5a:27:7a:54:ad:47:09:b4:d0:9f:6c:96:33:11:90:28:
        2b:f8:76:ca:48:6d:8b:e0:2a:68:f8:38:1e:45:9e:5b:b6:9a:
        97:7e:c3:3c:5c:ce:2d:02:58:b0:3a:02:e2:67:0c:28:9f:e5:
        8a:4d:78:4a:82:6f:18:66:32:2b:64:84:67:f1:92:a3:d8:c0:
        45:d5:cc:76:e2:b5:40:56:2f:1c:4b:26:65:88:bf:ca:52:73:
        c9:ff:e6:3f:91:f0:07:52:81:11:e8:22:f3:9e:dc:93:de:e7:
        7d:4b:8f:83:50:94:46:2b:19:5c:91:1c:0c:a7:7f:71:ac:cc:
        41:80:67:9a
-----BEGIN CERTIFICATE-----
MIIDdzCCAl+gAwIBAgIQVmHv/vzNwikpeLWr/Fyd0TANBgkqhkiG9w0BAQsFADAW
MRQwEgYDVQQDDAt0ZWFtMTczLW5ldDAeFw0yMzExMDQxMTMxMDNaFw0yNjEwMTkx
MTMxMDNaMBkxFzAVBgNVBAMMDnRlYW0xNzMtc2VydmVyMIIBIjANBgkqhkiG9w0B
AQEFAAOCAQ8AMIIBCgKCAQEAsQhDBbkVWSwdOPsc1dw18aPE4E3KXje4hE4bF1Xv
T38GP2Dw7ijSsQcxY3JXjBS8medOT3nsj0EnWBve9ekFqH3jnOu50d0YYcXiCiYP
OofdBr+xHw4hNn9nZsT8wEWsAY+P/gzC19BtFzcTACykNep/c3SiJWUfBNYeq0xh
flkRvhQb1E5udoXCL4TdU3oo0SCat/YGmqm1BvzlxUmdxWuQFOMmwieJVTbAMJc/
R/MLcnZErJqJqWfGcs2xgvPqNwGgyMOcSgRKgM5MvJDahQ65Ia8qO0TiZn+ulTPv
WrKrx9s3k9SHA9rziCYRn1lnZkyGKF0LOiE9x24og2k9QwIDAQABo4G9MIG6MAkG
A1UdEwQCMAAwHQYDVR0OBBYEFFiXHJ7mrivVhD0nFyQSsqoXszt1MFEGA1UdIwRK
MEiAFIXafrwXg5/SwCoU5rxTLgys7pSFoRqkGDAWMRQwEgYDVQQDDAt0ZWFtMTcz
LW5ldIIUTZ34K0YqA4BdDo65yDNJxkMspmEwEwYDVR0lBAwwCgYIKwYBBQUHAwEw
CwYDVR0PBAQDAgWgMBkGA1UdEQQSMBCCDnRlYW0xNzMtc2VydmVyMA0GCSqGSIb3
DQEBCwUAA4IBAQCnAZAIRlY7tPxbAWZ+c2101lmGFg39wkWRxY/iI8uLLQXNH6SS
GNUvjUvjokoS6X0hRzT/bz3h2pm56InMe+DWX2+w0yc7bhLRMDmmXgdW+hVIX6P/
cbyXZ2gOwj6IDYAImMBoGVfl0Mb6fNv/Qyu+Kb81OgStT2SJLeXkdDYOCVonelSt
Rwm00J9sljMRkCgr+HbKSG2L4Cpo+DgeRZ5btpqXfsM8XM4tAliwOgLiZwwon+WK
TXhKgm8YZjIrZIRn8ZKj2MBF1cx24rVAVi8cSyZliL/KUnPJ/+Y/kfAHUoER6CLz
ntyT3ud9S4+DUJRGKxlckRwMp39xrMxBgGea
-----END CERTIFICATE-----
