Certificate:
    Data:
        Version: 3 (0x2)
        Serial Number:
            8a:af:d1:c7:80:27:a6:a5:cc:fc:f4:a9:11:34:1b:1a
        Signature Algorithm: sha256WithRSAEncryption
        Issuer: CN=team173-net
        Validity
            Not Before: Nov  4 10:43:45 2023 GMT
            Not After : Oct 19 10:43:45 2026 GMT
        Subject: CN=team173-client
        Subject Public Key Info:
            Public Key Algorithm: rsaEncryption
                Public-Key: (2048 bit)
                Modulus:
                    00:ee:3b:98:7f:aa:76:0a:f2:01:d1:6b:22:a4:f6:
                    f7:23:68:b2:23:8b:43:01:88:e7:36:f9:39:f6:18:
                    a3:49:32:2f:3c:3f:30:bf:01:8b:ec:70:4d:f1:41:
                    05:8f:3f:93:91:a2:20:54:d4:a5:8c:4d:6e:89:51:
                    fc:ae:33:13:be:a0:da:46:83:df:b7:b3:db:93:b8:
                    59:55:a7:b8:f8:d5:a7:cc:fd:ea:01:7e:91:12:4c:
                    28:00:1d:d8:a3:3f:91:e4:85:0c:e9:13:a0:db:91:
                    92:f7:dc:5a:a2:a5:8a:7d:45:00:84:8d:40:1f:c3:
                    f1:a9:22:18:36:ee:79:c1:5c:43:b5:43:0f:12:57:
                    bd:be:ef:6b:48:7f:c6:e8:74:16:7e:71:bb:d9:ac:
                    ba:18:fa:04:a1:09:db:79:f7:4e:03:d1:9d:c4:18:
                    4c:6d:49:3e:7f:83:7c:5d:45:5d:63:85:df:8e:6b:
                    ab:9b:2b:fe:f3:43:01:88:32:6a:73:8e:81:43:bf:
                    69:7e:52:36:d1:81:8d:99:d4:4a:65:87:90:31:43:
                    bb:87:76:2b:47:bb:87:b1:5a:f8:2b:a8:38:14:69:
                    2b:39:ab:ca:44:7b:39:db:25:b4:5c:4c:53:47:f2:
                    bc:d0:c8:51:d5:5d:17:48:db:cd:be:0d:c2:a2:fa:
                    64:81
                Exponent: 65537 (0x10001)
        X509v3 extensions:
            X509v3 Basic Constraints: 
                CA:FALSE
            X509v3 Subject Key Identifier: 
                B1:88:82:9C:26:4F:DF:C8:4C:F3:A2:24:59:01:33:59:22:DA:B0:01
            X509v3 Authority Key Identifier: 
                keyid:1D:7D:1C:5B:34:88:1A:D6:88:35:19:F4:62:AF:51:D0:C4:CA:60:27
                DirName:/CN=team173-net
                serial:51:D4:26:C4:F5:57:50:41:71:89:C7:5F:9F:AF:2B:B8:3B:C1:56:56
            X509v3 Extended Key Usage: 
                TLS Web Client Authentication
            X509v3 Key Usage: 
                Digital Signature
    Signature Algorithm: sha256WithRSAEncryption
    Signature Value:
        aa:e1:94:0f:a0:92:13:f5:bc:dd:12:15:90:40:bc:c1:b9:6d:
        b1:36:44:f1:23:82:64:61:f0:de:e6:ff:e3:c0:9b:52:65:3b:
        0c:f5:6a:c1:58:97:05:b6:8f:4c:7d:4b:5d:72:9b:15:43:65:
        0f:c5:32:f3:41:62:bf:ef:fc:6e:bf:74:ae:c6:2e:e2:38:e9:
        44:6f:67:54:37:34:07:ad:be:0a:9f:37:25:40:41:b4:08:57:
        f1:7b:15:fd:a3:80:03:86:3e:cd:2b:0e:b8:44:3a:01:3f:a1:
        6c:58:bc:6d:4b:7d:42:42:c4:89:37:30:77:d3:86:76:55:49:
        5e:a7:dc:2b:8a:84:70:01:a1:e9:96:db:fe:b9:f1:14:98:bf:
        67:52:b9:ce:bb:8b:90:15:77:f8:98:76:6f:eb:50:06:02:b3:
        ae:3e:5e:94:2d:b0:73:94:72:d0:70:17:06:f2:91:e5:37:58:
        9d:27:a0:2a:a7:4f:96:ed:ba:0c:b8:af:24:ad:b2:26:e5:a6:
        32:34:c0:bf:d0:98:a2:db:a5:3c:58:59:88:5d:32:14:3b:d4:
        0b:c9:f6:f5:0f:84:ac:1d:63:e6:91:98:01:69:fc:aa:b8:01:
        a9:53:bc:29:7c:f8:38:07:35:4f:b7:a5:c7:f6:a9:5d:43:59:
        1c:e1:d8:5d
-----BEGIN CERTIFICATE-----
MIIDXTCCAkWgAwIBAgIRAIqv0ceAJ6alzPz0qRE0GxowDQYJKoZIhvcNAQELBQAw
FjEUMBIGA1UEAwwLdGVhbTE3My1uZXQwHhcNMjMxMTA0MTA0MzQ1WhcNMjYxMDE5
MTA0MzQ1WjAZMRcwFQYDVQQDDA50ZWFtMTczLWNsaWVudDCCASIwDQYJKoZIhvcN
AQEBBQADggEPADCCAQoCggEBAO47mH+qdgryAdFrIqT29yNosiOLQwGI5zb5OfYY
o0kyLzw/ML8Bi+xwTfFBBY8/k5GiIFTUpYxNbolR/K4zE76g2kaD37ez25O4WVWn
uPjVp8z96gF+kRJMKAAd2KM/keSFDOkToNuRkvfcWqKlin1FAISNQB/D8akiGDbu
ecFcQ7VDDxJXvb7va0h/xuh0Fn5xu9msuhj6BKEJ23n3TgPRncQYTG1JPn+DfF1F
XWOF345rq5sr/vNDAYgyanOOgUO/aX5SNtGBjZnUSmWHkDFDu4d2K0e7h7Fa+Cuo
OBRpKzmrykR7OdsltFxMU0fyvNDIUdVdF0jbzb4NwqL6ZIECAwEAAaOBojCBnzAJ
BgNVHRMEAjAAMB0GA1UdDgQWBBSxiIKcJk/fyEzzoiRZATNZItqwATBRBgNVHSME
SjBIgBQdfRxbNIga1og1GfRir1HQxMpgJ6EapBgwFjEUMBIGA1UEAwwLdGVhbTE3
My1uZXSCFFHUJsT1V1BBcYnHX5+vK7g7wVZWMBMGA1UdJQQMMAoGCCsGAQUFBwMC
MAsGA1UdDwQEAwIHgDANBgkqhkiG9w0BAQsFAAOCAQEAquGUD6CSE/W83RIVkEC8
wbltsTZE8SOCZGHw3ub/48CbUmU7DPVqwViXBbaPTH1LXXKbFUNlD8Uy80Fiv+/8
br90rsYu4jjpRG9nVDc0B62+Cp83JUBBtAhX8XsV/aOAA4Y+zSsOuEQ6AT+hbFi8
bUt9QkLEiTcwd9OGdlVJXqfcK4qEcAGh6Zbb/rnxFJi/Z1K5zruLkBV3+Jh2b+tQ
BgKzrj5elC2wc5Ry0HAXBvKR5TdYnSegKqdPlu26DLivJK2yJuWmMjTAv9CYotul
PFhZiF0yFDvUC8n29Q+ErB1j5pGYAWn8qrgBqVO8KXz4OAc1T7elx/apXUNZHOHY
XQ==
-----END CERTIFICATE-----
