Certificate:
    Data:
        Version: 3 (0x2)
        Serial Number:
            ec:cd:30:04:fb:4c:18:46:1a:54:1c:23:42:a2:6f:14
        Signature Algorithm: sha256WithRSAEncryption
        Issuer: CN=team173-net
        Validity
            Not Before: Nov  4 10:43:46 2023 GMT
            Not After : Oct 19 10:43:46 2026 GMT
        Subject: CN=team173-server
        Subject Public Key Info:
            Public Key Algorithm: rsaEncryption
                Public-Key: (2048 bit)
                Modulus:
                    00:cd:6e:59:db:34:75:63:93:2d:48:00:df:2b:b4:
                    ea:b9:a9:5a:bf:4d:80:83:d8:0d:9b:d2:1e:a6:05:
                    22:e7:62:db:e7:5e:77:da:1a:a9:6a:7d:94:73:35:
                    d9:2d:b2:7c:c6:93:28:68:f4:cd:01:8c:76:a6:bf:
                    90:b7:1e:00:57:1b:1e:7d:6b:3a:62:2f:22:e9:6b:
                    66:f8:e5:b7:a8:d9:ae:b5:ac:64:d8:6e:3c:e0:32:
                    12:6d:82:36:15:17:fc:9b:43:74:6c:fd:12:10:83:
                    99:03:08:a9:41:10:a5:94:d1:48:01:d8:ee:a1:44:
                    ee:6b:26:ef:28:36:ca:96:f9:7b:86:c0:fd:98:74:
                    fa:a1:ac:65:a3:78:5e:1d:28:11:fb:58:bd:87:30:
                    1d:94:76:80:7f:0a:df:4d:e1:21:c9:84:69:e5:40:
                    57:90:e3:28:ae:fc:a8:a4:7b:a2:b8:0a:07:6f:12:
                    21:8a:00:bf:48:55:52:d8:2c:c4:93:a4:7b:3a:5d:
                    b0:79:8d:dc:22:6a:66:5c:3b:6d:b8:e8:25:3f:50:
                    20:c7:21:4a:be:2b:97:d0:00:c0:4b:c1:41:90:2f:
                    71:51:3a:8d:f0:ae:3a:e1:e6:a3:8a:16:97:cd:fd:
                    68:0f:63:90:0e:72:73:cc:68:5c:bd:99:c3:f8:98:
                    cc:2d
                Exponent: 65537 (0x10001)
        X509v3 extensions:
            X509v3 Basic Constraints: 
                CA:FALSE
            X509v3 Subject Key Identifier: 
                8E:42:C7:86:5B:59:DA:EC:BD:ED:FC:9A:D6:06:9F:CA:D0:FE:36:76
            X509v3 Authority Key Identifier: 
                keyid:1D:7D:1C:5B:34:88:1A:D6:88:35:19:F4:62:AF:51:D0:C4:CA:60:27
                DirName:/CN=team173-net
                serial:51:D4:26:C4:F5:57:50:41:71:89:C7:5F:9F:AF:2B:B8:3B:C1:56:56
            X509v3 Extended Key Usage: 
                TLS Web Server Authentication
            X509v3 Key Usage: 
                Digital Signature, Key Encipherment
            X509v3 Subject Alternative Name: 
                DNS:team173-server
    Signature Algorithm: sha256WithRSAEncryption
    Signature Value:
        8b:d8:ee:ef:7b:49:2e:2d:72:8d:71:e7:ea:5d:1e:3d:20:d7:
        f6:4d:c0:6c:2c:fc:ee:74:f2:88:a9:a7:15:0a:67:4b:c6:a7:
        3e:35:af:02:c7:b3:25:21:9f:2e:87:4a:66:d5:74:73:15:2e:
        5d:d4:91:1e:65:3c:a4:20:41:7e:60:c3:ce:e6:99:a7:62:e6:
        b9:dc:46:06:bb:f9:8b:6d:22:d0:e5:55:18:01:2b:4a:e3:66:
        89:fc:e5:98:a3:d7:95:d9:f7:98:64:39:66:89:b5:10:38:eb:
        4d:13:7e:15:63:1c:e1:b8:19:14:3f:e3:38:51:68:96:32:f3:
        7d:40:a8:9b:11:8c:2b:3f:ca:db:54:72:cc:87:e4:8f:6e:d7:
        47:d2:1e:c1:56:91:17:8a:8f:6c:79:5f:1f:d0:83:cf:9b:7f:
        81:69:71:b6:32:bd:3b:c8:94:11:53:e2:8e:f6:c5:35:ab:91:
        b4:95:d4:53:98:a4:d5:e2:71:cc:f3:e4:9d:0c:9c:d2:93:48:
        b6:26:b7:28:ed:4b:2a:8d:3d:a6:4d:e7:ad:3c:d0:ff:0a:0c:
        c0:78:f7:31:da:8b:63:a9:ae:06:bb:ea:29:5b:5d:b7:a5:2c:
        14:08:dd:34:68:e7:c6:c2:ad:06:f4:ed:b6:6e:53:1f:1b:ec:
        28:02:88:d0
-----BEGIN CERTIFICATE-----
MIIDeDCCAmCgAwIBAgIRAOzNMAT7TBhGGlQcI0KibxQwDQYJKoZIhvcNAQELBQAw
FjEUMBIGA1UEAwwLdGVhbTE3My1uZXQwHhcNMjMxMTA0MTA0MzQ2WhcNMjYxMDE5
MTA0MzQ2WjAZMRcwFQYDVQQDDA50ZWFtMTczLXNlcnZlcjCCASIwDQYJKoZIhvcN
AQEBBQADggEPADCCAQoCggEBAM1uWds0dWOTLUgA3yu06rmpWr9NgIPYDZvSHqYF
Iudi2+ded9oaqWp9lHM12S2yfMaTKGj0zQGMdqa/kLceAFcbHn1rOmIvIulrZvjl
t6jZrrWsZNhuPOAyEm2CNhUX/JtDdGz9EhCDmQMIqUEQpZTRSAHY7qFE7msm7yg2
ypb5e4bA/Zh0+qGsZaN4Xh0oEftYvYcwHZR2gH8K303hIcmEaeVAV5DjKK78qKR7
orgKB28SIYoAv0hVUtgsxJOkezpdsHmN3CJqZlw7bbjoJT9QIMchSr4rl9AAwEvB
QZAvcVE6jfCuOuHmo4oWl839aA9jkA5yc8xoXL2Zw/iYzC0CAwEAAaOBvTCBujAJ
BgNVHRMEAjAAMB0GA1UdDgQWBBSOQseGW1na7L3t/JrWBp/K0P42djBRBgNVHSME
SjBIgBQdfRxbNIga1og1GfRir1HQxMpgJ6EapBgwFjEUMBIGA1UEAwwLdGVhbTE3
My1uZXSCFFHUJsT1V1BBcYnHX5+vK7g7wVZWMBMGA1UdJQQMMAoGCCsGAQUFBwMB
MAsGA1UdDwQEAwIFoDAZBgNVHREEEjAQgg50ZWFtMTczLXNlcnZlcjANBgkqhkiG
9w0BAQsFAAOCAQEAi9ju73tJLi1yjXHn6l0ePSDX9k3AbCz87nTyiKmnFQpnS8an
PjWvAsezJSGfLodKZtV0cxUuXdSRHmU8pCBBfmDDzuaZp2LmudxGBrv5i20i0OVV
GAErSuNmifzlmKPXldn3mGQ5Zom1EDjrTRN+FWMc4bgZFD/jOFFoljLzfUComxGM
Kz/K21RyzIfkj27XR9IewVaRF4qPbHlfH9CDz5t/gWlxtjK9O8iUEVPijvbFNauR
tJXUU5ik1eJxzPPknQyc0pNItia3KO1LKo09pk3nrTzQ/woMwHj3MdqLY6muBrvq
KVtdt6UsFAjdNGjnxsKtBvTttm5THxvsKAKI0A==
-----END CERTIFICATE-----
