Certificate:
    Data:
        Version: 3 (0x2)
        Serial Number:
            21:e5:62:1e:86:dc:53:b6:ef:a1:f2:dd:53:6e:f1:03
        Signature Algorithm: sha256WithRSAEncryption
        Issuer: CN=team303-net
        Validity
            Not Before: Nov  4 11:33:59 2023 GMT
            Not After : Oct 19 11:33:59 2026 GMT
        Subject: CN=team303-server
        Subject Public Key Info:
            Public Key Algorithm: rsaEncryption
                Public-Key: (2048 bit)
                Modulus:
                    00:d4:ff:79:94:22:4b:a3:33:83:9b:ee:1b:ca:80:
                    3b:60:e8:8b:6e:de:87:25:71:97:3c:a2:ad:0b:ea:
                    56:01:41:95:1f:cf:5d:04:fd:dc:97:db:a8:d9:87:
                    64:55:fd:14:7f:3e:82:79:cc:f9:29:d3:d1:1c:a0:
                    2c:1f:30:74:35:98:c5:17:11:ed:ca:3e:33:49:03:
                    d6:d3:51:65:5c:d3:5d:96:f2:cb:ac:29:e8:c6:28:
                    98:34:39:71:73:4f:4f:e1:da:9f:73:d5:9f:9d:f6:
                    ae:0d:77:4f:7b:83:c6:c9:a3:63:e9:46:76:ec:2a:
                    a3:5d:a9:c9:03:48:7d:51:b7:9e:8c:ca:84:65:10:
                    2f:42:be:fb:75:41:69:53:b0:0a:7a:7b:4c:70:48:
                    8e:e4:96:41:c2:b6:2b:9b:72:f9:7b:0f:fb:2a:0b:
                    88:e8:cb:17:c5:6b:b1:ae:9c:c8:ad:d4:b0:38:4e:
                    d1:f4:4b:a8:ff:f4:ca:4d:36:85:bc:66:0e:8c:0f:
                    5e:20:51:a5:10:9a:38:f9:0b:c1:9f:a2:83:ee:3e:
                    1a:21:8a:0a:b1:e4:ca:8a:3f:3b:b2:9f:72:d4:79:
                    c4:dd:8b:8e:44:1e:fb:f7:02:9e:22:a1:90:3b:37:
                    07:51:0a:05:83:1e:15:a6:bc:b9:74:2a:a7:6a:dc:
                    ef:91
                Exponent: 65537 (0x10001)
        X509v3 extensions:
            X509v3 Basic Constraints: 
                CA:FALSE
            X509v3 Subject Key Identifier: 
                56:B6:58:BF:2D:36:BC:E5:C4:3C:A7:CD:26:6F:6B:45:C8:E6:F4:E9
            X509v3 Authority Key Identifier: 
                keyid:16:73:9A:D4:B9:A7:99:31:3C:30:C9:34:4D:82:EB:24:F2:51:14:0F
                DirName:/CN=team303-net
                serial:34:15:E2:57:03:FB:9B:2A:AA:AF:C8:82:04:4B:23:C4:20:D1:91:84
            X509v3 Extended Key Usage: 
                TLS Web Server Authentication
            X509v3 Key Usage: 
                Digital Signature, Key Encipherment
            X509v3 Subject Alternative Name: 
                DNS:team303-server
    Signature Algorithm: sha256WithRSAEncryption
    Signature Value:
        7d:3b:ad:ee:89:4e:45:1c:6b:30:c0:37:bf:7f:52:ee:c8:68:
        70:28:46:c6:f7:0e:e1:00:0a:e5:1c:9a:81:dc:13:fb:3f:3e:
        16:bb:4b:18:bb:11:19:f3:9b:c5:b1:98:16:7a:15:63:9a:68:
        ea:8b:24:d5:52:e8:51:55:d0:de:6d:64:07:06:7e:0c:f4:7a:
        96:87:1d:4a:38:84:6c:87:3d:5a:f6:6a:7f:5c:b1:0a:3e:45:
        b2:c6:47:3f:c6:18:12:10:ca:80:cb:95:10:48:f9:07:f1:f8:
        bd:b0:8c:25:31:b8:94:24:6c:a2:3a:a1:43:4e:a6:40:73:1b:
        88:9b:57:b6:b3:8b:11:d3:c9:79:de:71:34:ac:d0:b9:f2:91:
        40:a0:1a:14:c6:27:b0:b6:eb:60:2c:94:87:a4:0a:0a:f3:90:
        d7:01:31:ce:c6:01:10:da:41:57:b4:d4:34:40:2d:2f:8c:5d:
        46:d9:28:71:07:b5:38:37:6c:d3:e0:be:a0:3f:3d:b3:5e:e1:
        99:e5:60:57:08:64:42:1a:81:41:f3:f1:b4:d5:98:96:44:c9:
        5d:72:d3:c9:59:c5:21:07:c6:80:37:7a:9b:8a:a4:96:16:76:
        73:d4:a1:b1:d7:a2:d9:39:ed:29:57:a5:35:25:28:de:f5:45:
        cc:cc:f8:d9
-----BEGIN CERTIFICATE-----
MIIDdzCCAl+gAwIBAgIQIeViHobcU7bvofLdU27xAzANBgkqhkiG9w0BAQsFADAW
MRQwEgYDVQQDDAt0ZWFtMzAzLW5ldDAeFw0yMzExMDQxMTMzNTlaFw0yNjEwMTkx
MTMzNTlaMBkxFzAVBgNVBAMMDnRlYW0zMDMtc2VydmVyMIIBIjANBgkqhkiG9w0B
AQEFAAOCAQ8AMIIBCgKCAQEA1P95lCJLozODm+4byoA7YOiLbt6HJXGXPKKtC+pW
AUGVH89dBP3cl9uo2YdkVf0Ufz6Cecz5KdPRHKAsHzB0NZjFFxHtyj4zSQPW01Fl
XNNdlvLLrCnoxiiYNDlxc09P4dqfc9WfnfauDXdPe4PGyaNj6UZ27CqjXanJA0h9
UbeejMqEZRAvQr77dUFpU7AKentMcEiO5JZBwrYrm3L5ew/7KguI6MsXxWuxrpzI
rdSwOE7R9Euo//TKTTaFvGYOjA9eIFGlEJo4+QvBn6KD7j4aIYoKseTKij87sp9y
1HnE3YuORB779wKeIqGQOzcHUQoFgx4Vpry5dCqnatzvkQIDAQABo4G9MIG6MAkG
A1UdEwQCMAAwHQYDVR0OBBYEFFa2WL8tNrzlxDynzSZva0XI5vTpMFEGA1UdIwRK
MEiAFBZzmtS5p5kxPDDJNE2C6yTyURQPoRqkGDAWMRQwEgYDVQQDDAt0ZWFtMzAz
LW5ldIIUNBXiVwP7myqqr8iCBEsjxCDRkYQwEwYDVR0lBAwwCgYIKwYBBQUHAwEw
CwYDVR0PBAQDAgWgMBkGA1UdEQQSMBCCDnRlYW0zMDMtc2VydmVyMA0GCSqGSIb3
DQEBCwUAA4IBAQB9O63uiU5FHGswwDe/f1LuyGhwKEbG9w7hAArlHJqB3BP7Pz4W
u0sYuxEZ85vFsZgWehVjmmjqiyTVUuhRVdDebWQHBn4M9HqWhx1KOIRshz1a9mp/
XLEKPkWyxkc/xhgSEMqAy5UQSPkH8fi9sIwlMbiUJGyiOqFDTqZAcxuIm1e2s4sR
08l53nE0rNC58pFAoBoUxiewtutgLJSHpAoK85DXATHOxgEQ2kFXtNQ0QC0vjF1G
2ShxB7U4N2zT4L6gPz2zXuGZ5WBXCGRCGoFB8/G01ZiWRMldctPJWcUhB8aAN3qb
iqSWFnZz1KGx16LZOe0pV6U1JSje9UXMzPjZ
-----END CERTIFICATE-----
