Certificate:
    Data:
        Version: 3 (0x2)
        Serial Number:
            3b:eb:3c:30:0a:e0:f0:32:da:e7:d7:0b:3c:bc:42:f9
        Signature Algorithm: sha256WithRSAEncryption
        Issuer: CN=team303-net
        Validity
            Not Before: Nov  4 10:46:12 2023 GMT
            Not After : Oct 19 10:46:12 2026 GMT
        Subject: CN=team303-client
        Subject Public Key Info:
            Public Key Algorithm: rsaEncryption
                Public-Key: (2048 bit)
                Modulus:
                    00:98:96:24:24:53:40:83:d9:58:3a:c3:b3:a6:33:
                    4d:7e:bb:53:dc:cb:4f:22:3e:ff:3a:2b:0c:14:1d:
                    3c:74:8e:b8:52:f5:33:29:0b:e9:8c:94:ab:65:bc:
                    3d:29:dc:b6:ff:10:a0:fb:4a:c3:2e:67:06:f9:aa:
                    97:e3:5d:8f:a5:1d:b5:c7:3f:4a:32:65:4a:c4:15:
                    4e:cf:63:d2:53:a7:08:b9:39:f8:4c:34:85:94:0d:
                    93:1d:cb:00:e6:5c:46:e2:c5:19:77:a6:81:82:bf:
                    86:c3:bc:95:dd:c6:5a:ec:f7:51:7f:3d:2f:b5:f6:
                    3d:da:ab:45:c4:21:8f:65:9f:59:89:76:05:b3:c8:
                    a0:16:52:7a:61:9e:10:c0:b0:6d:96:7e:15:5e:5c:
                    6e:ae:be:9e:86:90:c5:78:dc:06:cc:7c:d7:54:fa:
                    5c:8c:8c:97:d1:78:ba:6d:71:fa:8c:b2:16:b7:b6:
                    f0:df:e4:19:5d:b0:5a:bc:09:7c:7f:9b:93:5c:5a:
                    0b:13:45:2f:ee:3e:90:3a:5e:d3:c8:4a:78:de:35:
                    47:e8:a5:bb:04:0d:48:5f:21:d6:f9:0c:83:b1:47:
                    c2:60:c2:9a:ca:5c:c2:e7:c3:c8:60:c0:59:ec:54:
                    fc:a0:77:4a:9b:f7:e9:83:a5:50:db:6f:85:49:73:
                    fd:23
                Exponent: 65537 (0x10001)
        X509v3 extensions:
            X509v3 Basic Constraints: 
                CA:FALSE
            X509v3 Subject Key Identifier: 
                27:77:BB:84:D7:8D:A5:0E:0F:87:F2:C1:B0:52:4D:CB:44:BA:CE:43
            X509v3 Authority Key Identifier: 
                keyid:D4:71:92:F7:EF:77:7C:A9:2F:C4:55:A2:EE:CB:4B:E0:86:69:81:FC
                DirName:/CN=team303-net
                serial:67:0D:BE:63:8C:A4:6E:ED:A5:14:3C:C8:8C:74:B2:A5:3C:3E:1E:27
            X509v3 Extended Key Usage: 
                TLS Web Client Authentication
            X509v3 Key Usage: 
                Digital Signature
    Signature Algorithm: sha256WithRSAEncryption
    Signature Value:
        2f:30:05:28:d8:3f:cd:46:dd:3a:2c:ef:45:5a:f5:50:7b:13:
        0b:64:2e:27:01:f2:90:21:ad:98:8b:e9:13:b8:cd:7f:99:70:
        90:7a:7b:54:d9:9e:28:bd:00:05:4f:c6:c0:fe:8b:a5:b1:c6:
        54:99:1a:a1:dc:b5:51:a0:5e:4b:cb:b8:72:c5:b5:e0:dc:74:
        e7:ac:68:ee:92:16:e2:af:1f:07:82:a0:70:53:e1:30:99:c3:
        a3:b4:9e:d8:9f:86:1d:26:99:37:76:80:a0:5b:8b:2c:90:fe:
        54:37:9c:c5:65:72:0b:5d:97:f7:7a:88:f2:78:18:03:18:fa:
        30:1d:ec:16:0a:76:2c:be:d2:3d:cf:ef:34:c7:d6:fd:86:a6:
        1c:80:1b:30:b1:f7:b6:8e:5b:fc:f9:19:88:65:a1:9f:99:c2:
        47:54:16:a1:d5:a9:43:42:65:7c:7a:c9:24:c7:10:84:81:66:
        a6:81:9c:f6:af:91:c2:91:8d:7f:c5:2c:2f:b6:e5:e5:37:5b:
        21:07:9a:5a:55:8b:2c:80:d2:44:46:85:1c:38:02:3c:d3:f3:
        81:e4:ba:19:6a:43:73:ea:ce:ac:18:c6:5e:44:93:df:06:18:
        89:24:ff:cf:dc:f8:c7:a1:5d:9e:f3:b0:00:f7:89:75:83:38:
        d6:9e:e1:62
-----BEGIN CERTIFICATE-----
MIIDXDCCAkSgAwIBAgIQO+s8MArg8DLa59cLPLxC+TANBgkqhkiG9w0BAQsFADAW
MRQwEgYDVQQDDAt0ZWFtMzAzLW5ldDAeFw0yMzExMDQxMDQ2MTJaFw0yNjEwMTkx
MDQ2MTJaMBkxFzAVBgNVBAMMDnRlYW0zMDMtY2xpZW50MIIBIjANBgkqhkiG9w0B
AQEFAAOCAQ8AMIIBCgKCAQEAmJYkJFNAg9lYOsOzpjNNfrtT3MtPIj7/OisMFB08
dI64UvUzKQvpjJSrZbw9Kdy2/xCg+0rDLmcG+aqX412PpR21xz9KMmVKxBVOz2PS
U6cIuTn4TDSFlA2THcsA5lxG4sUZd6aBgr+Gw7yV3cZa7PdRfz0vtfY92qtFxCGP
ZZ9ZiXYFs8igFlJ6YZ4QwLBtln4VXlxurr6ehpDFeNwGzHzXVPpcjIyX0Xi6bXH6
jLIWt7bw3+QZXbBavAl8f5uTXFoLE0Uv7j6QOl7TyEp43jVH6KW7BA1IXyHW+QyD
sUfCYMKaylzC58PIYMBZ7FT8oHdKm/fpg6VQ22+FSXP9IwIDAQABo4GiMIGfMAkG
A1UdEwQCMAAwHQYDVR0OBBYEFCd3u4TXjaUOD4fywbBSTctEus5DMFEGA1UdIwRK
MEiAFNRxkvfvd3ypL8RVou7LS+CGaYH8oRqkGDAWMRQwEgYDVQQDDAt0ZWFtMzAz
LW5ldIIUZw2+Y4ykbu2lFDzIjHSypTw+HicwEwYDVR0lBAwwCgYIKwYBBQUHAwIw
CwYDVR0PBAQDAgeAMA0GCSqGSIb3DQEBCwUAA4IBAQAvMAUo2D/NRt06LO9FWvVQ
exMLZC4nAfKQIa2Yi+kTuM1/mXCQentU2Z4ovQAFT8bA/oulscZUmRqh3LVRoF5L
y7hyxbXg3HTnrGjukhbirx8HgqBwU+EwmcOjtJ7Yn4YdJpk3doCgW4sskP5UN5zF
ZXILXZf3eojyeBgDGPowHewWCnYsvtI9z+80x9b9hqYcgBswsfe2jlv8+RmIZaGf
mcJHVBah1alDQmV8eskkxxCEgWamgZz2r5HCkY1/xSwvtuXlN1shB5paVYssgNJE
RoUcOAI80/OB5LoZakNz6s6sGMZeRJPfBhiJJP/P3PjHoV2e87AA94l1gzjWnuFi
-----END CERTIFICATE-----
