Certificate:
    Data:
        Version: 3 (0x2)
        Serial Number:
            68:92:08:13:1d:e0:1a:cc:28:19:77:72:d6:55:d3:43
        Signature Algorithm: sha256WithRSAEncryption
        Issuer: CN=team303-net
        Validity
            Not Before: Nov  4 11:33:58 2023 GMT
            Not After : Oct 19 11:33:58 2026 GMT
        Subject: CN=team303-client
        Subject Public Key Info:
            Public Key Algorithm: rsaEncryption
                Public-Key: (2048 bit)
                Modulus:
                    00:bd:23:9a:58:a6:c0:3f:7c:aa:b0:29:b6:36:64:
                    08:da:48:da:04:f6:40:8a:5c:cf:af:02:e0:35:ec:
                    5e:19:88:0d:f7:9a:c9:44:79:ce:cb:0c:50:1f:98:
                    8d:73:65:f4:ea:8c:3c:86:ce:25:71:a7:77:fd:18:
                    50:94:b2:c7:48:da:25:f5:46:e7:cf:f9:7d:f8:cd:
                    ee:3b:ba:72:89:7e:10:a8:a0:e0:b7:39:3e:fd:7c:
                    81:41:5c:61:1e:63:82:25:4b:fe:65:24:7a:57:59:
                    82:5d:16:0f:70:06:64:a6:25:86:ac:6e:e2:9f:59:
                    45:2c:62:a6:02:2c:c0:62:d8:01:9e:54:05:f2:d4:
                    bd:0d:41:ab:3c:fe:ec:fb:3e:fd:64:6b:41:83:3d:
                    18:90:6b:64:86:4a:6e:3c:4e:1b:44:a5:7c:84:9d:
                    d3:8d:ba:e0:74:df:4c:aa:1b:1c:8c:55:55:91:61:
                    8d:6d:4f:7e:67:ae:49:e7:1f:9e:97:62:3f:5f:5e:
                    9e:bb:7d:c6:bb:60:59:fc:55:74:f2:44:dd:f8:50:
                    49:f5:50:bd:b0:03:95:89:3b:31:f3:13:e7:51:7a:
                    4e:ee:0c:f0:ae:9d:c1:82:89:cf:d1:13:d5:fc:77:
                    0b:06:7d:98:bd:1f:fd:15:75:4a:ee:2e:b5:58:52:
                    c8:3b
                Exponent: 65537 (0x10001)
        X509v3 extensions:
            X509v3 Basic Constraints: 
                CA:FALSE
            X509v3 Subject Key Identifier: 
                21:D5:00:9E:DC:A3:AE:AD:65:3C:A6:AE:DC:E9:CF:AB:1A:FC:89:D8
            X509v3 Authority Key Identifier: 
                keyid:16:73:9A:D4:B9:A7:99:31:3C:30:C9:34:4D:82:EB:24:F2:51:14:0F
                DirName:/CN=team303-net
                serial:34:15:E2:57:03:FB:9B:2A:AA:AF:C8:82:04:4B:23:C4:20:D1:91:84
            X509v3 Extended Key Usage: 
                TLS Web Client Authentication
            X509v3 Key Usage: 
                Digital Signature
    Signature Algorithm: sha256WithRSAEncryption
    Signature Value:
        32:19:f3:4d:86:cb:d9:f4:1b:90:f4:59:36:aa:31:27:10:1c:
        83:58:16:3a:16:d0:35:04:b0:73:b7:6d:2e:35:5f:a0:2b:3c:
        8e:7d:7a:e5:2d:55:64:49:0c:e5:96:27:73:59:0b:98:99:8a:
        8a:2b:27:f0:26:df:18:38:40:88:9b:e9:0e:48:a0:cd:3a:55:
        32:5b:f3:59:c3:b3:ac:e0:04:94:33:7e:38:b4:db:61:7b:c0:
        f0:c2:df:1c:b2:18:9d:4f:86:0b:dc:6e:e5:60:a0:d8:37:be:
        74:f1:8f:54:96:c5:fc:f9:bd:7b:43:d2:c7:f0:fa:bc:1d:8e:
        51:d7:71:8e:d0:02:ed:38:20:12:f9:26:eb:0f:40:40:06:49:
        9b:36:fd:33:0f:ae:6f:59:0b:85:77:2b:1b:9f:56:ec:a8:de:
        31:3a:4f:fd:68:cc:20:cd:68:66:32:bb:66:68:9d:56:6f:15:
        91:76:a6:33:6a:27:c0:c0:45:5f:29:4c:29:4e:81:73:cf:80:
        41:95:68:c4:45:83:fb:5c:55:b2:d1:fc:43:18:9a:f9:60:cb:
        01:30:fb:d1:5d:2e:15:e4:4c:7f:05:62:57:25:d9:d0:de:ab:
        0e:b3:f3:9a:da:d5:28:72:36:9c:be:ac:7b:52:ac:46:8a:b9:
        34:aa:90:37
-----BEGIN CERTIFICATE-----
MIIDXDCCAkSgAwIBAgIQaJIIEx3gGswoGXdy1lXTQzANBgkqhkiG9w0BAQsFADAW
MRQwEgYDVQQDDAt0ZWFtMzAzLW5ldDAeFw0yMzExMDQxMTMzNThaFw0yNjEwMTkx
MTMzNThaMBkxFzAVBgNVBAMMDnRlYW0zMDMtY2xpZW50MIIBIjANBgkqhkiG9w0B
AQEFAAOCAQ8AMIIBCgKCAQEAvSOaWKbAP3yqsCm2NmQI2kjaBPZAilzPrwLgNexe
GYgN95rJRHnOywxQH5iNc2X06ow8hs4lcad3/RhQlLLHSNol9Ubnz/l9+M3uO7py
iX4QqKDgtzk+/XyBQVxhHmOCJUv+ZSR6V1mCXRYPcAZkpiWGrG7in1lFLGKmAizA
YtgBnlQF8tS9DUGrPP7s+z79ZGtBgz0YkGtkhkpuPE4bRKV8hJ3TjbrgdN9Mqhsc
jFVVkWGNbU9+Z65J5x+el2I/X16eu33Gu2BZ/FV08kTd+FBJ9VC9sAOViTsx8xPn
UXpO7gzwrp3BgonP0RPV/HcLBn2YvR/9FXVK7i61WFLIOwIDAQABo4GiMIGfMAkG
A1UdEwQCMAAwHQYDVR0OBBYEFCHVAJ7co66tZTymrtzpz6sa/InYMFEGA1UdIwRK
MEiAFBZzmtS5p5kxPDDJNE2C6yTyURQPoRqkGDAWMRQwEgYDVQQDDAt0ZWFtMzAz
LW5ldIIUNBXiVwP7myqqr8iCBEsjxCDRkYQwEwYDVR0lBAwwCgYIKwYBBQUHAwIw
CwYDVR0PBAQDAgeAMA0GCSqGSIb3DQEBCwUAA4IBAQAyGfNNhsvZ9BuQ9Fk2qjEn
EByDWBY6FtA1BLBzt20uNV+gKzyOfXrlLVVkSQzllidzWQuYmYqKKyfwJt8YOECI
m+kOSKDNOlUyW/NZw7Os4ASUM344tNthe8Dwwt8cshidT4YL3G7lYKDYN7508Y9U
lsX8+b17Q9LH8Pq8HY5R13GO0ALtOCAS+SbrD0BABkmbNv0zD65vWQuFdysbn1bs
qN4xOk/9aMwgzWhmMrtmaJ1WbxWRdqYzaifAwEVfKUwpToFzz4BBlWjERYP7XFWy
0fxDGJr5YMsBMPvRXS4V5Ex/BWJXJdnQ3qsOs/Oa2tUocjacvqx7UqxGirk0qpA3
-----END CERTIFICATE-----
