Certificate:
    Data:
        Version: 3 (0x2)
        Serial Number:
            a2:b8:70:b5:a9:3e:a9:b6:b9:a3:3d:d7:50:95:c1:9f
        Signature Algorithm: sha256WithRSAEncryption
        Issuer: CN=team181-net
        Validity
            Not Before: Nov  3 20:42:32 2023 GMT
            Not After : Oct 18 20:42:32 2026 GMT
        Subject: CN=team181-client
        Subject Public Key Info:
            Public Key Algorithm: rsaEncryption
                Public-Key: (2048 bit)
                Modulus:
                    00:96:68:56:aa:36:cd:77:78:0c:2a:fe:d6:4d:16:
                    15:ef:2f:75:82:00:16:5c:b2:65:87:05:58:65:ff:
                    b8:a0:19:9d:65:6f:b1:7f:c1:37:8a:09:46:00:8d:
                    90:c7:6c:69:d2:19:c2:ee:52:ea:ab:92:72:dc:64:
                    e8:b6:c2:75:0d:f4:eb:f8:c0:bd:03:3f:b2:b0:aa:
                    72:09:a6:f9:9c:cd:99:6e:92:94:73:52:94:ef:16:
                    61:dc:0f:b7:1a:9e:16:c4:0d:c6:33:e8:21:45:4d:
                    22:f8:e0:2b:45:69:d2:13:c3:73:4d:70:e0:5c:1f:
                    af:d4:c7:c8:d4:64:d5:5f:33:37:78:87:ba:3f:e3:
                    da:c0:a1:b8:d6:9b:34:4f:ce:56:71:87:d3:21:6b:
                    b5:95:d0:f2:22:62:6e:f8:18:87:99:c1:90:b1:3f:
                    02:5b:21:13:13:83:c7:c2:40:3e:04:f8:3f:40:eb:
                    27:18:c0:11:e5:f4:5a:da:e0:be:5d:fb:cf:b5:37:
                    ec:3a:7f:10:14:5a:84:e1:cf:00:61:80:90:66:4f:
                    f7:9c:f8:c5:52:68:fe:ab:03:83:bd:30:7e:7c:69:
                    57:a3:cb:66:3f:b3:f5:7f:c4:0e:41:72:b9:0c:b7:
                    94:dd:8c:53:e9:65:d7:2d:00:53:9b:2d:17:81:62:
                    a1:3f
                Exponent: 65537 (0x10001)
        X509v3 extensions:
            X509v3 Basic Constraints: 
                CA:FALSE
            X509v3 Subject Key Identifier: 
                7C:D7:B2:0F:65:C8:5B:A8:AF:81:5C:DA:96:C7:E3:01:A2:B0:15:5B
            X509v3 Authority Key Identifier: 
                keyid:C5:F6:30:9C:BF:3C:BB:85:AA:5A:76:B0:68:42:59:A7:AB:AD:4E:FF
                DirName:/CN=team181-net
                serial:16:B4:F7:F3:B0:5C:AA:76:A0:7C:82:0E:3C:CA:80:E7:41:8F:E4:8D
            X509v3 Extended Key Usage: 
                TLS Web Client Authentication
            X509v3 Key Usage: 
                Digital Signature
    Signature Algorithm: sha256WithRSAEncryption
    Signature Value:
        40:2b:af:c7:c8:32:e2:ec:59:2e:e4:00:c5:01:6c:cf:10:ff:
        b1:69:49:5e:db:b6:c0:16:4c:ca:c4:05:bf:c9:86:ec:23:80:
        fc:19:25:7d:3a:4b:cd:61:50:5c:7d:26:f0:b7:52:0b:6a:88:
        49:d3:95:34:9b:1d:7e:cc:e1:d9:b8:85:63:98:d3:6a:0e:91:
        d8:65:73:83:34:63:10:19:a8:e6:d6:49:bd:22:03:f4:77:db:
        00:ba:49:74:1a:0b:11:e1:46:0b:b8:85:a9:0d:40:ce:73:b2:
        a2:38:e5:c3:69:e8:e7:38:80:1e:0e:a7:6c:4f:65:e4:d5:01:
        8e:49:62:a4:7d:72:aa:98:82:ee:30:c9:30:da:a0:81:23:20:
        65:46:6e:8c:73:2b:85:ae:64:7e:72:c2:c7:06:e9:88:7b:68:
        d3:e0:93:05:5f:e5:38:f4:c6:e8:bc:9f:5d:f9:39:d2:78:93:
        4a:10:49:b2:30:13:a1:a1:84:f1:1d:e5:71:1a:3f:b6:0f:53:
        ca:c5:51:b0:3b:0e:dc:42:c5:97:38:be:90:a6:c5:08:f6:1b:
        80:55:5b:bc:dc:27:a4:6c:bb:87:8d:6f:01:6a:05:5c:4e:6d:
        ac:5b:66:45:0e:d1:55:37:59:f4:99:57:e9:8b:57:d8:24:6d:
        bd:31:54:bb
-----BEGIN CERTIFICATE-----
MIIDXTCCAkWgAwIBAgIRAKK4cLWpPqm2uaM911CVwZ8wDQYJKoZIhvcNAQELBQAw
FjEUMBIGA1UEAwwLdGVhbTE4MS1uZXQwHhcNMjMxMTAzMjA0MjMyWhcNMjYxMDE4
MjA0MjMyWjAZMRcwFQYDVQQDDA50ZWFtMTgxLWNsaWVudDCCASIwDQYJKoZIhvcN
AQEBBQADggEPADCCAQoCggEBAJZoVqo2zXd4DCr+1k0WFe8vdYIAFlyyZYcFWGX/
uKAZnWVvsX/BN4oJRgCNkMdsadIZwu5S6quSctxk6LbCdQ306/jAvQM/srCqcgmm
+ZzNmW6SlHNSlO8WYdwPtxqeFsQNxjPoIUVNIvjgK0Vp0hPDc01w4Fwfr9THyNRk
1V8zN3iHuj/j2sChuNabNE/OVnGH0yFrtZXQ8iJibvgYh5nBkLE/AlshExODx8JA
PgT4P0DrJxjAEeX0Wtrgvl37z7U37Dp/EBRahOHPAGGAkGZP95z4xVJo/qsDg70w
fnxpV6PLZj+z9X/EDkFyuQy3lN2MU+ll1y0AU5stF4FioT8CAwEAAaOBojCBnzAJ
BgNVHRMEAjAAMB0GA1UdDgQWBBR817IPZchbqK+BXNqWx+MBorAVWzBRBgNVHSME
SjBIgBTF9jCcvzy7hapadrBoQlmnq61O/6EapBgwFjEUMBIGA1UEAwwLdGVhbTE4
MS1uZXSCFBa09/OwXKp2oHyCDjzKgOdBj+SNMBMGA1UdJQQMMAoGCCsGAQUFBwMC
MAsGA1UdDwQEAwIHgDANBgkqhkiG9w0BAQsFAAOCAQEAQCuvx8gy4uxZLuQAxQFs
zxD/sWlJXtu2wBZMysQFv8mG7COA/BklfTpLzWFQXH0m8LdSC2qISdOVNJsdfszh
2biFY5jTag6R2GVzgzRjEBmo5tZJvSID9HfbALpJdBoLEeFGC7iFqQ1AznOyojjl
w2no5ziAHg6nbE9l5NUBjklipH1yqpiC7jDJMNqggSMgZUZujHMrha5kfnLCxwbp
iHto0+CTBV/lOPTG6LyfXfk50niTShBJsjAToaGE8R3lcRo/tg9TysVRsDsO3ELF
lzi+kKbFCPYbgFVbvNwnpGy7h41vAWoFXE5trFtmRQ7RVTdZ9JlX6YtX2CRtvTFU
uw==
-----END CERTIFICATE-----
