Certificate:
    Data:
        Version: 3 (0x2)
        Serial Number:
            6d:ca:da:d4:ad:a2:83:fe:20:ae:1c:c7:54:39:ca:22
        Signature Algorithm: sha256WithRSAEncryption
        Issuer: CN=team38-net
        Validity
            Not Before: Nov  3 20:39:55 2023 GMT
            Not After : Oct 18 20:39:55 2026 GMT
        Subject: CN=team38-client
        Subject Public Key Info:
            Public Key Algorithm: rsaEncryption
                Public-Key: (2048 bit)
                Modulus:
                    00:c9:fa:7c:a0:93:f5:f1:53:20:21:e7:0b:e8:3a:
                    b2:31:14:72:ec:da:85:c4:5d:c4:db:17:09:d9:56:
                    54:d3:26:b9:6f:5c:10:4a:06:18:a0:cf:17:f5:0e:
                    e7:af:e6:d5:3c:b0:d1:43:6d:5d:4b:3b:0e:37:5c:
                    b2:a8:62:f1:21:54:1b:04:bc:3d:20:3b:e3:4c:29:
                    60:eb:5f:2c:b6:c5:ac:b5:8e:7a:25:42:29:38:fd:
                    02:fb:2d:c9:8f:a7:77:f6:d8:5c:47:ae:21:42:19:
                    6d:51:07:df:8a:04:96:1a:37:a4:f9:e1:1e:69:7f:
                    68:85:23:4b:f8:6c:77:aa:68:af:e6:2f:96:53:fa:
                    45:2d:2f:db:e3:1a:be:62:a0:d5:20:7e:8a:0e:b6:
                    98:26:ca:91:6b:1e:fe:a2:b6:54:ab:9c:2b:d3:05:
                    34:fb:f1:e4:aa:0b:cb:05:80:4c:aa:7d:d4:56:e0:
                    f2:04:39:cd:e5:4a:4c:3b:34:01:ea:5c:13:a5:5f:
                    c9:b1:0a:40:fb:ec:ad:8e:69:89:2a:53:ff:b9:e0:
                    22:f2:7a:bd:ae:37:b6:d5:3a:67:bd:f7:a2:67:a1:
                    26:60:1f:53:bc:22:a8:df:0e:b2:60:a3:d1:c9:e6:
                    92:69:89:9a:c7:0a:d4:10:14:e9:66:c5:6f:b4:47:
                    95:d3
                Exponent: 65537 (0x10001)
        X509v3 extensions:
            X509v3 Basic Constraints: 
                CA:FALSE
            X509v3 Subject Key Identifier: 
                37:3A:9C:1C:1C:8A:94:D5:F7:39:79:0C:F2:EA:DB:52:F9:C6:87:FF
            X509v3 Authority Key Identifier: 
                keyid:19:89:83:57:9A:FB:62:22:E9:7B:7F:8E:B7:59:56:8E:C7:FD:53:5C
                DirName:/CN=team38-net
                serial:56:49:E8:D1:FE:A5:38:27:BB:18:87:D0:BE:E6:24:30:49:04:51:14
            X509v3 Extended Key Usage: 
                TLS Web Client Authentication
            X509v3 Key Usage: 
                Digital Signature
    Signature Algorithm: sha256WithRSAEncryption
    Signature Value:
        97:9c:1a:35:6c:db:f4:32:44:e6:6a:5a:cc:85:1d:5f:da:11:
        50:31:73:5b:86:97:1e:c0:2d:8a:45:cb:dc:6d:49:42:f6:f9:
        7e:f4:ce:a5:6a:4b:32:4d:c6:6e:d1:6e:85:5a:43:ed:07:90:
        59:d3:9b:1d:27:26:ef:ae:e5:e8:24:5d:95:e0:cb:33:d4:fc:
        84:e5:11:03:42:08:6e:89:5d:0d:87:08:84:47:03:c0:ce:ca:
        63:bb:cf:08:70:fe:e0:80:4a:8a:dd:43:d9:ba:af:0d:06:a5:
        6c:60:d4:6d:7f:e1:ab:cd:31:8c:02:cf:9d:ca:90:51:ea:81:
        eb:03:8c:11:05:dc:2b:7b:d7:f7:16:27:6b:33:ab:30:20:63:
        0f:08:27:58:6b:46:1c:2a:f8:5b:32:e1:8a:84:77:d6:b1:ed:
        86:2f:6b:48:45:ce:b1:73:82:b6:e4:41:df:fc:b1:fd:3a:e7:
        5f:39:c7:d4:2f:6e:88:fb:b3:98:bf:de:67:c7:82:f3:ab:ff:
        7e:81:5d:2c:09:a4:c8:84:dd:d4:6a:88:1a:8c:1e:66:93:19:
        76:32:8d:ac:4f:3b:ad:dc:2f:ff:3d:04:13:e2:c4:aa:c0:9c:
        93:17:fd:aa:28:3e:a9:7d:f2:21:58:ff:a2:2a:8f:43:e5:60:
        e8:30:dd:76
-----BEGIN CERTIFICATE-----
MIIDWTCCAkGgAwIBAgIQbcra1K2ig/4grhzHVDnKIjANBgkqhkiG9w0BAQsFADAV
MRMwEQYDVQQDDAp0ZWFtMzgtbmV0MB4XDTIzMTEwMzIwMzk1NVoXDTI2MTAxODIw
Mzk1NVowGDEWMBQGA1UEAwwNdGVhbTM4LWNsaWVudDCCASIwDQYJKoZIhvcNAQEB
BQADggEPADCCAQoCggEBAMn6fKCT9fFTICHnC+g6sjEUcuzahcRdxNsXCdlWVNMm
uW9cEEoGGKDPF/UO56/m1Tyw0UNtXUs7Djdcsqhi8SFUGwS8PSA740wpYOtfLLbF
rLWOeiVCKTj9AvstyY+nd/bYXEeuIUIZbVEH34oElho3pPnhHml/aIUjS/hsd6po
r+YvllP6RS0v2+MavmKg1SB+ig62mCbKkWse/qK2VKucK9MFNPvx5KoLywWATKp9
1Fbg8gQ5zeVKTDs0AepcE6VfybEKQPvsrY5piSpT/7ngIvJ6va43ttU6Z733omeh
JmAfU7wiqN8OsmCj0cnmkmmJmscK1BAU6WbFb7RHldMCAwEAAaOBoTCBnjAJBgNV
HRMEAjAAMB0GA1UdDgQWBBQ3OpwcHIqU1fc5eQzy6ttS+caH/zBQBgNVHSMESTBH
gBQZiYNXmvtiIul7f463WVaOx/1TXKEZpBcwFTETMBEGA1UEAwwKdGVhbTM4LW5l
dIIUVkno0f6lOCe7GIfQvuYkMEkEURQwEwYDVR0lBAwwCgYIKwYBBQUHAwIwCwYD
VR0PBAQDAgeAMA0GCSqGSIb3DQEBCwUAA4IBAQCXnBo1bNv0MkTmalrMhR1f2hFQ
MXNbhpcewC2KRcvcbUlC9vl+9M6laksyTcZu0W6FWkPtB5BZ05sdJybvruXoJF2V
4Msz1PyE5REDQghuiV0NhwiERwPAzspju88IcP7ggEqK3UPZuq8NBqVsYNRtf+Gr
zTGMAs+dypBR6oHrA4wRBdwre9f3FidrM6swIGMPCCdYa0YcKvhbMuGKhHfWse2G
L2tIRc6xc4K25EHf/LH9OudfOcfUL26I+7OYv95nx4Lzq/9+gV0sCaTIhN3Uaoga
jB5mkxl2Mo2sTzut3C//PQQT4sSqwJyTF/2qKD6pffIhWP+iKo9D5WDoMN12
-----END CERTIFICATE-----
