Certificate:
    Data:
        Version: 3 (0x2)
        Serial Number:
            78:f6:d1:f0:cc:03:63:c2:e6:87:f3:b6:90:f3:a0:39
        Signature Algorithm: sha256WithRSAEncryption
        Issuer: CN=team38-net
        Validity
            Not Before: Nov  4 10:40:56 2023 GMT
            Not After : Oct 19 10:40:56 2026 GMT
        Subject: CN=team38-client
        Subject Public Key Info:
            Public Key Algorithm: rsaEncryption
                Public-Key: (2048 bit)
                Modulus:
                    00:a0:07:f9:49:7d:9f:ed:f2:48:b0:da:3a:a2:34:
                    5d:b4:89:ed:e0:04:1f:ea:53:ea:46:98:60:52:ae:
                    b1:1e:5a:62:77:72:e1:02:29:73:82:ce:12:25:5f:
                    22:5b:e8:32:82:e1:66:2f:50:71:54:69:09:d0:73:
                    eb:8c:9a:e8:2a:81:ef:4a:d9:5e:21:9b:8b:e3:12:
                    a0:38:a3:51:5b:98:29:af:1f:77:fc:05:af:2c:53:
                    e1:ab:a3:16:51:ad:b9:d3:24:68:59:79:70:8f:5f:
                    7a:95:9f:5b:e2:17:44:5c:13:c8:0f:b1:fe:5b:e1:
                    f4:07:be:09:54:9d:68:b4:1d:06:66:17:12:9f:2b:
                    20:0e:d7:14:c3:53:5d:7c:ec:b8:19:c9:a6:91:de:
                    bb:02:95:b8:9c:7b:b8:3c:b6:1a:4c:09:d8:92:ee:
                    4d:17:31:f5:c8:c0:ea:4e:6c:0f:b2:c3:69:07:93:
                    e9:9c:d7:95:4a:a4:20:3e:d2:46:ee:39:3d:ac:cc:
                    6c:1c:0f:b7:02:2f:f0:d2:bf:65:30:89:88:4f:21:
                    fc:d4:6e:69:a0:a9:36:4d:38:dd:06:5d:c2:03:73:
                    cd:aa:04:f0:a1:55:d5:73:d6:31:83:71:a9:e5:ff:
                    00:6f:85:ff:96:fb:de:b0:41:fd:5a:8a:a3:69:3e:
                    62:87
                Exponent: 65537 (0x10001)
        X509v3 extensions:
            X509v3 Basic Constraints: 
                CA:FALSE
            X509v3 Subject Key Identifier: 
                B4:39:4E:92:1D:C5:F7:CD:0A:63:E1:D3:28:4C:63:97:C5:82:B4:52
            X509v3 Authority Key Identifier: 
                keyid:DF:5E:8C:EA:09:FC:EB:0A:28:3A:35:66:53:21:71:5E:B3:8D:32:9F
                DirName:/CN=team38-net
                serial:7F:36:68:8F:D2:BE:7A:73:E8:15:B2:D7:68:BD:55:8B:B0:32:81:8B
            X509v3 Extended Key Usage: 
                TLS Web Client Authentication
            X509v3 Key Usage: 
                Digital Signature
    Signature Algorithm: sha256WithRSAEncryption
    Signature Value:
        52:ee:3b:dc:c3:b9:43:1a:ab:0e:47:4f:9b:c0:d0:87:23:12:
        81:a5:dd:c0:92:ef:cf:ad:d5:22:92:07:da:40:27:1b:22:0e:
        30:9b:30:73:e9:2c:7c:12:a8:75:29:de:56:99:1c:39:32:c2:
        12:c7:e2:49:3e:3f:e9:3b:6e:f6:6e:3b:16:91:7b:95:a4:a8:
        ae:cc:9a:a2:95:69:a3:8e:3d:82:25:42:4b:89:3b:1e:e2:b8:
        32:73:40:f7:a9:b5:30:2d:fb:0d:d9:5c:f9:5e:6d:46:1c:4f:
        5d:28:64:31:7b:cc:7b:8f:04:59:39:5b:23:40:db:4f:99:f9:
        b2:5d:00:fa:ea:48:5d:50:8e:43:35:00:8c:ab:b8:34:52:21:
        f3:9a:4a:98:ce:b1:9a:e1:54:d1:4e:3c:14:ac:7d:91:f7:38:
        b9:9f:36:92:5d:ea:fa:2f:01:72:f4:b9:dc:05:3c:0d:ff:41:
        43:c1:4e:9a:be:94:e9:1d:94:6a:7a:be:fd:f8:a7:aa:f1:06:
        ff:cc:d1:5c:1e:ec:86:b6:2f:89:2a:cb:1a:94:b4:b5:3c:89:
        fe:9d:cd:c2:19:ee:4f:18:f2:83:79:7d:91:97:05:e0:15:49:
        45:d0:45:62:b2:21:f3:0a:02:ee:ab:7f:31:eb:d0:68:57:cd:
        b0:ec:a3:04
-----BEGIN CERTIFICATE-----
MIIDWTCCAkGgAwIBAgIQePbR8MwDY8Lmh/O2kPOgOTANBgkqhkiG9w0BAQsFADAV
MRMwEQYDVQQDDAp0ZWFtMzgtbmV0MB4XDTIzMTEwNDEwNDA1NloXDTI2MTAxOTEw
NDA1NlowGDEWMBQGA1UEAwwNdGVhbTM4LWNsaWVudDCCASIwDQYJKoZIhvcNAQEB
BQADggEPADCCAQoCggEBAKAH+Ul9n+3ySLDaOqI0XbSJ7eAEH+pT6kaYYFKusR5a
Yndy4QIpc4LOEiVfIlvoMoLhZi9QcVRpCdBz64ya6CqB70rZXiGbi+MSoDijUVuY
Ka8fd/wFryxT4aujFlGtudMkaFl5cI9fepWfW+IXRFwTyA+x/lvh9Ae+CVSdaLQd
BmYXEp8rIA7XFMNTXXzsuBnJppHeuwKVuJx7uDy2GkwJ2JLuTRcx9cjA6k5sD7LD
aQeT6ZzXlUqkID7SRu45PazMbBwPtwIv8NK/ZTCJiE8h/NRuaaCpNk043QZdwgNz
zaoE8KFV1XPWMYNxqeX/AG+F/5b73rBB/VqKo2k+YocCAwEAAaOBoTCBnjAJBgNV
HRMEAjAAMB0GA1UdDgQWBBS0OU6SHcX3zQpj4dMoTGOXxYK0UjBQBgNVHSMESTBH
gBTfXozqCfzrCig6NWZTIXFes40yn6EZpBcwFTETMBEGA1UEAwwKdGVhbTM4LW5l
dIIUfzZoj9K+enPoFbLXaL1Vi7AygYswEwYDVR0lBAwwCgYIKwYBBQUHAwIwCwYD
VR0PBAQDAgeAMA0GCSqGSIb3DQEBCwUAA4IBAQBS7jvcw7lDGqsOR0+bwNCHIxKB
pd3Aku/PrdUikgfaQCcbIg4wmzBz6Sx8Eqh1Kd5WmRw5MsISx+JJPj/pO272bjsW
kXuVpKiuzJqilWmjjj2CJUJLiTse4rgyc0D3qbUwLfsN2Vz5Xm1GHE9dKGQxe8x7
jwRZOVsjQNtPmfmyXQD66khdUI5DNQCMq7g0UiHzmkqYzrGa4VTRTjwUrH2R9zi5
nzaSXer6LwFy9LncBTwN/0FDwU6avpTpHZRqer79+Keq8Qb/zNFcHuyGti+JKssa
lLS1PIn+nc3CGe5PGPKDeX2RlwXgFUlF0EVisiHzCgLuq38x69BoV82w7KME
-----END CERTIFICATE-----
