Certificate:
    Data:
        Version: 3 (0x2)
        Serial Number:
            9e:aa:83:41:dc:5c:de:c9:31:d9:57:90:22:e2:ef:1e
        Signature Algorithm: sha256WithRSAEncryption
        Issuer: CN=team38-net
        Validity
            Not Before: Nov  4 11:28:06 2023 GMT
            Not After : Oct 19 11:28:06 2026 GMT
        Subject: CN=team38-client
        Subject Public Key Info:
            Public Key Algorithm: rsaEncryption
                Public-Key: (2048 bit)
                Modulus:
                    00:d3:f7:ad:68:5c:75:38:1d:4e:81:fb:7a:4f:6d:
                    0e:58:62:b6:e2:0e:78:a9:a2:1d:b2:fe:b7:3e:ba:
                    82:ae:21:5e:e3:50:75:f2:d0:0c:5d:7f:f8:58:b7:
                    05:1e:2b:96:d0:85:d9:ae:7c:bd:8d:30:fe:0a:34:
                    8d:1b:35:fb:37:00:2a:17:13:d3:9b:c9:50:43:a4:
                    40:49:66:73:0f:9b:19:6a:78:32:9c:fd:d8:eb:37:
                    e6:64:0f:3c:24:71:1c:93:a9:c1:04:0f:24:6d:00:
                    a3:48:4f:f5:c3:ed:e9:8a:65:a5:f4:53:89:9d:31:
                    23:db:a5:c3:14:86:fd:b1:fe:9c:db:e7:e4:b7:dd:
                    0d:10:95:17:54:08:0e:ef:64:40:b2:ef:8e:f0:cb:
                    29:e1:09:82:89:18:4c:e7:7a:54:9d:67:6a:ca:51:
                    35:fe:84:e4:d7:ef:52:34:e3:68:ef:17:b7:94:1d:
                    ce:a9:86:6a:bf:1c:75:d6:4f:3e:18:f9:6c:aa:e4:
                    9e:83:c9:f7:8f:2b:0f:e8:4d:85:14:53:8c:8d:d5:
                    48:8c:4b:a0:72:0b:04:9e:16:e5:88:23:35:3a:e7:
                    26:73:55:05:fd:f1:c2:6b:86:fb:0e:40:2a:0c:8d:
                    77:f2:d4:bf:84:4a:5a:56:ad:82:93:4a:b2:da:c7:
                    92:cd
                Exponent: 65537 (0x10001)
        X509v3 extensions:
            X509v3 Basic Constraints: 
                CA:FALSE
            X509v3 Subject Key Identifier: 
                FE:44:47:1B:37:E6:1A:68:12:07:2B:37:A3:9D:22:2F:0F:F0:B4:D3
            X509v3 Authority Key Identifier: 
                keyid:81:A7:0E:A1:6F:08:08:EF:1F:77:CA:B1:E9:48:2E:9B:6E:9D:CC:02
                DirName:/CN=team38-net
                serial:29:B3:AA:8F:20:78:B0:9E:1B:D2:E4:00:71:93:25:AB:BE:97:4E:45
            X509v3 Extended Key Usage: 
                TLS Web Client Authentication
            X509v3 Key Usage: 
                Digital Signature
    Signature Algorithm: sha256WithRSAEncryption
    Signature Value:
        7d:b2:b1:95:93:47:ae:70:c2:7e:2f:62:37:90:fd:46:ec:8a:
        f6:ae:01:54:58:6e:c9:67:41:e2:b5:dd:3f:a7:3f:83:83:2b:
        71:cf:98:24:c6:0a:86:b1:72:e0:e9:d8:fd:23:96:73:63:69:
        29:11:96:c6:63:8a:41:40:ff:2e:c4:c3:ef:4f:7b:95:b1:27:
        2c:82:df:17:d6:38:2a:65:94:04:b9:75:59:9d:c0:c3:c9:40:
        2c:15:54:92:c5:48:b4:c4:83:d1:07:30:62:4e:e8:30:55:b1:
        ba:ae:cc:80:c8:0f:a0:b3:1f:18:3b:33:a9:31:4c:8b:d3:d0:
        ff:bc:88:7d:0f:f4:65:70:07:d8:ae:61:b2:4a:4b:e5:65:a3:
        36:ee:d1:99:ed:52:0d:55:52:a9:79:8a:2b:82:63:8d:6c:1e:
        27:22:15:c3:81:02:85:47:7c:7d:16:0e:25:f4:c0:9b:12:27:
        70:2d:ab:71:bd:05:28:bf:d3:c3:4e:9b:25:39:8c:c1:9b:c8:
        1d:f8:c5:87:40:2d:8d:12:e6:5f:61:98:2a:29:6c:8d:ef:f0:
        8e:c1:9e:bc:e7:fa:83:e4:81:6d:99:e7:a0:80:e2:3b:8c:85:
        38:01:30:d1:f0:d1:e0:29:e9:69:9a:86:ce:2f:d1:b4:cf:7e:
        c4:65:cc:44
-----BEGIN CERTIFICATE-----
MIIDWjCCAkKgAwIBAgIRAJ6qg0HcXN7JMdlXkCLi7x4wDQYJKoZIhvcNAQELBQAw
FTETMBEGA1UEAwwKdGVhbTM4LW5ldDAeFw0yMzExMDQxMTI4MDZaFw0yNjEwMTkx
MTI4MDZaMBgxFjAUBgNVBAMMDXRlYW0zOC1jbGllbnQwggEiMA0GCSqGSIb3DQEB
AQUAA4IBDwAwggEKAoIBAQDT961oXHU4HU6B+3pPbQ5YYrbiDnipoh2y/rc+uoKu
IV7jUHXy0Axdf/hYtwUeK5bQhdmufL2NMP4KNI0bNfs3ACoXE9ObyVBDpEBJZnMP
mxlqeDKc/djrN+ZkDzwkcRyTqcEEDyRtAKNIT/XD7emKZaX0U4mdMSPbpcMUhv2x
/pzb5+S33Q0QlRdUCA7vZECy747wyynhCYKJGEznelSdZ2rKUTX+hOTX71I042jv
F7eUHc6phmq/HHXWTz4Y+Wyq5J6DyfePKw/oTYUUU4yN1UiMS6ByCwSeFuWIIzU6
5yZzVQX98cJrhvsOQCoMjXfy1L+ESlpWrYKTSrLax5LNAgMBAAGjgaEwgZ4wCQYD
VR0TBAIwADAdBgNVHQ4EFgQU/kRHGzfmGmgSBys3o50iLw/wtNMwUAYDVR0jBEkw
R4AUgacOoW8ICO8fd8qx6Ugum26dzAKhGaQXMBUxEzARBgNVBAMMCnRlYW0zOC1u
ZXSCFCmzqo8geLCeG9LkAHGTJau+l05FMBMGA1UdJQQMMAoGCCsGAQUFBwMCMAsG
A1UdDwQEAwIHgDANBgkqhkiG9w0BAQsFAAOCAQEAfbKxlZNHrnDCfi9iN5D9RuyK
9q4BVFhuyWdB4rXdP6c/g4Mrcc+YJMYKhrFy4OnY/SOWc2NpKRGWxmOKQUD/LsTD
7097lbEnLILfF9Y4KmWUBLl1WZ3Aw8lALBVUksVItMSD0QcwYk7oMFWxuq7MgMgP
oLMfGDszqTFMi9PQ/7yIfQ/0ZXAH2K5hskpL5WWjNu7Rme1SDVVSqXmKK4JjjWwe
JyIVw4EChUd8fRYOJfTAmxIncC2rcb0FKL/Tw06bJTmMwZvIHfjFh0AtjRLmX2GY
Kilsje/wjsGevOf6g+SBbZnnoIDiO4yFOAEw0fDR4CnpaZqGzi/RtM9+xGXMRA==
-----END CERTIFICATE-----
