Certificate:
    Data:
        Version: 3 (0x2)
        Serial Number:
            f2:44:cc:82:6c:fd:c8:df:4d:69:3d:2c:7d:94:01:08
        Signature Algorithm: sha256WithRSAEncryption
        Issuer: CN=team38-net
        Validity
            Not Before: Nov  4 11:28:06 2023 GMT
            Not After : Oct 19 11:28:06 2026 GMT
        Subject: CN=team38-server
        Subject Public Key Info:
            Public Key Algorithm: rsaEncryption
                Public-Key: (2048 bit)
                Modulus:
                    00:b4:c1:f6:3e:8f:7d:48:48:1a:b9:ec:42:1d:75:
                    c5:98:ae:cc:e3:90:d7:12:d9:80:8f:a6:92:af:44:
                    15:6c:a1:42:13:9d:d7:3c:1d:5c:c4:4e:4b:fd:18:
                    6d:53:8c:75:7d:d2:8b:85:14:f2:75:e3:6b:db:d9:
                    f8:6d:c8:24:57:27:de:50:d4:54:89:40:64:bc:b7:
                    a7:fd:2a:b4:49:3d:3c:2c:89:9e:68:59:ad:1e:78:
                    c9:a8:10:71:7f:b6:a5:37:90:a5:9a:37:23:1e:b9:
                    2a:bb:f3:59:5d:6e:a0:5f:d4:14:e8:ac:a5:74:24:
                    fe:65:a5:a6:68:16:ea:f3:5a:98:ac:16:cb:43:b5:
                    49:6b:53:1a:d8:cd:70:d3:7e:48:92:cf:f1:6b:6c:
                    1f:a9:78:ee:1e:69:8e:08:90:c7:3f:b5:c2:e9:d3:
                    bd:79:b5:90:02:fb:5d:38:8f:6a:9f:fb:60:06:f4:
                    d5:03:30:bc:d6:d5:be:55:5a:49:37:6c:09:e6:fe:
                    cc:b2:96:7b:bc:1b:0c:cc:b0:7a:4a:a8:86:af:fd:
                    4d:93:a1:58:a4:3f:3e:ee:2d:f3:62:12:e5:50:68:
                    f6:27:87:24:41:f8:48:99:58:b1:19:e6:25:de:bb:
                    c8:f3:aa:49:51:cf:75:a7:cc:02:f3:c9:7c:2d:82:
                    7c:31
                Exponent: 65537 (0x10001)
        X509v3 extensions:
            X509v3 Basic Constraints: 
                CA:FALSE
            X509v3 Subject Key Identifier: 
                24:63:21:83:D3:1F:7E:42:48:40:01:DC:6A:F4:8D:06:84:3E:59:7F
            X509v3 Authority Key Identifier: 
                keyid:81:A7:0E:A1:6F:08:08:EF:1F:77:CA:B1:E9:48:2E:9B:6E:9D:CC:02
                DirName:/CN=team38-net
                serial:29:B3:AA:8F:20:78:B0:9E:1B:D2:E4:00:71:93:25:AB:BE:97:4E:45
            X509v3 Extended Key Usage: 
                TLS Web Server Authentication
            X509v3 Key Usage: 
                Digital Signature, Key Encipherment
            X509v3 Subject Alternative Name: 
                DNS:team38-server
    Signature Algorithm: sha256WithRSAEncryption
    Signature Value:
        47:eb:4e:11:7f:70:96:ff:73:ab:95:39:07:b9:47:70:5e:8a:
        94:a6:f6:b7:1b:8e:29:fc:fd:1b:e3:3b:e8:ed:2c:85:7a:51:
        6f:b1:e8:33:e7:6c:c8:44:9f:a2:eb:f8:20:d0:c7:56:ab:b3:
        c6:80:6e:03:32:e6:c7:c5:c7:d4:fa:0b:d1:57:7b:6f:49:eb:
        89:b4:b3:a5:e2:7a:dd:69:07:f8:47:e4:e4:ce:0b:15:e1:bc:
        17:13:a2:63:ca:99:02:05:c9:a2:8b:95:13:ff:ce:6d:5e:8e:
        88:b1:03:a3:8d:f4:76:e9:7d:77:a9:6b:05:0f:6e:a6:dd:97:
        6f:36:b8:b3:55:83:27:52:21:6a:1f:63:07:63:6f:9e:bd:1a:
        37:2b:c8:3d:19:4f:e5:26:77:e1:f2:c5:d6:5b:5c:a9:33:09:
        9d:3f:3a:1f:b5:c1:04:3d:e5:39:69:c7:0b:65:23:26:4d:c1:
        34:09:a3:92:95:ce:a2:8e:87:9b:7e:8c:67:76:a9:1b:b6:7d:
        72:c1:8c:e4:48:9b:07:1d:b0:cc:52:18:68:d5:0b:7b:53:2d:
        c6:4a:bb:32:c6:60:51:93:d9:10:b9:b1:04:0d:58:1b:17:cf:
        f8:12:01:4a:93:50:cb:19:12:36:de:60:2d:f6:ec:08:4c:e8:
        06:cc:55:c6
-----BEGIN CERTIFICATE-----
MIIDdDCCAlygAwIBAgIRAPJEzIJs/cjfTWk9LH2UAQgwDQYJKoZIhvcNAQELBQAw
FTETMBEGA1UEAwwKdGVhbTM4LW5ldDAeFw0yMzExMDQxMTI4MDZaFw0yNjEwMTkx
MTI4MDZaMBgxFjAUBgNVBAMMDXRlYW0zOC1zZXJ2ZXIwggEiMA0GCSqGSIb3DQEB
AQUAA4IBDwAwggEKAoIBAQC0wfY+j31ISBq57EIddcWYrszjkNcS2YCPppKvRBVs
oUITndc8HVzETkv9GG1TjHV90ouFFPJ142vb2fhtyCRXJ95Q1FSJQGS8t6f9KrRJ
PTwsiZ5oWa0eeMmoEHF/tqU3kKWaNyMeuSq781ldbqBf1BTorKV0JP5lpaZoFurz
WpisFstDtUlrUxrYzXDTfkiSz/FrbB+peO4eaY4IkMc/tcLp0715tZAC+104j2qf
+2AG9NUDMLzW1b5VWkk3bAnm/syylnu8GwzMsHpKqIav/U2ToVikPz7uLfNiEuVQ
aPYnhyRB+EiZWLEZ5iXeu8jzqklRz3WnzALzyXwtgnwxAgMBAAGjgbswgbgwCQYD
VR0TBAIwADAdBgNVHQ4EFgQUJGMhg9MffkJIQAHcavSNBoQ+WX8wUAYDVR0jBEkw
R4AUgacOoW8ICO8fd8qx6Ugum26dzAKhGaQXMBUxEzARBgNVBAMMCnRlYW0zOC1u
ZXSCFCmzqo8geLCeG9LkAHGTJau+l05FMBMGA1UdJQQMMAoGCCsGAQUFBwMBMAsG
A1UdDwQEAwIFoDAYBgNVHREEETAPgg10ZWFtMzgtc2VydmVyMA0GCSqGSIb3DQEB
CwUAA4IBAQBH604Rf3CW/3OrlTkHuUdwXoqUpva3G44p/P0b4zvo7SyFelFvsegz
52zIRJ+i6/gg0MdWq7PGgG4DMubHxcfU+gvRV3tvSeuJtLOl4nrdaQf4R+TkzgsV
4bwXE6JjypkCBcmii5UT/85tXo6IsQOjjfR26X13qWsFD26m3ZdvNrizVYMnUiFq
H2MHY2+evRo3K8g9GU/lJnfh8sXWW1ypMwmdPzoftcEEPeU5accLZSMmTcE0CaOS
lc6ijoebfoxndqkbtn1ywYzkSJsHHbDMUhho1Qt7Uy3GSrsyxmBRk9kQubEEDVgb
F8/4EgFKk1DLGRI23mAt9uwITOgGzFXG
-----END CERTIFICATE-----
