Certificate:
    Data:
        Version: 3 (0x2)
        Serial Number:
            0c:13:10:4c:56:70:50:98:8b:ee:96:5a:3d:d9:f1:be
        Signature Algorithm: sha256WithRSAEncryption
        Issuer: CN=team263-net
        Validity
            Not Before: Nov  3 20:44:07 2023 GMT
            Not After : Oct 18 20:44:07 2026 GMT
        Subject: CN=team263-client
        Subject Public Key Info:
            Public Key Algorithm: rsaEncryption
                Public-Key: (2048 bit)
                Modulus:
                    00:a7:27:47:9b:93:b5:2d:ef:89:cc:37:4a:24:d9:
                    a3:87:19:af:89:c0:34:60:a9:26:1f:8c:2d:78:fb:
                    c3:d8:94:31:df:3a:42:74:0f:52:1b:8b:b4:57:dd:
                    3e:cb:e3:fe:45:7c:f2:29:5b:ee:9c:a7:d0:32:f3:
                    6d:32:d5:0c:99:0e:13:00:ad:7c:dc:05:52:56:51:
                    b9:91:fa:ef:35:8c:dc:a5:60:61:a9:01:c3:28:3a:
                    c1:a4:d8:e6:4e:c9:b2:06:f4:16:fd:a4:ed:81:4f:
                    98:0b:ee:b4:5d:a2:98:eb:68:70:dd:0b:ff:bc:33:
                    08:5a:e2:de:5b:d2:45:22:19:09:6d:f6:9b:a8:d5:
                    8e:1c:b7:82:67:1a:0d:8f:2b:a2:ba:e8:77:02:e7:
                    7d:b0:ec:c4:8d:15:b4:d3:75:60:f3:59:36:41:2a:
                    5c:e8:fe:09:8f:dd:b5:c6:42:b0:6d:ea:53:85:9c:
                    32:97:2d:82:20:6b:53:98:c9:cb:1a:d2:0a:09:63:
                    12:82:12:70:23:c1:f7:f8:f1:dc:0e:73:a7:77:73:
                    92:4e:9a:34:3e:7f:58:a9:db:22:06:69:54:86:0a:
                    e3:01:01:00:0f:39:e2:ca:e3:11:f7:de:76:50:b2:
                    75:86:67:64:d1:42:6a:f2:b5:6f:1e:f8:39:ce:7c:
                    f6:0d
                Exponent: 65537 (0x10001)
        X509v3 extensions:
            X509v3 Basic Constraints: 
                CA:FALSE
            X509v3 Subject Key Identifier: 
                72:E6:4D:D6:80:04:36:44:A4:5B:18:96:F8:79:C6:F3:70:31:DC:35
            X509v3 Authority Key Identifier: 
                keyid:33:4E:CD:41:55:91:0C:59:36:6C:3A:8F:FF:41:C4:CA:D9:F1:1E:B3
                DirName:/CN=team263-net
                serial:66:92:B1:EF:F5:54:9E:A0:3C:2C:09:63:57:2E:87:D6:4C:E9:D3:3E
            X509v3 Extended Key Usage: 
                TLS Web Client Authentication
            X509v3 Key Usage: 
                Digital Signature
    Signature Algorithm: sha256WithRSAEncryption
    Signature Value:
        80:13:ad:53:45:7f:a5:11:3d:60:58:4f:8d:d2:ae:cd:bf:7c:
        13:97:f3:73:c1:87:18:77:20:f3:71:5a:87:9c:d9:d7:ab:bc:
        e2:4a:c4:18:76:1c:12:56:8b:a3:a7:56:36:0f:66:e8:96:3f:
        97:aa:4a:42:7f:c8:dc:c6:44:fe:cf:2e:73:3d:70:0a:25:be:
        2f:64:f8:97:0f:89:ed:b6:e7:39:aa:ba:09:ba:e8:c6:bb:1a:
        89:6c:82:89:65:2b:ad:f6:5f:f8:02:01:09:71:3f:fb:5d:cf:
        fb:e4:f9:27:4e:ae:1a:41:6f:a2:5d:e9:25:91:8f:75:ac:6e:
        72:b2:7f:fd:75:56:ce:a8:f3:2e:98:90:cc:e3:8c:a2:9c:4a:
        38:7d:21:c2:53:75:48:b8:2d:8e:1b:ad:bb:86:0c:ec:18:3b:
        b2:4b:25:b0:df:d0:70:3f:3b:93:f7:96:b7:1a:35:90:5a:f4:
        fb:5c:bb:0e:21:bc:6b:15:a5:a5:84:db:a5:e4:3f:43:d3:00:
        34:fc:48:b3:d9:bb:c4:56:b1:bf:2f:56:41:20:c7:29:84:83:
        f9:8c:da:19:34:07:7f:fc:1c:cd:84:f2:25:3e:ef:2f:ed:cf:
        49:b9:d6:c9:6f:09:df:be:f1:92:51:82:0d:3e:df:78:92:50:
        36:ff:11:a8
-----BEGIN CERTIFICATE-----
MIIDXDCCAkSgAwIBAgIQDBMQTFZwUJiL7pZaPdnxvjANBgkqhkiG9w0BAQsFADAW
MRQwEgYDVQQDDAt0ZWFtMjYzLW5ldDAeFw0yMzExMDMyMDQ0MDdaFw0yNjEwMTgy
MDQ0MDdaMBkxFzAVBgNVBAMMDnRlYW0yNjMtY2xpZW50MIIBIjANBgkqhkiG9w0B
AQEFAAOCAQ8AMIIBCgKCAQEApydHm5O1Le+JzDdKJNmjhxmvicA0YKkmH4wtePvD
2JQx3zpCdA9SG4u0V90+y+P+RXzyKVvunKfQMvNtMtUMmQ4TAK183AVSVlG5kfrv
NYzcpWBhqQHDKDrBpNjmTsmyBvQW/aTtgU+YC+60XaKY62hw3Qv/vDMIWuLeW9JF
IhkJbfabqNWOHLeCZxoNjyuiuuh3Aud9sOzEjRW003Vg81k2QSpc6P4Jj921xkKw
bepThZwyly2CIGtTmMnLGtIKCWMSghJwI8H3+PHcDnOnd3OSTpo0Pn9YqdsiBmlU
hgrjAQEADzniyuMR9952ULJ1hmdk0UJq8rVvHvg5znz2DQIDAQABo4GiMIGfMAkG
A1UdEwQCMAAwHQYDVR0OBBYEFHLmTdaABDZEpFsYlvh5xvNwMdw1MFEGA1UdIwRK
MEiAFDNOzUFVkQxZNmw6j/9BxMrZ8R6zoRqkGDAWMRQwEgYDVQQDDAt0ZWFtMjYz
LW5ldIIUZpKx7/VUnqA8LAljVy6H1kzp0z4wEwYDVR0lBAwwCgYIKwYBBQUHAwIw
CwYDVR0PBAQDAgeAMA0GCSqGSIb3DQEBCwUAA4IBAQCAE61TRX+lET1gWE+N0q7N
v3wTl/NzwYcYdyDzcVqHnNnXq7ziSsQYdhwSVoujp1Y2D2bolj+XqkpCf8jcxkT+
zy5zPXAKJb4vZPiXD4nttuc5qroJuujGuxqJbIKJZSut9l/4AgEJcT/7Xc/75Pkn
Tq4aQW+iXeklkY91rG5ysn/9dVbOqPMumJDM44yinEo4fSHCU3VIuC2OG627hgzs
GDuySyWw39BwPzuT95a3GjWQWvT7XLsOIbxrFaWlhNul5D9D0wA0/Eiz2bvEVrG/
L1ZBIMcphIP5jNoZNAd//BzNhPIlPu8v7c9JudbJbwnfvvGSUYINPt94klA2/xGo
-----END CERTIFICATE-----
