Certificate:
    Data:
        Version: 3 (0x2)
        Serial Number:
            57:7a:dd:85:db:89:30:09:69:67:9a:dd:3a:e4:3f:d7
        Signature Algorithm: sha256WithRSAEncryption
        Issuer: CN=team263-net
        Validity
            Not Before: Nov  4 10:45:34 2023 GMT
            Not After : Oct 19 10:45:34 2026 GMT
        Subject: CN=team263-client
        Subject Public Key Info:
            Public Key Algorithm: rsaEncryption
                Public-Key: (2048 bit)
                Modulus:
                    00:eb:35:99:04:60:8e:49:b7:bb:8a:01:8d:f6:3a:
                    36:b1:c8:6d:77:ee:eb:48:af:68:f3:fa:41:23:2d:
                    46:b8:fb:94:2d:94:9e:61:e7:b9:6d:ad:d7:b9:5f:
                    90:28:1c:6e:05:d2:51:8f:a8:19:0f:89:dd:2e:56:
                    5c:5e:ec:5d:62:2e:9e:85:a5:af:74:ad:2c:a1:93:
                    5c:39:e8:ab:2f:b9:13:65:19:94:4a:ab:a6:42:fe:
                    d0:f2:07:18:4c:42:19:41:53:4f:01:a1:02:d0:c6:
                    c4:c1:b8:19:22:bd:a0:d1:88:6a:c6:a0:b6:2d:b4:
                    73:96:01:c4:39:50:26:f4:dc:1a:88:4a:7f:7f:b2:
                    c8:c8:55:81:91:5c:3b:06:49:9c:21:2e:03:d2:14:
                    d6:c8:71:b0:84:d3:d1:8d:76:5f:9a:cd:c8:3a:dd:
                    ff:b2:ba:e8:09:e7:45:09:b3:98:25:de:3e:7d:d7:
                    de:5e:d5:86:86:aa:0b:9e:0e:d7:fd:93:9d:01:be:
                    4d:a7:de:4d:18:bb:58:1f:af:1c:be:db:f2:9f:06:
                    47:6f:25:79:ec:48:8d:4e:ef:47:0e:60:f6:0d:16:
                    ae:84:4f:90:f9:d8:6f:9d:17:b0:b3:06:50:cd:8a:
                    af:74:52:4e:89:dd:90:6e:11:8e:65:b9:8a:8b:60:
                    85:21
                Exponent: 65537 (0x10001)
        X509v3 extensions:
            X509v3 Basic Constraints: 
                CA:FALSE
            X509v3 Subject Key Identifier: 
                4E:04:5B:E0:18:84:1F:E9:73:1E:3C:D6:4B:11:BB:12:98:63:62:21
            X509v3 Authority Key Identifier: 
                keyid:96:B7:59:AB:83:13:1F:27:EF:70:4A:A4:6B:0A:48:3A:E6:67:93:98
                DirName:/CN=team263-net
                serial:67:26:28:63:D6:FC:61:EB:A7:08:45:7D:4B:FE:F5:58:A9:67:C4:86
            X509v3 Extended Key Usage: 
                TLS Web Client Authentication
            X509v3 Key Usage: 
                Digital Signature
    Signature Algorithm: sha256WithRSAEncryption
    Signature Value:
        72:af:19:a9:7f:7c:fd:bf:8b:9f:9e:73:f1:1f:b5:5d:cc:e6:
        7f:d7:f8:05:f1:00:b9:68:9d:1b:9b:65:38:9a:a7:92:78:fa:
        88:2a:33:c2:b2:da:4e:90:f4:9d:fb:06:47:d3:41:b9:6f:3e:
        66:c6:51:f5:47:f2:4a:4d:19:51:c2:72:80:04:40:4f:23:0f:
        01:55:bf:9a:1a:9d:47:f1:62:15:4f:7d:77:98:b5:fc:28:9d:
        d5:4a:53:2d:b4:f1:2f:a9:81:e6:34:1e:5e:c8:52:f6:04:33:
        ec:ea:0e:21:64:bb:f2:2e:20:e4:b1:e7:86:ff:27:f2:85:d5:
        b5:2f:0d:fa:7b:61:dd:ce:f0:43:78:50:11:de:6c:4f:25:a9:
        19:ab:99:b8:60:a9:c4:a4:75:99:63:46:72:7a:99:c1:40:56:
        68:50:4f:7b:ca:30:c4:42:7d:b0:53:91:5c:5f:53:2e:a6:2a:
        6a:27:05:24:85:e7:2a:95:08:06:d3:68:13:ab:9c:35:76:2f:
        bf:72:53:84:5b:eb:e5:fb:9c:03:1c:55:3a:e5:44:f3:41:b0:
        c0:1d:29:86:88:19:c7:6d:0a:1c:6e:de:de:4a:2d:d4:65:3d:
        96:18:2a:1f:b0:03:fa:c9:9f:e9:67:5a:a5:05:12:ad:5f:ca:
        da:46:b9:84
-----BEGIN CERTIFICATE-----
MIIDXDCCAkSgAwIBAgIQV3rdhduJMAlpZ5rdOuQ/1zANBgkqhkiG9w0BAQsFADAW
MRQwEgYDVQQDDAt0ZWFtMjYzLW5ldDAeFw0yMzExMDQxMDQ1MzRaFw0yNjEwMTkx
MDQ1MzRaMBkxFzAVBgNVBAMMDnRlYW0yNjMtY2xpZW50MIIBIjANBgkqhkiG9w0B
AQEFAAOCAQ8AMIIBCgKCAQEA6zWZBGCOSbe7igGN9jo2schtd+7rSK9o8/pBIy1G
uPuULZSeYee5ba3XuV+QKBxuBdJRj6gZD4ndLlZcXuxdYi6ehaWvdK0soZNcOeir
L7kTZRmUSqumQv7Q8gcYTEIZQVNPAaEC0MbEwbgZIr2g0YhqxqC2LbRzlgHEOVAm
9NwaiEp/f7LIyFWBkVw7BkmcIS4D0hTWyHGwhNPRjXZfms3IOt3/srroCedFCbOY
Jd4+fdfeXtWGhqoLng7X/ZOdAb5Np95NGLtYH68cvtvynwZHbyV57EiNTu9HDmD2
DRauhE+Q+dhvnRewswZQzYqvdFJOid2QbhGOZbmKi2CFIQIDAQABo4GiMIGfMAkG
A1UdEwQCMAAwHQYDVR0OBBYEFE4EW+AYhB/pcx481ksRuxKYY2IhMFEGA1UdIwRK
MEiAFJa3WauDEx8n73BKpGsKSDrmZ5OYoRqkGDAWMRQwEgYDVQQDDAt0ZWFtMjYz
LW5ldIIUZyYoY9b8YeunCEV9S/71WKlnxIYwEwYDVR0lBAwwCgYIKwYBBQUHAwIw
CwYDVR0PBAQDAgeAMA0GCSqGSIb3DQEBCwUAA4IBAQByrxmpf3z9v4ufnnPxH7Vd
zOZ/1/gF8QC5aJ0bm2U4mqeSePqIKjPCstpOkPSd+wZH00G5bz5mxlH1R/JKTRlR
wnKABEBPIw8BVb+aGp1H8WIVT313mLX8KJ3VSlMttPEvqYHmNB5eyFL2BDPs6g4h
ZLvyLiDkseeG/yfyhdW1Lw36e2HdzvBDeFAR3mxPJakZq5m4YKnEpHWZY0ZyepnB
QFZoUE97yjDEQn2wU5FcX1MupipqJwUkhecqlQgG02gTq5w1di+/clOEW+vl+5wD
HFU65UTzQbDAHSmGiBnHbQocbt7eSi3UZT2WGCofsAP6yZ/pZ1qlBRKtX8raRrmE
-----END CERTIFICATE-----
