Certificate:
    Data:
        Version: 3 (0x2)
        Serial Number:
            6f:20:cc:74:04:53:a1:f7:1f:d3:18:70:3c:18:69:c8
        Signature Algorithm: sha256WithRSAEncryption
        Issuer: CN=team263-net
        Validity
            Not Before: Nov  4 10:45:34 2023 GMT
            Not After : Oct 19 10:45:34 2026 GMT
        Subject: CN=team263-server
        Subject Public Key Info:
            Public Key Algorithm: rsaEncryption
                Public-Key: (2048 bit)
                Modulus:
                    00:9e:1c:be:8b:fc:0c:48:5c:09:8a:7e:e5:cc:96:
                    2e:2a:f3:69:f8:ea:bf:0b:df:50:4e:69:de:42:f8:
                    f0:39:1c:ef:31:61:c3:10:79:e3:c8:ed:e6:3b:13:
                    58:22:aa:0d:61:d5:84:8c:ad:93:07:d0:b2:bd:98:
                    d0:c9:69:33:1d:f4:e5:3d:ce:d2:3c:cb:4a:2a:44:
                    2a:b8:3e:07:4b:c5:12:24:56:66:8a:58:d7:54:45:
                    bb:92:1f:eb:f8:c5:46:ee:ed:5e:28:d3:a7:20:96:
                    54:71:84:34:76:75:41:15:8f:26:a8:76:d0:0d:af:
                    0d:d8:48:4d:1b:48:bf:6a:0b:98:38:d4:9c:84:8f:
                    0c:3f:84:23:4d:87:ac:9d:67:6e:11:40:1b:72:86:
                    a2:ef:ab:ed:a9:a8:58:37:87:e9:2f:fa:f0:d2:be:
                    24:c7:6f:0b:b9:aa:a8:86:2d:e7:61:5d:d4:4d:58:
                    80:fa:88:24:3e:d5:e1:19:79:c6:4f:4a:f3:1b:30:
                    d2:34:0b:c3:5a:50:fb:8c:f8:cc:62:9c:69:a5:b4:
                    86:aa:ae:b7:33:10:ca:0c:9b:5b:7f:31:80:60:e5:
                    53:44:13:ec:d7:ce:cd:0e:51:d4:56:2a:7f:ff:fb:
                    9d:19:91:95:87:ee:7a:64:5f:96:eb:17:76:d3:97:
                    55:a9
                Exponent: 65537 (0x10001)
        X509v3 extensions:
            X509v3 Basic Constraints: 
                CA:FALSE
            X509v3 Subject Key Identifier: 
                14:7A:E0:A7:32:C7:41:38:0F:15:D8:32:36:56:E9:9E:63:C4:DF:94
            X509v3 Authority Key Identifier: 
                keyid:96:B7:59:AB:83:13:1F:27:EF:70:4A:A4:6B:0A:48:3A:E6:67:93:98
                DirName:/CN=team263-net
                serial:67:26:28:63:D6:FC:61:EB:A7:08:45:7D:4B:FE:F5:58:A9:67:C4:86
            X509v3 Extended Key Usage: 
                TLS Web Server Authentication
            X509v3 Key Usage: 
                Digital Signature, Key Encipherment
            X509v3 Subject Alternative Name: 
                DNS:team263-server
    Signature Algorithm: sha256WithRSAEncryption
    Signature Value:
        a6:97:65:1a:f9:e1:d6:8a:fb:04:08:51:17:84:80:ce:f7:68:
        85:e6:0f:aa:60:3d:d2:17:86:52:94:cf:7a:8a:d0:9a:c7:ee:
        21:9b:50:a9:ec:86:5f:90:e0:4a:63:0e:b4:cd:30:b9:f2:0a:
        0e:c7:05:6e:46:11:04:f0:d4:49:e6:f8:b3:aa:b6:ef:74:eb:
        8a:27:b3:b6:b6:67:96:aa:5a:24:ca:c7:2c:4c:31:1b:cb:31:
        ce:85:71:b6:e8:7b:ae:0f:44:f9:46:f3:17:b7:cb:3a:77:37:
        75:cd:70:17:b5:21:ea:57:ac:9a:10:3a:0d:31:47:29:59:44:
        29:54:45:52:ec:1e:35:49:53:90:0d:e6:86:6e:58:02:93:bc:
        03:e2:1e:9f:fb:75:b8:a9:c7:a3:7b:11:c3:b6:5c:12:e0:8d:
        be:54:83:4a:b4:35:7c:22:8f:c6:ea:b2:98:9e:9c:55:12:e7:
        53:43:5b:36:c6:7a:45:3d:80:cf:af:61:2e:31:5d:c2:3f:72:
        8a:22:28:de:61:6c:f7:f9:75:df:a2:8d:53:41:6a:b4:1b:b8:
        f6:bc:12:ee:3c:c3:b9:c3:03:32:db:0e:a0:1f:95:7d:58:60:
        72:7f:98:6c:b7:50:31:87:be:60:9c:31:9c:8e:8b:1d:5e:83:
        90:36:ff:ca
-----BEGIN CERTIFICATE-----
MIIDdzCCAl+gAwIBAgIQbyDMdARTofcf0xhwPBhpyDANBgkqhkiG9w0BAQsFADAW
MRQwEgYDVQQDDAt0ZWFtMjYzLW5ldDAeFw0yMzExMDQxMDQ1MzRaFw0yNjEwMTkx
MDQ1MzRaMBkxFzAVBgNVBAMMDnRlYW0yNjMtc2VydmVyMIIBIjANBgkqhkiG9w0B
AQEFAAOCAQ8AMIIBCgKCAQEAnhy+i/wMSFwJin7lzJYuKvNp+Oq/C99QTmneQvjw
ORzvMWHDEHnjyO3mOxNYIqoNYdWEjK2TB9CyvZjQyWkzHfTlPc7SPMtKKkQquD4H
S8USJFZmiljXVEW7kh/r+MVG7u1eKNOnIJZUcYQ0dnVBFY8mqHbQDa8N2EhNG0i/
aguYONSchI8MP4QjTYesnWduEUAbcoai76vtqahYN4fpL/rw0r4kx28Luaqohi3n
YV3UTViA+ogkPtXhGXnGT0rzGzDSNAvDWlD7jPjMYpxppbSGqq63MxDKDJtbfzGA
YOVTRBPs187NDlHUVip///udGZGVh+56ZF+W6xd205dVqQIDAQABo4G9MIG6MAkG
A1UdEwQCMAAwHQYDVR0OBBYEFBR64Kcyx0E4DxXYMjZW6Z5jxN+UMFEGA1UdIwRK
MEiAFJa3WauDEx8n73BKpGsKSDrmZ5OYoRqkGDAWMRQwEgYDVQQDDAt0ZWFtMjYz
LW5ldIIUZyYoY9b8YeunCEV9S/71WKlnxIYwEwYDVR0lBAwwCgYIKwYBBQUHAwEw
CwYDVR0PBAQDAgWgMBkGA1UdEQQSMBCCDnRlYW0yNjMtc2VydmVyMA0GCSqGSIb3
DQEBCwUAA4IBAQCml2Ua+eHWivsECFEXhIDO92iF5g+qYD3SF4ZSlM96itCax+4h
m1Cp7IZfkOBKYw60zTC58goOxwVuRhEE8NRJ5vizqrbvdOuKJ7O2tmeWqlokyscs
TDEbyzHOhXG26HuuD0T5RvMXt8s6dzd1zXAXtSHqV6yaEDoNMUcpWUQpVEVS7B41
SVOQDeaGblgCk7wD4h6f+3W4qcejexHDtlwS4I2+VINKtDV8Io/G6rKYnpxVEudT
Q1s2xnpFPYDPr2EuMV3CP3KKIijeYWz3+XXfoo1TQWq0G7j2vBLuPMO5wwMy2w6g
H5V9WGByf5hst1Axh75gnDGcjosdXoOQNv/K
-----END CERTIFICATE-----
