Certificate:
    Data:
        Version: 3 (0x2)
        Serial Number:
            a0:45:ed:35:f8:da:28:9f:eb:99:39:82:7c:6c:bd:37
        Signature Algorithm: sha256WithRSAEncryption
        Issuer: CN=team263-net
        Validity
            Not Before: Nov  3 20:44:07 2023 GMT
            Not After : Oct 18 20:44:07 2026 GMT
        Subject: CN=team263-server
        Subject Public Key Info:
            Public Key Algorithm: rsaEncryption
                Public-Key: (2048 bit)
                Modulus:
                    00:b1:06:a6:af:01:80:6d:5f:2c:74:bb:eb:08:a5:
                    12:68:0a:cf:b7:13:1b:5a:00:a8:ec:e2:f9:21:b4:
                    20:25:4b:dd:76:b4:31:be:2d:00:15:cb:ed:bf:72:
                    cb:13:cb:a5:be:e1:00:53:aa:55:54:e2:f7:03:14:
                    ec:c3:46:57:39:0c:33:1e:8e:d3:57:68:07:85:09:
                    2a:af:cc:d4:86:4f:eb:7c:19:49:24:7d:a6:94:f3:
                    20:4d:3f:03:f8:bd:95:0d:20:5c:7e:73:73:2c:c1:
                    e6:2e:e0:cc:be:fc:63:fd:2c:d9:5c:b9:73:f8:b4:
                    86:be:e3:42:8c:8c:74:28:46:14:d0:a5:e9:d2:c9:
                    a2:57:87:cd:95:9d:4f:bd:58:22:01:1f:4e:64:73:
                    32:31:ca:53:1f:c4:b8:99:95:a6:97:ee:5b:b3:05:
                    d4:1a:4b:ed:8e:bc:b4:38:31:69:81:9a:a1:dd:f9:
                    88:e0:ff:c2:8d:b0:13:b8:ab:fa:f2:35:27:1d:ba:
                    69:d9:e2:53:fd:aa:49:39:29:fe:be:d2:8e:55:13:
                    0c:8f:81:31:7f:d3:52:f5:29:df:2e:80:7b:05:d0:
                    81:3b:d5:83:ea:59:d4:e6:59:2b:40:9a:99:ff:0a:
                    e7:da:58:31:55:90:74:db:b4:03:3e:28:04:8f:10:
                    78:f9
                Exponent: 65537 (0x10001)
        X509v3 extensions:
            X509v3 Basic Constraints: 
                CA:FALSE
            X509v3 Subject Key Identifier: 
                B8:86:B0:E5:57:21:27:A1:39:6F:B7:B8:D7:EF:F5:61:0F:BA:06:0B
            X509v3 Authority Key Identifier: 
                keyid:33:4E:CD:41:55:91:0C:59:36:6C:3A:8F:FF:41:C4:CA:D9:F1:1E:B3
                DirName:/CN=team263-net
                serial:66:92:B1:EF:F5:54:9E:A0:3C:2C:09:63:57:2E:87:D6:4C:E9:D3:3E
            X509v3 Extended Key Usage: 
                TLS Web Server Authentication
            X509v3 Key Usage: 
                Digital Signature, Key Encipherment
            X509v3 Subject Alternative Name: 
                DNS:team263-server
    Signature Algorithm: sha256WithRSAEncryption
    Signature Value:
        84:bc:2b:30:7e:c6:7c:31:ad:93:f1:d9:4f:29:5f:15:d2:62:
        0c:c7:af:cf:6e:10:5b:e7:fc:5b:20:80:7a:bc:9d:61:fc:da:
        bc:5a:a2:4a:a1:72:b4:83:52:62:90:8e:fc:5d:03:00:e6:58:
        e7:db:33:31:29:dc:1e:34:40:31:3f:4a:4a:86:b9:3e:b5:7d:
        c7:c4:1e:bb:da:30:0f:48:83:5f:6d:b0:00:84:71:44:26:9e:
        ed:a1:f2:54:fc:64:87:08:82:5e:76:ca:1f:e8:68:02:31:b0:
        9c:6f:5c:18:c1:58:88:af:89:6c:6c:b8:6d:da:10:f7:4c:0b:
        b0:d3:92:4b:0b:3f:2e:55:42:71:c6:ed:b0:27:64:d9:93:68:
        bc:4a:64:4e:d1:32:57:9a:90:d0:fe:e5:85:5e:6c:c3:ea:10:
        80:ec:56:d2:62:6b:37:33:b9:ef:6d:93:e9:4f:1b:bb:53:71:
        b8:47:a0:10:a2:e0:ad:96:d1:34:f0:c2:11:5c:4c:ac:b1:15:
        e2:fc:ae:c5:d2:9a:fd:a8:02:bd:70:9d:00:83:63:9e:b8:f4:
        81:2a:de:fc:d8:55:e6:49:73:0d:eb:f4:3f:dd:30:15:b3:e3:
        e6:40:fa:42:84:e4:b9:0a:9d:34:f8:c8:65:50:d8:37:a4:d8:
        03:d2:7a:b9
-----BEGIN CERTIFICATE-----
MIIDeDCCAmCgAwIBAgIRAKBF7TX42iif65k5gnxsvTcwDQYJKoZIhvcNAQELBQAw
FjEUMBIGA1UEAwwLdGVhbTI2My1uZXQwHhcNMjMxMTAzMjA0NDA3WhcNMjYxMDE4
MjA0NDA3WjAZMRcwFQYDVQQDDA50ZWFtMjYzLXNlcnZlcjCCASIwDQYJKoZIhvcN
AQEBBQADggEPADCCAQoCggEBALEGpq8BgG1fLHS76wilEmgKz7cTG1oAqOzi+SG0
ICVL3Xa0Mb4tABXL7b9yyxPLpb7hAFOqVVTi9wMU7MNGVzkMMx6O01doB4UJKq/M
1IZP63wZSSR9ppTzIE0/A/i9lQ0gXH5zcyzB5i7gzL78Y/0s2Vy5c/i0hr7jQoyM
dChGFNCl6dLJoleHzZWdT71YIgEfTmRzMjHKUx/EuJmVppfuW7MF1BpL7Y68tDgx
aYGaod35iOD/wo2wE7ir+vI1Jx26adniU/2qSTkp/r7SjlUTDI+BMX/TUvUp3y6A
ewXQgTvVg+pZ1OZZK0Camf8K59pYMVWQdNu0Az4oBI8QePkCAwEAAaOBvTCBujAJ
BgNVHRMEAjAAMB0GA1UdDgQWBBS4hrDlVyEnoTlvt7jX7/VhD7oGCzBRBgNVHSME
SjBIgBQzTs1BVZEMWTZsOo//QcTK2fEes6EapBgwFjEUMBIGA1UEAwwLdGVhbTI2
My1uZXSCFGaSse/1VJ6gPCwJY1cuh9ZM6dM+MBMGA1UdJQQMMAoGCCsGAQUFBwMB
MAsGA1UdDwQEAwIFoDAZBgNVHREEEjAQgg50ZWFtMjYzLXNlcnZlcjANBgkqhkiG
9w0BAQsFAAOCAQEAhLwrMH7GfDGtk/HZTylfFdJiDMevz24QW+f8WyCAerydYfza
vFqiSqFytINSYpCO/F0DAOZY59szMSncHjRAMT9KSoa5PrV9x8Qeu9owD0iDX22w
AIRxRCae7aHyVPxkhwiCXnbKH+hoAjGwnG9cGMFYiK+JbGy4bdoQ90wLsNOSSws/
LlVCccbtsCdk2ZNovEpkTtEyV5qQ0P7lhV5sw+oQgOxW0mJrNzO5722T6U8bu1Nx
uEegEKLgrZbRNPDCEVxMrLEV4vyuxdKa/agCvXCdAINjnrj0gSre/NhV5klzDev0
P90wFbPj5kD6QoTkuQqdNPjIZVDYN6TYA9J6uQ==
-----END CERTIFICATE-----
