Certificate:
    Data:
        Version: 3 (0x2)
        Serial Number:
            a3:d9:00:43:67:32:85:c2:07:73:cd:88:da:46:97:5b
        Signature Algorithm: sha256WithRSAEncryption
        Issuer: CN=team263-net
        Validity
            Not Before: Nov  4 11:32:51 2023 GMT
            Not After : Oct 19 11:32:51 2026 GMT
        Subject: CN=team263-client
        Subject Public Key Info:
            Public Key Algorithm: rsaEncryption
                Public-Key: (2048 bit)
                Modulus:
                    00:c4:e9:a7:26:80:a8:13:be:00:2c:20:c3:cd:03:
                    20:6d:d9:08:ae:51:e5:dc:36:8f:f0:6f:59:2b:bc:
                    b1:ff:99:80:59:ef:9f:4a:82:d9:e4:dc:47:a5:30:
                    9d:e0:9c:52:a0:22:30:5c:06:de:29:95:7f:27:82:
                    d5:ca:25:f3:6e:cd:f4:c1:ef:3b:c8:1b:3e:89:9b:
                    fa:47:6d:48:ef:4b:d3:02:db:84:89:bb:45:f1:df:
                    f3:c7:69:9e:93:5e:97:01:0e:55:e1:2b:34:33:7a:
                    3a:39:48:52:59:5d:87:0a:52:79:1a:f8:6f:fc:de:
                    99:37:37:db:40:df:fd:42:c5:a5:94:9f:5c:3a:97:
                    e5:cf:c1:e9:a2:ec:74:4d:d8:ed:6e:f0:bb:7d:63:
                    f9:9a:0e:d2:0d:ac:61:de:a7:4f:b8:65:43:7d:96:
                    59:1e:29:bf:1b:d3:91:b3:58:e7:ba:04:38:15:7d:
                    07:0e:7b:31:6e:10:6a:a7:ee:6c:ad:7d:e8:e6:3f:
                    22:61:bb:5d:07:f0:e1:0a:d3:e2:ab:37:19:34:db:
                    a0:5e:70:7b:38:29:67:b8:60:08:c5:31:9e:9a:fe:
                    9e:d5:11:ec:2d:88:d3:0a:ed:6d:3b:d8:e6:e0:b6:
                    80:63:2a:41:41:e5:99:c6:86:da:d7:f4:93:85:21:
                    c2:37
                Exponent: 65537 (0x10001)
        X509v3 extensions:
            X509v3 Basic Constraints: 
                CA:FALSE
            X509v3 Subject Key Identifier: 
                A5:42:8E:69:C8:34:86:07:D8:BB:64:77:A2:27:F4:66:FB:58:1B:A2
            X509v3 Authority Key Identifier: 
                keyid:3E:5D:29:AF:35:C4:84:C6:31:69:2A:A8:0D:86:BA:D3:F1:A4:81:A9
                DirName:/CN=team263-net
                serial:27:6F:DA:C9:A2:F3:50:41:F6:B6:6E:D0:11:A7:80:84:3E:1B:97:7B
            X509v3 Extended Key Usage: 
                TLS Web Client Authentication
            X509v3 Key Usage: 
                Digital Signature
    Signature Algorithm: sha256WithRSAEncryption
    Signature Value:
        3b:6c:d6:2c:d6:00:8f:c2:0f:ee:49:89:57:00:52:b4:7b:3e:
        a0:1d:85:d2:eb:9e:1b:f5:98:5d:b1:b3:0f:e1:e1:cf:6f:ae:
        0f:05:4c:a3:43:27:3a:f0:39:f9:0c:f4:1f:8f:8c:bc:43:06:
        ff:48:c4:61:15:e5:e6:fb:0d:e2:8a:a8:63:17:84:c3:c0:78:
        1e:ef:ca:b3:62:16:39:cf:1d:83:a2:48:8a:f3:c7:5a:e9:4e:
        4e:79:b6:bd:4d:0d:3d:ed:b0:ab:c7:e0:5e:4e:73:67:fa:e9:
        ed:1e:be:31:58:0d:39:01:50:ac:be:a6:a4:a9:02:97:65:2b:
        c9:a1:19:e7:19:77:75:8f:16:47:ac:f3:c7:6e:4f:a4:c3:6f:
        29:0a:14:ee:56:e5:f9:c1:0c:f5:54:69:19:e2:61:00:a9:a9:
        a1:71:2d:55:99:0f:5d:ff:fd:2d:6d:4f:6a:32:dd:73:45:37:
        29:8a:cc:25:6f:d0:94:1f:64:26:99:fe:a0:e8:0f:9c:0e:2a:
        e4:ee:d6:58:37:b1:95:f0:5c:30:3d:6a:e8:9e:6b:77:94:d3:
        e0:36:1e:d5:9e:c2:c6:7e:1c:24:66:01:17:ed:56:ad:cc:15:
        75:94:d4:d1:e5:70:62:40:2d:39:0b:8b:3b:50:eb:ca:50:2a:
        78:25:42:aa
-----BEGIN CERTIFICATE-----
MIIDXTCCAkWgAwIBAgIRAKPZAENnMoXCB3PNiNpGl1swDQYJKoZIhvcNAQELBQAw
FjEUMBIGA1UEAwwLdGVhbTI2My1uZXQwHhcNMjMxMTA0MTEzMjUxWhcNMjYxMDE5
MTEzMjUxWjAZMRcwFQYDVQQDDA50ZWFtMjYzLWNsaWVudDCCASIwDQYJKoZIhvcN
AQEBBQADggEPADCCAQoCggEBAMTppyaAqBO+ACwgw80DIG3ZCK5R5dw2j/BvWSu8
sf+ZgFnvn0qC2eTcR6UwneCcUqAiMFwG3imVfyeC1col827N9MHvO8gbPomb+kdt
SO9L0wLbhIm7RfHf88dpnpNelwEOVeErNDN6OjlIUlldhwpSeRr4b/zemTc320Df
/ULFpZSfXDqX5c/B6aLsdE3Y7W7wu31j+ZoO0g2sYd6nT7hlQ32WWR4pvxvTkbNY
57oEOBV9Bw57MW4QaqfubK196OY/ImG7XQfw4QrT4qs3GTTboF5wezgpZ7hgCMUx
npr+ntUR7C2I0wrtbTvY5uC2gGMqQUHlmcaG2tf0k4UhwjcCAwEAAaOBojCBnzAJ
BgNVHRMEAjAAMB0GA1UdDgQWBBSlQo5pyDSGB9i7ZHeiJ/Rm+1gbojBRBgNVHSME
SjBIgBQ+XSmvNcSExjFpKqgNhrrT8aSBqaEapBgwFjEUMBIGA1UEAwwLdGVhbTI2
My1uZXSCFCdv2smi81BB9rZu0BGngIQ+G5d7MBMGA1UdJQQMMAoGCCsGAQUFBwMC
MAsGA1UdDwQEAwIHgDANBgkqhkiG9w0BAQsFAAOCAQEAO2zWLNYAj8IP7kmJVwBS
tHs+oB2F0uueG/WYXbGzD+Hhz2+uDwVMo0MnOvA5+Qz0H4+MvEMG/0jEYRXl5vsN
4oqoYxeEw8B4Hu/Ks2IWOc8dg6JIivPHWulOTnm2vU0NPe2wq8fgXk5zZ/rp7R6+
MVgNOQFQrL6mpKkCl2UryaEZ5xl3dY8WR6zzx25PpMNvKQoU7lbl+cEM9VRpGeJh
AKmpoXEtVZkPXf/9LW1PajLdc0U3KYrMJW/QlB9kJpn+oOgPnA4q5O7WWDexlfBc
MD1q6J5rd5TT4DYe1Z7Cxn4cJGYBF+1WrcwVdZTU0eVwYkAtOQuLO1DrylAqeCVC
qg==
-----END CERTIFICATE-----
