Certificate:
    Data:
        Version: 3 (0x2)
        Serial Number:
            fd:84:bc:c6:9e:ca:d5:57:81:cc:23:b6:f6:87:28:8e
        Signature Algorithm: sha256WithRSAEncryption
        Issuer: CN=team263-net
        Validity
            Not Before: Nov  4 11:32:52 2023 GMT
            Not After : Oct 19 11:32:52 2026 GMT
        Subject: CN=team263-server
        Subject Public Key Info:
            Public Key Algorithm: rsaEncryption
                Public-Key: (2048 bit)
                Modulus:
                    00:af:c9:52:50:2b:f3:c1:aa:0f:c2:7f:a0:09:b8:
                    98:6e:a4:e7:c0:f4:f5:cb:31:49:b9:8e:5f:0f:41:
                    78:59:78:4c:1c:31:74:a0:d0:e3:d6:dc:0f:46:a1:
                    76:29:cf:92:e2:5a:0f:c5:85:e3:9a:69:27:6b:b9:
                    93:d2:94:03:d9:00:30:fa:57:85:63:c7:72:58:24:
                    22:1f:9d:33:9e:78:75:a0:17:f9:61:89:42:85:84:
                    ba:c4:98:24:74:2c:5d:1d:29:20:e0:da:83:d4:19:
                    25:d0:1a:15:cf:84:93:1d:1f:17:95:60:f9:5c:63:
                    c2:10:32:12:e3:d2:d0:f5:fe:7f:ad:04:ee:d1:cd:
                    8f:8d:70:ed:67:db:4b:e1:0c:04:89:dc:4d:cc:69:
                    9a:a4:a8:e1:12:76:1f:0a:ea:b0:d1:6b:3a:b5:01:
                    a4:17:39:aa:49:9e:c8:91:de:ee:39:1d:5d:d3:65:
                    8b:a7:db:d1:e3:cf:d3:06:6f:c6:14:2b:be:51:02:
                    4a:a9:3f:52:84:e3:a7:9e:2d:d1:e0:e1:9e:2f:4a:
                    07:dc:7c:1f:56:af:26:bb:1a:a5:ed:d4:87:bf:06:
                    f8:0a:b6:93:89:46:0e:3a:ad:a1:53:16:2f:99:f3:
                    f6:5a:e5:b0:a4:81:0f:3a:b9:6b:02:49:dd:c2:d8:
                    ab:0d
                Exponent: 65537 (0x10001)
        X509v3 extensions:
            X509v3 Basic Constraints: 
                CA:FALSE
            X509v3 Subject Key Identifier: 
                C0:BB:72:56:4B:20:0C:60:C7:E5:6D:0C:74:29:53:3B:DD:1E:68:99
            X509v3 Authority Key Identifier: 
                keyid:3E:5D:29:AF:35:C4:84:C6:31:69:2A:A8:0D:86:BA:D3:F1:A4:81:A9
                DirName:/CN=team263-net
                serial:27:6F:DA:C9:A2:F3:50:41:F6:B6:6E:D0:11:A7:80:84:3E:1B:97:7B
            X509v3 Extended Key Usage: 
                TLS Web Server Authentication
            X509v3 Key Usage: 
                Digital Signature, Key Encipherment
            X509v3 Subject Alternative Name: 
                DNS:team263-server
    Signature Algorithm: sha256WithRSAEncryption
    Signature Value:
        8a:a2:d6:b9:17:ab:72:cf:d8:99:10:f1:25:53:9d:64:2b:d2:
        80:d9:b8:63:55:5a:66:2d:f6:1c:21:81:f5:f4:a3:09:05:16:
        a5:4c:09:84:32:04:8a:54:d7:89:b1:c6:cd:46:46:91:a7:6a:
        50:01:10:5f:36:6e:80:1a:22:e5:9c:76:cd:25:20:49:f2:39:
        86:84:2e:9d:33:e1:ac:06:a3:8c:4c:71:6d:1c:25:c1:20:5d:
        02:f1:a3:ba:05:e5:39:b5:df:3c:d1:6b:df:d6:15:0a:01:ea:
        c8:aa:ce:ab:d6:c0:08:a5:10:01:a2:a9:ea:1b:fd:e4:1a:4c:
        19:38:2c:64:44:fe:b3:94:70:45:cb:99:3e:42:07:9b:f1:df:
        91:67:4e:ed:0d:5e:21:cc:72:ab:f4:c7:6e:b6:78:f8:0e:b2:
        cc:b2:79:4a:1d:7d:c5:24:75:5f:13:6a:f7:47:b7:0c:b2:9a:
        25:37:73:23:6a:88:fd:a7:b5:21:9a:36:cd:32:66:61:c0:0e:
        47:0b:ec:02:aa:28:c3:ba:b2:f2:0d:0a:9c:f8:6e:36:16:fb:
        06:32:16:aa:88:a9:54:65:cb:0b:77:23:80:a9:af:51:55:8c:
        1d:d4:69:66:ce:81:15:de:12:35:c8:3d:a5:46:f9:24:78:23:
        1e:02:ac:42
-----BEGIN CERTIFICATE-----
MIIDeDCCAmCgAwIBAgIRAP2EvMaeytVXgcwjtvaHKI4wDQYJKoZIhvcNAQELBQAw
FjEUMBIGA1UEAwwLdGVhbTI2My1uZXQwHhcNMjMxMTA0MTEzMjUyWhcNMjYxMDE5
MTEzMjUyWjAZMRcwFQYDVQQDDA50ZWFtMjYzLXNlcnZlcjCCASIwDQYJKoZIhvcN
AQEBBQADggEPADCCAQoCggEBAK/JUlAr88GqD8J/oAm4mG6k58D09csxSbmOXw9B
eFl4TBwxdKDQ49bcD0ahdinPkuJaD8WF45ppJ2u5k9KUA9kAMPpXhWPHclgkIh+d
M554daAX+WGJQoWEusSYJHQsXR0pIODag9QZJdAaFc+Ekx0fF5Vg+VxjwhAyEuPS
0PX+f60E7tHNj41w7WfbS+EMBIncTcxpmqSo4RJ2HwrqsNFrOrUBpBc5qkmeyJHe
7jkdXdNli6fb0ePP0wZvxhQrvlECSqk/UoTjp54t0eDhni9KB9x8H1avJrsape3U
h78G+Aq2k4lGDjqtoVMWL5nz9lrlsKSBDzq5awJJ3cLYqw0CAwEAAaOBvTCBujAJ
BgNVHRMEAjAAMB0GA1UdDgQWBBTAu3JWSyAMYMflbQx0KVM73R5omTBRBgNVHSME
SjBIgBQ+XSmvNcSExjFpKqgNhrrT8aSBqaEapBgwFjEUMBIGA1UEAwwLdGVhbTI2
My1uZXSCFCdv2smi81BB9rZu0BGngIQ+G5d7MBMGA1UdJQQMMAoGCCsGAQUFBwMB
MAsGA1UdDwQEAwIFoDAZBgNVHREEEjAQgg50ZWFtMjYzLXNlcnZlcjANBgkqhkiG
9w0BAQsFAAOCAQEAiqLWuRercs/YmRDxJVOdZCvSgNm4Y1VaZi32HCGB9fSjCQUW
pUwJhDIEilTXibHGzUZGkadqUAEQXzZugBoi5Zx2zSUgSfI5hoQunTPhrAajjExx
bRwlwSBdAvGjugXlObXfPNFr39YVCgHqyKrOq9bACKUQAaKp6hv95BpMGTgsZET+
s5RwRcuZPkIHm/HfkWdO7Q1eIcxyq/THbrZ4+A6yzLJ5Sh19xSR1XxNq90e3DLKa
JTdzI2qI/ae1IZo2zTJmYcAORwvsAqoow7qy8g0KnPhuNhb7BjIWqoipVGXLC3cj
gKmvUVWMHdRpZs6BFd4SNcg9pUb5JHgjHgKsQg==
-----END CERTIFICATE-----
