Certificate:
    Data:
        Version: 3 (0x2)
        Serial Number:
            23:13:71:86:b8:bb:f0:41:5b:d6:d6:60:f8:6f:84:8e
        Signature Algorithm: sha256WithRSAEncryption
        Issuer: CN=team64-net
        Validity
            Not Before: Nov  4 10:41:30 2023 GMT
            Not After : Oct 19 10:41:30 2026 GMT
        Subject: CN=team64-server
        Subject Public Key Info:
            Public Key Algorithm: rsaEncryption
                Public-Key: (2048 bit)
                Modulus:
                    00:af:bd:15:05:1a:b3:93:bf:c3:26:50:44:f3:15:
                    d4:d8:27:75:7c:b2:0c:7b:f4:d8:78:32:64:7e:09:
                    fe:67:5e:66:fd:c1:4a:26:62:4e:80:f2:63:47:16:
                    a7:70:fd:53:8a:bb:4d:3d:2e:23:66:0c:57:2e:5d:
                    e0:40:b7:c6:f4:33:05:2f:6e:bb:6c:ed:3c:c8:2d:
                    50:a0:2b:49:7d:b8:84:79:b7:0c:2d:1b:5b:fa:62:
                    02:45:6b:c0:b5:0e:c5:89:7c:41:18:63:d1:3e:d1:
                    f3:02:4f:1a:4a:6a:a0:8c:2e:54:0f:f9:12:86:2a:
                    eb:04:63:8b:f8:73:c6:e1:a5:04:ca:f1:0f:7c:72:
                    22:bb:28:45:f5:3f:d4:b4:c8:f3:86:ca:32:69:f5:
                    cb:6b:cc:f1:25:31:c4:ca:95:22:74:e9:99:d4:c3:
                    fb:b9:1a:02:af:aa:c3:9c:5c:e7:de:7c:7e:16:d0:
                    01:29:14:ab:7f:65:53:3d:f3:5a:69:4e:be:d2:21:
                    33:a0:0a:f7:9c:37:f9:5b:b9:c1:7b:67:aa:4e:9a:
                    20:4b:21:5c:9c:50:a2:99:68:00:59:6f:fe:2a:19:
                    e6:ef:9b:b6:81:02:36:53:1d:af:84:73:8f:2d:6f:
                    bf:4a:7f:de:7f:04:87:e7:57:47:b7:d2:8c:51:84:
                    3f:6f
                Exponent: 65537 (0x10001)
        X509v3 extensions:
            X509v3 Basic Constraints: 
                CA:FALSE
            X509v3 Subject Key Identifier: 
                09:5B:9A:BC:39:E4:E8:D5:30:5E:75:09:BA:FA:A6:CE:BE:56:CF:54
            X509v3 Authority Key Identifier: 
                keyid:1E:A1:2B:93:A7:A2:4C:BC:6E:7A:66:3F:07:B1:A0:5A:48:D1:60:36
                DirName:/CN=team64-net
                serial:1C:40:83:FD:3A:8C:E0:A4:54:9B:1E:74:CB:4F:53:46:E0:EF:44:86
            X509v3 Extended Key Usage: 
                TLS Web Server Authentication
            X509v3 Key Usage: 
                Digital Signature, Key Encipherment
            X509v3 Subject Alternative Name: 
                DNS:team64-server
    Signature Algorithm: sha256WithRSAEncryption
    Signature Value:
        3c:51:ec:d3:d8:68:fd:25:e7:3c:25:1d:e1:96:b8:c2:fd:15:
        b0:e3:78:a2:7c:48:43:43:7c:b6:62:9a:a5:08:2f:3b:9a:a7:
        f2:73:be:14:59:fc:cd:e8:66:36:22:bc:1a:b7:1e:db:01:18:
        7b:ae:ed:a8:ae:aa:c0:c5:85:1b:7d:18:b9:7c:bf:7a:9c:b2:
        11:44:ca:04:c2:a1:9c:44:e3:5f:0f:5c:c5:55:7c:4a:49:b3:
        15:f8:73:e0:a1:da:c9:e9:98:43:ea:6c:a2:2e:64:f7:4d:4f:
        fd:84:ba:23:39:e0:c5:88:d6:06:43:b8:fa:54:d1:e9:5c:e8:
        0b:8c:46:cf:49:55:c5:94:5e:42:1f:3a:4b:50:c8:92:31:df:
        18:0b:f4:97:e4:ce:ac:57:4a:49:f4:60:cb:09:d6:fa:65:cb:
        35:33:13:b5:7f:c5:31:d8:a7:6d:10:1a:ed:de:b3:78:b6:d6:
        9c:2a:ed:8b:a8:50:e3:73:1a:68:3c:42:c9:3b:01:38:26:06:
        81:3d:44:c3:e5:20:5d:ac:cb:61:8a:6d:4c:47:6f:27:ef:9b:
        58:e4:4c:a9:ca:8a:6b:c7:54:d9:99:c7:14:eb:d2:ba:27:57:
        d0:f9:99:08:8f:60:d0:76:e5:e7:b8:67:ab:b4:80:d7:17:43:
        9f:9e:77:53
-----BEGIN CERTIFICATE-----
MIIDczCCAlugAwIBAgIQIxNxhri78EFb1tZg+G+EjjANBgkqhkiG9w0BAQsFADAV
MRMwEQYDVQQDDAp0ZWFtNjQtbmV0MB4XDTIzMTEwNDEwNDEzMFoXDTI2MTAxOTEw
NDEzMFowGDEWMBQGA1UEAwwNdGVhbTY0LXNlcnZlcjCCASIwDQYJKoZIhvcNAQEB
BQADggEPADCCAQoCggEBAK+9FQUas5O/wyZQRPMV1NgndXyyDHv02HgyZH4J/mde
Zv3BSiZiToDyY0cWp3D9U4q7TT0uI2YMVy5d4EC3xvQzBS9uu2ztPMgtUKArSX24
hHm3DC0bW/piAkVrwLUOxYl8QRhj0T7R8wJPGkpqoIwuVA/5EoYq6wRji/hzxuGl
BMrxD3xyIrsoRfU/1LTI84bKMmn1y2vM8SUxxMqVInTpmdTD+7kaAq+qw5xc5958
fhbQASkUq39lUz3zWmlOvtIhM6AK95w3+Vu5wXtnqk6aIEshXJxQoploAFlv/ioZ
5u+btoECNlMdr4Rzjy1vv0p/3n8Eh+dXR7fSjFGEP28CAwEAAaOBuzCBuDAJBgNV
HRMEAjAAMB0GA1UdDgQWBBQJW5q8OeTo1TBedQm6+qbOvlbPVDBQBgNVHSMESTBH
gBQeoSuTp6JMvG56Zj8HsaBaSNFgNqEZpBcwFTETMBEGA1UEAwwKdGVhbTY0LW5l
dIIUHECD/TqM4KRUmx50y09TRuDvRIYwEwYDVR0lBAwwCgYIKwYBBQUHAwEwCwYD
VR0PBAQDAgWgMBgGA1UdEQQRMA+CDXRlYW02NC1zZXJ2ZXIwDQYJKoZIhvcNAQEL
BQADggEBADxR7NPYaP0l5zwlHeGWuML9FbDjeKJ8SENDfLZimqUILzuap/JzvhRZ
/M3oZjYivBq3HtsBGHuu7aiuqsDFhRt9GLl8v3qcshFEygTCoZxE418PXMVVfEpJ
sxX4c+Ch2snpmEPqbKIuZPdNT/2EuiM54MWI1gZDuPpU0elc6AuMRs9JVcWUXkIf
OktQyJIx3xgL9JfkzqxXSkn0YMsJ1vplyzUzE7V/xTHYp20QGu3es3i21pwq7Yuo
UONzGmg8Qsk7ATgmBoE9RMPlIF2sy2GKbUxHbyfvm1jkTKnKimvHVNmZxxTr0ron
V9D5mQiPYNB25ee4Z6u0gNcXQ5+ed1M=
-----END CERTIFICATE-----
