Certificate:
    Data:
        Version: 3 (0x2)
        Serial Number:
            25:28:bd:5e:c7:2a:d5:89:e1:b8:d3:7f:d0:f9:c0:c4
        Signature Algorithm: sha256WithRSAEncryption
        Issuer: CN=team64-net
        Validity
            Not Before: Nov  4 11:28:34 2023 GMT
            Not After : Oct 19 11:28:34 2026 GMT
        Subject: CN=team64-server
        Subject Public Key Info:
            Public Key Algorithm: rsaEncryption
                Public-Key: (2048 bit)
                Modulus:
                    00:90:86:cf:c9:a8:ae:89:cc:7c:f5:22:42:cc:a7:
                    d5:75:00:41:21:ea:a4:a4:5a:d1:5f:2d:61:40:a4:
                    b0:f9:14:47:6d:62:ec:82:d4:8e:61:f2:c8:38:55:
                    fe:9a:7b:c6:29:9b:82:ea:36:e1:04:1d:80:7d:dc:
                    40:97:f0:53:37:18:07:d7:6a:1a:28:e2:ac:7c:81:
                    eb:95:01:e9:17:10:07:d8:81:e0:fe:43:7c:bd:02:
                    17:b4:7b:e2:b3:74:37:f1:92:16:bb:32:81:e0:68:
                    18:c1:b9:d4:b8:cc:f6:c9:e0:67:4d:be:8e:e9:23:
                    eb:c3:d7:ab:c5:06:24:a0:a5:15:6d:6b:f5:f1:8c:
                    c3:78:52:c6:12:f9:17:df:a8:4b:ad:ce:f5:c3:78:
                    a2:bd:7f:58:01:1f:67:73:03:55:82:0f:8f:5f:d6:
                    78:8a:59:b0:91:dd:a6:42:7f:4a:4d:1b:00:56:dd:
                    c8:be:98:fe:3b:99:3f:80:34:36:3f:c8:e6:57:d3:
                    b8:e2:98:e3:20:bc:d3:11:55:ba:cf:2a:f0:92:8b:
                    5f:15:59:04:6d:86:d7:98:1b:4b:79:c7:22:dc:9f:
                    58:90:39:90:6f:5f:1d:39:7f:41:e9:0e:69:60:9c:
                    4b:cd:11:85:fe:d8:66:ad:85:03:19:89:a2:04:16:
                    34:39
                Exponent: 65537 (0x10001)
        X509v3 extensions:
            X509v3 Basic Constraints: 
                CA:FALSE
            X509v3 Subject Key Identifier: 
                18:D6:09:44:C3:58:8D:F0:F7:3D:64:BF:12:92:80:84:DB:99:17:4E
            X509v3 Authority Key Identifier: 
                keyid:E3:8F:05:FF:02:74:B2:46:B7:3A:DB:FF:A4:D1:95:B9:E3:4E:36:80
                DirName:/CN=team64-net
                serial:25:F5:57:42:34:73:57:E2:B3:76:8F:F8:B4:12:19:AD:BB:A6:95:1A
            X509v3 Extended Key Usage: 
                TLS Web Server Authentication
            X509v3 Key Usage: 
                Digital Signature, Key Encipherment
            X509v3 Subject Alternative Name: 
                DNS:team64-server
    Signature Algorithm: sha256WithRSAEncryption
    Signature Value:
        36:de:cc:9b:4f:a3:93:a7:12:72:fe:dd:75:4f:5a:35:6c:87:
        92:4e:ab:a7:5f:41:a7:c7:82:ac:e6:12:5d:46:7a:a9:6e:f9:
        63:29:09:c2:91:3e:2c:c3:c6:5a:64:84:f8:48:09:25:36:48:
        b7:85:d4:ee:0a:7f:62:c9:22:fd:d5:78:f0:d5:04:b0:4c:5d:
        28:6e:f6:5e:92:80:87:0a:f3:b2:62:26:74:d1:18:48:79:ec:
        7e:af:a6:e4:f1:a0:c9:c6:64:03:9e:1a:db:59:4d:e7:0f:ce:
        4f:13:7e:66:22:71:d0:10:e5:11:4c:4e:00:1e:34:66:7b:54:
        b3:ba:72:8b:79:f7:ef:01:40:f7:7e:6f:51:dd:7e:33:d3:e1:
        7d:f2:80:6e:80:42:d8:3d:9a:1d:cf:a1:b7:25:7b:da:17:9f:
        2f:8a:26:8a:ff:fc:a9:11:47:d6:6b:e5:54:fd:c9:0b:1f:95:
        16:03:dd:2c:2a:2e:43:b4:7e:8f:1c:e9:65:60:6b:c2:a3:c3:
        40:15:04:53:89:63:34:e6:bf:11:a9:74:1f:50:87:2e:5e:7f:
        23:f6:85:1e:69:e2:c1:7d:c0:16:5f:bb:c4:73:11:6d:9c:71:
        5b:da:14:b1:7e:2d:f5:22:c4:ae:c1:6c:73:df:f1:bb:64:0e:
        63:31:d7:5d
-----BEGIN CERTIFICATE-----
MIIDczCCAlugAwIBAgIQJSi9Xscq1YnhuNN/0PnAxDANBgkqhkiG9w0BAQsFADAV
MRMwEQYDVQQDDAp0ZWFtNjQtbmV0MB4XDTIzMTEwNDExMjgzNFoXDTI2MTAxOTEx
MjgzNFowGDEWMBQGA1UEAwwNdGVhbTY0LXNlcnZlcjCCASIwDQYJKoZIhvcNAQEB
BQADggEPADCCAQoCggEBAJCGz8moronMfPUiQsyn1XUAQSHqpKRa0V8tYUCksPkU
R21i7ILUjmHyyDhV/pp7ximbguo24QQdgH3cQJfwUzcYB9dqGijirHyB65UB6RcQ
B9iB4P5DfL0CF7R74rN0N/GSFrsygeBoGMG51LjM9sngZ02+jukj68PXq8UGJKCl
FW1r9fGMw3hSxhL5F9+oS63O9cN4or1/WAEfZ3MDVYIPj1/WeIpZsJHdpkJ/Sk0b
AFbdyL6Y/juZP4A0Nj/I5lfTuOKY4yC80xFVus8q8JKLXxVZBG2G15gbS3nHItyf
WJA5kG9fHTl/QekOaWCcS80Rhf7YZq2FAxmJogQWNDkCAwEAAaOBuzCBuDAJBgNV
HRMEAjAAMB0GA1UdDgQWBBQY1glEw1iN8Pc9ZL8SkoCE25kXTjBQBgNVHSMESTBH
gBTjjwX/AnSyRrc62/+k0ZW54042gKEZpBcwFTETMBEGA1UEAwwKdGVhbTY0LW5l
dIIUJfVXQjRzV+Kzdo/4tBIZrbumlRowEwYDVR0lBAwwCgYIKwYBBQUHAwEwCwYD
VR0PBAQDAgWgMBgGA1UdEQQRMA+CDXRlYW02NC1zZXJ2ZXIwDQYJKoZIhvcNAQEL
BQADggEBADbezJtPo5OnEnL+3XVPWjVsh5JOq6dfQafHgqzmEl1Geqlu+WMpCcKR
PizDxlpkhPhICSU2SLeF1O4Kf2LJIv3VePDVBLBMXShu9l6SgIcK87JiJnTRGEh5
7H6vpuTxoMnGZAOeGttZTecPzk8TfmYicdAQ5RFMTgAeNGZ7VLO6cot59+8BQPd+
b1HdfjPT4X3ygG6AQtg9mh3Pobcle9oXny+KJor//KkRR9Zr5VT9yQsflRYD3Swq
LkO0fo8c6WVga8Kjw0AVBFOJYzTmvxGpdB9Qhy5efyP2hR5p4sF9wBZfu8RzEW2c
cVvaFLF+LfUixK7BbHPf8btkDmMx110=
-----END CERTIFICATE-----
