Certificate:
    Data:
        Version: 3 (0x2)
        Serial Number:
            9b:51:a6:da:fa:19:7e:82:3e:ec:b8:bf:db:c9:39:a4
        Signature Algorithm: sha256WithRSAEncryption
        Issuer: CN=team64-net
        Validity
            Not Before: Nov  4 11:28:34 2023 GMT
            Not After : Oct 19 11:28:34 2026 GMT
        Subject: CN=team64-client
        Subject Public Key Info:
            Public Key Algorithm: rsaEncryption
                Public-Key: (2048 bit)
                Modulus:
                    00:ad:53:da:b8:ec:b2:b8:63:b0:f2:fc:e7:67:80:
                    45:05:69:6f:5f:98:59:45:4a:79:ed:6f:1f:8c:87:
                    c4:f2:bf:d9:7d:42:6c:16:ae:dd:c6:7e:63:a9:e9:
                    0c:85:7c:e5:c2:52:a2:6a:59:39:7b:0b:6b:ad:d0:
                    a6:a5:a1:15:fb:fd:5a:dd:94:a1:ff:f5:df:29:3e:
                    19:2e:9b:e9:3c:84:c5:6a:33:06:d8:ff:6f:f1:80:
                    7c:b3:65:90:e2:a2:de:92:6d:15:b6:ec:9a:d6:f8:
                    1a:90:13:a1:05:8f:1f:e3:fc:04:39:d5:1c:51:05:
                    85:e2:d4:52:9d:9c:50:00:83:87:ee:73:8c:90:cf:
                    fc:cf:c8:ef:7a:d3:3e:82:4c:fc:e8:53:d9:10:2c:
                    4d:00:cc:1c:18:30:ea:a9:71:07:3e:eb:e7:5d:cf:
                    4b:6d:4f:25:fa:e2:3a:de:54:db:69:d8:e8:27:bc:
                    da:3e:e8:e3:b6:c1:78:08:f7:48:09:5c:fb:bd:90:
                    ec:1d:f4:8e:e0:59:cc:fd:11:e6:dc:4f:02:22:0a:
                    3e:69:fa:9d:05:a9:42:e7:82:c0:24:ad:49:8e:d8:
                    f1:2c:c5:e1:df:39:e1:59:41:d2:03:9f:f6:e3:a2:
                    4c:38:07:4c:f7:ee:4c:5c:1f:b0:c0:ff:19:4c:2b:
                    02:db
                Exponent: 65537 (0x10001)
        X509v3 extensions:
            X509v3 Basic Constraints: 
                CA:FALSE
            X509v3 Subject Key Identifier: 
                07:34:9F:B0:B0:7A:FA:C8:C7:37:31:56:8F:21:5D:CD:86:F6:45:4A
            X509v3 Authority Key Identifier: 
                keyid:E3:8F:05:FF:02:74:B2:46:B7:3A:DB:FF:A4:D1:95:B9:E3:4E:36:80
                DirName:/CN=team64-net
                serial:25:F5:57:42:34:73:57:E2:B3:76:8F:F8:B4:12:19:AD:BB:A6:95:1A
            X509v3 Extended Key Usage: 
                TLS Web Client Authentication
            X509v3 Key Usage: 
                Digital Signature
    Signature Algorithm: sha256WithRSAEncryption
    Signature Value:
        2f:ea:5c:9f:cf:00:d9:63:99:92:0d:e2:2c:db:43:7b:8f:62:
        24:10:63:ba:f4:88:bc:04:43:e8:44:31:c0:4e:47:fa:0a:69:
        3f:ef:bf:e7:1e:7e:61:0a:3b:1b:12:f1:89:2c:c7:c1:81:8d:
        ea:f1:58:58:0a:05:a3:17:60:75:07:82:86:e8:c5:51:fb:d2:
        4f:25:d6:dd:c8:d4:4f:31:9c:6b:19:f9:47:e0:72:42:d7:68:
        33:12:32:02:a3:ec:49:37:c9:a6:52:f7:0a:96:c5:37:ab:79:
        d1:87:ca:15:34:f5:ab:2f:dd:8d:f6:d2:e5:3b:22:ec:2e:4a:
        7d:bc:5a:9e:6b:94:45:ed:75:83:4b:1e:c8:56:a6:da:dd:72:
        0a:dc:48:fd:be:24:0b:81:23:aa:ce:b3:ad:f1:6d:10:30:b9:
        9f:45:08:03:4e:00:52:06:9c:d1:30:5a:c6:4a:e3:b2:94:b1:
        e4:1a:0e:3c:73:e8:a9:f3:a7:94:3c:45:1f:40:e2:dc:f9:f8:
        25:e3:62:1b:4e:10:c9:69:4a:e0:5d:35:bc:0b:3a:00:db:e7:
        34:d3:02:1b:13:bc:1c:8f:28:39:da:37:9d:81:89:2c:66:8a:
        a4:24:fa:8f:11:85:5f:2b:ed:f4:35:c3:4a:b7:85:c4:80:b9:
        03:68:00:76
-----BEGIN CERTIFICATE-----
MIIDWjCCAkKgAwIBAgIRAJtRptr6GX6CPuy4v9vJOaQwDQYJKoZIhvcNAQELBQAw
FTETMBEGA1UEAwwKdGVhbTY0LW5ldDAeFw0yMzExMDQxMTI4MzRaFw0yNjEwMTkx
MTI4MzRaMBgxFjAUBgNVBAMMDXRlYW02NC1jbGllbnQwggEiMA0GCSqGSIb3DQEB
AQUAA4IBDwAwggEKAoIBAQCtU9q47LK4Y7Dy/OdngEUFaW9fmFlFSnntbx+Mh8Ty
v9l9QmwWrt3GfmOp6QyFfOXCUqJqWTl7C2ut0KaloRX7/VrdlKH/9d8pPhkum+k8
hMVqMwbY/2/xgHyzZZDiot6SbRW27JrW+BqQE6EFjx/j/AQ51RxRBYXi1FKdnFAA
g4fuc4yQz/zPyO960z6CTPzoU9kQLE0AzBwYMOqpcQc+6+ddz0ttTyX64jreVNtp
2OgnvNo+6OO2wXgI90gJXPu9kOwd9I7gWcz9EebcTwIiCj5p+p0FqULngsAkrUmO
2PEsxeHfOeFZQdIDn/bjokw4B0z37kxcH7DA/xlMKwLbAgMBAAGjgaEwgZ4wCQYD
VR0TBAIwADAdBgNVHQ4EFgQUBzSfsLB6+sjHNzFWjyFdzYb2RUowUAYDVR0jBEkw
R4AU448F/wJ0ska3Otv/pNGVueNONoChGaQXMBUxEzARBgNVBAMMCnRlYW02NC1u
ZXSCFCX1V0I0c1fis3aP+LQSGa27ppUaMBMGA1UdJQQMMAoGCCsGAQUFBwMCMAsG
A1UdDwQEAwIHgDANBgkqhkiG9w0BAQsFAAOCAQEAL+pcn88A2WOZkg3iLNtDe49i
JBBjuvSIvARD6EQxwE5H+gppP++/5x5+YQo7GxLxiSzHwYGN6vFYWAoFoxdgdQeC
hujFUfvSTyXW3cjUTzGcaxn5R+ByQtdoMxIyAqPsSTfJplL3CpbFN6t50YfKFTT1
qy/djfbS5Tsi7C5KfbxanmuURe11g0seyFam2t1yCtxI/b4kC4Ejqs6zrfFtEDC5
n0UIA04AUgac0TBaxkrjspSx5BoOPHPoqfOnlDxFH0Di3Pn4JeNiG04QyWlK4F01
vAs6ANvnNNMCGxO8HI8oOdo3nYGJLGaKpCT6jxGFXyvt9DXDSreFxIC5A2gAdg==
-----END CERTIFICATE-----
