Certificate:
    Data:
        Version: 3 (0x2)
        Serial Number:
            80:2a:35:b6:7a:29:3c:da:d0:29:59:23:23:04:9e:f8
        Signature Algorithm: sha256WithRSAEncryption
        Issuer: CN=team20-net
        Validity
            Not Before: Nov  4 11:27:44 2023 GMT
            Not After : Oct 19 11:27:44 2026 GMT
        Subject: CN=team20-client
        Subject Public Key Info:
            Public Key Algorithm: rsaEncryption
                Public-Key: (2048 bit)
                Modulus:
                    00:b5:9a:4e:e5:da:6b:1b:29:0e:7d:55:d8:b4:17:
                    52:b6:e4:bb:73:69:82:23:66:d8:07:16:3d:90:36:
                    5b:d9:2e:1e:55:50:d1:c3:1d:61:1b:9c:1a:61:de:
                    c1:f8:e7:ef:03:a5:13:ba:57:bc:d2:76:1b:7e:4b:
                    06:55:6d:f3:36:50:b8:fb:f1:96:dc:8f:09:65:85:
                    d4:21:28:cc:2f:dd:b2:da:dc:65:24:99:18:2f:d8:
                    d3:ec:ab:06:61:05:cc:96:1f:ac:21:23:73:17:e6:
                    15:78:9c:21:da:83:7b:11:a4:b3:8b:96:d3:31:14:
                    6c:9c:02:23:6c:5b:b4:ac:0d:f5:43:aa:82:63:1b:
                    09:8b:46:72:52:c7:9b:58:a9:ed:3c:2a:5e:4c:6e:
                    44:37:27:d2:9d:97:fc:6c:89:82:ed:52:9f:6f:1d:
                    14:08:ca:b9:97:81:b2:02:24:65:ee:17:2d:39:2f:
                    0a:a0:b2:84:c2:49:d7:31:ea:06:e9:72:f8:15:7d:
                    63:92:d0:86:2e:7d:50:5c:3a:6c:5a:98:76:bf:84:
                    5f:41:50:02:4a:2a:19:f6:4a:2d:4c:99:92:cf:21:
                    c2:83:57:c8:4e:33:8a:b3:1b:96:33:83:f7:c7:08:
                    82:03:b8:4f:e6:c3:bb:a4:c5:37:1b:9f:11:a2:5e:
                    46:fd
                Exponent: 65537 (0x10001)
        X509v3 extensions:
            X509v3 Basic Constraints: 
                CA:FALSE
            X509v3 Subject Key Identifier: 
                5A:FF:A5:A9:72:E7:D4:7C:75:19:00:91:60:9F:B2:2B:A1:57:04:8F
            X509v3 Authority Key Identifier: 
                keyid:7E:8D:D4:78:D6:EC:AB:DD:83:8A:46:EA:14:E8:F8:D9:ED:C4:1A:1E
                DirName:/CN=team20-net
                serial:1A:F0:05:AF:98:5E:F3:AA:01:71:AA:8D:43:45:D5:4F:AA:B0:9C:F9
            X509v3 Extended Key Usage: 
                TLS Web Client Authentication
            X509v3 Key Usage: 
                Digital Signature
    Signature Algorithm: sha256WithRSAEncryption
    Signature Value:
        6e:92:96:cf:6c:27:03:e2:d5:ea:20:47:d2:82:9a:22:8a:53:
        76:0f:3a:60:d6:37:94:a6:5f:43:59:77:5a:02:37:63:6f:9f:
        a9:6e:cb:de:07:6c:90:62:bb:99:ae:57:9c:17:ab:e2:ba:92:
        f9:81:7c:9d:f1:a9:bf:76:96:13:d5:b0:c4:75:2b:5e:95:7f:
        8e:9b:7f:aa:72:ed:58:83:57:e1:7c:8d:7b:94:89:de:c0:c6:
        87:ef:0c:03:52:58:55:ce:6f:83:f8:f0:14:d3:3d:9e:16:04:
        63:6e:0a:20:f0:b2:5b:d0:73:bb:a9:00:d3:46:30:36:96:de:
        21:99:4e:e7:a8:df:f8:41:1f:ab:c7:44:eb:9f:9e:08:b9:d3:
        5c:18:53:20:ba:6f:98:b5:4a:13:e9:76:c3:cc:60:6e:74:21:
        60:fc:cf:e2:38:87:88:7a:82:bb:a0:a4:93:6b:cb:92:81:17:
        47:d0:37:c0:1e:2d:13:14:a8:fe:cd:7a:b7:18:68:3d:e4:a7:
        ff:7f:35:83:04:e2:fd:15:30:af:ec:13:7a:be:b9:71:ad:4f:
        69:1a:1d:bc:24:3c:78:67:f6:b3:0d:5f:8f:cc:bd:99:46:f1:
        13:0d:65:2a:87:fd:dd:bd:07:4b:cf:cd:49:92:12:be:97:ed:
        e7:ab:86:75
-----BEGIN CERTIFICATE-----
MIIDWjCCAkKgAwIBAgIRAIAqNbZ6KTza0ClZIyMEnvgwDQYJKoZIhvcNAQELBQAw
FTETMBEGA1UEAwwKdGVhbTIwLW5ldDAeFw0yMzExMDQxMTI3NDRaFw0yNjEwMTkx
MTI3NDRaMBgxFjAUBgNVBAMMDXRlYW0yMC1jbGllbnQwggEiMA0GCSqGSIb3DQEB
AQUAA4IBDwAwggEKAoIBAQC1mk7l2msbKQ59Vdi0F1K25LtzaYIjZtgHFj2QNlvZ
Lh5VUNHDHWEbnBph3sH45+8DpRO6V7zSdht+SwZVbfM2ULj78ZbcjwllhdQhKMwv
3bLa3GUkmRgv2NPsqwZhBcyWH6whI3MX5hV4nCHag3sRpLOLltMxFGycAiNsW7Ss
DfVDqoJjGwmLRnJSx5tYqe08Kl5MbkQ3J9Kdl/xsiYLtUp9vHRQIyrmXgbICJGXu
Fy05LwqgsoTCSdcx6gbpcvgVfWOS0IYufVBcOmxamHa/hF9BUAJKKhn2Si1MmZLP
IcKDV8hOM4qzG5Yzg/fHCIIDuE/mw7ukxTcbnxGiXkb9AgMBAAGjgaEwgZ4wCQYD
VR0TBAIwADAdBgNVHQ4EFgQUWv+lqXLn1Hx1GQCRYJ+yK6FXBI8wUAYDVR0jBEkw
R4AUfo3UeNbsq92DikbqFOj42e3EGh6hGaQXMBUxEzARBgNVBAMMCnRlYW0yMC1u
ZXSCFBrwBa+YXvOqAXGqjUNF1U+qsJz5MBMGA1UdJQQMMAoGCCsGAQUFBwMCMAsG
A1UdDwQEAwIHgDANBgkqhkiG9w0BAQsFAAOCAQEAbpKWz2wnA+LV6iBH0oKaIopT
dg86YNY3lKZfQ1l3WgI3Y2+fqW7L3gdskGK7ma5XnBer4rqS+YF8nfGpv3aWE9Ww
xHUrXpV/jpt/qnLtWINX4XyNe5SJ3sDGh+8MA1JYVc5vg/jwFNM9nhYEY24KIPCy
W9Bzu6kA00YwNpbeIZlO56jf+EEfq8dE65+eCLnTXBhTILpvmLVKE+l2w8xgbnQh
YPzP4jiHiHqCu6Ckk2vLkoEXR9A3wB4tExSo/s16txhoPeSn/381gwTi/RUwr+wT
er65ca1PaRodvCQ8eGf2sw1fj8y9mUbxEw1lKof93b0HS8/NSZISvpft56uGdQ==
-----END CERTIFICATE-----
