Certificate:
    Data:
        Version: 3 (0x2)
        Serial Number:
            f8:4e:1d:f9:0a:28:61:a0:ca:44:3b:eb:2e:be:d3:fd
        Signature Algorithm: sha256WithRSAEncryption
        Issuer: CN=team20-net
        Validity
            Not Before: Nov  4 10:40:36 2023 GMT
            Not After : Oct 19 10:40:36 2026 GMT
        Subject: CN=team20-client
        Subject Public Key Info:
            Public Key Algorithm: rsaEncryption
                Public-Key: (2048 bit)
                Modulus:
                    00:d5:dc:84:71:18:b0:7a:bc:66:be:1d:1b:f5:03:
                    be:ce:46:38:f2:37:2d:b6:0d:da:32:3c:64:6e:99:
                    61:93:05:ae:be:79:ce:7b:8f:8c:dc:60:a6:10:bc:
                    f3:55:60:3c:f7:c2:e6:ba:51:a7:d0:63:80:b9:6f:
                    38:30:7c:e4:d4:15:d7:6f:ef:8a:86:17:c3:66:8c:
                    13:84:07:f8:ff:f0:75:fe:91:8e:5e:f1:52:6d:57:
                    11:fd:35:10:7b:99:75:a6:fe:7f:60:17:84:54:5f:
                    fa:7f:c2:ed:3e:f5:06:a5:08:8a:99:10:0d:d9:dc:
                    86:e9:39:68:5f:0d:1d:69:d3:bf:cd:40:d2:79:9b:
                    b0:a4:f6:e5:b0:57:62:0a:b0:15:e7:4e:56:a0:03:
                    98:fc:b6:7b:fa:ae:7c:2a:2f:62:a9:2e:c5:98:d7:
                    4c:a2:e5:ce:6a:0f:f7:00:38:16:59:9b:8e:dd:9b:
                    79:49:22:99:bd:aa:58:81:c1:70:b4:e2:e8:24:1a:
                    1b:3d:8c:50:54:3c:86:64:df:46:a6:4b:d0:66:b5:
                    75:13:45:f5:eb:43:d9:4d:8b:f1:6a:f0:4e:ac:2f:
                    68:b7:f7:c2:67:87:d0:7b:dd:fa:dd:0b:7f:db:d6:
                    7e:07:4c:06:2c:e2:d9:58:97:97:91:39:ae:14:8c:
                    6c:d5
                Exponent: 65537 (0x10001)
        X509v3 extensions:
            X509v3 Basic Constraints: 
                CA:FALSE
            X509v3 Subject Key Identifier: 
                EF:D0:E6:02:CF:CE:B6:DD:8B:EF:5B:BB:B3:FD:E4:1B:DD:88:BD:90
            X509v3 Authority Key Identifier: 
                keyid:7A:3A:4E:D2:86:7A:2A:22:08:65:2E:80:63:C5:ED:57:1C:03:2D:0B
                DirName:/CN=team20-net
                serial:3B:13:37:BA:CC:F1:53:D4:EA:3C:64:BE:0E:0B:7D:38:7A:AC:9D:CC
            X509v3 Extended Key Usage: 
                TLS Web Client Authentication
            X509v3 Key Usage: 
                Digital Signature
    Signature Algorithm: sha256WithRSAEncryption
    Signature Value:
        75:2a:d6:5a:e1:5b:8e:9e:cd:ac:d1:4f:92:73:14:10:41:23:
        34:a4:1b:1b:4e:78:33:ed:ca:3d:62:99:82:6b:27:db:45:7a:
        0b:00:e1:ad:ea:ac:e9:f3:be:f4:ad:6e:0e:2c:ff:1f:b3:36:
        de:4a:dc:6a:8a:a9:90:a8:26:b1:bd:09:f9:fb:91:1e:99:10:
        6e:56:af:3d:05:2a:26:0e:46:68:9b:b5:6d:66:b3:de:5f:81:
        0e:25:9f:bb:59:c4:e4:5e:c1:fd:99:a3:4b:db:34:52:d5:29:
        6a:a9:22:11:3e:79:d0:66:2b:54:a1:4c:75:bd:72:31:7f:7d:
        74:85:b7:a5:4d:e4:be:10:0e:58:13:a2:83:78:ce:83:4f:3f:
        f9:62:37:fe:09:b6:4d:7f:4a:11:c1:40:c8:39:9f:8b:3b:5d:
        35:2e:4f:21:be:73:82:dd:4d:40:c4:12:7e:fe:ba:8f:62:4b:
        07:26:83:c9:75:7d:61:c5:66:a6:ee:84:a0:b8:4f:39:24:08:
        f8:ba:f7:ad:7c:e4:84:be:ea:e2:74:b9:6c:fc:bd:ed:f4:68:
        b4:aa:4a:8c:f2:fa:b3:96:a4:ad:7a:50:73:33:0c:0d:a8:60:
        2f:9a:a3:08:28:32:be:81:a6:d7:ea:db:38:75:0f:0b:c2:05:
        0e:ab:c9:fe
-----BEGIN CERTIFICATE-----
MIIDWjCCAkKgAwIBAgIRAPhOHfkKKGGgykQ76y6+0/0wDQYJKoZIhvcNAQELBQAw
FTETMBEGA1UEAwwKdGVhbTIwLW5ldDAeFw0yMzExMDQxMDQwMzZaFw0yNjEwMTkx
MDQwMzZaMBgxFjAUBgNVBAMMDXRlYW0yMC1jbGllbnQwggEiMA0GCSqGSIb3DQEB
AQUAA4IBDwAwggEKAoIBAQDV3IRxGLB6vGa+HRv1A77ORjjyNy22DdoyPGRumWGT
Ba6+ec57j4zcYKYQvPNVYDz3wua6UafQY4C5bzgwfOTUFddv74qGF8NmjBOEB/j/
8HX+kY5e8VJtVxH9NRB7mXWm/n9gF4RUX/p/wu0+9QalCIqZEA3Z3IbpOWhfDR1p
07/NQNJ5m7Ck9uWwV2IKsBXnTlagA5j8tnv6rnwqL2KpLsWY10yi5c5qD/cAOBZZ
m47dm3lJIpm9qliBwXC04ugkGhs9jFBUPIZk30amS9BmtXUTRfXrQ9lNi/Fq8E6s
L2i398Jnh9B73frdC3/b1n4HTAYs4tlYl5eROa4UjGzVAgMBAAGjgaEwgZ4wCQYD
VR0TBAIwADAdBgNVHQ4EFgQU79DmAs/Ott2L71u7s/3kG92IvZAwUAYDVR0jBEkw
R4AUejpO0oZ6KiIIZS6AY8XtVxwDLQuhGaQXMBUxEzARBgNVBAMMCnRlYW0yMC1u
ZXSCFDsTN7rM8VPU6jxkvg4LfTh6rJ3MMBMGA1UdJQQMMAoGCCsGAQUFBwMCMAsG
A1UdDwQEAwIHgDANBgkqhkiG9w0BAQsFAAOCAQEAdSrWWuFbjp7NrNFPknMUEEEj
NKQbG054M+3KPWKZgmsn20V6CwDhreqs6fO+9K1uDiz/H7M23krcaoqpkKgmsb0J
+fuRHpkQblavPQUqJg5GaJu1bWaz3l+BDiWfu1nE5F7B/ZmjS9s0UtUpaqkiET55
0GYrVKFMdb1yMX99dIW3pU3kvhAOWBOig3jOg08/+WI3/gm2TX9KEcFAyDmfiztd
NS5PIb5zgt1NQMQSfv66j2JLByaDyXV9YcVmpu6EoLhPOSQI+Lr3rXzkhL7q4nS5
bPy97fRotKpKjPL6s5akrXpQczMMDahgL5qjCCgyvoGm1+rbOHUPC8IFDqvJ/g==
-----END CERTIFICATE-----
