Certificate:
    Data:
        Version: 3 (0x2)
        Serial Number:
            fd:42:fb:5c:ba:93:b1:f9:12:eb:50:c8:9c:0c:73:68
        Signature Algorithm: sha256WithRSAEncryption
        Issuer: CN=team20-net
        Validity
            Not Before: Nov  4 10:40:36 2023 GMT
            Not After : Oct 19 10:40:36 2026 GMT
        Subject: CN=team20-server
        Subject Public Key Info:
            Public Key Algorithm: rsaEncryption
                Public-Key: (2048 bit)
                Modulus:
                    00:d8:37:b6:d9:5f:7a:b5:0b:3a:3d:e5:a0:3e:c7:
                    d8:4f:84:66:9b:5f:07:e6:57:28:70:f1:81:52:f7:
                    96:ff:8b:a4:c1:8e:3d:9e:4f:20:14:c0:95:c8:12:
                    91:3f:84:92:88:b1:9e:84:06:52:36:41:5e:2d:85:
                    2f:d8:7f:47:01:c4:10:a3:50:df:1f:39:23:a1:ea:
                    5d:cd:16:70:44:2d:1a:75:93:59:40:ad:f1:28:39:
                    9e:05:3d:28:49:35:64:29:4c:2a:e0:33:b5:73:91:
                    ab:53:f6:78:8d:f3:de:9e:60:fd:f3:2f:03:a8:96:
                    f9:5a:ad:49:7f:45:ee:08:14:dc:55:e0:22:14:87:
                    bc:cc:18:78:8e:5b:db:20:f2:1d:80:4d:fb:80:41:
                    dd:d1:83:9c:85:f1:a3:35:42:35:24:8e:21:33:b7:
                    97:d5:13:32:bf:93:4f:7b:38:a5:3c:89:23:74:a5:
                    35:45:48:10:c0:82:cf:69:ef:a2:df:fd:d6:64:a9:
                    d0:95:c6:3f:f5:fd:33:a2:59:f9:e7:43:03:41:47:
                    46:6a:47:5b:6a:88:55:6f:b9:89:b9:09:b8:3c:16:
                    29:c0:50:ee:cb:56:85:53:70:44:e6:9c:47:00:88:
                    73:77:da:8e:7f:a0:3d:29:53:53:4c:89:59:6d:b5:
                    77:53
                Exponent: 65537 (0x10001)
        X509v3 extensions:
            X509v3 Basic Constraints: 
                CA:FALSE
            X509v3 Subject Key Identifier: 
                38:74:52:87:E8:89:1C:87:2A:31:D5:D0:F6:CD:E8:67:12:4B:FE:33
            X509v3 Authority Key Identifier: 
                keyid:7A:3A:4E:D2:86:7A:2A:22:08:65:2E:80:63:C5:ED:57:1C:03:2D:0B
                DirName:/CN=team20-net
                serial:3B:13:37:BA:CC:F1:53:D4:EA:3C:64:BE:0E:0B:7D:38:7A:AC:9D:CC
            X509v3 Extended Key Usage: 
                TLS Web Server Authentication
            X509v3 Key Usage: 
                Digital Signature, Key Encipherment
            X509v3 Subject Alternative Name: 
                DNS:team20-server
    Signature Algorithm: sha256WithRSAEncryption
    Signature Value:
        22:2f:cd:a2:c3:92:a8:ec:95:7f:da:fd:98:4f:b7:9b:a1:51:
        1d:89:c2:95:53:5f:84:60:c4:35:bb:b9:e3:9f:29:52:c9:0f:
        f8:a4:1d:a0:50:f4:15:b0:ac:6e:2e:58:36:ba:99:06:a0:2d:
        a7:18:94:48:0a:92:c1:7b:89:b4:02:be:a9:67:c2:f0:93:1c:
        dd:fc:94:f6:6b:2f:69:20:b9:82:49:94:7b:0b:db:47:de:99:
        72:0f:9d:13:e8:d1:25:38:35:a3:ee:f1:49:91:c7:fa:c0:11:
        71:0b:c1:7c:17:14:b6:a6:60:18:e2:54:f3:b3:ef:c3:c6:f8:
        ea:d6:b1:11:ea:61:85:7f:70:e3:8e:28:19:69:68:74:77:e7:
        33:f4:ed:82:a6:41:8f:75:b4:fe:64:51:57:7f:7e:46:d9:f1:
        b6:c5:cc:2c:4b:66:bd:d8:98:9f:3e:59:74:cd:f5:70:14:af:
        67:44:94:25:c6:bd:db:8a:42:db:10:83:0e:9b:e8:c0:85:81:
        ed:94:69:5e:98:12:af:e2:02:1c:f1:c5:9e:74:69:bd:a9:83:
        69:d7:d4:8c:21:7b:c4:11:d6:a5:74:d3:a5:78:a9:7c:7f:61:
        8c:e3:51:1e:73:2b:94:0f:d7:26:f1:1d:af:f0:d4:de:34:15:
        91:a6:1b:9c
-----BEGIN CERTIFICATE-----
MIIDdDCCAlygAwIBAgIRAP1C+1y6k7H5EutQyJwMc2gwDQYJKoZIhvcNAQELBQAw
FTETMBEGA1UEAwwKdGVhbTIwLW5ldDAeFw0yMzExMDQxMDQwMzZaFw0yNjEwMTkx
MDQwMzZaMBgxFjAUBgNVBAMMDXRlYW0yMC1zZXJ2ZXIwggEiMA0GCSqGSIb3DQEB
AQUAA4IBDwAwggEKAoIBAQDYN7bZX3q1Czo95aA+x9hPhGabXwfmVyhw8YFS95b/
i6TBjj2eTyAUwJXIEpE/hJKIsZ6EBlI2QV4thS/Yf0cBxBCjUN8fOSOh6l3NFnBE
LRp1k1lArfEoOZ4FPShJNWQpTCrgM7VzkatT9niN896eYP3zLwOolvlarUl/Re4I
FNxV4CIUh7zMGHiOW9sg8h2ATfuAQd3Rg5yF8aM1QjUkjiEzt5fVEzK/k097OKU8
iSN0pTVFSBDAgs9p76Lf/dZkqdCVxj/1/TOiWfnnQwNBR0ZqR1tqiFVvuYm5Cbg8
FinAUO7LVoVTcETmnEcAiHN32o5/oD0pU1NMiVlttXdTAgMBAAGjgbswgbgwCQYD
VR0TBAIwADAdBgNVHQ4EFgQUOHRSh+iJHIcqMdXQ9s3oZxJL/jMwUAYDVR0jBEkw
R4AUejpO0oZ6KiIIZS6AY8XtVxwDLQuhGaQXMBUxEzARBgNVBAMMCnRlYW0yMC1u
ZXSCFDsTN7rM8VPU6jxkvg4LfTh6rJ3MMBMGA1UdJQQMMAoGCCsGAQUFBwMBMAsG
A1UdDwQEAwIFoDAYBgNVHREEETAPgg10ZWFtMjAtc2VydmVyMA0GCSqGSIb3DQEB
CwUAA4IBAQAiL82iw5Ko7JV/2v2YT7eboVEdicKVU1+EYMQ1u7njnylSyQ/4pB2g
UPQVsKxuLlg2upkGoC2nGJRICpLBe4m0Ar6pZ8Lwkxzd/JT2ay9pILmCSZR7C9tH
3plyD50T6NElODWj7vFJkcf6wBFxC8F8FxS2pmAY4lTzs+/Dxvjq1rER6mGFf3Dj
jigZaWh0d+cz9O2CpkGPdbT+ZFFXf35G2fG2xcwsS2a92JifPll0zfVwFK9nRJQl
xr3bikLbEIMOm+jAhYHtlGlemBKv4gIc8cWedGm9qYNp19SMIXvEEdaldNOleKl8
f2GM41EecyuUD9cm8R2v8NTeNBWRphuc
-----END CERTIFICATE-----
