Certificate:
    Data:
        Version: 3 (0x2)
        Serial Number:
            39:7a:68:22:43:ca:44:f8:fc:b1:20:89:d0:08:eb:06
        Signature Algorithm: sha256WithRSAEncryption
        Issuer: CN=team2-net
        Validity
            Not Before: Nov  4 11:27:28 2023 GMT
            Not After : Oct 19 11:27:28 2026 GMT
        Subject: CN=team2-server
        Subject Public Key Info:
            Public Key Algorithm: rsaEncryption
                Public-Key: (2048 bit)
                Modulus:
                    00:92:de:9e:83:d1:c7:5d:45:7f:c5:ab:d2:3c:71:
                    97:66:ab:31:85:dd:6d:f4:b4:d4:59:1e:cd:af:cf:
                    70:6d:a5:f2:0b:28:42:b0:c4:25:87:f8:1d:e3:46:
                    39:62:aa:4c:81:ad:8f:d3:10:af:21:7f:19:f7:28:
                    20:42:78:e9:02:6b:6f:a2:8c:18:87:7a:7a:56:23:
                    62:ad:1f:52:ef:6b:55:3a:4f:97:26:09:ae:49:65:
                    4e:81:c3:07:d4:9f:0c:97:5a:a1:12:b6:e4:f4:4b:
                    a8:2e:c7:d0:47:08:07:e1:f3:81:2a:cd:59:12:c1:
                    2d:ee:71:11:c1:96:d5:50:3e:c8:3d:b5:26:aa:2a:
                    26:5d:52:4b:0c:0c:f2:4c:d8:a2:24:da:c6:a6:47:
                    2b:90:f9:ae:18:a5:33:34:90:84:17:b0:ec:05:63:
                    53:ff:9e:b3:c6:3e:5a:5e:27:2c:79:49:ab:33:54:
                    31:92:8a:75:1e:b4:65:69:c6:30:b5:2c:d9:52:5b:
                    fe:a3:0d:69:a5:48:5d:49:f1:c5:b1:72:a4:ab:3f:
                    77:b5:72:a3:f3:f7:42:00:16:41:d3:a3:54:f4:b3:
                    61:08:4d:e2:b4:91:9d:84:cc:21:29:f9:4b:b4:4f:
                    5f:2f:70:c3:a3:ed:ff:df:0f:d3:17:23:c1:ab:ef:
                    39:d7
                Exponent: 65537 (0x10001)
        X509v3 extensions:
            X509v3 Basic Constraints: 
                CA:FALSE
            X509v3 Subject Key Identifier: 
                9A:B4:83:C6:A8:10:A9:92:34:19:5F:3A:04:07:85:B3:6D:1C:32:F8
            X509v3 Authority Key Identifier: 
                keyid:0E:34:8D:8D:6D:60:FD:12:E8:66:67:52:DB:AE:B9:17:10:26:C0:BB
                DirName:/CN=team2-net
                serial:78:75:81:E9:0A:57:74:13:7C:5E:35:C2:97:53:D2:E1:C4:10:8D:94
            X509v3 Extended Key Usage: 
                TLS Web Server Authentication
            X509v3 Key Usage: 
                Digital Signature, Key Encipherment
            X509v3 Subject Alternative Name: 
                DNS:team2-server
    Signature Algorithm: sha256WithRSAEncryption
    Signature Value:
        74:f9:8b:87:07:fc:c7:39:ae:5d:5d:74:57:fe:d3:ee:c3:44:
        e5:4b:0b:26:53:7f:14:56:9a:a3:02:24:2c:bb:88:25:1e:58:
        10:36:78:a9:a5:1a:d8:67:25:a1:e5:50:2f:ae:71:23:8c:e7:
        eb:d4:5b:f7:82:43:f7:15:75:4d:71:62:7d:9e:9c:31:c3:f2:
        67:69:f6:3c:f5:d8:9c:29:77:e7:43:be:d4:2b:50:43:9c:82:
        91:7a:41:02:71:49:3b:4a:17:31:87:78:99:f8:9a:37:e5:c2:
        ea:3a:66:6e:71:f9:3a:22:f1:51:e1:73:54:39:06:52:7f:1d:
        de:be:7e:24:1e:96:fc:08:61:c1:97:e0:19:ba:47:de:85:50:
        d5:c7:cf:e8:35:8c:e6:94:f1:f8:a4:ad:6b:ed:b5:71:e6:ac:
        56:e7:82:d1:74:0b:87:2a:8e:0d:07:b1:72:91:ef:79:fc:7c:
        aa:3a:05:1a:a9:e5:b5:ac:3d:a2:3a:7e:d5:3d:48:21:71:9b:
        86:25:51:23:1b:5e:9a:ca:e2:f5:83:65:db:35:75:af:45:5d:
        2d:b6:db:36:f1:91:5c:5a:7f:b7:e8:87:55:a6:9a:b4:93:49:
        ec:78:88:87:42:3f:c4:01:58:31:48:01:a4:29:0d:d2:19:fc:
        03:5b:b8:4e
-----BEGIN CERTIFICATE-----
MIIDbzCCAlegAwIBAgIQOXpoIkPKRPj8sSCJ0AjrBjANBgkqhkiG9w0BAQsFADAU
MRIwEAYDVQQDDAl0ZWFtMi1uZXQwHhcNMjMxMTA0MTEyNzI4WhcNMjYxMDE5MTEy
NzI4WjAXMRUwEwYDVQQDDAx0ZWFtMi1zZXJ2ZXIwggEiMA0GCSqGSIb3DQEBAQUA
A4IBDwAwggEKAoIBAQCS3p6D0cddRX/Fq9I8cZdmqzGF3W30tNRZHs2vz3BtpfIL
KEKwxCWH+B3jRjliqkyBrY/TEK8hfxn3KCBCeOkCa2+ijBiHenpWI2KtH1Lva1U6
T5cmCa5JZU6BwwfUnwyXWqEStuT0S6gux9BHCAfh84EqzVkSwS3ucRHBltVQPsg9
tSaqKiZdUksMDPJM2KIk2samRyuQ+a4YpTM0kIQXsOwFY1P/nrPGPlpeJyx5Sasz
VDGSinUetGVpxjC1LNlSW/6jDWmlSF1J8cWxcqSrP3e1cqPz90IAFkHTo1T0s2EI
TeK0kZ2EzCEp+Uu0T18vcMOj7f/fD9MXI8Gr7znXAgMBAAGjgbkwgbYwCQYDVR0T
BAIwADAdBgNVHQ4EFgQUmrSDxqgQqZI0GV86BAeFs20cMvgwTwYDVR0jBEgwRoAU
DjSNjW1g/RLoZmdS2665FxAmwLuhGKQWMBQxEjAQBgNVBAMMCXRlYW0yLW5ldIIU
eHWB6QpXdBN8XjXCl1PS4cQQjZQwEwYDVR0lBAwwCgYIKwYBBQUHAwEwCwYDVR0P
BAQDAgWgMBcGA1UdEQQQMA6CDHRlYW0yLXNlcnZlcjANBgkqhkiG9w0BAQsFAAOC
AQEAdPmLhwf8xzmuXV10V/7T7sNE5UsLJlN/FFaaowIkLLuIJR5YEDZ4qaUa2Gcl
oeVQL65xI4zn69Rb94JD9xV1TXFifZ6cMcPyZ2n2PPXYnCl350O+1CtQQ5yCkXpB
AnFJO0oXMYd4mfiaN+XC6jpmbnH5OiLxUeFzVDkGUn8d3r5+JB6W/AhhwZfgGbpH
3oVQ1cfP6DWM5pTx+KSta+21ceasVueC0XQLhyqODQexcpHvefx8qjoFGqnltaw9
ojp+1T1IIXGbhiVRIxtemsri9YNl2zV1r0VdLbbbNvGRXFp/t+iHVaaatJNJ7HiI
h0I/xAFYMUgBpCkN0hn8A1u4Tg==
-----END CERTIFICATE-----
