Certificate:
    Data:
        Version: 3 (0x2)
        Serial Number:
            88:f0:93:d3:6c:3a:d6:21:c1:45:b2:d9:a6:5d:aa:7c
        Signature Algorithm: sha256WithRSAEncryption
        Issuer: CN=team2-net
        Validity
            Not Before: Nov  3 20:39:19 2023 GMT
            Not After : Oct 18 20:39:19 2026 GMT
        Subject: CN=team2-client
        Subject Public Key Info:
            Public Key Algorithm: rsaEncryption
                Public-Key: (2048 bit)
                Modulus:
                    00:86:aa:b6:4e:03:48:2d:9f:ed:6b:dd:8f:32:f9:
                    50:82:af:d9:b4:d1:84:55:fd:f0:f1:87:0c:58:12:
                    f3:7d:9b:21:94:d1:08:42:2a:87:7d:22:c6:73:68:
                    03:cd:3f:81:a9:a2:5d:3a:38:2a:33:6b:a1:91:3a:
                    53:7d:19:8c:d4:70:52:d6:29:a8:a1:6b:90:c7:d8:
                    5a:19:bd:bf:99:84:b8:29:c1:2d:c0:e5:68:01:26:
                    8e:bc:a1:09:0a:f0:a9:7f:c7:a3:b9:c7:f8:cc:29:
                    54:21:6b:75:d1:f1:8f:a0:f8:ff:cd:ef:76:b6:70:
                    06:77:6a:11:98:69:b0:50:96:95:13:ad:80:05:82:
                    b8:36:19:6f:87:19:0a:1b:86:b4:17:75:40:04:6b:
                    b1:a0:67:7d:b8:20:7d:49:ec:46:52:ce:bb:10:4a:
                    8a:80:9b:da:05:9c:8b:66:d1:24:61:5c:31:fa:6f:
                    78:29:c9:b7:ff:e5:ef:02:6f:13:5c:ef:63:20:2a:
                    8b:54:1a:ff:8b:42:1f:c0:b7:2d:0d:5a:e7:69:bf:
                    00:e0:8f:a4:3b:50:2c:05:7e:b2:e2:73:78:f0:c6:
                    c2:9a:07:2e:15:56:54:69:c0:06:62:e4:f6:3d:34:
                    8e:f3:70:3b:42:06:c5:aa:1b:ac:e4:dc:44:d5:d2:
                    5b:83
                Exponent: 65537 (0x10001)
        X509v3 extensions:
            X509v3 Basic Constraints: 
                CA:FALSE
            X509v3 Subject Key Identifier: 
                43:3B:10:1D:79:83:25:BC:7D:4D:EF:1B:8F:0A:0B:FB:A1:38:13:95
            X509v3 Authority Key Identifier: 
                keyid:71:24:20:11:74:D4:90:FE:0B:6F:B3:88:DC:FD:63:6A:9B:BF:16:4F
                DirName:/CN=team2-net
                serial:60:91:FB:D1:72:B5:55:BF:3B:CE:D3:24:56:6A:2F:C1:36:64:EE:12
            X509v3 Extended Key Usage: 
                TLS Web Client Authentication
            X509v3 Key Usage: 
                Digital Signature
    Signature Algorithm: sha256WithRSAEncryption
    Signature Value:
        3c:4c:ed:96:62:05:46:d7:89:a4:70:6f:38:51:1e:d2:11:c3:
        08:d8:49:e4:77:42:d0:6c:64:a4:75:40:a4:a9:61:e6:22:5d:
        b2:e4:80:d4:c3:ea:60:d8:0f:f6:fc:fb:db:9a:86:6b:1d:a7:
        d6:c5:93:30:6d:51:4d:6e:07:f7:fa:e2:fb:37:e6:01:c4:64:
        4f:01:cd:b8:66:e9:2f:49:8b:74:63:c6:44:ad:22:50:ad:f9:
        bd:06:6a:cc:f8:c7:b2:b0:c2:4c:2f:51:d7:d0:65:4c:18:1d:
        a5:c4:7e:71:9d:20:dc:62:df:f4:c7:73:86:0f:4a:2b:ff:44:
        68:55:01:9d:40:86:db:2a:38:0e:f1:52:d4:26:f6:2d:5c:6d:
        0b:89:4a:90:aa:63:bb:63:fa:67:60:7e:a9:92:c2:cf:8c:12:
        38:aa:4f:fd:be:02:e2:16:62:fd:ce:f9:b3:1f:ef:38:49:ce:
        45:0e:00:a6:c7:a0:1d:bf:4e:4b:d4:f8:4c:bf:f0:d4:4f:86:
        40:b0:bb:67:57:ff:c6:44:4a:b5:2d:80:c4:a7:63:d8:d4:2d:
        e4:f6:e5:32:3d:aa:00:e6:51:19:6b:50:a9:51:fa:07:1a:0d:
        f6:8e:d7:d7:5b:a6:40:17:09:8e:f6:f2:ba:65:95:b4:c4:c3:
        e5:d9:4a:be
-----BEGIN CERTIFICATE-----
MIIDVzCCAj+gAwIBAgIRAIjwk9NsOtYhwUWy2aZdqnwwDQYJKoZIhvcNAQELBQAw
FDESMBAGA1UEAwwJdGVhbTItbmV0MB4XDTIzMTEwMzIwMzkxOVoXDTI2MTAxODIw
MzkxOVowFzEVMBMGA1UEAwwMdGVhbTItY2xpZW50MIIBIjANBgkqhkiG9w0BAQEF
AAOCAQ8AMIIBCgKCAQEAhqq2TgNILZ/ta92PMvlQgq/ZtNGEVf3w8YcMWBLzfZsh
lNEIQiqHfSLGc2gDzT+BqaJdOjgqM2uhkTpTfRmM1HBS1imooWuQx9haGb2/mYS4
KcEtwOVoASaOvKEJCvCpf8ejucf4zClUIWt10fGPoPj/ze92tnAGd2oRmGmwUJaV
E62ABYK4NhlvhxkKG4a0F3VABGuxoGd9uCB9SexGUs67EEqKgJvaBZyLZtEkYVwx
+m94Kcm3/+XvAm8TXO9jICqLVBr/i0IfwLctDVrnab8A4I+kO1AsBX6y4nN48MbC
mgcuFVZUacAGYuT2PTSO83A7QgbFqhus5NxE1dJbgwIDAQABo4GgMIGdMAkGA1Ud
EwQCMAAwHQYDVR0OBBYEFEM7EB15gyW8fU3vG48KC/uhOBOVME8GA1UdIwRIMEaA
FHEkIBF01JD+C2+ziNz9Y2qbvxZPoRikFjAUMRIwEAYDVQQDDAl0ZWFtMi1uZXSC
FGCR+9FytVW/O87TJFZqL8E2ZO4SMBMGA1UdJQQMMAoGCCsGAQUFBwMCMAsGA1Ud
DwQEAwIHgDANBgkqhkiG9w0BAQsFAAOCAQEAPEztlmIFRteJpHBvOFEe0hHDCNhJ
5HdC0GxkpHVApKlh5iJdsuSA1MPqYNgP9vz725qGax2n1sWTMG1RTW4H9/ri+zfm
AcRkTwHNuGbpL0mLdGPGRK0iUK35vQZqzPjHsrDCTC9R19BlTBgdpcR+cZ0g3GLf
9Mdzhg9KK/9EaFUBnUCG2yo4DvFS1Cb2LVxtC4lKkKpju2P6Z2B+qZLCz4wSOKpP
/b4C4hZi/c75sx/vOEnORQ4ApsegHb9OS9T4TL/w1E+GQLC7Z1f/xkRKtS2AxKdj
2NQt5PblMj2qAOZRGWtQqVH6BxoN9o7X11umQBcJjvbyumWVtMTD5dlKvg==
-----END CERTIFICATE-----
