Certificate:
    Data:
        Version: 3 (0x2)
        Serial Number:
            98:57:37:9d:77:66:a2:9d:db:57:cb:39:c2:45:b8:13
        Signature Algorithm: sha256WithRSAEncryption
        Issuer: CN=team2-net
        Validity
            Not Before: Nov  3 20:39:19 2023 GMT
            Not After : Oct 18 20:39:19 2026 GMT
        Subject: CN=team2-server
        Subject Public Key Info:
            Public Key Algorithm: rsaEncryption
                Public-Key: (2048 bit)
                Modulus:
                    00:b9:b1:c6:45:5c:93:d4:15:17:93:b9:38:d8:67:
                    c6:9d:36:41:4b:9e:05:bd:57:b7:63:1c:58:0b:73:
                    ca:57:8d:2e:5a:b3:fd:99:88:25:47:36:a0:84:9d:
                    c7:0c:da:4c:b3:d2:a2:28:6a:68:87:57:f7:31:be:
                    8e:0a:fc:3a:a7:39:1f:85:a0:b4:93:dc:88:5b:31:
                    26:9c:63:82:35:95:e2:09:99:dd:8d:44:3d:62:ed:
                    a6:62:a7:bd:41:b7:95:50:c1:5a:a5:86:40:3e:b4:
                    a2:16:b5:6f:12:e0:4a:45:c3:b9:2f:ab:d0:45:91:
                    4c:43:f2:b4:ed:d8:b3:57:4e:ef:88:eb:3b:fe:be:
                    72:39:4a:6f:8e:5e:f1:f6:0d:df:42:89:f2:d8:6b:
                    79:11:2a:0b:3e:8f:87:24:48:e5:6e:41:03:e3:62:
                    2b:69:7d:3e:8c:aa:93:29:82:29:30:22:bd:a6:f4:
                    8b:1c:a7:4b:cc:a9:4e:5c:a0:79:d2:e7:d9:66:45:
                    b3:b0:d0:1d:a9:84:23:0b:0f:0d:5f:cc:b8:82:7c:
                    5f:c3:2c:3d:eb:50:99:23:31:ef:bb:7a:81:4f:36:
                    c5:75:82:c8:4d:e5:40:bd:ee:d3:1d:30:91:68:aa:
                    96:21:9d:75:47:35:6e:03:ff:25:3c:df:9b:51:81:
                    d1:33
                Exponent: 65537 (0x10001)
        X509v3 extensions:
            X509v3 Basic Constraints: 
                CA:FALSE
            X509v3 Subject Key Identifier: 
                02:B4:39:42:54:F5:96:89:2B:E8:78:F5:58:4F:38:CF:A0:3E:80:C4
            X509v3 Authority Key Identifier: 
                keyid:71:24:20:11:74:D4:90:FE:0B:6F:B3:88:DC:FD:63:6A:9B:BF:16:4F
                DirName:/CN=team2-net
                serial:60:91:FB:D1:72:B5:55:BF:3B:CE:D3:24:56:6A:2F:C1:36:64:EE:12
            X509v3 Extended Key Usage: 
                TLS Web Server Authentication
            X509v3 Key Usage: 
                Digital Signature, Key Encipherment
            X509v3 Subject Alternative Name: 
                DNS:team2-server
    Signature Algorithm: sha256WithRSAEncryption
    Signature Value:
        4a:69:2f:e9:e0:22:3b:9c:19:7a:3d:7d:01:04:b4:6e:b1:be:
        62:ce:db:82:cd:d6:89:8a:23:e5:0a:a5:0f:a5:5e:7b:4b:05:
        67:bd:4b:07:d1:00:34:4a:54:97:20:74:1e:7a:c4:ce:b6:f4:
        96:df:1b:be:17:bc:a6:c1:bc:2b:89:ba:ae:04:96:cb:64:c5:
        25:cb:d1:87:6f:d2:01:df:e6:a6:9d:fb:b0:b3:48:4f:ad:59:
        20:4f:fb:e6:bb:57:21:51:37:3b:d6:36:68:1e:e6:14:9d:4e:
        d4:57:c3:a9:47:82:cd:d1:ca:47:de:39:b0:77:c2:47:44:46:
        c2:e4:ec:69:53:8d:5b:16:52:bd:9b:a3:26:f2:12:52:63:fd:
        59:04:8c:79:45:aa:72:e2:82:81:e0:b1:e1:27:e6:6e:44:d8:
        dd:bc:49:82:a3:f4:17:3e:fc:a1:17:15:b0:92:96:96:65:5d:
        70:da:cc:47:e9:68:11:5c:17:b3:58:e4:11:03:c6:9e:66:e4:
        57:43:87:3b:7a:06:10:cf:82:df:8b:74:3f:24:08:c6:6d:eb:
        0a:cd:7a:b1:47:66:fa:41:74:32:df:18:82:02:3d:d9:35:42:
        4b:c1:aa:1e:db:2f:06:8f:13:58:1c:2e:59:22:9a:b5:5e:ab:
        70:dd:e4:97
-----BEGIN CERTIFICATE-----
MIIDcDCCAligAwIBAgIRAJhXN513ZqKd21fLOcJFuBMwDQYJKoZIhvcNAQELBQAw
FDESMBAGA1UEAwwJdGVhbTItbmV0MB4XDTIzMTEwMzIwMzkxOVoXDTI2MTAxODIw
MzkxOVowFzEVMBMGA1UEAwwMdGVhbTItc2VydmVyMIIBIjANBgkqhkiG9w0BAQEF
AAOCAQ8AMIIBCgKCAQEAubHGRVyT1BUXk7k42GfGnTZBS54FvVe3YxxYC3PKV40u
WrP9mYglRzaghJ3HDNpMs9KiKGpoh1f3Mb6OCvw6pzkfhaC0k9yIWzEmnGOCNZXi
CZndjUQ9Yu2mYqe9QbeVUMFapYZAPrSiFrVvEuBKRcO5L6vQRZFMQ/K07dizV07v
iOs7/r5yOUpvjl7x9g3fQony2Gt5ESoLPo+HJEjlbkED42IraX0+jKqTKYIpMCK9
pvSLHKdLzKlOXKB50ufZZkWzsNAdqYQjCw8NX8y4gnxfwyw961CZIzHvu3qBTzbF
dYLITeVAve7THTCRaKqWIZ11RzVuA/8lPN+bUYHRMwIDAQABo4G5MIG2MAkGA1Ud
EwQCMAAwHQYDVR0OBBYEFAK0OUJU9ZaJK+h49VhPOM+gPoDEME8GA1UdIwRIMEaA
FHEkIBF01JD+C2+ziNz9Y2qbvxZPoRikFjAUMRIwEAYDVQQDDAl0ZWFtMi1uZXSC
FGCR+9FytVW/O87TJFZqL8E2ZO4SMBMGA1UdJQQMMAoGCCsGAQUFBwMBMAsGA1Ud
DwQEAwIFoDAXBgNVHREEEDAOggx0ZWFtMi1zZXJ2ZXIwDQYJKoZIhvcNAQELBQAD
ggEBAEppL+ngIjucGXo9fQEEtG6xvmLO24LN1omKI+UKpQ+lXntLBWe9SwfRADRK
VJcgdB56xM629JbfG74XvKbBvCuJuq4ElstkxSXL0Ydv0gHf5qad+7CzSE+tWSBP
++a7VyFRNzvWNmge5hSdTtRXw6lHgs3RykfeObB3wkdERsLk7GlTjVsWUr2boyby
ElJj/VkEjHlFqnLigoHgseEn5m5E2N28SYKj9Bc+/KEXFbCSlpZlXXDazEfpaBFc
F7NY5BEDxp5m5FdDhzt6BhDPgt+LdD8kCMZt6wrNerFHZvpBdDLfGIICPdk1QkvB
qh7bLwaPE1gcLlkimrVeq3Dd5Jc=
-----END CERTIFICATE-----
