Certificate:
    Data:
        Version: 3 (0x2)
        Serial Number:
            ff:f8:d2:3c:ec:2c:f0:58:29:d0:01:2f:f3:d4:01:3b
        Signature Algorithm: sha256WithRSAEncryption
        Issuer: CN=team2-net
        Validity
            Not Before: Oct 31 16:30:10 2023 GMT
            Not After : Oct 15 16:30:10 2026 GMT
        Subject: CN=team2-client
        Subject Public Key Info:
            Public Key Algorithm: rsaEncryption
                Public-Key: (2048 bit)
                Modulus:
                    00:8b:44:5f:2b:42:7f:ea:66:da:06:21:ee:6b:36:
                    c4:9c:17:ac:75:d8:df:cb:6f:e5:29:3a:44:72:82:
                    9a:67:89:45:0c:36:62:82:11:bf:25:f9:75:11:7a:
                    ea:34:a3:3b:66:e6:1e:32:bf:d9:01:0b:c2:0f:09:
                    75:ec:3e:8e:87:c7:63:a8:bd:51:74:72:55:dc:e6:
                    6b:f9:86:19:d0:4a:1b:36:98:03:4b:80:3d:bc:95:
                    93:85:45:1d:57:28:b3:6b:d3:15:91:61:27:97:b9:
                    a8:15:14:d2:a0:0b:d3:3f:3a:71:49:39:84:39:5d:
                    78:ee:f9:34:b7:d2:c2:82:15:07:f1:2d:8d:7c:27:
                    50:2b:bf:2c:65:2f:34:e1:dd:80:e2:d1:bd:8b:82:
                    f7:4c:43:bc:34:86:17:1b:c2:55:31:8a:1c:08:18:
                    78:30:cb:d9:9f:b9:a9:81:16:a4:8f:f0:0d:f8:f8:
                    d7:74:8c:04:cc:64:46:48:79:93:e6:5d:e5:ea:f7:
                    b4:a5:8b:76:75:bf:38:fa:3d:26:d0:61:1c:af:13:
                    74:96:ee:15:f3:56:47:59:20:fa:e6:8a:f1:68:70:
                    0c:72:5c:0e:84:ba:cc:35:03:97:e8:6b:38:e5:b5:
                    52:33:33:56:e6:3a:5a:5c:91:d7:23:13:7e:bc:01:
                    ff:17
                Exponent: 65537 (0x10001)
        X509v3 extensions:
            X509v3 Basic Constraints: 
                CA:FALSE
            X509v3 Subject Key Identifier: 
                DF:1F:67:AA:F2:CB:0B:CC:A0:08:15:80:CA:03:4F:6D:18:2B:68:58
            X509v3 Authority Key Identifier: 
                keyid:80:58:5D:FE:35:8C:C9:89:AF:A8:DD:AD:84:B6:E6:92:25:3F:22:D3
                DirName:/CN=team2-net
                serial:42:66:FA:4B:7A:AD:25:C1:B3:A2:E7:CA:41:C1:3B:7B:79:12:D7:40
            X509v3 Extended Key Usage: 
                TLS Web Client Authentication
            X509v3 Key Usage: 
                Digital Signature
    Signature Algorithm: sha256WithRSAEncryption
    Signature Value:
        61:b9:a3:47:55:ca:ad:2c:44:ce:ea:da:97:07:23:19:fa:7d:
        4d:19:7a:73:62:76:91:91:5f:44:29:98:d2:d5:6a:43:1c:ad:
        fa:52:0d:7f:94:e2:9e:83:18:74:09:34:48:c3:12:d9:3f:3d:
        40:ce:e1:09:e0:1a:29:f5:b5:22:ef:bf:ec:c6:a6:d5:5c:1d:
        c9:27:33:08:05:74:d3:25:73:aa:ab:45:05:1e:59:9d:04:d4:
        0e:dd:db:0d:e0:58:98:cf:9b:58:7c:0d:85:02:b9:0d:75:25:
        09:35:22:fb:08:02:d3:62:66:bc:a0:a3:a9:7e:34:f5:ed:90:
        78:ae:b6:10:61:0f:11:f9:1a:78:51:77:2c:65:e4:ea:e9:78:
        98:9c:67:23:c7:df:b4:63:c3:05:79:3a:7b:c3:d6:4a:b3:88:
        e5:57:d3:f8:8d:72:9a:06:a6:cd:05:19:14:ef:bc:d3:8b:13:
        3a:2d:57:c3:60:e9:de:ef:52:c9:dc:af:be:0d:a7:62:26:e8:
        c6:b5:7a:1e:71:fe:0e:8b:1b:67:39:59:54:ee:12:98:61:28:
        07:f7:12:2c:fb:17:a1:03:fb:3a:d5:c3:57:a4:22:62:58:a3:
        01:4b:f3:9c:45:20:27:ef:20:cf:f1:a2:29:91:73:de:32:f9:
        db:49:5f:36
-----BEGIN CERTIFICATE-----
MIIDVzCCAj+gAwIBAgIRAP/40jzsLPBYKdABL/PUATswDQYJKoZIhvcNAQELBQAw
FDESMBAGA1UEAwwJdGVhbTItbmV0MB4XDTIzMTAzMTE2MzAxMFoXDTI2MTAxNTE2
MzAxMFowFzEVMBMGA1UEAwwMdGVhbTItY2xpZW50MIIBIjANBgkqhkiG9w0BAQEF
AAOCAQ8AMIIBCgKCAQEAi0RfK0J/6mbaBiHuazbEnBesddjfy2/lKTpEcoKaZ4lF
DDZighG/Jfl1EXrqNKM7ZuYeMr/ZAQvCDwl17D6Oh8djqL1RdHJV3OZr+YYZ0Eob
NpgDS4A9vJWThUUdVyiza9MVkWEnl7moFRTSoAvTPzpxSTmEOV147vk0t9LCghUH
8S2NfCdQK78sZS804d2A4tG9i4L3TEO8NIYXG8JVMYocCBh4MMvZn7mpgRakj/AN
+PjXdIwEzGRGSHmT5l3l6ve0pYt2db84+j0m0GEcrxN0lu4V81ZHWSD65orxaHAM
clwOhLrMNQOX6Gs45bVSMzNW5jpaXJHXIxN+vAH/FwIDAQABo4GgMIGdMAkGA1Ud
EwQCMAAwHQYDVR0OBBYEFN8fZ6ryywvMoAgVgMoDT20YK2hYME8GA1UdIwRIMEaA
FIBYXf41jMmJr6jdrYS25pIlPyLToRikFjAUMRIwEAYDVQQDDAl0ZWFtMi1uZXSC
FEJm+kt6rSXBs6LnykHBO3t5EtdAMBMGA1UdJQQMMAoGCCsGAQUFBwMCMAsGA1Ud
DwQEAwIHgDANBgkqhkiG9w0BAQsFAAOCAQEAYbmjR1XKrSxEzuralwcjGfp9TRl6
c2J2kZFfRCmY0tVqQxyt+lINf5TinoMYdAk0SMMS2T89QM7hCeAaKfW1Iu+/7Mam
1VwdySczCAV00yVzqqtFBR5ZnQTUDt3bDeBYmM+bWHwNhQK5DXUlCTUi+wgC02Jm
vKCjqX409e2QeK62EGEPEfkaeFF3LGXk6ul4mJxnI8fftGPDBXk6e8PWSrOI5VfT
+I1ymgamzQUZFO+804sTOi1Xw2Dp3u9Sydyvvg2nYiboxrV6HnH+DosbZzlZVO4S
mGEoB/cSLPsXoQP7OtXDV6QiYlijAUvznEUgJ+8gz/GiKZFz3jL520lfNg==
-----END CERTIFICATE-----
