Certificate:
    Data:
        Version: 3 (0x2)
        Serial Number:
            11:6d:28:84:83:0d:35:67:e5:7f:a2:b0:9b:a2:71:f5
        Signature Algorithm: sha256WithRSAEncryption
        Issuer: CN=team431-net
        Validity
            Not Before: Nov  4 10:48:23 2023 GMT
            Not After : Oct 19 10:48:23 2026 GMT
        Subject: CN=team431-client
        Subject Public Key Info:
            Public Key Algorithm: rsaEncryption
                Public-Key: (2048 bit)
                Modulus:
                    00:9f:fb:c7:e5:91:29:e3:c7:24:07:62:94:07:4f:
                    92:70:36:99:39:51:c8:b4:33:16:48:7a:4d:52:78:
                    4a:bd:fa:89:66:6c:df:7f:dd:b6:d0:e1:f6:89:4d:
                    f8:af:fd:af:8d:80:62:13:37:18:0e:77:26:0d:5a:
                    62:71:52:f1:32:90:3a:ab:30:ee:c2:16:76:02:aa:
                    59:95:12:2a:96:f8:13:3c:14:00:50:5f:3f:15:26:
                    ae:49:ad:d1:b9:7b:ba:ce:9e:51:38:b4:37:6c:16:
                    6a:b5:32:ab:62:c3:43:d2:80:1e:fd:cb:9a:f7:25:
                    df:41:b3:71:98:1c:e3:9c:e1:cd:b5:bb:b2:da:76:
                    db:1c:05:75:64:f4:53:b9:0b:97:43:f9:dc:47:b1:
                    b5:6d:97:68:14:19:11:51:4b:ea:74:ba:a7:8a:cd:
                    e5:fd:4c:55:c2:4a:ee:14:d7:82:bb:fc:91:59:a9:
                    27:95:7a:45:4a:59:9a:69:0b:cf:e1:77:bb:4d:c0:
                    f9:dd:4a:60:8f:98:d2:f5:69:aa:2f:e9:76:65:5e:
                    83:0e:72:d1:1b:9d:5b:3b:a8:af:bd:a5:69:48:44:
                    28:25:f5:a9:ed:47:97:c9:98:c4:d8:a5:ca:b3:ec:
                    bc:cb:82:7e:19:73:fd:47:f2:d7:58:67:67:2d:38:
                    00:6f
                Exponent: 65537 (0x10001)
        X509v3 extensions:
            X509v3 Basic Constraints: 
                CA:FALSE
            X509v3 Subject Key Identifier: 
                D3:10:41:0C:7D:F9:5C:20:73:53:1E:9D:F5:30:96:F9:DA:3C:99:C4
            X509v3 Authority Key Identifier: 
                keyid:E6:8B:C4:BB:D7:23:6F:DE:FB:02:EA:22:B8:BC:6F:9D:B6:56:2F:D7
                DirName:/CN=team431-net
                serial:04:99:66:B2:49:34:74:DA:00:56:F5:EB:74:45:62:F3:CA:CA:BD:71
            X509v3 Extended Key Usage: 
                TLS Web Client Authentication
            X509v3 Key Usage: 
                Digital Signature
    Signature Algorithm: sha256WithRSAEncryption
    Signature Value:
        00:3f:b8:f2:40:16:4e:0a:34:39:b5:ed:79:4b:32:ae:fe:5e:
        cb:9f:f4:70:31:6f:75:60:c8:2d:75:e4:40:12:bf:76:58:14:
        60:70:04:0b:15:38:90:45:2d:84:db:03:36:84:fa:3a:98:f3:
        b5:41:7b:44:32:b4:a6:21:b0:80:a6:eb:d8:8a:d0:1e:a1:14:
        15:d8:07:f7:78:2d:1b:38:ab:cf:8f:04:0b:03:8d:d0:35:f9:
        c4:fc:13:94:15:5d:1d:23:ad:28:82:0c:b3:c2:0e:76:12:ef:
        51:b5:4d:7f:aa:31:be:5b:1d:bc:2a:f9:eb:ca:b6:01:60:3e:
        f6:40:d3:7b:98:9f:31:ff:44:7d:b6:34:5b:c5:dd:3e:0c:f5:
        73:1f:5d:c5:1c:6a:89:6e:6c:df:6b:03:1c:35:2b:2b:3c:46:
        01:72:46:63:64:4f:55:3a:be:17:ec:9f:eb:ba:7d:f4:3e:f5:
        f2:ca:21:ed:c0:68:70:c2:21:44:e6:eb:28:0b:d0:f4:47:ab:
        27:c0:8e:6d:33:1e:47:f1:16:27:31:b6:12:db:91:be:52:5a:
        fa:b4:2e:13:37:9c:25:fc:1f:38:71:9a:f9:e4:46:3b:c7:ef:
        d6:58:e6:25:ea:90:4b:aa:0d:ed:dc:33:38:c8:c0:a2:20:a7:
        af:e9:e9:0c
-----BEGIN CERTIFICATE-----
MIIDXDCCAkSgAwIBAgIQEW0ohIMNNWflf6Kwm6Jx9TANBgkqhkiG9w0BAQsFADAW
MRQwEgYDVQQDDAt0ZWFtNDMxLW5ldDAeFw0yMzExMDQxMDQ4MjNaFw0yNjEwMTkx
MDQ4MjNaMBkxFzAVBgNVBAMMDnRlYW00MzEtY2xpZW50MIIBIjANBgkqhkiG9w0B
AQEFAAOCAQ8AMIIBCgKCAQEAn/vH5ZEp48ckB2KUB0+ScDaZOVHItDMWSHpNUnhK
vfqJZmzff9220OH2iU34r/2vjYBiEzcYDncmDVpicVLxMpA6qzDuwhZ2AqpZlRIq
lvgTPBQAUF8/FSauSa3RuXu6zp5ROLQ3bBZqtTKrYsND0oAe/cua9yXfQbNxmBzj
nOHNtbuy2nbbHAV1ZPRTuQuXQ/ncR7G1bZdoFBkRUUvqdLqnis3l/UxVwkruFNeC
u/yRWaknlXpFSlmaaQvP4Xe7TcD53Upgj5jS9WmqL+l2ZV6DDnLRG51bO6ivvaVp
SEQoJfWp7UeXyZjE2KXKs+y8y4J+GXP9R/LXWGdnLTgAbwIDAQABo4GiMIGfMAkG
A1UdEwQCMAAwHQYDVR0OBBYEFNMQQQx9+Vwgc1MenfUwlvnaPJnEMFEGA1UdIwRK
MEiAFOaLxLvXI2/e+wLqIri8b522Vi/XoRqkGDAWMRQwEgYDVQQDDAt0ZWFtNDMx
LW5ldIIUBJlmskk0dNoAVvXrdEVi88rKvXEwEwYDVR0lBAwwCgYIKwYBBQUHAwIw
CwYDVR0PBAQDAgeAMA0GCSqGSIb3DQEBCwUAA4IBAQAAP7jyQBZOCjQ5te15SzKu
/l7Ln/RwMW91YMgtdeRAEr92WBRgcAQLFTiQRS2E2wM2hPo6mPO1QXtEMrSmIbCA
puvYitAeoRQV2Af3eC0bOKvPjwQLA43QNfnE/BOUFV0dI60oggyzwg52Eu9RtU1/
qjG+Wx28KvnryrYBYD72QNN7mJ8x/0R9tjRbxd0+DPVzH13FHGqJbmzfawMcNSsr
PEYBckZjZE9VOr4X7J/run30PvXyyiHtwGhwwiFE5usoC9D0R6snwI5tMx5H8RYn
MbYS25G+Ulr6tC4TN5wl/B84cZr55EY7x+/WWOYl6pBLqg3t3DM4yMCiIKev6ekM
-----END CERTIFICATE-----
