Certificate:
    Data:
        Version: 3 (0x2)
        Serial Number:
            38:af:ab:56:7d:dc:0c:2f:58:85:2f:5b:e8:32:bb:ef
        Signature Algorithm: sha256WithRSAEncryption
        Issuer: CN=team431-net
        Validity
            Not Before: Nov  4 11:37:08 2023 GMT
            Not After : Oct 19 11:37:08 2026 GMT
        Subject: CN=team431-client
        Subject Public Key Info:
            Public Key Algorithm: rsaEncryption
                Public-Key: (2048 bit)
                Modulus:
                    00:98:0e:f6:e0:c1:c6:8a:47:6b:39:48:ab:b1:8d:
                    39:0b:b8:b1:03:df:93:3a:6d:48:48:c9:3a:95:97:
                    01:6b:85:3f:c3:a1:2d:d3:1b:23:1f:85:7f:00:6d:
                    fa:e4:77:b2:f3:4f:6c:11:6d:9a:d2:0e:75:ce:ba:
                    ff:3a:df:ab:d5:8e:f4:dd:26:47:f9:c9:95:28:dc:
                    05:2a:42:3e:b1:78:c4:aa:8d:73:9c:e5:37:6b:cf:
                    14:be:e8:68:d6:d5:c5:29:f0:44:7d:7f:c8:ed:ec:
                    a1:9a:55:cf:7e:c6:a5:7e:2b:6c:98:c0:05:8d:d8:
                    93:14:51:4b:da:b6:f2:f2:b1:41:d4:d2:a2:0d:78:
                    c2:47:87:63:08:06:d2:8b:16:9b:78:76:c5:c1:be:
                    87:2f:f0:a6:0b:71:6b:6f:46:dc:5f:93:f5:82:76:
                    8b:86:9d:9e:fb:fb:75:cf:44:8d:ac:53:29:b8:4f:
                    89:85:f7:a8:01:01:0e:30:45:f0:f1:fd:34:31:04:
                    25:40:8e:24:01:37:d6:1b:5d:8d:d7:80:ca:91:8d:
                    24:40:71:cb:6d:61:5a:e5:df:6f:3f:8f:8a:57:52:
                    87:bc:c2:bf:4e:12:80:7b:41:d0:2c:f3:94:b4:5f:
                    55:42:23:cd:3c:84:4a:d2:41:28:35:22:03:b2:b0:
                    d2:f3
                Exponent: 65537 (0x10001)
        X509v3 extensions:
            X509v3 Basic Constraints: 
                CA:FALSE
            X509v3 Subject Key Identifier: 
                1F:80:C9:5E:2B:B8:F7:58:05:8C:44:C3:C2:F5:87:E7:EC:40:62:22
            X509v3 Authority Key Identifier: 
                keyid:38:70:6F:A8:67:AB:55:1B:48:44:07:08:E0:18:DC:C2:0B:45:0F:8E
                DirName:/CN=team431-net
                serial:38:7E:90:E7:DE:AF:5A:F2:3F:5D:21:8D:DB:AE:88:AB:A1:78:A0:9F
            X509v3 Extended Key Usage: 
                TLS Web Client Authentication
            X509v3 Key Usage: 
                Digital Signature
    Signature Algorithm: sha256WithRSAEncryption
    Signature Value:
        a2:9b:11:b4:a5:ab:60:39:36:66:60:61:4e:ab:d3:42:27:f3:
        32:c0:a6:b8:c2:11:3e:09:69:3e:dd:ca:cc:f1:3e:7b:61:ec:
        67:d4:55:c0:4f:76:12:d5:c4:49:a9:38:88:96:69:2f:79:a4:
        35:1b:5d:a0:c7:b5:07:14:83:82:eb:94:03:aa:39:cd:69:b7:
        4d:2e:28:9e:88:af:7c:ed:e6:e8:d6:e3:a6:7d:10:9a:03:d3:
        c2:91:5d:42:d8:a1:f3:2a:9b:d2:8f:45:14:9e:93:cc:b5:15:
        14:ce:9f:8e:66:99:d2:cd:19:3a:ac:4c:7f:3e:2c:81:a6:05:
        6d:f1:bc:ba:d8:0e:02:a8:38:b5:c6:10:a5:07:06:2d:d5:eb:
        94:69:ca:75:02:07:49:5a:eb:09:2a:12:76:a4:69:d7:a9:f4:
        96:58:ab:a9:21:29:5b:80:a9:e3:5a:03:eb:65:b7:41:a4:e0:
        50:0e:b0:1c:0c:86:53:bc:f2:94:9c:9b:9d:b8:86:26:e0:ec:
        a7:44:c7:c1:0d:e9:84:11:49:97:fc:9d:0e:95:c0:1e:5f:1a:
        1d:eb:d5:5e:06:75:8e:b5:8c:45:48:2d:1d:c8:0b:3d:e4:02:
        69:99:99:59:84:d4:df:e4:2f:97:59:98:19:ce:df:c1:af:c1:
        f2:84:85:f4
-----BEGIN CERTIFICATE-----
MIIDXDCCAkSgAwIBAgIQOK+rVn3cDC9YhS9b6DK77zANBgkqhkiG9w0BAQsFADAW
MRQwEgYDVQQDDAt0ZWFtNDMxLW5ldDAeFw0yMzExMDQxMTM3MDhaFw0yNjEwMTkx
MTM3MDhaMBkxFzAVBgNVBAMMDnRlYW00MzEtY2xpZW50MIIBIjANBgkqhkiG9w0B
AQEFAAOCAQ8AMIIBCgKCAQEAmA724MHGikdrOUirsY05C7ixA9+TOm1ISMk6lZcB
a4U/w6Et0xsjH4V/AG365Hey809sEW2a0g51zrr/Ot+r1Y703SZH+cmVKNwFKkI+
sXjEqo1znOU3a88Uvuho1tXFKfBEfX/I7eyhmlXPfsalfitsmMAFjdiTFFFL2rby
8rFB1NKiDXjCR4djCAbSixabeHbFwb6HL/CmC3Frb0bcX5P1gnaLhp2e+/t1z0SN
rFMpuE+JhfeoAQEOMEXw8f00MQQlQI4kATfWG12N14DKkY0kQHHLbWFa5d9vP4+K
V1KHvMK/ThKAe0HQLPOUtF9VQiPNPIRK0kEoNSIDsrDS8wIDAQABo4GiMIGfMAkG
A1UdEwQCMAAwHQYDVR0OBBYEFB+AyV4ruPdYBYxEw8L1h+fsQGIiMFEGA1UdIwRK
MEiAFDhwb6hnq1UbSEQHCOAY3MILRQ+OoRqkGDAWMRQwEgYDVQQDDAt0ZWFtNDMx
LW5ldIIUOH6Q596vWvI/XSGN266Iq6F4oJ8wEwYDVR0lBAwwCgYIKwYBBQUHAwIw
CwYDVR0PBAQDAgeAMA0GCSqGSIb3DQEBCwUAA4IBAQCimxG0patgOTZmYGFOq9NC
J/MywKa4whE+CWk+3crM8T57Yexn1FXAT3YS1cRJqTiIlmkveaQ1G12gx7UHFIOC
65QDqjnNabdNLiieiK987ebo1uOmfRCaA9PCkV1C2KHzKpvSj0UUnpPMtRUUzp+O
ZpnSzRk6rEx/PiyBpgVt8by62A4CqDi1xhClBwYt1euUacp1AgdJWusJKhJ2pGnX
qfSWWKupISlbgKnjWgPrZbdBpOBQDrAcDIZTvPKUnJuduIYm4OynRMfBDemEEUmX
/J0OlcAeXxod69VeBnWOtYxFSC0dyAs95AJpmZlZhNTf5C+XWZgZzt/Br8HyhIX0
-----END CERTIFICATE-----
