Certificate:
    Data:
        Version: 3 (0x2)
        Serial Number:
            7f:f1:9d:7b:32:5b:8b:45:45:54:eb:b5:82:5f:b0:34
        Signature Algorithm: sha256WithRSAEncryption
        Issuer: CN=team431-net
        Validity
            Not Before: Nov  3 20:47:04 2023 GMT
            Not After : Oct 18 20:47:04 2026 GMT
        Subject: CN=team431-server
        Subject Public Key Info:
            Public Key Algorithm: rsaEncryption
                Public-Key: (2048 bit)
                Modulus:
                    00:a3:f5:97:76:59:44:91:b9:33:80:a5:76:b6:5f:
                    fe:4a:bf:f9:e2:7c:82:e2:77:5f:a1:eb:c8:8e:25:
                    2d:03:45:5a:5e:c7:d4:52:79:64:ad:12:38:17:b0:
                    75:79:43:32:96:c7:79:1e:93:71:1c:70:ea:d1:42:
                    27:99:90:ea:88:db:8d:58:b5:75:22:05:1e:7f:ae:
                    8f:ef:37:2c:ae:0d:b2:fe:cb:60:51:81:c4:b6:68:
                    61:c2:82:a7:fe:b4:02:15:c8:17:c8:db:87:1a:fa:
                    f3:c0:f7:89:9f:c3:e4:bd:4f:09:4c:b3:18:67:42:
                    3d:66:fc:d5:8f:6e:0f:1a:6a:16:67:0c:fe:8a:4c:
                    58:4a:1d:35:93:c7:16:42:15:05:f1:99:79:ca:eb:
                    8c:da:44:da:d0:8e:b8:e4:8e:98:75:e6:bf:37:78:
                    7d:41:0d:1a:23:7b:4b:22:c0:c2:07:b5:68:a7:f8:
                    1b:d3:ae:94:4a:b9:35:28:ee:c9:67:da:67:81:ef:
                    d9:72:0f:91:7d:06:d6:eb:12:c6:4a:15:43:ed:92:
                    34:51:49:97:ce:76:b5:1f:71:6f:91:01:66:78:55:
                    41:06:29:5e:48:76:ef:46:34:2b:15:82:b8:a4:32:
                    9e:10:88:02:c9:4f:30:47:fb:90:e6:40:84:2e:90:
                    bf:bf
                Exponent: 65537 (0x10001)
        X509v3 extensions:
            X509v3 Basic Constraints: 
                CA:FALSE
            X509v3 Subject Key Identifier: 
                DD:CC:56:FC:3F:E9:6E:8B:F7:72:B1:AB:86:9E:90:85:E6:F1:35:93
            X509v3 Authority Key Identifier: 
                keyid:C6:40:23:AE:74:E9:54:61:88:8F:C0:43:9D:76:31:AD:D5:73:CE:81
                DirName:/CN=team431-net
                serial:38:A7:C1:9A:24:EF:CC:3F:CC:6C:43:15:76:B2:72:D6:47:28:24:F9
            X509v3 Extended Key Usage: 
                TLS Web Server Authentication
            X509v3 Key Usage: 
                Digital Signature, Key Encipherment
            X509v3 Subject Alternative Name: 
                DNS:team431-server
    Signature Algorithm: sha256WithRSAEncryption
    Signature Value:
        9e:91:52:ea:66:58:a1:e3:b7:ed:b9:6b:0c:40:cc:7f:e1:f0:
        54:a8:08:3f:88:9b:97:5a:40:b0:ef:01:3e:00:3d:a8:fb:c2:
        7c:48:dd:37:ff:49:ad:63:57:89:e3:56:0d:19:26:de:56:29:
        2d:91:5d:6b:c6:4a:f1:1a:6d:d8:ad:38:76:1f:30:9c:b8:b5:
        a1:26:e5:27:80:27:58:68:df:97:0f:1a:09:fc:57:50:bb:76:
        ec:91:d6:e6:94:73:fa:67:00:11:9c:f0:1f:a8:b1:38:ef:f3:
        20:d8:a2:c3:b4:12:42:16:9f:d3:0b:ab:f5:92:13:56:38:ef:
        5a:32:b4:55:57:27:91:a0:27:1d:b4:07:93:be:a5:0d:23:bd:
        e7:78:46:b7:09:39:25:32:cd:d7:a6:f8:0e:e6:1c:d1:77:11:
        bd:45:b0:e9:2e:06:d1:c2:ad:b2:06:5c:7a:d1:bc:a9:86:d5:
        58:3f:4c:e1:81:03:01:13:79:a1:19:73:26:18:22:72:7c:12:
        70:ea:40:7f:ff:80:f1:a1:6d:c9:b1:9e:a7:9c:6d:5a:00:36:
        f9:de:89:5a:e1:ce:bb:c3:d4:13:9b:eb:34:68:76:21:95:d0:
        c3:a6:4b:29:ac:bb:53:44:ef:a6:51:b1:30:7f:5a:e8:fb:96:
        26:b1:22:cb
-----BEGIN CERTIFICATE-----
MIIDdzCCAl+gAwIBAgIQf/GdezJbi0VFVOu1gl+wNDANBgkqhkiG9w0BAQsFADAW
MRQwEgYDVQQDDAt0ZWFtNDMxLW5ldDAeFw0yMzExMDMyMDQ3MDRaFw0yNjEwMTgy
MDQ3MDRaMBkxFzAVBgNVBAMMDnRlYW00MzEtc2VydmVyMIIBIjANBgkqhkiG9w0B
AQEFAAOCAQ8AMIIBCgKCAQEAo/WXdllEkbkzgKV2tl/+Sr/54nyC4ndfoevIjiUt
A0VaXsfUUnlkrRI4F7B1eUMylsd5HpNxHHDq0UInmZDqiNuNWLV1IgUef66P7zcs
rg2y/stgUYHEtmhhwoKn/rQCFcgXyNuHGvrzwPeJn8PkvU8JTLMYZ0I9ZvzVj24P
GmoWZwz+ikxYSh01k8cWQhUF8Zl5yuuM2kTa0I645I6Ydea/N3h9QQ0aI3tLIsDC
B7Vop/gb066USrk1KO7JZ9pnge/Zcg+RfQbW6xLGShVD7ZI0UUmXzna1H3FvkQFm
eFVBBileSHbvRjQrFYK4pDKeEIgCyU8wR/uQ5kCELpC/vwIDAQABo4G9MIG6MAkG
A1UdEwQCMAAwHQYDVR0OBBYEFN3MVvw/6W6L93Kxq4aekIXm8TWTMFEGA1UdIwRK
MEiAFMZAI6506VRhiI/AQ512Ma3Vc86BoRqkGDAWMRQwEgYDVQQDDAt0ZWFtNDMx
LW5ldIIUOKfBmiTvzD/MbEMVdrJy1kcoJPkwEwYDVR0lBAwwCgYIKwYBBQUHAwEw
CwYDVR0PBAQDAgWgMBkGA1UdEQQSMBCCDnRlYW00MzEtc2VydmVyMA0GCSqGSIb3
DQEBCwUAA4IBAQCekVLqZlih47ftuWsMQMx/4fBUqAg/iJuXWkCw7wE+AD2o+8J8
SN03/0mtY1eJ41YNGSbeViktkV1rxkrxGm3YrTh2HzCcuLWhJuUngCdYaN+XDxoJ
/FdQu3bskdbmlHP6ZwARnPAfqLE47/Mg2KLDtBJCFp/TC6v1khNWOO9aMrRVVyeR
oCcdtAeTvqUNI73neEa3CTklMs3XpvgO5hzRdxG9RbDpLgbRwq2yBlx60byphtVY
P0zhgQMBE3mhGXMmGCJyfBJw6kB//4DxoW3JsZ6nnG1aADb53ola4c67w9QTm+s0
aHYhldDDpksprLtTRO+mUbEwf1ro+5YmsSLL
-----END CERTIFICATE-----
