Certificate:
    Data:
        Version: 3 (0x2)
        Serial Number:
            94:71:09:9b:20:61:c1:eb:be:d0:5e:3d:53:73:58:7c
        Signature Algorithm: sha256WithRSAEncryption
        Issuer: CN=team431-net
        Validity
            Not Before: Nov  4 11:37:08 2023 GMT
            Not After : Oct 19 11:37:08 2026 GMT
        Subject: CN=team431-server
        Subject Public Key Info:
            Public Key Algorithm: rsaEncryption
                Public-Key: (2048 bit)
                Modulus:
                    00:df:ed:47:fa:6f:21:db:3f:7f:50:3f:77:38:20:
                    36:1f:93:6e:8c:f9:e4:a3:a3:fc:f3:ce:20:9c:e5:
                    33:74:e4:54:cd:42:6a:0f:6f:e0:42:35:5d:bd:f9:
                    2d:26:97:74:79:07:95:7d:51:08:03:f4:ac:62:5f:
                    69:f4:5a:8c:9e:23:d3:07:d6:3a:7d:f9:fc:b9:5d:
                    04:6f:00:37:1e:a2:29:a8:41:34:70:89:d1:84:49:
                    0f:4d:fe:5b:c0:c9:54:57:b9:40:5f:d4:a4:1c:a0:
                    32:dd:d4:6a:40:3b:ab:1e:14:91:b7:3f:26:e4:4a:
                    d1:43:7a:6c:b3:6b:90:03:10:b5:9d:1f:88:a6:68:
                    57:8f:a8:6a:51:c3:00:79:40:53:ee:05:04:34:5c:
                    e0:61:ea:14:4a:5a:6d:03:85:b5:24:76:39:89:32:
                    6b:84:c7:49:ec:62:01:c4:eb:4a:5c:c2:28:22:83:
                    7b:bb:35:ec:ff:a2:44:99:57:7e:0e:26:5f:93:24:
                    2f:46:41:69:b8:a9:40:ca:6f:6b:2b:b1:79:6e:69:
                    8b:f8:e1:f3:41:fd:b1:81:41:41:3a:bc:58:b2:c4:
                    d3:2c:90:67:a9:84:92:db:81:0d:c2:e6:52:08:99:
                    7a:e4:2d:2a:c3:2d:55:6a:9f:19:a1:da:99:6b:15:
                    35:d7
                Exponent: 65537 (0x10001)
        X509v3 extensions:
            X509v3 Basic Constraints: 
                CA:FALSE
            X509v3 Subject Key Identifier: 
                FE:8D:88:83:C4:97:0A:38:46:07:BD:99:BE:B3:CF:28:52:3F:86:26
            X509v3 Authority Key Identifier: 
                keyid:38:70:6F:A8:67:AB:55:1B:48:44:07:08:E0:18:DC:C2:0B:45:0F:8E
                DirName:/CN=team431-net
                serial:38:7E:90:E7:DE:AF:5A:F2:3F:5D:21:8D:DB:AE:88:AB:A1:78:A0:9F
            X509v3 Extended Key Usage: 
                TLS Web Server Authentication
            X509v3 Key Usage: 
                Digital Signature, Key Encipherment
            X509v3 Subject Alternative Name: 
                DNS:team431-server
    Signature Algorithm: sha256WithRSAEncryption
    Signature Value:
        63:30:7f:4c:f0:ac:a9:81:25:b2:eb:35:0a:6e:d0:5c:17:01:
        62:77:36:d0:72:f2:9d:00:94:a1:53:f0:e9:d7:ef:e0:71:39:
        09:7b:c4:76:91:87:a5:8d:2c:69:88:2a:0d:77:a0:2f:cc:23:
        6e:a2:78:06:88:7c:64:26:ca:ae:27:5c:45:7d:8d:0e:74:63:
        a9:84:06:ae:99:23:5a:95:13:cd:f8:a1:ce:49:d9:dd:6b:44:
        6a:bc:e5:e7:ae:4d:25:93:a0:aa:c0:4a:9f:a7:9f:a8:a5:c3:
        d8:68:9d:46:d4:57:45:d8:5f:83:8f:48:4c:44:f0:8d:16:59:
        c9:01:dc:66:d3:f6:d1:7a:a3:4b:46:bb:bc:51:10:96:5f:28:
        c4:c4:92:4b:c5:42:96:00:7f:18:56:b8:6e:ca:93:99:df:6e:
        7b:65:28:3a:f4:4e:3f:98:e1:c2:77:6c:ac:9a:6b:7f:ea:fb:
        8f:2b:8c:72:a9:46:bd:e7:d9:0a:ad:d9:9c:ad:11:8f:6c:89:
        59:4a:87:bc:c5:60:06:b9:f8:e8:f6:e3:00:30:dc:30:12:85:
        1c:e5:3b:f6:9c:a8:e0:71:00:c2:ec:0e:9d:ca:ab:e7:66:d6:
        b8:00:01:61:e4:e9:d9:57:95:fa:45:d5:b7:6a:e7:61:bf:ba:
        10:d5:19:30
-----BEGIN CERTIFICATE-----
MIIDeDCCAmCgAwIBAgIRAJRxCZsgYcHrvtBePVNzWHwwDQYJKoZIhvcNAQELBQAw
FjEUMBIGA1UEAwwLdGVhbTQzMS1uZXQwHhcNMjMxMTA0MTEzNzA4WhcNMjYxMDE5
MTEzNzA4WjAZMRcwFQYDVQQDDA50ZWFtNDMxLXNlcnZlcjCCASIwDQYJKoZIhvcN
AQEBBQADggEPADCCAQoCggEBAN/tR/pvIds/f1A/dzggNh+Tboz55KOj/PPOIJzl
M3TkVM1Cag9v4EI1Xb35LSaXdHkHlX1RCAP0rGJfafRajJ4j0wfWOn35/LldBG8A
Nx6iKahBNHCJ0YRJD03+W8DJVFe5QF/UpBygMt3UakA7qx4Ukbc/JuRK0UN6bLNr
kAMQtZ0fiKZoV4+oalHDAHlAU+4FBDRc4GHqFEpabQOFtSR2OYkya4THSexiAcTr
SlzCKCKDe7s17P+iRJlXfg4mX5MkL0ZBabipQMpvayuxeW5pi/jh80H9sYFBQTq8
WLLE0yyQZ6mEktuBDcLmUgiZeuQtKsMtVWqfGaHamWsVNdcCAwEAAaOBvTCBujAJ
BgNVHRMEAjAAMB0GA1UdDgQWBBT+jYiDxJcKOEYHvZm+s88oUj+GJjBRBgNVHSME
SjBIgBQ4cG+oZ6tVG0hEBwjgGNzCC0UPjqEapBgwFjEUMBIGA1UEAwwLdGVhbTQz
MS1uZXSCFDh+kOfer1ryP10hjduuiKuheKCfMBMGA1UdJQQMMAoGCCsGAQUFBwMB
MAsGA1UdDwQEAwIFoDAZBgNVHREEEjAQgg50ZWFtNDMxLXNlcnZlcjANBgkqhkiG
9w0BAQsFAAOCAQEAYzB/TPCsqYElsus1Cm7QXBcBYnc20HLynQCUoVPw6dfv4HE5
CXvEdpGHpY0saYgqDXegL8wjbqJ4Boh8ZCbKridcRX2NDnRjqYQGrpkjWpUTzfih
zknZ3WtEarzl565NJZOgqsBKn6efqKXD2GidRtRXRdhfg49ITETwjRZZyQHcZtP2
0XqjS0a7vFEQll8oxMSSS8VClgB/GFa4bsqTmd9ue2UoOvROP5jhwndsrJprf+r7
jyuMcqlGvefZCq3ZnK0Rj2yJWUqHvMVgBrn46PbjADDcMBKFHOU79pyo4HEAwuwO
ncqr52bWuAABYeTp2VeV+kXVt2rnYb+6ENUZMA==
-----END CERTIFICATE-----
