Certificate:
    Data:
        Version: 3 (0x2)
        Serial Number:
            c3:5c:06:5d:31:b1:d0:10:f1:c3:56:51:ea:b6:22:e7
        Signature Algorithm: sha256WithRSAEncryption
        Issuer: CN=team431-net
        Validity
            Not Before: Nov  4 10:48:23 2023 GMT
            Not After : Oct 19 10:48:23 2026 GMT
        Subject: CN=team431-server
        Subject Public Key Info:
            Public Key Algorithm: rsaEncryption
                Public-Key: (2048 bit)
                Modulus:
                    00:df:57:b5:87:f1:8d:27:12:86:97:07:23:c9:0e:
                    55:77:0a:05:f8:e2:38:82:d0:53:9b:92:10:03:12:
                    8e:41:9f:8a:ea:43:f8:d4:e7:19:ba:db:e5:68:88:
                    05:29:49:13:0b:0a:60:4e:cf:81:74:17:84:5d:c2:
                    38:fc:8e:1e:d6:30:19:4c:9d:0e:55:15:aa:c0:ee:
                    9d:92:ed:3d:1c:be:a4:b6:d7:81:a3:51:7b:a6:0d:
                    9d:fe:92:00:bf:28:b7:d2:5e:ba:b6:51:fd:a0:56:
                    4a:87:27:4c:92:c1:e5:f4:e2:cc:77:65:4d:33:c5:
                    30:9b:b9:e9:a3:eb:5d:eb:7f:e3:bf:4a:e6:a4:b1:
                    1d:41:fb:ce:88:fa:7b:bb:1d:2f:7c:7c:cb:82:6c:
                    2e:1f:09:04:03:26:45:bd:8b:bd:4c:dc:a4:01:d2:
                    dd:cd:df:d5:22:62:2d:a9:a4:e2:f1:71:2e:ce:a3:
                    42:38:12:6d:51:d0:67:af:95:4b:8c:83:eb:70:bf:
                    42:66:ba:29:ec:a5:cf:97:9e:f5:9d:f5:e2:3a:ce:
                    06:b5:d4:28:75:69:1a:aa:c4:ce:af:8e:d5:76:2f:
                    0d:93:71:8c:5a:6b:eb:68:57:47:da:b0:47:f9:65:
                    9e:5b:3c:c8:54:b2:6c:7d:85:77:38:ac:53:de:98:
                    95:cb
                Exponent: 65537 (0x10001)
        X509v3 extensions:
            X509v3 Basic Constraints: 
                CA:FALSE
            X509v3 Subject Key Identifier: 
                20:44:51:27:68:D5:54:96:00:70:D9:D3:DF:4C:8A:B9:AA:92:53:0E
            X509v3 Authority Key Identifier: 
                keyid:E6:8B:C4:BB:D7:23:6F:DE:FB:02:EA:22:B8:BC:6F:9D:B6:56:2F:D7
                DirName:/CN=team431-net
                serial:04:99:66:B2:49:34:74:DA:00:56:F5:EB:74:45:62:F3:CA:CA:BD:71
            X509v3 Extended Key Usage: 
                TLS Web Server Authentication
            X509v3 Key Usage: 
                Digital Signature, Key Encipherment
            X509v3 Subject Alternative Name: 
                DNS:team431-server
    Signature Algorithm: sha256WithRSAEncryption
    Signature Value:
        ca:be:b2:15:97:c6:35:79:08:8b:5d:dc:34:16:13:05:77:62:
        99:f1:f7:6a:7b:e6:26:db:df:e8:27:aa:4d:a2:82:25:f7:62:
        80:84:90:85:b4:9b:be:90:ce:98:3c:a7:73:e0:2b:f2:db:77:
        ce:d3:0b:08:87:d7:50:14:ec:e0:5d:ca:21:8f:a6:a4:a4:43:
        10:ac:c2:02:a1:b8:0a:45:4d:8e:7a:98:2b:07:f8:55:f2:83:
        3b:a0:73:cf:0c:84:fc:92:c5:ae:4a:86:93:0e:9b:27:f1:bb:
        17:ea:e9:19:6e:8d:5b:de:8e:15:70:f5:00:e5:91:4e:98:2f:
        0b:63:cc:30:f3:83:2c:bb:fc:90:66:e0:c2:2a:57:c8:fd:0f:
        d3:cd:59:b0:8d:f9:75:2e:97:88:38:43:15:3d:7d:86:52:de:
        7a:29:24:d2:71:fb:ca:ff:2d:ad:9b:c5:90:d5:e6:ec:e1:72:
        c0:73:65:96:8a:aa:81:72:88:80:75:37:ae:86:b9:3d:9b:db:
        f0:df:a6:93:6e:20:07:a1:bb:3d:cd:51:6a:c2:fd:1f:14:86:
        0a:ed:d9:d0:78:96:72:97:94:31:cf:83:8f:8f:ed:9b:43:2b:
        a7:9b:55:3e:87:0d:68:05:0a:1f:b5:dd:30:3c:53:b4:b2:86:
        8a:7f:a7:c2
-----BEGIN CERTIFICATE-----
MIIDeDCCAmCgAwIBAgIRAMNcBl0xsdAQ8cNWUeq2IucwDQYJKoZIhvcNAQELBQAw
FjEUMBIGA1UEAwwLdGVhbTQzMS1uZXQwHhcNMjMxMTA0MTA0ODIzWhcNMjYxMDE5
MTA0ODIzWjAZMRcwFQYDVQQDDA50ZWFtNDMxLXNlcnZlcjCCASIwDQYJKoZIhvcN
AQEBBQADggEPADCCAQoCggEBAN9XtYfxjScShpcHI8kOVXcKBfjiOILQU5uSEAMS
jkGfiupD+NTnGbrb5WiIBSlJEwsKYE7PgXQXhF3COPyOHtYwGUydDlUVqsDunZLt
PRy+pLbXgaNRe6YNnf6SAL8ot9JeurZR/aBWSocnTJLB5fTizHdlTTPFMJu56aPr
Xet/479K5qSxHUH7zoj6e7sdL3x8y4JsLh8JBAMmRb2LvUzcpAHS3c3f1SJiLamk
4vFxLs6jQjgSbVHQZ6+VS4yD63C/Qma6Keylz5ee9Z314jrOBrXUKHVpGqrEzq+O
1XYvDZNxjFpr62hXR9qwR/llnls8yFSybH2FdzisU96YlcsCAwEAAaOBvTCBujAJ
BgNVHRMEAjAAMB0GA1UdDgQWBBQgRFEnaNVUlgBw2dPfTIq5qpJTDjBRBgNVHSME
SjBIgBTmi8S71yNv3vsC6iK4vG+dtlYv16EapBgwFjEUMBIGA1UEAwwLdGVhbTQz
MS1uZXSCFASZZrJJNHTaAFb163RFYvPKyr1xMBMGA1UdJQQMMAoGCCsGAQUFBwMB
MAsGA1UdDwQEAwIFoDAZBgNVHREEEjAQgg50ZWFtNDMxLXNlcnZlcjANBgkqhkiG
9w0BAQsFAAOCAQEAyr6yFZfGNXkIi13cNBYTBXdimfH3anvmJtvf6CeqTaKCJfdi
gISQhbSbvpDOmDync+Ar8tt3ztMLCIfXUBTs4F3KIY+mpKRDEKzCAqG4CkVNjnqY
Kwf4VfKDO6BzzwyE/JLFrkqGkw6bJ/G7F+rpGW6NW96OFXD1AOWRTpgvC2PMMPOD
LLv8kGbgwipXyP0P081ZsI35dS6XiDhDFT19hlLeeikk0nH7yv8trZvFkNXm7OFy
wHNlloqqgXKIgHU3roa5PZvb8N+mk24gB6G7Pc1RasL9HxSGCu3Z0HiWcpeUMc+D
j4/tm0Mrp5tVPocNaAUKH7XdMDxTtLKGin+nwg==
-----END CERTIFICATE-----
