Certificate:
    Data:
        Version: 3 (0x2)
        Serial Number:
            6d:0d:33:a3:98:f3:cf:14:df:9b:f5:2b:03:8c:58:da
        Signature Algorithm: sha256WithRSAEncryption
        Issuer: CN=team182-net
        Validity
            Not Before: Nov  4 10:43:55 2023 GMT
            Not After : Oct 19 10:43:55 2026 GMT
        Subject: CN=team182-client
        Subject Public Key Info:
            Public Key Algorithm: rsaEncryption
                Public-Key: (2048 bit)
                Modulus:
                    00:a0:8f:f8:87:49:2f:bb:b4:c1:4a:f2:a6:08:cd:
                    2c:8a:fb:fe:36:cb:9b:97:cf:25:a0:19:78:ea:e3:
                    fa:bf:4e:cd:32:e4:ef:41:c6:c1:a9:72:a0:3b:b9:
                    f2:13:d2:08:46:22:2c:3c:8d:f8:01:47:05:33:e4:
                    5b:1a:e4:18:e8:c0:c8:5f:2b:1a:2e:81:a0:9e:f6:
                    2b:f9:5e:d6:05:f2:34:19:35:50:3a:59:41:b1:13:
                    4d:4b:6e:01:38:39:df:92:9c:d3:21:4c:41:03:a6:
                    71:9b:43:a2:30:9c:a6:b7:76:2b:e3:f8:af:ee:bb:
                    cd:95:67:7b:56:33:86:f2:77:2c:cd:bb:c3:f0:27:
                    5c:78:44:93:96:0a:00:b6:de:a4:52:73:af:c4:d8:
                    97:f9:39:56:26:e9:2a:96:0f:50:77:be:71:d8:4d:
                    d0:be:6e:3e:a1:4f:49:d3:5e:05:22:63:12:69:d6:
                    21:ab:dc:f6:1d:04:b3:3d:4e:e8:eb:96:fa:64:6b:
                    d8:91:86:f9:08:c3:de:dc:f6:07:da:ee:cc:50:23:
                    27:f5:36:d2:d4:62:7b:25:d7:63:05:d3:5d:9b:3e:
                    37:50:de:51:33:c5:a8:ec:4c:4f:9c:96:aa:fb:01:
                    0a:49:e4:a4:a8:24:01:61:7b:ce:0d:e0:03:e7:51:
                    8a:29
                Exponent: 65537 (0x10001)
        X509v3 extensions:
            X509v3 Basic Constraints: 
                CA:FALSE
            X509v3 Subject Key Identifier: 
                A0:B9:BC:9A:14:63:71:58:FF:91:92:FA:3F:78:F9:61:1F:EC:F3:77
            X509v3 Authority Key Identifier: 
                keyid:D7:8B:CE:F7:61:82:A0:5E:5E:F6:A7:BC:87:7B:54:EA:ED:1B:44:44
                DirName:/CN=team182-net
                serial:73:6D:3C:FC:EA:07:DB:55:6B:06:DE:FC:44:30:BA:29:D5:F0:B1:73
            X509v3 Extended Key Usage: 
                TLS Web Client Authentication
            X509v3 Key Usage: 
                Digital Signature
    Signature Algorithm: sha256WithRSAEncryption
    Signature Value:
        73:a5:1d:f7:f1:75:f3:7c:39:f6:a6:50:69:a7:a6:c0:88:c6:
        ce:a0:10:61:28:28:39:d7:49:7a:8e:18:20:05:eb:13:77:37:
        8e:a7:be:75:f7:d8:e7:dc:a4:38:41:cd:d6:45:fd:c3:a0:3c:
        6f:c6:f5:98:a1:f8:47:94:17:dd:ca:aa:2c:cd:53:1c:17:67:
        35:3c:85:36:9a:e6:0b:47:bf:f7:0f:d5:c1:22:3e:8e:ef:54:
        bd:c0:ee:68:2b:5e:2c:d0:41:f6:30:3d:6a:af:87:02:09:00:
        25:31:95:75:ca:7f:6d:d3:3f:f0:05:35:c1:57:db:92:47:c0:
        ee:e8:4d:a2:56:63:6f:84:16:d5:52:12:2f:2f:46:ae:30:cd:
        4c:31:27:1b:41:44:e7:5d:8c:ea:91:9f:11:02:e5:c4:b3:35:
        cc:fa:29:79:66:05:8f:90:9b:36:d3:f8:9b:ff:4a:78:bf:a5:
        f2:b0:ef:34:46:c2:ab:86:89:8d:c8:cf:47:ea:4d:d1:a6:c7:
        9c:f4:f3:66:6a:2f:ce:cb:d7:ac:5c:81:7b:91:bd:82:73:07:
        b4:84:1b:78:68:03:16:88:ba:1e:8c:6d:8d:63:9f:61:fa:ac:
        8b:71:7d:8f:6f:68:1f:c0:12:53:dc:91:27:79:f8:b7:87:cc:
        24:e3:58:5f
-----BEGIN CERTIFICATE-----
MIIDXDCCAkSgAwIBAgIQbQ0zo5jzzxTfm/UrA4xY2jANBgkqhkiG9w0BAQsFADAW
MRQwEgYDVQQDDAt0ZWFtMTgyLW5ldDAeFw0yMzExMDQxMDQzNTVaFw0yNjEwMTkx
MDQzNTVaMBkxFzAVBgNVBAMMDnRlYW0xODItY2xpZW50MIIBIjANBgkqhkiG9w0B
AQEFAAOCAQ8AMIIBCgKCAQEAoI/4h0kvu7TBSvKmCM0sivv+Nsubl88loBl46uP6
v07NMuTvQcbBqXKgO7nyE9IIRiIsPI34AUcFM+RbGuQY6MDIXysaLoGgnvYr+V7W
BfI0GTVQOllBsRNNS24BODnfkpzTIUxBA6Zxm0OiMJymt3Yr4/iv7rvNlWd7VjOG
8ncszbvD8CdceESTlgoAtt6kUnOvxNiX+TlWJukqlg9Qd75x2E3Qvm4+oU9J014F
ImMSadYhq9z2HQSzPU7o65b6ZGvYkYb5CMPe3PYH2u7MUCMn9TbS1GJ7JddjBdNd
mz43UN5RM8Wo7ExPnJaq+wEKSeSkqCQBYXvODeAD51GKKQIDAQABo4GiMIGfMAkG
A1UdEwQCMAAwHQYDVR0OBBYEFKC5vJoUY3FY/5GS+j94+WEf7PN3MFEGA1UdIwRK
MEiAFNeLzvdhgqBeXvanvId7VOrtG0REoRqkGDAWMRQwEgYDVQQDDAt0ZWFtMTgy
LW5ldIIUc208/OoH21VrBt78RDC6KdXwsXMwEwYDVR0lBAwwCgYIKwYBBQUHAwIw
CwYDVR0PBAQDAgeAMA0GCSqGSIb3DQEBCwUAA4IBAQBzpR338XXzfDn2plBpp6bA
iMbOoBBhKCg510l6jhggBesTdzeOp75199jn3KQ4Qc3WRf3DoDxvxvWYofhHlBfd
yqoszVMcF2c1PIU2muYLR7/3D9XBIj6O71S9wO5oK14s0EH2MD1qr4cCCQAlMZV1
yn9t0z/wBTXBV9uSR8Du6E2iVmNvhBbVUhIvL0auMM1MMScbQUTnXYzqkZ8RAuXE
szXM+il5ZgWPkJs20/ib/0p4v6XysO80RsKrhomNyM9H6k3Rpsec9PNmai/Oy9es
XIF7kb2Ccwe0hBt4aAMWiLoejG2NY59h+qyLcX2Pb2gfwBJT3JEnefi3h8wk41hf
-----END CERTIFICATE-----
