Certificate:
    Data:
        Version: 3 (0x2)
        Serial Number:
            9a:b9:d6:a6:38:54:f3:bf:35:34:bc:14:10:1a:08:57
        Signature Algorithm: sha256WithRSAEncryption
        Issuer: CN=team182-net
        Validity
            Not Before: Nov  4 11:31:14 2023 GMT
            Not After : Oct 19 11:31:14 2026 GMT
        Subject: CN=team182-server
        Subject Public Key Info:
            Public Key Algorithm: rsaEncryption
                Public-Key: (2048 bit)
                Modulus:
                    00:ba:05:96:26:13:8d:75:81:e9:b5:4b:ad:69:d4:
                    8c:51:8c:dc:28:b1:e8:3c:0a:f8:80:35:9b:f3:42:
                    80:47:78:8e:28:c7:95:18:e5:ed:07:1e:36:27:f8:
                    6c:cd:83:93:5c:5c:f8:be:1f:5e:9a:49:25:19:ed:
                    0a:c2:08:26:1b:51:b8:00:1f:d8:61:93:4f:2f:55:
                    89:cf:18:79:2a:f5:f3:34:39:92:e4:64:56:19:6f:
                    95:34:34:ff:5b:45:a5:c6:17:57:c0:d5:15:a4:d1:
                    d8:b9:fc:3b:1c:be:dc:08:f9:43:79:48:c8:99:66:
                    8a:0f:63:05:71:6a:f6:ba:06:5a:f1:0c:6a:49:de:
                    35:16:6f:d2:31:8b:cc:26:71:db:42:c5:54:8c:5c:
                    2c:49:17:9a:06:b2:8f:9e:df:2a:48:17:75:85:22:
                    98:82:84:c1:32:5e:97:4e:0f:39:0b:da:02:ea:46:
                    79:fa:d2:87:ed:2d:07:9a:ef:ac:75:cb:a4:d8:82:
                    76:44:4e:46:ce:ce:bf:a0:e0:a5:03:45:4b:82:0d:
                    cf:3b:87:a8:c4:cb:da:b7:d9:7b:11:11:1b:2c:29:
                    3f:85:c4:7a:8c:35:af:79:1a:43:29:3b:da:70:79:
                    3f:54:ca:c7:02:63:b7:28:5c:d1:a2:d4:8c:ca:d6:
                    45:19
                Exponent: 65537 (0x10001)
        X509v3 extensions:
            X509v3 Basic Constraints: 
                CA:FALSE
            X509v3 Subject Key Identifier: 
                19:90:E7:CF:DC:F9:83:28:1C:CE:1F:4C:79:89:26:76:36:85:92:9B
            X509v3 Authority Key Identifier: 
                keyid:94:74:68:6D:CD:33:06:FC:40:CC:8F:93:A0:62:D4:C4:2E:81:20:DD
                DirName:/CN=team182-net
                serial:42:C2:08:C3:D4:79:EA:BB:4B:6F:35:23:88:ED:54:5A:74:E5:3C:26
            X509v3 Extended Key Usage: 
                TLS Web Server Authentication
            X509v3 Key Usage: 
                Digital Signature, Key Encipherment
            X509v3 Subject Alternative Name: 
                DNS:team182-server
    Signature Algorithm: sha256WithRSAEncryption
    Signature Value:
        95:c1:fc:c2:d7:a4:7c:63:d7:e9:49:42:bd:b8:57:63:5f:8e:
        a1:78:67:31:69:91:6c:54:2a:88:7f:98:73:0a:4d:f9:22:21:
        3a:23:b5:89:1e:61:37:9e:4c:5f:23:c6:88:b1:42:9e:66:1f:
        c9:fd:7a:49:be:6e:eb:ab:39:89:6a:7f:3f:6d:eb:1f:70:24:
        9f:14:96:fd:f5:73:5c:b3:76:fb:dc:51:19:22:cc:e4:2e:22:
        a5:f3:67:88:f7:66:93:85:2a:f7:48:ca:ea:79:68:03:ac:30:
        4a:60:23:d5:ad:11:ac:91:c6:12:10:f8:30:5f:85:e1:22:c0:
        37:61:66:1e:39:da:53:9c:0a:91:d7:27:98:cb:6e:35:14:b4:
        52:a7:bb:11:95:c5:da:9b:18:3b:ec:88:65:bc:c3:9f:ea:7e:
        c5:47:e8:25:9b:61:34:85:0a:c0:00:d4:40:b9:12:be:76:99:
        82:e0:70:27:4a:9c:65:91:a8:87:73:97:e3:6b:e2:3c:41:6a:
        fa:45:8a:6a:33:e8:4c:6f:e0:bd:a8:d7:50:66:db:8b:c2:89:
        3e:a8:f8:d5:51:69:a7:c3:f0:54:7e:0d:58:40:2c:ce:d2:80:
        39:a8:22:06:53:62:1a:5e:65:fa:5d:ac:7b:fd:1c:65:06:70:
        68:32:f6:cc
-----BEGIN CERTIFICATE-----
MIIDeDCCAmCgAwIBAgIRAJq51qY4VPO/NTS8FBAaCFcwDQYJKoZIhvcNAQELBQAw
FjEUMBIGA1UEAwwLdGVhbTE4Mi1uZXQwHhcNMjMxMTA0MTEzMTE0WhcNMjYxMDE5
MTEzMTE0WjAZMRcwFQYDVQQDDA50ZWFtMTgyLXNlcnZlcjCCASIwDQYJKoZIhvcN
AQEBBQADggEPADCCAQoCggEBALoFliYTjXWB6bVLrWnUjFGM3Cix6DwK+IA1m/NC
gEd4jijHlRjl7QceNif4bM2Dk1xc+L4fXppJJRntCsIIJhtRuAAf2GGTTy9Vic8Y
eSr18zQ5kuRkVhlvlTQ0/1tFpcYXV8DVFaTR2Ln8Oxy+3Aj5Q3lIyJlmig9jBXFq
9roGWvEMakneNRZv0jGLzCZx20LFVIxcLEkXmgayj57fKkgXdYUimIKEwTJel04P
OQvaAupGefrSh+0tB5rvrHXLpNiCdkRORs7Ov6DgpQNFS4INzzuHqMTL2rfZexER
GywpP4XEeow1r3kaQyk72nB5P1TKxwJjtyhc0aLUjMrWRRkCAwEAAaOBvTCBujAJ
BgNVHRMEAjAAMB0GA1UdDgQWBBQZkOfP3PmDKBzOH0x5iSZ2NoWSmzBRBgNVHSME
SjBIgBSUdGhtzTMG/EDMj5OgYtTELoEg3aEapBgwFjEUMBIGA1UEAwwLdGVhbTE4
Mi1uZXSCFELCCMPUeeq7S281I4jtVFp05TwmMBMGA1UdJQQMMAoGCCsGAQUFBwMB
MAsGA1UdDwQEAwIFoDAZBgNVHREEEjAQgg50ZWFtMTgyLXNlcnZlcjANBgkqhkiG
9w0BAQsFAAOCAQEAlcH8wtekfGPX6UlCvbhXY1+OoXhnMWmRbFQqiH+YcwpN+SIh
OiO1iR5hN55MXyPGiLFCnmYfyf16Sb5u66s5iWp/P23rH3AknxSW/fVzXLN2+9xR
GSLM5C4ipfNniPdmk4Uq90jK6nloA6wwSmAj1a0RrJHGEhD4MF+F4SLAN2FmHjna
U5wKkdcnmMtuNRS0Uqe7EZXF2psYO+yIZbzDn+p+xUfoJZthNIUKwADUQLkSvnaZ
guBwJ0qcZZGoh3OX42viPEFq+kWKajPoTG/gvajXUGbbi8KJPqj41VFpp8PwVH4N
WEAsztKAOagiBlNiGl5l+l2se/0cZQZwaDL2zA==
-----END CERTIFICATE-----
