Certificate:
    Data:
        Version: 3 (0x2)
        Serial Number:
            d7:d1:50:32:fe:ff:27:fb:0e:b0:86:62:67:49:e5:c1
        Signature Algorithm: sha256WithRSAEncryption
        Issuer: CN=team182-net
        Validity
            Not Before: Nov  4 11:31:14 2023 GMT
            Not After : Oct 19 11:31:14 2026 GMT
        Subject: CN=team182-client
        Subject Public Key Info:
            Public Key Algorithm: rsaEncryption
                Public-Key: (2048 bit)
                Modulus:
                    00:b9:73:98:6d:a3:fe:49:28:0b:04:b3:10:64:c6:
                    b1:6e:47:f9:ed:bb:95:4d:50:d3:dc:41:d0:69:c8:
                    60:56:8b:29:61:fc:6b:2e:1e:95:5f:77:bf:0c:3c:
                    61:d5:29:12:3c:5a:6e:0d:a9:9a:f1:7a:dd:1f:b7:
                    34:24:86:0c:b6:22:b0:49:1f:b1:d3:28:48:b9:11:
                    8a:b1:09:e9:5f:fc:ed:5d:12:0e:2c:fc:65:1d:21:
                    b9:c1:f4:08:72:61:b5:f4:3b:bd:a4:e9:04:24:2f:
                    5d:25:9c:71:78:24:7f:55:ea:64:63:7d:ef:98:0c:
                    b6:9c:33:2e:52:3b:e5:96:41:97:3d:f9:f7:cb:c9:
                    81:2b:84:af:19:78:d4:dc:ea:77:d6:2a:44:e9:d9:
                    74:80:57:bb:16:9e:b9:92:42:c0:ae:c1:b8:f4:ff:
                    00:26:d9:3a:c7:55:06:e0:42:4d:b8:15:64:8e:6b:
                    f8:f6:9a:63:ca:92:71:80:27:32:cd:4d:b6:47:6b:
                    66:4f:be:84:c2:db:67:2a:87:70:2c:5a:19:59:f5:
                    ef:91:5b:09:6c:da:c8:e2:23:69:d9:5a:b5:03:6a:
                    ee:50:69:01:46:c9:6f:06:55:c2:19:03:32:72:8c:
                    b6:08:35:f5:f8:dd:8d:7b:ec:39:30:bb:c5:ea:c2:
                    24:e3
                Exponent: 65537 (0x10001)
        X509v3 extensions:
            X509v3 Basic Constraints: 
                CA:FALSE
            X509v3 Subject Key Identifier: 
                BE:F5:6E:74:65:1D:3B:AB:D5:BA:EC:38:45:61:CD:08:05:9F:C0:4A
            X509v3 Authority Key Identifier: 
                keyid:94:74:68:6D:CD:33:06:FC:40:CC:8F:93:A0:62:D4:C4:2E:81:20:DD
                DirName:/CN=team182-net
                serial:42:C2:08:C3:D4:79:EA:BB:4B:6F:35:23:88:ED:54:5A:74:E5:3C:26
            X509v3 Extended Key Usage: 
                TLS Web Client Authentication
            X509v3 Key Usage: 
                Digital Signature
    Signature Algorithm: sha256WithRSAEncryption
    Signature Value:
        15:d9:2f:ab:91:59:ec:8e:06:cd:c9:5c:0c:09:1b:08:c2:a0:
        41:30:c8:71:d8:27:2c:1f:8b:cd:5e:59:f2:73:29:ed:8f:2e:
        2a:d4:b5:6c:06:0f:2e:09:45:c7:b5:39:5f:39:75:58:06:68:
        14:a1:61:eb:77:03:d5:03:5c:73:c4:a1:b1:2b:02:19:f8:3f:
        1c:f1:87:44:41:b2:df:f4:4e:ac:4d:c0:b3:a8:17:0e:aa:f8:
        62:ee:b5:d5:95:5c:39:ce:c9:4b:bb:d2:1d:8f:40:52:af:68:
        fc:a1:29:a2:fc:dc:44:fe:32:b0:cc:3b:ef:d9:29:7a:e3:76:
        8d:fc:1e:de:24:75:d3:c7:a0:16:05:bd:3c:a9:1e:be:74:94:
        54:0a:d4:5c:10:63:61:52:cd:34:b2:a4:3a:c6:a2:5a:db:bf:
        a8:57:e9:68:9f:7f:c4:2b:aa:a9:8c:1a:bd:18:f2:14:02:20:
        8b:8b:58:b7:ed:0f:6a:dd:1d:36:8a:58:24:2f:65:79:28:4a:
        02:fd:d0:31:6d:a1:bf:89:9d:d4:b5:ab:8e:05:d1:2d:3a:67:
        a3:f2:e4:e7:ff:57:66:b2:5f:c2:a9:26:d7:de:1f:9c:60:0f:
        7d:61:34:a2:eb:25:1a:a7:67:ed:c5:86:ce:49:89:6f:bb:58:
        15:53:5a:f9
-----BEGIN CERTIFICATE-----
MIIDXTCCAkWgAwIBAgIRANfRUDL+/yf7DrCGYmdJ5cEwDQYJKoZIhvcNAQELBQAw
FjEUMBIGA1UEAwwLdGVhbTE4Mi1uZXQwHhcNMjMxMTA0MTEzMTE0WhcNMjYxMDE5
MTEzMTE0WjAZMRcwFQYDVQQDDA50ZWFtMTgyLWNsaWVudDCCASIwDQYJKoZIhvcN
AQEBBQADggEPADCCAQoCggEBALlzmG2j/kkoCwSzEGTGsW5H+e27lU1Q09xB0GnI
YFaLKWH8ay4elV93vww8YdUpEjxabg2pmvF63R+3NCSGDLYisEkfsdMoSLkRirEJ
6V/87V0SDiz8ZR0hucH0CHJhtfQ7vaTpBCQvXSWccXgkf1XqZGN975gMtpwzLlI7
5ZZBlz3598vJgSuErxl41Nzqd9YqROnZdIBXuxaeuZJCwK7BuPT/ACbZOsdVBuBC
TbgVZI5r+PaaY8qScYAnMs1NtkdrZk++hMLbZyqHcCxaGVn175FbCWzayOIjadla
tQNq7lBpAUbJbwZVwhkDMnKMtgg19fjdjXvsOTC7xerCJOMCAwEAAaOBojCBnzAJ
BgNVHRMEAjAAMB0GA1UdDgQWBBS+9W50ZR07q9W67DhFYc0IBZ/ASjBRBgNVHSME
SjBIgBSUdGhtzTMG/EDMj5OgYtTELoEg3aEapBgwFjEUMBIGA1UEAwwLdGVhbTE4
Mi1uZXSCFELCCMPUeeq7S281I4jtVFp05TwmMBMGA1UdJQQMMAoGCCsGAQUFBwMC
MAsGA1UdDwQEAwIHgDANBgkqhkiG9w0BAQsFAAOCAQEAFdkvq5FZ7I4GzclcDAkb
CMKgQTDIcdgnLB+LzV5Z8nMp7Y8uKtS1bAYPLglFx7U5Xzl1WAZoFKFh63cD1QNc
c8ShsSsCGfg/HPGHREGy3/ROrE3As6gXDqr4Yu611ZVcOc7JS7vSHY9AUq9o/KEp
ovzcRP4ysMw779kpeuN2jfwe3iR108egFgW9PKkevnSUVArUXBBjYVLNNLKkOsai
Wtu/qFfpaJ9/xCuqqYwavRjyFAIgi4tYt+0Pat0dNopYJC9leShKAv3QMW2hv4md
1LWrjgXRLTpno/Lk5/9XZrJfwqkm194fnGAPfWE0ouslGqdn7cWGzkmJb7tYFVNa
+Q==
-----END CERTIFICATE-----
