Certificate:
    Data:
        Version: 3 (0x2)
        Serial Number:
            f9:4d:e8:01:d4:77:ea:3e:51:9e:9c:b5:d6:0b:6f:bd
        Signature Algorithm: sha256WithRSAEncryption
        Issuer: CN=team182-net
        Validity
            Not Before: Nov  4 10:43:55 2023 GMT
            Not After : Oct 19 10:43:55 2026 GMT
        Subject: CN=team182-server
        Subject Public Key Info:
            Public Key Algorithm: rsaEncryption
                Public-Key: (2048 bit)
                Modulus:
                    00:a5:e0:38:7f:96:ac:46:6b:2f:7a:47:6e:c9:68:
                    43:28:0f:87:e4:51:6a:52:b9:70:8d:aa:42:4c:e5:
                    2c:ec:72:fe:eb:13:eb:bb:60:2f:56:e6:cf:a5:d9:
                    51:51:8f:55:ff:ab:d9:a6:df:2f:71:dd:26:3a:5d:
                    b1:5e:1b:5a:36:82:af:62:aa:4d:a7:71:89:f3:e2:
                    97:d4:b7:74:dc:46:49:63:07:c2:b6:b4:64:6b:58:
                    39:70:25:dd:cc:20:8b:27:99:3d:4f:d3:73:16:29:
                    d9:08:7d:0c:46:d1:58:da:44:61:f9:99:17:74:07:
                    96:24:10:0e:eb:3f:ff:0d:69:13:09:3b:15:2a:41:
                    67:c7:e8:f7:f3:40:70:1c:53:94:69:6e:26:c6:a5:
                    6e:7c:b5:89:e5:04:1e:2c:86:f0:3a:47:08:10:c9:
                    8a:6a:50:cc:91:76:61:e8:b2:db:12:82:13:59:1c:
                    51:1f:d6:0b:53:93:82:1c:1f:64:84:86:28:ab:98:
                    b8:d5:1a:42:a2:64:4a:bc:fd:36:be:15:0a:9a:4e:
                    63:92:65:b5:0a:15:0a:02:34:ba:2b:7d:34:b8:2e:
                    2b:7c:4d:8a:c4:43:13:c9:fc:1d:ab:ba:ef:6c:30:
                    43:42:c6:12:57:23:ff:f2:9b:69:37:e8:b8:a3:80:
                    8d:cd
                Exponent: 65537 (0x10001)
        X509v3 extensions:
            X509v3 Basic Constraints: 
                CA:FALSE
            X509v3 Subject Key Identifier: 
                8C:88:14:7D:EC:DF:2B:DF:A2:87:66:6D:82:F3:11:2C:A5:07:ED:DF
            X509v3 Authority Key Identifier: 
                keyid:D7:8B:CE:F7:61:82:A0:5E:5E:F6:A7:BC:87:7B:54:EA:ED:1B:44:44
                DirName:/CN=team182-net
                serial:73:6D:3C:FC:EA:07:DB:55:6B:06:DE:FC:44:30:BA:29:D5:F0:B1:73
            X509v3 Extended Key Usage: 
                TLS Web Server Authentication
            X509v3 Key Usage: 
                Digital Signature, Key Encipherment
            X509v3 Subject Alternative Name: 
                DNS:team182-server
    Signature Algorithm: sha256WithRSAEncryption
    Signature Value:
        07:25:af:c4:1a:f3:7f:13:a1:df:85:d9:0c:04:91:f8:18:00:
        5a:1e:ff:08:b1:4b:8c:c9:e2:22:00:25:86:dc:48:c6:d0:b7:
        b9:c2:39:37:60:a3:3f:7b:79:56:f3:35:d7:a7:b8:1b:cf:fb:
        99:f7:e3:a9:49:bf:58:2b:0b:b4:e9:47:80:d6:69:90:98:36:
        84:62:f9:77:e2:82:2d:15:a3:0b:ab:f3:13:1d:6a:a6:e7:b5:
        75:6d:b9:ba:35:76:d3:b6:6e:94:b7:f9:18:10:e3:99:18:92:
        ea:ea:e8:54:59:bb:25:6a:c2:c1:35:a8:0d:99:5a:0a:da:94:
        f0:69:29:80:e1:cd:69:c4:3b:44:91:40:cd:48:3d:3d:5b:53:
        92:e2:8f:bb:59:53:cb:d9:92:24:d3:d2:e3:87:3b:e4:d9:3f:
        c2:87:7c:fb:b2:c4:7e:ae:8d:d7:a8:ed:0d:b0:22:9f:10:b8:
        12:e6:27:3c:df:67:3d:6f:b5:5a:9e:23:45:74:f6:6c:ce:28:
        e4:3a:df:d3:1f:d3:2f:d1:16:0e:cc:e0:45:62:dd:8d:5d:9f:
        0f:aa:f0:a8:7e:e1:df:a5:89:6b:be:32:00:b3:1c:ef:8b:52:
        00:69:f7:de:0f:40:49:76:b5:8e:4c:73:c0:57:38:ba:63:48:
        57:08:5a:0e
-----BEGIN CERTIFICATE-----
MIIDeDCCAmCgAwIBAgIRAPlN6AHUd+o+UZ6ctdYLb70wDQYJKoZIhvcNAQELBQAw
FjEUMBIGA1UEAwwLdGVhbTE4Mi1uZXQwHhcNMjMxMTA0MTA0MzU1WhcNMjYxMDE5
MTA0MzU1WjAZMRcwFQYDVQQDDA50ZWFtMTgyLXNlcnZlcjCCASIwDQYJKoZIhvcN
AQEBBQADggEPADCCAQoCggEBAKXgOH+WrEZrL3pHbsloQygPh+RRalK5cI2qQkzl
LOxy/usT67tgL1bmz6XZUVGPVf+r2abfL3HdJjpdsV4bWjaCr2KqTadxifPil9S3
dNxGSWMHwra0ZGtYOXAl3cwgiyeZPU/TcxYp2Qh9DEbRWNpEYfmZF3QHliQQDus/
/w1pEwk7FSpBZ8fo9/NAcBxTlGluJsalbny1ieUEHiyG8DpHCBDJimpQzJF2Yeiy
2xKCE1kcUR/WC1OTghwfZISGKKuYuNUaQqJkSrz9Nr4VCppOY5JltQoVCgI0uit9
NLguK3xNisRDE8n8Hau672wwQ0LGElcj//KbaTfouKOAjc0CAwEAAaOBvTCBujAJ
BgNVHRMEAjAAMB0GA1UdDgQWBBSMiBR97N8r36KHZm2C8xEspQft3zBRBgNVHSME
SjBIgBTXi873YYKgXl72p7yHe1Tq7RtERKEapBgwFjEUMBIGA1UEAwwLdGVhbTE4
Mi1uZXSCFHNtPPzqB9tVawbe/EQwuinV8LFzMBMGA1UdJQQMMAoGCCsGAQUFBwMB
MAsGA1UdDwQEAwIFoDAZBgNVHREEEjAQgg50ZWFtMTgyLXNlcnZlcjANBgkqhkiG
9w0BAQsFAAOCAQEAByWvxBrzfxOh34XZDASR+BgAWh7/CLFLjMniIgAlhtxIxtC3
ucI5N2CjP3t5VvM116e4G8/7mffjqUm/WCsLtOlHgNZpkJg2hGL5d+KCLRWjC6vz
Ex1qpue1dW25ujV207ZulLf5GBDjmRiS6uroVFm7JWrCwTWoDZlaCtqU8GkpgOHN
acQ7RJFAzUg9PVtTkuKPu1lTy9mSJNPS44c75Nk/wod8+7LEfq6N16jtDbAinxC4
EuYnPN9nPW+1Wp4jRXT2bM4o5Drf0x/TL9EWDszgRWLdjV2fD6rwqH7h36WJa74y
ALMc74tSAGn33g9ASXa1jkxzwFc4umNIVwhaDg==
-----END CERTIFICATE-----
