Certificate:
    Data:
        Version: 3 (0x2)
        Serial Number:
            fd:2f:08:ed:1d:66:a6:5b:67:10:77:20:d7:f3:23:5c
        Signature Algorithm: sha256WithRSAEncryption
        Issuer: CN=team182-net
        Validity
            Not Before: Nov  3 20:42:32 2023 GMT
            Not After : Oct 18 20:42:32 2026 GMT
        Subject: CN=team182-client
        Subject Public Key Info:
            Public Key Algorithm: rsaEncryption
                Public-Key: (2048 bit)
                Modulus:
                    00:a8:71:84:a2:ea:c8:ef:89:21:2d:93:b5:0b:03:
                    22:f3:63:14:84:3a:81:d2:8b:e2:a8:04:a7:d8:ca:
                    8f:75:68:8e:60:ff:bd:95:50:34:33:c9:11:37:55:
                    b3:68:98:99:31:b2:8f:5a:c5:1c:8c:fc:6d:76:44:
                    de:66:fe:a0:88:46:a2:c3:ab:69:22:da:d4:ed:c8:
                    00:e2:65:a0:1a:19:3f:97:b8:24:c7:3d:a3:c9:12:
                    72:97:76:13:85:f8:eb:f1:99:95:03:f1:f2:d0:1c:
                    46:4c:55:3f:71:e7:da:1f:9e:70:ed:ef:41:fc:f2:
                    73:b2:5b:65:8c:41:e1:ca:c2:fe:b6:9e:53:19:3a:
                    2b:25:92:92:ca:2f:9f:1c:2f:84:98:7d:34:ae:52:
                    1b:87:88:b6:88:ff:0c:20:ea:5a:58:aa:71:9b:7e:
                    eb:4d:32:ee:05:06:6f:51:d5:0d:cc:a9:81:94:77:
                    cb:03:5c:59:45:60:a5:67:f4:67:1a:55:72:57:98:
                    b4:60:67:b0:c8:51:72:a5:c7:89:4a:0d:46:54:b2:
                    6c:56:ab:66:24:af:cd:01:bd:31:d7:9e:c1:55:9a:
                    21:89:f2:44:b2:ad:a7:19:23:9f:a0:5f:92:93:51:
                    d3:7d:ee:92:15:f6:69:ee:ad:1e:93:6c:9f:6d:6f:
                    a5:9b
                Exponent: 65537 (0x10001)
        X509v3 extensions:
            X509v3 Basic Constraints: 
                CA:FALSE
            X509v3 Subject Key Identifier: 
                CF:7C:F4:2D:FD:AE:26:2C:DB:0C:FB:D7:24:73:71:67:33:71:3E:13
            X509v3 Authority Key Identifier: 
                keyid:E4:23:22:4F:FF:B7:46:8B:1B:6D:16:68:8D:68:F4:00:FD:5B:76:A1
                DirName:/CN=team182-net
                serial:43:B5:C0:28:56:BB:52:20:08:91:A9:93:BE:DA:0F:E4:91:AD:05:C8
            X509v3 Extended Key Usage: 
                TLS Web Client Authentication
            X509v3 Key Usage: 
                Digital Signature
    Signature Algorithm: sha256WithRSAEncryption
    Signature Value:
        15:76:2a:1b:ee:7b:c1:2b:d9:ca:aa:b9:cd:3c:f6:7b:7e:76:
        9d:a4:05:2f:e7:fc:e1:bc:86:6a:9a:29:a7:64:d9:dd:4f:e0:
        78:e6:e0:cc:de:f6:0f:55:28:d1:77:7c:54:18:a9:fa:ee:bb:
        26:21:16:54:d4:35:df:5d:63:4b:06:f2:df:69:9f:7a:81:47:
        8b:d7:f6:be:b7:e9:08:7b:04:a7:43:f0:67:d9:8e:c4:43:90:
        27:c0:b4:68:fe:d1:75:0b:26:1f:ce:57:73:42:01:52:ed:2b:
        05:b0:64:42:40:8c:d2:02:de:56:67:ad:a2:a5:c9:30:f5:85:
        d5:9a:33:11:55:83:ab:3d:8b:6c:18:5c:1c:56:5c:ab:0e:56:
        d7:99:c8:97:24:bc:df:24:a1:57:cb:1b:9d:44:f9:50:7f:7c:
        b3:62:f5:10:67:f7:03:fd:ec:6b:9e:7c:5d:eb:a7:5a:09:a5:
        fd:49:58:53:9e:96:24:46:38:ca:44:91:2b:8a:3d:11:a0:d4:
        7f:7d:c5:43:9e:d4:90:30:b8:43:64:53:1a:a3:d4:59:8c:0f:
        63:ee:9c:b3:ee:14:a1:f6:4b:a1:1a:c8:1f:b4:aa:08:e5:39:
        9a:c3:3f:bf:db:79:59:0f:fe:17:cb:aa:95:a5:51:10:2b:e5:
        87:27:28:cb
-----BEGIN CERTIFICATE-----
MIIDXTCCAkWgAwIBAgIRAP0vCO0dZqZbZxB3INfzI1wwDQYJKoZIhvcNAQELBQAw
FjEUMBIGA1UEAwwLdGVhbTE4Mi1uZXQwHhcNMjMxMTAzMjA0MjMyWhcNMjYxMDE4
MjA0MjMyWjAZMRcwFQYDVQQDDA50ZWFtMTgyLWNsaWVudDCCASIwDQYJKoZIhvcN
AQEBBQADggEPADCCAQoCggEBAKhxhKLqyO+JIS2TtQsDIvNjFIQ6gdKL4qgEp9jK
j3VojmD/vZVQNDPJETdVs2iYmTGyj1rFHIz8bXZE3mb+oIhGosOraSLa1O3IAOJl
oBoZP5e4JMc9o8kScpd2E4X46/GZlQPx8tAcRkxVP3Hn2h+ecO3vQfzyc7JbZYxB
4crC/raeUxk6KyWSksovnxwvhJh9NK5SG4eItoj/DCDqWliqcZt+600y7gUGb1HV
DcypgZR3ywNcWUVgpWf0ZxpVcleYtGBnsMhRcqXHiUoNRlSybFarZiSvzQG9Mdee
wVWaIYnyRLKtpxkjn6BfkpNR033ukhX2ae6tHpNsn21vpZsCAwEAAaOBojCBnzAJ
BgNVHRMEAjAAMB0GA1UdDgQWBBTPfPQt/a4mLNsM+9ckc3FnM3E+EzBRBgNVHSME
SjBIgBTkIyJP/7dGixttFmiNaPQA/Vt2oaEapBgwFjEUMBIGA1UEAwwLdGVhbTE4
Mi1uZXSCFEO1wChWu1IgCJGpk77aD+SRrQXIMBMGA1UdJQQMMAoGCCsGAQUFBwMC
MAsGA1UdDwQEAwIHgDANBgkqhkiG9w0BAQsFAAOCAQEAFXYqG+57wSvZyqq5zTz2
e352naQFL+f84byGapopp2TZ3U/geObgzN72D1Uo0Xd8VBip+u67JiEWVNQ1311j
Swby32mfeoFHi9f2vrfpCHsEp0PwZ9mOxEOQJ8C0aP7RdQsmH85Xc0IBUu0rBbBk
QkCM0gLeVmetoqXJMPWF1ZozEVWDqz2LbBhcHFZcqw5W15nIlyS83yShV8sbnUT5
UH98s2L1EGf3A/3sa558XeunWgml/UlYU56WJEY4ykSRK4o9EaDUf33FQ57UkDC4
Q2RTGqPUWYwPY+6cs+4UofZLoRrIH7SqCOU5msM/v9t5WQ/+F8uqlaVRECvlhyco
yw==
-----END CERTIFICATE-----
