Certificate:
    Data:
        Version: 3 (0x2)
        Serial Number:
            34:2e:6e:5d:1a:7c:1f:43:a2:de:fe:7c:d9:0c:59:f0
        Signature Algorithm: sha256WithRSAEncryption
        Issuer: CN=team238-net
        Validity
            Not Before: Nov  3 20:43:39 2023 GMT
            Not After : Oct 18 20:43:39 2026 GMT
        Subject: CN=team238-server
        Subject Public Key Info:
            Public Key Algorithm: rsaEncryption
                Public-Key: (2048 bit)
                Modulus:
                    00:c2:38:bc:bd:e6:f6:0b:f8:ca:1d:00:e8:7e:48:
                    4c:09:b5:72:33:17:7b:5f:26:55:15:37:a0:2a:9b:
                    e0:eb:e0:a0:3d:5d:01:f2:4e:75:74:f3:ef:c3:8e:
                    ea:40:89:a1:2e:f0:bc:6f:e6:5c:1e:b5:6a:49:46:
                    ac:ca:f6:08:57:94:7b:f6:ce:6b:fb:89:55:ae:8b:
                    73:39:47:ee:e9:de:a6:e3:a7:46:31:1b:19:53:d7:
                    ab:ca:33:1d:85:cd:a6:b5:51:82:00:76:88:0d:5f:
                    cc:6b:db:83:25:e2:a7:34:1a:fa:7d:2f:fa:6d:09:
                    aa:65:1d:de:20:5e:51:96:9a:5a:ec:ea:5d:34:ac:
                    68:52:9b:45:69:83:69:db:fe:b3:09:a5:e0:5d:bb:
                    7f:92:23:1f:33:16:3d:cf:b2:5f:8e:b3:8c:a8:e1:
                    74:4e:2a:bc:fd:0d:c2:4c:7c:8d:2f:73:59:e1:a3:
                    b8:e9:bc:8c:72:61:65:7a:80:48:a5:61:e5:a3:bd:
                    36:b8:e2:b2:2b:07:02:17:7d:c8:20:1c:47:a9:dc:
                    ec:c0:2f:db:61:ec:42:cf:43:33:02:d8:57:3e:cb:
                    81:4c:48:0b:48:a2:0a:0e:33:ab:ae:56:51:66:d5:
                    16:84:82:b4:fe:83:94:10:ea:dd:b9:59:dc:fd:04:
                    25:8f
                Exponent: 65537 (0x10001)
        X509v3 extensions:
            X509v3 Basic Constraints: 
                CA:FALSE
            X509v3 Subject Key Identifier: 
                4C:06:40:F8:B4:E0:AE:8C:1A:88:59:F7:98:F8:0E:AC:9C:2F:BA:73
            X509v3 Authority Key Identifier: 
                keyid:BA:E8:93:57:C7:E8:24:5B:00:DD:FB:1D:9C:B0:40:3F:A7:F3:A2:BF
                DirName:/CN=team238-net
                serial:02:3C:86:CC:0D:17:B3:33:EC:E1:FC:77:32:EA:10:D7:79:1C:98:D2
            X509v3 Extended Key Usage: 
                TLS Web Server Authentication
            X509v3 Key Usage: 
                Digital Signature, Key Encipherment
            X509v3 Subject Alternative Name: 
                DNS:team238-server
    Signature Algorithm: sha256WithRSAEncryption
    Signature Value:
        41:0e:d7:0d:cf:22:01:70:91:78:e9:ab:83:a9:a9:2d:b4:2d:
        39:1c:a5:ef:79:ee:82:c5:92:96:11:71:14:90:34:16:78:ab:
        21:5f:0f:ab:58:fd:c8:60:fd:43:25:53:93:75:7e:47:6a:18:
        44:68:59:73:dc:65:9b:65:44:20:b9:c2:fe:73:30:2b:b8:38:
        9f:10:42:27:3f:fc:b9:14:f2:7e:f4:9d:8d:37:c1:55:3f:a2:
        88:56:a7:ce:85:b8:6b:b6:38:30:31:17:4e:97:0d:cc:86:8f:
        96:be:6f:cc:66:fd:04:37:e1:76:55:a0:2f:cf:72:7e:82:20:
        84:db:26:37:e1:37:79:58:e7:82:83:6d:45:46:c5:ab:26:69:
        de:3b:84:45:8a:ab:32:13:ed:e9:9d:7d:ef:5a:ed:1a:83:93:
        84:c5:79:42:ee:35:d3:d0:db:5c:51:c4:8a:30:fa:62:f5:df:
        c5:c1:ca:07:6a:0b:0a:e2:88:09:c1:09:5e:b1:d4:58:42:ac:
        32:b8:b9:25:1d:9d:3b:db:a3:bd:5f:60:6c:9d:1b:8d:03:a7:
        ae:67:7e:9b:70:82:79:3e:5a:20:aa:7a:47:d5:7a:28:12:57:
        3c:05:a5:20:fc:e7:96:98:75:c6:9c:cf:ad:8c:95:c7:11:fa:
        94:9b:77:34
-----BEGIN CERTIFICATE-----
MIIDdzCCAl+gAwIBAgIQNC5uXRp8H0Oi3v582QxZ8DANBgkqhkiG9w0BAQsFADAW
MRQwEgYDVQQDDAt0ZWFtMjM4LW5ldDAeFw0yMzExMDMyMDQzMzlaFw0yNjEwMTgy
MDQzMzlaMBkxFzAVBgNVBAMMDnRlYW0yMzgtc2VydmVyMIIBIjANBgkqhkiG9w0B
AQEFAAOCAQ8AMIIBCgKCAQEAwji8veb2C/jKHQDofkhMCbVyMxd7XyZVFTegKpvg
6+CgPV0B8k51dPPvw47qQImhLvC8b+ZcHrVqSUasyvYIV5R79s5r+4lVrotzOUfu
6d6m46dGMRsZU9eryjMdhc2mtVGCAHaIDV/Ma9uDJeKnNBr6fS/6bQmqZR3eIF5R
lppa7OpdNKxoUptFaYNp2/6zCaXgXbt/kiMfMxY9z7JfjrOMqOF0Tiq8/Q3CTHyN
L3NZ4aO46byMcmFleoBIpWHlo702uOKyKwcCF33IIBxHqdzswC/bYexCz0MzAthX
PsuBTEgLSKIKDjOrrlZRZtUWhIK0/oOUEOrduVnc/QQljwIDAQABo4G9MIG6MAkG
A1UdEwQCMAAwHQYDVR0OBBYEFEwGQPi04K6MGohZ95j4DqycL7pzMFEGA1UdIwRK
MEiAFLrok1fH6CRbAN37HZywQD+n86K/oRqkGDAWMRQwEgYDVQQDDAt0ZWFtMjM4
LW5ldIIUAjyGzA0XszPs4fx3MuoQ13kcmNIwEwYDVR0lBAwwCgYIKwYBBQUHAwEw
CwYDVR0PBAQDAgWgMBkGA1UdEQQSMBCCDnRlYW0yMzgtc2VydmVyMA0GCSqGSIb3
DQEBCwUAA4IBAQBBDtcNzyIBcJF46auDqakttC05HKXvee6CxZKWEXEUkDQWeKsh
Xw+rWP3IYP1DJVOTdX5HahhEaFlz3GWbZUQgucL+czAruDifEEInP/y5FPJ+9J2N
N8FVP6KIVqfOhbhrtjgwMRdOlw3Mho+Wvm/MZv0EN+F2VaAvz3J+giCE2yY34Td5
WOeCg21FRsWrJmneO4RFiqsyE+3pnX3vWu0ag5OExXlC7jXT0NtcUcSKMPpi9d/F
wcoHagsK4ogJwQlesdRYQqwyuLklHZ0726O9X2BsnRuNA6euZ36bcIJ5PlogqnpH
1XooElc8BaUg/OeWmHXGnM+tjJXHEfqUm3c0
-----END CERTIFICATE-----
