Certificate:
    Data:
        Version: 3 (0x2)
        Serial Number:
            44:e0:5a:9f:c5:c9:dc:e0:b4:49:84:83:ab:4a:1c:52
        Signature Algorithm: sha256WithRSAEncryption
        Issuer: CN=team238-net
        Validity
            Not Before: Nov  4 11:32:17 2023 GMT
            Not After : Oct 19 11:32:17 2026 GMT
        Subject: CN=team238-client
        Subject Public Key Info:
            Public Key Algorithm: rsaEncryption
                Public-Key: (2048 bit)
                Modulus:
                    00:ee:a3:3a:62:51:72:16:95:18:b9:2b:57:57:b4:
                    a8:6f:a1:5a:dd:02:ef:d1:67:f2:60:0d:ad:2e:89:
                    5a:2d:d7:97:6a:37:7c:51:17:a6:b7:ba:58:14:c1:
                    51:33:77:e0:00:de:2a:0f:84:67:d5:3b:91:5e:de:
                    05:2b:aa:2b:3c:96:54:2b:e9:8e:c6:88:56:67:5f:
                    c3:b3:4c:2f:2c:6e:02:4e:6e:14:9f:b6:61:0c:6d:
                    f8:71:9e:b8:5b:52:54:1d:9b:83:f8:f7:4d:94:4d:
                    e6:b3:07:24:96:e2:73:9d:b1:a4:c9:73:14:50:36:
                    98:86:de:a9:12:da:6f:de:9c:d7:92:af:eb:c2:d0:
                    27:ab:2c:ae:ab:46:82:85:67:08:ee:dc:20:2b:80:
                    3a:9e:19:fc:0b:32:45:ce:9d:12:49:c1:bf:1f:df:
                    d6:db:fc:08:94:a6:e1:5f:17:4b:b6:19:2d:2a:3c:
                    e0:dd:d7:d3:ef:da:be:0e:64:a9:47:63:97:4d:9f:
                    97:3d:94:ce:a0:8d:cd:77:42:66:c8:e0:82:e9:25:
                    c9:70:95:5a:ff:00:36:5d:44:52:68:0f:10:94:d0:
                    46:d9:e4:81:ab:38:dc:f4:8a:b3:b9:a9:c6:e6:b4:
                    13:6d:ce:2e:5c:0a:96:c3:29:fa:27:00:6b:8d:51:
                    66:29
                Exponent: 65537 (0x10001)
        X509v3 extensions:
            X509v3 Basic Constraints: 
                CA:FALSE
            X509v3 Subject Key Identifier: 
                67:D5:5B:CA:64:8D:1A:FB:95:7A:6B:DC:7C:93:70:51:C6:5D:D4:DC
            X509v3 Authority Key Identifier: 
                keyid:6A:AC:51:1D:A4:D1:42:7F:BF:58:DE:5A:41:C4:A1:F1:CF:79:07:33
                DirName:/CN=team238-net
                serial:4D:33:41:B7:67:ED:46:3F:8A:98:CA:06:B2:71:58:BB:51:EC:40:1A
            X509v3 Extended Key Usage: 
                TLS Web Client Authentication
            X509v3 Key Usage: 
                Digital Signature
    Signature Algorithm: sha256WithRSAEncryption
    Signature Value:
        2b:1f:8d:70:da:20:a7:14:56:21:9f:99:05:5d:40:af:f8:37:
        a3:11:e5:d1:80:08:fb:fa:2b:80:88:1d:49:d7:6b:fc:bb:47:
        ac:ff:eb:bb:6a:31:43:6e:c5:34:ee:cd:06:04:25:18:80:e3:
        30:3e:08:49:ee:cf:02:cd:bd:41:35:0d:c9:7a:7b:f3:a3:98:
        77:a5:b1:c8:6b:e2:fd:8e:10:82:41:58:c2:8d:8c:46:af:5f:
        11:d8:74:28:d8:7d:47:1c:d4:be:40:84:ab:b6:92:ea:22:62:
        4c:11:dd:c9:fc:76:83:23:ca:7a:69:d0:a3:5f:73:32:79:76:
        5b:18:ed:77:de:95:86:fb:77:4e:5a:5d:54:bd:3e:46:02:95:
        94:c0:9d:73:5f:0e:63:96:eb:84:3b:36:35:ba:03:50:f7:9c:
        ef:43:d6:37:b0:4f:c0:94:88:31:59:60:35:7b:be:25:59:9b:
        06:6a:88:99:a4:8c:79:fa:ba:20:9a:2d:31:24:e7:f7:19:67:
        33:aa:49:8c:72:64:3f:b3:a4:ee:8e:67:e9:a2:8b:f4:d4:17:
        99:50:c0:ff:ca:b1:dc:9c:0e:90:73:19:45:f9:5e:89:31:4e:
        57:13:af:6b:3c:87:f7:9e:d6:21:5a:31:6c:8c:29:85:ff:1d:
        a0:0b:12:d3
-----BEGIN CERTIFICATE-----
MIIDXDCCAkSgAwIBAgIQROBan8XJ3OC0SYSDq0ocUjANBgkqhkiG9w0BAQsFADAW
MRQwEgYDVQQDDAt0ZWFtMjM4LW5ldDAeFw0yMzExMDQxMTMyMTdaFw0yNjEwMTkx
MTMyMTdaMBkxFzAVBgNVBAMMDnRlYW0yMzgtY2xpZW50MIIBIjANBgkqhkiG9w0B
AQEFAAOCAQ8AMIIBCgKCAQEA7qM6YlFyFpUYuStXV7Sob6Fa3QLv0WfyYA2tLola
LdeXajd8URemt7pYFMFRM3fgAN4qD4Rn1TuRXt4FK6orPJZUK+mOxohWZ1/Ds0wv
LG4CTm4Un7ZhDG34cZ64W1JUHZuD+PdNlE3mswckluJznbGkyXMUUDaYht6pEtpv
3pzXkq/rwtAnqyyuq0aChWcI7twgK4A6nhn8CzJFzp0SScG/H9/W2/wIlKbhXxdL
thktKjzg3dfT79q+DmSpR2OXTZ+XPZTOoI3Nd0JmyOCC6SXJcJVa/wA2XURSaA8Q
lNBG2eSBqzjc9IqzuanG5rQTbc4uXAqWwyn6JwBrjVFmKQIDAQABo4GiMIGfMAkG
A1UdEwQCMAAwHQYDVR0OBBYEFGfVW8pkjRr7lXpr3HyTcFHGXdTcMFEGA1UdIwRK
MEiAFGqsUR2k0UJ/v1jeWkHEofHPeQczoRqkGDAWMRQwEgYDVQQDDAt0ZWFtMjM4
LW5ldIIUTTNBt2ftRj+KmMoGsnFYu1HsQBowEwYDVR0lBAwwCgYIKwYBBQUHAwIw
CwYDVR0PBAQDAgeAMA0GCSqGSIb3DQEBCwUAA4IBAQArH41w2iCnFFYhn5kFXUCv
+DejEeXRgAj7+iuAiB1J12v8u0es/+u7ajFDbsU07s0GBCUYgOMwPghJ7s8Czb1B
NQ3Jenvzo5h3pbHIa+L9jhCCQVjCjYxGr18R2HQo2H1HHNS+QISrtpLqImJMEd3J
/HaDI8p6adCjX3MyeXZbGO133pWG+3dOWl1UvT5GApWUwJ1zXw5jluuEOzY1ugNQ
95zvQ9Y3sE/AlIgxWWA1e74lWZsGaoiZpIx5+rogmi0xJOf3GWczqkmMcmQ/s6Tu
jmfpoov01BeZUMD/yrHcnA6QcxlF+V6JMU5XE69rPIf3ntYhWjFsjCmF/x2gCxLT
-----END CERTIFICATE-----
