Certificate:
    Data:
        Version: 3 (0x2)
        Serial Number:
            7a:32:11:bf:77:27:ec:81:ca:95:ed:21:ff:d2:e3:03
        Signature Algorithm: sha256WithRSAEncryption
        Issuer: CN=team238-net
        Validity
            Not Before: Nov  3 20:43:39 2023 GMT
            Not After : Oct 18 20:43:39 2026 GMT
        Subject: CN=team238-client
        Subject Public Key Info:
            Public Key Algorithm: rsaEncryption
                Public-Key: (2048 bit)
                Modulus:
                    00:c0:54:54:89:0b:50:27:ac:0c:a6:73:4f:8d:71:
                    ef:67:c6:5d:7c:bc:65:21:44:74:8d:57:3d:d9:f4:
                    79:11:c9:b9:a8:80:13:5c:5a:20:48:d4:0f:34:4e:
                    0b:9c:75:8b:af:53:99:c4:4a:3f:8c:56:d3:ab:87:
                    ed:93:2b:da:fe:cc:f5:b7:8f:bc:ac:ef:c2:0d:ac:
                    32:5c:9c:32:6e:b7:04:c9:4b:a5:20:f2:9d:13:b2:
                    7c:5b:7f:35:e4:a2:71:47:95:25:e0:3c:ee:f5:bc:
                    f0:0b:a8:2e:fe:19:0c:7f:1c:3b:87:eb:ee:ca:3a:
                    00:02:00:9f:0f:e0:f9:12:a0:bc:2c:fd:92:8c:ba:
                    c1:04:0c:c3:e7:74:cd:02:3e:59:7c:ab:75:16:f7:
                    eb:6c:df:db:7d:69:9c:a7:92:e5:ee:8e:5a:9c:52:
                    9b:bf:a0:ed:39:a9:a8:1d:9a:da:84:c3:09:61:d1:
                    7c:41:ef:3a:53:b0:ed:bf:67:fd:00:e0:37:11:13:
                    f5:de:aa:39:27:ee:34:05:d8:6a:25:ad:57:6d:4a:
                    a7:32:ff:a6:cf:97:13:2d:ec:a0:58:64:fd:23:f3:
                    e3:76:34:d8:3d:57:70:6c:d8:83:ae:49:b4:c8:46:
                    b8:d1:b8:5d:56:b5:45:68:b9:4a:16:01:3d:36:85:
                    62:01
                Exponent: 65537 (0x10001)
        X509v3 extensions:
            X509v3 Basic Constraints: 
                CA:FALSE
            X509v3 Subject Key Identifier: 
                7B:D7:F1:46:C7:1B:6C:17:2D:C7:6F:6C:03:3F:C6:25:50:F7:DC:EA
            X509v3 Authority Key Identifier: 
                keyid:BA:E8:93:57:C7:E8:24:5B:00:DD:FB:1D:9C:B0:40:3F:A7:F3:A2:BF
                DirName:/CN=team238-net
                serial:02:3C:86:CC:0D:17:B3:33:EC:E1:FC:77:32:EA:10:D7:79:1C:98:D2
            X509v3 Extended Key Usage: 
                TLS Web Client Authentication
            X509v3 Key Usage: 
                Digital Signature
    Signature Algorithm: sha256WithRSAEncryption
    Signature Value:
        1a:43:45:bf:a0:0d:d9:3e:b2:7a:48:c3:78:07:a2:d4:b7:ab:
        53:03:d6:08:0c:f1:7d:bf:9b:11:c6:bc:7f:f9:1a:df:70:80:
        94:c6:83:e5:9a:a1:00:cb:cf:39:01:dc:a9:0f:d4:71:49:98:
        72:5d:76:37:19:74:ee:36:48:9c:b0:7c:1d:2e:67:94:bc:90:
        28:97:89:28:b0:b1:6c:50:c7:7d:fd:e0:bf:b3:e4:fc:5a:40:
        ac:f1:23:8b:10:fd:74:96:9c:93:0f:65:22:12:41:27:7a:79:
        2b:0d:52:72:4b:d6:be:55:a5:13:d6:e1:1a:5a:32:b0:53:07:
        f7:5e:ec:e1:86:3a:e7:07:67:50:ea:7a:24:48:1f:57:2e:4c:
        a4:c4:cb:70:63:48:cf:cf:53:9e:7d:5f:be:bc:32:87:3a:66:
        1e:82:c0:a5:c7:83:87:6e:e7:90:42:88:2e:76:fa:b8:f9:0b:
        4a:b9:6e:25:57:3b:dc:77:8e:59:2c:52:a8:1f:e1:83:73:68:
        7e:45:48:89:02:d6:d8:24:4b:b4:96:87:50:88:95:77:2c:e3:
        f0:90:36:12:c7:75:f8:76:0b:16:53:40:f6:f5:86:c4:36:2b:
        82:95:62:f8:2b:1e:67:f1:e5:e3:30:7b:26:9d:52:41:5c:dd:
        07:01:e6:c2
-----BEGIN CERTIFICATE-----
MIIDXDCCAkSgAwIBAgIQejIRv3cn7IHKle0h/9LjAzANBgkqhkiG9w0BAQsFADAW
MRQwEgYDVQQDDAt0ZWFtMjM4LW5ldDAeFw0yMzExMDMyMDQzMzlaFw0yNjEwMTgy
MDQzMzlaMBkxFzAVBgNVBAMMDnRlYW0yMzgtY2xpZW50MIIBIjANBgkqhkiG9w0B
AQEFAAOCAQ8AMIIBCgKCAQEAwFRUiQtQJ6wMpnNPjXHvZ8ZdfLxlIUR0jVc92fR5
Ecm5qIATXFogSNQPNE4LnHWLr1OZxEo/jFbTq4ftkyva/sz1t4+8rO/CDawyXJwy
brcEyUulIPKdE7J8W3815KJxR5Ul4Dzu9bzwC6gu/hkMfxw7h+vuyjoAAgCfD+D5
EqC8LP2SjLrBBAzD53TNAj5ZfKt1FvfrbN/bfWmcp5Ll7o5anFKbv6DtOamoHZra
hMMJYdF8Qe86U7Dtv2f9AOA3ERP13qo5J+40BdhqJa1XbUqnMv+mz5cTLeygWGT9
I/PjdjTYPVdwbNiDrkm0yEa40bhdVrVFaLlKFgE9NoViAQIDAQABo4GiMIGfMAkG
A1UdEwQCMAAwHQYDVR0OBBYEFHvX8UbHG2wXLcdvbAM/xiVQ99zqMFEGA1UdIwRK
MEiAFLrok1fH6CRbAN37HZywQD+n86K/oRqkGDAWMRQwEgYDVQQDDAt0ZWFtMjM4
LW5ldIIUAjyGzA0XszPs4fx3MuoQ13kcmNIwEwYDVR0lBAwwCgYIKwYBBQUHAwIw
CwYDVR0PBAQDAgeAMA0GCSqGSIb3DQEBCwUAA4IBAQAaQ0W/oA3ZPrJ6SMN4B6LU
t6tTA9YIDPF9v5sRxrx/+RrfcICUxoPlmqEAy885AdypD9RxSZhyXXY3GXTuNkic
sHwdLmeUvJAol4kosLFsUMd9/eC/s+T8WkCs8SOLEP10lpyTD2UiEkEnenkrDVJy
S9a+VaUT1uEaWjKwUwf3XuzhhjrnB2dQ6nokSB9XLkykxMtwY0jPz1OefV++vDKH
OmYegsClx4OHbueQQogudvq4+QtKuW4lVzvcd45ZLFKoH+GDc2h+RUiJAtbYJEu0
lodQiJV3LOPwkDYSx3X4dgsWU0D29YbENiuClWL4Kx5n8eXjMHsmnVJBXN0HAebC
-----END CERTIFICATE-----
