Certificate:
    Data:
        Version: 3 (0x2)
        Serial Number:
            d1:1e:3d:c7:f3:97:e8:aa:4a:cf:32:d2:37:de:05:44
        Signature Algorithm: sha256WithRSAEncryption
        Issuer: CN=team238-net
        Validity
            Not Before: Nov  4 11:32:17 2023 GMT
            Not After : Oct 19 11:32:17 2026 GMT
        Subject: CN=team238-server
        Subject Public Key Info:
            Public Key Algorithm: rsaEncryption
                Public-Key: (2048 bit)
                Modulus:
                    00:8c:d5:39:1c:af:0e:22:26:60:f4:dd:fc:77:57:
                    10:18:49:f8:8f:a5:dd:d3:77:e5:71:ff:3c:e8:7f:
                    f4:a4:8a:49:00:a4:72:8d:0f:2c:e9:cd:31:54:ea:
                    c7:b0:f2:c0:1d:0f:44:09:74:a5:2c:7c:ac:8e:e6:
                    e6:27:99:5e:15:6d:e8:76:be:48:3d:74:03:2d:ea:
                    f4:85:c4:46:57:04:3e:19:89:9b:6e:38:a2:db:96:
                    03:d7:d9:ea:7b:28:23:87:77:94:8f:f4:f5:23:57:
                    49:e4:5f:95:92:45:7c:2e:c1:60:12:ed:fb:3f:4e:
                    f5:49:4f:a9:93:67:cf:cc:8e:e6:b4:88:c4:b8:1a:
                    98:71:e2:cb:43:58:f4:38:aa:f6:11:b7:de:ab:54:
                    19:e6:52:d7:33:8a:08:e5:1e:f5:00:5a:51:f7:21:
                    74:2c:26:84:12:ea:92:1c:ea:49:a5:46:2c:dd:91:
                    70:e3:95:9c:4f:02:e5:67:13:54:9e:b4:73:f7:69:
                    c2:d2:d1:e8:c3:7f:d9:f1:16:10:6d:9e:b8:7e:c0:
                    08:77:e0:28:20:17:f4:19:3b:76:da:87:7a:34:92:
                    5c:29:59:a0:ef:6b:ba:a9:88:cb:b8:7c:cb:2a:00:
                    d1:73:7d:4b:68:c5:97:f2:5a:bb:74:d1:74:f5:57:
                    07:61
                Exponent: 65537 (0x10001)
        X509v3 extensions:
            X509v3 Basic Constraints: 
                CA:FALSE
            X509v3 Subject Key Identifier: 
                FD:94:55:EE:17:56:D0:18:24:AE:74:12:DA:CC:FE:76:7F:D7:5F:BA
            X509v3 Authority Key Identifier: 
                keyid:6A:AC:51:1D:A4:D1:42:7F:BF:58:DE:5A:41:C4:A1:F1:CF:79:07:33
                DirName:/CN=team238-net
                serial:4D:33:41:B7:67:ED:46:3F:8A:98:CA:06:B2:71:58:BB:51:EC:40:1A
            X509v3 Extended Key Usage: 
                TLS Web Server Authentication
            X509v3 Key Usage: 
                Digital Signature, Key Encipherment
            X509v3 Subject Alternative Name: 
                DNS:team238-server
    Signature Algorithm: sha256WithRSAEncryption
    Signature Value:
        40:f1:0a:48:2a:96:93:36:66:4a:ca:92:7f:b2:74:9c:35:55:
        59:3a:5a:26:8b:d6:f4:38:8b:6e:10:4b:14:04:52:16:de:2a:
        83:a7:d2:0f:82:c1:2a:16:a6:fb:df:47:52:1d:39:46:64:32:
        f1:42:c7:61:3f:66:c4:88:46:49:00:4e:2b:87:c0:8e:b5:5e:
        56:bc:59:1a:1d:21:4a:50:62:83:68:7a:1f:72:ba:99:e0:34:
        60:3a:eb:c5:57:47:4d:66:f8:89:ab:ce:94:ba:11:11:3f:e2:
        31:b8:b2:61:c2:73:d4:ab:f2:d3:84:c4:5a:17:0c:1c:b7:55:
        17:6c:74:8b:9f:5d:70:cc:f0:51:4c:b4:ac:82:2b:db:36:19:
        e8:f0:0b:29:f2:53:ec:ac:f6:12:0b:50:1c:18:65:a2:b3:78:
        01:fa:19:bf:85:10:e9:c0:91:41:cd:00:11:c5:01:95:c5:c2:
        6f:42:32:21:1f:4a:a4:5a:8d:84:87:92:5c:e9:b5:78:eb:72:
        28:b2:ea:41:9a:06:5e:44:b0:a6:91:37:50:f2:7f:41:5a:de:
        7d:c8:dd:9b:9c:a8:38:e4:c6:2d:86:6f:d9:f8:e6:40:78:68:
        c6:9f:9d:c2:2d:a7:47:d3:a9:77:f6:c1:70:65:07:89:0c:9d:
        19:f9:c1:2d
-----BEGIN CERTIFICATE-----
MIIDeDCCAmCgAwIBAgIRANEePcfzl+iqSs8y0jfeBUQwDQYJKoZIhvcNAQELBQAw
FjEUMBIGA1UEAwwLdGVhbTIzOC1uZXQwHhcNMjMxMTA0MTEzMjE3WhcNMjYxMDE5
MTEzMjE3WjAZMRcwFQYDVQQDDA50ZWFtMjM4LXNlcnZlcjCCASIwDQYJKoZIhvcN
AQEBBQADggEPADCCAQoCggEBAIzVORyvDiImYPTd/HdXEBhJ+I+l3dN35XH/POh/
9KSKSQCkco0PLOnNMVTqx7DywB0PRAl0pSx8rI7m5ieZXhVt6Ha+SD10Ay3q9IXE
RlcEPhmJm244otuWA9fZ6nsoI4d3lI/09SNXSeRflZJFfC7BYBLt+z9O9UlPqZNn
z8yO5rSIxLgamHHiy0NY9Diq9hG33qtUGeZS1zOKCOUe9QBaUfchdCwmhBLqkhzq
SaVGLN2RcOOVnE8C5WcTVJ60c/dpwtLR6MN/2fEWEG2euH7ACHfgKCAX9Bk7dtqH
ejSSXClZoO9ruqmIy7h8yyoA0XN9S2jFl/Jau3TRdPVXB2ECAwEAAaOBvTCBujAJ
BgNVHRMEAjAAMB0GA1UdDgQWBBT9lFXuF1bQGCSudBLazP52f9dfujBRBgNVHSME
SjBIgBRqrFEdpNFCf79Y3lpBxKHxz3kHM6EapBgwFjEUMBIGA1UEAwwLdGVhbTIz
OC1uZXSCFE0zQbdn7UY/ipjKBrJxWLtR7EAaMBMGA1UdJQQMMAoGCCsGAQUFBwMB
MAsGA1UdDwQEAwIFoDAZBgNVHREEEjAQgg50ZWFtMjM4LXNlcnZlcjANBgkqhkiG
9w0BAQsFAAOCAQEAQPEKSCqWkzZmSsqSf7J0nDVVWTpaJovW9DiLbhBLFARSFt4q
g6fSD4LBKham+99HUh05RmQy8ULHYT9mxIhGSQBOK4fAjrVeVrxZGh0hSlBig2h6
H3K6meA0YDrrxVdHTWb4iavOlLoRET/iMbiyYcJz1Kvy04TEWhcMHLdVF2x0i59d
cMzwUUy0rIIr2zYZ6PALKfJT7Kz2EgtQHBhlorN4AfoZv4UQ6cCRQc0AEcUBlcXC
b0IyIR9KpFqNhIeSXOm1eOtyKLLqQZoGXkSwppE3UPJ/QVrefcjdm5yoOOTGLYZv
2fjmQHhoxp+dwi2nR9Opd/bBcGUHiQydGfnBLQ==
-----END CERTIFICATE-----
