Certificate:
    Data:
        Version: 3 (0x2)
        Serial Number:
            8b:5f:9e:f9:6b:6e:9b:f0:24:52:1f:e3:15:b2:5e:4f
        Signature Algorithm: sha256WithRSAEncryption
        Issuer: CN=team251-net
        Validity
            Not Before: Nov  3 20:43:53 2023 GMT
            Not After : Oct 18 20:43:53 2026 GMT
        Subject: CN=team251-client
        Subject Public Key Info:
            Public Key Algorithm: rsaEncryption
                Public-Key: (2048 bit)
                Modulus:
                    00:c3:d4:58:89:9f:6c:73:2d:81:99:19:e1:cf:a2:
                    2b:4e:48:d0:55:af:89:b1:e4:10:8c:c1:10:35:e4:
                    ae:33:e0:06:ed:ac:81:8e:fa:85:3f:2d:3f:0a:d8:
                    59:8f:c8:3c:ec:c3:36:0b:f6:52:53:87:d9:3a:fa:
                    8a:8e:77:bc:a7:25:8d:04:09:1a:81:ba:00:b6:c0:
                    9d:b9:17:4c:ce:b8:d1:e6:43:66:83:a8:9d:29:f9:
                    09:17:ce:0f:57:3a:d5:c2:29:98:1d:97:f3:f3:22:
                    b4:53:ae:11:36:2e:a6:76:ef:24:8f:66:c0:92:7a:
                    df:d3:b8:69:40:e4:6f:8c:f4:d4:f2:78:2d:e0:40:
                    3e:4a:e0:21:8f:e0:1e:58:4a:12:1c:11:3e:07:e3:
                    c5:b4:ac:40:84:5d:f4:f7:53:07:f8:d4:a2:e8:01:
                    f9:1b:88:47:af:78:8e:43:42:1b:d1:0f:6c:a1:dc:
                    3c:16:c8:f9:9f:a4:f0:e3:80:3f:c4:0e:ce:a9:39:
                    24:25:31:df:06:9c:b9:17:1b:23:8c:33:c1:ca:ff:
                    a3:61:c3:69:e1:3a:1b:e3:55:cd:eb:dd:88:21:e6:
                    75:51:14:60:b9:30:b3:28:99:fa:20:0f:8e:ef:ab:
                    c5:86:af:da:ac:fa:63:32:be:94:b4:c4:2e:89:8d:
                    78:25
                Exponent: 65537 (0x10001)
        X509v3 extensions:
            X509v3 Basic Constraints: 
                CA:FALSE
            X509v3 Subject Key Identifier: 
                53:A6:33:24:C6:22:01:4F:84:76:43:E5:15:9C:BD:48:9F:5A:EA:F4
            X509v3 Authority Key Identifier: 
                keyid:75:9D:6E:8A:A9:81:C7:BD:A5:40:17:4C:79:77:5D:D4:38:F7:A3:D2
                DirName:/CN=team251-net
                serial:63:4E:86:E4:CC:CE:D5:F2:43:7E:94:88:B7:EF:12:53:0F:EA:BC:FA
            X509v3 Extended Key Usage: 
                TLS Web Client Authentication
            X509v3 Key Usage: 
                Digital Signature
    Signature Algorithm: sha256WithRSAEncryption
    Signature Value:
        79:92:8a:99:49:6a:91:fd:6e:cf:fd:b9:f4:b9:ce:7b:8c:14:
        cf:eb:36:ef:28:fa:f1:b5:99:b0:04:74:ef:52:f5:f0:32:02:
        15:e1:bd:63:50:53:da:d9:54:a8:aa:6b:c6:15:3c:5e:de:dd:
        22:5f:e5:5d:60:3e:63:43:81:ac:09:b4:59:04:b0:8e:58:98:
        e5:51:5b:c9:87:3a:1e:c4:fc:a0:92:b5:3d:e1:64:4a:fb:fb:
        20:e7:68:d6:15:aa:08:bb:55:61:33:cd:6b:6b:ac:59:fe:fe:
        4a:b1:39:ad:8b:ad:cc:aa:e3:bf:fc:da:ea:59:16:dd:6e:a3:
        50:fa:a5:1e:a5:ef:fe:52:10:f2:d6:79:f5:b1:aa:43:4d:15:
        ed:01:04:25:3e:69:8d:51:74:59:24:d2:de:c0:8a:9c:93:9f:
        49:5f:ba:39:14:fc:5d:f9:32:1a:f0:55:9f:26:f7:12:31:86:
        3a:a6:09:81:5e:a0:0d:d2:ad:d6:de:eb:ca:da:22:cf:23:d2:
        18:45:9f:87:76:0b:45:9b:dd:96:f6:68:93:dc:dc:39:c6:46:
        a8:47:06:fa:6f:56:dc:87:4d:3b:0d:20:27:10:36:f0:3c:0a:
        c7:dd:54:6d:05:9a:53:21:6a:a8:80:c5:22:57:15:39:09:c9:
        9d:aa:ce:c0
-----BEGIN CERTIFICATE-----
MIIDXTCCAkWgAwIBAgIRAItfnvlrbpvwJFIf4xWyXk8wDQYJKoZIhvcNAQELBQAw
FjEUMBIGA1UEAwwLdGVhbTI1MS1uZXQwHhcNMjMxMTAzMjA0MzUzWhcNMjYxMDE4
MjA0MzUzWjAZMRcwFQYDVQQDDA50ZWFtMjUxLWNsaWVudDCCASIwDQYJKoZIhvcN
AQEBBQADggEPADCCAQoCggEBAMPUWImfbHMtgZkZ4c+iK05I0FWvibHkEIzBEDXk
rjPgBu2sgY76hT8tPwrYWY/IPOzDNgv2UlOH2Tr6io53vKcljQQJGoG6ALbAnbkX
TM640eZDZoOonSn5CRfOD1c61cIpmB2X8/MitFOuETYupnbvJI9mwJJ639O4aUDk
b4z01PJ4LeBAPkrgIY/gHlhKEhwRPgfjxbSsQIRd9PdTB/jUougB+RuIR694jkNC
G9EPbKHcPBbI+Z+k8OOAP8QOzqk5JCUx3wacuRcbI4wzwcr/o2HDaeE6G+NVzevd
iCHmdVEUYLkwsyiZ+iAPju+rxYav2qz6YzK+lLTELomNeCUCAwEAAaOBojCBnzAJ
BgNVHRMEAjAAMB0GA1UdDgQWBBRTpjMkxiIBT4R2Q+UVnL1In1rq9DBRBgNVHSME
SjBIgBR1nW6KqYHHvaVAF0x5d13UOPej0qEapBgwFjEUMBIGA1UEAwwLdGVhbTI1
MS1uZXSCFGNOhuTMztXyQ36UiLfvElMP6rz6MBMGA1UdJQQMMAoGCCsGAQUFBwMC
MAsGA1UdDwQEAwIHgDANBgkqhkiG9w0BAQsFAAOCAQEAeZKKmUlqkf1uz/259LnO
e4wUz+s27yj68bWZsAR071L18DICFeG9Y1BT2tlUqKprxhU8Xt7dIl/lXWA+Y0OB
rAm0WQSwjliY5VFbyYc6HsT8oJK1PeFkSvv7IOdo1hWqCLtVYTPNa2usWf7+SrE5
rYutzKrjv/za6lkW3W6jUPqlHqXv/lIQ8tZ59bGqQ00V7QEEJT5pjVF0WSTS3sCK
nJOfSV+6ORT8XfkyGvBVnyb3EjGGOqYJgV6gDdKt1t7rytoizyPSGEWfh3YLRZvd
lvZok9zcOcZGqEcG+m9W3IdNOw0gJxA28DwKx91UbQWaUyFqqIDFIlcVOQnJnarO
wA==
-----END CERTIFICATE-----
