Certificate:
    Data:
        Version: 3 (0x2)
        Serial Number:
            40:9e:d6:d9:e9:71:eb:46:c9:c7:ef:59:97:87:1c:95
        Signature Algorithm: sha256WithRSAEncryption
        Issuer: CN=team251-net
        Validity
            Not Before: Nov  3 20:43:53 2023 GMT
            Not After : Oct 18 20:43:53 2026 GMT
        Subject: CN=team251-server
        Subject Public Key Info:
            Public Key Algorithm: rsaEncryption
                Public-Key: (2048 bit)
                Modulus:
                    00:a1:13:ee:99:7b:20:e1:14:15:8f:61:02:3c:31:
                    ff:0c:0d:bc:4c:14:36:2e:9a:5e:5a:19:97:b8:45:
                    2b:90:9c:27:b0:fd:43:62:99:07:ca:a0:cf:54:c2:
                    13:22:6d:11:03:a9:d4:2e:70:08:75:ea:a2:cc:22:
                    e4:ac:46:2f:c5:62:5c:6e:90:c0:c7:88:b8:5b:a6:
                    d4:4d:f5:62:0b:4d:9a:5d:4f:02:8a:89:22:8b:cd:
                    7d:af:89:5f:8f:67:c0:6a:f8:3a:bc:36:bd:98:69:
                    5a:ea:d3:af:65:bc:06:e6:60:7e:c3:54:50:cb:ca:
                    73:7e:60:d7:d5:1e:7e:ad:4a:55:12:1b:a5:8e:a2:
                    7a:da:de:41:fd:f2:29:b3:90:e1:97:89:6c:43:87:
                    99:33:6c:99:a6:1c:4a:5b:8f:0d:44:2c:cd:bc:d0:
                    b5:2e:2d:e7:4f:3c:24:19:25:41:ee:66:01:b0:f3:
                    7e:d6:8b:4d:02:ed:cc:51:58:90:21:97:37:87:73:
                    d2:23:31:55:68:12:f1:2c:4a:db:3e:33:fa:3e:35:
                    27:5e:ec:fc:72:af:57:3b:c7:ae:a7:6f:3e:e9:8c:
                    b8:24:75:81:33:f6:3e:a4:62:c5:93:28:a4:e8:26:
                    1f:89:29:8d:64:21:8e:6d:15:df:1b:03:10:a6:4f:
                    9a:79
                Exponent: 65537 (0x10001)
        X509v3 extensions:
            X509v3 Basic Constraints: 
                CA:FALSE
            X509v3 Subject Key Identifier: 
                C4:A9:BA:A1:70:09:2A:AB:A4:E8:C8:26:43:01:DB:84:8C:E0:D7:46
            X509v3 Authority Key Identifier: 
                keyid:75:9D:6E:8A:A9:81:C7:BD:A5:40:17:4C:79:77:5D:D4:38:F7:A3:D2
                DirName:/CN=team251-net
                serial:63:4E:86:E4:CC:CE:D5:F2:43:7E:94:88:B7:EF:12:53:0F:EA:BC:FA
            X509v3 Extended Key Usage: 
                TLS Web Server Authentication
            X509v3 Key Usage: 
                Digital Signature, Key Encipherment
            X509v3 Subject Alternative Name: 
                DNS:team251-server
    Signature Algorithm: sha256WithRSAEncryption
    Signature Value:
        6b:d4:2d:de:8d:35:16:c8:f5:e1:49:f4:7c:d5:d8:91:10:86:
        49:7e:10:2f:c4:ea:05:de:05:ab:64:5a:60:83:c2:2a:78:c7:
        f3:ff:91:11:20:8a:8d:3a:0a:61:bb:f0:35:26:a3:af:70:c4:
        d2:e5:cd:d1:0d:6d:ca:ab:93:ac:e5:d4:c8:d1:5f:e4:dd:26:
        d1:fa:d8:5d:80:a7:21:61:07:e1:83:e9:bf:6b:01:77:1e:62:
        0a:50:9b:4a:24:e4:b8:18:8f:34:65:54:f1:16:f2:c8:11:d9:
        0d:5f:1f:6b:da:88:16:f5:61:e2:37:de:5b:36:9f:36:f9:61:
        e5:41:f8:56:63:3d:9d:f9:1a:0f:0e:42:08:5a:2c:93:cc:4d:
        54:80:50:7a:96:7d:65:a2:95:32:c3:68:1d:9f:80:3b:65:eb:
        84:e2:a0:61:bc:14:a1:89:f0:e1:68:6f:89:bf:1a:d5:9d:16:
        71:16:cf:86:b8:1b:42:00:d0:1a:ee:d8:62:79:e6:94:f9:22:
        57:f0:e6:0e:46:bf:ed:1e:5d:a5:ec:87:0a:d0:88:4c:30:b6:
        e8:77:12:f9:35:6d:7a:7a:30:19:c2:78:42:66:3e:5d:8f:b5:
        1b:38:b8:1d:4b:97:27:cc:f5:ea:8c:23:60:96:f5:e0:fc:fb:
        e3:65:8c:ef
-----BEGIN CERTIFICATE-----
MIIDdzCCAl+gAwIBAgIQQJ7W2elx60bJx+9Zl4cclTANBgkqhkiG9w0BAQsFADAW
MRQwEgYDVQQDDAt0ZWFtMjUxLW5ldDAeFw0yMzExMDMyMDQzNTNaFw0yNjEwMTgy
MDQzNTNaMBkxFzAVBgNVBAMMDnRlYW0yNTEtc2VydmVyMIIBIjANBgkqhkiG9w0B
AQEFAAOCAQ8AMIIBCgKCAQEAoRPumXsg4RQVj2ECPDH/DA28TBQ2LppeWhmXuEUr
kJwnsP1DYpkHyqDPVMITIm0RA6nULnAIdeqizCLkrEYvxWJcbpDAx4i4W6bUTfVi
C02aXU8Ciokii819r4lfj2fAavg6vDa9mGla6tOvZbwG5mB+w1RQy8pzfmDX1R5+
rUpVEhuljqJ62t5B/fIps5Dhl4lsQ4eZM2yZphxKW48NRCzNvNC1Li3nTzwkGSVB
7mYBsPN+1otNAu3MUViQIZc3h3PSIzFVaBLxLErbPjP6PjUnXuz8cq9XO8eup28+
6Yy4JHWBM/Y+pGLFkyik6CYfiSmNZCGObRXfGwMQpk+aeQIDAQABo4G9MIG6MAkG
A1UdEwQCMAAwHQYDVR0OBBYEFMSpuqFwCSqrpOjIJkMB24SM4NdGMFEGA1UdIwRK
MEiAFHWdboqpgce9pUAXTHl3XdQ496PSoRqkGDAWMRQwEgYDVQQDDAt0ZWFtMjUx
LW5ldIIUY06G5MzO1fJDfpSIt+8SUw/qvPowEwYDVR0lBAwwCgYIKwYBBQUHAwEw
CwYDVR0PBAQDAgWgMBkGA1UdEQQSMBCCDnRlYW0yNTEtc2VydmVyMA0GCSqGSIb3
DQEBCwUAA4IBAQBr1C3ejTUWyPXhSfR81diREIZJfhAvxOoF3gWrZFpgg8IqeMfz
/5ERIIqNOgphu/A1JqOvcMTS5c3RDW3Kq5Os5dTI0V/k3SbR+thdgKchYQfhg+m/
awF3HmIKUJtKJOS4GI80ZVTxFvLIEdkNXx9r2ogW9WHiN95bNp82+WHlQfhWYz2d
+RoPDkIIWiyTzE1UgFB6ln1lopUyw2gdn4A7ZeuE4qBhvBShifDhaG+JvxrVnRZx
Fs+GuBtCANAa7thieeaU+SJX8OYORr/tHl2l7IcK0IhMMLbodxL5NW16ejAZwnhC
Zj5dj7UbOLgdS5cnzPXqjCNglvXg/PvjZYzv
-----END CERTIFICATE-----
