Certificate:
    Data:
        Version: 3 (0x2)
        Serial Number:
            42:41:9c:24:e8:cc:4c:cc:82:1d:a9:c6:aa:b2:ea:5e
        Signature Algorithm: sha256WithRSAEncryption
        Issuer: CN=team62-net
        Validity
            Not Before: Nov  3 20:40:20 2023 GMT
            Not After : Oct 18 20:40:20 2026 GMT
        Subject: CN=team62-server
        Subject Public Key Info:
            Public Key Algorithm: rsaEncryption
                Public-Key: (2048 bit)
                Modulus:
                    00:f4:4e:7a:ba:d4:0a:c6:74:51:dc:23:61:0d:1c:
                    5c:5d:d0:7a:b9:eb:37:27:8d:c6:72:f2:5c:f5:04:
                    d0:b1:aa:5b:71:f0:48:7c:37:c0:c3:89:3e:a1:bb:
                    99:2d:e0:78:51:18:ff:57:75:4b:89:de:1c:a1:61:
                    06:2c:84:b1:57:0b:e6:07:b8:e6:4b:2b:b5:11:75:
                    e4:ff:c2:a8:fc:51:b3:9b:3b:b9:4f:75:3e:11:0a:
                    59:e3:ab:92:5e:de:65:9f:e4:86:9e:ba:c8:33:1d:
                    0d:e6:3f:65:26:b9:cc:a8:c3:a8:c8:cb:ef:c7:b4:
                    32:a2:7f:e4:69:14:07:9c:ec:e6:b7:9c:26:08:86:
                    ea:c7:be:1d:87:72:15:60:e1:88:da:2c:b9:04:c2:
                    2b:3b:0f:9d:4c:f3:1b:d6:e1:6b:8f:d5:5c:5d:75:
                    61:b2:78:1f:64:8c:4b:cd:3a:fd:63:ab:91:d8:dd:
                    32:b1:d6:e8:a8:39:cc:31:4c:d9:35:32:8c:06:02:
                    17:83:49:5e:51:24:8a:66:db:6b:d7:22:a6:bd:7a:
                    25:17:53:0c:ed:c1:2e:cc:cf:30:e7:d9:21:7a:d0:
                    b1:b9:96:18:f5:b7:d4:63:63:a5:04:0f:77:36:eb:
                    23:d0:8f:46:14:e8:16:f0:b2:bd:4d:31:40:79:bb:
                    bc:e7
                Exponent: 65537 (0x10001)
        X509v3 extensions:
            X509v3 Basic Constraints: 
                CA:FALSE
            X509v3 Subject Key Identifier: 
                68:10:48:AC:A6:5B:8E:A8:D3:6C:81:95:11:5D:FD:D0:7D:A7:86:87
            X509v3 Authority Key Identifier: 
                keyid:32:B3:18:0A:69:B1:59:E8:12:F1:1A:55:B4:FA:E7:20:3A:1D:6F:70
                DirName:/CN=team62-net
                serial:0C:6B:1B:01:B2:72:75:3D:1D:36:13:7F:06:11:54:66:22:95:6A:16
            X509v3 Extended Key Usage: 
                TLS Web Server Authentication
            X509v3 Key Usage: 
                Digital Signature, Key Encipherment
            X509v3 Subject Alternative Name: 
                DNS:team62-server
    Signature Algorithm: sha256WithRSAEncryption
    Signature Value:
        bd:36:99:ba:5b:b1:47:d6:b1:4d:b6:76:50:57:78:2e:d9:32:
        be:a7:1a:85:42:9c:a0:f6:d6:a9:67:6d:41:65:1f:66:6d:8d:
        72:ed:af:2e:67:87:a1:c7:e5:12:b8:e8:0b:b7:fd:9e:92:f4:
        f2:87:17:b9:da:3f:74:93:d8:15:69:1c:2c:82:3a:b5:26:d7:
        93:54:cc:7a:66:77:1d:93:99:28:da:8b:d6:9d:47:74:d9:e3:
        46:d5:56:1b:b8:4e:18:2a:93:7d:4f:d2:86:92:61:d1:6f:6c:
        f7:e6:00:fe:e8:1a:a0:ec:2c:50:ae:76:a5:ca:5c:8d:72:f4:
        7f:89:76:f8:0c:58:a6:7c:b7:95:2c:9f:b3:39:87:e6:4d:93:
        1f:c2:b4:3e:c5:4b:ae:a4:34:55:08:2b:e9:ae:4a:2b:e7:30:
        eb:fd:9d:c3:ba:b5:21:e1:9a:6e:39:84:a1:a3:36:f0:80:f3:
        ba:f1:f3:3a:27:7b:d8:79:93:52:8b:6a:e4:6b:fc:6d:7c:57:
        a7:98:8b:05:50:ca:68:a3:31:ee:c8:54:02:da:9b:52:f6:b8:
        94:b9:40:b3:80:4f:6d:ca:7e:ad:ca:66:2f:2a:69:66:40:a1:
        83:d0:cc:b9:11:69:8f:10:b7:83:87:6a:fa:35:6f:8b:cc:ca:
        38:c2:88:ba
-----BEGIN CERTIFICATE-----
MIIDczCCAlugAwIBAgIQQkGcJOjMTMyCHanGqrLqXjANBgkqhkiG9w0BAQsFADAV
MRMwEQYDVQQDDAp0ZWFtNjItbmV0MB4XDTIzMTEwMzIwNDAyMFoXDTI2MTAxODIw
NDAyMFowGDEWMBQGA1UEAwwNdGVhbTYyLXNlcnZlcjCCASIwDQYJKoZIhvcNAQEB
BQADggEPADCCAQoCggEBAPROerrUCsZ0UdwjYQ0cXF3QernrNyeNxnLyXPUE0LGq
W3HwSHw3wMOJPqG7mS3geFEY/1d1S4neHKFhBiyEsVcL5ge45ksrtRF15P/CqPxR
s5s7uU91PhEKWeOrkl7eZZ/khp66yDMdDeY/ZSa5zKjDqMjL78e0MqJ/5GkUB5zs
5recJgiG6se+HYdyFWDhiNosuQTCKzsPnUzzG9bha4/VXF11YbJ4H2SMS806/WOr
kdjdMrHW6Kg5zDFM2TUyjAYCF4NJXlEkimbba9cipr16JRdTDO3BLszPMOfZIXrQ
sbmWGPW31GNjpQQPdzbrI9CPRhToFvCyvU0xQHm7vOcCAwEAAaOBuzCBuDAJBgNV
HRMEAjAAMB0GA1UdDgQWBBRoEEispluOqNNsgZURXf3QfaeGhzBQBgNVHSMESTBH
gBQysxgKabFZ6BLxGlW0+ucgOh1vcKEZpBcwFTETMBEGA1UEAwwKdGVhbTYyLW5l
dIIUDGsbAbJydT0dNhN/BhFUZiKVahYwEwYDVR0lBAwwCgYIKwYBBQUHAwEwCwYD
VR0PBAQDAgWgMBgGA1UdEQQRMA+CDXRlYW02Mi1zZXJ2ZXIwDQYJKoZIhvcNAQEL
BQADggEBAL02mbpbsUfWsU22dlBXeC7ZMr6nGoVCnKD21qlnbUFlH2ZtjXLtry5n
h6HH5RK46Au3/Z6S9PKHF7naP3ST2BVpHCyCOrUm15NUzHpmdx2TmSjai9adR3TZ
40bVVhu4Thgqk31P0oaSYdFvbPfmAP7oGqDsLFCudqXKXI1y9H+JdvgMWKZ8t5Us
n7M5h+ZNkx/CtD7FS66kNFUIK+muSivnMOv9ncO6tSHhmm45hKGjNvCA87rx8zon
e9h5k1KLauRr/G18V6eYiwVQymijMe7IVALam1L2uJS5QLOAT23Kfq3KZi8qaWZA
oYPQzLkRaY8Qt4OHavo1b4vMyjjCiLo=
-----END CERTIFICATE-----
