Certificate:
    Data:
        Version: 3 (0x2)
        Serial Number:
            85:ec:c3:52:4b:6e:71:16:3b:0e:c0:60:7d:9e:3f:3e
        Signature Algorithm: sha256WithRSAEncryption
        Issuer: CN=team62-net
        Validity
            Not Before: Nov  4 11:28:32 2023 GMT
            Not After : Oct 19 11:28:32 2026 GMT
        Subject: CN=team62-server
        Subject Public Key Info:
            Public Key Algorithm: rsaEncryption
                Public-Key: (2048 bit)
                Modulus:
                    00:ae:7d:fc:66:77:d9:5b:bf:d2:3f:3e:b6:33:f8:
                    fb:62:63:2e:ab:ab:21:42:ec:e7:b2:66:f3:9f:a8:
                    91:54:f4:1c:01:bb:fb:0e:45:c7:f3:48:64:02:32:
                    ae:4d:a7:76:dc:8e:85:bb:33:d0:25:7f:74:40:42:
                    01:91:53:68:97:4b:86:f1:e3:d6:62:29:de:c7:bc:
                    28:3c:90:5f:77:bb:6a:32:e3:75:e7:d6:df:76:1f:
                    3c:19:c8:79:07:92:6c:f5:77:b7:29:11:b7:f8:aa:
                    76:61:4e:e4:27:7d:d7:6a:1e:e5:be:57:d5:4c:bb:
                    7f:55:25:e7:c1:49:ea:42:18:92:f5:d3:e7:9b:2a:
                    1f:4e:29:47:a1:e8:06:d1:b3:bf:b8:29:6c:58:d3:
                    38:7d:e1:dd:6a:8d:22:3b:c7:3d:ac:34:e7:26:d4:
                    c2:a2:07:0c:c9:97:0e:9b:bf:f3:c1:da:9e:75:44:
                    0c:17:ed:51:ff:2a:c5:6a:3b:f8:50:65:ed:27:34:
                    37:fa:12:57:b9:71:6e:68:67:5e:06:6c:fd:47:c0:
                    1b:72:5a:39:7c:8a:ed:8f:5f:bd:23:6f:f5:09:f5:
                    6f:a5:e8:f8:ed:d9:13:66:29:b6:7e:5d:91:6b:96:
                    04:38:5c:71:d5:8d:ac:0c:b0:bc:d6:40:54:17:74:
                    7f:9f
                Exponent: 65537 (0x10001)
        X509v3 extensions:
            X509v3 Basic Constraints: 
                CA:FALSE
            X509v3 Subject Key Identifier: 
                9F:8A:53:2F:0D:6E:C1:ED:C6:B1:58:3F:7D:57:81:63:35:09:AF:07
            X509v3 Authority Key Identifier: 
                keyid:8E:99:28:77:37:A0:C3:56:FB:BB:6D:8B:EA:82:4D:EC:F2:EA:C1:9B
                DirName:/CN=team62-net
                serial:51:4E:46:AF:35:11:06:80:98:18:C2:44:2E:7E:4A:DA:BC:44:EA:7E
            X509v3 Extended Key Usage: 
                TLS Web Server Authentication
            X509v3 Key Usage: 
                Digital Signature, Key Encipherment
            X509v3 Subject Alternative Name: 
                DNS:team62-server
    Signature Algorithm: sha256WithRSAEncryption
    Signature Value:
        71:0b:08:1c:bf:3d:6a:83:61:65:fb:f5:13:e5:03:b2:04:a5:
        18:b2:32:fd:88:c7:09:c0:ec:a5:19:fb:17:2b:57:26:0d:f4:
        db:81:95:36:ee:74:ea:9c:08:fa:db:6d:06:44:48:4f:25:28:
        ea:a8:05:57:b8:2c:f3:ac:6a:9c:0d:42:b3:72:4b:fd:5c:00:
        bb:c2:5c:26:85:5d:57:2e:6e:5a:47:d5:90:61:1c:70:a6:e8:
        a1:4b:46:1f:11:d0:86:e3:58:6e:f1:34:97:d8:7c:7f:a1:90:
        e5:5a:ff:1d:fd:dc:c1:54:d9:c5:bb:2b:a5:6a:4f:31:15:64:
        f7:7f:5f:27:dd:19:58:84:aa:72:5e:52:be:b7:03:c9:12:1b:
        97:99:ee:7c:63:db:38:9a:56:f9:e0:44:1e:57:b5:47:ba:ba:
        48:df:6b:59:7f:5d:d9:24:0b:17:43:7a:1c:25:99:9e:af:8e:
        93:4b:7b:d7:63:4f:48:c5:a7:c9:94:11:d0:5a:10:72:26:65:
        95:6f:d9:5d:38:ed:be:db:8a:73:16:29:dd:32:ec:8b:7b:a4:
        7e:67:83:ef:b2:28:af:fc:03:10:ff:38:8c:e1:26:57:f2:16:
        1b:1e:5d:f7:5e:64:2d:52:c1:19:db:82:e3:76:61:f4:93:60:
        03:a3:6c:86
-----BEGIN CERTIFICATE-----
MIIDdDCCAlygAwIBAgIRAIXsw1JLbnEWOw7AYH2ePz4wDQYJKoZIhvcNAQELBQAw
FTETMBEGA1UEAwwKdGVhbTYyLW5ldDAeFw0yMzExMDQxMTI4MzJaFw0yNjEwMTkx
MTI4MzJaMBgxFjAUBgNVBAMMDXRlYW02Mi1zZXJ2ZXIwggEiMA0GCSqGSIb3DQEB
AQUAA4IBDwAwggEKAoIBAQCuffxmd9lbv9I/PrYz+PtiYy6rqyFC7OeyZvOfqJFU
9BwBu/sORcfzSGQCMq5Np3bcjoW7M9Alf3RAQgGRU2iXS4bx49ZiKd7HvCg8kF93
u2oy43Xn1t92HzwZyHkHkmz1d7cpEbf4qnZhTuQnfddqHuW+V9VMu39VJefBSepC
GJL10+ebKh9OKUeh6AbRs7+4KWxY0zh94d1qjSI7xz2sNOcm1MKiBwzJlw6bv/PB
2p51RAwX7VH/KsVqO/hQZe0nNDf6Ele5cW5oZ14GbP1HwBtyWjl8iu2PX70jb/UJ
9W+l6Pjt2RNmKbZ+XZFrlgQ4XHHVjawMsLzWQFQXdH+fAgMBAAGjgbswgbgwCQYD
VR0TBAIwADAdBgNVHQ4EFgQUn4pTLw1uwe3GsVg/fVeBYzUJrwcwUAYDVR0jBEkw
R4AUjpkodzegw1b7u22L6oJN7PLqwZuhGaQXMBUxEzARBgNVBAMMCnRlYW02Mi1u
ZXSCFFFORq81EQaAmBjCRC5+Stq8ROp+MBMGA1UdJQQMMAoGCCsGAQUFBwMBMAsG
A1UdDwQEAwIFoDAYBgNVHREEETAPgg10ZWFtNjItc2VydmVyMA0GCSqGSIb3DQEB
CwUAA4IBAQBxCwgcvz1qg2Fl+/UT5QOyBKUYsjL9iMcJwOylGfsXK1cmDfTbgZU2
7nTqnAj6220GREhPJSjqqAVXuCzzrGqcDUKzckv9XAC7wlwmhV1XLm5aR9WQYRxw
puihS0YfEdCG41hu8TSX2Hx/oZDlWv8d/dzBVNnFuyulak8xFWT3f18n3RlYhKpy
XlK+twPJEhuXme58Y9s4mlb54EQeV7VHurpI32tZf13ZJAsXQ3ocJZmer46TS3vX
Y09IxafJlBHQWhByJmWVb9ldOO2+24pzFindMuyLe6R+Z4Pvsiiv/AMQ/ziM4SZX
8hYbHl33XmQtUsEZ24LjdmH0k2ADo2yG
-----END CERTIFICATE-----
