Certificate:
    Data:
        Version: 3 (0x2)
        Serial Number:
            ae:c0:02:d9:af:ac:b9:23:b0:b9:97:3d:4b:47:a5:53
        Signature Algorithm: sha256WithRSAEncryption
        Issuer: CN=team62-net
        Validity
            Not Before: Nov  4 10:41:26 2023 GMT
            Not After : Oct 19 10:41:26 2026 GMT
        Subject: CN=team62-client
        Subject Public Key Info:
            Public Key Algorithm: rsaEncryption
                Public-Key: (2048 bit)
                Modulus:
                    00:df:62:06:24:af:33:e2:3a:5f:2a:ad:e7:c3:21:
                    5e:1b:33:18:86:05:9d:3b:8d:fc:ce:cf:81:3b:c4:
                    e7:ef:a8:9c:e7:dd:6a:e9:0c:44:06:d4:dd:9a:cb:
                    47:e0:fd:eb:1b:55:fc:2e:d7:ae:da:da:da:b0:21:
                    c7:64:56:b6:e3:b3:0b:9a:b0:27:fb:10:7b:46:23:
                    b8:6b:b9:b3:e5:7b:39:7a:0c:71:06:9d:3c:c5:44:
                    6d:b8:c6:01:f5:f2:fa:51:b9:bf:b4:4e:64:94:91:
                    fd:15:66:27:76:fe:75:2e:c1:9a:d9:76:a1:cf:8a:
                    a1:26:ca:74:3c:88:f8:8b:8f:5f:f3:a2:ec:23:4f:
                    d3:0b:bb:64:d8:7b:81:c4:a4:50:35:b8:8f:3e:3d:
                    dd:76:59:b3:47:ae:fb:ec:55:cc:ff:45:43:7a:92:
                    0b:b5:39:8d:06:60:95:03:51:7f:12:cf:32:24:6b:
                    86:c9:76:bb:0c:2a:16:f7:96:fe:ef:4a:59:34:c0:
                    20:a1:c0:2c:64:52:e8:61:c0:33:f3:3f:3e:8a:46:
                    6c:4f:ab:b1:fd:7a:2a:3c:47:51:b0:3c:38:c9:63:
                    58:7b:b7:52:67:eb:42:bf:17:21:b4:03:60:8f:c3:
                    82:3a:0c:03:30:e4:47:e6:98:3d:49:19:fb:b8:70:
                    f3:95
                Exponent: 65537 (0x10001)
        X509v3 extensions:
            X509v3 Basic Constraints: 
                CA:FALSE
            X509v3 Subject Key Identifier: 
                79:09:41:7F:A3:BA:6A:5C:26:11:E3:2D:71:E0:D8:49:0E:F9:0E:36
            X509v3 Authority Key Identifier: 
                keyid:0B:CE:EA:CE:9F:85:A2:8E:9A:20:4D:03:36:B7:DA:F4:1A:35:64:E3
                DirName:/CN=team62-net
                serial:0A:C4:3E:DB:69:B4:39:F8:2A:B1:93:5B:C2:2E:DD:12:DE:E4:ED:8F
            X509v3 Extended Key Usage: 
                TLS Web Client Authentication
            X509v3 Key Usage: 
                Digital Signature
    Signature Algorithm: sha256WithRSAEncryption
    Signature Value:
        65:e4:74:33:c0:8c:c4:90:8c:39:ec:94:8c:1e:9a:20:23:39:
        6b:65:79:ce:4d:fb:21:2e:1d:8c:3a:b0:a8:c2:88:ed:5e:fb:
        bf:c4:f6:e2:de:21:91:2b:cc:79:fa:fa:0f:02:27:65:16:3e:
        e9:b8:f1:09:ca:61:19:00:72:20:90:5a:c6:6a:e5:5e:c7:96:
        ee:bf:ea:aa:86:70:93:39:ba:08:cf:3e:d2:5d:54:c5:2c:15:
        d8:45:67:fc:02:a9:28:af:aa:a1:f2:04:cb:4c:4f:a7:34:4c:
        cf:c0:b3:bc:33:c6:03:63:7d:2c:98:5b:ac:e6:b8:bb:dd:dd:
        09:3d:df:d2:cd:e0:e3:2e:34:50:87:e5:c2:66:3a:c0:a3:57:
        db:ff:1e:55:6d:d8:09:68:6e:b5:ea:36:96:98:68:8f:58:a3:
        0e:8e:4d:fc:56:e0:db:be:71:f9:20:7b:7a:bc:58:f4:78:51:
        b2:5a:26:3a:97:68:d2:d8:37:fc:c5:1d:d3:33:4e:5d:e6:c5:
        61:fd:a7:71:d3:df:95:0f:ff:f9:bc:ca:83:4d:73:ea:99:a2:
        0d:29:49:e0:9f:27:9f:8c:53:fd:fa:d1:10:96:d3:e6:53:b4:
        1e:8c:2a:fd:87:04:54:12:c2:95:de:9d:97:82:ec:75:81:7a:
        9d:76:29:aa
-----BEGIN CERTIFICATE-----
MIIDWjCCAkKgAwIBAgIRAK7AAtmvrLkjsLmXPUtHpVMwDQYJKoZIhvcNAQELBQAw
FTETMBEGA1UEAwwKdGVhbTYyLW5ldDAeFw0yMzExMDQxMDQxMjZaFw0yNjEwMTkx
MDQxMjZaMBgxFjAUBgNVBAMMDXRlYW02Mi1jbGllbnQwggEiMA0GCSqGSIb3DQEB
AQUAA4IBDwAwggEKAoIBAQDfYgYkrzPiOl8qrefDIV4bMxiGBZ07jfzOz4E7xOfv
qJzn3WrpDEQG1N2ay0fg/esbVfwu167a2tqwIcdkVrbjswuasCf7EHtGI7hrubPl
ezl6DHEGnTzFRG24xgH18vpRub+0TmSUkf0VZid2/nUuwZrZdqHPiqEmynQ8iPiL
j1/zouwjT9MLu2TYe4HEpFA1uI8+Pd12WbNHrvvsVcz/RUN6kgu1OY0GYJUDUX8S
zzIka4bJdrsMKhb3lv7vSlk0wCChwCxkUuhhwDPzPz6KRmxPq7H9eio8R1GwPDjJ
Y1h7t1Jn60K/FyG0A2CPw4I6DAMw5EfmmD1JGfu4cPOVAgMBAAGjgaEwgZ4wCQYD
VR0TBAIwADAdBgNVHQ4EFgQUeQlBf6O6alwmEeMtceDYSQ75DjYwUAYDVR0jBEkw
R4AUC87qzp+Foo6aIE0DNrfa9Bo1ZOOhGaQXMBUxEzARBgNVBAMMCnRlYW02Mi1u
ZXSCFArEPttptDn4KrGTW8Iu3RLe5O2PMBMGA1UdJQQMMAoGCCsGAQUFBwMCMAsG
A1UdDwQEAwIHgDANBgkqhkiG9w0BAQsFAAOCAQEAZeR0M8CMxJCMOeyUjB6aICM5
a2V5zk37IS4djDqwqMKI7V77v8T24t4hkSvMefr6DwInZRY+6bjxCcphGQByIJBa
xmrlXseW7r/qqoZwkzm6CM8+0l1UxSwV2EVn/AKpKK+qofIEy0xPpzRMz8CzvDPG
A2N9LJhbrOa4u93dCT3f0s3g4y40UIflwmY6wKNX2/8eVW3YCWhuteo2lphoj1ij
Do5N/Fbg275x+SB7erxY9HhRslomOpdo0tg3/MUd0zNOXebFYf2ncdPflQ//+bzK
g01z6pmiDSlJ4J8nn4xT/frREJbT5lO0Howq/YcEVBLCld6dl4LsdYF6nXYpqg==
-----END CERTIFICATE-----
