Certificate:
    Data:
        Version: 3 (0x2)
        Serial Number:
            b7:f4:a4:f6:b2:aa:d0:08:a2:d5:e6:a8:9f:fa:b9:37
        Signature Algorithm: sha256WithRSAEncryption
        Issuer: CN=team62-net
        Validity
            Not Before: Nov  3 20:40:20 2023 GMT
            Not After : Oct 18 20:40:20 2026 GMT
        Subject: CN=team62-client
        Subject Public Key Info:
            Public Key Algorithm: rsaEncryption
                Public-Key: (2048 bit)
                Modulus:
                    00:cc:60:d4:b8:cc:86:66:44:1d:21:5d:1f:b6:7f:
                    48:5b:c3:4f:2c:50:0d:81:b0:e2:35:48:09:57:17:
                    c3:d1:be:71:57:1a:ec:55:06:3b:54:ec:22:a2:a7:
                    65:68:df:12:c6:36:19:99:5c:a1:7c:ee:9f:11:d0:
                    ed:32:8e:3c:a2:10:a1:63:53:67:16:07:2c:70:e4:
                    d5:3c:4a:44:9d:96:de:cd:f7:24:25:3e:76:0f:5a:
                    d8:10:7a:fa:fe:67:98:20:73:28:77:6a:75:2d:ce:
                    85:72:73:b7:f6:16:f6:39:a9:3e:1d:e8:b4:c2:7f:
                    84:4b:78:46:22:27:3f:82:0e:b8:b2:01:d5:0c:b5:
                    99:cb:a1:42:00:77:1d:72:b1:ba:bd:33:21:35:cf:
                    66:4e:88:02:c0:b7:65:ac:6f:5e:34:b7:ab:28:76:
                    af:16:ed:39:3b:dc:d8:01:e6:a2:cb:af:41:7b:2e:
                    ee:03:b3:09:62:e3:e5:1a:64:59:4f:d6:78:77:ca:
                    55:b1:50:7b:a5:68:aa:a3:a6:ee:fa:bb:86:cd:db:
                    d6:09:5e:4e:87:b7:77:53:1d:d4:2d:4e:71:32:42:
                    d0:3d:91:d9:8c:7c:4b:60:8c:34:e9:ea:33:7f:31:
                    97:07:79:73:3d:7a:86:a0:ce:78:93:ca:d5:3b:52:
                    b0:0b
                Exponent: 65537 (0x10001)
        X509v3 extensions:
            X509v3 Basic Constraints: 
                CA:FALSE
            X509v3 Subject Key Identifier: 
                22:21:DC:22:F0:29:8F:9A:66:A1:39:C1:69:AE:73:F2:02:F9:7E:58
            X509v3 Authority Key Identifier: 
                keyid:32:B3:18:0A:69:B1:59:E8:12:F1:1A:55:B4:FA:E7:20:3A:1D:6F:70
                DirName:/CN=team62-net
                serial:0C:6B:1B:01:B2:72:75:3D:1D:36:13:7F:06:11:54:66:22:95:6A:16
            X509v3 Extended Key Usage: 
                TLS Web Client Authentication
            X509v3 Key Usage: 
                Digital Signature
    Signature Algorithm: sha256WithRSAEncryption
    Signature Value:
        32:0a:29:0c:8a:3e:dd:0f:e1:7f:cf:b9:62:5b:ab:d5:9b:41:
        aa:cd:21:13:71:9c:b3:ae:7c:c7:b7:8c:a1:ed:76:bd:15:e0:
        e8:3e:c4:d3:20:2d:9b:61:8f:00:bf:90:1f:ed:f0:1e:92:05:
        10:1c:f8:0e:ae:7b:c4:c1:fe:95:33:9b:f3:2e:e1:13:ba:f5:
        81:36:82:be:d7:3a:f6:2d:35:76:7c:fb:f5:7f:3b:c1:dc:cc:
        53:dc:2c:ee:10:68:d7:b1:56:cc:2d:30:f6:32:7c:18:88:23:
        ac:f3:28:e2:df:03:79:9b:dc:36:0f:c7:a8:83:b0:44:e1:23:
        26:d4:16:ec:4a:f2:fa:e9:ac:3d:9c:11:a4:ba:7a:44:be:0c:
        37:98:1c:52:47:78:3e:37:9d:6a:97:3d:4a:28:c9:b5:46:78:
        ed:1a:26:dc:6c:db:6c:6a:7c:a1:b9:e2:18:1c:c4:37:23:3d:
        91:7d:08:41:81:ed:83:0c:3a:18:09:ae:53:47:7a:9a:fe:ac:
        f0:91:e0:d2:fa:01:19:22:65:63:5d:a8:ce:78:71:29:73:6c:
        21:2d:30:71:75:21:2e:af:bd:bc:62:78:ce:cb:2a:33:8a:ec:
        7d:40:e6:41:70:2a:85:47:78:ed:64:a8:af:c5:02:5a:a2:93:
        9c:96:8b:c8
-----BEGIN CERTIFICATE-----
MIIDWjCCAkKgAwIBAgIRALf0pPayqtAIotXmqJ/6uTcwDQYJKoZIhvcNAQELBQAw
FTETMBEGA1UEAwwKdGVhbTYyLW5ldDAeFw0yMzExMDMyMDQwMjBaFw0yNjEwMTgy
MDQwMjBaMBgxFjAUBgNVBAMMDXRlYW02Mi1jbGllbnQwggEiMA0GCSqGSIb3DQEB
AQUAA4IBDwAwggEKAoIBAQDMYNS4zIZmRB0hXR+2f0hbw08sUA2BsOI1SAlXF8PR
vnFXGuxVBjtU7CKip2Vo3xLGNhmZXKF87p8R0O0yjjyiEKFjU2cWByxw5NU8SkSd
lt7N9yQlPnYPWtgQevr+Z5ggcyh3anUtzoVyc7f2FvY5qT4d6LTCf4RLeEYiJz+C
DriyAdUMtZnLoUIAdx1ysbq9MyE1z2ZOiALAt2Wsb140t6sodq8W7Tk73NgB5qLL
r0F7Lu4Dswli4+UaZFlP1nh3ylWxUHulaKqjpu76u4bN29YJXk6Ht3dTHdQtTnEy
QtA9kdmMfEtgjDTp6jN/MZcHeXM9eoagzniTytU7UrALAgMBAAGjgaEwgZ4wCQYD
VR0TBAIwADAdBgNVHQ4EFgQUIiHcIvApj5pmoTnBaa5z8gL5flgwUAYDVR0jBEkw
R4AUMrMYCmmxWegS8RpVtPrnIDodb3ChGaQXMBUxEzARBgNVBAMMCnRlYW02Mi1u
ZXSCFAxrGwGycnU9HTYTfwYRVGYilWoWMBMGA1UdJQQMMAoGCCsGAQUFBwMCMAsG
A1UdDwQEAwIHgDANBgkqhkiG9w0BAQsFAAOCAQEAMgopDIo+3Q/hf8+5Ylur1ZtB
qs0hE3Gcs658x7eMoe12vRXg6D7E0yAtm2GPAL+QH+3wHpIFEBz4Dq57xMH+lTOb
8y7hE7r1gTaCvtc69i01dnz79X87wdzMU9ws7hBo17FWzC0w9jJ8GIgjrPMo4t8D
eZvcNg/HqIOwROEjJtQW7Ery+umsPZwRpLp6RL4MN5gcUkd4Pjedapc9SijJtUZ4
7Rom3GzbbGp8obniGBzENyM9kX0IQYHtgww6GAmuU0d6mv6s8JHg0voBGSJlY12o
znhxKXNsIS0wcXUhLq+9vGJ4zssqM4rsfUDmQXAqhUd47WSor8UCWqKTnJaLyA==
-----END CERTIFICATE-----
