Certificate:
    Data:
        Version: 3 (0x2)
        Serial Number:
            06:65:34:59:6f:80:f6:0c:88:b7:95:0f:68:a3:dc:b9
        Signature Algorithm: sha256WithRSAEncryption
        Issuer: CN=team77-net
        Validity
            Not Before: Nov  4 10:41:48 2023 GMT
            Not After : Oct 19 10:41:48 2026 GMT
        Subject: CN=team77-client
        Subject Public Key Info:
            Public Key Algorithm: rsaEncryption
                Public-Key: (2048 bit)
                Modulus:
                    00:e3:56:52:51:7d:b0:61:df:04:d8:49:36:3c:31:
                    de:e6:e7:11:d7:5f:a1:62:85:b2:d0:31:d3:7b:cc:
                    29:fe:58:56:00:d3:2d:73:20:30:57:22:6e:a8:4b:
                    44:69:87:0f:84:82:4c:29:d6:93:c4:83:c8:66:e4:
                    2d:1a:83:bd:69:28:a0:b1:1d:e1:38:0f:e6:88:97:
                    9f:6c:09:ab:6d:b5:79:23:3e:72:46:df:a7:c2:ab:
                    e7:8b:14:32:00:24:59:d6:ce:c9:f7:11:de:06:11:
                    2a:6e:b4:d2:ee:4e:81:3b:bd:99:21:8a:d9:20:e0:
                    e0:89:49:fa:37:c3:bf:42:b0:9d:b5:ba:76:fa:4a:
                    b4:de:3e:cb:8f:b9:f3:f9:e3:e8:ed:c8:31:b8:98:
                    f8:52:f1:df:7d:33:f5:57:71:e7:ca:43:16:c2:34:
                    b9:32:2a:db:d0:33:25:f6:c9:50:19:b5:cf:6b:47:
                    97:a2:0a:6d:ee:93:2e:1d:f4:96:07:5f:af:3a:92:
                    2a:29:49:2c:76:8d:87:bb:30:4f:0d:dd:3f:cf:7f:
                    46:e6:b9:4d:2e:ea:51:5e:30:e8:ee:01:05:e6:1c:
                    ab:64:fc:f3:37:65:4b:a9:32:3b:80:87:3d:2f:76:
                    20:07:ad:c4:bc:6a:4e:7f:ce:66:81:ca:d8:7d:78:
                    cf:f9
                Exponent: 65537 (0x10001)
        X509v3 extensions:
            X509v3 Basic Constraints: 
                CA:FALSE
            X509v3 Subject Key Identifier: 
                6D:98:9D:10:9D:B5:E9:DF:42:0F:3A:33:48:84:49:9C:3A:CB:E3:83
            X509v3 Authority Key Identifier: 
                keyid:C3:F5:6A:4E:73:BB:D4:FC:1E:CF:44:E3:0D:FB:4C:80:E3:4B:ED:62
                DirName:/CN=team77-net
                serial:27:9A:A8:14:1A:A4:51:A4:44:83:44:54:33:D8:0B:38:70:79:CD:39
            X509v3 Extended Key Usage: 
                TLS Web Client Authentication
            X509v3 Key Usage: 
                Digital Signature
    Signature Algorithm: sha256WithRSAEncryption
    Signature Value:
        93:ea:85:c2:05:4d:ce:0c:25:27:55:75:28:9c:dc:1d:57:fa:
        3c:41:31:59:0a:94:b7:e9:2c:9d:d4:75:b1:6b:ce:4a:f9:61:
        32:85:1d:4a:ce:cb:5a:a8:8a:31:dc:d0:b3:27:86:4b:f2:60:
        33:74:c1:0f:d8:dd:7c:32:13:20:25:16:33:c5:71:99:23:38:
        a1:10:e2:f9:59:04:89:42:98:bc:8e:0f:b2:2b:83:5e:98:b9:
        08:a9:0a:ef:dc:b9:b2:20:32:3f:b0:0d:64:0e:4a:73:c8:28:
        e2:58:34:27:9a:bf:a5:f1:c5:5a:c2:4c:b1:c6:62:04:f8:ab:
        5a:55:4d:c8:8e:69:66:0d:ee:1a:6d:aa:5b:d2:86:b9:0a:da:
        aa:5b:f8:24:4e:1f:52:73:47:e7:cf:d9:bb:3e:02:5a:3d:25:
        b6:53:9f:a1:db:75:f5:4b:f6:08:bc:05:e2:ea:24:16:fe:a7:
        e7:5d:d8:e1:d2:c8:66:0f:8a:1e:98:8d:94:71:f0:16:78:01:
        79:46:44:82:78:ec:74:ba:fd:db:0e:e2:65:a3:3c:e8:17:f3:
        c7:7e:fb:a1:0c:47:7c:c8:c2:cc:aa:19:41:98:84:5a:e1:cb:
        4f:86:94:01:1c:5a:44:ae:b5:0e:74:27:ec:0f:2b:c7:b1:da:
        5c:81:bc:42
-----BEGIN CERTIFICATE-----
MIIDWTCCAkGgAwIBAgIQBmU0WW+A9gyIt5UPaKPcuTANBgkqhkiG9w0BAQsFADAV
MRMwEQYDVQQDDAp0ZWFtNzctbmV0MB4XDTIzMTEwNDEwNDE0OFoXDTI2MTAxOTEw
NDE0OFowGDEWMBQGA1UEAwwNdGVhbTc3LWNsaWVudDCCASIwDQYJKoZIhvcNAQEB
BQADggEPADCCAQoCggEBAONWUlF9sGHfBNhJNjwx3ubnEddfoWKFstAx03vMKf5Y
VgDTLXMgMFcibqhLRGmHD4SCTCnWk8SDyGbkLRqDvWkooLEd4TgP5oiXn2wJq221
eSM+ckbfp8Kr54sUMgAkWdbOyfcR3gYRKm600u5OgTu9mSGK2SDg4IlJ+jfDv0Kw
nbW6dvpKtN4+y4+58/nj6O3IMbiY+FLx330z9Vdx58pDFsI0uTIq29AzJfbJUBm1
z2tHl6IKbe6TLh30lgdfrzqSKilJLHaNh7swTw3dP89/Rua5TS7qUV4w6O4BBeYc
q2T88zdlS6kyO4CHPS92IAetxLxqTn/OZoHK2H14z/kCAwEAAaOBoTCBnjAJBgNV
HRMEAjAAMB0GA1UdDgQWBBRtmJ0QnbXp30IPOjNIhEmcOsvjgzBQBgNVHSMESTBH
gBTD9WpOc7vU/B7PROMN+0yA40vtYqEZpBcwFTETMBEGA1UEAwwKdGVhbTc3LW5l
dIIUJ5qoFBqkUaREg0RUM9gLOHB5zTkwEwYDVR0lBAwwCgYIKwYBBQUHAwIwCwYD
VR0PBAQDAgeAMA0GCSqGSIb3DQEBCwUAA4IBAQCT6oXCBU3ODCUnVXUonNwdV/o8
QTFZCpS36Syd1HWxa85K+WEyhR1KzstaqIox3NCzJ4ZL8mAzdMEP2N18MhMgJRYz
xXGZIzihEOL5WQSJQpi8jg+yK4NemLkIqQrv3LmyIDI/sA1kDkpzyCjiWDQnmr+l
8cVawkyxxmIE+KtaVU3IjmlmDe4abapb0oa5CtqqW/gkTh9Sc0fnz9m7PgJaPSW2
U5+h23X1S/YIvAXi6iQW/qfnXdjh0shmD4oemI2UcfAWeAF5RkSCeOx0uv3bDuJl
ozzoF/PHfvuhDEd8yMLMqhlBmIRa4ctPhpQBHFpErrUOdCfsDyvHsdpcgbxC
-----END CERTIFICATE-----
