Certificate:
    Data:
        Version: 3 (0x2)
        Serial Number:
            d4:ba:fc:ee:36:31:a7:e8:e2:36:44:27:36:ab:f4:6f
        Signature Algorithm: sha256WithRSAEncryption
        Issuer: CN=team77-net
        Validity
            Not Before: Nov  3 20:40:32 2023 GMT
            Not After : Oct 18 20:40:32 2026 GMT
        Subject: CN=team77-client
        Subject Public Key Info:
            Public Key Algorithm: rsaEncryption
                Public-Key: (2048 bit)
                Modulus:
                    00:b1:42:2b:55:c2:3d:c6:7c:43:38:f4:e0:dd:94:
                    08:c7:4f:29:d7:54:00:1a:54:6e:d8:2d:08:e6:8b:
                    4c:76:fd:fd:42:17:9b:c8:d9:ef:71:0a:63:fa:ad:
                    06:0d:ef:62:0c:72:7b:d9:46:be:b5:8f:f5:35:7f:
                    de:4b:1f:7f:f0:a6:8d:d1:69:83:d2:26:b6:90:21:
                    e0:c4:65:84:66:d0:dd:07:ca:76:d1:e2:38:35:7f:
                    78:9a:18:cf:eb:af:5d:40:74:b6:be:b9:7a:1f:9b:
                    5c:bf:53:3f:ac:ce:90:b6:30:0f:e8:5a:44:c3:35:
                    d4:81:ba:86:02:7b:7e:21:12:af:cb:66:3f:b1:e4:
                    c2:15:ae:f2:55:6c:71:a5:a2:22:16:d4:08:b5:36:
                    98:e3:61:e7:b3:b0:27:e4:b0:57:59:72:a8:cf:18:
                    65:d8:5e:46:d2:ad:62:e9:66:ac:3f:1a:fb:08:56:
                    37:b3:27:c4:28:b6:ef:99:3a:20:56:7c:ab:29:a0:
                    fc:b8:13:6b:3e:2d:ce:0e:3f:1b:4c:1f:2a:54:b9:
                    80:c8:c8:9e:96:74:3a:61:fa:77:c8:28:d7:6b:16:
                    22:84:ba:5f:7f:20:09:34:bd:70:44:55:0a:04:b2:
                    cb:fc:11:18:c4:5e:ae:99:40:49:cf:85:7b:57:94:
                    5d:9f
                Exponent: 65537 (0x10001)
        X509v3 extensions:
            X509v3 Basic Constraints: 
                CA:FALSE
            X509v3 Subject Key Identifier: 
                0F:76:ED:B4:B2:F5:E6:5B:12:FA:1F:53:D1:EA:12:2A:42:72:10:A4
            X509v3 Authority Key Identifier: 
                keyid:3E:E6:7B:F4:06:E1:5D:B1:07:E4:E3:63:D0:AA:1A:D4:68:DE:A5:B4
                DirName:/CN=team77-net
                serial:69:74:41:42:BE:82:B8:83:3E:DD:47:27:7A:F1:C8:5E:DA:F3:A8:65
            X509v3 Extended Key Usage: 
                TLS Web Client Authentication
            X509v3 Key Usage: 
                Digital Signature
    Signature Algorithm: sha256WithRSAEncryption
    Signature Value:
        33:97:8f:10:e2:9a:1c:54:3b:fc:fd:a5:c3:b2:4f:98:61:7a:
        17:3d:13:6b:f9:5e:7d:69:19:58:e9:92:ae:7d:60:b1:8c:24:
        95:bd:3c:0d:20:98:fe:a2:23:87:91:56:b2:d7:2d:57:e5:33:
        1c:f0:29:11:e5:c7:ca:5b:3f:a9:e5:6c:31:77:59:10:b2:0f:
        c7:e7:39:2f:af:cb:eb:05:0f:b6:bc:b5:80:e4:f8:8c:cc:54:
        ef:5c:53:05:55:27:fd:bd:68:61:b8:d9:30:e2:99:dc:c1:64:
        78:ef:a4:d5:2c:1f:52:ec:65:dc:17:5a:a7:f1:35:82:14:65:
        fc:ea:38:e8:b7:f3:b8:87:95:21:81:22:06:48:2c:2b:9b:83:
        d6:3c:0f:1d:fd:ea:4f:44:20:12:be:4a:f1:43:c8:8a:aa:a9:
        d8:df:90:15:3f:8e:0f:15:c9:18:2b:bb:69:23:38:78:30:e9:
        d3:3f:e9:d3:18:48:30:d2:76:06:2b:42:b5:de:ad:33:88:2c:
        40:c9:a5:a9:93:14:3f:ea:d7:32:8a:9c:f5:24:91:46:3c:b8:
        1b:a6:a3:40:2f:2a:10:f3:78:69:ff:e1:fb:46:ab:59:12:02:
        95:22:f3:d9:f0:43:52:be:40:fa:a0:df:be:b9:e5:92:3a:38:
        36:3b:f5:2c
-----BEGIN CERTIFICATE-----
MIIDWjCCAkKgAwIBAgIRANS6/O42Mafo4jZEJzar9G8wDQYJKoZIhvcNAQELBQAw
FTETMBEGA1UEAwwKdGVhbTc3LW5ldDAeFw0yMzExMDMyMDQwMzJaFw0yNjEwMTgy
MDQwMzJaMBgxFjAUBgNVBAMMDXRlYW03Ny1jbGllbnQwggEiMA0GCSqGSIb3DQEB
AQUAA4IBDwAwggEKAoIBAQCxQitVwj3GfEM49ODdlAjHTynXVAAaVG7YLQjmi0x2
/f1CF5vI2e9xCmP6rQYN72IMcnvZRr61j/U1f95LH3/wpo3RaYPSJraQIeDEZYRm
0N0HynbR4jg1f3iaGM/rr11AdLa+uXofm1y/Uz+szpC2MA/oWkTDNdSBuoYCe34h
Eq/LZj+x5MIVrvJVbHGloiIW1Ai1NpjjYeezsCfksFdZcqjPGGXYXkbSrWLpZqw/
GvsIVjezJ8Qotu+ZOiBWfKspoPy4E2s+Lc4OPxtMHypUuYDIyJ6WdDph+nfIKNdr
FiKEul9/IAk0vXBEVQoEssv8ERjEXq6ZQEnPhXtXlF2fAgMBAAGjgaEwgZ4wCQYD
VR0TBAIwADAdBgNVHQ4EFgQUD3bttLL15lsS+h9T0eoSKkJyEKQwUAYDVR0jBEkw
R4AUPuZ79AbhXbEH5ONj0Koa1GjepbShGaQXMBUxEzARBgNVBAMMCnRlYW03Ny1u
ZXSCFGl0QUK+griDPt1HJ3rxyF7a86hlMBMGA1UdJQQMMAoGCCsGAQUFBwMCMAsG
A1UdDwQEAwIHgDANBgkqhkiG9w0BAQsFAAOCAQEAM5ePEOKaHFQ7/P2lw7JPmGF6
Fz0Ta/lefWkZWOmSrn1gsYwklb08DSCY/qIjh5FWstctV+UzHPApEeXHyls/qeVs
MXdZELIPx+c5L6/L6wUPtry1gOT4jMxU71xTBVUn/b1oYbjZMOKZ3MFkeO+k1Swf
Uuxl3Bdap/E1ghRl/Oo46LfzuIeVIYEiBkgsK5uD1jwPHf3qT0QgEr5K8UPIiqqp
2N+QFT+ODxXJGCu7aSM4eDDp0z/p0xhIMNJ2BitCtd6tM4gsQMmlqZMUP+rXMoqc
9SSRRjy4G6ajQC8qEPN4af/h+0arWRIClSLz2fBDUr5A+qDfvrnlkjo4Njv1LA==
-----END CERTIFICATE-----
