Certificate:
    Data:
        Version: 3 (0x2)
        Serial Number:
            e9:ce:c2:da:f9:1e:83:4c:9e:d1:b0:d8:ca:9e:47:1d
        Signature Algorithm: sha256WithRSAEncryption
        Issuer: CN=team77-net
        Validity
            Not Before: Nov  4 10:41:48 2023 GMT
            Not After : Oct 19 10:41:48 2026 GMT
        Subject: CN=team77-server
        Subject Public Key Info:
            Public Key Algorithm: rsaEncryption
                Public-Key: (2048 bit)
                Modulus:
                    00:b2:fb:2b:3b:1c:6b:cf:e1:01:8a:64:55:5c:3c:
                    37:19:dc:4d:5f:6c:0f:71:c4:89:70:ec:f3:89:ee:
                    62:d4:14:7a:20:94:1b:5c:dc:9b:ac:d6:64:79:03:
                    42:67:47:cb:9d:20:39:61:46:26:a6:f9:84:16:b8:
                    8f:b5:e9:89:e1:b1:36:e1:1d:c0:0d:2c:3b:3c:d4:
                    5e:58:ea:02:47:23:5a:5d:76:eb:c2:75:9d:4e:85:
                    bb:aa:05:ea:69:e9:a6:5d:bd:01:10:c8:cc:d4:12:
                    f6:e1:41:ea:7d:ba:15:4b:5f:71:bb:be:de:3f:24:
                    94:93:1d:8c:a1:58:30:8f:ef:a4:25:3f:b4:33:5f:
                    a8:5a:9c:1e:fc:0b:1a:1b:0a:1d:d5:0b:c2:cf:f7:
                    67:61:05:1f:76:57:1e:8c:06:02:9c:05:b7:64:ca:
                    86:73:a4:b6:29:99:2a:14:05:4a:4b:66:ca:93:67:
                    ca:56:d4:fb:b9:49:2a:e1:6f:32:44:83:2d:6f:6b:
                    06:58:74:67:a3:47:2c:44:bf:9e:01:ae:25:79:1e:
                    16:2c:c4:7b:7b:87:24:40:9b:4d:d7:a9:31:74:94:
                    ed:4d:35:db:52:c0:b5:7c:98:96:55:21:5e:10:ae:
                    09:a4:94:1b:3c:00:34:6e:64:78:e3:71:e0:15:ac:
                    b7:39
                Exponent: 65537 (0x10001)
        X509v3 extensions:
            X509v3 Basic Constraints: 
                CA:FALSE
            X509v3 Subject Key Identifier: 
                A5:F2:FA:75:23:C9:81:E6:F0:E4:D1:4C:63:14:42:CD:03:E1:B0:45
            X509v3 Authority Key Identifier: 
                keyid:C3:F5:6A:4E:73:BB:D4:FC:1E:CF:44:E3:0D:FB:4C:80:E3:4B:ED:62
                DirName:/CN=team77-net
                serial:27:9A:A8:14:1A:A4:51:A4:44:83:44:54:33:D8:0B:38:70:79:CD:39
            X509v3 Extended Key Usage: 
                TLS Web Server Authentication
            X509v3 Key Usage: 
                Digital Signature, Key Encipherment
            X509v3 Subject Alternative Name: 
                DNS:team77-server
    Signature Algorithm: sha256WithRSAEncryption
    Signature Value:
        a0:db:16:ce:5a:c2:11:a3:77:bc:00:a1:e2:65:25:b4:3d:af:
        a7:b2:58:4c:af:fd:f6:03:5e:42:0c:bd:33:66:a5:17:7e:59:
        f9:26:76:ba:9f:42:cb:71:e6:47:6a:93:58:eb:95:ea:cd:c0:
        83:cf:db:16:ac:8d:bb:2b:04:52:9b:2b:04:b2:f7:6c:dd:e3:
        98:2e:b1:02:c0:f5:b8:af:43:a3:64:eb:70:e0:53:8a:f9:fc:
        9f:2c:8e:08:4c:a6:8b:0e:45:2a:aa:ad:bd:c7:1e:84:2b:65:
        2f:05:f0:22:78:7f:94:7a:30:c2:a1:ca:58:c4:ea:4a:ab:68:
        75:5f:43:da:b9:0f:a6:2e:3b:af:72:2c:09:0c:5c:9c:1e:9a:
        57:7e:55:86:d0:8d:ed:8f:ba:19:57:14:60:6b:b1:20:78:fb:
        ba:23:bc:4c:8b:44:4b:f7:c8:53:74:b7:3b:58:47:7a:a4:eb:
        55:73:10:8b:36:4b:59:ac:6b:a1:2d:33:6a:65:2c:65:74:c9:
        1b:be:7e:19:c1:e9:99:a3:f0:c2:bb:15:68:a8:aa:0b:38:c5:
        b5:5e:56:1a:8b:b5:dc:13:de:fd:bb:f4:00:be:56:99:b1:2f:
        e0:de:e2:51:20:e7:ff:b0:91:3b:28:b7:fa:89:ef:ce:9b:66:
        3c:47:21:83
-----BEGIN CERTIFICATE-----
MIIDdDCCAlygAwIBAgIRAOnOwtr5HoNMntGw2MqeRx0wDQYJKoZIhvcNAQELBQAw
FTETMBEGA1UEAwwKdGVhbTc3LW5ldDAeFw0yMzExMDQxMDQxNDhaFw0yNjEwMTkx
MDQxNDhaMBgxFjAUBgNVBAMMDXRlYW03Ny1zZXJ2ZXIwggEiMA0GCSqGSIb3DQEB
AQUAA4IBDwAwggEKAoIBAQCy+ys7HGvP4QGKZFVcPDcZ3E1fbA9xxIlw7POJ7mLU
FHoglBtc3Jus1mR5A0JnR8udIDlhRiam+YQWuI+16YnhsTbhHcANLDs81F5Y6gJH
I1pdduvCdZ1OhbuqBepp6aZdvQEQyMzUEvbhQep9uhVLX3G7vt4/JJSTHYyhWDCP
76QlP7QzX6hanB78CxobCh3VC8LP92dhBR92Vx6MBgKcBbdkyoZzpLYpmSoUBUpL
ZsqTZ8pW1Pu5SSrhbzJEgy1vawZYdGejRyxEv54BriV5HhYsxHt7hyRAm03XqTF0
lO1NNdtSwLV8mJZVIV4QrgmklBs8ADRuZHjjceAVrLc5AgMBAAGjgbswgbgwCQYD
VR0TBAIwADAdBgNVHQ4EFgQUpfL6dSPJgebw5NFMYxRCzQPhsEUwUAYDVR0jBEkw
R4AUw/VqTnO71Pwez0TjDftMgONL7WKhGaQXMBUxEzARBgNVBAMMCnRlYW03Ny1u
ZXSCFCeaqBQapFGkRINEVDPYCzhwec05MBMGA1UdJQQMMAoGCCsGAQUFBwMBMAsG
A1UdDwQEAwIFoDAYBgNVHREEETAPgg10ZWFtNzctc2VydmVyMA0GCSqGSIb3DQEB
CwUAA4IBAQCg2xbOWsIRo3e8AKHiZSW0Pa+nslhMr/32A15CDL0zZqUXfln5Jna6
n0LLceZHapNY65XqzcCDz9sWrI27KwRSmysEsvds3eOYLrECwPW4r0OjZOtw4FOK
+fyfLI4ITKaLDkUqqq29xx6EK2UvBfAieH+UejDCocpYxOpKq2h1X0PauQ+mLjuv
ciwJDFycHppXflWG0I3tj7oZVxRga7EgePu6I7xMi0RL98hTdLc7WEd6pOtVcxCL
NktZrGuhLTNqZSxldMkbvn4ZwemZo/DCuxVoqKoLOMW1XlYai7XcE979u/QAvlaZ
sS/g3uJRIOf/sJE7KLf6ie/Om2Y8RyGD
-----END CERTIFICATE-----
