Certificate:
    Data:
        Version: 3 (0x2)
        Serial Number:
            65:87:bd:a2:74:47:74:84:88:39:a1:e9:98:25:62:ca
        Signature Algorithm: sha256WithRSAEncryption
        Issuer: CN=team179-net
        Validity
            Not Before: Nov  4 11:31:10 2023 GMT
            Not After : Oct 19 11:31:10 2026 GMT
        Subject: CN=team179-server
        Subject Public Key Info:
            Public Key Algorithm: rsaEncryption
                Public-Key: (2048 bit)
                Modulus:
                    00:e2:48:7a:cc:07:7f:94:db:98:cd:35:c6:4c:5f:
                    04:18:b7:f0:4d:a3:af:ee:b0:b7:05:3f:66:20:5c:
                    7b:47:3e:c1:81:3d:ac:41:90:e3:79:3f:18:1f:a2:
                    16:38:4a:5f:5e:8d:d1:88:6f:59:7d:1f:9a:1c:00:
                    f8:3e:28:08:08:26:49:03:09:b7:47:33:b9:ab:f5:
                    25:e8:41:b7:f1:0c:ad:39:45:28:ca:23:c3:da:ec:
                    4c:fd:13:32:fa:b4:8a:d5:ed:88:0a:fe:d3:dd:cd:
                    68:24:38:db:1d:5c:14:20:62:a7:ce:08:07:6e:fb:
                    ac:24:a3:9e:aa:5a:ce:77:d4:e5:57:72:84:c0:e1:
                    f0:44:b9:ed:4d:81:b1:56:44:73:36:c0:e5:76:5e:
                    03:8f:e3:60:14:47:06:e0:a6:31:a9:1a:41:ae:2a:
                    32:27:c2:c0:d5:5c:6e:cc:e8:a4:99:fd:ca:27:8f:
                    65:e2:e8:7d:00:b0:79:f5:c9:e5:b6:4a:f2:76:15:
                    5d:9d:fb:fd:32:93:a3:f5:80:36:d6:8e:b2:e5:d4:
                    cb:47:19:fe:04:29:4a:e2:9d:8f:1b:ef:8e:b2:90:
                    ef:07:32:2b:a2:5a:bb:d2:dd:25:d2:fb:71:dc:58:
                    05:c6:a4:f5:7f:3a:a7:88:bb:61:56:dc:dd:02:52:
                    05:b3
                Exponent: 65537 (0x10001)
        X509v3 extensions:
            X509v3 Basic Constraints: 
                CA:FALSE
            X509v3 Subject Key Identifier: 
                5B:06:3C:14:96:03:68:F8:3B:49:83:C4:2D:6F:50:5C:B3:1F:AB:FB
            X509v3 Authority Key Identifier: 
                keyid:6D:0C:C4:43:1C:14:B5:9C:17:FE:7E:55:D8:2B:D4:C1:14:C6:31:BA
                DirName:/CN=team179-net
                serial:46:C5:EB:7F:9F:99:E9:87:6D:A0:29:8B:9B:EE:A8:DC:39:DD:95:BE
            X509v3 Extended Key Usage: 
                TLS Web Server Authentication
            X509v3 Key Usage: 
                Digital Signature, Key Encipherment
            X509v3 Subject Alternative Name: 
                DNS:team179-server
    Signature Algorithm: sha256WithRSAEncryption
    Signature Value:
        0f:42:33:92:36:e9:04:6c:04:0f:ff:66:3a:6f:e0:ab:c2:54:
        df:00:f7:27:90:8b:3a:09:21:b4:85:b6:80:c0:d5:0a:e0:75:
        69:1c:e1:ff:4e:a1:c0:18:90:93:79:c1:d0:6a:4e:98:f4:0d:
        b1:77:3f:5b:13:40:fa:bc:8b:09:ef:58:f7:53:c1:72:4b:00:
        0a:1e:3d:ac:6c:b7:a0:26:ff:d0:ef:28:c8:12:37:9d:88:59:
        e4:8c:60:3d:23:8a:f9:d1:b5:35:bc:aa:17:b0:a2:a5:16:b0:
        f8:f8:38:0c:bf:a4:37:db:55:d6:0c:45:ad:d0:92:ab:c5:ea:
        a6:12:a8:53:29:b1:5d:e9:38:49:be:7f:08:70:f9:23:d0:93:
        4d:13:e8:54:c1:f7:c2:62:b7:22:6c:91:21:c2:0e:02:82:62:
        f5:93:56:63:54:7d:9b:46:4b:fd:06:d5:65:7f:48:9b:95:67:
        e9:d4:57:70:a7:dd:52:8c:2f:68:c1:cb:b4:5b:d3:3e:bc:23:
        00:36:cd:0f:41:5c:68:e0:ea:95:51:06:3d:16:d5:74:dc:cc:
        3f:52:81:b3:0f:72:16:88:22:79:64:8e:7d:70:6f:3c:21:2d:
        95:38:d9:18:42:42:01:5d:80:65:11:e6:dd:5e:08:a1:47:29:
        33:64:0d:5f
-----BEGIN CERTIFICATE-----
MIIDdzCCAl+gAwIBAgIQZYe9onRHdISIOaHpmCViyjANBgkqhkiG9w0BAQsFADAW
MRQwEgYDVQQDDAt0ZWFtMTc5LW5ldDAeFw0yMzExMDQxMTMxMTBaFw0yNjEwMTkx
MTMxMTBaMBkxFzAVBgNVBAMMDnRlYW0xNzktc2VydmVyMIIBIjANBgkqhkiG9w0B
AQEFAAOCAQ8AMIIBCgKCAQEA4kh6zAd/lNuYzTXGTF8EGLfwTaOv7rC3BT9mIFx7
Rz7BgT2sQZDjeT8YH6IWOEpfXo3RiG9ZfR+aHAD4PigICCZJAwm3RzO5q/Ul6EG3
8QytOUUoyiPD2uxM/RMy+rSK1e2ICv7T3c1oJDjbHVwUIGKnzggHbvusJKOeqlrO
d9TlV3KEwOHwRLntTYGxVkRzNsDldl4Dj+NgFEcG4KYxqRpBrioyJ8LA1VxuzOik
mf3KJ49l4uh9ALB59cnltkrydhVdnfv9MpOj9YA21o6y5dTLRxn+BClK4p2PG++O
spDvBzIrolq70t0l0vtx3FgFxqT1fzqniLthVtzdAlIFswIDAQABo4G9MIG6MAkG
A1UdEwQCMAAwHQYDVR0OBBYEFFsGPBSWA2j4O0mDxC1vUFyzH6v7MFEGA1UdIwRK
MEiAFG0MxEMcFLWcF/5+Vdgr1MEUxjG6oRqkGDAWMRQwEgYDVQQDDAt0ZWFtMTc5
LW5ldIIURsXrf5+Z6YdtoCmLm+6o3Dndlb4wEwYDVR0lBAwwCgYIKwYBBQUHAwEw
CwYDVR0PBAQDAgWgMBkGA1UdEQQSMBCCDnRlYW0xNzktc2VydmVyMA0GCSqGSIb3
DQEBCwUAA4IBAQAPQjOSNukEbAQP/2Y6b+CrwlTfAPcnkIs6CSG0hbaAwNUK4HVp
HOH/TqHAGJCTecHQak6Y9A2xdz9bE0D6vIsJ71j3U8FySwAKHj2sbLegJv/Q7yjI
EjediFnkjGA9I4r50bU1vKoXsKKlFrD4+DgMv6Q321XWDEWt0JKrxeqmEqhTKbFd
6ThJvn8IcPkj0JNNE+hUwffCYrcibJEhwg4CgmL1k1ZjVH2bRkv9BtVlf0iblWfp
1Fdwp91SjC9owcu0W9M+vCMANs0PQVxo4OqVUQY9FtV03Mw/UoGzD3IWiCJ5ZI59
cG88IS2VONkYQkIBXYBlEebdXgihRykzZA1f
-----END CERTIFICATE-----
