Certificate:
    Data:
        Version: 3 (0x2)
        Serial Number:
            14:5b:fc:56:78:11:be:8c:e2:50:9c:e3:07:c4:ff:3b
        Signature Algorithm: sha256WithRSAEncryption
        Issuer: CN=team156-net
        Validity
            Not Before: Nov  3 20:42:02 2023 GMT
            Not After : Oct 18 20:42:02 2026 GMT
        Subject: CN=team156-client
        Subject Public Key Info:
            Public Key Algorithm: rsaEncryption
                Public-Key: (2048 bit)
                Modulus:
                    00:c5:45:ec:96:41:5b:33:22:51:ca:7c:29:05:77:
                    5a:9a:d6:7b:00:1e:40:59:39:48:e8:01:1c:6c:61:
                    ff:bf:cf:6a:ab:16:32:b5:4d:df:13:81:2c:ef:aa:
                    5d:bc:6f:d2:76:7f:6a:76:e5:ab:3e:ba:53:97:ce:
                    7c:44:e1:dc:4f:41:f9:28:d6:28:03:f2:d2:56:29:
                    ad:cb:24:50:ef:c9:f4:8e:8f:c9:25:95:05:a5:a6:
                    b0:2f:84:65:de:dd:52:66:a2:7e:04:15:25:b3:ca:
                    28:b0:25:c2:ff:8d:86:bd:3b:08:da:5c:fa:1c:ef:
                    39:cb:0e:02:a8:c4:bc:7f:b9:2f:6d:62:da:c3:61:
                    88:8e:b9:d9:54:84:50:ee:98:88:b4:43:96:b1:7f:
                    71:fe:bc:38:6c:1f:9f:f6:cb:9e:a6:18:b3:11:88:
                    24:c9:f3:3e:11:4a:ce:ff:de:2d:08:a3:bd:67:02:
                    bc:a3:ec:5d:0b:21:63:4b:c8:02:79:33:6b:05:e8:
                    28:98:d9:48:55:2e:72:23:60:1c:2f:24:bd:6e:b8:
                    be:10:27:d9:3e:5a:66:b1:a5:a8:7f:c9:39:54:ee:
                    72:24:29:48:02:d1:9e:44:66:fc:bc:1c:fa:61:ad:
                    39:15:f5:c0:4d:86:a6:27:44:65:ee:c5:79:70:39:
                    10:b7
                Exponent: 65537 (0x10001)
        X509v3 extensions:
            X509v3 Basic Constraints: 
                CA:FALSE
            X509v3 Subject Key Identifier: 
                4C:2E:AF:F6:A0:15:BE:43:03:F4:80:51:F2:AF:4F:35:FA:38:99:DC
            X509v3 Authority Key Identifier: 
                keyid:E3:C8:EA:66:CB:EE:AE:96:8E:10:E2:CD:FA:D4:9B:76:74:99:A6:AD
                DirName:/CN=team156-net
                serial:6B:48:2E:24:9D:69:7D:A4:F2:68:83:F8:5A:74:AB:5A:17:FC:9D:61
            X509v3 Extended Key Usage: 
                TLS Web Client Authentication
            X509v3 Key Usage: 
                Digital Signature
    Signature Algorithm: sha256WithRSAEncryption
    Signature Value:
        3a:8b:56:6b:c0:83:46:fa:a3:48:11:19:2f:f5:84:c9:52:35:
        67:40:34:90:55:8d:df:0c:1b:bc:e4:19:e6:e0:e4:52:13:d0:
        67:5c:ef:d1:19:19:d0:76:2b:11:78:4c:d5:3b:bd:69:74:94:
        28:7e:88:24:fe:b5:49:59:11:fe:75:e2:d8:44:87:08:2a:53:
        90:2a:bf:ab:a8:79:26:7b:63:74:f9:8d:04:c1:d2:01:61:0c:
        0a:43:fc:08:7c:ed:ca:33:dd:06:27:b3:bc:b4:8a:cf:41:33:
        12:9d:ba:12:cd:09:f6:f9:fd:8f:ae:e0:95:a6:22:9c:5c:4a:
        4d:ee:d9:b1:0e:ba:e8:3e:f3:cd:bb:4e:bb:60:42:48:20:b4:
        12:7f:f6:6b:b3:9b:dd:52:5d:a5:55:38:9f:8d:17:05:b1:72:
        96:2b:53:d8:7e:e2:d3:c1:d2:70:2c:e2:53:89:4b:1e:8e:f7:
        ba:f2:f7:d7:65:7a:02:9a:a6:4a:38:57:2d:83:20:4c:98:f1:
        0e:6e:56:68:50:35:30:86:26:e7:0d:8e:d4:f8:8a:d4:95:9b:
        bd:9a:a7:e1:83:f3:77:40:e4:22:de:48:e8:95:fb:95:ab:a3:
        6f:11:70:de:b9:c0:91:e5:d1:84:b9:29:b3:d5:50:ba:e6:9b:
        97:80:7b:a8
-----BEGIN CERTIFICATE-----
MIIDXDCCAkSgAwIBAgIQFFv8VngRvoziUJzjB8T/OzANBgkqhkiG9w0BAQsFADAW
MRQwEgYDVQQDDAt0ZWFtMTU2LW5ldDAeFw0yMzExMDMyMDQyMDJaFw0yNjEwMTgy
MDQyMDJaMBkxFzAVBgNVBAMMDnRlYW0xNTYtY2xpZW50MIIBIjANBgkqhkiG9w0B
AQEFAAOCAQ8AMIIBCgKCAQEAxUXslkFbMyJRynwpBXdamtZ7AB5AWTlI6AEcbGH/
v89qqxYytU3fE4Es76pdvG/Sdn9qduWrPrpTl858ROHcT0H5KNYoA/LSVimtyyRQ
78n0jo/JJZUFpaawL4Rl3t1SZqJ+BBUls8oosCXC/42GvTsI2lz6HO85yw4CqMS8
f7kvbWLaw2GIjrnZVIRQ7piItEOWsX9x/rw4bB+f9suephizEYgkyfM+EUrO/94t
CKO9ZwK8o+xdCyFjS8gCeTNrBegomNlIVS5yI2AcLyS9bri+ECfZPlpmsaWof8k5
VO5yJClIAtGeRGb8vBz6Ya05FfXATYamJ0Rl7sV5cDkQtwIDAQABo4GiMIGfMAkG
A1UdEwQCMAAwHQYDVR0OBBYEFEwur/agFb5DA/SAUfKvTzX6OJncMFEGA1UdIwRK
MEiAFOPI6mbL7q6WjhDizfrUm3Z0maatoRqkGDAWMRQwEgYDVQQDDAt0ZWFtMTU2
LW5ldIIUa0guJJ1pfaTyaIP4WnSrWhf8nWEwEwYDVR0lBAwwCgYIKwYBBQUHAwIw
CwYDVR0PBAQDAgeAMA0GCSqGSIb3DQEBCwUAA4IBAQA6i1ZrwING+qNIERkv9YTJ
UjVnQDSQVY3fDBu85Bnm4ORSE9BnXO/RGRnQdisReEzVO71pdJQofogk/rVJWRH+
deLYRIcIKlOQKr+rqHkme2N0+Y0EwdIBYQwKQ/wIfO3KM90GJ7O8tIrPQTMSnboS
zQn2+f2PruCVpiKcXEpN7tmxDrroPvPNu067YEJIILQSf/Zrs5vdUl2lVTifjRcF
sXKWK1PYfuLTwdJwLOJTiUsejve68vfXZXoCmqZKOFctgyBMmPEOblZoUDUwhibn
DY7U+IrUlZu9mqfhg/N3QOQi3kjolfuVq6NvEXDeucCR5dGEuSmz1VC65puXgHuo
-----END CERTIFICATE-----
