Certificate:
    Data:
        Version: 3 (0x2)
        Serial Number:
            b5:29:13:ea:f3:90:7f:da:ca:a6:78:7d:c0:67:8c:75
        Signature Algorithm: sha256WithRSAEncryption
        Issuer: CN=team156-net
        Validity
            Not Before: Nov  4 11:30:39 2023 GMT
            Not After : Oct 19 11:30:39 2026 GMT
        Subject: CN=team156-client
        Subject Public Key Info:
            Public Key Algorithm: rsaEncryption
                Public-Key: (2048 bit)
                Modulus:
                    00:ac:c9:9c:51:29:46:41:e3:84:d1:09:9f:15:da:
                    50:00:57:9e:7d:79:86:12:ec:18:88:2d:09:08:39:
                    e1:3b:16:1d:2b:fa:64:2f:72:50:88:c7:67:1d:57:
                    49:eb:50:3b:1b:3b:d9:78:e2:96:27:3b:a2:24:ba:
                    cd:69:3e:30:11:f0:c3:40:b7:e5:43:0f:2f:fe:e1:
                    48:c6:4c:38:c1:42:23:f2:a3:38:c5:60:a5:f5:ea:
                    83:a5:7c:b2:05:a3:7a:23:93:69:7a:fd:98:2f:f3:
                    e9:87:5f:b0:8b:ed:e7:b9:3c:ca:d5:80:79:8b:36:
                    a3:1d:f5:10:14:aa:a1:89:ef:47:83:96:1b:f8:3e:
                    a3:bc:13:90:53:e8:db:90:f9:0f:55:55:ea:af:1b:
                    a6:82:63:47:fb:71:45:7e:d7:fb:8e:6e:d0:bd:c4:
                    50:89:8c:fa:f9:ec:37:13:1e:95:70:ff:ed:45:82:
                    ac:4c:ee:0e:23:66:da:9b:a0:34:c6:e8:0f:45:c1:
                    82:e8:16:ae:ed:67:38:82:3a:b4:8c:21:17:c0:65:
                    04:26:76:a1:26:ff:c2:a6:cd:2f:64:47:6a:9f:07:
                    9e:5e:37:0b:8c:53:72:e8:b3:89:a1:6a:00:7c:72:
                    8e:66:71:6c:25:57:33:05:88:f9:cd:3a:4c:72:ef:
                    e5:9b
                Exponent: 65537 (0x10001)
        X509v3 extensions:
            X509v3 Basic Constraints: 
                CA:FALSE
            X509v3 Subject Key Identifier: 
                04:9A:59:23:BE:28:D4:CF:8B:E2:A8:F8:56:FD:B2:71:69:CE:1B:77
            X509v3 Authority Key Identifier: 
                keyid:B6:06:F1:62:A1:88:A4:B5:61:C2:B2:C9:68:D5:53:D2:22:B1:3E:9A
                DirName:/CN=team156-net
                serial:0D:F8:FF:78:28:AF:E3:03:96:F3:22:EE:9B:D8:BA:04:24:C4:D4:35
            X509v3 Extended Key Usage: 
                TLS Web Client Authentication
            X509v3 Key Usage: 
                Digital Signature
    Signature Algorithm: sha256WithRSAEncryption
    Signature Value:
        7d:aa:c0:e1:43:28:c8:fd:9b:75:bc:b8:54:68:56:eb:0c:f1:
        8b:d8:de:3b:44:7c:3f:d4:65:ef:e9:ec:da:6d:c3:73:88:b0:
        29:fa:fa:2c:82:6e:ee:62:24:8c:95:91:6f:9e:59:8f:6d:3e:
        6a:e5:f2:94:d0:fa:67:3b:af:05:ad:05:bf:81:96:cf:e2:df:
        28:f2:03:31:a8:49:b8:09:42:9f:c3:8e:69:13:43:3b:79:c9:
        41:3c:bc:60:53:15:61:fc:17:01:40:2d:f1:26:89:87:96:04:
        db:cb:5e:6a:02:97:da:7c:ac:8f:44:c8:b9:a9:ec:56:35:ce:
        23:9c:d5:41:fa:5d:7f:1a:af:cb:0c:89:aa:42:53:3a:e9:c2:
        3a:6b:d2:6c:cc:01:76:7f:2c:aa:a6:95:63:b5:95:6a:44:4d:
        d2:47:f2:df:5d:13:e9:d3:4b:ab:0a:00:cb:a6:48:dd:33:4d:
        75:90:26:7a:81:e1:9e:18:9e:dc:50:7a:26:a9:32:2e:dd:cd:
        42:5f:5c:9b:67:3b:07:d6:b8:ba:5c:06:18:1c:04:1d:8d:96:
        e6:63:61:c7:ea:a0:f3:63:64:0b:ff:14:17:e7:ba:3c:b3:8d:
        86:c3:e6:69:b3:09:e1:78:b2:47:13:b8:3b:71:fe:6e:42:ca:
        46:2e:c9:ac
-----BEGIN CERTIFICATE-----
MIIDXTCCAkWgAwIBAgIRALUpE+rzkH/ayqZ4fcBnjHUwDQYJKoZIhvcNAQELBQAw
FjEUMBIGA1UEAwwLdGVhbTE1Ni1uZXQwHhcNMjMxMTA0MTEzMDM5WhcNMjYxMDE5
MTEzMDM5WjAZMRcwFQYDVQQDDA50ZWFtMTU2LWNsaWVudDCCASIwDQYJKoZIhvcN
AQEBBQADggEPADCCAQoCggEBAKzJnFEpRkHjhNEJnxXaUABXnn15hhLsGIgtCQg5
4TsWHSv6ZC9yUIjHZx1XSetQOxs72Xjilic7oiS6zWk+MBHww0C35UMPL/7hSMZM
OMFCI/KjOMVgpfXqg6V8sgWjeiOTaXr9mC/z6YdfsIvt57k8ytWAeYs2ox31EBSq
oYnvR4OWG/g+o7wTkFPo25D5D1VV6q8bpoJjR/txRX7X+45u0L3EUImM+vnsNxMe
lXD/7UWCrEzuDiNm2pugNMboD0XBgugWru1nOII6tIwhF8BlBCZ2oSb/wqbNL2RH
ap8Hnl43C4xTcuiziaFqAHxyjmZxbCVXMwWI+c06THLv5ZsCAwEAAaOBojCBnzAJ
BgNVHRMEAjAAMB0GA1UdDgQWBBQEmlkjvijUz4viqPhW/bJxac4bdzBRBgNVHSME
SjBIgBS2BvFioYiktWHCsslo1VPSIrE+mqEapBgwFjEUMBIGA1UEAwwLdGVhbTE1
Ni1uZXSCFA34/3gor+MDlvMi7pvYugQkxNQ1MBMGA1UdJQQMMAoGCCsGAQUFBwMC
MAsGA1UdDwQEAwIHgDANBgkqhkiG9w0BAQsFAAOCAQEAfarA4UMoyP2bdby4VGhW
6wzxi9jeO0R8P9Rl7+ns2m3Dc4iwKfr6LIJu7mIkjJWRb55Zj20+auXylND6Zzuv
Ba0Fv4GWz+LfKPIDMahJuAlCn8OOaRNDO3nJQTy8YFMVYfwXAUAt8SaJh5YE28te
agKX2nysj0TIuansVjXOI5zVQfpdfxqvywyJqkJTOunCOmvSbMwBdn8sqqaVY7WV
akRN0kfy310T6dNLqwoAy6ZI3TNNdZAmeoHhnhie3FB6JqkyLt3NQl9cm2c7B9a4
ulwGGBwEHY2W5mNhx+qg82NkC/8UF+e6PLONhsPmabMJ4XiyRxO4O3H+bkLKRi7J
rA==
-----END CERTIFICATE-----
