Certificate:
    Data:
        Version: 3 (0x2)
        Serial Number:
            da:9d:4e:59:5b:ad:a3:ed:04:29:b5:97:53:5b:6e:83
        Signature Algorithm: sha256WithRSAEncryption
        Issuer: CN=team156-net
        Validity
            Not Before: Nov  4 10:43:26 2023 GMT
            Not After : Oct 19 10:43:26 2026 GMT
        Subject: CN=team156-client
        Subject Public Key Info:
            Public Key Algorithm: rsaEncryption
                Public-Key: (2048 bit)
                Modulus:
                    00:c9:7d:06:aa:d9:12:4f:3b:f6:f5:45:fc:9e:9e:
                    7c:ee:27:38:17:59:7a:31:66:8f:b5:96:33:cf:cf:
                    ad:43:35:e8:0d:1a:c2:5f:ea:d0:b8:5b:33:45:e6:
                    95:62:75:f2:f5:7d:92:27:67:1b:70:ba:90:9b:f2:
                    2d:b4:9a:18:46:b7:ab:5e:90:fb:26:42:fd:c1:91:
                    ba:65:30:e3:df:d1:dc:d1:14:5c:1f:28:ef:67:0c:
                    5a:0b:16:19:de:69:06:5a:f1:f6:b6:e5:9c:99:7a:
                    d8:36:5f:03:29:fd:f5:31:e6:8d:83:d6:a2:e1:bc:
                    11:4a:86:87:29:8f:88:5d:ce:57:f6:68:08:70:4a:
                    53:1e:0e:ad:70:b3:57:21:c7:81:64:52:7a:a7:8b:
                    57:6b:79:ac:73:0d:d5:61:ed:91:db:84:d6:2e:b5:
                    54:af:2a:17:0f:0e:33:c3:54:7f:c0:3a:67:62:10:
                    35:28:87:9d:37:81:29:5d:19:9b:08:b0:e5:80:75:
                    5b:43:92:65:40:f0:c5:56:b9:53:d2:5b:fb:2b:10:
                    18:67:27:6e:f1:d4:45:c9:6d:04:e5:57:22:cb:50:
                    2c:9c:ca:8d:96:d9:32:89:c5:39:55:27:fc:be:03:
                    b7:fb:dd:39:6d:f4:08:8b:97:03:ac:0c:2e:43:68:
                    f6:c7
                Exponent: 65537 (0x10001)
        X509v3 extensions:
            X509v3 Basic Constraints: 
                CA:FALSE
            X509v3 Subject Key Identifier: 
                72:EC:1B:A0:D8:BC:0A:A5:04:28:41:13:FB:0A:FA:A0:04:8D:E4:C7
            X509v3 Authority Key Identifier: 
                keyid:BF:D0:F0:3B:9B:78:42:DC:43:83:5C:7D:E0:6A:38:44:B9:A5:58:46
                DirName:/CN=team156-net
                serial:58:B2:84:C7:57:91:7B:A8:2A:09:53:31:77:51:87:50:46:58:85:80
            X509v3 Extended Key Usage: 
                TLS Web Client Authentication
            X509v3 Key Usage: 
                Digital Signature
    Signature Algorithm: sha256WithRSAEncryption
    Signature Value:
        00:c6:7d:a0:5f:9b:0c:12:d4:4e:ca:62:32:fd:73:f5:80:4c:
        49:c9:64:7c:99:1d:57:56:6b:93:67:d1:fc:05:7d:96:4d:dc:
        af:79:35:80:e2:61:89:03:ce:fa:37:db:b5:c8:0e:91:73:10:
        f7:39:39:9d:6d:15:cb:7c:ed:f7:b4:49:8d:4c:2e:21:18:eb:
        2a:b0:86:63:be:d3:55:17:19:1c:92:ea:7d:92:cc:42:74:6f:
        9b:d6:2c:63:e7:0c:a2:cb:08:1a:58:b7:40:b7:e7:ea:7a:4e:
        99:31:7a:b8:3d:7d:d0:c8:dc:8d:f8:49:fc:b7:00:88:d0:e3:
        e6:ad:23:04:30:31:cd:db:59:9e:db:ee:e2:15:36:38:c8:fb:
        f1:b6:3e:d2:97:69:ba:f1:a6:b3:ef:62:54:b0:70:33:55:07:
        dc:8c:b0:33:cb:11:a8:5c:d9:d7:75:a7:74:76:d1:07:fe:1a:
        c4:de:9d:c2:fa:a5:33:0d:54:1b:cf:a9:3d:3c:44:6e:37:38:
        33:26:29:53:d4:e5:0c:0c:97:ec:f1:a1:f4:5b:02:be:82:79:
        57:04:07:d1:85:7d:8f:64:fa:d3:80:c9:b4:72:23:e6:35:e8:
        6a:7c:bb:71:aa:62:57:6a:35:19:62:ad:f9:30:7f:11:1e:29:
        dc:ca:4f:ab
-----BEGIN CERTIFICATE-----
MIIDXTCCAkWgAwIBAgIRANqdTllbraPtBCm1l1NbboMwDQYJKoZIhvcNAQELBQAw
FjEUMBIGA1UEAwwLdGVhbTE1Ni1uZXQwHhcNMjMxMTA0MTA0MzI2WhcNMjYxMDE5
MTA0MzI2WjAZMRcwFQYDVQQDDA50ZWFtMTU2LWNsaWVudDCCASIwDQYJKoZIhvcN
AQEBBQADggEPADCCAQoCggEBAMl9BqrZEk879vVF/J6efO4nOBdZejFmj7WWM8/P
rUM16A0awl/q0LhbM0XmlWJ18vV9kidnG3C6kJvyLbSaGEa3q16Q+yZC/cGRumUw
49/R3NEUXB8o72cMWgsWGd5pBlrx9rblnJl62DZfAyn99THmjYPWouG8EUqGhymP
iF3OV/ZoCHBKUx4OrXCzVyHHgWRSeqeLV2t5rHMN1WHtkduE1i61VK8qFw8OM8NU
f8A6Z2IQNSiHnTeBKV0Zmwiw5YB1W0OSZUDwxVa5U9Jb+ysQGGcnbvHURcltBOVX
IstQLJzKjZbZMonFOVUn/L4Dt/vdOW30CIuXA6wMLkNo9scCAwEAAaOBojCBnzAJ
BgNVHRMEAjAAMB0GA1UdDgQWBBRy7Bug2LwKpQQoQRP7CvqgBI3kxzBRBgNVHSME
SjBIgBS/0PA7m3hC3EODXH3gajhEuaVYRqEapBgwFjEUMBIGA1UEAwwLdGVhbTE1
Ni1uZXSCFFiyhMdXkXuoKglTMXdRh1BGWIWAMBMGA1UdJQQMMAoGCCsGAQUFBwMC
MAsGA1UdDwQEAwIHgDANBgkqhkiG9w0BAQsFAAOCAQEAAMZ9oF+bDBLUTspiMv1z
9YBMSclkfJkdV1Zrk2fR/AV9lk3cr3k1gOJhiQPO+jfbtcgOkXMQ9zk5nW0Vy3zt
97RJjUwuIRjrKrCGY77TVRcZHJLqfZLMQnRvm9YsY+cMossIGli3QLfn6npOmTF6
uD190MjcjfhJ/LcAiNDj5q0jBDAxzdtZntvu4hU2OMj78bY+0pdpuvGms+9iVLBw
M1UH3IywM8sRqFzZ13WndHbRB/4axN6dwvqlMw1UG8+pPTxEbjc4MyYpU9TlDAyX
7PGh9FsCvoJ5VwQH0YV9j2T604DJtHIj5jXoany7capiV2o1GWKt+TB/ER4p3MpP
qw==
-----END CERTIFICATE-----
