Certificate:
    Data:
        Version: 3 (0x2)
        Serial Number:
            80:ae:7d:10:22:65:50:70:a2:db:db:19:6b:a3:a2:78
        Signature Algorithm: sha256WithRSAEncryption
        Issuer: CN=team119-net
        Validity
            Not Before: Nov  4 11:29:50 2023 GMT
            Not After : Oct 19 11:29:50 2026 GMT
        Subject: CN=team119-server
        Subject Public Key Info:
            Public Key Algorithm: rsaEncryption
                Public-Key: (2048 bit)
                Modulus:
                    00:e4:03:3a:5c:60:7e:a9:0a:00:6d:13:47:fe:7c:
                    0b:ce:da:1d:14:0c:b5:83:48:61:ad:b2:85:b1:4d:
                    5a:4f:0f:55:6f:a2:92:b2:b9:12:98:08:57:51:1f:
                    13:18:b1:08:10:12:0d:cd:91:d2:39:ef:50:db:b5:
                    36:92:90:6c:3a:67:55:01:36:85:96:b1:67:a4:05:
                    97:04:1b:ec:4d:ae:1f:40:5a:03:bd:eb:b9:cc:29:
                    a7:9b:55:b1:d4:02:2c:56:0d:05:0a:7d:fe:60:9e:
                    99:ef:bc:a2:95:04:59:8f:6e:18:09:d5:01:9c:23:
                    1f:90:95:70:cb:38:c0:72:af:ca:c5:43:fd:d0:9f:
                    38:02:2b:81:3b:4f:9b:3a:42:e3:42:94:5a:29:7f:
                    8d:8b:9e:2b:ce:f3:3a:8f:8d:25:dd:0d:f1:40:eb:
                    6a:82:a4:37:50:aa:49:89:1f:54:38:bb:65:04:4e:
                    6f:29:02:33:20:2d:0e:bc:10:3d:1f:7f:66:97:ea:
                    fe:46:54:5d:1c:52:cc:88:24:ec:22:d1:a6:b5:f1:
                    f5:6b:c5:9b:1e:9c:be:bc:a0:1e:3d:8f:ed:01:b6:
                    f1:e4:37:cc:46:61:34:7f:92:40:1a:a8:f8:ea:fe:
                    86:85:4d:41:e8:25:f9:a6:b2:66:7a:68:37:0e:39:
                    c5:b9
                Exponent: 65537 (0x10001)
        X509v3 extensions:
            X509v3 Basic Constraints: 
                CA:FALSE
            X509v3 Subject Key Identifier: 
                53:E2:D8:77:ED:3E:D7:CD:ED:58:26:2A:96:5F:BF:E1:A8:F0:93:79
            X509v3 Authority Key Identifier: 
                keyid:31:38:03:8F:CA:B5:32:50:16:1B:DE:CB:AE:A3:E5:59:7A:A8:AF:93
                DirName:/CN=team119-net
                serial:2E:81:59:21:91:78:2A:4E:D5:20:AC:B1:73:0A:BC:EB:0C:4F:4F:C6
            X509v3 Extended Key Usage: 
                TLS Web Server Authentication
            X509v3 Key Usage: 
                Digital Signature, Key Encipherment
            X509v3 Subject Alternative Name: 
                DNS:team119-server
    Signature Algorithm: sha256WithRSAEncryption
    Signature Value:
        16:b6:95:60:95:5d:09:16:5a:84:00:43:2a:1e:7f:3f:a9:34:
        a8:fa:d9:9f:20:2b:d3:e5:8d:c6:d3:34:f9:78:b6:1e:d0:4f:
        20:2f:e1:9c:d4:fe:48:c4:75:29:63:01:46:cc:76:21:7e:ae:
        a3:e0:50:3b:9b:71:a8:6e:04:24:1e:4f:21:8e:8c:b5:fb:b1:
        f1:65:f9:88:fc:91:9b:06:9e:58:96:0e:ae:ef:ba:aa:d0:50:
        55:6c:dd:14:82:00:fb:74:a1:e1:a0:01:f5:0f:b8:4c:a6:a0:
        4b:88:00:72:dd:0f:8b:c6:6f:5f:43:21:86:b7:6b:56:fb:3b:
        5c:49:25:82:18:fa:fb:fd:fd:5e:b4:d6:a7:0f:d7:02:2b:7e:
        3e:c8:c7:a1:76:3d:94:08:9e:2f:c1:b6:65:05:27:0e:42:20:
        81:50:a5:14:a5:6e:ae:7c:16:19:9f:d5:83:5a:13:3e:c9:c4:
        46:19:f9:2d:b0:0f:f7:1c:df:01:74:44:96:97:ec:4f:52:cc:
        98:66:6d:59:94:61:89:92:c6:5b:a2:48:1d:53:f6:da:90:4c:
        67:b8:01:b4:4a:ee:70:cd:a8:5f:57:f6:74:20:0d:12:64:9f:
        f1:0e:96:91:72:fb:a8:3c:9b:1e:94:f9:e2:78:fe:a1:7a:75:
        01:13:1d:3e
-----BEGIN CERTIFICATE-----
MIIDeDCCAmCgAwIBAgIRAICufRAiZVBwotvbGWujongwDQYJKoZIhvcNAQELBQAw
FjEUMBIGA1UEAwwLdGVhbTExOS1uZXQwHhcNMjMxMTA0MTEyOTUwWhcNMjYxMDE5
MTEyOTUwWjAZMRcwFQYDVQQDDA50ZWFtMTE5LXNlcnZlcjCCASIwDQYJKoZIhvcN
AQEBBQADggEPADCCAQoCggEBAOQDOlxgfqkKAG0TR/58C87aHRQMtYNIYa2yhbFN
Wk8PVW+ikrK5EpgIV1EfExixCBASDc2R0jnvUNu1NpKQbDpnVQE2hZaxZ6QFlwQb
7E2uH0BaA73rucwpp5tVsdQCLFYNBQp9/mCeme+8opUEWY9uGAnVAZwjH5CVcMs4
wHKvysVD/dCfOAIrgTtPmzpC40KUWil/jYueK87zOo+NJd0N8UDraoKkN1CqSYkf
VDi7ZQRObykCMyAtDrwQPR9/Zpfq/kZUXRxSzIgk7CLRprXx9WvFmx6cvrygHj2P
7QG28eQ3zEZhNH+SQBqo+Or+hoVNQegl+aayZnpoNw45xbkCAwEAAaOBvTCBujAJ
BgNVHRMEAjAAMB0GA1UdDgQWBBRT4th37T7Xze1YJiqWX7/hqPCTeTBRBgNVHSME
SjBIgBQxOAOPyrUyUBYb3suuo+VZeqivk6EapBgwFjEUMBIGA1UEAwwLdGVhbTEx
OS1uZXSCFC6BWSGReCpO1SCssXMKvOsMT0/GMBMGA1UdJQQMMAoGCCsGAQUFBwMB
MAsGA1UdDwQEAwIFoDAZBgNVHREEEjAQgg50ZWFtMTE5LXNlcnZlcjANBgkqhkiG
9w0BAQsFAAOCAQEAFraVYJVdCRZahABDKh5/P6k0qPrZnyAr0+WNxtM0+Xi2HtBP
IC/hnNT+SMR1KWMBRsx2IX6uo+BQO5txqG4EJB5PIY6Mtfux8WX5iPyRmwaeWJYO
ru+6qtBQVWzdFIIA+3Sh4aAB9Q+4TKagS4gAct0Pi8ZvX0MhhrdrVvs7XEklghj6
+/39XrTWpw/XAit+PsjHoXY9lAieL8G2ZQUnDkIggVClFKVurnwWGZ/Vg1oTPsnE
Rhn5LbAP9xzfAXRElpfsT1LMmGZtWZRhiZLGW6JIHVP22pBMZ7gBtErucM2oX1f2
dCANEmSf8Q6WkXL7qDybHpT54nj+oXp1ARMdPg==
-----END CERTIFICATE-----
