Certificate:
    Data:
        Version: 3 (0x2)
        Serial Number:
            c0:b8:13:03:66:e4:5a:94:d5:b5:5e:34:cd:4c:e1:30
        Signature Algorithm: sha256WithRSAEncryption
        Issuer: CN=team119-net
        Validity
            Not Before: Nov  3 20:41:16 2023 GMT
            Not After : Oct 18 20:41:16 2026 GMT
        Subject: CN=team119-client
        Subject Public Key Info:
            Public Key Algorithm: rsaEncryption
                Public-Key: (2048 bit)
                Modulus:
                    00:cc:91:cb:2e:a6:56:d8:ad:12:94:95:b4:32:de:
                    d9:6e:80:e8:d4:50:b4:da:7a:62:9e:d0:f2:f3:c4:
                    59:e0:c5:a3:69:e5:67:41:7e:8f:42:d9:da:5c:f1:
                    5f:22:73:b1:06:39:70:7f:79:0c:51:cf:01:51:18:
                    5d:48:2c:21:e3:3d:e3:33:41:90:aa:92:0b:6a:79:
                    c3:66:ee:30:78:4e:59:47:2e:01:5f:0f:06:9e:c6:
                    56:80:bd:6e:d4:57:b1:1d:0a:55:e1:42:85:35:d2:
                    63:d1:0a:9d:a2:fd:d2:9d:36:4a:f0:9b:4e:9b:7d:
                    53:43:a9:cd:da:b5:f3:56:a1:14:1f:69:0f:e8:ae:
                    50:95:5f:ee:76:88:25:99:7b:43:23:7f:74:5a:4d:
                    03:43:f3:38:c1:d4:e5:31:c0:2a:41:b7:af:f4:bf:
                    86:1d:db:96:5c:63:af:6c:47:e2:3e:2c:cb:1f:53:
                    d2:a1:99:58:21:57:0e:50:f6:05:5e:38:89:e7:95:
                    b1:d4:2d:90:2d:f1:df:e5:5e:f5:a9:e6:17:85:1f:
                    29:0d:52:b2:32:db:56:37:04:50:6d:52:29:fd:e4:
                    0e:4a:be:6c:cd:86:8a:1c:34:db:8e:83:44:ce:47:
                    05:29:a7:9a:b2:96:13:de:f9:24:3f:37:ab:39:4a:
                    a7:d7
                Exponent: 65537 (0x10001)
        X509v3 extensions:
            X509v3 Basic Constraints: 
                CA:FALSE
            X509v3 Subject Key Identifier: 
                7B:D0:24:55:FA:0B:E1:68:73:8E:1F:A2:D7:D4:AB:33:0E:13:2A:3A
            X509v3 Authority Key Identifier: 
                keyid:B9:4B:BC:0D:5D:BA:66:5F:5A:08:61:F3:B2:FC:25:DD:DA:0F:D8:B5
                DirName:/CN=team119-net
                serial:6B:75:A1:CE:0C:A1:D7:09:DC:96:16:04:98:02:29:FA:E3:42:18:43
            X509v3 Extended Key Usage: 
                TLS Web Client Authentication
            X509v3 Key Usage: 
                Digital Signature
    Signature Algorithm: sha256WithRSAEncryption
    Signature Value:
        84:8f:fb:59:66:8a:c8:be:27:f5:ad:90:d1:84:e8:a9:5e:a9:
        d2:ea:a7:33:f1:54:54:4b:83:e2:d4:dc:06:9f:3f:9a:5a:89:
        28:3f:44:29:e0:83:da:1d:fa:8d:1c:6c:d5:02:1d:b1:43:b1:
        c5:ad:32:13:75:1a:df:63:0b:8a:dc:db:52:83:cb:b5:2b:57:
        84:b3:18:50:13:b7:ef:d8:36:02:1e:71:b8:af:3e:2f:73:1e:
        8e:37:ea:c1:4a:e1:44:cc:58:d7:27:a3:e3:f4:08:b9:d1:c5:
        d9:73:cd:21:39:1b:13:e9:b3:2e:41:9f:02:2c:ef:3e:7b:23:
        b4:37:7c:ef:5e:2c:27:25:dd:ec:5d:f2:bc:10:1b:02:02:70:
        f5:9b:a8:df:ca:40:0b:87:df:67:87:99:6f:75:56:e8:68:d4:
        f9:4d:59:51:b2:a4:4a:ab:cc:b3:2a:ed:39:61:7e:68:c4:98:
        4f:65:c9:f2:7f:b0:8e:94:b8:ad:9b:82:ec:a2:09:50:23:c1:
        92:8b:8c:21:93:5b:2c:92:f4:2a:00:15:a6:4c:39:a7:e5:2c:
        d4:34:81:be:73:f9:27:75:8f:37:64:93:15:31:8b:00:c8:cd:
        9b:86:95:ab:af:a5:ee:0b:ff:3f:2a:67:4c:c2:27:94:ea:fc:
        8e:c6:6a:21
-----BEGIN CERTIFICATE-----
MIIDXTCCAkWgAwIBAgIRAMC4EwNm5FqU1bVeNM1M4TAwDQYJKoZIhvcNAQELBQAw
FjEUMBIGA1UEAwwLdGVhbTExOS1uZXQwHhcNMjMxMTAzMjA0MTE2WhcNMjYxMDE4
MjA0MTE2WjAZMRcwFQYDVQQDDA50ZWFtMTE5LWNsaWVudDCCASIwDQYJKoZIhvcN
AQEBBQADggEPADCCAQoCggEBAMyRyy6mVtitEpSVtDLe2W6A6NRQtNp6Yp7Q8vPE
WeDFo2nlZ0F+j0LZ2lzxXyJzsQY5cH95DFHPAVEYXUgsIeM94zNBkKqSC2p5w2bu
MHhOWUcuAV8PBp7GVoC9btRXsR0KVeFChTXSY9EKnaL90p02SvCbTpt9U0Opzdq1
81ahFB9pD+iuUJVf7naIJZl7QyN/dFpNA0PzOMHU5THAKkG3r/S/hh3bllxjr2xH
4j4syx9T0qGZWCFXDlD2BV44ieeVsdQtkC3x3+Ve9anmF4UfKQ1SsjLbVjcEUG1S
Kf3kDkq+bM2Gihw0246DRM5HBSmnmrKWE975JD83qzlKp9cCAwEAAaOBojCBnzAJ
BgNVHRMEAjAAMB0GA1UdDgQWBBR70CRV+gvhaHOOH6LX1KszDhMqOjBRBgNVHSME
SjBIgBS5S7wNXbpmX1oIYfOy/CXd2g/YtaEapBgwFjEUMBIGA1UEAwwLdGVhbTEx
OS1uZXSCFGt1oc4ModcJ3JYWBJgCKfrjQhhDMBMGA1UdJQQMMAoGCCsGAQUFBwMC
MAsGA1UdDwQEAwIHgDANBgkqhkiG9w0BAQsFAAOCAQEAhI/7WWaKyL4n9a2Q0YTo
qV6p0uqnM/FUVEuD4tTcBp8/mlqJKD9EKeCD2h36jRxs1QIdsUOxxa0yE3Ua32ML
itzbUoPLtStXhLMYUBO379g2Ah5xuK8+L3MejjfqwUrhRMxY1yej4/QIudHF2XPN
ITkbE+mzLkGfAizvPnsjtDd8714sJyXd7F3yvBAbAgJw9Zuo38pAC4ffZ4eZb3VW
6GjU+U1ZUbKkSqvMsyrtOWF+aMSYT2XJ8n+wjpS4rZuC7KIJUCPBkouMIZNbLJL0
KgAVpkw5p+Us1DSBvnP5J3WPN2STFTGLAMjNm4aVq6+l7gv/PypnTMInlOr8jsZq
IQ==
-----END CERTIFICATE-----
