Certificate:
    Data:
        Version: 3 (0x2)
        Serial Number:
            f0:26:a3:a0:05:0c:89:2e:3a:22:ed:9a:5d:c3:d3:af
        Signature Algorithm: sha256WithRSAEncryption
        Issuer: CN=team39-net
        Validity
            Not Before: Nov  3 20:39:56 2023 GMT
            Not After : Oct 18 20:39:56 2026 GMT
        Subject: CN=team39-server
        Subject Public Key Info:
            Public Key Algorithm: rsaEncryption
                Public-Key: (2048 bit)
                Modulus:
                    00:c3:80:c5:d0:f0:3a:0d:ed:05:c2:c4:e3:e1:14:
                    35:14:8c:c1:9a:81:bb:dd:d4:67:e5:e0:37:35:40:
                    99:ab:ef:77:af:96:d6:97:3d:d3:18:55:1d:37:02:
                    eb:d1:2a:ed:bc:ce:14:19:18:21:95:32:c4:dc:3a:
                    86:15:29:6e:28:c3:02:a1:1a:65:e1:15:e1:80:d9:
                    2d:0a:2a:6b:4c:90:07:42:7e:63:11:de:9c:89:d1:
                    24:4d:7c:72:53:ac:0f:11:15:16:fa:24:5f:21:d7:
                    54:63:1a:49:55:51:91:c1:97:5c:ea:ef:3c:f6:24:
                    32:e4:7d:08:b2:a2:8b:9b:9e:58:3c:3d:45:7e:1b:
                    34:c2:9d:1e:bf:a8:4a:7d:32:73:00:9b:c3:62:4f:
                    45:8f:ea:04:ce:25:1f:9f:1e:c5:75:02:86:86:7a:
                    70:a7:23:d0:54:95:9d:9c:d7:6a:f9:cc:cc:0c:56:
                    b9:a4:f0:81:36:54:b5:c4:68:d0:36:97:80:ab:6d:
                    ad:ec:32:f0:bf:3e:ad:6f:e5:cd:f3:c7:ed:1e:58:
                    2f:55:31:c9:5a:9f:79:f5:01:b5:1f:95:62:77:d9:
                    68:29:fc:3e:3e:1d:03:2b:d5:34:a6:43:92:5d:2c:
                    7f:95:bb:77:00:33:5b:3a:24:f1:97:9b:93:e4:13:
                    b8:bf
                Exponent: 65537 (0x10001)
        X509v3 extensions:
            X509v3 Basic Constraints: 
                CA:FALSE
            X509v3 Subject Key Identifier: 
                6D:6D:E2:94:67:DE:7F:47:B8:8E:6F:3F:D7:D4:7F:F8:C7:61:A6:E1
            X509v3 Authority Key Identifier: 
                keyid:E9:97:98:4C:07:E0:EF:74:6F:A7:56:DC:B8:91:20:22:2B:0C:68:5E
                DirName:/CN=team39-net
                serial:60:67:0A:12:54:96:64:1D:D2:3B:9D:FE:3D:85:F0:B1:48:42:E7:FC
            X509v3 Extended Key Usage: 
                TLS Web Server Authentication
            X509v3 Key Usage: 
                Digital Signature, Key Encipherment
            X509v3 Subject Alternative Name: 
                DNS:team39-server
    Signature Algorithm: sha256WithRSAEncryption
    Signature Value:
        71:1e:4d:71:2c:72:5b:7f:fb:59:e1:c7:51:36:5c:a3:5b:bb:
        1a:9d:1f:1d:13:2c:60:b6:ed:ee:62:a3:1f:0b:d2:38:21:a4:
        19:ff:fc:56:52:aa:92:4f:4a:62:46:ca:c8:ad:e9:3f:71:35:
        66:1a:df:5d:0c:94:26:bf:2b:43:22:8f:50:e1:53:c0:ed:24:
        64:75:6f:10:ea:31:79:0b:4f:a6:83:a9:d9:50:32:c0:58:43:
        4c:0d:3c:e8:13:fa:6d:31:a8:a2:ac:74:74:41:8e:4b:7c:e1:
        9e:ee:1c:be:ef:c4:05:b2:65:a9:6c:84:ab:2f:df:f2:88:2a:
        da:5d:79:b9:84:8f:8f:c5:08:30:77:8f:a2:3d:66:89:28:bb:
        b1:9f:f4:cc:d4:fa:85:5b:38:01:41:40:60:4f:90:36:41:04:
        cc:26:29:d4:51:a8:51:37:a7:7e:e9:29:72:b1:f1:77:9e:ee:
        db:cd:23:36:cb:e6:9d:f8:6c:af:c2:fd:be:5c:9e:d9:21:56:
        a5:63:ea:5a:ba:7a:26:f3:2a:ad:61:57:56:26:73:e2:9c:27:
        76:cc:90:d7:f6:94:10:ea:0d:70:0a:d6:c9:54:48:5b:de:ee:
        34:f4:4b:43:15:16:9e:1e:b2:ca:dc:17:6a:d9:a8:a1:83:77:
        ab:0b:54:01
-----BEGIN CERTIFICATE-----
MIIDdDCCAlygAwIBAgIRAPAmo6AFDIkuOiLtml3D068wDQYJKoZIhvcNAQELBQAw
FTETMBEGA1UEAwwKdGVhbTM5LW5ldDAeFw0yMzExMDMyMDM5NTZaFw0yNjEwMTgy
MDM5NTZaMBgxFjAUBgNVBAMMDXRlYW0zOS1zZXJ2ZXIwggEiMA0GCSqGSIb3DQEB
AQUAA4IBDwAwggEKAoIBAQDDgMXQ8DoN7QXCxOPhFDUUjMGagbvd1Gfl4Dc1QJmr
73evltaXPdMYVR03AuvRKu28zhQZGCGVMsTcOoYVKW4owwKhGmXhFeGA2S0KKmtM
kAdCfmMR3pyJ0SRNfHJTrA8RFRb6JF8h11RjGklVUZHBl1zq7zz2JDLkfQiyooub
nlg8PUV+GzTCnR6/qEp9MnMAm8NiT0WP6gTOJR+fHsV1AoaGenCnI9BUlZ2c12r5
zMwMVrmk8IE2VLXEaNA2l4Crba3sMvC/Pq1v5c3zx+0eWC9VMclan3n1AbUflWJ3
2Wgp/D4+HQMr1TSmQ5JdLH+Vu3cAM1s6JPGXm5PkE7i/AgMBAAGjgbswgbgwCQYD
VR0TBAIwADAdBgNVHQ4EFgQUbW3ilGfef0e4jm8/19R/+MdhpuEwUAYDVR0jBEkw
R4AU6ZeYTAfg73Rvp1bcuJEgIisMaF6hGaQXMBUxEzARBgNVBAMMCnRlYW0zOS1u
ZXSCFGBnChJUlmQd0jud/j2F8LFIQuf8MBMGA1UdJQQMMAoGCCsGAQUFBwMBMAsG
A1UdDwQEAwIFoDAYBgNVHREEETAPgg10ZWFtMzktc2VydmVyMA0GCSqGSIb3DQEB
CwUAA4IBAQBxHk1xLHJbf/tZ4cdRNlyjW7sanR8dEyxgtu3uYqMfC9I4IaQZ//xW
UqqST0piRsrIrek/cTVmGt9dDJQmvytDIo9Q4VPA7SRkdW8Q6jF5C0+mg6nZUDLA
WENMDTzoE/ptMaiirHR0QY5LfOGe7hy+78QFsmWpbISrL9/yiCraXXm5hI+PxQgw
d4+iPWaJKLuxn/TM1PqFWzgBQUBgT5A2QQTMJinUUahRN6d+6SlysfF3nu7bzSM2
y+ad+Gyvwv2+XJ7ZIValY+paunom8yqtYVdWJnPinCd2zJDX9pQQ6g1wCtbJVEhb
3u409EtDFRaeHrLK3Bdq2aihg3erC1QB
-----END CERTIFICATE-----
