Certificate:
    Data:
        Version: 3 (0x2)
        Serial Number:
            a3:c8:8d:cd:3d:42:1d:bf:6a:c9:1a:ac:f1:09:51:1d
        Signature Algorithm: sha256WithRSAEncryption
        Issuer: CN=team39-net
        Validity
            Not Before: Nov  3 20:39:56 2023 GMT
            Not After : Oct 18 20:39:56 2026 GMT
        Subject: CN=team39-client
        Subject Public Key Info:
            Public Key Algorithm: rsaEncryption
                Public-Key: (2048 bit)
                Modulus:
                    00:c4:27:2b:bd:bf:a7:e6:01:aa:a9:80:39:31:e6:
                    78:82:49:1a:8b:55:b5:ac:7b:65:c8:29:08:39:2e:
                    5d:3a:1f:8e:2d:29:d9:d6:11:e6:bb:60:2e:57:10:
                    94:bb:d9:d7:c6:bf:e7:3c:b9:9a:60:95:34:51:5e:
                    a2:36:1e:12:cf:a9:28:02:07:0b:46:b7:8c:85:bb:
                    da:b0:aa:0b:e7:72:bb:7c:43:f2:33:11:da:99:ca:
                    1f:85:e0:55:0e:d7:fe:d7:78:50:21:fb:f4:4e:b1:
                    f9:be:93:fa:e8:6a:8c:e8:c7:9b:39:8e:4e:5a:48:
                    8b:64:ba:7c:2b:24:93:21:19:47:40:88:57:11:35:
                    05:21:04:04:52:11:9f:57:b1:71:28:cb:9d:1a:f5:
                    41:99:8d:1d:3a:1b:92:24:36:05:2b:28:b5:e4:02:
                    76:01:dd:8d:54:2a:e8:00:ec:e9:ff:dd:d0:bf:b2:
                    f3:8f:31:7d:a1:47:bb:b7:f9:a7:32:ed:2f:28:be:
                    26:98:6d:37:09:a6:e4:b9:09:e7:8f:61:2c:84:c3:
                    8d:4f:35:77:c3:19:b1:a7:a8:7e:d3:ee:97:52:58:
                    c9:2f:1d:6e:d3:98:0c:69:ff:63:4a:b9:1f:03:85:
                    ca:38:c1:75:b7:27:a1:0e:e3:4b:fe:d7:9c:95:9a:
                    11:13
                Exponent: 65537 (0x10001)
        X509v3 extensions:
            X509v3 Basic Constraints: 
                CA:FALSE
            X509v3 Subject Key Identifier: 
                E8:E7:85:8C:FE:D1:71:F2:35:EA:85:79:DB:E7:59:03:FF:28:4F:3E
            X509v3 Authority Key Identifier: 
                keyid:E9:97:98:4C:07:E0:EF:74:6F:A7:56:DC:B8:91:20:22:2B:0C:68:5E
                DirName:/CN=team39-net
                serial:60:67:0A:12:54:96:64:1D:D2:3B:9D:FE:3D:85:F0:B1:48:42:E7:FC
            X509v3 Extended Key Usage: 
                TLS Web Client Authentication
            X509v3 Key Usage: 
                Digital Signature
    Signature Algorithm: sha256WithRSAEncryption
    Signature Value:
        89:94:e7:1d:56:5e:7f:b4:9e:e0:d2:cf:68:81:b1:db:d3:31:
        a5:d7:57:22:78:28:78:fe:d7:96:9d:5c:58:dd:bc:fc:89:34:
        e8:e6:36:3e:31:eb:63:8d:24:a7:8c:b5:31:78:8d:5d:ed:1c:
        c3:b6:36:5e:01:84:76:d7:44:42:13:75:51:5d:21:80:ea:25:
        44:bd:9e:d6:c7:18:0b:88:1c:e4:da:57:34:03:4e:ac:f0:0b:
        ce:c2:c6:dd:26:0f:9a:e5:11:67:79:49:fc:50:79:5c:b5:65:
        aa:f0:df:29:25:40:c4:c8:7c:11:64:a2:6d:e0:8f:22:41:6e:
        ba:a9:b3:44:6c:a2:35:a4:c0:95:78:f5:92:13:d7:3b:6e:54:
        bc:db:2d:fe:11:99:7f:94:6f:dd:04:23:e3:44:d9:a8:53:01:
        ff:7c:c3:4f:f1:54:06:6e:37:4d:f6:08:2d:7b:89:bf:53:21:
        a2:49:ec:ba:50:1d:97:31:66:02:22:c5:b6:a1:8c:2f:50:53:
        09:a0:9b:59:f5:5b:35:9f:71:92:db:2c:db:86:1a:a2:2f:5a:
        94:4c:2b:fc:22:1a:72:44:4e:5a:f2:87:a2:a5:b0:2e:01:89:
        95:72:8f:6c:2a:66:6d:3f:5b:f9:b1:c6:31:8b:17:8f:b6:8d:
        b1:10:04:95
-----BEGIN CERTIFICATE-----
MIIDWjCCAkKgAwIBAgIRAKPIjc09Qh2/askarPEJUR0wDQYJKoZIhvcNAQELBQAw
FTETMBEGA1UEAwwKdGVhbTM5LW5ldDAeFw0yMzExMDMyMDM5NTZaFw0yNjEwMTgy
MDM5NTZaMBgxFjAUBgNVBAMMDXRlYW0zOS1jbGllbnQwggEiMA0GCSqGSIb3DQEB
AQUAA4IBDwAwggEKAoIBAQDEJyu9v6fmAaqpgDkx5niCSRqLVbWse2XIKQg5Ll06
H44tKdnWEea7YC5XEJS72dfGv+c8uZpglTRRXqI2HhLPqSgCBwtGt4yFu9qwqgvn
crt8Q/IzEdqZyh+F4FUO1/7XeFAh+/ROsfm+k/roaozox5s5jk5aSItkunwrJJMh
GUdAiFcRNQUhBARSEZ9XsXEoy50a9UGZjR06G5IkNgUrKLXkAnYB3Y1UKugA7On/
3dC/svOPMX2hR7u3+acy7S8oviaYbTcJpuS5CeePYSyEw41PNXfDGbGnqH7T7pdS
WMkvHW7TmAxp/2NKuR8Dhco4wXW3J6EO40v+15yVmhETAgMBAAGjgaEwgZ4wCQYD
VR0TBAIwADAdBgNVHQ4EFgQU6OeFjP7RcfI16oV52+dZA/8oTz4wUAYDVR0jBEkw
R4AU6ZeYTAfg73Rvp1bcuJEgIisMaF6hGaQXMBUxEzARBgNVBAMMCnRlYW0zOS1u
ZXSCFGBnChJUlmQd0jud/j2F8LFIQuf8MBMGA1UdJQQMMAoGCCsGAQUFBwMCMAsG
A1UdDwQEAwIHgDANBgkqhkiG9w0BAQsFAAOCAQEAiZTnHVZef7Se4NLPaIGx29Mx
pddXIngoeP7Xlp1cWN28/Ik06OY2PjHrY40kp4y1MXiNXe0cw7Y2XgGEdtdEQhN1
UV0hgOolRL2e1scYC4gc5NpXNANOrPALzsLG3SYPmuURZ3lJ/FB5XLVlqvDfKSVA
xMh8EWSibeCPIkFuuqmzRGyiNaTAlXj1khPXO25UvNst/hGZf5Rv3QQj40TZqFMB
/3zDT/FUBm43TfYILXuJv1MhoknsulAdlzFmAiLFtqGML1BTCaCbWfVbNZ9xktss
24Yaoi9alEwr/CIackROWvKHoqWwLgGJlXKPbCpmbT9b+bHGMYsXj7aNsRAElQ==
-----END CERTIFICATE-----
