Certificate:
    Data:
        Version: 3 (0x2)
        Serial Number:
            67:5a:30:65:5d:d7:fd:18:35:0e:a6:83:b8:a0:3f:fe
        Signature Algorithm: sha256WithRSAEncryption
        Issuer: CN=team358-net
        Validity
            Not Before: Nov  4 10:47:08 2023 GMT
            Not After : Oct 19 10:47:08 2026 GMT
        Subject: CN=team358-server
        Subject Public Key Info:
            Public Key Algorithm: rsaEncryption
                Public-Key: (2048 bit)
                Modulus:
                    00:ca:f7:96:2c:d9:9a:92:77:17:e5:fa:75:10:33:
                    7b:60:52:e5:5b:87:59:2d:d8:fc:01:9b:63:a1:74:
                    39:03:53:0f:8e:82:9a:81:ae:66:d3:10:1a:4f:f0:
                    0a:3e:fd:fb:9a:f6:67:3e:6d:8b:d0:28:ca:86:cd:
                    72:3a:61:e5:c8:0a:99:5f:65:ec:d6:b3:66:4e:bd:
                    4e:60:f2:4d:68:82:f7:45:b5:12:1a:74:ad:8c:46:
                    5a:f2:dd:3b:d9:de:e4:5e:cd:d0:82:c5:8a:a3:af:
                    1c:fc:78:04:da:43:a9:16:1b:17:65:04:c5:cc:ee:
                    55:5b:81:e6:79:04:ee:b5:9e:0a:28:d1:69:9e:85:
                    1d:59:96:53:77:e2:30:8b:6c:e2:43:33:10:bc:75:
                    ba:eb:79:f9:1e:f5:b6:6b:f4:b0:d6:d1:30:98:9b:
                    74:49:fa:55:5b:12:f3:03:20:82:06:45:d4:51:24:
                    b1:5d:38:1d:16:bc:3e:9f:ad:4d:91:f9:cd:4e:26:
                    37:12:26:88:8a:15:3e:76:1d:e4:73:a6:b7:ce:cb:
                    ce:a4:1e:0d:0d:97:b7:35:ac:d2:ef:69:c4:7f:66:
                    2f:e8:05:0f:0b:4b:fe:60:88:15:d3:9d:de:a8:7b:
                    5b:f1:9a:66:43:44:ee:35:85:3c:50:07:48:40:80:
                    ab:13
                Exponent: 65537 (0x10001)
        X509v3 extensions:
            X509v3 Basic Constraints: 
                CA:FALSE
            X509v3 Subject Key Identifier: 
                0C:F9:2A:F3:AE:31:7B:B6:51:11:14:0D:52:74:6F:67:0C:A0:8B:22
            X509v3 Authority Key Identifier: 
                keyid:FA:99:56:D3:B8:5A:60:35:3D:18:46:6B:C5:1F:FF:13:1B:ED:63:FC
                DirName:/CN=team358-net
                serial:61:14:D0:8C:77:F9:1A:8D:EB:A8:9A:F4:B9:72:72:1F:60:7D:7C:9B
            X509v3 Extended Key Usage: 
                TLS Web Server Authentication
            X509v3 Key Usage: 
                Digital Signature, Key Encipherment
            X509v3 Subject Alternative Name: 
                DNS:team358-server
    Signature Algorithm: sha256WithRSAEncryption
    Signature Value:
        b7:dc:ef:f4:d9:41:8e:24:23:3a:4b:6d:1b:c9:83:c9:27:cd:
        f7:9f:bf:fc:a1:13:19:f4:de:84:40:09:c9:dd:68:95:bb:1b:
        0e:46:d8:43:90:eb:a7:6b:d3:b5:f8:ad:82:9b:68:71:c8:c6:
        b4:3c:9b:42:83:69:ec:7d:68:45:3c:25:32:de:c0:09:1c:61:
        ac:7c:c9:b4:36:69:49:6f:9e:d0:a5:15:4d:30:1a:a6:98:25:
        69:71:4e:3b:d0:3a:fa:d0:9d:7f:7d:ad:ab:b3:7b:e7:91:74:
        8a:36:a1:0c:9a:af:fe:7f:d3:a3:84:63:bd:c2:d9:93:59:ba:
        7e:4e:22:74:66:72:58:ee:1a:a2:15:70:3f:7d:e7:af:e1:ac:
        01:31:04:43:d5:a3:18:a0:81:ef:37:4c:11:fd:a1:59:a2:6e:
        2e:98:8e:48:cd:da:e7:7c:55:b5:ac:79:af:f3:25:00:58:af:
        67:9a:9b:67:5d:1d:8c:05:2f:7d:98:96:6f:7a:da:24:2f:8e:
        1d:10:cb:9a:25:39:6b:12:2e:de:1d:83:65:fe:fe:1f:cf:f3:
        73:c5:45:4c:d4:25:74:4d:1d:9c:de:77:2b:a4:ac:0b:e4:b7:
        e4:3a:15:c1:f2:48:d4:41:f3:b4:98:93:0d:ec:ba:8f:80:56:
        f5:79:af:31
-----BEGIN CERTIFICATE-----
MIIDdzCCAl+gAwIBAgIQZ1owZV3X/Rg1DqaDuKA//jANBgkqhkiG9w0BAQsFADAW
MRQwEgYDVQQDDAt0ZWFtMzU4LW5ldDAeFw0yMzExMDQxMDQ3MDhaFw0yNjEwMTkx
MDQ3MDhaMBkxFzAVBgNVBAMMDnRlYW0zNTgtc2VydmVyMIIBIjANBgkqhkiG9w0B
AQEFAAOCAQ8AMIIBCgKCAQEAyveWLNmakncX5fp1EDN7YFLlW4dZLdj8AZtjoXQ5
A1MPjoKaga5m0xAaT/AKPv37mvZnPm2L0CjKhs1yOmHlyAqZX2Xs1rNmTr1OYPJN
aIL3RbUSGnStjEZa8t072d7kXs3QgsWKo68c/HgE2kOpFhsXZQTFzO5VW4HmeQTu
tZ4KKNFpnoUdWZZTd+Iwi2ziQzMQvHW663n5HvW2a/Sw1tEwmJt0SfpVWxLzAyCC
BkXUUSSxXTgdFrw+n61NkfnNTiY3EiaIihU+dh3kc6a3zsvOpB4NDZe3NazS72nE
f2Yv6AUPC0v+YIgV053eqHtb8ZpmQ0TuNYU8UAdIQICrEwIDAQABo4G9MIG6MAkG
A1UdEwQCMAAwHQYDVR0OBBYEFAz5KvOuMXu2UREUDVJ0b2cMoIsiMFEGA1UdIwRK
MEiAFPqZVtO4WmA1PRhGa8Uf/xMb7WP8oRqkGDAWMRQwEgYDVQQDDAt0ZWFtMzU4
LW5ldIIUYRTQjHf5Go3rqJr0uXJyH2B9fJswEwYDVR0lBAwwCgYIKwYBBQUHAwEw
CwYDVR0PBAQDAgWgMBkGA1UdEQQSMBCCDnRlYW0zNTgtc2VydmVyMA0GCSqGSIb3
DQEBCwUAA4IBAQC33O/02UGOJCM6S20byYPJJ833n7/8oRMZ9N6EQAnJ3WiVuxsO
RthDkOuna9O1+K2Cm2hxyMa0PJtCg2nsfWhFPCUy3sAJHGGsfMm0NmlJb57QpRVN
MBqmmCVpcU470Dr60J1/fa2rs3vnkXSKNqEMmq/+f9OjhGO9wtmTWbp+TiJ0ZnJY
7hqiFXA/feev4awBMQRD1aMYoIHvN0wR/aFZom4umI5IzdrnfFW1rHmv8yUAWK9n
mptnXR2MBS99mJZvetokL44dEMuaJTlrEi7eHYNl/v4fz/NzxUVM1CV0TR2c3ncr
pKwL5LfkOhXB8kjUQfO0mJMN7LqPgFb1ea8x
-----END CERTIFICATE-----
