Certificate:
    Data:
        Version: 3 (0x2)
        Serial Number:
            9e:4e:74:32:c6:c4:a1:89:a1:07:e4:33:af:82:3a:4a
        Signature Algorithm: sha256WithRSAEncryption
        Issuer: CN=team358-net
        Validity
            Not Before: Nov  3 20:45:47 2023 GMT
            Not After : Oct 18 20:45:47 2026 GMT
        Subject: CN=team358-client
        Subject Public Key Info:
            Public Key Algorithm: rsaEncryption
                Public-Key: (2048 bit)
                Modulus:
                    00:c3:ac:ab:45:f8:12:7f:d3:5b:73:fb:9a:87:2d:
                    aa:9a:6d:fd:ad:17:48:85:3a:72:36:19:39:1b:e9:
                    ad:53:4d:01:39:eb:1f:78:b2:cf:7e:3f:ce:61:14:
                    c3:06:d7:1a:63:dd:73:b2:e7:14:c7:a8:a6:4c:da:
                    dd:5b:48:0e:28:8f:64:23:02:59:be:ac:d9:c4:94:
                    08:70:4d:df:0e:4e:64:97:7a:8e:90:83:8a:99:20:
                    55:7a:51:7a:e4:a2:ec:29:05:f4:f9:64:09:ef:eb:
                    5d:34:0b:6a:50:b4:ea:20:c2:36:c6:61:40:0d:ca:
                    31:e6:98:af:de:28:21:b1:34:c0:0b:57:67:10:0f:
                    0e:86:be:13:af:6d:01:c0:26:24:07:33:67:94:49:
                    d3:38:16:cb:1a:23:10:00:c2:ca:e8:cd:8f:e5:10:
                    8a:75:41:f3:f8:45:81:29:3e:94:9e:b7:a0:45:4c:
                    f4:cf:00:ef:f4:5e:fc:2e:9a:be:4b:56:5c:cf:f5:
                    c8:e0:9e:dd:ff:8d:97:26:61:85:4b:0f:55:34:ab:
                    b8:40:cc:92:c8:f4:2b:fa:8b:dc:3c:02:bc:d5:7f:
                    ab:ad:39:e6:3e:b2:54:55:65:de:9c:7c:43:13:4f:
                    a5:ce:a6:f8:ff:8d:ee:d2:ec:72:b3:86:8e:de:0f:
                    2a:2b
                Exponent: 65537 (0x10001)
        X509v3 extensions:
            X509v3 Basic Constraints: 
                CA:FALSE
            X509v3 Subject Key Identifier: 
                A4:38:33:35:18:C9:39:AB:65:CB:3F:B5:3A:C0:81:68:E4:5D:51:53
            X509v3 Authority Key Identifier: 
                keyid:A3:F5:47:0B:23:F3:69:1A:7D:42:C9:EB:5D:B1:ED:2A:44:4E:62:71
                DirName:/CN=team358-net
                serial:79:84:90:A4:7C:A2:86:77:C5:44:61:01:9F:DE:87:FA:87:11:44:BD
            X509v3 Extended Key Usage: 
                TLS Web Client Authentication
            X509v3 Key Usage: 
                Digital Signature
    Signature Algorithm: sha256WithRSAEncryption
    Signature Value:
        98:e6:04:49:a8:80:eb:28:8d:01:b0:b9:53:8a:a8:b1:db:80:
        c8:c4:8c:80:5a:2d:f5:11:21:9f:6c:b2:01:a3:e7:9a:33:d7:
        d6:82:8b:1d:e9:c1:fc:72:70:ce:3b:b8:9f:80:43:a2:d6:21:
        27:06:5e:56:37:f9:d9:31:0b:90:82:e6:8c:0d:39:de:9e:83:
        38:d5:04:9c:98:03:e6:04:aa:a0:02:45:4f:6d:52:e6:c9:6f:
        99:05:63:3e:67:2b:b4:d7:fd:6d:b4:d3:84:14:76:a1:33:27:
        d5:5b:4a:ae:15:b2:eb:35:9c:2e:fa:f3:8f:ac:1f:06:f8:a0:
        c5:84:52:74:3c:8a:ef:8e:97:b8:99:e0:90:18:82:ec:da:92:
        66:fd:1e:7b:51:1d:01:ac:6c:de:01:4d:62:44:87:c1:67:d4:
        6e:3d:8d:2c:dd:a5:11:f2:8a:87:a2:f3:ff:6e:2c:f0:bf:29:
        82:ce:2c:0a:18:d5:02:db:b1:8a:fc:fe:a4:1b:0a:5c:36:3d:
        1c:21:af:52:c5:41:cf:0c:e0:b6:57:56:d6:f8:de:06:c4:5d:
        40:5b:c1:4a:69:4c:4e:c9:b5:a2:87:f5:dd:87:a1:4f:b9:17:
        d0:e4:2d:10:40:6a:af:56:f2:19:d4:5d:57:e2:92:08:aa:84:
        4b:ee:f9:fd
-----BEGIN CERTIFICATE-----
MIIDXTCCAkWgAwIBAgIRAJ5OdDLGxKGJoQfkM6+COkowDQYJKoZIhvcNAQELBQAw
FjEUMBIGA1UEAwwLdGVhbTM1OC1uZXQwHhcNMjMxMTAzMjA0NTQ3WhcNMjYxMDE4
MjA0NTQ3WjAZMRcwFQYDVQQDDA50ZWFtMzU4LWNsaWVudDCCASIwDQYJKoZIhvcN
AQEBBQADggEPADCCAQoCggEBAMOsq0X4En/TW3P7moctqppt/a0XSIU6cjYZORvp
rVNNATnrH3iyz34/zmEUwwbXGmPdc7LnFMeopkza3VtIDiiPZCMCWb6s2cSUCHBN
3w5OZJd6jpCDipkgVXpReuSi7CkF9PlkCe/rXTQLalC06iDCNsZhQA3KMeaYr94o
IbE0wAtXZxAPDoa+E69tAcAmJAczZ5RJ0zgWyxojEADCyujNj+UQinVB8/hFgSk+
lJ63oEVM9M8A7/Re/C6avktWXM/1yOCe3f+NlyZhhUsPVTSruEDMksj0K/qL3DwC
vNV/q6055j6yVFVl3px8QxNPpc6m+P+N7tLscrOGjt4PKisCAwEAAaOBojCBnzAJ
BgNVHRMEAjAAMB0GA1UdDgQWBBSkODM1GMk5q2XLP7U6wIFo5F1RUzBRBgNVHSME
SjBIgBSj9UcLI/NpGn1Cyetdse0qRE5icaEapBgwFjEUMBIGA1UEAwwLdGVhbTM1
OC1uZXSCFHmEkKR8ooZ3xURhAZ/eh/qHEUS9MBMGA1UdJQQMMAoGCCsGAQUFBwMC
MAsGA1UdDwQEAwIHgDANBgkqhkiG9w0BAQsFAAOCAQEAmOYESaiA6yiNAbC5U4qo
sduAyMSMgFot9REhn2yyAaPnmjPX1oKLHenB/HJwzju4n4BDotYhJwZeVjf52TEL
kILmjA053p6DONUEnJgD5gSqoAJFT21S5slvmQVjPmcrtNf9bbTThBR2oTMn1VtK
rhWy6zWcLvrzj6wfBvigxYRSdDyK746XuJngkBiC7NqSZv0ee1EdAaxs3gFNYkSH
wWfUbj2NLN2lEfKKh6Lz/24s8L8pgs4sChjVAtuxivz+pBsKXDY9HCGvUsVBzwzg
tldW1vjeBsRdQFvBSmlMTsm1oof13YehT7kX0OQtEEBqr1byGdRdV+KSCKqES+75
/Q==
-----END CERTIFICATE-----
