Certificate:
    Data:
        Version: 3 (0x2)
        Serial Number:
            c0:14:7a:47:60:c8:42:eb:35:09:6b:69:21:cf:c7:96
        Signature Algorithm: sha256WithRSAEncryption
        Issuer: CN=team358-net
        Validity
            Not Before: Nov  4 11:35:25 2023 GMT
            Not After : Oct 19 11:35:25 2026 GMT
        Subject: CN=team358-client
        Subject Public Key Info:
            Public Key Algorithm: rsaEncryption
                Public-Key: (2048 bit)
                Modulus:
                    00:9b:db:97:63:ca:90:d3:5c:c3:cc:f4:b4:16:38:
                    b3:ee:bb:62:f9:de:9d:27:db:62:63:aa:ee:af:c3:
                    11:1a:84:ce:d2:f8:b0:86:07:80:f8:94:1c:87:fc:
                    87:49:1c:09:05:1d:87:02:1b:bc:2e:2b:35:f7:22:
                    77:e1:98:ca:11:9a:9c:7e:93:e4:b8:5e:6c:87:4d:
                    b3:34:2e:5c:17:65:c8:06:99:62:ab:00:27:5f:bc:
                    09:cc:63:a1:60:85:2a:7f:ae:bc:f7:7d:1e:df:7a:
                    6e:4d:51:2d:e6:f7:10:63:64:84:33:99:50:fe:5b:
                    49:02:d7:de:70:2b:48:d8:db:59:76:92:e3:4d:08:
                    b5:ad:3f:a4:37:30:0b:f4:66:d9:c6:70:e7:35:f9:
                    71:41:fc:be:04:23:00:02:4e:11:98:2b:49:7c:08:
                    f8:2d:25:c3:43:52:8a:24:f2:0c:37:78:d9:61:f9:
                    6d:7a:b1:56:fb:be:1b:35:ae:c1:a6:4b:74:57:23:
                    c1:41:b5:a9:0c:8c:ae:1e:a9:af:23:e6:2d:26:c6:
                    3e:dd:d4:c9:e1:9e:11:9f:40:8a:63:11:78:f0:6f:
                    81:7a:cb:5a:8d:59:70:7f:fc:a9:5b:ae:40:89:74:
                    d1:21:e5:7c:21:29:42:bf:75:1f:f6:8a:53:2f:f7:
                    bf:7f
                Exponent: 65537 (0x10001)
        X509v3 extensions:
            X509v3 Basic Constraints: 
                CA:FALSE
            X509v3 Subject Key Identifier: 
                35:FA:AF:66:12:A3:4E:AD:21:33:A5:06:39:87:8B:F5:90:17:18:03
            X509v3 Authority Key Identifier: 
                keyid:0F:D7:03:B9:B9:23:6A:68:42:85:D4:5E:0E:AC:25:7D:D7:7A:25:4B
                DirName:/CN=team358-net
                serial:1E:81:23:5F:A9:A1:67:E4:2E:E8:8C:C6:D1:AE:C7:46:2B:CF:67:AA
            X509v3 Extended Key Usage: 
                TLS Web Client Authentication
            X509v3 Key Usage: 
                Digital Signature
    Signature Algorithm: sha256WithRSAEncryption
    Signature Value:
        5e:3f:f1:57:4c:4f:b8:81:e3:f8:db:42:49:14:22:42:ae:99:
        af:16:fd:3b:b4:be:35:9c:35:1e:f1:5d:f3:5d:6b:f6:c6:92:
        82:1f:4d:15:50:c8:83:af:64:6a:2b:60:e7:de:69:b1:27:69:
        e8:db:2a:6f:06:8e:7a:42:eb:89:a7:a4:8e:fc:c8:bb:43:d1:
        1e:dc:bd:44:9a:6b:a9:0c:4a:5c:17:14:f5:df:fe:85:fe:8e:
        a7:91:1b:29:86:c2:13:5e:3d:9d:1f:56:7d:13:6f:4c:25:bc:
        ac:4a:69:a4:36:aa:a0:e5:93:be:3a:d1:61:27:e7:ec:4d:42:
        23:89:11:f5:4c:8c:a1:27:c6:c5:c8:81:15:2d:74:c6:b1:b4:
        31:c0:b6:07:d4:50:a4:61:a8:67:0f:94:80:29:3f:68:6c:a0:
        2f:32:b8:17:b8:5c:58:59:d7:2c:77:7e:a5:c6:16:4f:8f:43:
        32:33:69:db:82:f7:8c:95:a8:1b:64:c4:38:0b:3d:50:a4:ec:
        92:08:81:ed:6c:17:1c:54:8e:07:db:41:3c:88:2c:53:7a:71:
        85:f7:6c:5d:fc:02:2a:73:0e:ad:d5:02:04:1e:a6:8f:18:86:
        61:0e:0e:a3:c7:2c:ca:7e:18:f0:65:06:f7:01:a6:a7:1c:35:
        f2:a8:07:ec
-----BEGIN CERTIFICATE-----
MIIDXTCCAkWgAwIBAgIRAMAUekdgyELrNQlraSHPx5YwDQYJKoZIhvcNAQELBQAw
FjEUMBIGA1UEAwwLdGVhbTM1OC1uZXQwHhcNMjMxMTA0MTEzNTI1WhcNMjYxMDE5
MTEzNTI1WjAZMRcwFQYDVQQDDA50ZWFtMzU4LWNsaWVudDCCASIwDQYJKoZIhvcN
AQEBBQADggEPADCCAQoCggEBAJvbl2PKkNNcw8z0tBY4s+67YvnenSfbYmOq7q/D
ERqEztL4sIYHgPiUHIf8h0kcCQUdhwIbvC4rNfcid+GYyhGanH6T5LhebIdNszQu
XBdlyAaZYqsAJ1+8CcxjoWCFKn+uvPd9Ht96bk1RLeb3EGNkhDOZUP5bSQLX3nAr
SNjbWXaS400Ita0/pDcwC/Rm2cZw5zX5cUH8vgQjAAJOEZgrSXwI+C0lw0NSiiTy
DDd42WH5bXqxVvu+GzWuwaZLdFcjwUG1qQyMrh6pryPmLSbGPt3UyeGeEZ9AimMR
ePBvgXrLWo1ZcH/8qVuuQIl00SHlfCEpQr91H/aKUy/3v38CAwEAAaOBojCBnzAJ
BgNVHRMEAjAAMB0GA1UdDgQWBBQ1+q9mEqNOrSEzpQY5h4v1kBcYAzBRBgNVHSME
SjBIgBQP1wO5uSNqaEKF1F4OrCV913olS6EapBgwFjEUMBIGA1UEAwwLdGVhbTM1
OC1uZXSCFB6BI1+poWfkLuiMxtGux0Yrz2eqMBMGA1UdJQQMMAoGCCsGAQUFBwMC
MAsGA1UdDwQEAwIHgDANBgkqhkiG9w0BAQsFAAOCAQEAXj/xV0xPuIHj+NtCSRQi
Qq6Zrxb9O7S+NZw1HvFd811r9saSgh9NFVDIg69kaitg595psSdp6NsqbwaOekLr
iaekjvzIu0PRHty9RJprqQxKXBcU9d/+hf6Op5EbKYbCE149nR9WfRNvTCW8rEpp
pDaqoOWTvjrRYSfn7E1CI4kR9UyMoSfGxciBFS10xrG0McC2B9RQpGGoZw+UgCk/
aGygLzK4F7hcWFnXLHd+pcYWT49DMjNp24L3jJWoG2TEOAs9UKTskgiB7WwXHFSO
B9tBPIgsU3pxhfdsXfwCKnMOrdUCBB6mjxiGYQ4Oo8csyn4Y8GUG9wGmpxw18qgH
7A==
-----END CERTIFICATE-----
