Certificate:
    Data:
        Version: 3 (0x2)
        Serial Number:
            68:90:81:4e:b4:71:00:0a:0f:b3:a2:01:ab:da:ee:9c
        Signature Algorithm: sha256WithRSAEncryption
        Issuer: CN=team120-net
        Validity
            Not Before: Nov  3 20:41:17 2023 GMT
            Not After : Oct 18 20:41:17 2026 GMT
        Subject: CN=team120-client
        Subject Public Key Info:
            Public Key Algorithm: rsaEncryption
                Public-Key: (2048 bit)
                Modulus:
                    00:ab:e9:30:7f:91:41:77:4b:4b:fb:1e:37:cb:23:
                    62:ca:09:ce:65:d1:5e:81:37:83:b0:68:24:d9:b3:
                    72:b9:8a:7a:43:12:03:e2:49:f1:c2:e0:5d:95:fe:
                    e2:c1:f8:70:d0:f7:9d:3d:cd:30:ac:ab:2b:91:9a:
                    58:ea:2f:6a:5b:0f:e2:41:ce:30:ae:23:ac:ad:79:
                    04:cb:92:f9:bc:b1:9f:bc:2d:fd:ab:7c:d0:eb:6c:
                    8e:f3:bb:b7:1f:5d:d3:9f:42:4f:4f:90:a0:d6:eb:
                    b1:2e:f0:7e:67:ee:7c:75:52:a6:22:f4:a6:68:bf:
                    53:bc:78:1e:44:bd:f6:30:e3:86:0d:2d:d6:15:ef:
                    85:fc:55:72:93:5b:29:a3:39:ff:24:37:0b:8e:66:
                    8d:a0:d8:2e:a8:23:ad:77:22:fb:6b:da:4f:86:8e:
                    10:bd:4b:51:f9:7b:23:d6:af:0e:ac:24:29:05:b5:
                    ce:1e:f4:91:3f:94:2a:1e:29:dd:b1:ea:fd:e3:9f:
                    7b:cc:8c:5b:c6:0c:5b:ae:6b:29:39:5d:13:1b:76:
                    32:df:11:c4:f2:13:bf:5e:47:f2:90:6d:69:d9:34:
                    c1:c8:8c:26:ee:70:a0:c6:41:9d:8a:1e:9d:40:d3:
                    ab:91:1a:1a:06:bf:8a:d7:c6:8a:1b:28:75:11:58:
                    a4:99
                Exponent: 65537 (0x10001)
        X509v3 extensions:
            X509v3 Basic Constraints: 
                CA:FALSE
            X509v3 Subject Key Identifier: 
                62:5B:F0:41:27:23:FC:5C:4B:7F:F6:F4:C7:77:1D:D4:FA:1F:59:FB
            X509v3 Authority Key Identifier: 
                keyid:EA:F9:1C:C0:CF:2C:E7:E1:44:52:A1:67:E6:6E:FB:4A:8E:4E:98:F4
                DirName:/CN=team120-net
                serial:4B:C0:E4:3A:F8:79:9E:99:1F:F6:55:A0:7A:A0:A8:80:69:DF:B4:6E
            X509v3 Extended Key Usage: 
                TLS Web Client Authentication
            X509v3 Key Usage: 
                Digital Signature
    Signature Algorithm: sha256WithRSAEncryption
    Signature Value:
        ab:63:6f:d5:53:85:9e:a1:8a:cb:17:c6:4d:e7:1f:9f:d6:e2:
        bc:12:5f:20:79:86:1c:4a:23:b1:65:9c:d2:ef:55:b2:27:c9:
        d9:b3:2d:cc:44:5b:3e:21:bb:e6:4c:78:4d:8e:9f:9d:08:af:
        f8:a4:3a:51:4d:aa:02:bd:0c:96:28:e2:78:a2:09:2a:0f:86:
        9c:af:9b:be:0b:f1:95:a2:ba:5c:dc:b1:08:ef:ae:99:7e:ba:
        e1:c3:e2:4d:48:25:6c:09:12:9e:8d:3e:d9:eb:c4:f3:aa:e8:
        23:22:76:34:7c:81:53:79:fb:d7:3e:ba:53:60:e2:44:a5:2a:
        02:fd:a9:9d:56:d2:cf:32:9e:94:6d:37:72:62:1c:ca:64:b0:
        77:93:20:54:a6:b5:ee:c5:9f:e1:c0:c1:54:6d:2d:26:e1:e5:
        e6:8d:a7:b9:18:dc:6a:9d:f8:3c:98:9c:79:e4:4b:1d:b9:ab:
        66:39:f1:3d:b1:71:0d:02:26:ba:55:22:b6:f2:48:97:fd:9f:
        fb:fc:35:26:0c:f4:34:4c:af:52:ef:53:8a:15:cc:7c:c2:17:
        e0:8d:84:7f:c7:5c:a8:a3:9e:48:85:8f:74:a5:b6:a7:2c:b7:
        9e:74:3c:89:bd:90:0b:d7:43:3c:e7:e7:60:c8:c1:65:05:85:
        95:81:a1:8d
-----BEGIN CERTIFICATE-----
MIIDXDCCAkSgAwIBAgIQaJCBTrRxAAoPs6IBq9runDANBgkqhkiG9w0BAQsFADAW
MRQwEgYDVQQDDAt0ZWFtMTIwLW5ldDAeFw0yMzExMDMyMDQxMTdaFw0yNjEwMTgy
MDQxMTdaMBkxFzAVBgNVBAMMDnRlYW0xMjAtY2xpZW50MIIBIjANBgkqhkiG9w0B
AQEFAAOCAQ8AMIIBCgKCAQEAq+kwf5FBd0tL+x43yyNiygnOZdFegTeDsGgk2bNy
uYp6QxID4knxwuBdlf7iwfhw0PedPc0wrKsrkZpY6i9qWw/iQc4wriOsrXkEy5L5
vLGfvC39q3zQ62yO87u3H13Tn0JPT5Cg1uuxLvB+Z+58dVKmIvSmaL9TvHgeRL32
MOOGDS3WFe+F/FVyk1spozn/JDcLjmaNoNguqCOtdyL7a9pPho4QvUtR+Xsj1q8O
rCQpBbXOHvSRP5QqHindser94597zIxbxgxbrmspOV0TG3Yy3xHE8hO/XkfykG1p
2TTByIwm7nCgxkGdih6dQNOrkRoaBr+K18aKGyh1EVikmQIDAQABo4GiMIGfMAkG
A1UdEwQCMAAwHQYDVR0OBBYEFGJb8EEnI/xcS3/29Md3HdT6H1n7MFEGA1UdIwRK
MEiAFOr5HMDPLOfhRFKhZ+Zu+0qOTpj0oRqkGDAWMRQwEgYDVQQDDAt0ZWFtMTIw
LW5ldIIUS8DkOvh5npkf9lWgeqCogGnftG4wEwYDVR0lBAwwCgYIKwYBBQUHAwIw
CwYDVR0PBAQDAgeAMA0GCSqGSIb3DQEBCwUAA4IBAQCrY2/VU4WeoYrLF8ZN5x+f
1uK8El8geYYcSiOxZZzS71WyJ8nZsy3MRFs+IbvmTHhNjp+dCK/4pDpRTaoCvQyW
KOJ4ogkqD4acr5u+C/GVorpc3LEI766Zfrrhw+JNSCVsCRKejT7Z68TzqugjInY0
fIFTefvXPrpTYOJEpSoC/amdVtLPMp6UbTdyYhzKZLB3kyBUprXuxZ/hwMFUbS0m
4eXmjae5GNxqnfg8mJx55EsduatmOfE9sXENAia6VSK28kiX/Z/7/DUmDPQ0TK9S
71OKFcx8whfgjYR/x1yoo55IhY90pbanLLeedDyJvZAL10M85+dgyMFlBYWVgaGN
-----END CERTIFICATE-----
