Certificate:
    Data:
        Version: 3 (0x2)
        Serial Number:
            78:8c:eb:ae:e5:53:42:8a:ee:21:62:27:fd:e7:12:78
        Signature Algorithm: sha256WithRSAEncryption
        Issuer: CN=team120-net
        Validity
            Not Before: Nov  4 10:42:42 2023 GMT
            Not After : Oct 19 10:42:42 2026 GMT
        Subject: CN=team120-server
        Subject Public Key Info:
            Public Key Algorithm: rsaEncryption
                Public-Key: (2048 bit)
                Modulus:
                    00:a6:d3:0e:d0:46:60:a6:9a:53:20:62:d7:86:83:
                    84:f4:66:ff:e9:f0:85:3b:6c:29:86:51:4f:04:f7:
                    59:bb:00:cc:c5:e4:42:60:f5:4f:29:d5:3f:26:17:
                    a9:85:c4:da:11:a3:31:6b:d7:45:e0:09:3d:58:4c:
                    a6:f8:be:f3:e1:6c:b4:5f:48:93:78:30:6e:c4:e7:
                    e6:e7:ae:89:e3:fc:6f:8d:4d:d1:7c:2a:75:fc:f0:
                    f3:1b:09:82:1d:5f:e2:b8:23:20:3a:c1:ce:3d:57:
                    54:b4:9c:8f:eb:b8:b2:2a:1d:1a:6c:3e:41:5f:87:
                    2f:10:b0:ea:5c:8a:47:63:a4:5a:58:6d:7c:7a:c4:
                    41:c7:98:24:b4:ef:20:49:bc:c3:f5:b1:f5:59:4d:
                    22:88:40:ee:ce:5b:e5:56:bc:3f:99:b7:b2:51:dc:
                    1d:c4:e8:49:7d:53:cf:ad:7d:4f:b6:41:63:cb:88:
                    b0:a9:ff:7e:cc:c3:0f:92:43:17:09:7a:65:ce:9d:
                    55:42:fb:6d:8e:02:46:43:46:b4:ed:db:7a:35:c6:
                    54:96:58:03:d3:72:08:e6:b3:46:e9:0d:c3:24:18:
                    ed:5e:3b:d1:d5:c5:2c:95:e7:fa:92:9c:1d:b5:4f:
                    26:7b:3f:50:ec:eb:18:af:e7:c9:81:2f:bf:2d:3e:
                    f1:9f
                Exponent: 65537 (0x10001)
        X509v3 extensions:
            X509v3 Basic Constraints: 
                CA:FALSE
            X509v3 Subject Key Identifier: 
                1F:2E:96:E2:07:9B:8F:43:3A:29:EC:96:54:60:E0:8E:B0:58:9E:E2
            X509v3 Authority Key Identifier: 
                keyid:70:4B:89:C1:3A:E2:1E:FF:E9:05:90:60:20:FD:97:D2:1E:72:D6:76
                DirName:/CN=team120-net
                serial:26:84:EF:C6:63:04:62:F1:5F:A0:53:87:73:B2:0B:86:26:6C:9E:1A
            X509v3 Extended Key Usage: 
                TLS Web Server Authentication
            X509v3 Key Usage: 
                Digital Signature, Key Encipherment
            X509v3 Subject Alternative Name: 
                DNS:team120-server
    Signature Algorithm: sha256WithRSAEncryption
    Signature Value:
        84:fa:94:e2:8e:6e:88:94:91:78:99:87:56:e4:26:81:a9:0b:
        26:a3:a0:3e:75:5b:54:82:ca:6d:5b:a6:aa:ac:a0:55:e9:76:
        ac:ba:36:30:05:95:0d:ba:0f:ca:de:ed:5d:14:5f:b0:e1:ee:
        51:42:51:a9:3e:ef:f7:20:d3:af:81:90:f6:bc:eb:77:37:a8:
        c4:29:79:e6:8d:98:f3:c2:55:60:59:d6:47:03:36:29:60:b8:
        5f:2f:3d:89:80:36:73:0d:29:c7:d0:33:24:84:17:d2:dd:cc:
        52:c4:bd:a9:d8:55:e3:0c:b6:7d:5d:30:ff:01:43:ce:11:da:
        3b:13:05:c1:73:45:7c:cf:50:0e:b6:f8:df:9c:d9:5e:09:8b:
        6f:4d:ce:f4:ec:eb:0e:9c:a8:dd:36:7f:08:d6:cb:78:07:1e:
        64:df:53:fc:5d:29:03:83:3a:03:2b:63:c4:97:2f:2d:c0:78:
        4d:47:39:b8:cb:64:53:0b:d1:e1:d7:9d:e4:fa:aa:a3:6f:3f:
        ec:ac:6c:04:4d:ce:ac:23:81:cf:f8:91:27:bf:d7:84:ca:da:
        ca:b4:a5:9e:12:c3:a6:6e:75:73:3c:98:ce:49:06:69:00:a0:
        a6:69:b6:14:df:35:d5:01:fc:0f:d9:ec:81:cb:96:0e:af:56:
        81:97:63:91
-----BEGIN CERTIFICATE-----
MIIDdzCCAl+gAwIBAgIQeIzrruVTQoruIWIn/ecSeDANBgkqhkiG9w0BAQsFADAW
MRQwEgYDVQQDDAt0ZWFtMTIwLW5ldDAeFw0yMzExMDQxMDQyNDJaFw0yNjEwMTkx
MDQyNDJaMBkxFzAVBgNVBAMMDnRlYW0xMjAtc2VydmVyMIIBIjANBgkqhkiG9w0B
AQEFAAOCAQ8AMIIBCgKCAQEAptMO0EZgpppTIGLXhoOE9Gb/6fCFO2wphlFPBPdZ
uwDMxeRCYPVPKdU/JhephcTaEaMxa9dF4Ak9WEym+L7z4Wy0X0iTeDBuxOfm566J
4/xvjU3RfCp1/PDzGwmCHV/iuCMgOsHOPVdUtJyP67iyKh0abD5BX4cvELDqXIpH
Y6RaWG18esRBx5gktO8gSbzD9bH1WU0iiEDuzlvlVrw/mbeyUdwdxOhJfVPPrX1P
tkFjy4iwqf9+zMMPkkMXCXplzp1VQvttjgJGQ0a07dt6NcZUllgD03II5rNG6Q3D
JBjtXjvR1cUslef6kpwdtU8mez9Q7OsYr+fJgS+/LT7xnwIDAQABo4G9MIG6MAkG
A1UdEwQCMAAwHQYDVR0OBBYEFB8uluIHm49DOinsllRg4I6wWJ7iMFEGA1UdIwRK
MEiAFHBLicE64h7/6QWQYCD9l9IectZ2oRqkGDAWMRQwEgYDVQQDDAt0ZWFtMTIw
LW5ldIIUJoTvxmMEYvFfoFOHc7ILhiZsnhowEwYDVR0lBAwwCgYIKwYBBQUHAwEw
CwYDVR0PBAQDAgWgMBkGA1UdEQQSMBCCDnRlYW0xMjAtc2VydmVyMA0GCSqGSIb3
DQEBCwUAA4IBAQCE+pTijm6IlJF4mYdW5CaBqQsmo6A+dVtUgsptW6aqrKBV6Xas
ujYwBZUNug/K3u1dFF+w4e5RQlGpPu/3INOvgZD2vOt3N6jEKXnmjZjzwlVgWdZH
AzYpYLhfLz2JgDZzDSnH0DMkhBfS3cxSxL2p2FXjDLZ9XTD/AUPOEdo7EwXBc0V8
z1AOtvjfnNleCYtvTc707OsOnKjdNn8I1st4Bx5k31P8XSkDgzoDK2PEly8twHhN
Rzm4y2RTC9Hh153k+qqjbz/srGwETc6sI4HP+JEnv9eEytrKtKWeEsOmbnVzPJjO
SQZpAKCmabYU3zXVAfwP2eyBy5YOr1aBl2OR
-----END CERTIFICATE-----
