Certificate:
    Data:
        Version: 3 (0x2)
        Serial Number:
            87:92:8f:0b:09:05:02:3b:56:66:ab:bc:b1:44:1b:4f
        Signature Algorithm: sha256WithRSAEncryption
        Issuer: CN=team198-net
        Validity
            Not Before: Nov  3 20:42:52 2023 GMT
            Not After : Oct 18 20:42:52 2026 GMT
        Subject: CN=team198-server
        Subject Public Key Info:
            Public Key Algorithm: rsaEncryption
                Public-Key: (2048 bit)
                Modulus:
                    00:cc:28:72:87:98:be:98:a2:94:36:bc:99:b3:e3:
                    87:95:f2:05:f0:ed:3d:a3:ee:a5:3f:6f:6f:76:23:
                    a8:78:31:b9:58:13:ac:e4:37:2a:c8:d6:30:28:cd:
                    70:8c:14:db:9c:a7:8f:45:5d:52:88:18:4a:68:51:
                    98:f5:c0:d8:5d:de:cd:8e:2b:5d:18:0f:18:3e:66:
                    fc:2e:94:3b:69:c7:de:86:6c:06:95:9b:e1:f7:21:
                    73:b1:40:aa:38:ec:02:1d:c4:4f:f4:81:e3:8b:1f:
                    f9:7e:32:39:b7:e6:6e:0f:00:b3:2d:9e:70:bd:1c:
                    c6:0c:86:e7:d1:fd:8e:6b:a2:58:22:ba:29:5f:8c:
                    e7:83:f1:36:0a:15:a8:ef:f1:1a:3a:81:b8:07:f0:
                    3d:af:49:11:18:70:b0:4f:f7:8c:10:aa:c8:0f:6b:
                    8a:fd:42:5b:27:f3:4c:70:15:09:1e:5a:4a:56:1d:
                    4d:71:c9:33:99:05:59:da:23:fc:be:b1:42:e3:54:
                    59:7a:af:99:46:c9:fa:63:3d:0b:62:a2:c0:59:84:
                    57:e4:e3:b8:9d:c3:05:60:d8:a6:91:96:8c:b6:f7:
                    05:c5:c5:b4:38:6e:23:79:d8:cc:64:26:03:1d:dd:
                    fe:f8:42:8a:9b:9e:36:01:cb:1f:74:9e:33:44:26:
                    d2:05
                Exponent: 65537 (0x10001)
        X509v3 extensions:
            X509v3 Basic Constraints: 
                CA:FALSE
            X509v3 Subject Key Identifier: 
                71:04:3E:47:6C:AF:E5:A0:83:75:F7:82:15:29:E3:CA:34:90:DD:BB
            X509v3 Authority Key Identifier: 
                keyid:9B:D9:AD:1E:FD:E1:CB:08:A1:DB:4D:AC:5C:E8:0F:C1:36:CE:61:87
                DirName:/CN=team198-net
                serial:0B:87:C8:1A:88:EF:1D:DB:E0:BD:DE:5D:2D:40:5D:EE:18:4B:D7:6A
            X509v3 Extended Key Usage: 
                TLS Web Server Authentication
            X509v3 Key Usage: 
                Digital Signature, Key Encipherment
            X509v3 Subject Alternative Name: 
                DNS:team198-server
    Signature Algorithm: sha256WithRSAEncryption
    Signature Value:
        76:08:ab:19:99:d2:63:8f:13:35:3c:1f:51:b0:ae:a7:4e:a3:
        37:c8:8a:6d:9a:d6:dc:e5:79:93:f3:3e:6b:70:c8:e5:89:50:
        d0:49:c4:7e:5e:37:ff:75:fd:36:5d:d6:70:99:9d:2b:53:8e:
        87:f8:fd:9a:84:71:ff:99:20:52:8e:73:20:ec:b1:53:44:5c:
        5b:d1:b8:e8:fe:86:f2:a5:7f:e3:9f:10:0c:64:7e:b9:a2:43:
        b5:40:79:98:63:6c:d0:6c:d7:58:dd:09:15:29:6d:e4:7e:3d:
        74:bf:58:fe:ca:c2:50:04:07:b9:bc:72:9e:e3:49:26:47:9b:
        fb:b0:f0:78:63:a2:c6:7b:f8:8c:4c:7e:07:f8:10:fb:94:c9:
        38:ca:21:74:e0:b5:48:06:93:1b:33:81:a6:b1:ed:c5:70:96:
        40:01:0a:5f:94:1d:8e:41:0a:9e:2e:cd:85:87:73:89:9d:3e:
        5e:99:cc:ce:15:09:7b:d7:58:e7:08:1e:f5:1d:26:da:1b:f4:
        04:80:14:bb:d1:71:75:78:aa:59:f7:2f:b4:5e:f7:f4:5c:0f:
        00:14:25:8f:2c:86:47:2d:72:cf:f7:38:e4:fc:6b:21:b2:89:
        80:3b:f2:15:f8:fe:0e:77:5a:e2:ba:05:84:44:80:3f:e1:a3:
        85:0e:1e:94
-----BEGIN CERTIFICATE-----
MIIDeDCCAmCgAwIBAgIRAIeSjwsJBQI7VmarvLFEG08wDQYJKoZIhvcNAQELBQAw
FjEUMBIGA1UEAwwLdGVhbTE5OC1uZXQwHhcNMjMxMTAzMjA0MjUyWhcNMjYxMDE4
MjA0MjUyWjAZMRcwFQYDVQQDDA50ZWFtMTk4LXNlcnZlcjCCASIwDQYJKoZIhvcN
AQEBBQADggEPADCCAQoCggEBAMwocoeYvpiilDa8mbPjh5XyBfDtPaPupT9vb3Yj
qHgxuVgTrOQ3KsjWMCjNcIwU25ynj0VdUogYSmhRmPXA2F3ezY4rXRgPGD5m/C6U
O2nH3oZsBpWb4fchc7FAqjjsAh3ET/SB44sf+X4yObfmbg8Asy2ecL0cxgyG59H9
jmuiWCK6KV+M54PxNgoVqO/xGjqBuAfwPa9JERhwsE/3jBCqyA9riv1CWyfzTHAV
CR5aSlYdTXHJM5kFWdoj/L6xQuNUWXqvmUbJ+mM9C2KiwFmEV+TjuJ3DBWDYppGW
jLb3BcXFtDhuI3nYzGQmAx3d/vhCipueNgHLH3SeM0Qm0gUCAwEAAaOBvTCBujAJ
BgNVHRMEAjAAMB0GA1UdDgQWBBRxBD5HbK/loIN194IVKePKNJDduzBRBgNVHSME
SjBIgBSb2a0e/eHLCKHbTaxc6A/BNs5hh6EapBgwFjEUMBIGA1UEAwwLdGVhbTE5
OC1uZXSCFAuHyBqI7x3b4L3eXS1AXe4YS9dqMBMGA1UdJQQMMAoGCCsGAQUFBwMB
MAsGA1UdDwQEAwIFoDAZBgNVHREEEjAQgg50ZWFtMTk4LXNlcnZlcjANBgkqhkiG
9w0BAQsFAAOCAQEAdgirGZnSY48TNTwfUbCup06jN8iKbZrW3OV5k/M+a3DI5YlQ
0EnEfl43/3X9Nl3WcJmdK1OOh/j9moRx/5kgUo5zIOyxU0RcW9G46P6G8qV/458Q
DGR+uaJDtUB5mGNs0GzXWN0JFSlt5H49dL9Y/srCUAQHubxynuNJJkeb+7DweGOi
xnv4jEx+B/gQ+5TJOMohdOC1SAaTGzOBprHtxXCWQAEKX5QdjkEKni7NhYdziZ0+
XpnMzhUJe9dY5wge9R0m2hv0BIAUu9FxdXiqWfcvtF739FwPABQljyyGRy1yz/c4
5PxrIbKJgDvyFfj+Dnda4roFhESAP+GjhQ4elA==
-----END CERTIFICATE-----
