Certificate:
    Data:
        Version: 3 (0x2)
        Serial Number:
            16:68:b8:57:8a:51:e1:5f:7d:d2:41:cd:87:f0:98:0f
        Signature Algorithm: sha256WithRSAEncryption
        Issuer: CN=team47-net
        Validity
            Not Before: Nov  4 11:28:18 2023 GMT
            Not After : Oct 19 11:28:18 2026 GMT
        Subject: CN=team47-server
        Subject Public Key Info:
            Public Key Algorithm: rsaEncryption
                Public-Key: (2048 bit)
                Modulus:
                    00:b6:d6:40:de:77:f6:7e:96:f8:76:c8:4e:18:3b:
                    03:d0:8a:9a:cb:86:8d:e3:a4:b4:cc:a0:a1:ad:97:
                    27:83:8b:54:de:d5:d1:48:95:58:c1:6d:bc:0b:5f:
                    d4:9b:7b:62:29:18:67:83:b7:b9:9b:53:6f:87:7c:
                    5f:e6:76:f6:69:25:a8:94:b1:08:1c:2c:85:f8:8e:
                    7e:94:1f:02:40:c9:3e:03:31:05:d1:f5:77:d1:43:
                    cd:4a:6a:0c:9e:70:8f:be:17:e1:a7:cd:af:6b:2a:
                    65:e0:b9:3c:82:0d:48:f7:d7:03:c4:ab:69:d0:9f:
                    59:fb:92:fb:53:e2:e6:cd:fe:39:a3:a3:09:c2:02:
                    4c:d9:e1:e5:43:49:02:0d:a9:5c:32:96:2a:4a:8a:
                    78:57:2c:b6:10:7e:89:85:33:1d:8b:95:f4:55:53:
                    0a:60:42:5b:11:07:5c:46:2a:80:4b:6f:df:d1:84:
                    9d:7c:3c:d2:57:7f:1f:e9:3d:fb:da:f2:f8:b3:16:
                    50:99:a9:3b:65:5f:09:ef:35:21:36:22:35:a7:a1:
                    bc:ae:36:27:49:4e:4a:a8:a6:7d:71:f4:22:00:b5:
                    e8:f9:83:84:dd:24:c4:6b:11:9e:2c:d0:4e:1a:6f:
                    c7:df:db:31:77:05:b6:52:2b:1b:49:22:0a:b3:b5:
                    90:6f
                Exponent: 65537 (0x10001)
        X509v3 extensions:
            X509v3 Basic Constraints: 
                CA:FALSE
            X509v3 Subject Key Identifier: 
                76:C6:19:34:09:1D:5F:67:29:3C:44:91:1C:EE:9A:BA:50:70:EB:FE
            X509v3 Authority Key Identifier: 
                keyid:A9:A2:A6:7F:EB:4E:D9:73:8E:E7:93:5E:EB:06:B7:48:E9:F7:18:47
                DirName:/CN=team47-net
                serial:12:65:DD:A9:3F:28:46:DA:48:59:16:B2:13:50:2D:99:B4:1A:B4:A6
            X509v3 Extended Key Usage: 
                TLS Web Server Authentication
            X509v3 Key Usage: 
                Digital Signature, Key Encipherment
            X509v3 Subject Alternative Name: 
                DNS:team47-server
    Signature Algorithm: sha256WithRSAEncryption
    Signature Value:
        8f:6d:10:14:d4:17:9a:5b:5b:a0:0c:fc:0d:65:3f:ab:4b:43:
        4c:80:99:bd:be:ad:f9:04:e7:63:c0:44:05:b3:29:97:81:98:
        bb:91:c8:2f:f7:cd:32:15:e8:bd:44:1a:12:64:e9:0b:02:07:
        13:fd:7d:d3:9d:99:1b:0f:ef:ff:4f:76:4b:ed:c3:66:88:41:
        f0:ea:db:66:ed:0a:f9:3c:af:26:dd:89:69:cf:94:01:2a:d6:
        6d:b9:9a:c6:6f:ec:b2:99:af:31:b0:a2:e6:2c:24:92:71:ad:
        e5:00:9a:49:1b:fa:69:20:c7:df:6e:33:5e:fb:3b:53:8a:84:
        1f:c9:87:c7:7b:1a:40:ef:d9:c1:b5:ad:6c:bf:82:be:35:5b:
        70:c0:c0:71:22:0a:79:72:b5:b4:ff:4d:1d:c9:91:0d:bd:2b:
        e0:d4:55:09:79:79:84:df:6f:e2:bc:16:fb:44:c4:bb:f9:11:
        1c:4b:12:0d:6d:c1:c5:07:99:93:c6:14:28:db:f0:3b:7f:ba:
        66:2f:94:71:8a:42:a3:c5:d9:ce:55:5d:41:87:88:6e:b9:6f:
        39:07:5a:c1:cc:24:c2:fc:40:b8:5c:12:0c:97:0e:cb:39:9a:
        f2:72:d3:e4:42:dd:63:80:59:2a:af:30:99:93:4a:61:35:2c:
        b9:8c:68:d8
-----BEGIN CERTIFICATE-----
MIIDczCCAlugAwIBAgIQFmi4V4pR4V990kHNh/CYDzANBgkqhkiG9w0BAQsFADAV
MRMwEQYDVQQDDAp0ZWFtNDctbmV0MB4XDTIzMTEwNDExMjgxOFoXDTI2MTAxOTEx
MjgxOFowGDEWMBQGA1UEAwwNdGVhbTQ3LXNlcnZlcjCCASIwDQYJKoZIhvcNAQEB
BQADggEPADCCAQoCggEBALbWQN539n6W+HbIThg7A9CKmsuGjeOktMygoa2XJ4OL
VN7V0UiVWMFtvAtf1Jt7YikYZ4O3uZtTb4d8X+Z29mklqJSxCBwshfiOfpQfAkDJ
PgMxBdH1d9FDzUpqDJ5wj74X4afNr2sqZeC5PIINSPfXA8SradCfWfuS+1Pi5s3+
OaOjCcICTNnh5UNJAg2pXDKWKkqKeFcsthB+iYUzHYuV9FVTCmBCWxEHXEYqgEtv
39GEnXw80ld/H+k9+9ry+LMWUJmpO2VfCe81ITYiNaehvK42J0lOSqimfXH0IgC1
6PmDhN0kxGsRnizQThpvx9/bMXcFtlIrG0kiCrO1kG8CAwEAAaOBuzCBuDAJBgNV
HRMEAjAAMB0GA1UdDgQWBBR2xhk0CR1fZyk8RJEc7pq6UHDr/jBQBgNVHSMESTBH
gBSpoqZ/607Zc47nk17rBrdI6fcYR6EZpBcwFTETMBEGA1UEAwwKdGVhbTQ3LW5l
dIIUEmXdqT8oRtpIWRayE1AtmbQatKYwEwYDVR0lBAwwCgYIKwYBBQUHAwEwCwYD
VR0PBAQDAgWgMBgGA1UdEQQRMA+CDXRlYW00Ny1zZXJ2ZXIwDQYJKoZIhvcNAQEL
BQADggEBAI9tEBTUF5pbW6AM/A1lP6tLQ0yAmb2+rfkE52PARAWzKZeBmLuRyC/3
zTIV6L1EGhJk6QsCBxP9fdOdmRsP7/9Pdkvtw2aIQfDq22btCvk8rybdiWnPlAEq
1m25msZv7LKZrzGwouYsJJJxreUAmkkb+mkgx99uM177O1OKhB/Jh8d7GkDv2cG1
rWy/gr41W3DAwHEiCnlytbT/TR3JkQ29K+DUVQl5eYTfb+K8FvtExLv5ERxLEg1t
wcUHmZPGFCjb8Dt/umYvlHGKQqPF2c5VXUGHiG65bzkHWsHMJML8QLhcEgyXDss5
mvJy0+RC3WOAWSqvMJmTSmE1LLmMaNg=
-----END CERTIFICATE-----
