Certificate:
    Data:
        Version: 3 (0x2)
        Serial Number:
            49:d2:ed:aa:d1:24:50:e3:2a:7a:c8:4f:dd:7e:10:5f
        Signature Algorithm: sha256WithRSAEncryption
        Issuer: CN=team47-net
        Validity
            Not Before: Nov  4 10:41:06 2023 GMT
            Not After : Oct 19 10:41:06 2026 GMT
        Subject: CN=team47-client
        Subject Public Key Info:
            Public Key Algorithm: rsaEncryption
                Public-Key: (2048 bit)
                Modulus:
                    00:ab:a0:38:c0:7e:01:35:f1:ff:22:00:80:f5:68:
                    06:0c:3d:c4:a4:b1:91:ec:0e:34:16:48:17:b7:bf:
                    39:8d:90:21:04:7e:de:ed:7c:52:02:23:6b:5f:a2:
                    29:6a:35:06:46:e5:e0:7a:1f:3c:65:5b:c3:a5:48:
                    d8:ef:ef:3d:f8:09:aa:f7:1e:85:05:8f:7b:2c:40:
                    40:56:a8:20:a4:c0:c7:98:21:91:fe:9d:14:b4:22:
                    e4:35:64:88:1e:85:60:4c:97:6c:0d:27:e0:84:12:
                    10:3e:07:ed:84:74:9c:54:1c:72:8e:6a:f2:5c:fa:
                    36:08:fc:47:3e:eb:f4:db:50:98:4b:7e:b4:91:1e:
                    26:f3:da:51:0b:37:ee:67:e1:2d:c3:1c:52:4f:5c:
                    6f:c7:06:81:d7:23:4f:fb:66:bc:5f:74:ba:57:e3:
                    a9:99:e5:75:fa:ad:40:ce:2a:e1:b4:f4:0d:0f:7f:
                    ad:ff:e9:24:cf:91:94:07:a8:68:07:61:95:4f:6a:
                    cf:5b:d2:72:bf:28:02:b4:0e:5b:5b:b7:2e:97:65:
                    8b:33:97:e5:59:9f:03:d5:a3:55:76:6b:42:ca:b4:
                    19:ec:da:07:0a:f9:2b:10:60:07:05:18:2f:b5:b4:
                    25:a8:d4:87:16:d1:c5:28:26:98:f7:42:7a:06:e0:
                    c2:4f
                Exponent: 65537 (0x10001)
        X509v3 extensions:
            X509v3 Basic Constraints: 
                CA:FALSE
            X509v3 Subject Key Identifier: 
                B9:93:3B:4D:C3:85:73:D9:AF:3B:A0:36:DB:6B:2E:1E:87:66:26:43
            X509v3 Authority Key Identifier: 
                keyid:10:B4:31:65:18:A0:1A:6C:F6:19:E2:4B:ED:A6:7E:7C:EC:BC:BE:3F
                DirName:/CN=team47-net
                serial:23:9D:02:DB:EE:44:9C:BC:FC:F0:69:44:F1:DC:0F:FC:81:72:C7:3A
            X509v3 Extended Key Usage: 
                TLS Web Client Authentication
            X509v3 Key Usage: 
                Digital Signature
    Signature Algorithm: sha256WithRSAEncryption
    Signature Value:
        89:77:72:3e:5a:a4:c8:95:47:dd:5d:87:27:ec:78:47:76:c1:
        a8:b6:b4:18:a7:a5:af:4c:c5:84:83:70:5e:19:f7:f9:81:7e:
        73:72:e1:cc:32:11:6c:cf:48:c6:35:24:cf:d6:d1:8b:17:61:
        ee:43:49:40:0d:2b:ee:0f:d6:0b:05:31:77:5a:b3:57:f1:74:
        f8:bf:bd:3c:64:c0:c7:11:70:0c:cb:7c:59:eb:be:6f:fc:97:
        11:c4:6f:f1:9d:d7:bb:4f:9f:fe:2a:c9:6d:4e:79:60:e4:29:
        af:a7:7e:28:05:7f:ae:f6:2b:a8:76:fc:fa:55:0e:e2:14:7e:
        11:9b:54:5a:67:07:db:7f:2d:57:b5:b9:a9:d6:c2:dc:cf:ea:
        d7:07:8c:8b:99:e0:dc:30:18:04:47:aa:95:b9:0c:5d:b0:0e:
        72:c8:09:b8:c6:80:6e:d4:4d:21:bf:95:9a:ce:df:89:15:45:
        8e:fc:f6:a0:d8:8d:a0:1d:04:f0:9b:61:19:85:13:b8:43:a6:
        2f:fc:1c:fe:6a:fe:6d:fe:64:01:bc:76:23:f2:4d:09:9f:62:
        f0:6d:0b:55:79:19:c7:1d:4b:37:bc:53:4d:41:de:11:1d:b8:
        b1:a2:d3:8b:e4:01:ed:96:b2:ed:b9:2e:32:e5:d6:8d:d0:69:
        eb:32:fd:94
-----BEGIN CERTIFICATE-----
MIIDWTCCAkGgAwIBAgIQSdLtqtEkUOMqeshP3X4QXzANBgkqhkiG9w0BAQsFADAV
MRMwEQYDVQQDDAp0ZWFtNDctbmV0MB4XDTIzMTEwNDEwNDEwNloXDTI2MTAxOTEw
NDEwNlowGDEWMBQGA1UEAwwNdGVhbTQ3LWNsaWVudDCCASIwDQYJKoZIhvcNAQEB
BQADggEPADCCAQoCggEBAKugOMB+ATXx/yIAgPVoBgw9xKSxkewONBZIF7e/OY2Q
IQR+3u18UgIja1+iKWo1Bkbl4HofPGVbw6VI2O/vPfgJqvcehQWPeyxAQFaoIKTA
x5ghkf6dFLQi5DVkiB6FYEyXbA0n4IQSED4H7YR0nFQcco5q8lz6Ngj8Rz7r9NtQ
mEt+tJEeJvPaUQs37mfhLcMcUk9cb8cGgdcjT/tmvF90ulfjqZnldfqtQM4q4bT0
DQ9/rf/pJM+RlAeoaAdhlU9qz1vScr8oArQOW1u3LpdlizOX5VmfA9WjVXZrQsq0
GezaBwr5KxBgBwUYL7W0JajUhxbRxSgmmPdCegbgwk8CAwEAAaOBoTCBnjAJBgNV
HRMEAjAAMB0GA1UdDgQWBBS5kztNw4Vz2a87oDbbay4eh2YmQzBQBgNVHSMESTBH
gBQQtDFlGKAabPYZ4kvtpn587Ly+P6EZpBcwFTETMBEGA1UEAwwKdGVhbTQ3LW5l
dIIUI50C2+5EnLz88GlE8dwP/IFyxzowEwYDVR0lBAwwCgYIKwYBBQUHAwIwCwYD
VR0PBAQDAgeAMA0GCSqGSIb3DQEBCwUAA4IBAQCJd3I+WqTIlUfdXYcn7HhHdsGo
trQYp6WvTMWEg3BeGff5gX5zcuHMMhFsz0jGNSTP1tGLF2HuQ0lADSvuD9YLBTF3
WrNX8XT4v708ZMDHEXAMy3xZ675v/JcRxG/xnde7T5/+KsltTnlg5Cmvp34oBX+u
9iuodvz6VQ7iFH4Rm1RaZwfbfy1Xtbmp1sLcz+rXB4yLmeDcMBgER6qVuQxdsA5y
yAm4xoBu1E0hv5Wazt+JFUWO/Pag2I2gHQTwm2EZhRO4Q6Yv/Bz+av5t/mQBvHYj
8k0Jn2LwbQtVeRnHHUs3vFNNQd4RHbixotOL5AHtlrLtuS4y5daN0GnrMv2U
-----END CERTIFICATE-----
