Certificate:
    Data:
        Version: 3 (0x2)
        Serial Number:
            db:e7:1d:3e:10:37:cd:66:81:73:b2:54:7c:95:61:59
        Signature Algorithm: sha256WithRSAEncryption
        Issuer: CN=team82-net
        Validity
            Not Before: Nov  3 20:40:35 2023 GMT
            Not After : Oct 18 20:40:35 2026 GMT
        Subject: CN=team82-client
        Subject Public Key Info:
            Public Key Algorithm: rsaEncryption
                Public-Key: (2048 bit)
                Modulus:
                    00:88:33:bd:c0:16:4b:dd:d6:d5:3b:05:a2:81:6b:
                    f9:ca:29:d1:12:3b:04:02:2c:c3:86:e0:8b:94:d0:
                    1e:83:e9:fc:74:ec:04:71:f8:61:55:42:3d:f4:ef:
                    4b:bc:7e:2f:61:4c:60:09:7d:11:c8:9a:d0:1a:6f:
                    33:85:ae:ee:55:cb:5f:98:59:da:bf:d7:cf:fc:16:
                    18:b5:fb:4b:92:85:57:08:47:d1:70:b3:95:d6:e2:
                    07:da:09:37:ee:51:84:d9:4e:0e:54:58:5b:75:29:
                    86:e5:38:3d:71:92:eb:b6:f9:f4:c5:00:1e:3d:68:
                    79:56:55:06:05:51:43:89:27:94:78:72:29:ac:b6:
                    72:11:6b:8e:4e:81:03:2f:e2:a9:94:bf:ce:cf:e1:
                    85:46:19:1c:62:d6:d9:27:7d:d7:86:7a:40:6b:68:
                    26:6e:6c:d8:d4:af:53:c6:d5:d8:0c:ba:b7:df:8b:
                    21:2c:f9:ba:33:c7:69:f6:9a:3f:bf:d8:15:81:e0:
                    1f:2e:3b:a0:b1:c0:78:0a:21:89:71:56:61:f6:8e:
                    8b:8f:78:b1:6d:2c:c6:8f:0c:ac:74:e2:a1:05:58:
                    0e:3b:8d:0a:c7:08:13:ce:36:72:01:d8:2d:03:67:
                    4a:28:a0:6a:7f:44:17:bb:27:1c:e9:af:05:15:c3:
                    b3:cd
                Exponent: 65537 (0x10001)
        X509v3 extensions:
            X509v3 Basic Constraints: 
                CA:FALSE
            X509v3 Subject Key Identifier: 
                CB:D2:B2:1F:A3:96:EC:99:83:EB:FC:1E:AC:34:B6:C0:D0:B5:1D:7F
            X509v3 Authority Key Identifier: 
                keyid:C8:76:F8:14:F1:5B:2E:39:0B:01:A4:BA:C9:EA:21:20:26:32:B5:43
                DirName:/CN=team82-net
                serial:52:F2:77:7E:6F:89:E2:D8:08:2A:F2:9B:05:CC:6F:3E:A4:83:57:08
            X509v3 Extended Key Usage: 
                TLS Web Client Authentication
            X509v3 Key Usage: 
                Digital Signature
    Signature Algorithm: sha256WithRSAEncryption
    Signature Value:
        a3:a7:01:87:3e:8f:80:57:14:bb:4f:d5:af:46:22:5e:7b:ba:
        82:e8:b6:71:aa:dd:9f:f8:c0:42:d9:9c:da:87:53:e5:46:e8:
        d9:c4:fc:35:e7:7b:86:cb:e1:4e:c0:f6:6c:05:5c:ee:db:91:
        72:5c:61:8b:3d:23:24:ed:7b:e1:39:4b:f2:78:f0:b4:d0:7e:
        89:4f:4d:84:eb:0a:b6:31:56:bd:ac:9a:73:c0:1d:cd:02:3f:
        f3:0b:24:88:e4:c0:93:8e:70:58:f7:35:6e:0a:68:34:95:c9:
        d3:a2:49:0f:ca:55:15:7e:20:bd:9a:44:27:3e:70:e0:ff:af:
        05:46:41:4f:86:48:8c:3a:c9:de:6b:ad:08:22:19:7a:81:f5:
        1c:0a:3f:55:0c:55:2e:8f:ac:10:3b:01:db:d5:f2:bc:d6:46:
        6b:d6:fb:70:ae:3d:1c:db:d0:c2:ee:a0:a8:f8:d6:d2:ee:ed:
        a5:22:94:c8:cc:8c:68:f4:4c:f0:6b:85:14:40:22:34:27:ed:
        88:1b:81:a0:12:e0:0c:5f:aa:40:9b:9c:2f:e7:9b:1d:ae:98:
        bc:b5:a4:7d:14:40:26:62:c8:f8:40:6c:34:88:1c:75:63:4d:
        a2:49:af:d5:9e:06:3d:bd:21:85:86:17:67:3d:a0:a3:b3:dd:
        1e:a5:55:05
-----BEGIN CERTIFICATE-----
MIIDWjCCAkKgAwIBAgIRANvnHT4QN81mgXOyVHyVYVkwDQYJKoZIhvcNAQELBQAw
FTETMBEGA1UEAwwKdGVhbTgyLW5ldDAeFw0yMzExMDMyMDQwMzVaFw0yNjEwMTgy
MDQwMzVaMBgxFjAUBgNVBAMMDXRlYW04Mi1jbGllbnQwggEiMA0GCSqGSIb3DQEB
AQUAA4IBDwAwggEKAoIBAQCIM73AFkvd1tU7BaKBa/nKKdESOwQCLMOG4IuU0B6D
6fx07ARx+GFVQj3070u8fi9hTGAJfRHImtAabzOFru5Vy1+YWdq/18/8Fhi1+0uS
hVcIR9Fws5XW4gfaCTfuUYTZTg5UWFt1KYblOD1xkuu2+fTFAB49aHlWVQYFUUOJ
J5R4cimstnIRa45OgQMv4qmUv87P4YVGGRxi1tknfdeGekBraCZubNjUr1PG1dgM
urffiyEs+bozx2n2mj+/2BWB4B8uO6CxwHgKIYlxVmH2jouPeLFtLMaPDKx04qEF
WA47jQrHCBPONnIB2C0DZ0oooGp/RBe7JxzprwUVw7PNAgMBAAGjgaEwgZ4wCQYD
VR0TBAIwADAdBgNVHQ4EFgQUy9KyH6OW7JmD6/werDS2wNC1HX8wUAYDVR0jBEkw
R4AUyHb4FPFbLjkLAaS6yeohICYytUOhGaQXMBUxEzARBgNVBAMMCnRlYW04Mi1u
ZXSCFFLyd35vieLYCCrymwXMbz6kg1cIMBMGA1UdJQQMMAoGCCsGAQUFBwMCMAsG
A1UdDwQEAwIHgDANBgkqhkiG9w0BAQsFAAOCAQEAo6cBhz6PgFcUu0/Vr0YiXnu6
gui2cardn/jAQtmc2odT5Ubo2cT8Ned7hsvhTsD2bAVc7tuRclxhiz0jJO174TlL
8njwtNB+iU9NhOsKtjFWvayac8AdzQI/8wskiOTAk45wWPc1bgpoNJXJ06JJD8pV
FX4gvZpEJz5w4P+vBUZBT4ZIjDrJ3mutCCIZeoH1HAo/VQxVLo+sEDsB29XyvNZG
a9b7cK49HNvQwu6gqPjW0u7tpSKUyMyMaPRM8GuFFEAiNCftiBuBoBLgDF+qQJuc
L+ebHa6YvLWkfRRAJmLI+EBsNIgcdWNNokmv1Z4GPb0hhYYXZz2go7PdHqVVBQ==
-----END CERTIFICATE-----
