Certificate:
    Data:
        Version: 3 (0x2)
        Serial Number:
            8b:9d:e0:7d:0e:a4:ff:81:e2:6d:aa:25:23:5e:aa:8d
        Signature Algorithm: sha256WithRSAEncryption
        Issuer: CN=team225-net
        Validity
            Not Before: Nov  3 20:43:26 2023 GMT
            Not After : Oct 18 20:43:26 2026 GMT
        Subject: CN=team225-client
        Subject Public Key Info:
            Public Key Algorithm: rsaEncryption
                Public-Key: (2048 bit)
                Modulus:
                    00:eb:3d:c9:4a:c2:4b:33:e3:41:9e:56:5a:f0:c6:
                    6a:2e:c9:a6:27:f9:3a:67:c4:46:ad:9b:b6:2e:13:
                    a3:e7:1b:fc:71:ad:ab:95:80:78:5e:cc:27:2f:dd:
                    9e:ad:c6:5f:9e:7e:1f:77:ac:62:2c:98:26:d9:4e:
                    e8:c9:77:d1:a2:a7:45:c0:47:d1:4f:67:39:92:bf:
                    bd:b3:43:bb:d6:0a:6e:96:04:61:fc:14:5e:fe:dc:
                    4f:f8:f4:fa:51:01:63:9a:3e:8d:26:55:26:53:0e:
                    92:43:77:58:13:97:01:05:8d:b2:ff:d1:62:d0:53:
                    67:4a:f0:ea:d1:77:3d:9d:3a:f1:57:3b:f5:b2:4a:
                    0d:af:18:b9:44:c3:e7:a5:b4:4c:ce:e0:56:df:75:
                    67:48:90:57:c0:1b:35:43:d4:c2:ac:96:6e:34:f0:
                    0e:32:69:d4:bd:62:9e:33:57:85:90:e8:c3:50:a8:
                    15:e4:fc:98:ba:b1:1e:0e:6c:37:8c:a0:d6:24:4a:
                    c5:ab:0f:a4:71:86:ef:13:e4:c8:6e:ec:38:ae:d8:
                    9b:37:18:7e:1c:66:ae:93:ff:f4:07:8e:5c:8a:b1:
                    4f:dc:10:2b:12:2b:84:65:92:d0:c3:c6:7f:92:56:
                    2e:41:52:df:25:e5:2f:cb:e1:04:c4:67:9a:94:42:
                    fd:ed
                Exponent: 65537 (0x10001)
        X509v3 extensions:
            X509v3 Basic Constraints: 
                CA:FALSE
            X509v3 Subject Key Identifier: 
                31:5E:32:CE:16:B2:E0:D1:50:AF:6B:7A:D8:53:96:E9:E2:48:C9:4C
            X509v3 Authority Key Identifier: 
                keyid:1E:83:F3:1A:6D:77:BB:60:E1:3B:CA:00:3D:CE:C4:30:B1:1C:14:D3
                DirName:/CN=team225-net
                serial:2A:ED:6B:92:18:05:CA:DE:8E:5E:5E:78:D7:07:C5:F5:B1:B1:57:EE
            X509v3 Extended Key Usage: 
                TLS Web Client Authentication
            X509v3 Key Usage: 
                Digital Signature
    Signature Algorithm: sha256WithRSAEncryption
    Signature Value:
        00:94:2e:72:ae:cf:e2:a5:2c:5d:c6:52:1f:71:7e:31:f8:1a:
        a1:55:57:50:d7:cf:59:41:39:b0:af:a4:5e:de:b3:a3:7d:80:
        e1:79:5d:7e:e5:12:08:04:df:e6:f1:7c:c2:4d:55:42:7c:69:
        7e:e5:09:1c:10:e2:b3:6e:8b:c9:6e:fe:0f:f0:ef:41:d6:92:
        07:4b:a8:0d:68:43:44:ed:b3:5d:81:58:27:46:9d:b7:fa:ea:
        43:b9:be:e0:61:c4:1b:3b:2c:64:1d:b7:9c:dd:79:13:5d:21:
        ea:51:48:6d:e0:da:2f:f4:e5:3b:ee:9d:a6:09:85:77:00:ef:
        3e:85:d1:dc:03:b2:32:46:b1:3c:46:6e:a1:75:cc:2e:7e:af:
        fb:c6:39:30:f4:de:9c:4f:04:80:7c:ea:04:45:99:ed:1d:df:
        5f:a7:9f:58:88:d7:99:4c:8e:32:38:2f:be:fe:20:f7:a8:d6:
        97:69:11:a0:f2:10:32:31:5d:75:5f:34:e1:54:f2:a6:90:2c:
        f4:b1:b3:0b:a5:94:66:b6:20:51:05:85:40:d2:80:be:1d:d0:
        76:b1:32:05:26:72:44:f4:7a:24:17:25:a8:e2:c9:81:2b:5f:
        b1:eb:ee:e2:2e:60:5f:34:6e:f7:81:16:13:66:39:cf:9b:16:
        88:e7:43:4a
-----BEGIN CERTIFICATE-----
MIIDXTCCAkWgAwIBAgIRAIud4H0OpP+B4m2qJSNeqo0wDQYJKoZIhvcNAQELBQAw
FjEUMBIGA1UEAwwLdGVhbTIyNS1uZXQwHhcNMjMxMTAzMjA0MzI2WhcNMjYxMDE4
MjA0MzI2WjAZMRcwFQYDVQQDDA50ZWFtMjI1LWNsaWVudDCCASIwDQYJKoZIhvcN
AQEBBQADggEPADCCAQoCggEBAOs9yUrCSzPjQZ5WWvDGai7Jpif5OmfERq2bti4T
o+cb/HGtq5WAeF7MJy/dnq3GX55+H3esYiyYJtlO6Ml30aKnRcBH0U9nOZK/vbND
u9YKbpYEYfwUXv7cT/j0+lEBY5o+jSZVJlMOkkN3WBOXAQWNsv/RYtBTZ0rw6tF3
PZ068Vc79bJKDa8YuUTD56W0TM7gVt91Z0iQV8AbNUPUwqyWbjTwDjJp1L1injNX
hZDow1CoFeT8mLqxHg5sN4yg1iRKxasPpHGG7xPkyG7sOK7YmzcYfhxmrpP/9AeO
XIqxT9wQKxIrhGWS0MPGf5JWLkFS3yXlL8vhBMRnmpRC/e0CAwEAAaOBojCBnzAJ
BgNVHRMEAjAAMB0GA1UdDgQWBBQxXjLOFrLg0VCva3rYU5bp4kjJTDBRBgNVHSME
SjBIgBQeg/MabXe7YOE7ygA9zsQwsRwU06EapBgwFjEUMBIGA1UEAwwLdGVhbTIy
NS1uZXSCFCrta5IYBcrejl5eeNcHxfWxsVfuMBMGA1UdJQQMMAoGCCsGAQUFBwMC
MAsGA1UdDwQEAwIHgDANBgkqhkiG9w0BAQsFAAOCAQEAAJQucq7P4qUsXcZSH3F+
MfgaoVVXUNfPWUE5sK+kXt6zo32A4XldfuUSCATf5vF8wk1VQnxpfuUJHBDis26L
yW7+D/DvQdaSB0uoDWhDRO2zXYFYJ0adt/rqQ7m+4GHEGzssZB23nN15E10h6lFI
beDaL/TlO+6dpgmFdwDvPoXR3AOyMkaxPEZuoXXMLn6v+8Y5MPTenE8EgHzqBEWZ
7R3fX6efWIjXmUyOMjgvvv4g96jWl2kRoPIQMjFddV804VTyppAs9LGzC6WUZrYg
UQWFQNKAvh3QdrEyBSZyRPR6JBclqOLJgStfsevu4i5gXzRu94EWE2Y5z5sWiOdD
Sg==
-----END CERTIFICATE-----
