Certificate:
    Data:
        Version: 3 (0x2)
        Serial Number:
            71:35:48:ce:f7:17:02:81:5d:ae:66:c5:f5:a6:87:d2
        Signature Algorithm: sha256WithRSAEncryption
        Issuer: CN=team225-net
        Validity
            Not Before: Nov  3 20:43:26 2023 GMT
            Not After : Oct 18 20:43:26 2026 GMT
        Subject: CN=team225-server
        Subject Public Key Info:
            Public Key Algorithm: rsaEncryption
                Public-Key: (2048 bit)
                Modulus:
                    00:e6:c4:41:3e:3f:d2:dc:79:c4:47:52:75:4b:ff:
                    44:47:d6:cd:92:17:7c:f7:7e:fb:fc:b2:8f:a0:39:
                    b6:1b:cd:14:5b:a5:b5:6f:8b:b6:db:6f:bc:20:d6:
                    9c:6a:19:d4:d4:e1:66:ba:11:ba:aa:97:5f:53:1c:
                    45:5f:2c:36:4c:62:d2:c3:09:14:ca:dd:ad:ab:89:
                    8f:49:ba:6c:76:35:78:f9:09:39:70:6a:1c:de:f6:
                    08:08:00:95:88:ea:1e:8c:a0:d5:9e:d8:7f:80:3a:
                    59:f5:94:cf:41:b1:10:c6:75:3a:45:8b:f0:83:fb:
                    a9:81:85:0f:20:95:87:f2:33:41:16:b6:1e:8d:d5:
                    72:5e:93:21:83:62:e1:b3:6c:72:d2:3c:d0:9f:a8:
                    ff:f3:6a:7d:91:96:f1:ad:f1:d6:e1:79:59:98:c1:
                    e0:2a:6e:38:0e:30:9a:b5:c3:33:6f:2d:b5:64:98:
                    da:11:53:91:c3:98:ce:4c:59:72:e9:f4:b1:47:77:
                    d5:61:33:e1:cc:a6:41:dc:66:d2:ac:39:98:d6:68:
                    2a:8d:92:14:12:7e:0c:98:b6:9d:5e:e7:13:f1:b5:
                    b1:50:d4:6c:26:32:85:0b:54:74:1d:fe:6b:7d:ea:
                    92:4c:9d:92:6c:4b:21:60:84:82:7e:09:fd:d5:5d:
                    4c:0b
                Exponent: 65537 (0x10001)
        X509v3 extensions:
            X509v3 Basic Constraints: 
                CA:FALSE
            X509v3 Subject Key Identifier: 
                E2:A1:02:2F:B4:7B:24:C7:6D:A1:32:60:0A:1B:E8:85:5E:97:91:69
            X509v3 Authority Key Identifier: 
                keyid:1E:83:F3:1A:6D:77:BB:60:E1:3B:CA:00:3D:CE:C4:30:B1:1C:14:D3
                DirName:/CN=team225-net
                serial:2A:ED:6B:92:18:05:CA:DE:8E:5E:5E:78:D7:07:C5:F5:B1:B1:57:EE
            X509v3 Extended Key Usage: 
                TLS Web Server Authentication
            X509v3 Key Usage: 
                Digital Signature, Key Encipherment
            X509v3 Subject Alternative Name: 
                DNS:team225-server
    Signature Algorithm: sha256WithRSAEncryption
    Signature Value:
        1b:6c:a3:ff:9d:bc:df:cb:a9:08:89:7b:03:9b:fd:96:d8:d5:
        db:20:b9:8e:f9:f8:66:d7:01:9d:1f:6c:e9:b6:b1:04:9d:a5:
        7e:00:1b:2a:86:e4:8b:75:69:0d:e8:47:e5:c7:21:f9:b7:26:
        e2:30:fa:19:e5:b6:b6:5a:5c:48:8b:86:b5:c6:b3:17:7e:66:
        a6:ef:ef:bd:c3:32:1f:f0:19:b9:68:33:a6:a5:8d:7d:59:70:
        00:93:b5:73:29:8a:c1:f6:ed:86:24:2a:a7:fb:1b:26:c3:92:
        25:ae:d8:1a:15:93:3f:42:ca:af:d8:f4:1c:12:ac:14:89:70:
        f5:9c:a4:03:24:38:14:16:16:c6:c7:b3:47:e4:6f:e1:58:25:
        40:8b:98:07:e8:5e:f0:97:cb:1f:f4:b2:1d:52:d2:65:45:46:
        82:41:db:a9:ba:b9:1c:e6:5c:ff:04:5a:54:3b:31:a3:37:f5:
        d7:9c:dd:c1:e9:75:36:f1:6d:fd:c6:d7:d4:e1:a5:8f:84:93:
        ed:db:a8:0a:7e:e2:4b:97:a5:1c:a4:63:43:74:cc:69:fa:2c:
        24:f2:c7:dc:de:55:4e:9a:7d:2b:2c:7d:c6:1d:93:db:0c:23:
        13:ba:b7:74:fe:94:89:78:1e:a9:f9:34:a9:ef:43:ff:9e:49:
        1d:90:fe:b5
-----BEGIN CERTIFICATE-----
MIIDdzCCAl+gAwIBAgIQcTVIzvcXAoFdrmbF9aaH0jANBgkqhkiG9w0BAQsFADAW
MRQwEgYDVQQDDAt0ZWFtMjI1LW5ldDAeFw0yMzExMDMyMDQzMjZaFw0yNjEwMTgy
MDQzMjZaMBkxFzAVBgNVBAMMDnRlYW0yMjUtc2VydmVyMIIBIjANBgkqhkiG9w0B
AQEFAAOCAQ8AMIIBCgKCAQEA5sRBPj/S3HnER1J1S/9ER9bNkhd89377/LKPoDm2
G80UW6W1b4u222+8INacahnU1OFmuhG6qpdfUxxFXyw2TGLSwwkUyt2tq4mPSbps
djV4+Qk5cGoc3vYICACViOoejKDVnth/gDpZ9ZTPQbEQxnU6RYvwg/upgYUPIJWH
8jNBFrYejdVyXpMhg2Lhs2xy0jzQn6j/82p9kZbxrfHW4XlZmMHgKm44DjCatcMz
by21ZJjaEVORw5jOTFly6fSxR3fVYTPhzKZB3GbSrDmY1mgqjZIUEn4MmLadXucT
8bWxUNRsJjKFC1R0Hf5rfeqSTJ2SbEshYISCfgn91V1MCwIDAQABo4G9MIG6MAkG
A1UdEwQCMAAwHQYDVR0OBBYEFOKhAi+0eyTHbaEyYAob6IVel5FpMFEGA1UdIwRK
MEiAFB6D8xptd7tg4TvKAD3OxDCxHBTToRqkGDAWMRQwEgYDVQQDDAt0ZWFtMjI1
LW5ldIIUKu1rkhgFyt6OXl541wfF9bGxV+4wEwYDVR0lBAwwCgYIKwYBBQUHAwEw
CwYDVR0PBAQDAgWgMBkGA1UdEQQSMBCCDnRlYW0yMjUtc2VydmVyMA0GCSqGSIb3
DQEBCwUAA4IBAQAbbKP/nbzfy6kIiXsDm/2W2NXbILmO+fhm1wGdH2zptrEEnaV+
ABsqhuSLdWkN6EflxyH5tybiMPoZ5ba2WlxIi4a1xrMXfmam7++9wzIf8Bm5aDOm
pY19WXAAk7VzKYrB9u2GJCqn+xsmw5IlrtgaFZM/Qsqv2PQcEqwUiXD1nKQDJDgU
FhbGx7NH5G/hWCVAi5gH6F7wl8sf9LIdUtJlRUaCQdupurkc5lz/BFpUOzGjN/XX
nN3B6XU28W39xtfU4aWPhJPt26gKfuJLl6UcpGNDdMxp+iwk8sfc3lVOmn0rLH3G
HZPbDCMTurd0/pSJeB6p+TSp70P/nkkdkP61
-----END CERTIFICATE-----
