Certificate:
    Data:
        Version: 3 (0x2)
        Serial Number:
            76:20:65:86:4e:27:59:a6:ce:39:22:54:db:17:ce:f6
        Signature Algorithm: sha256WithRSAEncryption
        Issuer: CN=team345-net
        Validity
            Not Before: Nov  4 11:35:05 2023 GMT
            Not After : Oct 19 11:35:05 2026 GMT
        Subject: CN=team345-client
        Subject Public Key Info:
            Public Key Algorithm: rsaEncryption
                Public-Key: (2048 bit)
                Modulus:
                    00:b4:19:4a:d5:3d:10:05:2e:ca:11:03:f2:30:33:
                    10:0f:d1:ab:bb:1c:3d:ce:20:6d:f6:59:76:c3:39:
                    b2:ea:a2:6f:a1:85:56:96:14:81:39:d5:6a:58:8e:
                    76:8b:e2:2f:f1:fa:08:9a:fc:97:ae:6e:cb:07:f4:
                    26:11:d0:5f:f5:a2:9c:b1:03:fc:e9:24:4b:18:8f:
                    fc:6d:67:d9:e5:c2:fd:37:28:b9:bb:3a:a3:42:5c:
                    cd:6d:ec:7a:e4:af:68:02:30:08:09:1d:d0:28:01:
                    fa:f5:ab:86:de:13:bc:c5:2d:96:be:d3:dc:b3:25:
                    3a:9d:12:01:a9:a8:83:44:a5:21:d9:d9:eb:cc:aa:
                    72:a8:cb:cb:1d:49:4a:88:41:56:fa:e4:8f:26:96:
                    d3:fe:94:38:e7:44:04:91:40:56:34:b3:fa:a6:28:
                    77:28:b6:4a:e8:e0:4e:0d:2a:56:95:87:9e:40:6e:
                    0b:28:de:c3:62:9f:c8:d3:9d:13:b0:6d:7f:b8:72:
                    44:76:17:d9:75:ee:a0:2c:25:c7:b5:b7:84:24:e4:
                    d3:37:ce:66:5e:13:61:6c:2a:f0:38:45:27:b8:ca:
                    69:26:88:87:e0:8f:cb:42:70:4f:5c:dd:40:f7:d5:
                    97:98:34:58:62:61:1b:b4:5d:09:0d:09:69:39:c2:
                    cf:e1
                Exponent: 65537 (0x10001)
        X509v3 extensions:
            X509v3 Basic Constraints: 
                CA:FALSE
            X509v3 Subject Key Identifier: 
                BA:BC:2D:EE:80:71:FA:01:99:28:BA:F9:22:0B:8D:8C:26:CE:B5:C2
            X509v3 Authority Key Identifier: 
                keyid:A2:87:57:48:68:BB:F1:64:1A:C8:E9:08:E4:01:CF:43:69:77:F3:F2
                DirName:/CN=team345-net
                serial:16:E3:3C:27:3B:92:B2:47:62:3D:71:5D:FF:EF:38:46:87:28:39:F4
            X509v3 Extended Key Usage: 
                TLS Web Client Authentication
            X509v3 Key Usage: 
                Digital Signature
    Signature Algorithm: sha256WithRSAEncryption
    Signature Value:
        bb:90:d6:0c:89:6d:05:5c:10:6e:3c:d1:00:0b:8e:d4:62:a2:
        b4:6a:f1:be:b5:85:f1:b4:86:4f:f8:6c:0e:33:4a:43:6a:79:
        4a:d9:e9:f7:b5:f0:3c:c9:58:3e:49:0e:59:f4:cf:2f:57:c9:
        18:5e:8f:0e:fa:ba:9d:05:74:35:0f:74:72:98:86:1a:08:9a:
        97:fc:09:51:fc:1f:2b:ec:12:a3:87:4b:f8:cf:d9:c5:f2:ba:
        a1:50:7e:a6:d3:63:42:84:cc:d3:a1:07:e6:79:25:30:ab:6f:
        4f:69:67:28:c8:14:0c:60:7a:6b:c8:f7:45:24:6f:71:e9:af:
        cc:d2:d5:cf:da:ca:fc:1f:9c:fc:0d:69:2b:fd:e8:64:4e:34:
        f7:00:c6:bd:7b:29:12:9b:ac:e9:a8:fa:74:4f:cd:37:03:40:
        d0:91:ef:47:8e:2c:64:70:47:60:d6:9d:e7:24:ff:d2:bb:28:
        0e:b9:01:3b:a4:ca:2f:bb:63:3a:08:f4:5a:41:8a:fc:5b:87:
        52:f6:03:b3:69:17:93:99:72:b0:51:1a:42:50:2d:a6:33:5c:
        e3:49:58:3b:b2:75:48:96:13:ac:a9:52:41:c3:68:4d:92:78:
        ec:dd:2f:eb:17:bf:30:dc:84:a2:da:36:97:5f:3a:ae:c3:57:
        f6:22:1a:25
-----BEGIN CERTIFICATE-----
MIIDXDCCAkSgAwIBAgIQdiBlhk4nWabOOSJU2xfO9jANBgkqhkiG9w0BAQsFADAW
MRQwEgYDVQQDDAt0ZWFtMzQ1LW5ldDAeFw0yMzExMDQxMTM1MDVaFw0yNjEwMTkx
MTM1MDVaMBkxFzAVBgNVBAMMDnRlYW0zNDUtY2xpZW50MIIBIjANBgkqhkiG9w0B
AQEFAAOCAQ8AMIIBCgKCAQEAtBlK1T0QBS7KEQPyMDMQD9Gruxw9ziBt9ll2wzmy
6qJvoYVWlhSBOdVqWI52i+Iv8foImvyXrm7LB/QmEdBf9aKcsQP86SRLGI/8bWfZ
5cL9Nyi5uzqjQlzNbex65K9oAjAICR3QKAH69auG3hO8xS2WvtPcsyU6nRIBqaiD
RKUh2dnrzKpyqMvLHUlKiEFW+uSPJpbT/pQ450QEkUBWNLP6pih3KLZK6OBODSpW
lYeeQG4LKN7DYp/I050TsG1/uHJEdhfZde6gLCXHtbeEJOTTN85mXhNhbCrwOEUn
uMppJoiH4I/LQnBPXN1A99WXmDRYYmEbtF0JDQlpOcLP4QIDAQABo4GiMIGfMAkG
A1UdEwQCMAAwHQYDVR0OBBYEFLq8Le6AcfoBmSi6+SILjYwmzrXCMFEGA1UdIwRK
MEiAFKKHV0hou/FkGsjpCOQBz0Npd/PyoRqkGDAWMRQwEgYDVQQDDAt0ZWFtMzQ1
LW5ldIIUFuM8JzuSskdiPXFd/+84RocoOfQwEwYDVR0lBAwwCgYIKwYBBQUHAwIw
CwYDVR0PBAQDAgeAMA0GCSqGSIb3DQEBCwUAA4IBAQC7kNYMiW0FXBBuPNEAC47U
YqK0avG+tYXxtIZP+GwOM0pDanlK2en3tfA8yVg+SQ5Z9M8vV8kYXo8O+rqdBXQ1
D3RymIYaCJqX/AlR/B8r7BKjh0v4z9nF8rqhUH6m02NChMzToQfmeSUwq29PaWco
yBQMYHpryPdFJG9x6a/M0tXP2sr8H5z8DWkr/ehkTjT3AMa9eykSm6zpqPp0T803
A0DQke9HjixkcEdg1p3nJP/SuygOuQE7pMovu2M6CPRaQYr8W4dS9gOzaReTmXKw
URpCUC2mM1zjSVg7snVIlhOsqVJBw2hNknjs3S/rF78w3ISi2jaXXzquw1f2Ihol
-----END CERTIFICATE-----
