Certificate:
    Data:
        Version: 3 (0x2)
        Serial Number:
            8d:4d:55:7b:3a:30:04:2c:93:81:dd:82:4f:24:10:00
        Signature Algorithm: sha256WithRSAEncryption
        Issuer: CN=team345-net
        Validity
            Not Before: Nov  4 11:35:05 2023 GMT
            Not After : Oct 19 11:35:05 2026 GMT
        Subject: CN=team345-server
        Subject Public Key Info:
            Public Key Algorithm: rsaEncryption
                Public-Key: (2048 bit)
                Modulus:
                    00:9f:8a:83:bf:d6:83:ed:04:4d:13:46:09:b7:2e:
                    88:db:59:e6:39:51:c1:32:61:da:ff:2a:36:8e:ba:
                    46:02:e9:c1:ab:72:c1:bb:ae:40:2c:dc:b8:11:00:
                    f1:3d:c7:ed:00:61:b8:c8:88:ae:ec:90:c6:7c:e5:
                    dc:bf:36:44:6d:b3:07:f9:21:c3:d1:63:36:67:19:
                    9b:14:9e:4a:7f:6d:7d:d5:d9:17:ec:24:b7:61:85:
                    b5:9c:eb:3e:fc:27:1f:8d:22:a9:c7:15:4b:f0:ab:
                    ad:b2:57:74:85:65:f3:fb:e0:0e:e9:82:6d:c1:17:
                    fb:77:51:cf:c4:78:c8:5f:71:46:c7:fb:3f:29:53:
                    a5:5d:5a:95:b5:14:23:5e:93:7f:fa:2b:fd:e1:b7:
                    e3:e4:26:09:3b:46:7e:e6:d0:72:3a:b8:43:f5:94:
                    2b:b5:09:d2:6c:18:e6:68:90:ca:f9:17:cd:28:90:
                    94:16:06:06:24:41:22:c2:4b:ed:fa:0b:25:4f:04:
                    67:b1:7b:54:6d:65:e4:68:ba:17:da:d6:1a:31:3f:
                    30:c9:8d:34:3f:0f:7d:c8:b3:7a:92:e9:c4:4e:5f:
                    0c:9b:81:a7:70:41:7a:ff:6e:17:ed:8d:d6:04:f7:
                    83:d1:ea:6e:0c:72:07:05:44:d9:94:ac:d1:94:37:
                    bd:83
                Exponent: 65537 (0x10001)
        X509v3 extensions:
            X509v3 Basic Constraints: 
                CA:FALSE
            X509v3 Subject Key Identifier: 
                51:FE:47:38:8B:E3:B8:12:B2:44:A4:6D:FB:85:40:69:C2:F8:AD:B3
            X509v3 Authority Key Identifier: 
                keyid:A2:87:57:48:68:BB:F1:64:1A:C8:E9:08:E4:01:CF:43:69:77:F3:F2
                DirName:/CN=team345-net
                serial:16:E3:3C:27:3B:92:B2:47:62:3D:71:5D:FF:EF:38:46:87:28:39:F4
            X509v3 Extended Key Usage: 
                TLS Web Server Authentication
            X509v3 Key Usage: 
                Digital Signature, Key Encipherment
            X509v3 Subject Alternative Name: 
                DNS:team345-server
    Signature Algorithm: sha256WithRSAEncryption
    Signature Value:
        a0:91:fa:0d:e4:8e:ff:5c:27:12:ba:42:3f:ef:67:fd:54:a5:
        45:fa:e2:7d:74:ed:7c:0d:02:53:02:e4:7e:c8:fc:87:fa:31:
        9a:cb:55:40:5c:39:15:f6:33:b1:a6:cc:81:43:0c:4f:3c:fa:
        f0:d5:66:f7:f1:4e:ab:82:39:ff:fd:21:a9:b6:d2:c6:a5:15:
        46:ed:40:ee:71:7e:50:79:8f:9c:80:c4:62:5f:13:7e:47:36:
        09:65:ba:90:3d:a4:33:09:ce:eb:ce:22:e9:bc:92:ca:39:e6:
        27:96:02:81:a6:1f:1b:6b:be:5f:9c:52:53:b8:af:12:bc:03:
        c3:f6:61:d7:f2:b8:61:53:c6:d1:43:9c:54:50:cd:c7:3a:54:
        a4:75:c5:85:a4:d0:e9:6d:3f:7c:2c:55:81:71:5c:a1:10:fb:
        4a:e7:6b:6e:c0:01:72:d4:a0:8e:76:9e:da:e8:40:bc:cc:ff:
        c4:ff:d0:d7:b4:67:06:15:df:b7:a3:7d:45:49:ea:06:8e:0e:
        39:a3:c6:ad:5d:40:22:ee:0d:d1:02:3c:ee:e8:7d:c4:eb:c7:
        32:c1:00:42:11:17:6c:62:5c:17:19:68:1d:fd:f1:f2:c0:68:
        53:1d:bf:08:b1:0f:cb:6c:cf:a3:5a:36:0a:f0:d4:6e:d1:72:
        41:f0:29:fe
-----BEGIN CERTIFICATE-----
MIIDeDCCAmCgAwIBAgIRAI1NVXs6MAQsk4Hdgk8kEAAwDQYJKoZIhvcNAQELBQAw
FjEUMBIGA1UEAwwLdGVhbTM0NS1uZXQwHhcNMjMxMTA0MTEzNTA1WhcNMjYxMDE5
MTEzNTA1WjAZMRcwFQYDVQQDDA50ZWFtMzQ1LXNlcnZlcjCCASIwDQYJKoZIhvcN
AQEBBQADggEPADCCAQoCggEBAJ+Kg7/Wg+0ETRNGCbcuiNtZ5jlRwTJh2v8qNo66
RgLpwatywbuuQCzcuBEA8T3H7QBhuMiIruyQxnzl3L82RG2zB/khw9FjNmcZmxSe
Sn9tfdXZF+wkt2GFtZzrPvwnH40iqccVS/CrrbJXdIVl8/vgDumCbcEX+3dRz8R4
yF9xRsf7PylTpV1albUUI16Tf/or/eG34+QmCTtGfubQcjq4Q/WUK7UJ0mwY5miQ
yvkXzSiQlBYGBiRBIsJL7foLJU8EZ7F7VG1l5Gi6F9rWGjE/MMmNND8PfcizepLp
xE5fDJuBp3BBev9uF+2N1gT3g9HqbgxyBwVE2ZSs0ZQ3vYMCAwEAAaOBvTCBujAJ
BgNVHRMEAjAAMB0GA1UdDgQWBBRR/kc4i+O4ErJEpG37hUBpwvitszBRBgNVHSME
SjBIgBSih1dIaLvxZBrI6QjkAc9DaXfz8qEapBgwFjEUMBIGA1UEAwwLdGVhbTM0
NS1uZXSCFBbjPCc7krJHYj1xXf/vOEaHKDn0MBMGA1UdJQQMMAoGCCsGAQUFBwMB
MAsGA1UdDwQEAwIFoDAZBgNVHREEEjAQgg50ZWFtMzQ1LXNlcnZlcjANBgkqhkiG
9w0BAQsFAAOCAQEAoJH6DeSO/1wnErpCP+9n/VSlRfrifXTtfA0CUwLkfsj8h/ox
mstVQFw5FfYzsabMgUMMTzz68NVm9/FOq4I5//0hqbbSxqUVRu1A7nF+UHmPnIDE
Yl8Tfkc2CWW6kD2kMwnO684i6bySyjnmJ5YCgaYfG2u+X5xSU7ivErwDw/Zh1/K4
YVPG0UOcVFDNxzpUpHXFhaTQ6W0/fCxVgXFcoRD7SudrbsABctSgjnae2uhAvMz/
xP/Q17RnBhXft6N9RUnqBo4OOaPGrV1AIu4N0QI87uh9xOvHMsEAQhEXbGJcFxlo
Hf3x8sBoUx2/CLEPy2zPo1o2CvDUbtFyQfAp/g==
-----END CERTIFICATE-----
