Certificate:
    Data:
        Version: 3 (0x2)
        Serial Number:
            b2:5d:f5:9d:74:c8:1b:68:9e:4f:c4:31:33:26:2f:f8
        Signature Algorithm: sha256WithRSAEncryption
        Issuer: CN=team345-net
        Validity
            Not Before: Nov  4 10:46:55 2023 GMT
            Not After : Oct 19 10:46:55 2026 GMT
        Subject: CN=team345-client
        Subject Public Key Info:
            Public Key Algorithm: rsaEncryption
                Public-Key: (2048 bit)
                Modulus:
                    00:bc:7e:61:07:e5:d7:25:6f:1f:08:cb:ee:cb:ba:
                    93:8b:92:2f:37:e5:66:ef:89:41:a7:1d:ca:a0:15:
                    56:45:3e:c7:48:c8:4f:11:47:95:57:27:7d:9f:3c:
                    f6:6e:a1:5b:7e:29:c9:db:99:c1:1a:20:ff:78:12:
                    a8:df:48:63:1d:60:bf:6d:56:66:cb:55:b1:93:ae:
                    bf:70:07:a5:00:2e:18:6f:fc:3f:1b:1f:f1:3a:fb:
                    eb:5a:a8:a1:24:52:5c:5c:a4:2f:10:8e:74:4c:1a:
                    3d:ba:9f:5e:a7:ee:bf:5d:bb:c1:3a:93:8d:a0:21:
                    c8:84:32:0a:88:3f:43:7f:d7:7d:2d:e5:b0:19:8d:
                    88:9d:4a:11:d8:b8:15:a0:7b:e7:65:44:ad:59:11:
                    6d:79:75:ba:64:fe:28:94:fa:d5:a4:dc:a2:b4:08:
                    9d:98:72:d7:75:1f:41:14:7a:26:e7:df:9f:f7:16:
                    90:39:92:3a:65:b0:84:f1:82:ab:f7:99:2f:5a:33:
                    2a:7c:ff:86:fc:ee:a6:65:04:2e:f9:3b:8f:5e:ef:
                    b8:4b:c8:13:6b:fd:d8:78:37:6a:26:b8:76:93:b8:
                    fb:23:07:08:8a:d6:60:d7:26:94:eb:61:3c:ea:b6:
                    4b:ac:de:2f:6b:6b:08:f5:1b:42:39:49:0d:63:c7:
                    6a:25
                Exponent: 65537 (0x10001)
        X509v3 extensions:
            X509v3 Basic Constraints: 
                CA:FALSE
            X509v3 Subject Key Identifier: 
                23:3D:58:3E:D5:18:05:38:AE:52:62:27:7D:59:09:42:F8:DC:F8:65
            X509v3 Authority Key Identifier: 
                keyid:99:31:43:21:E6:00:BF:15:50:5B:99:F0:DE:D6:FF:E2:95:57:BF:69
                DirName:/CN=team345-net
                serial:47:96:F4:78:2B:2F:CE:D5:CB:2C:08:38:ED:01:D4:D2:FC:0E:67:ED
            X509v3 Extended Key Usage: 
                TLS Web Client Authentication
            X509v3 Key Usage: 
                Digital Signature
    Signature Algorithm: sha256WithRSAEncryption
    Signature Value:
        3a:55:43:d6:3f:d1:84:62:de:9a:9d:1f:24:ef:b0:2a:80:c5:
        54:8c:b6:b7:b2:3f:fd:a0:f0:bb:72:f3:ec:89:9f:d3:71:c0:
        43:fc:b9:d8:e5:5b:b9:2e:e8:41:d7:05:d0:be:01:f2:c6:2e:
        bc:88:b0:a5:70:b2:ee:ca:d0:b3:0a:40:ae:3a:80:ff:1d:3a:
        4b:09:d3:77:b8:d8:d8:2b:0d:1a:59:e9:22:97:9a:d2:34:5f:
        ef:44:24:2e:3c:0e:6c:3b:dc:d4:36:42:66:94:6f:d4:39:3d:
        f1:08:48:dc:40:c2:8c:1d:e4:1f:40:a1:cc:93:cb:fe:c3:ac:
        33:dd:e3:b8:e5:6f:e1:f1:3f:b2:9b:72:d7:b6:ee:4e:a9:13:
        94:da:cf:a6:d1:7d:d6:1e:0a:9e:9b:55:91:d0:91:e1:b5:f4:
        d9:66:2c:0f:1f:f2:86:81:fc:e2:b1:21:ab:26:9f:20:d9:d5:
        cc:44:76:c4:cd:29:2a:d8:58:ff:d7:9a:18:0a:53:c5:bd:bf:
        4b:ac:8f:d4:cd:22:78:37:5e:59:8a:83:a1:62:b8:bd:64:a1:
        c9:72:f3:67:0d:f5:63:88:3c:ba:c6:3e:57:2c:6b:f2:1d:2f:
        05:ac:e2:69:17:ae:2a:16:f4:a8:bd:8f:96:1d:45:4e:40:6f:
        e5:df:b9:2d
-----BEGIN CERTIFICATE-----
MIIDXTCCAkWgAwIBAgIRALJd9Z10yBtonk/EMTMmL/gwDQYJKoZIhvcNAQELBQAw
FjEUMBIGA1UEAwwLdGVhbTM0NS1uZXQwHhcNMjMxMTA0MTA0NjU1WhcNMjYxMDE5
MTA0NjU1WjAZMRcwFQYDVQQDDA50ZWFtMzQ1LWNsaWVudDCCASIwDQYJKoZIhvcN
AQEBBQADggEPADCCAQoCggEBALx+YQfl1yVvHwjL7su6k4uSLzflZu+JQacdyqAV
VkU+x0jITxFHlVcnfZ889m6hW34pyduZwRog/3gSqN9IYx1gv21WZstVsZOuv3AH
pQAuGG/8Pxsf8Tr761qooSRSXFykLxCOdEwaPbqfXqfuv127wTqTjaAhyIQyCog/
Q3/XfS3lsBmNiJ1KEdi4FaB752VErVkRbXl1umT+KJT61aTcorQInZhy13UfQRR6
Juffn/cWkDmSOmWwhPGCq/eZL1ozKnz/hvzupmUELvk7j17vuEvIE2v92Hg3aia4
dpO4+yMHCIrWYNcmlOthPOq2S6zeL2trCPUbQjlJDWPHaiUCAwEAAaOBojCBnzAJ
BgNVHRMEAjAAMB0GA1UdDgQWBBQjPVg+1RgFOK5SYid9WQlC+Nz4ZTBRBgNVHSME
SjBIgBSZMUMh5gC/FVBbmfDe1v/ilVe/aaEapBgwFjEUMBIGA1UEAwwLdGVhbTM0
NS1uZXSCFEeW9HgrL87VyywIOO0B1NL8DmftMBMGA1UdJQQMMAoGCCsGAQUFBwMC
MAsGA1UdDwQEAwIHgDANBgkqhkiG9w0BAQsFAAOCAQEAOlVD1j/RhGLemp0fJO+w
KoDFVIy2t7I//aDwu3Lz7Imf03HAQ/y52OVbuS7oQdcF0L4B8sYuvIiwpXCy7srQ
swpArjqA/x06SwnTd7jY2CsNGlnpIpea0jRf70QkLjwObDvc1DZCZpRv1Dk98QhI
3EDCjB3kH0ChzJPL/sOsM93juOVv4fE/spty17buTqkTlNrPptF91h4KnptVkdCR
4bX02WYsDx/yhoH84rEhqyafINnVzER2xM0pKthY/9eaGApTxb2/S6yP1M0ieDde
WYqDoWK4vWShyXLzZw31Y4g8usY+Vyxr8h0vBaziaReuKhb0qL2Plh1FTkBv5d+5
LQ==
-----END CERTIFICATE-----
