Certificate:
    Data:
        Version: 3 (0x2)
        Serial Number:
            e8:5f:49:d8:dc:04:ce:7f:62:99:d1:03:87:58:4d:02
        Signature Algorithm: sha256WithRSAEncryption
        Issuer: CN=team390-net
        Validity
            Not Before: Nov  4 11:36:15 2023 GMT
            Not After : Oct 19 11:36:15 2026 GMT
        Subject: CN=team390-server
        Subject Public Key Info:
            Public Key Algorithm: rsaEncryption
                Public-Key: (2048 bit)
                Modulus:
                    00:d4:37:2a:59:e7:a1:d1:f2:02:d4:74:34:fe:2f:
                    0e:37:a5:01:9e:82:2d:c8:ed:02:5a:b7:da:a9:50:
                    43:20:88:64:bb:38:3f:7d:d1:3a:9d:ae:97:ea:1a:
                    25:b4:65:eb:36:0b:6f:33:b8:ea:b5:bd:8e:45:33:
                    b5:99:58:7e:1a:bc:0e:3c:f0:53:97:38:b7:b8:26:
                    32:5b:3a:94:f9:83:1a:3b:30:f1:9a:e0:df:3f:72:
                    b3:bd:52:3d:44:14:a7:a9:e0:02:b0:26:35:b6:23:
                    b5:14:fe:44:be:3f:8e:9a:86:1b:2d:6e:d1:0d:a8:
                    c0:92:51:c5:d0:dc:a2:67:b9:12:b9:38:62:3d:31:
                    63:39:62:07:06:21:47:b3:72:74:ed:8e:99:99:9a:
                    5a:a7:56:5d:32:85:a2:77:56:e4:c8:5c:a5:60:5b:
                    62:d8:1d:50:5e:50:5a:c5:03:d6:99:16:14:9c:e3:
                    d6:e5:19:b5:65:57:bc:9f:ec:da:87:66:2f:17:be:
                    09:3a:3c:53:75:f0:db:0f:0d:29:9d:d1:21:cc:72:
                    e9:ee:52:8d:18:e8:47:94:1e:7e:69:b7:4c:fc:8c:
                    1e:22:1b:5c:fb:2d:40:17:3d:01:a5:17:82:31:f3:
                    6f:c5:85:e6:71:e8:58:fa:25:0b:8d:0d:b8:5d:54:
                    74:43
                Exponent: 65537 (0x10001)
        X509v3 extensions:
            X509v3 Basic Constraints: 
                CA:FALSE
            X509v3 Subject Key Identifier: 
                1B:0D:1F:92:5B:ED:E3:D9:E2:00:9C:C9:BF:A6:EA:30:73:FD:3A:38
            X509v3 Authority Key Identifier: 
                keyid:A5:D9:1D:3F:C2:DC:AE:FF:28:26:CC:82:E2:29:C5:2C:1C:29:C6:CD
                DirName:/CN=team390-net
                serial:76:A3:20:61:D8:B6:FE:06:3A:B0:23:7C:8B:85:18:D0:E5:22:0F:CA
            X509v3 Extended Key Usage: 
                TLS Web Server Authentication
            X509v3 Key Usage: 
                Digital Signature, Key Encipherment
            X509v3 Subject Alternative Name: 
                DNS:team390-server
    Signature Algorithm: sha256WithRSAEncryption
    Signature Value:
        61:eb:5a:f7:66:48:1c:74:b7:7e:51:9c:c0:b1:47:bd:8a:cf:
        00:db:28:7c:af:15:9c:68:c0:30:3b:54:b2:47:78:05:86:86:
        df:71:6b:48:13:9c:0d:4a:2b:d9:7a:16:f5:12:b1:b8:db:8f:
        a7:05:25:27:e6:b4:80:2e:e4:2d:09:50:09:98:b4:41:d2:f2:
        33:72:57:d7:fa:bc:74:1b:95:22:eb:5e:11:d1:c8:90:f4:45:
        58:df:f7:c0:5e:1b:e2:85:d1:34:55:b6:1e:90:96:1d:f9:78:
        21:17:bd:ab:71:b8:2a:ed:29:d5:5d:ce:e8:b7:40:54:4c:5f:
        39:58:14:a2:0e:6c:ad:99:29:29:5a:77:ca:a0:f7:b3:ef:7e:
        bb:0b:6c:96:2c:34:93:df:b9:aa:87:f5:d9:fa:df:14:79:05:
        15:24:b8:42:e2:ca:92:b3:51:03:d2:e6:f5:bd:45:d2:f5:32:
        02:9d:73:c1:8f:07:d4:ee:45:db:d8:31:56:b5:ef:32:24:c3:
        99:b0:6c:d8:8d:4a:d2:c4:60:b3:51:c0:59:89:83:3d:9b:81:
        82:52:79:af:24:94:dd:4a:b3:f5:37:77:4b:22:2b:22:9b:14:
        9e:e8:17:ff:63:f2:09:f1:4a:0a:8b:e9:69:83:73:b0:ae:5c:
        66:23:32:f5
-----BEGIN CERTIFICATE-----
MIIDeDCCAmCgAwIBAgIRAOhfSdjcBM5/YpnRA4dYTQIwDQYJKoZIhvcNAQELBQAw
FjEUMBIGA1UEAwwLdGVhbTM5MC1uZXQwHhcNMjMxMTA0MTEzNjE1WhcNMjYxMDE5
MTEzNjE1WjAZMRcwFQYDVQQDDA50ZWFtMzkwLXNlcnZlcjCCASIwDQYJKoZIhvcN
AQEBBQADggEPADCCAQoCggEBANQ3KlnnodHyAtR0NP4vDjelAZ6CLcjtAlq32qlQ
QyCIZLs4P33ROp2ul+oaJbRl6zYLbzO46rW9jkUztZlYfhq8DjzwU5c4t7gmMls6
lPmDGjsw8Zrg3z9ys71SPUQUp6ngArAmNbYjtRT+RL4/jpqGGy1u0Q2owJJRxdDc
ome5Erk4Yj0xYzliBwYhR7NydO2OmZmaWqdWXTKFondW5MhcpWBbYtgdUF5QWsUD
1pkWFJzj1uUZtWVXvJ/s2odmLxe+CTo8U3Xw2w8NKZ3RIcxy6e5SjRjoR5Qefmm3
TPyMHiIbXPstQBc9AaUXgjHzb8WF5nHoWPolC40NuF1UdEMCAwEAAaOBvTCBujAJ
BgNVHRMEAjAAMB0GA1UdDgQWBBQbDR+SW+3j2eIAnMm/puowc/06ODBRBgNVHSME
SjBIgBSl2R0/wtyu/ygmzILiKcUsHCnGzaEapBgwFjEUMBIGA1UEAwwLdGVhbTM5
MC1uZXSCFHajIGHYtv4GOrAjfIuFGNDlIg/KMBMGA1UdJQQMMAoGCCsGAQUFBwMB
MAsGA1UdDwQEAwIFoDAZBgNVHREEEjAQgg50ZWFtMzkwLXNlcnZlcjANBgkqhkiG
9w0BAQsFAAOCAQEAYeta92ZIHHS3flGcwLFHvYrPANsofK8VnGjAMDtUskd4BYaG
33FrSBOcDUor2XoW9RKxuNuPpwUlJ+a0gC7kLQlQCZi0QdLyM3JX1/q8dBuVIute
EdHIkPRFWN/3wF4b4oXRNFW2HpCWHfl4IRe9q3G4Ku0p1V3O6LdAVExfOVgUog5s
rZkpKVp3yqD3s+9+uwtsliw0k9+5qof12frfFHkFFSS4QuLKkrNRA9Lm9b1F0vUy
Ap1zwY8H1O5F29gxVrXvMiTDmbBs2I1K0sRgs1HAWYmDPZuBglJ5rySU3Uqz9Td3
SyIrIpsUnugX/2PyCfFKCovpaYNzsK5cZiMy9Q==
-----END CERTIFICATE-----
