Certificate:
    Data:
        Version: 3 (0x2)
        Serial Number:
            f3:7c:72:8f:ba:b0:4e:1f:7f:ee:e6:f9:c0:1e:30:ae
        Signature Algorithm: sha256WithRSAEncryption
        Issuer: CN=team390-net
        Validity
            Not Before: Nov  4 11:36:15 2023 GMT
            Not After : Oct 19 11:36:15 2026 GMT
        Subject: CN=team390-client
        Subject Public Key Info:
            Public Key Algorithm: rsaEncryption
                Public-Key: (2048 bit)
                Modulus:
                    00:db:3a:6f:83:5a:12:3c:71:b9:93:82:75:9d:17:
                    ba:f3:c9:ba:02:55:00:88:56:e4:f2:a9:6f:85:4e:
                    23:8b:29:6b:fa:bb:45:9c:70:1f:fc:7f:df:9f:9b:
                    ab:a0:1f:53:ff:a5:c1:01:d4:c7:2e:c0:a4:33:30:
                    e9:52:4e:55:4d:d2:d5:00:e9:ac:43:29:50:f0:e7:
                    22:28:a8:42:1a:1f:5a:d3:1b:65:a3:d4:e0:5f:7e:
                    1a:e6:9b:ad:07:f2:e3:85:a9:dc:33:77:a1:b4:b8:
                    c4:21:ef:66:6f:ec:c8:a5:27:de:b4:dc:a6:2f:03:
                    88:3a:ab:dc:0a:da:45:08:b2:5b:5a:c4:2c:e7:c2:
                    16:8e:87:16:1b:f9:68:2d:55:ec:91:3d:4a:49:ff:
                    26:51:dd:fe:ae:ba:58:53:71:78:22:77:11:5e:ea:
                    08:81:05:6f:b6:7d:7e:78:35:35:87:f6:ac:42:55:
                    4b:c1:ce:d2:5d:db:9d:9a:22:a8:d3:56:7d:80:25:
                    20:29:fe:da:76:f2:28:03:31:54:a1:9a:bf:b7:5a:
                    48:2d:dd:34:59:8f:dd:51:2e:18:89:e2:49:6f:65:
                    1d:30:b1:f4:69:3f:68:47:ae:f4:78:fe:be:0c:08:
                    84:4c:df:a4:48:0c:93:5a:b6:6c:b7:79:96:61:19:
                    03:3d
                Exponent: 65537 (0x10001)
        X509v3 extensions:
            X509v3 Basic Constraints: 
                CA:FALSE
            X509v3 Subject Key Identifier: 
                6B:74:98:4A:FE:EE:47:F7:C2:DE:26:EF:CF:D7:0B:2B:8F:C6:B2:31
            X509v3 Authority Key Identifier: 
                keyid:A5:D9:1D:3F:C2:DC:AE:FF:28:26:CC:82:E2:29:C5:2C:1C:29:C6:CD
                DirName:/CN=team390-net
                serial:76:A3:20:61:D8:B6:FE:06:3A:B0:23:7C:8B:85:18:D0:E5:22:0F:CA
            X509v3 Extended Key Usage: 
                TLS Web Client Authentication
            X509v3 Key Usage: 
                Digital Signature
    Signature Algorithm: sha256WithRSAEncryption
    Signature Value:
        4b:cc:f2:32:33:f1:68:19:fc:d2:90:21:a4:93:d1:b2:17:1d:
        dd:f7:19:15:77:b8:8b:d3:f7:35:46:14:00:c7:e3:81:1c:4d:
        6b:ea:e5:4e:db:22:2c:cc:fb:31:76:5c:81:d1:df:09:6b:cc:
        9a:02:95:f7:c7:48:3b:fa:97:4c:1d:25:aa:b9:85:7e:1d:00:
        1c:46:71:95:d4:50:0d:a9:a8:f4:c9:fd:55:7a:68:0a:12:d5:
        d2:20:db:1c:83:b1:5c:89:12:dd:a8:40:45:35:2f:78:71:54:
        b7:a8:d4:ca:5e:d6:fb:9c:63:d3:a8:17:1a:23:dd:7f:93:13:
        d1:b4:8e:ef:cc:86:9a:18:b9:8c:33:d0:f1:4b:27:cb:8b:d6:
        cf:b9:bc:4c:43:a6:5e:d1:35:d9:8a:53:d0:21:1a:7b:5e:e3:
        c9:3c:4a:d3:a4:70:ed:2e:dd:d5:b6:4a:29:43:e0:0e:65:82:
        d9:a5:01:89:d1:2c:db:b9:48:a7:e8:ce:ea:42:a6:03:6f:8e:
        a9:c1:be:67:be:0e:40:a8:3c:b7:05:38:1e:b2:54:a7:69:85:
        9b:d9:11:49:fe:3a:d0:10:bf:6a:e7:e2:ce:1b:e6:22:a5:d0:
        34:fc:71:09:af:e5:bf:86:ad:96:5f:2d:a0:e1:bc:d4:8e:fc:
        e3:2e:52:98
-----BEGIN CERTIFICATE-----
MIIDXTCCAkWgAwIBAgIRAPN8co+6sE4ff+7m+cAeMK4wDQYJKoZIhvcNAQELBQAw
FjEUMBIGA1UEAwwLdGVhbTM5MC1uZXQwHhcNMjMxMTA0MTEzNjE1WhcNMjYxMDE5
MTEzNjE1WjAZMRcwFQYDVQQDDA50ZWFtMzkwLWNsaWVudDCCASIwDQYJKoZIhvcN
AQEBBQADggEPADCCAQoCggEBANs6b4NaEjxxuZOCdZ0XuvPJugJVAIhW5PKpb4VO
I4spa/q7RZxwH/x/35+bq6AfU/+lwQHUxy7ApDMw6VJOVU3S1QDprEMpUPDnIiio
QhofWtMbZaPU4F9+GuabrQfy44Wp3DN3obS4xCHvZm/syKUn3rTcpi8DiDqr3Ara
RQiyW1rELOfCFo6HFhv5aC1V7JE9Skn/JlHd/q66WFNxeCJ3EV7qCIEFb7Z9fng1
NYf2rEJVS8HO0l3bnZoiqNNWfYAlICn+2nbyKAMxVKGav7daSC3dNFmP3VEuGIni
SW9lHTCx9Gk/aEeu9Hj+vgwIhEzfpEgMk1q2bLd5lmEZAz0CAwEAAaOBojCBnzAJ
BgNVHRMEAjAAMB0GA1UdDgQWBBRrdJhK/u5H98LeJu/P1wsrj8ayMTBRBgNVHSME
SjBIgBSl2R0/wtyu/ygmzILiKcUsHCnGzaEapBgwFjEUMBIGA1UEAwwLdGVhbTM5
MC1uZXSCFHajIGHYtv4GOrAjfIuFGNDlIg/KMBMGA1UdJQQMMAoGCCsGAQUFBwMC
MAsGA1UdDwQEAwIHgDANBgkqhkiG9w0BAQsFAAOCAQEAS8zyMjPxaBn80pAhpJPR
shcd3fcZFXe4i9P3NUYUAMfjgRxNa+rlTtsiLMz7MXZcgdHfCWvMmgKV98dIO/qX
TB0lqrmFfh0AHEZxldRQDamo9Mn9VXpoChLV0iDbHIOxXIkS3ahARTUveHFUt6jU
yl7W+5xj06gXGiPdf5MT0bSO78yGmhi5jDPQ8Usny4vWz7m8TEOmXtE12YpT0CEa
e17jyTxK06Rw7S7d1bZKKUPgDmWC2aUBidEs27lIp+jO6kKmA2+OqcG+Z74OQKg8
twU4HrJUp2mFm9kRSf460BC/aufizhvmIqXQNPxxCa/lv4atll8toOG81I784y5S
mA==
-----END CERTIFICATE-----
