Certificate:
    Data:
        Version: 3 (0x2)
        Serial Number:
            55:73:e3:5a:24:eb:d6:df:3a:e2:bb:ef:e0:39:7e:c9
        Signature Algorithm: sha256WithRSAEncryption
        Issuer: CN=team63-net
        Validity
            Not Before: Nov  4 10:41:28 2023 GMT
            Not After : Oct 19 10:41:28 2026 GMT
        Subject: CN=team63-client
        Subject Public Key Info:
            Public Key Algorithm: rsaEncryption
                Public-Key: (2048 bit)
                Modulus:
                    00:b1:5f:1a:24:a1:0a:79:a2:96:16:e4:83:0c:dc:
                    4d:fe:e4:0c:9a:e7:68:1a:ba:2f:cf:c7:ff:78:e2:
                    fa:ad:a0:d9:a0:ea:64:7d:a5:5a:66:45:6b:aa:48:
                    d1:d2:fd:5c:92:04:fa:ae:2a:72:24:af:6c:48:de:
                    27:2a:5b:0a:1c:fb:a1:ab:bc:86:86:07:f0:65:7a:
                    1a:45:9e:68:9c:53:b9:ca:de:da:50:23:a6:81:69:
                    3b:d8:56:a6:49:c2:27:ed:45:30:73:ab:fd:69:ce:
                    c7:68:2f:f2:11:b6:a4:06:e7:b0:39:bb:ad:dd:01:
                    33:d3:2e:7f:e2:70:98:1a:a9:bf:cb:ea:b8:bf:ba:
                    75:fb:bf:a2:4a:c6:43:16:41:9f:f0:7d:d8:7e:1f:
                    bd:f4:b0:be:6c:90:15:2d:a0:80:c0:29:29:6d:40:
                    70:ae:cc:93:5e:2d:df:b3:54:fa:8a:7d:76:79:33:
                    53:70:f3:2e:06:dd:4f:97:65:98:d7:24:ba:55:a8:
                    62:28:7f:63:4d:30:f7:df:8f:40:d2:b5:7d:93:9b:
                    8c:ca:a5:e5:45:f1:f5:d6:60:3f:a3:9e:c1:66:0f:
                    4d:24:64:9c:a5:ad:da:90:60:d6:71:55:73:7b:32:
                    c5:2b:d7:44:bc:eb:40:9e:a7:f6:f4:60:9b:0f:18:
                    cd:77
                Exponent: 65537 (0x10001)
        X509v3 extensions:
            X509v3 Basic Constraints: 
                CA:FALSE
            X509v3 Subject Key Identifier: 
                57:00:E4:E9:D5:31:8D:06:6E:87:5D:B4:64:81:7C:61:E7:88:9B:AF
            X509v3 Authority Key Identifier: 
                keyid:51:D9:75:49:DB:9B:A9:CF:47:25:3B:E0:21:F1:6B:A0:7E:E4:A2:48
                DirName:/CN=team63-net
                serial:2D:47:DC:A8:20:53:4D:C6:7F:CD:42:2C:2B:6B:7F:6F:2F:57:0B:3E
            X509v3 Extended Key Usage: 
                TLS Web Client Authentication
            X509v3 Key Usage: 
                Digital Signature
    Signature Algorithm: sha256WithRSAEncryption
    Signature Value:
        65:be:71:5e:cc:a8:6d:28:2b:d0:4a:c7:bb:02:21:b0:43:47:
        cc:e4:b4:cc:42:ee:ba:b0:30:d0:48:c7:d0:db:f4:d5:91:d7:
        3d:37:0a:4b:b5:e1:17:48:12:b6:7f:6d:c2:59:d3:a6:15:00:
        d5:a7:93:a7:80:84:38:3b:e6:04:76:e2:ab:fe:dd:ff:34:03:
        9d:ec:d1:55:e3:78:de:93:93:bb:0f:c2:b5:83:97:0e:df:0f:
        a2:6a:11:b2:ed:9b:3b:77:3f:98:c7:6d:a2:e7:7f:f7:5f:b4:
        b2:6b:a8:af:9f:f1:6f:97:62:f6:e2:eb:44:fa:1e:66:6e:2e:
        f0:ff:cc:2d:b6:38:eb:99:2b:3f:83:9c:9c:ce:a9:90:e5:e2:
        ec:e2:fd:a1:15:2e:fe:43:b4:51:1a:e1:a2:be:b0:ae:76:5d:
        0d:3d:7c:01:1b:f8:e7:db:13:95:b2:33:a8:84:24:e4:3b:c7:
        61:55:e4:c5:1f:f9:8b:f5:ff:f6:b7:d2:c5:b5:19:43:5d:97:
        a5:24:5a:eb:8e:f0:fa:d2:d3:80:aa:18:09:40:00:95:26:b3:
        96:b0:5a:db:53:ef:d0:72:be:ba:13:88:1d:67:30:eb:00:2c:
        0a:3a:1d:a5:88:45:43:c4:7f:79:5d:69:75:e5:d9:c7:b0:ca:
        54:fc:a8:a6
-----BEGIN CERTIFICATE-----
MIIDWTCCAkGgAwIBAgIQVXPjWiTr1t864rvv4Dl+yTANBgkqhkiG9w0BAQsFADAV
MRMwEQYDVQQDDAp0ZWFtNjMtbmV0MB4XDTIzMTEwNDEwNDEyOFoXDTI2MTAxOTEw
NDEyOFowGDEWMBQGA1UEAwwNdGVhbTYzLWNsaWVudDCCASIwDQYJKoZIhvcNAQEB
BQADggEPADCCAQoCggEBALFfGiShCnmilhbkgwzcTf7kDJrnaBq6L8/H/3ji+q2g
2aDqZH2lWmZFa6pI0dL9XJIE+q4qciSvbEjeJypbChz7oau8hoYH8GV6GkWeaJxT
ucre2lAjpoFpO9hWpknCJ+1FMHOr/WnOx2gv8hG2pAbnsDm7rd0BM9Muf+JwmBqp
v8vquL+6dfu/okrGQxZBn/B92H4fvfSwvmyQFS2ggMApKW1AcK7Mk14t37NU+op9
dnkzU3DzLgbdT5dlmNckulWoYih/Y00w99+PQNK1fZObjMql5UXx9dZgP6OewWYP
TSRknKWt2pBg1nFVc3syxSvXRLzrQJ6n9vRgmw8YzXcCAwEAAaOBoTCBnjAJBgNV
HRMEAjAAMB0GA1UdDgQWBBRXAOTp1TGNBm6HXbRkgXxh54ibrzBQBgNVHSMESTBH
gBRR2XVJ25upz0clO+Ah8WugfuSiSKEZpBcwFTETMBEGA1UEAwwKdGVhbTYzLW5l
dIIULUfcqCBTTcZ/zUIsK2t/by9XCz4wEwYDVR0lBAwwCgYIKwYBBQUHAwIwCwYD
VR0PBAQDAgeAMA0GCSqGSIb3DQEBCwUAA4IBAQBlvnFezKhtKCvQSse7AiGwQ0fM
5LTMQu66sDDQSMfQ2/TVkdc9NwpLteEXSBK2f23CWdOmFQDVp5OngIQ4O+YEduKr
/t3/NAOd7NFV43jek5O7D8K1g5cO3w+iahGy7Zs7dz+Yx22i53/3X7Sya6ivn/Fv
l2L24utE+h5mbi7w/8wttjjrmSs/g5yczqmQ5eLs4v2hFS7+Q7RRGuGivrCudl0N
PXwBG/jn2xOVsjOohCTkO8dhVeTFH/mL9f/2t9LFtRlDXZelJFrrjvD60tOAqhgJ
QACVJrOWsFrbU+/Qcr66E4gdZzDrACwKOh2liEVDxH95XWl15dnHsMpU/Kim
-----END CERTIFICATE-----
