Certificate:
    Data:
        Version: 3 (0x2)
        Serial Number:
            5a:62:a0:e7:25:81:03:71:22:81:9a:f6:18:3c:a7:7a
        Signature Algorithm: sha256WithRSAEncryption
        Issuer: CN=team63-net
        Validity
            Not Before: Nov  3 20:40:20 2023 GMT
            Not After : Oct 18 20:40:20 2026 GMT
        Subject: CN=team63-server
        Subject Public Key Info:
            Public Key Algorithm: rsaEncryption
                Public-Key: (2048 bit)
                Modulus:
                    00:96:f4:64:31:d5:35:12:10:c2:1b:b8:54:7e:fc:
                    ed:0c:82:e9:e0:70:56:21:d9:d3:ee:4d:5f:69:e3:
                    51:c3:ee:24:23:ae:97:58:5b:a1:30:54:5d:10:d4:
                    87:00:67:a7:4a:89:6d:9e:73:0e:87:84:99:69:ea:
                    6b:f0:09:04:cf:52:3d:45:e6:2e:96:04:d1:80:a8:
                    1e:83:04:66:6e:9d:70:9a:c6:1d:1f:0c:80:60:d1:
                    e2:03:78:d0:89:d4:b6:f0:d3:45:34:2e:a2:60:fd:
                    62:6e:3b:c7:f4:77:3a:bc:c5:b1:fe:73:ae:f2:8d:
                    4f:ef:62:d5:ea:9a:c2:4a:af:f1:e7:c8:b3:70:f2:
                    f1:a5:aa:65:02:d8:c3:30:81:46:d8:ca:be:36:b0:
                    01:ef:95:85:04:13:1c:01:ed:c4:64:d1:b9:da:93:
                    c0:f3:f3:43:6b:f8:22:41:4e:f2:0e:08:d5:75:87:
                    a9:8f:d4:c5:b2:c9:b7:83:44:0c:3c:11:6d:af:19:
                    7a:f1:2c:fc:62:d7:62:f6:cd:5f:2f:7f:be:22:d7:
                    d5:82:6c:c1:a9:76:dd:00:aa:15:f2:13:1c:d7:9a:
                    b7:32:00:a1:a6:92:0a:d6:95:59:14:de:4b:04:b3:
                    ae:ae:41:6a:10:d6:1a:d7:45:70:1b:2a:c1:0e:34:
                    fe:63
                Exponent: 65537 (0x10001)
        X509v3 extensions:
            X509v3 Basic Constraints: 
                CA:FALSE
            X509v3 Subject Key Identifier: 
                B6:D6:05:B6:76:51:81:6E:C7:95:BD:11:BE:A8:90:C3:85:A7:C8:C6
            X509v3 Authority Key Identifier: 
                keyid:D0:A6:19:4E:5D:5C:85:46:23:2D:83:52:F7:CB:80:CC:44:AE:8C:85
                DirName:/CN=team63-net
                serial:24:27:2B:4D:17:13:D2:B6:6D:A0:54:18:29:B3:23:F1:2E:A3:F3:7D
            X509v3 Extended Key Usage: 
                TLS Web Server Authentication
            X509v3 Key Usage: 
                Digital Signature, Key Encipherment
            X509v3 Subject Alternative Name: 
                DNS:team63-server
    Signature Algorithm: sha256WithRSAEncryption
    Signature Value:
        63:d6:0c:df:4a:26:f9:4e:70:e4:9e:07:30:77:1a:4d:f6:af:
        12:35:ea:68:cc:15:39:81:9a:91:57:04:a9:13:9d:49:c5:b9:
        3d:96:d1:22:49:5c:61:69:a9:d2:b1:55:86:36:4b:a1:6a:57:
        ea:39:7a:bd:f0:b8:ed:ca:52:9a:c2:47:4d:84:44:62:90:f2:
        e7:7b:19:c5:b6:0f:2d:a0:60:f8:8f:fa:d3:c9:89:f1:c1:04:
        79:86:38:3f:e6:4b:79:aa:17:84:a2:f8:6d:ef:5b:09:bd:05:
        3a:3a:a3:51:42:38:28:9d:f7:a4:09:9f:7b:fa:4f:41:60:14:
        3f:49:a0:82:e6:12:9a:87:97:08:24:9f:f0:53:a2:7c:9a:00:
        39:cf:d3:ea:49:97:91:9e:78:70:43:84:30:f1:b3:03:4e:26:
        5e:ae:09:65:97:81:56:e8:b7:40:e2:b5:36:d1:9c:1d:56:ff:
        a7:2f:5e:62:c3:ea:0b:35:57:58:46:d8:08:8d:59:04:61:de:
        4f:a5:70:90:15:a8:3a:56:33:9b:0f:22:74:88:a0:3f:1a:38:
        29:af:e4:99:9a:2b:82:d6:00:a8:bb:61:e3:10:22:f3:45:ed:
        76:07:a0:62:af:39:c9:3f:42:61:a9:93:e6:cf:b3:06:17:0b:
        88:01:98:82
-----BEGIN CERTIFICATE-----
MIIDczCCAlugAwIBAgIQWmKg5yWBA3EigZr2GDynejANBgkqhkiG9w0BAQsFADAV
MRMwEQYDVQQDDAp0ZWFtNjMtbmV0MB4XDTIzMTEwMzIwNDAyMFoXDTI2MTAxODIw
NDAyMFowGDEWMBQGA1UEAwwNdGVhbTYzLXNlcnZlcjCCASIwDQYJKoZIhvcNAQEB
BQADggEPADCCAQoCggEBAJb0ZDHVNRIQwhu4VH787QyC6eBwViHZ0+5NX2njUcPu
JCOul1hboTBUXRDUhwBnp0qJbZ5zDoeEmWnqa/AJBM9SPUXmLpYE0YCoHoMEZm6d
cJrGHR8MgGDR4gN40InUtvDTRTQuomD9Ym47x/R3OrzFsf5zrvKNT+9i1eqawkqv
8efIs3Dy8aWqZQLYwzCBRtjKvjawAe+VhQQTHAHtxGTRudqTwPPzQ2v4IkFO8g4I
1XWHqY/UxbLJt4NEDDwRba8ZevEs/GLXYvbNXy9/viLX1YJswal23QCqFfITHNea
tzIAoaaSCtaVWRTeSwSzrq5BahDWGtdFcBsqwQ40/mMCAwEAAaOBuzCBuDAJBgNV
HRMEAjAAMB0GA1UdDgQWBBS21gW2dlGBbseVvRG+qJDDhafIxjBQBgNVHSMESTBH
gBTQphlOXVyFRiMtg1L3y4DMRK6MhaEZpBcwFTETMBEGA1UEAwwKdGVhbTYzLW5l
dIIUJCcrTRcT0rZtoFQYKbMj8S6j830wEwYDVR0lBAwwCgYIKwYBBQUHAwEwCwYD
VR0PBAQDAgWgMBgGA1UdEQQRMA+CDXRlYW02My1zZXJ2ZXIwDQYJKoZIhvcNAQEL
BQADggEBAGPWDN9KJvlOcOSeBzB3Gk32rxI16mjMFTmBmpFXBKkTnUnFuT2W0SJJ
XGFpqdKxVYY2S6FqV+o5er3wuO3KUprCR02ERGKQ8ud7GcW2Dy2gYPiP+tPJifHB
BHmGOD/mS3mqF4Si+G3vWwm9BTo6o1FCOCid96QJn3v6T0FgFD9JoILmEpqHlwgk
n/BTonyaADnP0+pJl5GeeHBDhDDxswNOJl6uCWWXgVbot0DitTbRnB1W/6cvXmLD
6gs1V1hG2AiNWQRh3k+lcJAVqDpWM5sPInSIoD8aOCmv5JmaK4LWAKi7YeMQIvNF
7XYHoGKvOck/QmGpk+bPswYXC4gBmII=
-----END CERTIFICATE-----
