Certificate:
    Data:
        Version: 3 (0x2)
        Serial Number:
            5d:93:6e:d5:97:71:ed:0e:fe:20:99:ce:49:72:11:e7
        Signature Algorithm: sha256WithRSAEncryption
        Issuer: CN=team63-net
        Validity
            Not Before: Nov  4 11:28:33 2023 GMT
            Not After : Oct 19 11:28:33 2026 GMT
        Subject: CN=team63-client
        Subject Public Key Info:
            Public Key Algorithm: rsaEncryption
                Public-Key: (2048 bit)
                Modulus:
                    00:bf:e9:b0:e5:6c:ca:21:7f:89:00:a4:d4:73:76:
                    5b:43:c7:cf:fc:6c:e4:7d:db:2d:86:9a:11:ee:5f:
                    13:f0:31:3b:67:04:23:fd:ae:34:3d:f8:c1:94:ab:
                    5c:a2:0b:18:77:64:b1:89:49:96:f0:c0:dd:c7:b8:
                    86:0f:72:12:c0:b4:d7:a6:0b:89:b0:ec:10:03:ea:
                    cf:83:ea:4c:78:e1:10:e9:60:c5:18:2f:75:73:f5:
                    82:a3:bc:e9:83:fc:46:60:45:84:ce:ca:c0:80:da:
                    20:f9:e1:d3:38:e1:08:c7:27:9c:19:31:2a:84:ff:
                    46:4f:72:a2:fe:3c:38:72:f8:6e:de:b7:f9:03:bd:
                    15:b7:f5:1b:63:ce:fc:50:61:76:93:41:79:2b:ab:
                    e0:7b:ea:b2:29:84:ca:f5:1c:48:66:84:98:e1:30:
                    3e:67:e9:38:9c:40:4e:08:97:38:de:ee:02:b9:81:
                    f3:6d:5b:78:e4:a7:a5:2e:60:31:00:53:f7:34:3b:
                    93:0d:7f:4d:3b:2c:8f:b6:ac:2d:9c:1f:99:a6:da:
                    05:f9:b1:0b:a4:54:92:47:82:44:f5:50:a8:5a:92:
                    05:24:b1:e1:8a:3c:04:ec:d8:76:44:3d:49:38:4f:
                    bc:32:1f:ef:dd:85:52:7a:b3:e2:ac:98:c7:a1:fb:
                    f1:9b
                Exponent: 65537 (0x10001)
        X509v3 extensions:
            X509v3 Basic Constraints: 
                CA:FALSE
            X509v3 Subject Key Identifier: 
                67:6F:AC:8D:EB:8B:FD:CC:04:FE:E9:91:5A:04:E2:2E:57:21:5B:23
            X509v3 Authority Key Identifier: 
                keyid:69:F6:7D:88:DE:C1:B0:43:BA:89:20:61:0B:DD:0E:15:2F:EF:FF:7D
                DirName:/CN=team63-net
                serial:1A:1E:9E:CE:3A:B6:F8:48:39:BD:20:CA:9D:02:9C:EA:A7:AE:45:49
            X509v3 Extended Key Usage: 
                TLS Web Client Authentication
            X509v3 Key Usage: 
                Digital Signature
    Signature Algorithm: sha256WithRSAEncryption
    Signature Value:
        86:d5:80:d3:27:09:bd:28:e6:7c:50:10:1f:d2:54:de:0c:79:
        8e:a3:97:85:9e:e6:83:c9:b2:92:be:62:07:fd:80:1b:05:4f:
        6a:08:8f:b4:d4:bf:0e:72:66:28:0b:22:48:11:43:22:f5:7a:
        9d:92:fa:67:8b:9d:53:64:96:25:54:99:57:ca:0e:28:32:a9:
        33:6f:5e:97:f0:b8:bb:ca:6a:25:1f:07:da:66:d9:6c:a7:81:
        ce:e4:2c:90:9d:ba:bc:95:18:2e:46:98:69:e0:aa:c9:26:f6:
        3a:09:10:77:cb:11:68:46:ec:75:ac:83:4d:a0:72:27:bd:7e:
        1d:0a:17:f3:4f:fd:28:c9:63:53:21:96:2b:3c:42:57:cc:4b:
        5f:0e:78:d3:55:16:cc:03:f1:71:6a:16:30:7e:cf:0a:31:dd:
        90:20:04:d1:ea:d5:c1:a1:38:2a:46:5a:72:db:69:92:fa:05:
        8a:7f:d3:97:18:3e:6e:64:30:8d:8c:dd:dc:e6:5f:d4:a0:30:
        22:28:7a:8b:cb:8e:c8:1c:c2:9f:55:c2:98:ee:6e:3e:fd:05:
        70:80:1c:c0:90:0a:4d:20:f7:fd:5c:d0:bd:b2:ab:9e:5e:9e:
        8e:0f:ee:a7:ca:ac:62:a5:c2:45:27:e9:fa:24:12:a4:2e:58:
        81:77:ae:1d
-----BEGIN CERTIFICATE-----
MIIDWTCCAkGgAwIBAgIQXZNu1Zdx7Q7+IJnOSXIR5zANBgkqhkiG9w0BAQsFADAV
MRMwEQYDVQQDDAp0ZWFtNjMtbmV0MB4XDTIzMTEwNDExMjgzM1oXDTI2MTAxOTEx
MjgzM1owGDEWMBQGA1UEAwwNdGVhbTYzLWNsaWVudDCCASIwDQYJKoZIhvcNAQEB
BQADggEPADCCAQoCggEBAL/psOVsyiF/iQCk1HN2W0PHz/xs5H3bLYaaEe5fE/Ax
O2cEI/2uND34wZSrXKILGHdksYlJlvDA3ce4hg9yEsC016YLibDsEAPqz4PqTHjh
EOlgxRgvdXP1gqO86YP8RmBFhM7KwIDaIPnh0zjhCMcnnBkxKoT/Rk9yov48OHL4
bt63+QO9Fbf1G2PO/FBhdpNBeSur4HvqsimEyvUcSGaEmOEwPmfpOJxATgiXON7u
ArmB821beOSnpS5gMQBT9zQ7kw1/TTssj7asLZwfmabaBfmxC6RUkkeCRPVQqFqS
BSSx4Yo8BOzYdkQ9SThPvDIf792FUnqz4qyYx6H78ZsCAwEAAaOBoTCBnjAJBgNV
HRMEAjAAMB0GA1UdDgQWBBRnb6yN64v9zAT+6ZFaBOIuVyFbIzBQBgNVHSMESTBH
gBRp9n2I3sGwQ7qJIGEL3Q4VL+//faEZpBcwFTETMBEGA1UEAwwKdGVhbTYzLW5l
dIIUGh6ezjq2+Eg5vSDKnQKc6qeuRUkwEwYDVR0lBAwwCgYIKwYBBQUHAwIwCwYD
VR0PBAQDAgeAMA0GCSqGSIb3DQEBCwUAA4IBAQCG1YDTJwm9KOZ8UBAf0lTeDHmO
o5eFnuaDybKSvmIH/YAbBU9qCI+01L8OcmYoCyJIEUMi9Xqdkvpni51TZJYlVJlX
yg4oMqkzb16X8Li7ymolHwfaZtlsp4HO5CyQnbq8lRguRphp4KrJJvY6CRB3yxFo
Rux1rINNoHInvX4dChfzT/0oyWNTIZYrPEJXzEtfDnjTVRbMA/FxahYwfs8KMd2Q
IATR6tXBoTgqRlpy22mS+gWKf9OXGD5uZDCNjN3c5l/UoDAiKHqLy47IHMKfVcKY
7m4+/QVwgBzAkApNIPf9XNC9squeXp6OD+6nyqxipcJFJ+n6JBKkLliBd64d
-----END CERTIFICATE-----
