Certificate:
    Data:
        Version: 3 (0x2)
        Serial Number:
            c7:0d:7f:4a:3a:7b:ce:7b:74:ed:c2:b8:e3:5d:b4:4b
        Signature Algorithm: sha256WithRSAEncryption
        Issuer: CN=team63-net
        Validity
            Not Before: Nov  4 10:41:28 2023 GMT
            Not After : Oct 19 10:41:28 2026 GMT
        Subject: CN=team63-server
        Subject Public Key Info:
            Public Key Algorithm: rsaEncryption
                Public-Key: (2048 bit)
                Modulus:
                    00:d7:da:5e:82:27:93:7b:ca:7e:90:73:0d:32:30:
                    57:7c:20:db:05:c8:38:27:cf:7e:95:d4:4e:31:de:
                    cf:1d:30:5d:13:c3:56:58:dc:7b:e1:8d:3a:8a:9b:
                    2c:00:8e:6a:3c:9d:55:3d:91:cc:50:8d:6d:11:dd:
                    a7:14:68:3b:a5:7f:1e:53:88:31:6a:11:96:09:32:
                    47:64:f7:10:4a:03:52:3e:2e:2f:71:9f:e4:ff:da:
                    94:cc:a3:41:e3:7c:0d:f5:ad:f3:ff:be:f6:12:03:
                    4d:45:42:7f:08:ad:10:d4:f4:10:85:6c:b5:32:d5:
                    fa:94:cc:aa:3d:7b:2f:c7:81:e9:95:ba:a7:0e:da:
                    a6:36:ce:fd:12:67:7f:c6:13:95:fb:2e:1c:ea:ff:
                    ab:ab:70:71:a1:2a:1b:ed:0c:3a:41:ff:bd:15:c6:
                    42:e8:e9:09:5b:e1:d6:d0:6e:89:76:31:0c:0f:a5:
                    c4:9a:ef:3d:31:19:f3:2e:76:bb:33:42:d5:28:3b:
                    5c:38:a8:b7:63:b2:e6:27:03:7f:9f:71:a4:ae:3f:
                    75:66:8a:c3:44:a0:f6:d0:97:be:e7:ce:14:4c:82:
                    90:96:76:dc:7d:ba:23:27:d2:35:3d:a7:7d:fe:2c:
                    bf:e0:e2:ad:f7:98:50:b2:b8:ba:71:1a:42:de:50:
                    48:93
                Exponent: 65537 (0x10001)
        X509v3 extensions:
            X509v3 Basic Constraints: 
                CA:FALSE
            X509v3 Subject Key Identifier: 
                9D:ED:A5:64:D2:98:2E:72:5D:BD:34:FA:71:7D:0A:5F:AF:D0:08:2D
            X509v3 Authority Key Identifier: 
                keyid:51:D9:75:49:DB:9B:A9:CF:47:25:3B:E0:21:F1:6B:A0:7E:E4:A2:48
                DirName:/CN=team63-net
                serial:2D:47:DC:A8:20:53:4D:C6:7F:CD:42:2C:2B:6B:7F:6F:2F:57:0B:3E
            X509v3 Extended Key Usage: 
                TLS Web Server Authentication
            X509v3 Key Usage: 
                Digital Signature, Key Encipherment
            X509v3 Subject Alternative Name: 
                DNS:team63-server
    Signature Algorithm: sha256WithRSAEncryption
    Signature Value:
        60:ca:5c:61:a9:0c:93:91:cd:b7:de:1e:21:28:36:ad:7e:a4:
        d4:1a:eb:67:c6:6e:4f:75:b1:81:9b:ab:0f:84:68:b1:ce:7f:
        57:f8:9b:d0:84:29:09:77:18:2b:a3:41:05:6b:0e:1a:d0:94:
        5d:14:e5:00:74:7b:01:a6:1c:3a:04:b8:47:dc:df:d0:f9:a6:
        21:58:aa:b0:06:aa:d7:0c:ca:c3:cf:1b:3f:ea:99:4b:25:e7:
        87:62:58:77:73:bc:7c:e8:94:14:87:98:85:a4:2a:63:63:59:
        86:c9:5c:73:17:f6:ab:87:1d:90:46:6a:15:ca:e3:73:99:5c:
        a8:aa:07:69:0d:de:e9:70:e1:ef:ca:5e:9e:cb:bb:2c:3d:36:
        a0:4d:00:43:6e:46:14:3e:b9:bf:b2:2a:44:c9:f9:3d:bd:c8:
        4b:fe:b7:da:f9:01:42:94:39:63:75:b0:f8:9d:92:74:65:fe:
        be:80:4e:b8:a8:e4:2d:db:c8:76:bf:57:15:90:60:7e:f1:f3:
        ef:c5:be:50:34:6f:3a:1c:71:71:70:fb:bb:05:f3:91:05:b8:
        9d:60:e3:53:84:3c:f7:1d:12:7f:d4:3c:a2:8e:43:e1:25:7e:
        f8:22:28:f1:07:49:67:2b:19:c4:21:e2:59:f7:1d:1b:63:58:
        41:79:ab:15
-----BEGIN CERTIFICATE-----
MIIDdDCCAlygAwIBAgIRAMcNf0o6e857dO3CuONdtEswDQYJKoZIhvcNAQELBQAw
FTETMBEGA1UEAwwKdGVhbTYzLW5ldDAeFw0yMzExMDQxMDQxMjhaFw0yNjEwMTkx
MDQxMjhaMBgxFjAUBgNVBAMMDXRlYW02My1zZXJ2ZXIwggEiMA0GCSqGSIb3DQEB
AQUAA4IBDwAwggEKAoIBAQDX2l6CJ5N7yn6Qcw0yMFd8INsFyDgnz36V1E4x3s8d
MF0Tw1ZY3HvhjTqKmywAjmo8nVU9kcxQjW0R3acUaDulfx5TiDFqEZYJMkdk9xBK
A1I+Li9xn+T/2pTMo0HjfA31rfP/vvYSA01FQn8IrRDU9BCFbLUy1fqUzKo9ey/H
gemVuqcO2qY2zv0SZ3/GE5X7Lhzq/6urcHGhKhvtDDpB/70VxkLo6Qlb4dbQbol2
MQwPpcSa7z0xGfMudrszQtUoO1w4qLdjsuYnA3+fcaSuP3VmisNEoPbQl77nzhRM
gpCWdtx9uiMn0jU9p33+LL/g4q33mFCyuLpxGkLeUEiTAgMBAAGjgbswgbgwCQYD
VR0TBAIwADAdBgNVHQ4EFgQUne2lZNKYLnJdvTT6cX0KX6/QCC0wUAYDVR0jBEkw
R4AUUdl1Sdubqc9HJTvgIfFroH7kokihGaQXMBUxEzARBgNVBAMMCnRlYW02My1u
ZXSCFC1H3KggU03Gf81CLCtrf28vVws+MBMGA1UdJQQMMAoGCCsGAQUFBwMBMAsG
A1UdDwQEAwIFoDAYBgNVHREEETAPgg10ZWFtNjMtc2VydmVyMA0GCSqGSIb3DQEB
CwUAA4IBAQBgylxhqQyTkc233h4hKDatfqTUGutnxm5PdbGBm6sPhGixzn9X+JvQ
hCkJdxgro0EFaw4a0JRdFOUAdHsBphw6BLhH3N/Q+aYhWKqwBqrXDMrDzxs/6plL
JeeHYlh3c7x86JQUh5iFpCpjY1mGyVxzF/arhx2QRmoVyuNzmVyoqgdpDd7pcOHv
yl6ey7ssPTagTQBDbkYUPrm/sipEyfk9vchL/rfa+QFClDljdbD4nZJ0Zf6+gE64
qOQt28h2v1cVkGB+8fPvxb5QNG86HHFxcPu7BfORBbidYONThDz3HRJ/1DyijkPh
JX74IijxB0lnKxnEIeJZ9x0bY1hBeasV
-----END CERTIFICATE-----
