Certificate:
    Data:
        Version: 3 (0x2)
        Serial Number:
            66:66:77:2b:13:45:f1:ae:f9:01:b4:2b:62:e2:05:09
        Signature Algorithm: sha256WithRSAEncryption
        Issuer: CN=team191-net
        Validity
            Not Before: Nov  4 11:31:23 2023 GMT
            Not After : Oct 19 11:31:23 2026 GMT
        Subject: CN=team191-client
        Subject Public Key Info:
            Public Key Algorithm: rsaEncryption
                Public-Key: (2048 bit)
                Modulus:
                    00:a3:06:bc:0f:c4:9e:21:0b:94:d2:00:5a:3a:9c:
                    50:ec:ca:f8:92:1d:c4:0d:be:c3:47:62:d7:e2:ad:
                    6d:cd:87:f7:17:0f:74:d5:9d:17:4e:cb:8f:4f:14:
                    c0:12:c3:06:c7:29:7d:2f:dc:10:9f:ed:73:68:54:
                    09:f0:d8:c3:d0:7e:43:8d:ca:77:cb:0e:b4:84:24:
                    b5:0e:9d:b5:5b:4f:39:5c:eb:81:9c:64:12:69:1f:
                    a8:f2:d2:d0:af:c3:84:f5:b4:7b:5a:33:07:da:85:
                    89:86:60:08:ce:30:14:67:17:20:60:19:2d:1e:54:
                    65:b3:92:f1:57:50:fe:01:92:e0:6b:5c:ab:15:f6:
                    f1:17:84:e9:c7:9e:4e:0c:fe:af:b4:d6:61:44:b7:
                    db:13:d1:9a:12:35:47:09:95:fe:31:b8:49:b3:64:
                    20:89:b7:d3:4c:45:d9:7c:00:6d:43:f5:56:b3:bc:
                    3d:75:83:9f:f7:95:87:41:cf:c5:c5:64:2a:2a:e8:
                    85:2c:dd:2c:34:5e:bc:eb:cf:7f:e5:84:12:26:90:
                    ce:5d:38:e8:0e:68:e0:74:7d:9b:a9:d0:23:63:20:
                    eb:6c:8b:0d:b3:62:41:7f:7b:a8:bf:e2:14:0c:52:
                    e6:77:63:1a:c2:a4:33:fa:96:85:50:1a:99:1d:56:
                    a9:13
                Exponent: 65537 (0x10001)
        X509v3 extensions:
            X509v3 Basic Constraints: 
                CA:FALSE
            X509v3 Subject Key Identifier: 
                18:BD:B8:75:54:61:9F:1E:C4:BD:E7:41:E7:85:2E:D7:65:90:25:BF
            X509v3 Authority Key Identifier: 
                keyid:9F:31:B5:39:BA:40:16:E3:5A:B9:F6:C9:59:AD:A9:A9:BD:CE:C1:1D
                DirName:/CN=team191-net
                serial:70:89:DE:60:0F:72:56:3A:F4:C4:E0:D3:06:B7:37:F4:5C:1E:A5:D7
            X509v3 Extended Key Usage: 
                TLS Web Client Authentication
            X509v3 Key Usage: 
                Digital Signature
    Signature Algorithm: sha256WithRSAEncryption
    Signature Value:
        b9:b2:64:5c:7d:57:d1:3f:1b:96:c6:38:04:85:b2:d2:c0:4b:
        2d:3c:6b:a4:c0:c8:de:c7:19:35:97:b8:40:e9:a9:26:22:5d:
        0d:25:99:59:96:a9:c5:ba:74:54:83:d5:93:99:38:18:74:87:
        d4:1b:e2:29:52:b6:5c:ba:63:b8:d5:22:ce:a3:de:2d:b1:62:
        8c:f1:d2:f9:ba:30:3b:e8:ab:ee:c8:6a:9d:0a:ed:84:48:d0:
        00:31:ef:a3:ab:fc:4b:9b:5f:d4:e9:89:fa:a7:d0:9e:3f:3d:
        b7:04:d6:98:1e:2c:bf:22:65:10:d4:12:9d:43:f6:cb:d6:70:
        50:6b:1c:d2:84:d0:dc:15:88:94:f6:2d:0c:7a:e1:b8:e3:ea:
        e9:d9:03:ed:bd:fe:bb:1f:31:30:b8:75:20:af:0e:76:2a:91:
        6d:6b:6c:0f:27:76:25:29:03:30:11:20:d9:00:1f:8e:c4:b4:
        5f:20:ee:cd:d7:c0:8f:80:15:f2:76:20:71:42:fe:7d:e9:97:
        f9:7f:bb:2e:14:12:28:ec:7d:03:06:1e:3a:6d:de:9d:92:72:
        98:b7:b2:d1:8a:cc:da:a8:2d:e8:20:58:fc:45:c4:84:b2:9d:
        d8:84:a2:79:4c:80:88:4a:7b:50:80:6c:55:ad:99:32:ba:e8:
        ae:2d:ee:7e
-----BEGIN CERTIFICATE-----
MIIDXDCCAkSgAwIBAgIQZmZ3KxNF8a75AbQrYuIFCTANBgkqhkiG9w0BAQsFADAW
MRQwEgYDVQQDDAt0ZWFtMTkxLW5ldDAeFw0yMzExMDQxMTMxMjNaFw0yNjEwMTkx
MTMxMjNaMBkxFzAVBgNVBAMMDnRlYW0xOTEtY2xpZW50MIIBIjANBgkqhkiG9w0B
AQEFAAOCAQ8AMIIBCgKCAQEAowa8D8SeIQuU0gBaOpxQ7Mr4kh3EDb7DR2LX4q1t
zYf3Fw901Z0XTsuPTxTAEsMGxyl9L9wQn+1zaFQJ8NjD0H5Djcp3yw60hCS1Dp21
W085XOuBnGQSaR+o8tLQr8OE9bR7WjMH2oWJhmAIzjAUZxcgYBktHlRls5LxV1D+
AZLga1yrFfbxF4Tpx55ODP6vtNZhRLfbE9GaEjVHCZX+MbhJs2QgibfTTEXZfABt
Q/VWs7w9dYOf95WHQc/FxWQqKuiFLN0sNF68689/5YQSJpDOXTjoDmjgdH2bqdAj
YyDrbIsNs2JBf3uov+IUDFLmd2MawqQz+paFUBqZHVapEwIDAQABo4GiMIGfMAkG
A1UdEwQCMAAwHQYDVR0OBBYEFBi9uHVUYZ8exL3nQeeFLtdlkCW/MFEGA1UdIwRK
MEiAFJ8xtTm6QBbjWrn2yVmtqam9zsEdoRqkGDAWMRQwEgYDVQQDDAt0ZWFtMTkx
LW5ldIIUcIneYA9yVjr0xODTBrc39FwepdcwEwYDVR0lBAwwCgYIKwYBBQUHAwIw
CwYDVR0PBAQDAgeAMA0GCSqGSIb3DQEBCwUAA4IBAQC5smRcfVfRPxuWxjgEhbLS
wEstPGukwMjexxk1l7hA6akmIl0NJZlZlqnFunRUg9WTmTgYdIfUG+IpUrZcumO4
1SLOo94tsWKM8dL5ujA76KvuyGqdCu2ESNAAMe+jq/xLm1/U6Yn6p9CePz23BNaY
Hiy/ImUQ1BKdQ/bL1nBQaxzShNDcFYiU9i0MeuG44+rp2QPtvf67HzEwuHUgrw52
KpFta2wPJ3YlKQMwESDZAB+OxLRfIO7N18CPgBXydiBxQv596Zf5f7suFBIo7H0D
Bh46bd6dknKYt7LRiszaqC3oIFj8RcSEsp3YhKJ5TICISntQgGxVrZkyuuiuLe5+
-----END CERTIFICATE-----
