Certificate:
    Data:
        Version: 3 (0x2)
        Serial Number:
            02:8a:bc:a8:65:a7:3b:c3:1c:10:d7:2f:ae:db:2c:75
        Signature Algorithm: sha256WithRSAEncryption
        Issuer: CN=team114-net
        Validity
            Not Before: Nov  4 10:42:32 2023 GMT
            Not After : Oct 19 10:42:32 2026 GMT
        Subject: CN=team114-server
        Subject Public Key Info:
            Public Key Algorithm: rsaEncryption
                Public-Key: (2048 bit)
                Modulus:
                    00:c1:60:5c:f8:14:b1:91:71:69:a8:b7:60:12:27:
                    28:be:66:ab:9d:2d:25:ce:9a:e5:9b:47:18:7a:f1:
                    c9:18:44:e0:1e:90:98:27:cd:6a:6f:b3:cd:f4:e7:
                    fe:bc:2d:43:6c:fe:30:5d:6b:40:88:9e:1e:b3:47:
                    6e:c1:16:4d:1c:52:b3:06:ac:46:42:b9:d8:37:11:
                    71:55:e3:32:7b:35:6d:9e:6b:70:cf:0b:56:f1:05:
                    2d:28:e6:c4:6a:9f:52:31:7a:5a:e7:b2:df:e4:cf:
                    9f:50:d8:ce:8f:59:c1:94:3b:c3:23:41:c3:fb:c9:
                    25:53:20:81:f1:42:37:cc:fe:ab:dc:40:d0:78:38:
                    56:9d:40:49:cc:c9:2c:74:2d:2c:de:41:f1:04:85:
                    16:38:73:7d:e0:cd:1f:37:3f:d6:d1:c8:d2:94:f1:
                    21:ef:98:c9:60:7b:f0:5e:01:76:77:a7:3f:96:b0:
                    61:15:88:a4:01:fd:1e:9f:09:de:ab:2c:59:b2:21:
                    d3:d9:fe:93:dd:25:ff:15:3a:f6:58:0b:b7:f6:06:
                    d7:1c:9d:ec:21:0f:b9:32:d3:9c:fc:d3:5d:5a:7b:
                    89:e0:eb:ab:6d:c5:eb:77:2f:f6:cb:9f:94:d3:2e:
                    ac:b8:19:7b:ac:ea:22:6d:1e:70:57:ca:f8:52:f7:
                    20:97
                Exponent: 65537 (0x10001)
        X509v3 extensions:
            X509v3 Basic Constraints: 
                CA:FALSE
            X509v3 Subject Key Identifier: 
                11:95:5F:13:09:EA:BB:BC:38:76:15:99:02:8C:66:4D:3C:71:04:DD
            X509v3 Authority Key Identifier: 
                keyid:D9:86:46:A9:77:B4:2D:74:47:1A:9D:0B:82:A2:B0:7D:50:AC:E7:20
                DirName:/CN=team114-net
                serial:6D:6D:72:C4:CC:91:E2:57:E8:4A:62:CB:0C:91:B1:4C:07:DF:E5:00
            X509v3 Extended Key Usage: 
                TLS Web Server Authentication
            X509v3 Key Usage: 
                Digital Signature, Key Encipherment
            X509v3 Subject Alternative Name: 
                DNS:team114-server
    Signature Algorithm: sha256WithRSAEncryption
    Signature Value:
        25:d2:ba:b4:1e:5b:40:bc:9e:ad:35:e9:08:41:5d:50:78:b1:
        9d:31:db:40:9d:79:50:86:b5:f0:0c:8d:64:b4:0f:48:0d:2b:
        1d:10:d9:e1:bc:1e:7d:af:ce:df:e5:c4:59:e9:74:87:af:04:
        56:ed:a3:7b:26:a6:43:f6:57:f3:c7:4a:e0:fd:44:b6:c2:4f:
        4b:9c:b2:1e:ae:ea:d1:08:91:1e:98:5d:c0:38:43:b0:82:e5:
        cc:87:78:e2:c7:fb:7b:b1:20:67:3c:f6:a1:67:e0:84:64:a9:
        75:b4:cd:6e:f0:b8:c2:20:6a:35:4e:99:51:70:08:11:de:d5:
        9c:db:84:57:ba:38:b3:c1:3a:c6:f6:60:50:ba:81:a7:3c:f1:
        f4:c7:46:08:0f:9a:3f:e2:b3:5c:20:37:69:e8:2f:6e:64:21:
        f9:f8:22:4c:60:1c:bd:cc:44:14:2f:45:e6:ee:7a:77:3c:60:
        68:ff:64:81:fc:16:c0:da:6e:88:11:0c:d3:bc:67:35:b3:60:
        8e:09:a5:bc:fa:e9:2d:56:db:f9:5a:9c:0e:d4:8c:a0:d4:43:
        53:93:af:80:ef:d6:06:ee:9d:5e:13:93:16:fe:0b:f8:a0:74:
        8d:88:b6:3a:f5:86:cc:a2:21:c7:ee:54:45:b0:2f:b8:98:cf:
        57:4e:4a:70
-----BEGIN CERTIFICATE-----
MIIDdzCCAl+gAwIBAgIQAoq8qGWnO8McENcvrtssdTANBgkqhkiG9w0BAQsFADAW
MRQwEgYDVQQDDAt0ZWFtMTE0LW5ldDAeFw0yMzExMDQxMDQyMzJaFw0yNjEwMTkx
MDQyMzJaMBkxFzAVBgNVBAMMDnRlYW0xMTQtc2VydmVyMIIBIjANBgkqhkiG9w0B
AQEFAAOCAQ8AMIIBCgKCAQEAwWBc+BSxkXFpqLdgEicovmarnS0lzprlm0cYevHJ
GETgHpCYJ81qb7PN9Of+vC1DbP4wXWtAiJ4es0duwRZNHFKzBqxGQrnYNxFxVeMy
ezVtnmtwzwtW8QUtKObEap9SMXpa57Lf5M+fUNjOj1nBlDvDI0HD+8klUyCB8UI3
zP6r3EDQeDhWnUBJzMksdC0s3kHxBIUWOHN94M0fNz/W0cjSlPEh75jJYHvwXgF2
d6c/lrBhFYikAf0enwneqyxZsiHT2f6T3SX/FTr2WAu39gbXHJ3sIQ+5MtOc/NNd
WnuJ4OurbcXrdy/2y5+U0y6suBl7rOoibR5wV8r4UvcglwIDAQABo4G9MIG6MAkG
A1UdEwQCMAAwHQYDVR0OBBYEFBGVXxMJ6ru8OHYVmQKMZk08cQTdMFEGA1UdIwRK
MEiAFNmGRql3tC10RxqdC4KisH1QrOcgoRqkGDAWMRQwEgYDVQQDDAt0ZWFtMTE0
LW5ldIIUbW1yxMyR4lfoSmLLDJGxTAff5QAwEwYDVR0lBAwwCgYIKwYBBQUHAwEw
CwYDVR0PBAQDAgWgMBkGA1UdEQQSMBCCDnRlYW0xMTQtc2VydmVyMA0GCSqGSIb3
DQEBCwUAA4IBAQAl0rq0HltAvJ6tNekIQV1QeLGdMdtAnXlQhrXwDI1ktA9IDSsd
ENnhvB59r87f5cRZ6XSHrwRW7aN7JqZD9lfzx0rg/US2wk9LnLIerurRCJEemF3A
OEOwguXMh3jix/t7sSBnPPahZ+CEZKl1tM1u8LjCIGo1TplRcAgR3tWc24RXujiz
wTrG9mBQuoGnPPH0x0YID5o/4rNcIDdp6C9uZCH5+CJMYBy9zEQUL0Xm7np3PGBo
/2SB/BbA2m6IEQzTvGc1s2COCaW8+uktVtv5WpwO1Iyg1ENTk6+A79YG7p1eE5MW
/gv4oHSNiLY69YbMoiHH7lRFsC+4mM9XTkpw
-----END CERTIFICATE-----
