Certificate:
    Data:
        Version: 3 (0x2)
        Serial Number:
            de:61:a3:60:1f:78:04:ae:a3:1f:46:38:54:9e:d5:5e
        Signature Algorithm: sha256WithRSAEncryption
        Issuer: CN=team114-net
        Validity
            Not Before: Nov  4 11:29:43 2023 GMT
            Not After : Oct 19 11:29:43 2026 GMT
        Subject: CN=team114-client
        Subject Public Key Info:
            Public Key Algorithm: rsaEncryption
                Public-Key: (2048 bit)
                Modulus:
                    00:8e:f4:0f:06:56:8b:6e:6a:c6:4f:a4:53:97:b5:
                    ba:2d:8c:80:eb:c6:91:b0:9b:8c:74:46:4c:b8:36:
                    28:d1:35:c0:c0:8d:d3:ef:48:08:6c:f2:f9:2a:65:
                    de:c5:95:7b:cb:bd:69:61:07:b5:32:99:14:f3:83:
                    35:fc:4f:0b:b5:8c:92:c8:1c:06:06:d9:53:01:88:
                    ca:49:73:33:64:fe:ac:0d:9a:99:d1:a0:76:b4:5c:
                    46:6f:e8:91:11:e7:2f:03:b0:c4:a6:18:5d:02:46:
                    96:1b:9f:16:b8:c7:1e:33:98:0e:46:b2:47:6d:17:
                    cf:be:f4:0d:ea:1b:3f:e3:c6:11:97:7c:f0:33:7c:
                    9f:33:b9:95:c7:95:b8:d1:8d:db:3a:f3:13:ab:8e:
                    04:6b:5c:dc:79:ec:23:4c:c0:0a:14:97:af:a6:3c:
                    6c:e8:84:4d:99:73:b3:16:1e:43:9b:20:02:5b:db:
                    a3:15:a7:f0:90:92:23:70:09:18:61:1f:4d:31:1b:
                    30:4d:ac:6f:9a:c9:34:a0:07:32:a5:f9:c5:be:1b:
                    aa:0f:d5:db:bd:a3:d9:fa:e1:62:ce:0e:bd:8b:7a:
                    61:8a:66:1e:e5:e3:ac:ca:f1:32:a1:c7:2c:2b:ac:
                    7b:b2:f7:7e:cd:b0:9c:d6:0c:d6:96:bc:bf:2d:ce:
                    10:43
                Exponent: 65537 (0x10001)
        X509v3 extensions:
            X509v3 Basic Constraints: 
                CA:FALSE
            X509v3 Subject Key Identifier: 
                44:BC:EC:A2:6A:89:E4:E7:7D:E4:33:EB:D9:9D:28:A6:6B:D5:29:DF
            X509v3 Authority Key Identifier: 
                keyid:64:F4:09:FC:AF:EF:1D:20:B1:2E:DA:24:CF:2F:84:77:DA:BE:07:BB
                DirName:/CN=team114-net
                serial:34:8C:88:49:94:B1:DF:22:1C:09:90:52:53:1E:52:C8:39:FD:15:EA
            X509v3 Extended Key Usage: 
                TLS Web Client Authentication
            X509v3 Key Usage: 
                Digital Signature
    Signature Algorithm: sha256WithRSAEncryption
    Signature Value:
        a6:a2:6d:02:4a:82:a9:6c:3a:35:22:5b:c3:6c:79:d0:a9:47:
        3f:d7:fb:10:33:cc:3c:f7:ba:68:a3:8c:1b:87:11:26:4b:79:
        40:11:06:76:15:48:32:68:dc:ef:c5:9c:b8:07:0d:5a:a9:cf:
        f6:38:ed:d4:49:e8:65:63:36:e1:a3:1e:1d:86:ad:59:ef:0f:
        fe:f9:b4:67:28:a6:76:bc:87:8c:ee:27:cb:f7:91:f0:13:c2:
        d9:79:b8:76:20:09:b8:ce:b4:79:fc:f9:de:be:53:e3:f0:c0:
        99:42:b1:88:b4:13:01:c1:d7:c0:d2:6b:ec:d9:40:08:d9:55:
        8c:bf:d3:c3:1a:0b:9c:56:67:19:d5:cf:ec:7c:83:0f:f5:ad:
        4e:a7:36:c8:4c:e2:67:b4:ae:95:13:10:a2:5a:a4:ff:cc:6c:
        3d:55:09:d5:0d:c2:da:51:7e:3c:5e:13:ed:f4:d9:1e:6b:74:
        ec:ca:ad:f7:e5:8b:45:d5:e8:20:13:7c:42:70:d9:e2:ee:f6:
        f3:d2:31:8a:58:68:90:e4:54:7e:ad:8e:bc:2c:e7:3c:88:08:
        94:4f:f0:a4:87:da:b0:bf:78:cd:66:ce:f6:50:ea:f8:21:0a:
        50:38:2d:f7:cb:41:bd:b2:bc:88:e4:62:d1:51:8c:34:08:78:
        ad:bf:1d:d9
-----BEGIN CERTIFICATE-----
MIIDXTCCAkWgAwIBAgIRAN5ho2AfeASuox9GOFSe1V4wDQYJKoZIhvcNAQELBQAw
FjEUMBIGA1UEAwwLdGVhbTExNC1uZXQwHhcNMjMxMTA0MTEyOTQzWhcNMjYxMDE5
MTEyOTQzWjAZMRcwFQYDVQQDDA50ZWFtMTE0LWNsaWVudDCCASIwDQYJKoZIhvcN
AQEBBQADggEPADCCAQoCggEBAI70DwZWi25qxk+kU5e1ui2MgOvGkbCbjHRGTLg2
KNE1wMCN0+9ICGzy+Spl3sWVe8u9aWEHtTKZFPODNfxPC7WMksgcBgbZUwGIyklz
M2T+rA2amdGgdrRcRm/okRHnLwOwxKYYXQJGlhufFrjHHjOYDkayR20Xz770Deob
P+PGEZd88DN8nzO5lceVuNGN2zrzE6uOBGtc3HnsI0zAChSXr6Y8bOiETZlzsxYe
Q5sgAlvboxWn8JCSI3AJGGEfTTEbME2sb5rJNKAHMqX5xb4bqg/V272j2frhYs4O
vYt6YYpmHuXjrMrxMqHHLCuse7L3fs2wnNYM1pa8vy3OEEMCAwEAAaOBojCBnzAJ
BgNVHRMEAjAAMB0GA1UdDgQWBBREvOyiaonk533kM+vZnSima9Up3zBRBgNVHSME
SjBIgBRk9An8r+8dILEu2iTPL4R32r4Hu6EapBgwFjEUMBIGA1UEAwwLdGVhbTEx
NC1uZXSCFDSMiEmUsd8iHAmQUlMeUsg5/RXqMBMGA1UdJQQMMAoGCCsGAQUFBwMC
MAsGA1UdDwQEAwIHgDANBgkqhkiG9w0BAQsFAAOCAQEApqJtAkqCqWw6NSJbw2x5
0KlHP9f7EDPMPPe6aKOMG4cRJkt5QBEGdhVIMmjc78WcuAcNWqnP9jjt1EnoZWM2
4aMeHYatWe8P/vm0ZyimdryHjO4ny/eR8BPC2Xm4diAJuM60efz53r5T4/DAmUKx
iLQTAcHXwNJr7NlACNlVjL/TwxoLnFZnGdXP7HyDD/WtTqc2yEziZ7SulRMQolqk
/8xsPVUJ1Q3C2lF+PF4T7fTZHmt07Mqt9+WLRdXoIBN8QnDZ4u7289IxilhokORU
fq2OvCznPIgIlE/wpIfasL94zWbO9lDq+CEKUDgt98tBvbK8iORi0VGMNAh4rb8d
2Q==
-----END CERTIFICATE-----
