Certificate:
    Data:
        Version: 3 (0x2)
        Serial Number:
            13:4b:bb:4d:76:d6:56:6f:15:25:70:d7:0a:f9:8e:e5
        Signature Algorithm: sha256WithRSAEncryption
        Issuer: CN=team453-net
        Validity
            Not Before: Nov  4 11:37:42 2023 GMT
            Not After : Oct 19 11:37:42 2026 GMT
        Subject: CN=team453-server
        Subject Public Key Info:
            Public Key Algorithm: rsaEncryption
                Public-Key: (2048 bit)
                Modulus:
                    00:c5:59:6f:2d:5f:d5:c1:b4:3e:d7:a5:1e:eb:13:
                    df:fb:27:0a:23:40:a4:55:75:1a:8b:91:3b:9e:bd:
                    1c:b2:5e:cd:45:85:69:74:c6:56:cd:37:35:dc:16:
                    79:58:a7:9a:68:39:f7:f4:15:a5:5e:cf:ee:2d:ba:
                    8a:9b:61:60:3f:26:7a:20:b4:db:fe:72:58:9f:18:
                    af:69:94:6c:0c:85:bd:63:16:bf:b8:e0:c1:8f:99:
                    3a:5f:5a:ff:e6:e1:9b:51:31:c8:71:1c:3d:1e:ca:
                    49:16:1b:1d:9e:09:76:90:52:0a:b9:e5:6e:e7:bf:
                    82:07:6b:6d:55:3c:4c:90:fd:4c:7b:fa:32:98:35:
                    f2:08:0c:35:08:68:8a:63:9e:66:46:4b:8a:61:04:
                    2e:87:c3:80:07:d4:4f:66:e0:ab:6a:78:3b:4d:2c:
                    d8:de:b6:3f:85:7b:a0:7b:fa:c4:b5:c8:96:02:ed:
                    07:4e:4d:33:d3:6c:b0:49:98:c5:c3:37:e7:20:cc:
                    96:31:28:87:e1:a3:cd:5b:2a:e8:1d:5c:8c:e6:5c:
                    8e:28:5a:0b:6f:91:3c:a3:c5:2c:72:0b:cc:96:b4:
                    e0:91:37:67:29:08:52:15:c1:fe:c9:70:c5:71:60:
                    56:cc:ba:d1:bd:82:82:56:f3:cd:a5:03:a2:d1:f4:
                    b9:43
                Exponent: 65537 (0x10001)
        X509v3 extensions:
            X509v3 Basic Constraints: 
                CA:FALSE
            X509v3 Subject Key Identifier: 
                73:33:46:E6:6E:70:F9:D2:30:8D:EF:67:65:95:01:48:29:7B:C4:7E
            X509v3 Authority Key Identifier: 
                keyid:B0:04:70:6E:7D:8A:38:8D:8E:D2:9F:00:5F:54:CF:C1:B7:5B:B5:B5
                DirName:/CN=team453-net
                serial:65:BC:80:11:8C:50:48:C8:3E:D5:1F:CE:EC:1E:04:70:E5:84:C6:47
            X509v3 Extended Key Usage: 
                TLS Web Server Authentication
            X509v3 Key Usage: 
                Digital Signature, Key Encipherment
            X509v3 Subject Alternative Name: 
                DNS:team453-server
    Signature Algorithm: sha256WithRSAEncryption
    Signature Value:
        aa:c4:c7:f2:e3:5e:fa:20:95:b5:a5:b6:7f:7e:02:7d:81:f2:
        fc:69:41:f0:e8:1f:37:fd:5f:6b:da:c6:d1:87:be:74:3a:02:
        6e:b0:69:b3:bc:34:9f:78:59:e7:e9:be:e4:dd:14:65:9a:d6:
        07:c3:fa:5a:08:ea:89:c6:24:0a:06:e0:cd:1a:e0:ec:1f:eb:
        6e:08:c5:36:c4:07:3c:7b:41:8c:91:b8:a2:e2:de:49:b7:b4:
        c1:f4:ba:9b:c4:57:83:3f:da:67:93:f7:67:67:07:b2:b6:d8:
        82:dc:e0:49:29:86:e3:94:0c:75:16:0f:64:1e:30:f2:8b:1a:
        fa:4b:88:4f:fe:38:dc:6e:21:98:bf:1d:dc:cd:c1:28:69:1e:
        d4:39:b1:d6:95:36:21:39:f6:be:25:3e:ea:f3:73:8d:d2:5c:
        16:32:b6:69:cc:66:91:9d:6d:67:3d:ab:37:00:96:63:a2:9e:
        9e:63:c0:2b:3b:7c:07:3c:12:d4:98:f1:6a:8d:57:76:05:b6:
        91:11:a5:a1:ef:ed:e8:07:74:f5:c5:66:ec:4f:c3:33:19:10:
        a4:fa:db:5c:07:f4:68:29:74:8d:0f:53:24:e9:e4:68:8a:3e:
        cd:54:15:08:71:0c:6a:77:81:0a:dc:30:65:8b:a2:f9:70:6f:
        3d:9b:99:d1
-----BEGIN CERTIFICATE-----
MIIDdzCCAl+gAwIBAgIQE0u7TXbWVm8VJXDXCvmO5TANBgkqhkiG9w0BAQsFADAW
MRQwEgYDVQQDDAt0ZWFtNDUzLW5ldDAeFw0yMzExMDQxMTM3NDJaFw0yNjEwMTkx
MTM3NDJaMBkxFzAVBgNVBAMMDnRlYW00NTMtc2VydmVyMIIBIjANBgkqhkiG9w0B
AQEFAAOCAQ8AMIIBCgKCAQEAxVlvLV/VwbQ+16Ue6xPf+ycKI0CkVXUai5E7nr0c
sl7NRYVpdMZWzTc13BZ5WKeaaDn39BWlXs/uLbqKm2FgPyZ6ILTb/nJYnxivaZRs
DIW9Yxa/uODBj5k6X1r/5uGbUTHIcRw9HspJFhsdngl2kFIKueVu57+CB2ttVTxM
kP1Me/oymDXyCAw1CGiKY55mRkuKYQQuh8OAB9RPZuCrang7TSzY3rY/hXuge/rE
tciWAu0HTk0z02ywSZjFwzfnIMyWMSiH4aPNWyroHVyM5lyOKFoLb5E8o8UscgvM
lrTgkTdnKQhSFcH+yXDFcWBWzLrRvYKCVvPNpQOi0fS5QwIDAQABo4G9MIG6MAkG
A1UdEwQCMAAwHQYDVR0OBBYEFHMzRuZucPnSMI3vZ2WVAUgpe8R+MFEGA1UdIwRK
MEiAFLAEcG59ijiNjtKfAF9Uz8G3W7W1oRqkGDAWMRQwEgYDVQQDDAt0ZWFtNDUz
LW5ldIIUZbyAEYxQSMg+1R/O7B4EcOWExkcwEwYDVR0lBAwwCgYIKwYBBQUHAwEw
CwYDVR0PBAQDAgWgMBkGA1UdEQQSMBCCDnRlYW00NTMtc2VydmVyMA0GCSqGSIb3
DQEBCwUAA4IBAQCqxMfy4176IJW1pbZ/fgJ9gfL8aUHw6B83/V9r2sbRh750OgJu
sGmzvDSfeFnn6b7k3RRlmtYHw/paCOqJxiQKBuDNGuDsH+tuCMU2xAc8e0GMkbii
4t5Jt7TB9LqbxFeDP9pnk/dnZweyttiC3OBJKYbjlAx1Fg9kHjDyixr6S4hP/jjc
biGYvx3czcEoaR7UObHWlTYhOfa+JT7q83ON0lwWMrZpzGaRnW1nPas3AJZjop6e
Y8ArO3wHPBLUmPFqjVd2BbaREaWh7+3oB3T1xWbsT8MzGRCk+ttcB/RoKXSND1Mk
6eRoij7NVBUIcQxqd4EK3DBli6L5cG89m5nR
-----END CERTIFICATE-----
