Certificate:
    Data:
        Version: 3 (0x2)
        Serial Number:
            cb:52:99:f2:a4:18:77:66:1b:c5:8a:e6:11:13:2e:fc
        Signature Algorithm: sha256WithRSAEncryption
        Issuer: CN=team453-net
        Validity
            Not Before: Nov  4 10:48:41 2023 GMT
            Not After : Oct 19 10:48:41 2026 GMT
        Subject: CN=team453-client
        Subject Public Key Info:
            Public Key Algorithm: rsaEncryption
                Public-Key: (2048 bit)
                Modulus:
                    00:ac:44:56:25:fa:22:6e:ca:4b:fe:b0:6d:cf:2c:
                    cd:fc:c7:3d:1f:bb:3b:b4:1b:57:30:ed:13:31:7b:
                    41:5e:36:48:25:c1:8d:79:ed:e0:d1:1a:50:22:17:
                    a7:5a:f3:e7:e3:2c:0b:af:18:32:b5:82:07:3c:e6:
                    23:70:82:f8:cc:da:34:af:d8:f5:9c:6d:67:ce:90:
                    3c:fc:e1:d7:16:79:72:e1:53:c0:7e:86:d6:ff:ed:
                    5e:c3:49:d0:58:98:7a:71:33:95:1a:39:f3:c9:5c:
                    45:95:07:06:10:af:d9:70:08:8a:2c:cb:74:5f:d5:
                    b8:fc:08:47:c7:f9:95:42:0e:b4:83:8d:72:dc:c5:
                    c7:23:4d:29:4f:3f:e3:89:80:55:98:49:a8:2c:a1:
                    fd:fa:30:ef:63:ff:a8:49:ff:48:82:ec:0d:41:46:
                    bf:2a:83:8d:dc:53:15:33:2b:5c:07:73:07:b7:e4:
                    f7:c2:30:92:04:41:ec:dd:68:06:aa:d8:14:35:cf:
                    de:7a:c8:ec:1a:99:1a:5b:88:47:73:05:c2:fe:f8:
                    e9:7d:2b:5b:33:9b:e4:1a:6d:af:56:e8:72:c8:b0:
                    c7:06:c9:ac:23:58:8b:da:14:df:02:26:a9:22:67:
                    ac:0e:d5:f0:be:79:ae:0a:f4:4b:62:aa:68:00:15:
                    2e:ed
                Exponent: 65537 (0x10001)
        X509v3 extensions:
            X509v3 Basic Constraints: 
                CA:FALSE
            X509v3 Subject Key Identifier: 
                B8:26:88:0D:D4:86:09:4D:82:1D:79:22:EA:F8:DA:82:E1:5F:FE:28
            X509v3 Authority Key Identifier: 
                keyid:55:08:96:AD:6D:EE:49:3F:8E:16:5E:D3:B9:0D:27:24:8C:CE:40:B9
                DirName:/CN=team453-net
                serial:2E:73:6B:69:F6:2A:F2:15:EF:B8:E2:6F:B4:81:2C:00:D2:7C:BA:ED
            X509v3 Extended Key Usage: 
                TLS Web Client Authentication
            X509v3 Key Usage: 
                Digital Signature
    Signature Algorithm: sha256WithRSAEncryption
    Signature Value:
        39:f9:f9:6e:06:40:01:09:c9:e0:e0:66:35:7b:b2:c9:c1:48:
        c4:7f:77:c8:de:1a:69:3d:f7:75:5b:ae:74:31:dd:86:e3:61:
        74:93:fa:66:19:80:95:72:39:86:d5:0c:38:b6:66:1d:35:96:
        af:dd:33:7c:7c:0d:c4:a7:a7:dc:23:8f:fd:a2:aa:ce:ac:65:
        88:c1:d8:56:15:23:d5:b7:d0:93:3b:cb:7c:af:e9:72:eb:82:
        fd:be:c1:9f:0b:bc:01:97:cd:fa:ec:19:69:3f:ba:cc:b1:50:
        94:a8:13:60:16:91:19:67:dc:06:76:cd:67:c6:8b:93:42:bb:
        8d:d6:64:82:4b:04:42:1a:e8:db:5f:44:7b:9f:46:c2:ce:bc:
        91:52:a1:ba:1d:f5:0a:aa:5b:93:18:e0:9c:29:e1:fc:57:bb:
        cb:5d:21:a1:67:15:29:b8:8f:4b:af:3d:fb:28:da:3a:61:79:
        86:1c:e1:67:dc:bd:89:5d:60:50:3d:40:76:e5:4f:e9:3b:68:
        f6:4f:ea:2c:a9:d8:46:b2:1c:5b:e3:f3:c8:75:18:1f:30:22:
        50:17:5b:21:91:82:3c:99:66:a3:b2:0f:7a:a2:54:78:82:15:
        86:6c:cc:5e:3c:1b:0d:23:fc:a7:f0:66:94:09:e0:ba:9d:5b:
        97:83:30:64
-----BEGIN CERTIFICATE-----
MIIDXTCCAkWgAwIBAgIRAMtSmfKkGHdmG8WK5hETLvwwDQYJKoZIhvcNAQELBQAw
FjEUMBIGA1UEAwwLdGVhbTQ1My1uZXQwHhcNMjMxMTA0MTA0ODQxWhcNMjYxMDE5
MTA0ODQxWjAZMRcwFQYDVQQDDA50ZWFtNDUzLWNsaWVudDCCASIwDQYJKoZIhvcN
AQEBBQADggEPADCCAQoCggEBAKxEViX6Im7KS/6wbc8szfzHPR+7O7QbVzDtEzF7
QV42SCXBjXnt4NEaUCIXp1rz5+MsC68YMrWCBzzmI3CC+MzaNK/Y9ZxtZ86QPPzh
1xZ5cuFTwH6G1v/tXsNJ0FiYenEzlRo588lcRZUHBhCv2XAIiizLdF/VuPwIR8f5
lUIOtIONctzFxyNNKU8/44mAVZhJqCyh/fow72P/qEn/SILsDUFGvyqDjdxTFTMr
XAdzB7fk98IwkgRB7N1oBqrYFDXP3nrI7BqZGluIR3MFwv746X0rWzOb5Bptr1bo
csiwxwbJrCNYi9oU3wImqSJnrA7V8L55rgr0S2KqaAAVLu0CAwEAAaOBojCBnzAJ
BgNVHRMEAjAAMB0GA1UdDgQWBBS4JogN1IYJTYIdeSLq+NqC4V/+KDBRBgNVHSME
SjBIgBRVCJatbe5JP44WXtO5DSckjM5AuaEapBgwFjEUMBIGA1UEAwwLdGVhbTQ1
My1uZXSCFC5za2n2KvIV77jib7SBLADSfLrtMBMGA1UdJQQMMAoGCCsGAQUFBwMC
MAsGA1UdDwQEAwIHgDANBgkqhkiG9w0BAQsFAAOCAQEAOfn5bgZAAQnJ4OBmNXuy
ycFIxH93yN4aaT33dVuudDHdhuNhdJP6ZhmAlXI5htUMOLZmHTWWr90zfHwNxKen
3COP/aKqzqxliMHYVhUj1bfQkzvLfK/pcuuC/b7Bnwu8AZfN+uwZaT+6zLFQlKgT
YBaRGWfcBnbNZ8aLk0K7jdZkgksEQhro219Ee59Gws68kVKhuh31CqpbkxjgnCnh
/Fe7y10hoWcVKbiPS689+yjaOmF5hhzhZ9y9iV1gUD1AduVP6Tto9k/qLKnYRrIc
W+PzyHUYHzAiUBdbIZGCPJlmo7IPeqJUeIIVhmzMXjwbDSP8p/BmlAngup1bl4Mw
ZA==
-----END CERTIFICATE-----
