Certificate:
    Data:
        Version: 3 (0x2)
        Serial Number:
            ce:ae:16:47:bf:de:77:4d:ca:b2:32:82:b8:85:65:7d
        Signature Algorithm: sha256WithRSAEncryption
        Issuer: CN=team453-net
        Validity
            Not Before: Nov  3 20:47:30 2023 GMT
            Not After : Oct 18 20:47:30 2026 GMT
        Subject: CN=team453-server
        Subject Public Key Info:
            Public Key Algorithm: rsaEncryption
                Public-Key: (2048 bit)
                Modulus:
                    00:b2:e6:51:a3:5b:c9:fb:e5:b6:73:71:48:a0:ba:
                    fa:7f:35:25:d7:6e:12:ce:89:53:71:f3:47:73:be:
                    86:90:27:66:cf:74:bc:ce:dc:2b:fb:29:a0:48:d4:
                    0f:73:fd:4a:ff:ba:c4:25:ad:d4:96:0d:8a:b4:2b:
                    11:50:26:b1:d0:a6:dd:0b:af:6a:a5:80:f9:21:38:
                    50:be:92:2e:a0:ab:97:91:a0:fc:5d:26:6f:03:20:
                    68:89:56:f5:4a:87:ca:5f:77:47:c6:cd:24:ec:2b:
                    81:f8:20:17:ca:09:2f:78:c4:ba:28:4c:1a:b5:b4:
                    61:95:77:b5:c9:b7:7b:08:9f:cd:99:0d:c2:54:1c:
                    24:b2:d2:9b:9d:9e:03:f9:12:aa:d4:24:5b:0f:51:
                    54:63:eb:bd:73:76:8c:52:bf:bc:4f:00:e2:58:b1:
                    a0:50:4b:2c:f9:8a:26:bc:6d:55:3e:c1:f9:47:2c:
                    c6:ad:6f:b4:28:20:3a:42:82:b6:25:28:46:4e:ea:
                    4b:7b:bf:6d:60:88:f3:53:aa:c8:05:4a:25:86:2a:
                    c0:72:8c:fd:13:9d:1a:7d:84:1f:c4:57:09:92:bf:
                    d0:85:79:11:52:1e:8b:82:43:b5:25:79:2b:59:01:
                    87:00:d6:b8:6d:54:61:9d:09:b2:ab:e0:9d:3d:92:
                    04:17
                Exponent: 65537 (0x10001)
        X509v3 extensions:
            X509v3 Basic Constraints: 
                CA:FALSE
            X509v3 Subject Key Identifier: 
                0D:5E:B2:30:C6:0E:17:64:6C:DF:DC:8D:1B:21:9C:53:7C:4E:6D:5A
            X509v3 Authority Key Identifier: 
                keyid:5C:41:F9:B7:4B:DE:58:9F:45:61:2C:AE:24:DE:09:52:03:85:95:71
                DirName:/CN=team453-net
                serial:39:80:D5:50:09:AF:11:72:01:44:86:06:41:36:D0:8A:6E:E4:A7:C8
            X509v3 Extended Key Usage: 
                TLS Web Server Authentication
            X509v3 Key Usage: 
                Digital Signature, Key Encipherment
            X509v3 Subject Alternative Name: 
                DNS:team453-server
    Signature Algorithm: sha256WithRSAEncryption
    Signature Value:
        4d:76:af:4e:d5:d6:ba:eb:62:da:29:47:e8:91:9f:af:dd:94:
        9c:49:62:9a:92:b8:44:29:ff:42:cc:a1:d0:44:8b:c3:e1:10:
        84:ba:75:18:54:b3:f7:da:3a:53:99:c6:8d:69:c3:92:35:34:
        a2:71:c9:fe:b8:fc:31:08:47:10:7d:7a:e0:f7:2b:dd:74:b2:
        93:2b:2c:1d:53:3a:95:40:3d:48:bb:50:0d:99:c2:15:c2:c6:
        e9:a4:d3:f7:aa:8f:be:5e:c6:58:94:16:9a:a9:b0:04:8a:e2:
        14:ee:83:33:8f:c4:79:e3:90:32:66:cd:7f:b3:c8:bd:cb:8a:
        f4:5f:c2:a7:97:16:3d:6a:96:5b:cf:bf:58:80:68:a9:44:ed:
        33:1e:dd:40:38:a5:24:46:b3:cd:92:17:ef:2b:b3:b3:db:65:
        5a:26:c2:8b:3c:54:54:b5:fb:01:ad:e7:24:3c:96:32:61:9f:
        89:77:ba:0b:9d:87:3a:d7:e4:17:0d:3d:44:7e:c3:ae:9e:b2:
        76:49:79:0b:3f:6b:d8:1d:b5:fd:c2:9e:a3:9b:69:4f:40:44:
        5a:d5:c5:48:ef:1f:72:67:d6:12:d9:41:60:03:7b:df:e2:43:
        0b:48:67:40:ca:d3:7a:4a:f7:4c:91:91:9b:5a:e5:76:4d:58:
        b6:4e:07:08
-----BEGIN CERTIFICATE-----
MIIDeDCCAmCgAwIBAgIRAM6uFke/3ndNyrIygriFZX0wDQYJKoZIhvcNAQELBQAw
FjEUMBIGA1UEAwwLdGVhbTQ1My1uZXQwHhcNMjMxMTAzMjA0NzMwWhcNMjYxMDE4
MjA0NzMwWjAZMRcwFQYDVQQDDA50ZWFtNDUzLXNlcnZlcjCCASIwDQYJKoZIhvcN
AQEBBQADggEPADCCAQoCggEBALLmUaNbyfvltnNxSKC6+n81JdduEs6JU3HzR3O+
hpAnZs90vM7cK/spoEjUD3P9Sv+6xCWt1JYNirQrEVAmsdCm3QuvaqWA+SE4UL6S
LqCrl5Gg/F0mbwMgaIlW9UqHyl93R8bNJOwrgfggF8oJL3jEuihMGrW0YZV3tcm3
ewifzZkNwlQcJLLSm52eA/kSqtQkWw9RVGPrvXN2jFK/vE8A4lixoFBLLPmKJrxt
VT7B+Ucsxq1vtCggOkKCtiUoRk7qS3u/bWCI81OqyAVKJYYqwHKM/ROdGn2EH8RX
CZK/0IV5EVIei4JDtSV5K1kBhwDWuG1UYZ0JsqvgnT2SBBcCAwEAAaOBvTCBujAJ
BgNVHRMEAjAAMB0GA1UdDgQWBBQNXrIwxg4XZGzf3I0bIZxTfE5tWjBRBgNVHSME
SjBIgBRcQfm3S95Yn0VhLK4k3glSA4WVcaEapBgwFjEUMBIGA1UEAwwLdGVhbTQ1
My1uZXSCFDmA1VAJrxFyAUSGBkE20Ipu5KfIMBMGA1UdJQQMMAoGCCsGAQUFBwMB
MAsGA1UdDwQEAwIFoDAZBgNVHREEEjAQgg50ZWFtNDUzLXNlcnZlcjANBgkqhkiG
9w0BAQsFAAOCAQEATXavTtXWuuti2ilH6JGfr92UnElimpK4RCn/Qsyh0ESLw+EQ
hLp1GFSz99o6U5nGjWnDkjU0onHJ/rj8MQhHEH164Pcr3XSykyssHVM6lUA9SLtQ
DZnCFcLG6aTT96qPvl7GWJQWmqmwBIriFO6DM4/EeeOQMmbNf7PIvcuK9F/Cp5cW
PWqWW8+/WIBoqUTtMx7dQDilJEazzZIX7yuzs9tlWibCizxUVLX7Aa3nJDyWMmGf
iXe6C52HOtfkFw09RH7Drp6ydkl5Cz9r2B21/cKeo5tpT0BEWtXFSO8fcmfWEtlB
YAN73+JDC0hnQMrTekr3TJGRm1rldk1Ytk4HCA==
-----END CERTIFICATE-----
