Certificate:
    Data:
        Version: 3 (0x2)
        Serial Number:
            9a:fb:7a:f5:d0:e1:3f:a9:3a:51:6e:5b:67:04:13:d7
        Signature Algorithm: sha256WithRSAEncryption
        Issuer: CN=team417-net
        Validity
            Not Before: Nov  3 20:46:48 2023 GMT
            Not After : Oct 18 20:46:48 2026 GMT
        Subject: CN=team417-server
        Subject Public Key Info:
            Public Key Algorithm: rsaEncryption
                Public-Key: (2048 bit)
                Modulus:
                    00:c5:5c:09:7f:10:cd:45:ae:6d:e4:44:1d:a9:9e:
                    53:bc:f0:52:23:bf:2f:68:c8:e3:9d:48:8f:7d:76:
                    53:87:ba:62:00:54:c2:ef:f0:32:48:c7:62:04:71:
                    05:42:92:85:37:f8:ae:13:dc:2c:c2:f5:29:bc:0d:
                    fb:9b:ba:df:e1:04:ce:85:f1:0f:c8:bd:00:c7:68:
                    33:ca:f1:82:37:1d:c3:82:a8:26:2a:f9:5c:ea:52:
                    6d:9c:19:20:72:0f:9c:fd:78:7e:9e:50:e0:3a:af:
                    c8:8b:f3:37:84:58:fd:25:6d:63:a5:e2:28:a0:24:
                    ea:e4:03:04:64:a1:d1:49:d9:91:19:82:c0:7e:66:
                    4e:7d:b1:ab:15:b3:0d:da:fd:1d:31:d3:7e:ef:35:
                    78:15:09:74:c1:b7:d5:21:24:ef:97:9e:7c:95:fc:
                    bd:22:56:ea:a2:7b:1d:cb:7b:af:93:4f:8a:de:53:
                    20:99:9b:d0:0b:61:2f:a6:51:ab:b9:4e:70:02:c8:
                    b5:a0:32:6b:e3:b6:7c:30:3b:62:4f:6a:37:62:d8:
                    a1:13:f6:f8:ed:4f:b9:97:8c:f2:52:a6:ff:77:8f:
                    19:3e:b4:9a:e3:c0:8e:ef:5a:12:56:09:e2:7e:b6:
                    43:7d:61:8c:ed:9c:32:fe:07:98:3f:b5:ec:1c:5a:
                    c8:9d
                Exponent: 65537 (0x10001)
        X509v3 extensions:
            X509v3 Basic Constraints: 
                CA:FALSE
            X509v3 Subject Key Identifier: 
                6F:61:F0:5F:FC:2F:BD:80:81:83:20:DA:E6:49:A4:87:CD:BF:9F:D2
            X509v3 Authority Key Identifier: 
                keyid:E8:74:DF:A8:12:18:EE:43:93:5A:D4:DB:5E:36:FC:E9:F8:CF:D3:22
                DirName:/CN=team417-net
                serial:56:B7:37:6C:4A:96:33:E5:78:DB:06:6F:30:AE:4E:42:BA:F4:2D:2C
            X509v3 Extended Key Usage: 
                TLS Web Server Authentication
            X509v3 Key Usage: 
                Digital Signature, Key Encipherment
            X509v3 Subject Alternative Name: 
                DNS:team417-server
    Signature Algorithm: sha256WithRSAEncryption
    Signature Value:
        88:cf:3a:f5:9f:ad:2f:89:c8:8b:e4:9e:25:af:da:f2:6b:90:
        ed:60:77:c7:52:47:59:be:1e:50:af:45:cb:05:90:73:1c:7d:
        f8:a7:2f:87:76:24:ea:42:0c:2c:ec:8e:9c:1b:aa:3b:dd:38:
        7f:4c:14:6b:c3:04:2f:0f:6a:ae:a3:91:c1:a2:81:d1:8d:b3:
        cf:a8:21:a4:92:15:9a:02:c3:43:c3:91:ba:48:2e:21:7c:5a:
        26:cd:30:e0:b0:75:7a:52:36:77:38:2a:83:14:19:fc:ea:3c:
        b2:66:ff:63:06:4c:f5:81:fa:38:db:23:f3:5c:e9:34:24:4c:
        5b:96:95:3d:a9:fa:f6:39:c4:8f:be:9e:72:5d:5a:27:dd:2c:
        aa:bb:c8:34:bb:c0:0e:c7:8b:38:ec:93:97:4c:eb:3a:fd:08:
        92:ab:cd:0e:0a:0b:73:e8:d0:f5:8e:4a:52:2e:e4:49:9c:dc:
        76:71:9d:e1:f5:60:16:20:fb:3d:3e:b3:52:6e:ac:1f:e1:b7:
        26:b5:ba:bf:3c:7a:0e:e5:10:01:e8:00:7c:7a:c8:a2:6f:56:
        ac:37:30:8c:7f:80:ea:66:4b:cf:08:73:be:87:27:a6:b4:7d:
        3d:1f:3c:9e:18:fe:59:07:06:47:f6:5f:1e:e8:b7:4f:d7:76:
        a7:fe:c5:e9
-----BEGIN CERTIFICATE-----
MIIDeDCCAmCgAwIBAgIRAJr7evXQ4T+pOlFuW2cEE9cwDQYJKoZIhvcNAQELBQAw
FjEUMBIGA1UEAwwLdGVhbTQxNy1uZXQwHhcNMjMxMTAzMjA0NjQ4WhcNMjYxMDE4
MjA0NjQ4WjAZMRcwFQYDVQQDDA50ZWFtNDE3LXNlcnZlcjCCASIwDQYJKoZIhvcN
AQEBBQADggEPADCCAQoCggEBAMVcCX8QzUWubeREHameU7zwUiO/L2jI451Ij312
U4e6YgBUwu/wMkjHYgRxBUKShTf4rhPcLML1KbwN+5u63+EEzoXxD8i9AMdoM8rx
gjcdw4KoJir5XOpSbZwZIHIPnP14fp5Q4DqvyIvzN4RY/SVtY6XiKKAk6uQDBGSh
0UnZkRmCwH5mTn2xqxWzDdr9HTHTfu81eBUJdMG31SEk75eefJX8vSJW6qJ7Hct7
r5NPit5TIJmb0AthL6ZRq7lOcALItaAya+O2fDA7Yk9qN2LYoRP2+O1PuZeM8lKm
/3ePGT60muPAju9aElYJ4n62Q31hjO2cMv4HmD+17BxayJ0CAwEAAaOBvTCBujAJ
BgNVHRMEAjAAMB0GA1UdDgQWBBRvYfBf/C+9gIGDINrmSaSHzb+f0jBRBgNVHSME
SjBIgBTodN+oEhjuQ5Na1NteNvzp+M/TIqEapBgwFjEUMBIGA1UEAwwLdGVhbTQx
Ny1uZXSCFFa3N2xKljPleNsGbzCuTkK69C0sMBMGA1UdJQQMMAoGCCsGAQUFBwMB
MAsGA1UdDwQEAwIFoDAZBgNVHREEEjAQgg50ZWFtNDE3LXNlcnZlcjANBgkqhkiG
9w0BAQsFAAOCAQEAiM869Z+tL4nIi+SeJa/a8muQ7WB3x1JHWb4eUK9FywWQcxx9
+Kcvh3Yk6kIMLOyOnBuqO904f0wUa8MELw9qrqORwaKB0Y2zz6ghpJIVmgLDQ8OR
ukguIXxaJs0w4LB1elI2dzgqgxQZ/Oo8smb/YwZM9YH6ONsj81zpNCRMW5aVPan6
9jnEj76ecl1aJ90sqrvINLvADseLOOyTl0zrOv0IkqvNDgoLc+jQ9Y5KUi7kSZzc
dnGd4fVgFiD7PT6zUm6sH+G3JrW6vzx6DuUQAegAfHrIom9WrDcwjH+A6mZLzwhz
vocnprR9PR88nhj+WQcGR/ZfHui3T9d2p/7F6Q==
-----END CERTIFICATE-----
