Certificate:
    Data:
        Version: 3 (0x2)
        Serial Number:
            98:b0:be:f3:9d:24:ab:22:b4:88:ff:65:aa:15:9f:38
        Signature Algorithm: sha256WithRSAEncryption
        Issuer: CN=team417-net
        Validity
            Not Before: Nov  3 20:46:48 2023 GMT
            Not After : Oct 18 20:46:48 2026 GMT
        Subject: CN=team417-client
        Subject Public Key Info:
            Public Key Algorithm: rsaEncryption
                Public-Key: (2048 bit)
                Modulus:
                    00:aa:64:d3:55:5a:3b:4e:81:13:d3:8a:53:f5:cd:
                    49:0b:f2:be:fd:8b:c5:e4:62:43:e4:d2:aa:37:55:
                    99:b5:41:08:8d:73:d1:1e:2a:bc:27:b3:d8:94:6e:
                    bc:98:09:8e:b6:e5:34:f0:0b:8d:e7:5e:6c:ad:91:
                    2b:80:45:dd:6e:25:ff:63:38:43:44:d3:af:12:6a:
                    ab:39:97:8f:f2:3f:be:54:c4:3b:46:f1:1d:d8:48:
                    84:1d:b6:0c:d5:04:ba:57:25:08:ec:7d:fd:e8:73:
                    9c:18:53:4e:0e:05:3e:12:40:5f:8c:23:5f:63:1d:
                    59:a6:41:9e:d9:27:5c:d2:68:f3:c1:ba:cc:97:a1:
                    58:5e:ff:74:02:fb:23:a8:d7:1a:4e:19:f6:29:f5:
                    74:ed:55:c7:dd:ef:89:d9:b8:18:2b:f2:3b:a0:2e:
                    ef:8f:90:9d:6e:a3:fb:ea:02:aa:3a:42:2b:a6:38:
                    f4:db:3b:24:44:78:47:db:16:52:3c:fb:f6:ad:6f:
                    65:0c:26:45:00:02:0c:67:7c:05:d7:c1:aa:9e:bc:
                    b0:41:27:4c:33:a6:95:4c:59:3a:fb:64:bc:46:64:
                    1a:2f:6e:75:5a:0f:00:9f:75:1a:8b:57:ee:9f:c1:
                    40:03:06:66:16:2d:99:42:25:66:86:97:67:eb:18:
                    a5:53
                Exponent: 65537 (0x10001)
        X509v3 extensions:
            X509v3 Basic Constraints: 
                CA:FALSE
            X509v3 Subject Key Identifier: 
                FC:CB:E6:CE:82:FB:31:CB:45:A3:C3:10:1A:32:06:09:F0:73:B7:D2
            X509v3 Authority Key Identifier: 
                keyid:E8:74:DF:A8:12:18:EE:43:93:5A:D4:DB:5E:36:FC:E9:F8:CF:D3:22
                DirName:/CN=team417-net
                serial:56:B7:37:6C:4A:96:33:E5:78:DB:06:6F:30:AE:4E:42:BA:F4:2D:2C
            X509v3 Extended Key Usage: 
                TLS Web Client Authentication
            X509v3 Key Usage: 
                Digital Signature
    Signature Algorithm: sha256WithRSAEncryption
    Signature Value:
        b2:5b:7d:86:bb:46:ef:e6:fb:ae:0d:bf:de:84:58:00:31:3e:
        14:2e:9e:f4:a9:fb:e3:49:b9:4a:f7:50:20:95:eb:ac:68:48:
        ef:81:cf:52:e4:1d:b5:26:f4:74:52:5c:c6:ad:2f:3e:37:be:
        03:9a:e4:a0:68:59:61:60:4f:ff:4b:6d:57:04:63:ae:6a:ec:
        68:57:1e:b8:43:ba:ba:ea:32:a1:be:63:2e:e1:15:9f:e1:81:
        f9:54:e1:3f:cb:60:2f:90:51:f6:aa:16:17:37:27:ff:5a:56:
        15:21:07:b6:9c:c4:58:37:ee:57:1f:fb:6f:11:b5:92:79:49:
        2f:57:5b:51:80:f5:68:d3:4e:2c:9a:65:d8:54:c3:98:5e:72:
        fc:83:8a:ff:11:1e:2d:b4:74:72:85:08:09:09:13:76:16:22:
        e2:0c:94:7c:1e:cc:70:5f:eb:b3:1a:cd:55:ec:60:31:4d:08:
        52:0d:95:43:d8:f2:ad:5c:b5:99:a7:9c:ad:77:f1:85:37:e0:
        eb:e3:1e:aa:a1:84:0b:e6:27:9c:3b:dd:f5:4b:d8:76:41:24:
        a3:7c:ba:ec:8f:75:fc:fc:f5:48:d5:a8:9f:a6:7b:24:cb:27:
        ee:7a:57:5a:91:cf:96:15:51:8a:8a:ac:a5:86:20:3b:29:b3:
        4e:a2:4d:40
-----BEGIN CERTIFICATE-----
MIIDXTCCAkWgAwIBAgIRAJiwvvOdJKsitIj/ZaoVnzgwDQYJKoZIhvcNAQELBQAw
FjEUMBIGA1UEAwwLdGVhbTQxNy1uZXQwHhcNMjMxMTAzMjA0NjQ4WhcNMjYxMDE4
MjA0NjQ4WjAZMRcwFQYDVQQDDA50ZWFtNDE3LWNsaWVudDCCASIwDQYJKoZIhvcN
AQEBBQADggEPADCCAQoCggEBAKpk01VaO06BE9OKU/XNSQvyvv2LxeRiQ+TSqjdV
mbVBCI1z0R4qvCez2JRuvJgJjrblNPALjedebK2RK4BF3W4l/2M4Q0TTrxJqqzmX
j/I/vlTEO0bxHdhIhB22DNUEulclCOx9/ehznBhTTg4FPhJAX4wjX2MdWaZBntkn
XNJo88G6zJehWF7/dAL7I6jXGk4Z9in1dO1Vx93vidm4GCvyO6Au74+QnW6j++oC
qjpCK6Y49Ns7JER4R9sWUjz79q1vZQwmRQACDGd8BdfBqp68sEEnTDOmlUxZOvtk
vEZkGi9udVoPAJ91GotX7p/BQAMGZhYtmUIlZoaXZ+sYpVMCAwEAAaOBojCBnzAJ
BgNVHRMEAjAAMB0GA1UdDgQWBBT8y+bOgvsxy0WjwxAaMgYJ8HO30jBRBgNVHSME
SjBIgBTodN+oEhjuQ5Na1NteNvzp+M/TIqEapBgwFjEUMBIGA1UEAwwLdGVhbTQx
Ny1uZXSCFFa3N2xKljPleNsGbzCuTkK69C0sMBMGA1UdJQQMMAoGCCsGAQUFBwMC
MAsGA1UdDwQEAwIHgDANBgkqhkiG9w0BAQsFAAOCAQEAslt9hrtG7+b7rg2/3oRY
ADE+FC6e9Kn740m5SvdQIJXrrGhI74HPUuQdtSb0dFJcxq0vPje+A5rkoGhZYWBP
/0ttVwRjrmrsaFceuEO6uuoyob5jLuEVn+GB+VThP8tgL5BR9qoWFzcn/1pWFSEH
tpzEWDfuVx/7bxG1knlJL1dbUYD1aNNOLJpl2FTDmF5y/IOK/xEeLbR0coUICQkT
dhYi4gyUfB7McF/rsxrNVexgMU0IUg2VQ9jyrVy1maecrXfxhTfg6+MeqqGEC+Yn
nDvd9UvYdkEko3y67I91/Pz1SNWon6Z7JMsn7npXWpHPlhVRioqspYYgOymzTqJN
QA==
-----END CERTIFICATE-----
