Certificate:
    Data:
        Version: 3 (0x2)
        Serial Number:
            54:9a:bc:53:5f:5b:af:ab:5a:5e:f6:ad:cb:b4:b4:25
        Signature Algorithm: sha256WithRSAEncryption
        Issuer: CN=team253-net
        Validity
            Not Before: Nov  3 20:43:55 2023 GMT
            Not After : Oct 18 20:43:55 2026 GMT
        Subject: CN=team253-server
        Subject Public Key Info:
            Public Key Algorithm: rsaEncryption
                Public-Key: (2048 bit)
                Modulus:
                    00:bb:40:ab:7a:a5:99:2f:20:2a:f7:5b:d5:35:0f:
                    df:60:6d:41:c3:e0:fd:95:46:ec:7d:20:6a:6e:98:
                    42:80:f3:a2:83:b7:1d:3a:5a:94:a1:45:3f:c2:8c:
                    53:e5:2a:7b:e5:48:6a:98:46:8e:2e:0a:2b:1c:74:
                    a7:d4:90:4e:84:63:a1:6d:42:a7:f6:42:02:51:9f:
                    7c:07:79:ff:f0:0d:e9:a6:93:13:0e:8b:64:00:bd:
                    11:d2:89:81:81:50:15:05:5b:ea:e7:68:7e:00:51:
                    fd:2f:48:6c:65:a6:3d:ab:b0:f1:49:61:52:59:be:
                    c8:fc:eb:bd:ad:93:c1:0c:7b:ab:6f:b0:e6:97:8b:
                    9b:f2:66:1d:d9:df:61:3e:b8:b8:20:0e:42:fd:41:
                    17:95:ac:aa:49:9e:b5:ae:65:78:e5:16:e4:95:9e:
                    d7:20:95:de:5b:dd:ea:2e:71:77:a1:f3:85:bd:7a:
                    b9:bd:02:94:f5:43:9a:58:95:37:c8:fb:a6:35:35:
                    7b:a8:b4:a8:ab:c1:d7:33:65:7a:04:bd:12:82:ee:
                    e2:45:32:e0:71:e0:49:ca:0d:e3:58:b6:93:13:73:
                    2d:c9:6d:7d:6e:d8:13:5a:0b:c6:e1:2d:d7:d9:ae:
                    38:92:fb:b8:d6:3f:c4:e7:71:0d:0c:43:9a:bd:1f:
                    60:39
                Exponent: 65537 (0x10001)
        X509v3 extensions:
            X509v3 Basic Constraints: 
                CA:FALSE
            X509v3 Subject Key Identifier: 
                9F:7E:95:E0:AE:30:9E:AD:34:85:60:32:88:42:6C:D2:66:B7:8B:31
            X509v3 Authority Key Identifier: 
                keyid:8B:9E:F0:24:66:58:A4:3D:EA:D9:4C:86:DA:D4:A7:A2:6E:3D:71:6F
                DirName:/CN=team253-net
                serial:1E:FE:BA:C5:19:00:1E:6F:E3:CD:64:B9:A5:90:F7:CC:00:51:DF:4D
            X509v3 Extended Key Usage: 
                TLS Web Server Authentication
            X509v3 Key Usage: 
                Digital Signature, Key Encipherment
            X509v3 Subject Alternative Name: 
                DNS:team253-server
    Signature Algorithm: sha256WithRSAEncryption
    Signature Value:
        6f:cd:a6:24:88:52:01:6c:b7:db:34:25:a3:7e:0f:90:d4:e7:
        50:7b:20:60:7d:a4:30:8d:88:07:15:21:10:e9:f2:fd:f5:19:
        1b:cd:8b:04:45:5c:1c:89:0f:56:45:db:dd:9f:cb:99:43:bc:
        63:ba:43:74:e1:45:d8:53:a0:5e:aa:bf:fa:21:c4:9f:d5:58:
        9a:be:90:ab:7a:4a:6d:ed:4f:a6:41:17:6e:d3:e1:2f:4e:f5:
        85:e0:cb:e7:08:cf:fc:9f:37:94:09:f1:1b:ae:73:e7:d9:a5:
        7b:aa:d8:84:0c:21:ba:37:64:89:e1:9c:5a:e0:15:ac:3a:6f:
        6d:19:1a:15:22:86:be:2b:62:fe:b1:43:ef:8f:74:99:c5:69:
        21:5d:7c:4d:f7:af:38:45:9b:53:ba:a0:a6:69:83:f9:a3:43:
        3b:c2:c8:6a:bc:04:34:bc:aa:7f:f6:62:c8:14:f8:51:e7:f6:
        f8:05:bf:79:8f:66:53:fc:69:74:06:38:9e:74:2f:a6:54:e3:
        13:d1:42:85:78:80:72:34:f1:78:ae:83:91:bd:b3:03:88:03:
        d2:c3:54:19:98:28:70:21:d1:08:b7:46:41:b8:2f:ca:47:e4:
        6a:82:ea:c0:d3:60:03:84:bd:96:56:43:2d:6d:83:f6:90:06:
        46:e0:2a:0a
-----BEGIN CERTIFICATE-----
MIIDdzCCAl+gAwIBAgIQVJq8U19br6taXvaty7S0JTANBgkqhkiG9w0BAQsFADAW
MRQwEgYDVQQDDAt0ZWFtMjUzLW5ldDAeFw0yMzExMDMyMDQzNTVaFw0yNjEwMTgy
MDQzNTVaMBkxFzAVBgNVBAMMDnRlYW0yNTMtc2VydmVyMIIBIjANBgkqhkiG9w0B
AQEFAAOCAQ8AMIIBCgKCAQEAu0CreqWZLyAq91vVNQ/fYG1Bw+D9lUbsfSBqbphC
gPOig7cdOlqUoUU/woxT5Sp75UhqmEaOLgorHHSn1JBOhGOhbUKn9kICUZ98B3n/
8A3pppMTDotkAL0R0omBgVAVBVvq52h+AFH9L0hsZaY9q7DxSWFSWb7I/Ou9rZPB
DHurb7Dml4ub8mYd2d9hPri4IA5C/UEXlayqSZ61rmV45RbklZ7XIJXeW93qLnF3
ofOFvXq5vQKU9UOaWJU3yPumNTV7qLSoq8HXM2V6BL0Sgu7iRTLgceBJyg3jWLaT
E3MtyW19btgTWgvG4S3X2a44kvu41j/E53ENDEOavR9gOQIDAQABo4G9MIG6MAkG
A1UdEwQCMAAwHQYDVR0OBBYEFJ9+leCuMJ6tNIVgMohCbNJmt4sxMFEGA1UdIwRK
MEiAFIue8CRmWKQ96tlMhtrUp6JuPXFvoRqkGDAWMRQwEgYDVQQDDAt0ZWFtMjUz
LW5ldIIUHv66xRkAHm/jzWS5pZD3zABR300wEwYDVR0lBAwwCgYIKwYBBQUHAwEw
CwYDVR0PBAQDAgWgMBkGA1UdEQQSMBCCDnRlYW0yNTMtc2VydmVyMA0GCSqGSIb3
DQEBCwUAA4IBAQBvzaYkiFIBbLfbNCWjfg+Q1OdQeyBgfaQwjYgHFSEQ6fL99Rkb
zYsERVwciQ9WRdvdn8uZQ7xjukN04UXYU6Beqr/6IcSf1ViavpCrekpt7U+mQRdu
0+EvTvWF4MvnCM/8nzeUCfEbrnPn2aV7qtiEDCG6N2SJ4Zxa4BWsOm9tGRoVIoa+
K2L+sUPvj3SZxWkhXXxN9684RZtTuqCmaYP5o0M7wshqvAQ0vKp/9mLIFPhR5/b4
Bb95j2ZT/Gl0BjiedC+mVOMT0UKFeIByNPF4roORvbMDiAPSw1QZmChwIdEIt0ZB
uC/KR+RqgurA02ADhL2WVkMtbYP2kAZG4CoK
-----END CERTIFICATE-----
