Certificate:
    Data:
        Version: 3 (0x2)
        Serial Number:
            62:9a:d2:50:e8:42:58:f2:c7:89:7f:4c:99:a3:cc:53
        Signature Algorithm: sha256WithRSAEncryption
        Issuer: CN=team216-net
        Validity
            Not Before: Nov  3 20:43:15 2023 GMT
            Not After : Oct 18 20:43:15 2026 GMT
        Subject: CN=team216-server
        Subject Public Key Info:
            Public Key Algorithm: rsaEncryption
                Public-Key: (2048 bit)
                Modulus:
                    00:b6:a8:ea:93:52:66:1e:1e:21:8e:2a:68:5e:aa:
                    de:64:60:95:af:c8:b4:60:c8:7b:41:2c:c4:50:cd:
                    4e:a9:51:b7:a3:ca:84:29:d9:76:c4:9f:a1:4e:7b:
                    43:5a:89:97:ba:06:4d:41:6c:20:9b:8a:7a:1e:ac:
                    5b:6a:48:af:da:48:27:79:0b:ae:72:15:85:1f:69:
                    99:0d:fe:13:a0:d0:d5:c3:63:5d:97:26:b7:ae:d6:
                    61:e0:ae:ee:56:39:ce:8d:fe:f2:9e:78:e2:ba:bb:
                    43:9f:41:9c:54:b4:cc:df:20:02:be:4d:96:8b:21:
                    d3:c0:d3:b3:63:f9:dd:f2:fa:b6:ed:16:df:b0:d9:
                    6c:b9:76:8c:30:41:33:e9:0e:4d:0a:5a:f7:1b:10:
                    8e:a7:47:17:fd:0e:c8:4b:76:2d:ed:e9:1a:63:43:
                    c6:02:d7:7f:a2:aa:5f:1e:8f:94:69:22:1e:d4:f0:
                    86:ed:23:06:75:00:c5:59:51:f5:70:6b:df:59:62:
                    1e:85:b7:37:b1:69:a7:1a:42:df:e6:99:f7:8f:7f:
                    4b:6e:c3:be:f2:6e:16:af:72:65:37:c4:96:af:66:
                    4e:d6:9b:7a:19:35:09:ce:a8:e5:ed:3c:8a:a5:e7:
                    df:ca:b5:5c:f3:07:b3:31:6e:0f:b1:40:20:91:99:
                    48:c5
                Exponent: 65537 (0x10001)
        X509v3 extensions:
            X509v3 Basic Constraints: 
                CA:FALSE
            X509v3 Subject Key Identifier: 
                57:12:8D:A4:90:98:CE:13:97:7C:F1:FC:66:D1:22:B6:83:9E:4C:9E
            X509v3 Authority Key Identifier: 
                keyid:64:37:92:DC:E8:47:2C:3E:76:2E:6C:C2:21:69:B2:11:D5:D0:CA:49
                DirName:/CN=team216-net
                serial:30:2A:F8:9A:EB:8D:7C:11:41:CA:A3:4C:AB:41:AD:F6:54:28:3C:29
            X509v3 Extended Key Usage: 
                TLS Web Server Authentication
            X509v3 Key Usage: 
                Digital Signature, Key Encipherment
            X509v3 Subject Alternative Name: 
                DNS:team216-server
    Signature Algorithm: sha256WithRSAEncryption
    Signature Value:
        3c:06:f0:b0:01:b1:be:14:0c:3f:ab:22:51:48:c2:12:96:c3:
        be:c3:38:f6:96:bd:b5:f6:e7:0c:bf:be:40:ff:91:06:13:c2:
        a0:21:fc:7a:47:7b:fa:8b:6f:83:00:3f:12:a9:94:7b:f6:58:
        54:8e:bb:7d:58:cb:af:ef:6e:23:7b:95:ed:b8:7b:cb:c4:93:
        37:d2:c1:69:81:1d:52:37:62:69:0c:6a:93:30:12:23:b5:f0:
        f7:da:00:71:0c:ad:7f:20:85:cf:33:16:65:98:4b:97:3a:af:
        99:7b:fc:3e:8b:19:15:f1:d3:33:9f:03:18:f7:b7:8d:00:fb:
        33:0f:e8:23:d4:10:cb:2a:7d:6f:a9:c7:0d:63:40:ca:b6:d0:
        6e:29:ef:cb:d3:48:c0:16:f0:14:00:7f:21:65:fd:bd:7d:50:
        c6:c8:bf:7c:b5:a8:df:53:c7:0d:ca:c6:8f:43:9f:bc:98:05:
        b6:1a:57:ee:ce:24:60:a4:46:8f:28:26:72:6f:a7:a4:fd:7f:
        b3:e5:42:ff:c0:17:72:f0:8e:af:45:18:03:40:f1:38:78:6e:
        da:be:26:80:48:06:54:7d:45:cc:48:45:22:a7:46:a3:e1:df:
        a8:bf:9e:f6:ab:ea:d4:e9:5c:30:53:0f:41:06:bf:33:c3:4a:
        4e:a3:e7:bf
-----BEGIN CERTIFICATE-----
MIIDdzCCAl+gAwIBAgIQYprSUOhCWPLHiX9MmaPMUzANBgkqhkiG9w0BAQsFADAW
MRQwEgYDVQQDDAt0ZWFtMjE2LW5ldDAeFw0yMzExMDMyMDQzMTVaFw0yNjEwMTgy
MDQzMTVaMBkxFzAVBgNVBAMMDnRlYW0yMTYtc2VydmVyMIIBIjANBgkqhkiG9w0B
AQEFAAOCAQ8AMIIBCgKCAQEAtqjqk1JmHh4hjipoXqreZGCVr8i0YMh7QSzEUM1O
qVG3o8qEKdl2xJ+hTntDWomXugZNQWwgm4p6Hqxbakiv2kgneQuuchWFH2mZDf4T
oNDVw2Ndlya3rtZh4K7uVjnOjf7ynnjiurtDn0GcVLTM3yACvk2WiyHTwNOzY/nd
8vq27RbfsNlsuXaMMEEz6Q5NClr3GxCOp0cX/Q7IS3Yt7ekaY0PGAtd/oqpfHo+U
aSIe1PCG7SMGdQDFWVH1cGvfWWIehbc3sWmnGkLf5pn3j39LbsO+8m4Wr3JlN8SW
r2ZO1pt6GTUJzqjl7TyKpeffyrVc8wezMW4PsUAgkZlIxQIDAQABo4G9MIG6MAkG
A1UdEwQCMAAwHQYDVR0OBBYEFFcSjaSQmM4Tl3zx/GbRIraDnkyeMFEGA1UdIwRK
MEiAFGQ3ktzoRyw+di5swiFpshHV0MpJoRqkGDAWMRQwEgYDVQQDDAt0ZWFtMjE2
LW5ldIIUMCr4muuNfBFByqNMq0Gt9lQoPCkwEwYDVR0lBAwwCgYIKwYBBQUHAwEw
CwYDVR0PBAQDAgWgMBkGA1UdEQQSMBCCDnRlYW0yMTYtc2VydmVyMA0GCSqGSIb3
DQEBCwUAA4IBAQA8BvCwAbG+FAw/qyJRSMISlsO+wzj2lr219ucMv75A/5EGE8Kg
Ifx6R3v6i2+DAD8SqZR79lhUjrt9WMuv724je5XtuHvLxJM30sFpgR1SN2JpDGqT
MBIjtfD32gBxDK1/IIXPMxZlmEuXOq+Ze/w+ixkV8dMznwMY97eNAPszD+gj1BDL
Kn1vqccNY0DKttBuKe/L00jAFvAUAH8hZf29fVDGyL98tajfU8cNysaPQ5+8mAW2
GlfuziRgpEaPKCZyb6ek/X+z5UL/wBdy8I6vRRgDQPE4eG7aviaASAZUfUXMSEUi
p0aj4d+ov572q+rU6VwwUw9BBr8zw0pOo+e/
-----END CERTIFICATE-----
