Certificate:
    Data:
        Version: 3 (0x2)
        Serial Number:
            7d:fb:f0:8c:5d:8d:ad:18:dc:d6:9a:54:19:c5:02:23
        Signature Algorithm: sha256WithRSAEncryption
        Issuer: CN=team216-net
        Validity
            Not Before: Nov  4 11:31:52 2023 GMT
            Not After : Oct 19 11:31:52 2026 GMT
        Subject: CN=team216-server
        Subject Public Key Info:
            Public Key Algorithm: rsaEncryption
                Public-Key: (2048 bit)
                Modulus:
                    00:a7:c2:d8:1f:6b:46:da:3e:32:bc:d5:5d:dd:23:
                    0b:f9:ee:6a:89:0b:f1:b7:8d:fc:ef:bf:f8:d4:cd:
                    33:1d:a5:e7:9c:77:65:af:1f:ff:b6:96:31:dc:67:
                    7f:ac:bd:aa:8c:94:c9:b9:21:95:1c:f9:33:32:20:
                    75:64:b2:ac:04:7d:e1:30:95:12:67:84:27:ec:46:
                    a8:78:80:0f:df:3e:11:58:33:6d:b1:6a:d9:2c:64:
                    cd:5a:d2:44:19:65:11:5f:f1:aa:db:9e:0f:26:07:
                    05:05:03:f5:0a:09:cf:9f:d4:cf:b9:45:24:f2:ee:
                    ec:8f:93:97:d8:f8:16:f2:a5:0b:66:86:ed:00:a9:
                    21:ec:75:80:5d:1b:cb:60:0c:37:44:3e:98:4e:c7:
                    75:95:e6:af:c0:38:bf:4c:f0:98:c7:cc:2b:2e:15:
                    a4:ba:a4:1d:2f:09:63:1d:d6:6e:f2:8e:4e:06:e2:
                    6f:62:01:5e:f6:ec:fb:82:30:2f:a5:0a:63:84:dd:
                    9f:fa:9d:43:43:3f:0c:98:9d:b3:ff:54:c9:80:99:
                    bb:dc:e5:a0:ab:ad:2d:e6:71:3a:eb:cf:8b:95:c6:
                    93:7b:cb:c8:4d:bf:04:5b:ed:f6:07:9b:0e:d0:7b:
                    3a:cf:32:f2:00:fe:79:47:4a:38:8e:23:70:79:60:
                    ed:c5
                Exponent: 65537 (0x10001)
        X509v3 extensions:
            X509v3 Basic Constraints: 
                CA:FALSE
            X509v3 Subject Key Identifier: 
                31:33:B3:42:BF:32:61:7E:CE:E4:3D:34:F3:8E:92:06:72:F9:6E:8B
            X509v3 Authority Key Identifier: 
                keyid:F4:6D:98:C7:A0:7E:0B:D8:82:2C:14:F6:2E:C3:2C:EB:F7:B8:DD:AB
                DirName:/CN=team216-net
                serial:52:A4:4B:63:C7:A5:96:A8:67:8B:CA:82:70:F1:34:8F:02:FD:A3:D8
            X509v3 Extended Key Usage: 
                TLS Web Server Authentication
            X509v3 Key Usage: 
                Digital Signature, Key Encipherment
            X509v3 Subject Alternative Name: 
                DNS:team216-server
    Signature Algorithm: sha256WithRSAEncryption
    Signature Value:
        ad:58:45:b3:9a:64:a8:3f:c9:d1:64:bf:0b:cf:d1:ec:5a:1f:
        9a:d1:cb:54:c9:14:f7:27:33:bd:b9:ff:8c:6a:50:19:45:f0:
        48:a1:74:b4:31:f3:4f:ab:06:51:13:d1:7a:e4:81:f6:75:af:
        95:9d:1a:f9:ba:85:c2:31:d7:fb:f0:c0:2e:99:4c:32:71:a2:
        4b:83:8d:f1:4a:c4:73:b9:2a:f4:c1:7a:5e:79:4e:5e:e2:2f:
        cb:d8:30:87:c3:24:6d:46:c3:4f:35:ee:c6:bd:13:e9:54:e7:
        72:24:8f:c0:6e:78:07:79:ee:0b:a6:9b:a2:c5:fe:bc:9d:22:
        30:71:fb:00:4b:ed:eb:6d:94:c0:9f:99:51:14:cf:31:fb:b5:
        fa:95:23:88:f4:1b:19:b4:67:27:e7:80:17:df:25:41:df:4b:
        67:16:d0:58:a3:3f:95:15:cf:4d:5d:b6:98:4b:a4:61:58:f4:
        00:de:7b:ef:64:91:10:2b:5a:9c:50:c2:10:17:7a:9d:0d:56:
        ca:d4:e1:aa:55:c0:0a:15:dd:b8:2b:05:b5:4f:3a:98:62:c9:
        d8:85:ee:fe:1c:a7:1c:d3:2b:4e:f2:8b:96:72:91:c5:ab:12:
        4b:ac:3d:32:6c:8e:a3:aa:05:82:d9:4b:cd:f7:f0:e1:62:b6:
        f3:77:9f:d9
-----BEGIN CERTIFICATE-----
MIIDdzCCAl+gAwIBAgIQffvwjF2NrRjc1ppUGcUCIzANBgkqhkiG9w0BAQsFADAW
MRQwEgYDVQQDDAt0ZWFtMjE2LW5ldDAeFw0yMzExMDQxMTMxNTJaFw0yNjEwMTkx
MTMxNTJaMBkxFzAVBgNVBAMMDnRlYW0yMTYtc2VydmVyMIIBIjANBgkqhkiG9w0B
AQEFAAOCAQ8AMIIBCgKCAQEAp8LYH2tG2j4yvNVd3SML+e5qiQvxt43877/41M0z
HaXnnHdlrx//tpYx3Gd/rL2qjJTJuSGVHPkzMiB1ZLKsBH3hMJUSZ4Qn7EaoeIAP
3z4RWDNtsWrZLGTNWtJEGWURX/Gq254PJgcFBQP1CgnPn9TPuUUk8u7sj5OX2PgW
8qULZobtAKkh7HWAXRvLYAw3RD6YTsd1leavwDi/TPCYx8wrLhWkuqQdLwljHdZu
8o5OBuJvYgFe9uz7gjAvpQpjhN2f+p1DQz8MmJ2z/1TJgJm73OWgq60t5nE668+L
lcaTe8vITb8EW+32B5sO0Hs6zzLyAP55R0o4jiNweWDtxQIDAQABo4G9MIG6MAkG
A1UdEwQCMAAwHQYDVR0OBBYEFDEzs0K/MmF+zuQ9NPOOkgZy+W6LMFEGA1UdIwRK
MEiAFPRtmMegfgvYgiwU9i7DLOv3uN2roRqkGDAWMRQwEgYDVQQDDAt0ZWFtMjE2
LW5ldIIUUqRLY8ellqhni8qCcPE0jwL9o9gwEwYDVR0lBAwwCgYIKwYBBQUHAwEw
CwYDVR0PBAQDAgWgMBkGA1UdEQQSMBCCDnRlYW0yMTYtc2VydmVyMA0GCSqGSIb3
DQEBCwUAA4IBAQCtWEWzmmSoP8nRZL8Lz9HsWh+a0ctUyRT3JzO9uf+MalAZRfBI
oXS0MfNPqwZRE9F65IH2da+VnRr5uoXCMdf78MAumUwycaJLg43xSsRzuSr0wXpe
eU5e4i/L2DCHwyRtRsNPNe7GvRPpVOdyJI/AbngHee4Lppuixf68nSIwcfsAS+3r
bZTAn5lRFM8x+7X6lSOI9BsZtGcn54AX3yVB30tnFtBYoz+VFc9NXbaYS6RhWPQA
3nvvZJEQK1qcUMIQF3qdDVbK1OGqVcAKFd24KwW1TzqYYsnYhe7+HKcc0ytO8ouW
cpHFqxJLrD0ybI6jqgWC2UvN9/DhYrbzd5/Z
-----END CERTIFICATE-----
