Certificate:
    Data:
        Version: 3 (0x2)
        Serial Number:
            bf:4f:9d:76:49:ce:9c:4c:4b:d4:12:82:32:59:db:41
        Signature Algorithm: sha256WithRSAEncryption
        Issuer: CN=team216-net
        Validity
            Not Before: Nov  4 11:31:52 2023 GMT
            Not After : Oct 19 11:31:52 2026 GMT
        Subject: CN=team216-client
        Subject Public Key Info:
            Public Key Algorithm: rsaEncryption
                Public-Key: (2048 bit)
                Modulus:
                    00:a7:a0:55:f6:6f:71:95:2f:1a:d5:62:30:db:b4:
                    32:fc:4f:97:43:7f:4a:19:cd:5f:fe:2e:40:51:25:
                    47:01:68:1b:d1:ea:7b:9d:0f:86:f6:b2:f7:ba:df:
                    cc:63:f6:aa:04:38:6b:d2:30:83:7b:87:53:f2:1e:
                    28:06:f8:d0:20:d8:bb:d1:1f:2a:8a:20:dd:36:61:
                    00:fb:63:d9:01:21:c2:0b:89:3d:03:dd:ea:35:e2:
                    f3:c2:40:7c:13:09:68:ca:61:af:22:06:8e:01:56:
                    01:05:50:8e:5e:a3:4c:ae:91:c3:93:85:08:8e:b6:
                    a2:a0:66:ae:bd:76:5e:b2:e3:31:66:d3:d8:c3:84:
                    e5:c0:f4:15:e9:10:fa:27:25:7b:6e:b1:19:5f:b5:
                    e9:c9:b5:37:bb:bd:7f:be:a5:4b:cd:26:a7:81:1f:
                    ce:24:49:dd:bb:7f:0d:0b:18:ab:cd:33:c2:a0:27:
                    93:f4:04:94:f8:25:ea:ed:cd:e9:f0:b0:94:62:32:
                    44:04:30:a6:e2:04:66:3a:f7:10:7a:d4:5b:7a:93:
                    1c:60:0b:b8:e3:30:bf:65:c3:f8:a0:81:9f:32:56:
                    20:94:02:13:7a:c2:98:75:6a:44:9c:8c:a8:d0:a8:
                    26:fc:58:08:b7:94:9c:d9:9b:f2:cc:c5:91:92:b3:
                    61:69
                Exponent: 65537 (0x10001)
        X509v3 extensions:
            X509v3 Basic Constraints: 
                CA:FALSE
            X509v3 Subject Key Identifier: 
                63:7E:B6:04:E5:FD:C3:BE:90:5D:92:AC:9D:44:47:34:2F:30:B8:97
            X509v3 Authority Key Identifier: 
                keyid:F4:6D:98:C7:A0:7E:0B:D8:82:2C:14:F6:2E:C3:2C:EB:F7:B8:DD:AB
                DirName:/CN=team216-net
                serial:52:A4:4B:63:C7:A5:96:A8:67:8B:CA:82:70:F1:34:8F:02:FD:A3:D8
            X509v3 Extended Key Usage: 
                TLS Web Client Authentication
            X509v3 Key Usage: 
                Digital Signature
    Signature Algorithm: sha256WithRSAEncryption
    Signature Value:
        5a:de:ad:e4:9c:cc:d1:e2:b4:52:8c:52:bd:13:86:bf:9c:da:
        ca:0d:88:4c:e0:3a:88:ed:09:e2:54:69:55:db:de:23:a5:52:
        6a:59:bf:5c:10:ed:d4:57:63:35:71:bc:d1:d0:4f:de:77:21:
        39:77:f3:60:b9:cf:00:06:7a:bf:95:a4:b8:6f:81:8b:a8:08:
        7c:92:4a:44:cf:f7:dc:32:5d:e7:ce:41:06:56:93:fc:39:25:
        68:df:46:99:cd:c7:e8:47:ce:ea:15:3d:11:9f:0a:e1:b1:73:
        0a:f9:12:b8:f2:17:6e:80:bf:b4:6b:5d:f4:44:24:5d:dc:65:
        35:13:a1:75:de:9a:5e:03:be:ca:45:49:84:71:ab:e4:f0:a7:
        7e:1f:10:4d:18:ca:cf:bd:6a:82:95:c2:20:44:5e:eb:94:27:
        fd:73:e2:0b:76:50:33:46:24:a5:a2:a5:ac:44:eb:d9:37:10:
        e7:8b:22:d3:6d:86:56:a2:99:03:19:00:d4:5f:9b:be:5d:5b:
        0a:72:19:90:53:c5:32:ec:39:6b:85:1c:1a:7f:1b:20:47:c5:
        45:2a:36:8e:9d:f5:0a:3f:9a:fd:88:25:19:1e:7a:62:c2:ed:
        4f:c3:12:2c:85:b6:72:74:83:22:bb:e6:5b:2c:24:e5:e1:0d:
        90:b1:c7:3b
-----BEGIN CERTIFICATE-----
MIIDXTCCAkWgAwIBAgIRAL9PnXZJzpxMS9QSgjJZ20EwDQYJKoZIhvcNAQELBQAw
FjEUMBIGA1UEAwwLdGVhbTIxNi1uZXQwHhcNMjMxMTA0MTEzMTUyWhcNMjYxMDE5
MTEzMTUyWjAZMRcwFQYDVQQDDA50ZWFtMjE2LWNsaWVudDCCASIwDQYJKoZIhvcN
AQEBBQADggEPADCCAQoCggEBAKegVfZvcZUvGtViMNu0MvxPl0N/ShnNX/4uQFEl
RwFoG9Hqe50Phvay97rfzGP2qgQ4a9Iwg3uHU/IeKAb40CDYu9EfKoog3TZhAPtj
2QEhwguJPQPd6jXi88JAfBMJaMphryIGjgFWAQVQjl6jTK6Rw5OFCI62oqBmrr12
XrLjMWbT2MOE5cD0FekQ+icle26xGV+16cm1N7u9f76lS80mp4EfziRJ3bt/DQsY
q80zwqAnk/QElPgl6u3N6fCwlGIyRAQwpuIEZjr3EHrUW3qTHGALuOMwv2XD+KCB
nzJWIJQCE3rCmHVqRJyMqNCoJvxYCLeUnNmb8szFkZKzYWkCAwEAAaOBojCBnzAJ
BgNVHRMEAjAAMB0GA1UdDgQWBBRjfrYE5f3DvpBdkqydREc0LzC4lzBRBgNVHSME
SjBIgBT0bZjHoH4L2IIsFPYuwyzr97jdq6EapBgwFjEUMBIGA1UEAwwLdGVhbTIx
Ni1uZXSCFFKkS2PHpZaoZ4vKgnDxNI8C/aPYMBMGA1UdJQQMMAoGCCsGAQUFBwMC
MAsGA1UdDwQEAwIHgDANBgkqhkiG9w0BAQsFAAOCAQEAWt6t5JzM0eK0UoxSvROG
v5zayg2ITOA6iO0J4lRpVdveI6VSalm/XBDt1FdjNXG80dBP3nchOXfzYLnPAAZ6
v5WkuG+Bi6gIfJJKRM/33DJd585BBlaT/DklaN9Gmc3H6EfO6hU9EZ8K4bFzCvkS
uPIXboC/tGtd9EQkXdxlNROhdd6aXgO+ykVJhHGr5PCnfh8QTRjKz71qgpXCIERe
65Qn/XPiC3ZQM0YkpaKlrETr2TcQ54si022GVqKZAxkA1F+bvl1bCnIZkFPFMuw5
a4UcGn8bIEfFRSo2jp31Cj+a/YglGR56YsLtT8MSLIW2cnSDIrvmWywk5eENkLHH
Ow==
-----END CERTIFICATE-----
