Certificate:
    Data:
        Version: 3 (0x2)
        Serial Number:
            f3:82:22:24:e6:3f:41:f8:31:8e:f6:5b:5a:fa:52:c3
        Signature Algorithm: sha256WithRSAEncryption
        Issuer: CN=team216-net
        Validity
            Not Before: Nov  4 10:44:41 2023 GMT
            Not After : Oct 19 10:44:41 2026 GMT
        Subject: CN=team216-client
        Subject Public Key Info:
            Public Key Algorithm: rsaEncryption
                Public-Key: (2048 bit)
                Modulus:
                    00:b2:97:c2:ec:00:e8:23:e8:b2:19:1b:50:e4:00:
                    73:e4:ce:59:90:f2:15:9c:d4:e0:6c:d6:81:65:bf:
                    df:a5:06:77:da:2d:0a:21:fe:3d:5b:14:76:d8:a0:
                    04:da:b5:01:fe:22:85:0d:a5:85:14:31:cc:b8:43:
                    cf:0e:9d:56:a2:78:15:85:4b:d6:fb:f2:cf:96:b0:
                    d6:6b:59:aa:43:2b:fd:8d:01:45:50:92:2c:a2:6d:
                    4a:4b:7e:33:86:11:f0:fd:e0:03:bc:a6:6a:15:86:
                    c1:1b:a1:bf:0f:ea:4e:1a:cc:cb:b3:3a:a9:cd:17:
                    54:4f:de:f3:5c:f5:3f:87:d2:9d:fa:c6:5f:59:c1:
                    3b:23:c2:83:be:1e:04:91:11:3a:30:7d:22:c5:f9:
                    9f:d8:67:80:cf:e3:7e:92:0d:8c:6e:6b:b5:fa:82:
                    61:3b:2a:ee:76:d2:8a:42:67:8b:11:65:01:a8:02:
                    c0:02:0e:1c:8a:74:e7:43:7f:59:7e:f6:89:41:05:
                    18:c1:7c:40:2a:1f:cb:9b:d5:16:69:15:26:0e:d3:
                    82:a3:84:90:bb:25:cd:f0:c8:46:d2:fd:b9:60:a0:
                    0e:cf:8e:e0:2e:19:e1:f6:e8:30:58:16:7e:38:9f:
                    be:0b:bb:73:9c:c2:86:35:2b:3a:12:b6:43:42:b5:
                    90:81
                Exponent: 65537 (0x10001)
        X509v3 extensions:
            X509v3 Basic Constraints: 
                CA:FALSE
            X509v3 Subject Key Identifier: 
                14:86:03:EF:A9:85:42:4F:EB:F2:6C:43:90:1E:35:83:3A:CB:FB:D4
            X509v3 Authority Key Identifier: 
                keyid:67:25:91:5C:7F:3E:44:55:37:1F:C0:09:65:E8:61:75:7E:C8:FD:48
                DirName:/CN=team216-net
                serial:68:7F:50:0C:DA:87:F4:F0:D2:91:35:0B:E4:A2:E7:60:1E:FF:C6:AD
            X509v3 Extended Key Usage: 
                TLS Web Client Authentication
            X509v3 Key Usage: 
                Digital Signature
    Signature Algorithm: sha256WithRSAEncryption
    Signature Value:
        a4:c4:aa:ca:76:1e:6b:61:63:bc:b2:1f:9c:e4:be:94:5a:9e:
        d4:e5:9e:6d:bb:32:a3:a5:91:42:12:0d:01:ad:06:a6:65:bf:
        2e:0b:85:a2:11:d3:7c:99:24:70:41:95:37:6c:77:dd:13:aa:
        38:3c:3d:3d:5d:77:35:9e:53:40:80:89:1e:33:93:6e:2a:c9:
        3f:5f:35:0e:67:44:78:36:d0:bb:5d:23:ac:78:c2:e0:3b:da:
        52:4d:1b:fe:d8:7f:c3:ef:ae:82:af:41:af:be:9e:03:3e:50:
        2f:65:99:bf:f8:db:b1:fd:e6:ba:ab:70:fb:62:26:2e:dc:9b:
        1e:69:20:39:ba:ac:ba:c5:d2:f9:89:82:c6:92:f6:b4:25:0c:
        e5:d6:0d:2c:79:41:84:3f:83:95:76:55:04:3e:e9:fb:75:c7:
        2f:32:68:ef:18:b9:ba:7a:58:b1:e6:a0:d0:20:3c:d6:6c:f7:
        a3:b8:36:48:b4:5e:74:13:0e:ba:19:f7:2d:8d:c2:7f:7f:d6:
        7e:2a:e4:a9:43:d4:b1:91:d2:8d:d5:71:a6:87:cf:c9:34:51:
        a2:c5:c2:9c:35:cc:c1:19:a9:1b:da:a2:48:5f:88:a8:9a:e0:
        72:4f:a0:97:9f:61:29:39:a0:f9:74:48:09:2a:25:17:02:7e:
        e4:e9:51:7c
-----BEGIN CERTIFICATE-----
MIIDXTCCAkWgAwIBAgIRAPOCIiTmP0H4MY72W1r6UsMwDQYJKoZIhvcNAQELBQAw
FjEUMBIGA1UEAwwLdGVhbTIxNi1uZXQwHhcNMjMxMTA0MTA0NDQxWhcNMjYxMDE5
MTA0NDQxWjAZMRcwFQYDVQQDDA50ZWFtMjE2LWNsaWVudDCCASIwDQYJKoZIhvcN
AQEBBQADggEPADCCAQoCggEBALKXwuwA6CPoshkbUOQAc+TOWZDyFZzU4GzWgWW/
36UGd9otCiH+PVsUdtigBNq1Af4ihQ2lhRQxzLhDzw6dVqJ4FYVL1vvyz5aw1mtZ
qkMr/Y0BRVCSLKJtSkt+M4YR8P3gA7ymahWGwRuhvw/qThrMy7M6qc0XVE/e81z1
P4fSnfrGX1nBOyPCg74eBJEROjB9IsX5n9hngM/jfpINjG5rtfqCYTsq7nbSikJn
ixFlAagCwAIOHIp050N/WX72iUEFGMF8QCofy5vVFmkVJg7TgqOEkLslzfDIRtL9
uWCgDs+O4C4Z4fboMFgWfjifvgu7c5zChjUrOhK2Q0K1kIECAwEAAaOBojCBnzAJ
BgNVHRMEAjAAMB0GA1UdDgQWBBQUhgPvqYVCT+vybEOQHjWDOsv71DBRBgNVHSME
SjBIgBRnJZFcfz5EVTcfwAll6GF1fsj9SKEapBgwFjEUMBIGA1UEAwwLdGVhbTIx
Ni1uZXSCFGh/UAzah/Tw0pE1C+Si52Ae/8atMBMGA1UdJQQMMAoGCCsGAQUFBwMC
MAsGA1UdDwQEAwIHgDANBgkqhkiG9w0BAQsFAAOCAQEApMSqynYea2FjvLIfnOS+
lFqe1OWebbsyo6WRQhINAa0GpmW/LguFohHTfJkkcEGVN2x33ROqODw9PV13NZ5T
QICJHjOTbirJP181DmdEeDbQu10jrHjC4DvaUk0b/th/w++ugq9Br76eAz5QL2WZ
v/jbsf3muqtw+2ImLtybHmkgObqsusXS+YmCxpL2tCUM5dYNLHlBhD+DlXZVBD7p
+3XHLzJo7xi5unpYseag0CA81mz3o7g2SLRedBMOuhn3LY3Cf3/WfirkqUPUsZHS
jdVxpofPyTRRosXCnDXMwRmpG9qiSF+IqJrgck+gl59hKTmg+XRICSolFwJ+5OlR
fA==
-----END CERTIFICATE-----
