Certificate:
    Data:
        Version: 3 (0x2)
        Serial Number:
            1e:db:c4:39:b2:36:e0:2b:d1:ac:5a:df:d3:3e:a3:be
        Signature Algorithm: sha256WithRSAEncryption
        Issuer: CN=team407-net
        Validity
            Not Before: Nov  3 20:46:37 2023 GMT
            Not After : Oct 18 20:46:37 2026 GMT
        Subject: CN=team407-server
        Subject Public Key Info:
            Public Key Algorithm: rsaEncryption
                Public-Key: (2048 bit)
                Modulus:
                    00:af:f1:04:8e:ba:e9:07:1c:41:d6:27:32:3b:91:
                    dd:a5:c8:9f:3f:0b:35:32:de:15:17:38:7e:e5:a9:
                    90:92:52:65:84:85:eb:a3:b4:3d:58:35:1c:b3:a9:
                    8a:5a:72:2e:44:e4:d3:9a:fc:28:a1:ae:78:bc:c9:
                    b7:12:f1:ad:cd:e7:73:46:69:e1:87:99:c4:92:59:
                    55:75:fb:a7:bb:b3:95:4b:e1:8d:30:63:a8:4e:87:
                    8a:f3:cd:f7:44:f5:ab:82:92:c8:93:81:26:ec:ca:
                    5d:d2:90:4d:c9:28:33:a8:0d:e3:c5:c4:7f:f3:60:
                    0c:e0:ea:20:6c:70:4a:f0:aa:ea:4a:f9:8a:41:76:
                    ed:fe:db:59:90:49:83:18:d6:86:08:92:a2:d8:00:
                    63:2b:6e:4c:4b:b4:75:f7:bb:41:0d:09:88:5d:1e:
                    76:a8:3b:33:ae:3e:c6:f5:b8:88:5c:45:51:56:0f:
                    8d:30:49:4b:f9:5c:66:13:23:dd:ac:b2:c6:fb:e8:
                    f2:06:8e:00:07:4a:76:d7:ed:5d:f2:1b:15:a2:0a:
                    70:e0:4e:af:f6:78:9f:6e:a2:2b:fb:5a:c4:a0:94:
                    97:86:00:66:1f:5b:46:11:d5:a3:06:1b:60:56:4a:
                    75:3c:08:19:a9:f1:72:b8:62:35:fd:ce:bf:e1:de:
                    43:c1
                Exponent: 65537 (0x10001)
        X509v3 extensions:
            X509v3 Basic Constraints: 
                CA:FALSE
            X509v3 Subject Key Identifier: 
                3C:E1:58:91:5C:2A:4B:62:4B:68:C8:AA:F3:C7:E4:DA:BC:7A:C7:58
            X509v3 Authority Key Identifier: 
                keyid:6F:90:28:8B:0C:72:59:78:0E:A5:23:55:97:25:7D:67:89:D7:8A:38
                DirName:/CN=team407-net
                serial:49:CC:45:99:1C:61:7D:5A:B5:EF:22:A2:58:6D:DD:C7:38:FD:1D:BA
            X509v3 Extended Key Usage: 
                TLS Web Server Authentication
            X509v3 Key Usage: 
                Digital Signature, Key Encipherment
            X509v3 Subject Alternative Name: 
                DNS:team407-server
    Signature Algorithm: sha256WithRSAEncryption
    Signature Value:
        25:10:15:50:5f:7a:77:d5:3f:c2:f5:63:94:9b:34:52:3f:56:
        33:de:40:fe:4b:cf:97:8f:51:69:02:d8:b3:fd:48:51:af:63:
        b8:c3:57:4d:c6:a9:fd:be:3d:e7:85:c0:f7:56:e8:67:6d:ce:
        b5:4c:32:12:d9:09:23:5c:fe:b4:23:40:49:56:6f:2c:b7:ce:
        58:fd:63:f4:29:48:66:ba:c9:23:a0:a7:f4:c6:8a:c1:75:ae:
        53:73:bf:12:d2:83:de:31:bf:30:9b:21:5d:68:46:86:94:31:
        aa:31:6a:9e:c3:28:09:63:30:d8:8e:44:db:d2:f7:ec:e0:77:
        25:5c:18:5a:7d:f3:df:4d:79:f7:9b:0f:fd:2a:81:90:60:de:
        b7:82:65:e6:5b:cd:0a:93:90:fe:22:a8:30:12:cf:5b:e4:65:
        62:65:fd:e6:1b:02:1e:44:2a:49:69:10:1d:0f:15:1b:5c:a4:
        c2:e6:1d:4b:8f:e6:b3:7d:a5:77:35:55:6a:d7:6e:51:e9:1f:
        63:53:e0:52:43:4a:83:45:8a:30:ea:a6:17:de:87:13:c4:8d:
        4e:6a:8d:13:3c:ed:11:96:f7:90:c0:f8:45:e9:87:c5:6b:8a:
        b6:47:92:f0:2e:2c:a4:91:40:ea:ae:9f:ff:30:cd:1e:c1:7c:
        d5:65:bd:d8
-----BEGIN CERTIFICATE-----
MIIDdzCCAl+gAwIBAgIQHtvEObI24CvRrFrf0z6jvjANBgkqhkiG9w0BAQsFADAW
MRQwEgYDVQQDDAt0ZWFtNDA3LW5ldDAeFw0yMzExMDMyMDQ2MzdaFw0yNjEwMTgy
MDQ2MzdaMBkxFzAVBgNVBAMMDnRlYW00MDctc2VydmVyMIIBIjANBgkqhkiG9w0B
AQEFAAOCAQ8AMIIBCgKCAQEAr/EEjrrpBxxB1icyO5HdpcifPws1Mt4VFzh+5amQ
klJlhIXro7Q9WDUcs6mKWnIuROTTmvwooa54vMm3EvGtzedzRmnhh5nEkllVdfun
u7OVS+GNMGOoToeK8833RPWrgpLIk4Em7Mpd0pBNySgzqA3jxcR/82AM4OogbHBK
8KrqSvmKQXbt/ttZkEmDGNaGCJKi2ABjK25MS7R197tBDQmIXR52qDszrj7G9biI
XEVRVg+NMElL+VxmEyPdrLLG++jyBo4AB0p21+1d8hsVogpw4E6v9nifbqIr+1rE
oJSXhgBmH1tGEdWjBhtgVkp1PAgZqfFyuGI1/c6/4d5DwQIDAQABo4G9MIG6MAkG
A1UdEwQCMAAwHQYDVR0OBBYEFDzhWJFcKktiS2jIqvPH5Nq8esdYMFEGA1UdIwRK
MEiAFG+QKIsMcll4DqUjVZclfWeJ14o4oRqkGDAWMRQwEgYDVQQDDAt0ZWFtNDA3
LW5ldIIUScxFmRxhfVq17yKiWG3dxzj9HbowEwYDVR0lBAwwCgYIKwYBBQUHAwEw
CwYDVR0PBAQDAgWgMBkGA1UdEQQSMBCCDnRlYW00MDctc2VydmVyMA0GCSqGSIb3
DQEBCwUAA4IBAQAlEBVQX3p31T/C9WOUmzRSP1Yz3kD+S8+Xj1FpAtiz/UhRr2O4
w1dNxqn9vj3nhcD3Vuhnbc61TDIS2QkjXP60I0BJVm8st85Y/WP0KUhmuskjoKf0
xorBda5Tc78S0oPeMb8wmyFdaEaGlDGqMWqewygJYzDYjkTb0vfs4HclXBhaffPf
TXn3mw/9KoGQYN63gmXmW80Kk5D+IqgwEs9b5GViZf3mGwIeRCpJaRAdDxUbXKTC
5h1Lj+azfaV3NVVq125R6R9jU+BSQ0qDRYow6qYX3ocTxI1Oao0TPO0RlveQwPhF
6YfFa4q2R5LwLiykkUDqrp//MM0ewXzVZb3Y
-----END CERTIFICATE-----
