Certificate:
    Data:
        Version: 3 (0x2)
        Serial Number:
            49:a4:5a:ca:93:d3:47:65:26:46:92:a2:26:71:36:c6
        Signature Algorithm: sha256WithRSAEncryption
        Issuer: CN=team407-net
        Validity
            Not Before: Nov  4 11:36:38 2023 GMT
            Not After : Oct 19 11:36:38 2026 GMT
        Subject: CN=team407-client
        Subject Public Key Info:
            Public Key Algorithm: rsaEncryption
                Public-Key: (2048 bit)
                Modulus:
                    00:ae:20:51:0e:49:ad:ee:18:b1:b3:81:cc:da:00:
                    97:9c:a6:25:38:ce:e4:f3:34:f3:13:cc:c5:1e:46:
                    a4:31:a2:a8:58:b7:a4:37:a6:66:b4:37:d1:a9:82:
                    40:23:ab:0e:56:d4:46:77:83:ad:e4:e7:f3:59:93:
                    0e:4d:a5:24:5f:3c:57:62:ca:95:58:ad:15:56:f6:
                    d2:8e:80:02:5f:8a:06:e2:16:1d:b3:fa:af:49:ba:
                    23:54:f9:eb:d3:8d:71:61:97:af:1b:33:cb:a3:9e:
                    65:91:b3:39:3d:d7:69:f6:cc:5d:cb:fd:76:c5:10:
                    ec:0b:ee:e5:1d:ae:5a:1f:83:4b:f3:61:80:50:47:
                    79:d3:a6:48:da:8a:f6:62:19:49:74:5c:45:75:1b:
                    34:83:25:b8:e6:2b:47:23:a6:ee:f7:38:3b:08:54:
                    d9:a2:5c:38:0b:f2:69:d3:c9:b4:80:d2:5d:58:5b:
                    36:98:f2:4c:be:7b:4a:d0:fb:84:96:43:2c:25:83:
                    6e:5d:f5:27:5a:65:ba:9c:e2:ac:e5:fe:d6:bf:47:
                    a3:83:02:7e:3a:95:d4:ea:b2:4e:ca:40:3e:0e:64:
                    55:e0:0f:c7:58:d2:be:f4:9d:67:9e:98:4e:fd:04:
                    dc:e3:7e:33:0d:9d:c2:84:71:22:49:5e:f7:07:03:
                    70:03
                Exponent: 65537 (0x10001)
        X509v3 extensions:
            X509v3 Basic Constraints: 
                CA:FALSE
            X509v3 Subject Key Identifier: 
                C8:5B:59:4A:5B:5F:71:B2:6E:00:E4:1E:C2:E0:55:A0:97:D9:09:06
            X509v3 Authority Key Identifier: 
                keyid:5A:1E:A1:01:62:A9:1B:34:A4:C3:51:AA:16:AC:80:45:9E:54:38:BA
                DirName:/CN=team407-net
                serial:02:E1:AA:E7:06:AD:D3:7E:8A:EA:88:65:AD:EF:B1:7E:3D:E3:59:29
            X509v3 Extended Key Usage: 
                TLS Web Client Authentication
            X509v3 Key Usage: 
                Digital Signature
    Signature Algorithm: sha256WithRSAEncryption
    Signature Value:
        3e:23:1f:dc:a7:ee:98:e5:27:0a:1c:34:b7:df:9f:25:8c:84:
        b3:8c:c1:1a:b9:36:f1:5a:79:9d:08:e2:22:05:1e:2e:78:e1:
        87:79:08:73:92:43:48:a2:9a:35:b6:27:ce:e5:d3:22:59:15:
        8a:81:ff:8d:41:b2:66:8e:09:d0:67:4c:9c:86:a8:f5:b7:b9:
        d0:96:a1:ea:c3:3f:72:e9:16:8d:62:af:75:95:d1:e0:a2:97:
        b4:0a:12:46:9d:0c:e1:b3:1c:35:bb:1c:93:e8:74:63:a5:0a:
        ec:d0:3a:c2:45:54:e8:c0:ce:45:a6:c4:4e:4c:4e:32:6a:8b:
        22:99:43:86:f0:c5:b2:86:5f:be:31:72:db:1e:78:70:7c:d8:
        89:70:69:30:82:e2:16:47:0e:42:e6:cd:cf:7b:21:01:e1:8b:
        36:d3:16:77:66:33:77:ed:27:f7:bb:8c:65:02:20:9c:d9:d6:
        47:bc:dd:6e:1d:24:18:5b:9a:1f:f7:7f:3b:32:63:d1:b3:e9:
        a2:28:60:a7:45:8e:e9:e6:56:16:d1:f1:eb:5c:a1:a4:d3:d0:
        2d:31:46:53:fd:61:80:a4:2e:42:a4:cc:02:9a:dc:09:74:6a:
        30:3f:83:bf:78:8f:7b:9d:d2:e8:cd:a6:31:71:50:df:51:ea:
        e1:85:b4:6e
-----BEGIN CERTIFICATE-----
MIIDXDCCAkSgAwIBAgIQSaRaypPTR2UmRpKiJnE2xjANBgkqhkiG9w0BAQsFADAW
MRQwEgYDVQQDDAt0ZWFtNDA3LW5ldDAeFw0yMzExMDQxMTM2MzhaFw0yNjEwMTkx
MTM2MzhaMBkxFzAVBgNVBAMMDnRlYW00MDctY2xpZW50MIIBIjANBgkqhkiG9w0B
AQEFAAOCAQ8AMIIBCgKCAQEAriBRDkmt7hixs4HM2gCXnKYlOM7k8zTzE8zFHkak
MaKoWLekN6ZmtDfRqYJAI6sOVtRGd4Ot5OfzWZMOTaUkXzxXYsqVWK0VVvbSjoAC
X4oG4hYds/qvSbojVPnr041xYZevGzPLo55lkbM5Pddp9sxdy/12xRDsC+7lHa5a
H4NL82GAUEd506ZI2or2YhlJdFxFdRs0gyW45itHI6bu9zg7CFTZolw4C/Jp08m0
gNJdWFs2mPJMvntK0PuElkMsJYNuXfUnWmW6nOKs5f7Wv0ejgwJ+OpXU6rJOykA+
DmRV4A/HWNK+9J1nnphO/QTc434zDZ3ChHEiSV73BwNwAwIDAQABo4GiMIGfMAkG
A1UdEwQCMAAwHQYDVR0OBBYEFMhbWUpbX3GybgDkHsLgVaCX2QkGMFEGA1UdIwRK
MEiAFFoeoQFiqRs0pMNRqhasgEWeVDi6oRqkGDAWMRQwEgYDVQQDDAt0ZWFtNDA3
LW5ldIIUAuGq5wat036K6ohlre+xfj3jWSkwEwYDVR0lBAwwCgYIKwYBBQUHAwIw
CwYDVR0PBAQDAgeAMA0GCSqGSIb3DQEBCwUAA4IBAQA+Ix/cp+6Y5ScKHDS3358l
jISzjMEauTbxWnmdCOIiBR4ueOGHeQhzkkNIopo1tifO5dMiWRWKgf+NQbJmjgnQ
Z0ychqj1t7nQlqHqwz9y6RaNYq91ldHgope0ChJGnQzhsxw1uxyT6HRjpQrs0DrC
RVTowM5FpsROTE4yaosimUOG8MWyhl++MXLbHnhwfNiJcGkwguIWRw5C5s3PeyEB
4Ys20xZ3ZjN37Sf3u4xlAiCc2dZHvN1uHSQYW5of9387MmPRs+miKGCnRY7p5lYW
0fHrXKGk09AtMUZT/WGApC5CpMwCmtwJdGowP4O/eI97ndLozaYxcVDfUerhhbRu
-----END CERTIFICATE-----
