Certificate:
    Data:
        Version: 3 (0x2)
        Serial Number:
            ec:02:cd:80:28:a2:e4:f5:b3:79:00:07:a6:64:5d:df
        Signature Algorithm: sha256WithRSAEncryption
        Issuer: CN=team407-net
        Validity
            Not Before: Nov  4 10:47:58 2023 GMT
            Not After : Oct 19 10:47:58 2026 GMT
        Subject: CN=team407-server
        Subject Public Key Info:
            Public Key Algorithm: rsaEncryption
                Public-Key: (2048 bit)
                Modulus:
                    00:b0:f0:ed:d9:f9:da:e5:cf:a3:c2:5b:af:7f:0f:
                    dd:db:3e:1d:1c:32:bd:39:51:10:fa:e2:5d:56:c0:
                    3d:ed:e8:e7:df:fe:32:1f:a3:70:b6:3b:93:2b:39:
                    dc:65:b7:ae:1b:cf:55:88:84:e7:cd:b2:0b:29:58:
                    b7:cc:36:4e:c1:21:79:b5:46:81:4c:0f:e5:8f:fd:
                    4c:53:5a:9a:3a:9c:4e:09:f1:36:ed:07:e7:44:17:
                    d7:09:6a:3f:51:0c:74:ec:f8:aa:1a:ab:b0:52:d0:
                    98:93:23:4f:57:45:e3:4c:af:b9:56:02:c2:60:da:
                    55:a7:cd:f5:25:1c:d7:71:29:a1:06:5b:4d:9f:b7:
                    fe:ae:0a:d5:63:6b:a6:59:63:43:9c:90:3f:6e:15:
                    f2:1a:29:1e:c9:b4:6b:67:ab:61:60:4a:d2:41:29:
                    92:a7:47:ce:0a:d2:aa:cd:f4:f0:c6:78:d2:ef:62:
                    41:9b:6b:bc:ec:42:03:35:1d:bd:be:f7:44:99:12:
                    91:40:ee:32:f4:94:f4:d6:5e:d9:f2:b2:b5:82:70:
                    e2:fd:fa:26:62:9a:17:da:06:63:5f:60:c2:40:85:
                    37:68:c6:90:72:79:cd:3e:36:b2:30:9a:34:ba:c9:
                    0f:da:88:40:da:7f:5f:80:b8:cd:3f:de:d5:2d:31:
                    95:11
                Exponent: 65537 (0x10001)
        X509v3 extensions:
            X509v3 Basic Constraints: 
                CA:FALSE
            X509v3 Subject Key Identifier: 
                07:FB:C4:23:A2:16:D8:6B:2A:AA:FB:9D:95:EE:C1:4F:6C:71:9E:FB
            X509v3 Authority Key Identifier: 
                keyid:0B:9A:62:E2:72:4E:DA:97:7D:8A:39:70:01:4A:7F:EE:37:A4:7F:9F
                DirName:/CN=team407-net
                serial:6B:9A:79:72:D4:48:E4:12:DC:C1:36:29:99:00:A1:3B:7C:91:FF:46
            X509v3 Extended Key Usage: 
                TLS Web Server Authentication
            X509v3 Key Usage: 
                Digital Signature, Key Encipherment
            X509v3 Subject Alternative Name: 
                DNS:team407-server
    Signature Algorithm: sha256WithRSAEncryption
    Signature Value:
        42:8d:60:9e:e1:1b:f9:e2:64:17:df:6c:fd:3d:1a:02:98:77:
        92:c9:dc:60:70:98:04:57:f9:4b:e3:db:0d:78:82:0b:b8:08:
        35:2c:7f:5e:c8:2e:29:7d:f7:f0:cb:88:e0:5a:1a:ce:2b:6d:
        aa:1c:8e:73:11:ba:07:ef:6f:d6:a3:aa:bf:2b:d6:b4:75:d7:
        3f:26:76:fc:db:9d:76:ad:3e:bf:ce:7a:cf:09:ee:62:3b:b4:
        88:34:c4:8c:32:ce:e6:a5:1d:e6:ed:1a:22:24:9a:56:0b:d3:
        c9:9a:3c:a1:73:19:50:56:65:5e:37:71:9b:a8:fb:f8:a4:db:
        3a:6a:06:35:41:c9:56:cb:95:68:fd:f9:70:26:8d:21:3b:b2:
        ff:c6:69:e9:7d:89:c1:0e:0f:52:fe:19:61:c3:28:e2:c8:da:
        e1:16:10:de:4e:73:46:b9:76:90:9d:e5:5f:d3:20:be:45:c5:
        3a:48:56:91:de:43:28:11:da:7e:47:90:e2:4b:8f:7f:25:43:
        db:a0:63:d6:09:53:e5:03:4a:b8:ce:90:e3:38:72:02:2c:9e:
        34:c8:27:42:73:fa:fc:48:b1:72:52:06:eb:7c:d7:94:97:cb:
        8c:b5:78:e3:06:2c:ba:75:71:89:1e:4f:94:d2:4a:fe:45:36:
        b9:c7:d3:f9
-----BEGIN CERTIFICATE-----
MIIDeDCCAmCgAwIBAgIRAOwCzYAoouT1s3kAB6ZkXd8wDQYJKoZIhvcNAQELBQAw
FjEUMBIGA1UEAwwLdGVhbTQwNy1uZXQwHhcNMjMxMTA0MTA0NzU4WhcNMjYxMDE5
MTA0NzU4WjAZMRcwFQYDVQQDDA50ZWFtNDA3LXNlcnZlcjCCASIwDQYJKoZIhvcN
AQEBBQADggEPADCCAQoCggEBALDw7dn52uXPo8Jbr38P3ds+HRwyvTlREPriXVbA
Pe3o59/+Mh+jcLY7kys53GW3rhvPVYiE582yCylYt8w2TsEhebVGgUwP5Y/9TFNa
mjqcTgnxNu0H50QX1wlqP1EMdOz4qhqrsFLQmJMjT1dF40yvuVYCwmDaVafN9SUc
13EpoQZbTZ+3/q4K1WNrplljQ5yQP24V8hopHsm0a2erYWBK0kEpkqdHzgrSqs30
8MZ40u9iQZtrvOxCAzUdvb73RJkSkUDuMvSU9NZe2fKytYJw4v36JmKaF9oGY19g
wkCFN2jGkHJ5zT42sjCaNLrJD9qIQNp/X4C4zT/e1S0xlRECAwEAAaOBvTCBujAJ
BgNVHRMEAjAAMB0GA1UdDgQWBBQH+8QjohbYayqq+52V7sFPbHGe+zBRBgNVHSME
SjBIgBQLmmLick7al32KOXABSn/uN6R/n6EapBgwFjEUMBIGA1UEAwwLdGVhbTQw
Ny1uZXSCFGuaeXLUSOQS3ME2KZkAoTt8kf9GMBMGA1UdJQQMMAoGCCsGAQUFBwMB
MAsGA1UdDwQEAwIFoDAZBgNVHREEEjAQgg50ZWFtNDA3LXNlcnZlcjANBgkqhkiG
9w0BAQsFAAOCAQEAQo1gnuEb+eJkF99s/T0aAph3ksncYHCYBFf5S+PbDXiCC7gI
NSx/XsguKX338MuI4FoazittqhyOcxG6B+9v1qOqvyvWtHXXPyZ2/Nuddq0+v856
zwnuYju0iDTEjDLO5qUd5u0aIiSaVgvTyZo8oXMZUFZlXjdxm6j7+KTbOmoGNUHJ
VsuVaP35cCaNITuy/8Zp6X2JwQ4PUv4ZYcMo4sja4RYQ3k5zRrl2kJ3lX9MgvkXF
OkhWkd5DKBHafkeQ4kuPfyVD26Bj1glT5QNKuM6Q4zhyAiyeNMgnQnP6/EixclIG
63zXlJfLjLV44wYsunVxiR5PlNJK/kU2ucfT+Q==
-----END CERTIFICATE-----
