Certificate:
    Data:
        Version: 3 (0x2)
        Serial Number:
            c1:fe:36:4d:f4:e8:3d:c1:b5:8b:44:44:7f:97:d9:87
        Signature Algorithm: sha256WithRSAEncryption
        Issuer: CN=team481-net
        Validity
            Not Before: Nov  3 20:48:02 2023 GMT
            Not After : Oct 18 20:48:02 2026 GMT
        Subject: CN=team481-server
        Subject Public Key Info:
            Public Key Algorithm: rsaEncryption
                Public-Key: (2048 bit)
                Modulus:
                    00:a1:a0:60:ba:a9:d4:10:9d:73:57:5b:e8:d0:c9:
                    bd:04:a4:0c:0b:2e:4e:50:6e:37:b2:d3:74:89:68:
                    d2:79:54:ba:38:af:49:2d:f9:c5:16:4c:88:28:93:
                    18:c7:69:53:ff:42:f8:2d:20:81:77:84:5a:90:9b:
                    c7:e2:08:a1:73:a1:0b:e3:7e:75:86:ee:23:2d:92:
                    5b:06:14:68:84:58:95:7b:c8:ab:9a:92:b8:8b:6f:
                    66:f9:cf:d4:b2:ee:45:d6:12:c8:f9:d3:4c:a8:8d:
                    14:a9:06:48:34:32:46:c9:07:bf:8f:94:04:a0:ae:
                    37:6e:da:96:f9:2f:00:46:a7:7a:84:e8:7b:95:01:
                    47:37:c3:9a:4f:51:f0:3a:04:d9:7e:6a:8d:7c:21:
                    51:01:9e:e4:b7:1f:29:97:1e:d8:bc:1c:7f:33:76:
                    66:94:f1:c1:4a:60:1a:99:d8:d1:28:f8:b1:a7:97:
                    1b:2e:f5:ef:e3:1e:d6:e3:cf:93:5c:66:25:4c:f6:
                    ed:67:0e:79:e6:23:20:e7:0a:1f:a2:10:8c:0e:76:
                    3a:1f:cd:fe:7b:5f:dd:d2:5d:8a:16:13:73:04:50:
                    e2:a0:79:27:db:8c:02:60:64:9c:66:3c:5a:e4:85:
                    50:e2:8b:ba:ec:9a:c4:1a:76:75:02:37:c3:4c:de:
                    75:d1
                Exponent: 65537 (0x10001)
        X509v3 extensions:
            X509v3 Basic Constraints: 
                CA:FALSE
            X509v3 Subject Key Identifier: 
                58:20:42:E3:9E:86:A7:A1:69:41:1F:31:E0:F2:57:CC:6C:09:71:16
            X509v3 Authority Key Identifier: 
                keyid:6A:90:25:92:41:13:F9:C0:38:2D:58:19:3A:AF:83:65:70:0B:82:C1
                DirName:/CN=team481-net
                serial:75:F5:21:C1:DC:81:74:90:05:EE:CE:C0:2D:37:CD:AA:55:65:13:F2
            X509v3 Extended Key Usage: 
                TLS Web Server Authentication
            X509v3 Key Usage: 
                Digital Signature, Key Encipherment
            X509v3 Subject Alternative Name: 
                DNS:team481-server
    Signature Algorithm: sha256WithRSAEncryption
    Signature Value:
        13:e9:e2:83:55:ce:81:54:d5:93:46:05:bd:c1:9a:a0:bf:2e:
        a5:a8:da:24:23:86:55:51:60:ac:54:b0:6d:df:ff:55:24:d2:
        bc:e8:ee:9d:d5:42:5d:cf:5f:1a:c6:38:80:6f:8a:96:b9:49:
        77:09:d2:0b:58:ee:d2:63:44:be:a9:1c:df:08:12:9a:e6:2c:
        25:d4:53:57:ab:44:35:e6:61:0d:a7:5e:8c:c9:cd:2d:6b:20:
        b9:56:33:27:3c:03:b2:34:ea:ec:d8:da:88:db:19:7c:0d:9c:
        58:41:b6:08:32:c9:46:f0:ec:3b:70:c4:e6:bd:98:51:b7:bd:
        c0:6a:97:ff:b2:b0:55:d8:18:3a:fb:ad:39:24:75:0a:80:fc:
        3d:91:6a:b8:95:a9:8a:f3:47:8b:1e:03:16:bb:d6:f2:b3:17:
        e9:a6:2a:4b:15:ca:3a:79:27:17:ba:f7:29:a9:c9:39:23:90:
        83:11:15:54:5b:54:e8:d1:56:39:fa:f8:45:7f:a8:11:b8:95:
        d2:ed:a9:e3:4d:50:46:13:8b:f1:98:47:cd:74:14:0f:e6:61:
        10:97:9f:cb:6b:56:f7:3f:13:24:58:e8:d4:b8:79:d1:d2:7e:
        8f:4c:82:ce:30:6c:cf:c8:fe:ab:3f:23:b0:2d:a6:9a:9a:c8:
        3d:38:cf:25
-----BEGIN CERTIFICATE-----
MIIDeDCCAmCgAwIBAgIRAMH+Nk306D3BtYtERH+X2YcwDQYJKoZIhvcNAQELBQAw
FjEUMBIGA1UEAwwLdGVhbTQ4MS1uZXQwHhcNMjMxMTAzMjA0ODAyWhcNMjYxMDE4
MjA0ODAyWjAZMRcwFQYDVQQDDA50ZWFtNDgxLXNlcnZlcjCCASIwDQYJKoZIhvcN
AQEBBQADggEPADCCAQoCggEBAKGgYLqp1BCdc1db6NDJvQSkDAsuTlBuN7LTdIlo
0nlUujivSS35xRZMiCiTGMdpU/9C+C0ggXeEWpCbx+IIoXOhC+N+dYbuIy2SWwYU
aIRYlXvIq5qSuItvZvnP1LLuRdYSyPnTTKiNFKkGSDQyRskHv4+UBKCuN27alvkv
AEaneoToe5UBRzfDmk9R8DoE2X5qjXwhUQGe5LcfKZce2LwcfzN2ZpTxwUpgGpnY
0Sj4saeXGy717+Me1uPPk1xmJUz27WcOeeYjIOcKH6IQjA52Oh/N/ntf3dJdihYT
cwRQ4qB5J9uMAmBknGY8WuSFUOKLuuyaxBp2dQI3w0zeddECAwEAAaOBvTCBujAJ
BgNVHRMEAjAAMB0GA1UdDgQWBBRYIELjnoanoWlBHzHg8lfMbAlxFjBRBgNVHSME
SjBIgBRqkCWSQRP5wDgtWBk6r4NlcAuCwaEapBgwFjEUMBIGA1UEAwwLdGVhbTQ4
MS1uZXSCFHX1IcHcgXSQBe7OwC03zapVZRPyMBMGA1UdJQQMMAoGCCsGAQUFBwMB
MAsGA1UdDwQEAwIFoDAZBgNVHREEEjAQgg50ZWFtNDgxLXNlcnZlcjANBgkqhkiG
9w0BAQsFAAOCAQEAE+nig1XOgVTVk0YFvcGaoL8upajaJCOGVVFgrFSwbd//VSTS
vOjundVCXc9fGsY4gG+KlrlJdwnSC1ju0mNEvqkc3wgSmuYsJdRTV6tENeZhDade
jMnNLWsguVYzJzwDsjTq7NjaiNsZfA2cWEG2CDLJRvDsO3DE5r2YUbe9wGqX/7Kw
VdgYOvutOSR1CoD8PZFquJWpivNHix4DFrvW8rMX6aYqSxXKOnknF7r3KanJOSOQ
gxEVVFtU6NFWOfr4RX+oEbiV0u2p401QRhOL8ZhHzXQUD+ZhEJefy2tW9z8TJFjo
1Lh50dJ+j0yCzjBsz8j+qz8jsC2mmprIPTjPJQ==
-----END CERTIFICATE-----
