Certificate:
    Data:
        Version: 3 (0x2)
        Serial Number:
            59:51:c5:fb:c4:c4:73:5d:e3:2d:1e:f4:ea:22:b5:1c
        Signature Algorithm: sha256WithRSAEncryption
        Issuer: CN=team235-net
        Validity
            Not Before: Nov  4 11:32:12 2023 GMT
            Not After : Oct 19 11:32:12 2026 GMT
        Subject: CN=team235-server
        Subject Public Key Info:
            Public Key Algorithm: rsaEncryption
                Public-Key: (2048 bit)
                Modulus:
                    00:bf:9c:4d:8b:06:69:a7:90:13:70:1c:2c:03:57:
                    24:55:af:72:be:b2:2e:5e:5f:8e:6e:3e:de:5d:6a:
                    2d:eb:81:db:03:60:18:f4:26:7d:83:af:7c:c9:48:
                    d9:3c:e0:97:8a:d1:dd:69:08:5a:20:9f:2d:30:17:
                    25:95:b0:40:0b:04:c0:25:73:8c:6b:3d:d4:23:71:
                    37:c7:96:32:38:17:14:09:bf:d6:05:24:26:6c:ad:
                    98:11:4e:01:95:df:04:36:2b:88:d0:e8:78:a6:33:
                    9b:12:13:76:59:3c:d3:73:bf:24:2b:80:e6:23:17:
                    cf:5c:cc:99:24:91:e6:00:37:ea:7e:14:15:20:46:
                    f6:85:be:36:e1:fb:86:f8:5f:fc:c1:ab:bf:a4:d8:
                    02:77:84:3a:49:10:06:8d:c0:6f:4d:83:0c:bb:b2:
                    78:17:e0:16:4e:17:88:90:00:b0:44:9d:1a:90:49:
                    ff:a3:08:18:8b:6e:bd:95:0d:24:84:93:6b:e8:58:
                    8d:cd:d9:6a:b4:06:84:b4:e9:b3:04:01:84:1b:5d:
                    6c:89:a2:c6:37:28:58:cd:6e:bb:72:af:66:82:b7:
                    b6:aa:2e:72:85:fc:5b:9c:7f:68:2c:bc:7e:82:1d:
                    25:83:60:25:2a:fd:8e:0e:5f:50:a4:16:ba:11:f1:
                    da:55
                Exponent: 65537 (0x10001)
        X509v3 extensions:
            X509v3 Basic Constraints: 
                CA:FALSE
            X509v3 Subject Key Identifier: 
                66:15:9C:E2:52:AE:AA:38:BC:6A:E0:76:53:0A:5A:A7:89:2C:F3:92
            X509v3 Authority Key Identifier: 
                keyid:37:65:9A:9A:E6:26:AF:CC:13:6D:E7:FC:AF:3C:C4:5E:52:B8:00:DA
                DirName:/CN=team235-net
                serial:6C:C3:0E:E3:A5:44:FE:A6:FE:A7:34:A9:94:3F:8E:EF:76:48:90:9C
            X509v3 Extended Key Usage: 
                TLS Web Server Authentication
            X509v3 Key Usage: 
                Digital Signature, Key Encipherment
            X509v3 Subject Alternative Name: 
                DNS:team235-server
    Signature Algorithm: sha256WithRSAEncryption
    Signature Value:
        62:64:af:ef:de:16:4a:fb:44:a9:81:48:f6:bf:14:b3:f6:5c:
        64:5a:0f:38:fe:a5:b2:f6:f1:80:b2:c8:fe:ef:51:2b:72:ee:
        ac:c5:0a:17:fb:ed:aa:48:23:3c:d8:ef:b9:cc:ba:b7:df:a0:
        1a:ea:8e:f4:48:5d:36:7d:22:11:e5:86:14:4e:46:8b:03:e9:
        27:75:91:a8:a7:e6:a3:7e:a1:17:a9:d6:f8:b7:ff:f6:e8:66:
        fa:ea:13:5b:30:1f:e3:70:a5:9e:95:46:c8:74:40:d3:1f:23:
        46:de:fa:a0:41:d3:03:83:43:65:38:cc:a5:a2:ae:cd:a3:38:
        07:c2:02:4b:0c:85:e1:3b:f8:e3:f1:c5:fe:75:a1:3f:dc:54:
        64:3f:7f:16:8d:05:d0:c3:af:57:79:7e:e6:c2:4b:78:05:e4:
        16:7e:fe:89:43:c5:41:57:4c:6d:a8:d0:3f:8d:db:cb:32:28:
        00:cb:33:be:14:73:25:20:1b:93:6f:75:4e:04:60:36:2e:0c:
        03:8a:91:67:05:7a:05:40:1d:32:fb:d6:6c:6a:42:62:ee:81:
        78:2a:75:79:0e:00:6b:83:ac:1d:55:9e:94:ca:63:ee:ea:c3:
        bb:ec:5f:61:d4:7d:3c:9a:54:e3:84:d7:de:55:5c:d0:cb:27:
        ac:5b:eb:98
-----BEGIN CERTIFICATE-----
MIIDdzCCAl+gAwIBAgIQWVHF+8TEc13jLR706iK1HDANBgkqhkiG9w0BAQsFADAW
MRQwEgYDVQQDDAt0ZWFtMjM1LW5ldDAeFw0yMzExMDQxMTMyMTJaFw0yNjEwMTkx
MTMyMTJaMBkxFzAVBgNVBAMMDnRlYW0yMzUtc2VydmVyMIIBIjANBgkqhkiG9w0B
AQEFAAOCAQ8AMIIBCgKCAQEAv5xNiwZpp5ATcBwsA1ckVa9yvrIuXl+Obj7eXWot
64HbA2AY9CZ9g698yUjZPOCXitHdaQhaIJ8tMBcllbBACwTAJXOMaz3UI3E3x5Yy
OBcUCb/WBSQmbK2YEU4Bld8ENiuI0Oh4pjObEhN2WTzTc78kK4DmIxfPXMyZJJHm
ADfqfhQVIEb2hb424fuG+F/8wau/pNgCd4Q6SRAGjcBvTYMMu7J4F+AWTheIkACw
RJ0akEn/owgYi269lQ0khJNr6FiNzdlqtAaEtOmzBAGEG11siaLGNyhYzW67cq9m
gre2qi5yhfxbnH9oLLx+gh0lg2AlKv2ODl9QpBa6EfHaVQIDAQABo4G9MIG6MAkG
A1UdEwQCMAAwHQYDVR0OBBYEFGYVnOJSrqo4vGrgdlMKWqeJLPOSMFEGA1UdIwRK
MEiAFDdlmprmJq/ME23n/K88xF5SuADaoRqkGDAWMRQwEgYDVQQDDAt0ZWFtMjM1
LW5ldIIUbMMO46VE/qb+pzSplD+O73ZIkJwwEwYDVR0lBAwwCgYIKwYBBQUHAwEw
CwYDVR0PBAQDAgWgMBkGA1UdEQQSMBCCDnRlYW0yMzUtc2VydmVyMA0GCSqGSIb3
DQEBCwUAA4IBAQBiZK/v3hZK+0SpgUj2vxSz9lxkWg84/qWy9vGAssj+71Ercu6s
xQoX++2qSCM82O+5zLq336Aa6o70SF02fSIR5YYUTkaLA+kndZGop+ajfqEXqdb4
t//26Gb66hNbMB/jcKWelUbIdEDTHyNG3vqgQdMDg0NlOMyloq7NozgHwgJLDIXh
O/jj8cX+daE/3FRkP38WjQXQw69XeX7mwkt4BeQWfv6JQ8VBV0xtqNA/jdvLMigA
yzO+FHMlIBuTb3VOBGA2LgwDipFnBXoFQB0y+9ZsakJi7oF4KnV5DgBrg6wdVZ6U
ymPu6sO77F9h1H08mlTjhNfeVVzQyyesW+uY
-----END CERTIFICATE-----
