Certificate:
    Data:
        Version: 3 (0x2)
        Serial Number:
            c5:3e:8e:97:ad:12:7e:bc:da:32:93:f8:55:b0:9f:c3
        Signature Algorithm: sha256WithRSAEncryption
        Issuer: CN=team235-net
        Validity
            Not Before: Nov  4 10:45:02 2023 GMT
            Not After : Oct 19 10:45:02 2026 GMT
        Subject: CN=team235-client
        Subject Public Key Info:
            Public Key Algorithm: rsaEncryption
                Public-Key: (2048 bit)
                Modulus:
                    00:a4:04:40:a4:ff:a0:29:be:22:ed:f5:6e:8c:cf:
                    9d:73:98:3f:16:0f:77:b8:43:bb:9d:f8:2b:6b:7b:
                    a4:e0:9f:88:45:ea:f5:e9:26:e3:aa:20:c3:f1:71:
                    db:ad:29:27:9a:39:eb:6a:16:5d:e2:7d:a5:0a:cb:
                    da:74:48:ad:bf:d0:b7:5d:83:c4:e6:90:c4:35:65:
                    91:aa:fd:8e:e3:54:57:8c:52:65:25:61:1e:47:65:
                    d1:0f:db:13:90:27:bc:14:0a:25:90:19:9e:95:c0:
                    ff:68:95:a7:06:b4:6c:6c:ce:d9:38:05:9f:e8:5c:
                    45:88:74:7f:3e:fb:0b:d2:21:38:48:4e:4c:db:20:
                    67:66:ce:bd:06:70:60:41:24:5e:83:14:b5:70:be:
                    90:73:ca:4c:81:d8:d7:2c:e5:f8:63:10:44:b0:e3:
                    85:40:1c:29:70:4e:b2:b7:32:96:6a:fb:2e:4e:d2:
                    f7:9f:9c:1c:8c:b0:2e:14:77:fe:3f:b7:67:f1:7e:
                    f9:f4:15:2e:f2:d3:c4:ad:d7:39:1f:13:15:28:dd:
                    25:d7:c7:81:ce:0c:d5:60:5e:b8:1a:e1:cc:ff:6b:
                    c9:9f:c0:7c:09:7f:63:a0:6e:12:af:62:dc:44:13:
                    9b:9f:f1:f2:22:89:4d:8b:b2:58:d3:c7:2e:5f:7e:
                    11:af
                Exponent: 65537 (0x10001)
        X509v3 extensions:
            X509v3 Basic Constraints: 
                CA:FALSE
            X509v3 Subject Key Identifier: 
                AF:5A:76:10:E3:D2:7B:90:53:D3:71:E4:C9:15:4B:39:43:59:99:77
            X509v3 Authority Key Identifier: 
                keyid:41:28:6D:96:C5:8D:12:62:A0:09:C0:7F:2A:44:1E:55:B7:A9:8F:5D
                DirName:/CN=team235-net
                serial:25:9E:80:CF:04:65:89:6B:6E:BD:F8:26:27:05:68:0C:A5:E4:2D:21
            X509v3 Extended Key Usage: 
                TLS Web Client Authentication
            X509v3 Key Usage: 
                Digital Signature
    Signature Algorithm: sha256WithRSAEncryption
    Signature Value:
        9f:7a:af:2c:66:33:db:33:b8:a9:17:1f:d6:1a:65:14:2c:02:
        89:f1:be:35:20:7a:12:76:c7:f5:c5:fa:5a:1b:07:a7:5a:62:
        f0:10:63:2b:e8:62:92:b8:10:53:c3:29:70:43:e6:6f:28:bf:
        2d:44:4b:08:2a:1a:cb:79:cf:7b:43:da:92:f9:d3:ca:7b:8f:
        dc:11:cc:ac:4f:e4:23:c8:f8:d2:74:70:d8:34:8b:71:ce:81:
        5b:51:ee:79:93:aa:5b:ff:f3:9e:ff:3b:06:11:0b:94:99:51:
        2d:04:c5:57:56:fa:9f:15:35:05:8d:0d:74:8a:08:57:50:dc:
        b7:cb:28:c9:70:72:0b:35:ef:9d:bf:c7:d6:ce:56:cc:a4:ee:
        9a:5e:e6:66:1d:f1:37:70:61:fb:e9:73:43:67:60:d5:16:2c:
        a0:e4:e4:41:b2:7e:ec:45:af:2c:df:32:17:8a:f0:ca:47:94:
        68:9a:1e:b8:89:ce:ca:c4:df:5a:5e:51:38:74:d5:aa:43:35:
        3f:73:eb:8e:2a:b2:77:09:d3:df:ca:c1:6b:b0:88:fe:45:1d:
        2b:1a:3b:7b:31:71:b8:0c:76:3a:b3:25:97:3c:6a:8d:0c:40:
        aa:34:10:cd:11:5a:f3:a0:a4:4f:56:ea:28:06:12:0d:4d:46:
        7f:fe:4f:e9
-----BEGIN CERTIFICATE-----
MIIDXTCCAkWgAwIBAgIRAMU+jpetEn682jKT+FWwn8MwDQYJKoZIhvcNAQELBQAw
FjEUMBIGA1UEAwwLdGVhbTIzNS1uZXQwHhcNMjMxMTA0MTA0NTAyWhcNMjYxMDE5
MTA0NTAyWjAZMRcwFQYDVQQDDA50ZWFtMjM1LWNsaWVudDCCASIwDQYJKoZIhvcN
AQEBBQADggEPADCCAQoCggEBAKQEQKT/oCm+Iu31bozPnXOYPxYPd7hDu534K2t7
pOCfiEXq9ekm46ogw/Fx260pJ5o562oWXeJ9pQrL2nRIrb/Qt12DxOaQxDVlkar9
juNUV4xSZSVhHkdl0Q/bE5AnvBQKJZAZnpXA/2iVpwa0bGzO2TgFn+hcRYh0fz77
C9IhOEhOTNsgZ2bOvQZwYEEkXoMUtXC+kHPKTIHY1yzl+GMQRLDjhUAcKXBOsrcy
lmr7Lk7S95+cHIywLhR3/j+3Z/F++fQVLvLTxK3XOR8TFSjdJdfHgc4M1WBeuBrh
zP9ryZ/AfAl/Y6BuEq9i3EQTm5/x8iKJTYuyWNPHLl9+Ea8CAwEAAaOBojCBnzAJ
BgNVHRMEAjAAMB0GA1UdDgQWBBSvWnYQ49J7kFPTceTJFUs5Q1mZdzBRBgNVHSME
SjBIgBRBKG2WxY0SYqAJwH8qRB5Vt6mPXaEapBgwFjEUMBIGA1UEAwwLdGVhbTIz
NS1uZXSCFCWegM8EZYlrbr34JicFaAyl5C0hMBMGA1UdJQQMMAoGCCsGAQUFBwMC
MAsGA1UdDwQEAwIHgDANBgkqhkiG9w0BAQsFAAOCAQEAn3qvLGYz2zO4qRcf1hpl
FCwCifG+NSB6EnbH9cX6WhsHp1pi8BBjK+hikrgQU8MpcEPmbyi/LURLCCoay3nP
e0PakvnTynuP3BHMrE/kI8j40nRw2DSLcc6BW1HueZOqW//znv87BhELlJlRLQTF
V1b6nxU1BY0NdIoIV1Dct8soyXByCzXvnb/H1s5WzKTuml7mZh3xN3Bh++lzQ2dg
1RYsoOTkQbJ+7EWvLN8yF4rwykeUaJoeuInOysTfWl5ROHTVqkM1P3PrjiqydwnT
38rBa7CI/kUdKxo7ezFxuAx2OrMllzxqjQxAqjQQzRFa86CkT1bqKAYSDU1Gf/5P
6Q==
-----END CERTIFICATE-----
