Certificate:
    Data:
        Version: 3 (0x2)
        Serial Number:
            7a:33:84:32:67:6f:62:0c:cb:f0:a3:f9:3c:a8:45:4a
        Signature Algorithm: sha256WithRSAEncryption
        Issuer: CN=team388-net
        Validity
            Not Before: Nov  3 20:46:15 2023 GMT
            Not After : Oct 18 20:46:15 2026 GMT
        Subject: CN=team388-client
        Subject Public Key Info:
            Public Key Algorithm: rsaEncryption
                Public-Key: (2048 bit)
                Modulus:
                    00:ad:5d:3b:a1:70:43:0b:b5:ba:6b:55:53:fe:8a:
                    59:d2:e2:2a:11:a4:8e:0b:8f:8e:c7:eb:a4:61:f9:
                    25:04:6f:74:29:aa:77:f1:4f:34:37:a0:5c:8a:06:
                    29:ec:18:b3:6c:4b:08:7e:f2:d1:d8:4e:5d:19:2b:
                    91:84:b0:1b:11:ec:fe:ef:2c:36:23:56:7d:ae:88:
                    16:54:e1:26:b6:60:a1:e3:7f:54:d1:4f:4a:06:b2:
                    72:95:a4:79:58:5e:a4:90:f0:5c:3a:6e:a1:ac:6f:
                    a7:0f:10:60:38:6f:8d:19:3f:a2:7d:60:a6:a3:59:
                    65:fb:47:1a:5f:47:61:20:77:7e:25:46:fb:2e:17:
                    a5:60:60:08:65:8c:47:7a:30:71:81:48:ba:a8:43:
                    a8:d8:fd:be:75:1c:fe:2b:b5:9c:07:35:38:f8:c9:
                    c4:dc:e8:e4:03:53:6f:ee:e2:27:b0:cd:24:a0:14:
                    48:f4:b3:d7:c6:75:29:0d:28:0e:a7:68:81:44:8e:
                    43:66:42:41:91:ea:d8:a5:75:09:67:57:09:e8:d1:
                    6c:66:6e:8c:78:ba:e8:85:52:77:ef:ff:cb:81:90:
                    87:92:52:74:39:42:47:9c:b7:a4:e9:29:3e:ac:93:
                    22:1d:5e:43:5f:37:e0:0d:ea:c2:a2:4a:88:7b:0a:
                    ed:75
                Exponent: 65537 (0x10001)
        X509v3 extensions:
            X509v3 Basic Constraints: 
                CA:FALSE
            X509v3 Subject Key Identifier: 
                A1:33:17:67:16:92:A8:D9:FA:44:35:16:3A:20:07:75:8D:06:F1:1E
            X509v3 Authority Key Identifier: 
                keyid:CD:2C:93:16:63:D4:5C:E8:54:4D:09:B1:F4:A1:45:C9:E7:C0:B3:D6
                DirName:/CN=team388-net
                serial:6D:98:34:93:20:07:22:7B:76:04:D8:A8:BE:2E:C6:4A:F9:2A:48:EC
            X509v3 Extended Key Usage: 
                TLS Web Client Authentication
            X509v3 Key Usage: 
                Digital Signature
    Signature Algorithm: sha256WithRSAEncryption
    Signature Value:
        23:62:b4:c0:8c:01:15:e4:1b:9b:ec:5c:7d:7d:ba:21:2a:be:
        9a:c9:44:a2:3b:f1:9a:df:6c:b9:fa:60:0d:b4:d1:b0:80:a8:
        e0:d3:06:62:22:17:fc:b1:a3:25:07:a1:e5:07:2c:04:90:80:
        4b:70:ac:6f:49:ad:b1:a8:6c:4f:03:7d:38:5b:cf:fd:be:08:
        73:6c:b8:b5:9f:52:52:3c:45:30:4c:b5:fd:bb:e4:06:c2:cc:
        08:74:59:d1:c9:0d:1f:97:94:95:e3:bc:89:c5:41:a6:1c:ed:
        a5:14:28:40:8f:8a:0e:a8:0d:fa:07:e7:8a:0a:37:23:10:c4:
        a5:c3:c3:45:7a:b9:8d:8a:7e:5e:d2:dc:fd:44:80:ec:45:87:
        ae:59:b3:2a:91:c4:10:13:05:67:d8:02:72:88:a1:ec:eb:0c:
        68:f1:ef:ba:cb:d8:59:c7:7c:4d:3e:24:b3:65:43:86:48:60:
        4d:ab:da:06:af:da:29:84:f7:5f:e8:71:0d:4b:7a:fa:9a:99:
        70:60:8b:e5:12:67:21:11:c0:c2:17:1f:22:6d:87:84:6c:60:
        7e:ed:6d:da:5a:00:11:17:19:17:44:8c:c0:39:0b:5a:ea:f2:
        58:ac:41:5b:fd:e4:e5:9b:28:3e:46:84:94:a9:26:bd:38:03:
        3a:be:b9:fc
-----BEGIN CERTIFICATE-----
MIIDXDCCAkSgAwIBAgIQejOEMmdvYgzL8KP5PKhFSjANBgkqhkiG9w0BAQsFADAW
MRQwEgYDVQQDDAt0ZWFtMzg4LW5ldDAeFw0yMzExMDMyMDQ2MTVaFw0yNjEwMTgy
MDQ2MTVaMBkxFzAVBgNVBAMMDnRlYW0zODgtY2xpZW50MIIBIjANBgkqhkiG9w0B
AQEFAAOCAQ8AMIIBCgKCAQEArV07oXBDC7W6a1VT/opZ0uIqEaSOC4+Ox+ukYfkl
BG90Kap38U80N6BcigYp7BizbEsIfvLR2E5dGSuRhLAbEez+7yw2I1Z9rogWVOEm
tmCh439U0U9KBrJylaR5WF6kkPBcOm6hrG+nDxBgOG+NGT+ifWCmo1ll+0caX0dh
IHd+JUb7LhelYGAIZYxHejBxgUi6qEOo2P2+dRz+K7WcBzU4+MnE3OjkA1Nv7uIn
sM0koBRI9LPXxnUpDSgOp2iBRI5DZkJBkerYpXUJZ1cJ6NFsZm6MeLrohVJ37//L
gZCHklJ0OUJHnLek6Sk+rJMiHV5DXzfgDerCokqIewrtdQIDAQABo4GiMIGfMAkG
A1UdEwQCMAAwHQYDVR0OBBYEFKEzF2cWkqjZ+kQ1FjogB3WNBvEeMFEGA1UdIwRK
MEiAFM0skxZj1FzoVE0JsfShRcnnwLPWoRqkGDAWMRQwEgYDVQQDDAt0ZWFtMzg4
LW5ldIIUbZg0kyAHInt2BNiovi7GSvkqSOwwEwYDVR0lBAwwCgYIKwYBBQUHAwIw
CwYDVR0PBAQDAgeAMA0GCSqGSIb3DQEBCwUAA4IBAQAjYrTAjAEV5Bub7Fx9fboh
Kr6ayUSiO/Ga32y5+mANtNGwgKjg0wZiIhf8saMlB6HlBywEkIBLcKxvSa2xqGxP
A304W8/9vghzbLi1n1JSPEUwTLX9u+QGwswIdFnRyQ0fl5SV47yJxUGmHO2lFChA
j4oOqA36B+eKCjcjEMSlw8NFermNin5e0tz9RIDsRYeuWbMqkcQQEwVn2AJyiKHs
6wxo8e+6y9hZx3xNPiSzZUOGSGBNq9oGr9ophPdf6HENS3r6mplwYIvlEmchEcDC
Fx8ibYeEbGB+7W3aWgARFxkXRIzAOQta6vJYrEFb/eTlmyg+RoSUqSa9OAM6vrn8
-----END CERTIFICATE-----
