Certificate:
    Data:
        Version: 3 (0x2)
        Serial Number:
            5f:8f:9b:5c:cb:2c:86:fe:00:69:50:9b:47:ab:83:47
        Signature Algorithm: sha256WithRSAEncryption
        Issuer: CN=team471-net
        Validity
            Not Before: Nov  4 10:48:57 2023 GMT
            Not After : Oct 19 10:48:57 2026 GMT
        Subject: CN=team471-server
        Subject Public Key Info:
            Public Key Algorithm: rsaEncryption
                Public-Key: (2048 bit)
                Modulus:
                    00:df:93:d3:d2:e5:bd:8f:72:15:2a:01:08:b1:d3:
                    2b:e2:8e:41:78:e8:ef:7d:ac:f5:70:b5:98:a8:03:
                    b7:f7:39:af:d0:95:4c:6d:b6:0b:06:cd:af:ac:b6:
                    a9:52:85:c3:ae:34:f3:77:2c:42:fe:11:8e:bb:82:
                    7a:0f:19:8f:cb:f7:7c:86:a5:9c:2c:85:aa:ce:b3:
                    2e:6f:f4:e8:fb:6b:52:e5:4a:ed:3b:27:c5:48:1a:
                    c9:75:52:5b:ec:43:f1:e1:bb:6f:d2:7f:79:24:43:
                    81:9c:c8:43:55:cc:94:d0:42:b7:17:63:f3:5b:97:
                    07:93:71:2f:f0:1e:60:90:83:2d:6b:b8:7f:ee:db:
                    ee:c2:b6:67:51:ee:42:17:dc:98:52:d6:72:6c:fd:
                    6c:97:ef:01:d2:de:e2:d1:d6:7b:1c:f8:18:b4:96:
                    e0:d1:ff:c3:f9:91:f4:fb:68:69:4b:c1:10:2e:03:
                    04:26:7e:37:8f:bb:6e:5a:fe:68:fc:55:36:f2:44:
                    60:10:5b:94:84:37:15:35:4d:f0:41:7c:80:d6:5a:
                    df:21:d6:db:69:6a:f2:d7:a5:07:79:7d:8a:06:a4:
                    48:46:76:75:cf:3f:8c:df:f1:74:9b:80:5f:91:dd:
                    f8:85:2d:27:c6:37:c1:85:54:45:b3:bf:68:04:27:
                    61:ff
                Exponent: 65537 (0x10001)
        X509v3 extensions:
            X509v3 Basic Constraints: 
                CA:FALSE
            X509v3 Subject Key Identifier: 
                45:15:DC:BF:E8:6F:EB:99:75:DD:E8:12:C6:21:67:BA:40:1A:92:03
            X509v3 Authority Key Identifier: 
                keyid:FE:D7:1F:09:27:CB:7A:F1:E7:8A:2E:2D:F5:2D:72:33:BF:5C:E8:68
                DirName:/CN=team471-net
                serial:14:1B:F3:A3:62:C3:B6:77:AC:85:F2:C0:A0:E6:3C:6B:B0:12:A9:D4
            X509v3 Extended Key Usage: 
                TLS Web Server Authentication
            X509v3 Key Usage: 
                Digital Signature, Key Encipherment
            X509v3 Subject Alternative Name: 
                DNS:team471-server
    Signature Algorithm: sha256WithRSAEncryption
    Signature Value:
        26:91:14:e7:d3:b1:59:74:33:1e:c8:57:17:44:f0:07:46:2b:
        b0:de:38:6a:70:ac:3b:41:73:22:c1:a8:60:ee:7e:f7:ed:fd:
        c5:21:65:03:6c:96:c2:a8:dd:9c:00:3e:64:3b:a1:e9:13:4e:
        9b:ca:1b:f3:18:cc:1e:08:05:76:e1:e3:7a:fe:a0:24:32:c4:
        39:dd:24:5b:30:3e:18:da:06:ce:d2:ab:58:4c:f9:9e:60:ff:
        e5:c5:4a:74:9c:f9:89:2b:ad:3f:98:6a:03:ba:5e:c4:7a:8a:
        98:0f:e5:c8:db:f3:f2:ae:dd:76:16:19:67:74:98:f5:a1:18:
        f1:39:80:6d:3f:c7:8d:96:40:18:69:ed:a9:b7:b0:4c:cb:33:
        83:26:96:50:e7:93:8d:68:0c:5a:ce:19:ac:be:71:61:13:66:
        8a:b1:32:0c:18:e3:fb:c0:00:e5:17:9d:01:42:dc:5a:1c:d5:
        37:72:3f:ce:06:82:98:70:95:9d:5e:62:fb:dc:fb:02:4e:87:
        ed:64:21:3a:77:0c:44:69:7f:f6:e6:f0:e4:4b:e2:35:d9:5e:
        29:07:81:20:23:73:42:e4:ab:c5:8a:b5:28:77:0c:e2:e9:d8:
        d9:2f:6e:54:be:55:89:03:5a:67:ff:66:2d:15:89:e9:c2:2d:
        6a:f7:ba:6b
-----BEGIN CERTIFICATE-----
MIIDdzCCAl+gAwIBAgIQX4+bXMsshv4AaVCbR6uDRzANBgkqhkiG9w0BAQsFADAW
MRQwEgYDVQQDDAt0ZWFtNDcxLW5ldDAeFw0yMzExMDQxMDQ4NTdaFw0yNjEwMTkx
MDQ4NTdaMBkxFzAVBgNVBAMMDnRlYW00NzEtc2VydmVyMIIBIjANBgkqhkiG9w0B
AQEFAAOCAQ8AMIIBCgKCAQEA35PT0uW9j3IVKgEIsdMr4o5BeOjvfaz1cLWYqAO3
9zmv0JVMbbYLBs2vrLapUoXDrjTzdyxC/hGOu4J6DxmPy/d8hqWcLIWqzrMub/To
+2tS5UrtOyfFSBrJdVJb7EPx4btv0n95JEOBnMhDVcyU0EK3F2PzW5cHk3Ev8B5g
kIMta7h/7tvuwrZnUe5CF9yYUtZybP1sl+8B0t7i0dZ7HPgYtJbg0f/D+ZH0+2hp
S8EQLgMEJn43j7tuWv5o/FU28kRgEFuUhDcVNU3wQXyA1lrfIdbbaWry16UHeX2K
BqRIRnZ1zz+M3/F0m4Bfkd34hS0nxjfBhVRFs79oBCdh/wIDAQABo4G9MIG6MAkG
A1UdEwQCMAAwHQYDVR0OBBYEFEUV3L/ob+uZdd3oEsYhZ7pAGpIDMFEGA1UdIwRK
MEiAFP7XHwkny3rx54ouLfUtcjO/XOhooRqkGDAWMRQwEgYDVQQDDAt0ZWFtNDcx
LW5ldIIUFBvzo2LDtneshfLAoOY8a7ASqdQwEwYDVR0lBAwwCgYIKwYBBQUHAwEw
CwYDVR0PBAQDAgWgMBkGA1UdEQQSMBCCDnRlYW00NzEtc2VydmVyMA0GCSqGSIb3
DQEBCwUAA4IBAQAmkRTn07FZdDMeyFcXRPAHRiuw3jhqcKw7QXMiwahg7n737f3F
IWUDbJbCqN2cAD5kO6HpE06byhvzGMweCAV24eN6/qAkMsQ53SRbMD4Y2gbO0qtY
TPmeYP/lxUp0nPmJK60/mGoDul7EeoqYD+XI2/Pyrt12FhlndJj1oRjxOYBtP8eN
lkAYae2pt7BMyzODJpZQ55ONaAxazhmsvnFhE2aKsTIMGOP7wADlF50BQtxaHNU3
cj/OBoKYcJWdXmL73PsCToftZCE6dwxEaX/25vDkS+I12V4pB4EgI3NC5KvFirUo
dwzi6djZL25UvlWJA1pn/2YtFYnpwi1q97pr
-----END CERTIFICATE-----
