Certificate:
    Data:
        Version: 3 (0x2)
        Serial Number:
            d2:74:e7:05:49:b3:35:41:36:dc:12:47:97:24:98:a3
        Signature Algorithm: sha256WithRSAEncryption
        Issuer: CN=team471-net
        Validity
            Not Before: Nov  4 10:48:57 2023 GMT
            Not After : Oct 19 10:48:57 2026 GMT
        Subject: CN=team471-client
        Subject Public Key Info:
            Public Key Algorithm: rsaEncryption
                Public-Key: (2048 bit)
                Modulus:
                    00:c3:6a:83:94:ee:71:f0:7d:d9:ae:f1:55:3c:5d:
                    d3:0d:46:d7:7e:1e:bc:40:18:b9:14:32:09:0a:6e:
                    04:ee:dc:1c:ee:4f:37:d2:af:2e:aa:9b:63:ff:b4:
                    08:f4:23:43:1b:99:b1:02:af:52:3d:19:c2:69:21:
                    6a:3c:26:02:46:59:c7:cb:b7:a3:e7:c4:67:cd:5a:
                    c6:6c:44:c6:98:1d:50:f9:5d:d4:ee:4b:1c:8a:55:
                    9e:04:e6:ad:ab:7f:20:46:ef:cb:2c:8c:32:5a:df:
                    ad:d3:13:87:68:56:10:26:35:5b:d0:8b:09:7b:5b:
                    af:8a:4a:19:c1:0f:43:6e:21:41:51:68:8f:ce:ac:
                    b5:64:d6:84:bd:ca:fd:1b:70:4c:f2:bd:b8:2f:94:
                    ee:8c:ed:fe:a5:d8:f4:d9:27:5c:d8:e3:12:af:19:
                    88:20:c4:86:3c:92:0d:14:89:ae:f0:52:db:ac:7b:
                    86:eb:bc:e9:24:22:5b:88:c8:5b:f9:b6:4e:c4:64:
                    06:da:bb:b4:12:32:00:b4:d5:06:c8:87:56:14:7b:
                    b2:f6:94:9e:b0:ad:65:17:29:52:a8:cb:09:4c:c1:
                    2c:cd:64:bf:1f:4a:58:3b:79:9f:30:e7:c9:84:7b:
                    6f:18:63:e5:d4:de:11:52:26:73:3c:62:56:ce:32:
                    b6:15
                Exponent: 65537 (0x10001)
        X509v3 extensions:
            X509v3 Basic Constraints: 
                CA:FALSE
            X509v3 Subject Key Identifier: 
                2A:16:8F:AA:C2:54:CB:D4:D8:86:C6:DD:44:B7:14:EA:B0:5B:E1:08
            X509v3 Authority Key Identifier: 
                keyid:FE:D7:1F:09:27:CB:7A:F1:E7:8A:2E:2D:F5:2D:72:33:BF:5C:E8:68
                DirName:/CN=team471-net
                serial:14:1B:F3:A3:62:C3:B6:77:AC:85:F2:C0:A0:E6:3C:6B:B0:12:A9:D4
            X509v3 Extended Key Usage: 
                TLS Web Client Authentication
            X509v3 Key Usage: 
                Digital Signature
    Signature Algorithm: sha256WithRSAEncryption
    Signature Value:
        b4:40:b5:22:45:dd:47:10:48:2b:26:ba:a0:53:55:01:f6:d6:
        ab:32:87:80:ac:fb:43:e4:2e:0e:06:ab:b6:4c:c4:85:52:15:
        2f:03:ef:cf:cb:a9:f0:4b:d0:a4:e7:9b:01:7b:ac:c4:7d:ea:
        5c:95:ca:46:3a:84:8e:8a:2e:4c:0d:db:1b:6d:3a:71:5b:6f:
        e4:4e:db:40:82:fa:85:ea:99:ce:20:5f:49:43:c4:f7:00:c0:
        41:d0:04:e2:f0:02:7b:f3:65:25:da:de:23:54:97:95:9c:31:
        9f:f7:83:57:82:30:84:0b:12:73:e1:a8:08:f9:f4:a6:e9:58:
        b3:b3:69:8f:56:1d:bc:24:60:a2:b7:e0:51:95:be:68:97:4b:
        71:8c:b0:5f:04:1e:cd:ca:95:ac:be:a8:e4:c3:ce:52:15:b7:
        f1:c8:1d:06:b3:86:69:84:af:f6:2d:8b:76:c8:55:1a:29:d0:
        9b:5b:0f:24:16:81:7e:66:4e:e4:16:c8:03:25:b4:78:57:f9:
        2a:fb:a2:0a:6d:a5:78:64:46:32:48:f2:33:24:aa:de:59:ac:
        3a:06:a9:b7:ad:6d:78:ba:9f:26:83:ad:87:cd:dd:dd:ab:7c:
        2b:36:c9:d7:c0:38:53:76:80:1e:2c:53:8e:c2:7f:b5:56:38:
        d0:38:13:70
-----BEGIN CERTIFICATE-----
MIIDXTCCAkWgAwIBAgIRANJ05wVJszVBNtwSR5ckmKMwDQYJKoZIhvcNAQELBQAw
FjEUMBIGA1UEAwwLdGVhbTQ3MS1uZXQwHhcNMjMxMTA0MTA0ODU3WhcNMjYxMDE5
MTA0ODU3WjAZMRcwFQYDVQQDDA50ZWFtNDcxLWNsaWVudDCCASIwDQYJKoZIhvcN
AQEBBQADggEPADCCAQoCggEBAMNqg5TucfB92a7xVTxd0w1G134evEAYuRQyCQpu
BO7cHO5PN9KvLqqbY/+0CPQjQxuZsQKvUj0ZwmkhajwmAkZZx8u3o+fEZ81axmxE
xpgdUPld1O5LHIpVngTmrat/IEbvyyyMMlrfrdMTh2hWECY1W9CLCXtbr4pKGcEP
Q24hQVFoj86stWTWhL3K/RtwTPK9uC+U7ozt/qXY9NknXNjjEq8ZiCDEhjySDRSJ
rvBS26x7huu86SQiW4jIW/m2TsRkBtq7tBIyALTVBsiHVhR7svaUnrCtZRcpUqjL
CUzBLM1kvx9KWDt5nzDnyYR7bxhj5dTeEVImczxiVs4ythUCAwEAAaOBojCBnzAJ
BgNVHRMEAjAAMB0GA1UdDgQWBBQqFo+qwlTL1NiGxt1EtxTqsFvhCDBRBgNVHSME
SjBIgBT+1x8JJ8t68eeKLi31LXIzv1zoaKEapBgwFjEUMBIGA1UEAwwLdGVhbTQ3
MS1uZXSCFBQb86Niw7Z3rIXywKDmPGuwEqnUMBMGA1UdJQQMMAoGCCsGAQUFBwMC
MAsGA1UdDwQEAwIHgDANBgkqhkiG9w0BAQsFAAOCAQEAtEC1IkXdRxBIKya6oFNV
AfbWqzKHgKz7Q+QuDgartkzEhVIVLwPvz8up8EvQpOebAXusxH3qXJXKRjqEjoou
TA3bG206cVtv5E7bQIL6heqZziBfSUPE9wDAQdAE4vACe/NlJdreI1SXlZwxn/eD
V4IwhAsSc+GoCPn0pulYs7Npj1YdvCRgorfgUZW+aJdLcYywXwQezcqVrL6o5MPO
UhW38cgdBrOGaYSv9i2LdshVGinQm1sPJBaBfmZO5BbIAyW0eFf5KvuiCm2leGRG
MkjyMySq3lmsOgapt61teLqfJoOth83d3at8KzbJ18A4U3aAHixTjsJ/tVY40DgT
cA==
-----END CERTIFICATE-----
