Certificate:
    Data:
        Version: 3 (0x2)
        Serial Number:
            f2:4b:6e:ae:7a:6f:07:96:56:e8:b9:50:cb:4f:b1:72
        Signature Algorithm: sha256WithRSAEncryption
        Issuer: CN=team471-net
        Validity
            Not Before: Nov  4 11:38:11 2023 GMT
            Not After : Oct 19 11:38:11 2026 GMT
        Subject: CN=team471-server
        Subject Public Key Info:
            Public Key Algorithm: rsaEncryption
                Public-Key: (2048 bit)
                Modulus:
                    00:9c:89:41:98:29:1e:05:53:fc:3c:a3:38:45:29:
                    a0:a6:bb:8c:f0:21:ce:1f:ab:9f:5e:e6:03:7e:9a:
                    f7:48:9f:5b:53:fe:71:f4:55:94:fc:f5:b8:ff:cc:
                    79:c6:2d:df:a4:85:bb:f8:ad:11:18:cd:0b:35:49:
                    4d:80:05:b1:53:3b:22:45:f4:d8:ef:15:6c:60:f3:
                    c3:c2:bb:67:b8:e8:9b:2a:87:a6:68:51:10:9b:84:
                    8c:97:2d:0e:58:55:b4:05:0c:b1:4e:7a:ab:75:15:
                    80:e8:45:79:98:1a:b2:1f:10:40:18:a4:61:6a:49:
                    20:ff:4e:ab:db:9c:34:0b:f2:c1:7e:ba:1a:86:0b:
                    d7:83:2f:a8:7d:a8:2f:90:e5:5e:8a:0d:fd:22:1c:
                    b8:81:79:6d:8c:fa:b5:9c:31:cf:6f:7a:52:29:18:
                    14:63:0f:aa:31:35:2a:b2:48:b3:3b:79:a5:00:18:
                    3a:7a:13:f2:1b:8f:5f:51:14:dc:7e:56:b5:f2:a2:
                    ea:7a:3c:74:76:c3:a9:a1:4a:02:d4:f8:da:01:71:
                    d9:0c:09:56:09:28:39:43:d7:cf:56:42:cc:30:0d:
                    31:19:63:86:2e:66:fa:9f:82:e0:40:f6:b5:66:90:
                    e3:06:4d:36:ee:d9:1c:b3:3f:4d:71:d2:aa:77:5f:
                    e5:01
                Exponent: 65537 (0x10001)
        X509v3 extensions:
            X509v3 Basic Constraints: 
                CA:FALSE
            X509v3 Subject Key Identifier: 
                CD:53:F5:5C:32:01:49:BA:D9:0F:4F:97:CE:BF:31:11:D0:0D:1A:F4
            X509v3 Authority Key Identifier: 
                keyid:B1:3A:3C:D2:73:B2:71:CE:16:48:55:3D:36:17:F3:70:5A:AE:23:E1
                DirName:/CN=team471-net
                serial:39:73:1E:51:3A:A3:7F:7C:C3:AB:AA:02:BE:8E:3F:1E:CB:E0:FA:60
            X509v3 Extended Key Usage: 
                TLS Web Server Authentication
            X509v3 Key Usage: 
                Digital Signature, Key Encipherment
            X509v3 Subject Alternative Name: 
                DNS:team471-server
    Signature Algorithm: sha256WithRSAEncryption
    Signature Value:
        a6:d0:66:75:98:8c:7b:da:f3:41:dc:c1:cf:70:69:a6:1d:aa:
        1c:48:41:0b:cf:b4:2b:38:ed:4c:15:42:d1:8b:4a:9c:e1:f0:
        ed:80:2d:13:b7:50:c3:3e:e8:5c:bf:e9:c1:5d:be:1e:de:eb:
        2d:00:fe:42:9b:b6:0d:82:44:68:8b:45:28:67:85:b4:e8:30:
        1c:78:0e:e0:cc:87:65:e8:c5:3d:b3:8d:5f:95:19:77:41:aa:
        ef:3b:d8:7b:b3:3d:30:7d:39:90:43:ed:9c:60:6a:d5:11:11:
        dd:ef:95:ca:bd:2a:2c:d6:00:17:a5:0d:e3:54:13:a8:28:e4:
        b6:55:48:dd:76:12:d2:ae:33:bc:69:92:cf:24:01:73:01:cc:
        26:04:b0:c3:fa:ac:08:c6:ae:3c:c0:8b:be:ef:79:c0:eb:cb:
        2f:82:f6:de:16:50:74:fa:81:70:d1:47:70:a4:05:f3:8a:55:
        46:29:64:5f:0c:e7:65:c2:f8:01:13:2e:17:e5:0f:c7:ff:9e:
        3e:1f:fb:93:35:d9:d5:08:4f:52:1f:92:80:70:24:6f:60:4c:
        53:f3:f1:9f:a5:0e:37:c6:52:ae:ed:e4:76:42:90:f2:b9:c3:
        d0:4c:16:b9:4c:e4:78:58:36:f6:7b:09:f1:19:d9:41:ed:a8:
        ee:a7:ef:d4
-----BEGIN CERTIFICATE-----
MIIDeDCCAmCgAwIBAgIRAPJLbq56bweWVui5UMtPsXIwDQYJKoZIhvcNAQELBQAw
FjEUMBIGA1UEAwwLdGVhbTQ3MS1uZXQwHhcNMjMxMTA0MTEzODExWhcNMjYxMDE5
MTEzODExWjAZMRcwFQYDVQQDDA50ZWFtNDcxLXNlcnZlcjCCASIwDQYJKoZIhvcN
AQEBBQADggEPADCCAQoCggEBAJyJQZgpHgVT/DyjOEUpoKa7jPAhzh+rn17mA36a
90ifW1P+cfRVlPz1uP/MecYt36SFu/itERjNCzVJTYAFsVM7IkX02O8VbGDzw8K7
Z7jomyqHpmhREJuEjJctDlhVtAUMsU56q3UVgOhFeZgash8QQBikYWpJIP9Oq9uc
NAvywX66GoYL14MvqH2oL5DlXooN/SIcuIF5bYz6tZwxz296UikYFGMPqjE1KrJI
szt5pQAYOnoT8huPX1EU3H5WtfKi6no8dHbDqaFKAtT42gFx2QwJVgkoOUPXz1ZC
zDANMRljhi5m+p+C4ED2tWaQ4wZNNu7ZHLM/TXHSqndf5QECAwEAAaOBvTCBujAJ
BgNVHRMEAjAAMB0GA1UdDgQWBBTNU/VcMgFJutkPT5fOvzER0A0a9DBRBgNVHSME
SjBIgBSxOjzSc7JxzhZIVT02F/NwWq4j4aEapBgwFjEUMBIGA1UEAwwLdGVhbTQ3
MS1uZXSCFDlzHlE6o398w6uqAr6OPx7L4PpgMBMGA1UdJQQMMAoGCCsGAQUFBwMB
MAsGA1UdDwQEAwIFoDAZBgNVHREEEjAQgg50ZWFtNDcxLXNlcnZlcjANBgkqhkiG
9w0BAQsFAAOCAQEAptBmdZiMe9rzQdzBz3Bpph2qHEhBC8+0KzjtTBVC0YtKnOHw
7YAtE7dQwz7oXL/pwV2+Ht7rLQD+Qpu2DYJEaItFKGeFtOgwHHgO4MyHZejFPbON
X5UZd0Gq7zvYe7M9MH05kEPtnGBq1RER3e+Vyr0qLNYAF6UN41QTqCjktlVI3XYS
0q4zvGmSzyQBcwHMJgSww/qsCMauPMCLvu95wOvLL4L23hZQdPqBcNFHcKQF84pV
RilkXwznZcL4ARMuF+UPx/+ePh/7kzXZ1QhPUh+SgHAkb2BMU/Pxn6UON8ZSru3k
dkKQ8rnD0EwWuUzkeFg29nsJ8RnZQe2o7qfv1A==
-----END CERTIFICATE-----
