Certificate:
    Data:
        Version: 3 (0x2)
        Serial Number:
            76:ac:2a:f7:c5:8f:1a:4d:82:96:5c:b3:57:7f:5b:80
        Signature Algorithm: sha256WithRSAEncryption
        Issuer: CN=team74-net
        Validity
            Not Before: Nov  4 10:41:45 2023 GMT
            Not After : Oct 19 10:41:45 2026 GMT
        Subject: CN=team74-server
        Subject Public Key Info:
            Public Key Algorithm: rsaEncryption
                Public-Key: (2048 bit)
                Modulus:
                    00:c5:89:e5:a4:2f:e3:b0:10:81:47:10:b9:82:02:
                    30:85:54:63:d2:89:21:91:fe:e1:82:4f:15:19:75:
                    67:1d:e7:6f:2e:0a:02:1a:91:00:a7:e1:6a:80:70:
                    02:f0:bc:8f:ef:b5:36:87:f2:55:cc:6f:cb:2e:8d:
                    e1:bd:25:26:ee:f3:9d:88:1c:7d:a0:8d:50:1b:17:
                    b5:25:65:8e:35:b6:ea:7c:21:98:29:1b:66:c4:89:
                    72:e6:9b:b0:78:69:82:d3:86:a9:fe:ab:23:f3:f8:
                    ed:56:74:78:5e:83:ff:f1:41:36:42:b1:ba:ec:56:
                    21:26:f9:d7:c2:25:b3:ab:c4:b6:87:3a:3f:f8:e3:
                    c5:22:36:c8:a3:6a:fb:69:db:70:7b:3b:c9:42:f9:
                    fa:4d:cb:51:03:fe:cd:c4:7b:5a:fd:94:bb:74:0d:
                    18:0a:3d:1e:d8:f4:6b:01:fe:6e:44:48:b3:fd:4a:
                    89:a6:5b:5e:ef:1c:f6:32:d5:73:47:b0:80:2e:60:
                    3c:ff:72:0a:34:ae:1b:58:15:5a:14:0a:9b:2d:52:
                    b8:8f:b8:d7:ac:e7:f0:9e:77:22:13:ed:4b:3b:c0:
                    7d:37:33:b6:f0:60:27:83:75:38:2f:47:9a:6c:79:
                    2e:aa:fe:b8:48:04:18:8d:4c:e4:14:54:53:b8:15:
                    62:cf
                Exponent: 65537 (0x10001)
        X509v3 extensions:
            X509v3 Basic Constraints: 
                CA:FALSE
            X509v3 Subject Key Identifier: 
                89:6B:A0:A0:F3:79:4E:4B:D6:8E:3B:25:D0:77:14:E8:D7:7E:62:65
            X509v3 Authority Key Identifier: 
                keyid:81:B5:38:43:42:7F:DD:AA:80:50:E2:78:09:33:F3:50:D7:7F:01:18
                DirName:/CN=team74-net
                serial:1F:C9:93:6B:9B:18:54:F4:B8:17:6B:9C:CC:E6:E6:7D:F5:76:C3:8F
            X509v3 Extended Key Usage: 
                TLS Web Server Authentication
            X509v3 Key Usage: 
                Digital Signature, Key Encipherment
            X509v3 Subject Alternative Name: 
                DNS:team74-server
    Signature Algorithm: sha256WithRSAEncryption
    Signature Value:
        60:81:dd:5e:33:19:22:35:ee:5b:22:f4:16:d2:bd:20:b3:27:
        b8:5c:06:57:e6:4c:56:2c:69:74:5f:63:69:e0:7c:bf:bb:9c:
        15:f2:37:31:fe:ba:f9:fe:65:a1:0f:4c:da:c5:c5:5e:ff:99:
        4e:9d:c1:77:a7:77:f9:20:78:45:0f:82:0c:bb:53:4e:3e:69:
        e6:b6:9d:49:d9:fc:4f:11:10:3e:a3:f2:d9:29:a8:c9:10:f6:
        e5:e8:64:32:fd:d6:18:c8:db:51:5a:ae:1e:a7:cc:7e:8c:48:
        16:f2:e0:e8:2e:ee:1f:ac:65:4a:05:0b:81:ac:03:14:8b:ac:
        5d:c3:b4:8e:5f:6d:c2:a8:36:69:e5:ac:dd:44:77:ae:e0:52:
        72:9e:0a:87:cd:df:eb:b1:c2:2b:d3:cb:32:b5:44:c7:fb:25:
        2a:03:9e:47:bb:84:ed:ee:8a:e4:92:71:b2:0b:ed:97:bd:91:
        c0:f6:2b:77:f9:7f:8f:71:a7:21:71:52:17:aa:f2:65:18:51:
        f6:6d:71:38:40:2e:c0:db:5a:f4:9c:a4:ff:36:77:cd:ea:b2:
        32:0e:c0:4e:77:b8:32:93:89:d9:fa:b6:2c:d3:f3:ca:1a:ce:
        81:4b:61:6e:8f:e7:5c:70:cf:85:6b:e7:b6:97:d2:10:75:da:
        4a:8e:1c:1c
-----BEGIN CERTIFICATE-----
MIIDczCCAlugAwIBAgIQdqwq98WPGk2CllyzV39bgDANBgkqhkiG9w0BAQsFADAV
MRMwEQYDVQQDDAp0ZWFtNzQtbmV0MB4XDTIzMTEwNDEwNDE0NVoXDTI2MTAxOTEw
NDE0NVowGDEWMBQGA1UEAwwNdGVhbTc0LXNlcnZlcjCCASIwDQYJKoZIhvcNAQEB
BQADggEPADCCAQoCggEBAMWJ5aQv47AQgUcQuYICMIVUY9KJIZH+4YJPFRl1Zx3n
by4KAhqRAKfhaoBwAvC8j++1NofyVcxvyy6N4b0lJu7znYgcfaCNUBsXtSVljjW2
6nwhmCkbZsSJcuabsHhpgtOGqf6rI/P47VZ0eF6D//FBNkKxuuxWISb518Ils6vE
toc6P/jjxSI2yKNq+2nbcHs7yUL5+k3LUQP+zcR7Wv2Uu3QNGAo9Htj0awH+bkRI
s/1KiaZbXu8c9jLVc0ewgC5gPP9yCjSuG1gVWhQKmy1SuI+416zn8J53IhPtSzvA
fTcztvBgJ4N1OC9Hmmx5Lqr+uEgEGI1M5BRUU7gVYs8CAwEAAaOBuzCBuDAJBgNV
HRMEAjAAMB0GA1UdDgQWBBSJa6Cg83lOS9aOOyXQdxTo135iZTBQBgNVHSMESTBH
gBSBtThDQn/dqoBQ4ngJM/NQ138BGKEZpBcwFTETMBEGA1UEAwwKdGVhbTc0LW5l
dIIUH8mTa5sYVPS4F2uczObmffV2w48wEwYDVR0lBAwwCgYIKwYBBQUHAwEwCwYD
VR0PBAQDAgWgMBgGA1UdEQQRMA+CDXRlYW03NC1zZXJ2ZXIwDQYJKoZIhvcNAQEL
BQADggEBAGCB3V4zGSI17lsi9BbSvSCzJ7hcBlfmTFYsaXRfY2ngfL+7nBXyNzH+
uvn+ZaEPTNrFxV7/mU6dwXend/kgeEUPggy7U04+aea2nUnZ/E8RED6j8tkpqMkQ
9uXoZDL91hjI21Farh6nzH6MSBby4Ogu7h+sZUoFC4GsAxSLrF3DtI5fbcKoNmnl
rN1Ed67gUnKeCofN3+uxwivTyzK1RMf7JSoDnke7hO3uiuSScbIL7Ze9kcD2K3f5
f49xpyFxUheq8mUYUfZtcThALsDbWvScpP82d83qsjIOwE53uDKTidn6tizT88oa
zoFLYW6P51xwz4Vr57aX0hB12kqOHBw=
-----END CERTIFICATE-----
