Certificate:
    Data:
        Version: 3 (0x2)
        Serial Number:
            af:43:11:81:28:48:c0:33:86:16:5b:86:ac:6c:18:35
        Signature Algorithm: sha256WithRSAEncryption
        Issuer: CN=team74-net
        Validity
            Not Before: Nov  4 11:28:49 2023 GMT
            Not After : Oct 19 11:28:49 2026 GMT
        Subject: CN=team74-server
        Subject Public Key Info:
            Public Key Algorithm: rsaEncryption
                Public-Key: (2048 bit)
                Modulus:
                    00:d9:86:7e:0b:30:51:1c:b8:d4:bf:99:5d:73:20:
                    ac:4c:28:8c:ff:e7:30:46:6d:6c:08:b5:34:69:94:
                    30:b5:c9:de:60:9c:66:7c:27:1c:a6:ce:e1:b5:c7:
                    18:fc:1b:3f:cd:de:1c:70:bb:f7:44:62:e2:0d:91:
                    63:46:39:14:89:0c:33:0b:a5:96:a6:de:e6:3f:fd:
                    0a:51:b9:8a:c9:38:3a:84:5d:69:e7:b3:fc:e9:b8:
                    73:e3:0e:5b:93:71:fd:a8:3e:6e:af:ca:ea:a3:54:
                    fd:61:49:a5:35:44:35:ae:05:27:99:7a:e5:cb:72:
                    20:ae:cf:d7:ec:0e:ff:04:49:45:62:a9:6c:9f:b2:
                    0d:26:bf:ac:6a:b5:8e:68:ca:6b:d5:07:c8:25:98:
                    99:4b:39:d8:c7:42:a2:02:e4:2d:45:59:eb:c7:39:
                    57:77:fc:2b:4a:ba:00:ff:5a:ae:0c:a6:57:c1:ac:
                    80:db:b8:4f:49:63:45:c1:da:46:d4:18:cb:b0:9d:
                    54:a3:e5:a1:2d:75:c5:ca:fd:e9:8d:30:fa:71:8a:
                    7f:e9:b1:d5:55:fe:05:57:7f:0a:5d:c7:a3:b4:ff:
                    cf:7c:cf:af:f7:7b:d6:2d:8a:35:ca:61:53:3c:5d:
                    ad:0a:c2:81:f5:90:28:4c:27:2d:87:13:99:9f:7d:
                    02:cf
                Exponent: 65537 (0x10001)
        X509v3 extensions:
            X509v3 Basic Constraints: 
                CA:FALSE
            X509v3 Subject Key Identifier: 
                30:2B:C7:05:D9:E0:27:41:A5:E1:E7:39:F2:C3:6A:9C:3E:EF:93:0A
            X509v3 Authority Key Identifier: 
                keyid:9A:41:0C:E7:3C:91:8D:4B:52:DB:53:2B:D5:0B:01:8C:D0:2E:75:E2
                DirName:/CN=team74-net
                serial:5D:B9:8F:B9:59:E2:74:73:90:A0:F0:C1:3D:17:19:1B:C5:AE:2C:48
            X509v3 Extended Key Usage: 
                TLS Web Server Authentication
            X509v3 Key Usage: 
                Digital Signature, Key Encipherment
            X509v3 Subject Alternative Name: 
                DNS:team74-server
    Signature Algorithm: sha256WithRSAEncryption
    Signature Value:
        77:96:66:d9:bc:a9:09:e6:95:5b:27:77:7e:67:33:13:ef:d6:
        1d:2d:68:1d:ca:82:9a:bb:de:a6:46:68:9f:3e:70:37:48:63:
        c9:48:b9:44:45:e1:e4:5a:bd:8d:92:d0:07:6f:af:7e:02:be:
        8d:23:96:8d:f9:cc:a8:e3:b8:ef:81:8f:29:e5:d9:05:7f:e2:
        c6:bd:fc:25:02:51:79:10:dc:85:f9:16:e1:ec:5f:d9:f8:76:
        e0:07:df:91:48:ca:1d:db:4e:91:c9:06:b4:8f:d9:d8:62:ac:
        ca:d8:75:2c:32:68:7e:e8:84:48:3f:a4:57:bb:93:f6:16:13:
        f9:9a:07:ff:a0:b3:cd:dc:b8:56:97:78:76:34:3c:20:5a:de:
        33:2c:4b:53:31:48:95:47:c6:13:7f:c1:83:1e:4d:c7:43:76:
        1f:a4:26:f4:82:9c:20:dd:8a:0e:3b:1c:7e:e1:2c:33:9d:30:
        ac:b4:ce:66:27:43:8e:ef:c5:4b:12:c8:52:2d:86:f0:11:70:
        44:5e:fb:a3:f0:8f:62:08:57:c2:48:53:29:fb:2f:6d:6b:08:
        47:90:e6:83:a4:1b:7d:11:6e:c2:86:6e:3a:1c:02:74:9f:61:
        eb:9c:da:89:06:4b:18:7e:ee:22:e0:c8:77:53:9a:14:3e:cd:
        a3:13:be:ad
-----BEGIN CERTIFICATE-----
MIIDdDCCAlygAwIBAgIRAK9DEYEoSMAzhhZbhqxsGDUwDQYJKoZIhvcNAQELBQAw
FTETMBEGA1UEAwwKdGVhbTc0LW5ldDAeFw0yMzExMDQxMTI4NDlaFw0yNjEwMTkx
MTI4NDlaMBgxFjAUBgNVBAMMDXRlYW03NC1zZXJ2ZXIwggEiMA0GCSqGSIb3DQEB
AQUAA4IBDwAwggEKAoIBAQDZhn4LMFEcuNS/mV1zIKxMKIz/5zBGbWwItTRplDC1
yd5gnGZ8JxymzuG1xxj8Gz/N3hxwu/dEYuINkWNGORSJDDMLpZam3uY//QpRuYrJ
ODqEXWnns/zpuHPjDluTcf2oPm6vyuqjVP1hSaU1RDWuBSeZeuXLciCuz9fsDv8E
SUViqWyfsg0mv6xqtY5oymvVB8glmJlLOdjHQqIC5C1FWevHOVd3/CtKugD/Wq4M
plfBrIDbuE9JY0XB2kbUGMuwnVSj5aEtdcXK/emNMPpxin/psdVV/gVXfwpdx6O0
/898z6/3e9YtijXKYVM8Xa0KwoH1kChMJy2HE5mffQLPAgMBAAGjgbswgbgwCQYD
VR0TBAIwADAdBgNVHQ4EFgQUMCvHBdngJ0Gl4ec58sNqnD7vkwowUAYDVR0jBEkw
R4AUmkEM5zyRjUtS21Mr1QsBjNAudeKhGaQXMBUxEzARBgNVBAMMCnRlYW03NC1u
ZXSCFF25j7lZ4nRzkKDwwT0XGRvFrixIMBMGA1UdJQQMMAoGCCsGAQUFBwMBMAsG
A1UdDwQEAwIFoDAYBgNVHREEETAPgg10ZWFtNzQtc2VydmVyMA0GCSqGSIb3DQEB
CwUAA4IBAQB3lmbZvKkJ5pVbJ3d+ZzMT79YdLWgdyoKau96mRmifPnA3SGPJSLlE
ReHkWr2NktAHb69+Ar6NI5aN+cyo47jvgY8p5dkFf+LGvfwlAlF5ENyF+Rbh7F/Z
+HbgB9+RSMod206RyQa0j9nYYqzK2HUsMmh+6IRIP6RXu5P2FhP5mgf/oLPN3LhW
l3h2NDwgWt4zLEtTMUiVR8YTf8GDHk3HQ3YfpCb0gpwg3YoOOxx+4SwznTCstM5m
J0OO78VLEshSLYbwEXBEXvuj8I9iCFfCSFMp+y9tawhHkOaDpBt9EW7Chm46HAJ0
n2HrnNqJBksYfu4i4Mh3U5oUPs2jE76t
-----END CERTIFICATE-----
