Certificate:
    Data:
        Version: 3 (0x2)
        Serial Number:
            bf:22:98:e5:ea:cc:29:57:12:28:1d:a4:03:4f:90:34
        Signature Algorithm: sha256WithRSAEncryption
        Issuer: CN=team74-net
        Validity
            Not Before: Nov  4 11:28:49 2023 GMT
            Not After : Oct 19 11:28:49 2026 GMT
        Subject: CN=team74-client
        Subject Public Key Info:
            Public Key Algorithm: rsaEncryption
                Public-Key: (2048 bit)
                Modulus:
                    00:bf:96:e4:24:9a:32:e4:d4:5c:73:49:ac:75:61:
                    ca:69:2d:cc:9d:fe:e5:db:21:f8:71:30:48:1d:cf:
                    e1:43:62:71:52:1b:d1:b9:ce:12:42:5f:ae:43:d0:
                    8a:e3:c6:85:8a:49:21:73:b0:96:9c:ff:a2:4b:df:
                    28:9f:fb:2a:e3:1c:5e:16:fe:22:43:fc:a0:85:bd:
                    66:ea:d7:bd:fc:43:0d:8d:0b:4b:b4:9d:69:17:9f:
                    50:89:5c:51:32:fd:fa:0b:0c:e3:49:b9:1a:94:75:
                    b1:24:a2:69:2a:c2:7e:cb:c0:5e:4d:1b:92:48:d8:
                    0f:9b:47:83:07:f0:54:81:6a:3e:9f:51:40:90:93:
                    16:dc:b3:a5:4d:b5:96:f0:96:c1:74:37:0a:df:7a:
                    6e:f9:16:8d:c4:57:6d:6b:74:e0:9a:be:6e:64:53:
                    64:32:99:e4:e7:83:2d:b0:34:ec:d1:92:e0:39:0b:
                    66:98:40:d0:b4:4f:20:1a:00:75:b9:09:ba:46:da:
                    f3:de:91:98:67:cf:c6:42:aa:05:a3:74:a8:92:b8:
                    01:0d:5c:42:b7:87:b2:6a:31:53:ff:33:c3:08:a6:
                    8c:2d:21:ad:2b:0e:a3:12:7c:78:77:14:a9:a9:88:
                    97:4d:c0:ec:86:c9:a1:be:33:9f:32:17:03:13:17:
                    3c:c3
                Exponent: 65537 (0x10001)
        X509v3 extensions:
            X509v3 Basic Constraints: 
                CA:FALSE
            X509v3 Subject Key Identifier: 
                56:45:D5:83:AC:DE:43:11:CB:3D:37:C5:8E:67:5F:39:C3:19:96:51
            X509v3 Authority Key Identifier: 
                keyid:9A:41:0C:E7:3C:91:8D:4B:52:DB:53:2B:D5:0B:01:8C:D0:2E:75:E2
                DirName:/CN=team74-net
                serial:5D:B9:8F:B9:59:E2:74:73:90:A0:F0:C1:3D:17:19:1B:C5:AE:2C:48
            X509v3 Extended Key Usage: 
                TLS Web Client Authentication
            X509v3 Key Usage: 
                Digital Signature
    Signature Algorithm: sha256WithRSAEncryption
    Signature Value:
        25:54:2b:3f:34:18:0c:84:52:13:23:73:31:a5:40:93:e9:96:
        4b:7e:17:38:11:25:12:d2:dd:a4:a1:ae:8f:9a:d5:e1:b2:a9:
        5f:f4:a7:2b:d9:5a:69:c3:79:1b:bf:31:fa:93:c9:4c:77:d3:
        9e:ef:ae:8b:a1:29:79:45:0c:d4:85:ca:11:f5:ed:d3:eb:87:
        31:9c:c4:f0:43:54:4a:5e:21:75:ff:ad:ca:24:a4:1e:f7:f4:
        32:ec:fb:5d:2e:90:f6:93:08:c1:08:7d:2d:ca:0e:ff:f7:89:
        2b:ca:cf:24:2a:c1:4b:92:6b:19:86:8f:34:4c:58:9f:9a:6f:
        12:e1:6b:a8:3a:91:63:9f:72:a7:18:bb:fe:3d:a4:7c:6c:56:
        66:f7:b1:2e:31:6b:35:a4:57:6c:88:6f:5c:12:c3:f6:0a:c1:
        79:9f:eb:55:9c:ce:e4:23:52:9f:94:60:21:07:a1:52:21:c3:
        a4:6a:0b:f7:d0:4d:16:a8:84:45:0b:48:98:90:dd:b1:a8:a5:
        1f:a0:7c:0d:c0:5f:dc:17:fa:20:31:ef:f1:8e:17:1f:dd:ae:
        1a:39:e3:11:8e:16:fa:9d:c6:b7:ba:7c:8d:2f:70:ed:67:84:
        22:c4:38:51:4c:84:f3:1b:ff:a0:58:5d:3a:a9:e5:14:f7:01:
        ea:69:63:4a
-----BEGIN CERTIFICATE-----
MIIDWjCCAkKgAwIBAgIRAL8imOXqzClXEigdpANPkDQwDQYJKoZIhvcNAQELBQAw
FTETMBEGA1UEAwwKdGVhbTc0LW5ldDAeFw0yMzExMDQxMTI4NDlaFw0yNjEwMTkx
MTI4NDlaMBgxFjAUBgNVBAMMDXRlYW03NC1jbGllbnQwggEiMA0GCSqGSIb3DQEB
AQUAA4IBDwAwggEKAoIBAQC/luQkmjLk1FxzSax1YcppLcyd/uXbIfhxMEgdz+FD
YnFSG9G5zhJCX65D0IrjxoWKSSFzsJac/6JL3yif+yrjHF4W/iJD/KCFvWbq1738
Qw2NC0u0nWkXn1CJXFEy/foLDONJuRqUdbEkomkqwn7LwF5NG5JI2A+bR4MH8FSB
aj6fUUCQkxbcs6VNtZbwlsF0Nwrfem75Fo3EV21rdOCavm5kU2QymeTngy2wNOzR
kuA5C2aYQNC0TyAaAHW5CbpG2vPekZhnz8ZCqgWjdKiSuAENXEK3h7JqMVP/M8MI
powtIa0rDqMSfHh3FKmpiJdNwOyGyaG+M58yFwMTFzzDAgMBAAGjgaEwgZ4wCQYD
VR0TBAIwADAdBgNVHQ4EFgQUVkXVg6zeQxHLPTfFjmdfOcMZllEwUAYDVR0jBEkw
R4AUmkEM5zyRjUtS21Mr1QsBjNAudeKhGaQXMBUxEzARBgNVBAMMCnRlYW03NC1u
ZXSCFF25j7lZ4nRzkKDwwT0XGRvFrixIMBMGA1UdJQQMMAoGCCsGAQUFBwMCMAsG
A1UdDwQEAwIHgDANBgkqhkiG9w0BAQsFAAOCAQEAJVQrPzQYDIRSEyNzMaVAk+mW
S34XOBElEtLdpKGuj5rV4bKpX/SnK9laacN5G78x+pPJTHfTnu+ui6EpeUUM1IXK
EfXt0+uHMZzE8ENUSl4hdf+tyiSkHvf0Muz7XS6Q9pMIwQh9LcoO//eJK8rPJCrB
S5JrGYaPNExYn5pvEuFrqDqRY59ypxi7/j2kfGxWZvexLjFrNaRXbIhvXBLD9grB
eZ/rVZzO5CNSn5RgIQehUiHDpGoL99BNFqiERQtImJDdsailH6B8DcBf3Bf6IDHv
8Y4XH92uGjnjEY4W+p3Gt7p8jS9w7WeEIsQ4UUyE8xv/oFhdOqnlFPcB6mljSg==
-----END CERTIFICATE-----
