Certificate:
    Data:
        Version: 3 (0x2)
        Serial Number:
            5e:0d:6a:f6:18:23:44:a6:3b:7e:a6:99:79:b2:2c:38
        Signature Algorithm: sha256WithRSAEncryption
        Issuer: CN=team124-net
        Validity
            Not Before: Nov  4 10:42:47 2023 GMT
            Not After : Oct 19 10:42:47 2026 GMT
        Subject: CN=team124-server
        Subject Public Key Info:
            Public Key Algorithm: rsaEncryption
                Public-Key: (2048 bit)
                Modulus:
                    00:aa:ad:c5:f5:df:4f:35:98:96:14:ff:b2:19:9f:
                    53:46:9b:c0:5b:c6:3d:a4:30:4d:69:3d:d1:c3:98:
                    bd:85:0a:19:a8:30:b0:db:91:55:e7:d2:ba:25:eb:
                    44:10:12:93:6f:01:35:bd:42:90:21:3a:04:0f:5a:
                    ba:5a:6b:71:15:57:38:8e:9c:d1:ad:cb:1f:b7:ae:
                    56:02:4d:82:dc:63:c2:fc:58:4e:03:6c:70:ff:b3:
                    f5:ba:1c:46:ba:c3:49:58:cc:09:92:5a:5a:2d:cf:
                    ac:ac:3b:fd:de:eb:65:c0:1a:5b:ff:e8:62:c5:77:
                    ea:ce:c7:c0:93:03:e5:cf:5e:0d:0c:6a:14:f1:d6:
                    5e:53:4e:fb:dc:fd:9d:ff:4e:60:b1:5f:07:54:a0:
                    67:7b:01:23:77:57:b3:d7:a6:6c:44:b4:9c:75:28:
                    15:02:8c:4a:ad:16:0f:7d:fb:d6:41:dd:a6:77:19:
                    67:2e:f5:47:a0:a8:72:31:5a:bd:eb:87:fc:b7:fd:
                    8f:a9:89:24:18:61:90:b5:6a:2e:e1:3e:95:b2:c1:
                    45:9b:92:53:40:77:76:bb:18:af:e8:45:e8:a0:d7:
                    4b:a6:2b:04:cd:9f:bb:ff:8f:89:14:e5:6f:22:06:
                    3d:65:67:06:61:70:d8:b4:f3:1c:a7:7e:e3:82:05:
                    13:2f
                Exponent: 65537 (0x10001)
        X509v3 extensions:
            X509v3 Basic Constraints: 
                CA:FALSE
            X509v3 Subject Key Identifier: 
                FE:97:D4:7A:29:2D:43:3F:9A:46:EA:C2:11:0D:96:18:21:F5:7E:EB
            X509v3 Authority Key Identifier: 
                keyid:21:CA:1A:EA:E8:D3:F9:22:0A:A8:98:70:61:78:B5:22:98:CC:85:27
                DirName:/CN=team124-net
                serial:51:E7:F8:12:58:A3:C4:E9:2F:78:E9:9B:AC:F5:50:CA:5B:62:A6:D5
            X509v3 Extended Key Usage: 
                TLS Web Server Authentication
            X509v3 Key Usage: 
                Digital Signature, Key Encipherment
            X509v3 Subject Alternative Name: 
                DNS:team124-server
    Signature Algorithm: sha256WithRSAEncryption
    Signature Value:
        0d:b3:7b:fa:ce:39:21:b6:ca:37:d1:93:8c:9c:55:0d:3a:59:
        4b:e1:b1:d6:6e:f1:f0:f9:60:fc:5f:39:bd:9b:c8:8f:3e:26:
        6c:3a:3d:83:1a:f7:9d:54:6e:e7:42:2f:1f:ad:51:c7:14:25:
        16:83:dd:40:46:21:25:f3:5c:48:5f:20:7b:7b:14:3c:f1:49:
        cb:76:15:ce:cf:d7:8e:70:77:2c:3e:bd:13:90:0e:1a:a5:b1:
        0f:26:b1:2f:4d:b9:15:1f:d3:ce:ee:06:13:a2:52:46:31:e8:
        30:d6:f2:e6:4b:e8:b1:38:23:a5:9b:26:66:bf:b6:1d:dd:2a:
        eb:af:8a:bc:bd:78:76:8e:ce:5c:7f:8f:b9:ed:89:50:e3:d7:
        50:53:8a:f7:95:28:fd:c1:5d:ac:77:3a:15:c8:ae:88:6f:fd:
        f1:4e:6f:49:8a:7a:30:85:e4:b9:80:18:6e:84:8a:c4:c7:24:
        43:57:7d:f0:3d:b9:60:72:f5:25:e2:49:65:3b:20:ee:75:1e:
        57:5a:ef:60:26:8b:c3:5f:8a:b2:02:73:07:0c:e1:f4:4b:2b:
        74:5d:1c:69:d8:66:73:4c:34:45:a1:22:bb:65:4b:05:4a:a0:
        f4:d0:ad:1b:36:bd:17:9f:4d:1e:bf:03:71:d8:50:8a:65:5a:
        75:bd:0b:6d
-----BEGIN CERTIFICATE-----
MIIDdzCCAl+gAwIBAgIQXg1q9hgjRKY7fqaZebIsODANBgkqhkiG9w0BAQsFADAW
MRQwEgYDVQQDDAt0ZWFtMTI0LW5ldDAeFw0yMzExMDQxMDQyNDdaFw0yNjEwMTkx
MDQyNDdaMBkxFzAVBgNVBAMMDnRlYW0xMjQtc2VydmVyMIIBIjANBgkqhkiG9w0B
AQEFAAOCAQ8AMIIBCgKCAQEAqq3F9d9PNZiWFP+yGZ9TRpvAW8Y9pDBNaT3Rw5i9
hQoZqDCw25FV59K6JetEEBKTbwE1vUKQIToED1q6WmtxFVc4jpzRrcsft65WAk2C
3GPC/FhOA2xw/7P1uhxGusNJWMwJklpaLc+srDv93utlwBpb/+hixXfqzsfAkwPl
z14NDGoU8dZeU0773P2d/05gsV8HVKBnewEjd1ez16ZsRLScdSgVAoxKrRYPffvW
Qd2mdxlnLvVHoKhyMVq964f8t/2PqYkkGGGQtWou4T6VssFFm5JTQHd2uxiv6EXo
oNdLpisEzZ+7/4+JFOVvIgY9ZWcGYXDYtPMcp37jggUTLwIDAQABo4G9MIG6MAkG
A1UdEwQCMAAwHQYDVR0OBBYEFP6X1HopLUM/mkbqwhENlhgh9X7rMFEGA1UdIwRK
MEiAFCHKGuro0/kiCqiYcGF4tSKYzIUnoRqkGDAWMRQwEgYDVQQDDAt0ZWFtMTI0
LW5ldIIUUef4ElijxOkveOmbrPVQyltiptUwEwYDVR0lBAwwCgYIKwYBBQUHAwEw
CwYDVR0PBAQDAgWgMBkGA1UdEQQSMBCCDnRlYW0xMjQtc2VydmVyMA0GCSqGSIb3
DQEBCwUAA4IBAQANs3v6zjkhtso30ZOMnFUNOllL4bHWbvHw+WD8Xzm9m8iPPiZs
Oj2DGvedVG7nQi8frVHHFCUWg91ARiEl81xIXyB7exQ88UnLdhXOz9eOcHcsPr0T
kA4apbEPJrEvTbkVH9PO7gYTolJGMegw1vLmS+ixOCOlmyZmv7Yd3Srrr4q8vXh2
js5cf4+57YlQ49dQU4r3lSj9wV2sdzoVyK6Ib/3xTm9JinowheS5gBhuhIrExyRD
V33wPblgcvUl4kllOyDudR5XWu9gJovDX4qyAnMHDOH0Syt0XRxp2GZzTDRFoSK7
ZUsFSqD00K0bNr0Xn00evwNx2FCKZVp1vQtt
-----END CERTIFICATE-----
