Certificate:
    Data:
        Version: 3 (0x2)
        Serial Number:
            b3:54:b2:ca:40:41:e9:4b:9b:b6:aa:a8:78:d1:ee:28
        Signature Algorithm: sha256WithRSAEncryption
        Issuer: CN=team124-net
        Validity
            Not Before: Nov  4 11:29:55 2023 GMT
            Not After : Oct 19 11:29:55 2026 GMT
        Subject: CN=team124-server
        Subject Public Key Info:
            Public Key Algorithm: rsaEncryption
                Public-Key: (2048 bit)
                Modulus:
                    00:99:e8:a3:74:92:48:e9:8e:04:ec:9e:f6:c0:e5:
                    08:f3:ba:22:b2:0c:06:cc:0a:3b:3b:19:67:a2:82:
                    9a:41:1f:1d:2a:ee:ad:0c:2c:d1:36:e5:ee:11:0f:
                    6a:59:ea:ff:c1:4b:97:ac:fc:fa:6c:70:fe:39:5f:
                    42:60:65:11:ae:c8:c2:2d:87:bd:fd:87:ea:f9:c9:
                    d3:c0:98:de:f3:4f:22:eb:34:44:39:db:30:4e:46:
                    82:53:47:6d:f3:7f:a6:fb:06:c3:86:8f:e2:a4:34:
                    ca:29:c3:ce:d4:b8:1c:9f:3e:bd:28:a7:48:d4:ff:
                    5c:b4:6a:ab:94:b3:5d:f7:e6:f0:83:5c:69:36:72:
                    53:24:ae:dc:fe:f5:6b:58:87:eb:17:00:ca:a8:f0:
                    7f:fd:3b:64:fa:31:41:2e:06:c2:52:55:8b:1b:37:
                    5a:f4:2a:7a:4a:f6:ad:e6:76:9e:02:34:32:b7:e2:
                    f3:2f:1f:7f:13:cd:08:6d:7f:2c:5a:b1:3f:83:80:
                    4f:ca:87:91:a2:37:09:29:a8:05:bb:2c:e5:84:da:
                    f7:68:fc:61:d8:fd:88:7c:47:21:9e:1b:e9:30:b4:
                    cb:92:29:57:a2:ae:0e:72:f5:e7:fb:a0:b2:1a:cd:
                    91:ec:92:a1:94:8a:83:e2:fc:41:0b:9b:71:85:5f:
                    5b:09
                Exponent: 65537 (0x10001)
        X509v3 extensions:
            X509v3 Basic Constraints: 
                CA:FALSE
            X509v3 Subject Key Identifier: 
                D8:F5:68:82:0F:77:36:B1:A4:FF:CD:AD:88:F2:3F:82:53:79:85:B6
            X509v3 Authority Key Identifier: 
                keyid:A6:D2:C2:D9:9A:88:F7:34:B2:EA:AE:00:67:76:C1:AE:F9:38:22:44
                DirName:/CN=team124-net
                serial:7B:60:36:3E:52:83:BF:EF:B3:C0:DE:24:19:A0:07:90:AB:FE:DA:E4
            X509v3 Extended Key Usage: 
                TLS Web Server Authentication
            X509v3 Key Usage: 
                Digital Signature, Key Encipherment
            X509v3 Subject Alternative Name: 
                DNS:team124-server
    Signature Algorithm: sha256WithRSAEncryption
    Signature Value:
        49:0d:cf:a1:31:c1:db:05:60:7a:50:58:c4:88:fe:f0:15:95:
        b3:c2:05:92:8d:4d:c3:bf:06:9e:43:00:44:be:4d:f1:52:0a:
        6c:82:fd:fe:82:8a:4d:5d:df:88:40:d9:93:50:85:36:8f:21:
        b7:3c:14:45:47:02:10:8b:5c:f1:52:d7:47:2f:3f:56:4a:0b:
        99:e9:70:fe:bd:bc:b9:10:a6:1c:eb:17:f0:0c:d3:f2:a2:fc:
        e0:87:be:ad:c9:c4:06:01:24:08:87:b4:3a:85:d1:4c:78:f3:
        31:19:30:d9:e3:80:2e:0c:0d:c6:19:47:84:ff:cc:a4:9a:eb:
        a5:03:1b:7e:91:a1:d5:4d:e7:e7:91:be:5e:e8:53:12:05:6c:
        3b:a4:1e:18:1e:3e:d0:1f:43:e6:10:63:23:cb:f8:a7:a9:d2:
        55:9a:0d:f1:e4:b5:5b:eb:f1:5c:fb:0c:00:27:0c:a6:f5:e9:
        91:14:81:c8:89:32:bc:aa:e1:26:ac:cc:d9:0b:cf:cc:d6:09:
        f8:d2:36:a9:c8:ad:91:65:08:38:20:3b:e9:2a:e2:03:43:3d:
        6b:4c:7c:ce:1b:57:cc:74:4a:41:8f:2f:5d:c5:5e:fd:bc:45:
        09:e8:a1:ec:aa:3c:73:a3:9f:b8:5e:65:12:70:14:cd:ac:f9:
        ad:5a:c9:dc
-----BEGIN CERTIFICATE-----
MIIDeDCCAmCgAwIBAgIRALNUsspAQelLm7aqqHjR7igwDQYJKoZIhvcNAQELBQAw
FjEUMBIGA1UEAwwLdGVhbTEyNC1uZXQwHhcNMjMxMTA0MTEyOTU1WhcNMjYxMDE5
MTEyOTU1WjAZMRcwFQYDVQQDDA50ZWFtMTI0LXNlcnZlcjCCASIwDQYJKoZIhvcN
AQEBBQADggEPADCCAQoCggEBAJnoo3SSSOmOBOye9sDlCPO6IrIMBswKOzsZZ6KC
mkEfHSrurQws0Tbl7hEPalnq/8FLl6z8+mxw/jlfQmBlEa7Iwi2Hvf2H6vnJ08CY
3vNPIus0RDnbME5GglNHbfN/pvsGw4aP4qQ0yinDztS4HJ8+vSinSNT/XLRqq5Sz
Xffm8INcaTZyUySu3P71a1iH6xcAyqjwf/07ZPoxQS4GwlJVixs3WvQqekr2reZ2
ngI0Mrfi8y8ffxPNCG1/LFqxP4OAT8qHkaI3CSmoBbss5YTa92j8Ydj9iHxHIZ4b
6TC0y5IpV6KuDnL15/ugshrNkeySoZSKg+L8QQubcYVfWwkCAwEAAaOBvTCBujAJ
BgNVHRMEAjAAMB0GA1UdDgQWBBTY9WiCD3c2saT/za2I8j+CU3mFtjBRBgNVHSME
SjBIgBSm0sLZmoj3NLLqrgBndsGu+TgiRKEapBgwFjEUMBIGA1UEAwwLdGVhbTEy
NC1uZXSCFHtgNj5Sg7/vs8DeJBmgB5Cr/trkMBMGA1UdJQQMMAoGCCsGAQUFBwMB
MAsGA1UdDwQEAwIFoDAZBgNVHREEEjAQgg50ZWFtMTI0LXNlcnZlcjANBgkqhkiG
9w0BAQsFAAOCAQEASQ3PoTHB2wVgelBYxIj+8BWVs8IFko1Nw78GnkMARL5N8VIK
bIL9/oKKTV3fiEDZk1CFNo8htzwURUcCEItc8VLXRy8/VkoLmelw/r28uRCmHOsX
8AzT8qL84Ie+rcnEBgEkCIe0OoXRTHjzMRkw2eOALgwNxhlHhP/MpJrrpQMbfpGh
1U3n55G+XuhTEgVsO6QeGB4+0B9D5hBjI8v4p6nSVZoN8eS1W+vxXPsMACcMpvXp
kRSByIkyvKrhJqzM2QvPzNYJ+NI2qcitkWUIOCA76SriA0M9a0x8zhtXzHRKQY8v
XcVe/bxFCeih7Ko8c6OfuF5lEnAUzaz5rVrJ3A==
-----END CERTIFICATE-----
