Certificate:
    Data:
        Version: 3 (0x2)
        Serial Number:
            ea:3e:63:d4:72:91:49:db:ca:16:a0:ba:5f:b5:94:b3
        Signature Algorithm: sha256WithRSAEncryption
        Issuer: CN=team124-net
        Validity
            Not Before: Nov  4 11:29:55 2023 GMT
            Not After : Oct 19 11:29:55 2026 GMT
        Subject: CN=team124-client
        Subject Public Key Info:
            Public Key Algorithm: rsaEncryption
                Public-Key: (2048 bit)
                Modulus:
                    00:de:0e:ff:f2:0e:4c:a2:c6:65:46:1e:ac:9e:d7:
                    0b:42:71:a1:d7:8f:db:09:ca:63:fa:19:8e:3c:85:
                    b9:fa:56:ee:55:6c:1b:b6:6f:d8:94:a5:3f:f8:e6:
                    f0:27:f7:5b:8f:9a:ce:e5:d6:3c:8b:0a:db:85:fc:
                    ec:37:36:d6:05:ff:c3:47:00:22:ed:e7:20:c6:07:
                    0f:4e:20:49:ba:40:58:8d:88:1b:e4:10:38:07:2b:
                    ac:3c:c2:27:95:30:a2:c8:59:23:e9:a5:25:aa:29:
                    43:90:b9:4c:3d:ef:0a:7a:0c:50:7b:ee:ea:2e:b0:
                    cc:f7:77:8b:c2:ed:82:e1:d4:38:3f:2c:d8:db:a7:
                    14:45:43:b2:f4:a3:8d:38:8d:85:48:36:15:e0:2e:
                    9a:dd:e3:4a:0e:ce:cf:00:97:4e:67:00:9b:8d:28:
                    9e:6f:29:02:b8:98:c7:4a:8a:a9:88:80:2a:fd:dd:
                    d0:8c:25:be:3f:7c:ee:f0:39:65:d6:8a:c3:6d:0a:
                    4c:c0:d2:14:2b:80:a6:8d:be:80:3a:fa:5e:1a:95:
                    bf:cd:64:36:54:41:ec:d1:76:dd:08:11:37:17:02:
                    ec:44:2e:03:27:46:51:8a:ab:fb:fb:4b:06:e7:a8:
                    6e:c3:ee:89:af:42:7c:2c:5a:45:b3:a6:a1:10:ec:
                    66:25
                Exponent: 65537 (0x10001)
        X509v3 extensions:
            X509v3 Basic Constraints: 
                CA:FALSE
            X509v3 Subject Key Identifier: 
                BF:20:A8:85:BD:31:DD:EE:8E:91:C0:D1:DD:B0:44:4D:3B:DF:48:1F
            X509v3 Authority Key Identifier: 
                keyid:A6:D2:C2:D9:9A:88:F7:34:B2:EA:AE:00:67:76:C1:AE:F9:38:22:44
                DirName:/CN=team124-net
                serial:7B:60:36:3E:52:83:BF:EF:B3:C0:DE:24:19:A0:07:90:AB:FE:DA:E4
            X509v3 Extended Key Usage: 
                TLS Web Client Authentication
            X509v3 Key Usage: 
                Digital Signature
    Signature Algorithm: sha256WithRSAEncryption
    Signature Value:
        0f:fa:06:ce:63:6c:b1:6d:4d:4f:26:fe:2d:a4:81:3b:78:4d:
        66:c2:3c:78:b2:a1:8b:c1:db:91:c7:1f:8a:40:6c:5f:da:f1:
        d8:9a:7a:c1:1c:15:ad:3e:62:c1:b7:b4:93:e4:ef:c0:69:8d:
        35:9a:a1:95:59:e9:8c:0a:b0:a0:31:5a:a5:d5:7f:44:1f:8c:
        82:7b:03:32:e5:88:e0:f2:c3:63:2c:bc:e7:64:37:35:28:14:
        98:84:b3:b1:fa:4f:f7:61:5b:19:3d:59:e6:14:02:19:8d:f9:
        3b:bc:77:95:58:79:58:b9:a4:20:83:a4:6c:54:5f:b8:43:ae:
        cc:c2:24:fa:d1:11:23:66:d5:d8:cc:2c:13:0a:a6:08:e7:65:
        30:18:a7:28:b7:2f:10:a4:26:9a:7b:f2:e2:4d:37:9a:dc:21:
        f6:1d:55:16:43:ab:9d:64:da:85:05:97:eb:88:d4:72:5c:71:
        69:f5:02:35:d1:c4:ef:1c:58:d7:da:ec:00:bd:4b:bb:10:f9:
        86:05:28:41:e0:3c:92:af:53:44:53:07:b5:6d:fd:18:d2:72:
        2a:c8:3b:4b:62:15:a3:3a:bf:d4:91:c6:c0:80:d9:bb:a9:76:
        d6:29:11:6d:50:8a:f8:15:62:0d:06:e8:ef:d8:38:84:ef:ae:
        67:ea:4e:56
-----BEGIN CERTIFICATE-----
MIIDXTCCAkWgAwIBAgIRAOo+Y9RykUnbyhagul+1lLMwDQYJKoZIhvcNAQELBQAw
FjEUMBIGA1UEAwwLdGVhbTEyNC1uZXQwHhcNMjMxMTA0MTEyOTU1WhcNMjYxMDE5
MTEyOTU1WjAZMRcwFQYDVQQDDA50ZWFtMTI0LWNsaWVudDCCASIwDQYJKoZIhvcN
AQEBBQADggEPADCCAQoCggEBAN4O//IOTKLGZUYerJ7XC0JxodeP2wnKY/oZjjyF
ufpW7lVsG7Zv2JSlP/jm8Cf3W4+azuXWPIsK24X87Dc21gX/w0cAIu3nIMYHD04g
SbpAWI2IG+QQOAcrrDzCJ5UwoshZI+mlJaopQ5C5TD3vCnoMUHvu6i6wzPd3i8Lt
guHUOD8s2NunFEVDsvSjjTiNhUg2FeAumt3jSg7OzwCXTmcAm40onm8pAriYx0qK
qYiAKv3d0Iwlvj987vA5ZdaKw20KTMDSFCuApo2+gDr6XhqVv81kNlRB7NF23QgR
NxcC7EQuAydGUYqr+/tLBueobsPuia9CfCxaRbOmoRDsZiUCAwEAAaOBojCBnzAJ
BgNVHRMEAjAAMB0GA1UdDgQWBBS/IKiFvTHd7o6RwNHdsERNO99IHzBRBgNVHSME
SjBIgBSm0sLZmoj3NLLqrgBndsGu+TgiRKEapBgwFjEUMBIGA1UEAwwLdGVhbTEy
NC1uZXSCFHtgNj5Sg7/vs8DeJBmgB5Cr/trkMBMGA1UdJQQMMAoGCCsGAQUFBwMC
MAsGA1UdDwQEAwIHgDANBgkqhkiG9w0BAQsFAAOCAQEAD/oGzmNssW1NTyb+LaSB
O3hNZsI8eLKhi8HbkccfikBsX9rx2Jp6wRwVrT5iwbe0k+TvwGmNNZqhlVnpjAqw
oDFapdV/RB+MgnsDMuWI4PLDYyy852Q3NSgUmISzsfpP92FbGT1Z5hQCGY35O7x3
lVh5WLmkIIOkbFRfuEOuzMIk+tERI2bV2MwsEwqmCOdlMBinKLcvEKQmmnvy4k03
mtwh9h1VFkOrnWTahQWX64jUclxxafUCNdHE7xxY19rsAL1LuxD5hgUoQeA8kq9T
RFMHtW39GNJyKsg7S2IVozq/1JHGwIDZu6l21ikRbVCK+BViDQbo79g4hO+uZ+pO
Vg==
-----END CERTIFICATE-----
