Certificate:
    Data:
        Version: 3 (0x2)
        Serial Number:
            23:d5:e1:5a:86:5e:b8:eb:a8:70:1c:a0:b3:dd:ad:4b
        Signature Algorithm: sha256WithRSAEncryption
        Issuer: CN=team333-net
        Validity
            Not Before: Nov  4 10:46:42 2023 GMT
            Not After : Oct 19 10:46:42 2026 GMT
        Subject: CN=team333-client
        Subject Public Key Info:
            Public Key Algorithm: rsaEncryption
                Public-Key: (2048 bit)
                Modulus:
                    00:cf:44:d6:41:3a:05:e9:47:56:8d:3a:bd:9f:f9:
                    3b:91:d1:c8:01:cf:e3:b8:77:c2:c7:71:59:7d:f6:
                    98:90:4f:8e:69:f2:e2:49:9c:9f:b5:16:b1:f1:19:
                    f4:2d:47:dd:e2:f2:b3:d6:15:8f:74:97:05:2e:f0:
                    9c:37:b7:a5:47:d4:a3:97:35:85:d7:f3:bc:5c:a3:
                    73:77:dd:3d:7e:a2:ae:01:3e:b8:35:49:1d:f0:66:
                    b6:99:25:11:63:6e:04:a2:8f:9e:e0:e1:f5:fd:59:
                    76:03:c5:1e:51:b0:e0:1f:b2:da:19:38:ec:87:c7:
                    77:e3:7b:fc:3c:ce:aa:03:da:8c:17:5a:6c:dd:e9:
                    a6:48:42:6b:f8:07:03:9e:b1:d4:9f:b3:d4:d5:29:
                    ba:cd:c6:9d:46:05:0f:ee:ba:23:46:7b:5a:3f:b0:
                    b8:3c:0f:a8:ed:fa:f4:4a:d4:0a:c4:49:74:f4:8a:
                    f1:56:1e:3e:ba:31:c2:a1:6e:54:9b:58:a6:54:9f:
                    b2:3f:da:68:e9:e4:d4:de:87:88:a1:4f:8b:22:50:
                    1b:41:f1:93:74:cc:f2:9c:0c:a9:f5:ed:87:c4:dc:
                    58:41:15:5e:b8:90:8c:5d:27:f2:f3:25:6b:7b:ba:
                    f4:7d:be:74:d7:b9:1e:b8:28:b5:7f:46:9e:4c:ad:
                    08:5f
                Exponent: 65537 (0x10001)
        X509v3 extensions:
            X509v3 Basic Constraints: 
                CA:FALSE
            X509v3 Subject Key Identifier: 
                ED:71:E6:E6:57:38:40:AF:A5:6D:94:64:9D:86:F5:6C:F9:F9:51:92
            X509v3 Authority Key Identifier: 
                keyid:9F:BA:6B:35:35:86:A5:AB:F4:24:8F:B4:BB:BF:BB:4E:C2:49:7F:3C
                DirName:/CN=team333-net
                serial:11:68:B4:28:90:50:B1:D2:E4:32:C3:15:B9:53:09:06:AC:CC:43:74
            X509v3 Extended Key Usage: 
                TLS Web Client Authentication
            X509v3 Key Usage: 
                Digital Signature
    Signature Algorithm: sha256WithRSAEncryption
    Signature Value:
        8d:80:9b:0c:2c:05:34:cd:ca:2a:3c:a5:f8:82:2d:07:c0:6e:
        a6:06:e8:cd:68:1f:24:12:8a:47:d0:78:16:19:8c:0f:1d:30:
        02:6f:03:99:cd:7c:01:e4:d6:36:41:39:13:aa:f9:01:ca:d3:
        49:3a:9e:1b:1c:ce:28:42:4d:dc:56:70:df:a2:2b:a7:e4:00:
        43:91:47:bf:a9:c3:19:9f:07:64:76:47:69:74:8e:96:c1:5c:
        fe:6d:b1:82:e6:6b:51:78:11:89:55:aa:6b:62:c8:69:84:5b:
        a2:11:98:02:67:cb:8a:c9:53:0c:27:32:b9:e0:e9:78:88:49:
        77:4c:cb:0a:d6:00:3d:70:3f:da:10:f0:4e:c5:c1:86:41:4f:
        03:4c:46:c4:09:bf:8b:89:e5:2d:73:ae:30:da:e8:6b:8f:1d:
        67:83:b3:63:37:07:6c:86:28:ac:86:f3:cb:96:1b:78:9e:36:
        ac:42:22:f6:2f:fc:d4:87:bb:50:98:33:08:4b:d4:12:c0:1c:
        b9:dc:27:eb:58:98:65:d2:d7:74:fd:5f:a3:6a:0a:a6:fe:05:
        78:94:3c:06:91:23:28:f1:68:05:5e:1c:29:27:05:e0:45:cd:
        17:bf:be:32:7f:1a:a3:e7:f4:8b:f3:64:60:d4:f6:48:92:1e:
        da:9f:67:e8
-----BEGIN CERTIFICATE-----
MIIDXDCCAkSgAwIBAgIQI9XhWoZeuOuocBygs92tSzANBgkqhkiG9w0BAQsFADAW
MRQwEgYDVQQDDAt0ZWFtMzMzLW5ldDAeFw0yMzExMDQxMDQ2NDJaFw0yNjEwMTkx
MDQ2NDJaMBkxFzAVBgNVBAMMDnRlYW0zMzMtY2xpZW50MIIBIjANBgkqhkiG9w0B
AQEFAAOCAQ8AMIIBCgKCAQEAz0TWQToF6UdWjTq9n/k7kdHIAc/juHfCx3FZffaY
kE+OafLiSZyftRax8Rn0LUfd4vKz1hWPdJcFLvCcN7elR9SjlzWF1/O8XKNzd909
fqKuAT64NUkd8Ga2mSURY24Eoo+e4OH1/Vl2A8UeUbDgH7LaGTjsh8d343v8PM6q
A9qMF1ps3emmSEJr+AcDnrHUn7PU1Sm6zcadRgUP7rojRntaP7C4PA+o7fr0StQK
xEl09IrxVh4+ujHCoW5Um1imVJ+yP9po6eTU3oeIoU+LIlAbQfGTdMzynAyp9e2H
xNxYQRVeuJCMXSfy8yVre7r0fb5017keuCi1f0aeTK0IXwIDAQABo4GiMIGfMAkG
A1UdEwQCMAAwHQYDVR0OBBYEFO1x5uZXOECvpW2UZJ2G9Wz5+VGSMFEGA1UdIwRK
MEiAFJ+6azU1hqWr9CSPtLu/u07CSX88oRqkGDAWMRQwEgYDVQQDDAt0ZWFtMzMz
LW5ldIIUEWi0KJBQsdLkMsMVuVMJBqzMQ3QwEwYDVR0lBAwwCgYIKwYBBQUHAwIw
CwYDVR0PBAQDAgeAMA0GCSqGSIb3DQEBCwUAA4IBAQCNgJsMLAU0zcoqPKX4gi0H
wG6mBujNaB8kEopH0HgWGYwPHTACbwOZzXwB5NY2QTkTqvkBytNJOp4bHM4oQk3c
VnDfoiun5ABDkUe/qcMZnwdkdkdpdI6WwVz+bbGC5mtReBGJVaprYshphFuiEZgC
Z8uKyVMMJzK54Ol4iEl3TMsK1gA9cD/aEPBOxcGGQU8DTEbECb+LieUtc64w2uhr
jx1ng7NjNwdshiishvPLlht4njasQiL2L/zUh7tQmDMIS9QSwBy53CfrWJhl0td0
/V+jagqm/gV4lDwGkSMo8WgFXhwpJwXgRc0Xv74yfxqj5/SL82Rg1PZIkh7an2fo
-----END CERTIFICATE-----
