Certificate:
    Data:
        Version: 3 (0x2)
        Serial Number:
            97:67:fc:59:ce:3b:ef:d6:f2:6c:30:6c:df:56:a0:2c
        Signature Algorithm: sha256WithRSAEncryption
        Issuer: CN=team333-net
        Validity
            Not Before: Nov  3 20:45:22 2023 GMT
            Not After : Oct 18 20:45:22 2026 GMT
        Subject: CN=team333-client
        Subject Public Key Info:
            Public Key Algorithm: rsaEncryption
                Public-Key: (2048 bit)
                Modulus:
                    00:bf:92:2b:03:ba:69:4f:d7:58:f8:ae:df:be:c6:
                    df:39:01:8d:f1:f6:1a:b6:b8:64:60:93:39:08:f0:
                    1f:c3:74:ad:25:50:20:21:b2:ad:ee:d6:4f:03:65:
                    1f:39:8f:79:66:3d:60:25:88:b2:bf:57:ec:55:f0:
                    b1:a0:00:fb:69:7f:ad:ab:18:30:33:57:a3:11:ba:
                    d4:36:d5:a6:64:85:7a:7b:65:26:a9:74:3b:0c:b6:
                    60:3f:9e:af:e7:c3:cd:4e:e5:a7:21:6c:e5:d1:b4:
                    63:2d:f7:56:fe:f6:55:bd:bc:a6:f0:37:8f:0e:2f:
                    35:a1:9b:27:60:d0:03:03:d3:18:40:1c:4d:4d:48:
                    79:5a:1e:ec:09:83:a7:a2:53:cb:3b:c5:5a:0e:34:
                    93:59:e4:62:e8:3b:31:e1:7d:da:1f:84:ed:91:9d:
                    34:13:dc:8e:67:be:12:ad:99:0c:37:16:8a:88:d0:
                    3c:3a:1c:89:ab:d7:b7:8b:1f:cb:d9:98:68:0d:17:
                    f5:83:4b:03:e7:5d:51:00:06:ff:30:67:7b:6f:d8:
                    86:d2:fe:d6:2c:d4:e0:70:4c:d1:cf:cc:48:6b:64:
                    fd:d0:92:80:4f:e4:65:50:53:64:af:39:fa:da:7f:
                    f5:6f:16:eb:60:73:df:25:c0:40:fc:44:cd:a9:42:
                    47:51
                Exponent: 65537 (0x10001)
        X509v3 extensions:
            X509v3 Basic Constraints: 
                CA:FALSE
            X509v3 Subject Key Identifier: 
                C2:29:14:32:47:1D:3C:A9:F3:57:0B:58:77:A8:FC:5B:78:63:80:77
            X509v3 Authority Key Identifier: 
                keyid:FE:6B:8E:C4:1D:8B:3B:F6:9D:C7:BA:D4:5A:4E:68:EA:F0:27:A7:62
                DirName:/CN=team333-net
                serial:71:72:AC:F6:C7:96:FE:CC:C3:E8:A1:68:1E:71:D9:B1:7B:06:9A:04
            X509v3 Extended Key Usage: 
                TLS Web Client Authentication
            X509v3 Key Usage: 
                Digital Signature
    Signature Algorithm: sha256WithRSAEncryption
    Signature Value:
        93:34:e9:36:a0:50:62:c9:61:38:95:ad:cc:43:47:3b:3a:d7:
        78:e6:b9:6e:c9:16:2e:00:43:ea:ee:29:98:ca:e1:d3:73:9b:
        2c:36:0f:31:e0:57:87:f1:86:f1:44:9a:be:6a:5f:f8:dd:df:
        74:5b:30:1c:a4:14:ea:b5:16:ea:c7:cd:4f:69:26:04:81:80:
        60:06:6b:42:53:5e:31:f5:88:a8:c3:1c:87:10:d3:ce:8e:6c:
        b1:80:08:a9:13:c8:16:bf:56:e9:68:35:eb:7d:a2:2d:1e:9d:
        a1:0a:00:4d:d4:02:1a:e3:27:c6:6b:35:0f:3f:b4:43:e7:1e:
        50:10:aa:a4:66:09:23:b6:1f:00:68:5c:97:ca:eb:3e:cc:3a:
        2c:11:1c:d1:90:6a:af:d4:bf:2f:32:a5:ef:aa:3a:b0:5b:03:
        74:b6:fd:07:27:4f:16:96:18:84:30:8f:8f:39:15:fb:e9:e4:
        36:24:9f:01:4d:d2:98:f2:4e:99:43:ed:56:b6:ef:49:f1:df:
        64:4d:eb:e3:88:2f:b7:04:e3:ef:e3:ac:bf:3f:c7:b3:24:47:
        25:07:22:cd:5d:68:2f:ff:e8:59:96:a4:16:7d:f4:6d:b1:36:
        f4:37:12:8a:f9:53:1f:af:9f:b8:15:bc:ed:d8:72:e4:94:3f:
        1e:93:54:a8
-----BEGIN CERTIFICATE-----
MIIDXTCCAkWgAwIBAgIRAJdn/FnOO+/W8mwwbN9WoCwwDQYJKoZIhvcNAQELBQAw
FjEUMBIGA1UEAwwLdGVhbTMzMy1uZXQwHhcNMjMxMTAzMjA0NTIyWhcNMjYxMDE4
MjA0NTIyWjAZMRcwFQYDVQQDDA50ZWFtMzMzLWNsaWVudDCCASIwDQYJKoZIhvcN
AQEBBQADggEPADCCAQoCggEBAL+SKwO6aU/XWPiu377G3zkBjfH2Gra4ZGCTOQjw
H8N0rSVQICGyre7WTwNlHzmPeWY9YCWIsr9X7FXwsaAA+2l/rasYMDNXoxG61DbV
pmSFentlJql0Owy2YD+er+fDzU7lpyFs5dG0Yy33Vv72Vb28pvA3jw4vNaGbJ2DQ
AwPTGEAcTU1IeVoe7AmDp6JTyzvFWg40k1nkYug7MeF92h+E7ZGdNBPcjme+Eq2Z
DDcWiojQPDociavXt4sfy9mYaA0X9YNLA+ddUQAG/zBne2/YhtL+1izU4HBM0c/M
SGtk/dCSgE/kZVBTZK85+tp/9W8W62Bz3yXAQPxEzalCR1ECAwEAAaOBojCBnzAJ
BgNVHRMEAjAAMB0GA1UdDgQWBBTCKRQyRx08qfNXC1h3qPxbeGOAdzBRBgNVHSME
SjBIgBT+a47EHYs79p3HutRaTmjq8CenYqEapBgwFjEUMBIGA1UEAwwLdGVhbTMz
My1uZXSCFHFyrPbHlv7Mw+ihaB5x2bF7BpoEMBMGA1UdJQQMMAoGCCsGAQUFBwMC
MAsGA1UdDwQEAwIHgDANBgkqhkiG9w0BAQsFAAOCAQEAkzTpNqBQYslhOJWtzENH
OzrXeOa5bskWLgBD6u4pmMrh03ObLDYPMeBXh/GG8USavmpf+N3fdFswHKQU6rUW
6sfNT2kmBIGAYAZrQlNeMfWIqMMchxDTzo5ssYAIqRPIFr9W6Wg1632iLR6doQoA
TdQCGuMnxms1Dz+0Q+ceUBCqpGYJI7YfAGhcl8rrPsw6LBEc0ZBqr9S/LzKl76o6
sFsDdLb9BydPFpYYhDCPjzkV++nkNiSfAU3SmPJOmUPtVrbvSfHfZE3r44gvtwTj
7+Osvz/HsyRHJQcizV1oL//oWZakFn30bbE29DcSivlTH6+fuBW87dhy5JQ/HpNU
qA==
-----END CERTIFICATE-----
