Certificate:
    Data:
        Version: 3 (0x2)
        Serial Number:
            3d:24:c5:d9:a5:3c:0c:60:b4:ef:53:51:f4:24:82:06
        Signature Algorithm: sha256WithRSAEncryption
        Issuer: CN=team200-net
        Validity
            Not Before: Nov  4 11:31:34 2023 GMT
            Not After : Oct 19 11:31:34 2026 GMT
        Subject: CN=team200-client
        Subject Public Key Info:
            Public Key Algorithm: rsaEncryption
                Public-Key: (2048 bit)
                Modulus:
                    00:b2:8b:5f:d1:21:ba:15:fd:2c:42:47:7c:56:f3:
                    65:ba:28:60:5e:f8:4c:9c:53:27:b4:85:bc:24:dc:
                    f3:60:12:c5:0e:95:e3:43:50:1c:a7:be:78:f8:83:
                    43:44:e3:2f:e0:34:ff:4b:33:be:46:48:34:d8:14:
                    c9:58:89:66:b4:3e:1c:84:4a:2d:49:21:2f:0f:e4:
                    f0:c9:58:07:eb:f7:c8:a5:8a:f1:07:b6:7d:6d:c8:
                    6a:76:3f:cb:2d:4a:d8:a8:01:35:0a:9a:5f:10:8f:
                    73:04:32:95:9d:a4:e3:65:29:43:96:cd:28:0d:40:
                    be:b6:0a:94:22:6e:6d:c7:02:75:03:bb:4b:02:d5:
                    cf:76:54:be:67:e0:1f:c1:67:a3:bb:31:53:40:d7:
                    a8:2c:b2:96:d6:42:b1:5b:90:37:89:a2:98:3c:f2:
                    64:57:9b:d1:ca:d4:03:7f:b6:13:7d:cb:27:f4:14:
                    41:41:55:ac:c7:c1:fc:3a:a4:6b:7e:58:40:16:e3:
                    cc:02:eb:ac:5e:7e:bb:aa:29:1c:a5:8f:47:c1:1c:
                    35:3e:c5:a0:9d:a9:d7:b0:15:c9:ab:5f:f5:eb:47:
                    58:81:e5:1f:b7:c6:5e:4d:d9:ef:10:10:de:da:0e:
                    b0:92:5e:4d:8d:ba:47:c4:48:9a:5a:ba:7a:0a:1e:
                    ba:8f
                Exponent: 65537 (0x10001)
        X509v3 extensions:
            X509v3 Basic Constraints: 
                CA:FALSE
            X509v3 Subject Key Identifier: 
                BB:57:DD:57:0D:B0:2D:8B:99:AF:C5:D4:9C:0F:9A:E6:63:96:9C:9C
            X509v3 Authority Key Identifier: 
                keyid:7C:21:4E:32:6F:1E:48:26:57:2C:12:A5:9A:E5:01:91:43:63:7A:93
                DirName:/CN=team200-net
                serial:19:79:28:48:3D:BE:D8:20:52:E8:BB:F6:5E:84:0F:2C:56:7D:CD:7C
            X509v3 Extended Key Usage: 
                TLS Web Client Authentication
            X509v3 Key Usage: 
                Digital Signature
    Signature Algorithm: sha256WithRSAEncryption
    Signature Value:
        7e:28:f4:11:1f:11:44:e2:3b:e0:dc:97:e6:ee:e3:82:62:fb:
        d2:d2:5a:5b:89:d7:0f:04:d2:e4:57:df:fe:4e:33:76:b8:89:
        3f:65:0d:46:c7:d1:7f:9c:67:60:d4:ef:34:f7:05:55:7d:d4:
        c7:d4:0a:71:e9:69:2f:f6:0a:0d:ce:bc:7e:ef:0f:0d:5c:de:
        22:6b:82:4b:37:39:e4:4b:d5:fc:6d:09:06:d1:c1:89:45:b5:
        5e:2b:10:6d:7c:4a:05:29:7d:9f:76:9b:99:47:7e:69:2a:b9:
        85:65:39:bf:d8:c3:ec:45:18:af:d7:6a:6d:97:01:27:b7:c7:
        c1:f4:54:4a:b0:7d:6c:ba:7e:22:47:98:67:74:0b:50:79:3f:
        7d:4f:a8:a3:de:50:e0:b7:b9:90:b6:97:58:f9:94:7b:4f:da:
        18:5b:62:5f:67:3a:fa:a1:b2:a6:00:35:1c:7f:ce:9a:26:c2:
        0a:b4:16:95:23:f1:0c:62:d5:df:e7:08:35:e4:f0:dc:ad:62:
        35:9b:4e:43:a5:45:6a:7a:ac:b6:4b:88:11:6f:2e:57:7e:92:
        a0:9b:54:bb:a3:26:4b:62:71:f8:f5:c1:1b:2e:2f:8c:a0:8d:
        a1:aa:b3:75:72:21:64:5f:2b:8f:6d:ed:01:b0:89:d3:6e:8e:
        a4:5c:74:d0
-----BEGIN CERTIFICATE-----
MIIDXDCCAkSgAwIBAgIQPSTF2aU8DGC071NR9CSCBjANBgkqhkiG9w0BAQsFADAW
MRQwEgYDVQQDDAt0ZWFtMjAwLW5ldDAeFw0yMzExMDQxMTMxMzRaFw0yNjEwMTkx
MTMxMzRaMBkxFzAVBgNVBAMMDnRlYW0yMDAtY2xpZW50MIIBIjANBgkqhkiG9w0B
AQEFAAOCAQ8AMIIBCgKCAQEAsotf0SG6Ff0sQkd8VvNluihgXvhMnFMntIW8JNzz
YBLFDpXjQ1Acp754+INDROMv4DT/SzO+Rkg02BTJWIlmtD4chEotSSEvD+TwyVgH
6/fIpYrxB7Z9bchqdj/LLUrYqAE1CppfEI9zBDKVnaTjZSlDls0oDUC+tgqUIm5t
xwJ1A7tLAtXPdlS+Z+AfwWejuzFTQNeoLLKW1kKxW5A3iaKYPPJkV5vRytQDf7YT
fcsn9BRBQVWsx8H8OqRrflhAFuPMAuusXn67qikcpY9HwRw1PsWgnanXsBXJq1/1
60dYgeUft8ZeTdnvEBDe2g6wkl5NjbpHxEiaWrp6Ch66jwIDAQABo4GiMIGfMAkG
A1UdEwQCMAAwHQYDVR0OBBYEFLtX3VcNsC2Lma/F1JwPmuZjlpycMFEGA1UdIwRK
MEiAFHwhTjJvHkgmVywSpZrlAZFDY3qToRqkGDAWMRQwEgYDVQQDDAt0ZWFtMjAw
LW5ldIIUGXkoSD2+2CBS6Lv2XoQPLFZ9zXwwEwYDVR0lBAwwCgYIKwYBBQUHAwIw
CwYDVR0PBAQDAgeAMA0GCSqGSIb3DQEBCwUAA4IBAQB+KPQRHxFE4jvg3Jfm7uOC
YvvS0lpbidcPBNLkV9/+TjN2uIk/ZQ1Gx9F/nGdg1O809wVVfdTH1Apx6Wkv9goN
zrx+7w8NXN4ia4JLNznkS9X8bQkG0cGJRbVeKxBtfEoFKX2fdpuZR35pKrmFZTm/
2MPsRRiv12ptlwEnt8fB9FRKsH1sun4iR5hndAtQeT99T6ij3lDgt7mQtpdY+ZR7
T9oYW2JfZzr6obKmADUcf86aJsIKtBaVI/EMYtXf5wg15PDcrWI1m05DpUVqeqy2
S4gRby5XfpKgm1S7oyZLYnH49cEbLi+MoI2hqrN1ciFkXyuPbe0BsInTbo6kXHTQ
-----END CERTIFICATE-----
