Certificate:
    Data:
        Version: 3 (0x2)
        Serial Number:
            b3:e8:1e:6f:65:43:fb:e4:f5:b2:7f:f9:d3:e6:e5:63
        Signature Algorithm: sha256WithRSAEncryption
        Issuer: CN=team200-net
        Validity
            Not Before: Nov  4 11:31:34 2023 GMT
            Not After : Oct 19 11:31:34 2026 GMT
        Subject: CN=team200-server
        Subject Public Key Info:
            Public Key Algorithm: rsaEncryption
                Public-Key: (2048 bit)
                Modulus:
                    00:c4:5c:0c:ab:a5:bb:cc:db:52:2e:4f:e1:89:05:
                    cc:67:e2:20:6c:fc:49:01:b9:ff:46:ab:6c:62:e3:
                    dc:d0:9e:f9:49:5b:5e:38:a8:6c:e0:54:45:db:51:
                    f6:18:ef:9f:43:60:6b:5c:12:f1:d5:26:86:69:7c:
                    2e:07:d7:11:7a:0c:2c:d3:23:fd:2a:b8:f5:8d:4b:
                    f3:b7:7d:67:e3:5e:18:8b:ff:2b:96:84:d2:25:28:
                    bc:e8:83:b1:2e:d7:7f:66:02:eb:5d:e3:a0:89:41:
                    22:72:3c:3c:b3:88:2d:ae:b1:43:6e:c4:b3:8c:d5:
                    1c:79:69:2b:ca:e8:5b:13:33:53:73:db:9e:3e:50:
                    78:d4:99:72:72:34:4e:99:03:e1:3d:5d:8f:96:fb:
                    68:d6:16:a6:51:18:49:11:4f:69:f9:5a:1c:ed:8b:
                    30:10:18:a7:81:f8:6e:bc:e0:67:df:ab:a7:07:0b:
                    ba:a1:d0:a6:f2:c2:57:6a:ad:de:a5:b4:e0:3f:49:
                    f7:84:3b:da:1c:c8:91:c7:a0:e6:9d:19:c2:3a:80:
                    bb:99:ce:a5:c7:df:29:84:49:10:0f:4a:06:77:fb:
                    bd:ed:8a:8b:66:57:09:74:67:55:ca:13:ae:a7:ec:
                    b9:f8:ee:04:d1:35:30:a7:59:3d:71:ff:fe:b4:95:
                    4d:69
                Exponent: 65537 (0x10001)
        X509v3 extensions:
            X509v3 Basic Constraints: 
                CA:FALSE
            X509v3 Subject Key Identifier: 
                27:C6:0E:0B:80:46:05:81:91:B3:D5:48:98:C8:73:E1:DD:0D:01:8B
            X509v3 Authority Key Identifier: 
                keyid:7C:21:4E:32:6F:1E:48:26:57:2C:12:A5:9A:E5:01:91:43:63:7A:93
                DirName:/CN=team200-net
                serial:19:79:28:48:3D:BE:D8:20:52:E8:BB:F6:5E:84:0F:2C:56:7D:CD:7C
            X509v3 Extended Key Usage: 
                TLS Web Server Authentication
            X509v3 Key Usage: 
                Digital Signature, Key Encipherment
            X509v3 Subject Alternative Name: 
                DNS:team200-server
    Signature Algorithm: sha256WithRSAEncryption
    Signature Value:
        4d:d4:62:f2:b1:2a:0e:13:c6:90:b7:8c:19:21:b1:98:cf:64:
        a1:40:ed:c2:ac:32:71:e0:c9:ac:0f:53:83:fd:35:ae:8e:52:
        b5:7e:7b:d8:fa:0f:5f:f8:b3:22:4f:b3:ac:25:09:3b:4d:6b:
        b4:da:f9:01:c7:57:8c:78:e3:e2:38:7e:f6:f3:7e:57:34:7b:
        77:b0:bb:f0:6a:02:a7:73:ff:52:21:38:36:02:10:0a:44:84:
        cd:33:30:e5:5b:1e:a8:7b:78:7f:f9:52:62:d1:83:c0:2d:e6:
        2e:c0:e0:5d:38:92:6c:45:06:2c:ed:4a:81:1b:85:d3:39:9e:
        a2:5f:3b:e4:d7:f1:f3:2b:48:70:b3:72:d3:04:dc:c2:20:91:
        34:e8:7a:7a:86:f6:b1:51:0d:29:12:b8:5c:21:b1:aa:2d:df:
        9f:7e:a7:30:8f:23:51:2b:4b:bc:ee:20:7e:2b:42:1d:45:ed:
        f8:d4:4b:27:8c:1d:b9:dc:9a:0e:c6:42:ac:73:7d:c2:e3:bd:
        5d:19:e4:05:a5:61:e0:af:d8:54:9e:73:f2:4d:8c:f2:57:68:
        3b:05:7b:f4:ae:38:a2:bc:99:cd:d4:dc:71:8e:85:0a:92:5e:
        e0:46:0d:f7:cb:77:57:b1:8b:6f:8a:e0:01:a5:da:87:ca:80:
        2f:c5:ba:ba
-----BEGIN CERTIFICATE-----
MIIDeDCCAmCgAwIBAgIRALPoHm9lQ/vk9bJ/+dPm5WMwDQYJKoZIhvcNAQELBQAw
FjEUMBIGA1UEAwwLdGVhbTIwMC1uZXQwHhcNMjMxMTA0MTEzMTM0WhcNMjYxMDE5
MTEzMTM0WjAZMRcwFQYDVQQDDA50ZWFtMjAwLXNlcnZlcjCCASIwDQYJKoZIhvcN
AQEBBQADggEPADCCAQoCggEBAMRcDKulu8zbUi5P4YkFzGfiIGz8SQG5/0arbGLj
3NCe+UlbXjiobOBURdtR9hjvn0Nga1wS8dUmhml8LgfXEXoMLNMj/Sq49Y1L87d9
Z+NeGIv/K5aE0iUovOiDsS7Xf2YC613joIlBInI8PLOILa6xQ27Es4zVHHlpK8ro
WxMzU3Pbnj5QeNSZcnI0TpkD4T1dj5b7aNYWplEYSRFPaflaHO2LMBAYp4H4brzg
Z9+rpwcLuqHQpvLCV2qt3qW04D9J94Q72hzIkceg5p0ZwjqAu5nOpcffKYRJEA9K
Bnf7ve2Ki2ZXCXRnVcoTrqfsufjuBNE1MKdZPXH//rSVTWkCAwEAAaOBvTCBujAJ
BgNVHRMEAjAAMB0GA1UdDgQWBBQnxg4LgEYFgZGz1UiYyHPh3Q0BizBRBgNVHSME
SjBIgBR8IU4ybx5IJlcsEqWa5QGRQ2N6k6EapBgwFjEUMBIGA1UEAwwLdGVhbTIw
MC1uZXSCFBl5KEg9vtggUui79l6EDyxWfc18MBMGA1UdJQQMMAoGCCsGAQUFBwMB
MAsGA1UdDwQEAwIFoDAZBgNVHREEEjAQgg50ZWFtMjAwLXNlcnZlcjANBgkqhkiG
9w0BAQsFAAOCAQEATdRi8rEqDhPGkLeMGSGxmM9koUDtwqwyceDJrA9Tg/01ro5S
tX572PoPX/izIk+zrCUJO01rtNr5AcdXjHjj4jh+9vN+VzR7d7C78GoCp3P/UiE4
NgIQCkSEzTMw5VseqHt4f/lSYtGDwC3mLsDgXTiSbEUGLO1KgRuF0zmeol875Nfx
8ytIcLNy0wTcwiCRNOh6eob2sVENKRK4XCGxqi3fn36nMI8jUStLvO4gfitCHUXt
+NRLJ4wdudyaDsZCrHN9wuO9XRnkBaVh4K/YVJ5z8k2M8ldoOwV79K44oryZzdTc
cY6FCpJe4EYN98t3V7GLb4rgAaXah8qAL8W6ug==
-----END CERTIFICATE-----
