Certificate:
    Data:
        Version: 3 (0x2)
        Serial Number:
            06:16:24:0e:fa:31:65:6d:a7:70:91:72:3b:8f:26:0e
        Signature Algorithm: sha256WithRSAEncryption
        Issuer: CN=team186-net
        Validity
            Not Before: Nov  4 11:31:18 2023 GMT
            Not After : Oct 19 11:31:18 2026 GMT
        Subject: CN=team186-client
        Subject Public Key Info:
            Public Key Algorithm: rsaEncryption
                Public-Key: (2048 bit)
                Modulus:
                    00:b8:e4:81:73:81:a3:0a:c7:31:5a:37:b3:a4:c9:
                    0c:6c:ed:61:0c:86:21:68:32:a7:35:3c:7a:ca:43:
                    12:6d:72:f3:24:40:5c:6f:41:56:62:e9:ba:19:3b:
                    e1:7a:9d:05:ef:4d:70:c0:85:57:9e:40:04:b5:24:
                    b0:7d:b9:56:f9:de:e5:38:8d:e5:05:7e:17:ea:d3:
                    74:6a:45:65:47:d2:24:05:c4:9b:94:91:99:a7:2d:
                    56:94:b4:88:06:fe:7c:0a:17:af:c2:16:04:20:33:
                    d5:ea:00:b8:c5:8e:86:61:34:1a:03:51:20:4d:91:
                    a8:3f:f2:b0:83:47:d2:83:9e:df:76:91:6d:ec:ba:
                    ac:ee:4e:74:98:c1:bf:a1:ef:4a:0e:20:71:f5:19:
                    9c:1c:b2:97:71:03:53:56:34:b3:b6:3b:6d:63:e8:
                    b2:c1:09:a5:09:06:93:15:c1:77:15:bf:04:96:5a:
                    78:ff:31:d9:d7:c2:0b:ff:35:76:20:a8:68:83:a1:
                    a0:08:d0:45:c0:0e:6f:a6:89:e1:8c:28:12:50:eb:
                    cc:d7:4e:f6:e4:c5:c3:8a:59:3a:df:24:6d:97:cf:
                    76:db:03:20:43:b3:84:a9:f9:f4:65:f9:1f:46:85:
                    b6:02:58:64:b0:0d:1f:d7:7b:c2:b6:12:e0:24:08:
                    57:0b
                Exponent: 65537 (0x10001)
        X509v3 extensions:
            X509v3 Basic Constraints: 
                CA:FALSE
            X509v3 Subject Key Identifier: 
                3A:03:9F:7B:B6:47:1D:CF:A2:9C:84:67:9A:62:28:99:D8:1F:B7:EF
            X509v3 Authority Key Identifier: 
                keyid:18:1B:B3:EB:E1:F7:F9:7C:52:16:43:95:FF:B6:56:CC:D8:76:F7:28
                DirName:/CN=team186-net
                serial:4E:81:7D:7B:05:25:E6:9A:28:68:D8:2F:39:3F:7F:14:C9:61:BF:AE
            X509v3 Extended Key Usage: 
                TLS Web Client Authentication
            X509v3 Key Usage: 
                Digital Signature
    Signature Algorithm: sha256WithRSAEncryption
    Signature Value:
        a1:34:4c:d1:81:c2:a9:1c:2d:78:6f:f5:1c:33:00:61:41:c4:
        44:01:f1:83:a7:0a:fa:02:9f:61:68:53:89:70:92:ce:09:a9:
        be:66:b0:3a:e4:d7:b8:0b:eb:0e:b0:a1:4a:67:92:48:7d:d1:
        fd:ef:29:55:8b:a8:7e:c6:90:03:f1:a9:40:d2:bf:fd:22:96:
        7e:7b:c8:8a:69:82:1b:97:7a:bd:cb:a0:21:56:4b:bb:53:c1:
        a9:ca:fd:9d:2c:06:86:08:ef:1b:d2:2c:c9:68:ec:06:74:9c:
        c2:79:5e:11:a6:26:9b:57:c1:57:50:57:9a:2a:67:39:d2:8e:
        90:0a:9a:8b:c8:78:ef:80:a7:d7:10:58:a9:66:e8:3f:9f:12:
        8f:9a:a2:e6:39:2d:3b:3f:a8:b3:99:b6:d3:0e:06:94:ee:45:
        c5:9e:01:d1:2c:d9:68:bc:c0:e5:63:67:e2:26:d2:4c:a1:3c:
        cf:05:6f:57:41:6d:c6:10:ca:1c:71:7a:e2:e4:3c:d2:bf:9f:
        75:40:41:7c:f8:2d:44:eb:fa:42:92:cf:01:66:ff:75:5d:8a:
        48:5d:fa:d2:82:98:07:0b:f2:c7:38:1e:8a:9c:d4:98:b7:79:
        d8:c9:0d:61:01:cd:93:f4:70:46:c7:6c:6a:fe:50:fa:99:6f:
        6a:b2:0b:ab
-----BEGIN CERTIFICATE-----
MIIDXDCCAkSgAwIBAgIQBhYkDvoxZW2ncJFyO48mDjANBgkqhkiG9w0BAQsFADAW
MRQwEgYDVQQDDAt0ZWFtMTg2LW5ldDAeFw0yMzExMDQxMTMxMThaFw0yNjEwMTkx
MTMxMThaMBkxFzAVBgNVBAMMDnRlYW0xODYtY2xpZW50MIIBIjANBgkqhkiG9w0B
AQEFAAOCAQ8AMIIBCgKCAQEAuOSBc4GjCscxWjezpMkMbO1hDIYhaDKnNTx6ykMS
bXLzJEBcb0FWYum6GTvhep0F701wwIVXnkAEtSSwfblW+d7lOI3lBX4X6tN0akVl
R9IkBcSblJGZpy1WlLSIBv58ChevwhYEIDPV6gC4xY6GYTQaA1EgTZGoP/Kwg0fS
g57fdpFt7Lqs7k50mMG/oe9KDiBx9RmcHLKXcQNTVjSztjttY+iywQmlCQaTFcF3
Fb8Ellp4/zHZ18IL/zV2IKhog6GgCNBFwA5vponhjCgSUOvM10725MXDilk63yRt
l8922wMgQ7OEqfn0ZfkfRoW2AlhksA0f13vCthLgJAhXCwIDAQABo4GiMIGfMAkG
A1UdEwQCMAAwHQYDVR0OBBYEFDoDn3u2Rx3PopyEZ5piKJnYH7fvMFEGA1UdIwRK
MEiAFBgbs+vh9/l8UhZDlf+2VszYdvcooRqkGDAWMRQwEgYDVQQDDAt0ZWFtMTg2
LW5ldIIUToF9ewUl5pooaNgvOT9/FMlhv64wEwYDVR0lBAwwCgYIKwYBBQUHAwIw
CwYDVR0PBAQDAgeAMA0GCSqGSIb3DQEBCwUAA4IBAQChNEzRgcKpHC14b/UcMwBh
QcREAfGDpwr6Ap9haFOJcJLOCam+ZrA65Ne4C+sOsKFKZ5JIfdH97ylVi6h+xpAD
8alA0r/9IpZ+e8iKaYIbl3q9y6AhVku7U8Gpyv2dLAaGCO8b0izJaOwGdJzCeV4R
piabV8FXUFeaKmc50o6QCpqLyHjvgKfXEFipZug/nxKPmqLmOS07P6izmbbTDgaU
7kXFngHRLNlovMDlY2fiJtJMoTzPBW9XQW3GEMoccXri5DzSv591QEF8+C1E6/pC
ks8BZv91XYpIXfrSgpgHC/LHOB6KnNSYt3nYyQ1hAc2T9HBGx2xq/lD6mW9qsgur
-----END CERTIFICATE-----
