Certificate:
    Data:
        Version: 3 (0x2)
        Serial Number:
            25:2e:3f:8e:70:30:61:08:cf:41:1d:f8:5b:e5:22:b1
        Signature Algorithm: sha256WithRSAEncryption
        Issuer: CN=team186-net
        Validity
            Not Before: Nov  3 20:42:39 2023 GMT
            Not After : Oct 18 20:42:39 2026 GMT
        Subject: CN=team186-server
        Subject Public Key Info:
            Public Key Algorithm: rsaEncryption
                Public-Key: (2048 bit)
                Modulus:
                    00:bd:d4:62:26:2d:4c:0a:48:13:f6:64:f9:8d:aa:
                    74:dd:c7:89:18:77:2e:39:3a:66:39:9a:b5:3e:38:
                    a0:ea:37:4b:73:9a:3c:bc:c4:4d:d5:7c:52:19:74:
                    75:8e:4e:0d:1f:4c:8f:58:a3:f4:35:ec:c4:30:9a:
                    40:9b:f9:23:52:df:20:8e:84:16:74:06:be:0e:96:
                    94:5c:af:d3:3e:0a:19:5f:34:1a:63:eb:40:48:56:
                    98:0d:e3:bf:3f:96:a0:b3:6c:f4:cf:47:7f:d6:b1:
                    94:f3:c3:84:b1:44:30:36:c2:ff:f5:57:94:f2:ae:
                    d6:17:17:76:fe:0b:38:6a:c1:86:10:29:40:ef:28:
                    fc:55:b2:62:d7:18:53:1f:e9:30:70:0c:3e:1b:8a:
                    de:fe:4a:81:ad:a4:b5:dd:00:d8:9e:90:49:f8:34:
                    48:6d:01:97:94:a2:04:12:f4:5e:7a:0e:63:dc:f8:
                    7e:bd:f9:b9:10:27:a1:a6:a2:5d:e8:c0:99:28:08:
                    c8:e6:2a:c4:59:bb:13:20:31:2c:88:06:bc:84:7f:
                    92:2b:0f:c8:14:f9:30:99:47:98:54:26:8d:86:98:
                    2f:4e:7c:16:a1:55:23:4d:b6:05:b9:e8:ee:6d:76:
                    a8:ea:16:49:be:7d:04:d9:4f:a9:84:62:99:51:10:
                    5f:e5
                Exponent: 65537 (0x10001)
        X509v3 extensions:
            X509v3 Basic Constraints: 
                CA:FALSE
            X509v3 Subject Key Identifier: 
                78:B4:8C:41:55:04:95:B4:06:FE:B1:B5:0B:CB:C1:8F:8C:DB:16:DB
            X509v3 Authority Key Identifier: 
                keyid:2F:4E:6E:EB:86:52:BA:69:BE:E5:85:DE:21:ED:41:68:5A:F6:E3:57
                DirName:/CN=team186-net
                serial:29:BD:79:F6:65:BD:0B:E5:67:7C:17:52:DA:DB:92:D3:B2:4E:C2:68
            X509v3 Extended Key Usage: 
                TLS Web Server Authentication
            X509v3 Key Usage: 
                Digital Signature, Key Encipherment
            X509v3 Subject Alternative Name: 
                DNS:team186-server
    Signature Algorithm: sha256WithRSAEncryption
    Signature Value:
        9d:cd:dc:c4:c0:2f:f6:c7:f2:c8:c7:36:4e:e5:56:f5:13:c8:
        4d:27:b1:7c:9e:21:e8:3a:7c:2d:8d:b4:22:54:e6:56:53:99:
        e4:03:e0:85:a0:38:2c:4f:d7:c3:84:17:83:bc:23:51:96:fa:
        98:ff:0c:d7:47:ef:73:0d:5c:a6:b3:09:db:91:9b:61:fd:3f:
        3d:ac:16:c6:82:aa:64:32:85:1e:31:50:ab:0c:5d:ad:20:a2:
        91:21:f8:59:41:90:1c:df:01:13:10:e7:68:77:cf:0f:be:8e:
        20:ec:12:55:b3:ff:0d:9c:20:5e:dc:8a:c3:d9:b8:8c:e9:94:
        90:28:74:e4:20:55:ea:89:f3:5b:3d:70:ad:5c:3c:5b:30:49:
        d7:48:bb:5d:28:a5:bf:1a:d8:d7:9e:d9:73:52:e8:c4:33:06:
        a0:b7:b4:3a:b3:34:58:97:14:7d:83:5d:b2:3d:01:57:ac:ea:
        51:6f:03:1a:ba:5e:aa:19:fc:3c:47:46:cc:73:6c:90:77:24:
        0d:d1:72:df:5d:e9:4e:da:05:24:1c:79:c9:75:8d:99:11:2c:
        5d:36:90:73:d1:a3:59:3c:0b:bb:34:db:8d:b4:bf:f4:d0:6f:
        57:a8:1c:0b:5f:df:39:a7:bb:af:38:ac:ae:e7:8e:02:d2:48:
        69:10:5a:6a
-----BEGIN CERTIFICATE-----
MIIDdzCCAl+gAwIBAgIQJS4/jnAwYQjPQR34W+UisTANBgkqhkiG9w0BAQsFADAW
MRQwEgYDVQQDDAt0ZWFtMTg2LW5ldDAeFw0yMzExMDMyMDQyMzlaFw0yNjEwMTgy
MDQyMzlaMBkxFzAVBgNVBAMMDnRlYW0xODYtc2VydmVyMIIBIjANBgkqhkiG9w0B
AQEFAAOCAQ8AMIIBCgKCAQEAvdRiJi1MCkgT9mT5jap03ceJGHcuOTpmOZq1Pjig
6jdLc5o8vMRN1XxSGXR1jk4NH0yPWKP0NezEMJpAm/kjUt8gjoQWdAa+DpaUXK/T
PgoZXzQaY+tASFaYDeO/P5ags2z0z0d/1rGU88OEsUQwNsL/9VeU8q7WFxd2/gs4
asGGEClA7yj8VbJi1xhTH+kwcAw+G4re/kqBraS13QDYnpBJ+DRIbQGXlKIEEvRe
eg5j3Ph+vfm5ECehpqJd6MCZKAjI5irEWbsTIDEsiAa8hH+SKw/IFPkwmUeYVCaN
hpgvTnwWoVUjTbYFuejubXao6hZJvn0E2U+phGKZURBf5QIDAQABo4G9MIG6MAkG
A1UdEwQCMAAwHQYDVR0OBBYEFHi0jEFVBJW0Bv6xtQvLwY+M2xbbMFEGA1UdIwRK
MEiAFC9ObuuGUrppvuWF3iHtQWha9uNXoRqkGDAWMRQwEgYDVQQDDAt0ZWFtMTg2
LW5ldIIUKb159mW9C+VnfBdS2tuS07JOwmgwEwYDVR0lBAwwCgYIKwYBBQUHAwEw
CwYDVR0PBAQDAgWgMBkGA1UdEQQSMBCCDnRlYW0xODYtc2VydmVyMA0GCSqGSIb3
DQEBCwUAA4IBAQCdzdzEwC/2x/LIxzZO5Vb1E8hNJ7F8niHoOnwtjbQiVOZWU5nk
A+CFoDgsT9fDhBeDvCNRlvqY/wzXR+9zDVymswnbkZth/T89rBbGgqpkMoUeMVCr
DF2tIKKRIfhZQZAc3wETEOdod88Pvo4g7BJVs/8NnCBe3IrD2biM6ZSQKHTkIFXq
ifNbPXCtXDxbMEnXSLtdKKW/GtjXntlzUujEMwagt7Q6szRYlxR9g12yPQFXrOpR
bwMaul6qGfw8R0bMc2yQdyQN0XLfXelO2gUkHHnJdY2ZESxdNpBz0aNZPAu7NNuN
tL/00G9XqBwLX985p7uvOKyu544C0khpEFpq
-----END CERTIFICATE-----
