Certificate:
    Data:
        Version: 3 (0x2)
        Serial Number:
            b7:f6:71:8a:4e:19:03:f7:88:d5:a0:da:42:53:c0:5d
        Signature Algorithm: sha256WithRSAEncryption
        Issuer: CN=team186-net
        Validity
            Not Before: Nov  4 10:43:59 2023 GMT
            Not After : Oct 19 10:43:59 2026 GMT
        Subject: CN=team186-client
        Subject Public Key Info:
            Public Key Algorithm: rsaEncryption
                Public-Key: (2048 bit)
                Modulus:
                    00:af:ec:dc:f2:88:cc:b4:69:c0:55:fd:97:90:60:
                    45:9c:1a:f8:96:39:01:63:94:76:5c:ea:f5:90:cb:
                    d2:7d:8f:28:6a:92:ff:c4:87:60:8a:21:55:0a:f3:
                    b3:58:c4:82:6e:06:e2:14:cc:17:12:f1:33:c3:6e:
                    66:92:37:7b:24:7e:a9:87:b7:fa:ce:25:b3:94:88:
                    4d:86:98:5e:9c:32:9c:a2:3a:af:6e:c9:ca:cf:37:
                    cc:e2:d3:89:be:2b:93:81:60:db:19:aa:41:3a:f2:
                    bd:d7:14:23:e5:99:74:ef:4d:84:a1:aa:63:db:5e:
                    19:af:68:0b:9c:17:85:bf:3f:86:43:37:41:a7:e2:
                    a0:94:e2:ac:ee:21:b6:6d:ec:b5:b5:9c:11:7f:75:
                    c6:c0:36:82:45:6a:83:99:0e:b5:a7:72:06:bb:70:
                    f2:9b:59:13:21:a2:07:a8:2f:93:41:7a:20:a5:df:
                    75:15:7f:b2:7f:4f:9f:ed:68:f3:94:4e:23:89:04:
                    73:17:0e:da:04:ca:df:74:9a:4b:b4:cf:1f:15:1c:
                    cc:01:1a:df:48:d5:f7:be:ad:d8:13:c0:b5:fc:63:
                    6d:20:d4:3c:54:6d:1b:e5:5b:ea:70:f0:3d:11:d7:
                    40:8a:f5:38:66:0e:48:a0:78:03:50:e3:be:a4:55:
                    4d:cd
                Exponent: 65537 (0x10001)
        X509v3 extensions:
            X509v3 Basic Constraints: 
                CA:FALSE
            X509v3 Subject Key Identifier: 
                54:D9:4F:E8:91:DE:9F:A6:64:AD:E7:4A:2E:1E:34:65:E6:0C:C5:E8
            X509v3 Authority Key Identifier: 
                keyid:2C:69:87:48:98:EC:EA:37:D7:3A:45:96:0D:11:E8:9E:1E:3C:A0:2F
                DirName:/CN=team186-net
                serial:60:3B:70:03:A9:19:DD:E7:AC:FC:3B:20:5B:02:64:67:29:D4:2B:BF
            X509v3 Extended Key Usage: 
                TLS Web Client Authentication
            X509v3 Key Usage: 
                Digital Signature
    Signature Algorithm: sha256WithRSAEncryption
    Signature Value:
        60:59:33:c0:02:61:1e:4f:7b:23:59:42:69:85:00:49:ca:9d:
        04:2c:e6:68:aa:46:b3:c2:2e:43:71:f6:b7:b5:1e:5d:26:b1:
        ca:db:f0:b4:0e:90:82:0f:40:09:48:b0:87:54:7a:ee:fa:a5:
        25:f8:e3:7b:f4:d2:6c:87:af:5e:57:62:d8:1f:84:bc:1d:52:
        30:e0:e5:ff:81:21:89:1e:a7:e1:b7:4d:77:35:9b:8a:05:76:
        f7:5d:91:a7:e0:8e:f1:8b:85:7c:1a:03:62:83:e4:bb:32:9d:
        3c:df:da:21:b5:2c:ca:a8:43:87:cb:89:4e:ae:a2:b2:c8:c9:
        78:2f:31:6a:39:16:56:b1:17:a4:b9:c5:51:fd:95:a0:7d:43:
        71:3b:f2:8b:2e:3f:04:9d:da:7b:7f:10:b1:9c:f4:9e:74:04:
        ae:ea:97:90:65:5c:5e:83:bb:fb:89:86:21:65:91:22:36:a1:
        98:93:9c:65:7e:c4:39:9c:ee:33:d7:5a:db:42:33:29:e9:66:
        62:0e:4a:48:0d:87:9c:59:04:a7:65:3d:50:0c:a7:df:25:7f:
        12:f5:f5:db:fe:a8:8b:4a:7f:d3:cf:ee:e0:46:ab:09:1f:17:
        1e:90:29:5b:67:ff:68:59:ed:f9:6b:0b:a3:8a:55:b5:c4:d2:
        72:a5:07:b0
-----BEGIN CERTIFICATE-----
MIIDXTCCAkWgAwIBAgIRALf2cYpOGQP3iNWg2kJTwF0wDQYJKoZIhvcNAQELBQAw
FjEUMBIGA1UEAwwLdGVhbTE4Ni1uZXQwHhcNMjMxMTA0MTA0MzU5WhcNMjYxMDE5
MTA0MzU5WjAZMRcwFQYDVQQDDA50ZWFtMTg2LWNsaWVudDCCASIwDQYJKoZIhvcN
AQEBBQADggEPADCCAQoCggEBAK/s3PKIzLRpwFX9l5BgRZwa+JY5AWOUdlzq9ZDL
0n2PKGqS/8SHYIohVQrzs1jEgm4G4hTMFxLxM8NuZpI3eyR+qYe3+s4ls5SITYaY
XpwynKI6r27Jys83zOLTib4rk4Fg2xmqQTryvdcUI+WZdO9NhKGqY9teGa9oC5wX
hb8/hkM3QafioJTirO4htm3stbWcEX91xsA2gkVqg5kOtadyBrtw8ptZEyGiB6gv
k0F6IKXfdRV/sn9Pn+1o85ROI4kEcxcO2gTK33SaS7TPHxUczAEa30jV976t2BPA
tfxjbSDUPFRtG+Vb6nDwPRHXQIr1OGYOSKB4A1DjvqRVTc0CAwEAAaOBojCBnzAJ
BgNVHRMEAjAAMB0GA1UdDgQWBBRU2U/okd6fpmSt50ouHjRl5gzF6DBRBgNVHSME
SjBIgBQsaYdImOzqN9c6RZYNEeieHjygL6EapBgwFjEUMBIGA1UEAwwLdGVhbTE4
Ni1uZXSCFGA7cAOpGd3nrPw7IFsCZGcp1Cu/MBMGA1UdJQQMMAoGCCsGAQUFBwMC
MAsGA1UdDwQEAwIHgDANBgkqhkiG9w0BAQsFAAOCAQEAYFkzwAJhHk97I1lCaYUA
ScqdBCzmaKpGs8IuQ3H2t7UeXSaxytvwtA6Qgg9ACUiwh1R67vqlJfjje/TSbIev
Xldi2B+EvB1SMODl/4EhiR6n4bdNdzWbigV2912Rp+CO8YuFfBoDYoPkuzKdPN/a
IbUsyqhDh8uJTq6issjJeC8xajkWVrEXpLnFUf2VoH1DcTvyiy4/BJ3ae38QsZz0
nnQEruqXkGVcXoO7+4mGIWWRIjahmJOcZX7EOZzuM9da20IzKelmYg5KSA2HnFkE
p2U9UAyn3yV/EvX12/6oi0p/08/u4EarCR8XHpApW2f/aFnt+WsLo4pVtcTScqUH
sA==
-----END CERTIFICATE-----
