Certificate:
    Data:
        Version: 3 (0x2)
        Serial Number:
            32:29:2a:67:71:9b:2a:93:f9:90:04:f3:f5:c7:7a:46
        Signature Algorithm: sha256WithRSAEncryption
        Issuer: CN=team446-net
        Validity
            Not Before: Nov  4 10:48:36 2023 GMT
            Not After : Oct 19 10:48:36 2026 GMT
        Subject: CN=team446-client
        Subject Public Key Info:
            Public Key Algorithm: rsaEncryption
                Public-Key: (2048 bit)
                Modulus:
                    00:b3:ca:a1:f4:97:bd:e4:ab:08:b8:83:9d:ac:fd:
                    5e:96:2b:76:52:bd:15:05:78:5d:18:99:35:73:ca:
                    9f:cb:95:07:51:66:6d:e4:b1:b8:fd:2f:a6:b4:5a:
                    8e:cd:52:db:d3:d2:5a:a6:29:fb:8e:de:86:67:1a:
                    f9:d8:6d:64:4a:db:c4:cd:c2:49:9e:21:e6:88:14:
                    80:0a:3c:a7:20:81:ac:6e:28:92:29:41:e6:f1:ac:
                    97:8a:f7:4e:0c:44:34:41:9a:3a:a3:40:53:4a:f8:
                    5a:7f:04:f4:20:ac:b2:1e:df:c5:bc:0f:d0:c2:ea:
                    90:c6:17:74:c0:da:b9:e5:4b:eb:e6:1e:40:9c:5b:
                    7c:0e:bc:e7:70:66:47:59:c1:13:d6:2f:09:4c:c1:
                    50:38:43:9a:ee:87:b3:da:f7:1e:31:f5:df:1c:53:
                    0a:39:70:79:aa:a6:3a:31:0b:a4:26:56:6d:54:d1:
                    2c:58:7a:56:b8:f2:22:95:09:26:86:b4:f2:9e:1d:
                    8a:e4:8d:e7:61:31:59:c8:e4:e4:b5:59:f6:9a:23:
                    d4:d3:9d:61:df:71:d6:22:04:e9:b0:76:fa:09:6b:
                    ab:60:47:4d:5c:4d:cf:0e:ca:9e:55:55:2f:98:39:
                    e3:70:80:1d:e8:a7:4d:d7:52:c2:b2:79:05:4e:25:
                    4c:61
                Exponent: 65537 (0x10001)
        X509v3 extensions:
            X509v3 Basic Constraints: 
                CA:FALSE
            X509v3 Subject Key Identifier: 
                E2:4F:27:D1:7F:36:F6:63:B1:86:5C:AB:A0:82:EE:59:6B:F2:8A:7B
            X509v3 Authority Key Identifier: 
                keyid:D1:D8:47:71:6C:82:06:4E:31:73:BC:BA:F3:F8:4E:B3:95:44:DB:EA
                DirName:/CN=team446-net
                serial:31:93:EE:C9:A0:A4:53:4F:AB:D9:F1:B7:A1:FC:14:D0:C2:1C:E2:F6
            X509v3 Extended Key Usage: 
                TLS Web Client Authentication
            X509v3 Key Usage: 
                Digital Signature
    Signature Algorithm: sha256WithRSAEncryption
    Signature Value:
        1f:75:24:66:42:37:1d:eb:c8:66:88:1a:52:dd:48:f8:06:44:
        75:ce:5e:51:0b:10:c7:94:d3:08:b4:25:dd:85:a9:33:77:8a:
        a2:c9:3f:21:48:0c:09:20:68:b2:3a:f4:0e:81:ff:28:ea:91:
        91:46:fc:fa:12:21:df:a0:32:b0:e7:5e:33:1d:cb:61:34:7e:
        47:fb:58:40:ab:37:d3:33:95:ab:33:a1:32:54:9b:76:9d:31:
        7e:44:17:7a:1b:f2:53:80:6e:88:b5:ec:a3:6c:94:bf:d2:38:
        82:75:5f:3d:b3:7c:0c:72:b1:dc:a8:9a:83:55:fd:be:5c:39:
        79:85:15:7c:6d:f5:e1:f9:b6:7b:9c:f2:86:71:5c:d6:d4:bc:
        7c:df:3a:74:7d:8f:36:43:d8:52:f2:35:e8:99:49:a6:c5:bf:
        28:97:17:9e:67:1e:ac:2a:22:eb:7c:d0:68:46:c5:71:e5:b6:
        86:1e:73:97:55:6b:8f:ef:b5:71:c4:76:01:f8:ed:ef:8c:b8:
        c8:0e:df:5b:dc:2c:99:7e:7d:aa:3f:95:88:d0:50:43:58:16:
        ac:4c:32:fa:4a:42:5f:7b:1e:be:a5:c5:85:06:3f:25:e0:33:
        f6:5f:23:21:1a:63:00:e5:0a:fc:32:08:72:fb:84:d5:54:64:
        a0:6b:f0:aa
-----BEGIN CERTIFICATE-----
MIIDXDCCAkSgAwIBAgIQMikqZ3GbKpP5kATz9cd6RjANBgkqhkiG9w0BAQsFADAW
MRQwEgYDVQQDDAt0ZWFtNDQ2LW5ldDAeFw0yMzExMDQxMDQ4MzZaFw0yNjEwMTkx
MDQ4MzZaMBkxFzAVBgNVBAMMDnRlYW00NDYtY2xpZW50MIIBIjANBgkqhkiG9w0B
AQEFAAOCAQ8AMIIBCgKCAQEAs8qh9Je95KsIuIOdrP1elit2Ur0VBXhdGJk1c8qf
y5UHUWZt5LG4/S+mtFqOzVLb09Japin7jt6GZxr52G1kStvEzcJJniHmiBSACjyn
IIGsbiiSKUHm8ayXivdODEQ0QZo6o0BTSvhafwT0IKyyHt/FvA/QwuqQxhd0wNq5
5Uvr5h5AnFt8DrzncGZHWcET1i8JTMFQOEOa7oez2vceMfXfHFMKOXB5qqY6MQuk
JlZtVNEsWHpWuPIilQkmhrTynh2K5I3nYTFZyOTktVn2miPU051h33HWIgTpsHb6
CWurYEdNXE3PDsqeVVUvmDnjcIAd6KdN11LCsnkFTiVMYQIDAQABo4GiMIGfMAkG
A1UdEwQCMAAwHQYDVR0OBBYEFOJPJ9F/NvZjsYZcq6CC7llr8op7MFEGA1UdIwRK
MEiAFNHYR3FsggZOMXO8uvP4TrOVRNvqoRqkGDAWMRQwEgYDVQQDDAt0ZWFtNDQ2
LW5ldIIUMZPuyaCkU0+r2fG3ofwU0MIc4vYwEwYDVR0lBAwwCgYIKwYBBQUHAwIw
CwYDVR0PBAQDAgeAMA0GCSqGSIb3DQEBCwUAA4IBAQAfdSRmQjcd68hmiBpS3Uj4
BkR1zl5RCxDHlNMItCXdhakzd4qiyT8hSAwJIGiyOvQOgf8o6pGRRvz6EiHfoDKw
514zHcthNH5H+1hAqzfTM5WrM6EyVJt2nTF+RBd6G/JTgG6IteyjbJS/0jiCdV89
s3wMcrHcqJqDVf2+XDl5hRV8bfXh+bZ7nPKGcVzW1Lx83zp0fY82Q9hS8jXomUmm
xb8olxeeZx6sKiLrfNBoRsVx5baGHnOXVWuP77VxxHYB+O3vjLjIDt9b3CyZfn2q
P5WI0FBDWBasTDL6SkJfex6+pcWFBj8l4DP2XyMhGmMA5Qr8Mghy+4TVVGSga/Cq
-----END CERTIFICATE-----
