Certificate:
    Data:
        Version: 3 (0x2)
        Serial Number:
            48:df:27:f6:32:2c:ed:23:1e:05:dc:9b:59:6f:94:57
        Signature Algorithm: sha256WithRSAEncryption
        Issuer: CN=team446-net
        Validity
            Not Before: Nov  4 11:37:31 2023 GMT
            Not After : Oct 19 11:37:31 2026 GMT
        Subject: CN=team446-client
        Subject Public Key Info:
            Public Key Algorithm: rsaEncryption
                Public-Key: (2048 bit)
                Modulus:
                    00:bd:0a:37:cb:ac:21:cc:6a:b5:1c:3c:74:14:0d:
                    aa:80:40:7d:22:65:a6:38:21:37:f3:5d:41:32:a5:
                    aa:ba:90:5f:1b:69:e4:7c:b5:56:0f:cb:2f:2d:4f:
                    f6:55:ef:db:c3:6f:65:b2:1a:bc:7d:8a:8d:5a:2d:
                    01:12:c5:db:92:03:0b:af:ec:20:6d:c2:1b:74:2d:
                    f6:28:36:c2:2d:8b:de:fd:60:82:a4:62:3e:c9:45:
                    8b:92:c1:a6:9f:33:4f:67:89:43:f6:14:48:38:09:
                    33:9f:da:90:1f:ac:d3:2a:9d:2f:9b:e7:c5:81:27:
                    a7:1f:f5:6b:eb:5e:ad:9f:98:bc:86:20:80:3d:44:
                    9f:ee:aa:46:07:bf:25:91:e6:26:08:6d:bc:d0:c1:
                    c3:95:46:cb:93:36:84:fa:e4:30:a8:59:14:86:9d:
                    81:1e:79:11:a2:32:5d:60:a5:ec:dc:04:75:51:a3:
                    a4:d8:8f:c9:80:c0:98:d8:e5:10:8b:e8:ce:3e:e7:
                    2c:70:02:af:1f:ac:7f:a0:7d:3c:cf:74:85:62:7f:
                    de:28:86:e5:9a:f6:bc:99:b3:33:91:78:2c:f7:7f:
                    29:2a:fd:1f:93:10:44:6e:b7:bb:8c:61:d9:8d:61:
                    2b:f3:d0:16:73:69:4c:7c:b8:76:2f:06:c7:a8:e6:
                    58:79
                Exponent: 65537 (0x10001)
        X509v3 extensions:
            X509v3 Basic Constraints: 
                CA:FALSE
            X509v3 Subject Key Identifier: 
                12:49:11:DC:E8:BF:44:2C:16:A2:B3:32:71:FD:C0:9F:8B:07:D9:42
            X509v3 Authority Key Identifier: 
                keyid:74:B1:FB:AC:85:51:97:8C:22:AC:F5:28:76:B0:61:8B:94:F4:AC:28
                DirName:/CN=team446-net
                serial:49:81:36:26:5D:10:B3:86:FE:17:C3:A9:CE:18:A3:A1:B0:92:D3:C9
            X509v3 Extended Key Usage: 
                TLS Web Client Authentication
            X509v3 Key Usage: 
                Digital Signature
    Signature Algorithm: sha256WithRSAEncryption
    Signature Value:
        92:1b:c3:b5:ac:95:60:88:78:18:fd:fa:08:33:1e:8e:1a:61:
        45:3e:1f:36:67:08:79:4d:99:38:d4:2d:80:bb:c5:c5:8d:78:
        43:19:66:54:6f:3c:2d:c3:96:33:34:a9:b7:57:53:4e:64:67:
        3d:bb:f7:da:e7:ce:3b:2e:1c:82:93:a3:f0:75:ff:8e:4c:a7:
        3c:17:dd:0c:dd:3b:06:c2:ce:cd:02:54:c6:e6:1c:3f:a4:a9:
        c3:d5:18:7c:05:78:75:70:39:bc:78:f6:54:5c:ba:4e:13:ef:
        95:1c:24:c7:83:f8:75:7e:f3:8b:13:03:6d:e4:0f:a5:d9:9d:
        43:9b:5d:52:fe:ac:ac:80:66:41:58:e1:52:e5:a2:8f:9b:94:
        ff:4b:4f:57:15:6c:06:e9:b3:d6:72:b6:18:98:a1:fd:35:7b:
        c2:c7:f0:5a:45:39:ea:d5:14:bd:1a:36:60:34:2b:14:db:cc:
        08:91:0e:76:ee:f7:e1:5e:74:54:97:6c:3b:d5:92:ed:89:c8:
        1e:e3:1b:35:b1:88:dc:83:82:53:77:73:bc:dc:4f:49:5a:cb:
        c5:38:28:bb:a1:75:e4:a4:cf:16:8e:c4:16:68:67:a5:2a:a3:
        17:cf:20:1b:68:a4:c3:01:0a:94:5f:a4:92:63:df:9c:bb:f7:
        65:64:a1:9b
-----BEGIN CERTIFICATE-----
MIIDXDCCAkSgAwIBAgIQSN8n9jIs7SMeBdybWW+UVzANBgkqhkiG9w0BAQsFADAW
MRQwEgYDVQQDDAt0ZWFtNDQ2LW5ldDAeFw0yMzExMDQxMTM3MzFaFw0yNjEwMTkx
MTM3MzFaMBkxFzAVBgNVBAMMDnRlYW00NDYtY2xpZW50MIIBIjANBgkqhkiG9w0B
AQEFAAOCAQ8AMIIBCgKCAQEAvQo3y6whzGq1HDx0FA2qgEB9ImWmOCE3811BMqWq
upBfG2nkfLVWD8svLU/2Ve/bw29lshq8fYqNWi0BEsXbkgMLr+wgbcIbdC32KDbC
LYve/WCCpGI+yUWLksGmnzNPZ4lD9hRIOAkzn9qQH6zTKp0vm+fFgSenH/Vr616t
n5i8hiCAPUSf7qpGB78lkeYmCG280MHDlUbLkzaE+uQwqFkUhp2BHnkRojJdYKXs
3AR1UaOk2I/JgMCY2OUQi+jOPucscAKvH6x/oH08z3SFYn/eKIblmva8mbMzkXgs
938pKv0fkxBEbre7jGHZjWEr89AWc2lMfLh2LwbHqOZYeQIDAQABo4GiMIGfMAkG
A1UdEwQCMAAwHQYDVR0OBBYEFBJJEdzov0QsFqKzMnH9wJ+LB9lCMFEGA1UdIwRK
MEiAFHSx+6yFUZeMIqz1KHawYYuU9KwooRqkGDAWMRQwEgYDVQQDDAt0ZWFtNDQ2
LW5ldIIUSYE2Jl0Qs4b+F8OpzhijobCS08kwEwYDVR0lBAwwCgYIKwYBBQUHAwIw
CwYDVR0PBAQDAgeAMA0GCSqGSIb3DQEBCwUAA4IBAQCSG8O1rJVgiHgY/foIMx6O
GmFFPh82Zwh5TZk41C2Au8XFjXhDGWZUbzwtw5YzNKm3V1NOZGc9u/fa5847LhyC
k6Pwdf+OTKc8F90M3TsGws7NAlTG5hw/pKnD1Rh8BXh1cDm8ePZUXLpOE++VHCTH
g/h1fvOLEwNt5A+l2Z1Dm11S/qysgGZBWOFS5aKPm5T/S09XFWwG6bPWcrYYmKH9
NXvCx/BaRTnq1RS9GjZgNCsU28wIkQ527vfhXnRUl2w71ZLticge4xs1sYjcg4JT
d3O83E9JWsvFOCi7oXXkpM8WjsQWaGelKqMXzyAbaKTDAQqUX6SSY9+cu/dlZKGb
-----END CERTIFICATE-----
