Certificate:
    Data:
        Version: 3 (0x2)
        Serial Number:
            c6:6f:f1:8c:9f:a9:d9:51:b3:e1:a5:f5:c8:bc:d3:06
        Signature Algorithm: sha256WithRSAEncryption
        Issuer: CN=team446-net
        Validity
            Not Before: Nov  4 11:37:31 2023 GMT
            Not After : Oct 19 11:37:31 2026 GMT
        Subject: CN=team446-server
        Subject Public Key Info:
            Public Key Algorithm: rsaEncryption
                Public-Key: (2048 bit)
                Modulus:
                    00:da:8a:a9:be:ea:04:a1:a6:a2:74:a2:00:94:3a:
                    c2:a2:e1:c8:a9:07:21:7a:12:6e:d7:3f:7d:57:ed:
                    f1:10:1f:0d:05:ce:21:ff:85:0c:4c:e8:7e:16:88:
                    11:f6:c7:d9:5b:5e:df:de:3d:db:a5:3e:a4:6a:03:
                    bf:3f:85:cf:5a:3f:58:4f:e9:de:0f:1e:ba:9f:a2:
                    e4:bb:03:7e:08:b1:b5:bc:12:75:04:94:11:4c:13:
                    4f:81:78:0a:a1:4d:7f:55:d2:22:39:b0:66:3e:a2:
                    66:5f:6b:b8:f3:74:1d:3e:11:6e:4b:26:b4:33:79:
                    22:e9:31:f8:76:91:d8:f6:ae:82:9e:97:2d:1f:4b:
                    a8:40:25:04:cc:56:2f:8b:da:52:b5:7b:28:f5:df:
                    80:7c:cf:74:ee:78:9f:a5:2f:e1:9d:ba:cd:98:66:
                    6a:aa:2d:ce:3d:e1:1b:de:b7:ba:74:32:b2:60:0e:
                    c1:32:88:9b:58:74:b5:18:57:a0:d0:bb:d2:8a:96:
                    a8:37:b5:19:dd:81:d8:b8:94:44:c5:6a:e3:65:49:
                    bc:4b:08:d1:be:3d:36:f0:2e:80:80:c5:29:d9:0a:
                    d3:b9:0c:78:4f:d4:b4:6d:4b:bd:b0:b6:e7:42:3b:
                    e7:f6:ae:ef:ab:71:32:28:f4:62:b2:ee:3c:f7:fb:
                    8f:e7
                Exponent: 65537 (0x10001)
        X509v3 extensions:
            X509v3 Basic Constraints: 
                CA:FALSE
            X509v3 Subject Key Identifier: 
                D9:E6:3D:97:72:18:57:82:CB:39:7A:D9:2D:70:60:02:E9:00:51:57
            X509v3 Authority Key Identifier: 
                keyid:74:B1:FB:AC:85:51:97:8C:22:AC:F5:28:76:B0:61:8B:94:F4:AC:28
                DirName:/CN=team446-net
                serial:49:81:36:26:5D:10:B3:86:FE:17:C3:A9:CE:18:A3:A1:B0:92:D3:C9
            X509v3 Extended Key Usage: 
                TLS Web Server Authentication
            X509v3 Key Usage: 
                Digital Signature, Key Encipherment
            X509v3 Subject Alternative Name: 
                DNS:team446-server
    Signature Algorithm: sha256WithRSAEncryption
    Signature Value:
        05:97:69:d0:1a:c7:75:c6:ee:e8:d5:0d:8d:ea:fb:14:5f:1b:
        66:f7:98:bd:5f:ee:e7:fc:1c:29:20:89:b2:2d:d1:d7:b0:ad:
        48:3c:5a:18:62:bc:b2:13:65:9f:87:fe:06:41:ca:81:71:92:
        68:84:c1:86:38:48:0e:cc:fd:01:ed:f9:3e:d5:fe:d3:c7:5b:
        db:3c:17:d1:ea:ad:16:d6:ef:af:eb:29:ad:9c:0f:07:68:d5:
        0b:9a:f4:8c:78:c9:0d:a7:f7:f3:01:e0:38:27:1b:a1:8e:a9:
        74:50:e0:81:aa:57:c1:f0:93:5a:e4:88:cc:55:59:14:4e:4c:
        8b:1b:e2:e4:33:ac:1e:5f:fa:04:6f:a5:46:2e:06:34:e8:26:
        28:cf:ab:5a:11:02:b4:21:c9:da:96:eb:8c:ac:0b:68:94:4e:
        db:fb:a5:91:5d:32:e7:a8:25:b1:c6:25:01:e9:05:09:b0:d1:
        21:cc:e4:74:02:58:7f:bf:ca:11:cc:a3:ea:c1:94:b1:d2:eb:
        db:06:f2:56:7a:f3:55:ef:10:f3:54:bb:fe:a7:ef:72:1e:e4:
        91:05:e7:fc:70:6c:3d:93:3f:4c:3e:dc:8c:e9:63:9b:5e:27:
        63:2c:51:3f:ef:e4:e5:d8:13:6f:15:cb:70:96:c5:ed:c9:ff:
        31:2b:0e:1a
-----BEGIN CERTIFICATE-----
MIIDeDCCAmCgAwIBAgIRAMZv8YyfqdlRs+Gl9ci80wYwDQYJKoZIhvcNAQELBQAw
FjEUMBIGA1UEAwwLdGVhbTQ0Ni1uZXQwHhcNMjMxMTA0MTEzNzMxWhcNMjYxMDE5
MTEzNzMxWjAZMRcwFQYDVQQDDA50ZWFtNDQ2LXNlcnZlcjCCASIwDQYJKoZIhvcN
AQEBBQADggEPADCCAQoCggEBANqKqb7qBKGmonSiAJQ6wqLhyKkHIXoSbtc/fVft
8RAfDQXOIf+FDEzofhaIEfbH2Vte394926U+pGoDvz+Fz1o/WE/p3g8eup+i5LsD
fgixtbwSdQSUEUwTT4F4CqFNf1XSIjmwZj6iZl9ruPN0HT4RbksmtDN5Iukx+HaR
2Paugp6XLR9LqEAlBMxWL4vaUrV7KPXfgHzPdO54n6Uv4Z26zZhmaqotzj3hG963
unQysmAOwTKIm1h0tRhXoNC70oqWqDe1Gd2B2LiURMVq42VJvEsI0b49NvAugIDF
KdkK07kMeE/UtG1LvbC250I75/au76txMij0YrLuPPf7j+cCAwEAAaOBvTCBujAJ
BgNVHRMEAjAAMB0GA1UdDgQWBBTZ5j2XchhXgss5etktcGAC6QBRVzBRBgNVHSME
SjBIgBR0sfushVGXjCKs9Sh2sGGLlPSsKKEapBgwFjEUMBIGA1UEAwwLdGVhbTQ0
Ni1uZXSCFEmBNiZdELOG/hfDqc4Yo6GwktPJMBMGA1UdJQQMMAoGCCsGAQUFBwMB
MAsGA1UdDwQEAwIFoDAZBgNVHREEEjAQgg50ZWFtNDQ2LXNlcnZlcjANBgkqhkiG
9w0BAQsFAAOCAQEABZdp0BrHdcbu6NUNjer7FF8bZveYvV/u5/wcKSCJsi3R17Ct
SDxaGGK8shNln4f+BkHKgXGSaITBhjhIDsz9Ae35PtX+08db2zwX0eqtFtbvr+sp
rZwPB2jVC5r0jHjJDaf38wHgOCcboY6pdFDggapXwfCTWuSIzFVZFE5Mixvi5DOs
Hl/6BG+lRi4GNOgmKM+rWhECtCHJ2pbrjKwLaJRO2/ulkV0y56glscYlAekFCbDR
IczkdAJYf7/KEcyj6sGUsdLr2wbyVnrzVe8Q81S7/qfvch7kkQXn/HBsPZM/TD7c
jOljm14nYyxRP+/k5dgTbxXLcJbF7cn/MSsOGg==
-----END CERTIFICATE-----
