Certificate:
    Data:
        Version: 3 (0x2)
        Serial Number:
            fa:51:0f:28:67:05:fb:77:3c:15:13:6d:39:12:64:06
        Signature Algorithm: sha256WithRSAEncryption
        Issuer: CN=team446-net
        Validity
            Not Before: Nov  4 10:48:36 2023 GMT
            Not After : Oct 19 10:48:36 2026 GMT
        Subject: CN=team446-server
        Subject Public Key Info:
            Public Key Algorithm: rsaEncryption
                Public-Key: (2048 bit)
                Modulus:
                    00:d3:fb:e1:93:7b:96:ed:96:f8:e6:dc:b1:6a:85:
                    3a:7c:55:77:f1:4d:ad:52:bc:49:e4:b5:fd:b4:ba:
                    44:d4:cc:08:42:48:26:7e:9d:ea:59:57:1d:54:ce:
                    59:a1:8e:89:ee:fe:02:d4:48:2e:9d:d5:87:94:aa:
                    e9:d1:cd:95:47:e1:73:15:2e:52:3d:39:bd:1e:25:
                    4a:0e:d3:74:43:76:00:50:e6:82:00:84:a5:1d:d6:
                    55:2a:8a:14:5f:ab:54:56:98:bf:74:e4:f0:bd:2b:
                    f3:55:0f:0f:63:9c:4e:1d:c0:c4:0d:8d:50:6b:3f:
                    76:d7:83:73:fb:17:c3:27:cd:54:e9:97:14:91:43:
                    0a:5d:e7:ac:b5:3c:ed:db:f2:4c:71:e2:67:d5:d5:
                    91:94:59:26:b2:56:c3:9a:7b:52:ed:43:90:6e:a3:
                    2e:13:83:c1:5a:0e:c0:ab:a3:73:1f:ea:48:1e:01:
                    2e:9c:8e:15:ef:ef:c4:48:e8:c6:12:3a:e0:5e:ed:
                    e7:30:0e:f8:c3:65:06:cf:3d:fd:2c:f5:9c:aa:6e:
                    b4:9a:7b:0e:17:8d:77:e7:ff:5f:b4:73:17:8b:fa:
                    a3:38:47:8b:9f:ac:d9:a8:6d:43:2d:44:d7:0b:0b:
                    45:68:9d:f4:ae:26:db:44:2d:f2:c2:14:16:f3:37:
                    d8:7b
                Exponent: 65537 (0x10001)
        X509v3 extensions:
            X509v3 Basic Constraints: 
                CA:FALSE
            X509v3 Subject Key Identifier: 
                97:08:A5:4F:09:2B:12:5D:17:4D:63:B1:6D:07:E2:6F:23:DF:88:E4
            X509v3 Authority Key Identifier: 
                keyid:D1:D8:47:71:6C:82:06:4E:31:73:BC:BA:F3:F8:4E:B3:95:44:DB:EA
                DirName:/CN=team446-net
                serial:31:93:EE:C9:A0:A4:53:4F:AB:D9:F1:B7:A1:FC:14:D0:C2:1C:E2:F6
            X509v3 Extended Key Usage: 
                TLS Web Server Authentication
            X509v3 Key Usage: 
                Digital Signature, Key Encipherment
            X509v3 Subject Alternative Name: 
                DNS:team446-server
    Signature Algorithm: sha256WithRSAEncryption
    Signature Value:
        39:5d:7e:e7:4d:37:b4:ca:32:c7:a1:e1:82:9f:d4:c6:b1:a9:
        e7:62:d9:46:2e:cd:26:ae:cd:cd:73:53:60:e7:53:aa:4d:fe:
        91:56:f7:2e:a4:55:ff:bc:4b:33:d0:04:08:68:3a:d4:2b:f4:
        3d:c8:d8:68:91:7e:45:86:cb:68:69:df:33:4e:de:3a:dc:41:
        28:e6:64:17:24:d7:18:2d:e3:f1:20:f2:62:b5:d7:62:c7:57:
        4e:61:2e:95:82:64:e8:ae:ab:6c:44:42:fb:92:12:bd:b6:44:
        7f:f6:9f:92:05:98:ab:83:43:88:2f:99:0d:ca:ce:6d:8b:d2:
        63:43:6c:ec:5a:ad:0e:63:42:8c:70:31:01:e1:c1:dc:f7:10:
        32:76:5c:15:d7:74:e2:9d:60:51:33:fd:b0:28:9d:f0:e0:eb:
        78:df:31:03:7b:19:0a:39:3a:84:4a:11:dd:c6:90:5a:d8:6e:
        99:15:d8:42:f6:ad:41:25:76:28:d3:42:6d:58:dc:b6:68:f1:
        13:e6:61:9d:6c:e1:90:04:ef:72:6f:87:b0:d4:d9:38:a9:32:
        fe:e6:df:00:f8:28:50:58:af:56:47:6b:23:ac:07:58:d3:f6:
        69:31:1b:20:35:40:ad:05:37:8f:8e:b3:b8:10:13:4c:9b:bf:
        5a:ea:6b:13
-----BEGIN CERTIFICATE-----
MIIDeDCCAmCgAwIBAgIRAPpRDyhnBft3PBUTbTkSZAYwDQYJKoZIhvcNAQELBQAw
FjEUMBIGA1UEAwwLdGVhbTQ0Ni1uZXQwHhcNMjMxMTA0MTA0ODM2WhcNMjYxMDE5
MTA0ODM2WjAZMRcwFQYDVQQDDA50ZWFtNDQ2LXNlcnZlcjCCASIwDQYJKoZIhvcN
AQEBBQADggEPADCCAQoCggEBANP74ZN7lu2W+ObcsWqFOnxVd/FNrVK8SeS1/bS6
RNTMCEJIJn6d6llXHVTOWaGOie7+AtRILp3Vh5Sq6dHNlUfhcxUuUj05vR4lSg7T
dEN2AFDmggCEpR3WVSqKFF+rVFaYv3Tk8L0r81UPD2OcTh3AxA2NUGs/dteDc/sX
wyfNVOmXFJFDCl3nrLU87dvyTHHiZ9XVkZRZJrJWw5p7Uu1DkG6jLhODwVoOwKuj
cx/qSB4BLpyOFe/vxEjoxhI64F7t5zAO+MNlBs89/Sz1nKputJp7DheNd+f/X7Rz
F4v6ozhHi5+s2ahtQy1E1wsLRWid9K4m20Qt8sIUFvM32HsCAwEAAaOBvTCBujAJ
BgNVHRMEAjAAMB0GA1UdDgQWBBSXCKVPCSsSXRdNY7FtB+JvI9+I5DBRBgNVHSME
SjBIgBTR2EdxbIIGTjFzvLrz+E6zlUTb6qEapBgwFjEUMBIGA1UEAwwLdGVhbTQ0
Ni1uZXSCFDGT7smgpFNPq9nxt6H8FNDCHOL2MBMGA1UdJQQMMAoGCCsGAQUFBwMB
MAsGA1UdDwQEAwIFoDAZBgNVHREEEjAQgg50ZWFtNDQ2LXNlcnZlcjANBgkqhkiG
9w0BAQsFAAOCAQEAOV1+5003tMoyx6Hhgp/UxrGp52LZRi7NJq7NzXNTYOdTqk3+
kVb3LqRV/7xLM9AECGg61Cv0PcjYaJF+RYbLaGnfM07eOtxBKOZkFyTXGC3j8SDy
YrXXYsdXTmEulYJk6K6rbERC+5ISvbZEf/afkgWYq4NDiC+ZDcrObYvSY0Ns7Fqt
DmNCjHAxAeHB3PcQMnZcFdd04p1gUTP9sCid8ODreN8xA3sZCjk6hEoR3caQWthu
mRXYQvatQSV2KNNCbVjctmjxE+ZhnWzhkATvcm+HsNTZOKky/ubfAPgoUFivVkdr
I6wHWNP2aTEbIDVArQU3j46zuBATTJu/WuprEw==
-----END CERTIFICATE-----
