Certificate:
    Data:
        Version: 3 (0x2)
        Serial Number:
            0a:89:9f:8a:0e:d1:45:bf:af:98:39:d1:92:ba:e3:22
        Signature Algorithm: sha256WithRSAEncryption
        Issuer: CN=team450-net
        Validity
            Not Before: Nov  3 20:47:26 2023 GMT
            Not After : Oct 18 20:47:26 2026 GMT
        Subject: CN=team450-server
        Subject Public Key Info:
            Public Key Algorithm: rsaEncryption
                Public-Key: (2048 bit)
                Modulus:
                    00:a7:6f:c6:ea:a9:03:ca:23:9e:47:75:dd:3c:ce:
                    e3:df:dd:fe:1a:0c:7c:00:4c:61:2d:3a:1b:8d:eb:
                    48:09:dd:14:75:c2:13:ef:81:e3:1c:e3:95:38:9f:
                    c5:58:dc:69:d8:a2:70:72:bc:96:93:ab:88:06:ac:
                    91:6b:42:22:4f:21:91:2c:81:84:6a:8a:d9:af:58:
                    8c:bb:ee:48:69:e7:30:0c:6c:e6:17:ec:13:7d:c7:
                    92:ed:98:9e:d9:83:a9:aa:73:43:45:22:12:ba:65:
                    7d:72:fe:3e:80:00:e1:c1:7f:be:b2:4b:06:6d:b8:
                    4f:09:5b:c0:4f:09:45:e4:2c:26:24:1e:78:5c:92:
                    3f:5f:c1:24:23:72:4d:d6:53:92:2a:45:0a:0b:0b:
                    88:7e:9e:af:a9:8f:df:ec:5b:9c:da:11:1e:f0:43:
                    bc:8a:73:de:2b:26:f4:a2:04:a6:46:d3:15:d8:af:
                    56:b0:4e:15:75:65:91:b1:44:62:87:00:84:24:86:
                    c3:bf:15:3b:58:68:81:6f:69:c3:55:c8:ef:b2:34:
                    1e:5b:39:3a:4b:38:31:a1:8f:b8:22:b7:37:e5:00:
                    54:09:a1:41:1a:6d:74:87:71:c2:a1:a2:63:3c:89:
                    f1:4a:46:5a:21:a6:84:73:d7:07:c5:ad:06:c8:b7:
                    79:c7
                Exponent: 65537 (0x10001)
        X509v3 extensions:
            X509v3 Basic Constraints: 
                CA:FALSE
            X509v3 Subject Key Identifier: 
                52:CA:A0:B7:31:80:AD:8A:F2:0A:0B:9E:AF:F4:C7:83:6B:38:8C:45
            X509v3 Authority Key Identifier: 
                keyid:EB:66:3C:CA:4D:3F:B0:82:81:ED:00:2E:8B:BD:2D:60:18:56:84:C2
                DirName:/CN=team450-net
                serial:07:8B:5F:1A:6E:FA:FD:43:BA:6C:39:71:DA:63:B3:2E:26:3A:BF:45
            X509v3 Extended Key Usage: 
                TLS Web Server Authentication
            X509v3 Key Usage: 
                Digital Signature, Key Encipherment
            X509v3 Subject Alternative Name: 
                DNS:team450-server
    Signature Algorithm: sha256WithRSAEncryption
    Signature Value:
        a8:bf:f1:44:98:7a:86:3d:b7:dc:6a:76:fb:77:a0:d4:33:af:
        0c:b6:93:0a:1b:76:ab:c4:4f:8d:9d:5f:dd:ae:fb:6a:e1:51:
        91:be:20:e5:fa:00:79:66:87:a2:fe:c3:65:ea:f2:b9:9b:ec:
        33:59:87:67:31:32:b9:b2:c8:72:97:d2:20:bc:fc:e7:de:7b:
        26:52:c3:ca:9f:95:94:6b:32:f0:ce:3c:79:6a:3a:b9:2e:0d:
        25:af:23:31:1d:c4:5a:2b:75:4d:e3:65:f6:88:ec:6a:e8:11:
        bf:6e:a3:fa:20:00:a5:5b:f4:92:bf:e1:a3:20:26:90:62:8c:
        e1:fb:01:a3:6b:bf:12:4b:79:a1:17:18:43:14:70:18:63:89:
        40:cf:fa:fe:77:c3:09:46:b8:bb:31:7a:3f:71:50:a3:7f:ce:
        f9:51:c9:e6:87:ba:3a:02:25:58:47:dc:55:f1:cd:2a:18:3e:
        52:26:7b:35:a0:f5:a2:84:40:dd:b7:5d:27:7e:8e:3b:30:9e:
        25:06:b8:14:5a:7d:ea:65:78:93:9c:39:53:4c:3d:3e:cb:c8:
        a1:d1:20:cf:68:f7:7d:ab:ec:ef:04:45:10:56:9e:ed:54:ff:
        72:1e:e3:a3:c1:80:38:8a:dd:e2:fd:2a:b6:96:41:ec:6a:34:
        32:69:f1:8d
-----BEGIN CERTIFICATE-----
MIIDdzCCAl+gAwIBAgIQComfig7RRb+vmDnRkrrjIjANBgkqhkiG9w0BAQsFADAW
MRQwEgYDVQQDDAt0ZWFtNDUwLW5ldDAeFw0yMzExMDMyMDQ3MjZaFw0yNjEwMTgy
MDQ3MjZaMBkxFzAVBgNVBAMMDnRlYW00NTAtc2VydmVyMIIBIjANBgkqhkiG9w0B
AQEFAAOCAQ8AMIIBCgKCAQEAp2/G6qkDyiOeR3XdPM7j393+Ggx8AExhLTobjetI
Cd0UdcIT74HjHOOVOJ/FWNxp2KJwcryWk6uIBqyRa0IiTyGRLIGEaorZr1iMu+5I
aecwDGzmF+wTfceS7Zie2YOpqnNDRSISumV9cv4+gADhwX++sksGbbhPCVvATwlF
5CwmJB54XJI/X8EkI3JN1lOSKkUKCwuIfp6vqY/f7Fuc2hEe8EO8inPeKyb0ogSm
RtMV2K9WsE4VdWWRsURihwCEJIbDvxU7WGiBb2nDVcjvsjQeWzk6SzgxoY+4Irc3
5QBUCaFBGm10h3HCoaJjPInxSkZaIaaEc9cHxa0GyLd5xwIDAQABo4G9MIG6MAkG
A1UdEwQCMAAwHQYDVR0OBBYEFFLKoLcxgK2K8goLnq/0x4NrOIxFMFEGA1UdIwRK
MEiAFOtmPMpNP7CCge0ALou9LWAYVoTCoRqkGDAWMRQwEgYDVQQDDAt0ZWFtNDUw
LW5ldIIUB4tfGm76/UO6bDlx2mOzLiY6v0UwEwYDVR0lBAwwCgYIKwYBBQUHAwEw
CwYDVR0PBAQDAgWgMBkGA1UdEQQSMBCCDnRlYW00NTAtc2VydmVyMA0GCSqGSIb3
DQEBCwUAA4IBAQCov/FEmHqGPbfcanb7d6DUM68MtpMKG3arxE+NnV/drvtq4VGR
viDl+gB5Zoei/sNl6vK5m+wzWYdnMTK5sshyl9IgvPzn3nsmUsPKn5WUazLwzjx5
ajq5Lg0lryMxHcRaK3VN42X2iOxq6BG/bqP6IAClW/SSv+GjICaQYozh+wGja78S
S3mhFxhDFHAYY4lAz/r+d8MJRri7MXo/cVCjf875Ucnmh7o6AiVYR9xV8c0qGD5S
Jns1oPWihEDdt10nfo47MJ4lBrgUWn3qZXiTnDlTTD0+y8ih0SDPaPd9q+zvBEUQ
Vp7tVP9yHuOjwYA4it3i/Sq2lkHsajQyafGN
-----END CERTIFICATE-----
