Certificate:
    Data:
        Version: 3 (0x2)
        Serial Number:
            b2:56:12:d2:5c:c2:0e:98:ee:bb:5d:cf:e8:ec:c3:00
        Signature Algorithm: sha256WithRSAEncryption
        Issuer: CN=team450-net
        Validity
            Not Before: Nov  4 10:48:39 2023 GMT
            Not After : Oct 19 10:48:39 2026 GMT
        Subject: CN=team450-server
        Subject Public Key Info:
            Public Key Algorithm: rsaEncryption
                Public-Key: (2048 bit)
                Modulus:
                    00:e0:27:a9:c5:2c:87:4e:1c:e4:80:91:f5:0b:ed:
                    7d:2f:3c:fd:c5:a1:69:73:31:7e:e5:fc:ca:fa:fd:
                    62:16:8e:1e:59:28:d9:ee:7e:c2:ee:a9:fa:7e:96:
                    b9:bf:06:04:7a:6a:73:9e:eb:a6:4e:8b:d4:38:75:
                    26:92:8a:4a:3f:60:3b:81:fd:d4:b2:d8:2b:4d:07:
                    b2:8c:49:0f:c9:ff:45:e2:b3:12:46:08:be:ee:63:
                    c4:54:63:cf:62:18:a0:03:23:32:ca:a9:b6:73:b2:
                    ea:f6:98:59:96:5a:32:f8:48:6c:dd:fb:6d:b5:78:
                    f4:01:25:16:af:ab:7d:c4:dc:87:ef:a6:db:f9:e4:
                    ef:6f:66:3c:ce:81:cc:4f:fc:af:71:d2:e7:70:e6:
                    34:7e:87:30:bb:1f:d5:54:5b:17:23:33:60:ed:11:
                    38:a0:97:75:24:18:81:76:f6:dd:51:c3:b5:79:42:
                    a0:3e:d9:0e:99:f5:a2:38:59:d2:a1:38:aa:c7:c7:
                    53:3a:fd:a7:d3:ad:c6:5c:6f:70:65:f2:e8:30:d3:
                    61:03:88:ea:28:b2:71:fc:9e:94:a1:1e:78:60:d7:
                    e3:b5:54:31:e6:02:92:25:8e:e7:6c:0d:88:90:6f:
                    bc:4e:ce:a5:8c:f2:74:d2:7a:e1:38:6b:c7:cb:bd:
                    63:cf
                Exponent: 65537 (0x10001)
        X509v3 extensions:
            X509v3 Basic Constraints: 
                CA:FALSE
            X509v3 Subject Key Identifier: 
                67:30:52:D9:77:E2:DA:D8:57:0C:4F:F8:E4:DD:81:2F:AF:46:8F:3D
            X509v3 Authority Key Identifier: 
                keyid:F0:DD:9A:C7:4B:1C:93:4B:EE:BE:7C:8C:3C:B7:21:DA:5C:40:F6:6C
                DirName:/CN=team450-net
                serial:67:12:76:BD:4C:7F:16:00:B9:AA:3D:CF:0A:71:E3:8D:89:68:74:B8
            X509v3 Extended Key Usage: 
                TLS Web Server Authentication
            X509v3 Key Usage: 
                Digital Signature, Key Encipherment
            X509v3 Subject Alternative Name: 
                DNS:team450-server
    Signature Algorithm: sha256WithRSAEncryption
    Signature Value:
        9a:a7:c9:07:a7:96:f5:c9:ea:6f:42:72:56:13:17:31:d8:7d:
        63:ae:aa:9e:31:5a:b8:50:ae:0a:6e:0f:61:9a:8d:ca:39:7d:
        14:5c:f7:1d:53:2d:7f:a1:5a:5f:fd:d4:cb:ed:df:0b:d4:59:
        99:35:f7:e4:83:69:59:d2:dc:4b:fb:51:7d:e7:01:94:c9:ea:
        87:b0:56:5b:fa:3a:0e:86:61:0f:f9:28:9e:0a:0a:0f:6f:b0:
        35:27:7f:42:f0:cd:92:0a:93:3a:cd:0e:48:20:f8:ba:34:20:
        d7:0a:4c:27:b5:bd:30:1b:92:b6:48:95:d0:4e:3c:ae:24:dc:
        30:b1:a8:e0:71:5b:64:8b:02:08:b0:7d:6d:84:fd:47:3e:36:
        98:15:45:a0:ea:1f:fd:db:ed:39:e8:91:f7:11:74:67:7a:5f:
        cc:ca:ab:d8:37:f3:41:d5:b5:2a:4f:b0:2f:4c:70:3f:db:19:
        43:30:3f:56:35:bb:60:0a:71:59:b3:90:02:c5:4e:55:9d:7f:
        b3:7e:32:6d:cb:86:22:ed:9b:b1:14:ff:a9:9c:41:89:bc:ad:
        0a:81:16:c5:c1:e8:c2:41:9d:98:d5:dd:be:70:1c:5d:af:24:
        64:d3:42:a5:92:0e:b3:1d:74:61:1c:82:80:eb:41:f5:77:86:
        38:f5:ac:3d
-----BEGIN CERTIFICATE-----
MIIDeDCCAmCgAwIBAgIRALJWEtJcwg6Y7rtdz+jswwAwDQYJKoZIhvcNAQELBQAw
FjEUMBIGA1UEAwwLdGVhbTQ1MC1uZXQwHhcNMjMxMTA0MTA0ODM5WhcNMjYxMDE5
MTA0ODM5WjAZMRcwFQYDVQQDDA50ZWFtNDUwLXNlcnZlcjCCASIwDQYJKoZIhvcN
AQEBBQADggEPADCCAQoCggEBAOAnqcUsh04c5ICR9QvtfS88/cWhaXMxfuX8yvr9
YhaOHlko2e5+wu6p+n6Wub8GBHpqc57rpk6L1Dh1JpKKSj9gO4H91LLYK00HsoxJ
D8n/ReKzEkYIvu5jxFRjz2IYoAMjMsqptnOy6vaYWZZaMvhIbN37bbV49AElFq+r
fcTch++m2/nk729mPM6BzE/8r3HS53DmNH6HMLsf1VRbFyMzYO0ROKCXdSQYgXb2
3VHDtXlCoD7ZDpn1ojhZ0qE4qsfHUzr9p9OtxlxvcGXy6DDTYQOI6iiycfyelKEe
eGDX47VUMeYCkiWO52wNiJBvvE7OpYzydNJ64Thrx8u9Y88CAwEAAaOBvTCBujAJ
BgNVHRMEAjAAMB0GA1UdDgQWBBRnMFLZd+La2FcMT/jk3YEvr0aPPTBRBgNVHSME
SjBIgBTw3ZrHSxyTS+6+fIw8tyHaXED2bKEapBgwFjEUMBIGA1UEAwwLdGVhbTQ1
MC1uZXSCFGcSdr1MfxYAuao9zwpx442JaHS4MBMGA1UdJQQMMAoGCCsGAQUFBwMB
MAsGA1UdDwQEAwIFoDAZBgNVHREEEjAQgg50ZWFtNDUwLXNlcnZlcjANBgkqhkiG
9w0BAQsFAAOCAQEAmqfJB6eW9cnqb0JyVhMXMdh9Y66qnjFauFCuCm4PYZqNyjl9
FFz3HVMtf6FaX/3Uy+3fC9RZmTX35INpWdLcS/tRfecBlMnqh7BWW/o6DoZhD/ko
ngoKD2+wNSd/QvDNkgqTOs0OSCD4ujQg1wpMJ7W9MBuStkiV0E48riTcMLGo4HFb
ZIsCCLB9bYT9Rz42mBVFoOof/dvtOeiR9xF0Z3pfzMqr2DfzQdW1Kk+wL0xwP9sZ
QzA/VjW7YApxWbOQAsVOVZ1/s34ybcuGIu2bsRT/qZxBibytCoEWxcHowkGdmNXd
vnAcXa8kZNNCpZIOsx10YRyCgOtB9XeGOPWsPQ==
-----END CERTIFICATE-----
