Certificate:
    Data:
        Version: 3 (0x2)
        Serial Number:
            b3:18:9d:c3:33:e6:b8:7c:00:46:8c:6b:82:2f:52:fb
        Signature Algorithm: sha256WithRSAEncryption
        Issuer: CN=team450-net
        Validity
            Not Before: Nov  4 10:48:39 2023 GMT
            Not After : Oct 19 10:48:39 2026 GMT
        Subject: CN=team450-client
        Subject Public Key Info:
            Public Key Algorithm: rsaEncryption
                Public-Key: (2048 bit)
                Modulus:
                    00:9c:37:3c:70:c2:91:20:ff:73:ea:26:5f:9e:4a:
                    ce:bd:88:67:94:c1:de:c7:6c:b3:1f:7c:68:9e:16:
                    17:07:0e:33:4e:a9:b6:2f:dd:32:2d:60:2f:2f:28:
                    98:9a:0f:47:d2:60:57:e8:57:ee:4e:c6:40:b3:ab:
                    24:cc:5a:f6:59:7a:e7:fb:8d:bd:2e:3d:05:5f:f3:
                    43:de:d4:32:99:3a:23:bd:e7:14:a7:6b:bc:af:92:
                    a7:86:cb:a6:e7:39:f7:f6:0e:a1:83:0f:ce:cd:fa:
                    7c:72:89:2b:5b:98:db:84:c1:34:4d:bc:ea:20:4f:
                    df:4a:62:9f:03:83:d8:46:ed:bc:17:f1:4b:99:c1:
                    29:67:df:12:8b:88:0d:63:5d:72:e9:27:25:5b:b5:
                    f9:a2:f7:ab:83:f3:04:88:41:0e:09:38:1a:e6:c7:
                    49:b6:8d:3f:ee:01:06:45:29:b8:1c:50:24:e5:5c:
                    25:de:a1:78:ef:98:c7:9d:20:6c:36:ea:a4:eb:fc:
                    27:b4:e3:9d:05:5b:24:f3:19:58:e9:75:60:e9:ff:
                    2d:de:a0:33:55:e5:05:35:06:57:77:a7:dd:40:05:
                    6a:53:b2:31:89:1c:85:81:60:4a:bb:11:15:a4:21:
                    6b:7d:4d:a3:35:84:82:e1:b5:6f:86:ff:12:0a:f3:
                    72:95
                Exponent: 65537 (0x10001)
        X509v3 extensions:
            X509v3 Basic Constraints: 
                CA:FALSE
            X509v3 Subject Key Identifier: 
                80:64:9A:61:77:A0:4D:76:1D:A4:F0:5C:68:8A:D9:57:38:49:90:BD
            X509v3 Authority Key Identifier: 
                keyid:F0:DD:9A:C7:4B:1C:93:4B:EE:BE:7C:8C:3C:B7:21:DA:5C:40:F6:6C
                DirName:/CN=team450-net
                serial:67:12:76:BD:4C:7F:16:00:B9:AA:3D:CF:0A:71:E3:8D:89:68:74:B8
            X509v3 Extended Key Usage: 
                TLS Web Client Authentication
            X509v3 Key Usage: 
                Digital Signature
    Signature Algorithm: sha256WithRSAEncryption
    Signature Value:
        4c:16:f2:17:17:59:f0:e3:28:f5:92:54:9d:97:99:88:34:7c:
        91:fc:5d:4e:22:ad:45:2e:3a:dd:28:9a:d3:b0:e1:e1:e8:68:
        6e:17:41:24:3a:6b:53:dd:65:22:03:27:76:b2:7e:f2:ad:30:
        a3:d2:4e:e2:06:07:d8:c3:cf:85:ea:e6:94:4b:ea:5b:ed:ce:
        cb:1c:eb:29:e4:22:f3:e0:27:40:02:75:20:5e:19:e5:c4:f2:
        d1:74:c2:20:3c:45:25:91:80:9b:e2:2f:06:40:9a:1c:60:45:
        36:5c:8e:61:05:e2:24:51:61:d9:9d:ea:70:96:f0:0c:2f:cb:
        55:ae:53:1f:43:27:30:22:97:e6:48:47:ca:8f:66:05:0a:f5:
        cd:d3:9e:e4:12:90:5e:7a:c8:cb:9a:f3:9f:4b:58:81:e6:61:
        f8:46:db:a1:fa:c6:60:78:8b:ff:0b:5d:a1:9c:9e:27:f1:f8:
        ff:bf:a2:4e:0a:60:4b:41:43:ac:36:e0:a1:d8:70:16:26:79:
        ca:c2:ee:ad:69:97:d3:e7:c4:69:e8:99:7a:ee:96:77:56:11:
        a4:bb:e6:1d:33:7b:1a:d8:81:c0:12:cb:d7:1c:98:e9:72:df:
        08:88:32:91:3c:c7:17:b2:19:8f:9b:39:7b:46:e8:b2:d0:24:
        aa:39:6a:dc
-----BEGIN CERTIFICATE-----
MIIDXTCCAkWgAwIBAgIRALMYncMz5rh8AEaMa4IvUvswDQYJKoZIhvcNAQELBQAw
FjEUMBIGA1UEAwwLdGVhbTQ1MC1uZXQwHhcNMjMxMTA0MTA0ODM5WhcNMjYxMDE5
MTA0ODM5WjAZMRcwFQYDVQQDDA50ZWFtNDUwLWNsaWVudDCCASIwDQYJKoZIhvcN
AQEBBQADggEPADCCAQoCggEBAJw3PHDCkSD/c+omX55Kzr2IZ5TB3sdssx98aJ4W
FwcOM06pti/dMi1gLy8omJoPR9JgV+hX7k7GQLOrJMxa9ll65/uNvS49BV/zQ97U
Mpk6I73nFKdrvK+Sp4bLpuc59/YOoYMPzs36fHKJK1uY24TBNE286iBP30pinwOD
2EbtvBfxS5nBKWffEouIDWNdcuknJVu1+aL3q4PzBIhBDgk4GubHSbaNP+4BBkUp
uBxQJOVcJd6heO+Yx50gbDbqpOv8J7TjnQVbJPMZWOl1YOn/Ld6gM1XlBTUGV3en
3UAFalOyMYkchYFgSrsRFaQha31NozWEguG1b4b/EgrzcpUCAwEAAaOBojCBnzAJ
BgNVHRMEAjAAMB0GA1UdDgQWBBSAZJphd6BNdh2k8FxoitlXOEmQvTBRBgNVHSME
SjBIgBTw3ZrHSxyTS+6+fIw8tyHaXED2bKEapBgwFjEUMBIGA1UEAwwLdGVhbTQ1
MC1uZXSCFGcSdr1MfxYAuao9zwpx442JaHS4MBMGA1UdJQQMMAoGCCsGAQUFBwMC
MAsGA1UdDwQEAwIHgDANBgkqhkiG9w0BAQsFAAOCAQEATBbyFxdZ8OMo9ZJUnZeZ
iDR8kfxdTiKtRS463Sia07Dh4ehobhdBJDprU91lIgMndrJ+8q0wo9JO4gYH2MPP
hermlEvqW+3OyxzrKeQi8+AnQAJ1IF4Z5cTy0XTCIDxFJZGAm+IvBkCaHGBFNlyO
YQXiJFFh2Z3qcJbwDC/LVa5TH0MnMCKX5khHyo9mBQr1zdOe5BKQXnrIy5rzn0tY
geZh+EbbofrGYHiL/wtdoZyeJ/H4/7+iTgpgS0FDrDbgodhwFiZ5ysLurWmX0+fE
aeiZeu6Wd1YRpLvmHTN7GtiBwBLL1xyY6XLfCIgykTzHF7IZj5s5e0bostAkqjlq
3A==
-----END CERTIFICATE-----
