Certificate:
    Data:
        Version: 3 (0x2)
        Serial Number:
            fb:85:07:8a:14:62:17:f0:3b:56:97:64:ea:b5:f4:e3
        Signature Algorithm: sha256WithRSAEncryption
        Issuer: CN=team450-net
        Validity
            Not Before: Nov  4 11:37:37 2023 GMT
            Not After : Oct 19 11:37:37 2026 GMT
        Subject: CN=team450-client
        Subject Public Key Info:
            Public Key Algorithm: rsaEncryption
                Public-Key: (2048 bit)
                Modulus:
                    00:c1:74:7e:7b:ea:79:46:1a:68:41:df:00:84:4e:
                    a6:f9:7e:22:d0:84:45:88:e7:ec:7a:49:5f:fb:45:
                    50:85:48:26:88:bf:d9:d8:89:94:77:e5:2a:79:3d:
                    82:76:35:eb:72:8a:ba:4b:22:00:5a:fa:fd:57:4d:
                    a3:5f:6c:04:f9:21:bb:68:ea:8c:84:8b:5b:da:fe:
                    93:f4:ed:cf:f8:af:2f:27:25:53:74:a6:9c:aa:1d:
                    dc:d6:8c:6f:97:3c:40:1b:ef:73:00:5e:7c:7f:63:
                    24:f0:69:61:ef:68:ae:8b:30:ec:a2:10:8f:e4:9c:
                    0a:d9:ed:96:af:2f:ac:6d:f0:e6:07:be:d5:af:fa:
                    e1:28:9a:59:f3:47:d1:b1:5f:82:1b:62:0f:92:f9:
                    fe:87:55:2f:10:77:25:31:e0:c2:e5:45:5a:42:ac:
                    fc:46:6a:2c:d9:ed:74:08:38:7f:98:12:dc:18:cd:
                    51:d2:c5:3a:5f:e4:c0:93:d1:54:92:c3:60:c1:9e:
                    22:fd:13:09:88:34:5c:5a:1c:ef:22:ea:c6:42:5e:
                    1d:fd:14:eb:f8:5a:e5:16:82:37:24:7d:26:6e:7d:
                    6a:d3:64:29:24:ae:8f:5a:8c:b5:ab:75:9d:06:10:
                    39:dc:61:fa:a6:91:f3:7d:5e:3f:59:09:aa:a8:a5:
                    29:4b
                Exponent: 65537 (0x10001)
        X509v3 extensions:
            X509v3 Basic Constraints: 
                CA:FALSE
            X509v3 Subject Key Identifier: 
                5A:C2:9A:7D:27:D7:F2:9E:09:C6:04:76:1D:81:77:86:A3:8E:FF:93
            X509v3 Authority Key Identifier: 
                keyid:BA:4D:8F:55:AF:37:8A:D7:58:3C:23:56:FC:E7:44:F2:56:8D:EB:40
                DirName:/CN=team450-net
                serial:6C:DD:5A:2A:EF:69:30:7E:A2:49:53:44:31:72:13:C0:4E:9C:BE:4F
            X509v3 Extended Key Usage: 
                TLS Web Client Authentication
            X509v3 Key Usage: 
                Digital Signature
    Signature Algorithm: sha256WithRSAEncryption
    Signature Value:
        a5:4c:42:fe:0f:48:df:02:0e:6b:cf:d1:4e:c7:a5:4a:0d:88:
        a8:44:df:71:5f:3a:52:c4:6b:99:ab:2d:6d:10:6d:af:84:7c:
        e1:ff:f4:ea:ba:97:ae:8b:33:0f:ac:9b:a3:b4:db:1a:37:77:
        83:6f:04:3e:c1:1a:2e:cc:40:69:bc:b1:4f:2b:fc:89:03:24:
        5e:d1:f8:88:df:e9:fa:7e:b0:f8:dc:0e:1d:f0:0e:de:6a:e1:
        c6:94:d4:8b:e0:8f:83:e0:0f:da:37:23:13:1a:f1:33:40:44:
        a5:f4:33:1f:46:fc:85:bf:c2:4f:33:1c:ec:19:74:71:ec:bf:
        97:1c:4b:44:86:c9:8c:a2:16:9b:e5:93:35:93:21:d6:45:e3:
        08:87:66:22:0a:02:12:5c:b7:aa:55:c3:b1:fc:62:58:19:14:
        be:c8:dc:ee:8c:86:f9:9d:34:ce:06:1c:eb:20:a9:fc:6b:51:
        eb:4d:0d:f6:db:eb:31:a8:39:17:6f:34:41:42:62:ba:8b:b4:
        d9:fe:12:ef:84:57:9b:53:0d:a8:84:3b:25:58:ee:f0:f5:17:
        32:40:67:71:b1:66:e6:c2:7e:5b:8c:9b:29:86:c2:f5:76:e3:
        f3:5c:f0:87:48:19:c8:25:79:b2:e2:c4:f9:67:7b:06:22:39:
        6d:76:26:c1
-----BEGIN CERTIFICATE-----
MIIDXTCCAkWgAwIBAgIRAPuFB4oUYhfwO1aXZOq19OMwDQYJKoZIhvcNAQELBQAw
FjEUMBIGA1UEAwwLdGVhbTQ1MC1uZXQwHhcNMjMxMTA0MTEzNzM3WhcNMjYxMDE5
MTEzNzM3WjAZMRcwFQYDVQQDDA50ZWFtNDUwLWNsaWVudDCCASIwDQYJKoZIhvcN
AQEBBQADggEPADCCAQoCggEBAMF0fnvqeUYaaEHfAIROpvl+ItCERYjn7HpJX/tF
UIVIJoi/2diJlHflKnk9gnY163KKuksiAFr6/VdNo19sBPkhu2jqjISLW9r+k/Tt
z/ivLyclU3SmnKod3NaMb5c8QBvvcwBefH9jJPBpYe9orosw7KIQj+ScCtntlq8v
rG3w5ge+1a/64SiaWfNH0bFfghtiD5L5/odVLxB3JTHgwuVFWkKs/EZqLNntdAg4
f5gS3BjNUdLFOl/kwJPRVJLDYMGeIv0TCYg0XFoc7yLqxkJeHf0U6/ha5RaCNyR9
Jm59atNkKSSuj1qMtat1nQYQOdxh+qaR831eP1kJqqilKUsCAwEAAaOBojCBnzAJ
BgNVHRMEAjAAMB0GA1UdDgQWBBRawpp9J9fyngnGBHYdgXeGo47/kzBRBgNVHSME
SjBIgBS6TY9VrzeK11g8I1b850TyVo3rQKEapBgwFjEUMBIGA1UEAwwLdGVhbTQ1
MC1uZXSCFGzdWirvaTB+oklTRDFyE8BOnL5PMBMGA1UdJQQMMAoGCCsGAQUFBwMC
MAsGA1UdDwQEAwIHgDANBgkqhkiG9w0BAQsFAAOCAQEApUxC/g9I3wIOa8/RTsel
Sg2IqETfcV86UsRrmastbRBtr4R84f/06rqXroszD6ybo7TbGjd3g28EPsEaLsxA
abyxTyv8iQMkXtH4iN/p+n6w+NwOHfAO3mrhxpTUi+CPg+AP2jcjExrxM0BEpfQz
H0b8hb/CTzMc7Bl0cey/lxxLRIbJjKIWm+WTNZMh1kXjCIdmIgoCEly3qlXDsfxi
WBkUvsjc7oyG+Z00zgYc6yCp/GtR600N9tvrMag5F280QUJiuou02f4S74RXm1MN
qIQ7JVju8PUXMkBncbFm5sJ+W4ybKYbC9Xbj81zwh0gZyCV5suLE+Wd7BiI5bXYm
wQ==
-----END CERTIFICATE-----
