Certificate:
    Data:
        Version: 3 (0x2)
        Serial Number:
            60:5c:06:d2:d2:61:25:80:61:14:b0:c6:4b:44:a7:e5
        Signature Algorithm: sha256WithRSAEncryption
        Issuer: CN=team299-net
        Validity
            Not Before: Nov  4 10:46:09 2023 GMT
            Not After : Oct 19 10:46:09 2026 GMT
        Subject: CN=team299-server
        Subject Public Key Info:
            Public Key Algorithm: rsaEncryption
                Public-Key: (2048 bit)
                Modulus:
                    00:bd:ea:8d:06:ac:83:7c:9b:11:3c:dc:a5:ef:58:
                    cf:91:f3:33:1f:fa:19:26:ce:0f:67:44:58:c2:e6:
                    d3:47:ce:d8:da:41:a7:0d:d8:bf:dd:3c:60:25:82:
                    4f:a3:c2:98:77:1a:e4:22:d1:38:4f:52:e8:22:5d:
                    ea:ba:36:40:b0:20:c5:70:ba:42:99:bf:33:3a:d1:
                    08:c5:9a:89:61:65:e8:c0:ec:9b:f5:31:c7:a6:5e:
                    28:ab:53:17:07:47:84:71:fb:c9:50:8e:ff:ca:43:
                    ef:be:19:20:da:e0:a9:5c:59:fc:2e:a6:be:2f:c9:
                    5e:1b:98:65:80:43:ea:ab:ee:e5:86:e6:a4:e3:52:
                    27:c7:f4:7e:6e:6a:3e:19:44:a7:3b:a9:23:02:6d:
                    bb:ca:0b:cd:21:d3:fd:08:cb:62:ac:1d:11:6d:86:
                    d4:61:65:9a:0b:2d:31:7d:86:47:5f:8b:8a:a5:69:
                    ec:88:a0:d7:0d:ae:22:33:13:2f:d7:1f:0a:44:e1:
                    f3:64:31:b1:a3:e7:6a:4c:5c:66:3f:7d:49:86:1b:
                    f0:78:d7:74:75:6e:8f:5f:6d:51:bc:70:4d:95:0d:
                    f4:4e:ce:96:21:2b:2b:76:f0:74:02:f6:d9:8d:e9:
                    0a:a5:af:8f:2b:31:01:b4:4a:f3:10:ac:2b:b1:db:
                    56:2d
                Exponent: 65537 (0x10001)
        X509v3 extensions:
            X509v3 Basic Constraints: 
                CA:FALSE
            X509v3 Subject Key Identifier: 
                FF:FF:2E:FF:93:73:8A:E8:23:80:A7:AC:10:68:B6:95:B7:60:26:D7
            X509v3 Authority Key Identifier: 
                keyid:B6:DB:F1:6B:37:B3:2F:90:E6:EF:62:8A:24:62:07:27:75:19:2A:BE
                DirName:/CN=team299-net
                serial:16:0B:48:1B:81:32:38:96:6D:E7:D1:2D:D0:3A:AC:C3:81:93:63:38
            X509v3 Extended Key Usage: 
                TLS Web Server Authentication
            X509v3 Key Usage: 
                Digital Signature, Key Encipherment
            X509v3 Subject Alternative Name: 
                DNS:team299-server
    Signature Algorithm: sha256WithRSAEncryption
    Signature Value:
        77:04:30:4a:66:40:eb:f3:07:7d:93:1c:0c:f6:e0:86:62:7d:
        bb:57:37:ad:51:7f:b5:b3:0f:c3:20:39:16:2c:98:9f:fb:75:
        c2:6a:3d:45:54:9f:1a:c8:83:0f:8c:65:3b:48:56:64:d3:24:
        d9:a4:73:5f:93:4c:d3:6c:8c:f9:bb:74:1a:29:12:24:d3:6b:
        dd:ed:8b:82:60:13:f8:d9:ce:97:6a:e6:a0:8a:e9:24:7f:8b:
        58:9a:f8:38:1c:a6:51:3f:64:af:17:07:a7:db:78:0c:62:26:
        43:ee:37:7d:d4:21:7e:25:15:97:25:6e:41:7a:18:11:10:cd:
        55:fd:53:3b:9a:85:e2:f0:04:ef:8b:1d:bc:74:dc:18:cc:a1:
        c8:44:3f:68:11:bc:b7:25:7e:00:93:cf:b5:00:d5:02:22:30:
        49:da:45:f1:7c:12:f8:bf:39:b7:4e:38:ab:c1:63:bd:14:7a:
        8a:84:7a:06:c9:ef:6a:c9:f9:fa:98:42:48:5f:30:61:52:75:
        16:84:6e:15:70:1c:bd:aa:8c:2b:90:d2:cb:89:bb:b1:d8:21:
        08:96:f6:8c:74:cf:3b:09:98:a0:8c:47:ea:45:aa:74:43:c2:
        a6:2b:e9:75:00:c8:08:6e:29:b4:a0:80:06:54:61:05:f2:dc:
        49:09:d2:26
-----BEGIN CERTIFICATE-----
MIIDdzCCAl+gAwIBAgIQYFwG0tJhJYBhFLDGS0Sn5TANBgkqhkiG9w0BAQsFADAW
MRQwEgYDVQQDDAt0ZWFtMjk5LW5ldDAeFw0yMzExMDQxMDQ2MDlaFw0yNjEwMTkx
MDQ2MDlaMBkxFzAVBgNVBAMMDnRlYW0yOTktc2VydmVyMIIBIjANBgkqhkiG9w0B
AQEFAAOCAQ8AMIIBCgKCAQEAveqNBqyDfJsRPNyl71jPkfMzH/oZJs4PZ0RYwubT
R87Y2kGnDdi/3TxgJYJPo8KYdxrkItE4T1LoIl3qujZAsCDFcLpCmb8zOtEIxZqJ
YWXowOyb9THHpl4oq1MXB0eEcfvJUI7/ykPvvhkg2uCpXFn8Lqa+L8leG5hlgEPq
q+7lhuak41Inx/R+bmo+GUSnO6kjAm27ygvNIdP9CMtirB0RbYbUYWWaCy0xfYZH
X4uKpWnsiKDXDa4iMxMv1x8KROHzZDGxo+dqTFxmP31JhhvweNd0dW6PX21RvHBN
lQ30Ts6WISsrdvB0AvbZjekKpa+PKzEBtErzEKwrsdtWLQIDAQABo4G9MIG6MAkG
A1UdEwQCMAAwHQYDVR0OBBYEFP//Lv+Tc4roI4CnrBBotpW3YCbXMFEGA1UdIwRK
MEiAFLbb8Ws3sy+Q5u9iiiRiByd1GSq+oRqkGDAWMRQwEgYDVQQDDAt0ZWFtMjk5
LW5ldIIUFgtIG4EyOJZt59Et0Dqsw4GTYzgwEwYDVR0lBAwwCgYIKwYBBQUHAwEw
CwYDVR0PBAQDAgWgMBkGA1UdEQQSMBCCDnRlYW0yOTktc2VydmVyMA0GCSqGSIb3
DQEBCwUAA4IBAQB3BDBKZkDr8wd9kxwM9uCGYn27VzetUX+1sw/DIDkWLJif+3XC
aj1FVJ8ayIMPjGU7SFZk0yTZpHNfk0zTbIz5u3QaKRIk02vd7YuCYBP42c6Xauag
iukkf4tYmvg4HKZRP2SvFwen23gMYiZD7jd91CF+JRWXJW5BehgREM1V/VM7moXi
8ATvix28dNwYzKHIRD9oEby3JX4Ak8+1ANUCIjBJ2kXxfBL4vzm3TjirwWO9FHqK
hHoGye9qyfn6mEJIXzBhUnUWhG4VcBy9qowrkNLLibux2CEIlvaMdM87CZigjEfq
Rap0Q8KmK+l1AMgIbim0oIAGVGEF8txJCdIm
-----END CERTIFICATE-----
