Certificate:
    Data:
        Version: 3 (0x2)
        Serial Number:
            78:e0:a0:bd:e3:61:70:43:42:42:1d:83:ee:12:5f:64
        Signature Algorithm: sha256WithRSAEncryption
        Issuer: CN=team299-net
        Validity
            Not Before: Nov  4 11:33:54 2023 GMT
            Not After : Oct 19 11:33:54 2026 GMT
        Subject: CN=team299-server
        Subject Public Key Info:
            Public Key Algorithm: rsaEncryption
                Public-Key: (2048 bit)
                Modulus:
                    00:86:a8:15:70:5d:5e:9f:5c:1a:c0:c4:c8:e0:9e:
                    64:c4:c3:dd:bf:77:b5:c5:ad:37:04:f8:47:f9:c5:
                    e6:46:f6:cd:d9:12:cb:a8:de:44:3e:03:cd:7e:f1:
                    dc:0a:ef:84:8d:1e:fa:46:a6:8e:12:a6:6e:74:77:
                    a4:b0:63:7a:d7:c2:45:c3:31:ea:81:65:30:3d:e6:
                    fe:7f:ff:27:3b:b9:c3:94:70:52:9f:66:d7:3b:4c:
                    0d:74:10:cb:96:93:05:e0:df:21:c1:df:fd:36:b3:
                    e6:8c:63:ed:b2:75:03:63:9e:76:f4:23:3e:ce:31:
                    0c:28:19:f8:ec:81:a8:7c:22:a6:ef:57:dd:b6:b9:
                    bc:89:67:11:cb:4d:af:73:f7:65:81:b0:62:fa:e5:
                    d0:cd:cf:28:b1:2a:78:d7:ec:a0:16:e0:ed:6b:da:
                    e9:44:c3:42:66:bc:ac:f6:a1:8d:f9:03:8a:a3:06:
                    b6:72:4c:19:ad:27:b0:37:c7:b5:62:42:13:a7:58:
                    0d:f9:46:c7:4b:68:65:81:b0:e7:9a:4a:59:53:83:
                    5f:49:b6:3e:d0:36:6f:c5:49:34:76:fb:e0:d7:a5:
                    fa:cf:67:7c:fa:b1:25:56:02:59:8b:fd:36:73:29:
                    af:69:1d:ba:da:0a:6e:b4:34:f5:c5:7e:41:ee:f9:
                    15:f9
                Exponent: 65537 (0x10001)
        X509v3 extensions:
            X509v3 Basic Constraints: 
                CA:FALSE
            X509v3 Subject Key Identifier: 
                BC:D5:AD:F0:C3:C5:C8:E2:07:72:5D:03:DD:D0:F8:6F:71:D3:42:E4
            X509v3 Authority Key Identifier: 
                keyid:73:FD:6D:D9:1D:66:C5:71:FC:B2:3E:04:2C:20:D6:DF:47:01:09:39
                DirName:/CN=team299-net
                serial:31:C5:6B:5B:91:9C:5B:ED:77:A9:E9:E5:1D:84:19:75:7C:CF:D7:19
            X509v3 Extended Key Usage: 
                TLS Web Server Authentication
            X509v3 Key Usage: 
                Digital Signature, Key Encipherment
            X509v3 Subject Alternative Name: 
                DNS:team299-server
    Signature Algorithm: sha256WithRSAEncryption
    Signature Value:
        75:29:c9:67:d4:7e:79:cc:ba:b3:60:32:9f:05:95:2d:f1:dc:
        d2:22:35:d5:0e:53:d8:69:89:06:e1:93:ab:fa:52:69:03:ba:
        f9:6e:07:f1:2f:db:a2:8d:5e:5d:cf:05:d7:dd:ea:6e:c2:1d:
        8b:80:69:d4:e6:2b:12:cc:2d:18:d1:9d:97:10:6b:99:bc:14:
        6e:20:41:a1:61:51:61:2e:de:d3:52:f4:48:42:88:61:29:04:
        5f:90:35:0b:67:3b:41:61:19:e3:3b:5b:50:49:f1:9f:a4:d1:
        45:63:47:fa:be:f0:81:54:ec:6c:31:cb:23:65:dd:3f:5a:72:
        74:fe:3a:59:6e:4e:ef:4a:5c:0c:24:16:d5:6a:91:20:85:4d:
        e9:9d:1d:ae:33:28:56:23:ef:2e:ec:50:1f:37:86:33:27:15:
        f8:12:14:b3:14:ac:af:01:81:5f:da:d6:b3:79:bc:7a:cd:9b:
        52:6e:c7:0e:84:6e:18:d8:dc:f6:bf:0b:2b:81:a0:f8:25:8e:
        eb:f8:0e:50:4a:0b:60:8f:99:1f:91:07:44:b1:dc:da:e0:b5:
        5a:23:cf:94:63:62:fe:76:0d:da:4a:09:9d:83:cf:1c:29:2d:
        86:a1:2b:a4:2a:d2:45:53:e9:4c:b9:c8:5b:e7:ba:25:31:c6:
        27:7a:d1:bd
-----BEGIN CERTIFICATE-----
MIIDdzCCAl+gAwIBAgIQeOCgveNhcENCQh2D7hJfZDANBgkqhkiG9w0BAQsFADAW
MRQwEgYDVQQDDAt0ZWFtMjk5LW5ldDAeFw0yMzExMDQxMTMzNTRaFw0yNjEwMTkx
MTMzNTRaMBkxFzAVBgNVBAMMDnRlYW0yOTktc2VydmVyMIIBIjANBgkqhkiG9w0B
AQEFAAOCAQ8AMIIBCgKCAQEAhqgVcF1en1wawMTI4J5kxMPdv3e1xa03BPhH+cXm
RvbN2RLLqN5EPgPNfvHcCu+EjR76RqaOEqZudHeksGN618JFwzHqgWUwPeb+f/8n
O7nDlHBSn2bXO0wNdBDLlpMF4N8hwd/9NrPmjGPtsnUDY5529CM+zjEMKBn47IGo
fCKm71fdtrm8iWcRy02vc/dlgbBi+uXQzc8osSp41+ygFuDta9rpRMNCZrys9qGN
+QOKowa2ckwZrSewN8e1YkITp1gN+UbHS2hlgbDnmkpZU4NfSbY+0DZvxUk0dvvg
16X6z2d8+rElVgJZi/02cymvaR262gputDT1xX5B7vkV+QIDAQABo4G9MIG6MAkG
A1UdEwQCMAAwHQYDVR0OBBYEFLzVrfDDxcjiB3JdA93Q+G9x00LkMFEGA1UdIwRK
MEiAFHP9bdkdZsVx/LI+BCwg1t9HAQk5oRqkGDAWMRQwEgYDVQQDDAt0ZWFtMjk5
LW5ldIIUMcVrW5GcW+13qenlHYQZdXzP1xkwEwYDVR0lBAwwCgYIKwYBBQUHAwEw
CwYDVR0PBAQDAgWgMBkGA1UdEQQSMBCCDnRlYW0yOTktc2VydmVyMA0GCSqGSIb3
DQEBCwUAA4IBAQB1Kcln1H55zLqzYDKfBZUt8dzSIjXVDlPYaYkG4ZOr+lJpA7r5
bgfxL9uijV5dzwXX3epuwh2LgGnU5isSzC0Y0Z2XEGuZvBRuIEGhYVFhLt7TUvRI
QohhKQRfkDULZztBYRnjO1tQSfGfpNFFY0f6vvCBVOxsMcsjZd0/WnJ0/jpZbk7v
SlwMJBbVapEghU3pnR2uMyhWI+8u7FAfN4YzJxX4EhSzFKyvAYFf2tazebx6zZtS
bscOhG4Y2Nz2vwsrgaD4JY7r+A5QSgtgj5kfkQdEsdza4LVaI8+UY2L+dg3aSgmd
g88cKS2GoSukKtJFU+lMuchb57olMcYnetG9
-----END CERTIFICATE-----
