Certificate:
    Data:
        Version: 3 (0x2)
        Serial Number:
            e1:42:c8:4c:7e:56:5c:83:f7:c4:b8:ce:c9:57:8b:23
        Signature Algorithm: sha256WithRSAEncryption
        Issuer: CN=team299-net
        Validity
            Not Before: Nov  4 11:33:54 2023 GMT
            Not After : Oct 19 11:33:54 2026 GMT
        Subject: CN=team299-client
        Subject Public Key Info:
            Public Key Algorithm: rsaEncryption
                Public-Key: (2048 bit)
                Modulus:
                    00:ba:55:15:fa:e8:52:4d:5a:d4:13:69:a1:e8:ec:
                    f6:f1:67:eb:ca:33:4d:ad:21:8e:a7:7a:92:4a:62:
                    c2:da:29:d0:7f:7b:23:76:6a:02:3f:81:43:6b:5f:
                    9a:38:5d:1f:2b:44:e7:98:19:32:d5:1c:8c:d6:42:
                    d6:64:ac:ea:fa:ca:c2:c3:ad:8e:b4:bc:fa:e3:fd:
                    2f:fb:ff:e9:22:27:a2:f6:99:04:35:0b:4d:a8:8b:
                    d1:4a:f5:07:01:4d:a5:51:22:d8:23:ab:84:70:32:
                    5c:d4:20:69:2e:70:80:68:7b:35:e8:ed:f4:65:90:
                    0f:50:18:18:16:b0:25:f6:f1:9f:f4:23:24:bd:97:
                    4c:4b:3b:3d:f3:cd:8b:aa:ac:ff:97:ca:50:b3:37:
                    b6:fe:54:13:f6:d1:e2:88:df:a1:39:01:f2:6d:18:
                    62:74:0c:94:6f:14:a1:74:dc:cd:36:d6:4d:fc:c8:
                    42:41:45:cd:da:4d:e7:70:45:3a:47:6b:60:86:41:
                    8d:d8:da:79:60:fb:26:94:83:a8:a3:9a:fe:ed:24:
                    07:52:a6:d1:3c:f0:7a:0c:d9:2a:0d:f4:cb:73:00:
                    3e:26:14:76:2f:ee:a6:74:a0:59:9c:d4:a2:89:32:
                    a2:b3:b7:1f:52:9f:ff:ca:f9:5c:a9:ef:71:06:69:
                    95:d9
                Exponent: 65537 (0x10001)
        X509v3 extensions:
            X509v3 Basic Constraints: 
                CA:FALSE
            X509v3 Subject Key Identifier: 
                AF:08:56:2F:3F:8F:0C:1E:5C:BD:96:B4:87:A8:BE:E6:3C:9A:A9:45
            X509v3 Authority Key Identifier: 
                keyid:73:FD:6D:D9:1D:66:C5:71:FC:B2:3E:04:2C:20:D6:DF:47:01:09:39
                DirName:/CN=team299-net
                serial:31:C5:6B:5B:91:9C:5B:ED:77:A9:E9:E5:1D:84:19:75:7C:CF:D7:19
            X509v3 Extended Key Usage: 
                TLS Web Client Authentication
            X509v3 Key Usage: 
                Digital Signature
    Signature Algorithm: sha256WithRSAEncryption
    Signature Value:
        cf:75:61:5c:c4:91:38:5e:3d:ae:73:0e:3d:ff:9e:2f:f6:d0:
        91:a1:c0:f3:05:51:32:c0:a1:41:5f:16:e6:0b:2a:43:09:09:
        fe:dd:f7:fd:52:09:8e:a7:2c:93:94:86:9b:22:1b:13:cd:88:
        cf:77:90:46:1b:7d:1e:6a:3c:25:23:8d:bf:9e:86:f1:82:d3:
        db:23:7f:af:14:f0:45:4b:84:ee:65:e9:fa:ef:ea:d5:b2:35:
        eb:89:16:13:b6:fc:23:d1:49:ac:73:76:bd:0f:00:d9:64:fe:
        2a:08:67:78:ac:61:19:03:6a:3e:f2:e2:7b:f8:83:9a:91:32:
        90:4f:ae:8f:f1:80:4b:ac:bc:27:ed:ec:1a:65:38:0a:7d:a2:
        12:dc:f6:25:bd:d8:a5:04:8e:d9:84:01:3f:98:78:78:f5:3a:
        a5:84:97:93:4b:73:06:61:55:81:79:38:eb:43:45:8f:fa:a1:
        7a:fe:20:b0:b4:68:15:06:ec:e5:eb:89:b6:15:63:7d:2b:cf:
        99:54:42:0c:c4:f5:28:5b:0b:fa:24:97:14:7b:33:ee:be:a6:
        6d:1a:11:cc:1c:2a:85:d5:56:85:65:d1:d8:17:8d:13:4b:c9:
        0a:b7:92:2c:83:9d:53:11:9f:e9:72:73:34:fd:06:1a:3c:99:
        8b:ce:68:82
-----BEGIN CERTIFICATE-----
MIIDXTCCAkWgAwIBAgIRAOFCyEx+VlyD98S4zslXiyMwDQYJKoZIhvcNAQELBQAw
FjEUMBIGA1UEAwwLdGVhbTI5OS1uZXQwHhcNMjMxMTA0MTEzMzU0WhcNMjYxMDE5
MTEzMzU0WjAZMRcwFQYDVQQDDA50ZWFtMjk5LWNsaWVudDCCASIwDQYJKoZIhvcN
AQEBBQADggEPADCCAQoCggEBALpVFfroUk1a1BNpoejs9vFn68ozTa0hjqd6kkpi
wtop0H97I3ZqAj+BQ2tfmjhdHytE55gZMtUcjNZC1mSs6vrKwsOtjrS8+uP9L/v/
6SInovaZBDULTaiL0Ur1BwFNpVEi2COrhHAyXNQgaS5wgGh7Nejt9GWQD1AYGBaw
Jfbxn/QjJL2XTEs7PfPNi6qs/5fKULM3tv5UE/bR4ojfoTkB8m0YYnQMlG8UoXTc
zTbWTfzIQkFFzdpN53BFOkdrYIZBjdjaeWD7JpSDqKOa/u0kB1Km0TzwegzZKg30
y3MAPiYUdi/upnSgWZzUookyorO3H1Kf/8r5XKnvcQZpldkCAwEAAaOBojCBnzAJ
BgNVHRMEAjAAMB0GA1UdDgQWBBSvCFYvP48MHly9lrSHqL7mPJqpRTBRBgNVHSME
SjBIgBRz/W3ZHWbFcfyyPgQsINbfRwEJOaEapBgwFjEUMBIGA1UEAwwLdGVhbTI5
OS1uZXSCFDHFa1uRnFvtd6np5R2EGXV8z9cZMBMGA1UdJQQMMAoGCCsGAQUFBwMC
MAsGA1UdDwQEAwIHgDANBgkqhkiG9w0BAQsFAAOCAQEAz3VhXMSROF49rnMOPf+e
L/bQkaHA8wVRMsChQV8W5gsqQwkJ/t33/VIJjqcsk5SGmyIbE82Iz3eQRht9Hmo8
JSONv56G8YLT2yN/rxTwRUuE7mXp+u/q1bI164kWE7b8I9FJrHN2vQ8A2WT+Kghn
eKxhGQNqPvLie/iDmpEykE+uj/GAS6y8J+3sGmU4Cn2iEtz2Jb3YpQSO2YQBP5h4
ePU6pYSXk0tzBmFVgXk460NFj/qhev4gsLRoFQbs5euJthVjfSvPmVRCDMT1KFsL
+iSXFHsz7r6mbRoRzBwqhdVWhWXR2BeNE0vJCreSLIOdUxGf6XJzNP0GGjyZi85o
gg==
-----END CERTIFICATE-----
