Certificate:
    Data:
        Version: 3 (0x2)
        Serial Number:
            0e:18:27:17:99:da:e2:1f:b4:de:a4:03:66:89:81:8e
        Signature Algorithm: sha256WithRSAEncryption
        Issuer: CN=team439-net
        Validity
            Not Before: Nov  3 20:47:13 2023 GMT
            Not After : Oct 18 20:47:13 2026 GMT
        Subject: CN=team439-client
        Subject Public Key Info:
            Public Key Algorithm: rsaEncryption
                Public-Key: (2048 bit)
                Modulus:
                    00:9e:7c:64:2b:c2:45:a2:2e:ba:95:84:71:61:9b:
                    c9:39:19:8a:47:45:d2:ec:bf:d3:54:a8:36:3f:dc:
                    fe:3b:9d:60:af:c8:15:24:9b:23:78:ae:b8:0f:cf:
                    3d:6b:71:9d:df:6c:b9:d2:e5:7a:64:90:65:59:7a:
                    98:10:b4:a9:b3:cb:ad:fc:ad:26:32:92:a8:9b:36:
                    65:56:2b:cf:41:84:ed:0b:a8:1a:27:68:6c:c8:f1:
                    55:01:ee:d6:9d:6c:77:ca:8a:ef:ca:28:a9:ab:fd:
                    47:97:9d:35:5f:0c:18:e2:72:e3:83:61:31:2d:87:
                    e8:57:70:da:cc:86:67:03:85:ff:85:17:07:95:fc:
                    27:2f:e6:0e:62:bb:fb:56:d1:1e:6a:ff:5b:fa:74:
                    e0:dc:5b:0b:1b:b9:07:6f:a1:3e:c8:b7:4c:c8:ed:
                    d3:85:84:0b:2f:21:0b:34:14:08:80:26:77:ed:dd:
                    0c:39:6e:7b:b4:d5:4d:4b:1a:f1:59:f6:f4:f1:50:
                    27:90:c9:5f:49:a9:db:4b:d7:f9:1b:5c:a1:8e:28:
                    96:4b:f1:53:6b:63:98:c8:38:3c:40:e7:b9:c1:b2:
                    cd:0a:bc:d0:12:ef:64:b5:85:a8:e3:b8:64:16:84:
                    fa:fc:48:b8:7d:4b:44:da:d6:f5:e8:38:10:84:de:
                    a6:d1
                Exponent: 65537 (0x10001)
        X509v3 extensions:
            X509v3 Basic Constraints: 
                CA:FALSE
            X509v3 Subject Key Identifier: 
                81:3D:38:D1:AB:40:77:32:DC:B2:C7:13:44:40:D8:0F:55:66:3A:A8
            X509v3 Authority Key Identifier: 
                keyid:51:95:CE:C5:45:6F:8C:DB:D6:10:58:3E:39:DE:C8:37:87:CB:48:77
                DirName:/CN=team439-net
                serial:0A:F3:F3:12:2D:34:F9:44:38:3E:F4:3C:39:BD:62:72:BD:29:C6:EF
            X509v3 Extended Key Usage: 
                TLS Web Client Authentication
            X509v3 Key Usage: 
                Digital Signature
    Signature Algorithm: sha256WithRSAEncryption
    Signature Value:
        90:81:a5:c8:8d:ba:a0:fd:90:a8:81:ca:64:d3:61:a5:69:0c:
        ca:bc:6d:db:d5:30:88:47:08:fa:e1:94:a0:7d:17:99:10:77:
        9a:a3:43:8e:fa:e6:a3:74:3c:e4:01:b9:f0:6f:06:d9:c0:e6:
        86:55:1a:65:b4:e5:36:8b:7f:35:4c:0d:55:62:f5:1e:de:ac:
        24:87:ba:8c:df:e6:ae:a6:68:06:80:f7:37:88:51:aa:9a:bd:
        dd:c7:d4:95:a5:13:d6:73:5a:00:f3:46:bc:07:d2:eb:f2:a9:
        8c:d8:07:03:0b:0d:1d:e0:e8:7e:ae:b5:7f:0c:36:06:9a:e3:
        f7:a7:d9:79:4e:ce:7e:8e:f0:17:9d:df:a6:42:e5:a9:31:66:
        0f:30:6a:bc:33:db:ea:35:3a:a5:f1:fd:6b:5a:dc:7a:a9:79:
        00:a2:58:c2:4c:3a:d9:9d:79:5d:7b:39:2b:97:08:7d:d0:81:
        58:ce:b4:5e:ee:ef:e2:e7:c4:bd:cf:e4:7d:46:d4:e4:bc:35:
        d3:7d:ab:10:1a:2a:44:0c:65:c5:e7:4f:a6:51:d4:3e:b1:a2:
        c4:2c:0a:e2:53:ab:35:04:b5:a1:4b:ac:33:d6:eb:0a:5d:a7:
        3c:6a:99:37:1c:c2:77:0e:48:5b:9b:e1:6c:02:b8:8d:64:2a:
        25:66:3d:92
-----BEGIN CERTIFICATE-----
MIIDXDCCAkSgAwIBAgIQDhgnF5na4h+03qQDZomBjjANBgkqhkiG9w0BAQsFADAW
MRQwEgYDVQQDDAt0ZWFtNDM5LW5ldDAeFw0yMzExMDMyMDQ3MTNaFw0yNjEwMTgy
MDQ3MTNaMBkxFzAVBgNVBAMMDnRlYW00MzktY2xpZW50MIIBIjANBgkqhkiG9w0B
AQEFAAOCAQ8AMIIBCgKCAQEAnnxkK8JFoi66lYRxYZvJORmKR0XS7L/TVKg2P9z+
O51gr8gVJJsjeK64D889a3Gd32y50uV6ZJBlWXqYELSps8ut/K0mMpKomzZlVivP
QYTtC6gaJ2hsyPFVAe7WnWx3yorvyiipq/1Hl501XwwY4nLjg2ExLYfoV3DazIZn
A4X/hRcHlfwnL+YOYrv7VtEeav9b+nTg3FsLG7kHb6E+yLdMyO3ThYQLLyELNBQI
gCZ37d0MOW57tNVNSxrxWfb08VAnkMlfSanbS9f5G1yhjiiWS/FTa2OYyDg8QOe5
wbLNCrzQEu9ktYWo47hkFoT6/Ei4fUtE2tb16DgQhN6m0QIDAQABo4GiMIGfMAkG
A1UdEwQCMAAwHQYDVR0OBBYEFIE9ONGrQHcy3LLHE0RA2A9VZjqoMFEGA1UdIwRK
MEiAFFGVzsVFb4zb1hBYPjneyDeHy0h3oRqkGDAWMRQwEgYDVQQDDAt0ZWFtNDM5
LW5ldIIUCvPzEi00+UQ4PvQ8Ob1icr0pxu8wEwYDVR0lBAwwCgYIKwYBBQUHAwIw
CwYDVR0PBAQDAgeAMA0GCSqGSIb3DQEBCwUAA4IBAQCQgaXIjbqg/ZCogcpk02Gl
aQzKvG3b1TCIRwj64ZSgfReZEHeao0OO+uajdDzkAbnwbwbZwOaGVRpltOU2i381
TA1VYvUe3qwkh7qM3+aupmgGgPc3iFGqmr3dx9SVpRPWc1oA80a8B9Lr8qmM2AcD
Cw0d4Oh+rrV/DDYGmuP3p9l5Ts5+jvAXnd+mQuWpMWYPMGq8M9vqNTql8f1rWtx6
qXkAoljCTDrZnXldezkrlwh90IFYzrRe7u/i58S9z+R9RtTkvDXTfasQGipEDGXF
50+mUdQ+saLELAriU6s1BLWhS6wz1usKXac8apk3HMJ3Dkhbm+FsAriNZColZj2S
-----END CERTIFICATE-----
