Certificate:
    Data:
        Version: 3 (0x2)
        Serial Number:
            70:64:21:2f:7b:85:30:ca:fe:5f:eb:68:0a:5d:e9:7f
        Signature Algorithm: sha256WithRSAEncryption
        Issuer: CN=team439-net
        Validity
            Not Before: Nov  4 10:48:31 2023 GMT
            Not After : Oct 19 10:48:31 2026 GMT
        Subject: CN=team439-server
        Subject Public Key Info:
            Public Key Algorithm: rsaEncryption
                Public-Key: (2048 bit)
                Modulus:
                    00:d9:ec:be:99:6c:71:57:d2:c1:35:30:93:1b:f3:
                    e1:a9:69:ef:9e:00:d5:ae:05:d0:93:cd:d2:d0:a5:
                    b8:f5:4c:3e:09:66:d0:0d:6a:29:96:1d:61:29:0b:
                    07:fe:17:cf:2f:56:62:78:7e:12:35:cb:03:cd:8f:
                    f4:e5:e9:e2:05:8e:28:60:4c:1a:d9:8f:b0:f5:2d:
                    49:a9:55:8c:ee:00:15:26:b1:d8:57:5f:3a:fb:19:
                    a1:84:cd:31:d9:92:22:9c:7e:fe:40:ce:a9:16:93:
                    12:e1:3f:0e:94:9c:2b:38:d6:3a:53:43:0d:87:a9:
                    ba:d8:00:c4:7f:58:cb:d7:67:e7:a4:d4:77:7d:85:
                    2c:25:8f:22:08:91:0a:d5:b3:ac:c6:94:c7:1a:e8:
                    51:81:2f:d3:a2:9d:81:cb:68:04:7f:e5:67:56:4c:
                    ca:4d:f7:15:c6:a3:ac:32:2b:e2:48:b3:b5:f6:6b:
                    2b:50:d1:a5:d0:ef:d0:df:89:df:e9:f7:60:32:21:
                    9d:a5:a7:5c:da:da:dd:1e:74:72:82:ff:10:ff:d4:
                    cf:e8:e2:48:f3:5d:a9:fd:7d:c0:c2:25:38:33:1b:
                    71:0f:7c:48:08:7b:e9:70:c6:2b:d0:cd:74:9e:57:
                    58:51:08:de:41:de:8a:7f:a9:65:b2:d3:20:a2:f4:
                    17:25
                Exponent: 65537 (0x10001)
        X509v3 extensions:
            X509v3 Basic Constraints: 
                CA:FALSE
            X509v3 Subject Key Identifier: 
                20:EC:DC:9B:DD:5E:7E:0C:20:8A:CD:3B:01:25:1A:EC:77:27:0A:90
            X509v3 Authority Key Identifier: 
                keyid:88:66:E7:7E:1D:7A:9F:44:91:0F:0F:16:61:8D:43:0A:C8:5C:2E:C0
                DirName:/CN=team439-net
                serial:38:6B:53:56:E4:80:E0:DE:6F:C8:47:FA:CE:E1:43:2E:90:A0:AB:BE
            X509v3 Extended Key Usage: 
                TLS Web Server Authentication
            X509v3 Key Usage: 
                Digital Signature, Key Encipherment
            X509v3 Subject Alternative Name: 
                DNS:team439-server
    Signature Algorithm: sha256WithRSAEncryption
    Signature Value:
        70:47:4e:bc:34:ab:76:15:03:53:77:81:0d:48:eb:0d:e2:4f:
        58:83:43:d7:b0:cd:09:7c:f0:94:2e:70:c4:aa:85:53:ff:42:
        18:9e:7e:9e:cb:f6:b9:5c:e2:54:1e:72:cb:e7:01:37:b5:02:
        9d:d4:04:b7:7e:c9:9f:f1:81:e4:2f:a9:2e:d3:d6:a7:88:4b:
        cd:e8:a4:f3:02:0d:8a:61:f5:38:43:8e:df:b7:c8:c8:e1:19:
        de:b6:41:f3:19:52:78:8f:1c:a1:9a:6d:2b:4f:a3:30:fe:e4:
        15:01:fc:8a:7d:9d:98:6b:92:8b:31:96:30:42:9b:fb:0e:49:
        ec:68:a6:f4:58:1d:0b:a2:7d:0a:9b:ec:98:45:48:b3:a1:05:
        c9:e8:f6:ef:29:11:9e:ea:48:11:96:1a:cc:2f:ba:65:ae:ff:
        9f:fe:b4:0a:62:e0:19:45:7b:ec:1c:aa:7e:5c:25:81:de:b3:
        d1:59:13:c9:59:5f:8b:56:7f:bb:b2:ac:f4:74:26:13:76:1e:
        2f:04:40:a6:77:4f:ee:1c:49:1f:16:6f:e5:1d:3a:03:ea:9c:
        cb:20:2f:0c:12:af:0d:10:ff:40:ea:f9:6f:ed:94:16:5b:8e:
        10:fc:5a:bf:86:ac:d7:d9:47:76:7f:2f:f6:89:74:d3:83:e6:
        16:a6:a6:44
-----BEGIN CERTIFICATE-----
MIIDdzCCAl+gAwIBAgIQcGQhL3uFMMr+X+toCl3pfzANBgkqhkiG9w0BAQsFADAW
MRQwEgYDVQQDDAt0ZWFtNDM5LW5ldDAeFw0yMzExMDQxMDQ4MzFaFw0yNjEwMTkx
MDQ4MzFaMBkxFzAVBgNVBAMMDnRlYW00Mzktc2VydmVyMIIBIjANBgkqhkiG9w0B
AQEFAAOCAQ8AMIIBCgKCAQEA2ey+mWxxV9LBNTCTG/PhqWnvngDVrgXQk83S0KW4
9Uw+CWbQDWoplh1hKQsH/hfPL1ZieH4SNcsDzY/05eniBY4oYEwa2Y+w9S1JqVWM
7gAVJrHYV186+xmhhM0x2ZIinH7+QM6pFpMS4T8OlJwrONY6U0MNh6m62ADEf1jL
12fnpNR3fYUsJY8iCJEK1bOsxpTHGuhRgS/Top2By2gEf+VnVkzKTfcVxqOsMivi
SLO19msrUNGl0O/Q34nf6fdgMiGdpadc2trdHnRygv8Q/9TP6OJI812p/X3AwiU4
MxtxD3xICHvpcMYr0M10nldYUQjeQd6Kf6llstMgovQXJQIDAQABo4G9MIG6MAkG
A1UdEwQCMAAwHQYDVR0OBBYEFCDs3JvdXn4MIIrNOwElGux3JwqQMFEGA1UdIwRK
MEiAFIhm534dep9EkQ8PFmGNQwrIXC7AoRqkGDAWMRQwEgYDVQQDDAt0ZWFtNDM5
LW5ldIIUOGtTVuSA4N5vyEf6zuFDLpCgq74wEwYDVR0lBAwwCgYIKwYBBQUHAwEw
CwYDVR0PBAQDAgWgMBkGA1UdEQQSMBCCDnRlYW00Mzktc2VydmVyMA0GCSqGSIb3
DQEBCwUAA4IBAQBwR068NKt2FQNTd4ENSOsN4k9Yg0PXsM0JfPCULnDEqoVT/0IY
nn6ey/a5XOJUHnLL5wE3tQKd1AS3fsmf8YHkL6ku09aniEvN6KTzAg2KYfU4Q47f
t8jI4RnetkHzGVJ4jxyhmm0rT6Mw/uQVAfyKfZ2Ya5KLMZYwQpv7DknsaKb0WB0L
on0Km+yYRUizoQXJ6PbvKRGe6kgRlhrML7plrv+f/rQKYuAZRXvsHKp+XCWB3rPR
WRPJWV+LVn+7sqz0dCYTdh4vBECmd0/uHEkfFm/lHToD6pzLIC8MEq8NEP9A6vlv
7ZQWW44Q/Fq/hqzX2Ud2fy/2iXTTg+YWpqZE
-----END CERTIFICATE-----
