Certificate:
    Data:
        Version: 3 (0x2)
        Serial Number:
            eb:d5:c2:ec:c2:f4:99:f7:1e:10:79:a3:bc:25:32:0e
        Signature Algorithm: sha256WithRSAEncryption
        Issuer: CN=team439-net
        Validity
            Not Before: Nov  4 11:37:18 2023 GMT
            Not After : Oct 19 11:37:18 2026 GMT
        Subject: CN=team439-client
        Subject Public Key Info:
            Public Key Algorithm: rsaEncryption
                Public-Key: (2048 bit)
                Modulus:
                    00:b0:4d:fb:e4:c5:55:91:94:be:69:34:d5:96:3c:
                    ae:71:9a:d8:86:be:98:48:bf:4c:e3:7a:52:fc:ad:
                    94:e7:09:4e:f4:13:01:07:fb:5e:5f:d3:e8:14:02:
                    18:64:14:b7:b8:5a:02:82:94:5b:e4:c6:a7:f8:a1:
                    0f:14:d6:0a:f3:a2:c1:6a:78:53:f3:76:2f:68:a1:
                    94:26:a6:32:71:40:79:51:53:d0:29:82:46:0f:36:
                    cd:1e:29:53:06:9d:5a:f5:dc:0e:a6:7f:f5:0a:e9:
                    24:83:2e:ab:7d:77:75:9a:2b:90:f1:09:ad:c1:b0:
                    e7:ad:f7:87:e0:68:d2:62:2a:af:57:87:2f:2c:9a:
                    29:3f:d1:4b:0e:ed:60:dd:b4:29:0f:62:42:4e:63:
                    b7:35:fa:8c:b0:ff:0e:41:4d:7b:6e:14:15:0e:88:
                    0f:60:45:f8:fa:03:e2:62:e4:f4:19:84:b3:7a:9b:
                    a6:56:c8:08:f1:e7:6c:38:7a:94:a1:b4:58:b5:ca:
                    97:f0:60:c1:0b:eb:4e:12:90:f0:56:2c:28:05:b0:
                    c4:89:67:40:7b:aa:ef:74:9d:6c:68:8f:e4:91:9b:
                    20:cd:a9:1b:df:43:6b:3c:d7:cd:9c:55:53:db:36:
                    58:91:ef:46:49:97:a1:f7:ab:d9:9b:ea:8c:78:a6:
                    13:c1
                Exponent: 65537 (0x10001)
        X509v3 extensions:
            X509v3 Basic Constraints: 
                CA:FALSE
            X509v3 Subject Key Identifier: 
                A0:EA:DC:45:4F:5E:CD:7E:1D:92:98:0F:1A:0F:53:AC:30:10:99:D6
            X509v3 Authority Key Identifier: 
                keyid:CE:F8:53:60:69:A7:43:45:65:C6:FB:72:AC:E9:8B:30:5A:02:E1:1E
                DirName:/CN=team439-net
                serial:31:0A:D2:4B:65:04:42:CF:4D:FB:2F:81:E2:6C:DE:70:D1:F0:4E:C4
            X509v3 Extended Key Usage: 
                TLS Web Client Authentication
            X509v3 Key Usage: 
                Digital Signature
    Signature Algorithm: sha256WithRSAEncryption
    Signature Value:
        d0:9f:11:94:0d:19:91:60:90:95:6c:c8:8c:5a:43:1f:63:67:
        94:7b:43:30:21:9e:a5:05:cf:12:01:78:ab:46:f5:e1:e0:52:
        a0:c6:ba:42:14:8b:7a:99:28:7c:eb:88:da:cf:b9:64:bf:38:
        2c:7f:fb:90:51:8f:b0:48:9c:e1:f3:5e:15:48:e6:a5:f6:13:
        ac:61:b0:89:e5:16:20:dc:e4:c2:e6:1c:c9:88:7f:41:5e:2f:
        ea:8c:f8:cc:25:06:f3:01:ff:68:a4:b6:46:b7:17:36:81:04:
        b1:a0:1f:36:84:ea:95:06:1a:aa:d2:82:da:f5:12:07:96:27:
        fd:82:63:76:70:1d:47:27:da:6e:13:22:c6:8d:41:f2:67:e4:
        79:36:83:b8:09:f7:5a:d8:81:a4:e9:ce:c4:1a:33:b2:f3:fd:
        3e:91:21:80:77:d5:10:7d:83:59:14:75:d8:ac:88:56:ff:97:
        7a:13:5d:a3:e6:c0:91:c6:43:0f:d6:6e:a2:af:32:08:01:3f:
        3a:5a:c5:ac:84:5d:f5:da:f9:e1:74:8a:86:26:d4:ec:34:1d:
        da:73:e9:87:52:30:a2:79:3d:01:3f:c0:46:16:2c:60:1b:91:
        6a:8e:71:f9:51:dd:4e:aa:d8:e2:9c:a8:53:03:e3:6a:bd:26:
        8f:31:79:98
-----BEGIN CERTIFICATE-----
MIIDXTCCAkWgAwIBAgIRAOvVwuzC9Jn3HhB5o7wlMg4wDQYJKoZIhvcNAQELBQAw
FjEUMBIGA1UEAwwLdGVhbTQzOS1uZXQwHhcNMjMxMTA0MTEzNzE4WhcNMjYxMDE5
MTEzNzE4WjAZMRcwFQYDVQQDDA50ZWFtNDM5LWNsaWVudDCCASIwDQYJKoZIhvcN
AQEBBQADggEPADCCAQoCggEBALBN++TFVZGUvmk01ZY8rnGa2Ia+mEi/TON6Uvyt
lOcJTvQTAQf7Xl/T6BQCGGQUt7haAoKUW+TGp/ihDxTWCvOiwWp4U/N2L2ihlCam
MnFAeVFT0CmCRg82zR4pUwadWvXcDqZ/9QrpJIMuq313dZorkPEJrcGw5633h+Bo
0mIqr1eHLyyaKT/RSw7tYN20KQ9iQk5jtzX6jLD/DkFNe24UFQ6ID2BF+PoD4mLk
9BmEs3qbplbICPHnbDh6lKG0WLXKl/BgwQvrThKQ8FYsKAWwxIlnQHuq73SdbGiP
5JGbIM2pG99DazzXzZxVU9s2WJHvRkmXofer2ZvqjHimE8ECAwEAAaOBojCBnzAJ
BgNVHRMEAjAAMB0GA1UdDgQWBBSg6txFT17Nfh2SmA8aD1OsMBCZ1jBRBgNVHSME
SjBIgBTO+FNgaadDRWXG+3Ks6YswWgLhHqEapBgwFjEUMBIGA1UEAwwLdGVhbTQz
OS1uZXSCFDEK0ktlBELPTfsvgeJs3nDR8E7EMBMGA1UdJQQMMAoGCCsGAQUFBwMC
MAsGA1UdDwQEAwIHgDANBgkqhkiG9w0BAQsFAAOCAQEA0J8RlA0ZkWCQlWzIjFpD
H2NnlHtDMCGepQXPEgF4q0b14eBSoMa6QhSLepkofOuI2s+5ZL84LH/7kFGPsEic
4fNeFUjmpfYTrGGwieUWINzkwuYcyYh/QV4v6oz4zCUG8wH/aKS2RrcXNoEEsaAf
NoTqlQYaqtKC2vUSB5Yn/YJjdnAdRyfabhMixo1B8mfkeTaDuAn3WtiBpOnOxBoz
svP9PpEhgHfVEH2DWRR12KyIVv+XehNdo+bAkcZDD9Zuoq8yCAE/OlrFrIRd9dr5
4XSKhibU7DQd2nPph1Iwonk9AT/ARhYsYBuRao5x+VHdTqrY4pyoUwPjar0mjzF5
mA==
-----END CERTIFICATE-----
