Certificate:
    Data:
        Version: 3 (0x2)
        Serial Number:
            65:3c:1a:42:27:d7:2d:3d:5d:5c:7b:a5:3f:5d:9c:6f
        Signature Algorithm: sha256WithRSAEncryption
        Issuer: CN=team110-net
        Validity
            Not Before: Nov  3 20:41:07 2023 GMT
            Not After : Oct 18 20:41:07 2026 GMT
        Subject: CN=team110-server
        Subject Public Key Info:
            Public Key Algorithm: rsaEncryption
                Public-Key: (2048 bit)
                Modulus:
                    00:9b:0d:36:c9:ac:ca:56:96:56:65:d8:39:6b:b8:
                    2e:39:60:27:ee:27:e8:c4:18:b0:47:6e:65:db:16:
                    6e:8f:30:c5:aa:be:05:55:25:d0:93:a8:80:2a:18:
                    62:bd:58:f8:f4:85:f4:91:ac:74:92:07:35:8c:3d:
                    60:32:6e:38:69:64:85:ee:be:e8:24:23:b4:12:9e:
                    4c:ca:c7:ee:df:dd:2f:da:6a:60:61:c2:1d:91:78:
                    cd:2a:61:a8:8b:94:69:9c:e4:5c:af:c5:d2:77:78:
                    b9:c6:c7:af:0a:fa:ea:d1:15:03:44:f0:4c:b1:1e:
                    0e:68:22:61:34:d0:7e:ba:b3:2e:1a:db:55:3c:77:
                    20:33:f1:19:78:d3:28:60:c2:58:ff:94:f3:d9:e1:
                    b2:8b:c0:7c:e6:3f:2f:7d:1d:75:26:08:05:fb:24:
                    38:18:a3:2a:8e:15:87:6f:6d:cb:e6:08:48:73:1c:
                    d2:01:6d:42:40:58:65:e9:d2:8a:55:ac:84:e2:c4:
                    3a:3d:61:13:69:fb:0e:c1:e9:a6:80:f5:8e:fe:aa:
                    ef:7d:19:5c:ca:aa:c4:b3:d2:73:f2:13:a1:95:97:
                    71:14:78:d2:dc:1a:66:2d:37:4a:c5:b6:79:23:3e:
                    c1:63:9b:e8:95:94:85:ce:74:a8:1f:22:70:0e:8a:
                    00:a3
                Exponent: 65537 (0x10001)
        X509v3 extensions:
            X509v3 Basic Constraints: 
                CA:FALSE
            X509v3 Subject Key Identifier: 
                35:0C:E8:5B:C6:5E:45:5D:02:E7:CE:26:9D:B4:02:8B:25:5C:9B:6D
            X509v3 Authority Key Identifier: 
                keyid:D0:90:6E:51:0B:D6:09:B9:53:93:2C:13:E1:2A:FE:80:14:51:56:DA
                DirName:/CN=team110-net
                serial:77:8C:99:82:CE:86:57:18:7B:00:48:79:C2:EC:7A:48:8C:7A:C9:16
            X509v3 Extended Key Usage: 
                TLS Web Server Authentication
            X509v3 Key Usage: 
                Digital Signature, Key Encipherment
            X509v3 Subject Alternative Name: 
                DNS:team110-server
    Signature Algorithm: sha256WithRSAEncryption
    Signature Value:
        59:d8:cc:d3:7b:cc:71:e5:99:03:8b:11:e4:eb:fc:d0:f8:04:
        90:cb:62:b3:10:1e:5b:7e:ce:3d:fc:ef:d5:ed:05:20:62:a9:
        83:1d:d4:63:8c:1f:e9:4a:62:59:d5:47:dd:68:6c:b6:e7:33:
        0b:1b:02:ba:5d:e3:7e:df:ba:17:2e:12:32:ab:82:79:30:2e:
        c1:6f:16:7a:2b:f2:79:3d:e3:7f:15:e5:bd:3c:5c:40:df:ef:
        7c:9f:30:f2:70:13:05:61:43:bb:14:3a:7a:5b:6b:71:79:5c:
        d1:28:9c:06:d3:15:31:92:b4:8f:23:e2:f3:4f:fd:ee:f0:9a:
        f5:4c:01:00:d8:7a:9b:92:f5:d8:99:a8:39:9d:15:59:6d:55:
        53:ac:b1:55:3f:6a:c5:3d:82:cf:88:e6:9b:a6:35:97:d7:7a:
        3e:2a:97:7b:b5:57:61:40:3b:11:7c:c0:2e:c0:e0:1a:76:e2:
        67:54:43:a9:17:7c:af:93:2e:c2:24:96:8b:64:ed:59:45:9a:
        b2:35:70:32:48:7a:2d:00:b9:67:77:c2:26:57:bf:c6:c3:9c:
        f4:8b:14:7d:3c:de:4e:6d:a1:e3:0d:55:01:ef:f9:f4:33:31:
        2a:49:6e:a8:38:c0:34:3d:8f:4b:76:85:86:a9:3f:5c:ba:98:
        99:c1:86:a4
-----BEGIN CERTIFICATE-----
MIIDdzCCAl+gAwIBAgIQZTwaQifXLT1dXHulP12cbzANBgkqhkiG9w0BAQsFADAW
MRQwEgYDVQQDDAt0ZWFtMTEwLW5ldDAeFw0yMzExMDMyMDQxMDdaFw0yNjEwMTgy
MDQxMDdaMBkxFzAVBgNVBAMMDnRlYW0xMTAtc2VydmVyMIIBIjANBgkqhkiG9w0B
AQEFAAOCAQ8AMIIBCgKCAQEAmw02yazKVpZWZdg5a7guOWAn7ifoxBiwR25l2xZu
jzDFqr4FVSXQk6iAKhhivVj49IX0kax0kgc1jD1gMm44aWSF7r7oJCO0Ep5Mysfu
390v2mpgYcIdkXjNKmGoi5RpnORcr8XSd3i5xsevCvrq0RUDRPBMsR4OaCJhNNB+
urMuGttVPHcgM/EZeNMoYMJY/5Tz2eGyi8B85j8vfR11JggF+yQ4GKMqjhWHb23L
5ghIcxzSAW1CQFhl6dKKVayE4sQ6PWETafsOwemmgPWO/qrvfRlcyqrEs9Jz8hOh
lZdxFHjS3BpmLTdKxbZ5Iz7BY5volZSFznSoHyJwDooAowIDAQABo4G9MIG6MAkG
A1UdEwQCMAAwHQYDVR0OBBYEFDUM6FvGXkVdAufOJp20AoslXJttMFEGA1UdIwRK
MEiAFNCQblEL1gm5U5MsE+Eq/oAUUVbaoRqkGDAWMRQwEgYDVQQDDAt0ZWFtMTEw
LW5ldIIUd4yZgs6GVxh7AEh5wux6SIx6yRYwEwYDVR0lBAwwCgYIKwYBBQUHAwEw
CwYDVR0PBAQDAgWgMBkGA1UdEQQSMBCCDnRlYW0xMTAtc2VydmVyMA0GCSqGSIb3
DQEBCwUAA4IBAQBZ2MzTe8xx5ZkDixHk6/zQ+ASQy2KzEB5bfs49/O/V7QUgYqmD
HdRjjB/pSmJZ1UfdaGy25zMLGwK6XeN+37oXLhIyq4J5MC7BbxZ6K/J5PeN/FeW9
PFxA3+98nzDycBMFYUO7FDp6W2txeVzRKJwG0xUxkrSPI+LzT/3u8Jr1TAEA2Hqb
kvXYmag5nRVZbVVTrLFVP2rFPYLPiOabpjWX13o+Kpd7tVdhQDsRfMAuwOAaduJn
VEOpF3yvky7CJJaLZO1ZRZqyNXAySHotALlnd8ImV7/Gw5z0ixR9PN5ObaHjDVUB
7/n0MzEqSW6oOMA0PY9LdoWGqT9cupiZwYak
-----END CERTIFICATE-----
