Certificate:
    Data:
        Version: 3 (0x2)
        Serial Number:
            30:35:fc:06:ff:a2:40:21:d8:dc:b0:49:a1:f3:a3:2c
        Signature Algorithm: sha256WithRSAEncryption
        Issuer: CN=team315-net
        Validity
            Not Before: Nov  4 11:34:20 2023 GMT
            Not After : Oct 19 11:34:20 2026 GMT
        Subject: CN=team315-client
        Subject Public Key Info:
            Public Key Algorithm: rsaEncryption
                Public-Key: (2048 bit)
                Modulus:
                    00:d5:47:e8:5f:c3:a3:c6:99:76:1d:3b:44:f3:38:
                    5c:2d:a5:9e:e0:e9:62:44:c7:a0:a5:e1:21:47:98:
                    10:e1:b4:8d:23:24:b7:86:4b:6c:33:97:57:a4:1a:
                    89:de:a4:86:33:14:aa:20:e6:d2:83:a1:3c:3e:e6:
                    ce:f3:e6:dc:f1:32:79:5f:63:cc:e7:60:41:ec:3b:
                    3d:5e:f7:ab:78:16:d7:b5:f9:15:41:fd:13:29:d4:
                    2b:82:a0:22:ee:a0:e9:66:9a:38:fc:9b:4e:f5:af:
                    aa:79:93:9b:8a:80:de:8e:cd:cd:3d:64:ee:0d:bd:
                    4d:20:e9:01:fc:ca:68:25:a0:81:18:9d:5b:ee:2a:
                    c5:a9:58:c2:59:dc:d2:3a:c8:b2:a8:9a:a4:3a:7c:
                    2d:11:9c:2e:35:4f:0f:f2:31:a2:72:28:d9:67:42:
                    44:bf:0c:a7:a9:ae:9f:f4:e7:0a:75:c6:00:91:e6:
                    3c:d9:e5:53:b4:f3:ee:55:46:7b:dc:c3:8e:10:a4:
                    04:fb:40:d7:ef:15:18:a2:ee:8b:31:2a:82:e3:ee:
                    57:ea:78:cd:cc:33:fe:fc:83:b5:5d:39:cf:88:19:
                    bd:e2:bd:b6:1a:e0:6e:57:f7:c3:67:e2:76:0b:15:
                    93:f3:42:77:5b:17:75:c7:40:70:a8:ea:bc:b0:30:
                    ae:d1
                Exponent: 65537 (0x10001)
        X509v3 extensions:
            X509v3 Basic Constraints: 
                CA:FALSE
            X509v3 Subject Key Identifier: 
                C1:E5:6C:8C:AB:6E:51:FE:F5:8C:38:6D:01:6F:AF:25:0C:F2:19:2F
            X509v3 Authority Key Identifier: 
                keyid:29:50:F1:FE:9B:F8:17:81:99:4F:6E:A3:B7:60:65:0E:53:F6:D2:60
                DirName:/CN=team315-net
                serial:0C:83:B7:9A:B1:1C:AF:FA:E6:E5:2E:71:22:14:A2:06:99:F8:EA:EB
            X509v3 Extended Key Usage: 
                TLS Web Client Authentication
            X509v3 Key Usage: 
                Digital Signature
    Signature Algorithm: sha256WithRSAEncryption
    Signature Value:
        19:25:61:a6:ea:cc:60:28:a9:b6:c2:29:77:27:dc:1f:88:b7:
        e3:5e:a3:4a:79:de:76:ef:a5:3b:a9:6c:cd:73:74:35:67:b6:
        2b:32:6b:8c:e6:76:89:3e:86:76:ad:ec:32:7f:4a:d7:d9:16:
        e6:ff:c2:fc:a2:7e:99:16:2f:be:20:9c:44:a2:3a:f2:ee:d9:
        b5:d3:fc:e4:d7:6d:ec:a2:5f:7f:b7:91:b1:26:7c:7d:0b:ec:
        42:b3:9f:bd:3a:ca:ca:25:56:0d:80:cf:00:bc:21:c2:f7:32:
        8d:96:d0:6a:43:82:11:73:09:bb:4e:c0:5a:82:ad:72:89:97:
        31:5e:29:5d:f6:27:f8:8d:44:aa:49:ca:99:35:56:48:05:e8:
        85:8c:68:18:d6:76:9e:74:b9:81:a2:f5:57:49:1c:fe:43:47:
        65:89:d4:6f:50:2b:d9:3d:4d:d9:1e:ed:07:97:0f:d2:9e:72:
        d8:91:9c:1e:66:8b:91:81:a5:74:bd:d9:db:23:d7:3a:cb:28:
        bd:a6:68:6c:fb:9d:34:fc:02:c0:09:ed:1f:c3:42:2c:0d:03:
        f5:58:0b:3d:75:74:fa:cf:a8:85:e0:2f:e5:b4:4c:cc:11:d1:
        6c:3a:7b:29:de:18:00:6f:56:3a:ff:92:48:78:8a:4b:c5:d5:
        37:11:63:a5
-----BEGIN CERTIFICATE-----
MIIDXDCCAkSgAwIBAgIQMDX8Bv+iQCHY3LBJofOjLDANBgkqhkiG9w0BAQsFADAW
MRQwEgYDVQQDDAt0ZWFtMzE1LW5ldDAeFw0yMzExMDQxMTM0MjBaFw0yNjEwMTkx
MTM0MjBaMBkxFzAVBgNVBAMMDnRlYW0zMTUtY2xpZW50MIIBIjANBgkqhkiG9w0B
AQEFAAOCAQ8AMIIBCgKCAQEA1UfoX8Ojxpl2HTtE8zhcLaWe4OliRMegpeEhR5gQ
4bSNIyS3hktsM5dXpBqJ3qSGMxSqIObSg6E8PubO8+bc8TJ5X2PM52BB7Ds9Xver
eBbXtfkVQf0TKdQrgqAi7qDpZpo4/JtO9a+qeZObioDejs3NPWTuDb1NIOkB/Mpo
JaCBGJ1b7irFqVjCWdzSOsiyqJqkOnwtEZwuNU8P8jGicijZZ0JEvwynqa6f9OcK
dcYAkeY82eVTtPPuVUZ73MOOEKQE+0DX7xUYou6LMSqC4+5X6njNzDP+/IO1XTnP
iBm94r22GuBuV/fDZ+J2CxWT80J3Wxd1x0BwqOq8sDCu0QIDAQABo4GiMIGfMAkG
A1UdEwQCMAAwHQYDVR0OBBYEFMHlbIyrblH+9Yw4bQFvryUM8hkvMFEGA1UdIwRK
MEiAFClQ8f6b+BeBmU9uo7dgZQ5T9tJgoRqkGDAWMRQwEgYDVQQDDAt0ZWFtMzE1
LW5ldIIUDIO3mrEcr/rm5S5xIhSiBpn46uswEwYDVR0lBAwwCgYIKwYBBQUHAwIw
CwYDVR0PBAQDAgeAMA0GCSqGSIb3DQEBCwUAA4IBAQAZJWGm6sxgKKm2wil3J9wf
iLfjXqNKed5276U7qWzNc3Q1Z7YrMmuM5naJPoZ2rewyf0rX2Rbm/8L8on6ZFi++
IJxEojry7tm10/zk123sol9/t5GxJnx9C+xCs5+9OsrKJVYNgM8AvCHC9zKNltBq
Q4IRcwm7TsBagq1yiZcxXild9if4jUSqScqZNVZIBeiFjGgY1naedLmBovVXSRz+
Q0dlidRvUCvZPU3ZHu0Hlw/SnnLYkZweZouRgaV0vdnbI9c6yyi9pmhs+500/ALA
Ce0fw0IsDQP1WAs9dXT6z6iF4C/ltEzMEdFsOnsp3hgAb1Y6/5JIeIpLxdU3EWOl
-----END CERTIFICATE-----
