Certificate:
    Data:
        Version: 3 (0x2)
        Serial Number:
            37:72:ac:08:2d:21:65:c9:55:9f:3f:6c:a5:9c:54:d5
        Signature Algorithm: sha256WithRSAEncryption
        Issuer: CN=team315-net
        Validity
            Not Before: Nov  4 11:34:21 2023 GMT
            Not After : Oct 19 11:34:21 2026 GMT
        Subject: CN=team315-server
        Subject Public Key Info:
            Public Key Algorithm: rsaEncryption
                Public-Key: (2048 bit)
                Modulus:
                    00:bd:e8:2c:60:3e:38:f8:98:83:ac:95:b4:97:a1:
                    28:09:50:9b:8b:ab:37:54:66:2e:64:bf:60:d7:7c:
                    d5:66:00:19:70:e2:d9:58:50:67:5e:cb:ec:df:1b:
                    3b:0f:74:47:d7:f2:63:2a:27:97:58:0c:d2:15:95:
                    58:c8:27:86:e5:72:4f:ca:88:b5:e8:73:4c:a3:b3:
                    ec:2f:a0:87:9d:a3:f8:e9:e9:3c:49:14:8c:bb:34:
                    d2:d2:4c:88:7e:aa:24:7b:7b:05:2c:5e:71:83:c9:
                    a7:d3:02:77:86:83:6d:65:36:71:78:62:d3:1a:b5:
                    01:bd:69:77:86:36:bd:ce:07:4b:43:de:83:94:a1:
                    3c:ed:cb:2e:bb:15:ed:96:5b:bb:9f:15:d6:77:23:
                    c5:94:61:24:d8:1b:97:94:97:ba:f7:b5:5b:d8:6a:
                    42:14:ba:f3:e8:47:24:ba:fa:92:6d:b7:c2:76:63:
                    c1:ab:4f:b1:47:e7:7f:67:be:9c:cf:36:20:bf:25:
                    b9:9a:f2:f9:29:b3:47:68:1c:a3:59:f8:43:d3:ff:
                    ad:05:8f:59:3d:4d:0a:a5:b1:bd:3a:8f:b9:06:e0:
                    46:53:71:82:f0:c9:6f:83:03:c3:03:d7:32:bd:e5:
                    af:a6:b5:e7:7f:e5:01:9e:ed:d4:5a:f1:fc:3b:80:
                    be:25
                Exponent: 65537 (0x10001)
        X509v3 extensions:
            X509v3 Basic Constraints: 
                CA:FALSE
            X509v3 Subject Key Identifier: 
                C4:68:D5:A7:B9:E6:F2:4C:A9:28:1F:F7:AB:EC:A0:66:B3:1B:DB:23
            X509v3 Authority Key Identifier: 
                keyid:29:50:F1:FE:9B:F8:17:81:99:4F:6E:A3:B7:60:65:0E:53:F6:D2:60
                DirName:/CN=team315-net
                serial:0C:83:B7:9A:B1:1C:AF:FA:E6:E5:2E:71:22:14:A2:06:99:F8:EA:EB
            X509v3 Extended Key Usage: 
                TLS Web Server Authentication
            X509v3 Key Usage: 
                Digital Signature, Key Encipherment
            X509v3 Subject Alternative Name: 
                DNS:team315-server
    Signature Algorithm: sha256WithRSAEncryption
    Signature Value:
        5c:ed:f1:59:f5:e2:c3:e2:cf:4d:fc:8c:97:ec:a9:24:e8:da:
        80:7c:3f:d0:18:33:2e:0a:d9:7a:55:56:36:61:9a:cb:bd:d0:
        d8:4d:3e:76:69:c3:2d:6b:bc:74:a8:87:14:65:ba:06:3b:a4:
        a8:72:54:ab:12:d0:57:9a:3e:c8:41:e2:a8:84:f8:32:0b:33:
        6b:65:59:ce:d2:22:54:dd:34:70:6a:aa:5a:6a:42:3f:f6:03:
        ae:02:ed:e6:08:e6:46:be:c3:73:56:ab:b4:f4:c6:cb:59:20:
        91:f4:39:96:1c:a9:3e:67:28:e8:59:c5:6c:a1:c9:74:f3:70:
        21:22:1d:39:1f:43:bf:c4:95:ee:77:3a:f2:85:5b:73:76:c8:
        0a:a1:13:92:50:3a:57:10:f9:ef:a8:25:29:5b:c4:90:fa:3e:
        02:e2:71:d6:61:de:86:0d:ad:44:0a:50:e5:ff:20:1f:61:55:
        01:d0:35:d2:1a:e5:94:5c:62:78:12:ce:8c:0f:81:19:e0:97:
        2e:6d:d3:5c:f6:d3:8b:75:02:1a:fb:23:6e:bc:18:9d:2f:08:
        5f:07:a4:2c:1f:ca:02:98:f3:2d:ab:41:4f:67:03:d8:1a:5f:
        24:b0:b7:85:9c:96:ac:51:9a:95:ea:ce:92:d9:7b:e6:32:66:
        49:78:77:52
-----BEGIN CERTIFICATE-----
MIIDdzCCAl+gAwIBAgIQN3KsCC0hZclVnz9spZxU1TANBgkqhkiG9w0BAQsFADAW
MRQwEgYDVQQDDAt0ZWFtMzE1LW5ldDAeFw0yMzExMDQxMTM0MjFaFw0yNjEwMTkx
MTM0MjFaMBkxFzAVBgNVBAMMDnRlYW0zMTUtc2VydmVyMIIBIjANBgkqhkiG9w0B
AQEFAAOCAQ8AMIIBCgKCAQEAvegsYD44+JiDrJW0l6EoCVCbi6s3VGYuZL9g13zV
ZgAZcOLZWFBnXsvs3xs7D3RH1/JjKieXWAzSFZVYyCeG5XJPyoi16HNMo7PsL6CH
naP46ek8SRSMuzTS0kyIfqoke3sFLF5xg8mn0wJ3hoNtZTZxeGLTGrUBvWl3hja9
zgdLQ96DlKE87csuuxXtllu7nxXWdyPFlGEk2BuXlJe697Vb2GpCFLrz6EckuvqS
bbfCdmPBq0+xR+d/Z76czzYgvyW5mvL5KbNHaByjWfhD0/+tBY9ZPU0KpbG9Oo+5
BuBGU3GC8MlvgwPDA9cyveWvprXnf+UBnu3UWvH8O4C+JQIDAQABo4G9MIG6MAkG
A1UdEwQCMAAwHQYDVR0OBBYEFMRo1ae55vJMqSgf96vsoGazG9sjMFEGA1UdIwRK
MEiAFClQ8f6b+BeBmU9uo7dgZQ5T9tJgoRqkGDAWMRQwEgYDVQQDDAt0ZWFtMzE1
LW5ldIIUDIO3mrEcr/rm5S5xIhSiBpn46uswEwYDVR0lBAwwCgYIKwYBBQUHAwEw
CwYDVR0PBAQDAgWgMBkGA1UdEQQSMBCCDnRlYW0zMTUtc2VydmVyMA0GCSqGSIb3
DQEBCwUAA4IBAQBc7fFZ9eLD4s9N/IyX7Kkk6NqAfD/QGDMuCtl6VVY2YZrLvdDY
TT52acMta7x0qIcUZboGO6SoclSrEtBXmj7IQeKohPgyCzNrZVnO0iJU3TRwaqpa
akI/9gOuAu3mCOZGvsNzVqu09MbLWSCR9DmWHKk+ZyjoWcVsocl083AhIh05H0O/
xJXudzryhVtzdsgKoROSUDpXEPnvqCUpW8SQ+j4C4nHWYd6GDa1EClDl/yAfYVUB
0DXSGuWUXGJ4Es6MD4EZ4JcubdNc9tOLdQIa+yNuvBidLwhfB6QsH8oCmPMtq0FP
ZwPYGl8ksLeFnJasUZqV6s6S2XvmMmZJeHdS
-----END CERTIFICATE-----
