Certificate:
    Data:
        Version: 3 (0x2)
        Serial Number:
            a2:4f:89:64:29:2a:c8:5a:27:fa:5a:9c:59:24:fe:c8
        Signature Algorithm: sha256WithRSAEncryption
        Issuer: CN=team315-net
        Validity
            Not Before: Nov  4 10:46:23 2023 GMT
            Not After : Oct 19 10:46:23 2026 GMT
        Subject: CN=team315-client
        Subject Public Key Info:
            Public Key Algorithm: rsaEncryption
                Public-Key: (2048 bit)
                Modulus:
                    00:dc:e6:f5:d2:ab:3f:3a:51:ed:8e:48:1d:06:96:
                    06:81:bc:0f:12:60:04:81:9a:e1:2d:9a:12:b0:5d:
                    28:96:fb:dd:f1:54:28:ce:51:8b:57:7b:b9:7f:0f:
                    be:51:f4:e6:fb:d0:22:bd:26:d8:d8:89:e0:5f:3f:
                    1d:fe:9c:ab:5c:0f:d6:f1:93:c5:47:79:94:ac:c2:
                    8a:ef:83:a7:66:74:35:28:e8:ed:51:6c:8d:1a:30:
                    13:df:fb:f6:c0:48:14:ea:8f:52:eb:9e:3e:17:45:
                    2d:47:74:ea:f4:47:d1:b5:72:c1:20:6f:a6:21:c8:
                    05:c7:36:e6:c2:0b:af:fd:80:0f:46:6c:2e:e4:06:
                    86:1f:c3:e1:1c:ba:f9:5f:17:e6:d2:7c:3a:0a:8a:
                    6a:ab:31:33:fd:0b:bd:93:7a:c5:32:05:8b:67:3f:
                    1e:06:08:0f:fb:68:90:5f:32:a4:5b:62:b7:c0:f4:
                    6f:4b:5d:63:b7:85:8c:11:f2:86:10:e7:b2:c6:f0:
                    e9:46:3f:e5:34:b6:e4:26:3b:80:9c:57:4c:c0:0b:
                    4f:6b:de:f9:68:7c:48:5a:ff:8a:61:e0:e4:a0:c0:
                    af:4c:e7:9d:db:01:01:09:f8:41:de:f5:e3:2d:e5:
                    21:a4:49:e6:6c:48:ab:3b:04:b0:4e:50:e0:8c:c2:
                    da:4f
                Exponent: 65537 (0x10001)
        X509v3 extensions:
            X509v3 Basic Constraints: 
                CA:FALSE
            X509v3 Subject Key Identifier: 
                11:F9:E3:A3:C1:75:59:F8:80:46:E7:CA:A6:A6:1D:95:BD:58:7A:2D
            X509v3 Authority Key Identifier: 
                keyid:0D:9A:B3:C8:C7:86:76:5E:1E:90:90:41:09:F8:C8:3B:F6:BC:3B:21
                DirName:/CN=team315-net
                serial:69:55:BB:B5:BE:37:16:24:F7:5B:B6:2B:84:12:95:8C:94:DC:57:D9
            X509v3 Extended Key Usage: 
                TLS Web Client Authentication
            X509v3 Key Usage: 
                Digital Signature
    Signature Algorithm: sha256WithRSAEncryption
    Signature Value:
        84:ea:7d:9e:24:49:be:c2:33:1e:d2:13:05:68:e0:84:a8:62:
        11:a4:8f:d5:86:ce:ed:97:04:6b:14:b5:7e:75:ce:b7:05:57:
        0b:58:50:d5:4d:a8:91:de:17:f0:82:f7:82:7c:9f:cc:15:4c:
        bc:74:85:3f:9f:c0:1d:5c:68:5d:0e:de:7a:26:c0:72:ef:76:
        5c:45:c1:84:56:ef:56:2b:9e:4c:de:7d:7a:43:0d:c3:b1:e5:
        8a:5f:77:19:6c:b6:06:9b:ae:a1:41:38:b4:e7:3b:6b:a4:ee:
        8b:05:de:37:02:e6:c5:0b:24:fe:cd:97:c5:bb:85:41:98:bd:
        d9:a3:5b:38:b4:7c:0e:39:c0:aa:11:b4:3a:b0:f5:dd:4c:c3:
        f5:d0:29:ca:ac:72:57:6d:e7:68:42:09:1e:d3:ac:e5:a6:7c:
        92:3d:29:21:45:0e:20:a5:76:42:71:b7:23:30:67:eb:48:97:
        bb:c6:7d:f8:a2:0b:61:0c:b4:b9:19:cd:12:a4:62:f5:07:41:
        f7:16:7c:5a:76:c2:cb:b9:30:67:9f:36:b6:36:83:94:03:8e:
        ee:b1:76:a0:e8:79:77:58:54:1e:1b:8e:9b:cf:f4:59:d2:fd:
        ae:c5:e3:32:e7:82:b3:61:60:a9:8b:b9:33:24:a0:f0:b7:6b:
        f7:c0:77:23
-----BEGIN CERTIFICATE-----
MIIDXTCCAkWgAwIBAgIRAKJPiWQpKshaJ/panFkk/sgwDQYJKoZIhvcNAQELBQAw
FjEUMBIGA1UEAwwLdGVhbTMxNS1uZXQwHhcNMjMxMTA0MTA0NjIzWhcNMjYxMDE5
MTA0NjIzWjAZMRcwFQYDVQQDDA50ZWFtMzE1LWNsaWVudDCCASIwDQYJKoZIhvcN
AQEBBQADggEPADCCAQoCggEBANzm9dKrPzpR7Y5IHQaWBoG8DxJgBIGa4S2aErBd
KJb73fFUKM5Ri1d7uX8PvlH05vvQIr0m2NiJ4F8/Hf6cq1wP1vGTxUd5lKzCiu+D
p2Z0NSjo7VFsjRowE9/79sBIFOqPUuuePhdFLUd06vRH0bVywSBvpiHIBcc25sIL
r/2AD0ZsLuQGhh/D4Ry6+V8X5tJ8OgqKaqsxM/0LvZN6xTIFi2c/HgYID/tokF8y
pFtit8D0b0tdY7eFjBHyhhDnssbw6UY/5TS25CY7gJxXTMALT2ve+Wh8SFr/imHg
5KDAr0znndsBAQn4Qd714y3lIaRJ5mxIqzsEsE5Q4IzC2k8CAwEAAaOBojCBnzAJ
BgNVHRMEAjAAMB0GA1UdDgQWBBQR+eOjwXVZ+IBG58qmph2VvVh6LTBRBgNVHSME
SjBIgBQNmrPIx4Z2Xh6QkEEJ+Mg79rw7IaEapBgwFjEUMBIGA1UEAwwLdGVhbTMx
NS1uZXSCFGlVu7W+NxYk91u2K4QSlYyU3FfZMBMGA1UdJQQMMAoGCCsGAQUFBwMC
MAsGA1UdDwQEAwIHgDANBgkqhkiG9w0BAQsFAAOCAQEAhOp9niRJvsIzHtITBWjg
hKhiEaSP1YbO7ZcEaxS1fnXOtwVXC1hQ1U2okd4X8IL3gnyfzBVMvHSFP5/AHVxo
XQ7eeibAcu92XEXBhFbvViueTN59ekMNw7Hlil93GWy2BpuuoUE4tOc7a6TuiwXe
NwLmxQsk/s2XxbuFQZi92aNbOLR8DjnAqhG0OrD13UzD9dApyqxyV23naEIJHtOs
5aZ8kj0pIUUOIKV2QnG3IzBn60iXu8Z9+KILYQy0uRnNEqRi9QdB9xZ8WnbCy7kw
Z582tjaDlAOO7rF2oOh5d1hUHhuOm8/0WdL9rsXjMueCs2FgqYu5MySg8Ldr98B3
Iw==
-----END CERTIFICATE-----
