Certificate:
    Data:
        Version: 3 (0x2)
        Serial Number:
            c9:2e:06:0e:a3:b7:de:85:29:20:18:a4:d3:d5:69:9c
        Signature Algorithm: sha256WithRSAEncryption
        Issuer: CN=team315-net
        Validity
            Not Before: Nov  4 10:46:24 2023 GMT
            Not After : Oct 19 10:46:24 2026 GMT
        Subject: CN=team315-server
        Subject Public Key Info:
            Public Key Algorithm: rsaEncryption
                Public-Key: (2048 bit)
                Modulus:
                    00:bb:59:f5:cd:9d:51:ec:cc:90:8c:0f:6c:95:84:
                    0e:0f:20:6e:a3:d4:3e:e0:15:7e:54:6d:32:95:99:
                    2d:41:2c:0a:33:65:a3:c0:0b:e1:87:de:32:f5:69:
                    f1:dd:c1:02:ec:07:38:18:49:aa:7c:b8:0b:fa:79:
                    0d:92:1e:a7:27:41:f5:b5:89:c9:fa:c1:53:ee:ca:
                    7f:ab:37:e9:cf:2d:db:2f:3d:12:4f:a9:0a:f1:02:
                    13:34:31:e1:d4:36:62:54:4f:d8:41:ac:1c:78:51:
                    da:1e:86:20:89:1e:0c:2d:2a:de:fb:55:88:b1:6a:
                    b6:3b:49:ab:c6:d9:1f:82:5d:d5:82:bc:9e:39:21:
                    1d:5f:54:6b:69:a5:19:da:bc:d8:56:35:b0:e4:e8:
                    5a:98:b4:24:b0:56:68:69:42:17:7d:7d:b8:4d:66:
                    da:0a:03:ef:d8:9b:3f:d5:0b:26:1d:e0:d2:f9:14:
                    5f:c6:77:f2:ff:77:e8:83:69:9d:fa:17:60:f9:31:
                    b7:b3:96:e6:b1:b8:cb:2a:49:74:4e:29:99:12:bd:
                    e1:00:a3:2b:a0:c7:87:0c:73:00:f7:7b:7e:35:78:
                    e1:28:d2:4e:bf:1e:ee:2c:25:64:b4:d0:3c:01:42:
                    e0:1f:5a:66:82:7c:32:9a:20:32:ec:89:02:da:5e:
                    96:91
                Exponent: 65537 (0x10001)
        X509v3 extensions:
            X509v3 Basic Constraints: 
                CA:FALSE
            X509v3 Subject Key Identifier: 
                2A:12:EC:E0:9C:08:36:01:CB:94:7D:78:39:AE:52:CE:F1:FE:4F:C3
            X509v3 Authority Key Identifier: 
                keyid:0D:9A:B3:C8:C7:86:76:5E:1E:90:90:41:09:F8:C8:3B:F6:BC:3B:21
                DirName:/CN=team315-net
                serial:69:55:BB:B5:BE:37:16:24:F7:5B:B6:2B:84:12:95:8C:94:DC:57:D9
            X509v3 Extended Key Usage: 
                TLS Web Server Authentication
            X509v3 Key Usage: 
                Digital Signature, Key Encipherment
            X509v3 Subject Alternative Name: 
                DNS:team315-server
    Signature Algorithm: sha256WithRSAEncryption
    Signature Value:
        d1:98:e8:aa:96:85:66:1c:04:65:a5:86:a6:c2:1a:60:6c:2e:
        e5:83:e2:b1:a3:33:54:dd:e5:ea:e2:17:76:77:7f:95:7c:05:
        a7:dd:74:77:de:d9:3f:6f:36:88:06:57:92:a8:e0:06:87:78:
        0e:bb:26:7c:bf:a9:f1:c6:5e:e9:98:1d:48:69:e8:74:32:48:
        43:d4:b9:06:c0:87:82:45:c2:db:4a:b7:ea:5d:22:f2:d9:80:
        a9:b4:60:13:a6:fe:1c:0c:b2:27:70:f4:10:97:dd:d2:b4:52:
        2f:52:4b:59:50:70:6c:c0:3c:2a:88:97:80:89:f5:c7:18:d4:
        21:e8:d2:5a:da:57:e5:73:0d:a0:8f:6a:0a:48:56:12:f1:e5:
        af:0e:a9:e1:c4:88:9d:40:68:ac:51:51:a4:8a:54:c7:3c:db:
        35:1d:56:df:c5:de:65:de:72:28:8e:50:9e:98:b0:b9:38:12:
        7c:07:35:d9:78:f2:df:a8:f3:9c:65:28:fa:05:c2:36:34:d1:
        cb:99:e9:5e:fa:5e:8c:c2:3f:73:86:80:13:46:85:ab:b2:d0:
        73:66:db:af:34:da:b8:48:73:8f:5b:54:fc:90:ec:c8:94:83:
        d6:b6:a1:e5:b6:c5:c5:14:c0:01:f9:11:93:4a:5d:59:3a:2a:
        ed:fa:a9:48
-----BEGIN CERTIFICATE-----
MIIDeDCCAmCgAwIBAgIRAMkuBg6jt96FKSAYpNPVaZwwDQYJKoZIhvcNAQELBQAw
FjEUMBIGA1UEAwwLdGVhbTMxNS1uZXQwHhcNMjMxMTA0MTA0NjI0WhcNMjYxMDE5
MTA0NjI0WjAZMRcwFQYDVQQDDA50ZWFtMzE1LXNlcnZlcjCCASIwDQYJKoZIhvcN
AQEBBQADggEPADCCAQoCggEBALtZ9c2dUezMkIwPbJWEDg8gbqPUPuAVflRtMpWZ
LUEsCjNlo8AL4YfeMvVp8d3BAuwHOBhJqny4C/p5DZIepydB9bWJyfrBU+7Kf6s3
6c8t2y89Ek+pCvECEzQx4dQ2YlRP2EGsHHhR2h6GIIkeDC0q3vtViLFqtjtJq8bZ
H4Jd1YK8njkhHV9Ua2mlGdq82FY1sOToWpi0JLBWaGlCF319uE1m2goD79ibP9UL
Jh3g0vkUX8Z38v936INpnfoXYPkxt7OW5rG4yypJdE4pmRK94QCjK6DHhwxzAPd7
fjV44SjSTr8e7iwlZLTQPAFC4B9aZoJ8MpogMuyJAtpelpECAwEAAaOBvTCBujAJ
BgNVHRMEAjAAMB0GA1UdDgQWBBQqEuzgnAg2AcuUfXg5rlLO8f5PwzBRBgNVHSME
SjBIgBQNmrPIx4Z2Xh6QkEEJ+Mg79rw7IaEapBgwFjEUMBIGA1UEAwwLdGVhbTMx
NS1uZXSCFGlVu7W+NxYk91u2K4QSlYyU3FfZMBMGA1UdJQQMMAoGCCsGAQUFBwMB
MAsGA1UdDwQEAwIFoDAZBgNVHREEEjAQgg50ZWFtMzE1LXNlcnZlcjANBgkqhkiG
9w0BAQsFAAOCAQEA0ZjoqpaFZhwEZaWGpsIaYGwu5YPisaMzVN3l6uIXdnd/lXwF
p910d97ZP282iAZXkqjgBod4DrsmfL+p8cZe6ZgdSGnodDJIQ9S5BsCHgkXC20q3
6l0i8tmAqbRgE6b+HAyyJ3D0EJfd0rRSL1JLWVBwbMA8KoiXgIn1xxjUIejSWtpX
5XMNoI9qCkhWEvHlrw6p4cSInUBorFFRpIpUxzzbNR1W38XeZd5yKI5QnpiwuTgS
fAc12Xjy36jznGUo+gXCNjTRy5npXvpejMI/c4aAE0aFq7LQc2bbrzTauEhzj1tU
/JDsyJSD1rah5bbFxRTAAfkRk0pdWToq7fqpSA==
-----END CERTIFICATE-----
