Certificate:
    Data:
        Version: 3 (0x2)
        Serial Number:
            5b:07:56:25:0a:f9:93:b4:16:5f:8f:6a:e6:90:3b:77
        Signature Algorithm: sha256WithRSAEncryption
        Issuer: CN=team61-net
        Validity
            Not Before: Nov  4 11:28:31 2023 GMT
            Not After : Oct 19 11:28:31 2026 GMT
        Subject: CN=team61-server
        Subject Public Key Info:
            Public Key Algorithm: rsaEncryption
                Public-Key: (2048 bit)
                Modulus:
                    00:d9:bb:a3:80:3c:5c:88:b8:13:6f:fa:26:c2:b0:
                    29:e2:29:92:79:8f:a8:f5:8d:7e:7f:d4:a8:b7:03:
                    62:b6:53:d5:8f:3d:f0:55:3a:8e:1f:57:37:2c:47:
                    13:50:71:08:20:45:63:2c:c4:8a:70:9a:8f:71:69:
                    7b:82:6f:c1:82:fe:27:88:2e:2f:6d:0d:e3:96:63:
                    d9:bc:d6:87:8a:35:7a:77:5b:3d:2c:af:59:3b:25:
                    ab:98:c7:8f:30:59:e6:a0:44:ac:1a:8c:6e:3c:0d:
                    64:36:9f:7f:ec:d0:03:3e:b5:6e:2b:91:b4:88:5b:
                    fb:80:03:32:5b:2e:f6:e3:cb:ee:03:da:4e:20:77:
                    02:ca:38:3e:d9:8c:65:16:9a:09:8c:97:bb:25:7b:
                    67:fe:6d:87:fd:3a:46:68:98:56:53:4e:bf:66:88:
                    a7:60:e0:d2:17:5a:56:ff:df:ec:cb:46:b4:97:75:
                    31:0a:a6:cf:50:81:e7:c3:c0:28:ba:1b:f9:3c:67:
                    e5:85:92:3b:38:a6:f0:cc:ae:3e:fc:aa:f2:c1:41:
                    ce:82:ac:43:5f:53:8b:1d:0e:87:11:e5:c2:da:8d:
                    c3:9c:05:66:9a:5f:e2:01:f6:9b:fa:4f:ab:95:5d:
                    57:56:2d:ae:23:16:d4:ee:42:be:36:d4:2d:74:ca:
                    b4:49
                Exponent: 65537 (0x10001)
        X509v3 extensions:
            X509v3 Basic Constraints: 
                CA:FALSE
            X509v3 Subject Key Identifier: 
                96:58:D3:A7:3D:3E:CE:63:3B:6E:13:5D:C5:B1:90:13:55:44:B5:21
            X509v3 Authority Key Identifier: 
                keyid:07:25:11:B9:A9:EA:00:D6:FB:D4:60:A3:66:30:28:01:A7:D3:77:B6
                DirName:/CN=team61-net
                serial:51:4D:2E:76:E4:8F:05:D8:63:A3:94:C2:73:78:42:F6:89:5A:02:C0
            X509v3 Extended Key Usage: 
                TLS Web Server Authentication
            X509v3 Key Usage: 
                Digital Signature, Key Encipherment
            X509v3 Subject Alternative Name: 
                DNS:team61-server
    Signature Algorithm: sha256WithRSAEncryption
    Signature Value:
        0c:28:88:75:57:e6:11:3c:e8:ee:44:f4:ac:2a:08:b7:f4:42:
        07:0b:53:1a:83:d9:18:0c:50:4c:68:c3:19:1b:c3:35:87:96:
        99:34:41:e0:88:bb:11:8c:5b:89:2f:9a:0d:7b:76:5a:06:d8:
        ca:87:3d:12:c7:f6:b4:53:e3:48:9e:c9:49:1e:4d:99:ff:22:
        66:7b:d8:a3:d2:e9:91:0a:59:cb:4e:18:69:97:20:82:ab:1e:
        71:75:cf:73:a5:b8:bf:18:18:0d:bf:40:c3:e4:73:b4:1f:da:
        eb:d5:cf:f4:99:9e:0e:a5:d5:73:bd:54:3a:f9:df:3d:ce:ac:
        ca:71:a2:56:2a:2e:19:85:4b:be:92:91:32:4e:04:46:fa:23:
        f9:de:cf:ec:cb:f9:90:b2:e8:fa:03:d9:08:8d:7d:4f:62:a5:
        96:a6:79:92:a9:a3:93:df:f0:1b:7d:20:8d:f7:f3:17:ce:ee:
        41:6e:48:85:3a:3e:fc:d3:a5:18:a4:16:aa:b8:af:7e:83:ce:
        aa:7f:2a:66:c4:3a:62:45:9a:57:6b:e3:45:1e:f4:59:dc:84:
        5d:74:bd:e7:73:56:bd:5f:c1:83:83:13:90:78:6e:58:97:ce:
        43:e8:1e:07:53:b8:df:f5:88:03:03:b4:96:6e:35:48:1e:fb:
        02:a1:e0:79
-----BEGIN CERTIFICATE-----
MIIDczCCAlugAwIBAgIQWwdWJQr5k7QWX49q5pA7dzANBgkqhkiG9w0BAQsFADAV
MRMwEQYDVQQDDAp0ZWFtNjEtbmV0MB4XDTIzMTEwNDExMjgzMVoXDTI2MTAxOTEx
MjgzMVowGDEWMBQGA1UEAwwNdGVhbTYxLXNlcnZlcjCCASIwDQYJKoZIhvcNAQEB
BQADggEPADCCAQoCggEBANm7o4A8XIi4E2/6JsKwKeIpknmPqPWNfn/UqLcDYrZT
1Y898FU6jh9XNyxHE1BxCCBFYyzEinCaj3Fpe4JvwYL+J4guL20N45Zj2bzWh4o1
endbPSyvWTslq5jHjzBZ5qBErBqMbjwNZDaff+zQAz61biuRtIhb+4ADMlsu9uPL
7gPaTiB3Aso4PtmMZRaaCYyXuyV7Z/5th/06RmiYVlNOv2aIp2Dg0hdaVv/f7MtG
tJd1MQqmz1CB58PAKLob+Txn5YWSOzim8MyuPvyq8sFBzoKsQ19Tix0OhxHlwtqN
w5wFZppf4gH2m/pPq5VdV1YtriMW1O5CvjbULXTKtEkCAwEAAaOBuzCBuDAJBgNV
HRMEAjAAMB0GA1UdDgQWBBSWWNOnPT7OYztuE13FsZATVUS1ITBQBgNVHSMESTBH
gBQHJRG5qeoA1vvUYKNmMCgBp9N3tqEZpBcwFTETMBEGA1UEAwwKdGVhbTYxLW5l
dIIUUU0uduSPBdhjo5TCc3hC9olaAsAwEwYDVR0lBAwwCgYIKwYBBQUHAwEwCwYD
VR0PBAQDAgWgMBgGA1UdEQQRMA+CDXRlYW02MS1zZXJ2ZXIwDQYJKoZIhvcNAQEL
BQADggEBAAwoiHVX5hE86O5E9KwqCLf0QgcLUxqD2RgMUExowxkbwzWHlpk0QeCI
uxGMW4kvmg17dloG2MqHPRLH9rRT40ieyUkeTZn/ImZ72KPS6ZEKWctOGGmXIIKr
HnF1z3OluL8YGA2/QMPkc7Qf2uvVz/SZng6l1XO9VDr53z3OrMpxolYqLhmFS76S
kTJOBEb6I/nez+zL+ZCy6PoD2QiNfU9ipZameZKpo5Pf8Bt9II338xfO7kFuSIU6
PvzTpRikFqq4r36Dzqp/KmbEOmJFmldr40Ue9FnchF10vedzVr1fwYODE5B4bliX
zkPoHgdTuN/1iAMDtJZuNUge+wKh4Hk=
-----END CERTIFICATE-----
