Certificate:
    Data:
        Version: 3 (0x2)
        Serial Number:
            f0:5d:64:af:b3:92:96:e6:63:da:e7:6d:83:c1:0f:ec
        Signature Algorithm: sha256WithRSAEncryption
        Issuer: CN=team61-net
        Validity
            Not Before: Nov  4 10:41:25 2023 GMT
            Not After : Oct 19 10:41:25 2026 GMT
        Subject: CN=team61-server
        Subject Public Key Info:
            Public Key Algorithm: rsaEncryption
                Public-Key: (2048 bit)
                Modulus:
                    00:a3:1a:f0:d3:00:37:df:08:a1:23:6a:33:72:b4:
                    2c:c2:51:58:6b:21:60:19:24:42:dd:6c:37:5c:e8:
                    27:21:a5:35:5a:63:1a:c5:4f:5b:e0:eb:b4:55:77:
                    08:72:ad:34:14:49:ed:40:b3:8a:71:9a:45:2f:c9:
                    2b:7c:07:ae:e2:33:46:e5:9a:85:d1:50:0c:63:53:
                    de:59:08:dc:63:ef:d9:50:41:0a:3a:6f:c2:9f:ef:
                    f5:24:7a:6e:c4:ad:3d:e6:24:1f:7d:b8:3b:82:74:
                    64:9d:aa:42:86:09:10:10:c8:ef:a5:fd:10:19:74:
                    98:db:91:de:61:26:90:f8:40:06:55:6c:93:ed:5e:
                    51:d2:a8:e8:3f:12:6c:1d:4f:b4:ea:f5:43:b9:d1:
                    26:09:fc:c6:d9:e0:30:89:8b:e2:d1:bf:cb:e8:16:
                    cf:c4:cd:0d:d4:b4:2f:69:8b:72:cb:6d:95:2b:9c:
                    92:c8:20:15:f7:36:ee:cc:55:15:a4:45:ec:5f:0b:
                    ad:43:72:fa:b9:73:9e:18:45:72:a1:5b:29:11:bb:
                    4d:12:ed:65:33:05:ed:71:64:c8:ae:de:6e:12:53:
                    21:0d:b9:cf:50:78:c8:3e:f6:49:d7:8c:36:b7:34:
                    0b:54:8c:9d:52:fd:8e:d6:1c:e6:e2:d1:bd:a0:5e:
                    05:29
                Exponent: 65537 (0x10001)
        X509v3 extensions:
            X509v3 Basic Constraints: 
                CA:FALSE
            X509v3 Subject Key Identifier: 
                F4:C5:52:79:30:33:28:A3:BA:A2:69:02:75:AB:3C:1C:65:D4:25:81
            X509v3 Authority Key Identifier: 
                keyid:58:05:9F:82:EE:84:47:CA:41:4D:4F:34:D3:F8:83:3D:E1:F9:F0:70
                DirName:/CN=team61-net
                serial:60:2A:26:0F:80:47:28:E8:44:04:5C:02:2E:08:77:03:C9:6E:1D:11
            X509v3 Extended Key Usage: 
                TLS Web Server Authentication
            X509v3 Key Usage: 
                Digital Signature, Key Encipherment
            X509v3 Subject Alternative Name: 
                DNS:team61-server
    Signature Algorithm: sha256WithRSAEncryption
    Signature Value:
        a0:82:9c:bb:24:04:7c:db:ce:85:c5:4b:52:42:67:30:64:f6:
        05:c0:b4:6c:8b:d7:57:b3:22:8d:e6:01:06:d8:86:d8:c1:c0:
        46:23:d4:7c:d9:3e:fe:16:8e:c3:7b:f7:97:dc:d6:88:32:41:
        a2:c7:7e:6f:f3:51:f1:a1:4b:bf:ec:28:67:f8:5b:80:fa:7a:
        03:27:6c:3f:1d:b6:97:4b:5b:3a:f0:30:0b:23:55:87:3f:39:
        c8:c8:b4:31:8d:7f:32:6e:68:f4:d5:52:8c:33:2a:c5:78:a4:
        4f:30:06:87:23:64:aa:bc:80:17:10:16:b7:9a:99:a1:77:1e:
        dd:9f:3a:30:7c:fd:4a:d4:53:10:88:50:8d:b1:bf:ef:b9:ed:
        54:b7:99:9c:34:20:37:85:51:4f:85:85:cc:38:a7:dc:6e:4e:
        fb:a4:b5:56:65:87:84:10:f4:fb:4c:9e:87:f1:b9:b9:56:a0:
        c1:bb:7d:65:74:bf:3f:13:10:97:01:a6:90:d9:38:20:4d:75:
        e7:62:bb:59:47:5a:5f:ec:cd:ed:dc:d2:9e:81:f8:2c:42:5c:
        39:58:38:ad:37:8c:94:fa:33:aa:15:f8:e7:8a:ec:95:fc:f4:
        9d:16:3e:74:a8:96:93:bd:a6:bf:de:50:b8:88:68:f2:90:8f:
        19:73:71:3f
-----BEGIN CERTIFICATE-----
MIIDdDCCAlygAwIBAgIRAPBdZK+zkpbmY9rnbYPBD+wwDQYJKoZIhvcNAQELBQAw
FTETMBEGA1UEAwwKdGVhbTYxLW5ldDAeFw0yMzExMDQxMDQxMjVaFw0yNjEwMTkx
MDQxMjVaMBgxFjAUBgNVBAMMDXRlYW02MS1zZXJ2ZXIwggEiMA0GCSqGSIb3DQEB
AQUAA4IBDwAwggEKAoIBAQCjGvDTADffCKEjajNytCzCUVhrIWAZJELdbDdc6Cch
pTVaYxrFT1vg67RVdwhyrTQUSe1As4pxmkUvySt8B67iM0blmoXRUAxjU95ZCNxj
79lQQQo6b8Kf7/Ukem7ErT3mJB99uDuCdGSdqkKGCRAQyO+l/RAZdJjbkd5hJpD4
QAZVbJPtXlHSqOg/EmwdT7Tq9UO50SYJ/MbZ4DCJi+LRv8voFs/EzQ3UtC9pi3LL
bZUrnJLIIBX3Nu7MVRWkRexfC61Dcvq5c54YRXKhWykRu00S7WUzBe1xZMiu3m4S
UyENuc9QeMg+9knXjDa3NAtUjJ1S/Y7WHObi0b2gXgUpAgMBAAGjgbswgbgwCQYD
VR0TBAIwADAdBgNVHQ4EFgQU9MVSeTAzKKO6omkCdas8HGXUJYEwUAYDVR0jBEkw
R4AUWAWfgu6ER8pBTU800/iDPeH58HChGaQXMBUxEzARBgNVBAMMCnRlYW02MS1u
ZXSCFGAqJg+ARyjoRARcAi4IdwPJbh0RMBMGA1UdJQQMMAoGCCsGAQUFBwMBMAsG
A1UdDwQEAwIFoDAYBgNVHREEETAPgg10ZWFtNjEtc2VydmVyMA0GCSqGSIb3DQEB
CwUAA4IBAQCggpy7JAR8286FxUtSQmcwZPYFwLRsi9dXsyKN5gEG2IbYwcBGI9R8
2T7+Fo7De/eX3NaIMkGix35v81HxoUu/7Chn+FuA+noDJ2w/HbaXS1s68DALI1WH
PznIyLQxjX8ybmj01VKMMyrFeKRPMAaHI2SqvIAXEBa3mpmhdx7dnzowfP1K1FMQ
iFCNsb/vue1Ut5mcNCA3hVFPhYXMOKfcbk77pLVWZYeEEPT7TJ6H8bm5VqDBu31l
dL8/ExCXAaaQ2TggTXXnYrtZR1pf7M3t3NKegfgsQlw5WDitN4yU+jOqFfjniuyV
/PSdFj50qJaTvaa/3lC4iGjykI8Zc3E/
-----END CERTIFICATE-----
