Certificate:
    Data:
        Version: 3 (0x2)
        Serial Number:
            fd:40:ad:c9:06:3b:0b:01:f5:a2:ab:d6:fc:e8:f5:78
        Signature Algorithm: sha256WithRSAEncryption
        Issuer: CN=team61-net
        Validity
            Not Before: Nov  4 11:28:31 2023 GMT
            Not After : Oct 19 11:28:31 2026 GMT
        Subject: CN=team61-client
        Subject Public Key Info:
            Public Key Algorithm: rsaEncryption
                Public-Key: (2048 bit)
                Modulus:
                    00:af:e0:e8:28:ff:e7:0b:34:7b:0b:16:41:05:94:
                    f2:0d:d9:fd:59:76:b0:94:c8:d5:5f:fa:43:02:07:
                    94:9e:37:3d:fb:a8:34:64:29:41:08:f1:6f:23:e9:
                    fe:a2:ad:f7:4a:d7:8c:b6:db:8b:6e:96:3d:fc:55:
                    8c:4a:1d:ef:c6:3e:6c:63:69:5e:42:28:a4:58:34:
                    db:8d:40:a7:d9:49:49:bc:ac:c2:69:9e:62:24:26:
                    f4:6b:c0:9e:d9:c2:08:d5:6b:93:03:f9:57:1e:a7:
                    72:f0:14:b9:97:eb:7c:9a:c3:d3:bb:94:72:85:46:
                    ba:38:a4:91:91:0f:39:2a:c4:ae:f0:99:28:f9:d4:
                    6a:7b:e8:63:16:16:3b:85:20:ca:11:bd:38:81:da:
                    73:df:44:5e:cd:eb:c4:f4:69:9c:fd:3a:9b:79:6f:
                    4e:a9:fd:95:b3:76:a4:58:0d:ba:e7:98:10:4f:cf:
                    3a:40:f5:e5:f2:41:e2:e7:4f:63:2d:64:83:a8:a7:
                    f4:5b:0a:6a:ae:be:c1:ab:e2:c0:7a:68:50:f8:26:
                    67:69:44:1b:05:2e:75:3d:f5:96:c6:be:7d:9a:f1:
                    98:9a:5e:7d:e2:e4:c7:80:f8:0f:e1:9c:d7:03:f2:
                    fe:db:a7:b4:45:86:44:6c:ee:f8:7f:00:c6:75:b6:
                    32:51
                Exponent: 65537 (0x10001)
        X509v3 extensions:
            X509v3 Basic Constraints: 
                CA:FALSE
            X509v3 Subject Key Identifier: 
                70:B1:47:8C:B0:68:10:3E:7A:52:C4:73:F8:C0:8A:E2:AB:A7:8B:C2
            X509v3 Authority Key Identifier: 
                keyid:07:25:11:B9:A9:EA:00:D6:FB:D4:60:A3:66:30:28:01:A7:D3:77:B6
                DirName:/CN=team61-net
                serial:51:4D:2E:76:E4:8F:05:D8:63:A3:94:C2:73:78:42:F6:89:5A:02:C0
            X509v3 Extended Key Usage: 
                TLS Web Client Authentication
            X509v3 Key Usage: 
                Digital Signature
    Signature Algorithm: sha256WithRSAEncryption
    Signature Value:
        97:61:53:6d:51:a9:61:76:f0:af:c6:04:e2:a0:2b:d1:13:97:
        8b:64:46:de:a8:35:ca:32:ab:b1:59:c9:78:a2:c1:f2:b4:18:
        e5:63:90:10:a4:78:35:60:09:8d:20:82:d7:19:73:5a:1a:17:
        af:18:92:89:5e:5e:49:82:6f:66:8c:5f:ec:be:90:7e:4b:ba:
        4b:1c:8d:21:68:8f:1c:d6:4f:cd:e9:ad:b5:93:e2:ac:18:17:
        6e:ac:14:00:e3:e9:7c:70:50:33:2f:06:72:08:a0:69:db:3c:
        9f:33:fc:d1:b5:1f:11:da:0b:41:ac:ed:46:e8:eb:82:4f:8b:
        f6:4b:3c:31:c0:5c:df:bf:71:a5:7b:a1:8b:d2:fa:45:88:2a:
        be:90:8a:17:72:5f:ca:3b:a0:cf:73:47:1d:2d:ea:42:f8:fc:
        9e:f4:ea:26:15:a6:39:9f:00:bb:79:4e:ca:1b:e3:ca:c1:5f:
        84:58:42:71:89:89:62:e8:e6:17:6c:01:9c:8b:88:4e:7e:a0:
        49:4c:a9:4e:5b:1d:d5:6a:9f:a4:93:67:8b:97:46:83:4e:85:
        c0:db:a3:a8:19:ff:a0:4f:76:a1:cb:4b:0f:d3:f8:14:c9:9a:
        1a:74:67:c1:0f:b5:8e:dc:23:aa:cd:60:9d:94:1e:a9:9e:f4:
        87:7c:a7:f8
-----BEGIN CERTIFICATE-----
MIIDWjCCAkKgAwIBAgIRAP1ArckGOwsB9aKr1vzo9XgwDQYJKoZIhvcNAQELBQAw
FTETMBEGA1UEAwwKdGVhbTYxLW5ldDAeFw0yMzExMDQxMTI4MzFaFw0yNjEwMTkx
MTI4MzFaMBgxFjAUBgNVBAMMDXRlYW02MS1jbGllbnQwggEiMA0GCSqGSIb3DQEB
AQUAA4IBDwAwggEKAoIBAQCv4Ogo/+cLNHsLFkEFlPIN2f1ZdrCUyNVf+kMCB5Se
Nz37qDRkKUEI8W8j6f6irfdK14y224tulj38VYxKHe/GPmxjaV5CKKRYNNuNQKfZ
SUm8rMJpnmIkJvRrwJ7ZwgjVa5MD+Vcep3LwFLmX63yaw9O7lHKFRro4pJGRDzkq
xK7wmSj51Gp76GMWFjuFIMoRvTiB2nPfRF7N68T0aZz9Opt5b06p/ZWzdqRYDbrn
mBBPzzpA9eXyQeLnT2MtZIOop/RbCmquvsGr4sB6aFD4JmdpRBsFLnU99ZbGvn2a
8ZiaXn3i5MeA+A/hnNcD8v7bp7RFhkRs7vh/AMZ1tjJRAgMBAAGjgaEwgZ4wCQYD
VR0TBAIwADAdBgNVHQ4EFgQUcLFHjLBoED56UsRz+MCK4quni8IwUAYDVR0jBEkw
R4AUByURuanqANb71GCjZjAoAafTd7ahGaQXMBUxEzARBgNVBAMMCnRlYW02MS1u
ZXSCFFFNLnbkjwXYY6OUwnN4QvaJWgLAMBMGA1UdJQQMMAoGCCsGAQUFBwMCMAsG
A1UdDwQEAwIHgDANBgkqhkiG9w0BAQsFAAOCAQEAl2FTbVGpYXbwr8YE4qAr0ROX
i2RG3qg1yjKrsVnJeKLB8rQY5WOQEKR4NWAJjSCC1xlzWhoXrxiSiV5eSYJvZoxf
7L6Qfku6SxyNIWiPHNZPzemttZPirBgXbqwUAOPpfHBQMy8Gcgigads8nzP80bUf
EdoLQaztRujrgk+L9ks8McBc379xpXuhi9L6RYgqvpCKF3Jfyjugz3NHHS3qQvj8
nvTqJhWmOZ8Au3lOyhvjysFfhFhCcYmJYujmF2wBnIuITn6gSUypTlsd1WqfpJNn
i5dGg06FwNujqBn/oE92octLD9P4FMmaGnRnwQ+1jtwjqs1gnZQeqZ70h3yn+A==
-----END CERTIFICATE-----
