Certificate:
    Data:
        Version: 3 (0x2)
        Serial Number:
            2f:42:56:15:a1:54:68:94:cd:ad:2f:72:f7:ef:75:6f
        Signature Algorithm: sha256WithRSAEncryption
        Issuer: CN=team21-net
        Validity
            Not Before: Nov  3 20:39:38 2023 GMT
            Not After : Oct 18 20:39:38 2026 GMT
        Subject: CN=team21-server
        Subject Public Key Info:
            Public Key Algorithm: rsaEncryption
                Public-Key: (2048 bit)
                Modulus:
                    00:89:0d:d1:fc:c5:60:12:93:61:58:2a:df:25:35:
                    9a:3a:e9:a4:8d:e0:18:b2:da:fe:a3:9e:f4:56:cb:
                    1f:7a:62:7f:67:9d:a3:88:b8:ff:a0:82:ea:94:a1:
                    cd:85:23:46:e3:ac:90:30:16:59:9d:2e:8a:f0:56:
                    cd:5b:24:1f:8e:67:8b:7b:de:76:fe:25:84:89:61:
                    66:6a:27:25:f6:21:64:80:ba:a4:b4:f2:53:1a:91:
                    f0:13:ee:b1:95:8a:41:37:db:7f:79:c3:50:1b:72:
                    2b:0d:79:b6:b3:f8:29:52:03:0d:0e:32:fd:a4:5b:
                    2c:4a:96:63:ef:11:b0:42:57:3b:e6:60:58:6d:98:
                    81:41:19:6c:1a:e5:cf:fa:e2:3c:d5:67:20:c8:91:
                    73:ee:d3:7d:31:17:72:d8:4e:b8:0f:bc:9e:84:07:
                    3d:2d:34:72:c7:af:4e:9d:a4:d0:2c:15:ee:fb:54:
                    1e:7a:30:63:d2:33:55:00:35:c5:cf:d5:bf:12:08:
                    b9:0b:60:ca:80:83:ee:cb:b1:1e:e5:57:07:1d:f1:
                    6e:6f:80:35:24:37:af:da:58:dd:d2:b6:98:a5:b7:
                    e0:25:9b:24:9a:89:b8:cb:ae:f8:43:4b:87:2a:36:
                    7b:65:12:da:3d:f3:a9:da:22:bd:41:58:f3:76:7f:
                    3b:8b
                Exponent: 65537 (0x10001)
        X509v3 extensions:
            X509v3 Basic Constraints: 
                CA:FALSE
            X509v3 Subject Key Identifier: 
                A3:C5:EF:CA:87:9C:FE:9E:CE:8A:FE:4F:0A:FD:A5:35:2E:64:7B:EC
            X509v3 Authority Key Identifier: 
                keyid:30:08:7E:8A:75:59:DF:CC:41:F4:DA:C3:6A:B0:5A:36:26:E3:35:25
                DirName:/CN=team21-net
                serial:50:46:7D:12:0B:D8:54:50:4F:B0:13:9E:2B:3F:5E:71:F8:FE:CD:67
            X509v3 Extended Key Usage: 
                TLS Web Server Authentication
            X509v3 Key Usage: 
                Digital Signature, Key Encipherment
            X509v3 Subject Alternative Name: 
                DNS:team21-server
    Signature Algorithm: sha256WithRSAEncryption
    Signature Value:
        0e:73:a8:e7:3c:62:e8:f4:ed:02:8f:15:b2:2a:18:03:2d:2d:
        90:77:22:05:44:79:e4:89:39:16:8d:c8:4b:65:18:f4:4c:08:
        79:6c:1e:88:81:98:79:11:2a:e4:fb:d8:e6:c1:74:fa:05:b2:
        88:9a:d6:83:41:7a:58:94:f6:1b:b5:bb:f7:0c:da:6d:5b:6c:
        21:5d:41:18:63:5b:dd:67:17:27:9c:7a:67:8a:44:e2:d7:49:
        7d:9a:75:41:7a:e3:ab:7c:dc:c6:bd:fd:e3:cf:8a:bc:5b:fa:
        ac:70:83:3b:7a:e2:8f:a6:05:7e:03:a9:89:84:14:5e:40:1f:
        d1:a5:54:07:cb:a0:4a:7d:1d:13:ca:8f:14:c3:5a:35:1e:33:
        4c:e1:31:12:a8:3f:86:bf:93:db:cc:18:82:e2:dc:74:f2:ff:
        ca:6d:69:5e:c3:59:b3:50:cc:b4:a3:7b:c0:c3:b9:2f:63:be:
        8b:57:05:ea:8c:b3:e7:88:2d:b6:ce:e8:d4:15:4f:7c:b8:6a:
        7e:3b:4e:04:b7:7d:77:6a:9a:7f:23:c7:14:86:9d:07:24:0e:
        8c:4e:16:9b:40:8b:8d:65:2a:6e:00:d7:89:ac:c5:6f:50:f1:
        cb:5d:6e:94:4d:3b:19:7a:92:2e:d0:a3:1a:da:1b:72:4c:66:
        9e:4c:bb:91
-----BEGIN CERTIFICATE-----
MIIDczCCAlugAwIBAgIQL0JWFaFUaJTNrS9y9+91bzANBgkqhkiG9w0BAQsFADAV
MRMwEQYDVQQDDAp0ZWFtMjEtbmV0MB4XDTIzMTEwMzIwMzkzOFoXDTI2MTAxODIw
MzkzOFowGDEWMBQGA1UEAwwNdGVhbTIxLXNlcnZlcjCCASIwDQYJKoZIhvcNAQEB
BQADggEPADCCAQoCggEBAIkN0fzFYBKTYVgq3yU1mjrppI3gGLLa/qOe9FbLH3pi
f2edo4i4/6CC6pShzYUjRuOskDAWWZ0uivBWzVskH45ni3vedv4lhIlhZmonJfYh
ZIC6pLTyUxqR8BPusZWKQTfbf3nDUBtyKw15trP4KVIDDQ4y/aRbLEqWY+8RsEJX
O+ZgWG2YgUEZbBrlz/riPNVnIMiRc+7TfTEXcthOuA+8noQHPS00csevTp2k0CwV
7vtUHnowY9IzVQA1xc/VvxIIuQtgyoCD7suxHuVXBx3xbm+ANSQ3r9pY3dK2mKW3
4CWbJJqJuMuu+ENLhyo2e2US2j3zqdoivUFY83Z/O4sCAwEAAaOBuzCBuDAJBgNV
HRMEAjAAMB0GA1UdDgQWBBSjxe/Kh5z+ns6K/k8K/aU1LmR77DBQBgNVHSMESTBH
gBQwCH6KdVnfzEH02sNqsFo2JuM1JaEZpBcwFTETMBEGA1UEAwwKdGVhbTIxLW5l
dIIUUEZ9EgvYVFBPsBOeKz9ecfj+zWcwEwYDVR0lBAwwCgYIKwYBBQUHAwEwCwYD
VR0PBAQDAgWgMBgGA1UdEQQRMA+CDXRlYW0yMS1zZXJ2ZXIwDQYJKoZIhvcNAQEL
BQADggEBAA5zqOc8Yuj07QKPFbIqGAMtLZB3IgVEeeSJORaNyEtlGPRMCHlsHoiB
mHkRKuT72ObBdPoFsoia1oNBeliU9hu1u/cM2m1bbCFdQRhjW91nFyecemeKROLX
SX2adUF646t83Ma9/ePPirxb+qxwgzt64o+mBX4DqYmEFF5AH9GlVAfLoEp9HRPK
jxTDWjUeM0zhMRKoP4a/k9vMGILi3HTy/8ptaV7DWbNQzLSje8DDuS9jvotXBeqM
s+eILbbO6NQVT3y4an47TgS3fXdqmn8jxxSGnQckDoxOFptAi41lKm4A14msxW9Q
8ctdbpRNOxl6ki7QoxraG3JMZp5Mu5E=
-----END CERTIFICATE-----
