Certificate:
    Data:
        Version: 3 (0x2)
        Serial Number:
            93:27:9f:31:ab:8e:0c:42:68:46:a5:54:18:fe:52:83
        Signature Algorithm: sha256WithRSAEncryption
        Issuer: CN=team157-net
        Validity
            Not Before: Nov  3 20:42:03 2023 GMT
            Not After : Oct 18 20:42:03 2026 GMT
        Subject: CN=team157-server
        Subject Public Key Info:
            Public Key Algorithm: rsaEncryption
                Public-Key: (2048 bit)
                Modulus:
                    00:be:2f:47:3c:d3:ef:27:91:a9:44:20:cc:8d:dd:
                    5e:ef:85:55:4d:64:43:c7:1e:c2:66:d3:52:87:8a:
                    d5:3d:66:db:6e:a3:48:17:ab:b1:9e:4d:22:27:e5:
                    6b:27:34:86:96:6b:7b:25:02:5f:6d:55:01:39:87:
                    7b:b4:d2:e7:70:bc:45:11:72:34:dc:99:e2:e0:e6:
                    5f:2b:43:4a:26:41:31:1d:9c:2c:4e:89:d0:86:e2:
                    f6:4e:39:a7:0a:e0:ab:e9:5f:56:d6:b3:d7:43:1a:
                    6e:1a:35:3f:6f:b6:51:0e:e0:08:6d:49:a1:9c:f4:
                    5c:46:61:21:82:de:cc:1e:eb:74:dd:ba:53:8b:b9:
                    e8:cf:2b:9e:bf:85:e4:82:6f:50:da:72:fc:31:d7:
                    bb:f5:02:c5:be:53:2b:f5:fb:fb:92:78:88:85:f2:
                    93:7d:76:19:62:55:5f:c2:28:bc:c9:a3:47:bc:d0:
                    74:c5:54:36:57:6f:0f:d0:4a:d9:09:2d:a4:4d:3b:
                    f0:26:aa:5c:7c:46:59:66:aa:4b:64:28:99:ff:77:
                    9f:56:d9:91:e7:65:13:e2:d3:ac:f1:eb:27:17:c4:
                    81:cb:f8:de:c9:64:7f:86:12:1e:a9:a8:15:ac:40:
                    5a:89:61:ab:d4:4c:fc:fb:a6:ca:8e:97:15:8d:81:
                    9e:73
                Exponent: 65537 (0x10001)
        X509v3 extensions:
            X509v3 Basic Constraints: 
                CA:FALSE
            X509v3 Subject Key Identifier: 
                07:E8:AC:23:B8:EA:DF:77:09:5D:0A:27:12:4E:CC:39:B6:43:ED:EC
            X509v3 Authority Key Identifier: 
                keyid:9F:F1:78:4F:10:21:BB:55:14:C1:AC:23:67:78:1B:B8:6E:B5:1B:07
                DirName:/CN=team157-net
                serial:21:BF:97:02:72:F0:FD:6E:CC:67:A2:C4:68:AA:A0:F6:CA:FC:DD:E2
            X509v3 Extended Key Usage: 
                TLS Web Server Authentication
            X509v3 Key Usage: 
                Digital Signature, Key Encipherment
            X509v3 Subject Alternative Name: 
                DNS:team157-server
    Signature Algorithm: sha256WithRSAEncryption
    Signature Value:
        bc:90:8e:d1:69:98:65:e4:b1:9d:71:70:fd:b7:c6:c5:53:d7:
        4a:85:c0:de:ec:1d:1f:0c:2f:07:45:e1:92:e8:91:8e:91:b1:
        52:26:ed:c0:7a:02:63:6b:c4:6e:9d:68:8b:a1:38:b1:c4:0f:
        7f:5e:40:d0:12:c4:f9:74:8f:93:7c:0d:be:10:d9:df:bc:b1:
        d4:e1:71:65:14:0f:7e:46:a0:26:a4:e6:64:dc:36:df:e5:a7:
        53:f0:ad:a9:2c:f9:77:41:d4:e4:ab:36:a9:e1:b7:55:69:49:
        58:49:34:e6:09:cb:d6:bc:34:4b:90:a6:7f:66:78:a0:b6:48:
        38:50:c7:72:a5:62:85:a3:09:0b:cf:fd:9d:d3:a7:6b:36:ee:
        3c:d5:ce:ca:76:a2:4f:c3:a8:74:87:97:ee:da:1e:75:a1:fd:
        3f:ae:e2:3a:72:d7:4d:e4:fc:6b:f5:e0:de:6c:e2:53:a3:4f:
        53:5f:27:fb:83:56:9b:e2:3a:e6:d7:9e:bb:73:4d:52:29:de:
        f4:fd:40:db:94:7c:68:0b:55:58:ec:fb:4b:2d:e8:cf:bd:68:
        49:65:28:c4:9f:ec:61:c6:6f:62:c6:19:b8:56:a5:b5:64:fd:
        eb:dd:fd:c2:a0:ba:6d:84:d8:25:c4:1d:af:bd:71:13:bf:fe:
        dd:64:84:cb
-----BEGIN CERTIFICATE-----
MIIDeDCCAmCgAwIBAgIRAJMnnzGrjgxCaEalVBj+UoMwDQYJKoZIhvcNAQELBQAw
FjEUMBIGA1UEAwwLdGVhbTE1Ny1uZXQwHhcNMjMxMTAzMjA0MjAzWhcNMjYxMDE4
MjA0MjAzWjAZMRcwFQYDVQQDDA50ZWFtMTU3LXNlcnZlcjCCASIwDQYJKoZIhvcN
AQEBBQADggEPADCCAQoCggEBAL4vRzzT7yeRqUQgzI3dXu+FVU1kQ8cewmbTUoeK
1T1m226jSBersZ5NIiflayc0hpZreyUCX21VATmHe7TS53C8RRFyNNyZ4uDmXytD
SiZBMR2cLE6J0Ibi9k45pwrgq+lfVtaz10Mabho1P2+2UQ7gCG1JoZz0XEZhIYLe
zB7rdN26U4u56M8rnr+F5IJvUNpy/DHXu/UCxb5TK/X7+5J4iIXyk312GWJVX8Io
vMmjR7zQdMVUNldvD9BK2QktpE078CaqXHxGWWaqS2Qomf93n1bZkedlE+LTrPHr
JxfEgcv43slkf4YSHqmoFaxAWolhq9RM/Pumyo6XFY2BnnMCAwEAAaOBvTCBujAJ
BgNVHRMEAjAAMB0GA1UdDgQWBBQH6KwjuOrfdwldCicSTsw5tkPt7DBRBgNVHSME
SjBIgBSf8XhPECG7VRTBrCNneBu4brUbB6EapBgwFjEUMBIGA1UEAwwLdGVhbTE1
Ny1uZXSCFCG/lwJy8P1uzGeixGiqoPbK/N3iMBMGA1UdJQQMMAoGCCsGAQUFBwMB
MAsGA1UdDwQEAwIFoDAZBgNVHREEEjAQgg50ZWFtMTU3LXNlcnZlcjANBgkqhkiG
9w0BAQsFAAOCAQEAvJCO0WmYZeSxnXFw/bfGxVPXSoXA3uwdHwwvB0XhkuiRjpGx
UibtwHoCY2vEbp1oi6E4scQPf15A0BLE+XSPk3wNvhDZ37yx1OFxZRQPfkagJqTm
ZNw23+WnU/CtqSz5d0HU5Ks2qeG3VWlJWEk05gnL1rw0S5Cmf2Z4oLZIOFDHcqVi
haMJC8/9ndOnazbuPNXOynaiT8OodIeX7toedaH9P67iOnLXTeT8a/Xg3mziU6NP
U18n+4NWm+I65teeu3NNUine9P1A25R8aAtVWOz7Sy3oz71oSWUoxJ/sYcZvYsYZ
uFaltWT96939wqC6bYTYJcQdr71xE7/+3WSEyw==
-----END CERTIFICATE-----
