Certificate:
    Data:
        Version: 3 (0x2)
        Serial Number:
            e2:bf:b4:a1:13:20:8b:aa:fc:2b:25:71:a5:84:7a:0a
        Signature Algorithm: sha256WithRSAEncryption
        Issuer: CN=team498-net
        Validity
            Not Before: Nov  4 10:49:26 2023 GMT
            Not After : Oct 19 10:49:26 2026 GMT
        Subject: CN=team498-client
        Subject Public Key Info:
            Public Key Algorithm: rsaEncryption
                Public-Key: (2048 bit)
                Modulus:
                    00:a4:34:9a:d4:6b:a2:65:99:53:cd:31:bf:ff:a3:
                    b1:27:30:9b:48:44:9e:cd:9b:f4:59:5e:b7:e1:54:
                    fa:4b:a5:fa:56:14:94:a5:4c:a6:a4:87:de:c6:d1:
                    67:27:b6:44:8f:15:87:0b:b1:ef:4b:d4:00:45:85:
                    9b:bd:c4:73:30:3e:05:4f:71:ad:89:20:95:f5:7c:
                    e4:6e:34:e6:ab:1e:ce:28:d4:30:83:5c:44:f8:26:
                    42:a0:63:f8:69:b1:1e:96:b7:43:6d:e5:45:7d:06:
                    01:06:08:5a:1a:04:c3:9a:2b:d5:45:7d:8b:15:95:
                    a0:1c:c6:87:63:14:30:c0:ec:e6:1e:66:9d:44:42:
                    a8:2c:ff:44:3f:82:5a:6c:7c:14:87:d7:18:4d:cf:
                    98:28:fa:0e:e9:45:d8:2d:94:fd:49:68:f2:b3:c9:
                    07:40:07:31:57:4e:22:18:47:31:8f:13:ce:8b:2d:
                    7a:62:a9:75:ed:cf:a6:c4:e2:26:a8:66:1b:da:6d:
                    d5:61:34:13:ea:aa:5d:ff:d4:59:11:69:17:3f:09:
                    52:5a:f6:9e:a7:e2:33:9c:dc:a5:b2:3b:92:b8:5d:
                    c3:63:75:ca:fe:15:34:6f:72:30:c5:6e:04:0e:f0:
                    e4:ba:05:a8:b2:2c:2c:58:c2:e7:47:b3:aa:b6:00:
                    84:ff
                Exponent: 65537 (0x10001)
        X509v3 extensions:
            X509v3 Basic Constraints: 
                CA:FALSE
            X509v3 Subject Key Identifier: 
                1B:1A:90:8D:62:82:72:E7:9B:8B:74:8A:D7:12:79:17:FE:16:71:57
            X509v3 Authority Key Identifier: 
                keyid:7A:BA:BB:08:32:79:52:B9:DD:2B:C0:8D:A1:2B:38:EF:52:5E:93:70
                DirName:/CN=team498-net
                serial:07:6C:DE:DB:59:B6:DE:7E:77:4E:40:B8:B8:3D:1C:1B:33:07:7C:6A
            X509v3 Extended Key Usage: 
                TLS Web Client Authentication
            X509v3 Key Usage: 
                Digital Signature
    Signature Algorithm: sha256WithRSAEncryption
    Signature Value:
        61:0c:e2:6e:ef:08:2a:89:5a:b4:ee:6c:41:7e:90:e4:f5:49:
        f2:81:1d:ba:59:53:0d:ec:11:a8:95:70:4b:df:6c:81:b7:f2:
        be:40:5a:d9:c9:27:e8:9f:94:2e:71:eb:03:bb:bf:15:2c:19:
        78:c3:54:7c:6f:6b:6e:fa:8b:9f:2b:f1:fa:5f:a3:47:23:42:
        2c:f6:1f:78:47:4f:95:df:e6:22:85:57:65:56:75:57:64:f7:
        5e:b2:49:13:2c:aa:f6:4d:37:5a:d0:69:77:3d:22:03:7e:cb:
        01:c5:64:5a:fb:b3:8d:6f:23:b8:fe:54:89:56:ed:ab:62:2e:
        86:00:40:26:1d:88:be:be:dc:be:1e:8d:5c:6e:21:f4:7e:1f:
        4f:4d:3d:55:9a:48:58:b9:cf:b3:6c:23:b7:60:bf:2d:f9:78:
        22:14:f7:f3:57:94:b4:ca:06:1d:cc:c7:b0:00:53:bd:07:3f:
        36:99:66:ef:37:2c:44:81:11:3a:df:a7:a3:40:45:c6:ea:f0:
        1c:01:aa:de:33:0b:fb:9a:09:4f:46:67:ed:69:79:6b:79:9b:
        1a:16:18:45:65:68:e3:de:fa:6f:6e:fe:2f:c1:8a:37:11:a5:
        e7:8a:3f:e4:05:63:09:f5:25:8c:59:45:eb:c0:a9:d9:9e:07:
        2c:cc:94:29
-----BEGIN CERTIFICATE-----
MIIDXTCCAkWgAwIBAgIRAOK/tKETIIuq/CslcaWEegowDQYJKoZIhvcNAQELBQAw
FjEUMBIGA1UEAwwLdGVhbTQ5OC1uZXQwHhcNMjMxMTA0MTA0OTI2WhcNMjYxMDE5
MTA0OTI2WjAZMRcwFQYDVQQDDA50ZWFtNDk4LWNsaWVudDCCASIwDQYJKoZIhvcN
AQEBBQADggEPADCCAQoCggEBAKQ0mtRromWZU80xv/+jsScwm0hEns2b9Flet+FU
+kul+lYUlKVMpqSH3sbRZye2RI8Vhwux70vUAEWFm73EczA+BU9xrYkglfV85G40
5qsezijUMINcRPgmQqBj+GmxHpa3Q23lRX0GAQYIWhoEw5or1UV9ixWVoBzGh2MU
MMDs5h5mnURCqCz/RD+CWmx8FIfXGE3PmCj6DulF2C2U/Ulo8rPJB0AHMVdOIhhH
MY8TzostemKpde3PpsTiJqhmG9pt1WE0E+qqXf/UWRFpFz8JUlr2nqfiM5zcpbI7
krhdw2N1yv4VNG9yMMVuBA7w5LoFqLIsLFjC50ezqrYAhP8CAwEAAaOBojCBnzAJ
BgNVHRMEAjAAMB0GA1UdDgQWBBQbGpCNYoJy55uLdIrXEnkX/hZxVzBRBgNVHSME
SjBIgBR6ursIMnlSud0rwI2hKzjvUl6TcKEapBgwFjEUMBIGA1UEAwwLdGVhbTQ5
OC1uZXSCFAds3ttZtt5+d05AuLg9HBszB3xqMBMGA1UdJQQMMAoGCCsGAQUFBwMC
MAsGA1UdDwQEAwIHgDANBgkqhkiG9w0BAQsFAAOCAQEAYQzibu8IKolatO5sQX6Q
5PVJ8oEdullTDewRqJVwS99sgbfyvkBa2ckn6J+ULnHrA7u/FSwZeMNUfG9rbvqL
nyvx+l+jRyNCLPYfeEdPld/mIoVXZVZ1V2T3XrJJEyyq9k03WtBpdz0iA37LAcVk
WvuzjW8juP5UiVbtq2IuhgBAJh2Ivr7cvh6NXG4h9H4fT009VZpIWLnPs2wjt2C/
Lfl4IhT381eUtMoGHczHsABTvQc/Nplm7zcsRIEROt+no0BFxurwHAGq3jML+5oJ
T0Zn7Wl5a3mbGhYYRWVo4976b27+L8GKNxGl54o/5AVjCfUljFlF68Cp2Z4HLMyU
KQ==
-----END CERTIFICATE-----
