Certificate:
    Data:
        Version: 3 (0x2)
        Serial Number:
            d9:dd:d6:51:f0:bd:d7:41:55:e9:d7:2a:8a:78:3a:70
        Signature Algorithm: sha256WithRSAEncryption
        Issuer: CN=team86-net
        Validity
            Not Before: Nov  3 20:40:41 2023 GMT
            Not After : Oct 18 20:40:41 2026 GMT
        Subject: CN=team86-client
        Subject Public Key Info:
            Public Key Algorithm: rsaEncryption
                Public-Key: (2048 bit)
                Modulus:
                    00:e2:56:38:99:05:d0:a3:e3:5d:9b:dd:15:bf:02:
                    e0:13:e5:43:a2:5c:17:e8:ab:91:b2:90:8c:3b:83:
                    c8:e6:b6:60:76:8c:0b:4d:e0:a6:1f:f8:0f:33:f9:
                    da:d8:f6:18:f6:03:ba:c5:d5:0d:3c:e6:75:8d:50:
                    5f:d5:4e:7a:9f:f0:4c:59:58:81:bc:36:da:3c:dd:
                    5e:d1:2b:89:64:b0:7d:69:25:62:23:4c:42:fe:28:
                    77:19:3c:57:cd:98:bb:e2:95:8d:da:be:ff:f3:16:
                    af:8b:62:0a:cf:04:04:94:2d:a6:8f:a9:6e:78:23:
                    e6:9a:03:6d:3a:52:06:57:48:0c:f9:04:71:3e:3c:
                    a3:87:40:41:99:d6:26:25:1c:15:e3:5b:2d:d5:f8:
                    3a:1c:47:c6:9f:e1:9d:7e:73:75:cd:70:d8:7a:88:
                    e6:b2:b9:d0:d1:db:18:76:79:5b:f7:8e:98:9d:ff:
                    28:c5:6f:20:46:31:c1:36:c1:aa:db:10:42:65:a9:
                    98:5a:57:9b:b5:04:23:3c:94:23:77:df:d2:3e:fd:
                    dd:40:bb:1a:93:58:28:f2:00:c7:e5:54:2a:c5:71:
                    ae:60:5a:45:4e:f4:3f:ac:b3:fb:ec:43:fc:65:77:
                    28:dd:dc:37:d1:ed:77:1b:68:15:82:00:b1:17:1b:
                    dd:d3
                Exponent: 65537 (0x10001)
        X509v3 extensions:
            X509v3 Basic Constraints: 
                CA:FALSE
            X509v3 Subject Key Identifier: 
                B0:F2:98:BD:43:8F:06:34:79:3D:DF:64:75:03:EF:60:88:06:01:EC
            X509v3 Authority Key Identifier: 
                keyid:FD:3D:51:40:8E:50:7B:EF:30:83:77:8B:66:8A:CB:35:13:E9:E0:DF
                DirName:/CN=team86-net
                serial:7D:FE:69:A4:8B:81:C2:E8:C9:21:AD:49:09:72:32:5F:AC:43:6F:F4
            X509v3 Extended Key Usage: 
                TLS Web Client Authentication
            X509v3 Key Usage: 
                Digital Signature
    Signature Algorithm: sha256WithRSAEncryption
    Signature Value:
        bb:82:b9:79:90:12:ce:1f:78:02:87:11:39:01:73:18:94:c2:
        ac:87:51:95:d9:5b:9d:c7:11:c8:09:cf:ae:7a:95:e0:77:1d:
        47:6e:d3:9f:b1:96:01:4c:21:7d:6b:80:98:26:14:0a:ce:d5:
        8d:7c:ab:14:85:e2:db:23:d4:7d:59:32:95:2b:5a:2d:ae:2b:
        b0:76:27:7c:bf:fb:a1:a3:49:38:98:eb:28:d5:aa:dc:f7:32:
        18:b5:51:9c:23:46:90:49:8a:16:73:37:b9:a3:d0:5c:2b:ea:
        15:6b:28:86:34:00:cd:97:08:e7:75:28:ad:b6:df:0f:c0:b4:
        49:bf:49:5c:37:c0:84:50:aa:c7:78:6a:d5:fb:75:c0:a0:da:
        31:7a:c8:6c:5e:e0:d2:3a:c5:77:6a:e0:1c:13:e1:c7:0d:10:
        53:c8:78:35:26:30:f3:5f:68:30:26:a1:a4:54:f3:58:11:a4:
        89:e7:64:5f:9c:40:19:44:2c:23:be:d9:60:96:44:4b:e1:0a:
        3f:ca:b5:7d:43:87:8f:50:2a:a9:8b:01:0c:94:13:a7:f9:13:
        c0:6d:24:4c:3f:5f:7c:1b:72:1e:2f:eb:79:4b:23:4c:3f:1c:
        84:d2:a4:0f:a2:0d:a9:32:91:25:25:70:d3:d9:3e:57:aa:5e:
        81:30:9b:91
-----BEGIN CERTIFICATE-----
MIIDWjCCAkKgAwIBAgIRANnd1lHwvddBVenXKop4OnAwDQYJKoZIhvcNAQELBQAw
FTETMBEGA1UEAwwKdGVhbTg2LW5ldDAeFw0yMzExMDMyMDQwNDFaFw0yNjEwMTgy
MDQwNDFaMBgxFjAUBgNVBAMMDXRlYW04Ni1jbGllbnQwggEiMA0GCSqGSIb3DQEB
AQUAA4IBDwAwggEKAoIBAQDiVjiZBdCj412b3RW/AuAT5UOiXBfoq5GykIw7g8jm
tmB2jAtN4KYf+A8z+drY9hj2A7rF1Q085nWNUF/VTnqf8ExZWIG8Nto83V7RK4lk
sH1pJWIjTEL+KHcZPFfNmLvilY3avv/zFq+LYgrPBASULaaPqW54I+aaA206UgZX
SAz5BHE+PKOHQEGZ1iYlHBXjWy3V+DocR8af4Z1+c3XNcNh6iOayudDR2xh2eVv3
jpid/yjFbyBGMcE2warbEEJlqZhaV5u1BCM8lCN339I+/d1AuxqTWCjyAMflVCrF
ca5gWkVO9D+ss/vsQ/xldyjd3DfR7XcbaBWCALEXG93TAgMBAAGjgaEwgZ4wCQYD
VR0TBAIwADAdBgNVHQ4EFgQUsPKYvUOPBjR5Pd9kdQPvYIgGAewwUAYDVR0jBEkw
R4AU/T1RQI5Qe+8wg3eLZorLNRPp4N+hGaQXMBUxEzARBgNVBAMMCnRlYW04Ni1u
ZXSCFH3+aaSLgcLoySGtSQlyMl+sQ2/0MBMGA1UdJQQMMAoGCCsGAQUFBwMCMAsG
A1UdDwQEAwIHgDANBgkqhkiG9w0BAQsFAAOCAQEAu4K5eZASzh94AocROQFzGJTC
rIdRldlbnccRyAnPrnqV4HcdR27Tn7GWAUwhfWuAmCYUCs7VjXyrFIXi2yPUfVky
lStaLa4rsHYnfL/7oaNJOJjrKNWq3PcyGLVRnCNGkEmKFnM3uaPQXCvqFWsohjQA
zZcI53UorbbfD8C0Sb9JXDfAhFCqx3hq1ft1wKDaMXrIbF7g0jrFd2rgHBPhxw0Q
U8h4NSYw819oMCahpFTzWBGkiedkX5xAGUQsI77ZYJZES+EKP8q1fUOHj1AqqYsB
DJQTp/kTwG0kTD9ffBtyHi/reUsjTD8chNKkD6INqTKRJSVw09k+V6pegTCbkQ==
-----END CERTIFICATE-----
