Certificate:
    Data:
        Version: 3 (0x2)
        Serial Number:
            97:9a:fb:f6:eb:07:71:58:b7:4f:66:dc:3f:03:9c:89
        Signature Algorithm: sha256WithRSAEncryption
        Issuer: CN=team215-net
        Validity
            Not Before: Nov  4 10:44:40 2023 GMT
            Not After : Oct 19 10:44:40 2026 GMT
        Subject: CN=team215-client
        Subject Public Key Info:
            Public Key Algorithm: rsaEncryption
                Public-Key: (2048 bit)
                Modulus:
                    00:ab:0e:a5:bf:db:b1:cc:7f:40:63:23:33:03:62:
                    14:5b:61:15:c1:e5:b3:0c:28:b6:95:97:d9:bd:22:
                    97:47:2d:2c:0f:48:d9:64:f0:63:bd:62:08:54:d7:
                    29:45:5e:a8:e6:68:77:67:68:1e:d0:f4:13:e8:9d:
                    af:fc:ec:74:a5:cc:b7:d7:25:3c:79:8d:9a:de:81:
                    94:f3:2f:1c:63:70:aa:eb:e0:96:b5:51:c3:98:fd:
                    58:fc:c9:6b:2a:af:72:75:0f:bb:40:18:7a:50:88:
                    d5:af:aa:3f:4b:c7:62:aa:b2:00:38:78:da:ab:b2:
                    f7:b0:ee:16:d5:bd:80:a2:07:b9:82:4a:27:f2:67:
                    e6:19:0a:4e:35:b6:38:5a:68:57:ae:2d:05:99:91:
                    37:d7:7f:f7:0e:0e:f9:7c:0d:32:fc:6a:51:76:c0:
                    2a:2f:fc:63:f2:65:4d:c8:3f:53:23:20:80:db:7c:
                    40:10:37:cf:26:a3:64:42:34:52:92:72:86:33:b6:
                    52:c7:89:87:3a:9d:f1:4f:bc:3f:93:cd:06:8c:37:
                    c0:c2:c9:f5:57:d3:0a:1d:51:90:30:c9:a7:42:04:
                    20:a2:c9:54:b8:43:fa:78:77:5b:b4:fd:4a:98:37:
                    db:ca:75:01:44:f8:67:cf:5f:24:49:f1:b2:56:25:
                    c7:d7
                Exponent: 65537 (0x10001)
        X509v3 extensions:
            X509v3 Basic Constraints: 
                CA:FALSE
            X509v3 Subject Key Identifier: 
                0B:D9:2A:0B:29:72:07:7C:0B:35:EE:D5:9A:68:9F:14:0E:1B:A4:8C
            X509v3 Authority Key Identifier: 
                keyid:65:29:04:DF:A6:D5:93:0F:17:12:04:EF:31:D2:0B:1B:D7:0B:84:BF
                DirName:/CN=team215-net
                serial:1F:91:50:4B:1F:BD:D1:27:26:35:81:48:51:13:41:43:53:70:73:6F
            X509v3 Extended Key Usage: 
                TLS Web Client Authentication
            X509v3 Key Usage: 
                Digital Signature
    Signature Algorithm: sha256WithRSAEncryption
    Signature Value:
        06:4f:bf:29:d3:f5:31:e9:6d:9e:ec:4e:62:d9:f5:75:f6:d0:
        9a:ec:26:19:38:7e:26:ff:37:5d:d3:2e:e0:56:5e:57:9e:c3:
        f2:2e:af:74:9b:31:42:ca:1c:03:3f:cf:54:44:13:0c:f6:d9:
        fb:bb:a1:32:cc:96:3f:d2:8f:b3:e7:b7:3f:36:78:b2:09:c2:
        2b:f6:b5:ba:2c:e1:60:82:41:3b:a8:99:57:3b:fa:7d:4f:33:
        6d:73:b4:d7:07:ef:52:79:ae:e8:54:e6:a7:1b:f0:ea:65:8f:
        08:d7:c2:b6:40:7f:02:6d:6b:7a:55:41:fd:6f:12:24:e6:ed:
        d0:2c:d2:96:18:64:f2:83:9a:9f:cf:2e:e8:3c:f1:66:97:25:
        8b:ba:4d:42:e8:95:74:d5:a4:be:97:ae:c7:73:ca:08:65:f0:
        7f:56:4e:cb:a4:b5:c7:83:c3:8d:70:bd:57:99:f9:4c:78:39:
        69:85:ab:90:4f:f7:e1:52:00:43:f3:8a:82:14:dc:36:e9:f4:
        c6:fa:b0:55:75:f4:6d:62:a8:8c:a4:c2:e8:d2:a4:e4:6f:65:
        85:42:c8:71:44:4e:5d:9f:87:c1:c3:1d:93:2f:3a:9e:cd:22:
        cb:1d:28:2e:59:48:b5:3a:e6:53:8f:81:89:ad:db:f0:1d:ea:
        2b:6b:19:3f
-----BEGIN CERTIFICATE-----
MIIDXTCCAkWgAwIBAgIRAJea+/brB3FYt09m3D8DnIkwDQYJKoZIhvcNAQELBQAw
FjEUMBIGA1UEAwwLdGVhbTIxNS1uZXQwHhcNMjMxMTA0MTA0NDQwWhcNMjYxMDE5
MTA0NDQwWjAZMRcwFQYDVQQDDA50ZWFtMjE1LWNsaWVudDCCASIwDQYJKoZIhvcN
AQEBBQADggEPADCCAQoCggEBAKsOpb/bscx/QGMjMwNiFFthFcHlswwotpWX2b0i
l0ctLA9I2WTwY71iCFTXKUVeqOZod2doHtD0E+idr/zsdKXMt9clPHmNmt6BlPMv
HGNwquvglrVRw5j9WPzJayqvcnUPu0AYelCI1a+qP0vHYqqyADh42quy97DuFtW9
gKIHuYJKJ/Jn5hkKTjW2OFpoV64tBZmRN9d/9w4O+XwNMvxqUXbAKi/8Y/JlTcg/
UyMggNt8QBA3zyajZEI0UpJyhjO2UseJhzqd8U+8P5PNBow3wMLJ9VfTCh1RkDDJ
p0IEIKLJVLhD+nh3W7T9Spg328p1AUT4Z89fJEnxslYlx9cCAwEAAaOBojCBnzAJ
BgNVHRMEAjAAMB0GA1UdDgQWBBQL2SoLKXIHfAs17tWaaJ8UDhukjDBRBgNVHSME
SjBIgBRlKQTfptWTDxcSBO8x0gsb1wuEv6EapBgwFjEUMBIGA1UEAwwLdGVhbTIx
NS1uZXSCFB+RUEsfvdEnJjWBSFETQUNTcHNvMBMGA1UdJQQMMAoGCCsGAQUFBwMC
MAsGA1UdDwQEAwIHgDANBgkqhkiG9w0BAQsFAAOCAQEABk+/KdP1MeltnuxOYtn1
dfbQmuwmGTh+Jv83XdMu4FZeV57D8i6vdJsxQsocAz/PVEQTDPbZ+7uhMsyWP9KP
s+e3PzZ4sgnCK/a1uizhYIJBO6iZVzv6fU8zbXO01wfvUnmu6FTmpxvw6mWPCNfC
tkB/Am1relVB/W8SJObt0CzSlhhk8oOan88u6DzxZpcli7pNQuiVdNWkvpeux3PK
CGXwf1ZOy6S1x4PDjXC9V5n5THg5aYWrkE/34VIAQ/OKghTcNun0xvqwVXX0bWKo
jKTC6NKk5G9lhULIcUROXZ+HwcMdky86ns0iyx0oLllItTrmU4+Bia3b8B3qK2sZ
Pw==
-----END CERTIFICATE-----
