Certificate:
    Data:
        Version: 3 (0x2)
        Serial Number:
            b6:3a:30:82:54:9c:e1:7e:c4:d7:8c:32:fd:0b:7b:8a
        Signature Algorithm: sha256WithRSAEncryption
        Issuer: CN=team215-net
        Validity
            Not Before: Nov  4 11:31:51 2023 GMT
            Not After : Oct 19 11:31:51 2026 GMT
        Subject: CN=team215-server
        Subject Public Key Info:
            Public Key Algorithm: rsaEncryption
                Public-Key: (2048 bit)
                Modulus:
                    00:c7:fb:7c:88:6f:6b:df:fc:04:cb:f5:1b:24:02:
                    01:4d:9d:fc:71:0e:1d:88:7b:88:05:4b:fe:59:73:
                    00:6a:05:93:8e:91:ae:08:30:59:76:55:07:73:50:
                    4e:50:da:f7:c6:69:fd:f4:6e:f8:3a:1d:50:1e:7c:
                    0e:f5:db:fc:07:03:7c:49:6e:3c:aa:f5:cd:2c:32:
                    b2:0b:cd:b1:2d:fb:98:db:ce:82:a2:8b:a4:99:2d:
                    e4:bc:24:91:0c:ea:88:02:df:c5:be:e5:10:a3:76:
                    90:36:f5:38:25:5a:29:20:d8:e2:b0:ea:25:ba:c0:
                    e0:80:07:10:44:e8:8b:02:da:19:0d:7f:0f:fc:e9:
                    db:ca:39:cb:ae:e8:a4:16:9e:68:75:59:dd:21:59:
                    cb:87:80:0c:01:b9:c3:5c:80:d2:f9:a3:35:df:55:
                    37:25:e0:6e:76:f6:e5:e1:86:de:9d:ba:8e:f0:93:
                    e3:c8:d7:b7:71:60:7a:9e:eb:f3:e6:96:1d:7d:4e:
                    d0:56:97:9a:bc:c3:64:0b:29:e9:07:c9:5d:06:9b:
                    e1:4a:60:83:d0:d4:eb:17:4f:f1:47:92:72:77:46:
                    7c:ca:93:8f:72:0c:b6:e3:51:98:21:99:14:4d:29:
                    2d:17:f2:67:b4:aa:a1:12:02:71:74:c7:e8:5a:96:
                    e0:73
                Exponent: 65537 (0x10001)
        X509v3 extensions:
            X509v3 Basic Constraints: 
                CA:FALSE
            X509v3 Subject Key Identifier: 
                63:5A:4A:FB:01:63:F8:D8:36:14:A6:B4:23:C2:F7:53:1E:2B:81:EB
            X509v3 Authority Key Identifier: 
                keyid:9D:CF:33:6B:E0:41:2C:EA:3C:EA:1A:54:C2:BC:AD:BE:20:CF:9C:B6
                DirName:/CN=team215-net
                serial:25:F9:06:0F:16:34:13:85:A6:F7:27:59:B2:1E:91:96:50:81:FF:6E
            X509v3 Extended Key Usage: 
                TLS Web Server Authentication
            X509v3 Key Usage: 
                Digital Signature, Key Encipherment
            X509v3 Subject Alternative Name: 
                DNS:team215-server
    Signature Algorithm: sha256WithRSAEncryption
    Signature Value:
        bf:2e:51:02:a9:3b:e6:84:19:d0:77:a7:af:d8:3b:bb:2a:ec:
        13:32:9f:56:9a:38:8e:72:72:95:6d:8e:9b:b1:47:15:b3:51:
        78:41:b3:fd:8a:de:a7:71:18:9a:de:b8:22:51:d2:39:ca:97:
        67:69:a4:22:15:97:c6:64:bf:d8:38:6a:91:1c:0a:db:d9:c8:
        ad:8e:a8:db:ed:e6:57:8e:dc:58:a9:e8:63:04:dd:15:11:04:
        28:73:28:d5:a1:8f:d4:92:0d:b7:9f:0c:55:2d:7b:21:5c:db:
        68:3f:08:f2:2d:4f:57:37:21:ad:7f:1d:5c:c6:23:02:b9:2a:
        28:2b:49:8a:51:63:45:6c:65:03:ed:12:5d:33:fe:be:79:9a:
        fd:bb:8a:2c:97:9a:00:40:1a:40:74:5e:4f:8a:62:24:21:74:
        fc:91:65:a5:fa:77:12:3c:a1:82:99:0a:58:be:bc:70:ce:16:
        ee:ab:10:bc:83:b6:51:d3:08:44:52:91:91:04:03:74:ad:27:
        38:09:e8:c0:36:4f:0c:7c:c2:5b:6b:fd:10:f4:24:3b:fc:39:
        02:fd:f4:e0:98:d8:b2:b2:ae:90:2c:e6:93:ed:e5:c8:c8:02:
        db:8e:5e:65:74:73:12:b0:38:e7:e9:ad:5e:3e:c7:b9:80:9f:
        0b:63:b4:93
-----BEGIN CERTIFICATE-----
MIIDeDCCAmCgAwIBAgIRALY6MIJUnOF+xNeMMv0Le4owDQYJKoZIhvcNAQELBQAw
FjEUMBIGA1UEAwwLdGVhbTIxNS1uZXQwHhcNMjMxMTA0MTEzMTUxWhcNMjYxMDE5
MTEzMTUxWjAZMRcwFQYDVQQDDA50ZWFtMjE1LXNlcnZlcjCCASIwDQYJKoZIhvcN
AQEBBQADggEPADCCAQoCggEBAMf7fIhva9/8BMv1GyQCAU2d/HEOHYh7iAVL/llz
AGoFk46RrggwWXZVB3NQTlDa98Zp/fRu+DodUB58DvXb/AcDfEluPKr1zSwysgvN
sS37mNvOgqKLpJkt5LwkkQzqiALfxb7lEKN2kDb1OCVaKSDY4rDqJbrA4IAHEETo
iwLaGQ1/D/zp28o5y67opBaeaHVZ3SFZy4eADAG5w1yA0vmjNd9VNyXgbnb25eGG
3p26jvCT48jXt3Fgep7r8+aWHX1O0FaXmrzDZAsp6QfJXQab4Upgg9DU6xdP8UeS
cndGfMqTj3IMtuNRmCGZFE0pLRfyZ7SqoRICcXTH6FqW4HMCAwEAAaOBvTCBujAJ
BgNVHRMEAjAAMB0GA1UdDgQWBBRjWkr7AWP42DYUprQjwvdTHiuB6zBRBgNVHSME
SjBIgBSdzzNr4EEs6jzqGlTCvK2+IM+ctqEapBgwFjEUMBIGA1UEAwwLdGVhbTIx
NS1uZXSCFCX5Bg8WNBOFpvcnWbIekZZQgf9uMBMGA1UdJQQMMAoGCCsGAQUFBwMB
MAsGA1UdDwQEAwIFoDAZBgNVHREEEjAQgg50ZWFtMjE1LXNlcnZlcjANBgkqhkiG
9w0BAQsFAAOCAQEAvy5RAqk75oQZ0Henr9g7uyrsEzKfVpo4jnJylW2Om7FHFbNR
eEGz/Yrep3EYmt64IlHSOcqXZ2mkIhWXxmS/2DhqkRwK29nIrY6o2+3mV47cWKno
YwTdFREEKHMo1aGP1JINt58MVS17IVzbaD8I8i1PVzchrX8dXMYjArkqKCtJilFj
RWxlA+0SXTP+vnma/buKLJeaAEAaQHReT4piJCF0/JFlpfp3EjyhgpkKWL68cM4W
7qsQvIO2UdMIRFKRkQQDdK0nOAnowDZPDHzCW2v9EPQkO/w5Av304JjYsrKukCzm
k+3lyMgC245eZXRzErA45+mtXj7HuYCfC2O0kw==
-----END CERTIFICATE-----
