Certificate:
    Data:
        Version: 3 (0x2)
        Serial Number:
            db:03:d4:93:14:3a:77:d3:78:9f:fb:ed:e5:d5:65:9f
        Signature Algorithm: sha256WithRSAEncryption
        Issuer: CN=team215-net
        Validity
            Not Before: Nov  4 11:31:51 2023 GMT
            Not After : Oct 19 11:31:51 2026 GMT
        Subject: CN=team215-client
        Subject Public Key Info:
            Public Key Algorithm: rsaEncryption
                Public-Key: (2048 bit)
                Modulus:
                    00:ae:74:f3:89:64:4b:e3:c9:5e:73:43:ad:4c:1b:
                    ef:49:4d:a9:c6:95:53:c7:a4:f9:b7:df:8b:5a:ae:
                    f9:aa:76:12:a9:d1:82:10:99:22:9a:b4:2a:ce:18:
                    57:30:11:06:ed:10:43:77:1b:ed:4f:9f:f0:c5:99:
                    e5:7b:3c:33:ce:93:87:f7:1a:d2:99:8c:fe:84:b0:
                    8a:84:1f:63:99:13:f0:ca:15:5b:ec:0e:d6:b2:c9:
                    28:fa:a8:27:9e:29:d7:b5:f9:60:0f:6f:b6:1b:0b:
                    88:a5:0b:77:4d:cb:00:c8:0b:66:8f:f5:9a:55:8f:
                    f5:ae:f4:c8:ef:96:3f:69:9e:57:90:af:ee:bd:0c:
                    f9:cb:cd:66:fa:aa:d1:a4:96:ea:13:62:72:86:a2:
                    1c:e3:9f:09:18:43:a4:57:34:6c:5e:ed:64:11:83:
                    d5:4a:c7:27:12:2f:c5:d5:3e:a8:2a:60:92:f7:42:
                    fd:05:95:52:a0:59:0a:22:4e:86:b4:c4:53:da:9e:
                    4f:e6:0a:e2:a9:78:57:55:ba:d5:11:f1:0a:d9:b8:
                    20:ca:f5:4f:1a:8a:f1:66:74:8a:70:27:78:9e:3e:
                    90:0b:68:b0:fc:5a:12:3d:1b:e0:54:aa:d9:95:69:
                    1f:50:8e:05:44:87:13:db:95:ef:ba:ef:40:2c:90:
                    e7:9d
                Exponent: 65537 (0x10001)
        X509v3 extensions:
            X509v3 Basic Constraints: 
                CA:FALSE
            X509v3 Subject Key Identifier: 
                62:68:CA:41:3B:B3:3E:F6:52:6C:F4:42:9F:65:82:F2:8A:0E:A1:9A
            X509v3 Authority Key Identifier: 
                keyid:9D:CF:33:6B:E0:41:2C:EA:3C:EA:1A:54:C2:BC:AD:BE:20:CF:9C:B6
                DirName:/CN=team215-net
                serial:25:F9:06:0F:16:34:13:85:A6:F7:27:59:B2:1E:91:96:50:81:FF:6E
            X509v3 Extended Key Usage: 
                TLS Web Client Authentication
            X509v3 Key Usage: 
                Digital Signature
    Signature Algorithm: sha256WithRSAEncryption
    Signature Value:
        0c:01:a3:68:59:e2:1e:bb:00:7f:29:f3:1b:2a:5a:a3:e9:0a:
        99:4e:3f:c6:f2:3f:0f:94:cf:42:36:92:cf:ae:72:47:a8:38:
        51:e9:a3:ca:ea:9c:c4:b2:62:72:2f:f6:16:96:9f:0e:9d:52:
        44:1c:87:44:26:e5:fc:4c:d9:65:16:02:38:81:ce:fc:82:08:
        b2:00:72:fd:a4:ff:48:50:09:9b:30:87:bd:5f:fc:bb:03:1f:
        a7:4a:31:c7:7b:84:a5:b9:25:74:8d:26:a2:21:41:ff:d4:f8:
        83:72:3b:6c:80:d4:80:8b:3f:9d:d1:b0:5d:bc:11:59:5a:43:
        32:83:42:5e:ff:56:7b:39:1b:ac:62:5a:c1:22:4a:07:0d:11:
        a4:3a:cb:d5:0a:05:3e:72:83:b4:42:6b:9b:64:c1:e0:90:fa:
        ad:bd:ea:a0:5d:6c:5c:99:0a:90:f3:03:d0:eb:80:ba:c2:5e:
        d1:0a:8e:e4:9f:c8:96:f1:c0:0c:b6:53:46:c2:0a:14:9b:af:
        30:05:4d:c8:0a:78:aa:11:98:db:76:98:7d:42:7a:ef:02:ad:
        f0:4c:e3:5e:dd:cd:de:91:59:f4:a4:36:57:cd:89:db:db:cb:
        bf:b7:09:9e:0b:3b:58:9b:26:02:cc:9f:12:44:e3:05:68:e3:
        a1:c0:6b:8a
-----BEGIN CERTIFICATE-----
MIIDXTCCAkWgAwIBAgIRANsD1JMUOnfTeJ/77eXVZZ8wDQYJKoZIhvcNAQELBQAw
FjEUMBIGA1UEAwwLdGVhbTIxNS1uZXQwHhcNMjMxMTA0MTEzMTUxWhcNMjYxMDE5
MTEzMTUxWjAZMRcwFQYDVQQDDA50ZWFtMjE1LWNsaWVudDCCASIwDQYJKoZIhvcN
AQEBBQADggEPADCCAQoCggEBAK5084lkS+PJXnNDrUwb70lNqcaVU8ek+bffi1qu
+ap2EqnRghCZIpq0Ks4YVzARBu0QQ3cb7U+f8MWZ5Xs8M86Th/ca0pmM/oSwioQf
Y5kT8MoVW+wO1rLJKPqoJ54p17X5YA9vthsLiKULd03LAMgLZo/1mlWP9a70yO+W
P2meV5Cv7r0M+cvNZvqq0aSW6hNicoaiHOOfCRhDpFc0bF7tZBGD1UrHJxIvxdU+
qCpgkvdC/QWVUqBZCiJOhrTEU9qeT+YK4ql4V1W61RHxCtm4IMr1TxqK8WZ0inAn
eJ4+kAtosPxaEj0b4FSq2ZVpH1COBUSHE9uV77rvQCyQ550CAwEAAaOBojCBnzAJ
BgNVHRMEAjAAMB0GA1UdDgQWBBRiaMpBO7M+9lJs9EKfZYLyig6hmjBRBgNVHSME
SjBIgBSdzzNr4EEs6jzqGlTCvK2+IM+ctqEapBgwFjEUMBIGA1UEAwwLdGVhbTIx
NS1uZXSCFCX5Bg8WNBOFpvcnWbIekZZQgf9uMBMGA1UdJQQMMAoGCCsGAQUFBwMC
MAsGA1UdDwQEAwIHgDANBgkqhkiG9w0BAQsFAAOCAQEADAGjaFniHrsAfynzGypa
o+kKmU4/xvI/D5TPQjaSz65yR6g4UemjyuqcxLJici/2FpafDp1SRByHRCbl/EzZ
ZRYCOIHO/IIIsgBy/aT/SFAJmzCHvV/8uwMfp0oxx3uEpbkldI0moiFB/9T4g3I7
bIDUgIs/ndGwXbwRWVpDMoNCXv9WezkbrGJawSJKBw0RpDrL1QoFPnKDtEJrm2TB
4JD6rb3qoF1sXJkKkPMD0OuAusJe0QqO5J/IlvHADLZTRsIKFJuvMAVNyAp4qhGY
23aYfUJ67wKt8EzjXt3N3pFZ9KQ2V82J29vLv7cJngs7WJsmAsyfEkTjBWjjocBr
ig==
-----END CERTIFICATE-----
