Certificate:
    Data:
        Version: 3 (0x2)
        Serial Number:
            16:74:a4:74:3b:f6:51:d8:dc:62:33:cc:15:04:0b:2b
        Signature Algorithm: sha256WithRSAEncryption
        Issuer: CN=team353-net
        Validity
            Not Before: Nov  4 10:47:03 2023 GMT
            Not After : Oct 19 10:47:03 2026 GMT
        Subject: CN=team353-server
        Subject Public Key Info:
            Public Key Algorithm: rsaEncryption
                Public-Key: (2048 bit)
                Modulus:
                    00:c8:d7:07:d7:e9:a9:aa:00:4f:ce:47:10:47:d9:
                    46:49:74:53:15:93:ac:07:17:f9:b4:83:d9:26:26:
                    ae:f9:44:6e:9c:54:89:b2:90:a1:e7:bc:b3:ec:76:
                    a4:0a:0d:1f:81:20:87:ac:d9:f1:03:1e:27:47:b0:
                    69:ba:e5:ee:6c:2a:bb:4b:83:eb:52:e4:05:f1:f0:
                    4b:fe:4a:94:92:82:e9:a3:13:b2:b2:5d:43:dd:ab:
                    62:54:cb:91:a7:29:74:28:30:23:22:2e:d4:fa:48:
                    aa:68:87:f0:21:1a:1f:e3:86:ea:62:aa:88:b9:7f:
                    48:f0:d1:59:15:4c:42:cf:8a:cb:02:7f:53:59:8d:
                    bf:8a:ce:f7:76:0f:b6:e2:67:32:11:d6:f5:60:85:
                    60:ac:5e:17:15:53:f4:b1:21:86:4e:44:4f:64:4a:
                    e2:4f:52:44:bd:6d:9c:2f:7a:ee:97:c3:92:84:96:
                    7f:d2:74:97:22:23:d0:77:76:72:65:5c:b1:0a:af:
                    32:e1:cd:1f:b1:53:d3:c5:c6:e6:ac:84:39:f3:21:
                    e4:ce:1c:2f:1a:ce:82:a2:a6:76:4e:43:e5:ac:b4:
                    00:6f:bc:c8:cc:d8:ee:7b:fa:96:86:13:1f:a2:5e:
                    19:0e:b8:2a:38:1d:df:5b:08:bd:23:06:30:d7:36:
                    a1:f7
                Exponent: 65537 (0x10001)
        X509v3 extensions:
            X509v3 Basic Constraints: 
                CA:FALSE
            X509v3 Subject Key Identifier: 
                BA:C9:C5:2A:AA:64:2A:8C:FE:42:2A:38:96:29:C0:E7:57:D3:30:44
            X509v3 Authority Key Identifier: 
                keyid:96:B5:FA:F7:25:67:F7:AF:C8:19:99:16:93:A1:44:D2:62:C5:E9:D6
                DirName:/CN=team353-net
                serial:24:1C:AE:76:0D:E0:6A:F0:25:4F:EC:59:84:6F:A3:AA:0B:37:86:E7
            X509v3 Extended Key Usage: 
                TLS Web Server Authentication
            X509v3 Key Usage: 
                Digital Signature, Key Encipherment
            X509v3 Subject Alternative Name: 
                DNS:team353-server
    Signature Algorithm: sha256WithRSAEncryption
    Signature Value:
        88:bd:11:ba:79:5a:aa:39:14:f1:d0:d6:ab:58:49:dc:0b:85:
        ca:a2:ce:41:d0:9d:2d:c3:85:b0:ae:87:e3:52:f9:88:07:e5:
        58:06:cd:03:aa:04:9a:f5:4c:e2:4c:28:e0:b7:6e:b3:fb:b2:
        3c:18:54:8b:5a:af:63:c3:8e:ce:2e:56:51:71:0a:d7:e3:28:
        77:b9:23:ac:d3:52:3f:71:41:ac:37:bd:17:88:73:93:e6:35:
        19:84:cf:a9:ef:67:65:cf:85:47:d5:8b:c4:72:94:21:b1:36:
        6f:9e:10:02:b9:c1:ee:2b:07:f5:a2:bf:17:6c:ee:2a:15:83:
        58:34:a7:6c:10:8e:2d:38:96:73:1d:19:86:87:19:c6:a3:df:
        20:95:06:ce:59:bf:5c:bd:d6:2e:43:35:83:dc:2b:64:df:7d:
        88:74:22:f8:99:b4:da:e1:87:28:8f:37:4a:18:42:8d:71:49:
        5f:ab:a1:11:84:11:78:fb:72:a2:86:74:29:dd:eb:e2:98:c8:
        21:aa:f5:48:ef:31:cf:d2:f3:a0:fe:10:57:41:e0:78:d8:3f:
        f0:eb:4a:d2:aa:1c:97:46:cd:3d:46:b7:13:c4:25:14:26:f0:
        fd:7d:12:15:9f:69:91:9c:ab:e7:c9:a7:66:d5:59:09:64:28:
        d2:b0:3f:3d
-----BEGIN CERTIFICATE-----
MIIDdzCCAl+gAwIBAgIQFnSkdDv2UdjcYjPMFQQLKzANBgkqhkiG9w0BAQsFADAW
MRQwEgYDVQQDDAt0ZWFtMzUzLW5ldDAeFw0yMzExMDQxMDQ3MDNaFw0yNjEwMTkx
MDQ3MDNaMBkxFzAVBgNVBAMMDnRlYW0zNTMtc2VydmVyMIIBIjANBgkqhkiG9w0B
AQEFAAOCAQ8AMIIBCgKCAQEAyNcH1+mpqgBPzkcQR9lGSXRTFZOsBxf5tIPZJiau
+URunFSJspCh57yz7HakCg0fgSCHrNnxAx4nR7BpuuXubCq7S4PrUuQF8fBL/kqU
koLpoxOysl1D3atiVMuRpyl0KDAjIi7U+kiqaIfwIRof44bqYqqIuX9I8NFZFUxC
z4rLAn9TWY2/is73dg+24mcyEdb1YIVgrF4XFVP0sSGGTkRPZEriT1JEvW2cL3ru
l8OShJZ/0nSXIiPQd3ZyZVyxCq8y4c0fsVPTxcbmrIQ58yHkzhwvGs6CoqZ2TkPl
rLQAb7zIzNjue/qWhhMfol4ZDrgqOB3fWwi9IwYw1zah9wIDAQABo4G9MIG6MAkG
A1UdEwQCMAAwHQYDVR0OBBYEFLrJxSqqZCqM/kIqOJYpwOdX0zBEMFEGA1UdIwRK
MEiAFJa1+vclZ/evyBmZFpOhRNJixenWoRqkGDAWMRQwEgYDVQQDDAt0ZWFtMzUz
LW5ldIIUJByudg3gavAlT+xZhG+jqgs3hucwEwYDVR0lBAwwCgYIKwYBBQUHAwEw
CwYDVR0PBAQDAgWgMBkGA1UdEQQSMBCCDnRlYW0zNTMtc2VydmVyMA0GCSqGSIb3
DQEBCwUAA4IBAQCIvRG6eVqqORTx0NarWEncC4XKos5B0J0tw4WwrofjUvmIB+VY
Bs0DqgSa9UziTCjgt26z+7I8GFSLWq9jw47OLlZRcQrX4yh3uSOs01I/cUGsN70X
iHOT5jUZhM+p72dlz4VH1YvEcpQhsTZvnhACucHuKwf1or8XbO4qFYNYNKdsEI4t
OJZzHRmGhxnGo98glQbOWb9cvdYuQzWD3Ctk332IdCL4mbTa4YcojzdKGEKNcUlf
q6ERhBF4+3KihnQp3evimMghqvVI7zHP0vOg/hBXQeB42D/w60rSqhyXRs09RrcT
xCUUJvD9fRIVn2mRnKvnyadm1VkJZCjSsD89
-----END CERTIFICATE-----
