Certificate:
    Data:
        Version: 3 (0x2)
        Serial Number:
            18:ea:40:2c:bf:0a:08:d0:b2:7c:57:6e:5e:e7:0b:7f
        Signature Algorithm: sha256WithRSAEncryption
        Issuer: CN=team353-net
        Validity
            Not Before: Nov  3 20:45:42 2023 GMT
            Not After : Oct 18 20:45:42 2026 GMT
        Subject: CN=team353-server
        Subject Public Key Info:
            Public Key Algorithm: rsaEncryption
                Public-Key: (2048 bit)
                Modulus:
                    00:d3:61:7e:dc:24:0b:37:85:2d:af:87:78:71:15:
                    18:33:38:25:de:3f:a6:7d:e4:52:4a:d3:87:eb:e3:
                    4b:83:69:c5:65:ee:b1:71:08:87:79:38:85:bd:48:
                    68:8c:b6:07:af:a7:d1:df:e7:03:32:36:d9:c7:65:
                    2f:f0:f5:36:2b:10:6f:b1:91:40:9e:bd:9a:50:28:
                    d1:0e:c7:92:b2:97:8b:a4:af:ba:4a:48:33:25:79:
                    68:f8:a2:97:8a:22:e5:95:3f:95:a2:72:51:4d:b8:
                    09:5a:c4:e7:14:54:d8:ef:97:8c:81:0f:4a:37:41:
                    37:78:e2:e8:0c:86:01:3b:9c:7b:cc:84:d3:75:f6:
                    89:94:3c:d6:e6:b7:fa:6b:32:c9:95:70:1c:ce:c6:
                    05:0d:df:26:72:a6:14:df:30:62:bf:d8:4c:e0:3f:
                    3b:0d:be:8c:95:6f:ab:70:b9:e1:57:42:ac:a6:64:
                    a1:18:78:57:5a:e9:58:c8:c9:85:69:28:d1:c3:21:
                    49:7d:2d:c9:a0:d2:91:6e:b3:f3:14:2b:c7:85:c7:
                    f3:2b:a5:2e:eb:a2:cf:fe:43:1d:ac:5d:f3:f0:ef:
                    04:3c:d0:e5:b0:83:e0:ed:a6:be:0e:2b:f7:d2:6b:
                    7d:d1:a4:ad:56:d2:57:c7:73:39:71:86:91:1e:1b:
                    b2:2b
                Exponent: 65537 (0x10001)
        X509v3 extensions:
            X509v3 Basic Constraints: 
                CA:FALSE
            X509v3 Subject Key Identifier: 
                87:D0:63:D9:D5:CF:15:31:3F:84:A8:C2:1C:C4:21:D7:49:CF:97:C0
            X509v3 Authority Key Identifier: 
                keyid:9F:59:3B:54:38:55:2F:CE:5F:DD:B8:03:36:CA:39:23:28:6D:65:CB
                DirName:/CN=team353-net
                serial:63:7D:24:0E:C8:5B:BC:13:9A:E1:D0:29:A2:F6:B9:FA:78:B3:FA:79
            X509v3 Extended Key Usage: 
                TLS Web Server Authentication
            X509v3 Key Usage: 
                Digital Signature, Key Encipherment
            X509v3 Subject Alternative Name: 
                DNS:team353-server
    Signature Algorithm: sha256WithRSAEncryption
    Signature Value:
        b2:38:97:4d:ff:25:fc:69:d8:ce:f5:96:1f:b8:1c:70:4f:5b:
        fe:fb:42:13:40:9e:fb:27:f8:28:ba:28:b4:a8:5c:7b:ff:27:
        38:60:85:1b:48:d8:7d:71:be:22:82:12:dc:9c:1a:d2:01:7b:
        1b:95:39:90:08:09:d4:75:51:27:bb:ff:8d:b4:fc:3f:47:e1:
        7f:e8:87:ae:7c:ef:f6:9e:95:4e:85:fe:e5:c0:13:3b:ad:e1:
        14:3b:60:d7:8f:e9:df:d5:4c:bf:de:3e:ed:e7:8b:38:ed:f3:
        b3:b5:69:77:ee:01:4e:bb:2f:d9:65:c4:24:90:df:66:7b:44:
        07:ba:8e:6f:69:55:ac:d7:d3:f0:22:1c:ca:44:bd:2c:67:74:
        af:92:e9:2d:7a:d6:3d:37:09:54:e9:a0:03:23:d6:30:47:4d:
        60:e9:c8:dd:eb:f4:d8:32:78:84:4f:d8:81:94:e5:12:10:af:
        e6:d8:b4:94:df:fe:c5:de:ba:53:cd:c5:27:2f:b8:53:02:7e:
        67:2f:6f:5d:c7:7e:61:78:48:8d:ac:21:2c:3c:83:fc:ff:74:
        b5:c2:e8:93:83:b5:d0:42:e9:84:e7:69:2b:3f:d6:bd:31:7f:
        1b:b4:bb:b6:ca:49:97:52:dc:b3:16:27:4f:f5:6a:56:db:4b:
        77:2a:dc:1a
-----BEGIN CERTIFICATE-----
MIIDdzCCAl+gAwIBAgIQGOpALL8KCNCyfFduXucLfzANBgkqhkiG9w0BAQsFADAW
MRQwEgYDVQQDDAt0ZWFtMzUzLW5ldDAeFw0yMzExMDMyMDQ1NDJaFw0yNjEwMTgy
MDQ1NDJaMBkxFzAVBgNVBAMMDnRlYW0zNTMtc2VydmVyMIIBIjANBgkqhkiG9w0B
AQEFAAOCAQ8AMIIBCgKCAQEA02F+3CQLN4Utr4d4cRUYMzgl3j+mfeRSStOH6+NL
g2nFZe6xcQiHeTiFvUhojLYHr6fR3+cDMjbZx2Uv8PU2KxBvsZFAnr2aUCjRDseS
speLpK+6SkgzJXlo+KKXiiLllT+VonJRTbgJWsTnFFTY75eMgQ9KN0E3eOLoDIYB
O5x7zITTdfaJlDzW5rf6azLJlXAczsYFDd8mcqYU3zBiv9hM4D87Db6MlW+rcLnh
V0KspmShGHhXWulYyMmFaSjRwyFJfS3JoNKRbrPzFCvHhcfzK6Uu66LP/kMdrF3z
8O8EPNDlsIPg7aa+Div30mt90aStVtJXx3M5cYaRHhuyKwIDAQABo4G9MIG6MAkG
A1UdEwQCMAAwHQYDVR0OBBYEFIfQY9nVzxUxP4SowhzEIddJz5fAMFEGA1UdIwRK
MEiAFJ9ZO1Q4VS/OX924AzbKOSMobWXLoRqkGDAWMRQwEgYDVQQDDAt0ZWFtMzUz
LW5ldIIUY30kDshbvBOa4dApova5+niz+nkwEwYDVR0lBAwwCgYIKwYBBQUHAwEw
CwYDVR0PBAQDAgWgMBkGA1UdEQQSMBCCDnRlYW0zNTMtc2VydmVyMA0GCSqGSIb3
DQEBCwUAA4IBAQCyOJdN/yX8adjO9ZYfuBxwT1v++0ITQJ77J/gouii0qFx7/yc4
YIUbSNh9cb4ighLcnBrSAXsblTmQCAnUdVEnu/+NtPw/R+F/6IeufO/2npVOhf7l
wBM7reEUO2DXj+nf1Uy/3j7t54s47fOztWl37gFOuy/ZZcQkkN9me0QHuo5vaVWs
19PwIhzKRL0sZ3SvkuktetY9NwlU6aADI9YwR01g6cjd6/TYMniET9iBlOUSEK/m
2LSU3/7F3rpTzcUnL7hTAn5nL29dx35heEiNrCEsPIP8/3S1wuiTg7XQQumE52kr
P9a9MX8btLu2ykmXUtyzFidP9WpW20t3Ktwa
-----END CERTIFICATE-----
