Certificate:
    Data:
        Version: 3 (0x2)
        Serial Number:
            b2:9b:02:ed:a0:45:db:43:78:8e:7c:8a:89:23:36:e0
        Signature Algorithm: sha256WithRSAEncryption
        Issuer: CN=team353-net
        Validity
            Not Before: Nov  4 11:35:15 2023 GMT
            Not After : Oct 19 11:35:15 2026 GMT
        Subject: CN=team353-server
        Subject Public Key Info:
            Public Key Algorithm: rsaEncryption
                Public-Key: (2048 bit)
                Modulus:
                    00:c2:6d:89:76:f5:51:b7:78:18:ad:26:ee:7a:c7:
                    21:bb:48:ff:64:7c:cf:69:2f:c5:a9:7e:f3:b1:06:
                    4a:2c:cc:dc:1a:6c:ef:e1:35:2f:80:5b:88:08:b0:
                    e4:eb:73:8a:e4:ad:82:99:f3:a1:6e:c6:87:7f:2c:
                    03:cb:24:09:55:a9:06:1d:2e:7f:c4:f3:06:fe:6f:
                    b7:61:f1:f8:4a:18:1e:70:47:18:d7:49:69:8f:80:
                    b9:6d:96:98:9e:3a:e2:13:29:c6:4b:80:a4:6d:73:
                    20:d4:f5:c2:af:91:69:e9:06:73:7c:85:b3:7d:da:
                    3c:e9:d9:2e:80:0d:dc:90:08:18:84:6a:ca:c9:fa:
                    77:61:1f:48:f5:3c:f6:52:ae:38:4c:02:45:6a:18:
                    48:cf:e1:1a:07:05:16:bc:a9:21:31:66:56:f0:1e:
                    74:1d:e2:a7:06:5a:76:23:ce:a8:12:29:da:74:c4:
                    ee:1a:41:99:0c:1c:63:c5:74:5c:a3:58:6d:8d:fd:
                    ed:d4:9e:41:74:3a:15:1a:d3:a3:71:c5:ee:91:6b:
                    66:f7:cf:92:52:c2:c3:e4:c0:24:b3:e9:67:1d:70:
                    72:fe:87:d4:1d:89:48:d9:d2:bb:94:9e:b5:a1:f2:
                    7f:43:35:a8:a9:aa:7b:d0:49:e3:f0:68:81:8b:14:
                    c3:63
                Exponent: 65537 (0x10001)
        X509v3 extensions:
            X509v3 Basic Constraints: 
                CA:FALSE
            X509v3 Subject Key Identifier: 
                AB:BA:1B:66:17:55:9D:0D:B4:A5:30:91:09:3A:4C:CF:95:E7:77:9A
            X509v3 Authority Key Identifier: 
                keyid:D3:EA:8A:74:46:17:7A:80:8D:65:24:BC:B0:03:49:99:72:44:2E:9B
                DirName:/CN=team353-net
                serial:0E:C7:76:F3:64:D5:AD:1A:3B:16:A0:84:B0:F4:9E:91:00:7E:D8:45
            X509v3 Extended Key Usage: 
                TLS Web Server Authentication
            X509v3 Key Usage: 
                Digital Signature, Key Encipherment
            X509v3 Subject Alternative Name: 
                DNS:team353-server
    Signature Algorithm: sha256WithRSAEncryption
    Signature Value:
        5e:9a:40:62:b9:cf:64:78:79:a9:ed:07:37:7f:6b:b0:91:a3:
        b9:13:8a:d5:69:21:db:af:ee:50:74:50:43:24:99:08:23:a0:
        5a:03:a7:35:36:b9:37:78:bd:67:1b:62:94:1b:c5:05:de:ea:
        73:51:f8:62:db:74:ca:52:6c:a3:2f:44:21:ad:06:71:f8:9c:
        87:d6:df:7c:c4:45:2c:c1:bb:aa:50:2f:ca:0b:c2:7f:8a:e2:
        ce:da:08:5e:b5:6c:87:ec:97:5f:df:2d:dd:03:19:6a:34:47:
        56:e7:d2:de:64:26:bc:9f:d5:3c:a0:d4:23:c1:f9:a1:71:a7:
        3a:14:e0:f5:00:31:c3:fe:61:fc:af:94:96:02:78:05:62:11:
        66:af:26:b2:56:84:5d:5f:48:cd:ed:25:75:43:e4:4e:c8:7e:
        87:cd:03:bb:ba:43:7c:ae:fa:ba:9f:67:a6:34:99:fb:2d:4e:
        de:19:c8:db:2c:b6:66:62:39:9b:c4:af:51:89:31:4f:22:05:
        01:8d:5b:03:2f:f6:6f:2c:ed:ba:b9:a8:69:3a:d0:bd:80:4c:
        0f:57:d1:ad:1a:f9:31:1a:80:ee:74:a2:f9:e5:95:7b:ba:3d:
        7e:b0:e6:4a:28:b0:81:ba:5e:4a:ec:b2:52:4a:36:1f:fe:1d:
        55:0a:90:69
-----BEGIN CERTIFICATE-----
MIIDeDCCAmCgAwIBAgIRALKbAu2gRdtDeI58iokjNuAwDQYJKoZIhvcNAQELBQAw
FjEUMBIGA1UEAwwLdGVhbTM1My1uZXQwHhcNMjMxMTA0MTEzNTE1WhcNMjYxMDE5
MTEzNTE1WjAZMRcwFQYDVQQDDA50ZWFtMzUzLXNlcnZlcjCCASIwDQYJKoZIhvcN
AQEBBQADggEPADCCAQoCggEBAMJtiXb1Ubd4GK0m7nrHIbtI/2R8z2kvxal+87EG
SizM3Bps7+E1L4BbiAiw5OtziuStgpnzoW7Gh38sA8skCVWpBh0uf8TzBv5vt2Hx
+EoYHnBHGNdJaY+AuW2WmJ464hMpxkuApG1zINT1wq+RaekGc3yFs33aPOnZLoAN
3JAIGIRqysn6d2EfSPU89lKuOEwCRWoYSM/hGgcFFrypITFmVvAedB3ipwZadiPO
qBIp2nTE7hpBmQwcY8V0XKNYbY397dSeQXQ6FRrTo3HF7pFrZvfPklLCw+TAJLPp
Zx1wcv6H1B2JSNnSu5SetaHyf0M1qKmqe9BJ4/BogYsUw2MCAwEAAaOBvTCBujAJ
BgNVHRMEAjAAMB0GA1UdDgQWBBSruhtmF1WdDbSlMJEJOkzPled3mjBRBgNVHSME
SjBIgBTT6op0Rhd6gI1lJLywA0mZckQum6EapBgwFjEUMBIGA1UEAwwLdGVhbTM1
My1uZXSCFA7HdvNk1a0aOxaghLD0npEAfthFMBMGA1UdJQQMMAoGCCsGAQUFBwMB
MAsGA1UdDwQEAwIFoDAZBgNVHREEEjAQgg50ZWFtMzUzLXNlcnZlcjANBgkqhkiG
9w0BAQsFAAOCAQEAXppAYrnPZHh5qe0HN39rsJGjuROK1Wkh26/uUHRQQySZCCOg
WgOnNTa5N3i9ZxtilBvFBd7qc1H4Ytt0ylJsoy9EIa0Gcfich9bffMRFLMG7qlAv
ygvCf4riztoIXrVsh+yXX98t3QMZajRHVufS3mQmvJ/VPKDUI8H5oXGnOhTg9QAx
w/5h/K+UlgJ4BWIRZq8mslaEXV9Ize0ldUPkTsh+h80Du7pDfK76up9npjSZ+y1O
3hnI2yy2ZmI5m8SvUYkxTyIFAY1bAy/2byzturmoaTrQvYBMD1fRrRr5MRqA7nSi
+eWVe7o9frDmSiiwgbpeSuyyUko2H/4dVQqQaQ==
-----END CERTIFICATE-----
