Certificate:
    Data:
        Version: 3 (0x2)
        Serial Number:
            e7:fe:3f:1f:57:02:fe:be:c1:b1:36:8a:1a:de:d2:f9
        Signature Algorithm: sha256WithRSAEncryption
        Issuer: CN=team353-net
        Validity
            Not Before: Nov  4 10:47:03 2023 GMT
            Not After : Oct 19 10:47:03 2026 GMT
        Subject: CN=team353-client
        Subject Public Key Info:
            Public Key Algorithm: rsaEncryption
                Public-Key: (2048 bit)
                Modulus:
                    00:b4:a6:a0:93:27:11:76:48:1b:c8:b2:82:87:a1:
                    c0:d2:bc:21:08:00:1b:6b:ef:01:ec:69:90:e0:bc:
                    c5:33:ee:22:fb:bc:87:24:f3:bd:ad:c7:d1:72:64:
                    bd:4c:a5:4c:95:b7:b0:52:30:c5:a4:c4:3e:2d:35:
                    12:6a:d3:e6:9d:d9:6d:10:45:30:52:63:20:bc:be:
                    3a:3d:ab:21:bc:50:eb:53:13:76:e3:2d:9b:cb:79:
                    df:d6:33:74:68:0d:4a:e2:e5:b9:64:aa:1b:85:56:
                    7b:bd:31:6f:e6:f7:78:c9:66:45:05:ec:55:e8:4d:
                    c7:f0:2c:b6:75:55:dd:a8:6e:b4:3e:28:a2:b3:b0:
                    e7:88:9d:a1:c3:b2:14:2f:59:04:68:51:c5:3a:ca:
                    08:e3:90:da:f1:e9:3f:4b:b4:a7:91:48:0e:8e:b3:
                    2b:2b:a7:0c:22:cb:75:2b:88:a9:e1:e6:91:7b:9c:
                    d5:28:a1:44:6e:3e:4a:5c:9b:a0:8e:cf:2e:cf:93:
                    5e:58:25:04:8d:0d:1a:df:af:5b:9b:17:99:76:42:
                    6b:3d:e2:6e:89:66:97:e0:ac:a9:56:a0:61:a1:e0:
                    fa:46:29:47:d3:0e:8d:93:4d:a3:80:13:d7:0d:36:
                    5b:c7:2a:7b:b6:46:ef:09:02:09:59:b5:41:92:bc:
                    31:69
                Exponent: 65537 (0x10001)
        X509v3 extensions:
            X509v3 Basic Constraints: 
                CA:FALSE
            X509v3 Subject Key Identifier: 
                29:BE:C8:A3:8F:88:29:0A:FD:21:DF:64:48:A4:02:03:30:25:DC:1C
            X509v3 Authority Key Identifier: 
                keyid:96:B5:FA:F7:25:67:F7:AF:C8:19:99:16:93:A1:44:D2:62:C5:E9:D6
                DirName:/CN=team353-net
                serial:24:1C:AE:76:0D:E0:6A:F0:25:4F:EC:59:84:6F:A3:AA:0B:37:86:E7
            X509v3 Extended Key Usage: 
                TLS Web Client Authentication
            X509v3 Key Usage: 
                Digital Signature
    Signature Algorithm: sha256WithRSAEncryption
    Signature Value:
        02:de:f4:20:b6:b9:82:78:e2:51:91:35:36:04:63:3c:e3:92:
        31:8e:88:6a:b3:cc:26:1c:61:c9:8b:46:81:12:b5:7b:b0:3a:
        25:e5:c5:82:ec:9f:9e:6e:6b:78:39:4e:ad:cc:69:77:32:dd:
        6e:6c:07:41:37:2e:f6:d9:12:ab:b9:41:30:ac:7b:75:4b:67:
        a5:f3:b6:22:24:e7:5f:1c:07:03:26:df:29:66:76:a9:b2:8f:
        72:5f:d7:e2:b9:46:b3:38:ac:d2:e5:18:09:80:b2:7c:9b:f5:
        62:ef:e5:a5:2b:8c:7b:96:68:f9:64:77:09:b6:ac:45:0a:b9:
        f3:72:23:dd:cb:8e:0e:6e:41:15:9e:61:04:13:ba:f1:1d:d2:
        39:ce:51:ed:af:71:3c:b6:94:4a:73:52:2a:56:04:59:27:76:
        a5:d1:88:6b:7d:68:0f:a1:84:2f:36:5f:bd:ae:a1:24:da:29:
        49:68:ad:46:b5:ec:bb:5a:74:68:fe:60:51:6e:39:89:33:12:
        04:07:aa:f6:b5:4d:c0:58:79:5a:25:b8:54:74:f4:3e:c6:e7:
        a3:31:5c:e9:c8:76:66:4b:dc:8f:f4:ae:4c:31:46:16:9e:b0:
        c8:62:16:e8:00:f1:06:65:fb:65:4b:a6:7f:c1:84:2c:2b:94:
        de:13:f8:b5
-----BEGIN CERTIFICATE-----
MIIDXTCCAkWgAwIBAgIRAOf+Px9XAv6+wbE2ihre0vkwDQYJKoZIhvcNAQELBQAw
FjEUMBIGA1UEAwwLdGVhbTM1My1uZXQwHhcNMjMxMTA0MTA0NzAzWhcNMjYxMDE5
MTA0NzAzWjAZMRcwFQYDVQQDDA50ZWFtMzUzLWNsaWVudDCCASIwDQYJKoZIhvcN
AQEBBQADggEPADCCAQoCggEBALSmoJMnEXZIG8iygoehwNK8IQgAG2vvAexpkOC8
xTPuIvu8hyTzva3H0XJkvUylTJW3sFIwxaTEPi01EmrT5p3ZbRBFMFJjILy+Oj2r
IbxQ61MTduMtm8t539YzdGgNSuLluWSqG4VWe70xb+b3eMlmRQXsVehNx/AstnVV
3ahutD4oorOw54idocOyFC9ZBGhRxTrKCOOQ2vHpP0u0p5FIDo6zKyunDCLLdSuI
qeHmkXuc1SihRG4+SlyboI7PLs+TXlglBI0NGt+vW5sXmXZCaz3ibolml+CsqVag
YaHg+kYpR9MOjZNNo4AT1w02W8cqe7ZG7wkCCVm1QZK8MWkCAwEAAaOBojCBnzAJ
BgNVHRMEAjAAMB0GA1UdDgQWBBQpvsijj4gpCv0h32RIpAIDMCXcHDBRBgNVHSME
SjBIgBSWtfr3JWf3r8gZmRaToUTSYsXp1qEapBgwFjEUMBIGA1UEAwwLdGVhbTM1
My1uZXSCFCQcrnYN4GrwJU/sWYRvo6oLN4bnMBMGA1UdJQQMMAoGCCsGAQUFBwMC
MAsGA1UdDwQEAwIHgDANBgkqhkiG9w0BAQsFAAOCAQEAAt70ILa5gnjiUZE1NgRj
POOSMY6IarPMJhxhyYtGgRK1e7A6JeXFguyfnm5reDlOrcxpdzLdbmwHQTcu9tkS
q7lBMKx7dUtnpfO2IiTnXxwHAybfKWZ2qbKPcl/X4rlGszis0uUYCYCyfJv1Yu/l
pSuMe5Zo+WR3CbasRQq583Ij3cuODm5BFZ5hBBO68R3SOc5R7a9xPLaUSnNSKlYE
WSd2pdGIa31oD6GELzZfva6hJNopSWitRrXsu1p0aP5gUW45iTMSBAeq9rVNwFh5
WiW4VHT0PsbnozFc6ch2Zkvcj/SuTDFGFp6wyGIW6ADxBmX7ZUumf8GELCuU3hP4
tQ==
-----END CERTIFICATE-----
