Certificate:
    Data:
        Version: 3 (0x2)
        Serial Number:
            04:80:0e:c5:bf:a6:8d:f2:dd:ad:bd:d5:00:1f:33:e0
        Signature Algorithm: sha256WithRSAEncryption
        Issuer: CN=team123-net
        Validity
            Not Before: Nov  3 20:41:22 2023 GMT
            Not After : Oct 18 20:41:22 2026 GMT
        Subject: CN=team123-client
        Subject Public Key Info:
            Public Key Algorithm: rsaEncryption
                Public-Key: (2048 bit)
                Modulus:
                    00:b1:dc:a9:cf:4f:38:37:e3:a8:8e:03:64:07:39:
                    b5:70:48:18:f5:00:ae:0b:e0:e8:11:34:8f:9a:4f:
                    55:74:7c:0e:e2:1e:8f:fe:d7:f6:eb:59:a4:79:a3:
                    d1:e4:57:42:97:08:72:cb:9e:ed:09:80:cc:b4:cf:
                    bb:6e:60:ee:6f:42:ee:90:f2:0c:3c:cd:07:4a:74:
                    32:fe:79:7b:ca:0c:44:01:55:74:c0:27:06:2e:3f:
                    80:ee:1f:f2:8e:d3:0c:32:e8:1d:78:ce:88:aa:3c:
                    de:ff:21:81:9e:95:46:84:d6:64:9c:d4:86:12:c1:
                    3e:e6:c1:aa:2c:dc:b1:75:59:6e:db:90:bf:52:01:
                    8e:72:13:b9:48:f4:63:f9:87:a9:92:4b:32:0e:28:
                    23:3f:20:c1:41:51:2f:6f:78:5f:d1:2a:a9:b1:76:
                    7a:7a:42:d7:7b:82:c6:2e:62:aa:70:34:c0:c2:0d:
                    81:5f:ae:21:b4:40:8a:65:e9:cf:84:65:23:39:89:
                    b4:43:91:a8:9c:5f:5b:d0:d7:2e:b1:16:09:a2:a5:
                    50:6d:0a:a1:e2:a9:fb:d7:11:99:4c:ef:a5:d6:71:
                    e3:41:7b:8f:2d:78:12:22:21:1f:93:4d:2e:a0:95:
                    7f:a3:46:57:17:ac:52:e3:86:7d:fe:1e:a2:ec:05:
                    51:21
                Exponent: 65537 (0x10001)
        X509v3 extensions:
            X509v3 Basic Constraints: 
                CA:FALSE
            X509v3 Subject Key Identifier: 
                2A:E8:DC:95:A0:99:EE:25:7A:16:AA:5F:20:AF:B3:45:A2:A4:04:ED
            X509v3 Authority Key Identifier: 
                keyid:FF:4C:75:F0:82:4A:3D:F8:E8:50:4A:0F:39:5D:22:8E:8A:79:E6:F1
                DirName:/CN=team123-net
                serial:44:42:74:DD:D7:02:38:71:1E:33:FD:B6:BD:EE:5A:85:51:66:A7:33
            X509v3 Extended Key Usage: 
                TLS Web Client Authentication
            X509v3 Key Usage: 
                Digital Signature
    Signature Algorithm: sha256WithRSAEncryption
    Signature Value:
        a8:f5:3d:a4:f3:c0:8d:1f:23:8f:0c:ca:b4:6f:45:8c:60:84:
        27:6e:8d:a2:8d:35:f2:47:d2:67:cc:cd:3a:e1:55:8d:52:1b:
        db:8b:b7:52:ee:40:23:4c:c9:aa:f7:df:54:12:20:e6:9c:09:
        19:75:40:6e:6c:f1:82:98:cb:57:eb:a1:96:e6:55:2a:d0:04:
        1b:c9:a4:f4:f1:3d:31:7a:ac:32:71:95:4b:a2:b5:2d:1b:4c:
        8d:e2:bd:1e:6b:95:23:9a:d0:cf:df:fd:c5:e4:b0:ca:90:bd:
        8c:28:2b:cc:1d:a8:66:2a:ef:74:f2:5c:7b:54:ed:9f:83:12:
        76:b6:ca:11:23:d6:9e:94:e1:4c:7e:fe:e6:0e:e6:85:3a:77:
        c5:68:68:1d:30:9b:f9:80:ca:15:35:f0:21:12:66:2d:18:28:
        4a:f3:a8:02:ba:0b:b6:d1:63:f0:e4:78:ac:20:03:07:ca:19:
        ec:a1:0e:e7:81:6f:3f:36:9c:36:31:1f:80:79:bd:f7:d6:cc:
        54:fc:10:d0:47:dc:7d:26:24:03:fb:f4:14:93:bb:f8:64:c7:
        4f:f4:ee:2c:cd:ae:4f:ef:74:cd:b3:c8:06:76:bb:4a:ca:76:
        6a:96:45:7d:df:07:5e:1d:a3:35:f6:a1:be:83:e7:8e:30:a9:
        1f:b7:41:60
-----BEGIN CERTIFICATE-----
MIIDXDCCAkSgAwIBAgIQBIAOxb+mjfLdrb3VAB8z4DANBgkqhkiG9w0BAQsFADAW
MRQwEgYDVQQDDAt0ZWFtMTIzLW5ldDAeFw0yMzExMDMyMDQxMjJaFw0yNjEwMTgy
MDQxMjJaMBkxFzAVBgNVBAMMDnRlYW0xMjMtY2xpZW50MIIBIjANBgkqhkiG9w0B
AQEFAAOCAQ8AMIIBCgKCAQEAsdypz084N+OojgNkBzm1cEgY9QCuC+DoETSPmk9V
dHwO4h6P/tf261mkeaPR5FdClwhyy57tCYDMtM+7bmDub0LukPIMPM0HSnQy/nl7
ygxEAVV0wCcGLj+A7h/yjtMMMugdeM6Iqjze/yGBnpVGhNZknNSGEsE+5sGqLNyx
dVlu25C/UgGOchO5SPRj+YepkksyDigjPyDBQVEvb3hf0SqpsXZ6ekLXe4LGLmKq
cDTAwg2BX64htECKZenPhGUjOYm0Q5GonF9b0NcusRYJoqVQbQqh4qn71xGZTO+l
1nHjQXuPLXgSIiEfk00uoJV/o0ZXF6xS44Z9/h6i7AVRIQIDAQABo4GiMIGfMAkG
A1UdEwQCMAAwHQYDVR0OBBYEFCro3JWgme4lehaqXyCvs0WipATtMFEGA1UdIwRK
MEiAFP9MdfCCSj346FBKDzldIo6KeebxoRqkGDAWMRQwEgYDVQQDDAt0ZWFtMTIz
LW5ldIIUREJ03dcCOHEeM/22ve5ahVFmpzMwEwYDVR0lBAwwCgYIKwYBBQUHAwIw
CwYDVR0PBAQDAgeAMA0GCSqGSIb3DQEBCwUAA4IBAQCo9T2k88CNHyOPDMq0b0WM
YIQnbo2ijTXyR9JnzM064VWNUhvbi7dS7kAjTMmq999UEiDmnAkZdUBubPGCmMtX
66GW5lUq0AQbyaT08T0xeqwycZVLorUtG0yN4r0ea5UjmtDP3/3F5LDKkL2MKCvM
HahmKu908lx7VO2fgxJ2tsoRI9aelOFMfv7mDuaFOnfFaGgdMJv5gMoVNfAhEmYt
GChK86gCugu20WPw5HisIAMHyhnsoQ7ngW8/Npw2MR+Aeb331sxU/BDQR9x9JiQD
+/QUk7v4ZMdP9O4sza5P73TNs8gGdrtKynZqlkV93wdeHaM19qG+g+eOMKkft0Fg
-----END CERTIFICATE-----
