Certificate:
    Data:
        Version: 3 (0x2)
        Serial Number:
            5b:71:4b:32:dc:d8:2b:e1:34:a2:e3:63:bf:a5:bd:fc
        Signature Algorithm: sha256WithRSAEncryption
        Issuer: CN=team123-net
        Validity
            Not Before: Nov  4 11:29:54 2023 GMT
            Not After : Oct 19 11:29:54 2026 GMT
        Subject: CN=team123-server
        Subject Public Key Info:
            Public Key Algorithm: rsaEncryption
                Public-Key: (2048 bit)
                Modulus:
                    00:c3:1b:9d:b9:a5:13:7d:32:86:c5:4d:0c:2a:84:
                    65:45:25:8d:23:ac:a6:6f:1e:a6:1a:65:4c:07:35:
                    da:91:ef:7f:52:8d:2b:43:ab:0f:42:1c:1f:30:d1:
                    ad:c0:68:a9:61:06:8f:83:75:bd:5b:ee:4a:cf:de:
                    7d:bc:58:1e:d3:95:5a:02:e9:62:b0:85:de:36:cf:
                    95:06:f5:3e:55:c8:78:58:0a:97:0f:bd:bf:c7:88:
                    87:2b:91:bd:28:73:ff:88:ea:ed:93:ca:b3:88:e0:
                    21:0c:65:00:a4:2d:11:3d:f2:b4:b0:23:31:5a:61:
                    7b:33:c6:d8:b6:c2:23:23:41:7b:be:80:22:84:4b:
                    69:74:fe:53:62:11:f5:d1:ad:35:45:e7:6c:dc:5d:
                    8f:4c:ef:d0:c2:87:ea:5f:2d:3a:a3:c7:ba:24:e6:
                    d1:fe:e5:fa:5d:f9:2b:c7:72:46:a3:1c:95:ec:94:
                    38:7c:98:8c:8c:e5:fc:87:d4:f4:11:cd:d1:c9:19:
                    d5:cd:75:ef:e3:01:a9:81:8d:5d:8c:b5:3f:37:83:
                    d4:3d:e8:ca:d2:47:fd:88:b8:61:4e:17:6b:cb:46:
                    e2:65:67:45:61:3c:a7:ea:fb:bf:f6:ab:1c:87:32:
                    be:bf:eb:31:11:b5:6e:4d:75:83:56:4f:fa:32:0f:
                    eb:d5
                Exponent: 65537 (0x10001)
        X509v3 extensions:
            X509v3 Basic Constraints: 
                CA:FALSE
            X509v3 Subject Key Identifier: 
                5F:C1:4C:A5:79:D8:1C:AD:04:CA:69:8C:09:3A:60:2F:54:32:90:FA
            X509v3 Authority Key Identifier: 
                keyid:1C:72:CF:04:4B:33:A4:AB:53:6F:98:C4:BB:8D:7F:F9:92:D3:E0:AB
                DirName:/CN=team123-net
                serial:50:EF:30:24:5D:31:51:F0:E0:47:7D:E1:FA:FB:5B:61:1C:0C:75:28
            X509v3 Extended Key Usage: 
                TLS Web Server Authentication
            X509v3 Key Usage: 
                Digital Signature, Key Encipherment
            X509v3 Subject Alternative Name: 
                DNS:team123-server
    Signature Algorithm: sha256WithRSAEncryption
    Signature Value:
        43:a2:71:c4:92:a4:86:01:e7:88:3b:92:80:00:8e:07:7c:0d:
        30:de:7d:3a:c7:18:c0:78:e4:ec:65:c7:5e:c9:19:ac:5b:b6:
        ce:3c:cb:1e:9c:3d:17:22:74:bd:8e:84:62:f6:bd:ee:e6:0d:
        02:15:e4:c2:c1:fe:d5:f9:4e:63:14:d5:04:bf:1b:1a:b3:d1:
        e0:22:97:bc:5a:6f:80:30:a2:66:6e:36:2f:84:46:fd:73:52:
        24:34:73:f1:c8:c2:02:3b:e6:95:e7:7b:c8:76:d0:a9:92:c9:
        e4:3c:10:ac:3b:01:b2:aa:3e:0c:a8:87:f6:2f:31:0a:23:2f:
        33:1b:64:b7:6c:c7:4a:8f:e1:7e:43:0e:46:ae:2e:1b:f4:2f:
        23:04:ae:b5:b2:8d:89:e3:2c:b7:b7:06:b0:e5:ac:de:07:13:
        a8:c6:95:0f:cb:52:17:c4:aa:eb:8e:d2:6b:cc:cb:c2:7a:15:
        46:6c:0a:41:13:d6:cf:29:53:58:67:48:ae:0b:c0:35:9a:1f:
        c7:03:b5:9f:0e:fd:f2:ca:d0:22:d8:44:f9:a0:fa:59:71:d5:
        47:c0:94:54:38:7c:0c:76:fc:6a:f6:21:ef:1d:e5:d0:59:52:
        42:65:08:31:df:3b:a7:da:65:41:20:6e:66:47:36:68:1f:29:
        83:b4:08:6c
-----BEGIN CERTIFICATE-----
MIIDdzCCAl+gAwIBAgIQW3FLMtzYK+E0ouNjv6W9/DANBgkqhkiG9w0BAQsFADAW
MRQwEgYDVQQDDAt0ZWFtMTIzLW5ldDAeFw0yMzExMDQxMTI5NTRaFw0yNjEwMTkx
MTI5NTRaMBkxFzAVBgNVBAMMDnRlYW0xMjMtc2VydmVyMIIBIjANBgkqhkiG9w0B
AQEFAAOCAQ8AMIIBCgKCAQEAwxuduaUTfTKGxU0MKoRlRSWNI6ymbx6mGmVMBzXa
ke9/Uo0rQ6sPQhwfMNGtwGipYQaPg3W9W+5Kz959vFge05VaAulisIXeNs+VBvU+
Vch4WAqXD72/x4iHK5G9KHP/iOrtk8qziOAhDGUApC0RPfK0sCMxWmF7M8bYtsIj
I0F7voAihEtpdP5TYhH10a01Reds3F2PTO/QwofqXy06o8e6JObR/uX6Xfkrx3JG
oxyV7JQ4fJiMjOX8h9T0Ec3RyRnVzXXv4wGpgY1djLU/N4PUPejK0kf9iLhhThdr
y0biZWdFYTyn6vu/9qschzK+v+sxEbVuTXWDVk/6Mg/r1QIDAQABo4G9MIG6MAkG
A1UdEwQCMAAwHQYDVR0OBBYEFF/BTKV52BytBMppjAk6YC9UMpD6MFEGA1UdIwRK
MEiAFBxyzwRLM6SrU2+YxLuNf/mS0+CroRqkGDAWMRQwEgYDVQQDDAt0ZWFtMTIz
LW5ldIIUUO8wJF0xUfDgR33h+vtbYRwMdSgwEwYDVR0lBAwwCgYIKwYBBQUHAwEw
CwYDVR0PBAQDAgWgMBkGA1UdEQQSMBCCDnRlYW0xMjMtc2VydmVyMA0GCSqGSIb3
DQEBCwUAA4IBAQBDonHEkqSGAeeIO5KAAI4HfA0w3n06xxjAeOTsZcdeyRmsW7bO
PMsenD0XInS9joRi9r3u5g0CFeTCwf7V+U5jFNUEvxsas9HgIpe8Wm+AMKJmbjYv
hEb9c1IkNHPxyMICO+aV53vIdtCpksnkPBCsOwGyqj4MqIf2LzEKIy8zG2S3bMdK
j+F+Qw5Gri4b9C8jBK61so2J4yy3twaw5azeBxOoxpUPy1IXxKrrjtJrzMvCehVG
bApBE9bPKVNYZ0iuC8A1mh/HA7WfDv3yytAi2ET5oPpZcdVHwJRUOHwMdvxq9iHv
HeXQWVJCZQgx3zun2mVBIG5mRzZoHymDtAhs
-----END CERTIFICATE-----
