Certificate:
    Data:
        Version: 3 (0x2)
        Serial Number:
            c8:78:b9:76:0e:20:e0:da:0e:4d:95:fb:8e:be:f1:bb
        Signature Algorithm: sha256WithRSAEncryption
        Issuer: CN=team123-net
        Validity
            Not Before: Nov  4 11:29:54 2023 GMT
            Not After : Oct 19 11:29:54 2026 GMT
        Subject: CN=team123-client
        Subject Public Key Info:
            Public Key Algorithm: rsaEncryption
                Public-Key: (2048 bit)
                Modulus:
                    00:d4:da:b5:4c:56:05:d2:82:ff:6d:cc:f4:44:2e:
                    b8:ee:0c:03:4d:f3:c1:66:9f:51:72:85:97:ea:43:
                    d9:a3:dc:d0:71:7b:ca:cd:b5:91:01:97:e3:8e:ff:
                    6e:fe:51:73:90:3a:a4:06:7b:43:a5:d2:42:1b:01:
                    95:c7:1e:22:b0:82:a5:ac:b7:c3:59:4d:82:25:0b:
                    40:b1:d0:8e:81:26:aa:77:ed:d0:9f:26:e7:92:3a:
                    e0:1b:12:d2:4e:02:55:9b:c8:55:c8:7f:49:b3:c8:
                    87:58:51:04:6c:c1:1b:57:2a:aa:22:f6:7b:fd:62:
                    d4:5c:25:aa:ce:a2:41:04:62:72:11:d2:01:ae:c8:
                    1d:23:cc:bb:33:cf:aa:ec:3a:30:9c:82:51:d8:b8:
                    97:93:13:d2:2a:d8:17:c4:e2:e6:32:3a:16:02:f0:
                    71:5b:6c:01:1d:71:e8:cb:88:c4:2a:a2:cf:2a:f9:
                    af:93:6e:c0:23:7a:f7:ff:42:77:af:2f:f0:be:f2:
                    e8:62:6b:b6:1c:39:bd:74:d7:7d:cf:62:91:7d:83:
                    f6:be:8b:6b:8d:0b:16:91:c1:29:67:bc:3f:dd:db:
                    c6:72:d2:d5:1b:ae:d8:2a:fc:66:45:75:cd:43:dc:
                    0f:bc:ff:49:a3:b4:b9:af:8d:8c:54:c2:d1:40:ec:
                    18:4d
                Exponent: 65537 (0x10001)
        X509v3 extensions:
            X509v3 Basic Constraints: 
                CA:FALSE
            X509v3 Subject Key Identifier: 
                EB:97:80:0A:37:12:2E:8E:8E:37:94:CE:CA:9C:DE:3A:07:22:52:9C
            X509v3 Authority Key Identifier: 
                keyid:1C:72:CF:04:4B:33:A4:AB:53:6F:98:C4:BB:8D:7F:F9:92:D3:E0:AB
                DirName:/CN=team123-net
                serial:50:EF:30:24:5D:31:51:F0:E0:47:7D:E1:FA:FB:5B:61:1C:0C:75:28
            X509v3 Extended Key Usage: 
                TLS Web Client Authentication
            X509v3 Key Usage: 
                Digital Signature
    Signature Algorithm: sha256WithRSAEncryption
    Signature Value:
        75:fd:87:be:61:93:17:fb:d0:1d:bc:92:37:cb:96:37:b6:8c:
        71:c0:a8:66:c4:86:07:95:d6:28:a0:0a:ad:38:d4:7c:bc:3d:
        99:66:b0:41:5e:52:7b:f9:4a:0f:2a:e6:c3:71:4a:25:13:3e:
        5c:f4:52:9f:19:b3:57:80:75:78:68:a4:5d:16:de:6b:ae:89:
        fa:65:aa:95:51:af:3f:b7:dc:05:d3:3a:52:c3:c2:96:4d:e3:
        05:a9:5d:75:aa:ee:4f:56:9c:8a:61:fa:74:2b:c4:72:62:75:
        31:52:ea:21:97:6f:1d:73:0c:7b:04:31:5c:c6:e7:14:6f:c7:
        10:34:8d:cb:4f:66:ad:38:fd:9e:48:9c:80:e9:76:7a:4d:72:
        20:ef:eb:fd:b7:b0:9e:46:b1:b4:c6:c9:9d:07:e6:1f:a2:46:
        42:cf:8c:50:da:05:b1:38:6e:40:6a:08:46:c8:35:d8:3a:64:
        14:0d:20:20:56:bc:16:a4:14:64:2f:21:40:d2:f9:aa:a8:e1:
        93:53:61:95:e5:50:d8:54:e8:fa:68:55:c6:1a:8e:d2:3d:9a:
        4f:b4:60:1c:bd:a0:59:64:6b:32:cd:2d:94:b7:58:d7:45:b0:
        3e:58:97:d7:9d:48:8d:d6:2c:bf:a0:c2:eb:4d:50:db:f0:75:
        d6:0f:79:00
-----BEGIN CERTIFICATE-----
MIIDXTCCAkWgAwIBAgIRAMh4uXYOIODaDk2V+46+8bswDQYJKoZIhvcNAQELBQAw
FjEUMBIGA1UEAwwLdGVhbTEyMy1uZXQwHhcNMjMxMTA0MTEyOTU0WhcNMjYxMDE5
MTEyOTU0WjAZMRcwFQYDVQQDDA50ZWFtMTIzLWNsaWVudDCCASIwDQYJKoZIhvcN
AQEBBQADggEPADCCAQoCggEBANTatUxWBdKC/23M9EQuuO4MA03zwWafUXKFl+pD
2aPc0HF7ys21kQGX447/bv5Rc5A6pAZ7Q6XSQhsBlcceIrCCpay3w1lNgiULQLHQ
joEmqnft0J8m55I64BsS0k4CVZvIVch/SbPIh1hRBGzBG1cqqiL2e/1i1Fwlqs6i
QQRichHSAa7IHSPMuzPPquw6MJyCUdi4l5MT0irYF8Ti5jI6FgLwcVtsAR1x6MuI
xCqizyr5r5NuwCN69/9Cd68v8L7y6GJrthw5vXTXfc9ikX2D9r6La40LFpHBKWe8
P93bxnLS1Ruu2Cr8ZkV1zUPcD7z/SaO0ua+NjFTC0UDsGE0CAwEAAaOBojCBnzAJ
BgNVHRMEAjAAMB0GA1UdDgQWBBTrl4AKNxIujo43lM7KnN46ByJSnDBRBgNVHSME
SjBIgBQccs8ESzOkq1NvmMS7jX/5ktPgq6EapBgwFjEUMBIGA1UEAwwLdGVhbTEy
My1uZXSCFFDvMCRdMVHw4Ed94fr7W2EcDHUoMBMGA1UdJQQMMAoGCCsGAQUFBwMC
MAsGA1UdDwQEAwIHgDANBgkqhkiG9w0BAQsFAAOCAQEAdf2HvmGTF/vQHbySN8uW
N7aMccCoZsSGB5XWKKAKrTjUfLw9mWawQV5Se/lKDyrmw3FKJRM+XPRSnxmzV4B1
eGikXRbea66J+mWqlVGvP7fcBdM6UsPClk3jBalddaruT1acimH6dCvEcmJ1MVLq
IZdvHXMMewQxXMbnFG/HEDSNy09mrTj9nkicgOl2ek1yIO/r/bewnkaxtMbJnQfm
H6JGQs+MUNoFsThuQGoIRsg12DpkFA0gIFa8FqQUZC8hQNL5qqjhk1NhleVQ2FTo
+mhVxhqO0j2aT7RgHL2gWWRrMs0tlLdY10WwPliX151IjdYsv6DC601Q2/B11g95
AA==
-----END CERTIFICATE-----
