Certificate:
    Data:
        Version: 3 (0x2)
        Serial Number:
            d8:e2:df:38:dd:bf:6e:8d:27:79:72:a0:e9:f3:1f:08
        Signature Algorithm: sha256WithRSAEncryption
        Issuer: CN=team331-net
        Validity
            Not Before: Nov  3 20:45:20 2023 GMT
            Not After : Oct 18 20:45:20 2026 GMT
        Subject: CN=team331-server
        Subject Public Key Info:
            Public Key Algorithm: rsaEncryption
                Public-Key: (2048 bit)
                Modulus:
                    00:c7:1f:7a:14:73:c5:94:87:bf:ac:60:7f:c1:2f:
                    38:e2:81:a6:d4:6a:72:74:3b:40:4c:26:3b:ed:e1:
                    77:36:b4:53:9d:73:02:4f:38:b1:71:32:fd:cd:b2:
                    39:27:a8:47:fb:50:e3:d0:4e:89:70:45:90:95:04:
                    b3:33:19:e5:06:60:a9:12:82:ba:d6:04:ed:05:c9:
                    e1:4e:fb:37:ef:61:da:7f:74:92:29:65:f8:e9:9e:
                    7e:0b:8a:92:d4:fd:4b:82:34:0e:26:65:8c:4a:61:
                    c6:5f:be:41:43:b1:e6:c6:63:af:c4:1b:10:87:8b:
                    64:ec:04:d3:f7:43:25:be:55:02:34:96:c7:0e:d8:
                    2d:73:3d:ef:8b:f1:35:9f:b2:96:97:e1:91:25:7b:
                    41:61:93:da:d7:47:41:f0:5f:ad:62:02:b5:51:f0:
                    d6:e7:6b:d7:55:05:59:0e:d8:5f:e5:34:3e:1e:f6:
                    7c:ef:e3:63:b9:56:39:5c:1d:9c:fc:aa:80:bb:9f:
                    af:e3:f8:80:4d:83:12:1f:8a:eb:b2:2f:dd:01:d0:
                    b2:14:04:97:43:8b:dd:68:b9:ca:09:fb:23:9b:c6:
                    f1:4d:5f:dc:0b:4e:e0:d4:9e:40:fd:23:ee:75:90:
                    81:de:1e:fc:77:10:f8:00:0a:0d:fc:d1:65:6c:13:
                    87:87
                Exponent: 65537 (0x10001)
        X509v3 extensions:
            X509v3 Basic Constraints: 
                CA:FALSE
            X509v3 Subject Key Identifier: 
                2E:2F:6E:D6:08:9E:0D:70:03:66:7C:DE:F3:EE:2A:26:73:08:ED:15
            X509v3 Authority Key Identifier: 
                keyid:10:27:7C:73:71:EB:91:48:F8:FE:09:F2:EE:98:66:74:E5:73:F0:86
                DirName:/CN=team331-net
                serial:5B:2C:90:2B:ED:3E:56:00:35:83:4D:81:47:DD:AA:1B:28:B1:12:49
            X509v3 Extended Key Usage: 
                TLS Web Server Authentication
            X509v3 Key Usage: 
                Digital Signature, Key Encipherment
            X509v3 Subject Alternative Name: 
                DNS:team331-server
    Signature Algorithm: sha256WithRSAEncryption
    Signature Value:
        62:13:e6:9b:6e:24:74:f9:b7:1e:73:5e:16:e7:f7:3c:86:f8:
        84:26:c4:3f:8b:12:5e:35:cc:4e:d7:47:ab:40:88:5d:b8:e6:
        ac:58:5e:09:f5:4d:6d:1e:8c:6c:51:12:88:1f:55:aa:f2:16:
        4b:c5:21:38:d1:3d:26:28:02:87:98:86:06:31:ec:16:26:c9:
        7f:f4:7d:60:c2:b6:cc:1b:55:b2:01:0b:81:e9:df:73:99:82:
        95:1d:f8:1d:c8:f1:b6:ca:a7:64:e9:db:a2:49:55:04:1d:a8:
        57:12:36:8b:ef:bd:44:f9:18:68:96:a0:30:e5:e4:11:35:5f:
        f9:c1:13:10:2a:b7:81:c0:62:e7:13:a9:3b:9f:b2:8b:3c:22:
        f6:a2:64:ec:d0:74:51:23:2f:d8:b6:ea:98:bc:f4:26:89:76:
        e7:1d:14:4b:7b:24:4a:e7:72:20:ba:8f:96:58:3d:66:77:77:
        72:35:6f:8f:6a:87:b8:c2:05:e9:29:b0:98:f0:9a:4d:69:be:
        b0:95:cb:fd:90:a7:74:2a:e0:df:a4:79:59:c4:9f:82:c7:f6:
        7b:8d:3a:8c:73:19:64:58:c8:98:24:f8:93:65:12:61:07:8c:
        6f:49:1a:9f:96:e1:8c:27:68:83:d4:98:f9:5d:62:51:20:fe:
        96:2d:28:bb
-----BEGIN CERTIFICATE-----
MIIDeDCCAmCgAwIBAgIRANji3zjdv26NJ3lyoOnzHwgwDQYJKoZIhvcNAQELBQAw
FjEUMBIGA1UEAwwLdGVhbTMzMS1uZXQwHhcNMjMxMTAzMjA0NTIwWhcNMjYxMDE4
MjA0NTIwWjAZMRcwFQYDVQQDDA50ZWFtMzMxLXNlcnZlcjCCASIwDQYJKoZIhvcN
AQEBBQADggEPADCCAQoCggEBAMcfehRzxZSHv6xgf8EvOOKBptRqcnQ7QEwmO+3h
dza0U51zAk84sXEy/c2yOSeoR/tQ49BOiXBFkJUEszMZ5QZgqRKCutYE7QXJ4U77
N+9h2n90kill+OmefguKktT9S4I0DiZljEphxl++QUOx5sZjr8QbEIeLZOwE0/dD
Jb5VAjSWxw7YLXM974vxNZ+ylpfhkSV7QWGT2tdHQfBfrWICtVHw1udr11UFWQ7Y
X+U0Ph72fO/jY7lWOVwdnPyqgLufr+P4gE2DEh+K67Iv3QHQshQEl0OL3Wi5ygn7
I5vG8U1f3AtO4NSeQP0j7nWQgd4e/HcQ+AAKDfzRZWwTh4cCAwEAAaOBvTCBujAJ
BgNVHRMEAjAAMB0GA1UdDgQWBBQuL27WCJ4NcANmfN7z7iomcwjtFTBRBgNVHSME
SjBIgBQQJ3xzceuRSPj+CfLumGZ05XPwhqEapBgwFjEUMBIGA1UEAwwLdGVhbTMz
MS1uZXSCFFsskCvtPlYANYNNgUfdqhsosRJJMBMGA1UdJQQMMAoGCCsGAQUFBwMB
MAsGA1UdDwQEAwIFoDAZBgNVHREEEjAQgg50ZWFtMzMxLXNlcnZlcjANBgkqhkiG
9w0BAQsFAAOCAQEAYhPmm24kdPm3HnNeFuf3PIb4hCbEP4sSXjXMTtdHq0CIXbjm
rFheCfVNbR6MbFESiB9VqvIWS8UhONE9JigCh5iGBjHsFibJf/R9YMK2zBtVsgEL
genfc5mClR34HcjxtsqnZOnboklVBB2oVxI2i++9RPkYaJagMOXkETVf+cETECq3
gcBi5xOpO5+yizwi9qJk7NB0USMv2LbqmLz0Jol25x0US3skSudyILqPllg9Znd3
cjVvj2qHuMIF6SmwmPCaTWm+sJXL/ZCndCrg36R5WcSfgsf2e406jHMZZFjImCT4
k2USYQeMb0kan5bhjCdog9SY+V1iUSD+li0ouw==
-----END CERTIFICATE-----
