Certificate:
    Data:
        Version: 3 (0x2)
        Serial Number:
            2b:ec:0a:ba:56:24:42:1d:5c:63:ad:59:31:46:b1:15
        Signature Algorithm: sha256WithRSAEncryption
        Issuer: CN=team26-net
        Validity
            Not Before: Nov  4 10:40:43 2023 GMT
            Not After : Oct 19 10:40:43 2026 GMT
        Subject: CN=team26-client
        Subject Public Key Info:
            Public Key Algorithm: rsaEncryption
                Public-Key: (2048 bit)
                Modulus:
                    00:99:18:11:9e:2c:ed:d7:1c:f1:67:c4:3c:e2:c9:
                    2e:c6:5b:f5:68:c9:a0:83:dc:42:ca:48:34:8c:23:
                    a2:26:4c:d7:02:dc:f4:e2:6e:f5:2f:ee:ee:51:be:
                    67:9b:78:ac:ff:d8:45:a8:8d:17:79:07:3b:35:27:
                    e2:2f:8e:ed:6b:9a:f9:b3:7e:6c:7c:fd:1f:a8:1e:
                    88:e5:d8:9d:9f:33:b8:f7:25:7f:57:52:2e:ce:df:
                    72:24:18:61:8d:c8:fa:b4:0b:9e:c5:2b:6d:a3:5c:
                    c9:41:c6:6e:86:63:cd:94:0f:5e:e6:38:85:a2:77:
                    c6:b4:09:0a:28:5b:b4:da:c1:e5:a7:1c:3f:53:cd:
                    63:0c:67:b1:35:26:0c:0d:e6:37:3e:2d:73:2d:08:
                    b8:3c:ed:78:8f:18:41:77:d9:6f:ad:85:82:95:97:
                    bc:bc:40:cb:95:9e:0d:9c:fd:01:e5:7c:9d:e3:68:
                    4c:79:b2:53:10:62:6e:d6:a0:cf:53:df:a2:54:07:
                    5f:cc:c8:8a:c6:58:83:5e:e9:19:d5:56:9e:7c:4a:
                    88:9c:0f:c0:d9:0f:c5:f2:cc:eb:53:02:9d:e6:3f:
                    9d:78:f6:75:6e:ff:c4:d6:a5:96:8d:28:3a:1b:2b:
                    7c:00:7c:4d:4b:37:6c:63:4c:70:8b:93:5b:a5:55:
                    d3:c9
                Exponent: 65537 (0x10001)
        X509v3 extensions:
            X509v3 Basic Constraints: 
                CA:FALSE
            X509v3 Subject Key Identifier: 
                67:07:E8:A6:06:5C:2B:46:28:AF:F7:F8:AC:15:7B:1B:D5:03:5F:51
            X509v3 Authority Key Identifier: 
                keyid:A8:2B:2C:D4:F6:4B:18:C7:8E:F1:C9:11:71:76:3B:0B:8A:02:A2:DD
                DirName:/CN=team26-net
                serial:17:9B:1E:B0:BE:10:87:41:9F:F4:1B:60:5B:B8:73:E5:A4:D1:8E:8C
            X509v3 Extended Key Usage: 
                TLS Web Client Authentication
            X509v3 Key Usage: 
                Digital Signature
    Signature Algorithm: sha256WithRSAEncryption
    Signature Value:
        8d:c3:4b:17:d2:e9:50:8f:6c:56:aa:3c:e9:60:55:b1:d7:16:
        91:29:ed:cd:67:6c:92:ae:0c:c3:91:65:d9:16:b3:a2:8f:fe:
        31:5b:f3:3b:3c:da:55:2a:91:d9:a7:38:d5:e7:fa:40:24:07:
        83:6c:4a:73:de:5b:03:be:c1:e5:cc:20:3a:4f:29:8d:17:b3:
        e9:46:52:08:76:d1:94:03:5c:90:e1:91:48:98:52:fd:d0:7a:
        75:0d:25:60:48:b9:a0:9b:34:e9:2e:81:8d:5c:82:10:06:07:
        a2:4a:b3:d6:92:b1:fb:54:2e:a3:a0:72:81:93:5a:b6:ca:05:
        b4:8f:5d:04:98:a6:a6:87:16:c5:b9:e0:b2:0d:ba:e4:60:16:
        e6:99:29:96:93:9a:68:d1:f4:af:c2:48:95:07:11:18:d3:3c:
        7a:93:36:bd:bc:17:e8:80:b1:21:75:08:4a:84:b9:47:0f:fa:
        80:e6:43:4c:3a:c8:1f:3c:fb:54:25:70:50:fc:eb:9b:24:fb:
        1b:c9:1c:48:d6:ac:c1:0f:3c:d5:8f:c9:29:dd:9d:73:87:8b:
        9d:cd:10:9d:06:86:bc:78:f1:d0:ae:e8:47:73:e5:f4:b1:57:
        d5:33:11:53:77:c5:75:86:73:69:0d:74:a0:21:78:01:f1:1c:
        a1:38:39:eb
-----BEGIN CERTIFICATE-----
MIIDWTCCAkGgAwIBAgIQK+wKulYkQh1cY61ZMUaxFTANBgkqhkiG9w0BAQsFADAV
MRMwEQYDVQQDDAp0ZWFtMjYtbmV0MB4XDTIzMTEwNDEwNDA0M1oXDTI2MTAxOTEw
NDA0M1owGDEWMBQGA1UEAwwNdGVhbTI2LWNsaWVudDCCASIwDQYJKoZIhvcNAQEB
BQADggEPADCCAQoCggEBAJkYEZ4s7dcc8WfEPOLJLsZb9WjJoIPcQspINIwjoiZM
1wLc9OJu9S/u7lG+Z5t4rP/YRaiNF3kHOzUn4i+O7Wua+bN+bHz9H6geiOXYnZ8z
uPclf1dSLs7fciQYYY3I+rQLnsUrbaNcyUHGboZjzZQPXuY4haJ3xrQJCihbtNrB
5accP1PNYwxnsTUmDA3mNz4tcy0IuDzteI8YQXfZb62FgpWXvLxAy5WeDZz9AeV8
neNoTHmyUxBibtagz1PfolQHX8zIisZYg17pGdVWnnxKiJwPwNkPxfLM61MCneY/
nXj2dW7/xNallo0oOhsrfAB8TUs3bGNMcIuTW6VV08kCAwEAAaOBoTCBnjAJBgNV
HRMEAjAAMB0GA1UdDgQWBBRnB+imBlwrRiiv9/isFXsb1QNfUTBQBgNVHSMESTBH
gBSoKyzU9ksYx47xyRFxdjsLigKi3aEZpBcwFTETMBEGA1UEAwwKdGVhbTI2LW5l
dIIUF5sesL4Qh0Gf9BtgW7hz5aTRjowwEwYDVR0lBAwwCgYIKwYBBQUHAwIwCwYD
VR0PBAQDAgeAMA0GCSqGSIb3DQEBCwUAA4IBAQCNw0sX0ulQj2xWqjzpYFWx1xaR
Ke3NZ2ySrgzDkWXZFrOij/4xW/M7PNpVKpHZpzjV5/pAJAeDbEpz3lsDvsHlzCA6
TymNF7PpRlIIdtGUA1yQ4ZFImFL90Hp1DSVgSLmgmzTpLoGNXIIQBgeiSrPWkrH7
VC6joHKBk1q2ygW0j10EmKamhxbFueCyDbrkYBbmmSmWk5po0fSvwkiVBxEY0zx6
kza9vBfogLEhdQhKhLlHD/qA5kNMOsgfPPtUJXBQ/OubJPsbyRxI1qzBDzzVj8kp
3Z1zh4udzRCdBoa8ePHQruhHc+X0sVfVMxFTd8V1hnNpDXSgIXgB8RyhODnr
-----END CERTIFICATE-----
