Certificate:
    Data:
        Version: 3 (0x2)
        Serial Number:
            7d:38:8d:6f:0e:4f:78:a6:d4:72:c9:50:0d:aa:b8:22
        Signature Algorithm: sha256WithRSAEncryption
        Issuer: CN=team26-net
        Validity
            Not Before: Nov  4 11:27:51 2023 GMT
            Not After : Oct 19 11:27:51 2026 GMT
        Subject: CN=team26-client
        Subject Public Key Info:
            Public Key Algorithm: rsaEncryption
                Public-Key: (2048 bit)
                Modulus:
                    00:da:f3:ed:33:88:47:5e:c1:54:6a:ba:ba:bb:6e:
                    97:8f:93:7d:f0:88:76:04:b2:14:58:cd:8f:17:af:
                    c4:11:13:dd:33:8f:a2:6b:ea:89:36:11:8e:24:2b:
                    24:21:a4:a7:88:db:1a:59:48:e7:30:6e:94:2d:bb:
                    f7:0f:cf:d6:45:6b:5d:91:2d:2c:4c:4a:a5:27:1a:
                    d4:df:fa:86:30:e0:ce:87:b4:52:a0:58:44:08:ce:
                    81:28:4f:fe:da:29:1a:6f:3c:58:65:e9:df:b6:8a:
                    dd:fd:3b:c9:eb:4b:6c:25:f4:9d:df:70:60:a8:7c:
                    1a:c4:73:da:89:46:0c:f8:28:27:26:30:b3:42:74:
                    dd:c5:3f:a3:3b:32:d0:92:74:d5:a9:39:10:3d:67:
                    6b:cf:82:af:53:36:2c:d1:2a:ea:40:45:52:71:b5:
                    1f:d6:bb:3a:5b:7b:fb:41:bd:ec:47:ca:d0:23:9d:
                    0e:61:33:eb:64:07:a7:ee:21:e4:49:31:7d:c8:93:
                    fe:55:b9:8c:6b:d5:41:67:ed:d3:09:55:83:55:8c:
                    8e:a1:0a:2d:96:e7:76:d0:a7:35:cb:f4:1e:c1:23:
                    4f:d3:c3:03:d2:a6:60:d3:2c:63:ca:91:b9:45:4d:
                    c8:29:d4:ce:57:41:77:8d:12:17:3c:4b:c2:a6:f2:
                    65:6f
                Exponent: 65537 (0x10001)
        X509v3 extensions:
            X509v3 Basic Constraints: 
                CA:FALSE
            X509v3 Subject Key Identifier: 
                C1:AD:09:AC:1B:CB:27:C1:D9:FD:7E:70:AB:56:C9:F8:69:32:15:33
            X509v3 Authority Key Identifier: 
                keyid:15:C1:B3:60:7A:92:7D:33:5A:F5:11:75:E8:7B:D9:9F:6B:A6:1E:F7
                DirName:/CN=team26-net
                serial:19:3B:16:8C:C9:70:10:EB:CE:AB:8E:93:07:4E:E7:DE:D4:FF:C1:7D
            X509v3 Extended Key Usage: 
                TLS Web Client Authentication
            X509v3 Key Usage: 
                Digital Signature
    Signature Algorithm: sha256WithRSAEncryption
    Signature Value:
        87:ab:9b:15:88:9e:4d:6c:9c:16:c5:93:8b:67:17:37:ba:60:
        b2:45:ab:9e:b0:7f:85:1f:01:09:ba:8e:fc:4a:21:ac:41:da:
        ec:c8:7b:8a:7b:61:ee:86:4d:be:75:9a:55:e0:02:77:58:fa:
        f8:93:7c:e9:e8:fa:af:ad:ee:60:b8:4c:5c:9b:0e:d2:8d:d8:
        3b:c9:f2:43:d2:07:51:8d:62:84:34:c2:1a:d7:6f:d5:88:8a:
        0a:b5:69:ca:a6:16:70:4a:6b:01:45:5a:24:e0:fd:5e:85:24:
        57:a0:e9:e4:be:b4:db:6d:9e:a8:97:75:aa:ad:a7:64:a8:5c:
        82:ba:f1:10:7c:11:50:5d:5b:7b:b8:b3:ce:f0:d0:67:75:98:
        8a:c8:d2:c1:4e:10:85:e1:4b:ad:49:f0:a7:44:43:0c:e7:58:
        c2:93:0f:14:bc:72:e7:c2:0f:ea:13:73:d6:60:65:25:25:86:
        7f:21:6d:63:a3:9f:67:44:bb:76:e3:96:71:bd:84:aa:8d:d9:
        bc:dc:23:ba:56:fe:86:10:24:69:ab:67:09:46:1c:a7:be:89:
        24:29:c4:dc:e5:fd:30:07:97:cb:fd:a4:86:14:a6:d6:be:67:
        e1:4c:f7:e3:8d:b1:fb:96:fa:95:8a:d8:88:54:f8:92:32:d7:
        9e:e5:8d:ab
-----BEGIN CERTIFICATE-----
MIIDWTCCAkGgAwIBAgIQfTiNbw5PeKbUcslQDaq4IjANBgkqhkiG9w0BAQsFADAV
MRMwEQYDVQQDDAp0ZWFtMjYtbmV0MB4XDTIzMTEwNDExMjc1MVoXDTI2MTAxOTEx
Mjc1MVowGDEWMBQGA1UEAwwNdGVhbTI2LWNsaWVudDCCASIwDQYJKoZIhvcNAQEB
BQADggEPADCCAQoCggEBANrz7TOIR17BVGq6urtul4+TffCIdgSyFFjNjxevxBET
3TOPomvqiTYRjiQrJCGkp4jbGllI5zBulC279w/P1kVrXZEtLExKpSca1N/6hjDg
zoe0UqBYRAjOgShP/topGm88WGXp37aK3f07yetLbCX0nd9wYKh8GsRz2olGDPgo
JyYws0J03cU/ozsy0JJ01ak5ED1na8+Cr1M2LNEq6kBFUnG1H9a7Olt7+0G97EfK
0COdDmEz62QHp+4h5EkxfciT/lW5jGvVQWft0wlVg1WMjqEKLZbndtCnNcv0HsEj
T9PDA9KmYNMsY8qRuUVNyCnUzldBd40SFzxLwqbyZW8CAwEAAaOBoTCBnjAJBgNV
HRMEAjAAMB0GA1UdDgQWBBTBrQmsG8snwdn9fnCrVsn4aTIVMzBQBgNVHSMESTBH
gBQVwbNgepJ9M1r1EXXoe9mfa6Ye96EZpBcwFTETMBEGA1UEAwwKdGVhbTI2LW5l
dIIUGTsWjMlwEOvOq46TB07n3tT/wX0wEwYDVR0lBAwwCgYIKwYBBQUHAwIwCwYD
VR0PBAQDAgeAMA0GCSqGSIb3DQEBCwUAA4IBAQCHq5sViJ5NbJwWxZOLZxc3umCy
RauesH+FHwEJuo78SiGsQdrsyHuKe2Huhk2+dZpV4AJ3WPr4k3zp6Pqvre5guExc
mw7Sjdg7yfJD0gdRjWKENMIa12/ViIoKtWnKphZwSmsBRVok4P1ehSRXoOnkvrTb
bZ6ol3WqradkqFyCuvEQfBFQXVt7uLPO8NBndZiKyNLBThCF4UutSfCnREMM51jC
kw8UvHLnwg/qE3PWYGUlJYZ/IW1jo59nRLt245ZxvYSqjdm83CO6Vv6GECRpq2cJ
RhynvokkKcTc5f0wB5fL/aSGFKbWvmfhTPfjjbH7lvqVitiIVPiSMtee5Y2r
-----END CERTIFICATE-----
