Certificate:
    Data:
        Version: 3 (0x2)
        Serial Number:
            94:97:41:0c:05:1d:5a:ad:5d:ce:5a:cb:47:a4:9d:f4
        Signature Algorithm: sha256WithRSAEncryption
        Issuer: CN=team26-net
        Validity
            Not Before: Nov  3 20:39:43 2023 GMT
            Not After : Oct 18 20:39:43 2026 GMT
        Subject: CN=team26-server
        Subject Public Key Info:
            Public Key Algorithm: rsaEncryption
                Public-Key: (2048 bit)
                Modulus:
                    00:9f:1d:32:4a:bd:75:84:3e:43:ba:e6:c5:b1:81:
                    91:8c:8f:b6:51:81:66:ad:ad:d2:b5:aa:58:cb:a3:
                    f1:4a:ef:f3:df:11:11:94:e7:5e:95:61:ed:7a:14:
                    04:6e:63:6c:c4:5d:aa:09:0f:fc:45:4e:21:d5:6e:
                    61:4d:a7:7c:df:d3:1e:8b:94:a5:f9:c0:8a:20:2f:
                    70:21:a4:e1:14:dc:59:84:bd:fa:87:cc:43:3a:81:
                    1d:e0:c6:79:8a:f5:a3:a3:99:f6:af:41:30:e3:12:
                    82:56:e3:c5:3f:33:53:9c:19:25:a6:7f:2f:f2:c3:
                    fa:0c:36:bb:20:c0:67:e5:4b:7b:ea:8b:da:f9:05:
                    20:72:6c:16:28:7f:4e:2b:6d:69:4e:7d:da:54:94:
                    8a:34:0f:b5:c9:16:16:50:96:fc:49:c8:f6:dc:16:
                    d8:e2:90:9c:f6:bc:dd:14:ee:58:e8:ad:a1:7f:9b:
                    78:d8:91:c3:16:22:b3:d3:4e:92:f2:0e:5c:2d:75:
                    8c:f9:e5:3e:b6:51:af:69:38:9a:71:2c:c7:40:cb:
                    a5:cf:41:27:53:92:c2:ab:6f:cd:84:ec:c3:ec:4d:
                    e4:16:83:87:83:0e:b9:74:c5:17:cc:44:7c:69:35:
                    ae:28:55:a0:b1:77:01:19:03:3d:71:14:f3:8b:56:
                    16:a3
                Exponent: 65537 (0x10001)
        X509v3 extensions:
            X509v3 Basic Constraints: 
                CA:FALSE
            X509v3 Subject Key Identifier: 
                D8:DA:CD:AD:D5:A2:ED:EF:4A:33:5D:DD:6F:63:CA:12:2C:92:73:D7
            X509v3 Authority Key Identifier: 
                keyid:FD:63:4D:DB:13:F5:B7:B1:21:AB:AC:37:E4:7B:FE:8C:F1:BB:CD:A4
                DirName:/CN=team26-net
                serial:64:E7:CA:A9:3C:56:03:B2:AC:8C:C8:17:78:16:BA:93:FB:3E:0B:03
            X509v3 Extended Key Usage: 
                TLS Web Server Authentication
            X509v3 Key Usage: 
                Digital Signature, Key Encipherment
            X509v3 Subject Alternative Name: 
                DNS:team26-server
    Signature Algorithm: sha256WithRSAEncryption
    Signature Value:
        10:98:ac:f2:8a:58:27:18:77:bd:34:c6:bb:e6:8e:cd:bb:cb:
        0a:29:44:c7:e0:d0:70:da:46:89:ec:4d:75:c9:bd:cf:cb:ca:
        15:60:61:71:0f:a8:ad:e4:d8:83:38:64:f2:49:1b:d0:94:dd:
        56:a9:af:87:d1:e1:1b:ff:28:3c:01:fe:ce:1d:c4:ff:4d:ae:
        3e:4b:44:f6:72:80:91:b4:99:c6:5f:4c:ab:a8:a9:b0:c2:95:
        32:b0:cb:60:4b:1b:46:0c:17:3b:63:72:2b:3b:9b:bc:ad:ec:
        da:d1:89:4e:ae:08:38:34:cb:66:73:ca:11:1d:25:51:cc:a5:
        76:5b:b7:36:1a:f9:a5:32:ad:86:b9:3a:12:db:1d:96:22:b0:
        c4:3b:4e:0e:39:6a:96:b3:08:55:2b:3d:9f:67:f1:40:d3:e8:
        5d:85:1c:a1:e0:da:ad:e0:78:06:0c:70:23:24:cf:8e:ab:c6:
        aa:89:ff:25:c3:d6:2a:48:eb:a3:96:18:00:29:e5:be:91:e2:
        ae:e7:e2:37:a4:0a:41:31:b3:24:ca:ff:c2:6b:3a:2f:6a:54:
        22:cf:68:51:81:92:33:fc:11:c0:ce:30:bf:55:57:da:3f:a3:
        a3:05:b3:7e:f0:fa:7c:7f:89:ed:dc:d6:ff:8c:92:13:75:8c:
        ae:73:4b:b1
-----BEGIN CERTIFICATE-----
MIIDdDCCAlygAwIBAgIRAJSXQQwFHVqtXc5ay0eknfQwDQYJKoZIhvcNAQELBQAw
FTETMBEGA1UEAwwKdGVhbTI2LW5ldDAeFw0yMzExMDMyMDM5NDNaFw0yNjEwMTgy
MDM5NDNaMBgxFjAUBgNVBAMMDXRlYW0yNi1zZXJ2ZXIwggEiMA0GCSqGSIb3DQEB
AQUAA4IBDwAwggEKAoIBAQCfHTJKvXWEPkO65sWxgZGMj7ZRgWatrdK1qljLo/FK
7/PfERGU516VYe16FARuY2zEXaoJD/xFTiHVbmFNp3zf0x6LlKX5wIogL3AhpOEU
3FmEvfqHzEM6gR3gxnmK9aOjmfavQTDjEoJW48U/M1OcGSWmfy/yw/oMNrsgwGfl
S3vqi9r5BSBybBYof04rbWlOfdpUlIo0D7XJFhZQlvxJyPbcFtjikJz2vN0U7ljo
raF/m3jYkcMWIrPTTpLyDlwtdYz55T62Ua9pOJpxLMdAy6XPQSdTksKrb82E7MPs
TeQWg4eDDrl0xRfMRHxpNa4oVaCxdwEZAz1xFPOLVhajAgMBAAGjgbswgbgwCQYD
VR0TBAIwADAdBgNVHQ4EFgQU2NrNrdWi7e9KM13db2PKEiySc9cwUAYDVR0jBEkw
R4AU/WNN2xP1t7Ehq6w35Hv+jPG7zaShGaQXMBUxEzARBgNVBAMMCnRlYW0yNi1u
ZXSCFGTnyqk8VgOyrIzIF3gWupP7PgsDMBMGA1UdJQQMMAoGCCsGAQUFBwMBMAsG
A1UdDwQEAwIFoDAYBgNVHREEETAPgg10ZWFtMjYtc2VydmVyMA0GCSqGSIb3DQEB
CwUAA4IBAQAQmKzyilgnGHe9NMa75o7Nu8sKKUTH4NBw2kaJ7E11yb3Py8oVYGFx
D6it5NiDOGTySRvQlN1Wqa+H0eEb/yg8Af7OHcT/Ta4+S0T2coCRtJnGX0yrqKmw
wpUysMtgSxtGDBc7Y3IrO5u8reza0YlOrgg4NMtmc8oRHSVRzKV2W7c2GvmlMq2G
uToS2x2WIrDEO04OOWqWswhVKz2fZ/FA0+hdhRyh4Nqt4HgGDHAjJM+Oq8aqif8l
w9YqSOujlhgAKeW+keKu5+I3pApBMbMkyv/CazovalQiz2hRgZIz/BHAzjC/VVfa
P6OjBbN+8Pp8f4nt3Nb/jJITdYyuc0ux
-----END CERTIFICATE-----
