Certificate:
    Data:
        Version: 3 (0x2)
        Serial Number:
            b3:bc:b7:55:47:39:ec:c1:d6:f6:14:64:e8:6f:30:0e
        Signature Algorithm: sha256WithRSAEncryption
        Issuer: CN=team26-net
        Validity
            Not Before: Nov  4 10:40:43 2023 GMT
            Not After : Oct 19 10:40:43 2026 GMT
        Subject: CN=team26-server
        Subject Public Key Info:
            Public Key Algorithm: rsaEncryption
                Public-Key: (2048 bit)
                Modulus:
                    00:ab:ca:92:0e:58:30:83:c3:e0:62:13:9b:c5:76:
                    49:4f:f5:c2:f3:bb:41:eb:78:ab:94:f3:e3:f5:b8:
                    d6:31:b2:33:25:58:db:da:7d:ac:21:59:19:56:c6:
                    77:13:f4:e0:d8:8e:f6:4a:c4:10:cb:70:91:95:27:
                    87:e4:f8:79:92:2f:46:72:95:cf:a3:52:7d:42:13:
                    94:85:dd:19:3c:0c:91:73:85:0c:43:d4:10:53:9d:
                    a9:99:c6:58:4d:cb:96:19:5d:af:ae:8b:5c:bc:67:
                    c9:9b:d2:4c:a6:a5:af:75:f0:5d:17:53:80:83:5e:
                    52:60:04:9d:be:35:86:4e:fc:8e:7f:67:79:22:73:
                    36:37:1d:6c:91:6e:00:8b:b3:9c:e9:cb:3f:19:33:
                    32:80:0d:46:42:23:28:c2:22:87:b0:cf:74:62:e6:
                    30:d2:ea:5d:f0:d1:bb:f4:97:29:02:c8:9c:80:29:
                    58:ea:37:72:1f:9a:76:19:7e:17:78:96:d8:b0:ac:
                    ff:d6:3e:b1:7a:11:6e:34:de:34:a3:95:86:9c:a6:
                    7f:01:36:07:48:39:46:66:50:e5:24:66:21:c1:17:
                    d8:7a:e1:14:6e:2f:07:78:e8:05:28:8f:d6:3e:48:
                    97:95:cf:87:06:30:f4:0b:db:18:c2:05:88:ae:f8:
                    20:85
                Exponent: 65537 (0x10001)
        X509v3 extensions:
            X509v3 Basic Constraints: 
                CA:FALSE
            X509v3 Subject Key Identifier: 
                45:F9:F8:FF:66:02:CE:18:3A:B0:9C:84:8E:37:98:3D:D5:9B:F2:71
            X509v3 Authority Key Identifier: 
                keyid:A8:2B:2C:D4:F6:4B:18:C7:8E:F1:C9:11:71:76:3B:0B:8A:02:A2:DD
                DirName:/CN=team26-net
                serial:17:9B:1E:B0:BE:10:87:41:9F:F4:1B:60:5B:B8:73:E5:A4:D1:8E:8C
            X509v3 Extended Key Usage: 
                TLS Web Server Authentication
            X509v3 Key Usage: 
                Digital Signature, Key Encipherment
            X509v3 Subject Alternative Name: 
                DNS:team26-server
    Signature Algorithm: sha256WithRSAEncryption
    Signature Value:
        05:2b:f0:78:6e:4f:90:86:6d:c2:0d:ba:a8:f3:b0:db:58:e3:
        82:3a:61:12:49:2b:e8:01:75:58:c8:0a:a9:9b:c1:a3:85:3f:
        f6:84:83:a8:52:60:bf:8a:41:95:eb:23:40:c9:bf:57:46:be:
        8d:e8:12:f0:7c:fa:f4:19:f2:57:57:f0:c2:97:8d:55:c5:73:
        fa:fd:ff:45:29:18:d0:4d:c8:f5:3a:5e:6b:6a:67:0b:86:ed:
        33:d9:6f:96:31:dd:63:53:9d:ef:99:7a:1a:9e:c0:2c:12:46:
        00:28:64:20:f5:a5:29:10:51:d5:39:21:b4:8b:67:9c:f6:35:
        5c:56:02:bf:42:97:63:17:24:74:ee:11:95:4d:88:c5:a8:49:
        91:5e:16:ea:76:aa:ec:c0:31:9a:e2:53:b6:dc:1f:31:af:a1:
        24:92:d5:bb:bb:b3:5b:ed:35:c1:4c:dc:84:f5:27:88:2d:e0:
        82:dd:68:0b:f4:7f:a6:cc:7a:ee:9e:de:f1:20:bb:2e:09:bb:
        10:9e:ee:2e:79:d6:47:79:f8:d8:af:97:5c:47:f0:1f:f3:09:
        b8:25:77:b5:6c:85:08:e0:57:c0:7c:af:32:7f:a3:00:c6:f7:
        27:ed:e3:6b:da:25:af:9b:d5:55:96:73:da:e4:e7:a0:64:fd:
        36:f0:e7:8f
-----BEGIN CERTIFICATE-----
MIIDdDCCAlygAwIBAgIRALO8t1VHOezB1vYUZOhvMA4wDQYJKoZIhvcNAQELBQAw
FTETMBEGA1UEAwwKdGVhbTI2LW5ldDAeFw0yMzExMDQxMDQwNDNaFw0yNjEwMTkx
MDQwNDNaMBgxFjAUBgNVBAMMDXRlYW0yNi1zZXJ2ZXIwggEiMA0GCSqGSIb3DQEB
AQUAA4IBDwAwggEKAoIBAQCrypIOWDCDw+BiE5vFdklP9cLzu0HreKuU8+P1uNYx
sjMlWNvafawhWRlWxncT9ODYjvZKxBDLcJGVJ4fk+HmSL0Zylc+jUn1CE5SF3Rk8
DJFzhQxD1BBTnamZxlhNy5YZXa+ui1y8Z8mb0kympa918F0XU4CDXlJgBJ2+NYZO
/I5/Z3kiczY3HWyRbgCLs5zpyz8ZMzKADUZCIyjCIoewz3Ri5jDS6l3w0bv0lykC
yJyAKVjqN3IfmnYZfhd4ltiwrP/WPrF6EW403jSjlYacpn8BNgdIOUZmUOUkZiHB
F9h64RRuLwd46AUoj9Y+SJeVz4cGMPQL2xjCBYiu+CCFAgMBAAGjgbswgbgwCQYD
VR0TBAIwADAdBgNVHQ4EFgQURfn4/2YCzhg6sJyEjjeYPdWb8nEwUAYDVR0jBEkw
R4AUqCss1PZLGMeO8ckRcXY7C4oCot2hGaQXMBUxEzARBgNVBAMMCnRlYW0yNi1u
ZXSCFBebHrC+EIdBn/QbYFu4c+Wk0Y6MMBMGA1UdJQQMMAoGCCsGAQUFBwMBMAsG
A1UdDwQEAwIFoDAYBgNVHREEETAPgg10ZWFtMjYtc2VydmVyMA0GCSqGSIb3DQEB
CwUAA4IBAQAFK/B4bk+Qhm3CDbqo87DbWOOCOmESSSvoAXVYyAqpm8GjhT/2hIOo
UmC/ikGV6yNAyb9XRr6N6BLwfPr0GfJXV/DCl41VxXP6/f9FKRjQTcj1Ol5ramcL
hu0z2W+WMd1jU53vmXoansAsEkYAKGQg9aUpEFHVOSG0i2ec9jVcVgK/QpdjFyR0
7hGVTYjFqEmRXhbqdqrswDGa4lO23B8xr6EkktW7u7Nb7TXBTNyE9SeILeCC3WgL
9H+mzHrunt7xILsuCbsQnu4uedZHefjYr5dcR/Af8wm4JXe1bIUI4FfAfK8yf6MA
xvcn7eNr2iWvm9VVlnPa5OegZP028OeP
-----END CERTIFICATE-----
