Certificate:
    Data:
        Version: 3 (0x2)
        Serial Number:
            d1:38:77:c1:75:da:10:71:9c:35:c8:cf:68:60:ee:61
        Signature Algorithm: sha256WithRSAEncryption
        Issuer: CN=team26-net
        Validity
            Not Before: Nov  4 11:27:51 2023 GMT
            Not After : Oct 19 11:27:51 2026 GMT
        Subject: CN=team26-server
        Subject Public Key Info:
            Public Key Algorithm: rsaEncryption
                Public-Key: (2048 bit)
                Modulus:
                    00:ae:07:30:5f:78:7b:be:3a:89:80:b4:86:d4:c8:
                    31:77:74:1e:39:75:8a:d6:41:ff:b6:23:38:24:b0:
                    96:47:3a:47:25:c6:9f:2f:1c:e2:3f:08:e0:60:dd:
                    b4:ba:9c:80:10:3f:7b:a2:d6:ae:50:48:46:46:29:
                    45:ef:e8:d4:2b:fc:ef:9a:24:29:c9:23:ef:9d:66:
                    fa:cf:28:1d:78:97:a3:25:3d:ab:d9:57:93:dc:64:
                    fe:08:b3:90:4d:dc:8d:8f:f1:e9:75:f0:a7:72:08:
                    01:49:73:5e:ee:8d:70:ff:72:05:77:36:b5:eb:2f:
                    6a:54:1e:30:8b:a3:b2:c7:cc:c5:02:67:c2:73:95:
                    cf:98:be:1a:a4:8d:71:8e:d6:8c:65:9a:e9:70:d2:
                    a0:79:e9:31:a0:16:38:38:e7:3a:3f:b0:b2:e5:26:
                    18:12:ed:3a:c1:b3:bb:76:ca:99:e6:b4:38:ab:9b:
                    f2:71:1e:c5:92:5b:c3:7d:8d:28:3a:dd:da:e8:b2:
                    c2:a1:ce:8e:fc:54:b9:37:0f:2a:bc:16:d4:5c:e4:
                    4c:c4:33:c1:e4:4a:f0:2e:c0:ec:44:44:01:f0:d7:
                    76:e4:fe:82:41:78:ed:0a:29:c9:2e:05:3b:c7:da:
                    8c:78:08:06:65:92:ce:07:14:b9:70:4f:c4:67:a9:
                    2c:bd
                Exponent: 65537 (0x10001)
        X509v3 extensions:
            X509v3 Basic Constraints: 
                CA:FALSE
            X509v3 Subject Key Identifier: 
                A3:8B:29:87:D9:D8:D5:B4:F9:8C:8F:6E:85:8B:37:77:A9:CF:DB:6D
            X509v3 Authority Key Identifier: 
                keyid:15:C1:B3:60:7A:92:7D:33:5A:F5:11:75:E8:7B:D9:9F:6B:A6:1E:F7
                DirName:/CN=team26-net
                serial:19:3B:16:8C:C9:70:10:EB:CE:AB:8E:93:07:4E:E7:DE:D4:FF:C1:7D
            X509v3 Extended Key Usage: 
                TLS Web Server Authentication
            X509v3 Key Usage: 
                Digital Signature, Key Encipherment
            X509v3 Subject Alternative Name: 
                DNS:team26-server
    Signature Algorithm: sha256WithRSAEncryption
    Signature Value:
        ab:0e:14:ed:0a:62:71:de:a4:50:fd:45:91:31:c0:27:05:27:
        8e:3a:af:28:d3:39:cf:3b:d0:13:6f:2a:93:d2:b0:76:ef:d9:
        ff:48:d0:29:f7:db:2d:1e:e6:6d:97:be:6f:68:9f:1d:a1:13:
        b0:56:1a:df:8d:f0:6e:20:ce:fd:75:da:db:45:b6:2d:28:f1:
        71:d1:9d:52:0b:c4:95:12:c9:c0:da:1a:a2:45:92:9f:7a:c9:
        10:dd:26:17:d8:a9:d4:58:12:44:07:78:23:ae:f9:2d:68:a8:
        86:c9:0a:bb:20:4f:83:c5:65:20:22:fc:6d:66:89:1d:b3:a6:
        04:ee:37:6d:1a:16:79:5a:e5:cd:8d:9b:fd:2c:99:73:09:99:
        9b:7b:c5:78:d3:9c:53:99:c0:9c:6e:79:9d:f9:4f:ee:0f:31:
        93:3d:0b:a7:76:15:9d:be:4d:4a:47:26:a8:76:42:b4:ef:82:
        97:72:3c:99:e6:17:a6:6f:80:79:07:61:34:da:33:f1:1b:71:
        c9:55:43:98:95:21:56:1a:74:c9:5e:57:f0:8f:d5:b4:5a:d3:
        b7:97:ad:f4:c9:2f:2d:fb:5a:a7:06:50:c2:53:11:1f:0d:e2:
        f0:ec:5f:05:c9:df:35:d8:4c:79:52:fb:01:63:db:fd:df:fe:
        9b:66:de:54
-----BEGIN CERTIFICATE-----
MIIDdDCCAlygAwIBAgIRANE4d8F12hBxnDXIz2hg7mEwDQYJKoZIhvcNAQELBQAw
FTETMBEGA1UEAwwKdGVhbTI2LW5ldDAeFw0yMzExMDQxMTI3NTFaFw0yNjEwMTkx
MTI3NTFaMBgxFjAUBgNVBAMMDXRlYW0yNi1zZXJ2ZXIwggEiMA0GCSqGSIb3DQEB
AQUAA4IBDwAwggEKAoIBAQCuBzBfeHu+OomAtIbUyDF3dB45dYrWQf+2IzgksJZH
Okclxp8vHOI/COBg3bS6nIAQP3ui1q5QSEZGKUXv6NQr/O+aJCnJI++dZvrPKB14
l6MlPavZV5PcZP4Is5BN3I2P8el18KdyCAFJc17ujXD/cgV3NrXrL2pUHjCLo7LH
zMUCZ8Jzlc+YvhqkjXGO1oxlmulw0qB56TGgFjg45zo/sLLlJhgS7TrBs7t2ypnm
tDirm/JxHsWSW8N9jSg63drossKhzo78VLk3Dyq8FtRc5EzEM8HkSvAuwOxERAHw
13bk/oJBeO0KKckuBTvH2ox4CAZlks4HFLlwT8RnqSy9AgMBAAGjgbswgbgwCQYD
VR0TBAIwADAdBgNVHQ4EFgQUo4sph9nY1bT5jI9uhYs3d6nP220wUAYDVR0jBEkw
R4AUFcGzYHqSfTNa9RF16HvZn2umHvehGaQXMBUxEzARBgNVBAMMCnRlYW0yNi1u
ZXSCFBk7FozJcBDrzquOkwdO597U/8F9MBMGA1UdJQQMMAoGCCsGAQUFBwMBMAsG
A1UdDwQEAwIFoDAYBgNVHREEETAPgg10ZWFtMjYtc2VydmVyMA0GCSqGSIb3DQEB
CwUAA4IBAQCrDhTtCmJx3qRQ/UWRMcAnBSeOOq8o0znPO9ATbyqT0rB279n/SNAp
99stHuZtl75vaJ8doROwVhrfjfBuIM79ddrbRbYtKPFx0Z1SC8SVEsnA2hqiRZKf
eskQ3SYX2KnUWBJEB3gjrvktaKiGyQq7IE+DxWUgIvxtZokds6YE7jdtGhZ5WuXN
jZv9LJlzCZmbe8V405xTmcCcbnmd+U/uDzGTPQundhWdvk1KRyaodkK074KXcjyZ
5hemb4B5B2E02jPxG3HJVUOYlSFWGnTJXlfwj9W0WtO3l630yS8t+1qnBlDCUxEf
DeLw7F8Fyd812Ex5UvsBY9v93/6bZt5U
-----END CERTIFICATE-----
