Certificate:
    Data:
        Version: 3 (0x2)
        Serial Number:
            ef:a1:75:ef:77:2c:be:99:2e:f0:d1:65:cf:34:a4:f2
        Signature Algorithm: sha256WithRSAEncryption
        Issuer: CN=team26-net
        Validity
            Not Before: Nov  3 20:39:42 2023 GMT
            Not After : Oct 18 20:39:42 2026 GMT
        Subject: CN=team26-client
        Subject Public Key Info:
            Public Key Algorithm: rsaEncryption
                Public-Key: (2048 bit)
                Modulus:
                    00:b5:ef:71:fe:04:69:79:a0:88:44:a7:00:b2:3c:
                    80:a5:b2:ac:5a:55:00:b5:7f:25:19:9f:68:aa:a4:
                    76:78:da:30:29:f6:17:1b:12:99:2b:8a:00:d2:f4:
                    6d:d8:c9:50:86:e5:15:59:67:a6:f9:51:33:48:de:
                    42:f6:4f:d5:4f:38:d2:5f:db:dd:cf:2d:56:ca:9e:
                    57:23:fd:55:90:b8:a9:6b:a5:78:4e:0f:52:35:c2:
                    e5:b0:67:9c:88:c3:16:b3:30:e5:34:a2:53:b6:29:
                    e9:6e:37:59:07:d0:06:0f:4c:a1:3e:cd:6e:ae:f4:
                    ac:ff:72:40:a4:64:e4:3d:49:30:d6:4f:8e:3c:09:
                    bb:13:3a:ac:f4:55:2f:49:96:61:98:1c:83:db:43:
                    2f:86:ba:73:6f:64:8f:b7:6c:63:bf:90:0f:5d:a4:
                    e5:bc:31:cd:06:0e:e3:54:5a:25:79:7d:41:e0:fd:
                    35:82:88:5a:1b:0c:77:79:24:78:33:73:95:19:9e:
                    cd:31:1e:86:f3:10:e1:4b:2a:b1:b0:0d:83:1f:bc:
                    69:2a:20:00:a1:5d:03:2a:5b:80:97:2a:51:0c:bc:
                    9e:31:4d:b4:2e:69:06:77:cc:b2:86:c6:3f:02:17:
                    c4:c7:02:5f:ff:01:6d:0a:2f:c4:b6:3d:0d:7f:ae:
                    c6:4f
                Exponent: 65537 (0x10001)
        X509v3 extensions:
            X509v3 Basic Constraints: 
                CA:FALSE
            X509v3 Subject Key Identifier: 
                84:9A:40:A7:35:34:39:4D:8D:6B:E7:B4:49:75:76:8A:49:6B:AC:D3
            X509v3 Authority Key Identifier: 
                keyid:FD:63:4D:DB:13:F5:B7:B1:21:AB:AC:37:E4:7B:FE:8C:F1:BB:CD:A4
                DirName:/CN=team26-net
                serial:64:E7:CA:A9:3C:56:03:B2:AC:8C:C8:17:78:16:BA:93:FB:3E:0B:03
            X509v3 Extended Key Usage: 
                TLS Web Client Authentication
            X509v3 Key Usage: 
                Digital Signature
    Signature Algorithm: sha256WithRSAEncryption
    Signature Value:
        71:02:fd:90:1e:9c:65:92:8c:97:c1:3c:c8:84:ff:76:29:19:
        d4:0e:e8:fc:d5:f3:da:22:20:ef:16:d2:ce:da:7b:94:d1:1f:
        cd:fe:4b:9f:ed:ca:c5:a7:f7:eb:35:bd:72:be:cc:58:55:ff:
        17:09:c3:4a:3d:5d:39:1b:00:c8:b3:22:b0:1a:0b:f7:9b:15:
        3f:d6:db:b1:d9:22:2a:dc:2f:f0:58:45:f2:2f:2f:6f:66:fa:
        be:69:4b:1b:99:e6:48:3e:fc:ed:7e:f3:3f:5e:ec:f1:c2:e3:
        dd:fb:4e:9e:f6:26:66:32:9c:a0:60:df:f3:7b:77:42:f4:69:
        f3:0f:16:4c:f2:2f:07:c6:d1:0c:91:8e:d6:b2:33:04:ad:78:
        fe:22:28:33:54:93:a5:9e:8c:dc:a7:f6:f8:6b:bd:c4:42:9f:
        93:b9:58:fa:41:1a:40:77:aa:96:20:28:b2:c8:07:59:30:43:
        46:6e:3f:d6:93:f6:44:fb:d5:4f:ba:69:44:af:54:84:85:ab:
        47:b0:b5:ed:be:36:53:c2:aa:3e:b7:ea:b5:24:36:d5:f6:05:
        0c:b6:48:7c:bb:65:f2:5a:24:e5:79:8a:48:2a:6a:c7:ed:ac:
        b6:bb:cd:da:65:fd:42:96:4d:18:9c:2f:11:27:7b:bf:35:d0:
        46:dd:e9:7f
-----BEGIN CERTIFICATE-----
MIIDWjCCAkKgAwIBAgIRAO+hde93LL6ZLvDRZc80pPIwDQYJKoZIhvcNAQELBQAw
FTETMBEGA1UEAwwKdGVhbTI2LW5ldDAeFw0yMzExMDMyMDM5NDJaFw0yNjEwMTgy
MDM5NDJaMBgxFjAUBgNVBAMMDXRlYW0yNi1jbGllbnQwggEiMA0GCSqGSIb3DQEB
AQUAA4IBDwAwggEKAoIBAQC173H+BGl5oIhEpwCyPIClsqxaVQC1fyUZn2iqpHZ4
2jAp9hcbEpkrigDS9G3YyVCG5RVZZ6b5UTNI3kL2T9VPONJf293PLVbKnlcj/VWQ
uKlrpXhOD1I1wuWwZ5yIwxazMOU0olO2KeluN1kH0AYPTKE+zW6u9Kz/ckCkZOQ9
STDWT448CbsTOqz0VS9JlmGYHIPbQy+GunNvZI+3bGO/kA9dpOW8Mc0GDuNUWiV5
fUHg/TWCiFobDHd5JHgzc5UZns0xHobzEOFLKrGwDYMfvGkqIAChXQMqW4CXKlEM
vJ4xTbQuaQZ3zLKGxj8CF8THAl//AW0KL8S2PQ1/rsZPAgMBAAGjgaEwgZ4wCQYD
VR0TBAIwADAdBgNVHQ4EFgQUhJpApzU0OU2Na+e0SXV2iklrrNMwUAYDVR0jBEkw
R4AU/WNN2xP1t7Ehq6w35Hv+jPG7zaShGaQXMBUxEzARBgNVBAMMCnRlYW0yNi1u
ZXSCFGTnyqk8VgOyrIzIF3gWupP7PgsDMBMGA1UdJQQMMAoGCCsGAQUFBwMCMAsG
A1UdDwQEAwIHgDANBgkqhkiG9w0BAQsFAAOCAQEAcQL9kB6cZZKMl8E8yIT/dikZ
1A7o/NXz2iIg7xbSztp7lNEfzf5Ln+3Kxaf36zW9cr7MWFX/FwnDSj1dORsAyLMi
sBoL95sVP9bbsdkiKtwv8FhF8i8vb2b6vmlLG5nmSD787X7zP17s8cLj3ftOnvYm
ZjKcoGDf83t3QvRp8w8WTPIvB8bRDJGO1rIzBK14/iIoM1STpZ6M3Kf2+Gu9xEKf
k7lY+kEaQHeqliAossgHWTBDRm4/1pP2RPvVT7ppRK9UhIWrR7C17b42U8KqPrfq
tSQ21fYFDLZIfLtl8lok5XmKSCpqx+2strvN2mX9QpZNGJwvESd7vzXQRt3pfw==
-----END CERTIFICATE-----
