Certificate:
    Data:
        Version: 3 (0x2)
        Serial Number:
            0f:9d:9c:87:25:85:29:c4:b3:2f:e1:46:d3:d3:90:13
        Signature Algorithm: sha256WithRSAEncryption
        Issuer: CN=team261-net
        Validity
            Not Before: Nov  4 10:45:32 2023 GMT
            Not After : Oct 19 10:45:32 2026 GMT
        Subject: CN=team261-client
        Subject Public Key Info:
            Public Key Algorithm: rsaEncryption
                Public-Key: (2048 bit)
                Modulus:
                    00:b3:7c:66:b6:18:bb:4b:48:ad:f6:0d:c3:8f:91:
                    7b:5d:54:11:4b:33:51:91:c3:07:cb:71:10:0d:5a:
                    26:1f:cc:f5:16:dc:0f:ff:65:ed:fe:eb:2b:8f:cd:
                    6b:bc:39:cf:4a:bd:74:23:89:be:0e:f7:c5:21:91:
                    25:c8:41:06:27:8d:79:34:f2:7d:19:dd:b2:dd:dd:
                    2b:c5:29:2a:60:01:7f:f5:8e:b0:ef:ac:47:7d:92:
                    55:15:f3:1d:84:89:ad:29:e7:08:e3:09:e6:64:af:
                    3b:c8:f5:7f:1a:31:29:24:2e:b2:a1:e3:53:32:98:
                    1e:5f:ec:7f:bb:18:ce:0f:16:56:48:27:6c:2b:60:
                    61:f1:ec:f1:57:4f:29:eb:65:81:1b:f5:56:bd:ab:
                    86:6a:a6:b2:de:d4:98:0b:f1:1e:14:7e:29:2a:7d:
                    94:04:be:11:03:e9:54:65:62:99:21:5d:b4:54:0d:
                    c1:b1:f7:ac:6c:cb:a8:5f:b0:bf:64:03:ef:c7:02:
                    bf:8c:d5:81:6b:62:aa:ff:6f:01:79:92:14:07:09:
                    10:7a:71:8b:03:fd:1e:b3:5c:2b:1f:f6:1c:df:00:
                    7d:17:b6:30:90:54:3c:29:ac:88:ed:5e:45:a3:7a:
                    d2:5e:c7:a2:37:9a:35:c3:cd:bf:97:75:ce:a8:73:
                    71:65
                Exponent: 65537 (0x10001)
        X509v3 extensions:
            X509v3 Basic Constraints: 
                CA:FALSE
            X509v3 Subject Key Identifier: 
                B9:73:6B:96:FF:2F:85:EB:93:16:D9:B7:5F:7F:BC:36:6B:E1:B4:FF
            X509v3 Authority Key Identifier: 
                keyid:CB:38:27:3C:58:96:42:17:17:C3:20:64:7E:16:BF:EC:45:99:A7:7E
                DirName:/CN=team261-net
                serial:05:8E:11:F8:46:DC:FF:2B:3A:8B:88:DF:69:80:2F:2A:FE:28:2C:65
            X509v3 Extended Key Usage: 
                TLS Web Client Authentication
            X509v3 Key Usage: 
                Digital Signature
    Signature Algorithm: sha256WithRSAEncryption
    Signature Value:
        20:d0:fd:20:5b:ae:04:4a:8e:32:39:19:85:ed:d9:e1:80:e3:
        53:f0:5f:fc:87:b3:c4:c3:28:c5:dd:fd:42:69:83:ad:c8:00:
        4b:63:9f:b8:49:5a:ec:16:c6:d0:b6:95:9b:69:a8:ba:1e:24:
        5a:b0:29:54:02:6c:38:60:36:0f:fa:59:4f:79:dd:81:87:cf:
        f1:70:c2:59:06:74:64:27:a3:45:d4:84:9e:1c:17:cb:80:9c:
        03:36:67:61:a3:72:c4:7a:53:92:5b:de:82:f0:ae:a1:4b:fd:
        e0:bf:05:74:05:95:17:d0:1f:63:bc:09:1d:04:00:c7:70:4d:
        8b:2c:ba:62:1f:2b:4f:72:78:e4:e1:df:da:9f:f4:ee:3d:2d:
        73:38:66:33:60:a2:06:3b:56:bc:14:d5:80:c1:fa:65:6c:17:
        a4:8b:bb:ed:98:b6:23:88:1b:b6:bd:dc:85:c9:49:da:67:3a:
        4e:d2:68:34:f3:3b:ed:ae:1c:66:39:89:5a:41:06:b6:12:37:
        d6:e2:65:68:1b:df:b9:73:6f:6f:5d:76:92:87:fc:42:fc:8d:
        2f:71:cc:d0:3e:34:0a:22:ee:99:16:50:6c:dd:47:29:60:22:
        ab:8d:5c:1d:89:23:94:ac:97:95:57:cd:60:e6:aa:79:99:6d:
        ca:dd:e7:40
-----BEGIN CERTIFICATE-----
MIIDXDCCAkSgAwIBAgIQD52chyWFKcSzL+FG09OQEzANBgkqhkiG9w0BAQsFADAW
MRQwEgYDVQQDDAt0ZWFtMjYxLW5ldDAeFw0yMzExMDQxMDQ1MzJaFw0yNjEwMTkx
MDQ1MzJaMBkxFzAVBgNVBAMMDnRlYW0yNjEtY2xpZW50MIIBIjANBgkqhkiG9w0B
AQEFAAOCAQ8AMIIBCgKCAQEAs3xmthi7S0it9g3Dj5F7XVQRSzNRkcMHy3EQDVom
H8z1FtwP/2Xt/usrj81rvDnPSr10I4m+DvfFIZElyEEGJ415NPJ9Gd2y3d0rxSkq
YAF/9Y6w76xHfZJVFfMdhImtKecI4wnmZK87yPV/GjEpJC6yoeNTMpgeX+x/uxjO
DxZWSCdsK2Bh8ezxV08p62WBG/VWvauGaqay3tSYC/EeFH4pKn2UBL4RA+lUZWKZ
IV20VA3BsfesbMuoX7C/ZAPvxwK/jNWBa2Kq/28BeZIUBwkQenGLA/0es1wrH/Yc
3wB9F7YwkFQ8KayI7V5Fo3rSXseiN5o1w82/l3XOqHNxZQIDAQABo4GiMIGfMAkG
A1UdEwQCMAAwHQYDVR0OBBYEFLlza5b/L4XrkxbZt19/vDZr4bT/MFEGA1UdIwRK
MEiAFMs4JzxYlkIXF8MgZH4Wv+xFmad+oRqkGDAWMRQwEgYDVQQDDAt0ZWFtMjYx
LW5ldIIUBY4R+Ebc/ys6i4jfaYAvKv4oLGUwEwYDVR0lBAwwCgYIKwYBBQUHAwIw
CwYDVR0PBAQDAgeAMA0GCSqGSIb3DQEBCwUAA4IBAQAg0P0gW64ESo4yORmF7dnh
gONT8F/8h7PEwyjF3f1CaYOtyABLY5+4SVrsFsbQtpWbaai6HiRasClUAmw4YDYP
+llPed2Bh8/xcMJZBnRkJ6NF1ISeHBfLgJwDNmdho3LEelOSW96C8K6hS/3gvwV0
BZUX0B9jvAkdBADHcE2LLLpiHytPcnjk4d/an/TuPS1zOGYzYKIGO1a8FNWAwfpl
bBeki7vtmLYjiBu2vdyFyUnaZzpO0mg08zvtrhxmOYlaQQa2EjfW4mVoG9+5c29v
XXaSh/xC/I0vcczQPjQKIu6ZFlBs3UcpYCKrjVwdiSOUrJeVV81g5qp5mW3K3edA
-----END CERTIFICATE-----
