Certificate:
    Data:
        Version: 3 (0x2)
        Serial Number:
            40:0a:48:9a:ef:84:6d:78:bd:d9:f7:5a:e1:0f:f4:07
        Signature Algorithm: sha256WithRSAEncryption
        Issuer: CN=team261-net
        Validity
            Not Before: Nov  4 10:45:32 2023 GMT
            Not After : Oct 19 10:45:32 2026 GMT
        Subject: CN=team261-server
        Subject Public Key Info:
            Public Key Algorithm: rsaEncryption
                Public-Key: (2048 bit)
                Modulus:
                    00:9f:c2:69:80:a7:3f:18:1f:85:b4:31:5d:bf:cf:
                    f7:fb:36:2d:32:98:15:ce:fc:c6:9d:81:9c:0a:be:
                    d0:f2:68:35:3b:2c:7f:30:89:ac:e6:16:7e:46:44:
                    59:d0:dd:79:62:3b:90:0c:d4:52:15:03:bb:f5:fd:
                    e5:78:31:94:f9:a2:f9:71:39:b1:b1:ac:4c:5b:ba:
                    81:32:a5:1a:b1:21:b9:dd:24:57:8f:fb:b0:5a:ad:
                    84:4b:b0:3e:da:b1:10:8b:65:81:15:c3:6c:fd:b7:
                    a8:d6:04:b9:4a:a3:33:26:28:e2:cb:12:66:20:14:
                    61:89:10:22:14:5c:27:ae:f0:b7:75:f4:b8:17:f5:
                    76:dd:92:bf:49:a7:56:41:9a:27:ff:b9:01:15:64:
                    f4:a2:b0:68:d5:9c:76:fc:3d:c0:2b:80:76:de:77:
                    44:18:75:a9:66:3f:2f:cb:24:1a:55:d3:7e:f8:e0:
                    07:f1:ec:f9:ff:a4:83:6c:33:82:2a:7f:9d:4c:69:
                    10:7e:d6:b0:53:3e:4b:7c:d9:7b:f3:e3:8a:ec:8d:
                    8d:43:c4:cc:01:81:77:a9:51:8a:63:2f:33:b4:69:
                    ba:e6:a0:7b:b6:9c:db:cf:c8:4e:38:58:af:cf:7f:
                    29:eb:e3:3f:06:5c:c0:46:c5:7e:26:61:96:16:6a:
                    9a:bf
                Exponent: 65537 (0x10001)
        X509v3 extensions:
            X509v3 Basic Constraints: 
                CA:FALSE
            X509v3 Subject Key Identifier: 
                C7:53:05:37:A7:27:FE:29:2A:62:71:CC:1C:15:47:16:E0:94:97:BC
            X509v3 Authority Key Identifier: 
                keyid:CB:38:27:3C:58:96:42:17:17:C3:20:64:7E:16:BF:EC:45:99:A7:7E
                DirName:/CN=team261-net
                serial:05:8E:11:F8:46:DC:FF:2B:3A:8B:88:DF:69:80:2F:2A:FE:28:2C:65
            X509v3 Extended Key Usage: 
                TLS Web Server Authentication
            X509v3 Key Usage: 
                Digital Signature, Key Encipherment
            X509v3 Subject Alternative Name: 
                DNS:team261-server
    Signature Algorithm: sha256WithRSAEncryption
    Signature Value:
        00:ca:c4:90:61:e4:e2:b7:ff:cb:dd:0b:49:99:dd:43:f6:f7:
        87:63:b2:a2:23:0d:3a:2a:05:22:8d:bf:8c:78:4e:0c:75:b6:
        b6:70:f5:ee:d8:e3:10:c1:c6:37:a6:be:c9:c8:fd:c6:43:6e:
        8a:92:86:ad:d3:b0:f5:e0:3b:27:1b:7b:db:74:f9:2c:75:62:
        a0:79:6a:6a:d5:85:f2:67:31:86:85:6b:30:18:25:1c:11:0f:
        eb:99:2e:97:dd:83:73:c0:9a:10:a5:5d:c3:44:e1:bd:15:33:
        8b:98:35:04:cf:54:b6:b1:88:f5:ce:e0:45:26:83:aa:80:ff:
        6a:8b:b9:35:a6:a8:a7:4e:37:d5:64:f6:a4:cb:17:7d:30:fd:
        d8:c6:0b:19:bf:78:45:77:35:5e:d2:4d:10:8a:42:6d:2c:22:
        13:97:15:c0:fa:c5:19:c9:b8:d9:7f:2e:d2:bb:cd:d2:6f:8f:
        b3:3e:44:23:b0:da:80:a8:90:23:98:8f:ba:31:30:18:c3:0a:
        d6:94:d5:9f:a2:59:37:9a:4a:ee:4c:43:48:84:6b:8a:dc:38:
        4e:47:45:81:05:86:4c:58:b3:6f:30:75:05:0a:a2:b1:6f:b0:
        2d:70:20:19:ab:43:3d:9f:89:4f:39:86:57:b5:a7:03:91:dd:
        20:50:a1:41
-----BEGIN CERTIFICATE-----
MIIDdzCCAl+gAwIBAgIQQApImu+EbXi92fda4Q/0BzANBgkqhkiG9w0BAQsFADAW
MRQwEgYDVQQDDAt0ZWFtMjYxLW5ldDAeFw0yMzExMDQxMDQ1MzJaFw0yNjEwMTkx
MDQ1MzJaMBkxFzAVBgNVBAMMDnRlYW0yNjEtc2VydmVyMIIBIjANBgkqhkiG9w0B
AQEFAAOCAQ8AMIIBCgKCAQEAn8JpgKc/GB+FtDFdv8/3+zYtMpgVzvzGnYGcCr7Q
8mg1Oyx/MIms5hZ+RkRZ0N15YjuQDNRSFQO79f3leDGU+aL5cTmxsaxMW7qBMqUa
sSG53SRXj/uwWq2ES7A+2rEQi2WBFcNs/beo1gS5SqMzJijiyxJmIBRhiRAiFFwn
rvC3dfS4F/V23ZK/SadWQZon/7kBFWT0orBo1Zx2/D3AK4B23ndEGHWpZj8vyyQa
VdN++OAH8ez5/6SDbDOCKn+dTGkQftawUz5LfNl78+OK7I2NQ8TMAYF3qVGKYy8z
tGm65qB7tpzbz8hOOFivz38p6+M/BlzARsV+JmGWFmqavwIDAQABo4G9MIG6MAkG
A1UdEwQCMAAwHQYDVR0OBBYEFMdTBTenJ/4pKmJxzBwVRxbglJe8MFEGA1UdIwRK
MEiAFMs4JzxYlkIXF8MgZH4Wv+xFmad+oRqkGDAWMRQwEgYDVQQDDAt0ZWFtMjYx
LW5ldIIUBY4R+Ebc/ys6i4jfaYAvKv4oLGUwEwYDVR0lBAwwCgYIKwYBBQUHAwEw
CwYDVR0PBAQDAgWgMBkGA1UdEQQSMBCCDnRlYW0yNjEtc2VydmVyMA0GCSqGSIb3
DQEBCwUAA4IBAQAAysSQYeTit//L3QtJmd1D9veHY7KiIw06KgUijb+MeE4Mdba2
cPXu2OMQwcY3pr7JyP3GQ26Kkoat07D14DsnG3vbdPksdWKgeWpq1YXyZzGGhWsw
GCUcEQ/rmS6X3YNzwJoQpV3DROG9FTOLmDUEz1S2sYj1zuBFJoOqgP9qi7k1pqin
TjfVZPakyxd9MP3YxgsZv3hFdzVe0k0QikJtLCITlxXA+sUZybjZfy7Su83Sb4+z
PkQjsNqAqJAjmI+6MTAYwwrWlNWfolk3mkruTENIhGuK3DhOR0WBBYZMWLNvMHUF
CqKxb7AtcCAZq0M9n4lPOYZXtacDkd0gUKFB
-----END CERTIFICATE-----
