Certificate:
    Data:
        Version: 3 (0x2)
        Serial Number:
            44:99:f0:34:61:d8:6f:34:89:6b:21:f9:38:d6:9c:42
        Signature Algorithm: sha256WithRSAEncryption
        Issuer: CN=team261-net
        Validity
            Not Before: Nov  4 11:32:48 2023 GMT
            Not After : Oct 19 11:32:48 2026 GMT
        Subject: CN=team261-client
        Subject Public Key Info:
            Public Key Algorithm: rsaEncryption
                Public-Key: (2048 bit)
                Modulus:
                    00:a0:3f:8b:06:3f:80:a1:b3:b6:28:cc:1f:6c:63:
                    a7:27:8f:7b:74:bd:fe:d7:6b:f6:ae:b3:be:99:37:
                    21:ae:d9:7b:f8:2f:e6:fa:37:e0:64:8e:ff:82:aa:
                    8b:99:18:ac:07:8c:3e:6e:0c:6e:72:be:b4:51:f6:
                    c6:3a:b7:dc:c1:f1:e5:6e:41:e6:62:01:cf:a1:1c:
                    dc:f6:95:bd:d2:65:22:35:dd:32:ae:fe:d9:d1:11:
                    40:a3:8b:fe:84:a7:85:bd:f6:67:6b:bc:ed:b2:89:
                    1e:aa:b2:3d:6e:d9:be:98:20:f7:64:20:af:44:f7:
                    6f:b9:e8:3b:9a:92:7a:fd:f9:82:8b:82:b4:d3:c7:
                    38:98:59:15:50:4b:33:63:cd:03:ba:87:9b:03:71:
                    7e:3f:fc:89:12:6d:ad:c0:ed:82:93:bc:b0:6b:9f:
                    81:06:da:21:c0:4d:8d:de:56:f9:6a:d8:77:cc:70:
                    c1:ea:5d:3b:1d:17:bc:24:0d:1b:e3:eb:92:01:d2:
                    0e:39:58:5a:84:39:4b:05:0e:e7:f3:d8:f1:af:8f:
                    61:70:76:fe:01:8a:d5:56:9f:c0:48:ae:60:89:a4:
                    79:ec:8a:98:31:27:01:b1:0b:eb:f1:b4:8f:5c:22:
                    84:7d:98:fa:03:bf:e2:ad:46:b7:7c:4f:eb:24:f5:
                    f6:5b
                Exponent: 65537 (0x10001)
        X509v3 extensions:
            X509v3 Basic Constraints: 
                CA:FALSE
            X509v3 Subject Key Identifier: 
                AF:FF:B0:DE:74:D7:12:4A:C6:C7:B0:FC:C5:0D:22:17:3D:78:A7:AC
            X509v3 Authority Key Identifier: 
                keyid:44:AD:AA:6A:27:70:11:D2:A6:AD:A9:6E:27:19:11:98:8C:5F:EB:31
                DirName:/CN=team261-net
                serial:3E:8E:14:3B:21:7A:68:03:00:6D:5A:97:31:1A:1C:CF:9D:D4:3B:B9
            X509v3 Extended Key Usage: 
                TLS Web Client Authentication
            X509v3 Key Usage: 
                Digital Signature
    Signature Algorithm: sha256WithRSAEncryption
    Signature Value:
        30:2b:c9:7f:11:6b:2e:50:4d:6b:50:2e:ae:43:ad:c1:5b:73:
        b0:de:47:ed:cf:27:74:ef:4e:eb:39:b6:a8:32:37:2e:7d:5c:
        f7:67:fb:2f:a6:41:ef:76:eb:fb:48:5e:76:e9:0c:aa:d9:cf:
        14:04:bd:d5:50:ec:96:71:10:9a:d6:bb:4f:09:8e:27:ec:53:
        0b:bb:45:f1:8a:3c:2e:2f:c6:bd:49:37:07:25:4e:32:f6:72:
        6e:54:33:43:b6:33:c7:6a:c7:f5:60:b2:b1:3c:74:1f:77:c5:
        c9:b8:a2:8b:a9:7c:87:b4:0a:8d:e4:5c:d6:f6:ec:0f:63:e7:
        45:ad:3c:cb:72:60:98:bc:4d:43:1b:64:0c:c2:36:b2:83:f6:
        d4:1a:b0:91:ae:65:62:83:25:8c:28:e7:7b:75:12:91:00:2c:
        cc:3f:35:11:cd:43:6c:96:9b:2a:ab:f3:07:f1:78:30:82:df:
        a7:f3:e8:0a:ef:fa:6f:09:f4:4d:e9:3a:57:6b:bf:06:b8:ba:
        ed:6c:d1:09:94:a2:4b:92:f4:e3:fc:b2:38:5e:e7:f5:ae:1f:
        d6:89:46:64:d6:a7:4d:3d:0e:a8:b3:56:6e:14:d0:98:5a:77:
        73:5d:d7:dd:c7:95:b6:b4:2f:78:c2:f4:ca:8b:8a:87:c7:25:
        4b:2d:50:8e
-----BEGIN CERTIFICATE-----
MIIDXDCCAkSgAwIBAgIQRJnwNGHYbzSJayH5ONacQjANBgkqhkiG9w0BAQsFADAW
MRQwEgYDVQQDDAt0ZWFtMjYxLW5ldDAeFw0yMzExMDQxMTMyNDhaFw0yNjEwMTkx
MTMyNDhaMBkxFzAVBgNVBAMMDnRlYW0yNjEtY2xpZW50MIIBIjANBgkqhkiG9w0B
AQEFAAOCAQ8AMIIBCgKCAQEAoD+LBj+AobO2KMwfbGOnJ497dL3+12v2rrO+mTch
rtl7+C/m+jfgZI7/gqqLmRisB4w+bgxucr60UfbGOrfcwfHlbkHmYgHPoRzc9pW9
0mUiNd0yrv7Z0RFAo4v+hKeFvfZna7ztsokeqrI9btm+mCD3ZCCvRPdvueg7mpJ6
/fmCi4K008c4mFkVUEszY80DuoebA3F+P/yJEm2twO2Ck7ywa5+BBtohwE2N3lb5
ath3zHDB6l07HRe8JA0b4+uSAdIOOVhahDlLBQ7n89jxr49hcHb+AYrVVp/ASK5g
iaR57IqYMScBsQvr8bSPXCKEfZj6A7/irUa3fE/rJPX2WwIDAQABo4GiMIGfMAkG
A1UdEwQCMAAwHQYDVR0OBBYEFK//sN501xJKxsew/MUNIhc9eKesMFEGA1UdIwRK
MEiAFEStqmoncBHSpq2pbicZEZiMX+sxoRqkGDAWMRQwEgYDVQQDDAt0ZWFtMjYx
LW5ldIIUPo4UOyF6aAMAbVqXMRocz53UO7kwEwYDVR0lBAwwCgYIKwYBBQUHAwIw
CwYDVR0PBAQDAgeAMA0GCSqGSIb3DQEBCwUAA4IBAQAwK8l/EWsuUE1rUC6uQ63B
W3Ow3kftzyd0707rObaoMjcufVz3Z/svpkHvduv7SF526Qyq2c8UBL3VUOyWcRCa
1rtPCY4n7FMLu0XxijwuL8a9STcHJU4y9nJuVDNDtjPHasf1YLKxPHQfd8XJuKKL
qXyHtAqN5FzW9uwPY+dFrTzLcmCYvE1DG2QMwjayg/bUGrCRrmVigyWMKOd7dRKR
ACzMPzURzUNslpsqq/MH8Xgwgt+n8+gK7/pvCfRN6TpXa78GuLrtbNEJlKJLkvTj
/LI4Xuf1rh/WiUZk1qdNPQ6os1ZuFNCYWndzXdfdx5W2tC94wvTKi4qHxyVLLVCO
-----END CERTIFICATE-----
