Certificate:
    Data:
        Version: 3 (0x2)
        Serial Number:
            45:ee:07:76:1e:ea:dd:68:3f:5a:39:f9:78:59:2d:78
        Signature Algorithm: sha256WithRSAEncryption
        Issuer: CN=team261-net
        Validity
            Not Before: Nov  3 20:44:05 2023 GMT
            Not After : Oct 18 20:44:05 2026 GMT
        Subject: CN=team261-client
        Subject Public Key Info:
            Public Key Algorithm: rsaEncryption
                Public-Key: (2048 bit)
                Modulus:
                    00:c4:fc:c6:22:f0:7b:22:00:13:a5:0d:27:28:64:
                    3d:e7:87:76:32:54:20:94:05:8f:18:47:4f:dc:68:
                    37:9b:87:f4:2e:b9:b7:33:74:33:f8:fe:1b:15:cb:
                    2e:c5:11:ff:0e:03:3a:fe:2a:b4:90:bb:02:34:6d:
                    62:3b:1b:37:bc:90:1f:7a:c4:80:b8:a7:0f:83:8c:
                    dc:89:82:71:72:72:f5:fe:ab:15:ca:34:61:1b:45:
                    4d:12:fd:1d:b5:1b:e8:e2:9b:1e:34:9a:43:b8:6d:
                    bd:80:02:54:f6:e8:3c:cf:8e:1b:83:0c:d2:01:bd:
                    c0:7b:88:40:e7:ea:c3:ec:e7:bf:06:0f:cf:cd:30:
                    4a:8f:72:52:d5:55:ad:d7:6f:52:d8:a1:35:8b:b3:
                    73:4f:c2:c4:54:ac:2b:b7:d1:af:5b:db:d8:a0:44:
                    45:65:cf:0e:ad:e8:66:2b:89:48:ed:cc:a0:6f:e6:
                    c3:b0:f1:5a:64:91:30:5a:19:f4:d2:30:62:89:94:
                    89:d2:e1:92:7b:ff:b3:95:a5:35:c4:31:d1:f0:22:
                    06:8e:89:4d:a3:bc:ae:ee:b7:7b:8c:11:d7:67:a1:
                    b6:fe:88:54:3b:88:73:17:c1:8d:89:53:e8:51:a9:
                    48:3e:13:22:fd:dd:e3:c5:5a:56:ac:1e:21:bb:41:
                    49:b7
                Exponent: 65537 (0x10001)
        X509v3 extensions:
            X509v3 Basic Constraints: 
                CA:FALSE
            X509v3 Subject Key Identifier: 
                F4:92:EF:0C:E9:2A:65:16:4B:99:BE:9E:E7:60:F8:84:E8:C7:BF:EA
            X509v3 Authority Key Identifier: 
                keyid:9D:33:19:4F:60:D3:5B:B2:D4:27:48:85:37:E3:49:2A:4E:E1:5E:52
                DirName:/CN=team261-net
                serial:25:87:D8:B9:C5:0C:0C:6D:64:4C:EF:38:3F:A1:48:40:E7:29:33:47
            X509v3 Extended Key Usage: 
                TLS Web Client Authentication
            X509v3 Key Usage: 
                Digital Signature
    Signature Algorithm: sha256WithRSAEncryption
    Signature Value:
        3d:10:8b:7e:29:54:69:8d:bf:ad:b2:ff:e1:e3:34:c9:23:01:
        93:73:88:fb:5a:cb:b7:1d:9d:3a:0a:46:e4:91:7d:25:78:a4:
        c1:77:64:fe:9c:4c:9b:d7:a8:cb:a7:39:24:78:fc:7f:d6:25:
        1b:80:34:bd:67:5a:2f:2f:dd:90:b0:1c:73:4a:1c:6a:76:21:
        07:f4:5c:83:3e:1d:28:30:15:ca:b2:87:a6:7d:96:54:d3:93:
        49:41:be:2b:4f:48:c7:7b:4d:df:7d:cd:75:52:a1:d8:f3:c4:
        6b:14:2e:ac:69:a6:e3:68:52:b6:53:d5:03:e2:fe:f9:e0:9e:
        b0:fe:65:c1:13:40:61:f8:20:c9:1f:87:7f:38:2b:a7:fa:fe:
        ae:8d:13:96:52:3e:5d:57:e9:ad:d3:76:bd:7a:79:6a:97:5c:
        0d:1c:d7:2a:80:e0:f6:ca:f1:5b:06:1c:08:e4:3d:db:24:d7:
        71:a2:d9:ac:97:a6:2a:7e:1e:1a:67:57:29:4a:ef:59:95:29:
        7c:fd:a3:cd:49:ed:a0:b6:a2:b7:65:2d:ce:20:96:44:0c:8d:
        57:d1:48:4f:ba:4d:18:3f:31:0c:e0:4a:1d:47:c8:62:28:74:
        7d:6f:24:44:5b:bd:ed:82:cb:9d:ac:35:8a:5d:80:bc:53:49:
        68:3a:14:65
-----BEGIN CERTIFICATE-----
MIIDXDCCAkSgAwIBAgIQRe4Hdh7q3Wg/Wjn5eFkteDANBgkqhkiG9w0BAQsFADAW
MRQwEgYDVQQDDAt0ZWFtMjYxLW5ldDAeFw0yMzExMDMyMDQ0MDVaFw0yNjEwMTgy
MDQ0MDVaMBkxFzAVBgNVBAMMDnRlYW0yNjEtY2xpZW50MIIBIjANBgkqhkiG9w0B
AQEFAAOCAQ8AMIIBCgKCAQEAxPzGIvB7IgATpQ0nKGQ954d2MlQglAWPGEdP3Gg3
m4f0Lrm3M3Qz+P4bFcsuxRH/DgM6/iq0kLsCNG1iOxs3vJAfesSAuKcPg4zciYJx
cnL1/qsVyjRhG0VNEv0dtRvo4pseNJpDuG29gAJU9ug8z44bgwzSAb3Ae4hA5+rD
7Oe/Bg/PzTBKj3JS1VWt129S2KE1i7NzT8LEVKwrt9GvW9vYoERFZc8OrehmK4lI
7cygb+bDsPFaZJEwWhn00jBiiZSJ0uGSe/+zlaU1xDHR8CIGjolNo7yu7rd7jBHX
Z6G2/ohUO4hzF8GNiVPoUalIPhMi/d3jxVpWrB4hu0FJtwIDAQABo4GiMIGfMAkG
A1UdEwQCMAAwHQYDVR0OBBYEFPSS7wzpKmUWS5m+nudg+ITox7/qMFEGA1UdIwRK
MEiAFJ0zGU9g01uy1CdIhTfjSSpO4V5SoRqkGDAWMRQwEgYDVQQDDAt0ZWFtMjYx
LW5ldIIUJYfYucUMDG1kTO84P6FIQOcpM0cwEwYDVR0lBAwwCgYIKwYBBQUHAwIw
CwYDVR0PBAQDAgeAMA0GCSqGSIb3DQEBCwUAA4IBAQA9EIt+KVRpjb+tsv/h4zTJ
IwGTc4j7Wsu3HZ06CkbkkX0leKTBd2T+nEyb16jLpzkkePx/1iUbgDS9Z1ovL92Q
sBxzShxqdiEH9FyDPh0oMBXKsoemfZZU05NJQb4rT0jHe03ffc11UqHY88RrFC6s
aabjaFK2U9UD4v754J6w/mXBE0Bh+CDJH4d/OCun+v6ujROWUj5dV+mt03a9enlq
l1wNHNcqgOD2yvFbBhwI5D3bJNdxotmsl6Yqfh4aZ1cpSu9ZlSl8/aPNSe2gtqK3
ZS3OIJZEDI1X0UhPuk0YPzEM4EodR8hiKHR9byREW73tgsudrDWKXYC8U0loOhRl
-----END CERTIFICATE-----
