Certificate:
    Data:
        Version: 3 (0x2)
        Serial Number:
            29:ae:ae:14:4a:b0:dc:db:cd:d8:ea:28:21:c4:12:6d
        Signature Algorithm: sha256WithRSAEncryption
        Issuer: CN=team410-net
        Validity
            Not Before: Nov  4 11:36:43 2023 GMT
            Not After : Oct 19 11:36:43 2026 GMT
        Subject: CN=team410-client
        Subject Public Key Info:
            Public Key Algorithm: rsaEncryption
                Public-Key: (2048 bit)
                Modulus:
                    00:c5:3e:f6:5d:81:1a:da:11:6a:73:fb:06:ba:ef:
                    9a:ee:d3:a3:1a:09:34:f7:83:21:93:ed:ca:ec:51:
                    ec:db:1d:b3:01:0b:54:bd:e3:7b:7b:a9:e1:71:b5:
                    2f:30:5a:54:fa:03:d6:aa:25:37:c7:37:2b:53:a2:
                    d6:61:b1:89:01:c0:6f:e3:dd:59:70:fa:93:2e:6d:
                    4b:77:f0:50:91:9d:a4:eb:37:cb:06:fc:72:93:d5:
                    08:ea:f8:e3:4f:af:80:26:8a:bd:b0:2f:da:d8:e2:
                    67:06:3b:34:d1:21:a3:15:a6:e8:aa:e6:bd:33:83:
                    8a:6f:09:79:19:fa:9d:06:7f:37:3a:f7:ae:99:28:
                    ed:02:cf:5a:00:c8:8f:23:8e:74:fe:0e:41:a5:1a:
                    21:1a:aa:3a:fc:70:9e:52:97:a0:87:41:69:2a:d4:
                    9d:6d:f8:3d:77:f5:bc:fa:77:96:48:2b:68:d8:d5:
                    a4:b9:91:d3:78:55:47:77:e1:56:bd:e5:ca:a2:bc:
                    aa:1e:ea:63:9d:f2:17:00:91:ca:1b:8e:72:7b:a9:
                    a3:c1:27:3c:6b:46:21:f6:ec:43:69:cc:1e:2e:59:
                    ab:d7:c3:d4:b6:81:2f:ff:e5:b4:3a:c3:97:2b:8b:
                    b1:75:af:3b:e5:df:43:f4:7e:3c:f1:61:83:41:d1:
                    0f:a5
                Exponent: 65537 (0x10001)
        X509v3 extensions:
            X509v3 Basic Constraints: 
                CA:FALSE
            X509v3 Subject Key Identifier: 
                EF:12:21:BC:6E:83:F0:0E:1C:EE:EF:74:D6:6C:55:9E:01:90:1E:77
            X509v3 Authority Key Identifier: 
                keyid:69:27:27:C3:5E:D9:C3:0E:1E:28:78:BA:DB:74:A9:A9:50:D5:3E:72
                DirName:/CN=team410-net
                serial:7F:61:53:65:A4:E2:58:B2:C1:DA:A7:C5:BA:F3:D1:93:73:82:EA:F3
            X509v3 Extended Key Usage: 
                TLS Web Client Authentication
            X509v3 Key Usage: 
                Digital Signature
    Signature Algorithm: sha256WithRSAEncryption
    Signature Value:
        a4:38:e2:f3:b8:f7:2e:ac:b1:8b:36:5b:98:ce:d9:ca:2d:51:
        44:f6:85:ec:d3:19:c8:9e:c7:3a:51:50:9a:ac:e0:5d:96:fe:
        bf:62:eb:cb:15:8c:cb:95:9a:02:d1:34:d5:06:8b:0c:c7:53:
        89:b3:f3:0d:a8:cc:34:70:00:da:53:56:4c:34:1d:da:9a:5b:
        b1:10:7d:8d:3c:17:39:d6:aa:1b:06:24:8c:63:67:5c:68:b2:
        96:9b:c9:59:8d:fd:2b:73:e5:ee:db:3e:c8:5d:6c:1d:c6:c6:
        51:23:da:9b:01:89:01:1b:c5:78:cc:44:33:05:97:7c:06:57:
        83:63:8d:99:ad:39:58:81:1d:e6:d5:72:9c:fb:1b:09:7e:d6:
        07:3d:b6:6d:60:bc:29:a7:7f:d6:7c:5e:8e:6f:c1:7a:8f:f2:
        73:64:bf:25:62:9b:f3:7a:13:9c:b3:72:de:82:84:68:ba:cb:
        cf:3d:0d:30:ae:b3:8b:2e:1c:1e:ee:4b:b2:9a:d7:d2:e8:24:
        f3:2e:d3:66:ba:41:13:59:14:b6:c2:3d:94:b2:5c:77:cd:35:
        d4:7b:b5:46:8a:79:b8:b4:58:60:18:f1:c3:37:c1:3c:52:30:
        f9:73:1f:05:a1:e6:fa:f0:8a:76:85:98:9c:f7:12:34:b9:a8:
        b8:ad:0b:ef
-----BEGIN CERTIFICATE-----
MIIDXDCCAkSgAwIBAgIQKa6uFEqw3NvN2OooIcQSbTANBgkqhkiG9w0BAQsFADAW
MRQwEgYDVQQDDAt0ZWFtNDEwLW5ldDAeFw0yMzExMDQxMTM2NDNaFw0yNjEwMTkx
MTM2NDNaMBkxFzAVBgNVBAMMDnRlYW00MTAtY2xpZW50MIIBIjANBgkqhkiG9w0B
AQEFAAOCAQ8AMIIBCgKCAQEAxT72XYEa2hFqc/sGuu+a7tOjGgk094Mhk+3K7FHs
2x2zAQtUveN7e6nhcbUvMFpU+gPWqiU3xzcrU6LWYbGJAcBv491ZcPqTLm1Ld/BQ
kZ2k6zfLBvxyk9UI6vjjT6+AJoq9sC/a2OJnBjs00SGjFaboqua9M4OKbwl5Gfqd
Bn83OveumSjtAs9aAMiPI450/g5BpRohGqo6/HCeUpegh0FpKtSdbfg9d/W8+neW
SCto2NWkuZHTeFVHd+FWveXKoryqHupjnfIXAJHKG45ye6mjwSc8a0Yh9uxDacwe
Llmr18PUtoEv/+W0OsOXK4uxda875d9D9H488WGDQdEPpQIDAQABo4GiMIGfMAkG
A1UdEwQCMAAwHQYDVR0OBBYEFO8SIbxug/AOHO7vdNZsVZ4BkB53MFEGA1UdIwRK
MEiAFGknJ8Ne2cMOHih4utt0qalQ1T5yoRqkGDAWMRQwEgYDVQQDDAt0ZWFtNDEw
LW5ldIIUf2FTZaTiWLLB2qfFuvPRk3OC6vMwEwYDVR0lBAwwCgYIKwYBBQUHAwIw
CwYDVR0PBAQDAgeAMA0GCSqGSIb3DQEBCwUAA4IBAQCkOOLzuPcurLGLNluYztnK
LVFE9oXs0xnInsc6UVCarOBdlv6/YuvLFYzLlZoC0TTVBosMx1OJs/MNqMw0cADa
U1ZMNB3amluxEH2NPBc51qobBiSMY2dcaLKWm8lZjf0rc+Xu2z7IXWwdxsZRI9qb
AYkBG8V4zEQzBZd8BleDY42ZrTlYgR3m1XKc+xsJftYHPbZtYLwpp3/WfF6Ob8F6
j/JzZL8lYpvzehOcs3LegoRousvPPQ0wrrOLLhwe7kuymtfS6CTzLtNmukETWRS2
wj2Uslx3zTXUe7VGinm4tFhgGPHDN8E8UjD5cx8Foeb68Ip2hZic9xI0uai4rQvv
-----END CERTIFICATE-----
