Certificate:
    Data:
        Version: 3 (0x2)
        Serial Number:
            74:37:5c:ef:e6:19:1e:96:f1:12:34:b8:91:87:4a:2b
        Signature Algorithm: sha256WithRSAEncryption
        Issuer: CN=team410-net
        Validity
            Not Before: Nov  3 20:46:41 2023 GMT
            Not After : Oct 18 20:46:41 2026 GMT
        Subject: CN=team410-server
        Subject Public Key Info:
            Public Key Algorithm: rsaEncryption
                Public-Key: (2048 bit)
                Modulus:
                    00:9f:15:8b:59:9b:0b:ab:e3:20:f5:ad:b8:d8:d3:
                    c9:77:f6:89:68:39:45:a0:32:d8:80:90:4f:43:ae:
                    a8:df:af:41:e9:83:cf:a3:d4:04:fb:cf:e9:8f:9e:
                    eb:ab:7c:30:40:44:cc:f7:30:62:f1:ef:a4:c6:d3:
                    85:45:90:69:2f:05:fb:3e:73:d6:ff:e5:f3:57:1a:
                    ee:a5:7d:06:cd:78:04:fc:a1:a6:be:2c:6e:c3:7d:
                    16:3c:61:00:aa:2c:e1:b0:23:c4:be:77:6d:70:6a:
                    d4:af:68:95:83:cf:60:51:86:20:00:34:e4:74:4f:
                    45:3a:e2:76:ef:1e:ed:03:d0:8f:9d:e0:99:43:48:
                    91:aa:43:60:85:92:8d:33:87:96:92:c3:cb:ff:5c:
                    5c:84:fa:04:50:5e:d8:e6:45:d7:d2:27:d8:3c:d0:
                    c9:42:0e:35:c3:00:23:d4:b1:b2:01:c6:f2:dd:72:
                    42:82:ad:31:ac:99:25:a3:8b:09:f1:d4:09:a3:e6:
                    19:95:ba:07:7d:45:6d:1d:cc:2d:2d:b5:e6:3c:29:
                    8b:09:8c:87:42:72:52:6c:5c:9a:df:dc:da:fe:6c:
                    cf:90:a4:7d:ec:33:37:08:6c:1c:98:32:ae:8c:ea:
                    7c:1b:6c:fc:c5:7e:7b:45:27:52:38:dc:54:ce:f0:
                    51:f7
                Exponent: 65537 (0x10001)
        X509v3 extensions:
            X509v3 Basic Constraints: 
                CA:FALSE
            X509v3 Subject Key Identifier: 
                7C:2B:27:7E:AA:61:1E:69:79:44:E9:8A:23:88:36:47:48:49:95:0E
            X509v3 Authority Key Identifier: 
                keyid:86:8A:23:ED:5E:A9:DC:90:A5:4B:01:3F:03:19:6F:B2:21:4E:EF:95
                DirName:/CN=team410-net
                serial:0E:51:54:C3:11:98:E3:A2:0C:CB:12:B4:5E:00:32:E9:D2:02:20:C6
            X509v3 Extended Key Usage: 
                TLS Web Server Authentication
            X509v3 Key Usage: 
                Digital Signature, Key Encipherment
            X509v3 Subject Alternative Name: 
                DNS:team410-server
    Signature Algorithm: sha256WithRSAEncryption
    Signature Value:
        6b:da:3f:f0:bb:cc:13:c1:07:8f:3a:10:89:ee:12:8a:34:b2:
        e0:ec:6e:5a:bd:b0:53:77:2e:44:95:4e:25:78:6e:48:43:bc:
        b4:1f:41:8b:3f:6d:f6:f8:f7:a4:14:30:be:2b:b5:ac:c5:72:
        ed:e1:bd:91:c5:49:e7:57:cf:85:3c:e9:36:b2:a2:71:35:99:
        2c:ad:03:71:42:f3:6a:43:47:8a:09:b7:78:ff:4f:e2:c5:06:
        45:69:1a:fd:53:63:a3:5a:61:24:66:c5:62:e9:f8:b8:bb:d8:
        f1:83:4a:f0:c9:45:f7:76:83:3a:44:e7:79:7d:0c:8d:eb:09:
        05:54:e6:17:7c:de:32:6f:1c:0a:70:24:0b:06:c3:a3:dd:30:
        84:c0:c9:e0:71:da:60:e4:37:d7:ec:e9:61:94:5b:3d:07:ca:
        63:ce:d5:71:5d:dc:99:4b:d8:b5:5a:ef:1e:cd:4b:02:52:15:
        e5:f3:6d:89:e1:66:78:cc:bd:06:2e:d4:89:e7:7d:01:aa:6d:
        79:9b:96:49:0a:2a:94:35:bf:60:20:4e:4c:f3:c1:65:93:e5:
        7a:7c:e2:49:fb:9d:f4:9c:02:f6:67:19:0b:46:ff:00:87:f8:
        f3:2d:ad:21:fc:55:3a:04:66:3a:4f:3d:06:dc:0c:90:b0:ff:
        55:a8:1a:7a
-----BEGIN CERTIFICATE-----
MIIDdzCCAl+gAwIBAgIQdDdc7+YZHpbxEjS4kYdKKzANBgkqhkiG9w0BAQsFADAW
MRQwEgYDVQQDDAt0ZWFtNDEwLW5ldDAeFw0yMzExMDMyMDQ2NDFaFw0yNjEwMTgy
MDQ2NDFaMBkxFzAVBgNVBAMMDnRlYW00MTAtc2VydmVyMIIBIjANBgkqhkiG9w0B
AQEFAAOCAQ8AMIIBCgKCAQEAnxWLWZsLq+Mg9a242NPJd/aJaDlFoDLYgJBPQ66o
369B6YPPo9QE+8/pj57rq3wwQETM9zBi8e+kxtOFRZBpLwX7PnPW/+XzVxrupX0G
zXgE/KGmvixuw30WPGEAqizhsCPEvndtcGrUr2iVg89gUYYgADTkdE9FOuJ27x7t
A9CPneCZQ0iRqkNghZKNM4eWksPL/1xchPoEUF7Y5kXX0ifYPNDJQg41wwAj1LGy
Acby3XJCgq0xrJklo4sJ8dQJo+YZlboHfUVtHcwtLbXmPCmLCYyHQnJSbFya39za
/mzPkKR97DM3CGwcmDKujOp8G2z8xX57RSdSONxUzvBR9wIDAQABo4G9MIG6MAkG
A1UdEwQCMAAwHQYDVR0OBBYEFHwrJ36qYR5peUTpiiOINkdISZUOMFEGA1UdIwRK
MEiAFIaKI+1eqdyQpUsBPwMZb7IhTu+VoRqkGDAWMRQwEgYDVQQDDAt0ZWFtNDEw
LW5ldIIUDlFUwxGY46IMyxK0XgAy6dICIMYwEwYDVR0lBAwwCgYIKwYBBQUHAwEw
CwYDVR0PBAQDAgWgMBkGA1UdEQQSMBCCDnRlYW00MTAtc2VydmVyMA0GCSqGSIb3
DQEBCwUAA4IBAQBr2j/wu8wTwQePOhCJ7hKKNLLg7G5avbBTdy5ElU4leG5IQ7y0
H0GLP232+PekFDC+K7WsxXLt4b2RxUnnV8+FPOk2sqJxNZksrQNxQvNqQ0eKCbd4
/0/ixQZFaRr9U2OjWmEkZsVi6fi4u9jxg0rwyUX3doM6ROd5fQyN6wkFVOYXfN4y
bxwKcCQLBsOj3TCEwMngcdpg5DfX7OlhlFs9B8pjztVxXdyZS9i1Wu8ezUsCUhXl
822J4WZ4zL0GLtSJ530Bqm15m5ZJCiqUNb9gIE5M88Flk+V6fOJJ+530nAL2ZxkL
Rv8Ah/jzLa0h/FU6BGY6Tz0G3AyQsP9VqBp6
-----END CERTIFICATE-----
