Certificate:
    Data:
        Version: 3 (0x2)
        Serial Number:
            97:f6:b3:68:27:75:7e:dd:0e:50:e4:a5:00:92:bd:a3
        Signature Algorithm: sha256WithRSAEncryption
        Issuer: CN=team410-net
        Validity
            Not Before: Nov  4 10:48:01 2023 GMT
            Not After : Oct 19 10:48:01 2026 GMT
        Subject: CN=team410-server
        Subject Public Key Info:
            Public Key Algorithm: rsaEncryption
                Public-Key: (2048 bit)
                Modulus:
                    00:b2:d5:3d:8d:58:fa:02:45:78:70:77:6a:f2:40:
                    72:6b:94:4c:d8:85:d5:1e:2b:d0:b4:f2:1f:b8:df:
                    66:ca:90:8a:27:08:ca:b2:86:a7:d8:e3:ff:84:2c:
                    db:60:40:28:47:4b:61:30:be:b3:b6:45:02:01:3e:
                    f5:8d:f1:2f:fb:80:7b:81:87:17:c7:a1:8d:33:f7:
                    65:e9:31:8f:ea:3c:94:98:3f:4e:0b:81:a2:fe:77:
                    22:94:0b:f3:09:c6:38:61:ff:a9:18:e9:5b:dc:62:
                    08:d0:9a:3d:01:62:7f:4f:c3:24:9c:16:e6:f4:ab:
                    b1:c3:4d:33:8d:49:59:f4:bc:d2:1e:61:ba:ac:ef:
                    f5:e8:56:0b:24:74:39:17:6e:6f:de:42:f8:c2:5f:
                    b4:18:31:00:fe:12:20:b6:e9:41:ea:b1:68:74:bc:
                    6f:58:3b:e8:06:e5:fb:09:99:fe:6f:ff:cd:45:53:
                    d9:27:cc:9e:56:e7:0f:7f:c3:88:97:ac:ee:48:d2:
                    24:74:0c:22:c2:3d:8b:f7:a2:25:51:02:af:ca:25:
                    b1:16:8e:50:bb:c3:55:32:ec:27:0a:ee:ad:c5:4f:
                    17:89:13:cc:86:b1:58:44:89:03:76:92:75:e0:bd:
                    a6:34:28:67:85:13:87:5e:d1:bc:77:69:60:44:4b:
                    10:f1
                Exponent: 65537 (0x10001)
        X509v3 extensions:
            X509v3 Basic Constraints: 
                CA:FALSE
            X509v3 Subject Key Identifier: 
                1A:AD:90:AB:52:EC:82:95:06:2B:D0:9C:57:C8:15:D8:A3:33:13:5C
            X509v3 Authority Key Identifier: 
                keyid:8D:04:BE:7F:F3:1B:B3:30:F0:CF:61:8F:B2:A0:BB:A3:01:93:46:3E
                DirName:/CN=team410-net
                serial:36:9C:2C:0C:30:E1:CA:C0:F3:31:C0:0C:11:44:1F:1C:7C:3F:E9:8D
            X509v3 Extended Key Usage: 
                TLS Web Server Authentication
            X509v3 Key Usage: 
                Digital Signature, Key Encipherment
            X509v3 Subject Alternative Name: 
                DNS:team410-server
    Signature Algorithm: sha256WithRSAEncryption
    Signature Value:
        07:09:96:7b:bf:79:71:7a:f7:7c:25:58:54:12:89:ec:c7:40:
        56:7c:91:89:ab:85:e7:2a:5c:db:66:8e:39:f4:01:ae:5a:d7:
        35:6d:b3:81:38:72:d5:a3:be:b9:33:cc:16:7e:49:eb:1b:23:
        76:fe:d4:24:66:91:ca:2f:33:58:90:79:f5:13:7b:72:2e:e6:
        67:5f:fc:15:e5:2e:34:e2:31:bd:f0:eb:3a:17:83:f2:54:8a:
        54:e6:04:ad:dd:59:96:46:d5:46:44:0e:cf:6a:cc:7b:2a:a7:
        02:ba:ca:11:f7:e6:a7:a8:ec:59:38:f0:cc:62:b0:fc:1b:6c:
        d2:0f:1c:13:b5:ca:1a:3c:79:4a:93:73:58:e7:9d:df:b1:a9:
        bd:1e:d0:dd:38:04:62:90:77:a7:62:e8:55:f4:62:32:4e:f1:
        2e:1d:6e:c9:73:bd:20:22:ee:ae:af:3c:ab:03:b3:17:ec:23:
        e8:33:7e:69:a1:25:3a:e6:54:77:bc:fa:9c:3c:50:4d:da:82:
        22:83:b0:e2:5c:3d:c1:0b:30:e2:70:da:69:8d:7c:c3:13:d5:
        83:5c:67:90:12:44:58:4b:84:6a:ad:4d:12:41:16:43:c4:c4:
        0a:f9:d1:b2:f0:23:86:a2:b7:f3:6e:7a:a7:05:74:f4:f2:ff:
        ba:25:f3:47
-----BEGIN CERTIFICATE-----
MIIDeDCCAmCgAwIBAgIRAJf2s2gndX7dDlDkpQCSvaMwDQYJKoZIhvcNAQELBQAw
FjEUMBIGA1UEAwwLdGVhbTQxMC1uZXQwHhcNMjMxMTA0MTA0ODAxWhcNMjYxMDE5
MTA0ODAxWjAZMRcwFQYDVQQDDA50ZWFtNDEwLXNlcnZlcjCCASIwDQYJKoZIhvcN
AQEBBQADggEPADCCAQoCggEBALLVPY1Y+gJFeHB3avJAcmuUTNiF1R4r0LTyH7jf
ZsqQiicIyrKGp9jj/4Qs22BAKEdLYTC+s7ZFAgE+9Y3xL/uAe4GHF8ehjTP3Zekx
j+o8lJg/TguBov53IpQL8wnGOGH/qRjpW9xiCNCaPQFif0/DJJwW5vSrscNNM41J
WfS80h5huqzv9ehWCyR0ORdub95C+MJftBgxAP4SILbpQeqxaHS8b1g76Abl+wmZ
/m//zUVT2SfMnlbnD3/DiJes7kjSJHQMIsI9i/eiJVECr8olsRaOULvDVTLsJwru
rcVPF4kTzIaxWESJA3aSdeC9pjQoZ4UTh17RvHdpYERLEPECAwEAAaOBvTCBujAJ
BgNVHRMEAjAAMB0GA1UdDgQWBBQarZCrUuyClQYr0JxXyBXYozMTXDBRBgNVHSME
SjBIgBSNBL5/8xuzMPDPYY+yoLujAZNGPqEapBgwFjEUMBIGA1UEAwwLdGVhbTQx
MC1uZXSCFDacLAww4crA8zHADBFEHxx8P+mNMBMGA1UdJQQMMAoGCCsGAQUFBwMB
MAsGA1UdDwQEAwIFoDAZBgNVHREEEjAQgg50ZWFtNDEwLXNlcnZlcjANBgkqhkiG
9w0BAQsFAAOCAQEABwmWe795cXr3fCVYVBKJ7MdAVnyRiauF5ypc22aOOfQBrlrX
NW2zgThy1aO+uTPMFn5J6xsjdv7UJGaRyi8zWJB59RN7ci7mZ1/8FeUuNOIxvfDr
OheD8lSKVOYErd1ZlkbVRkQOz2rMeyqnArrKEffmp6jsWTjwzGKw/Bts0g8cE7XK
Gjx5SpNzWOed37GpvR7Q3TgEYpB3p2LoVfRiMk7xLh1uyXO9ICLurq88qwOzF+wj
6DN+aaElOuZUd7z6nDxQTdqCIoOw4lw9wQsw4nDaaY18wxPVg1xnkBJEWEuEaq1N
EkEWQ8TECvnRsvAjhqK38256pwV09PL/uiXzRw==
-----END CERTIFICATE-----
