Certificate:
    Data:
        Version: 3 (0x2)
        Serial Number:
            3c:64:d7:1a:f1:63:d9:64:c1:1b:c5:19:39:01:91:a1
        Signature Algorithm: sha256WithRSAEncryption
        Issuer: CN=team151-net
        Validity
            Not Before: Nov  4 11:30:33 2023 GMT
            Not After : Oct 19 11:30:33 2026 GMT
        Subject: CN=team151-client
        Subject Public Key Info:
            Public Key Algorithm: rsaEncryption
                Public-Key: (2048 bit)
                Modulus:
                    00:b6:0e:51:4d:b2:cf:bb:36:ae:98:60:06:35:81:
                    fb:b9:7a:78:b3:e9:30:25:9e:c8:78:2a:b6:4c:79:
                    e5:5b:b6:c1:ed:94:fb:38:c6:1c:59:fb:1d:3c:1c:
                    70:7a:69:c8:43:62:0c:93:0b:73:e8:ee:c7:3a:98:
                    5c:af:4d:f0:52:65:18:38:9b:01:88:c1:13:13:3c:
                    04:ad:ea:71:95:83:8f:ed:e6:9f:65:89:8a:b0:a3:
                    d3:7d:57:0d:e9:87:f8:50:ea:ad:23:9e:9a:05:49:
                    bd:cc:ae:67:56:63:f9:ef:b5:f8:1c:b9:76:da:3c:
                    ca:8b:78:47:82:10:35:3e:d7:cd:52:d2:90:eb:36:
                    66:97:f0:07:aa:30:e6:2f:33:0f:7f:ec:54:2d:54:
                    b2:ae:a8:5e:2b:14:a6:3f:ef:88:8c:63:eb:d4:a1:
                    8d:cd:14:1f:fc:86:af:92:22:a7:62:ef:9c:6b:3a:
                    53:75:cd:a1:13:07:98:f4:82:58:64:6d:fe:fd:2c:
                    f5:72:e5:cf:bb:98:1c:dd:ed:96:60:9b:eb:93:e4:
                    88:90:83:c3:c0:cc:ff:9f:92:12:06:01:78:65:63:
                    6a:6e:c9:14:d9:c5:04:7e:5b:9a:b3:42:7a:cf:f7:
                    d7:24:e9:d3:7c:0d:84:6e:eb:02:da:9a:bf:99:5d:
                    78:e5
                Exponent: 65537 (0x10001)
        X509v3 extensions:
            X509v3 Basic Constraints: 
                CA:FALSE
            X509v3 Subject Key Identifier: 
                D8:E4:5B:2E:09:05:84:4E:F8:79:66:CA:9C:53:97:CF:B8:41:20:2C
            X509v3 Authority Key Identifier: 
                keyid:5F:58:4F:9F:EF:A4:EA:CD:27:9B:18:0C:C0:9A:AA:B0:04:D0:B6:79
                DirName:/CN=team151-net
                serial:66:9D:E7:37:EE:9A:A1:2B:95:43:84:D9:06:C5:F3:E6:12:FD:40:53
            X509v3 Extended Key Usage: 
                TLS Web Client Authentication
            X509v3 Key Usage: 
                Digital Signature
    Signature Algorithm: sha256WithRSAEncryption
    Signature Value:
        b1:30:a4:18:81:44:d3:e5:cc:8d:f9:b7:4e:3d:87:f6:b2:a9:
        19:10:55:42:41:04:8f:bd:04:ef:64:ce:43:5e:e7:29:9b:c8:
        74:52:00:af:45:e9:d6:bc:46:a0:cc:e1:ad:7c:b0:c7:6f:72:
        ee:f6:93:be:bf:de:e8:9d:fb:57:03:f1:7f:34:bb:f2:eb:5a:
        bb:5b:a2:3c:e1:40:4f:77:67:c7:2b:fd:b4:8d:9a:25:2e:bd:
        30:5b:59:04:7b:c9:34:d3:45:15:47:fa:02:7d:d2:83:9d:8e:
        2b:d0:0b:19:77:97:91:06:eb:b4:bf:4d:88:da:d4:9b:1c:b4:
        67:c0:45:cb:63:d2:f5:ee:10:bb:1a:c0:04:36:6d:c7:df:45:
        73:87:e7:12:89:39:ce:79:7f:5f:9e:ed:87:3a:9b:31:92:1c:
        c2:d9:bc:e3:62:65:01:81:e9:9b:b9:9a:f4:4f:1d:3e:fc:a9:
        57:a8:96:02:97:01:81:56:c4:60:9b:b2:b6:e4:2f:62:c8:ed:
        6d:49:c9:5d:4a:4b:22:29:04:77:53:fc:5c:f2:cf:3b:d3:08:
        70:82:ef:bd:d0:5d:b2:79:e4:f1:eb:ce:97:7a:2c:1f:78:b5:
        42:82:dd:d0:70:97:e4:3d:dd:5c:07:0b:ed:41:91:8f:50:07:
        fc:43:83:2b
-----BEGIN CERTIFICATE-----
MIIDXDCCAkSgAwIBAgIQPGTXGvFj2WTBG8UZOQGRoTANBgkqhkiG9w0BAQsFADAW
MRQwEgYDVQQDDAt0ZWFtMTUxLW5ldDAeFw0yMzExMDQxMTMwMzNaFw0yNjEwMTkx
MTMwMzNaMBkxFzAVBgNVBAMMDnRlYW0xNTEtY2xpZW50MIIBIjANBgkqhkiG9w0B
AQEFAAOCAQ8AMIIBCgKCAQEAtg5RTbLPuzaumGAGNYH7uXp4s+kwJZ7IeCq2THnl
W7bB7ZT7OMYcWfsdPBxwemnIQ2IMkwtz6O7HOphcr03wUmUYOJsBiMETEzwErepx
lYOP7eafZYmKsKPTfVcN6Yf4UOqtI56aBUm9zK5nVmP577X4HLl22jzKi3hHghA1
PtfNUtKQ6zZml/AHqjDmLzMPf+xULVSyrqheKxSmP++IjGPr1KGNzRQf/IavkiKn
Yu+cazpTdc2hEweY9IJYZG3+/Sz1cuXPu5gc3e2WYJvrk+SIkIPDwMz/n5ISBgF4
ZWNqbskU2cUEfluas0J6z/fXJOnTfA2EbusC2pq/mV145QIDAQABo4GiMIGfMAkG
A1UdEwQCMAAwHQYDVR0OBBYEFNjkWy4JBYRO+HlmypxTl8+4QSAsMFEGA1UdIwRK
MEiAFF9YT5/vpOrNJ5sYDMCaqrAE0LZ5oRqkGDAWMRQwEgYDVQQDDAt0ZWFtMTUx
LW5ldIIUZp3nN+6aoSuVQ4TZBsXz5hL9QFMwEwYDVR0lBAwwCgYIKwYBBQUHAwIw
CwYDVR0PBAQDAgeAMA0GCSqGSIb3DQEBCwUAA4IBAQCxMKQYgUTT5cyN+bdOPYf2
sqkZEFVCQQSPvQTvZM5DXucpm8h0UgCvRenWvEagzOGtfLDHb3Lu9pO+v97onftX
A/F/NLvy61q7W6I84UBPd2fHK/20jZolLr0wW1kEe8k000UVR/oCfdKDnY4r0AsZ
d5eRBuu0v02I2tSbHLRnwEXLY9L17hC7GsAENm3H30Vzh+cSiTnOeX9fnu2HOpsx
khzC2bzjYmUBgembuZr0Tx0+/KlXqJYClwGBVsRgm7K25C9iyO1tScldSksiKQR3
U/xc8s870whwgu+90F2yeeTx686XeiwfeLVCgt3QcJfkPd1cBwvtQZGPUAf8Q4Mr
-----END CERTIFICATE-----
