Certificate:
    Data:
        Version: 3 (0x2)
        Serial Number:
            41:8c:4c:af:22:63:bb:73:29:b0:5c:66:96:37:b4:a2
        Signature Algorithm: sha256WithRSAEncryption
        Issuer: CN=team151-net
        Validity
            Not Before: Nov  3 20:41:56 2023 GMT
            Not After : Oct 18 20:41:56 2026 GMT
        Subject: CN=team151-client
        Subject Public Key Info:
            Public Key Algorithm: rsaEncryption
                Public-Key: (2048 bit)
                Modulus:
                    00:b9:a1:65:65:79:f0:1f:78:9e:ea:bd:f2:87:bf:
                    f5:e3:4b:e8:29:a4:d8:c5:0b:9f:91:b8:f9:63:bc:
                    c3:58:9f:1f:93:ba:6c:8d:0d:51:1b:e3:ed:7e:52:
                    68:59:f0:ab:2c:09:fd:f9:66:30:7a:9a:6d:16:28:
                    94:4a:ae:ee:3a:3b:59:48:c8:78:33:a1:25:2e:dd:
                    65:90:89:02:4a:50:07:cc:19:41:ee:18:0b:8d:e5:
                    2a:56:b1:31:47:b2:12:81:cf:12:d8:96:33:cb:46:
                    6a:cc:53:33:b1:b0:c8:dd:19:a0:23:8f:21:8e:90:
                    56:20:93:c0:f7:c5:08:cf:8d:e4:c6:39:bb:91:87:
                    b4:1f:72:46:9e:b4:54:0b:d4:aa:ef:40:9a:fe:7a:
                    eb:94:28:ea:78:61:e0:16:0d:de:ef:a4:29:2f:ed:
                    f0:fd:5c:d8:65:c8:61:71:2f:06:2f:c1:85:37:29:
                    21:d2:f6:22:45:8d:a3:6c:88:ad:e6:19:a8:50:4d:
                    74:e6:8d:1e:7c:cd:d3:df:33:c1:83:c1:1a:64:e5:
                    9d:cf:70:c5:26:4f:bb:49:f4:c2:38:dd:1e:b4:da:
                    4a:3c:a9:50:df:07:f1:b0:c3:b3:80:8b:13:a6:67:
                    05:a4:63:de:cc:a8:ce:68:39:19:e6:f0:21:90:b5:
                    f8:99
                Exponent: 65537 (0x10001)
        X509v3 extensions:
            X509v3 Basic Constraints: 
                CA:FALSE
            X509v3 Subject Key Identifier: 
                C0:13:84:6D:2D:77:D5:9D:93:DC:8B:7E:31:40:14:28:2E:06:D2:8B
            X509v3 Authority Key Identifier: 
                keyid:82:9E:B2:7F:09:CA:C2:B3:D2:3D:28:EB:17:98:B1:F5:DD:59:4E:43
                DirName:/CN=team151-net
                serial:13:CF:BF:95:05:08:8B:12:11:60:B8:2B:00:7E:4A:C3:04:0D:6D:46
            X509v3 Extended Key Usage: 
                TLS Web Client Authentication
            X509v3 Key Usage: 
                Digital Signature
    Signature Algorithm: sha256WithRSAEncryption
    Signature Value:
        88:01:85:3c:02:3b:25:a3:91:9a:a0:6a:62:83:bb:91:9f:f6:
        df:87:9c:87:db:d2:fe:04:39:84:f1:12:59:d1:eb:97:9e:32:
        5f:f0:59:bf:07:e9:e6:8c:87:ea:e5:2f:90:31:62:ae:38:eb:
        2f:43:31:ad:bd:15:10:51:69:f6:1d:1c:1f:40:4f:1e:82:23:
        af:47:87:2c:cd:2b:c4:45:f0:80:09:c2:ec:c7:54:df:57:4d:
        e6:4c:0f:f5:5c:96:26:5c:aa:e9:04:00:95:25:a7:14:45:e6:
        77:d0:4b:57:5d:7b:f7:2d:68:ff:9f:26:66:0c:7c:13:1c:eb:
        c6:16:00:87:e5:dc:18:47:c5:d9:4f:7e:17:d1:4f:3a:13:9d:
        62:ef:22:af:a9:f3:68:a7:f7:34:e2:aa:64:1b:41:ed:99:30:
        a9:29:72:1e:2a:54:0c:f2:67:5b:4c:cc:cf:21:75:03:ff:9d:
        66:ed:ef:65:1d:81:af:9d:2b:ac:be:21:93:5c:37:94:71:f1:
        12:f1:74:61:d4:15:49:e7:e2:58:4a:b2:02:38:ad:b0:2b:75:
        38:2b:6d:d3:6d:18:b2:3c:84:d3:ee:1f:13:98:b6:e6:5b:6b:
        f2:f3:0d:80:89:3a:cc:1a:09:01:41:e3:30:e9:25:cb:89:30:
        b0:71:c7:e7
-----BEGIN CERTIFICATE-----
MIIDXDCCAkSgAwIBAgIQQYxMryJju3MpsFxmlje0ojANBgkqhkiG9w0BAQsFADAW
MRQwEgYDVQQDDAt0ZWFtMTUxLW5ldDAeFw0yMzExMDMyMDQxNTZaFw0yNjEwMTgy
MDQxNTZaMBkxFzAVBgNVBAMMDnRlYW0xNTEtY2xpZW50MIIBIjANBgkqhkiG9w0B
AQEFAAOCAQ8AMIIBCgKCAQEAuaFlZXnwH3ie6r3yh7/140voKaTYxQufkbj5Y7zD
WJ8fk7psjQ1RG+PtflJoWfCrLAn9+WYwepptFiiUSq7uOjtZSMh4M6ElLt1lkIkC
SlAHzBlB7hgLjeUqVrExR7ISgc8S2JYzy0ZqzFMzsbDI3RmgI48hjpBWIJPA98UI
z43kxjm7kYe0H3JGnrRUC9Sq70Ca/nrrlCjqeGHgFg3e76QpL+3w/VzYZchhcS8G
L8GFNykh0vYiRY2jbIit5hmoUE105o0efM3T3zPBg8EaZOWdz3DFJk+7SfTCON0e
tNpKPKlQ3wfxsMOzgIsTpmcFpGPezKjOaDkZ5vAhkLX4mQIDAQABo4GiMIGfMAkG
A1UdEwQCMAAwHQYDVR0OBBYEFMAThG0td9Wdk9yLfjFAFCguBtKLMFEGA1UdIwRK
MEiAFIKesn8JysKz0j0o6xeYsfXdWU5DoRqkGDAWMRQwEgYDVQQDDAt0ZWFtMTUx
LW5ldIIUE8+/lQUIixIRYLgrAH5KwwQNbUYwEwYDVR0lBAwwCgYIKwYBBQUHAwIw
CwYDVR0PBAQDAgeAMA0GCSqGSIb3DQEBCwUAA4IBAQCIAYU8Ajslo5GaoGpig7uR
n/bfh5yH29L+BDmE8RJZ0euXnjJf8Fm/B+nmjIfq5S+QMWKuOOsvQzGtvRUQUWn2
HRwfQE8egiOvR4cszSvERfCACcLsx1TfV03mTA/1XJYmXKrpBACVJacUReZ30EtX
XXv3LWj/nyZmDHwTHOvGFgCH5dwYR8XZT34X0U86E51i7yKvqfNop/c04qpkG0Ht
mTCpKXIeKlQM8mdbTMzPIXUD/51m7e9lHYGvnSusviGTXDeUcfES8XRh1BVJ5+JY
SrICOK2wK3U4K23TbRiyPITT7h8TmLbmW2vy8w2AiTrMGgkBQeMw6SXLiTCwccfn
-----END CERTIFICATE-----
