Certificate:
    Data:
        Version: 3 (0x2)
        Serial Number:
            49:03:42:dd:b4:92:5d:e2:3b:76:aa:50:26:77:ab:6b
        Signature Algorithm: sha256WithRSAEncryption
        Issuer: CN=team151-net
        Validity
            Not Before: Nov  4 10:43:20 2023 GMT
            Not After : Oct 19 10:43:20 2026 GMT
        Subject: CN=team151-server
        Subject Public Key Info:
            Public Key Algorithm: rsaEncryption
                Public-Key: (2048 bit)
                Modulus:
                    00:be:32:fa:d8:f7:61:66:31:fc:ac:89:12:38:2d:
                    c1:e8:bd:cd:81:a1:e4:03:40:71:09:19:0d:71:38:
                    7f:80:1f:77:24:e3:8b:0d:49:8c:ff:11:2e:c6:91:
                    ac:a0:da:d8:d8:7d:56:24:93:7d:58:19:ad:b5:c9:
                    a3:25:71:35:0a:ed:f2:22:d0:68:e5:b4:dd:58:fa:
                    92:33:ac:00:3b:92:9a:f4:7e:0d:71:4e:8e:a2:d8:
                    c1:d2:39:13:03:ad:5e:83:fb:19:96:03:c5:2a:ea:
                    1e:23:97:bf:6c:4e:bb:7f:62:3f:1d:d5:58:ad:d3:
                    5a:ce:ee:29:c8:1c:6e:86:2e:54:17:2c:ad:b1:9c:
                    45:dc:7e:38:c6:a3:69:bd:3f:6e:d2:7a:94:01:a0:
                    b2:a6:61:19:1b:9b:7b:77:33:b3:35:49:f5:ad:79:
                    a7:05:2d:5b:f9:27:35:8c:c1:b8:3b:38:25:37:5e:
                    9c:33:0a:b6:f7:f8:31:00:c2:4c:88:b1:41:d2:5e:
                    4f:1a:b8:4a:bb:bf:cc:99:9b:18:00:04:09:0f:cd:
                    0b:2f:d6:b1:fb:74:13:ce:f9:5f:d8:e1:99:d6:33:
                    aa:14:88:3c:fe:b2:47:35:ca:46:92:0c:cf:ab:3b:
                    72:c9:11:67:9a:95:51:83:c9:35:c4:95:85:bf:6c:
                    33:fd
                Exponent: 65537 (0x10001)
        X509v3 extensions:
            X509v3 Basic Constraints: 
                CA:FALSE
            X509v3 Subject Key Identifier: 
                F2:C1:71:92:88:C4:79:E1:62:C2:46:50:06:74:29:62:63:1D:9B:7E
            X509v3 Authority Key Identifier: 
                keyid:CC:EA:28:38:5D:A6:7C:37:B0:E2:61:95:A4:FD:A0:AD:E0:94:97:7E
                DirName:/CN=team151-net
                serial:37:AA:BE:7F:59:49:F3:50:E2:F5:14:27:36:75:BA:80:11:9A:DB:14
            X509v3 Extended Key Usage: 
                TLS Web Server Authentication
            X509v3 Key Usage: 
                Digital Signature, Key Encipherment
            X509v3 Subject Alternative Name: 
                DNS:team151-server
    Signature Algorithm: sha256WithRSAEncryption
    Signature Value:
        47:d2:b0:8b:91:6c:57:87:a5:e8:6b:41:f9:30:54:95:d0:07:
        85:54:bc:bd:07:50:f4:9f:04:90:69:ca:ac:ad:17:39:26:02:
        ce:1d:83:e2:22:d5:f3:32:fb:27:ce:f9:d2:07:1f:59:f0:e4:
        bf:54:e6:64:8a:14:65:13:86:0a:65:b1:bd:9e:4e:c2:de:86:
        fa:b3:9b:13:2a:49:d6:63:aa:7f:16:7b:fe:6e:d7:12:78:e3:
        3d:4f:24:a7:75:bc:39:9e:e3:18:8d:a7:09:af:8a:ec:b5:35:
        36:9a:88:42:12:e8:eb:9e:ad:dd:01:06:9b:3f:43:e5:ae:51:
        42:ab:73:05:f9:69:4e:cb:90:e1:1c:05:55:53:d6:6a:68:19:
        d4:e6:75:c3:e6:10:9d:00:50:b3:db:3f:84:02:96:ae:34:9b:
        dc:0c:7d:51:d8:bf:3c:9f:b3:d6:95:79:67:40:dd:ed:07:8d:
        2c:1e:81:ea:8f:ec:f1:fe:70:de:60:6b:8b:12:a6:50:3e:e1:
        5a:5e:7e:f2:71:fe:30:2f:6c:61:2e:d0:f5:58:c3:47:db:31:
        96:02:9f:19:19:9c:83:71:51:b7:ec:96:65:21:de:2e:2b:6d:
        5b:ce:6c:76:b9:fa:71:8f:45:4b:bd:53:fc:76:e5:a2:6f:1e:
        6e:08:fa:33
-----BEGIN CERTIFICATE-----
MIIDdzCCAl+gAwIBAgIQSQNC3bSSXeI7dqpQJnerazANBgkqhkiG9w0BAQsFADAW
MRQwEgYDVQQDDAt0ZWFtMTUxLW5ldDAeFw0yMzExMDQxMDQzMjBaFw0yNjEwMTkx
MDQzMjBaMBkxFzAVBgNVBAMMDnRlYW0xNTEtc2VydmVyMIIBIjANBgkqhkiG9w0B
AQEFAAOCAQ8AMIIBCgKCAQEAvjL62PdhZjH8rIkSOC3B6L3NgaHkA0BxCRkNcTh/
gB93JOOLDUmM/xEuxpGsoNrY2H1WJJN9WBmttcmjJXE1Cu3yItBo5bTdWPqSM6wA
O5Ka9H4NcU6OotjB0jkTA61eg/sZlgPFKuoeI5e/bE67f2I/HdVYrdNazu4pyBxu
hi5UFyytsZxF3H44xqNpvT9u0nqUAaCypmEZG5t7dzOzNUn1rXmnBS1b+Sc1jMG4
OzglN16cMwq29/gxAMJMiLFB0l5PGrhKu7/MmZsYAAQJD80LL9ax+3QTzvlf2OGZ
1jOqFIg8/rJHNcpGkgzPqztyyRFnmpVRg8k1xJWFv2wz/QIDAQABo4G9MIG6MAkG
A1UdEwQCMAAwHQYDVR0OBBYEFPLBcZKIxHnhYsJGUAZ0KWJjHZt+MFEGA1UdIwRK
MEiAFMzqKDhdpnw3sOJhlaT9oK3glJd+oRqkGDAWMRQwEgYDVQQDDAt0ZWFtMTUx
LW5ldIIUN6q+f1lJ81Di9RQnNnW6gBGa2xQwEwYDVR0lBAwwCgYIKwYBBQUHAwEw
CwYDVR0PBAQDAgWgMBkGA1UdEQQSMBCCDnRlYW0xNTEtc2VydmVyMA0GCSqGSIb3
DQEBCwUAA4IBAQBH0rCLkWxXh6Xoa0H5MFSV0AeFVLy9B1D0nwSQacqsrRc5JgLO
HYPiItXzMvsnzvnSBx9Z8OS/VOZkihRlE4YKZbG9nk7C3ob6s5sTKknWY6p/Fnv+
btcSeOM9TySndbw5nuMYjacJr4rstTU2mohCEujrnq3dAQabP0PlrlFCq3MF+WlO
y5DhHAVVU9ZqaBnU5nXD5hCdAFCz2z+EApauNJvcDH1R2L88n7PWlXlnQN3tB40s
HoHqj+zx/nDeYGuLEqZQPuFaXn7ycf4wL2xhLtD1WMNH2zGWAp8ZGZyDcVG37JZl
Id4uK21bzmx2ufpxj0VLvVP8duWibx5uCPoz
-----END CERTIFICATE-----
