Certificate:
    Data:
        Version: 3 (0x2)
        Serial Number:
            3b:a3:e0:5b:d2:bb:89:91:ae:42:39:40:40:75:77:32
        Signature Algorithm: sha256WithRSAEncryption
        Issuer: CN=team363-net
        Validity
            Not Before: Nov  4 11:35:33 2023 GMT
            Not After : Oct 19 11:35:33 2026 GMT
        Subject: CN=team363-client
        Subject Public Key Info:
            Public Key Algorithm: rsaEncryption
                Public-Key: (2048 bit)
                Modulus:
                    00:c8:50:0e:f5:24:4d:7c:65:72:e4:89:c8:fc:ce:
                    94:1a:d6:eb:8d:fe:aa:89:0c:92:ec:da:b6:cf:44:
                    e5:71:06:95:90:56:ae:33:eb:12:5f:37:bd:0b:b5:
                    da:1e:69:bb:dc:22:8a:c6:80:23:c6:cc:1b:23:60:
                    c8:38:95:9b:7c:a3:90:e5:f0:8e:ee:97:dd:4e:90:
                    7c:db:f5:47:28:6b:d7:f3:28:5c:ce:00:50:da:69:
                    b7:9f:08:2d:bd:46:7f:04:4a:14:2c:c6:01:1a:e4:
                    56:32:75:b5:c7:92:7d:00:d7:e8:e0:51:41:81:77:
                    fc:bd:b5:87:88:f6:d8:b2:20:2b:77:bb:59:22:0f:
                    44:d7:80:09:fc:ac:91:2c:3b:28:c7:5f:89:74:dc:
                    62:aa:6c:8f:82:74:af:bd:39:21:ec:75:4a:83:f0:
                    53:84:6b:2e:53:b1:96:97:c7:20:ca:34:c5:36:75:
                    af:e6:e1:f4:7d:4b:83:fc:56:b9:6a:8f:4a:07:ad:
                    d5:47:cf:ee:f3:34:6a:18:c3:47:76:9a:11:55:ad:
                    a8:6f:41:05:87:b4:1c:b7:8a:9f:d0:9f:50:91:64:
                    b1:51:1f:d7:09:d2:86:a3:05:22:9a:37:55:84:f7:
                    9d:4e:50:6c:62:e6:40:dd:aa:1d:22:72:0a:37:28:
                    df:2b
                Exponent: 65537 (0x10001)
        X509v3 extensions:
            X509v3 Basic Constraints: 
                CA:FALSE
            X509v3 Subject Key Identifier: 
                8A:BE:07:96:24:9D:8F:98:34:56:C7:03:27:A4:03:81:81:EB:E2:2B
            X509v3 Authority Key Identifier: 
                keyid:78:FC:CA:95:D7:EC:79:EE:C9:F5:54:25:24:CB:F8:E5:F2:A6:86:26
                DirName:/CN=team363-net
                serial:02:A6:31:BA:30:44:F5:BD:9D:4C:03:D2:8F:16:BF:E3:D9:A4:73:BD
            X509v3 Extended Key Usage: 
                TLS Web Client Authentication
            X509v3 Key Usage: 
                Digital Signature
    Signature Algorithm: sha256WithRSAEncryption
    Signature Value:
        a5:6e:69:7d:7d:0b:50:d8:cf:01:c9:8d:be:4a:f5:e6:68:91:
        f2:cb:c7:54:05:3e:a7:2b:c3:b8:e4:86:eb:65:91:7d:2e:c4:
        c3:c2:be:48:44:de:84:91:13:50:af:a9:74:78:a8:2e:ca:dd:
        6c:41:28:fe:c1:b9:f2:9f:cb:1b:31:ba:2f:fe:16:6a:d6:fc:
        ad:5e:ad:5c:91:e1:1d:92:d5:0c:a4:d8:9f:ae:82:28:4d:28:
        6b:f6:4f:05:3c:f3:e8:e2:64:ae:e3:d2:38:40:9f:1b:bb:57:
        ef:dd:74:3d:e0:8a:63:09:69:e6:25:0a:3e:5b:f4:ac:96:93:
        52:df:8a:f6:db:a0:55:be:85:14:22:bf:57:5f:ac:09:b3:a9:
        86:fa:43:c1:31:a3:74:24:6c:5e:80:33:ba:cc:e7:6a:5c:b5:
        4e:b8:14:ac:6c:89:96:fe:2c:0b:01:24:c5:5d:fe:81:fa:42:
        00:26:dc:c8:84:bb:62:52:4b:b3:1c:d4:60:94:95:0d:60:35:
        0b:64:bf:31:4d:d7:9b:6c:37:83:7b:d1:7e:20:9b:82:00:c3:
        ce:42:cb:a0:99:d8:16:0e:ab:8a:ea:42:40:fc:ec:de:a7:0f:
        05:b6:97:5d:08:98:62:10:e9:b1:b1:25:10:25:51:b5:f3:d4:
        1a:ec:fa:22
-----BEGIN CERTIFICATE-----
MIIDXDCCAkSgAwIBAgIQO6PgW9K7iZGuQjlAQHV3MjANBgkqhkiG9w0BAQsFADAW
MRQwEgYDVQQDDAt0ZWFtMzYzLW5ldDAeFw0yMzExMDQxMTM1MzNaFw0yNjEwMTkx
MTM1MzNaMBkxFzAVBgNVBAMMDnRlYW0zNjMtY2xpZW50MIIBIjANBgkqhkiG9w0B
AQEFAAOCAQ8AMIIBCgKCAQEAyFAO9SRNfGVy5InI/M6UGtbrjf6qiQyS7Nq2z0Tl
cQaVkFauM+sSXze9C7XaHmm73CKKxoAjxswbI2DIOJWbfKOQ5fCO7pfdTpB82/VH
KGvX8yhczgBQ2mm3nwgtvUZ/BEoULMYBGuRWMnW1x5J9ANfo4FFBgXf8vbWHiPbY
siArd7tZIg9E14AJ/KyRLDsox1+JdNxiqmyPgnSvvTkh7HVKg/BThGsuU7GWl8cg
yjTFNnWv5uH0fUuD/Fa5ao9KB63VR8/u8zRqGMNHdpoRVa2ob0EFh7Qct4qf0J9Q
kWSxUR/XCdKGowUimjdVhPedTlBsYuZA3aodInIKNyjfKwIDAQABo4GiMIGfMAkG
A1UdEwQCMAAwHQYDVR0OBBYEFIq+B5YknY+YNFbHAyekA4GB6+IrMFEGA1UdIwRK
MEiAFHj8ypXX7HnuyfVUJSTL+OXypoYmoRqkGDAWMRQwEgYDVQQDDAt0ZWFtMzYz
LW5ldIIUAqYxujBE9b2dTAPSjxa/49mkc70wEwYDVR0lBAwwCgYIKwYBBQUHAwIw
CwYDVR0PBAQDAgeAMA0GCSqGSIb3DQEBCwUAA4IBAQClbml9fQtQ2M8ByY2+SvXm
aJHyy8dUBT6nK8O45IbrZZF9LsTDwr5IRN6EkRNQr6l0eKguyt1sQSj+wbnyn8sb
Mbov/hZq1vytXq1ckeEdktUMpNifroIoTShr9k8FPPPo4mSu49I4QJ8bu1fv3XQ9
4IpjCWnmJQo+W/SslpNS34r226BVvoUUIr9XX6wJs6mG+kPBMaN0JGxegDO6zOdq
XLVOuBSsbImW/iwLASTFXf6B+kIAJtzIhLtiUkuzHNRglJUNYDULZL8xTdebbDeD
e9F+IJuCAMPOQsugmdgWDquK6kJA/Ozepw8FtpddCJhiEOmxsSUQJVG189Qa7Poi
-----END CERTIFICATE-----
