Certificate:
    Data:
        Version: 3 (0x2)
        Serial Number:
            59:e3:9c:5a:b0:a7:29:3f:ed:e5:b4:92:a5:6f:e4:6f
        Signature Algorithm: sha256WithRSAEncryption
        Issuer: CN=team363-net
        Validity
            Not Before: Nov  3 20:45:52 2023 GMT
            Not After : Oct 18 20:45:52 2026 GMT
        Subject: CN=team363-server
        Subject Public Key Info:
            Public Key Algorithm: rsaEncryption
                Public-Key: (2048 bit)
                Modulus:
                    00:b3:dc:df:25:e3:fb:d6:e4:ed:b7:c6:4c:fc:29:
                    fd:3f:39:87:ef:19:99:ec:14:c0:e3:3f:3e:2c:92:
                    fb:33:41:e6:84:d0:b4:ff:6f:54:2b:df:1d:5d:2b:
                    e8:1f:30:c5:d4:37:d5:27:87:3f:95:64:76:1e:96:
                    20:52:02:6a:35:0b:a7:c2:28:c6:0a:b5:2d:06:b9:
                    2f:b9:0c:2d:d7:c4:97:37:43:2e:11:89:0a:95:6b:
                    50:51:ba:67:45:13:40:f7:a9:9d:83:d4:8a:28:1c:
                    85:0d:6f:d4:23:b3:20:00:52:b2:e2:42:1f:c6:6e:
                    a0:fa:a1:c1:96:65:22:e9:ad:3d:0f:3c:73:b5:f2:
                    11:36:b8:b4:e7:a2:25:1c:e4:f3:d0:70:d1:9d:93:
                    88:e3:dc:06:fe:d5:48:b5:35:f3:b4:20:a6:0c:4e:
                    b6:11:80:b1:f6:65:8e:ad:d3:f6:b5:13:c8:b0:1a:
                    0c:af:b3:f7:13:ee:5f:1c:6e:c0:a5:98:e1:8c:b1:
                    7d:75:ef:40:3e:26:b2:34:01:c0:44:22:12:d2:15:
                    b3:8d:9f:f6:4f:59:8e:54:5a:ed:88:11:ae:94:1f:
                    1a:4e:2e:0a:0e:5a:f0:f5:42:c1:da:5a:f3:bc:e7:
                    79:23:ee:81:3a:7e:f4:c6:4f:7d:45:80:9a:aa:fb:
                    cd:ff
                Exponent: 65537 (0x10001)
        X509v3 extensions:
            X509v3 Basic Constraints: 
                CA:FALSE
            X509v3 Subject Key Identifier: 
                63:68:DF:8E:B9:63:B5:73:97:0E:EC:46:6C:D5:F4:A6:DA:6C:58:17
            X509v3 Authority Key Identifier: 
                keyid:AF:5F:98:06:66:14:EC:6D:DE:BB:1B:BD:FA:FC:02:C3:72:2B:A6:FA
                DirName:/CN=team363-net
                serial:25:62:DC:2B:4F:3A:42:7E:B9:04:46:69:29:DE:A6:27:EE:C9:93:39
            X509v3 Extended Key Usage: 
                TLS Web Server Authentication
            X509v3 Key Usage: 
                Digital Signature, Key Encipherment
            X509v3 Subject Alternative Name: 
                DNS:team363-server
    Signature Algorithm: sha256WithRSAEncryption
    Signature Value:
        14:c6:f7:dc:72:9a:66:a2:41:1c:f6:20:2a:bb:2f:af:38:7f:
        c8:25:7f:13:12:91:69:4f:95:4b:7c:6a:94:e9:23:0e:99:ee:
        12:9d:26:f6:36:69:fe:06:9e:c7:ee:40:f3:a4:5b:ea:69:4f:
        66:d3:e9:fa:61:38:8e:45:23:94:0f:ed:56:73:66:e8:a4:53:
        41:9a:ff:6f:af:b8:46:76:b2:54:d6:28:c5:c8:1e:68:74:97:
        1c:2d:70:fb:c5:5d:f2:18:94:72:55:85:15:69:8e:03:c7:08:
        51:aa:fa:ac:6b:1b:68:00:01:ec:24:8c:d3:fc:07:19:20:41:
        5b:61:df:6e:79:5c:4f:98:cf:af:73:4c:1a:7c:ab:dc:bd:e0:
        ad:81:cb:42:85:fd:2a:3c:df:35:7f:90:8a:19:eb:e1:39:66:
        e7:0e:f6:f7:b3:bc:03:7a:97:ea:2b:3f:5c:92:59:6a:a2:39:
        a0:d5:73:d4:76:47:2e:3e:d8:69:0d:05:a6:79:5c:3d:47:10:
        be:e5:68:f5:48:83:54:c3:1d:e5:d5:ca:0e:be:9e:ae:2a:af:
        3a:db:69:ed:6d:44:2e:1f:12:38:32:b4:38:50:5f:f3:d8:a0:
        9e:3c:48:66:e4:2e:a5:d2:8a:52:24:12:8c:07:58:ea:c4:f2:
        52:81:57:66
-----BEGIN CERTIFICATE-----
MIIDdzCCAl+gAwIBAgIQWeOcWrCnKT/t5bSSpW/kbzANBgkqhkiG9w0BAQsFADAW
MRQwEgYDVQQDDAt0ZWFtMzYzLW5ldDAeFw0yMzExMDMyMDQ1NTJaFw0yNjEwMTgy
MDQ1NTJaMBkxFzAVBgNVBAMMDnRlYW0zNjMtc2VydmVyMIIBIjANBgkqhkiG9w0B
AQEFAAOCAQ8AMIIBCgKCAQEAs9zfJeP71uTtt8ZM/Cn9PzmH7xmZ7BTA4z8+LJL7
M0HmhNC0/29UK98dXSvoHzDF1DfVJ4c/lWR2HpYgUgJqNQunwijGCrUtBrkvuQwt
18SXN0MuEYkKlWtQUbpnRRNA96mdg9SKKByFDW/UI7MgAFKy4kIfxm6g+qHBlmUi
6a09DzxztfIRNri056IlHOTz0HDRnZOI49wG/tVItTXztCCmDE62EYCx9mWOrdP2
tRPIsBoMr7P3E+5fHG7ApZjhjLF9de9APiayNAHARCIS0hWzjZ/2T1mOVFrtiBGu
lB8aTi4KDlrw9ULB2lrzvOd5I+6BOn70xk99RYCaqvvN/wIDAQABo4G9MIG6MAkG
A1UdEwQCMAAwHQYDVR0OBBYEFGNo3465Y7Vzlw7sRmzV9KbabFgXMFEGA1UdIwRK
MEiAFK9fmAZmFOxt3rsbvfr8AsNyK6b6oRqkGDAWMRQwEgYDVQQDDAt0ZWFtMzYz
LW5ldIIUJWLcK086Qn65BEZpKd6mJ+7JkzkwEwYDVR0lBAwwCgYIKwYBBQUHAwEw
CwYDVR0PBAQDAgWgMBkGA1UdEQQSMBCCDnRlYW0zNjMtc2VydmVyMA0GCSqGSIb3
DQEBCwUAA4IBAQAUxvfccppmokEc9iAquy+vOH/IJX8TEpFpT5VLfGqU6SMOme4S
nSb2Nmn+Bp7H7kDzpFvqaU9m0+n6YTiORSOUD+1Wc2bopFNBmv9vr7hGdrJU1ijF
yB5odJccLXD7xV3yGJRyVYUVaY4DxwhRqvqsaxtoAAHsJIzT/AcZIEFbYd9ueVxP
mM+vc0wafKvcveCtgctChf0qPN81f5CKGevhOWbnDvb3s7wDepfqKz9ckllqojmg
1XPUdkcuPthpDQWmeVw9RxC+5Wj1SINUwx3l1coOvp6uKq8622ntbUQuHxI4MrQ4
UF/z2KCePEhm5C6l0opSJBKMB1jqxPJSgVdm
-----END CERTIFICATE-----
