Certificate:
    Data:
        Version: 3 (0x2)
        Serial Number:
            69:d2:53:3c:6b:14:cc:74:83:93:98:0c:be:20:06:a2
        Signature Algorithm: sha256WithRSAEncryption
        Issuer: CN=team363-net
        Validity
            Not Before: Nov  4 10:47:13 2023 GMT
            Not After : Oct 19 10:47:13 2026 GMT
        Subject: CN=team363-server
        Subject Public Key Info:
            Public Key Algorithm: rsaEncryption
                Public-Key: (2048 bit)
                Modulus:
                    00:c6:39:14:fa:60:c8:16:37:26:11:74:4a:9c:21:
                    ec:90:71:36:d2:0b:85:00:0e:d6:6c:3c:6b:b6:e1:
                    ce:65:15:fb:62:9b:bd:26:22:33:a0:22:02:7e:3b:
                    43:81:77:e0:66:bc:d9:cc:b3:a1:cf:62:50:03:c8:
                    2a:74:23:14:78:2f:e4:85:6c:03:37:c4:64:b0:0a:
                    59:d8:41:04:17:4c:f4:82:97:0e:4b:89:6a:09:7f:
                    d1:d5:1d:53:a3:f9:7e:fe:7a:55:51:55:42:18:ef:
                    3d:b1:9a:b7:a5:74:a5:94:5c:36:ca:04:ca:29:50:
                    b9:53:7c:a9:4f:79:4d:49:5c:db:78:c5:e1:c5:9a:
                    c9:f6:2d:91:7a:c7:b2:19:40:a2:7a:1d:2a:69:94:
                    d3:62:5b:41:85:8d:51:aa:89:cf:2e:12:f0:13:98:
                    6b:44:ad:55:fa:0d:81:a5:ba:50:55:10:2b:9a:98:
                    4d:a3:5b:cb:9a:9f:21:a9:56:82:90:43:28:75:19:
                    c4:71:cf:7c:ad:b5:1a:59:b3:84:5f:f3:31:d6:42:
                    e8:06:2a:11:f8:94:38:3e:87:0e:30:89:7f:53:8d:
                    2e:8c:d2:ae:de:c3:65:7e:3f:7c:66:f1:40:54:8d:
                    c0:7b:26:f6:60:24:71:5e:c4:3f:b0:06:9a:2d:de:
                    42:57
                Exponent: 65537 (0x10001)
        X509v3 extensions:
            X509v3 Basic Constraints: 
                CA:FALSE
            X509v3 Subject Key Identifier: 
                DC:B0:76:65:04:BE:25:79:70:74:23:E9:C4:40:D5:69:19:78:B6:B4
            X509v3 Authority Key Identifier: 
                keyid:2D:DD:78:42:E4:14:21:E4:71:32:7F:D7:7A:97:50:DB:CA:A0:CD:FC
                DirName:/CN=team363-net
                serial:10:64:AB:AB:03:ED:22:84:6A:08:DC:13:BD:F6:2E:07:39:AD:D6:EF
            X509v3 Extended Key Usage: 
                TLS Web Server Authentication
            X509v3 Key Usage: 
                Digital Signature, Key Encipherment
            X509v3 Subject Alternative Name: 
                DNS:team363-server
    Signature Algorithm: sha256WithRSAEncryption
    Signature Value:
        c2:1d:f1:3a:e9:f0:71:37:26:9b:f0:6f:99:4f:ea:3e:d4:0f:
        3a:c2:22:1d:84:26:a0:4e:e9:6c:ce:4f:e0:b3:af:42:cf:fd:
        ff:f0:b7:37:fd:e8:72:f1:ef:44:80:6b:42:52:ea:bf:b6:2f:
        5c:d4:3e:04:61:c9:20:e5:e9:1d:47:d4:7a:34:97:0e:79:86:
        d2:7b:f4:ce:b1:9a:ae:f6:43:95:00:9f:4c:95:79:02:9a:25:
        d2:7d:07:f3:13:b1:fe:b0:fa:c2:b3:93:b6:57:f1:42:8b:5b:
        f5:3a:22:1a:44:4f:85:a8:eb:d6:84:eb:63:80:1f:b2:c6:04:
        80:49:48:2f:31:ef:81:30:22:e3:67:56:71:8e:11:55:fe:5b:
        c3:78:40:f6:6b:b5:8f:20:84:37:f2:54:c3:5e:f0:87:e7:98:
        fc:97:95:60:1b:27:9e:7d:c5:fd:f3:6f:5f:ef:97:89:6e:ce:
        a4:1b:f6:64:9b:45:a7:d8:b3:21:c6:16:4d:1d:71:ea:d1:4e:
        d5:41:41:6b:72:1f:8f:e9:66:da:14:d0:a0:eb:5d:57:97:e7:
        87:4c:b3:b7:16:45:6c:96:b7:15:59:d7:93:d7:7c:10:29:90:
        69:19:6c:d9:7c:5f:45:8b:fb:2d:1b:48:bc:08:6f:a3:9b:7b:
        55:2a:7b:5a
-----BEGIN CERTIFICATE-----
MIIDdzCCAl+gAwIBAgIQadJTPGsUzHSDk5gMviAGojANBgkqhkiG9w0BAQsFADAW
MRQwEgYDVQQDDAt0ZWFtMzYzLW5ldDAeFw0yMzExMDQxMDQ3MTNaFw0yNjEwMTkx
MDQ3MTNaMBkxFzAVBgNVBAMMDnRlYW0zNjMtc2VydmVyMIIBIjANBgkqhkiG9w0B
AQEFAAOCAQ8AMIIBCgKCAQEAxjkU+mDIFjcmEXRKnCHskHE20guFAA7WbDxrtuHO
ZRX7Ypu9JiIzoCICfjtDgXfgZrzZzLOhz2JQA8gqdCMUeC/khWwDN8RksApZ2EEE
F0z0gpcOS4lqCX/R1R1To/l+/npVUVVCGO89sZq3pXSllFw2ygTKKVC5U3ypT3lN
SVzbeMXhxZrJ9i2ReseyGUCieh0qaZTTYltBhY1RqonPLhLwE5hrRK1V+g2BpbpQ
VRArmphNo1vLmp8hqVaCkEModRnEcc98rbUaWbOEX/Mx1kLoBioR+JQ4PocOMIl/
U40ujNKu3sNlfj98ZvFAVI3Aeyb2YCRxXsQ/sAaaLd5CVwIDAQABo4G9MIG6MAkG
A1UdEwQCMAAwHQYDVR0OBBYEFNywdmUEviV5cHQj6cRA1WkZeLa0MFEGA1UdIwRK
MEiAFC3deELkFCHkcTJ/13qXUNvKoM38oRqkGDAWMRQwEgYDVQQDDAt0ZWFtMzYz
LW5ldIIUEGSrqwPtIoRqCNwTvfYuBzmt1u8wEwYDVR0lBAwwCgYIKwYBBQUHAwEw
CwYDVR0PBAQDAgWgMBkGA1UdEQQSMBCCDnRlYW0zNjMtc2VydmVyMA0GCSqGSIb3
DQEBCwUAA4IBAQDCHfE66fBxNyab8G+ZT+o+1A86wiIdhCagTulszk/gs69Cz/3/
8Lc3/ehy8e9EgGtCUuq/ti9c1D4EYckg5ekdR9R6NJcOeYbSe/TOsZqu9kOVAJ9M
lXkCmiXSfQfzE7H+sPrCs5O2V/FCi1v1OiIaRE+FqOvWhOtjgB+yxgSASUgvMe+B
MCLjZ1ZxjhFV/lvDeED2a7WPIIQ38lTDXvCH55j8l5VgGyeefcX9829f75eJbs6k
G/Zkm0Wn2LMhxhZNHXHq0U7VQUFrch+P6WbaFNCg611Xl+eHTLO3FkVslrcVWdeT
13wQKZBpGWzZfF9Fi/stG0i8CG+jm3tVKnta
-----END CERTIFICATE-----
