Certificate:
    Data:
        Version: 3 (0x2)
        Serial Number:
            8d:4f:73:86:cb:66:1f:b8:bf:d5:ba:8e:09:f4:44:a7
        Signature Algorithm: sha256WithRSAEncryption
        Issuer: CN=team363-net
        Validity
            Not Before: Nov  3 20:45:52 2023 GMT
            Not After : Oct 18 20:45:52 2026 GMT
        Subject: CN=team363-client
        Subject Public Key Info:
            Public Key Algorithm: rsaEncryption
                Public-Key: (2048 bit)
                Modulus:
                    00:9f:9c:2e:79:b8:c9:9b:a8:2e:f1:cd:af:f7:30:
                    5d:29:af:c7:69:92:3c:f1:b8:fe:6d:15:1c:11:8b:
                    20:f5:66:f9:41:0d:5d:ae:c1:aa:e5:94:79:37:3c:
                    d4:7b:b9:96:f4:ba:5b:40:fd:77:6a:fb:e1:cf:65:
                    22:70:34:be:55:73:78:7f:26:10:ea:89:9f:24:43:
                    c9:da:cc:5e:d7:97:6b:4f:e1:5b:f9:ca:cf:ef:d6:
                    a7:9b:74:b4:cf:a8:83:44:e5:1a:81:31:94:df:97:
                    3e:71:5f:57:d3:1b:70:2b:23:54:70:e5:6a:c8:e7:
                    4b:d3:7f:8e:b0:2d:15:3b:a2:53:cd:da:fa:93:0f:
                    3c:2a:0a:89:02:30:fb:06:e8:db:5e:fb:aa:b4:e1:
                    d6:52:72:61:96:23:32:11:2b:d6:34:3a:1c:74:70:
                    6b:50:28:79:2c:57:cd:97:75:6b:90:7a:45:9c:0a:
                    31:86:d6:c1:cd:95:0d:b3:ea:bb:db:1e:6b:27:9f:
                    1d:61:2d:66:9d:ca:b4:df:5f:56:f1:92:a1:db:00:
                    dc:ea:b6:67:3b:3e:d8:78:64:73:dc:27:52:38:d0:
                    3e:01:2e:77:30:fa:13:d7:4b:97:a1:9a:3a:f0:1c:
                    ac:d1:14:f8:27:59:c5:65:6c:16:d5:63:38:8a:af:
                    d9:07
                Exponent: 65537 (0x10001)
        X509v3 extensions:
            X509v3 Basic Constraints: 
                CA:FALSE
            X509v3 Subject Key Identifier: 
                67:6B:BD:C6:AD:E2:E2:4C:20:72:06:B0:CB:97:AD:9C:9B:78:B3:84
            X509v3 Authority Key Identifier: 
                keyid:AF:5F:98:06:66:14:EC:6D:DE:BB:1B:BD:FA:FC:02:C3:72:2B:A6:FA
                DirName:/CN=team363-net
                serial:25:62:DC:2B:4F:3A:42:7E:B9:04:46:69:29:DE:A6:27:EE:C9:93:39
            X509v3 Extended Key Usage: 
                TLS Web Client Authentication
            X509v3 Key Usage: 
                Digital Signature
    Signature Algorithm: sha256WithRSAEncryption
    Signature Value:
        76:22:3e:08:32:e1:33:d9:fd:36:2f:1c:b7:8a:14:83:aa:5c:
        2e:48:95:0c:28:4e:db:ae:1d:14:97:3f:48:a0:c0:0a:96:63:
        62:b0:b4:eb:d1:be:48:37:33:20:98:cf:5a:49:44:5d:45:98:
        16:d4:4f:b2:51:06:23:4f:27:88:55:f0:78:f2:e2:f5:71:bf:
        99:26:f1:4a:8b:02:b3:2f:5b:32:1d:e4:fb:fa:50:99:e2:9a:
        45:bd:53:3f:23:ee:d7:7d:00:bc:a4:56:d4:e1:e4:46:c3:e6:
        68:2d:09:24:05:6d:34:d6:ea:54:29:0a:0e:50:18:25:2e:84:
        1b:2b:bc:a5:87:2a:68:bd:79:a9:25:6e:e7:c4:47:8c:95:20:
        b1:62:44:80:48:5d:a5:ba:26:58:b7:a6:b9:12:8b:18:04:4f:
        cb:d4:80:58:fc:ad:a6:df:a2:37:fe:e5:1d:3e:73:f5:b5:d7:
        2e:7e:d7:61:c9:87:9e:cc:82:3c:25:1b:c0:f0:7c:ae:34:f7:
        c4:3b:f0:cb:24:32:0b:23:22:43:89:97:22:68:8e:ea:11:83:
        01:23:4e:9d:03:e1:38:d7:86:8e:a5:c9:c2:71:4b:62:fd:d6:
        48:86:56:a0:e1:c9:4a:fd:73:55:53:29:4f:f5:82:83:9a:50:
        64:c7:ae:20
-----BEGIN CERTIFICATE-----
MIIDXTCCAkWgAwIBAgIRAI1Pc4bLZh+4v9W6jgn0RKcwDQYJKoZIhvcNAQELBQAw
FjEUMBIGA1UEAwwLdGVhbTM2My1uZXQwHhcNMjMxMTAzMjA0NTUyWhcNMjYxMDE4
MjA0NTUyWjAZMRcwFQYDVQQDDA50ZWFtMzYzLWNsaWVudDCCASIwDQYJKoZIhvcN
AQEBBQADggEPADCCAQoCggEBAJ+cLnm4yZuoLvHNr/cwXSmvx2mSPPG4/m0VHBGL
IPVm+UENXa7BquWUeTc81Hu5lvS6W0D9d2r74c9lInA0vlVzeH8mEOqJnyRDydrM
XteXa0/hW/nKz+/Wp5t0tM+og0TlGoExlN+XPnFfV9MbcCsjVHDlasjnS9N/jrAt
FTuiU83a+pMPPCoKiQIw+wbo2177qrTh1lJyYZYjMhEr1jQ6HHRwa1AoeSxXzZd1
a5B6RZwKMYbWwc2VDbPqu9seayefHWEtZp3KtN9fVvGSodsA3Oq2Zzs+2Hhkc9wn
UjjQPgEudzD6E9dLl6GaOvAcrNEU+CdZxWVsFtVjOIqv2QcCAwEAAaOBojCBnzAJ
BgNVHRMEAjAAMB0GA1UdDgQWBBRna73GreLiTCByBrDLl62cm3izhDBRBgNVHSME
SjBIgBSvX5gGZhTsbd67G736/ALDcium+qEapBgwFjEUMBIGA1UEAwwLdGVhbTM2
My1uZXSCFCVi3CtPOkJ+uQRGaSnepifuyZM5MBMGA1UdJQQMMAoGCCsGAQUFBwMC
MAsGA1UdDwQEAwIHgDANBgkqhkiG9w0BAQsFAAOCAQEAdiI+CDLhM9n9Ni8ct4oU
g6pcLkiVDChO264dFJc/SKDACpZjYrC069G+SDczIJjPWklEXUWYFtRPslEGI08n
iFXwePLi9XG/mSbxSosCsy9bMh3k+/pQmeKaRb1TPyPu130AvKRW1OHkRsPmaC0J
JAVtNNbqVCkKDlAYJS6EGyu8pYcqaL15qSVu58RHjJUgsWJEgEhdpbomWLemuRKL
GARPy9SAWPytpt+iN/7lHT5z9bXXLn7XYcmHnsyCPCUbwPB8rjT3xDvwyyQyCyMi
Q4mXImiO6hGDASNOnQPhONeGjqXJwnFLYv3WSIZWoOHJSv1zVVMpT/WCg5pQZMeu
IA==
-----END CERTIFICATE-----
