Certificate:
    Data:
        Version: 3 (0x2)
        Serial Number:
            67:54:cb:e8:ad:c7:a5:11:e9:32:ca:b1:c8:9f:33:4c
        Signature Algorithm: sha256WithRSAEncryption
        Issuer: CN=team152-net
        Validity
            Not Before: Nov  4 10:43:22 2023 GMT
            Not After : Oct 19 10:43:22 2026 GMT
        Subject: CN=team152-server
        Subject Public Key Info:
            Public Key Algorithm: rsaEncryption
                Public-Key: (2048 bit)
                Modulus:
                    00:96:7a:34:0d:6d:9e:af:53:b1:7f:db:0f:87:c9:
                    65:bd:9e:46:f3:93:a3:56:cb:3d:60:60:ea:59:1f:
                    cd:a8:29:42:c9:20:7d:d9:28:d0:a4:b4:43:1a:bd:
                    cd:2b:53:34:71:c4:e5:bb:2e:ed:25:b4:95:27:47:
                    ba:19:7e:df:ef:82:71:c4:97:c4:05:9a:33:92:67:
                    07:b8:6b:88:8e:8c:68:7c:9b:8c:bb:51:49:eb:d3:
                    24:bf:65:f9:83:fd:7c:3b:fc:56:c5:99:91:87:a9:
                    80:e8:7d:4f:e6:36:80:1a:94:5d:0a:cb:5b:d7:cb:
                    88:a6:14:86:82:36:75:0c:0e:34:aa:89:46:b5:e4:
                    ff:dc:10:01:b2:a0:40:79:4b:a1:21:98:0b:7d:90:
                    a6:22:21:3f:04:bb:49:82:45:f8:b3:03:69:9a:1b:
                    56:98:6c:1f:49:80:5b:d3:6e:33:64:cf:4a:d4:48:
                    f8:79:c2:b7:ae:1d:79:56:52:0d:0e:7d:28:c1:7e:
                    d3:73:66:5c:a1:a2:9a:21:88:d9:f4:ee:28:6c:12:
                    fa:68:52:c4:73:6d:37:91:58:83:5f:dc:36:bd:89:
                    23:ff:87:3d:12:de:6a:61:93:c1:9a:58:02:f7:d2:
                    87:04:73:83:46:ec:b3:62:a1:e3:8e:6a:27:7d:fc:
                    c2:83
                Exponent: 65537 (0x10001)
        X509v3 extensions:
            X509v3 Basic Constraints: 
                CA:FALSE
            X509v3 Subject Key Identifier: 
                A9:B2:54:39:A8:91:BE:0D:D3:F6:80:3D:22:96:94:C9:F5:DE:2C:FC
            X509v3 Authority Key Identifier: 
                keyid:FB:0F:32:40:B7:C2:E4:1E:AA:57:F3:0C:C9:8E:6A:80:E8:9F:86:98
                DirName:/CN=team152-net
                serial:08:47:5C:DA:37:7D:D3:30:B5:30:AB:74:48:0A:09:4E:AE:D1:1C:9B
            X509v3 Extended Key Usage: 
                TLS Web Server Authentication
            X509v3 Key Usage: 
                Digital Signature, Key Encipherment
            X509v3 Subject Alternative Name: 
                DNS:team152-server
    Signature Algorithm: sha256WithRSAEncryption
    Signature Value:
        64:42:21:0d:57:4c:2b:65:6e:87:9a:59:f8:f4:21:96:e7:7f:
        6f:14:ac:08:c0:fe:3c:f2:88:de:5c:ec:6e:9f:dd:1f:f8:e0:
        70:0a:7e:26:ba:ae:02:94:64:61:f3:cb:55:e5:0d:b0:d3:11:
        c2:ef:62:12:5d:91:d9:02:15:1d:c2:70:d5:39:1b:9b:30:d6:
        16:9a:1c:c8:53:10:e6:24:39:26:f7:38:c4:16:0c:ad:d2:90:
        e6:3a:5a:ad:a5:5d:e7:4e:5a:d4:ee:fb:e4:3c:da:9e:95:49:
        38:43:79:5e:97:36:fe:17:06:31:d0:5b:4a:c0:15:b1:e4:6a:
        49:23:a2:b8:52:ed:93:98:4a:66:1b:74:e1:a7:a7:97:0c:81:
        55:16:7a:da:aa:0d:07:66:76:18:13:52:20:18:5b:3c:38:59:
        96:67:9b:49:1d:c7:ab:c4:35:6f:e4:e2:72:53:d3:df:36:45:
        ac:06:b0:ec:f5:22:b0:f4:65:14:6f:50:43:f0:5d:ae:ae:14:
        fc:15:2f:8e:09:b7:eb:43:1e:b4:8c:a9:49:c2:59:93:73:03:
        27:24:02:af:61:e0:2d:85:cb:dd:ef:8f:bc:38:00:bd:09:04:
        ff:c8:86:12:ea:15:66:fb:7b:74:1e:cb:88:76:fa:55:c3:b2:
        44:73:68:05
-----BEGIN CERTIFICATE-----
MIIDdzCCAl+gAwIBAgIQZ1TL6K3HpRHpMsqxyJ8zTDANBgkqhkiG9w0BAQsFADAW
MRQwEgYDVQQDDAt0ZWFtMTUyLW5ldDAeFw0yMzExMDQxMDQzMjJaFw0yNjEwMTkx
MDQzMjJaMBkxFzAVBgNVBAMMDnRlYW0xNTItc2VydmVyMIIBIjANBgkqhkiG9w0B
AQEFAAOCAQ8AMIIBCgKCAQEAlno0DW2er1Oxf9sPh8llvZ5G85OjVss9YGDqWR/N
qClCySB92SjQpLRDGr3NK1M0ccTluy7tJbSVJ0e6GX7f74JxxJfEBZozkmcHuGuI
joxofJuMu1FJ69Mkv2X5g/18O/xWxZmRh6mA6H1P5jaAGpRdCstb18uIphSGgjZ1
DA40qolGteT/3BABsqBAeUuhIZgLfZCmIiE/BLtJgkX4swNpmhtWmGwfSYBb024z
ZM9K1Ej4ecK3rh15VlINDn0owX7Tc2ZcoaKaIYjZ9O4obBL6aFLEc203kViDX9w2
vYkj/4c9Et5qYZPBmlgC99KHBHODRuyzYqHjjmonffzCgwIDAQABo4G9MIG6MAkG
A1UdEwQCMAAwHQYDVR0OBBYEFKmyVDmokb4N0/aAPSKWlMn13iz8MFEGA1UdIwRK
MEiAFPsPMkC3wuQeqlfzDMmOaoDon4aYoRqkGDAWMRQwEgYDVQQDDAt0ZWFtMTUy
LW5ldIIUCEdc2jd90zC1MKt0SAoJTq7RHJswEwYDVR0lBAwwCgYIKwYBBQUHAwEw
CwYDVR0PBAQDAgWgMBkGA1UdEQQSMBCCDnRlYW0xNTItc2VydmVyMA0GCSqGSIb3
DQEBCwUAA4IBAQBkQiENV0wrZW6Hmln49CGW539vFKwIwP488ojeXOxun90f+OBw
Cn4muq4ClGRh88tV5Q2w0xHC72ISXZHZAhUdwnDVORubMNYWmhzIUxDmJDkm9zjE
Fgyt0pDmOlqtpV3nTlrU7vvkPNqelUk4Q3lelzb+FwYx0FtKwBWx5GpJI6K4Uu2T
mEpmG3Thp6eXDIFVFnraqg0HZnYYE1IgGFs8OFmWZ5tJHcerxDVv5OJyU9PfNkWs
BrDs9SKw9GUUb1BD8F2urhT8FS+OCbfrQx60jKlJwlmTcwMnJAKvYeAthcvd74+8
OAC9CQT/yIYS6hVm+3t0HsuIdvpVw7JEc2gF
-----END CERTIFICATE-----
