Certificate:
    Data:
        Version: 3 (0x2)
        Serial Number:
            7b:58:3e:0d:5d:d8:38:b7:1d:8f:c2:ed:27:75:8a:a0
        Signature Algorithm: sha256WithRSAEncryption
        Issuer: CN=team152-net
        Validity
            Not Before: Nov  4 11:30:35 2023 GMT
            Not After : Oct 19 11:30:35 2026 GMT
        Subject: CN=team152-client
        Subject Public Key Info:
            Public Key Algorithm: rsaEncryption
                Public-Key: (2048 bit)
                Modulus:
                    00:f6:05:9d:51:54:86:7d:ee:58:51:fd:1d:4d:20:
                    3b:59:56:33:db:38:32:d9:77:f9:41:e5:9e:20:0e:
                    a4:2e:60:a0:ac:18:f2:4e:60:d8:53:6f:a6:61:83:
                    0e:d3:11:a1:21:2d:a0:7f:ee:c3:ff:30:7a:6a:05:
                    06:4a:65:26:b0:3a:58:c3:06:5e:fc:c8:48:fe:87:
                    e7:a7:ef:2e:72:0e:d8:91:55:a0:1f:3e:3e:bc:a9:
                    9a:2c:f6:43:05:82:c0:a7:22:d4:1e:33:10:ef:8e:
                    3e:84:97:2b:5e:40:d6:e2:95:3f:82:ca:18:1a:f2:
                    f8:ad:18:74:01:4d:ab:a3:aa:f0:a7:13:b5:e3:96:
                    be:52:62:1e:2d:b3:1b:75:29:e1:75:0b:77:53:58:
                    fd:73:2c:01:2c:dc:bf:4a:f0:a6:b1:86:c2:95:e0:
                    7c:b5:26:a2:f2:3a:8a:3d:3e:ae:8d:fd:23:f5:31:
                    ca:45:b4:4a:d5:cc:15:8b:35:b9:57:e1:1c:20:5e:
                    1a:08:ac:c5:56:c8:0c:3f:c1:ee:77:aa:05:51:51:
                    7b:23:dc:8f:5d:d9:f6:36:21:68:45:40:f0:93:e1:
                    c6:81:a3:1d:fc:9c:7b:f6:ce:d1:8a:9f:fd:5b:75:
                    c5:ad:9e:41:21:01:6e:13:ff:dd:b3:13:2c:3e:66:
                    7c:f9
                Exponent: 65537 (0x10001)
        X509v3 extensions:
            X509v3 Basic Constraints: 
                CA:FALSE
            X509v3 Subject Key Identifier: 
                FD:B1:86:95:62:54:12:65:D3:BE:FE:11:20:2D:94:0E:0B:8D:83:10
            X509v3 Authority Key Identifier: 
                keyid:96:1B:2B:AE:CB:18:91:51:83:6E:DF:A8:2E:E0:C1:94:1D:B8:11:A3
                DirName:/CN=team152-net
                serial:1C:9D:21:CE:52:B0:54:06:56:7A:F9:49:9C:28:22:64:8B:7E:5C:BB
            X509v3 Extended Key Usage: 
                TLS Web Client Authentication
            X509v3 Key Usage: 
                Digital Signature
    Signature Algorithm: sha256WithRSAEncryption
    Signature Value:
        5d:ff:40:d3:f2:56:66:42:b7:96:f4:73:90:79:00:42:fe:24:
        af:48:ad:e3:0b:15:ed:94:ca:2a:74:11:a7:7e:57:7f:2c:ec:
        2e:af:ee:a4:87:7e:31:b8:b9:fe:bb:af:e9:1c:16:85:3b:c8:
        d8:d6:ce:c2:47:bb:4f:7b:f8:3c:3d:59:67:1c:a5:e6:13:22:
        08:53:99:b0:20:c7:4a:31:be:42:ef:32:1f:20:13:9f:64:c0:
        9c:4c:92:1b:71:ca:e5:5b:0a:8c:35:f6:91:2d:85:48:42:be:
        10:22:f8:f1:9d:62:dd:08:4c:79:70:ea:2f:fe:67:7c:e8:61:
        9a:c9:52:8a:c5:27:46:7a:26:0d:c7:8f:3d:80:41:b0:d0:3c:
        c8:2d:20:73:06:16:65:99:2a:f2:c2:f7:34:01:51:79:8a:3c:
        98:cb:cd:c2:48:34:c7:5b:a9:f9:7d:a7:55:6d:6b:b8:f5:e4:
        9b:24:2d:a5:22:ca:04:07:e6:10:94:ac:cd:5f:d9:c5:24:ce:
        2d:6a:1f:e1:bd:b4:6c:2e:f3:43:5e:45:d5:81:08:67:49:01:
        4d:13:5e:07:34:0d:ef:9c:a5:db:71:48:44:25:0a:d0:6e:0e:
        fe:29:c5:ac:67:a7:22:21:ff:86:b9:99:2d:69:52:92:fd:ed:
        ad:80:a0:d5
-----BEGIN CERTIFICATE-----
MIIDXDCCAkSgAwIBAgIQe1g+DV3YOLcdj8LtJ3WKoDANBgkqhkiG9w0BAQsFADAW
MRQwEgYDVQQDDAt0ZWFtMTUyLW5ldDAeFw0yMzExMDQxMTMwMzVaFw0yNjEwMTkx
MTMwMzVaMBkxFzAVBgNVBAMMDnRlYW0xNTItY2xpZW50MIIBIjANBgkqhkiG9w0B
AQEFAAOCAQ8AMIIBCgKCAQEA9gWdUVSGfe5YUf0dTSA7WVYz2zgy2Xf5QeWeIA6k
LmCgrBjyTmDYU2+mYYMO0xGhIS2gf+7D/zB6agUGSmUmsDpYwwZe/MhI/ofnp+8u
cg7YkVWgHz4+vKmaLPZDBYLApyLUHjMQ744+hJcrXkDW4pU/gsoYGvL4rRh0AU2r
o6rwpxO145a+UmIeLbMbdSnhdQt3U1j9cywBLNy/SvCmsYbCleB8tSai8jqKPT6u
jf0j9THKRbRK1cwVizW5V+EcIF4aCKzFVsgMP8Hud6oFUVF7I9yPXdn2NiFoRUDw
k+HGgaMd/Jx79s7Rip/9W3XFrZ5BIQFuE//dsxMsPmZ8+QIDAQABo4GiMIGfMAkG
A1UdEwQCMAAwHQYDVR0OBBYEFP2xhpViVBJl077+ESAtlA4LjYMQMFEGA1UdIwRK
MEiAFJYbK67LGJFRg27fqC7gwZQduBGjoRqkGDAWMRQwEgYDVQQDDAt0ZWFtMTUy
LW5ldIIUHJ0hzlKwVAZWevlJnCgiZIt+XLswEwYDVR0lBAwwCgYIKwYBBQUHAwIw
CwYDVR0PBAQDAgeAMA0GCSqGSIb3DQEBCwUAA4IBAQBd/0DT8lZmQreW9HOQeQBC
/iSvSK3jCxXtlMoqdBGnfld/LOwur+6kh34xuLn+u6/pHBaFO8jY1s7CR7tPe/g8
PVlnHKXmEyIIU5mwIMdKMb5C7zIfIBOfZMCcTJIbccrlWwqMNfaRLYVIQr4QIvjx
nWLdCEx5cOov/md86GGayVKKxSdGeiYNx489gEGw0DzILSBzBhZlmSrywvc0AVF5
ijyYy83CSDTHW6n5fadVbWu49eSbJC2lIsoEB+YQlKzNX9nFJM4tah/hvbRsLvND
XkXVgQhnSQFNE14HNA3vnKXbcUhEJQrQbg7+KcWsZ6ciIf+GuZktaVKS/e2tgKDV
-----END CERTIFICATE-----
