Certificate:
    Data:
        Version: 3 (0x2)
        Serial Number:
            b2:60:5f:04:df:d0:fe:ee:e3:3d:1f:06:ae:a8:a3:64
        Signature Algorithm: sha256WithRSAEncryption
        Issuer: CN=team152-net
        Validity
            Not Before: Nov  4 10:43:22 2023 GMT
            Not After : Oct 19 10:43:22 2026 GMT
        Subject: CN=team152-client
        Subject Public Key Info:
            Public Key Algorithm: rsaEncryption
                Public-Key: (2048 bit)
                Modulus:
                    00:cf:a8:92:46:ca:6c:cc:c4:05:2e:14:41:0d:68:
                    57:4d:28:4a:f7:f4:ca:79:3f:e1:4c:75:f8:2b:41:
                    45:ad:6a:ba:70:76:80:de:e3:e4:96:1b:0f:be:19:
                    00:d2:91:6f:23:0e:b2:fa:52:1f:73:5b:95:48:75:
                    6b:2b:53:91:07:af:58:65:b4:7a:b9:af:ea:c4:63:
                    f8:29:fa:38:0e:01:bf:5e:48:40:8a:e4:d6:88:4e:
                    81:ec:b9:82:b7:60:7e:98:a9:9a:9e:49:80:68:a7:
                    ed:10:f0:df:0c:ab:0e:d9:f0:34:97:4a:a7:2c:25:
                    17:f3:14:46:f2:6c:da:ab:8a:33:56:8c:81:31:da:
                    f3:15:ce:33:74:0b:cc:13:1e:76:d2:36:df:ae:56:
                    dc:84:29:d1:3b:2a:4d:68:a7:ee:b1:40:c0:12:94:
                    4c:5d:d9:80:bf:e8:19:88:ea:43:34:31:58:df:f5:
                    9c:54:3c:ca:e9:e8:af:a5:8f:c3:59:41:ed:11:24:
                    eb:c2:dd:d0:a0:9e:57:ca:a1:21:a9:f9:62:66:37:
                    4d:7e:d9:ab:99:0a:c8:fe:13:ff:2f:9d:02:db:95:
                    5e:a1:7f:0c:3b:76:83:36:f1:64:34:a6:fc:95:c8:
                    a6:8b:a8:41:73:cf:97:83:04:93:a1:c4:7e:6b:50:
                    d8:cf
                Exponent: 65537 (0x10001)
        X509v3 extensions:
            X509v3 Basic Constraints: 
                CA:FALSE
            X509v3 Subject Key Identifier: 
                42:EE:60:8D:7D:96:97:EA:33:E9:34:36:A0:F4:D5:16:41:A2:12:72
            X509v3 Authority Key Identifier: 
                keyid:FB:0F:32:40:B7:C2:E4:1E:AA:57:F3:0C:C9:8E:6A:80:E8:9F:86:98
                DirName:/CN=team152-net
                serial:08:47:5C:DA:37:7D:D3:30:B5:30:AB:74:48:0A:09:4E:AE:D1:1C:9B
            X509v3 Extended Key Usage: 
                TLS Web Client Authentication
            X509v3 Key Usage: 
                Digital Signature
    Signature Algorithm: sha256WithRSAEncryption
    Signature Value:
        7b:76:98:75:7e:38:8d:48:a0:fb:e9:6a:4f:14:06:77:2c:57:
        6d:3f:bc:50:e4:ce:64:0f:58:aa:46:a0:0d:5f:c1:ca:fc:ee:
        7e:5b:c8:39:5d:dd:ac:88:e4:01:29:1d:00:e1:3a:f9:c8:3f:
        c2:66:6e:2b:e9:3d:ce:b9:ca:11:f7:c3:cf:b2:a9:f2:75:35:
        1f:06:47:58:bc:46:3c:c4:c2:f4:1c:ec:e1:a8:5a:1e:cf:22:
        5b:21:9d:d4:10:de:7b:dc:ca:e5:67:29:79:d6:d9:de:18:75:
        f6:76:08:73:2d:f2:cd:54:dd:b7:34:cc:99:e8:12:6c:55:5a:
        33:d7:37:31:80:b6:e5:65:62:de:6c:f8:f6:92:28:13:2b:54:
        2b:63:91:35:be:19:f2:46:73:96:82:43:49:75:a5:1d:8b:77:
        b9:35:8f:e1:2e:c8:26:be:ed:00:24:be:22:56:3a:a8:8e:81:
        c6:22:37:2a:e0:06:e9:6f:6c:91:a9:f4:55:66:c9:8d:da:83:
        a9:1f:05:93:a0:9f:f7:ec:23:58:d5:ec:cd:39:24:92:b7:cc:
        9c:de:42:6b:49:5b:11:48:ba:c1:d8:8b:f8:cf:9d:a5:c1:4a:
        ab:ba:46:8a:50:0d:f8:5d:78:89:75:ce:9b:0a:3c:c1:66:dc:
        eb:47:19:c3
-----BEGIN CERTIFICATE-----
MIIDXTCCAkWgAwIBAgIRALJgXwTf0P7u4z0fBq6oo2QwDQYJKoZIhvcNAQELBQAw
FjEUMBIGA1UEAwwLdGVhbTE1Mi1uZXQwHhcNMjMxMTA0MTA0MzIyWhcNMjYxMDE5
MTA0MzIyWjAZMRcwFQYDVQQDDA50ZWFtMTUyLWNsaWVudDCCASIwDQYJKoZIhvcN
AQEBBQADggEPADCCAQoCggEBAM+okkbKbMzEBS4UQQ1oV00oSvf0ynk/4Ux1+CtB
Ra1qunB2gN7j5JYbD74ZANKRbyMOsvpSH3NblUh1aytTkQevWGW0ermv6sRj+Cn6
OA4Bv15IQIrk1ohOgey5grdgfpipmp5JgGin7RDw3wyrDtnwNJdKpywlF/MURvJs
2quKM1aMgTHa8xXOM3QLzBMedtI2365W3IQp0TsqTWin7rFAwBKUTF3ZgL/oGYjq
QzQxWN/1nFQ8yunor6WPw1lB7REk68Ld0KCeV8qhIan5YmY3TX7Zq5kKyP4T/y+d
AtuVXqF/DDt2gzbxZDSm/JXIpouoQXPPl4MEk6HEfmtQ2M8CAwEAAaOBojCBnzAJ
BgNVHRMEAjAAMB0GA1UdDgQWBBRC7mCNfZaX6jPpNDag9NUWQaIScjBRBgNVHSME
SjBIgBT7DzJAt8LkHqpX8wzJjmqA6J+GmKEapBgwFjEUMBIGA1UEAwwLdGVhbTE1
Mi1uZXSCFAhHXNo3fdMwtTCrdEgKCU6u0RybMBMGA1UdJQQMMAoGCCsGAQUFBwMC
MAsGA1UdDwQEAwIHgDANBgkqhkiG9w0BAQsFAAOCAQEAe3aYdX44jUig++lqTxQG
dyxXbT+8UOTOZA9YqkagDV/ByvzuflvIOV3drIjkASkdAOE6+cg/wmZuK+k9zrnK
EffDz7Kp8nU1HwZHWLxGPMTC9Bzs4ahaHs8iWyGd1BDee9zK5WcpedbZ3hh19nYI
cy3yzVTdtzTMmegSbFVaM9c3MYC25WVi3mz49pIoEytUK2ORNb4Z8kZzloJDSXWl
HYt3uTWP4S7IJr7tACS+IlY6qI6BxiI3KuAG6W9skan0VWbJjdqDqR8Fk6Cf9+wj
WNXszTkkkrfMnN5Ca0lbEUi6wdiL+M+dpcFKq7pGilAN+F14iXXOmwo8wWbc60cZ
ww==
-----END CERTIFICATE-----
