Certificate:
    Data:
        Version: 3 (0x2)
        Serial Number:
            c8:83:53:64:d3:1e:e8:81:aa:6c:c6:76:bd:1f:f8:3e
        Signature Algorithm: sha256WithRSAEncryption
        Issuer: CN=team152-net
        Validity
            Not Before: Nov  3 20:41:57 2023 GMT
            Not After : Oct 18 20:41:57 2026 GMT
        Subject: CN=team152-client
        Subject Public Key Info:
            Public Key Algorithm: rsaEncryption
                Public-Key: (2048 bit)
                Modulus:
                    00:d7:f5:39:72:93:f0:09:55:6b:dd:79:25:92:22:
                    e9:16:1c:d1:79:3b:b5:b0:25:56:80:d1:1c:c0:bb:
                    d8:0d:13:38:87:8a:a4:db:95:95:22:4a:96:42:d5:
                    04:0a:df:a0:f1:b8:eb:d4:40:f0:fe:6f:57:e2:a9:
                    70:16:6d:03:3a:7a:7b:3b:83:55:fe:ba:ba:50:02:
                    8e:58:be:14:92:d2:37:98:9a:bc:87:55:07:c6:62:
                    01:6c:ec:95:fa:90:c4:e0:06:fa:be:1e:f3:28:df:
                    74:a6:77:cc:65:41:b1:86:ad:d1:ba:31:3a:5e:53:
                    e2:25:8e:bf:57:07:73:96:61:8f:8a:45:98:86:f8:
                    4f:1d:ca:9d:5e:d0:dc:50:29:a3:8b:81:d5:a9:19:
                    aa:4f:87:51:4f:a4:c4:85:b7:b3:e0:40:7e:61:19:
                    a8:bc:52:a7:da:c7:47:2a:a1:e2:f1:b4:7f:18:7d:
                    c6:44:09:06:ba:51:fb:2d:02:ed:c9:43:57:96:89:
                    07:82:a0:60:1c:04:83:a2:05:fb:dc:50:43:69:a3:
                    21:bb:1b:8e:1c:19:6b:5e:38:ad:a6:cc:7a:99:2a:
                    a4:b8:33:b3:86:6d:2c:c1:5e:f7:6d:3f:a3:fe:ef:
                    e3:bd:2c:af:f2:d0:d3:cc:6b:fc:b6:7d:a3:ec:1a:
                    cf:81
                Exponent: 65537 (0x10001)
        X509v3 extensions:
            X509v3 Basic Constraints: 
                CA:FALSE
            X509v3 Subject Key Identifier: 
                6F:05:86:F1:2B:E6:07:B5:A2:08:BD:F6:6D:15:BB:78:F1:92:8A:95
            X509v3 Authority Key Identifier: 
                keyid:44:1A:C5:19:3C:11:11:22:DE:42:0D:80:A7:00:51:42:A2:C2:4D:40
                DirName:/CN=team152-net
                serial:1F:11:7E:A2:9B:50:A1:91:E2:0D:97:C1:B8:53:F3:86:9B:C8:98:F6
            X509v3 Extended Key Usage: 
                TLS Web Client Authentication
            X509v3 Key Usage: 
                Digital Signature
    Signature Algorithm: sha256WithRSAEncryption
    Signature Value:
        84:d8:f4:91:1c:fc:eb:d3:05:c6:0d:a3:03:06:76:4f:b2:03:
        43:00:09:d9:be:92:d6:10:e2:37:44:e2:39:10:e4:cb:72:43:
        e6:9f:20:7c:65:8e:e7:66:df:5d:75:63:07:ec:f5:cf:08:46:
        66:3f:49:8b:88:a9:e3:ac:ca:dd:71:e2:55:d5:33:8a:7a:41:
        64:52:6b:15:f0:3c:53:68:f4:e3:50:90:07:6a:20:c0:8f:ff:
        04:b1:a2:8c:ba:f3:d5:4e:6d:b3:73:f5:bb:06:04:04:4b:82:
        10:ca:86:69:4b:dc:93:a6:e3:ed:9c:f7:6f:5e:a3:80:90:03:
        d8:3c:ba:3f:08:d3:60:11:c2:c9:7f:67:0b:ef:47:48:8c:ed:
        c1:6a:40:e6:16:61:af:3d:f9:ef:17:1e:29:9f:58:ce:e9:9a:
        fc:28:db:1f:38:11:63:2c:40:c6:eb:0a:53:16:fe:46:76:7c:
        af:70:b9:7f:f3:ab:d6:c0:f3:c3:a5:54:0e:f3:52:e6:38:fb:
        53:f8:58:92:b2:3a:4c:ba:65:65:4f:0a:ba:01:c9:d8:48:e6:
        e8:b6:07:22:43:42:c8:5d:f5:2d:b3:86:a9:d2:fb:c9:3e:3d:
        c2:5d:6e:fb:09:6d:19:db:6a:c4:ff:3a:f4:db:bf:4b:20:2f:
        0a:5d:f5:2e
-----BEGIN CERTIFICATE-----
MIIDXTCCAkWgAwIBAgIRAMiDU2TTHuiBqmzGdr0f+D4wDQYJKoZIhvcNAQELBQAw
FjEUMBIGA1UEAwwLdGVhbTE1Mi1uZXQwHhcNMjMxMTAzMjA0MTU3WhcNMjYxMDE4
MjA0MTU3WjAZMRcwFQYDVQQDDA50ZWFtMTUyLWNsaWVudDCCASIwDQYJKoZIhvcN
AQEBBQADggEPADCCAQoCggEBANf1OXKT8AlVa915JZIi6RYc0Xk7tbAlVoDRHMC7
2A0TOIeKpNuVlSJKlkLVBArfoPG469RA8P5vV+KpcBZtAzp6ezuDVf66ulACjli+
FJLSN5iavIdVB8ZiAWzslfqQxOAG+r4e8yjfdKZ3zGVBsYat0boxOl5T4iWOv1cH
c5Zhj4pFmIb4Tx3KnV7Q3FApo4uB1akZqk+HUU+kxIW3s+BAfmEZqLxSp9rHRyqh
4vG0fxh9xkQJBrpR+y0C7clDV5aJB4KgYBwEg6IF+9xQQ2mjIbsbjhwZa144rabM
epkqpLgzs4ZtLMFe920/o/7v470sr/LQ08xr/LZ9o+waz4ECAwEAAaOBojCBnzAJ
BgNVHRMEAjAAMB0GA1UdDgQWBBRvBYbxK+YHtaIIvfZtFbt48ZKKlTBRBgNVHSME
SjBIgBREGsUZPBERIt5CDYCnAFFCosJNQKEapBgwFjEUMBIGA1UEAwwLdGVhbTE1
Mi1uZXSCFB8RfqKbUKGR4g2XwbhT84abyJj2MBMGA1UdJQQMMAoGCCsGAQUFBwMC
MAsGA1UdDwQEAwIHgDANBgkqhkiG9w0BAQsFAAOCAQEAhNj0kRz869MFxg2jAwZ2
T7IDQwAJ2b6S1hDiN0TiORDky3JD5p8gfGWO52bfXXVjB+z1zwhGZj9Ji4ip46zK
3XHiVdUzinpBZFJrFfA8U2j041CQB2ogwI//BLGijLrz1U5ts3P1uwYEBEuCEMqG
aUvck6bj7Zz3b16jgJAD2Dy6PwjTYBHCyX9nC+9HSIztwWpA5hZhrz357xceKZ9Y
zuma/CjbHzgRYyxAxusKUxb+RnZ8r3C5f/Or1sDzw6VUDvNS5jj7U/hYkrI6TLpl
ZU8KugHJ2Ejm6LYHIkNCyF31LbOGqdL7yT49wl1u+wltGdtqxP869Nu/SyAvCl31
Lg==
-----END CERTIFICATE-----
