Certificate:
    Data:
        Version: 3 (0x2)
        Serial Number:
            07:a3:49:40:11:9b:3a:26:95:02:b6:3c:3a:87:83:5b
        Signature Algorithm: sha256WithRSAEncryption
        Issuer: CN=team403-net
        Validity
            Not Before: Nov  4 11:36:35 2023 GMT
            Not After : Oct 19 11:36:35 2026 GMT
        Subject: CN=team403-client
        Subject Public Key Info:
            Public Key Algorithm: rsaEncryption
                Public-Key: (2048 bit)
                Modulus:
                    00:b1:3f:33:c4:b9:18:83:d5:7c:17:44:fb:82:c1:
                    ef:13:76:f6:d0:50:b9:4e:93:58:4c:38:42:b1:67:
                    32:2f:0a:41:93:5e:8d:5d:69:7e:e2:89:f8:69:7e:
                    0e:94:76:ad:46:62:c3:2a:70:09:cb:cc:9b:ef:c2:
                    ef:d0:14:e5:43:de:4e:d0:fd:0b:53:8a:81:a9:f9:
                    e3:f9:25:8b:5b:17:09:33:f2:ea:a0:68:32:c8:4c:
                    52:d0:ac:a2:a2:9f:ce:d7:d5:2b:04:1f:67:8a:93:
                    3e:da:08:49:02:5c:0a:f6:a3:98:03:90:ae:be:92:
                    d9:6a:21:fd:bb:d4:3f:06:08:80:2c:77:cc:63:62:
                    55:49:6a:48:dd:b6:27:f9:0b:40:ee:6a:1f:7a:65:
                    af:a0:39:c4:98:83:66:75:d4:91:88:fc:31:36:de:
                    58:01:21:2c:29:d6:c1:57:a2:ae:2d:b4:78:40:ff:
                    c6:41:51:59:cd:03:60:0a:26:19:70:0a:71:67:02:
                    8c:1d:75:b2:1d:b4:e6:33:a5:57:6c:21:fe:1e:3a:
                    b6:aa:07:c5:a0:d8:57:fe:14:e6:30:bd:88:96:7d:
                    c8:8a:a4:52:02:5b:c1:f3:40:7d:ca:cb:40:e9:8a:
                    bc:d3:9e:fd:81:c0:1d:1e:9c:49:0a:ce:44:6c:07:
                    5d:69
                Exponent: 65537 (0x10001)
        X509v3 extensions:
            X509v3 Basic Constraints: 
                CA:FALSE
            X509v3 Subject Key Identifier: 
                FD:0B:96:BD:3A:BE:31:D8:19:CD:1B:94:25:1B:DA:66:D2:92:16:09
            X509v3 Authority Key Identifier: 
                keyid:47:EE:6C:66:14:84:6A:63:ED:A5:3C:E2:A7:F5:85:37:EF:18:C5:CC
                DirName:/CN=team403-net
                serial:1D:2B:E9:80:A6:93:8C:24:E3:C4:01:BD:D1:5C:3B:3E:15:00:1B:E1
            X509v3 Extended Key Usage: 
                TLS Web Client Authentication
            X509v3 Key Usage: 
                Digital Signature
    Signature Algorithm: sha256WithRSAEncryption
    Signature Value:
        2d:65:5e:12:9a:5a:6b:ed:6d:71:b1:d1:70:97:4c:d3:3b:42:
        af:4e:8b:d7:bc:2b:e0:68:e0:29:cf:e3:b8:6d:b6:7c:41:a9:
        93:88:31:2c:ac:63:b6:df:0e:e9:7d:44:18:54:9c:d9:d9:42:
        28:0e:4c:ab:c8:6d:7b:9b:4a:19:aa:57:98:bd:81:05:62:b5:
        d6:1c:9f:1e:91:c9:92:21:ad:40:0d:ac:20:d7:55:17:55:9b:
        75:02:4d:51:f2:8d:ed:a9:bc:f6:9a:85:d1:26:6c:5b:3d:8a:
        ca:78:0c:c2:61:b9:fd:a2:3e:54:2c:02:44:b0:70:fc:9e:f9:
        19:eb:35:96:1e:5c:be:f0:1c:0b:7a:f0:59:0f:50:71:ed:e3:
        89:2f:e9:32:ca:ad:a4:43:55:c3:6b:ff:86:1b:da:ef:cd:14:
        aa:9e:cb:e9:00:4f:0c:1b:68:1c:f4:d3:22:97:10:8f:1d:dd:
        3c:a9:a8:12:de:33:82:ee:81:96:91:7b:59:15:d5:fd:62:c2:
        7e:2d:5b:af:2a:bd:8b:88:2b:e0:7a:cb:d6:01:41:a1:5b:6f:
        1b:b9:6d:b4:bc:f7:74:c1:f9:dc:41:7f:df:57:ee:71:4c:41:
        11:62:69:e3:31:d1:a8:3a:2b:43:c0:12:f4:ff:3a:87:f0:03:
        1d:6b:41:34
-----BEGIN CERTIFICATE-----
MIIDXDCCAkSgAwIBAgIQB6NJQBGbOiaVArY8OoeDWzANBgkqhkiG9w0BAQsFADAW
MRQwEgYDVQQDDAt0ZWFtNDAzLW5ldDAeFw0yMzExMDQxMTM2MzVaFw0yNjEwMTkx
MTM2MzVaMBkxFzAVBgNVBAMMDnRlYW00MDMtY2xpZW50MIIBIjANBgkqhkiG9w0B
AQEFAAOCAQ8AMIIBCgKCAQEAsT8zxLkYg9V8F0T7gsHvE3b20FC5TpNYTDhCsWcy
LwpBk16NXWl+4on4aX4OlHatRmLDKnAJy8yb78Lv0BTlQ95O0P0LU4qBqfnj+SWL
WxcJM/LqoGgyyExS0Kyiop/O19UrBB9nipM+2ghJAlwK9qOYA5CuvpLZaiH9u9Q/
BgiALHfMY2JVSWpI3bYn+QtA7mofemWvoDnEmINmddSRiPwxNt5YASEsKdbBV6Ku
LbR4QP/GQVFZzQNgCiYZcApxZwKMHXWyHbTmM6VXbCH+Hjq2qgfFoNhX/hTmML2I
ln3IiqRSAlvB80B9ystA6Yq80579gcAdHpxJCs5EbAddaQIDAQABo4GiMIGfMAkG
A1UdEwQCMAAwHQYDVR0OBBYEFP0Llr06vjHYGc0blCUb2mbSkhYJMFEGA1UdIwRK
MEiAFEfubGYUhGpj7aU84qf1hTfvGMXMoRqkGDAWMRQwEgYDVQQDDAt0ZWFtNDAz
LW5ldIIUHSvpgKaTjCTjxAG90Vw7PhUAG+EwEwYDVR0lBAwwCgYIKwYBBQUHAwIw
CwYDVR0PBAQDAgeAMA0GCSqGSIb3DQEBCwUAA4IBAQAtZV4Smlpr7W1xsdFwl0zT
O0KvTovXvCvgaOApz+O4bbZ8QamTiDEsrGO23w7pfUQYVJzZ2UIoDkyryG17m0oZ
qleYvYEFYrXWHJ8ekcmSIa1ADawg11UXVZt1Ak1R8o3tqbz2moXRJmxbPYrKeAzC
Ybn9oj5ULAJEsHD8nvkZ6zWWHly+8BwLevBZD1Bx7eOJL+kyyq2kQ1XDa/+GG9rv
zRSqnsvpAE8MG2gc9NMilxCPHd08qagS3jOC7oGWkXtZFdX9YsJ+LVuvKr2LiCvg
esvWAUGhW28buW20vPd0wfncQX/fV+5xTEERYmnjMdGoOitDwBL0/zqH8AMda0E0
-----END CERTIFICATE-----
