Certificate:
    Data:
        Version: 3 (0x2)
        Serial Number:
            49:32:6e:18:1b:bd:3e:32:1d:0b:31:56:46:63:57
        Signature Algorithm: sha256WithRSAEncryption
        Issuer: CN=team403-net
        Validity
            Not Before: Nov  4 11:36:35 2023 GMT
            Not After : Oct 19 11:36:35 2026 GMT
        Subject: CN=team403-server
        Subject Public Key Info:
            Public Key Algorithm: rsaEncryption
                Public-Key: (2048 bit)
                Modulus:
                    00:9d:59:bc:d8:8f:14:b3:9a:bf:c8:f8:fd:c8:97:
                    d8:1c:a6:e1:18:da:ab:b9:a0:95:a2:d1:62:a5:46:
                    98:bc:9a:e6:07:ec:c7:4a:ab:7a:de:2d:da:53:60:
                    92:45:21:d4:5e:80:38:17:27:ac:95:1f:cb:de:13:
                    93:c1:1c:46:38:72:bf:e8:40:38:82:cc:4f:77:81:
                    e4:cb:9a:0d:59:1b:ca:f6:91:03:23:af:56:37:83:
                    1c:ec:29:5b:02:60:0d:ff:7c:97:23:67:99:d1:bf:
                    04:68:9e:65:ed:25:03:37:2a:7f:95:2b:fc:1c:3a:
                    f2:be:7e:17:ec:6d:4e:09:96:34:7f:c1:41:d7:f4:
                    b0:33:e6:90:68:89:0f:28:25:7d:ca:61:f9:13:63:
                    69:c7:e9:ae:cb:be:cf:96:a0:85:13:ea:2f:93:dd:
                    07:46:1e:3f:dc:b4:69:0b:5a:9b:33:34:39:d6:50:
                    7f:cd:70:8f:98:0e:de:9f:bf:56:ef:a4:6a:1d:95:
                    71:99:29:f5:5b:fe:0a:dd:66:bf:14:c4:66:e6:53:
                    42:60:e3:8d:84:57:b5:1f:a1:17:dc:db:07:af:89:
                    11:ba:82:cf:16:28:3f:5e:e7:5c:45:68:22:87:85:
                    b0:79:a9:40:e6:91:e5:01:ff:c6:9d:3c:22:fa:48:
                    c0:d1
                Exponent: 65537 (0x10001)
        X509v3 extensions:
            X509v3 Basic Constraints: 
                CA:FALSE
            X509v3 Subject Key Identifier: 
                8C:92:EF:04:08:E3:1A:18:5E:9E:6C:A8:80:64:46:47:BA:C0:B1:86
            X509v3 Authority Key Identifier: 
                keyid:47:EE:6C:66:14:84:6A:63:ED:A5:3C:E2:A7:F5:85:37:EF:18:C5:CC
                DirName:/CN=team403-net
                serial:1D:2B:E9:80:A6:93:8C:24:E3:C4:01:BD:D1:5C:3B:3E:15:00:1B:E1
            X509v3 Extended Key Usage: 
                TLS Web Server Authentication
            X509v3 Key Usage: 
                Digital Signature, Key Encipherment
            X509v3 Subject Alternative Name: 
                DNS:team403-server
    Signature Algorithm: sha256WithRSAEncryption
    Signature Value:
        bc:dd:d1:e3:be:24:1c:90:ce:e9:bd:b7:39:bd:40:d9:7d:06:
        e9:5d:96:a0:df:86:d8:aa:f6:1d:6d:99:e2:a7:98:0e:b4:67:
        32:b3:3c:d3:37:c1:40:de:a3:e7:e0:67:86:e9:37:27:d6:9f:
        31:a7:2e:49:ba:ec:be:a7:56:b4:a3:dc:80:10:6d:a9:71:b3:
        f9:6a:cf:b7:ee:99:75:ba:9e:42:72:65:8b:4e:04:97:b4:74:
        59:96:be:6c:d0:b7:2f:56:8f:6c:47:a0:5e:5e:d2:a0:16:6c:
        e3:6e:bd:46:e6:27:84:00:47:68:fc:29:88:77:53:9b:6c:35:
        66:ed:0a:47:30:40:2e:28:4e:17:47:84:07:a2:9d:87:31:cd:
        c8:8f:4d:79:fe:14:c2:16:a9:ec:ac:68:20:bb:f6:76:de:45:
        02:04:c4:aa:9b:3f:8e:8c:cb:87:e3:46:e4:10:63:e6:c1:de:
        33:8b:dd:3e:ba:af:08:e4:1d:0d:dd:f4:e4:5f:72:3b:e8:dd:
        c2:2d:99:62:dd:d7:fe:81:4a:ae:5f:34:ce:6b:93:67:b2:51:
        dc:c4:be:a2:91:19:4b:59:d3:fa:1b:71:60:b6:84:12:f5:d0:
        7b:b8:91:90:5a:3c:8a:5e:3c:fd:a2:e6:77:59:b6:9d:df:57:
        c0:3c:65:0d
-----BEGIN CERTIFICATE-----
MIIDdjCCAl6gAwIBAgIPSTJuGBu9PjIdCzFWRmNXMA0GCSqGSIb3DQEBCwUAMBYx
FDASBgNVBAMMC3RlYW00MDMtbmV0MB4XDTIzMTEwNDExMzYzNVoXDTI2MTAxOTEx
MzYzNVowGTEXMBUGA1UEAwwOdGVhbTQwMy1zZXJ2ZXIwggEiMA0GCSqGSIb3DQEB
AQUAA4IBDwAwggEKAoIBAQCdWbzYjxSzmr/I+P3Il9gcpuEY2qu5oJWi0WKlRpi8
muYH7MdKq3reLdpTYJJFIdRegDgXJ6yVH8veE5PBHEY4cr/oQDiCzE93geTLmg1Z
G8r2kQMjr1Y3gxzsKVsCYA3/fJcjZ5nRvwRonmXtJQM3Kn+VK/wcOvK+fhfsbU4J
ljR/wUHX9LAz5pBoiQ8oJX3KYfkTY2nH6a7Lvs+WoIUT6i+T3QdGHj/ctGkLWpsz
NDnWUH/NcI+YDt6fv1bvpGodlXGZKfVb/grdZr8UxGbmU0Jg442EV7UfoRfc2wev
iRG6gs8WKD9e51xFaCKHhbB5qUDmkeUB/8adPCL6SMDRAgMBAAGjgb0wgbowCQYD
VR0TBAIwADAdBgNVHQ4EFgQUjJLvBAjjGhhenmyogGRGR7rAsYYwUQYDVR0jBEow
SIAUR+5sZhSEamPtpTzip/WFN+8YxcyhGqQYMBYxFDASBgNVBAMMC3RlYW00MDMt
bmV0ghQdK+mAppOMJOPEAb3RXDs+FQAb4TATBgNVHSUEDDAKBggrBgEFBQcDATAL
BgNVHQ8EBAMCBaAwGQYDVR0RBBIwEIIOdGVhbTQwMy1zZXJ2ZXIwDQYJKoZIhvcN
AQELBQADggEBALzd0eO+JByQzum9tzm9QNl9BuldlqDfhtiq9h1tmeKnmA60ZzKz
PNM3wUDeo+fgZ4bpNyfWnzGnLkm67L6nVrSj3IAQbalxs/lqz7fumXW6nkJyZYtO
BJe0dFmWvmzQty9Wj2xHoF5e0qAWbONuvUbmJ4QAR2j8KYh3U5tsNWbtCkcwQC4o
ThdHhAeinYcxzciPTXn+FMIWqeysaCC79nbeRQIExKqbP46My4fjRuQQY+bB3jOL
3T66rwjkHQ3d9ORfcjvo3cItmWLd1/6BSq5fNM5rk2eyUdzEvqKRGUtZ0/obcWC2
hBL10Hu4kZBaPIpePP2i5ndZtp3fV8A8ZQ0=
-----END CERTIFICATE-----
