Certificate:
    Data:
        Version: 3 (0x2)
        Serial Number:
            5b:80:b5:6a:3d:ca:6a:2a:60:bc:3b:53:26:fb:50:38
        Signature Algorithm: sha256WithRSAEncryption
        Issuer: CN=team403-net
        Validity
            Not Before: Nov  4 10:47:54 2023 GMT
            Not After : Oct 19 10:47:54 2026 GMT
        Subject: CN=team403-client
        Subject Public Key Info:
            Public Key Algorithm: rsaEncryption
                Public-Key: (2048 bit)
                Modulus:
                    00:a6:38:7c:01:18:c0:ea:c9:32:97:6d:1f:97:03:
                    06:9c:a1:d4:6b:82:bd:53:11:11:e6:5c:a4:04:a1:
                    68:45:30:a4:5a:03:e6:e3:71:c2:04:29:05:0a:17:
                    9b:b2:26:00:d1:8d:ef:ea:c6:5f:c3:8f:46:be:26:
                    7b:9d:ef:b6:7f:3e:3c:cc:bf:4f:6f:c3:93:27:ed:
                    b2:d8:60:c6:56:ba:02:03:48:89:87:79:2c:03:58:
                    73:67:c1:a3:fa:06:a9:89:4c:7b:c0:01:3b:5c:7a:
                    44:42:56:e5:33:48:2c:b0:62:67:ac:7e:b2:f8:e7:
                    c6:5d:c0:9b:03:c4:4c:07:c7:82:18:cd:46:a7:ad:
                    41:37:1c:aa:b0:d5:94:7c:20:20:26:e7:14:7d:83:
                    23:a6:43:bb:dd:7a:95:2c:29:f8:e3:d5:5c:5a:0a:
                    42:28:77:30:42:63:82:7e:19:2f:a9:c5:df:a3:1c:
                    3e:50:c1:ae:6e:04:9b:4a:dd:73:12:d2:3e:89:d5:
                    c7:89:ad:ef:83:d9:2d:c0:9b:ae:20:57:66:ea:12:
                    52:95:77:ce:9f:3a:3c:14:e2:22:bb:93:51:5f:7e:
                    b6:e4:d8:10:5d:7d:06:bb:27:f6:eb:e0:2c:4f:b8:
                    65:3a:ed:7c:c4:16:c2:42:44:9f:34:7e:8d:eb:27:
                    40:af
                Exponent: 65537 (0x10001)
        X509v3 extensions:
            X509v3 Basic Constraints: 
                CA:FALSE
            X509v3 Subject Key Identifier: 
                25:F9:68:CC:25:10:42:DA:DE:E6:2E:B6:F7:07:4D:7B:32:32:EF:28
            X509v3 Authority Key Identifier: 
                keyid:91:3E:19:86:A4:E0:4B:4B:77:EC:07:1B:D5:12:6D:CC:8D:29:5C:17
                DirName:/CN=team403-net
                serial:19:E4:03:6F:E7:C5:F4:D1:D6:00:A3:DB:EC:6E:21:87:CB:0D:88:2D
            X509v3 Extended Key Usage: 
                TLS Web Client Authentication
            X509v3 Key Usage: 
                Digital Signature
    Signature Algorithm: sha256WithRSAEncryption
    Signature Value:
        52:c9:92:8a:c5:8c:13:a4:1d:b0:17:c8:3d:24:bb:bb:2e:c7:
        d1:95:e8:dc:5c:6a:2e:5c:e3:2c:21:33:a4:1f:df:f4:07:b5:
        73:49:e5:5c:9e:63:b3:1a:cc:89:62:58:e0:24:28:40:e8:b8:
        3a:30:ca:fd:af:bb:c1:0d:75:39:d1:85:86:25:e7:88:fd:de:
        f7:0f:6e:f5:df:86:56:89:e0:38:d2:7f:6f:9b:4f:73:d2:1a:
        b4:32:ac:e7:40:6f:88:34:59:dc:d4:ed:a8:70:f3:25:f4:26:
        e5:33:8a:f7:91:a3:0c:2d:2b:e8:ba:87:a9:a8:fe:69:0b:40:
        f3:2b:b6:95:ed:74:6c:9b:9f:e8:d2:87:a1:ca:5b:cf:e6:34:
        0e:dc:89:2d:c0:69:9e:a1:22:1a:b7:c9:25:d3:7e:6c:66:dd:
        0d:bb:f3:c0:ec:2f:e4:54:97:82:59:a4:29:31:3c:97:23:79:
        ad:6e:a7:a7:12:48:d5:86:01:d2:b0:a5:1d:af:c3:1e:1b:76:
        61:54:7f:ef:e0:ce:28:7d:ad:67:f2:60:94:e1:54:f5:df:6d:
        fc:a8:35:a5:f9:18:85:03:ce:1a:82:2b:b5:69:88:3e:88:32:
        e2:95:4f:95:03:f6:7d:2c:bd:ee:40:70:b1:5b:e6:bc:72:61:
        d1:9b:59:bd
-----BEGIN CERTIFICATE-----
MIIDXDCCAkSgAwIBAgIQW4C1aj3KaipgvDtTJvtQODANBgkqhkiG9w0BAQsFADAW
MRQwEgYDVQQDDAt0ZWFtNDAzLW5ldDAeFw0yMzExMDQxMDQ3NTRaFw0yNjEwMTkx
MDQ3NTRaMBkxFzAVBgNVBAMMDnRlYW00MDMtY2xpZW50MIIBIjANBgkqhkiG9w0B
AQEFAAOCAQ8AMIIBCgKCAQEApjh8ARjA6skyl20flwMGnKHUa4K9UxER5lykBKFo
RTCkWgPm43HCBCkFChebsiYA0Y3v6sZfw49GviZ7ne+2fz48zL9Pb8OTJ+2y2GDG
VroCA0iJh3ksA1hzZ8Gj+gapiUx7wAE7XHpEQlblM0gssGJnrH6y+OfGXcCbA8RM
B8eCGM1Gp61BNxyqsNWUfCAgJucUfYMjpkO73XqVLCn449VcWgpCKHcwQmOCfhkv
qcXfoxw+UMGubgSbSt1zEtI+idXHia3vg9ktwJuuIFdm6hJSlXfOnzo8FOIiu5NR
X3625NgQXX0Guyf26+AsT7hlOu18xBbCQkSfNH6N6ydArwIDAQABo4GiMIGfMAkG
A1UdEwQCMAAwHQYDVR0OBBYEFCX5aMwlEELa3uYutvcHTXsyMu8oMFEGA1UdIwRK
MEiAFJE+GYak4EtLd+wHG9USbcyNKVwXoRqkGDAWMRQwEgYDVQQDDAt0ZWFtNDAz
LW5ldIIUGeQDb+fF9NHWAKPb7G4hh8sNiC0wEwYDVR0lBAwwCgYIKwYBBQUHAwIw
CwYDVR0PBAQDAgeAMA0GCSqGSIb3DQEBCwUAA4IBAQBSyZKKxYwTpB2wF8g9JLu7
LsfRlejcXGouXOMsITOkH9/0B7VzSeVcnmOzGsyJYljgJChA6Lg6MMr9r7vBDXU5
0YWGJeeI/d73D27134ZWieA40n9vm09z0hq0MqznQG+INFnc1O2ocPMl9CblM4r3
kaMMLSvouoepqP5pC0DzK7aV7XRsm5/o0oehylvP5jQO3IktwGmeoSIat8kl035s
Zt0Nu/PA7C/kVJeCWaQpMTyXI3mtbqenEkjVhgHSsKUdr8MeG3ZhVH/v4M4ofa1n
8mCU4VT13238qDWl+RiFA84agiu1aYg+iDLilU+VA/Z9LL3uQHCxW+a8cmHRm1m9
-----END CERTIFICATE-----
