Certificate:
    Data:
        Version: 3 (0x2)
        Serial Number:
            ca:b5:24:1f:63:b7:53:4b:db:c7:6f:bc:da:5f:12:6b
        Signature Algorithm: sha256WithRSAEncryption
        Issuer: CN=team403-net
        Validity
            Not Before: Nov  4 10:47:54 2023 GMT
            Not After : Oct 19 10:47:54 2026 GMT
        Subject: CN=team403-server
        Subject Public Key Info:
            Public Key Algorithm: rsaEncryption
                Public-Key: (2048 bit)
                Modulus:
                    00:cc:73:dc:c9:cb:75:9b:73:96:ab:1f:75:b0:b4:
                    f1:a3:fb:d9:68:1b:a8:cc:9d:bd:21:d2:7e:c8:f3:
                    e4:b8:59:8d:0a:fc:8c:28:7e:98:04:5f:af:28:7b:
                    0a:52:60:e9:d4:d7:e4:67:50:cc:f6:67:10:19:f5:
                    7c:21:d4:01:45:ac:d8:f8:d9:16:b5:ee:ee:21:65:
                    a7:f4:c7:1d:aa:d8:a1:f3:a6:42:6a:a5:a6:3d:75:
                    74:60:0e:3a:1d:66:24:89:56:8b:58:f6:3b:25:5c:
                    31:64:d8:77:b1:ae:2c:df:6b:e5:aa:c0:61:da:82:
                    ed:14:a2:32:1a:cd:11:1f:24:4e:91:d2:e8:73:11:
                    13:e2:da:2a:4a:cf:26:cf:f6:19:55:2f:c9:38:67:
                    cc:92:21:24:df:ed:8b:f7:64:7c:57:cb:61:56:d8:
                    df:61:27:10:c8:f5:9a:3e:81:84:82:ec:2e:30:ca:
                    e6:57:3f:de:86:1f:f0:ac:5c:26:ce:79:a0:b8:84:
                    bc:82:15:00:72:62:dc:b9:cd:d0:59:c1:ea:6b:bb:
                    98:3a:b2:d1:0b:03:43:08:c5:55:66:94:31:d3:de:
                    cc:61:91:5f:a7:88:05:66:8e:d9:84:e4:34:2e:fb:
                    3b:04:bb:09:56:35:ae:a8:ae:99:fe:4d:3b:6c:5d:
                    6f:a9
                Exponent: 65537 (0x10001)
        X509v3 extensions:
            X509v3 Basic Constraints: 
                CA:FALSE
            X509v3 Subject Key Identifier: 
                B9:2E:EE:8B:6E:15:23:C1:DC:91:A4:84:24:39:90:59:28:E9:85:02
            X509v3 Authority Key Identifier: 
                keyid:91:3E:19:86:A4:E0:4B:4B:77:EC:07:1B:D5:12:6D:CC:8D:29:5C:17
                DirName:/CN=team403-net
                serial:19:E4:03:6F:E7:C5:F4:D1:D6:00:A3:DB:EC:6E:21:87:CB:0D:88:2D
            X509v3 Extended Key Usage: 
                TLS Web Server Authentication
            X509v3 Key Usage: 
                Digital Signature, Key Encipherment
            X509v3 Subject Alternative Name: 
                DNS:team403-server
    Signature Algorithm: sha256WithRSAEncryption
    Signature Value:
        24:b7:4a:b3:4a:a6:79:f1:ee:2b:09:44:6c:5c:f0:87:f2:49:
        e3:25:5d:32:00:ca:78:1c:de:97:f4:55:83:bb:60:f0:33:0d:
        af:ea:36:b9:0f:52:7f:cf:c5:a9:a2:86:a9:c6:29:c3:a8:8d:
        9a:85:1b:26:6a:90:ea:33:23:77:e7:ab:be:94:8a:7f:06:cf:
        a0:47:c3:de:cc:8d:b8:a8:97:53:1e:d6:28:c0:cb:39:d8:86:
        2e:94:89:cf:d4:4e:63:25:87:15:c5:ff:0b:ea:99:b8:86:4c:
        04:e5:a4:10:e3:b8:4a:6a:be:ff:0f:1d:1d:30:0c:37:fe:07:
        4b:f2:b0:fa:a7:49:cb:66:5a:e6:29:e6:2c:76:2b:d1:85:87:
        7f:1a:1f:88:2b:7c:29:0a:b7:15:55:e2:81:4c:6b:69:61:17:
        7e:22:0a:e7:65:26:0e:ba:74:a9:30:f6:b8:0d:2b:63:61:3f:
        c5:05:57:d0:37:f7:99:48:8a:a6:96:e1:2e:28:8c:33:7b:aa:
        42:73:a7:15:64:e8:eb:5b:0b:f2:f7:e2:4d:a1:76:84:94:33:
        4c:90:fe:19:a8:5a:ae:fb:c3:ea:6b:23:c1:ce:61:99:77:58:
        f7:2a:c8:63:ff:2a:8b:b1:d7:af:4b:91:9c:00:8f:6d:0e:e4:
        d0:24:1f:77
-----BEGIN CERTIFICATE-----
MIIDeDCCAmCgAwIBAgIRAMq1JB9jt1NL28dvvNpfEmswDQYJKoZIhvcNAQELBQAw
FjEUMBIGA1UEAwwLdGVhbTQwMy1uZXQwHhcNMjMxMTA0MTA0NzU0WhcNMjYxMDE5
MTA0NzU0WjAZMRcwFQYDVQQDDA50ZWFtNDAzLXNlcnZlcjCCASIwDQYJKoZIhvcN
AQEBBQADggEPADCCAQoCggEBAMxz3MnLdZtzlqsfdbC08aP72WgbqMydvSHSfsjz
5LhZjQr8jCh+mARfryh7ClJg6dTX5GdQzPZnEBn1fCHUAUWs2PjZFrXu7iFlp/TH
HarYofOmQmqlpj11dGAOOh1mJIlWi1j2OyVcMWTYd7GuLN9r5arAYdqC7RSiMhrN
ER8kTpHS6HMRE+LaKkrPJs/2GVUvyThnzJIhJN/ti/dkfFfLYVbY32EnEMj1mj6B
hILsLjDK5lc/3oYf8KxcJs55oLiEvIIVAHJi3LnN0FnB6mu7mDqy0QsDQwjFVWaU
MdPezGGRX6eIBWaO2YTkNC77OwS7CVY1rqiumf5NO2xdb6kCAwEAAaOBvTCBujAJ
BgNVHRMEAjAAMB0GA1UdDgQWBBS5Lu6LbhUjwdyRpIQkOZBZKOmFAjBRBgNVHSME
SjBIgBSRPhmGpOBLS3fsBxvVEm3MjSlcF6EapBgwFjEUMBIGA1UEAwwLdGVhbTQw
My1uZXSCFBnkA2/nxfTR1gCj2+xuIYfLDYgtMBMGA1UdJQQMMAoGCCsGAQUFBwMB
MAsGA1UdDwQEAwIFoDAZBgNVHREEEjAQgg50ZWFtNDAzLXNlcnZlcjANBgkqhkiG
9w0BAQsFAAOCAQEAJLdKs0qmefHuKwlEbFzwh/JJ4yVdMgDKeBzel/RVg7tg8DMN
r+o2uQ9Sf8/FqaKGqcYpw6iNmoUbJmqQ6jMjd+ervpSKfwbPoEfD3syNuKiXUx7W
KMDLOdiGLpSJz9ROYyWHFcX/C+qZuIZMBOWkEOO4Smq+/w8dHTAMN/4HS/Kw+qdJ
y2Za5inmLHYr0YWHfxofiCt8KQq3FVXigUxraWEXfiIK52UmDrp0qTD2uA0rY2E/
xQVX0Df3mUiKppbhLiiMM3uqQnOnFWTo61sL8vfiTaF2hJQzTJD+GaharvvD6msj
wc5hmXdY9yrIY/8qi7HXr0uRnACPbQ7k0CQfdw==
-----END CERTIFICATE-----
