Certificate:
    Data:
        Version: 3 (0x2)
        Serial Number:
            31:99:7f:15:0d:5e:70:3b:27:58:6d:e1:45:b1:36:5e
        Signature Algorithm: sha256WithRSAEncryption
        Issuer: CN=team232-net
        Validity
            Not Before: Nov  4 11:32:09 2023 GMT
            Not After : Oct 19 11:32:09 2026 GMT
        Subject: CN=team232-server
        Subject Public Key Info:
            Public Key Algorithm: rsaEncryption
                Public-Key: (2048 bit)
                Modulus:
                    00:a9:82:d9:67:69:d8:bb:ed:0c:30:04:a7:2a:42:
                    28:52:8f:1f:5f:42:28:82:bc:44:71:6c:ac:37:f6:
                    4b:32:60:d2:8f:55:e7:88:24:b6:ea:50:58:16:b3:
                    05:0c:ed:56:29:9e:50:62:75:74:0f:5e:0b:5f:69:
                    26:15:e0:ab:be:2c:b3:49:76:ea:7f:b0:02:16:80:
                    f7:44:9b:06:db:c5:3b:ec:32:d2:c0:2d:77:c2:5e:
                    be:a6:e1:59:39:ea:0d:0d:f4:ea:10:50:fa:32:76:
                    75:ec:65:a0:43:24:d1:7f:1b:d8:23:92:73:73:6f:
                    92:37:ac:21:7a:ec:7e:6d:6f:88:97:78:40:aa:0e:
                    56:6e:d5:ec:3f:d9:12:c2:e4:db:ea:04:aa:51:00:
                    6d:03:a7:36:04:6f:0d:95:bc:c0:cb:94:57:27:72:
                    58:ab:cd:07:5d:61:23:53:00:c1:a6:e6:f9:33:0d:
                    f6:e1:ec:0e:14:a2:b1:c3:e0:35:db:c2:f6:df:08:
                    e7:06:ee:ff:9c:1b:f6:93:be:2c:7b:ba:1e:c6:09:
                    fe:c5:af:73:fe:63:19:18:6b:af:f5:72:0c:47:0d:
                    44:d4:43:92:ff:22:80:ea:aa:88:14:bf:59:6b:37:
                    f6:c2:91:68:d7:6a:29:48:2c:4f:95:ae:f3:37:63:
                    0a:1d
                Exponent: 65537 (0x10001)
        X509v3 extensions:
            X509v3 Basic Constraints: 
                CA:FALSE
            X509v3 Subject Key Identifier: 
                F6:7D:32:61:F5:B4:D1:1D:58:D3:23:D0:36:2A:E4:E0:70:60:44:69
            X509v3 Authority Key Identifier: 
                keyid:21:07:FA:58:A8:C6:1A:8F:3B:91:60:40:78:74:24:5F:6A:DB:37:0A
                DirName:/CN=team232-net
                serial:1C:E4:C7:9F:BB:C5:A3:65:36:D8:F9:27:D5:90:10:3D:77:FC:38:A2
            X509v3 Extended Key Usage: 
                TLS Web Server Authentication
            X509v3 Key Usage: 
                Digital Signature, Key Encipherment
            X509v3 Subject Alternative Name: 
                DNS:team232-server
    Signature Algorithm: sha256WithRSAEncryption
    Signature Value:
        c5:0a:80:9e:c6:e4:f9:87:25:8c:31:26:7e:52:3c:1f:ab:51:
        8a:8b:25:34:ff:c1:e8:86:fc:27:5f:6d:80:85:11:33:61:5e:
        61:e3:d7:5e:31:b8:78:be:f8:75:1c:2d:09:5b:95:7a:20:5c:
        65:d0:fb:82:4f:07:d3:ca:07:9e:6d:1e:e3:f4:4c:a2:e1:09:
        26:46:53:5e:72:bb:61:12:d8:6d:00:32:4f:f9:29:54:0b:58:
        f9:55:35:a3:3e:c2:24:53:3d:d2:2c:4a:2f:51:5d:70:50:ac:
        3a:b5:54:7d:eb:1a:85:bd:28:f9:b3:b3:df:5b:d9:a9:cf:ce:
        69:c8:06:20:d0:80:9b:bc:34:e4:dc:4a:fa:5f:7b:ad:0d:c1:
        9c:47:b8:3d:ef:7a:b4:36:db:8d:73:2c:b2:51:b7:5c:16:1f:
        75:73:39:56:60:ed:d1:31:9f:e7:6a:09:50:59:1b:46:20:33:
        76:98:fb:5e:72:c3:af:6c:3f:0f:16:fd:a5:2e:ca:17:71:00:
        17:e6:51:1f:8c:5f:61:e9:41:de:4b:38:e4:a8:f6:23:9b:d8:
        6c:bc:c0:88:cf:8b:c4:f1:1a:7c:d6:e4:89:07:05:18:77:d8:
        56:13:75:a9:7c:9e:f0:97:10:c6:6e:4d:7e:f8:b5:94:98:e3:
        93:db:60:a9
-----BEGIN CERTIFICATE-----
MIIDdzCCAl+gAwIBAgIQMZl/FQ1ecDsnWG3hRbE2XjANBgkqhkiG9w0BAQsFADAW
MRQwEgYDVQQDDAt0ZWFtMjMyLW5ldDAeFw0yMzExMDQxMTMyMDlaFw0yNjEwMTkx
MTMyMDlaMBkxFzAVBgNVBAMMDnRlYW0yMzItc2VydmVyMIIBIjANBgkqhkiG9w0B
AQEFAAOCAQ8AMIIBCgKCAQEAqYLZZ2nYu+0MMASnKkIoUo8fX0IogrxEcWysN/ZL
MmDSj1XniCS26lBYFrMFDO1WKZ5QYnV0D14LX2kmFeCrviyzSXbqf7ACFoD3RJsG
28U77DLSwC13wl6+puFZOeoNDfTqEFD6MnZ17GWgQyTRfxvYI5Jzc2+SN6wheux+
bW+Il3hAqg5WbtXsP9kSwuTb6gSqUQBtA6c2BG8NlbzAy5RXJ3JYq80HXWEjUwDB
pub5Mw324ewOFKKxw+A128L23wjnBu7/nBv2k74se7oexgn+xa9z/mMZGGuv9XIM
Rw1E1EOS/yKA6qqIFL9Zazf2wpFo12opSCxPla7zN2MKHQIDAQABo4G9MIG6MAkG
A1UdEwQCMAAwHQYDVR0OBBYEFPZ9MmH1tNEdWNMj0DYq5OBwYERpMFEGA1UdIwRK
MEiAFCEH+lioxhqPO5FgQHh0JF9q2zcKoRqkGDAWMRQwEgYDVQQDDAt0ZWFtMjMy
LW5ldIIUHOTHn7vFo2U22Pkn1ZAQPXf8OKIwEwYDVR0lBAwwCgYIKwYBBQUHAwEw
CwYDVR0PBAQDAgWgMBkGA1UdEQQSMBCCDnRlYW0yMzItc2VydmVyMA0GCSqGSIb3
DQEBCwUAA4IBAQDFCoCexuT5hyWMMSZ+Ujwfq1GKiyU0/8HohvwnX22AhREzYV5h
49deMbh4vvh1HC0JW5V6IFxl0PuCTwfTygeebR7j9Eyi4QkmRlNecrthEthtADJP
+SlUC1j5VTWjPsIkUz3SLEovUV1wUKw6tVR96xqFvSj5s7PfW9mpz85pyAYg0ICb
vDTk3Er6X3utDcGcR7g973q0NtuNcyyyUbdcFh91czlWYO3RMZ/naglQWRtGIDN2
mPtecsOvbD8PFv2lLsoXcQAX5lEfjF9h6UHeSzjkqPYjm9hsvMCIz4vE8Rp81uSJ
BwUYd9hWE3WpfJ7wlxDGbk1++LWUmOOT22Cp
-----END CERTIFICATE-----
