Certificate:
    Data:
        Version: 3 (0x2)
        Serial Number:
            52:7e:1a:ee:4c:44:15:cd:28:fb:a8:73:de:07:dc:25
        Signature Algorithm: sha256WithRSAEncryption
        Issuer: CN=team323-net
        Validity
            Not Before: Nov  3 20:45:08 2023 GMT
            Not After : Oct 18 20:45:08 2026 GMT
        Subject: CN=team323-client
        Subject Public Key Info:
            Public Key Algorithm: rsaEncryption
                Public-Key: (2048 bit)
                Modulus:
                    00:ea:0d:7c:fa:92:cb:4b:f0:f3:cd:8c:8c:80:82:
                    aa:bf:b0:dc:ee:a4:5b:0d:3f:df:82:3a:42:24:91:
                    4d:84:7f:68:b5:2c:61:51:26:0d:a3:4a:11:7b:3a:
                    11:d6:8f:fd:8c:a8:ed:49:f5:34:c0:39:62:fd:09:
                    7e:dc:54:0c:05:f9:42:c7:07:45:75:09:ce:fa:49:
                    ce:11:3e:3c:5a:38:c7:ec:6f:92:5f:ee:23:29:96:
                    74:5c:b3:f8:1e:ea:37:1b:b0:c8:0f:fe:c7:de:d9:
                    fe:fc:5f:5f:ca:5b:81:fb:7a:2a:dc:31:ce:0b:13:
                    70:11:97:51:dc:59:ae:c2:f3:fe:d9:40:99:cf:30:
                    45:c3:47:2e:11:c3:92:fa:39:34:ae:dc:16:13:8f:
                    80:52:ce:25:aa:a4:6b:71:c0:e3:b8:01:3e:46:25:
                    6d:5f:be:ea:bc:6e:9f:2f:ae:b0:77:68:5f:df:4c:
                    55:29:2e:87:c2:7b:05:2c:e6:37:8c:d0:50:f0:bc:
                    1c:eb:07:65:9f:fe:31:2a:42:cf:5f:a7:78:95:e3:
                    59:a1:b8:36:f0:f9:57:21:53:ba:3a:14:9b:e0:ff:
                    f0:a1:9a:a2:63:85:bc:c7:fd:72:31:cc:dc:da:01:
                    aa:67:fd:17:13:0a:4a:4f:c6:d9:2c:c6:db:bd:f4:
                    cb:8f
                Exponent: 65537 (0x10001)
        X509v3 extensions:
            X509v3 Basic Constraints: 
                CA:FALSE
            X509v3 Subject Key Identifier: 
                EC:22:EC:93:70:2E:24:D3:DC:FD:FE:79:78:DE:D9:11:F9:11:5B:5C
            X509v3 Authority Key Identifier: 
                keyid:33:25:20:05:74:7A:17:DB:A6:D0:15:A5:74:0F:BF:0C:89:D0:C2:9E
                DirName:/CN=team323-net
                serial:51:8B:6E:23:D0:4D:01:25:7D:96:DA:1F:A8:7D:0E:CE:1C:D0:36:5E
            X509v3 Extended Key Usage: 
                TLS Web Client Authentication
            X509v3 Key Usage: 
                Digital Signature
    Signature Algorithm: sha256WithRSAEncryption
    Signature Value:
        3f:98:58:78:10:ac:53:6c:9b:7a:57:e7:18:9f:ac:95:bf:cd:
        ec:1d:e9:e1:ea:1c:51:a6:79:7e:28:b6:71:27:db:be:ec:53:
        1d:2b:ef:d7:92:e5:9a:90:80:07:01:9f:71:f4:f5:36:fa:a4:
        35:c7:47:a2:4e:55:df:16:db:9b:88:33:77:47:fb:c5:27:f1:
        ac:e1:64:64:73:b7:1d:85:df:48:a1:87:0a:66:9d:54:e5:81:
        42:06:ce:51:4b:c3:b3:a8:ee:a6:41:00:ec:d1:b9:3f:ef:e3:
        21:e1:99:77:4a:a3:cd:18:c7:c2:30:8a:cf:39:a3:21:d7:e6:
        db:36:41:9f:a8:16:67:a5:13:5f:cf:82:18:52:99:38:a5:3c:
        47:0d:33:36:99:18:53:35:12:1e:a8:b1:3a:36:14:dc:7d:b6:
        6b:1c:32:2c:2c:53:b9:fa:1e:77:5b:d3:1d:15:30:af:56:36:
        73:61:33:af:94:da:29:52:34:f4:6f:16:7f:63:fb:9d:c5:33:
        e0:35:ba:20:c5:52:2b:fa:c8:bb:07:8b:d7:de:ea:5f:9a:57:
        65:8b:77:a6:73:2c:be:fd:15:7d:bc:e1:b1:a7:4e:07:a5:05:
        80:59:71:26:6f:aa:71:74:93:28:05:7a:f8:0c:9f:38:b7:93:
        e5:7e:9d:dc
-----BEGIN CERTIFICATE-----
MIIDXDCCAkSgAwIBAgIQUn4a7kxEFc0o+6hz3gfcJTANBgkqhkiG9w0BAQsFADAW
MRQwEgYDVQQDDAt0ZWFtMzIzLW5ldDAeFw0yMzExMDMyMDQ1MDhaFw0yNjEwMTgy
MDQ1MDhaMBkxFzAVBgNVBAMMDnRlYW0zMjMtY2xpZW50MIIBIjANBgkqhkiG9w0B
AQEFAAOCAQ8AMIIBCgKCAQEA6g18+pLLS/DzzYyMgIKqv7Dc7qRbDT/fgjpCJJFN
hH9otSxhUSYNo0oRezoR1o/9jKjtSfU0wDli/Ql+3FQMBflCxwdFdQnO+knOET48
WjjH7G+SX+4jKZZ0XLP4Huo3G7DID/7H3tn+/F9fyluB+3oq3DHOCxNwEZdR3Fmu
wvP+2UCZzzBFw0cuEcOS+jk0rtwWE4+AUs4lqqRrccDjuAE+RiVtX77qvG6fL66w
d2hf30xVKS6HwnsFLOY3jNBQ8Lwc6wdln/4xKkLPX6d4leNZobg28PlXIVO6OhSb
4P/woZqiY4W8x/1yMczc2gGqZ/0XEwpKT8bZLMbbvfTLjwIDAQABo4GiMIGfMAkG
A1UdEwQCMAAwHQYDVR0OBBYEFOwi7JNwLiTT3P3+eXje2RH5EVtcMFEGA1UdIwRK
MEiAFDMlIAV0ehfbptAVpXQPvwyJ0MKeoRqkGDAWMRQwEgYDVQQDDAt0ZWFtMzIz
LW5ldIIUUYtuI9BNASV9ltofqH0OzhzQNl4wEwYDVR0lBAwwCgYIKwYBBQUHAwIw
CwYDVR0PBAQDAgeAMA0GCSqGSIb3DQEBCwUAA4IBAQA/mFh4EKxTbJt6V+cYn6yV
v83sHenh6hxRpnl+KLZxJ9u+7FMdK+/XkuWakIAHAZ9x9PU2+qQ1x0eiTlXfFtub
iDN3R/vFJ/Gs4WRkc7cdhd9IoYcKZp1U5YFCBs5RS8OzqO6mQQDs0bk/7+Mh4Zl3
SqPNGMfCMIrPOaMh1+bbNkGfqBZnpRNfz4IYUpk4pTxHDTM2mRhTNRIeqLE6NhTc
fbZrHDIsLFO5+h53W9MdFTCvVjZzYTOvlNopUjT0bxZ/Y/udxTPgNbogxVIr+si7
B4vX3upfmldli3emcyy+/RV9vOGxp04HpQWAWXEmb6pxdJMoBXr4DJ84t5Plfp3c
-----END CERTIFICATE-----
