Certificate:
    Data:
        Version: 3 (0x2)
        Serial Number:
            62:6d:b5:73:20:eb:49:99:3d:b1:af:34:d4:8b:6b:5d
        Signature Algorithm: sha256WithRSAEncryption
        Issuer: CN=team323-net
        Validity
            Not Before: Nov  4 10:46:31 2023 GMT
            Not After : Oct 19 10:46:31 2026 GMT
        Subject: CN=team323-client
        Subject Public Key Info:
            Public Key Algorithm: rsaEncryption
                Public-Key: (2048 bit)
                Modulus:
                    00:9f:b1:18:eb:09:7b:cf:72:a4:41:a2:fd:b2:ac:
                    73:94:19:87:8f:b0:1c:d2:26:87:65:32:c7:02:f7:
                    43:2c:12:fc:9d:5c:55:ae:ab:c6:66:6f:dc:c4:2a:
                    08:45:b3:a2:c0:b7:6c:87:36:73:58:58:60:bf:d3:
                    11:13:ef:dc:02:6e:2b:fd:af:38:73:2e:24:03:ba:
                    68:68:c0:f0:1f:83:3e:d8:a9:e7:ee:9f:39:17:1b:
                    12:b5:02:88:17:99:e2:55:91:58:01:08:67:de:8c:
                    1f:79:ff:bf:5b:94:2c:35:67:84:b4:77:7c:56:45:
                    0c:74:16:35:88:c8:e0:5f:aa:7a:60:9d:f1:95:75:
                    9b:31:22:a2:5e:55:1d:c1:a1:fa:8d:25:73:05:d7:
                    30:d3:81:eb:50:0c:0a:7c:7f:29:98:71:d6:2b:2c:
                    5c:ac:39:8c:95:30:82:54:a6:12:55:a3:8e:ba:cc:
                    41:39:2c:db:92:b5:15:9a:7c:b0:02:2e:35:75:a2:
                    59:b3:df:54:ae:d1:07:a5:07:c6:e7:a3:19:53:91:
                    6c:86:f5:a9:bc:d9:cb:a5:40:fc:a9:5f:e6:3b:6c:
                    18:e1:87:1d:b0:74:7e:f0:5b:42:71:6c:73:f5:6a:
                    75:28:c7:1e:db:f8:7c:a1:23:f6:b5:a5:8b:f3:9e:
                    9c:a5
                Exponent: 65537 (0x10001)
        X509v3 extensions:
            X509v3 Basic Constraints: 
                CA:FALSE
            X509v3 Subject Key Identifier: 
                7E:4F:08:72:4B:70:9F:21:22:CD:AE:0A:2E:A5:1D:49:5F:1D:E3:54
            X509v3 Authority Key Identifier: 
                keyid:8A:25:8F:B4:5A:C9:2E:B4:14:86:E2:25:B8:CE:C3:0F:DA:90:AC:5A
                DirName:/CN=team323-net
                serial:41:4A:30:C2:7B:AD:A0:83:C3:77:CD:03:46:DA:9D:8C:30:1B:C9:4C
            X509v3 Extended Key Usage: 
                TLS Web Client Authentication
            X509v3 Key Usage: 
                Digital Signature
    Signature Algorithm: sha256WithRSAEncryption
    Signature Value:
        aa:8f:97:58:cf:28:25:5f:1c:04:da:d5:45:87:05:cc:9e:f9:
        86:44:a0:b1:43:71:bd:3d:ca:f8:b2:e1:81:e9:00:0b:e8:6e:
        4c:e1:66:50:b2:1b:d5:95:d7:ba:29:49:e2:e7:1c:60:d5:74:
        69:ac:2d:45:d2:5e:bf:51:1f:1e:52:df:14:dc:3b:2a:99:45:
        f1:07:44:c9:69:6f:30:78:05:e6:30:71:e0:5a:c6:d2:bc:c6:
        a9:79:3b:9a:18:01:ca:96:90:1e:bb:15:85:62:b1:5f:8d:a1:
        66:96:a6:07:60:43:e2:11:d7:21:0b:96:46:5f:5d:3e:7f:64:
        2b:e7:ca:71:0a:f2:03:46:c4:84:68:0a:13:4d:47:92:27:52:
        20:19:b8:0f:69:42:2a:e4:23:d9:94:17:f9:9e:2d:3c:84:99:
        ee:ee:68:07:39:4e:f7:eb:97:22:f0:b6:6b:53:fe:0c:68:3c:
        59:78:bb:26:a9:1c:1f:42:a9:b4:b4:3f:9e:2f:fa:17:df:2b:
        d7:2a:cf:6d:3b:09:2a:d8:ff:d8:9b:20:78:92:8a:21:5f:82:
        42:dc:4b:ff:9b:47:e0:0a:a1:cc:28:ce:49:59:8c:59:74:b2:
        38:4c:33:f1:03:36:26:2a:c2:16:61:42:2a:08:6d:d3:9a:f6:
        83:d0:a0:32
-----BEGIN CERTIFICATE-----
MIIDXDCCAkSgAwIBAgIQYm21cyDrSZk9sa801ItrXTANBgkqhkiG9w0BAQsFADAW
MRQwEgYDVQQDDAt0ZWFtMzIzLW5ldDAeFw0yMzExMDQxMDQ2MzFaFw0yNjEwMTkx
MDQ2MzFaMBkxFzAVBgNVBAMMDnRlYW0zMjMtY2xpZW50MIIBIjANBgkqhkiG9w0B
AQEFAAOCAQ8AMIIBCgKCAQEAn7EY6wl7z3KkQaL9sqxzlBmHj7Ac0iaHZTLHAvdD
LBL8nVxVrqvGZm/cxCoIRbOiwLdshzZzWFhgv9MRE+/cAm4r/a84cy4kA7poaMDw
H4M+2Knn7p85FxsStQKIF5niVZFYAQhn3owfef+/W5QsNWeEtHd8VkUMdBY1iMjg
X6p6YJ3xlXWbMSKiXlUdwaH6jSVzBdcw04HrUAwKfH8pmHHWKyxcrDmMlTCCVKYS
VaOOusxBOSzbkrUVmnywAi41daJZs99UrtEHpQfG56MZU5FshvWpvNnLpUD8qV/m
O2wY4YcdsHR+8FtCcWxz9Wp1KMce2/h8oSP2taWL856cpQIDAQABo4GiMIGfMAkG
A1UdEwQCMAAwHQYDVR0OBBYEFH5PCHJLcJ8hIs2uCi6lHUlfHeNUMFEGA1UdIwRK
MEiAFIolj7RayS60FIbiJbjOww/akKxaoRqkGDAWMRQwEgYDVQQDDAt0ZWFtMzIz
LW5ldIIUQUowwnutoIPDd80DRtqdjDAbyUwwEwYDVR0lBAwwCgYIKwYBBQUHAwIw
CwYDVR0PBAQDAgeAMA0GCSqGSIb3DQEBCwUAA4IBAQCqj5dYzyglXxwE2tVFhwXM
nvmGRKCxQ3G9Pcr4suGB6QAL6G5M4WZQshvVlde6KUni5xxg1XRprC1F0l6/UR8e
Ut8U3DsqmUXxB0TJaW8weAXmMHHgWsbSvMapeTuaGAHKlpAeuxWFYrFfjaFmlqYH
YEPiEdchC5ZGX10+f2Qr58pxCvIDRsSEaAoTTUeSJ1IgGbgPaUIq5CPZlBf5ni08
hJnu7mgHOU7365ci8LZrU/4MaDxZeLsmqRwfQqm0tD+eL/oX3yvXKs9tOwkq2P/Y
myB4koohX4JC3Ev/m0fgCqHMKM5JWYxZdLI4TDPxAzYmKsIWYUIqCG3TmvaD0KAy
-----END CERTIFICATE-----
