Certificate:
    Data:
        Version: 3 (0x2)
        Serial Number:
            66:be:5f:4a:23:3c:f6:0d:3b:4c:27:09:78:69:c0:37
        Signature Algorithm: sha256WithRSAEncryption
        Issuer: CN=team323-net
        Validity
            Not Before: Nov  3 20:45:09 2023 GMT
            Not After : Oct 18 20:45:09 2026 GMT
        Subject: CN=team323-server
        Subject Public Key Info:
            Public Key Algorithm: rsaEncryption
                Public-Key: (2048 bit)
                Modulus:
                    00:8e:a5:82:ec:9f:c2:19:c3:17:f9:56:45:c2:7e:
                    4d:49:3b:a8:d8:30:c0:3f:42:38:95:8c:87:28:37:
                    69:97:aa:ee:d3:3c:fc:d4:b0:5e:5c:55:9e:77:b2:
                    d4:b0:44:b6:56:14:21:52:85:c4:cc:08:26:ee:0a:
                    7e:05:93:84:8b:52:a0:7f:12:85:30:14:21:6b:ae:
                    00:fd:e8:d9:52:45:5e:1d:b6:94:e1:1b:19:2c:e1:
                    ab:46:3f:7a:e1:38:5a:15:90:39:94:43:35:3c:6c:
                    11:f7:59:90:ca:87:22:df:db:88:70:04:7c:1a:ee:
                    51:9b:79:66:7a:d6:ff:7d:b7:4f:e6:62:c7:96:18:
                    6e:25:a9:71:6e:e8:00:b5:14:78:72:af:b2:bc:2b:
                    7f:e7:89:f4:b7:a9:d8:7a:ce:a7:7d:48:f7:f0:28:
                    fc:d6:07:92:04:77:4f:9c:db:e1:6f:f8:31:d4:a4:
                    fe:b8:f0:3c:7b:1d:40:93:8a:1d:78:2a:4b:42:de:
                    1d:03:e5:5a:90:ad:cc:ff:ac:d9:56:94:20:94:e4:
                    61:b1:d0:ea:f6:ca:e3:82:89:34:47:eb:86:3b:5c:
                    0f:48:31:83:0a:d6:97:c7:c7:97:14:11:d4:ad:7a:
                    b6:26:3a:3d:06:27:02:e9:20:d7:83:ca:77:ca:cf:
                    30:f1
                Exponent: 65537 (0x10001)
        X509v3 extensions:
            X509v3 Basic Constraints: 
                CA:FALSE
            X509v3 Subject Key Identifier: 
                73:D9:A5:90:22:E0:37:4A:D9:86:F4:34:A8:B7:F6:81:2E:28:51:91
            X509v3 Authority Key Identifier: 
                keyid:33:25:20:05:74:7A:17:DB:A6:D0:15:A5:74:0F:BF:0C:89:D0:C2:9E
                DirName:/CN=team323-net
                serial:51:8B:6E:23:D0:4D:01:25:7D:96:DA:1F:A8:7D:0E:CE:1C:D0:36:5E
            X509v3 Extended Key Usage: 
                TLS Web Server Authentication
            X509v3 Key Usage: 
                Digital Signature, Key Encipherment
            X509v3 Subject Alternative Name: 
                DNS:team323-server
    Signature Algorithm: sha256WithRSAEncryption
    Signature Value:
        61:30:89:0a:f5:47:9c:1b:46:9b:67:a8:68:41:d6:fc:99:40:
        ef:6c:aa:f6:ca:7e:eb:04:b5:2d:66:ce:3a:9a:f2:e0:67:96:
        d3:f6:2f:9f:5f:87:26:dd:40:c6:e9:b8:68:65:8d:b9:51:6f:
        6d:f0:40:21:ab:58:37:ae:db:eb:0e:1f:a5:06:bf:81:cf:e9:
        0f:e6:9b:ea:8f:1a:88:53:38:88:dc:70:bd:2c:db:a6:6c:7b:
        c0:20:0a:aa:b7:27:aa:e0:5e:63:8e:b2:fc:63:8e:bf:1a:a0:
        ae:e9:96:5a:bd:dd:aa:b0:ec:bf:c6:cb:7c:45:31:35:66:f6:
        93:81:f2:53:80:43:75:17:79:bd:57:5f:4b:6f:4b:d9:a3:09:
        fc:fa:27:91:44:40:17:7b:43:63:c4:93:74:34:aa:94:5f:1c:
        93:15:d3:a3:69:24:96:91:90:77:79:3a:d9:07:c7:c0:47:e4:
        ed:df:7d:99:b4:b9:cb:39:4b:11:a2:69:cd:23:bf:27:b6:29:
        b7:d7:6a:ee:08:d4:76:ef:cc:ed:0e:4c:df:0c:5d:ac:a1:83:
        ce:2d:83:0f:10:75:5b:69:53:29:6b:f8:87:a1:ed:86:df:a4:
        0a:d0:b2:dd:77:47:f4:dd:bc:28:c6:4a:43:ab:f3:36:1e:46:
        a1:0b:a3:3a
-----BEGIN CERTIFICATE-----
MIIDdzCCAl+gAwIBAgIQZr5fSiM89g07TCcJeGnANzANBgkqhkiG9w0BAQsFADAW
MRQwEgYDVQQDDAt0ZWFtMzIzLW5ldDAeFw0yMzExMDMyMDQ1MDlaFw0yNjEwMTgy
MDQ1MDlaMBkxFzAVBgNVBAMMDnRlYW0zMjMtc2VydmVyMIIBIjANBgkqhkiG9w0B
AQEFAAOCAQ8AMIIBCgKCAQEAjqWC7J/CGcMX+VZFwn5NSTuo2DDAP0I4lYyHKDdp
l6ru0zz81LBeXFWed7LUsES2VhQhUoXEzAgm7gp+BZOEi1KgfxKFMBQha64A/ejZ
UkVeHbaU4RsZLOGrRj964ThaFZA5lEM1PGwR91mQyoci39uIcAR8Gu5Rm3lmetb/
fbdP5mLHlhhuJalxbugAtRR4cq+yvCt/54n0t6nYes6nfUj38Cj81geSBHdPnNvh
b/gx1KT+uPA8ex1Ak4odeCpLQt4dA+VakK3M/6zZVpQglORhsdDq9srjgok0R+uG
O1wPSDGDCtaXx8eXFBHUrXq2Jjo9BicC6SDXg8p3ys8w8QIDAQABo4G9MIG6MAkG
A1UdEwQCMAAwHQYDVR0OBBYEFHPZpZAi4DdK2Yb0NKi39oEuKFGRMFEGA1UdIwRK
MEiAFDMlIAV0ehfbptAVpXQPvwyJ0MKeoRqkGDAWMRQwEgYDVQQDDAt0ZWFtMzIz
LW5ldIIUUYtuI9BNASV9ltofqH0OzhzQNl4wEwYDVR0lBAwwCgYIKwYBBQUHAwEw
CwYDVR0PBAQDAgWgMBkGA1UdEQQSMBCCDnRlYW0zMjMtc2VydmVyMA0GCSqGSIb3
DQEBCwUAA4IBAQBhMIkK9UecG0abZ6hoQdb8mUDvbKr2yn7rBLUtZs46mvLgZ5bT
9i+fX4cm3UDG6bhoZY25UW9t8EAhq1g3rtvrDh+lBr+Bz+kP5pvqjxqIUziI3HC9
LNumbHvAIAqqtyeq4F5jjrL8Y46/GqCu6ZZavd2qsOy/xst8RTE1ZvaTgfJTgEN1
F3m9V19Lb0vZown8+ieRREAXe0NjxJN0NKqUXxyTFdOjaSSWkZB3eTrZB8fAR+Tt
332ZtLnLOUsRomnNI78ntim312ruCNR278ztDkzfDF2soYPOLYMPEHVbaVMpa/iH
oe2G36QK0LLdd0f03bwoxkpDq/M2HkahC6M6
-----END CERTIFICATE-----
