Certificate:
    Data:
        Version: 3 (0x2)
        Serial Number:
            74:ec:cd:a5:28:46:80:66:3c:6f:22:78:dd:b0:6f:51
        Signature Algorithm: sha256WithRSAEncryption
        Issuer: CN=team323-net
        Validity
            Not Before: Nov  4 11:34:34 2023 GMT
            Not After : Oct 19 11:34:34 2026 GMT
        Subject: CN=team323-client
        Subject Public Key Info:
            Public Key Algorithm: rsaEncryption
                Public-Key: (2048 bit)
                Modulus:
                    00:b5:8e:02:88:f0:12:24:7d:83:b4:3b:82:7b:42:
                    e6:77:76:f7:db:89:29:a6:3e:ce:15:b4:d8:c5:3d:
                    e3:bb:43:ad:c3:37:75:5c:7f:4a:80:54:05:88:dc:
                    e7:b6:c1:58:cd:83:f0:69:8f:d9:4e:87:ab:e9:9d:
                    d4:f8:5a:ab:91:bf:35:45:27:54:dc:fc:e6:7c:36:
                    48:d2:ce:03:2e:b7:d9:58:5f:71:77:54:fd:7c:8e:
                    e8:95:99:84:e5:1b:74:b7:83:b4:bc:06:00:b9:d8:
                    79:6c:62:74:31:9a:a8:b7:b7:b3:ba:1e:76:04:bb:
                    cd:9e:41:7c:4f:b7:d6:20:da:19:d0:89:14:06:7a:
                    ad:66:c3:e5:c8:66:75:d0:a6:fe:6e:28:10:c4:8c:
                    fc:55:2b:62:54:9d:4d:2b:3a:88:50:ac:e7:57:d1:
                    f6:ce:73:e2:ba:96:0a:98:06:4b:48:f3:d3:b7:a3:
                    6e:a9:8c:85:d4:fb:93:8b:73:55:79:46:0a:f5:96:
                    17:cc:42:47:1a:9f:45:55:86:ca:a5:4b:6c:48:44:
                    2a:93:c0:d6:4d:16:fc:df:67:98:86:4d:2c:af:58:
                    b4:3f:2a:03:9f:92:1c:f0:19:34:12:02:0e:84:cc:
                    5c:ef:dd:43:1e:79:3c:82:9e:5c:a8:2c:93:ab:fd:
                    66:c5
                Exponent: 65537 (0x10001)
        X509v3 extensions:
            X509v3 Basic Constraints: 
                CA:FALSE
            X509v3 Subject Key Identifier: 
                29:0E:84:ED:C7:54:E2:BB:25:00:FF:9A:B8:44:38:41:E6:B0:F8:35
            X509v3 Authority Key Identifier: 
                keyid:A7:A7:83:12:A2:C5:3B:14:86:60:60:A1:9F:1E:28:61:9E:AF:0C:3F
                DirName:/CN=team323-net
                serial:03:BA:31:69:FE:74:96:C6:76:74:B7:0C:27:75:9F:24:8C:F6:E5:41
            X509v3 Extended Key Usage: 
                TLS Web Client Authentication
            X509v3 Key Usage: 
                Digital Signature
    Signature Algorithm: sha256WithRSAEncryption
    Signature Value:
        6f:eb:8e:50:66:79:7e:4f:cc:2c:e1:57:e1:c5:12:b2:4e:39:
        54:9d:5a:57:30:8b:d8:a6:25:01:46:f2:09:3b:68:c0:15:31:
        3b:6a:d6:ba:ba:82:7d:52:7a:61:96:1d:b8:7a:78:db:f5:7e:
        76:46:75:4c:4d:78:1a:7f:97:44:4e:4a:3f:e0:bb:16:3e:0e:
        1b:91:73:44:a7:45:08:1e:e6:7e:61:ed:53:f4:7d:22:54:c3:
        f4:6c:26:5a:86:04:ac:ee:74:db:d3:a2:84:a2:12:c5:13:42:
        a3:7f:76:45:a0:ae:4a:6f:82:48:d3:62:55:7a:70:73:e1:ad:
        dd:10:d4:86:26:57:f6:10:da:2f:6c:45:20:4e:c7:bc:ea:35:
        58:8f:7d:da:65:3e:d3:db:14:12:ad:d9:37:8d:61:aa:88:0c:
        4a:ad:67:3f:9a:82:7c:3f:2c:23:08:fe:77:3c:63:02:2c:69:
        23:f0:8b:7d:c4:ee:f0:70:c3:4d:fe:94:d0:18:27:10:b9:0a:
        3b:0b:8f:d9:4e:14:bb:e3:de:38:89:20:91:f4:8c:97:dd:8b:
        a9:d4:68:1a:7b:9a:17:46:12:bf:9f:24:da:86:82:c9:1d:c5:
        2a:23:a5:5e:cf:4d:10:5e:07:fb:0a:ed:c4:51:c2:92:83:4a:
        8a:76:97:e9
-----BEGIN CERTIFICATE-----
MIIDXDCCAkSgAwIBAgIQdOzNpShGgGY8byJ43bBvUTANBgkqhkiG9w0BAQsFADAW
MRQwEgYDVQQDDAt0ZWFtMzIzLW5ldDAeFw0yMzExMDQxMTM0MzRaFw0yNjEwMTkx
MTM0MzRaMBkxFzAVBgNVBAMMDnRlYW0zMjMtY2xpZW50MIIBIjANBgkqhkiG9w0B
AQEFAAOCAQ8AMIIBCgKCAQEAtY4CiPASJH2DtDuCe0Lmd3b324kppj7OFbTYxT3j
u0Otwzd1XH9KgFQFiNzntsFYzYPwaY/ZToer6Z3U+Fqrkb81RSdU3PzmfDZI0s4D
LrfZWF9xd1T9fI7olZmE5Rt0t4O0vAYAudh5bGJ0MZqot7ezuh52BLvNnkF8T7fW
INoZ0IkUBnqtZsPlyGZ10Kb+bigQxIz8VStiVJ1NKzqIUKznV9H2znPiupYKmAZL
SPPTt6NuqYyF1PuTi3NVeUYK9ZYXzEJHGp9FVYbKpUtsSEQqk8DWTRb832eYhk0s
r1i0PyoDn5Ic8Bk0EgIOhMxc791DHnk8gp5cqCyTq/1mxQIDAQABo4GiMIGfMAkG
A1UdEwQCMAAwHQYDVR0OBBYEFCkOhO3HVOK7JQD/mrhEOEHmsPg1MFEGA1UdIwRK
MEiAFKengxKixTsUhmBgoZ8eKGGerww/oRqkGDAWMRQwEgYDVQQDDAt0ZWFtMzIz
LW5ldIIUA7oxaf50lsZ2dLcMJ3WfJIz25UEwEwYDVR0lBAwwCgYIKwYBBQUHAwIw
CwYDVR0PBAQDAgeAMA0GCSqGSIb3DQEBCwUAA4IBAQBv645QZnl+T8ws4VfhxRKy
TjlUnVpXMIvYpiUBRvIJO2jAFTE7ata6uoJ9Unphlh24enjb9X52RnVMTXgaf5dE
Tko/4LsWPg4bkXNEp0UIHuZ+Ye1T9H0iVMP0bCZahgSs7nTb06KEohLFE0Kjf3ZF
oK5Kb4JI02JVenBz4a3dENSGJlf2ENovbEUgTse86jVYj33aZT7T2xQSrdk3jWGq
iAxKrWc/moJ8PywjCP53PGMCLGkj8It9xO7wcMNN/pTQGCcQuQo7C4/ZThS74944
iSCR9IyX3Yup1Ggae5oXRhK/nyTahoLJHcUqI6Vez00QXgf7Cu3EUcKSg0qKdpfp
-----END CERTIFICATE-----
