Certificate:
    Data:
        Version: 3 (0x2)
        Serial Number:
            23:2e:5e:28:53:29:56:1e:a4:49:d1:e6:b2:a4:85:cf
        Signature Algorithm: sha256WithRSAEncryption
        Issuer: CN=team311-net
        Validity
            Not Before: Nov  4 11:34:15 2023 GMT
            Not After : Oct 19 11:34:15 2026 GMT
        Subject: CN=team311-client
        Subject Public Key Info:
            Public Key Algorithm: rsaEncryption
                Public-Key: (2048 bit)
                Modulus:
                    00:ce:8f:49:ec:f1:e1:77:94:3c:ba:a1:bd:be:d3:
                    05:eb:a6:6e:3d:f0:b3:a9:51:78:f7:05:14:89:86:
                    d0:39:68:cb:90:81:ef:5c:f0:ca:06:8b:13:f6:7a:
                    59:0a:c3:fc:92:45:4c:c4:ec:01:3b:42:92:6f:e1:
                    07:2d:64:8d:59:66:54:70:ad:ba:75:5e:d5:3c:22:
                    09:91:9a:e8:af:dc:19:63:8e:c1:d8:e2:3f:7c:1e:
                    6f:ac:e6:ef:e7:a2:90:c7:49:d9:04:fe:d9:12:a3:
                    27:fe:02:3d:bb:eb:45:07:90:ad:95:00:e7:1f:5d:
                    30:d6:1a:91:f0:3c:76:e6:96:7a:02:71:0a:4c:7a:
                    c2:6d:fb:29:ee:01:b3:15:4d:24:08:6c:bf:f2:36:
                    51:b3:af:4e:68:01:63:0f:a2:74:5e:a7:ee:f4:23:
                    68:d7:4e:12:dc:f1:56:eb:d7:9b:15:2f:bc:90:56:
                    4a:59:cd:bd:11:9c:7f:24:0b:ee:84:20:68:6d:ff:
                    3c:17:be:51:10:64:60:3d:8c:da:60:d4:77:ea:7c:
                    11:63:3e:6c:4b:66:ac:16:c9:e0:88:ec:ca:85:4c:
                    66:b8:33:69:9b:a8:ff:b6:fd:ae:e6:d8:ef:59:76:
                    dc:bb:36:1a:fe:bc:62:6f:95:5f:36:70:31:f1:dd:
                    7c:77
                Exponent: 65537 (0x10001)
        X509v3 extensions:
            X509v3 Basic Constraints: 
                CA:FALSE
            X509v3 Subject Key Identifier: 
                B2:5B:C2:B3:CC:F0:2C:71:5A:49:09:E1:CD:8F:62:B2:3E:1A:2B:FB
            X509v3 Authority Key Identifier: 
                keyid:22:56:C1:BA:E0:16:F7:BA:02:46:ED:57:5F:B4:08:9C:DA:5E:3A:2D
                DirName:/CN=team311-net
                serial:17:66:60:A0:BE:EE:75:5D:B9:9E:E9:FB:0E:EB:A7:57:C2:B4:4C
            X509v3 Extended Key Usage: 
                TLS Web Client Authentication
            X509v3 Key Usage: 
                Digital Signature
    Signature Algorithm: sha256WithRSAEncryption
    Signature Value:
        0b:ce:4e:2d:87:0e:29:de:e6:69:bf:ce:d0:30:85:28:02:e2:
        9d:f3:bf:c5:cb:4c:bc:be:31:46:69:76:b8:d7:86:26:b4:40:
        c4:34:a8:ba:2a:94:ea:82:3c:a3:36:4b:44:02:f3:5c:8c:20:
        61:5a:67:4c:2d:96:e0:68:a1:fb:6d:1e:7c:c7:d0:eb:db:0a:
        11:96:7f:83:e3:2b:ad:c3:3d:03:4a:38:44:fa:2e:41:42:90:
        a2:c2:6b:c5:68:5c:1a:73:14:4d:13:6b:72:79:78:01:f0:65:
        02:e4:b6:24:dd:6c:6a:64:0b:1e:68:46:f1:c8:44:8e:ef:d8:
        ea:f0:b5:c7:d9:e1:0d:05:fa:ea:9d:e9:85:ed:6f:fb:f9:df:
        48:e4:1d:a6:4e:5c:ee:0e:65:9e:8e:d6:8d:0f:a3:0b:ed:2a:
        41:cd:32:d2:d0:92:55:e8:cc:e4:43:db:7a:2e:a7:f6:53:9e:
        5e:ce:72:07:af:90:dc:81:68:82:e5:fe:0b:bd:13:91:a3:ae:
        a1:ac:79:91:91:d1:8c:eb:af:0b:f9:37:23:72:77:d8:64:d8:
        3b:21:6f:0f:6e:18:94:58:de:b7:8c:35:16:58:4f:03:33:72:
        86:1b:45:7e:bf:55:a9:e3:cb:0e:4e:15:0b:43:94:f8:b0:be:
        76:b6:fd:8f
-----BEGIN CERTIFICATE-----
MIIDWzCCAkOgAwIBAgIQIy5eKFMpVh6kSdHmsqSFzzANBgkqhkiG9w0BAQsFADAW
MRQwEgYDVQQDDAt0ZWFtMzExLW5ldDAeFw0yMzExMDQxMTM0MTVaFw0yNjEwMTkx
MTM0MTVaMBkxFzAVBgNVBAMMDnRlYW0zMTEtY2xpZW50MIIBIjANBgkqhkiG9w0B
AQEFAAOCAQ8AMIIBCgKCAQEAzo9J7PHhd5Q8uqG9vtMF66ZuPfCzqVF49wUUiYbQ
OWjLkIHvXPDKBosT9npZCsP8kkVMxOwBO0KSb+EHLWSNWWZUcK26dV7VPCIJkZro
r9wZY47B2OI/fB5vrObv56KQx0nZBP7ZEqMn/gI9u+tFB5CtlQDnH10w1hqR8Dx2
5pZ6AnEKTHrCbfsp7gGzFU0kCGy/8jZRs69OaAFjD6J0Xqfu9CNo104S3PFW69eb
FS+8kFZKWc29EZx/JAvuhCBobf88F75REGRgPYzaYNR36nwRYz5sS2asFsngiOzK
hUxmuDNpm6j/tv2u5tjvWXbcuzYa/rxib5VfNnAx8d18dwIDAQABo4GhMIGeMAkG
A1UdEwQCMAAwHQYDVR0OBBYEFLJbwrPM8CxxWkkJ4c2PYrI+Giv7MFAGA1UdIwRJ
MEeAFCJWwbrgFve6AkbtV1+0CJzaXjotoRqkGDAWMRQwEgYDVQQDDAt0ZWFtMzEx
LW5ldIITF2ZgoL7udV25nun7DuunV8K0TDATBgNVHSUEDDAKBggrBgEFBQcDAjAL
BgNVHQ8EBAMCB4AwDQYJKoZIhvcNAQELBQADggEBAAvOTi2HDine5mm/ztAwhSgC
4p3zv8XLTLy+MUZpdrjXhia0QMQ0qLoqlOqCPKM2S0QC81yMIGFaZ0wtluBooftt
HnzH0OvbChGWf4PjK63DPQNKOET6LkFCkKLCa8VoXBpzFE0Ta3J5eAHwZQLktiTd
bGpkCx5oRvHIRI7v2OrwtcfZ4Q0F+uqd6YXtb/v530jkHaZOXO4OZZ6O1o0Powvt
KkHNMtLQklXozORD23oup/ZTnl7OcgevkNyBaILl/gu9E5GjrqGseZGR0Yzrrwv5
NyNyd9hk2Dshbw9uGJRY3reMNRZYTwMzcoYbRX6/Vanjyw5OFQtDlPiwvna2/Y8=
-----END CERTIFICATE-----
