Certificate:
    Data:
        Version: 3 (0x2)
        Serial Number:
            25:b8:57:99:e4:68:d4:76:0e:55:28:7b:bb:20:b3:a9
        Signature Algorithm: sha256WithRSAEncryption
        Issuer: CN=team311-net
        Validity
            Not Before: Nov  4 11:34:15 2023 GMT
            Not After : Oct 19 11:34:15 2026 GMT
        Subject: CN=team311-server
        Subject Public Key Info:
            Public Key Algorithm: rsaEncryption
                Public-Key: (2048 bit)
                Modulus:
                    00:dc:3a:82:13:36:85:e9:8a:07:46:da:f2:38:56:
                    29:5f:47:35:66:bd:43:bb:6b:9c:b9:0b:be:47:d4:
                    a3:a9:cf:df:0c:81:ee:ff:87:d7:03:1b:40:b8:68:
                    23:dc:f9:27:e6:df:4e:96:ab:88:44:89:df:f9:bb:
                    23:19:c3:5b:44:1d:8e:17:08:a2:97:3a:c6:6e:9d:
                    7d:c3:1e:ec:40:bd:22:ff:d4:47:2e:18:77:6c:6e:
                    1d:b6:79:c3:95:47:e9:86:0e:40:cd:bb:13:91:d0:
                    47:5a:46:a0:6d:b5:6d:ce:1a:ad:02:aa:be:d9:05:
                    14:c6:12:40:7a:c4:eb:63:0d:d3:4b:ec:db:3c:3a:
                    ee:e9:e0:b8:13:71:66:d6:90:84:44:95:03:48:07:
                    e6:de:47:70:39:1d:9d:d6:75:de:93:65:25:1f:1a:
                    03:ee:5e:bb:4e:ce:0d:23:10:ab:92:09:bf:7a:8a:
                    4b:52:ef:01:7a:61:c6:1f:94:a7:ca:ec:db:55:11:
                    05:ad:17:11:4c:4a:cd:a8:32:ce:2c:9a:fb:e8:ed:
                    d5:27:0e:f7:33:7b:e7:5b:1c:57:89:89:97:d7:39:
                    71:95:e8:45:72:76:59:a8:67:e4:e8:a2:98:8d:05:
                    28:d5:17:c3:11:13:b4:e0:e4:68:af:ed:b4:99:03:
                    cf:b7
                Exponent: 65537 (0x10001)
        X509v3 extensions:
            X509v3 Basic Constraints: 
                CA:FALSE
            X509v3 Subject Key Identifier: 
                95:1D:97:86:4B:AB:61:61:04:CB:37:52:80:9E:81:F9:98:1D:83:7F
            X509v3 Authority Key Identifier: 
                keyid:22:56:C1:BA:E0:16:F7:BA:02:46:ED:57:5F:B4:08:9C:DA:5E:3A:2D
                DirName:/CN=team311-net
                serial:17:66:60:A0:BE:EE:75:5D:B9:9E:E9:FB:0E:EB:A7:57:C2:B4:4C
            X509v3 Extended Key Usage: 
                TLS Web Server Authentication
            X509v3 Key Usage: 
                Digital Signature, Key Encipherment
            X509v3 Subject Alternative Name: 
                DNS:team311-server
    Signature Algorithm: sha256WithRSAEncryption
    Signature Value:
        24:14:25:87:ba:54:3f:b4:31:2e:59:82:c3:6e:12:f3:ce:e2:
        5b:4f:98:be:fc:14:60:ec:2f:80:07:a4:0d:fc:0e:0b:fb:c8:
        3f:6e:9a:ff:45:bc:68:18:16:3b:1e:06:cd:d4:e0:ee:9f:a9:
        bc:d0:d7:0f:f6:46:0c:5e:9c:10:07:a7:74:53:aa:d8:1c:62:
        5a:86:bb:87:a4:ed:37:d9:dd:a8:82:f7:e9:c1:be:5f:56:23:
        60:7a:fe:a6:13:ef:bb:64:3a:88:c8:85:9f:95:29:25:23:f8:
        93:23:49:04:24:1e:aa:fd:e5:e7:6c:3c:1c:55:9c:4b:06:66:
        59:f6:db:27:43:96:1e:22:f5:70:0e:90:ff:0e:f8:fd:27:63:
        6c:2a:a3:7c:63:bf:f9:b1:86:d4:5b:16:52:e2:dc:36:1f:f9:
        ed:dc:fd:cc:6a:e3:3b:80:46:e1:45:7c:41:9d:26:a1:eb:83:
        05:e2:4b:b5:cc:91:f7:2f:73:d3:6b:62:10:18:a6:fd:9d:87:
        6a:45:69:62:b6:29:52:37:88:3c:17:83:b9:73:01:c1:75:3e:
        ff:52:96:a7:4b:3b:d9:37:63:9c:21:1a:57:17:da:25:7b:42:
        cb:51:8c:0f:83:a1:fd:3f:0c:d3:3f:b0:84:2a:c7:15:30:f9:
        62:64:84:32
-----BEGIN CERTIFICATE-----
MIIDdjCCAl6gAwIBAgIQJbhXmeRo1HYOVSh7uyCzqTANBgkqhkiG9w0BAQsFADAW
MRQwEgYDVQQDDAt0ZWFtMzExLW5ldDAeFw0yMzExMDQxMTM0MTVaFw0yNjEwMTkx
MTM0MTVaMBkxFzAVBgNVBAMMDnRlYW0zMTEtc2VydmVyMIIBIjANBgkqhkiG9w0B
AQEFAAOCAQ8AMIIBCgKCAQEA3DqCEzaF6YoHRtryOFYpX0c1Zr1Du2ucuQu+R9Sj
qc/fDIHu/4fXAxtAuGgj3Pkn5t9OlquIRInf+bsjGcNbRB2OFwiilzrGbp19wx7s
QL0i/9RHLhh3bG4dtnnDlUfphg5AzbsTkdBHWkagbbVtzhqtAqq+2QUUxhJAesTr
Yw3TS+zbPDru6eC4E3Fm1pCERJUDSAfm3kdwOR2d1nXek2UlHxoD7l67Ts4NIxCr
kgm/eopLUu8BemHGH5SnyuzbVREFrRcRTErNqDLOLJr76O3VJw73M3vnWxxXiYmX
1zlxlehFcnZZqGfk6KKYjQUo1RfDERO04ORor+20mQPPtwIDAQABo4G8MIG5MAkG
A1UdEwQCMAAwHQYDVR0OBBYEFJUdl4ZLq2FhBMs3UoCegfmYHYN/MFAGA1UdIwRJ
MEeAFCJWwbrgFve6AkbtV1+0CJzaXjotoRqkGDAWMRQwEgYDVQQDDAt0ZWFtMzEx
LW5ldIITF2ZgoL7udV25nun7DuunV8K0TDATBgNVHSUEDDAKBggrBgEFBQcDATAL
BgNVHQ8EBAMCBaAwGQYDVR0RBBIwEIIOdGVhbTMxMS1zZXJ2ZXIwDQYJKoZIhvcN
AQELBQADggEBACQUJYe6VD+0MS5ZgsNuEvPO4ltPmL78FGDsL4AHpA38Dgv7yD9u
mv9FvGgYFjseBs3U4O6fqbzQ1w/2RgxenBAHp3RTqtgcYlqGu4ek7TfZ3aiC9+nB
vl9WI2B6/qYT77tkOojIhZ+VKSUj+JMjSQQkHqr95edsPBxVnEsGZln22ydDlh4i
9XAOkP8O+P0nY2wqo3xjv/mxhtRbFlLi3DYf+e3c/cxq4zuARuFFfEGdJqHrgwXi
S7XMkfcvc9NrYhAYpv2dh2pFaWK2KVI3iDwXg7lzAcF1Pv9SlqdLO9k3Y5whGlcX
2iV7QstRjA+Dof0/DNM/sIQqxxUw+WJkhDI=
-----END CERTIFICATE-----
