Certificate:
    Data:
        Version: 3 (0x2)
        Serial Number:
            2d:11:c0:9f:a4:3e:14:46:19:79:9f:93:e2:b4:82:cb
        Signature Algorithm: sha256WithRSAEncryption
        Issuer: CN=team311-net
        Validity
            Not Before: Nov  4 10:46:20 2023 GMT
            Not After : Oct 19 10:46:20 2026 GMT
        Subject: CN=team311-server
        Subject Public Key Info:
            Public Key Algorithm: rsaEncryption
                Public-Key: (2048 bit)
                Modulus:
                    00:b5:50:50:ce:c5:71:be:1d:7a:9c:31:c1:8e:ec:
                    49:00:c2:34:cb:a0:51:60:e5:e9:07:c3:b8:d0:75:
                    c2:b4:f6:60:cd:3e:b8:0d:b2:12:c4:32:7d:bd:80:
                    07:da:2e:af:0c:5c:34:29:af:42:f1:9e:4f:4c:cd:
                    be:9e:5a:26:13:c8:1e:a6:0f:bf:3a:44:85:ef:4a:
                    1e:24:53:77:b3:ba:c5:bb:7e:57:c4:8e:e4:81:08:
                    8a:78:31:8c:b8:76:5e:34:b3:26:0f:26:6f:dd:f0:
                    ba:8f:c4:aa:14:b1:50:ec:78:16:6e:74:4e:e0:90:
                    05:76:c8:74:6d:8d:36:92:04:51:92:9b:c5:dd:44:
                    73:01:a3:78:9c:46:95:21:eb:39:5d:50:d7:2e:c3:
                    c5:f8:37:30:42:ac:2b:02:62:e9:0e:6c:56:74:89:
                    c4:84:41:44:af:d4:f4:ba:e0:cc:cb:89:3b:91:da:
                    12:0b:d5:f0:19:33:f1:4c:70:ab:6f:8c:40:5f:df:
                    6d:ad:4c:a0:98:f3:75:f6:6b:7e:ab:41:7c:b2:ad:
                    07:98:7d:bf:ac:36:6e:58:86:17:6c:37:22:f4:e6:
                    90:c8:f7:6e:91:f5:e8:dd:7e:b8:1e:e7:05:a1:b1:
                    ba:dd:b1:80:a5:19:0e:ce:52:18:bb:ba:cc:f2:fd:
                    2c:21
                Exponent: 65537 (0x10001)
        X509v3 extensions:
            X509v3 Basic Constraints: 
                CA:FALSE
            X509v3 Subject Key Identifier: 
                9A:FE:B1:C7:FD:B8:2C:9F:1E:4D:4C:65:E9:2E:E0:50:BF:E8:26:02
            X509v3 Authority Key Identifier: 
                keyid:E5:DD:77:93:72:2C:71:2E:10:B5:93:8A:28:ED:3A:D8:F5:30:C6:ED
                DirName:/CN=team311-net
                serial:1D:03:AC:FA:DD:ED:6E:AB:6C:2A:DE:92:36:95:4C:A9:4D:F3:73:9D
            X509v3 Extended Key Usage: 
                TLS Web Server Authentication
            X509v3 Key Usage: 
                Digital Signature, Key Encipherment
            X509v3 Subject Alternative Name: 
                DNS:team311-server
    Signature Algorithm: sha256WithRSAEncryption
    Signature Value:
        83:b8:b6:57:c3:08:44:4d:62:66:83:8e:be:b0:a0:64:28:46:
        07:74:ea:56:77:ab:4b:e9:9b:bd:ad:f1:ce:f6:7f:18:55:f9:
        18:7f:ba:ea:c6:84:11:48:e1:2d:1c:e1:99:94:47:4b:01:5a:
        f7:5e:aa:5a:68:ca:25:d4:40:ef:42:b3:86:d3:af:81:02:5d:
        80:54:0b:70:ff:86:a4:19:e6:e4:b2:ab:e3:21:c2:67:d2:d8:
        ad:cc:56:7d:c1:81:eb:c1:b3:e0:b8:91:45:08:a5:68:26:b9:
        77:ec:a7:e4:8a:be:39:e5:0b:f0:bb:a6:f7:9f:1f:5d:3b:7a:
        da:20:3b:66:93:5a:b2:79:d5:f8:9f:43:03:04:ae:55:89:4d:
        d0:d0:8b:b7:29:16:c0:cc:94:24:87:d1:d9:18:32:48:3f:da:
        9a:94:5e:9e:62:10:1f:91:4c:06:04:74:63:20:fb:7f:53:c8:
        d6:76:08:35:6c:c6:09:1f:30:75:d0:bb:fd:0b:f4:2f:cb:dd:
        c9:7b:ea:87:04:09:9b:c9:07:a1:94:dd:90:6d:f5:74:e2:f0:
        54:8e:77:b6:e3:1a:3a:e5:e3:f8:c3:8c:63:47:ae:31:34:88:
        2e:8e:0d:6c:6b:33:71:c8:47:d1:3a:d1:27:71:ab:95:97:da:
        ca:2b:21:ba
-----BEGIN CERTIFICATE-----
MIIDdzCCAl+gAwIBAgIQLRHAn6Q+FEYZeZ+T4rSCyzANBgkqhkiG9w0BAQsFADAW
MRQwEgYDVQQDDAt0ZWFtMzExLW5ldDAeFw0yMzExMDQxMDQ2MjBaFw0yNjEwMTkx
MDQ2MjBaMBkxFzAVBgNVBAMMDnRlYW0zMTEtc2VydmVyMIIBIjANBgkqhkiG9w0B
AQEFAAOCAQ8AMIIBCgKCAQEAtVBQzsVxvh16nDHBjuxJAMI0y6BRYOXpB8O40HXC
tPZgzT64DbISxDJ9vYAH2i6vDFw0Ka9C8Z5PTM2+nlomE8gepg+/OkSF70oeJFN3
s7rFu35XxI7kgQiKeDGMuHZeNLMmDyZv3fC6j8SqFLFQ7HgWbnRO4JAFdsh0bY02
kgRRkpvF3URzAaN4nEaVIes5XVDXLsPF+DcwQqwrAmLpDmxWdInEhEFEr9T0uuDM
y4k7kdoSC9XwGTPxTHCrb4xAX99trUygmPN19mt+q0F8sq0HmH2/rDZuWIYXbDci
9OaQyPdukfXo3X64HucFobG63bGApRkOzlIYu7rM8v0sIQIDAQABo4G9MIG6MAkG
A1UdEwQCMAAwHQYDVR0OBBYEFJr+scf9uCyfHk1MZeku4FC/6CYCMFEGA1UdIwRK
MEiAFOXdd5NyLHEuELWTiijtOtj1MMbtoRqkGDAWMRQwEgYDVQQDDAt0ZWFtMzEx
LW5ldIIUHQOs+t3tbqtsKt6SNpVMqU3zc50wEwYDVR0lBAwwCgYIKwYBBQUHAwEw
CwYDVR0PBAQDAgWgMBkGA1UdEQQSMBCCDnRlYW0zMTEtc2VydmVyMA0GCSqGSIb3
DQEBCwUAA4IBAQCDuLZXwwhETWJmg46+sKBkKEYHdOpWd6tL6Zu9rfHO9n8YVfkY
f7rqxoQRSOEtHOGZlEdLAVr3XqpaaMol1EDvQrOG06+BAl2AVAtw/4akGebksqvj
IcJn0titzFZ9wYHrwbPguJFFCKVoJrl37Kfkir455Qvwu6b3nx9dO3raIDtmk1qy
edX4n0MDBK5ViU3Q0Iu3KRbAzJQkh9HZGDJIP9qalF6eYhAfkUwGBHRjIPt/U8jW
dgg1bMYJHzB10Lv9C/Qvy93Je+qHBAmbyQehlN2QbfV04vBUjne24xo65eP4w4xj
R64xNIgujg1sazNxyEfROtEncauVl9rKKyG6
-----END CERTIFICATE-----
