Certificate:
    Data:
        Version: 3 (0x2)
        Serial Number:
            43:f1:f1:87:5e:7e:10:7a:95:36:71:e0:11:c7:ec:c0
        Signature Algorithm: sha256WithRSAEncryption
        Issuer: CN=team311-net
        Validity
            Not Before: Nov  3 20:44:55 2023 GMT
            Not After : Oct 18 20:44:55 2026 GMT
        Subject: CN=team311-client
        Subject Public Key Info:
            Public Key Algorithm: rsaEncryption
                Public-Key: (2048 bit)
                Modulus:
                    00:de:c1:60:c6:67:f8:1b:6f:ea:18:9c:8d:aa:05:
                    93:ad:61:98:45:9f:aa:ea:0f:0c:9e:7b:8f:65:e1:
                    bd:01:74:9c:09:74:98:d2:7e:a7:3f:8a:ee:b5:25:
                    85:48:c4:a7:1c:7c:69:c6:3f:1e:bf:0d:49:02:e1:
                    84:f5:98:98:ff:e4:c2:aa:22:08:92:c2:03:62:03:
                    e8:a8:47:04:14:d8:8b:99:f7:55:c0:48:35:4f:34:
                    61:dd:f5:aa:ee:21:77:3b:c0:c0:2c:13:c0:3c:25:
                    1a:cf:4d:aa:e8:fc:a9:f3:00:58:f0:46:35:ed:0f:
                    a3:90:56:bb:13:6a:2e:10:bc:7d:72:1c:0f:f9:c0:
                    9c:43:a9:77:b5:f1:26:04:fb:c0:f8:b6:f3:63:23:
                    b7:d6:72:35:c3:c2:f5:0b:76:6b:ee:af:22:6b:ec:
                    bf:36:bc:93:1f:ab:bb:6f:bc:b8:54:0e:09:47:08:
                    d6:54:22:82:f1:21:95:84:90:ad:04:70:49:ce:7a:
                    e7:43:80:07:af:d6:96:a7:ef:fe:25:34:97:1d:e9:
                    e8:2e:05:b0:b9:04:d9:fa:92:e8:2b:65:3f:cf:0e:
                    f1:69:2c:8d:2d:cb:8a:f8:65:fd:ca:1b:da:2d:43:
                    73:0b:85:fa:fc:95:3e:11:4e:8e:b2:bd:8b:64:21:
                    3f:69
                Exponent: 65537 (0x10001)
        X509v3 extensions:
            X509v3 Basic Constraints: 
                CA:FALSE
            X509v3 Subject Key Identifier: 
                B7:0E:2C:90:A7:08:EC:41:A0:00:E7:E6:1D:75:0E:9D:61:65:AA:A1
            X509v3 Authority Key Identifier: 
                keyid:4A:96:E5:59:88:2C:AD:6C:78:3F:B4:0F:4A:6B:C4:F2:25:1B:2D:8A
                DirName:/CN=team311-net
                serial:4E:8B:16:93:8A:6B:2D:27:C3:B5:3A:C4:04:E4:09:B9:B6:DB:24:8D
            X509v3 Extended Key Usage: 
                TLS Web Client Authentication
            X509v3 Key Usage: 
                Digital Signature
    Signature Algorithm: sha256WithRSAEncryption
    Signature Value:
        25:df:42:16:a8:11:0f:84:dc:af:29:c0:e2:c8:d1:91:ba:1a:
        73:7b:0d:f2:41:a1:a6:63:ce:4e:4f:b1:33:a0:93:b4:ea:5f:
        05:19:eb:10:f9:5b:d8:70:d9:b2:21:bc:51:c1:d3:21:af:d0:
        3a:d3:61:d0:25:31:d6:ed:83:3c:53:0c:c3:4e:09:af:e0:14:
        c0:0e:fd:9b:bd:17:6d:4d:2c:c2:0e:ef:e6:90:10:03:d0:66:
        2d:96:b6:7b:41:1e:d2:1e:93:36:90:be:6e:6c:d5:2a:12:a0:
        50:8d:c9:04:d4:43:0c:af:62:20:6a:80:7a:d1:38:e7:fb:5f:
        53:46:c2:7d:71:ae:c5:ed:16:8e:4f:68:06:bf:2c:d8:dd:0a:
        b0:4c:69:7a:6f:b7:c2:71:c0:d5:33:24:36:f1:f6:f8:fd:b1:
        2f:55:82:d5:46:2b:05:cc:11:1e:e9:8c:31:19:8c:f3:ff:c8:
        3b:dd:c4:49:c5:e9:9d:d1:13:ac:dc:df:4d:9f:e2:71:52:48:
        8e:e1:fc:dd:a0:f8:45:cc:8b:d4:b2:00:8d:63:11:96:e8:11:
        22:f8:6d:a4:ef:c7:d7:6f:8a:ad:86:4a:2c:c6:a9:89:94:27:
        a1:7d:6b:3a:af:09:dd:e5:e6:cf:a1:5d:94:14:33:40:83:4f:
        be:9b:66:1a
-----BEGIN CERTIFICATE-----
MIIDXDCCAkSgAwIBAgIQQ/Hxh15+EHqVNnHgEcfswDANBgkqhkiG9w0BAQsFADAW
MRQwEgYDVQQDDAt0ZWFtMzExLW5ldDAeFw0yMzExMDMyMDQ0NTVaFw0yNjEwMTgy
MDQ0NTVaMBkxFzAVBgNVBAMMDnRlYW0zMTEtY2xpZW50MIIBIjANBgkqhkiG9w0B
AQEFAAOCAQ8AMIIBCgKCAQEA3sFgxmf4G2/qGJyNqgWTrWGYRZ+q6g8MnnuPZeG9
AXScCXSY0n6nP4rutSWFSMSnHHxpxj8evw1JAuGE9ZiY/+TCqiIIksIDYgPoqEcE
FNiLmfdVwEg1TzRh3fWq7iF3O8DALBPAPCUaz02q6Pyp8wBY8EY17Q+jkFa7E2ou
ELx9chwP+cCcQ6l3tfEmBPvA+LbzYyO31nI1w8L1C3Zr7q8ia+y/NryTH6u7b7y4
VA4JRwjWVCKC8SGVhJCtBHBJznrnQ4AHr9aWp+/+JTSXHenoLgWwuQTZ+pLoK2U/
zw7xaSyNLcuK+GX9yhvaLUNzC4X6/JU+EU6Osr2LZCE/aQIDAQABo4GiMIGfMAkG
A1UdEwQCMAAwHQYDVR0OBBYEFLcOLJCnCOxBoADn5h11Dp1hZaqhMFEGA1UdIwRK
MEiAFEqW5VmILK1seD+0D0prxPIlGy2KoRqkGDAWMRQwEgYDVQQDDAt0ZWFtMzEx
LW5ldIIUTosWk4prLSfDtTrEBOQJubbbJI0wEwYDVR0lBAwwCgYIKwYBBQUHAwIw
CwYDVR0PBAQDAgeAMA0GCSqGSIb3DQEBCwUAA4IBAQAl30IWqBEPhNyvKcDiyNGR
uhpzew3yQaGmY85OT7EzoJO06l8FGesQ+VvYcNmyIbxRwdMhr9A602HQJTHW7YM8
UwzDTgmv4BTADv2bvRdtTSzCDu/mkBAD0GYtlrZ7QR7SHpM2kL5ubNUqEqBQjckE
1EMMr2IgaoB60Tjn+19TRsJ9ca7F7RaOT2gGvyzY3QqwTGl6b7fCccDVMyQ28fb4
/bEvVYLVRisFzBEe6YwxGYzz/8g73cRJxemd0ROs3N9Nn+JxUkiO4fzdoPhFzIvU
sgCNYxGW6BEi+G2k78fXb4qthkosxqmJlCehfWs6rwnd5ebPoV2UFDNAg0++m2Ya
-----END CERTIFICATE-----
