Certificate:
    Data:
        Version: 3 (0x2)
        Serial Number:
            52:82:de:96:ce:63:e2:ab:b7:63:b8:01:6a:fe:c8:b5
        Signature Algorithm: sha256WithRSAEncryption
        Issuer: CN=team311-net
        Validity
            Not Before: Nov  3 20:44:55 2023 GMT
            Not After : Oct 18 20:44:55 2026 GMT
        Subject: CN=team311-server
        Subject Public Key Info:
            Public Key Algorithm: rsaEncryption
                Public-Key: (2048 bit)
                Modulus:
                    00:c2:be:cc:2f:46:91:b8:14:45:df:c2:27:f4:6b:
                    d9:b2:8c:a1:99:d4:0f:93:b7:8d:57:26:41:91:50:
                    52:02:86:bc:97:a6:ad:aa:29:5c:36:88:d2:04:f6:
                    54:43:de:62:cd:93:15:5b:36:d5:3e:b9:d5:b0:95:
                    69:1f:82:f9:7f:16:f6:2a:ba:57:57:03:1c:08:d8:
                    2f:b7:0f:9e:7a:a7:97:ca:1d:26:9f:81:16:12:86:
                    93:a4:ed:4d:e5:56:99:26:76:87:4b:49:b4:c4:05:
                    7c:62:a2:47:aa:a7:b4:3f:7e:46:22:32:c9:ca:dc:
                    c0:3d:1c:a8:67:99:c8:58:d7:b8:df:bf:37:95:c9:
                    d1:94:60:8e:7c:57:41:33:50:02:24:a5:9d:c4:3a:
                    d9:ca:36:c8:c7:96:ff:82:da:4e:88:6f:2a:51:08:
                    f8:5c:fb:fb:90:d4:5c:56:98:f2:f3:52:83:73:de:
                    7b:04:87:a0:04:0a:b6:1e:40:e6:13:53:f9:15:b3:
                    8c:ed:2c:20:33:fc:47:af:c3:da:63:a3:ae:23:a5:
                    45:e0:f0:8f:00:9d:85:cd:d1:02:29:2f:42:a9:e0:
                    d5:45:02:91:50:73:aa:2c:86:66:70:a7:8f:64:d2:
                    88:e4:3c:68:53:c0:e2:23:4b:78:76:67:0c:e7:d7:
                    05:8b
                Exponent: 65537 (0x10001)
        X509v3 extensions:
            X509v3 Basic Constraints: 
                CA:FALSE
            X509v3 Subject Key Identifier: 
                7C:1A:B2:BE:25:24:67:30:81:7E:A6:39:0F:53:E1:95:48:A6:82:63
            X509v3 Authority Key Identifier: 
                keyid:4A:96:E5:59:88:2C:AD:6C:78:3F:B4:0F:4A:6B:C4:F2:25:1B:2D:8A
                DirName:/CN=team311-net
                serial:4E:8B:16:93:8A:6B:2D:27:C3:B5:3A:C4:04:E4:09:B9:B6:DB:24:8D
            X509v3 Extended Key Usage: 
                TLS Web Server Authentication
            X509v3 Key Usage: 
                Digital Signature, Key Encipherment
            X509v3 Subject Alternative Name: 
                DNS:team311-server
    Signature Algorithm: sha256WithRSAEncryption
    Signature Value:
        68:7d:af:cb:14:42:0a:55:36:3e:99:de:f8:c0:15:64:d2:21:
        3b:76:75:af:1a:f8:bd:3c:bd:aa:8b:ea:0c:0a:97:d1:49:83:
        e7:f6:1c:1f:b8:9d:49:a7:04:61:9e:d7:31:31:2d:c5:98:98:
        75:b6:36:11:b0:34:07:18:e6:53:02:0e:eb:0b:30:92:93:ab:
        d6:4a:c2:1c:73:75:21:77:20:1f:c5:0f:79:42:33:8f:92:fa:
        f6:5f:75:ec:54:74:33:4b:04:fb:65:1e:ea:2f:e9:fa:5a:57:
        3e:03:7c:ad:48:a8:f3:d5:1c:ee:0d:bb:87:30:46:df:7a:46:
        75:e8:ed:3c:09:55:8c:94:98:de:6e:d5:01:74:65:f8:9a:03:
        c1:19:5a:05:f1:41:d3:4f:fd:a3:ce:d3:cc:02:d7:25:7b:1e:
        98:55:81:07:3c:6a:e7:a1:37:76:67:ef:4a:23:b3:62:84:b8:
        1a:8e:c4:35:73:b5:93:5d:53:03:73:fe:95:5c:82:66:9a:d9:
        68:af:23:8b:63:6e:65:df:d3:aa:80:cf:07:a0:62:74:4f:d7:
        d2:91:b2:b9:d0:1a:9b:c8:a2:88:59:2d:db:c4:ee:d1:02:14:
        d1:2a:18:c1:f0:07:f6:0a:18:44:b8:79:76:ad:84:7e:46:b2:
        0f:e7:3e:53
-----BEGIN CERTIFICATE-----
MIIDdzCCAl+gAwIBAgIQUoLels5j4qu3Y7gBav7ItTANBgkqhkiG9w0BAQsFADAW
MRQwEgYDVQQDDAt0ZWFtMzExLW5ldDAeFw0yMzExMDMyMDQ0NTVaFw0yNjEwMTgy
MDQ0NTVaMBkxFzAVBgNVBAMMDnRlYW0zMTEtc2VydmVyMIIBIjANBgkqhkiG9w0B
AQEFAAOCAQ8AMIIBCgKCAQEAwr7ML0aRuBRF38In9GvZsoyhmdQPk7eNVyZBkVBS
Aoa8l6atqilcNojSBPZUQ95izZMVWzbVPrnVsJVpH4L5fxb2KrpXVwMcCNgvtw+e
eqeXyh0mn4EWEoaTpO1N5VaZJnaHS0m0xAV8YqJHqqe0P35GIjLJytzAPRyoZ5nI
WNe43783lcnRlGCOfFdBM1ACJKWdxDrZyjbIx5b/gtpOiG8qUQj4XPv7kNRcVpjy
81KDc957BIegBAq2HkDmE1P5FbOM7SwgM/xHr8PaY6OuI6VF4PCPAJ2FzdECKS9C
qeDVRQKRUHOqLIZmcKePZNKI5DxoU8DiI0t4dmcM59cFiwIDAQABo4G9MIG6MAkG
A1UdEwQCMAAwHQYDVR0OBBYEFHwasr4lJGcwgX6mOQ9T4ZVIpoJjMFEGA1UdIwRK
MEiAFEqW5VmILK1seD+0D0prxPIlGy2KoRqkGDAWMRQwEgYDVQQDDAt0ZWFtMzEx
LW5ldIIUTosWk4prLSfDtTrEBOQJubbbJI0wEwYDVR0lBAwwCgYIKwYBBQUHAwEw
CwYDVR0PBAQDAgWgMBkGA1UdEQQSMBCCDnRlYW0zMTEtc2VydmVyMA0GCSqGSIb3
DQEBCwUAA4IBAQBofa/LFEIKVTY+md74wBVk0iE7dnWvGvi9PL2qi+oMCpfRSYPn
9hwfuJ1JpwRhntcxMS3FmJh1tjYRsDQHGOZTAg7rCzCSk6vWSsIcc3UhdyAfxQ95
QjOPkvr2X3XsVHQzSwT7ZR7qL+n6Wlc+A3ytSKjz1RzuDbuHMEbfekZ16O08CVWM
lJjebtUBdGX4mgPBGVoF8UHTT/2jztPMAtclex6YVYEHPGrnoTd2Z+9KI7NihLga
jsQ1c7WTXVMDc/6VXIJmmtloryOLY25l39OqgM8HoGJ0T9fSkbK50BqbyKKIWS3b
xO7RAhTRKhjB8Af2ChhEuHl2rYR+RrIP5z5T
-----END CERTIFICATE-----
