Certificate:
    Data:
        Version: 3 (0x2)
        Serial Number:
            81:52:8d:da:90:28:45:0a:ac:5b:c8:77:48:c6:62:43
        Signature Algorithm: sha256WithRSAEncryption
        Issuer: CN=team42-net
        Validity
            Not Before: Nov  3 20:39:59 2023 GMT
            Not After : Oct 18 20:39:59 2026 GMT
        Subject: CN=team42-server
        Subject Public Key Info:
            Public Key Algorithm: rsaEncryption
                Public-Key: (2048 bit)
                Modulus:
                    00:b0:f1:a3:e4:dd:ef:0e:48:03:58:73:c4:15:3f:
                    6d:8d:1e:5b:72:87:2f:3c:9e:8e:e2:23:a8:99:08:
                    58:14:27:01:64:6c:b8:9e:f7:0f:90:93:78:b0:45:
                    b1:58:27:b9:1e:37:69:28:54:2c:c2:4f:43:46:f7:
                    de:c5:d7:35:c3:18:59:33:40:20:60:65:ab:83:a4:
                    54:57:cf:a0:82:8b:54:bf:1b:5c:32:9d:56:96:fc:
                    ee:d7:a3:e0:28:a9:3f:4e:f0:29:46:22:1d:79:0e:
                    f2:0b:9e:a2:99:e0:e1:ed:43:5b:d8:9a:1c:f3:63:
                    7a:03:91:6b:87:c6:67:f1:9f:98:ae:76:d8:1d:fc:
                    f0:1e:f9:32:5c:2d:97:bc:5e:c6:fc:e6:4e:8a:f4:
                    a3:94:b7:71:7d:94:a3:aa:7f:2b:64:f1:99:e7:26:
                    66:52:52:ba:92:bf:54:08:02:e1:0a:4e:1b:90:7a:
                    02:76:5a:6c:1a:1b:74:40:57:2a:30:70:d4:22:6c:
                    04:34:4b:d7:3b:04:7d:f6:a9:d2:61:8e:1e:ec:0f:
                    0e:78:68:95:19:f0:61:17:5b:1a:dd:aa:f5:bd:cb:
                    92:04:51:bf:36:44:a6:f2:56:8c:dc:e4:f0:40:55:
                    b0:72:e0:30:ad:cf:3a:f3:af:7c:79:7c:3d:37:76:
                    aa:0f
                Exponent: 65537 (0x10001)
        X509v3 extensions:
            X509v3 Basic Constraints: 
                CA:FALSE
            X509v3 Subject Key Identifier: 
                19:98:37:2F:35:61:9D:C8:98:36:1F:6B:3A:92:6E:E7:2D:3D:09:07
            X509v3 Authority Key Identifier: 
                keyid:B3:2C:D5:4E:09:F8:51:30:EF:D9:37:2C:5E:53:8C:F0:44:D0:66:23
                DirName:/CN=team42-net
                serial:39:2E:0E:50:A8:4F:D4:22:AF:A0:E7:4B:F6:28:5E:57:B4:BB:34:74
            X509v3 Extended Key Usage: 
                TLS Web Server Authentication
            X509v3 Key Usage: 
                Digital Signature, Key Encipherment
            X509v3 Subject Alternative Name: 
                DNS:team42-server
    Signature Algorithm: sha256WithRSAEncryption
    Signature Value:
        7e:48:ba:94:11:91:a6:ba:4c:11:f0:36:86:c2:5a:8b:21:7f:
        e7:eb:a0:03:b5:91:b9:b8:59:63:d4:f3:59:62:b7:cb:33:a6:
        08:5b:1e:34:e9:e6:a1:ee:38:aa:49:d0:ae:6c:c9:7d:80:66:
        82:a0:59:d7:38:f2:cd:af:57:e5:5a:b8:0b:19:79:ec:c5:ee:
        1e:5e:b8:60:6c:65:3d:0e:24:64:73:f4:8e:3e:26:10:a8:66:
        9d:40:2a:36:e4:7c:38:11:3d:dc:d6:d5:21:a3:d0:a1:fd:d9:
        b4:f5:f2:bd:02:b2:2b:d0:8f:ba:92:82:73:5b:21:99:3d:98:
        10:b2:e8:47:74:e0:3a:07:3f:81:77:99:20:6c:79:eb:81:ff:
        fb:75:3e:01:9d:23:b8:08:ca:64:a1:09:ec:42:12:72:9f:61:
        d7:fc:da:2f:f6:a0:da:65:af:c0:39:88:59:98:db:67:0a:c6:
        2e:58:e9:97:84:f6:d1:b4:ea:c1:a0:a7:23:09:1c:0d:e6:eb:
        49:2c:21:6b:27:dc:67:f7:d1:76:f4:f1:4c:da:6c:a3:b1:e8:
        31:10:9f:14:bd:77:e7:96:09:64:d6:e2:89:41:7c:e7:b5:53:
        e4:ae:c8:72:aa:19:43:d0:17:e0:eb:4f:be:25:2a:70:63:1e:
        17:bb:be:0d
-----BEGIN CERTIFICATE-----
MIIDdDCCAlygAwIBAgIRAIFSjdqQKEUKrFvId0jGYkMwDQYJKoZIhvcNAQELBQAw
FTETMBEGA1UEAwwKdGVhbTQyLW5ldDAeFw0yMzExMDMyMDM5NTlaFw0yNjEwMTgy
MDM5NTlaMBgxFjAUBgNVBAMMDXRlYW00Mi1zZXJ2ZXIwggEiMA0GCSqGSIb3DQEB
AQUAA4IBDwAwggEKAoIBAQCw8aPk3e8OSANYc8QVP22NHltyhy88no7iI6iZCFgU
JwFkbLie9w+Qk3iwRbFYJ7keN2koVCzCT0NG997F1zXDGFkzQCBgZauDpFRXz6CC
i1S/G1wynVaW/O7Xo+AoqT9O8ClGIh15DvILnqKZ4OHtQ1vYmhzzY3oDkWuHxmfx
n5iudtgd/PAe+TJcLZe8Xsb85k6K9KOUt3F9lKOqfytk8ZnnJmZSUrqSv1QIAuEK
ThuQegJ2WmwaG3RAVyowcNQibAQ0S9c7BH32qdJhjh7sDw54aJUZ8GEXWxrdqvW9
y5IEUb82RKbyVozc5PBAVbBy4DCtzzrzr3x5fD03dqoPAgMBAAGjgbswgbgwCQYD
VR0TBAIwADAdBgNVHQ4EFgQUGZg3LzVhnciYNh9rOpJu5y09CQcwUAYDVR0jBEkw
R4AUsyzVTgn4UTDv2TcsXlOM8ETQZiOhGaQXMBUxEzARBgNVBAMMCnRlYW00Mi1u
ZXSCFDkuDlCoT9Qir6DnS/YoXle0uzR0MBMGA1UdJQQMMAoGCCsGAQUFBwMBMAsG
A1UdDwQEAwIFoDAYBgNVHREEETAPgg10ZWFtNDItc2VydmVyMA0GCSqGSIb3DQEB
CwUAA4IBAQB+SLqUEZGmukwR8DaGwlqLIX/n66ADtZG5uFlj1PNZYrfLM6YIWx40
6eah7jiqSdCubMl9gGaCoFnXOPLNr1flWrgLGXnsxe4eXrhgbGU9DiRkc/SOPiYQ
qGadQCo25Hw4ET3c1tUho9Ch/dm09fK9ArIr0I+6koJzWyGZPZgQsuhHdOA6Bz+B
d5kgbHnrgf/7dT4BnSO4CMpkoQnsQhJyn2HX/Nov9qDaZa/AOYhZmNtnCsYuWOmX
hPbRtOrBoKcjCRwN5utJLCFrJ9xn99F29PFM2myjsegxEJ8UvXfnlglk1uKJQXzn
tVPkrshyqhlD0Bfg60++JSpwYx4Xu74N
-----END CERTIFICATE-----
