Certificate:
    Data:
        Version: 3 (0x2)
        Serial Number:
            45:cf:52:df:e5:2d:1c:c1:f2:b2:18:f7:f5:49:3b:ed
        Signature Algorithm: sha256WithRSAEncryption
        Issuer: CN=team128-net
        Validity
            Not Before: Nov  4 10:42:53 2023 GMT
            Not After : Oct 19 10:42:53 2026 GMT
        Subject: CN=team128-server
        Subject Public Key Info:
            Public Key Algorithm: rsaEncryption
                Public-Key: (2048 bit)
                Modulus:
                    00:b6:67:d2:8a:75:b7:7d:cc:25:5b:ae:da:4f:1a:
                    bb:b9:5d:e0:e1:72:64:2a:a3:3f:da:52:63:c7:f4:
                    34:6e:6e:e4:2f:4e:be:a2:ec:d7:2c:da:3d:e4:92:
                    bb:f4:94:0a:c6:8a:ee:e0:00:22:b9:37:39:0e:19:
                    f2:ed:69:ea:d2:7c:76:7c:7b:7c:94:cc:99:ee:8a:
                    72:ed:e3:0a:84:b2:f6:33:4f:6e:74:fd:6b:1d:94:
                    ed:a6:b5:9e:70:79:36:83:0b:ca:fb:3b:a7:b4:df:
                    d3:cf:aa:d6:90:29:ce:16:94:ac:c8:45:6e:a5:4a:
                    86:5b:46:73:1f:42:6d:39:d2:06:e4:68:8a:09:ed:
                    f6:e9:ad:8a:02:a6:f7:44:20:c5:eb:82:a4:d2:3f:
                    98:7f:72:85:6a:0d:d1:8d:1b:65:0b:23:32:c5:b9:
                    d0:86:19:88:c4:a4:87:72:02:f1:3f:12:9f:e7:eb:
                    37:cc:3f:ba:8e:06:03:b8:42:30:82:19:77:af:cf:
                    74:08:76:20:ae:c9:85:c9:e0:3f:d0:74:5f:a0:eb:
                    09:0f:99:2a:07:18:32:c5:57:95:af:38:1c:63:14:
                    0a:19:6c:5e:f5:65:c3:0c:72:66:20:38:8d:c8:06:
                    5e:83:60:09:93:c2:48:c9:4d:ba:76:4b:ad:f0:0a:
                    c5:9d
                Exponent: 65537 (0x10001)
        X509v3 extensions:
            X509v3 Basic Constraints: 
                CA:FALSE
            X509v3 Subject Key Identifier: 
                C7:49:94:93:6C:81:E9:0A:25:97:19:22:8E:B6:1E:CC:6E:64:DA:8B
            X509v3 Authority Key Identifier: 
                keyid:3C:CC:FA:3A:9F:34:E3:4B:A0:1E:E2:0A:B3:DD:2A:47:D2:68:03:A4
                DirName:/CN=team128-net
                serial:44:34:23:9F:06:C8:A4:5C:52:46:19:F7:AE:90:AD:E1:E0:56:E8:54
            X509v3 Extended Key Usage: 
                TLS Web Server Authentication
            X509v3 Key Usage: 
                Digital Signature, Key Encipherment
            X509v3 Subject Alternative Name: 
                DNS:team128-server
    Signature Algorithm: sha256WithRSAEncryption
    Signature Value:
        48:aa:10:9d:2f:ef:4f:da:9a:9f:37:a6:32:51:e8:4c:58:45:
        db:df:e5:d9:07:26:25:3d:05:14:76:6d:f9:ca:97:3e:dd:2d:
        bd:59:8e:31:71:92:77:6a:7d:43:16:a1:96:6f:06:9a:fe:91:
        0a:c4:20:f7:a3:f8:bb:ff:dc:8a:6c:8f:20:51:57:4e:b2:7b:
        ae:2f:7b:8d:e5:23:42:08:e0:90:85:18:68:e2:d1:bb:18:18:
        b8:6e:92:87:68:bb:95:81:84:58:ce:52:27:ec:ad:49:df:e8:
        85:8f:0b:44:86:07:25:c0:70:1f:22:c7:f9:19:20:72:e1:4f:
        64:f4:00:5c:b1:70:d1:bf:70:00:98:f8:89:3a:b5:81:6f:fc:
        27:5f:4b:17:f3:89:b7:c9:da:fd:0b:f5:5a:e0:d1:cb:0d:f0:
        c9:54:1f:65:96:c2:8a:e4:af:87:39:33:55:aa:3a:d4:50:9c:
        d2:eb:b9:fa:87:11:45:f2:46:3d:c9:09:05:ca:df:91:30:c4:
        51:51:3c:30:6b:a0:52:51:f3:40:ec:5c:e6:b6:63:f6:6e:b1:
        fe:56:28:62:40:b4:ce:7f:28:96:00:81:e4:a8:ea:af:f6:b1:
        0e:9b:8c:9f:ef:54:9a:e7:69:f7:e0:34:35:c4:4a:25:ad:e0:
        20:3d:f9:10
-----BEGIN CERTIFICATE-----
MIIDdzCCAl+gAwIBAgIQRc9S3+UtHMHyshj39Uk77TANBgkqhkiG9w0BAQsFADAW
MRQwEgYDVQQDDAt0ZWFtMTI4LW5ldDAeFw0yMzExMDQxMDQyNTNaFw0yNjEwMTkx
MDQyNTNaMBkxFzAVBgNVBAMMDnRlYW0xMjgtc2VydmVyMIIBIjANBgkqhkiG9w0B
AQEFAAOCAQ8AMIIBCgKCAQEAtmfSinW3fcwlW67aTxq7uV3g4XJkKqM/2lJjx/Q0
bm7kL06+ouzXLNo95JK79JQKxoru4AAiuTc5Dhny7Wnq0nx2fHt8lMyZ7opy7eMK
hLL2M09udP1rHZTtprWecHk2gwvK+zuntN/Tz6rWkCnOFpSsyEVupUqGW0ZzH0Jt
OdIG5GiKCe326a2KAqb3RCDF64Kk0j+Yf3KFag3RjRtlCyMyxbnQhhmIxKSHcgLx
PxKf5+s3zD+6jgYDuEIwghl3r890CHYgrsmFyeA/0HRfoOsJD5kqBxgyxVeVrzgc
YxQKGWxe9WXDDHJmIDiNyAZeg2AJk8JIyU26dkut8ArFnQIDAQABo4G9MIG6MAkG
A1UdEwQCMAAwHQYDVR0OBBYEFMdJlJNsgekKJZcZIo62HsxuZNqLMFEGA1UdIwRK
MEiAFDzM+jqfNONLoB7iCrPdKkfSaAOkoRqkGDAWMRQwEgYDVQQDDAt0ZWFtMTI4
LW5ldIIURDQjnwbIpFxSRhn3rpCt4eBW6FQwEwYDVR0lBAwwCgYIKwYBBQUHAwEw
CwYDVR0PBAQDAgWgMBkGA1UdEQQSMBCCDnRlYW0xMjgtc2VydmVyMA0GCSqGSIb3
DQEBCwUAA4IBAQBIqhCdL+9P2pqfN6YyUehMWEXb3+XZByYlPQUUdm35ypc+3S29
WY4xcZJ3an1DFqGWbwaa/pEKxCD3o/i7/9yKbI8gUVdOsnuuL3uN5SNCCOCQhRho
4tG7GBi4bpKHaLuVgYRYzlIn7K1J3+iFjwtEhgclwHAfIsf5GSBy4U9k9ABcsXDR
v3AAmPiJOrWBb/wnX0sX84m3ydr9C/Va4NHLDfDJVB9llsKK5K+HOTNVqjrUUJzS
67n6hxFF8kY9yQkFyt+RMMRRUTwwa6BSUfNA7FzmtmP2brH+VihiQLTOfyiWAIHk
qOqv9rEOm4yf71Sa52n34DQ1xEolreAgPfkQ
-----END CERTIFICATE-----
