Certificate:
    Data:
        Version: 3 (0x2)
        Serial Number:
            8a:97:8d:28:6f:c7:52:c2:83:2b:12:dd:dd:4b:cd:78
        Signature Algorithm: sha256WithRSAEncryption
        Issuer: CN=team471-net
        Validity
            Not Before: Nov  3 20:47:50 2023 GMT
            Not After : Oct 18 20:47:50 2026 GMT
        Subject: CN=team471-server
        Subject Public Key Info:
            Public Key Algorithm: rsaEncryption
                Public-Key: (2048 bit)
                Modulus:
                    00:95:6b:9c:b8:7d:c3:83:7c:39:79:04:c4:8c:07:
                    38:07:05:4a:e2:57:c5:b7:e4:68:af:91:be:43:30:
                    e5:7d:7b:99:0c:a7:c1:70:04:91:55:97:d6:16:0e:
                    f9:23:c8:ea:51:cc:9b:37:87:9b:1e:2c:03:55:69:
                    12:9a:93:84:fc:bb:c9:78:f2:e0:aa:43:3f:e1:dd:
                    8b:48:a4:99:c5:20:0b:07:52:c0:f3:a2:82:c3:d3:
                    9d:aa:19:a2:31:f6:8d:48:c2:cd:8c:89:c1:81:77:
                    74:98:29:8b:a2:77:30:2a:db:44:4e:ca:d5:8c:fa:
                    f7:e3:d9:d8:09:a9:81:6e:a8:37:ad:48:87:94:92:
                    8b:39:ed:af:4a:0e:00:3c:85:e0:5d:d7:06:93:bb:
                    0b:ce:37:b2:3c:aa:38:e9:a7:1a:d6:ed:1b:3d:40:
                    1e:26:07:48:05:aa:41:ce:3a:85:42:6d:8c:a8:59:
                    e8:63:c8:c6:04:d2:38:8f:5e:0a:7c:7b:85:f9:fc:
                    57:0d:d0:96:35:38:96:a9:99:79:f4:55:ad:e9:e6:
                    d0:cf:62:65:d2:dc:9e:f5:1c:40:3c:9e:f7:9c:13:
                    90:5e:f4:67:12:f6:4d:ba:e8:b4:05:3b:cf:18:02:
                    e6:a9:9b:d5:89:e6:e2:62:73:4c:25:b4:49:34:3d:
                    54:67
                Exponent: 65537 (0x10001)
        X509v3 extensions:
            X509v3 Basic Constraints: 
                CA:FALSE
            X509v3 Subject Key Identifier: 
                D3:95:01:D7:F7:E4:AF:E5:68:AE:2B:7E:F4:A0:0E:1B:77:D2:95:39
            X509v3 Authority Key Identifier: 
                keyid:D2:8A:CE:B9:94:17:2B:69:F1:9E:E1:22:67:67:95:66:FD:9A:88:41
                DirName:/CN=team471-net
                serial:37:AF:AD:89:5F:CB:D4:DC:F2:2B:AB:19:7B:75:03:29:E5:66:AD:2E
            X509v3 Extended Key Usage: 
                TLS Web Server Authentication
            X509v3 Key Usage: 
                Digital Signature, Key Encipherment
            X509v3 Subject Alternative Name: 
                DNS:team471-server
    Signature Algorithm: sha256WithRSAEncryption
    Signature Value:
        10:b9:28:c2:d3:d7:1e:3a:b3:ae:65:5a:82:c5:8b:cd:3d:1e:
        b8:96:b9:65:e0:59:43:35:18:be:0d:f8:ae:ec:c3:c5:60:f9:
        4d:e3:4c:e2:5f:3b:12:2c:54:ad:ff:27:01:f0:41:91:da:c0:
        1e:92:40:c5:4a:f4:2d:fd:02:ac:a3:82:8e:ab:2c:6f:4a:47:
        d9:4a:3b:13:72:8c:f1:83:e2:fb:a6:c8:46:46:a5:cc:11:74:
        1c:62:84:58:35:3f:73:65:29:b2:35:3a:4f:ee:1f:ca:3d:94:
        f1:23:bd:d1:e4:d6:9a:f0:a5:d7:76:b8:d0:17:96:eb:a0:95:
        cd:52:7e:0c:15:96:a5:cb:34:06:b8:26:29:01:e8:5d:31:9b:
        e9:61:45:83:3f:34:88:9d:5a:00:3c:c6:ab:c3:d6:86:06:26:
        66:08:10:7b:c5:f2:c5:9a:d4:71:3f:68:aa:ac:96:64:9c:0f:
        88:c6:18:8e:73:9e:ce:e3:d3:90:a0:a6:60:32:75:81:05:1c:
        8d:5c:5a:63:31:1a:34:da:5c:b9:4d:70:ba:55:a3:70:35:86:
        b3:32:ae:59:5a:e9:5e:68:ce:a4:60:9f:81:64:30:a1:97:56:
        86:df:e9:52:7c:ec:38:a4:ab:2b:ae:ea:2c:f3:c1:d1:71:f8:
        69:e1:14:00
-----BEGIN CERTIFICATE-----
MIIDeDCCAmCgAwIBAgIRAIqXjShvx1LCgysS3d1LzXgwDQYJKoZIhvcNAQELBQAw
FjEUMBIGA1UEAwwLdGVhbTQ3MS1uZXQwHhcNMjMxMTAzMjA0NzUwWhcNMjYxMDE4
MjA0NzUwWjAZMRcwFQYDVQQDDA50ZWFtNDcxLXNlcnZlcjCCASIwDQYJKoZIhvcN
AQEBBQADggEPADCCAQoCggEBAJVrnLh9w4N8OXkExIwHOAcFSuJXxbfkaK+RvkMw
5X17mQynwXAEkVWX1hYO+SPI6lHMmzeHmx4sA1VpEpqThPy7yXjy4KpDP+Hdi0ik
mcUgCwdSwPOigsPTnaoZojH2jUjCzYyJwYF3dJgpi6J3MCrbRE7K1Yz69+PZ2Amp
gW6oN61Ih5SSizntr0oOADyF4F3XBpO7C843sjyqOOmnGtbtGz1AHiYHSAWqQc46
hUJtjKhZ6GPIxgTSOI9eCnx7hfn8Vw3QljU4lqmZefRVrenm0M9iZdLcnvUcQDye
95wTkF70ZxL2TbrotAU7zxgC5qmb1Ynm4mJzTCW0STQ9VGcCAwEAAaOBvTCBujAJ
BgNVHRMEAjAAMB0GA1UdDgQWBBTTlQHX9+Sv5WiuK370oA4bd9KVOTBRBgNVHSME
SjBIgBTSis65lBcrafGe4SJnZ5Vm/ZqIQaEapBgwFjEUMBIGA1UEAwwLdGVhbTQ3
MS1uZXSCFDevrYlfy9Tc8iurGXt1AynlZq0uMBMGA1UdJQQMMAoGCCsGAQUFBwMB
MAsGA1UdDwQEAwIFoDAZBgNVHREEEjAQgg50ZWFtNDcxLXNlcnZlcjANBgkqhkiG
9w0BAQsFAAOCAQEAELkowtPXHjqzrmVagsWLzT0euJa5ZeBZQzUYvg34ruzDxWD5
TeNM4l87EixUrf8nAfBBkdrAHpJAxUr0Lf0CrKOCjqssb0pH2Uo7E3KM8YPi+6bI
RkalzBF0HGKEWDU/c2UpsjU6T+4fyj2U8SO90eTWmvCl13a40BeW66CVzVJ+DBWW
pcs0BrgmKQHoXTGb6WFFgz80iJ1aADzGq8PWhgYmZggQe8XyxZrUcT9oqqyWZJwP
iMYYjnOezuPTkKCmYDJ1gQUcjVxaYzEaNNpcuU1wulWjcDWGszKuWVrpXmjOpGCf
gWQwoZdWht/pUnzsOKSrK67qLPPB0XH4aeEUAA==
-----END CERTIFICATE-----
