Certificate:
    Data:
        Version: 3 (0x2)
        Serial Number:
            b8:34:2d:38:39:0c:a6:79:06:26:2d:37:9d:0e:d8:85
        Signature Algorithm: sha256WithRSAEncryption
        Issuer: CN=team471-net
        Validity
            Not Before: Nov  3 20:47:50 2023 GMT
            Not After : Oct 18 20:47:50 2026 GMT
        Subject: CN=team471-client
        Subject Public Key Info:
            Public Key Algorithm: rsaEncryption
                Public-Key: (2048 bit)
                Modulus:
                    00:b2:5c:05:8b:b1:a1:ad:49:f3:03:86:48:c2:e2:
                    1d:97:87:27:92:83:c0:53:fb:60:44:36:15:83:58:
                    72:23:83:37:51:07:44:79:3b:89:81:aa:d2:af:0f:
                    7b:cf:c4:89:d2:b6:05:40:4e:6c:9f:82:1a:91:ae:
                    46:92:6c:bc:ba:9d:9e:34:03:6c:47:3d:62:1c:da:
                    98:4b:68:b5:97:d9:d2:69:33:f6:74:0d:0d:72:26:
                    12:35:29:78:92:d4:49:3a:b1:ec:b4:9d:1c:6b:63:
                    e1:22:5e:07:62:5b:1e:3d:b4:91:fb:77:ea:48:99:
                    0e:0f:5e:1d:0e:89:48:c8:26:35:0a:92:8b:29:01:
                    d4:ce:9e:aa:0c:d3:21:f5:c6:b2:c6:81:15:cb:84:
                    b7:48:5a:5b:4a:39:17:2b:4c:a1:b5:14:5b:40:2e:
                    43:3f:13:7d:2a:4f:a3:a7:71:71:39:6d:4d:80:d8:
                    8f:17:1a:31:80:5a:73:56:bc:40:65:b6:f1:7e:4c:
                    21:97:bd:35:cf:65:67:89:d9:9d:04:c5:84:4f:38:
                    03:75:5c:f1:ea:4a:f1:83:8e:c4:9e:0c:31:74:2e:
                    89:85:bf:1b:b1:fe:35:f2:e2:63:d7:c1:53:7b:5f:
                    c6:5a:75:22:bb:3d:3e:88:7d:ba:9c:1d:1b:db:fa:
                    f7:5b
                Exponent: 65537 (0x10001)
        X509v3 extensions:
            X509v3 Basic Constraints: 
                CA:FALSE
            X509v3 Subject Key Identifier: 
                43:C2:69:0B:6C:2E:F5:4A:E7:BD:C2:B9:9A:7E:6D:2F:B6:C2:46:24
            X509v3 Authority Key Identifier: 
                keyid:D2:8A:CE:B9:94:17:2B:69:F1:9E:E1:22:67:67:95:66:FD:9A:88:41
                DirName:/CN=team471-net
                serial:37:AF:AD:89:5F:CB:D4:DC:F2:2B:AB:19:7B:75:03:29:E5:66:AD:2E
            X509v3 Extended Key Usage: 
                TLS Web Client Authentication
            X509v3 Key Usage: 
                Digital Signature
    Signature Algorithm: sha256WithRSAEncryption
    Signature Value:
        5b:e2:e6:ae:9f:22:d0:e6:05:b5:d7:76:ed:c7:01:bb:d1:6d:
        a3:1e:03:ff:ad:23:a4:0a:ae:60:ca:38:2a:cc:08:a3:43:1a:
        74:d4:c8:f9:87:82:6e:e9:d6:66:93:be:fd:06:de:3f:9f:e9:
        b6:21:c1:7f:17:57:ea:c1:63:71:4b:a5:45:cb:0b:df:a6:ce:
        78:02:9a:7c:78:c9:d6:c6:a1:b2:2e:59:88:f5:6d:18:12:b0:
        8e:45:60:79:0a:d6:12:07:bc:53:cd:09:ed:82:a1:22:0e:70:
        40:2f:21:5d:bd:6d:57:86:15:c9:ac:52:d6:2b:42:f5:14:ee:
        7c:65:82:aa:07:3c:e8:00:26:61:ca:57:56:c2:e0:65:dd:09:
        b9:bb:62:49:da:ce:6c:5d:2b:16:5e:0a:59:39:2f:36:47:61:
        b7:53:ed:09:e4:96:b2:cd:1e:e8:a3:31:b5:a8:6f:25:3a:3b:
        e3:1b:cb:c1:3a:cb:67:de:d8:72:a4:e5:71:cc:0e:38:ee:5e:
        87:8a:d1:ee:e8:bc:ac:d5:3d:f7:2b:6b:a8:10:0e:ac:34:72:
        07:4d:70:d5:56:30:d9:6a:1d:9a:26:58:ac:9a:f3:14:41:36:
        92:47:f4:37:67:b2:1a:2d:3f:f4:99:f8:9e:06:50:c5:7e:8f:
        92:ef:9c:e5
-----BEGIN CERTIFICATE-----
MIIDXTCCAkWgAwIBAgIRALg0LTg5DKZ5BiYtN50O2IUwDQYJKoZIhvcNAQELBQAw
FjEUMBIGA1UEAwwLdGVhbTQ3MS1uZXQwHhcNMjMxMTAzMjA0NzUwWhcNMjYxMDE4
MjA0NzUwWjAZMRcwFQYDVQQDDA50ZWFtNDcxLWNsaWVudDCCASIwDQYJKoZIhvcN
AQEBBQADggEPADCCAQoCggEBALJcBYuxoa1J8wOGSMLiHZeHJ5KDwFP7YEQ2FYNY
ciODN1EHRHk7iYGq0q8Pe8/EidK2BUBObJ+CGpGuRpJsvLqdnjQDbEc9YhzamEto
tZfZ0mkz9nQNDXImEjUpeJLUSTqx7LSdHGtj4SJeB2JbHj20kft36kiZDg9eHQ6J
SMgmNQqSiykB1M6eqgzTIfXGssaBFcuEt0haW0o5FytMobUUW0AuQz8TfSpPo6dx
cTltTYDYjxcaMYBac1a8QGW28X5MIZe9Nc9lZ4nZnQTFhE84A3Vc8epK8YOOxJ4M
MXQuiYW/G7H+NfLiY9fBU3tfxlp1Irs9Poh9upwdG9v691sCAwEAAaOBojCBnzAJ
BgNVHRMEAjAAMB0GA1UdDgQWBBRDwmkLbC71Sue9wrmafm0vtsJGJDBRBgNVHSME
SjBIgBTSis65lBcrafGe4SJnZ5Vm/ZqIQaEapBgwFjEUMBIGA1UEAwwLdGVhbTQ3
MS1uZXSCFDevrYlfy9Tc8iurGXt1AynlZq0uMBMGA1UdJQQMMAoGCCsGAQUFBwMC
MAsGA1UdDwQEAwIHgDANBgkqhkiG9w0BAQsFAAOCAQEAW+Lmrp8i0OYFtdd27ccB
u9Ftox4D/60jpAquYMo4KswIo0MadNTI+YeCbunWZpO+/QbeP5/ptiHBfxdX6sFj
cUulRcsL36bOeAKafHjJ1sahsi5ZiPVtGBKwjkVgeQrWEge8U80J7YKhIg5wQC8h
Xb1tV4YVyaxS1itC9RTufGWCqgc86AAmYcpXVsLgZd0JubtiSdrObF0rFl4KWTkv
Nkdht1PtCeSWss0e6KMxtahvJTo74xvLwTrLZ97YcqTlccwOOO5eh4rR7ui8rNU9
9ytrqBAOrDRyB01w1VYw2WodmiZYrJrzFEE2kkf0N2eyGi0/9Jn4ngZQxX6Pku+c
5Q==
-----END CERTIFICATE-----
