Certificate:
    Data:
        Version: 3 (0x2)
        Serial Number:
            13:95:99:31:92:97:a2:63:8d:9d:53:e4:12:ac:c1:bf
        Signature Algorithm: sha256WithRSAEncryption
        Issuer: CN=team479-net
        Validity
            Not Before: Nov  4 10:49:04 2023 GMT
            Not After : Oct 19 10:49:04 2026 GMT
        Subject: CN=team479-client
        Subject Public Key Info:
            Public Key Algorithm: rsaEncryption
                Public-Key: (2048 bit)
                Modulus:
                    00:d1:94:c0:66:69:30:cf:04:06:06:df:42:6c:c9:
                    4d:0e:4a:ea:ab:f5:61:26:de:72:17:7c:35:d3:85:
                    53:0f:a0:bc:fe:1a:a9:19:d8:7f:be:54:bb:c4:e4:
                    2f:f9:f4:7b:c8:fd:6a:9f:35:14:cb:52:89:2e:8a:
                    f9:e4:e6:fc:c3:53:03:b6:3b:91:b5:11:a3:5d:12:
                    77:52:d6:59:92:90:b4:3e:a8:62:dc:9c:cc:f4:d9:
                    ef:bf:79:ba:c4:e7:9a:f7:e2:8f:15:82:e9:2b:72:
                    22:6c:8f:d7:2f:35:67:10:76:64:65:e5:da:59:7e:
                    99:46:52:4e:4c:94:29:a7:1e:66:5d:d4:b8:fc:72:
                    36:e3:d1:78:8f:79:09:2f:8c:ff:98:df:37:42:92:
                    7b:75:30:24:9c:d5:f0:61:1b:04:e6:ac:17:c9:64:
                    7a:04:92:77:f8:13:31:21:40:f4:f2:95:83:52:57:
                    f3:41:ca:f0:f3:0d:6a:15:06:49:51:34:e7:5c:7d:
                    50:32:a7:1a:3e:30:ea:3c:42:cc:c2:c2:fe:cc:55:
                    3d:6e:cf:5a:f1:6e:1a:c0:85:3c:a3:74:47:56:f2:
                    1a:a7:22:52:58:3b:2d:59:3a:68:a1:b5:22:24:12:
                    33:40:01:7b:cd:70:83:f5:42:68:2f:5f:99:90:e4:
                    1e:a9
                Exponent: 65537 (0x10001)
        X509v3 extensions:
            X509v3 Basic Constraints: 
                CA:FALSE
            X509v3 Subject Key Identifier: 
                0D:C9:9F:72:F2:BA:CF:2B:32:18:46:E0:AE:57:2F:0D:D0:55:0D:D3
            X509v3 Authority Key Identifier: 
                keyid:70:C8:D1:54:A0:E6:FC:75:64:3C:D3:E1:B4:AB:EC:EB:71:3E:32:83
                DirName:/CN=team479-net
                serial:3B:65:73:F6:1D:3F:C8:B3:E3:92:1A:B6:85:EE:12:31:DD:90:C0:32
            X509v3 Extended Key Usage: 
                TLS Web Client Authentication
            X509v3 Key Usage: 
                Digital Signature
    Signature Algorithm: sha256WithRSAEncryption
    Signature Value:
        94:bb:c7:27:82:28:82:36:82:2c:db:c8:b9:fd:86:e3:68:a3:
        98:2e:8a:86:a7:00:31:2f:94:7f:a3:55:d9:79:fc:36:6f:ac:
        40:b9:95:1d:82:b0:4f:5b:69:08:7e:c4:e8:c9:b4:67:e9:9e:
        5c:20:8f:3e:be:da:67:13:25:bc:bb:f0:b1:bc:ba:cb:5c:9a:
        25:b3:03:13:92:d6:9a:9c:16:c4:f1:35:5b:75:37:fd:cf:c3:
        7a:8d:f3:84:a1:0f:50:2b:f5:86:b2:84:e6:d2:56:85:02:70:
        57:98:d5:ce:de:cf:e1:05:f2:a7:15:ee:3e:d2:66:36:56:37:
        25:95:bd:8f:47:1f:e2:fb:5b:e2:da:5e:08:c2:42:7c:77:87:
        ad:e7:d0:a4:01:25:c6:f0:ff:23:e6:24:fe:3e:f1:62:f6:b9:
        a7:e2:4f:bd:e8:37:b7:6c:5b:6b:53:26:1e:50:bc:0b:27:24:
        72:a5:84:1c:23:25:70:01:7c:5f:38:f1:85:6f:86:6b:e5:c6:
        cb:50:bb:f2:c1:d6:16:60:69:de:94:7b:e1:3f:2a:bf:57:e0:
        60:cd:c0:f4:ca:68:8a:09:b6:60:43:b3:0f:94:d5:7c:7c:f7:
        74:78:27:04:f0:b4:b9:a5:4b:65:1d:50:72:a4:94:28:c1:a4:
        45:51:88:a3
-----BEGIN CERTIFICATE-----
MIIDXDCCAkSgAwIBAgIQE5WZMZKXomONnVPkEqzBvzANBgkqhkiG9w0BAQsFADAW
MRQwEgYDVQQDDAt0ZWFtNDc5LW5ldDAeFw0yMzExMDQxMDQ5MDRaFw0yNjEwMTkx
MDQ5MDRaMBkxFzAVBgNVBAMMDnRlYW00NzktY2xpZW50MIIBIjANBgkqhkiG9w0B
AQEFAAOCAQ8AMIIBCgKCAQEA0ZTAZmkwzwQGBt9CbMlNDkrqq/VhJt5yF3w104VT
D6C8/hqpGdh/vlS7xOQv+fR7yP1qnzUUy1KJLor55Ob8w1MDtjuRtRGjXRJ3UtZZ
kpC0Pqhi3JzM9Nnvv3m6xOea9+KPFYLpK3IibI/XLzVnEHZkZeXaWX6ZRlJOTJQp
px5mXdS4/HI249F4j3kJL4z/mN83QpJ7dTAknNXwYRsE5qwXyWR6BJJ3+BMxIUD0
8pWDUlfzQcrw8w1qFQZJUTTnXH1QMqcaPjDqPELMwsL+zFU9bs9a8W4awIU8o3RH
VvIapyJSWDstWTpoobUiJBIzQAF7zXCD9UJoL1+ZkOQeqQIDAQABo4GiMIGfMAkG
A1UdEwQCMAAwHQYDVR0OBBYEFA3Jn3Lyus8rMhhG4K5XLw3QVQ3TMFEGA1UdIwRK
MEiAFHDI0VSg5vx1ZDzT4bSr7OtxPjKDoRqkGDAWMRQwEgYDVQQDDAt0ZWFtNDc5
LW5ldIIUO2Vz9h0/yLPjkhq2he4SMd2QwDIwEwYDVR0lBAwwCgYIKwYBBQUHAwIw
CwYDVR0PBAQDAgeAMA0GCSqGSIb3DQEBCwUAA4IBAQCUu8cngiiCNoIs28i5/Ybj
aKOYLoqGpwAxL5R/o1XZefw2b6xAuZUdgrBPW2kIfsToybRn6Z5cII8+vtpnEyW8
u/CxvLrLXJolswMTktaanBbE8TVbdTf9z8N6jfOEoQ9QK/WGsoTm0laFAnBXmNXO
3s/hBfKnFe4+0mY2Vjcllb2PRx/i+1vi2l4IwkJ8d4et59CkASXG8P8j5iT+PvFi
9rmn4k+96De3bFtrUyYeULwLJyRypYQcIyVwAXxfOPGFb4Zr5cbLULvywdYWYGne
lHvhPyq/V+BgzcD0ymiKCbZgQ7MPlNV8fPd0eCcE8LS5pUtlHVBypJQowaRFUYij
-----END CERTIFICATE-----
