Certificate:
    Data:
        Version: 3 (0x2)
        Serial Number:
            aa:c9:45:9f:ab:d7:d2:63:a6:56:9d:17:eb:a1:b8:3d
        Signature Algorithm: sha256WithRSAEncryption
        Issuer: CN=team479-net
        Validity
            Not Before: Nov  3 20:48:00 2023 GMT
            Not After : Oct 18 20:48:00 2026 GMT
        Subject: CN=team479-server
        Subject Public Key Info:
            Public Key Algorithm: rsaEncryption
                Public-Key: (2048 bit)
                Modulus:
                    00:9b:2f:4b:bb:95:2d:e3:4d:96:c1:f6:89:f3:3f:
                    fb:0a:53:20:39:76:a7:23:2c:0b:27:43:fe:2c:69:
                    57:4e:7c:b6:2c:a7:67:95:b8:28:cb:44:b0:6d:6f:
                    30:f7:37:20:5c:f3:89:08:f5:3d:31:af:4e:2e:ca:
                    c6:50:35:5a:74:6a:1c:dd:0b:db:69:16:5a:57:11:
                    87:61:d6:65:a1:8f:0c:b1:a3:9a:35:12:f3:34:4c:
                    3e:c8:ef:42:1d:d0:9f:cd:83:0a:9a:cf:74:34:b9:
                    1d:58:2e:9d:25:be:c2:23:f1:24:f1:58:62:1d:7f:
                    33:b1:a4:64:e2:fa:fb:f0:fe:4b:c9:0f:9f:1c:35:
                    96:26:c9:35:fc:14:a5:0b:81:d6:6f:89:1f:62:34:
                    de:2f:1f:c8:24:cb:a7:92:24:f4:09:7d:d6:cd:1a:
                    d4:b8:bb:e1:6b:79:00:4e:b7:8e:9a:ce:b4:86:1b:
                    1f:96:8f:0a:61:03:05:d1:68:ca:f3:35:0a:af:0f:
                    c4:e3:3f:83:9a:d9:c2:dc:ca:cb:eb:f2:1e:96:93:
                    5c:e0:fc:f2:72:68:f1:32:86:56:49:b9:b5:ae:bf:
                    5e:3e:5f:11:10:44:16:4f:26:68:3f:0e:38:c2:0a:
                    fc:0d:b9:8b:1e:6a:e0:67:90:cb:ab:9e:56:b8:87:
                    9f:7b
                Exponent: 65537 (0x10001)
        X509v3 extensions:
            X509v3 Basic Constraints: 
                CA:FALSE
            X509v3 Subject Key Identifier: 
                33:F2:34:EB:22:1B:09:F5:99:91:2C:89:C9:CC:4B:B9:C7:E0:D1:10
            X509v3 Authority Key Identifier: 
                keyid:AF:D0:A9:31:E5:32:8C:3B:C6:C3:6D:38:C8:2D:4A:59:B2:04:DA:7F
                DirName:/CN=team479-net
                serial:6B:CB:CF:D3:89:36:2F:C4:17:F5:87:2C:EC:4E:AC:A7:3B:8C:F6:A6
            X509v3 Extended Key Usage: 
                TLS Web Server Authentication
            X509v3 Key Usage: 
                Digital Signature, Key Encipherment
            X509v3 Subject Alternative Name: 
                DNS:team479-server
    Signature Algorithm: sha256WithRSAEncryption
    Signature Value:
        93:11:4b:1a:82:6d:f4:10:b5:88:4a:51:60:33:62:83:1d:91:
        7b:30:34:7d:29:d2:26:d6:e8:5c:05:52:02:c0:53:09:7f:27:
        b9:8a:d9:32:24:78:77:42:7d:cb:ba:59:3a:b9:87:bc:04:f8:
        14:0e:ed:97:e4:a9:6c:e8:73:89:be:71:d8:9f:35:28:74:cf:
        37:8c:34:87:e6:61:44:8c:52:3e:3a:de:d2:ec:1b:7d:8f:88:
        aa:fd:90:93:55:9f:c4:2c:80:81:64:e7:18:99:0d:b4:3d:90:
        d5:dd:ec:90:42:7d:6f:65:0b:16:36:e6:0a:76:78:e0:dc:21:
        f4:22:e3:b8:62:bf:73:a0:12:5f:8d:e4:6f:13:ed:79:22:2a:
        4e:ea:ba:c3:9c:8c:fc:23:6f:7f:8e:8b:65:da:65:e0:e4:16:
        f7:1d:f4:b4:2d:cf:2a:6b:c9:f6:74:e5:92:a3:3f:c8:d3:86:
        e5:7f:41:17:12:59:a1:f7:67:6a:69:de:b6:10:1c:ac:40:c0:
        74:0c:f4:23:a7:7f:2e:ee:c3:25:70:2c:c9:bd:d0:b5:58:b8:
        bd:07:c3:96:2e:59:bd:a2:8e:55:df:79:1b:71:a7:54:2a:8c:
        6d:ed:1c:57:60:ef:23:e0:fe:c7:74:2c:6a:ea:31:2f:f9:1d:
        67:3d:84:d1
-----BEGIN CERTIFICATE-----
MIIDeDCCAmCgAwIBAgIRAKrJRZ+r19JjpladF+uhuD0wDQYJKoZIhvcNAQELBQAw
FjEUMBIGA1UEAwwLdGVhbTQ3OS1uZXQwHhcNMjMxMTAzMjA0ODAwWhcNMjYxMDE4
MjA0ODAwWjAZMRcwFQYDVQQDDA50ZWFtNDc5LXNlcnZlcjCCASIwDQYJKoZIhvcN
AQEBBQADggEPADCCAQoCggEBAJsvS7uVLeNNlsH2ifM/+wpTIDl2pyMsCydD/ixp
V058tiynZ5W4KMtEsG1vMPc3IFzziQj1PTGvTi7KxlA1WnRqHN0L22kWWlcRh2HW
ZaGPDLGjmjUS8zRMPsjvQh3Qn82DCprPdDS5HVgunSW+wiPxJPFYYh1/M7GkZOL6
+/D+S8kPnxw1libJNfwUpQuB1m+JH2I03i8fyCTLp5Ik9Al91s0a1Li74Wt5AE63
jprOtIYbH5aPCmEDBdFoyvM1Cq8PxOM/g5rZwtzKy+vyHpaTXOD88nJo8TKGVkm5
ta6/Xj5fERBEFk8maD8OOMIK/A25ix5q4GeQy6ueVriHn3sCAwEAAaOBvTCBujAJ
BgNVHRMEAjAAMB0GA1UdDgQWBBQz8jTrIhsJ9ZmRLInJzEu5x+DREDBRBgNVHSME
SjBIgBSv0Kkx5TKMO8bDbTjILUpZsgTaf6EapBgwFjEUMBIGA1UEAwwLdGVhbTQ3
OS1uZXSCFGvLz9OJNi/EF/WHLOxOrKc7jPamMBMGA1UdJQQMMAoGCCsGAQUFBwMB
MAsGA1UdDwQEAwIFoDAZBgNVHREEEjAQgg50ZWFtNDc5LXNlcnZlcjANBgkqhkiG
9w0BAQsFAAOCAQEAkxFLGoJt9BC1iEpRYDNigx2RezA0fSnSJtboXAVSAsBTCX8n
uYrZMiR4d0J9y7pZOrmHvAT4FA7tl+SpbOhzib5x2J81KHTPN4w0h+ZhRIxSPjre
0uwbfY+Iqv2Qk1WfxCyAgWTnGJkNtD2Q1d3skEJ9b2ULFjbmCnZ44Nwh9CLjuGK/
c6ASX43kbxPteSIqTuq6w5yM/CNvf46LZdpl4OQW9x30tC3PKmvJ9nTlkqM/yNOG
5X9BFxJZofdnamnethAcrEDAdAz0I6d/Lu7DJXAsyb3QtVi4vQfDli5ZvaKOVd95
G3GnVCqMbe0cV2DvI+D+x3QsauoxL/kdZz2E0Q==
-----END CERTIFICATE-----
