Certificate:
    Data:
        Version: 3 (0x2)
        Serial Number:
            83:37:ac:c9:33:d8:ec:96:65:ba:3c:bf:f6:41:e5:94
        Signature Algorithm: sha256WithRSAEncryption
        Issuer: CN=team444-net
        Validity
            Not Before: Nov  4 10:48:35 2023 GMT
            Not After : Oct 19 10:48:35 2026 GMT
        Subject: CN=team444-client
        Subject Public Key Info:
            Public Key Algorithm: rsaEncryption
                Public-Key: (2048 bit)
                Modulus:
                    00:b4:9a:f0:a3:d3:e4:b9:fd:50:e1:53:2e:3f:b8:
                    ca:e9:81:be:48:06:01:e2:f6:dc:37:63:ea:f8:3c:
                    50:a8:b5:f8:8b:1d:b3:fc:77:b4:55:39:d5:95:27:
                    cf:65:8e:61:72:d4:cd:ad:d5:c8:4f:e2:8e:95:7a:
                    78:14:8d:46:e5:48:fd:d0:8e:10:ba:16:c0:75:4d:
                    00:ca:bb:06:33:2e:93:a4:59:72:9a:24:d7:82:21:
                    8b:3a:f5:bd:5c:b9:ee:e1:ff:26:0e:88:b4:d0:1b:
                    1b:54:e9:f2:8d:81:31:27:5c:b2:5c:61:6c:ff:c2:
                    41:f9:91:5d:96:ab:9c:d9:48:4a:7e:7c:cd:50:fe:
                    e8:f4:3b:91:e2:36:74:18:51:2e:c8:02:60:62:50:
                    4e:51:47:10:0e:93:49:8a:a1:32:53:d9:27:b9:9c:
                    31:db:d2:e9:6a:c4:b7:66:6c:04:93:95:6e:79:6a:
                    4b:9e:b2:a9:cf:60:86:25:38:dc:27:1e:24:f1:da:
                    b4:e6:19:2e:13:a9:bc:5f:80:b8:22:68:8a:d6:b2:
                    96:9f:0b:c3:6f:92:32:91:47:53:0f:40:73:50:78:
                    17:a1:2e:7b:59:32:97:3e:f3:ea:89:eb:dc:1f:a9:
                    7b:ff:03:29:50:4c:7c:1b:a3:ef:a3:29:a5:7c:72:
                    5a:d3
                Exponent: 65537 (0x10001)
        X509v3 extensions:
            X509v3 Basic Constraints: 
                CA:FALSE
            X509v3 Subject Key Identifier: 
                BD:65:1E:E7:69:B3:2F:60:3F:84:AB:00:17:F9:C6:AE:08:AE:46:3C
            X509v3 Authority Key Identifier: 
                keyid:BE:D7:CD:87:BC:2C:1B:8C:91:5B:F9:67:3B:51:5D:FA:E7:06:C5:5A
                DirName:/CN=team444-net
                serial:79:17:32:E8:91:2E:AE:A4:BF:8C:60:95:0F:07:1A:2E:B1:25:AA:DD
            X509v3 Extended Key Usage: 
                TLS Web Client Authentication
            X509v3 Key Usage: 
                Digital Signature
    Signature Algorithm: sha256WithRSAEncryption
    Signature Value:
        73:86:fd:4b:9d:51:02:e6:33:d0:15:b2:de:55:98:5d:d0:a8:
        f2:ad:87:ef:e8:91:2f:38:e8:31:91:cb:0e:49:f8:51:8f:2b:
        de:c9:d7:89:82:7f:ef:bd:a1:a6:dd:10:85:01:67:de:60:77:
        53:45:ef:44:72:b3:64:4f:f7:f8:74:f3:82:55:5f:2c:c6:9a:
        21:c2:a8:2c:01:22:e4:a6:d8:62:d0:e4:b3:20:01:e7:f0:2c:
        47:9f:03:08:32:26:fc:09:0a:d2:0a:6f:c1:3f:50:c4:f3:c0:
        79:13:6b:91:c7:81:e5:a9:b4:c3:91:8a:30:ff:16:bf:72:57:
        d6:46:97:3a:5a:f1:af:46:ef:aa:14:41:3d:03:54:c6:27:32:
        cd:45:fd:57:ec:04:15:a3:a8:cd:d6:cf:94:49:18:11:9b:0f:
        9f:7b:7f:98:ad:ad:a7:bd:fd:e0:7f:96:df:f3:3a:91:ef:53:
        d0:d9:5c:70:e4:1d:84:9a:31:25:6d:e5:e1:d2:05:c9:04:9a:
        9a:8c:f7:16:64:20:24:5b:16:6e:f2:e5:f4:ec:9f:9c:02:b5:
        4b:dd:98:2e:a9:14:f9:0d:7b:c5:5f:b5:11:19:09:89:8c:d4:
        ab:7e:36:f3:8a:83:ba:5d:ca:2d:e2:6e:da:67:71:5b:49:29:
        89:79:01:be
-----BEGIN CERTIFICATE-----
MIIDXTCCAkWgAwIBAgIRAIM3rMkz2OyWZbo8v/ZB5ZQwDQYJKoZIhvcNAQELBQAw
FjEUMBIGA1UEAwwLdGVhbTQ0NC1uZXQwHhcNMjMxMTA0MTA0ODM1WhcNMjYxMDE5
MTA0ODM1WjAZMRcwFQYDVQQDDA50ZWFtNDQ0LWNsaWVudDCCASIwDQYJKoZIhvcN
AQEBBQADggEPADCCAQoCggEBALSa8KPT5Ln9UOFTLj+4yumBvkgGAeL23Ddj6vg8
UKi1+Isds/x3tFU51ZUnz2WOYXLUza3VyE/ijpV6eBSNRuVI/dCOELoWwHVNAMq7
BjMuk6RZcpok14Ihizr1vVy57uH/Jg6ItNAbG1Tp8o2BMSdcslxhbP/CQfmRXZar
nNlISn58zVD+6PQ7keI2dBhRLsgCYGJQTlFHEA6TSYqhMlPZJ7mcMdvS6WrEt2Zs
BJOVbnlqS56yqc9ghiU43CceJPHatOYZLhOpvF+AuCJoitaylp8Lw2+SMpFHUw9A
c1B4F6Eue1kylz7z6onr3B+pe/8DKVBMfBuj76MppXxyWtMCAwEAAaOBojCBnzAJ
BgNVHRMEAjAAMB0GA1UdDgQWBBS9ZR7nabMvYD+EqwAX+cauCK5GPDBRBgNVHSME
SjBIgBS+182HvCwbjJFb+Wc7UV365wbFWqEapBgwFjEUMBIGA1UEAwwLdGVhbTQ0
NC1uZXSCFHkXMuiRLq6kv4xglQ8HGi6xJardMBMGA1UdJQQMMAoGCCsGAQUFBwMC
MAsGA1UdDwQEAwIHgDANBgkqhkiG9w0BAQsFAAOCAQEAc4b9S51RAuYz0BWy3lWY
XdCo8q2H7+iRLzjoMZHLDkn4UY8r3snXiYJ/772hpt0QhQFn3mB3U0XvRHKzZE/3
+HTzglVfLMaaIcKoLAEi5KbYYtDksyAB5/AsR58DCDIm/AkK0gpvwT9QxPPAeRNr
kceB5am0w5GKMP8Wv3JX1kaXOlrxr0bvqhRBPQNUxicyzUX9V+wEFaOozdbPlEkY
EZsPn3t/mK2tp7394H+W3/M6ke9T0NlccOQdhJoxJW3l4dIFyQSamoz3FmQgJFsW
bvLl9OyfnAK1S92YLqkU+Q17xV+1ERkJiYzUq34284qDul3KLeJu2mdxW0kpiXkB
vg==
-----END CERTIFICATE-----
