Certificate:
    Data:
        Version: 3 (0x2)
        Serial Number:
            8b:e4:d4:05:11:29:7e:d1:4f:3c:36:7b:41:0d:8c:4b
        Signature Algorithm: sha256WithRSAEncryption
        Issuer: CN=team444-net
        Validity
            Not Before: Nov  3 20:47:19 2023 GMT
            Not After : Oct 18 20:47:19 2026 GMT
        Subject: CN=team444-client
        Subject Public Key Info:
            Public Key Algorithm: rsaEncryption
                Public-Key: (2048 bit)
                Modulus:
                    00:a9:bd:9c:14:ed:6a:0e:8f:bd:d5:2a:f7:90:2b:
                    9a:77:1b:e4:8f:34:cb:5a:2f:37:ea:f6:a4:95:7f:
                    0d:e4:7c:e2:43:64:4a:21:b5:f3:8b:d1:9e:c6:93:
                    d0:c0:7f:a6:9f:dc:57:2f:a4:a9:35:ba:6b:03:3a:
                    07:1c:6a:3d:d8:75:f7:6c:04:62:22:79:ea:dc:8c:
                    66:59:a2:97:de:cc:fd:bf:2d:81:2a:f7:9f:49:6c:
                    cc:c9:0d:e9:24:e5:4d:73:95:31:5f:28:7a:a0:82:
                    5e:d0:d5:95:23:b7:93:28:c3:ff:16:96:53:cc:1f:
                    76:ef:5a:a5:2f:63:f7:e2:97:b5:5e:34:fe:00:85:
                    44:7d:9c:11:a3:e4:cc:b8:09:df:d0:73:b6:1c:46:
                    32:9b:f9:b8:a6:f0:50:f5:13:11:d0:a6:70:4c:38:
                    54:71:18:a7:a5:10:2c:36:df:8f:0a:4e:dc:39:fe:
                    78:7f:3e:51:74:8f:69:95:9c:26:d0:a1:7e:da:3c:
                    76:d9:85:ed:a3:51:e0:1d:38:38:84:2e:c5:e8:68:
                    6b:58:09:8e:d4:17:80:eb:1f:d2:19:b6:45:d7:55:
                    01:bb:06:5c:60:02:ad:3d:98:9b:05:c8:a4:f5:c5:
                    98:c6:12:47:ed:4c:3c:b3:0e:54:4f:21:da:4b:99:
                    97:73
                Exponent: 65537 (0x10001)
        X509v3 extensions:
            X509v3 Basic Constraints: 
                CA:FALSE
            X509v3 Subject Key Identifier: 
                71:96:C0:D3:82:ED:38:3D:61:16:5C:41:BC:EE:90:08:D7:3C:E7:9B
            X509v3 Authority Key Identifier: 
                keyid:76:B6:9F:13:11:11:87:C4:41:70:6C:BD:0F:29:F0:15:C0:53:40:C9
                DirName:/CN=team444-net
                serial:15:D7:92:A0:F7:CE:DD:5D:DA:25:D1:13:36:34:CF:07:64:D1:22:A1
            X509v3 Extended Key Usage: 
                TLS Web Client Authentication
            X509v3 Key Usage: 
                Digital Signature
    Signature Algorithm: sha256WithRSAEncryption
    Signature Value:
        89:8c:e4:f1:02:40:e0:cc:50:cf:f8:84:f5:28:64:6f:1b:1c:
        23:20:ce:30:af:3f:33:84:f6:08:ca:ec:8a:1e:d0:7d:54:0b:
        84:ac:c0:cc:ad:5b:79:ff:44:8b:30:67:bc:c0:02:eb:9a:9a:
        5a:80:1f:ad:b7:07:b4:80:9d:21:3c:03:20:c2:79:e0:5a:79:
        8e:5b:1f:8a:75:d1:e6:a7:b3:7f:8b:c1:8e:64:8e:c5:f2:6c:
        14:21:c6:de:5a:b4:f6:16:0b:e6:ad:d6:d2:da:1d:b1:a7:7f:
        f5:25:0d:2c:c8:8b:db:d8:1d:33:b7:b0:c2:cd:cd:42:d4:22:
        99:49:de:0f:d3:1b:6f:f2:f0:bf:80:60:32:a1:3f:6c:4e:2e:
        ca:c2:9c:36:aa:6f:f0:ed:ec:f1:35:16:50:ce:25:5d:a0:97:
        ae:26:6a:f9:bd:0d:58:73:3d:c9:7f:f3:cc:04:d1:77:cc:05:
        0f:b9:ef:b7:48:65:58:05:98:57:ef:54:00:39:2d:d3:88:91:
        b9:97:b0:99:f4:99:7b:a9:ba:d5:7c:3a:4e:71:0d:df:44:41:
        f7:37:cb:60:23:be:7f:ec:0c:7c:6f:25:7e:67:2a:0f:72:64:
        e6:7d:57:ea:fd:73:7d:12:8c:ab:fd:32:96:a8:bf:06:8f:11:
        17:1e:cd:31
-----BEGIN CERTIFICATE-----
MIIDXTCCAkWgAwIBAgIRAIvk1AURKX7RTzw2e0ENjEswDQYJKoZIhvcNAQELBQAw
FjEUMBIGA1UEAwwLdGVhbTQ0NC1uZXQwHhcNMjMxMTAzMjA0NzE5WhcNMjYxMDE4
MjA0NzE5WjAZMRcwFQYDVQQDDA50ZWFtNDQ0LWNsaWVudDCCASIwDQYJKoZIhvcN
AQEBBQADggEPADCCAQoCggEBAKm9nBTtag6PvdUq95Armncb5I80y1ovN+r2pJV/
DeR84kNkSiG184vRnsaT0MB/pp/cVy+kqTW6awM6BxxqPdh192wEYiJ56tyMZlmi
l97M/b8tgSr3n0lszMkN6STlTXOVMV8oeqCCXtDVlSO3kyjD/xaWU8wfdu9apS9j
9+KXtV40/gCFRH2cEaPkzLgJ39BzthxGMpv5uKbwUPUTEdCmcEw4VHEYp6UQLDbf
jwpO3Dn+eH8+UXSPaZWcJtChfto8dtmF7aNR4B04OIQuxehoa1gJjtQXgOsf0hm2
RddVAbsGXGACrT2YmwXIpPXFmMYSR+1MPLMOVE8h2kuZl3MCAwEAAaOBojCBnzAJ
BgNVHRMEAjAAMB0GA1UdDgQWBBRxlsDTgu04PWEWXEG87pAI1zznmzBRBgNVHSME
SjBIgBR2tp8TERGHxEFwbL0PKfAVwFNAyaEapBgwFjEUMBIGA1UEAwwLdGVhbTQ0
NC1uZXSCFBXXkqD3zt1d2iXREzY0zwdk0SKhMBMGA1UdJQQMMAoGCCsGAQUFBwMC
MAsGA1UdDwQEAwIHgDANBgkqhkiG9w0BAQsFAAOCAQEAiYzk8QJA4MxQz/iE9Shk
bxscIyDOMK8/M4T2CMrsih7QfVQLhKzAzK1bef9EizBnvMAC65qaWoAfrbcHtICd
ITwDIMJ54Fp5jlsfinXR5qezf4vBjmSOxfJsFCHG3lq09hYL5q3W0todsad/9SUN
LMiL29gdM7ewws3NQtQimUneD9Mbb/Lwv4BgMqE/bE4uysKcNqpv8O3s8TUWUM4l
XaCXriZq+b0NWHM9yX/zzATRd8wFD7nvt0hlWAWYV+9UADkt04iRuZewmfSZe6m6
1Xw6TnEN30RB9zfLYCO+f+wMfG8lfmcqD3Jk5n1X6v1zfRKMq/0ylqi/Bo8RFx7N
MQ==
-----END CERTIFICATE-----
