Certificate:
    Data:
        Version: 3 (0x2)
        Serial Number:
            a3:fe:17:f8:2c:2d:91:bd:0d:8a:55:25:c2:1d:1d:0c
        Signature Algorithm: sha256WithRSAEncryption
        Issuer: CN=team444-net
        Validity
            Not Before: Nov  4 11:37:27 2023 GMT
            Not After : Oct 19 11:37:27 2026 GMT
        Subject: CN=team444-server
        Subject Public Key Info:
            Public Key Algorithm: rsaEncryption
                Public-Key: (2048 bit)
                Modulus:
                    00:b2:62:ea:34:a0:90:94:a4:2f:be:47:95:2e:e8:
                    34:46:17:24:ce:13:d3:52:34:68:7e:35:f4:6a:d1:
                    3c:fe:fd:e4:af:b8:11:ea:52:78:8c:af:23:17:bb:
                    ac:1e:92:dc:e0:86:73:80:ac:5b:bf:e9:81:5d:cb:
                    e5:c3:02:93:54:84:1f:74:d1:ef:27:9f:75:47:43:
                    d8:8c:e1:87:76:70:8d:4e:d4:fa:0f:c0:ae:08:86:
                    39:17:8d:45:eb:b1:40:fd:ea:0f:c4:c3:d5:47:02:
                    9b:73:d3:fd:7e:05:78:0e:bd:5b:af:7f:85:e3:0e:
                    75:7b:ea:df:b8:f1:3a:cc:3a:a6:8b:7e:76:5e:c3:
                    61:70:bd:6d:7c:4b:29:67:51:0e:bb:28:cd:34:b4:
                    8a:d9:1b:98:ce:de:9e:0d:1d:05:bf:cb:4b:bb:66:
                    2b:a8:e3:d5:dc:4e:46:01:5e:b3:e8:7b:1a:09:43:
                    17:16:cb:37:bd:6e:2e:38:69:b3:08:75:3d:fa:a5:
                    51:b3:43:47:32:ea:22:65:29:7f:f7:5f:68:05:50:
                    2b:77:55:d7:d0:7b:dc:12:e0:44:8e:68:7a:53:b4:
                    04:d1:09:26:e6:b2:62:7c:fd:ee:6c:d2:9d:2b:00:
                    61:e4:3a:f8:90:e1:8d:a1:4c:53:75:9d:29:c9:4f:
                    d3:75
                Exponent: 65537 (0x10001)
        X509v3 extensions:
            X509v3 Basic Constraints: 
                CA:FALSE
            X509v3 Subject Key Identifier: 
                EF:EA:AA:18:86:76:DA:17:99:14:45:B1:40:3B:A7:77:04:3C:9B:37
            X509v3 Authority Key Identifier: 
                keyid:F8:ED:45:9B:66:F0:6E:C5:10:E8:33:E6:F6:7F:91:2A:D7:CD:65:70
                DirName:/CN=team444-net
                serial:65:19:A9:22:93:95:C8:30:49:72:CC:EF:18:53:C9:8C:71:FB:89:78
            X509v3 Extended Key Usage: 
                TLS Web Server Authentication
            X509v3 Key Usage: 
                Digital Signature, Key Encipherment
            X509v3 Subject Alternative Name: 
                DNS:team444-server
    Signature Algorithm: sha256WithRSAEncryption
    Signature Value:
        50:54:45:3c:8f:2d:48:d4:4e:2f:66:9c:d8:45:3d:3e:c1:59:
        d8:35:57:92:44:a9:15:bb:d8:97:58:5a:22:a6:19:f0:64:98:
        b5:0f:88:bf:87:8f:d3:11:d6:c4:77:d6:59:0a:f4:63:81:3e:
        ae:9f:04:86:cd:c9:3d:74:37:7c:b0:46:f4:63:8d:76:e8:f8:
        f2:d7:ba:ac:1f:1b:71:a2:e6:31:97:b7:58:18:93:d3:7c:9a:
        7f:7c:83:85:56:ad:f3:aa:f6:0d:98:35:b3:78:36:07:a8:24:
        9b:2b:df:f4:1a:3b:0e:3d:bb:0c:9c:ca:72:a9:49:32:31:ab:
        d6:bf:dc:1e:eb:2f:d6:8c:dd:cb:7c:ba:a4:16:53:db:c5:88:
        8a:55:2b:7c:9e:d7:10:f2:89:69:fc:02:66:26:54:f8:9c:ab:
        00:11:84:58:66:fc:f0:33:8f:b9:7d:b6:5f:32:93:8d:4b:c1:
        a2:59:eb:d3:d0:51:48:ef:91:f6:aa:c8:81:65:f5:5c:2a:55:
        27:48:53:49:bd:c1:c5:43:6d:8a:2e:db:ca:a1:31:a2:4a:e6:
        09:2d:74:74:d8:a6:d0:3e:77:6a:3a:dd:37:5c:5b:cb:8a:ac:
        cd:d1:cb:81:62:7d:10:94:78:c2:30:3f:86:96:d9:3f:0c:d1:
        cc:fa:b1:d1
-----BEGIN CERTIFICATE-----
MIIDeDCCAmCgAwIBAgIRAKP+F/gsLZG9DYpVJcIdHQwwDQYJKoZIhvcNAQELBQAw
FjEUMBIGA1UEAwwLdGVhbTQ0NC1uZXQwHhcNMjMxMTA0MTEzNzI3WhcNMjYxMDE5
MTEzNzI3WjAZMRcwFQYDVQQDDA50ZWFtNDQ0LXNlcnZlcjCCASIwDQYJKoZIhvcN
AQEBBQADggEPADCCAQoCggEBALJi6jSgkJSkL75HlS7oNEYXJM4T01I0aH419GrR
PP795K+4EepSeIyvIxe7rB6S3OCGc4CsW7/pgV3L5cMCk1SEH3TR7yefdUdD2Izh
h3ZwjU7U+g/ArgiGOReNReuxQP3qD8TD1UcCm3PT/X4FeA69W69/heMOdXvq37jx
Osw6pot+dl7DYXC9bXxLKWdRDrsozTS0itkbmM7eng0dBb/LS7tmK6jj1dxORgFe
s+h7GglDFxbLN71uLjhpswh1PfqlUbNDRzLqImUpf/dfaAVQK3dV19B73BLgRI5o
elO0BNEJJuayYnz97mzSnSsAYeQ6+JDhjaFMU3WdKclP03UCAwEAAaOBvTCBujAJ
BgNVHRMEAjAAMB0GA1UdDgQWBBTv6qoYhnbaF5kURbFAO6d3BDybNzBRBgNVHSME
SjBIgBT47UWbZvBuxRDoM+b2f5Eq181lcKEapBgwFjEUMBIGA1UEAwwLdGVhbTQ0
NC1uZXSCFGUZqSKTlcgwSXLM7xhTyYxx+4l4MBMGA1UdJQQMMAoGCCsGAQUFBwMB
MAsGA1UdDwQEAwIFoDAZBgNVHREEEjAQgg50ZWFtNDQ0LXNlcnZlcjANBgkqhkiG
9w0BAQsFAAOCAQEAUFRFPI8tSNROL2ac2EU9PsFZ2DVXkkSpFbvYl1haIqYZ8GSY
tQ+Iv4eP0xHWxHfWWQr0Y4E+rp8Ehs3JPXQ3fLBG9GONduj48te6rB8bcaLmMZe3
WBiT03yaf3yDhVat86r2DZg1s3g2B6gkmyvf9Bo7Dj27DJzKcqlJMjGr1r/cHusv
1ozdy3y6pBZT28WIilUrfJ7XEPKJafwCZiZU+JyrABGEWGb88DOPuX22XzKTjUvB
olnr09BRSO+R9qrIgWX1XCpVJ0hTSb3BxUNtii7byqExokrmCS10dNim0D53ajrd
N1xby4qszdHLgWJ9EJR4wjA/hpbZPwzRzPqx0Q==
-----END CERTIFICATE-----
