Certificate:
    Data:
        Version: 3 (0x2)
        Serial Number:
            de:54:95:e0:15:bb:07:7c:04:aa:7c:24:cf:2d:2b:0e
        Signature Algorithm: sha256WithRSAEncryption
        Issuer: CN=team444-net
        Validity
            Not Before: Nov  4 11:37:27 2023 GMT
            Not After : Oct 19 11:37:27 2026 GMT
        Subject: CN=team444-client
        Subject Public Key Info:
            Public Key Algorithm: rsaEncryption
                Public-Key: (2048 bit)
                Modulus:
                    00:de:8d:4b:1b:fa:8a:42:4d:26:e7:31:e2:55:ad:
                    29:2f:ad:04:9a:7b:a8:7b:dc:9a:de:75:0a:a0:e6:
                    8d:87:ab:54:1d:c0:6d:8e:a3:d3:a8:2f:32:2d:71:
                    4b:74:00:8b:40:df:8f:e9:96:0a:2a:e0:d3:45:0f:
                    ae:f2:d9:be:a5:80:6f:ce:e3:74:e9:35:57:c0:fa:
                    45:f2:8f:a0:25:3a:91:7a:6b:e0:76:64:40:dd:74:
                    0b:4e:43:f9:ae:f5:1b:c5:81:d7:f4:48:71:b7:2b:
                    96:3a:c9:07:57:a9:0b:8f:4b:de:dd:c4:e8:c9:84:
                    21:ed:90:76:f6:b4:e0:93:7a:52:8e:e4:2b:b5:2f:
                    b8:b6:4d:90:68:7a:8b:c9:b8:8d:bb:3c:12:7a:c7:
                    99:f6:94:50:4f:8e:9f:6d:3d:f1:f2:c0:f8:0f:ff:
                    28:e1:e1:33:b4:8a:ee:2c:2c:cb:c3:53:dc:c0:2a:
                    7c:53:30:d3:a3:8d:aa:2e:3d:43:78:a4:12:a7:9b:
                    d4:75:2c:2a:8a:af:ac:bf:11:8d:80:95:81:2f:94:
                    7c:1e:ec:48:a6:73:42:59:a1:35:b7:75:dd:6e:71:
                    c8:cf:8c:4b:9f:4c:17:f0:1b:9a:3a:24:50:e9:bb:
                    3b:cd:1a:09:5e:38:ac:76:4a:6e:a3:87:2c:b6:bf:
                    3d:71
                Exponent: 65537 (0x10001)
        X509v3 extensions:
            X509v3 Basic Constraints: 
                CA:FALSE
            X509v3 Subject Key Identifier: 
                D6:F1:9A:93:88:E6:48:00:07:77:ED:11:4A:99:BD:31:ED:21:03:EA
            X509v3 Authority Key Identifier: 
                keyid:F8:ED:45:9B:66:F0:6E:C5:10:E8:33:E6:F6:7F:91:2A:D7:CD:65:70
                DirName:/CN=team444-net
                serial:65:19:A9:22:93:95:C8:30:49:72:CC:EF:18:53:C9:8C:71:FB:89:78
            X509v3 Extended Key Usage: 
                TLS Web Client Authentication
            X509v3 Key Usage: 
                Digital Signature
    Signature Algorithm: sha256WithRSAEncryption
    Signature Value:
        67:98:43:e1:b8:b3:4f:c5:fe:fe:c0:14:fd:62:d8:0e:58:2e:
        f8:23:6d:62:25:f2:9c:c4:ec:ae:74:b4:8a:25:ef:3b:cb:79:
        74:c8:4e:04:ac:c9:1e:70:a3:cb:ea:0f:46:1c:1a:80:e8:28:
        6e:10:09:24:c3:93:f2:d9:4c:96:02:92:e5:e5:d3:75:bc:49:
        d0:ac:d0:7d:e2:9f:ad:b9:68:5b:d8:34:c4:9f:24:05:2d:0c:
        ce:03:a8:c5:c5:28:e7:23:dd:1e:4d:c1:5d:c8:09:05:0d:ea:
        19:22:30:64:6b:28:f4:98:f3:88:d0:2c:70:6e:c0:28:17:69:
        93:46:c2:c8:2e:ac:c6:49:56:81:20:6b:a8:3c:1c:7f:5a:ec:
        5f:29:49:7f:ec:4d:aa:ef:b4:3c:c2:c6:e4:57:18:5b:15:d8:
        1e:e4:65:ba:42:90:c9:c6:14:ac:07:df:dc:ff:04:c6:e7:86:
        02:38:30:b3:60:70:c3:da:c8:d3:9e:14:f6:d5:24:60:32:6b:
        a5:a1:bd:54:8f:a9:bf:0b:ec:a3:7c:cf:4b:79:76:fb:04:52:
        1e:1e:71:db:96:74:95:85:c2:f6:3f:e7:e5:58:c4:99:b6:44:
        88:12:a5:0b:cf:01:60:7d:7a:b3:39:27:ce:6e:cb:a1:55:55:
        77:53:d6:23
-----BEGIN CERTIFICATE-----
MIIDXTCCAkWgAwIBAgIRAN5UleAVuwd8BKp8JM8tKw4wDQYJKoZIhvcNAQELBQAw
FjEUMBIGA1UEAwwLdGVhbTQ0NC1uZXQwHhcNMjMxMTA0MTEzNzI3WhcNMjYxMDE5
MTEzNzI3WjAZMRcwFQYDVQQDDA50ZWFtNDQ0LWNsaWVudDCCASIwDQYJKoZIhvcN
AQEBBQADggEPADCCAQoCggEBAN6NSxv6ikJNJucx4lWtKS+tBJp7qHvcmt51CqDm
jYerVB3AbY6j06gvMi1xS3QAi0Dfj+mWCirg00UPrvLZvqWAb87jdOk1V8D6RfKP
oCU6kXpr4HZkQN10C05D+a71G8WB1/RIcbcrljrJB1epC49L3t3E6MmEIe2Qdva0
4JN6Uo7kK7UvuLZNkGh6i8m4jbs8EnrHmfaUUE+On2098fLA+A//KOHhM7SK7iws
y8NT3MAqfFMw06ONqi49Q3ikEqeb1HUsKoqvrL8RjYCVgS+UfB7sSKZzQlmhNbd1
3W5xyM+MS59MF/AbmjokUOm7O80aCV44rHZKbqOHLLa/PXECAwEAAaOBojCBnzAJ
BgNVHRMEAjAAMB0GA1UdDgQWBBTW8ZqTiOZIAAd37RFKmb0x7SED6jBRBgNVHSME
SjBIgBT47UWbZvBuxRDoM+b2f5Eq181lcKEapBgwFjEUMBIGA1UEAwwLdGVhbTQ0
NC1uZXSCFGUZqSKTlcgwSXLM7xhTyYxx+4l4MBMGA1UdJQQMMAoGCCsGAQUFBwMC
MAsGA1UdDwQEAwIHgDANBgkqhkiG9w0BAQsFAAOCAQEAZ5hD4bizT8X+/sAU/WLY
Dlgu+CNtYiXynMTsrnS0iiXvO8t5dMhOBKzJHnCjy+oPRhwagOgobhAJJMOT8tlM
lgKS5eXTdbxJ0KzQfeKfrbloW9g0xJ8kBS0MzgOoxcUo5yPdHk3BXcgJBQ3qGSIw
ZGso9JjziNAscG7AKBdpk0bCyC6sxklWgSBrqDwcf1rsXylJf+xNqu+0PMLG5FcY
WxXYHuRlukKQycYUrAff3P8ExueGAjgws2Bww9rI054U9tUkYDJrpaG9VI+pvwvs
o3zPS3l2+wRSHh5x25Z0lYXC9j/n5VjEmbZEiBKlC88BYH16szknzm7LoVVVd1PW
Iw==
-----END CERTIFICATE-----
