Certificate:
    Data:
        Version: 3 (0x2)
        Serial Number:
            ec:e5:10:fc:0b:e0:70:93:04:f3:29:60:83:f3:d1:d8
        Signature Algorithm: sha256WithRSAEncryption
        Issuer: CN=team444-net
        Validity
            Not Before: Nov  3 20:47:20 2023 GMT
            Not After : Oct 18 20:47:20 2026 GMT
        Subject: CN=team444-server
        Subject Public Key Info:
            Public Key Algorithm: rsaEncryption
                Public-Key: (2048 bit)
                Modulus:
                    00:c8:bc:78:cf:dd:00:70:3a:43:4f:c6:0c:1e:1a:
                    6c:be:40:7d:80:c0:6a:72:a0:33:4d:f7:0a:05:7c:
                    8a:73:f6:62:c8:b2:cd:a2:3f:b9:0c:26:0d:f6:f7:
                    ef:c7:15:25:aa:3e:28:fd:dd:7d:6d:18:c7:59:6f:
                    28:5b:2f:06:fd:30:19:80:da:58:8c:25:64:08:38:
                    7a:c7:a6:71:40:36:90:5c:d9:22:53:56:a4:09:02:
                    c4:f7:ab:f6:87:db:f9:74:c3:0a:14:86:6d:eb:b2:
                    a7:1e:1a:86:83:35:53:d9:25:c0:5b:1b:ad:63:01:
                    c0:20:14:e5:92:3a:2d:77:f1:de:97:78:d8:de:32:
                    b3:9d:7b:7c:a9:c6:f7:8c:e4:64:1d:a7:bd:57:f3:
                    7f:18:13:55:a0:04:ff:90:dd:72:99:cf:07:33:51:
                    b8:73:d1:e1:61:02:ef:54:c1:2f:33:ff:4a:63:56:
                    2e:ad:f9:1c:e3:77:66:9c:dc:c2:ea:1e:49:86:7d:
                    3d:7a:45:f5:b8:1a:cf:6e:f8:76:97:f9:e5:6b:28:
                    aa:06:9a:60:e9:77:25:28:e6:65:46:ee:5c:6c:72:
                    ad:23:63:8c:55:9e:10:9a:e4:4a:9b:13:9d:94:b7:
                    03:2b:fc:45:43:64:a4:31:78:92:bb:dc:bf:c5:7c:
                    20:ed
                Exponent: 65537 (0x10001)
        X509v3 extensions:
            X509v3 Basic Constraints: 
                CA:FALSE
            X509v3 Subject Key Identifier: 
                92:46:A2:55:FC:11:BA:62:84:AD:9B:33:38:FC:99:DB:B9:BE:DA:78
            X509v3 Authority Key Identifier: 
                keyid:76:B6:9F:13:11:11:87:C4:41:70:6C:BD:0F:29:F0:15:C0:53:40:C9
                DirName:/CN=team444-net
                serial:15:D7:92:A0:F7:CE:DD:5D:DA:25:D1:13:36:34:CF:07:64:D1:22:A1
            X509v3 Extended Key Usage: 
                TLS Web Server Authentication
            X509v3 Key Usage: 
                Digital Signature, Key Encipherment
            X509v3 Subject Alternative Name: 
                DNS:team444-server
    Signature Algorithm: sha256WithRSAEncryption
    Signature Value:
        01:a9:21:9c:e0:8d:c9:84:45:68:18:97:87:60:c1:ba:09:ec:
        29:9f:de:65:bb:91:fe:32:14:9f:88:46:77:cb:10:f3:f5:71:
        a8:38:c1:20:66:db:b4:b8:e9:5f:e6:1b:79:23:f7:57:66:c7:
        6b:5e:ef:8d:b1:8b:be:87:3d:dd:6d:bc:85:ab:93:2a:cb:8c:
        ed:2f:e6:43:d0:be:55:27:ee:87:ea:03:b0:85:f1:a5:69:b5:
        ef:88:0e:3e:af:84:f4:90:8f:b9:0d:58:f6:3c:19:da:47:86:
        9e:75:17:8f:8d:be:a6:c9:22:5d:21:3e:c9:8b:aa:cd:d2:25:
        79:74:35:02:b7:d6:4b:5e:72:61:23:11:37:b2:9a:be:12:2c:
        6d:d2:25:46:c4:6c:a7:dc:4e:68:ed:db:9c:74:2a:55:e0:3e:
        68:ba:dc:5f:25:3f:18:19:6f:9f:61:93:1b:cf:19:68:c3:a5:
        95:97:29:57:bc:7c:47:f6:4e:6b:07:78:00:2e:58:76:64:14:
        65:be:13:0d:94:f0:09:e4:d5:90:20:3f:21:fb:89:5d:f2:4e:
        b5:78:d2:9e:dd:e7:6a:f4:37:b3:c2:e0:a3:37:bb:80:a5:76:
        cc:10:08:0c:bc:f9:bd:5d:6a:2b:6b:3f:b3:32:50:35:d0:67:
        e7:41:bd:08
-----BEGIN CERTIFICATE-----
MIIDeDCCAmCgAwIBAgIRAOzlEPwL4HCTBPMpYIPz0dgwDQYJKoZIhvcNAQELBQAw
FjEUMBIGA1UEAwwLdGVhbTQ0NC1uZXQwHhcNMjMxMTAzMjA0NzIwWhcNMjYxMDE4
MjA0NzIwWjAZMRcwFQYDVQQDDA50ZWFtNDQ0LXNlcnZlcjCCASIwDQYJKoZIhvcN
AQEBBQADggEPADCCAQoCggEBAMi8eM/dAHA6Q0/GDB4abL5AfYDAanKgM033CgV8
inP2YsiyzaI/uQwmDfb378cVJao+KP3dfW0Yx1lvKFsvBv0wGYDaWIwlZAg4esem
cUA2kFzZIlNWpAkCxPer9ofb+XTDChSGbeuypx4ahoM1U9klwFsbrWMBwCAU5ZI6
LXfx3pd42N4ys517fKnG94zkZB2nvVfzfxgTVaAE/5DdcpnPBzNRuHPR4WEC71TB
LzP/SmNWLq35HON3ZpzcwuoeSYZ9PXpF9bgaz274dpf55WsoqgaaYOl3JSjmZUbu
XGxyrSNjjFWeEJrkSpsTnZS3Ayv8RUNkpDF4krvcv8V8IO0CAwEAAaOBvTCBujAJ
BgNVHRMEAjAAMB0GA1UdDgQWBBSSRqJV/BG6YoStmzM4/Jnbub7aeDBRBgNVHSME
SjBIgBR2tp8TERGHxEFwbL0PKfAVwFNAyaEapBgwFjEUMBIGA1UEAwwLdGVhbTQ0
NC1uZXSCFBXXkqD3zt1d2iXREzY0zwdk0SKhMBMGA1UdJQQMMAoGCCsGAQUFBwMB
MAsGA1UdDwQEAwIFoDAZBgNVHREEEjAQgg50ZWFtNDQ0LXNlcnZlcjANBgkqhkiG
9w0BAQsFAAOCAQEAAakhnOCNyYRFaBiXh2DBugnsKZ/eZbuR/jIUn4hGd8sQ8/Vx
qDjBIGbbtLjpX+YbeSP3V2bHa17vjbGLvoc93W28hauTKsuM7S/mQ9C+VSfuh+oD
sIXxpWm174gOPq+E9JCPuQ1Y9jwZ2keGnnUXj42+pskiXSE+yYuqzdIleXQ1ArfW
S15yYSMRN7KavhIsbdIlRsRsp9xOaO3bnHQqVeA+aLrcXyU/GBlvn2GTG88ZaMOl
lZcpV7x8R/ZOawd4AC5YdmQUZb4TDZTwCeTVkCA/IfuJXfJOtXjSnt3navQ3s8Lg
oze7gKV2zBAIDLz5vV1qK2s/szJQNdBn50G9CA==
-----END CERTIFICATE-----
