Certificate:
    Data:
        Version: 3 (0x2)
        Serial Number:
            7c:29:97:ff:2e:c9:89:73:71:5e:d1:28:53:db:58:c5
        Signature Algorithm: sha256WithRSAEncryption
        Issuer: CN=team282-net
        Validity
            Not Before: Nov  4 10:45:53 2023 GMT
            Not After : Oct 19 10:45:53 2026 GMT
        Subject: CN=team282-client
        Subject Public Key Info:
            Public Key Algorithm: rsaEncryption
                Public-Key: (2048 bit)
                Modulus:
                    00:da:59:13:bc:76:e0:b9:4c:7d:db:f3:ed:a1:9d:
                    9b:0c:88:4c:d4:ca:35:38:91:24:66:9e:44:67:f9:
                    d6:ea:e2:53:af:b5:86:cf:2b:3c:1f:3b:03:a4:48:
                    f9:31:c5:62:2d:55:3f:54:14:8d:4d:36:49:9a:5e:
                    b0:db:07:bf:de:a4:11:97:df:00:1f:33:8d:db:37:
                    01:f6:7e:b5:b0:b5:92:a5:a8:2a:21:ec:d8:a0:ce:
                    0e:f9:dd:f5:99:47:2d:aa:82:e4:9b:5f:e5:70:a0:
                    d4:3c:f8:40:86:44:5e:47:92:1b:0a:a1:c3:fa:4d:
                    81:35:31:02:ad:2c:17:51:9f:6e:33:8c:13:df:b6:
                    8e:c1:dd:29:b9:b4:8c:80:25:e5:3d:ae:68:17:41:
                    a8:1f:cd:fc:9b:3e:71:0e:48:3d:d1:d5:09:d4:70:
                    eb:85:0c:60:c9:4c:ef:61:5b:51:55:9b:b4:d0:bb:
                    8c:71:0d:f9:23:60:43:d7:f1:10:b3:ad:48:71:de:
                    b5:05:c1:18:d0:bf:c4:0a:f1:50:fb:de:17:47:1d:
                    9a:f0:62:24:d0:f8:47:43:15:44:bc:41:c3:dd:96:
                    07:ef:cf:af:de:f4:99:34:36:5c:69:3f:15:fb:f7:
                    72:81:4a:03:0c:c9:0a:73:23:36:6c:37:43:80:12:
                    31:79
                Exponent: 65537 (0x10001)
        X509v3 extensions:
            X509v3 Basic Constraints: 
                CA:FALSE
            X509v3 Subject Key Identifier: 
                5F:08:D6:0C:A1:9F:BE:F6:8A:EC:49:6F:82:6A:5E:06:C6:3E:79:BB
            X509v3 Authority Key Identifier: 
                keyid:AD:18:E4:BD:3C:F2:4E:F8:16:E7:CE:35:EE:24:FA:CC:39:6E:8A:68
                DirName:/CN=team282-net
                serial:6B:1A:0E:62:67:85:F5:55:09:62:0D:4E:EA:8A:62:54:40:9B:98:86
            X509v3 Extended Key Usage: 
                TLS Web Client Authentication
            X509v3 Key Usage: 
                Digital Signature
    Signature Algorithm: sha256WithRSAEncryption
    Signature Value:
        53:52:91:3e:63:ce:d4:d4:43:03:1c:7e:58:ac:3d:37:05:28:
        67:b8:1e:50:da:7b:6a:e5:df:e6:b0:8d:db:ab:b9:8a:49:ce:
        4a:d5:1f:6e:1d:49:43:bf:df:7b:53:d5:e0:98:13:8b:6a:2a:
        ae:46:77:60:5c:c0:93:76:b0:2d:da:b3:f8:e2:91:16:8b:c9:
        1a:af:1b:83:a2:1b:f3:19:c0:9b:e6:d7:97:cc:ee:60:e4:8c:
        80:84:e8:54:36:b3:ed:c0:6d:da:5a:d5:f9:57:54:61:e9:a0:
        86:a9:45:bc:89:44:fd:c0:3f:39:5d:86:76:4c:63:74:5f:9e:
        d4:ad:fb:c8:4b:08:20:c5:16:c2:15:ba:82:38:ae:5a:c9:b7:
        6e:a5:27:21:d3:3a:74:09:bc:5f:05:0f:d2:03:24:bc:e7:37:
        48:0d:6d:59:5d:b7:77:d3:cd:00:15:01:cd:e9:d7:19:ab:01:
        56:67:20:8b:69:28:94:6e:82:89:c8:ea:18:58:a7:ab:94:76:
        2b:9e:19:63:55:05:b0:a7:8f:dd:a4:e1:7b:8f:2e:f5:e8:58:
        ee:29:cb:67:4c:4a:c7:87:e6:08:6e:06:8d:a1:6a:0c:bc:8a:
        b3:cb:10:b8:40:c1:99:be:a6:2f:a2:76:a8:8b:e7:be:c3:c3:
        20:76:9f:e5
-----BEGIN CERTIFICATE-----
MIIDXDCCAkSgAwIBAgIQfCmX/y7JiXNxXtEoU9tYxTANBgkqhkiG9w0BAQsFADAW
MRQwEgYDVQQDDAt0ZWFtMjgyLW5ldDAeFw0yMzExMDQxMDQ1NTNaFw0yNjEwMTkx
MDQ1NTNaMBkxFzAVBgNVBAMMDnRlYW0yODItY2xpZW50MIIBIjANBgkqhkiG9w0B
AQEFAAOCAQ8AMIIBCgKCAQEA2lkTvHbguUx92/PtoZ2bDIhM1Mo1OJEkZp5EZ/nW
6uJTr7WGzys8HzsDpEj5McViLVU/VBSNTTZJml6w2we/3qQRl98AHzON2zcB9n61
sLWSpagqIezYoM4O+d31mUctqoLkm1/lcKDUPPhAhkReR5IbCqHD+k2BNTECrSwX
UZ9uM4wT37aOwd0pubSMgCXlPa5oF0GoH838mz5xDkg90dUJ1HDrhQxgyUzvYVtR
VZu00LuMcQ35I2BD1/EQs61Icd61BcEY0L/ECvFQ+94XRx2a8GIk0PhHQxVEvEHD
3ZYH78+v3vSZNDZcaT8V+/dygUoDDMkKcyM2bDdDgBIxeQIDAQABo4GiMIGfMAkG
A1UdEwQCMAAwHQYDVR0OBBYEFF8I1gyhn772iuxJb4JqXgbGPnm7MFEGA1UdIwRK
MEiAFK0Y5L088k74FufONe4k+sw5bopooRqkGDAWMRQwEgYDVQQDDAt0ZWFtMjgy
LW5ldIIUaxoOYmeF9VUJYg1O6opiVECbmIYwEwYDVR0lBAwwCgYIKwYBBQUHAwIw
CwYDVR0PBAQDAgeAMA0GCSqGSIb3DQEBCwUAA4IBAQBTUpE+Y87U1EMDHH5YrD03
BShnuB5Q2ntq5d/msI3bq7mKSc5K1R9uHUlDv997U9XgmBOLaiquRndgXMCTdrAt
2rP44pEWi8karxuDohvzGcCb5teXzO5g5IyAhOhUNrPtwG3aWtX5V1Rh6aCGqUW8
iUT9wD85XYZ2TGN0X57UrfvISwggxRbCFbqCOK5aybdupSch0zp0CbxfBQ/SAyS8
5zdIDW1ZXbd3080AFQHN6dcZqwFWZyCLaSiUboKJyOoYWKerlHYrnhljVQWwp4/d
pOF7jy716FjuKctnTErHh+YIbgaNoWoMvIqzyxC4QMGZvqYvonaoi+e+w8Mgdp/l
-----END CERTIFICATE-----
