Certificate:
    Data:
        Version: 3 (0x2)
        Serial Number:
            d1:5d:dc:d2:09:ac:39:7e:3a:b2:57:a3:60:aa:59:97
        Signature Algorithm: sha256WithRSAEncryption
        Issuer: CN=team282-net
        Validity
            Not Before: Nov  4 11:33:22 2023 GMT
            Not After : Oct 19 11:33:22 2026 GMT
        Subject: CN=team282-server
        Subject Public Key Info:
            Public Key Algorithm: rsaEncryption
                Public-Key: (2048 bit)
                Modulus:
                    00:d3:e5:52:ae:38:08:19:b0:0e:d3:0c:d0:28:de:
                    73:9f:db:83:5c:3d:12:67:1e:bb:94:dc:83:5f:39:
                    31:1b:e6:91:91:57:33:be:ac:fd:d7:a9:d6:9d:2b:
                    17:24:f0:4f:19:62:5d:b3:05:23:d5:d9:b9:ea:eb:
                    c3:54:e9:f0:44:88:35:7c:f1:c6:f9:01:93:53:10:
                    ec:21:bb:14:f7:41:c1:99:50:b9:c4:1a:81:b9:64:
                    85:07:63:db:06:38:9f:33:2d:42:2b:16:8b:fd:05:
                    4f:39:e6:d8:1e:58:c4:46:de:0d:88:a6:47:d5:30:
                    ff:16:22:8b:df:39:86:d8:3f:b9:b3:60:3b:00:8e:
                    40:98:c1:1b:72:88:34:1f:26:fd:f3:07:d0:d0:87:
                    e1:b6:c1:ec:9a:14:b1:57:70:f7:57:05:a9:9d:1a:
                    7f:7b:e8:ee:14:ff:42:7b:68:78:6e:ee:c6:bf:45:
                    96:7d:43:9c:91:66:db:4f:1f:d8:a5:98:af:4c:c7:
                    98:c6:ce:9e:8e:d7:e2:71:ae:68:ae:38:77:a1:cf:
                    cc:c3:d1:0a:6d:39:f2:40:9a:68:69:c9:8e:97:0c:
                    02:ee:dd:e6:f3:98:cc:75:fd:d6:fa:ec:a4:d3:6d:
                    b0:f6:14:35:9a:f6:cf:5d:0d:c9:8b:be:0f:19:b6:
                    d8:bf
                Exponent: 65537 (0x10001)
        X509v3 extensions:
            X509v3 Basic Constraints: 
                CA:FALSE
            X509v3 Subject Key Identifier: 
                34:53:61:6D:9A:61:94:97:F0:AB:56:AA:10:BA:65:EF:13:90:E0:37
            X509v3 Authority Key Identifier: 
                keyid:D7:EB:48:29:F3:7F:E7:C7:A1:AB:CB:B1:88:0F:4D:90:BB:4C:40:DD
                DirName:/CN=team282-net
                serial:58:96:52:AF:02:6E:1D:12:CA:C8:10:B5:53:F2:43:75:A5:28:5F:8E
            X509v3 Extended Key Usage: 
                TLS Web Server Authentication
            X509v3 Key Usage: 
                Digital Signature, Key Encipherment
            X509v3 Subject Alternative Name: 
                DNS:team282-server
    Signature Algorithm: sha256WithRSAEncryption
    Signature Value:
        ca:ba:0e:16:3d:89:ff:4c:e9:66:c8:4c:12:ee:ad:66:35:b6:
        8c:1f:0d:f5:ec:76:46:ee:c2:22:2c:e1:37:a5:75:2c:31:05:
        22:f3:33:79:35:b3:51:33:49:f0:99:20:50:64:09:99:1a:00:
        e0:fc:7e:58:56:fd:f8:a2:8e:de:19:4d:2a:cb:5b:2e:18:06:
        4a:c6:d3:4d:e7:e1:44:8b:67:8c:b9:2a:07:a6:da:ea:63:4d:
        95:f7:f0:10:a6:60:4c:a9:cd:e6:54:c8:0b:4b:0a:cc:e0:89:
        cc:ab:e9:f0:cb:ae:a3:a9:bc:5e:73:9b:19:72:8f:3b:07:53:
        66:28:e8:85:62:11:cc:99:45:cb:1a:66:28:c9:b0:53:5e:72:
        b8:10:f3:6c:dd:6b:57:bc:d0:79:05:77:34:ed:52:04:8b:29:
        34:6d:64:5d:ae:6d:c5:d6:f4:2b:77:04:df:a2:aa:c9:54:5b:
        0d:f8:c4:29:84:dc:30:16:f9:11:ba:3e:a2:29:56:84:3c:d6:
        e1:a5:2b:69:08:5f:15:d4:4a:b6:8e:d8:39:c6:f9:9f:48:2d:
        4e:93:22:e4:b2:b1:58:31:34:b6:26:a6:37:a4:aa:7c:08:8c:
        74:9b:78:33:a8:42:ff:99:64:c0:19:d3:62:1d:57:9e:2d:0f:
        89:38:d1:b4
-----BEGIN CERTIFICATE-----
MIIDeDCCAmCgAwIBAgIRANFd3NIJrDl+OrJXo2CqWZcwDQYJKoZIhvcNAQELBQAw
FjEUMBIGA1UEAwwLdGVhbTI4Mi1uZXQwHhcNMjMxMTA0MTEzMzIyWhcNMjYxMDE5
MTEzMzIyWjAZMRcwFQYDVQQDDA50ZWFtMjgyLXNlcnZlcjCCASIwDQYJKoZIhvcN
AQEBBQADggEPADCCAQoCggEBANPlUq44CBmwDtMM0Cjec5/bg1w9Emceu5Tcg185
MRvmkZFXM76s/dep1p0rFyTwTxliXbMFI9XZuerrw1Tp8ESINXzxxvkBk1MQ7CG7
FPdBwZlQucQagblkhQdj2wY4nzMtQisWi/0FTznm2B5YxEbeDYimR9Uw/xYii985
htg/ubNgOwCOQJjBG3KINB8m/fMH0NCH4bbB7JoUsVdw91cFqZ0af3vo7hT/Qnto
eG7uxr9Fln1DnJFm208f2KWYr0zHmMbOno7X4nGuaK44d6HPzMPRCm058kCaaGnJ
jpcMAu7d5vOYzHX91vrspNNtsPYUNZr2z10NyYu+Dxm22L8CAwEAAaOBvTCBujAJ
BgNVHRMEAjAAMB0GA1UdDgQWBBQ0U2FtmmGUl/CrVqoQumXvE5DgNzBRBgNVHSME
SjBIgBTX60gp83/nx6Gry7GID02Qu0xA3aEapBgwFjEUMBIGA1UEAwwLdGVhbTI4
Mi1uZXSCFFiWUq8Cbh0SysgQtVPyQ3WlKF+OMBMGA1UdJQQMMAoGCCsGAQUFBwMB
MAsGA1UdDwQEAwIFoDAZBgNVHREEEjAQgg50ZWFtMjgyLXNlcnZlcjANBgkqhkiG
9w0BAQsFAAOCAQEAyroOFj2J/0zpZshMEu6tZjW2jB8N9ex2Ru7CIizhN6V1LDEF
IvMzeTWzUTNJ8JkgUGQJmRoA4Px+WFb9+KKO3hlNKstbLhgGSsbTTefhRItnjLkq
B6ba6mNNlffwEKZgTKnN5lTIC0sKzOCJzKvp8Muuo6m8XnObGXKPOwdTZijohWIR
zJlFyxpmKMmwU15yuBDzbN1rV7zQeQV3NO1SBIspNG1kXa5txdb0K3cE36KqyVRb
DfjEKYTcMBb5Ebo+oilWhDzW4aUraQhfFdRKto7YOcb5n0gtTpMi5LKxWDE0tiam
N6SqfAiMdJt4M6hC/5lkwBnTYh1Xni0PiTjRtA==
-----END CERTIFICATE-----
