Certificate:
    Data:
        Version: 3 (0x2)
        Serial Number:
            ee:92:0f:87:83:9b:ff:7f:c8:9f:90:2a:f8:09:8d:7a
        Signature Algorithm: sha256WithRSAEncryption
        Issuer: CN=team282-net
        Validity
            Not Before: Nov  3 20:44:26 2023 GMT
            Not After : Oct 18 20:44:26 2026 GMT
        Subject: CN=team282-client
        Subject Public Key Info:
            Public Key Algorithm: rsaEncryption
                Public-Key: (2048 bit)
                Modulus:
                    00:c8:7b:aa:3e:6b:a1:30:ca:fb:60:f0:bf:bc:38:
                    70:35:85:52:64:8c:c4:eb:c7:c7:06:d1:81:2e:84:
                    ea:97:b5:b2:c0:e2:6c:71:04:a6:50:d9:02:e4:b8:
                    1e:69:02:2c:e1:66:1f:04:83:04:80:5f:37:a1:fe:
                    d2:9a:3d:d6:78:94:12:3f:b5:8a:df:42:3e:f2:44:
                    86:51:78:3c:87:88:21:20:f2:33:1c:31:79:61:eb:
                    bf:d5:5c:50:81:f1:c5:2c:78:7b:da:c1:a7:ba:d1:
                    bf:5b:67:e4:9d:d6:80:4d:29:2a:54:c0:bb:ee:f7:
                    be:08:74:2b:0b:70:1a:4e:c2:ad:81:88:ed:bf:c7:
                    1d:cc:7e:6f:6e:03:f8:e7:8f:cf:53:c7:c2:40:d5:
                    b2:60:03:9c:b6:6a:4c:5d:c4:cc:2b:77:28:a3:4d:
                    a2:3d:0f:58:6c:b8:40:24:cd:b0:ef:2a:49:17:05:
                    ad:a2:81:48:80:e6:ac:2f:93:37:09:bb:e9:00:3d:
                    fb:ec:4f:95:9e:cd:5f:6f:08:35:ee:ad:be:01:58:
                    57:25:67:eb:83:e2:7e:9b:92:bd:d1:aa:7c:c1:00:
                    a9:7c:8d:c8:cd:05:e7:33:e9:4b:62:fe:85:aa:c7:
                    c9:a3:aa:c3:47:a2:97:9b:9e:d3:dd:7c:ee:2e:44:
                    39:cd
                Exponent: 65537 (0x10001)
        X509v3 extensions:
            X509v3 Basic Constraints: 
                CA:FALSE
            X509v3 Subject Key Identifier: 
                A8:23:E2:49:A4:2F:AD:57:89:34:4C:4B:8C:F0:00:7D:02:3B:E5:00
            X509v3 Authority Key Identifier: 
                keyid:1D:5E:1F:94:27:E3:1F:C3:F6:25:7C:2A:8D:B1:23:77:F8:16:29:75
                DirName:/CN=team282-net
                serial:79:1D:94:76:FB:54:20:31:E9:77:CB:B6:D0:F9:FC:AA:12:BB:F4:1E
            X509v3 Extended Key Usage: 
                TLS Web Client Authentication
            X509v3 Key Usage: 
                Digital Signature
    Signature Algorithm: sha256WithRSAEncryption
    Signature Value:
        aa:96:71:a5:ec:eb:e2:72:fe:3b:53:43:13:7e:90:88:be:77:
        c4:12:f1:a9:eb:f6:14:cb:72:ce:6d:72:6c:51:10:2b:e5:af:
        d4:b9:c9:e9:6b:b3:1f:05:1c:b2:c9:a6:81:31:b4:0d:da:ec:
        c3:df:1b:8e:42:48:9d:33:b9:06:f6:83:79:22:ed:b6:72:e9:
        d2:5c:2b:de:e4:08:76:1a:ac:cc:8b:9a:07:a3:a3:e0:3d:29:
        b2:4d:f2:2e:61:ba:d7:d9:00:27:06:45:5f:2d:7c:24:e1:3a:
        0b:16:17:5e:3c:bc:e2:81:d7:bc:74:e9:95:f6:bf:d6:e9:bd:
        f8:75:1f:c8:b3:6c:b3:4c:fb:33:65:e7:b6:79:aa:b7:da:96:
        72:cc:08:db:fd:ea:13:11:39:b9:75:a5:e2:9a:98:36:8d:c2:
        f6:a7:e1:5e:b0:c3:40:83:0c:1a:b0:f8:ff:1c:2c:4c:ac:38:
        c4:2a:34:c5:2b:bc:a7:a5:00:e6:31:62:35:23:da:7f:c1:2e:
        aa:43:05:b0:a8:59:e3:3b:47:99:23:47:77:90:67:13:1b:02:
        84:d5:07:d0:a3:4e:21:92:f7:d3:f6:5f:04:6c:53:af:2f:21:
        58:57:30:ca:0d:be:ef:45:ed:ba:a6:f3:b1:78:0e:02:c1:53:
        60:7e:a6:51
-----BEGIN CERTIFICATE-----
MIIDXTCCAkWgAwIBAgIRAO6SD4eDm/9/yJ+QKvgJjXowDQYJKoZIhvcNAQELBQAw
FjEUMBIGA1UEAwwLdGVhbTI4Mi1uZXQwHhcNMjMxMTAzMjA0NDI2WhcNMjYxMDE4
MjA0NDI2WjAZMRcwFQYDVQQDDA50ZWFtMjgyLWNsaWVudDCCASIwDQYJKoZIhvcN
AQEBBQADggEPADCCAQoCggEBAMh7qj5roTDK+2Dwv7w4cDWFUmSMxOvHxwbRgS6E
6pe1ssDibHEEplDZAuS4HmkCLOFmHwSDBIBfN6H+0po91niUEj+1it9CPvJEhlF4
PIeIISDyMxwxeWHrv9VcUIHxxSx4e9rBp7rRv1tn5J3WgE0pKlTAu+73vgh0Kwtw
Gk7CrYGI7b/HHcx+b24D+OePz1PHwkDVsmADnLZqTF3EzCt3KKNNoj0PWGy4QCTN
sO8qSRcFraKBSIDmrC+TNwm76QA9++xPlZ7NX28INe6tvgFYVyVn64PifpuSvdGq
fMEAqXyNyM0F5zPpS2L+harHyaOqw0eil5ue09187i5EOc0CAwEAAaOBojCBnzAJ
BgNVHRMEAjAAMB0GA1UdDgQWBBSoI+JJpC+tV4k0TEuM8AB9AjvlADBRBgNVHSME
SjBIgBQdXh+UJ+Mfw/YlfCqNsSN3+BYpdaEapBgwFjEUMBIGA1UEAwwLdGVhbTI4
Mi1uZXSCFHkdlHb7VCAx6XfLttD5/KoSu/QeMBMGA1UdJQQMMAoGCCsGAQUFBwMC
MAsGA1UdDwQEAwIHgDANBgkqhkiG9w0BAQsFAAOCAQEAqpZxpezr4nL+O1NDE36Q
iL53xBLxqev2FMtyzm1ybFEQK+Wv1LnJ6WuzHwUcssmmgTG0Ddrsw98bjkJInTO5
BvaDeSLttnLp0lwr3uQIdhqszIuaB6Oj4D0psk3yLmG619kAJwZFXy18JOE6CxYX
Xjy84oHXvHTplfa/1um9+HUfyLNss0z7M2Xntnmqt9qWcswI2/3qExE5uXWl4pqY
No3C9qfhXrDDQIMMGrD4/xwsTKw4xCo0xSu8p6UA5jFiNSPaf8EuqkMFsKhZ4ztH
mSNHd5BnExsChNUH0KNOIZL30/ZfBGxTry8hWFcwyg2+70XtuqbzsXgOAsFTYH6m
UQ==
-----END CERTIFICATE-----
