Certificate:
    Data:
        Version: 3 (0x2)
        Serial Number:
            06:b3:c9:fe:6c:a9:0b:20:f9:06:90:8b:5b:a7:3d
        Signature Algorithm: sha256WithRSAEncryption
        Issuer: CN=team408-net
        Validity
            Not Before: Nov  4 11:36:40 2023 GMT
            Not After : Oct 19 11:36:40 2026 GMT
        Subject: CN=team408-client
        Subject Public Key Info:
            Public Key Algorithm: rsaEncryption
                Public-Key: (2048 bit)
                Modulus:
                    00:ba:c9:7d:0c:19:71:79:be:ae:12:77:40:d4:d1:
                    36:f6:33:ec:52:8f:38:94:88:90:f8:f6:1f:d4:d0:
                    86:b1:fa:2b:3c:4e:40:22:94:c6:fa:4c:4e:d1:7e:
                    f4:72:a2:14:7a:d6:16:2b:4f:55:27:8f:4a:13:2b:
                    7d:c0:c5:10:76:fd:a0:8c:8d:a5:9b:43:92:89:ce:
                    c6:c2:64:68:c9:ad:e9:c0:a9:cc:59:c4:64:70:2a:
                    8a:b7:49:47:fa:11:83:df:6e:6b:18:c8:ee:b9:87:
                    56:4c:f4:a4:d1:63:c9:03:b0:71:47:9c:24:87:e0:
                    1c:ae:2a:9d:b1:ed:da:64:c6:ee:35:cb:41:04:33:
                    06:47:c4:28:11:d0:6f:90:24:59:66:10:cb:b2:96:
                    e3:03:cd:74:00:38:c0:59:69:85:11:0f:b9:3f:3f:
                    da:d6:19:c6:0a:32:f1:1f:19:12:55:58:ca:bb:4c:
                    e9:47:88:2a:73:a7:64:66:21:e6:c1:b9:88:3c:db:
                    eb:4a:35:7b:8e:35:c4:01:c0:65:85:5f:df:2f:21:
                    39:a4:bf:5d:97:a6:d6:64:89:f5:36:08:55:4b:67:
                    0a:a5:04:47:56:f4:bd:de:3c:b0:c1:60:47:85:61:
                    f4:ee:25:9f:0e:a0:cd:da:a0:6e:f5:ba:1d:5d:1e:
                    4c:39
                Exponent: 65537 (0x10001)
        X509v3 extensions:
            X509v3 Basic Constraints: 
                CA:FALSE
            X509v3 Subject Key Identifier: 
                90:8F:F0:FA:F1:AA:30:16:CB:1E:76:BF:6C:1A:C1:6A:5D:65:CB:73
            X509v3 Authority Key Identifier: 
                keyid:12:D3:A4:7F:6B:70:67:A1:DA:10:C4:1A:08:95:4A:18:64:6F:66:90
                DirName:/CN=team408-net
                serial:4B:02:83:3C:04:C3:16:7F:F2:70:AC:09:40:85:5D:34:01:92:7E:5C
            X509v3 Extended Key Usage: 
                TLS Web Client Authentication
            X509v3 Key Usage: 
                Digital Signature
    Signature Algorithm: sha256WithRSAEncryption
    Signature Value:
        43:d8:37:df:80:64:9c:46:06:dc:c2:0e:cc:1c:58:bc:3a:d2:
        f9:13:2a:0d:ca:f9:7a:e0:fa:33:0a:76:da:2c:46:9a:ff:f4:
        30:fc:1b:01:a5:18:97:d6:ae:c9:6b:32:ae:20:10:c0:fe:80:
        eb:0c:48:19:85:2c:d5:e4:05:68:5f:71:ac:4a:ed:f2:0f:4f:
        3f:2b:33:d8:3b:f9:3c:30:19:b9:29:99:71:eb:93:a1:9d:c4:
        d9:1c:d8:19:1a:47:2c:79:bd:f2:b9:bb:b2:e3:6e:37:a2:ab:
        50:97:a8:20:a7:ca:54:ee:aa:fc:93:30:c9:7c:7d:0a:ca:13:
        c8:6a:52:f6:80:91:ff:d7:0e:ad:59:3b:e5:91:5b:2e:c1:ce:
        9d:da:1b:cd:d4:24:96:44:12:3d:c0:e6:60:2e:75:e3:17:a9:
        e7:25:b3:99:a0:b1:f8:f2:f4:77:42:17:6a:c4:fb:f8:68:c8:
        b4:61:7f:80:03:23:38:57:0d:44:7e:0c:6a:e2:19:94:52:ef:
        8c:fd:87:a4:38:b5:6e:d3:3f:2a:87:17:a6:4f:a5:b6:dc:9e:
        37:81:19:09:8e:75:12:e7:d9:6e:64:e1:fb:7b:40:57:72:e1:
        9f:1e:ef:53:a8:b3:e2:e2:a0:e7:a0:7b:05:54:cb:73:95:60:
        c5:db:59:af
-----BEGIN CERTIFICATE-----
MIIDWzCCAkOgAwIBAgIPBrPJ/mypCyD5BpCLW6c9MA0GCSqGSIb3DQEBCwUAMBYx
FDASBgNVBAMMC3RlYW00MDgtbmV0MB4XDTIzMTEwNDExMzY0MFoXDTI2MTAxOTEx
MzY0MFowGTEXMBUGA1UEAwwOdGVhbTQwOC1jbGllbnQwggEiMA0GCSqGSIb3DQEB
AQUAA4IBDwAwggEKAoIBAQC6yX0MGXF5vq4Sd0DU0Tb2M+xSjziUiJD49h/U0Iax
+is8TkAilMb6TE7RfvRyohR61hYrT1Unj0oTK33AxRB2/aCMjaWbQ5KJzsbCZGjJ
renAqcxZxGRwKoq3SUf6EYPfbmsYyO65h1ZM9KTRY8kDsHFHnCSH4ByuKp2x7dpk
xu41y0EEMwZHxCgR0G+QJFlmEMuyluMDzXQAOMBZaYURD7k/P9rWGcYKMvEfGRJV
WMq7TOlHiCpzp2RmIebBuYg82+tKNXuONcQBwGWFX98vITmkv12XptZkifU2CFVL
ZwqlBEdW9L3ePLDBYEeFYfTuJZ8OoM3aoG71uh1dHkw5AgMBAAGjgaIwgZ8wCQYD
VR0TBAIwADAdBgNVHQ4EFgQUkI/w+vGqMBbLHna/bBrBal1ly3MwUQYDVR0jBEow
SIAUEtOkf2twZ6HaEMQaCJVKGGRvZpChGqQYMBYxFDASBgNVBAMMC3RlYW00MDgt
bmV0ghRLAoM8BMMWf/JwrAlAhV00AZJ+XDATBgNVHSUEDDAKBggrBgEFBQcDAjAL
BgNVHQ8EBAMCB4AwDQYJKoZIhvcNAQELBQADggEBAEPYN9+AZJxGBtzCDswcWLw6
0vkTKg3K+Xrg+jMKdtosRpr/9DD8GwGlGJfWrslrMq4gEMD+gOsMSBmFLNXkBWhf
caxK7fIPTz8rM9g7+TwwGbkpmXHrk6GdxNkc2BkaRyx5vfK5u7Ljbjeiq1CXqCCn
ylTuqvyTMMl8fQrKE8hqUvaAkf/XDq1ZO+WRWy7Bzp3aG83UJJZEEj3A5mAudeMX
qecls5mgsfjy9HdCF2rE+/hoyLRhf4ADIzhXDUR+DGriGZRS74z9h6Q4tW7TPyqH
F6ZPpbbcnjeBGQmOdRLn2W5k4ft7QFdy4Z8e71Oos+LioOegewVUy3OVYMXbWa8=
-----END CERTIFICATE-----
