Certificate:
    Data:
        Version: 3 (0x2)
        Serial Number:
            0c:b2:30:4b:56:de:2f:54:7c:0e:c4:6c:6b:ff:33:73
        Signature Algorithm: sha256WithRSAEncryption
        Issuer: CN=team408-net
        Validity
            Not Before: Nov  4 11:36:40 2023 GMT
            Not After : Oct 19 11:36:40 2026 GMT
        Subject: CN=team408-server
        Subject Public Key Info:
            Public Key Algorithm: rsaEncryption
                Public-Key: (2048 bit)
                Modulus:
                    00:c7:6b:d5:1d:8f:17:c5:53:59:c9:e2:73:ef:d5:
                    6a:4f:de:ad:96:e9:21:b9:ce:fd:e7:d2:ab:01:de:
                    e0:a0:fe:fa:06:f1:70:f8:6a:1a:3c:66:0f:4a:de:
                    a8:cb:a7:f3:53:17:c1:e1:0b:cc:34:93:52:d7:71:
                    c3:2a:1b:2f:d6:96:cf:52:fe:60:0f:10:b8:f7:66:
                    cf:dc:b2:39:09:44:63:91:1d:56:21:4c:21:e9:b7:
                    44:01:65:88:49:84:85:8a:c5:ce:68:30:f0:2c:be:
                    8d:4b:ad:78:08:77:b2:65:bc:14:ad:da:6d:fe:3d:
                    d7:5f:6e:ca:28:fc:92:9c:8d:ba:ff:8f:77:b4:c8:
                    c7:f7:15:09:99:9f:3e:65:83:4b:67:57:e7:5c:1e:
                    81:59:c2:f7:32:64:9d:9f:d7:60:94:ec:dd:e6:35:
                    c1:cf:54:34:1d:9d:7a:01:d5:d1:9c:a4:0d:72:1d:
                    56:23:83:66:99:57:d5:82:c3:bb:33:c3:e1:77:30:
                    02:f9:48:50:16:de:34:60:f1:e0:1a:1a:15:ba:ea:
                    44:26:34:4c:fd:4a:74:bf:2a:bb:ed:73:ae:89:6f:
                    13:c7:d9:79:e4:9f:f5:63:1e:53:04:c9:ff:05:87:
                    79:64:95:a7:6c:0a:3c:d2:03:22:c3:53:91:67:ed:
                    82:1b
                Exponent: 65537 (0x10001)
        X509v3 extensions:
            X509v3 Basic Constraints: 
                CA:FALSE
            X509v3 Subject Key Identifier: 
                B0:A5:BB:87:2A:F5:64:E0:5F:51:E5:92:88:D0:B1:0D:B6:A9:AE:C2
            X509v3 Authority Key Identifier: 
                keyid:12:D3:A4:7F:6B:70:67:A1:DA:10:C4:1A:08:95:4A:18:64:6F:66:90
                DirName:/CN=team408-net
                serial:4B:02:83:3C:04:C3:16:7F:F2:70:AC:09:40:85:5D:34:01:92:7E:5C
            X509v3 Extended Key Usage: 
                TLS Web Server Authentication
            X509v3 Key Usage: 
                Digital Signature, Key Encipherment
            X509v3 Subject Alternative Name: 
                DNS:team408-server
    Signature Algorithm: sha256WithRSAEncryption
    Signature Value:
        60:45:f2:03:a2:2f:34:4b:99:80:40:a4:26:e3:fb:bf:f3:9c:
        f1:de:7e:c8:d8:3e:0a:c9:77:21:d0:4d:fe:4d:fb:cd:b9:20:
        31:bd:2b:8b:99:89:3f:99:02:a1:cc:1e:21:ef:fd:8f:2f:49:
        ee:cf:b0:b7:53:62:9b:44:f1:17:28:5d:84:77:fb:4e:ba:bc:
        35:d5:f8:75:01:c8:0e:56:41:6e:d7:b4:b7:c4:2b:34:8f:a6:
        c1:5e:9b:b8:f4:a9:e1:b1:4b:64:cb:99:60:40:9e:db:69:e6:
        5e:29:9a:26:e0:e8:aa:e1:5f:b1:96:5b:ac:e7:b7:ce:bc:6f:
        e2:8f:a4:83:47:0d:34:d0:f0:ea:6d:7f:31:42:f9:2c:63:5c:
        a4:80:35:9b:02:01:fe:b8:c3:8e:3a:4c:3d:4e:50:0d:bd:f2:
        99:f8:07:04:56:16:69:69:38:94:d3:77:42:e9:fa:8c:ce:0b:
        88:76:8a:85:56:1a:f9:9c:3a:b1:af:5d:d4:ab:8f:7e:76:71:
        24:f0:dc:95:64:a9:8c:f9:3a:9f:43:80:6b:a0:6a:8b:6c:2b:
        06:00:31:7e:78:c1:f2:d7:eb:8a:50:b2:78:c2:c3:20:5a:26:
        e2:ec:c4:5b:bc:01:30:4f:0d:54:2f:f5:fe:b6:0d:97:e2:63:
        c1:7e:77:24
-----BEGIN CERTIFICATE-----
MIIDdzCCAl+gAwIBAgIQDLIwS1beL1R8DsRsa/8zczANBgkqhkiG9w0BAQsFADAW
MRQwEgYDVQQDDAt0ZWFtNDA4LW5ldDAeFw0yMzExMDQxMTM2NDBaFw0yNjEwMTkx
MTM2NDBaMBkxFzAVBgNVBAMMDnRlYW00MDgtc2VydmVyMIIBIjANBgkqhkiG9w0B
AQEFAAOCAQ8AMIIBCgKCAQEAx2vVHY8XxVNZyeJz79VqT96tlukhuc7959KrAd7g
oP76BvFw+GoaPGYPSt6oy6fzUxfB4QvMNJNS13HDKhsv1pbPUv5gDxC492bP3LI5
CURjkR1WIUwh6bdEAWWISYSFisXOaDDwLL6NS614CHeyZbwUrdpt/j3XX27KKPyS
nI26/493tMjH9xUJmZ8+ZYNLZ1fnXB6BWcL3MmSdn9dglOzd5jXBz1Q0HZ16AdXR
nKQNch1WI4NmmVfVgsO7M8PhdzAC+UhQFt40YPHgGhoVuupEJjRM/Up0vyq77XOu
iW8Tx9l55J/1Yx5TBMn/BYd5ZJWnbAo80gMiw1ORZ+2CGwIDAQABo4G9MIG6MAkG
A1UdEwQCMAAwHQYDVR0OBBYEFLClu4cq9WTgX1HlkojQsQ22qa7CMFEGA1UdIwRK
MEiAFBLTpH9rcGeh2hDEGgiVShhkb2aQoRqkGDAWMRQwEgYDVQQDDAt0ZWFtNDA4
LW5ldIIUSwKDPATDFn/ycKwJQIVdNAGSflwwEwYDVR0lBAwwCgYIKwYBBQUHAwEw
CwYDVR0PBAQDAgWgMBkGA1UdEQQSMBCCDnRlYW00MDgtc2VydmVyMA0GCSqGSIb3
DQEBCwUAA4IBAQBgRfIDoi80S5mAQKQm4/u/85zx3n7I2D4KyXch0E3+TfvNuSAx
vSuLmYk/mQKhzB4h7/2PL0nuz7C3U2KbRPEXKF2Ed/tOurw11fh1AcgOVkFu17S3
xCs0j6bBXpu49KnhsUtky5lgQJ7baeZeKZom4Oiq4V+xllus57fOvG/ij6SDRw00
0PDqbX8xQvksY1ykgDWbAgH+uMOOOkw9TlANvfKZ+AcEVhZpaTiU03dC6fqMzguI
doqFVhr5nDqxr13Uq49+dnEk8NyVZKmM+TqfQ4BroGqLbCsGADF+eMHy1+uKULJ4
wsMgWibi7MRbvAEwTw1UL/X+tg2X4mPBfnck
-----END CERTIFICATE-----
