Certificate:
    Data:
        Version: 3 (0x2)
        Serial Number:
            10:76:3a:dc:f8:cd:d3:bb:e2:52:92:46:5a:b7:95:0d
        Signature Algorithm: sha256WithRSAEncryption
        Issuer: CN=team408-net
        Validity
            Not Before: Nov  3 20:46:38 2023 GMT
            Not After : Oct 18 20:46:38 2026 GMT
        Subject: CN=team408-client
        Subject Public Key Info:
            Public Key Algorithm: rsaEncryption
                Public-Key: (2048 bit)
                Modulus:
                    00:b0:39:5b:52:97:ae:ad:8a:12:c8:e2:79:25:06:
                    fc:b5:85:a3:2c:7d:4f:3a:7c:b1:96:5f:a0:99:27:
                    47:9b:d1:76:9e:6b:00:11:c6:57:ef:da:b3:c6:d1:
                    76:1f:75:a0:dd:7a:4a:01:10:92:2c:2e:22:58:ed:
                    fb:38:30:a4:80:13:b3:e1:4b:35:78:c1:45:1e:81:
                    56:53:6c:e3:ec:b8:3e:53:80:a6:b5:be:cc:d4:d0:
                    dd:43:ca:1e:a7:bc:4d:af:77:68:8f:3b:b9:e5:21:
                    8a:03:30:97:b0:97:2a:be:72:68:09:d7:cf:60:cb:
                    3c:58:c2:f6:47:b9:46:b9:3f:53:7a:ca:e2:eb:22:
                    6d:fe:57:3b:5a:b3:00:4d:5f:87:29:18:64:4b:8e:
                    ce:53:c8:2a:a4:43:52:74:9f:8f:3b:f3:3c:cb:65:
                    5c:76:7e:b4:3c:06:32:7b:5e:6c:c2:39:b1:28:18:
                    f7:96:fb:69:39:89:78:a2:51:f3:da:5f:4d:9b:b4:
                    eb:d4:ee:8b:67:43:f1:08:e2:57:4e:bf:56:24:1a:
                    16:a8:0e:57:a8:6c:2a:0d:53:c1:5d:a4:04:e6:6d:
                    62:20:00:37:c4:88:87:7a:2e:38:46:4f:d7:1d:df:
                    73:11:18:5c:dc:48:c5:67:82:8f:22:93:b6:e4:7e:
                    38:2b
                Exponent: 65537 (0x10001)
        X509v3 extensions:
            X509v3 Basic Constraints: 
                CA:FALSE
            X509v3 Subject Key Identifier: 
                BD:67:DD:33:15:8D:D5:90:43:A9:BE:E4:D4:03:51:C2:C1:65:30:67
            X509v3 Authority Key Identifier: 
                keyid:ED:A8:5A:8E:1A:A8:74:E9:33:96:55:07:0B:45:47:E4:09:C1:D1:16
                DirName:/CN=team408-net
                serial:5F:8C:29:45:CB:C8:A6:C7:27:9C:6A:BD:F0:1E:26:F4:65:A4:7F:BD
            X509v3 Extended Key Usage: 
                TLS Web Client Authentication
            X509v3 Key Usage: 
                Digital Signature
    Signature Algorithm: sha256WithRSAEncryption
    Signature Value:
        9a:43:36:01:48:73:40:d1:b0:7d:79:87:58:ac:ed:fe:45:38:
        c5:7b:1f:0b:1c:a8:22:4d:05:72:fa:cf:04:06:81:bd:a9:f4:
        1f:79:60:c2:9a:95:d0:08:25:bc:50:bb:62:33:2c:be:b3:6d:
        01:16:b2:98:b3:ea:cd:0f:e9:79:1f:3e:6e:a6:23:8d:dd:35:
        6c:c3:b7:de:21:4f:6f:b3:92:01:4b:55:4e:89:75:c2:5b:05:
        04:c7:97:2e:47:cf:bf:38:24:16:cd:8e:da:be:35:39:0d:be:
        65:48:86:e4:1a:51:de:49:ae:b5:8f:5f:ae:3d:55:d3:34:3b:
        65:13:1e:0f:57:55:e7:37:16:91:31:9f:55:14:ed:df:70:24:
        d6:46:22:30:e5:73:cc:62:46:f6:3e:6c:bf:6a:1a:ea:45:50:
        22:44:2a:a2:1c:46:b7:42:8f:c9:3c:12:13:be:45:32:70:af:
        97:7c:9a:01:59:0e:03:65:1a:3f:2e:2f:60:04:e5:ea:78:14:
        de:f4:d1:25:68:35:ea:f6:c2:75:27:9f:f8:fc:82:b5:03:d1:
        84:08:7a:15:19:8a:ae:e9:9d:27:35:f5:9f:3d:49:77:26:48:
        ce:d3:1c:4c:b1:4c:40:2c:71:bb:c8:3b:e4:08:a2:9c:26:40:
        73:2a:0d:37
-----BEGIN CERTIFICATE-----
MIIDXDCCAkSgAwIBAgIQEHY63PjN07viUpJGWreVDTANBgkqhkiG9w0BAQsFADAW
MRQwEgYDVQQDDAt0ZWFtNDA4LW5ldDAeFw0yMzExMDMyMDQ2MzhaFw0yNjEwMTgy
MDQ2MzhaMBkxFzAVBgNVBAMMDnRlYW00MDgtY2xpZW50MIIBIjANBgkqhkiG9w0B
AQEFAAOCAQ8AMIIBCgKCAQEAsDlbUpeurYoSyOJ5JQb8tYWjLH1POnyxll+gmSdH
m9F2nmsAEcZX79qzxtF2H3Wg3XpKARCSLC4iWO37ODCkgBOz4Us1eMFFHoFWU2zj
7Lg+U4Cmtb7M1NDdQ8oep7xNr3dojzu55SGKAzCXsJcqvnJoCdfPYMs8WML2R7lG
uT9Tesri6yJt/lc7WrMATV+HKRhkS47OU8gqpENSdJ+PO/M8y2Vcdn60PAYye15s
wjmxKBj3lvtpOYl4olHz2l9Nm7Tr1O6LZ0PxCOJXTr9WJBoWqA5XqGwqDVPBXaQE
5m1iIAA3xIiHei44Rk/XHd9zERhc3EjFZ4KPIpO25H44KwIDAQABo4GiMIGfMAkG
A1UdEwQCMAAwHQYDVR0OBBYEFL1n3TMVjdWQQ6m+5NQDUcLBZTBnMFEGA1UdIwRK
MEiAFO2oWo4aqHTpM5ZVBwtFR+QJwdEWoRqkGDAWMRQwEgYDVQQDDAt0ZWFtNDA4
LW5ldIIUX4wpRcvIpscnnGq98B4m9GWkf70wEwYDVR0lBAwwCgYIKwYBBQUHAwIw
CwYDVR0PBAQDAgeAMA0GCSqGSIb3DQEBCwUAA4IBAQCaQzYBSHNA0bB9eYdYrO3+
RTjFex8LHKgiTQVy+s8EBoG9qfQfeWDCmpXQCCW8ULtiMyy+s20BFrKYs+rND+l5
Hz5upiON3TVsw7feIU9vs5IBS1VOiXXCWwUEx5cuR8+/OCQWzY7avjU5Db5lSIbk
GlHeSa61j1+uPVXTNDtlEx4PV1XnNxaRMZ9VFO3fcCTWRiIw5XPMYkb2Pmy/ahrq
RVAiRCqiHEa3Qo/JPBITvkUycK+XfJoBWQ4DZRo/Li9gBOXqeBTe9NElaDXq9sJ1
J5/4/IK1A9GECHoVGYqu6Z0nNfWfPUl3JkjO0xxMsUxALHG7yDvkCKKcJkBzKg03
-----END CERTIFICATE-----
