Certificate:
    Data:
        Version: 3 (0x2)
        Serial Number:
            17:b3:ff:4d:6f:4d:5b:b0:32:cc:0e:0c:73:6a:9a:59
        Signature Algorithm: sha256WithRSAEncryption
        Issuer: CN=team408-net
        Validity
            Not Before: Nov  4 10:47:59 2023 GMT
            Not After : Oct 19 10:47:59 2026 GMT
        Subject: CN=team408-client
        Subject Public Key Info:
            Public Key Algorithm: rsaEncryption
                Public-Key: (2048 bit)
                Modulus:
                    00:da:8b:46:6c:fd:fe:eb:b4:2a:80:a0:d2:9d:a4:
                    48:70:84:dd:a8:b6:ed:3f:dd:d0:cc:6c:74:da:19:
                    82:37:96:58:5a:f2:b2:0b:f5:18:ce:83:7a:bb:40:
                    cb:60:29:93:5b:60:20:29:99:d4:7f:52:f7:ec:2a:
                    83:f1:b1:70:d5:f2:ef:5a:06:9f:a9:22:e4:75:d9:
                    ec:fb:38:e9:a8:b2:d1:a6:86:9d:b6:f6:f5:88:d7:
                    22:56:72:a3:61:f2:0b:8b:d1:a8:9e:e1:c3:6d:01:
                    83:18:29:a5:4f:bc:ba:62:a4:14:54:6f:7f:7b:d6:
                    eb:95:4a:e1:1d:9e:55:77:0c:73:04:99:45:2a:4c:
                    61:ee:05:d8:44:80:85:e3:e6:0d:e3:76:20:48:d9:
                    4c:62:b8:6f:31:8a:92:bf:6b:a0:91:fb:2a:a5:93:
                    fd:fe:55:92:66:bf:52:ee:f8:61:41:96:aa:91:8d:
                    07:52:f1:5b:50:01:24:80:e1:c8:99:b5:f7:15:cb:
                    b5:4e:de:6b:18:e1:a2:0f:34:6f:dc:ed:97:94:75:
                    88:4c:b3:c3:dd:fe:8e:7a:e4:e1:dd:31:2d:85:c8:
                    c7:7a:4f:15:4b:20:fb:f3:ce:75:a2:48:83:64:58:
                    20:bf:0a:04:bc:37:72:70:d2:b8:8e:76:00:47:74:
                    cb:01
                Exponent: 65537 (0x10001)
        X509v3 extensions:
            X509v3 Basic Constraints: 
                CA:FALSE
            X509v3 Subject Key Identifier: 
                17:35:C3:45:BE:F5:6F:99:2B:CB:EB:6F:0B:63:CD:9A:25:CC:7B:32
            X509v3 Authority Key Identifier: 
                keyid:EA:5A:CC:C1:17:9D:0D:16:C8:9E:E4:54:17:84:E0:1E:7E:D4:EE:28
                DirName:/CN=team408-net
                serial:31:3D:45:9B:5C:77:A5:5F:41:1A:72:F2:F8:48:22:60:2C:BE:DD:D8
            X509v3 Extended Key Usage: 
                TLS Web Client Authentication
            X509v3 Key Usage: 
                Digital Signature
    Signature Algorithm: sha256WithRSAEncryption
    Signature Value:
        54:96:1f:4a:38:dc:04:26:1d:e0:1a:59:9d:b5:dc:a6:58:24:
        5d:8e:08:d7:21:49:26:d6:03:d1:64:88:bb:30:71:dd:a7:b3:
        70:d6:4b:6c:37:4f:52:8c:77:b3:7d:26:3e:01:81:a2:2d:9b:
        a6:fe:e8:35:a1:44:d5:cc:b4:f0:6b:b2:bc:03:88:35:9d:36:
        bc:7f:9d:11:99:ed:91:30:74:7f:6f:41:99:54:64:5f:ba:f0:
        03:4f:7c:43:5b:3d:a3:b1:87:c0:ea:4d:cd:61:28:c1:d1:f1:
        a3:9e:9c:11:09:b2:ad:c4:e9:a3:58:cc:66:69:ce:5a:a9:ff:
        3f:bf:e0:02:85:b1:9b:9a:0a:4f:08:4f:cb:b1:f4:9d:e3:e4:
        9a:4a:e4:05:3f:f7:bb:a6:f9:d4:d3:9a:06:10:fd:5e:cd:0e:
        5b:6a:e2:ab:9a:48:b0:93:51:06:bd:2c:13:e9:8b:d3:eb:1a:
        9d:fa:f1:72:0a:87:25:59:13:27:cd:15:10:1d:11:5b:65:25:
        57:75:fc:31:aa:08:b2:cc:d3:57:8e:93:8f:73:27:59:6a:22:
        2a:a2:26:35:89:b0:a4:dd:4b:61:44:49:34:54:db:74:1d:a5:
        8c:e5:f9:6b:1f:7b:ec:ba:d3:fb:85:9b:e0:51:b5:bd:fb:11:
        2a:d6:f3:14
-----BEGIN CERTIFICATE-----
MIIDXDCCAkSgAwIBAgIQF7P/TW9NW7AyzA4Mc2qaWTANBgkqhkiG9w0BAQsFADAW
MRQwEgYDVQQDDAt0ZWFtNDA4LW5ldDAeFw0yMzExMDQxMDQ3NTlaFw0yNjEwMTkx
MDQ3NTlaMBkxFzAVBgNVBAMMDnRlYW00MDgtY2xpZW50MIIBIjANBgkqhkiG9w0B
AQEFAAOCAQ8AMIIBCgKCAQEA2otGbP3+67QqgKDSnaRIcITdqLbtP93QzGx02hmC
N5ZYWvKyC/UYzoN6u0DLYCmTW2AgKZnUf1L37CqD8bFw1fLvWgafqSLkddns+zjp
qLLRpoadtvb1iNciVnKjYfILi9GonuHDbQGDGCmlT7y6YqQUVG9/e9brlUrhHZ5V
dwxzBJlFKkxh7gXYRICF4+YN43YgSNlMYrhvMYqSv2ugkfsqpZP9/lWSZr9S7vhh
QZaqkY0HUvFbUAEkgOHImbX3Fcu1Tt5rGOGiDzRv3O2XlHWITLPD3f6OeuTh3TEt
hcjHek8VSyD78851okiDZFggvwoEvDdycNK4jnYAR3TLAQIDAQABo4GiMIGfMAkG
A1UdEwQCMAAwHQYDVR0OBBYEFBc1w0W+9W+ZK8vrbwtjzZolzHsyMFEGA1UdIwRK
MEiAFOpazMEXnQ0WyJ7kVBeE4B5+1O4ooRqkGDAWMRQwEgYDVQQDDAt0ZWFtNDA4
LW5ldIIUMT1Fm1x3pV9BGnLy+EgiYCy+3dgwEwYDVR0lBAwwCgYIKwYBBQUHAwIw
CwYDVR0PBAQDAgeAMA0GCSqGSIb3DQEBCwUAA4IBAQBUlh9KONwEJh3gGlmdtdym
WCRdjgjXIUkm1gPRZIi7MHHdp7Nw1ktsN09SjHezfSY+AYGiLZum/ug1oUTVzLTw
a7K8A4g1nTa8f50Rme2RMHR/b0GZVGRfuvADT3xDWz2jsYfA6k3NYSjB0fGjnpwR
CbKtxOmjWMxmac5aqf8/v+AChbGbmgpPCE/LsfSd4+SaSuQFP/e7pvnU05oGEP1e
zQ5bauKrmkiwk1EGvSwT6YvT6xqd+vFyCoclWRMnzRUQHRFbZSVXdfwxqgiyzNNX
jpOPcydZaiIqoiY1ibCk3UthREk0VNt0HaWM5flrH3vsutP7hZvgUbW9+xEq1vMU
-----END CERTIFICATE-----
