Certificate:
    Data:
        Version: 3 (0x2)
        Serial Number:
            34:e8:08:15:13:69:73:37:95:ba:23:d8:87:bc:86:55
        Signature Algorithm: sha256WithRSAEncryption
        Issuer: CN=team169-net
        Validity
            Not Before: Nov  3 20:42:16 2023 GMT
            Not After : Oct 18 20:42:16 2026 GMT
        Subject: CN=team169-client
        Subject Public Key Info:
            Public Key Algorithm: rsaEncryption
                Public-Key: (2048 bit)
                Modulus:
                    00:b8:7a:ca:35:bb:48:d9:01:7f:1f:29:c0:35:90:
                    6d:73:d3:7a:05:a9:a8:17:54:44:46:56:57:69:9d:
                    29:44:71:47:db:5f:e6:8f:0a:cf:ed:bb:ac:7e:1c:
                    8a:f8:cd:bd:e6:41:9a:ee:d5:67:ed:37:4e:26:6a:
                    03:c8:ce:f3:1a:39:68:b3:03:1b:16:08:67:72:0b:
                    83:7a:1e:5d:fd:2c:cd:0b:c4:e6:ca:c7:a1:8a:ee:
                    88:9a:0b:de:0b:fb:63:22:06:9f:5e:da:90:62:f2:
                    40:69:74:46:59:c3:f6:28:61:4f:09:f4:2f:f8:c7:
                    65:22:e5:73:87:f6:d0:7a:11:4e:45:62:32:e8:02:
                    b1:a6:c5:d7:74:83:f1:41:3a:ea:ea:4c:09:aa:01:
                    4a:95:27:24:4d:d9:99:f9:95:18:ef:4e:21:6a:7f:
                    59:93:08:1b:a7:8e:44:99:7b:82:56:5d:21:5f:48:
                    08:fb:9b:d6:9b:f9:32:4a:b1:c5:fb:a6:72:5e:2b:
                    c8:5f:54:ea:6c:78:1f:32:29:82:b1:f7:38:90:e0:
                    4e:58:de:e0:41:64:65:f7:89:84:06:68:a5:22:40:
                    44:08:84:89:a2:85:f4:d5:22:3a:e1:b2:ad:a7:c1:
                    37:09:cc:e0:06:e7:b9:8a:de:45:50:2d:9f:c3:7f:
                    6e:e1
                Exponent: 65537 (0x10001)
        X509v3 extensions:
            X509v3 Basic Constraints: 
                CA:FALSE
            X509v3 Subject Key Identifier: 
                65:CE:0B:84:E0:10:DD:6D:FC:50:DC:E5:67:F9:8A:6F:EC:32:9A:36
            X509v3 Authority Key Identifier: 
                keyid:E6:6C:FC:EE:43:51:EC:68:6C:D7:24:BD:CC:3E:74:3F:45:F7:D1:AB
                DirName:/CN=team169-net
                serial:60:3A:E3:AB:ED:C8:62:03:A3:E2:81:4E:20:39:92:AB:8A:56:15:6D
            X509v3 Extended Key Usage: 
                TLS Web Client Authentication
            X509v3 Key Usage: 
                Digital Signature
    Signature Algorithm: sha256WithRSAEncryption
    Signature Value:
        92:b0:d9:0c:79:c6:75:ed:29:53:47:5d:bb:87:58:8f:06:c6:
        5f:a4:d1:32:44:df:ff:a2:21:8a:19:bd:ad:5c:6b:05:19:8a:
        23:47:25:66:c7:75:e8:21:51:14:21:21:bd:2c:9f:4c:18:cc:
        c6:a4:8e:76:04:25:cd:fa:28:54:51:3b:95:ce:1b:e3:9b:04:
        1a:7b:6f:f8:0e:04:c2:be:33:c5:6c:f7:dc:80:70:1f:1c:99:
        6f:06:25:2d:52:87:be:29:2b:83:10:6f:a3:80:77:a4:09:c3:
        89:53:72:68:24:ca:2f:05:bb:25:a3:19:ee:01:bb:d5:73:f4:
        69:3f:a7:fb:df:13:05:ec:f0:c4:16:1d:3f:a0:bd:7b:29:c3:
        51:50:95:60:35:d4:99:a9:ef:0d:c3:6d:65:dc:4f:6e:a0:56:
        fc:75:91:a4:96:d9:90:31:c9:ee:6e:be:1a:c2:10:96:56:7d:
        32:32:2c:59:a6:39:57:10:df:ca:54:41:c9:36:6e:11:d5:41:
        38:49:69:24:9e:22:11:3d:ba:b1:38:cb:d5:12:67:62:05:1c:
        66:a5:2d:f3:6f:70:e1:09:ae:22:9e:a4:35:16:45:0b:27:04:
        fb:c7:1d:90:04:5c:8c:fb:1c:e3:c6:48:37:9f:93:c8:96:81:
        47:d9:1d:49
-----BEGIN CERTIFICATE-----
MIIDXDCCAkSgAwIBAgIQNOgIFRNpczeVuiPYh7yGVTANBgkqhkiG9w0BAQsFADAW
MRQwEgYDVQQDDAt0ZWFtMTY5LW5ldDAeFw0yMzExMDMyMDQyMTZaFw0yNjEwMTgy
MDQyMTZaMBkxFzAVBgNVBAMMDnRlYW0xNjktY2xpZW50MIIBIjANBgkqhkiG9w0B
AQEFAAOCAQ8AMIIBCgKCAQEAuHrKNbtI2QF/HynANZBtc9N6BamoF1RERlZXaZ0p
RHFH21/mjwrP7busfhyK+M295kGa7tVn7TdOJmoDyM7zGjloswMbFghncguDeh5d
/SzNC8Tmysehiu6ImgveC/tjIgafXtqQYvJAaXRGWcP2KGFPCfQv+MdlIuVzh/bQ
ehFORWIy6AKxpsXXdIPxQTrq6kwJqgFKlSckTdmZ+ZUY704han9Zkwgbp45EmXuC
Vl0hX0gI+5vWm/kySrHF+6ZyXivIX1TqbHgfMimCsfc4kOBOWN7gQWRl94mEBmil
IkBECISJooX01SI64bKtp8E3CczgBue5it5FUC2fw39u4QIDAQABo4GiMIGfMAkG
A1UdEwQCMAAwHQYDVR0OBBYEFGXOC4TgEN1t/FDc5Wf5im/sMpo2MFEGA1UdIwRK
MEiAFOZs/O5DUexobNckvcw+dD9F99GroRqkGDAWMRQwEgYDVQQDDAt0ZWFtMTY5
LW5ldIIUYDrjq+3IYgOj4oFOIDmSq4pWFW0wEwYDVR0lBAwwCgYIKwYBBQUHAwIw
CwYDVR0PBAQDAgeAMA0GCSqGSIb3DQEBCwUAA4IBAQCSsNkMecZ17SlTR127h1iP
BsZfpNEyRN//oiGKGb2tXGsFGYojRyVmx3XoIVEUISG9LJ9MGMzGpI52BCXN+ihU
UTuVzhvjmwQae2/4DgTCvjPFbPfcgHAfHJlvBiUtUoe+KSuDEG+jgHekCcOJU3Jo
JMovBbsloxnuAbvVc/RpP6f73xMF7PDEFh0/oL17KcNRUJVgNdSZqe8Nw21l3E9u
oFb8dZGkltmQMcnubr4awhCWVn0yMixZpjlXEN/KVEHJNm4R1UE4SWkkniIRPbqx
OMvVEmdiBRxmpS3zb3DhCa4inqQ1FkULJwT7xx2QBFyM+xzjxkg3n5PIloFH2R1J
-----END CERTIFICATE-----
