Certificate:
    Data:
        Version: 3 (0x2)
        Serial Number:
            dc:32:7d:48:1e:35:e5:31:68:08:75:69:7d:38:43:88
        Signature Algorithm: sha256WithRSAEncryption
        Issuer: CN=team169-net
        Validity
            Not Before: Nov  4 10:43:41 2023 GMT
            Not After : Oct 19 10:43:41 2026 GMT
        Subject: CN=team169-client
        Subject Public Key Info:
            Public Key Algorithm: rsaEncryption
                Public-Key: (2048 bit)
                Modulus:
                    00:de:9f:0b:c3:f9:e7:81:78:ae:67:63:01:43:6a:
                    c3:e6:a4:ee:9b:9d:85:15:b2:12:70:f5:54:0e:d1:
                    2e:14:56:8d:e8:6c:1e:a8:74:2e:41:fb:77:55:ca:
                    3b:16:73:9f:24:f0:96:49:90:d0:b6:7d:e7:65:b2:
                    88:c7:b0:e3:50:f1:14:97:65:2f:6a:5c:2c:cb:0a:
                    8f:8d:7f:4b:ff:e5:f5:ae:12:b9:30:cc:3f:f1:2f:
                    79:83:38:59:c3:a6:11:a0:9a:2d:b8:e8:81:ec:03:
                    3a:f9:2d:aa:8a:29:82:e5:f0:40:01:35:a1:68:51:
                    d7:62:4a:ca:d4:cb:7a:09:81:1d:d7:3b:aa:f4:97:
                    c4:09:d4:06:43:6c:7c:3b:50:f6:c4:61:8a:1d:17:
                    01:9f:35:fb:13:ba:d8:e9:ae:c2:75:76:48:80:0d:
                    30:51:0c:65:f2:fe:65:14:5c:8e:9f:84:ba:64:47:
                    40:1e:72:e2:52:da:60:f6:2a:32:34:89:38:d6:e6:
                    8e:42:f2:5f:61:e5:82:c9:12:bd:8c:74:e1:3d:bd:
                    f3:ae:b2:19:80:6f:26:0e:48:5d:03:77:11:6c:12:
                    fc:87:ea:ba:45:48:a5:c0:51:86:fa:f3:af:f7:38:
                    47:51:d6:b2:e3:57:7e:0e:b0:4d:2a:93:55:c9:4c:
                    10:2f
                Exponent: 65537 (0x10001)
        X509v3 extensions:
            X509v3 Basic Constraints: 
                CA:FALSE
            X509v3 Subject Key Identifier: 
                57:40:F6:66:40:5B:5C:0D:1E:B2:82:17:71:DF:9E:E3:DE:5F:57:7B
            X509v3 Authority Key Identifier: 
                keyid:41:0D:B1:6F:B0:30:DA:46:52:BF:1D:9F:64:D9:95:6E:1D:8A:E8:02
                DirName:/CN=team169-net
                serial:76:CB:72:73:7A:82:A6:28:EC:5B:56:50:F8:0E:FF:AD:BB:1B:A5:F5
            X509v3 Extended Key Usage: 
                TLS Web Client Authentication
            X509v3 Key Usage: 
                Digital Signature
    Signature Algorithm: sha256WithRSAEncryption
    Signature Value:
        35:c3:49:67:53:b3:3a:99:fe:f0:78:04:91:b8:85:29:9a:71:
        21:6f:f6:54:e1:40:3d:00:e0:15:9c:05:5d:63:0c:af:42:ed:
        ee:e0:eb:99:aa:44:86:43:e6:bb:de:e0:32:27:35:bb:f0:93:
        2a:73:69:a4:93:94:b7:00:0b:e6:bb:8b:59:01:5b:12:ff:f1:
        07:5e:31:90:61:f2:d1:e4:c5:49:e9:48:88:f2:86:3b:b6:b9:
        52:8b:36:33:55:10:46:34:c7:61:fc:7e:f0:21:e3:f1:e1:4e:
        6a:8b:d4:29:b9:5a:90:4c:e2:c3:75:de:83:a4:e8:c4:b2:8b:
        78:73:65:f7:c1:40:93:cd:d4:b3:5c:71:c6:da:5a:c3:cc:8a:
        1a:57:f6:99:da:02:cf:9f:b4:c8:79:9b:75:2f:1c:24:58:a3:
        9b:fa:75:3e:ee:6f:ea:b4:71:39:25:d0:0c:6c:ed:0f:51:e8:
        bc:17:f1:9d:cc:6a:6a:85:d7:08:84:56:e3:11:e1:9d:94:f2:
        e5:21:bf:11:40:a9:bd:0b:fd:91:e9:01:65:12:29:bc:33:f6:
        14:90:24:b2:8a:e3:b7:f8:bd:e1:54:19:0b:4e:68:e7:a8:90:
        f9:19:37:0f:96:46:bc:85:99:10:f1:34:2b:fe:9d:0d:0c:c8:
        42:2d:9e:69
-----BEGIN CERTIFICATE-----
MIIDXTCCAkWgAwIBAgIRANwyfUgeNeUxaAh1aX04Q4gwDQYJKoZIhvcNAQELBQAw
FjEUMBIGA1UEAwwLdGVhbTE2OS1uZXQwHhcNMjMxMTA0MTA0MzQxWhcNMjYxMDE5
MTA0MzQxWjAZMRcwFQYDVQQDDA50ZWFtMTY5LWNsaWVudDCCASIwDQYJKoZIhvcN
AQEBBQADggEPADCCAQoCggEBAN6fC8P554F4rmdjAUNqw+ak7pudhRWyEnD1VA7R
LhRWjehsHqh0LkH7d1XKOxZznyTwlkmQ0LZ952WyiMew41DxFJdlL2pcLMsKj41/
S//l9a4SuTDMP/EveYM4WcOmEaCaLbjogewDOvktqoopguXwQAE1oWhR12JKytTL
egmBHdc7qvSXxAnUBkNsfDtQ9sRhih0XAZ81+xO62OmuwnV2SIANMFEMZfL+ZRRc
jp+EumRHQB5y4lLaYPYqMjSJONbmjkLyX2HlgskSvYx04T29866yGYBvJg5IXQN3
EWwS/IfqukVIpcBRhvrzr/c4R1HWsuNXfg6wTSqTVclMEC8CAwEAAaOBojCBnzAJ
BgNVHRMEAjAAMB0GA1UdDgQWBBRXQPZmQFtcDR6yghdx357j3l9XezBRBgNVHSME
SjBIgBRBDbFvsDDaRlK/HZ9k2ZVuHYroAqEapBgwFjEUMBIGA1UEAwwLdGVhbTE2
OS1uZXSCFHbLcnN6gqYo7FtWUPgO/627G6X1MBMGA1UdJQQMMAoGCCsGAQUFBwMC
MAsGA1UdDwQEAwIHgDANBgkqhkiG9w0BAQsFAAOCAQEANcNJZ1OzOpn+8HgEkbiF
KZpxIW/2VOFAPQDgFZwFXWMMr0Lt7uDrmapEhkPmu97gMic1u/CTKnNppJOUtwAL
5ruLWQFbEv/xB14xkGHy0eTFSelIiPKGO7a5Uos2M1UQRjTHYfx+8CHj8eFOaovU
KblakEziw3Xeg6ToxLKLeHNl98FAk83Us1xxxtpaw8yKGlf2mdoCz5+0yHmbdS8c
JFijm/p1Pu5v6rRxOSXQDGztD1HovBfxncxqaoXXCIRW4xHhnZTy5SG/EUCpvQv9
kekBZRIpvDP2FJAksorjt/i94VQZC05o56iQ+Rk3D5ZGvIWZEPE0K/6dDQzIQi2e
aQ==
-----END CERTIFICATE-----
