Certificate:
    Data:
        Version: 3 (0x2)
        Serial Number:
            ef:a4:65:7a:09:7c:d8:e6:83:8a:b8:70:fe:ad:77:c2
        Signature Algorithm: sha256WithRSAEncryption
        Issuer: CN=team169-net
        Validity
            Not Before: Nov  4 11:30:58 2023 GMT
            Not After : Oct 19 11:30:58 2026 GMT
        Subject: CN=team169-server
        Subject Public Key Info:
            Public Key Algorithm: rsaEncryption
                Public-Key: (2048 bit)
                Modulus:
                    00:c3:90:27:62:1d:4d:35:30:3e:7d:71:f3:50:40:
                    7f:f7:2c:7d:f1:04:bb:d2:31:11:23:15:09:38:f5:
                    15:8e:9e:a1:16:00:c5:b0:73:cc:82:b8:46:4c:de:
                    48:f8:0f:6b:6a:ed:92:d6:e9:2c:3b:e4:52:93:56:
                    6a:2b:53:4a:ef:40:3f:46:4c:21:f1:0c:51:ab:90:
                    df:82:d7:e7:72:14:d1:69:a5:d6:39:fc:92:87:df:
                    2c:a1:3f:3f:37:27:ec:07:ff:86:4d:32:36:b3:4c:
                    fa:43:52:e5:35:5e:63:26:06:76:b7:c9:e4:97:8d:
                    97:09:1a:f6:47:04:20:0f:6f:dc:ad:72:f6:07:c5:
                    b5:d8:95:a0:c3:49:a4:2d:b3:11:45:8f:4c:1a:31:
                    f3:2e:4c:3c:af:b1:1d:82:48:4e:8a:13:da:c3:9b:
                    3d:0f:b9:b6:6f:f3:7e:eb:b2:81:84:11:2e:5a:42:
                    67:7e:24:b5:8d:3a:57:65:13:5c:b4:e8:71:29:33:
                    c5:f3:a5:1c:c6:be:c4:5f:36:bf:a3:96:86:b8:cc:
                    47:b8:7a:a1:82:67:9e:c7:3d:72:64:b9:2a:d8:59:
                    d1:c9:82:1d:70:c4:ca:7f:54:91:4b:43:62:fc:3f:
                    ef:c0:14:b1:97:82:59:a3:ae:15:13:d6:e7:d0:a9:
                    ff:25
                Exponent: 65537 (0x10001)
        X509v3 extensions:
            X509v3 Basic Constraints: 
                CA:FALSE
            X509v3 Subject Key Identifier: 
                09:76:00:C8:39:68:BA:59:DD:BA:8B:DB:F9:FD:A1:CC:A6:B4:22:95
            X509v3 Authority Key Identifier: 
                keyid:E3:1F:B1:9B:1B:66:D5:13:14:55:A5:F8:6B:FD:BC:0E:0E:F3:37:46
                DirName:/CN=team169-net
                serial:13:CA:36:39:2E:72:F1:5B:41:B3:56:7C:2D:82:2E:46:55:CF:5F:4A
            X509v3 Extended Key Usage: 
                TLS Web Server Authentication
            X509v3 Key Usage: 
                Digital Signature, Key Encipherment
            X509v3 Subject Alternative Name: 
                DNS:team169-server
    Signature Algorithm: sha256WithRSAEncryption
    Signature Value:
        a6:ec:7a:eb:07:09:14:77:a5:a7:72:d2:1a:ed:ed:bb:55:6a:
        8d:51:5d:02:2f:66:49:b2:c6:73:18:0e:95:43:84:38:7f:f8:
        39:32:db:4e:a4:ed:0b:67:80:f4:c3:1b:27:73:18:a0:bb:9b:
        06:da:ed:da:2f:d6:b0:31:5c:ee:65:4f:a3:d2:bb:b4:8b:11:
        41:ae:c7:c7:45:a9:a1:a5:56:06:ed:66:4e:95:5c:f3:32:6d:
        be:88:dc:b3:f2:a7:06:e1:73:c8:3b:df:ea:d7:b7:e0:1f:af:
        03:9b:20:9b:a2:e8:24:87:7a:03:8b:df:df:58:01:2a:bd:25:
        ed:ef:89:03:4f:8f:f0:9b:40:e9:fc:2d:0d:b7:2a:a3:66:78:
        b5:4f:fa:ca:87:26:b7:d3:b5:39:5d:bd:89:87:dc:5c:39:86:
        36:aa:35:aa:28:0b:0c:22:68:51:d1:b8:9a:a5:b6:c5:e8:e2:
        67:a9:03:85:ae:0c:64:62:d6:86:81:84:62:9d:58:d2:ba:06:
        9c:7b:c9:e9:c1:f5:00:c3:06:16:f4:e3:df:b2:ec:a7:30:9f:
        8c:07:c6:a6:01:c9:45:a2:a1:a3:cf:e2:c2:8a:f1:75:fb:17:
        b1:12:14:42:e3:6a:7a:69:9e:1c:76:bb:60:19:01:08:c4:14:
        cb:99:78:7e
-----BEGIN CERTIFICATE-----
MIIDeDCCAmCgAwIBAgIRAO+kZXoJfNjmg4q4cP6td8IwDQYJKoZIhvcNAQELBQAw
FjEUMBIGA1UEAwwLdGVhbTE2OS1uZXQwHhcNMjMxMTA0MTEzMDU4WhcNMjYxMDE5
MTEzMDU4WjAZMRcwFQYDVQQDDA50ZWFtMTY5LXNlcnZlcjCCASIwDQYJKoZIhvcN
AQEBBQADggEPADCCAQoCggEBAMOQJ2IdTTUwPn1x81BAf/csffEEu9IxESMVCTj1
FY6eoRYAxbBzzIK4RkzeSPgPa2rtktbpLDvkUpNWaitTSu9AP0ZMIfEMUauQ34LX
53IU0Wml1jn8koffLKE/Pzcn7Af/hk0yNrNM+kNS5TVeYyYGdrfJ5JeNlwka9kcE
IA9v3K1y9gfFtdiVoMNJpC2zEUWPTBox8y5MPK+xHYJITooT2sObPQ+5tm/zfuuy
gYQRLlpCZ34ktY06V2UTXLTocSkzxfOlHMa+xF82v6OWhrjMR7h6oYJnnsc9cmS5
KthZ0cmCHXDEyn9UkUtDYvw/78AUsZeCWaOuFRPW59Cp/yUCAwEAAaOBvTCBujAJ
BgNVHRMEAjAAMB0GA1UdDgQWBBQJdgDIOWi6Wd26i9v5/aHMprQilTBRBgNVHSME
SjBIgBTjH7GbG2bVExRVpfhr/bwODvM3RqEapBgwFjEUMBIGA1UEAwwLdGVhbTE2
OS1uZXSCFBPKNjkucvFbQbNWfC2CLkZVz19KMBMGA1UdJQQMMAoGCCsGAQUFBwMB
MAsGA1UdDwQEAwIFoDAZBgNVHREEEjAQgg50ZWFtMTY5LXNlcnZlcjANBgkqhkiG
9w0BAQsFAAOCAQEApux66wcJFHelp3LSGu3tu1VqjVFdAi9mSbLGcxgOlUOEOH/4
OTLbTqTtC2eA9MMbJ3MYoLubBtrt2i/WsDFc7mVPo9K7tIsRQa7Hx0WpoaVWBu1m
TpVc8zJtvojcs/KnBuFzyDvf6te34B+vA5sgm6LoJId6A4vf31gBKr0l7e+JA0+P
8JtA6fwtDbcqo2Z4tU/6yocmt9O1OV29iYfcXDmGNqo1qigLDCJoUdG4mqW2xeji
Z6kDha4MZGLWhoGEYp1Y0roGnHvJ6cH1AMMGFvTj37LspzCfjAfGpgHJRaKho8/i
worxdfsXsRIUQuNqemmeHHa7YBkBCMQUy5l4fg==
-----END CERTIFICATE-----
