Certificate:
    Data:
        Version: 3 (0x2)
        Serial Number:
            4c:b4:c1:94:1f:0e:6d:9a:72:97:32:c2:57:dc:28
        Signature Algorithm: sha256WithRSAEncryption
        Issuer: CN=team88-net
        Validity
            Not Before: Nov  4 10:42:03 2023 GMT
            Not After : Oct 19 10:42:03 2026 GMT
        Subject: CN=team88-server
        Subject Public Key Info:
            Public Key Algorithm: rsaEncryption
                Public-Key: (2048 bit)
                Modulus:
                    00:9e:61:dd:4c:55:d0:94:ac:24:1e:55:5e:a6:79:
                    0c:37:35:e7:10:fe:26:0a:12:fe:4e:93:a4:4c:f2:
                    e6:bb:0a:b7:60:42:4d:ed:31:cf:c4:8c:3b:76:b4:
                    3b:59:e8:e7:b1:b3:b3:d3:22:62:b4:69:0b:00:4f:
                    38:5c:df:c9:79:cd:50:11:f1:11:35:5a:4b:dd:fc:
                    a3:04:6f:64:85:06:01:6c:c3:25:d8:2f:33:11:0f:
                    43:ec:51:c2:ee:12:5e:a4:2f:44:c7:3e:1a:be:74:
                    26:e5:f1:64:18:a1:e8:51:bf:8b:da:be:bd:af:dc:
                    bd:93:8e:8a:f2:24:dc:d6:d9:14:19:40:71:e7:e4:
                    9f:52:b3:e7:af:8e:84:1a:b0:46:82:e7:0e:70:8f:
                    77:1a:8d:c5:60:77:6f:7d:7d:e0:19:37:b3:41:e3:
                    2f:81:51:e7:55:28:4f:e0:aa:33:14:34:f6:21:69:
                    b6:1d:ac:76:7b:f4:8b:9f:9b:bb:7c:6f:4e:26:f0:
                    72:67:03:a1:6a:10:f4:b3:cd:ee:7c:23:9d:bb:49:
                    25:a2:00:0f:a4:a3:86:11:72:5b:5e:95:39:87:12:
                    3a:c3:c2:ea:6f:97:f3:55:86:d2:28:0e:26:5a:80:
                    98:fd:f2:ba:c7:12:52:f5:3b:9b:22:06:da:1e:e7:
                    38:75
                Exponent: 65537 (0x10001)
        X509v3 extensions:
            X509v3 Basic Constraints: 
                CA:FALSE
            X509v3 Subject Key Identifier: 
                42:1A:3B:1A:3B:2C:69:E4:7C:D9:C0:3F:6B:96:7B:51:CC:8C:56:D2
            X509v3 Authority Key Identifier: 
                keyid:F0:9C:34:29:C0:29:F7:41:16:AE:E4:CF:D8:BA:3B:B9:D3:81:4F:E9
                DirName:/CN=team88-net
                serial:4C:3E:AD:72:83:19:13:BA:3B:E9:DE:6D:F6:12:34:FE:16:0D:6A:C0
            X509v3 Extended Key Usage: 
                TLS Web Server Authentication
            X509v3 Key Usage: 
                Digital Signature, Key Encipherment
            X509v3 Subject Alternative Name: 
                DNS:team88-server
    Signature Algorithm: sha256WithRSAEncryption
    Signature Value:
        5d:9d:71:6a:f4:1b:48:f6:7e:a3:da:bc:c0:92:ca:1a:92:5d:
        78:5c:88:21:1f:c6:c3:f8:dc:8f:d0:cf:78:c1:c8:94:6a:5c:
        59:19:f9:d3:4a:b2:6f:de:02:b1:33:4e:10:7e:f9:95:cf:37:
        bd:42:72:1d:51:3e:a8:40:59:65:43:36:f5:9b:98:76:7c:5e:
        4b:ee:e8:bc:e7:9b:72:39:5c:17:5b:c8:0f:72:c0:33:8f:06:
        d7:86:46:51:16:1d:e6:3c:73:18:0d:86:a2:15:a8:f1:00:fd:
        d7:9a:10:f7:37:bd:f7:34:ae:b4:85:53:0c:54:31:1e:e1:29:
        83:5c:80:bc:38:08:56:6e:9f:05:23:8c:1c:cb:32:da:84:38:
        8a:fa:40:ee:5a:d6:10:9c:a0:a9:46:28:e0:aa:cc:a7:33:5f:
        9b:38:1b:99:c1:47:09:45:9a:ba:cc:a4:98:c9:ba:71:8e:d2:
        7b:2d:26:aa:50:80:14:c3:3b:ec:21:54:1b:8f:c5:1f:80:a7:
        1f:eb:ef:00:af:b7:49:39:26:5a:af:09:27:86:5d:65:85:6c:
        5d:2d:48:d0:3e:19:58:33:5b:bc:d5:17:de:0f:9c:fb:c8:27:
        48:26:1b:f4:ca:e2:d6:76:16:b9:18:00:73:a0:6b:da:0d:6f:
        53:6a:37:01
-----BEGIN CERTIFICATE-----
MIIDcjCCAlqgAwIBAgIPTLTBlB8ObZpylzLCV9woMA0GCSqGSIb3DQEBCwUAMBUx
EzARBgNVBAMMCnRlYW04OC1uZXQwHhcNMjMxMTA0MTA0MjAzWhcNMjYxMDE5MTA0
MjAzWjAYMRYwFAYDVQQDDA10ZWFtODgtc2VydmVyMIIBIjANBgkqhkiG9w0BAQEF
AAOCAQ8AMIIBCgKCAQEAnmHdTFXQlKwkHlVepnkMNzXnEP4mChL+TpOkTPLmuwq3
YEJN7THPxIw7drQ7WejnsbOz0yJitGkLAE84XN/Jec1QEfERNVpL3fyjBG9khQYB
bMMl2C8zEQ9D7FHC7hJepC9Exz4avnQm5fFkGKHoUb+L2r69r9y9k46K8iTc1tkU
GUBx5+SfUrPnr46EGrBGgucOcI93Go3FYHdvfX3gGTezQeMvgVHnVShP4KozFDT2
IWm2Hax2e/SLn5u7fG9OJvByZwOhahD0s83ufCOdu0klogAPpKOGEXJbXpU5hxI6
w8Lqb5fzVYbSKA4mWoCY/fK6xxJS9TubIgbaHuc4dQIDAQABo4G7MIG4MAkGA1Ud
EwQCMAAwHQYDVR0OBBYEFEIaOxo7LGnkfNnAP2uWe1HMjFbSMFAGA1UdIwRJMEeA
FPCcNCnAKfdBFq7kz9i6O7nTgU/poRmkFzAVMRMwEQYDVQQDDAp0ZWFtODgtbmV0
ghRMPq1ygxkTujvp3m32EjT+Fg1qwDATBgNVHSUEDDAKBggrBgEFBQcDATALBgNV
HQ8EBAMCBaAwGAYDVR0RBBEwD4INdGVhbTg4LXNlcnZlcjANBgkqhkiG9w0BAQsF
AAOCAQEAXZ1xavQbSPZ+o9q8wJLKGpJdeFyIIR/Gw/jcj9DPeMHIlGpcWRn500qy
b94CsTNOEH75lc83vUJyHVE+qEBZZUM29ZuYdnxeS+7ovOebcjlcF1vID3LAM48G
14ZGURYd5jxzGA2GohWo8QD915oQ9ze99zSutIVTDFQxHuEpg1yAvDgIVm6fBSOM
HMsy2oQ4ivpA7lrWEJygqUYo4KrMpzNfmzgbmcFHCUWausykmMm6cY7Sey0mqlCA
FMM77CFUG4/FH4CnH+vvAK+3STkmWq8JJ4ZdZYVsXS1I0D4ZWDNbvNUX3g+c+8gn
SCYb9Mri1nYWuRgAc6Br2g1vU2o3AQ==
-----END CERTIFICATE-----
