Certificate:
    Data:
        Version: 3 (0x2)
        Serial Number:
            8b:b6:b7:04:a9:4e:b2:01:43:7f:12:91:49:87:0b:96
        Signature Algorithm: sha256WithRSAEncryption
        Issuer: CN=team88-net
        Validity
            Not Before: Nov  4 11:29:05 2023 GMT
            Not After : Oct 19 11:29:05 2026 GMT
        Subject: CN=team88-client
        Subject Public Key Info:
            Public Key Algorithm: rsaEncryption
                Public-Key: (2048 bit)
                Modulus:
                    00:ed:5a:22:0a:95:ab:95:76:d2:a5:02:2e:b0:2f:
                    bd:4c:e3:65:40:e7:72:0a:75:30:d9:24:53:3b:cd:
                    2f:ac:c5:24:e0:7a:cc:01:d9:59:12:e0:d4:39:63:
                    1b:7a:23:9c:96:ee:0e:3a:5e:08:db:e6:e9:61:72:
                    88:51:88:48:8d:5d:09:df:02:31:07:03:78:38:6e:
                    f4:a7:71:0c:06:e8:ce:c2:09:43:e3:60:10:cc:04:
                    d8:ab:e8:cd:a9:7d:45:67:57:fc:4b:e5:2f:30:2e:
                    b3:21:6d:39:2c:31:21:cb:f0:fa:76:32:52:cd:cf:
                    d1:25:24:02:01:2e:dd:ef:b0:1a:65:19:db:30:2a:
                    04:2a:c2:6c:b9:7e:40:36:5f:30:f2:26:eb:4f:5f:
                    8d:49:49:aa:3f:ae:df:2f:ce:be:6e:59:d6:2c:86:
                    82:c3:75:20:1d:0c:d4:d8:bc:5c:e4:d8:30:a8:06:
                    63:81:3f:86:20:ff:a3:8a:6d:e4:99:cb:20:f9:1e:
                    9e:ed:bf:f4:6c:03:96:c7:ec:71:dd:36:6a:12:88:
                    f0:86:a2:b8:06:70:d0:68:77:40:6c:7c:cc:ee:55:
                    22:5d:c2:e4:5e:5f:b9:65:b8:eb:37:3a:8a:c1:4c:
                    3f:30:6c:c1:3e:a5:dc:13:78:aa:3f:52:30:84:47:
                    c8:99
                Exponent: 65537 (0x10001)
        X509v3 extensions:
            X509v3 Basic Constraints: 
                CA:FALSE
            X509v3 Subject Key Identifier: 
                A7:F4:EE:18:34:F0:E2:0B:8A:8A:62:72:B1:73:79:38:7F:DE:6E:40
            X509v3 Authority Key Identifier: 
                keyid:6B:0A:10:B8:F3:5A:83:A7:A9:FF:25:0F:17:69:36:D0:BA:B2:32:D1
                DirName:/CN=team88-net
                serial:2B:1E:FB:9C:BA:88:60:4B:8E:92:E1:87:CB:79:B2:38:DA:CB:ED:17
            X509v3 Extended Key Usage: 
                TLS Web Client Authentication
            X509v3 Key Usage: 
                Digital Signature
    Signature Algorithm: sha256WithRSAEncryption
    Signature Value:
        2f:5e:bb:9c:82:1b:2a:7f:47:e9:c9:cf:09:0d:f6:42:9c:5b:
        82:f4:96:51:52:5f:23:03:f3:05:f2:e0:2a:d2:b4:4b:d3:ad:
        86:e9:6c:de:5a:0c:e1:78:15:da:9b:19:dd:45:5f:cb:be:c4:
        a0:21:db:9b:cc:86:53:48:27:57:36:5a:d8:04:f8:22:f9:03:
        07:77:57:69:9e:33:d0:f9:15:d5:50:c5:cf:b3:af:68:01:07:
        7e:73:c7:f2:4b:a4:94:2f:2b:5d:c2:0c:8c:52:8c:54:fd:69:
        aa:2a:31:5d:77:61:72:8c:8f:20:f5:4c:ca:85:1c:5e:9b:21:
        ea:54:07:a2:88:c5:9a:ec:09:6c:01:72:e7:95:1a:39:2b:ce:
        ac:ad:dc:84:1e:3c:c3:7d:97:69:52:a5:66:90:06:cb:4a:78:
        31:a2:c4:ca:56:95:77:ff:6c:6a:cb:f2:ed:7f:73:6f:be:36:
        8d:b6:52:a7:e8:b7:29:bb:d1:4b:3c:58:60:9b:fd:d2:7f:88:
        02:17:42:35:83:65:b3:f0:50:9d:4a:b7:51:d6:46:17:49:9c:
        01:fb:93:9c:37:d2:7d:32:16:8e:f2:2d:c3:75:3c:28:23:61:
        7a:cd:cf:ae:01:5e:eb:2f:6c:50:12:02:63:4c:b3:66:b9:7d:
        82:4a:f8:4f
-----BEGIN CERTIFICATE-----
MIIDWjCCAkKgAwIBAgIRAIu2twSpTrIBQ38SkUmHC5YwDQYJKoZIhvcNAQELBQAw
FTETMBEGA1UEAwwKdGVhbTg4LW5ldDAeFw0yMzExMDQxMTI5MDVaFw0yNjEwMTkx
MTI5MDVaMBgxFjAUBgNVBAMMDXRlYW04OC1jbGllbnQwggEiMA0GCSqGSIb3DQEB
AQUAA4IBDwAwggEKAoIBAQDtWiIKlauVdtKlAi6wL71M42VA53IKdTDZJFM7zS+s
xSTgeswB2VkS4NQ5Yxt6I5yW7g46Xgjb5ulhcohRiEiNXQnfAjEHA3g4bvSncQwG
6M7CCUPjYBDMBNir6M2pfUVnV/xL5S8wLrMhbTksMSHL8Pp2MlLNz9ElJAIBLt3v
sBplGdswKgQqwmy5fkA2XzDyJutPX41JSao/rt8vzr5uWdYshoLDdSAdDNTYvFzk
2DCoBmOBP4Yg/6OKbeSZyyD5Hp7tv/RsA5bH7HHdNmoSiPCGorgGcNBod0BsfMzu
VSJdwuReX7lluOs3OorBTD8wbME+pdwTeKo/UjCER8iZAgMBAAGjgaEwgZ4wCQYD
VR0TBAIwADAdBgNVHQ4EFgQUp/TuGDTw4guKimJysXN5OH/ebkAwUAYDVR0jBEkw
R4AUawoQuPNag6ep/yUPF2k20LqyMtGhGaQXMBUxEzARBgNVBAMMCnRlYW04OC1u
ZXSCFCse+5y6iGBLjpLhh8t5sjjay+0XMBMGA1UdJQQMMAoGCCsGAQUFBwMCMAsG
A1UdDwQEAwIHgDANBgkqhkiG9w0BAQsFAAOCAQEAL167nIIbKn9H6cnPCQ32Qpxb
gvSWUVJfIwPzBfLgKtK0S9Othuls3loM4XgV2psZ3UVfy77EoCHbm8yGU0gnVzZa
2AT4IvkDB3dXaZ4z0PkV1VDFz7OvaAEHfnPH8kuklC8rXcIMjFKMVP1pqioxXXdh
coyPIPVMyoUcXpsh6lQHoojFmuwJbAFy55UaOSvOrK3chB48w32XaVKlZpAGy0p4
MaLEylaVd/9sasvy7X9zb742jbZSp+i3KbvRSzxYYJv90n+IAhdCNYNls/BQnUq3
UdZGF0mcAfuTnDfSfTIWjvItw3U8KCNhes3PrgFe6y9sUBICY0yzZrl9gkr4Tw==
-----END CERTIFICATE-----
