Certificate:
    Data:
        Version: 3 (0x2)
        Serial Number:
            97:3c:e0:ed:80:b8:c0:4e:56:c8:af:14:38:1e:ae:ee
        Signature Algorithm: sha256WithRSAEncryption
        Issuer: CN=team88-net
        Validity
            Not Before: Nov  4 10:42:03 2023 GMT
            Not After : Oct 19 10:42:03 2026 GMT
        Subject: CN=team88-client
        Subject Public Key Info:
            Public Key Algorithm: rsaEncryption
                Public-Key: (2048 bit)
                Modulus:
                    00:af:f7:14:8f:7e:d1:e9:28:10:0b:62:2e:6b:4b:
                    f7:c2:32:1e:a0:34:a6:38:76:03:0b:c6:42:95:d5:
                    f3:5f:2d:bf:f6:31:12:ca:17:4f:82:60:b8:b6:be:
                    ef:8e:89:a2:3c:07:41:ef:af:91:09:56:1f:32:d5:
                    00:ad:40:ea:ad:eb:9e:f1:bd:39:b2:4c:58:d6:f6:
                    30:dc:67:d0:96:f6:a7:b8:40:4c:8f:b4:bc:80:90:
                    54:35:08:b6:a2:aa:ef:77:7b:4e:0e:79:7d:89:40:
                    dd:7a:c7:5e:b0:e9:07:d8:13:1e:b4:78:ee:a3:95:
                    27:d0:f9:09:03:c9:c3:db:f0:4d:59:f5:36:78:54:
                    fd:d1:5d:24:4a:44:3d:99:2f:12:9f:bd:53:ae:de:
                    7d:89:18:b4:c5:02:26:fe:a2:6d:0a:e1:e4:9b:7c:
                    4b:60:db:c3:6c:84:90:ee:20:b7:ce:48:00:f5:90:
                    c0:c2:79:31:0f:e2:9a:4e:dc:3e:8d:1c:79:f4:4e:
                    a8:ed:09:ae:43:86:e3:52:ca:8a:95:ce:a2:0a:6b:
                    b1:82:65:fe:eb:95:a0:16:30:f8:23:23:f0:93:e7:
                    94:6c:a4:16:dd:f8:f9:a6:b6:e6:35:bd:53:32:17:
                    40:1d:e1:9b:7d:7a:5c:01:7f:9c:ef:d6:eb:dd:8e:
                    79:59
                Exponent: 65537 (0x10001)
        X509v3 extensions:
            X509v3 Basic Constraints: 
                CA:FALSE
            X509v3 Subject Key Identifier: 
                D7:9E:A9:18:B2:1F:C3:C3:5A:D2:A2:68:D3:1C:9E:A4:A2:BA:A0:A0
            X509v3 Authority Key Identifier: 
                keyid:F0:9C:34:29:C0:29:F7:41:16:AE:E4:CF:D8:BA:3B:B9:D3:81:4F:E9
                DirName:/CN=team88-net
                serial:4C:3E:AD:72:83:19:13:BA:3B:E9:DE:6D:F6:12:34:FE:16:0D:6A:C0
            X509v3 Extended Key Usage: 
                TLS Web Client Authentication
            X509v3 Key Usage: 
                Digital Signature
    Signature Algorithm: sha256WithRSAEncryption
    Signature Value:
        9f:74:27:82:40:72:af:9c:a3:ff:45:f8:4a:ab:0b:e8:3c:5b:
        a6:87:cd:86:6b:63:6f:13:fc:dc:c0:6d:3c:f5:0d:37:b6:eb:
        0a:37:21:24:38:72:9d:f6:4a:02:9d:0c:e5:1a:14:64:29:ac:
        17:be:2b:04:ba:b2:e3:fd:92:2c:7f:a3:36:88:3b:ed:ab:f6:
        e2:14:24:a7:07:84:58:45:26:d3:85:7a:26:eb:ea:2c:7d:0a:
        c3:5d:b2:48:8f:c1:a5:24:ba:0c:6d:65:ce:fe:2e:cd:0a:b3:
        58:53:c8:5f:e4:da:0c:e8:e9:dc:25:58:53:7e:16:3d:d8:45:
        6c:a6:87:47:08:48:e1:ff:ba:9b:7e:5e:ac:d0:4c:7a:20:48:
        1f:70:23:a1:84:95:4a:19:2e:21:fe:b9:6c:66:fa:7c:a0:71:
        73:5b:6a:12:64:ea:46:4f:69:01:2f:5e:4b:31:94:14:a7:e6:
        68:ba:14:5c:2a:ed:28:3d:23:fd:79:81:18:bf:bb:4d:8c:45:
        9f:31:2d:d0:be:ec:90:b5:c6:e0:3a:45:8e:22:59:f1:83:98:
        10:00:1c:34:a9:ae:fe:f5:a6:9b:8b:29:89:b8:5f:04:6e:54:
        eb:c6:47:2f:62:c9:c5:61:83:99:02:e9:65:08:b0:a0:ca:1d:
        ea:a9:48:a4
-----BEGIN CERTIFICATE-----
MIIDWjCCAkKgAwIBAgIRAJc84O2AuMBOVsivFDgeru4wDQYJKoZIhvcNAQELBQAw
FTETMBEGA1UEAwwKdGVhbTg4LW5ldDAeFw0yMzExMDQxMDQyMDNaFw0yNjEwMTkx
MDQyMDNaMBgxFjAUBgNVBAMMDXRlYW04OC1jbGllbnQwggEiMA0GCSqGSIb3DQEB
AQUAA4IBDwAwggEKAoIBAQCv9xSPftHpKBALYi5rS/fCMh6gNKY4dgMLxkKV1fNf
Lb/2MRLKF0+CYLi2vu+OiaI8B0Hvr5EJVh8y1QCtQOqt657xvTmyTFjW9jDcZ9CW
9qe4QEyPtLyAkFQ1CLaiqu93e04OeX2JQN16x16w6QfYEx60eO6jlSfQ+QkDycPb
8E1Z9TZ4VP3RXSRKRD2ZLxKfvVOu3n2JGLTFAib+om0K4eSbfEtg28NshJDuILfO
SAD1kMDCeTEP4ppO3D6NHHn0TqjtCa5DhuNSyoqVzqIKa7GCZf7rlaAWMPgjI/CT
55RspBbd+PmmtuY1vVMyF0Ad4Zt9elwBf5zv1uvdjnlZAgMBAAGjgaEwgZ4wCQYD
VR0TBAIwADAdBgNVHQ4EFgQU156pGLIfw8Na0qJo0xyepKK6oKAwUAYDVR0jBEkw
R4AU8Jw0KcAp90EWruTP2Lo7udOBT+mhGaQXMBUxEzARBgNVBAMMCnRlYW04OC1u
ZXSCFEw+rXKDGRO6O+nebfYSNP4WDWrAMBMGA1UdJQQMMAoGCCsGAQUFBwMCMAsG
A1UdDwQEAwIHgDANBgkqhkiG9w0BAQsFAAOCAQEAn3QngkByr5yj/0X4SqsL6Dxb
pofNhmtjbxP83MBtPPUNN7brCjchJDhynfZKAp0M5RoUZCmsF74rBLqy4/2SLH+j
Nog77av24hQkpweEWEUm04V6JuvqLH0Kw12ySI/BpSS6DG1lzv4uzQqzWFPIX+Ta
DOjp3CVYU34WPdhFbKaHRwhI4f+6m35erNBMeiBIH3AjoYSVShkuIf65bGb6fKBx
c1tqEmTqRk9pAS9eSzGUFKfmaLoUXCrtKD0j/XmBGL+7TYxFnzEt0L7skLXG4DpF
jiJZ8YOYEAAcNKmu/vWmm4spibhfBG5U68ZHL2LJxWGDmQLpZQiwoMod6qlIpA==
-----END CERTIFICATE-----
