Certificate:
    Data:
        Version: 3 (0x2)
        Serial Number:
            77:04:1c:11:ca:ab:8e:d6:b0:b0:33:e5:4a:c4:3a:6f
        Signature Algorithm: sha256WithRSAEncryption
        Issuer: CN=team118-net
        Validity
            Not Before: Nov  3 20:41:15 2023 GMT
            Not After : Oct 18 20:41:15 2026 GMT
        Subject: CN=team118-client
        Subject Public Key Info:
            Public Key Algorithm: rsaEncryption
                Public-Key: (2048 bit)
                Modulus:
                    00:ba:88:53:f6:c5:2d:f7:6c:9b:09:f6:58:dd:ed:
                    0e:db:67:a1:7a:0d:d2:fb:d3:9d:bf:75:83:55:75:
                    09:28:2a:c8:aa:80:be:f7:3c:ef:3d:4f:74:da:ce:
                    f5:c9:81:88:8d:0e:7e:5e:e1:03:d1:72:8e:d6:24:
                    ab:bd:1f:77:c1:fc:6a:98:e8:9b:97:84:c5:20:2f:
                    e9:ef:13:5e:ee:c4:d8:f9:d7:46:3f:00:48:87:26:
                    8c:85:56:3c:c2:c3:80:fe:23:4c:85:8e:b6:01:02:
                    d5:a8:ed:ed:a8:70:84:b1:2f:30:38:c7:b3:e9:12:
                    b4:32:cb:c3:5e:68:ce:5e:1c:33:95:58:6e:a5:4c:
                    d9:66:b5:1a:cf:40:ee:a3:f9:54:80:d2:79:1d:e3:
                    b1:02:ed:b6:65:be:d6:89:46:c8:10:f4:f2:9e:c3:
                    ed:b9:31:5f:65:6f:0b:df:b9:a7:dd:55:33:23:6b:
                    cd:2c:d0:78:82:9a:7e:57:6a:01:70:71:1c:90:44:
                    4a:6d:82:1e:d3:19:ea:9f:22:4d:28:a9:e7:a6:d0:
                    ad:3e:52:71:c4:d1:39:ed:6a:dc:f2:34:80:c0:c1:
                    98:2b:45:17:3e:90:48:0e:87:e6:0c:ff:70:e5:45:
                    fb:a9:02:74:9a:c1:cb:33:f0:01:fd:e5:40:b8:ac:
                    0e:b3
                Exponent: 65537 (0x10001)
        X509v3 extensions:
            X509v3 Basic Constraints: 
                CA:FALSE
            X509v3 Subject Key Identifier: 
                F9:E3:6C:91:14:2D:AD:86:87:DA:0B:8C:B3:82:15:87:DD:55:4A:92
            X509v3 Authority Key Identifier: 
                keyid:3B:5E:67:C3:07:A5:66:0E:4E:7A:7E:2B:51:44:B7:C0:4E:D9:FF:6B
                DirName:/CN=team118-net
                serial:2F:68:C5:C5:7C:E8:D8:83:D6:0E:6F:CA:8F:7B:8F:B8:E6:DD:4A:83
            X509v3 Extended Key Usage: 
                TLS Web Client Authentication
            X509v3 Key Usage: 
                Digital Signature
    Signature Algorithm: sha256WithRSAEncryption
    Signature Value:
        a0:5f:9b:11:36:f7:23:ae:45:3a:44:ea:3b:fa:c0:f4:3c:86:
        ec:74:0a:cd:a2:8a:ee:a8:68:9a:65:ce:37:29:cf:f8:e3:a3:
        2b:92:d8:93:5c:ef:fc:7a:4d:1a:3e:7d:79:89:8e:d5:35:a7:
        56:56:31:2b:85:cd:d9:71:bc:fc:50:54:cb:df:ce:f2:df:51:
        c6:2e:60:31:67:56:26:df:17:03:52:c8:ad:96:c5:3d:0c:2b:
        77:fc:f9:36:dc:de:f4:bf:f7:7b:91:b9:20:4e:a8:a2:c4:af:
        67:d3:29:4f:77:e5:d3:e2:fb:84:bd:45:3d:4f:4b:94:19:a7:
        b5:a0:56:18:20:0e:3f:cd:f6:0c:34:c3:7b:86:89:aa:dd:f4:
        dc:ee:df:fd:57:ce:44:05:c0:f8:82:f6:54:93:97:6b:0c:94:
        d5:96:7a:b5:ae:7c:fa:fe:09:96:10:fc:ae:34:ae:46:5b:6f:
        8d:f1:2b:1d:4e:12:76:0e:e1:85:2e:35:72:a0:d1:93:a2:54:
        18:1f:12:69:9f:bb:a0:68:64:2d:10:03:e4:e7:50:c7:30:3e:
        87:1f:b2:7e:36:47:10:ef:2a:5f:2c:eb:5a:80:36:ab:04:93:
        e8:11:3c:d9:be:7b:12:da:f9:f9:9b:0c:2a:54:3b:44:8e:8e:
        0e:86:db:ec
-----BEGIN CERTIFICATE-----
MIIDXDCCAkSgAwIBAgIQdwQcEcqrjtawsDPlSsQ6bzANBgkqhkiG9w0BAQsFADAW
MRQwEgYDVQQDDAt0ZWFtMTE4LW5ldDAeFw0yMzExMDMyMDQxMTVaFw0yNjEwMTgy
MDQxMTVaMBkxFzAVBgNVBAMMDnRlYW0xMTgtY2xpZW50MIIBIjANBgkqhkiG9w0B
AQEFAAOCAQ8AMIIBCgKCAQEAuohT9sUt92ybCfZY3e0O22eheg3S+9Odv3WDVXUJ
KCrIqoC+9zzvPU902s71yYGIjQ5+XuED0XKO1iSrvR93wfxqmOibl4TFIC/p7xNe
7sTY+ddGPwBIhyaMhVY8wsOA/iNMhY62AQLVqO3tqHCEsS8wOMez6RK0MsvDXmjO
XhwzlVhupUzZZrUaz0Duo/lUgNJ5HeOxAu22Zb7WiUbIEPTynsPtuTFfZW8L37mn
3VUzI2vNLNB4gpp+V2oBcHEckERKbYIe0xnqnyJNKKnnptCtPlJxxNE57Wrc8jSA
wMGYK0UXPpBIDofmDP9w5UX7qQJ0msHLM/AB/eVAuKwOswIDAQABo4GiMIGfMAkG
A1UdEwQCMAAwHQYDVR0OBBYEFPnjbJEULa2Gh9oLjLOCFYfdVUqSMFEGA1UdIwRK
MEiAFDteZ8MHpWYOTnp+K1FEt8BO2f9roRqkGDAWMRQwEgYDVQQDDAt0ZWFtMTE4
LW5ldIIUL2jFxXzo2IPWDm/Kj3uPuObdSoMwEwYDVR0lBAwwCgYIKwYBBQUHAwIw
CwYDVR0PBAQDAgeAMA0GCSqGSIb3DQEBCwUAA4IBAQCgX5sRNvcjrkU6ROo7+sD0
PIbsdArNooruqGiaZc43Kc/446MrktiTXO/8ek0aPn15iY7VNadWVjErhc3Zcbz8
UFTL387y31HGLmAxZ1Ym3xcDUsitlsU9DCt3/Pk23N70v/d7kbkgTqiixK9n0ylP
d+XT4vuEvUU9T0uUGae1oFYYIA4/zfYMNMN7homq3fTc7t/9V85EBcD4gvZUk5dr
DJTVlnq1rnz6/gmWEPyuNK5GW2+N8SsdThJ2DuGFLjVyoNGTolQYHxJpn7ugaGQt
EAPk51DHMD6HH7J+NkcQ7ypfLOtagDarBJPoETzZvnsS2vn5mwwqVDtEjo4Ohtvs
-----END CERTIFICATE-----
