Certificate:
    Data:
        Version: 3 (0x2)
        Serial Number:
            cc:23:8f:fe:28:a7:b9:82:18:68:bf:0d:12:30:1a:95
        Signature Algorithm: sha256WithRSAEncryption
        Issuer: CN=team118-net
        Validity
            Not Before: Nov  3 20:41:15 2023 GMT
            Not After : Oct 18 20:41:15 2026 GMT
        Subject: CN=team118-server
        Subject Public Key Info:
            Public Key Algorithm: rsaEncryption
                Public-Key: (2048 bit)
                Modulus:
                    00:c4:4a:d9:17:00:db:27:d9:8f:a9:db:04:45:6e:
                    3b:53:fe:4b:8e:fd:e6:85:38:aa:25:a7:d9:56:13:
                    69:ee:90:3b:05:62:e0:54:f3:26:85:35:09:ef:a2:
                    d0:43:02:cb:b1:49:e8:de:19:24:e8:8d:fa:bb:f8:
                    7c:5a:af:6f:a3:d8:79:8a:3e:4c:3b:ae:ea:69:ab:
                    00:3c:ae:c7:25:a4:cb:65:c2:d0:9d:87:38:6e:0a:
                    ae:f5:70:ab:71:f2:78:40:47:df:e1:d2:c9:af:9c:
                    4a:6d:7b:b6:5c:e6:fb:5f:ad:4e:83:23:34:28:09:
                    f0:25:1e:65:ac:d5:aa:36:fb:63:f0:cf:82:ea:74:
                    82:df:9b:b1:73:60:f4:93:17:c5:37:f6:69:12:da:
                    84:e6:eb:86:76:c3:b2:23:ea:98:2a:e4:1f:89:76:
                    66:0f:c0:27:32:aa:fd:ed:6d:51:6d:2a:52:1a:75:
                    e4:3a:24:29:36:06:1e:dc:af:73:96:90:aa:1b:e9:
                    ca:5d:c0:3c:bf:6d:6e:0c:05:d6:bd:0e:99:3c:9b:
                    a2:07:e7:b2:9a:2a:45:7b:de:f9:c5:24:7e:35:28:
                    6e:81:ff:11:cb:3d:6f:e0:62:cf:77:f4:66:91:e4:
                    9c:26:af:68:2c:25:54:5b:5a:4f:78:c6:e9:f6:a6:
                    9d:29
                Exponent: 65537 (0x10001)
        X509v3 extensions:
            X509v3 Basic Constraints: 
                CA:FALSE
            X509v3 Subject Key Identifier: 
                AC:32:0E:3F:7A:D6:88:78:66:6A:78:EF:49:99:6F:AC:98:63:9C:02
            X509v3 Authority Key Identifier: 
                keyid:3B:5E:67:C3:07:A5:66:0E:4E:7A:7E:2B:51:44:B7:C0:4E:D9:FF:6B
                DirName:/CN=team118-net
                serial:2F:68:C5:C5:7C:E8:D8:83:D6:0E:6F:CA:8F:7B:8F:B8:E6:DD:4A:83
            X509v3 Extended Key Usage: 
                TLS Web Server Authentication
            X509v3 Key Usage: 
                Digital Signature, Key Encipherment
            X509v3 Subject Alternative Name: 
                DNS:team118-server
    Signature Algorithm: sha256WithRSAEncryption
    Signature Value:
        89:d8:a6:31:d9:6e:07:24:b1:2e:39:28:59:d6:da:63:c9:80:
        9b:ef:68:01:65:56:c5:21:f5:71:1e:d9:58:86:0a:3c:04:d5:
        c1:ac:d6:67:2b:0a:2a:12:81:12:90:cd:49:12:24:1c:17:f7:
        cf:e0:7f:80:79:8f:03:dd:aa:e9:1d:b1:a0:e7:73:52:b9:77:
        73:ea:de:3b:11:e2:ae:7e:62:c7:52:52:14:73:a4:d7:67:9b:
        78:4b:60:dc:66:4b:58:0a:40:77:8a:bf:36:7f:16:60:f0:43:
        98:65:e0:f2:3a:f4:cb:eb:52:64:0e:2a:86:6a:08:bb:36:86:
        7f:4a:29:d3:f6:76:38:65:7b:e5:ae:be:f9:26:14:ee:47:72:
        b0:22:d6:54:12:8f:27:fe:e3:5f:a7:1f:3c:b1:20:f8:45:dd:
        06:06:61:00:db:24:bb:bb:e8:28:0d:64:37:be:4a:00:fc:af:
        f1:46:6c:84:88:69:6d:40:fd:53:5f:76:14:03:0f:c4:d7:b9:
        a7:cb:76:b7:53:a7:99:a3:bf:a5:87:74:b6:db:db:94:62:93:
        a1:d2:15:72:5b:52:66:e8:0d:70:c4:1d:ba:87:1b:64:35:b3:
        f9:00:dc:94:4d:a7:cd:54:f2:08:c9:43:17:26:14:cd:09:94:
        91:f8:74:39
-----BEGIN CERTIFICATE-----
MIIDeDCCAmCgAwIBAgIRAMwjj/4op7mCGGi/DRIwGpUwDQYJKoZIhvcNAQELBQAw
FjEUMBIGA1UEAwwLdGVhbTExOC1uZXQwHhcNMjMxMTAzMjA0MTE1WhcNMjYxMDE4
MjA0MTE1WjAZMRcwFQYDVQQDDA50ZWFtMTE4LXNlcnZlcjCCASIwDQYJKoZIhvcN
AQEBBQADggEPADCCAQoCggEBAMRK2RcA2yfZj6nbBEVuO1P+S4795oU4qiWn2VYT
ae6QOwVi4FTzJoU1Ce+i0EMCy7FJ6N4ZJOiN+rv4fFqvb6PYeYo+TDuu6mmrADyu
xyWky2XC0J2HOG4KrvVwq3HyeEBH3+HSya+cSm17tlzm+1+tToMjNCgJ8CUeZazV
qjb7Y/DPgup0gt+bsXNg9JMXxTf2aRLahObrhnbDsiPqmCrkH4l2Zg/AJzKq/e1t
UW0qUhp15DokKTYGHtyvc5aQqhvpyl3APL9tbgwF1r0OmTybogfnspoqRXve+cUk
fjUoboH/Ecs9b+Biz3f0ZpHknCavaCwlVFtaT3jG6famnSkCAwEAAaOBvTCBujAJ
BgNVHRMEAjAAMB0GA1UdDgQWBBSsMg4/etaIeGZqeO9JmW+smGOcAjBRBgNVHSME
SjBIgBQ7XmfDB6VmDk56fitRRLfATtn/a6EapBgwFjEUMBIGA1UEAwwLdGVhbTEx
OC1uZXSCFC9oxcV86NiD1g5vyo97j7jm3UqDMBMGA1UdJQQMMAoGCCsGAQUFBwMB
MAsGA1UdDwQEAwIFoDAZBgNVHREEEjAQgg50ZWFtMTE4LXNlcnZlcjANBgkqhkiG
9w0BAQsFAAOCAQEAidimMdluBySxLjkoWdbaY8mAm+9oAWVWxSH1cR7ZWIYKPATV
wazWZysKKhKBEpDNSRIkHBf3z+B/gHmPA92q6R2xoOdzUrl3c+reOxHirn5ix1JS
FHOk12ebeEtg3GZLWApAd4q/Nn8WYPBDmGXg8jr0y+tSZA4qhmoIuzaGf0op0/Z2
OGV75a6++SYU7kdysCLWVBKPJ/7jX6cfPLEg+EXdBgZhANsku7voKA1kN75KAPyv
8UZshIhpbUD9U192FAMPxNe5p8t2t1OnmaO/pYd0ttvblGKTodIVcltSZugNcMQd
uocbZDWz+QDclE2nzVTyCMlDFyYUzQmUkfh0OQ==
-----END CERTIFICATE-----
