Certificate:
    Data:
        Version: 3 (0x2)
        Serial Number:
            b7:bc:38:fa:11:d0:c4:55:d8:9b:9c:cd:f4:ba:32:39
        Signature Algorithm: sha256WithRSAEncryption
        Issuer: CN=team289-net
        Validity
            Not Before: Nov  3 20:44:33 2023 GMT
            Not After : Oct 18 20:44:33 2026 GMT
        Subject: CN=team289-server
        Subject Public Key Info:
            Public Key Algorithm: rsaEncryption
                Public-Key: (2048 bit)
                Modulus:
                    00:a1:52:18:fe:bd:ae:57:d8:b4:53:5a:56:22:a1:
                    53:42:e7:3a:09:8d:8b:ad:bf:d2:88:48:a0:01:a0:
                    1a:f3:d1:6a:76:a5:dc:85:08:05:96:63:2d:a5:f0:
                    cd:74:ab:a5:50:b0:5a:de:4b:b5:3c:e6:28:bf:44:
                    ea:ca:aa:6a:0c:1e:78:01:a3:a4:d7:e0:98:0a:b8:
                    04:63:5c:9b:22:60:c4:88:98:82:3b:17:ae:c3:91:
                    ca:66:58:03:20:b1:0e:3d:2d:0b:1c:e5:75:c1:53:
                    75:8b:57:43:cf:bc:8b:38:60:b3:90:f7:dd:d8:13:
                    49:60:cf:8c:f4:0f:f2:c4:b9:0d:42:71:1d:99:d2:
                    3c:88:ae:7d:cd:83:62:82:bf:75:8c:3c:01:98:0d:
                    81:c3:a0:dd:ea:a5:55:4d:f7:f1:f1:36:92:99:79:
                    0c:d8:8b:e8:da:c6:4a:f1:6e:9a:8b:a3:c3:d9:78:
                    c7:52:97:f1:8c:3b:94:11:80:ab:ff:bb:d4:95:63:
                    5c:81:16:1a:5f:1e:96:5e:be:59:be:f9:72:87:a6:
                    79:9d:d4:c7:45:70:4f:c8:9e:9b:a6:06:b9:10:b7:
                    56:61:9d:f5:81:fd:e0:c2:05:92:b2:34:c7:47:3a:
                    c6:5a:7c:b4:7d:32:47:7e:ec:64:3d:d0:3a:16:dc:
                    53:7f
                Exponent: 65537 (0x10001)
        X509v3 extensions:
            X509v3 Basic Constraints: 
                CA:FALSE
            X509v3 Subject Key Identifier: 
                6E:38:7D:2D:19:55:34:0D:BE:9F:2A:26:7C:CD:96:BD:AB:48:1C:81
            X509v3 Authority Key Identifier: 
                keyid:9C:93:52:15:0B:9F:7E:15:BB:F1:26:B2:6F:49:CE:ED:9A:CC:93:44
                DirName:/CN=team289-net
                serial:08:62:69:5F:B7:6E:45:2C:99:5D:FB:C7:3B:86:0A:C4:49:62:1B:D6
            X509v3 Extended Key Usage: 
                TLS Web Server Authentication
            X509v3 Key Usage: 
                Digital Signature, Key Encipherment
            X509v3 Subject Alternative Name: 
                DNS:team289-server
    Signature Algorithm: sha256WithRSAEncryption
    Signature Value:
        50:11:50:99:59:71:10:10:cd:fd:f6:7f:8a:58:24:ec:50:ab:
        f2:53:2c:44:a2:6d:5d:4c:a6:81:ce:35:f9:5f:6a:ec:59:79:
        1f:36:af:7f:38:ac:f6:fb:60:5d:39:16:2b:ce:68:3b:83:f6:
        07:7b:4f:f6:a0:e7:ff:84:07:9f:06:45:db:e0:c0:fd:cc:56:
        12:b4:91:95:c5:be:9f:ae:52:32:ce:b9:2e:24:4b:20:4c:79:
        a6:cb:18:c5:20:50:78:6e:e4:cb:d2:b5:54:55:86:6e:9c:fa:
        57:c8:e8:50:23:d3:12:6d:fd:ae:af:e3:6b:70:df:12:c7:1a:
        80:04:02:96:e9:b8:8b:76:df:12:9d:80:ca:c4:2b:ca:8a:36:
        c7:4e:40:e4:92:57:f2:9a:02:61:87:16:bb:a1:f8:af:48:f8:
        2d:d4:e3:8f:50:e5:9b:c7:6d:fd:6e:cf:ba:b2:b0:1b:1d:7e:
        7c:68:f8:29:49:db:ab:d8:51:98:35:93:98:0f:cb:81:d7:f2:
        42:dd:e3:b2:56:9d:48:0b:bf:08:c6:02:1a:56:7c:a1:89:42:
        27:df:a0:a8:90:1c:67:fc:21:d9:34:4c:c6:b4:62:e6:7a:4a:
        4e:e4:e3:a6:43:43:c0:72:01:79:ef:c8:56:f5:26:bf:5c:39:
        db:25:03:77
-----BEGIN CERTIFICATE-----
MIIDeDCCAmCgAwIBAgIRALe8OPoR0MRV2JuczfS6MjkwDQYJKoZIhvcNAQELBQAw
FjEUMBIGA1UEAwwLdGVhbTI4OS1uZXQwHhcNMjMxMTAzMjA0NDMzWhcNMjYxMDE4
MjA0NDMzWjAZMRcwFQYDVQQDDA50ZWFtMjg5LXNlcnZlcjCCASIwDQYJKoZIhvcN
AQEBBQADggEPADCCAQoCggEBAKFSGP69rlfYtFNaViKhU0LnOgmNi62/0ohIoAGg
GvPRanal3IUIBZZjLaXwzXSrpVCwWt5LtTzmKL9E6sqqagweeAGjpNfgmAq4BGNc
myJgxIiYgjsXrsORymZYAyCxDj0tCxzldcFTdYtXQ8+8izhgs5D33dgTSWDPjPQP
8sS5DUJxHZnSPIiufc2DYoK/dYw8AZgNgcOg3eqlVU338fE2kpl5DNiL6NrGSvFu
moujw9l4x1KX8Yw7lBGAq/+71JVjXIEWGl8ell6+Wb75coemeZ3Ux0VwT8iem6YG
uRC3VmGd9YH94MIFkrI0x0c6xlp8tH0yR37sZD3QOhbcU38CAwEAAaOBvTCBujAJ
BgNVHRMEAjAAMB0GA1UdDgQWBBRuOH0tGVU0Db6fKiZ8zZa9q0gcgTBRBgNVHSME
SjBIgBSck1IVC59+FbvxJrJvSc7tmsyTRKEapBgwFjEUMBIGA1UEAwwLdGVhbTI4
OS1uZXSCFAhiaV+3bkUsmV37xzuGCsRJYhvWMBMGA1UdJQQMMAoGCCsGAQUFBwMB
MAsGA1UdDwQEAwIFoDAZBgNVHREEEjAQgg50ZWFtMjg5LXNlcnZlcjANBgkqhkiG
9w0BAQsFAAOCAQEAUBFQmVlxEBDN/fZ/ilgk7FCr8lMsRKJtXUymgc41+V9q7Fl5
Hzavfzis9vtgXTkWK85oO4P2B3tP9qDn/4QHnwZF2+DA/cxWErSRlcW+n65SMs65
LiRLIEx5pssYxSBQeG7ky9K1VFWGbpz6V8joUCPTEm39rq/ja3DfEscagAQClum4
i3bfEp2AysQryoo2x05A5JJX8poCYYcWu6H4r0j4LdTjj1Dlm8dt/W7PurKwGx1+
fGj4KUnbq9hRmDWTmA/LgdfyQt3jsladSAu/CMYCGlZ8oYlCJ9+gqJAcZ/wh2TRM
xrRi5npKTuTjpkNDwHIBee/IVvUmv1w52yUDdw==
-----END CERTIFICATE-----
