Certificate:
    Data:
        Version: 3 (0x2)
        Serial Number:
            6b:39:4e:6d:05:fd:93:9f:bc:63:ea:60:19:7e:fa:52
        Signature Algorithm: sha256WithRSAEncryption
        Issuer: CN=team203-net
        Validity
            Not Before: Nov  4 10:44:21 2023 GMT
            Not After : Oct 19 10:44:21 2026 GMT
        Subject: CN=team203-client
        Subject Public Key Info:
            Public Key Algorithm: rsaEncryption
                Public-Key: (2048 bit)
                Modulus:
                    00:b5:f4:f5:9c:42:17:d8:81:c5:6e:f3:d7:92:1f:
                    67:52:75:06:7e:c3:c9:2d:d4:b0:04:5f:57:78:16:
                    01:0d:05:cd:7e:f1:6b:80:08:8d:c6:e8:c4:38:fb:
                    16:9c:3e:fc:22:5e:33:21:1a:bc:0e:fd:8f:4a:71:
                    29:36:a8:d0:15:50:d4:d5:c1:1d:67:4d:27:d1:f5:
                    a3:f2:89:c5:3a:d2:30:5f:ff:20:dc:fd:49:fa:a4:
                    90:75:2b:17:e0:9e:d1:f2:51:82:6d:99:68:8a:9e:
                    5b:e7:2f:b2:a1:bc:82:f7:bd:3a:e8:fb:bb:92:09:
                    73:ac:40:e5:c1:58:57:60:dd:72:9a:4a:f7:a3:36:
                    56:99:8f:41:a9:2b:76:46:bb:85:66:0b:e1:69:5e:
                    33:a5:79:fa:81:60:60:a5:02:64:53:98:32:e3:5c:
                    93:f1:0e:18:4a:4c:46:9e:94:4e:5d:32:60:af:ab:
                    a5:38:48:19:af:c7:17:6a:83:0e:e1:f6:94:8c:b5:
                    21:9a:ec:f2:89:35:e4:ae:d5:31:cc:20:53:6a:55:
                    24:82:63:1a:4c:ba:62:44:6b:0e:d7:3c:d4:1b:67:
                    d3:ba:a8:0c:a7:87:81:bd:37:5f:cb:39:a3:3a:42:
                    42:5c:83:4e:43:f0:67:cb:7e:c4:60:77:ef:2c:bf:
                    34:8d
                Exponent: 65537 (0x10001)
        X509v3 extensions:
            X509v3 Basic Constraints: 
                CA:FALSE
            X509v3 Subject Key Identifier: 
                AD:26:E2:BD:E4:DB:C7:31:00:48:E4:72:36:5D:88:CE:9B:87:25:4D
            X509v3 Authority Key Identifier: 
                keyid:62:41:0A:2B:12:E8:6E:B4:CC:EA:4D:CB:24:D3:23:F2:5B:6A:42:9F
                DirName:/CN=team203-net
                serial:37:B7:42:91:78:5E:51:83:40:AF:ED:AC:DA:CC:CB:CC:E6:5B:8E:84
            X509v3 Extended Key Usage: 
                TLS Web Client Authentication
            X509v3 Key Usage: 
                Digital Signature
    Signature Algorithm: sha256WithRSAEncryption
    Signature Value:
        27:86:ee:da:a5:e9:5c:e6:3e:d3:2d:fb:be:dd:f4:a3:ab:28:
        b9:a3:62:ed:b8:61:78:a3:ee:a1:79:05:76:da:0d:69:71:37:
        f2:3b:96:80:b5:d7:14:a0:fc:01:ef:fa:f6:59:06:3a:ec:d4:
        33:82:86:1b:ce:0a:f1:9d:be:53:6b:a0:4a:be:50:0b:38:4f:
        41:4d:f0:ee:30:10:33:2c:b2:76:ab:9a:81:da:33:dd:f1:a5:
        28:05:77:2c:52:de:34:dc:74:fe:ad:22:e2:09:c9:4b:83:76:
        32:70:6f:b8:f1:63:54:47:e2:4d:ab:96:00:01:7a:91:16:b8:
        c4:5e:82:4d:94:77:59:58:92:89:15:40:a4:27:f2:77:64:e4:
        fa:45:21:54:37:52:6b:d1:97:7e:93:dc:0e:3e:2a:bc:65:cb:
        b0:e5:24:f4:9b:30:7a:1e:71:f0:3c:a0:91:57:27:62:30:25:
        94:78:0a:44:2d:a6:d1:10:89:58:85:94:be:13:c5:d9:94:74:
        c1:ca:87:c0:a6:62:5a:ae:86:a6:e2:7c:12:ec:72:f8:5e:22:
        f3:5e:6b:c8:af:bc:d9:f2:43:76:00:e7:19:71:d4:ac:7f:70:
        92:50:02:7e:8e:e1:dd:0f:00:b5:fb:6a:6c:31:62:21:64:9e:
        0b:68:45:b3
-----BEGIN CERTIFICATE-----
MIIDXDCCAkSgAwIBAgIQazlObQX9k5+8Y+pgGX76UjANBgkqhkiG9w0BAQsFADAW
MRQwEgYDVQQDDAt0ZWFtMjAzLW5ldDAeFw0yMzExMDQxMDQ0MjFaFw0yNjEwMTkx
MDQ0MjFaMBkxFzAVBgNVBAMMDnRlYW0yMDMtY2xpZW50MIIBIjANBgkqhkiG9w0B
AQEFAAOCAQ8AMIIBCgKCAQEAtfT1nEIX2IHFbvPXkh9nUnUGfsPJLdSwBF9XeBYB
DQXNfvFrgAiNxujEOPsWnD78Il4zIRq8Dv2PSnEpNqjQFVDU1cEdZ00n0fWj8onF
OtIwX/8g3P1J+qSQdSsX4J7R8lGCbZloip5b5y+yobyC97066Pu7kglzrEDlwVhX
YN1ymkr3ozZWmY9BqSt2RruFZgvhaV4zpXn6gWBgpQJkU5gy41yT8Q4YSkxGnpRO
XTJgr6ulOEgZr8cXaoMO4faUjLUhmuzyiTXkrtUxzCBTalUkgmMaTLpiRGsO1zzU
G2fTuqgMp4eBvTdfyzmjOkJCXINOQ/Bny37EYHfvLL80jQIDAQABo4GiMIGfMAkG
A1UdEwQCMAAwHQYDVR0OBBYEFK0m4r3k28cxAEjkcjZdiM6bhyVNMFEGA1UdIwRK
MEiAFGJBCisS6G60zOpNyyTTI/JbakKfoRqkGDAWMRQwEgYDVQQDDAt0ZWFtMjAz
LW5ldIIUN7dCkXheUYNAr+2s2szLzOZbjoQwEwYDVR0lBAwwCgYIKwYBBQUHAwIw
CwYDVR0PBAQDAgeAMA0GCSqGSIb3DQEBCwUAA4IBAQAnhu7apelc5j7TLfu+3fSj
qyi5o2LtuGF4o+6heQV22g1pcTfyO5aAtdcUoPwB7/r2WQY67NQzgoYbzgrxnb5T
a6BKvlALOE9BTfDuMBAzLLJ2q5qB2jPd8aUoBXcsUt403HT+rSLiCclLg3YycG+4
8WNUR+JNq5YAAXqRFrjEXoJNlHdZWJKJFUCkJ/J3ZOT6RSFUN1Jr0Zd+k9wOPiq8
Zcuw5ST0mzB6HnHwPKCRVydiMCWUeApELabREIlYhZS+E8XZlHTByofApmJaroam
4nwS7HL4XiLzXmvIr7zZ8kN2AOcZcdSsf3CSUAJ+juHdDwC1+2psMWIhZJ4LaEWz
-----END CERTIFICATE-----
