Certificate:
    Data:
        Version: 3 (0x2)
        Serial Number:
            d6:21:86:8f:1e:24:97:dd:69:54:ec:a9:f5:41:e6:6a
        Signature Algorithm: sha256WithRSAEncryption
        Issuer: CN=team203-net
        Validity
            Not Before: Nov  4 11:31:37 2023 GMT
            Not After : Oct 19 11:31:37 2026 GMT
        Subject: CN=team203-client
        Subject Public Key Info:
            Public Key Algorithm: rsaEncryption
                Public-Key: (2048 bit)
                Modulus:
                    00:ba:0b:d6:d6:60:83:e0:31:3c:14:3a:41:f7:88:
                    d8:a2:f3:1d:03:4c:ab:ea:a7:6f:09:92:3a:94:d8:
                    c7:db:ec:74:2a:b0:d3:48:a4:bc:58:8a:db:19:ed:
                    3f:5a:8d:6b:de:3e:75:26:82:42:ed:a4:53:d3:3a:
                    22:e1:9b:9f:cd:cc:c6:c8:82:0b:03:f1:6c:e5:1b:
                    d3:e3:39:ee:ea:a6:7b:ce:b9:e5:43:f5:b4:1c:71:
                    e0:10:a7:ac:f6:7b:90:19:19:06:33:ef:89:d4:f1:
                    d9:32:26:1c:e5:78:13:24:86:c4:b9:71:0b:e6:74:
                    39:d8:5a:12:db:de:1e:ea:d7:e3:f8:fc:2c:49:26:
                    46:87:e3:bc:7f:14:8f:76:cc:99:1b:59:43:d2:cd:
                    dd:04:2f:34:ae:e1:fa:4c:c5:42:8a:54:db:d2:9b:
                    a4:63:2d:df:67:65:93:d3:be:a3:03:96:8d:59:5a:
                    78:48:63:13:ec:0a:01:b5:58:a0:1e:f8:a1:b0:9f:
                    c1:9a:bc:a2:b0:22:6d:fc:da:cb:93:bb:bc:79:0a:
                    43:4c:d1:43:37:88:e9:63:4c:a2:31:7e:08:c3:62:
                    8d:ed:b7:ca:98:83:53:82:a8:23:a8:15:c6:93:8a:
                    e8:55:73:41:6f:a2:8d:58:66:0b:71:97:ac:6a:86:
                    9d:e7
                Exponent: 65537 (0x10001)
        X509v3 extensions:
            X509v3 Basic Constraints: 
                CA:FALSE
            X509v3 Subject Key Identifier: 
                19:E2:0E:DD:95:41:41:ED:BD:C7:0E:FB:5A:9A:62:93:4A:D4:0C:DA
            X509v3 Authority Key Identifier: 
                keyid:74:E5:C0:10:18:52:E4:6D:77:95:94:F9:29:D2:C1:BD:E8:3B:2E:E1
                DirName:/CN=team203-net
                serial:1B:DF:AA:E8:B9:0E:CF:B4:1D:CA:80:62:79:6D:65:6C:94:2C:7B:95
            X509v3 Extended Key Usage: 
                TLS Web Client Authentication
            X509v3 Key Usage: 
                Digital Signature
    Signature Algorithm: sha256WithRSAEncryption
    Signature Value:
        09:68:be:87:13:63:fb:d8:fe:13:c3:fe:f2:5d:6a:78:3f:d9:
        3d:3b:8f:28:ba:d4:78:1a:8e:c4:1f:e0:70:a0:54:35:a0:ac:
        45:11:52:93:51:0c:6d:af:60:0c:37:8a:ac:52:91:10:d2:33:
        b5:62:4f:8f:02:be:74:7f:59:ce:91:ed:ab:7f:0c:fd:f7:62:
        66:6a:f0:da:bd:dc:98:de:b9:b7:bb:e8:85:c8:33:ee:c8:73:
        e2:2f:92:f0:d1:61:43:34:03:b6:0c:d6:5c:d7:60:aa:b6:13:
        39:c2:6c:82:0f:63:e2:4c:c6:4a:25:8e:0b:47:06:cd:90:c0:
        cc:5c:b1:bd:ac:1a:a0:3a:90:06:ed:4c:27:be:72:75:94:cd:
        25:3d:f2:cc:0d:af:f9:71:ad:88:09:25:ed:f7:76:30:96:53:
        48:33:13:9c:4b:1d:b3:52:5a:bb:e4:d3:b7:5b:6c:c8:b9:bd:
        c3:c3:e4:b7:c7:bc:de:ad:f6:9f:5f:34:e7:e7:cc:0b:60:2b:
        74:f0:ac:a1:c7:74:22:a6:c1:78:05:77:4f:0f:72:ae:72:fa:
        8e:ac:00:5d:e7:c3:02:48:b2:d0:1f:08:f5:f5:52:4c:dd:40:
        62:cf:49:dc:08:57:89:10:b4:f2:80:5d:e9:5b:7d:2e:51:99:
        4c:43:ef:46
-----BEGIN CERTIFICATE-----
MIIDXTCCAkWgAwIBAgIRANYhho8eJJfdaVTsqfVB5mowDQYJKoZIhvcNAQELBQAw
FjEUMBIGA1UEAwwLdGVhbTIwMy1uZXQwHhcNMjMxMTA0MTEzMTM3WhcNMjYxMDE5
MTEzMTM3WjAZMRcwFQYDVQQDDA50ZWFtMjAzLWNsaWVudDCCASIwDQYJKoZIhvcN
AQEBBQADggEPADCCAQoCggEBALoL1tZgg+AxPBQ6QfeI2KLzHQNMq+qnbwmSOpTY
x9vsdCqw00ikvFiK2xntP1qNa94+dSaCQu2kU9M6IuGbn83MxsiCCwPxbOUb0+M5
7uqme8655UP1tBxx4BCnrPZ7kBkZBjPvidTx2TImHOV4EySGxLlxC+Z0OdhaEtve
HurX4/j8LEkmRofjvH8Uj3bMmRtZQ9LN3QQvNK7h+kzFQopU29KbpGMt32dlk9O+
owOWjVlaeEhjE+wKAbVYoB74obCfwZq8orAibfzay5O7vHkKQ0zRQzeI6WNMojF+
CMNije23ypiDU4KoI6gVxpOK6FVzQW+ijVhmC3GXrGqGnecCAwEAAaOBojCBnzAJ
BgNVHRMEAjAAMB0GA1UdDgQWBBQZ4g7dlUFB7b3HDvtammKTStQM2jBRBgNVHSME
SjBIgBR05cAQGFLkbXeVlPkp0sG96Dsu4aEapBgwFjEUMBIGA1UEAwwLdGVhbTIw
My1uZXSCFBvfqui5Ds+0HcqAYnltZWyULHuVMBMGA1UdJQQMMAoGCCsGAQUFBwMC
MAsGA1UdDwQEAwIHgDANBgkqhkiG9w0BAQsFAAOCAQEACWi+hxNj+9j+E8P+8l1q
eD/ZPTuPKLrUeBqOxB/gcKBUNaCsRRFSk1EMba9gDDeKrFKRENIztWJPjwK+dH9Z
zpHtq38M/fdiZmrw2r3cmN65t7vohcgz7shz4i+S8NFhQzQDtgzWXNdgqrYTOcJs
gg9j4kzGSiWOC0cGzZDAzFyxvawaoDqQBu1MJ75ydZTNJT3yzA2v+XGtiAkl7fd2
MJZTSDMTnEsds1Jau+TTt1tsyLm9w8Pkt8e83q32n1805+fMC2ArdPCsocd0IqbB
eAV3Tw9yrnL6jqwAXefDAkiy0B8I9fVSTN1AYs9J3AhXiRC08oBd6Vt9LlGZTEPv
Rg==
-----END CERTIFICATE-----
