Certificate:
    Data:
        Version: 3 (0x2)
        Serial Number:
            15:f3:65:bd:21:96:f0:2b:2c:b2:02:ee:2b:8e:8a:69
        Signature Algorithm: sha256WithRSAEncryption
        Issuer: CN=team356-net
        Validity
            Not Before: Nov  4 10:47:06 2023 GMT
            Not After : Oct 19 10:47:06 2026 GMT
        Subject: CN=team356-server
        Subject Public Key Info:
            Public Key Algorithm: rsaEncryption
                Public-Key: (2048 bit)
                Modulus:
                    00:a6:80:8d:fd:e8:49:5e:52:a3:1d:6a:a5:c5:cd:
                    9d:76:42:a6:f2:8e:d7:a7:48:21:3d:22:66:b5:ef:
                    91:94:4c:6c:68:db:43:a2:62:e7:71:56:be:a0:11:
                    8e:cd:55:2b:6a:25:6b:d8:40:a1:47:ce:3e:02:55:
                    3d:cf:ba:b2:c7:cb:f0:be:23:22:6c:b9:85:dc:19:
                    85:38:2d:06:24:3e:e5:6c:31:fe:23:88:7a:fa:87:
                    dd:89:07:62:c7:b3:c7:41:60:7a:d5:27:94:df:7f:
                    b0:bb:e4:98:d3:1f:6d:f1:1a:e6:5d:46:b1:ae:94:
                    85:ba:78:57:e1:ee:39:c5:d3:6d:9e:67:cd:29:2a:
                    f9:9b:ee:94:e3:26:bb:c6:db:f6:a3:f9:df:de:f1:
                    32:6e:46:77:e4:f7:68:76:f6:d3:03:e6:3d:4f:d1:
                    a4:4d:3d:3f:27:be:78:2e:b6:00:d0:36:3b:17:20:
                    da:19:f1:a2:2d:b3:03:98:45:d0:98:6c:ee:c5:df:
                    7a:a9:09:17:49:cf:a5:c9:20:cb:d1:39:14:9c:f0:
                    2f:c5:23:f5:61:e6:84:83:c6:59:60:de:74:2d:31:
                    59:6e:4b:3b:31:cf:a5:ac:a7:7e:b8:8a:5d:87:69:
                    55:6a:e1:5f:bd:b1:d1:7b:46:b5:b8:4f:4e:74:d7:
                    ef:ad
                Exponent: 65537 (0x10001)
        X509v3 extensions:
            X509v3 Basic Constraints: 
                CA:FALSE
            X509v3 Subject Key Identifier: 
                CB:F5:26:D0:79:54:A0:EA:82:F4:B2:F2:65:4D:AD:44:5A:21:05:00
            X509v3 Authority Key Identifier: 
                keyid:18:CE:29:85:C9:63:0F:3B:49:12:D8:4A:66:2C:82:24:D7:34:FE:B9
                DirName:/CN=team356-net
                serial:1A:27:A7:95:24:F2:78:BC:ED:90:E5:94:35:8D:3C:86:AB:8C:BE:AF
            X509v3 Extended Key Usage: 
                TLS Web Server Authentication
            X509v3 Key Usage: 
                Digital Signature, Key Encipherment
            X509v3 Subject Alternative Name: 
                DNS:team356-server
    Signature Algorithm: sha256WithRSAEncryption
    Signature Value:
        25:a3:91:0b:56:d2:59:0f:8c:73:26:40:bb:3f:42:ce:35:df:
        5c:e4:8d:93:c2:ea:8f:4f:48:6e:03:0f:a5:d2:bf:b3:54:09:
        82:7d:73:9a:c4:47:c3:db:ca:f6:cf:b6:4d:e3:45:8e:c5:d6:
        6f:3b:14:b0:6a:3a:95:4a:10:45:66:f5:e2:2d:14:f9:b6:2a:
        3a:5b:7c:5b:b1:bb:ba:36:5e:cc:1a:8d:c4:4f:53:63:26:3a:
        e3:b3:5d:d1:28:ec:b8:6a:55:45:0a:b4:c1:2c:29:b9:10:45:
        0b:e9:5f:e9:da:82:20:df:34:74:d5:16:7f:0a:32:28:44:b6:
        36:c6:78:b0:31:fd:a3:b2:45:53:eb:51:c6:50:9a:69:56:4c:
        87:fb:f6:0d:ab:9f:76:dd:80:68:6d:8d:a2:5e:c9:e5:4e:0d:
        c3:7f:dd:4e:65:64:e5:42:bc:6c:22:f6:16:48:12:7d:e0:6a:
        61:ea:e8:f3:3d:f6:3c:8b:a8:a3:f5:23:98:c2:53:2f:0e:57:
        66:60:21:42:42:5c:ab:96:e7:e1:19:1f:6e:a1:07:49:ad:26:
        11:58:2b:92:76:1f:a6:47:f5:be:19:e4:05:83:ca:75:b7:8e:
        a6:6f:fa:80:40:c4:98:83:8b:44:23:81:de:0d:64:3e:1e:03:
        27:5d:97:f2
-----BEGIN CERTIFICATE-----
MIIDdzCCAl+gAwIBAgIQFfNlvSGW8CsssgLuK46KaTANBgkqhkiG9w0BAQsFADAW
MRQwEgYDVQQDDAt0ZWFtMzU2LW5ldDAeFw0yMzExMDQxMDQ3MDZaFw0yNjEwMTkx
MDQ3MDZaMBkxFzAVBgNVBAMMDnRlYW0zNTYtc2VydmVyMIIBIjANBgkqhkiG9w0B
AQEFAAOCAQ8AMIIBCgKCAQEApoCN/ehJXlKjHWqlxc2ddkKm8o7Xp0ghPSJmte+R
lExsaNtDomLncVa+oBGOzVUraiVr2EChR84+AlU9z7qyx8vwviMibLmF3BmFOC0G
JD7lbDH+I4h6+ofdiQdix7PHQWB61SeU33+wu+SY0x9t8RrmXUaxrpSFunhX4e45
xdNtnmfNKSr5m+6U4ya7xtv2o/nf3vEybkZ35PdodvbTA+Y9T9GkTT0/J754LrYA
0DY7FyDaGfGiLbMDmEXQmGzuxd96qQkXSc+lySDL0TkUnPAvxSP1YeaEg8ZZYN50
LTFZbks7Mc+lrKd+uIpdh2lVauFfvbHRe0a1uE9OdNfvrQIDAQABo4G9MIG6MAkG
A1UdEwQCMAAwHQYDVR0OBBYEFMv1JtB5VKDqgvSy8mVNrURaIQUAMFEGA1UdIwRK
MEiAFBjOKYXJYw87SRLYSmYsgiTXNP65oRqkGDAWMRQwEgYDVQQDDAt0ZWFtMzU2
LW5ldIIUGienlSTyeLztkOWUNY08hquMvq8wEwYDVR0lBAwwCgYIKwYBBQUHAwEw
CwYDVR0PBAQDAgWgMBkGA1UdEQQSMBCCDnRlYW0zNTYtc2VydmVyMA0GCSqGSIb3
DQEBCwUAA4IBAQAlo5ELVtJZD4xzJkC7P0LONd9c5I2TwuqPT0huAw+l0r+zVAmC
fXOaxEfD28r2z7ZN40WOxdZvOxSwajqVShBFZvXiLRT5tio6W3xbsbu6Nl7MGo3E
T1NjJjrjs13RKOy4alVFCrTBLCm5EEUL6V/p2oIg3zR01RZ/CjIoRLY2xniwMf2j
skVT61HGUJppVkyH+/YNq5923YBobY2iXsnlTg3Df91OZWTlQrxsIvYWSBJ94Gph
6ujzPfY8i6ij9SOYwlMvDldmYCFCQlyrlufhGR9uoQdJrSYRWCuSdh+mR/W+GeQF
g8p1t46mb/qAQMSYg4tEI4HeDWQ+HgMnXZfy
-----END CERTIFICATE-----
