Certificate:
    Data:
        Version: 3 (0x2)
        Serial Number:
            5f:2c:a1:d7:78:1e:ee:21:b4:2b:9a:4d:aa:48:40:a8
        Signature Algorithm: sha256WithRSAEncryption
        Issuer: CN=team356-net
        Validity
            Not Before: Nov  4 11:35:20 2023 GMT
            Not After : Oct 19 11:35:20 2026 GMT
        Subject: CN=team356-server
        Subject Public Key Info:
            Public Key Algorithm: rsaEncryption
                Public-Key: (2048 bit)
                Modulus:
                    00:ad:3c:b8:b5:40:32:e5:25:7c:39:58:00:58:b6:
                    d0:d6:6a:a2:f5:26:02:2d:ef:6c:33:4f:a1:dc:6a:
                    35:02:47:9d:7d:2b:da:1b:25:73:4c:79:ef:a1:82:
                    6f:78:b0:96:c1:d3:b7:67:c4:9f:90:d1:ff:61:1f:
                    88:13:d8:f7:5a:91:b8:48:89:d8:41:df:5f:a5:7d:
                    dd:f7:39:19:fa:32:bc:86:a5:8e:7a:25:f0:6a:91:
                    c0:61:7c:73:ea:c3:9a:45:4c:b6:a5:bb:7f:65:ac:
                    3a:b7:4c:fa:8a:39:77:1f:66:82:c7:08:a5:dc:07:
                    65:49:5e:3a:04:f5:03:ec:14:9f:ee:9c:a9:35:bb:
                    2b:e9:d4:f3:05:ec:11:d6:24:85:f2:4f:fd:21:49:
                    a6:ad:31:33:d6:05:52:dd:5d:9f:a9:b8:ae:10:cc:
                    10:18:75:65:e0:ad:42:77:74:ef:97:99:29:32:84:
                    42:47:49:95:31:c6:93:78:0d:49:8c:f6:06:22:3f:
                    60:8e:a3:76:ac:6c:cd:3b:35:85:e6:3f:d2:39:50:
                    8d:22:0d:ba:06:5d:5e:09:66:25:8e:3d:04:fd:d5:
                    15:8b:c7:f1:dc:d3:28:3e:f9:42:81:79:5a:f3:5c:
                    7a:a4:db:da:e5:b4:81:c4:4f:e6:bf:6d:f8:22:78:
                    27:49
                Exponent: 65537 (0x10001)
        X509v3 extensions:
            X509v3 Basic Constraints: 
                CA:FALSE
            X509v3 Subject Key Identifier: 
                ED:CC:E5:0C:C5:48:36:75:6B:12:E0:5C:3B:0A:83:76:F1:99:CD:54
            X509v3 Authority Key Identifier: 
                keyid:DB:09:EB:31:38:FB:42:F2:3B:D7:4A:3C:2C:8E:73:B4:34:08:CC:11
                DirName:/CN=team356-net
                serial:6B:05:F7:57:AB:A9:A1:53:D4:E7:0A:82:69:85:0A:57:59:38:2A:3A
            X509v3 Extended Key Usage: 
                TLS Web Server Authentication
            X509v3 Key Usage: 
                Digital Signature, Key Encipherment
            X509v3 Subject Alternative Name: 
                DNS:team356-server
    Signature Algorithm: sha256WithRSAEncryption
    Signature Value:
        ad:11:7f:26:3f:e9:f9:d0:cf:1f:9e:03:b9:4b:38:53:5a:6b:
        60:59:04:6c:68:1c:2c:84:ed:12:8c:67:9f:1f:2c:a3:d5:96:
        02:bf:29:b7:88:75:df:e0:14:01:fb:b9:3e:39:43:c2:ea:5d:
        e2:50:df:a7:dd:e7:4d:15:87:1e:c2:55:23:96:35:81:55:7e:
        74:58:89:27:b3:d5:28:01:90:2b:32:fb:bd:31:b3:aa:75:43:
        80:6b:69:c3:2b:e3:03:b3:fc:c1:07:54:e9:26:2f:30:94:df:
        50:f9:fc:ee:57:eb:e5:ba:15:75:10:d3:19:b0:b3:57:8c:98:
        21:7c:97:55:a2:5f:b6:c1:74:3b:3d:56:85:c6:8d:2e:48:4c:
        96:01:30:e5:fa:1f:37:38:87:0e:c4:ea:0a:fd:ad:1d:40:3a:
        04:b8:4d:80:8f:a7:ef:66:fd:f3:3a:55:e4:b0:eb:06:83:77:
        da:6e:30:7c:df:22:7c:e7:2d:0f:c7:34:c3:15:b9:0a:c5:05:
        1a:dd:7b:49:78:76:3f:8e:6a:38:79:f1:2d:2a:81:fc:66:cc:
        04:a7:70:3b:65:0b:22:c8:78:19:a0:fa:60:8a:cd:e6:e9:27:
        a7:21:da:33:b4:99:61:ba:9b:00:3a:c4:77:05:eb:fe:5a:d6:
        bc:9a:10:60
-----BEGIN CERTIFICATE-----
MIIDdzCCAl+gAwIBAgIQXyyh13ge7iG0K5pNqkhAqDANBgkqhkiG9w0BAQsFADAW
MRQwEgYDVQQDDAt0ZWFtMzU2LW5ldDAeFw0yMzExMDQxMTM1MjBaFw0yNjEwMTkx
MTM1MjBaMBkxFzAVBgNVBAMMDnRlYW0zNTYtc2VydmVyMIIBIjANBgkqhkiG9w0B
AQEFAAOCAQ8AMIIBCgKCAQEArTy4tUAy5SV8OVgAWLbQ1mqi9SYCLe9sM0+h3Go1
AkedfSvaGyVzTHnvoYJveLCWwdO3Z8SfkNH/YR+IE9j3WpG4SInYQd9fpX3d9zkZ
+jK8hqWOeiXwapHAYXxz6sOaRUy2pbt/Zaw6t0z6ijl3H2aCxwil3AdlSV46BPUD
7BSf7pypNbsr6dTzBewR1iSF8k/9IUmmrTEz1gVS3V2fqbiuEMwQGHVl4K1Cd3Tv
l5kpMoRCR0mVMcaTeA1JjPYGIj9gjqN2rGzNOzWF5j/SOVCNIg26Bl1eCWYljj0E
/dUVi8fx3NMoPvlCgXla81x6pNva5bSBxE/mv234IngnSQIDAQABo4G9MIG6MAkG
A1UdEwQCMAAwHQYDVR0OBBYEFO3M5QzFSDZ1axLgXDsKg3bxmc1UMFEGA1UdIwRK
MEiAFNsJ6zE4+0LyO9dKPCyOc7Q0CMwRoRqkGDAWMRQwEgYDVQQDDAt0ZWFtMzU2
LW5ldIIUawX3V6upoVPU5wqCaYUKV1k4KjowEwYDVR0lBAwwCgYIKwYBBQUHAwEw
CwYDVR0PBAQDAgWgMBkGA1UdEQQSMBCCDnRlYW0zNTYtc2VydmVyMA0GCSqGSIb3
DQEBCwUAA4IBAQCtEX8mP+n50M8fngO5SzhTWmtgWQRsaBwshO0SjGefHyyj1ZYC
vym3iHXf4BQB+7k+OUPC6l3iUN+n3edNFYcewlUjljWBVX50WIkns9UoAZArMvu9
MbOqdUOAa2nDK+MDs/zBB1TpJi8wlN9Q+fzuV+vluhV1ENMZsLNXjJghfJdVol+2
wXQ7PVaFxo0uSEyWATDl+h83OIcOxOoK/a0dQDoEuE2Aj6fvZv3zOlXksOsGg3fa
bjB83yJ85y0PxzTDFbkKxQUa3XtJeHY/jmo4efEtKoH8ZswEp3A7ZQsiyHgZoPpg
is3m6SenIdoztJlhupsAOsR3Bev+Wta8mhBg
-----END CERTIFICATE-----
