Certificate:
    Data:
        Version: 3 (0x2)
        Serial Number:
            6f:b2:95:ef:ca:75:5f:f3:84:15:a1:6f:b8:01:2a:1f
        Signature Algorithm: sha256WithRSAEncryption
        Issuer: CN=team356-net
        Validity
            Not Before: Nov  4 10:47:06 2023 GMT
            Not After : Oct 19 10:47:06 2026 GMT
        Subject: CN=team356-client
        Subject Public Key Info:
            Public Key Algorithm: rsaEncryption
                Public-Key: (2048 bit)
                Modulus:
                    00:c4:53:ea:e8:81:77:47:5e:63:2f:86:5e:f3:dd:
                    bf:a0:87:82:4f:a5:d7:92:2b:9d:5c:98:59:65:79:
                    31:d1:65:40:c1:bf:59:96:1b:30:3e:48:c9:d0:0b:
                    b7:c7:03:52:6e:03:3c:28:40:55:7d:62:24:d7:7e:
                    f1:2e:63:8d:43:03:ff:af:c2:24:7d:03:41:6b:58:
                    12:ba:c8:be:79:2b:a1:33:d4:b8:6a:a9:bc:08:3b:
                    c3:39:40:68:c8:28:dc:69:9c:d3:de:49:c3:c4:e5:
                    3e:e8:0c:af:6e:2c:01:b4:88:5c:d0:b0:ca:54:19:
                    e8:e7:7b:5b:50:94:fa:e4:1f:96:12:2d:2d:5f:80:
                    5a:24:90:3d:3b:cb:8c:bf:4d:90:4f:8d:c5:be:b4:
                    70:b5:c0:1a:02:c2:d3:cd:0d:b6:09:a6:bb:4c:5a:
                    24:79:d8:2b:45:be:2b:68:84:fb:c0:98:80:ae:16:
                    ec:ac:da:ca:ad:e2:f1:b9:98:6b:9c:0b:d0:16:17:
                    04:63:9f:3b:d0:90:75:af:75:f5:d8:b9:07:e6:0a:
                    ef:bb:e7:1f:45:d6:fe:27:85:34:c6:1a:33:55:b7:
                    2f:94:cb:aa:f2:5d:5a:e4:c2:0b:2a:37:34:ae:20:
                    ea:96:2f:f4:db:39:dd:83:bf:9a:16:92:a9:c7:a5:
                    df:7b
                Exponent: 65537 (0x10001)
        X509v3 extensions:
            X509v3 Basic Constraints: 
                CA:FALSE
            X509v3 Subject Key Identifier: 
                90:4C:B5:97:1B:38:D4:DD:23:F3:9E:EA:56:4C:69:F1:1E:4E:E0:78
            X509v3 Authority Key Identifier: 
                keyid:18:CE:29:85:C9:63:0F:3B:49:12:D8:4A:66:2C:82:24:D7:34:FE:B9
                DirName:/CN=team356-net
                serial:1A:27:A7:95:24:F2:78:BC:ED:90:E5:94:35:8D:3C:86:AB:8C:BE:AF
            X509v3 Extended Key Usage: 
                TLS Web Client Authentication
            X509v3 Key Usage: 
                Digital Signature
    Signature Algorithm: sha256WithRSAEncryption
    Signature Value:
        79:0f:03:8e:d9:d3:66:fb:a4:2a:21:62:b3:fb:d0:a1:44:7c:
        b3:e2:d9:eb:5f:e8:79:59:85:66:3c:02:d7:8f:ad:e4:8d:d0:
        80:03:e2:04:fa:7d:f5:59:89:8e:bf:ec:70:97:8b:dc:d9:83:
        53:2f:78:a9:3c:78:3e:f5:df:f9:d0:f5:7f:73:b9:b0:d6:3e:
        70:e8:4d:64:8a:e8:0b:80:69:58:61:2a:fc:84:27:bd:a6:6f:
        6a:5f:f7:64:db:0a:ab:dd:00:2f:1d:b5:18:a4:5b:d0:c6:78:
        f2:ab:4b:3e:35:90:da:40:d9:70:fe:ed:d0:0a:c7:d9:42:5b:
        5c:5f:18:e0:3d:4f:5c:e2:67:37:1f:48:ce:09:fe:d7:7d:d7:
        c5:a9:e4:7e:1f:79:b0:8d:a8:80:88:f8:b0:32:7f:ac:0b:2b:
        55:c7:5f:12:ba:98:76:7d:e9:54:4f:fc:d3:25:7f:f6:1f:78:
        82:13:aa:5f:d3:b0:44:42:7f:4c:cf:7a:90:88:b2:15:48:dc:
        fb:44:38:ed:ac:f3:63:cd:69:fb:8d:da:87:c7:1d:cc:45:a1:
        dc:aa:f9:c9:5c:6e:73:ad:2f:b6:3d:69:e2:dd:b1:e6:07:1a:
        36:e1:e3:86:4b:55:da:da:55:f0:ce:e3:99:c4:f8:b3:19:94:
        2b:cb:1f:d9
-----BEGIN CERTIFICATE-----
MIIDXDCCAkSgAwIBAgIQb7KV78p1X/OEFaFvuAEqHzANBgkqhkiG9w0BAQsFADAW
MRQwEgYDVQQDDAt0ZWFtMzU2LW5ldDAeFw0yMzExMDQxMDQ3MDZaFw0yNjEwMTkx
MDQ3MDZaMBkxFzAVBgNVBAMMDnRlYW0zNTYtY2xpZW50MIIBIjANBgkqhkiG9w0B
AQEFAAOCAQ8AMIIBCgKCAQEAxFPq6IF3R15jL4Ze892/oIeCT6XXkiudXJhZZXkx
0WVAwb9ZlhswPkjJ0Au3xwNSbgM8KEBVfWIk137xLmONQwP/r8IkfQNBa1gSusi+
eSuhM9S4aqm8CDvDOUBoyCjcaZzT3knDxOU+6AyvbiwBtIhc0LDKVBno53tbUJT6
5B+WEi0tX4BaJJA9O8uMv02QT43FvrRwtcAaAsLTzQ22Caa7TFokedgrRb4raIT7
wJiArhbsrNrKreLxuZhrnAvQFhcEY5870JB1r3X12LkH5grvu+cfRdb+J4U0xhoz
VbcvlMuq8l1a5MILKjc0riDqli/02zndg7+aFpKpx6XfewIDAQABo4GiMIGfMAkG
A1UdEwQCMAAwHQYDVR0OBBYEFJBMtZcbONTdI/Oe6lZMafEeTuB4MFEGA1UdIwRK
MEiAFBjOKYXJYw87SRLYSmYsgiTXNP65oRqkGDAWMRQwEgYDVQQDDAt0ZWFtMzU2
LW5ldIIUGienlSTyeLztkOWUNY08hquMvq8wEwYDVR0lBAwwCgYIKwYBBQUHAwIw
CwYDVR0PBAQDAgeAMA0GCSqGSIb3DQEBCwUAA4IBAQB5DwOO2dNm+6QqIWKz+9Ch
RHyz4tnrX+h5WYVmPALXj63kjdCAA+IE+n31WYmOv+xwl4vc2YNTL3ipPHg+9d/5
0PV/c7mw1j5w6E1kiugLgGlYYSr8hCe9pm9qX/dk2wqr3QAvHbUYpFvQxnjyq0s+
NZDaQNlw/u3QCsfZQltcXxjgPU9c4mc3H0jOCf7XfdfFqeR+H3mwjaiAiPiwMn+s
CytVx18Suph2felUT/zTJX/2H3iCE6pf07BEQn9Mz3qQiLIVSNz7RDjtrPNjzWn7
jdqHxx3MRaHcqvnJXG5zrS+2PWni3bHmBxo24eOGS1Xa2lXwzuOZxPizGZQryx/Z
-----END CERTIFICATE-----
