Certificate:
    Data:
        Version: 3 (0x2)
        Serial Number:
            a2:17:a1:db:86:59:3d:3f:4f:b1:67:41:f1:35:ee:95
        Signature Algorithm: sha256WithRSAEncryption
        Issuer: CN=team356-net
        Validity
            Not Before: Nov  3 20:45:46 2023 GMT
            Not After : Oct 18 20:45:46 2026 GMT
        Subject: CN=team356-server
        Subject Public Key Info:
            Public Key Algorithm: rsaEncryption
                Public-Key: (2048 bit)
                Modulus:
                    00:9f:5f:e7:c7:de:e3:e5:27:e7:b3:f5:f8:3c:5f:
                    ad:12:45:df:35:42:a2:26:26:bb:3c:70:93:a8:1e:
                    86:66:7a:1a:c2:bb:52:dc:3f:02:b6:35:71:ef:75:
                    db:f7:6e:aa:6d:1e:85:bc:3c:d3:7e:5d:d3:8a:07:
                    1c:c8:6c:3d:15:9f:31:33:31:a9:f4:12:28:23:ec:
                    da:86:1d:75:be:63:4d:56:2a:3e:0a:68:83:5a:2c:
                    98:a1:5e:3a:6f:18:1c:a0:a1:06:9b:13:02:6b:b3:
                    be:11:9b:52:2f:20:69:b1:51:d9:5e:0a:b4:7d:c3:
                    5a:a5:ab:3b:c4:b1:61:5b:74:79:2d:a8:05:c8:32:
                    ec:f8:3c:06:cb:e7:b3:4a:5e:e2:74:4f:d1:c8:d0:
                    00:da:a7:2e:7e:0c:61:a3:3e:91:d2:1c:84:5b:a8:
                    6d:02:1b:0f:df:6b:1f:08:bc:5d:6d:1c:d6:2e:6f:
                    66:c7:13:ba:01:80:cf:08:22:30:7f:62:f8:a0:66:
                    88:41:35:04:5f:41:f6:75:b2:41:ee:e4:cc:59:85:
                    fb:53:c1:0b:ef:4f:6c:e5:2a:ed:bd:b6:da:b0:52:
                    77:f0:42:7c:1c:80:e8:67:a5:aa:30:12:07:8c:56:
                    7b:27:54:91:c2:2c:1c:bf:da:9e:cd:6b:42:87:1d:
                    15:bb
                Exponent: 65537 (0x10001)
        X509v3 extensions:
            X509v3 Basic Constraints: 
                CA:FALSE
            X509v3 Subject Key Identifier: 
                D1:C0:3F:FC:AF:2C:7C:B8:BA:63:C7:4A:93:66:AD:12:30:11:7E:94
            X509v3 Authority Key Identifier: 
                keyid:45:3F:95:C3:B6:AC:A1:8E:BC:85:E2:4D:73:E8:D0:8A:DB:9E:51:12
                DirName:/CN=team356-net
                serial:70:87:21:FA:F5:76:D3:B0:BD:AC:64:7F:D9:74:4E:07:FC:3C:BE:A2
            X509v3 Extended Key Usage: 
                TLS Web Server Authentication
            X509v3 Key Usage: 
                Digital Signature, Key Encipherment
            X509v3 Subject Alternative Name: 
                DNS:team356-server
    Signature Algorithm: sha256WithRSAEncryption
    Signature Value:
        7d:aa:03:ae:19:68:7f:28:ba:29:4d:65:d2:ae:cf:29:af:0e:
        00:f6:8d:12:c4:99:72:cd:80:2f:dd:34:d7:17:44:20:00:27:
        47:0c:03:e8:d0:ac:f1:f8:21:20:2e:81:45:a3:f6:5f:bd:0e:
        36:23:44:d4:49:77:ca:c3:4a:c2:e8:f6:67:94:36:ee:87:cf:
        85:e3:6f:4d:df:6e:30:b2:4d:f4:84:c1:c8:a0:6b:28:c3:6f:
        ff:4d:31:3f:ef:d2:c6:ba:49:87:02:14:4e:97:9a:d1:d1:f0:
        d4:f9:e4:21:b3:08:dd:66:40:cc:af:f0:00:d0:bc:78:ae:91:
        c0:41:cf:4c:30:01:8f:d2:52:d4:3c:47:2c:90:d0:45:76:af:
        ca:a1:ac:2a:7d:4f:bf:93:19:4d:88:30:cd:d6:59:6e:70:09:
        fe:b6:74:b6:c2:32:bb:d4:ac:e3:82:ef:d6:e9:5a:ff:49:3d:
        24:f6:43:10:99:a4:64:21:02:12:b5:19:ff:7a:12:65:a1:1b:
        85:71:7c:53:d0:60:0f:f9:ab:c4:77:a7:54:f5:c7:0a:15:3d:
        d9:3d:83:f6:5c:0d:b5:0c:b8:af:58:03:1b:58:36:40:8b:6b:
        d1:71:50:fa:f7:6f:fc:c3:e7:af:0d:8f:ac:d9:8b:ad:06:c0:
        d8:c9:3a:11
-----BEGIN CERTIFICATE-----
MIIDeDCCAmCgAwIBAgIRAKIXoduGWT0/T7FnQfE17pUwDQYJKoZIhvcNAQELBQAw
FjEUMBIGA1UEAwwLdGVhbTM1Ni1uZXQwHhcNMjMxMTAzMjA0NTQ2WhcNMjYxMDE4
MjA0NTQ2WjAZMRcwFQYDVQQDDA50ZWFtMzU2LXNlcnZlcjCCASIwDQYJKoZIhvcN
AQEBBQADggEPADCCAQoCggEBAJ9f58fe4+Un57P1+DxfrRJF3zVCoiYmuzxwk6ge
hmZ6GsK7Utw/ArY1ce912/duqm0ehbw8035d04oHHMhsPRWfMTMxqfQSKCPs2oYd
db5jTVYqPgpog1osmKFeOm8YHKChBpsTAmuzvhGbUi8gabFR2V4KtH3DWqWrO8Sx
YVt0eS2oBcgy7Pg8Bsvns0pe4nRP0cjQANqnLn4MYaM+kdIchFuobQIbD99rHwi8
XW0c1i5vZscTugGAzwgiMH9i+KBmiEE1BF9B9nWyQe7kzFmF+1PBC+9PbOUq7b22
2rBSd/BCfByA6GelqjASB4xWeydUkcIsHL/ans1rQocdFbsCAwEAAaOBvTCBujAJ
BgNVHRMEAjAAMB0GA1UdDgQWBBTRwD/8ryx8uLpjx0qTZq0SMBF+lDBRBgNVHSME
SjBIgBRFP5XDtqyhjryF4k1z6NCK255REqEapBgwFjEUMBIGA1UEAwwLdGVhbTM1
Ni1uZXSCFHCHIfr1dtOwvaxkf9l0Tgf8PL6iMBMGA1UdJQQMMAoGCCsGAQUFBwMB
MAsGA1UdDwQEAwIFoDAZBgNVHREEEjAQgg50ZWFtMzU2LXNlcnZlcjANBgkqhkiG
9w0BAQsFAAOCAQEAfaoDrhlofyi6KU1l0q7PKa8OAPaNEsSZcs2AL9001xdEIAAn
RwwD6NCs8fghIC6BRaP2X70ONiNE1El3ysNKwuj2Z5Q27ofPheNvTd9uMLJN9ITB
yKBrKMNv/00xP+/SxrpJhwIUTpea0dHw1PnkIbMI3WZAzK/wANC8eK6RwEHPTDAB
j9JS1DxHLJDQRXavyqGsKn1Pv5MZTYgwzdZZbnAJ/rZ0tsIyu9Ss44Lv1ula/0k9
JPZDEJmkZCECErUZ/3oSZaEbhXF8U9BgD/mrxHenVPXHChU92T2D9lwNtQy4r1gD
G1g2QItr0XFQ+vdv/MPnrw2PrNmLrQbA2Mk6EQ==
-----END CERTIFICATE-----
