Certificate:
    Data:
        Version: 3 (0x2)
        Serial Number:
            32:6e:67:2b:23:23:54:28:8b:08:25:6a:a6:17:b2:83
        Signature Algorithm: sha256WithRSAEncryption
        Issuer: CN=team344-net
        Validity
            Not Before: Nov  4 10:46:54 2023 GMT
            Not After : Oct 19 10:46:54 2026 GMT
        Subject: CN=team344-server
        Subject Public Key Info:
            Public Key Algorithm: rsaEncryption
                Public-Key: (2048 bit)
                Modulus:
                    00:a2:68:c9:fc:16:b2:54:fa:e5:23:59:1c:72:f3:
                    7b:fe:71:f5:ac:b5:ea:8b:6f:9f:98:8e:1b:b5:c4:
                    4c:9a:a3:9a:06:ac:e4:68:2d:79:73:9f:d5:21:be:
                    7e:90:7c:0e:5b:9e:9a:24:b9:a0:35:f1:75:db:92:
                    d7:6d:af:3f:df:dc:fb:70:5b:32:f6:e8:38:41:e8:
                    4b:4c:09:b9:8e:73:91:32:0e:2f:bc:5d:71:76:d0:
                    7b:f6:59:d9:42:0b:56:e3:c5:22:23:3b:93:89:50:
                    2a:1f:eb:a6:0e:2f:54:fa:42:b3:de:80:5a:da:85:
                    d4:7a:f6:df:81:63:b6:5d:15:55:b0:be:99:df:b9:
                    64:5e:c4:a9:b2:fa:81:1b:5d:05:a1:d8:1c:6e:d8:
                    1b:5b:0c:4d:39:99:b9:16:1c:03:5c:c8:56:e7:ed:
                    b8:02:eb:08:d8:af:6d:d1:22:b0:7e:62:33:f0:cd:
                    e9:7e:e1:59:6a:63:57:82:25:2f:a7:f1:ab:05:fd:
                    e0:72:23:82:df:0c:60:1f:42:db:7f:ac:59:bd:bb:
                    88:ca:0d:a3:3b:59:49:1a:ad:d5:e1:f6:a5:5e:22:
                    bb:4a:6d:7a:f1:ed:7c:d3:d6:f3:a3:78:84:39:3e:
                    55:d8:64:4e:c9:53:8b:34:c8:26:ec:95:4e:45:5a:
                    77:8d
                Exponent: 65537 (0x10001)
        X509v3 extensions:
            X509v3 Basic Constraints: 
                CA:FALSE
            X509v3 Subject Key Identifier: 
                8A:F0:DD:A5:B4:28:DB:D0:39:7F:63:BD:7C:4C:23:0C:D9:22:D8:DD
            X509v3 Authority Key Identifier: 
                keyid:49:06:1A:AE:87:64:64:80:80:DA:3C:35:4E:E0:EF:AF:A3:19:29:27
                DirName:/CN=team344-net
                serial:67:34:0E:C2:B0:F4:DB:DF:A3:4C:67:C3:2A:C6:1B:D8:09:76:86:A5
            X509v3 Extended Key Usage: 
                TLS Web Server Authentication
            X509v3 Key Usage: 
                Digital Signature, Key Encipherment
            X509v3 Subject Alternative Name: 
                DNS:team344-server
    Signature Algorithm: sha256WithRSAEncryption
    Signature Value:
        c1:47:32:a9:e9:23:bc:cb:b9:c5:63:4a:ed:5d:ce:b5:9c:7f:
        1b:2b:9b:cc:5f:cf:36:6c:8d:b5:50:b1:61:0d:24:8e:c1:a8:
        bb:d5:13:4b:78:a1:c9:8a:d7:b0:d5:9b:6b:16:e5:81:fa:93:
        ec:5c:26:8c:65:1d:e8:39:9f:46:9e:a3:50:60:cb:6d:d0:f9:
        b8:51:cb:72:c2:ec:39:96:43:40:36:75:12:aa:52:65:29:03:
        44:64:b9:00:47:50:a1:84:4b:86:71:4a:ad:03:a1:98:f2:ea:
        01:af:17:8a:58:57:ce:3a:54:61:fa:af:32:aa:98:ac:7b:fc:
        2e:80:f6:58:5f:af:43:77:68:ee:04:b9:57:be:48:30:16:3c:
        89:b2:e3:54:9d:21:fb:3d:88:3b:d7:cd:2b:c4:b0:07:d4:e0:
        f9:b1:ac:f4:0f:fd:1c:e1:76:f0:7b:b4:88:fd:aa:a6:a9:c2:
        d6:87:f1:e8:38:97:9a:66:a9:7a:77:5c:bc:23:0c:83:50:28:
        e6:e0:78:14:7c:c1:8d:d7:28:96:32:fa:15:7e:aa:ad:08:ba:
        a3:b4:8d:85:8b:66:12:11:fc:a0:a6:76:2e:f5:c8:25:e4:62:
        c2:5e:fb:9c:3a:71:13:2f:47:93:4d:03:88:8d:22:dc:74:c4:
        5f:39:91:17
-----BEGIN CERTIFICATE-----
MIIDdzCCAl+gAwIBAgIQMm5nKyMjVCiLCCVqpheygzANBgkqhkiG9w0BAQsFADAW
MRQwEgYDVQQDDAt0ZWFtMzQ0LW5ldDAeFw0yMzExMDQxMDQ2NTRaFw0yNjEwMTkx
MDQ2NTRaMBkxFzAVBgNVBAMMDnRlYW0zNDQtc2VydmVyMIIBIjANBgkqhkiG9w0B
AQEFAAOCAQ8AMIIBCgKCAQEAomjJ/BayVPrlI1kccvN7/nH1rLXqi2+fmI4btcRM
mqOaBqzkaC15c5/VIb5+kHwOW56aJLmgNfF125LXba8/39z7cFsy9ug4QehLTAm5
jnORMg4vvF1xdtB79lnZQgtW48UiIzuTiVAqH+umDi9U+kKz3oBa2oXUevbfgWO2
XRVVsL6Z37lkXsSpsvqBG10FodgcbtgbWwxNOZm5FhwDXMhW5+24AusI2K9t0SKw
fmIz8M3pfuFZamNXgiUvp/GrBf3gciOC3wxgH0Lbf6xZvbuIyg2jO1lJGq3V4fal
XiK7Sm168e1809bzo3iEOT5V2GROyVOLNMgm7JVORVp3jQIDAQABo4G9MIG6MAkG
A1UdEwQCMAAwHQYDVR0OBBYEFIrw3aW0KNvQOX9jvXxMIwzZItjdMFEGA1UdIwRK
MEiAFEkGGq6HZGSAgNo8NU7g76+jGSknoRqkGDAWMRQwEgYDVQQDDAt0ZWFtMzQ0
LW5ldIIUZzQOwrD029+jTGfDKsYb2Al2hqUwEwYDVR0lBAwwCgYIKwYBBQUHAwEw
CwYDVR0PBAQDAgWgMBkGA1UdEQQSMBCCDnRlYW0zNDQtc2VydmVyMA0GCSqGSIb3
DQEBCwUAA4IBAQDBRzKp6SO8y7nFY0rtXc61nH8bK5vMX882bI21ULFhDSSOwai7
1RNLeKHJitew1ZtrFuWB+pPsXCaMZR3oOZ9GnqNQYMtt0Pm4Uctywuw5lkNANnUS
qlJlKQNEZLkAR1ChhEuGcUqtA6GY8uoBrxeKWFfOOlRh+q8yqpise/wugPZYX69D
d2juBLlXvkgwFjyJsuNUnSH7PYg7180rxLAH1OD5saz0D/0c4Xbwe7SI/aqmqcLW
h/HoOJeaZql6d1y8IwyDUCjm4HgUfMGN1yiWMvoVfqqtCLqjtI2Fi2YSEfygpnYu
9cgl5GLCXvucOnETL0eTTQOIjSLcdMRfOZEX
-----END CERTIFICATE-----
