Certificate:
    Data:
        Version: 3 (0x2)
        Serial Number:
            42:a1:bd:cb:0e:19:86:50:63:ca:90:3a:f6:39:12:8c
        Signature Algorithm: sha256WithRSAEncryption
        Issuer: CN=team344-net
        Validity
            Not Before: Nov  4 11:35:04 2023 GMT
            Not After : Oct 19 11:35:04 2026 GMT
        Subject: CN=team344-client
        Subject Public Key Info:
            Public Key Algorithm: rsaEncryption
                Public-Key: (2048 bit)
                Modulus:
                    00:b5:24:ed:d7:7e:5b:5c:d2:e5:7d:d8:81:98:b9:
                    a0:38:ec:15:ad:8a:f9:4c:95:ff:e3:c2:e3:60:e1:
                    4b:2b:d0:d1:2b:6c:54:66:af:de:70:4b:b8:ba:74:
                    78:a9:b4:b0:e7:fc:13:56:e6:5e:2e:50:d2:06:32:
                    ec:d0:fb:fe:b3:5a:e0:a6:f8:56:37:e0:5d:60:0b:
                    b4:80:ac:86:e3:01:e8:b2:01:b2:59:aa:c7:10:a8:
                    ce:41:b0:86:bd:67:5c:0f:42:7c:5e:56:c5:53:23:
                    c3:35:7b:f4:d9:f1:ee:32:25:45:00:46:f3:3e:f8:
                    94:a4:4e:cf:83:23:ce:09:34:ad:e1:67:9b:f5:c4:
                    07:56:c7:aa:1b:04:1d:94:71:6a:06:af:95:2e:1b:
                    12:d2:b6:33:18:d1:13:28:73:ee:c1:78:ad:9f:8a:
                    a7:c8:65:03:3a:aa:08:8f:e9:70:31:6d:03:ed:26:
                    ca:3e:2c:e0:6e:52:05:14:f4:82:13:14:9f:fb:0c:
                    cf:45:32:13:d2:9a:b8:50:61:70:13:24:80:68:7e:
                    c0:cb:06:52:70:40:c2:b0:29:f5:00:64:9f:a7:79:
                    95:74:75:c1:63:a2:d5:aa:c4:37:31:e3:5f:5a:2c:
                    42:95:1a:4f:c9:81:83:19:bb:30:55:99:8b:5f:fd:
                    7f:61
                Exponent: 65537 (0x10001)
        X509v3 extensions:
            X509v3 Basic Constraints: 
                CA:FALSE
            X509v3 Subject Key Identifier: 
                20:E5:91:74:A5:6A:22:0B:53:7C:FD:73:72:26:29:09:D7:E3:B2:53
            X509v3 Authority Key Identifier: 
                keyid:15:C1:60:0B:23:D5:25:05:7C:C5:00:5A:1B:14:20:08:AF:82:3D:89
                DirName:/CN=team344-net
                serial:04:C3:A8:0A:A3:70:57:8C:4A:40:DD:AE:45:43:04:F8:75:14:07:A3
            X509v3 Extended Key Usage: 
                TLS Web Client Authentication
            X509v3 Key Usage: 
                Digital Signature
    Signature Algorithm: sha256WithRSAEncryption
    Signature Value:
        13:1c:4b:3a:b7:55:19:bd:d1:7f:ca:8d:06:a3:69:1f:09:53:
        f0:2f:b3:24:0a:11:fa:3f:21:a7:48:cc:89:67:5e:a0:24:42:
        aa:14:ba:04:6c:3c:2e:27:f5:1e:1b:68:87:94:29:0d:98:2e:
        14:b1:1d:81:15:28:62:05:0b:50:26:35:4e:a8:d0:2b:bb:4e:
        d0:2a:96:fd:a2:f7:14:ff:2a:c4:14:ab:58:c1:3c:7c:10:47:
        37:8f:69:fb:aa:a5:ea:25:57:36:be:6f:1d:b0:02:43:6c:3c:
        1b:0d:eb:56:ce:3a:22:fe:ca:91:88:c3:73:fe:e3:fa:57:9c:
        41:77:7f:c2:86:c4:5c:f9:14:8e:11:a0:31:42:e6:a0:16:bb:
        f9:37:1d:6e:d6:7b:f8:cf:87:b3:df:06:85:c5:d2:38:c5:90:
        b0:6c:ec:1c:16:4b:1f:86:c7:f2:5a:95:8a:0d:4c:2a:f7:d6:
        b3:c0:7c:8d:ee:9f:74:eb:32:06:0d:c1:5c:ee:c4:47:7f:fe:
        d1:52:80:c1:42:05:83:76:31:82:3d:66:ed:92:4c:a6:7e:55:
        91:0b:01:2d:99:cb:4c:ff:7b:c5:fb:d6:94:d7:35:40:74:37:
        66:9f:1d:e7:bc:3b:58:ab:52:de:06:cd:87:b6:4c:4a:66:f6:
        d8:e6:4d:2c
-----BEGIN CERTIFICATE-----
MIIDXDCCAkSgAwIBAgIQQqG9yw4ZhlBjypA69jkSjDANBgkqhkiG9w0BAQsFADAW
MRQwEgYDVQQDDAt0ZWFtMzQ0LW5ldDAeFw0yMzExMDQxMTM1MDRaFw0yNjEwMTkx
MTM1MDRaMBkxFzAVBgNVBAMMDnRlYW0zNDQtY2xpZW50MIIBIjANBgkqhkiG9w0B
AQEFAAOCAQ8AMIIBCgKCAQEAtSTt135bXNLlfdiBmLmgOOwVrYr5TJX/48LjYOFL
K9DRK2xUZq/ecEu4unR4qbSw5/wTVuZeLlDSBjLs0Pv+s1rgpvhWN+BdYAu0gKyG
4wHosgGyWarHEKjOQbCGvWdcD0J8XlbFUyPDNXv02fHuMiVFAEbzPviUpE7PgyPO
CTSt4Web9cQHVseqGwQdlHFqBq+VLhsS0rYzGNETKHPuwXitn4qnyGUDOqoIj+lw
MW0D7SbKPizgblIFFPSCExSf+wzPRTIT0pq4UGFwEySAaH7AywZScEDCsCn1AGSf
p3mVdHXBY6LVqsQ3MeNfWixClRpPyYGDGbswVZmLX/1/YQIDAQABo4GiMIGfMAkG
A1UdEwQCMAAwHQYDVR0OBBYEFCDlkXSlaiILU3z9c3ImKQnX47JTMFEGA1UdIwRK
MEiAFBXBYAsj1SUFfMUAWhsUIAivgj2JoRqkGDAWMRQwEgYDVQQDDAt0ZWFtMzQ0
LW5ldIIUBMOoCqNwV4xKQN2uRUME+HUUB6MwEwYDVR0lBAwwCgYIKwYBBQUHAwIw
CwYDVR0PBAQDAgeAMA0GCSqGSIb3DQEBCwUAA4IBAQATHEs6t1UZvdF/yo0Go2kf
CVPwL7MkChH6PyGnSMyJZ16gJEKqFLoEbDwuJ/UeG2iHlCkNmC4UsR2BFShiBQtQ
JjVOqNAru07QKpb9ovcU/yrEFKtYwTx8EEc3j2n7qqXqJVc2vm8dsAJDbDwbDetW
zjoi/sqRiMNz/uP6V5xBd3/ChsRc+RSOEaAxQuagFrv5Nx1u1nv4z4ez3waFxdI4
xZCwbOwcFksfhsfyWpWKDUwq99azwHyN7p906zIGDcFc7sRHf/7RUoDBQgWDdjGC
PWbtkkymflWRCwEtmctM/3vF+9aU1zVAdDdmnx3nvDtYq1LeBs2HtkxKZvbY5k0s
-----END CERTIFICATE-----
