Certificate:
    Data:
        Version: 3 (0x2)
        Serial Number:
            53:46:44:8b:55:fc:c2:ee:22:ab:76:7e:9f:6a:ce:24
        Signature Algorithm: sha256WithRSAEncryption
        Issuer: CN=team344-net
        Validity
            Not Before: Nov  4 11:35:04 2023 GMT
            Not After : Oct 19 11:35:04 2026 GMT
        Subject: CN=team344-server
        Subject Public Key Info:
            Public Key Algorithm: rsaEncryption
                Public-Key: (2048 bit)
                Modulus:
                    00:f3:dc:3a:7d:e8:7f:24:e4:3c:8e:9c:58:1f:f3:
                    ad:41:65:6d:fb:67:99:79:6f:8a:ec:9b:9c:12:b9:
                    6b:85:bc:6b:62:e9:81:62:10:1f:7b:dd:d8:41:97:
                    83:f2:91:7e:74:e2:53:a7:6f:b5:41:2b:80:81:11:
                    3d:9d:14:b7:a3:d8:20:92:0c:2a:03:7f:40:fd:bc:
                    18:76:7d:7f:3f:51:2a:b6:f0:33:36:61:f8:50:ad:
                    14:58:c4:23:33:4b:20:11:8f:3b:5c:dd:e8:6b:9f:
                    8c:ae:ce:aa:c0:9b:22:e5:c8:2b:59:9f:03:41:b4:
                    25:03:00:50:d7:78:9d:17:a2:5b:1b:3e:44:82:7e:
                    3c:f1:d6:5d:19:68:43:01:69:71:bb:f2:5c:c3:b8:
                    32:f0:be:5c:b8:a2:9a:44:86:97:4a:3a:1e:90:fe:
                    bf:65:c1:67:f4:ef:22:6b:df:ea:90:18:28:d3:dc:
                    d7:38:2e:1f:38:20:76:ed:6d:cf:d2:d8:ff:81:a7:
                    84:19:72:b3:60:81:6e:ce:7a:5a:a2:3c:45:ed:19:
                    87:7b:17:07:ae:9e:b0:96:17:2d:53:6e:7c:58:a3:
                    87:a8:d1:75:bd:da:b8:7f:b1:eb:51:7d:c6:d4:94:
                    74:4f:d7:d4:e3:a2:47:75:46:0e:2f:04:c7:15:3c:
                    da:27
                Exponent: 65537 (0x10001)
        X509v3 extensions:
            X509v3 Basic Constraints: 
                CA:FALSE
            X509v3 Subject Key Identifier: 
                4B:09:68:83:8E:CE:33:0D:D2:6D:11:E8:70:F7:70:9C:B9:09:85:AC
            X509v3 Authority Key Identifier: 
                keyid:15:C1:60:0B:23:D5:25:05:7C:C5:00:5A:1B:14:20:08:AF:82:3D:89
                DirName:/CN=team344-net
                serial:04:C3:A8:0A:A3:70:57:8C:4A:40:DD:AE:45:43:04:F8:75:14:07:A3
            X509v3 Extended Key Usage: 
                TLS Web Server Authentication
            X509v3 Key Usage: 
                Digital Signature, Key Encipherment
            X509v3 Subject Alternative Name: 
                DNS:team344-server
    Signature Algorithm: sha256WithRSAEncryption
    Signature Value:
        53:8f:ed:a6:6b:15:63:29:0b:f4:63:9f:48:10:fb:0f:a8:07:
        a8:88:d7:d2:3a:3a:cd:c9:21:43:23:45:64:07:81:9b:c3:a5:
        90:ba:04:e5:af:53:8f:ff:bc:2d:2f:1d:26:58:71:1d:6e:f8:
        7f:e3:5f:36:01:0f:ca:2c:f6:a6:74:d8:43:5a:54:54:1e:b6:
        46:71:bc:34:6d:85:eb:e2:e4:0e:3f:08:44:31:ba:3f:d1:98:
        71:6e:7d:59:ee:f0:67:80:44:4f:99:ba:33:e0:12:d8:ba:71:
        c6:25:34:c1:00:c2:d6:fc:4f:e0:b2:77:1f:82:58:56:7a:8f:
        8e:2c:0c:45:6f:35:74:39:06:87:e5:84:bf:b2:d8:95:d1:ee:
        34:a6:73:76:5d:52:41:0a:62:fa:2b:6a:a0:2f:56:dd:dd:06:
        58:ad:2f:62:36:87:73:12:88:a8:22:de:8f:62:4d:39:f0:ea:
        a1:9d:02:74:4f:ea:71:1b:d6:e3:40:91:ae:af:c5:01:5c:a0:
        89:6a:04:dc:a0:fd:92:cc:27:fb:5a:b5:21:10:a4:2c:08:5f:
        c1:d3:c2:88:9d:34:05:d0:35:c5:80:41:b7:ee:1b:b6:85:b6:
        21:02:9e:d9:6c:05:b6:ed:8a:21:78:52:cf:f1:3d:9e:df:cf:
        b9:cd:70:13
-----BEGIN CERTIFICATE-----
MIIDdzCCAl+gAwIBAgIQU0ZEi1X8wu4iq3Z+n2rOJDANBgkqhkiG9w0BAQsFADAW
MRQwEgYDVQQDDAt0ZWFtMzQ0LW5ldDAeFw0yMzExMDQxMTM1MDRaFw0yNjEwMTkx
MTM1MDRaMBkxFzAVBgNVBAMMDnRlYW0zNDQtc2VydmVyMIIBIjANBgkqhkiG9w0B
AQEFAAOCAQ8AMIIBCgKCAQEA89w6feh/JOQ8jpxYH/OtQWVt+2eZeW+K7JucErlr
hbxrYumBYhAfe93YQZeD8pF+dOJTp2+1QSuAgRE9nRS3o9ggkgwqA39A/bwYdn1/
P1EqtvAzNmH4UK0UWMQjM0sgEY87XN3oa5+Mrs6qwJsi5cgrWZ8DQbQlAwBQ13id
F6JbGz5Egn488dZdGWhDAWlxu/Jcw7gy8L5cuKKaRIaXSjoekP6/ZcFn9O8ia9/q
kBgo09zXOC4fOCB27W3P0tj/gaeEGXKzYIFuznpaojxF7RmHexcHrp6wlhctU258
WKOHqNF1vdq4f7HrUX3G1JR0T9fU46JHdUYOLwTHFTzaJwIDAQABo4G9MIG6MAkG
A1UdEwQCMAAwHQYDVR0OBBYEFEsJaIOOzjMN0m0R6HD3cJy5CYWsMFEGA1UdIwRK
MEiAFBXBYAsj1SUFfMUAWhsUIAivgj2JoRqkGDAWMRQwEgYDVQQDDAt0ZWFtMzQ0
LW5ldIIUBMOoCqNwV4xKQN2uRUME+HUUB6MwEwYDVR0lBAwwCgYIKwYBBQUHAwEw
CwYDVR0PBAQDAgWgMBkGA1UdEQQSMBCCDnRlYW0zNDQtc2VydmVyMA0GCSqGSIb3
DQEBCwUAA4IBAQBTj+2maxVjKQv0Y59IEPsPqAeoiNfSOjrNySFDI0VkB4Gbw6WQ
ugTlr1OP/7wtLx0mWHEdbvh/4182AQ/KLPamdNhDWlRUHrZGcbw0bYXr4uQOPwhE
Mbo/0Zhxbn1Z7vBngERPmboz4BLYunHGJTTBAMLW/E/gsncfglhWeo+OLAxFbzV0
OQaH5YS/stiV0e40pnN2XVJBCmL6K2qgL1bd3QZYrS9iNodzEoioIt6PYk058Oqh
nQJ0T+pxG9bjQJGur8UBXKCJagTcoP2SzCf7WrUhEKQsCF/B08KInTQF0DXFgEG3
7hu2hbYhAp7ZbAW27YoheFLP8T2e38+5zXAT
-----END CERTIFICATE-----
