Certificate:
    Data:
        Version: 3 (0x2)
        Serial Number:
            2c:10:c7:f3:cf:6e:cd:7e:13:02:9f:23:51:04:46:2c
        Signature Algorithm: sha256WithRSAEncryption
        Issuer: CN=team207-net
        Validity
            Not Before: Nov  3 20:43:03 2023 GMT
            Not After : Oct 18 20:43:03 2026 GMT
        Subject: CN=team207-server
        Subject Public Key Info:
            Public Key Algorithm: rsaEncryption
                Public-Key: (2048 bit)
                Modulus:
                    00:e9:38:5f:03:ad:6e:74:97:2d:cf:fa:01:c1:7a:
                    7f:d1:72:75:ae:51:f9:0c:96:79:a3:8f:4c:0f:1e:
                    8c:09:4a:69:6b:bb:9b:8b:99:1a:15:9b:f0:7f:e5:
                    96:77:f7:ad:50:59:91:81:07:da:54:03:b3:82:3d:
                    5e:e9:ac:28:fa:7e:f4:f2:7e:79:ba:00:21:2f:3c:
                    92:e4:42:b5:2b:20:59:a8:29:93:ba:6c:8d:bb:6c:
                    cb:6c:d2:94:25:e9:66:d1:4d:0b:04:d7:e6:7a:98:
                    90:d1:4d:2c:59:73:e8:44:0c:56:b9:ca:10:c9:e1:
                    02:82:fe:34:fc:79:1b:42:14:32:a8:2a:c6:15:29:
                    d8:84:95:38:fb:fc:07:69:7f:d3:78:21:c4:f4:93:
                    a5:d9:db:4b:2c:c6:69:42:cf:3f:f2:39:ac:dc:7d:
                    83:6d:c4:5d:7c:a4:4c:bd:aa:f9:84:8d:72:e4:ce:
                    14:12:43:45:ab:25:8c:b5:2f:5f:c0:1c:f9:53:11:
                    ce:60:b7:9d:06:ea:67:b3:3f:1b:7a:bc:aa:f3:80:
                    4e:ba:04:86:95:92:df:c0:92:93:9e:f6:ca:37:26:
                    db:5e:d7:9e:19:64:44:44:3c:6d:bf:ff:e6:13:4f:
                    b3:06:24:e6:21:3e:76:41:16:b1:9e:6f:47:02:9b:
                    ff:63
                Exponent: 65537 (0x10001)
        X509v3 extensions:
            X509v3 Basic Constraints: 
                CA:FALSE
            X509v3 Subject Key Identifier: 
                37:BD:66:52:3A:B1:87:2D:32:C0:18:F9:4F:2A:C6:79:9F:FE:3F:F1
            X509v3 Authority Key Identifier: 
                keyid:18:91:42:FB:F3:12:64:D8:69:98:E3:1E:9A:DF:58:A0:31:A8:7F:18
                DirName:/CN=team207-net
                serial:68:B3:93:98:E4:80:39:57:90:B8:21:60:9C:E5:95:C5:77:65:E4:B1
            X509v3 Extended Key Usage: 
                TLS Web Server Authentication
            X509v3 Key Usage: 
                Digital Signature, Key Encipherment
            X509v3 Subject Alternative Name: 
                DNS:team207-server
    Signature Algorithm: sha256WithRSAEncryption
    Signature Value:
        22:7b:40:93:ab:0c:00:3f:32:b2:82:c6:f1:17:c3:7a:9d:4a:
        1a:b1:0d:5f:e8:f0:58:1e:46:3a:63:9f:6b:4d:13:01:39:96:
        8d:04:c0:c1:81:06:b8:18:1e:2a:60:20:76:cd:04:52:53:5b:
        1a:7e:5f:52:a1:94:40:96:3f:e8:25:b9:86:2e:bb:26:60:69:
        7d:d2:e6:a2:93:85:67:3f:4d:2a:42:e1:37:50:f8:c4:18:e7:
        15:ec:6a:56:9c:fd:24:24:d6:21:71:d8:79:8b:f9:db:c2:78:
        f8:84:29:4b:cb:b6:27:35:b3:e5:97:53:59:87:90:85:9a:08:
        60:45:c4:11:88:43:03:03:3f:5f:22:97:ca:92:24:42:e8:00:
        f3:ad:7b:ae:27:84:7a:9d:03:50:b3:22:0d:89:ff:9f:61:2e:
        e9:ef:83:ca:fd:02:fe:cd:73:bc:31:38:71:e4:d4:78:76:99:
        f9:db:4b:25:42:ba:90:d6:4a:0e:e8:95:b8:40:1a:76:c7:d8:
        98:91:2f:f4:4e:b0:97:0f:4e:01:50:f4:6f:88:0b:68:01:f9:
        54:28:04:14:58:41:85:8c:06:f3:c4:8e:f6:7f:69:22:b6:fb:
        6d:27:e5:f7:98:06:55:39:a4:18:bf:11:4f:a5:32:b7:88:fa:
        79:75:30:3a
-----BEGIN CERTIFICATE-----
MIIDdzCCAl+gAwIBAgIQLBDH889uzX4TAp8jUQRGLDANBgkqhkiG9w0BAQsFADAW
MRQwEgYDVQQDDAt0ZWFtMjA3LW5ldDAeFw0yMzExMDMyMDQzMDNaFw0yNjEwMTgy
MDQzMDNaMBkxFzAVBgNVBAMMDnRlYW0yMDctc2VydmVyMIIBIjANBgkqhkiG9w0B
AQEFAAOCAQ8AMIIBCgKCAQEA6ThfA61udJctz/oBwXp/0XJ1rlH5DJZ5o49MDx6M
CUppa7ubi5kaFZvwf+WWd/etUFmRgQfaVAOzgj1e6awo+n708n55ugAhLzyS5EK1
KyBZqCmTumyNu2zLbNKUJelm0U0LBNfmepiQ0U0sWXPoRAxWucoQyeECgv40/Hkb
QhQyqCrGFSnYhJU4+/wHaX/TeCHE9JOl2dtLLMZpQs8/8jms3H2DbcRdfKRMvar5
hI1y5M4UEkNFqyWMtS9fwBz5UxHOYLedBupnsz8beryq84BOugSGlZLfwJKTnvbK
NybbXteeGWRERDxtv//mE0+zBiTmIT52QRaxnm9HApv/YwIDAQABo4G9MIG6MAkG
A1UdEwQCMAAwHQYDVR0OBBYEFDe9ZlI6sYctMsAY+U8qxnmf/j/xMFEGA1UdIwRK
MEiAFBiRQvvzEmTYaZjjHprfWKAxqH8YoRqkGDAWMRQwEgYDVQQDDAt0ZWFtMjA3
LW5ldIIUaLOTmOSAOVeQuCFgnOWVxXdl5LEwEwYDVR0lBAwwCgYIKwYBBQUHAwEw
CwYDVR0PBAQDAgWgMBkGA1UdEQQSMBCCDnRlYW0yMDctc2VydmVyMA0GCSqGSIb3
DQEBCwUAA4IBAQAie0CTqwwAPzKygsbxF8N6nUoasQ1f6PBYHkY6Y59rTRMBOZaN
BMDBgQa4GB4qYCB2zQRSU1safl9SoZRAlj/oJbmGLrsmYGl90uaik4VnP00qQuE3
UPjEGOcV7GpWnP0kJNYhcdh5i/nbwnj4hClLy7YnNbPll1NZh5CFmghgRcQRiEMD
Az9fIpfKkiRC6ADzrXuuJ4R6nQNQsyINif+fYS7p74PK/QL+zXO8MThx5NR4dpn5
20slQrqQ1koO6JW4QBp2x9iYkS/0TrCXD04BUPRviAtoAflUKAQUWEGFjAbzxI72
f2kitvttJ+X3mAZVOaQYvxFPpTK3iPp5dTA6
-----END CERTIFICATE-----
