Certificate:
    Data:
        Version: 3 (0x2)
        Serial Number:
            3d:69:42:2e:90:d6:66:f4:af:2b:22:51:98:a7:9f:60
        Signature Algorithm: sha256WithRSAEncryption
        Issuer: CN=team207-net
        Validity
            Not Before: Nov  4 11:31:42 2023 GMT
            Not After : Oct 19 11:31:42 2026 GMT
        Subject: CN=team207-server
        Subject Public Key Info:
            Public Key Algorithm: rsaEncryption
                Public-Key: (2048 bit)
                Modulus:
                    00:cd:36:5c:5c:7c:e5:15:f5:8c:e8:d3:6a:ef:45:
                    68:c9:d1:c6:3a:eb:de:ee:e3:94:db:b9:1e:a0:e2:
                    f2:98:fa:c1:f8:8a:6b:69:f3:c5:0a:50:a2:5a:d8:
                    26:3e:7a:55:fa:67:ca:1c:47:17:24:cb:d1:47:40:
                    63:31:f2:06:d5:9e:47:e2:99:dd:a0:05:6f:f5:b2:
                    27:74:f7:33:4e:83:07:be:ca:1b:6d:63:fe:fa:54:
                    a5:a8:a0:fc:ef:f6:21:ae:90:fd:fe:a4:d8:49:b3:
                    06:db:30:46:57:ed:01:65:08:35:57:72:f7:16:b8:
                    de:0e:c7:81:8e:54:e6:b4:01:77:67:7c:77:54:95:
                    c6:d8:98:11:da:1a:22:35:4f:11:aa:9b:40:43:21:
                    c2:c8:98:07:a7:d7:34:35:ad:20:98:c9:14:18:88:
                    d0:3f:29:ab:19:5b:19:14:10:62:d3:97:b0:99:f3:
                    12:2b:4c:97:bc:e7:b6:19:54:17:ec:cb:76:af:7d:
                    c6:46:8b:23:cc:00:d4:b1:32:2e:65:1c:02:d2:be:
                    a9:95:b8:d2:d2:37:ed:58:b1:bc:4b:89:b7:a0:dc:
                    e5:88:85:6a:50:68:13:cd:26:07:cd:1b:d1:06:42:
                    a0:c3:6a:64:01:a6:ad:6e:9d:9a:c2:44:96:cf:25:
                    25:eb
                Exponent: 65537 (0x10001)
        X509v3 extensions:
            X509v3 Basic Constraints: 
                CA:FALSE
            X509v3 Subject Key Identifier: 
                49:5B:E1:06:68:F0:EC:68:91:68:61:77:34:DA:5F:73:1A:14:86:71
            X509v3 Authority Key Identifier: 
                keyid:7E:68:42:12:07:0D:4A:45:4E:80:6A:AC:75:08:0E:CA:92:ED:8E:30
                DirName:/CN=team207-net
                serial:50:7C:01:9A:F7:56:A7:35:10:68:34:A7:1D:C7:05:37:23:33:D4:78
            X509v3 Extended Key Usage: 
                TLS Web Server Authentication
            X509v3 Key Usage: 
                Digital Signature, Key Encipherment
            X509v3 Subject Alternative Name: 
                DNS:team207-server
    Signature Algorithm: sha256WithRSAEncryption
    Signature Value:
        a6:ee:2c:b2:54:9a:c1:7b:0d:91:ad:76:5d:43:ea:1f:54:d7:
        e7:a6:37:ec:c0:15:ee:ce:a2:d0:1e:7b:52:64:a4:e0:57:05:
        a9:e3:42:2b:02:9c:39:b2:0a:90:cd:db:c0:c5:a4:4b:a4:98:
        b2:bb:e3:47:fc:7e:39:fc:ac:23:ba:2b:95:10:8b:e1:34:d8:
        72:3d:14:71:7e:ed:5d:19:20:10:bc:7c:b6:e0:26:89:85:ee:
        b8:ca:46:6a:35:7c:3f:8c:ff:44:7b:d8:09:86:90:fc:5f:47:
        f9:36:bc:fb:66:9e:9c:60:99:5f:eb:0e:3e:9d:23:10:14:d7:
        06:c0:9b:6f:ec:e4:c5:4d:bd:0f:8a:99:33:0a:1b:0c:dd:9f:
        f6:37:70:7b:e9:cc:a0:9d:f8:4e:81:27:b4:34:c0:08:f7:43:
        47:8d:35:03:c3:9b:49:63:37:52:64:ae:3c:82:86:2e:6b:e9:
        b7:8b:91:a2:54:3c:be:08:e7:da:e1:8b:59:79:a9:09:60:46:
        8d:9b:b3:3e:d6:1e:df:49:82:df:f7:a3:33:cd:a6:54:ae:29:
        5f:92:61:ca:76:9a:ce:c8:ce:66:4a:56:5f:5c:85:2d:ec:54:
        da:e0:ab:af:c5:16:77:36:6f:51:b3:b2:ab:19:82:b5:db:d5:
        75:b1:e0:55
-----BEGIN CERTIFICATE-----
MIIDdzCCAl+gAwIBAgIQPWlCLpDWZvSvKyJRmKefYDANBgkqhkiG9w0BAQsFADAW
MRQwEgYDVQQDDAt0ZWFtMjA3LW5ldDAeFw0yMzExMDQxMTMxNDJaFw0yNjEwMTkx
MTMxNDJaMBkxFzAVBgNVBAMMDnRlYW0yMDctc2VydmVyMIIBIjANBgkqhkiG9w0B
AQEFAAOCAQ8AMIIBCgKCAQEAzTZcXHzlFfWM6NNq70VoydHGOuve7uOU27keoOLy
mPrB+IprafPFClCiWtgmPnpV+mfKHEcXJMvRR0BjMfIG1Z5H4pndoAVv9bIndPcz
ToMHvsobbWP++lSlqKD87/YhrpD9/qTYSbMG2zBGV+0BZQg1V3L3FrjeDseBjlTm
tAF3Z3x3VJXG2JgR2hoiNU8RqptAQyHCyJgHp9c0Na0gmMkUGIjQPymrGVsZFBBi
05ewmfMSK0yXvOe2GVQX7Mt2r33GRosjzADUsTIuZRwC0r6plbjS0jftWLG8S4m3
oNzliIVqUGgTzSYHzRvRBkKgw2pkAaatbp2awkSWzyUl6wIDAQABo4G9MIG6MAkG
A1UdEwQCMAAwHQYDVR0OBBYEFElb4QZo8OxokWhhdzTaX3MaFIZxMFEGA1UdIwRK
MEiAFH5oQhIHDUpFToBqrHUIDsqS7Y4woRqkGDAWMRQwEgYDVQQDDAt0ZWFtMjA3
LW5ldIIUUHwBmvdWpzUQaDSnHccFNyMz1HgwEwYDVR0lBAwwCgYIKwYBBQUHAwEw
CwYDVR0PBAQDAgWgMBkGA1UdEQQSMBCCDnRlYW0yMDctc2VydmVyMA0GCSqGSIb3
DQEBCwUAA4IBAQCm7iyyVJrBew2RrXZdQ+ofVNfnpjfswBXuzqLQHntSZKTgVwWp
40IrApw5sgqQzdvAxaRLpJiyu+NH/H45/KwjuiuVEIvhNNhyPRRxfu1dGSAQvHy2
4CaJhe64ykZqNXw/jP9Ee9gJhpD8X0f5Nrz7Zp6cYJlf6w4+nSMQFNcGwJtv7OTF
Tb0PipkzChsM3Z/2N3B76cygnfhOgSe0NMAI90NHjTUDw5tJYzdSZK48goYua+m3
i5GiVDy+COfa4YtZeakJYEaNm7M+1h7fSYLf96MzzaZUrilfkmHKdprOyM5mSlZf
XIUt7FTa4KuvxRZ3Nm9Rs7KrGYK129V1seBV
-----END CERTIFICATE-----
