Certificate:
    Data:
        Version: 3 (0x2)
        Serial Number:
            4d:be:84:6e:2f:60:32:72:64:e2:19:40:e6:e5:f7:64
        Signature Algorithm: sha256WithRSAEncryption
        Issuer: CN=team392-net
        Validity
            Not Before: Nov  4 10:47:43 2023 GMT
            Not After : Oct 19 10:47:43 2026 GMT
        Subject: CN=team392-server
        Subject Public Key Info:
            Public Key Algorithm: rsaEncryption
                Public-Key: (2048 bit)
                Modulus:
                    00:c3:82:44:45:f0:72:ca:a8:87:ab:ab:f9:0a:0e:
                    c2:43:f0:c5:6b:23:f6:49:db:99:b8:9b:77:63:22:
                    b8:46:ba:e5:88:8f:bd:af:05:8f:7c:45:1c:f0:cc:
                    db:26:75:64:5b:b3:1e:ef:58:9c:f4:c2:64:7a:3c:
                    46:ee:47:d7:b3:fa:ee:1e:88:71:e0:3a:e6:6f:51:
                    11:c5:82:13:18:3c:4e:e2:98:0d:36:af:60:07:13:
                    4f:77:fc:58:51:96:0a:6c:cc:f7:2b:23:ac:30:3c:
                    2c:ed:53:da:72:c8:10:68:ca:01:a9:74:40:4a:dc:
                    82:b2:dc:20:78:11:4f:7f:3c:0c:a5:3e:a6:8f:63:
                    f9:af:66:53:15:a7:6f:5a:a8:f8:b9:07:b0:77:41:
                    4a:ad:71:67:14:22:35:71:d0:38:51:40:57:b4:5b:
                    72:24:9a:eb:86:8f:e2:97:cc:95:7e:3f:11:b5:13:
                    0d:08:51:2a:ca:d6:1b:d4:aa:67:b3:02:44:76:98:
                    0f:bc:e5:27:3f:92:65:ae:e0:78:e0:1c:4c:05:9a:
                    b7:95:81:86:d5:d1:52:5e:3e:44:c0:bf:fc:19:5a:
                    35:50:ed:3e:53:fe:fe:62:8f:94:fe:db:53:8c:ff:
                    0b:02:26:0a:e2:c7:92:a4:ea:08:07:5d:62:ad:cd:
                    a7:2b
                Exponent: 65537 (0x10001)
        X509v3 extensions:
            X509v3 Basic Constraints: 
                CA:FALSE
            X509v3 Subject Key Identifier: 
                36:F9:0D:FA:8B:55:D5:FA:60:5F:85:6B:B3:9A:77:D8:A4:93:14:10
            X509v3 Authority Key Identifier: 
                keyid:61:E3:2F:E5:A2:C3:F3:09:07:1B:56:D4:2F:0D:33:49:BB:B7:48:A0
                DirName:/CN=team392-net
                serial:48:75:3D:0A:F2:D6:2F:61:D4:12:6D:85:96:99:B9:D6:EE:82:91:CB
            X509v3 Extended Key Usage: 
                TLS Web Server Authentication
            X509v3 Key Usage: 
                Digital Signature, Key Encipherment
            X509v3 Subject Alternative Name: 
                DNS:team392-server
    Signature Algorithm: sha256WithRSAEncryption
    Signature Value:
        11:96:69:67:e1:3a:20:f8:31:7e:23:19:45:c2:56:15:8e:c0:
        69:13:a4:33:97:d8:c4:81:fa:cb:da:b6:7a:b5:02:a4:d2:07:
        aa:07:51:42:a0:7a:b3:e8:4c:f0:2f:9b:d0:d5:15:a1:87:aa:
        80:82:ca:1a:17:0e:74:4b:7d:8d:5d:1a:d9:18:80:19:df:c0:
        ec:7b:4d:e3:94:f6:9f:c5:d4:c7:71:55:ff:e8:75:29:9e:59:
        0e:96:78:57:76:6f:84:28:76:2a:d8:a1:d7:51:e3:c7:fd:5f:
        9f:3a:d8:f1:4d:3c:d0:f6:1a:14:94:d5:2f:26:bb:f9:30:f2:
        6c:c3:5d:b6:0b:6e:15:7d:e3:05:4b:5a:27:30:f7:84:19:d2:
        48:2a:1d:75:98:3e:7f:7c:09:bd:bc:ec:4a:ea:f6:90:8e:7f:
        b6:09:bd:bf:b8:b9:e0:a4:b7:db:fd:4b:e4:2a:ea:e8:21:e4:
        14:1b:84:28:93:10:21:1a:0b:a1:71:ff:d7:de:5a:53:9c:7c:
        1c:10:d5:71:ff:36:31:71:06:9b:ea:7f:46:13:a0:a2:ef:5c:
        be:96:1e:25:85:a7:cb:87:19:df:04:f4:36:23:de:bf:79:d6:
        4c:6f:13:e3:3d:38:14:a1:39:5f:c2:93:5c:97:1e:36:df:e2:
        35:32:cb:1d
-----BEGIN CERTIFICATE-----
MIIDdzCCAl+gAwIBAgIQTb6Ebi9gMnJk4hlA5uX3ZDANBgkqhkiG9w0BAQsFADAW
MRQwEgYDVQQDDAt0ZWFtMzkyLW5ldDAeFw0yMzExMDQxMDQ3NDNaFw0yNjEwMTkx
MDQ3NDNaMBkxFzAVBgNVBAMMDnRlYW0zOTItc2VydmVyMIIBIjANBgkqhkiG9w0B
AQEFAAOCAQ8AMIIBCgKCAQEAw4JERfByyqiHq6v5Cg7CQ/DFayP2SduZuJt3YyK4
RrrliI+9rwWPfEUc8MzbJnVkW7Me71ic9MJkejxG7kfXs/ruHohx4Drmb1ERxYIT
GDxO4pgNNq9gBxNPd/xYUZYKbMz3KyOsMDws7VPacsgQaMoBqXRAStyCstwgeBFP
fzwMpT6mj2P5r2ZTFadvWqj4uQewd0FKrXFnFCI1cdA4UUBXtFtyJJrrho/il8yV
fj8RtRMNCFEqytYb1KpnswJEdpgPvOUnP5JlruB44BxMBZq3lYGG1dFSXj5EwL/8
GVo1UO0+U/7+Yo+U/ttTjP8LAiYK4seSpOoIB11irc2nKwIDAQABo4G9MIG6MAkG
A1UdEwQCMAAwHQYDVR0OBBYEFDb5DfqLVdX6YF+Fa7Oad9ikkxQQMFEGA1UdIwRK
MEiAFGHjL+Wiw/MJBxtW1C8NM0m7t0igoRqkGDAWMRQwEgYDVQQDDAt0ZWFtMzky
LW5ldIIUSHU9CvLWL2HUEm2Flpm51u6CkcswEwYDVR0lBAwwCgYIKwYBBQUHAwEw
CwYDVR0PBAQDAgWgMBkGA1UdEQQSMBCCDnRlYW0zOTItc2VydmVyMA0GCSqGSIb3
DQEBCwUAA4IBAQARlmln4Tog+DF+IxlFwlYVjsBpE6Qzl9jEgfrL2rZ6tQKk0geq
B1FCoHqz6EzwL5vQ1RWhh6qAgsoaFw50S32NXRrZGIAZ38Dse03jlPafxdTHcVX/
6HUpnlkOlnhXdm+EKHYq2KHXUePH/V+fOtjxTTzQ9hoUlNUvJrv5MPJsw122C24V
feMFS1onMPeEGdJIKh11mD5/fAm9vOxK6vaQjn+2Cb2/uLngpLfb/UvkKuroIeQU
G4QokxAhGguhcf/X3lpTnHwcENVx/zYxcQab6n9GE6Ci71y+lh4lhafLhxnfBPQ2
I96/edZMbxPjPTgUoTlfwpNclx423+I1Mssd
-----END CERTIFICATE-----
