Certificate:
    Data:
        Version: 3 (0x2)
        Serial Number:
            9d:3b:60:f9:0c:53:40:9f:30:bf:0e:66:62:4b:22:30
        Signature Algorithm: sha256WithRSAEncryption
        Issuer: CN=team392-net
        Validity
            Not Before: Nov  4 11:36:19 2023 GMT
            Not After : Oct 19 11:36:19 2026 GMT
        Subject: CN=team392-client
        Subject Public Key Info:
            Public Key Algorithm: rsaEncryption
                Public-Key: (2048 bit)
                Modulus:
                    00:bd:2c:b1:d9:d7:da:a5:96:db:42:8d:f0:0e:f8:
                    43:af:7d:15:28:d4:f4:3d:1d:cd:26:91:22:93:e6:
                    5e:4e:5b:3e:5b:14:6f:71:61:30:30:df:05:26:2e:
                    6f:b2:57:b4:85:a1:df:aa:8a:fa:27:a9:8f:b7:68:
                    62:44:08:90:79:28:7f:77:1f:55:f9:18:d9:d5:85:
                    09:b8:48:35:77:d8:b0:c3:92:ee:f6:68:66:fa:b7:
                    ab:60:79:cb:61:fd:fa:fc:97:0e:ed:cd:1a:ab:54:
                    ec:d5:be:85:5e:5d:50:54:3e:2f:19:7b:7c:f4:07:
                    3d:45:02:e8:06:37:31:4a:07:f9:d9:4a:92:36:35:
                    59:94:d7:76:4b:97:5a:10:b8:e5:5a:19:11:2a:0f:
                    0f:2d:e7:1d:78:76:aa:1a:a0:29:0e:f6:8a:1f:4e:
                    88:cc:d3:12:96:1b:83:df:d4:85:ab:3d:40:14:f1:
                    ba:f4:55:76:58:f9:60:2c:af:93:16:8e:4c:d0:ba:
                    20:b4:e4:ee:ff:07:98:4c:c6:1e:9b:db:8d:60:71:
                    70:39:04:90:fa:9c:52:4f:ca:47:b0:7e:84:a2:34:
                    81:a4:f3:69:3d:53:1a:e9:c4:9d:3a:3d:90:30:67:
                    ae:25:2a:f5:b1:69:77:3a:57:e1:2e:d8:06:c1:c3:
                    c1:c5
                Exponent: 65537 (0x10001)
        X509v3 extensions:
            X509v3 Basic Constraints: 
                CA:FALSE
            X509v3 Subject Key Identifier: 
                27:AB:A2:DC:CC:8C:F9:E8:32:03:0A:92:17:CC:B7:6B:BA:25:E0:84
            X509v3 Authority Key Identifier: 
                keyid:A3:48:1F:AD:A8:92:AA:F8:12:E4:46:6C:9A:9D:C0:10:23:5B:CD:7A
                DirName:/CN=team392-net
                serial:6B:F1:3D:C5:4D:35:24:45:B9:8B:74:C6:CB:31:6B:8C:92:49:AD:4D
            X509v3 Extended Key Usage: 
                TLS Web Client Authentication
            X509v3 Key Usage: 
                Digital Signature
    Signature Algorithm: sha256WithRSAEncryption
    Signature Value:
        74:75:25:27:39:45:86:d3:e0:0e:16:74:15:ff:14:fb:80:e0:
        8e:68:06:df:82:79:fd:ee:d9:b8:3a:09:38:89:1f:8d:77:6f:
        5a:44:ed:43:07:bf:49:85:1b:fb:4e:d7:c7:35:dc:1f:24:e7:
        48:e9:e4:6b:7a:9c:4b:7b:7d:39:5f:c1:17:04:d0:ea:e4:c2:
        85:cc:dc:24:52:22:b6:d0:71:dc:62:62:87:a5:a3:b9:19:f2:
        15:6d:c5:82:4c:71:e1:b9:fc:6e:a6:f3:5a:07:65:29:02:21:
        99:07:9d:d1:38:73:28:23:63:40:c4:f2:fe:86:82:de:b0:55:
        d2:ef:28:04:98:b5:1c:0c:7d:24:10:c7:84:b7:a6:07:d0:58:
        18:f3:20:c7:26:12:85:e5:8a:fb:f4:dd:c1:d7:04:16:70:c0:
        61:db:73:68:f8:ed:dd:9c:69:76:0e:6a:a1:df:cb:dd:c1:20:
        c7:e3:ae:48:78:35:96:ac:77:44:94:d7:8a:62:7d:b3:6d:c2:
        00:55:b4:ab:a8:39:b5:59:45:f1:5b:6c:29:eb:ea:99:ea:9c:
        66:8c:a2:bb:ff:d8:c8:9e:bb:03:dd:37:a3:0e:19:82:af:f6:
        08:68:49:93:c2:e8:a2:a4:c3:3e:d8:43:81:db:19:64:a6:6f:
        34:b3:87:22
-----BEGIN CERTIFICATE-----
MIIDXTCCAkWgAwIBAgIRAJ07YPkMU0CfML8OZmJLIjAwDQYJKoZIhvcNAQELBQAw
FjEUMBIGA1UEAwwLdGVhbTM5Mi1uZXQwHhcNMjMxMTA0MTEzNjE5WhcNMjYxMDE5
MTEzNjE5WjAZMRcwFQYDVQQDDA50ZWFtMzkyLWNsaWVudDCCASIwDQYJKoZIhvcN
AQEBBQADggEPADCCAQoCggEBAL0ssdnX2qWW20KN8A74Q699FSjU9D0dzSaRIpPm
Xk5bPlsUb3FhMDDfBSYub7JXtIWh36qK+iepj7doYkQIkHkof3cfVfkY2dWFCbhI
NXfYsMOS7vZoZvq3q2B5y2H9+vyXDu3NGqtU7NW+hV5dUFQ+Lxl7fPQHPUUC6AY3
MUoH+dlKkjY1WZTXdkuXWhC45VoZESoPDy3nHXh2qhqgKQ72ih9OiMzTEpYbg9/U
has9QBTxuvRVdlj5YCyvkxaOTNC6ILTk7v8HmEzGHpvbjWBxcDkEkPqcUk/KR7B+
hKI0gaTzaT1TGunEnTo9kDBnriUq9bFpdzpX4S7YBsHDwcUCAwEAAaOBojCBnzAJ
BgNVHRMEAjAAMB0GA1UdDgQWBBQnq6LczIz56DIDCpIXzLdruiXghDBRBgNVHSME
SjBIgBSjSB+tqJKq+BLkRmyancAQI1vNeqEapBgwFjEUMBIGA1UEAwwLdGVhbTM5
Mi1uZXSCFGvxPcVNNSRFuYt0xssxa4ySSa1NMBMGA1UdJQQMMAoGCCsGAQUFBwMC
MAsGA1UdDwQEAwIHgDANBgkqhkiG9w0BAQsFAAOCAQEAdHUlJzlFhtPgDhZ0Ff8U
+4DgjmgG34J5/e7ZuDoJOIkfjXdvWkTtQwe/SYUb+07XxzXcHyTnSOnka3qcS3t9
OV/BFwTQ6uTChczcJFIittBx3GJih6WjuRnyFW3Fgkxx4bn8bqbzWgdlKQIhmQed
0ThzKCNjQMTy/oaC3rBV0u8oBJi1HAx9JBDHhLemB9BYGPMgxyYSheWK+/TdwdcE
FnDAYdtzaPjt3Zxpdg5qod/L3cEgx+OuSHg1lqx3RJTXimJ9s23CAFW0q6g5tVlF
8VtsKevqmeqcZoyiu//YyJ67A903ow4Zgq/2CGhJk8LooqTDPthDgdsZZKZvNLOH
Ig==
-----END CERTIFICATE-----
