Certificate:
    Data:
        Version: 3 (0x2)
        Serial Number:
            c4:bd:d5:65:95:1f:74:a6:7d:56:0c:b3:6d:1b:4e:78
        Signature Algorithm: sha256WithRSAEncryption
        Issuer: CN=team392-net
        Validity
            Not Before: Nov  4 11:36:19 2023 GMT
            Not After : Oct 19 11:36:19 2026 GMT
        Subject: CN=team392-server
        Subject Public Key Info:
            Public Key Algorithm: rsaEncryption
                Public-Key: (2048 bit)
                Modulus:
                    00:b2:cd:e1:29:40:55:83:41:aa:11:07:d3:1b:97:
                    3f:b9:61:8b:d8:fe:97:77:34:f6:14:ee:20:da:0d:
                    da:d6:4e:21:d1:d8:7c:ac:aa:c4:0d:cb:5c:8b:34:
                    39:6d:cd:44:4b:f9:74:a9:96:49:c7:c3:6c:03:99:
                    06:15:75:be:0c:a4:f7:43:6e:89:d5:bb:7d:de:44:
                    a5:7f:10:c1:86:10:39:8d:af:e0:78:0f:cb:7b:6f:
                    f6:49:d1:81:20:56:63:97:fa:4a:16:5d:36:2a:36:
                    f0:72:a5:12:60:2f:a9:4a:77:0a:1d:f2:d0:5f:3c:
                    ec:9d:c5:18:eb:b5:3d:84:c5:d8:fb:cb:b7:f7:6d:
                    2f:6c:e8:5e:09:7d:4c:62:30:8b:90:f0:87:fb:68:
                    94:df:d8:b2:01:72:9d:be:69:ad:07:a5:65:43:7d:
                    71:bc:27:a4:21:e3:c1:32:11:cd:e4:d7:d6:21:51:
                    22:07:88:8b:c5:1b:c9:4e:a7:f2:03:34:6c:16:1d:
                    87:cb:92:58:9b:99:c6:02:65:2b:7c:32:03:35:e8:
                    92:bd:db:22:cb:39:3d:04:44:1e:99:2a:23:4a:be:
                    9a:43:cc:4a:3c:4c:3f:8f:05:fc:da:73:82:0d:27:
                    4f:2b:1a:23:2a:4e:9c:f8:51:7c:dc:1f:64:3d:7d:
                    f8:ed
                Exponent: 65537 (0x10001)
        X509v3 extensions:
            X509v3 Basic Constraints: 
                CA:FALSE
            X509v3 Subject Key Identifier: 
                A7:4B:12:4C:46:02:EF:50:F4:76:1F:EA:A7:DF:6D:24:05:03:74:24
            X509v3 Authority Key Identifier: 
                keyid:A3:48:1F:AD:A8:92:AA:F8:12:E4:46:6C:9A:9D:C0:10:23:5B:CD:7A
                DirName:/CN=team392-net
                serial:6B:F1:3D:C5:4D:35:24:45:B9:8B:74:C6:CB:31:6B:8C:92:49:AD:4D
            X509v3 Extended Key Usage: 
                TLS Web Server Authentication
            X509v3 Key Usage: 
                Digital Signature, Key Encipherment
            X509v3 Subject Alternative Name: 
                DNS:team392-server
    Signature Algorithm: sha256WithRSAEncryption
    Signature Value:
        40:a7:6e:1d:a4:dc:52:76:4c:89:ba:de:2b:b8:5e:9d:29:73:
        f2:64:e2:f3:49:17:61:77:77:5c:44:42:16:53:0a:9f:17:c6:
        bc:bf:65:fb:ec:39:b2:0b:a1:3b:1a:ac:00:8f:57:48:0a:34:
        9d:52:20:96:a1:cd:d6:c0:c1:b1:7c:57:70:f2:0e:01:61:20:
        b3:1a:c9:c4:af:ee:bd:89:97:b2:4f:05:4c:6b:ec:f4:1c:cb:
        b4:bd:7c:44:00:b1:5f:35:0c:2a:6d:69:a2:01:8e:3f:30:ab:
        9c:95:2f:6c:3a:89:19:c2:8d:1a:79:96:a1:0f:3f:9a:ab:58:
        93:6c:58:c2:c5:9b:22:b3:a0:85:ac:a2:56:8b:e1:e1:2b:9f:
        c4:0a:e9:88:76:43:79:36:d5:ae:8c:ea:3e:e5:42:0e:20:ba:
        37:b7:83:c1:ef:cd:3b:75:af:35:24:a9:23:b2:72:c4:00:9f:
        5a:c6:4d:bb:ab:de:8e:ba:f7:09:a5:08:21:40:de:25:a1:3c:
        a1:03:a9:64:48:6e:c0:7c:f5:77:d8:24:3f:80:98:50:84:f2:
        37:0a:d2:dc:79:0e:0d:b2:83:33:a8:6f:1a:ad:68:ac:6e:5f:
        c4:50:7b:36:3d:5f:ec:37:a0:06:3c:56:b4:08:bc:d3:e9:66:
        5e:af:35:ed
-----BEGIN CERTIFICATE-----
MIIDeDCCAmCgAwIBAgIRAMS91WWVH3SmfVYMs20bTngwDQYJKoZIhvcNAQELBQAw
FjEUMBIGA1UEAwwLdGVhbTM5Mi1uZXQwHhcNMjMxMTA0MTEzNjE5WhcNMjYxMDE5
MTEzNjE5WjAZMRcwFQYDVQQDDA50ZWFtMzkyLXNlcnZlcjCCASIwDQYJKoZIhvcN
AQEBBQADggEPADCCAQoCggEBALLN4SlAVYNBqhEH0xuXP7lhi9j+l3c09hTuINoN
2tZOIdHYfKyqxA3LXIs0OW3NREv5dKmWScfDbAOZBhV1vgyk90NuidW7fd5EpX8Q
wYYQOY2v4HgPy3tv9knRgSBWY5f6ShZdNio28HKlEmAvqUp3Ch3y0F887J3FGOu1
PYTF2PvLt/dtL2zoXgl9TGIwi5Dwh/tolN/YsgFynb5prQelZUN9cbwnpCHjwTIR
zeTX1iFRIgeIi8UbyU6n8gM0bBYdh8uSWJuZxgJlK3wyAzXokr3bIss5PQREHpkq
I0q+mkPMSjxMP48F/Npzgg0nTysaIypOnPhRfNwfZD19+O0CAwEAAaOBvTCBujAJ
BgNVHRMEAjAAMB0GA1UdDgQWBBSnSxJMRgLvUPR2H+qn320kBQN0JDBRBgNVHSME
SjBIgBSjSB+tqJKq+BLkRmyancAQI1vNeqEapBgwFjEUMBIGA1UEAwwLdGVhbTM5
Mi1uZXSCFGvxPcVNNSRFuYt0xssxa4ySSa1NMBMGA1UdJQQMMAoGCCsGAQUFBwMB
MAsGA1UdDwQEAwIFoDAZBgNVHREEEjAQgg50ZWFtMzkyLXNlcnZlcjANBgkqhkiG
9w0BAQsFAAOCAQEAQKduHaTcUnZMibreK7henSlz8mTi80kXYXd3XERCFlMKnxfG
vL9l++w5sguhOxqsAI9XSAo0nVIglqHN1sDBsXxXcPIOAWEgsxrJxK/uvYmXsk8F
TGvs9BzLtL18RACxXzUMKm1pogGOPzCrnJUvbDqJGcKNGnmWoQ8/mqtYk2xYwsWb
IrOghayiVovh4SufxArpiHZDeTbVrozqPuVCDiC6N7eDwe/NO3WvNSSpI7JyxACf
WsZNu6vejrr3CaUIIUDeJaE8oQOpZEhuwHz1d9gkP4CYUITyNwrS3HkODbKDM6hv
Gq1orG5fxFB7Nj1f7DegBjxWtAi80+lmXq817Q==
-----END CERTIFICATE-----
