Certificate:
    Data:
        Version: 3 (0x2)
        Serial Number:
            48:1f:cb:51:cc:5c:d2:32:69:39:b6:f0:78:3e:32:2a
        Signature Algorithm: sha256WithRSAEncryption
        Issuer: CN=team241-net
        Validity
            Not Before: Nov  3 20:43:43 2023 GMT
            Not After : Oct 18 20:43:43 2026 GMT
        Subject: CN=team241-server
        Subject Public Key Info:
            Public Key Algorithm: rsaEncryption
                Public-Key: (2048 bit)
                Modulus:
                    00:c5:c5:d7:51:21:6b:bd:06:81:f1:b2:86:88:38:
                    66:b1:ff:23:6c:f3:71:59:bc:e9:3b:bc:1f:06:6a:
                    99:08:e1:81:13:5a:25:c1:e4:a6:47:92:4e:8d:78:
                    50:3d:b4:cd:b3:73:a8:ac:99:a7:12:37:97:c6:9c:
                    fc:33:0e:ed:74:40:1a:3b:81:ca:97:61:6c:52:f1:
                    06:ca:b3:38:40:42:64:a1:ab:b8:2b:76:7d:d5:71:
                    6c:db:1f:11:9d:da:a2:fe:95:f7:9c:1c:e7:e8:e3:
                    e6:0b:aa:87:7f:2f:0a:a6:d1:a7:a0:2a:55:ff:8c:
                    5a:db:dc:4d:0d:14:cd:33:0f:00:fc:d6:39:6e:8b:
                    af:5d:9e:cf:0b:df:38:01:9b:dd:e5:2e:83:b8:f2:
                    82:13:45:f1:69:fa:0a:fb:39:e6:91:08:31:f5:81:
                    35:41:47:69:84:1f:a1:a9:d2:bc:10:9b:08:14:0e:
                    f8:6d:ac:0b:f7:ed:9c:23:28:8c:ee:91:2c:b8:8a:
                    1f:59:b0:ac:e1:05:1b:71:b0:a1:ee:e6:a2:23:0a:
                    3c:be:a2:a5:a5:b9:b9:93:49:d0:6f:6d:cb:e5:ae:
                    66:66:f3:6a:fc:ef:a9:41:cf:b6:06:79:bf:d1:b4:
                    af:3e:08:67:e0:74:b9:16:b5:38:88:9a:ee:fb:3b:
                    ca:cb
                Exponent: 65537 (0x10001)
        X509v3 extensions:
            X509v3 Basic Constraints: 
                CA:FALSE
            X509v3 Subject Key Identifier: 
                F7:24:4E:07:1D:20:95:F8:75:66:E4:DE:50:AF:A4:C5:87:F9:A1:13
            X509v3 Authority Key Identifier: 
                keyid:D3:6B:CB:DB:F4:4B:BA:4F:C8:F3:2A:BB:BB:17:74:FD:D0:B2:E3:08
                DirName:/CN=team241-net
                serial:1C:BF:72:C4:C2:D4:82:0C:6A:1E:24:C3:56:07:6D:C0:40:AA:4B:E3
            X509v3 Extended Key Usage: 
                TLS Web Server Authentication
            X509v3 Key Usage: 
                Digital Signature, Key Encipherment
            X509v3 Subject Alternative Name: 
                DNS:team241-server
    Signature Algorithm: sha256WithRSAEncryption
    Signature Value:
        73:04:75:ba:23:cf:4d:01:26:5e:e0:b3:0f:c6:60:ab:09:bf:
        95:22:4d:8c:76:28:83:7d:e0:c6:c4:ef:d5:d3:a6:fc:71:6a:
        db:bf:4a:e5:ac:f0:d1:1e:69:df:54:fb:76:ec:1b:d7:07:80:
        ba:3a:1c:2c:e8:ce:1d:e8:ba:22:21:b0:03:9e:e7:6a:01:4c:
        cb:ee:a6:c0:1a:37:e8:8c:7a:a7:18:01:72:ee:0e:ea:1f:db:
        b2:79:bf:3f:f3:c8:58:c8:2f:d8:f7:25:18:a7:26:d2:06:47:
        51:5c:01:13:41:80:f2:09:64:70:1d:aa:80:9d:97:d6:8e:12:
        54:5b:e0:a9:dc:9d:af:36:c6:e2:e4:ff:6e:3e:0c:ba:6b:64:
        cc:a4:7d:66:c9:f4:65:17:3c:29:72:88:dd:83:5a:53:ef:96:
        7a:89:74:88:d4:92:aa:4d:35:3d:a4:68:73:aa:dc:79:df:3e:
        1e:ed:2a:1a:7c:01:90:3c:bb:ba:d2:52:ec:bf:04:4a:6e:51:
        e0:2e:24:63:ab:ee:43:37:4e:3b:a1:60:c9:f8:88:87:ec:68:
        b5:14:ec:57:03:f5:c1:a9:e6:e7:21:f0:f7:0a:b3:b3:4e:c7:
        a1:3c:77:06:dc:5e:80:13:f1:ae:47:14:7d:98:7c:68:18:9d:
        53:47:cf:69
-----BEGIN CERTIFICATE-----
MIIDdzCCAl+gAwIBAgIQSB/LUcxc0jJpObbweD4yKjANBgkqhkiG9w0BAQsFADAW
MRQwEgYDVQQDDAt0ZWFtMjQxLW5ldDAeFw0yMzExMDMyMDQzNDNaFw0yNjEwMTgy
MDQzNDNaMBkxFzAVBgNVBAMMDnRlYW0yNDEtc2VydmVyMIIBIjANBgkqhkiG9w0B
AQEFAAOCAQ8AMIIBCgKCAQEAxcXXUSFrvQaB8bKGiDhmsf8jbPNxWbzpO7wfBmqZ
COGBE1olweSmR5JOjXhQPbTNs3OorJmnEjeXxpz8Mw7tdEAaO4HKl2FsUvEGyrM4
QEJkoau4K3Z91XFs2x8Rndqi/pX3nBzn6OPmC6qHfy8KptGnoCpV/4xa29xNDRTN
Mw8A/NY5bouvXZ7PC984AZvd5S6DuPKCE0XxafoK+znmkQgx9YE1QUdphB+hqdK8
EJsIFA74bawL9+2cIyiM7pEsuIofWbCs4QUbcbCh7uaiIwo8vqKlpbm5k0nQb23L
5a5mZvNq/O+pQc+2Bnm/0bSvPghn4HS5FrU4iJru+zvKywIDAQABo4G9MIG6MAkG
A1UdEwQCMAAwHQYDVR0OBBYEFPckTgcdIJX4dWbk3lCvpMWH+aETMFEGA1UdIwRK
MEiAFNNry9v0S7pPyPMqu7sXdP3QsuMIoRqkGDAWMRQwEgYDVQQDDAt0ZWFtMjQx
LW5ldIIUHL9yxMLUggxqHiTDVgdtwECqS+MwEwYDVR0lBAwwCgYIKwYBBQUHAwEw
CwYDVR0PBAQDAgWgMBkGA1UdEQQSMBCCDnRlYW0yNDEtc2VydmVyMA0GCSqGSIb3
DQEBCwUAA4IBAQBzBHW6I89NASZe4LMPxmCrCb+VIk2MdiiDfeDGxO/V06b8cWrb
v0rlrPDRHmnfVPt27BvXB4C6Ohws6M4d6LoiIbADnudqAUzL7qbAGjfojHqnGAFy
7g7qH9uyeb8/88hYyC/Y9yUYpybSBkdRXAETQYDyCWRwHaqAnZfWjhJUW+Cp3J2v
Nsbi5P9uPgy6a2TMpH1myfRlFzwpcojdg1pT75Z6iXSI1JKqTTU9pGhzqtx53z4e
7SoafAGQPLu60lLsvwRKblHgLiRjq+5DN047oWDJ+IiH7Gi1FOxXA/XBqebnIfD3
CrOzTsehPHcG3F6AE/GuRxR9mHxoGJ1TR89p
-----END CERTIFICATE-----
