Certificate:
    Data:
        Version: 3 (0x2)
        Serial Number:
            59:dc:89:20:f2:ef:4d:32:c7:b9:c5:e4:98:d4:c1:ab
        Signature Algorithm: sha256WithRSAEncryption
        Issuer: CN=team288-net
        Validity
            Not Before: Nov  3 20:44:32 2023 GMT
            Not After : Oct 18 20:44:32 2026 GMT
        Subject: CN=team288-server
        Subject Public Key Info:
            Public Key Algorithm: rsaEncryption
                Public-Key: (2048 bit)
                Modulus:
                    00:df:ac:b5:24:eb:74:29:bb:36:b8:ae:8c:e3:69:
                    ea:e1:7a:89:1a:e3:5b:96:70:55:06:d5:c1:44:7b:
                    ce:db:6b:74:6b:ca:d6:54:26:fd:e3:9c:8a:b7:f0:
                    ad:65:9d:27:d7:a6:10:3f:80:3c:0e:33:bb:20:59:
                    6d:87:55:f2:a0:6b:e0:e0:af:15:5d:50:7c:a0:d1:
                    69:81:18:26:bb:4d:f3:43:ee:84:5d:ff:c7:c3:4f:
                    e5:d6:b3:5f:2c:69:32:c8:05:66:c8:cd:1f:a5:5e:
                    25:68:5f:fe:49:b4:ca:69:52:07:fb:37:34:c4:4c:
                    e9:d4:94:e9:55:81:cd:c0:1d:a8:fc:88:4a:e7:aa:
                    90:f4:e6:db:51:7d:42:a9:e8:d6:0d:a8:19:29:f4:
                    89:29:12:50:93:a9:63:64:c9:86:67:d4:dc:5d:df:
                    77:c7:81:5c:73:f8:52:8b:c3:96:86:df:92:26:5f:
                    37:1e:01:79:c8:8e:7f:b6:36:f5:ec:34:a9:c5:dd:
                    65:78:ae:9a:b3:d5:0f:cd:84:b8:b5:fc:96:6a:e5:
                    22:78:4c:0c:c3:ea:12:aa:4f:b5:0f:f9:29:52:af:
                    33:02:b7:95:20:cb:36:b1:3d:2c:a0:54:8f:47:4d:
                    b6:f7:d5:9b:83:71:84:cb:ec:b7:de:17:d6:89:5e:
                    13:89
                Exponent: 65537 (0x10001)
        X509v3 extensions:
            X509v3 Basic Constraints: 
                CA:FALSE
            X509v3 Subject Key Identifier: 
                2F:25:80:EE:9B:45:E9:1A:56:0F:52:15:AB:B9:F0:69:65:26:06:01
            X509v3 Authority Key Identifier: 
                keyid:19:BD:B1:64:34:11:A0:50:B9:09:67:0D:A4:8C:B4:13:5F:CC:B8:99
                DirName:/CN=team288-net
                serial:4B:29:D9:55:77:14:D8:E7:BF:4C:27:CB:82:D4:7A:8B:94:A5:5D:14
            X509v3 Extended Key Usage: 
                TLS Web Server Authentication
            X509v3 Key Usage: 
                Digital Signature, Key Encipherment
            X509v3 Subject Alternative Name: 
                DNS:team288-server
    Signature Algorithm: sha256WithRSAEncryption
    Signature Value:
        ba:70:ba:ba:bd:26:c4:49:a7:98:43:af:7a:b8:ea:26:05:24:
        21:29:44:ae:d1:42:c3:38:c7:2c:1b:5e:bc:a5:6a:76:38:a6:
        70:c2:bc:40:90:e9:9e:dd:0f:85:6e:21:93:e9:9d:00:20:62:
        30:b9:ea:cf:1e:3a:42:45:14:af:1d:8d:69:db:dc:57:ed:78:
        c1:3f:08:c7:be:4b:c0:5f:3d:bc:0a:7e:4d:12:b7:00:88:d3:
        f1:37:45:30:36:e9:cc:07:7d:8e:a2:8d:c6:7f:02:23:5f:cc:
        64:08:a7:05:88:7a:5d:63:f6:c4:32:4e:dd:8a:c8:09:68:02:
        25:94:95:fa:13:e3:3b:d8:ba:22:65:97:2a:07:68:3b:48:9c:
        0c:f4:84:b0:00:ca:e6:00:03:db:af:cc:7c:3a:1c:cf:dc:66:
        f3:89:cf:5b:6b:c1:0a:9b:a9:63:92:49:47:cb:ea:d3:a8:c8:
        b1:60:e1:7b:62:cc:d2:58:2a:68:c0:98:b9:7b:84:a2:9c:a8:
        2f:3b:18:c7:18:a0:fb:b7:03:14:0b:88:b8:51:36:87:8b:21:
        3b:0b:c4:4c:f6:65:b5:dc:0c:58:32:36:59:f8:50:b3:4e:d7:
        66:ea:06:e6:63:b9:9e:54:11:f1:f4:6e:b2:d5:9f:94:66:d1:
        b1:1e:a4:87
-----BEGIN CERTIFICATE-----
MIIDdzCCAl+gAwIBAgIQWdyJIPLvTTLHucXkmNTBqzANBgkqhkiG9w0BAQsFADAW
MRQwEgYDVQQDDAt0ZWFtMjg4LW5ldDAeFw0yMzExMDMyMDQ0MzJaFw0yNjEwMTgy
MDQ0MzJaMBkxFzAVBgNVBAMMDnRlYW0yODgtc2VydmVyMIIBIjANBgkqhkiG9w0B
AQEFAAOCAQ8AMIIBCgKCAQEA36y1JOt0Kbs2uK6M42nq4XqJGuNblnBVBtXBRHvO
22t0a8rWVCb945yKt/CtZZ0n16YQP4A8DjO7IFlth1XyoGvg4K8VXVB8oNFpgRgm
u03zQ+6EXf/Hw0/l1rNfLGkyyAVmyM0fpV4laF/+SbTKaVIH+zc0xEzp1JTpVYHN
wB2o/IhK56qQ9ObbUX1CqejWDagZKfSJKRJQk6ljZMmGZ9TcXd93x4Fcc/hSi8OW
ht+SJl83HgF5yI5/tjb17DSpxd1leK6as9UPzYS4tfyWauUieEwMw+oSqk+1D/kp
Uq8zAreVIMs2sT0soFSPR02299Wbg3GEy+y33hfWiV4TiQIDAQABo4G9MIG6MAkG
A1UdEwQCMAAwHQYDVR0OBBYEFC8lgO6bRekaVg9SFau58GllJgYBMFEGA1UdIwRK
MEiAFBm9sWQ0EaBQuQlnDaSMtBNfzLiZoRqkGDAWMRQwEgYDVQQDDAt0ZWFtMjg4
LW5ldIIUSynZVXcU2Oe/TCfLgtR6i5SlXRQwEwYDVR0lBAwwCgYIKwYBBQUHAwEw
CwYDVR0PBAQDAgWgMBkGA1UdEQQSMBCCDnRlYW0yODgtc2VydmVyMA0GCSqGSIb3
DQEBCwUAA4IBAQC6cLq6vSbESaeYQ696uOomBSQhKUSu0ULDOMcsG168pWp2OKZw
wrxAkOme3Q+FbiGT6Z0AIGIwuerPHjpCRRSvHY1p29xX7XjBPwjHvkvAXz28Cn5N
ErcAiNPxN0UwNunMB32Ooo3GfwIjX8xkCKcFiHpdY/bEMk7disgJaAIllJX6E+M7
2LoiZZcqB2g7SJwM9ISwAMrmAAPbr8x8OhzP3Gbzic9ba8EKm6ljkklHy+rTqMix
YOF7YszSWCpowJi5e4SinKgvOxjHGKD7twMUC4i4UTaHiyE7C8RM9mW13AxYMjZZ
+FCzTtdm6gbmY7meVBHx9G6y1Z+UZtGxHqSH
-----END CERTIFICATE-----
