Certificate:
    Data:
        Version: 3 (0x2)
        Serial Number:
            61:49:f3:b3:31:66:86:61:c6:04:f5:93:59:ef:21:4a
        Signature Algorithm: sha256WithRSAEncryption
        Issuer: CN=team288-net
        Validity
            Not Before: Nov  4 10:45:59 2023 GMT
            Not After : Oct 19 10:45:59 2026 GMT
        Subject: CN=team288-server
        Subject Public Key Info:
            Public Key Algorithm: rsaEncryption
                Public-Key: (2048 bit)
                Modulus:
                    00:dd:b3:06:0d:38:d4:dc:94:f4:9b:b8:ae:53:dd:
                    8e:9d:7e:f9:97:21:26:12:7c:31:db:47:6e:32:eb:
                    cb:b2:8a:a7:ac:5e:fa:20:38:1d:ea:bb:7a:de:19:
                    fb:b3:73:c3:12:67:21:51:4e:38:d0:6c:39:f5:88:
                    b1:86:b0:5a:43:ce:04:b8:e7:ed:7d:3c:fd:a8:e1:
                    b9:ef:5a:e1:32:46:df:29:ca:da:09:0b:bd:8f:17:
                    aa:70:94:f9:64:58:c3:c8:9a:9a:5f:cb:b8:8e:57:
                    53:90:a8:a6:f8:36:b8:ad:34:ba:f2:7a:b3:46:63:
                    ee:71:91:a0:48:f0:c6:ab:a1:e8:c6:4d:84:2e:ba:
                    11:c5:b0:9d:d3:bb:78:f9:c4:d7:c8:8c:cd:b4:26:
                    ff:8c:5a:68:6c:59:35:c0:03:e5:e5:15:b3:1d:58:
                    c1:2d:63:98:5f:db:aa:29:fe:6a:0b:cc:5e:2a:04:
                    96:50:b3:70:07:30:65:67:1e:ef:0f:2b:42:8c:13:
                    90:27:13:60:d9:c9:a5:8b:6c:61:7c:23:96:7e:69:
                    7d:c4:79:a5:90:24:a2:2a:63:8e:6e:93:be:03:bb:
                    7a:ad:c9:78:b1:8f:af:fe:0e:17:39:d8:b9:f2:eb:
                    e1:8b:ee:6a:1e:2c:47:2d:55:e2:29:0d:8d:75:cf:
                    9e:d5
                Exponent: 65537 (0x10001)
        X509v3 extensions:
            X509v3 Basic Constraints: 
                CA:FALSE
            X509v3 Subject Key Identifier: 
                B2:5C:D8:49:12:83:76:92:F5:C9:1B:06:1C:7D:86:A9:07:F6:CB:BD
            X509v3 Authority Key Identifier: 
                keyid:BD:34:5C:21:1E:C8:58:DF:94:60:60:60:C2:5A:23:2C:8C:FB:C5:91
                DirName:/CN=team288-net
                serial:49:9F:60:B7:EB:31:2C:31:7D:C2:18:49:76:D7:24:6D:85:F7:B0:67
            X509v3 Extended Key Usage: 
                TLS Web Server Authentication
            X509v3 Key Usage: 
                Digital Signature, Key Encipherment
            X509v3 Subject Alternative Name: 
                DNS:team288-server
    Signature Algorithm: sha256WithRSAEncryption
    Signature Value:
        40:85:d5:ff:05:3a:5c:66:68:e1:37:14:0d:23:31:bb:00:79:
        40:40:0d:de:68:e3:b1:c1:25:f6:29:1c:75:79:57:14:39:f1:
        07:1e:97:b2:64:42:ee:05:09:f4:a3:17:88:f2:c4:69:80:6a:
        96:9b:5f:4e:77:df:36:f9:15:5e:36:9f:ac:e6:a7:1f:2c:74:
        b6:2b:9a:66:1b:18:f2:d0:e0:8e:4d:f5:b8:ba:b9:dc:79:ec:
        d1:fc:50:fd:5e:8d:5c:7e:11:7c:cd:37:75:b7:17:43:18:9f:
        e7:c1:9a:eb:63:f6:d0:f2:17:1e:a8:06:50:72:76:a2:a3:d1:
        68:a4:5a:f2:24:4f:de:f6:12:c6:40:8e:c8:91:f9:a3:9d:c6:
        b7:55:b9:80:a3:f8:2f:91:47:fd:45:6c:b0:d7:de:3c:b7:93:
        fb:a7:36:4a:48:8e:9d:b9:64:2a:39:9b:79:db:33:78:24:3c:
        4b:c2:7e:00:50:3e:0c:72:8d:f9:5d:0e:08:8d:59:40:1a:39:
        ec:69:43:b2:3f:bb:56:93:45:16:d7:ac:6e:87:bf:a9:52:41:
        b4:d2:ee:b9:15:68:08:b5:5d:b4:8e:1a:a6:3a:1a:67:94:0a:
        02:fe:8c:1e:04:25:df:7d:fd:e9:d5:7b:34:85:d4:e1:38:90:
        e6:5d:0e:b8
-----BEGIN CERTIFICATE-----
MIIDdzCCAl+gAwIBAgIQYUnzszFmhmHGBPWTWe8hSjANBgkqhkiG9w0BAQsFADAW
MRQwEgYDVQQDDAt0ZWFtMjg4LW5ldDAeFw0yMzExMDQxMDQ1NTlaFw0yNjEwMTkx
MDQ1NTlaMBkxFzAVBgNVBAMMDnRlYW0yODgtc2VydmVyMIIBIjANBgkqhkiG9w0B
AQEFAAOCAQ8AMIIBCgKCAQEA3bMGDTjU3JT0m7iuU92OnX75lyEmEnwx20duMuvL
soqnrF76IDgd6rt63hn7s3PDEmchUU440Gw59YixhrBaQ84EuOftfTz9qOG571rh
MkbfKcraCQu9jxeqcJT5ZFjDyJqaX8u4jldTkKim+Da4rTS68nqzRmPucZGgSPDG
q6Hoxk2ELroRxbCd07t4+cTXyIzNtCb/jFpobFk1wAPl5RWzHVjBLWOYX9uqKf5q
C8xeKgSWULNwBzBlZx7vDytCjBOQJxNg2cmli2xhfCOWfml9xHmlkCSiKmOObpO+
A7t6rcl4sY+v/g4XOdi58uvhi+5qHixHLVXiKQ2Ndc+e1QIDAQABo4G9MIG6MAkG
A1UdEwQCMAAwHQYDVR0OBBYEFLJc2EkSg3aS9ckbBhx9hqkH9su9MFEGA1UdIwRK
MEiAFL00XCEeyFjflGBgYMJaIyyM+8WRoRqkGDAWMRQwEgYDVQQDDAt0ZWFtMjg4
LW5ldIIUSZ9gt+sxLDF9whhJdtckbYX3sGcwEwYDVR0lBAwwCgYIKwYBBQUHAwEw
CwYDVR0PBAQDAgWgMBkGA1UdEQQSMBCCDnRlYW0yODgtc2VydmVyMA0GCSqGSIb3
DQEBCwUAA4IBAQBAhdX/BTpcZmjhNxQNIzG7AHlAQA3eaOOxwSX2KRx1eVcUOfEH
HpeyZELuBQn0oxeI8sRpgGqWm19Od982+RVeNp+s5qcfLHS2K5pmGxjy0OCOTfW4
urnceezR/FD9Xo1cfhF8zTd1txdDGJ/nwZrrY/bQ8hceqAZQcnaio9FopFryJE/e
9hLGQI7Ikfmjnca3VbmAo/gvkUf9RWyw1948t5P7pzZKSI6duWQqOZt52zN4JDxL
wn4AUD4Mco35XQ4IjVlAGjnsaUOyP7tWk0UW16xuh7+pUkG00u65FWgItV20jhqm
OhpnlAoC/oweBCXfff3p1Xs0hdThOJDmXQ64
-----END CERTIFICATE-----
