Certificate:
    Data:
        Version: 3 (0x2)
        Serial Number:
            a0:47:f8:b3:18:9d:b6:ed:00:e4:97:9e:b0:af:a1:97
        Signature Algorithm: sha256WithRSAEncryption
        Issuer: CN=team288-net
        Validity
            Not Before: Nov  4 11:33:34 2023 GMT
            Not After : Oct 19 11:33:34 2026 GMT
        Subject: CN=team288-server
        Subject Public Key Info:
            Public Key Algorithm: rsaEncryption
                Public-Key: (2048 bit)
                Modulus:
                    00:b4:a4:84:d7:0b:7a:cb:fd:65:43:df:c5:9e:29:
                    ab:26:9d:b0:16:4e:39:d2:ed:9a:dd:69:20:4a:c0:
                    73:ca:f2:35:55:2c:7a:69:db:35:52:c6:12:1c:bc:
                    29:a0:da:6d:01:d2:f5:e5:83:02:ec:98:76:c9:93:
                    ce:af:06:a5:e5:e5:70:25:44:c7:4d:6b:9f:0f:2d:
                    a7:d7:8a:2f:52:2a:c1:0e:8c:57:ca:b3:dd:1d:5d:
                    bb:7d:75:83:f3:1e:5a:d2:e1:47:17:89:1f:50:91:
                    aa:4e:ae:df:93:58:6a:db:cd:7a:6f:10:bf:ad:f4:
                    ee:7a:e2:3c:f7:3b:b3:d6:4f:2e:fc:e4:af:73:14:
                    d1:db:99:4a:6e:de:46:0b:fc:74:a5:d1:45:b8:48:
                    dc:45:e7:d0:70:9b:80:c0:1b:87:08:5c:fe:09:90:
                    ef:cb:59:03:7b:e5:81:c8:e4:39:a0:61:8f:be:8c:
                    ee:a9:34:37:56:1f:e3:f3:6b:dd:c8:f3:b1:01:f4:
                    e8:00:16:02:49:8b:30:96:c9:e6:24:8d:7b:31:f5:
                    25:28:e6:ff:5c:79:59:b0:d8:e4:5c:9f:3a:f8:fc:
                    c6:08:2e:cd:01:00:c3:63:b3:0f:c8:01:6f:bc:3d:
                    28:2b:61:9b:78:06:13:1f:fb:fd:91:67:f3:70:4c:
                    22:27
                Exponent: 65537 (0x10001)
        X509v3 extensions:
            X509v3 Basic Constraints: 
                CA:FALSE
            X509v3 Subject Key Identifier: 
                70:8D:FD:C3:93:BB:0B:FC:45:37:13:66:44:5D:9A:2F:1F:40:DA:C5
            X509v3 Authority Key Identifier: 
                keyid:B8:A8:DB:30:D9:57:41:D2:3C:A4:B7:5B:F3:7F:DE:0A:55:F0:AA:80
                DirName:/CN=team288-net
                serial:78:45:FE:54:52:17:27:B0:E3:88:A9:DF:63:43:41:77:6B:E0:BB:39
            X509v3 Extended Key Usage: 
                TLS Web Server Authentication
            X509v3 Key Usage: 
                Digital Signature, Key Encipherment
            X509v3 Subject Alternative Name: 
                DNS:team288-server
    Signature Algorithm: sha256WithRSAEncryption
    Signature Value:
        68:17:ae:ec:c9:43:d1:0e:9b:5d:56:0b:ed:22:97:b8:52:ca:
        34:d5:36:31:03:81:4e:8f:b3:ae:02:ca:e1:3f:04:14:4b:9d:
        9d:f5:48:78:4e:df:0e:96:18:ae:16:7d:75:4e:62:92:19:c9:
        a6:97:b2:7f:9f:72:66:93:91:8c:67:88:40:83:28:ff:70:34:
        fe:2b:f3:21:9b:a1:a5:32:c7:b4:66:46:be:88:f6:fc:0f:b9:
        72:c1:64:23:dc:dd:dd:10:35:d3:98:0f:b3:a5:46:b9:c0:00:
        15:7a:fc:da:53:af:6b:dc:e1:83:70:03:d0:df:1b:3f:79:b7:
        93:12:22:cb:e0:e2:22:60:12:f7:1c:d1:cc:bf:4e:dc:29:24:
        85:9c:4f:a3:b4:16:2c:84:84:f5:f7:08:1a:43:2e:6d:29:de:
        e6:fa:0f:7c:eb:8d:34:11:be:9c:21:70:ab:e2:a7:af:62:df:
        07:f4:db:28:83:c5:8e:4b:0d:85:b7:b1:85:dd:ee:6f:a4:8e:
        f1:dc:03:9d:26:d3:66:2e:4e:79:b9:38:15:c7:c3:72:06:37:
        1f:58:c5:3a:f0:43:b7:9b:10:ba:d5:3e:21:76:18:0f:ac:f6:
        ce:5f:b2:dd:65:cb:3d:b6:b8:c0:60:21:b2:31:39:d9:4a:f2:
        b5:63:a8:57
-----BEGIN CERTIFICATE-----
MIIDeDCCAmCgAwIBAgIRAKBH+LMYnbbtAOSXnrCvoZcwDQYJKoZIhvcNAQELBQAw
FjEUMBIGA1UEAwwLdGVhbTI4OC1uZXQwHhcNMjMxMTA0MTEzMzM0WhcNMjYxMDE5
MTEzMzM0WjAZMRcwFQYDVQQDDA50ZWFtMjg4LXNlcnZlcjCCASIwDQYJKoZIhvcN
AQEBBQADggEPADCCAQoCggEBALSkhNcLesv9ZUPfxZ4pqyadsBZOOdLtmt1pIErA
c8ryNVUsemnbNVLGEhy8KaDabQHS9eWDAuyYdsmTzq8GpeXlcCVEx01rnw8tp9eK
L1IqwQ6MV8qz3R1du311g/MeWtLhRxeJH1CRqk6u35NYatvNem8Qv6307nriPPc7
s9ZPLvzkr3MU0duZSm7eRgv8dKXRRbhI3EXn0HCbgMAbhwhc/gmQ78tZA3vlgcjk
OaBhj76M7qk0N1Yf4/Nr3cjzsQH06AAWAkmLMJbJ5iSNezH1JSjm/1x5WbDY5Fyf
Ovj8xgguzQEAw2OzD8gBb7w9KCthm3gGEx/7/ZFn83BMIicCAwEAAaOBvTCBujAJ
BgNVHRMEAjAAMB0GA1UdDgQWBBRwjf3Dk7sL/EU3E2ZEXZovH0DaxTBRBgNVHSME
SjBIgBS4qNsw2VdB0jykt1vzf94KVfCqgKEapBgwFjEUMBIGA1UEAwwLdGVhbTI4
OC1uZXSCFHhF/lRSFyew44ip32NDQXdr4Ls5MBMGA1UdJQQMMAoGCCsGAQUFBwMB
MAsGA1UdDwQEAwIFoDAZBgNVHREEEjAQgg50ZWFtMjg4LXNlcnZlcjANBgkqhkiG
9w0BAQsFAAOCAQEAaBeu7MlD0Q6bXVYL7SKXuFLKNNU2MQOBTo+zrgLK4T8EFEud
nfVIeE7fDpYYrhZ9dU5ikhnJppeyf59yZpORjGeIQIMo/3A0/ivzIZuhpTLHtGZG
voj2/A+5csFkI9zd3RA105gPs6VGucAAFXr82lOva9zhg3AD0N8bP3m3kxIiy+Di
ImAS9xzRzL9O3CkkhZxPo7QWLISE9fcIGkMubSne5voPfOuNNBG+nCFwq+Knr2Lf
B/TbKIPFjksNhbexhd3ub6SO8dwDnSbTZi5Oebk4FcfDcgY3H1jFOvBDt5sQutU+
IXYYD6z2zl+y3WXLPba4wGAhsjE52UrytWOoVw==
-----END CERTIFICATE-----
