Certificate:
    Data:
        Version: 3 (0x2)
        Serial Number:
            bd:3b:1e:bd:34:23:a4:1e:6a:19:01:f8:ac:e0:ee:f1
        Signature Algorithm: sha256WithRSAEncryption
        Issuer: CN=team288-net
        Validity
            Not Before: Nov  4 10:45:59 2023 GMT
            Not After : Oct 19 10:45:59 2026 GMT
        Subject: CN=team288-client
        Subject Public Key Info:
            Public Key Algorithm: rsaEncryption
                Public-Key: (2048 bit)
                Modulus:
                    00:ab:11:93:46:4e:d6:f2:a8:ef:df:e1:9b:16:0b:
                    e7:e9:e5:0e:be:dc:28:18:76:72:21:c8:bf:20:82:
                    75:ff:99:af:d1:a5:16:55:cc:54:5d:30:ee:7a:c6:
                    b4:22:e7:ab:ff:47:ec:6e:d0:da:6c:8f:90:63:bc:
                    08:0a:e1:1e:32:ef:64:26:60:4f:2c:dc:47:14:e5:
                    e0:5c:24:f3:d8:f7:88:f2:20:09:8d:85:b0:02:b2:
                    cd:67:17:a6:80:fc:df:8d:24:24:23:94:8a:56:e3:
                    e9:09:d3:3b:9b:31:47:23:47:4e:ac:5f:ee:f0:22:
                    75:20:84:bc:ff:5d:7f:5d:24:57:6d:25:eb:b6:d5:
                    4f:f9:1c:23:c8:17:cf:54:5f:4b:86:1f:af:ce:ff:
                    c2:eb:3c:5e:76:3b:a2:21:54:06:81:a5:ea:ac:9e:
                    71:4d:15:93:5a:a2:d3:f6:66:35:53:c4:86:59:c2:
                    ad:8f:69:76:33:6d:0b:86:45:76:e0:ac:83:d7:29:
                    be:41:fe:42:27:69:3f:a5:5f:57:14:74:74:79:63:
                    c9:32:f1:7c:ad:d0:27:b0:a2:2b:59:b2:21:cc:8f:
                    f5:c1:2e:1e:1b:f0:98:c3:cb:95:5c:34:e1:00:ee:
                    a4:d0:e5:64:ce:c7:99:88:f1:af:23:af:c1:24:2b:
                    23:99
                Exponent: 65537 (0x10001)
        X509v3 extensions:
            X509v3 Basic Constraints: 
                CA:FALSE
            X509v3 Subject Key Identifier: 
                6C:AE:8D:3C:4C:A9:86:7F:45:FC:2E:2B:D3:0F:46:58:C6:09:08:69
            X509v3 Authority Key Identifier: 
                keyid:BD:34:5C:21:1E:C8:58:DF:94:60:60:60:C2:5A:23:2C:8C:FB:C5:91
                DirName:/CN=team288-net
                serial:49:9F:60:B7:EB:31:2C:31:7D:C2:18:49:76:D7:24:6D:85:F7:B0:67
            X509v3 Extended Key Usage: 
                TLS Web Client Authentication
            X509v3 Key Usage: 
                Digital Signature
    Signature Algorithm: sha256WithRSAEncryption
    Signature Value:
        12:14:aa:0a:da:33:e3:47:d1:7e:52:ee:79:a4:0a:3d:21:39:
        43:07:f4:a6:e7:88:b0:14:e4:eb:2e:20:0f:e2:1e:9d:35:ef:
        bd:a1:0a:98:f4:26:3d:4a:02:4b:7b:0b:79:de:8d:8c:e8:77:
        2d:bd:df:99:c8:72:98:f8:de:84:68:49:00:b4:14:88:2a:5c:
        ab:67:de:75:b9:57:9b:f9:24:95:2c:38:22:f9:46:25:12:b2:
        3f:63:30:ea:09:94:f4:94:ad:9c:7d:95:e6:e1:be:db:e7:42:
        da:db:ce:0f:86:ec:30:6e:21:3c:ff:bc:be:0d:d9:88:95:6d:
        dc:69:ef:85:d5:9b:52:57:03:46:6f:a5:a6:89:26:4a:bd:a8:
        6b:cc:76:4b:c6:eb:2d:84:f0:82:4f:82:23:2d:e7:38:23:97:
        d5:1a:38:44:e5:84:bd:75:6a:07:ff:8f:41:e9:75:17:51:41:
        58:7a:15:51:d0:78:23:9e:54:7e:7f:7c:63:eb:1a:a1:19:96:
        3a:07:74:13:82:b3:74:a4:8b:33:38:de:71:9a:b4:e3:eb:ab:
        13:d2:64:65:4b:c6:2d:af:81:1e:da:a5:89:70:79:38:5b:00:
        2d:ff:91:65:8c:22:21:72:c0:15:a5:8f:84:47:21:35:72:bb:
        3b:4d:07:ae
-----BEGIN CERTIFICATE-----
MIIDXTCCAkWgAwIBAgIRAL07Hr00I6QeahkB+Kzg7vEwDQYJKoZIhvcNAQELBQAw
FjEUMBIGA1UEAwwLdGVhbTI4OC1uZXQwHhcNMjMxMTA0MTA0NTU5WhcNMjYxMDE5
MTA0NTU5WjAZMRcwFQYDVQQDDA50ZWFtMjg4LWNsaWVudDCCASIwDQYJKoZIhvcN
AQEBBQADggEPADCCAQoCggEBAKsRk0ZO1vKo79/hmxYL5+nlDr7cKBh2ciHIvyCC
df+Zr9GlFlXMVF0w7nrGtCLnq/9H7G7Q2myPkGO8CArhHjLvZCZgTyzcRxTl4Fwk
89j3iPIgCY2FsAKyzWcXpoD8340kJCOUilbj6QnTO5sxRyNHTqxf7vAidSCEvP9d
f10kV20l67bVT/kcI8gXz1RfS4Yfr87/wus8XnY7oiFUBoGl6qyecU0Vk1qi0/Zm
NVPEhlnCrY9pdjNtC4ZFduCsg9cpvkH+QidpP6VfVxR0dHljyTLxfK3QJ7CiK1my
IcyP9cEuHhvwmMPLlVw04QDupNDlZM7HmYjxryOvwSQrI5kCAwEAAaOBojCBnzAJ
BgNVHRMEAjAAMB0GA1UdDgQWBBRsro08TKmGf0X8LivTD0ZYxgkIaTBRBgNVHSME
SjBIgBS9NFwhHshY35RgYGDCWiMsjPvFkaEapBgwFjEUMBIGA1UEAwwLdGVhbTI4
OC1uZXSCFEmfYLfrMSwxfcIYSXbXJG2F97BnMBMGA1UdJQQMMAoGCCsGAQUFBwMC
MAsGA1UdDwQEAwIHgDANBgkqhkiG9w0BAQsFAAOCAQEAEhSqCtoz40fRflLueaQK
PSE5Qwf0pueIsBTk6y4gD+IenTXvvaEKmPQmPUoCS3sLed6NjOh3Lb3fmchymPje
hGhJALQUiCpcq2fedblXm/kklSw4IvlGJRKyP2Mw6gmU9JStnH2V5uG+2+dC2tvO
D4bsMG4hPP+8vg3ZiJVt3GnvhdWbUlcDRm+lpokmSr2oa8x2S8brLYTwgk+CIy3n
OCOX1Ro4ROWEvXVqB/+PQel1F1FBWHoVUdB4I55Ufn98Y+saoRmWOgd0E4KzdKSL
MzjecZq04+urE9JkZUvGLa+BHtqliXB5OFsALf+RZYwiIXLAFaWPhEchNXK7O00H
rg==
-----END CERTIFICATE-----
