Certificate:
    Data:
        Version: 3 (0x2)
        Serial Number:
            ff:31:f7:6c:2b:fc:2e:83:28:fc:54:7c:04:f7:5e:ee
        Signature Algorithm: sha256WithRSAEncryption
        Issuer: CN=team288-net
        Validity
            Not Before: Nov  4 11:33:34 2023 GMT
            Not After : Oct 19 11:33:34 2026 GMT
        Subject: CN=team288-client
        Subject Public Key Info:
            Public Key Algorithm: rsaEncryption
                Public-Key: (2048 bit)
                Modulus:
                    00:be:8c:11:6d:ef:ac:ab:9a:5d:2f:7a:3a:ee:ee:
                    22:40:f5:29:7f:8a:22:4c:7b:4a:8f:81:2b:05:07:
                    8e:e2:c8:ad:43:0a:45:ff:ef:df:a5:60:18:d9:95:
                    b3:78:65:65:c1:c1:e8:e6:b9:b8:c1:d2:8b:6e:10:
                    1d:72:d4:ac:14:6e:d2:2a:0e:5d:e1:4b:66:9d:2e:
                    af:e1:4c:44:38:00:6f:cd:69:7f:77:a1:1e:4f:97:
                    34:f5:1a:79:13:21:51:66:34:33:7f:ba:5a:5b:6b:
                    0b:7e:2d:18:b0:7a:30:ca:8a:6b:e1:e0:11:88:5b:
                    2d:ff:df:70:94:14:72:6d:47:19:18:da:53:16:ce:
                    9f:8d:b9:08:6b:5d:7d:b7:44:58:53:c4:90:d8:80:
                    7a:ad:d8:64:70:a2:e4:fb:2e:17:dd:91:21:2c:79:
                    9c:84:54:f8:ca:fb:95:0d:64:fa:2b:09:cd:8a:86:
                    07:62:33:db:b5:45:69:ce:9f:e4:fa:80:fc:42:15:
                    73:41:d8:60:a7:b6:53:5a:ec:d5:6d:fc:42:fb:f8:
                    68:66:b1:df:5f:00:e4:fc:44:a3:4b:ac:5e:ae:12:
                    7c:20:6b:68:cd:73:4c:eb:a0:0f:67:e5:c3:07:3e:
                    6b:e5:4d:6c:eb:cc:34:2a:ce:81:90:21:0c:a3:91:
                    d4:41
                Exponent: 65537 (0x10001)
        X509v3 extensions:
            X509v3 Basic Constraints: 
                CA:FALSE
            X509v3 Subject Key Identifier: 
                13:85:DB:40:85:05:C2:89:7F:1D:7C:D6:42:DF:9E:A5:B3:6C:4E:F3
            X509v3 Authority Key Identifier: 
                keyid:B8:A8:DB:30:D9:57:41:D2:3C:A4:B7:5B:F3:7F:DE:0A:55:F0:AA:80
                DirName:/CN=team288-net
                serial:78:45:FE:54:52:17:27:B0:E3:88:A9:DF:63:43:41:77:6B:E0:BB:39
            X509v3 Extended Key Usage: 
                TLS Web Client Authentication
            X509v3 Key Usage: 
                Digital Signature
    Signature Algorithm: sha256WithRSAEncryption
    Signature Value:
        8e:7b:0d:3b:6c:cd:98:8a:46:92:b4:57:ac:39:54:3d:77:fb:
        d6:18:7e:a3:49:86:95:e8:6b:8c:59:a7:c4:70:b1:c8:b9:73:
        e5:f0:15:95:56:84:5c:78:18:b1:b7:bf:b2:2b:92:f6:33:b3:
        70:e4:89:f8:ea:c7:30:44:a5:35:55:74:3f:5b:15:a9:46:91:
        55:33:c3:6d:20:5c:22:f9:29:74:19:b9:89:b9:fd:3b:2d:c5:
        8d:08:c6:43:bf:2b:f9:d2:d4:92:d1:39:5e:c4:84:63:29:35:
        5d:4d:92:e5:a0:e0:65:9a:f8:95:03:e0:9b:ac:4f:c5:9c:9b:
        1c:81:eb:1a:2f:8f:6c:b4:67:21:17:95:ea:c6:53:5f:8d:28:
        89:a1:f4:dd:33:a0:00:05:a1:b9:22:af:e3:87:f4:c7:f4:79:
        0a:b8:c2:6d:fb:f2:27:f9:c7:1d:1c:04:28:95:d0:5b:78:d7:
        1d:9e:5c:15:2a:d4:2b:c6:34:bf:81:40:27:17:dd:10:d5:71:
        c5:99:f4:0e:38:55:d2:6b:8a:4b:0f:22:3d:87:84:4b:f7:1e:
        a5:3a:f4:52:6a:99:39:f2:e2:0e:9f:f3:5b:02:1e:1f:f4:38:
        25:73:e1:81:0e:49:4d:3e:e8:a2:c7:09:c3:7a:05:1a:81:1f:
        2f:57:84:be
-----BEGIN CERTIFICATE-----
MIIDXTCCAkWgAwIBAgIRAP8x92wr/C6DKPxUfAT3Xu4wDQYJKoZIhvcNAQELBQAw
FjEUMBIGA1UEAwwLdGVhbTI4OC1uZXQwHhcNMjMxMTA0MTEzMzM0WhcNMjYxMDE5
MTEzMzM0WjAZMRcwFQYDVQQDDA50ZWFtMjg4LWNsaWVudDCCASIwDQYJKoZIhvcN
AQEBBQADggEPADCCAQoCggEBAL6MEW3vrKuaXS96Ou7uIkD1KX+KIkx7So+BKwUH
juLIrUMKRf/v36VgGNmVs3hlZcHB6Oa5uMHSi24QHXLUrBRu0ioOXeFLZp0ur+FM
RDgAb81pf3ehHk+XNPUaeRMhUWY0M3+6WltrC34tGLB6MMqKa+HgEYhbLf/fcJQU
cm1HGRjaUxbOn425CGtdfbdEWFPEkNiAeq3YZHCi5PsuF92RISx5nIRU+Mr7lQ1k
+isJzYqGB2Iz27VFac6f5PqA/EIVc0HYYKe2U1rs1W38Qvv4aGax318A5PxEo0us
Xq4SfCBraM1zTOugD2flwwc+a+VNbOvMNCrOgZAhDKOR1EECAwEAAaOBojCBnzAJ
BgNVHRMEAjAAMB0GA1UdDgQWBBQThdtAhQXCiX8dfNZC356ls2xO8zBRBgNVHSME
SjBIgBS4qNsw2VdB0jykt1vzf94KVfCqgKEapBgwFjEUMBIGA1UEAwwLdGVhbTI4
OC1uZXSCFHhF/lRSFyew44ip32NDQXdr4Ls5MBMGA1UdJQQMMAoGCCsGAQUFBwMC
MAsGA1UdDwQEAwIHgDANBgkqhkiG9w0BAQsFAAOCAQEAjnsNO2zNmIpGkrRXrDlU
PXf71hh+o0mGlehrjFmnxHCxyLlz5fAVlVaEXHgYsbe/siuS9jOzcOSJ+OrHMESl
NVV0P1sVqUaRVTPDbSBcIvkpdBm5ibn9Oy3FjQjGQ78r+dLUktE5XsSEYyk1XU2S
5aDgZZr4lQPgm6xPxZybHIHrGi+PbLRnIReV6sZTX40oiaH03TOgAAWhuSKv44f0
x/R5CrjCbfvyJ/nHHRwEKJXQW3jXHZ5cFSrUK8Y0v4FAJxfdENVxxZn0DjhV0muK
Sw8iPYeES/cepTr0UmqZOfLiDp/zWwIeH/Q4JXPhgQ5JTT7ooscJw3oFGoEfL1eE
vg==
-----END CERTIFICATE-----
