Certificate:
    Data:
        Version: 3 (0x2)
        Serial Number:
            74:5b:be:05:75:e4:a7:f1:a4:d7:6d:35:61:ee:7c:db
        Signature Algorithm: sha256WithRSAEncryption
        Issuer: CN=team429-net
        Validity
            Not Before: Nov  4 11:37:07 2023 GMT
            Not After : Oct 19 11:37:07 2026 GMT
        Subject: CN=team429-server
        Subject Public Key Info:
            Public Key Algorithm: rsaEncryption
                Public-Key: (2048 bit)
                Modulus:
                    00:bd:6a:46:ce:fc:5b:45:d5:65:72:d8:40:05:8c:
                    f0:92:28:1f:8d:87:eb:54:80:bc:8d:33:a0:ac:cc:
                    04:04:75:2c:07:4b:b0:ac:84:7e:cf:ef:ad:87:06:
                    ee:bf:cc:2d:5f:23:45:10:50:16:2f:5c:c6:9c:33:
                    bf:6d:b8:24:38:6a:30:f6:81:54:96:29:51:88:ea:
                    a4:a0:e1:c3:ec:f9:3b:f0:47:fd:28:17:39:e5:46:
                    01:d5:f7:8f:fb:49:df:08:0b:58:f7:18:c9:2f:51:
                    9a:99:60:8a:32:de:b5:79:26:c0:69:1a:de:82:17:
                    46:bf:f7:f8:27:90:36:4d:87:c0:89:96:3f:9f:67:
                    69:e3:ca:56:46:00:14:f4:1b:19:3b:96:59:55:7d:
                    9f:f1:36:1f:19:b8:fc:c8:ff:94:e8:e9:ee:88:e7:
                    ff:b6:ef:a4:f5:2e:c3:42:b3:b2:13:fe:c3:26:6e:
                    f4:48:a4:17:b0:54:94:89:39:2b:0d:e1:c7:68:a4:
                    a9:46:d9:3e:0d:c3:d6:14:e9:06:0f:35:5c:96:42:
                    7f:bc:98:7d:3f:27:d0:cb:56:fd:4b:3c:4b:f9:3a:
                    88:0f:e9:c3:d2:f1:11:b4:b6:eb:32:ee:9a:62:b4:
                    2b:09:62:9c:17:dd:a2:85:07:47:9b:18:c1:80:c2:
                    4b:d9
                Exponent: 65537 (0x10001)
        X509v3 extensions:
            X509v3 Basic Constraints: 
                CA:FALSE
            X509v3 Subject Key Identifier: 
                63:EC:9C:45:93:63:D1:51:4C:FB:FF:36:BF:94:83:74:A2:6F:09:B4
            X509v3 Authority Key Identifier: 
                keyid:09:1A:17:67:78:18:AA:03:5F:58:25:36:7B:FB:48:E8:B0:4B:19:58
                DirName:/CN=team429-net
                serial:3E:3D:A4:67:51:1F:50:AC:88:B6:83:C8:DB:D3:0B:20:8C:54:B3:0D
            X509v3 Extended Key Usage: 
                TLS Web Server Authentication
            X509v3 Key Usage: 
                Digital Signature, Key Encipherment
            X509v3 Subject Alternative Name: 
                DNS:team429-server
    Signature Algorithm: sha256WithRSAEncryption
    Signature Value:
        09:08:04:ce:c5:e6:33:91:13:95:c2:fc:f3:02:21:6d:f4:e7:
        4f:c2:6b:75:8e:b0:a9:09:f6:00:a6:de:a4:a2:0a:cf:a5:4c:
        68:00:e4:eb:73:23:5c:35:62:39:fe:28:20:88:2f:f8:f3:0f:
        2a:4d:c9:69:41:f6:c7:2d:06:a3:31:71:36:61:74:5d:a1:45:
        92:25:c8:03:fd:a5:ae:a1:83:47:5d:c4:b7:1f:1d:ab:30:71:
        91:31:1a:fc:4e:18:2c:24:67:6a:76:b2:18:ba:11:9e:ea:b9:
        00:1b:6f:b9:35:24:2d:8b:46:22:cd:b7:42:05:5d:f8:cd:00:
        92:e1:02:b4:48:27:cc:45:ab:68:71:03:06:1c:ca:1b:af:6a:
        bc:c7:41:fe:5c:e9:d2:46:10:77:48:76:33:e3:31:8b:47:70:
        80:7d:7b:2b:dd:55:2d:dd:30:85:59:e5:57:23:25:07:4c:b7:
        22:ef:02:6f:d9:19:62:98:59:27:b0:8c:65:7c:76:bc:58:2e:
        f3:5c:36:2a:32:c5:5a:28:63:d6:f8:1a:bc:02:1e:10:43:19:
        e3:f0:ba:2d:ff:02:26:e6:6f:c4:f4:c6:29:4a:3a:5f:99:64:
        57:63:95:7e:a8:29:5c:6e:3a:af:cd:1b:40:be:d4:7e:55:61:
        6e:34:11:37
-----BEGIN CERTIFICATE-----
MIIDdzCCAl+gAwIBAgIQdFu+BXXkp/Gk1201Ye582zANBgkqhkiG9w0BAQsFADAW
MRQwEgYDVQQDDAt0ZWFtNDI5LW5ldDAeFw0yMzExMDQxMTM3MDdaFw0yNjEwMTkx
MTM3MDdaMBkxFzAVBgNVBAMMDnRlYW00Mjktc2VydmVyMIIBIjANBgkqhkiG9w0B
AQEFAAOCAQ8AMIIBCgKCAQEAvWpGzvxbRdVlcthABYzwkigfjYfrVIC8jTOgrMwE
BHUsB0uwrIR+z++thwbuv8wtXyNFEFAWL1zGnDO/bbgkOGow9oFUlilRiOqkoOHD
7Pk78Ef9KBc55UYB1feP+0nfCAtY9xjJL1GamWCKMt61eSbAaRreghdGv/f4J5A2
TYfAiZY/n2dp48pWRgAU9BsZO5ZZVX2f8TYfGbj8yP+U6OnuiOf/tu+k9S7DQrOy
E/7DJm70SKQXsFSUiTkrDeHHaKSpRtk+DcPWFOkGDzVclkJ/vJh9PyfQy1b9SzxL
+TqID+nD0vERtLbrMu6aYrQrCWKcF92ihQdHmxjBgMJL2QIDAQABo4G9MIG6MAkG
A1UdEwQCMAAwHQYDVR0OBBYEFGPsnEWTY9FRTPv/Nr+Ug3Sibwm0MFEGA1UdIwRK
MEiAFAkaF2d4GKoDX1glNnv7SOiwSxlYoRqkGDAWMRQwEgYDVQQDDAt0ZWFtNDI5
LW5ldIIUPj2kZ1EfUKyItoPI29MLIIxUsw0wEwYDVR0lBAwwCgYIKwYBBQUHAwEw
CwYDVR0PBAQDAgWgMBkGA1UdEQQSMBCCDnRlYW00Mjktc2VydmVyMA0GCSqGSIb3
DQEBCwUAA4IBAQAJCATOxeYzkROVwvzzAiFt9OdPwmt1jrCpCfYApt6kogrPpUxo
AOTrcyNcNWI5/iggiC/48w8qTclpQfbHLQajMXE2YXRdoUWSJcgD/aWuoYNHXcS3
Hx2rMHGRMRr8ThgsJGdqdrIYuhGe6rkAG2+5NSQti0YizbdCBV34zQCS4QK0SCfM
RatocQMGHMobr2q8x0H+XOnSRhB3SHYz4zGLR3CAfXsr3VUt3TCFWeVXIyUHTLci
7wJv2RlimFknsIxlfHa8WC7zXDYqMsVaKGPW+Bq8Ah4QQxnj8Lot/wIm5m/E9MYp
SjpfmWRXY5V+qClcbjqvzRtAvtR+VWFuNBE3
-----END CERTIFICATE-----
