Certificate:
    Data:
        Version: 3 (0x2)
        Serial Number:
            7a:c8:19:0a:8e:a5:8d:8a:33:1f:0b:f5:bf:a7:e8:23
        Signature Algorithm: sha256WithRSAEncryption
        Issuer: CN=team429-net
        Validity
            Not Before: Nov  4 10:48:22 2023 GMT
            Not After : Oct 19 10:48:22 2026 GMT
        Subject: CN=team429-client
        Subject Public Key Info:
            Public Key Algorithm: rsaEncryption
                Public-Key: (2048 bit)
                Modulus:
                    00:c8:d8:2a:37:25:9c:f8:35:91:02:4e:44:82:de:
                    3e:62:eb:9c:53:5c:46:a7:92:17:ff:95:83:78:2c:
                    85:5f:c5:bb:3f:e1:c9:62:f5:4f:37:92:25:fa:8f:
                    df:90:b1:6e:7d:3f:6e:f3:9a:57:bc:44:e2:3d:68:
                    e2:72:66:1c:0c:85:d6:92:b1:ce:cf:0c:3e:d2:27:
                    19:a3:1e:28:6f:f8:cc:c8:53:e8:4e:39:fe:a4:eb:
                    1c:4d:fb:d9:3a:59:c9:6e:a5:b1:d9:ec:51:66:17:
                    2e:76:96:6f:d8:90:cd:d8:ee:85:fa:7e:9b:06:7b:
                    47:ca:ba:dd:f2:63:bd:60:e7:1e:6b:94:ea:a8:63:
                    a7:2d:56:9e:db:77:30:2b:60:72:c9:6b:45:ea:36:
                    b2:a5:4a:3e:91:e7:dd:15:c6:c3:65:a9:7a:96:0e:
                    d9:88:a2:ea:a7:b0:ed:48:0d:df:3c:7d:bb:f5:a2:
                    56:77:1d:55:0c:f9:61:35:cf:87:df:76:fd:e6:d0:
                    26:e5:c6:0f:61:91:de:d8:c3:ca:bd:d3:ac:27:72:
                    3f:a4:41:34:a3:21:46:74:8f:3d:0d:de:e5:e0:b1:
                    41:f5:72:d1:7d:20:f4:05:b9:d7:cd:49:77:48:62:
                    31:cd:d6:92:39:f2:ee:77:51:dd:b0:b2:bb:87:bc:
                    a4:17
                Exponent: 65537 (0x10001)
        X509v3 extensions:
            X509v3 Basic Constraints: 
                CA:FALSE
            X509v3 Subject Key Identifier: 
                81:7B:E6:75:EC:98:08:6F:80:47:DE:50:1E:15:76:B4:36:D7:A3:04
            X509v3 Authority Key Identifier: 
                keyid:2B:CB:57:20:E3:E7:29:A0:BF:8E:EB:6B:2D:6D:E3:A1:B2:ED:2C:18
                DirName:/CN=team429-net
                serial:20:9C:37:5B:60:70:BD:37:DC:57:F7:0E:14:14:7A:3A:64:8C:62:B8
            X509v3 Extended Key Usage: 
                TLS Web Client Authentication
            X509v3 Key Usage: 
                Digital Signature
    Signature Algorithm: sha256WithRSAEncryption
    Signature Value:
        2b:64:2b:46:b6:41:0a:f5:de:6c:04:4d:ac:94:52:74:21:d5:
        b7:75:ba:56:15:75:e7:9c:96:87:f5:d7:11:8e:a1:9f:f6:0f:
        e0:17:f8:98:4d:64:20:e2:dd:dd:2f:fe:6b:97:c1:ad:31:93:
        2c:b7:71:a4:91:26:ff:25:aa:d3:a2:90:a1:80:36:db:98:d2:
        91:d1:d9:7d:2d:32:ad:d6:14:4d:fb:af:d2:c9:ef:7a:50:99:
        b9:49:38:0e:8e:a6:be:2d:be:bd:4c:5c:c1:c1:d9:14:23:e5:
        32:68:9e:70:da:9d:ef:e9:f0:4b:51:da:e6:91:58:1d:1e:53:
        54:c2:6e:5f:46:7b:3a:4c:7c:24:bd:c2:b0:94:e7:90:05:77:
        cb:cd:29:58:cb:4d:d4:3e:1e:a8:5e:eb:8a:23:a6:ab:9d:ff:
        0c:cf:1c:fd:75:77:38:6c:75:34:85:ed:cc:8e:6c:f7:6d:45:
        5d:3f:0a:80:5a:78:68:e0:d4:df:49:39:3e:6d:6b:d9:04:e4:
        f0:9b:bf:cf:29:18:0f:2b:4c:00:f0:af:a7:d9:82:f9:52:8d:
        d4:3f:36:99:ec:8f:b0:ea:a8:09:84:a3:6b:1b:7e:e9:f5:42:
        8a:e2:37:00:d5:83:0f:89:ac:8f:6b:14:d4:f9:19:7a:3b:66:
        3d:83:de:16
-----BEGIN CERTIFICATE-----
MIIDXDCCAkSgAwIBAgIQesgZCo6ljYozHwv1v6foIzANBgkqhkiG9w0BAQsFADAW
MRQwEgYDVQQDDAt0ZWFtNDI5LW5ldDAeFw0yMzExMDQxMDQ4MjJaFw0yNjEwMTkx
MDQ4MjJaMBkxFzAVBgNVBAMMDnRlYW00MjktY2xpZW50MIIBIjANBgkqhkiG9w0B
AQEFAAOCAQ8AMIIBCgKCAQEAyNgqNyWc+DWRAk5Egt4+YuucU1xGp5IX/5WDeCyF
X8W7P+HJYvVPN5Il+o/fkLFufT9u85pXvETiPWjicmYcDIXWkrHOzww+0icZox4o
b/jMyFPoTjn+pOscTfvZOlnJbqWx2exRZhcudpZv2JDN2O6F+n6bBntHyrrd8mO9
YOcea5TqqGOnLVae23cwK2ByyWtF6jaypUo+kefdFcbDZal6lg7ZiKLqp7DtSA3f
PH279aJWdx1VDPlhNc+H33b95tAm5cYPYZHe2MPKvdOsJ3I/pEE0oyFGdI89Dd7l
4LFB9XLRfSD0BbnXzUl3SGIxzdaSOfLud1HdsLK7h7ykFwIDAQABo4GiMIGfMAkG
A1UdEwQCMAAwHQYDVR0OBBYEFIF75nXsmAhvgEfeUB4VdrQ216MEMFEGA1UdIwRK
MEiAFCvLVyDj5ymgv47ray1t46Gy7SwYoRqkGDAWMRQwEgYDVQQDDAt0ZWFtNDI5
LW5ldIIUIJw3W2BwvTfcV/cOFBR6OmSMYrgwEwYDVR0lBAwwCgYIKwYBBQUHAwIw
CwYDVR0PBAQDAgeAMA0GCSqGSIb3DQEBCwUAA4IBAQArZCtGtkEK9d5sBE2slFJ0
IdW3dbpWFXXnnJaH9dcRjqGf9g/gF/iYTWQg4t3dL/5rl8GtMZMst3GkkSb/JarT
opChgDbbmNKR0dl9LTKt1hRN+6/Sye96UJm5STgOjqa+Lb69TFzBwdkUI+UyaJ5w
2p3v6fBLUdrmkVgdHlNUwm5fRns6THwkvcKwlOeQBXfLzSlYy03UPh6oXuuKI6ar
nf8Mzxz9dXc4bHU0he3Mjmz3bUVdPwqAWnho4NTfSTk+bWvZBOTwm7/PKRgPK0wA
8K+n2YL5Uo3UPzaZ7I+w6qgJhKNrG37p9UKK4jcA1YMPiayPaxTU+Rl6O2Y9g94W
-----END CERTIFICATE-----
