Certificate:
    Data:
        Version: 3 (0x2)
        Serial Number:
            81:fa:14:68:ed:89:a9:3c:2b:51:04:17:79:d7:10:58
        Signature Algorithm: sha256WithRSAEncryption
        Issuer: CN=team429-net
        Validity
            Not Before: Nov  3 20:47:02 2023 GMT
            Not After : Oct 18 20:47:02 2026 GMT
        Subject: CN=team429-client
        Subject Public Key Info:
            Public Key Algorithm: rsaEncryption
                Public-Key: (2048 bit)
                Modulus:
                    00:8d:9c:90:6c:61:c1:a8:c6:4a:38:f9:b2:39:b3:
                    d8:b3:14:d1:7c:db:96:42:b3:e7:6a:82:7e:42:fe:
                    eb:d0:5e:92:4d:3e:79:51:88:09:96:02:49:44:76:
                    c9:68:fd:49:29:62:81:f9:ce:1c:08:61:55:31:bc:
                    8c:b3:90:c6:36:b7:f2:f7:67:b5:52:1e:30:b8:fe:
                    25:7d:bc:c4:ac:2d:0b:31:77:8d:ff:4f:df:0b:d0:
                    55:3e:b5:bb:3d:bd:3b:64:6c:c0:5c:3e:a9:e9:4d:
                    d4:eb:f0:de:2e:31:8b:34:65:a4:5f:69:d3:ad:45:
                    9b:b7:30:a4:88:0a:57:4c:38:8e:18:8c:d1:89:2a:
                    2e:11:75:9e:11:c7:95:b7:a4:27:9a:e0:f7:ed:ed:
                    62:e1:f2:e7:00:6d:30:6c:5d:d3:be:be:81:78:52:
                    c9:42:70:4d:b3:68:59:fb:47:4c:e2:ea:2b:e2:d7:
                    1a:96:83:35:ab:5a:4a:7c:81:aa:80:fd:c1:d5:83:
                    90:26:d9:11:0a:a0:56:30:44:09:80:a9:35:40:d4:
                    db:1a:3c:d7:76:c3:27:f9:ed:47:d0:48:43:85:b0:
                    41:fa:d3:80:ff:7b:99:f0:90:41:2f:cf:f0:bc:34:
                    49:96:6e:52:a3:0f:f6:86:b6:33:ea:6f:f3:27:44:
                    ca:29
                Exponent: 65537 (0x10001)
        X509v3 extensions:
            X509v3 Basic Constraints: 
                CA:FALSE
            X509v3 Subject Key Identifier: 
                76:00:64:B6:10:28:3B:53:B4:B7:69:70:1C:66:3B:3A:55:81:D6:DA
            X509v3 Authority Key Identifier: 
                keyid:40:67:EC:76:E2:CF:6F:36:FA:D6:5B:4C:6D:01:DD:5B:56:10:C2:58
                DirName:/CN=team429-net
                serial:11:88:60:4A:DB:AA:F4:6B:11:74:61:6A:7E:13:16:CC:6B:E2:BD:21
            X509v3 Extended Key Usage: 
                TLS Web Client Authentication
            X509v3 Key Usage: 
                Digital Signature
    Signature Algorithm: sha256WithRSAEncryption
    Signature Value:
        25:3d:a6:b5:4c:84:bd:3c:09:28:47:19:92:21:4b:d5:9d:79:
        4f:26:e1:60:3d:a7:80:b0:be:bb:74:5c:75:7d:bf:d4:81:33:
        22:49:8e:e1:eb:a3:7f:1e:80:e6:07:c6:d9:e4:5e:da:a6:ed:
        2e:ff:b0:23:bf:2b:6c:56:30:10:5f:fe:c4:79:f4:d0:93:0a:
        76:fa:55:ec:40:12:c9:19:ba:5e:4a:49:c2:ca:d4:8b:55:e8:
        fb:f1:c7:be:50:39:3c:1a:19:49:3d:7c:c8:8b:2c:f2:59:0e:
        aa:2a:52:18:d3:69:68:00:5f:ed:b9:58:8e:51:3c:70:80:66:
        b7:8e:75:c5:58:bc:f3:6a:b6:51:66:91:70:d5:76:b8:a6:31:
        8e:43:5d:bc:55:7c:87:74:f2:31:df:ee:d9:e9:a1:9d:15:78:
        47:15:89:d9:b3:43:75:b7:eb:56:aa:1a:aa:b6:c5:f9:e1:23:
        b9:e4:97:0b:47:da:bb:5a:e7:2b:b3:5e:ba:d7:09:7a:56:79:
        06:e0:7b:b1:9a:b1:1b:84:46:37:1d:aa:40:39:a6:97:4b:69:
        bc:01:12:7b:bd:f9:f8:61:85:3a:4d:98:b4:19:19:83:20:36:
        6f:c3:05:55:08:f4:26:53:05:a1:68:95:24:a5:92:df:0d:ab:
        90:ac:6f:86
-----BEGIN CERTIFICATE-----
MIIDXTCCAkWgAwIBAgIRAIH6FGjtiak8K1EEF3nXEFgwDQYJKoZIhvcNAQELBQAw
FjEUMBIGA1UEAwwLdGVhbTQyOS1uZXQwHhcNMjMxMTAzMjA0NzAyWhcNMjYxMDE4
MjA0NzAyWjAZMRcwFQYDVQQDDA50ZWFtNDI5LWNsaWVudDCCASIwDQYJKoZIhvcN
AQEBBQADggEPADCCAQoCggEBAI2ckGxhwajGSjj5sjmz2LMU0XzblkKz52qCfkL+
69Bekk0+eVGICZYCSUR2yWj9SSligfnOHAhhVTG8jLOQxja38vdntVIeMLj+JX28
xKwtCzF3jf9P3wvQVT61uz29O2RswFw+qelN1Ovw3i4xizRlpF9p061Fm7cwpIgK
V0w4jhiM0YkqLhF1nhHHlbekJ5rg9+3tYuHy5wBtMGxd076+gXhSyUJwTbNoWftH
TOLqK+LXGpaDNataSnyBqoD9wdWDkCbZEQqgVjBECYCpNUDU2xo813bDJ/ntR9BI
Q4WwQfrTgP97mfCQQS/P8Lw0SZZuUqMP9oa2M+pv8ydEyikCAwEAAaOBojCBnzAJ
BgNVHRMEAjAAMB0GA1UdDgQWBBR2AGS2ECg7U7S3aXAcZjs6VYHW2jBRBgNVHSME
SjBIgBRAZ+x24s9vNvrWW0xtAd1bVhDCWKEapBgwFjEUMBIGA1UEAwwLdGVhbTQy
OS1uZXSCFBGIYErbqvRrEXRhan4TFsxr4r0hMBMGA1UdJQQMMAoGCCsGAQUFBwMC
MAsGA1UdDwQEAwIHgDANBgkqhkiG9w0BAQsFAAOCAQEAJT2mtUyEvTwJKEcZkiFL
1Z15TybhYD2ngLC+u3RcdX2/1IEzIkmO4eujfx6A5gfG2eRe2qbtLv+wI78rbFYw
EF/+xHn00JMKdvpV7EASyRm6XkpJwsrUi1Xo+/HHvlA5PBoZST18yIss8lkOqipS
GNNpaABf7blYjlE8cIBmt451xVi882q2UWaRcNV2uKYxjkNdvFV8h3TyMd/u2emh
nRV4RxWJ2bNDdbfrVqoaqrbF+eEjueSXC0fau1rnK7NeutcJelZ5BuB7sZqxG4RG
Nx2qQDmml0tpvAESe735+GGFOk2YtBkZgyA2b8MFVQj0JlMFoWiVJKWS3w2rkKxv
hg==
-----END CERTIFICATE-----
