Certificate:
    Data:
        Version: 3 (0x2)
        Serial Number:
            9a:9e:8c:a5:65:d0:58:55:4d:f2:3a:f6:90:ea:16:06
        Signature Algorithm: sha256WithRSAEncryption
        Issuer: CN=team429-net
        Validity
            Not Before: Nov  3 20:47:02 2023 GMT
            Not After : Oct 18 20:47:02 2026 GMT
        Subject: CN=team429-server
        Subject Public Key Info:
            Public Key Algorithm: rsaEncryption
                Public-Key: (2048 bit)
                Modulus:
                    00:b9:14:cf:d7:5b:1e:b9:5e:a0:8d:44:15:4e:f0:
                    7a:cc:60:de:fc:12:52:80:8b:c4:a1:bd:34:3b:9b:
                    af:02:e5:b5:d0:31:f2:28:39:24:2f:ce:0f:15:ac:
                    3d:d5:fb:82:e5:36:0e:4b:c4:d7:e6:37:be:06:27:
                    01:83:c2:c2:d7:c9:54:99:9c:49:f2:f3:62:a4:0b:
                    dd:a5:26:8f:cf:f6:17:af:0b:ce:95:17:a7:a7:28:
                    90:d5:44:58:25:1c:50:a7:e8:d1:d4:fc:23:e7:b2:
                    a9:17:84:99:09:f5:68:b4:1c:56:c3:87:7a:c0:0f:
                    f5:2a:cc:56:cd:a0:47:f8:00:fb:9b:1e:dc:56:1c:
                    49:9e:ec:af:cf:6e:77:4f:47:7e:7b:0f:98:eb:af:
                    46:16:c1:88:05:99:78:d2:08:f4:4d:90:4e:d5:58:
                    a4:e8:13:5e:43:db:17:1d:98:ab:42:80:7d:78:32:
                    59:9d:cf:67:1c:ed:c6:7b:4c:60:b4:79:64:11:6c:
                    81:93:72:87:91:35:47:ee:9d:d2:86:56:8a:33:ff:
                    e8:0f:77:ec:9c:47:a9:06:03:78:37:2e:d9:0b:ed:
                    e5:0f:b3:a7:d1:06:42:81:f6:27:e3:a4:41:7d:81:
                    d4:ec:4d:cb:ef:54:00:33:70:0f:7e:18:9b:5d:3d:
                    3f:85
                Exponent: 65537 (0x10001)
        X509v3 extensions:
            X509v3 Basic Constraints: 
                CA:FALSE
            X509v3 Subject Key Identifier: 
                0F:53:FC:DD:14:0E:42:40:D2:C3:6A:C1:43:84:12:42:C3:B7:AB:DC
            X509v3 Authority Key Identifier: 
                keyid:40:67:EC:76:E2:CF:6F:36:FA:D6:5B:4C:6D:01:DD:5B:56:10:C2:58
                DirName:/CN=team429-net
                serial:11:88:60:4A:DB:AA:F4:6B:11:74:61:6A:7E:13:16:CC:6B:E2:BD:21
            X509v3 Extended Key Usage: 
                TLS Web Server Authentication
            X509v3 Key Usage: 
                Digital Signature, Key Encipherment
            X509v3 Subject Alternative Name: 
                DNS:team429-server
    Signature Algorithm: sha256WithRSAEncryption
    Signature Value:
        75:d9:36:e3:61:bf:a3:47:26:b7:0a:09:97:ba:e9:9a:78:c7:
        6e:f0:dc:3a:59:6f:f8:66:ce:be:d9:9c:f6:be:b3:7b:88:d0:
        e6:4d:a4:65:85:a4:74:8a:27:30:4a:5f:89:0c:ee:ee:bd:0d:
        ac:8b:0f:9e:29:0c:c2:b1:39:01:91:e8:fc:37:d7:7b:5b:0e:
        ea:03:24:33:32:96:12:d3:d8:b5:5f:a5:51:7a:8d:dd:53:1a:
        e4:01:ff:c8:57:e7:b9:4f:f0:04:b4:7d:40:87:46:3b:0f:a5:
        ad:dc:3f:0e:8a:d7:81:a4:8b:11:cc:5b:dd:e6:dc:55:0a:50:
        96:ae:bd:a3:95:ae:05:4f:ba:8e:c3:3a:39:f6:22:1a:89:0c:
        59:91:68:25:9b:40:85:77:2a:a2:85:5e:67:cf:90:07:52:6a:
        8d:e3:9f:e2:aa:4a:93:28:d8:28:b9:68:51:e9:b7:c9:ad:41:
        6d:88:5d:4a:2a:55:a4:d9:74:e3:2e:ea:95:ba:41:a9:ee:29:
        6f:1d:88:68:43:36:df:70:de:da:d7:e8:6f:df:c9:50:00:09:
        cb:1c:cf:a9:ac:10:f1:bb:59:56:48:53:9e:f2:03:1a:68:f9:
        6d:bc:6e:40:0f:aa:bd:7a:dc:62:fb:9d:55:a6:58:9f:f9:de:
        7e:57:11:a8
-----BEGIN CERTIFICATE-----
MIIDeDCCAmCgAwIBAgIRAJqejKVl0FhVTfI69pDqFgYwDQYJKoZIhvcNAQELBQAw
FjEUMBIGA1UEAwwLdGVhbTQyOS1uZXQwHhcNMjMxMTAzMjA0NzAyWhcNMjYxMDE4
MjA0NzAyWjAZMRcwFQYDVQQDDA50ZWFtNDI5LXNlcnZlcjCCASIwDQYJKoZIhvcN
AQEBBQADggEPADCCAQoCggEBALkUz9dbHrleoI1EFU7wesxg3vwSUoCLxKG9NDub
rwLltdAx8ig5JC/ODxWsPdX7guU2DkvE1+Y3vgYnAYPCwtfJVJmcSfLzYqQL3aUm
j8/2F68LzpUXp6cokNVEWCUcUKfo0dT8I+eyqReEmQn1aLQcVsOHesAP9SrMVs2g
R/gA+5se3FYcSZ7sr89ud09HfnsPmOuvRhbBiAWZeNII9E2QTtVYpOgTXkPbFx2Y
q0KAfXgyWZ3PZxztxntMYLR5ZBFsgZNyh5E1R+6d0oZWijP/6A937JxHqQYDeDcu
2Qvt5Q+zp9EGQoH2J+OkQX2B1OxNy+9UADNwD34Ym109P4UCAwEAAaOBvTCBujAJ
BgNVHRMEAjAAMB0GA1UdDgQWBBQPU/zdFA5CQNLDasFDhBJCw7er3DBRBgNVHSME
SjBIgBRAZ+x24s9vNvrWW0xtAd1bVhDCWKEapBgwFjEUMBIGA1UEAwwLdGVhbTQy
OS1uZXSCFBGIYErbqvRrEXRhan4TFsxr4r0hMBMGA1UdJQQMMAoGCCsGAQUFBwMB
MAsGA1UdDwQEAwIFoDAZBgNVHREEEjAQgg50ZWFtNDI5LXNlcnZlcjANBgkqhkiG
9w0BAQsFAAOCAQEAddk242G/o0cmtwoJl7rpmnjHbvDcOllv+GbOvtmc9r6ze4jQ
5k2kZYWkdIonMEpfiQzu7r0NrIsPnikMwrE5AZHo/DfXe1sO6gMkMzKWEtPYtV+l
UXqN3VMa5AH/yFfnuU/wBLR9QIdGOw+lrdw/DorXgaSLEcxb3ebcVQpQlq69o5Wu
BU+6jsM6OfYiGokMWZFoJZtAhXcqooVeZ8+QB1JqjeOf4qpKkyjYKLloUem3ya1B
bYhdSipVpNl04y7qlbpBqe4pbx2IaEM233De2tfob9/JUAAJyxzPqawQ8btZVkhT
nvIDGmj5bbxuQA+qvXrcYvudVaZYn/neflcRqA==
-----END CERTIFICATE-----
