Certificate:
    Data:
        Version: 3 (0x2)
        Serial Number:
            73:e7:c3:b3:76:47:ea:7c:bf:c3:37:90:c9:31:f5:4d
        Signature Algorithm: sha256WithRSAEncryption
        Issuer: CN=team37-net
        Validity
            Not Before: Nov  4 11:28:05 2023 GMT
            Not After : Oct 19 11:28:05 2026 GMT
        Subject: CN=team37-client
        Subject Public Key Info:
            Public Key Algorithm: rsaEncryption
                Public-Key: (2048 bit)
                Modulus:
                    00:c7:6e:2c:7a:35:63:1e:0d:44:e3:81:8b:79:23:
                    f4:ca:1f:3b:1f:5a:f2:20:d4:97:4e:94:cb:17:67:
                    20:63:99:99:ee:0a:8f:08:7e:1b:53:e6:cd:a5:b2:
                    19:0c:5b:9b:2c:02:3e:e7:4e:81:41:d5:2b:96:f0:
                    fe:b1:03:95:54:2b:0a:d7:eb:ca:00:17:db:00:d9:
                    3a:08:2c:33:34:d3:8a:86:23:7a:15:b0:77:c1:59:
                    51:a2:13:b8:ff:e0:d1:4e:26:53:0f:06:76:c7:08:
                    07:eb:02:d0:60:1d:af:71:13:ff:3e:a3:a2:6d:78:
                    3c:0e:7f:93:db:55:64:f5:aa:77:e4:22:5c:8f:c6:
                    e6:ef:c7:7e:4d:a2:ad:5a:e6:e7:c9:f1:6b:0c:59:
                    46:63:d7:e8:ad:7e:ad:f0:5f:29:00:74:54:e1:6a:
                    0a:cc:94:a5:1e:19:83:fe:07:59:db:f0:91:4f:95:
                    39:b5:bf:52:e5:38:d9:f9:af:65:1b:42:a2:39:90:
                    04:d5:c8:8a:90:a7:2a:64:c1:90:04:5a:e6:7e:53:
                    8b:b5:e8:f5:dd:88:d3:12:9a:7e:a9:a3:d9:47:e7:
                    c5:e2:ff:20:b3:9f:f7:81:bd:1e:a1:81:22:6c:0c:
                    e9:18:b2:d6:53:32:d9:c8:00:80:bb:62:6a:f9:8c:
                    c5:21
                Exponent: 65537 (0x10001)
        X509v3 extensions:
            X509v3 Basic Constraints: 
                CA:FALSE
            X509v3 Subject Key Identifier: 
                DD:98:AE:5D:A7:12:9E:F1:C7:ED:BB:A3:1A:14:88:C0:57:3D:71:58
            X509v3 Authority Key Identifier: 
                keyid:BC:58:75:03:5A:58:7F:AE:C4:C3:01:08:14:95:8F:54:66:13:7A:8D
                DirName:/CN=team37-net
                serial:3D:B3:29:9B:C2:AA:12:73:6A:B4:3D:75:A5:26:52:61:E9:78:32:2A
            X509v3 Extended Key Usage: 
                TLS Web Client Authentication
            X509v3 Key Usage: 
                Digital Signature
    Signature Algorithm: sha256WithRSAEncryption
    Signature Value:
        b7:2f:fb:b3:df:5c:48:02:fc:f2:17:b7:b0:25:74:8f:2f:27:
        5d:e4:d1:87:77:ae:ed:68:2d:0f:14:85:06:c0:01:36:7e:3a:
        7e:fc:e0:c1:af:75:27:91:da:52:cd:00:1f:1d:96:5a:bc:57:
        da:05:e5:78:98:2b:c1:76:b8:94:13:6e:61:3d:f7:cf:b5:b5:
        0a:84:f7:ce:7b:16:88:c1:a8:e0:63:0c:f0:ff:21:53:d8:78:
        1c:61:d0:11:da:ce:ec:0e:6d:56:70:04:a9:86:ed:8d:4d:5d:
        f0:b1:d4:f4:1f:69:82:5e:80:55:7e:4f:66:34:80:b3:c0:9c:
        f0:de:11:e2:88:9b:22:42:1c:51:7f:de:22:f4:5d:aa:80:e3:
        3b:53:49:41:cf:b4:02:db:90:6c:7b:54:91:72:af:5f:ce:70:
        8a:28:20:99:d1:47:e7:12:d5:59:50:dd:fb:15:b9:19:f5:18:
        4b:6b:22:83:9d:33:d3:08:76:21:16:64:4c:8b:cd:8a:a5:7e:
        ed:56:39:aa:e0:e1:18:a1:c6:70:29:04:f9:ad:ea:07:dc:64:
        60:f9:69:27:ca:ba:0b:15:6a:06:ff:55:df:cd:ec:bd:45:6d:
        9d:05:dd:e6:ee:02:ba:57:a8:63:08:33:1e:b4:ae:32:30:c5:
        5e:ee:0d:90
-----BEGIN CERTIFICATE-----
MIIDWTCCAkGgAwIBAgIQc+fDs3ZH6ny/wzeQyTH1TTANBgkqhkiG9w0BAQsFADAV
MRMwEQYDVQQDDAp0ZWFtMzctbmV0MB4XDTIzMTEwNDExMjgwNVoXDTI2MTAxOTEx
MjgwNVowGDEWMBQGA1UEAwwNdGVhbTM3LWNsaWVudDCCASIwDQYJKoZIhvcNAQEB
BQADggEPADCCAQoCggEBAMduLHo1Yx4NROOBi3kj9MofOx9a8iDUl06UyxdnIGOZ
me4Kjwh+G1PmzaWyGQxbmywCPudOgUHVK5bw/rEDlVQrCtfrygAX2wDZOggsMzTT
ioYjehWwd8FZUaITuP/g0U4mUw8GdscIB+sC0GAdr3ET/z6jom14PA5/k9tVZPWq
d+QiXI/G5u/Hfk2irVrm58nxawxZRmPX6K1+rfBfKQB0VOFqCsyUpR4Zg/4HWdvw
kU+VObW/UuU42fmvZRtCojmQBNXIipCnKmTBkARa5n5Ti7Xo9d2I0xKafqmj2Ufn
xeL/ILOf94G9HqGBImwM6Riy1lMy2cgAgLtiavmMxSECAwEAAaOBoTCBnjAJBgNV
HRMEAjAAMB0GA1UdDgQWBBTdmK5dpxKe8cftu6MaFIjAVz1xWDBQBgNVHSMESTBH
gBS8WHUDWlh/rsTDAQgUlY9UZhN6jaEZpBcwFTETMBEGA1UEAwwKdGVhbTM3LW5l
dIIUPbMpm8KqEnNqtD11pSZSYel4MiowEwYDVR0lBAwwCgYIKwYBBQUHAwIwCwYD
VR0PBAQDAgeAMA0GCSqGSIb3DQEBCwUAA4IBAQC3L/uz31xIAvzyF7ewJXSPLydd
5NGHd67taC0PFIUGwAE2fjp+/ODBr3UnkdpSzQAfHZZavFfaBeV4mCvBdriUE25h
PffPtbUKhPfOexaIwajgYwzw/yFT2HgcYdAR2s7sDm1WcASphu2NTV3wsdT0H2mC
XoBVfk9mNICzwJzw3hHiiJsiQhxRf94i9F2qgOM7U0lBz7QC25Bse1SRcq9fznCK
KCCZ0UfnEtVZUN37FbkZ9RhLayKDnTPTCHYhFmRMi82KpX7tVjmq4OEYocZwKQT5
reoH3GRg+WknyroLFWoG/1Xfzey9RW2dBd3m7gK6V6hjCDMetK4yMMVe7g2Q
-----END CERTIFICATE-----
