Certificate:
    Data:
        Version: 3 (0x2)
        Serial Number:
            b0:08:ae:13:c7:39:2f:0c:42:1c:9e:ff:0a:fe:2d:21
        Signature Algorithm: sha256WithRSAEncryption
        Issuer: CN=team37-net
        Validity
            Not Before: Nov  4 11:28:05 2023 GMT
            Not After : Oct 19 11:28:05 2026 GMT
        Subject: CN=team37-server
        Subject Public Key Info:
            Public Key Algorithm: rsaEncryption
                Public-Key: (2048 bit)
                Modulus:
                    00:c0:32:de:cc:31:b0:58:1e:15:4f:42:6e:16:36:
                    d7:e1:32:a1:ca:78:3a:b1:09:7d:54:8d:50:84:04:
                    89:53:84:94:58:ab:ac:b5:dc:c0:aa:1b:5e:d5:92:
                    7a:15:52:81:f2:ce:6d:4d:28:d0:01:94:fb:a2:85:
                    88:e9:8e:63:29:25:17:03:45:48:f7:4b:3d:de:80:
                    8c:75:4a:7e:b4:f2:dd:a0:0f:d5:f4:87:34:3e:8e:
                    b1:44:c7:9f:b9:c0:3f:1d:95:d7:1b:c2:fe:35:4d:
                    3b:b0:f4:cf:12:08:14:39:d0:b1:39:e4:35:82:60:
                    e7:6a:82:ab:8c:a5:db:da:c9:34:36:ef:67:79:fa:
                    77:53:45:12:b8:90:0c:29:0f:ea:34:04:84:56:36:
                    4e:e6:cc:21:5a:3f:8b:a1:af:2b:1b:1a:77:d1:43:
                    0f:65:0b:1b:2b:3c:41:9a:41:65:49:60:7a:79:d5:
                    28:af:bb:d3:0e:89:39:06:fd:bf:0b:e0:27:75:fe:
                    76:ed:6b:fa:4c:9f:fe:df:96:bf:69:ff:a7:08:b2:
                    ca:95:48:72:ee:3b:4f:37:56:ca:1d:93:c3:d5:b2:
                    eb:01:3d:22:0f:cc:8d:3d:9d:f8:ab:0a:44:33:5c:
                    78:0b:9d:aa:94:dd:f6:72:0b:5c:04:be:23:d1:8c:
                    5c:f7
                Exponent: 65537 (0x10001)
        X509v3 extensions:
            X509v3 Basic Constraints: 
                CA:FALSE
            X509v3 Subject Key Identifier: 
                A0:C3:13:F0:74:7B:9C:26:CE:41:71:75:4C:1C:FC:4E:6A:2A:00:F8
            X509v3 Authority Key Identifier: 
                keyid:BC:58:75:03:5A:58:7F:AE:C4:C3:01:08:14:95:8F:54:66:13:7A:8D
                DirName:/CN=team37-net
                serial:3D:B3:29:9B:C2:AA:12:73:6A:B4:3D:75:A5:26:52:61:E9:78:32:2A
            X509v3 Extended Key Usage: 
                TLS Web Server Authentication
            X509v3 Key Usage: 
                Digital Signature, Key Encipherment
            X509v3 Subject Alternative Name: 
                DNS:team37-server
    Signature Algorithm: sha256WithRSAEncryption
    Signature Value:
        9a:55:06:f4:0e:bc:d1:17:dd:91:bc:a1:f0:a8:23:82:69:01:
        7a:54:72:e6:3e:af:24:55:a4:0f:e1:d9:f7:f1:a1:7c:e7:7d:
        e4:37:f6:a3:33:73:4a:9b:13:17:91:0c:bd:a5:49:ec:06:8b:
        df:60:9f:cc:da:7d:9f:b4:7f:6b:40:0e:7e:cd:ae:fc:bb:d4:
        6a:7a:27:1e:05:9a:d7:32:ba:38:59:cf:a0:8c:62:fb:7a:f1:
        46:e5:f1:ff:10:e9:bb:fd:31:36:ac:df:73:4d:0c:6a:ac:50:
        73:36:87:62:c8:0e:43:c3:18:14:a4:40:96:cb:cb:e8:1b:3b:
        ba:a4:f5:bb:e7:bc:a2:19:63:d4:97:de:4e:e7:f7:3d:be:02:
        c9:d3:34:f8:90:a7:d2:9f:df:60:a5:bb:79:a8:d0:1f:73:26:
        ac:af:32:0a:e9:35:a5:67:a5:1e:5b:29:d7:6f:f0:16:75:5e:
        63:95:1d:fb:76:d8:ac:e6:36:a4:db:c3:57:44:99:bd:5e:7e:
        de:14:a3:12:64:cf:a5:85:92:70:22:c3:99:4b:fe:b1:12:81:
        49:e7:47:6c:57:7f:91:c2:47:e0:c5:83:db:fe:b0:73:8b:45:
        86:eb:25:5d:ed:06:ef:77:88:3a:a8:1c:73:21:94:ca:17:67:
        bc:0c:80:9a
-----BEGIN CERTIFICATE-----
MIIDdDCCAlygAwIBAgIRALAIrhPHOS8MQhye/wr+LSEwDQYJKoZIhvcNAQELBQAw
FTETMBEGA1UEAwwKdGVhbTM3LW5ldDAeFw0yMzExMDQxMTI4MDVaFw0yNjEwMTkx
MTI4MDVaMBgxFjAUBgNVBAMMDXRlYW0zNy1zZXJ2ZXIwggEiMA0GCSqGSIb3DQEB
AQUAA4IBDwAwggEKAoIBAQDAMt7MMbBYHhVPQm4WNtfhMqHKeDqxCX1UjVCEBIlT
hJRYq6y13MCqG17VknoVUoHyzm1NKNABlPuihYjpjmMpJRcDRUj3Sz3egIx1Sn60
8t2gD9X0hzQ+jrFEx5+5wD8dldcbwv41TTuw9M8SCBQ50LE55DWCYOdqgquMpdva
yTQ272d5+ndTRRK4kAwpD+o0BIRWNk7mzCFaP4uhrysbGnfRQw9lCxsrPEGaQWVJ
YHp51Sivu9MOiTkG/b8L4Cd1/nbta/pMn/7flr9p/6cIssqVSHLuO083Vsodk8PV
susBPSIPzI09nfirCkQzXHgLnaqU3fZyC1wEviPRjFz3AgMBAAGjgbswgbgwCQYD
VR0TBAIwADAdBgNVHQ4EFgQUoMMT8HR7nCbOQXF1TBz8TmoqAPgwUAYDVR0jBEkw
R4AUvFh1A1pYf67EwwEIFJWPVGYTeo2hGaQXMBUxEzARBgNVBAMMCnRlYW0zNy1u
ZXSCFD2zKZvCqhJzarQ9daUmUmHpeDIqMBMGA1UdJQQMMAoGCCsGAQUFBwMBMAsG
A1UdDwQEAwIFoDAYBgNVHREEETAPgg10ZWFtMzctc2VydmVyMA0GCSqGSIb3DQEB
CwUAA4IBAQCaVQb0DrzRF92RvKHwqCOCaQF6VHLmPq8kVaQP4dn38aF8533kN/aj
M3NKmxMXkQy9pUnsBovfYJ/M2n2ftH9rQA5+za78u9RqeiceBZrXMro4Wc+gjGL7
evFG5fH/EOm7/TE2rN9zTQxqrFBzNodiyA5DwxgUpECWy8voGzu6pPW757yiGWPU
l95O5/c9vgLJ0zT4kKfSn99gpbt5qNAfcyasrzIK6TWlZ6UeWynXb/AWdV5jlR37
dtis5jak28NXRJm9Xn7eFKMSZM+lhZJwIsOZS/6xEoFJ50dsV3+RwkfgxYPb/rBz
i0WG6yVd7Qbvd4g6qBxzIZTKF2e8DICa
-----END CERTIFICATE-----
