Certificate:
    Data:
        Version: 3 (0x2)
        Serial Number:
            bb:dd:e6:35:60:5d:e9:41:2d:b4:79:3e:9e:80:43:25
        Signature Algorithm: sha256WithRSAEncryption
        Issuer: CN=team373-net
        Validity
            Not Before: Nov  3 20:46:01 2023 GMT
            Not After : Oct 18 20:46:01 2026 GMT
        Subject: CN=team373-client
        Subject Public Key Info:
            Public Key Algorithm: rsaEncryption
                Public-Key: (2048 bit)
                Modulus:
                    00:96:4a:49:1f:17:03:bc:f1:49:7c:93:7b:84:8d:
                    a6:0e:8f:11:0b:b9:17:e3:c2:b6:99:44:3f:87:a6:
                    5c:99:18:89:da:ee:bc:3b:50:3e:da:f3:1c:5c:f8:
                    2f:ce:5f:ee:b8:ca:d5:e8:82:6c:92:47:43:c1:1d:
                    ff:db:f3:c6:12:09:c4:2b:9e:80:b1:2b:53:3b:c2:
                    af:70:36:72:da:ce:85:df:58:82:95:5a:79:9b:be:
                    35:84:94:d0:70:cb:b5:d1:ce:5b:38:ad:d0:45:1c:
                    f0:bc:17:58:1e:30:9f:2c:3d:71:2f:85:af:a7:78:
                    7c:2d:e7:4b:43:22:21:7d:1c:ad:14:10:9b:70:07:
                    f8:8e:c0:ac:e5:d2:20:3a:0e:c4:71:96:ea:a4:27:
                    92:55:f0:56:e2:fc:df:13:98:a1:28:b3:1e:84:de:
                    fc:b1:5d:df:54:54:3a:b4:2c:98:85:38:ce:f5:8f:
                    19:fe:ce:92:cb:61:ff:09:2f:b9:43:7f:c3:b3:7e:
                    76:be:1d:d6:ab:c1:f7:ab:b1:26:ac:59:f6:8e:90:
                    54:d2:1e:5d:4f:e4:14:3c:95:3c:d4:a8:6c:73:8b:
                    e6:5c:cb:9f:8a:b9:bc:5f:3c:b1:ad:66:1f:fa:37:
                    ce:1d:c0:bb:ec:fa:67:71:15:36:62:29:ae:a1:a2:
                    f0:09
                Exponent: 65537 (0x10001)
        X509v3 extensions:
            X509v3 Basic Constraints: 
                CA:FALSE
            X509v3 Subject Key Identifier: 
                3B:A5:5A:12:7A:B3:FD:5B:42:3D:70:21:ED:3F:A3:DF:21:17:42:D1
            X509v3 Authority Key Identifier: 
                keyid:08:C3:41:BD:EF:89:EC:D7:27:C1:BF:B7:47:64:DC:C2:CE:EF:12:1C
                DirName:/CN=team373-net
                serial:55:98:58:8B:CE:18:21:F9:7D:F1:DC:CB:E8:99:02:8F:57:5F:6B:60
            X509v3 Extended Key Usage: 
                TLS Web Client Authentication
            X509v3 Key Usage: 
                Digital Signature
    Signature Algorithm: sha256WithRSAEncryption
    Signature Value:
        a9:11:a5:c1:ad:20:7d:40:ad:56:da:d3:82:a3:4f:49:90:8e:
        02:f7:1a:63:66:e2:36:68:ab:dd:c5:14:69:4a:0a:5a:0c:77:
        22:1e:69:48:d5:ff:2b:1c:64:17:41:8f:b8:0c:a8:05:03:94:
        f8:28:c4:59:4d:ab:c5:43:93:06:f5:61:d6:26:f7:62:cb:3e:
        f3:0c:39:23:1b:a6:f2:0a:1b:da:d5:ac:37:bc:62:bc:6b:d1:
        b6:34:f8:84:c8:03:e1:ce:cf:16:fe:e0:0b:7d:ce:0b:4b:78:
        61:31:95:46:b6:91:12:da:d5:c7:01:c3:fd:dd:64:2b:34:6f:
        34:6e:a1:96:78:88:11:2f:60:03:5c:22:d1:3c:c5:5f:87:b2:
        7b:e2:36:a0:5f:de:c0:a1:80:83:d7:9f:76:4a:10:f7:25:59:
        2e:05:1e:5b:50:30:6f:9f:4e:66:04:97:bc:58:63:59:34:5f:
        4b:ed:46:11:56:75:8d:dc:e7:0a:dc:ce:4b:62:20:4d:75:96:
        cd:c8:b8:8f:e0:76:3f:8c:4f:26:77:6d:9a:74:9d:a8:25:35:
        12:6c:0d:eb:6d:8b:2f:f6:c0:1b:3a:33:27:6c:5f:40:14:5f:
        67:bc:e1:80:90:5f:f0:45:74:b6:01:60:94:30:d8:fc:1b:a8:
        ec:d1:4b:07
-----BEGIN CERTIFICATE-----
MIIDXTCCAkWgAwIBAgIRALvd5jVgXelBLbR5Pp6AQyUwDQYJKoZIhvcNAQELBQAw
FjEUMBIGA1UEAwwLdGVhbTM3My1uZXQwHhcNMjMxMTAzMjA0NjAxWhcNMjYxMDE4
MjA0NjAxWjAZMRcwFQYDVQQDDA50ZWFtMzczLWNsaWVudDCCASIwDQYJKoZIhvcN
AQEBBQADggEPADCCAQoCggEBAJZKSR8XA7zxSXyTe4SNpg6PEQu5F+PCtplEP4em
XJkYidruvDtQPtrzHFz4L85f7rjK1eiCbJJHQ8Ed/9vzxhIJxCuegLErUzvCr3A2
ctrOhd9YgpVaeZu+NYSU0HDLtdHOWzit0EUc8LwXWB4wnyw9cS+Fr6d4fC3nS0Mi
IX0crRQQm3AH+I7ArOXSIDoOxHGW6qQnklXwVuL83xOYoSizHoTe/LFd31RUOrQs
mIU4zvWPGf7Oksth/wkvuUN/w7N+dr4d1qvB96uxJqxZ9o6QVNIeXU/kFDyVPNSo
bHOL5lzLn4q5vF88sa1mH/o3zh3Au+z6Z3EVNmIprqGi8AkCAwEAAaOBojCBnzAJ
BgNVHRMEAjAAMB0GA1UdDgQWBBQ7pVoSerP9W0I9cCHtP6PfIRdC0TBRBgNVHSME
SjBIgBQIw0G974ns1yfBv7dHZNzCzu8SHKEapBgwFjEUMBIGA1UEAwwLdGVhbTM3
My1uZXSCFFWYWIvOGCH5ffHcy+iZAo9XX2tgMBMGA1UdJQQMMAoGCCsGAQUFBwMC
MAsGA1UdDwQEAwIHgDANBgkqhkiG9w0BAQsFAAOCAQEAqRGlwa0gfUCtVtrTgqNP
SZCOAvcaY2biNmir3cUUaUoKWgx3Ih5pSNX/KxxkF0GPuAyoBQOU+CjEWU2rxUOT
BvVh1ib3Yss+8ww5Ixum8gob2tWsN7xivGvRtjT4hMgD4c7PFv7gC33OC0t4YTGV
RraREtrVxwHD/d1kKzRvNG6hlniIES9gA1wi0TzFX4eye+I2oF/ewKGAg9efdkoQ
9yVZLgUeW1Awb59OZgSXvFhjWTRfS+1GEVZ1jdznCtzOS2IgTXWWzci4j+B2P4xP
JndtmnSdqCU1EmwN622LL/bAGzozJ2xfQBRfZ7zhgJBf8EV0tgFglDDY/Buo7NFL
Bw==
-----END CERTIFICATE-----
