Certificate:
    Data:
        Version: 3 (0x2)
        Serial Number:
            1e:0f:94:64:2f:29:b7:48:e8:d8:be:64:2a:8f:9c:f5
        Signature Algorithm: sha256WithRSAEncryption
        Issuer: CN=team269-net
        Validity
            Not Before: Nov  3 20:44:14 2023 GMT
            Not After : Oct 18 20:44:14 2026 GMT
        Subject: CN=team269-server
        Subject Public Key Info:
            Public Key Algorithm: rsaEncryption
                Public-Key: (2048 bit)
                Modulus:
                    00:96:1b:ff:18:8b:d8:af:b1:db:4e:8b:69:e7:b2:
                    85:af:25:e9:3f:0d:35:f7:81:7a:73:74:05:ca:53:
                    d0:9a:02:b8:5f:21:41:3b:6e:ff:da:f3:95:a8:06:
                    e7:a4:10:d1:53:1a:62:e8:4b:75:21:6c:11:31:2e:
                    6e:9f:ad:d0:e7:16:49:84:94:44:ce:2c:64:4d:35:
                    24:9d:31:8f:83:22:c6:d7:2b:de:cb:e1:46:ad:76:
                    8e:a1:e3:b0:e8:ed:3e:21:07:95:cf:48:2b:f1:2f:
                    56:20:e1:87:29:51:86:48:98:1e:08:52:59:67:c8:
                    ba:95:06:69:26:39:8e:76:0a:92:c0:8f:0a:71:6c:
                    26:74:82:be:a4:5f:fb:cc:ef:45:9e:bb:ce:5b:0b:
                    71:3e:8f:5a:83:93:69:e0:c4:29:1c:c0:14:a1:70:
                    fb:a7:2c:cb:a3:c9:67:5d:63:26:37:b3:f0:86:82:
                    35:bb:0a:9f:2f:e0:58:54:9a:99:b5:ec:30:a0:61:
                    d0:7c:c4:cb:9e:6b:4a:90:09:55:a0:ac:09:b9:57:
                    fb:2e:ec:2a:ae:e8:ff:a2:d4:e1:67:99:21:00:f3:
                    57:4c:b8:e6:e9:39:51:01:a9:1e:c4:e0:5b:17:51:
                    ff:e3:d4:49:71:a1:6a:1a:c9:7c:b8:ef:b6:86:df:
                    fc:45
                Exponent: 65537 (0x10001)
        X509v3 extensions:
            X509v3 Basic Constraints: 
                CA:FALSE
            X509v3 Subject Key Identifier: 
                32:4D:A4:FA:93:E5:8C:17:6A:F8:C9:1F:9E:BE:0F:4D:C7:F2:FF:9B
            X509v3 Authority Key Identifier: 
                keyid:AB:EF:6C:37:20:91:A8:06:02:53:57:30:0C:E1:EF:0A:75:AF:D3:D6
                DirName:/CN=team269-net
                serial:35:9C:D8:F5:BA:0D:79:9C:23:EA:39:6A:D8:E8:2B:4A:4E:B5:F4:07
            X509v3 Extended Key Usage: 
                TLS Web Server Authentication
            X509v3 Key Usage: 
                Digital Signature, Key Encipherment
            X509v3 Subject Alternative Name: 
                DNS:team269-server
    Signature Algorithm: sha256WithRSAEncryption
    Signature Value:
        a1:0a:98:43:60:fd:00:89:30:e1:51:fa:d2:26:c2:5c:cc:66:
        7b:da:66:87:57:21:e6:07:8b:b7:e5:bf:b6:8f:f2:a7:1d:39:
        94:9a:3d:0e:4d:0b:69:aa:e8:2c:00:80:19:fc:60:76:61:cf:
        fe:a6:46:b3:fd:e2:f9:e1:93:0d:67:7d:79:fc:5e:fa:5b:2c:
        bf:26:bd:c5:54:d0:11:f1:26:f6:28:a0:39:13:92:11:bd:b3:
        39:f9:70:c7:14:e8:3c:0c:27:ef:5d:d1:b8:8e:88:11:be:84:
        18:64:37:65:53:2e:f2:6f:c7:cb:09:b5:ab:69:42:53:b9:63:
        df:fb:a8:bb:d7:e2:3e:85:13:1d:ed:f8:2c:24:b3:52:14:51:
        00:c8:4e:94:c0:e8:ea:49:68:52:f8:67:d3:af:71:df:97:5b:
        1f:43:19:a8:52:65:eb:63:d2:52:40:5d:5a:72:9a:2a:cd:ae:
        a6:0a:5a:67:d9:f9:ee:28:54:74:b5:55:f9:2a:b6:14:6d:f1:
        04:c8:da:36:52:d4:cd:2e:d7:09:0a:70:af:2c:f4:08:2c:d5:
        be:e8:e5:d0:b2:5f:1f:cc:38:c6:5e:06:0a:b1:f9:31:76:8a:
        85:0f:21:0e:0a:7c:58:24:cd:b4:9f:c5:e5:0c:3c:88:7a:f4:
        3f:c8:54:f9
-----BEGIN CERTIFICATE-----
MIIDdzCCAl+gAwIBAgIQHg+UZC8pt0jo2L5kKo+c9TANBgkqhkiG9w0BAQsFADAW
MRQwEgYDVQQDDAt0ZWFtMjY5LW5ldDAeFw0yMzExMDMyMDQ0MTRaFw0yNjEwMTgy
MDQ0MTRaMBkxFzAVBgNVBAMMDnRlYW0yNjktc2VydmVyMIIBIjANBgkqhkiG9w0B
AQEFAAOCAQ8AMIIBCgKCAQEAlhv/GIvYr7HbTotp57KFryXpPw0194F6c3QFylPQ
mgK4XyFBO27/2vOVqAbnpBDRUxpi6Et1IWwRMS5un63Q5xZJhJREzixkTTUknTGP
gyLG1yvey+FGrXaOoeOw6O0+IQeVz0gr8S9WIOGHKVGGSJgeCFJZZ8i6lQZpJjmO
dgqSwI8KcWwmdIK+pF/7zO9FnrvOWwtxPo9ag5Np4MQpHMAUoXD7pyzLo8lnXWMm
N7PwhoI1uwqfL+BYVJqZtewwoGHQfMTLnmtKkAlVoKwJuVf7Luwqruj/otThZ5kh
APNXTLjm6TlRAakexOBbF1H/49RJcaFqGsl8uO+2ht/8RQIDAQABo4G9MIG6MAkG
A1UdEwQCMAAwHQYDVR0OBBYEFDJNpPqT5YwXavjJH56+D03H8v+bMFEGA1UdIwRK
MEiAFKvvbDcgkagGAlNXMAzh7wp1r9PWoRqkGDAWMRQwEgYDVQQDDAt0ZWFtMjY5
LW5ldIIUNZzY9boNeZwj6jlq2OgrSk619AcwEwYDVR0lBAwwCgYIKwYBBQUHAwEw
CwYDVR0PBAQDAgWgMBkGA1UdEQQSMBCCDnRlYW0yNjktc2VydmVyMA0GCSqGSIb3
DQEBCwUAA4IBAQChCphDYP0AiTDhUfrSJsJczGZ72maHVyHmB4u35b+2j/KnHTmU
mj0OTQtpqugsAIAZ/GB2Yc/+pkaz/eL54ZMNZ315/F76Wyy/Jr3FVNAR8Sb2KKA5
E5IRvbM5+XDHFOg8DCfvXdG4jogRvoQYZDdlUy7yb8fLCbWraUJTuWPf+6i71+I+
hRMd7fgsJLNSFFEAyE6UwOjqSWhS+GfTr3Hfl1sfQxmoUmXrY9JSQF1acpoqza6m
Clpn2fnuKFR0tVX5KrYUbfEEyNo2UtTNLtcJCnCvLPQILNW+6OXQsl8fzDjGXgYK
sfkxdoqFDyEOCnxYJM20n8XlDDyIevQ/yFT5
-----END CERTIFICATE-----
