Certificate:
    Data:
        Version: 3 (0x2)
        Serial Number:
            2f:74:49:6e:c1:40:2d:ae:fd:a1:0e:13:6f:80:1c:e4
        Signature Algorithm: sha256WithRSAEncryption
        Issuer: CN=team269-net
        Validity
            Not Before: Nov  4 11:33:01 2023 GMT
            Not After : Oct 19 11:33:01 2026 GMT
        Subject: CN=team269-server
        Subject Public Key Info:
            Public Key Algorithm: rsaEncryption
                Public-Key: (2048 bit)
                Modulus:
                    00:99:e5:d2:9b:5f:aa:b3:21:00:7c:17:77:62:06:
                    57:07:35:50:39:6b:5f:80:cf:3a:e4:87:2d:01:b7:
                    a8:91:b1:ea:28:5f:97:76:e7:ab:7b:ff:70:dc:64:
                    57:74:a8:0c:da:7c:e7:de:c5:03:7f:78:28:a3:c9:
                    7c:4e:51:1b:63:fd:23:b7:c4:9e:04:2e:3a:3e:02:
                    a5:00:be:ab:dc:69:ef:dd:7d:43:c9:eb:a1:e3:05:
                    91:b0:4d:17:74:5d:40:ac:c0:d1:1c:be:4a:fb:91:
                    8d:5c:9d:d4:41:ad:24:da:9d:3a:a0:56:17:16:d1:
                    2e:53:52:3c:d7:af:23:da:8a:4d:1e:08:df:58:a6:
                    65:fc:7d:78:b2:28:4b:ef:12:44:40:31:88:4f:08:
                    6c:63:f9:12:49:34:78:92:bb:68:56:1c:a7:3b:66:
                    d7:b4:2c:2e:ed:d4:76:01:95:7b:12:7e:5a:5f:d6:
                    fe:2f:5f:8c:80:b5:9a:d2:18:42:43:74:10:8b:30:
                    5d:7f:3f:6e:b5:70:82:4f:7a:06:42:91:8a:da:6f:
                    83:d7:01:c0:87:e7:98:a3:10:24:89:ef:eb:00:25:
                    15:ca:64:70:30:97:16:17:03:27:48:0b:f9:7f:d1:
                    30:e8:13:a7:ee:29:de:07:6b:ab:01:05:96:5a:0f:
                    36:7f
                Exponent: 65537 (0x10001)
        X509v3 extensions:
            X509v3 Basic Constraints: 
                CA:FALSE
            X509v3 Subject Key Identifier: 
                99:08:41:F9:BF:4D:61:F0:98:75:80:26:EC:45:B3:F9:16:68:94:69
            X509v3 Authority Key Identifier: 
                keyid:E7:F0:3F:7D:F0:5E:44:20:43:81:ED:80:82:D7:64:4E:59:F5:39:17
                DirName:/CN=team269-net
                serial:75:CB:F9:88:6C:CD:0F:F4:65:85:FE:A4:95:59:0B:B0:45:02:EF:E6
            X509v3 Extended Key Usage: 
                TLS Web Server Authentication
            X509v3 Key Usage: 
                Digital Signature, Key Encipherment
            X509v3 Subject Alternative Name: 
                DNS:team269-server
    Signature Algorithm: sha256WithRSAEncryption
    Signature Value:
        85:89:7c:be:5d:ca:86:20:13:d0:5c:85:7a:7e:4a:0a:5c:de:
        0c:49:5a:0f:bd:f0:5c:5e:7d:91:54:03:8a:c2:32:1c:c7:63:
        33:82:19:46:53:13:c3:f1:4d:14:65:22:50:91:9d:2d:1e:51:
        10:40:66:1f:04:67:a6:b0:63:f1:5a:20:e3:67:a6:1b:3a:a9:
        0f:9b:50:45:95:68:49:13:78:68:e5:e3:82:e0:d5:9e:38:6f:
        12:1f:24:53:96:d3:aa:14:fc:ad:ed:f4:0a:07:c3:6d:94:8b:
        0b:ff:f2:d4:ee:49:de:47:72:89:00:09:60:92:dd:98:23:65:
        49:af:d6:76:c8:02:4c:e6:b3:90:6a:69:e5:0d:3b:7d:5f:e9:
        82:0c:8e:70:2b:ae:8c:d2:cf:20:ce:af:8e:ee:2c:20:82:68:
        59:ce:c8:f4:45:d3:de:41:fa:18:0c:65:f3:ba:b8:9b:8f:6d:
        b6:f5:87:9b:4c:84:71:7d:56:fc:0b:7c:7e:6f:b5:66:3d:ca:
        c6:2b:3b:b7:58:f0:5a:79:4b:06:d9:19:66:d8:b5:c5:5f:2d:
        cd:28:8b:8b:93:96:c5:e1:d1:11:bd:8d:74:2f:a2:b2:83:e1:
        6f:8b:c5:29:13:7a:53:66:46:7d:06:2e:5c:c2:8d:4b:f8:25:
        63:e6:6f:d6
-----BEGIN CERTIFICATE-----
MIIDdzCCAl+gAwIBAgIQL3RJbsFALa79oQ4Tb4Ac5DANBgkqhkiG9w0BAQsFADAW
MRQwEgYDVQQDDAt0ZWFtMjY5LW5ldDAeFw0yMzExMDQxMTMzMDFaFw0yNjEwMTkx
MTMzMDFaMBkxFzAVBgNVBAMMDnRlYW0yNjktc2VydmVyMIIBIjANBgkqhkiG9w0B
AQEFAAOCAQ8AMIIBCgKCAQEAmeXSm1+qsyEAfBd3YgZXBzVQOWtfgM865IctAbeo
kbHqKF+Xduere/9w3GRXdKgM2nzn3sUDf3goo8l8TlEbY/0jt8SeBC46PgKlAL6r
3Gnv3X1Dyeuh4wWRsE0XdF1ArMDRHL5K+5GNXJ3UQa0k2p06oFYXFtEuU1I8168j
2opNHgjfWKZl/H14sihL7xJEQDGITwhsY/kSSTR4krtoVhynO2bXtCwu7dR2AZV7
En5aX9b+L1+MgLWa0hhCQ3QQizBdfz9utXCCT3oGQpGK2m+D1wHAh+eYoxAkie/r
ACUVymRwMJcWFwMnSAv5f9Ew6BOn7ineB2urAQWWWg82fwIDAQABo4G9MIG6MAkG
A1UdEwQCMAAwHQYDVR0OBBYEFJkIQfm/TWHwmHWAJuxFs/kWaJRpMFEGA1UdIwRK
MEiAFOfwP33wXkQgQ4HtgILXZE5Z9TkXoRqkGDAWMRQwEgYDVQQDDAt0ZWFtMjY5
LW5ldIIUdcv5iGzND/Rlhf6klVkLsEUC7+YwEwYDVR0lBAwwCgYIKwYBBQUHAwEw
CwYDVR0PBAQDAgWgMBkGA1UdEQQSMBCCDnRlYW0yNjktc2VydmVyMA0GCSqGSIb3
DQEBCwUAA4IBAQCFiXy+XcqGIBPQXIV6fkoKXN4MSVoPvfBcXn2RVAOKwjIcx2Mz
ghlGUxPD8U0UZSJQkZ0tHlEQQGYfBGemsGPxWiDjZ6YbOqkPm1BFlWhJE3ho5eOC
4NWeOG8SHyRTltOqFPyt7fQKB8NtlIsL//LU7kneR3KJAAlgkt2YI2VJr9Z2yAJM
5rOQamnlDTt9X+mCDI5wK66M0s8gzq+O7iwggmhZzsj0RdPeQfoYDGXzuribj222
9YebTIRxfVb8C3x+b7VmPcrGKzu3WPBaeUsG2Rlm2LXFXy3NKIuLk5bF4dERvY10
L6Kyg+Fvi8UpE3pTZkZ9Bi5cwo1L+CVj5m/W
-----END CERTIFICATE-----
