Certificate:
    Data:
        Version: 3 (0x2)
        Serial Number:
            6e:05:c2:ee:f8:1b:ae:b5:98:23:e1:75:61:80:a3:2e
        Signature Algorithm: sha256WithRSAEncryption
        Issuer: CN=team269-net
        Validity
            Not Before: Nov  4 11:33:01 2023 GMT
            Not After : Oct 19 11:33:01 2026 GMT
        Subject: CN=team269-client
        Subject Public Key Info:
            Public Key Algorithm: rsaEncryption
                Public-Key: (2048 bit)
                Modulus:
                    00:c0:db:d2:ea:e5:56:b8:3b:bc:12:ad:42:af:50:
                    3d:53:a1:3e:c1:87:9d:dd:42:d7:45:21:29:12:d1:
                    10:93:a7:ff:5a:56:a0:8d:b5:b3:bd:67:81:ab:d7:
                    72:e9:4e:21:0a:28:cd:5d:fc:7d:00:d4:d0:bb:d4:
                    82:9d:98:06:ae:55:cd:45:31:3e:76:96:74:83:c0:
                    d0:de:b8:cc:0e:ec:67:2e:96:29:6e:d5:64:c4:41:
                    6b:66:10:f8:52:02:ff:07:cf:0a:bf:04:13:2a:f2:
                    6f:6d:f3:09:db:b1:91:2c:a8:dd:e4:d2:a8:e2:ad:
                    13:ad:39:e9:d3:0f:62:5b:9f:3f:8b:99:ec:55:c4:
                    31:ee:c4:2d:0a:c1:a1:89:6f:90:d3:c7:1b:26:3c:
                    90:ec:a3:96:4d:ce:4f:64:48:f5:70:02:4c:99:3c:
                    09:8b:57:25:38:d1:28:cd:11:14:14:55:b7:ca:1d:
                    99:43:4d:c5:db:55:72:5c:d0:77:03:73:1b:ce:90:
                    84:d5:91:0d:12:94:8b:b4:15:01:33:fe:89:6b:d3:
                    a3:a4:af:e0:27:dd:29:45:e7:28:14:0f:08:09:81:
                    23:94:cd:dc:8f:73:e1:ee:41:12:39:61:95:90:49:
                    58:63:71:d1:db:69:45:95:b2:07:2f:8b:b1:8b:fa:
                    09:9d
                Exponent: 65537 (0x10001)
        X509v3 extensions:
            X509v3 Basic Constraints: 
                CA:FALSE
            X509v3 Subject Key Identifier: 
                BE:1C:8E:4D:66:AB:72:2E:71:8B:A4:59:A5:F9:4D:73:53:E7:E6:F1
            X509v3 Authority Key Identifier: 
                keyid:E7:F0:3F:7D:F0:5E:44:20:43:81:ED:80:82:D7:64:4E:59:F5:39:17
                DirName:/CN=team269-net
                serial:75:CB:F9:88:6C:CD:0F:F4:65:85:FE:A4:95:59:0B:B0:45:02:EF:E6
            X509v3 Extended Key Usage: 
                TLS Web Client Authentication
            X509v3 Key Usage: 
                Digital Signature
    Signature Algorithm: sha256WithRSAEncryption
    Signature Value:
        b1:36:18:b9:07:bb:17:b4:11:73:34:68:38:c1:62:7e:2d:9f:
        03:8e:07:fc:fa:f6:19:bd:17:80:61:3e:80:ea:a0:ac:61:0a:
        2d:5f:1d:df:fe:eb:d9:e2:26:e0:03:bc:bf:74:ce:10:5f:06:
        db:6a:f8:89:89:a9:0d:e0:e0:fb:e2:17:5f:57:63:e8:d8:89:
        9b:6d:c0:34:6b:64:04:7f:f1:17:2a:16:f1:28:8e:d2:c2:fc:
        79:7b:11:12:64:cb:48:a0:e2:43:3f:e6:63:99:f4:08:57:d3:
        08:ea:a8:e6:54:f3:de:35:21:e1:3b:9f:6a:6b:89:1f:60:bf:
        46:6c:4e:ec:ac:8b:d1:09:bd:9e:63:bf:6a:84:b7:e9:6e:42:
        90:37:82:1a:9a:01:2e:23:27:d0:f8:cc:c2:db:b3:7b:a9:2d:
        ef:06:3b:5b:3a:28:6f:f5:cd:a1:1e:85:36:bb:4e:90:87:d9:
        ad:27:9f:04:1b:a3:9f:56:6d:f0:66:f8:7d:64:dc:f6:bf:5e:
        d6:e1:08:44:9f:6d:7b:c8:50:c6:80:55:bc:1f:37:3c:c0:98:
        6a:cb:da:c0:75:c2:b7:50:2c:04:8b:44:f9:3a:ae:e7:7a:45:
        6b:29:97:d1:01:2e:aa:c7:08:d7:3c:1b:ce:d6:ab:41:b7:b2:
        ff:92:a7:30
-----BEGIN CERTIFICATE-----
MIIDXDCCAkSgAwIBAgIQbgXC7vgbrrWYI+F1YYCjLjANBgkqhkiG9w0BAQsFADAW
MRQwEgYDVQQDDAt0ZWFtMjY5LW5ldDAeFw0yMzExMDQxMTMzMDFaFw0yNjEwMTkx
MTMzMDFaMBkxFzAVBgNVBAMMDnRlYW0yNjktY2xpZW50MIIBIjANBgkqhkiG9w0B
AQEFAAOCAQ8AMIIBCgKCAQEAwNvS6uVWuDu8Eq1Cr1A9U6E+wYed3ULXRSEpEtEQ
k6f/WlagjbWzvWeBq9dy6U4hCijNXfx9ANTQu9SCnZgGrlXNRTE+dpZ0g8DQ3rjM
DuxnLpYpbtVkxEFrZhD4UgL/B88KvwQTKvJvbfMJ27GRLKjd5NKo4q0TrTnp0w9i
W58/i5nsVcQx7sQtCsGhiW+Q08cbJjyQ7KOWTc5PZEj1cAJMmTwJi1clONEozREU
FFW3yh2ZQ03F21VyXNB3A3MbzpCE1ZENEpSLtBUBM/6Ja9OjpK/gJ90pRecoFA8I
CYEjlM3cj3Ph7kESOWGVkElYY3HR22lFlbIHL4uxi/oJnQIDAQABo4GiMIGfMAkG
A1UdEwQCMAAwHQYDVR0OBBYEFL4cjk1mq3IucYukWaX5TXNT5+bxMFEGA1UdIwRK
MEiAFOfwP33wXkQgQ4HtgILXZE5Z9TkXoRqkGDAWMRQwEgYDVQQDDAt0ZWFtMjY5
LW5ldIIUdcv5iGzND/Rlhf6klVkLsEUC7+YwEwYDVR0lBAwwCgYIKwYBBQUHAwIw
CwYDVR0PBAQDAgeAMA0GCSqGSIb3DQEBCwUAA4IBAQCxNhi5B7sXtBFzNGg4wWJ+
LZ8Djgf8+vYZvReAYT6A6qCsYQotXx3f/uvZ4ibgA7y/dM4QXwbbaviJiakN4OD7
4hdfV2Po2ImbbcA0a2QEf/EXKhbxKI7Swvx5exESZMtIoOJDP+ZjmfQIV9MI6qjm
VPPeNSHhO59qa4kfYL9GbE7srIvRCb2eY79qhLfpbkKQN4IamgEuIyfQ+MzC27N7
qS3vBjtbOihv9c2hHoU2u06Qh9mtJ58EG6OfVm3wZvh9ZNz2v17W4QhEn217yFDG
gFW8Hzc8wJhqy9rAdcK3UCwEi0T5Oq7nekVrKZfRAS6qxwjXPBvO1qtBt7L/kqcw
-----END CERTIFICATE-----
