Certificate:
    Data:
        Version: 3 (0x2)
        Serial Number:
            31:a4:10:fe:e5:8d:76:c2:a6:cb:01:bf:bb:aa:78:80
        Signature Algorithm: sha256WithRSAEncryption
        Issuer: CN=team401-net
        Validity
            Not Before: Nov  3 20:46:29 2023 GMT
            Not After : Oct 18 20:46:29 2026 GMT
        Subject: CN=team401-server
        Subject Public Key Info:
            Public Key Algorithm: rsaEncryption
                Public-Key: (2048 bit)
                Modulus:
                    00:f2:1c:ad:86:56:57:ce:ba:eb:10:13:65:74:fa:
                    98:94:66:21:8a:47:69:87:cb:97:45:4f:b6:f3:fc:
                    a4:17:03:79:7f:6c:1a:0e:23:a3:c2:b7:9c:1d:08:
                    80:28:a5:8d:a0:41:9b:3a:22:3c:e2:0a:07:71:a2:
                    af:2b:0c:22:8d:66:94:77:ee:97:eb:78:e8:11:df:
                    77:b1:44:9e:b5:41:4a:47:38:78:ff:2e:e8:5e:df:
                    12:84:20:b9:c0:38:d1:df:4d:d1:33:c0:22:f3:4b:
                    5e:35:1a:71:df:56:c3:80:29:90:e2:1c:6e:de:e8:
                    9f:f8:33:54:cc:95:01:22:b2:53:17:83:0e:8a:87:
                    29:b5:d9:f0:cd:46:06:86:55:11:51:8e:c2:5a:3d:
                    10:b3:1b:ec:af:22:11:bc:89:40:7d:bb:76:3f:3f:
                    f7:8e:95:fc:73:f4:a0:9b:c6:dc:9d:7d:49:1e:3d:
                    6d:a2:3a:16:46:1b:00:a2:61:4e:22:b7:16:14:21:
                    84:23:2c:2f:fc:c7:df:19:50:e1:33:35:5b:65:40:
                    28:0a:68:ec:2c:d9:24:73:9a:91:b8:63:4b:46:e6:
                    7c:6e:d1:ca:8f:1a:88:21:72:20:ee:38:30:90:84:
                    0f:81:35:09:f5:08:76:7b:60:f4:a4:56:fa:56:91:
                    34:ad
                Exponent: 65537 (0x10001)
        X509v3 extensions:
            X509v3 Basic Constraints: 
                CA:FALSE
            X509v3 Subject Key Identifier: 
                C1:4E:E8:1E:7A:CF:D4:81:10:0C:D7:99:EA:5D:60:9B:C0:D5:A8:53
            X509v3 Authority Key Identifier: 
                keyid:68:5A:5D:28:C2:CA:1D:D0:50:A7:1B:66:6C:15:D2:6D:35:38:2A:5B
                DirName:/CN=team401-net
                serial:7E:FF:2D:F6:01:E2:E9:30:F4:FA:B1:67:3F:CE:C0:12:44:D6:EA:C9
            X509v3 Extended Key Usage: 
                TLS Web Server Authentication
            X509v3 Key Usage: 
                Digital Signature, Key Encipherment
            X509v3 Subject Alternative Name: 
                DNS:team401-server
    Signature Algorithm: sha256WithRSAEncryption
    Signature Value:
        30:02:bd:cf:65:47:19:b2:1f:7a:13:be:2e:c8:ba:b7:82:39:
        01:ed:c4:0b:cf:43:ed:23:d2:ea:f3:9c:1d:08:db:e9:60:3e:
        94:75:dc:f0:e3:b7:b7:43:42:ed:b6:9b:f1:11:78:ec:83:e7:
        bd:ea:22:84:70:73:10:a0:55:78:90:59:52:7b:b9:4e:af:1d:
        0a:9c:e8:61:0b:64:c3:b2:f8:ce:dd:8d:68:81:66:33:64:19:
        ae:12:aa:7f:84:ab:c8:76:f2:bd:c1:79:37:ec:aa:e1:0b:9d:
        6e:b0:40:a9:8e:fe:ef:61:da:c9:70:97:e8:f4:9e:bd:fe:13:
        8d:9b:75:ed:a4:37:c4:7a:bb:a8:80:7a:d6:fb:15:f9:7e:64:
        c9:35:72:d7:07:0c:f2:d9:61:93:43:66:2c:e0:2b:ad:ac:ea:
        b0:62:f1:34:54:6a:b6:48:03:5a:b6:43:33:fd:8d:1c:18:ac:
        92:24:2b:80:c5:f1:86:6f:26:33:c3:5a:04:92:c3:33:ee:4e:
        31:ae:26:e3:11:d7:87:42:e2:94:32:2b:0a:48:6e:da:31:50:
        d7:cb:93:18:ab:a0:87:f1:72:a7:4a:f7:ff:9c:a0:6d:96:a5:
        b7:3c:de:e5:d3:e2:84:1f:93:48:e0:61:32:39:d9:5a:3a:1e:
        cb:ef:a9:18
-----BEGIN CERTIFICATE-----
MIIDdzCCAl+gAwIBAgIQMaQQ/uWNdsKmywG/u6p4gDANBgkqhkiG9w0BAQsFADAW
MRQwEgYDVQQDDAt0ZWFtNDAxLW5ldDAeFw0yMzExMDMyMDQ2MjlaFw0yNjEwMTgy
MDQ2MjlaMBkxFzAVBgNVBAMMDnRlYW00MDEtc2VydmVyMIIBIjANBgkqhkiG9w0B
AQEFAAOCAQ8AMIIBCgKCAQEA8hythlZXzrrrEBNldPqYlGYhikdph8uXRU+28/yk
FwN5f2waDiOjwrecHQiAKKWNoEGbOiI84goHcaKvKwwijWaUd+6X63joEd93sUSe
tUFKRzh4/y7oXt8ShCC5wDjR303RM8Ai80teNRpx31bDgCmQ4hxu3uif+DNUzJUB
IrJTF4MOiocptdnwzUYGhlURUY7CWj0QsxvsryIRvIlAfbt2Pz/3jpX8c/Sgm8bc
nX1JHj1tojoWRhsAomFOIrcWFCGEIywv/MffGVDhMzVbZUAoCmjsLNkkc5qRuGNL
RuZ8btHKjxqIIXIg7jgwkIQPgTUJ9Qh2e2D0pFb6VpE0rQIDAQABo4G9MIG6MAkG
A1UdEwQCMAAwHQYDVR0OBBYEFMFO6B56z9SBEAzXmepdYJvA1ahTMFEGA1UdIwRK
MEiAFGhaXSjCyh3QUKcbZmwV0m01OCpboRqkGDAWMRQwEgYDVQQDDAt0ZWFtNDAx
LW5ldIIUfv8t9gHi6TD0+rFnP87AEkTW6skwEwYDVR0lBAwwCgYIKwYBBQUHAwEw
CwYDVR0PBAQDAgWgMBkGA1UdEQQSMBCCDnRlYW00MDEtc2VydmVyMA0GCSqGSIb3
DQEBCwUAA4IBAQAwAr3PZUcZsh96E74uyLq3gjkB7cQLz0PtI9Lq85wdCNvpYD6U
ddzw47e3Q0LttpvxEXjsg+e96iKEcHMQoFV4kFlSe7lOrx0KnOhhC2TDsvjO3Y1o
gWYzZBmuEqp/hKvIdvK9wXk37KrhC51usECpjv7vYdrJcJfo9J69/hONm3XtpDfE
eruogHrW+xX5fmTJNXLXBwzy2WGTQ2Ys4CutrOqwYvE0VGq2SANatkMz/Y0cGKyS
JCuAxfGGbyYzw1oEksMz7k4xribjEdeHQuKUMisKSG7aMVDXy5MYq6CH8XKnSvf/
nKBtlqW3PN7l0+KEH5NI4GEyOdlaOh7L76kY
-----END CERTIFICATE-----
