Certificate:
    Data:
        Version: 3 (0x2)
        Serial Number:
            d8:4d:eb:f5:cc:b8:3e:e5:5f:d8:82:05:75:eb:0d:35
        Signature Algorithm: sha256WithRSAEncryption
        Issuer: CN=team255-net
        Validity
            Not Before: Nov  3 20:43:59 2023 GMT
            Not After : Oct 18 20:43:59 2026 GMT
        Subject: CN=team255-server
        Subject Public Key Info:
            Public Key Algorithm: rsaEncryption
                Public-Key: (2048 bit)
                Modulus:
                    00:de:93:8a:3f:cf:76:65:45:37:4e:44:be:ff:88:
                    07:fa:b2:e6:71:36:73:42:74:ab:b2:65:2e:02:60:
                    ae:6c:cb:00:78:ba:6d:a1:6b:e0:c2:e6:fe:c1:74:
                    0b:a1:75:ee:d7:4d:84:f7:ae:27:9f:65:38:a8:b1:
                    39:e3:22:0a:66:37:76:3b:6a:a7:ed:38:ab:4a:da:
                    10:cc:74:c7:af:7f:73:b1:18:96:fa:8a:b1:21:cb:
                    41:37:50:b0:af:8e:b7:b6:a9:17:fb:0e:86:a1:22:
                    14:88:89:ea:67:0d:b3:2e:53:e9:34:1e:1c:18:78:
                    92:b8:62:5d:19:36:84:2f:9f:72:ca:dd:2b:a4:a0:
                    41:47:75:af:fc:a7:06:33:b2:d7:45:fd:d6:fe:83:
                    0e:e5:6a:cb:cf:06:97:50:28:c2:12:b2:4b:7f:e1:
                    83:4f:1a:54:91:2f:b3:37:61:10:99:39:9e:6a:22:
                    d2:ed:02:73:90:3c:89:37:d4:f2:83:9c:eb:5a:00:
                    82:ab:c1:9e:64:85:62:09:53:4a:56:54:be:8b:32:
                    24:5f:33:db:99:d0:70:d4:98:8f:92:16:64:a8:6e:
                    ec:50:51:f7:8b:84:3c:d0:85:e7:89:65:4a:84:5c:
                    bb:56:6b:34:ed:46:35:a6:25:ca:11:29:da:aa:4b:
                    c7:fd
                Exponent: 65537 (0x10001)
        X509v3 extensions:
            X509v3 Basic Constraints: 
                CA:FALSE
            X509v3 Subject Key Identifier: 
                83:04:47:FF:BE:38:01:F6:E7:E0:54:A6:C6:BA:2B:41:79:17:B3:50
            X509v3 Authority Key Identifier: 
                keyid:8A:4C:93:8E:C8:EF:29:E8:13:15:F8:1F:A3:24:EE:AA:8C:A0:E4:48
                DirName:/CN=team255-net
                serial:76:58:9B:89:33:61:57:54:CD:44:6E:76:1C:37:BA:B7:20:63:77:20
            X509v3 Extended Key Usage: 
                TLS Web Server Authentication
            X509v3 Key Usage: 
                Digital Signature, Key Encipherment
            X509v3 Subject Alternative Name: 
                DNS:team255-server
    Signature Algorithm: sha256WithRSAEncryption
    Signature Value:
        12:c1:dd:bd:bc:ba:51:07:db:dc:f2:a3:e4:aa:1f:0b:6e:b7:
        e8:d0:3b:fb:c0:df:08:25:78:41:db:f6:8c:69:9c:6c:5f:11:
        82:d7:1d:af:0a:96:e0:97:b3:b0:da:3f:c1:61:ff:c5:e4:d4:
        1a:c3:a6:d1:83:8c:fe:4f:52:ad:ab:b0:e7:c2:54:aa:a8:94:
        ef:9f:f3:d3:2d:67:23:e1:b4:74:fc:61:9c:00:88:e0:dc:2c:
        0e:88:8e:0b:a3:c8:3a:e5:f6:74:5e:ff:69:50:a0:4e:81:38:
        10:4c:0c:52:8d:ea:03:e9:25:cc:44:5b:8c:81:34:be:5b:5f:
        b0:1e:1b:d8:c2:f0:b4:ba:f7:a5:ae:58:35:68:0f:a7:c2:a8:
        de:1c:b0:30:de:8d:65:67:bf:53:99:6f:42:a4:8f:fd:43:71:
        9f:57:87:a6:73:db:ef:7e:88:1f:f0:86:d2:f2:4e:0c:ef:a3:
        37:2f:c3:bb:53:e5:9d:81:b1:06:d7:26:7c:02:71:24:7a:32:
        07:92:4d:09:a8:2d:ef:0e:e2:e8:d2:6f:8b:09:e9:80:14:a6:
        82:46:dd:c0:ea:27:72:15:dd:bf:3c:a2:17:e8:0b:6d:07:af:
        c0:08:13:4a:ca:fa:5b:60:83:6f:9f:03:45:39:32:8d:b4:7f:
        4f:35:31:fa
-----BEGIN CERTIFICATE-----
MIIDeDCCAmCgAwIBAgIRANhN6/XMuD7lX9iCBXXrDTUwDQYJKoZIhvcNAQELBQAw
FjEUMBIGA1UEAwwLdGVhbTI1NS1uZXQwHhcNMjMxMTAzMjA0MzU5WhcNMjYxMDE4
MjA0MzU5WjAZMRcwFQYDVQQDDA50ZWFtMjU1LXNlcnZlcjCCASIwDQYJKoZIhvcN
AQEBBQADggEPADCCAQoCggEBAN6Tij/PdmVFN05Evv+IB/qy5nE2c0J0q7JlLgJg
rmzLAHi6baFr4MLm/sF0C6F17tdNhPeuJ59lOKixOeMiCmY3djtqp+04q0raEMx0
x69/c7EYlvqKsSHLQTdQsK+Ot7apF/sOhqEiFIiJ6mcNsy5T6TQeHBh4krhiXRk2
hC+fcsrdK6SgQUd1r/ynBjOy10X91v6DDuVqy88Gl1AowhKyS3/hg08aVJEvszdh
EJk5nmoi0u0Cc5A8iTfU8oOc61oAgqvBnmSFYglTSlZUvosyJF8z25nQcNSYj5IW
ZKhu7FBR94uEPNCF54llSoRcu1ZrNO1GNaYlyhEp2qpLx/0CAwEAAaOBvTCBujAJ
BgNVHRMEAjAAMB0GA1UdDgQWBBSDBEf/vjgB9ufgVKbGuitBeRezUDBRBgNVHSME
SjBIgBSKTJOOyO8p6BMV+B+jJO6qjKDkSKEapBgwFjEUMBIGA1UEAwwLdGVhbTI1
NS1uZXSCFHZYm4kzYVdUzURudhw3urcgY3cgMBMGA1UdJQQMMAoGCCsGAQUFBwMB
MAsGA1UdDwQEAwIFoDAZBgNVHREEEjAQgg50ZWFtMjU1LXNlcnZlcjANBgkqhkiG
9w0BAQsFAAOCAQEAEsHdvby6UQfb3PKj5KofC2636NA7+8DfCCV4Qdv2jGmcbF8R
gtcdrwqW4JezsNo/wWH/xeTUGsOm0YOM/k9Srauw58JUqqiU75/z0y1nI+G0dPxh
nACI4NwsDoiOC6PIOuX2dF7/aVCgToE4EEwMUo3qA+klzERbjIE0vltfsB4b2MLw
tLr3pa5YNWgPp8Ko3hywMN6NZWe/U5lvQqSP/UNxn1eHpnPb736IH/CG0vJODO+j
Ny/Du1PlnYGxBtcmfAJxJHoyB5JNCagt7w7i6NJviwnpgBSmgkbdwOonchXdvzyi
F+gLbQevwAgTSsr6W2CDb58DRTkyjbR/TzUx+g==
-----END CERTIFICATE-----
