Certificate:
    Data:
        Version: 3 (0x2)
        Serial Number:
            12:2d:77:30:f2:3a:8e:02:9f:10:48:56:2a:f5:47:1f
        Signature Algorithm: sha256WithRSAEncryption
        Issuer: CN=team255-net
        Validity
            Not Before: Nov  3 20:43:59 2023 GMT
            Not After : Oct 18 20:43:59 2026 GMT
        Subject: CN=team255-client
        Subject Public Key Info:
            Public Key Algorithm: rsaEncryption
                Public-Key: (2048 bit)
                Modulus:
                    00:a7:88:b0:93:28:a6:13:8d:13:99:89:20:ca:9f:
                    b2:c0:20:35:8b:8e:f4:81:98:f6:83:6f:73:1e:81:
                    f5:da:a6:74:19:c0:91:ae:ca:e8:f9:28:24:22:e9:
                    4a:24:55:74:83:db:23:38:1f:a4:27:3a:75:d4:8c:
                    43:1a:e0:4f:a7:57:bd:08:27:6e:ad:4c:a7:61:fd:
                    a5:0b:f2:4d:e5:ee:bc:5d:c9:34:5b:ea:ee:d6:36:
                    ae:5e:46:28:36:34:f2:4e:6d:6e:cd:d0:4a:80:77:
                    aa:94:85:82:55:e7:31:b2:01:e6:cf:bc:f3:21:66:
                    ad:0c:80:a3:d0:f9:66:85:d3:1f:cf:72:ae:9b:46:
                    96:71:98:54:41:71:d2:2b:9d:b1:e7:d8:f6:9b:97:
                    d4:30:1c:a4:b3:77:1c:81:cf:13:8c:a4:e0:97:7b:
                    db:bd:6f:a1:c8:e5:0e:05:c8:c1:0a:59:ab:da:ca:
                    25:47:f8:0b:aa:43:b7:73:dc:6c:67:2d:27:d4:2f:
                    8a:8c:e4:dd:57:2b:83:2b:86:df:ca:a6:02:13:52:
                    4a:2e:7d:93:34:9d:e4:33:79:1b:79:96:49:0b:4b:
                    d9:0b:af:d1:33:93:5e:a5:bb:c8:3d:1a:c8:49:38:
                    43:c3:9c:54:48:0d:3d:b0:60:ca:87:bb:6e:51:4c:
                    db:9f
                Exponent: 65537 (0x10001)
        X509v3 extensions:
            X509v3 Basic Constraints: 
                CA:FALSE
            X509v3 Subject Key Identifier: 
                72:12:64:F5:29:8E:42:35:19:C3:02:37:2B:49:A0:8A:E9:11:43:CD
            X509v3 Authority Key Identifier: 
                keyid:8A:4C:93:8E:C8:EF:29:E8:13:15:F8:1F:A3:24:EE:AA:8C:A0:E4:48
                DirName:/CN=team255-net
                serial:76:58:9B:89:33:61:57:54:CD:44:6E:76:1C:37:BA:B7:20:63:77:20
            X509v3 Extended Key Usage: 
                TLS Web Client Authentication
            X509v3 Key Usage: 
                Digital Signature
    Signature Algorithm: sha256WithRSAEncryption
    Signature Value:
        95:05:69:68:c0:b7:f0:45:0f:cc:54:38:b8:26:fc:b7:c9:0a:
        e4:a8:01:30:2e:09:15:17:69:af:5f:5e:cf:60:8b:43:a3:38:
        85:cc:8d:d2:f0:60:ac:5c:bb:d5:6f:e6:e6:73:fb:67:28:ec:
        7a:9e:a8:9a:56:fc:2d:ad:1c:7d:38:6b:7b:fd:02:2c:a6:03:
        e2:56:87:ba:02:93:9a:dd:7b:54:f5:66:5c:d1:8f:f8:58:6e:
        16:ac:d8:85:e1:73:68:12:89:df:ff:48:f3:c0:de:a3:94:88:
        58:0a:1c:1c:9e:40:f7:f4:77:eb:47:8f:38:0b:d5:12:1c:1f:
        45:29:8f:e2:78:0c:31:f7:0b:4d:85:c8:a6:eb:a3:53:a0:11:
        c6:bc:df:94:14:69:b5:86:44:9a:10:ea:fc:5c:eb:9a:71:61:
        d6:f8:ff:fd:b5:03:a9:8d:bd:2a:a6:73:a8:c9:79:6b:0a:82:
        35:de:60:f1:ec:a6:6b:87:16:96:c2:ca:92:4e:a2:0f:4d:4a:
        f6:77:3a:66:ac:74:46:19:ea:75:9d:c5:28:e2:61:b3:87:15:
        21:2f:e8:16:81:02:0f:20:e7:7d:1d:26:22:74:8f:b6:35:e3:
        ba:bf:58:67:4f:78:fc:24:a1:a8:56:84:de:fa:4b:50:49:e4:
        37:1f:9d:d1
-----BEGIN CERTIFICATE-----
MIIDXDCCAkSgAwIBAgIQEi13MPI6jgKfEEhWKvVHHzANBgkqhkiG9w0BAQsFADAW
MRQwEgYDVQQDDAt0ZWFtMjU1LW5ldDAeFw0yMzExMDMyMDQzNTlaFw0yNjEwMTgy
MDQzNTlaMBkxFzAVBgNVBAMMDnRlYW0yNTUtY2xpZW50MIIBIjANBgkqhkiG9w0B
AQEFAAOCAQ8AMIIBCgKCAQEAp4iwkyimE40TmYkgyp+ywCA1i470gZj2g29zHoH1
2qZ0GcCRrsro+SgkIulKJFV0g9sjOB+kJzp11IxDGuBPp1e9CCdurUynYf2lC/JN
5e68Xck0W+ru1jauXkYoNjTyTm1uzdBKgHeqlIWCVecxsgHmz7zzIWatDICj0Plm
hdMfz3Kum0aWcZhUQXHSK52x59j2m5fUMByks3ccgc8TjKTgl3vbvW+hyOUOBcjB
Clmr2solR/gLqkO3c9xsZy0n1C+KjOTdVyuDK4bfyqYCE1JKLn2TNJ3kM3kbeZZJ
C0vZC6/RM5NepbvIPRrISThDw5xUSA09sGDKh7tuUUzbnwIDAQABo4GiMIGfMAkG
A1UdEwQCMAAwHQYDVR0OBBYEFHISZPUpjkI1GcMCNytJoIrpEUPNMFEGA1UdIwRK
MEiAFIpMk47I7ynoExX4H6Mk7qqMoORIoRqkGDAWMRQwEgYDVQQDDAt0ZWFtMjU1
LW5ldIIUdlibiTNhV1TNRG52HDe6tyBjdyAwEwYDVR0lBAwwCgYIKwYBBQUHAwIw
CwYDVR0PBAQDAgeAMA0GCSqGSIb3DQEBCwUAA4IBAQCVBWlowLfwRQ/MVDi4Jvy3
yQrkqAEwLgkVF2mvX17PYItDoziFzI3S8GCsXLvVb+bmc/tnKOx6nqiaVvwtrRx9
OGt7/QIspgPiVoe6ApOa3XtU9WZc0Y/4WG4WrNiF4XNoEonf/0jzwN6jlIhYChwc
nkD39HfrR484C9USHB9FKY/ieAwx9wtNhcim66NToBHGvN+UFGm1hkSaEOr8XOua
cWHW+P/9tQOpjb0qpnOoyXlrCoI13mDx7KZrhxaWwsqSTqIPTUr2dzpmrHRGGep1
ncUo4mGzhxUhL+gWgQIPIOd9HSYidI+2NeO6v1hnT3j8JKGoVoTe+ktQSeQ3H53R
-----END CERTIFICATE-----
