Certificate:
    Data:
        Version: 3 (0x2)
        Serial Number:
            50:32:a0:5a:1c:bb:76:a1:75:5f:58:c6:23:99:7e:44
        Signature Algorithm: sha256WithRSAEncryption
        Issuer: CN=team258-net
        Validity
            Not Before: Nov  4 10:45:29 2023 GMT
            Not After : Oct 19 10:45:29 2026 GMT
        Subject: CN=team258-client
        Subject Public Key Info:
            Public Key Algorithm: rsaEncryption
                Public-Key: (2048 bit)
                Modulus:
                    00:e9:00:c3:b7:4d:38:0a:bf:57:c1:7f:ef:b1:c0:
                    12:36:e0:1a:49:0e:3f:d8:a3:47:ab:96:75:fe:5a:
                    d9:30:a9:9e:47:08:37:76:fe:aa:76:b9:b6:cb:ab:
                    f2:17:88:81:20:3a:ce:de:8f:81:dc:7d:ca:a7:f2:
                    19:22:ca:4a:2f:71:eb:67:76:00:cc:7b:fa:2a:2f:
                    63:8e:e6:7e:ba:34:fc:bc:58:30:3f:c0:75:16:1a:
                    29:19:40:75:b1:a9:37:da:54:8d:fb:4f:d3:a7:26:
                    6a:f4:8b:71:50:ce:92:4b:d6:76:cc:7a:08:e9:45:
                    65:b4:98:86:f9:67:16:1a:dd:a3:d2:ab:b8:e0:4d:
                    e3:8a:83:50:ed:f9:45:e5:2b:57:4a:9d:5b:a4:34:
                    08:55:eb:66:56:82:8d:cf:d7:a2:45:2b:52:95:11:
                    91:16:a1:5f:69:81:3a:6c:b6:9f:59:00:f6:f1:34:
                    c1:3a:2b:ee:05:4b:12:29:1b:20:bf:61:12:68:2f:
                    a4:3e:bf:84:2e:b3:d1:fe:fb:ba:a9:6a:33:df:16:
                    c8:f5:ca:38:12:ac:e6:d4:18:b8:05:d8:b9:ff:1e:
                    5f:31:23:de:68:f9:d9:fd:74:a2:cd:78:cb:ac:fe:
                    32:e8:f7:a5:d6:e8:92:74:e9:d8:42:87:b1:f2:1f:
                    4e:2f
                Exponent: 65537 (0x10001)
        X509v3 extensions:
            X509v3 Basic Constraints: 
                CA:FALSE
            X509v3 Subject Key Identifier: 
                C3:71:78:A4:EA:E0:E3:1B:F8:E5:0C:DD:84:CC:7C:EA:A6:7C:56:42
            X509v3 Authority Key Identifier: 
                keyid:E8:EE:CD:DB:CC:65:C5:1A:17:7E:EF:84:63:38:DB:24:7B:4D:D1:10
                DirName:/CN=team258-net
                serial:3A:2F:E8:FE:42:F8:1C:54:25:E0:A8:66:43:F7:DD:60:74:5B:31:D8
            X509v3 Extended Key Usage: 
                TLS Web Client Authentication
            X509v3 Key Usage: 
                Digital Signature
    Signature Algorithm: sha256WithRSAEncryption
    Signature Value:
        a8:54:c7:8c:de:2b:27:e4:fa:4a:a5:bb:dd:0d:89:01:e8:d7:
        a1:1c:ef:a2:e6:3f:b7:a5:b6:6b:28:30:9a:ed:26:52:bd:3f:
        0b:9c:07:ba:26:3b:ac:7c:c2:dc:19:0c:9c:68:53:08:22:ed:
        86:9b:c6:63:89:30:53:be:66:e5:86:46:fb:a8:dc:df:95:bb:
        da:ce:f6:5a:7f:f2:4f:0a:65:14:2c:97:b5:82:8e:88:89:43:
        a9:06:d8:6f:36:d9:5b:e7:17:26:e6:c5:78:cb:12:f3:9b:df:
        47:63:d5:bc:33:01:9d:f7:08:6a:45:b5:a0:8d:10:80:a9:95:
        25:7f:2d:19:40:05:28:28:4a:3b:a5:74:da:79:a3:4c:cb:d9:
        26:0b:78:27:e6:69:88:e7:23:2e:f3:57:30:71:b9:21:2f:64:
        7e:b5:25:1f:d5:90:e1:83:0b:a5:d1:36:16:23:16:95:de:d6:
        8a:f8:4e:4c:ce:29:1b:85:67:53:75:96:8d:82:5d:4e:65:00:
        c4:f9:19:03:7e:8d:9c:f8:9b:ad:4d:dc:9a:0f:a1:5a:f9:bb:
        bc:20:05:6f:d0:f9:84:2a:92:5b:b8:80:2e:7a:15:49:98:d3:
        4a:c8:04:99:f8:74:27:84:56:7e:d1:96:0b:28:71:0e:7e:2c:
        20:29:38:66
-----BEGIN CERTIFICATE-----
MIIDXDCCAkSgAwIBAgIQUDKgWhy7dqF1X1jGI5l+RDANBgkqhkiG9w0BAQsFADAW
MRQwEgYDVQQDDAt0ZWFtMjU4LW5ldDAeFw0yMzExMDQxMDQ1MjlaFw0yNjEwMTkx
MDQ1MjlaMBkxFzAVBgNVBAMMDnRlYW0yNTgtY2xpZW50MIIBIjANBgkqhkiG9w0B
AQEFAAOCAQ8AMIIBCgKCAQEA6QDDt004Cr9XwX/vscASNuAaSQ4/2KNHq5Z1/lrZ
MKmeRwg3dv6qdrm2y6vyF4iBIDrO3o+B3H3Kp/IZIspKL3HrZ3YAzHv6Ki9jjuZ+
ujT8vFgwP8B1FhopGUB1sak32lSN+0/TpyZq9ItxUM6SS9Z2zHoI6UVltJiG+WcW
Gt2j0qu44E3jioNQ7flF5StXSp1bpDQIVetmVoKNz9eiRStSlRGRFqFfaYE6bLaf
WQD28TTBOivuBUsSKRsgv2ESaC+kPr+ELrPR/vu6qWoz3xbI9co4Eqzm1Bi4Bdi5
/x5fMSPeaPnZ/XSizXjLrP4y6Pel1uiSdOnYQoex8h9OLwIDAQABo4GiMIGfMAkG
A1UdEwQCMAAwHQYDVR0OBBYEFMNxeKTq4OMb+OUM3YTMfOqmfFZCMFEGA1UdIwRK
MEiAFOjuzdvMZcUaF37vhGM42yR7TdEQoRqkGDAWMRQwEgYDVQQDDAt0ZWFtMjU4
LW5ldIIUOi/o/kL4HFQl4KhmQ/fdYHRbMdgwEwYDVR0lBAwwCgYIKwYBBQUHAwIw
CwYDVR0PBAQDAgeAMA0GCSqGSIb3DQEBCwUAA4IBAQCoVMeM3isn5PpKpbvdDYkB
6NehHO+i5j+3pbZrKDCa7SZSvT8LnAe6JjusfMLcGQycaFMIIu2Gm8ZjiTBTvmbl
hkb7qNzflbvazvZaf/JPCmUULJe1go6IiUOpBthvNtlb5xcm5sV4yxLzm99HY9W8
MwGd9whqRbWgjRCAqZUlfy0ZQAUoKEo7pXTaeaNMy9kmC3gn5mmI5yMu81cwcbkh
L2R+tSUf1ZDhgwul0TYWIxaV3taK+E5MzikbhWdTdZaNgl1OZQDE+RkDfo2c+Jut
TdyaD6Fa+bu8IAVv0PmEKpJbuIAuehVJmNNKyASZ+HQnhFZ+0ZYLKHEOfiwgKThm
-----END CERTIFICATE-----
