Certificate:
    Data:
        Version: 3 (0x2)
        Serial Number:
            5b:70:75:31:67:dc:21:97:2c:52:3c:29:b4:36:6a:3b
        Signature Algorithm: sha256WithRSAEncryption
        Issuer: CN=team258-net
        Validity
            Not Before: Nov  4 11:32:44 2023 GMT
            Not After : Oct 19 11:32:44 2026 GMT
        Subject: CN=team258-client
        Subject Public Key Info:
            Public Key Algorithm: rsaEncryption
                Public-Key: (2048 bit)
                Modulus:
                    00:a0:ea:84:72:0f:e1:df:e2:c2:c1:21:3e:f7:b7:
                    a1:c9:96:bf:5f:b7:94:ba:a5:f1:d5:6e:e7:f2:0a:
                    90:80:f7:60:9c:55:0f:2f:24:cc:a9:6a:37:0e:03:
                    7f:32:ed:1b:52:68:b0:e9:66:44:f5:0e:44:68:01:
                    d2:cb:9e:90:09:8d:88:f4:9f:47:71:31:7f:25:fd:
                    a3:13:3d:e1:b1:9f:df:4e:3c:43:e6:e8:f2:41:f5:
                    75:5f:dc:08:81:1f:e2:b8:97:71:db:fc:dc:4e:02:
                    df:ed:9f:f6:bd:97:9b:cb:3d:21:91:08:14:bb:55:
                    6f:06:8f:6b:94:8d:2b:f4:30:73:12:a6:9b:75:99:
                    4d:0e:1c:49:da:b5:d7:42:30:a9:2a:7a:a9:d3:b6:
                    93:85:f4:52:1f:9b:22:1b:03:8a:92:e8:10:71:2e:
                    c3:7a:f4:61:73:d8:12:15:35:b0:32:96:16:11:38:
                    17:50:24:3a:e2:d2:e5:5f:72:fd:39:0c:a8:85:1c:
                    8b:1b:40:60:a5:ab:20:ae:42:ab:6a:ef:d1:93:87:
                    00:7a:9d:fb:f6:9d:9f:46:9b:0b:94:d9:dc:bf:0d:
                    94:4b:50:5e:8e:df:f6:7a:ee:ea:28:34:8c:b8:d9:
                    50:41:0e:ac:7d:68:21:4b:36:14:1d:86:39:87:5d:
                    df:5b
                Exponent: 65537 (0x10001)
        X509v3 extensions:
            X509v3 Basic Constraints: 
                CA:FALSE
            X509v3 Subject Key Identifier: 
                A0:8B:50:31:0B:BE:98:17:72:20:72:95:8D:35:F8:7A:79:62:BF:5B
            X509v3 Authority Key Identifier: 
                keyid:54:9A:AA:2A:8E:47:1C:8E:66:52:93:59:87:64:A9:DF:53:CF:CE:FA
                DirName:/CN=team258-net
                serial:0C:65:8B:91:36:61:BC:53:4E:16:12:E5:B3:F9:DB:1A:CF:48:F9:03
            X509v3 Extended Key Usage: 
                TLS Web Client Authentication
            X509v3 Key Usage: 
                Digital Signature
    Signature Algorithm: sha256WithRSAEncryption
    Signature Value:
        28:ef:aa:1e:eb:c0:94:0d:f7:9b:52:94:57:c4:62:3b:bf:fd:
        6e:16:4f:67:97:3e:2b:15:29:0e:7f:54:9d:5e:eb:b8:c2:c3:
        02:a7:8b:46:af:c4:9c:48:d2:e7:4d:c9:31:11:4e:e2:f9:55:
        14:55:df:d3:19:9c:9a:9a:bf:6c:04:4d:7b:2f:49:05:07:ef:
        ec:2d:14:79:01:72:f6:57:aa:26:a2:05:f6:92:73:02:68:ab:
        83:cd:33:c4:4a:17:3e:99:67:25:d8:07:59:fe:f4:49:14:35:
        03:90:89:d0:df:34:ab:cb:2e:1a:c2:fe:20:94:08:cf:29:c0:
        5d:fa:f0:9f:35:28:14:62:cf:f3:f0:22:be:2b:8a:85:3a:d5:
        6f:96:cc:f7:ea:43:50:6f:75:a8:e4:34:3f:2d:7b:b2:26:82:
        e0:23:bb:5c:b8:4f:67:96:98:70:46:84:02:a9:d6:6c:0b:9f:
        97:75:b4:65:97:78:77:df:f1:ec:63:c9:a4:7c:2a:39:43:63:
        ce:c9:c4:97:6c:8c:ad:96:bf:f2:58:5c:6d:47:18:87:4f:f8:
        ab:52:f5:b1:d7:d0:b0:d2:f3:b7:18:cc:4a:7a:73:50:95:cb:
        f1:d1:f1:d9:fd:56:67:01:a8:75:2a:c6:5d:97:87:27:e9:80:
        ce:57:fb:02
-----BEGIN CERTIFICATE-----
MIIDXDCCAkSgAwIBAgIQW3B1MWfcIZcsUjwptDZqOzANBgkqhkiG9w0BAQsFADAW
MRQwEgYDVQQDDAt0ZWFtMjU4LW5ldDAeFw0yMzExMDQxMTMyNDRaFw0yNjEwMTkx
MTMyNDRaMBkxFzAVBgNVBAMMDnRlYW0yNTgtY2xpZW50MIIBIjANBgkqhkiG9w0B
AQEFAAOCAQ8AMIIBCgKCAQEAoOqEcg/h3+LCwSE+97ehyZa/X7eUuqXx1W7n8gqQ
gPdgnFUPLyTMqWo3DgN/Mu0bUmiw6WZE9Q5EaAHSy56QCY2I9J9HcTF/Jf2jEz3h
sZ/fTjxD5ujyQfV1X9wIgR/iuJdx2/zcTgLf7Z/2vZebyz0hkQgUu1VvBo9rlI0r
9DBzEqabdZlNDhxJ2rXXQjCpKnqp07aThfRSH5siGwOKkugQcS7DevRhc9gSFTWw
MpYWETgXUCQ64tLlX3L9OQyohRyLG0BgpasgrkKrau/Rk4cAep379p2fRpsLlNnc
vw2US1Bejt/2eu7qKDSMuNlQQQ6sfWghSzYUHYY5h13fWwIDAQABo4GiMIGfMAkG
A1UdEwQCMAAwHQYDVR0OBBYEFKCLUDELvpgXciBylY01+Hp5Yr9bMFEGA1UdIwRK
MEiAFFSaqiqORxyOZlKTWYdkqd9Tz876oRqkGDAWMRQwEgYDVQQDDAt0ZWFtMjU4
LW5ldIIUDGWLkTZhvFNOFhLls/nbGs9I+QMwEwYDVR0lBAwwCgYIKwYBBQUHAwIw
CwYDVR0PBAQDAgeAMA0GCSqGSIb3DQEBCwUAA4IBAQAo76oe68CUDfebUpRXxGI7
v/1uFk9nlz4rFSkOf1SdXuu4wsMCp4tGr8ScSNLnTckxEU7i+VUUVd/TGZyamr9s
BE17L0kFB+/sLRR5AXL2V6omogX2knMCaKuDzTPEShc+mWcl2AdZ/vRJFDUDkInQ
3zSryy4awv4glAjPKcBd+vCfNSgUYs/z8CK+K4qFOtVvlsz36kNQb3Wo5DQ/LXuy
JoLgI7tcuE9nlphwRoQCqdZsC5+XdbRll3h33/HsY8mkfCo5Q2POycSXbIytlr/y
WFxtRxiHT/irUvWx19Cw0vO3GMxKenNQlcvx0fHZ/VZnAah1KsZdl4cn6YDOV/sC
-----END CERTIFICATE-----
