Certificate:
    Data:
        Version: 3 (0x2)
        Serial Number:
            ff:1f:11:75:58:30:16:89:38:f3:4d:7d:d2:b3:54:63
        Signature Algorithm: sha256WithRSAEncryption
        Issuer: CN=team258-net
        Validity
            Not Before: Nov  4 11:32:45 2023 GMT
            Not After : Oct 19 11:32:45 2026 GMT
        Subject: CN=team258-server
        Subject Public Key Info:
            Public Key Algorithm: rsaEncryption
                Public-Key: (2048 bit)
                Modulus:
                    00:b4:22:a0:03:66:cb:18:49:f5:7f:0c:61:db:cc:
                    1c:7d:53:97:5d:97:db:77:27:f7:f9:fd:6a:71:0e:
                    62:37:24:7e:69:02:15:fa:6b:55:92:9a:87:24:63:
                    07:16:a9:11:c6:5a:c5:92:2e:a1:8d:44:e0:79:a6:
                    18:fb:d1:dc:8e:1b:61:0f:cd:c6:a7:64:30:c4:ec:
                    2a:18:ed:b7:ae:e1:dd:a0:ac:bc:38:e3:bc:a5:90:
                    3c:12:ae:fc:f9:31:c3:b8:01:8a:fa:59:a8:6f:fc:
                    68:e5:3f:5a:b5:33:94:7e:ce:1f:3d:ac:e1:99:f5:
                    ef:b3:aa:4c:aa:73:0b:bb:59:0d:b4:1f:73:29:de:
                    8e:14:bf:95:07:90:08:b3:2d:bb:cb:a6:d2:92:e3:
                    e1:53:ea:9a:4d:ec:38:f7:b9:65:da:f9:a7:30:8d:
                    2b:27:1c:ad:57:a5:69:8b:87:f4:b9:04:60:2e:71:
                    d0:42:bf:c1:fe:c9:a4:1a:1f:0b:31:a6:aa:71:62:
                    df:c1:ff:42:1b:2f:1a:27:5a:ff:bf:59:0d:42:f8:
                    60:78:51:77:60:fe:09:54:22:12:dd:88:f6:18:d6:
                    e7:ea:bc:01:09:23:8b:eb:db:ef:ab:d6:d1:e4:49:
                    43:25:3e:b3:d8:b4:cb:23:9f:0e:59:b6:e1:6a:14:
                    bb:ad
                Exponent: 65537 (0x10001)
        X509v3 extensions:
            X509v3 Basic Constraints: 
                CA:FALSE
            X509v3 Subject Key Identifier: 
                8F:D0:C1:92:1D:6F:86:FC:67:CD:3A:D2:F1:FB:5D:F4:3C:14:A6:7A
            X509v3 Authority Key Identifier: 
                keyid:54:9A:AA:2A:8E:47:1C:8E:66:52:93:59:87:64:A9:DF:53:CF:CE:FA
                DirName:/CN=team258-net
                serial:0C:65:8B:91:36:61:BC:53:4E:16:12:E5:B3:F9:DB:1A:CF:48:F9:03
            X509v3 Extended Key Usage: 
                TLS Web Server Authentication
            X509v3 Key Usage: 
                Digital Signature, Key Encipherment
            X509v3 Subject Alternative Name: 
                DNS:team258-server
    Signature Algorithm: sha256WithRSAEncryption
    Signature Value:
        ac:5f:35:b0:29:d6:23:74:84:fc:82:b3:fe:ac:20:e3:51:90:
        b3:5e:72:ae:f3:dd:7c:98:59:91:fc:50:f8:3f:40:08:05:c7:
        57:16:ec:0a:55:1e:d9:b7:22:0b:e8:19:a6:3b:73:ca:51:2e:
        71:20:20:22:7b:fa:59:56:63:52:1e:a9:f1:35:e6:f2:ae:b7:
        66:26:9e:aa:63:8e:ad:40:7c:de:80:6e:01:d8:84:07:7f:31:
        be:8e:92:89:51:ec:54:8e:37:ae:e8:5e:bf:74:e8:f5:47:94:
        60:0f:85:45:95:c3:9e:8e:38:80:b3:f1:ee:a4:a9:ca:85:a3:
        a2:22:27:72:52:55:84:13:69:3b:64:4c:62:2e:f7:d4:79:4e:
        58:c7:6b:bc:8a:b1:43:b3:0e:17:aa:50:c8:96:66:4f:84:e2:
        72:f4:07:45:ba:45:06:ff:77:a2:bf:27:1b:0f:22:36:77:00:
        81:eb:5b:72:62:76:95:81:c3:be:da:43:b5:dd:83:a7:4b:f9:
        85:1b:5a:71:cc:73:ee:4f:39:1f:c1:a9:61:9f:27:37:cf:85:
        a3:ca:31:5d:92:2e:8c:e5:d2:25:6c:34:23:3a:9b:51:62:ab:
        21:ac:37:97:12:99:e2:80:42:4d:0c:64:b5:4b:85:16:77:8a:
        70:0a:50:27
-----BEGIN CERTIFICATE-----
MIIDeDCCAmCgAwIBAgIRAP8fEXVYMBaJOPNNfdKzVGMwDQYJKoZIhvcNAQELBQAw
FjEUMBIGA1UEAwwLdGVhbTI1OC1uZXQwHhcNMjMxMTA0MTEzMjQ1WhcNMjYxMDE5
MTEzMjQ1WjAZMRcwFQYDVQQDDA50ZWFtMjU4LXNlcnZlcjCCASIwDQYJKoZIhvcN
AQEBBQADggEPADCCAQoCggEBALQioANmyxhJ9X8MYdvMHH1Tl12X23cn9/n9anEO
YjckfmkCFfprVZKahyRjBxapEcZaxZIuoY1E4HmmGPvR3I4bYQ/NxqdkMMTsKhjt
t67h3aCsvDjjvKWQPBKu/Pkxw7gBivpZqG/8aOU/WrUzlH7OHz2s4Zn177OqTKpz
C7tZDbQfcynejhS/lQeQCLMtu8um0pLj4VPqmk3sOPe5Zdr5pzCNKyccrVelaYuH
9LkEYC5x0EK/wf7JpBofCzGmqnFi38H/QhsvGida/79ZDUL4YHhRd2D+CVQiEt2I
9hjW5+q8AQkji+vb76vW0eRJQyU+s9i0yyOfDlm24WoUu60CAwEAAaOBvTCBujAJ
BgNVHRMEAjAAMB0GA1UdDgQWBBSP0MGSHW+G/GfNOtLx+130PBSmejBRBgNVHSME
SjBIgBRUmqoqjkccjmZSk1mHZKnfU8/O+qEapBgwFjEUMBIGA1UEAwwLdGVhbTI1
OC1uZXSCFAxli5E2YbxTThYS5bP52xrPSPkDMBMGA1UdJQQMMAoGCCsGAQUFBwMB
MAsGA1UdDwQEAwIFoDAZBgNVHREEEjAQgg50ZWFtMjU4LXNlcnZlcjANBgkqhkiG
9w0BAQsFAAOCAQEArF81sCnWI3SE/IKz/qwg41GQs15yrvPdfJhZkfxQ+D9ACAXH
VxbsClUe2bciC+gZpjtzylEucSAgInv6WVZjUh6p8TXm8q63ZiaeqmOOrUB83oBu
AdiEB38xvo6SiVHsVI43ruhev3To9UeUYA+FRZXDno44gLPx7qSpyoWjoiInclJV
hBNpO2RMYi731HlOWMdrvIqxQ7MOF6pQyJZmT4TicvQHRbpFBv93or8nGw8iNncA
getbcmJ2lYHDvtpDtd2Dp0v5hRtaccxz7k85H8GpYZ8nN8+Fo8oxXZIujOXSJWw0
IzqbUWKrIaw3lxKZ4oBCTQxktUuFFneKcApQJw==
-----END CERTIFICATE-----
