Certificate:
    Data:
        Version: 3 (0x2)
        Serial Number:
            34:78:01:3c:ea:82:a9:63:fe:21:27:66:5d:ea:60:6e
        Signature Algorithm: sha256WithRSAEncryption
        Issuer: CN=team346-net
        Validity
            Not Before: Nov  3 20:45:35 2023 GMT
            Not After : Oct 18 20:45:35 2026 GMT
        Subject: CN=team346-server
        Subject Public Key Info:
            Public Key Algorithm: rsaEncryption
                Public-Key: (2048 bit)
                Modulus:
                    00:ad:82:a8:7c:5f:e3:cd:69:44:1c:26:70:6b:31:
                    a8:7d:dd:f4:82:5a:53:31:e7:74:fd:24:4b:82:96:
                    8a:e3:c3:13:43:91:52:b9:27:c3:0e:f3:39:3f:f8:
                    0c:0e:c6:d2:13:9e:16:38:ff:7f:c4:f7:a7:ea:98:
                    69:23:73:7b:3f:e3:3d:38:7a:f7:a4:81:2b:be:a3:
                    15:16:ce:50:0b:b1:e5:d1:0f:6f:3a:da:72:70:68:
                    96:0f:2d:97:45:0f:c7:28:42:a2:74:dc:fa:aa:c8:
                    96:44:14:40:2b:ef:f1:0f:43:f0:06:05:db:23:c8:
                    f8:e1:9c:93:e2:12:2c:23:b0:9e:f3:25:bd:5d:c5:
                    f5:b5:d3:05:54:95:0c:a2:4a:29:b9:db:f6:3d:59:
                    46:10:77:22:1a:60:40:3d:5f:47:88:67:8e:a4:36:
                    dd:6e:44:e2:1b:96:75:ab:6f:d8:ca:bf:49:d1:d7:
                    06:17:d5:94:c5:3b:e9:7b:eb:50:1e:10:ad:4c:3f:
                    28:78:ac:c1:24:25:c4:2c:9a:65:7d:5e:25:cd:69:
                    ad:bb:54:ac:22:0b:c6:dd:6d:f3:46:00:e7:0f:b2:
                    b3:aa:51:40:2b:9e:38:1f:9e:bb:d7:c8:66:50:77:
                    88:7f:01:c4:1a:9c:c1:3d:81:6e:f6:a9:7b:43:e0:
                    32:01
                Exponent: 65537 (0x10001)
        X509v3 extensions:
            X509v3 Basic Constraints: 
                CA:FALSE
            X509v3 Subject Key Identifier: 
                29:85:9D:FF:FA:43:8E:29:D7:62:8E:31:C4:0B:58:B2:FD:17:8B:60
            X509v3 Authority Key Identifier: 
                keyid:A2:BF:EF:9D:57:6E:A3:7E:66:F6:0F:D9:50:17:07:0C:D7:BF:6E:A6
                DirName:/CN=team346-net
                serial:65:4D:31:AD:17:1B:92:00:01:B2:57:09:DD:AF:E6:F3:FE:03:24:D0
            X509v3 Extended Key Usage: 
                TLS Web Server Authentication
            X509v3 Key Usage: 
                Digital Signature, Key Encipherment
            X509v3 Subject Alternative Name: 
                DNS:team346-server
    Signature Algorithm: sha256WithRSAEncryption
    Signature Value:
        18:c8:3e:3d:f3:4f:5e:50:6d:b4:93:bb:ec:03:cc:cc:b8:51:
        6b:b4:02:c4:96:c8:4f:ba:4f:8b:6c:33:ef:41:2d:f1:cc:86:
        18:94:43:41:44:17:a7:a2:02:82:18:9a:00:95:a3:9d:75:fd:
        c8:90:53:2f:5c:22:3f:a8:0b:ca:4d:8c:9e:45:8d:f5:2f:4a:
        26:7b:51:ae:03:10:2c:e0:aa:b5:69:20:7f:26:35:f1:f4:f7:
        43:2a:b3:71:57:f9:9c:af:1e:fa:b5:86:6c:92:59:54:c0:89:
        11:f5:2b:f0:d6:f5:b9:ce:9b:e3:c1:b7:eb:e1:2f:6e:1d:f2:
        01:b7:7c:fd:09:e1:76:1e:da:f7:96:4b:b3:1a:ec:af:53:06:
        15:b8:64:4a:8a:5c:d8:2f:c1:58:12:f0:31:e7:f8:2a:ac:3b:
        6f:9e:e0:5f:22:2c:78:2a:c5:44:97:56:98:e9:f7:fe:a9:ac:
        76:38:4f:00:aa:d9:af:79:ba:c2:08:dd:69:5f:49:23:52:de:
        9b:98:36:bc:fc:70:82:78:ca:19:42:3a:e0:23:c2:21:73:cc:
        5b:fa:cc:e7:00:7f:86:1a:72:7d:b9:00:ff:d9:2c:15:30:b5:
        e9:b0:76:f2:a1:4d:08:33:71:b8:f1:6d:cb:dd:ee:6b:5e:53:
        b9:8c:26:aa
-----BEGIN CERTIFICATE-----
MIIDdzCCAl+gAwIBAgIQNHgBPOqCqWP+ISdmXepgbjANBgkqhkiG9w0BAQsFADAW
MRQwEgYDVQQDDAt0ZWFtMzQ2LW5ldDAeFw0yMzExMDMyMDQ1MzVaFw0yNjEwMTgy
MDQ1MzVaMBkxFzAVBgNVBAMMDnRlYW0zNDYtc2VydmVyMIIBIjANBgkqhkiG9w0B
AQEFAAOCAQ8AMIIBCgKCAQEArYKofF/jzWlEHCZwazGofd30glpTMed0/SRLgpaK
48MTQ5FSuSfDDvM5P/gMDsbSE54WOP9/xPen6phpI3N7P+M9OHr3pIErvqMVFs5Q
C7Hl0Q9vOtpycGiWDy2XRQ/HKEKidNz6qsiWRBRAK+/xD0PwBgXbI8j44ZyT4hIs
I7Ce8yW9XcX1tdMFVJUMokopudv2PVlGEHciGmBAPV9HiGeOpDbdbkTiG5Z1q2/Y
yr9J0dcGF9WUxTvpe+tQHhCtTD8oeKzBJCXELJplfV4lzWmtu1SsIgvG3W3zRgDn
D7KzqlFAK544H56718hmUHeIfwHEGpzBPYFu9ql7Q+AyAQIDAQABo4G9MIG6MAkG
A1UdEwQCMAAwHQYDVR0OBBYEFCmFnf/6Q44p12KOMcQLWLL9F4tgMFEGA1UdIwRK
MEiAFKK/751XbqN+ZvYP2VAXBwzXv26moRqkGDAWMRQwEgYDVQQDDAt0ZWFtMzQ2
LW5ldIIUZU0xrRcbkgABslcJ3a/m8/4DJNAwEwYDVR0lBAwwCgYIKwYBBQUHAwEw
CwYDVR0PBAQDAgWgMBkGA1UdEQQSMBCCDnRlYW0zNDYtc2VydmVyMA0GCSqGSIb3
DQEBCwUAA4IBAQAYyD49809eUG20k7vsA8zMuFFrtALElshPuk+LbDPvQS3xzIYY
lENBRBenogKCGJoAlaOddf3IkFMvXCI/qAvKTYyeRY31L0ome1GuAxAs4Kq1aSB/
JjXx9PdDKrNxV/mcrx76tYZskllUwIkR9Svw1vW5zpvjwbfr4S9uHfIBt3z9CeF2
Htr3lkuzGuyvUwYVuGRKilzYL8FYEvAx5/gqrDtvnuBfIix4KsVEl1aY6ff+qax2
OE8AqtmvebrCCN1pX0kjUt6bmDa8/HCCeMoZQjrgI8Ihc8xb+sznAH+GGnJ9uQD/
2SwVMLXpsHbyoU0IM3G48W3L3e5rXlO5jCaq
-----END CERTIFICATE-----
