Certificate:
    Data:
        Version: 3 (0x2)
        Serial Number:
            47:33:1b:e6:64:4a:a8:2c:a2:1f:c5:0c:f0:97:4d:f7
        Signature Algorithm: sha256WithRSAEncryption
        Issuer: CN=team346-net
        Validity
            Not Before: Nov  4 11:35:07 2023 GMT
            Not After : Oct 19 11:35:07 2026 GMT
        Subject: CN=team346-client
        Subject Public Key Info:
            Public Key Algorithm: rsaEncryption
                Public-Key: (2048 bit)
                Modulus:
                    00:9a:21:b3:51:71:72:c5:30:30:06:23:13:f7:fc:
                    18:30:64:16:03:05:52:67:54:2b:e8:f3:ec:b2:8c:
                    02:fd:37:d7:7a:db:0d:a9:ce:2d:bb:5c:94:3d:98:
                    68:17:85:b9:1e:aa:b8:b0:2d:d9:b3:50:7f:31:9d:
                    2a:98:87:a6:eb:26:65:63:ed:ac:87:ee:e1:77:a9:
                    75:b8:9f:27:a0:10:ca:16:59:5c:fd:fa:14:b4:64:
                    4e:59:05:dc:5b:35:19:4a:18:9c:ea:df:84:14:05:
                    59:52:5e:d2:81:14:0f:b9:a2:86:f4:db:d5:9c:3d:
                    99:7e:10:5a:82:44:77:97:eb:a1:c0:df:0d:3a:54:
                    a3:e5:2f:49:c4:7d:5b:ac:78:10:4e:e0:79:79:c6:
                    2a:a7:e5:05:c2:4f:e9:8f:12:7d:4e:94:a0:1d:cb:
                    49:01:6e:a4:b2:c5:12:07:a5:7c:a5:d2:90:81:fe:
                    ad:78:00:a5:f1:c6:fe:96:1c:88:2a:b6:58:75:f3:
                    c0:57:22:bd:d6:37:15:31:f9:b2:43:74:99:d0:3a:
                    b0:93:9a:bb:5d:d8:b1:84:ba:2d:ea:87:8b:53:1a:
                    e2:be:c5:4f:2d:e0:61:c8:58:4c:8b:18:0a:bd:e8:
                    63:e0:7d:1f:ea:11:e5:3c:07:73:4b:29:25:ed:45:
                    76:89
                Exponent: 65537 (0x10001)
        X509v3 extensions:
            X509v3 Basic Constraints: 
                CA:FALSE
            X509v3 Subject Key Identifier: 
                9F:33:E1:12:08:92:DC:56:01:3C:0A:2F:D5:51:1A:AB:2E:08:6F:E4
            X509v3 Authority Key Identifier: 
                keyid:2A:8D:4A:F1:F7:AD:64:2E:D6:D9:36:53:3F:74:5B:14:2E:A6:F4:A8
                DirName:/CN=team346-net
                serial:07:5F:55:00:9C:B9:BA:3C:0F:6B:8F:C3:48:AE:C5:8C:D8:E8:13:4D
            X509v3 Extended Key Usage: 
                TLS Web Client Authentication
            X509v3 Key Usage: 
                Digital Signature
    Signature Algorithm: sha256WithRSAEncryption
    Signature Value:
        a3:6b:cf:a6:8f:d5:98:1f:4f:6e:24:07:5e:3a:1b:0f:42:2b:
        bd:6b:d8:30:c3:67:74:c3:e1:90:56:21:10:e7:82:1f:65:24:
        81:41:63:c7:10:ff:68:c8:00:ea:25:72:b8:5d:57:e8:94:00:
        28:5d:ef:56:ba:70:8b:61:9b:ee:c9:74:e6:f2:1b:00:b5:56:
        69:67:cf:ec:a7:fe:bc:ab:f0:33:38:2d:91:59:40:b1:09:2c:
        f7:be:ea:4c:45:b5:6e:b2:c0:1b:ba:58:68:02:e4:61:bf:80:
        b2:69:90:f5:d3:29:f4:fd:f8:c1:fb:84:fc:67:c2:a8:65:e5:
        05:3c:08:8a:16:26:4e:ac:f2:39:3b:af:30:53:3d:07:22:18:
        a5:dd:e4:94:47:5f:4a:99:66:18:3c:2c:a1:db:d7:27:31:c1:
        7e:ed:07:2a:76:c7:61:0e:ab:44:40:3b:9d:d4:b3:e8:0b:69:
        cc:ef:52:1a:66:74:d0:1f:7e:33:59:10:6b:e1:36:f4:32:e9:
        99:f2:99:0d:8c:50:fb:1e:60:10:b5:f4:6a:e3:91:5f:d4:c5:
        8a:91:f9:77:43:64:7c:e2:77:22:80:4c:fb:35:1f:73:c8:ad:
        a7:90:90:29:ba:21:2b:68:4f:e5:86:7f:56:42:36:dc:5e:27:
        56:26:e5:c3
-----BEGIN CERTIFICATE-----
MIIDXDCCAkSgAwIBAgIQRzMb5mRKqCyiH8UM8JdN9zANBgkqhkiG9w0BAQsFADAW
MRQwEgYDVQQDDAt0ZWFtMzQ2LW5ldDAeFw0yMzExMDQxMTM1MDdaFw0yNjEwMTkx
MTM1MDdaMBkxFzAVBgNVBAMMDnRlYW0zNDYtY2xpZW50MIIBIjANBgkqhkiG9w0B
AQEFAAOCAQ8AMIIBCgKCAQEAmiGzUXFyxTAwBiMT9/wYMGQWAwVSZ1Qr6PPssowC
/TfXetsNqc4tu1yUPZhoF4W5Hqq4sC3Zs1B/MZ0qmIem6yZlY+2sh+7hd6l1uJ8n
oBDKFllc/foUtGROWQXcWzUZShic6t+EFAVZUl7SgRQPuaKG9NvVnD2ZfhBagkR3
l+uhwN8NOlSj5S9JxH1brHgQTuB5ecYqp+UFwk/pjxJ9TpSgHctJAW6kssUSB6V8
pdKQgf6teACl8cb+lhyIKrZYdfPAVyK91jcVMfmyQ3SZ0Dqwk5q7XdixhLot6oeL
UxrivsVPLeBhyFhMixgKvehj4H0f6hHlPAdzSykl7UV2iQIDAQABo4GiMIGfMAkG
A1UdEwQCMAAwHQYDVR0OBBYEFJ8z4RIIktxWATwKL9VRGqsuCG/kMFEGA1UdIwRK
MEiAFCqNSvH3rWQu1tk2Uz90WxQupvSooRqkGDAWMRQwEgYDVQQDDAt0ZWFtMzQ2
LW5ldIIUB19VAJy5ujwPa4/DSK7FjNjoE00wEwYDVR0lBAwwCgYIKwYBBQUHAwIw
CwYDVR0PBAQDAgeAMA0GCSqGSIb3DQEBCwUAA4IBAQCja8+mj9WYH09uJAdeOhsP
Qiu9a9gww2d0w+GQViEQ54IfZSSBQWPHEP9oyADqJXK4XVfolAAoXe9WunCLYZvu
yXTm8hsAtVZpZ8/sp/68q/AzOC2RWUCxCSz3vupMRbVussAbulhoAuRhv4CyaZD1
0yn0/fjB+4T8Z8KoZeUFPAiKFiZOrPI5O68wUz0HIhil3eSUR19KmWYYPCyh29cn
McF+7QcqdsdhDqtEQDud1LPoC2nM71IaZnTQH34zWRBr4Tb0MumZ8pkNjFD7HmAQ
tfRq45Ff1MWKkfl3Q2R84ncigEz7NR9zyK2nkJApuiEraE/lhn9WQjbcXidWJuXD
-----END CERTIFICATE-----
