Certificate:
    Data:
        Version: 3 (0x2)
        Serial Number:
            5b:37:15:99:24:b7:34:dc:17:21:47:ae:b6:2f:44:c3
        Signature Algorithm: sha256WithRSAEncryption
        Issuer: CN=team346-net
        Validity
            Not Before: Nov  4 11:35:07 2023 GMT
            Not After : Oct 19 11:35:07 2026 GMT
        Subject: CN=team346-server
        Subject Public Key Info:
            Public Key Algorithm: rsaEncryption
                Public-Key: (2048 bit)
                Modulus:
                    00:be:f0:e3:58:56:4f:c1:cb:37:3c:55:18:a1:a9:
                    e4:f4:71:f6:75:28:41:cb:c8:2a:17:e0:94:fa:e7:
                    88:3d:ae:c3:c3:92:bf:c1:d3:cc:c9:16:49:62:2b:
                    31:6e:d9:6f:8e:ad:72:6b:d0:ff:14:ca:26:32:be:
                    e5:e8:13:8c:00:fe:04:0b:4c:4b:27:8a:99:12:42:
                    79:bb:f8:b0:b9:3d:f8:48:c0:d5:cf:83:6e:09:6c:
                    fb:0a:c6:50:c3:7a:d0:b2:2e:ed:af:a2:86:94:05:
                    4b:d9:e1:03:27:d4:9a:4b:7b:19:6c:16:80:68:38:
                    1c:1a:ff:3e:6d:ae:b0:9f:71:cc:8a:05:b5:c8:a9:
                    69:24:d5:eb:7f:66:5a:02:b9:c1:a2:e2:4a:08:11:
                    7d:3f:06:e6:3b:44:e8:ab:e3:3d:b8:eb:fb:4a:4d:
                    2a:50:a3:8c:fc:1b:c7:b1:6f:79:c4:d6:64:f3:c5:
                    e2:6e:2c:2c:cd:70:3c:16:dd:58:81:e8:5d:7b:e7:
                    51:5c:65:e9:c4:56:ad:a9:06:bb:c3:3d:d7:74:5a:
                    d8:a0:af:de:c6:12:4a:87:35:2d:01:33:cb:3a:97:
                    13:fb:ec:07:f3:26:77:49:20:10:ea:c7:11:11:f0:
                    b2:27:ac:f5:4b:be:1d:80:cd:29:bf:77:cf:37:8f:
                    11:2b
                Exponent: 65537 (0x10001)
        X509v3 extensions:
            X509v3 Basic Constraints: 
                CA:FALSE
            X509v3 Subject Key Identifier: 
                31:0C:C1:23:1D:6D:44:BF:50:B7:F8:4A:69:76:95:6D:1D:A1:33:42
            X509v3 Authority Key Identifier: 
                keyid:2A:8D:4A:F1:F7:AD:64:2E:D6:D9:36:53:3F:74:5B:14:2E:A6:F4:A8
                DirName:/CN=team346-net
                serial:07:5F:55:00:9C:B9:BA:3C:0F:6B:8F:C3:48:AE:C5:8C:D8:E8:13:4D
            X509v3 Extended Key Usage: 
                TLS Web Server Authentication
            X509v3 Key Usage: 
                Digital Signature, Key Encipherment
            X509v3 Subject Alternative Name: 
                DNS:team346-server
    Signature Algorithm: sha256WithRSAEncryption
    Signature Value:
        7d:69:60:c2:df:13:3f:b5:b1:e8:e8:ed:f0:da:38:e3:9a:8f:
        b9:8c:2c:53:39:40:6b:c1:b3:76:3c:7e:57:ab:16:ee:dc:40:
        ca:03:1d:8d:5f:9a:05:d6:41:af:12:a2:37:b5:73:e0:07:af:
        24:53:79:49:47:bc:fd:bc:9d:4b:1c:07:86:0d:b9:67:21:68:
        47:eb:19:44:f1:62:59:73:c7:a9:e0:db:8d:87:62:b1:da:7c:
        6c:36:f4:e2:3f:ed:43:22:62:ed:05:8e:57:a9:0c:59:e6:df:
        02:55:a9:06:a6:46:aa:ad:39:fc:45:af:5c:01:a1:fe:0a:e7:
        fa:d6:d1:b9:0f:a1:19:7d:9b:c9:c4:49:d7:f8:1e:a7:61:11:
        24:df:c0:20:71:06:b5:92:b6:33:83:d0:19:b3:8e:ac:23:ad:
        70:9d:ec:9e:2b:ea:71:fd:37:25:85:1e:e4:cb:24:d3:11:54:
        b1:1b:fe:f0:77:e5:ba:94:45:49:23:70:77:3b:08:3b:cc:b1:
        ff:a5:42:ff:e2:33:32:9f:49:d4:28:fd:7c:b3:b1:60:fb:1a:
        26:f6:77:81:cf:ed:ba:37:80:5d:7f:81:75:60:3f:42:ce:7d:
        d0:6b:70:51:37:7a:8a:02:d1:5d:56:66:39:ed:5c:6b:a3:49:
        7e:6c:47:36
-----BEGIN CERTIFICATE-----
MIIDdzCCAl+gAwIBAgIQWzcVmSS3NNwXIUeuti9EwzANBgkqhkiG9w0BAQsFADAW
MRQwEgYDVQQDDAt0ZWFtMzQ2LW5ldDAeFw0yMzExMDQxMTM1MDdaFw0yNjEwMTkx
MTM1MDdaMBkxFzAVBgNVBAMMDnRlYW0zNDYtc2VydmVyMIIBIjANBgkqhkiG9w0B
AQEFAAOCAQ8AMIIBCgKCAQEAvvDjWFZPwcs3PFUYoank9HH2dShBy8gqF+CU+ueI
Pa7Dw5K/wdPMyRZJYisxbtlvjq1ya9D/FMomMr7l6BOMAP4EC0xLJ4qZEkJ5u/iw
uT34SMDVz4NuCWz7CsZQw3rQsi7tr6KGlAVL2eEDJ9SaS3sZbBaAaDgcGv8+ba6w
n3HMigW1yKlpJNXrf2ZaArnBouJKCBF9PwbmO0Toq+M9uOv7Sk0qUKOM/BvHsW95
xNZk88XibiwszXA8Ft1Ygehde+dRXGXpxFatqQa7wz3XdFrYoK/exhJKhzUtATPL
OpcT++wH8yZ3SSAQ6scREfCyJ6z1S74dgM0pv3fPN48RKwIDAQABo4G9MIG6MAkG
A1UdEwQCMAAwHQYDVR0OBBYEFDEMwSMdbUS/ULf4Sml2lW0doTNCMFEGA1UdIwRK
MEiAFCqNSvH3rWQu1tk2Uz90WxQupvSooRqkGDAWMRQwEgYDVQQDDAt0ZWFtMzQ2
LW5ldIIUB19VAJy5ujwPa4/DSK7FjNjoE00wEwYDVR0lBAwwCgYIKwYBBQUHAwEw
CwYDVR0PBAQDAgWgMBkGA1UdEQQSMBCCDnRlYW0zNDYtc2VydmVyMA0GCSqGSIb3
DQEBCwUAA4IBAQB9aWDC3xM/tbHo6O3w2jjjmo+5jCxTOUBrwbN2PH5Xqxbu3EDK
Ax2NX5oF1kGvEqI3tXPgB68kU3lJR7z9vJ1LHAeGDblnIWhH6xlE8WJZc8ep4NuN
h2Kx2nxsNvTiP+1DImLtBY5XqQxZ5t8CVakGpkaqrTn8Ra9cAaH+Cuf61tG5D6EZ
fZvJxEnX+B6nYREk38AgcQa1krYzg9AZs46sI61wneyeK+px/TclhR7kyyTTEVSx
G/7wd+W6lEVJI3B3Owg7zLH/pUL/4jMyn0nUKP18s7Fg+xom9neBz+26N4Bdf4F1
YD9Czn3Qa3BRN3qKAtFdVmY57Vxro0l+bEc2
-----END CERTIFICATE-----
