Certificate:
    Data:
        Version: 3 (0x2)
        Serial Number:
            5c:3d:f3:a2:d7:38:11:a9:7c:02:90:06:a4:bc:06:5b
        Signature Algorithm: sha256WithRSAEncryption
        Issuer: CN=team346-net
        Validity
            Not Before: Nov  4 10:46:56 2023 GMT
            Not After : Oct 19 10:46:56 2026 GMT
        Subject: CN=team346-server
        Subject Public Key Info:
            Public Key Algorithm: rsaEncryption
                Public-Key: (2048 bit)
                Modulus:
                    00:9e:03:a1:2b:e6:ad:55:d3:2b:49:05:a0:f9:cf:
                    e9:b5:5f:6d:f8:53:3c:77:b3:57:17:60:38:26:33:
                    c0:2f:f3:8c:eb:32:94:2d:bc:b6:0f:0a:f0:04:9c:
                    f8:73:07:59:11:50:a9:56:5e:6a:8f:8d:3b:dc:bf:
                    10:53:6a:f8:bf:78:6f:14:66:8b:2f:bb:1e:ff:9b:
                    4d:c9:4c:c8:48:16:b3:f3:52:68:13:7f:4d:ad:ec:
                    32:eb:f3:b4:12:67:7e:d3:20:dd:bd:c5:22:13:88:
                    8b:3a:85:f8:d4:98:a9:cd:9a:11:db:b7:36:ae:06:
                    b1:d4:db:06:64:86:8c:23:48:25:e5:0a:bd:c3:2f:
                    58:59:0b:88:bf:01:88:c4:91:65:d7:50:2c:1f:8d:
                    2f:bc:93:22:44:7f:01:19:6c:cc:2b:55:5f:05:68:
                    7f:65:33:80:77:77:aa:1f:ae:58:df:b3:cb:54:21:
                    8b:7c:78:0b:63:8b:09:1a:07:e0:29:f7:e4:d6:65:
                    38:60:fa:7e:8e:50:04:77:a8:e1:d5:78:c6:85:a8:
                    44:32:6b:1e:d3:ca:d7:8a:6f:81:62:10:fd:a0:c4:
                    a0:fc:60:15:3c:37:94:e1:a5:d0:5b:2a:0a:e7:ff:
                    bf:94:03:8e:92:20:32:66:3f:7e:fd:9b:6d:c6:f0:
                    63:e5
                Exponent: 65537 (0x10001)
        X509v3 extensions:
            X509v3 Basic Constraints: 
                CA:FALSE
            X509v3 Subject Key Identifier: 
                AC:D9:F3:5C:10:31:38:B8:1F:54:94:9B:6F:43:39:D4:AC:89:FD:A7
            X509v3 Authority Key Identifier: 
                keyid:09:65:3C:B4:BE:0F:DB:47:FD:7B:82:D7:C2:24:23:09:5E:7B:FE:D4
                DirName:/CN=team346-net
                serial:58:98:2F:B7:88:A3:65:D5:DA:01:52:D9:FB:39:F4:DD:C1:E1:6B:2A
            X509v3 Extended Key Usage: 
                TLS Web Server Authentication
            X509v3 Key Usage: 
                Digital Signature, Key Encipherment
            X509v3 Subject Alternative Name: 
                DNS:team346-server
    Signature Algorithm: sha256WithRSAEncryption
    Signature Value:
        74:7f:94:f8:9a:06:c6:8e:31:66:95:cd:05:51:11:b3:24:98:
        1f:3f:96:5a:f7:52:91:01:ff:bf:50:ae:ce:f3:a9:11:de:0e:
        07:bd:dd:aa:85:18:a9:37:85:6a:3f:07:64:f6:44:13:37:38:
        79:ec:7e:d1:a5:16:52:4d:56:f8:3e:fb:93:3f:cb:eb:b0:98:
        1a:6a:12:a3:50:28:9f:ee:30:d6:b7:e6:aa:fa:45:b5:aa:16:
        b5:9a:7e:4e:99:1d:d3:2e:c3:a5:7f:d4:f8:44:c2:29:fc:74:
        03:fe:d5:ad:d3:a1:87:11:99:8e:7c:f0:8d:c5:68:d9:75:1e:
        0e:83:d9:9a:be:75:72:a1:74:21:ef:c3:41:bc:1a:02:12:06:
        4d:f3:ae:cc:14:83:a1:56:fc:49:bc:b9:e8:b2:bf:81:26:fd:
        bc:ab:aa:f0:ae:a8:75:c3:3b:d9:57:c1:6b:ae:0e:3a:07:d1:
        e8:3c:a8:be:fe:ce:b5:63:ca:64:d4:01:4a:c0:43:0f:7f:7a:
        40:af:91:15:1a:74:ef:4e:21:2c:de:fa:88:03:3e:78:71:27:
        d7:30:25:41:dc:b0:4f:72:57:ab:88:e6:f2:9d:f7:28:1c:4a:
        2e:e0:02:ea:b0:d2:80:3a:00:e1:7d:c4:5a:a4:30:d1:96:05:
        41:ab:06:1c
-----BEGIN CERTIFICATE-----
MIIDdzCCAl+gAwIBAgIQXD3zotc4Eal8ApAGpLwGWzANBgkqhkiG9w0BAQsFADAW
MRQwEgYDVQQDDAt0ZWFtMzQ2LW5ldDAeFw0yMzExMDQxMDQ2NTZaFw0yNjEwMTkx
MDQ2NTZaMBkxFzAVBgNVBAMMDnRlYW0zNDYtc2VydmVyMIIBIjANBgkqhkiG9w0B
AQEFAAOCAQ8AMIIBCgKCAQEAngOhK+atVdMrSQWg+c/ptV9t+FM8d7NXF2A4JjPA
L/OM6zKULby2DwrwBJz4cwdZEVCpVl5qj4073L8QU2r4v3hvFGaLL7se/5tNyUzI
SBaz81JoE39Nrewy6/O0Emd+0yDdvcUiE4iLOoX41JipzZoR27c2rgax1NsGZIaM
I0gl5Qq9wy9YWQuIvwGIxJFl11AsH40vvJMiRH8BGWzMK1VfBWh/ZTOAd3eqH65Y
37PLVCGLfHgLY4sJGgfgKffk1mU4YPp+jlAEd6jh1XjGhahEMmse08rXim+BYhD9
oMSg/GAVPDeU4aXQWyoK5/+/lAOOkiAyZj9+/ZttxvBj5QIDAQABo4G9MIG6MAkG
A1UdEwQCMAAwHQYDVR0OBBYEFKzZ81wQMTi4H1SUm29DOdSsif2nMFEGA1UdIwRK
MEiAFAllPLS+D9tH/XuC18IkIwlee/7UoRqkGDAWMRQwEgYDVQQDDAt0ZWFtMzQ2
LW5ldIIUWJgvt4ijZdXaAVLZ+zn03cHhayowEwYDVR0lBAwwCgYIKwYBBQUHAwEw
CwYDVR0PBAQDAgWgMBkGA1UdEQQSMBCCDnRlYW0zNDYtc2VydmVyMA0GCSqGSIb3
DQEBCwUAA4IBAQB0f5T4mgbGjjFmlc0FURGzJJgfP5Za91KRAf+/UK7O86kR3g4H
vd2qhRipN4VqPwdk9kQTNzh57H7RpRZSTVb4PvuTP8vrsJgaahKjUCif7jDWt+aq
+kW1qha1mn5OmR3TLsOlf9T4RMIp/HQD/tWt06GHEZmOfPCNxWjZdR4Og9mavnVy
oXQh78NBvBoCEgZN867MFIOhVvxJvLnosr+BJv28q6rwrqh1wzvZV8Frrg46B9Ho
PKi+/s61Y8pk1AFKwEMPf3pAr5EVGnTvTiEs3vqIAz54cSfXMCVB3LBPcleriOby
nfcoHEou4ALqsNKAOgDhfcRapDDRlgVBqwYc
-----END CERTIFICATE-----
