Certificate:
    Data:
        Version: 3 (0x2)
        Serial Number:
            09:c7:8d:26:a0:ca:00:2e:1f:a0:09:2d:c9:26:27:23
        Signature Algorithm: sha256WithRSAEncryption
        Issuer: CN=team340-net
        Validity
            Not Before: Nov  4 10:46:50 2023 GMT
            Not After : Oct 19 10:46:50 2026 GMT
        Subject: CN=team340-server
        Subject Public Key Info:
            Public Key Algorithm: rsaEncryption
                Public-Key: (2048 bit)
                Modulus:
                    00:9b:55:7b:2e:d9:7e:dd:f2:3c:67:b9:b8:56:2c:
                    87:d8:08:d7:dd:56:7f:47:90:02:e1:bd:61:81:00:
                    a1:b2:91:0e:df:c1:f0:be:77:85:20:03:6d:17:a8:
                    cc:7f:33:20:d0:05:fe:ba:bc:a1:bb:6f:e4:99:40:
                    88:02:95:28:c1:46:e0:fa:26:a9:84:fd:ed:5c:08:
                    1e:ea:5b:47:88:b3:97:eb:fb:75:9c:c9:e8:e9:39:
                    22:b5:12:fe:c8:28:ed:00:f0:d3:b1:fd:58:0b:25:
                    14:13:35:70:83:2a:7f:f9:fb:64:8a:d8:de:80:59:
                    e3:9f:bd:2e:9c:1c:e8:19:5c:34:ed:c2:d3:dd:0a:
                    8e:bd:d0:b5:d8:b9:fd:02:ff:cb:95:bd:5f:de:b0:
                    00:aa:ab:44:26:0e:a6:38:b9:6a:35:41:04:02:58:
                    58:ac:d9:3d:f2:c5:89:bd:cb:15:16:ba:de:c8:87:
                    fe:12:fb:1d:c5:d8:43:cd:76:e4:de:4c:1f:64:2e:
                    be:67:a2:67:d2:d4:27:b1:16:30:e9:8b:f7:33:28:
                    38:4e:b0:16:c6:b3:db:5f:f4:bc:ab:6b:13:82:a9:
                    77:f8:dd:87:e0:75:3d:eb:8e:35:50:db:db:7f:18:
                    9b:a8:85:89:b0:28:50:e1:56:32:57:50:71:36:26:
                    90:13
                Exponent: 65537 (0x10001)
        X509v3 extensions:
            X509v3 Basic Constraints: 
                CA:FALSE
            X509v3 Subject Key Identifier: 
                6E:89:54:91:25:8D:0E:9E:BB:AF:9E:8B:D9:94:33:C0:FD:46:CE:17
            X509v3 Authority Key Identifier: 
                keyid:23:8E:C7:E2:D7:06:7B:28:ED:50:B2:70:3F:90:45:56:9B:7F:49:C8
                DirName:/CN=team340-net
                serial:25:F3:17:7A:BD:10:3D:2F:6C:27:F8:BF:88:FF:59:6E:67:58:A7:B0
            X509v3 Extended Key Usage: 
                TLS Web Server Authentication
            X509v3 Key Usage: 
                Digital Signature, Key Encipherment
            X509v3 Subject Alternative Name: 
                DNS:team340-server
    Signature Algorithm: sha256WithRSAEncryption
    Signature Value:
        c0:bc:e5:55:fc:86:ac:b2:7f:5e:f4:c6:4e:8f:23:99:2a:26:
        00:db:f8:aa:6a:d6:f9:f0:8a:36:87:e1:fb:61:1c:cf:e8:b7:
        c1:fb:aa:b1:56:4f:68:15:1b:90:5b:3c:19:46:7b:3f:5f:65:
        2b:5d:00:ce:81:15:7c:27:28:1c:91:62:b9:10:c0:96:bb:50:
        b0:69:9a:c3:0a:00:29:79:d5:63:8e:d3:6d:f8:88:8c:89:f1:
        5c:99:c9:a4:93:a1:f4:7a:66:ff:9c:19:46:a7:94:31:e1:d4:
        23:b0:13:e9:c2:58:5c:af:27:51:f0:2e:f8:38:a0:b5:6b:2d:
        e6:46:cb:fb:03:6c:5c:87:29:64:20:28:7d:1f:e1:91:f1:0a:
        d3:ab:78:af:3b:29:36:fc:f1:3e:7b:18:dc:12:db:75:7a:b2:
        71:65:2b:dd:5b:5f:e8:5d:65:e0:ff:2d:4b:1b:8a:89:95:cc:
        8d:ff:68:47:45:26:56:2f:4f:2c:0a:8a:bd:27:6d:01:7d:c9:
        7a:dd:97:de:a5:de:5b:72:e1:30:cf:3e:f7:5d:51:09:cc:42:
        82:fd:aa:da:11:84:ba:ae:e6:bb:3e:11:1c:fc:40:f6:6a:be:
        cc:66:45:e4:94:4a:1b:1a:35:cd:8c:78:4b:65:54:b1:1e:fb:
        51:0c:de:9b
-----BEGIN CERTIFICATE-----
MIIDdzCCAl+gAwIBAgIQCceNJqDKAC4foAktySYnIzANBgkqhkiG9w0BAQsFADAW
MRQwEgYDVQQDDAt0ZWFtMzQwLW5ldDAeFw0yMzExMDQxMDQ2NTBaFw0yNjEwMTkx
MDQ2NTBaMBkxFzAVBgNVBAMMDnRlYW0zNDAtc2VydmVyMIIBIjANBgkqhkiG9w0B
AQEFAAOCAQ8AMIIBCgKCAQEAm1V7Ltl+3fI8Z7m4ViyH2AjX3VZ/R5AC4b1hgQCh
spEO38HwvneFIANtF6jMfzMg0AX+uryhu2/kmUCIApUowUbg+iaphP3tXAge6ltH
iLOX6/t1nMno6TkitRL+yCjtAPDTsf1YCyUUEzVwgyp/+ftkitjegFnjn70unBzo
GVw07cLT3QqOvdC12Ln9Av/Llb1f3rAAqqtEJg6mOLlqNUEEAlhYrNk98sWJvcsV
FrreyIf+EvsdxdhDzXbk3kwfZC6+Z6Jn0tQnsRYw6Yv3Myg4TrAWxrPbX/S8q2sT
gql3+N2H4HU96441UNvbfxibqIWJsChQ4VYyV1BxNiaQEwIDAQABo4G9MIG6MAkG
A1UdEwQCMAAwHQYDVR0OBBYEFG6JVJEljQ6eu6+ei9mUM8D9Rs4XMFEGA1UdIwRK
MEiAFCOOx+LXBnso7VCycD+QRVabf0nIoRqkGDAWMRQwEgYDVQQDDAt0ZWFtMzQw
LW5ldIIUJfMXer0QPS9sJ/i/iP9ZbmdYp7AwEwYDVR0lBAwwCgYIKwYBBQUHAwEw
CwYDVR0PBAQDAgWgMBkGA1UdEQQSMBCCDnRlYW0zNDAtc2VydmVyMA0GCSqGSIb3
DQEBCwUAA4IBAQDAvOVV/Iassn9e9MZOjyOZKiYA2/iqatb58Io2h+H7YRzP6LfB
+6qxVk9oFRuQWzwZRns/X2UrXQDOgRV8JygckWK5EMCWu1CwaZrDCgApedVjjtNt
+IiMifFcmcmkk6H0emb/nBlGp5Qx4dQjsBPpwlhcrydR8C74OKC1ay3mRsv7A2xc
hylkICh9H+GR8QrTq3ivOyk2/PE+exjcEtt1erJxZSvdW1/oXWXg/y1LG4qJlcyN
/2hHRSZWL08sCoq9J20Bfcl63Zfepd5bcuEwzz73XVEJzEKC/araEYS6rua7PhEc
/ED2ar7MZkXklEobGjXNjHhLZVSxHvtRDN6b
-----END CERTIFICATE-----
