Certificate:
    Data:
        Version: 3 (0x2)
        Serial Number:
            27:6e:c7:10:58:04:4a:de:30:45:e6:16:d0:74:43:22
        Signature Algorithm: sha256WithRSAEncryption
        Issuer: CN=team340-net
        Validity
            Not Before: Nov  4 10:46:50 2023 GMT
            Not After : Oct 19 10:46:50 2026 GMT
        Subject: CN=team340-client
        Subject Public Key Info:
            Public Key Algorithm: rsaEncryption
                Public-Key: (2048 bit)
                Modulus:
                    00:d9:39:07:b3:61:f3:7e:6e:76:8c:c1:32:56:60:
                    ee:27:99:64:1b:32:3d:6a:34:20:d4:16:3a:ee:84:
                    02:fa:49:96:53:e8:4b:df:db:77:67:20:ab:6c:f7:
                    66:28:f5:37:7d:40:3b:25:21:58:ad:04:99:59:bc:
                    be:5e:55:22:53:c7:81:1f:c8:a7:7a:c7:e3:5d:0f:
                    c7:78:68:60:d0:c4:2b:fe:39:1a:82:fe:a6:80:74:
                    35:6f:c6:6d:5c:5a:8b:df:1c:e6:12:76:45:f1:6e:
                    66:a2:60:b2:10:f7:fd:d1:1c:24:f3:a6:bb:21:9d:
                    33:67:0e:0d:59:0a:a7:03:58:c6:0e:6c:79:83:41:
                    4c:1c:b5:db:ad:e9:b4:90:05:ea:99:c8:b8:3e:82:
                    95:80:d3:30:c7:af:50:83:fc:bd:6d:57:53:af:29:
                    0b:ef:af:bd:9d:df:62:14:f6:0d:ea:86:ee:5d:18:
                    fa:0f:78:77:78:1c:b8:07:9c:50:cf:9b:62:a5:92:
                    84:f9:53:b5:91:61:df:70:57:04:21:05:95:2a:e9:
                    f2:47:dd:d9:9b:93:f8:7e:6c:41:57:ec:3f:3e:29:
                    2d:4a:71:b9:76:05:73:7c:9e:8d:a2:e9:9b:5f:29:
                    d1:0a:28:6b:db:65:fc:28:84:a7:56:b5:9e:c2:71:
                    a0:73
                Exponent: 65537 (0x10001)
        X509v3 extensions:
            X509v3 Basic Constraints: 
                CA:FALSE
            X509v3 Subject Key Identifier: 
                AD:9A:DC:12:83:18:37:2F:9E:89:7C:D0:79:7A:5F:F9:22:85:60:1D
            X509v3 Authority Key Identifier: 
                keyid:23:8E:C7:E2:D7:06:7B:28:ED:50:B2:70:3F:90:45:56:9B:7F:49:C8
                DirName:/CN=team340-net
                serial:25:F3:17:7A:BD:10:3D:2F:6C:27:F8:BF:88:FF:59:6E:67:58:A7:B0
            X509v3 Extended Key Usage: 
                TLS Web Client Authentication
            X509v3 Key Usage: 
                Digital Signature
    Signature Algorithm: sha256WithRSAEncryption
    Signature Value:
        41:da:dd:ea:d1:e9:35:32:42:5f:4f:c8:3d:2d:0b:de:74:34:
        0d:3a:1f:f5:ea:6e:bc:14:a4:be:06:e0:7a:1f:68:58:69:5c:
        a7:4c:5a:a6:1c:32:44:3d:85:b1:65:17:6c:ed:97:55:e9:1d:
        2e:74:72:b8:db:d4:e2:26:5e:f8:ed:3d:50:92:6a:9e:ff:d6:
        92:b9:eb:58:36:70:57:4d:2d:b9:4c:c4:6c:bb:00:bd:1d:88:
        e0:aa:4e:44:ea:20:e0:18:42:b7:22:ce:30:73:3f:28:d9:98:
        8e:34:3b:ab:8d:c4:bb:d1:0c:0c:e6:e6:ef:1a:6d:f0:30:f8:
        ec:50:09:7a:da:09:d2:71:f1:d9:5f:60:19:8b:0d:4d:ec:33:
        b8:b4:d7:53:3a:ee:0a:00:c7:f2:00:de:7d:c1:72:e5:a4:65:
        6d:58:6a:ed:c3:91:f6:4c:94:45:11:0e:b9:78:38:54:5d:af:
        20:a7:64:10:b4:f8:88:5f:64:85:df:7a:37:4e:be:32:57:be:
        af:77:c2:c5:31:fc:79:d4:6c:51:98:c5:e0:f6:b6:1d:68:f4:
        22:07:10:49:c5:05:6f:6c:9b:4c:c9:ff:a1:19:c2:5a:7f:32:
        f6:e3:fd:ac:01:4f:5e:24:1a:19:99:fd:43:7e:60:43:a4:52:
        41:77:3f:29
-----BEGIN CERTIFICATE-----
MIIDXDCCAkSgAwIBAgIQJ27HEFgESt4wReYW0HRDIjANBgkqhkiG9w0BAQsFADAW
MRQwEgYDVQQDDAt0ZWFtMzQwLW5ldDAeFw0yMzExMDQxMDQ2NTBaFw0yNjEwMTkx
MDQ2NTBaMBkxFzAVBgNVBAMMDnRlYW0zNDAtY2xpZW50MIIBIjANBgkqhkiG9w0B
AQEFAAOCAQ8AMIIBCgKCAQEA2TkHs2Hzfm52jMEyVmDuJ5lkGzI9ajQg1BY67oQC
+kmWU+hL39t3ZyCrbPdmKPU3fUA7JSFYrQSZWby+XlUiU8eBH8inesfjXQ/HeGhg
0MQr/jkagv6mgHQ1b8ZtXFqL3xzmEnZF8W5momCyEPf90Rwk86a7IZ0zZw4NWQqn
A1jGDmx5g0FMHLXbrem0kAXqmci4PoKVgNMwx69Qg/y9bVdTrykL76+9nd9iFPYN
6obuXRj6D3h3eBy4B5xQz5tipZKE+VO1kWHfcFcEIQWVKunyR93Zm5P4fmxBV+w/
PiktSnG5dgVzfJ6NoumbXynRCihr22X8KISnVrWewnGgcwIDAQABo4GiMIGfMAkG
A1UdEwQCMAAwHQYDVR0OBBYEFK2a3BKDGDcvnol80Hl6X/kihWAdMFEGA1UdIwRK
MEiAFCOOx+LXBnso7VCycD+QRVabf0nIoRqkGDAWMRQwEgYDVQQDDAt0ZWFtMzQw
LW5ldIIUJfMXer0QPS9sJ/i/iP9ZbmdYp7AwEwYDVR0lBAwwCgYIKwYBBQUHAwIw
CwYDVR0PBAQDAgeAMA0GCSqGSIb3DQEBCwUAA4IBAQBB2t3q0ek1MkJfT8g9LQve
dDQNOh/16m68FKS+BuB6H2hYaVynTFqmHDJEPYWxZRds7ZdV6R0udHK429TiJl74
7T1Qkmqe/9aSuetYNnBXTS25TMRsuwC9HYjgqk5E6iDgGEK3Is4wcz8o2ZiONDur
jcS70QwM5ubvGm3wMPjsUAl62gnScfHZX2AZiw1N7DO4tNdTOu4KAMfyAN59wXLl
pGVtWGrtw5H2TJRFEQ65eDhUXa8gp2QQtPiIX2SF33o3Tr4yV76vd8LFMfx51GxR
mMXg9rYdaPQiBxBJxQVvbJtMyf+hGcJafzL24/2sAU9eJBoZmf1DfmBDpFJBdz8p
-----END CERTIFICATE-----
