Certificate:
    Data:
        Version: 3 (0x2)
        Serial Number:
            28:d0:12:8e:53:46:6f:f7:cc:db:79:28:81:35:66:07
        Signature Algorithm: sha256WithRSAEncryption
        Issuer: CN=team340-net
        Validity
            Not Before: Nov  4 11:34:58 2023 GMT
            Not After : Oct 19 11:34:58 2026 GMT
        Subject: CN=team340-client
        Subject Public Key Info:
            Public Key Algorithm: rsaEncryption
                Public-Key: (2048 bit)
                Modulus:
                    00:fb:cb:d0:b7:9d:40:96:98:b3:23:88:77:0a:ea:
                    cb:4e:ea:85:54:f0:f7:30:83:0f:c3:f0:ce:d7:9b:
                    9b:f5:41:32:0b:55:68:fd:fb:3f:b8:1a:99:03:d2:
                    e5:0b:66:aa:77:46:72:0d:ad:bd:f4:06:c1:b8:84:
                    a0:13:60:ab:6c:e9:d7:4b:2d:5a:99:d4:f1:eb:85:
                    91:f2:b3:f4:6a:51:96:7f:34:6e:36:d8:47:1c:23:
                    f0:10:fb:17:cb:2f:43:42:3c:92:d2:87:56:da:d9:
                    99:b4:ab:52:d4:d2:52:69:8c:b8:ae:85:92:7b:0e:
                    cb:c4:97:c9:c8:85:d6:8a:d3:23:d4:4e:46:e3:26:
                    25:0c:a5:c7:08:64:3e:91:02:6d:18:03:5a:bd:24:
                    8f:53:4b:90:fb:51:5f:ea:d3:cf:01:dc:bd:5e:b6:
                    48:a1:7b:58:a8:45:29:5f:32:3a:4c:95:5d:ed:7d:
                    0c:c7:a3:0d:66:37:1c:d1:9b:c9:8c:95:07:9b:74:
                    58:51:4e:57:3c:a6:32:90:4f:06:0d:ec:fd:25:86:
                    5f:17:bb:b4:1c:26:9c:ec:58:5d:cc:d3:21:cc:e0:
                    74:c5:e9:a8:e6:c5:df:36:b2:61:bb:a3:4c:ff:52:
                    ca:03:f0:1b:9e:a2:50:52:36:1b:dc:bc:7c:18:ef:
                    5c:81
                Exponent: 65537 (0x10001)
        X509v3 extensions:
            X509v3 Basic Constraints: 
                CA:FALSE
            X509v3 Subject Key Identifier: 
                3F:30:15:F5:12:92:53:11:11:BE:8F:8C:E2:8A:E9:88:BE:8C:2D:34
            X509v3 Authority Key Identifier: 
                keyid:A1:11:AC:0C:9D:E0:22:7A:10:40:E6:38:6D:C2:42:7E:25:27:C5:23
                DirName:/CN=team340-net
                serial:0E:79:4E:C7:FA:99:3C:A6:78:19:B1:69:65:06:E6:9A:CF:F6:21:B3
            X509v3 Extended Key Usage: 
                TLS Web Client Authentication
            X509v3 Key Usage: 
                Digital Signature
    Signature Algorithm: sha256WithRSAEncryption
    Signature Value:
        51:12:87:51:fd:39:45:60:85:06:d4:73:4f:4a:63:99:d7:c4:
        07:48:37:b9:77:ea:e4:32:43:74:cb:b1:de:e3:c7:2e:6e:04:
        93:2c:be:01:85:48:d5:a2:f0:07:1c:23:90:3c:6e:86:90:f9:
        49:68:a8:36:d8:a9:a0:cb:ee:be:c4:3e:ed:c0:e2:1d:d1:e6:
        3c:03:09:29:f6:ca:64:b4:b9:e0:53:f3:59:60:2c:d6:49:c7:
        9f:e1:6e:93:bb:2e:7f:04:03:6e:c1:92:49:5b:3c:33:6e:97:
        71:7d:a3:f6:83:f8:b7:4b:98:89:ff:d6:13:84:0b:90:6a:d7:
        99:e3:ab:e2:e8:9c:4b:88:21:a0:f9:fa:b5:6c:73:81:4b:b2:
        d2:43:f2:ce:75:f9:61:66:c6:b4:ec:b6:71:9f:90:33:ed:50:
        be:ca:be:7f:61:ff:ba:7c:0d:62:d9:83:67:1c:62:39:c7:50:
        8b:c8:5a:4f:b3:e0:69:d8:3a:ed:a7:a2:7c:cf:11:a9:0f:69:
        c2:d8:17:80:be:32:93:45:90:4b:8f:ee:83:0d:35:5e:c4:f3:
        ba:a0:74:39:0d:56:d2:40:cb:52:a3:06:80:a8:62:68:30:54:
        27:27:78:62:1f:17:23:6b:5e:78:55:6f:0b:88:f2:22:9b:bf:
        80:7f:a2:64
-----BEGIN CERTIFICATE-----
MIIDXDCCAkSgAwIBAgIQKNASjlNGb/fM23kogTVmBzANBgkqhkiG9w0BAQsFADAW
MRQwEgYDVQQDDAt0ZWFtMzQwLW5ldDAeFw0yMzExMDQxMTM0NThaFw0yNjEwMTkx
MTM0NThaMBkxFzAVBgNVBAMMDnRlYW0zNDAtY2xpZW50MIIBIjANBgkqhkiG9w0B
AQEFAAOCAQ8AMIIBCgKCAQEA+8vQt51AlpizI4h3CurLTuqFVPD3MIMPw/DO15ub
9UEyC1Vo/fs/uBqZA9LlC2aqd0ZyDa299AbBuISgE2CrbOnXSy1amdTx64WR8rP0
alGWfzRuNthHHCPwEPsXyy9DQjyS0odW2tmZtKtS1NJSaYy4roWSew7LxJfJyIXW
itMj1E5G4yYlDKXHCGQ+kQJtGANavSSPU0uQ+1Ff6tPPAdy9XrZIoXtYqEUpXzI6
TJVd7X0Mx6MNZjcc0ZvJjJUHm3RYUU5XPKYykE8GDez9JYZfF7u0HCac7FhdzNMh
zOB0xemo5sXfNrJhu6NM/1LKA/AbnqJQUjYb3Lx8GO9cgQIDAQABo4GiMIGfMAkG
A1UdEwQCMAAwHQYDVR0OBBYEFD8wFfUSklMREb6PjOKK6Yi+jC00MFEGA1UdIwRK
MEiAFKERrAyd4CJ6EEDmOG3CQn4lJ8UjoRqkGDAWMRQwEgYDVQQDDAt0ZWFtMzQw
LW5ldIIUDnlOx/qZPKZ4GbFpZQbmms/2IbMwEwYDVR0lBAwwCgYIKwYBBQUHAwIw
CwYDVR0PBAQDAgeAMA0GCSqGSIb3DQEBCwUAA4IBAQBREodR/TlFYIUG1HNPSmOZ
18QHSDe5d+rkMkN0y7He48cubgSTLL4BhUjVovAHHCOQPG6GkPlJaKg22Kmgy+6+
xD7twOId0eY8Awkp9spktLngU/NZYCzWScef4W6Tuy5/BANuwZJJWzwzbpdxfaP2
g/i3S5iJ/9YThAuQateZ46vi6JxLiCGg+fq1bHOBS7LSQ/LOdflhZsa07LZxn5Az
7VC+yr5/Yf+6fA1i2YNnHGI5x1CLyFpPs+Bp2Drtp6J8zxGpD2nC2BeAvjKTRZBL
j+6DDTVexPO6oHQ5DVbSQMtSowaAqGJoMFQnJ3hiHxcja154VW8LiPIim7+Af6Jk
-----END CERTIFICATE-----
