Certificate:
    Data:
        Version: 3 (0x2)
        Serial Number:
            83:8e:28:b7:75:1e:84:a3:1b:0b:14:48:67:42:2f:a4
        Signature Algorithm: sha256WithRSAEncryption
        Issuer: CN=team340-net
        Validity
            Not Before: Nov  4 11:34:58 2023 GMT
            Not After : Oct 19 11:34:58 2026 GMT
        Subject: CN=team340-server
        Subject Public Key Info:
            Public Key Algorithm: rsaEncryption
                Public-Key: (2048 bit)
                Modulus:
                    00:ba:ce:af:60:dd:b7:0a:7e:b9:c7:e9:23:d3:e4:
                    d4:9c:50:a5:bc:8f:41:77:55:ed:d4:af:1a:d6:26:
                    3f:39:ae:04:ff:a3:f7:6f:a3:96:83:6c:b6:3f:ff:
                    3a:7e:ba:2d:a9:af:02:5b:66:4e:4f:a1:a0:7c:a3:
                    69:9f:8c:1e:47:7b:20:76:23:f0:e8:96:29:7c:1a:
                    70:77:ed:b4:61:0f:78:8f:3d:de:78:1e:48:53:85:
                    44:4e:c0:5b:5c:36:92:94:67:b2:b5:b7:a5:70:3c:
                    98:80:28:59:8b:a2:af:d0:9f:b5:87:7f:1c:bc:c4:
                    d7:41:39:3b:9a:c8:8e:99:c2:4b:ea:eb:66:98:23:
                    78:9a:4f:c7:dd:ee:62:89:a0:2a:75:20:ac:b5:10:
                    d2:ef:4b:58:03:7f:8e:e3:bf:28:87:2c:d7:85:72:
                    89:39:8c:f0:8e:14:d8:e4:27:28:e3:25:89:ae:61:
                    40:92:30:e2:56:51:83:17:b4:bf:71:fb:99:44:71:
                    b6:3d:4b:a5:8b:48:72:af:91:64:28:2e:b3:9a:d8:
                    8e:10:0b:35:99:b6:58:2c:24:f3:6d:91:66:7d:db:
                    49:e8:81:21:2b:0d:27:0d:9c:41:a3:eb:fc:3a:fc:
                    a5:a4:7b:c0:da:ec:fa:cb:6e:7f:b8:2f:4f:21:cc:
                    ac:81
                Exponent: 65537 (0x10001)
        X509v3 extensions:
            X509v3 Basic Constraints: 
                CA:FALSE
            X509v3 Subject Key Identifier: 
                43:32:8C:57:28:E0:5C:05:C0:D4:62:35:C1:63:9F:A4:11:78:76:E9
            X509v3 Authority Key Identifier: 
                keyid:A1:11:AC:0C:9D:E0:22:7A:10:40:E6:38:6D:C2:42:7E:25:27:C5:23
                DirName:/CN=team340-net
                serial:0E:79:4E:C7:FA:99:3C:A6:78:19:B1:69:65:06:E6:9A:CF:F6:21:B3
            X509v3 Extended Key Usage: 
                TLS Web Server Authentication
            X509v3 Key Usage: 
                Digital Signature, Key Encipherment
            X509v3 Subject Alternative Name: 
                DNS:team340-server
    Signature Algorithm: sha256WithRSAEncryption
    Signature Value:
        31:59:8d:d4:dc:17:59:2b:31:f5:53:5a:b6:fa:2c:7d:33:07:
        dc:fb:e5:f0:9b:f7:31:e7:81:f2:81:a2:ff:3f:17:f8:1b:71:
        c6:5e:6b:4a:c4:51:30:8b:5f:f8:5c:66:65:0b:db:39:32:53:
        36:38:05:42:65:f5:c9:b5:28:ef:4a:85:1c:2e:3c:0e:bc:f6:
        fd:7f:fd:8e:73:ea:5d:b0:75:ce:fe:ad:fb:f9:1f:c0:a0:1d:
        50:20:2d:ad:46:f9:43:18:9b:c4:4e:6f:05:f8:64:7b:42:af:
        5f:ac:69:06:f5:c5:f5:d9:ab:c0:7e:10:85:ec:fc:05:17:f7:
        55:33:c3:0c:fc:fb:df:ee:9c:f3:33:ea:b5:cb:14:5a:75:f9:
        3f:be:2c:a1:67:1b:15:1c:c0:8a:63:a1:f8:ad:28:b9:1b:49:
        f6:e2:57:1b:52:fe:39:71:0b:4c:24:d1:1a:9c:d2:0e:17:9c:
        4b:1c:3c:62:38:6f:60:97:f3:1e:bb:75:20:82:fb:1c:e7:5d:
        f1:f3:2a:69:24:19:9c:ba:e9:93:d9:2b:3f:54:77:e8:ca:03:
        d2:1a:ec:b8:47:62:a7:aa:92:cc:0c:a6:73:32:80:7f:88:21:
        8f:43:3a:0c:4e:78:fd:a3:00:d4:95:64:3d:3d:ee:5b:a2:b9:
        24:f9:46:1d
-----BEGIN CERTIFICATE-----
MIIDeDCCAmCgAwIBAgIRAIOOKLd1HoSjGwsUSGdCL6QwDQYJKoZIhvcNAQELBQAw
FjEUMBIGA1UEAwwLdGVhbTM0MC1uZXQwHhcNMjMxMTA0MTEzNDU4WhcNMjYxMDE5
MTEzNDU4WjAZMRcwFQYDVQQDDA50ZWFtMzQwLXNlcnZlcjCCASIwDQYJKoZIhvcN
AQEBBQADggEPADCCAQoCggEBALrOr2Ddtwp+ucfpI9Pk1JxQpbyPQXdV7dSvGtYm
PzmuBP+j92+jloNstj//On66LamvAltmTk+hoHyjaZ+MHkd7IHYj8OiWKXwacHft
tGEPeI893ngeSFOFRE7AW1w2kpRnsrW3pXA8mIAoWYuir9CftYd/HLzE10E5O5rI
jpnCS+rrZpgjeJpPx93uYomgKnUgrLUQ0u9LWAN/juO/KIcs14VyiTmM8I4U2OQn
KOMlia5hQJIw4lZRgxe0v3H7mURxtj1LpYtIcq+RZCgus5rYjhALNZm2WCwk822R
Zn3bSeiBISsNJw2cQaPr/Dr8paR7wNrs+stuf7gvTyHMrIECAwEAAaOBvTCBujAJ
BgNVHRMEAjAAMB0GA1UdDgQWBBRDMoxXKOBcBcDUYjXBY5+kEXh26TBRBgNVHSME
SjBIgBShEawMneAiehBA5jhtwkJ+JSfFI6EapBgwFjEUMBIGA1UEAwwLdGVhbTM0
MC1uZXSCFA55Tsf6mTymeBmxaWUG5prP9iGzMBMGA1UdJQQMMAoGCCsGAQUFBwMB
MAsGA1UdDwQEAwIFoDAZBgNVHREEEjAQgg50ZWFtMzQwLXNlcnZlcjANBgkqhkiG
9w0BAQsFAAOCAQEAMVmN1NwXWSsx9VNatvosfTMH3Pvl8Jv3MeeB8oGi/z8X+Btx
xl5rSsRRMItf+FxmZQvbOTJTNjgFQmX1ybUo70qFHC48Drz2/X/9jnPqXbB1zv6t
+/kfwKAdUCAtrUb5QxibxE5vBfhke0KvX6xpBvXF9dmrwH4Qhez8BRf3VTPDDPz7
3+6c8zPqtcsUWnX5P74soWcbFRzAimOh+K0ouRtJ9uJXG1L+OXELTCTRGpzSDhec
Sxw8YjhvYJfzHrt1IIL7HOdd8fMqaSQZnLrpk9krP1R36MoD0hrsuEdip6qSzAym
czKAf4ghj0M6DE54/aMA1JVkPT3uW6K5JPlGHQ==
-----END CERTIFICATE-----
