Certificate:
    Data:
        Version: 3 (0x2)
        Serial Number:
            66:07:1c:0d:9d:5b:fd:1e:29:59:17:fa:2e:98:49:81
        Signature Algorithm: sha256WithRSAEncryption
        Issuer: CN=team197-net
        Validity
            Not Before: Nov  4 10:44:14 2023 GMT
            Not After : Oct 19 10:44:14 2026 GMT
        Subject: CN=team197-client
        Subject Public Key Info:
            Public Key Algorithm: rsaEncryption
                Public-Key: (2048 bit)
                Modulus:
                    00:a7:4b:f9:e4:21:c7:bd:4b:6d:90:a6:6d:62:d8:
                    19:c4:ac:79:a9:ce:ce:06:20:bf:af:8a:67:5c:47:
                    49:af:4b:4f:1f:41:b0:39:91:e4:f0:20:c9:8b:f9:
                    2b:72:01:75:54:2a:dc:d9:cf:3d:15:bb:2b:e7:69:
                    91:87:c5:65:59:6d:35:c7:f0:11:56:b2:de:78:67:
                    7e:ba:3e:c6:0b:74:67:a4:12:ff:1d:bc:3f:08:17:
                    db:48:5b:db:15:e0:ab:63:8b:e0:65:30:00:d2:54:
                    14:6e:fa:57:fc:32:9a:96:ed:98:9f:20:b2:21:81:
                    a8:f4:21:df:c2:03:7b:6b:21:ab:12:c4:36:db:4c:
                    6b:55:39:da:bc:06:ad:92:f3:ae:9e:d3:53:35:70:
                    4e:fd:cf:c3:e8:07:70:a1:d4:a7:34:f3:d6:6d:13:
                    81:83:73:3b:08:4e:fd:ef:de:79:05:2a:95:9b:83:
                    1f:3f:36:b2:e5:9e:6a:bd:9d:9f:02:1d:f9:50:f9:
                    6b:53:df:b2:1e:96:89:6f:da:35:63:73:40:cf:88:
                    52:1e:89:8d:5c:a5:20:b4:68:93:74:4e:cb:7b:d1:
                    2e:47:25:1e:95:c4:4a:44:4b:d1:32:75:20:ab:c3:
                    37:ca:3b:0d:6f:f5:ec:49:bf:8d:9b:43:d8:74:4d:
                    84:41
                Exponent: 65537 (0x10001)
        X509v3 extensions:
            X509v3 Basic Constraints: 
                CA:FALSE
            X509v3 Subject Key Identifier: 
                60:9F:32:F9:C5:BA:E6:75:05:6F:BC:6A:49:1B:20:E5:F3:1C:D8:C3
            X509v3 Authority Key Identifier: 
                keyid:6D:FA:E8:61:87:6C:AF:24:94:06:40:F3:78:0B:37:1B:47:4A:F4:D2
                DirName:/CN=team197-net
                serial:69:39:EF:1F:70:74:A2:50:9F:09:75:DA:6B:8A:FA:D3:79:18:FA:DD
            X509v3 Extended Key Usage: 
                TLS Web Client Authentication
            X509v3 Key Usage: 
                Digital Signature
    Signature Algorithm: sha256WithRSAEncryption
    Signature Value:
        8b:f0:12:50:f3:6f:a7:3e:28:e7:cf:29:80:67:56:e7:ed:83:
        83:b0:88:82:22:56:19:a6:ff:9e:fa:d4:b6:8f:0a:24:9d:a8:
        f3:1f:b6:be:61:d3:4e:db:03:b2:a0:40:97:85:f8:fc:e1:56:
        59:00:cb:a8:ad:7b:96:02:a6:5b:ac:a9:57:f6:64:89:d7:ff:
        0b:c1:7a:d9:47:e4:29:d5:9a:9e:f7:87:05:c7:36:b7:7c:91:
        82:eb:65:9e:b8:fa:1b:55:62:63:e4:ed:55:5d:f8:a1:b1:fb:
        06:3f:0e:0b:eb:77:b7:9e:1b:e5:72:d0:c0:5b:78:97:90:e2:
        cb:1c:54:89:66:51:96:d5:0f:ba:e2:08:63:78:6c:8d:49:2a:
        18:86:af:ca:b9:e6:9e:81:0a:c1:b6:f5:1e:e6:07:8d:88:7a:
        06:0a:85:01:dd:1c:d5:7d:10:68:a2:87:6d:0b:e2:15:ac:1a:
        25:7d:69:0b:64:13:fd:a8:44:1b:fb:fe:af:e3:b8:6b:64:89:
        2e:9b:25:41:94:bd:81:8b:74:3d:90:d5:9d:76:9c:a8:cd:fd:
        3e:1f:2a:b7:bd:a1:b3:5f:dc:72:f0:8b:04:aa:d2:3d:aa:6c:
        70:cb:af:dc:86:14:ea:84:48:4a:2d:d4:d1:4e:a2:94:80:ca:
        ab:4a:56:b6
-----BEGIN CERTIFICATE-----
MIIDXDCCAkSgAwIBAgIQZgccDZ1b/R4pWRf6LphJgTANBgkqhkiG9w0BAQsFADAW
MRQwEgYDVQQDDAt0ZWFtMTk3LW5ldDAeFw0yMzExMDQxMDQ0MTRaFw0yNjEwMTkx
MDQ0MTRaMBkxFzAVBgNVBAMMDnRlYW0xOTctY2xpZW50MIIBIjANBgkqhkiG9w0B
AQEFAAOCAQ8AMIIBCgKCAQEAp0v55CHHvUttkKZtYtgZxKx5qc7OBiC/r4pnXEdJ
r0tPH0GwOZHk8CDJi/krcgF1VCrc2c89Fbsr52mRh8VlWW01x/ARVrLeeGd+uj7G
C3RnpBL/Hbw/CBfbSFvbFeCrY4vgZTAA0lQUbvpX/DKalu2YnyCyIYGo9CHfwgN7
ayGrEsQ220xrVTnavAatkvOuntNTNXBO/c/D6AdwodSnNPPWbROBg3M7CE797955
BSqVm4MfPzay5Z5qvZ2fAh35UPlrU9+yHpaJb9o1Y3NAz4hSHomNXKUgtGiTdE7L
e9EuRyUelcRKREvRMnUgq8M3yjsNb/XsSb+Nm0PYdE2EQQIDAQABo4GiMIGfMAkG
A1UdEwQCMAAwHQYDVR0OBBYEFGCfMvnFuuZ1BW+8akkbIOXzHNjDMFEGA1UdIwRK
MEiAFG366GGHbK8klAZA83gLNxtHSvTSoRqkGDAWMRQwEgYDVQQDDAt0ZWFtMTk3
LW5ldIIUaTnvH3B0olCfCXXaa4r603kY+t0wEwYDVR0lBAwwCgYIKwYBBQUHAwIw
CwYDVR0PBAQDAgeAMA0GCSqGSIb3DQEBCwUAA4IBAQCL8BJQ82+nPijnzymAZ1bn
7YODsIiCIlYZpv+e+tS2jwoknajzH7a+YdNO2wOyoECXhfj84VZZAMuorXuWAqZb
rKlX9mSJ1/8LwXrZR+Qp1Zqe94cFxza3fJGC62WeuPobVWJj5O1VXfihsfsGPw4L
63e3nhvlctDAW3iXkOLLHFSJZlGW1Q+64ghjeGyNSSoYhq/KueaegQrBtvUe5geN
iHoGCoUB3RzVfRBooodtC+IVrBolfWkLZBP9qEQb+/6v47hrZIkumyVBlL2Bi3Q9
kNWddpyozf0+Hyq3vaGzX9xy8IsEqtI9qmxwy6/chhTqhEhKLdTRTqKUgMqrSla2
-----END CERTIFICATE-----
