Certificate:
    Data:
        Version: 3 (0x2)
        Serial Number:
            7d:71:63:0a:71:9d:01:b0:89:b8:e1:90:7c:bd:23:b7
        Signature Algorithm: sha256WithRSAEncryption
        Issuer: CN=team197-net
        Validity
            Not Before: Nov  4 11:31:31 2023 GMT
            Not After : Oct 19 11:31:31 2026 GMT
        Subject: CN=team197-client
        Subject Public Key Info:
            Public Key Algorithm: rsaEncryption
                Public-Key: (2048 bit)
                Modulus:
                    00:95:53:14:79:db:b0:26:da:5b:53:db:c3:93:b1:
                    c2:71:27:69:b2:8a:bc:74:f0:95:c8:10:f7:12:6d:
                    ac:66:01:df:b7:c1:fb:ef:c3:ea:e7:72:ed:1d:be:
                    e1:92:db:41:2a:ea:1f:88:24:47:8e:f2:72:8a:f6:
                    95:df:3a:37:66:9e:5c:27:56:18:7d:47:97:4f:02:
                    6a:dd:3e:f6:eb:7f:b6:fa:d5:22:8e:00:02:da:5b:
                    9b:cd:70:1a:79:f8:31:f8:99:7a:d2:73:89:88:a0:
                    92:0f:3c:5d:e7:59:be:2a:60:50:89:cc:51:2e:13:
                    f7:f0:f6:4e:44:c4:a3:22:92:a6:13:62:11:fb:4f:
                    4b:41:21:6f:4c:53:45:d0:ab:ac:74:7e:c7:f2:71:
                    29:85:c2:d5:f7:62:1f:8c:59:dc:85:7a:82:66:22:
                    7e:c6:60:d8:f5:33:c8:e7:67:8e:58:75:5b:30:85:
                    09:e2:66:13:ed:39:27:69:c1:f7:18:80:f9:e0:6e:
                    89:7f:dc:cb:6c:c4:53:57:23:b9:00:31:c9:5e:0a:
                    ec:58:27:1c:dd:51:4a:e4:96:77:7c:dd:e6:35:93:
                    f7:52:bf:62:4c:d4:92:76:1a:88:36:09:15:a4:73:
                    b2:8c:7b:48:db:fb:8c:76:66:52:40:70:3b:5d:28:
                    83:31
                Exponent: 65537 (0x10001)
        X509v3 extensions:
            X509v3 Basic Constraints: 
                CA:FALSE
            X509v3 Subject Key Identifier: 
                9E:53:24:C5:63:AB:79:EF:82:04:2C:D1:BC:58:DA:E3:A2:BC:F3:16
            X509v3 Authority Key Identifier: 
                keyid:6D:73:F5:94:35:C8:8C:E3:C6:45:08:81:4E:53:C2:D0:44:E5:C5:FF
                DirName:/CN=team197-net
                serial:61:B3:01:C4:14:BC:A7:B5:0A:B5:A2:82:0C:8F:9C:18:A2:1E:EE:90
            X509v3 Extended Key Usage: 
                TLS Web Client Authentication
            X509v3 Key Usage: 
                Digital Signature
    Signature Algorithm: sha256WithRSAEncryption
    Signature Value:
        7c:12:47:f5:a5:a8:bb:0c:a0:6c:3a:3a:25:ae:91:e7:22:31:
        6c:63:c9:71:13:1d:81:1e:da:39:b1:bd:86:fa:f0:c5:9d:0d:
        b0:0a:12:ee:f7:c6:38:82:a9:2c:99:3e:16:05:45:ae:e7:92:
        8d:5a:bd:4a:ed:76:4e:3d:6d:8f:f9:44:2d:e7:a2:3a:a0:17:
        4c:dd:2c:d7:7d:fe:36:a7:a7:09:c2:bc:2e:45:b3:c2:3e:c2:
        9c:aa:5b:29:84:d3:d8:25:09:8d:dc:7c:be:18:4e:19:29:ec:
        d2:04:17:f8:17:92:3d:62:df:84:0b:9a:65:08:c1:fc:d3:b1:
        8d:81:7f:85:7e:cb:f1:b4:91:18:f0:97:31:15:72:ee:6c:30:
        95:1e:d4:3c:90:a1:a6:37:a5:dc:a4:80:b4:51:b9:ae:d2:a7:
        11:07:7d:89:db:8e:ec:10:96:ce:62:70:d3:3f:aa:d6:2e:28:
        21:3c:c8:45:2b:8e:71:65:62:4a:14:a0:71:92:12:1b:75:d4:
        7a:a2:99:5f:c0:ae:79:81:a9:cd:be:b1:cd:56:ae:c0:8a:54:
        99:1a:2e:c3:66:ee:d3:b2:54:fb:78:85:db:43:46:c6:db:c8:
        66:e9:bd:07:c2:61:b8:ff:c5:e9:0c:0a:46:f7:c0:09:37:58:
        b8:a6:84:eb
-----BEGIN CERTIFICATE-----
MIIDXDCCAkSgAwIBAgIQfXFjCnGdAbCJuOGQfL0jtzANBgkqhkiG9w0BAQsFADAW
MRQwEgYDVQQDDAt0ZWFtMTk3LW5ldDAeFw0yMzExMDQxMTMxMzFaFw0yNjEwMTkx
MTMxMzFaMBkxFzAVBgNVBAMMDnRlYW0xOTctY2xpZW50MIIBIjANBgkqhkiG9w0B
AQEFAAOCAQ8AMIIBCgKCAQEAlVMUeduwJtpbU9vDk7HCcSdpsoq8dPCVyBD3Em2s
ZgHft8H778Pq53LtHb7hkttBKuofiCRHjvJyivaV3zo3Zp5cJ1YYfUeXTwJq3T72
63+2+tUijgAC2lubzXAaefgx+Jl60nOJiKCSDzxd51m+KmBQicxRLhP38PZORMSj
IpKmE2IR+09LQSFvTFNF0KusdH7H8nEphcLV92IfjFnchXqCZiJ+xmDY9TPI52eO
WHVbMIUJ4mYT7TknacH3GID54G6Jf9zLbMRTVyO5ADHJXgrsWCcc3VFK5JZ3fN3m
NZP3Ur9iTNSSdhqINgkVpHOyjHtI2/uMdmZSQHA7XSiDMQIDAQABo4GiMIGfMAkG
A1UdEwQCMAAwHQYDVR0OBBYEFJ5TJMVjq3nvggQs0bxY2uOivPMWMFEGA1UdIwRK
MEiAFG1z9ZQ1yIzjxkUIgU5TwtBE5cX/oRqkGDAWMRQwEgYDVQQDDAt0ZWFtMTk3
LW5ldIIUYbMBxBS8p7UKtaKCDI+cGKIe7pAwEwYDVR0lBAwwCgYIKwYBBQUHAwIw
CwYDVR0PBAQDAgeAMA0GCSqGSIb3DQEBCwUAA4IBAQB8Ekf1pai7DKBsOjolrpHn
IjFsY8lxEx2BHto5sb2G+vDFnQ2wChLu98Y4gqksmT4WBUWu55KNWr1K7XZOPW2P
+UQt56I6oBdM3SzXff42p6cJwrwuRbPCPsKcqlsphNPYJQmN3Hy+GE4ZKezSBBf4
F5I9Yt+EC5plCMH807GNgX+FfsvxtJEY8JcxFXLubDCVHtQ8kKGmN6XcpIC0Ubmu
0qcRB32J247sEJbOYnDTP6rWLighPMhFK45xZWJKFKBxkhIbddR6oplfwK55ganN
vrHNVq7AilSZGi7DZu7TslT7eIXbQ0bG28hm6b0HwmG4/8XpDApG98AJN1i4poTr
-----END CERTIFICATE-----
