Certificate:
    Data:
        Version: 3 (0x2)
        Serial Number:
            a4:76:8a:0d:fe:69:b3:b0:69:c6:a8:83:9d:72:80:a3
        Signature Algorithm: sha256WithRSAEncryption
        Issuer: CN=team197-net
        Validity
            Not Before: Nov  4 11:31:31 2023 GMT
            Not After : Oct 19 11:31:31 2026 GMT
        Subject: CN=team197-server
        Subject Public Key Info:
            Public Key Algorithm: rsaEncryption
                Public-Key: (2048 bit)
                Modulus:
                    00:b3:c3:8a:d9:3b:2c:63:cd:88:29:d8:0b:e0:fc:
                    d0:6d:8f:1e:83:06:1e:46:7a:24:06:8f:19:76:9d:
                    20:06:9e:81:96:e8:a6:b6:df:f6:90:84:5e:35:f3:
                    27:d2:ac:2f:7f:4e:01:64:99:d0:ee:a5:c0:fd:94:
                    a1:a6:a7:0e:2b:49:cb:d8:87:a1:37:76:ae:00:ab:
                    e1:76:9a:25:ad:7a:6e:37:d3:b7:8a:eb:67:d8:ed:
                    43:18:5e:b0:53:e9:8f:98:d4:8f:8c:f8:0a:6c:d5:
                    cf:a6:97:7d:8a:3c:c2:03:53:09:85:ff:9e:03:45:
                    55:7c:4d:c4:f7:06:6b:d8:3e:18:70:36:4d:cb:a4:
                    6b:30:a7:b9:24:d0:8d:65:50:26:d0:eb:9f:ee:38:
                    d4:93:23:59:c1:f1:60:db:b9:a3:d8:cd:95:bb:c7:
                    a6:92:8b:dc:8c:d3:55:01:98:c7:35:04:5a:7c:25:
                    09:9b:af:75:77:79:c5:2a:24:9e:0a:4d:21:ee:3b:
                    68:b1:d0:b0:48:df:97:86:7b:3b:2b:53:88:0c:09:
                    d4:aa:20:41:c1:70:bc:ba:47:06:2c:f7:c6:04:57:
                    e5:50:70:34:d6:0b:6c:c0:42:9d:d2:d2:89:cc:2d:
                    b2:a5:27:fa:f8:02:49:05:52:f6:b2:d1:fd:7c:0d:
                    5d:33
                Exponent: 65537 (0x10001)
        X509v3 extensions:
            X509v3 Basic Constraints: 
                CA:FALSE
            X509v3 Subject Key Identifier: 
                03:EB:A9:77:5A:73:D9:33:16:E2:D3:0D:BF:90:C0:15:29:64:3A:98
            X509v3 Authority Key Identifier: 
                keyid:6D:73:F5:94:35:C8:8C:E3:C6:45:08:81:4E:53:C2:D0:44:E5:C5:FF
                DirName:/CN=team197-net
                serial:61:B3:01:C4:14:BC:A7:B5:0A:B5:A2:82:0C:8F:9C:18:A2:1E:EE:90
            X509v3 Extended Key Usage: 
                TLS Web Server Authentication
            X509v3 Key Usage: 
                Digital Signature, Key Encipherment
            X509v3 Subject Alternative Name: 
                DNS:team197-server
    Signature Algorithm: sha256WithRSAEncryption
    Signature Value:
        1a:2b:80:fe:42:de:45:b3:50:63:6b:94:d9:d2:b5:16:0d:e2:
        e5:1d:15:d5:c5:38:ae:6d:5b:eb:2a:88:6b:20:8f:87:e0:96:
        88:48:f3:ac:a8:59:42:be:53:03:20:47:db:b6:fa:7f:54:f6:
        1d:7d:97:60:2f:58:b9:54:ce:af:98:cb:2f:6f:b1:7c:09:22:
        d6:17:d9:0f:e6:03:3f:20:aa:c9:be:a5:04:2e:36:12:fd:93:
        e7:43:0e:57:b7:65:f9:e8:60:06:ff:b2:b8:ea:04:65:50:73:
        fd:38:7f:be:9d:e1:83:7a:7e:05:40:8c:97:4b:6a:54:58:a3:
        75:34:cc:79:c6:c7:28:b2:03:a1:0c:37:23:13:d6:b1:be:79:
        22:79:e2:1f:09:e7:43:fb:07:6f:65:67:9f:23:42:b3:e6:65:
        4e:62:00:21:fb:b7:3c:fd:cf:b9:bc:6a:bb:54:07:0d:85:d0:
        fb:40:30:0b:11:a4:e2:cb:ea:82:08:50:31:29:ad:5a:ab:21:
        af:2c:b9:0b:58:6b:eb:4e:84:21:69:d4:1c:62:c2:48:9d:e8:
        dc:e3:61:ed:1d:01:dc:4e:b6:74:53:1c:8e:82:83:d7:f1:54:
        89:35:ab:9f:b5:ed:de:a2:79:31:6c:d1:52:1f:8e:6b:b4:be:
        e8:db:8c:16
-----BEGIN CERTIFICATE-----
MIIDeDCCAmCgAwIBAgIRAKR2ig3+abOwacaog51ygKMwDQYJKoZIhvcNAQELBQAw
FjEUMBIGA1UEAwwLdGVhbTE5Ny1uZXQwHhcNMjMxMTA0MTEzMTMxWhcNMjYxMDE5
MTEzMTMxWjAZMRcwFQYDVQQDDA50ZWFtMTk3LXNlcnZlcjCCASIwDQYJKoZIhvcN
AQEBBQADggEPADCCAQoCggEBALPDitk7LGPNiCnYC+D80G2PHoMGHkZ6JAaPGXad
IAaegZboprbf9pCEXjXzJ9KsL39OAWSZ0O6lwP2UoaanDitJy9iHoTd2rgCr4Xaa
Ja16bjfTt4rrZ9jtQxhesFPpj5jUj4z4CmzVz6aXfYo8wgNTCYX/ngNFVXxNxPcG
a9g+GHA2TcukazCnuSTQjWVQJtDrn+441JMjWcHxYNu5o9jNlbvHppKL3IzTVQGY
xzUEWnwlCZuvdXd5xSokngpNIe47aLHQsEjfl4Z7OytTiAwJ1KogQcFwvLpHBiz3
xgRX5VBwNNYLbMBCndLSicwtsqUn+vgCSQVS9rLR/XwNXTMCAwEAAaOBvTCBujAJ
BgNVHRMEAjAAMB0GA1UdDgQWBBQD66l3WnPZMxbi0w2/kMAVKWQ6mDBRBgNVHSME
SjBIgBRtc/WUNciM48ZFCIFOU8LQROXF/6EapBgwFjEUMBIGA1UEAwwLdGVhbTE5
Ny1uZXSCFGGzAcQUvKe1CrWiggyPnBiiHu6QMBMGA1UdJQQMMAoGCCsGAQUFBwMB
MAsGA1UdDwQEAwIFoDAZBgNVHREEEjAQgg50ZWFtMTk3LXNlcnZlcjANBgkqhkiG
9w0BAQsFAAOCAQEAGiuA/kLeRbNQY2uU2dK1Fg3i5R0V1cU4rm1b6yqIayCPh+CW
iEjzrKhZQr5TAyBH27b6f1T2HX2XYC9YuVTOr5jLL2+xfAki1hfZD+YDPyCqyb6l
BC42Ev2T50MOV7dl+ehgBv+yuOoEZVBz/Th/vp3hg3p+BUCMl0tqVFijdTTMecbH
KLIDoQw3IxPWsb55InniHwnnQ/sHb2VnnyNCs+ZlTmIAIfu3PP3Pubxqu1QHDYXQ
+0AwCxGk4svqgghQMSmtWqshryy5C1hr606EIWnUHGLCSJ3o3ONh7R0B3E62dFMc
joKD1/FUiTWrn7Xt3qJ5MWzRUh+Oa7S+6NuMFg==
-----END CERTIFICATE-----
