Certificate:
    Data:
        Version: 3 (0x2)
        Serial Number:
            23:72:10:da:0c:93:2b:4b:6f:f5:d7:fe:cd:ca:12:92
        Signature Algorithm: sha256WithRSAEncryption
        Issuer: CN=team466-net
        Validity
            Not Before: Nov  4 10:48:53 2023 GMT
            Not After : Oct 19 10:48:53 2026 GMT
        Subject: CN=team466-client
        Subject Public Key Info:
            Public Key Algorithm: rsaEncryption
                Public-Key: (2048 bit)
                Modulus:
                    00:b8:0d:b5:22:a7:65:10:e8:46:f7:a0:de:ce:fe:
                    42:28:da:0d:56:16:be:3d:a7:e9:37:2e:95:75:f2:
                    79:ed:0b:2d:d1:8f:72:d9:88:a2:52:c7:41:a0:c6:
                    d2:52:48:f1:87:60:1d:9a:61:17:99:52:5c:12:81:
                    ac:68:ba:dc:fa:86:42:3e:4e:23:ad:80:9c:95:f6:
                    60:0c:6a:00:a4:70:f7:b5:48:cf:bf:59:f2:85:11:
                    17:4e:7d:93:0e:0b:06:9d:12:54:a6:1d:4a:91:29:
                    40:3b:28:c6:92:f5:bf:04:1f:f5:76:be:1f:91:df:
                    5b:31:2a:bb:2b:56:cc:82:e0:f7:bd:61:6e:2b:f4:
                    21:d1:7c:7e:e5:e8:61:72:e0:11:b5:d3:4b:79:de:
                    8a:a8:a2:96:b7:fb:e7:12:c8:d1:85:b9:ac:f8:80:
                    cd:5f:4d:aa:da:b6:27:76:57:8f:28:f3:f8:9e:63:
                    e6:9f:8c:2a:bf:22:f7:a7:e1:f9:9a:57:b5:91:86:
                    b9:da:9e:3e:dd:30:6c:94:03:c0:d6:f9:fb:e8:23:
                    66:c4:f1:79:63:49:e8:4d:60:d1:4f:f5:db:47:3a:
                    7a:3d:ae:97:72:7a:37:25:90:7f:d8:87:ac:44:fa:
                    07:7b:d3:9e:9b:3b:87:a6:6e:88:c1:d2:3b:34:82:
                    2f:45
                Exponent: 65537 (0x10001)
        X509v3 extensions:
            X509v3 Basic Constraints: 
                CA:FALSE
            X509v3 Subject Key Identifier: 
                E3:83:3A:A0:AC:B5:BF:97:53:AC:3E:46:B5:AD:0A:EE:5D:51:15:EB
            X509v3 Authority Key Identifier: 
                keyid:94:2D:59:A8:92:66:BA:2F:86:EB:F4:16:F3:E1:76:6F:56:23:13:96
                DirName:/CN=team466-net
                serial:02:07:8F:6D:EB:1D:0A:C9:1A:E1:80:85:74:C9:01:FE:DD:51:A1:D9
            X509v3 Extended Key Usage: 
                TLS Web Client Authentication
            X509v3 Key Usage: 
                Digital Signature
    Signature Algorithm: sha256WithRSAEncryption
    Signature Value:
        0e:09:20:be:79:90:2d:b9:e8:0b:f1:85:33:09:68:40:39:7e:
        a0:74:84:f9:8f:8e:0a:f1:0d:06:6c:7f:00:ba:2d:35:42:3a:
        d2:3e:42:14:78:65:c2:13:3f:bd:02:28:83:c9:80:10:32:11:
        03:20:4c:ba:07:56:77:9b:e7:c8:e8:e8:c4:11:d3:c6:d5:05:
        00:03:6c:fc:0d:16:3d:76:dc:de:66:82:10:21:fe:22:75:1d:
        3a:bc:c6:39:6e:90:41:2a:70:b4:f5:c8:92:ac:89:f3:da:39:
        03:30:f5:d0:a6:9d:9c:1a:82:05:ec:fb:cc:7c:51:21:a0:5c:
        17:a9:89:b9:9a:1d:bd:f0:c1:cb:2c:f6:d9:a3:35:2b:a2:f4:
        e2:23:b4:c1:ce:43:a2:5d:79:c8:24:aa:a1:2f:5e:7e:70:d8:
        9f:a9:b9:65:a2:e0:e5:95:fb:d8:87:69:b9:50:5e:ba:27:09:
        03:f7:67:ab:45:f9:d5:2d:9f:1b:1c:f2:97:3d:1b:57:00:c5:
        4a:dd:62:fc:87:40:9c:a8:96:5a:14:38:ba:36:5b:87:25:24:
        f5:57:00:b5:8a:3f:d9:fd:f5:a0:fd:0b:7a:7f:b3:ad:55:c4:
        ce:4c:50:81:b3:54:10:33:44:a2:d7:62:a4:d3:a4:77:9f:03:
        b9:32:92:17
-----BEGIN CERTIFICATE-----
MIIDXDCCAkSgAwIBAgIQI3IQ2gyTK0tv9df+zcoSkjANBgkqhkiG9w0BAQsFADAW
MRQwEgYDVQQDDAt0ZWFtNDY2LW5ldDAeFw0yMzExMDQxMDQ4NTNaFw0yNjEwMTkx
MDQ4NTNaMBkxFzAVBgNVBAMMDnRlYW00NjYtY2xpZW50MIIBIjANBgkqhkiG9w0B
AQEFAAOCAQ8AMIIBCgKCAQEAuA21IqdlEOhG96Dezv5CKNoNVha+PafpNy6VdfJ5
7Qst0Y9y2YiiUsdBoMbSUkjxh2AdmmEXmVJcEoGsaLrc+oZCPk4jrYCclfZgDGoA
pHD3tUjPv1nyhREXTn2TDgsGnRJUph1KkSlAOyjGkvW/BB/1dr4fkd9bMSq7K1bM
guD3vWFuK/Qh0Xx+5ehhcuARtdNLed6KqKKWt/vnEsjRhbms+IDNX02q2rYndleP
KPP4nmPmn4wqvyL3p+H5mle1kYa52p4+3TBslAPA1vn76CNmxPF5Y0noTWDRT/Xb
Rzp6Pa6Xcno3JZB/2IesRPoHe9OemzuHpm6IwdI7NIIvRQIDAQABo4GiMIGfMAkG
A1UdEwQCMAAwHQYDVR0OBBYEFOODOqCstb+XU6w+RrWtCu5dURXrMFEGA1UdIwRK
MEiAFJQtWaiSZrovhuv0FvPhdm9WIxOWoRqkGDAWMRQwEgYDVQQDDAt0ZWFtNDY2
LW5ldIIUAgePbesdCska4YCFdMkB/t1RodkwEwYDVR0lBAwwCgYIKwYBBQUHAwIw
CwYDVR0PBAQDAgeAMA0GCSqGSIb3DQEBCwUAA4IBAQAOCSC+eZAtuegL8YUzCWhA
OX6gdIT5j44K8Q0GbH8Aui01QjrSPkIUeGXCEz+9AiiDyYAQMhEDIEy6B1Z3m+fI
6OjEEdPG1QUAA2z8DRY9dtzeZoIQIf4idR06vMY5bpBBKnC09ciSrInz2jkDMPXQ
pp2cGoIF7PvMfFEhoFwXqYm5mh298MHLLPbZozUrovTiI7TBzkOiXXnIJKqhL15+
cNifqbllouDllfvYh2m5UF66JwkD92erRfnVLZ8bHPKXPRtXAMVK3WL8h0CcqJZa
FDi6NluHJST1VwC1ij/Z/fWg/Qt6f7OtVcTOTFCBs1QQM0Si12Kk06R3nwO5MpIX
-----END CERTIFICATE-----
