Certificate:
    Data:
        Version: 3 (0x2)
        Serial Number:
            4b:c4:93:41:da:1b:2b:27:78:aa:c4:59:93:ff:ae:c8
        Signature Algorithm: sha256WithRSAEncryption
        Issuer: CN=team466-net
        Validity
            Not Before: Nov  4 11:38:03 2023 GMT
            Not After : Oct 19 11:38:03 2026 GMT
        Subject: CN=team466-client
        Subject Public Key Info:
            Public Key Algorithm: rsaEncryption
                Public-Key: (2048 bit)
                Modulus:
                    00:bc:01:e9:8e:25:55:2b:25:1f:db:42:1e:5c:a3:
                    f2:31:cd:28:31:8f:43:ce:6e:c6:c7:f7:c9:41:98:
                    f4:6e:33:a4:e6:78:7e:ff:6f:22:ed:76:1a:f4:5b:
                    6f:3d:91:84:b4:a9:1c:92:92:1f:65:d7:7a:36:3f:
                    3f:cd:5e:b1:93:c1:71:5c:a8:df:42:d1:2b:9c:d4:
                    b2:24:0f:dc:b8:3f:9b:77:04:c4:0c:56:78:ca:70:
                    c2:3c:66:ed:b7:a9:2d:2f:42:91:31:66:be:cb:ae:
                    95:bf:77:5e:3d:13:33:5c:29:17:51:29:db:54:f2:
                    47:67:0a:f2:e4:8c:b3:48:9e:0c:57:c1:d2:61:c6:
                    29:ff:82:b6:c0:88:5e:ef:d7:93:5a:d4:be:dc:6c:
                    70:50:46:c5:c0:38:bf:ab:77:1a:60:cd:23:72:1b:
                    70:4f:95:2b:c2:5f:75:8c:ec:07:60:d2:4b:87:ba:
                    14:54:a7:78:fd:03:2a:bc:16:8a:4f:59:4a:07:39:
                    c5:05:6e:cb:fa:b4:d9:bd:f8:73:43:fa:7e:3d:74:
                    11:65:1d:fe:dd:93:74:2c:c6:2a:cb:6e:33:0c:c1:
                    39:e9:8d:27:26:84:80:d3:61:aa:17:cc:04:83:ef:
                    e4:ab:05:2a:00:2d:a1:9f:80:b5:b7:3b:c6:b2:ea:
                    a2:1d
                Exponent: 65537 (0x10001)
        X509v3 extensions:
            X509v3 Basic Constraints: 
                CA:FALSE
            X509v3 Subject Key Identifier: 
                89:01:4D:3E:B2:66:20:5C:79:BA:8C:90:75:23:E0:DF:28:B5:E9:BF
            X509v3 Authority Key Identifier: 
                keyid:FD:E8:B0:A8:75:02:51:29:44:41:E1:EE:A8:12:D4:4F:D3:33:CC:24
                DirName:/CN=team466-net
                serial:2E:CB:B1:1A:2F:34:0C:FC:5F:0C:AE:AE:33:4C:D8:84:03:1B:A2:E4
            X509v3 Extended Key Usage: 
                TLS Web Client Authentication
            X509v3 Key Usage: 
                Digital Signature
    Signature Algorithm: sha256WithRSAEncryption
    Signature Value:
        c1:73:b5:07:93:20:26:f4:b3:41:fe:da:03:97:97:95:d9:fe:
        e8:2c:94:77:83:76:d4:20:e3:fa:7f:e5:97:77:e2:5f:65:f7:
        da:2f:0c:46:e4:31:a6:7d:26:b7:91:fe:6b:e1:12:68:72:f8:
        01:3a:1f:3b:03:17:45:1f:61:87:70:2f:ea:73:eb:6c:2d:a9:
        3e:6a:c4:7e:1b:7f:68:b0:73:94:02:18:2f:7c:d8:7f:30:74:
        db:5b:13:fc:4c:70:ec:94:4a:9f:b1:91:43:19:44:13:4b:21:
        d1:8a:83:f3:54:62:72:a9:97:40:09:87:b4:a1:9f:81:64:28:
        9a:7b:de:11:dc:2c:a9:70:7e:6c:57:4d:01:20:79:d2:ec:97:
        18:57:c3:6e:cc:d8:f3:ad:c8:19:43:77:e9:97:01:4c:85:ba:
        ed:50:07:a1:f0:5e:3a:da:a3:2e:90:03:a4:99:2e:4d:d8:e1:
        cb:95:89:62:2a:51:c1:10:07:f9:4d:4e:a8:71:e4:1b:b3:53:
        59:cd:4f:8d:a1:68:d0:b4:8a:92:41:41:ff:52:76:5a:f7:72:
        cc:46:3e:fb:e5:2c:06:c9:fa:01:24:9d:71:f6:71:b3:10:5f:
        07:28:2e:e5:7f:cb:da:1f:02:d1:e5:c8:e9:13:ae:ea:10:6b:
        c5:e1:40:68
-----BEGIN CERTIFICATE-----
MIIDXDCCAkSgAwIBAgIQS8STQdobKyd4qsRZk/+uyDANBgkqhkiG9w0BAQsFADAW
MRQwEgYDVQQDDAt0ZWFtNDY2LW5ldDAeFw0yMzExMDQxMTM4MDNaFw0yNjEwMTkx
MTM4MDNaMBkxFzAVBgNVBAMMDnRlYW00NjYtY2xpZW50MIIBIjANBgkqhkiG9w0B
AQEFAAOCAQ8AMIIBCgKCAQEAvAHpjiVVKyUf20IeXKPyMc0oMY9Dzm7Gx/fJQZj0
bjOk5nh+/28i7XYa9FtvPZGEtKkckpIfZdd6Nj8/zV6xk8FxXKjfQtErnNSyJA/c
uD+bdwTEDFZ4ynDCPGbtt6ktL0KRMWa+y66Vv3dePRMzXCkXUSnbVPJHZwry5Iyz
SJ4MV8HSYcYp/4K2wIhe79eTWtS+3GxwUEbFwDi/q3caYM0jchtwT5Urwl91jOwH
YNJLh7oUVKd4/QMqvBaKT1lKBznFBW7L+rTZvfhzQ/p+PXQRZR3+3ZN0LMYqy24z
DME56Y0nJoSA02GqF8wEg+/kqwUqAC2hn4C1tzvGsuqiHQIDAQABo4GiMIGfMAkG
A1UdEwQCMAAwHQYDVR0OBBYEFIkBTT6yZiBcebqMkHUj4N8otem/MFEGA1UdIwRK
MEiAFP3osKh1AlEpREHh7qgS1E/TM8wkoRqkGDAWMRQwEgYDVQQDDAt0ZWFtNDY2
LW5ldIIULsuxGi80DPxfDK6uM0zYhAMbouQwEwYDVR0lBAwwCgYIKwYBBQUHAwIw
CwYDVR0PBAQDAgeAMA0GCSqGSIb3DQEBCwUAA4IBAQDBc7UHkyAm9LNB/toDl5eV
2f7oLJR3g3bUIOP6f+WXd+JfZffaLwxG5DGmfSa3kf5r4RJocvgBOh87AxdFH2GH
cC/qc+tsLak+asR+G39osHOUAhgvfNh/MHTbWxP8THDslEqfsZFDGUQTSyHRioPz
VGJyqZdACYe0oZ+BZCiae94R3CypcH5sV00BIHnS7JcYV8NuzNjzrcgZQ3fplwFM
hbrtUAeh8F462qMukAOkmS5N2OHLlYliKlHBEAf5TU6oceQbs1NZzU+NoWjQtIqS
QUH/UnZa93LMRj775SwGyfoBJJ1x9nGzEF8HKC7lf8vaHwLR5cjpE67qEGvF4UBo
-----END CERTIFICATE-----
