Certificate:
    Data:
        Version: 3 (0x2)
        Serial Number:
            8a:86:5f:c2:01:75:45:e2:86:bd:97:c4:1d:b4:2a:d7
        Signature Algorithm: sha256WithRSAEncryption
        Issuer: CN=team466-net
        Validity
            Not Before: Nov  4 10:48:54 2023 GMT
            Not After : Oct 19 10:48:54 2026 GMT
        Subject: CN=team466-server
        Subject Public Key Info:
            Public Key Algorithm: rsaEncryption
                Public-Key: (2048 bit)
                Modulus:
                    00:aa:a9:ca:24:85:cd:cd:bf:36:3b:61:3f:33:6d:
                    b3:05:2e:68:e5:e1:50:70:b4:01:d7:8f:0a:e3:5f:
                    57:fd:9b:eb:cd:a9:8e:41:db:eb:af:f0:63:05:f9:
                    96:c6:a3:90:3a:1d:bc:ad:31:56:7b:fb:dd:85:a8:
                    7d:be:23:1a:e3:81:ef:02:5e:dc:48:36:59:62:f5:
                    d3:e4:a3:17:32:9a:9d:90:22:67:f0:11:0d:9a:20:
                    94:a9:d7:95:e7:93:0a:79:a6:38:da:72:1a:90:bc:
                    cd:4d:dd:10:bb:85:19:c0:7e:1d:2a:90:41:69:91:
                    27:b1:48:b9:92:6f:a5:f4:6b:d3:aa:f5:5c:79:1b:
                    00:a3:4a:5f:f6:f5:55:91:29:83:07:20:e1:0a:83:
                    91:58:a0:f1:23:71:f2:43:51:11:fe:17:19:0c:c7:
                    6f:26:e3:65:d0:1d:f8:e6:fc:1e:ed:77:8d:50:1e:
                    eb:17:ad:49:a3:4c:14:dd:24:c5:93:1f:94:4c:98:
                    20:21:1b:40:d2:0e:1a:bd:89:bd:ad:a6:1a:da:60:
                    b7:25:df:71:e8:32:a1:d2:06:64:62:a7:57:bc:06:
                    a0:49:ee:8c:85:cd:ca:15:d1:4b:21:cc:fe:d9:1b:
                    02:c4:00:48:a0:5f:b0:8a:df:79:92:39:b4:32:38:
                    ee:bb
                Exponent: 65537 (0x10001)
        X509v3 extensions:
            X509v3 Basic Constraints: 
                CA:FALSE
            X509v3 Subject Key Identifier: 
                12:41:D3:73:8A:56:44:90:6B:34:17:07:8D:70:CA:5E:CA:46:FC:D1
            X509v3 Authority Key Identifier: 
                keyid:94:2D:59:A8:92:66:BA:2F:86:EB:F4:16:F3:E1:76:6F:56:23:13:96
                DirName:/CN=team466-net
                serial:02:07:8F:6D:EB:1D:0A:C9:1A:E1:80:85:74:C9:01:FE:DD:51:A1:D9
            X509v3 Extended Key Usage: 
                TLS Web Server Authentication
            X509v3 Key Usage: 
                Digital Signature, Key Encipherment
            X509v3 Subject Alternative Name: 
                DNS:team466-server
    Signature Algorithm: sha256WithRSAEncryption
    Signature Value:
        75:a8:c4:2a:b8:63:95:00:be:d6:0b:f6:86:19:1b:68:e4:f0:
        eb:20:94:a4:f7:22:ec:7f:1e:79:90:30:b4:e8:35:59:11:f1:
        c0:58:34:77:12:84:75:77:e8:d0:db:1f:31:da:15:e5:e3:1e:
        1c:7d:c2:02:7b:b1:fc:85:ad:bc:2d:73:51:51:ae:46:70:73:
        3e:45:e6:14:13:d1:e1:a6:f7:6b:48:27:21:46:88:cf:de:a9:
        f5:dd:49:86:7e:fc:a0:bb:55:c3:95:4a:87:4e:62:4a:83:23:
        eb:b2:21:2a:b1:a7:06:2a:0c:b1:a0:a3:d9:8e:7e:48:8d:ca:
        ad:fa:15:3e:e9:49:aa:1f:7d:57:a6:90:b8:82:31:92:2e:1b:
        b0:ca:aa:c7:8a:fb:3a:b2:60:dc:05:2b:d5:6e:d8:cf:cf:b5:
        c7:3a:2b:13:28:e1:14:b2:57:85:64:de:2a:ce:fe:f1:55:8f:
        45:3d:c0:bd:73:98:ee:c9:33:7c:67:66:3f:2c:5e:9b:57:4e:
        4a:94:f6:11:a6:ec:d3:a3:14:86:91:6e:42:91:47:af:e5:6e:
        2f:b8:83:69:9d:90:fb:99:d5:48:a8:19:e4:d0:53:44:3f:fc:
        1e:a9:b8:ae:18:77:c4:f7:94:d5:a7:5b:c7:bd:a6:91:24:d8:
        11:99:2f:6b
-----BEGIN CERTIFICATE-----
MIIDeDCCAmCgAwIBAgIRAIqGX8IBdUXihr2XxB20KtcwDQYJKoZIhvcNAQELBQAw
FjEUMBIGA1UEAwwLdGVhbTQ2Ni1uZXQwHhcNMjMxMTA0MTA0ODU0WhcNMjYxMDE5
MTA0ODU0WjAZMRcwFQYDVQQDDA50ZWFtNDY2LXNlcnZlcjCCASIwDQYJKoZIhvcN
AQEBBQADggEPADCCAQoCggEBAKqpyiSFzc2/NjthPzNtswUuaOXhUHC0AdePCuNf
V/2b682pjkHb66/wYwX5lsajkDodvK0xVnv73YWofb4jGuOB7wJe3Eg2WWL10+Sj
FzKanZAiZ/ARDZoglKnXleeTCnmmONpyGpC8zU3dELuFGcB+HSqQQWmRJ7FIuZJv
pfRr06r1XHkbAKNKX/b1VZEpgwcg4QqDkVig8SNx8kNREf4XGQzHbybjZdAd+Ob8
Hu13jVAe6xetSaNMFN0kxZMflEyYICEbQNIOGr2Jva2mGtpgtyXfcegyodIGZGKn
V7wGoEnujIXNyhXRSyHM/tkbAsQASKBfsIrfeZI5tDI47rsCAwEAAaOBvTCBujAJ
BgNVHRMEAjAAMB0GA1UdDgQWBBQSQdNzilZEkGs0FweNcMpeykb80TBRBgNVHSME
SjBIgBSULVmokma6L4br9Bbz4XZvViMTlqEapBgwFjEUMBIGA1UEAwwLdGVhbTQ2
Ni1uZXSCFAIHj23rHQrJGuGAhXTJAf7dUaHZMBMGA1UdJQQMMAoGCCsGAQUFBwMB
MAsGA1UdDwQEAwIFoDAZBgNVHREEEjAQgg50ZWFtNDY2LXNlcnZlcjANBgkqhkiG
9w0BAQsFAAOCAQEAdajEKrhjlQC+1gv2hhkbaOTw6yCUpPci7H8eeZAwtOg1WRHx
wFg0dxKEdXfo0NsfMdoV5eMeHH3CAnux/IWtvC1zUVGuRnBzPkXmFBPR4ab3a0gn
IUaIz96p9d1Jhn78oLtVw5VKh05iSoMj67IhKrGnBioMsaCj2Y5+SI3KrfoVPulJ
qh99V6aQuIIxki4bsMqqx4r7OrJg3AUr1W7Yz8+1xzorEyjhFLJXhWTeKs7+8VWP
RT3AvXOY7skzfGdmPyxem1dOSpT2Eabs06MUhpFuQpFHr+VuL7iDaZ2Q+5nVSKgZ
5NBTRD/8Hqm4rhh3xPeU1adbx72mkSTYEZkvaw==
-----END CERTIFICATE-----
