Certificate:
    Data:
        Version: 3 (0x2)
        Serial Number:
            15:87:a3:1a:46:16:0f:0a:79:2d:ae:e3:2d:85:55:f4
        Signature Algorithm: sha256WithRSAEncryption
        Issuer: CN=team443-net
        Validity
            Not Before: Nov  3 20:47:17 2023 GMT
            Not After : Oct 18 20:47:17 2026 GMT
        Subject: CN=team443-client
        Subject Public Key Info:
            Public Key Algorithm: rsaEncryption
                Public-Key: (2048 bit)
                Modulus:
                    00:a1:05:6d:2a:ee:a6:8d:10:48:dc:51:b6:6d:b7:
                    cf:a1:8a:d0:f4:bd:17:cf:5b:50:6d:5b:de:51:a2:
                    36:4e:ae:2c:3b:7b:cb:b1:73:fe:da:a8:fb:eb:56:
                    2e:8c:c5:42:82:e7:59:bf:9f:46:1e:03:7e:99:73:
                    f9:a1:64:1c:3b:ef:02:5b:6e:66:dc:d6:3a:d0:69:
                    c5:7f:49:12:ea:18:43:43:84:ad:6a:fe:46:73:0e:
                    43:42:99:f1:82:0f:4c:8d:6a:a3:ca:07:aa:c7:85:
                    4f:59:1e:a8:70:dd:c2:d0:7f:58:53:ed:c1:89:56:
                    7c:f8:0a:a8:7e:ad:4b:8b:2e:71:5a:53:5c:ce:55:
                    a8:98:c3:00:ab:21:4e:51:88:35:07:84:1d:eb:a0:
                    b9:c1:ee:d8:ad:a5:3f:4e:34:72:a8:ed:37:6f:f3:
                    d2:6e:3e:69:57:8b:60:e4:b2:a6:72:6c:28:fd:c6:
                    a2:0c:03:02:7a:dd:39:31:be:a2:eb:37:81:37:46:
                    1a:1e:e0:18:4c:1a:7f:02:31:84:24:d4:e1:a6:bc:
                    f7:d0:39:46:76:ca:37:e2:af:b2:8e:3b:4f:0e:e1:
                    6a:2e:91:0f:40:b3:c0:9a:c1:17:6b:8d:38:25:f5:
                    6e:2e:8d:0b:45:72:be:3a:10:6e:35:66:6d:54:55:
                    42:a9
                Exponent: 65537 (0x10001)
        X509v3 extensions:
            X509v3 Basic Constraints: 
                CA:FALSE
            X509v3 Subject Key Identifier: 
                ED:57:17:6C:62:09:2E:6F:FC:E1:D9:97:D4:A1:AE:F0:5C:D9:40:E4
            X509v3 Authority Key Identifier: 
                keyid:CE:2E:28:34:21:84:D5:FD:8D:BE:30:5A:FD:D2:C1:94:1A:5D:6C:46
                DirName:/CN=team443-net
                serial:2B:B4:8E:A0:57:F0:C3:72:63:52:B2:74:D5:59:FA:BA:AB:D0:54:A7
            X509v3 Extended Key Usage: 
                TLS Web Client Authentication
            X509v3 Key Usage: 
                Digital Signature
    Signature Algorithm: sha256WithRSAEncryption
    Signature Value:
        4f:9c:a8:9d:31:58:de:a4:56:e0:4b:36:ee:7e:40:2b:87:0a:
        ed:43:08:7c:69:7f:cd:4d:35:8a:3b:b2:72:95:f8:2e:f7:25:
        a7:b5:00:42:87:c7:08:49:e4:4b:46:98:08:13:96:86:8f:74:
        5e:07:ba:b8:ff:81:74:bd:85:5c:59:14:03:73:85:60:f0:bf:
        9d:e7:0d:31:5f:8e:35:27:86:9b:22:1b:a8:57:4b:61:bd:01:
        88:45:a2:c3:2a:4a:48:c3:2b:cf:d6:18:a7:53:a5:bf:d5:ae:
        1f:b3:7a:47:43:4c:b5:df:8a:16:10:9f:15:dc:37:30:cf:64:
        42:b5:f4:39:db:86:39:ea:2e:98:55:57:e1:2a:d2:b9:ef:b4:
        c8:3f:0b:03:b8:90:68:e3:e9:4a:50:44:25:2d:8e:83:0f:35:
        20:e9:44:d4:f0:fb:57:c7:10:7d:e2:46:fb:76:d8:67:55:0c:
        91:29:fa:aa:9a:cc:94:7e:a0:4a:1b:ab:cf:e5:d9:93:43:39:
        18:e0:57:4f:e3:35:fe:e8:45:73:2d:f1:c2:01:86:73:90:67:
        ea:48:74:d8:28:de:17:25:5f:24:fe:93:67:f6:39:7c:f2:55:
        e5:25:ad:91:fd:87:3e:a0:c5:19:55:c2:f0:e2:86:48:09:dd:
        0a:56:7b:53
-----BEGIN CERTIFICATE-----
MIIDXDCCAkSgAwIBAgIQFYejGkYWDwp5La7jLYVV9DANBgkqhkiG9w0BAQsFADAW
MRQwEgYDVQQDDAt0ZWFtNDQzLW5ldDAeFw0yMzExMDMyMDQ3MTdaFw0yNjEwMTgy
MDQ3MTdaMBkxFzAVBgNVBAMMDnRlYW00NDMtY2xpZW50MIIBIjANBgkqhkiG9w0B
AQEFAAOCAQ8AMIIBCgKCAQEAoQVtKu6mjRBI3FG2bbfPoYrQ9L0Xz1tQbVveUaI2
Tq4sO3vLsXP+2qj761YujMVCgudZv59GHgN+mXP5oWQcO+8CW25m3NY60GnFf0kS
6hhDQ4Stav5Gcw5DQpnxgg9MjWqjygeqx4VPWR6ocN3C0H9YU+3BiVZ8+Aqofq1L
iy5xWlNczlWomMMAqyFOUYg1B4Qd66C5we7YraU/TjRyqO03b/PSbj5pV4tg5LKm
cmwo/caiDAMCet05Mb6i6zeBN0YaHuAYTBp/AjGEJNThprz30DlGdso34q+yjjtP
DuFqLpEPQLPAmsEXa404JfVuLo0LRXK+OhBuNWZtVFVCqQIDAQABo4GiMIGfMAkG
A1UdEwQCMAAwHQYDVR0OBBYEFO1XF2xiCS5v/OHZl9ShrvBc2UDkMFEGA1UdIwRK
MEiAFM4uKDQhhNX9jb4wWv3SwZQaXWxGoRqkGDAWMRQwEgYDVQQDDAt0ZWFtNDQz
LW5ldIIUK7SOoFfww3JjUrJ01Vn6uqvQVKcwEwYDVR0lBAwwCgYIKwYBBQUHAwIw
CwYDVR0PBAQDAgeAMA0GCSqGSIb3DQEBCwUAA4IBAQBPnKidMVjepFbgSzbufkAr
hwrtQwh8aX/NTTWKO7Jylfgu9yWntQBCh8cISeRLRpgIE5aGj3ReB7q4/4F0vYVc
WRQDc4Vg8L+d5w0xX441J4abIhuoV0thvQGIRaLDKkpIwyvP1hinU6W/1a4fs3pH
Q0y134oWEJ8V3Dcwz2RCtfQ524Y56i6YVVfhKtK577TIPwsDuJBo4+lKUEQlLY6D
DzUg6UTU8PtXxxB94kb7dthnVQyRKfqqmsyUfqBKG6vP5dmTQzkY4FdP4zX+6EVz
LfHCAYZzkGfqSHTYKN4XJV8k/pNn9jl88lXlJa2R/Yc+oMUZVcLw4oZICd0KVntT
-----END CERTIFICATE-----
