Certificate:
    Data:
        Version: 3 (0x2)
        Serial Number:
            7d:67:92:aa:64:8d:fe:34:b9:e0:b9:82:7c:bf:d2:ba
        Signature Algorithm: sha256WithRSAEncryption
        Issuer: CN=team443-net
        Validity
            Not Before: Nov  4 11:37:25 2023 GMT
            Not After : Oct 19 11:37:25 2026 GMT
        Subject: CN=team443-client
        Subject Public Key Info:
            Public Key Algorithm: rsaEncryption
                Public-Key: (2048 bit)
                Modulus:
                    00:d6:c8:10:22:52:e6:0d:a1:ee:03:8b:56:7c:a0:
                    a5:66:5a:37:f5:fd:8d:4c:71:35:8d:04:e2:a3:98:
                    23:aa:01:83:e5:b5:50:ee:22:ff:84:96:3b:fa:d4:
                    c9:6c:7d:c1:3f:77:43:06:63:3f:cf:e9:e6:c3:f4:
                    a1:4d:a3:e3:b2:b7:34:19:9f:4c:8e:78:13:95:1a:
                    8b:2d:9f:d6:69:2f:56:69:fd:08:d7:db:2b:30:b7:
                    69:4c:58:0f:7f:00:f2:f5:57:3f:d9:a0:b6:f2:f3:
                    05:f8:7a:07:d4:89:69:0e:8d:30:3b:00:56:3c:f3:
                    b8:70:d3:75:d1:21:ed:86:41:cf:36:3c:af:2c:45:
                    bc:83:7a:a6:54:24:fe:32:a8:d0:c6:45:ab:11:b6:
                    e7:a1:b7:a8:cb:cf:80:56:05:1b:e9:27:59:c2:e6:
                    a0:69:e0:3a:9d:2c:3f:00:63:41:0e:cd:b9:24:4c:
                    f6:f1:4a:31:e2:e3:25:50:44:26:48:17:27:cc:aa:
                    b4:59:46:d3:39:c9:43:e9:ca:0e:73:b6:e7:ac:1d:
                    f8:3e:01:e0:bc:bc:d4:3d:b3:2c:35:66:e0:27:3e:
                    42:b7:df:77:0c:94:2f:d5:72:db:4a:94:cd:95:dd:
                    b0:ce:b6:64:41:61:87:4f:76:17:64:bc:04:35:e7:
                    82:df
                Exponent: 65537 (0x10001)
        X509v3 extensions:
            X509v3 Basic Constraints: 
                CA:FALSE
            X509v3 Subject Key Identifier: 
                79:B0:BD:B7:74:4F:05:66:CB:F3:F8:99:AA:CD:35:7D:16:5C:15:B2
            X509v3 Authority Key Identifier: 
                keyid:E1:A7:3E:C8:64:DE:D7:DE:86:D3:FA:F9:77:4C:46:7D:B4:0D:06:13
                DirName:/CN=team443-net
                serial:3C:1F:A5:F2:8A:88:F1:0C:9C:63:48:85:9B:41:D6:F9:B9:0E:CA:4A
            X509v3 Extended Key Usage: 
                TLS Web Client Authentication
            X509v3 Key Usage: 
                Digital Signature
    Signature Algorithm: sha256WithRSAEncryption
    Signature Value:
        88:c6:d4:01:3f:92:9a:e2:fc:ad:98:dc:a9:4c:31:85:3d:5c:
        78:6e:75:79:29:c7:d8:33:ad:a4:62:74:e8:10:6b:fb:5f:c5:
        ba:8c:f8:1a:e0:20:bf:14:b5:6e:71:17:59:db:18:4d:34:0a:
        36:22:79:1a:ab:af:02:38:7f:fe:39:45:5e:89:82:7c:14:04:
        d0:71:37:a7:d8:77:6c:b2:6d:d1:be:28:df:8a:61:47:d2:28:
        8b:5a:54:e5:5e:8f:60:2a:63:12:1d:3e:31:55:10:7b:f1:5d:
        5c:31:65:e1:c2:0c:86:f9:f5:35:cb:04:c6:06:4f:f6:41:b8:
        92:68:bf:8d:38:89:4e:b2:8d:5a:b5:9f:72:31:56:7f:97:38:
        41:c0:28:38:10:df:f8:46:5b:2e:40:d2:75:dd:66:e0:c1:0b:
        a6:d4:3c:df:73:65:d2:2b:36:b3:32:22:0e:0f:9f:9d:4a:2f:
        5a:13:00:ea:6d:e3:6f:b1:71:a4:32:67:aa:aa:73:b8:aa:87:
        60:3e:82:2b:dd:78:86:ad:59:03:d2:8a:6b:79:fe:48:1c:10:
        19:cb:7b:05:7b:b0:b1:7a:48:0f:1e:4d:6d:ae:07:6d:b1:d8:
        e0:fc:82:96:85:59:c4:19:89:24:99:37:bd:e3:4e:65:91:1a:
        1f:20:2a:0c
-----BEGIN CERTIFICATE-----
MIIDXDCCAkSgAwIBAgIQfWeSqmSN/jS54LmCfL/SujANBgkqhkiG9w0BAQsFADAW
MRQwEgYDVQQDDAt0ZWFtNDQzLW5ldDAeFw0yMzExMDQxMTM3MjVaFw0yNjEwMTkx
MTM3MjVaMBkxFzAVBgNVBAMMDnRlYW00NDMtY2xpZW50MIIBIjANBgkqhkiG9w0B
AQEFAAOCAQ8AMIIBCgKCAQEA1sgQIlLmDaHuA4tWfKClZlo39f2NTHE1jQTio5gj
qgGD5bVQ7iL/hJY7+tTJbH3BP3dDBmM/z+nmw/ShTaPjsrc0GZ9MjngTlRqLLZ/W
aS9Waf0I19srMLdpTFgPfwDy9Vc/2aC28vMF+HoH1IlpDo0wOwBWPPO4cNN10SHt
hkHPNjyvLEW8g3qmVCT+MqjQxkWrEbbnobeoy8+AVgUb6SdZwuagaeA6nSw/AGNB
Ds25JEz28Uox4uMlUEQmSBcnzKq0WUbTOclD6coOc7bnrB34PgHgvLzUPbMsNWbg
Jz5Ct993DJQv1XLbSpTNld2wzrZkQWGHT3YXZLwENeeC3wIDAQABo4GiMIGfMAkG
A1UdEwQCMAAwHQYDVR0OBBYEFHmwvbd0TwVmy/P4marNNX0WXBWyMFEGA1UdIwRK
MEiAFOGnPshk3tfehtP6+XdMRn20DQYToRqkGDAWMRQwEgYDVQQDDAt0ZWFtNDQz
LW5ldIIUPB+l8oqI8QycY0iFm0HW+bkOykowEwYDVR0lBAwwCgYIKwYBBQUHAwIw
CwYDVR0PBAQDAgeAMA0GCSqGSIb3DQEBCwUAA4IBAQCIxtQBP5Ka4vytmNypTDGF
PVx4bnV5KcfYM62kYnToEGv7X8W6jPga4CC/FLVucRdZ2xhNNAo2Inkaq68COH/+
OUVeiYJ8FATQcTen2Hdssm3RvijfimFH0iiLWlTlXo9gKmMSHT4xVRB78V1cMWXh
wgyG+fU1ywTGBk/2QbiSaL+NOIlOso1atZ9yMVZ/lzhBwCg4EN/4RlsuQNJ13Wbg
wQum1Dzfc2XSKzazMiIOD5+dSi9aEwDqbeNvsXGkMmeqqnO4qodgPoIr3XiGrVkD
0opref5IHBAZy3sFe7CxekgPHk1trgdtsdjg/IKWhVnEGYkkmTe9405lkRofICoM
-----END CERTIFICATE-----
