Certificate:
    Data:
        Version: 3 (0x2)
        Serial Number:
            e0:d7:9e:e7:9c:54:e4:44:ce:95:2b:64:55:e3:03:88
        Signature Algorithm: sha256WithRSAEncryption
        Issuer: CN=team443-net
        Validity
            Not Before: Nov  4 11:37:26 2023 GMT
            Not After : Oct 19 11:37:26 2026 GMT
        Subject: CN=team443-server
        Subject Public Key Info:
            Public Key Algorithm: rsaEncryption
                Public-Key: (2048 bit)
                Modulus:
                    00:ce:46:cf:47:7a:40:d8:9f:df:11:2a:d1:e0:dd:
                    fc:47:38:a6:71:aa:8a:6c:91:26:d0:8f:aa:84:96:
                    e8:c2:a2:f3:83:04:ef:25:ec:86:04:b7:a2:eb:61:
                    e3:ae:ae:96:47:16:d8:c5:52:5d:01:6c:8e:c0:47:
                    4e:6b:b3:bb:29:f2:4f:f4:79:bc:93:f1:02:05:96:
                    f5:45:0e:58:cd:fb:e8:d1:1a:a1:f4:e0:c5:f0:58:
                    be:49:d7:cf:01:a5:b5:f1:b8:72:4a:fd:c0:59:05:
                    90:0d:7f:df:71:86:df:2b:94:6a:9a:ef:67:5b:0e:
                    72:68:72:06:b7:7f:67:77:b6:5c:f0:b0:ba:57:6d:
                    db:d4:6f:35:59:65:71:c4:20:29:f5:8f:bd:33:be:
                    ce:29:c5:3d:0c:ec:b7:ff:5f:e2:cb:ff:56:76:42:
                    63:89:76:82:30:49:8f:f0:91:37:50:72:9a:16:6f:
                    ee:fa:4f:ab:0e:94:e9:59:41:5c:c0:12:3f:5b:42:
                    66:1f:1c:08:14:51:b9:8e:dd:71:d8:08:ab:ef:f1:
                    c6:f2:b1:4d:36:ed:2c:36:5b:35:01:89:46:31:e1:
                    9b:e0:f4:2b:da:be:cb:69:bc:b8:75:d1:01:73:0e:
                    91:dc:ff:67:b5:79:79:bc:b7:2c:15:55:78:e6:6a:
                    4d:f9
                Exponent: 65537 (0x10001)
        X509v3 extensions:
            X509v3 Basic Constraints: 
                CA:FALSE
            X509v3 Subject Key Identifier: 
                DE:FD:5B:14:F7:41:F7:56:55:64:DC:C3:F8:B8:FC:DE:E7:B9:62:A5
            X509v3 Authority Key Identifier: 
                keyid:E1:A7:3E:C8:64:DE:D7:DE:86:D3:FA:F9:77:4C:46:7D:B4:0D:06:13
                DirName:/CN=team443-net
                serial:3C:1F:A5:F2:8A:88:F1:0C:9C:63:48:85:9B:41:D6:F9:B9:0E:CA:4A
            X509v3 Extended Key Usage: 
                TLS Web Server Authentication
            X509v3 Key Usage: 
                Digital Signature, Key Encipherment
            X509v3 Subject Alternative Name: 
                DNS:team443-server
    Signature Algorithm: sha256WithRSAEncryption
    Signature Value:
        13:00:df:9e:a3:b8:6e:9f:71:eb:5b:26:84:79:af:0e:f5:e0:
        d2:e2:38:e3:f4:18:bf:26:71:ff:0a:6d:fe:52:2a:7e:2c:7e:
        49:b0:7a:11:f5:05:df:cc:a4:1b:6f:37:ce:a2:78:c9:40:b2:
        03:10:f5:cd:22:aa:5f:c6:95:b4:41:10:62:18:9a:e6:42:99:
        84:27:24:b3:06:39:07:98:3d:fe:38:4b:3b:7b:43:39:30:02:
        83:05:61:a0:57:16:b8:63:c3:09:f4:f0:38:fe:65:0b:cb:80:
        fa:44:c7:ff:64:67:f7:1c:89:8f:35:c0:df:5c:0b:a0:f2:2b:
        40:e1:70:d8:a4:78:2f:46:e8:03:9b:09:a6:fb:74:6d:3a:3a:
        c3:9f:8c:88:a9:bb:48:17:66:b1:88:f7:20:88:05:2c:6f:b5:
        5f:33:6e:01:de:61:a0:df:78:84:5b:eb:ee:bd:0a:84:0b:ec:
        a9:b7:b2:3e:cf:4d:c4:2b:cd:85:35:d1:5b:04:db:72:64:ea:
        a9:5d:87:47:e2:4a:1d:f4:c5:2e:6b:5c:5b:d7:d3:9a:ee:93:
        b6:64:5a:b7:fa:92:3a:0a:e0:55:12:0e:62:30:f6:eb:e4:d1:
        e7:6c:2e:b9:f5:9c:5d:91:de:be:31:df:ad:1e:45:ca:03:67:
        28:b0:67:ee
-----BEGIN CERTIFICATE-----
MIIDeDCCAmCgAwIBAgIRAODXnuecVOREzpUrZFXjA4gwDQYJKoZIhvcNAQELBQAw
FjEUMBIGA1UEAwwLdGVhbTQ0My1uZXQwHhcNMjMxMTA0MTEzNzI2WhcNMjYxMDE5
MTEzNzI2WjAZMRcwFQYDVQQDDA50ZWFtNDQzLXNlcnZlcjCCASIwDQYJKoZIhvcN
AQEBBQADggEPADCCAQoCggEBAM5Gz0d6QNif3xEq0eDd/Ec4pnGqimyRJtCPqoSW
6MKi84ME7yXshgS3outh466ulkcW2MVSXQFsjsBHTmuzuynyT/R5vJPxAgWW9UUO
WM376NEaofTgxfBYvknXzwGltfG4ckr9wFkFkA1/33GG3yuUaprvZ1sOcmhyBrd/
Z3e2XPCwuldt29RvNVllccQgKfWPvTO+zinFPQzst/9f4sv/VnZCY4l2gjBJj/CR
N1BymhZv7vpPqw6U6VlBXMASP1tCZh8cCBRRuY7dcdgIq+/xxvKxTTbtLDZbNQGJ
RjHhm+D0K9q+y2m8uHXRAXMOkdz/Z7V5eby3LBVVeOZqTfkCAwEAAaOBvTCBujAJ
BgNVHRMEAjAAMB0GA1UdDgQWBBTe/VsU90H3VlVk3MP4uPze57lipTBRBgNVHSME
SjBIgBThpz7IZN7X3obT+vl3TEZ9tA0GE6EapBgwFjEUMBIGA1UEAwwLdGVhbTQ0
My1uZXSCFDwfpfKKiPEMnGNIhZtB1vm5DspKMBMGA1UdJQQMMAoGCCsGAQUFBwMB
MAsGA1UdDwQEAwIFoDAZBgNVHREEEjAQgg50ZWFtNDQzLXNlcnZlcjANBgkqhkiG
9w0BAQsFAAOCAQEAEwDfnqO4bp9x61smhHmvDvXg0uI44/QYvyZx/wpt/lIqfix+
SbB6EfUF38ykG283zqJ4yUCyAxD1zSKqX8aVtEEQYhia5kKZhCckswY5B5g9/jhL
O3tDOTACgwVhoFcWuGPDCfTwOP5lC8uA+kTH/2Rn9xyJjzXA31wLoPIrQOFw2KR4
L0boA5sJpvt0bTo6w5+MiKm7SBdmsYj3IIgFLG+1XzNuAd5hoN94hFvr7r0KhAvs
qbeyPs9NxCvNhTXRWwTbcmTqqV2HR+JKHfTFLmtcW9fTmu6TtmRat/qSOgrgVRIO
YjD26+TR52wuufWcXZHevjHfrR5FygNnKLBn7g==
-----END CERTIFICATE-----
