Certificate:
    Data:
        Version: 3 (0x2)
        Serial Number:
            f8:51:aa:ed:0f:8a:c8:18:a4:54:7a:aa:4a:2b:68:90
        Signature Algorithm: sha256WithRSAEncryption
        Issuer: CN=team443-net
        Validity
            Not Before: Nov  4 10:48:34 2023 GMT
            Not After : Oct 19 10:48:34 2026 GMT
        Subject: CN=team443-server
        Subject Public Key Info:
            Public Key Algorithm: rsaEncryption
                Public-Key: (2048 bit)
                Modulus:
                    00:ee:a4:87:00:67:6a:fc:34:79:7a:a1:2e:b0:fb:
                    c3:25:ae:18:f0:d0:99:51:61:f0:93:84:f5:c1:8d:
                    59:8e:d2:ba:c0:dd:87:88:14:1e:4a:64:d7:a2:b7:
                    1b:2e:c1:27:a9:a1:62:1e:35:9d:90:fc:6f:1e:e3:
                    a2:41:64:28:81:c7:52:82:c0:55:b6:46:26:da:a4:
                    73:97:c0:68:91:07:af:24:a9:f0:a4:6a:ea:d7:7f:
                    3f:1e:ee:72:c3:06:80:83:d1:31:d0:ef:85:04:b8:
                    68:00:a0:84:83:ab:6b:3e:e5:28:8e:7e:d6:58:74:
                    e6:04:e9:ae:50:c6:6d:75:d8:6c:47:b5:cd:c1:e6:
                    ef:86:88:a8:d8:53:2c:a9:81:bc:c1:fa:32:1e:f8:
                    c9:7b:34:2d:f9:16:db:ac:f0:06:6e:b2:ee:03:f3:
                    33:57:78:ad:98:c2:17:66:71:67:fd:6e:eb:72:62:
                    bb:8a:c3:0c:41:2a:28:42:13:0f:35:60:30:c6:65:
                    ee:cc:a3:05:72:47:9c:b2:e1:9d:3d:0b:d7:b6:29:
                    70:34:9f:30:f3:39:3e:27:6a:68:5d:cc:b7:28:ff:
                    c9:3e:a2:4f:eb:78:4e:c7:70:d4:d9:b9:3e:de:c9:
                    17:b6:3b:62:68:07:eb:b5:6e:86:02:76:4f:20:fc:
                    98:d3
                Exponent: 65537 (0x10001)
        X509v3 extensions:
            X509v3 Basic Constraints: 
                CA:FALSE
            X509v3 Subject Key Identifier: 
                74:FF:28:02:51:07:B2:96:E2:69:FA:72:BD:E4:B6:72:DB:46:74:62
            X509v3 Authority Key Identifier: 
                keyid:CF:8A:55:CB:2D:84:88:8F:F4:35:53:6B:36:AD:BF:80:71:1B:D5:0B
                DirName:/CN=team443-net
                serial:0D:69:A2:E0:1B:43:A8:F9:39:42:B6:AF:90:BD:E5:70:42:E2:A3:DE
            X509v3 Extended Key Usage: 
                TLS Web Server Authentication
            X509v3 Key Usage: 
                Digital Signature, Key Encipherment
            X509v3 Subject Alternative Name: 
                DNS:team443-server
    Signature Algorithm: sha256WithRSAEncryption
    Signature Value:
        8f:8f:57:94:ac:d3:df:4a:91:c3:1a:d6:4d:d5:eb:75:20:e1:
        b5:fa:e3:73:61:a6:82:04:fc:44:a0:69:d4:5e:3b:0c:fd:b1:
        8f:cb:1b:3c:50:69:7e:a9:2d:c7:98:f6:89:be:1e:6b:d4:b5:
        01:78:31:92:17:34:b0:59:23:1e:8c:0b:4d:ea:a1:64:44:af:
        37:e9:c0:98:c4:36:04:a1:1c:f8:75:3e:1d:16:3e:79:d9:e6:
        c2:c8:a0:da:35:1c:bb:59:ed:9e:12:bc:1d:09:9a:25:89:aa:
        f8:e8:82:29:97:32:99:54:25:97:f2:bd:cf:9c:4c:c4:9e:07:
        5d:4d:96:1d:5f:ef:78:5a:16:45:af:0b:cd:5a:09:03:ad:c1:
        39:a5:70:98:73:9a:a5:af:51:ea:13:e7:3c:28:9f:00:6b:50:
        2e:2d:02:27:4b:97:25:56:6a:4d:33:07:2e:4a:8d:a0:df:62:
        36:0f:2a:c0:40:1a:77:c8:5a:64:2b:b6:ca:f0:b7:d6:09:22:
        24:96:e9:56:4d:24:01:a0:10:69:6e:c3:42:1d:70:41:43:fd:
        11:ed:3a:2f:ab:02:f8:e3:ae:ef:27:48:b4:6e:a9:f3:61:35:
        31:52:79:42:b8:d0:79:5c:de:7f:10:4a:ca:e7:63:d0:2d:80:
        d5:35:6b:64
-----BEGIN CERTIFICATE-----
MIIDeDCCAmCgAwIBAgIRAPhRqu0PisgYpFR6qkoraJAwDQYJKoZIhvcNAQELBQAw
FjEUMBIGA1UEAwwLdGVhbTQ0My1uZXQwHhcNMjMxMTA0MTA0ODM0WhcNMjYxMDE5
MTA0ODM0WjAZMRcwFQYDVQQDDA50ZWFtNDQzLXNlcnZlcjCCASIwDQYJKoZIhvcN
AQEBBQADggEPADCCAQoCggEBAO6khwBnavw0eXqhLrD7wyWuGPDQmVFh8JOE9cGN
WY7SusDdh4gUHkpk16K3Gy7BJ6mhYh41nZD8bx7jokFkKIHHUoLAVbZGJtqkc5fA
aJEHrySp8KRq6td/Px7ucsMGgIPRMdDvhQS4aACghIOraz7lKI5+1lh05gTprlDG
bXXYbEe1zcHm74aIqNhTLKmBvMH6Mh74yXs0LfkW26zwBm6y7gPzM1d4rZjCF2Zx
Z/1u63Jiu4rDDEEqKEITDzVgMMZl7syjBXJHnLLhnT0L17YpcDSfMPM5PidqaF3M
tyj/yT6iT+t4Tsdw1Nm5Pt7JF7Y7YmgH67VuhgJ2TyD8mNMCAwEAAaOBvTCBujAJ
BgNVHRMEAjAAMB0GA1UdDgQWBBR0/ygCUQeyluJp+nK95LZy20Z0YjBRBgNVHSME
SjBIgBTPilXLLYSIj/Q1U2s2rb+AcRvVC6EapBgwFjEUMBIGA1UEAwwLdGVhbTQ0
My1uZXSCFA1pouAbQ6j5OUK2r5C95XBC4qPeMBMGA1UdJQQMMAoGCCsGAQUFBwMB
MAsGA1UdDwQEAwIFoDAZBgNVHREEEjAQgg50ZWFtNDQzLXNlcnZlcjANBgkqhkiG
9w0BAQsFAAOCAQEAj49XlKzT30qRwxrWTdXrdSDhtfrjc2GmggT8RKBp1F47DP2x
j8sbPFBpfqktx5j2ib4ea9S1AXgxkhc0sFkjHowLTeqhZESvN+nAmMQ2BKEc+HU+
HRY+ednmwsig2jUcu1ntnhK8HQmaJYmq+OiCKZcymVQll/K9z5xMxJ4HXU2WHV/v
eFoWRa8LzVoJA63BOaVwmHOapa9R6hPnPCifAGtQLi0CJ0uXJVZqTTMHLkqNoN9i
Ng8qwEAad8haZCu2yvC31gkiJJbpVk0kAaAQaW7DQh1wQUP9Ee06L6sC+OOu7ydI
tG6p82E1MVJ5QrjQeVzefxBKyudj0C2A1TVrZA==
-----END CERTIFICATE-----
