Certificate:
    Data:
        Version: 3 (0x2)
        Serial Number:
            a7:d3:31:1f:5e:36:c6:28:c3:bb:55:05:fc:9d:5b:db
        Signature Algorithm: sha256WithRSAEncryption
        Issuer: CN=team326-net
        Validity
            Not Before: Nov  4 10:46:34 2023 GMT
            Not After : Oct 19 10:46:34 2026 GMT
        Subject: CN=team326-server
        Subject Public Key Info:
            Public Key Algorithm: rsaEncryption
                Public-Key: (2048 bit)
                Modulus:
                    00:b4:4e:31:c7:d2:80:bb:e2:41:f3:b0:24:09:77:
                    0c:66:04:b1:2f:41:95:6e:a3:86:85:a2:3e:35:fd:
                    9a:06:2e:0f:2c:1d:86:89:7c:1b:94:f2:4c:69:7f:
                    28:bb:61:e6:9f:13:08:54:ea:1f:84:ba:c4:0b:8a:
                    1b:88:6a:c8:e4:4a:76:8f:7b:86:f2:2e:c2:aa:8b:
                    b9:7f:d7:92:8c:aa:89:77:67:81:bb:1c:c8:f8:d8:
                    da:bd:1b:14:09:ba:5b:98:52:e2:39:ad:51:96:27:
                    5b:c1:67:85:e9:c0:ae:97:00:37:f9:be:da:a3:9c:
                    3f:0e:e2:41:12:2d:20:b9:44:f1:04:c6:bf:8f:5a:
                    49:d4:57:4f:48:c9:51:29:6d:51:4c:1b:a4:d7:2b:
                    ec:49:0d:09:c5:f7:68:c2:24:91:2f:1e:1c:99:fc:
                    35:88:91:76:45:12:60:0f:5d:c1:9b:84:ec:9b:46:
                    9a:01:2f:78:68:4d:6f:68:d3:fc:f0:c0:5a:ba:06:
                    ba:81:25:07:56:2a:8e:11:14:0b:69:0c:a7:9e:48:
                    70:04:63:ab:27:12:2b:8a:16:fd:e7:fa:2f:d8:f4:
                    08:b9:90:39:5b:d8:d3:dc:5a:b2:61:98:cc:4d:7b:
                    92:95:bf:13:d8:0b:e7:87:fd:d9:1c:2b:98:9f:37:
                    97:d1
                Exponent: 65537 (0x10001)
        X509v3 extensions:
            X509v3 Basic Constraints: 
                CA:FALSE
            X509v3 Subject Key Identifier: 
                76:FE:7A:5E:C4:AD:BD:59:C4:13:31:06:FD:37:D6:BD:A3:2F:1D:B8
            X509v3 Authority Key Identifier: 
                keyid:EA:BD:AF:C5:C4:AD:9C:84:09:BD:AD:1D:93:99:50:AE:FD:0D:C1:A2
                DirName:/CN=team326-net
                serial:7B:06:C3:F9:F7:EC:63:63:64:DC:35:A7:62:C0:C5:D5:11:4E:52:FE
            X509v3 Extended Key Usage: 
                TLS Web Server Authentication
            X509v3 Key Usage: 
                Digital Signature, Key Encipherment
            X509v3 Subject Alternative Name: 
                DNS:team326-server
    Signature Algorithm: sha256WithRSAEncryption
    Signature Value:
        57:0a:67:7b:1c:c4:9f:f8:c1:8e:0f:dd:94:54:57:d0:91:09:
        98:fe:b4:36:fb:35:69:3e:3a:22:47:ae:5b:50:d6:9f:88:0c:
        3f:c2:62:0b:5b:24:e2:a3:8d:7b:15:52:d7:6d:05:af:1a:4e:
        f5:b2:22:b8:ba:6f:e9:04:fd:95:ba:6e:2b:13:9f:6a:07:36:
        15:f4:53:0a:a5:ad:ba:74:d5:4d:e0:bc:d2:c6:2d:fe:6e:44:
        09:3b:6a:b1:53:44:a1:17:f5:9e:97:bd:9c:2f:8c:2f:11:4f:
        37:ea:9a:a9:a0:f9:43:7d:56:3c:11:4c:1a:a2:9b:2d:53:20:
        99:b0:bc:1e:88:ea:24:55:a7:19:a8:14:11:cf:41:80:73:8d:
        66:7d:ed:2d:a9:47:eb:06:cd:17:7b:8b:a8:17:ca:72:c0:c2:
        35:49:ba:e7:46:97:67:cc:15:c5:25:31:2c:63:87:ab:79:cc:
        6e:4f:b2:78:02:0e:d4:58:16:50:fa:45:77:1d:0b:87:b8:0c:
        21:64:ce:17:8e:55:b9:6f:f7:1b:fb:7e:ed:9a:7c:6e:95:33:
        24:88:36:9d:b4:d1:21:da:87:13:31:ca:99:c2:0a:1b:51:e3:
        28:db:8a:98:75:7d:f7:f6:15:64:c2:76:0c:45:8a:32:65:17:
        8a:32:31:56
-----BEGIN CERTIFICATE-----
MIIDeDCCAmCgAwIBAgIRAKfTMR9eNsYow7tVBfydW9swDQYJKoZIhvcNAQELBQAw
FjEUMBIGA1UEAwwLdGVhbTMyNi1uZXQwHhcNMjMxMTA0MTA0NjM0WhcNMjYxMDE5
MTA0NjM0WjAZMRcwFQYDVQQDDA50ZWFtMzI2LXNlcnZlcjCCASIwDQYJKoZIhvcN
AQEBBQADggEPADCCAQoCggEBALROMcfSgLviQfOwJAl3DGYEsS9BlW6jhoWiPjX9
mgYuDywdhol8G5TyTGl/KLth5p8TCFTqH4S6xAuKG4hqyORKdo97hvIuwqqLuX/X
koyqiXdngbscyPjY2r0bFAm6W5hS4jmtUZYnW8FnhenArpcAN/m+2qOcPw7iQRIt
ILlE8QTGv49aSdRXT0jJUSltUUwbpNcr7EkNCcX3aMIkkS8eHJn8NYiRdkUSYA9d
wZuE7JtGmgEveGhNb2jT/PDAWroGuoElB1YqjhEUC2kMp55IcARjqycSK4oW/ef6
L9j0CLmQOVvY09xasmGYzE17kpW/E9gL54f92RwrmJ83l9ECAwEAAaOBvTCBujAJ
BgNVHRMEAjAAMB0GA1UdDgQWBBR2/npexK29WcQTMQb9N9a9oy8duDBRBgNVHSME
SjBIgBTqva/FxK2chAm9rR2TmVCu/Q3BoqEapBgwFjEUMBIGA1UEAwwLdGVhbTMy
Ni1uZXSCFHsGw/n37GNjZNw1p2LAxdURTlL+MBMGA1UdJQQMMAoGCCsGAQUFBwMB
MAsGA1UdDwQEAwIFoDAZBgNVHREEEjAQgg50ZWFtMzI2LXNlcnZlcjANBgkqhkiG
9w0BAQsFAAOCAQEAVwpnexzEn/jBjg/dlFRX0JEJmP60Nvs1aT46IkeuW1DWn4gM
P8JiC1sk4qONexVS120FrxpO9bIiuLpv6QT9lbpuKxOfagc2FfRTCqWtunTVTeC8
0sYt/m5ECTtqsVNEoRf1npe9nC+MLxFPN+qaqaD5Q31WPBFMGqKbLVMgmbC8Hojq
JFWnGagUEc9BgHONZn3tLalH6wbNF3uLqBfKcsDCNUm650aXZ8wVxSUxLGOHq3nM
bk+yeAIO1FgWUPpFdx0Lh7gMIWTOF45VuW/3G/t+7Zp8bpUzJIg2nbTRIdqHEzHK
mcIKG1HjKNuKmHV99/YVZMJ2DEWKMmUXijIxVg==
-----END CERTIFICATE-----
