Certificate:
    Data:
        Version: 3 (0x2)
        Serial Number:
            12:cd:ea:09:a3:c5:44:8c:87:07:17:40:c0:aa:d6:25
        Signature Algorithm: sha256WithRSAEncryption
        Issuer: CN=team494-net
        Validity
            Not Before: Nov  4 11:38:48 2023 GMT
            Not After : Oct 19 11:38:48 2026 GMT
        Subject: CN=team494-server
        Subject Public Key Info:
            Public Key Algorithm: rsaEncryption
                Public-Key: (2048 bit)
                Modulus:
                    00:b9:8a:df:bc:92:f8:50:ad:e9:d4:4f:73:16:d1:
                    9f:32:8c:ad:38:8e:c8:eb:8a:cc:9d:6d:51:b5:71:
                    78:d5:29:13:ce:9b:7b:85:5c:82:ad:6b:db:51:e6:
                    09:c7:62:80:73:c8:3b:3f:0d:34:71:10:ec:fe:f1:
                    3d:d3:1a:4e:b3:f4:70:b3:74:41:0f:f5:67:ab:7c:
                    38:7e:40:f2:03:58:52:31:83:3d:71:7e:72:cd:75:
                    ae:e9:f6:ba:4f:38:38:04:ae:1b:d8:c2:6b:4a:3b:
                    d1:21:46:b8:a9:73:3b:1d:1d:78:61:5e:a2:65:ed:
                    6f:66:85:65:c0:56:00:d1:43:98:99:b7:fb:b0:58:
                    8c:4a:95:8c:c8:3f:65:1d:da:9e:ec:9e:b0:d8:43:
                    8c:13:d5:db:e9:c3:1d:6c:3f:20:83:9e:74:7a:58:
                    9e:52:14:d8:9e:3f:3a:35:74:e1:7d:fe:71:1c:2f:
                    d5:56:4a:8f:37:b4:1e:c5:80:a9:25:7c:b2:0d:aa:
                    5a:ab:83:df:e6:68:89:37:b9:02:7e:0a:5c:a2:1f:
                    ba:ee:de:91:03:f9:4c:d6:35:d4:94:a0:de:51:e6:
                    b8:71:4a:f5:53:e0:2a:cc:bb:da:5c:3b:c9:ab:d5:
                    69:77:ea:37:a3:28:2a:46:b9:af:61:6f:0c:78:4c:
                    2d:0f
                Exponent: 65537 (0x10001)
        X509v3 extensions:
            X509v3 Basic Constraints: 
                CA:FALSE
            X509v3 Subject Key Identifier: 
                0E:91:23:8C:AF:DC:D5:BC:F3:22:58:CF:F6:CB:84:F9:DE:69:74:19
            X509v3 Authority Key Identifier: 
                keyid:59:3B:E4:C9:6D:B3:F0:E2:97:E5:45:5B:C2:D2:A7:21:3E:0B:69:B0
                DirName:/CN=team494-net
                serial:4C:C2:FF:A3:A5:DF:AB:D0:EC:88:7A:77:3E:D5:4B:C2:BB:55:3B:A3
            X509v3 Extended Key Usage: 
                TLS Web Server Authentication
            X509v3 Key Usage: 
                Digital Signature, Key Encipherment
            X509v3 Subject Alternative Name: 
                DNS:team494-server
    Signature Algorithm: sha256WithRSAEncryption
    Signature Value:
        6e:4b:a0:5e:f7:b2:e9:c8:ba:4d:e9:60:ea:7f:39:96:61:a8:
        23:b7:6b:58:10:76:9c:6a:d7:03:20:d9:02:52:29:dd:8c:a2:
        e9:27:3c:78:32:bd:95:ef:eb:ed:d9:29:96:5a:82:2e:d4:86:
        17:e8:18:4d:1e:b1:63:75:74:f1:e0:23:45:e1:31:05:24:9b:
        53:9b:62:af:66:93:af:79:ff:b3:fe:59:02:02:20:a6:66:02:
        cd:2a:a8:80:6a:1c:4e:62:19:99:93:7b:ae:b0:32:2d:23:e7:
        84:c4:61:08:86:bd:93:36:68:2e:71:46:9f:c9:37:ff:91:07:
        48:ed:26:fa:5b:48:50:55:0e:7a:c9:0f:51:cd:f1:57:6b:88:
        ec:31:77:21:27:97:74:81:c4:c5:65:5e:03:c9:cc:1d:71:56:
        64:39:ae:52:74:c2:ef:dd:bc:85:ba:73:e5:c4:50:f8:40:d1:
        24:ae:1a:2e:28:01:32:2c:e7:13:5b:89:2c:b1:2e:35:22:1d:
        4f:9a:87:5a:9e:4d:9c:10:e6:f4:ac:7c:48:ab:54:70:28:f9:
        cc:45:12:65:62:f7:2d:93:8a:69:d2:ec:a9:fa:3d:53:41:3a:
        81:47:48:40:80:db:4e:d0:2c:81:3d:57:df:b0:1b:51:59:3f:
        50:e4:1c:40
-----BEGIN CERTIFICATE-----
MIIDdzCCAl+gAwIBAgIQEs3qCaPFRIyHBxdAwKrWJTANBgkqhkiG9w0BAQsFADAW
MRQwEgYDVQQDDAt0ZWFtNDk0LW5ldDAeFw0yMzExMDQxMTM4NDhaFw0yNjEwMTkx
MTM4NDhaMBkxFzAVBgNVBAMMDnRlYW00OTQtc2VydmVyMIIBIjANBgkqhkiG9w0B
AQEFAAOCAQ8AMIIBCgKCAQEAuYrfvJL4UK3p1E9zFtGfMoytOI7I64rMnW1RtXF4
1SkTzpt7hVyCrWvbUeYJx2KAc8g7Pw00cRDs/vE90xpOs/Rws3RBD/Vnq3w4fkDy
A1hSMYM9cX5yzXWu6fa6Tzg4BK4b2MJrSjvRIUa4qXM7HR14YV6iZe1vZoVlwFYA
0UOYmbf7sFiMSpWMyD9lHdqe7J6w2EOME9Xb6cMdbD8gg550elieUhTYnj86NXTh
ff5xHC/VVkqPN7QexYCpJXyyDapaq4Pf5miJN7kCfgpcoh+67t6RA/lM1jXUlKDe
Uea4cUr1U+AqzLvaXDvJq9Vpd+o3oygqRrmvYW8MeEwtDwIDAQABo4G9MIG6MAkG
A1UdEwQCMAAwHQYDVR0OBBYEFA6RI4yv3NW88yJYz/bLhPneaXQZMFEGA1UdIwRK
MEiAFFk75Mlts/Dil+VFW8LSpyE+C2mwoRqkGDAWMRQwEgYDVQQDDAt0ZWFtNDk0
LW5ldIIUTML/o6Xfq9DsiHp3PtVLwrtVO6MwEwYDVR0lBAwwCgYIKwYBBQUHAwEw
CwYDVR0PBAQDAgWgMBkGA1UdEQQSMBCCDnRlYW00OTQtc2VydmVyMA0GCSqGSIb3
DQEBCwUAA4IBAQBuS6Be97LpyLpN6WDqfzmWYagjt2tYEHacatcDINkCUindjKLp
Jzx4Mr2V7+vt2SmWWoIu1IYX6BhNHrFjdXTx4CNF4TEFJJtTm2KvZpOvef+z/lkC
AiCmZgLNKqiAahxOYhmZk3uusDItI+eExGEIhr2TNmgucUafyTf/kQdI7Sb6W0hQ
VQ56yQ9RzfFXa4jsMXchJ5d0gcTFZV4DycwdcVZkOa5SdMLv3byFunPlxFD4QNEk
rhouKAEyLOcTW4kssS41Ih1Pmodank2cEOb0rHxIq1RwKPnMRRJlYvctk4pp0uyp
+j1TQTqBR0hAgNtO0CyBPVffsBtRWT9Q5BxA
-----END CERTIFICATE-----
