Certificate:
    Data:
        Version: 3 (0x2)
        Serial Number:
            63:00:36:8f:e5:f4:7f:99:7c:8e:54:5e:d0:d9:8a:29
        Signature Algorithm: sha256WithRSAEncryption
        Issuer: CN=team494-net
        Validity
            Not Before: Nov  4 11:38:47 2023 GMT
            Not After : Oct 19 11:38:47 2026 GMT
        Subject: CN=team494-client
        Subject Public Key Info:
            Public Key Algorithm: rsaEncryption
                Public-Key: (2048 bit)
                Modulus:
                    00:c1:ac:f5:64:fd:5b:ea:d5:d3:d8:fe:57:65:27:
                    7b:0f:4b:f0:7d:e9:36:2c:03:e3:1f:ad:89:95:34:
                    d8:03:89:93:c5:a7:05:25:92:c3:a4:e1:d5:c6:c6:
                    2e:70:4e:91:c0:6c:f0:67:62:a5:9b:3b:ae:05:e2:
                    aa:8a:f8:d1:02:0f:a5:3f:d1:8d:b9:11:33:b8:7b:
                    c6:f0:24:69:ad:5e:5e:21:95:81:b1:80:8f:ee:16:
                    d4:0b:c8:e4:a7:bb:06:48:bf:ea:5d:79:d6:2b:e4:
                    0f:1b:09:a0:85:41:e1:01:d1:92:b2:8b:2e:a3:57:
                    b6:38:54:8e:d9:1c:20:71:5a:8b:c0:4d:13:be:b4:
                    f9:a4:41:33:33:ed:66:3f:50:4b:cb:4b:2e:18:52:
                    24:5f:05:d8:1b:8e:53:b9:a3:bb:50:5e:3f:8f:6d:
                    f3:7a:e5:02:f3:45:89:21:16:03:fd:5d:1b:d2:f1:
                    79:1e:f5:7a:45:06:d2:f2:a7:ec:43:2f:d5:8f:4e:
                    8f:b1:4f:6c:e2:f0:19:0f:5e:ab:da:56:e6:23:0e:
                    e7:71:a0:cb:cd:fc:e1:13:6c:89:a7:d5:32:82:16:
                    f6:83:dc:26:26:a0:a4:8d:42:f4:9f:c1:34:fd:f2:
                    7c:81:93:65:15:8d:d4:e5:40:6d:9a:5f:45:bb:19:
                    ff:91
                Exponent: 65537 (0x10001)
        X509v3 extensions:
            X509v3 Basic Constraints: 
                CA:FALSE
            X509v3 Subject Key Identifier: 
                B3:DD:36:EC:7E:7C:05:96:64:39:C9:AA:44:C9:0D:73:4B:37:CD:19
            X509v3 Authority Key Identifier: 
                keyid:59:3B:E4:C9:6D:B3:F0:E2:97:E5:45:5B:C2:D2:A7:21:3E:0B:69:B0
                DirName:/CN=team494-net
                serial:4C:C2:FF:A3:A5:DF:AB:D0:EC:88:7A:77:3E:D5:4B:C2:BB:55:3B:A3
            X509v3 Extended Key Usage: 
                TLS Web Client Authentication
            X509v3 Key Usage: 
                Digital Signature
    Signature Algorithm: sha256WithRSAEncryption
    Signature Value:
        4a:d6:c1:df:44:ce:3f:8a:a1:e7:ae:f5:82:0a:b0:a0:5b:58:
        a6:ff:21:ae:fc:a5:69:92:5d:ba:0f:23:50:2f:c9:4f:6d:70:
        0a:09:c3:41:60:95:38:9f:8b:e9:f2:5b:5e:5c:cd:e8:51:54:
        2e:8c:fc:59:8a:3e:7c:8a:1b:6f:93:4a:83:a8:79:52:96:9c:
        d0:39:f1:bb:16:bf:40:e7:9b:06:c6:e9:f9:28:01:a3:d4:f4:
        a1:02:0e:b3:17:3e:ab:53:85:d2:df:d6:c9:96:44:2e:8d:b5:
        e6:95:4d:41:82:56:7b:95:ea:bc:ff:6b:0c:91:ce:61:54:75:
        81:d4:47:df:33:1b:d1:22:6c:da:1b:fd:e1:85:44:f0:df:06:
        3f:74:08:20:b5:a6:09:49:5d:73:d8:44:96:a4:ca:9c:22:51:
        00:c8:c1:a8:cf:00:ab:81:24:71:3d:9c:5b:3d:bd:c0:60:ec:
        e5:dd:fa:42:d8:55:37:ce:4a:a4:f6:e6:c9:de:53:5f:bf:44:
        22:60:30:54:c1:35:15:45:d3:e0:02:a3:64:ad:d0:05:c5:20:
        c1:43:48:e5:de:23:44:f8:65:7d:5a:68:96:d0:8c:6e:1b:bb:
        5a:f0:cf:73:f7:a4:4d:c3:73:b7:cc:ba:55:40:39:53:01:b5:
        2b:89:bb:ee
-----BEGIN CERTIFICATE-----
MIIDXDCCAkSgAwIBAgIQYwA2j+X0f5l8jlRe0NmKKTANBgkqhkiG9w0BAQsFADAW
MRQwEgYDVQQDDAt0ZWFtNDk0LW5ldDAeFw0yMzExMDQxMTM4NDdaFw0yNjEwMTkx
MTM4NDdaMBkxFzAVBgNVBAMMDnRlYW00OTQtY2xpZW50MIIBIjANBgkqhkiG9w0B
AQEFAAOCAQ8AMIIBCgKCAQEAwaz1ZP1b6tXT2P5XZSd7D0vwfek2LAPjH62JlTTY
A4mTxacFJZLDpOHVxsYucE6RwGzwZ2KlmzuuBeKqivjRAg+lP9GNuREzuHvG8CRp
rV5eIZWBsYCP7hbUC8jkp7sGSL/qXXnWK+QPGwmghUHhAdGSsosuo1e2OFSO2Rwg
cVqLwE0TvrT5pEEzM+1mP1BLy0suGFIkXwXYG45TuaO7UF4/j23zeuUC80WJIRYD
/V0b0vF5HvV6RQbS8qfsQy/Vj06PsU9s4vAZD16r2lbmIw7ncaDLzfzhE2yJp9Uy
ghb2g9wmJqCkjUL0n8E0/fJ8gZNlFY3U5UBtml9Fuxn/kQIDAQABo4GiMIGfMAkG
A1UdEwQCMAAwHQYDVR0OBBYEFLPdNux+fAWWZDnJqkTJDXNLN80ZMFEGA1UdIwRK
MEiAFFk75Mlts/Dil+VFW8LSpyE+C2mwoRqkGDAWMRQwEgYDVQQDDAt0ZWFtNDk0
LW5ldIIUTML/o6Xfq9DsiHp3PtVLwrtVO6MwEwYDVR0lBAwwCgYIKwYBBQUHAwIw
CwYDVR0PBAQDAgeAMA0GCSqGSIb3DQEBCwUAA4IBAQBK1sHfRM4/iqHnrvWCCrCg
W1im/yGu/KVpkl26DyNQL8lPbXAKCcNBYJU4n4vp8lteXM3oUVQujPxZij58ihtv
k0qDqHlSlpzQOfG7Fr9A55sGxun5KAGj1PShAg6zFz6rU4XS39bJlkQujbXmlU1B
glZ7leq8/2sMkc5hVHWB1EffMxvRImzaG/3hhUTw3wY/dAggtaYJSV1z2ESWpMqc
IlEAyMGozwCrgSRxPZxbPb3AYOzl3fpC2FU3zkqk9ubJ3lNfv0QiYDBUwTUVRdPg
AqNkrdAFxSDBQ0jl3iNE+GV9WmiW0IxuG7ta8M9z96RNw3O3zLpVQDlTAbUribvu
-----END CERTIFICATE-----
