Certificate:
    Data:
        Version: 3 (0x2)
        Serial Number:
            09:07:17:46:1c:f2:d4:bd:58:13:fc:25:b7:3b:49:9f
        Signature Algorithm: sha256WithRSAEncryption
        Issuer: CN=team117-net
        Validity
            Not Before: Nov  3 20:41:14 2023 GMT
            Not After : Oct 18 20:41:14 2026 GMT
        Subject: CN=team117-server
        Subject Public Key Info:
            Public Key Algorithm: rsaEncryption
                Public-Key: (2048 bit)
                Modulus:
                    00:95:48:ef:f7:e4:82:ed:ba:0f:e9:6f:df:cf:46:
                    eb:d1:59:65:65:10:39:f7:12:0e:96:fc:da:0d:85:
                    72:33:cc:df:4f:02:10:b9:58:e5:29:bc:89:af:47:
                    1a:64:8c:d7:e1:3e:b5:7e:ea:c9:b4:36:33:6f:48:
                    5c:55:ac:cf:5a:b9:e6:ee:0d:5a:95:c2:64:0e:41:
                    6b:48:80:f9:bf:8f:69:97:dc:8b:19:27:4f:d2:dd:
                    ba:e5:ea:6b:5c:c5:bc:b0:88:71:23:5a:14:2b:ce:
                    73:77:79:1a:fd:2e:d3:14:05:07:a9:b1:63:72:7f:
                    fa:31:f9:c4:e8:b0:2a:10:46:c0:37:98:e8:4f:02:
                    f6:3f:9b:5d:65:ba:ca:fe:eb:b2:20:9a:72:8c:41:
                    e2:e9:da:b9:19:1d:ba:04:ba:e2:a2:02:0f:f6:04:
                    30:8f:88:71:b1:f6:97:bd:c1:4a:70:01:36:68:9e:
                    ee:8e:26:6f:93:df:21:83:04:38:7e:fb:2b:af:9b:
                    d0:c2:11:15:5a:30:62:2c:f2:e6:e1:d2:34:48:ee:
                    67:06:e0:be:bf:3b:6a:06:20:6f:af:34:b2:30:d8:
                    39:d8:a1:65:6c:ca:17:5e:df:5c:80:3e:0f:e0:09:
                    a0:1d:58:90:c8:e5:38:2d:c7:ac:02:9c:a9:9c:0e:
                    fd:6f
                Exponent: 65537 (0x10001)
        X509v3 extensions:
            X509v3 Basic Constraints: 
                CA:FALSE
            X509v3 Subject Key Identifier: 
                4B:3F:EC:01:75:06:D8:EF:69:43:22:8A:0C:5C:D8:08:EE:FE:BB:4B
            X509v3 Authority Key Identifier: 
                keyid:EE:CF:AF:59:AA:83:4A:03:4C:B1:D0:65:3D:61:48:E9:F3:AC:69:27
                DirName:/CN=team117-net
                serial:10:55:75:39:80:ED:BC:ED:6C:44:02:E7:FC:C6:24:EA:A7:C4:5A:BC
            X509v3 Extended Key Usage: 
                TLS Web Server Authentication
            X509v3 Key Usage: 
                Digital Signature, Key Encipherment
            X509v3 Subject Alternative Name: 
                DNS:team117-server
    Signature Algorithm: sha256WithRSAEncryption
    Signature Value:
        5c:e9:eb:a4:b7:a4:a0:3a:b0:1d:dd:8c:b2:66:89:cc:3d:d6:
        71:b7:a3:f7:d0:be:1e:56:a7:fa:74:9f:7b:6c:bd:f5:75:51:
        71:55:5e:5d:14:f5:68:b3:31:d4:f9:d3:9b:b8:50:6f:e1:24:
        61:ed:83:2c:7d:18:68:15:3f:3e:5d:ec:d7:2f:8d:62:6a:92:
        56:b7:6c:64:ca:68:a9:69:c9:7c:82:ff:e6:25:21:12:55:c9:
        53:30:ab:1e:73:38:8f:cf:e8:ba:55:34:6b:a2:0e:d8:17:77:
        ca:6e:b4:de:ae:f1:d0:76:d8:62:2b:79:27:35:1a:b9:1a:0a:
        e6:8b:e8:3e:28:2e:26:f7:56:0c:36:3d:e8:d4:41:1a:6c:9f:
        c9:f1:bb:a6:16:98:14:e3:a3:8e:f7:7b:bf:cf:bc:1c:b9:8e:
        c8:d8:b1:44:b9:d8:3a:88:01:2a:68:96:84:6c:e6:88:e7:70:
        55:e5:d7:a3:8d:69:db:1e:c6:3a:e2:36:50:06:4b:70:d4:e2:
        6d:21:5d:cb:56:d5:8c:87:2d:5c:c9:8a:8b:6b:95:42:5b:f8:
        af:a4:c4:e5:f4:16:99:91:d9:f3:74:bc:44:1c:dc:77:e3:a5:
        71:b6:c3:e7:c8:9f:b9:1b:ab:d3:91:16:59:ab:2e:62:1c:53:
        c1:24:16:25
-----BEGIN CERTIFICATE-----
MIIDdzCCAl+gAwIBAgIQCQcXRhzy1L1YE/wltztJnzANBgkqhkiG9w0BAQsFADAW
MRQwEgYDVQQDDAt0ZWFtMTE3LW5ldDAeFw0yMzExMDMyMDQxMTRaFw0yNjEwMTgy
MDQxMTRaMBkxFzAVBgNVBAMMDnRlYW0xMTctc2VydmVyMIIBIjANBgkqhkiG9w0B
AQEFAAOCAQ8AMIIBCgKCAQEAlUjv9+SC7boP6W/fz0br0VllZRA59xIOlvzaDYVy
M8zfTwIQuVjlKbyJr0caZIzX4T61furJtDYzb0hcVazPWrnm7g1alcJkDkFrSID5
v49pl9yLGSdP0t265eprXMW8sIhxI1oUK85zd3ka/S7TFAUHqbFjcn/6MfnE6LAq
EEbAN5joTwL2P5tdZbrK/uuyIJpyjEHi6dq5GR26BLriogIP9gQwj4hxsfaXvcFK
cAE2aJ7ujiZvk98hgwQ4fvsrr5vQwhEVWjBiLPLm4dI0SO5nBuC+vztqBiBvrzSy
MNg52KFlbMoXXt9cgD4P4AmgHViQyOU4LcesApypnA79bwIDAQABo4G9MIG6MAkG
A1UdEwQCMAAwHQYDVR0OBBYEFEs/7AF1BtjvaUMiigxc2Aju/rtLMFEGA1UdIwRK
MEiAFO7Pr1mqg0oDTLHQZT1hSOnzrGknoRqkGDAWMRQwEgYDVQQDDAt0ZWFtMTE3
LW5ldIIUEFV1OYDtvO1sRALn/MYk6qfEWrwwEwYDVR0lBAwwCgYIKwYBBQUHAwEw
CwYDVR0PBAQDAgWgMBkGA1UdEQQSMBCCDnRlYW0xMTctc2VydmVyMA0GCSqGSIb3
DQEBCwUAA4IBAQBc6eukt6SgOrAd3YyyZonMPdZxt6P30L4eVqf6dJ97bL31dVFx
VV5dFPVoszHU+dObuFBv4SRh7YMsfRhoFT8+XezXL41iapJWt2xkymipacl8gv/m
JSESVclTMKsecziPz+i6VTRrog7YF3fKbrTervHQdthiK3knNRq5Ggrmi+g+KC4m
91YMNj3o1EEabJ/J8bumFpgU46OO93u/z7wcuY7I2LFEudg6iAEqaJaEbOaI53BV
5dejjWnbHsY64jZQBktw1OJtIV3LVtWMhy1cyYqLa5VCW/ivpMTl9BaZkdnzdLxE
HNx346VxtsPnyJ+5G6vTkRZZqy5iHFPBJBYl
-----END CERTIFICATE-----
