Certificate:
    Data:
        Version: 3 (0x2)
        Serial Number:
            ae:14:ca:58:5e:19:51:43:81:ab:75:c3:cd:e8:f3:92
        Signature Algorithm: sha256WithRSAEncryption
        Issuer: CN=team88-net
        Validity
            Not Before: Nov  3 20:40:42 2023 GMT
            Not After : Oct 18 20:40:42 2026 GMT
        Subject: CN=team88-client
        Subject Public Key Info:
            Public Key Algorithm: rsaEncryption
                Public-Key: (2048 bit)
                Modulus:
                    00:a2:6b:68:0b:97:cc:ac:b2:c0:b8:83:4d:33:8b:
                    a1:5d:dd:90:89:2d:97:e2:de:ed:c8:5e:9c:88:c6:
                    df:4a:79:c0:a2:1d:20:c8:74:2c:27:f4:27:b2:6a:
                    4b:2d:f8:af:48:0e:99:36:a3:10:68:41:76:08:09:
                    20:d8:cb:ed:83:ba:11:c5:f4:e8:50:0a:6a:17:87:
                    32:7b:a3:ee:7c:a2:23:f0:32:ec:2a:53:9d:33:3c:
                    e8:4c:ce:ca:14:32:f3:cc:d8:66:78:5f:69:e4:1f:
                    5c:02:4c:3c:86:dd:26:00:12:9d:98:94:32:73:79:
                    da:1e:3f:44:ea:95:a0:1d:64:b3:93:11:12:1a:55:
                    ad:b2:f8:5f:e9:5a:56:54:d9:7f:83:04:8c:14:71:
                    23:7a:d3:5a:d4:68:0a:da:4e:64:46:10:e0:d3:98:
                    83:0a:74:99:cb:c0:e0:a7:01:71:19:5b:74:18:94:
                    ac:ef:8c:e6:1a:dc:1b:60:29:56:d1:f0:51:65:12:
                    8e:47:7e:d7:ea:c7:62:f7:b7:46:1e:b1:1c:ab:ca:
                    d3:66:0d:67:c4:99:3d:46:3b:83:9b:4c:1c:27:f5:
                    b7:d7:1b:28:cf:32:36:89:c5:b2:8c:d3:b9:1b:17:
                    93:9e:11:f5:be:77:f9:bb:0e:0f:dc:f0:ad:cf:08:
                    04:df
                Exponent: 65537 (0x10001)
        X509v3 extensions:
            X509v3 Basic Constraints: 
                CA:FALSE
            X509v3 Subject Key Identifier: 
                CF:52:A6:14:3A:36:F4:81:7E:9E:B6:76:AC:09:B4:90:BF:F8:0A:22
            X509v3 Authority Key Identifier: 
                keyid:AA:B4:23:4D:CE:D3:7D:73:0E:93:D1:CA:33:65:EE:05:0C:5F:46:B8
                DirName:/CN=team88-net
                serial:27:CD:98:FF:85:A9:53:8E:C0:FA:66:0E:2A:61:CB:7A:48:07:5F:4F
            X509v3 Extended Key Usage: 
                TLS Web Client Authentication
            X509v3 Key Usage: 
                Digital Signature
    Signature Algorithm: sha256WithRSAEncryption
    Signature Value:
        6f:2c:39:68:91:6d:cd:68:61:bc:5e:b3:03:d3:2e:f9:14:3a:
        74:16:76:ec:04:f6:49:82:8c:79:4a:96:f8:a5:08:2c:36:44:
        0f:e8:84:bc:c7:40:92:b5:d9:61:17:e1:7a:d7:21:19:bb:5c:
        c8:73:ab:a5:ce:77:bc:d2:da:5a:88:b2:d7:b4:7a:b7:d0:9f:
        1b:68:dd:47:06:ec:47:44:91:0e:89:25:c1:93:0f:10:84:22:
        36:22:0f:83:ee:9c:f0:28:f6:26:82:1c:6a:13:68:ad:f0:82:
        03:ac:89:1d:6e:7f:1b:b0:bf:e4:6c:e9:34:03:f5:97:0a:4d:
        14:cc:72:5f:51:ca:4f:18:e2:eb:2c:7c:f8:44:ea:fd:04:c4:
        61:6e:97:67:c2:fc:47:82:21:6b:53:f6:e1:fe:8d:fd:6a:bc:
        18:a4:42:14:58:f9:1c:5e:de:ab:ea:b6:3b:40:17:09:57:67:
        3d:36:e0:d7:5b:20:b2:ca:cd:f5:cd:5c:b5:4f:1f:1c:b6:0b:
        c5:d1:ab:1a:56:23:e0:6a:17:10:f1:61:45:70:2e:52:b1:44:
        d8:bc:0a:8f:ff:c0:9c:63:4a:56:a0:52:ad:a2:01:fd:89:b8:
        9a:90:e7:a0:ab:b5:56:ff:e8:22:2f:58:7f:b0:e1:41:a7:e6:
        27:82:13:86
-----BEGIN CERTIFICATE-----
MIIDWjCCAkKgAwIBAgIRAK4UylheGVFDgat1w83o85IwDQYJKoZIhvcNAQELBQAw
FTETMBEGA1UEAwwKdGVhbTg4LW5ldDAeFw0yMzExMDMyMDQwNDJaFw0yNjEwMTgy
MDQwNDJaMBgxFjAUBgNVBAMMDXRlYW04OC1jbGllbnQwggEiMA0GCSqGSIb3DQEB
AQUAA4IBDwAwggEKAoIBAQCia2gLl8ysssC4g00zi6Fd3ZCJLZfi3u3IXpyIxt9K
ecCiHSDIdCwn9Ceyakst+K9IDpk2oxBoQXYICSDYy+2DuhHF9OhQCmoXhzJ7o+58
oiPwMuwqU50zPOhMzsoUMvPM2GZ4X2nkH1wCTDyG3SYAEp2YlDJzedoeP0TqlaAd
ZLOTERIaVa2y+F/pWlZU2X+DBIwUcSN601rUaAraTmRGEODTmIMKdJnLwOCnAXEZ
W3QYlKzvjOYa3BtgKVbR8FFlEo5Hftfqx2L3t0YesRyrytNmDWfEmT1GO4ObTBwn
9bfXGyjPMjaJxbKM07kbF5OeEfW+d/m7Dg/c8K3PCATfAgMBAAGjgaEwgZ4wCQYD
VR0TBAIwADAdBgNVHQ4EFgQUz1KmFDo29IF+nrZ2rAm0kL/4CiIwUAYDVR0jBEkw
R4AUqrQjTc7TfXMOk9HKM2XuBQxfRrihGaQXMBUxEzARBgNVBAMMCnRlYW04OC1u
ZXSCFCfNmP+FqVOOwPpmDiphy3pIB19PMBMGA1UdJQQMMAoGCCsGAQUFBwMCMAsG
A1UdDwQEAwIHgDANBgkqhkiG9w0BAQsFAAOCAQEAbyw5aJFtzWhhvF6zA9Mu+RQ6
dBZ27AT2SYKMeUqW+KUILDZED+iEvMdAkrXZYRfhetchGbtcyHOrpc53vNLaWoiy
17R6t9CfG2jdRwbsR0SRDoklwZMPEIQiNiIPg+6c8Cj2JoIcahNorfCCA6yJHW5/
G7C/5GzpNAP1lwpNFMxyX1HKTxji6yx8+ETq/QTEYW6XZ8L8R4Iha1P24f6N/Wq8
GKRCFFj5HF7eq+q2O0AXCVdnPTbg11sgssrN9c1ctU8fHLYLxdGrGlYj4GoXEPFh
RXAuUrFE2LwKj//AnGNKVqBSraIB/Ym4mpDnoKu1Vv/oIi9Yf7DhQafmJ4IThg==
-----END CERTIFICATE-----
