Certificate:
    Data:
        Version: 3 (0x2)
        Serial Number:
            74:c8:43:a9:68:a9:4a:bb:e9:c4:9b:68:89:53:b0:cf
        Signature Algorithm: sha256WithRSAEncryption
        Issuer: CN=team1-net
        Validity
            Not Before: Nov  4 11:27:26 2023 GMT
            Not After : Oct 19 11:27:26 2026 GMT
        Subject: CN=team1-client
        Subject Public Key Info:
            Public Key Algorithm: rsaEncryption
                Public-Key: (2048 bit)
                Modulus:
                    00:bb:74:91:5a:09:f2:98:6e:3d:01:ea:ed:04:1b:
                    70:7d:8c:7d:5d:e4:8a:31:27:df:e6:6b:0e:be:c0:
                    3c:be:98:21:49:83:c7:2e:13:46:b1:8e:1c:e5:ed:
                    14:70:6b:a2:5b:1f:06:73:4b:1a:44:6e:da:63:57:
                    11:66:cc:1d:72:f8:0f:a7:ee:46:2e:38:88:85:53:
                    5e:a4:aa:a6:e6:29:64:60:f0:e1:6d:20:7a:52:2a:
                    8d:35:45:03:3b:12:ae:c9:1b:75:56:b8:ae:28:16:
                    b2:7d:63:a7:f5:8e:c6:ac:7c:95:e8:f1:60:22:01:
                    44:28:8f:24:8a:b0:d3:20:b0:13:1d:57:ed:73:00:
                    37:43:1e:93:10:e9:48:87:19:a1:d0:d5:2b:7f:ca:
                    9a:44:71:9c:81:74:c9:a1:1b:0a:47:15:ad:ab:f9:
                    f5:2a:ce:14:e7:34:43:e5:c9:19:9b:6d:5e:d6:f1:
                    0a:09:68:66:b1:bd:ec:69:1b:a9:7f:17:56:ed:07:
                    fd:58:cc:cf:0f:40:a0:d5:df:4e:2c:db:68:ab:87:
                    9d:6a:3b:a4:7e:47:d8:dc:d8:a3:31:ff:99:c2:c7:
                    70:2f:1a:b7:cd:61:98:c3:c1:d0:77:33:45:2d:d1:
                    2a:20:b9:3b:e6:c9:88:58:8e:69:cb:84:b4:0f:92:
                    48:1f
                Exponent: 65537 (0x10001)
        X509v3 extensions:
            X509v3 Basic Constraints: 
                CA:FALSE
            X509v3 Subject Key Identifier: 
                86:E7:31:5B:7A:53:65:9F:E9:56:BE:03:30:21:9B:BC:D7:6B:44:7C
            X509v3 Authority Key Identifier: 
                keyid:0F:24:AD:77:20:27:FB:FB:51:1F:65:34:1A:B6:5A:7C:B0:50:FA:44
                DirName:/CN=team1-net
                serial:39:DC:8C:4F:DD:7F:0B:28:EC:1B:F1:1C:A8:B5:34:D5:F6:13:7B:88
            X509v3 Extended Key Usage: 
                TLS Web Client Authentication
            X509v3 Key Usage: 
                Digital Signature
    Signature Algorithm: sha256WithRSAEncryption
    Signature Value:
        58:2d:57:c0:3b:c1:a6:e3:fd:c7:68:fa:51:a1:40:17:b6:a1:
        dc:76:81:7b:c7:c9:f9:b2:25:0c:b5:c5:d7:9e:6f:67:b0:22:
        c6:aa:12:16:83:be:4e:e2:50:f0:88:45:44:fc:55:24:91:bd:
        43:82:3f:92:b5:fa:8e:5b:46:f4:43:8a:ca:af:ac:0a:06:37:
        40:dd:c7:6f:03:f5:21:79:6f:5b:70:d6:25:f3:45:3a:9a:08:
        d3:32:90:a6:1d:71:a6:97:b8:3b:04:fe:5a:c2:a4:7a:1e:3d:
        be:3e:ac:22:45:6e:8f:01:75:81:74:7d:77:34:91:f1:3e:11:
        55:72:f4:75:53:c0:bb:68:12:1f:fe:13:82:38:d8:66:ba:63:
        04:c3:ad:65:52:15:2a:ac:bc:b4:a4:f7:cb:5d:e5:d9:f0:6a:
        44:19:08:b4:44:cc:73:72:75:bd:10:d1:4a:e7:51:51:7b:ca:
        e3:59:e9:4f:2b:ac:c2:4d:fe:bc:3b:c3:88:de:3a:fd:5a:1e:
        f9:03:84:9e:38:ec:35:04:a9:85:47:d4:1b:a1:f6:a6:c8:73:
        0a:d9:a8:a4:82:78:a9:9b:59:69:e5:2a:44:60:27:37:17:4c:
        e9:d4:1d:21:8a:84:15:c0:43:9f:6c:fe:59:1d:1e:50:2a:73:
        8b:72:c3:13
-----BEGIN CERTIFICATE-----
MIIDVjCCAj6gAwIBAgIQdMhDqWipSrvpxJtoiVOwzzANBgkqhkiG9w0BAQsFADAU
MRIwEAYDVQQDDAl0ZWFtMS1uZXQwHhcNMjMxMTA0MTEyNzI2WhcNMjYxMDE5MTEy
NzI2WjAXMRUwEwYDVQQDDAx0ZWFtMS1jbGllbnQwggEiMA0GCSqGSIb3DQEBAQUA
A4IBDwAwggEKAoIBAQC7dJFaCfKYbj0B6u0EG3B9jH1d5IoxJ9/maw6+wDy+mCFJ
g8cuE0axjhzl7RRwa6JbHwZzSxpEbtpjVxFmzB1y+A+n7kYuOIiFU16kqqbmKWRg
8OFtIHpSKo01RQM7Eq7JG3VWuK4oFrJ9Y6f1jsasfJXo8WAiAUQojySKsNMgsBMd
V+1zADdDHpMQ6UiHGaHQ1St/yppEcZyBdMmhGwpHFa2r+fUqzhTnNEPlyRmbbV7W
8QoJaGaxvexpG6l/F1btB/1YzM8PQKDV304s22irh51qO6R+R9jc2KMx/5nCx3Av
GrfNYZjDwdB3M0Ut0SoguTvmyYhYjmnLhLQPkkgfAgMBAAGjgaAwgZ0wCQYDVR0T
BAIwADAdBgNVHQ4EFgQUhucxW3pTZZ/pVr4DMCGbvNdrRHwwTwYDVR0jBEgwRoAU
DyStdyAn+/tRH2U0GrZafLBQ+kShGKQWMBQxEjAQBgNVBAMMCXRlYW0xLW5ldIIU
OdyMT91/CyjsG/EcqLU01fYTe4gwEwYDVR0lBAwwCgYIKwYBBQUHAwIwCwYDVR0P
BAQDAgeAMA0GCSqGSIb3DQEBCwUAA4IBAQBYLVfAO8Gm4/3HaPpRoUAXtqHcdoF7
x8n5siUMtcXXnm9nsCLGqhIWg75O4lDwiEVE/FUkkb1Dgj+StfqOW0b0Q4rKr6wK
BjdA3cdvA/UheW9bcNYl80U6mgjTMpCmHXGml7g7BP5awqR6Hj2+PqwiRW6PAXWB
dH13NJHxPhFVcvR1U8C7aBIf/hOCONhmumMEw61lUhUqrLy0pPfLXeXZ8GpEGQi0
RMxzcnW9ENFK51FRe8rjWelPK6zCTf68O8OI3jr9Wh75A4SeOOw1BKmFR9Qbofam
yHMK2aikgnipm1lp5SpEYCc3F0zp1B0hioQVwEOfbP5ZHR5QKnOLcsMT
-----END CERTIFICATE-----
