Certificate:
    Data:
        Version: 3 (0x2)
        Serial Number:
            a1:0f:a0:f5:90:c0:91:65:b4:03:7a:7e:4b:8d:8b:e9
        Signature Algorithm: sha256WithRSAEncryption
        Issuer: CN=team1-net
        Validity
            Not Before: Oct 31 16:30:09 2023 GMT
            Not After : Oct 15 16:30:09 2026 GMT
        Subject: CN=team1-client
        Subject Public Key Info:
            Public Key Algorithm: rsaEncryption
                Public-Key: (2048 bit)
                Modulus:
                    00:ad:08:8e:b7:c6:f0:bc:25:9b:f1:99:0f:90:18:
                    02:1f:68:00:e1:35:53:06:9a:b3:f0:9d:a1:53:49:
                    60:13:d1:99:98:91:4a:85:2a:86:88:09:f1:fe:aa:
                    f4:cd:bb:7f:e1:96:4f:fe:9a:70:31:93:3b:d1:fb:
                    14:10:1e:e7:19:5d:21:f2:d2:89:9b:ad:d0:80:16:
                    4c:a2:36:8b:3d:4f:cb:a2:23:ea:92:f4:e8:36:e7:
                    9e:d0:55:2f:59:35:51:e2:ee:ed:65:67:07:7d:58:
                    20:eb:e5:de:65:89:1e:74:aa:91:2c:02:a2:74:55:
                    20:a6:ce:60:29:b2:05:24:b5:34:f7:8c:d5:20:52:
                    97:57:8b:5c:0a:dd:dd:45:bb:ce:96:93:7b:f7:13:
                    69:c4:79:c9:03:a5:67:bb:97:2e:b0:fc:fb:4f:49:
                    31:9d:ff:a5:7a:aa:42:d2:de:ad:27:22:bb:4c:af:
                    55:14:b0:38:58:a5:af:4b:92:5e:d1:24:a0:52:7c:
                    90:0f:93:ba:23:09:99:6f:d2:a6:4c:62:1d:c3:94:
                    61:5e:5e:48:8f:5a:fc:39:cc:10:6a:fc:31:46:9c:
                    73:09:00:4e:02:13:85:8b:3a:11:2e:41:d3:d1:0e:
                    41:35:94:2f:1d:71:5d:1e:eb:82:ef:8d:11:43:98:
                    85:53
                Exponent: 65537 (0x10001)
        X509v3 extensions:
            X509v3 Basic Constraints: 
                CA:FALSE
            X509v3 Subject Key Identifier: 
                1A:F5:5D:9D:4E:CB:F5:68:09:E2:51:B5:FB:AF:0E:39:7C:F0:12:52
            X509v3 Authority Key Identifier: 
                keyid:A7:D7:92:A7:99:DD:A9:C7:0A:2D:FF:53:C0:4C:A2:47:E9:AD:54:19
                DirName:/CN=team1-net
                serial:17:BC:F4:D4:F4:A2:FC:A8:83:A5:A6:06:A9:64:9E:ED:98:D0:C2:D7
            X509v3 Extended Key Usage: 
                TLS Web Client Authentication
            X509v3 Key Usage: 
                Digital Signature
    Signature Algorithm: sha256WithRSAEncryption
    Signature Value:
        6e:a7:22:fa:cb:65:02:64:35:e3:64:3c:34:87:13:c7:84:97:
        2b:d5:e7:5d:15:ad:4e:93:f0:0d:ef:45:85:f5:68:2d:a4:db:
        8b:fa:9a:2c:0e:db:0d:e2:0c:9c:10:8a:6b:57:af:57:dc:21:
        d5:5d:90:09:ac:3f:0c:08:cb:7a:70:b1:20:f3:73:c0:61:59:
        e0:41:ef:a0:f2:80:bd:34:63:bb:d9:c4:89:29:75:c3:17:03:
        3d:6a:22:c3:19:9c:15:12:47:cf:bb:b0:bc:2d:0f:59:85:5f:
        e8:44:20:ba:cf:25:ca:6c:2c:20:58:2f:67:6d:04:71:24:03:
        a9:eb:0a:fd:91:f2:aa:94:b0:a4:2e:a6:4a:b1:b7:e7:a2:68:
        d5:ac:6d:24:70:8b:15:1b:db:35:9b:3b:1e:a5:f6:93:73:cd:
        db:2f:4b:49:ba:5d:76:be:2b:e8:8f:8e:23:5d:7d:c9:bf:68:
        a2:45:7f:17:eb:86:9b:13:39:a8:fd:24:ea:63:b6:91:4b:42:
        eb:f2:fe:dc:d6:03:be:bb:2a:65:94:e2:65:e3:ad:cb:60:1b:
        26:a7:e0:93:6a:bd:4d:6c:15:66:b2:74:ec:72:b4:28:3e:ec:
        c3:2a:fe:c1:8a:26:a1:a8:a9:54:d3:43:e9:75:d5:ae:97:db:
        28:4a:4a:c4
-----BEGIN CERTIFICATE-----
MIIDVzCCAj+gAwIBAgIRAKEPoPWQwJFltAN6fkuNi+kwDQYJKoZIhvcNAQELBQAw
FDESMBAGA1UEAwwJdGVhbTEtbmV0MB4XDTIzMTAzMTE2MzAwOVoXDTI2MTAxNTE2
MzAwOVowFzEVMBMGA1UEAwwMdGVhbTEtY2xpZW50MIIBIjANBgkqhkiG9w0BAQEF
AAOCAQ8AMIIBCgKCAQEArQiOt8bwvCWb8ZkPkBgCH2gA4TVTBpqz8J2hU0lgE9GZ
mJFKhSqGiAnx/qr0zbt/4ZZP/ppwMZM70fsUEB7nGV0h8tKJm63QgBZMojaLPU/L
oiPqkvToNuee0FUvWTVR4u7tZWcHfVgg6+XeZYkedKqRLAKidFUgps5gKbIFJLU0
94zVIFKXV4tcCt3dRbvOlpN79xNpxHnJA6Vnu5cusPz7T0kxnf+leqpC0t6tJyK7
TK9VFLA4WKWvS5Je0SSgUnyQD5O6IwmZb9KmTGIdw5RhXl5Ij1r8OcwQavwxRpxz
CQBOAhOFizoRLkHT0Q5BNZQvHXFdHuuC740RQ5iFUwIDAQABo4GgMIGdMAkGA1Ud
EwQCMAAwHQYDVR0OBBYEFBr1XZ1Oy/VoCeJRtfuvDjl88BJSME8GA1UdIwRIMEaA
FKfXkqeZ3anHCi3/U8BMokfprVQZoRikFjAUMRIwEAYDVQQDDAl0ZWFtMS1uZXSC
FBe89NT0ovyog6WmBqlknu2Y0MLXMBMGA1UdJQQMMAoGCCsGAQUFBwMCMAsGA1Ud
DwQEAwIHgDANBgkqhkiG9w0BAQsFAAOCAQEAbqci+stlAmQ142Q8NIcTx4SXK9Xn
XRWtTpPwDe9FhfVoLaTbi/qaLA7bDeIMnBCKa1evV9wh1V2QCaw/DAjLenCxIPNz
wGFZ4EHvoPKAvTRju9nEiSl1wxcDPWoiwxmcFRJHz7uwvC0PWYVf6EQgus8lymws
IFgvZ20EcSQDqesK/ZHyqpSwpC6mSrG356Jo1axtJHCLFRvbNZs7HqX2k3PN2y9L
Sbpddr4r6I+OI119yb9ookV/F+uGmxM5qP0k6mO2kUtC6/L+3NYDvrsqZZTiZeOt
y2AbJqfgk2q9TWwVZrJ07HK0KD7swyr+wYomoaipVNND6XXVrpfbKEpKxA==
-----END CERTIFICATE-----
