Certificate:
    Data:
        Version: 3 (0x2)
        Serial Number:
            de:89:d1:b2:7a:ee:cb:60:32:6c:ec:35:df:a4:cf:36
        Signature Algorithm: sha256WithRSAEncryption
        Issuer: CN=team1-net
        Validity
            Not Before: Nov  3 20:39:18 2023 GMT
            Not After : Oct 18 20:39:18 2026 GMT
        Subject: CN=team1-client
        Subject Public Key Info:
            Public Key Algorithm: rsaEncryption
                Public-Key: (2048 bit)
                Modulus:
                    00:bb:6a:e1:fa:11:97:36:c2:22:f3:9b:02:6a:1a:
                    26:5e:71:91:14:17:5a:38:25:c9:2a:a0:4d:0c:68:
                    f7:fd:91:5b:2b:a4:fe:fb:f0:f6:26:53:87:c3:8c:
                    25:0e:4b:55:3c:71:a8:19:c9:a1:2c:33:91:b5:d9:
                    a0:73:5b:40:90:9d:3e:15:8f:23:19:23:e3:52:95:
                    22:d3:3f:be:db:7b:ba:77:74:c8:3f:9d:fb:0d:db:
                    e8:85:17:7c:71:7d:38:93:fd:8d:19:dd:94:8a:85:
                    04:67:18:41:ca:a9:49:10:b1:55:6d:4b:78:4f:ae:
                    ed:98:1e:97:3e:20:88:e5:55:82:b6:85:f8:fa:3e:
                    71:39:e3:ed:65:e6:3f:da:31:0e:e9:31:b0:b7:c2:
                    d5:14:3e:32:91:29:e1:f9:ff:59:39:91:38:14:26:
                    56:c2:da:0a:2f:ee:c0:d7:e6:52:6b:5a:53:0f:23:
                    b5:2a:be:27:74:b0:95:ea:e5:30:2e:e3:07:55:57:
                    f8:d0:ab:53:ad:d2:21:b5:57:04:43:50:4e:55:d6:
                    14:b7:cc:e7:72:46:0c:b8:89:25:24:b2:32:23:76:
                    1a:e2:60:15:63:77:df:0e:46:3f:96:a4:f9:4d:8a:
                    ab:74:8f:65:ec:09:14:18:12:09:50:4a:a4:5e:bc:
                    e0:47
                Exponent: 65537 (0x10001)
        X509v3 extensions:
            X509v3 Basic Constraints: 
                CA:FALSE
            X509v3 Subject Key Identifier: 
                75:F9:39:5F:AC:52:5F:98:34:EE:53:A7:CB:71:66:5E:CC:2F:E3:76
            X509v3 Authority Key Identifier: 
                keyid:F9:80:8F:63:E0:41:F7:E9:98:FA:B0:17:70:7E:08:E6:A1:83:5B:4F
                DirName:/CN=team1-net
                serial:6D:95:D9:26:C2:04:56:0F:EB:08:22:F5:79:D9:00:0B:E5:C0:93:AA
            X509v3 Extended Key Usage: 
                TLS Web Client Authentication
            X509v3 Key Usage: 
                Digital Signature
    Signature Algorithm: sha256WithRSAEncryption
    Signature Value:
        91:b2:4d:94:c2:34:c6:7e:5d:3c:03:6b:ee:da:ff:11:f7:3b:
        1b:bd:c3:27:06:7a:84:f8:a5:f1:07:1c:01:75:30:c3:c6:ad:
        5b:0b:87:cd:8c:8d:61:25:0c:65:e0:ae:35:f4:bf:f4:ea:98:
        41:a8:5e:ef:39:fc:d3:e3:f1:9a:de:b6:47:83:f5:89:c8:d9:
        ba:c3:fb:1d:37:d1:f6:7e:16:a3:f4:9d:38:56:f5:bc:cd:44:
        6a:96:ca:55:bc:5d:32:82:9c:d7:ba:08:c2:95:94:e9:7f:fa:
        2c:9c:91:0c:dc:80:6c:fe:da:dd:5f:85:a9:3d:e3:b1:d3:43:
        91:ab:47:05:eb:ba:d7:32:b8:33:20:23:5f:52:0f:db:8f:34:
        d4:6f:d0:93:fe:94:43:e8:8b:fe:c0:f4:f0:f3:58:f1:ba:7d:
        63:b0:ba:9b:3a:50:bf:ba:8b:a7:b2:ff:13:96:83:b1:f9:a0:
        87:c2:42:48:70:b0:b4:1a:01:5f:50:d0:2e:7c:e4:8d:81:d6:
        45:64:57:b7:8c:8e:95:e3:c4:6a:89:05:03:85:11:0f:50:9f:
        02:ad:66:95:25:9b:09:01:2e:bf:92:44:38:c0:01:21:cc:cf:
        41:75:45:82:84:09:0e:81:90:14:9d:31:62:7c:74:eb:72:55:
        71:f1:c4:4d
-----BEGIN CERTIFICATE-----
MIIDVzCCAj+gAwIBAgIRAN6J0bJ67stgMmzsNd+kzzYwDQYJKoZIhvcNAQELBQAw
FDESMBAGA1UEAwwJdGVhbTEtbmV0MB4XDTIzMTEwMzIwMzkxOFoXDTI2MTAxODIw
MzkxOFowFzEVMBMGA1UEAwwMdGVhbTEtY2xpZW50MIIBIjANBgkqhkiG9w0BAQEF
AAOCAQ8AMIIBCgKCAQEAu2rh+hGXNsIi85sCahomXnGRFBdaOCXJKqBNDGj3/ZFb
K6T++/D2JlOHw4wlDktVPHGoGcmhLDORtdmgc1tAkJ0+FY8jGSPjUpUi0z++23u6
d3TIP537DdvohRd8cX04k/2NGd2UioUEZxhByqlJELFVbUt4T67tmB6XPiCI5VWC
toX4+j5xOePtZeY/2jEO6TGwt8LVFD4ykSnh+f9ZOZE4FCZWwtoKL+7A1+ZSa1pT
DyO1Kr4ndLCV6uUwLuMHVVf40KtTrdIhtVcEQ1BOVdYUt8znckYMuIklJLIyI3Ya
4mAVY3ffDkY/lqT5TYqrdI9l7AkUGBIJUEqkXrzgRwIDAQABo4GgMIGdMAkGA1Ud
EwQCMAAwHQYDVR0OBBYEFHX5OV+sUl+YNO5Tp8txZl7ML+N2ME8GA1UdIwRIMEaA
FPmAj2PgQffpmPqwF3B+COahg1tPoRikFjAUMRIwEAYDVQQDDAl0ZWFtMS1uZXSC
FG2V2SbCBFYP6wgi9XnZAAvlwJOqMBMGA1UdJQQMMAoGCCsGAQUFBwMCMAsGA1Ud
DwQEAwIHgDANBgkqhkiG9w0BAQsFAAOCAQEAkbJNlMI0xn5dPANr7tr/Efc7G73D
JwZ6hPil8QccAXUww8atWwuHzYyNYSUMZeCuNfS/9OqYQahe7zn80+Pxmt62R4P1
icjZusP7HTfR9n4Wo/SdOFb1vM1EapbKVbxdMoKc17oIwpWU6X/6LJyRDNyAbP7a
3V+FqT3jsdNDkatHBeu61zK4MyAjX1IP24801G/Qk/6UQ+iL/sD08PNY8bp9Y7C6
mzpQv7qLp7L/E5aDsfmgh8JCSHCwtBoBX1DQLnzkjYHWRWRXt4yOlePEaokFA4UR
D1CfAq1mlSWbCQEuv5JEOMABIczPQXVFgoQJDoGQFJ0xYnx063JVcfHETQ==
-----END CERTIFICATE-----
