Certificate:
    Data:
        Version: 3 (0x2)
        Serial Number:
            33:40:92:ac:28:fc:52:dd:5a:e4:8a:f8:86:28:ac:08
        Signature Algorithm: sha256WithRSAEncryption
        Issuer: CN=team336-net
        Validity
            Not Before: Nov  4 10:46:46 2023 GMT
            Not After : Oct 19 10:46:46 2026 GMT
        Subject: CN=team336-server
        Subject Public Key Info:
            Public Key Algorithm: rsaEncryption
                Public-Key: (2048 bit)
                Modulus:
                    00:bc:d4:6b:d7:1d:d7:ee:c3:33:ec:fc:c4:7e:e9:
                    58:91:3e:e9:09:ea:2c:32:2f:9c:ee:53:08:9c:6f:
                    e7:ed:f7:a5:b2:6c:19:9f:a1:d2:c1:bd:8e:63:ea:
                    d7:60:9c:56:4c:cc:28:52:01:49:44:f9:05:19:ca:
                    d0:66:1c:0e:b6:bd:21:1e:c6:4f:90:d0:04:7a:24:
                    a3:74:7a:37:58:04:43:79:51:10:a4:71:09:68:3f:
                    5c:ea:a2:1f:87:62:9f:48:a2:9b:3b:5b:4d:c7:6e:
                    12:fe:b2:61:6e:a8:fc:84:0d:da:9c:60:44:67:ea:
                    d5:8b:65:f1:3b:1b:94:f5:f9:f9:19:ad:99:15:38:
                    2a:7e:dc:2b:a6:4b:ab:c0:3c:fa:d5:29:3f:36:30:
                    56:26:96:1f:ec:4a:c6:a4:23:df:33:3f:ef:cb:b5:
                    a9:b8:06:3a:24:cb:a6:0c:d0:2a:b5:01:f5:c2:57:
                    f4:d3:b8:c1:a7:12:e5:39:7a:6c:3c:04:b1:20:88:
                    f3:a4:be:67:65:6c:83:eb:83:2b:9b:02:88:93:f0:
                    f8:8f:94:97:90:6a:aa:20:d1:f5:53:73:7b:9c:31:
                    24:c2:cc:1c:82:88:44:b5:ee:e2:05:b6:fb:92:1d:
                    32:d1:83:6c:65:e0:95:e7:cd:3b:29:59:dd:60:72:
                    13:2b
                Exponent: 65537 (0x10001)
        X509v3 extensions:
            X509v3 Basic Constraints: 
                CA:FALSE
            X509v3 Subject Key Identifier: 
                F0:9F:69:70:EB:36:7E:B6:A9:F1:13:78:DB:FF:3E:A4:35:2F:8C:E7
            X509v3 Authority Key Identifier: 
                keyid:1C:FB:66:A9:15:25:5A:4E:D3:53:AE:E5:5D:62:ED:9B:0F:F3:F0:E9
                DirName:/CN=team336-net
                serial:30:01:69:BD:52:C8:C6:83:35:3E:5C:C0:BA:E7:77:60:32:27:2F:43
            X509v3 Extended Key Usage: 
                TLS Web Server Authentication
            X509v3 Key Usage: 
                Digital Signature, Key Encipherment
            X509v3 Subject Alternative Name: 
                DNS:team336-server
    Signature Algorithm: sha256WithRSAEncryption
    Signature Value:
        03:61:53:f8:39:d2:d7:98:bf:6f:e4:ff:a7:68:1c:69:11:e0:
        b6:79:9b:ed:77:67:77:0a:9a:9b:f4:c2:f3:b2:2f:6e:5b:6d:
        1c:c6:a6:7a:91:b4:23:1c:25:e2:c2:ca:a7:17:f4:09:44:2c:
        c0:be:db:f8:9d:f2:34:45:51:31:d3:2f:2c:26:98:e2:bc:e3:
        6b:5d:e2:ff:d0:8f:56:5d:37:19:e1:36:93:20:4a:05:b0:f1:
        ce:83:1e:01:0d:84:c4:54:16:83:6d:34:57:f8:ba:13:b6:8f:
        06:94:fc:bf:d8:b2:93:68:8b:c7:83:a0:9b:37:78:2d:ac:d6:
        29:9a:02:33:da:da:bc:ce:cf:05:d6:65:34:4e:76:36:94:20:
        cc:8b:0f:ce:cf:13:27:57:ff:4f:93:8b:cd:43:72:2f:0a:d6:
        c8:da:8f:e6:d7:c5:9e:3a:0e:42:cc:6d:64:c3:86:2f:1d:5f:
        c7:67:ee:6f:23:04:fd:cd:13:a8:a7:69:ba:0c:c3:34:50:bb:
        d0:db:20:dc:8a:d9:18:6c:fb:45:e4:4b:69:6e:31:c7:76:c6:
        a7:8c:1a:77:29:af:c0:ef:62:92:63:ed:c5:f6:92:1e:64:68:
        2a:5b:91:5c:ec:b4:8e:38:76:a6:2f:80:7d:a0:d8:23:f9:a4:
        4e:4f:12:d4
-----BEGIN CERTIFICATE-----
MIIDdzCCAl+gAwIBAgIQM0CSrCj8Ut1a5Ir4hiisCDANBgkqhkiG9w0BAQsFADAW
MRQwEgYDVQQDDAt0ZWFtMzM2LW5ldDAeFw0yMzExMDQxMDQ2NDZaFw0yNjEwMTkx
MDQ2NDZaMBkxFzAVBgNVBAMMDnRlYW0zMzYtc2VydmVyMIIBIjANBgkqhkiG9w0B
AQEFAAOCAQ8AMIIBCgKCAQEAvNRr1x3X7sMz7PzEfulYkT7pCeosMi+c7lMInG/n
7felsmwZn6HSwb2OY+rXYJxWTMwoUgFJRPkFGcrQZhwOtr0hHsZPkNAEeiSjdHo3
WARDeVEQpHEJaD9c6qIfh2KfSKKbO1tNx24S/rJhbqj8hA3anGBEZ+rVi2XxOxuU
9fn5Ga2ZFTgqftwrpkurwDz61Sk/NjBWJpYf7ErGpCPfMz/vy7WpuAY6JMumDNAq
tQH1wlf007jBpxLlOXpsPASxIIjzpL5nZWyD64MrmwKIk/D4j5SXkGqqINH1U3N7
nDEkwswcgohEte7iBbb7kh0y0YNsZeCV5807KVndYHITKwIDAQABo4G9MIG6MAkG
A1UdEwQCMAAwHQYDVR0OBBYEFPCfaXDrNn62qfETeNv/PqQ1L4znMFEGA1UdIwRK
MEiAFBz7ZqkVJVpO01Ou5V1i7ZsP8/DpoRqkGDAWMRQwEgYDVQQDDAt0ZWFtMzM2
LW5ldIIUMAFpvVLIxoM1PlzAuud3YDInL0MwEwYDVR0lBAwwCgYIKwYBBQUHAwEw
CwYDVR0PBAQDAgWgMBkGA1UdEQQSMBCCDnRlYW0zMzYtc2VydmVyMA0GCSqGSIb3
DQEBCwUAA4IBAQADYVP4OdLXmL9v5P+naBxpEeC2eZvtd2d3Cpqb9MLzsi9uW20c
xqZ6kbQjHCXiwsqnF/QJRCzAvtv4nfI0RVEx0y8sJpjivONrXeL/0I9WXTcZ4TaT
IEoFsPHOgx4BDYTEVBaDbTRX+LoTto8GlPy/2LKTaIvHg6CbN3gtrNYpmgIz2tq8
zs8F1mU0TnY2lCDMiw/OzxMnV/9Pk4vNQ3IvCtbI2o/m18WeOg5CzG1kw4YvHV/H
Z+5vIwT9zROop2m6DMM0ULvQ2yDcitkYbPtF5EtpbjHHdsanjBp3Ka/A72KSY+3F
9pIeZGgqW5Fc7LSOOHamL4B9oNgj+aROTxLU
-----END CERTIFICATE-----
