Certificate:
    Data:
        Version: 3 (0x2)
        Serial Number:
            61:74:ba:52:4b:d3:25:bd:70:7a:7d:a0:e9:a2:93:f0
        Signature Algorithm: sha256WithRSAEncryption
        Issuer: CN=team336-net
        Validity
            Not Before: Nov  4 11:34:52 2023 GMT
            Not After : Oct 19 11:34:52 2026 GMT
        Subject: CN=team336-client
        Subject Public Key Info:
            Public Key Algorithm: rsaEncryption
                Public-Key: (2048 bit)
                Modulus:
                    00:e7:8f:27:8a:43:62:58:a6:61:a0:c3:46:36:ed:
                    d6:c6:9c:09:64:24:02:67:1c:85:ef:8e:ec:a3:d7:
                    19:49:77:49:13:87:80:d7:4c:ef:63:56:a4:f9:89:
                    14:4a:74:53:88:f8:27:91:f6:b0:7f:ad:67:80:29:
                    6e:bd:a6:45:70:22:f7:53:c9:3a:c3:99:f9:88:e4:
                    47:b9:0d:5d:2f:87:04:18:40:59:5a:76:a9:5f:bf:
                    8e:30:88:d5:5a:71:f1:c5:94:57:e5:83:b4:3b:c3:
                    94:ab:ac:04:31:ec:f0:70:5f:f7:f7:e5:27:d6:3a:
                    a5:f4:18:b2:a6:f4:7a:24:b0:aa:0a:c1:0d:47:0d:
                    49:e2:82:46:c4:8d:22:de:c1:cb:3c:0d:1f:44:dd:
                    1f:4a:a4:3d:54:71:16:d9:41:44:63:96:03:f2:7a:
                    f7:12:a2:d1:89:1d:ed:63:e4:e5:4d:95:54:bc:14:
                    0d:83:ab:84:27:2e:f7:76:16:85:3d:60:ad:5d:a8:
                    eb:27:0f:72:4c:c4:7a:75:4a:8d:7b:2d:ae:a3:47:
                    04:62:fe:d5:67:1d:fe:6c:3a:3a:0d:ac:71:4c:37:
                    2d:7c:85:04:ca:31:64:85:32:cb:8d:02:dc:29:c4:
                    00:d4:a9:cb:79:b4:d2:29:3d:6a:14:06:28:18:08:
                    a8:99
                Exponent: 65537 (0x10001)
        X509v3 extensions:
            X509v3 Basic Constraints: 
                CA:FALSE
            X509v3 Subject Key Identifier: 
                5D:74:B7:C5:70:06:C2:90:8C:C9:29:10:85:C6:C8:22:5C:09:73:46
            X509v3 Authority Key Identifier: 
                keyid:5C:1A:B4:77:11:3F:00:9E:28:38:B9:54:4D:F9:E0:16:7A:9B:2C:56
                DirName:/CN=team336-net
                serial:68:37:14:01:26:F7:C4:37:B9:82:AC:90:FD:21:45:30:91:49:FC:47
            X509v3 Extended Key Usage: 
                TLS Web Client Authentication
            X509v3 Key Usage: 
                Digital Signature
    Signature Algorithm: sha256WithRSAEncryption
    Signature Value:
        24:34:f4:15:dc:ed:17:08:a2:bc:f4:47:5d:b0:cc:6b:08:b4:
        fb:c0:cb:ec:f0:9f:a4:14:22:9c:1c:63:ab:47:95:8a:c2:0e:
        7e:22:27:3e:56:d5:5e:24:81:d5:9c:94:3a:d0:6d:b1:7f:b9:
        6c:6f:f3:33:08:2d:a9:7a:8d:d7:dd:bd:d1:a7:67:ae:7d:ad:
        20:e2:4f:36:47:17:c9:b5:94:3c:df:8e:c7:ba:ad:78:d1:d0:
        27:c8:cd:19:60:93:ee:33:27:7d:07:21:ce:fa:41:d5:5e:42:
        b0:86:c5:61:85:ef:9a:75:a7:16:c9:d8:87:13:59:8e:69:5d:
        8a:4a:03:4d:e0:d3:e2:54:4c:55:ec:24:37:36:47:37:62:ab:
        20:d6:5c:ca:2c:90:19:80:ef:98:8a:f5:82:3d:1c:d8:81:d3:
        7a:1b:bc:a9:5a:76:f5:dd:f1:3c:42:13:6c:cd:e1:7d:61:1d:
        dd:50:b9:10:fe:29:a4:0d:06:9d:c5:4e:01:36:4e:dd:43:81:
        1c:e9:1c:c4:7c:40:65:17:0f:c4:c9:78:15:c9:48:06:8f:92:
        7d:81:75:2b:53:f9:97:0d:c3:59:3a:95:c1:25:2c:47:d7:9e:
        8f:10:78:1f:c7:a3:05:c9:89:68:18:46:12:c9:6d:33:e4:bf:
        e1:a5:fc:a0
-----BEGIN CERTIFICATE-----
MIIDXDCCAkSgAwIBAgIQYXS6UkvTJb1wen2g6aKT8DANBgkqhkiG9w0BAQsFADAW
MRQwEgYDVQQDDAt0ZWFtMzM2LW5ldDAeFw0yMzExMDQxMTM0NTJaFw0yNjEwMTkx
MTM0NTJaMBkxFzAVBgNVBAMMDnRlYW0zMzYtY2xpZW50MIIBIjANBgkqhkiG9w0B
AQEFAAOCAQ8AMIIBCgKCAQEA548nikNiWKZhoMNGNu3WxpwJZCQCZxyF747so9cZ
SXdJE4eA10zvY1ak+YkUSnRTiPgnkfawf61ngCluvaZFcCL3U8k6w5n5iORHuQ1d
L4cEGEBZWnapX7+OMIjVWnHxxZRX5YO0O8OUq6wEMezwcF/39+Un1jql9BiypvR6
JLCqCsENRw1J4oJGxI0i3sHLPA0fRN0fSqQ9VHEW2UFEY5YD8nr3EqLRiR3tY+Tl
TZVUvBQNg6uEJy73dhaFPWCtXajrJw9yTMR6dUqNey2uo0cEYv7VZx3+bDo6Daxx
TDctfIUEyjFkhTLLjQLcKcQA1KnLebTSKT1qFAYoGAiomQIDAQABo4GiMIGfMAkG
A1UdEwQCMAAwHQYDVR0OBBYEFF10t8VwBsKQjMkpEIXGyCJcCXNGMFEGA1UdIwRK
MEiAFFwatHcRPwCeKDi5VE354BZ6myxWoRqkGDAWMRQwEgYDVQQDDAt0ZWFtMzM2
LW5ldIIUaDcUASb3xDe5gqyQ/SFFMJFJ/EcwEwYDVR0lBAwwCgYIKwYBBQUHAwIw
CwYDVR0PBAQDAgeAMA0GCSqGSIb3DQEBCwUAA4IBAQAkNPQV3O0XCKK89EddsMxr
CLT7wMvs8J+kFCKcHGOrR5WKwg5+Iic+VtVeJIHVnJQ60G2xf7lsb/MzCC2peo3X
3b3Rp2eufa0g4k82RxfJtZQ8347Huq140dAnyM0ZYJPuMyd9ByHO+kHVXkKwhsVh
he+adacWydiHE1mOaV2KSgNN4NPiVExV7CQ3Nkc3Yqsg1lzKLJAZgO+YivWCPRzY
gdN6G7ypWnb13fE8QhNszeF9YR3dULkQ/imkDQadxU4BNk7dQ4Ec6RzEfEBlFw/E
yXgVyUgGj5J9gXUrU/mXDcNZOpXBJSxH156PEHgfx6MFyYloGEYSyW0z5L/hpfyg
-----END CERTIFICATE-----
