Certificate:
    Data:
        Version: 3 (0x2)
        Serial Number:
            36:23:d9:9d:3e:b7:6a:68:a1:90:f2:ac:a9:82:a6:a9
        Signature Algorithm: sha256WithRSAEncryption
        Issuer: CN=team15-net
        Validity
            Not Before: Nov  3 20:39:33 2023 GMT
            Not After : Oct 18 20:39:33 2026 GMT
        Subject: CN=team15-server
        Subject Public Key Info:
            Public Key Algorithm: rsaEncryption
                Public-Key: (2048 bit)
                Modulus:
                    00:da:51:e4:9d:e0:15:ee:f5:94:d4:d1:07:83:68:
                    b6:87:e4:c7:2e:e4:21:a5:7c:46:57:17:42:a8:b9:
                    fd:d2:fc:2a:a3:f4:20:f0:09:fe:aa:65:ca:27:a8:
                    5a:ff:6b:fb:99:b2:50:7b:9a:68:33:d1:2c:44:13:
                    d6:36:ba:af:52:c6:db:e0:27:a5:9c:7a:27:ff:25:
                    88:0c:c8:ab:23:13:01:4b:8d:23:bd:e7:33:51:79:
                    4a:da:e7:18:d9:ca:f4:3b:f3:e2:73:e3:ae:d1:05:
                    67:9a:22:6b:cf:28:b1:73:dc:e9:be:ad:45:37:31:
                    a4:51:f7:52:b0:e2:b3:3b:35:02:ac:b8:88:9f:75:
                    0c:e7:1d:bb:76:48:00:5b:95:f0:b8:14:6f:91:be:
                    3a:be:a6:ba:e7:3e:47:e3:31:50:94:a6:63:66:d4:
                    74:9d:eb:f3:23:aa:a0:ca:b8:34:54:9f:db:85:e0:
                    b3:52:ee:10:d0:80:3f:83:f4:27:c8:ed:e4:95:b0:
                    4f:e9:a7:b4:71:88:41:b0:85:35:3d:32:7c:bc:0d:
                    38:af:3d:c8:1f:f8:c0:eb:fe:c4:65:84:75:56:1f:
                    64:1d:35:94:09:03:92:db:f4:4d:7f:12:de:eb:09:
                    fe:f1:de:aa:4b:69:58:a2:90:17:72:9d:f2:2f:e4:
                    7e:e7
                Exponent: 65537 (0x10001)
        X509v3 extensions:
            X509v3 Basic Constraints: 
                CA:FALSE
            X509v3 Subject Key Identifier: 
                4B:2C:89:47:77:7C:35:D8:6A:15:A1:69:E9:80:AD:5D:2D:C6:70:CB
            X509v3 Authority Key Identifier: 
                keyid:E3:B9:B5:36:05:D4:29:36:5F:D6:FC:19:D1:6D:94:BF:96:70:63:FB
                DirName:/CN=team15-net
                serial:3E:F5:5D:41:F7:DC:16:08:FA:13:6A:3D:D6:71:23:49:CC:9C:F5:03
            X509v3 Extended Key Usage: 
                TLS Web Server Authentication
            X509v3 Key Usage: 
                Digital Signature, Key Encipherment
            X509v3 Subject Alternative Name: 
                DNS:team15-server
    Signature Algorithm: sha256WithRSAEncryption
    Signature Value:
        7d:e7:eb:6b:90:74:94:35:97:78:5f:d9:c4:3d:f7:3f:46:21:
        44:b2:1a:7f:33:ff:ea:e6:ed:4a:4a:6e:a9:b3:ce:1f:bc:79:
        fd:fd:48:e3:fe:dc:b9:49:20:a9:3f:8c:07:b8:fb:b9:b6:fb:
        7a:48:09:0f:4f:a6:f6:30:0e:b8:30:f9:ed:f7:62:1c:96:e1:
        3f:c6:5b:62:d1:f5:a2:72:68:b4:bb:dd:c0:87:ec:b9:d7:48:
        16:77:6f:66:6e:da:8b:21:e5:f8:6d:bf:8a:ec:7f:ce:8a:ae:
        86:d0:93:24:e6:46:b7:e0:2b:51:6c:91:7a:ce:97:53:cb:9b:
        fc:81:94:cc:94:33:9b:76:10:07:76:5a:eb:29:d1:cc:84:fe:
        ba:3d:7f:cc:39:31:54:1d:22:ae:fa:a3:4c:f3:e0:5c:d0:04:
        ec:fa:62:59:b0:f1:74:3a:eb:52:c5:75:3c:96:bf:20:f3:03:
        c3:8a:90:97:6f:45:e9:5b:11:b5:09:51:57:38:b7:9a:b7:b4:
        19:56:21:4f:2f:09:2f:d0:42:53:34:1e:0c:2b:b7:b4:6d:08:
        ea:55:07:af:73:a0:72:5a:cc:1b:04:b4:43:1c:4f:5a:3c:09:
        b6:2f:77:33:58:09:3d:83:43:82:fd:b4:94:a0:a6:a5:82:73:
        c5:a1:2b:2d
-----BEGIN CERTIFICATE-----
MIIDczCCAlugAwIBAgIQNiPZnT63amihkPKsqYKmqTANBgkqhkiG9w0BAQsFADAV
MRMwEQYDVQQDDAp0ZWFtMTUtbmV0MB4XDTIzMTEwMzIwMzkzM1oXDTI2MTAxODIw
MzkzM1owGDEWMBQGA1UEAwwNdGVhbTE1LXNlcnZlcjCCASIwDQYJKoZIhvcNAQEB
BQADggEPADCCAQoCggEBANpR5J3gFe71lNTRB4Notofkxy7kIaV8RlcXQqi5/dL8
KqP0IPAJ/qplyieoWv9r+5myUHuaaDPRLEQT1ja6r1LG2+AnpZx6J/8liAzIqyMT
AUuNI73nM1F5StrnGNnK9Dvz4nPjrtEFZ5oia88osXPc6b6tRTcxpFH3UrDiszs1
Aqy4iJ91DOcdu3ZIAFuV8LgUb5G+Or6muuc+R+MxUJSmY2bUdJ3r8yOqoMq4NFSf
24Xgs1LuENCAP4P0J8jt5JWwT+mntHGIQbCFNT0yfLwNOK89yB/4wOv+xGWEdVYf
ZB01lAkDktv0TX8S3usJ/vHeqktpWKKQF3Kd8i/kfucCAwEAAaOBuzCBuDAJBgNV
HRMEAjAAMB0GA1UdDgQWBBRLLIlHd3w12GoVoWnpgK1dLcZwyzBQBgNVHSMESTBH
gBTjubU2BdQpNl/W/BnRbZS/lnBj+6EZpBcwFTETMBEGA1UEAwwKdGVhbTE1LW5l
dIIUPvVdQffcFgj6E2o91nEjScyc9QMwEwYDVR0lBAwwCgYIKwYBBQUHAwEwCwYD
VR0PBAQDAgWgMBgGA1UdEQQRMA+CDXRlYW0xNS1zZXJ2ZXIwDQYJKoZIhvcNAQEL
BQADggEBAH3n62uQdJQ1l3hf2cQ99z9GIUSyGn8z/+rm7UpKbqmzzh+8ef39SOP+
3LlJIKk/jAe4+7m2+3pICQ9PpvYwDrgw+e33YhyW4T/GW2LR9aJyaLS73cCH7LnX
SBZ3b2Zu2osh5fhtv4rsf86KrobQkyTmRrfgK1FskXrOl1PLm/yBlMyUM5t2EAd2
Wusp0cyE/ro9f8w5MVQdIq76o0zz4FzQBOz6Ylmw8XQ661LFdTyWvyDzA8OKkJdv
RelbEbUJUVc4t5q3tBlWIU8vCS/QQlM0Hgwrt7RtCOpVB69zoHJazBsEtEMcT1o8
CbYvdzNYCT2DQ4L9tJSgpqWCc8WhKy0=
-----END CERTIFICATE-----
