Certificate:
    Data:
        Version: 3 (0x2)
        Serial Number:
            3f:4a:87:2d:a0:25:50:7b:fe:f3:31:a9:1a:52:d2:f5
        Signature Algorithm: sha256WithRSAEncryption
        Issuer: CN=team15-net
        Validity
            Not Before: Nov  3 20:39:33 2023 GMT
            Not After : Oct 18 20:39:33 2026 GMT
        Subject: CN=team15-client
        Subject Public Key Info:
            Public Key Algorithm: rsaEncryption
                Public-Key: (2048 bit)
                Modulus:
                    00:b4:84:a7:b1:9a:93:5a:e5:33:78:8b:b4:88:22:
                    ef:4d:b6:e8:69:00:ce:fc:1b:44:27:f5:7b:0d:c1:
                    a7:4d:dd:02:cc:6e:92:08:43:6e:09:6c:1c:55:21:
                    ce:14:26:e0:56:41:6d:37:f8:a9:55:db:f2:01:05:
                    98:20:75:c7:b7:78:e8:b5:d9:55:5a:12:a0:e8:cb:
                    55:7e:32:9a:36:e7:26:fe:8f:b2:69:20:b6:4c:98:
                    48:c6:e0:fc:43:da:aa:d7:f9:49:ba:f3:cd:10:38:
                    c2:d9:86:68:25:b0:66:24:f1:64:3b:fc:ec:8e:aa:
                    27:ef:b2:a8:84:f8:5c:62:d2:29:d9:3a:55:c8:9f:
                    3c:30:7a:79:69:48:dc:d8:a3:7c:9d:df:b4:99:d1:
                    25:60:06:4b:b1:02:fc:f8:fb:e9:34:14:9f:88:6e:
                    6f:cc:c7:38:85:ab:97:c7:5c:f3:1b:41:cf:44:09:
                    51:f7:13:f6:f2:05:2c:10:d9:26:9d:ab:fe:ae:2e:
                    ab:39:02:06:63:a8:10:e4:01:5f:fc:9b:65:d8:1b:
                    ca:45:96:1b:17:7f:e5:f4:32:cc:a1:e9:09:7c:d3:
                    d3:0b:6e:8b:7c:0e:07:fa:de:5e:17:ec:40:37:25:
                    d5:55:71:76:cf:1a:3d:f9:bf:e8:4c:f9:cb:79:1e:
                    eb:fd
                Exponent: 65537 (0x10001)
        X509v3 extensions:
            X509v3 Basic Constraints: 
                CA:FALSE
            X509v3 Subject Key Identifier: 
                89:2B:31:58:F2:B8:14:54:DB:C2:CD:A0:1D:60:6F:E4:A2:A9:87:91
            X509v3 Authority Key Identifier: 
                keyid:E3:B9:B5:36:05:D4:29:36:5F:D6:FC:19:D1:6D:94:BF:96:70:63:FB
                DirName:/CN=team15-net
                serial:3E:F5:5D:41:F7:DC:16:08:FA:13:6A:3D:D6:71:23:49:CC:9C:F5:03
            X509v3 Extended Key Usage: 
                TLS Web Client Authentication
            X509v3 Key Usage: 
                Digital Signature
    Signature Algorithm: sha256WithRSAEncryption
    Signature Value:
        5d:78:73:bf:82:ef:0e:b1:8c:22:c4:d1:20:1a:c2:ae:45:28:
        a1:de:b3:52:4b:35:8c:1a:4a:9b:0c:23:72:ec:ff:67:17:95:
        eb:6c:7e:c7:9f:99:71:3b:33:46:f9:d7:30:43:4c:15:8b:70:
        bd:8f:0a:29:d5:86:d4:fc:6b:7a:7d:81:a0:40:3e:df:6b:92:
        06:e2:32:61:4c:78:c4:a1:0a:53:91:9f:5d:f2:31:b1:51:c9:
        c7:f1:67:2d:75:13:3e:41:5d:48:e0:e1:42:e9:ce:55:19:f1:
        de:14:cf:97:f3:44:9f:55:8b:84:7f:b5:f4:27:46:89:fc:40:
        54:cb:dd:55:1c:8d:56:d6:9e:ef:d7:96:b7:a6:bd:4f:07:3c:
        f4:1d:e6:13:3e:eb:a8:84:8c:d8:45:60:82:80:23:ca:5c:29:
        28:c6:ff:8e:19:fb:17:2a:e0:89:13:1f:aa:b0:f5:43:ee:7c:
        62:a3:94:d8:b9:73:30:6d:32:a5:25:be:01:60:d9:cb:09:7a:
        1b:93:bf:1d:ac:16:94:27:e1:d0:a8:05:e5:50:ee:b5:0b:ee:
        09:7c:15:68:5a:1f:e2:3d:c6:74:3c:3b:70:16:8f:b9:35:09:
        46:b3:d2:6a:2c:0d:95:a4:df:90:b7:90:cc:52:da:34:a6:68:
        19:0b:a2:2d
-----BEGIN CERTIFICATE-----
MIIDWTCCAkGgAwIBAgIQP0qHLaAlUHv+8zGpGlLS9TANBgkqhkiG9w0BAQsFADAV
MRMwEQYDVQQDDAp0ZWFtMTUtbmV0MB4XDTIzMTEwMzIwMzkzM1oXDTI2MTAxODIw
MzkzM1owGDEWMBQGA1UEAwwNdGVhbTE1LWNsaWVudDCCASIwDQYJKoZIhvcNAQEB
BQADggEPADCCAQoCggEBALSEp7Gak1rlM3iLtIgi70226GkAzvwbRCf1ew3Bp03d
AsxukghDbglsHFUhzhQm4FZBbTf4qVXb8gEFmCB1x7d46LXZVVoSoOjLVX4ymjbn
Jv6PsmkgtkyYSMbg/EPaqtf5SbrzzRA4wtmGaCWwZiTxZDv87I6qJ++yqIT4XGLS
Kdk6VcifPDB6eWlI3NijfJ3ftJnRJWAGS7EC/Pj76TQUn4hub8zHOIWrl8dc8xtB
z0QJUfcT9vIFLBDZJp2r/q4uqzkCBmOoEOQBX/ybZdgbykWWGxd/5fQyzKHpCXzT
0wtui3wOB/reXhfsQDcl1VVxds8aPfm/6Ez5y3ke6/0CAwEAAaOBoTCBnjAJBgNV
HRMEAjAAMB0GA1UdDgQWBBSJKzFY8rgUVNvCzaAdYG/koqmHkTBQBgNVHSMESTBH
gBTjubU2BdQpNl/W/BnRbZS/lnBj+6EZpBcwFTETMBEGA1UEAwwKdGVhbTE1LW5l
dIIUPvVdQffcFgj6E2o91nEjScyc9QMwEwYDVR0lBAwwCgYIKwYBBQUHAwIwCwYD
VR0PBAQDAgeAMA0GCSqGSIb3DQEBCwUAA4IBAQBdeHO/gu8OsYwixNEgGsKuRSih
3rNSSzWMGkqbDCNy7P9nF5XrbH7Hn5lxOzNG+dcwQ0wVi3C9jwop1YbU/Gt6fYGg
QD7fa5IG4jJhTHjEoQpTkZ9d8jGxUcnH8WctdRM+QV1I4OFC6c5VGfHeFM+X80Sf
VYuEf7X0J0aJ/EBUy91VHI1W1p7v15a3pr1PBzz0HeYTPuuohIzYRWCCgCPKXCko
xv+OGfsXKuCJEx+qsPVD7nxio5TYuXMwbTKlJb4BYNnLCXobk78drBaUJ+HQqAXl
UO61C+4JfBVoWh/iPcZ0PDtwFo+5NQlGs9JqLA2VpN+Qt5DMUto0pmgZC6It
-----END CERTIFICATE-----
