Certificate:
    Data:
        Version: 3 (0x2)
        Serial Number:
            75:6b:f0:22:89:eb:99:be:bb:b9:b6:f6:9e:9a:f6:a7
        Signature Algorithm: sha256WithRSAEncryption
        Issuer: CN=team15-net
        Validity
            Not Before: Nov  4 11:27:39 2023 GMT
            Not After : Oct 19 11:27:39 2026 GMT
        Subject: CN=team15-server
        Subject Public Key Info:
            Public Key Algorithm: rsaEncryption
                Public-Key: (2048 bit)
                Modulus:
                    00:aa:c4:d3:21:9c:72:f7:5f:d5:6b:72:e9:26:21:
                    cc:b8:37:c7:e0:5d:8c:45:63:c7:11:a3:26:2a:2a:
                    40:c5:4d:a5:1c:5c:3c:57:56:11:2d:e0:1f:10:cc:
                    3a:52:96:f7:b6:e3:c9:40:50:5d:93:1e:39:0d:c2:
                    73:d2:38:e0:85:c2:b8:3f:e9:06:f5:36:64:19:23:
                    bb:48:e1:ee:01:ae:b5:7d:78:3c:9b:87:2e:6f:41:
                    26:a8:28:ff:13:7e:7b:cb:bf:08:01:06:83:60:12:
                    2c:5c:16:ce:fa:a2:89:70:58:0b:8b:c8:60:11:27:
                    a4:f5:0f:f7:de:ba:30:b2:4c:15:4b:55:d3:6e:03:
                    68:87:73:03:96:cf:d1:60:64:8f:04:63:49:d7:95:
                    d7:9d:e6:01:e8:40:f7:3c:68:84:b5:7b:45:8a:b4:
                    14:c1:57:46:c6:93:3a:e8:cc:19:48:42:97:11:68:
                    74:8f:b9:ec:c5:2c:b5:c9:8b:55:35:e6:72:02:3c:
                    74:75:98:27:a1:0e:80:b9:a6:77:d5:7b:67:f0:f4:
                    d4:52:da:79:28:ce:62:2c:ff:6f:cf:c3:fd:c8:56:
                    b6:78:fa:7e:45:d1:9c:fd:82:2c:71:4f:0d:a5:73:
                    01:c3:1b:37:9e:22:bf:6c:48:96:87:47:e5:92:f4:
                    0e:35
                Exponent: 65537 (0x10001)
        X509v3 extensions:
            X509v3 Basic Constraints: 
                CA:FALSE
            X509v3 Subject Key Identifier: 
                67:A1:E2:9E:08:EF:91:60:1A:8F:A4:23:86:62:A8:00:69:F7:15:B9
            X509v3 Authority Key Identifier: 
                keyid:8D:26:B5:11:05:43:BB:3D:7D:F6:94:91:FF:9A:D4:CA:9F:66:4F:E3
                DirName:/CN=team15-net
                serial:56:0E:58:59:1E:69:24:BF:2C:7B:E4:86:4D:20:A8:C7:F3:F4:35:B8
            X509v3 Extended Key Usage: 
                TLS Web Server Authentication
            X509v3 Key Usage: 
                Digital Signature, Key Encipherment
            X509v3 Subject Alternative Name: 
                DNS:team15-server
    Signature Algorithm: sha256WithRSAEncryption
    Signature Value:
        59:ea:05:29:95:cb:96:e3:ac:e1:36:11:ec:3a:bd:95:38:07:
        34:f1:cb:9c:18:f0:9f:e6:96:e6:30:6d:c2:12:58:92:5b:38:
        2c:0c:35:28:45:4b:6e:a4:bb:5b:41:22:c3:30:ba:22:2a:78:
        57:dc:55:71:a7:2f:4b:7f:3e:fa:18:38:d8:84:8d:7d:e2:c2:
        f9:50:4d:e3:22:b9:e2:fa:80:bc:fd:38:97:75:20:f7:87:2d:
        43:56:8c:77:60:13:28:21:49:4c:a1:e5:49:7d:c5:79:d0:b7:
        45:c4:22:24:46:ac:a9:ba:5b:74:bc:a5:1b:63:57:22:7e:40:
        54:78:3e:97:4b:43:54:95:3e:e0:86:2f:0a:e5:9a:71:55:7f:
        8c:e6:d3:3a:5c:9d:32:50:05:a3:c8:b6:f5:76:42:76:a0:d9:
        02:a0:81:60:32:62:90:ef:07:1a:4b:39:94:aa:c2:0d:26:03:
        a4:6d:ad:2b:e0:76:8f:ac:f0:05:1c:7c:de:c0:ba:8c:5e:a3:
        3f:b6:ed:6f:d1:d4:e1:38:89:8f:64:b4:94:1c:6e:5b:a6:81:
        94:61:49:7f:fd:32:8f:e9:22:3e:ad:62:e4:29:a5:32:db:f2:
        46:bd:10:6e:fa:26:2f:cc:1a:96:b0:27:c7:e9:36:2d:d4:2e:
        b3:21:3f:6a
-----BEGIN CERTIFICATE-----
MIIDczCCAlugAwIBAgIQdWvwIonrmb67ubb2npr2pzANBgkqhkiG9w0BAQsFADAV
MRMwEQYDVQQDDAp0ZWFtMTUtbmV0MB4XDTIzMTEwNDExMjczOVoXDTI2MTAxOTEx
MjczOVowGDEWMBQGA1UEAwwNdGVhbTE1LXNlcnZlcjCCASIwDQYJKoZIhvcNAQEB
BQADggEPADCCAQoCggEBAKrE0yGccvdf1Wty6SYhzLg3x+BdjEVjxxGjJioqQMVN
pRxcPFdWES3gHxDMOlKW97bjyUBQXZMeOQ3Cc9I44IXCuD/pBvU2ZBkju0jh7gGu
tX14PJuHLm9BJqgo/xN+e8u/CAEGg2ASLFwWzvqiiXBYC4vIYBEnpPUP9966MLJM
FUtV024DaIdzA5bP0WBkjwRjSdeV153mAehA9zxohLV7RYq0FMFXRsaTOujMGUhC
lxFodI+57MUstcmLVTXmcgI8dHWYJ6EOgLmmd9V7Z/D01FLaeSjOYiz/b8/D/chW
tnj6fkXRnP2CLHFPDaVzAcMbN54iv2xIlodH5ZL0DjUCAwEAAaOBuzCBuDAJBgNV
HRMEAjAAMB0GA1UdDgQWBBRnoeKeCO+RYBqPpCOGYqgAafcVuTBQBgNVHSMESTBH
gBSNJrURBUO7PX32lJH/mtTKn2ZP46EZpBcwFTETMBEGA1UEAwwKdGVhbTE1LW5l
dIIUVg5YWR5pJL8se+SGTSCox/P0NbgwEwYDVR0lBAwwCgYIKwYBBQUHAwEwCwYD
VR0PBAQDAgWgMBgGA1UdEQQRMA+CDXRlYW0xNS1zZXJ2ZXIwDQYJKoZIhvcNAQEL
BQADggEBAFnqBSmVy5bjrOE2Eew6vZU4BzTxy5wY8J/mluYwbcISWJJbOCwMNShF
S26ku1tBIsMwuiIqeFfcVXGnL0t/PvoYONiEjX3iwvlQTeMiueL6gLz9OJd1IPeH
LUNWjHdgEyghSUyh5Ul9xXnQt0XEIiRGrKm6W3S8pRtjVyJ+QFR4PpdLQ1SVPuCG
LwrlmnFVf4zm0zpcnTJQBaPItvV2Qnag2QKggWAyYpDvBxpLOZSqwg0mA6RtrSvg
do+s8AUcfN7Auoxeoz+27W/R1OE4iY9ktJQcblumgZRhSX/9Mo/pIj6tYuQppTLb
8ka9EG76Ji/MGpawJ8fpNi3ULrMhP2o=
-----END CERTIFICATE-----
