Certificate:
    Data:
        Version: 3 (0x2)
        Serial Number:
            ac:39:fc:ae:aa:15:e6:a2:d3:d6:3b:e5:0c:4e:29:9d
        Signature Algorithm: sha256WithRSAEncryption
        Issuer: CN=team15-net
        Validity
            Not Before: Nov  4 11:27:39 2023 GMT
            Not After : Oct 19 11:27:39 2026 GMT
        Subject: CN=team15-client
        Subject Public Key Info:
            Public Key Algorithm: rsaEncryption
                Public-Key: (2048 bit)
                Modulus:
                    00:a2:d8:a6:ad:b2:ec:1c:07:96:4a:89:7d:bc:c1:
                    b1:bb:d7:25:9a:52:bb:27:68:8d:31:33:68:4f:1d:
                    bd:fa:58:75:2e:c9:d6:92:51:fb:bc:4d:4f:8d:11:
                    6e:af:61:f8:3f:13:52:35:5c:19:23:9d:e8:12:f7:
                    72:8a:0e:36:dd:a6:63:f9:b5:7d:3e:5a:6d:ab:aa:
                    f9:9a:00:93:59:ab:26:42:30:fc:f2:98:a6:7a:54:
                    80:38:da:bf:be:05:33:13:c8:37:50:88:2f:bc:2e:
                    3e:aa:de:3c:ed:bd:e6:91:c6:dc:c8:be:96:1d:cb:
                    83:f0:e9:a4:7f:79:f4:a8:66:6d:c9:0f:98:df:d7:
                    d4:b5:b7:89:69:74:5c:ee:be:e0:05:01:20:57:b8:
                    22:aa:dd:29:bc:e8:15:5c:da:0f:32:70:9c:55:ce:
                    b2:d3:b6:2c:6c:82:40:8a:d6:34:49:70:24:be:a6:
                    ee:bd:fd:90:81:85:12:59:82:8d:6d:08:26:0f:9a:
                    eb:b0:2f:16:26:55:6a:9c:f4:df:6f:08:10:9e:7a:
                    f0:f2:fe:f6:48:31:6f:17:e1:32:0d:a1:84:d6:97:
                    fa:47:af:41:0a:c1:48:d4:5c:b9:2f:ab:ff:da:cb:
                    bc:c2:26:57:56:8b:c5:ec:c0:48:f7:08:06:f0:64:
                    4b:db
                Exponent: 65537 (0x10001)
        X509v3 extensions:
            X509v3 Basic Constraints: 
                CA:FALSE
            X509v3 Subject Key Identifier: 
                8D:03:95:F6:19:8D:21:9D:27:9A:08:6F:17:DF:59:1A:E9:94:AA:67
            X509v3 Authority Key Identifier: 
                keyid:8D:26:B5:11:05:43:BB:3D:7D:F6:94:91:FF:9A:D4:CA:9F:66:4F:E3
                DirName:/CN=team15-net
                serial:56:0E:58:59:1E:69:24:BF:2C:7B:E4:86:4D:20:A8:C7:F3:F4:35:B8
            X509v3 Extended Key Usage: 
                TLS Web Client Authentication
            X509v3 Key Usage: 
                Digital Signature
    Signature Algorithm: sha256WithRSAEncryption
    Signature Value:
        5c:65:29:23:13:18:89:03:3c:aa:0c:8d:43:99:52:d8:c8:6e:
        42:7a:df:72:51:2e:fd:3d:a1:d2:a8:30:b4:46:c7:35:f2:68:
        b0:46:11:a8:90:08:a6:18:18:28:ef:d7:46:86:ad:2c:72:5b:
        5d:23:4a:b0:da:4f:cd:58:04:da:86:24:43:8f:9e:c3:ac:62:
        5f:8d:bf:4a:06:4b:1a:a8:5e:52:8f:1c:98:c4:9e:84:06:64:
        e3:b4:e1:54:6c:16:c9:7d:da:84:43:b3:55:69:2e:18:30:a5:
        5a:c1:93:34:07:46:d9:33:a8:25:3f:2b:3d:91:84:0b:88:df:
        f6:04:69:66:7e:55:eb:29:1f:85:a0:29:d4:bd:71:37:fd:e7:
        26:99:09:bd:f7:31:1d:80:be:f3:6e:54:b5:86:94:15:34:bd:
        dd:5d:a3:6e:57:5f:f2:7b:35:f3:ed:e3:26:04:e5:bb:66:b9:
        3c:a3:3b:a6:90:a2:62:df:a8:c9:57:30:d6:ab:36:dd:a3:88:
        70:4a:3d:14:e8:67:78:a9:99:63:f0:5e:6d:27:6b:6c:e4:68:
        90:22:51:30:08:0c:d1:f1:f2:4f:a4:09:e5:0c:e9:ec:78:a7:
        c6:22:0b:f7:5f:ef:56:5a:11:3e:f2:7d:4a:04:d2:ab:63:68:
        4e:82:80:32
-----BEGIN CERTIFICATE-----
MIIDWjCCAkKgAwIBAgIRAKw5/K6qFeai09Y75QxOKZ0wDQYJKoZIhvcNAQELBQAw
FTETMBEGA1UEAwwKdGVhbTE1LW5ldDAeFw0yMzExMDQxMTI3MzlaFw0yNjEwMTkx
MTI3MzlaMBgxFjAUBgNVBAMMDXRlYW0xNS1jbGllbnQwggEiMA0GCSqGSIb3DQEB
AQUAA4IBDwAwggEKAoIBAQCi2KatsuwcB5ZKiX28wbG71yWaUrsnaI0xM2hPHb36
WHUuydaSUfu8TU+NEW6vYfg/E1I1XBkjnegS93KKDjbdpmP5tX0+Wm2rqvmaAJNZ
qyZCMPzymKZ6VIA42r++BTMTyDdQiC+8Lj6q3jztveaRxtzIvpYdy4Pw6aR/efSo
Zm3JD5jf19S1t4lpdFzuvuAFASBXuCKq3Sm86BVc2g8ycJxVzrLTtixsgkCK1jRJ
cCS+pu69/ZCBhRJZgo1tCCYPmuuwLxYmVWqc9N9vCBCeevDy/vZIMW8X4TINoYTW
l/pHr0EKwUjUXLkvq//ay7zCJldWi8XswEj3CAbwZEvbAgMBAAGjgaEwgZ4wCQYD
VR0TBAIwADAdBgNVHQ4EFgQUjQOV9hmNIZ0nmghvF99ZGumUqmcwUAYDVR0jBEkw
R4AUjSa1EQVDuz199pSR/5rUyp9mT+OhGaQXMBUxEzARBgNVBAMMCnRlYW0xNS1u
ZXSCFFYOWFkeaSS/LHvkhk0gqMfz9DW4MBMGA1UdJQQMMAoGCCsGAQUFBwMCMAsG
A1UdDwQEAwIHgDANBgkqhkiG9w0BAQsFAAOCAQEAXGUpIxMYiQM8qgyNQ5lS2Mhu
QnrfclEu/T2h0qgwtEbHNfJosEYRqJAIphgYKO/XRoatLHJbXSNKsNpPzVgE2oYk
Q4+ew6xiX42/SgZLGqheUo8cmMSehAZk47ThVGwWyX3ahEOzVWkuGDClWsGTNAdG
2TOoJT8rPZGEC4jf9gRpZn5V6ykfhaAp1L1xN/3nJpkJvfcxHYC+825UtYaUFTS9
3V2jbldf8ns18+3jJgTlu2a5PKM7ppCiYt+oyVcw1qs23aOIcEo9FOhneKmZY/Be
bSdrbORokCJRMAgM0fHyT6QJ5Qzp7HinxiIL91/vVloRPvJ9SgTSq2NoToKAMg==
-----END CERTIFICATE-----
