Certificate:
    Data:
        Version: 3 (0x2)
        Serial Number:
            bb:fb:40:fd:2f:66:07:96:7d:f9:fc:e2:58:60:f1:66
        Signature Algorithm: sha256WithRSAEncryption
        Issuer: CN=team15-net
        Validity
            Not Before: Nov  4 10:40:29 2023 GMT
            Not After : Oct 19 10:40:29 2026 GMT
        Subject: CN=team15-client
        Subject Public Key Info:
            Public Key Algorithm: rsaEncryption
                Public-Key: (2048 bit)
                Modulus:
                    00:c5:17:41:43:c3:6d:47:57:d1:67:a5:ff:f9:ee:
                    8b:d3:94:46:e4:ad:db:35:e6:2c:1f:5d:f6:84:0c:
                    8e:6d:0a:18:53:08:36:5f:bb:e9:2a:25:d3:60:8d:
                    17:aa:ec:da:f9:9a:19:79:53:d3:fd:c5:d7:c7:f0:
                    d6:f1:41:21:20:ca:a1:0f:51:fb:f7:7c:53:95:d0:
                    1b:a1:08:d7:6b:17:a3:d2:d5:fc:ec:61:e4:cd:e1:
                    66:9f:12:14:47:c3:87:87:ef:09:b0:bc:34:ed:56:
                    02:69:e8:4e:85:df:4f:94:82:01:2d:55:2e:b0:55:
                    41:9b:5c:29:55:c7:39:5e:68:bd:95:df:55:c2:f7:
                    67:c8:6b:ab:a0:84:72:7e:71:73:7c:46:13:42:bd:
                    d7:7b:2e:40:23:bc:e6:52:83:eb:b9:07:7c:3e:e1:
                    ee:be:c4:dc:c3:3f:1b:38:73:dd:2c:61:2f:cd:5e:
                    e6:f1:2c:60:f3:b2:8b:70:b3:83:1d:31:b1:83:5d:
                    ce:87:14:d4:76:cf:e1:32:4c:83:5b:41:c1:4f:6c:
                    ac:c4:dd:d1:47:c9:63:87:9d:11:b3:01:7e:a2:b4:
                    45:0f:23:b8:16:77:8e:92:2b:92:0a:18:e9:82:cd:
                    f7:23:0f:eb:0c:ec:43:9a:4a:29:7e:47:99:bd:e0:
                    09:55
                Exponent: 65537 (0x10001)
        X509v3 extensions:
            X509v3 Basic Constraints: 
                CA:FALSE
            X509v3 Subject Key Identifier: 
                10:A3:95:A8:48:1F:26:3F:E6:77:FB:53:6B:10:31:2A:00:07:F2:3E
            X509v3 Authority Key Identifier: 
                keyid:BE:D0:CA:4F:3F:9D:5D:27:7F:C2:2C:79:69:C2:F7:C5:2D:0B:AE:F5
                DirName:/CN=team15-net
                serial:4E:E7:42:46:49:B9:BC:BE:17:F0:09:BA:9D:05:67:B3:C4:0E:37:DF
            X509v3 Extended Key Usage: 
                TLS Web Client Authentication
            X509v3 Key Usage: 
                Digital Signature
    Signature Algorithm: sha256WithRSAEncryption
    Signature Value:
        68:d5:cd:73:de:8a:38:f8:fa:7c:db:ac:39:21:38:53:e8:f6:
        ba:2e:ed:cc:be:7b:68:a2:f3:1a:b3:10:10:24:20:79:43:0a:
        3f:92:8e:6c:ac:b3:bb:3c:8f:23:42:7a:7f:92:9b:33:50:72:
        92:41:26:44:01:4d:b8:66:01:fe:72:d5:4f:ad:bd:ca:c7:0d:
        c4:bc:0c:7e:22:51:88:3f:1f:8e:dc:99:cf:98:62:df:db:11:
        b0:2f:a4:f6:5b:ec:21:65:9a:77:bb:d3:c5:a9:e5:88:df:12:
        e9:ec:a0:cd:a0:f3:ad:10:47:f6:4d:fc:bc:18:3b:44:f3:71:
        95:e7:d1:92:b7:c6:17:af:43:da:dc:73:96:df:00:c9:92:6f:
        a9:5f:7c:f5:43:9e:45:f0:3b:33:86:db:61:57:33:ef:48:e1:
        b2:1f:52:51:f6:dd:cf:b4:a9:d7:57:b0:be:58:61:33:28:4d:
        c3:44:ef:9d:df:33:33:fd:ac:f4:31:e9:3d:12:f4:f2:43:c4:
        83:aa:95:41:a9:bb:5c:b3:1e:21:72:bd:e4:ae:ab:48:b2:72:
        63:84:b8:e4:99:01:e3:b4:d0:33:1c:2c:b8:d1:85:d8:24:e9:
        ea:39:e2:c2:dc:c1:97:b1:31:6f:cf:a5:c1:4a:b5:f0:6b:7e:
        f5:e0:1e:bb
-----BEGIN CERTIFICATE-----
MIIDWjCCAkKgAwIBAgIRALv7QP0vZgeWffn84lhg8WYwDQYJKoZIhvcNAQELBQAw
FTETMBEGA1UEAwwKdGVhbTE1LW5ldDAeFw0yMzExMDQxMDQwMjlaFw0yNjEwMTkx
MDQwMjlaMBgxFjAUBgNVBAMMDXRlYW0xNS1jbGllbnQwggEiMA0GCSqGSIb3DQEB
AQUAA4IBDwAwggEKAoIBAQDFF0FDw21HV9Fnpf/57ovTlEbkrds15iwfXfaEDI5t
ChhTCDZfu+kqJdNgjReq7Nr5mhl5U9P9xdfH8NbxQSEgyqEPUfv3fFOV0BuhCNdr
F6PS1fzsYeTN4WafEhRHw4eH7wmwvDTtVgJp6E6F30+UggEtVS6wVUGbXClVxzle
aL2V31XC92fIa6ughHJ+cXN8RhNCvdd7LkAjvOZSg+u5B3w+4e6+xNzDPxs4c90s
YS/NXubxLGDzsotws4MdMbGDXc6HFNR2z+EyTINbQcFPbKzE3dFHyWOHnRGzAX6i
tEUPI7gWd46SK5IKGOmCzfcjD+sM7EOaSil+R5m94AlVAgMBAAGjgaEwgZ4wCQYD
VR0TBAIwADAdBgNVHQ4EFgQUEKOVqEgfJj/md/tTaxAxKgAH8j4wUAYDVR0jBEkw
R4AUvtDKTz+dXSd/wix5acL3xS0LrvWhGaQXMBUxEzARBgNVBAMMCnRlYW0xNS1u
ZXSCFE7nQkZJuby+F/AJup0FZ7PEDjffMBMGA1UdJQQMMAoGCCsGAQUFBwMCMAsG
A1UdDwQEAwIHgDANBgkqhkiG9w0BAQsFAAOCAQEAaNXNc96KOPj6fNusOSE4U+j2
ui7tzL57aKLzGrMQECQgeUMKP5KObKyzuzyPI0J6f5KbM1BykkEmRAFNuGYB/nLV
T629yscNxLwMfiJRiD8fjtyZz5hi39sRsC+k9lvsIWWad7vTxanliN8S6eygzaDz
rRBH9k38vBg7RPNxlefRkrfGF69D2txzlt8AyZJvqV989UOeRfA7M4bbYVcz70jh
sh9SUfbdz7Sp11ewvlhhMyhNw0Tvnd8zM/2s9DHpPRL08kPEg6qVQam7XLMeIXK9
5K6rSLJyY4S45JkB47TQMxwsuNGF2CTp6jniwtzBl7Exb8+lwUq18Gt+9eAeuw==
-----END CERTIFICATE-----
