Certificate:
    Data:
        Version: 3 (0x2)
        Serial Number:
            8f:5c:5a:d5:9a:32:d5:70:bc:54:89:ae:42:55:f5:65
        Signature Algorithm: sha256WithRSAEncryption
        Issuer: CN=team347-net
        Validity
            Not Before: Nov  3 20:45:36 2023 GMT
            Not After : Oct 18 20:45:36 2026 GMT
        Subject: CN=team347-server
        Subject Public Key Info:
            Public Key Algorithm: rsaEncryption
                Public-Key: (2048 bit)
                Modulus:
                    00:d5:8c:0d:74:70:53:3f:b7:c7:87:57:5f:2d:49:
                    8c:76:91:76:a4:f6:0d:ad:b7:61:62:d3:7b:0d:81:
                    eb:d1:36:a1:5c:0f:95:da:75:d6:a0:7c:73:4c:03:
                    16:bd:77:63:80:19:43:dc:0b:6b:eb:17:b3:8f:2d:
                    2d:c2:46:c1:32:65:ab:7e:e4:31:f8:71:61:56:90:
                    2a:57:66:eb:eb:73:40:30:23:6d:fa:a9:bf:75:58:
                    af:b9:c5:ed:ae:9c:55:0d:1d:4d:24:b7:fd:59:58:
                    28:56:1d:cb:a5:31:2d:20:76:de:1a:80:63:b5:02:
                    f9:c3:9e:99:7c:52:11:39:46:9e:d0:c7:83:ff:09:
                    8b:09:b1:51:97:63:eb:3c:00:0e:ac:eb:59:b5:e8:
                    1d:06:1d:21:25:d6:f5:5c:cd:94:bf:80:cf:0b:46:
                    ba:3f:a4:6b:d7:41:42:da:21:a9:bf:25:7c:fe:ad:
                    3a:64:ba:19:2c:b1:c7:16:f8:ee:39:1b:13:02:c7:
                    69:b1:7e:64:81:da:c3:d1:cc:00:9e:cd:8b:8d:2f:
                    e5:ee:e3:85:b5:72:23:53:e6:08:83:fe:38:a2:79:
                    5b:02:3a:ba:aa:35:bb:2c:18:44:b2:0f:11:a8:ed:
                    5b:7c:25:4f:cd:8b:4b:98:b1:b6:ca:57:35:7f:a1:
                    11:27
                Exponent: 65537 (0x10001)
        X509v3 extensions:
            X509v3 Basic Constraints: 
                CA:FALSE
            X509v3 Subject Key Identifier: 
                9C:9B:37:C4:50:A6:C1:00:F9:9E:FE:9A:A0:16:3A:F4:E7:39:0E:9C
            X509v3 Authority Key Identifier: 
                keyid:4A:BE:6C:73:84:6C:78:1A:E0:F5:71:47:D4:3D:83:9E:6D:E6:6D:88
                DirName:/CN=team347-net
                serial:25:73:7F:55:AA:A8:C4:A2:16:65:94:B3:75:77:33:0B:BB:64:25:6C
            X509v3 Extended Key Usage: 
                TLS Web Server Authentication
            X509v3 Key Usage: 
                Digital Signature, Key Encipherment
            X509v3 Subject Alternative Name: 
                DNS:team347-server
    Signature Algorithm: sha256WithRSAEncryption
    Signature Value:
        94:48:a0:dd:27:2b:3f:b2:53:d2:38:2b:74:2a:43:34:92:91:
        6b:42:42:c0:97:78:e7:54:f4:2c:99:bb:83:e1:7b:d2:24:71:
        4e:8d:44:cf:95:79:e4:c7:83:2c:b9:6d:5e:82:44:68:62:54:
        4e:90:a9:93:c8:47:8d:0f:6a:84:5e:d8:92:26:80:cb:0a:cb:
        12:03:47:d5:68:b0:47:57:68:4d:9c:55:41:b4:49:eb:a0:7e:
        92:5d:09:cf:6b:05:48:0a:a0:99:1d:ae:90:9f:3d:ae:76:9a:
        2a:9c:a5:f5:62:f2:c0:4a:e9:45:2b:fc:19:ce:de:f6:a8:77:
        3f:eb:a8:29:02:d7:9d:aa:bc:2f:1e:87:87:0a:39:73:85:d4:
        72:75:c9:71:f7:81:04:fc:6d:ed:cb:8a:de:9a:04:0b:ac:c5:
        4e:c8:1e:ae:50:9f:36:92:99:0b:fa:e9:c0:7d:bb:65:7d:a1:
        60:e1:4e:dd:ce:1c:e0:f4:2c:f0:a8:df:50:e0:1a:17:b9:5a:
        85:df:1f:b6:3f:51:9e:3e:05:15:82:fa:37:d3:d4:80:8c:42:
        b8:da:fe:5e:2f:f4:6e:3e:cf:c4:68:a4:42:40:27:d7:4c:c1:
        27:4a:db:fc:82:03:ae:11:12:04:40:e2:f6:d5:95:5b:1e:84:
        8c:89:b6:c4
-----BEGIN CERTIFICATE-----
MIIDeDCCAmCgAwIBAgIRAI9cWtWaMtVwvFSJrkJV9WUwDQYJKoZIhvcNAQELBQAw
FjEUMBIGA1UEAwwLdGVhbTM0Ny1uZXQwHhcNMjMxMTAzMjA0NTM2WhcNMjYxMDE4
MjA0NTM2WjAZMRcwFQYDVQQDDA50ZWFtMzQ3LXNlcnZlcjCCASIwDQYJKoZIhvcN
AQEBBQADggEPADCCAQoCggEBANWMDXRwUz+3x4dXXy1JjHaRdqT2Da23YWLTew2B
69E2oVwPldp11qB8c0wDFr13Y4AZQ9wLa+sXs48tLcJGwTJlq37kMfhxYVaQKldm
6+tzQDAjbfqpv3VYr7nF7a6cVQ0dTSS3/VlYKFYdy6UxLSB23hqAY7UC+cOemXxS
ETlGntDHg/8JiwmxUZdj6zwADqzrWbXoHQYdISXW9VzNlL+AzwtGuj+ka9dBQtoh
qb8lfP6tOmS6GSyxxxb47jkbEwLHabF+ZIHaw9HMAJ7Ni40v5e7jhbVyI1PmCIP+
OKJ5WwI6uqo1uywYRLIPEajtW3wlT82LS5ixtspXNX+hEScCAwEAAaOBvTCBujAJ
BgNVHRMEAjAAMB0GA1UdDgQWBBScmzfEUKbBAPme/pqgFjr05zkOnDBRBgNVHSME
SjBIgBRKvmxzhGx4GuD1cUfUPYOebeZtiKEapBgwFjEUMBIGA1UEAwwLdGVhbTM0
Ny1uZXSCFCVzf1WqqMSiFmWUs3V3Mwu7ZCVsMBMGA1UdJQQMMAoGCCsGAQUFBwMB
MAsGA1UdDwQEAwIFoDAZBgNVHREEEjAQgg50ZWFtMzQ3LXNlcnZlcjANBgkqhkiG
9w0BAQsFAAOCAQEAlEig3ScrP7JT0jgrdCpDNJKRa0JCwJd451T0LJm7g+F70iRx
To1Ez5V55MeDLLltXoJEaGJUTpCpk8hHjQ9qhF7YkiaAywrLEgNH1WiwR1doTZxV
QbRJ66B+kl0Jz2sFSAqgmR2ukJ89rnaaKpyl9WLywErpRSv8Gc7e9qh3P+uoKQLX
naq8Lx6Hhwo5c4XUcnXJcfeBBPxt7cuK3poEC6zFTsgerlCfNpKZC/rpwH27ZX2h
YOFO3c4c4PQs8KjfUOAaF7lahd8ftj9Rnj4FFYL6N9PUgIxCuNr+Xi/0bj7PxGik
QkAn10zBJ0rb/IIDrhESBEDi9tWVWx6EjIm2xA==
-----END CERTIFICATE-----
