Certificate:
    Data:
        Version: 3 (0x2)
        Serial Number:
            ae:80:d4:44:75:64:67:1d:0f:51:85:7b:64:dc:e4:0f
        Signature Algorithm: sha256WithRSAEncryption
        Issuer: CN=team419-net
        Validity
            Not Before: Nov  3 20:46:50 2023 GMT
            Not After : Oct 18 20:46:50 2026 GMT
        Subject: CN=team419-server
        Subject Public Key Info:
            Public Key Algorithm: rsaEncryption
                Public-Key: (2048 bit)
                Modulus:
                    00:8f:0a:05:d3:f4:22:79:58:4d:b7:5e:d3:34:01:
                    70:86:dc:1e:39:79:ba:e6:08:69:16:71:34:b4:cc:
                    1c:1d:5e:cd:71:c5:fc:20:08:4d:ad:c1:6c:3a:46:
                    6d:f1:f1:26:7a:2c:e6:38:49:a6:9f:a6:66:6b:61:
                    3c:02:8b:cc:df:f1:37:dd:27:ca:d5:a5:3c:61:68:
                    7f:82:f7:40:83:d7:5a:84:a6:8d:1f:ed:23:26:03:
                    b6:bd:df:18:cc:7c:a0:96:88:6d:09:81:fd:65:1d:
                    25:04:6c:2b:8f:43:aa:14:2f:73:36:70:29:cc:09:
                    43:8e:88:da:e3:33:74:f3:8e:d9:0d:cc:c9:f9:77:
                    c3:18:4c:f7:8e:06:47:a8:bc:12:04:ba:45:5b:f7:
                    35:d7:b6:82:01:06:68:10:45:17:eb:c3:01:a1:02:
                    fe:b9:c1:90:01:0c:94:25:d7:1f:64:3d:9b:79:9f:
                    8d:f8:dd:39:e0:ca:10:a2:61:20:f8:7a:8a:b2:7c:
                    12:bd:b8:5e:a7:36:05:39:96:cd:36:5b:df:ab:7c:
                    8f:11:ce:20:a0:c4:00:ff:0b:07:9d:1e:6d:d4:2f:
                    92:d0:d7:22:9e:7d:30:4f:f7:0f:8a:4a:63:3c:4a:
                    39:9d:2c:92:b2:f8:fd:88:98:79:1f:1c:74:62:3b:
                    aa:f9
                Exponent: 65537 (0x10001)
        X509v3 extensions:
            X509v3 Basic Constraints: 
                CA:FALSE
            X509v3 Subject Key Identifier: 
                33:DD:18:E2:12:8C:84:56:94:38:17:B4:14:9E:87:7D:E2:73:1B:8E
            X509v3 Authority Key Identifier: 
                keyid:83:EC:72:7B:6E:92:21:8E:3B:51:A9:38:98:06:16:08:2F:E9:FC:94
                DirName:/CN=team419-net
                serial:3C:F8:3D:74:AC:F4:80:98:37:D7:92:3A:48:AC:A3:6E:E5:66:BD:7B
            X509v3 Extended Key Usage: 
                TLS Web Server Authentication
            X509v3 Key Usage: 
                Digital Signature, Key Encipherment
            X509v3 Subject Alternative Name: 
                DNS:team419-server
    Signature Algorithm: sha256WithRSAEncryption
    Signature Value:
        3d:84:3d:9a:53:e6:f5:d1:e9:21:1c:41:4c:f0:81:14:ea:15:
        80:ae:ec:b6:45:ac:28:4b:22:71:42:50:a0:56:f3:13:93:06:
        8d:bf:65:b3:ad:88:20:60:1a:0f:50:31:a3:a3:02:15:40:42:
        c8:84:c3:cd:7c:16:20:98:74:da:a1:95:5b:86:75:a1:4e:e6:
        16:6c:b0:b0:13:d6:ea:d9:b4:d1:f5:12:bd:80:f8:15:d9:8c:
        ea:43:05:7d:6f:ff:25:4b:84:50:60:6a:90:6b:da:f9:de:08:
        06:f3:c0:c2:93:e3:dd:cf:2a:ad:30:b5:20:b1:06:2c:96:9f:
        32:2b:a2:68:b6:d1:87:8b:3f:65:50:42:fa:ee:02:8e:f0:13:
        78:24:b1:fe:b2:33:cb:26:e3:ae:03:c1:1d:66:b3:ed:4d:a7:
        d8:69:63:46:00:78:c2:c2:a2:b3:f9:7d:00:0f:04:0b:6a:56:
        0c:e0:c6:5e:af:0a:a1:24:a2:2a:6c:3b:c6:e0:55:f5:ee:cd:
        ab:8e:9a:85:8e:a5:c7:84:14:19:d2:9a:29:2f:26:7c:53:19:
        8e:20:3d:7d:5f:45:f6:78:f9:07:4e:c2:27:05:d7:58:c9:ec:
        dd:75:32:5c:38:95:d6:3f:bc:46:f3:f8:ca:41:7c:80:98:58:
        f9:80:36:de
-----BEGIN CERTIFICATE-----
MIIDeDCCAmCgAwIBAgIRAK6A1ER1ZGcdD1GFe2Tc5A8wDQYJKoZIhvcNAQELBQAw
FjEUMBIGA1UEAwwLdGVhbTQxOS1uZXQwHhcNMjMxMTAzMjA0NjUwWhcNMjYxMDE4
MjA0NjUwWjAZMRcwFQYDVQQDDA50ZWFtNDE5LXNlcnZlcjCCASIwDQYJKoZIhvcN
AQEBBQADggEPADCCAQoCggEBAI8KBdP0InlYTbde0zQBcIbcHjl5uuYIaRZxNLTM
HB1ezXHF/CAITa3BbDpGbfHxJnos5jhJpp+mZmthPAKLzN/xN90nytWlPGFof4L3
QIPXWoSmjR/tIyYDtr3fGMx8oJaIbQmB/WUdJQRsK49DqhQvczZwKcwJQ46I2uMz
dPOO2Q3Myfl3wxhM944GR6i8EgS6RVv3Nde2ggEGaBBFF+vDAaEC/rnBkAEMlCXX
H2Q9m3mfjfjdOeDKEKJhIPh6irJ8Er24Xqc2BTmWzTZb36t8jxHOIKDEAP8LB50e
bdQvktDXIp59ME/3D4pKYzxKOZ0skrL4/YiYeR8cdGI7qvkCAwEAAaOBvTCBujAJ
BgNVHRMEAjAAMB0GA1UdDgQWBBQz3RjiEoyEVpQ4F7QUnod94nMbjjBRBgNVHSME
SjBIgBSD7HJ7bpIhjjtRqTiYBhYIL+n8lKEapBgwFjEUMBIGA1UEAwwLdGVhbTQx
OS1uZXSCFDz4PXSs9ICYN9eSOkiso27lZr17MBMGA1UdJQQMMAoGCCsGAQUFBwMB
MAsGA1UdDwQEAwIFoDAZBgNVHREEEjAQgg50ZWFtNDE5LXNlcnZlcjANBgkqhkiG
9w0BAQsFAAOCAQEAPYQ9mlPm9dHpIRxBTPCBFOoVgK7stkWsKEsicUJQoFbzE5MG
jb9ls62IIGAaD1Axo6MCFUBCyITDzXwWIJh02qGVW4Z1oU7mFmywsBPW6tm00fUS
vYD4FdmM6kMFfW//JUuEUGBqkGva+d4IBvPAwpPj3c8qrTC1ILEGLJafMiuiaLbR
h4s/ZVBC+u4CjvATeCSx/rIzyybjrgPBHWaz7U2n2GljRgB4wsKis/l9AA8EC2pW
DODGXq8KoSSiKmw7xuBV9e7Nq46ahY6lx4QUGdKaKS8mfFMZjiA9fV9F9nj5B07C
JwXXWMns3XUyXDiV1j+8RvP4ykF8gJhY+YA23g==
-----END CERTIFICATE-----
