Certificate:
    Data:
        Version: 3 (0x2)
        Serial Number:
            35:da:1f:96:5b:67:73:01:54:0c:43:1d:bd:3f:e1:ef
        Signature Algorithm: sha256WithRSAEncryption
        Issuer: CN=team126-net
        Validity
            Not Before: Nov  4 10:42:51 2023 GMT
            Not After : Oct 19 10:42:51 2026 GMT
        Subject: CN=team126-server
        Subject Public Key Info:
            Public Key Algorithm: rsaEncryption
                Public-Key: (2048 bit)
                Modulus:
                    00:a9:6c:2f:87:bd:af:b3:a3:14:94:36:94:9c:b7:
                    df:e1:8b:3f:bd:a0:3a:29:c8:f2:28:11:e3:ac:56:
                    3d:f5:d3:12:db:c1:dc:86:ff:bb:3b:83:6c:56:89:
                    83:ad:72:30:36:72:82:4a:a4:74:72:d3:ad:f4:d1:
                    42:0d:21:bf:23:c5:c5:7f:92:40:be:b6:8d:d7:7a:
                    fe:8e:99:d5:37:06:6c:16:d8:1b:36:08:d1:52:1f:
                    b1:a5:2b:f1:77:e2:dd:40:b8:ce:b9:fc:79:4c:26:
                    a5:ef:3d:0e:ba:eb:f8:f0:bc:cf:96:e4:e5:dc:b7:
                    7b:3e:c9:42:32:67:c4:16:e3:21:d1:3d:50:53:79:
                    c9:b5:37:f4:81:c9:5c:e2:91:6a:37:b4:e8:44:ac:
                    04:a1:6f:6b:cb:3c:28:c8:0e:12:ef:7e:cb:89:29:
                    88:b7:3f:e0:61:95:3b:76:59:54:29:83:aa:0f:8b:
                    9b:81:d5:fb:51:0a:00:85:65:ac:5f:e3:ae:0e:94:
                    b4:97:86:a5:2d:03:6f:c8:3a:41:f2:47:64:62:9b:
                    aa:3e:a7:35:a1:e7:7a:42:22:80:a1:25:9e:9a:9d:
                    a3:1d:57:a0:6c:e7:3b:0f:e2:fb:6e:86:a4:5b:e1:
                    35:ac:a6:97:63:2a:3f:7c:ec:18:24:65:29:56:28:
                    06:51
                Exponent: 65537 (0x10001)
        X509v3 extensions:
            X509v3 Basic Constraints: 
                CA:FALSE
            X509v3 Subject Key Identifier: 
                D0:13:FC:68:A6:60:DF:D3:D5:67:76:AF:62:63:37:A1:18:5E:07:01
            X509v3 Authority Key Identifier: 
                keyid:F8:B0:15:A7:AA:25:F6:D3:EE:0E:CF:5E:83:53:3D:1A:CA:7C:5A:AC
                DirName:/CN=team126-net
                serial:71:27:10:EE:A8:9B:91:E7:BD:73:4A:2B:3A:8E:00:47:0A:C8:5A:0C
            X509v3 Extended Key Usage: 
                TLS Web Server Authentication
            X509v3 Key Usage: 
                Digital Signature, Key Encipherment
            X509v3 Subject Alternative Name: 
                DNS:team126-server
    Signature Algorithm: sha256WithRSAEncryption
    Signature Value:
        6c:52:2b:da:71:2f:af:df:84:07:f6:9e:7c:03:a4:b6:24:b9:
        72:83:3b:39:ec:ae:6d:60:60:ba:8d:30:61:08:98:21:30:16:
        12:08:05:a1:2c:88:03:3e:f7:b9:13:60:fc:73:79:09:2e:00:
        d4:7f:06:93:62:0e:fe:a8:9b:2a:e5:d8:38:14:f7:80:61:fc:
        62:91:03:b0:74:01:a7:70:c0:18:ba:36:ed:ab:2d:21:67:54:
        67:46:5e:ee:79:87:38:97:9e:99:e4:c6:2f:2d:5c:96:e6:f3:
        18:0d:f4:8c:17:4d:b4:1f:d3:4c:66:52:8f:25:e8:3a:ff:76:
        f3:6c:78:d1:fe:aa:00:eb:f0:99:b6:30:59:00:dd:53:2a:ae:
        12:bf:d6:0b:8a:c2:34:54:c6:94:69:b7:40:ff:fe:b5:1a:9d:
        1f:e2:60:f0:5e:fa:18:15:ba:6a:41:dc:d4:9b:81:cc:6c:8b:
        f4:89:8b:a7:f7:c4:88:7e:b6:de:54:6f:a4:74:99:1e:2d:34:
        08:32:73:a7:69:82:95:1b:13:e6:64:aa:3d:8d:bd:53:78:12:
        a5:47:d7:54:ed:f5:c4:34:24:b7:09:30:38:9f:17:6a:79:f7:
        6b:a7:d2:2a:5d:10:f9:a8:1e:c3:96:82:ed:46:ef:e3:f7:a1:
        22:8d:0a:c3
-----BEGIN CERTIFICATE-----
MIIDdzCCAl+gAwIBAgIQNdoflltncwFUDEMdvT/h7zANBgkqhkiG9w0BAQsFADAW
MRQwEgYDVQQDDAt0ZWFtMTI2LW5ldDAeFw0yMzExMDQxMDQyNTFaFw0yNjEwMTkx
MDQyNTFaMBkxFzAVBgNVBAMMDnRlYW0xMjYtc2VydmVyMIIBIjANBgkqhkiG9w0B
AQEFAAOCAQ8AMIIBCgKCAQEAqWwvh72vs6MUlDaUnLff4Ys/vaA6KcjyKBHjrFY9
9dMS28Hchv+7O4NsVomDrXIwNnKCSqR0ctOt9NFCDSG/I8XFf5JAvraN13r+jpnV
NwZsFtgbNgjRUh+xpSvxd+LdQLjOufx5TCal7z0Ouuv48LzPluTl3Ld7PslCMmfE
FuMh0T1QU3nJtTf0gclc4pFqN7ToRKwEoW9ryzwoyA4S737LiSmItz/gYZU7dllU
KYOqD4ubgdX7UQoAhWWsX+OuDpS0l4alLQNvyDpB8kdkYpuqPqc1oed6QiKAoSWe
mp2jHVegbOc7D+L7boakW+E1rKaXYyo/fOwYJGUpVigGUQIDAQABo4G9MIG6MAkG
A1UdEwQCMAAwHQYDVR0OBBYEFNAT/GimYN/T1Wd2r2JjN6EYXgcBMFEGA1UdIwRK
MEiAFPiwFaeqJfbT7g7PXoNTPRrKfFqsoRqkGDAWMRQwEgYDVQQDDAt0ZWFtMTI2
LW5ldIIUcScQ7qibkee9c0orOo4ARwrIWgwwEwYDVR0lBAwwCgYIKwYBBQUHAwEw
CwYDVR0PBAQDAgWgMBkGA1UdEQQSMBCCDnRlYW0xMjYtc2VydmVyMA0GCSqGSIb3
DQEBCwUAA4IBAQBsUivacS+v34QH9p58A6S2JLlygzs57K5tYGC6jTBhCJghMBYS
CAWhLIgDPve5E2D8c3kJLgDUfwaTYg7+qJsq5dg4FPeAYfxikQOwdAGncMAYujbt
qy0hZ1RnRl7ueYc4l56Z5MYvLVyW5vMYDfSMF020H9NMZlKPJeg6/3bzbHjR/qoA
6/CZtjBZAN1TKq4Sv9YLisI0VMaUabdA//61Gp0f4mDwXvoYFbpqQdzUm4HMbIv0
iYun98SIfrbeVG+kdJkeLTQIMnOnaYKVGxPmZKo9jb1TeBKlR9dU7fXENCS3CTA4
nxdqefdrp9IqXRD5qB7DloLtRu/j96EijQrD
-----END CERTIFICATE-----
