Certificate:
    Data:
        Version: 3 (0x2)
        Serial Number:
            bf:8f:1f:d9:c5:04:9c:a1:7b:ac:7d:9d:89:ce:30:61
        Signature Algorithm: sha256WithRSAEncryption
        Issuer: CN=team126-net
        Validity
            Not Before: Nov  4 10:42:50 2023 GMT
            Not After : Oct 19 10:42:50 2026 GMT
        Subject: CN=team126-client
        Subject Public Key Info:
            Public Key Algorithm: rsaEncryption
                Public-Key: (2048 bit)
                Modulus:
                    00:97:ad:96:54:9b:b6:7f:c0:11:47:a3:b0:e4:6a:
                    e8:95:c2:ef:80:05:d5:87:2e:d9:6a:42:6a:91:eb:
                    f8:bf:c2:10:73:a3:30:ac:14:38:5c:b0:5a:17:05:
                    9d:08:c8:e8:0a:26:37:f7:24:ce:1a:48:af:f8:55:
                    c6:9b:ec:da:58:db:35:3c:c2:18:bf:40:6b:ee:b0:
                    6f:ed:5d:98:4a:3c:98:d0:88:ca:d2:27:44:89:e9:
                    22:b5:3a:ae:a6:1c:27:4b:85:1c:06:53:2b:5d:14:
                    cd:74:2b:9e:86:51:91:23:04:69:85:45:fa:57:25:
                    c7:a6:46:9a:dd:36:25:be:ce:39:91:80:f3:b5:05:
                    1e:39:71:85:8e:55:4c:d0:ff:5b:08:8d:8b:ac:44:
                    e2:07:7b:70:92:22:10:4e:38:4f:ea:99:69:68:3f:
                    a7:4a:53:a9:4c:30:40:50:02:9a:2c:22:f0:57:fe:
                    ec:1c:82:76:ee:06:7d:46:09:8f:20:c2:5e:5a:49:
                    42:17:fb:65:32:41:bf:ac:38:40:40:06:53:bc:ff:
                    5c:0a:45:e4:78:b6:49:4b:8f:a9:1c:33:d5:f6:1e:
                    12:58:5d:d7:cf:40:f6:dc:97:0c:8e:39:cc:52:97:
                    2c:6b:ea:da:54:31:ba:d8:7d:11:b1:c5:83:57:04:
                    18:4b
                Exponent: 65537 (0x10001)
        X509v3 extensions:
            X509v3 Basic Constraints: 
                CA:FALSE
            X509v3 Subject Key Identifier: 
                70:99:D6:7B:A6:CE:25:46:B9:1E:33:F5:EA:53:82:A5:20:A8:ED:67
            X509v3 Authority Key Identifier: 
                keyid:F8:B0:15:A7:AA:25:F6:D3:EE:0E:CF:5E:83:53:3D:1A:CA:7C:5A:AC
                DirName:/CN=team126-net
                serial:71:27:10:EE:A8:9B:91:E7:BD:73:4A:2B:3A:8E:00:47:0A:C8:5A:0C
            X509v3 Extended Key Usage: 
                TLS Web Client Authentication
            X509v3 Key Usage: 
                Digital Signature
    Signature Algorithm: sha256WithRSAEncryption
    Signature Value:
        41:bf:f3:55:12:c6:89:3a:3c:23:b8:4a:9c:95:d5:e6:8b:2c:
        bb:3a:ab:7b:57:df:ee:01:bf:8e:b5:a0:43:ac:2f:d8:8b:ca:
        d3:bd:d0:41:1a:99:ca:db:da:0a:a8:24:34:61:38:31:ed:19:
        78:ab:f5:a3:86:ec:c3:89:92:cd:d8:68:94:cf:4e:f2:4f:ca:
        5e:7a:b7:db:3f:07:bf:60:c4:05:92:37:00:da:e5:19:61:74:
        96:3a:80:0c:7f:98:6f:1e:4d:e5:bc:90:de:38:16:f7:99:a0:
        fb:27:f0:7a:10:1e:37:df:c3:04:3c:77:36:2a:88:47:13:e1:
        b6:c3:89:e8:ab:08:73:e8:73:a4:8d:4b:2f:ee:ad:19:98:3b:
        0d:ff:e7:2b:af:09:a7:7b:a6:0d:c7:68:e1:8e:6d:0c:d3:58:
        4c:14:84:d3:01:14:71:41:d1:43:91:fb:b8:19:72:45:e5:de:
        fb:3b:ca:1f:ae:e5:57:9b:d2:3c:7e:b3:c0:0b:0e:0a:e3:59:
        c2:56:bd:26:3b:27:a8:f9:75:5a:ab:95:db:b8:2f:11:52:f5:
        c3:b1:b5:b0:d6:49:86:ce:c1:7b:92:c8:28:bc:29:e9:81:95:
        05:a7:97:d5:28:a7:48:4a:72:84:d1:81:e4:e0:24:56:f3:c0:
        fd:40:1c:bd
-----BEGIN CERTIFICATE-----
MIIDXTCCAkWgAwIBAgIRAL+PH9nFBJyhe6x9nYnOMGEwDQYJKoZIhvcNAQELBQAw
FjEUMBIGA1UEAwwLdGVhbTEyNi1uZXQwHhcNMjMxMTA0MTA0MjUwWhcNMjYxMDE5
MTA0MjUwWjAZMRcwFQYDVQQDDA50ZWFtMTI2LWNsaWVudDCCASIwDQYJKoZIhvcN
AQEBBQADggEPADCCAQoCggEBAJetllSbtn/AEUejsORq6JXC74AF1Ycu2WpCapHr
+L/CEHOjMKwUOFywWhcFnQjI6AomN/ckzhpIr/hVxpvs2ljbNTzCGL9Aa+6wb+1d
mEo8mNCIytInRInpIrU6rqYcJ0uFHAZTK10UzXQrnoZRkSMEaYVF+lclx6ZGmt02
Jb7OOZGA87UFHjlxhY5VTND/WwiNi6xE4gd7cJIiEE44T+qZaWg/p0pTqUwwQFAC
miwi8Ff+7ByCdu4GfUYJjyDCXlpJQhf7ZTJBv6w4QEAGU7z/XApF5Hi2SUuPqRwz
1fYeElhd189A9tyXDI45zFKXLGvq2lQxuth9EbHFg1cEGEsCAwEAAaOBojCBnzAJ
BgNVHRMEAjAAMB0GA1UdDgQWBBRwmdZ7ps4lRrkeM/XqU4KlIKjtZzBRBgNVHSME
SjBIgBT4sBWnqiX20+4Oz16DUz0aynxarKEapBgwFjEUMBIGA1UEAwwLdGVhbTEy
Ni1uZXSCFHEnEO6om5HnvXNKKzqOAEcKyFoMMBMGA1UdJQQMMAoGCCsGAQUFBwMC
MAsGA1UdDwQEAwIHgDANBgkqhkiG9w0BAQsFAAOCAQEAQb/zVRLGiTo8I7hKnJXV
5ossuzqre1ff7gG/jrWgQ6wv2IvK073QQRqZytvaCqgkNGE4Me0ZeKv1o4bsw4mS
zdholM9O8k/KXnq32z8Hv2DEBZI3ANrlGWF0ljqADH+Ybx5N5byQ3jgW95mg+yfw
ehAeN9/DBDx3NiqIRxPhtsOJ6KsIc+hzpI1LL+6tGZg7Df/nK68Jp3umDcdo4Y5t
DNNYTBSE0wEUcUHRQ5H7uBlyReXe+zvKH67lV5vSPH6zwAsOCuNZwla9JjsnqPl1
WquV27gvEVL1w7G1sNZJhs7Be5LIKLwp6YGVBaeX1SinSEpyhNGB5OAkVvPA/UAc
vQ==
-----END CERTIFICATE-----
