Certificate:
    Data:
        Version: 3 (0x2)
        Serial Number:
            a8:6c:d9:da:23:3a:92:30:43:88:d9:0f:7d:58:66:2b
        Signature Algorithm: sha256WithRSAEncryption
        Issuer: CN=team72-net
        Validity
            Not Before: Nov  4 10:41:42 2023 GMT
            Not After : Oct 19 10:41:42 2026 GMT
        Subject: CN=team72-server
        Subject Public Key Info:
            Public Key Algorithm: rsaEncryption
                Public-Key: (2048 bit)
                Modulus:
                    00:a2:47:f2:d3:16:c2:dc:31:ea:2d:95:d9:a6:c2:
                    30:f9:9d:fe:06:f9:4e:9f:88:5e:0a:b2:2f:98:bc:
                    93:09:fc:fb:3e:b5:47:b0:e9:32:27:43:80:0c:d0:
                    30:95:77:3b:61:c0:fd:d2:b4:01:0c:bc:89:c6:30:
                    3a:a1:81:e6:ba:ea:9c:22:e4:b3:fc:0f:d4:25:03:
                    ad:27:d2:36:ff:c8:80:e6:18:12:24:39:ac:bf:49:
                    97:fd:2b:42:43:58:6d:1c:7b:4d:66:a2:fc:de:0c:
                    62:07:b6:f7:1e:69:88:4c:8f:17:ff:ea:4c:df:6a:
                    e3:d8:db:d1:7c:07:50:05:d3:12:68:67:17:ad:cb:
                    f9:48:10:d3:c0:f8:81:0b:05:ca:10:94:98:c3:f7:
                    04:c9:6a:c8:9a:06:18:ea:42:c0:77:47:13:ef:7d:
                    22:01:d3:39:a5:8a:a6:46:3a:b4:46:65:44:e3:04:
                    c4:ed:cc:8c:6e:96:da:3d:b1:2e:0f:e1:93:f2:a3:
                    df:d2:8f:3b:e4:7f:5f:9b:b9:29:2c:e8:ec:3f:28:
                    b8:ad:de:06:63:3d:9b:7f:9e:49:4a:76:6c:77:63:
                    f2:03:8e:c0:2a:75:1f:07:00:ab:e0:84:92:6e:85:
                    95:3c:da:d3:e2:5b:b6:71:ee:3e:ad:d1:16:c0:a4:
                    44:67
                Exponent: 65537 (0x10001)
        X509v3 extensions:
            X509v3 Basic Constraints: 
                CA:FALSE
            X509v3 Subject Key Identifier: 
                E0:72:BC:24:1A:EE:48:C8:A7:46:5F:6F:33:C9:C0:6D:C4:00:B0:AA
            X509v3 Authority Key Identifier: 
                keyid:2F:83:BA:A8:FA:C5:6E:00:97:8C:B0:F6:86:22:44:6C:84:86:F3:E6
                DirName:/CN=team72-net
                serial:62:F3:60:7B:B9:24:5A:B6:AD:15:E6:21:AF:BB:BF:78:A8:10:B6:BC
            X509v3 Extended Key Usage: 
                TLS Web Server Authentication
            X509v3 Key Usage: 
                Digital Signature, Key Encipherment
            X509v3 Subject Alternative Name: 
                DNS:team72-server
    Signature Algorithm: sha256WithRSAEncryption
    Signature Value:
        42:86:82:44:b1:9b:a2:bc:ef:35:ec:ae:fb:15:c3:b3:50:98:
        76:22:f9:d4:75:86:17:0e:49:20:8a:3a:60:8f:c1:79:05:e7:
        83:ba:de:f6:2a:6e:37:78:7f:fa:7f:e9:d8:d9:45:ff:93:6e:
        b6:1c:0e:25:31:cc:40:f1:5f:3f:07:e1:1c:0b:01:d8:79:15:
        9d:bf:4b:72:03:0c:f6:b1:c8:dc:9c:47:89:7d:2d:48:84:c9:
        71:97:73:45:a0:ac:90:08:a7:04:99:76:00:9e:63:06:dc:a1:
        b3:af:5c:fe:59:2b:60:7a:3f:a6:c7:29:25:66:b5:d2:58:55:
        e7:94:30:ce:f8:34:40:6e:4e:04:b4:f4:6a:60:d5:06:45:1b:
        cc:4d:b2:f0:d3:c1:ba:af:7e:7c:7c:b2:b8:d4:52:64:02:b5:
        4c:07:b0:54:67:e9:3a:86:f3:10:88:c2:70:57:7b:cf:d0:6e:
        84:72:d2:e7:10:0a:ad:28:ba:39:2f:57:5c:c1:b3:7f:d7:37:
        aa:6c:cb:d5:76:a5:b8:8d:61:88:e2:37:a0:ee:ee:4a:4f:cb:
        72:f4:c3:0f:b5:c1:eb:72:60:05:f0:e5:c2:fe:36:97:2d:5e:
        bd:c4:6e:37:7c:b5:41:d6:88:e8:2a:5a:22:6d:15:b6:c7:1c:
        7a:d0:39:9f
-----BEGIN CERTIFICATE-----
MIIDdDCCAlygAwIBAgIRAKhs2dojOpIwQ4jZD31YZiswDQYJKoZIhvcNAQELBQAw
FTETMBEGA1UEAwwKdGVhbTcyLW5ldDAeFw0yMzExMDQxMDQxNDJaFw0yNjEwMTkx
MDQxNDJaMBgxFjAUBgNVBAMMDXRlYW03Mi1zZXJ2ZXIwggEiMA0GCSqGSIb3DQEB
AQUAA4IBDwAwggEKAoIBAQCiR/LTFsLcMeotldmmwjD5nf4G+U6fiF4Ksi+YvJMJ
/Ps+tUew6TInQ4AM0DCVdzthwP3StAEMvInGMDqhgea66pwi5LP8D9QlA60n0jb/
yIDmGBIkOay/SZf9K0JDWG0ce01movzeDGIHtvceaYhMjxf/6kzfauPY29F8B1AF
0xJoZxety/lIENPA+IELBcoQlJjD9wTJasiaBhjqQsB3RxPvfSIB0zmliqZGOrRG
ZUTjBMTtzIxulto9sS4P4ZPyo9/Sjzvkf1+buSks6Ow/KLit3gZjPZt/nklKdmx3
Y/IDjsAqdR8HAKvghJJuhZU82tPiW7Zx7j6t0RbApERnAgMBAAGjgbswgbgwCQYD
VR0TBAIwADAdBgNVHQ4EFgQU4HK8JBruSMinRl9vM8nAbcQAsKowUAYDVR0jBEkw
R4AUL4O6qPrFbgCXjLD2hiJEbISG8+ahGaQXMBUxEzARBgNVBAMMCnRlYW03Mi1u
ZXSCFGLzYHu5JFq2rRXmIa+7v3ioELa8MBMGA1UdJQQMMAoGCCsGAQUFBwMBMAsG
A1UdDwQEAwIFoDAYBgNVHREEETAPgg10ZWFtNzItc2VydmVyMA0GCSqGSIb3DQEB
CwUAA4IBAQBChoJEsZuivO817K77FcOzUJh2IvnUdYYXDkkgijpgj8F5BeeDut72
Km43eH/6f+nY2UX/k262HA4lMcxA8V8/B+EcCwHYeRWdv0tyAwz2scjcnEeJfS1I
hMlxl3NFoKyQCKcEmXYAnmMG3KGzr1z+WStgej+mxyklZrXSWFXnlDDO+DRAbk4E
tPRqYNUGRRvMTbLw08G6r358fLK41FJkArVMB7BUZ+k6hvMQiMJwV3vP0G6EctLn
EAqtKLo5L1dcwbN/1zeqbMvVdqW4jWGI4jeg7u5KT8ty9MMPtcHrcmAF8OXC/jaX
LV69xG43fLVB1ojoKloibRW2xxx60Dmf
-----END CERTIFICATE-----
