Certificate:
    Data:
        Version: 3 (0x2)
        Serial Number:
            cf:7d:f0:ee:ba:9b:dc:20:38:7d:ee:ae:ab:2c:97:a8
        Signature Algorithm: sha256WithRSAEncryption
        Issuer: CN=team72-net
        Validity
            Not Before: Nov  3 20:40:28 2023 GMT
            Not After : Oct 18 20:40:28 2026 GMT
        Subject: CN=team72-server
        Subject Public Key Info:
            Public Key Algorithm: rsaEncryption
                Public-Key: (2048 bit)
                Modulus:
                    00:d6:1b:cc:d6:8b:7e:ca:44:15:a3:78:e8:67:6c:
                    53:de:78:e3:a7:b4:71:61:22:35:67:15:8d:7e:54:
                    d6:8f:ac:01:77:2b:22:32:47:2a:6a:0d:3a:4f:1a:
                    c7:65:4e:41:25:d8:57:50:53:7a:50:75:9e:51:07:
                    99:9a:eb:fb:93:10:af:e2:d1:f4:a9:6f:9c:4f:34:
                    96:6c:0f:d6:bb:bf:16:fe:19:04:2f:fb:8d:d5:12:
                    a1:84:d8:5d:63:d6:a8:28:ed:cc:0c:79:02:60:99:
                    36:f0:ac:65:e6:c1:6b:bc:31:e7:f4:2b:53:e2:b6:
                    61:50:cc:69:93:b8:b5:55:52:86:54:86:91:25:77:
                    b7:14:6a:1e:f8:b1:9f:84:d1:69:1d:32:f9:70:e3:
                    0d:8c:37:6b:ec:fa:80:71:99:27:9c:e6:ad:21:fd:
                    eb:70:8f:30:bd:03:81:c2:71:90:b1:fd:b5:5f:31:
                    a6:de:4b:4e:5e:35:a1:a8:65:71:9f:16:31:87:5f:
                    32:a7:67:dd:20:7c:29:b2:50:ac:39:fb:82:ec:2a:
                    f8:b9:61:4f:d9:17:d8:17:64:28:dd:55:6d:29:b2:
                    c9:8e:1d:20:38:d1:25:42:d5:29:d2:0c:8e:c3:ec:
                    13:e5:84:af:c8:70:30:63:77:85:73:4d:40:b4:bf:
                    1d:7b
                Exponent: 65537 (0x10001)
        X509v3 extensions:
            X509v3 Basic Constraints: 
                CA:FALSE
            X509v3 Subject Key Identifier: 
                97:33:49:34:4A:6C:62:8D:A9:26:38:0B:63:3D:C6:A3:6C:FE:A7:BE
            X509v3 Authority Key Identifier: 
                keyid:AE:D5:D4:EA:AE:32:5A:F5:BB:17:4B:43:17:5C:76:11:27:C9:22:4C
                DirName:/CN=team72-net
                serial:65:62:67:1A:C9:BC:10:15:1A:96:B7:CD:55:60:6A:C0:0D:FD:F9:F4
            X509v3 Extended Key Usage: 
                TLS Web Server Authentication
            X509v3 Key Usage: 
                Digital Signature, Key Encipherment
            X509v3 Subject Alternative Name: 
                DNS:team72-server
    Signature Algorithm: sha256WithRSAEncryption
    Signature Value:
        a7:83:ec:eb:d3:ef:18:0c:0e:d1:bf:5f:19:0b:1b:1f:1f:81:
        47:a5:07:4c:5a:f9:39:01:8c:ff:5d:a1:9c:2d:02:30:b5:e1:
        2d:d9:41:81:1b:0b:91:5c:fe:fa:4a:a3:62:95:e1:7c:56:62:
        7c:59:fd:04:dc:fe:d2:49:f1:c1:bf:39:bc:e2:81:a3:b8:8c:
        8d:41:11:3f:fb:2c:ce:90:60:4e:66:1b:f3:44:6a:10:e6:a0:
        dd:cb:11:db:c0:7e:d8:98:71:60:c6:35:c7:a9:28:4b:4f:0b:
        cb:30:b2:a8:68:b2:82:d4:2c:64:7a:58:fd:66:ff:8b:48:24:
        84:22:2d:7e:3a:85:1a:f1:fa:5c:cd:8b:e5:2d:22:0d:7a:d1:
        87:97:a0:75:d0:99:9c:9c:74:22:b4:02:ce:4c:e4:cd:d2:ff:
        86:dd:3c:85:c5:af:49:a1:02:89:2d:87:68:cd:8b:28:e1:6d:
        21:b3:49:98:25:46:c9:61:7c:96:34:d1:31:22:86:f9:c9:e3:
        f3:79:b7:15:e5:6a:bf:b8:6e:7c:07:df:cf:04:5e:57:90:79:
        0a:ce:2c:57:b6:28:cf:1b:4d:ad:58:63:86:ae:d6:92:0a:3e:
        5b:8a:fa:0c:1c:c0:94:95:81:63:e4:06:ac:a3:f5:16:2b:69:
        3c:f4:95:1f
-----BEGIN CERTIFICATE-----
MIIDdDCCAlygAwIBAgIRAM998O66m9wgOH3urqssl6gwDQYJKoZIhvcNAQELBQAw
FTETMBEGA1UEAwwKdGVhbTcyLW5ldDAeFw0yMzExMDMyMDQwMjhaFw0yNjEwMTgy
MDQwMjhaMBgxFjAUBgNVBAMMDXRlYW03Mi1zZXJ2ZXIwggEiMA0GCSqGSIb3DQEB
AQUAA4IBDwAwggEKAoIBAQDWG8zWi37KRBWjeOhnbFPeeOOntHFhIjVnFY1+VNaP
rAF3KyIyRypqDTpPGsdlTkEl2FdQU3pQdZ5RB5ma6/uTEK/i0fSpb5xPNJZsD9a7
vxb+GQQv+43VEqGE2F1j1qgo7cwMeQJgmTbwrGXmwWu8Mef0K1PitmFQzGmTuLVV
UoZUhpEld7cUah74sZ+E0WkdMvlw4w2MN2vs+oBxmSec5q0h/etwjzC9A4HCcZCx
/bVfMabeS05eNaGoZXGfFjGHXzKnZ90gfCmyUKw5+4LsKvi5YU/ZF9gXZCjdVW0p
ssmOHSA40SVC1SnSDI7D7BPlhK/IcDBjd4VzTUC0vx17AgMBAAGjgbswgbgwCQYD
VR0TBAIwADAdBgNVHQ4EFgQUlzNJNEpsYo2pJjgLYz3Go2z+p74wUAYDVR0jBEkw
R4AUrtXU6q4yWvW7F0tDF1x2ESfJIkyhGaQXMBUxEzARBgNVBAMMCnRlYW03Mi1u
ZXSCFGViZxrJvBAVGpa3zVVgasAN/fn0MBMGA1UdJQQMMAoGCCsGAQUFBwMBMAsG
A1UdDwQEAwIFoDAYBgNVHREEETAPgg10ZWFtNzItc2VydmVyMA0GCSqGSIb3DQEB
CwUAA4IBAQCng+zr0+8YDA7Rv18ZCxsfH4FHpQdMWvk5AYz/XaGcLQIwteEt2UGB
GwuRXP76SqNileF8VmJ8Wf0E3P7SSfHBvzm84oGjuIyNQRE/+yzOkGBOZhvzRGoQ
5qDdyxHbwH7YmHFgxjXHqShLTwvLMLKoaLKC1Cxkelj9Zv+LSCSEIi1+OoUa8fpc
zYvlLSINetGHl6B10JmcnHQitALOTOTN0v+G3TyFxa9JoQKJLYdozYso4W0hs0mY
JUbJYXyWNNExIob5yePzebcV5Wq/uG58B9/PBF5XkHkKzixXtijPG02tWGOGrtaS
Cj5bivoMHMCUlYFj5Aaso/UWK2k89JUf
-----END CERTIFICATE-----
