Certificate:
    Data:
        Version: 3 (0x2)
        Serial Number:
            db:55:c3:b7:3f:8a:eb:3a:45:9c:6b:ad:1e:56:d0:73
        Signature Algorithm: sha256WithRSAEncryption
        Issuer: CN=team72-net
        Validity
            Not Before: Nov  3 20:40:27 2023 GMT
            Not After : Oct 18 20:40:27 2026 GMT
        Subject: CN=team72-client
        Subject Public Key Info:
            Public Key Algorithm: rsaEncryption
                Public-Key: (2048 bit)
                Modulus:
                    00:d1:62:16:b3:60:39:7c:55:56:33:8e:7c:e1:e5:
                    fc:d3:0d:ad:4a:5c:d9:1a:10:fa:ed:6c:92:f4:63:
                    44:69:55:66:5b:01:95:50:f0:e8:57:86:c8:cb:f4:
                    d4:ec:8b:de:e9:68:01:59:fc:39:e4:2f:ec:cc:e9:
                    99:3d:85:00:6a:0e:0d:0c:53:7a:89:28:3c:d2:2a:
                    ce:d8:1f:84:36:52:d0:c4:b4:df:09:65:19:08:08:
                    7a:a2:9c:84:07:9d:b9:ec:c6:24:66:a8:5f:d6:fc:
                    cf:2a:d1:68:53:74:87:fc:5a:ae:2d:76:7c:11:58:
                    62:62:15:a9:51:13:71:49:b6:f5:28:ab:c6:2c:8f:
                    ce:2a:8a:df:30:06:bd:c4:dd:36:f5:f7:98:40:b2:
                    34:04:ed:63:35:da:14:4d:63:4c:c2:72:fb:33:62:
                    cb:ec:33:2c:72:f7:3b:ff:32:51:02:e6:ba:ca:70:
                    0a:7c:61:c1:ae:40:cd:aa:e9:6c:fa:02:da:0c:3d:
                    5d:93:17:f2:99:7f:ce:60:68:89:f4:90:d1:1f:d3:
                    d3:21:8f:d1:c3:ba:7b:e5:27:f9:2d:88:1e:41:eb:
                    8c:09:3f:e5:d1:05:2e:2d:d7:e2:2e:24:a4:09:e4:
                    d5:5a:ad:24:22:37:c4:7a:15:1d:fe:62:21:cf:9f:
                    ad:d7
                Exponent: 65537 (0x10001)
        X509v3 extensions:
            X509v3 Basic Constraints: 
                CA:FALSE
            X509v3 Subject Key Identifier: 
                E2:DE:36:F2:BA:A8:26:70:12:2C:DC:81:38:CC:6F:C7:A4:E9:65:EA
            X509v3 Authority Key Identifier: 
                keyid:AE:D5:D4:EA:AE:32:5A:F5:BB:17:4B:43:17:5C:76:11:27:C9:22:4C
                DirName:/CN=team72-net
                serial:65:62:67:1A:C9:BC:10:15:1A:96:B7:CD:55:60:6A:C0:0D:FD:F9:F4
            X509v3 Extended Key Usage: 
                TLS Web Client Authentication
            X509v3 Key Usage: 
                Digital Signature
    Signature Algorithm: sha256WithRSAEncryption
    Signature Value:
        a6:88:45:c0:01:49:46:a3:b5:b1:55:d0:b7:e1:91:fc:b7:13:
        7c:f4:97:8f:4b:69:8f:12:d3:72:9c:9b:d5:cd:25:5d:a8:43:
        e1:f3:47:f3:7c:b6:51:6e:88:ac:6e:62:a2:42:c7:84:a3:e7:
        78:26:e8:2d:55:82:25:d6:8d:ca:9f:52:18:ab:be:cd:09:eb:
        96:37:ee:98:36:f7:e0:5c:07:f7:ad:de:5c:57:ad:dd:2b:13:
        10:99:22:9e:0b:f1:39:86:18:9d:3b:4a:b7:58:ec:b7:a9:6e:
        88:8c:cd:86:8d:2b:96:81:2d:69:cf:11:bc:8e:83:23:32:bb:
        46:6b:97:d5:dc:2f:85:ae:4f:43:ce:dd:c8:6d:98:26:92:37:
        d0:da:34:72:42:4a:2a:8b:fa:1f:b8:a1:a1:d1:74:44:13:63:
        0e:77:88:95:db:3c:f4:70:39:4f:7b:c0:0b:69:72:d5:d0:3a:
        b9:6e:2f:5d:10:1a:bc:5f:52:86:e8:b5:09:1f:71:f2:01:3f:
        df:f1:ce:cb:00:6a:cb:d4:45:a0:af:21:2b:89:ac:16:c8:11:
        b6:c5:14:1b:43:50:26:9f:e1:90:20:17:30:73:3c:aa:9f:fe:
        ec:54:6f:09:29:b3:63:90:5d:43:d0:87:08:dc:f5:29:5a:8b:
        2d:c4:48:d7
-----BEGIN CERTIFICATE-----
MIIDWjCCAkKgAwIBAgIRANtVw7c/ius6RZxrrR5W0HMwDQYJKoZIhvcNAQELBQAw
FTETMBEGA1UEAwwKdGVhbTcyLW5ldDAeFw0yMzExMDMyMDQwMjdaFw0yNjEwMTgy
MDQwMjdaMBgxFjAUBgNVBAMMDXRlYW03Mi1jbGllbnQwggEiMA0GCSqGSIb3DQEB
AQUAA4IBDwAwggEKAoIBAQDRYhazYDl8VVYzjnzh5fzTDa1KXNkaEPrtbJL0Y0Rp
VWZbAZVQ8OhXhsjL9NTsi97paAFZ/DnkL+zM6Zk9hQBqDg0MU3qJKDzSKs7YH4Q2
UtDEtN8JZRkICHqinIQHnbnsxiRmqF/W/M8q0WhTdIf8Wq4tdnwRWGJiFalRE3FJ
tvUoq8Ysj84qit8wBr3E3Tb195hAsjQE7WM12hRNY0zCcvszYsvsMyxy9zv/MlEC
5rrKcAp8YcGuQM2q6Wz6AtoMPV2TF/KZf85gaIn0kNEf09Mhj9HDunvlJ/ktiB5B
64wJP+XRBS4t1+IuJKQJ5NVarSQiN8R6FR3+YiHPn63XAgMBAAGjgaEwgZ4wCQYD
VR0TBAIwADAdBgNVHQ4EFgQU4t428rqoJnASLNyBOMxvx6TpZeowUAYDVR0jBEkw
R4AUrtXU6q4yWvW7F0tDF1x2ESfJIkyhGaQXMBUxEzARBgNVBAMMCnRlYW03Mi1u
ZXSCFGViZxrJvBAVGpa3zVVgasAN/fn0MBMGA1UdJQQMMAoGCCsGAQUFBwMCMAsG
A1UdDwQEAwIHgDANBgkqhkiG9w0BAQsFAAOCAQEApohFwAFJRqO1sVXQt+GR/LcT
fPSXj0tpjxLTcpyb1c0lXahD4fNH83y2UW6IrG5iokLHhKPneCboLVWCJdaNyp9S
GKu+zQnrljfumDb34FwH963eXFet3SsTEJkingvxOYYYnTtKt1jst6luiIzNho0r
loEtac8RvI6DIzK7RmuX1dwvha5PQ87dyG2YJpI30No0ckJKKov6H7ihodF0RBNj
DneIlds89HA5T3vAC2ly1dA6uW4vXRAavF9Shui1CR9x8gE/3/HOywBqy9RFoK8h
K4msFsgRtsUUG0NQJp/hkCAXMHM8qp/+7FRvCSmzY5BdQ9CHCNz1KVqLLcRI1w==
-----END CERTIFICATE-----
