Certificate:
    Data:
        Version: 3 (0x2)
        Serial Number:
            65:56:e8:51:59:7f:5e:19:bd:8d:16:ce:13:09:f7:a7
        Signature Algorithm: sha256WithRSAEncryption
        Issuer: CN=team124-net
        Validity
            Not Before: Nov  3 20:41:23 2023 GMT
            Not After : Oct 18 20:41:23 2026 GMT
        Subject: CN=team124-client
        Subject Public Key Info:
            Public Key Algorithm: rsaEncryption
                Public-Key: (2048 bit)
                Modulus:
                    00:a4:40:4d:47:fd:24:65:1f:a8:1a:64:59:2f:73:
                    88:e0:15:bb:7f:26:98:5f:a4:e1:91:2c:57:cc:05:
                    a3:f6:bf:1b:99:58:14:62:39:22:65:66:3c:6a:db:
                    a6:88:5c:e3:8b:ef:65:6f:49:f3:ef:e5:6f:09:b6:
                    a6:19:cb:4b:6e:aa:9c:d0:4c:67:57:6a:2b:31:28:
                    14:a5:63:2a:0f:16:8e:ac:f4:26:6b:10:2a:5d:e0:
                    51:5e:ec:18:fe:18:5f:90:7f:a7:a9:28:9b:83:5a:
                    cc:69:9e:7a:3b:88:d3:19:d1:64:90:7d:2c:60:4d:
                    9d:9c:2c:de:3f:7b:90:fe:de:e0:a8:55:86:da:39:
                    78:7c:b7:22:fb:09:10:72:49:63:fe:94:12:d6:bc:
                    ee:24:d3:b1:72:8c:58:5c:f2:5f:75:c6:f3:69:26:
                    1a:9e:c9:c4:e6:f0:68:ae:4a:e5:06:62:54:56:51:
                    35:d7:6e:86:df:e0:7e:90:60:52:2a:ef:36:ba:7c:
                    9a:85:57:51:f6:82:ea:17:e7:08:06:f3:36:09:29:
                    4e:2e:5d:3f:c3:ac:b0:87:08:1b:bf:82:c5:80:8f:
                    2c:67:b0:3d:bb:fb:10:2a:b7:58:3f:fb:f1:50:03:
                    36:0e:54:dc:63:d7:fa:f2:e6:19:e4:e0:9f:58:01:
                    7e:93
                Exponent: 65537 (0x10001)
        X509v3 extensions:
            X509v3 Basic Constraints: 
                CA:FALSE
            X509v3 Subject Key Identifier: 
                1A:87:23:B9:EA:12:F1:35:26:6F:94:C5:4C:27:9C:3A:E4:A7:94:3E
            X509v3 Authority Key Identifier: 
                keyid:E0:78:4F:15:B2:99:65:31:C1:A5:99:81:2D:8A:35:AB:73:93:80:C5
                DirName:/CN=team124-net
                serial:1E:2F:5C:C3:09:DE:E6:1A:65:1D:06:27:3B:6C:FE:64:09:4E:AE:1E
            X509v3 Extended Key Usage: 
                TLS Web Client Authentication
            X509v3 Key Usage: 
                Digital Signature
    Signature Algorithm: sha256WithRSAEncryption
    Signature Value:
        36:38:17:9e:c8:40:6c:da:f1:1c:62:36:0b:2f:e3:f0:be:6a:
        92:ef:9f:f2:05:63:10:86:eb:52:d1:94:b0:75:63:e2:13:4a:
        62:c4:eb:bc:95:ae:e2:1c:bd:cb:e8:d9:e9:8a:3a:46:6b:a2:
        f0:12:56:f9:29:68:db:67:e5:d0:b6:30:ed:f6:0c:94:de:cb:
        7e:a0:9d:b7:69:89:f6:db:96:a0:98:06:3a:b2:8c:b2:93:33:
        ef:1e:09:ec:7a:d8:86:a5:1e:b4:fe:78:c7:0e:c1:00:ba:f0:
        3c:49:94:fe:4a:4f:39:2c:d6:f0:1c:9f:74:7d:8e:ae:b7:b4:
        57:88:de:56:90:7a:dc:f1:ed:17:63:9c:c6:4d:c6:e9:4c:7d:
        ae:86:1d:12:86:55:8b:fc:60:16:f1:74:33:2e:50:a8:da:d6:
        c2:a3:b2:95:41:36:5c:66:37:81:71:57:35:de:c6:03:61:cb:
        bf:44:36:13:07:00:c3:0b:3e:8e:da:20:22:ff:ab:14:e9:6b:
        34:91:de:2a:67:25:67:ed:37:16:ae:40:30:58:ad:80:19:b5:
        74:67:4f:25:84:e2:2b:5a:4b:8d:85:7a:b3:2c:a7:45:50:f4:
        a6:65:6c:39:8c:c4:0b:ff:9a:23:a7:22:17:f6:ed:d5:f3:08:
        6f:22:4e:8d
-----BEGIN CERTIFICATE-----
MIIDXDCCAkSgAwIBAgIQZVboUVl/Xhm9jRbOEwn3pzANBgkqhkiG9w0BAQsFADAW
MRQwEgYDVQQDDAt0ZWFtMTI0LW5ldDAeFw0yMzExMDMyMDQxMjNaFw0yNjEwMTgy
MDQxMjNaMBkxFzAVBgNVBAMMDnRlYW0xMjQtY2xpZW50MIIBIjANBgkqhkiG9w0B
AQEFAAOCAQ8AMIIBCgKCAQEApEBNR/0kZR+oGmRZL3OI4BW7fyaYX6ThkSxXzAWj
9r8bmVgUYjkiZWY8atumiFzji+9lb0nz7+VvCbamGctLbqqc0ExnV2orMSgUpWMq
DxaOrPQmaxAqXeBRXuwY/hhfkH+nqSibg1rMaZ56O4jTGdFkkH0sYE2dnCzeP3uQ
/t7gqFWG2jl4fLci+wkQcklj/pQS1rzuJNOxcoxYXPJfdcbzaSYansnE5vBorkrl
BmJUVlE1126G3+B+kGBSKu82unyahVdR9oLqF+cIBvM2CSlOLl0/w6ywhwgbv4LF
gI8sZ7A9u/sQKrdYP/vxUAM2DlTcY9f68uYZ5OCfWAF+kwIDAQABo4GiMIGfMAkG
A1UdEwQCMAAwHQYDVR0OBBYEFBqHI7nqEvE1Jm+UxUwnnDrkp5Q+MFEGA1UdIwRK
MEiAFOB4TxWymWUxwaWZgS2KNatzk4DFoRqkGDAWMRQwEgYDVQQDDAt0ZWFtMTI0
LW5ldIIUHi9cwwne5hplHQYnO2z+ZAlOrh4wEwYDVR0lBAwwCgYIKwYBBQUHAwIw
CwYDVR0PBAQDAgeAMA0GCSqGSIb3DQEBCwUAA4IBAQA2OBeeyEBs2vEcYjYLL+Pw
vmqS75/yBWMQhutS0ZSwdWPiE0pixOu8la7iHL3L6NnpijpGa6LwElb5KWjbZ+XQ
tjDt9gyU3st+oJ23aYn225agmAY6soyykzPvHgnsetiGpR60/njHDsEAuvA8SZT+
Sk85LNbwHJ90fY6ut7RXiN5WkHrc8e0XY5zGTcbpTH2uhh0ShlWL/GAW8XQzLlCo
2tbCo7KVQTZcZjeBcVc13sYDYcu/RDYTBwDDCz6O2iAi/6sU6Ws0kd4qZyVn7TcW
rkAwWK2AGbV0Z08lhOIrWkuNhXqzLKdFUPSmZWw5jMQL/5ojpyIX9u3V8whvIk6N
-----END CERTIFICATE-----
