Certificate:
    Data:
        Version: 3 (0x2)
        Serial Number:
            a5:09:e7:80:1c:08:c1:6e:f5:02:be:03:09:97:82:0c
        Signature Algorithm: sha256WithRSAEncryption
        Issuer: CN=team268-net
        Validity
            Not Before: Nov  4 11:33:00 2023 GMT
            Not After : Oct 19 11:33:00 2026 GMT
        Subject: CN=team268-client
        Subject Public Key Info:
            Public Key Algorithm: rsaEncryption
                Public-Key: (2048 bit)
                Modulus:
                    00:ae:bd:b0:a7:9c:75:0d:35:06:21:9f:9c:ec:64:
                    44:56:12:23:7d:93:fd:61:05:d7:61:df:d7:91:f6:
                    3f:ce:1c:75:5b:c3:3e:d1:7a:c9:f7:04:01:9a:47:
                    1a:56:00:30:27:4b:b3:ca:02:19:36:e0:ad:7e:b5:
                    49:64:a8:f7:de:6b:cd:c3:18:d0:fc:7e:05:ad:b4:
                    25:bb:49:5b:a9:18:54:9f:81:b1:b5:c6:63:7c:c5:
                    50:ff:42:89:64:2d:6c:04:82:a1:bc:5a:1a:02:0c:
                    87:6c:a9:21:c9:9a:e9:e5:46:a5:f8:56:99:ec:ad:
                    b5:a7:2a:33:09:f5:89:aa:ec:c8:e4:9d:aa:bb:da:
                    f3:64:11:c8:94:e4:18:04:e1:06:b3:b5:8b:4a:05:
                    1e:8a:e4:c2:1e:56:0f:42:f7:54:14:ae:9f:29:59:
                    65:16:82:44:44:50:c9:5b:47:bf:c3:44:90:d7:dc:
                    5c:4a:85:34:dc:f6:f5:45:e1:7b:63:17:df:ef:df:
                    9f:61:cc:51:9c:45:b4:0d:e5:e9:8f:22:fb:d5:0d:
                    50:67:82:41:f2:f4:d1:d7:2a:69:4a:d4:3a:f6:12:
                    e7:5a:66:22:65:11:5f:c2:9f:a9:1f:c0:ee:96:66:
                    86:52:96:04:b6:7c:26:5d:98:45:37:8f:93:e8:48:
                    91:9d
                Exponent: 65537 (0x10001)
        X509v3 extensions:
            X509v3 Basic Constraints: 
                CA:FALSE
            X509v3 Subject Key Identifier: 
                33:E0:3C:2A:1C:ED:8E:BD:DF:5A:D6:3C:85:59:FC:82:8D:46:4E:85
            X509v3 Authority Key Identifier: 
                keyid:73:40:77:A7:00:36:81:54:D3:A1:B5:91:4B:D9:5D:17:2B:CD:31:B9
                DirName:/CN=team268-net
                serial:5C:FB:80:48:65:91:2A:AB:7F:6A:D8:7F:6B:34:F1:FC:50:5F:FD:99
            X509v3 Extended Key Usage: 
                TLS Web Client Authentication
            X509v3 Key Usage: 
                Digital Signature
    Signature Algorithm: sha256WithRSAEncryption
    Signature Value:
        5e:f6:b2:30:00:92:f8:2f:1b:c9:07:42:54:3b:57:9d:23:0b:
        02:16:f7:0f:26:e7:b8:bf:bd:e9:b7:3e:fb:64:27:a3:cb:26:
        2a:14:f8:0c:9c:02:98:df:21:06:db:7e:d0:27:3f:88:fb:8e:
        cd:cf:0f:20:d0:5c:6c:00:e9:d2:c4:22:2b:6b:d5:0b:92:8b:
        d9:7c:98:ed:ca:ed:fb:e9:81:b5:76:cd:fe:41:22:bb:ae:d6:
        0f:a5:15:ab:5f:82:64:11:c4:f8:2c:da:ef:dd:94:01:38:7a:
        c6:18:2e:1a:25:84:d9:06:1d:3e:55:1e:9b:1f:e1:e0:cb:39:
        ed:2a:d2:b1:b4:ab:8f:5a:9f:2c:7b:b4:9f:06:08:80:df:44:
        c4:5a:17:48:78:06:34:2c:4f:26:c6:64:0e:32:31:20:64:78:
        ee:46:8b:88:1e:22:f2:7b:3a:a9:0c:fa:ec:22:10:e9:fa:37:
        b0:ca:e5:53:ff:60:c7:14:1c:13:20:4f:fb:5b:a1:e2:fe:4a:
        43:13:27:83:4c:4d:84:d4:74:7c:2f:88:05:d2:7f:a9:4a:19:
        b2:a7:46:f5:0a:d6:2a:84:24:76:fc:3d:42:6e:0a:b1:a8:93:
        10:92:e5:59:6e:b0:66:b2:1c:98:72:91:e3:31:56:fe:f6:9a:
        09:9f:98:b4
-----BEGIN CERTIFICATE-----
MIIDXTCCAkWgAwIBAgIRAKUJ54AcCMFu9QK+AwmXggwwDQYJKoZIhvcNAQELBQAw
FjEUMBIGA1UEAwwLdGVhbTI2OC1uZXQwHhcNMjMxMTA0MTEzMzAwWhcNMjYxMDE5
MTEzMzAwWjAZMRcwFQYDVQQDDA50ZWFtMjY4LWNsaWVudDCCASIwDQYJKoZIhvcN
AQEBBQADggEPADCCAQoCggEBAK69sKecdQ01BiGfnOxkRFYSI32T/WEF12Hf15H2
P84cdVvDPtF6yfcEAZpHGlYAMCdLs8oCGTbgrX61SWSo995rzcMY0Px+Ba20JbtJ
W6kYVJ+BsbXGY3zFUP9CiWQtbASCobxaGgIMh2ypIcma6eVGpfhWmeyttacqMwn1
iarsyOSdqrva82QRyJTkGAThBrO1i0oFHorkwh5WD0L3VBSunylZZRaCRERQyVtH
v8NEkNfcXEqFNNz29UXhe2MX3+/fn2HMUZxFtA3l6Y8i+9UNUGeCQfL00dcqaUrU
OvYS51pmImURX8KfqR/A7pZmhlKWBLZ8Jl2YRTePk+hIkZ0CAwEAAaOBojCBnzAJ
BgNVHRMEAjAAMB0GA1UdDgQWBBQz4DwqHO2Ovd9a1jyFWfyCjUZOhTBRBgNVHSME
SjBIgBRzQHenADaBVNOhtZFL2V0XK80xuaEapBgwFjEUMBIGA1UEAwwLdGVhbTI2
OC1uZXSCFFz7gEhlkSqrf2rYf2s08fxQX/2ZMBMGA1UdJQQMMAoGCCsGAQUFBwMC
MAsGA1UdDwQEAwIHgDANBgkqhkiG9w0BAQsFAAOCAQEAXvayMACS+C8byQdCVDtX
nSMLAhb3DybnuL+96bc++2Qno8smKhT4DJwCmN8hBtt+0Cc/iPuOzc8PINBcbADp
0sQiK2vVC5KL2XyY7crt++mBtXbN/kEiu67WD6UVq1+CZBHE+Cza792UATh6xhgu
GiWE2QYdPlUemx/h4Ms57SrSsbSrj1qfLHu0nwYIgN9ExFoXSHgGNCxPJsZkDjIx
IGR47kaLiB4i8ns6qQz67CIQ6fo3sMrlU/9gxxQcEyBP+1uh4v5KQxMng0xNhNR0
fC+IBdJ/qUoZsqdG9QrWKoQkdvw9Qm4KsaiTEJLlWW6wZrIcmHKR4zFW/vaaCZ+Y
tA==
-----END CERTIFICATE-----
