Certificate:
    Data:
        Version: 3 (0x2)
        Serial Number:
            c1:f6:a2:23:60:4e:e0:a2:45:e1:4a:d4:41:4f:e6:b1
        Signature Algorithm: sha256WithRSAEncryption
        Issuer: CN=team268-net
        Validity
            Not Before: Nov  3 20:44:13 2023 GMT
            Not After : Oct 18 20:44:13 2026 GMT
        Subject: CN=team268-server
        Subject Public Key Info:
            Public Key Algorithm: rsaEncryption
                Public-Key: (2048 bit)
                Modulus:
                    00:c6:aa:a3:20:be:fb:30:5f:b7:2d:d3:3a:aa:5c:
                    b9:4f:40:be:b4:f0:e1:e6:c5:e1:03:11:65:43:cb:
                    d4:3e:0f:5d:ee:dc:84:4a:ea:4c:36:d6:6a:8d:00:
                    3a:63:f5:a3:1a:d9:e5:76:a5:f0:5b:b7:76:c1:d7:
                    13:ed:fb:d4:ef:5e:41:70:71:34:7a:ae:32:d0:2f:
                    31:14:f0:dc:e4:be:c1:13:47:18:f5:1a:23:1e:09:
                    99:01:17:d7:9f:50:93:f5:1b:43:79:57:85:50:17:
                    37:5a:cd:d0:6e:f5:72:f9:77:1f:61:e6:39:d3:9b:
                    64:3c:90:1b:b7:98:7c:5d:d4:56:58:1c:e1:82:58:
                    43:e7:47:1c:ae:2f:cc:00:ca:4a:ae:79:96:1b:46:
                    91:25:dd:b3:a6:96:f9:25:56:f8:0c:f2:2a:9e:6e:
                    5c:2c:a4:19:f0:64:2d:52:d3:a2:c7:e5:1b:3b:b2:
                    e1:f9:60:91:16:9c:94:67:8e:0a:89:bd:55:99:9d:
                    f7:95:a3:50:16:f1:f1:1f:b1:1e:cd:db:de:50:54:
                    cb:94:ce:00:ab:d5:12:d6:d8:34:ae:7e:ac:1a:0c:
                    ff:b4:6d:35:18:70:d1:04:22:1e:e1:5a:8f:95:bf:
                    17:18:60:0b:92:a2:6a:2b:a8:c4:35:a4:fd:6f:cd:
                    0e:4d
                Exponent: 65537 (0x10001)
        X509v3 extensions:
            X509v3 Basic Constraints: 
                CA:FALSE
            X509v3 Subject Key Identifier: 
                DC:63:EE:07:1E:F0:9B:F6:54:F1:DC:49:35:A2:7C:F0:57:12:07:75
            X509v3 Authority Key Identifier: 
                keyid:BD:15:7B:3B:14:DF:F5:4E:FA:56:A1:1F:ED:B0:5A:4E:39:2B:4F:2D
                DirName:/CN=team268-net
                serial:2C:17:8E:66:6C:D0:C8:7C:A1:3A:84:C3:0C:55:DF:F9:D2:76:9A:9D
            X509v3 Extended Key Usage: 
                TLS Web Server Authentication
            X509v3 Key Usage: 
                Digital Signature, Key Encipherment
            X509v3 Subject Alternative Name: 
                DNS:team268-server
    Signature Algorithm: sha256WithRSAEncryption
    Signature Value:
        b9:7e:f8:9b:5c:c4:4e:3b:5f:9a:08:5e:b6:da:4a:a7:30:e0:
        2e:5d:93:51:ae:a5:96:1b:49:1f:7c:25:60:bc:4c:81:eb:70:
        94:d3:81:78:02:af:8c:57:4d:8a:b4:ae:08:4f:17:5b:fc:be:
        94:af:dd:7c:72:65:2e:e7:fd:08:d8:00:09:99:f8:fc:67:b4:
        9a:03:98:29:2e:77:f6:65:bc:8f:dd:db:97:75:26:a2:eb:72:
        2d:b9:f4:0b:73:29:b7:2b:25:50:f5:11:cb:35:f2:13:b4:a0:
        fd:cc:b1:2a:94:29:2e:e8:83:79:89:30:b5:2e:ab:30:e7:9d:
        88:5a:52:ba:5e:9b:6d:92:ab:48:7f:95:04:31:cc:08:2f:2e:
        53:f4:0d:ee:07:56:46:63:5d:8e:a9:3b:ff:2e:dd:d0:72:d4:
        02:49:59:64:a5:40:f4:0c:7f:c0:3e:d2:57:ec:04:91:4e:c1:
        97:c7:28:2d:de:97:a0:0a:3f:03:e1:c1:05:f0:5a:cc:b8:9f:
        81:9d:c9:a8:f4:7b:23:95:9b:64:ea:3c:09:03:72:9f:b7:5e:
        41:5b:90:d7:63:5a:d8:56:ae:2b:45:42:e1:ef:df:5d:f9:0f:
        ed:55:62:90:7f:04:9f:21:d4:1a:a9:c0:d9:62:1a:41:3f:d8:
        9f:37:37:71
-----BEGIN CERTIFICATE-----
MIIDeDCCAmCgAwIBAgIRAMH2oiNgTuCiReFK1EFP5rEwDQYJKoZIhvcNAQELBQAw
FjEUMBIGA1UEAwwLdGVhbTI2OC1uZXQwHhcNMjMxMTAzMjA0NDEzWhcNMjYxMDE4
MjA0NDEzWjAZMRcwFQYDVQQDDA50ZWFtMjY4LXNlcnZlcjCCASIwDQYJKoZIhvcN
AQEBBQADggEPADCCAQoCggEBAMaqoyC++zBfty3TOqpcuU9AvrTw4ebF4QMRZUPL
1D4PXe7chErqTDbWao0AOmP1oxrZ5Xal8Fu3dsHXE+371O9eQXBxNHquMtAvMRTw
3OS+wRNHGPUaIx4JmQEX159Qk/UbQ3lXhVAXN1rN0G71cvl3H2HmOdObZDyQG7eY
fF3UVlgc4YJYQ+dHHK4vzADKSq55lhtGkSXds6aW+SVW+AzyKp5uXCykGfBkLVLT
osflGzuy4flgkRaclGeOCom9VZmd95WjUBbx8R+xHs3b3lBUy5TOAKvVEtbYNK5+
rBoM/7RtNRhw0QQiHuFaj5W/FxhgC5KiaiuoxDWk/W/NDk0CAwEAAaOBvTCBujAJ
BgNVHRMEAjAAMB0GA1UdDgQWBBTcY+4HHvCb9lTx3Ek1onzwVxIHdTBRBgNVHSME
SjBIgBS9FXs7FN/1TvpWoR/tsFpOOStPLaEapBgwFjEUMBIGA1UEAwwLdGVhbTI2
OC1uZXSCFCwXjmZs0Mh8oTqEwwxV3/nSdpqdMBMGA1UdJQQMMAoGCCsGAQUFBwMB
MAsGA1UdDwQEAwIFoDAZBgNVHREEEjAQgg50ZWFtMjY4LXNlcnZlcjANBgkqhkiG
9w0BAQsFAAOCAQEAuX74m1zETjtfmghettpKpzDgLl2TUa6llhtJH3wlYLxMgetw
lNOBeAKvjFdNirSuCE8XW/y+lK/dfHJlLuf9CNgACZn4/Ge0mgOYKS539mW8j93b
l3UmoutyLbn0C3MptyslUPURyzXyE7Sg/cyxKpQpLuiDeYkwtS6rMOediFpSul6b
bZKrSH+VBDHMCC8uU/QN7gdWRmNdjqk7/y7d0HLUAklZZKVA9Ax/wD7SV+wEkU7B
l8coLd6XoAo/A+HBBfBazLifgZ3JqPR7I5WbZOo8CQNyn7deQVuQ12Na2FauK0VC
4e/fXfkP7VVikH8EnyHUGqnA2WIaQT/Ynzc3cQ==
-----END CERTIFICATE-----
