Certificate:
    Data:
        Version: 3 (0x2)
        Serial Number:
            c8:77:8c:24:fc:9c:49:9e:9f:a8:34:be:68:ba:d5:b3
        Signature Algorithm: sha256WithRSAEncryption
        Issuer: CN=team268-net
        Validity
            Not Before: Nov  4 11:33:00 2023 GMT
            Not After : Oct 19 11:33:00 2026 GMT
        Subject: CN=team268-server
        Subject Public Key Info:
            Public Key Algorithm: rsaEncryption
                Public-Key: (2048 bit)
                Modulus:
                    00:e7:9d:17:47:f2:25:57:0a:29:71:6b:a0:b5:6b:
                    c0:7b:77:01:4f:94:7e:05:72:d6:77:ca:ab:03:f0:
                    86:53:ce:2e:9c:ec:67:4c:47:33:b9:f9:28:2e:fe:
                    db:aa:7e:1b:53:e6:30:17:f9:7f:b0:49:d5:c4:ad:
                    b8:e2:27:4c:f2:ff:20:ac:40:27:11:f5:e9:f8:a7:
                    21:28:7c:85:8d:11:61:cc:51:2b:a5:92:dd:e8:52:
                    2f:eb:3e:0d:a2:45:0f:85:22:c2:5e:8d:9e:d4:05:
                    1e:90:28:40:65:6c:39:a0:cc:c1:81:b5:0d:bf:69:
                    83:62:b8:bc:e8:43:8f:24:ae:e3:4a:f3:a9:49:5a:
                    ef:f3:33:5a:08:4c:ab:67:9d:2d:d6:f8:23:79:8c:
                    d3:aa:03:66:17:2d:dc:a9:42:49:88:1d:77:3d:f8:
                    ed:06:fa:83:43:a3:03:d1:d9:3d:29:c2:d1:6f:60:
                    af:af:f6:11:68:a2:69:b7:08:24:52:a4:1f:6b:e5:
                    f6:eb:1a:12:b5:79:d2:d6:9a:27:30:9c:d9:01:92:
                    85:30:03:af:86:8e:b5:0a:69:10:08:74:98:f7:0d:
                    34:c3:ff:a8:d1:56:54:d5:3c:87:6e:cc:28:cc:99:
                    fd:35:08:a6:fe:c1:17:5c:2e:b4:4a:a8:60:aa:d9:
                    9a:d3
                Exponent: 65537 (0x10001)
        X509v3 extensions:
            X509v3 Basic Constraints: 
                CA:FALSE
            X509v3 Subject Key Identifier: 
                43:4B:11:0D:FE:54:0A:FB:C5:F5:31:E5:21:99:12:C3:BE:86:37:85
            X509v3 Authority Key Identifier: 
                keyid:73:40:77:A7:00:36:81:54:D3:A1:B5:91:4B:D9:5D:17:2B:CD:31:B9
                DirName:/CN=team268-net
                serial:5C:FB:80:48:65:91:2A:AB:7F:6A:D8:7F:6B:34:F1:FC:50:5F:FD:99
            X509v3 Extended Key Usage: 
                TLS Web Server Authentication
            X509v3 Key Usage: 
                Digital Signature, Key Encipherment
            X509v3 Subject Alternative Name: 
                DNS:team268-server
    Signature Algorithm: sha256WithRSAEncryption
    Signature Value:
        0a:6b:7e:35:17:4e:62:bd:93:7b:41:b1:81:8f:eb:72:9f:58:
        1d:a3:15:ee:01:8c:04:75:08:34:2e:4d:bd:0b:9f:0f:87:38:
        60:1d:7c:a7:89:40:73:bd:bb:15:60:65:1a:12:7c:56:46:22:
        15:db:bd:cd:b7:75:fa:79:7f:a6:c3:65:45:89:5a:a0:e9:15:
        b8:14:80:6e:5f:e5:6b:28:70:55:a4:6d:c9:fa:76:d0:ca:0e:
        c7:72:f4:0c:5a:1a:6d:57:64:66:b5:20:77:5f:56:db:82:0c:
        2c:39:4c:a0:41:f0:86:06:59:01:b1:b9:59:28:f1:28:e3:39:
        4a:40:37:37:10:e7:50:6b:1a:4b:4b:a7:02:34:44:58:da:42:
        03:c0:69:7e:47:5f:f9:4c:98:da:dd:39:c0:e4:61:fd:e1:6d:
        ba:93:51:2f:26:fc:68:72:73:f8:78:34:7c:3a:7b:e9:a9:2c:
        3d:bf:45:22:98:74:82:1b:5d:e5:54:99:1e:c6:c1:d6:f2:f3:
        09:16:ab:72:1c:82:73:fb:3b:d9:60:89:0e:e6:07:97:08:71:
        ed:8e:f9:30:50:ac:eb:28:a6:ec:4e:17:82:97:b6:9d:f7:71:
        9e:55:4c:81:e8:db:96:dd:59:26:dd:06:5f:86:10:d5:55:b1:
        24:14:06:2f
-----BEGIN CERTIFICATE-----
MIIDeDCCAmCgAwIBAgIRAMh3jCT8nEmen6g0vmi61bMwDQYJKoZIhvcNAQELBQAw
FjEUMBIGA1UEAwwLdGVhbTI2OC1uZXQwHhcNMjMxMTA0MTEzMzAwWhcNMjYxMDE5
MTEzMzAwWjAZMRcwFQYDVQQDDA50ZWFtMjY4LXNlcnZlcjCCASIwDQYJKoZIhvcN
AQEBBQADggEPADCCAQoCggEBAOedF0fyJVcKKXFroLVrwHt3AU+UfgVy1nfKqwPw
hlPOLpzsZ0xHM7n5KC7+26p+G1PmMBf5f7BJ1cStuOInTPL/IKxAJxH16finISh8
hY0RYcxRK6WS3ehSL+s+DaJFD4Uiwl6NntQFHpAoQGVsOaDMwYG1Db9pg2K4vOhD
jySu40rzqUla7/MzWghMq2edLdb4I3mM06oDZhct3KlCSYgddz347Qb6g0OjA9HZ
PSnC0W9gr6/2EWiiabcIJFKkH2vl9usaErV50taaJzCc2QGShTADr4aOtQppEAh0
mPcNNMP/qNFWVNU8h27MKMyZ/TUIpv7BF1wutEqoYKrZmtMCAwEAAaOBvTCBujAJ
BgNVHRMEAjAAMB0GA1UdDgQWBBRDSxEN/lQK+8X1MeUhmRLDvoY3hTBRBgNVHSME
SjBIgBRzQHenADaBVNOhtZFL2V0XK80xuaEapBgwFjEUMBIGA1UEAwwLdGVhbTI2
OC1uZXSCFFz7gEhlkSqrf2rYf2s08fxQX/2ZMBMGA1UdJQQMMAoGCCsGAQUFBwMB
MAsGA1UdDwQEAwIFoDAZBgNVHREEEjAQgg50ZWFtMjY4LXNlcnZlcjANBgkqhkiG
9w0BAQsFAAOCAQEACmt+NRdOYr2Te0GxgY/rcp9YHaMV7gGMBHUINC5NvQufD4c4
YB18p4lAc727FWBlGhJ8VkYiFdu9zbd1+nl/psNlRYlaoOkVuBSAbl/layhwVaRt
yfp20MoOx3L0DFoabVdkZrUgd19W24IMLDlMoEHwhgZZAbG5WSjxKOM5SkA3NxDn
UGsaS0unAjREWNpCA8Bpfkdf+UyY2t05wORh/eFtupNRLyb8aHJz+Hg0fDp76aks
Pb9FIph0ghtd5VSZHsbB1vLzCRarchyCc/s72WCJDuYHlwhx7Y75MFCs6yim7E4X
gpe2nfdxnlVMgejblt1ZJt0GX4YQ1VWxJBQGLw==
-----END CERTIFICATE-----
