Certificate:
    Data:
        Version: 3 (0x2)
        Serial Number:
            db:00:0c:95:b0:f1:ae:46:a8:ea:e4:da:81:7a:78:ee
        Signature Algorithm: sha256WithRSAEncryption
        Issuer: CN=team268-net
        Validity
            Not Before: Nov  4 10:45:39 2023 GMT
            Not After : Oct 19 10:45:39 2026 GMT
        Subject: CN=team268-server
        Subject Public Key Info:
            Public Key Algorithm: rsaEncryption
                Public-Key: (2048 bit)
                Modulus:
                    00:ae:3c:af:5c:4b:5a:c5:bf:89:b2:44:e9:4d:e7:
                    23:f0:8e:67:67:aa:a2:cd:da:fb:ac:e7:de:c4:ad:
                    f0:54:4f:fc:0e:62:47:4c:31:5e:7a:4a:99:ca:28:
                    01:25:4e:a5:e7:c8:19:6c:15:cb:e5:9a:ed:2f:2e:
                    2c:0d:7b:c6:a3:65:16:a3:ff:23:8a:95:0f:80:e2:
                    f8:d5:69:eb:c5:bf:33:8d:18:ad:df:06:69:ad:c1:
                    a4:5f:f3:de:b4:6f:2c:1e:dc:19:57:62:58:43:d5:
                    d4:b9:1d:77:37:10:13:69:5c:ff:00:53:af:f6:16:
                    f0:05:51:55:6c:7d:ae:2a:37:20:f2:8f:a9:76:08:
                    fa:d5:28:a1:19:de:9f:c1:33:e2:c3:d5:37:92:c9:
                    2e:45:23:51:1d:c4:82:71:9a:61:db:fa:d2:6c:ef:
                    1d:3c:bf:e7:4b:42:7e:12:90:ae:c7:d6:ce:f5:cc:
                    65:cd:a0:d4:90:63:ad:dd:ed:56:3b:76:d0:ec:b3:
                    22:06:0b:c4:8d:16:c6:9f:4f:4a:2a:60:ec:ba:34:
                    a7:46:9b:ea:59:4a:15:a3:c6:e0:0d:88:df:d6:2f:
                    c2:10:ec:6c:15:cb:6d:f4:11:0f:74:81:80:ba:fb:
                    1b:7e:e2:1f:04:bb:58:06:23:9a:c9:6f:4a:a6:db:
                    69:27
                Exponent: 65537 (0x10001)
        X509v3 extensions:
            X509v3 Basic Constraints: 
                CA:FALSE
            X509v3 Subject Key Identifier: 
                E1:80:97:E9:31:A5:86:C9:B7:81:E9:78:3D:CD:CA:F5:11:7C:E4:88
            X509v3 Authority Key Identifier: 
                keyid:99:BC:83:DE:2A:7E:C8:93:A6:49:7D:5A:FD:35:6B:E6:82:A9:7B:F7
                DirName:/CN=team268-net
                serial:4F:32:C4:71:F7:E1:BC:20:D6:5C:7D:5E:3C:2A:79:F8:09:B4:88:38
            X509v3 Extended Key Usage: 
                TLS Web Server Authentication
            X509v3 Key Usage: 
                Digital Signature, Key Encipherment
            X509v3 Subject Alternative Name: 
                DNS:team268-server
    Signature Algorithm: sha256WithRSAEncryption
    Signature Value:
        7d:6e:50:3b:50:e5:61:88:c9:a5:fe:bc:05:ce:c4:a9:8e:ad:
        89:fc:07:91:6c:40:c9:42:72:13:0b:1f:25:d1:50:1f:c5:98:
        39:1a:32:95:01:a7:ff:d9:e5:5f:f4:14:c8:86:42:0c:3d:d3:
        66:95:18:41:20:2e:85:73:bd:30:d7:67:c1:5a:7c:f1:b0:31:
        17:0b:94:50:ec:41:d2:c9:22:2c:dc:24:b7:95:6f:50:fe:8d:
        7b:81:e9:57:1b:9a:98:c7:ac:11:f5:5e:b8:a3:d3:82:af:d1:
        23:05:51:29:62:f8:5a:77:33:b5:6d:b3:d4:bf:02:ba:73:46:
        32:e5:2b:dc:94:9a:d8:2f:4e:e9:04:eb:04:96:6f:58:33:a4:
        a8:c0:88:75:da:1a:ed:39:c9:a0:50:17:d6:59:68:d2:fd:ab:
        24:e8:81:67:0b:17:b0:5c:f7:47:19:84:76:ef:49:45:4d:f1:
        b7:8d:42:73:f3:31:4e:13:6c:db:f0:e3:cf:59:69:f7:37:a1:
        d3:4a:7d:1e:83:e2:00:88:ce:75:f4:55:88:33:5c:8b:5c:61:
        0b:95:e5:69:c7:20:00:8b:fc:9b:65:c2:26:75:20:c5:cd:d8:
        a3:1d:1f:1a:89:74:36:7b:ca:0e:58:78:94:d3:13:77:08:3f:
        ae:59:54:df
-----BEGIN CERTIFICATE-----
MIIDeDCCAmCgAwIBAgIRANsADJWw8a5GqOrk2oF6eO4wDQYJKoZIhvcNAQELBQAw
FjEUMBIGA1UEAwwLdGVhbTI2OC1uZXQwHhcNMjMxMTA0MTA0NTM5WhcNMjYxMDE5
MTA0NTM5WjAZMRcwFQYDVQQDDA50ZWFtMjY4LXNlcnZlcjCCASIwDQYJKoZIhvcN
AQEBBQADggEPADCCAQoCggEBAK48r1xLWsW/ibJE6U3nI/COZ2eqos3a+6zn3sSt
8FRP/A5iR0wxXnpKmcooASVOpefIGWwVy+Wa7S8uLA17xqNlFqP/I4qVD4Di+NVp
68W/M40Yrd8Gaa3BpF/z3rRvLB7cGVdiWEPV1LkddzcQE2lc/wBTr/YW8AVRVWx9
rio3IPKPqXYI+tUooRnen8Ez4sPVN5LJLkUjUR3EgnGaYdv60mzvHTy/50tCfhKQ
rsfWzvXMZc2g1JBjrd3tVjt20OyzIgYLxI0Wxp9PSipg7Lo0p0ab6llKFaPG4A2I
39YvwhDsbBXLbfQRD3SBgLr7G37iHwS7WAYjmslvSqbbaScCAwEAAaOBvTCBujAJ
BgNVHRMEAjAAMB0GA1UdDgQWBBThgJfpMaWGybeB6Xg9zcr1EXzkiDBRBgNVHSME
SjBIgBSZvIPeKn7Ik6ZJfVr9NWvmgql796EapBgwFjEUMBIGA1UEAwwLdGVhbTI2
OC1uZXSCFE8yxHH34bwg1lx9XjwqefgJtIg4MBMGA1UdJQQMMAoGCCsGAQUFBwMB
MAsGA1UdDwQEAwIFoDAZBgNVHREEEjAQgg50ZWFtMjY4LXNlcnZlcjANBgkqhkiG
9w0BAQsFAAOCAQEAfW5QO1DlYYjJpf68Bc7EqY6tifwHkWxAyUJyEwsfJdFQH8WY
ORoylQGn/9nlX/QUyIZCDD3TZpUYQSAuhXO9MNdnwVp88bAxFwuUUOxB0skiLNwk
t5VvUP6Ne4HpVxuamMesEfVeuKPTgq/RIwVRKWL4WncztW2z1L8CunNGMuUr3JSa
2C9O6QTrBJZvWDOkqMCIddoa7TnJoFAX1llo0v2rJOiBZwsXsFz3RxmEdu9JRU3x
t41Cc/MxThNs2/Djz1lp9zeh00p9HoPiAIjOdfRViDNci1xhC5XlaccgAIv8m2XC
JnUgxc3Yox0fGol0NnvKDlh4lNMTdwg/rllU3w==
-----END CERTIFICATE-----
