Certificate:
    Data:
        Version: 3 (0x2)
        Serial Number:
            09:ab:4b:a8:07:67:47:3b:13:50:01:af:a7:fa:0d:9e
        Signature Algorithm: sha256WithRSAEncryption
        Issuer: CN=team248-net
        Validity
            Not Before: Nov  4 11:32:30 2023 GMT
            Not After : Oct 19 11:32:30 2026 GMT
        Subject: CN=team248-client
        Subject Public Key Info:
            Public Key Algorithm: rsaEncryption
                Public-Key: (2048 bit)
                Modulus:
                    00:c4:df:30:0c:5b:ea:61:27:fc:79:10:aa:24:35:
                    ae:db:82:83:de:00:4a:c4:f8:f1:cc:e9:6c:0d:f3:
                    f3:08:8e:c8:4e:1b:00:28:cc:4b:2d:6f:2e:e8:3a:
                    7d:34:58:23:3a:b1:51:70:56:6e:83:2f:97:a0:9d:
                    d4:5f:2e:2d:df:48:e5:b1:66:60:71:bc:81:ac:90:
                    fb:e9:d5:50:8b:11:4f:73:0a:e5:a1:33:56:74:87:
                    0c:5d:d2:ec:0e:57:34:fe:82:03:d2:a7:62:93:ac:
                    45:21:da:5b:6c:c4:5b:9f:9e:a3:af:24:8c:35:35:
                    e0:fe:dc:40:58:0e:f8:20:a6:5d:18:1c:a4:17:07:
                    e3:91:1b:0c:b8:b2:14:eb:07:88:b9:af:4d:56:cc:
                    e6:85:49:47:54:71:ff:e8:5b:d1:97:d1:59:bb:ad:
                    31:9d:65:5f:df:da:86:ab:70:eb:14:85:56:e4:e4:
                    81:e2:4f:83:c1:76:6a:70:98:86:b2:15:ed:3c:aa:
                    f7:d4:29:45:14:b5:91:66:fa:a4:a0:3e:13:aa:c9:
                    95:5d:a0:36:62:a5:9c:21:55:c4:32:4d:9f:42:9b:
                    49:5b:33:44:c9:9d:1e:6c:a8:eb:9c:6f:43:c6:79:
                    f6:9c:7b:26:04:d8:ed:e6:47:43:b2:d9:fc:10:c7:
                    d3:0f
                Exponent: 65537 (0x10001)
        X509v3 extensions:
            X509v3 Basic Constraints: 
                CA:FALSE
            X509v3 Subject Key Identifier: 
                B4:6D:4F:1C:1C:3A:2C:66:46:85:FD:39:8D:57:6D:47:21:82:52:43
            X509v3 Authority Key Identifier: 
                keyid:C5:FF:5F:FE:1C:D9:64:8E:D2:8C:9E:7B:6A:8C:CC:84:2B:40:EF:87
                DirName:/CN=team248-net
                serial:55:4B:D7:43:75:4F:21:68:24:9E:72:9F:A7:C9:52:3B:03:3E:2A:C8
            X509v3 Extended Key Usage: 
                TLS Web Client Authentication
            X509v3 Key Usage: 
                Digital Signature
    Signature Algorithm: sha256WithRSAEncryption
    Signature Value:
        76:1e:b2:10:b9:29:40:5a:27:c7:5a:b5:da:06:58:27:7b:d1:
        69:12:06:a8:c2:28:63:3d:8c:5e:b0:23:75:76:e6:79:52:5e:
        ae:7c:21:a8:fa:11:cb:c7:6a:6b:d2:00:50:86:10:c9:be:de:
        3c:ee:8a:f0:a6:77:21:42:fd:9e:3c:5f:89:c5:e8:10:3c:0b:
        0e:dd:27:4d:3f:79:63:1f:a0:11:75:c0:f6:67:d1:62:cc:6e:
        e4:68:d9:99:4d:2e:bc:47:a5:21:4d:7c:98:f8:6e:20:de:ba:
        6d:d3:5f:b9:a4:bf:17:bf:19:26:e0:97:cc:1a:61:37:07:bd:
        be:19:b6:5a:65:92:01:45:75:40:95:ed:7b:ed:90:17:10:cb:
        46:e4:2e:28:0c:1e:9e:65:46:f9:28:1a:c8:f9:e9:15:c9:05:
        dc:b3:b6:9f:f0:58:af:97:5f:34:17:d2:f9:9a:a5:3f:85:54:
        f8:b0:e4:8b:96:62:6b:cc:4f:33:84:97:0c:72:db:93:7e:02:
        53:ba:46:3a:a8:13:1d:09:36:76:5b:00:fc:24:1b:dd:56:3e:
        88:a1:13:4f:99:e3:84:e4:00:a5:a2:04:14:2d:eb:d3:d8:5a:
        c7:28:ea:df:b1:9e:0a:da:a1:0a:e5:ae:a1:0c:1b:57:13:ea:
        09:38:5f:2b
-----BEGIN CERTIFICATE-----
MIIDXDCCAkSgAwIBAgIQCatLqAdnRzsTUAGvp/oNnjANBgkqhkiG9w0BAQsFADAW
MRQwEgYDVQQDDAt0ZWFtMjQ4LW5ldDAeFw0yMzExMDQxMTMyMzBaFw0yNjEwMTkx
MTMyMzBaMBkxFzAVBgNVBAMMDnRlYW0yNDgtY2xpZW50MIIBIjANBgkqhkiG9w0B
AQEFAAOCAQ8AMIIBCgKCAQEAxN8wDFvqYSf8eRCqJDWu24KD3gBKxPjxzOlsDfPz
CI7IThsAKMxLLW8u6Dp9NFgjOrFRcFZugy+XoJ3UXy4t30jlsWZgcbyBrJD76dVQ
ixFPcwrloTNWdIcMXdLsDlc0/oID0qdik6xFIdpbbMRbn56jrySMNTXg/txAWA74
IKZdGBykFwfjkRsMuLIU6weIua9NVszmhUlHVHH/6FvRl9FZu60xnWVf39qGq3Dr
FIVW5OSB4k+DwXZqcJiGshXtPKr31ClFFLWRZvqkoD4TqsmVXaA2YqWcIVXEMk2f
QptJWzNEyZ0ebKjrnG9Dxnn2nHsmBNjt5kdDstn8EMfTDwIDAQABo4GiMIGfMAkG
A1UdEwQCMAAwHQYDVR0OBBYEFLRtTxwcOixmRoX9OY1XbUchglJDMFEGA1UdIwRK
MEiAFMX/X/4c2WSO0oyee2qMzIQrQO+HoRqkGDAWMRQwEgYDVQQDDAt0ZWFtMjQ4
LW5ldIIUVUvXQ3VPIWgknnKfp8lSOwM+KsgwEwYDVR0lBAwwCgYIKwYBBQUHAwIw
CwYDVR0PBAQDAgeAMA0GCSqGSIb3DQEBCwUAA4IBAQB2HrIQuSlAWifHWrXaBlgn
e9FpEgaowihjPYxesCN1duZ5Ul6ufCGo+hHLx2pr0gBQhhDJvt487orwpnchQv2e
PF+JxegQPAsO3SdNP3ljH6ARdcD2Z9FizG7kaNmZTS68R6UhTXyY+G4g3rpt01+5
pL8Xvxkm4JfMGmE3B72+GbZaZZIBRXVAle177ZAXEMtG5C4oDB6eZUb5KBrI+ekV
yQXcs7af8Fivl180F9L5mqU/hVT4sOSLlmJrzE8zhJcMctuTfgJTukY6qBMdCTZ2
WwD8JBvdVj6IoRNPmeOE5AClogQULevT2FrHKOrfsZ4K2qEK5a6hDBtXE+oJOF8r
-----END CERTIFICATE-----
