Certificate:
    Data:
        Version: 3 (0x2)
        Serial Number:
            21:6a:44:0b:e5:7c:3f:ff:74:69:08:c1:ff:c1:01:20
        Signature Algorithm: sha256WithRSAEncryption
        Issuer: CN=team248-net
        Validity
            Not Before: Nov  4 10:45:18 2023 GMT
            Not After : Oct 19 10:45:18 2026 GMT
        Subject: CN=team248-client
        Subject Public Key Info:
            Public Key Algorithm: rsaEncryption
                Public-Key: (2048 bit)
                Modulus:
                    00:c8:c4:7d:50:d4:f9:ac:e9:01:5b:1c:93:86:19:
                    ea:02:d8:0c:f3:d1:3d:5c:f6:f4:20:e2:91:b9:c4:
                    8f:78:22:44:0b:2d:d2:99:77:2b:21:81:56:5c:b1:
                    82:3d:88:5c:8e:61:db:c8:9b:94:a6:6c:f0:e3:4f:
                    92:00:bc:c1:cc:87:7a:4b:9e:e3:11:08:5b:4b:89:
                    30:76:2a:a1:a7:94:01:18:bc:2a:f3:8e:15:e9:08:
                    5a:87:8b:a4:ea:51:1f:65:86:ff:e4:c4:f1:f5:b4:
                    44:c0:e3:10:ff:2e:cd:aa:7c:87:74:92:39:ce:ce:
                    ed:b4:70:0e:0f:2a:be:5f:fe:39:54:57:80:29:44:
                    18:82:a0:eb:29:c4:ed:20:68:f2:ec:48:1c:0e:ef:
                    7f:c8:29:3e:f1:ad:71:4d:74:f4:4e:b0:bd:95:fb:
                    ba:db:e7:98:9b:35:00:6d:b9:95:62:06:a2:47:69:
                    65:d6:7c:c1:a4:d9:66:b9:7c:bc:35:d5:22:4f:5d:
                    38:f6:13:b5:41:79:70:04:15:ae:20:c0:52:d1:e0:
                    95:f0:ca:eb:23:74:a9:e3:77:ad:41:0c:de:6d:f0:
                    58:d6:48:3f:19:c0:38:cd:1d:d5:eb:3a:89:e2:cd:
                    d8:dd:98:47:aa:36:c8:a9:a1:b1:9f:e8:d8:28:c3:
                    c7:ed
                Exponent: 65537 (0x10001)
        X509v3 extensions:
            X509v3 Basic Constraints: 
                CA:FALSE
            X509v3 Subject Key Identifier: 
                58:DF:88:ED:44:E5:FD:AC:92:6E:03:0F:7A:DD:1E:4F:BC:E0:5A:37
            X509v3 Authority Key Identifier: 
                keyid:DE:E8:74:2D:84:C4:4C:0E:66:DC:13:A7:81:FE:1A:DA:93:CB:BA:62
                DirName:/CN=team248-net
                serial:48:02:FD:FB:14:FA:38:26:4A:39:F0:79:56:CA:DD:8C:E0:E3:A8:5B
            X509v3 Extended Key Usage: 
                TLS Web Client Authentication
            X509v3 Key Usage: 
                Digital Signature
    Signature Algorithm: sha256WithRSAEncryption
    Signature Value:
        5f:50:3a:6d:b8:e3:e8:17:a1:4f:f6:2c:4e:2e:82:e1:18:68:
        a6:b9:f3:62:2b:5a:09:7a:d9:86:f4:e8:ff:4e:36:a8:65:47:
        a8:ad:b8:09:eb:f7:94:f7:be:4a:e8:4d:07:f4:65:43:31:39:
        d7:7d:4f:75:27:07:a4:bf:21:7e:4f:92:9e:1c:72:48:01:20:
        7a:1b:75:f6:50:08:02:44:d8:ed:af:c9:50:64:52:ba:8d:6d:
        82:7c:1c:fe:01:9f:a4:ad:40:5b:c8:3f:69:82:ce:df:1b:98:
        37:0e:f8:9b:8f:47:7f:3e:ef:17:af:0c:c7:88:da:0f:b4:31:
        3f:04:f9:0d:b7:79:2e:39:87:2e:2e:fe:5f:6e:7a:85:ac:08:
        cc:6f:61:34:b3:6b:3c:0a:2d:b5:b0:b3:a8:89:ea:59:0b:eb:
        5f:5b:c2:a3:8a:6f:fb:ab:da:04:5f:cf:4c:26:6d:15:4f:60:
        2e:65:f3:29:0f:a8:44:0e:98:2d:50:7a:3b:30:e2:4c:b3:1b:
        ec:26:1d:76:d4:3b:0f:d4:fe:9d:95:b4:92:8b:d7:70:ee:3c:
        7f:ae:e5:7d:ba:f0:c1:f0:73:cf:f9:25:51:1d:48:5c:20:53:
        6f:4a:53:fb:a0:b6:6d:c0:91:22:33:74:ef:a0:d1:93:55:3e:
        da:80:8c:d0
-----BEGIN CERTIFICATE-----
MIIDXDCCAkSgAwIBAgIQIWpEC+V8P/90aQjB/8EBIDANBgkqhkiG9w0BAQsFADAW
MRQwEgYDVQQDDAt0ZWFtMjQ4LW5ldDAeFw0yMzExMDQxMDQ1MThaFw0yNjEwMTkx
MDQ1MThaMBkxFzAVBgNVBAMMDnRlYW0yNDgtY2xpZW50MIIBIjANBgkqhkiG9w0B
AQEFAAOCAQ8AMIIBCgKCAQEAyMR9UNT5rOkBWxyThhnqAtgM89E9XPb0IOKRucSP
eCJECy3SmXcrIYFWXLGCPYhcjmHbyJuUpmzw40+SALzBzId6S57jEQhbS4kwdiqh
p5QBGLwq844V6Qhah4uk6lEfZYb/5MTx9bREwOMQ/y7NqnyHdJI5zs7ttHAODyq+
X/45VFeAKUQYgqDrKcTtIGjy7EgcDu9/yCk+8a1xTXT0TrC9lfu62+eYmzUAbbmV
YgaiR2ll1nzBpNlmuXy8NdUiT1049hO1QXlwBBWuIMBS0eCV8MrrI3Sp43etQQze
bfBY1kg/GcA4zR3V6zqJ4s3Y3ZhHqjbIqaGxn+jYKMPH7QIDAQABo4GiMIGfMAkG
A1UdEwQCMAAwHQYDVR0OBBYEFFjfiO1E5f2skm4DD3rdHk+84Fo3MFEGA1UdIwRK
MEiAFN7odC2ExEwOZtwTp4H+GtqTy7pioRqkGDAWMRQwEgYDVQQDDAt0ZWFtMjQ4
LW5ldIIUSAL9+xT6OCZKOfB5VsrdjODjqFswEwYDVR0lBAwwCgYIKwYBBQUHAwIw
CwYDVR0PBAQDAgeAMA0GCSqGSIb3DQEBCwUAA4IBAQBfUDptuOPoF6FP9ixOLoLh
GGimufNiK1oJetmG9Oj/TjaoZUeorbgJ6/eU975K6E0H9GVDMTnXfU91JwekvyF+
T5KeHHJIASB6G3X2UAgCRNjtr8lQZFK6jW2CfBz+AZ+krUBbyD9pgs7fG5g3Dvib
j0d/Pu8XrwzHiNoPtDE/BPkNt3kuOYcuLv5fbnqFrAjMb2E0s2s8Ci21sLOoiepZ
C+tfW8Kjim/7q9oEX89MJm0VT2AuZfMpD6hEDpgtUHo7MOJMsxvsJh121DsP1P6d
lbSSi9dw7jx/ruV9uvDB8HPP+SVRHUhcIFNvSlP7oLZtwJEiM3TvoNGTVT7agIzQ
-----END CERTIFICATE-----
