Certificate:
    Data:
        Version: 3 (0x2)
        Serial Number:
            89:d2:46:f9:ef:ba:7a:80:bf:60:7e:36:06:34:f6:e0
        Signature Algorithm: sha256WithRSAEncryption
        Issuer: CN=team248-net
        Validity
            Not Before: Nov  4 11:32:31 2023 GMT
            Not After : Oct 19 11:32:31 2026 GMT
        Subject: CN=team248-server
        Subject Public Key Info:
            Public Key Algorithm: rsaEncryption
                Public-Key: (2048 bit)
                Modulus:
                    00:ca:7d:07:84:21:d6:e5:74:e2:1a:0a:16:2f:84:
                    e2:01:4b:8c:84:37:46:85:7b:70:29:b7:7d:a0:ef:
                    88:dd:fc:02:c0:95:e7:b4:54:8b:c3:70:4e:f1:3c:
                    93:47:1a:63:ff:54:92:83:d1:71:f6:d2:56:30:1b:
                    3f:d0:2c:ae:93:35:c1:60:b5:78:96:4e:52:2b:09:
                    f3:40:8f:94:7e:87:df:3d:3e:71:c0:dd:26:a0:53:
                    86:93:05:11:d0:a2:f1:da:bc:4c:fb:55:48:b2:5e:
                    c3:c8:d8:0d:fd:4d:28:48:d1:9e:27:39:23:8b:36:
                    ea:2a:08:ce:71:a9:3c:00:ca:cd:1d:49:ff:8c:16:
                    cf:ac:0c:e2:81:df:31:18:6b:ee:52:00:40:c9:53:
                    5c:01:b7:fb:c1:d8:aa:c6:97:a6:d9:ec:35:c6:a1:
                    0b:27:52:84:ac:7c:17:f7:46:88:23:82:9b:e1:a4:
                    e4:91:41:17:c9:91:d1:af:b1:1c:22:d2:dd:bf:22:
                    47:40:7e:88:0d:7e:c2:dd:15:4d:99:53:52:b6:db:
                    48:5a:c8:b8:a0:81:9c:ad:82:f7:06:04:36:80:a7:
                    1c:d1:f0:a6:87:bc:64:93:48:a3:56:5b:64:52:8a:
                    83:9f:0b:e4:f8:d9:93:a3:e3:8b:40:fa:68:5e:03:
                    98:d1
                Exponent: 65537 (0x10001)
        X509v3 extensions:
            X509v3 Basic Constraints: 
                CA:FALSE
            X509v3 Subject Key Identifier: 
                79:AF:06:D2:42:01:16:F9:6D:1E:FA:1B:72:25:F4:6F:D1:94:37:43
            X509v3 Authority Key Identifier: 
                keyid:C5:FF:5F:FE:1C:D9:64:8E:D2:8C:9E:7B:6A:8C:CC:84:2B:40:EF:87
                DirName:/CN=team248-net
                serial:55:4B:D7:43:75:4F:21:68:24:9E:72:9F:A7:C9:52:3B:03:3E:2A:C8
            X509v3 Extended Key Usage: 
                TLS Web Server Authentication
            X509v3 Key Usage: 
                Digital Signature, Key Encipherment
            X509v3 Subject Alternative Name: 
                DNS:team248-server
    Signature Algorithm: sha256WithRSAEncryption
    Signature Value:
        37:55:82:8e:59:de:b1:cc:0d:c3:f0:04:a1:1f:04:6f:91:fd:
        16:a9:40:91:a4:43:f6:50:a6:7d:62:31:8b:80:40:fc:55:9d:
        a0:15:c5:9b:c5:63:9a:b4:22:e7:cd:2d:2d:7f:8f:1e:3e:c8:
        20:21:8b:7a:dc:7c:a7:29:4e:2f:8f:86:b3:9f:ed:e8:8d:c6:
        aa:93:31:8c:a5:b9:71:89:1b:72:d9:5e:f1:f6:7c:11:3a:0b:
        2c:41:39:ce:59:4a:65:67:4e:3f:70:8d:75:16:20:b6:61:5e:
        22:36:96:e9:b0:d1:2b:d7:d4:b8:3b:a8:e8:c9:e1:ed:5f:2f:
        95:4c:16:4d:ec:39:95:7e:66:77:46:19:0b:3e:83:fa:9c:40:
        77:08:9d:0a:42:5d:82:b0:d0:2b:43:59:8b:16:71:33:1b:2d:
        fb:a0:8f:a5:b7:51:43:11:35:ce:ce:b8:97:c4:ae:d4:19:7c:
        0c:2f:39:14:d3:b7:33:86:b3:cb:ad:1c:9b:57:1c:92:b4:fa:
        71:d5:18:fe:b6:69:1a:35:32:2c:1f:25:d5:50:83:af:78:ba:
        41:ca:b1:a4:a5:76:02:41:30:12:55:74:c9:c9:37:10:6d:7c:
        02:d6:b2:d9:f1:30:11:27:93:7a:e7:7a:25:c3:4f:a0:7c:11:
        e4:33:86:9a
-----BEGIN CERTIFICATE-----
MIIDeDCCAmCgAwIBAgIRAInSRvnvunqAv2B+NgY09uAwDQYJKoZIhvcNAQELBQAw
FjEUMBIGA1UEAwwLdGVhbTI0OC1uZXQwHhcNMjMxMTA0MTEzMjMxWhcNMjYxMDE5
MTEzMjMxWjAZMRcwFQYDVQQDDA50ZWFtMjQ4LXNlcnZlcjCCASIwDQYJKoZIhvcN
AQEBBQADggEPADCCAQoCggEBAMp9B4Qh1uV04hoKFi+E4gFLjIQ3RoV7cCm3faDv
iN38AsCV57RUi8NwTvE8k0caY/9UkoPRcfbSVjAbP9AsrpM1wWC1eJZOUisJ80CP
lH6H3z0+ccDdJqBThpMFEdCi8dq8TPtVSLJew8jYDf1NKEjRnic5I4s26ioIznGp
PADKzR1J/4wWz6wM4oHfMRhr7lIAQMlTXAG3+8HYqsaXptnsNcahCydShKx8F/dG
iCOCm+Gk5JFBF8mR0a+xHCLS3b8iR0B+iA1+wt0VTZlTUrbbSFrIuKCBnK2C9wYE
NoCnHNHwpoe8ZJNIo1ZbZFKKg58L5PjZk6Pji0D6aF4DmNECAwEAAaOBvTCBujAJ
BgNVHRMEAjAAMB0GA1UdDgQWBBR5rwbSQgEW+W0e+htyJfRv0ZQ3QzBRBgNVHSME
SjBIgBTF/1/+HNlkjtKMnntqjMyEK0Dvh6EapBgwFjEUMBIGA1UEAwwLdGVhbTI0
OC1uZXSCFFVL10N1TyFoJJ5yn6fJUjsDPirIMBMGA1UdJQQMMAoGCCsGAQUFBwMB
MAsGA1UdDwQEAwIFoDAZBgNVHREEEjAQgg50ZWFtMjQ4LXNlcnZlcjANBgkqhkiG
9w0BAQsFAAOCAQEAN1WCjlnescwNw/AEoR8Eb5H9FqlAkaRD9lCmfWIxi4BA/FWd
oBXFm8VjmrQi580tLX+PHj7IICGLetx8pylOL4+Gs5/t6I3GqpMxjKW5cYkbctle
8fZ8EToLLEE5zllKZWdOP3CNdRYgtmFeIjaW6bDRK9fUuDuo6Mnh7V8vlUwWTew5
lX5md0YZCz6D+pxAdwidCkJdgrDQK0NZixZxMxst+6CPpbdRQxE1zs64l8Su1Bl8
DC85FNO3M4azy60cm1cckrT6cdUY/rZpGjUyLB8l1VCDr3i6QcqxpKV2AkEwElV0
yck3EG18Atay2fEwESeTeud6JcNPoHwR5DOGmg==
-----END CERTIFICATE-----
