Certificate:
    Data:
        Version: 3 (0x2)
        Serial Number:
            53:9b:67:a8:b0:f7:bd:85:7f:fa:d1:6f:64:b7:32:a3
        Signature Algorithm: sha256WithRSAEncryption
        Issuer: CN=team335-net
        Validity
            Not Before: Nov  4 10:46:45 2023 GMT
            Not After : Oct 19 10:46:45 2026 GMT
        Subject: CN=team335-client
        Subject Public Key Info:
            Public Key Algorithm: rsaEncryption
                Public-Key: (2048 bit)
                Modulus:
                    00:c3:a4:90:da:d2:38:d3:7a:57:02:eb:32:71:55:
                    1f:47:b2:5b:78:89:11:e4:8a:84:a6:1e:9f:b4:cc:
                    b2:b6:dd:0e:46:8f:7f:c2:45:b5:00:4b:36:04:6d:
                    eb:8c:8b:c8:71:2c:79:52:dd:78:0a:84:fc:2b:10:
                    e3:e8:e3:e8:e0:e8:82:f3:98:7c:c3:5e:42:f7:21:
                    b3:12:46:cd:ad:43:f9:d5:7e:34:94:ec:58:31:72:
                    3e:9b:f8:81:1f:23:8b:0b:00:ab:ad:b2:21:42:59:
                    b5:6d:55:89:4a:f9:12:bf:65:9b:37:39:9b:5e:2b:
                    39:55:97:09:11:c7:b7:50:71:29:fe:f2:c0:21:47:
                    0b:db:6d:70:31:3a:bd:81:7c:a4:81:36:f5:0c:47:
                    be:eb:e2:7b:90:f9:d1:06:06:f5:ee:b7:ff:9b:c5:
                    43:1e:84:22:91:6f:e5:88:2c:3c:17:ef:62:8b:b5:
                    26:88:b3:e5:a8:86:43:da:39:fe:33:ba:b5:65:d4:
                    90:92:09:ee:39:34:14:29:17:f5:5e:82:e8:63:31:
                    6a:93:69:39:5f:ea:1e:b3:34:99:be:95:2d:0d:ee:
                    4d:26:60:7b:7c:d1:18:58:56:a6:bc:58:65:df:6b:
                    9a:fc:5c:51:2a:81:af:02:06:d6:09:49:59:c7:5d:
                    65:dd
                Exponent: 65537 (0x10001)
        X509v3 extensions:
            X509v3 Basic Constraints: 
                CA:FALSE
            X509v3 Subject Key Identifier: 
                BC:50:85:56:26:CD:D4:99:25:32:58:C4:1F:61:8F:10:81:5D:BC:41
            X509v3 Authority Key Identifier: 
                keyid:5E:C7:90:E5:83:05:89:74:B4:A1:CD:53:00:00:F1:DE:4E:91:12:83
                DirName:/CN=team335-net
                serial:7F:4F:AA:1E:88:63:7D:11:6C:41:46:60:2D:4A:03:43:9C:CB:85:C8
            X509v3 Extended Key Usage: 
                TLS Web Client Authentication
            X509v3 Key Usage: 
                Digital Signature
    Signature Algorithm: sha256WithRSAEncryption
    Signature Value:
        61:c5:b2:a7:96:fe:79:22:82:74:8d:dd:3b:ed:2c:87:dd:ee:
        02:3f:19:6c:aa:87:4c:ec:0e:03:a2:d3:48:ee:a1:79:d6:7a:
        96:91:ee:6d:9b:19:8a:d0:3c:45:8d:9c:a5:53:7e:cf:f1:f3:
        d6:f4:f1:48:49:f3:44:6c:1a:4a:9e:0c:50:5e:59:93:63:75:
        62:8a:13:6c:a3:e1:26:68:be:08:8f:70:e7:34:0f:d2:e9:7a:
        79:da:4b:81:e7:e6:c9:1d:de:f7:c7:6c:6b:bc:5b:e2:02:82:
        c9:9a:6a:92:c3:62:15:36:6f:0c:3f:a9:f4:4c:1e:36:ff:61:
        7f:6f:57:51:27:91:37:b0:7b:46:d5:de:21:a7:be:50:e7:f9:
        07:e6:24:81:64:ac:18:fe:c0:0c:04:23:ed:eb:d8:e5:ee:d2:
        41:69:c4:b9:b5:59:5a:91:2d:b9:3e:2f:55:c2:23:8f:ba:97:
        46:9a:2b:49:cf:ca:f5:05:d2:5a:15:e4:1a:2f:f5:71:3f:3f:
        df:f8:59:30:09:c6:30:e8:4e:60:91:36:2b:d3:41:bf:6c:01:
        01:a3:25:20:d5:70:4f:0b:a4:d9:72:e1:eb:6f:5c:9c:f3:5d:
        b4:dd:e8:f9:0b:bf:7a:83:66:d3:8e:ee:50:d8:14:46:10:15:
        9c:3b:ce:cf
-----BEGIN CERTIFICATE-----
MIIDXDCCAkSgAwIBAgIQU5tnqLD3vYV/+tFvZLcyozANBgkqhkiG9w0BAQsFADAW
MRQwEgYDVQQDDAt0ZWFtMzM1LW5ldDAeFw0yMzExMDQxMDQ2NDVaFw0yNjEwMTkx
MDQ2NDVaMBkxFzAVBgNVBAMMDnRlYW0zMzUtY2xpZW50MIIBIjANBgkqhkiG9w0B
AQEFAAOCAQ8AMIIBCgKCAQEAw6SQ2tI403pXAusycVUfR7JbeIkR5IqEph6ftMyy
tt0ORo9/wkW1AEs2BG3rjIvIcSx5Ut14CoT8KxDj6OPo4OiC85h8w15C9yGzEkbN
rUP51X40lOxYMXI+m/iBHyOLCwCrrbIhQlm1bVWJSvkSv2WbNzmbXis5VZcJEce3
UHEp/vLAIUcL221wMTq9gXykgTb1DEe+6+J7kPnRBgb17rf/m8VDHoQikW/liCw8
F+9ii7UmiLPlqIZD2jn+M7q1ZdSQkgnuOTQUKRf1XoLoYzFqk2k5X+oeszSZvpUt
De5NJmB7fNEYWFamvFhl32ua/FxRKoGvAgbWCUlZx11l3QIDAQABo4GiMIGfMAkG
A1UdEwQCMAAwHQYDVR0OBBYEFLxQhVYmzdSZJTJYxB9hjxCBXbxBMFEGA1UdIwRK
MEiAFF7HkOWDBYl0tKHNUwAA8d5OkRKDoRqkGDAWMRQwEgYDVQQDDAt0ZWFtMzM1
LW5ldIIUf0+qHohjfRFsQUZgLUoDQ5zLhcgwEwYDVR0lBAwwCgYIKwYBBQUHAwIw
CwYDVR0PBAQDAgeAMA0GCSqGSIb3DQEBCwUAA4IBAQBhxbKnlv55IoJ0jd077SyH
3e4CPxlsqodM7A4DotNI7qF51nqWke5tmxmK0DxFjZylU37P8fPW9PFISfNEbBpK
ngxQXlmTY3ViihNso+EmaL4Ij3DnNA/S6Xp52kuB5+bJHd73x2xrvFviAoLJmmqS
w2IVNm8MP6n0TB42/2F/b1dRJ5E3sHtG1d4hp75Q5/kH5iSBZKwY/sAMBCPt69jl
7tJBacS5tVlakS25Pi9VwiOPupdGmitJz8r1BdJaFeQaL/VxPz/f+FkwCcYw6E5g
kTYr00G/bAEBoyUg1XBPC6TZcuHrb1yc81203ej5C796g2bTju5Q2BRGEBWcO87P
-----END CERTIFICATE-----
