Certificate:
    Data:
        Version: 3 (0x2)
        Serial Number:
            6a:ab:7c:f6:a8:a1:c0:ac:19:75:38:4c:3e:8b:2a:5b
        Signature Algorithm: sha256WithRSAEncryption
        Issuer: CN=team335-net
        Validity
            Not Before: Nov  3 20:45:24 2023 GMT
            Not After : Oct 18 20:45:24 2026 GMT
        Subject: CN=team335-client
        Subject Public Key Info:
            Public Key Algorithm: rsaEncryption
                Public-Key: (2048 bit)
                Modulus:
                    00:a7:2d:04:40:41:d8:ef:0c:e0:0e:e4:98:4c:63:
                    eb:51:e0:8f:2c:96:21:3c:6a:6e:2d:b4:b4:8f:f6:
                    e4:3b:24:d2:f3:03:1d:c9:8a:12:71:9f:f9:ab:d2:
                    00:de:6d:66:70:91:87:46:f1:ce:cd:b2:9d:d5:cf:
                    7e:d1:79:9a:32:f8:e6:c1:8b:9c:2e:a6:bc:41:5c:
                    52:9e:c3:3e:8e:9f:2a:91:6d:90:a2:d3:dc:ae:6f:
                    95:2a:17:52:27:fb:30:0b:b0:a2:a2:b6:cc:b8:08:
                    66:c4:05:be:a9:3f:1f:23:50:9e:48:9c:91:60:41:
                    15:e7:65:1f:2a:e8:a4:f3:54:5a:27:8e:f5:eb:ae:
                    d6:90:17:a8:d0:3f:77:b1:fc:a9:2e:77:4c:91:6d:
                    37:3c:4e:4d:50:d4:ac:d1:d0:fc:37:49:5d:6e:51:
                    5a:2a:a7:b4:a7:b3:4f:b1:2d:e0:b3:ba:dd:4f:38:
                    a9:7e:f2:2a:41:84:c8:6a:84:f1:c8:45:58:3a:8a:
                    a2:a9:e0:db:5c:53:c0:6b:0e:a7:6a:4c:ea:a1:15:
                    c5:08:fd:e2:ca:75:af:67:8e:5d:e5:8f:5b:61:5c:
                    a0:b0:a3:bf:d8:08:5e:4f:f6:42:7d:83:d5:b1:44:
                    93:f7:b6:14:59:67:e2:dc:d6:b1:14:cf:7c:65:86:
                    e7:2f
                Exponent: 65537 (0x10001)
        X509v3 extensions:
            X509v3 Basic Constraints: 
                CA:FALSE
            X509v3 Subject Key Identifier: 
                1B:31:A3:29:0B:AD:8B:FE:E7:58:D5:3C:32:1C:76:CD:A7:69:22:06
            X509v3 Authority Key Identifier: 
                keyid:37:FD:F1:77:72:09:E9:30:5C:BA:08:E4:59:AB:C3:A4:05:35:5D:64
                DirName:/CN=team335-net
                serial:66:72:A5:95:11:B7:97:DE:78:69:0B:95:52:8D:DE:00:56:04:8A:2A
            X509v3 Extended Key Usage: 
                TLS Web Client Authentication
            X509v3 Key Usage: 
                Digital Signature
    Signature Algorithm: sha256WithRSAEncryption
    Signature Value:
        49:ea:b0:30:c0:72:5b:a5:0c:a6:a0:78:27:da:4b:81:dc:d1:
        d8:0a:72:0d:79:ea:b0:b0:4c:a3:d1:95:a8:a6:78:dc:1f:98:
        9b:e4:6b:71:21:b2:fa:ab:f0:cf:f9:bf:47:99:0d:78:a8:2d:
        35:81:e1:0f:6a:36:58:84:e8:9a:16:2a:28:7b:2f:4b:51:e6:
        b9:d6:80:00:f9:95:24:96:94:de:93:31:de:a4:b0:b3:0e:d2:
        c7:0e:7e:10:19:f7:6c:32:8f:c8:1b:bf:10:06:d8:f6:d7:87:
        b4:ac:00:db:f2:17:d4:98:3a:64:c7:89:99:c1:f1:ef:1c:3c:
        26:3a:db:68:e4:0d:ae:50:53:c7:bd:e6:19:a3:83:f0:7b:dc:
        0d:3d:2d:65:ef:61:86:19:9d:81:4c:a5:05:b8:e4:cb:22:b4:
        5a:94:74:c1:3c:3c:64:8a:98:09:8c:b8:7a:d5:f9:f5:69:92:
        40:cb:a9:3b:e7:41:86:34:b5:cb:f1:10:5a:5c:9d:be:85:7e:
        49:d8:06:73:98:e4:9e:5e:2c:bf:e3:95:6e:77:1e:ae:8b:a9:
        55:dc:27:4f:01:5d:54:6d:05:b5:99:b2:74:4e:cb:19:39:b9:
        38:9d:f6:03:d0:d5:73:82:26:46:3e:bc:49:12:b8:04:a2:0c:
        0a:e2:93:1b
-----BEGIN CERTIFICATE-----
MIIDXDCCAkSgAwIBAgIQaqt89qihwKwZdThMPosqWzANBgkqhkiG9w0BAQsFADAW
MRQwEgYDVQQDDAt0ZWFtMzM1LW5ldDAeFw0yMzExMDMyMDQ1MjRaFw0yNjEwMTgy
MDQ1MjRaMBkxFzAVBgNVBAMMDnRlYW0zMzUtY2xpZW50MIIBIjANBgkqhkiG9w0B
AQEFAAOCAQ8AMIIBCgKCAQEApy0EQEHY7wzgDuSYTGPrUeCPLJYhPGpuLbS0j/bk
OyTS8wMdyYoScZ/5q9IA3m1mcJGHRvHOzbKd1c9+0XmaMvjmwYucLqa8QVxSnsM+
jp8qkW2QotPcrm+VKhdSJ/swC7CiorbMuAhmxAW+qT8fI1CeSJyRYEEV52UfKuik
81RaJ471667WkBeo0D93sfypLndMkW03PE5NUNSs0dD8N0ldblFaKqe0p7NPsS3g
s7rdTzipfvIqQYTIaoTxyEVYOoqiqeDbXFPAaw6nakzqoRXFCP3iynWvZ45d5Y9b
YVygsKO/2AheT/ZCfYPVsUST97YUWWfi3NaxFM98ZYbnLwIDAQABo4GiMIGfMAkG
A1UdEwQCMAAwHQYDVR0OBBYEFBsxoykLrYv+51jVPDIcds2naSIGMFEGA1UdIwRK
MEiAFDf98XdyCekwXLoI5Fmrw6QFNV1koRqkGDAWMRQwEgYDVQQDDAt0ZWFtMzM1
LW5ldIIUZnKllRG3l954aQuVUo3eAFYEiiowEwYDVR0lBAwwCgYIKwYBBQUHAwIw
CwYDVR0PBAQDAgeAMA0GCSqGSIb3DQEBCwUAA4IBAQBJ6rAwwHJbpQymoHgn2kuB
3NHYCnINeeqwsEyj0ZWopnjcH5ib5GtxIbL6q/DP+b9HmQ14qC01geEPajZYhOia
Fiooey9LUea51oAA+ZUklpTekzHepLCzDtLHDn4QGfdsMo/IG78QBtj214e0rADb
8hfUmDpkx4mZwfHvHDwmOtto5A2uUFPHveYZo4Pwe9wNPS1l72GGGZ2BTKUFuOTL
IrRalHTBPDxkipgJjLh61fn1aZJAy6k750GGNLXL8RBaXJ2+hX5J2AZzmOSeXiy/
45Vudx6ui6lV3CdPAV1UbQW1mbJ0TssZObk4nfYD0NVzgiZGPrxJErgEogwK4pMb
-----END CERTIFICATE-----
