Certificate:
    Data:
        Version: 3 (0x2)
        Serial Number:
            e7:88:61:45:db:e4:02:8d:07:8f:e4:12:ba:80:e8:3a
        Signature Algorithm: sha256WithRSAEncryption
        Issuer: CN=team335-net
        Validity
            Not Before: Nov  4 11:34:51 2023 GMT
            Not After : Oct 19 11:34:51 2026 GMT
        Subject: CN=team335-server
        Subject Public Key Info:
            Public Key Algorithm: rsaEncryption
                Public-Key: (2048 bit)
                Modulus:
                    00:cb:63:ec:00:1f:b5:b5:67:44:a3:09:ae:81:56:
                    0d:51:d5:9e:36:79:fc:2f:ee:bf:2a:f0:eb:0b:30:
                    c3:ba:79:bc:28:58:59:23:ac:92:c8:48:68:24:66:
                    1b:1a:ad:af:36:e4:76:6c:0b:91:a5:9d:e9:41:93:
                    9a:ac:5d:b2:24:01:e8:b4:90:22:73:fa:7d:d4:5a:
                    5c:70:c7:c4:4e:0c:45:cf:ba:56:5d:a2:e5:a7:95:
                    4e:1d:72:e6:d6:ad:58:d4:7f:22:9a:29:03:92:f8:
                    73:3d:96:2f:b3:b0:34:ab:0a:bf:69:71:2b:ee:24:
                    6f:15:7e:7d:f1:71:f7:cb:c1:03:cf:12:64:f7:46:
                    61:a0:3d:47:d5:68:1c:48:9e:c2:1e:fd:45:73:0d:
                    8f:5f:2c:07:6c:c9:de:3f:ac:1c:83:3f:3d:5b:6c:
                    19:79:ff:02:af:37:d4:4d:ae:51:7e:ef:c0:26:72:
                    c3:71:fc:46:03:90:fb:d8:eb:5c:39:3e:ba:84:a6:
                    f7:f1:c2:01:d8:82:54:f6:ad:5e:18:98:7c:b3:64:
                    64:fa:43:ec:59:db:96:58:1e:40:47:a6:0f:48:cd:
                    57:3f:42:3e:a0:bd:8e:a9:4b:53:d8:26:ce:9b:18:
                    33:17:3b:6c:e5:a1:0f:13:6a:53:7d:a7:08:f9:86:
                    4c:d7
                Exponent: 65537 (0x10001)
        X509v3 extensions:
            X509v3 Basic Constraints: 
                CA:FALSE
            X509v3 Subject Key Identifier: 
                9B:30:5A:9C:E1:5D:E2:0F:A3:EF:DF:73:9A:13:B4:6B:4E:54:EF:63
            X509v3 Authority Key Identifier: 
                keyid:96:0B:B2:6C:79:45:E2:EC:1F:ED:EB:F7:F8:1A:DE:52:D0:33:44:4A
                DirName:/CN=team335-net
                serial:0E:B1:DE:66:68:74:4A:1C:14:E3:CE:D3:D7:56:25:37:A8:E1:66:05
            X509v3 Extended Key Usage: 
                TLS Web Server Authentication
            X509v3 Key Usage: 
                Digital Signature, Key Encipherment
            X509v3 Subject Alternative Name: 
                DNS:team335-server
    Signature Algorithm: sha256WithRSAEncryption
    Signature Value:
        4d:a7:9f:bc:53:aa:37:f8:d1:c6:f1:3d:bb:f0:21:2e:6c:46:
        f9:f3:cd:21:1f:e1:63:d5:a0:7d:f6:87:cc:ab:af:53:0d:b2:
        64:cb:39:4f:93:b8:3e:07:bb:e7:3b:d3:f2:4b:15:3e:6b:80:
        ba:b7:86:b1:87:ad:09:1f:08:eb:7d:ba:00:45:b6:9c:2f:be:
        3b:3d:ae:0d:ac:7e:0a:6c:e9:b9:d1:c9:0d:38:18:00:e4:19:
        3b:16:a0:3b:48:b3:7d:fd:7b:94:ae:23:f1:20:48:c8:6f:d1:
        0c:0a:80:76:51:cd:1f:92:9f:6e:a6:0a:4a:09:f3:0d:bb:ea:
        71:b1:ba:20:3b:15:1f:54:0b:8b:fb:5a:59:ae:d8:6c:84:1f:
        51:d1:5d:6b:12:f1:8b:64:62:31:72:7c:a4:6d:70:3f:79:09:
        9d:c0:b9:cd:93:de:9d:ec:40:33:86:cb:c1:7f:56:68:89:cd:
        07:98:80:cc:84:50:61:47:1c:69:81:3a:d7:e5:49:05:8e:6d:
        4f:5c:60:20:9c:51:f2:7d:8d:9b:e8:a8:a2:e2:c6:68:a0:63:
        a9:1b:63:f3:e1:d9:58:be:50:09:d1:ef:f4:b8:b8:85:51:b4:
        ee:e8:4a:49:82:cf:de:67:01:85:9b:91:f3:ea:3b:04:67:5d:
        fe:e8:00:0d
-----BEGIN CERTIFICATE-----
MIIDeDCCAmCgAwIBAgIRAOeIYUXb5AKNB4/kErqA6DowDQYJKoZIhvcNAQELBQAw
FjEUMBIGA1UEAwwLdGVhbTMzNS1uZXQwHhcNMjMxMTA0MTEzNDUxWhcNMjYxMDE5
MTEzNDUxWjAZMRcwFQYDVQQDDA50ZWFtMzM1LXNlcnZlcjCCASIwDQYJKoZIhvcN
AQEBBQADggEPADCCAQoCggEBAMtj7AAftbVnRKMJroFWDVHVnjZ5/C/uvyrw6wsw
w7p5vChYWSOskshIaCRmGxqtrzbkdmwLkaWd6UGTmqxdsiQB6LSQInP6fdRaXHDH
xE4MRc+6Vl2i5aeVTh1y5tatWNR/IpopA5L4cz2WL7OwNKsKv2lxK+4kbxV+ffFx
98vBA88SZPdGYaA9R9VoHEiewh79RXMNj18sB2zJ3j+sHIM/PVtsGXn/Aq831E2u
UX7vwCZyw3H8RgOQ+9jrXDk+uoSm9/HCAdiCVPatXhiYfLNkZPpD7FnbllgeQEem
D0jNVz9CPqC9jqlLU9gmzpsYMxc7bOWhDxNqU32nCPmGTNcCAwEAAaOBvTCBujAJ
BgNVHRMEAjAAMB0GA1UdDgQWBBSbMFqc4V3iD6Pv33OaE7RrTlTvYzBRBgNVHSME
SjBIgBSWC7JseUXi7B/t6/f4Gt5S0DNESqEapBgwFjEUMBIGA1UEAwwLdGVhbTMz
NS1uZXSCFA6x3mZodEocFOPO09dWJTeo4WYFMBMGA1UdJQQMMAoGCCsGAQUFBwMB
MAsGA1UdDwQEAwIFoDAZBgNVHREEEjAQgg50ZWFtMzM1LXNlcnZlcjANBgkqhkiG
9w0BAQsFAAOCAQEATaefvFOqN/jRxvE9u/AhLmxG+fPNIR/hY9WgffaHzKuvUw2y
ZMs5T5O4Pge75zvT8ksVPmuAureGsYetCR8I6326AEW2nC++Oz2uDax+CmzpudHJ
DTgYAOQZOxagO0izff17lK4j8SBIyG/RDAqAdlHNH5KfbqYKSgnzDbvqcbG6IDsV
H1QLi/taWa7YbIQfUdFdaxLxi2RiMXJ8pG1wP3kJncC5zZPenexAM4bLwX9WaInN
B5iAzIRQYUccaYE61+VJBY5tT1xgIJxR8n2Nm+ioouLGaKBjqRtj8+HZWL5QCdHv
9Li4hVG07uhKSYLP3mcBhZuR8+o7BGdd/ugADQ==
-----END CERTIFICATE-----
