Certificate:
    Data:
        Version: 3 (0x2)
        Serial Number:
            71:14:52:d9:84:04:5f:6b:b9:ff:0e:27:e3:79:c9:62
        Signature Algorithm: sha256WithRSAEncryption
        Issuer: CN=team122-net
        Validity
            Not Before: Nov  3 20:41:20 2023 GMT
            Not After : Oct 18 20:41:20 2026 GMT
        Subject: CN=team122-server
        Subject Public Key Info:
            Public Key Algorithm: rsaEncryption
                Public-Key: (2048 bit)
                Modulus:
                    00:c9:ec:33:58:c4:80:9f:38:4c:aa:b1:25:55:5f:
                    b2:c0:f1:c9:8f:8c:4a:0b:8e:79:ed:00:c0:c3:65:
                    29:42:3a:7f:6a:43:cc:93:05:a9:6b:44:3c:ff:83:
                    0e:76:ea:72:2c:a1:a0:a9:65:e0:25:c7:6e:9e:cd:
                    9c:35:5e:fa:5b:5e:81:d7:cf:e8:ce:fd:d0:7d:b3:
                    55:53:c7:4f:a3:af:6f:d2:a0:a4:8a:5d:b2:3d:6c:
                    88:5b:b6:e6:28:ba:06:3c:91:ea:91:79:d7:38:02:
                    a4:23:62:67:1d:a3:10:1d:d3:35:29:e5:ca:7c:2a:
                    fe:06:74:9c:f5:96:19:8c:71:fa:bc:da:63:56:dd:
                    fd:57:4f:0e:4d:44:65:6a:64:59:ad:f6:d0:35:3d:
                    0f:c2:e7:df:24:3d:67:18:47:c2:85:7e:4f:0f:8d:
                    65:8e:46:8a:30:2f:3f:92:be:dc:da:75:55:27:6d:
                    75:93:5d:5e:18:f7:d3:12:0c:a3:f2:af:4c:64:ec:
                    62:6f:81:6b:62:42:c9:4d:69:4d:c6:91:64:5e:e5:
                    c4:ef:a9:8c:91:ee:de:ed:4c:cd:3f:81:57:d0:4a:
                    e7:e3:55:e8:73:3b:40:8d:c8:2d:f7:e5:ba:18:a3:
                    cd:c9:3e:da:bb:72:f3:3e:1f:56:e1:db:ac:3a:cf:
                    79:d1
                Exponent: 65537 (0x10001)
        X509v3 extensions:
            X509v3 Basic Constraints: 
                CA:FALSE
            X509v3 Subject Key Identifier: 
                79:6B:D6:68:58:43:01:14:59:5A:BB:A3:B5:A1:92:71:FC:74:5F:C2
            X509v3 Authority Key Identifier: 
                keyid:28:00:D6:6C:ED:FE:0E:61:EE:71:DD:0E:71:13:DE:2E:69:18:50:83
                DirName:/CN=team122-net
                serial:5A:CD:F6:77:BF:AB:D1:D4:59:AD:C3:E7:EE:0A:6D:FA:F7:E0:BE:1E
            X509v3 Extended Key Usage: 
                TLS Web Server Authentication
            X509v3 Key Usage: 
                Digital Signature, Key Encipherment
            X509v3 Subject Alternative Name: 
                DNS:team122-server
    Signature Algorithm: sha256WithRSAEncryption
    Signature Value:
        68:78:11:a5:26:d8:ee:d9:6c:4b:04:d2:88:02:02:c7:80:bd:
        ae:e9:55:bf:a9:56:d0:3e:0f:63:2d:f3:0c:e4:ed:e3:b5:a5:
        bf:86:13:ef:e0:0e:a3:86:aa:e6:65:26:eb:ee:0e:f0:7c:02:
        6a:3f:26:9d:46:34:0e:db:63:6c:f3:fb:f7:76:e2:7a:b8:25:
        1d:92:10:32:82:38:b5:74:84:77:00:64:d7:99:45:9a:c4:2d:
        e9:86:ba:5a:7a:4e:18:b7:9a:ee:50:5c:f6:4c:15:ef:85:ee:
        f1:04:e0:0c:f2:4a:20:3e:f2:0a:cc:9e:07:8c:f4:80:64:d8:
        06:cb:49:fc:a1:73:7a:dc:4d:fe:f8:c3:fb:b6:14:cd:52:8a:
        0b:a0:c1:31:fb:3b:7e:28:9b:96:0d:e2:a5:ee:be:65:0e:fe:
        96:fa:9f:e7:2f:88:e1:13:cc:82:b7:f8:51:96:55:6a:b5:45:
        3b:91:25:07:0d:74:90:90:3a:64:8e:8c:d4:f2:62:d9:fa:07:
        bc:38:fe:92:24:51:76:06:45:5c:80:c4:fb:4d:3f:8d:a8:18:
        c0:7a:6a:01:c7:38:b9:f2:a3:da:d3:3d:3b:2e:6b:e1:ff:49:
        c2:64:c7:c1:11:1d:0f:a6:3c:fd:ec:f7:db:c2:fc:cd:d7:74:
        ca:43:3c:87
-----BEGIN CERTIFICATE-----
MIIDdzCCAl+gAwIBAgIQcRRS2YQEX2u5/w4n43nJYjANBgkqhkiG9w0BAQsFADAW
MRQwEgYDVQQDDAt0ZWFtMTIyLW5ldDAeFw0yMzExMDMyMDQxMjBaFw0yNjEwMTgy
MDQxMjBaMBkxFzAVBgNVBAMMDnRlYW0xMjItc2VydmVyMIIBIjANBgkqhkiG9w0B
AQEFAAOCAQ8AMIIBCgKCAQEAyewzWMSAnzhMqrElVV+ywPHJj4xKC4557QDAw2Up
Qjp/akPMkwWpa0Q8/4MOdupyLKGgqWXgJcduns2cNV76W16B18/ozv3QfbNVU8dP
o69v0qCkil2yPWyIW7bmKLoGPJHqkXnXOAKkI2JnHaMQHdM1KeXKfCr+BnSc9ZYZ
jHH6vNpjVt39V08OTURlamRZrfbQNT0PwuffJD1nGEfChX5PD41ljkaKMC8/kr7c
2nVVJ211k11eGPfTEgyj8q9MZOxib4FrYkLJTWlNxpFkXuXE76mMke7e7UzNP4FX
0Ern41XocztAjcgt9+W6GKPNyT7au3LzPh9W4dusOs950QIDAQABo4G9MIG6MAkG
A1UdEwQCMAAwHQYDVR0OBBYEFHlr1mhYQwEUWVq7o7WhknH8dF/CMFEGA1UdIwRK
MEiAFCgA1mzt/g5h7nHdDnET3i5pGFCDoRqkGDAWMRQwEgYDVQQDDAt0ZWFtMTIy
LW5ldIIUWs32d7+r0dRZrcPn7gpt+vfgvh4wEwYDVR0lBAwwCgYIKwYBBQUHAwEw
CwYDVR0PBAQDAgWgMBkGA1UdEQQSMBCCDnRlYW0xMjItc2VydmVyMA0GCSqGSIb3
DQEBCwUAA4IBAQBoeBGlJtju2WxLBNKIAgLHgL2u6VW/qVbQPg9jLfMM5O3jtaW/
hhPv4A6jhqrmZSbr7g7wfAJqPyadRjQO22Ns8/v3duJ6uCUdkhAygji1dIR3AGTX
mUWaxC3phrpaek4Yt5ruUFz2TBXvhe7xBOAM8kogPvIKzJ4HjPSAZNgGy0n8oXN6
3E3++MP7thTNUooLoMEx+zt+KJuWDeKl7r5lDv6W+p/nL4jhE8yCt/hRllVqtUU7
kSUHDXSQkDpkjozU8mLZ+ge8OP6SJFF2BkVcgMT7TT+NqBjAemoBxzi58qPa0z07
Lmvh/0nCZMfBER0Ppjz97PfbwvzN13TKQzyH
-----END CERTIFICATE-----
