Certificate:
    Data:
        Version: 3 (0x2)
        Serial Number:
            03:e5:fd:72:81:9a:2f:35:51:d5:75:e4:fd:cc:e0:0a
        Signature Algorithm: sha256WithRSAEncryption
        Issuer: CN=team234-net
        Validity
            Not Before: Nov  3 20:43:35 2023 GMT
            Not After : Oct 18 20:43:35 2026 GMT
        Subject: CN=team234-server
        Subject Public Key Info:
            Public Key Algorithm: rsaEncryption
                Public-Key: (2048 bit)
                Modulus:
                    00:91:1a:57:e2:7a:ae:10:86:1a:0b:6a:5d:59:e9:
                    10:e4:66:04:9f:a5:1d:14:9e:be:0a:4d:54:01:f8:
                    0e:30:62:91:5e:35:8e:c2:3c:ff:83:a6:0c:d2:dc:
                    a0:94:84:66:32:b1:e1:1b:44:ed:07:4a:ac:5f:a1:
                    f5:bc:5f:1e:d3:78:4a:2c:05:6d:cf:f5:c9:c5:e1:
                    bf:78:10:72:46:77:bf:91:2a:e8:4b:fd:4a:36:4e:
                    72:51:2a:f9:7d:25:2d:fb:1c:d3:5f:5e:c8:56:88:
                    d9:87:bf:03:11:11:ca:b5:f4:47:e0:80:ed:3b:db:
                    39:e8:eb:f0:07:58:c4:22:c0:20:6a:98:81:d5:c2:
                    e7:94:b5:b4:90:dc:a4:8e:df:3c:dc:0d:31:3f:1a:
                    93:fe:87:34:b5:69:41:1d:fa:f4:41:c7:59:c2:8f:
                    c5:48:da:04:64:36:26:3f:7f:74:b4:b0:e7:54:a7:
                    18:55:4f:19:8d:50:75:39:88:29:38:3b:c7:aa:a3:
                    8a:30:39:90:b7:de:32:32:5e:8e:88:56:a4:d5:5c:
                    66:e2:65:74:95:cc:a4:6b:8f:4f:8a:70:e5:ba:22:
                    de:0b:d6:ca:ac:41:c6:c4:48:0d:ca:7b:fb:b2:e5:
                    d6:16:78:27:78:84:37:45:4a:33:65:86:0f:13:0e:
                    e4:f5
                Exponent: 65537 (0x10001)
        X509v3 extensions:
            X509v3 Basic Constraints: 
                CA:FALSE
            X509v3 Subject Key Identifier: 
                8E:FD:9B:31:90:14:4E:26:9D:12:C5:79:9C:58:96:D1:85:A6:82:36
            X509v3 Authority Key Identifier: 
                keyid:B2:AD:30:0D:92:D9:D6:61:F9:6F:60:92:C7:CB:04:E8:92:D2:6F:1C
                DirName:/CN=team234-net
                serial:4F:17:88:D6:70:1D:C0:7C:89:05:70:E4:B2:E0:A3:BC:CA:C4:D3:A2
            X509v3 Extended Key Usage: 
                TLS Web Server Authentication
            X509v3 Key Usage: 
                Digital Signature, Key Encipherment
            X509v3 Subject Alternative Name: 
                DNS:team234-server
    Signature Algorithm: sha256WithRSAEncryption
    Signature Value:
        05:53:6b:bc:0c:cf:4f:cf:18:44:d9:25:09:b5:00:64:e0:6d:
        e9:02:6a:91:15:f4:b1:38:9a:12:c9:24:be:7c:41:fc:15:43:
        fc:90:2b:0b:b2:da:7e:bc:4b:5d:2c:32:e3:b9:f3:95:c1:0d:
        dd:1b:21:71:f9:f1:8c:76:e1:a0:0f:1c:a7:93:8a:86:ff:6e:
        a3:6b:4a:d3:f5:4f:99:71:06:0c:8d:d4:82:89:77:32:d6:b7:
        0f:a0:2b:ec:68:54:e6:0e:9d:a3:e5:98:1b:6e:b5:b0:91:52:
        53:a5:49:77:da:65:c0:1f:c2:f0:4b:d4:97:a4:b9:c6:37:c6:
        aa:30:b6:b9:9a:99:68:92:db:51:4f:08:b7:7c:a6:3d:bb:55:
        7a:fc:32:70:33:4b:27:9e:9a:23:07:e0:65:2d:6b:c6:fe:b7:
        5a:7b:54:e6:d7:6b:d6:e6:44:89:4b:88:9a:fa:7a:b6:d7:33:
        c3:35:46:ec:71:fb:aa:70:f5:0f:fa:6e:5b:37:ea:c0:57:87:
        7c:d7:88:16:4a:29:db:10:60:21:33:e7:aa:85:80:a4:b9:06:
        39:ff:50:d8:d3:4b:a9:52:60:62:e4:13:d9:f1:b0:98:a3:f6:
        3b:ec:24:aa:e9:28:18:7c:05:28:73:95:94:c3:57:bf:b6:f9:
        d1:ee:db:f4
-----BEGIN CERTIFICATE-----
MIIDdzCCAl+gAwIBAgIQA+X9coGaLzVR1XXk/czgCjANBgkqhkiG9w0BAQsFADAW
MRQwEgYDVQQDDAt0ZWFtMjM0LW5ldDAeFw0yMzExMDMyMDQzMzVaFw0yNjEwMTgy
MDQzMzVaMBkxFzAVBgNVBAMMDnRlYW0yMzQtc2VydmVyMIIBIjANBgkqhkiG9w0B
AQEFAAOCAQ8AMIIBCgKCAQEAkRpX4nquEIYaC2pdWekQ5GYEn6UdFJ6+Ck1UAfgO
MGKRXjWOwjz/g6YM0tyglIRmMrHhG0TtB0qsX6H1vF8e03hKLAVtz/XJxeG/eBBy
Rne/kSroS/1KNk5yUSr5fSUt+xzTX17IVojZh78DERHKtfRH4IDtO9s56OvwB1jE
IsAgapiB1cLnlLW0kNykjt883A0xPxqT/oc0tWlBHfr0QcdZwo/FSNoEZDYmP390
tLDnVKcYVU8ZjVB1OYgpODvHqqOKMDmQt94yMl6OiFak1Vxm4mV0lcyka49PinDl
uiLeC9bKrEHGxEgNynv7suXWFngneIQ3RUozZYYPEw7k9QIDAQABo4G9MIG6MAkG
A1UdEwQCMAAwHQYDVR0OBBYEFI79mzGQFE4mnRLFeZxYltGFpoI2MFEGA1UdIwRK
MEiAFLKtMA2S2dZh+W9gksfLBOiS0m8coRqkGDAWMRQwEgYDVQQDDAt0ZWFtMjM0
LW5ldIIUTxeI1nAdwHyJBXDksuCjvMrE06IwEwYDVR0lBAwwCgYIKwYBBQUHAwEw
CwYDVR0PBAQDAgWgMBkGA1UdEQQSMBCCDnRlYW0yMzQtc2VydmVyMA0GCSqGSIb3
DQEBCwUAA4IBAQAFU2u8DM9PzxhE2SUJtQBk4G3pAmqRFfSxOJoSySS+fEH8FUP8
kCsLstp+vEtdLDLjufOVwQ3dGyFx+fGMduGgDxynk4qG/26ja0rT9U+ZcQYMjdSC
iXcy1rcPoCvsaFTmDp2j5ZgbbrWwkVJTpUl32mXAH8LwS9SXpLnGN8aqMLa5mplo
kttRTwi3fKY9u1V6/DJwM0snnpojB+BlLWvG/rdae1Tm12vW5kSJS4ia+nq21zPD
NUbscfuqcPUP+m5bN+rAV4d814gWSinbEGAhM+eqhYCkuQY5/1DY00upUmBi5BPZ
8bCYo/Y77CSq6SgYfAUoc5WUw1e/tvnR7tv0
-----END CERTIFICATE-----
