Certificate:
    Data:
        Version: 3 (0x2)
        Serial Number:
            07:a7:77:3e:1c:16:6d:ca:43:0e:05:0e:ac:ee:ce:6b
        Signature Algorithm: sha256WithRSAEncryption
        Issuer: CN=team234-net
        Validity
            Not Before: Nov  4 10:45:01 2023 GMT
            Not After : Oct 19 10:45:01 2026 GMT
        Subject: CN=team234-client
        Subject Public Key Info:
            Public Key Algorithm: rsaEncryption
                Public-Key: (2048 bit)
                Modulus:
                    00:e6:2b:13:32:61:f9:03:d0:1b:22:26:c5:4b:87:
                    6b:6e:85:39:fa:ad:6b:96:d4:cb:50:b8:e3:0a:0c:
                    48:e8:e3:a0:85:a9:8f:f9:86:54:9c:df:4e:53:f7:
                    67:7c:6a:73:81:87:1d:92:10:42:f8:06:e5:7a:1f:
                    7f:6a:36:5a:19:ba:98:6b:eb:33:20:ce:88:02:55:
                    05:0e:41:10:a8:62:5a:cc:f4:5f:e8:10:dd:7f:96:
                    3f:c7:04:fa:b5:ba:2b:8b:d2:19:17:72:ff:af:2b:
                    a0:f7:b5:7c:db:a9:c3:a8:c6:53:b7:f0:86:88:9a:
                    e4:b8:d5:72:14:68:26:c9:3c:f6:0b:3c:37:cb:84:
                    a6:bd:12:7d:bf:ef:43:7e:f4:1b:5d:7d:b7:03:f1:
                    f7:3c:7a:45:44:33:14:b6:a5:9e:8f:94:b2:f9:ab:
                    af:36:74:a8:70:26:09:87:02:62:be:d6:4c:e8:38:
                    6c:08:10:3a:21:b7:29:ec:d9:d3:13:7c:6c:21:42:
                    95:3d:65:ba:3c:dc:4f:d3:31:83:4e:c3:2d:d3:d9:
                    1d:92:6d:33:c2:a9:f8:b7:73:2d:f0:aa:b7:e6:f0:
                    11:6c:01:a1:e3:57:ca:c7:fd:ab:c2:b4:9d:4c:da:
                    2d:6d:25:17:3d:54:ad:08:af:2c:85:1a:fc:a6:22:
                    96:81
                Exponent: 65537 (0x10001)
        X509v3 extensions:
            X509v3 Basic Constraints: 
                CA:FALSE
            X509v3 Subject Key Identifier: 
                C9:A9:6B:BB:32:1C:5B:F5:83:65:F3:E3:C2:8D:7E:E8:44:42:12:EA
            X509v3 Authority Key Identifier: 
                keyid:F5:1A:52:65:DF:F4:61:7D:47:74:A5:DE:2A:EC:CA:DD:42:BE:0E:D0
                DirName:/CN=team234-net
                serial:27:73:3A:CA:D7:6A:98:1C:7C:A2:A0:99:60:2E:44:03:4B:18:13:FD
            X509v3 Extended Key Usage: 
                TLS Web Client Authentication
            X509v3 Key Usage: 
                Digital Signature
    Signature Algorithm: sha256WithRSAEncryption
    Signature Value:
        2b:63:3f:77:04:fe:25:e7:44:d4:90:5a:06:b4:6d:6c:19:ca:
        d1:52:fc:b5:79:0d:35:63:4f:9b:a3:e5:40:1b:31:e6:63:6b:
        f0:35:b0:7f:30:ee:12:fa:96:93:f7:ce:13:1d:4f:b7:2c:bb:
        11:0d:ff:fd:32:e8:e9:bf:a8:9a:06:ff:b6:a0:53:b8:a4:ce:
        bb:5d:ab:1b:d8:b2:45:e0:e4:bc:e7:ec:fb:07:64:e4:21:23:
        6d:c7:07:09:d9:19:6f:e2:59:a0:2f:da:82:ae:78:11:21:38:
        7b:08:7b:94:21:37:b6:93:1f:e8:1b:5c:df:5a:22:93:f1:06:
        42:ef:c6:3f:65:c5:07:14:f9:6e:3b:b5:79:c3:ca:8e:13:2f:
        f4:c3:c3:5b:26:36:39:9e:2e:f8:0a:3b:fe:b8:34:c5:90:fc:
        c6:3a:9e:f1:0c:ed:0e:8e:4b:f1:3e:35:22:80:26:83:47:1d:
        76:1a:ec:38:df:45:ff:ff:bc:a2:09:0d:0f:26:8d:52:6b:69:
        7f:37:ce:84:40:91:08:fe:78:66:c8:30:a2:e2:45:a9:04:4d:
        93:aa:35:41:1a:4f:c9:c5:fb:d1:b9:0d:0f:f8:6e:75:0e:45:
        e0:ef:bd:61:dd:2d:f2:f1:99:45:45:84:52:36:f5:0d:b9:c9:
        eb:7b:63:57
-----BEGIN CERTIFICATE-----
MIIDXDCCAkSgAwIBAgIQB6d3PhwWbcpDDgUOrO7OazANBgkqhkiG9w0BAQsFADAW
MRQwEgYDVQQDDAt0ZWFtMjM0LW5ldDAeFw0yMzExMDQxMDQ1MDFaFw0yNjEwMTkx
MDQ1MDFaMBkxFzAVBgNVBAMMDnRlYW0yMzQtY2xpZW50MIIBIjANBgkqhkiG9w0B
AQEFAAOCAQ8AMIIBCgKCAQEA5isTMmH5A9AbIibFS4drboU5+q1rltTLULjjCgxI
6OOghamP+YZUnN9OU/dnfGpzgYcdkhBC+Ableh9/ajZaGbqYa+szIM6IAlUFDkEQ
qGJazPRf6BDdf5Y/xwT6tbori9IZF3L/ryug97V826nDqMZTt/CGiJrkuNVyFGgm
yTz2Czw3y4SmvRJ9v+9DfvQbXX23A/H3PHpFRDMUtqWej5Sy+auvNnSocCYJhwJi
vtZM6DhsCBA6Ibcp7NnTE3xsIUKVPWW6PNxP0zGDTsMt09kdkm0zwqn4t3Mt8Kq3
5vARbAGh41fKx/2rwrSdTNotbSUXPVStCK8shRr8piKWgQIDAQABo4GiMIGfMAkG
A1UdEwQCMAAwHQYDVR0OBBYEFMmpa7syHFv1g2Xz48KNfuhEQhLqMFEGA1UdIwRK
MEiAFPUaUmXf9GF9R3Sl3irsyt1Cvg7QoRqkGDAWMRQwEgYDVQQDDAt0ZWFtMjM0
LW5ldIIUJ3M6ytdqmBx8oqCZYC5EA0sYE/0wEwYDVR0lBAwwCgYIKwYBBQUHAwIw
CwYDVR0PBAQDAgeAMA0GCSqGSIb3DQEBCwUAA4IBAQArYz93BP4l50TUkFoGtG1s
GcrRUvy1eQ01Y0+bo+VAGzHmY2vwNbB/MO4S+paT984THU+3LLsRDf/9Mujpv6ia
Bv+2oFO4pM67Xasb2LJF4OS85+z7B2TkISNtxwcJ2Rlv4lmgL9qCrngRITh7CHuU
ITe2kx/oG1zfWiKT8QZC78Y/ZcUHFPluO7V5w8qOEy/0w8NbJjY5ni74Cjv+uDTF
kPzGOp7xDO0OjkvxPjUigCaDRx12Guw430X//7yiCQ0PJo1Sa2l/N86EQJEI/nhm
yDCi4kWpBE2TqjVBGk/JxfvRuQ0P+G51DkXg771h3S3y8ZlFRYRSNvUNucnre2NX
-----END CERTIFICATE-----
