Certificate:
    Data:
        Version: 3 (0x2)
        Serial Number:
            3c:95:e6:fa:e8:1b:b5:31:82:03:1e:a5:29:dc:c2:56
        Signature Algorithm: sha256WithRSAEncryption
        Issuer: CN=team234-net
        Validity
            Not Before: Nov  4 11:32:11 2023 GMT
            Not After : Oct 19 11:32:11 2026 GMT
        Subject: CN=team234-client
        Subject Public Key Info:
            Public Key Algorithm: rsaEncryption
                Public-Key: (2048 bit)
                Modulus:
                    00:c0:af:d9:3e:af:15:88:08:d3:2c:80:a1:6c:2d:
                    96:f3:94:15:bb:9d:4e:87:67:01:bc:22:a3:9a:9d:
                    85:ae:c1:14:f7:dc:69:6d:00:ad:13:56:ed:41:13:
                    e3:92:77:8c:a2:98:f0:7f:ec:bd:ac:5e:07:00:fc:
                    d2:48:cf:ea:02:40:5e:3e:35:c2:fa:f3:0b:8a:c3:
                    bc:3d:a4:b2:1b:07:b5:f1:7c:db:ea:fd:28:3b:4e:
                    19:3e:b2:53:b9:c5:9c:9f:c9:d5:c5:3b:83:42:bc:
                    4b:b7:9e:c3:ae:db:25:6c:6b:98:82:0d:2f:5b:b9:
                    92:cd:db:85:2b:5e:68:59:b5:a0:41:5c:da:dd:8f:
                    ed:f1:68:36:2d:f6:2b:db:82:21:e3:2d:f3:fb:39:
                    9d:76:83:b0:1d:df:30:45:eb:ce:c2:0a:79:45:80:
                    a6:25:1a:5d:0f:77:35:3f:87:27:7b:92:6e:c1:e3:
                    4b:58:7e:d5:bc:77:42:7a:75:e3:45:df:05:27:d4:
                    86:b7:fb:5c:c7:62:fb:ea:4e:8b:04:10:8d:e8:dd:
                    ad:3c:04:4d:7e:f6:1b:84:38:a6:ee:95:70:24:81:
                    a1:7a:ed:44:a4:0a:1e:66:64:00:ba:7b:d3:6a:2b:
                    1c:24:32:9d:bf:bc:d6:b0:9b:92:a2:60:4d:87:5c:
                    87:5b
                Exponent: 65537 (0x10001)
        X509v3 extensions:
            X509v3 Basic Constraints: 
                CA:FALSE
            X509v3 Subject Key Identifier: 
                40:8D:32:1C:D1:28:70:68:EE:AE:60:5A:98:C8:0D:00:77:0A:49:6F
            X509v3 Authority Key Identifier: 
                keyid:40:F5:70:37:F2:BA:07:49:70:94:45:FD:45:90:EB:50:62:C4:93:E1
                DirName:/CN=team234-net
                serial:60:5D:E5:53:59:50:9C:82:76:D3:B8:E2:40:43:58:64:DE:DF:CF:D5
            X509v3 Extended Key Usage: 
                TLS Web Client Authentication
            X509v3 Key Usage: 
                Digital Signature
    Signature Algorithm: sha256WithRSAEncryption
    Signature Value:
        c1:a6:b3:cf:ec:ec:35:47:ad:9e:e9:38:3f:4c:9a:78:70:60:
        9b:01:5c:9e:c9:53:83:02:e7:dd:fa:0b:81:32:df:9d:ea:f6:
        66:4e:f6:66:05:50:c4:dc:0e:17:cd:f9:c5:e7:be:bf:c7:90:
        ff:01:a6:9b:64:88:82:ed:13:ee:53:be:cc:5e:7f:93:0d:16:
        cd:92:ed:77:37:ff:2c:94:19:c3:33:46:d3:d9:58:6b:9f:04:
        f4:d9:84:61:8d:3c:71:0b:fa:78:13:5f:95:76:ab:f6:6e:88:
        a1:26:19:ca:45:55:df:77:95:54:d4:c4:e3:08:e2:98:34:72:
        52:f5:c5:ea:b8:b9:d0:db:f8:19:25:38:9e:0c:aa:88:c7:15:
        da:22:9e:b7:d5:b8:0e:f8:ec:f3:38:33:cf:16:c9:e7:78:4c:
        f7:13:b8:90:32:d6:c9:80:e8:09:3d:0d:72:72:94:ff:a1:7d:
        4e:f7:36:ce:9f:87:c4:a8:c6:44:a4:87:d2:02:e9:8d:d5:4c:
        d8:59:21:a3:06:96:9e:21:34:d2:20:bc:0f:16:77:60:a3:e0:
        8a:0d:32:a8:87:05:a9:96:d0:62:db:56:56:81:36:cc:f0:59:
        67:ef:40:70:db:ca:70:81:81:f8:94:4c:43:10:85:4f:92:57:
        3c:94:2b:b6
-----BEGIN CERTIFICATE-----
MIIDXDCCAkSgAwIBAgIQPJXm+ugbtTGCAx6lKdzCVjANBgkqhkiG9w0BAQsFADAW
MRQwEgYDVQQDDAt0ZWFtMjM0LW5ldDAeFw0yMzExMDQxMTMyMTFaFw0yNjEwMTkx
MTMyMTFaMBkxFzAVBgNVBAMMDnRlYW0yMzQtY2xpZW50MIIBIjANBgkqhkiG9w0B
AQEFAAOCAQ8AMIIBCgKCAQEAwK/ZPq8ViAjTLIChbC2W85QVu51Oh2cBvCKjmp2F
rsEU99xpbQCtE1btQRPjkneMopjwf+y9rF4HAPzSSM/qAkBePjXC+vMLisO8PaSy
Gwe18Xzb6v0oO04ZPrJTucWcn8nVxTuDQrxLt57DrtslbGuYgg0vW7mSzduFK15o
WbWgQVza3Y/t8Wg2LfYr24Ih4y3z+zmddoOwHd8wRevOwgp5RYCmJRpdD3c1P4cn
e5JuweNLWH7VvHdCenXjRd8FJ9SGt/tcx2L76k6LBBCN6N2tPARNfvYbhDim7pVw
JIGheu1EpAoeZmQAunvTaiscJDKdv7zWsJuSomBNh1yHWwIDAQABo4GiMIGfMAkG
A1UdEwQCMAAwHQYDVR0OBBYEFECNMhzRKHBo7q5gWpjIDQB3CklvMFEGA1UdIwRK
MEiAFED1cDfyugdJcJRF/UWQ61BixJPhoRqkGDAWMRQwEgYDVQQDDAt0ZWFtMjM0
LW5ldIIUYF3lU1lQnIJ207jiQENYZN7fz9UwEwYDVR0lBAwwCgYIKwYBBQUHAwIw
CwYDVR0PBAQDAgeAMA0GCSqGSIb3DQEBCwUAA4IBAQDBprPP7Ow1R62e6Tg/TJp4
cGCbAVyeyVODAufd+guBMt+d6vZmTvZmBVDE3A4XzfnF576/x5D/AaabZIiC7RPu
U77MXn+TDRbNku13N/8slBnDM0bT2VhrnwT02YRhjTxxC/p4E1+Vdqv2boihJhnK
RVXfd5VU1MTjCOKYNHJS9cXquLnQ2/gZJTieDKqIxxXaIp631bgO+OzzODPPFsnn
eEz3E7iQMtbJgOgJPQ1ycpT/oX1O9zbOn4fEqMZEpIfSAumN1UzYWSGjBpaeITTS
ILwPFndgo+CKDTKohwWpltBi21ZWgTbM8Fln70Bw28pwgYH4lExDEIVPklc8lCu2
-----END CERTIFICATE-----
