Certificate:
    Data:
        Version: 3 (0x2)
        Serial Number:
            cc:45:c5:c8:ed:3e:ac:9b:43:8e:3a:a2:e3:f7:7a:68
        Signature Algorithm: sha256WithRSAEncryption
        Issuer: CN=team234-net
        Validity
            Not Before: Nov  4 11:32:11 2023 GMT
            Not After : Oct 19 11:32:11 2026 GMT
        Subject: CN=team234-server
        Subject Public Key Info:
            Public Key Algorithm: rsaEncryption
                Public-Key: (2048 bit)
                Modulus:
                    00:bd:5a:0e:be:30:fe:ed:3b:58:e5:f0:55:da:e6:
                    cd:48:d8:3e:46:5f:15:0f:40:6e:01:c3:84:99:4b:
                    7b:6c:be:8e:a1:14:96:bd:33:a4:0e:ee:c5:b1:51:
                    fc:91:e6:48:d6:1f:70:b1:0d:32:95:07:ff:31:64:
                    b2:0c:7d:10:1f:43:6b:bb:eb:87:56:d3:56:48:f8:
                    b5:1e:ad:50:03:c1:17:2f:2d:16:1e:23:88:59:5a:
                    df:63:94:a9:42:cb:aa:ac:2a:c7:80:ac:6b:2e:1c:
                    1c:ee:84:2d:43:7d:80:2a:75:9e:9e:0d:e8:de:ea:
                    90:46:c2:1a:00:41:3f:d0:ca:01:74:49:6e:e7:de:
                    20:b4:23:0a:1b:c9:23:fa:df:a3:15:d3:fc:36:31:
                    63:98:31:be:96:1b:d1:a7:5a:fe:c8:9f:b5:27:1f:
                    35:5c:79:f7:4e:25:b9:82:e2:47:c3:b7:32:66:29:
                    3b:db:c1:0b:d5:9d:4f:18:33:f4:e7:a0:8f:44:9e:
                    79:ee:97:91:ff:36:34:a7:a7:e3:97:cb:5d:93:8c:
                    38:28:20:2b:bb:a5:2f:81:12:91:88:25:ab:2b:e5:
                    b0:63:89:15:e4:3b:9c:99:b7:8e:ef:93:3c:64:0c:
                    96:72:62:54:f6:27:41:d0:1e:7c:42:ef:6d:20:17:
                    ab:d1
                Exponent: 65537 (0x10001)
        X509v3 extensions:
            X509v3 Basic Constraints: 
                CA:FALSE
            X509v3 Subject Key Identifier: 
                73:C2:12:80:1D:34:AA:BB:9B:40:AE:17:80:01:F3:77:13:BE:C9:52
            X509v3 Authority Key Identifier: 
                keyid:40:F5:70:37:F2:BA:07:49:70:94:45:FD:45:90:EB:50:62:C4:93:E1
                DirName:/CN=team234-net
                serial:60:5D:E5:53:59:50:9C:82:76:D3:B8:E2:40:43:58:64:DE:DF:CF:D5
            X509v3 Extended Key Usage: 
                TLS Web Server Authentication
            X509v3 Key Usage: 
                Digital Signature, Key Encipherment
            X509v3 Subject Alternative Name: 
                DNS:team234-server
    Signature Algorithm: sha256WithRSAEncryption
    Signature Value:
        29:25:ed:2a:2a:74:85:5e:c8:88:11:56:f7:d1:ae:91:ea:cb:
        dd:ca:aa:13:a3:6e:45:a2:2d:d8:fa:3c:24:ab:79:a4:a6:4e:
        ab:d4:cd:26:e0:46:f8:b0:68:cc:14:4b:31:d4:79:bd:96:d2:
        92:92:32:e6:ae:0f:ea:e3:5e:af:15:6d:1c:9b:1e:99:f0:2a:
        f9:27:ee:64:15:56:25:8b:a2:79:b7:6d:42:22:0c:61:bf:03:
        cc:b7:4d:79:8a:6b:94:e3:47:91:b2:46:f0:f1:49:4a:c9:dc:
        68:8b:5f:52:2f:c3:5b:ca:15:44:04:38:63:28:a2:af:bf:62:
        fb:49:4d:71:e2:99:0d:5c:c0:03:86:12:c5:67:a1:ba:d7:14:
        cf:c5:d7:ba:fe:46:26:ec:25:db:3f:82:d2:e7:42:be:94:f3:
        4d:5d:87:2b:db:31:da:13:0b:d1:c9:a0:21:e9:87:82:5b:b9:
        e6:92:61:80:48:d5:d0:76:ab:c0:d8:54:7b:c1:14:05:a6:a0:
        a6:eb:77:8b:98:b6:87:0f:c2:9c:7c:7e:b8:20:11:1c:cf:16:
        66:6c:d9:b6:84:fd:55:96:f5:8e:ce:7a:48:3d:d2:c8:dc:eb:
        97:78:ed:6c:28:d2:46:e1:d8:84:ec:8d:e0:4d:e3:c8:f9:f0:
        d8:69:c2:ae
-----BEGIN CERTIFICATE-----
MIIDeDCCAmCgAwIBAgIRAMxFxcjtPqybQ446ouP3emgwDQYJKoZIhvcNAQELBQAw
FjEUMBIGA1UEAwwLdGVhbTIzNC1uZXQwHhcNMjMxMTA0MTEzMjExWhcNMjYxMDE5
MTEzMjExWjAZMRcwFQYDVQQDDA50ZWFtMjM0LXNlcnZlcjCCASIwDQYJKoZIhvcN
AQEBBQADggEPADCCAQoCggEBAL1aDr4w/u07WOXwVdrmzUjYPkZfFQ9AbgHDhJlL
e2y+jqEUlr0zpA7uxbFR/JHmSNYfcLENMpUH/zFksgx9EB9Da7vrh1bTVkj4tR6t
UAPBFy8tFh4jiFla32OUqULLqqwqx4Csay4cHO6ELUN9gCp1np4N6N7qkEbCGgBB
P9DKAXRJbufeILQjChvJI/rfoxXT/DYxY5gxvpYb0ada/siftScfNVx5904luYLi
R8O3MmYpO9vBC9WdTxgz9Oegj0Seee6Xkf82NKen45fLXZOMOCggK7ulL4ESkYgl
qyvlsGOJFeQ7nJm3ju+TPGQMlnJiVPYnQdAefELvbSAXq9ECAwEAAaOBvTCBujAJ
BgNVHRMEAjAAMB0GA1UdDgQWBBRzwhKAHTSqu5tArheAAfN3E77JUjBRBgNVHSME
SjBIgBRA9XA38roHSXCURf1FkOtQYsST4aEapBgwFjEUMBIGA1UEAwwLdGVhbTIz
NC1uZXSCFGBd5VNZUJyCdtO44kBDWGTe38/VMBMGA1UdJQQMMAoGCCsGAQUFBwMB
MAsGA1UdDwQEAwIFoDAZBgNVHREEEjAQgg50ZWFtMjM0LXNlcnZlcjANBgkqhkiG
9w0BAQsFAAOCAQEAKSXtKip0hV7IiBFW99GukerL3cqqE6NuRaIt2Po8JKt5pKZO
q9TNJuBG+LBozBRLMdR5vZbSkpIy5q4P6uNerxVtHJsemfAq+SfuZBVWJYuiebdt
QiIMYb8DzLdNeYprlONHkbJG8PFJSsncaItfUi/DW8oVRAQ4Yyiir79i+0lNceKZ
DVzAA4YSxWehutcUz8XXuv5GJuwl2z+C0udCvpTzTV2HK9sx2hML0cmgIemHglu5
5pJhgEjV0HarwNhUe8EUBaagput3i5i2hw/CnHx+uCARHM8WZmzZtoT9VZb1js56
SD3SyNzrl3jtbCjSRuHYhOyN4E3jyPnw2GnCrg==
-----END CERTIFICATE-----
