Certificate:
    Data:
        Version: 3 (0x2)
        Serial Number:
            53:fc:1c:bc:f2:d9:ec:ae:d6:45:d6:3e:d7:00:20:64
        Signature Algorithm: sha256WithRSAEncryption
        Issuer: CN=team202-net
        Validity
            Not Before: Nov  4 10:44:20 2023 GMT
            Not After : Oct 19 10:44:20 2026 GMT
        Subject: CN=team202-server
        Subject Public Key Info:
            Public Key Algorithm: rsaEncryption
                Public-Key: (2048 bit)
                Modulus:
                    00:d9:9a:fb:ef:a3:5f:56:ae:56:39:8a:54:85:83:
                    ed:e2:61:d2:f0:9c:6a:29:84:d4:47:c5:ff:4f:12:
                    15:86:50:ab:ef:69:08:fb:d0:4b:4b:81:88:37:b1:
                    29:f0:46:99:61:cc:9d:95:4d:ed:13:07:27:81:47:
                    f1:f4:1a:ac:53:19:56:83:d8:bc:c0:9d:7e:32:1e:
                    f2:5d:2c:77:da:e0:1a:54:fe:55:09:77:22:7d:6a:
                    bd:b3:b8:10:e7:54:f0:46:86:06:11:1d:29:3b:ed:
                    b9:fc:53:f4:0c:0c:18:e2:12:68:29:de:df:ed:f0:
                    87:cd:90:3f:1e:c0:1a:bb:b6:05:93:24:c7:dd:54:
                    e3:8e:97:a6:3f:81:8b:1d:ef:17:7d:5a:c2:53:f5:
                    a0:08:62:f2:bc:73:5a:5e:95:be:c7:35:34:13:76:
                    f0:71:eb:01:a4:0c:c4:ce:55:41:5f:62:a8:d4:f0:
                    a3:2e:75:e1:53:43:9d:04:6f:b7:93:ab:e4:11:30:
                    e7:0d:75:1b:1e:d2:97:85:f9:67:7c:fb:3d:78:1a:
                    04:2d:0a:ab:8f:92:66:68:67:4f:5d:1e:9d:f2:2d:
                    74:8f:89:15:59:f1:f8:e0:bb:15:44:da:88:29:47:
                    95:b5:4e:0a:38:21:18:43:7e:d8:84:a4:0f:c0:09:
                    1d:7f
                Exponent: 65537 (0x10001)
        X509v3 extensions:
            X509v3 Basic Constraints: 
                CA:FALSE
            X509v3 Subject Key Identifier: 
                80:92:2D:0F:E4:C5:1C:40:33:83:50:1F:B9:8D:CD:4C:B5:6D:27:0B
            X509v3 Authority Key Identifier: 
                keyid:6D:24:CD:FC:02:37:04:C1:7E:46:95:5B:FD:97:4B:F9:00:95:A5:23
                DirName:/CN=team202-net
                serial:47:71:84:2F:02:AB:EF:A7:91:C7:6E:4C:31:BF:89:D4:01:C1:E9:D8
            X509v3 Extended Key Usage: 
                TLS Web Server Authentication
            X509v3 Key Usage: 
                Digital Signature, Key Encipherment
            X509v3 Subject Alternative Name: 
                DNS:team202-server
    Signature Algorithm: sha256WithRSAEncryption
    Signature Value:
        73:6b:75:f3:ea:18:03:28:25:08:5e:bc:59:0e:74:51:4a:c1:
        2c:1b:86:a2:99:81:80:d7:63:a0:d6:56:c3:f9:31:c0:c0:ee:
        8c:79:c4:15:bb:7e:00:a3:e3:9e:ad:3d:dd:c1:c1:41:65:1c:
        f9:06:a9:fc:ef:c6:d1:30:48:6e:97:26:e7:92:d8:a0:c5:4b:
        32:fc:f2:93:da:24:bb:f5:07:15:a4:1b:84:47:0c:0f:24:77:
        44:07:0f:fc:af:ec:75:9f:7a:37:fc:1a:e1:0a:d5:7a:d5:c9:
        5d:4f:9e:51:04:4d:aa:0c:17:7e:a3:ac:69:ac:0c:1e:96:3a:
        29:b9:17:6f:cf:7d:d6:24:bd:2f:c4:96:86:92:e8:4c:b1:72:
        86:9e:b5:9c:8a:58:b7:07:5e:d3:e0:9c:b5:7d:19:48:87:c5:
        d9:5e:24:c9:8c:d1:09:a2:6e:5d:1f:40:1c:fd:eb:d1:3e:41:
        c2:a8:43:63:2c:39:95:cf:36:9e:c7:16:54:34:c2:14:98:4f:
        4d:72:8e:6b:09:43:d2:6d:03:58:ff:4a:45:ff:2c:86:32:4f:
        38:7f:d0:2e:f1:93:e1:e9:9e:e5:c9:34:3d:70:03:bb:51:9a:
        13:df:a1:2d:d0:7d:f5:b9:60:8b:31:42:7f:f5:55:a1:4e:34:
        18:42:4b:70
-----BEGIN CERTIFICATE-----
MIIDdzCCAl+gAwIBAgIQU/wcvPLZ7K7WRdY+1wAgZDANBgkqhkiG9w0BAQsFADAW
MRQwEgYDVQQDDAt0ZWFtMjAyLW5ldDAeFw0yMzExMDQxMDQ0MjBaFw0yNjEwMTkx
MDQ0MjBaMBkxFzAVBgNVBAMMDnRlYW0yMDItc2VydmVyMIIBIjANBgkqhkiG9w0B
AQEFAAOCAQ8AMIIBCgKCAQEA2Zr776NfVq5WOYpUhYPt4mHS8JxqKYTUR8X/TxIV
hlCr72kI+9BLS4GIN7Ep8EaZYcydlU3tEwcngUfx9BqsUxlWg9i8wJ1+Mh7yXSx3
2uAaVP5VCXcifWq9s7gQ51TwRoYGER0pO+25/FP0DAwY4hJoKd7f7fCHzZA/HsAa
u7YFkyTH3VTjjpemP4GLHe8XfVrCU/WgCGLyvHNaXpW+xzU0E3bwcesBpAzEzlVB
X2Ko1PCjLnXhU0OdBG+3k6vkETDnDXUbHtKXhflnfPs9eBoELQqrj5JmaGdPXR6d
8i10j4kVWfH44LsVRNqIKUeVtU4KOCEYQ37YhKQPwAkdfwIDAQABo4G9MIG6MAkG
A1UdEwQCMAAwHQYDVR0OBBYEFICSLQ/kxRxAM4NQH7mNzUy1bScLMFEGA1UdIwRK
MEiAFG0kzfwCNwTBfkaVW/2XS/kAlaUjoRqkGDAWMRQwEgYDVQQDDAt0ZWFtMjAy
LW5ldIIUR3GELwKr76eRx25MMb+J1AHB6dgwEwYDVR0lBAwwCgYIKwYBBQUHAwEw
CwYDVR0PBAQDAgWgMBkGA1UdEQQSMBCCDnRlYW0yMDItc2VydmVyMA0GCSqGSIb3
DQEBCwUAA4IBAQBza3Xz6hgDKCUIXrxZDnRRSsEsG4aimYGA12Og1lbD+THAwO6M
ecQVu34Ao+OerT3dwcFBZRz5Bqn878bRMEhulybnktigxUsy/PKT2iS79QcVpBuE
RwwPJHdEBw/8r+x1n3o3/BrhCtV61cldT55RBE2qDBd+o6xprAweljopuRdvz33W
JL0vxJaGkuhMsXKGnrWcili3B17T4Jy1fRlIh8XZXiTJjNEJom5dH0Ac/evRPkHC
qENjLDmVzzaexxZUNMIUmE9Nco5rCUPSbQNY/0pF/yyGMk84f9Au8ZPh6Z7lyTQ9
cAO7UZoT36Et0H31uWCLMUJ/9VWhTjQYQktw
-----END CERTIFICATE-----
