Certificate:
    Data:
        Version: 3 (0x2)
        Serial Number:
            39:7d:d1:7d:b5:fe:06:80:3d:02:0a:f8:a0:89:30:71
        Signature Algorithm: sha256WithRSAEncryption
        Issuer: CN=team366-net
        Validity
            Not Before: Nov  4 10:47:16 2023 GMT
            Not After : Oct 19 10:47:16 2026 GMT
        Subject: CN=team366-client
        Subject Public Key Info:
            Public Key Algorithm: rsaEncryption
                Public-Key: (2048 bit)
                Modulus:
                    00:83:e0:31:7f:3d:f9:84:cc:19:aa:0f:5f:56:3e:
                    a4:b9:67:00:19:7c:0c:b9:4c:2e:65:e9:96:98:98:
                    87:92:07:ac:5f:cf:d7:b0:f4:65:f3:8c:88:72:1c:
                    a2:e8:b2:bc:97:e4:10:88:22:7e:bd:50:74:e4:5a:
                    9b:8d:a9:10:84:f8:8a:84:41:bf:b6:58:d7:00:b0:
                    48:90:9a:38:75:89:f6:07:26:02:7d:ec:3c:52:fb:
                    14:f9:20:40:9f:42:f6:34:0f:20:4e:f5:38:04:ec:
                    31:01:80:30:57:73:14:af:06:6d:a9:4f:e8:59:d8:
                    79:1a:c1:d9:d7:a2:95:79:c5:87:9d:5e:7a:82:a6:
                    c2:b7:ee:31:2c:c4:64:51:9e:0f:ef:77:ff:91:03:
                    12:fc:b9:13:00:a2:84:9b:59:86:10:09:a2:e9:b9:
                    86:f6:63:c1:4d:09:80:21:e5:c9:f8:29:b3:32:a9:
                    f3:4c:5f:15:e9:43:e1:7e:93:89:00:1b:fa:eb:c6:
                    bf:0a:cd:34:6f:57:7f:ba:f7:0d:73:ef:c9:e2:67:
                    e4:0b:87:58:31:5a:4c:bd:20:91:6a:93:dd:36:7d:
                    d6:41:60:31:91:bc:53:9b:36:88:15:47:51:ed:bf:
                    3a:aa:6f:d6:46:4c:79:30:16:d5:85:3b:56:c0:e8:
                    61:2f
                Exponent: 65537 (0x10001)
        X509v3 extensions:
            X509v3 Basic Constraints: 
                CA:FALSE
            X509v3 Subject Key Identifier: 
                5E:13:60:1C:2A:3A:5A:76:1E:B2:38:22:A1:03:81:96:22:0E:1D:71
            X509v3 Authority Key Identifier: 
                keyid:BE:7C:14:AB:85:6D:A4:0C:C0:DB:F0:1D:05:DC:A5:F3:01:18:F2:D6
                DirName:/CN=team366-net
                serial:11:68:C2:37:C9:94:22:21:0D:6B:C1:B5:D9:58:F3:49:C1:76:D8:8C
            X509v3 Extended Key Usage: 
                TLS Web Client Authentication
            X509v3 Key Usage: 
                Digital Signature
    Signature Algorithm: sha256WithRSAEncryption
    Signature Value:
        a2:9d:6b:26:88:cd:fb:ea:93:f3:ce:f7:40:4f:96:b9:7f:6c:
        0d:4c:3b:31:83:0c:8a:10:08:b5:59:3b:fc:f1:a2:98:17:54:
        5c:68:b0:dc:66:4d:e2:92:4f:fa:f0:0d:d6:b0:e4:3f:42:57:
        8f:31:2b:99:68:3c:8a:5c:6d:8b:13:84:d9:46:59:80:16:16:
        97:5b:00:5e:5b:9b:27:5f:2a:d0:91:53:36:bd:ee:87:a0:dd:
        d2:d9:45:ea:8f:2e:17:34:16:dc:23:3a:b7:73:c5:b3:0f:60:
        4f:ff:71:a0:47:46:2b:e7:46:9f:c2:db:c8:84:e4:63:af:45:
        b5:c5:77:e2:21:ef:b7:dc:3a:38:0a:a3:ab:9f:37:84:dc:40:
        29:85:09:69:9d:f3:6a:ef:1c:3b:1a:90:f2:ff:06:ac:30:5c:
        d6:83:19:db:34:af:b0:cb:09:bc:0e:5a:0e:18:f8:14:21:69:
        05:e5:30:5e:ec:46:d5:ce:bc:90:3b:6c:98:d2:fb:04:86:81:
        6b:3f:69:09:aa:20:2e:18:b3:76:da:e1:96:25:9d:46:42:06:
        c5:34:99:86:fa:a4:d5:98:9f:fd:bb:a0:2c:2a:46:6b:26:f8:
        d2:48:fc:e1:14:4b:cb:59:26:96:f0:ee:3f:8c:c6:c7:3f:f9:
        a9:d9:41:64
-----BEGIN CERTIFICATE-----
MIIDXDCCAkSgAwIBAgIQOX3RfbX+BoA9Agr4oIkwcTANBgkqhkiG9w0BAQsFADAW
MRQwEgYDVQQDDAt0ZWFtMzY2LW5ldDAeFw0yMzExMDQxMDQ3MTZaFw0yNjEwMTkx
MDQ3MTZaMBkxFzAVBgNVBAMMDnRlYW0zNjYtY2xpZW50MIIBIjANBgkqhkiG9w0B
AQEFAAOCAQ8AMIIBCgKCAQEAg+Axfz35hMwZqg9fVj6kuWcAGXwMuUwuZemWmJiH
kgesX8/XsPRl84yIchyi6LK8l+QQiCJ+vVB05FqbjakQhPiKhEG/tljXALBIkJo4
dYn2ByYCfew8UvsU+SBAn0L2NA8gTvU4BOwxAYAwV3MUrwZtqU/oWdh5GsHZ16KV
ecWHnV56gqbCt+4xLMRkUZ4P73f/kQMS/LkTAKKEm1mGEAmi6bmG9mPBTQmAIeXJ
+CmzMqnzTF8V6UPhfpOJABv668a/Cs00b1d/uvcNc+/J4mfkC4dYMVpMvSCRapPd
Nn3WQWAxkbxTmzaIFUdR7b86qm/WRkx5MBbVhTtWwOhhLwIDAQABo4GiMIGfMAkG
A1UdEwQCMAAwHQYDVR0OBBYEFF4TYBwqOlp2HrI4IqEDgZYiDh1xMFEGA1UdIwRK
MEiAFL58FKuFbaQMwNvwHQXcpfMBGPLWoRqkGDAWMRQwEgYDVQQDDAt0ZWFtMzY2
LW5ldIIUEWjCN8mUIiENa8G12VjzScF22IwwEwYDVR0lBAwwCgYIKwYBBQUHAwIw
CwYDVR0PBAQDAgeAMA0GCSqGSIb3DQEBCwUAA4IBAQCinWsmiM376pPzzvdAT5a5
f2wNTDsxgwyKEAi1WTv88aKYF1RcaLDcZk3ikk/68A3WsOQ/QlePMSuZaDyKXG2L
E4TZRlmAFhaXWwBeW5snXyrQkVM2ve6HoN3S2UXqjy4XNBbcIzq3c8WzD2BP/3Gg
R0Yr50afwtvIhORjr0W1xXfiIe+33Do4CqOrnzeE3EAphQlpnfNq7xw7GpDy/was
MFzWgxnbNK+wywm8DloOGPgUIWkF5TBe7EbVzryQO2yY0vsEhoFrP2kJqiAuGLN2
2uGWJZ1GQgbFNJmG+qTVmJ/9u6AsKkZrJvjSSPzhFEvLWSaW8O4/jMbHP/mp2UFk
-----END CERTIFICATE-----
