Certificate:
    Data:
        Version: 3 (0x2)
        Serial Number:
            a7:49:24:1d:80:7e:cc:f8:17:68:0f:ce:b1:44:9b:4c
        Signature Algorithm: sha256WithRSAEncryption
        Issuer: CN=team366-net
        Validity
            Not Before: Nov  4 10:47:17 2023 GMT
            Not After : Oct 19 10:47:17 2026 GMT
        Subject: CN=team366-server
        Subject Public Key Info:
            Public Key Algorithm: rsaEncryption
                Public-Key: (2048 bit)
                Modulus:
                    00:bc:73:0b:38:b7:44:7e:79:81:36:ae:04:cf:49:
                    d2:33:96:de:b2:c0:f8:5c:20:60:17:9b:67:d8:50:
                    e2:09:d0:00:52:27:01:73:c8:89:25:2f:31:d2:5b:
                    c1:a9:76:10:93:51:c6:06:7a:c3:17:a2:ac:8c:0b:
                    a8:68:b6:0b:80:4b:72:c7:2c:5d:e5:48:6b:21:df:
                    74:35:95:5e:db:3c:b6:a2:46:ad:fd:4b:cf:87:45:
                    76:35:40:0d:6a:d2:bd:bd:25:9e:53:ef:60:04:68:
                    93:37:9a:d4:a1:94:ec:c0:c0:22:be:c5:b2:65:f9:
                    ce:22:2e:c9:61:04:fc:8e:76:0f:10:55:ec:54:3a:
                    9a:b4:02:cf:67:15:a7:04:87:11:66:e2:ef:82:6c:
                    a8:4b:06:d7:bd:f2:a2:6e:48:03:01:c8:f2:73:dc:
                    2e:b4:8c:c2:3e:24:3c:81:66:b3:ee:e3:20:2a:ca:
                    a0:79:03:b3:83:8d:51:dc:fc:e1:e7:2e:77:20:b5:
                    1d:d7:28:8b:92:06:5c:0a:63:43:fa:59:74:ce:f3:
                    7b:19:b5:2b:ca:1c:7b:83:81:97:bc:f8:55:b3:d1:
                    56:c0:fe:ff:e0:91:77:98:13:e3:bf:b4:dc:3d:48:
                    7d:ab:99:4b:30:17:2e:37:7a:22:20:75:a6:c2:d2:
                    c1:1f
                Exponent: 65537 (0x10001)
        X509v3 extensions:
            X509v3 Basic Constraints: 
                CA:FALSE
            X509v3 Subject Key Identifier: 
                E4:E2:93:32:37:12:CE:6D:56:04:C9:B8:6E:CF:3F:E5:35:5F:46:BE
            X509v3 Authority Key Identifier: 
                keyid:BE:7C:14:AB:85:6D:A4:0C:C0:DB:F0:1D:05:DC:A5:F3:01:18:F2:D6
                DirName:/CN=team366-net
                serial:11:68:C2:37:C9:94:22:21:0D:6B:C1:B5:D9:58:F3:49:C1:76:D8:8C
            X509v3 Extended Key Usage: 
                TLS Web Server Authentication
            X509v3 Key Usage: 
                Digital Signature, Key Encipherment
            X509v3 Subject Alternative Name: 
                DNS:team366-server
    Signature Algorithm: sha256WithRSAEncryption
    Signature Value:
        51:1f:65:0c:da:6d:f1:89:e3:1c:71:77:49:ab:31:08:2b:3f:
        57:02:3c:75:c6:2a:ce:0e:da:08:ea:35:b8:a4:a6:f1:12:9f:
        64:c3:68:61:e0:ad:b8:2c:22:ff:d0:82:94:2d:1a:74:12:f9:
        39:0d:48:b2:c0:39:ff:a7:66:ae:60:2d:a8:d3:14:54:b3:58:
        0a:86:55:f2:f2:14:74:60:97:21:b8:fc:fd:9d:db:3f:61:ff:
        84:38:94:7a:cb:0d:b7:ce:bc:2f:f1:a7:1c:3b:80:2e:b1:4f:
        8e:ec:77:50:32:8a:5f:79:a4:c3:2c:60:42:b0:7d:d2:1e:90:
        13:27:5a:62:e4:73:d0:20:33:39:c9:53:d6:da:10:13:ee:2d:
        8e:1a:f6:f2:94:30:90:92:f7:7e:7a:16:15:e7:7d:ca:57:c7:
        41:58:ab:83:38:6a:18:9e:11:0d:ac:2d:20:41:3e:60:55:6d:
        50:d2:46:1e:9a:41:5d:74:d7:bb:a7:c5:2f:47:d0:9f:1c:98:
        ae:a4:aa:0e:16:41:6e:d8:e1:50:1a:4b:41:26:20:fa:c4:fb:
        42:c3:6d:09:81:97:f3:a4:b6:78:06:da:5e:92:a0:06:07:f7:
        15:32:1d:71:d4:69:28:22:db:e4:88:6a:59:ff:d5:f0:eb:cc:
        d5:d8:fe:99
-----BEGIN CERTIFICATE-----
MIIDeDCCAmCgAwIBAgIRAKdJJB2Afsz4F2gPzrFEm0wwDQYJKoZIhvcNAQELBQAw
FjEUMBIGA1UEAwwLdGVhbTM2Ni1uZXQwHhcNMjMxMTA0MTA0NzE3WhcNMjYxMDE5
MTA0NzE3WjAZMRcwFQYDVQQDDA50ZWFtMzY2LXNlcnZlcjCCASIwDQYJKoZIhvcN
AQEBBQADggEPADCCAQoCggEBALxzCzi3RH55gTauBM9J0jOW3rLA+FwgYBebZ9hQ
4gnQAFInAXPIiSUvMdJbwal2EJNRxgZ6wxeirIwLqGi2C4BLcscsXeVIayHfdDWV
Xts8tqJGrf1Lz4dFdjVADWrSvb0lnlPvYARokzea1KGU7MDAIr7FsmX5ziIuyWEE
/I52DxBV7FQ6mrQCz2cVpwSHEWbi74JsqEsG173yom5IAwHI8nPcLrSMwj4kPIFm
s+7jICrKoHkDs4ONUdz84ecudyC1Hdcoi5IGXApjQ/pZdM7zexm1K8oce4OBl7z4
VbPRVsD+/+CRd5gT47+03D1IfauZSzAXLjd6IiB1psLSwR8CAwEAAaOBvTCBujAJ
BgNVHRMEAjAAMB0GA1UdDgQWBBTk4pMyNxLObVYEybhuzz/lNV9GvjBRBgNVHSME
SjBIgBS+fBSrhW2kDMDb8B0F3KXzARjy1qEapBgwFjEUMBIGA1UEAwwLdGVhbTM2
Ni1uZXSCFBFowjfJlCIhDWvBtdlY80nBdtiMMBMGA1UdJQQMMAoGCCsGAQUFBwMB
MAsGA1UdDwQEAwIFoDAZBgNVHREEEjAQgg50ZWFtMzY2LXNlcnZlcjANBgkqhkiG
9w0BAQsFAAOCAQEAUR9lDNpt8YnjHHF3SasxCCs/VwI8dcYqzg7aCOo1uKSm8RKf
ZMNoYeCtuCwi/9CClC0adBL5OQ1IssA5/6dmrmAtqNMUVLNYCoZV8vIUdGCXIbj8
/Z3bP2H/hDiUessNt868L/GnHDuALrFPjux3UDKKX3mkwyxgQrB90h6QEydaYuRz
0CAzOclT1toQE+4tjhr28pQwkJL3fnoWFed9ylfHQVirgzhqGJ4RDawtIEE+YFVt
UNJGHppBXXTXu6fFL0fQnxyYrqSqDhZBbtjhUBpLQSYg+sT7QsNtCYGX86S2eAba
XpKgBgf3FTIdcdRpKCLb5IhqWf/V8OvM1dj+mQ==
-----END CERTIFICATE-----
