Certificate:
    Data:
        Version: 3 (0x2)
        Serial Number:
            0a:63:9a:05:3b:c8:00:e9:ba:50:61:16:29:3a:b3:b1
        Signature Algorithm: sha256WithRSAEncryption
        Issuer: CN=team249-net
        Validity
            Not Before: Nov  4 10:45:19 2023 GMT
            Not After : Oct 19 10:45:19 2026 GMT
        Subject: CN=team249-client
        Subject Public Key Info:
            Public Key Algorithm: rsaEncryption
                Public-Key: (2048 bit)
                Modulus:
                    00:93:45:49:78:2a:3a:f0:ee:66:97:50:9b:d4:1e:
                    b7:f8:7d:51:f2:05:fc:5c:31:d8:9e:c5:74:6b:19:
                    da:f9:34:3f:7e:ad:4e:db:e1:ad:19:0e:ae:74:03:
                    f4:cd:da:c3:9c:cd:47:ea:27:65:a7:25:83:98:92:
                    cc:af:9e:8a:f0:8a:3c:be:bb:d8:2b:2a:1d:00:37:
                    c6:7f:9a:d3:b2:cb:b8:a7:08:69:14:87:e6:32:00:
                    08:d3:b8:51:06:07:43:52:37:7b:ba:17:28:73:74:
                    8b:3e:6f:a7:99:51:6d:f0:41:ce:9a:ed:69:0a:37:
                    e3:12:12:70:00:24:b8:a4:a1:c9:e0:72:60:11:05:
                    ed:32:67:59:43:22:d4:37:09:c0:e1:75:c5:36:64:
                    05:ec:67:89:1d:9e:e4:fd:a2:ac:1b:32:0d:a4:e1:
                    9a:39:7f:99:48:ca:6d:14:f5:b1:d1:e6:98:74:0c:
                    72:95:c2:15:36:d5:dd:26:c7:24:bf:6c:6f:f1:38:
                    47:a7:83:28:3a:d4:38:45:10:3d:b9:26:83:a9:54:
                    da:d7:8e:b0:17:2f:80:53:03:3a:cf:a7:4a:86:49:
                    d3:68:f8:29:63:05:52:d8:47:71:d2:de:7a:b8:cd:
                    96:a7:f0:67:32:15:37:59:94:0f:5a:c3:1f:a0:58:
                    47:77
                Exponent: 65537 (0x10001)
        X509v3 extensions:
            X509v3 Basic Constraints: 
                CA:FALSE
            X509v3 Subject Key Identifier: 
                1F:46:DB:33:03:D8:E6:C3:F8:EC:39:83:77:BC:EE:3D:D6:D7:C4:85
            X509v3 Authority Key Identifier: 
                keyid:CF:27:AD:2C:B7:FA:56:C8:C9:8A:E4:77:E4:4C:18:F0:0C:25:B8:D7
                DirName:/CN=team249-net
                serial:7F:87:DE:8C:66:12:50:2A:50:11:F4:12:D4:7E:33:44:AF:7A:3E:9A
            X509v3 Extended Key Usage: 
                TLS Web Client Authentication
            X509v3 Key Usage: 
                Digital Signature
    Signature Algorithm: sha256WithRSAEncryption
    Signature Value:
        c7:4e:17:dc:97:12:36:33:e4:18:7e:7b:bc:ef:85:f0:41:48:
        8a:87:f8:dc:1f:ee:87:9d:7d:46:cd:50:bc:07:9b:9b:0a:ed:
        a0:e8:5d:7a:7e:f9:76:03:1e:d5:47:1d:a4:95:ee:51:6d:47:
        bb:d3:de:e5:f8:6b:ef:71:79:02:10:e5:00:9d:7d:c6:33:8c:
        48:d7:50:85:70:56:6f:e2:63:41:d5:45:48:0d:cb:78:c6:0b:
        57:7d:0c:87:5a:ad:cf:a1:de:2c:13:68:54:87:3d:00:06:c3:
        48:3b:d9:f0:43:5d:bc:5e:34:98:3d:4a:4b:4e:83:fd:1b:88:
        ca:05:ce:e8:c4:3a:34:7c:48:36:18:37:f8:ac:97:6a:9d:87:
        85:cb:c2:fd:c4:fe:d3:3e:79:d1:37:ed:0d:ef:fb:a3:af:e4:
        05:cb:f2:fa:2a:7e:e8:59:16:62:d1:41:b4:b6:81:23:6f:9a:
        38:32:78:41:78:80:40:e9:83:ef:ea:ca:84:91:e9:42:8a:38:
        c3:bc:50:d5:cc:de:2b:ed:10:87:6e:c2:7a:de:ef:3f:f7:12:
        a4:8f:aa:d2:dc:5e:85:6e:6d:19:d1:f5:48:cc:df:3c:5e:b8:
        3c:ea:ab:77:cc:e0:8b:42:0f:f3:af:69:a3:30:33:e7:79:d6:
        e8:53:75:4f
-----BEGIN CERTIFICATE-----
MIIDXDCCAkSgAwIBAgIQCmOaBTvIAOm6UGEWKTqzsTANBgkqhkiG9w0BAQsFADAW
MRQwEgYDVQQDDAt0ZWFtMjQ5LW5ldDAeFw0yMzExMDQxMDQ1MTlaFw0yNjEwMTkx
MDQ1MTlaMBkxFzAVBgNVBAMMDnRlYW0yNDktY2xpZW50MIIBIjANBgkqhkiG9w0B
AQEFAAOCAQ8AMIIBCgKCAQEAk0VJeCo68O5ml1Cb1B63+H1R8gX8XDHYnsV0axna
+TQ/fq1O2+GtGQ6udAP0zdrDnM1H6idlpyWDmJLMr56K8Io8vrvYKyodADfGf5rT
ssu4pwhpFIfmMgAI07hRBgdDUjd7uhcoc3SLPm+nmVFt8EHOmu1pCjfjEhJwACS4
pKHJ4HJgEQXtMmdZQyLUNwnA4XXFNmQF7GeJHZ7k/aKsGzINpOGaOX+ZSMptFPWx
0eaYdAxylcIVNtXdJsckv2xv8ThHp4MoOtQ4RRA9uSaDqVTa146wFy+AUwM6z6dK
hknTaPgpYwVS2Edx0t56uM2Wp/BnMhU3WZQPWsMfoFhHdwIDAQABo4GiMIGfMAkG
A1UdEwQCMAAwHQYDVR0OBBYEFB9G2zMD2ObD+Ow5g3e87j3W18SFMFEGA1UdIwRK
MEiAFM8nrSy3+lbIyYrkd+RMGPAMJbjXoRqkGDAWMRQwEgYDVQQDDAt0ZWFtMjQ5
LW5ldIIUf4fejGYSUCpQEfQS1H4zRK96PpowEwYDVR0lBAwwCgYIKwYBBQUHAwIw
CwYDVR0PBAQDAgeAMA0GCSqGSIb3DQEBCwUAA4IBAQDHThfclxI2M+QYfnu874Xw
QUiKh/jcH+6HnX1GzVC8B5ubCu2g6F16fvl2Ax7VRx2kle5RbUe7097l+GvvcXkC
EOUAnX3GM4xI11CFcFZv4mNB1UVIDct4xgtXfQyHWq3Pod4sE2hUhz0ABsNIO9nw
Q128XjSYPUpLToP9G4jKBc7oxDo0fEg2GDf4rJdqnYeFy8L9xP7TPnnRN+0N7/uj
r+QFy/L6Kn7oWRZi0UG0toEjb5o4MnhBeIBA6YPv6sqEkelCijjDvFDVzN4r7RCH
bsJ63u8/9xKkj6rS3F6Fbm0Z0fVIzN88Xrg86qt3zOCLQg/zr2mjMDPnedboU3VP
-----END CERTIFICATE-----
