Certificate:
    Data:
        Version: 3 (0x2)
        Serial Number:
            48:c3:99:a5:aa:28:5a:80:9c:1c:76:15:a9:8f:6b:61
        Signature Algorithm: sha256WithRSAEncryption
        Issuer: CN=team249-net
        Validity
            Not Before: Nov  4 10:45:19 2023 GMT
            Not After : Oct 19 10:45:19 2026 GMT
        Subject: CN=team249-server
        Subject Public Key Info:
            Public Key Algorithm: rsaEncryption
                Public-Key: (2048 bit)
                Modulus:
                    00:b6:81:cb:a3:b1:29:50:af:4d:25:a0:cc:14:15:
                    02:ad:c9:bd:8a:10:3c:ec:da:47:25:61:54:98:e2:
                    d6:ef:e4:90:18:16:d6:9d:69:02:0a:6d:34:db:91:
                    37:e9:fd:ef:62:9d:f7:cf:9c:8f:23:8d:97:96:11:
                    23:62:3d:8d:b6:81:29:e8:1f:ea:31:66:42:35:42:
                    03:8d:21:a5:d5:50:ee:45:5f:17:7c:0d:b5:3d:9f:
                    d6:6d:74:90:70:fd:fd:07:95:f5:86:63:aa:32:aa:
                    7c:06:ac:14:41:c9:16:25:d8:3d:28:0f:3a:74:df:
                    7b:52:02:93:af:d8:3b:99:31:72:f8:05:9b:29:a7:
                    2a:d9:1f:34:8d:3a:fb:97:b0:58:8f:9d:c2:25:d2:
                    9d:5c:89:87:d0:74:81:0e:ef:6d:79:cd:6d:96:41:
                    54:37:fa:eb:f5:0c:f8:7d:40:1c:23:78:1c:4f:8b:
                    49:a8:3a:e3:42:df:04:ee:01:4f:38:a3:c9:ec:ef:
                    02:e1:35:e0:8c:2e:83:f1:81:30:5b:03:aa:45:a5:
                    c8:b0:09:aa:f6:8d:0b:06:58:39:bd:3c:88:92:b3:
                    0c:36:50:aa:3f:60:d6:a3:65:9b:e5:9a:d9:1c:15:
                    f3:c2:52:a9:92:f2:3b:bb:0f:cc:2b:5a:f2:ec:26:
                    ac:f1
                Exponent: 65537 (0x10001)
        X509v3 extensions:
            X509v3 Basic Constraints: 
                CA:FALSE
            X509v3 Subject Key Identifier: 
                51:C6:44:C6:09:69:DC:C9:A8:5D:D3:73:36:37:FD:A6:81:F1:64:18
            X509v3 Authority Key Identifier: 
                keyid:CF:27:AD:2C:B7:FA:56:C8:C9:8A:E4:77:E4:4C:18:F0:0C:25:B8:D7
                DirName:/CN=team249-net
                serial:7F:87:DE:8C:66:12:50:2A:50:11:F4:12:D4:7E:33:44:AF:7A:3E:9A
            X509v3 Extended Key Usage: 
                TLS Web Server Authentication
            X509v3 Key Usage: 
                Digital Signature, Key Encipherment
            X509v3 Subject Alternative Name: 
                DNS:team249-server
    Signature Algorithm: sha256WithRSAEncryption
    Signature Value:
        c3:37:aa:69:df:c8:09:b6:f4:95:04:41:fd:64:62:bb:41:0a:
        b6:8e:d1:8d:10:34:e2:a7:2f:ad:87:ff:0a:e8:6d:70:72:53:
        99:0b:39:11:08:c7:16:bb:e0:4e:a1:11:4d:47:07:71:cd:ef:
        83:4b:f2:83:13:01:74:d1:84:af:4d:c3:b1:5f:ae:b6:11:1e:
        07:70:f9:ea:2b:c7:f8:20:8d:74:1e:ba:28:38:e1:8e:86:e1:
        cf:dd:7a:be:e3:c9:62:c6:8a:f4:38:6b:b2:86:ae:4a:a3:20:
        ec:15:1a:84:6d:30:6e:24:3b:59:e5:b9:49:12:82:2e:96:d1:
        14:da:6e:f0:79:9f:68:9b:59:25:4d:33:99:ff:a9:92:ba:2c:
        1f:fa:35:d1:44:1d:6f:7b:0e:aa:46:96:1d:77:44:a8:80:54:
        90:e7:2d:8d:9d:bd:80:6d:72:68:f0:2c:5f:e5:ae:56:4f:1f:
        ef:c7:53:20:c2:16:f9:d1:2a:99:2a:e0:22:98:0f:d2:20:fb:
        82:2d:9b:b9:7e:c7:fe:0d:74:b9:36:3e:ad:90:3f:e1:c5:a9:
        4d:21:d6:a7:f4:b8:da:f7:72:fd:7d:d2:6b:e4:5f:a5:aa:5f:
        ef:00:6b:66:2a:c3:b8:a2:1a:45:c1:d7:6f:e3:07:e4:8c:63:
        6a:fc:bd:a3
-----BEGIN CERTIFICATE-----
MIIDdzCCAl+gAwIBAgIQSMOZpaooWoCcHHYVqY9rYTANBgkqhkiG9w0BAQsFADAW
MRQwEgYDVQQDDAt0ZWFtMjQ5LW5ldDAeFw0yMzExMDQxMDQ1MTlaFw0yNjEwMTkx
MDQ1MTlaMBkxFzAVBgNVBAMMDnRlYW0yNDktc2VydmVyMIIBIjANBgkqhkiG9w0B
AQEFAAOCAQ8AMIIBCgKCAQEAtoHLo7EpUK9NJaDMFBUCrcm9ihA87NpHJWFUmOLW
7+SQGBbWnWkCCm0025E36f3vYp33z5yPI42XlhEjYj2NtoEp6B/qMWZCNUIDjSGl
1VDuRV8XfA21PZ/WbXSQcP39B5X1hmOqMqp8BqwUQckWJdg9KA86dN97UgKTr9g7
mTFy+AWbKacq2R80jTr7l7BYj53CJdKdXImH0HSBDu9tec1tlkFUN/rr9Qz4fUAc
I3gcT4tJqDrjQt8E7gFPOKPJ7O8C4TXgjC6D8YEwWwOqRaXIsAmq9o0LBlg5vTyI
krMMNlCqP2DWo2Wb5ZrZHBXzwlKpkvI7uw/MK1ry7Cas8QIDAQABo4G9MIG6MAkG
A1UdEwQCMAAwHQYDVR0OBBYEFFHGRMYJadzJqF3TczY3/aaB8WQYMFEGA1UdIwRK
MEiAFM8nrSy3+lbIyYrkd+RMGPAMJbjXoRqkGDAWMRQwEgYDVQQDDAt0ZWFtMjQ5
LW5ldIIUf4fejGYSUCpQEfQS1H4zRK96PpowEwYDVR0lBAwwCgYIKwYBBQUHAwEw
CwYDVR0PBAQDAgWgMBkGA1UdEQQSMBCCDnRlYW0yNDktc2VydmVyMA0GCSqGSIb3
DQEBCwUAA4IBAQDDN6pp38gJtvSVBEH9ZGK7QQq2jtGNEDTipy+th/8K6G1wclOZ
CzkRCMcWu+BOoRFNRwdxze+DS/KDEwF00YSvTcOxX662ER4HcPnqK8f4II10Hroo
OOGOhuHP3Xq+48lixor0OGuyhq5KoyDsFRqEbTBuJDtZ5blJEoIultEU2m7weZ9o
m1klTTOZ/6mSuiwf+jXRRB1vew6qRpYdd0SogFSQ5y2Nnb2AbXJo8Cxf5a5WTx/v
x1Mgwhb50SqZKuAimA/SIPuCLZu5fsf+DXS5Nj6tkD/hxalNIdan9Lja93L9fdJr
5F+lql/vAGtmKsO4ohpFwddv4wfkjGNq/L2j
-----END CERTIFICATE-----
