Certificate:
    Data:
        Version: 3 (0x2)
        Serial Number:
            8b:ee:b4:98:b7:73:d3:81:a7:2d:2c:c9:4d:79:9c:9b
        Signature Algorithm: sha256WithRSAEncryption
        Issuer: CN=team249-net
        Validity
            Not Before: Nov  4 11:32:32 2023 GMT
            Not After : Oct 19 11:32:32 2026 GMT
        Subject: CN=team249-server
        Subject Public Key Info:
            Public Key Algorithm: rsaEncryption
                Public-Key: (2048 bit)
                Modulus:
                    00:a5:b1:21:12:d2:27:50:04:f8:7e:35:e7:a9:7e:
                    4c:b0:6a:78:31:7f:8a:21:41:06:5f:4a:f2:1d:5f:
                    98:a3:b8:36:f0:5d:f4:3b:e4:6b:8e:39:0f:3e:7d:
                    b5:ec:12:1c:10:cf:db:ea:10:8f:ca:cf:b5:97:ac:
                    f5:3a:82:7f:7c:27:6d:98:e9:23:04:6e:a7:a7:8b:
                    f7:99:35:eb:1f:b9:8c:29:c5:7c:1c:bf:ed:a7:f4:
                    48:ba:cf:9e:55:31:c5:a9:3b:32:50:9f:59:90:47:
                    c5:b5:e4:e5:a7:48:9c:69:74:52:2f:d7:fb:70:fc:
                    5b:13:54:54:a9:a8:f0:80:d1:53:cf:65:16:5a:23:
                    fd:5f:9b:e7:5b:d1:3a:89:71:e0:be:59:22:ed:03:
                    a0:e4:4b:1c:56:2a:de:05:5d:be:0d:50:58:d3:17:
                    9e:f4:16:58:73:2d:f7:68:46:e0:48:5a:7b:29:07:
                    0f:05:d1:3f:af:9b:61:7c:67:8d:d3:74:67:ae:8b:
                    75:52:08:a1:d4:6a:84:2d:57:e7:0e:fd:38:6c:27:
                    ab:38:69:fd:28:89:da:e3:24:4b:83:c3:3b:20:aa:
                    a1:91:9a:9b:f0:48:fe:b2:fb:96:49:08:72:21:4e:
                    ce:cc:bd:29:4f:85:d6:40:93:1a:7b:29:17:e0:5a:
                    24:d3
                Exponent: 65537 (0x10001)
        X509v3 extensions:
            X509v3 Basic Constraints: 
                CA:FALSE
            X509v3 Subject Key Identifier: 
                DA:FF:63:C6:D4:D5:47:97:2D:71:09:70:38:FC:E6:CA:6E:55:D6:E0
            X509v3 Authority Key Identifier: 
                keyid:18:87:4B:E4:9A:3F:54:E3:B2:F3:47:F5:A5:1C:09:1A:BB:1D:E8:53
                DirName:/CN=team249-net
                serial:0C:2E:AF:74:31:F7:CD:8D:00:81:96:00:3B:7A:A1:70:46:C4:79:95
            X509v3 Extended Key Usage: 
                TLS Web Server Authentication
            X509v3 Key Usage: 
                Digital Signature, Key Encipherment
            X509v3 Subject Alternative Name: 
                DNS:team249-server
    Signature Algorithm: sha256WithRSAEncryption
    Signature Value:
        1b:59:f5:0d:54:1c:1c:93:6c:3b:78:c3:f6:c0:f5:4d:94:27:
        82:b8:b0:bb:6a:d8:95:e2:9c:f6:87:ac:9c:82:98:dd:f3:fc:
        ac:ef:7e:9f:41:b0:91:0f:b8:9f:f6:66:42:82:08:04:a6:8b:
        aa:fc:0d:a1:09:96:ba:07:f7:24:02:bb:81:3b:ef:55:22:f7:
        31:bc:82:7e:aa:75:2b:1d:0b:ee:5f:45:4e:ad:7b:6b:db:74:
        4d:3a:77:7d:7b:e9:13:6f:c4:69:8f:c4:a5:67:74:d0:ac:3c:
        7d:43:fb:bd:b1:25:d9:56:06:9a:b0:a8:66:20:97:c4:79:3f:
        ec:39:3e:94:3e:58:5f:27:8e:0a:c7:ed:ce:e5:f9:66:3d:45:
        b0:d6:9c:1e:8f:39:40:98:28:a6:0a:7d:59:aa:ec:e7:92:9f:
        34:be:9d:6f:43:9e:68:5e:eb:2e:72:26:de:ae:76:f8:01:98:
        aa:6b:2e:0b:44:2c:50:d7:f9:4b:19:7b:4f:8b:82:5e:c7:53:
        7c:39:25:9d:fe:16:8f:ff:2b:0b:a0:fe:ee:75:64:61:83:f6:
        c4:d5:6b:e0:0d:b7:0a:4b:5c:a5:36:41:4b:0e:3f:fa:54:8f:
        36:65:3f:7c:4f:bb:0b:63:cd:25:c8:74:9b:39:30:08:82:d8:
        c4:f0:54:53
-----BEGIN CERTIFICATE-----
MIIDeDCCAmCgAwIBAgIRAIvutJi3c9OBpy0syU15nJswDQYJKoZIhvcNAQELBQAw
FjEUMBIGA1UEAwwLdGVhbTI0OS1uZXQwHhcNMjMxMTA0MTEzMjMyWhcNMjYxMDE5
MTEzMjMyWjAZMRcwFQYDVQQDDA50ZWFtMjQ5LXNlcnZlcjCCASIwDQYJKoZIhvcN
AQEBBQADggEPADCCAQoCggEBAKWxIRLSJ1AE+H4156l+TLBqeDF/iiFBBl9K8h1f
mKO4NvBd9Dvka445Dz59tewSHBDP2+oQj8rPtZes9TqCf3wnbZjpIwRup6eL95k1
6x+5jCnFfBy/7af0SLrPnlUxxak7MlCfWZBHxbXk5adInGl0Ui/X+3D8WxNUVKmo
8IDRU89lFloj/V+b51vROolx4L5ZIu0DoORLHFYq3gVdvg1QWNMXnvQWWHMt92hG
4EhaeykHDwXRP6+bYXxnjdN0Z66LdVIIodRqhC1X5w79OGwnqzhp/SiJ2uMkS4PD
OyCqoZGam/BI/rL7lkkIciFOzsy9KU+F1kCTGnspF+BaJNMCAwEAAaOBvTCBujAJ
BgNVHRMEAjAAMB0GA1UdDgQWBBTa/2PG1NVHly1xCXA4/ObKblXW4DBRBgNVHSME
SjBIgBQYh0vkmj9U47LzR/WlHAkaux3oU6EapBgwFjEUMBIGA1UEAwwLdGVhbTI0
OS1uZXSCFAwur3Qx982NAIGWADt6oXBGxHmVMBMGA1UdJQQMMAoGCCsGAQUFBwMB
MAsGA1UdDwQEAwIFoDAZBgNVHREEEjAQgg50ZWFtMjQ5LXNlcnZlcjANBgkqhkiG
9w0BAQsFAAOCAQEAG1n1DVQcHJNsO3jD9sD1TZQngriwu2rYleKc9oesnIKY3fP8
rO9+n0GwkQ+4n/ZmQoIIBKaLqvwNoQmWugf3JAK7gTvvVSL3MbyCfqp1Kx0L7l9F
Tq17a9t0TTp3fXvpE2/EaY/EpWd00Kw8fUP7vbEl2VYGmrCoZiCXxHk/7Dk+lD5Y
XyeOCsftzuX5Zj1FsNacHo85QJgopgp9Wars55KfNL6db0OeaF7rLnIm3q52+AGY
qmsuC0QsUNf5Sxl7T4uCXsdTfDklnf4Wj/8rC6D+7nVkYYP2xNVr4A23CktcpTZB
Sw4/+lSPNmU/fE+7C2PNJch0mzkwCILYxPBUUw==
-----END CERTIFICATE-----
