Certificate:
    Data:
        Version: 3 (0x2)
        Serial Number:
            bf:5c:5a:1a:6f:2d:50:af:9e:92:ff:02:6c:9b:7b:2f
        Signature Algorithm: sha256WithRSAEncryption
        Issuer: CN=team249-net
        Validity
            Not Before: Nov  3 20:43:51 2023 GMT
            Not After : Oct 18 20:43:51 2026 GMT
        Subject: CN=team249-server
        Subject Public Key Info:
            Public Key Algorithm: rsaEncryption
                Public-Key: (2048 bit)
                Modulus:
                    00:b7:89:7d:bc:fc:ae:7e:9d:63:fe:72:51:ac:75:
                    16:56:92:ba:6f:4d:a7:5b:9d:64:7f:b7:dd:78:c0:
                    37:04:cd:dc:78:6f:3b:3e:f7:d5:ea:d7:a6:b6:bb:
                    bf:84:f7:bb:89:36:ab:dc:8b:e3:d0:ee:ef:0f:b4:
                    e2:cc:70:b0:71:4e:0a:d8:6b:fb:11:2d:6f:b0:4b:
                    3d:81:46:bf:f6:eb:ff:51:fb:75:4f:5f:38:cc:7b:
                    8c:4d:2a:2f:3d:11:db:1d:0d:f6:cd:04:0d:ee:71:
                    c8:e7:73:a0:a4:61:b6:d9:cf:fe:8e:23:b1:0e:75:
                    66:89:83:09:2d:66:86:24:62:fe:c6:ff:46:d2:b3:
                    02:77:a9:74:35:f8:49:ac:30:71:b3:96:96:2a:80:
                    ab:d8:f1:5c:5e:09:cf:1c:e9:94:4d:87:9c:b2:cc:
                    e5:f1:05:57:c7:f8:a6:d2:e8:97:33:2a:71:6e:5b:
                    6c:90:09:e7:48:77:7a:3b:9a:eb:4a:d0:fd:e4:b3:
                    30:f3:f2:d8:b0:0d:0b:c4:f2:dd:0a:69:a1:6a:c1:
                    72:3b:a8:56:9d:1b:24:d2:a4:ae:4d:f7:b7:ec:21:
                    50:8d:e0:4e:79:41:96:a6:29:d0:b0:bc:b4:42:99:
                    40:a1:71:14:fb:07:5a:43:4d:1c:fd:88:d8:8a:36:
                    0c:35
                Exponent: 65537 (0x10001)
        X509v3 extensions:
            X509v3 Basic Constraints: 
                CA:FALSE
            X509v3 Subject Key Identifier: 
                AF:B1:27:62:8C:B9:9C:F8:9A:84:4A:FB:52:A6:9D:1E:A0:75:F2:D6
            X509v3 Authority Key Identifier: 
                keyid:53:C0:1A:A0:73:64:46:EC:A5:1E:FC:0F:BA:B4:C8:A5:EC:1A:76:35
                DirName:/CN=team249-net
                serial:4C:41:D1:B5:EF:8F:27:1E:28:33:FC:EA:11:3B:A7:58:EB:74:97:83
            X509v3 Extended Key Usage: 
                TLS Web Server Authentication
            X509v3 Key Usage: 
                Digital Signature, Key Encipherment
            X509v3 Subject Alternative Name: 
                DNS:team249-server
    Signature Algorithm: sha256WithRSAEncryption
    Signature Value:
        00:33:59:47:16:8e:73:f7:7d:e8:11:f7:11:a5:bf:bf:e9:57:
        43:e3:65:44:98:83:e1:ad:5d:b6:9b:45:a9:99:9e:dc:c0:d3:
        d7:74:1d:1d:82:25:1c:0d:03:99:24:bd:72:72:ce:72:ed:43:
        69:03:25:7b:00:0f:b2:a0:75:05:8c:5d:cd:f4:10:51:2f:6f:
        c5:67:7a:5e:54:be:8f:8d:82:c9:42:9f:0e:d7:e4:5e:19:a3:
        d6:b1:b0:1b:43:18:03:b6:08:75:62:44:bc:69:12:d3:9c:8e:
        7f:ef:21:27:72:78:53:17:03:36:58:f6:db:8b:d5:e6:30:c2:
        c8:20:0e:84:c0:18:11:62:44:35:ee:1a:6f:16:c6:66:da:10:
        d8:b7:fd:f7:df:67:77:05:a6:62:64:4d:76:44:c2:d6:9f:ba:
        b2:d4:ad:9c:13:26:22:13:fb:7c:21:8a:0d:cd:d6:9e:cd:f4:
        80:c4:26:9a:2e:be:78:91:ee:33:a3:ba:33:10:4b:78:49:e4:
        09:6b:48:52:e9:3f:dc:bb:d9:90:f5:77:70:21:09:60:42:7e:
        b5:a3:7f:bb:d3:aa:d4:02:46:ef:81:34:1c:0a:f2:c6:50:c7:
        a0:5f:11:19:38:ea:4d:39:55:cd:a9:bd:3b:0d:98:12:f9:85:
        90:07:91:c0
-----BEGIN CERTIFICATE-----
MIIDeDCCAmCgAwIBAgIRAL9cWhpvLVCvnpL/Amybey8wDQYJKoZIhvcNAQELBQAw
FjEUMBIGA1UEAwwLdGVhbTI0OS1uZXQwHhcNMjMxMTAzMjA0MzUxWhcNMjYxMDE4
MjA0MzUxWjAZMRcwFQYDVQQDDA50ZWFtMjQ5LXNlcnZlcjCCASIwDQYJKoZIhvcN
AQEBBQADggEPADCCAQoCggEBALeJfbz8rn6dY/5yUax1FlaSum9Np1udZH+33XjA
NwTN3HhvOz731erXpra7v4T3u4k2q9yL49Du7w+04sxwsHFOCthr+xEtb7BLPYFG
v/br/1H7dU9fOMx7jE0qLz0R2x0N9s0EDe5xyOdzoKRhttnP/o4jsQ51ZomDCS1m
hiRi/sb/RtKzAnepdDX4SawwcbOWliqAq9jxXF4JzxzplE2HnLLM5fEFV8f4ptLo
lzMqcW5bbJAJ50h3ejua60rQ/eSzMPPy2LANC8Ty3QppoWrBcjuoVp0bJNKkrk33
t+whUI3gTnlBlqYp0LC8tEKZQKFxFPsHWkNNHP2I2Io2DDUCAwEAAaOBvTCBujAJ
BgNVHRMEAjAAMB0GA1UdDgQWBBSvsSdijLmc+JqESvtSpp0eoHXy1jBRBgNVHSME
SjBIgBRTwBqgc2RG7KUe/A+6tMil7Bp2NaEapBgwFjEUMBIGA1UEAwwLdGVhbTI0
OS1uZXSCFExB0bXvjyceKDP86hE7p1jrdJeDMBMGA1UdJQQMMAoGCCsGAQUFBwMB
MAsGA1UdDwQEAwIFoDAZBgNVHREEEjAQgg50ZWFtMjQ5LXNlcnZlcjANBgkqhkiG
9w0BAQsFAAOCAQEAADNZRxaOc/d96BH3EaW/v+lXQ+NlRJiD4a1dtptFqZme3MDT
13QdHYIlHA0DmSS9cnLOcu1DaQMlewAPsqB1BYxdzfQQUS9vxWd6XlS+j42CyUKf
DtfkXhmj1rGwG0MYA7YIdWJEvGkS05yOf+8hJ3J4UxcDNlj224vV5jDCyCAOhMAY
EWJENe4abxbGZtoQ2Lf9999ndwWmYmRNdkTC1p+6stStnBMmIhP7fCGKDc3Wns30
gMQmmi6+eJHuM6O6MxBLeEnkCWtIUuk/3LvZkPV3cCEJYEJ+taN/u9Oq1AJG74E0
HAryxlDHoF8RGTjqTTlVzam9Ow2YEvmFkAeRwA==
-----END CERTIFICATE-----
