Certificate:
    Data:
        Version: 3 (0x2)
        Serial Number:
            3f:39:7d:77:13:a6:3b:c6:8c:00:7b:3e:8d:1b:a3:d4
        Signature Algorithm: sha256WithRSAEncryption
        Issuer: CN=team310-net
        Validity
            Not Before: Nov  4 11:34:14 2023 GMT
            Not After : Oct 19 11:34:14 2026 GMT
        Subject: CN=team310-server
        Subject Public Key Info:
            Public Key Algorithm: rsaEncryption
                Public-Key: (2048 bit)
                Modulus:
                    00:c1:c6:35:9e:63:96:54:ae:ea:5e:34:04:6d:98:
                    a3:df:c0:fb:70:68:58:1c:6b:48:40:32:1c:7a:c8:
                    de:5c:e9:5e:87:1e:42:8b:e3:01:e2:ab:31:ee:c6:
                    39:42:8e:d2:b3:87:55:b2:d1:fb:dd:d9:7d:7a:5e:
                    2c:71:69:91:d8:24:15:04:80:61:26:cd:4a:c2:b4:
                    24:34:25:7a:8c:55:12:34:1e:35:08:7f:d9:ea:7d:
                    b5:41:38:20:ba:4b:af:d1:9a:9d:1c:2e:17:99:b6:
                    45:d5:fa:11:83:4f:32:8f:5a:d7:72:48:c4:bf:43:
                    a1:42:9a:8c:f2:de:d3:e7:e0:41:0e:ed:26:4e:7b:
                    a9:da:49:1e:43:56:52:67:a7:6d:41:99:5e:7c:22:
                    73:41:16:12:db:26:cb:22:9b:d9:52:d8:ab:14:0c:
                    14:54:77:19:d6:50:a6:7e:1b:06:45:82:82:4c:14:
                    b0:d6:f4:18:45:d1:69:7c:71:20:21:33:15:c6:30:
                    4a:56:52:bc:bd:f2:96:db:2d:52:89:d5:78:b2:14:
                    0a:19:8b:fc:81:14:b0:14:c1:da:11:a2:21:2b:3e:
                    6c:9f:33:27:d8:79:88:76:dd:ff:c6:71:26:a4:fe:
                    c3:95:96:9c:18:1a:59:db:bb:be:77:cd:5e:f9:67:
                    a7:5f
                Exponent: 65537 (0x10001)
        X509v3 extensions:
            X509v3 Basic Constraints: 
                CA:FALSE
            X509v3 Subject Key Identifier: 
                8F:FB:63:EE:D7:12:75:B8:32:34:3D:B3:18:90:50:75:33:53:0F:96
            X509v3 Authority Key Identifier: 
                keyid:24:CE:E9:83:E5:C7:B8:C8:EE:4A:0C:E8:69:F6:91:1D:A9:91:21:0B
                DirName:/CN=team310-net
                serial:74:FE:5A:93:41:B0:37:6F:64:A5:6A:81:A3:83:9A:3A:17:C1:60:27
            X509v3 Extended Key Usage: 
                TLS Web Server Authentication
            X509v3 Key Usage: 
                Digital Signature, Key Encipherment
            X509v3 Subject Alternative Name: 
                DNS:team310-server
    Signature Algorithm: sha256WithRSAEncryption
    Signature Value:
        9a:6d:00:6b:b9:0e:5f:54:06:67:72:88:67:89:22:a7:eb:9e:
        e0:03:49:57:10:1d:00:5a:f3:c5:da:59:23:73:a5:28:8e:e4:
        ca:cd:f8:20:fa:b6:99:84:21:96:f5:9d:7e:d4:eb:3d:01:d9:
        93:d0:fc:d7:74:60:5e:98:b1:53:ec:58:5c:59:6e:74:0c:4e:
        76:f7:b3:65:b4:9d:f4:65:90:f7:e8:32:6e:33:7c:5e:9d:d5:
        a9:c5:37:8c:3f:d8:1d:cd:f5:ed:bd:6e:ae:40:0c:0f:7c:d1:
        47:82:4a:a1:f2:32:72:6a:c2:2c:60:43:06:df:f3:01:38:17:
        b6:c7:fe:a3:ef:c1:38:38:c8:71:e3:29:5f:6c:6b:cb:a1:60:
        97:bc:71:73:b6:fe:4a:04:71:5f:27:c3:fa:a6:1a:c1:8d:e9:
        53:b1:82:71:88:81:b5:c3:f0:26:97:5a:f8:2a:55:f9:25:48:
        fe:7b:eb:da:df:49:38:40:18:11:4a:5b:33:36:39:e5:e8:b2:
        26:bb:f1:61:ab:0e:a9:72:cf:70:e2:79:75:0d:27:fc:5c:1a:
        d4:2e:3b:fe:f5:85:49:26:2a:d3:f2:f7:c1:3d:63:4b:15:fc:
        1d:5d:5f:18:b0:10:56:91:d9:59:61:95:52:57:bd:03:32:96:
        01:47:7b:b0
-----BEGIN CERTIFICATE-----
MIIDdzCCAl+gAwIBAgIQPzl9dxOmO8aMAHs+jRuj1DANBgkqhkiG9w0BAQsFADAW
MRQwEgYDVQQDDAt0ZWFtMzEwLW5ldDAeFw0yMzExMDQxMTM0MTRaFw0yNjEwMTkx
MTM0MTRaMBkxFzAVBgNVBAMMDnRlYW0zMTAtc2VydmVyMIIBIjANBgkqhkiG9w0B
AQEFAAOCAQ8AMIIBCgKCAQEAwcY1nmOWVK7qXjQEbZij38D7cGhYHGtIQDIcesje
XOlehx5Ci+MB4qsx7sY5Qo7Ss4dVstH73dl9el4scWmR2CQVBIBhJs1KwrQkNCV6
jFUSNB41CH/Z6n21QTggukuv0ZqdHC4XmbZF1foRg08yj1rXckjEv0OhQpqM8t7T
5+BBDu0mTnup2kkeQ1ZSZ6dtQZlefCJzQRYS2ybLIpvZUtirFAwUVHcZ1lCmfhsG
RYKCTBSw1vQYRdFpfHEgITMVxjBKVlK8vfKW2y1SidV4shQKGYv8gRSwFMHaEaIh
Kz5snzMn2HmIdt3/xnEmpP7DlZacGBpZ27u+d81e+WenXwIDAQABo4G9MIG6MAkG
A1UdEwQCMAAwHQYDVR0OBBYEFI/7Y+7XEnW4MjQ9sxiQUHUzUw+WMFEGA1UdIwRK
MEiAFCTO6YPlx7jI7koM6Gn2kR2pkSELoRqkGDAWMRQwEgYDVQQDDAt0ZWFtMzEw
LW5ldIIUdP5ak0GwN29kpWqBo4OaOhfBYCcwEwYDVR0lBAwwCgYIKwYBBQUHAwEw
CwYDVR0PBAQDAgWgMBkGA1UdEQQSMBCCDnRlYW0zMTAtc2VydmVyMA0GCSqGSIb3
DQEBCwUAA4IBAQCabQBruQ5fVAZncohniSKn657gA0lXEB0AWvPF2lkjc6UojuTK
zfgg+raZhCGW9Z1+1Os9AdmT0PzXdGBemLFT7FhcWW50DE5297NltJ30ZZD36DJu
M3xendWpxTeMP9gdzfXtvW6uQAwPfNFHgkqh8jJyasIsYEMG3/MBOBe2x/6j78E4
OMhx4ylfbGvLoWCXvHFztv5KBHFfJ8P6phrBjelTsYJxiIG1w/Aml1r4KlX5JUj+
e+va30k4QBgRSlszNjnl6LImu/Fhqw6pcs9w4nl1DSf8XBrULjv+9YVJJirT8vfB
PWNLFfwdXV8YsBBWkdlZYZVSV70DMpYBR3uw
-----END CERTIFICATE-----
