Certificate:
    Data:
        Version: 3 (0x2)
        Serial Number:
            60:ef:1f:94:f1:74:be:ca:a8:4c:74:15:d1:98:30:62
        Signature Algorithm: sha256WithRSAEncryption
        Issuer: CN=team310-net
        Validity
            Not Before: Nov  4 10:46:18 2023 GMT
            Not After : Oct 19 10:46:18 2026 GMT
        Subject: CN=team310-client
        Subject Public Key Info:
            Public Key Algorithm: rsaEncryption
                Public-Key: (2048 bit)
                Modulus:
                    00:d5:bd:f3:b6:55:e6:9c:bb:04:cf:e7:45:3f:4e:
                    8d:3e:29:8f:b6:eb:57:c4:49:55:78:56:4d:31:50:
                    6f:e2:12:4b:ca:b0:f4:86:ad:9f:a1:01:3d:55:e0:
                    c4:79:54:4c:9c:37:32:df:05:52:58:16:ef:90:45:
                    9c:56:bc:9f:3b:5e:75:71:0f:5a:ea:21:63:5f:bc:
                    74:9a:22:81:ee:01:d1:e6:6c:ac:8f:17:42:57:eb:
                    e4:0e:ff:bb:73:1a:df:a8:09:50:d3:64:d3:e1:0a:
                    89:ff:dc:01:23:0b:74:97:7b:bd:28:10:7e:2e:ce:
                    0e:db:63:38:d3:06:3b:f8:9e:81:f9:4a:69:3a:60:
                    d1:a8:d3:bd:6f:fc:bc:37:b8:a1:6c:05:c4:c8:62:
                    e3:4b:8c:41:2b:34:61:dd:15:e5:b8:b6:89:4b:d6:
                    81:e1:66:00:72:5b:87:3f:a7:2a:ca:56:bb:b5:2e:
                    91:ac:b7:f2:79:7a:86:dd:da:fb:d3:15:84:85:1a:
                    89:f1:46:2c:8e:24:66:c3:11:7b:34:c3:70:45:f4:
                    c1:19:91:df:d3:a9:44:24:4b:c7:07:65:a8:a1:22:
                    3b:7f:86:75:5d:c9:97:fb:6f:18:5a:eb:70:a1:6e:
                    7c:06:d5:87:7d:b5:8c:c2:16:b7:88:cc:fc:c7:33:
                    28:8b
                Exponent: 65537 (0x10001)
        X509v3 extensions:
            X509v3 Basic Constraints: 
                CA:FALSE
            X509v3 Subject Key Identifier: 
                72:BD:4A:A3:49:BB:3E:C9:49:C4:8E:B8:DB:BF:24:F1:FB:AD:09:1A
            X509v3 Authority Key Identifier: 
                keyid:93:0A:72:16:89:71:C4:40:92:A2:3E:FF:1C:58:C3:60:FC:30:A6:6E
                DirName:/CN=team310-net
                serial:0D:6E:F3:B0:E9:7F:48:AE:3A:F3:7C:5C:98:11:91:BD:1D:4F:D4:56
            X509v3 Extended Key Usage: 
                TLS Web Client Authentication
            X509v3 Key Usage: 
                Digital Signature
    Signature Algorithm: sha256WithRSAEncryption
    Signature Value:
        37:a8:23:e5:b2:28:b0:c6:11:69:03:f6:2c:e2:15:5e:3e:36:
        51:f4:73:89:29:ab:6f:e6:20:1a:66:bb:53:ec:14:72:1d:8d:
        43:b7:29:1f:e2:c2:40:39:ab:c4:26:aa:81:67:00:13:2e:70:
        f8:d8:22:69:b2:ea:05:8d:07:d3:0d:29:e7:b2:f8:4a:2c:e7:
        16:48:be:df:2a:1f:69:5c:93:02:0f:0a:0f:16:45:fe:8f:dc:
        39:e4:bc:da:27:b0:81:d1:46:c5:9f:c3:1c:76:6a:a4:ff:1c:
        fb:3b:16:bd:85:c2:36:81:65:d1:70:18:a9:be:f8:ec:72:7e:
        92:8d:25:f0:5e:8b:1b:ae:dc:a9:8e:98:96:91:19:08:eb:a5:
        4c:c9:fe:74:3e:a3:b6:0f:c2:f5:08:9b:ed:55:2b:5c:bb:49:
        68:c9:6e:5f:fe:b6:d1:01:96:a2:9a:c4:a3:f0:a3:ee:d8:e3:
        63:cd:86:31:c4:ce:4b:47:9d:10:14:c7:c8:16:e6:ca:96:83:
        fb:0a:ce:7d:39:7d:c2:01:c0:50:4d:a7:92:3e:fd:30:8f:79:
        d8:07:43:5d:ba:b5:14:42:8f:76:5a:d5:98:52:47:9d:56:44:
        73:a8:41:0c:ff:98:47:80:5f:ef:d0:24:60:97:2b:c2:af:43:
        13:42:4f:6e
-----BEGIN CERTIFICATE-----
MIIDXDCCAkSgAwIBAgIQYO8flPF0vsqoTHQV0ZgwYjANBgkqhkiG9w0BAQsFADAW
MRQwEgYDVQQDDAt0ZWFtMzEwLW5ldDAeFw0yMzExMDQxMDQ2MThaFw0yNjEwMTkx
MDQ2MThaMBkxFzAVBgNVBAMMDnRlYW0zMTAtY2xpZW50MIIBIjANBgkqhkiG9w0B
AQEFAAOCAQ8AMIIBCgKCAQEA1b3ztlXmnLsEz+dFP06NPimPtutXxElVeFZNMVBv
4hJLyrD0hq2foQE9VeDEeVRMnDcy3wVSWBbvkEWcVryfO151cQ9a6iFjX7x0miKB
7gHR5mysjxdCV+vkDv+7cxrfqAlQ02TT4QqJ/9wBIwt0l3u9KBB+Ls4O22M40wY7
+J6B+UppOmDRqNO9b/y8N7ihbAXEyGLjS4xBKzRh3RXluLaJS9aB4WYAcluHP6cq
yla7tS6RrLfyeXqG3dr70xWEhRqJ8UYsjiRmwxF7NMNwRfTBGZHf06lEJEvHB2Wo
oSI7f4Z1XcmX+28YWutwoW58BtWHfbWMwha3iMz8xzMoiwIDAQABo4GiMIGfMAkG
A1UdEwQCMAAwHQYDVR0OBBYEFHK9SqNJuz7JScSOuNu/JPH7rQkaMFEGA1UdIwRK
MEiAFJMKchaJccRAkqI+/xxYw2D8MKZuoRqkGDAWMRQwEgYDVQQDDAt0ZWFtMzEw
LW5ldIIUDW7zsOl/SK4683xcmBGRvR1P1FYwEwYDVR0lBAwwCgYIKwYBBQUHAwIw
CwYDVR0PBAQDAgeAMA0GCSqGSIb3DQEBCwUAA4IBAQA3qCPlsiiwxhFpA/Ys4hVe
PjZR9HOJKatv5iAaZrtT7BRyHY1Dtykf4sJAOavEJqqBZwATLnD42CJpsuoFjQfT
DSnnsvhKLOcWSL7fKh9pXJMCDwoPFkX+j9w55LzaJ7CB0UbFn8Mcdmqk/xz7Oxa9
hcI2gWXRcBipvvjscn6SjSXwXosbrtypjpiWkRkI66VMyf50PqO2D8L1CJvtVStc
u0loyW5f/rbRAZaimsSj8KPu2ONjzYYxxM5LR50QFMfIFubKloP7Cs59OX3CAcBQ
TaeSPv0wj3nYB0NdurUUQo92WtWYUkedVkRzqEEM/5hHgF/v0CRglyvCr0MTQk9u
-----END CERTIFICATE-----
