Certificate:
    Data:
        Version: 3 (0x2)
        Serial Number:
            94:e9:42:88:43:e9:f3:21:57:c9:09:f5:8e:ab:23:35
        Signature Algorithm: sha256WithRSAEncryption
        Issuer: CN=team310-net
        Validity
            Not Before: Nov  4 11:34:14 2023 GMT
            Not After : Oct 19 11:34:14 2026 GMT
        Subject: CN=team310-client
        Subject Public Key Info:
            Public Key Algorithm: rsaEncryption
                Public-Key: (2048 bit)
                Modulus:
                    00:bd:26:e4:b7:d5:03:67:30:ea:b8:32:20:3f:e9:
                    dc:b0:7b:73:19:59:b4:0b:c5:21:ab:29:83:7d:26:
                    ea:f3:f5:3d:b5:1b:7d:f5:dd:f4:29:0d:b7:28:c9:
                    27:07:1e:bd:31:f4:ae:3a:4c:27:84:55:09:36:14:
                    af:e4:d9:b6:44:9e:a8:1f:34:be:d3:67:23:1d:0f:
                    30:81:5d:4f:08:14:b1:be:1c:44:9b:4c:ec:d5:40:
                    bf:e1:e5:19:89:30:1d:fc:cd:34:84:b3:7d:7a:a6:
                    05:65:21:2b:d0:cd:8b:20:4e:3b:3a:4b:84:1c:79:
                    b4:4b:8d:da:89:8b:5b:fc:b0:b6:18:5c:d2:f1:4d:
                    d4:0f:68:b1:89:41:cd:89:f6:3b:80:f7:a0:5a:02:
                    98:55:00:db:66:42:13:52:5d:51:1e:87:9e:25:0c:
                    86:31:5a:8f:0f:ec:1c:e3:82:df:26:0e:1d:d7:fb:
                    e4:c0:7a:35:19:4e:c1:05:89:25:2a:df:b4:78:2a:
                    a0:5d:5d:37:e5:23:8b:30:a7:11:eb:b2:ac:ad:1d:
                    10:84:2b:14:03:cd:b0:a2:0b:e1:4a:de:73:58:c4:
                    67:4a:13:f3:f0:53:bd:53:8b:ae:31:e3:57:4b:88:
                    75:d3:d8:20:67:a9:88:29:4e:04:48:b3:c4:06:ac:
                    31:57
                Exponent: 65537 (0x10001)
        X509v3 extensions:
            X509v3 Basic Constraints: 
                CA:FALSE
            X509v3 Subject Key Identifier: 
                EE:32:D0:BE:2A:AB:1D:7C:4E:66:1A:C6:C9:79:D4:C9:51:C3:12:3A
            X509v3 Authority Key Identifier: 
                keyid:24:CE:E9:83:E5:C7:B8:C8:EE:4A:0C:E8:69:F6:91:1D:A9:91:21:0B
                DirName:/CN=team310-net
                serial:74:FE:5A:93:41:B0:37:6F:64:A5:6A:81:A3:83:9A:3A:17:C1:60:27
            X509v3 Extended Key Usage: 
                TLS Web Client Authentication
            X509v3 Key Usage: 
                Digital Signature
    Signature Algorithm: sha256WithRSAEncryption
    Signature Value:
        1e:a2:68:a8:cb:f0:d4:cd:d1:81:9d:f2:47:bf:e9:85:7d:2e:
        f8:88:a6:c5:6e:01:4b:ea:53:c1:88:ce:f0:1c:a1:3c:44:cd:
        bd:c3:21:ce:27:0b:96:fa:13:d8:7a:37:d8:70:21:27:80:0a:
        bc:4b:c1:24:a4:29:74:7d:52:0d:f7:96:a3:d9:f1:c2:a9:7b:
        c0:66:25:8b:48:cc:e7:d2:fa:a1:3c:5b:aa:e3:a1:9e:a5:14:
        08:29:58:fd:03:2a:40:fb:17:1a:77:91:e4:80:73:da:6d:f8:
        60:fa:f9:c3:4c:9a:54:ff:9b:a5:16:a9:60:3c:d3:88:3b:f7:
        1b:94:ed:01:6f:e4:11:27:ab:1b:9d:ce:c1:9e:3e:f2:3f:16:
        49:f0:cc:83:a7:44:4b:24:ae:11:a2:91:2d:75:d8:21:a9:33:
        93:80:de:f0:60:67:d2:41:32:94:da:78:68:b3:8b:77:4b:72:
        a1:8b:4c:b4:92:6d:7e:88:85:1e:d1:bb:57:a9:3a:47:4c:f0:
        86:8e:82:ec:71:91:93:3a:08:c0:ac:f0:8c:c9:79:0c:c7:6d:
        d5:04:7e:9a:13:35:ab:78:60:04:10:90:d0:e3:92:39:ca:63:
        f3:aa:68:47:95:f1:06:ad:4b:6b:c5:ff:e7:1c:0a:5b:f4:96:
        95:8f:dc:af
-----BEGIN CERTIFICATE-----
MIIDXTCCAkWgAwIBAgIRAJTpQohD6fMhV8kJ9Y6rIzUwDQYJKoZIhvcNAQELBQAw
FjEUMBIGA1UEAwwLdGVhbTMxMC1uZXQwHhcNMjMxMTA0MTEzNDE0WhcNMjYxMDE5
MTEzNDE0WjAZMRcwFQYDVQQDDA50ZWFtMzEwLWNsaWVudDCCASIwDQYJKoZIhvcN
AQEBBQADggEPADCCAQoCggEBAL0m5LfVA2cw6rgyID/p3LB7cxlZtAvFIaspg30m
6vP1PbUbffXd9CkNtyjJJwcevTH0rjpMJ4RVCTYUr+TZtkSeqB80vtNnIx0PMIFd
TwgUsb4cRJtM7NVAv+HlGYkwHfzNNISzfXqmBWUhK9DNiyBOOzpLhBx5tEuN2omL
W/ywthhc0vFN1A9osYlBzYn2O4D3oFoCmFUA22ZCE1JdUR6HniUMhjFajw/sHOOC
3yYOHdf75MB6NRlOwQWJJSrftHgqoF1dN+UjizCnEeuyrK0dEIQrFAPNsKIL4Ure
c1jEZ0oT8/BTvVOLrjHjV0uIddPYIGepiClOBEizxAasMVcCAwEAAaOBojCBnzAJ
BgNVHRMEAjAAMB0GA1UdDgQWBBTuMtC+KqsdfE5mGsbJedTJUcMSOjBRBgNVHSME
SjBIgBQkzumD5ce4yO5KDOhp9pEdqZEhC6EapBgwFjEUMBIGA1UEAwwLdGVhbTMx
MC1uZXSCFHT+WpNBsDdvZKVqgaODmjoXwWAnMBMGA1UdJQQMMAoGCCsGAQUFBwMC
MAsGA1UdDwQEAwIHgDANBgkqhkiG9w0BAQsFAAOCAQEAHqJoqMvw1M3RgZ3yR7/p
hX0u+IimxW4BS+pTwYjO8ByhPETNvcMhzicLlvoT2Ho32HAhJ4AKvEvBJKQpdH1S
DfeWo9nxwql7wGYli0jM59L6oTxbquOhnqUUCClY/QMqQPsXGneR5IBz2m34YPr5
w0yaVP+bpRapYDzTiDv3G5TtAW/kESerG53OwZ4+8j8WSfDMg6dESySuEaKRLXXY
Iakzk4De8GBn0kEylNp4aLOLd0tyoYtMtJJtfoiFHtG7V6k6R0zwho6C7HGRkzoI
wKzwjMl5DMdt1QR+mhM1q3hgBBCQ0OOSOcpj86poR5XxBq1La8X/5xwKW/SWlY/c
rw==
-----END CERTIFICATE-----
