Certificate:
    Data:
        Version: 3 (0x2)
        Serial Number:
            ca:8c:f0:e8:fd:62:9e:fe:34:9a:24:8e:b3:4c:89:42
        Signature Algorithm: sha256WithRSAEncryption
        Issuer: CN=team310-net
        Validity
            Not Before: Nov  4 10:46:19 2023 GMT
            Not After : Oct 19 10:46:19 2026 GMT
        Subject: CN=team310-server
        Subject Public Key Info:
            Public Key Algorithm: rsaEncryption
                Public-Key: (2048 bit)
                Modulus:
                    00:c8:b3:3d:3a:16:31:65:27:f7:43:60:e1:4c:e5:
                    e1:67:3d:69:e3:d2:70:fa:25:f4:76:4d:05:9c:55:
                    88:f5:a8:25:0a:0e:b0:6c:f5:27:cb:77:35:d0:38:
                    04:00:60:03:73:96:82:89:c0:55:40:6c:98:19:93:
                    45:6a:43:bf:26:b5:b2:5f:b1:f3:dc:f7:a1:ca:c2:
                    ad:54:a3:0a:a1:59:26:1b:c5:5d:d8:84:bb:5d:22:
                    8d:ff:a3:be:f8:10:59:80:f9:1c:68:87:c0:cd:ac:
                    77:fa:90:c6:c2:2f:5c:64:0c:f7:28:bf:0a:c9:89:
                    4a:42:01:b3:2f:a8:5b:ff:fc:8c:8e:3b:40:4b:bc:
                    e7:26:9f:9c:e8:91:cf:53:14:c8:09:60:36:de:1e:
                    10:ea:e9:4f:ad:6b:7c:27:d9:26:95:76:e5:3b:65:
                    37:35:a7:09:11:58:b2:26:f8:59:fe:ab:e6:71:f0:
                    f4:fe:f0:34:27:63:4d:d7:03:79:ed:ff:e5:f8:58:
                    f6:2e:eb:17:e6:0b:7b:7b:e8:73:1f:2c:7a:a6:3f:
                    01:9d:3d:31:6e:4e:0e:c0:e5:08:94:cc:eb:4c:6e:
                    31:c3:ff:d6:3d:85:b8:db:de:44:e5:77:fd:8c:79:
                    7b:bb:d1:bc:c8:90:43:57:81:45:06:09:1c:33:89:
                    96:15
                Exponent: 65537 (0x10001)
        X509v3 extensions:
            X509v3 Basic Constraints: 
                CA:FALSE
            X509v3 Subject Key Identifier: 
                97:89:A3:D5:E2:74:31:EB:33:AB:4A:F4:24:71:D0:9E:76:DC:69:F3
            X509v3 Authority Key Identifier: 
                keyid:93:0A:72:16:89:71:C4:40:92:A2:3E:FF:1C:58:C3:60:FC:30:A6:6E
                DirName:/CN=team310-net
                serial:0D:6E:F3:B0:E9:7F:48:AE:3A:F3:7C:5C:98:11:91:BD:1D:4F:D4:56
            X509v3 Extended Key Usage: 
                TLS Web Server Authentication
            X509v3 Key Usage: 
                Digital Signature, Key Encipherment
            X509v3 Subject Alternative Name: 
                DNS:team310-server
    Signature Algorithm: sha256WithRSAEncryption
    Signature Value:
        52:21:ee:aa:be:79:c5:8b:4f:de:b2:60:09:82:f0:f7:f2:74:
        9c:13:b2:95:00:15:f5:56:e9:59:82:c6:fe:3d:81:66:7a:45:
        a7:90:3e:2a:c7:a3:95:65:32:1e:40:0a:4b:92:51:2c:7f:c2:
        a3:71:8a:c2:d2:ec:cb:df:96:e0:ea:87:af:79:62:d8:01:2e:
        95:f9:74:72:e7:5a:2c:4c:00:a2:44:c6:8d:43:22:99:c0:4b:
        64:15:59:0d:70:74:82:b6:9f:26:ff:f8:41:a6:64:70:1e:5c:
        3b:1e:8d:a7:ac:be:00:42:b9:81:50:e1:24:e7:68:ed:79:a5:
        72:c1:6d:b8:b7:08:d4:66:a8:0d:6d:54:ec:f1:1e:20:78:22:
        71:d4:63:e9:79:28:aa:9d:1d:0b:93:8e:66:bc:6e:48:a9:39:
        cd:c1:e7:fb:1e:2f:b7:d2:01:05:ea:ca:82:f9:b1:94:a4:96:
        f8:92:28:2b:72:f8:94:72:52:00:95:1f:97:76:7d:b8:dd:d8:
        6a:f7:a7:ae:12:76:f5:9e:c1:e4:9c:1f:7d:7d:e0:92:7a:79:
        8d:6d:09:34:f6:d5:f6:46:4e:11:de:7e:8e:37:20:ba:b6:92:
        6f:52:2c:39:a8:3a:b4:e7:99:e5:04:64:e0:6e:b7:22:63:8a:
        5d:ce:66:c2
-----BEGIN CERTIFICATE-----
MIIDeDCCAmCgAwIBAgIRAMqM8Oj9Yp7+NJokjrNMiUIwDQYJKoZIhvcNAQELBQAw
FjEUMBIGA1UEAwwLdGVhbTMxMC1uZXQwHhcNMjMxMTA0MTA0NjE5WhcNMjYxMDE5
MTA0NjE5WjAZMRcwFQYDVQQDDA50ZWFtMzEwLXNlcnZlcjCCASIwDQYJKoZIhvcN
AQEBBQADggEPADCCAQoCggEBAMizPToWMWUn90Ng4Uzl4Wc9aePScPol9HZNBZxV
iPWoJQoOsGz1J8t3NdA4BABgA3OWgonAVUBsmBmTRWpDvya1sl+x89z3ocrCrVSj
CqFZJhvFXdiEu10ijf+jvvgQWYD5HGiHwM2sd/qQxsIvXGQM9yi/CsmJSkIBsy+o
W//8jI47QEu85yafnOiRz1MUyAlgNt4eEOrpT61rfCfZJpV25TtlNzWnCRFYsib4
Wf6r5nHw9P7wNCdjTdcDee3/5fhY9i7rF+YLe3vocx8seqY/AZ09MW5ODsDlCJTM
60xuMcP/1j2FuNveROV3/Yx5e7vRvMiQQ1eBRQYJHDOJlhUCAwEAAaOBvTCBujAJ
BgNVHRMEAjAAMB0GA1UdDgQWBBSXiaPV4nQx6zOrSvQkcdCedtxp8zBRBgNVHSME
SjBIgBSTCnIWiXHEQJKiPv8cWMNg/DCmbqEapBgwFjEUMBIGA1UEAwwLdGVhbTMx
MC1uZXSCFA1u87Dpf0iuOvN8XJgRkb0dT9RWMBMGA1UdJQQMMAoGCCsGAQUFBwMB
MAsGA1UdDwQEAwIFoDAZBgNVHREEEjAQgg50ZWFtMzEwLXNlcnZlcjANBgkqhkiG
9w0BAQsFAAOCAQEAUiHuqr55xYtP3rJgCYLw9/J0nBOylQAV9VbpWYLG/j2BZnpF
p5A+KsejlWUyHkAKS5JRLH/Co3GKwtLsy9+W4OqHr3li2AEulfl0cudaLEwAokTG
jUMimcBLZBVZDXB0grafJv/4QaZkcB5cOx6Np6y+AEK5gVDhJOdo7XmlcsFtuLcI
1GaoDW1U7PEeIHgicdRj6Xkoqp0dC5OOZrxuSKk5zcHn+x4vt9IBBerKgvmxlKSW
+JIoK3L4lHJSAJUfl3Z9uN3YavenrhJ29Z7B5JwffX3gknp5jW0JNPbV9kZOEd5+
jjcguraSb1IsOag6tOeZ5QRk4G63ImOKXc5mwg==
-----END CERTIFICATE-----
