Certificate:
    Data:
        Version: 3 (0x2)
        Serial Number:
            0d:6d:2e:17:9f:6f:ae:57:08:9e:3c:a3:f9:a3:5c:43
        Signature Algorithm: sha256WithRSAEncryption
        Issuer: CN=team95-net
        Validity
            Not Before: Nov  4 10:42:11 2023 GMT
            Not After : Oct 19 10:42:11 2026 GMT
        Subject: CN=team95-client
        Subject Public Key Info:
            Public Key Algorithm: rsaEncryption
                Public-Key: (2048 bit)
                Modulus:
                    00:8b:94:62:12:4e:89:fb:32:94:94:c5:d2:a5:b5:
                    56:3f:02:c2:b8:39:a7:6a:1f:c3:72:8b:3d:e5:98:
                    a6:8e:1c:63:59:b4:00:df:11:22:01:77:53:32:92:
                    35:5e:8b:3c:fe:d0:8d:bb:6b:85:b8:16:80:0f:e2:
                    d8:c0:c0:08:fd:3a:b9:66:ae:cd:de:83:a8:23:fa:
                    ca:47:30:d5:0c:74:e6:07:39:f2:c8:96:5f:fc:ca:
                    b0:14:3a:db:66:a8:1c:be:74:dd:0f:97:c8:d6:79:
                    73:47:7b:b7:4a:ff:44:80:b0:23:9c:1f:8e:19:23:
                    9a:58:fb:92:b3:14:85:61:99:c7:ad:0c:9c:06:ec:
                    64:38:2d:d9:d1:cb:45:26:34:b0:8f:d7:0d:8d:12:
                    e3:f9:cc:de:5d:ad:74:d3:0d:5b:ae:1c:9e:31:8a:
                    a5:ba:c9:75:4a:9f:66:e2:d7:4d:75:e6:ea:d6:d3:
                    24:08:56:9a:15:d4:16:b6:1f:03:16:90:e4:3d:d4:
                    93:91:f9:f2:67:05:bf:dd:68:f6:1c:b7:f4:73:2d:
                    f1:89:41:ba:30:dd:d5:c7:80:34:c3:b5:6d:5d:b6:
                    82:54:ec:e0:72:28:83:78:e3:f7:66:9b:58:2d:8f:
                    21:05:59:69:b4:7e:df:57:af:fa:49:ee:65:f7:75:
                    ea:07
                Exponent: 65537 (0x10001)
        X509v3 extensions:
            X509v3 Basic Constraints: 
                CA:FALSE
            X509v3 Subject Key Identifier: 
                91:80:1C:2D:ED:B3:EB:4D:45:CB:77:03:F1:B6:AA:46:54:C4:6A:1A
            X509v3 Authority Key Identifier: 
                keyid:92:CF:F5:0F:F5:AB:FE:F8:B7:97:FF:0B:FB:A5:02:DE:50:E7:86:7D
                DirName:/CN=team95-net
                serial:09:C9:F6:19:37:5F:15:01:F5:48:4E:6D:08:F7:1C:1B:34:41:9F:AD
            X509v3 Extended Key Usage: 
                TLS Web Client Authentication
            X509v3 Key Usage: 
                Digital Signature
    Signature Algorithm: sha256WithRSAEncryption
    Signature Value:
        59:9e:79:86:58:f0:05:c4:bf:9b:bb:03:66:dc:a1:b9:b5:59:
        52:19:a8:33:d0:a0:d4:d3:c6:10:08:80:56:ab:81:7f:90:d5:
        3c:f8:b3:fb:b2:98:d7:4d:df:96:05:b0:9b:52:62:21:a9:4a:
        32:31:0a:c3:d6:ce:3d:9b:c9:25:b1:7c:50:ea:a2:fb:d9:4a:
        50:b8:75:1b:c0:87:05:c7:97:73:47:f3:24:47:f5:f8:db:c8:
        3c:7c:2b:40:8c:9d:a2:a6:8e:9d:64:0e:58:48:a7:03:3a:4d:
        fc:21:c6:b5:c2:3f:c0:05:33:0d:04:5f:e9:2c:72:9a:09:3f:
        80:18:7e:c1:86:50:d2:af:1a:46:17:a1:cb:0a:a4:87:79:1f:
        14:b2:4a:d6:79:48:a3:f5:62:b6:20:d0:1d:41:a6:10:c1:b2:
        f9:30:2b:4f:5e:1f:47:4f:cc:ee:f0:3a:35:fe:93:c3:41:bf:
        30:86:16:e6:21:58:a8:51:22:cf:15:a4:33:1f:c9:0f:4b:5a:
        e7:76:ea:b3:bb:93:1b:80:05:a8:e2:08:67:0d:dc:66:1a:0c:
        96:09:54:ce:29:28:d0:9a:7b:1d:3f:e0:5b:48:ab:3b:b3:49:
        85:63:91:ee:c9:aa:5a:b6:a4:84:16:32:94:bc:7b:dd:64:d8:
        35:f3:c7:2e
-----BEGIN CERTIFICATE-----
MIIDWTCCAkGgAwIBAgIQDW0uF59vrlcInjyj+aNcQzANBgkqhkiG9w0BAQsFADAV
MRMwEQYDVQQDDAp0ZWFtOTUtbmV0MB4XDTIzMTEwNDEwNDIxMVoXDTI2MTAxOTEw
NDIxMVowGDEWMBQGA1UEAwwNdGVhbTk1LWNsaWVudDCCASIwDQYJKoZIhvcNAQEB
BQADggEPADCCAQoCggEBAIuUYhJOifsylJTF0qW1Vj8Cwrg5p2ofw3KLPeWYpo4c
Y1m0AN8RIgF3UzKSNV6LPP7QjbtrhbgWgA/i2MDACP06uWauzd6DqCP6ykcw1Qx0
5gc58siWX/zKsBQ622aoHL503Q+XyNZ5c0d7t0r/RICwI5wfjhkjmlj7krMUhWGZ
x60MnAbsZDgt2dHLRSY0sI/XDY0S4/nM3l2tdNMNW64cnjGKpbrJdUqfZuLXTXXm
6tbTJAhWmhXUFrYfAxaQ5D3Uk5H58mcFv91o9hy39HMt8YlBujDd1ceANMO1bV22
glTs4HIog3jj92abWC2PIQVZabR+31ev+knuZfd16gcCAwEAAaOBoTCBnjAJBgNV
HRMEAjAAMB0GA1UdDgQWBBSRgBwt7bPrTUXLdwPxtqpGVMRqGjBQBgNVHSMESTBH
gBSSz/UP9av++LeX/wv7pQLeUOeGfaEZpBcwFTETMBEGA1UEAwwKdGVhbTk1LW5l
dIIUCcn2GTdfFQH1SE5tCPccGzRBn60wEwYDVR0lBAwwCgYIKwYBBQUHAwIwCwYD
VR0PBAQDAgeAMA0GCSqGSIb3DQEBCwUAA4IBAQBZnnmGWPAFxL+buwNm3KG5tVlS
Gagz0KDU08YQCIBWq4F/kNU8+LP7spjXTd+WBbCbUmIhqUoyMQrD1s49m8klsXxQ
6qL72UpQuHUbwIcFx5dzR/MkR/X428g8fCtAjJ2ipo6dZA5YSKcDOk38Ica1wj/A
BTMNBF/pLHKaCT+AGH7BhlDSrxpGF6HLCqSHeR8UskrWeUij9WK2INAdQaYQwbL5
MCtPXh9HT8zu8Do1/pPDQb8whhbmIVioUSLPFaQzH8kPS1rnduqzu5MbgAWo4ghn
DdxmGgyWCVTOKSjQmnsdP+BbSKs7s0mFY5HuyapatqSEFjKUvHvdZNg188cu
-----END CERTIFICATE-----
