Certificate:
    Data:
        Version: 3 (0x2)
        Serial Number:
            1b:61:1a:15:ec:7f:7c:d5:9f:ae:e3:c6:6d:18:20:17
        Signature Algorithm: sha256WithRSAEncryption
        Issuer: CN=team95-net
        Validity
            Not Before: Nov  4 10:42:11 2023 GMT
            Not After : Oct 19 10:42:11 2026 GMT
        Subject: CN=team95-server
        Subject Public Key Info:
            Public Key Algorithm: rsaEncryption
                Public-Key: (2048 bit)
                Modulus:
                    00:c3:bb:61:60:7d:98:1a:66:50:ea:c8:c8:48:14:
                    ce:7e:94:a4:f2:0b:16:2d:1a:65:da:04:a5:8d:cd:
                    ef:c9:93:0b:68:1f:31:1a:74:48:b9:9f:86:ee:0f:
                    f4:db:fc:8e:17:a4:3b:03:13:11:a4:55:99:a5:00:
                    47:84:ec:c9:3f:4c:52:cb:f1:c9:5b:47:a8:fa:e3:
                    7c:26:7f:54:f9:5a:83:2d:22:18:f4:41:8b:bb:ca:
                    01:a5:77:2f:69:c4:52:1f:63:7d:c9:07:b5:fd:9d:
                    58:7a:d4:7b:f4:d4:e6:8f:86:7e:59:79:23:ed:2a:
                    f9:f5:37:56:9a:2a:b5:16:82:f6:e4:cf:90:39:14:
                    1a:ef:e7:2f:f2:af:7f:a6:b4:65:ad:b8:ff:da:f3:
                    c7:f3:16:7c:dc:52:ad:3d:1d:4c:66:8c:60:57:ac:
                    af:27:27:39:b4:0d:bd:b9:04:28:b1:81:a0:1f:1e:
                    dc:fa:ac:12:d8:1d:48:f2:f5:96:dd:8a:f2:6a:14:
                    7b:48:44:d4:1d:03:ba:e7:68:b2:7d:e4:6c:37:60:
                    6c:11:e8:ad:06:c9:fc:1f:d6:6c:64:06:14:0f:41:
                    df:75:42:b8:79:37:d0:e7:09:01:ff:c7:12:fe:39:
                    24:c8:cc:f3:4f:3d:cf:de:d0:a5:dc:a4:fd:6c:db:
                    0c:1b
                Exponent: 65537 (0x10001)
        X509v3 extensions:
            X509v3 Basic Constraints: 
                CA:FALSE
            X509v3 Subject Key Identifier: 
                9C:F1:72:8E:17:80:2B:BA:06:CE:2F:99:FB:81:34:15:E7:A2:98:44
            X509v3 Authority Key Identifier: 
                keyid:92:CF:F5:0F:F5:AB:FE:F8:B7:97:FF:0B:FB:A5:02:DE:50:E7:86:7D
                DirName:/CN=team95-net
                serial:09:C9:F6:19:37:5F:15:01:F5:48:4E:6D:08:F7:1C:1B:34:41:9F:AD
            X509v3 Extended Key Usage: 
                TLS Web Server Authentication
            X509v3 Key Usage: 
                Digital Signature, Key Encipherment
            X509v3 Subject Alternative Name: 
                DNS:team95-server
    Signature Algorithm: sha256WithRSAEncryption
    Signature Value:
        44:c2:77:25:f9:7a:dc:8a:75:a5:35:48:a8:7e:9c:b1:e4:ae:
        60:39:2f:0d:ea:06:b1:3f:0d:60:75:90:18:34:75:d1:c3:cc:
        8c:12:47:5e:be:8a:4c:c9:4d:b2:5e:20:4b:fb:1c:89:2d:d7:
        e4:fe:3b:1f:76:ec:d7:ac:f1:8c:c8:94:c7:45:f5:3c:3d:f3:
        36:0e:00:87:64:81:be:66:e1:f1:26:4d:6c:b4:ce:6d:f4:8d:
        9e:92:cb:2a:40:4b:d3:a3:7f:5e:6b:ea:88:e6:82:ab:c3:e4:
        b0:c4:22:43:06:4e:e9:2c:a2:81:27:df:99:22:1d:32:88:e9:
        b6:9f:6a:34:97:c0:6b:cf:81:0b:72:25:18:a7:23:46:bd:89:
        41:24:1e:7e:2d:86:0c:4a:60:42:7e:6a:05:b6:89:d4:f8:15:
        14:87:07:96:74:6c:64:92:c9:c7:4b:8d:95:65:1b:71:da:b8:
        10:d5:5e:b7:d7:29:6f:e7:e1:a8:f9:fb:74:9f:d6:c4:ee:90:
        59:57:15:9c:a7:93:25:8d:ac:87:ac:88:a8:97:7e:80:fa:e7:
        33:0c:e3:35:30:fb:57:df:0e:00:a2:3d:44:9a:6c:cd:53:9d:
        98:2b:b9:21:64:78:2a:0b:eb:ff:93:db:f4:f9:3e:bc:4b:02:
        c6:6e:91:45
-----BEGIN CERTIFICATE-----
MIIDczCCAlugAwIBAgIQG2EaFex/fNWfruPGbRggFzANBgkqhkiG9w0BAQsFADAV
MRMwEQYDVQQDDAp0ZWFtOTUtbmV0MB4XDTIzMTEwNDEwNDIxMVoXDTI2MTAxOTEw
NDIxMVowGDEWMBQGA1UEAwwNdGVhbTk1LXNlcnZlcjCCASIwDQYJKoZIhvcNAQEB
BQADggEPADCCAQoCggEBAMO7YWB9mBpmUOrIyEgUzn6UpPILFi0aZdoEpY3N78mT
C2gfMRp0SLmfhu4P9Nv8jhekOwMTEaRVmaUAR4TsyT9MUsvxyVtHqPrjfCZ/VPla
gy0iGPRBi7vKAaV3L2nEUh9jfckHtf2dWHrUe/TU5o+Gfll5I+0q+fU3VpoqtRaC
9uTPkDkUGu/nL/Kvf6a0Za24/9rzx/MWfNxSrT0dTGaMYFesrycnObQNvbkEKLGB
oB8e3PqsEtgdSPL1lt2K8moUe0hE1B0Duudosn3kbDdgbBHorQbJ/B/WbGQGFA9B
33VCuHk30OcJAf/HEv45JMjM8089z97Qpdyk/WzbDBsCAwEAAaOBuzCBuDAJBgNV
HRMEAjAAMB0GA1UdDgQWBBSc8XKOF4ArugbOL5n7gTQV56KYRDBQBgNVHSMESTBH
gBSSz/UP9av++LeX/wv7pQLeUOeGfaEZpBcwFTETMBEGA1UEAwwKdGVhbTk1LW5l
dIIUCcn2GTdfFQH1SE5tCPccGzRBn60wEwYDVR0lBAwwCgYIKwYBBQUHAwEwCwYD
VR0PBAQDAgWgMBgGA1UdEQQRMA+CDXRlYW05NS1zZXJ2ZXIwDQYJKoZIhvcNAQEL
BQADggEBAETCdyX5etyKdaU1SKh+nLHkrmA5Lw3qBrE/DWB1kBg0ddHDzIwSR16+
ikzJTbJeIEv7HIkt1+T+Ox927Nes8YzIlMdF9Tw98zYOAIdkgb5m4fEmTWy0zm30
jZ6SyypAS9Ojf15r6ojmgqvD5LDEIkMGTuksooEn35kiHTKI6bafajSXwGvPgQty
JRinI0a9iUEkHn4thgxKYEJ+agW2idT4FRSHB5Z0bGSSycdLjZVlG3HauBDVXrfX
KW/n4aj5+3Sf1sTukFlXFZynkyWNrIesiKiXfoD65zMM4zUw+1ffDgCiPUSabM1T
nZgruSFkeCoL6/+T2/T5PrxLAsZukUU=
-----END CERTIFICATE-----
