Certificate:
    Data:
        Version: 3 (0x2)
        Serial Number:
            3f:c9:5e:44:2e:c7:d6:48:91:bd:ad:d6:05:24:62:df
        Signature Algorithm: sha256WithRSAEncryption
        Issuer: CN=team95-net
        Validity
            Not Before: Nov  4 11:29:16 2023 GMT
            Not After : Oct 19 11:29:16 2026 GMT
        Subject: CN=team95-server
        Subject Public Key Info:
            Public Key Algorithm: rsaEncryption
                Public-Key: (2048 bit)
                Modulus:
                    00:ce:4e:1a:aa:50:b7:c9:27:97:ce:cc:de:77:49:
                    19:e4:30:28:40:d6:a5:57:f7:65:b2:d7:5b:9e:eb:
                    78:83:a6:3d:aa:9b:0d:90:fe:30:36:79:c2:01:94:
                    9b:59:0d:cc:68:a5:2f:fa:cb:69:b0:9e:2a:8c:50:
                    73:18:59:2a:cd:bd:72:87:eb:9c:28:b0:f1:5a:3f:
                    8f:b1:db:6f:06:9a:7d:98:62:ac:72:8d:0a:3f:d9:
                    b6:9b:c0:b2:99:5e:1f:79:34:af:83:e8:7c:7c:24:
                    50:cd:69:33:2e:28:74:93:e6:ec:8a:4c:f4:1c:79:
                    81:03:0a:67:50:42:ed:6f:2b:68:ca:77:3d:bc:55:
                    50:4c:5e:aa:3a:a2:dd:1f:23:30:dc:9d:a3:b9:58:
                    67:91:d0:3a:a3:d5:2f:fd:2f:b2:24:5e:aa:ab:34:
                    a0:5c:fd:3b:53:ee:ea:93:3d:ed:41:b3:02:58:dd:
                    d1:50:72:33:d1:b1:78:ea:29:fe:79:32:2b:6b:7f:
                    49:f4:d0:ec:1a:58:cd:fe:38:a9:8c:6e:8c:b8:af:
                    ee:40:66:93:9c:93:d1:a5:f0:36:05:35:8b:5c:db:
                    54:a0:f3:65:a5:eb:3d:fc:df:5b:9a:da:6d:cf:77:
                    e7:6c:40:1b:d9:02:06:1e:a8:66:4c:85:cc:96:5e:
                    2a:93
                Exponent: 65537 (0x10001)
        X509v3 extensions:
            X509v3 Basic Constraints: 
                CA:FALSE
            X509v3 Subject Key Identifier: 
                98:3E:6E:07:17:00:42:91:A9:6A:19:3F:13:6D:15:70:A8:F4:16:29
            X509v3 Authority Key Identifier: 
                keyid:FE:EC:41:62:57:99:15:07:4E:63:BE:EF:EF:B1:CA:75:D3:FE:7B:A6
                DirName:/CN=team95-net
                serial:4D:AD:67:4F:63:F6:2E:94:32:ED:D8:DB:56:36:28:36:65:E6:D9:F1
            X509v3 Extended Key Usage: 
                TLS Web Server Authentication
            X509v3 Key Usage: 
                Digital Signature, Key Encipherment
            X509v3 Subject Alternative Name: 
                DNS:team95-server
    Signature Algorithm: sha256WithRSAEncryption
    Signature Value:
        3e:18:59:16:49:f2:3b:9e:95:cf:c2:ae:c7:ab:36:8b:72:39:
        e6:61:15:21:5b:df:6b:4b:f7:5a:41:c5:7d:e4:88:1b:24:0a:
        b7:64:f0:d1:d9:1e:a5:44:ff:db:99:18:55:84:2c:59:64:61:
        75:24:b8:60:d5:e9:d0:b2:8d:7b:22:86:7f:4b:e2:71:6c:21:
        27:ee:03:dc:62:a8:b9:f1:2a:bc:38:f6:66:8a:04:0a:2e:1e:
        fc:4a:e9:d4:43:c0:67:4f:39:5c:ad:08:fa:10:74:0e:e4:44:
        0b:41:b3:37:1b:0f:d7:09:05:ac:4a:77:e1:69:a1:ff:64:e4:
        6c:f9:8e:78:12:67:f6:21:95:3b:3b:ea:6b:90:5b:e4:3b:22:
        b3:a9:6d:65:2f:9f:af:0f:16:e4:50:71:99:be:28:47:16:02:
        f6:0e:cd:c1:11:3f:ac:20:24:96:d5:21:72:c7:29:81:54:19:
        38:59:75:97:d5:89:27:15:4e:3d:7f:ee:ff:47:35:90:65:5e:
        11:62:7a:ce:d0:79:cc:70:9f:9f:9e:3b:c5:87:93:19:6f:40:
        06:41:ad:aa:0d:29:4d:f7:b0:30:9f:32:01:bb:9c:e4:4a:22:
        94:33:8b:07:d1:45:d4:a2:37:c7:ae:65:a3:f6:12:9d:7c:a5:
        fa:fb:85:bb
-----BEGIN CERTIFICATE-----
MIIDczCCAlugAwIBAgIQP8leRC7H1kiRva3WBSRi3zANBgkqhkiG9w0BAQsFADAV
MRMwEQYDVQQDDAp0ZWFtOTUtbmV0MB4XDTIzMTEwNDExMjkxNloXDTI2MTAxOTEx
MjkxNlowGDEWMBQGA1UEAwwNdGVhbTk1LXNlcnZlcjCCASIwDQYJKoZIhvcNAQEB
BQADggEPADCCAQoCggEBAM5OGqpQt8knl87M3ndJGeQwKEDWpVf3ZbLXW57reIOm
PaqbDZD+MDZ5wgGUm1kNzGilL/rLabCeKoxQcxhZKs29cofrnCiw8Vo/j7Hbbwaa
fZhirHKNCj/ZtpvAspleH3k0r4PofHwkUM1pMy4odJPm7IpM9Bx5gQMKZ1BC7W8r
aMp3PbxVUExeqjqi3R8jMNydo7lYZ5HQOqPVL/0vsiReqqs0oFz9O1Pu6pM97UGz
Aljd0VByM9GxeOop/nkyK2t/SfTQ7BpYzf44qYxujLiv7kBmk5yT0aXwNgU1i1zb
VKDzZaXrPfzfW5rabc9352xAG9kCBh6oZkyFzJZeKpMCAwEAAaOBuzCBuDAJBgNV
HRMEAjAAMB0GA1UdDgQWBBSYPm4HFwBCkalqGT8TbRVwqPQWKTBQBgNVHSMESTBH
gBT+7EFiV5kVB05jvu/vscp10/57pqEZpBcwFTETMBEGA1UEAwwKdGVhbTk1LW5l
dIIUTa1nT2P2LpQy7djbVjYoNmXm2fEwEwYDVR0lBAwwCgYIKwYBBQUHAwEwCwYD
VR0PBAQDAgWgMBgGA1UdEQQRMA+CDXRlYW05NS1zZXJ2ZXIwDQYJKoZIhvcNAQEL
BQADggEBAD4YWRZJ8juelc/CrserNotyOeZhFSFb32tL91pBxX3kiBskCrdk8NHZ
HqVE/9uZGFWELFlkYXUkuGDV6dCyjXsihn9L4nFsISfuA9xiqLnxKrw49maKBAou
HvxK6dRDwGdPOVytCPoQdA7kRAtBszcbD9cJBaxKd+Fpof9k5Gz5jngSZ/YhlTs7
6muQW+Q7IrOpbWUvn68PFuRQcZm+KEcWAvYOzcERP6wgJJbVIXLHKYFUGThZdZfV
iScVTj1/7v9HNZBlXhFies7Qecxwn5+eO8WHkxlvQAZBraoNKU33sDCfMgG7nORK
IpQziwfRRdSiN8euZaP2Ep18pfr7hbs=
-----END CERTIFICATE-----
