Certificate:
    Data:
        Version: 3 (0x2)
        Serial Number:
            f8:e9:30:1e:8d:f9:c7:ad:24:27:48:46:af:9c:53:26
        Signature Algorithm: sha256WithRSAEncryption
        Issuer: CN=team129-net
        Validity
            Not Before: Nov  4 11:30:02 2023 GMT
            Not After : Oct 19 11:30:02 2026 GMT
        Subject: CN=team129-server
        Subject Public Key Info:
            Public Key Algorithm: rsaEncryption
                Public-Key: (2048 bit)
                Modulus:
                    00:a6:03:d9:13:22:49:aa:f3:6f:44:42:bd:91:a0:
                    6d:30:ed:24:bd:42:55:d9:2a:34:03:ee:f7:6b:b3:
                    17:ee:30:fb:5a:d7:66:82:0b:ac:e2:ea:9b:b7:f4:
                    99:76:06:05:6a:9a:64:a6:3e:fe:5e:00:09:be:eb:
                    6c:ea:45:22:b5:5f:00:f6:e0:f3:82:b6:ec:5a:e3:
                    f2:82:de:0a:57:25:b4:40:cc:82:8b:da:31:25:bf:
                    12:a4:13:b8:a0:50:ce:c6:69:42:29:83:f6:fa:54:
                    31:71:01:5c:b7:c1:9e:09:e9:a4:69:4a:a6:84:03:
                    c0:f2:c9:fc:10:24:3c:c1:9a:e5:54:46:4e:a5:78:
                    3a:84:db:07:12:93:ef:e2:48:5b:68:84:21:18:87:
                    a0:b3:ce:7b:f4:5b:36:58:b6:a6:66:03:db:7d:be:
                    ee:7f:45:63:64:54:2e:78:db:04:15:c5:d7:2c:cd:
                    04:80:ec:ae:9b:3e:31:7a:5d:5f:50:64:e9:78:57:
                    31:ee:2e:14:5a:0d:9c:1a:63:bd:d1:8a:7a:9e:d1:
                    13:4c:08:01:e4:48:a5:4b:3b:e7:99:51:2a:4e:72:
                    f3:46:65:84:39:a6:0e:6c:49:a0:08:28:c6:3b:33:
                    97:dd:c8:e4:9c:80:ac:32:ad:a0:b8:80:ff:0a:10:
                    c3:15
                Exponent: 65537 (0x10001)
        X509v3 extensions:
            X509v3 Basic Constraints: 
                CA:FALSE
            X509v3 Subject Key Identifier: 
                A6:C3:2F:B9:93:22:8B:E2:93:1A:DF:94:14:C2:01:28:DD:CC:09:F7
            X509v3 Authority Key Identifier: 
                keyid:F7:C8:57:94:0B:2D:FD:A0:C8:F2:80:37:8D:AC:A1:5B:79:6A:06:AE
                DirName:/CN=team129-net
                serial:3C:9C:A9:59:E1:E4:93:84:22:03:A5:5D:72:E8:EB:B7:FF:CE:FF:18
            X509v3 Extended Key Usage: 
                TLS Web Server Authentication
            X509v3 Key Usage: 
                Digital Signature, Key Encipherment
            X509v3 Subject Alternative Name: 
                DNS:team129-server
    Signature Algorithm: sha256WithRSAEncryption
    Signature Value:
        93:7d:f1:84:ff:8f:33:66:21:f4:0e:74:85:8e:b3:61:12:f5:
        64:a9:e2:8d:85:16:16:4f:1b:74:cb:66:8c:85:6e:29:1d:58:
        36:aa:f5:e0:2f:03:58:6b:de:96:b2:f2:80:c4:ee:92:0d:06:
        6d:df:77:03:62:10:aa:51:89:69:8a:2b:6b:b7:b0:17:47:9e:
        d3:21:a1:06:2d:92:1b:99:42:dd:5e:3e:94:af:c1:d4:4a:fe:
        66:41:34:6f:6a:63:2a:9b:47:cd:ef:6b:be:1b:fb:c4:25:4f:
        d6:29:f5:d1:0c:21:89:a2:19:0e:92:91:f7:ec:e8:e0:09:5a:
        ab:2c:a7:7c:a3:bd:ed:f2:82:7a:f2:ae:13:a1:2a:8f:d2:32:
        42:fa:36:0f:44:c2:01:5b:5e:a9:3e:ae:bf:12:6b:75:cf:b8:
        40:92:69:aa:31:d5:ff:be:38:62:01:95:4b:3f:ef:8d:cd:a3:
        d9:1e:a2:47:78:0b:02:8b:0b:53:9e:34:98:33:8c:60:f7:28:
        34:71:d8:58:11:42:22:7b:4f:90:46:5e:7c:5b:17:b0:4a:1f:
        e4:1a:46:1b:04:05:1f:e7:9a:25:71:a6:e1:fd:77:c5:63:96:
        b3:56:61:2a:1a:0d:9f:0f:5e:5e:63:0e:31:62:ad:37:cc:a1:
        9d:42:e5:9e
-----BEGIN CERTIFICATE-----
MIIDeDCCAmCgAwIBAgIRAPjpMB6N+cetJCdIRq+cUyYwDQYJKoZIhvcNAQELBQAw
FjEUMBIGA1UEAwwLdGVhbTEyOS1uZXQwHhcNMjMxMTA0MTEzMDAyWhcNMjYxMDE5
MTEzMDAyWjAZMRcwFQYDVQQDDA50ZWFtMTI5LXNlcnZlcjCCASIwDQYJKoZIhvcN
AQEBBQADggEPADCCAQoCggEBAKYD2RMiSarzb0RCvZGgbTDtJL1CVdkqNAPu92uz
F+4w+1rXZoILrOLqm7f0mXYGBWqaZKY+/l4ACb7rbOpFIrVfAPbg84K27Frj8oLe
ClcltEDMgovaMSW/EqQTuKBQzsZpQimD9vpUMXEBXLfBngnppGlKpoQDwPLJ/BAk
PMGa5VRGTqV4OoTbBxKT7+JIW2iEIRiHoLPOe/RbNli2pmYD232+7n9FY2RULnjb
BBXF1yzNBIDsrps+MXpdX1Bk6XhXMe4uFFoNnBpjvdGKep7RE0wIAeRIpUs755lR
Kk5y80ZlhDmmDmxJoAgoxjszl93I5JyArDKtoLiA/woQwxUCAwEAAaOBvTCBujAJ
BgNVHRMEAjAAMB0GA1UdDgQWBBSmwy+5kyKL4pMa35QUwgEo3cwJ9zBRBgNVHSME
SjBIgBT3yFeUCy39oMjygDeNrKFbeWoGrqEapBgwFjEUMBIGA1UEAwwLdGVhbTEy
OS1uZXSCFDycqVnh5JOEIgOlXXLo67f/zv8YMBMGA1UdJQQMMAoGCCsGAQUFBwMB
MAsGA1UdDwQEAwIFoDAZBgNVHREEEjAQgg50ZWFtMTI5LXNlcnZlcjANBgkqhkiG
9w0BAQsFAAOCAQEAk33xhP+PM2Yh9A50hY6zYRL1ZKnijYUWFk8bdMtmjIVuKR1Y
Nqr14C8DWGvelrLygMTukg0Gbd93A2IQqlGJaYora7ewF0ee0yGhBi2SG5lC3V4+
lK/B1Er+ZkE0b2pjKptHze9rvhv7xCVP1in10QwhiaIZDpKR9+zo4AlaqyynfKO9
7fKCevKuE6Eqj9IyQvo2D0TCAVteqT6uvxJrdc+4QJJpqjHV/744YgGVSz/vjc2j
2R6iR3gLAosLU540mDOMYPcoNHHYWBFCIntPkEZefFsXsEof5BpGGwQFH+eaJXGm
4f13xWOWs1ZhKhoNnw9eXmMOMWKtN8yhnULlng==
-----END CERTIFICATE-----
