Certificate:
    Data:
        Version: 3 (0x2)
        Serial Number:
            83:42:e9:ff:bd:15:e7:c1:2f:b2:db:be:13:dd:4d:55
        Signature Algorithm: sha256WithRSAEncryption
        Issuer: CN=team209-net
        Validity
            Not Before: Nov  4 10:44:32 2023 GMT
            Not After : Oct 19 10:44:32 2026 GMT
        Subject: CN=team209-server
        Subject Public Key Info:
            Public Key Algorithm: rsaEncryption
                Public-Key: (2048 bit)
                Modulus:
                    00:c7:89:0a:4f:f0:24:a1:78:61:08:cb:ea:d0:4b:
                    d5:80:a3:ce:78:f9:26:9f:ab:24:d2:93:0b:57:35:
                    b9:7e:9c:63:93:16:66:d5:1c:cf:1a:5d:55:19:59:
                    ce:81:1d:66:be:87:bd:43:d7:c1:30:ab:80:ee:b0:
                    4e:d4:79:b8:2a:0b:af:32:df:ca:bb:bf:df:1c:eb:
                    98:fc:a0:0a:11:2f:9d:d4:8b:97:38:2f:7a:22:10:
                    a2:41:ed:36:67:a3:fc:2a:25:28:34:df:fa:4b:64:
                    6c:85:1c:bf:31:b6:e3:17:b4:25:1f:9e:3e:4f:ce:
                    9d:50:44:b6:13:60:12:31:9d:8d:13:91:47:3e:e9:
                    64:dd:38:b3:2d:cb:61:f3:a7:06:12:d8:e4:68:2d:
                    cc:33:65:d5:5f:a3:4e:0e:8c:6d:fa:b0:dc:3b:89:
                    85:7a:ed:fd:66:6a:ff:f1:9c:f8:0a:40:4d:f6:10:
                    42:27:ce:55:fe:20:bc:33:07:8c:62:6c:39:48:09:
                    04:73:77:32:3c:35:89:50:45:c2:9b:cb:3c:0c:04:
                    9c:39:81:4b:ce:9e:da:55:1c:fa:6f:15:11:e0:78:
                    e0:36:57:aa:cf:00:6f:ba:f3:2e:9a:55:5a:27:03:
                    32:64:d5:0d:0f:9d:a7:22:ed:d7:c7:25:55:dd:37:
                    92:1b
                Exponent: 65537 (0x10001)
        X509v3 extensions:
            X509v3 Basic Constraints: 
                CA:FALSE
            X509v3 Subject Key Identifier: 
                BD:A2:0D:75:8A:5E:17:C0:E0:9E:EE:1A:EF:B6:DB:B9:ED:21:AF:55
            X509v3 Authority Key Identifier: 
                keyid:CD:80:E4:96:BB:CF:5B:30:AA:F0:EA:E5:62:0C:47:60:C1:8D:01:B8
                DirName:/CN=team209-net
                serial:7A:1F:F3:82:65:0C:E8:E7:2D:ED:D5:BD:3B:E5:4B:1D:73:51:F6:04
            X509v3 Extended Key Usage: 
                TLS Web Server Authentication
            X509v3 Key Usage: 
                Digital Signature, Key Encipherment
            X509v3 Subject Alternative Name: 
                DNS:team209-server
    Signature Algorithm: sha256WithRSAEncryption
    Signature Value:
        03:29:cb:cd:63:f7:a3:87:01:fa:5d:29:91:ae:86:29:82:87:
        8b:ac:2e:4b:d6:ed:6e:7c:7a:66:3e:ac:2a:fe:17:a4:d7:67:
        e1:0d:74:f1:99:57:26:a9:35:0f:ab:9f:1a:2e:65:1d:2f:31:
        f2:31:ed:e1:04:ce:e2:de:5d:2f:aa:55:07:f1:47:04:e8:94:
        ab:01:71:c2:36:8a:49:ce:80:42:76:7b:dc:7f:e2:5c:1f:61:
        b3:a2:ce:8a:cf:ba:f6:96:5a:82:d5:71:f1:3a:be:1f:0f:3b:
        4b:b0:c1:b6:ba:87:29:ab:62:2f:eb:07:26:b2:e2:8b:1d:98:
        3e:3f:2c:f0:0d:e4:40:68:a8:aa:9e:fa:60:20:bc:f1:37:16:
        e0:30:f1:02:10:b5:33:74:7d:03:f2:87:37:fd:e6:fa:5e:c9:
        19:ae:49:90:0a:fd:34:15:50:95:1a:a8:f1:01:47:7f:38:b0:
        29:ed:c7:5e:f0:e8:e6:bc:e4:ff:79:06:9f:60:7f:65:56:5c:
        4d:f1:61:c6:fb:de:f8:21:60:84:44:90:db:62:1b:01:1b:c3:
        02:5a:90:31:14:51:46:5d:86:8f:c8:ea:38:7d:9f:4f:72:4d:
        11:c4:5b:e7:6a:31:11:57:a0:76:ca:51:87:83:56:fa:40:3f:
        6e:bb:79:ae
-----BEGIN CERTIFICATE-----
MIIDeDCCAmCgAwIBAgIRAINC6f+9FefBL7LbvhPdTVUwDQYJKoZIhvcNAQELBQAw
FjEUMBIGA1UEAwwLdGVhbTIwOS1uZXQwHhcNMjMxMTA0MTA0NDMyWhcNMjYxMDE5
MTA0NDMyWjAZMRcwFQYDVQQDDA50ZWFtMjA5LXNlcnZlcjCCASIwDQYJKoZIhvcN
AQEBBQADggEPADCCAQoCggEBAMeJCk/wJKF4YQjL6tBL1YCjznj5Jp+rJNKTC1c1
uX6cY5MWZtUczxpdVRlZzoEdZr6HvUPXwTCrgO6wTtR5uCoLrzLfyru/3xzrmPyg
ChEvndSLlzgveiIQokHtNmej/ColKDTf+ktkbIUcvzG24xe0JR+ePk/OnVBEthNg
EjGdjRORRz7pZN04sy3LYfOnBhLY5GgtzDNl1V+jTg6Mbfqw3DuJhXrt/WZq//Gc
+ApATfYQQifOVf4gvDMHjGJsOUgJBHN3Mjw1iVBFwpvLPAwEnDmBS86e2lUc+m8V
EeB44DZXqs8Ab7rzLppVWicDMmTVDQ+dpyLt18clVd03khsCAwEAAaOBvTCBujAJ
BgNVHRMEAjAAMB0GA1UdDgQWBBS9og11il4XwOCe7hrvttu57SGvVTBRBgNVHSME
SjBIgBTNgOSWu89bMKrw6uViDEdgwY0BuKEapBgwFjEUMBIGA1UEAwwLdGVhbTIw
OS1uZXSCFHof84JlDOjnLe3VvTvlSx1zUfYEMBMGA1UdJQQMMAoGCCsGAQUFBwMB
MAsGA1UdDwQEAwIFoDAZBgNVHREEEjAQgg50ZWFtMjA5LXNlcnZlcjANBgkqhkiG
9w0BAQsFAAOCAQEAAynLzWP3o4cB+l0pka6GKYKHi6wuS9btbnx6Zj6sKv4XpNdn
4Q108ZlXJqk1D6ufGi5lHS8x8jHt4QTO4t5dL6pVB/FHBOiUqwFxwjaKSc6AQnZ7
3H/iXB9hs6LOis+69pZagtVx8Tq+Hw87S7DBtrqHKatiL+sHJrLiix2YPj8s8A3k
QGioqp76YCC88TcW4DDxAhC1M3R9A/KHN/3m+l7JGa5JkAr9NBVQlRqo8QFHfziw
Ke3HXvDo5rzk/3kGn2B/ZVZcTfFhxvve+CFghESQ22IbARvDAlqQMRRRRl2Gj8jq
OH2fT3JNEcRb52oxEVegdspRh4NW+kA/brt5rg==
-----END CERTIFICATE-----
