Certificate:
    Data:
        Version: 3 (0x2)
        Serial Number:
            9f:57:1a:68:33:0e:3c:4b:b2:43:cd:94:7f:a4:08:f0
        Signature Algorithm: sha256WithRSAEncryption
        Issuer: CN=team209-net
        Validity
            Not Before: Nov  4 11:31:45 2023 GMT
            Not After : Oct 19 11:31:45 2026 GMT
        Subject: CN=team209-server
        Subject Public Key Info:
            Public Key Algorithm: rsaEncryption
                Public-Key: (2048 bit)
                Modulus:
                    00:8f:14:35:e3:b7:0f:2c:89:de:63:ff:b8:56:60:
                    fa:64:e7:3c:a9:9a:15:6f:57:3f:27:60:15:0f:3b:
                    43:c1:38:30:6e:25:40:ec:52:56:f4:3e:3a:d5:cb:
                    7f:51:65:69:2d:62:4a:fe:f0:6c:f1:10:3e:2b:aa:
                    7b:7e:28:cd:9e:7a:70:e9:47:bf:b2:f0:58:3c:dc:
                    36:b4:f3:16:d1:47:f2:92:c8:15:f1:b5:bd:54:58:
                    3b:23:e8:6d:26:de:6d:c5:74:78:ba:18:e0:e8:eb:
                    ba:66:6b:ae:98:5a:e3:1d:d7:0f:59:b1:16:d2:45:
                    89:dc:f2:1e:e9:52:df:ca:a9:9f:7d:81:df:a4:3a:
                    79:9a:bb:78:14:13:7c:cc:44:87:af:6a:55:cf:54:
                    ee:87:35:ee:68:e9:4a:90:4d:5b:ce:d4:e5:4a:af:
                    24:a2:9f:5d:13:6f:01:33:f5:bc:42:51:e7:07:39:
                    d8:d3:b5:25:94:b2:25:6a:3a:01:8f:ba:a2:8c:bf:
                    c7:63:d9:df:ee:06:a8:ca:07:fb:d6:32:fb:ae:68:
                    f6:2a:8b:de:2b:c0:11:17:c9:7f:ba:63:58:d0:4f:
                    5f:25:eb:00:16:ff:69:b1:b0:1b:d3:92:b9:37:4f:
                    af:64:ec:52:ec:f2:b8:d6:33:d6:f2:90:83:3a:4a:
                    3a:fd
                Exponent: 65537 (0x10001)
        X509v3 extensions:
            X509v3 Basic Constraints: 
                CA:FALSE
            X509v3 Subject Key Identifier: 
                F6:63:57:4A:85:7A:41:C0:FE:FF:04:EE:76:C7:92:25:43:78:94:D3
            X509v3 Authority Key Identifier: 
                keyid:E9:63:0B:2A:C8:02:64:6D:DF:61:C2:25:81:24:DE:E5:57:9E:6C:C2
                DirName:/CN=team209-net
                serial:31:00:ED:00:9B:84:29:ED:19:1A:E3:CE:1A:83:09:C8:86:C2:AB:2D
            X509v3 Extended Key Usage: 
                TLS Web Server Authentication
            X509v3 Key Usage: 
                Digital Signature, Key Encipherment
            X509v3 Subject Alternative Name: 
                DNS:team209-server
    Signature Algorithm: sha256WithRSAEncryption
    Signature Value:
        01:d9:b0:c2:c9:e7:e6:49:00:5c:4f:c2:95:b7:50:ce:1d:47:
        0e:48:cb:9b:93:c5:29:8e:d0:58:b2:14:b3:09:12:44:42:d7:
        e1:29:b5:6c:76:8b:27:b5:4f:40:b6:b7:a4:bd:21:d7:f1:8e:
        49:bb:04:a8:d8:c2:dc:6d:4c:f4:fa:2e:bf:fc:8c:be:e2:03:
        d7:fc:a0:db:e2:e3:b1:e8:d1:07:57:8b:c5:86:6e:e1:72:4a:
        ff:b6:8c:ad:aa:05:50:d4:32:a7:5b:a1:34:e5:be:a0:8e:a7:
        5d:45:c5:52:f2:86:9c:b0:24:cb:d5:69:62:c0:49:e1:56:0a:
        e6:b0:25:75:b0:d8:16:1b:d6:b7:2a:99:ec:17:7d:67:6f:ae:
        e0:e9:d4:7b:ba:f7:dc:fa:28:7f:dc:52:bf:99:65:91:11:e8:
        8e:11:e6:fc:1e:52:93:74:34:16:82:d5:2c:9b:8b:82:81:49:
        b6:90:e2:d2:e1:8b:d0:11:4d:b1:03:82:70:7d:aa:d3:9d:c4:
        89:e5:19:6d:50:cb:26:a9:7c:ec:f5:48:7b:38:42:f0:4e:8c:
        f7:cf:12:f3:12:10:e4:39:03:c9:89:cb:c4:31:0d:be:df:83:
        51:2e:06:7a:56:48:68:88:fd:c1:3b:9c:98:e0:8b:1c:11:5d:
        96:a5:61:25
-----BEGIN CERTIFICATE-----
MIIDeDCCAmCgAwIBAgIRAJ9XGmgzDjxLskPNlH+kCPAwDQYJKoZIhvcNAQELBQAw
FjEUMBIGA1UEAwwLdGVhbTIwOS1uZXQwHhcNMjMxMTA0MTEzMTQ1WhcNMjYxMDE5
MTEzMTQ1WjAZMRcwFQYDVQQDDA50ZWFtMjA5LXNlcnZlcjCCASIwDQYJKoZIhvcN
AQEBBQADggEPADCCAQoCggEBAI8UNeO3DyyJ3mP/uFZg+mTnPKmaFW9XPydgFQ87
Q8E4MG4lQOxSVvQ+OtXLf1FlaS1iSv7wbPEQPiuqe34ozZ56cOlHv7LwWDzcNrTz
FtFH8pLIFfG1vVRYOyPobSbebcV0eLoY4OjrumZrrpha4x3XD1mxFtJFidzyHulS
38qpn32B36Q6eZq7eBQTfMxEh69qVc9U7oc17mjpSpBNW87U5UqvJKKfXRNvATP1
vEJR5wc52NO1JZSyJWo6AY+6ooy/x2PZ3+4GqMoH+9Yy+65o9iqL3ivAERfJf7pj
WNBPXyXrABb/abGwG9OSuTdPr2TsUuzyuNYz1vKQgzpKOv0CAwEAAaOBvTCBujAJ
BgNVHRMEAjAAMB0GA1UdDgQWBBT2Y1dKhXpBwP7/BO52x5IlQ3iU0zBRBgNVHSME
SjBIgBTpYwsqyAJkbd9hwiWBJN7lV55swqEapBgwFjEUMBIGA1UEAwwLdGVhbTIw
OS1uZXSCFDEA7QCbhCntGRrjzhqDCciGwqstMBMGA1UdJQQMMAoGCCsGAQUFBwMB
MAsGA1UdDwQEAwIFoDAZBgNVHREEEjAQgg50ZWFtMjA5LXNlcnZlcjANBgkqhkiG
9w0BAQsFAAOCAQEAAdmwwsnn5kkAXE/ClbdQzh1HDkjLm5PFKY7QWLIUswkSRELX
4Sm1bHaLJ7VPQLa3pL0h1/GOSbsEqNjC3G1M9Pouv/yMvuID1/yg2+LjsejRB1eL
xYZu4XJK/7aMraoFUNQyp1uhNOW+oI6nXUXFUvKGnLAky9VpYsBJ4VYK5rAldbDY
FhvWtyqZ7Bd9Z2+u4OnUe7r33Poof9xSv5llkRHojhHm/B5Sk3Q0FoLVLJuLgoFJ
tpDi0uGL0BFNsQOCcH2q053EieUZbVDLJql87PVIezhC8E6M988S8xIQ5DkDyYnL
xDENvt+DUS4GelZIaIj9wTucmOCLHBFdlqVhJQ==
-----END CERTIFICATE-----
