Certificate:
    Data:
        Version: 3 (0x2)
        Serial Number:
            f5:7e:96:6a:8c:f6:c6:62:48:27:5d:44:48:1f:ba:81
        Signature Algorithm: sha256WithRSAEncryption
        Issuer: CN=team209-net
        Validity
            Not Before: Nov  3 20:43:04 2023 GMT
            Not After : Oct 18 20:43:04 2026 GMT
        Subject: CN=team209-client
        Subject Public Key Info:
            Public Key Algorithm: rsaEncryption
                Public-Key: (2048 bit)
                Modulus:
                    00:f5:ed:40:7a:3d:4b:c7:29:53:a7:ed:13:19:c9:
                    ec:7e:89:a3:a8:b7:5d:75:80:54:bc:4a:58:d7:77:
                    1e:f6:72:3b:2e:f3:26:f0:fa:5a:6b:fe:eb:7d:df:
                    4a:7e:9a:d0:02:55:43:cb:50:88:26:a1:10:cf:5c:
                    01:ca:52:dc:26:fe:c4:9f:dc:6b:24:74:26:7c:7f:
                    e7:bb:ec:c1:0f:54:b1:8d:4a:d2:a6:84:e9:4f:f5:
                    df:69:a3:ee:92:96:f1:ff:b1:28:77:b4:22:18:9d:
                    1e:cd:c6:11:b1:5b:b7:ae:9a:37:4c:dd:4b:c9:3d:
                    03:39:6d:ee:2a:e1:b7:71:22:cd:d9:a2:77:54:8f:
                    41:6b:1f:e1:a6:ad:56:4e:ac:a5:67:af:68:ba:19:
                    98:58:70:bb:cd:e5:2f:a9:07:10:a8:5b:27:ba:c5:
                    3b:34:4d:56:06:f0:c1:6e:bf:de:e5:82:08:b0:3f:
                    46:a6:de:6a:02:d5:9d:a5:b9:2a:f6:04:28:70:be:
                    8a:43:ef:a7:87:cc:8c:9d:8f:cf:9b:05:4e:8c:d1:
                    73:46:a0:c2:c1:20:e7:5d:02:48:43:1b:5c:cc:9f:
                    52:65:5a:b0:f6:64:47:c1:b1:f3:03:2a:4e:73:8b:
                    d5:ef:88:31:38:ea:cf:61:6b:42:08:54:04:09:a7:
                    04:d5
                Exponent: 65537 (0x10001)
        X509v3 extensions:
            X509v3 Basic Constraints: 
                CA:FALSE
            X509v3 Subject Key Identifier: 
                69:7A:22:54:6C:C4:19:6C:6F:3A:75:CF:52:CE:27:53:C8:15:C0:64
            X509v3 Authority Key Identifier: 
                keyid:71:3B:23:F4:39:02:22:22:8E:ED:C9:A9:73:94:0B:A8:E2:0D:27:99
                DirName:/CN=team209-net
                serial:07:EE:35:A8:E6:BF:29:97:29:AF:1F:9B:0A:1E:E3:4A:DD:12:CA:FC
            X509v3 Extended Key Usage: 
                TLS Web Client Authentication
            X509v3 Key Usage: 
                Digital Signature
    Signature Algorithm: sha256WithRSAEncryption
    Signature Value:
        15:f2:45:ac:72:2a:2c:5a:2e:6a:ee:db:65:e0:09:5d:f1:b5:
        d5:14:9c:f5:43:35:66:60:76:5e:b7:91:f3:fb:03:f0:b4:33:
        b3:81:fa:e7:76:eb:44:ac:41:d6:45:eb:5d:8b:67:84:eb:0e:
        3c:9c:64:48:f9:d4:2d:6f:60:b8:4c:a4:2a:5d:58:43:7f:d0:
        ac:64:98:a5:c1:58:64:c4:a2:e1:ba:ff:5e:f5:1c:a1:0e:a6:
        3a:f1:86:0a:a8:2c:37:c4:b0:7d:31:c7:30:c2:b9:6f:9e:bf:
        5b:87:17:60:57:9d:18:61:a6:99:c6:eb:3f:97:7a:6d:9a:da:
        b4:7a:0b:ab:ee:55:3c:d3:b6:65:bc:14:f0:b7:e6:5b:f9:1c:
        2c:64:2e:d1:44:3e:21:39:75:e1:59:44:ca:cb:8f:ea:7d:47:
        5a:80:f6:e7:70:67:16:76:ac:f9:3e:23:41:78:04:cc:8f:82:
        a2:bc:a5:40:aa:40:d9:2e:93:f0:8a:fb:49:d1:9c:27:c3:8e:
        70:a2:59:bd:05:67:6d:30:fc:99:c1:92:8e:d5:26:c6:27:da:
        e8:c5:1e:2b:ad:1a:46:d7:67:56:73:a9:43:e0:ed:cd:71:99:
        c1:59:98:08:9c:44:0a:3c:8a:c2:63:a5:39:cc:d3:d3:32:71:
        30:b0:c5:91
-----BEGIN CERTIFICATE-----
MIIDXTCCAkWgAwIBAgIRAPV+lmqM9sZiSCddREgfuoEwDQYJKoZIhvcNAQELBQAw
FjEUMBIGA1UEAwwLdGVhbTIwOS1uZXQwHhcNMjMxMTAzMjA0MzA0WhcNMjYxMDE4
MjA0MzA0WjAZMRcwFQYDVQQDDA50ZWFtMjA5LWNsaWVudDCCASIwDQYJKoZIhvcN
AQEBBQADggEPADCCAQoCggEBAPXtQHo9S8cpU6ftExnJ7H6Jo6i3XXWAVLxKWNd3
HvZyOy7zJvD6Wmv+633fSn6a0AJVQ8tQiCahEM9cAcpS3Cb+xJ/cayR0Jnx/57vs
wQ9UsY1K0qaE6U/132mj7pKW8f+xKHe0IhidHs3GEbFbt66aN0zdS8k9Azlt7irh
t3Eizdmid1SPQWsf4aatVk6spWevaLoZmFhwu83lL6kHEKhbJ7rFOzRNVgbwwW6/
3uWCCLA/RqbeagLVnaW5KvYEKHC+ikPvp4fMjJ2Pz5sFTozRc0agwsEg510CSEMb
XMyfUmVasPZkR8Gx8wMqTnOL1e+IMTjqz2FrQghUBAmnBNUCAwEAAaOBojCBnzAJ
BgNVHRMEAjAAMB0GA1UdDgQWBBRpeiJUbMQZbG86dc9SzidTyBXAZDBRBgNVHSME
SjBIgBRxOyP0OQIiIo7tyalzlAuo4g0nmaEapBgwFjEUMBIGA1UEAwwLdGVhbTIw
OS1uZXSCFAfuNajmvymXKa8fmwoe40rdEsr8MBMGA1UdJQQMMAoGCCsGAQUFBwMC
MAsGA1UdDwQEAwIHgDANBgkqhkiG9w0BAQsFAAOCAQEAFfJFrHIqLFouau7bZeAJ
XfG11RSc9UM1ZmB2XreR8/sD8LQzs4H653brRKxB1kXrXYtnhOsOPJxkSPnULW9g
uEykKl1YQ3/QrGSYpcFYZMSi4br/XvUcoQ6mOvGGCqgsN8SwfTHHMMK5b56/W4cX
YFedGGGmmcbrP5d6bZratHoLq+5VPNO2ZbwU8LfmW/kcLGQu0UQ+ITl14VlEysuP
6n1HWoD253BnFnas+T4jQXgEzI+CorylQKpA2S6T8Ir7SdGcJ8OOcKJZvQVnbTD8
mcGSjtUmxifa6MUeK60aRtdnVnOpQ+DtzXGZwVmYCJxECjyKwmOlOczT0zJxMLDF
kQ==
-----END CERTIFICATE-----
