Certificate:
    Data:
        Version: 3 (0x2)
        Serial Number:
            0f:ad:f6:8d:7d:f5:74:cd:09:b4:33:7f:3b:eb:cf:3c
        Signature Algorithm: sha256WithRSAEncryption
        Issuer: CN=team244-net
        Validity
            Not Before: Nov  3 20:43:45 2023 GMT
            Not After : Oct 18 20:43:45 2026 GMT
        Subject: CN=team244-server
        Subject Public Key Info:
            Public Key Algorithm: rsaEncryption
                Public-Key: (2048 bit)
                Modulus:
                    00:e7:0c:e7:4b:10:61:46:36:c9:2e:07:37:2c:d9:
                    cf:e5:e5:8e:ee:51:f3:3a:b7:e6:36:df:3d:e2:dc:
                    9b:48:e3:0b:30:8f:f1:34:b5:57:ca:7c:4d:a3:68:
                    31:2e:ff:ee:cf:87:25:e6:e3:17:e7:24:e1:f5:8f:
                    c1:80:9d:cd:c1:03:f1:4c:15:d5:d4:45:16:bb:0f:
                    41:fe:4b:bd:65:c0:c7:d1:41:14:e9:06:f0:3e:2b:
                    07:86:37:ec:ad:f5:83:27:57:da:fa:7e:57:90:e6:
                    da:75:9b:4c:e3:ec:d3:61:19:1f:e4:7b:37:b9:80:
                    94:de:45:14:c8:f4:16:98:54:21:f1:d8:27:c1:53:
                    ea:27:3f:50:fc:47:e0:49:5d:78:40:e3:61:c0:50:
                    ec:57:a4:9e:58:14:8c:26:ba:95:47:62:71:95:3d:
                    7e:36:f3:69:ab:cf:f5:e6:f5:7c:08:4d:63:22:4b:
                    38:a3:0d:7a:b8:9c:e6:c5:d0:68:b6:01:d5:60:ce:
                    81:24:98:1f:ab:4d:89:ce:08:a1:bb:44:42:1a:e2:
                    71:e7:b5:d0:f4:24:5b:ca:6f:ee:ea:08:e0:2b:d5:
                    11:25:f3:f3:a0:26:c9:07:c5:c9:84:69:a9:da:a5:
                    04:b0:30:79:a3:4c:73:fe:f9:7e:4a:35:ee:e0:0a:
                    fa:3f
                Exponent: 65537 (0x10001)
        X509v3 extensions:
            X509v3 Basic Constraints: 
                CA:FALSE
            X509v3 Subject Key Identifier: 
                63:CB:2A:FA:0C:3D:81:6F:04:F3:E9:2C:84:7D:8B:E1:52:2A:CE:F8
            X509v3 Authority Key Identifier: 
                keyid:40:BA:B5:79:18:C6:3A:DB:AD:3D:9D:07:37:70:77:FA:B1:C8:30:22
                DirName:/CN=team244-net
                serial:64:F9:BF:7B:01:31:F1:1A:2B:05:1F:74:FD:4B:47:B7:8A:53:AD:64
            X509v3 Extended Key Usage: 
                TLS Web Server Authentication
            X509v3 Key Usage: 
                Digital Signature, Key Encipherment
            X509v3 Subject Alternative Name: 
                DNS:team244-server
    Signature Algorithm: sha256WithRSAEncryption
    Signature Value:
        2b:9e:60:de:88:21:a8:eb:16:50:a5:78:a7:ee:51:61:6b:ca:
        79:85:19:9d:5e:4c:11:86:53:1c:33:25:cf:36:6f:61:b7:6f:
        31:07:10:18:7f:44:79:2c:b5:58:1f:95:9f:b2:32:fe:05:2b:
        d5:0f:fc:ad:28:a5:1c:fc:f8:6a:9f:dc:97:a3:d7:c3:4d:73:
        ef:29:7c:14:94:b0:0f:2b:3d:46:0b:d3:de:bd:09:35:8b:a8:
        84:d2:7e:4a:55:8e:80:02:b3:48:be:55:58:4d:a0:dd:12:fe:
        17:6d:1c:3f:9e:fe:0e:9a:4a:82:eb:d8:a4:92:54:56:53:b1:
        88:38:d6:ff:7b:9e:1f:9c:a2:3e:13:9c:7b:d9:5b:cc:a1:32:
        2e:6f:3f:c3:ef:04:ac:2b:ec:4e:97:d5:8e:51:28:e9:5b:17:
        45:69:28:ad:30:4a:b8:7a:4d:5c:bb:ff:2d:28:52:d9:3c:de:
        5d:95:21:f2:23:13:9f:86:c4:13:1c:b1:78:2b:02:90:8e:a1:
        b5:3f:78:18:b6:55:72:09:8f:cf:0d:56:18:f0:55:f6:11:ca:
        63:21:5e:99:13:9c:59:c2:51:69:53:e9:20:4b:cf:79:f4:03:
        3e:c9:1f:3c:22:51:86:3f:89:2a:77:24:26:75:19:9a:b7:4b:
        a1:21:ea:70
-----BEGIN CERTIFICATE-----
MIIDdzCCAl+gAwIBAgIQD632jX31dM0JtDN/O+vPPDANBgkqhkiG9w0BAQsFADAW
MRQwEgYDVQQDDAt0ZWFtMjQ0LW5ldDAeFw0yMzExMDMyMDQzNDVaFw0yNjEwMTgy
MDQzNDVaMBkxFzAVBgNVBAMMDnRlYW0yNDQtc2VydmVyMIIBIjANBgkqhkiG9w0B
AQEFAAOCAQ8AMIIBCgKCAQEA5wznSxBhRjbJLgc3LNnP5eWO7lHzOrfmNt894tyb
SOMLMI/xNLVXynxNo2gxLv/uz4cl5uMX5yTh9Y/BgJ3NwQPxTBXV1EUWuw9B/ku9
ZcDH0UEU6QbwPisHhjfsrfWDJ1fa+n5XkObadZtM4+zTYRkf5Hs3uYCU3kUUyPQW
mFQh8dgnwVPqJz9Q/EfgSV14QONhwFDsV6SeWBSMJrqVR2JxlT1+NvNpq8/15vV8
CE1jIks4ow16uJzmxdBotgHVYM6BJJgfq02Jzgihu0RCGuJx57XQ9CRbym/u6gjg
K9URJfPzoCbJB8XJhGmp2qUEsDB5o0xz/vl+SjXu4Ar6PwIDAQABo4G9MIG6MAkG
A1UdEwQCMAAwHQYDVR0OBBYEFGPLKvoMPYFvBPPpLIR9i+FSKs74MFEGA1UdIwRK
MEiAFEC6tXkYxjrbrT2dBzdwd/qxyDAioRqkGDAWMRQwEgYDVQQDDAt0ZWFtMjQ0
LW5ldIIUZPm/ewEx8RorBR90/UtHt4pTrWQwEwYDVR0lBAwwCgYIKwYBBQUHAwEw
CwYDVR0PBAQDAgWgMBkGA1UdEQQSMBCCDnRlYW0yNDQtc2VydmVyMA0GCSqGSIb3
DQEBCwUAA4IBAQArnmDeiCGo6xZQpXin7lFha8p5hRmdXkwRhlMcMyXPNm9ht28x
BxAYf0R5LLVYH5WfsjL+BSvVD/ytKKUc/Phqn9yXo9fDTXPvKXwUlLAPKz1GC9Pe
vQk1i6iE0n5KVY6AArNIvlVYTaDdEv4XbRw/nv4OmkqC69ikklRWU7GIONb/e54f
nKI+E5x72VvMoTIubz/D7wSsK+xOl9WOUSjpWxdFaSitMEq4ek1cu/8tKFLZPN5d
lSHyIxOfhsQTHLF4KwKQjqG1P3gYtlVyCY/PDVYY8FX2EcpjIV6ZE5xZwlFpU+kg
S8959AM+yR88IlGGP4kqdyQmdRmat0uhIepw
-----END CERTIFICATE-----
