Certificate:
    Data:
        Version: 3 (0x2)
        Serial Number:
            ae:97:4c:d5:81:ca:5f:e6:a0:86:80:92:53:2d:2f:40
        Signature Algorithm: sha256WithRSAEncryption
        Issuer: CN=team244-net
        Validity
            Not Before: Nov  4 11:32:25 2023 GMT
            Not After : Oct 19 11:32:25 2026 GMT
        Subject: CN=team244-client
        Subject Public Key Info:
            Public Key Algorithm: rsaEncryption
                Public-Key: (2048 bit)
                Modulus:
                    00:ad:fc:da:8d:52:48:63:58:41:59:05:e0:f9:8e:
                    8f:5f:9a:9e:17:32:2d:27:8d:d9:9d:8c:97:f8:2a:
                    b3:93:4d:10:76:5e:74:4b:f8:62:bf:e9:2e:ec:bb:
                    2f:49:63:b6:12:cd:13:5f:7e:8c:12:d5:ea:e2:2a:
                    db:88:ff:33:02:d3:92:c9:86:5c:63:4b:4e:b8:f0:
                    01:5d:c3:6d:f4:4d:60:8e:8c:7e:0e:e1:1a:29:24:
                    3d:0e:2d:cf:c2:24:4e:0b:df:36:87:44:f4:3e:b5:
                    e3:67:45:f8:f8:53:37:89:c5:5d:b3:90:d3:29:40:
                    c4:3c:f4:83:4f:c8:46:94:57:b2:4b:65:6f:5f:e5:
                    87:b4:45:63:2b:57:01:18:08:f6:27:01:a7:31:98:
                    98:af:2a:01:19:cc:80:cd:4a:74:b4:fc:5f:59:a3:
                    4a:8d:b7:c8:88:4a:4e:0d:86:14:89:81:63:9e:73:
                    e3:11:08:62:65:1d:0d:5f:84:41:cc:0e:09:48:d4:
                    85:88:e4:7a:02:43:26:6c:a9:e8:55:48:aa:5d:52:
                    8e:6a:19:6a:88:fc:a9:4b:c9:70:02:53:94:4c:99:
                    b4:75:98:b5:cf:70:58:42:52:00:78:ec:79:34:35:
                    4b:6b:47:65:2c:d0:4c:f6:09:c7:44:e2:82:2f:e4:
                    9b:47
                Exponent: 65537 (0x10001)
        X509v3 extensions:
            X509v3 Basic Constraints: 
                CA:FALSE
            X509v3 Subject Key Identifier: 
                A8:10:07:D4:01:7A:83:37:AB:10:1B:77:80:D0:F7:40:66:86:53:3A
            X509v3 Authority Key Identifier: 
                keyid:8C:82:19:5C:BD:E7:AC:57:55:56:BD:9B:A6:A4:78:E2:99:2A:32:96
                DirName:/CN=team244-net
                serial:74:15:61:8E:AE:79:40:EC:F4:F5:1F:5C:97:7C:24:1D:57:0E:37:2B
            X509v3 Extended Key Usage: 
                TLS Web Client Authentication
            X509v3 Key Usage: 
                Digital Signature
    Signature Algorithm: sha256WithRSAEncryption
    Signature Value:
        48:56:16:16:32:41:5d:82:a0:f5:76:aa:ef:10:69:26:6c:3b:
        c3:1c:09:dd:5f:69:02:97:9e:82:14:c5:7a:ed:f8:b8:1e:8e:
        e3:20:9c:18:b0:58:f2:8c:50:2e:97:71:1a:7c:4a:da:8f:18:
        08:a2:f0:74:8a:ec:10:08:e3:2f:be:64:d0:ee:94:7c:45:8c:
        5a:2b:8f:6e:da:0e:61:cf:d8:12:bd:33:dd:3e:a2:e2:7e:3c:
        9e:b6:21:e5:d7:89:49:a1:d7:3f:43:3d:50:52:4a:48:c7:ff:
        90:96:72:29:a7:b4:4c:87:17:2b:44:0a:f1:4e:0c:ce:f2:af:
        9c:07:93:31:63:37:a2:09:18:93:89:75:73:09:de:47:86:57:
        a9:59:ee:89:de:b6:6f:18:55:19:af:49:9e:a4:1e:7c:9b:12:
        49:0b:db:74:78:90:b6:a3:5c:5e:8d:04:99:ee:2f:4c:33:49:
        f0:c9:7d:e2:82:3e:e0:35:43:d0:56:d0:7e:c0:63:12:03:b0:
        09:2c:8d:9a:25:00:cc:83:ef:c9:b1:6b:7f:bf:0c:a6:bd:9d:
        92:c7:86:45:08:bb:2e:57:a9:33:04:b8:dd:f4:6e:01:fb:17:
        79:86:f0:8a:25:71:38:d4:4c:d9:a9:f5:7f:d1:48:14:75:2c:
        d5:db:6c:14
-----BEGIN CERTIFICATE-----
MIIDXTCCAkWgAwIBAgIRAK6XTNWByl/moIaAklMtL0AwDQYJKoZIhvcNAQELBQAw
FjEUMBIGA1UEAwwLdGVhbTI0NC1uZXQwHhcNMjMxMTA0MTEzMjI1WhcNMjYxMDE5
MTEzMjI1WjAZMRcwFQYDVQQDDA50ZWFtMjQ0LWNsaWVudDCCASIwDQYJKoZIhvcN
AQEBBQADggEPADCCAQoCggEBAK382o1SSGNYQVkF4PmOj1+anhcyLSeN2Z2Ml/gq
s5NNEHZedEv4Yr/pLuy7L0ljthLNE19+jBLV6uIq24j/MwLTksmGXGNLTrjwAV3D
bfRNYI6Mfg7hGikkPQ4tz8IkTgvfNodE9D6142dF+PhTN4nFXbOQ0ylAxDz0g0/I
RpRXsktlb1/lh7RFYytXARgI9icBpzGYmK8qARnMgM1KdLT8X1mjSo23yIhKTg2G
FImBY55z4xEIYmUdDV+EQcwOCUjUhYjkegJDJmyp6FVIql1SjmoZaoj8qUvJcAJT
lEyZtHWYtc9wWEJSAHjseTQ1S2tHZSzQTPYJx0Tigi/km0cCAwEAAaOBojCBnzAJ
BgNVHRMEAjAAMB0GA1UdDgQWBBSoEAfUAXqDN6sQG3eA0PdAZoZTOjBRBgNVHSME
SjBIgBSMghlcveesV1VWvZumpHjimSoylqEapBgwFjEUMBIGA1UEAwwLdGVhbTI0
NC1uZXSCFHQVYY6ueUDs9PUfXJd8JB1XDjcrMBMGA1UdJQQMMAoGCCsGAQUFBwMC
MAsGA1UdDwQEAwIHgDANBgkqhkiG9w0BAQsFAAOCAQEASFYWFjJBXYKg9Xaq7xBp
Jmw7wxwJ3V9pApeeghTFeu34uB6O4yCcGLBY8oxQLpdxGnxK2o8YCKLwdIrsEAjj
L75k0O6UfEWMWiuPbtoOYc/YEr0z3T6i4n48nrYh5deJSaHXP0M9UFJKSMf/kJZy
Kae0TIcXK0QK8U4MzvKvnAeTMWM3ogkYk4l1cwneR4ZXqVnuid62bxhVGa9JnqQe
fJsSSQvbdHiQtqNcXo0Eme4vTDNJ8Ml94oI+4DVD0FbQfsBjEgOwCSyNmiUAzIPv
ybFrf78Mpr2dkseGRQi7LlepMwS43fRuAfsXeYbwiiVxONRM2an1f9FIFHUs1dts
FA==
-----END CERTIFICATE-----
