Certificate:
    Data:
        Version: 3 (0x2)
        Serial Number:
            bf:7a:ee:a2:67:c6:af:a6:2a:c8:11:15:e7:d4:d1:ef
        Signature Algorithm: sha256WithRSAEncryption
        Issuer: CN=team244-net
        Validity
            Not Before: Nov  3 20:43:45 2023 GMT
            Not After : Oct 18 20:43:45 2026 GMT
        Subject: CN=team244-client
        Subject Public Key Info:
            Public Key Algorithm: rsaEncryption
                Public-Key: (2048 bit)
                Modulus:
                    00:c1:d1:0b:6c:d1:4f:d9:47:88:0b:90:e8:dd:87:
                    41:0c:a6:49:24:e2:c3:3a:e7:dd:1e:b2:35:d1:14:
                    84:23:b5:95:29:f1:d0:63:fa:eb:eb:14:13:eb:dc:
                    92:46:85:fd:6c:eb:c3:f3:72:d4:9f:8d:20:b4:c7:
                    7f:14:ea:18:0e:a4:fb:14:1d:ad:f8:b5:a1:46:22:
                    45:e7:a0:75:0a:26:4a:a4:13:b7:e6:dc:65:a2:e5:
                    b3:59:77:a3:96:e5:4c:6c:09:8e:c1:7e:5a:b4:32:
                    3d:03:40:4b:6c:59:58:28:fd:8c:1b:0e:cf:c1:c6:
                    58:7b:a5:b3:1f:3e:82:aa:f9:29:6b:e1:63:bd:47:
                    46:63:88:ad:99:84:99:d2:a4:1c:77:e3:4f:68:c4:
                    e2:df:ee:89:7c:68:e9:10:be:93:7e:20:b1:a6:81:
                    50:c7:98:aa:d6:16:6d:ad:59:29:f7:be:39:79:3a:
                    f1:b5:e8:8f:0d:68:10:98:ee:27:09:c2:e8:45:01:
                    ee:cb:14:67:38:00:6b:3e:7d:13:01:ab:84:ec:2e:
                    e0:17:d0:bf:b5:9d:87:dd:76:09:7d:c6:00:24:3c:
                    9c:3c:d2:72:5e:87:6c:1e:87:38:c5:2c:57:9d:97:
                    3a:a9:1a:0a:27:3c:33:9e:1c:48:63:ca:73:7b:09:
                    bb:db
                Exponent: 65537 (0x10001)
        X509v3 extensions:
            X509v3 Basic Constraints: 
                CA:FALSE
            X509v3 Subject Key Identifier: 
                CA:87:6A:96:49:35:A7:94:92:06:72:52:A7:28:11:3C:63:98:38:FF
            X509v3 Authority Key Identifier: 
                keyid:40:BA:B5:79:18:C6:3A:DB:AD:3D:9D:07:37:70:77:FA:B1:C8:30:22
                DirName:/CN=team244-net
                serial:64:F9:BF:7B:01:31:F1:1A:2B:05:1F:74:FD:4B:47:B7:8A:53:AD:64
            X509v3 Extended Key Usage: 
                TLS Web Client Authentication
            X509v3 Key Usage: 
                Digital Signature
    Signature Algorithm: sha256WithRSAEncryption
    Signature Value:
        40:a2:32:ac:9e:e6:57:93:5e:83:06:df:ad:4d:27:59:86:e9:
        e4:b1:b7:58:19:89:1f:ab:a1:a5:8f:5a:cf:a8:d8:9d:38:ba:
        e7:e5:e7:76:d4:c5:9c:7c:f0:d0:07:35:8d:bf:0f:80:b2:04:
        e1:d0:2e:32:e3:20:1e:a0:78:1f:71:91:0e:8c:b9:6e:78:d7:
        8e:eb:c2:d2:e6:87:43:5b:88:82:49:c9:f8:aa:2e:bf:2f:03:
        ed:eb:85:13:91:5e:a6:3f:24:c0:4d:2a:2f:c7:3e:3b:1a:70:
        ec:15:7f:51:2b:f4:68:94:c4:4a:4c:66:45:22:fe:42:fa:e0:
        fe:58:b2:7f:7a:98:65:cd:49:42:9b:ff:38:18:55:c2:e8:db:
        3e:ac:30:99:91:35:5e:43:f0:4a:e8:56:52:56:36:82:c0:57:
        77:d9:ca:07:22:7f:d7:28:d6:82:6f:ed:de:bc:3e:56:84:80:
        27:ba:c3:5d:09:04:9d:f9:7d:e0:74:d1:26:86:3e:f5:76:b7:
        96:a2:0d:24:7d:b8:32:ef:51:75:d7:2e:f7:5f:ec:8c:02:58:
        2c:8f:60:d4:b9:5b:2d:e8:2b:9e:01:dc:9c:33:65:8a:12:2d:
        34:a1:2c:32:3b:d5:a6:13:df:19:7c:38:83:14:6d:ab:9b:f8:
        5c:c0:92:a5
-----BEGIN CERTIFICATE-----
MIIDXTCCAkWgAwIBAgIRAL967qJnxq+mKsgRFefU0e8wDQYJKoZIhvcNAQELBQAw
FjEUMBIGA1UEAwwLdGVhbTI0NC1uZXQwHhcNMjMxMTAzMjA0MzQ1WhcNMjYxMDE4
MjA0MzQ1WjAZMRcwFQYDVQQDDA50ZWFtMjQ0LWNsaWVudDCCASIwDQYJKoZIhvcN
AQEBBQADggEPADCCAQoCggEBAMHRC2zRT9lHiAuQ6N2HQQymSSTiwzrn3R6yNdEU
hCO1lSnx0GP66+sUE+vckkaF/Wzrw/Ny1J+NILTHfxTqGA6k+xQdrfi1oUYiReeg
dQomSqQTt+bcZaLls1l3o5blTGwJjsF+WrQyPQNAS2xZWCj9jBsOz8HGWHulsx8+
gqr5KWvhY71HRmOIrZmEmdKkHHfjT2jE4t/uiXxo6RC+k34gsaaBUMeYqtYWba1Z
Kfe+OXk68bXojw1oEJjuJwnC6EUB7ssUZzgAaz59EwGrhOwu4BfQv7Wdh912CX3G
ACQ8nDzScl6HbB6HOMUsV52XOqkaCic8M54cSGPKc3sJu9sCAwEAAaOBojCBnzAJ
BgNVHRMEAjAAMB0GA1UdDgQWBBTKh2qWSTWnlJIGclKnKBE8Y5g4/zBRBgNVHSME
SjBIgBRAurV5GMY62609nQc3cHf6scgwIqEapBgwFjEUMBIGA1UEAwwLdGVhbTI0
NC1uZXSCFGT5v3sBMfEaKwUfdP1LR7eKU61kMBMGA1UdJQQMMAoGCCsGAQUFBwMC
MAsGA1UdDwQEAwIHgDANBgkqhkiG9w0BAQsFAAOCAQEAQKIyrJ7mV5NegwbfrU0n
WYbp5LG3WBmJH6uhpY9az6jYnTi65+XndtTFnHzw0Ac1jb8PgLIE4dAuMuMgHqB4
H3GRDoy5bnjXjuvC0uaHQ1uIgknJ+Kouvy8D7euFE5Fepj8kwE0qL8c+Oxpw7BV/
USv0aJTESkxmRSL+Qvrg/liyf3qYZc1JQpv/OBhVwujbPqwwmZE1XkPwSuhWUlY2
gsBXd9nKByJ/1yjWgm/t3rw+VoSAJ7rDXQkEnfl94HTRJoY+9Xa3lqINJH24Mu9R
ddcu91/sjAJYLI9g1LlbLegrngHcnDNlihItNKEsMjvVphPfGXw4gxRtq5v4XMCS
pQ==
-----END CERTIFICATE-----
