Certificate:
    Data:
        Version: 3 (0x2)
        Serial Number:
            39:ef:3d:88:c0:63:b9:cc:d5:f3:ef:c7:58:d2:69:4d
        Signature Algorithm: sha256WithRSAEncryption
        Issuer: CN=team55-net
        Validity
            Not Before: Nov  4 11:28:26 2023 GMT
            Not After : Oct 19 11:28:26 2026 GMT
        Subject: CN=team55-client
        Subject Public Key Info:
            Public Key Algorithm: rsaEncryption
                Public-Key: (2048 bit)
                Modulus:
                    00:d7:30:24:f3:a4:64:2a:da:89:a2:91:7a:83:5e:
                    03:ef:4b:4c:78:3c:64:65:84:bb:f6:a2:78:3a:2a:
                    d2:58:0b:6d:d6:a8:44:a4:d4:a2:2b:6b:18:62:4f:
                    6a:4f:98:18:fb:64:33:f3:6c:2b:08:75:6d:7b:2f:
                    26:54:02:fc:34:d9:b7:9f:cd:2f:80:a3:c0:d9:d8:
                    d1:61:e3:98:91:61:d9:09:05:dd:80:41:8c:6c:f3:
                    b6:dd:5a:8d:17:88:e5:43:2b:9b:76:50:6f:fa:40:
                    df:5b:3f:ce:5e:e0:92:5c:3b:ad:e4:21:ed:4c:5a:
                    5b:0e:15:9f:5b:20:93:d2:dc:f3:5c:da:85:42:82:
                    93:a9:48:21:ac:36:c4:f1:7e:03:9e:41:ec:86:e8:
                    fd:fc:2c:cd:d9:18:65:6d:97:be:fe:62:ab:65:d5:
                    d7:52:e5:e2:eb:d1:c3:97:05:d3:97:d2:98:ce:4a:
                    8c:a6:52:c5:7e:93:aa:43:a1:a9:a1:58:e3:ee:29:
                    6c:65:94:9e:81:23:54:78:74:66:72:d9:1d:f3:ee:
                    b9:f1:e0:e0:18:b4:23:2c:e1:80:9a:1c:c3:57:c0:
                    0e:57:d3:c2:ed:62:d9:0a:e1:2e:02:57:38:5d:d4:
                    9b:46:46:11:7c:6a:81:41:c7:e0:f1:89:9d:1f:6e:
                    fe:e3
                Exponent: 65537 (0x10001)
        X509v3 extensions:
            X509v3 Basic Constraints: 
                CA:FALSE
            X509v3 Subject Key Identifier: 
                AB:A4:88:10:AA:33:A5:E9:42:F0:72:6D:44:79:E1:EC:8E:85:1F:C3
            X509v3 Authority Key Identifier: 
                keyid:1F:3A:D8:20:87:BE:ED:39:06:71:AA:1B:07:AC:53:2F:EA:01:4C:4A
                DirName:/CN=team55-net
                serial:7F:5C:0B:CA:DC:AB:C5:3B:31:D5:33:C3:EF:A7:8E:6A:3C:19:B7:05
            X509v3 Extended Key Usage: 
                TLS Web Client Authentication
            X509v3 Key Usage: 
                Digital Signature
    Signature Algorithm: sha256WithRSAEncryption
    Signature Value:
        45:86:61:9f:94:ca:7f:25:82:0b:9e:2a:1d:08:e2:8a:f4:9f:
        84:94:2f:f1:30:f6:29:e2:2b:4b:1d:ac:f3:80:25:05:86:c1:
        be:02:89:d9:d8:f8:75:f1:dd:1b:68:d1:e2:0f:ec:e9:4f:22:
        86:de:c9:30:e9:62:8d:a8:9f:78:eb:46:a3:15:53:45:dc:64:
        6e:03:d5:71:13:27:91:93:f4:d7:dd:94:17:cc:91:5b:df:e7:
        18:50:08:a3:7f:6c:49:e8:f8:14:06:29:e9:11:81:92:d5:d2:
        35:5f:cf:f6:76:eb:3c:55:44:85:f1:5b:fb:fa:28:71:73:d0:
        5a:6d:de:72:89:a2:23:19:02:9c:96:31:8c:f5:07:e1:20:32:
        47:ea:5f:9b:d5:8b:b5:55:eb:b7:af:be:6d:8d:34:86:e4:fe:
        ec:45:da:66:93:3f:21:de:4e:5d:12:b0:c5:f6:93:0e:aa:6a:
        d6:b7:f4:37:13:26:35:bf:dc:de:52:92:99:07:1e:6a:20:5d:
        60:10:60:8e:01:ee:48:45:e2:f7:d3:fc:96:b4:a5:d3:9e:30:
        9c:71:20:5c:81:17:3c:bc:89:93:bc:b6:df:b9:81:44:ea:c7:
        f1:67:3f:bb:d5:90:2b:bd:11:a3:d4:4f:61:27:2b:f6:79:4a:
        08:5b:73:01
-----BEGIN CERTIFICATE-----
MIIDWTCCAkGgAwIBAgIQOe89iMBjuczV8+/HWNJpTTANBgkqhkiG9w0BAQsFADAV
MRMwEQYDVQQDDAp0ZWFtNTUtbmV0MB4XDTIzMTEwNDExMjgyNloXDTI2MTAxOTEx
MjgyNlowGDEWMBQGA1UEAwwNdGVhbTU1LWNsaWVudDCCASIwDQYJKoZIhvcNAQEB
BQADggEPADCCAQoCggEBANcwJPOkZCraiaKReoNeA+9LTHg8ZGWEu/aieDoq0lgL
bdaoRKTUoitrGGJPak+YGPtkM/NsKwh1bXsvJlQC/DTZt5/NL4CjwNnY0WHjmJFh
2QkF3YBBjGzztt1ajReI5UMrm3ZQb/pA31s/zl7gklw7reQh7UxaWw4Vn1sgk9Lc
81zahUKCk6lIIaw2xPF+A55B7Ibo/fwszdkYZW2Xvv5iq2XV11Ll4uvRw5cF05fS
mM5KjKZSxX6TqkOhqaFY4+4pbGWUnoEjVHh0ZnLZHfPuufHg4Bi0IyzhgJocw1fA
DlfTwu1i2QrhLgJXOF3Um0ZGEXxqgUHH4PGJnR9u/uMCAwEAAaOBoTCBnjAJBgNV
HRMEAjAAMB0GA1UdDgQWBBSrpIgQqjOl6ULwcm1EeeHsjoUfwzBQBgNVHSMESTBH
gBQfOtggh77tOQZxqhsHrFMv6gFMSqEZpBcwFTETMBEGA1UEAwwKdGVhbTU1LW5l
dIIUf1wLytyrxTsx1TPD76eOajwZtwUwEwYDVR0lBAwwCgYIKwYBBQUHAwIwCwYD
VR0PBAQDAgeAMA0GCSqGSIb3DQEBCwUAA4IBAQBFhmGflMp/JYILniodCOKK9J+E
lC/xMPYp4itLHazzgCUFhsG+AonZ2Ph18d0baNHiD+zpTyKG3skw6WKNqJ9460aj
FVNF3GRuA9VxEyeRk/TX3ZQXzJFb3+cYUAijf2xJ6PgUBinpEYGS1dI1X8/2dus8
VUSF8Vv7+ihxc9Babd5yiaIjGQKcljGM9QfhIDJH6l+b1Yu1Veu3r75tjTSG5P7s
Rdpmkz8h3k5dErDF9pMOqmrWt/Q3EyY1v9zeUpKZBx5qIF1gEGCOAe5IReL30/yW
tKXTnjCccSBcgRc8vImTvLbfuYFE6sfxZz+71ZArvRGj1E9hJyv2eUoIW3MB
-----END CERTIFICATE-----
