Certificate:
    Data:
        Version: 3 (0x2)
        Serial Number:
            cd:6e:e7:40:c4:cd:1e:c3:89:1b:cc:c0:91:94:fb:29
        Signature Algorithm: sha256WithRSAEncryption
        Issuer: CN=team55-net
        Validity
            Not Before: Nov  3 20:40:13 2023 GMT
            Not After : Oct 18 20:40:13 2026 GMT
        Subject: CN=team55-client
        Subject Public Key Info:
            Public Key Algorithm: rsaEncryption
                Public-Key: (2048 bit)
                Modulus:
                    00:9d:7e:bc:76:b1:97:37:d4:02:69:01:fa:d8:f1:
                    2e:72:eb:96:99:52:c6:fd:da:23:ce:6c:8f:c3:40:
                    d0:8a:87:99:2b:dc:32:f8:4e:2d:75:d1:61:c7:6f:
                    cd:5d:49:20:0c:ab:e9:92:18:78:3b:d0:79:4d:b8:
                    bc:9f:1d:38:cc:f6:68:d4:0f:48:57:91:bb:b9:7c:
                    67:5a:d1:ae:cd:be:9c:ef:76:6d:6b:a4:7a:a0:1e:
                    10:f5:df:cc:cb:e7:1f:1b:8d:ca:31:0b:9c:e9:e7:
                    25:c1:2a:3c:a4:6c:40:ad:a1:c4:89:75:40:ed:da:
                    f5:c4:4b:33:3e:d2:2c:12:5e:d8:66:d7:25:2a:63:
                    ff:47:66:7e:68:f1:e8:f8:7c:f8:6b:c4:4a:66:d5:
                    9c:f1:e4:70:86:d3:f9:de:58:50:2c:e8:6a:60:f4:
                    01:a8:0e:4c:ba:86:4c:b0:a4:89:4f:4f:4a:f2:24:
                    d3:c6:a4:37:d0:b7:fa:dd:d4:27:b0:07:ec:4a:f5:
                    b0:2e:31:85:4a:58:ab:72:cd:9a:58:a7:1a:63:d5:
                    43:42:5c:93:14:e7:14:cf:a8:ce:dd:36:2b:57:36:
                    70:64:17:cd:ea:68:2e:45:23:aa:e1:bf:14:75:91:
                    42:12:66:a1:45:bd:b7:9b:af:7d:a9:13:b1:98:e0:
                    02:47
                Exponent: 65537 (0x10001)
        X509v3 extensions:
            X509v3 Basic Constraints: 
                CA:FALSE
            X509v3 Subject Key Identifier: 
                A0:C9:DD:CB:9B:AC:B1:F0:79:9F:32:ED:38:8A:AB:2E:57:5A:77:EF
            X509v3 Authority Key Identifier: 
                keyid:85:C1:DE:C7:EA:9C:47:B6:89:01:19:51:23:4D:B8:25:60:C5:9B:BD
                DirName:/CN=team55-net
                serial:2D:5A:3F:C4:98:CB:FE:DE:C8:5B:CA:AC:1C:16:18:FA:9A:A8:E6:3F
            X509v3 Extended Key Usage: 
                TLS Web Client Authentication
            X509v3 Key Usage: 
                Digital Signature
    Signature Algorithm: sha256WithRSAEncryption
    Signature Value:
        3f:27:f0:25:64:58:b5:38:b3:46:5d:36:82:78:d5:fd:99:39:
        c2:9d:83:37:fa:f3:ce:d7:57:14:8a:e6:e8:a7:a7:a0:2d:eb:
        0b:ef:05:32:c4:c4:21:67:2c:19:08:2a:f0:ae:15:d0:86:a2:
        b2:29:4a:ee:0a:12:8f:f6:8c:6a:f5:04:b0:cd:86:8d:6a:fd:
        a0:1b:7f:46:a5:98:fc:3c:bf:82:9c:15:35:2a:70:5f:d4:4f:
        ca:4f:cd:21:da:b0:87:b6:85:57:8c:16:e3:93:bc:30:5c:ed:
        c5:7d:bc:74:32:1b:e6:0e:6f:95:3e:e5:b4:28:de:a2:fa:11:
        14:4e:be:44:17:da:5b:6a:b6:fd:8f:53:6a:af:55:54:55:5c:
        c7:4f:3b:c2:2b:87:bc:33:d2:75:c2:9b:2d:18:11:09:fa:c3:
        ea:fe:d4:42:4f:3e:31:5d:45:cc:cc:bd:19:e1:33:37:92:d5:
        d3:2e:b6:51:ee:85:bc:0f:c5:a1:ca:c3:7d:4e:6f:ca:95:b1:
        85:e9:c6:04:ab:53:fe:96:4b:e9:ad:c1:c4:eb:34:ea:23:64:
        ff:b1:98:36:9b:fc:32:af:f5:73:f6:ab:f1:13:23:15:94:8b:
        eb:97:d0:70:0b:c6:81:ff:e7:3b:5c:b6:f6:26:4b:46:42:ca:
        3f:90:03:a3
-----BEGIN CERTIFICATE-----
MIIDWjCCAkKgAwIBAgIRAM1u50DEzR7DiRvMwJGU+ykwDQYJKoZIhvcNAQELBQAw
FTETMBEGA1UEAwwKdGVhbTU1LW5ldDAeFw0yMzExMDMyMDQwMTNaFw0yNjEwMTgy
MDQwMTNaMBgxFjAUBgNVBAMMDXRlYW01NS1jbGllbnQwggEiMA0GCSqGSIb3DQEB
AQUAA4IBDwAwggEKAoIBAQCdfrx2sZc31AJpAfrY8S5y65aZUsb92iPObI/DQNCK
h5kr3DL4Ti110WHHb81dSSAMq+mSGHg70HlNuLyfHTjM9mjUD0hXkbu5fGda0a7N
vpzvdm1rpHqgHhD138zL5x8bjcoxC5zp5yXBKjykbECtocSJdUDt2vXESzM+0iwS
Xthm1yUqY/9HZn5o8ej4fPhrxEpm1Zzx5HCG0/neWFAs6Gpg9AGoDky6hkywpIlP
T0ryJNPGpDfQt/rd1CewB+xK9bAuMYVKWKtyzZpYpxpj1UNCXJMU5xTPqM7dNitX
NnBkF83qaC5FI6rhvxR1kUISZqFFvbebr32pE7GY4AJHAgMBAAGjgaEwgZ4wCQYD
VR0TBAIwADAdBgNVHQ4EFgQUoMndy5ussfB5nzLtOIqrLldad+8wUAYDVR0jBEkw
R4AUhcHex+qcR7aJARlRI024JWDFm72hGaQXMBUxEzARBgNVBAMMCnRlYW01NS1u
ZXSCFC1aP8SYy/7eyFvKrBwWGPqaqOY/MBMGA1UdJQQMMAoGCCsGAQUFBwMCMAsG
A1UdDwQEAwIHgDANBgkqhkiG9w0BAQsFAAOCAQEAPyfwJWRYtTizRl02gnjV/Zk5
wp2DN/rzztdXFIrm6KenoC3rC+8FMsTEIWcsGQgq8K4V0IaisilK7goSj/aMavUE
sM2GjWr9oBt/RqWY/Dy/gpwVNSpwX9RPyk/NIdqwh7aFV4wW45O8MFztxX28dDIb
5g5vlT7ltCjeovoRFE6+RBfaW2q2/Y9Taq9VVFVcx087wiuHvDPSdcKbLRgRCfrD
6v7UQk8+MV1FzMy9GeEzN5LV0y62Ue6FvA/FocrDfU5vypWxhenGBKtT/pZL6a3B
xOs06iNk/7GYNpv8Mq/1c/ar8RMjFZSL65fQcAvGgf/nO1y29iZLRkLKP5ADow==
-----END CERTIFICATE-----
