Certificate:
    Data:
        Version: 3 (0x2)
        Serial Number:
            3b:98:d3:b5:8e:c6:db:fc:b1:90:68:b4:1e:5d:ec:d1
        Signature Algorithm: sha256WithRSAEncryption
        Issuer: CN=team40-net
        Validity
            Not Before: Nov  3 20:39:57 2023 GMT
            Not After : Oct 18 20:39:57 2026 GMT
        Subject: CN=team40-client
        Subject Public Key Info:
            Public Key Algorithm: rsaEncryption
                Public-Key: (2048 bit)
                Modulus:
                    00:c1:3a:cd:ab:57:ca:5e:d6:13:14:7d:0d:1c:da:
                    f9:c7:2a:c7:12:f8:16:81:77:f1:ef:c2:a0:00:7e:
                    ef:02:f1:8f:1c:50:43:3b:1a:4e:e9:89:73:f2:a1:
                    9b:cc:90:1d:3f:37:d7:23:0f:26:05:41:0d:0b:26:
                    75:7e:4a:dd:b0:b8:42:1b:ed:fc:dd:e3:c8:ca:35:
                    37:f4:b4:1a:39:d9:19:6d:df:2f:d2:90:9f:f5:bd:
                    2c:a2:af:89:7f:b3:6d:be:3d:de:76:37:e2:3c:00:
                    4b:be:04:b7:22:5a:32:c7:3a:18:5d:3e:84:3b:07:
                    07:82:0d:11:30:a6:00:0e:a5:29:f0:7e:d0:d9:9b:
                    f8:2f:38:f4:a0:4a:48:52:fe:3c:71:a8:18:5a:19:
                    4e:95:ae:32:d7:77:7e:5b:86:e9:b8:d1:fd:1c:69:
                    15:94:57:b6:e6:7b:90:22:5b:77:0c:74:bb:d6:68:
                    1d:62:e3:6f:9b:b0:9c:60:63:79:06:7e:3a:35:00:
                    a3:c6:b3:05:0b:3b:1c:f4:ad:df:7c:c6:d3:7b:46:
                    1c:72:d3:e7:21:0d:be:7b:2e:20:0b:c8:06:50:6f:
                    a4:11:52:dc:12:41:14:2c:b8:9a:56:2c:10:b1:f9:
                    f5:7a:c5:09:ac:c4:33:88:b5:aa:48:bf:0d:c9:c5:
                    ce:87
                Exponent: 65537 (0x10001)
        X509v3 extensions:
            X509v3 Basic Constraints: 
                CA:FALSE
            X509v3 Subject Key Identifier: 
                7A:77:29:A5:13:2D:B9:4E:74:B4:E4:05:52:69:5C:D9:6C:FC:72:C1
            X509v3 Authority Key Identifier: 
                keyid:B4:7D:31:4F:30:B0:13:AC:1E:57:D1:F4:93:94:E2:C5:A7:C9:51:AB
                DirName:/CN=team40-net
                serial:63:EE:4F:17:F9:0A:BB:07:6B:E8:47:A6:6A:2A:56:E6:7A:16:7C:F7
            X509v3 Extended Key Usage: 
                TLS Web Client Authentication
            X509v3 Key Usage: 
                Digital Signature
    Signature Algorithm: sha256WithRSAEncryption
    Signature Value:
        75:f5:92:d8:37:c3:42:d7:6c:0e:b4:35:08:59:d9:4d:f3:34:
        1c:b7:db:3a:2d:31:c1:7b:28:63:e9:69:d6:4b:77:be:fd:77:
        e0:0c:bc:ed:19:4f:67:eb:7b:75:87:b5:b1:a0:54:5d:53:01:
        e5:6d:d0:ce:e8:16:f1:f0:a7:48:14:f3:d1:17:6f:34:15:54:
        28:f8:fb:28:ba:6d:a6:ff:28:3e:fe:99:29:e7:b7:50:fd:50:
        24:1f:82:0c:3c:48:3b:aa:77:44:d9:d7:19:40:24:94:0c:ab:
        27:a2:fb:3d:88:8a:74:d8:25:8d:a4:6d:3e:92:10:f7:0f:05:
        9d:d5:d8:b8:b3:12:30:50:f3:9b:5f:49:77:c9:37:65:2f:ec:
        cc:fb:e5:0f:ee:7a:ca:58:d0:c6:74:64:ef:bc:91:dd:fd:36:
        f3:4a:b8:4c:e8:4a:bd:9c:40:b9:30:c9:f8:ed:68:f1:2a:33:
        83:5b:f4:83:31:1b:86:f7:a7:0e:bd:d5:f2:74:9e:c4:62:b8:
        37:5b:8a:7e:47:75:c0:f4:ec:7e:e3:05:6a:bf:97:5a:46:cd:
        1a:8e:59:61:a2:67:fc:87:2d:fb:90:e9:5b:1c:f4:4e:71:23:
        5c:5a:f5:83:c3:a4:46:36:26:50:b1:3a:ca:c1:6e:8d:98:b3:
        b7:94:84:5c
-----BEGIN CERTIFICATE-----
MIIDWTCCAkGgAwIBAgIQO5jTtY7G2/yxkGi0Hl3s0TANBgkqhkiG9w0BAQsFADAV
MRMwEQYDVQQDDAp0ZWFtNDAtbmV0MB4XDTIzMTEwMzIwMzk1N1oXDTI2MTAxODIw
Mzk1N1owGDEWMBQGA1UEAwwNdGVhbTQwLWNsaWVudDCCASIwDQYJKoZIhvcNAQEB
BQADggEPADCCAQoCggEBAME6zatXyl7WExR9DRza+ccqxxL4FoF38e/CoAB+7wLx
jxxQQzsaTumJc/Khm8yQHT831yMPJgVBDQsmdX5K3bC4Qhvt/N3jyMo1N/S0GjnZ
GW3fL9KQn/W9LKKviX+zbb493nY34jwAS74EtyJaMsc6GF0+hDsHB4INETCmAA6l
KfB+0Nmb+C849KBKSFL+PHGoGFoZTpWuMtd3fluG6bjR/RxpFZRXtuZ7kCJbdwx0
u9ZoHWLjb5uwnGBjeQZ+OjUAo8azBQs7HPSt33zG03tGHHLT5yENvnsuIAvIBlBv
pBFS3BJBFCy4mlYsELH59XrFCazEM4i1qki/DcnFzocCAwEAAaOBoTCBnjAJBgNV
HRMEAjAAMB0GA1UdDgQWBBR6dymlEy25TnS05AVSaVzZbPxywTBQBgNVHSMESTBH
gBS0fTFPMLATrB5X0fSTlOLFp8lRq6EZpBcwFTETMBEGA1UEAwwKdGVhbTQwLW5l
dIIUY+5PF/kKuwdr6EemaipW5noWfPcwEwYDVR0lBAwwCgYIKwYBBQUHAwIwCwYD
VR0PBAQDAgeAMA0GCSqGSIb3DQEBCwUAA4IBAQB19ZLYN8NC12wOtDUIWdlN8zQc
t9s6LTHBeyhj6WnWS3e+/XfgDLztGU9n63t1h7WxoFRdUwHlbdDO6Bbx8KdIFPPR
F280FVQo+Psoum2m/yg+/pkp57dQ/VAkH4IMPEg7qndE2dcZQCSUDKsnovs9iIp0
2CWNpG0+khD3DwWd1di4sxIwUPObX0l3yTdlL+zM++UP7nrKWNDGdGTvvJHd/Tbz
SrhM6Eq9nEC5MMn47WjxKjODW/SDMRuG96cOvdXydJ7EYrg3W4p+R3XA9Ox+4wVq
v5daRs0ajllhomf8hy37kOlbHPROcSNcWvWDw6RGNiZQsTrKwW6NmLO3lIRc
-----END CERTIFICATE-----
