Certificate:
    Data:
        Version: 3 (0x2)
        Serial Number:
            98:9c:a9:8a:1d:c5:ce:20:96:cb:e2:fd:4f:2b:b2:4c
        Signature Algorithm: sha256WithRSAEncryption
        Issuer: CN=team361-net
        Validity
            Not Before: Nov  4 10:47:12 2023 GMT
            Not After : Oct 19 10:47:12 2026 GMT
        Subject: CN=team361-server
        Subject Public Key Info:
            Public Key Algorithm: rsaEncryption
                Public-Key: (2048 bit)
                Modulus:
                    00:eb:46:64:2f:72:18:5c:22:68:b0:d5:6b:1a:49:
                    d2:3f:8b:2a:58:b8:14:de:39:f8:e6:17:4c:01:21:
                    1e:3c:cb:62:07:9d:02:49:71:ef:3f:61:85:c7:6e:
                    62:7e:cd:de:45:08:12:e3:18:6b:fa:ca:a3:d4:28:
                    52:63:bf:24:29:67:ae:62:e1:fe:62:09:e7:48:17:
                    38:66:fc:72:41:d5:82:8c:0d:e3:24:10:33:b4:f9:
                    63:a1:83:75:f5:22:b6:e5:8a:e4:5f:f4:c1:ad:6d:
                    ff:ff:4f:1c:98:01:6c:f1:27:49:39:86:71:a1:4b:
                    a0:b4:df:c2:d9:9a:16:75:02:76:40:7a:c4:20:ad:
                    73:8a:a0:04:bc:1d:7e:e4:a6:53:44:62:67:7c:f5:
                    4e:63:78:34:90:b3:ea:0d:ac:18:50:49:25:23:92:
                    f2:6c:d8:29:0a:a7:b8:77:a3:ba:03:db:bd:cb:a6:
                    88:43:f6:ec:f2:bc:92:a2:fd:ac:c4:cd:d6:c9:50:
                    e8:0c:eb:ec:7b:55:52:c6:35:46:a3:d7:60:00:85:
                    b0:ce:5a:fe:0f:74:75:dd:e3:8b:ec:61:58:42:ed:
                    9f:20:15:ef:59:9f:96:9b:3a:03:01:2c:9a:9c:dd:
                    78:c7:6d:8c:d4:b7:24:c9:9a:8d:49:85:35:65:6f:
                    7d:17
                Exponent: 65537 (0x10001)
        X509v3 extensions:
            X509v3 Basic Constraints: 
                CA:FALSE
            X509v3 Subject Key Identifier: 
                B4:A8:7B:22:8E:14:0E:E3:EC:13:DB:57:7F:78:A8:51:9F:F8:EF:2B
            X509v3 Authority Key Identifier: 
                keyid:62:69:93:BF:1E:B9:60:2A:BC:3A:C9:39:98:FB:02:B4:E0:04:4B:E8
                DirName:/CN=team361-net
                serial:02:50:CD:71:13:51:29:F8:BD:09:48:4C:24:5C:07:CF:62:44:AC:02
            X509v3 Extended Key Usage: 
                TLS Web Server Authentication
            X509v3 Key Usage: 
                Digital Signature, Key Encipherment
            X509v3 Subject Alternative Name: 
                DNS:team361-server
    Signature Algorithm: sha256WithRSAEncryption
    Signature Value:
        1b:30:ff:87:49:75:e7:7a:73:ff:e5:2a:f9:bd:5c:5b:a1:d6:
        7c:c6:ad:6a:74:ed:78:de:18:46:2e:06:34:d6:9b:a0:da:3a:
        07:4c:79:41:76:90:f4:96:e0:69:19:0e:6f:d4:dd:e0:93:74:
        5a:7c:32:02:9f:58:58:31:4b:92:2b:d1:1e:de:09:10:9c:fd:
        52:5b:61:49:04:0d:64:e6:0a:a6:d0:2a:da:43:ce:08:8c:63:
        fd:65:da:10:de:a8:e8:53:9b:09:00:32:c6:b3:f4:3a:94:0c:
        df:fd:6f:f5:9c:2b:2d:36:8b:ef:f2:06:27:af:c2:17:e5:64:
        8b:16:78:38:fc:e3:9a:6f:74:e3:78:74:f3:1c:c0:8b:75:fa:
        77:c7:f5:53:ba:a1:76:46:72:6e:63:82:07:70:89:31:3f:66:
        44:dc:50:74:2c:cf:32:ee:43:b9:38:5a:12:54:e3:99:30:c5:
        f8:c2:40:96:f9:57:90:86:84:91:0e:23:73:c5:48:a3:10:52:
        9f:79:a8:80:ad:e1:51:53:d8:f6:fd:99:b9:a9:2d:d2:1e:22:
        6e:13:cc:fb:94:7c:70:96:28:2b:b6:9c:fb:b5:4c:4a:a2:54:
        1d:b1:15:93:f7:f9:c4:62:1f:51:a7:34:74:4d:6a:bf:c7:18:
        34:1e:92:7a
-----BEGIN CERTIFICATE-----
MIIDeDCCAmCgAwIBAgIRAJicqYodxc4glsvi/U8rskwwDQYJKoZIhvcNAQELBQAw
FjEUMBIGA1UEAwwLdGVhbTM2MS1uZXQwHhcNMjMxMTA0MTA0NzEyWhcNMjYxMDE5
MTA0NzEyWjAZMRcwFQYDVQQDDA50ZWFtMzYxLXNlcnZlcjCCASIwDQYJKoZIhvcN
AQEBBQADggEPADCCAQoCggEBAOtGZC9yGFwiaLDVaxpJ0j+LKli4FN45+OYXTAEh
HjzLYgedAklx7z9hhcduYn7N3kUIEuMYa/rKo9QoUmO/JClnrmLh/mIJ50gXOGb8
ckHVgowN4yQQM7T5Y6GDdfUituWK5F/0wa1t//9PHJgBbPEnSTmGcaFLoLTfwtma
FnUCdkB6xCCtc4qgBLwdfuSmU0RiZ3z1TmN4NJCz6g2sGFBJJSOS8mzYKQqnuHej
ugPbvcumiEP27PK8kqL9rMTN1slQ6Azr7HtVUsY1RqPXYACFsM5a/g90dd3ji+xh
WELtnyAV71mflps6AwEsmpzdeMdtjNS3JMmajUmFNWVvfRcCAwEAAaOBvTCBujAJ
BgNVHRMEAjAAMB0GA1UdDgQWBBS0qHsijhQO4+wT21d/eKhRn/jvKzBRBgNVHSME
SjBIgBRiaZO/HrlgKrw6yTmY+wK04ARL6KEapBgwFjEUMBIGA1UEAwwLdGVhbTM2
MS1uZXSCFAJQzXETUSn4vQlITCRcB89iRKwCMBMGA1UdJQQMMAoGCCsGAQUFBwMB
MAsGA1UdDwQEAwIFoDAZBgNVHREEEjAQgg50ZWFtMzYxLXNlcnZlcjANBgkqhkiG
9w0BAQsFAAOCAQEAGzD/h0l153pz/+Uq+b1cW6HWfMatanTteN4YRi4GNNaboNo6
B0x5QXaQ9JbgaRkOb9Td4JN0WnwyAp9YWDFLkivRHt4JEJz9UlthSQQNZOYKptAq
2kPOCIxj/WXaEN6o6FObCQAyxrP0OpQM3/1v9ZwrLTaL7/IGJ6/CF+VkixZ4OPzj
mm9043h08xzAi3X6d8f1U7qhdkZybmOCB3CJMT9mRNxQdCzPMu5DuThaElTjmTDF
+MJAlvlXkIaEkQ4jc8VIoxBSn3mogK3hUVPY9v2Zuakt0h4ibhPM+5R8cJYoK7ac
+7VMSqJUHbEVk/f5xGIfUac0dE1qv8cYNB6Seg==
-----END CERTIFICATE-----
