Certificate:
    Data:
        Version: 3 (0x2)
        Serial Number:
            b1:bd:60:50:a5:37:27:50:6d:15:11:98:23:48:f9:11
        Signature Algorithm: sha256WithRSAEncryption
        Issuer: CN=team361-net
        Validity
            Not Before: Nov  4 10:47:12 2023 GMT
            Not After : Oct 19 10:47:12 2026 GMT
        Subject: CN=team361-client
        Subject Public Key Info:
            Public Key Algorithm: rsaEncryption
                Public-Key: (2048 bit)
                Modulus:
                    00:ad:23:05:20:75:10:89:a7:1c:6d:56:88:29:ef:
                    36:66:f3:3a:a7:45:df:d7:a9:7d:74:a5:99:f6:b3:
                    92:79:39:e1:0e:d5:5b:a1:c8:91:78:2f:7e:12:5f:
                    6c:6d:ad:54:de:1b:f2:4b:27:e7:ef:72:20:f6:2f:
                    44:80:d0:d2:b7:0e:b9:aa:ac:a1:ea:90:62:04:37:
                    0a:69:cd:23:f3:47:2a:e5:9f:b1:a3:f5:9f:7a:3f:
                    a2:67:66:84:bd:d1:70:49:42:c9:b7:97:5c:95:ea:
                    07:4a:da:39:7c:9f:0f:81:fa:72:6a:99:03:99:9e:
                    d5:a5:49:78:a8:be:38:be:12:1a:d3:f4:70:0c:ed:
                    8e:92:e6:59:cf:8d:79:c6:af:5a:4c:a3:58:4a:b4:
                    f9:78:56:73:2b:74:bc:d5:c9:8d:5b:d9:42:37:e2:
                    e2:3d:54:2c:aa:e9:6f:6a:f5:70:5e:29:88:b9:9c:
                    64:96:98:3a:1d:0b:bd:fb:3a:b6:04:6d:03:91:41:
                    34:6e:0d:6d:b9:87:1a:6d:a5:48:b0:a3:9c:3c:e0:
                    a3:b3:ce:b4:18:b9:3d:8d:95:4a:13:7d:ca:47:8d:
                    ed:cf:85:71:db:68:2b:e4:2f:26:0d:62:19:7c:42:
                    84:8e:bf:ae:eb:24:57:99:be:66:06:96:02:8e:23:
                    e1:99
                Exponent: 65537 (0x10001)
        X509v3 extensions:
            X509v3 Basic Constraints: 
                CA:FALSE
            X509v3 Subject Key Identifier: 
                34:42:27:E7:0E:E3:FB:3F:A8:A9:58:1A:C4:2A:FB:28:2B:DF:EB:10
            X509v3 Authority Key Identifier: 
                keyid:62:69:93:BF:1E:B9:60:2A:BC:3A:C9:39:98:FB:02:B4:E0:04:4B:E8
                DirName:/CN=team361-net
                serial:02:50:CD:71:13:51:29:F8:BD:09:48:4C:24:5C:07:CF:62:44:AC:02
            X509v3 Extended Key Usage: 
                TLS Web Client Authentication
            X509v3 Key Usage: 
                Digital Signature
    Signature Algorithm: sha256WithRSAEncryption
    Signature Value:
        04:c1:e7:0f:df:aa:57:bf:d6:6e:c2:cc:7b:dc:32:86:7f:fc:
        fb:59:60:25:e9:07:4b:42:b0:90:56:61:0a:38:04:21:b2:90:
        36:d8:40:99:6e:cb:d9:0c:4e:2b:ef:c0:e2:1c:74:a3:9a:95:
        46:35:dc:c0:1f:69:9b:dd:bc:9f:ec:33:5b:d3:46:42:c3:5d:
        62:1b:8e:ef:ea:cf:b1:05:89:a4:71:93:99:23:d3:7f:82:5a:
        35:27:09:c4:cd:40:cd:96:4d:ed:bd:94:72:8a:cb:26:38:f5:
        0c:67:16:4e:13:c8:cc:a7:3e:90:bc:5f:c0:a5:9d:86:1f:c1:
        e0:2e:46:11:23:53:0d:c6:01:46:7b:3a:15:36:bf:82:78:4a:
        c6:b4:94:33:b6:18:44:24:86:c0:16:9c:66:4e:12:fc:3f:a4:
        f7:47:d8:d3:d9:78:f6:16:51:a4:7c:54:d9:34:5a:8b:4a:d4:
        23:35:8a:89:ed:18:20:ff:af:97:14:b4:36:05:ba:8f:70:84:
        28:b0:e8:c4:95:7d:74:66:a0:ff:e5:0c:d0:17:9a:6e:58:27:
        c4:a0:67:bb:35:88:61:73:de:a6:8b:29:4f:94:6d:e7:79:7a:
        a6:d5:a4:2e:80:20:55:7d:be:31:ac:ab:71:bc:48:57:4e:ce:
        b7:67:9b:83
-----BEGIN CERTIFICATE-----
MIIDXTCCAkWgAwIBAgIRALG9YFClNydQbRURmCNI+REwDQYJKoZIhvcNAQELBQAw
FjEUMBIGA1UEAwwLdGVhbTM2MS1uZXQwHhcNMjMxMTA0MTA0NzEyWhcNMjYxMDE5
MTA0NzEyWjAZMRcwFQYDVQQDDA50ZWFtMzYxLWNsaWVudDCCASIwDQYJKoZIhvcN
AQEBBQADggEPADCCAQoCggEBAK0jBSB1EImnHG1WiCnvNmbzOqdF39epfXSlmfaz
knk54Q7VW6HIkXgvfhJfbG2tVN4b8ksn5+9yIPYvRIDQ0rcOuaqsoeqQYgQ3CmnN
I/NHKuWfsaP1n3o/omdmhL3RcElCybeXXJXqB0raOXyfD4H6cmqZA5me1aVJeKi+
OL4SGtP0cAztjpLmWc+NecavWkyjWEq0+XhWcyt0vNXJjVvZQjfi4j1ULKrpb2r1
cF4piLmcZJaYOh0Lvfs6tgRtA5FBNG4NbbmHGm2lSLCjnDzgo7POtBi5PY2VShN9
ykeN7c+FcdtoK+QvJg1iGXxChI6/ruskV5m+ZgaWAo4j4ZkCAwEAAaOBojCBnzAJ
BgNVHRMEAjAAMB0GA1UdDgQWBBQ0QifnDuP7P6ipWBrEKvsoK9/rEDBRBgNVHSME
SjBIgBRiaZO/HrlgKrw6yTmY+wK04ARL6KEapBgwFjEUMBIGA1UEAwwLdGVhbTM2
MS1uZXSCFAJQzXETUSn4vQlITCRcB89iRKwCMBMGA1UdJQQMMAoGCCsGAQUFBwMC
MAsGA1UdDwQEAwIHgDANBgkqhkiG9w0BAQsFAAOCAQEABMHnD9+qV7/WbsLMe9wy
hn/8+1lgJekHS0KwkFZhCjgEIbKQNthAmW7L2QxOK+/A4hx0o5qVRjXcwB9pm928
n+wzW9NGQsNdYhuO7+rPsQWJpHGTmSPTf4JaNScJxM1AzZZN7b2UcorLJjj1DGcW
ThPIzKc+kLxfwKWdhh/B4C5GESNTDcYBRns6FTa/gnhKxrSUM7YYRCSGwBacZk4S
/D+k90fY09l49hZRpHxU2TRai0rUIzWKie0YIP+vlxS0NgW6j3CEKLDoxJV9dGag
/+UM0BeablgnxKBnuzWIYXPepospT5Rt53l6ptWkLoAgVX2+MayrcbxIV07Ot2eb
gw==
-----END CERTIFICATE-----
