Certificate:
    Data:
        Version: 3 (0x2)
        Serial Number:
            d0:28:ff:43:a1:95:e2:1e:22:3f:48:3b:b4:e5:20:16
        Signature Algorithm: sha256WithRSAEncryption
        Issuer: CN=team361-net
        Validity
            Not Before: Nov  3 20:45:50 2023 GMT
            Not After : Oct 18 20:45:50 2026 GMT
        Subject: CN=team361-client
        Subject Public Key Info:
            Public Key Algorithm: rsaEncryption
                Public-Key: (2048 bit)
                Modulus:
                    00:b5:e2:31:02:5b:3b:95:fd:23:b4:05:be:78:48:
                    01:ab:c7:9b:f1:91:a6:30:97:94:15:7c:3d:1d:b1:
                    b1:6a:6e:d6:27:be:04:07:d9:1f:56:40:13:75:cc:
                    1c:79:6d:ff:11:69:57:ad:33:33:c4:20:af:0a:e9:
                    b6:83:51:6d:81:b1:84:99:9c:9b:77:71:4b:7a:3a:
                    6a:9e:06:07:8b:9e:2b:dd:7e:8d:4d:66:57:7b:e2:
                    33:6b:4e:63:5d:66:7b:9d:a3:91:86:60:ea:25:11:
                    bb:7f:af:1d:7d:97:cb:8f:07:e6:d4:ac:96:98:1c:
                    e5:55:70:8c:8d:0a:8d:51:2f:9f:fd:13:e5:0d:25:
                    ce:10:82:c3:92:77:9c:12:6c:53:cc:15:da:db:7e:
                    6c:29:c9:11:bd:b5:95:90:53:77:8a:39:2d:3c:22:
                    9f:66:e7:ef:de:d6:fb:b9:82:8a:30:90:f0:15:19:
                    4a:20:a8:15:7c:c3:00:a7:b7:f4:a9:53:3b:1e:53:
                    d4:21:c0:91:45:f4:bb:70:54:38:e3:48:1e:25:0b:
                    e8:cb:47:6c:d4:72:30:30:6d:9a:50:97:61:91:67:
                    b8:51:89:8b:33:85:ad:54:35:43:89:4a:a9:de:ac:
                    54:4f:a3:9a:e6:b8:d3:14:be:97:2d:a2:3f:6a:0b:
                    8d:a7
                Exponent: 65537 (0x10001)
        X509v3 extensions:
            X509v3 Basic Constraints: 
                CA:FALSE
            X509v3 Subject Key Identifier: 
                E5:1D:71:74:8D:E0:CF:E6:FD:E9:76:4A:6B:67:0F:9B:F4:10:8E:7F
            X509v3 Authority Key Identifier: 
                keyid:BF:C1:8F:5E:43:CD:38:35:7E:9B:A1:2E:7A:19:70:89:92:B8:C4:31
                DirName:/CN=team361-net
                serial:6F:08:FE:42:8B:DF:62:CE:0A:41:BB:64:94:93:28:43:DC:DD:47:F3
            X509v3 Extended Key Usage: 
                TLS Web Client Authentication
            X509v3 Key Usage: 
                Digital Signature
    Signature Algorithm: sha256WithRSAEncryption
    Signature Value:
        35:6f:15:98:53:3e:85:a2:73:96:91:72:84:f5:cd:9f:bb:c3:
        42:80:fc:dd:88:fd:89:84:6f:b2:b0:12:13:df:bf:d3:60:a7:
        65:9e:86:0d:df:32:1b:cc:34:6b:f0:e3:ea:65:b5:33:9a:49:
        48:a7:bc:ec:10:96:52:47:61:9e:c7:a4:01:d0:08:e6:d1:64:
        47:95:7d:70:5b:9d:fe:15:40:3c:ec:fe:d3:95:af:8b:b1:03:
        de:e9:a9:fd:3f:db:8a:71:c2:f3:9f:b5:ea:c3:a3:ea:47:ec:
        fc:05:2f:95:90:fd:a3:40:72:c5:cc:1e:95:6e:74:67:64:43:
        2f:6e:9b:3c:86:32:62:b2:ac:b4:a1:b1:e3:d4:39:cf:1f:a8:
        c2:6c:1f:dc:ba:04:7f:26:68:99:4c:77:50:07:ca:36:87:b3:
        b3:fc:03:28:b4:ba:ce:d5:97:31:d9:08:5e:d7:01:80:1e:bb:
        1c:83:89:e5:d9:89:b0:43:9d:dc:47:7c:b4:10:da:66:43:37:
        fb:6a:4d:49:da:29:5b:b2:48:80:d0:c9:73:df:a6:ae:e3:a4:
        1f:37:56:76:e3:c1:16:28:dd:93:d9:5a:20:59:79:31:19:45:
        80:26:76:7c:c6:56:b6:bc:db:8b:c5:00:85:87:91:8c:67:89:
        44:54:59:43
-----BEGIN CERTIFICATE-----
MIIDXTCCAkWgAwIBAgIRANAo/0OhleIeIj9IO7TlIBYwDQYJKoZIhvcNAQELBQAw
FjEUMBIGA1UEAwwLdGVhbTM2MS1uZXQwHhcNMjMxMTAzMjA0NTUwWhcNMjYxMDE4
MjA0NTUwWjAZMRcwFQYDVQQDDA50ZWFtMzYxLWNsaWVudDCCASIwDQYJKoZIhvcN
AQEBBQADggEPADCCAQoCggEBALXiMQJbO5X9I7QFvnhIAavHm/GRpjCXlBV8PR2x
sWpu1ie+BAfZH1ZAE3XMHHlt/xFpV60zM8QgrwrptoNRbYGxhJmcm3dxS3o6ap4G
B4ueK91+jU1mV3viM2tOY11me52jkYZg6iURu3+vHX2Xy48H5tSslpgc5VVwjI0K
jVEvn/0T5Q0lzhCCw5J3nBJsU8wV2tt+bCnJEb21lZBTd4o5LTwin2bn797W+7mC
ijCQ8BUZSiCoFXzDAKe39KlTOx5T1CHAkUX0u3BUOONIHiUL6MtHbNRyMDBtmlCX
YZFnuFGJizOFrVQ1Q4lKqd6sVE+jmua40xS+ly2iP2oLjacCAwEAAaOBojCBnzAJ
BgNVHRMEAjAAMB0GA1UdDgQWBBTlHXF0jeDP5v3pdkprZw+b9BCOfzBRBgNVHSME
SjBIgBS/wY9eQ804NX6boS56GXCJkrjEMaEapBgwFjEUMBIGA1UEAwwLdGVhbTM2
MS1uZXSCFG8I/kKL32LOCkG7ZJSTKEPc3UfzMBMGA1UdJQQMMAoGCCsGAQUFBwMC
MAsGA1UdDwQEAwIHgDANBgkqhkiG9w0BAQsFAAOCAQEANW8VmFM+haJzlpFyhPXN
n7vDQoD83Yj9iYRvsrASE9+/02CnZZ6GDd8yG8w0a/Dj6mW1M5pJSKe87BCWUkdh
nsekAdAI5tFkR5V9cFud/hVAPOz+05Wvi7ED3ump/T/binHC85+16sOj6kfs/AUv
lZD9o0ByxcwelW50Z2RDL26bPIYyYrKstKGx49Q5zx+owmwf3LoEfyZomUx3UAfK
Noezs/wDKLS6ztWXMdkIXtcBgB67HIOJ5dmJsEOd3Ed8tBDaZkM3+2pNSdopW7JI
gNDJc9+mruOkHzdWduPBFijdk9laIFl5MRlFgCZ2fMZWtrzbi8UAhYeRjGeJRFRZ
Qw==
-----END CERTIFICATE-----
