Certificate:
    Data:
        Version: 3 (0x2)
        Serial Number:
            f3:8e:06:6d:39:b7:6f:76:98:f1:a8:c3:58:55:18:9e
        Signature Algorithm: sha256WithRSAEncryption
        Issuer: CN=team361-net
        Validity
            Not Before: Nov  4 11:35:30 2023 GMT
            Not After : Oct 19 11:35:30 2026 GMT
        Subject: CN=team361-client
        Subject Public Key Info:
            Public Key Algorithm: rsaEncryption
                Public-Key: (2048 bit)
                Modulus:
                    00:bd:58:f9:d1:9c:14:b0:b0:77:28:d4:fb:42:c3:
                    90:43:be:4c:60:a1:48:4c:a1:37:a3:66:b6:fc:17:
                    7c:87:0d:ba:34:82:b8:52:52:47:19:da:b9:26:bf:
                    f2:b2:57:bd:54:2a:b2:c6:ad:4c:c3:16:c7:50:44:
                    23:18:22:d7:29:3a:66:f1:ee:68:b1:8c:0f:1c:86:
                    3c:5b:29:ee:37:54:e5:9b:d3:95:5e:e3:93:ef:a1:
                    df:63:1f:9a:73:ea:fd:39:05:78:23:01:15:0a:f5:
                    d1:5c:a9:cc:f4:05:1a:95:39:93:58:92:a6:81:37:
                    93:ca:7c:c6:5a:22:11:7b:4b:20:d1:46:34:c9:ad:
                    be:19:ee:d4:cc:e1:e6:51:ae:32:31:e4:9c:50:3a:
                    ac:0e:d5:d2:35:69:70:16:dd:1c:0a:97:23:ec:93:
                    7b:16:5b:c7:c0:21:cf:9b:6a:0c:be:7a:de:78:10:
                    53:ea:c9:ff:11:7c:10:80:b7:6f:13:18:bb:e7:de:
                    80:df:29:69:02:c8:2c:26:79:61:a7:1a:e5:34:86:
                    42:3a:5d:06:4a:a7:60:76:e9:f8:d6:a4:2b:0c:c8:
                    04:ef:3b:d6:5f:79:4c:ff:df:f2:40:2c:c1:2c:26:
                    be:33:8f:5b:22:0c:c5:4b:aa:4a:54:5b:c9:c5:b4:
                    39:af
                Exponent: 65537 (0x10001)
        X509v3 extensions:
            X509v3 Basic Constraints: 
                CA:FALSE
            X509v3 Subject Key Identifier: 
                03:F5:42:43:A3:A7:BC:6B:91:FE:51:04:99:6C:F2:1D:C0:3D:EF:B7
            X509v3 Authority Key Identifier: 
                keyid:25:7D:48:CF:47:B4:C3:37:5B:77:F6:5E:A6:EE:49:E1:E3:91:85:7B
                DirName:/CN=team361-net
                serial:0B:B1:D8:05:D3:AF:64:49:55:3C:18:CB:DB:8E:C6:5E:76:AE:07:20
            X509v3 Extended Key Usage: 
                TLS Web Client Authentication
            X509v3 Key Usage: 
                Digital Signature
    Signature Algorithm: sha256WithRSAEncryption
    Signature Value:
        4f:e2:cd:75:8a:3d:c6:0a:4f:4d:d6:c2:1f:27:fa:25:e7:52:
        72:79:c1:31:d6:8f:51:83:df:b9:44:8b:fa:b4:fa:9e:d0:a6:
        12:37:fd:7f:ab:c0:41:7b:2c:63:1f:ec:3a:56:6e:09:9d:43:
        ff:c5:9f:52:b1:88:00:4b:b3:c8:ca:9b:94:23:a8:5c:d6:28:
        b2:19:ea:d0:24:09:22:11:28:78:78:53:e9:c3:81:22:8a:47:
        d2:ad:85:12:de:15:92:09:95:31:65:9c:c9:51:11:a2:91:29:
        94:c0:63:1b:36:68:e6:04:63:78:20:64:ca:97:fb:6c:98:a5:
        77:3e:bb:80:c5:63:dd:83:7b:49:74:26:18:45:d2:83:81:c6:
        6d:1a:fa:08:3f:c6:4a:eb:0d:d9:6a:67:67:9c:fb:38:77:22:
        5d:5d:49:c3:5e:2c:66:eb:5b:74:df:ed:4c:de:a1:b7:79:22:
        16:ae:f3:92:e4:1c:ea:85:e3:c6:46:50:b7:4e:25:c6:d3:c8:
        0d:e9:05:07:91:13:62:72:2b:a3:86:20:ff:3c:f7:45:ca:c0:
        09:c6:42:48:5d:ba:08:03:c2:4f:fe:21:06:3e:fd:18:85:ad:
        8d:a0:6c:be:26:d2:47:bd:a2:17:19:02:7b:24:32:f2:b1:13:
        26:02:19:69
-----BEGIN CERTIFICATE-----
MIIDXTCCAkWgAwIBAgIRAPOOBm05t292mPGow1hVGJ4wDQYJKoZIhvcNAQELBQAw
FjEUMBIGA1UEAwwLdGVhbTM2MS1uZXQwHhcNMjMxMTA0MTEzNTMwWhcNMjYxMDE5
MTEzNTMwWjAZMRcwFQYDVQQDDA50ZWFtMzYxLWNsaWVudDCCASIwDQYJKoZIhvcN
AQEBBQADggEPADCCAQoCggEBAL1Y+dGcFLCwdyjU+0LDkEO+TGChSEyhN6NmtvwX
fIcNujSCuFJSRxnauSa/8rJXvVQqssatTMMWx1BEIxgi1yk6ZvHuaLGMDxyGPFsp
7jdU5ZvTlV7jk++h32MfmnPq/TkFeCMBFQr10VypzPQFGpU5k1iSpoE3k8p8xloi
EXtLINFGNMmtvhnu1Mzh5lGuMjHknFA6rA7V0jVpcBbdHAqXI+yTexZbx8Ahz5tq
DL563ngQU+rJ/xF8EIC3bxMYu+fegN8paQLILCZ5Yaca5TSGQjpdBkqnYHbp+Nak
KwzIBO871l95TP/f8kAswSwmvjOPWyIMxUuqSlRbycW0Oa8CAwEAAaOBojCBnzAJ
BgNVHRMEAjAAMB0GA1UdDgQWBBQD9UJDo6e8a5H+UQSZbPIdwD3vtzBRBgNVHSME
SjBIgBQlfUjPR7TDN1t39l6m7knh45GFe6EapBgwFjEUMBIGA1UEAwwLdGVhbTM2
MS1uZXSCFAux2AXTr2RJVTwYy9uOxl52rgcgMBMGA1UdJQQMMAoGCCsGAQUFBwMC
MAsGA1UdDwQEAwIHgDANBgkqhkiG9w0BAQsFAAOCAQEAT+LNdYo9xgpPTdbCHyf6
JedScnnBMdaPUYPfuUSL+rT6ntCmEjf9f6vAQXssYx/sOlZuCZ1D/8WfUrGIAEuz
yMqblCOoXNYoshnq0CQJIhEoeHhT6cOBIopH0q2FEt4VkgmVMWWcyVERopEplMBj
GzZo5gRjeCBkypf7bJildz67gMVj3YN7SXQmGEXSg4HGbRr6CD/GSusN2WpnZ5z7
OHciXV1Jw14sZutbdN/tTN6ht3kiFq7zkuQc6oXjxkZQt04lxtPIDekFB5ETYnIr
o4Yg/zz3RcrACcZCSF26CAPCT/4hBj79GIWtjaBsvibSR72iFxkCeyQy8rETJgIZ
aQ==
-----END CERTIFICATE-----
