Certificate:
    Data:
        Version: 3 (0x2)
        Serial Number:
            0d:cb:d9:ad:79:c2:8c:12:dd:59:56:1c:ee:96:62:44
        Signature Algorithm: sha256WithRSAEncryption
        Issuer: CN=team476-net
        Validity
            Not Before: Nov  4 10:49:01 2023 GMT
            Not After : Oct 19 10:49:01 2026 GMT
        Subject: CN=team476-client
        Subject Public Key Info:
            Public Key Algorithm: rsaEncryption
                Public-Key: (2048 bit)
                Modulus:
                    00:a7:ae:30:2d:69:39:33:f8:f9:36:cf:f4:e1:77:
                    d7:c9:30:40:0e:64:dd:d0:4e:c2:b5:e5:ef:62:52:
                    45:cc:d0:07:f9:0e:65:cc:f8:c2:16:82:15:3d:e8:
                    90:76:44:e8:25:66:46:5a:e8:e4:47:0e:0a:4a:b1:
                    3c:96:cc:65:f6:64:5f:a5:35:57:e5:24:f5:2c:02:
                    63:1f:76:73:42:9b:30:2c:9c:d7:06:1a:c0:7b:5c:
                    70:49:49:07:bb:f5:64:79:77:d4:38:05:79:85:f9:
                    3b:ce:1b:5d:87:2f:be:96:ba:65:5d:3c:02:6d:ca:
                    b9:19:5d:6e:fb:1e:ff:56:ba:67:a5:cc:24:e8:a1:
                    92:0c:12:9c:d7:38:7b:fb:0b:94:57:91:50:68:d2:
                    35:9a:ad:21:a3:41:97:c8:4a:74:1f:ca:d9:d2:8b:
                    1e:0a:fa:cc:2f:b3:1d:32:09:ba:2c:69:0c:32:e8:
                    58:18:5f:bd:5a:b5:16:df:db:58:07:6d:c0:d3:0d:
                    63:22:5e:c0:61:94:3a:40:d5:85:82:eb:08:db:0e:
                    fe:44:58:1c:df:68:90:a4:78:0a:ab:ea:da:08:e5:
                    b5:53:f5:d2:0a:19:9a:4c:3e:37:90:1c:8a:4c:0f:
                    f9:e1:72:26:81:98:8b:78:16:ce:8f:c0:88:6e:16:
                    ac:0b
                Exponent: 65537 (0x10001)
        X509v3 extensions:
            X509v3 Basic Constraints: 
                CA:FALSE
            X509v3 Subject Key Identifier: 
                3D:0A:4B:3D:72:2D:88:DB:CF:9E:C5:4A:99:12:73:3D:47:E6:9E:B8
            X509v3 Authority Key Identifier: 
                keyid:D1:03:D2:58:CA:5F:FA:80:0C:51:2C:2F:0A:20:04:EA:41:CA:5E:04
                DirName:/CN=team476-net
                serial:13:AA:9B:C5:83:78:31:3B:7D:68:25:EE:56:02:80:94:4F:04:18:3C
            X509v3 Extended Key Usage: 
                TLS Web Client Authentication
            X509v3 Key Usage: 
                Digital Signature
    Signature Algorithm: sha256WithRSAEncryption
    Signature Value:
        7e:6f:44:98:19:42:ea:6a:b3:68:fa:5d:30:bc:af:d8:d3:35:
        f3:d0:66:f8:ab:36:d8:bd:84:90:e2:93:5a:cd:4d:92:38:02:
        97:e3:c4:3f:ca:f2:b4:2b:f6:90:9a:b2:02:05:92:5b:4b:d8:
        8e:5e:2e:b6:17:55:7c:91:3e:b2:ba:44:36:5b:24:76:50:1d:
        23:3a:b2:fe:83:7e:49:3f:a7:5d:a5:4e:05:a4:ba:5c:e9:34:
        44:76:3d:f2:68:0d:c9:b3:9b:b6:91:33:c5:a7:c3:16:c4:a3:
        92:4e:47:7d:71:0a:ac:fd:46:2a:1f:54:71:27:e1:c9:e4:59:
        9d:0c:09:bd:7f:9d:f0:e4:75:2c:b7:0f:e2:56:69:2e:b7:85:
        82:e8:6e:5e:c0:24:b5:a0:dc:d7:e9:f9:a6:54:62:e8:eb:2a:
        8b:58:18:d5:37:39:9f:c5:99:1a:e1:61:bd:90:a1:2d:67:e7:
        f5:b9:a5:9b:69:fe:14:16:37:4e:6d:40:5e:4d:a8:65:b4:50:
        67:1f:34:7a:8b:52:aa:ca:1a:92:5c:2d:fd:fe:70:e1:bf:10:
        f3:2f:1c:c5:37:b6:7a:37:63:fc:ab:dd:de:11:c3:f0:7e:ed:
        62:1a:eb:00:a8:9c:c0:9c:95:a2:3a:4e:06:8d:80:e2:fb:cc:
        28:3c:ae:47
-----BEGIN CERTIFICATE-----
MIIDXDCCAkSgAwIBAgIQDcvZrXnCjBLdWVYc7pZiRDANBgkqhkiG9w0BAQsFADAW
MRQwEgYDVQQDDAt0ZWFtNDc2LW5ldDAeFw0yMzExMDQxMDQ5MDFaFw0yNjEwMTkx
MDQ5MDFaMBkxFzAVBgNVBAMMDnRlYW00NzYtY2xpZW50MIIBIjANBgkqhkiG9w0B
AQEFAAOCAQ8AMIIBCgKCAQEAp64wLWk5M/j5Ns/04XfXyTBADmTd0E7CteXvYlJF
zNAH+Q5lzPjCFoIVPeiQdkToJWZGWujkRw4KSrE8lsxl9mRfpTVX5ST1LAJjH3Zz
QpswLJzXBhrAe1xwSUkHu/VkeXfUOAV5hfk7zhtdhy++lrplXTwCbcq5GV1u+x7/
Vrpnpcwk6KGSDBKc1zh7+wuUV5FQaNI1mq0ho0GXyEp0H8rZ0oseCvrML7MdMgm6
LGkMMuhYGF+9WrUW39tYB23A0w1jIl7AYZQ6QNWFgusI2w7+RFgc32iQpHgKq+ra
COW1U/XSChmaTD43kByKTA/54XImgZiLeBbOj8CIbhasCwIDAQABo4GiMIGfMAkG
A1UdEwQCMAAwHQYDVR0OBBYEFD0KSz1yLYjbz57FSpkScz1H5p64MFEGA1UdIwRK
MEiAFNED0ljKX/qADFEsLwogBOpByl4EoRqkGDAWMRQwEgYDVQQDDAt0ZWFtNDc2
LW5ldIIUE6qbxYN4MTt9aCXuVgKAlE8EGDwwEwYDVR0lBAwwCgYIKwYBBQUHAwIw
CwYDVR0PBAQDAgeAMA0GCSqGSIb3DQEBCwUAA4IBAQB+b0SYGULqarNo+l0wvK/Y
0zXz0Gb4qzbYvYSQ4pNazU2SOAKX48Q/yvK0K/aQmrICBZJbS9iOXi62F1V8kT6y
ukQ2WyR2UB0jOrL+g35JP6ddpU4FpLpc6TREdj3yaA3Js5u2kTPFp8MWxKOSTkd9
cQqs/UYqH1RxJ+HJ5FmdDAm9f53w5HUstw/iVmkut4WC6G5ewCS1oNzX6fmmVGLo
6yqLWBjVNzmfxZka4WG9kKEtZ+f1uaWbaf4UFjdObUBeTahltFBnHzR6i1KqyhqS
XC39/nDhvxDzLxzFN7Z6N2P8q93eEcPwfu1iGusAqJzAnJWiOk4GjYDi+8woPK5H
-----END CERTIFICATE-----
