Certificate:
    Data:
        Version: 3 (0x2)
        Serial Number:
            15:7d:03:86:6f:14:f9:1b:57:86:02:d3:27:eb:f1:85
        Signature Algorithm: sha256WithRSAEncryption
        Issuer: CN=team476-net
        Validity
            Not Before: Nov  3 20:47:57 2023 GMT
            Not After : Oct 18 20:47:57 2026 GMT
        Subject: CN=team476-client
        Subject Public Key Info:
            Public Key Algorithm: rsaEncryption
                Public-Key: (2048 bit)
                Modulus:
                    00:91:d8:e1:44:ef:32:21:22:4f:dd:29:e2:0a:c7:
                    87:4f:a7:49:55:e3:04:8b:a9:c7:fb:77:bb:91:fd:
                    c3:21:ff:32:e7:17:c3:b6:e7:f5:a5:88:52:02:48:
                    17:9b:0c:44:e2:d0:5d:0c:61:b4:bc:85:20:a1:1f:
                    7a:8e:49:6c:36:80:1f:24:e4:67:b0:99:02:ba:89:
                    b5:8c:94:cb:2f:c9:b0:25:9b:9f:9d:ab:73:0b:d8:
                    97:62:2d:3c:1a:c0:3c:c2:db:52:20:8f:e0:05:a2:
                    be:95:69:81:06:fb:f8:5d:64:de:00:44:7c:ae:79:
                    f9:89:fa:1d:ff:3b:d1:0e:ba:ed:1f:a6:75:f1:93:
                    72:d9:dc:16:0d:ec:3e:02:4f:3d:6a:0b:84:57:78:
                    6f:96:e6:24:ea:9c:83:d8:d5:76:08:9c:26:32:a8:
                    45:6a:5a:51:f0:a3:51:e6:02:19:a1:bb:a9:24:ae:
                    ad:e4:30:05:6d:01:df:32:72:b0:29:81:e2:17:b3:
                    dd:ca:5a:16:17:92:83:49:6a:ec:2e:a4:94:36:92:
                    cf:bc:31:ff:44:d8:71:96:36:2a:a8:e8:d6:c3:b4:
                    8d:71:97:d8:99:30:35:db:6c:4f:a5:01:4c:3b:06:
                    20:7b:d5:c1:b2:6e:c1:2d:23:4e:7b:be:01:61:f4:
                    69:91
                Exponent: 65537 (0x10001)
        X509v3 extensions:
            X509v3 Basic Constraints: 
                CA:FALSE
            X509v3 Subject Key Identifier: 
                C8:9C:EE:7C:C9:90:9E:7A:C7:07:26:C3:4F:DB:36:BE:E4:7E:C1:50
            X509v3 Authority Key Identifier: 
                keyid:15:8F:DB:09:94:AE:E5:C8:D2:DC:97:09:33:7C:99:8D:2A:6F:6A:F7
                DirName:/CN=team476-net
                serial:54:CD:FB:88:12:F0:30:61:65:3A:7A:71:89:AA:1B:C7:BE:69:75:EA
            X509v3 Extended Key Usage: 
                TLS Web Client Authentication
            X509v3 Key Usage: 
                Digital Signature
    Signature Algorithm: sha256WithRSAEncryption
    Signature Value:
        db:4a:ae:4b:c7:f0:76:0d:fb:98:4d:d3:cb:4a:6c:e7:6d:24:
        9b:5d:a4:d2:e7:89:06:09:c1:54:af:84:d6:41:c1:15:80:bc:
        86:13:3b:55:08:fa:da:0c:70:ab:56:4a:38:bd:7d:47:12:52:
        ee:70:e3:45:2d:3c:4e:e5:e0:46:ef:74:8e:72:82:38:7e:a9:
        1f:0e:a3:46:b4:f7:35:b8:87:49:e7:94:e0:35:fe:26:60:63:
        ef:ed:e5:47:0c:8c:7c:22:73:0a:93:9b:2e:96:20:68:55:78:
        87:e9:fb:e8:d5:a3:4b:c8:86:45:c9:50:3b:44:5b:23:b0:3d:
        00:9b:56:b7:e0:a3:37:9d:85:6b:1f:df:de:57:e2:d2:7a:a3:
        d0:c2:60:9b:b7:67:95:42:15:f2:4c:41:19:8e:67:e9:9a:71:
        c0:e0:58:5a:c1:ea:38:69:21:24:f1:23:c8:94:e2:da:ab:41:
        d2:6b:b8:06:40:c8:e7:19:2e:29:71:63:ef:a6:b3:17:53:d8:
        97:f0:27:8f:a0:83:d4:f2:7b:d9:57:81:df:8f:e0:64:32:b5:
        39:6e:fb:08:4d:a3:74:97:42:0c:a6:20:f4:86:d9:b4:78:fb:
        5d:90:22:10:b3:e2:77:29:db:fb:08:c2:9f:a8:8a:7c:a3:0b:
        4d:74:22:11
-----BEGIN CERTIFICATE-----
MIIDXDCCAkSgAwIBAgIQFX0Dhm8U+RtXhgLTJ+vxhTANBgkqhkiG9w0BAQsFADAW
MRQwEgYDVQQDDAt0ZWFtNDc2LW5ldDAeFw0yMzExMDMyMDQ3NTdaFw0yNjEwMTgy
MDQ3NTdaMBkxFzAVBgNVBAMMDnRlYW00NzYtY2xpZW50MIIBIjANBgkqhkiG9w0B
AQEFAAOCAQ8AMIIBCgKCAQEAkdjhRO8yISJP3SniCseHT6dJVeMEi6nH+3e7kf3D
If8y5xfDtuf1pYhSAkgXmwxE4tBdDGG0vIUgoR96jklsNoAfJORnsJkCuom1jJTL
L8mwJZufnatzC9iXYi08GsA8wttSII/gBaK+lWmBBvv4XWTeAER8rnn5ifod/zvR
DrrtH6Z18ZNy2dwWDew+Ak89aguEV3hvluYk6pyD2NV2CJwmMqhFalpR8KNR5gIZ
obupJK6t5DAFbQHfMnKwKYHiF7PdyloWF5KDSWrsLqSUNpLPvDH/RNhxljYqqOjW
w7SNcZfYmTA122xPpQFMOwYge9XBsm7BLSNOe74BYfRpkQIDAQABo4GiMIGfMAkG
A1UdEwQCMAAwHQYDVR0OBBYEFMic7nzJkJ56xwcmw0/bNr7kfsFQMFEGA1UdIwRK
MEiAFBWP2wmUruXI0tyXCTN8mY0qb2r3oRqkGDAWMRQwEgYDVQQDDAt0ZWFtNDc2
LW5ldIIUVM37iBLwMGFlOnpxiaobx75pdeowEwYDVR0lBAwwCgYIKwYBBQUHAwIw
CwYDVR0PBAQDAgeAMA0GCSqGSIb3DQEBCwUAA4IBAQDbSq5Lx/B2DfuYTdPLSmzn
bSSbXaTS54kGCcFUr4TWQcEVgLyGEztVCPraDHCrVko4vX1HElLucONFLTxO5eBG
73SOcoI4fqkfDqNGtPc1uIdJ55TgNf4mYGPv7eVHDIx8InMKk5suliBoVXiH6fvo
1aNLyIZFyVA7RFsjsD0Am1a34KM3nYVrH9/eV+LSeqPQwmCbt2eVQhXyTEEZjmfp
mnHA4Fhaweo4aSEk8SPIlOLaq0HSa7gGQMjnGS4pcWPvprMXU9iX8CePoIPU8nvZ
V4Hfj+BkMrU5bvsITaN0l0IMpiD0htm0ePtdkCIQs+J3Kdv7CMKfqIp8owtNdCIR
-----END CERTIFICATE-----
