Certificate:
    Data:
        Version: 3 (0x2)
        Serial Number:
            49:8c:db:3e:2f:65:ed:e9:77:2c:ba:b8:18:0a:45:1a
        Signature Algorithm: sha256WithRSAEncryption
        Issuer: CN=team476-net
        Validity
            Not Before: Nov  4 11:38:18 2023 GMT
            Not After : Oct 19 11:38:18 2026 GMT
        Subject: CN=team476-client
        Subject Public Key Info:
            Public Key Algorithm: rsaEncryption
                Public-Key: (2048 bit)
                Modulus:
                    00:ae:46:85:28:d4:38:a8:45:3e:b7:10:f6:8f:b1:
                    e8:92:1d:bc:7c:a9:4c:79:04:14:12:a8:b6:a6:4f:
                    b0:67:a4:30:7b:e5:18:c6:5b:ed:55:e9:7d:42:05:
                    2c:d8:f7:70:3a:c0:8b:1a:47:e6:8f:a4:a9:4c:a4:
                    be:cf:04:53:8c:83:15:dc:0c:54:cc:81:79:25:89:
                    8b:ee:33:8d:d6:e7:2e:e1:3d:c3:78:2b:c1:64:43:
                    6f:a4:22:ac:6c:d6:08:7f:30:f3:9a:24:97:ad:2a:
                    e9:6c:4b:90:fb:f7:9b:76:ec:77:b8:7e:b8:94:2c:
                    9b:f7:6f:d4:e2:cf:a8:b5:fb:96:92:9c:10:72:38:
                    47:e5:12:53:57:03:b3:03:f8:73:12:a5:e0:a9:4b:
                    5b:8f:be:5c:99:1b:ef:20:4d:35:d4:86:c7:7f:5b:
                    8c:72:ce:16:e7:de:2b:96:7e:ff:10:cb:35:9a:cf:
                    0b:7b:60:7d:91:8f:a0:50:d7:60:32:d3:cb:24:45:
                    07:51:31:50:6f:85:1d:1c:3a:be:e2:f2:7d:7d:82:
                    f8:1f:6c:a0:0c:73:a8:fb:37:82:84:86:15:89:cf:
                    01:8a:41:05:b1:59:b5:62:34:f8:94:10:69:03:92:
                    bd:e3:d0:22:91:8d:74:e5:18:37:2a:8f:a8:9a:3f:
                    23:fb
                Exponent: 65537 (0x10001)
        X509v3 extensions:
            X509v3 Basic Constraints: 
                CA:FALSE
            X509v3 Subject Key Identifier: 
                07:F7:92:A4:40:7E:B7:EB:B0:63:43:45:88:28:3D:00:C6:75:E7:F9
            X509v3 Authority Key Identifier: 
                keyid:58:FE:40:B6:5B:93:2D:61:2E:1B:E5:6F:D2:E0:BA:BF:9A:3F:8D:A4
                DirName:/CN=team476-net
                serial:73:34:8D:96:F6:0D:23:BB:7C:D5:8C:6B:11:EF:16:C2:79:73:DD:AE
            X509v3 Extended Key Usage: 
                TLS Web Client Authentication
            X509v3 Key Usage: 
                Digital Signature
    Signature Algorithm: sha256WithRSAEncryption
    Signature Value:
        01:75:2d:bd:b6:c6:f4:e4:83:14:93:d2:ca:03:4f:87:5e:2d:
        88:61:23:13:c9:d9:1c:4e:6d:51:40:c3:0b:38:d8:00:7c:08:
        7c:88:49:0c:ee:32:71:df:9f:17:91:05:37:43:4e:c0:4c:59:
        16:a8:41:9f:9d:80:ce:8d:07:ff:7c:e3:43:7c:7f:3f:58:a0:
        2a:94:f6:6e:7b:25:a1:9e:63:f8:65:20:05:e4:8d:e0:2b:68:
        fc:3e:bb:67:20:d5:a7:c0:c8:21:5f:3f:3e:e9:9b:a8:39:3e:
        08:76:2f:5e:b8:b7:46:65:e4:3e:ad:dd:b1:ba:f7:a4:41:d0:
        f2:63:07:d9:96:80:63:27:97:3b:9e:e8:7c:ca:dd:d8:81:c6:
        7f:c6:39:14:13:fc:2f:14:ae:98:f1:83:0a:41:72:5f:ee:92:
        da:a0:86:0c:49:5c:bc:7b:3f:5b:fb:f2:4f:03:ef:03:52:14:
        d9:b9:f6:e7:6a:16:02:b9:01:3a:4b:62:ad:5c:95:c1:0a:4c:
        01:0a:9b:6b:02:6a:a2:4b:d1:74:d3:21:b0:90:69:ba:c3:78:
        63:bb:55:ec:c3:29:91:f4:5c:49:1e:71:d6:61:3c:d4:94:49:
        78:dd:59:44:9c:39:22:e0:c5:af:06:e4:2a:bb:6d:16:4c:72:
        b2:1a:5b:a0
-----BEGIN CERTIFICATE-----
MIIDXDCCAkSgAwIBAgIQSYzbPi9l7el3LLq4GApFGjANBgkqhkiG9w0BAQsFADAW
MRQwEgYDVQQDDAt0ZWFtNDc2LW5ldDAeFw0yMzExMDQxMTM4MThaFw0yNjEwMTkx
MTM4MThaMBkxFzAVBgNVBAMMDnRlYW00NzYtY2xpZW50MIIBIjANBgkqhkiG9w0B
AQEFAAOCAQ8AMIIBCgKCAQEArkaFKNQ4qEU+txD2j7Hokh28fKlMeQQUEqi2pk+w
Z6Qwe+UYxlvtVel9QgUs2PdwOsCLGkfmj6SpTKS+zwRTjIMV3AxUzIF5JYmL7jON
1ucu4T3DeCvBZENvpCKsbNYIfzDzmiSXrSrpbEuQ+/ebdux3uH64lCyb92/U4s+o
tfuWkpwQcjhH5RJTVwOzA/hzEqXgqUtbj75cmRvvIE011IbHf1uMcs4W594rln7/
EMs1ms8Le2B9kY+gUNdgMtPLJEUHUTFQb4UdHDq+4vJ9fYL4H2ygDHOo+zeChIYV
ic8BikEFsVm1YjT4lBBpA5K949AikY105Rg3Ko+omj8j+wIDAQABo4GiMIGfMAkG
A1UdEwQCMAAwHQYDVR0OBBYEFAf3kqRAfrfrsGNDRYgoPQDGdef5MFEGA1UdIwRK
MEiAFFj+QLZbky1hLhvlb9Lgur+aP42koRqkGDAWMRQwEgYDVQQDDAt0ZWFtNDc2
LW5ldIIUczSNlvYNI7t81YxrEe8Wwnlz3a4wEwYDVR0lBAwwCgYIKwYBBQUHAwIw
CwYDVR0PBAQDAgeAMA0GCSqGSIb3DQEBCwUAA4IBAQABdS29tsb05IMUk9LKA0+H
Xi2IYSMTydkcTm1RQMMLONgAfAh8iEkM7jJx358XkQU3Q07ATFkWqEGfnYDOjQf/
fONDfH8/WKAqlPZueyWhnmP4ZSAF5I3gK2j8PrtnINWnwMghXz8+6ZuoOT4Idi9e
uLdGZeQ+rd2xuvekQdDyYwfZloBjJ5c7nuh8yt3YgcZ/xjkUE/wvFK6Y8YMKQXJf
7pLaoIYMSVy8ez9b+/JPA+8DUhTZufbnahYCuQE6S2KtXJXBCkwBCptrAmqiS9F0
0yGwkGm6w3hju1XswymR9FxJHnHWYTzUlEl43VlEnDki4MWvBuQqu20WTHKyGlug
-----END CERTIFICATE-----
