Certificate:
    Data:
        Version: 3 (0x2)
        Serial Number:
            d7:23:64:f5:dc:fa:63:7e:60:d6:7f:61:7b:e4:67:02
        Signature Algorithm: sha256WithRSAEncryption
        Issuer: CN=team476-net
        Validity
            Not Before: Nov  4 11:38:19 2023 GMT
            Not After : Oct 19 11:38:19 2026 GMT
        Subject: CN=team476-server
        Subject Public Key Info:
            Public Key Algorithm: rsaEncryption
                Public-Key: (2048 bit)
                Modulus:
                    00:c9:05:13:a1:3d:7e:61:5a:e8:ea:09:91:aa:f6:
                    53:a8:3d:53:f4:6b:45:ad:ac:d2:47:05:a1:fa:b6:
                    4a:16:d2:70:8e:20:6d:bc:1f:b1:a3:62:96:ec:3f:
                    73:e6:3f:0d:ad:00:b3:83:2e:c4:e3:56:31:86:5a:
                    1d:ce:90:ca:08:40:52:3d:3c:28:ad:06:22:18:10:
                    11:20:10:af:39:42:af:0b:fd:74:48:a4:b3:e2:2c:
                    da:d7:6b:2a:38:75:7f:de:ce:c6:e8:6d:54:3d:2e:
                    d7:4a:74:2e:a0:fe:96:5a:0f:59:a3:81:cd:ae:72:
                    55:2c:e9:a2:5b:b0:60:35:91:05:62:a9:02:fd:fa:
                    33:08:66:64:c7:cf:d2:0f:a8:ee:97:54:87:85:f5:
                    68:38:1f:b8:c8:23:6e:33:ad:96:2a:40:57:16:a4:
                    cc:4b:a1:8d:8f:bd:d2:c7:76:40:fc:c4:bf:d6:ab:
                    db:eb:3d:c7:d2:d8:d1:01:38:4a:ed:ac:cf:2c:9a:
                    ca:7a:d6:df:de:96:9d:f8:6a:28:02:5f:b1:96:00:
                    f3:25:0f:aa:a2:a4:ad:b7:3c:8d:01:09:a7:f7:65:
                    34:52:41:c7:c6:a7:c8:a0:ec:9f:ae:6c:b6:ed:db:
                    8d:33:94:c7:c3:6b:03:a9:90:e5:12:3e:05:73:f8:
                    a2:59
                Exponent: 65537 (0x10001)
        X509v3 extensions:
            X509v3 Basic Constraints: 
                CA:FALSE
            X509v3 Subject Key Identifier: 
                78:9C:94:94:5E:F3:63:8F:42:3F:A2:E6:E1:36:C5:35:6D:90:04:7D
            X509v3 Authority Key Identifier: 
                keyid:58:FE:40:B6:5B:93:2D:61:2E:1B:E5:6F:D2:E0:BA:BF:9A:3F:8D:A4
                DirName:/CN=team476-net
                serial:73:34:8D:96:F6:0D:23:BB:7C:D5:8C:6B:11:EF:16:C2:79:73:DD:AE
            X509v3 Extended Key Usage: 
                TLS Web Server Authentication
            X509v3 Key Usage: 
                Digital Signature, Key Encipherment
            X509v3 Subject Alternative Name: 
                DNS:team476-server
    Signature Algorithm: sha256WithRSAEncryption
    Signature Value:
        6c:75:8d:57:0a:82:a4:fb:bd:dd:8b:90:35:e6:da:86:85:83:
        66:3b:71:2f:06:4a:8e:12:6f:ba:4a:db:0d:9e:04:97:80:ce:
        7f:cb:5f:00:be:51:32:2c:6b:2b:5e:92:6e:06:ac:fc:64:27:
        e7:6f:56:c6:56:97:43:12:2c:35:b9:db:3c:1f:11:a3:5b:d5:
        48:7c:33:64:d3:3e:0b:e5:c2:9a:f6:c9:d2:60:af:75:03:51:
        de:c7:c1:95:71:75:cd:5a:df:7d:f1:c2:7f:0f:f4:23:f5:f4:
        d2:37:32:53:0c:0c:58:a7:d3:38:ec:04:3e:ba:96:cd:6b:55:
        6f:16:52:e3:01:d5:d0:00:44:3b:83:e0:87:3d:18:c1:6a:f5:
        db:6f:d0:9f:58:3c:a0:f6:9b:ec:ea:e3:0f:53:10:53:8a:ae:
        fa:a5:2c:88:a4:10:d3:ad:71:59:33:90:ad:71:3f:d2:9e:33:
        8f:68:07:cf:fa:fb:ef:6a:27:cf:9d:ec:8c:9f:f2:a2:c3:ad:
        d8:cf:95:a3:fd:50:bd:25:fa:27:9c:29:3f:3e:a9:81:4f:aa:
        70:76:18:7d:0a:d7:4b:a3:cf:54:29:5f:4d:83:39:33:cf:86:
        13:67:be:ea:6a:33:2b:d3:78:01:31:cb:68:88:37:97:b8:14:
        22:86:05:07
-----BEGIN CERTIFICATE-----
MIIDeDCCAmCgAwIBAgIRANcjZPXc+mN+YNZ/YXvkZwIwDQYJKoZIhvcNAQELBQAw
FjEUMBIGA1UEAwwLdGVhbTQ3Ni1uZXQwHhcNMjMxMTA0MTEzODE5WhcNMjYxMDE5
MTEzODE5WjAZMRcwFQYDVQQDDA50ZWFtNDc2LXNlcnZlcjCCASIwDQYJKoZIhvcN
AQEBBQADggEPADCCAQoCggEBAMkFE6E9fmFa6OoJkar2U6g9U/RrRa2s0kcFofq2
ShbScI4gbbwfsaNiluw/c+Y/Da0As4MuxONWMYZaHc6QyghAUj08KK0GIhgQESAQ
rzlCrwv9dEiks+Is2tdrKjh1f97OxuhtVD0u10p0LqD+lloPWaOBza5yVSzpoluw
YDWRBWKpAv36MwhmZMfP0g+o7pdUh4X1aDgfuMgjbjOtlipAVxakzEuhjY+90sd2
QPzEv9ar2+s9x9LY0QE4Su2szyyaynrW396WnfhqKAJfsZYA8yUPqqKkrbc8jQEJ
p/dlNFJBx8anyKDsn65stu3bjTOUx8NrA6mQ5RI+BXP4olkCAwEAAaOBvTCBujAJ
BgNVHRMEAjAAMB0GA1UdDgQWBBR4nJSUXvNjj0I/oubhNsU1bZAEfTBRBgNVHSME
SjBIgBRY/kC2W5MtYS4b5W/S4Lq/mj+NpKEapBgwFjEUMBIGA1UEAwwLdGVhbTQ3
Ni1uZXSCFHM0jZb2DSO7fNWMaxHvFsJ5c92uMBMGA1UdJQQMMAoGCCsGAQUFBwMB
MAsGA1UdDwQEAwIFoDAZBgNVHREEEjAQgg50ZWFtNDc2LXNlcnZlcjANBgkqhkiG
9w0BAQsFAAOCAQEAbHWNVwqCpPu93YuQNebahoWDZjtxLwZKjhJvukrbDZ4El4DO
f8tfAL5RMixrK16Sbgas/GQn529WxlaXQxIsNbnbPB8Ro1vVSHwzZNM+C+XCmvbJ
0mCvdQNR3sfBlXF1zVrfffHCfw/0I/X00jcyUwwMWKfTOOwEPrqWzWtVbxZS4wHV
0ABEO4Pghz0YwWr122/Qn1g8oPab7OrjD1MQU4qu+qUsiKQQ061xWTOQrXE/0p4z
j2gHz/r772onz53sjJ/yosOt2M+Vo/1QvSX6J5wpPz6pgU+qcHYYfQrXS6PPVClf
TYM5M8+GE2e+6mozK9N4ATHLaIg3l7gUIoYFBw==
-----END CERTIFICATE-----
