Certificate:
    Data:
        Version: 3 (0x2)
        Serial Number:
            f4:f3:03:f5:f5:a1:9f:10:20:64:3e:66:68:b9:64:1d
        Signature Algorithm: sha256WithRSAEncryption
        Issuer: CN=team476-net
        Validity
            Not Before: Nov  3 20:47:57 2023 GMT
            Not After : Oct 18 20:47:57 2026 GMT
        Subject: CN=team476-server
        Subject Public Key Info:
            Public Key Algorithm: rsaEncryption
                Public-Key: (2048 bit)
                Modulus:
                    00:db:1c:6b:23:ef:98:46:12:ef:58:07:5d:a3:d8:
                    86:2d:2c:11:f3:0d:34:d4:e9:e4:db:9a:de:0c:15:
                    e6:36:7f:57:d4:51:43:71:3a:99:c5:36:74:50:94:
                    72:88:eb:1d:59:36:3a:9a:df:38:17:fd:f6:c9:73:
                    9d:3b:ca:06:6e:e5:e8:cf:bc:b5:2e:28:ba:0f:fc:
                    61:8d:75:7e:f7:b9:b4:3e:21:85:fd:65:24:92:3d:
                    bb:cc:3e:d7:7f:16:15:54:59:7f:51:b3:4d:32:38:
                    92:6e:9c:52:30:dc:13:44:46:31:68:7a:ca:64:ed:
                    8a:c0:fe:b2:7e:a4:2b:80:ac:ab:24:37:1d:2e:aa:
                    a5:70:e9:bf:c7:27:5f:1a:ce:58:b8:fe:e7:e5:58:
                    26:fe:1f:f0:ea:b3:9e:fa:56:06:8c:d7:0a:ab:81:
                    bc:44:f0:56:1d:c0:a9:1c:ab:fd:26:15:ac:d9:a5:
                    46:b0:f8:21:f1:c1:21:1f:f2:cc:0a:15:80:87:98:
                    e6:fc:9c:92:e6:68:1c:e8:c2:25:e1:5d:90:d7:49:
                    f0:fa:c8:34:39:bf:7f:7b:80:2f:d9:dd:90:27:19:
                    60:c0:5c:a6:77:ed:22:fe:2f:8f:c9:15:61:9f:e4:
                    88:9a:7f:b8:88:dd:ba:8b:89:f8:2d:6d:16:7e:04:
                    81:25
                Exponent: 65537 (0x10001)
        X509v3 extensions:
            X509v3 Basic Constraints: 
                CA:FALSE
            X509v3 Subject Key Identifier: 
                37:B4:11:84:4B:76:BF:AE:64:B6:E4:2A:B1:55:FD:C6:60:F2:73:97
            X509v3 Authority Key Identifier: 
                keyid:15:8F:DB:09:94:AE:E5:C8:D2:DC:97:09:33:7C:99:8D:2A:6F:6A:F7
                DirName:/CN=team476-net
                serial:54:CD:FB:88:12:F0:30:61:65:3A:7A:71:89:AA:1B:C7:BE:69:75:EA
            X509v3 Extended Key Usage: 
                TLS Web Server Authentication
            X509v3 Key Usage: 
                Digital Signature, Key Encipherment
            X509v3 Subject Alternative Name: 
                DNS:team476-server
    Signature Algorithm: sha256WithRSAEncryption
    Signature Value:
        aa:a2:75:89:d7:8e:a5:21:8a:3b:68:9f:6f:a5:38:73:67:c0:
        87:e0:f9:97:35:7b:da:6d:c8:57:3f:f4:53:22:e5:37:e1:0f:
        20:84:43:05:66:9b:35:e3:7a:b3:f4:d5:4e:98:37:08:c1:7f:
        e3:8f:54:65:3c:8f:da:c5:b5:56:a1:08:16:dd:01:9a:65:df:
        56:86:cd:81:5b:b6:21:03:c3:9b:79:a9:dc:77:e5:77:f5:de:
        11:eb:1b:5b:4d:ee:7a:1a:4b:8e:0b:d8:3a:fb:49:1a:f4:6a:
        96:36:56:8f:f0:e4:6a:c7:a9:66:16:eb:81:03:0c:dd:e2:28:
        c5:32:cb:1f:4b:ed:ed:ba:58:86:23:61:1c:aa:90:98:62:f9:
        dc:56:f9:72:d1:c5:8e:5e:a6:ef:75:bc:08:dc:5a:17:c3:8c:
        58:34:8a:03:fd:59:59:c7:d4:2e:30:7c:5c:76:75:4b:a8:4a:
        38:54:b4:23:12:66:61:5d:29:ce:75:4f:e0:40:b9:6f:c2:ae:
        e4:6b:4f:0a:bb:f0:43:52:49:b4:94:73:61:43:56:ee:17:64:
        d0:b2:45:ce:8d:74:a2:c9:6f:af:63:24:99:24:4c:22:e0:a9:
        82:43:8c:bf:25:b8:0c:05:01:43:9f:aa:d9:6d:a0:30:d3:96:
        b9:3c:7e:e6
-----BEGIN CERTIFICATE-----
MIIDeDCCAmCgAwIBAgIRAPTzA/X1oZ8QIGQ+Zmi5ZB0wDQYJKoZIhvcNAQELBQAw
FjEUMBIGA1UEAwwLdGVhbTQ3Ni1uZXQwHhcNMjMxMTAzMjA0NzU3WhcNMjYxMDE4
MjA0NzU3WjAZMRcwFQYDVQQDDA50ZWFtNDc2LXNlcnZlcjCCASIwDQYJKoZIhvcN
AQEBBQADggEPADCCAQoCggEBANscayPvmEYS71gHXaPYhi0sEfMNNNTp5Nua3gwV
5jZ/V9RRQ3E6mcU2dFCUcojrHVk2OprfOBf99slznTvKBm7l6M+8tS4oug/8YY11
fve5tD4hhf1lJJI9u8w+138WFVRZf1GzTTI4km6cUjDcE0RGMWh6ymTtisD+sn6k
K4CsqyQ3HS6qpXDpv8cnXxrOWLj+5+VYJv4f8OqznvpWBozXCquBvETwVh3AqRyr
/SYVrNmlRrD4IfHBIR/yzAoVgIeY5vyckuZoHOjCJeFdkNdJ8PrINDm/f3uAL9nd
kCcZYMBcpnftIv4vj8kVYZ/kiJp/uIjduouJ+C1tFn4EgSUCAwEAAaOBvTCBujAJ
BgNVHRMEAjAAMB0GA1UdDgQWBBQ3tBGES3a/rmS25CqxVf3GYPJzlzBRBgNVHSME
SjBIgBQVj9sJlK7lyNLclwkzfJmNKm9q96EapBgwFjEUMBIGA1UEAwwLdGVhbTQ3
Ni1uZXSCFFTN+4gS8DBhZTp6cYmqG8e+aXXqMBMGA1UdJQQMMAoGCCsGAQUFBwMB
MAsGA1UdDwQEAwIFoDAZBgNVHREEEjAQgg50ZWFtNDc2LXNlcnZlcjANBgkqhkiG
9w0BAQsFAAOCAQEAqqJ1ideOpSGKO2ifb6U4c2fAh+D5lzV72m3IVz/0UyLlN+EP
IIRDBWabNeN6s/TVTpg3CMF/449UZTyP2sW1VqEIFt0BmmXfVobNgVu2IQPDm3mp
3Hfld/XeEesbW03uehpLjgvYOvtJGvRqljZWj/DkasepZhbrgQMM3eIoxTLLH0vt
7bpYhiNhHKqQmGL53Fb5ctHFjl6m73W8CNxaF8OMWDSKA/1ZWcfULjB8XHZ1S6hK
OFS0IxJmYV0pznVP4EC5b8Ku5GtPCrvwQ1JJtJRzYUNW7hdk0LJFzo10oslvr2Mk
mSRMIuCpgkOMvyW4DAUBQ5+q2W2gMNOWuTx+5g==
-----END CERTIFICATE-----
