Certificate:
    Data:
        Version: 3 (0x2)
        Serial Number:
            f5:85:48:90:e4:fa:e9:52:db:63:30:0c:a8:dc:6b:2f
        Signature Algorithm: sha256WithRSAEncryption
        Issuer: CN=team476-net
        Validity
            Not Before: Nov  4 10:49:01 2023 GMT
            Not After : Oct 19 10:49:01 2026 GMT
        Subject: CN=team476-server
        Subject Public Key Info:
            Public Key Algorithm: rsaEncryption
                Public-Key: (2048 bit)
                Modulus:
                    00:cd:02:57:e9:be:2f:24:85:b8:84:c4:89:d8:14:
                    db:53:5e:10:e9:88:4a:b8:54:85:1c:cf:21:ad:13:
                    c2:96:2b:fa:a8:1e:55:84:df:05:85:34:8c:1f:44:
                    e3:11:09:f7:a7:75:34:51:e0:d1:7f:b9:14:3f:ca:
                    74:58:61:0c:9c:52:a1:d1:45:96:8a:e3:84:53:1c:
                    94:dd:39:e9:b3:41:8a:2d:18:6a:bb:79:1d:fc:96:
                    95:25:7f:1c:93:fd:eb:8c:10:06:8e:78:ff:69:00:
                    79:c1:77:ed:df:c6:d4:f6:fb:0e:95:21:05:74:b9:
                    10:ec:ff:1a:83:93:9c:ab:19:17:59:d0:9b:e6:1b:
                    6f:36:cf:a3:b2:b6:aa:09:7b:e0:47:78:0a:61:06:
                    ff:aa:c3:43:40:59:0c:70:d6:28:f6:ad:0b:23:09:
                    e1:6f:27:f4:0e:74:2d:04:10:69:c8:c9:32:fb:a6:
                    1e:5e:b2:bd:37:b0:cb:4d:9f:0f:9e:cd:d2:38:d7:
                    ba:08:ad:46:af:54:3b:71:b4:cb:f7:b7:2c:cf:08:
                    8e:3d:7a:3f:9f:35:95:8c:c2:b1:a6:36:6a:8d:e0:
                    06:f2:06:ed:95:89:a7:d7:bd:7e:ef:96:59:a1:f1:
                    87:6b:c5:b6:ee:b9:c7:a5:28:b3:24:04:bc:37:51:
                    fa:f9
                Exponent: 65537 (0x10001)
        X509v3 extensions:
            X509v3 Basic Constraints: 
                CA:FALSE
            X509v3 Subject Key Identifier: 
                49:E7:C0:CD:79:B1:AE:D7:4C:A5:E0:45:E2:E4:72:31:09:FD:E7:A2
            X509v3 Authority Key Identifier: 
                keyid:D1:03:D2:58:CA:5F:FA:80:0C:51:2C:2F:0A:20:04:EA:41:CA:5E:04
                DirName:/CN=team476-net
                serial:13:AA:9B:C5:83:78:31:3B:7D:68:25:EE:56:02:80:94:4F:04:18:3C
            X509v3 Extended Key Usage: 
                TLS Web Server Authentication
            X509v3 Key Usage: 
                Digital Signature, Key Encipherment
            X509v3 Subject Alternative Name: 
                DNS:team476-server
    Signature Algorithm: sha256WithRSAEncryption
    Signature Value:
        47:47:50:01:56:61:0e:e1:48:10:34:a5:15:f0:37:3b:71:86:
        37:be:28:15:82:d3:23:e4:57:1d:0f:b5:f1:8f:94:ab:a2:ea:
        53:b4:e4:3b:6e:1a:79:e6:a7:58:98:e2:16:bb:6d:bb:93:ef:
        d1:1e:7c:b7:da:3c:18:2f:5b:98:f9:85:7b:d7:e7:bf:68:e5:
        ea:da:f9:83:b9:5e:85:df:65:40:f4:2b:0f:c3:db:08:3f:55:
        75:52:14:c0:ea:11:5a:53:5e:48:79:33:93:ac:a8:05:1f:12:
        ee:e8:0c:94:93:61:f8:08:33:3d:42:81:c7:1a:a3:d3:77:f5:
        27:1b:71:e7:7c:1e:dd:9f:00:fd:95:9a:1e:e7:a0:06:93:67:
        0f:92:82:07:fc:1f:48:dc:19:15:a4:08:4b:55:0e:6b:60:45:
        95:3e:4e:91:5f:d0:15:f8:1a:28:01:89:e8:84:30:69:e0:ab:
        e9:f1:70:c1:bb:89:11:cc:4c:76:98:ea:33:c8:17:90:df:77:
        30:51:bd:af:71:b6:cb:d9:ea:36:f0:4d:71:e9:18:e2:32:cd:
        69:41:a6:df:df:9e:7a:6e:e0:8c:b1:a1:1a:6e:e2:2d:b4:46:
        6b:ef:fa:6c:27:5e:70:f9:01:7e:61:c0:de:c6:2c:d5:86:ab:
        14:a7:6b:0a
-----BEGIN CERTIFICATE-----
MIIDeDCCAmCgAwIBAgIRAPWFSJDk+ulS22MwDKjcay8wDQYJKoZIhvcNAQELBQAw
FjEUMBIGA1UEAwwLdGVhbTQ3Ni1uZXQwHhcNMjMxMTA0MTA0OTAxWhcNMjYxMDE5
MTA0OTAxWjAZMRcwFQYDVQQDDA50ZWFtNDc2LXNlcnZlcjCCASIwDQYJKoZIhvcN
AQEBBQADggEPADCCAQoCggEBAM0CV+m+LySFuITEidgU21NeEOmISrhUhRzPIa0T
wpYr+qgeVYTfBYU0jB9E4xEJ96d1NFHg0X+5FD/KdFhhDJxSodFFlorjhFMclN05
6bNBii0Yart5HfyWlSV/HJP964wQBo54/2kAecF37d/G1Pb7DpUhBXS5EOz/GoOT
nKsZF1nQm+YbbzbPo7K2qgl74Ed4CmEG/6rDQ0BZDHDWKPatCyMJ4W8n9A50LQQQ
acjJMvumHl6yvTewy02fD57N0jjXugitRq9UO3G0y/e3LM8Ijj16P581lYzCsaY2
ao3gBvIG7ZWJp9e9fu+WWaHxh2vFtu65x6UosyQEvDdR+vkCAwEAAaOBvTCBujAJ
BgNVHRMEAjAAMB0GA1UdDgQWBBRJ58DNebGu10yl4EXi5HIxCf3nojBRBgNVHSME
SjBIgBTRA9JYyl/6gAxRLC8KIATqQcpeBKEapBgwFjEUMBIGA1UEAwwLdGVhbTQ3
Ni1uZXSCFBOqm8WDeDE7fWgl7lYCgJRPBBg8MBMGA1UdJQQMMAoGCCsGAQUFBwMB
MAsGA1UdDwQEAwIFoDAZBgNVHREEEjAQgg50ZWFtNDc2LXNlcnZlcjANBgkqhkiG
9w0BAQsFAAOCAQEAR0dQAVZhDuFIEDSlFfA3O3GGN74oFYLTI+RXHQ+18Y+Uq6Lq
U7TkO24aeeanWJjiFrttu5Pv0R58t9o8GC9bmPmFe9fnv2jl6tr5g7lehd9lQPQr
D8PbCD9VdVIUwOoRWlNeSHkzk6yoBR8S7ugMlJNh+AgzPUKBxxqj03f1Jxtx53we
3Z8A/ZWaHuegBpNnD5KCB/wfSNwZFaQIS1UOa2BFlT5OkV/QFfgaKAGJ6IQwaeCr
6fFwwbuJEcxMdpjqM8gXkN93MFG9r3G2y9nqNvBNcekY4jLNaUGm39+eem7gjLGh
Gm7iLbRGa+/6bCdecPkBfmHA3sYs1YarFKdrCg==
-----END CERTIFICATE-----
