Certificate:
    Data:
        Version: 3 (0x2)
        Serial Number:
            01:95:5b:d8:5b:0f:fb:cf:2f:0d:44:96:0a:21:79:a0
        Signature Algorithm: sha256WithRSAEncryption
        Issuer: CN=team487-net
        Validity
            Not Before: Nov  3 20:48:08 2023 GMT
            Not After : Oct 18 20:48:08 2026 GMT
        Subject: CN=team487-client
        Subject Public Key Info:
            Public Key Algorithm: rsaEncryption
                Public-Key: (2048 bit)
                Modulus:
                    00:f4:40:bd:c1:dc:28:3f:b6:a7:ac:d7:1f:e7:27:
                    1b:9f:a9:46:7e:d2:1c:38:5c:52:00:42:a6:07:1f:
                    2e:71:4d:99:18:69:1f:96:80:d2:a0:a1:b2:16:fa:
                    9d:27:34:ec:3a:45:f2:2f:cc:1a:33:ee:b5:07:89:
                    ea:2d:77:08:d6:86:ca:08:d5:24:a9:74:ec:19:3d:
                    16:72:82:a7:00:ca:b6:7e:cf:96:48:44:d0:11:15:
                    88:74:02:43:b8:d8:8f:87:7a:e9:02:61:8d:45:e1:
                    e7:9a:30:fc:67:6e:99:3d:cd:be:27:81:b1:50:7a:
                    e5:aa:b1:51:cb:a3:55:a7:22:0d:cf:ad:90:6d:5f:
                    52:35:f5:e5:2d:4e:4b:38:76:d5:7a:37:9c:75:79:
                    9b:a2:aa:c6:5e:f5:f9:07:0d:14:70:50:76:a1:e3:
                    bb:97:80:ef:b9:d0:b3:83:32:9a:d0:f3:05:dd:fa:
                    ce:86:09:32:76:b3:b5:e5:a2:be:7a:0f:c4:ad:24:
                    79:56:b7:e4:17:d4:5e:4a:c3:5d:38:7e:a8:2c:e4:
                    f2:4c:db:9e:21:a9:d7:30:86:5c:b4:12:98:a6:24:
                    82:28:f3:ba:56:6a:82:04:af:0d:a3:82:fd:76:9c:
                    2a:80:3c:68:d0:44:ef:58:b6:aa:7e:83:55:72:f9:
                    f9:6d
                Exponent: 65537 (0x10001)
        X509v3 extensions:
            X509v3 Basic Constraints: 
                CA:FALSE
            X509v3 Subject Key Identifier: 
                99:28:94:21:BC:5D:CD:EA:B8:C1:17:FC:A0:00:4D:E0:77:BC:06:24
            X509v3 Authority Key Identifier: 
                keyid:84:15:38:1B:70:2C:E2:AB:55:90:3F:87:51:53:5D:1F:06:2D:93:51
                DirName:/CN=team487-net
                serial:25:79:AE:97:D8:ED:0A:3B:BD:61:72:30:71:67:FD:C3:B1:38:3D:07
            X509v3 Extended Key Usage: 
                TLS Web Client Authentication
            X509v3 Key Usage: 
                Digital Signature
    Signature Algorithm: sha256WithRSAEncryption
    Signature Value:
        89:54:45:41:75:49:08:a5:6a:20:85:9b:37:79:1f:73:0c:e0:
        a8:cd:66:2f:be:83:c7:59:e1:81:02:f0:c3:f2:1a:43:ff:b9:
        ea:a7:dd:8c:d9:8b:aa:3b:dc:cb:a8:d3:92:76:e0:5c:3a:e1:
        e1:1f:de:0f:37:08:ea:78:34:cc:fc:80:4f:3d:63:56:33:21:
        c8:6a:0b:d8:df:d8:e5:91:c9:da:a1:53:95:a9:21:06:d0:92:
        5e:52:56:70:d0:ce:21:46:c6:17:34:ed:7e:a8:a4:e7:4e:57:
        9f:70:56:b2:85:9c:87:51:28:0e:ec:f2:a0:fe:b5:8e:e4:ff:
        6f:35:92:8a:7d:01:2b:bb:27:81:08:f9:bd:68:5a:66:fa:a7:
        84:aa:40:10:d9:35:ba:88:0d:f3:3e:e1:c1:fd:83:46:38:1b:
        36:b4:38:c2:12:e1:46:7a:2b:28:10:6e:52:ce:75:05:ce:f2:
        43:d9:95:0c:19:be:35:df:49:9b:f9:96:f1:2e:00:e4:de:4c:
        db:62:1f:e6:09:99:09:ef:fc:2c:3b:69:00:bd:77:de:37:37:
        56:77:00:54:d2:ed:14:6c:dc:15:ec:00:92:e5:4d:8a:21:65:
        c6:3a:0c:6a:8f:11:dc:86:2f:e7:e0:7b:8e:48:8e:7a:30:4d:
        90:23:31:d8
-----BEGIN CERTIFICATE-----
MIIDXDCCAkSgAwIBAgIQAZVb2FsP+88vDUSWCiF5oDANBgkqhkiG9w0BAQsFADAW
MRQwEgYDVQQDDAt0ZWFtNDg3LW5ldDAeFw0yMzExMDMyMDQ4MDhaFw0yNjEwMTgy
MDQ4MDhaMBkxFzAVBgNVBAMMDnRlYW00ODctY2xpZW50MIIBIjANBgkqhkiG9w0B
AQEFAAOCAQ8AMIIBCgKCAQEA9EC9wdwoP7anrNcf5ycbn6lGftIcOFxSAEKmBx8u
cU2ZGGkfloDSoKGyFvqdJzTsOkXyL8waM+61B4nqLXcI1obKCNUkqXTsGT0WcoKn
AMq2fs+WSETQERWIdAJDuNiPh3rpAmGNReHnmjD8Z26ZPc2+J4GxUHrlqrFRy6NV
pyINz62QbV9SNfXlLU5LOHbVejecdXmboqrGXvX5Bw0UcFB2oeO7l4DvudCzgzKa
0PMF3frOhgkydrO15aK+eg/ErSR5VrfkF9ReSsNdOH6oLOTyTNueIanXMIZctBKY
piSCKPO6VmqCBK8No4L9dpwqgDxo0ETvWLaqfoNVcvn5bQIDAQABo4GiMIGfMAkG
A1UdEwQCMAAwHQYDVR0OBBYEFJkolCG8Xc3quMEX/KAATeB3vAYkMFEGA1UdIwRK
MEiAFIQVOBtwLOKrVZA/h1FTXR8GLZNRoRqkGDAWMRQwEgYDVQQDDAt0ZWFtNDg3
LW5ldIIUJXmul9jtCju9YXIwcWf9w7E4PQcwEwYDVR0lBAwwCgYIKwYBBQUHAwIw
CwYDVR0PBAQDAgeAMA0GCSqGSIb3DQEBCwUAA4IBAQCJVEVBdUkIpWoghZs3eR9z
DOCozWYvvoPHWeGBAvDD8hpD/7nqp92M2YuqO9zLqNOSduBcOuHhH94PNwjqeDTM
/IBPPWNWMyHIagvY39jlkcnaoVOVqSEG0JJeUlZw0M4hRsYXNO1+qKTnTlefcFay
hZyHUSgO7PKg/rWO5P9vNZKKfQEruyeBCPm9aFpm+qeEqkAQ2TW6iA3zPuHB/YNG
OBs2tDjCEuFGeisoEG5SznUFzvJD2ZUMGb4130mb+ZbxLgDk3kzbYh/mCZkJ7/ws
O2kAvXfeNzdWdwBU0u0UbNwV7ACS5U2KIWXGOgxqjxHchi/n4HuOSI56ME2QIzHY
-----END CERTIFICATE-----
