Certificate:
    Data:
        Version: 3 (0x2)
        Serial Number:
            50:5d:03:51:60:ad:c6:0d:24:ca:25:87:90:d7:50:23
        Signature Algorithm: sha256WithRSAEncryption
        Issuer: CN=team487-net
        Validity
            Not Before: Nov  4 11:38:37 2023 GMT
            Not After : Oct 19 11:38:37 2026 GMT
        Subject: CN=team487-server
        Subject Public Key Info:
            Public Key Algorithm: rsaEncryption
                Public-Key: (2048 bit)
                Modulus:
                    00:93:9d:3e:12:6e:d7:68:c5:3d:ea:67:be:a0:5f:
                    d3:22:ef:d7:1e:e3:48:c9:69:be:7f:fc:01:7e:e0:
                    be:3c:39:c6:fd:33:ed:bb:a2:1f:61:76:b2:d4:95:
                    c8:b8:02:ff:90:2c:b2:39:4d:05:86:3e:5e:e3:37:
                    0e:0f:67:66:73:e2:ef:be:16:c3:6e:e6:31:55:ba:
                    6f:55:a2:b2:d0:6b:78:c4:11:a0:58:97:37:c4:21:
                    f2:94:47:a9:4b:b4:7f:4c:84:4d:f9:cd:5f:db:05:
                    bb:38:8b:5b:6a:b2:c5:bb:11:29:26:d2:d7:7c:03:
                    21:4a:d9:93:37:a7:0f:72:7c:39:98:00:36:5c:20:
                    f2:66:6b:0a:ca:56:42:c5:e8:b2:a4:12:74:7b:0c:
                    3c:5a:6e:9b:19:1e:73:31:b4:c0:d5:73:67:90:e0:
                    9c:57:b7:bb:6e:10:77:88:0b:af:6f:64:54:74:d4:
                    f0:7e:1e:58:a5:8d:53:05:85:46:76:86:b0:cc:67:
                    5d:7b:3c:74:e7:14:69:67:da:f6:57:8c:73:25:47:
                    e9:6e:b2:5f:35:0d:c3:63:12:43:6e:1c:89:6b:5e:
                    cc:3c:98:54:06:60:49:c2:8f:e6:5b:a6:1e:5c:44:
                    62:72:ef:d3:f0:ba:e7:7b:5d:e8:8b:d5:53:4b:54:
                    89:5b
                Exponent: 65537 (0x10001)
        X509v3 extensions:
            X509v3 Basic Constraints: 
                CA:FALSE
            X509v3 Subject Key Identifier: 
                F1:97:C8:B2:48:79:47:FE:B6:41:8D:27:03:59:41:CB:D0:5A:94:F4
            X509v3 Authority Key Identifier: 
                keyid:9D:A9:57:23:3F:C8:0F:3A:60:2C:83:06:3D:28:5E:50:75:8E:84:62
                DirName:/CN=team487-net
                serial:49:3F:08:6E:43:60:3D:79:C1:C2:69:55:54:64:51:74:A6:13:DC:71
            X509v3 Extended Key Usage: 
                TLS Web Server Authentication
            X509v3 Key Usage: 
                Digital Signature, Key Encipherment
            X509v3 Subject Alternative Name: 
                DNS:team487-server
    Signature Algorithm: sha256WithRSAEncryption
    Signature Value:
        7e:33:1f:ef:68:66:b2:85:ea:ea:c5:80:91:94:f8:0c:23:39:
        fd:aa:54:de:10:4c:f9:5d:ed:6b:74:2b:40:52:91:9c:2c:84:
        59:d0:1e:5b:7c:49:60:a8:8a:7d:37:9d:74:6d:b8:9d:a6:1b:
        52:d7:9b:d6:07:6f:ac:f9:5d:e2:da:4e:6e:62:23:8d:7f:b8:
        96:05:81:5a:34:73:3b:1c:87:50:57:d4:47:06:f7:02:20:0f:
        89:e3:e7:1b:51:5c:ad:3d:38:1c:5a:63:03:70:0a:81:b7:04:
        da:b6:96:5c:9c:a8:b5:74:30:50:b4:c8:8d:e4:c2:7f:0f:c1:
        a8:b6:28:fd:f1:26:ae:07:2c:b1:b2:62:db:ef:8c:75:a0:61:
        3f:02:9f:44:71:cc:12:16:8a:6b:dd:af:e4:b3:cd:28:84:71:
        74:96:34:b0:af:f0:49:83:9f:06:89:93:03:32:74:1a:ae:02:
        d6:c5:93:7d:5b:99:3a:40:f3:9d:3c:04:96:80:54:12:e3:53:
        70:5f:67:23:77:6b:af:ef:8b:ab:e0:fd:78:98:fb:e0:f7:58:
        39:9c:b7:49:62:87:95:d7:0e:bf:f6:20:c1:0b:8d:1a:b5:42:
        18:30:ee:e3:7b:3e:3f:17:a7:f5:9b:1f:d3:b3:ed:25:c7:d7:
        2d:99:5c:8c
-----BEGIN CERTIFICATE-----
MIIDdzCCAl+gAwIBAgIQUF0DUWCtxg0kyiWHkNdQIzANBgkqhkiG9w0BAQsFADAW
MRQwEgYDVQQDDAt0ZWFtNDg3LW5ldDAeFw0yMzExMDQxMTM4MzdaFw0yNjEwMTkx
MTM4MzdaMBkxFzAVBgNVBAMMDnRlYW00ODctc2VydmVyMIIBIjANBgkqhkiG9w0B
AQEFAAOCAQ8AMIIBCgKCAQEAk50+Em7XaMU96me+oF/TIu/XHuNIyWm+f/wBfuC+
PDnG/TPtu6IfYXay1JXIuAL/kCyyOU0Fhj5e4zcOD2dmc+LvvhbDbuYxVbpvVaKy
0Gt4xBGgWJc3xCHylEepS7R/TIRN+c1f2wW7OItbarLFuxEpJtLXfAMhStmTN6cP
cnw5mAA2XCDyZmsKylZCxeiypBJ0eww8Wm6bGR5zMbTA1XNnkOCcV7e7bhB3iAuv
b2RUdNTwfh5YpY1TBYVGdoawzGddezx05xRpZ9r2V4xzJUfpbrJfNQ3DYxJDbhyJ
a17MPJhUBmBJwo/mW6YeXERicu/T8Lrne13oi9VTS1SJWwIDAQABo4G9MIG6MAkG
A1UdEwQCMAAwHQYDVR0OBBYEFPGXyLJIeUf+tkGNJwNZQcvQWpT0MFEGA1UdIwRK
MEiAFJ2pVyM/yA86YCyDBj0oXlB1joRioRqkGDAWMRQwEgYDVQQDDAt0ZWFtNDg3
LW5ldIIUST8IbkNgPXnBwmlVVGRRdKYT3HEwEwYDVR0lBAwwCgYIKwYBBQUHAwEw
CwYDVR0PBAQDAgWgMBkGA1UdEQQSMBCCDnRlYW00ODctc2VydmVyMA0GCSqGSIb3
DQEBCwUAA4IBAQB+Mx/vaGayherqxYCRlPgMIzn9qlTeEEz5Xe1rdCtAUpGcLIRZ
0B5bfElgqIp9N510bbidphtS15vWB2+s+V3i2k5uYiONf7iWBYFaNHM7HIdQV9RH
BvcCIA+J4+cbUVytPTgcWmMDcAqBtwTatpZcnKi1dDBQtMiN5MJ/D8Gotij98Sau
ByyxsmLb74x1oGE/Ap9EccwSFopr3a/ks80ohHF0ljSwr/BJg58GiZMDMnQargLW
xZN9W5k6QPOdPASWgFQS41NwX2cjd2uv74ur4P14mPvg91g5nLdJYoeV1w6/9iDB
C40atUIYMO7jez4/F6f1mx/Ts+0lx9ctmVyM
-----END CERTIFICATE-----
