Certificate:
    Data:
        Version: 3 (0x2)
        Serial Number:
            62:d4:4a:95:6a:6f:65:f9:bc:ad:0f:7e:f4:3d:70:bb
        Signature Algorithm: sha256WithRSAEncryption
        Issuer: CN=team487-net
        Validity
            Not Before: Nov  3 20:48:08 2023 GMT
            Not After : Oct 18 20:48:08 2026 GMT
        Subject: CN=team487-server
        Subject Public Key Info:
            Public Key Algorithm: rsaEncryption
                Public-Key: (2048 bit)
                Modulus:
                    00:98:63:d5:f4:b5:81:28:8f:bc:1b:16:b3:6c:2e:
                    85:bc:27:94:1e:f7:31:68:4c:a3:e0:20:29:7a:50:
                    e7:65:be:e3:2c:66:92:46:f3:11:35:4a:34:b9:31:
                    66:ed:d0:96:5f:48:17:8f:ec:5e:b5:c6:dc:be:50:
                    ef:a7:8e:68:9e:cc:22:4e:12:2a:ac:48:4b:8e:e6:
                    1f:83:d3:bd:47:67:a4:30:b0:ac:53:4e:97:15:cd:
                    13:09:f2:af:a5:3d:71:fa:18:71:c8:5b:2d:4d:24:
                    3f:4a:18:66:f3:ab:24:d2:f8:ad:77:e1:b1:6a:39:
                    0f:13:4f:45:d7:22:d9:e5:3c:c5:c9:0f:13:59:05:
                    0f:87:60:46:50:1f:10:91:4b:3d:3d:59:70:2a:d1:
                    ae:f1:9c:b6:e4:e7:14:69:4e:50:8d:c9:5d:e2:7d:
                    bf:6b:3f:e8:12:a4:cc:b5:f7:d2:ee:26:1d:74:5b:
                    63:e5:8e:10:46:4c:fd:71:46:40:82:a3:3e:69:49:
                    c8:ff:a3:63:dc:93:de:d8:68:e5:72:9f:a7:4a:d3:
                    3a:b6:d2:ad:a5:6f:a5:da:2d:3c:65:c5:4c:5e:fd:
                    43:28:77:e2:49:54:ed:c8:58:29:40:1e:44:2d:ac:
                    de:fb:fd:09:6e:6a:e0:bf:ba:6c:39:2c:41:a9:48:
                    1c:8f
                Exponent: 65537 (0x10001)
        X509v3 extensions:
            X509v3 Basic Constraints: 
                CA:FALSE
            X509v3 Subject Key Identifier: 
                DD:68:EE:FC:AB:9C:C4:66:81:F9:46:80:43:3A:5E:7E:8E:90:02:F1
            X509v3 Authority Key Identifier: 
                keyid:84:15:38:1B:70:2C:E2:AB:55:90:3F:87:51:53:5D:1F:06:2D:93:51
                DirName:/CN=team487-net
                serial:25:79:AE:97:D8:ED:0A:3B:BD:61:72:30:71:67:FD:C3:B1:38:3D:07
            X509v3 Extended Key Usage: 
                TLS Web Server Authentication
            X509v3 Key Usage: 
                Digital Signature, Key Encipherment
            X509v3 Subject Alternative Name: 
                DNS:team487-server
    Signature Algorithm: sha256WithRSAEncryption
    Signature Value:
        6c:98:d3:dc:92:a7:3a:8a:80:94:09:bd:40:cf:94:34:88:50:
        d5:51:bc:0b:88:b6:51:c9:75:ad:d8:5a:f6:16:83:cb:4f:81:
        8e:da:22:b4:a6:3c:9d:81:e6:2a:69:81:72:ca:5d:1d:75:03:
        a4:17:f6:a6:75:00:e7:d8:12:f7:80:ab:5e:62:1d:03:02:db:
        9a:a3:3d:97:cf:13:9f:63:4d:7e:98:2e:8e:e4:1f:f7:82:a3:
        08:79:59:2b:0f:70:3a:5a:8f:c0:f0:0b:06:1b:7b:76:bb:f0:
        b7:85:ae:6f:ea:32:c1:80:c9:72:e4:38:f8:5e:c7:cf:d3:aa:
        55:85:7d:8d:18:97:a4:4a:fe:36:25:9a:a2:ae:8b:2e:72:28:
        dd:3d:10:f5:ce:23:3c:f7:79:4a:c7:a7:5d:2e:df:ef:1d:f3:
        eb:3d:04:d6:9c:0a:8a:7a:b3:a6:e5:07:9a:a4:9f:6b:fc:a8:
        f9:98:09:98:f0:10:d8:e0:e5:53:26:8c:0d:2e:1b:06:1c:66:
        3b:d1:14:2b:e4:35:d0:e3:b0:38:46:5b:59:f8:17:43:16:51:
        10:5a:9d:0c:d7:3e:33:c4:64:f8:13:6c:8a:67:14:04:c5:fb:
        99:3d:62:4a:42:b1:12:6b:a0:e3:7f:0e:82:a6:eb:2f:2c:ea:
        56:57:6b:7f
-----BEGIN CERTIFICATE-----
MIIDdzCCAl+gAwIBAgIQYtRKlWpvZfm8rQ9+9D1wuzANBgkqhkiG9w0BAQsFADAW
MRQwEgYDVQQDDAt0ZWFtNDg3LW5ldDAeFw0yMzExMDMyMDQ4MDhaFw0yNjEwMTgy
MDQ4MDhaMBkxFzAVBgNVBAMMDnRlYW00ODctc2VydmVyMIIBIjANBgkqhkiG9w0B
AQEFAAOCAQ8AMIIBCgKCAQEAmGPV9LWBKI+8GxazbC6FvCeUHvcxaEyj4CApelDn
Zb7jLGaSRvMRNUo0uTFm7dCWX0gXj+xetcbcvlDvp45onswiThIqrEhLjuYfg9O9
R2ekMLCsU06XFc0TCfKvpT1x+hhxyFstTSQ/Shhm86sk0vitd+GxajkPE09F1yLZ
5TzFyQ8TWQUPh2BGUB8QkUs9PVlwKtGu8Zy25OcUaU5Qjcld4n2/az/oEqTMtffS
7iYddFtj5Y4QRkz9cUZAgqM+aUnI/6Nj3JPe2Gjlcp+nStM6ttKtpW+l2i08ZcVM
Xv1DKHfiSVTtyFgpQB5ELaze+/0Jbmrgv7psOSxBqUgcjwIDAQABo4G9MIG6MAkG
A1UdEwQCMAAwHQYDVR0OBBYEFN1o7vyrnMRmgflGgEM6Xn6OkALxMFEGA1UdIwRK
MEiAFIQVOBtwLOKrVZA/h1FTXR8GLZNRoRqkGDAWMRQwEgYDVQQDDAt0ZWFtNDg3
LW5ldIIUJXmul9jtCju9YXIwcWf9w7E4PQcwEwYDVR0lBAwwCgYIKwYBBQUHAwEw
CwYDVR0PBAQDAgWgMBkGA1UdEQQSMBCCDnRlYW00ODctc2VydmVyMA0GCSqGSIb3
DQEBCwUAA4IBAQBsmNPckqc6ioCUCb1Az5Q0iFDVUbwLiLZRyXWt2Fr2FoPLT4GO
2iK0pjydgeYqaYFyyl0ddQOkF/amdQDn2BL3gKteYh0DAtuaoz2XzxOfY01+mC6O
5B/3gqMIeVkrD3A6Wo/A8AsGG3t2u/C3ha5v6jLBgMly5Dj4XsfP06pVhX2NGJek
Sv42JZqirosucijdPRD1ziM893lKx6ddLt/vHfPrPQTWnAqKerOm5QeapJ9r/Kj5
mAmY8BDY4OVTJowNLhsGHGY70RQr5DXQ47A4RltZ+BdDFlEQWp0M1z4zxGT4E2yK
ZxQExfuZPWJKQrESa6Djfw6CpusvLOpWV2t/
-----END CERTIFICATE-----
