Certificate:
    Data:
        Version: 3 (0x2)
        Serial Number:
            93:2f:4f:fe:c2:b3:2d:85:5c:d6:5e:8a:17:1a:ec:71
        Signature Algorithm: sha256WithRSAEncryption
        Issuer: CN=team487-net
        Validity
            Not Before: Nov  4 10:49:13 2023 GMT
            Not After : Oct 19 10:49:13 2026 GMT
        Subject: CN=team487-client
        Subject Public Key Info:
            Public Key Algorithm: rsaEncryption
                Public-Key: (2048 bit)
                Modulus:
                    00:bf:eb:25:da:45:f9:36:91:3c:d4:ad:a1:12:28:
                    e2:f8:90:11:aa:4a:66:46:20:79:9a:8c:40:b1:3c:
                    cd:76:d5:4e:5f:ff:9f:7d:9c:28:3b:a3:5c:24:01:
                    3a:27:1a:20:3e:c1:f4:76:f3:5f:42:cd:4b:af:f5:
                    e8:86:7f:e6:65:f1:3c:a8:2a:0b:ee:b0:aa:a1:6c:
                    71:e5:93:a4:64:0f:36:91:44:ca:dd:43:4a:a1:75:
                    92:0f:79:b0:ad:f5:de:a8:2d:26:30:e7:75:f2:fb:
                    a6:6c:60:e7:04:84:6a:b9:89:79:be:66:f6:12:35:
                    52:53:e7:56:93:bf:38:37:01:e5:65:49:a8:d0:fe:
                    ba:82:19:8b:b2:97:bd:41:cd:bb:49:0a:a2:5f:de:
                    7e:1b:f8:0e:db:4e:94:73:31:ed:85:55:71:5e:03:
                    42:7c:a0:b8:ec:69:97:48:e3:50:03:d9:9b:2d:4b:
                    c9:04:a2:b6:6c:92:38:8b:63:e9:9a:f2:62:87:b8:
                    5c:1c:34:4d:cf:55:ca:48:7f:10:71:36:9e:f7:9a:
                    f3:f6:3a:8c:f6:8e:f6:72:51:74:10:ab:fd:ba:48:
                    e3:25:f0:6b:2f:26:f9:6a:93:d9:db:35:88:f8:88:
                    b1:70:73:56:d5:e0:f4:32:0a:ca:0b:00:03:27:b5:
                    57:b7
                Exponent: 65537 (0x10001)
        X509v3 extensions:
            X509v3 Basic Constraints: 
                CA:FALSE
            X509v3 Subject Key Identifier: 
                57:4E:52:F9:B7:AA:B3:39:3C:16:B7:E0:19:9B:6E:25:E8:02:B6:24
            X509v3 Authority Key Identifier: 
                keyid:A0:57:E6:51:45:E5:7E:3F:5F:60:13:26:6D:0E:4F:2B:8B:39:E7:A4
                DirName:/CN=team487-net
                serial:10:FA:EF:C4:CA:22:14:FF:B1:10:35:67:C6:D8:DE:BA:CB:6D:EB:8F
            X509v3 Extended Key Usage: 
                TLS Web Client Authentication
            X509v3 Key Usage: 
                Digital Signature
    Signature Algorithm: sha256WithRSAEncryption
    Signature Value:
        4f:2e:1d:5e:14:c1:b0:3c:bf:26:e9:7d:71:38:d1:b2:50:e5:
        f8:be:82:05:eb:2a:8a:9b:75:fb:16:0d:2b:17:0d:14:9c:46:
        99:9f:a7:18:a4:c1:1a:3c:af:64:42:9b:97:b8:2a:00:b9:d3:
        28:85:c4:4a:81:4d:2c:d6:e9:6f:7b:40:34:fa:d8:dd:94:82:
        88:b4:bc:5e:3f:22:b1:6f:75:71:0e:ed:e7:ed:69:c3:41:64:
        86:92:01:f3:4a:99:27:8e:13:5b:2b:de:7a:db:00:be:cb:c1:
        88:4f:cb:4d:42:46:86:a9:6f:76:fa:dc:25:db:ac:b8:9f:50:
        59:e6:dd:49:dd:b7:6d:87:c6:dd:8d:b9:ea:fd:c1:af:c8:b6:
        0a:54:8f:69:76:cf:25:06:af:0a:9d:95:f2:86:17:c8:06:dc:
        56:e0:fa:6e:c6:df:8c:82:09:3d:df:d0:02:f0:aa:8b:ee:8f:
        eb:47:35:ea:6c:62:c4:c5:af:ef:77:e8:aa:e4:c9:a3:65:bc:
        3d:98:55:b2:47:8c:dd:ca:e7:32:dd:d9:17:15:94:8a:a3:84:
        ca:b7:32:59:b1:0a:c0:ce:9e:08:96:7e:f2:5d:8f:07:6e:60:
        a7:b3:17:03:dc:74:11:91:3b:43:24:f0:9e:f4:fb:f3:d1:78:
        00:5f:62:6d
-----BEGIN CERTIFICATE-----
MIIDXTCCAkWgAwIBAgIRAJMvT/7Csy2FXNZeihca7HEwDQYJKoZIhvcNAQELBQAw
FjEUMBIGA1UEAwwLdGVhbTQ4Ny1uZXQwHhcNMjMxMTA0MTA0OTEzWhcNMjYxMDE5
MTA0OTEzWjAZMRcwFQYDVQQDDA50ZWFtNDg3LWNsaWVudDCCASIwDQYJKoZIhvcN
AQEBBQADggEPADCCAQoCggEBAL/rJdpF+TaRPNStoRIo4viQEapKZkYgeZqMQLE8
zXbVTl//n32cKDujXCQBOicaID7B9HbzX0LNS6/16IZ/5mXxPKgqC+6wqqFsceWT
pGQPNpFEyt1DSqF1kg95sK313qgtJjDndfL7pmxg5wSEarmJeb5m9hI1UlPnVpO/
ODcB5WVJqND+uoIZi7KXvUHNu0kKol/efhv4DttOlHMx7YVVcV4DQnyguOxpl0jj
UAPZmy1LyQSitmySOItj6ZryYoe4XBw0Tc9Vykh/EHE2nvea8/Y6jPaO9nJRdBCr
/bpI4yXway8m+WqT2ds1iPiIsXBzVtXg9DIKygsAAye1V7cCAwEAAaOBojCBnzAJ
BgNVHRMEAjAAMB0GA1UdDgQWBBRXTlL5t6qzOTwWt+AZm24l6AK2JDBRBgNVHSME
SjBIgBSgV+ZRReV+P19gEyZtDk8riznnpKEapBgwFjEUMBIGA1UEAwwLdGVhbTQ4
Ny1uZXSCFBD678TKIhT/sRA1Z8bY3rrLbeuPMBMGA1UdJQQMMAoGCCsGAQUFBwMC
MAsGA1UdDwQEAwIHgDANBgkqhkiG9w0BAQsFAAOCAQEATy4dXhTBsDy/Jul9cTjR
slDl+L6CBesqipt1+xYNKxcNFJxGmZ+nGKTBGjyvZEKbl7gqALnTKIXESoFNLNbp
b3tANPrY3ZSCiLS8Xj8isW91cQ7t5+1pw0FkhpIB80qZJ44TWyveetsAvsvBiE/L
TUJGhqlvdvrcJdusuJ9QWebdSd23bYfG3Y256v3Br8i2ClSPaXbPJQavCp2V8oYX
yAbcVuD6bsbfjIIJPd/QAvCqi+6P60c16mxixMWv73foquTJo2W8PZhVskeM3crn
Mt3ZFxWUiqOEyrcyWbEKwM6eCJZ+8l2PB25gp7MXA9x0EZE7QyTwnvT789F4AF9i
bQ==
-----END CERTIFICATE-----
