Certificate:
    Data:
        Version: 3 (0x2)
        Serial Number:
            d2:01:3a:3c:e3:19:4e:2c:05:46:fb:b4:5c:fa:fa:7b
        Signature Algorithm: sha256WithRSAEncryption
        Issuer: CN=team487-net
        Validity
            Not Before: Nov  4 10:49:13 2023 GMT
            Not After : Oct 19 10:49:13 2026 GMT
        Subject: CN=team487-server
        Subject Public Key Info:
            Public Key Algorithm: rsaEncryption
                Public-Key: (2048 bit)
                Modulus:
                    00:c3:94:1d:75:70:2b:cb:08:20:fe:c0:87:24:f6:
                    c7:88:33:15:91:3d:56:d8:61:9f:80:f0:b8:0f:84:
                    29:27:c7:1a:d0:22:f7:6d:ea:bd:ec:73:40:4e:94:
                    f3:bf:20:d9:17:2e:6b:b2:de:d3:29:95:46:11:20:
                    8c:54:08:3c:ff:83:92:ee:a9:e5:2d:8e:74:f2:3c:
                    f3:66:6f:32:40:4b:86:f7:7d:05:d9:cb:24:b3:ec:
                    03:d2:6d:04:d0:76:0e:6d:f3:d9:4b:fc:fb:99:e5:
                    45:bb:09:54:c5:7e:a1:3d:16:67:ca:85:d9:0a:61:
                    09:41:32:63:4e:28:1b:a5:d1:1e:56:ee:c3:6c:06:
                    00:d4:e1:9a:63:71:c8:f4:c4:3e:6f:0f:9d:dc:17:
                    66:fc:98:7f:f6:ec:bd:0f:5b:ca:c1:2c:b7:cd:d6:
                    35:69:c4:fa:97:f2:02:56:66:4e:a9:33:93:e3:c4:
                    c3:61:5b:15:61:a9:6f:7f:18:f7:ac:47:8e:3e:e9:
                    64:c6:99:51:8d:85:e7:bc:57:5a:5d:87:45:11:06:
                    b4:52:7c:06:4c:ef:7c:91:f1:19:f5:e9:a8:a0:54:
                    65:65:ff:e8:49:ee:67:16:96:57:33:0e:c4:80:df:
                    14:2f:c7:30:a8:ee:e9:45:08:9e:9c:b4:81:e2:d1:
                    cc:d3
                Exponent: 65537 (0x10001)
        X509v3 extensions:
            X509v3 Basic Constraints: 
                CA:FALSE
            X509v3 Subject Key Identifier: 
                11:4A:8F:1D:CF:CB:6B:DF:54:62:0E:99:03:B5:34:46:58:15:2A:71
            X509v3 Authority Key Identifier: 
                keyid:A0:57:E6:51:45:E5:7E:3F:5F:60:13:26:6D:0E:4F:2B:8B:39:E7:A4
                DirName:/CN=team487-net
                serial:10:FA:EF:C4:CA:22:14:FF:B1:10:35:67:C6:D8:DE:BA:CB:6D:EB:8F
            X509v3 Extended Key Usage: 
                TLS Web Server Authentication
            X509v3 Key Usage: 
                Digital Signature, Key Encipherment
            X509v3 Subject Alternative Name: 
                DNS:team487-server
    Signature Algorithm: sha256WithRSAEncryption
    Signature Value:
        31:57:60:bd:9a:51:6f:de:c1:a5:a9:a2:71:3a:e2:06:89:52:
        96:e5:3a:ba:8c:5f:17:42:4c:b1:a8:a8:e9:7f:23:26:ce:39:
        d1:13:f0:45:06:c3:27:10:d2:5d:2a:95:de:33:80:6f:e6:8d:
        78:a2:a0:0e:75:b3:84:fb:fc:f0:92:b4:35:01:fd:97:6c:4a:
        e5:6a:fd:9b:9f:27:42:d0:ae:f4:5f:eb:88:52:a6:ca:95:4b:
        af:b8:8f:8b:08:91:a3:1d:fa:1a:9e:f9:4f:d3:f0:1d:a2:53:
        71:34:48:7d:ae:8c:fe:ee:71:ac:e5:67:d4:10:e1:23:18:11:
        f1:17:db:a3:e6:04:47:15:8c:71:34:00:0d:df:dc:6d:26:2e:
        b7:41:d0:3e:3b:59:aa:60:c0:c9:99:47:31:77:31:c9:62:01:
        90:cf:a4:21:98:c3:78:4b:05:1a:82:96:cd:86:e6:e1:d1:b2:
        ec:aa:61:de:9d:25:8b:bb:3e:09:cc:d3:58:8e:c1:07:57:08:
        75:cf:19:f8:cd:0b:ee:8f:08:45:80:aa:bc:59:9f:95:12:60:
        67:f3:f1:c6:28:71:ff:41:04:9b:51:a1:31:d8:52:ed:1b:bf:
        61:52:8e:8b:62:9c:a5:a0:9b:8a:d9:fd:20:74:47:fc:16:b7:
        0b:96:25:7b
-----BEGIN CERTIFICATE-----
MIIDeDCCAmCgAwIBAgIRANIBOjzjGU4sBUb7tFz6+nswDQYJKoZIhvcNAQELBQAw
FjEUMBIGA1UEAwwLdGVhbTQ4Ny1uZXQwHhcNMjMxMTA0MTA0OTEzWhcNMjYxMDE5
MTA0OTEzWjAZMRcwFQYDVQQDDA50ZWFtNDg3LXNlcnZlcjCCASIwDQYJKoZIhvcN
AQEBBQADggEPADCCAQoCggEBAMOUHXVwK8sIIP7AhyT2x4gzFZE9Vthhn4DwuA+E
KSfHGtAi923qvexzQE6U878g2Rcua7Le0ymVRhEgjFQIPP+Dku6p5S2OdPI882Zv
MkBLhvd9BdnLJLPsA9JtBNB2Dm3z2Uv8+5nlRbsJVMV+oT0WZ8qF2QphCUEyY04o
G6XRHlbuw2wGANThmmNxyPTEPm8PndwXZvyYf/bsvQ9bysEst83WNWnE+pfyAlZm
Tqkzk+PEw2FbFWGpb38Y96xHjj7pZMaZUY2F57xXWl2HRREGtFJ8BkzvfJHxGfXp
qKBUZWX/6EnuZxaWVzMOxIDfFC/HMKju6UUInpy0geLRzNMCAwEAAaOBvTCBujAJ
BgNVHRMEAjAAMB0GA1UdDgQWBBQRSo8dz8tr31RiDpkDtTRGWBUqcTBRBgNVHSME
SjBIgBSgV+ZRReV+P19gEyZtDk8riznnpKEapBgwFjEUMBIGA1UEAwwLdGVhbTQ4
Ny1uZXSCFBD678TKIhT/sRA1Z8bY3rrLbeuPMBMGA1UdJQQMMAoGCCsGAQUFBwMB
MAsGA1UdDwQEAwIFoDAZBgNVHREEEjAQgg50ZWFtNDg3LXNlcnZlcjANBgkqhkiG
9w0BAQsFAAOCAQEAMVdgvZpRb97BpamicTriBolSluU6uoxfF0JMsaio6X8jJs45
0RPwRQbDJxDSXSqV3jOAb+aNeKKgDnWzhPv88JK0NQH9l2xK5Wr9m58nQtCu9F/r
iFKmypVLr7iPiwiRox36Gp75T9PwHaJTcTRIfa6M/u5xrOVn1BDhIxgR8Rfbo+YE
RxWMcTQADd/cbSYut0HQPjtZqmDAyZlHMXcxyWIBkM+kIZjDeEsFGoKWzYbm4dGy
7Kph3p0li7s+CczTWI7BB1cIdc8Z+M0L7o8IRYCqvFmflRJgZ/Pxxihx/0EEm1Gh
MdhS7Ru/YVKOi2KcpaCbitn9IHRH/Ba3C5Ylew==
-----END CERTIFICATE-----
