Certificate:
    Data:
        Version: 3 (0x2)
        Serial Number:
            01:e1:07:01:40:15:1f:f7:ba:e6:1f:dd:a9:05:45:0e
        Signature Algorithm: sha256WithRSAEncryption
        Issuer: CN=team369-net
        Validity
            Not Before: Nov  4 11:35:42 2023 GMT
            Not After : Oct 19 11:35:42 2026 GMT
        Subject: CN=team369-client
        Subject Public Key Info:
            Public Key Algorithm: rsaEncryption
                Public-Key: (2048 bit)
                Modulus:
                    00:bc:d1:05:de:6e:26:59:80:bb:92:6d:86:5e:12:
                    eb:14:6c:b8:e2:19:3f:cd:16:29:c6:c6:e1:f3:7e:
                    44:25:85:61:19:66:fe:8d:8f:ed:bc:dc:17:eb:e3:
                    1c:ed:41:f7:dc:94:f3:9b:8c:49:d9:12:91:db:46:
                    5e:95:52:b1:43:17:79:91:71:9e:87:37:93:ba:c2:
                    41:5f:e9:bb:12:a2:95:8c:c6:b0:15:20:81:c4:cd:
                    ef:18:94:5f:8b:4e:8b:ad:28:f4:66:3b:19:00:74:
                    38:b3:ae:66:dc:cc:43:e9:d8:cb:ac:7e:66:1e:87:
                    49:96:fc:30:a7:e9:dc:e7:a8:a7:96:b3:33:e9:7c:
                    5d:f0:79:d0:66:b0:2b:32:cc:07:9c:ef:1b:a5:d3:
                    31:2f:be:8b:65:02:ad:c4:7a:b9:84:c0:e3:e2:87:
                    96:c8:44:5a:fa:1e:20:79:ca:06:4e:99:9b:05:21:
                    a6:40:39:b0:4c:da:62:6b:2d:0c:9d:fc:6a:fb:f7:
                    a1:3f:e8:e7:48:04:21:86:a9:cf:ef:80:c9:22:57:
                    17:ea:db:4e:df:0e:20:5d:93:81:3c:06:77:45:98:
                    34:b2:22:26:eb:41:1c:c9:d3:7e:18:21:15:98:c6:
                    dc:fb:7c:cc:ed:5f:92:d4:b8:e6:96:3f:80:89:2f:
                    c3:41
                Exponent: 65537 (0x10001)
        X509v3 extensions:
            X509v3 Basic Constraints: 
                CA:FALSE
            X509v3 Subject Key Identifier: 
                F5:7E:C2:FA:A2:68:41:87:F1:B8:5E:A8:EB:FA:D0:38:8E:C9:9C:9C
            X509v3 Authority Key Identifier: 
                keyid:D2:AC:79:CC:1F:75:87:10:A0:C1:78:C8:70:36:0A:54:13:A0:F9:AE
                DirName:/CN=team369-net
                serial:67:C1:82:7B:4F:48:7D:E2:F0:73:64:12:09:34:95:E4:0F:40:BB:89
            X509v3 Extended Key Usage: 
                TLS Web Client Authentication
            X509v3 Key Usage: 
                Digital Signature
    Signature Algorithm: sha256WithRSAEncryption
    Signature Value:
        7c:d8:fd:e9:da:e3:ab:25:39:1a:7b:8c:3e:f3:19:d4:fd:d6:
        86:79:9b:aa:37:a0:48:ce:1c:4c:fd:15:56:aa:25:1e:ba:7f:
        03:ea:d7:88:68:10:36:99:ff:00:60:d7:02:99:a5:24:48:a6:
        58:66:33:0a:08:03:28:1f:67:61:91:f4:94:28:73:a4:53:a0:
        17:36:ea:33:4b:17:a5:f3:b8:89:7e:35:2d:3d:58:7a:08:b9:
        d8:74:79:30:f4:20:a0:83:4f:3e:80:64:89:3b:78:09:b8:09:
        92:61:a0:02:1d:73:17:85:be:30:a1:06:50:c2:5c:c3:67:f6:
        7f:3d:e3:b9:ba:3d:43:b5:56:9a:24:f7:a1:c6:08:29:95:6a:
        5d:62:93:c6:5b:bf:95:5d:1b:be:37:45:3c:7e:13:f2:5f:cc:
        c1:83:49:da:a2:81:8d:75:e7:d8:e4:c3:2f:02:cb:ea:e5:71:
        88:a0:c8:87:a0:4b:5e:ec:f1:87:9b:eb:57:77:2e:e0:10:8f:
        ef:c9:0d:72:2d:1c:14:39:61:84:4e:c9:45:92:e1:91:b3:6a:
        1f:2c:28:a0:32:46:66:93:dc:d6:9c:44:f2:1a:e9:7d:45:90:
        ff:0a:a6:93:74:6b:eb:88:69:50:dc:ea:d7:8f:05:f3:22:f9:
        cb:9c:63:60
-----BEGIN CERTIFICATE-----
MIIDXDCCAkSgAwIBAgIQAeEHAUAVH/e65h/dqQVFDjANBgkqhkiG9w0BAQsFADAW
MRQwEgYDVQQDDAt0ZWFtMzY5LW5ldDAeFw0yMzExMDQxMTM1NDJaFw0yNjEwMTkx
MTM1NDJaMBkxFzAVBgNVBAMMDnRlYW0zNjktY2xpZW50MIIBIjANBgkqhkiG9w0B
AQEFAAOCAQ8AMIIBCgKCAQEAvNEF3m4mWYC7km2GXhLrFGy44hk/zRYpxsbh835E
JYVhGWb+jY/tvNwX6+Mc7UH33JTzm4xJ2RKR20ZelVKxQxd5kXGehzeTusJBX+m7
EqKVjMawFSCBxM3vGJRfi06LrSj0ZjsZAHQ4s65m3MxD6djLrH5mHodJlvwwp+nc
56inlrMz6Xxd8HnQZrArMswHnO8bpdMxL76LZQKtxHq5hMDj4oeWyERa+h4gecoG
TpmbBSGmQDmwTNpiay0Mnfxq+/ehP+jnSAQhhqnP74DJIlcX6ttO3w4gXZOBPAZ3
RZg0siIm60EcydN+GCEVmMbc+3zM7V+S1Ljmlj+AiS/DQQIDAQABo4GiMIGfMAkG
A1UdEwQCMAAwHQYDVR0OBBYEFPV+wvqiaEGH8bheqOv60DiOyZycMFEGA1UdIwRK
MEiAFNKsecwfdYcQoMF4yHA2ClQToPmuoRqkGDAWMRQwEgYDVQQDDAt0ZWFtMzY5
LW5ldIIUZ8GCe09IfeLwc2QSCTSV5A9Au4kwEwYDVR0lBAwwCgYIKwYBBQUHAwIw
CwYDVR0PBAQDAgeAMA0GCSqGSIb3DQEBCwUAA4IBAQB82P3p2uOrJTkae4w+8xnU
/daGeZuqN6BIzhxM/RVWqiUeun8D6teIaBA2mf8AYNcCmaUkSKZYZjMKCAMoH2dh
kfSUKHOkU6AXNuozSxel87iJfjUtPVh6CLnYdHkw9CCgg08+gGSJO3gJuAmSYaAC
HXMXhb4woQZQwlzDZ/Z/PeO5uj1DtVaaJPehxggplWpdYpPGW7+VXRu+N0U8fhPy
X8zBg0naooGNdefY5MMvAsvq5XGIoMiHoEte7PGHm+tXdy7gEI/vyQ1yLRwUOWGE
TslFkuGRs2ofLCigMkZmk9zWnETyGul9RZD/CqaTdGvriGlQ3OrXjwXzIvnLnGNg
-----END CERTIFICATE-----
