Certificate:
    Data:
        Version: 3 (0x2)
        Serial Number:
            60:f5:7a:e6:e6:9b:95:27:dc:7d:c2:41:f8:67:62:48
        Signature Algorithm: sha256WithRSAEncryption
        Issuer: CN=team369-net
        Validity
            Not Before: Nov  3 20:45:57 2023 GMT
            Not After : Oct 18 20:45:57 2026 GMT
        Subject: CN=team369-server
        Subject Public Key Info:
            Public Key Algorithm: rsaEncryption
                Public-Key: (2048 bit)
                Modulus:
                    00:c4:09:a9:9c:65:17:d4:c6:c0:1e:b0:24:ea:2d:
                    bd:81:52:bf:7a:a5:e7:3e:a7:4c:1c:85:48:8f:21:
                    1a:a1:46:7a:75:3c:0e:5c:ca:cf:7c:a2:c3:6b:53:
                    b3:36:8b:83:42:31:d6:07:63:37:25:42:92:61:2d:
                    d0:9a:a0:a3:83:23:ec:05:2f:f2:4d:e5:ed:3f:eb:
                    d4:c3:32:56:7a:12:39:5c:e7:78:f5:37:46:3a:a6:
                    c3:83:db:4d:10:32:db:76:fd:f6:66:a9:eb:c7:ca:
                    e6:49:c4:cc:e4:a1:b3:d8:b2:28:5d:06:ab:56:46:
                    9e:bf:14:ce:36:9a:0b:5f:31:26:01:86:f4:bd:0a:
                    96:29:5e:07:ca:0a:43:8a:89:e1:9a:21:1b:fd:54:
                    2f:68:bf:d3:3e:ff:53:6a:c4:71:3c:75:14:7a:d0:
                    af:1f:7a:b3:71:d6:ce:26:e9:72:ce:8b:bc:f7:32:
                    2d:a6:e3:5c:e3:16:30:6e:3b:1c:38:f8:03:ac:06:
                    11:5f:92:22:a0:97:b2:e4:b8:db:fe:5c:dd:2b:60:
                    b4:d6:8f:66:f8:b7:8e:8e:86:2a:58:86:73:5c:de:
                    2f:ac:d9:ac:60:57:12:44:7e:a6:c9:fe:fb:cf:33:
                    e6:04:e0:a8:08:16:5f:78:ac:8b:f0:8b:84:41:3e:
                    6d:bd
                Exponent: 65537 (0x10001)
        X509v3 extensions:
            X509v3 Basic Constraints: 
                CA:FALSE
            X509v3 Subject Key Identifier: 
                1E:9E:2E:D4:08:AB:C8:03:3C:AE:C0:BB:CE:DD:27:5E:F3:69:C4:D6
            X509v3 Authority Key Identifier: 
                keyid:C2:14:4E:C8:53:23:C2:47:31:BE:12:1C:FD:25:FA:83:B4:54:5A:B8
                DirName:/CN=team369-net
                serial:23:AC:BF:30:A5:AC:E9:11:F0:86:C2:90:BA:4F:8A:FD:C2:A7:89:DF
            X509v3 Extended Key Usage: 
                TLS Web Server Authentication
            X509v3 Key Usage: 
                Digital Signature, Key Encipherment
            X509v3 Subject Alternative Name: 
                DNS:team369-server
    Signature Algorithm: sha256WithRSAEncryption
    Signature Value:
        84:de:c2:86:bf:a6:35:40:66:b2:0d:ba:99:c6:72:71:6f:62:
        ec:7d:1e:a5:53:fb:47:76:51:5b:0a:cd:84:f6:b4:0c:41:a6:
        a8:ea:81:6b:17:80:48:1f:e1:55:bb:f6:a4:92:be:20:0d:8a:
        55:90:30:1d:19:53:39:84:45:4a:83:f3:dd:a6:78:11:27:af:
        9d:64:b6:51:5d:c5:7e:d9:82:77:b2:21:f3:fe:52:ef:ed:07:
        75:ad:e0:34:f5:6f:ad:9b:57:3a:80:0d:2b:85:c5:ff:01:61:
        fe:e2:7f:e5:2b:67:24:c0:f9:d4:81:c0:03:c8:19:8f:9f:1c:
        97:a3:09:0c:6e:55:df:b0:c6:bd:83:71:e0:38:2f:a7:ae:7c:
        fb:b6:13:70:f7:38:f5:36:93:2b:28:b9:b4:96:34:fa:62:ee:
        f0:da:27:82:f0:68:c7:fa:3a:5a:31:b1:8e:c5:86:33:57:9f:
        bb:c1:80:b1:08:f7:e8:82:9e:61:bf:28:fe:2c:c8:46:9d:6c:
        fe:51:e9:37:98:ed:bd:3a:b1:a1:a9:3c:56:d6:4a:09:3d:ed:
        1d:e0:1e:ca:8a:aa:4f:b9:90:bb:70:e7:8b:56:ee:89:4c:82:
        9e:38:54:17:b5:34:21:e1:30:62:fd:3b:7d:6f:70:a2:a9:b3:
        21:1c:f6:8f
-----BEGIN CERTIFICATE-----
MIIDdzCCAl+gAwIBAgIQYPV65uablSfcfcJB+GdiSDANBgkqhkiG9w0BAQsFADAW
MRQwEgYDVQQDDAt0ZWFtMzY5LW5ldDAeFw0yMzExMDMyMDQ1NTdaFw0yNjEwMTgy
MDQ1NTdaMBkxFzAVBgNVBAMMDnRlYW0zNjktc2VydmVyMIIBIjANBgkqhkiG9w0B
AQEFAAOCAQ8AMIIBCgKCAQEAxAmpnGUX1MbAHrAk6i29gVK/eqXnPqdMHIVIjyEa
oUZ6dTwOXMrPfKLDa1OzNouDQjHWB2M3JUKSYS3QmqCjgyPsBS/yTeXtP+vUwzJW
ehI5XOd49TdGOqbDg9tNEDLbdv32Zqnrx8rmScTM5KGz2LIoXQarVkaevxTONpoL
XzEmAYb0vQqWKV4HygpDionhmiEb/VQvaL/TPv9TasRxPHUUetCvH3qzcdbOJuly
zou89zItpuNc4xYwbjscOPgDrAYRX5IioJey5Ljb/lzdK2C01o9m+LeOjoYqWIZz
XN4vrNmsYFcSRH6myf77zzPmBOCoCBZfeKyL8IuEQT5tvQIDAQABo4G9MIG6MAkG
A1UdEwQCMAAwHQYDVR0OBBYEFB6eLtQIq8gDPK7Au87dJ17zacTWMFEGA1UdIwRK
MEiAFMIUTshTI8JHMb4SHP0l+oO0VFq4oRqkGDAWMRQwEgYDVQQDDAt0ZWFtMzY5
LW5ldIIUI6y/MKWs6RHwhsKQuk+K/cKnid8wEwYDVR0lBAwwCgYIKwYBBQUHAwEw
CwYDVR0PBAQDAgWgMBkGA1UdEQQSMBCCDnRlYW0zNjktc2VydmVyMA0GCSqGSIb3
DQEBCwUAA4IBAQCE3sKGv6Y1QGayDbqZxnJxb2LsfR6lU/tHdlFbCs2E9rQMQaao
6oFrF4BIH+FVu/akkr4gDYpVkDAdGVM5hEVKg/PdpngRJ6+dZLZRXcV+2YJ3siHz
/lLv7Qd1reA09W+tm1c6gA0rhcX/AWH+4n/lK2ckwPnUgcADyBmPnxyXowkMblXf
sMa9g3HgOC+nrnz7thNw9zj1NpMrKLm0ljT6Yu7w2ieC8GjH+jpaMbGOxYYzV5+7
wYCxCPfogp5hvyj+LMhGnWz+Uek3mO29OrGhqTxW1koJPe0d4B7KiqpPuZC7cOeL
Vu6JTIKeOFQXtTQh4TBi/Tt9b3CiqbMhHPaP
-----END CERTIFICATE-----
