Certificate:
    Data:
        Version: 3 (0x2)
        Serial Number:
            91:17:87:37:76:25:d8:07:6b:c7:b4:7e:19:c2:15:30
        Signature Algorithm: sha256WithRSAEncryption
        Issuer: CN=team369-net
        Validity
            Not Before: Nov  4 11:35:43 2023 GMT
            Not After : Oct 19 11:35:43 2026 GMT
        Subject: CN=team369-server
        Subject Public Key Info:
            Public Key Algorithm: rsaEncryption
                Public-Key: (2048 bit)
                Modulus:
                    00:9b:df:be:6e:1f:60:35:05:9e:39:42:02:0b:40:
                    38:55:c6:1d:4b:f4:c0:1a:f6:d1:73:db:5c:9f:0e:
                    d0:80:1b:51:2a:c7:4e:2b:12:0f:35:22:66:10:48:
                    71:89:d0:53:4a:87:16:36:b0:89:a9:11:ba:2d:bc:
                    73:a8:7c:46:19:f4:d5:13:39:ee:2f:9d:2d:0e:3d:
                    5a:eb:86:dc:00:30:1f:a8:b5:6a:16:f2:d9:29:fc:
                    7e:dc:36:4a:a1:44:40:7f:e0:dd:6b:da:e6:e0:bb:
                    90:a3:7d:f2:6a:29:ae:ce:22:da:da:e3:b8:f0:9f:
                    e6:4b:c5:8c:e5:42:9d:e7:76:6a:df:c2:78:84:e8:
                    a3:d4:f8:d8:2e:0a:6b:4c:02:a6:e0:bd:1c:49:89:
                    ff:fe:fb:32:4f:02:a2:23:54:8a:5d:6a:b5:bc:a9:
                    1b:b3:c2:51:5d:36:12:65:4c:b0:8e:19:fb:f8:ff:
                    8a:c4:85:f1:00:3d:ae:30:ce:e4:86:e0:12:f4:df:
                    c8:ad:db:9d:73:54:2e:61:48:27:c1:55:f2:2e:89:
                    0a:a8:62:bb:e0:5f:9e:db:42:42:1c:ec:b7:9b:6e:
                    8c:dc:71:20:ca:46:de:f0:e6:ed:d2:2c:06:27:ff:
                    33:db:8a:bf:99:9a:5a:1f:00:7a:e0:70:8b:c5:20:
                    69:f1
                Exponent: 65537 (0x10001)
        X509v3 extensions:
            X509v3 Basic Constraints: 
                CA:FALSE
            X509v3 Subject Key Identifier: 
                F8:7E:ED:43:3B:FC:60:D9:23:25:C3:DE:5A:8E:5F:49:92:EE:F3:6A
            X509v3 Authority Key Identifier: 
                keyid:D2:AC:79:CC:1F:75:87:10:A0:C1:78:C8:70:36:0A:54:13:A0:F9:AE
                DirName:/CN=team369-net
                serial:67:C1:82:7B:4F:48:7D:E2:F0:73:64:12:09:34:95:E4:0F:40:BB:89
            X509v3 Extended Key Usage: 
                TLS Web Server Authentication
            X509v3 Key Usage: 
                Digital Signature, Key Encipherment
            X509v3 Subject Alternative Name: 
                DNS:team369-server
    Signature Algorithm: sha256WithRSAEncryption
    Signature Value:
        4c:b9:ec:ce:ca:f6:65:c1:80:ce:11:0d:6e:fa:1f:f9:12:2e:
        2c:90:0d:e6:8e:58:51:c8:f9:7c:53:35:0f:53:fa:54:1e:a8:
        54:7f:40:a9:77:c6:70:86:3f:de:cb:9d:7b:26:98:65:bd:f6:
        8f:81:b5:44:85:70:b0:ad:28:01:10:da:34:fc:ea:1c:ff:31:
        1f:8e:5e:a1:c6:7a:3a:53:8c:34:e7:25:55:7b:ac:a8:31:43:
        06:ef:4a:fd:ed:34:17:2f:e1:e0:5b:e2:20:6f:9c:c0:ac:41:
        e0:35:aa:bc:ba:ca:9b:c4:6c:6d:23:93:3d:7a:e5:a5:42:1a:
        75:54:c5:72:b8:6a:27:4f:ac:ae:56:49:41:b3:92:37:2f:36:
        61:ca:ba:cc:69:a5:ea:39:c3:70:e3:8f:c4:b3:db:5c:8b:08:
        af:4f:3f:c0:bc:59:11:82:0e:22:5f:5a:d2:12:b5:74:a9:6e:
        c3:88:d4:d8:f1:87:8d:11:50:f4:fa:42:57:df:43:fa:10:81:
        1a:4a:c6:0b:b9:dc:94:7b:6b:e0:58:7c:c8:7e:d2:c2:6f:5e:
        f5:06:76:71:a7:82:7a:95:71:0f:39:29:58:9f:16:26:f0:d7:
        c6:48:dc:42:e1:66:0a:06:83:30:99:11:c2:96:91:c8:58:5d:
        d3:35:c7:75
-----BEGIN CERTIFICATE-----
MIIDeDCCAmCgAwIBAgIRAJEXhzd2JdgHa8e0fhnCFTAwDQYJKoZIhvcNAQELBQAw
FjEUMBIGA1UEAwwLdGVhbTM2OS1uZXQwHhcNMjMxMTA0MTEzNTQzWhcNMjYxMDE5
MTEzNTQzWjAZMRcwFQYDVQQDDA50ZWFtMzY5LXNlcnZlcjCCASIwDQYJKoZIhvcN
AQEBBQADggEPADCCAQoCggEBAJvfvm4fYDUFnjlCAgtAOFXGHUv0wBr20XPbXJ8O
0IAbUSrHTisSDzUiZhBIcYnQU0qHFjawiakRui28c6h8Rhn01RM57i+dLQ49WuuG
3AAwH6i1ahby2Sn8ftw2SqFEQH/g3Wva5uC7kKN98moprs4i2trjuPCf5kvFjOVC
ned2at/CeIToo9T42C4Ka0wCpuC9HEmJ//77Mk8CoiNUil1qtbypG7PCUV02EmVM
sI4Z+/j/isSF8QA9rjDO5IbgEvTfyK3bnXNULmFIJ8FV8i6JCqhiu+BfnttCQhzs
t5tujNxxIMpG3vDm7dIsBif/M9uKv5maWh8AeuBwi8UgafECAwEAAaOBvTCBujAJ
BgNVHRMEAjAAMB0GA1UdDgQWBBT4fu1DO/xg2SMlw95ajl9Jku7zajBRBgNVHSME
SjBIgBTSrHnMH3WHEKDBeMhwNgpUE6D5rqEapBgwFjEUMBIGA1UEAwwLdGVhbTM2
OS1uZXSCFGfBgntPSH3i8HNkEgk0leQPQLuJMBMGA1UdJQQMMAoGCCsGAQUFBwMB
MAsGA1UdDwQEAwIFoDAZBgNVHREEEjAQgg50ZWFtMzY5LXNlcnZlcjANBgkqhkiG
9w0BAQsFAAOCAQEATLnszsr2ZcGAzhENbvof+RIuLJAN5o5YUcj5fFM1D1P6VB6o
VH9AqXfGcIY/3sudeyaYZb32j4G1RIVwsK0oARDaNPzqHP8xH45eocZ6OlOMNOcl
VXusqDFDBu9K/e00Fy/h4FviIG+cwKxB4DWqvLrKm8RsbSOTPXrlpUIadVTFcrhq
J0+srlZJQbOSNy82Ycq6zGml6jnDcOOPxLPbXIsIr08/wLxZEYIOIl9a0hK1dKlu
w4jU2PGHjRFQ9PpCV99D+hCBGkrGC7nclHtr4Fh8yH7Swm9e9QZ2caeCepVxDzkp
WJ8WJvDXxkjcQuFmCgaDMJkRwpaRyFhd0zXHdQ==
-----END CERTIFICATE-----
