Certificate:
    Data:
        Version: 3 (0x2)
        Serial Number:
            bc:f0:e4:4f:4d:08:42:96:63:94:93:fa:54:c3:11:d2
        Signature Algorithm: sha256WithRSAEncryption
        Issuer: CN=team369-net
        Validity
            Not Before: Nov  4 10:47:20 2023 GMT
            Not After : Oct 19 10:47:20 2026 GMT
        Subject: CN=team369-server
        Subject Public Key Info:
            Public Key Algorithm: rsaEncryption
                Public-Key: (2048 bit)
                Modulus:
                    00:e2:9c:c1:90:05:f3:d3:36:39:c0:8f:2a:8c:05:
                    28:76:0d:c2:f9:9e:23:51:ba:df:7b:17:f0:55:9d:
                    4e:5c:67:8a:ee:48:d3:8e:60:25:95:54:d0:31:33:
                    99:27:ff:1d:4d:1d:19:41:43:d6:70:69:fc:0d:6f:
                    cc:db:2c:41:83:f2:6b:6b:47:36:a6:25:5b:08:ea:
                    cc:d0:93:4c:d6:3b:41:af:19:5f:2e:92:11:73:9a:
                    ef:99:49:87:76:92:d4:e1:d5:31:03:3a:6a:eb:59:
                    0c:16:fd:17:29:4e:8f:ee:ec:f6:76:c2:fd:08:09:
                    60:c6:46:b8:cd:1c:54:90:2f:da:2a:57:7f:cc:5e:
                    c5:e6:f3:27:ad:23:63:c0:22:3b:a2:8a:17:54:9d:
                    54:51:5c:6f:c8:da:25:bf:b9:54:0b:2a:50:da:24:
                    48:bf:cb:14:31:f6:0c:ba:08:33:a2:2c:8c:54:3a:
                    ab:17:93:10:bd:3e:c7:77:06:cd:46:c8:0c:f6:f0:
                    05:4b:4a:09:37:a3:7e:44:ad:24:e8:24:1c:95:3d:
                    a4:f4:7d:54:60:ed:03:f5:50:24:45:1e:42:18:81:
                    8a:57:c6:e2:03:8a:19:9e:6c:e8:48:bf:87:02:8b:
                    c7:b2:22:2e:cb:58:44:d3:ed:29:13:62:ec:d7:f4:
                    9a:7b
                Exponent: 65537 (0x10001)
        X509v3 extensions:
            X509v3 Basic Constraints: 
                CA:FALSE
            X509v3 Subject Key Identifier: 
                D5:45:8B:39:A8:0F:BE:49:97:D6:40:EB:B9:96:5C:00:CD:2A:31:52
            X509v3 Authority Key Identifier: 
                keyid:0B:07:EB:C0:B3:4E:E8:72:4B:84:B3:58:1D:BD:57:26:F6:19:7A:E1
                DirName:/CN=team369-net
                serial:7E:66:EF:FB:F3:D7:A6:73:66:E9:EF:D6:3F:10:21:4F:48:04:F1:DC
            X509v3 Extended Key Usage: 
                TLS Web Server Authentication
            X509v3 Key Usage: 
                Digital Signature, Key Encipherment
            X509v3 Subject Alternative Name: 
                DNS:team369-server
    Signature Algorithm: sha256WithRSAEncryption
    Signature Value:
        44:c6:da:4d:8f:05:ba:8b:54:a9:f6:f0:c1:a4:74:1d:a9:97:
        40:04:5e:c7:c9:8b:25:39:90:b9:7a:de:83:b1:29:32:ad:df:
        02:4e:07:fc:73:19:65:49:3b:6a:0e:e7:e8:63:b4:ab:a4:b0:
        1f:e2:2a:ca:1b:ea:67:ba:62:3e:18:d6:10:9a:61:86:a5:34:
        38:9c:89:3d:63:9e:d9:ff:32:f7:8d:fb:f7:64:02:33:54:1f:
        13:d1:3c:f5:57:8d:d1:2c:49:c9:9a:58:7a:96:56:1b:61:a1:
        b6:12:4e:7f:81:13:a8:68:af:79:93:b2:85:91:26:73:0b:30:
        97:a3:07:18:ce:55:f1:f8:4c:b4:0d:8d:e0:df:81:7f:ee:c8:
        aa:1a:d7:89:fa:09:0d:76:f9:6c:c7:5d:f0:13:b5:ed:41:2c:
        1d:b2:7f:4b:27:e4:86:e2:e4:87:7c:4d:f4:11:ac:09:f6:8b:
        dc:4b:0e:45:f4:da:61:73:ce:cb:7e:13:bf:19:c5:01:4b:3b:
        0f:f0:02:b7:97:e8:d3:4c:07:39:25:88:e3:3e:86:68:30:c6:
        8e:f2:05:2a:fb:9c:9b:0b:7a:96:ed:f3:cf:8e:8b:cc:df:1b:
        e4:f0:0a:30:66:59:0b:03:97:39:12:08:6a:3f:a8:25:3f:d1:
        42:7f:5f:4a
-----BEGIN CERTIFICATE-----
MIIDeDCCAmCgAwIBAgIRALzw5E9NCEKWY5ST+lTDEdIwDQYJKoZIhvcNAQELBQAw
FjEUMBIGA1UEAwwLdGVhbTM2OS1uZXQwHhcNMjMxMTA0MTA0NzIwWhcNMjYxMDE5
MTA0NzIwWjAZMRcwFQYDVQQDDA50ZWFtMzY5LXNlcnZlcjCCASIwDQYJKoZIhvcN
AQEBBQADggEPADCCAQoCggEBAOKcwZAF89M2OcCPKowFKHYNwvmeI1G633sX8FWd
Tlxniu5I045gJZVU0DEzmSf/HU0dGUFD1nBp/A1vzNssQYPya2tHNqYlWwjqzNCT
TNY7Qa8ZXy6SEXOa75lJh3aS1OHVMQM6autZDBb9FylOj+7s9nbC/QgJYMZGuM0c
VJAv2ipXf8xexebzJ60jY8AiO6KKF1SdVFFcb8jaJb+5VAsqUNokSL/LFDH2DLoI
M6IsjFQ6qxeTEL0+x3cGzUbIDPbwBUtKCTejfkStJOgkHJU9pPR9VGDtA/VQJEUe
QhiBilfG4gOKGZ5s6Ei/hwKLx7IiLstYRNPtKRNi7Nf0mnsCAwEAAaOBvTCBujAJ
BgNVHRMEAjAAMB0GA1UdDgQWBBTVRYs5qA++SZfWQOu5llwAzSoxUjBRBgNVHSME
SjBIgBQLB+vAs07ockuEs1gdvVcm9hl64aEapBgwFjEUMBIGA1UEAwwLdGVhbTM2
OS1uZXSCFH5m7/vz16ZzZunv1j8QIU9IBPHcMBMGA1UdJQQMMAoGCCsGAQUFBwMB
MAsGA1UdDwQEAwIFoDAZBgNVHREEEjAQgg50ZWFtMzY5LXNlcnZlcjANBgkqhkiG
9w0BAQsFAAOCAQEARMbaTY8FuotUqfbwwaR0HamXQARex8mLJTmQuXreg7EpMq3f
Ak4H/HMZZUk7ag7n6GO0q6SwH+IqyhvqZ7piPhjWEJphhqU0OJyJPWOe2f8y9437
92QCM1QfE9E89VeN0SxJyZpYepZWG2GhthJOf4ETqGiveZOyhZEmcwswl6MHGM5V
8fhMtA2N4N+Bf+7IqhrXifoJDXb5bMdd8BO17UEsHbJ/SyfkhuLkh3xN9BGsCfaL
3EsORfTaYXPOy34TvxnFAUs7D/ACt5fo00wHOSWI4z6GaDDGjvIFKvucmwt6lu3z
z46LzN8b5PAKMGZZCwOXORIIaj+oJT/RQn9fSg==
-----END CERTIFICATE-----
