Certificate:
    Data:
        Version: 3 (0x2)
        Serial Number:
            d3:58:1c:58:46:fe:5e:86:79:a9:b1:74:0d:f9:25:de
        Signature Algorithm: sha256WithRSAEncryption
        Issuer: CN=team369-net
        Validity
            Not Before: Nov  4 10:47:20 2023 GMT
            Not After : Oct 19 10:47:20 2026 GMT
        Subject: CN=team369-client
        Subject Public Key Info:
            Public Key Algorithm: rsaEncryption
                Public-Key: (2048 bit)
                Modulus:
                    00:b6:e9:e2:4c:3b:07:5b:c8:18:2d:01:15:5a:6b:
                    26:82:3e:b2:cf:0e:d2:7e:00:0c:f3:6c:54:1d:66:
                    f8:ca:69:b7:0c:45:ed:96:35:db:86:aa:cb:39:a2:
                    ef:d9:4e:5b:a1:06:6b:40:bd:e0:e6:3d:3a:b2:b0:
                    01:09:c8:5c:fd:97:97:fd:5b:32:11:32:24:51:86:
                    7c:a2:98:94:be:58:1e:11:36:af:ce:20:9b:21:d5:
                    a0:3d:e7:00:52:bb:53:97:54:8c:46:f1:31:8a:1e:
                    4f:77:44:16:4a:70:6d:7a:11:38:f6:29:b2:ed:a2:
                    80:b5:75:da:fa:3d:cc:44:85:7f:6c:49:d0:85:90:
                    22:fc:8c:00:c2:07:6a:46:93:94:dd:69:96:e9:30:
                    b7:7f:d6:17:ce:fc:38:df:da:b7:e6:46:6a:4f:59:
                    60:d6:da:9c:83:dd:6c:e3:9c:6a:59:99:c9:82:6b:
                    76:32:88:76:25:9f:ca:c0:8e:12:80:11:ef:db:7e:
                    44:2e:67:24:de:29:a1:96:a6:0b:72:ea:43:d4:60:
                    c3:ed:5f:52:26:3f:ed:13:fd:78:d7:07:d9:bb:0d:
                    36:6d:e3:2a:1b:ac:b4:f0:0f:8f:4a:68:ab:36:cd:
                    2c:8a:8b:7e:53:3b:c8:93:48:f8:0b:12:24:d5:f2:
                    a5:95
                Exponent: 65537 (0x10001)
        X509v3 extensions:
            X509v3 Basic Constraints: 
                CA:FALSE
            X509v3 Subject Key Identifier: 
                CD:55:AF:3B:DF:81:BA:21:10:63:19:F5:1C:D3:8B:EF:6C:F5:B5:A6
            X509v3 Authority Key Identifier: 
                keyid:0B:07:EB:C0:B3:4E:E8:72:4B:84:B3:58:1D:BD:57:26:F6:19:7A:E1
                DirName:/CN=team369-net
                serial:7E:66:EF:FB:F3:D7:A6:73:66:E9:EF:D6:3F:10:21:4F:48:04:F1:DC
            X509v3 Extended Key Usage: 
                TLS Web Client Authentication
            X509v3 Key Usage: 
                Digital Signature
    Signature Algorithm: sha256WithRSAEncryption
    Signature Value:
        06:ba:2f:9e:32:d2:e4:78:64:5c:71:5e:3e:b9:80:a8:d4:93:
        96:aa:31:54:d6:51:76:c0:d1:0c:15:fc:c6:1d:85:f3:64:f0:
        46:61:b4:77:e3:fd:79:f5:87:1a:40:04:b2:3b:b4:c4:d6:11:
        aa:d0:1c:d9:8e:5f:c3:65:67:da:ef:bd:74:da:22:3d:86:6a:
        39:96:18:c5:ee:92:18:7e:85:d9:63:ae:5b:0f:cc:f4:ce:3d:
        2d:48:bb:82:d3:88:36:85:a9:38:0e:82:5b:65:71:a1:a9:df:
        c1:a9:91:b6:54:c3:20:f5:ff:84:03:e4:6a:79:4d:1c:d9:d1:
        22:b0:56:1a:90:45:84:bc:4c:66:2e:40:ed:f9:37:63:f0:dc:
        65:b0:cd:8d:f3:c8:04:69:87:73:bf:9b:3a:3d:98:1d:5f:4a:
        05:70:f3:ee:51:93:6a:c0:63:01:bc:3c:24:33:45:96:c1:10:
        55:bc:dd:20:4d:89:11:a2:e1:ff:8e:31:9c:a5:ac:74:da:e7:
        4e:63:82:dd:33:8a:ec:aa:dd:d9:b5:eb:f6:2b:53:6e:f1:c3:
        8c:3e:d8:1a:09:8e:83:d4:ce:d9:bd:65:c7:f2:de:c9:5c:06:
        16:da:ae:9a:4c:1c:0f:e2:7e:55:86:34:45:cd:7d:f9:d4:dd:
        88:ad:7c:74
-----BEGIN CERTIFICATE-----
MIIDXTCCAkWgAwIBAgIRANNYHFhG/l6GeamxdA35Jd4wDQYJKoZIhvcNAQELBQAw
FjEUMBIGA1UEAwwLdGVhbTM2OS1uZXQwHhcNMjMxMTA0MTA0NzIwWhcNMjYxMDE5
MTA0NzIwWjAZMRcwFQYDVQQDDA50ZWFtMzY5LWNsaWVudDCCASIwDQYJKoZIhvcN
AQEBBQADggEPADCCAQoCggEBALbp4kw7B1vIGC0BFVprJoI+ss8O0n4ADPNsVB1m
+MpptwxF7ZY124aqyzmi79lOW6EGa0C94OY9OrKwAQnIXP2Xl/1bMhEyJFGGfKKY
lL5YHhE2r84gmyHVoD3nAFK7U5dUjEbxMYoeT3dEFkpwbXoROPYpsu2igLV12vo9
zESFf2xJ0IWQIvyMAMIHakaTlN1plukwt3/WF878ON/at+ZGak9ZYNbanIPdbOOc
almZyYJrdjKIdiWfysCOEoAR79t+RC5nJN4poZamC3LqQ9Rgw+1fUiY/7RP9eNcH
2bsNNm3jKhustPAPj0poqzbNLIqLflM7yJNI+AsSJNXypZUCAwEAAaOBojCBnzAJ
BgNVHRMEAjAAMB0GA1UdDgQWBBTNVa8734G6IRBjGfUc04vvbPW1pjBRBgNVHSME
SjBIgBQLB+vAs07ockuEs1gdvVcm9hl64aEapBgwFjEUMBIGA1UEAwwLdGVhbTM2
OS1uZXSCFH5m7/vz16ZzZunv1j8QIU9IBPHcMBMGA1UdJQQMMAoGCCsGAQUFBwMC
MAsGA1UdDwQEAwIHgDANBgkqhkiG9w0BAQsFAAOCAQEABrovnjLS5HhkXHFePrmA
qNSTlqoxVNZRdsDRDBX8xh2F82TwRmG0d+P9efWHGkAEsju0xNYRqtAc2Y5fw2Vn
2u+9dNoiPYZqOZYYxe6SGH6F2WOuWw/M9M49LUi7gtOINoWpOA6CW2VxoanfwamR
tlTDIPX/hAPkanlNHNnRIrBWGpBFhLxMZi5A7fk3Y/DcZbDNjfPIBGmHc7+bOj2Y
HV9KBXDz7lGTasBjAbw8JDNFlsEQVbzdIE2JEaLh/44xnKWsdNrnTmOC3TOK7Krd
2bXr9itTbvHDjD7YGgmOg9TO2b1lx/LeyVwGFtqumkwcD+J+VYY0Rc19+dTdiK18
dA==
-----END CERTIFICATE-----
