Certificate:
    Data:
        Version: 3 (0x2)
        Serial Number:
            25:ad:bd:83:11:fe:da:26:bb:ac:8d:01:e3:26:09:0d
        Signature Algorithm: sha256WithRSAEncryption
        Issuer: CN=team267-net
        Validity
            Not Before: Nov  4 11:32:58 2023 GMT
            Not After : Oct 19 11:32:58 2026 GMT
        Subject: CN=team267-server
        Subject Public Key Info:
            Public Key Algorithm: rsaEncryption
                Public-Key: (2048 bit)
                Modulus:
                    00:a2:3f:72:be:00:76:a0:55:4a:25:a3:3c:b4:ee:
                    7a:74:b9:10:9f:c0:42:d0:22:b2:f0:e3:26:9a:90:
                    3e:27:af:0e:07:39:8d:b4:7b:d9:da:c9:a7:65:46:
                    55:d5:28:f1:d1:d4:17:b2:21:44:de:70:c8:69:d5:
                    d3:90:cb:14:38:63:33:c2:7a:1f:00:7e:da:f5:bd:
                    7b:79:f5:12:cc:bd:de:f0:7d:1e:da:9a:8a:c6:a1:
                    70:3f:5f:f8:d3:d9:ac:58:ed:25:79:4b:2c:f8:fa:
                    8f:3f:6f:90:2e:a7:9b:78:56:0d:68:74:a0:38:8a:
                    5d:f0:a6:d6:a4:92:58:11:a5:f3:2d:bb:20:91:ae:
                    d2:e2:f5:e2:ae:e7:fa:7f:e5:20:d6:9e:44:94:5d:
                    97:1e:47:97:b7:6a:9a:6d:8d:94:ea:98:c4:4c:6b:
                    a3:bd:6a:83:c0:0b:6f:b0:81:61:d1:f1:10:46:ba:
                    f8:e5:9d:f8:c9:df:38:e5:b1:14:de:d7:1a:f0:c5:
                    32:b0:55:57:d3:7c:9a:40:db:ab:3e:50:f4:45:05:
                    e9:a6:96:51:56:5b:b8:ee:7f:bf:31:e9:65:1b:17:
                    b4:67:6d:b4:95:fb:3c:e4:e0:bc:d3:e8:5d:a5:18:
                    16:a8:93:60:cc:f6:11:3b:fa:57:e9:65:61:19:d4:
                    6c:a3
                Exponent: 65537 (0x10001)
        X509v3 extensions:
            X509v3 Basic Constraints: 
                CA:FALSE
            X509v3 Subject Key Identifier: 
                E7:07:04:92:EA:8B:6C:A3:6E:BA:B6:C9:90:C5:AB:B2:C4:8A:09:FA
            X509v3 Authority Key Identifier: 
                keyid:C4:8D:5F:83:CE:70:57:9D:B8:CB:0D:AF:8C:81:C6:6C:10:64:58:7D
                DirName:/CN=team267-net
                serial:1C:64:A4:E3:A6:01:CE:5B:55:54:0B:8B:5B:25:8E:4D:88:07:DF:25
            X509v3 Extended Key Usage: 
                TLS Web Server Authentication
            X509v3 Key Usage: 
                Digital Signature, Key Encipherment
            X509v3 Subject Alternative Name: 
                DNS:team267-server
    Signature Algorithm: sha256WithRSAEncryption
    Signature Value:
        7a:12:0f:d7:38:63:ff:ba:9c:77:74:2d:87:35:89:dc:bc:3a:
        50:04:8a:93:a9:a2:02:47:b9:9d:05:ea:57:2d:a7:95:9f:a6:
        00:b7:1f:8e:f1:4b:1e:ae:31:41:34:3d:c3:d8:cc:08:87:ab:
        a0:47:28:85:40:36:6b:c1:60:3b:19:9b:c0:ec:9b:32:2c:8b:
        d4:f1:7c:b7:08:65:8a:97:5f:eb:4d:46:25:01:b0:1b:23:34:
        d0:06:26:07:a3:e9:f9:a3:45:b7:2b:f3:79:89:02:93:45:e8:
        bc:fe:b3:f9:29:16:7c:73:3b:db:b3:1d:63:13:09:4a:92:49:
        2e:ae:1a:23:96:b2:20:4d:5d:8f:ce:1a:88:5c:f4:ed:7f:2a:
        94:db:ff:f0:99:87:30:e7:b2:14:db:16:ec:30:54:e5:1f:b9:
        98:f7:e6:dd:a3:27:90:37:bd:ed:f6:28:5b:d9:18:2a:de:76:
        00:b9:a7:89:5d:b4:e8:c5:f2:47:3f:4b:a1:4e:28:c9:35:e0:
        81:0b:9c:22:f0:3e:94:8a:e1:ac:d2:89:c9:d1:8f:b4:24:1c:
        50:80:54:04:97:a8:1f:a6:f3:f0:42:5d:76:2d:81:dc:05:1e:
        17:e0:04:95:ef:0b:2e:b7:06:48:99:8a:64:14:8e:6e:d7:49:
        97:b9:48:72
-----BEGIN CERTIFICATE-----
MIIDdzCCAl+gAwIBAgIQJa29gxH+2ia7rI0B4yYJDTANBgkqhkiG9w0BAQsFADAW
MRQwEgYDVQQDDAt0ZWFtMjY3LW5ldDAeFw0yMzExMDQxMTMyNThaFw0yNjEwMTkx
MTMyNThaMBkxFzAVBgNVBAMMDnRlYW0yNjctc2VydmVyMIIBIjANBgkqhkiG9w0B
AQEFAAOCAQ8AMIIBCgKCAQEAoj9yvgB2oFVKJaM8tO56dLkQn8BC0CKy8OMmmpA+
J68OBzmNtHvZ2smnZUZV1Sjx0dQXsiFE3nDIadXTkMsUOGMzwnofAH7a9b17efUS
zL3e8H0e2pqKxqFwP1/409msWO0leUss+PqPP2+QLqebeFYNaHSgOIpd8KbWpJJY
EaXzLbsgka7S4vXiruf6f+Ug1p5ElF2XHkeXt2qabY2U6pjETGujvWqDwAtvsIFh
0fEQRrr45Z34yd845bEU3tca8MUysFVX03yaQNurPlD0RQXpppZRVlu47n+/Mell
Gxe0Z220lfs85OC80+hdpRgWqJNgzPYRO/pX6WVhGdRsowIDAQABo4G9MIG6MAkG
A1UdEwQCMAAwHQYDVR0OBBYEFOcHBJLqi2yjbrq2yZDFq7LEign6MFEGA1UdIwRK
MEiAFMSNX4POcFeduMsNr4yBxmwQZFh9oRqkGDAWMRQwEgYDVQQDDAt0ZWFtMjY3
LW5ldIIUHGSk46YBzltVVAuLWyWOTYgH3yUwEwYDVR0lBAwwCgYIKwYBBQUHAwEw
CwYDVR0PBAQDAgWgMBkGA1UdEQQSMBCCDnRlYW0yNjctc2VydmVyMA0GCSqGSIb3
DQEBCwUAA4IBAQB6Eg/XOGP/upx3dC2HNYncvDpQBIqTqaICR7mdBepXLaeVn6YA
tx+O8UserjFBND3D2MwIh6ugRyiFQDZrwWA7GZvA7JsyLIvU8Xy3CGWKl1/rTUYl
AbAbIzTQBiYHo+n5o0W3K/N5iQKTRei8/rP5KRZ8czvbsx1jEwlKkkkurhojlrIg
TV2PzhqIXPTtfyqU2//wmYcw57IU2xbsMFTlH7mY9+bdoyeQN73t9ihb2Rgq3nYA
uaeJXbToxfJHP0uhTijJNeCBC5wi8D6UiuGs0onJ0Y+0JBxQgFQEl6gfpvPwQl12
LYHcBR4X4ASV7wsutwZImYpkFI5u10mXuUhy
-----END CERTIFICATE-----
