Certificate:
    Data:
        Version: 3 (0x2)
        Serial Number:
            5c:95:e5:0e:b6:05:38:72:92:bf:3b:fc:62:17:46:bf
        Signature Algorithm: sha256WithRSAEncryption
        Issuer: CN=team267-net
        Validity
            Not Before: Nov  3 20:44:12 2023 GMT
            Not After : Oct 18 20:44:12 2026 GMT
        Subject: CN=team267-server
        Subject Public Key Info:
            Public Key Algorithm: rsaEncryption
                Public-Key: (2048 bit)
                Modulus:
                    00:a0:00:16:ee:cf:28:6c:19:96:33:cf:a1:3e:b8:
                    86:fb:05:18:a9:8f:5b:99:e0:d1:d0:5a:e8:e6:2c:
                    74:d8:ca:1e:77:ca:72:ad:07:15:aa:49:e6:c5:83:
                    9c:aa:8c:7e:71:f1:1f:3b:c5:f5:af:e2:41:d4:38:
                    db:48:89:70:33:ce:a8:f9:c3:b1:c8:82:20:fe:00:
                    a8:00:1f:d9:b8:bd:91:72:b4:b3:d5:8f:03:ee:7c:
                    57:f0:58:a8:c4:f1:66:d0:4c:f0:7b:95:58:68:4e:
                    17:c2:ad:0d:e8:ac:37:d9:c4:94:9a:70:cc:d2:a9:
                    2f:09:04:9d:04:3e:b2:12:8d:06:46:af:a9:64:80:
                    43:bd:d0:ac:6d:33:30:21:22:58:c7:ca:7c:31:1b:
                    77:e3:19:78:7c:4d:91:86:29:6d:39:db:85:9f:ee:
                    a0:dd:32:e9:64:5e:22:f6:25:36:8b:68:82:b8:ff:
                    bc:94:e7:3a:45:ef:22:a4:74:a6:d6:cc:6c:58:82:
                    10:10:ca:6d:71:4e:cc:b0:56:89:3b:26:e1:70:12:
                    5c:8c:02:f4:eb:47:34:e9:b8:bc:d9:f8:2f:0c:c4:
                    cc:fc:69:42:82:6e:b3:a8:9d:8b:88:e1:4a:c2:b2:
                    74:ca:17:e3:4c:02:ac:97:fe:93:be:be:aa:84:d5:
                    44:fb
                Exponent: 65537 (0x10001)
        X509v3 extensions:
            X509v3 Basic Constraints: 
                CA:FALSE
            X509v3 Subject Key Identifier: 
                FF:17:B4:54:50:95:17:A9:A8:39:5E:E2:06:D6:4F:1C:FD:6C:27:0A
            X509v3 Authority Key Identifier: 
                keyid:72:E8:C5:B6:53:47:B1:12:89:6B:BB:6E:D4:B8:DA:60:21:F2:6A:D4
                DirName:/CN=team267-net
                serial:66:59:3F:C0:95:34:13:32:2D:1C:EA:3C:39:01:47:3B:12:C2:32:D2
            X509v3 Extended Key Usage: 
                TLS Web Server Authentication
            X509v3 Key Usage: 
                Digital Signature, Key Encipherment
            X509v3 Subject Alternative Name: 
                DNS:team267-server
    Signature Algorithm: sha256WithRSAEncryption
    Signature Value:
        88:c5:21:0c:3f:cf:1c:7b:4b:08:16:74:2f:5a:b7:1a:82:4d:
        03:0b:03:d8:b0:8c:b0:8a:9f:92:a3:90:8d:28:3f:46:9c:28:
        34:4a:ed:31:cd:30:de:f2:75:9f:fe:1c:0c:1d:cb:ab:5e:09:
        59:6e:83:d9:f3:38:be:ca:03:f9:2d:86:11:70:7b:83:3e:81:
        8d:5d:f5:6d:20:b4:57:e4:d1:6a:2f:92:9b:bc:9d:2b:61:06:
        48:cf:49:ae:06:4e:bf:e2:32:b3:a9:9a:cb:17:0c:a0:3e:30:
        d3:05:31:b2:8a:1f:5a:8a:97:83:10:48:67:6d:04:83:f2:7d:
        05:c5:19:dd:5e:96:18:8b:e2:3d:c2:fa:2a:fd:79:82:11:f2:
        9d:31:b9:cb:15:b2:a3:af:14:89:df:6f:b3:05:d4:23:64:43:
        16:82:f3:9d:20:36:eb:a4:31:e9:d0:ed:3f:0d:a0:ed:30:7e:
        58:e3:85:40:a3:e2:f8:30:ed:1f:9f:f9:7f:90:89:a8:f1:74:
        d0:9f:e3:4d:9a:75:a4:4d:7e:b1:00:e7:a7:9a:a6:42:98:55:
        20:cd:8c:f8:2f:c9:e3:b2:9f:f5:a4:96:b9:5e:41:02:d1:74:
        9a:14:00:97:99:0f:8c:77:18:dd:9e:d8:09:db:2e:8b:0b:51:
        00:9a:bc:0a
-----BEGIN CERTIFICATE-----
MIIDdzCCAl+gAwIBAgIQXJXlDrYFOHKSvzv8YhdGvzANBgkqhkiG9w0BAQsFADAW
MRQwEgYDVQQDDAt0ZWFtMjY3LW5ldDAeFw0yMzExMDMyMDQ0MTJaFw0yNjEwMTgy
MDQ0MTJaMBkxFzAVBgNVBAMMDnRlYW0yNjctc2VydmVyMIIBIjANBgkqhkiG9w0B
AQEFAAOCAQ8AMIIBCgKCAQEAoAAW7s8obBmWM8+hPriG+wUYqY9bmeDR0Fro5ix0
2Moed8pyrQcVqknmxYOcqox+cfEfO8X1r+JB1DjbSIlwM86o+cOxyIIg/gCoAB/Z
uL2RcrSz1Y8D7nxX8FioxPFm0Ezwe5VYaE4Xwq0N6Kw32cSUmnDM0qkvCQSdBD6y
Eo0GRq+pZIBDvdCsbTMwISJYx8p8MRt34xl4fE2RhiltOduFn+6g3TLpZF4i9iU2
i2iCuP+8lOc6Re8ipHSm1sxsWIIQEMptcU7MsFaJOybhcBJcjAL060c06bi82fgv
DMTM/GlCgm6zqJ2LiOFKwrJ0yhfjTAKsl/6Tvr6qhNVE+wIDAQABo4G9MIG6MAkG
A1UdEwQCMAAwHQYDVR0OBBYEFP8XtFRQlRepqDle4gbWTxz9bCcKMFEGA1UdIwRK
MEiAFHLoxbZTR7ESiWu7btS42mAh8mrUoRqkGDAWMRQwEgYDVQQDDAt0ZWFtMjY3
LW5ldIIUZlk/wJU0EzItHOo8OQFHOxLCMtIwEwYDVR0lBAwwCgYIKwYBBQUHAwEw
CwYDVR0PBAQDAgWgMBkGA1UdEQQSMBCCDnRlYW0yNjctc2VydmVyMA0GCSqGSIb3
DQEBCwUAA4IBAQCIxSEMP88ce0sIFnQvWrcagk0DCwPYsIywip+So5CNKD9GnCg0
Su0xzTDe8nWf/hwMHcurXglZboPZ8zi+ygP5LYYRcHuDPoGNXfVtILRX5NFqL5Kb
vJ0rYQZIz0muBk6/4jKzqZrLFwygPjDTBTGyih9aipeDEEhnbQSD8n0FxRndXpYY
i+I9wvoq/XmCEfKdMbnLFbKjrxSJ32+zBdQjZEMWgvOdIDbrpDHp0O0/DaDtMH5Y
44VAo+L4MO0fn/l/kImo8XTQn+NNmnWkTX6xAOenmqZCmFUgzYz4L8njsp/1pJa5
XkEC0XSaFACXmQ+MdxjdntgJ2y6LC1EAmrwK
-----END CERTIFICATE-----
