Certificate:
    Data:
        Version: 3 (0x2)
        Serial Number:
            b3:b7:bf:b1:b0:01:92:bf:3b:e5:91:47:d3:91:2a:92
        Signature Algorithm: sha256WithRSAEncryption
        Issuer: CN=team267-net
        Validity
            Not Before: Nov  4 11:32:58 2023 GMT
            Not After : Oct 19 11:32:58 2026 GMT
        Subject: CN=team267-client
        Subject Public Key Info:
            Public Key Algorithm: rsaEncryption
                Public-Key: (2048 bit)
                Modulus:
                    00:ba:8d:51:a1:00:1b:7d:a9:4f:76:a0:47:03:fa:
                    0f:59:10:0c:d7:a3:c7:4a:1f:af:5e:c7:51:e1:39:
                    fe:01:68:9e:bb:59:12:82:70:17:f1:5b:4c:84:32:
                    cb:69:03:3f:a1:ae:84:a0:7b:ec:f3:7b:af:8c:58:
                    44:5d:4e:c1:14:1a:ba:c7:da:cf:71:a7:06:f4:48:
                    67:89:94:7b:7c:35:03:a1:21:62:fe:03:29:3d:16:
                    55:5f:0f:43:f7:89:29:eb:4f:75:d5:ba:f4:30:e9:
                    8f:0c:13:86:cb:0c:41:f3:de:4f:a1:2e:77:eb:5e:
                    f9:e3:76:8e:32:e5:3d:e2:d1:3f:48:44:6b:d8:82:
                    fd:a7:02:f9:19:87:4b:f5:b1:13:47:9d:00:c3:09:
                    00:c5:1e:ab:b4:7f:07:3b:df:61:4b:44:17:9f:8d:
                    5e:c9:17:1b:ea:e8:10:93:9a:f0:48:0a:8d:59:08:
                    e3:db:c9:df:ac:fa:5d:73:0c:e8:a8:9f:fe:1d:df:
                    17:a1:da:d5:a4:83:7a:13:c1:bd:fd:ee:c8:e1:89:
                    c8:82:83:82:b4:d3:a2:b9:7a:cd:da:d0:a4:c3:8f:
                    dd:b4:d0:a5:15:71:fd:70:6c:10:56:3b:eb:16:a7:
                    e3:1f:62:41:32:fd:5c:33:91:33:e0:64:37:ae:4b:
                    c8:8f
                Exponent: 65537 (0x10001)
        X509v3 extensions:
            X509v3 Basic Constraints: 
                CA:FALSE
            X509v3 Subject Key Identifier: 
                61:E1:30:03:F3:BC:8D:D7:0C:79:4B:AC:62:04:DA:7B:62:6E:2B:62
            X509v3 Authority Key Identifier: 
                keyid:C4:8D:5F:83:CE:70:57:9D:B8:CB:0D:AF:8C:81:C6:6C:10:64:58:7D
                DirName:/CN=team267-net
                serial:1C:64:A4:E3:A6:01:CE:5B:55:54:0B:8B:5B:25:8E:4D:88:07:DF:25
            X509v3 Extended Key Usage: 
                TLS Web Client Authentication
            X509v3 Key Usage: 
                Digital Signature
    Signature Algorithm: sha256WithRSAEncryption
    Signature Value:
        13:4c:43:90:b5:4a:d4:38:3c:ec:15:a2:c7:2a:7f:42:d9:65:
        ab:57:5a:5d:ce:4f:c4:0e:df:17:22:39:5d:39:7e:dc:65:e8:
        b6:36:b6:ff:ed:3b:ed:b8:4c:ea:6d:75:fd:2b:a9:c8:3c:02:
        28:69:4a:16:80:65:4e:4f:a7:86:3e:7d:22:3f:2c:07:c3:91:
        dc:04:2a:7d:e3:57:e5:87:70:cb:5a:2d:51:62:ee:ce:74:c5:
        59:67:f8:36:0a:32:19:ab:8a:79:2a:44:ed:52:79:d8:bf:6c:
        01:f0:0e:f0:ff:78:c2:64:7f:6a:66:14:02:2f:e8:7f:9e:85:
        96:4c:e8:a3:c2:00:8e:be:d7:06:e1:4d:91:9d:28:d4:e4:c0:
        82:a4:0e:b3:98:af:83:56:0e:c3:23:f9:29:d7:97:f2:bd:13:
        95:9b:7b:19:21:d9:c2:60:eb:24:fa:04:28:53:67:19:e3:49:
        f5:6d:05:14:eb:96:24:d4:31:d2:9d:06:13:31:ff:8c:a7:85:
        3c:05:ac:63:54:e3:2e:0a:fb:2d:9a:00:07:6f:3b:0a:4b:eb:
        c2:b0:bb:2d:29:8e:79:f3:d4:45:88:26:c9:6b:a1:f3:8b:a4:
        1d:10:67:77:7f:ff:29:b2:67:c9:57:c5:cb:e9:24:62:8d:9d:
        21:a3:fa:cd
-----BEGIN CERTIFICATE-----
MIIDXTCCAkWgAwIBAgIRALO3v7GwAZK/O+WRR9ORKpIwDQYJKoZIhvcNAQELBQAw
FjEUMBIGA1UEAwwLdGVhbTI2Ny1uZXQwHhcNMjMxMTA0MTEzMjU4WhcNMjYxMDE5
MTEzMjU4WjAZMRcwFQYDVQQDDA50ZWFtMjY3LWNsaWVudDCCASIwDQYJKoZIhvcN
AQEBBQADggEPADCCAQoCggEBALqNUaEAG32pT3agRwP6D1kQDNejx0ofr17HUeE5
/gFonrtZEoJwF/FbTIQyy2kDP6GuhKB77PN7r4xYRF1OwRQausfaz3GnBvRIZ4mU
e3w1A6EhYv4DKT0WVV8PQ/eJKetPddW69DDpjwwThssMQfPeT6Eud+te+eN2jjLl
PeLRP0hEa9iC/acC+RmHS/WxE0edAMMJAMUeq7R/BzvfYUtEF5+NXskXG+roEJOa
8EgKjVkI49vJ36z6XXMM6Kif/h3fF6Ha1aSDehPBvf3uyOGJyIKDgrTTorl6zdrQ
pMOP3bTQpRVx/XBsEFY76xan4x9iQTL9XDORM+BkN65LyI8CAwEAAaOBojCBnzAJ
BgNVHRMEAjAAMB0GA1UdDgQWBBRh4TAD87yN1wx5S6xiBNp7Ym4rYjBRBgNVHSME
SjBIgBTEjV+DznBXnbjLDa+MgcZsEGRYfaEapBgwFjEUMBIGA1UEAwwLdGVhbTI2
Ny1uZXSCFBxkpOOmAc5bVVQLi1sljk2IB98lMBMGA1UdJQQMMAoGCCsGAQUFBwMC
MAsGA1UdDwQEAwIHgDANBgkqhkiG9w0BAQsFAAOCAQEAE0xDkLVK1Dg87BWixyp/
Qtllq1daXc5PxA7fFyI5XTl+3GXotja2/+077bhM6m11/SupyDwCKGlKFoBlTk+n
hj59Ij8sB8OR3AQqfeNX5Ydwy1otUWLuznTFWWf4NgoyGauKeSpE7VJ52L9sAfAO
8P94wmR/amYUAi/of56Flkzoo8IAjr7XBuFNkZ0o1OTAgqQOs5ivg1YOwyP5KdeX
8r0TlZt7GSHZwmDrJPoEKFNnGeNJ9W0FFOuWJNQx0p0GEzH/jKeFPAWsY1TjLgr7
LZoAB287CkvrwrC7LSmOefPURYgmyWuh84ukHRBnd3//KbJnyVfFy+kkYo2dIaP6
zQ==
-----END CERTIFICATE-----
