Certificate:
    Data:
        Version: 3 (0x2)
        Serial Number:
            d6:94:1c:41:93:5c:e3:ee:1a:cd:e3:e6:64:a3:d1:8f
        Signature Algorithm: sha256WithRSAEncryption
        Issuer: CN=team267-net
        Validity
            Not Before: Nov  4 10:45:38 2023 GMT
            Not After : Oct 19 10:45:38 2026 GMT
        Subject: CN=team267-client
        Subject Public Key Info:
            Public Key Algorithm: rsaEncryption
                Public-Key: (2048 bit)
                Modulus:
                    00:ca:cf:5f:0d:41:17:98:1a:b0:f7:e6:07:14:27:
                    6c:d8:6a:f6:1f:ac:84:80:f2:75:c6:2a:07:a0:2c:
                    db:97:ad:a2:8d:24:58:22:d9:59:f0:85:f1:65:16:
                    8d:ee:9b:e9:c8:dc:23:bc:17:d0:5f:3b:63:6c:a9:
                    51:d6:88:07:b9:d9:52:7f:64:f4:16:3f:95:0b:86:
                    70:3f:0d:76:ae:52:7b:b1:ae:e6:31:aa:9d:08:d7:
                    f3:a8:c8:cf:00:ae:1b:b3:cf:ed:d5:53:18:2f:8d:
                    26:f0:81:8b:17:53:21:64:50:3e:c1:55:b0:5c:a0:
                    78:04:be:51:d3:03:8f:06:54:51:f6:c5:64:8c:00:
                    60:ce:29:3f:61:81:03:87:ac:9c:34:fc:d4:27:91:
                    be:00:4d:1b:8b:5d:12:16:27:08:ec:6c:3c:4d:01:
                    dc:2a:98:c6:9d:8e:e5:b4:b2:99:60:76:af:03:e9:
                    d3:26:9a:bf:8e:29:ac:e4:00:5d:78:a8:b8:6a:b5:
                    cd:73:35:36:ce:19:3e:fb:b5:19:be:77:4a:98:8a:
                    26:12:dd:9c:e7:92:3e:f3:23:2a:8b:d6:30:96:33:
                    84:57:60:46:b9:4b:04:de:a8:00:2c:b4:55:d3:70:
                    55:3d:2f:0b:75:f4:b9:bb:21:ba:b4:74:eb:06:55:
                    a3:a9
                Exponent: 65537 (0x10001)
        X509v3 extensions:
            X509v3 Basic Constraints: 
                CA:FALSE
            X509v3 Subject Key Identifier: 
                E4:33:87:A8:E3:2F:DF:A7:21:38:E9:57:0D:42:C2:E2:60:FB:F5:B4
            X509v3 Authority Key Identifier: 
                keyid:5F:C6:B6:23:71:59:97:8F:6A:C6:8D:EC:00:82:8E:86:E3:13:A0:A7
                DirName:/CN=team267-net
                serial:0A:E3:11:42:C5:41:EE:F9:3D:63:18:4A:22:98:7A:5C:4B:05:19:9B
            X509v3 Extended Key Usage: 
                TLS Web Client Authentication
            X509v3 Key Usage: 
                Digital Signature
    Signature Algorithm: sha256WithRSAEncryption
    Signature Value:
        12:74:d4:ef:9e:ec:2a:f7:12:c8:31:c6:b1:3a:93:35:7c:2b:
        93:ea:63:25:2f:b0:b7:18:63:4e:71:4b:d9:99:03:2e:d4:04:
        b4:4d:86:eb:6d:aa:cb:f6:9e:4d:e4:b7:dc:4b:b1:4a:58:dd:
        f2:e7:ed:ba:d6:a2:6f:6e:2c:b3:cc:61:a0:a4:a6:c2:cf:8a:
        65:68:39:9d:17:0e:bd:86:cf:7a:98:4d:a9:41:99:c8:a7:33:
        f3:c9:4f:15:f8:07:a2:45:b9:6d:e1:bc:82:45:b3:5c:08:d2:
        08:1f:49:c3:f9:50:da:5f:73:68:ac:91:82:75:75:a8:5e:5a:
        8e:0b:4c:a8:43:33:5e:de:4f:d0:ce:07:5c:87:dd:45:5c:44:
        ac:31:43:d5:0a:fa:bc:70:70:7e:d3:6b:63:11:dd:83:e9:46:
        ba:ea:d3:ad:de:4b:46:7d:0c:63:44:a1:a3:24:b5:a7:3a:50:
        dd:21:db:d2:4a:04:30:dd:19:a2:ed:8e:14:77:1f:0b:f3:b7:
        d7:ac:07:fd:00:93:8b:23:6b:ed:53:6c:0f:b6:19:e9:90:a5:
        83:dd:27:61:47:fd:66:24:a9:af:ed:7d:b6:f1:19:7a:41:9d:
        c2:47:54:46:ae:f3:b6:92:d1:ac:46:27:8d:5f:a9:c9:4c:52:
        66:a9:ff:88
-----BEGIN CERTIFICATE-----
MIIDXTCCAkWgAwIBAgIRANaUHEGTXOPuGs3j5mSj0Y8wDQYJKoZIhvcNAQELBQAw
FjEUMBIGA1UEAwwLdGVhbTI2Ny1uZXQwHhcNMjMxMTA0MTA0NTM4WhcNMjYxMDE5
MTA0NTM4WjAZMRcwFQYDVQQDDA50ZWFtMjY3LWNsaWVudDCCASIwDQYJKoZIhvcN
AQEBBQADggEPADCCAQoCggEBAMrPXw1BF5gasPfmBxQnbNhq9h+shIDydcYqB6As
25etoo0kWCLZWfCF8WUWje6b6cjcI7wX0F87Y2ypUdaIB7nZUn9k9BY/lQuGcD8N
dq5Se7Gu5jGqnQjX86jIzwCuG7PP7dVTGC+NJvCBixdTIWRQPsFVsFygeAS+UdMD
jwZUUfbFZIwAYM4pP2GBA4esnDT81CeRvgBNG4tdEhYnCOxsPE0B3CqYxp2O5bSy
mWB2rwPp0yaav44prOQAXXiouGq1zXM1Ns4ZPvu1Gb53SpiKJhLdnOeSPvMjKovW
MJYzhFdgRrlLBN6oACy0VdNwVT0vC3X0ubshurR06wZVo6kCAwEAAaOBojCBnzAJ
BgNVHRMEAjAAMB0GA1UdDgQWBBTkM4eo4y/fpyE46VcNQsLiYPv1tDBRBgNVHSME
SjBIgBRfxrYjcVmXj2rGjewAgo6G4xOgp6EapBgwFjEUMBIGA1UEAwwLdGVhbTI2
Ny1uZXSCFArjEULFQe75PWMYSiKYelxLBRmbMBMGA1UdJQQMMAoGCCsGAQUFBwMC
MAsGA1UdDwQEAwIHgDANBgkqhkiG9w0BAQsFAAOCAQEAEnTU757sKvcSyDHGsTqT
NXwrk+pjJS+wtxhjTnFL2ZkDLtQEtE2G622qy/aeTeS33EuxSljd8uftutaib24s
s8xhoKSmws+KZWg5nRcOvYbPephNqUGZyKcz88lPFfgHokW5beG8gkWzXAjSCB9J
w/lQ2l9zaKyRgnV1qF5ajgtMqEMzXt5P0M4HXIfdRVxErDFD1Qr6vHBwftNrYxHd
g+lGuurTrd5LRn0MY0ShoyS1pzpQ3SHb0koEMN0Zou2OFHcfC/O316wH/QCTiyNr
7VNsD7YZ6ZClg90nYUf9ZiSpr+19tvEZekGdwkdURq7ztpLRrEYnjV+pyUxSZqn/
iA==
-----END CERTIFICATE-----
