Certificate:
    Data:
        Version: 3 (0x2)
        Serial Number:
            f1:e5:63:55:83:37:1b:cd:2a:40:9d:91:06:dd:04:5d
        Signature Algorithm: sha256WithRSAEncryption
        Issuer: CN=team267-net
        Validity
            Not Before: Nov  4 10:45:38 2023 GMT
            Not After : Oct 19 10:45:38 2026 GMT
        Subject: CN=team267-server
        Subject Public Key Info:
            Public Key Algorithm: rsaEncryption
                Public-Key: (2048 bit)
                Modulus:
                    00:87:e2:e9:ce:b9:db:66:a5:43:4e:eb:cb:d4:59:
                    1a:f7:36:9e:f4:c9:c2:b2:39:80:84:49:17:17:11:
                    98:89:fc:0f:28:b3:ce:ba:f7:aa:01:2c:53:52:15:
                    72:04:21:4b:ac:69:1b:23:b7:3a:82:6d:37:c3:01:
                    ae:ee:fa:03:77:0d:99:18:b2:4d:62:fb:3f:c4:73:
                    9f:31:17:7d:9f:74:08:c8:e8:44:de:2a:88:be:74:
                    33:85:7d:dd:b6:c2:10:db:7d:88:dc:49:c0:85:b1:
                    a1:ac:d5:5b:30:53:0b:7f:56:f0:50:ef:b5:fa:37:
                    64:82:12:ed:fb:5b:06:58:3f:24:fe:e0:0e:78:40:
                    46:ad:aa:8e:54:38:a5:8a:6a:ff:d5:08:96:ba:8b:
                    a2:94:f9:68:0a:0d:1f:04:b8:19:2d:d1:df:e8:31:
                    ed:07:42:cd:b6:d3:4d:c1:d0:c2:88:98:d5:1a:8a:
                    78:b4:ac:72:4f:0c:5c:dd:98:34:14:ed:24:47:6f:
                    6a:e7:d4:80:ed:88:a7:2b:12:a2:30:05:59:ff:cf:
                    02:8a:94:25:a1:38:4b:d4:65:dd:f8:98:ea:39:f5:
                    05:79:ca:80:ec:5f:b1:72:1b:88:a9:66:d4:81:1e:
                    19:7c:2b:a8:42:2e:76:06:02:a7:1a:10:52:2b:2e:
                    34:0f
                Exponent: 65537 (0x10001)
        X509v3 extensions:
            X509v3 Basic Constraints: 
                CA:FALSE
            X509v3 Subject Key Identifier: 
                37:D9:39:C7:6E:70:9D:55:7D:EB:05:F5:44:54:E6:25:18:E1:B2:B8
            X509v3 Authority Key Identifier: 
                keyid:5F:C6:B6:23:71:59:97:8F:6A:C6:8D:EC:00:82:8E:86:E3:13:A0:A7
                DirName:/CN=team267-net
                serial:0A:E3:11:42:C5:41:EE:F9:3D:63:18:4A:22:98:7A:5C:4B:05:19:9B
            X509v3 Extended Key Usage: 
                TLS Web Server Authentication
            X509v3 Key Usage: 
                Digital Signature, Key Encipherment
            X509v3 Subject Alternative Name: 
                DNS:team267-server
    Signature Algorithm: sha256WithRSAEncryption
    Signature Value:
        14:1d:90:b7:0b:57:30:01:a2:1e:98:ed:0f:69:45:dd:0d:29:
        a4:d8:b2:3b:56:65:2b:5a:f1:26:58:da:a5:e1:d5:63:7c:1c:
        9e:27:a0:02:df:b2:fe:9f:5f:42:a4:aa:a1:d1:d3:ec:60:fb:
        44:85:b7:43:30:18:49:a0:5e:46:ba:6f:6c:7b:8b:f6:09:7f:
        15:56:3e:9a:7a:e4:d0:c6:bd:d9:de:4d:a8:31:f3:6b:5e:de:
        37:49:ea:1f:c0:02:0e:50:1c:73:92:e1:20:2a:95:b6:0e:91:
        5f:92:9a:4e:ef:ab:8e:58:d9:64:6f:4f:12:41:df:bd:67:90:
        d9:99:1d:d4:8c:4f:f5:36:db:47:c3:e2:20:ec:48:bb:d1:7d:
        39:96:26:84:af:51:d3:95:62:ae:62:3a:f2:97:64:66:c9:1a:
        75:00:df:a4:3a:80:c6:87:8a:de:50:4a:db:04:ea:37:a0:5e:
        29:d5:37:10:03:b3:bf:6c:cc:88:64:90:cc:27:8f:57:41:7d:
        3b:e9:cf:83:92:88:01:eb:c1:50:cc:e0:fb:36:9a:6b:38:9c:
        92:91:47:6c:43:31:43:42:d8:7e:78:f2:c8:f7:15:d4:d2:14:
        51:e8:26:53:b4:3d:70:51:74:e5:a5:bd:7b:d9:1c:75:f5:52:
        87:4b:77:fb
-----BEGIN CERTIFICATE-----
MIIDeDCCAmCgAwIBAgIRAPHlY1WDNxvNKkCdkQbdBF0wDQYJKoZIhvcNAQELBQAw
FjEUMBIGA1UEAwwLdGVhbTI2Ny1uZXQwHhcNMjMxMTA0MTA0NTM4WhcNMjYxMDE5
MTA0NTM4WjAZMRcwFQYDVQQDDA50ZWFtMjY3LXNlcnZlcjCCASIwDQYJKoZIhvcN
AQEBBQADggEPADCCAQoCggEBAIfi6c6522alQ07ry9RZGvc2nvTJwrI5gIRJFxcR
mIn8Dyizzrr3qgEsU1IVcgQhS6xpGyO3OoJtN8MBru76A3cNmRiyTWL7P8RznzEX
fZ90CMjoRN4qiL50M4V93bbCENt9iNxJwIWxoazVWzBTC39W8FDvtfo3ZIIS7ftb
Blg/JP7gDnhARq2qjlQ4pYpq/9UIlrqLopT5aAoNHwS4GS3R3+gx7QdCzbbTTcHQ
woiY1RqKeLSsck8MXN2YNBTtJEdvaufUgO2IpysSojAFWf/PAoqUJaE4S9Rl3fiY
6jn1BXnKgOxfsXIbiKlm1IEeGXwrqEIudgYCpxoQUisuNA8CAwEAAaOBvTCBujAJ
BgNVHRMEAjAAMB0GA1UdDgQWBBQ32TnHbnCdVX3rBfVEVOYlGOGyuDBRBgNVHSME
SjBIgBRfxrYjcVmXj2rGjewAgo6G4xOgp6EapBgwFjEUMBIGA1UEAwwLdGVhbTI2
Ny1uZXSCFArjEULFQe75PWMYSiKYelxLBRmbMBMGA1UdJQQMMAoGCCsGAQUFBwMB
MAsGA1UdDwQEAwIFoDAZBgNVHREEEjAQgg50ZWFtMjY3LXNlcnZlcjANBgkqhkiG
9w0BAQsFAAOCAQEAFB2QtwtXMAGiHpjtD2lF3Q0ppNiyO1ZlK1rxJljapeHVY3wc
niegAt+y/p9fQqSqodHT7GD7RIW3QzAYSaBeRrpvbHuL9gl/FVY+mnrk0Ma92d5N
qDHza17eN0nqH8ACDlAcc5LhICqVtg6RX5KaTu+rjljZZG9PEkHfvWeQ2Zkd1IxP
9TbbR8PiIOxIu9F9OZYmhK9R05VirmI68pdkZskadQDfpDqAxoeK3lBK2wTqN6Be
KdU3EAOzv2zMiGSQzCePV0F9O+nPg5KIAevBUMzg+zaaazickpFHbEMxQ0LYfnjy
yPcV1NIUUegmU7Q9cFF05aW9e9kcdfVSh0t3+w==
-----END CERTIFICATE-----
