Certificate:
    Data:
        Version: 3 (0x2)
        Serial Number:
            0f:ea:70:85:c3:85:08:f9:1d:dc:21:e6:ae:86:9c:d1
        Signature Algorithm: sha256WithRSAEncryption
        Issuer: CN=team8-net
        Validity
            Not Before: Nov  3 20:39:24 2023 GMT
            Not After : Oct 18 20:39:24 2026 GMT
        Subject: CN=team8-client
        Subject Public Key Info:
            Public Key Algorithm: rsaEncryption
                Public-Key: (2048 bit)
                Modulus:
                    00:c0:71:f6:9f:ac:c6:82:9f:7e:35:02:db:3b:4f:
                    05:f1:74:d0:b2:88:2e:53:10:7b:77:39:90:01:65:
                    1e:8e:78:b1:2b:ff:6e:cd:ac:ec:1c:c2:a4:2d:a9:
                    9f:20:62:24:87:d0:a4:7d:3d:cb:af:67:b5:41:04:
                    07:f9:fd:21:d2:41:cd:53:5b:27:62:94:00:cf:15:
                    03:46:4c:87:34:f8:60:dc:96:c7:89:9c:aa:1d:5c:
                    b6:a1:42:c0:1d:ac:4a:31:cd:7b:f7:f7:b2:1b:d9:
                    20:9b:93:ef:30:53:63:9b:91:7b:be:af:ef:f1:b8:
                    4a:a2:70:c9:2d:49:6a:ad:ba:63:2e:1e:a5:b4:bc:
                    6b:ed:08:2d:23:c8:99:79:84:f5:33:c7:22:4f:e0:
                    ef:d4:c8:33:fa:95:0a:5d:37:d0:90:23:7e:dc:29:
                    11:b6:c9:14:48:0f:6c:2e:68:42:09:85:f2:02:6c:
                    ff:da:55:6e:6f:d5:ad:5c:3d:9a:fb:38:da:c2:50:
                    74:2c:84:5d:7d:ef:60:77:c0:1c:e8:af:d7:df:d2:
                    07:68:dc:75:35:a4:33:87:62:b6:8f:6a:e2:da:fe:
                    a0:17:72:68:1d:18:09:42:58:07:41:fd:6b:c0:02:
                    b1:ae:fc:23:7d:3e:7d:c0:3b:16:70:91:3d:8a:ff:
                    92:a9
                Exponent: 65537 (0x10001)
        X509v3 extensions:
            X509v3 Basic Constraints: 
                CA:FALSE
            X509v3 Subject Key Identifier: 
                0D:AA:1B:2A:CA:CC:15:5F:E2:17:13:48:D7:30:BE:44:E5:E6:2D:25
            X509v3 Authority Key Identifier: 
                keyid:3F:D4:B0:54:C7:BC:95:A4:75:A6:1F:8B:5A:EB:F9:63:24:6D:24:D3
                DirName:/CN=team8-net
                serial:23:0A:1B:7F:C8:A9:92:F1:4E:49:04:56:DC:55:A8:D9:78:1C:9E:CC
            X509v3 Extended Key Usage: 
                TLS Web Client Authentication
            X509v3 Key Usage: 
                Digital Signature
    Signature Algorithm: sha256WithRSAEncryption
    Signature Value:
        85:af:96:d5:dc:af:6f:03:f5:88:ac:ee:ea:2d:86:70:7b:64:
        ca:59:f0:15:92:9f:83:0b:a4:d9:a0:f1:9c:0d:00:f2:97:8f:
        69:61:49:5d:0d:69:c6:00:b5:5e:88:ee:08:3c:2d:e3:da:a8:
        0e:08:85:e9:e1:f1:dc:9d:0d:b7:ff:ce:07:86:c3:d3:c9:92:
        73:da:93:d6:b8:6d:6c:dc:16:18:7d:97:ce:63:6d:af:ae:f3:
        23:77:9c:88:78:43:7e:64:9a:e0:1b:20:bf:7e:14:61:fb:7d:
        05:78:d6:6b:7b:37:d5:8a:e5:cb:b6:bf:05:b8:46:dd:bf:dc:
        3f:ad:7d:9b:77:5b:17:b3:29:a4:52:59:81:69:8b:20:b4:77:
        71:9d:cd:ac:a9:4f:74:82:19:11:b2:40:64:19:c9:9e:c8:d0:
        9f:1d:b7:cf:0e:8e:73:ce:1b:95:be:67:76:99:4d:b0:b4:b2:
        db:9f:da:d9:89:4e:33:a1:53:cf:58:2a:f7:db:ef:6d:d3:35:
        e5:75:0a:25:2d:7a:e6:fb:f5:7b:10:e1:c9:d2:a6:dd:66:17:
        8a:da:22:b7:58:c9:9b:52:0a:40:e1:0f:1d:10:ea:8f:7a:05:
        3c:21:f7:50:21:18:40:02:7f:3b:66:25:63:fa:c4:53:1b:74:
        e7:97:c8:cc
-----BEGIN CERTIFICATE-----
MIIDVjCCAj6gAwIBAgIQD+pwhcOFCPkd3CHmroac0TANBgkqhkiG9w0BAQsFADAU
MRIwEAYDVQQDDAl0ZWFtOC1uZXQwHhcNMjMxMTAzMjAzOTI0WhcNMjYxMDE4MjAz
OTI0WjAXMRUwEwYDVQQDDAx0ZWFtOC1jbGllbnQwggEiMA0GCSqGSIb3DQEBAQUA
A4IBDwAwggEKAoIBAQDAcfafrMaCn341Ats7TwXxdNCyiC5TEHt3OZABZR6OeLEr
/27NrOwcwqQtqZ8gYiSH0KR9PcuvZ7VBBAf5/SHSQc1TWydilADPFQNGTIc0+GDc
lseJnKodXLahQsAdrEoxzXv397Ib2SCbk+8wU2ObkXu+r+/xuEqicMktSWqtumMu
HqW0vGvtCC0jyJl5hPUzxyJP4O/UyDP6lQpdN9CQI37cKRG2yRRID2wuaEIJhfIC
bP/aVW5v1a1cPZr7ONrCUHQshF1972B3wBzor9ff0gdo3HU1pDOHYraPauLa/qAX
cmgdGAlCWAdB/WvAArGu/CN9Pn3AOxZwkT2K/5KpAgMBAAGjgaAwgZ0wCQYDVR0T
BAIwADAdBgNVHQ4EFgQUDaobKsrMFV/iFxNI1zC+ROXmLSUwTwYDVR0jBEgwRoAU
P9SwVMe8laR1ph+LWuv5YyRtJNOhGKQWMBQxEjAQBgNVBAMMCXRlYW04LW5ldIIU
Iwobf8ipkvFOSQRW3FWo2XgcnswwEwYDVR0lBAwwCgYIKwYBBQUHAwIwCwYDVR0P
BAQDAgeAMA0GCSqGSIb3DQEBCwUAA4IBAQCFr5bV3K9vA/WIrO7qLYZwe2TKWfAV
kp+DC6TZoPGcDQDyl49pYUldDWnGALVeiO4IPC3j2qgOCIXp4fHcnQ23/84HhsPT
yZJz2pPWuG1s3BYYfZfOY22vrvMjd5yIeEN+ZJrgGyC/fhRh+30FeNZrezfViuXL
tr8FuEbdv9w/rX2bd1sXsymkUlmBaYsgtHdxnc2sqU90ghkRskBkGcmeyNCfHbfP
Do5zzhuVvmd2mU2wtLLbn9rZiU4zoVPPWCr32+9t0zXldQolLXrm+/V7EOHJ0qbd
ZheK2iK3WMmbUgpA4Q8dEOqPegU8IfdQIRhAAn87ZiVj+sRTG3Tnl8jM
-----END CERTIFICATE-----
