Certificate:
    Data:
        Version: 3 (0x2)
        Serial Number:
            4a:e8:1b:9b:4f:19:8a:fa:88:3c:2d:b2:28:19:1b:08
        Signature Algorithm: sha256WithRSAEncryption
        Issuer: CN=team8-net
        Validity
            Not Before: Oct 31 16:30:17 2023 GMT
            Not After : Oct 15 16:30:17 2026 GMT
        Subject: CN=team8-server
        Subject Public Key Info:
            Public Key Algorithm: rsaEncryption
                Public-Key: (2048 bit)
                Modulus:
                    00:ad:b8:1d:cd:d7:29:ea:43:df:f2:80:18:c1:d7:
                    5f:85:d2:a7:44:6f:f8:d4:de:85:55:47:d9:65:86:
                    f9:a0:cb:c7:d9:fa:24:ec:c9:9d:1f:e3:b9:78:64:
                    10:b0:a6:7d:fe:2b:86:24:f0:76:cc:28:e6:49:25:
                    08:4e:4e:dc:df:88:d4:13:9f:f0:ad:16:de:57:c2:
                    21:6d:b1:17:31:9e:d2:1e:9c:0e:fa:6d:12:13:97:
                    34:99:64:6e:52:9e:5f:cb:01:f2:f8:77:3c:46:4e:
                    23:6e:53:db:41:ad:70:ff:6b:be:e9:dd:36:9f:f1:
                    10:8a:92:d3:32:4d:0e:62:7c:fc:3b:0b:3f:ad:27:
                    1b:da:e1:af:0a:39:a7:5a:77:48:56:87:36:15:67:
                    b1:6a:a3:08:b5:3e:bd:1b:af:e9:51:ae:bf:f6:85:
                    1d:d4:62:25:06:a5:c2:fe:62:9e:7d:b9:c3:14:70:
                    1f:b5:b2:75:92:82:3e:9a:67:6f:84:b6:a2:77:6e:
                    fd:df:2a:ce:83:c9:88:a1:77:01:85:5a:6a:34:04:
                    2a:9a:3d:0b:0d:a2:05:27:f8:af:18:a2:65:dc:e5:
                    11:9d:a8:42:79:80:17:0a:a9:8f:b2:3a:99:5a:90:
                    92:70:ed:1a:07:00:06:eb:cb:ea:a6:23:b4:1d:10:
                    49:f9
                Exponent: 65537 (0x10001)
        X509v3 extensions:
            X509v3 Basic Constraints: 
                CA:FALSE
            X509v3 Subject Key Identifier: 
                90:C5:B7:AD:B9:2E:8F:F5:33:BA:E7:C8:77:86:67:99:52:87:06:36
            X509v3 Authority Key Identifier: 
                keyid:9D:B5:57:0C:EB:A4:7F:97:FB:47:DD:84:41:90:8A:58:C7:F5:23:49
                DirName:/CN=team8-net
                serial:7C:8C:D3:ED:16:67:54:D8:DF:AA:60:58:AB:9E:2A:E0:38:86:40:86
            X509v3 Extended Key Usage: 
                TLS Web Server Authentication
            X509v3 Key Usage: 
                Digital Signature, Key Encipherment
            X509v3 Subject Alternative Name: 
                DNS:team8-server
    Signature Algorithm: sha256WithRSAEncryption
    Signature Value:
        55:af:fd:82:8e:13:3e:a6:c9:13:11:15:12:7d:3e:7c:66:db:
        f8:5b:0a:b3:b8:c5:4b:b4:5d:49:3b:c8:e8:36:54:da:dd:b7:
        06:38:a8:e4:12:ee:3b:06:86:bd:90:a0:f0:1b:f4:c8:e4:ae:
        56:b4:67:b1:25:e5:a6:8b:1c:4b:88:e8:1a:00:e5:9d:c2:7c:
        d3:a8:61:5a:d0:65:5b:b6:a1:be:dc:ee:c7:79:2b:b9:fd:7b:
        d5:bc:bf:46:fc:53:dd:eb:fd:48:f4:30:64:3f:34:13:fa:aa:
        8b:ab:16:2f:b4:f0:3c:3f:4b:10:7b:9b:5b:4c:37:a5:cf:83:
        6f:2b:16:a4:23:39:b6:c6:bf:ce:18:02:d5:0d:f3:d9:92:62:
        25:85:4f:99:0a:71:ce:dc:95:95:ca:8d:2e:55:f8:89:7f:2c:
        ad:36:86:49:3f:d9:d1:cb:ca:50:05:28:8e:51:86:55:33:e6:
        82:81:28:ad:eb:4a:71:07:14:be:9b:85:03:ce:14:89:03:53:
        f9:ae:6b:97:7c:78:59:9a:15:4f:e8:e6:36:0b:e2:c4:50:15:
        bf:ab:65:3d:0e:0e:5d:a4:e0:77:f5:cb:b0:21:33:24:2a:7b:
        b9:56:5d:6f:da:52:8f:40:73:23:3b:c3:c8:99:75:c6:aa:13:
        6d:8d:1a:95
-----BEGIN CERTIFICATE-----
MIIDbzCCAlegAwIBAgIQSugbm08ZivqIPC2yKBkbCDANBgkqhkiG9w0BAQsFADAU
MRIwEAYDVQQDDAl0ZWFtOC1uZXQwHhcNMjMxMDMxMTYzMDE3WhcNMjYxMDE1MTYz
MDE3WjAXMRUwEwYDVQQDDAx0ZWFtOC1zZXJ2ZXIwggEiMA0GCSqGSIb3DQEBAQUA
A4IBDwAwggEKAoIBAQCtuB3N1ynqQ9/ygBjB11+F0qdEb/jU3oVVR9llhvmgy8fZ
+iTsyZ0f47l4ZBCwpn3+K4Yk8HbMKOZJJQhOTtzfiNQTn/CtFt5XwiFtsRcxntIe
nA76bRITlzSZZG5Snl/LAfL4dzxGTiNuU9tBrXD/a77p3Taf8RCKktMyTQ5ifPw7
Cz+tJxva4a8KOadad0hWhzYVZ7Fqowi1Pr0br+lRrr/2hR3UYiUGpcL+Yp59ucMU
cB+1snWSgj6aZ2+EtqJ3bv3fKs6DyYihdwGFWmo0BCqaPQsNogUn+K8YomXc5RGd
qEJ5gBcKqY+yOplakJJw7RoHAAbry+qmI7QdEEn5AgMBAAGjgbkwgbYwCQYDVR0T
BAIwADAdBgNVHQ4EFgQUkMW3rbkuj/UzuufId4ZnmVKHBjYwTwYDVR0jBEgwRoAU
nbVXDOukf5f7R92EQZCKWMf1I0mhGKQWMBQxEjAQBgNVBAMMCXRlYW04LW5ldIIU
fIzT7RZnVNjfqmBYq54q4DiGQIYwEwYDVR0lBAwwCgYIKwYBBQUHAwEwCwYDVR0P
BAQDAgWgMBcGA1UdEQQQMA6CDHRlYW04LXNlcnZlcjANBgkqhkiG9w0BAQsFAAOC
AQEAVa/9go4TPqbJExEVEn0+fGbb+FsKs7jFS7RdSTvI6DZU2t23Bjio5BLuOwaG
vZCg8Bv0yOSuVrRnsSXlposcS4joGgDlncJ806hhWtBlW7ahvtzux3kruf171by/
RvxT3ev9SPQwZD80E/qqi6sWL7TwPD9LEHubW0w3pc+DbysWpCM5tsa/zhgC1Q3z
2ZJiJYVPmQpxztyVlcqNLlX4iX8srTaGST/Z0cvKUAUojlGGVTPmgoEoretKcQcU
vpuFA84UiQNT+a5rl3x4WZoVT+jmNgvixFAVv6tlPQ4OXaTgd/XLsCEzJCp7uVZd
b9pSj0BzIzvDyJl1xqoTbY0alQ==
-----END CERTIFICATE-----
