Certificate:
    Data:
        Version: 3 (0x2)
        Serial Number:
            a1:07:a1:2f:5b:17:50:59:07:11:0e:2e:06:df:e2:80
        Signature Algorithm: sha256WithRSAEncryption
        Issuer: CN=team8-net
        Validity
            Not Before: Nov  4 11:27:33 2023 GMT
            Not After : Oct 19 11:27:33 2026 GMT
        Subject: CN=team8-server
        Subject Public Key Info:
            Public Key Algorithm: rsaEncryption
                Public-Key: (2048 bit)
                Modulus:
                    00:d7:ac:9a:53:10:97:3e:5d:6a:53:83:ce:ba:7e:
                    02:0d:51:54:40:05:9c:5c:94:98:d4:ac:65:e3:75:
                    76:28:67:ea:e7:d5:75:e9:90:74:9c:4d:7c:b5:c5:
                    26:39:45:9b:ce:51:27:da:99:25:cb:3d:ab:4f:d6:
                    fc:94:15:88:ba:31:d9:23:b5:c4:1d:fb:15:06:85:
                    3f:e3:28:d8:a7:06:03:c0:ca:93:34:a6:43:3e:dc:
                    48:d3:d6:6e:03:ac:9f:ce:1f:28:60:3f:8a:5f:41:
                    5a:f5:1e:35:95:01:74:9d:e4:9a:3f:db:0f:da:81:
                    74:93:a8:8d:3a:bb:ca:1a:72:06:16:ce:4f:c3:1e:
                    b0:b9:0b:55:24:4e:3a:ea:c5:5d:a7:65:dd:46:4d:
                    46:df:b0:0f:fe:f5:41:e9:83:64:7f:2a:02:d8:fd:
                    8f:65:dd:ac:53:13:1f:3e:b9:b2:42:15:a9:55:dc:
                    c7:51:57:12:b1:7b:f5:19:ed:d8:7e:07:21:5a:65:
                    9c:83:43:99:5c:60:f8:37:b4:97:c4:ba:07:34:43:
                    48:ed:7a:ef:8b:f9:e0:e9:13:a1:cc:99:a1:a5:a4:
                    ea:57:29:6d:ed:06:36:8a:1d:0e:ca:be:50:49:48:
                    df:e3:ba:2a:50:bf:e7:08:10:4b:28:5d:27:ba:d8:
                    33:fd
                Exponent: 65537 (0x10001)
        X509v3 extensions:
            X509v3 Basic Constraints: 
                CA:FALSE
            X509v3 Subject Key Identifier: 
                AE:0A:07:AC:F4:E5:7F:FC:28:55:07:B0:40:C4:7F:2F:DE:FD:47:41
            X509v3 Authority Key Identifier: 
                keyid:C6:3A:4F:75:F3:2D:51:4D:E6:38:D3:E5:91:64:33:A3:49:BB:F1:57
                DirName:/CN=team8-net
                serial:79:9F:E9:B3:D6:24:28:94:4D:11:6C:E5:8C:DB:AC:A2:72:8F:5F:85
            X509v3 Extended Key Usage: 
                TLS Web Server Authentication
            X509v3 Key Usage: 
                Digital Signature, Key Encipherment
            X509v3 Subject Alternative Name: 
                DNS:team8-server
    Signature Algorithm: sha256WithRSAEncryption
    Signature Value:
        70:04:5c:e9:11:60:25:de:7c:d1:55:62:9a:bc:b0:cc:1c:cc:
        1a:64:4e:39:f2:5a:d1:b7:df:36:c3:d7:d0:d0:fd:ef:5a:3b:
        0b:ad:ec:37:ee:49:e5:c2:e5:78:23:02:f8:9a:44:7d:ae:f3:
        c6:d5:15:04:d5:96:f3:67:9f:99:27:d9:79:d3:79:d9:95:73:
        f9:f9:fc:6e:60:44:02:f9:7c:00:c1:f5:1f:78:b2:80:08:4c:
        88:7c:10:20:50:3c:c7:33:c1:a9:b9:c3:20:2a:9e:3c:4e:2d:
        e4:9a:de:fa:86:6e:6a:d1:53:aa:e1:96:c0:5f:19:e3:86:b8:
        dc:f1:ba:dc:1e:79:7f:2f:17:e2:54:d4:42:d9:8b:70:4f:d5:
        21:66:3f:4b:26:e8:0b:0b:43:06:57:e4:cf:3a:52:d9:8f:c5:
        d8:5a:dc:d5:24:6c:38:41:80:af:36:fc:ef:7a:72:28:6d:30:
        db:53:67:3b:4c:d6:b1:e3:10:76:ae:40:d8:bd:48:f3:76:52:
        d0:b1:f4:ea:7e:6d:6f:d8:b7:2a:63:59:c2:ff:14:76:33:83:
        a9:86:0d:eb:6e:f7:8d:6a:f1:80:5b:c2:53:f4:b0:50:3d:a5:
        6c:13:db:02:19:64:71:af:e2:30:db:9d:55:44:20:5f:d5:94:
        ab:e3:94:6c
-----BEGIN CERTIFICATE-----
MIIDcDCCAligAwIBAgIRAKEHoS9bF1BZBxEOLgbf4oAwDQYJKoZIhvcNAQELBQAw
FDESMBAGA1UEAwwJdGVhbTgtbmV0MB4XDTIzMTEwNDExMjczM1oXDTI2MTAxOTEx
MjczM1owFzEVMBMGA1UEAwwMdGVhbTgtc2VydmVyMIIBIjANBgkqhkiG9w0BAQEF
AAOCAQ8AMIIBCgKCAQEA16yaUxCXPl1qU4POun4CDVFUQAWcXJSY1Kxl43V2KGfq
59V16ZB0nE18tcUmOUWbzlEn2pklyz2rT9b8lBWIujHZI7XEHfsVBoU/4yjYpwYD
wMqTNKZDPtxI09ZuA6yfzh8oYD+KX0Fa9R41lQF0neSaP9sP2oF0k6iNOrvKGnIG
Fs5Pwx6wuQtVJE466sVdp2XdRk1G37AP/vVB6YNkfyoC2P2PZd2sUxMfPrmyQhWp
VdzHUVcSsXv1Ge3YfgchWmWcg0OZXGD4N7SXxLoHNENI7Xrvi/ng6ROhzJmhpaTq
Vylt7QY2ih0Oyr5QSUjf47oqUL/nCBBLKF0nutgz/QIDAQABo4G5MIG2MAkGA1Ud
EwQCMAAwHQYDVR0OBBYEFK4KB6z05X/8KFUHsEDEfy/e/UdBME8GA1UdIwRIMEaA
FMY6T3XzLVFN5jjT5ZFkM6NJu/FXoRikFjAUMRIwEAYDVQQDDAl0ZWFtOC1uZXSC
FHmf6bPWJCiUTRFs5YzbrKJyj1+FMBMGA1UdJQQMMAoGCCsGAQUFBwMBMAsGA1Ud
DwQEAwIFoDAXBgNVHREEEDAOggx0ZWFtOC1zZXJ2ZXIwDQYJKoZIhvcNAQELBQAD
ggEBAHAEXOkRYCXefNFVYpq8sMwczBpkTjnyWtG33zbD19DQ/e9aOwut7DfuSeXC
5XgjAviaRH2u88bVFQTVlvNnn5kn2XnTedmVc/n5/G5gRAL5fADB9R94soAITIh8
ECBQPMczwam5wyAqnjxOLeSa3vqGbmrRU6rhlsBfGeOGuNzxutweeX8vF+JU1ELZ
i3BP1SFmP0sm6AsLQwZX5M86UtmPxdha3NUkbDhBgK82/O96cihtMNtTZztM1rHj
EHauQNi9SPN2UtCx9Op+bW/YtypjWcL/FHYzg6mGDetu941q8YBbwlP0sFA9pWwT
2wIZZHGv4jDbnVVEIF/VlKvjlGw=
-----END CERTIFICATE-----
