Certificate:
    Data:
        Version: 3 (0x2)
        Serial Number:
            bf:e7:47:ef:da:53:7d:ae:c2:60:48:8a:28:d3:2b:91
        Signature Algorithm: sha256WithRSAEncryption
        Issuer: CN=team8-net
        Validity
            Not Before: Nov  4 10:40:22 2023 GMT
            Not After : Oct 19 10:40:22 2026 GMT
        Subject: CN=team8-client
        Subject Public Key Info:
            Public Key Algorithm: rsaEncryption
                Public-Key: (2048 bit)
                Modulus:
                    00:c3:f6:b9:86:3c:11:c4:5a:34:d1:7e:21:b1:76:
                    3f:68:35:eb:03:80:d6:c2:ea:5d:58:05:d9:86:58:
                    9c:a4:88:a1:9d:76:5e:16:69:9e:ab:b2:80:eb:a7:
                    f6:1b:9b:9f:43:9f:85:7d:64:f4:b2:77:20:8f:e3:
                    17:8e:12:61:87:2c:cc:41:cd:b2:59:eb:2f:ae:46:
                    85:5d:a8:a1:ca:8c:1f:b3:3e:6b:db:e7:f5:d7:12:
                    f2:4e:ee:92:4c:41:c3:63:82:85:31:d2:7d:bd:82:
                    fd:43:e9:65:6c:f3:fb:68:15:22:82:6b:3b:cc:df:
                    57:fd:28:4c:72:28:74:cb:08:cc:95:d9:86:a9:91:
                    48:a1:63:c3:0f:7c:43:9a:53:47:8e:2c:bd:32:32:
                    a9:bf:68:e4:6d:42:1e:87:fb:5f:e0:fd:0c:2a:56:
                    44:56:6d:a1:74:a2:72:40:c5:6e:b5:d2:30:94:fb:
                    67:01:c8:8a:52:c0:28:27:38:58:fb:03:8a:9c:ee:
                    33:bf:7a:ee:fd:ff:71:2a:6e:8d:9b:21:c1:60:a6:
                    16:69:d8:49:28:7c:6f:c6:99:3a:c8:44:32:77:77:
                    d6:14:8c:77:69:5e:a3:a4:42:51:59:87:81:85:e8:
                    a6:68:31:88:37:1e:0b:e6:fb:59:29:10:32:a5:29:
                    25:c5
                Exponent: 65537 (0x10001)
        X509v3 extensions:
            X509v3 Basic Constraints: 
                CA:FALSE
            X509v3 Subject Key Identifier: 
                4D:BA:48:EA:91:47:18:23:D8:8A:CA:50:FF:0F:49:11:0A:22:04:65
            X509v3 Authority Key Identifier: 
                keyid:2B:43:92:FB:44:F4:7C:F2:23:32:23:92:44:36:E4:23:F3:8E:D5:8F
                DirName:/CN=team8-net
                serial:15:88:B7:4F:05:E5:00:FD:A5:7E:47:1F:B8:1C:E0:93:F8:30:44:3F
            X509v3 Extended Key Usage: 
                TLS Web Client Authentication
            X509v3 Key Usage: 
                Digital Signature
    Signature Algorithm: sha256WithRSAEncryption
    Signature Value:
        42:4a:47:20:48:53:f5:c1:3d:9a:01:2c:4d:1f:42:34:d4:ed:
        86:56:6e:dc:a4:23:d9:ec:69:64:fa:a8:db:14:cf:8f:4e:f5:
        e2:19:91:bb:b2:b0:68:6d:4b:fc:81:2e:1c:bf:d3:5f:07:82:
        8e:ff:42:11:77:6c:6a:ad:f1:87:ff:cc:57:31:a5:d1:10:4a:
        99:9a:69:4a:14:d4:1e:11:42:4d:f4:e8:21:6c:69:37:6d:04:
        2e:a1:92:5e:7b:ad:80:36:ff:da:9e:25:5a:3c:a8:47:9b:2a:
        41:3c:c9:8b:ef:0c:0f:4c:3c:ef:25:4e:ee:a7:b5:ce:3e:b2:
        42:46:81:65:e6:3c:c7:76:16:15:28:43:5b:7e:ff:7d:37:44:
        28:b5:50:07:c5:3a:ae:70:da:5a:d7:84:9e:6a:5f:2c:ae:21:
        c6:31:09:1f:fe:cf:80:83:77:0d:85:d3:fc:59:4a:09:85:65:
        38:a1:5b:95:b0:94:09:5f:ab:91:7d:42:ed:d8:7a:7a:ad:4d:
        d9:0e:49:b0:44:e0:2a:57:37:7b:35:c2:58:e2:93:68:b1:1a:
        5b:83:ef:03:9c:4c:0e:19:c1:36:fe:12:e9:e2:9d:f2:2b:9d:
        ac:aa:07:d1:db:15:b6:4a:ea:2d:74:a5:98:50:b3:6d:bc:e6:
        2d:d7:d6:6e
-----BEGIN CERTIFICATE-----
MIIDVzCCAj+gAwIBAgIRAL/nR+/aU32uwmBIiijTK5EwDQYJKoZIhvcNAQELBQAw
FDESMBAGA1UEAwwJdGVhbTgtbmV0MB4XDTIzMTEwNDEwNDAyMloXDTI2MTAxOTEw
NDAyMlowFzEVMBMGA1UEAwwMdGVhbTgtY2xpZW50MIIBIjANBgkqhkiG9w0BAQEF
AAOCAQ8AMIIBCgKCAQEAw/a5hjwRxFo00X4hsXY/aDXrA4DWwupdWAXZhlicpIih
nXZeFmmeq7KA66f2G5ufQ5+FfWT0sncgj+MXjhJhhyzMQc2yWesvrkaFXaihyowf
sz5r2+f11xLyTu6STEHDY4KFMdJ9vYL9Q+llbPP7aBUigms7zN9X/ShMcih0ywjM
ldmGqZFIoWPDD3xDmlNHjiy9MjKpv2jkbUIeh/tf4P0MKlZEVm2hdKJyQMVutdIw
lPtnAciKUsAoJzhY+wOKnO4zv3ru/f9xKm6NmyHBYKYWadhJKHxvxpk6yEQyd3fW
FIx3aV6jpEJRWYeBheimaDGINx4L5vtZKRAypSklxQIDAQABo4GgMIGdMAkGA1Ud
EwQCMAAwHQYDVR0OBBYEFE26SOqRRxgj2IrKUP8PSREKIgRlME8GA1UdIwRIMEaA
FCtDkvtE9HzyIzIjkkQ25CPzjtWPoRikFjAUMRIwEAYDVQQDDAl0ZWFtOC1uZXSC
FBWIt08F5QD9pX5HH7gc4JP4MEQ/MBMGA1UdJQQMMAoGCCsGAQUFBwMCMAsGA1Ud
DwQEAwIHgDANBgkqhkiG9w0BAQsFAAOCAQEAQkpHIEhT9cE9mgEsTR9CNNTthlZu
3KQj2expZPqo2xTPj0714hmRu7KwaG1L/IEuHL/TXweCjv9CEXdsaq3xh//MVzGl
0RBKmZppShTUHhFCTfToIWxpN20ELqGSXnutgDb/2p4lWjyoR5sqQTzJi+8MD0w8
7yVO7qe1zj6yQkaBZeY8x3YWFShDW37/fTdEKLVQB8U6rnDaWteEnmpfLK4hxjEJ
H/7PgIN3DYXT/FlKCYVlOKFblbCUCV+rkX1C7dh6eq1N2Q5JsETgKlc3ezXCWOKT
aLEaW4PvA5xMDhnBNv4S6eKd8iudrKoH0dsVtkrqLXSlmFCzbbzmLdfWbg==
-----END CERTIFICATE-----
