Certificate:
    Data:
        Version: 3 (0x2)
        Serial Number:
            c9:ee:09:8f:55:3e:10:94:00:3a:a0:09:a5:89:46:49
        Signature Algorithm: sha256WithRSAEncryption
        Issuer: CN=team8-net
        Validity
            Not Before: Nov  4 11:27:33 2023 GMT
            Not After : Oct 19 11:27:33 2026 GMT
        Subject: CN=team8-client
        Subject Public Key Info:
            Public Key Algorithm: rsaEncryption
                Public-Key: (2048 bit)
                Modulus:
                    00:be:11:7e:a5:4a:ed:22:cd:ce:d3:89:ae:36:9f:
                    57:2c:25:91:55:f0:68:eb:02:0d:b7:9c:f1:8b:97:
                    6b:97:60:c1:52:37:27:ed:ac:57:11:1e:bf:ea:b7:
                    0d:d7:ef:f7:40:cc:cf:d3:53:5d:5e:49:d4:4b:2a:
                    6b:15:d6:41:c2:1c:00:31:a2:da:0e:b8:02:ea:fd:
                    b6:38:31:38:33:64:50:cf:ca:03:03:b6:04:f8:68:
                    68:25:5b:ca:e5:02:ed:da:81:30:ad:d7:c0:f9:ae:
                    41:27:fd:9e:95:8e:16:ed:e9:5d:f4:81:ee:59:24:
                    91:76:cf:e3:b1:e6:8a:ae:76:e2:a5:30:a1:1c:29:
                    05:20:45:4a:0d:f2:53:cf:6f:d3:1e:ae:14:ea:aa:
                    b6:3f:f6:75:31:dc:7d:bf:86:46:24:d0:1b:da:bb:
                    80:88:dd:d5:9f:2d:36:44:77:b5:ee:1f:76:ee:b9:
                    6c:12:e4:7b:11:f2:ed:0d:a4:87:b1:1b:3e:7e:af:
                    a5:9d:9f:20:31:a4:77:58:ea:14:86:61:84:9a:c5:
                    3c:6d:35:44:a1:7a:5e:34:6f:92:b4:87:13:26:a7:
                    02:e3:e7:ac:06:33:d8:21:72:c1:7b:15:17:87:d6:
                    07:12:10:bf:44:b9:3c:33:63:e0:60:34:b0:a9:2c:
                    ab:dd
                Exponent: 65537 (0x10001)
        X509v3 extensions:
            X509v3 Basic Constraints: 
                CA:FALSE
            X509v3 Subject Key Identifier: 
                27:BD:F6:4E:E4:71:5A:74:24:90:5A:7D:59:63:9B:6C:95:D5:21:32
            X509v3 Authority Key Identifier: 
                keyid:C6:3A:4F:75:F3:2D:51:4D:E6:38:D3:E5:91:64:33:A3:49:BB:F1:57
                DirName:/CN=team8-net
                serial:79:9F:E9:B3:D6:24:28:94:4D:11:6C:E5:8C:DB:AC:A2:72:8F:5F:85
            X509v3 Extended Key Usage: 
                TLS Web Client Authentication
            X509v3 Key Usage: 
                Digital Signature
    Signature Algorithm: sha256WithRSAEncryption
    Signature Value:
        31:36:b4:9d:10:c9:65:0e:fb:41:bd:6a:6b:cc:13:13:8d:db:
        20:b0:fb:21:47:fd:9c:20:cb:b4:80:3c:b7:1b:b0:06:11:93:
        0d:b5:19:6e:d9:3c:e8:76:1a:cd:d8:61:1b:3d:e2:2d:97:1b:
        f7:43:3e:56:c7:ba:64:bc:6d:73:8a:45:5f:68:40:03:45:a5:
        d8:37:3b:41:00:4c:1a:09:ab:20:1d:4e:c4:a0:5b:ce:83:29:
        3a:5b:f9:2c:10:bd:2b:57:e4:09:c7:30:16:a7:ea:f4:d8:7b:
        3f:e8:fa:62:bf:78:47:65:b5:64:d0:02:27:ff:55:e4:ff:89:
        0a:aa:2e:f6:72:a1:7d:4d:52:e5:ba:45:5b:75:41:0b:69:fe:
        1a:85:42:75:9b:f3:3d:15:b7:e5:8e:3e:ca:38:33:d8:9b:49:
        be:87:7f:e9:0d:cd:f6:44:83:43:9e:9b:7a:1f:c4:69:b6:dc:
        ab:9a:de:a2:c3:88:f1:3e:db:0f:7a:4e:23:2b:80:03:55:33:
        96:4d:2d:f4:b0:5d:1b:b4:db:30:2e:d9:92:dc:ff:78:9d:56:
        44:67:17:7c:d7:7f:0b:9b:29:b4:ae:cb:4c:6a:23:e5:2d:84:
        58:86:6b:fc:11:bd:71:4b:4a:b2:cc:57:06:47:53:85:f0:43:
        6d:01:d1:64
-----BEGIN CERTIFICATE-----
MIIDVzCCAj+gAwIBAgIRAMnuCY9VPhCUADqgCaWJRkkwDQYJKoZIhvcNAQELBQAw
FDESMBAGA1UEAwwJdGVhbTgtbmV0MB4XDTIzMTEwNDExMjczM1oXDTI2MTAxOTEx
MjczM1owFzEVMBMGA1UEAwwMdGVhbTgtY2xpZW50MIIBIjANBgkqhkiG9w0BAQEF
AAOCAQ8AMIIBCgKCAQEAvhF+pUrtIs3O04muNp9XLCWRVfBo6wINt5zxi5drl2DB
Ujcn7axXER6/6rcN1+/3QMzP01NdXknUSyprFdZBwhwAMaLaDrgC6v22ODE4M2RQ
z8oDA7YE+GhoJVvK5QLt2oEwrdfA+a5BJ/2elY4W7eld9IHuWSSRds/jseaKrnbi
pTChHCkFIEVKDfJTz2/THq4U6qq2P/Z1Mdx9v4ZGJNAb2ruAiN3Vny02RHe17h92
7rlsEuR7EfLtDaSHsRs+fq+lnZ8gMaR3WOoUhmGEmsU8bTVEoXpeNG+StIcTJqcC
4+esBjPYIXLBexUXh9YHEhC/RLk8M2PgYDSwqSyr3QIDAQABo4GgMIGdMAkGA1Ud
EwQCMAAwHQYDVR0OBBYEFCe99k7kcVp0JJBafVljm2yV1SEyME8GA1UdIwRIMEaA
FMY6T3XzLVFN5jjT5ZFkM6NJu/FXoRikFjAUMRIwEAYDVQQDDAl0ZWFtOC1uZXSC
FHmf6bPWJCiUTRFs5YzbrKJyj1+FMBMGA1UdJQQMMAoGCCsGAQUFBwMCMAsGA1Ud
DwQEAwIHgDANBgkqhkiG9w0BAQsFAAOCAQEAMTa0nRDJZQ77Qb1qa8wTE43bILD7
IUf9nCDLtIA8txuwBhGTDbUZbtk86HYazdhhGz3iLZcb90M+Vse6ZLxtc4pFX2hA
A0Wl2Dc7QQBMGgmrIB1OxKBbzoMpOlv5LBC9K1fkCccwFqfq9Nh7P+j6Yr94R2W1
ZNACJ/9V5P+JCqou9nKhfU1S5bpFW3VBC2n+GoVCdZvzPRW35Y4+yjgz2JtJvod/
6Q3N9kSDQ56beh/Eabbcq5reosOI8T7bD3pOIyuAA1Uzlk0t9LBdG7TbMC7Zktz/
eJ1WRGcXfNd/C5sptK7LTGoj5S2EWIZr/BG9cUtKssxXBkdThfBDbQHRZA==
-----END CERTIFICATE-----
