Certificate:
    Data:
        Version: 3 (0x2)
        Serial Number:
            ed:1c:c6:2e:1b:87:5d:00:f8:07:f5:de:24:42:63:e1
        Signature Algorithm: sha256WithRSAEncryption
        Issuer: CN=team8-net
        Validity
            Not Before: Nov  3 20:39:25 2023 GMT
            Not After : Oct 18 20:39:25 2026 GMT
        Subject: CN=team8-server
        Subject Public Key Info:
            Public Key Algorithm: rsaEncryption
                Public-Key: (2048 bit)
                Modulus:
                    00:ba:21:ef:7e:26:09:c3:e2:c6:b7:41:8b:58:81:
                    84:ae:3d:fb:d1:bf:47:7f:1a:7d:28:38:73:dc:04:
                    32:75:9e:d0:1c:26:f4:58:cd:8b:43:93:53:5d:9e:
                    9c:52:67:04:ab:7b:d0:73:70:4a:a6:d8:3a:f3:39:
                    47:1e:87:36:a9:78:80:ea:73:eb:b7:f9:a8:b1:d0:
                    a1:6b:dc:bb:10:12:0b:79:c0:cc:b2:9c:48:47:db:
                    06:f8:e9:86:d7:2f:bf:25:6f:58:99:88:7e:e9:59:
                    fa:8f:ec:e0:47:d5:73:35:c9:48:85:16:17:9a:21:
                    50:76:d9:41:19:26:8c:63:88:f1:f3:c5:09:fa:8f:
                    cc:73:b2:73:96:e8:3c:38:e9:5f:75:94:59:8b:20:
                    7e:54:76:6e:04:26:7a:4a:dc:e3:ca:87:f4:ac:31:
                    18:5a:3e:42:21:e9:4c:1c:82:7f:6f:28:ca:2c:cc:
                    f5:ed:e3:bd:b3:c7:f4:2f:e7:cb:f4:54:7b:ad:c5:
                    92:76:15:85:6b:15:1c:6f:b7:58:b6:2a:76:d0:69:
                    15:a2:2f:c8:d0:7a:50:25:53:af:54:60:60:a3:03:
                    24:92:a3:6c:d8:c0:e3:ef:02:5c:d5:70:f6:e7:c0:
                    76:0a:eb:75:dd:10:d1:b4:9f:f7:1d:59:e5:5a:c2:
                    b1:bb
                Exponent: 65537 (0x10001)
        X509v3 extensions:
            X509v3 Basic Constraints: 
                CA:FALSE
            X509v3 Subject Key Identifier: 
                B0:01:EC:ED:2C:4B:13:96:70:26:AB:C5:33:FA:DE:76:D3:99:59:81
            X509v3 Authority Key Identifier: 
                keyid:3F:D4:B0:54:C7:BC:95:A4:75:A6:1F:8B:5A:EB:F9:63:24:6D:24:D3
                DirName:/CN=team8-net
                serial:23:0A:1B:7F:C8:A9:92:F1:4E:49:04:56:DC:55:A8:D9:78:1C:9E:CC
            X509v3 Extended Key Usage: 
                TLS Web Server Authentication
            X509v3 Key Usage: 
                Digital Signature, Key Encipherment
            X509v3 Subject Alternative Name: 
                DNS:team8-server
    Signature Algorithm: sha256WithRSAEncryption
    Signature Value:
        83:66:d2:64:20:63:70:62:48:97:5f:cd:5c:e2:a6:dd:dc:3d:
        c2:f7:bb:65:22:7e:04:c6:c5:55:ab:96:92:18:c9:8a:5e:1e:
        b9:f4:ee:63:32:5f:54:ec:63:05:0d:f3:fd:4d:d1:3b:6d:88:
        6e:e1:f1:b5:79:29:5b:88:8a:ee:92:32:60:d4:d9:42:9b:28:
        c2:c1:9e:63:d1:4d:2d:de:a0:cc:66:17:2a:45:18:f2:c1:f0:
        0f:16:a6:8f:73:38:59:d1:e3:5e:2a:0a:c1:62:46:57:1e:40:
        3e:07:86:d1:59:93:c5:5a:c0:7e:a1:18:65:02:1f:21:0b:ff:
        0d:fe:1f:b0:5e:a2:ef:cd:6e:df:13:be:bd:ec:95:76:5f:68:
        dc:72:b2:97:2d:06:ca:c7:11:b3:73:3f:61:35:bb:0a:7d:69:
        55:f3:07:5d:3b:37:54:30:9a:04:45:13:7c:31:53:44:e3:63:
        a9:26:77:62:be:8a:af:51:14:52:9c:e8:fd:d0:1e:20:16:8e:
        50:2e:8e:3f:41:55:0b:d1:4a:4e:41:80:87:50:ad:1a:52:42:
        e7:ab:a8:d4:de:2b:9c:62:5e:c2:3a:0e:88:c1:87:e5:a7:02:
        14:cf:a2:c7:9d:29:33:32:d9:f8:73:1f:2b:e4:84:bd:f4:3f:
        2d:0c:ba:c5
-----BEGIN CERTIFICATE-----
MIIDcDCCAligAwIBAgIRAO0cxi4bh10A+Af13iRCY+EwDQYJKoZIhvcNAQELBQAw
FDESMBAGA1UEAwwJdGVhbTgtbmV0MB4XDTIzMTEwMzIwMzkyNVoXDTI2MTAxODIw
MzkyNVowFzEVMBMGA1UEAwwMdGVhbTgtc2VydmVyMIIBIjANBgkqhkiG9w0BAQEF
AAOCAQ8AMIIBCgKCAQEAuiHvfiYJw+LGt0GLWIGErj370b9Hfxp9KDhz3AQydZ7Q
HCb0WM2LQ5NTXZ6cUmcEq3vQc3BKptg68zlHHoc2qXiA6nPrt/mosdCha9y7EBIL
ecDMspxIR9sG+OmG1y+/JW9YmYh+6Vn6j+zgR9VzNclIhRYXmiFQdtlBGSaMY4jx
88UJ+o/Mc7Jzlug8OOlfdZRZiyB+VHZuBCZ6Stzjyof0rDEYWj5CIelMHIJ/byjK
LMz17eO9s8f0L+fL9FR7rcWSdhWFaxUcb7dYtip20GkVoi/I0HpQJVOvVGBgowMk
kqNs2MDj7wJc1XD258B2Cut13RDRtJ/3HVnlWsKxuwIDAQABo4G5MIG2MAkGA1Ud
EwQCMAAwHQYDVR0OBBYEFLAB7O0sSxOWcCarxTP63nbTmVmBME8GA1UdIwRIMEaA
FD/UsFTHvJWkdaYfi1rr+WMkbSTToRikFjAUMRIwEAYDVQQDDAl0ZWFtOC1uZXSC
FCMKG3/IqZLxTkkEVtxVqNl4HJ7MMBMGA1UdJQQMMAoGCCsGAQUFBwMBMAsGA1Ud
DwQEAwIFoDAXBgNVHREEEDAOggx0ZWFtOC1zZXJ2ZXIwDQYJKoZIhvcNAQELBQAD
ggEBAINm0mQgY3BiSJdfzVzipt3cPcL3u2UifgTGxVWrlpIYyYpeHrn07mMyX1Ts
YwUN8/1N0TttiG7h8bV5KVuIiu6SMmDU2UKbKMLBnmPRTS3eoMxmFypFGPLB8A8W
po9zOFnR414qCsFiRlceQD4HhtFZk8VawH6hGGUCHyEL/w3+H7Beou/Nbt8Tvr3s
lXZfaNxyspctBsrHEbNzP2E1uwp9aVXzB107N1QwmgRFE3wxU0TjY6kmd2K+iq9R
FFKc6P3QHiAWjlAujj9BVQvRSk5BgIdQrRpSQuerqNTeK5xiXsI6DojBh+WnAhTP
osedKTMy2fhzHyvkhL30Py0MusU=
-----END CERTIFICATE-----
