Certificate:
    Data:
        Version: 3 (0x2)
        Serial Number:
            9c:57:b9:04:04:fd:b8:a6:a3:b6:19:ea:93:de:56:20
        Signature Algorithm: sha256WithRSAEncryption
        Issuer: CN=team183-net
        Validity
            Not Before: Nov  3 20:42:34 2023 GMT
            Not After : Oct 18 20:42:34 2026 GMT
        Subject: CN=team183-client
        Subject Public Key Info:
            Public Key Algorithm: rsaEncryption
                Public-Key: (2048 bit)
                Modulus:
                    00:c4:ed:0c:97:bc:36:30:c4:5d:94:23:f5:c2:e6:
                    29:fc:b3:6a:fa:ae:7d:83:d0:9d:4e:07:90:38:a9:
                    f1:ec:c1:c8:9e:3c:da:ee:0f:21:be:dd:0b:bc:43:
                    5f:13:a9:74:94:41:e7:0e:89:0c:18:52:b3:24:00:
                    4d:a0:f8:3f:1e:02:18:7b:41:38:80:98:ca:3e:17:
                    df:21:e6:a1:03:28:14:e9:18:cc:ca:1f:95:be:fb:
                    eb:74:a1:e5:6c:df:ca:08:5e:6d:91:a7:5d:76:f8:
                    67:a3:62:90:e8:6e:47:67:8e:8d:1c:7b:d1:01:98:
                    cd:88:a7:f7:f8:1a:48:d0:88:6b:34:00:13:20:c5:
                    4c:e3:31:57:d1:51:82:40:0c:38:99:31:d0:69:b1:
                    7c:11:e0:28:4e:4a:bf:11:be:be:c7:b0:ff:d2:87:
                    2a:73:2f:4c:34:8e:9d:c4:ec:08:eb:3f:75:08:e9:
                    86:29:11:7b:81:48:2f:b7:21:3c:1d:a5:69:52:d5:
                    73:96:0b:07:7c:77:bd:f8:80:26:77:d5:45:9e:41:
                    aa:28:bb:1e:1e:0e:da:59:95:92:d1:0d:5a:fd:29:
                    8c:19:b8:e5:45:71:c4:1e:43:1e:07:3f:f5:53:ef:
                    87:4d:4f:47:aa:39:43:fa:d5:61:71:f4:61:07:84:
                    bd:21
                Exponent: 65537 (0x10001)
        X509v3 extensions:
            X509v3 Basic Constraints: 
                CA:FALSE
            X509v3 Subject Key Identifier: 
                3A:34:CF:A7:E8:6A:39:39:81:A8:D3:9D:B9:5B:13:11:1F:9B:F3:4D
            X509v3 Authority Key Identifier: 
                keyid:A3:85:8E:D4:D0:19:D3:8A:07:00:B0:9C:11:2D:16:94:02:43:10:E1
                DirName:/CN=team183-net
                serial:3F:75:1B:3F:7D:C5:64:0E:31:B7:7D:FE:6D:0E:D9:D9:E5:EF:86:6E
            X509v3 Extended Key Usage: 
                TLS Web Client Authentication
            X509v3 Key Usage: 
                Digital Signature
    Signature Algorithm: sha256WithRSAEncryption
    Signature Value:
        9c:2a:ab:8c:77:cb:1d:e3:43:a6:38:94:93:7f:69:cb:22:b3:
        39:78:82:32:9c:d4:05:55:09:62:ed:f9:ec:c4:be:f3:6d:f7:
        c0:6a:1d:a0:fd:7d:8c:55:8b:92:7b:f1:b9:77:30:72:05:7a:
        c9:60:39:2b:0f:b5:50:c8:87:e5:90:07:e4:20:73:41:5b:58:
        a0:66:49:b1:27:3b:1e:b9:78:e0:e3:75:2b:dd:1c:2b:46:e2:
        57:a3:50:f0:8d:20:76:e6:fa:16:2a:46:b1:e2:2e:45:70:91:
        3b:15:31:87:59:27:3e:de:38:ae:90:2a:f5:06:2b:93:95:84:
        07:26:7a:91:1b:fc:09:b8:62:e3:d1:6b:5b:f9:a9:f6:fc:6f:
        b5:ff:ed:01:95:14:39:c1:11:a9:d8:e4:1d:64:16:30:67:68:
        08:8d:9c:83:79:a7:76:a9:9a:46:24:ea:d5:64:bc:54:e8:fc:
        6d:c5:3c:63:ee:54:fb:81:3d:df:79:66:41:87:2d:e6:55:62:
        b4:b6:8d:93:77:39:e5:1e:73:a7:ea:3e:97:10:50:fe:5f:ec:
        c6:68:8a:cb:17:74:f2:bd:64:b2:74:52:69:bb:06:ad:d7:0a:
        04:03:cd:2a:e9:71:4f:3d:17:3c:5c:d7:7d:54:47:63:01:c7:
        35:fa:d3:42
-----BEGIN CERTIFICATE-----
MIIDXTCCAkWgAwIBAgIRAJxXuQQE/bimo7YZ6pPeViAwDQYJKoZIhvcNAQELBQAw
FjEUMBIGA1UEAwwLdGVhbTE4My1uZXQwHhcNMjMxMTAzMjA0MjM0WhcNMjYxMDE4
MjA0MjM0WjAZMRcwFQYDVQQDDA50ZWFtMTgzLWNsaWVudDCCASIwDQYJKoZIhvcN
AQEBBQADggEPADCCAQoCggEBAMTtDJe8NjDEXZQj9cLmKfyzavqufYPQnU4HkDip
8ezByJ482u4PIb7dC7xDXxOpdJRB5w6JDBhSsyQATaD4Px4CGHtBOICYyj4X3yHm
oQMoFOkYzMoflb7763Sh5WzfyghebZGnXXb4Z6NikOhuR2eOjRx70QGYzYin9/ga
SNCIazQAEyDFTOMxV9FRgkAMOJkx0GmxfBHgKE5KvxG+vsew/9KHKnMvTDSOncTs
COs/dQjphikRe4FIL7chPB2laVLVc5YLB3x3vfiAJnfVRZ5Bqii7Hh4O2lmVktEN
Wv0pjBm45UVxxB5DHgc/9VPvh01PR6o5Q/rVYXH0YQeEvSECAwEAAaOBojCBnzAJ
BgNVHRMEAjAAMB0GA1UdDgQWBBQ6NM+n6Go5OYGo0525WxMRH5vzTTBRBgNVHSME
SjBIgBSjhY7U0BnTigcAsJwRLRaUAkMQ4aEapBgwFjEUMBIGA1UEAwwLdGVhbTE4
My1uZXSCFD91Gz99xWQOMbd9/m0O2dnl74ZuMBMGA1UdJQQMMAoGCCsGAQUFBwMC
MAsGA1UdDwQEAwIHgDANBgkqhkiG9w0BAQsFAAOCAQEAnCqrjHfLHeNDpjiUk39p
yyKzOXiCMpzUBVUJYu357MS+8233wGodoP19jFWLknvxuXcwcgV6yWA5Kw+1UMiH
5ZAH5CBzQVtYoGZJsSc7Hrl44ON1K90cK0biV6NQ8I0gdub6FipGseIuRXCROxUx
h1knPt44rpAq9QYrk5WEByZ6kRv8Cbhi49FrW/mp9vxvtf/tAZUUOcERqdjkHWQW
MGdoCI2cg3mndqmaRiTq1WS8VOj8bcU8Y+5U+4E933lmQYct5lVitLaNk3c55R5z
p+o+lxBQ/l/sxmiKyxd08r1ksnRSabsGrdcKBAPNKulxTz0XPFzXfVRHYwHHNfrT
Qg==
-----END CERTIFICATE-----
