Certificate:
    Data:
        Version: 3 (0x2)
        Serial Number:
            b5:7b:4e:37:5a:cf:3c:74:fb:b8:7f:60:a2:36:1d:e9
        Signature Algorithm: sha256WithRSAEncryption
        Issuer: CN=team183-net
        Validity
            Not Before: Nov  4 10:43:56 2023 GMT
            Not After : Oct 19 10:43:56 2026 GMT
        Subject: CN=team183-client
        Subject Public Key Info:
            Public Key Algorithm: rsaEncryption
                Public-Key: (2048 bit)
                Modulus:
                    00:ac:f0:f2:fc:63:97:d2:17:a3:9d:3f:d7:11:36:
                    06:0c:69:82:86:da:60:00:96:9d:4a:33:bd:e9:3a:
                    06:72:d6:8e:03:3d:0e:1d:e7:5a:e8:7d:ac:16:ee:
                    b3:de:4f:e4:eb:6b:87:10:f4:ce:f8:81:08:b1:78:
                    5d:01:74:25:75:2d:a4:be:48:df:75:02:e7:ee:c0:
                    24:4f:20:e0:aa:89:a1:2d:a4:76:2d:ed:40:71:b9:
                    59:25:c5:a5:a8:cb:3e:7b:e4:7b:d9:1b:f5:a1:e9:
                    ca:ae:c8:85:59:56:cc:5c:58:e2:80:98:da:cd:50:
                    b8:7b:34:be:de:59:cf:5b:b9:1b:4c:5e:99:0d:ea:
                    be:f3:f6:ab:e2:09:39:a0:cf:c9:8a:a7:d0:97:b9:
                    e2:ea:33:4c:99:b2:06:f2:45:4c:d4:f8:7c:9f:1f:
                    68:4b:ab:75:6e:90:77:56:42:33:df:49:fc:ff:20:
                    5a:f7:29:b5:0a:8c:21:32:c9:7d:e5:17:01:5c:dc:
                    19:eb:85:a1:83:a0:23:61:0a:64:42:c0:ce:9d:ca:
                    4f:54:f1:a3:e1:0b:fc:d3:3e:76:63:59:61:3b:83:
                    12:7b:ee:f6:bb:c0:ae:01:64:19:8a:6f:d9:8e:02:
                    de:32:5a:25:00:5f:8f:64:eb:63:20:97:e4:e7:46:
                    d5:b9
                Exponent: 65537 (0x10001)
        X509v3 extensions:
            X509v3 Basic Constraints: 
                CA:FALSE
            X509v3 Subject Key Identifier: 
                FA:4F:18:53:54:FD:EA:98:9E:6F:FB:AE:F3:01:66:3F:78:FC:83:B3
            X509v3 Authority Key Identifier: 
                keyid:88:56:8F:51:4C:F6:17:BF:8B:0D:F3:52:4E:30:D6:3B:83:2E:60:BC
                DirName:/CN=team183-net
                serial:59:C8:3A:15:A5:7E:13:B8:6B:A2:D9:2B:34:25:73:82:25:42:11:41
            X509v3 Extended Key Usage: 
                TLS Web Client Authentication
            X509v3 Key Usage: 
                Digital Signature
    Signature Algorithm: sha256WithRSAEncryption
    Signature Value:
        1e:7b:2e:a8:85:d6:1f:d0:67:f6:2b:46:69:e3:9d:9e:7d:06:
        cd:5e:77:b3:9c:bb:51:e8:1f:5e:ce:8b:13:6b:8c:de:6a:1b:
        d7:43:0e:e1:1b:40:b0:6f:62:73:e0:56:de:03:a4:9b:04:d1:
        9b:98:6c:d6:f9:4c:a1:b5:90:25:ad:f9:51:92:bd:44:0b:29:
        7b:40:d2:2d:cb:a3:64:27:92:51:7a:7b:fd:ee:93:62:ea:18:
        6c:1e:cd:ec:b0:8e:e4:7e:0c:e7:7e:2f:5f:61:0e:78:8c:8d:
        9d:db:1d:09:4c:cd:36:6b:61:4c:11:eb:04:89:da:a3:e1:6f:
        4a:cb:83:50:ab:8f:44:02:9c:6f:8f:28:bf:d9:83:62:d9:0c:
        09:5b:62:6d:7a:62:31:3e:1b:e5:75:6a:77:70:30:ef:c5:c1:
        6d:97:7b:1e:55:34:a5:6c:f9:f8:29:c4:e2:bc:d4:0b:52:20:
        1c:35:e1:5f:11:19:d6:a8:8e:50:67:ee:84:ca:57:58:2d:5b:
        19:51:9d:5c:34:65:2b:56:e3:cd:a3:5c:c2:e6:5d:5f:a5:17:
        79:5e:c4:fe:9a:4f:33:dc:e9:e7:20:0d:7e:a2:96:77:98:1a:
        19:c7:eb:86:bb:f4:f2:58:0d:ac:ea:d6:74:3d:cd:5a:c2:81:
        31:d2:e4:61
-----BEGIN CERTIFICATE-----
MIIDXTCCAkWgAwIBAgIRALV7Tjdazzx0+7h/YKI2HekwDQYJKoZIhvcNAQELBQAw
FjEUMBIGA1UEAwwLdGVhbTE4My1uZXQwHhcNMjMxMTA0MTA0MzU2WhcNMjYxMDE5
MTA0MzU2WjAZMRcwFQYDVQQDDA50ZWFtMTgzLWNsaWVudDCCASIwDQYJKoZIhvcN
AQEBBQADggEPADCCAQoCggEBAKzw8vxjl9IXo50/1xE2BgxpgobaYACWnUozvek6
BnLWjgM9Dh3nWuh9rBbus95P5OtrhxD0zviBCLF4XQF0JXUtpL5I33UC5+7AJE8g
4KqJoS2kdi3tQHG5WSXFpajLPnvke9kb9aHpyq7IhVlWzFxY4oCY2s1QuHs0vt5Z
z1u5G0xemQ3qvvP2q+IJOaDPyYqn0Je54uozTJmyBvJFTNT4fJ8faEurdW6Qd1ZC
M99J/P8gWvcptQqMITLJfeUXAVzcGeuFoYOgI2EKZELAzp3KT1Txo+EL/NM+dmNZ
YTuDEnvu9rvArgFkGYpv2Y4C3jJaJQBfj2TrYyCX5OdG1bkCAwEAAaOBojCBnzAJ
BgNVHRMEAjAAMB0GA1UdDgQWBBT6TxhTVP3qmJ5v+67zAWY/ePyDszBRBgNVHSME
SjBIgBSIVo9RTPYXv4sN81JOMNY7gy5gvKEapBgwFjEUMBIGA1UEAwwLdGVhbTE4
My1uZXSCFFnIOhWlfhO4a6LZKzQlc4IlQhFBMBMGA1UdJQQMMAoGCCsGAQUFBwMC
MAsGA1UdDwQEAwIHgDANBgkqhkiG9w0BAQsFAAOCAQEAHnsuqIXWH9Bn9itGaeOd
nn0GzV53s5y7UegfXs6LE2uM3mob10MO4RtAsG9ic+BW3gOkmwTRm5hs1vlMobWQ
Ja35UZK9RAspe0DSLcujZCeSUXp7/e6TYuoYbB7N7LCO5H4M534vX2EOeIyNndsd
CUzNNmthTBHrBInao+FvSsuDUKuPRAKcb48ov9mDYtkMCVtibXpiMT4b5XVqd3Aw
78XBbZd7HlU0pWz5+CnE4rzUC1IgHDXhXxEZ1qiOUGfuhMpXWC1bGVGdXDRlK1bj
zaNcwuZdX6UXeV7E/ppPM9zp5yANfqKWd5gaGcfrhrv08lgNrOrWdD3NWsKBMdLk
YQ==
-----END CERTIFICATE-----
