Certificate:
    Data:
        Version: 3 (0x2)
        Serial Number:
            d5:08:1d:38:0a:5f:ca:7f:27:75:98:a1:e8:0a:66:9a
        Signature Algorithm: sha256WithRSAEncryption
        Issuer: CN=team183-net
        Validity
            Not Before: Nov  4 11:31:15 2023 GMT
            Not After : Oct 19 11:31:15 2026 GMT
        Subject: CN=team183-client
        Subject Public Key Info:
            Public Key Algorithm: rsaEncryption
                Public-Key: (2048 bit)
                Modulus:
                    00:c7:11:58:a5:bd:b2:ea:16:7e:06:55:bc:7f:bb:
                    83:2c:59:ee:2c:54:9b:02:84:1f:4c:e9:17:1e:4c:
                    ad:bc:b3:60:f4:b0:fb:8b:5e:38:b4:d6:2d:ed:4f:
                    d7:9c:05:a7:7a:5e:15:82:2b:8c:b2:25:bc:71:de:
                    86:5e:c9:63:b1:6e:fe:47:4d:90:61:da:80:f4:26:
                    9f:f7:7f:ba:0b:57:35:36:b7:c7:75:5d:39:e4:35:
                    de:67:24:d3:69:d1:b7:ee:9e:65:0d:f4:5f:d1:ce:
                    33:ce:c6:8a:d4:60:cb:37:06:fa:21:fc:7c:9b:da:
                    ef:ae:cd:53:09:21:ee:6c:d9:d0:ab:04:09:29:b9:
                    62:dc:aa:f6:48:80:c8:40:fd:62:8d:6c:dd:73:11:
                    41:8d:da:43:ba:e9:7f:95:22:ba:5e:a0:c2:72:6f:
                    61:2c:78:54:ea:5b:fd:f0:f3:c8:cc:d0:95:7b:26:
                    01:c6:63:12:bb:24:fd:73:6d:92:f9:bb:ea:15:86:
                    50:7d:93:15:a9:a0:3f:73:a6:73:7b:c3:2b:e9:ef:
                    53:9a:29:51:45:a4:35:ef:14:be:4d:71:f2:ad:4c:
                    14:63:0f:4b:a7:be:5d:a5:1f:ea:e9:06:2b:48:a5:
                    27:98:5c:0e:2f:79:8d:94:ce:52:48:ac:27:b6:79:
                    66:a9
                Exponent: 65537 (0x10001)
        X509v3 extensions:
            X509v3 Basic Constraints: 
                CA:FALSE
            X509v3 Subject Key Identifier: 
                E7:FE:11:AE:1E:ED:AF:AA:67:7D:2A:9A:4F:02:6D:A8:AC:8A:2C:54
            X509v3 Authority Key Identifier: 
                keyid:5C:76:DC:19:54:23:C2:13:13:16:6E:B2:8B:D4:1E:2E:6F:CC:05:7A
                DirName:/CN=team183-net
                serial:6C:35:30:A0:79:C1:FE:92:A9:F9:EB:09:15:9F:23:E3:6F:F5:E7:A1
            X509v3 Extended Key Usage: 
                TLS Web Client Authentication
            X509v3 Key Usage: 
                Digital Signature
    Signature Algorithm: sha256WithRSAEncryption
    Signature Value:
        a1:8c:a7:82:77:e3:b6:16:5f:95:5a:a3:a8:92:f1:66:08:80:
        d8:ba:82:78:7e:83:60:c2:44:cf:bb:2f:7f:28:c0:24:d0:17:
        aa:7e:d0:e0:58:e9:02:84:bd:a1:a6:6e:14:d9:8e:8c:cd:0a:
        a0:b2:10:e1:e2:b5:20:86:9b:f6:76:97:70:9f:ee:4b:79:aa:
        ef:65:07:2c:e4:fb:4d:69:69:59:bd:cb:23:80:00:ed:24:3f:
        93:1e:27:b2:eb:e8:7f:89:c2:89:c7:73:51:7b:7e:ce:66:f9:
        bc:a9:2f:70:f4:27:48:dc:1f:c0:54:5b:5a:09:86:e3:fb:72:
        2c:9a:0a:96:63:96:e5:8c:48:13:97:c0:fb:16:16:55:2e:5c:
        ab:1b:14:af:0a:90:fd:a2:8b:35:48:2a:09:01:6c:b4:bd:d1:
        b6:8c:f3:76:9d:f7:4d:f1:66:ef:50:2b:d0:68:96:ee:56:7c:
        76:fa:61:86:7e:52:7c:0a:da:2e:99:f4:03:cf:8e:30:a7:24:
        4b:cf:b8:fd:da:72:a9:b7:e3:19:e4:45:fb:96:fc:ef:65:ee:
        0b:56:97:a8:ef:0b:6d:e5:34:86:dc:41:9b:40:d9:a3:e7:91:
        e9:fa:9a:16:46:a5:71:b5:f0:31:75:c1:29:97:57:68:c6:a9:
        56:76:d7:38
-----BEGIN CERTIFICATE-----
MIIDXTCCAkWgAwIBAgIRANUIHTgKX8p/J3WYoegKZpowDQYJKoZIhvcNAQELBQAw
FjEUMBIGA1UEAwwLdGVhbTE4My1uZXQwHhcNMjMxMTA0MTEzMTE1WhcNMjYxMDE5
MTEzMTE1WjAZMRcwFQYDVQQDDA50ZWFtMTgzLWNsaWVudDCCASIwDQYJKoZIhvcN
AQEBBQADggEPADCCAQoCggEBAMcRWKW9suoWfgZVvH+7gyxZ7ixUmwKEH0zpFx5M
rbyzYPSw+4teOLTWLe1P15wFp3peFYIrjLIlvHHehl7JY7Fu/kdNkGHagPQmn/d/
ugtXNTa3x3VdOeQ13mck02nRt+6eZQ30X9HOM87GitRgyzcG+iH8fJva767NUwkh
7mzZ0KsECSm5Ytyq9kiAyED9Yo1s3XMRQY3aQ7rpf5Uiul6gwnJvYSx4VOpb/fDz
yMzQlXsmAcZjErsk/XNtkvm76hWGUH2TFamgP3Omc3vDK+nvU5opUUWkNe8Uvk1x
8q1MFGMPS6e+XaUf6ukGK0ilJ5hcDi95jZTOUkisJ7Z5ZqkCAwEAAaOBojCBnzAJ
BgNVHRMEAjAAMB0GA1UdDgQWBBTn/hGuHu2vqmd9KppPAm2orIosVDBRBgNVHSME
SjBIgBRcdtwZVCPCExMWbrKL1B4ub8wFeqEapBgwFjEUMBIGA1UEAwwLdGVhbTE4
My1uZXSCFGw1MKB5wf6SqfnrCRWfI+Nv9eehMBMGA1UdJQQMMAoGCCsGAQUFBwMC
MAsGA1UdDwQEAwIHgDANBgkqhkiG9w0BAQsFAAOCAQEAoYyngnfjthZflVqjqJLx
ZgiA2LqCeH6DYMJEz7svfyjAJNAXqn7Q4FjpAoS9oaZuFNmOjM0KoLIQ4eK1IIab
9naXcJ/uS3mq72UHLOT7TWlpWb3LI4AA7SQ/kx4nsuvof4nCicdzUXt+zmb5vKkv
cPQnSNwfwFRbWgmG4/tyLJoKlmOW5YxIE5fA+xYWVS5cqxsUrwqQ/aKLNUgqCQFs
tL3Rtozzdp33TfFm71Ar0GiW7lZ8dvphhn5SfAraLpn0A8+OMKckS8+4/dpyqbfj
GeRF+5b872XuC1aXqO8LbeU0htxBm0DZo+eR6fqaFkalcbXwMXXBKZdXaMapVnbX
OA==
-----END CERTIFICATE-----
