Certificate:
    Data:
        Version: 3 (0x2)
        Serial Number:
            1e:b1:98:e5:92:14:64:3b:22:e3:0a:cf:0a:93:b8:0c
        Signature Algorithm: sha256WithRSAEncryption
        Issuer: CN=team48-net
        Validity
            Not Before: Nov  4 10:41:08 2023 GMT
            Not After : Oct 19 10:41:08 2026 GMT
        Subject: CN=team48-server
        Subject Public Key Info:
            Public Key Algorithm: rsaEncryption
                Public-Key: (2048 bit)
                Modulus:
                    00:b7:7f:bb:57:20:bc:75:92:10:00:52:c5:07:b1:
                    0e:0d:db:b1:a9:fc:ef:61:d3:c4:81:e4:5f:b6:3b:
                    2d:29:b8:fe:36:27:95:89:83:8e:77:6d:07:65:06:
                    a5:e7:4b:5d:4c:bd:88:a9:4a:07:dd:7d:c2:6b:38:
                    55:3f:f8:78:fd:2c:c9:8c:7b:a1:2f:ec:19:14:d5:
                    88:af:cb:ba:9d:16:c1:9a:85:cb:80:e8:c3:2b:e9:
                    df:4e:9e:88:5c:e2:e0:5a:ca:40:b9:35:76:62:c6:
                    ca:3c:00:ea:e3:31:20:34:c2:98:c2:5f:a6:41:d3:
                    bf:7c:1f:34:2f:f4:23:dd:93:c1:a9:25:eb:c6:ac:
                    a5:f2:01:ff:fb:ec:e3:21:8d:7b:57:ea:47:06:a2:
                    ef:bc:e5:e1:87:7a:35:e9:9a:8d:39:c0:35:d5:66:
                    31:49:05:af:72:ac:15:1a:c0:6b:22:54:87:69:5b:
                    08:0a:26:48:c3:be:3e:0a:3c:c1:58:23:10:7c:45:
                    64:c3:e2:d2:27:2d:59:e3:4a:4c:f5:fe:2b:8b:6a:
                    c1:ed:55:0e:09:7d:0a:20:b6:26:27:79:f8:65:43:
                    da:cb:ab:4d:af:8c:32:63:a7:98:05:6a:d4:8a:23:
                    b7:63:f8:47:1c:4a:78:80:b5:8a:2b:a6:d9:c4:29:
                    45:1b
                Exponent: 65537 (0x10001)
        X509v3 extensions:
            X509v3 Basic Constraints: 
                CA:FALSE
            X509v3 Subject Key Identifier: 
                31:86:BC:A9:0F:1A:D0:C1:55:82:19:A8:BA:E5:DC:2B:17:94:89:8E
            X509v3 Authority Key Identifier: 
                keyid:1F:D0:03:30:42:DF:00:B0:EC:E2:30:C5:4C:1D:C3:FC:8E:87:0C:7B
                DirName:/CN=team48-net
                serial:4C:92:46:2E:EF:52:99:28:47:25:40:0D:10:36:15:67:C7:01:73:44
            X509v3 Extended Key Usage: 
                TLS Web Server Authentication
            X509v3 Key Usage: 
                Digital Signature, Key Encipherment
            X509v3 Subject Alternative Name: 
                DNS:team48-server
    Signature Algorithm: sha256WithRSAEncryption
    Signature Value:
        68:8d:94:a6:8d:31:3f:18:3e:56:48:19:f4:b4:b3:4e:ab:76:
        cc:39:d6:b1:16:d7:95:27:3d:19:0c:06:95:4e:f2:32:42:a0:
        e0:8e:ea:31:33:4d:2d:ca:1c:81:12:15:ce:b3:a1:5b:cc:34:
        f3:97:54:fe:8c:df:1b:fa:a7:24:1b:46:8e:ed:5f:6b:80:ce:
        87:68:3a:b5:98:5f:c0:d8:54:f5:40:19:31:fc:6e:7f:de:46:
        d8:cd:fb:8f:19:a1:21:26:3e:ae:d0:93:34:95:3d:66:8c:f0:
        25:68:97:f5:aa:f8:1f:fc:9f:72:bb:10:c1:bd:57:55:43:59:
        cd:39:53:e1:a2:72:7a:09:e3:8b:6a:51:e4:f7:20:5e:dd:35:
        4f:f2:63:b6:af:04:16:d6:5b:bd:f4:d0:19:3f:1e:96:1f:a0:
        23:13:30:90:66:a2:e8:f4:dc:dd:bf:f8:8a:70:5c:69:8e:e3:
        be:90:6b:d6:3c:d2:aa:4d:9d:b2:83:8c:6b:64:9e:a7:01:c5:
        38:58:5f:b1:5f:f7:de:e1:ce:f0:fc:e3:d1:5f:f0:47:3b:71:
        50:0b:57:ed:a8:d4:fb:31:85:51:70:bc:41:63:fe:81:95:81:
        b6:1b:ba:06:65:12:a3:f6:08:15:7e:40:21:d7:d3:55:91:64:
        b4:96:c2:1e
-----BEGIN CERTIFICATE-----
MIIDczCCAlugAwIBAgIQHrGY5ZIUZDsi4wrPCpO4DDANBgkqhkiG9w0BAQsFADAV
MRMwEQYDVQQDDAp0ZWFtNDgtbmV0MB4XDTIzMTEwNDEwNDEwOFoXDTI2MTAxOTEw
NDEwOFowGDEWMBQGA1UEAwwNdGVhbTQ4LXNlcnZlcjCCASIwDQYJKoZIhvcNAQEB
BQADggEPADCCAQoCggEBALd/u1cgvHWSEABSxQexDg3bsan872HTxIHkX7Y7LSm4
/jYnlYmDjndtB2UGpedLXUy9iKlKB919wms4VT/4eP0syYx7oS/sGRTViK/Lup0W
wZqFy4Dowyvp306eiFzi4FrKQLk1dmLGyjwA6uMxIDTCmMJfpkHTv3wfNC/0I92T
wakl68aspfIB//vs4yGNe1fqRwai77zl4Yd6NemajTnANdVmMUkFr3KsFRrAayJU
h2lbCAomSMO+Pgo8wVgjEHxFZMPi0ictWeNKTPX+K4tqwe1VDgl9CiC2Jid5+GVD
2surTa+MMmOnmAVq1Iojt2P4RxxKeIC1iium2cQpRRsCAwEAAaOBuzCBuDAJBgNV
HRMEAjAAMB0GA1UdDgQWBBQxhrypDxrQwVWCGai65dwrF5SJjjBQBgNVHSMESTBH
gBQf0AMwQt8AsOziMMVMHcP8jocMe6EZpBcwFTETMBEGA1UEAwwKdGVhbTQ4LW5l
dIIUTJJGLu9SmShHJUANEDYVZ8cBc0QwEwYDVR0lBAwwCgYIKwYBBQUHAwEwCwYD
VR0PBAQDAgWgMBgGA1UdEQQRMA+CDXRlYW00OC1zZXJ2ZXIwDQYJKoZIhvcNAQEL
BQADggEBAGiNlKaNMT8YPlZIGfS0s06rdsw51rEW15UnPRkMBpVO8jJCoOCO6jEz
TS3KHIESFc6zoVvMNPOXVP6M3xv6pyQbRo7tX2uAzodoOrWYX8DYVPVAGTH8bn/e
RtjN+48ZoSEmPq7QkzSVPWaM8CVol/Wq+B/8n3K7EMG9V1VDWc05U+GicnoJ44tq
UeT3IF7dNU/yY7avBBbWW7300Bk/HpYfoCMTMJBmouj03N2/+IpwXGmO476Qa9Y8
0qpNnbKDjGtknqcBxThYX7Ff997hzvD849Ff8Ec7cVALV+2o1PsxhVFwvEFj/oGV
gbYbugZlEqP2CBV+QCHX01WRZLSWwh4=
-----END CERTIFICATE-----
