Certificate:
    Data:
        Version: 3 (0x2)
        Serial Number:
            2f:8a:7b:8e:59:ba:30:47:20:40:69:3f:c9:72:8e:8e
        Signature Algorithm: sha256WithRSAEncryption
        Issuer: CN=team48-net
        Validity
            Not Before: Nov  3 20:40:05 2023 GMT
            Not After : Oct 18 20:40:05 2026 GMT
        Subject: CN=team48-server
        Subject Public Key Info:
            Public Key Algorithm: rsaEncryption
                Public-Key: (2048 bit)
                Modulus:
                    00:b4:9c:da:45:e4:38:76:df:ae:60:7b:8f:56:98:
                    10:e0:75:b2:f3:1c:90:98:33:d8:59:56:c9:a2:91:
                    b4:88:82:20:6d:6c:e3:11:8a:c2:d2:38:69:19:28:
                    0f:a1:23:4b:2e:01:00:a1:0a:80:4d:d1:e9:e4:cd:
                    ea:10:2b:65:b7:36:ab:07:bf:2e:d8:c9:91:1c:f7:
                    78:77:ac:52:01:ea:8e:a5:60:f9:f0:61:9e:f1:21:
                    be:21:4a:c4:21:ae:2f:3e:1e:82:77:6d:3a:31:fc:
                    d7:03:ee:3a:6b:53:26:09:88:98:30:9f:2a:6a:4c:
                    19:24:86:4b:6b:1f:ba:46:64:94:5b:a3:b7:7e:73:
                    24:1a:f5:03:d1:13:05:75:b8:26:86:54:17:51:b9:
                    94:b7:19:65:cd:6e:e9:69:98:5c:34:64:3d:ea:10:
                    c8:d2:8f:33:be:6d:f0:bf:11:4c:0b:9d:83:01:d3:
                    81:66:96:48:85:59:2b:7b:a0:ce:aa:3f:d6:ce:71:
                    be:5e:5b:11:04:08:bc:3e:3b:8a:cf:91:35:b9:83:
                    e2:12:9f:28:67:8c:e3:e6:aa:bc:ef:0a:7d:07:96:
                    8b:8d:92:7b:63:49:82:e0:0f:35:b4:b4:11:78:08:
                    4f:be:0d:4d:1f:88:4d:93:8e:74:16:5d:e8:dc:1b:
                    05:b7
                Exponent: 65537 (0x10001)
        X509v3 extensions:
            X509v3 Basic Constraints: 
                CA:FALSE
            X509v3 Subject Key Identifier: 
                85:4D:51:6E:58:DB:EC:3C:18:B8:CC:F9:82:76:94:B6:06:A2:F2:9A
            X509v3 Authority Key Identifier: 
                keyid:B3:E5:D7:A5:10:AD:2A:E4:65:F6:FB:19:8E:94:50:36:24:79:7C:D0
                DirName:/CN=team48-net
                serial:18:0A:73:4B:81:F1:00:31:BF:BC:8D:41:9F:4E:AD:16:97:3B:D7:18
            X509v3 Extended Key Usage: 
                TLS Web Server Authentication
            X509v3 Key Usage: 
                Digital Signature, Key Encipherment
            X509v3 Subject Alternative Name: 
                DNS:team48-server
    Signature Algorithm: sha256WithRSAEncryption
    Signature Value:
        64:55:a7:8c:4b:9e:da:39:11:a4:22:86:dc:0c:c9:ae:f6:8c:
        cd:7c:90:28:94:e2:ec:e7:0f:4b:1b:b1:53:9b:e1:74:4e:75:
        3a:53:1d:0e:e5:db:76:5d:80:b6:c1:22:4c:f2:dc:d7:0c:13:
        a9:a5:09:29:14:07:4b:10:d3:b5:aa:a7:d9:80:ea:0a:c9:f2:
        c7:22:d2:14:e7:d2:26:4f:b8:82:9d:f0:65:c3:b9:97:1e:8b:
        f1:e4:42:a4:59:39:2b:b4:93:b6:44:fd:82:60:50:15:65:57:
        59:6c:c4:68:4e:d3:18:41:44:24:2c:62:d8:9b:3e:cc:74:5e:
        bd:51:12:2a:0d:db:63:72:bc:07:77:0c:d7:f6:fa:04:8a:43:
        fd:90:f3:4e:68:2e:56:17:da:c1:fa:5a:09:5d:d2:f7:43:5d:
        dd:93:b0:52:35:60:c1:33:aa:7f:7f:9a:3c:6d:30:59:65:f6:
        e4:9e:34:e2:d5:1d:03:7f:77:9a:c8:e4:3b:f8:bd:4d:c8:65:
        0f:f5:d4:aa:15:5d:4a:e0:6f:24:47:c4:6c:39:79:bb:15:d6:
        2b:9b:bd:1e:fb:4b:e6:85:ee:1c:f6:53:df:ae:59:b0:58:71:
        1d:e4:8c:84:da:74:e7:01:67:06:53:c1:4a:92:d4:82:e7:3e:
        05:92:de:b2
-----BEGIN CERTIFICATE-----
MIIDczCCAlugAwIBAgIQL4p7jlm6MEcgQGk/yXKOjjANBgkqhkiG9w0BAQsFADAV
MRMwEQYDVQQDDAp0ZWFtNDgtbmV0MB4XDTIzMTEwMzIwNDAwNVoXDTI2MTAxODIw
NDAwNVowGDEWMBQGA1UEAwwNdGVhbTQ4LXNlcnZlcjCCASIwDQYJKoZIhvcNAQEB
BQADggEPADCCAQoCggEBALSc2kXkOHbfrmB7j1aYEOB1svMckJgz2FlWyaKRtIiC
IG1s4xGKwtI4aRkoD6EjSy4BAKEKgE3R6eTN6hArZbc2qwe/LtjJkRz3eHesUgHq
jqVg+fBhnvEhviFKxCGuLz4egndtOjH81wPuOmtTJgmImDCfKmpMGSSGS2sfukZk
lFujt35zJBr1A9ETBXW4JoZUF1G5lLcZZc1u6WmYXDRkPeoQyNKPM75t8L8RTAud
gwHTgWaWSIVZK3ugzqo/1s5xvl5bEQQIvD47is+RNbmD4hKfKGeM4+aqvO8KfQeW
i42Se2NJguAPNbS0EXgIT74NTR+ITZOOdBZd6NwbBbcCAwEAAaOBuzCBuDAJBgNV
HRMEAjAAMB0GA1UdDgQWBBSFTVFuWNvsPBi4zPmCdpS2BqLymjBQBgNVHSMESTBH
gBSz5delEK0q5GX2+xmOlFA2JHl80KEZpBcwFTETMBEGA1UEAwwKdGVhbTQ4LW5l
dIIUGApzS4HxADG/vI1Bn06tFpc71xgwEwYDVR0lBAwwCgYIKwYBBQUHAwEwCwYD
VR0PBAQDAgWgMBgGA1UdEQQRMA+CDXRlYW00OC1zZXJ2ZXIwDQYJKoZIhvcNAQEL
BQADggEBAGRVp4xLnto5EaQihtwMya72jM18kCiU4uznD0sbsVOb4XROdTpTHQ7l
23ZdgLbBIkzy3NcME6mlCSkUB0sQ07Wqp9mA6grJ8sci0hTn0iZPuIKd8GXDuZce
i/HkQqRZOSu0k7ZE/YJgUBVlV1lsxGhO0xhBRCQsYtibPsx0Xr1REioN22NyvAd3
DNf2+gSKQ/2Q805oLlYX2sH6Wgld0vdDXd2TsFI1YMEzqn9/mjxtMFll9uSeNOLV
HQN/d5rI5Dv4vU3IZQ/11KoVXUrgbyRHxGw5ebsV1iubvR77S+aF7hz2U9+uWbBY
cR3kjITadOcBZwZTwUqS1ILnPgWS3rI=
-----END CERTIFICATE-----
