Certificate:
    Data:
        Version: 3 (0x2)
        Serial Number:
            45:d6:ed:f5:28:1e:12:f9:98:14:9b:0f:b9:8e:62:02
        Signature Algorithm: sha256WithRSAEncryption
        Issuer: CN=team48-net
        Validity
            Not Before: Nov  4 10:41:07 2023 GMT
            Not After : Oct 19 10:41:07 2026 GMT
        Subject: CN=team48-client
        Subject Public Key Info:
            Public Key Algorithm: rsaEncryption
                Public-Key: (2048 bit)
                Modulus:
                    00:ab:29:60:3c:22:05:01:49:9d:98:a9:6f:f2:b8:
                    0c:99:eb:e1:fc:54:3a:ec:bb:30:78:9e:6a:70:99:
                    63:f7:67:99:80:ff:15:17:9f:e2:e8:47:60:b1:71:
                    32:82:17:ee:44:e0:60:75:3a:3b:fc:99:e8:8f:cb:
                    3f:2c:ef:e7:68:76:f2:c9:db:f0:00:d5:68:7b:e2:
                    ff:de:7a:48:38:1c:82:d9:ad:b0:48:60:c1:07:33:
                    03:cd:51:6a:5a:f2:4e:4a:9c:dc:c4:6e:9b:67:cb:
                    6f:63:e5:3e:76:2f:79:1a:e0:a0:eb:d0:c0:cb:91:
                    7d:f9:1d:07:6f:05:3d:29:c9:bc:f6:97:be:34:41:
                    e4:1b:37:12:6f:3e:30:dc:86:ee:e7:52:65:9d:35:
                    af:91:b9:56:ce:ad:4c:e6:15:ff:e6:71:bf:66:34:
                    59:ea:6a:da:2e:38:32:a4:0b:39:aa:8e:de:0f:39:
                    8a:cf:c3:1a:c5:b0:08:44:a9:0c:c0:5c:e8:cb:8b:
                    a2:f5:59:09:72:88:69:71:fb:33:d0:7a:fc:3f:b4:
                    10:10:8c:9d:d1:ec:f8:71:13:41:8c:69:9f:d6:72:
                    b3:c4:b7:2d:da:3b:f9:c9:13:b9:f5:4a:94:00:8d:
                    a5:95:0f:35:f0:c8:4b:28:38:95:15:8e:c1:03:0f:
                    45:ab
                Exponent: 65537 (0x10001)
        X509v3 extensions:
            X509v3 Basic Constraints: 
                CA:FALSE
            X509v3 Subject Key Identifier: 
                11:A8:5E:45:04:E8:85:4F:51:E8:ED:3D:D9:A1:16:1F:D5:27:D8:57
            X509v3 Authority Key Identifier: 
                keyid:1F:D0:03:30:42:DF:00:B0:EC:E2:30:C5:4C:1D:C3:FC:8E:87:0C:7B
                DirName:/CN=team48-net
                serial:4C:92:46:2E:EF:52:99:28:47:25:40:0D:10:36:15:67:C7:01:73:44
            X509v3 Extended Key Usage: 
                TLS Web Client Authentication
            X509v3 Key Usage: 
                Digital Signature
    Signature Algorithm: sha256WithRSAEncryption
    Signature Value:
        a9:f9:0d:df:ac:4f:23:69:18:e7:b7:de:0d:ba:b5:03:be:66:
        67:28:2e:41:9c:c7:96:9a:c9:6e:28:84:8b:0f:5e:53:b2:18:
        85:73:f2:a9:3f:c0:bd:12:c5:1d:6d:ce:2c:53:2c:50:09:3b:
        22:4d:6a:15:bb:1a:fd:7d:76:9e:c5:30:70:69:50:2d:96:ab:
        70:c8:63:48:11:94:74:2d:0c:9f:3b:a5:16:ce:76:92:38:0f:
        56:bb:67:0e:74:30:d5:5e:42:d1:df:95:10:de:ee:17:60:7f:
        b7:79:8f:1a:6e:89:33:c5:de:ed:ed:68:db:7a:6f:4b:de:ac:
        d1:7f:8c:94:8f:fd:3f:e1:2f:9a:dc:1e:36:94:50:6d:3b:7a:
        d4:cb:19:78:ba:f3:b8:c5:21:b3:52:7c:f3:92:fe:48:1b:52:
        71:60:45:42:12:b4:1f:47:ed:32:4b:7a:92:18:e9:2b:fe:a4:
        98:23:5b:f4:0f:54:6b:e1:0a:9d:b3:7c:5e:72:9d:8a:97:20:
        c6:51:6a:a5:d6:82:0d:f1:47:4c:49:8a:f7:b6:34:ca:db:c1:
        a2:fc:ab:b7:a8:e9:57:b7:c4:6f:1a:09:9e:b3:35:06:b2:6e:
        7c:2a:3f:f2:7c:02:44:0d:8f:a8:e7:4c:83:d4:b8:48:31:04:
        0b:0d:89:25
-----BEGIN CERTIFICATE-----
MIIDWTCCAkGgAwIBAgIQRdbt9SgeEvmYFJsPuY5iAjANBgkqhkiG9w0BAQsFADAV
MRMwEQYDVQQDDAp0ZWFtNDgtbmV0MB4XDTIzMTEwNDEwNDEwN1oXDTI2MTAxOTEw
NDEwN1owGDEWMBQGA1UEAwwNdGVhbTQ4LWNsaWVudDCCASIwDQYJKoZIhvcNAQEB
BQADggEPADCCAQoCggEBAKspYDwiBQFJnZipb/K4DJnr4fxUOuy7MHieanCZY/dn
mYD/FRef4uhHYLFxMoIX7kTgYHU6O/yZ6I/LPyzv52h28snb8ADVaHvi/956SDgc
gtmtsEhgwQczA81RalryTkqc3MRum2fLb2PlPnYveRrgoOvQwMuRffkdB28FPSnJ
vPaXvjRB5Bs3Em8+MNyG7udSZZ01r5G5Vs6tTOYV/+Zxv2Y0Wepq2i44MqQLOaqO
3g85is/DGsWwCESpDMBc6MuLovVZCXKIaXH7M9B6/D+0EBCMndHs+HETQYxpn9Zy
s8S3Ldo7+ckTufVKlACNpZUPNfDISyg4lRWOwQMPRasCAwEAAaOBoTCBnjAJBgNV
HRMEAjAAMB0GA1UdDgQWBBQRqF5FBOiFT1Ho7T3ZoRYf1SfYVzBQBgNVHSMESTBH
gBQf0AMwQt8AsOziMMVMHcP8jocMe6EZpBcwFTETMBEGA1UEAwwKdGVhbTQ4LW5l
dIIUTJJGLu9SmShHJUANEDYVZ8cBc0QwEwYDVR0lBAwwCgYIKwYBBQUHAwIwCwYD
VR0PBAQDAgeAMA0GCSqGSIb3DQEBCwUAA4IBAQCp+Q3frE8jaRjnt94NurUDvmZn
KC5BnMeWmsluKISLD15TshiFc/KpP8C9EsUdbc4sUyxQCTsiTWoVuxr9fXaexTBw
aVAtlqtwyGNIEZR0LQyfO6UWznaSOA9Wu2cOdDDVXkLR35UQ3u4XYH+3eY8abokz
xd7t7Wjbem9L3qzRf4yUj/0/4S+a3B42lFBtO3rUyxl4uvO4xSGzUnzzkv5IG1Jx
YEVCErQfR+0yS3qSGOkr/qSYI1v0D1Rr4Qqds3xecp2KlyDGUWql1oIN8UdMSYr3
tjTK28Gi/Ku3qOlXt8RvGgmeszUGsm58Kj/yfAJEDY+o50yD1LhIMQQLDYkl
-----END CERTIFICATE-----
