Certificate:
    Data:
        Version: 3 (0x2)
        Serial Number:
            d8:63:bf:ca:b0:07:72:73:83:93:b3:72:63:9a:15:b7
        Signature Algorithm: sha256WithRSAEncryption
        Issuer: CN=team48-net
        Validity
            Not Before: Nov  4 11:28:18 2023 GMT
            Not After : Oct 19 11:28:18 2026 GMT
        Subject: CN=team48-server
        Subject Public Key Info:
            Public Key Algorithm: rsaEncryption
                Public-Key: (2048 bit)
                Modulus:
                    00:bb:c1:45:8c:67:5f:b4:11:ff:12:28:23:10:52:
                    18:c1:00:14:e5:91:19:2b:c7:39:c1:51:04:03:64:
                    dc:15:2d:7a:04:4e:fb:7b:f4:a6:9d:9c:81:6b:c8:
                    42:77:7c:9d:fb:44:32:b6:a7:73:58:cf:4a:ba:ba:
                    80:3a:2e:0f:40:a4:7a:50:d4:6f:74:85:cc:da:b0:
                    4e:f7:92:5f:9c:dc:84:fd:7e:bc:2f:9d:d0:37:c4:
                    b5:a7:6d:ec:85:95:04:20:94:46:b9:ec:2d:ad:2d:
                    c7:70:14:cc:ca:a2:c6:31:75:a6:99:5f:18:43:cf:
                    ea:ea:52:99:b4:25:f3:84:b5:d5:35:f0:28:e0:80:
                    bb:01:35:ca:95:a2:82:82:06:f3:5c:8f:ba:5b:8f:
                    37:de:a0:fb:8a:b1:9d:ba:b7:d5:b9:f6:68:8b:bb:
                    44:2b:10:ff:c9:4a:f7:c4:68:9b:84:3f:ab:29:08:
                    c2:e1:29:aa:bd:d5:44:dd:02:72:c8:c3:be:26:c9:
                    11:ad:65:1a:0d:7b:ff:b4:56:96:a2:be:1a:c1:4f:
                    1d:3b:87:a6:88:f8:f1:80:a3:74:66:a1:45:6a:2f:
                    a8:9d:ec:57:47:23:d3:1b:5a:6b:a0:56:4d:98:13:
                    76:cb:0d:fd:00:bd:6c:53:17:98:12:5f:db:ef:e8:
                    71:55
                Exponent: 65537 (0x10001)
        X509v3 extensions:
            X509v3 Basic Constraints: 
                CA:FALSE
            X509v3 Subject Key Identifier: 
                49:F3:E1:A4:FB:0E:22:7C:EE:61:44:47:86:14:27:11:3C:63:9D:B3
            X509v3 Authority Key Identifier: 
                keyid:CD:AB:38:54:8A:B7:87:21:D5:53:34:27:F1:FB:C6:43:A4:99:5B:F6
                DirName:/CN=team48-net
                serial:43:58:6A:F7:6B:D8:1E:0F:47:04:CF:5E:FC:2F:E1:70:CF:8F:42:F9
            X509v3 Extended Key Usage: 
                TLS Web Server Authentication
            X509v3 Key Usage: 
                Digital Signature, Key Encipherment
            X509v3 Subject Alternative Name: 
                DNS:team48-server
    Signature Algorithm: sha256WithRSAEncryption
    Signature Value:
        17:79:37:13:4d:d2:fc:db:27:9e:de:fe:08:4c:8c:5d:2b:6a:
        d5:a8:12:94:57:8a:fe:bb:2f:21:9a:fe:f0:97:78:4d:7c:6e:
        43:be:9b:ac:2d:1c:63:95:9b:a3:a5:a9:6e:ab:3f:19:83:af:
        00:99:2b:70:d6:7e:ee:e8:f1:01:ad:a6:5d:db:39:67:d8:11:
        a6:fb:d7:aa:ed:ee:a0:ce:68:81:b7:fe:74:a9:5f:37:ba:35:
        6f:41:d4:62:ca:f0:85:ea:58:9b:9d:ea:9b:7b:97:ca:5d:ac:
        46:c8:fd:42:fe:b2:75:b6:56:30:e5:d4:63:a8:e0:ec:c9:a9:
        72:f3:52:d6:2d:30:e2:36:a9:80:d4:ea:95:d0:e7:03:4c:c2:
        de:ab:19:17:52:2b:10:6a:87:2b:cf:59:d2:41:19:cd:b4:da:
        bf:cf:01:a3:68:93:e4:3f:a7:a4:eb:67:75:9a:8f:c4:da:91:
        13:9b:96:17:d5:a7:55:a4:ae:2a:16:9b:c7:4e:cc:96:3a:c7:
        ad:99:46:dd:6a:a5:ea:6c:90:b2:fe:16:25:74:e4:a1:1b:d0:
        a8:76:1d:1e:ce:be:8b:53:28:2b:2d:5b:8f:6e:12:90:da:ee:
        12:ab:9c:91:fe:ec:ec:6d:ae:14:d1:8b:7d:2e:c9:8f:55:10:
        76:d4:69:66
-----BEGIN CERTIFICATE-----
MIIDdDCCAlygAwIBAgIRANhjv8qwB3Jzg5OzcmOaFbcwDQYJKoZIhvcNAQELBQAw
FTETMBEGA1UEAwwKdGVhbTQ4LW5ldDAeFw0yMzExMDQxMTI4MThaFw0yNjEwMTkx
MTI4MThaMBgxFjAUBgNVBAMMDXRlYW00OC1zZXJ2ZXIwggEiMA0GCSqGSIb3DQEB
AQUAA4IBDwAwggEKAoIBAQC7wUWMZ1+0Ef8SKCMQUhjBABTlkRkrxznBUQQDZNwV
LXoETvt79KadnIFryEJ3fJ37RDK2p3NYz0q6uoA6Lg9ApHpQ1G90hczasE73kl+c
3IT9frwvndA3xLWnbeyFlQQglEa57C2tLcdwFMzKosYxdaaZXxhDz+rqUpm0JfOE
tdU18CjggLsBNcqVooKCBvNcj7pbjzfeoPuKsZ26t9W59miLu0QrEP/JSvfEaJuE
P6spCMLhKaq91UTdAnLIw74myRGtZRoNe/+0VpaivhrBTx07h6aI+PGAo3RmoUVq
L6id7FdHI9MbWmugVk2YE3bLDf0AvWxTF5gSX9vv6HFVAgMBAAGjgbswgbgwCQYD
VR0TBAIwADAdBgNVHQ4EFgQUSfPhpPsOInzuYURHhhQnETxjnbMwUAYDVR0jBEkw
R4AUzas4VIq3hyHVUzQn8fvGQ6SZW/ahGaQXMBUxEzARBgNVBAMMCnRlYW00OC1u
ZXSCFENYavdr2B4PRwTPXvwv4XDPj0L5MBMGA1UdJQQMMAoGCCsGAQUFBwMBMAsG
A1UdDwQEAwIFoDAYBgNVHREEETAPgg10ZWFtNDgtc2VydmVyMA0GCSqGSIb3DQEB
CwUAA4IBAQAXeTcTTdL82yee3v4ITIxdK2rVqBKUV4r+uy8hmv7wl3hNfG5Dvpus
LRxjlZujpaluqz8Zg68AmStw1n7u6PEBraZd2zln2BGm+9eq7e6gzmiBt/50qV83
ujVvQdRiyvCF6libneqbe5fKXaxGyP1C/rJ1tlYw5dRjqODsyaly81LWLTDiNqmA
1OqV0OcDTMLeqxkXUisQaocrz1nSQRnNtNq/zwGjaJPkP6ek62d1mo/E2pETm5YX
1adVpK4qFpvHTsyWOsetmUbdaqXqbJCy/hYldOShG9Codh0ezr6LUygrLVuPbhKQ
2u4Sq5yR/uzsba4U0Yt9LsmPVRB21Glm
-----END CERTIFICATE-----
