Certificate:
    Data:
        Version: 3 (0x2)
        Serial Number:
            de:5a:b1:03:f3:85:cc:15:66:e5:d0:99:4f:fa:5a:25
        Signature Algorithm: sha256WithRSAEncryption
        Issuer: CN=team48-net
        Validity
            Not Before: Nov  4 11:28:18 2023 GMT
            Not After : Oct 19 11:28:18 2026 GMT
        Subject: CN=team48-client
        Subject Public Key Info:
            Public Key Algorithm: rsaEncryption
                Public-Key: (2048 bit)
                Modulus:
                    00:c6:1a:89:97:c4:57:49:6a:a7:2d:69:c6:75:68:
                    17:45:0d:78:d4:f0:eb:88:e7:b4:5c:1b:5d:30:60:
                    54:d8:18:d3:7c:62:94:ba:5d:e6:1b:9a:aa:93:cd:
                    a7:b4:b2:3a:68:b0:a5:1d:6a:ed:cb:7b:e5:63:19:
                    58:c4:a8:4a:af:ca:46:f5:42:6e:3f:fd:04:c3:c5:
                    c3:07:51:20:c2:f5:49:68:80:e8:fc:36:03:fc:a1:
                    f5:46:63:a6:90:7e:9f:b2:f6:de:53:7f:18:c1:64:
                    f2:1f:db:7a:59:8e:d1:54:f7:c8:e6:ad:68:28:57:
                    d2:c9:dd:28:56:48:8b:d8:c7:af:b2:de:9b:48:00:
                    c2:85:e3:08:51:e3:6c:58:bb:df:c9:95:60:2c:8f:
                    b0:27:66:15:65:3b:d2:c0:d3:61:88:04:af:3c:2d:
                    f4:d2:bf:38:0c:20:86:da:7f:7d:5e:d7:90:34:b2:
                    de:85:39:48:d1:7e:06:42:fb:33:09:4e:d0:53:b0:
                    b2:57:81:b4:1f:ee:d0:64:f1:54:cc:29:37:ef:69:
                    f2:e1:19:74:9a:4e:e4:f6:67:c3:4f:3e:92:e5:20:
                    a2:dd:05:78:7e:0b:44:3f:cb:e9:2a:ed:70:58:66:
                    b3:78:34:6b:f1:da:12:20:cc:ad:dc:ac:1a:2b:63:
                    15:cf
                Exponent: 65537 (0x10001)
        X509v3 extensions:
            X509v3 Basic Constraints: 
                CA:FALSE
            X509v3 Subject Key Identifier: 
                A5:BE:B7:17:2A:30:54:5F:30:CA:DC:E8:A9:76:9D:58:66:5D:36:F6
            X509v3 Authority Key Identifier: 
                keyid:CD:AB:38:54:8A:B7:87:21:D5:53:34:27:F1:FB:C6:43:A4:99:5B:F6
                DirName:/CN=team48-net
                serial:43:58:6A:F7:6B:D8:1E:0F:47:04:CF:5E:FC:2F:E1:70:CF:8F:42:F9
            X509v3 Extended Key Usage: 
                TLS Web Client Authentication
            X509v3 Key Usage: 
                Digital Signature
    Signature Algorithm: sha256WithRSAEncryption
    Signature Value:
        6f:cd:28:47:fa:9b:4b:b6:1e:d8:ae:66:d6:7e:f4:8c:4a:46:
        87:f9:d1:6e:c4:af:03:25:ed:66:7d:f3:8e:f6:c5:5d:f8:59:
        06:b2:29:c2:cd:f1:ca:b9:6b:ab:85:c0:42:34:fc:5e:3f:23:
        43:24:45:b8:0c:1e:3a:8d:cf:f4:2e:c4:2f:34:15:5f:f8:c3:
        74:3b:48:9d:b7:3a:23:85:7c:97:e0:bf:12:45:d5:2a:b8:e1:
        29:64:90:90:be:fd:4d:0b:76:3a:96:00:3d:36:4d:e4:13:09:
        26:5d:03:4c:66:6d:40:0c:05:08:d2:12:82:d5:78:6b:7a:9b:
        bf:ea:1e:97:a6:8e:e1:39:3b:b3:9b:bf:97:a6:41:37:9d:85:
        d5:57:b7:67:d7:5b:1a:00:90:83:1e:71:55:4e:12:21:23:61:
        7d:47:d9:5b:ac:64:25:0e:66:04:81:05:c1:9f:66:a5:fa:ad:
        7a:ff:f3:ea:59:2c:58:ea:0e:70:de:ba:46:6c:40:20:98:be:
        34:4d:6e:1d:5e:38:05:13:1a:3f:b3:6c:f4:63:3b:5b:0e:39:
        fd:02:6a:f4:6d:e8:dd:99:1f:83:c5:06:6a:f3:49:fe:77:55:
        76:a1:00:98:63:ba:9a:10:e2:05:11:8f:f8:13:55:1e:ae:4a:
        7e:f3:1a:9b
-----BEGIN CERTIFICATE-----
MIIDWjCCAkKgAwIBAgIRAN5asQPzhcwVZuXQmU/6WiUwDQYJKoZIhvcNAQELBQAw
FTETMBEGA1UEAwwKdGVhbTQ4LW5ldDAeFw0yMzExMDQxMTI4MThaFw0yNjEwMTkx
MTI4MThaMBgxFjAUBgNVBAMMDXRlYW00OC1jbGllbnQwggEiMA0GCSqGSIb3DQEB
AQUAA4IBDwAwggEKAoIBAQDGGomXxFdJaqctacZ1aBdFDXjU8OuI57RcG10wYFTY
GNN8YpS6XeYbmqqTzae0sjposKUdau3Le+VjGVjEqEqvykb1Qm4//QTDxcMHUSDC
9UlogOj8NgP8ofVGY6aQfp+y9t5TfxjBZPIf23pZjtFU98jmrWgoV9LJ3ShWSIvY
x6+y3ptIAMKF4whR42xYu9/JlWAsj7AnZhVlO9LA02GIBK88LfTSvzgMIIbaf31e
15A0st6FOUjRfgZC+zMJTtBTsLJXgbQf7tBk8VTMKTfvafLhGXSaTuT2Z8NPPpLl
IKLdBXh+C0Q/y+kq7XBYZrN4NGvx2hIgzK3crBorYxXPAgMBAAGjgaEwgZ4wCQYD
VR0TBAIwADAdBgNVHQ4EFgQUpb63FyowVF8wytzoqXadWGZdNvYwUAYDVR0jBEkw
R4AUzas4VIq3hyHVUzQn8fvGQ6SZW/ahGaQXMBUxEzARBgNVBAMMCnRlYW00OC1u
ZXSCFENYavdr2B4PRwTPXvwv4XDPj0L5MBMGA1UdJQQMMAoGCCsGAQUFBwMCMAsG
A1UdDwQEAwIHgDANBgkqhkiG9w0BAQsFAAOCAQEAb80oR/qbS7Ye2K5m1n70jEpG
h/nRbsSvAyXtZn3zjvbFXfhZBrIpws3xyrlrq4XAQjT8Xj8jQyRFuAweOo3P9C7E
LzQVX/jDdDtInbc6I4V8l+C/EkXVKrjhKWSQkL79TQt2OpYAPTZN5BMJJl0DTGZt
QAwFCNISgtV4a3qbv+oel6aO4Tk7s5u/l6ZBN52F1Ve3Z9dbGgCQgx5xVU4SISNh
fUfZW6xkJQ5mBIEFwZ9mpfqtev/z6lksWOoOcN66RmxAIJi+NE1uHV44BRMaP7Ns
9GM7Ww45/QJq9G3o3Zkfg8UGavNJ/ndVdqEAmGO6mhDiBRGP+BNVHq5KfvMamw==
-----END CERTIFICATE-----
