Certificate:
    Data:
        Version: 3 (0x2)
        Serial Number:
            40:f2:e0:39:fc:e7:9b:b3:57:57:18:de:c3:d9:24:13
        Signature Algorithm: sha256WithRSAEncryption
        Issuer: CN=team40-net
        Validity
            Not Before: Nov  4 11:28:09 2023 GMT
            Not After : Oct 19 11:28:09 2026 GMT
        Subject: CN=team40-client
        Subject Public Key Info:
            Public Key Algorithm: rsaEncryption
                Public-Key: (2048 bit)
                Modulus:
                    00:eb:ac:d1:68:74:87:9b:08:9c:d4:57:3d:21:68:
                    e3:f6:16:b4:9d:27:46:14:3c:59:52:98:db:57:3d:
                    fa:ce:21:b2:ef:d8:7f:e5:c9:a0:b1:04:79:bd:51:
                    fb:3c:a8:82:1e:81:a0:ea:fe:13:b2:cb:82:fc:be:
                    58:0d:f3:c1:7a:6e:eb:46:60:ca:6d:1e:1b:e2:9f:
                    c4:c8:03:33:5b:58:7c:d9:39:3d:3a:3d:b6:3f:22:
                    c5:a5:53:84:69:05:b0:44:d2:ec:f4:0a:62:0d:47:
                    79:5a:ab:10:ec:af:12:78:32:28:bc:3a:a7:f6:77:
                    d4:59:10:dc:da:e1:74:79:28:8f:93:05:f2:da:75:
                    4f:82:8d:24:6a:47:7a:b2:7f:5a:1b:1b:b4:56:62:
                    28:e3:c4:0d:ca:e9:6a:e0:42:13:ab:ce:38:b8:fe:
                    61:e8:f0:dd:3c:aa:68:36:e5:22:08:60:4f:6a:bb:
                    97:d4:e8:bb:94:95:81:d7:5a:29:3c:ff:56:9e:6a:
                    0f:e6:ec:13:01:82:07:bb:98:05:09:61:4f:88:90:
                    c9:41:62:1a:5d:aa:95:09:71:df:a2:41:6e:2f:36:
                    67:39:2b:6d:3c:6f:90:f1:a6:27:f4:e2:29:45:b0:
                    4a:a2:fb:b4:00:4a:11:7c:ab:43:74:c1:0c:44:9c:
                    f2:b1
                Exponent: 65537 (0x10001)
        X509v3 extensions:
            X509v3 Basic Constraints: 
                CA:FALSE
            X509v3 Subject Key Identifier: 
                ED:47:59:71:91:2D:72:69:81:A6:7C:33:02:CA:98:B7:66:AC:F9:B0
            X509v3 Authority Key Identifier: 
                keyid:31:08:AC:5C:02:84:84:76:76:5A:DF:77:83:FD:2D:0F:17:EF:E2:02
                DirName:/CN=team40-net
                serial:45:DC:BE:CA:F7:09:56:2A:32:AE:88:CC:18:72:B2:C4:B1:65:10:E8
            X509v3 Extended Key Usage: 
                TLS Web Client Authentication
            X509v3 Key Usage: 
                Digital Signature
    Signature Algorithm: sha256WithRSAEncryption
    Signature Value:
        55:58:72:a3:86:b6:7c:5b:c6:25:7f:77:ca:5d:a2:ed:a6:33:
        73:c8:29:00:35:f3:08:cd:01:f2:c4:1f:99:ec:5c:b5:55:fa:
        54:fd:d6:15:0c:ac:1e:ce:90:11:e4:9c:06:a5:c2:e5:b3:45:
        cb:fc:3b:ac:46:28:b7:ff:4f:a1:b8:7a:5c:77:3a:7c:84:52:
        3a:63:1f:ca:4a:d8:4c:66:4d:52:c6:3e:2b:6f:c5:49:84:1c:
        5f:40:f7:2f:dd:c1:2f:98:25:ab:33:48:56:99:ce:19:11:ac:
        c1:50:ed:80:85:81:36:17:a9:c7:c7:31:98:ad:62:4e:8c:0a:
        45:f1:35:c5:68:3b:ba:26:e0:46:a2:23:50:fb:36:2e:87:0c:
        ab:19:4f:6d:b2:cc:09:db:86:d6:f0:ca:a6:69:4d:73:27:88:
        43:29:20:36:39:01:90:da:02:0f:2c:f2:e0:a7:4e:02:14:47:
        f6:c2:7e:93:dd:84:aa:67:6b:ac:a3:55:58:f3:3b:ab:4e:b3:
        2f:a8:b8:52:28:8a:f3:5d:56:4d:8c:57:b1:66:74:3c:c9:04:
        dc:40:1a:21:34:c5:50:34:69:eb:dc:85:e7:93:22:ac:18:19:
        bb:24:0d:8b:31:30:cc:29:56:eb:ff:84:c5:ff:f9:4a:cc:bd:
        6f:eb:fb:18
-----BEGIN CERTIFICATE-----
MIIDWTCCAkGgAwIBAgIQQPLgOfznm7NXVxjew9kkEzANBgkqhkiG9w0BAQsFADAV
MRMwEQYDVQQDDAp0ZWFtNDAtbmV0MB4XDTIzMTEwNDExMjgwOVoXDTI2MTAxOTEx
MjgwOVowGDEWMBQGA1UEAwwNdGVhbTQwLWNsaWVudDCCASIwDQYJKoZIhvcNAQEB
BQADggEPADCCAQoCggEBAOus0Wh0h5sInNRXPSFo4/YWtJ0nRhQ8WVKY21c9+s4h
su/Yf+XJoLEEeb1R+zyogh6BoOr+E7LLgvy+WA3zwXpu60Zgym0eG+KfxMgDM1tY
fNk5PTo9tj8ixaVThGkFsETS7PQKYg1HeVqrEOyvEngyKLw6p/Z31FkQ3NrhdHko
j5MF8tp1T4KNJGpHerJ/WhsbtFZiKOPEDcrpauBCE6vOOLj+Yejw3TyqaDblIghg
T2q7l9Tou5SVgddaKTz/Vp5qD+bsEwGCB7uYBQlhT4iQyUFiGl2qlQlx36JBbi82
ZzkrbTxvkPGmJ/TiKUWwSqL7tABKEXyrQ3TBDESc8rECAwEAAaOBoTCBnjAJBgNV
HRMEAjAAMB0GA1UdDgQWBBTtR1lxkS1yaYGmfDMCypi3Zqz5sDBQBgNVHSMESTBH
gBQxCKxcAoSEdnZa33eD/S0PF+/iAqEZpBcwFTETMBEGA1UEAwwKdGVhbTQwLW5l
dIIURdy+yvcJVioyrojMGHKyxLFlEOgwEwYDVR0lBAwwCgYIKwYBBQUHAwIwCwYD
VR0PBAQDAgeAMA0GCSqGSIb3DQEBCwUAA4IBAQBVWHKjhrZ8W8Ylf3fKXaLtpjNz
yCkANfMIzQHyxB+Z7Fy1VfpU/dYVDKwezpAR5JwGpcLls0XL/DusRii3/0+huHpc
dzp8hFI6Yx/KSthMZk1Sxj4rb8VJhBxfQPcv3cEvmCWrM0hWmc4ZEazBUO2AhYE2
F6nHxzGYrWJOjApF8TXFaDu6JuBGoiNQ+zYuhwyrGU9tsswJ24bW8MqmaU1zJ4hD
KSA2OQGQ2gIPLPLgp04CFEf2wn6T3YSqZ2uso1VY8zurTrMvqLhSKIrzXVZNjFex
ZnQ8yQTcQBohNMVQNGnr3IXnkyKsGBm7JA2LMTDMKVbr/4TF//lKzL1v6/sY
-----END CERTIFICATE-----
