Certificate:
    Data:
        Version: 3 (0x2)
        Serial Number:
            ba:27:e8:9a:14:23:81:0a:ed:c8:1c:e7:ef:eb:78:95
        Signature Algorithm: sha256WithRSAEncryption
        Issuer: CN=team40-net
        Validity
            Not Before: Nov  3 20:39:57 2023 GMT
            Not After : Oct 18 20:39:57 2026 GMT
        Subject: CN=team40-server
        Subject Public Key Info:
            Public Key Algorithm: rsaEncryption
                Public-Key: (2048 bit)
                Modulus:
                    00:b8:ee:d3:23:b2:7f:5a:3b:67:36:1c:08:8b:0a:
                    ad:07:8e:6b:3c:9f:d3:ba:1f:ce:d4:a4:35:35:91:
                    43:8f:ab:77:c4:a7:d7:63:49:27:96:82:a5:53:9c:
                    f2:71:eb:11:a7:24:ef:20:c2:0b:90:eb:55:cb:ca:
                    df:57:ad:7f:7e:09:4a:5f:8f:cb:fe:dd:fc:7d:85:
                    d4:5a:18:31:be:29:31:6b:75:a9:eb:9f:7d:00:d0:
                    02:d5:b0:8a:01:90:59:ef:26:2a:36:4c:dd:d3:e3:
                    cd:78:7b:ac:26:c8:73:15:88:8f:9a:6c:5b:e2:56:
                    b5:ac:c9:17:9f:1f:b7:18:cb:65:a8:8c:78:cc:e9:
                    7a:16:18:b3:92:68:af:ff:fd:be:4a:be:78:2b:68:
                    7d:53:65:8f:33:0a:a0:ed:d4:ee:6f:e8:7e:9c:e5:
                    45:5b:de:ee:4a:26:23:c3:8e:dd:1c:c8:14:d5:47:
                    73:14:6c:42:c1:f9:77:0a:06:56:32:6f:dc:aa:8e:
                    a8:64:f4:c5:52:47:da:c1:9f:57:3a:8e:53:76:c7:
                    7a:92:23:a0:97:30:c8:6e:ed:ce:f7:6b:86:b4:44:
                    21:e5:b6:b9:7c:ad:5c:3c:e3:ef:99:41:56:45:5b:
                    48:b4:58:2b:9b:56:bb:7e:be:7b:70:c0:f0:a8:93:
                    b1:25
                Exponent: 65537 (0x10001)
        X509v3 extensions:
            X509v3 Basic Constraints: 
                CA:FALSE
            X509v3 Subject Key Identifier: 
                0A:C7:EF:E2:1C:86:03:54:B6:76:21:CB:CD:45:FC:2B:5B:64:98:A6
            X509v3 Authority Key Identifier: 
                keyid:B4:7D:31:4F:30:B0:13:AC:1E:57:D1:F4:93:94:E2:C5:A7:C9:51:AB
                DirName:/CN=team40-net
                serial:63:EE:4F:17:F9:0A:BB:07:6B:E8:47:A6:6A:2A:56:E6:7A:16:7C:F7
            X509v3 Extended Key Usage: 
                TLS Web Server Authentication
            X509v3 Key Usage: 
                Digital Signature, Key Encipherment
            X509v3 Subject Alternative Name: 
                DNS:team40-server
    Signature Algorithm: sha256WithRSAEncryption
    Signature Value:
        08:e7:39:a1:18:84:b0:b0:ac:c4:9d:95:69:b1:ef:74:79:5e:
        5f:3d:9f:a3:bd:75:a0:2b:be:8d:a9:f1:9e:0f:1f:bb:de:d5:
        9c:e8:59:16:71:61:3a:4b:b0:2f:b2:e4:fb:34:f3:f9:a0:5b:
        1e:4a:18:7f:ab:78:76:c3:1f:b4:8e:58:9f:9c:fb:e4:0b:d0:
        cd:c4:9a:b4:c3:cf:28:9f:57:fd:fa:80:f3:e8:70:a9:fa:9c:
        2e:22:34:ad:da:ca:b2:9e:12:b7:48:5c:94:96:61:36:b9:99:
        9f:f1:64:45:59:81:97:56:c5:02:f9:60:cc:33:14:25:8d:65:
        39:8b:eb:48:b7:4f:9c:c7:dd:b3:85:cf:42:2c:41:54:02:b9:
        60:29:10:ca:66:2b:17:a1:2d:e7:67:30:52:d7:af:05:8c:82:
        4e:0b:bd:a3:a9:bd:6a:08:9c:c3:98:16:ad:b9:ec:e7:1a:a3:
        5d:6a:ae:28:30:61:78:79:0b:ad:08:85:b4:ff:17:e5:79:12:
        04:f8:d7:d2:ce:52:46:48:1c:02:8a:10:c9:12:fe:08:ef:0d:
        4c:19:b6:4b:80:0d:b6:ec:a0:a3:7a:2b:3b:22:21:32:0b:c3:
        89:91:91:96:2a:97:37:38:34:e5:9d:85:c4:c8:dd:a6:58:78:
        73:2b:50:c2
-----BEGIN CERTIFICATE-----
MIIDdDCCAlygAwIBAgIRALon6JoUI4EK7cgc5+/reJUwDQYJKoZIhvcNAQELBQAw
FTETMBEGA1UEAwwKdGVhbTQwLW5ldDAeFw0yMzExMDMyMDM5NTdaFw0yNjEwMTgy
MDM5NTdaMBgxFjAUBgNVBAMMDXRlYW00MC1zZXJ2ZXIwggEiMA0GCSqGSIb3DQEB
AQUAA4IBDwAwggEKAoIBAQC47tMjsn9aO2c2HAiLCq0Hjms8n9O6H87UpDU1kUOP
q3fEp9djSSeWgqVTnPJx6xGnJO8gwguQ61XLyt9XrX9+CUpfj8v+3fx9hdRaGDG+
KTFrdanrn30A0ALVsIoBkFnvJio2TN3T4814e6wmyHMViI+abFviVrWsyRefH7cY
y2WojHjM6XoWGLOSaK///b5KvngraH1TZY8zCqDt1O5v6H6c5UVb3u5KJiPDjt0c
yBTVR3MUbELB+XcKBlYyb9yqjqhk9MVSR9rBn1c6jlN2x3qSI6CXMMhu7c73a4a0
RCHltrl8rVw84++ZQVZFW0i0WCubVrt+vntwwPCok7ElAgMBAAGjgbswgbgwCQYD
VR0TBAIwADAdBgNVHQ4EFgQUCsfv4hyGA1S2diHLzUX8K1tkmKYwUAYDVR0jBEkw
R4AUtH0xTzCwE6weV9H0k5TixafJUauhGaQXMBUxEzARBgNVBAMMCnRlYW00MC1u
ZXSCFGPuTxf5CrsHa+hHpmoqVuZ6Fnz3MBMGA1UdJQQMMAoGCCsGAQUFBwMBMAsG
A1UdDwQEAwIFoDAYBgNVHREEETAPgg10ZWFtNDAtc2VydmVyMA0GCSqGSIb3DQEB
CwUAA4IBAQAI5zmhGISwsKzEnZVpse90eV5fPZ+jvXWgK76NqfGeDx+73tWc6FkW
cWE6S7AvsuT7NPP5oFseShh/q3h2wx+0jlifnPvkC9DNxJq0w88on1f9+oDz6HCp
+pwuIjSt2sqynhK3SFyUlmE2uZmf8WRFWYGXVsUC+WDMMxQljWU5i+tIt0+cx92z
hc9CLEFUArlgKRDKZisXoS3nZzBS168FjIJOC72jqb1qCJzDmBatueznGqNdaq4o
MGF4eQutCIW0/xfleRIE+NfSzlJGSBwCihDJEv4I7w1MGbZLgA227KCjeis7IiEy
C8OJkZGWKpc3ODTlnYXEyN2mWHhzK1DC
-----END CERTIFICATE-----
