Certificate:
    Data:
        Version: 3 (0x2)
        Serial Number:
            f7:20:36:d3:a5:62:ed:bb:bc:e4:90:93:5e:d0:b2:4a
        Signature Algorithm: sha256WithRSAEncryption
        Issuer: CN=team40-net
        Validity
            Not Before: Nov  4 11:28:09 2023 GMT
            Not After : Oct 19 11:28:09 2026 GMT
        Subject: CN=team40-server
        Subject Public Key Info:
            Public Key Algorithm: rsaEncryption
                Public-Key: (2048 bit)
                Modulus:
                    00:c6:01:84:ce:a1:f2:39:97:a1:63:dd:4b:25:c6:
                    09:ad:3f:b8:dc:c8:4c:31:52:17:af:d4:4a:3a:3c:
                    47:df:9b:d5:c7:6d:bf:b4:a5:98:74:68:21:5e:df:
                    ea:6c:67:fc:84:a7:fa:80:52:62:1b:86:e6:e9:30:
                    85:28:d0:ef:75:84:34:2f:17:70:54:cb:8b:6d:66:
                    c2:bc:03:e6:9d:ea:59:f4:3c:13:fd:05:96:85:8a:
                    c1:66:bf:50:94:27:d1:97:0b:e4:9d:a8:85:0e:1d:
                    c4:01:ac:44:63:d3:58:50:ed:ed:37:83:ff:17:75:
                    25:ae:28:57:88:7d:1d:11:d7:72:4f:d8:73:e2:58:
                    93:83:d3:c9:58:3b:e7:7f:97:dc:f9:a8:58:ab:5e:
                    a4:59:02:da:0d:49:70:3e:99:6c:d6:01:ce:d5:0a:
                    c4:d7:23:93:30:2d:5c:9d:40:ad:82:5d:f6:79:0b:
                    c0:2a:f6:e6:f7:7b:18:a0:b0:30:61:ca:63:18:9a:
                    9c:38:4b:42:df:4c:0f:2d:6b:f2:ba:3e:7d:77:5d:
                    f6:f0:4d:56:9b:18:06:40:c0:e2:45:58:a7:e3:4d:
                    ee:6a:2b:33:95:b4:df:cb:79:04:b4:1d:82:18:bd:
                    2b:12:b9:43:0d:9b:55:88:eb:94:9d:de:d1:d6:2e:
                    57:e3
                Exponent: 65537 (0x10001)
        X509v3 extensions:
            X509v3 Basic Constraints: 
                CA:FALSE
            X509v3 Subject Key Identifier: 
                28:0E:06:7E:7A:0D:6B:04:4E:E4:1F:18:95:C4:F3:9E:63:72:53:A5
            X509v3 Authority Key Identifier: 
                keyid:31:08:AC:5C:02:84:84:76:76:5A:DF:77:83:FD:2D:0F:17:EF:E2:02
                DirName:/CN=team40-net
                serial:45:DC:BE:CA:F7:09:56:2A:32:AE:88:CC:18:72:B2:C4:B1:65:10:E8
            X509v3 Extended Key Usage: 
                TLS Web Server Authentication
            X509v3 Key Usage: 
                Digital Signature, Key Encipherment
            X509v3 Subject Alternative Name: 
                DNS:team40-server
    Signature Algorithm: sha256WithRSAEncryption
    Signature Value:
        47:e6:9f:56:4f:86:18:bb:b1:af:e0:6f:a2:ee:71:9c:83:8d:
        fc:1b:ea:b9:10:d7:01:ed:b1:9a:7c:6f:1b:2c:03:9a:3e:37:
        73:e5:ec:46:98:b7:6c:33:24:c4:29:6f:55:e2:87:d6:57:84:
        78:ff:1b:d0:3d:c7:c5:ba:f8:09:28:83:88:2c:04:6b:c4:d2:
        cd:6a:94:a3:27:59:f5:db:ce:65:8e:82:8d:a8:33:51:e0:23:
        c1:3b:6f:8b:b3:98:1b:66:05:9d:ce:a6:ee:f2:a3:b1:80:26:
        ee:cc:b3:d6:ec:89:cc:82:6c:42:50:a4:d2:4b:ab:ed:d8:6c:
        64:18:91:28:73:1c:e2:c0:1a:78:fd:50:db:80:c4:dd:f3:75:
        84:42:81:f4:c2:44:14:dc:f5:68:a2:03:15:0e:2d:8f:a0:30:
        9a:5d:6c:ea:5b:10:0f:da:55:a5:f8:0d:2a:77:04:27:83:aa:
        72:bf:44:41:83:33:d9:07:d0:56:ac:83:74:ea:67:9c:d0:0a:
        71:36:fb:3a:33:09:4d:60:cd:a0:9c:10:30:29:b1:75:f8:97:
        cf:9e:47:c9:ad:fc:de:a2:a9:b1:9a:37:02:ac:a6:01:fc:f0:
        60:f3:8b:bc:51:aa:aa:4e:1b:45:8d:d5:d9:d1:90:0c:bc:5c:
        81:05:7b:17
-----BEGIN CERTIFICATE-----
MIIDdDCCAlygAwIBAgIRAPcgNtOlYu27vOSQk17QskowDQYJKoZIhvcNAQELBQAw
FTETMBEGA1UEAwwKdGVhbTQwLW5ldDAeFw0yMzExMDQxMTI4MDlaFw0yNjEwMTkx
MTI4MDlaMBgxFjAUBgNVBAMMDXRlYW00MC1zZXJ2ZXIwggEiMA0GCSqGSIb3DQEB
AQUAA4IBDwAwggEKAoIBAQDGAYTOofI5l6Fj3UslxgmtP7jcyEwxUhev1Eo6PEff
m9XHbb+0pZh0aCFe3+psZ/yEp/qAUmIbhubpMIUo0O91hDQvF3BUy4ttZsK8A+ad
6ln0PBP9BZaFisFmv1CUJ9GXC+SdqIUOHcQBrERj01hQ7e03g/8XdSWuKFeIfR0R
13JP2HPiWJOD08lYO+d/l9z5qFirXqRZAtoNSXA+mWzWAc7VCsTXI5MwLVydQK2C
XfZ5C8Aq9ub3exigsDBhymMYmpw4S0LfTA8ta/K6Pn13XfbwTVabGAZAwOJFWKfj
Te5qKzOVtN/LeQS0HYIYvSsSuUMNm1WI65Sd3tHWLlfjAgMBAAGjgbswgbgwCQYD
VR0TBAIwADAdBgNVHQ4EFgQUKA4GfnoNawRO5B8YlcTznmNyU6UwUAYDVR0jBEkw
R4AUMQisXAKEhHZ2Wt93g/0tDxfv4gKhGaQXMBUxEzARBgNVBAMMCnRlYW00MC1u
ZXSCFEXcvsr3CVYqMq6IzBhyssSxZRDoMBMGA1UdJQQMMAoGCCsGAQUFBwMBMAsG
A1UdDwQEAwIFoDAYBgNVHREEETAPgg10ZWFtNDAtc2VydmVyMA0GCSqGSIb3DQEB
CwUAA4IBAQBH5p9WT4YYu7Gv4G+i7nGcg438G+q5ENcB7bGafG8bLAOaPjdz5exG
mLdsMyTEKW9V4ofWV4R4/xvQPcfFuvgJKIOILARrxNLNapSjJ1n1285ljoKNqDNR
4CPBO2+Ls5gbZgWdzqbu8qOxgCbuzLPW7InMgmxCUKTSS6vt2GxkGJEocxziwBp4
/VDbgMTd83WEQoH0wkQU3PVoogMVDi2PoDCaXWzqWxAP2lWl+A0qdwQng6pyv0RB
gzPZB9BWrIN06mec0ApxNvs6MwlNYM2gnBAwKbF1+JfPnkfJrfzeoqmxmjcCrKYB
/PBg84u8UaqqThtFjdXZ0ZAMvFyBBXsX
-----END CERTIFICATE-----
