Certificate:
    Data:
        Version: 3 (0x2)
        Serial Number:
            ac:6a:7c:51:b8:36:cc:24:be:24:87:32:93:7f:42:4e
        Signature Algorithm: sha256WithRSAEncryption
        Issuer: CN=team393-net
        Validity
            Not Before: Nov  3 20:46:20 2023 GMT
            Not After : Oct 18 20:46:20 2026 GMT
        Subject: CN=team393-client
        Subject Public Key Info:
            Public Key Algorithm: rsaEncryption
                Public-Key: (2048 bit)
                Modulus:
                    00:8d:dd:9e:d6:03:28:68:a3:9c:2f:4f:df:b8:b3:
                    93:13:09:55:96:52:d2:bf:5f:8e:cc:4b:95:b8:e0:
                    5f:b2:48:d0:1a:74:02:d4:3f:2f:e6:ee:74:ff:86:
                    7f:3c:7b:f4:e3:a7:9d:77:1f:20:a2:c3:d7:d5:76:
                    08:a7:ac:59:8d:a2:6e:ae:a8:f8:7b:07:6e:aa:54:
                    1b:7c:38:3c:60:d0:38:bc:50:c2:9e:59:29:d1:73:
                    96:57:4f:12:fb:96:09:a4:49:70:fe:81:55:1c:89:
                    a1:46:3e:1a:f9:11:59:67:4b:e2:ca:2a:fb:f9:8a:
                    57:0d:12:c1:db:1a:fe:58:3f:38:3d:9c:ec:d3:b7:
                    b8:02:fb:a3:4a:93:ec:e6:2e:26:47:da:38:24:ae:
                    99:23:fa:63:2b:2d:2b:54:ab:93:49:36:58:54:88:
                    7a:ff:b5:5c:6c:8b:d2:e2:2a:ae:c6:ae:4a:57:7d:
                    7e:6d:55:35:b4:09:3e:79:ba:53:21:c5:8e:c3:58:
                    b7:e1:39:f0:89:9f:65:ea:1e:86:8f:3b:49:45:7c:
                    95:0f:cd:88:9b:0c:3a:1a:e2:16:5b:94:c2:ac:a3:
                    3c:6e:98:89:00:6b:97:25:2a:fb:30:94:30:b8:7e:
                    75:77:93:15:04:e8:24:b4:ff:a4:30:6c:4a:0d:a0:
                    fd:ad
                Exponent: 65537 (0x10001)
        X509v3 extensions:
            X509v3 Basic Constraints: 
                CA:FALSE
            X509v3 Subject Key Identifier: 
                4A:A6:C0:FE:7A:5A:FC:5D:56:24:22:9D:D4:93:F8:9B:D9:C6:04:C9
            X509v3 Authority Key Identifier: 
                keyid:DF:06:39:87:53:71:5B:D6:89:17:79:7A:89:62:A7:2B:60:89:59:75
                DirName:/CN=team393-net
                serial:78:AF:B7:ED:C4:89:AB:72:F5:F3:37:B8:6A:B7:3B:CE:51:07:56:E2
            X509v3 Extended Key Usage: 
                TLS Web Client Authentication
            X509v3 Key Usage: 
                Digital Signature
    Signature Algorithm: sha256WithRSAEncryption
    Signature Value:
        2d:d6:60:ac:ea:cd:ef:95:65:48:7e:cb:e2:22:30:c0:e7:03:
        88:f8:6c:ba:52:cb:42:66:45:c5:44:ef:0d:98:7e:36:8c:10:
        46:af:ae:09:dd:8e:be:73:96:ab:51:19:2c:8e:df:49:24:bd:
        99:de:03:b8:8d:80:7a:5a:55:c5:54:ac:14:f4:a3:28:d4:8c:
        fe:7e:f2:68:8c:cb:9a:6f:47:29:44:31:0b:96:6f:d9:d1:44:
        b4:de:6b:e4:9f:6f:3b:da:80:30:7f:94:ae:1a:bb:e4:25:ac:
        6f:35:f7:3a:9e:61:7d:c4:0f:7b:46:ef:a1:81:19:b9:4b:0a:
        11:fe:d6:9e:da:0e:9b:3d:49:5c:9b:97:a9:04:7e:2a:b4:d6:
        4a:df:16:d4:96:0a:fe:6e:f6:27:64:ac:d6:24:af:ea:47:47:
        37:70:87:6e:7a:0c:c7:20:73:ba:e3:4c:57:68:d3:2b:37:b1:
        b6:4f:3e:d6:50:ef:67:44:90:29:ca:a6:b3:57:50:59:74:5b:
        6b:9f:aa:10:0d:8c:6d:f1:aa:99:88:bc:66:0c:9e:1c:24:24:
        32:0b:24:db:84:16:97:f0:32:4a:8a:8b:aa:0d:98:d5:1b:5b:
        b1:90:25:6e:91:31:34:60:dd:54:f4:08:37:bb:fe:6f:c0:91:
        ec:30:32:3a
-----BEGIN CERTIFICATE-----
MIIDXTCCAkWgAwIBAgIRAKxqfFG4NswkviSHMpN/Qk4wDQYJKoZIhvcNAQELBQAw
FjEUMBIGA1UEAwwLdGVhbTM5My1uZXQwHhcNMjMxMTAzMjA0NjIwWhcNMjYxMDE4
MjA0NjIwWjAZMRcwFQYDVQQDDA50ZWFtMzkzLWNsaWVudDCCASIwDQYJKoZIhvcN
AQEBBQADggEPADCCAQoCggEBAI3dntYDKGijnC9P37izkxMJVZZS0r9fjsxLlbjg
X7JI0Bp0AtQ/L+budP+Gfzx79OOnnXcfIKLD19V2CKesWY2ibq6o+HsHbqpUG3w4
PGDQOLxQwp5ZKdFzlldPEvuWCaRJcP6BVRyJoUY+GvkRWWdL4soq+/mKVw0Swdsa
/lg/OD2c7NO3uAL7o0qT7OYuJkfaOCSumSP6YystK1Srk0k2WFSIev+1XGyL0uIq
rsauSld9fm1VNbQJPnm6UyHFjsNYt+E58ImfZeoeho87SUV8lQ/NiJsMOhriFluU
wqyjPG6YiQBrlyUq+zCUMLh+dXeTFQToJLT/pDBsSg2g/a0CAwEAAaOBojCBnzAJ
BgNVHRMEAjAAMB0GA1UdDgQWBBRKpsD+elr8XVYkIp3Uk/ib2cYEyTBRBgNVHSME
SjBIgBTfBjmHU3Fb1okXeXqJYqcrYIlZdaEapBgwFjEUMBIGA1UEAwwLdGVhbTM5
My1uZXSCFHivt+3Eiaty9fM3uGq3O85RB1biMBMGA1UdJQQMMAoGCCsGAQUFBwMC
MAsGA1UdDwQEAwIHgDANBgkqhkiG9w0BAQsFAAOCAQEALdZgrOrN75VlSH7L4iIw
wOcDiPhsulLLQmZFxUTvDZh+NowQRq+uCd2OvnOWq1EZLI7fSSS9md4DuI2AelpV
xVSsFPSjKNSM/n7yaIzLmm9HKUQxC5Zv2dFEtN5r5J9vO9qAMH+Urhq75CWsbzX3
Op5hfcQPe0bvoYEZuUsKEf7WntoOmz1JXJuXqQR+KrTWSt8W1JYK/m72J2Ss1iSv
6kdHN3CHbnoMxyBzuuNMV2jTKzextk8+1lDvZ0SQKcqms1dQWXRba5+qEA2MbfGq
mYi8ZgyeHCQkMgsk24QWl/AySoqLqg2Y1RtbsZAlbpExNGDdVPQIN7v+b8CR7DAy
Og==
-----END CERTIFICATE-----
