Certificate:
    Data:
        Version: 3 (0x2)
        Serial Number:
            4a:c7:72:35:a6:d1:bb:23:81:60:c2:ef:c7:d7:28:6e
        Signature Algorithm: sha256WithRSAEncryption
        Issuer: CN=team69-net
        Validity
            Not Before: Nov  4 11:28:42 2023 GMT
            Not After : Oct 19 11:28:42 2026 GMT
        Subject: CN=team69-server
        Subject Public Key Info:
            Public Key Algorithm: rsaEncryption
                Public-Key: (2048 bit)
                Modulus:
                    00:93:d1:f5:3a:a5:26:8a:c3:64:34:08:a4:2c:c5:
                    dc:ea:36:98:a4:ae:c8:e5:e4:04:f8:d1:3d:a9:1a:
                    eb:37:ea:96:2d:e2:01:83:f3:e4:e2:87:7c:5a:59:
                    cb:61:c1:c8:6b:f2:b3:bd:6e:4f:8a:17:30:fe:7e:
                    90:06:cf:31:fa:60:40:7c:e1:a8:e8:4b:81:07:db:
                    c2:b9:47:be:c9:a6:87:7f:5a:bf:f8:0d:13:fd:8d:
                    d8:cc:51:c4:2b:c0:21:5a:72:46:58:94:b0:4b:b9:
                    18:0c:85:1f:e1:0c:ef:f6:5b:0e:2a:bf:85:56:29:
                    55:b5:32:2f:f5:1f:a2:51:b3:db:5a:85:a1:8c:58:
                    eb:01:f7:66:f9:b6:84:3f:8f:be:ef:6b:ee:58:40:
                    6b:97:31:f2:62:9c:91:eb:31:a8:34:a5:cf:a9:de:
                    4b:9a:eb:34:41:72:24:72:b7:a7:90:29:f2:8c:13:
                    35:89:a4:e6:ee:8c:9b:27:4d:ce:61:bf:b9:a6:74:
                    86:01:70:6a:c1:ef:a4:7c:e2:94:2a:2a:4e:bc:2d:
                    da:7a:5d:38:81:a4:a7:57:20:ca:56:f8:cc:73:43:
                    e9:33:2f:36:1e:dd:74:37:69:7d:55:82:2d:bb:7b:
                    98:7a:b4:ad:a5:f1:2b:3e:64:91:cf:46:d4:ef:d2:
                    79:d3
                Exponent: 65537 (0x10001)
        X509v3 extensions:
            X509v3 Basic Constraints: 
                CA:FALSE
            X509v3 Subject Key Identifier: 
                BE:7F:BB:87:8C:C6:51:99:E3:43:8A:E0:CC:00:45:D3:E2:06:26:73
            X509v3 Authority Key Identifier: 
                keyid:11:AA:BD:9E:03:74:56:43:01:36:1D:33:97:20:B2:64:B7:16:38:48
                DirName:/CN=team69-net
                serial:15:4E:85:A7:5C:F1:FA:3C:77:3D:03:89:A1:57:A9:F6:E3:D1:8F:F3
            X509v3 Extended Key Usage: 
                TLS Web Server Authentication
            X509v3 Key Usage: 
                Digital Signature, Key Encipherment
            X509v3 Subject Alternative Name: 
                DNS:team69-server
    Signature Algorithm: sha256WithRSAEncryption
    Signature Value:
        c8:ef:dc:b0:ab:9a:16:01:01:2d:45:b4:14:f8:ab:e6:fe:b6:
        29:96:1b:65:c8:39:36:99:b8:73:eb:43:be:f1:95:c7:35:cd:
        d0:6a:ba:8a:2f:03:da:35:40:25:bd:d3:ab:f6:d5:fe:ea:c0:
        4d:8b:dd:7e:a9:0b:b7:e2:69:5c:67:46:32:91:32:e3:ea:2e:
        02:8e:48:da:0c:75:d8:2f:fa:15:1e:db:ee:94:19:d0:78:35:
        43:74:89:a1:58:14:d9:dd:7e:44:fa:fe:1a:dc:75:40:12:8a:
        23:5f:96:d6:d5:af:98:bc:4a:20:d2:90:fd:29:03:10:de:bf:
        f4:81:67:76:b0:15:f2:e5:e4:4b:26:46:f9:79:68:52:fc:29:
        2e:b9:a2:77:ed:a8:84:f9:6f:82:e5:15:2a:a7:04:2c:47:1f:
        58:5e:e3:77:16:22:51:95:66:ac:00:65:53:c0:60:a3:8a:28:
        b1:65:2d:3e:54:91:04:1e:8f:e3:da:b0:c7:f7:8e:34:c7:62:
        cf:c8:8e:32:bc:52:77:6e:a4:8f:d5:2d:37:51:28:3c:1d:96:
        cb:89:7e:8a:08:35:88:68:62:e7:21:d7:8b:c2:81:76:fd:3b:
        e8:69:d5:25:35:92:ba:b8:26:f6:b4:c4:6d:03:fe:95:91:dc:
        01:b3:95:a8
-----BEGIN CERTIFICATE-----
MIIDczCCAlugAwIBAgIQSsdyNabRuyOBYMLvx9cobjANBgkqhkiG9w0BAQsFADAV
MRMwEQYDVQQDDAp0ZWFtNjktbmV0MB4XDTIzMTEwNDExMjg0MloXDTI2MTAxOTEx
Mjg0MlowGDEWMBQGA1UEAwwNdGVhbTY5LXNlcnZlcjCCASIwDQYJKoZIhvcNAQEB
BQADggEPADCCAQoCggEBAJPR9TqlJorDZDQIpCzF3Oo2mKSuyOXkBPjRPaka6zfq
li3iAYPz5OKHfFpZy2HByGvys71uT4oXMP5+kAbPMfpgQHzhqOhLgQfbwrlHvsmm
h39av/gNE/2N2MxRxCvAIVpyRliUsEu5GAyFH+EM7/ZbDiq/hVYpVbUyL/UfolGz
21qFoYxY6wH3Zvm2hD+Pvu9r7lhAa5cx8mKckesxqDSlz6neS5rrNEFyJHK3p5Ap
8owTNYmk5u6MmydNzmG/uaZ0hgFwasHvpHzilCoqTrwt2npdOIGkp1cgylb4zHND
6TMvNh7ddDdpfVWCLbt7mHq0raXxKz5kkc9G1O/SedMCAwEAAaOBuzCBuDAJBgNV
HRMEAjAAMB0GA1UdDgQWBBS+f7uHjMZRmeNDiuDMAEXT4gYmczBQBgNVHSMESTBH
gBQRqr2eA3RWQwE2HTOXILJktxY4SKEZpBcwFTETMBEGA1UEAwwKdGVhbTY5LW5l
dIIUFU6Fp1zx+jx3PQOJoVep9uPRj/MwEwYDVR0lBAwwCgYIKwYBBQUHAwEwCwYD
VR0PBAQDAgWgMBgGA1UdEQQRMA+CDXRlYW02OS1zZXJ2ZXIwDQYJKoZIhvcNAQEL
BQADggEBAMjv3LCrmhYBAS1FtBT4q+b+timWG2XIOTaZuHPrQ77xlcc1zdBquoov
A9o1QCW906v21f7qwE2L3X6pC7fiaVxnRjKRMuPqLgKOSNoMddgv+hUe2+6UGdB4
NUN0iaFYFNndfkT6/hrcdUASiiNfltbVr5i8SiDSkP0pAxDev/SBZ3awFfLl5Esm
Rvl5aFL8KS65onftqIT5b4LlFSqnBCxHH1he43cWIlGVZqwAZVPAYKOKKLFlLT5U
kQQej+PasMf3jjTHYs/IjjK8UndupI/VLTdRKDwdlsuJfooINYhoYuch14vCgXb9
O+hp1SU1krq4Jva0xG0D/pWR3AGzlag=
-----END CERTIFICATE-----
