Certificate:
    Data:
        Version: 3 (0x2)
        Serial Number:
            70:ec:fe:bd:da:ea:32:39:41:ef:3b:b2:ef:44:d0:77
        Signature Algorithm: sha256WithRSAEncryption
        Issuer: CN=team69-net
        Validity
            Not Before: Nov  3 20:40:25 2023 GMT
            Not After : Oct 18 20:40:25 2026 GMT
        Subject: CN=team69-server
        Subject Public Key Info:
            Public Key Algorithm: rsaEncryption
                Public-Key: (2048 bit)
                Modulus:
                    00:ad:15:17:17:5c:1a:c6:44:cc:54:0c:57:55:8c:
                    cc:29:8c:2c:6e:21:64:99:50:cf:a7:99:b8:78:cd:
                    09:23:f0:2a:82:79:29:d4:5d:d6:b4:55:3c:d6:d5:
                    33:2d:be:55:8c:7b:ab:de:2b:3e:1f:94:31:6c:4d:
                    66:53:26:20:4c:00:0c:36:ca:d1:53:c2:a2:62:12:
                    6d:e9:16:88:3f:4d:d2:42:7d:55:65:a7:8d:1a:ee:
                    0b:c4:8b:85:6c:3c:a2:9f:ec:74:21:43:27:3e:a9:
                    db:f0:59:71:81:85:00:3d:32:80:38:c5:e7:29:e9:
                    4a:b0:c7:50:d6:bf:65:4d:ee:5e:52:a4:4c:57:d9:
                    fb:6f:bc:cf:16:07:fe:6f:79:79:09:72:c0:d8:f5:
                    22:36:d9:c9:eb:60:25:f0:78:73:e1:94:3c:ec:ac:
                    6d:10:81:93:1c:e9:26:92:5a:b8:d7:fd:c2:ef:fb:
                    cd:27:53:44:7b:34:a4:9a:b6:d9:51:c7:c1:25:0c:
                    52:ce:6e:9d:d4:9f:58:4c:3a:59:70:58:58:e1:0e:
                    bc:3d:f5:90:91:d6:e3:06:49:14:44:45:eb:2a:f2:
                    e6:c1:7f:f4:5d:6c:b2:f3:25:86:17:37:e4:6b:cb:
                    4f:67:1e:de:e4:e9:49:45:76:a3:3b:e3:bb:bd:4c:
                    1c:3d
                Exponent: 65537 (0x10001)
        X509v3 extensions:
            X509v3 Basic Constraints: 
                CA:FALSE
            X509v3 Subject Key Identifier: 
                72:FE:70:6E:0C:76:50:A7:BF:DD:67:15:B1:ED:A6:CE:06:26:26:FC
            X509v3 Authority Key Identifier: 
                keyid:C9:E1:6B:B7:E0:D5:F4:FD:23:53:0B:ED:C8:B7:59:EF:81:62:DB:71
                DirName:/CN=team69-net
                serial:65:98:78:EC:16:FD:5F:2B:1D:8E:90:98:19:67:BA:9D:1B:31:DD:18
            X509v3 Extended Key Usage: 
                TLS Web Server Authentication
            X509v3 Key Usage: 
                Digital Signature, Key Encipherment
            X509v3 Subject Alternative Name: 
                DNS:team69-server
    Signature Algorithm: sha256WithRSAEncryption
    Signature Value:
        3e:e4:b3:e3:e5:0d:9c:d4:f6:4b:e8:23:c0:3e:35:bf:90:b4:
        ef:7f:d8:f3:b2:33:3c:74:52:61:ef:cf:44:82:99:4a:30:35:
        6e:43:dd:c5:c5:cd:48:59:35:0f:20:33:51:6c:87:f8:aa:83:
        5a:3b:5f:b4:a5:6e:33:c3:c0:cd:8e:cb:7e:93:fc:d2:4e:04:
        ea:c9:5c:de:c7:6e:d2:27:2f:0a:2c:3f:62:cf:7f:85:d1:7b:
        0c:85:94:e2:8b:11:6d:27:64:b7:21:70:7b:59:b5:65:6f:54:
        02:98:f7:e0:55:40:a1:49:9c:5f:9f:9d:c7:68:f2:b5:81:84:
        02:fb:b2:79:c5:11:3f:b9:f4:95:e4:ed:73:c8:41:90:2a:b3:
        97:1f:b1:74:65:af:1b:60:a7:c7:cf:d8:9e:81:ca:07:9c:61:
        b7:3d:09:78:69:5f:f3:53:99:4e:31:e4:00:6a:49:a9:f4:dd:
        03:8f:a3:31:d1:2a:7a:90:bc:d3:f5:b3:a4:dc:94:67:d0:fe:
        b0:b1:d4:f2:27:26:53:c9:13:de:15:9f:26:cb:b5:9f:6a:58:
        f5:12:ae:ec:3b:57:97:1b:ba:1c:38:e0:80:06:60:ea:e6:64:
        a5:d6:a2:f5:3a:44:ee:5c:5a:df:fb:67:29:84:fb:0b:84:bf:
        64:6c:97:4d
-----BEGIN CERTIFICATE-----
MIIDczCCAlugAwIBAgIQcOz+vdrqMjlB7zuy70TQdzANBgkqhkiG9w0BAQsFADAV
MRMwEQYDVQQDDAp0ZWFtNjktbmV0MB4XDTIzMTEwMzIwNDAyNVoXDTI2MTAxODIw
NDAyNVowGDEWMBQGA1UEAwwNdGVhbTY5LXNlcnZlcjCCASIwDQYJKoZIhvcNAQEB
BQADggEPADCCAQoCggEBAK0VFxdcGsZEzFQMV1WMzCmMLG4hZJlQz6eZuHjNCSPw
KoJ5KdRd1rRVPNbVMy2+VYx7q94rPh+UMWxNZlMmIEwADDbK0VPComISbekWiD9N
0kJ9VWWnjRruC8SLhWw8op/sdCFDJz6p2/BZcYGFAD0ygDjF5ynpSrDHUNa/ZU3u
XlKkTFfZ+2+8zxYH/m95eQlywNj1IjbZyetgJfB4c+GUPOysbRCBkxzpJpJauNf9
wu/7zSdTRHs0pJq22VHHwSUMUs5undSfWEw6WXBYWOEOvD31kJHW4wZJFERF6yry
5sF/9F1ssvMlhhc35GvLT2ce3uTpSUV2ozvju71MHD0CAwEAAaOBuzCBuDAJBgNV
HRMEAjAAMB0GA1UdDgQWBBRy/nBuDHZQp7/dZxWx7abOBiYm/DBQBgNVHSMESTBH
gBTJ4Wu34NX0/SNTC+3It1nvgWLbcaEZpBcwFTETMBEGA1UEAwwKdGVhbTY5LW5l
dIIUZZh47Bb9XysdjpCYGWe6nRsx3RgwEwYDVR0lBAwwCgYIKwYBBQUHAwEwCwYD
VR0PBAQDAgWgMBgGA1UdEQQRMA+CDXRlYW02OS1zZXJ2ZXIwDQYJKoZIhvcNAQEL
BQADggEBAD7ks+PlDZzU9kvoI8A+Nb+QtO9/2POyMzx0UmHvz0SCmUowNW5D3cXF
zUhZNQ8gM1Fsh/iqg1o7X7SlbjPDwM2Oy36T/NJOBOrJXN7HbtInLwosP2LPf4XR
ewyFlOKLEW0nZLchcHtZtWVvVAKY9+BVQKFJnF+fncdo8rWBhAL7snnFET+59JXk
7XPIQZAqs5cfsXRlrxtgp8fP2J6BygecYbc9CXhpX/NTmU4x5ABqSan03QOPozHR
KnqQvNP1s6TclGfQ/rCx1PInJlPJE94VnybLtZ9qWPUSruw7V5cbuhw44IAGYOrm
ZKXWovU6RO5cWt/7ZymE+wuEv2Rsl00=
-----END CERTIFICATE-----
