Certificate:
    Data:
        Version: 3 (0x2)
        Serial Number:
            83:1f:ea:a0:92:79:d1:47:85:2b:85:b8:71:29:42:0e
        Signature Algorithm: sha256WithRSAEncryption
        Issuer: CN=team69-net
        Validity
            Not Before: Nov  4 10:41:38 2023 GMT
            Not After : Oct 19 10:41:38 2026 GMT
        Subject: CN=team69-server
        Subject Public Key Info:
            Public Key Algorithm: rsaEncryption
                Public-Key: (2048 bit)
                Modulus:
                    00:b0:93:c7:ed:50:cb:fb:16:f3:71:fe:22:30:63:
                    60:81:4c:fe:21:43:e8:b5:ae:66:3f:32:6d:25:39:
                    ce:30:e4:ee:3e:44:ab:81:f0:a1:1f:83:d7:85:ab:
                    eb:81:98:80:01:43:1b:1b:80:d4:43:ea:be:d1:af:
                    c4:fb:02:13:51:19:54:0a:8e:af:6e:44:b1:58:27:
                    d7:61:a6:cc:64:11:64:42:dd:7f:b5:22:2c:fe:69:
                    0d:e2:76:08:05:fe:ae:c8:47:7e:92:37:73:be:a4:
                    16:93:6d:d9:6a:8d:60:b7:1e:43:3c:64:55:f1:11:
                    87:d1:bf:fb:b4:09:4d:0e:ca:b8:4e:e3:8b:2e:4e:
                    c1:a0:4b:52:be:fd:f8:4d:ce:85:89:f4:cb:ef:6f:
                    54:6a:86:f9:a3:f2:90:c0:d6:7d:a1:77:f7:a8:92:
                    00:bf:4f:20:cc:66:0b:fa:d8:29:b8:90:54:e0:9f:
                    59:47:fc:48:6e:c4:c2:96:7d:2e:d5:eb:27:a1:ff:
                    5d:ce:cc:e0:85:3b:49:74:93:2c:b5:93:b4:b6:62:
                    35:f3:13:de:e0:0f:c4:b6:16:fb:1b:5b:33:ae:97:
                    20:ed:e9:c4:78:ac:d3:0f:da:ed:1d:66:11:e7:44:
                    cf:cb:0b:58:41:53:a6:5e:2e:e9:6a:64:97:49:a4:
                    37:83
                Exponent: 65537 (0x10001)
        X509v3 extensions:
            X509v3 Basic Constraints: 
                CA:FALSE
            X509v3 Subject Key Identifier: 
                17:F0:9C:32:A9:10:15:B0:AE:81:15:7E:41:96:CE:CE:A6:C5:D4:73
            X509v3 Authority Key Identifier: 
                keyid:7A:4F:5C:F6:C4:1A:EC:E4:BF:FF:6A:C6:1F:1E:60:61:F7:08:50:63
                DirName:/CN=team69-net
                serial:27:41:8E:44:B3:90:3F:4E:39:6A:F8:39:31:1E:FE:26:E4:69:29:DE
            X509v3 Extended Key Usage: 
                TLS Web Server Authentication
            X509v3 Key Usage: 
                Digital Signature, Key Encipherment
            X509v3 Subject Alternative Name: 
                DNS:team69-server
    Signature Algorithm: sha256WithRSAEncryption
    Signature Value:
        1a:ac:f9:4c:8a:3a:83:99:e7:33:2b:9e:1b:5c:23:c2:50:56:
        92:6f:bf:09:d7:a1:e3:9b:f6:5c:00:87:26:ed:22:67:d7:ee:
        c9:79:df:87:33:4e:be:ba:b4:a5:06:68:b0:05:ba:f5:a0:1d:
        ac:17:6d:45:55:fc:6d:4c:70:7a:ef:df:2f:99:28:66:a7:40:
        52:73:f7:91:55:a0:df:29:f3:07:e3:02:b6:d4:ac:0e:78:28:
        a7:77:b0:7b:7e:29:bb:8f:5c:b4:da:e7:03:e3:93:88:a8:74:
        5c:71:43:46:43:c8:0d:14:a2:cd:9e:37:1c:4a:11:1a:16:96:
        cf:e1:84:c4:13:b8:b6:60:ed:00:70:4a:cd:9c:c7:2f:18:78:
        07:7f:05:94:f4:fd:18:32:11:ae:5b:02:52:98:88:a5:d3:ea:
        9b:51:67:75:ea:78:c4:b7:37:ef:11:9b:93:c3:8c:f0:83:84:
        bc:79:b9:0f:a3:d0:6f:fe:2c:bc:cd:8d:50:d9:91:39:a6:38:
        a6:f8:40:8f:81:d5:e2:f3:6f:c8:79:07:40:96:ae:c6:8d:99:
        84:e6:0f:16:e6:29:18:3a:11:8b:da:ab:60:5e:03:3a:8d:e8:
        ea:cf:1f:0f:49:75:6b:f2:b3:09:56:1e:1f:fe:fa:78:c4:44:
        fe:50:cd:16
-----BEGIN CERTIFICATE-----
MIIDdDCCAlygAwIBAgIRAIMf6qCSedFHhSuFuHEpQg4wDQYJKoZIhvcNAQELBQAw
FTETMBEGA1UEAwwKdGVhbTY5LW5ldDAeFw0yMzExMDQxMDQxMzhaFw0yNjEwMTkx
MDQxMzhaMBgxFjAUBgNVBAMMDXRlYW02OS1zZXJ2ZXIwggEiMA0GCSqGSIb3DQEB
AQUAA4IBDwAwggEKAoIBAQCwk8ftUMv7FvNx/iIwY2CBTP4hQ+i1rmY/Mm0lOc4w
5O4+RKuB8KEfg9eFq+uBmIABQxsbgNRD6r7Rr8T7AhNRGVQKjq9uRLFYJ9dhpsxk
EWRC3X+1Iiz+aQ3idggF/q7IR36SN3O+pBaTbdlqjWC3HkM8ZFXxEYfRv/u0CU0O
yrhO44suTsGgS1K+/fhNzoWJ9Mvvb1Rqhvmj8pDA1n2hd/eokgC/TyDMZgv62Cm4
kFTgn1lH/EhuxMKWfS7V6yeh/13OzOCFO0l0kyy1k7S2YjXzE97gD8S2FvsbWzOu
lyDt6cR4rNMP2u0dZhHnRM/LC1hBU6ZeLulqZJdJpDeDAgMBAAGjgbswgbgwCQYD
VR0TBAIwADAdBgNVHQ4EFgQUF/CcMqkQFbCugRV+QZbOzqbF1HMwUAYDVR0jBEkw
R4AUek9c9sQa7OS//2rGHx5gYfcIUGOhGaQXMBUxEzARBgNVBAMMCnRlYW02OS1u
ZXSCFCdBjkSzkD9OOWr4OTEe/ibkaSneMBMGA1UdJQQMMAoGCCsGAQUFBwMBMAsG
A1UdDwQEAwIFoDAYBgNVHREEETAPgg10ZWFtNjktc2VydmVyMA0GCSqGSIb3DQEB
CwUAA4IBAQAarPlMijqDmeczK54bXCPCUFaSb78J16Hjm/ZcAIcm7SJn1+7Jed+H
M06+urSlBmiwBbr1oB2sF21FVfxtTHB6798vmShmp0BSc/eRVaDfKfMH4wK21KwO
eCind7B7fim7j1y02ucD45OIqHRccUNGQ8gNFKLNnjccShEaFpbP4YTEE7i2YO0A
cErNnMcvGHgHfwWU9P0YMhGuWwJSmIil0+qbUWd16njEtzfvEZuTw4zwg4S8ebkP
o9Bv/iy8zY1Q2ZE5pjim+ECPgdXi82/IeQdAlq7GjZmE5g8W5ikYOhGL2qtgXgM6
jejqzx8PSXVr8rMJVh4f/vp4xET+UM0W
-----END CERTIFICATE-----
