Certificate:
    Data:
        Version: 3 (0x2)
        Serial Number:
            a1:0d:51:73:01:64:c8:41:a0:34:17:f8:7c:ae:c4:fc
        Signature Algorithm: sha256WithRSAEncryption
        Issuer: CN=team69-net
        Validity
            Not Before: Nov  4 10:41:37 2023 GMT
            Not After : Oct 19 10:41:37 2026 GMT
        Subject: CN=team69-client
        Subject Public Key Info:
            Public Key Algorithm: rsaEncryption
                Public-Key: (2048 bit)
                Modulus:
                    00:c3:52:5c:27:25:39:af:4f:9e:e8:c6:22:45:51:
                    5f:17:4b:88:37:f1:9c:cb:ca:67:9b:19:89:87:2a:
                    ef:04:96:d1:d9:01:f5:0a:ef:51:db:81:d5:46:36:
                    c8:36:88:0f:7d:cb:5f:83:47:d9:06:32:b4:b0:65:
                    76:4a:26:b7:2d:26:a6:cd:b3:2c:f5:dd:97:58:c6:
                    a8:c8:d3:95:3e:79:8b:73:ea:70:44:12:8d:3d:4a:
                    62:ee:7a:69:c3:15:8b:dc:c6:b4:2f:55:2c:e1:83:
                    3c:1a:1d:75:50:20:d2:db:d1:f4:e1:01:c5:0c:e8:
                    b1:ca:11:39:4f:ca:40:77:9b:51:3c:c1:12:85:6e:
                    87:7e:aa:4f:32:05:9a:6f:34:b7:76:9e:c3:79:cb:
                    da:10:2c:b9:45:43:6b:81:b5:86:bf:de:d9:bb:f6:
                    87:3d:61:6d:ff:8a:c7:6b:78:13:60:2c:be:09:39:
                    13:4a:cc:54:b1:76:49:13:b8:32:47:6b:d8:0a:27:
                    02:a6:e8:b7:8c:c7:18:9c:24:ce:e9:53:4f:35:f6:
                    f2:a4:73:6e:a0:45:32:ca:d5:b8:1b:3f:f7:7e:1e:
                    6a:f5:c1:70:00:7f:14:9f:b1:30:09:35:8d:09:99:
                    7b:4e:c6:22:5e:3f:cd:8c:13:09:53:06:1e:e6:81:
                    32:d9
                Exponent: 65537 (0x10001)
        X509v3 extensions:
            X509v3 Basic Constraints: 
                CA:FALSE
            X509v3 Subject Key Identifier: 
                CB:14:9E:8C:17:FF:F4:37:18:47:64:E1:CC:2F:0C:96:29:3D:4B:61
            X509v3 Authority Key Identifier: 
                keyid:7A:4F:5C:F6:C4:1A:EC:E4:BF:FF:6A:C6:1F:1E:60:61:F7:08:50:63
                DirName:/CN=team69-net
                serial:27:41:8E:44:B3:90:3F:4E:39:6A:F8:39:31:1E:FE:26:E4:69:29:DE
            X509v3 Extended Key Usage: 
                TLS Web Client Authentication
            X509v3 Key Usage: 
                Digital Signature
    Signature Algorithm: sha256WithRSAEncryption
    Signature Value:
        1c:3d:b3:47:e1:fe:b6:37:10:b4:97:dd:d2:b5:d2:7f:3e:34:
        82:26:7f:2c:3c:f1:51:b8:b6:22:78:60:77:4f:62:85:4b:fa:
        50:af:31:cf:89:e2:47:9d:39:db:69:30:9e:ed:8d:08:48:8f:
        5b:90:af:c2:4a:57:8e:09:de:4b:e2:3b:cd:95:0f:5d:8a:f5:
        d1:ec:8a:c0:bd:1f:a9:88:0d:2a:56:65:cd:e0:01:bc:98:32:
        13:3e:3e:fd:c5:e1:35:88:04:34:3d:7a:39:4e:a8:f2:b0:bf:
        0c:5c:dc:19:fa:c9:d8:b0:07:f8:0f:1c:72:35:98:99:45:fd:
        8e:01:d3:df:4a:fc:4d:aa:88:a1:8f:e9:ba:23:29:38:40:42:
        fa:10:cc:2a:28:30:e9:1a:02:04:9c:0c:fd:fc:bf:d2:8a:f0:
        c4:91:81:40:7e:7d:37:81:01:7f:fd:79:74:34:69:54:e1:ec:
        41:81:92:96:ac:ef:fc:d9:c2:2c:96:fb:55:41:a1:06:e4:5b:
        97:4b:d3:7c:bc:78:eb:f7:31:ad:21:cd:1e:5f:c2:68:af:1a:
        c8:ea:b9:77:c2:6e:1b:b1:fa:76:5a:70:2d:10:fc:3d:b7:a2:
        a7:86:d0:4f:f2:09:8b:a1:89:68:07:7b:1e:e5:87:d1:da:56:
        5b:29:d1:27
-----BEGIN CERTIFICATE-----
MIIDWjCCAkKgAwIBAgIRAKENUXMBZMhBoDQX+HyuxPwwDQYJKoZIhvcNAQELBQAw
FTETMBEGA1UEAwwKdGVhbTY5LW5ldDAeFw0yMzExMDQxMDQxMzdaFw0yNjEwMTkx
MDQxMzdaMBgxFjAUBgNVBAMMDXRlYW02OS1jbGllbnQwggEiMA0GCSqGSIb3DQEB
AQUAA4IBDwAwggEKAoIBAQDDUlwnJTmvT57oxiJFUV8XS4g38ZzLymebGYmHKu8E
ltHZAfUK71HbgdVGNsg2iA99y1+DR9kGMrSwZXZKJrctJqbNsyz13ZdYxqjI05U+
eYtz6nBEEo09SmLuemnDFYvcxrQvVSzhgzwaHXVQINLb0fThAcUM6LHKETlPykB3
m1E8wRKFbod+qk8yBZpvNLd2nsN5y9oQLLlFQ2uBtYa/3tm79oc9YW3/isdreBNg
LL4JORNKzFSxdkkTuDJHa9gKJwKm6LeMxxicJM7pU0819vKkc26gRTLK1bgbP/d+
Hmr1wXAAfxSfsTAJNY0JmXtOxiJeP82MEwlTBh7mgTLZAgMBAAGjgaEwgZ4wCQYD
VR0TBAIwADAdBgNVHQ4EFgQUyxSejBf/9DcYR2ThzC8Mlik9S2EwUAYDVR0jBEkw
R4AUek9c9sQa7OS//2rGHx5gYfcIUGOhGaQXMBUxEzARBgNVBAMMCnRlYW02OS1u
ZXSCFCdBjkSzkD9OOWr4OTEe/ibkaSneMBMGA1UdJQQMMAoGCCsGAQUFBwMCMAsG
A1UdDwQEAwIHgDANBgkqhkiG9w0BAQsFAAOCAQEAHD2zR+H+tjcQtJfd0rXSfz40
giZ/LDzxUbi2Inhgd09ihUv6UK8xz4niR50522kwnu2NCEiPW5CvwkpXjgneS+I7
zZUPXYr10eyKwL0fqYgNKlZlzeABvJgyEz4+/cXhNYgEND16OU6o8rC/DFzcGfrJ
2LAH+A8ccjWYmUX9jgHT30r8TaqIoY/puiMpOEBC+hDMKigw6RoCBJwM/fy/0orw
xJGBQH59N4EBf/15dDRpVOHsQYGSlqzv/NnCLJb7VUGhBuRbl0vTfLx46/cxrSHN
Hl/CaK8ayOq5d8JuG7H6dlpwLRD8Pbeip4bQT/IJi6GJaAd7HuWH0dpWWynRJw==
-----END CERTIFICATE-----
