Certificate:
    Data:
        Version: 3 (0x2)
        Serial Number:
            75:d1:46:8f:43:c4:22:04:5e:e0:66:29:50:9e:2c:5c
        Signature Algorithm: sha256WithRSAEncryption
        Issuer: CN=team449-net
        Validity
            Not Before: Nov  4 10:48:38 2023 GMT
            Not After : Oct 19 10:48:38 2026 GMT
        Subject: CN=team449-client
        Subject Public Key Info:
            Public Key Algorithm: rsaEncryption
                Public-Key: (2048 bit)
                Modulus:
                    00:a9:e5:17:f8:22:26:72:f3:d5:aa:c8:af:f0:81:
                    d1:fe:a7:f2:54:30:d5:75:42:72:ed:5c:45:b1:cc:
                    80:79:a9:64:e4:68:37:9b:aa:bb:ae:7c:9b:a0:da:
                    54:b8:1a:e2:8e:c3:95:fe:c1:76:e2:4d:fe:3a:b5:
                    d1:b1:2b:28:11:a5:8d:9c:88:20:06:92:ff:34:63:
                    19:f0:3f:31:47:41:8b:40:de:de:f0:bf:94:90:18:
                    91:fc:32:eb:ca:26:5e:ec:80:c2:3f:cc:78:54:91:
                    b1:2a:b0:55:8f:5f:a0:28:03:fe:03:c0:a9:07:0d:
                    ec:90:94:4e:59:5d:aa:84:ce:f7:7e:44:02:f7:01:
                    59:29:69:64:57:18:db:ca:46:45:35:b2:c2:73:1d:
                    5e:ba:a1:6e:f2:3d:0b:45:c5:3f:2c:ae:d8:90:0d:
                    69:28:19:dd:32:43:44:e1:25:5a:4a:fa:18:4f:8c:
                    e7:e5:a6:60:ba:5c:fa:81:e8:2c:9a:29:6b:58:be:
                    52:ff:f3:37:36:8e:3f:3d:34:20:a8:e5:d4:6e:0d:
                    10:11:38:8a:96:7b:6f:21:f8:90:e4:32:2b:91:d5:
                    f6:cb:01:4e:27:25:f5:9a:97:7f:34:83:f5:a1:29:
                    68:ab:b4:53:34:79:bf:f0:e1:6d:20:23:ad:19:b2:
                    1b:d7
                Exponent: 65537 (0x10001)
        X509v3 extensions:
            X509v3 Basic Constraints: 
                CA:FALSE
            X509v3 Subject Key Identifier: 
                BC:13:10:11:91:7D:60:B1:77:12:AD:02:11:DB:64:B9:18:56:D1:B3
            X509v3 Authority Key Identifier: 
                keyid:32:7E:44:28:BF:55:86:85:16:8B:4F:4E:D7:40:7F:4C:D9:D9:D1:DB
                DirName:/CN=team449-net
                serial:75:DB:3A:FE:98:C9:87:61:21:4C:3F:85:7C:C1:55:AE:AE:90:AA:12
            X509v3 Extended Key Usage: 
                TLS Web Client Authentication
            X509v3 Key Usage: 
                Digital Signature
    Signature Algorithm: sha256WithRSAEncryption
    Signature Value:
        d1:c5:14:85:fb:40:54:02:ee:b8:4f:ff:b7:1a:b3:bb:34:b1:
        68:70:72:6d:8a:44:a6:79:11:4b:d6:f3:db:62:10:f9:60:cf:
        94:f4:79:e2:a8:f7:e8:0d:3c:5e:af:c2:13:4c:d7:1e:22:b8:
        35:9b:e4:7a:96:c4:d4:dc:08:97:7d:43:19:3e:2f:f5:10:1b:
        90:3c:99:f5:5e:dc:5d:b1:b7:fe:27:d0:1b:29:ef:23:78:41:
        8f:5c:35:35:31:21:67:7d:53:43:34:46:50:55:97:da:35:cc:
        06:45:56:b3:98:38:16:63:18:9b:d0:da:32:f8:98:8d:53:17:
        ea:96:5b:de:4a:f5:70:e4:73:b3:5b:c2:4e:bd:0f:df:f2:cb:
        68:98:f0:6f:bf:20:d4:45:41:5e:1a:eb:97:95:87:5b:28:c6:
        8e:7c:42:a5:36:f1:ae:a9:7f:5e:4a:c2:94:5e:b9:86:b4:5f:
        aa:ab:d0:a4:18:a8:07:aa:9e:d3:ee:17:3f:c7:52:01:65:05:
        9f:6c:ae:5b:18:e1:78:76:86:02:a4:89:36:9c:ab:6d:c3:21:
        73:27:9c:02:44:f2:6a:7e:48:74:cb:ea:ed:16:72:62:0c:c5:
        7f:1a:3e:55:bb:ee:70:8e:2f:66:4b:8e:de:02:13:9c:48:b9:
        6c:cb:3f:62
-----BEGIN CERTIFICATE-----
MIIDXDCCAkSgAwIBAgIQddFGj0PEIgRe4GYpUJ4sXDANBgkqhkiG9w0BAQsFADAW
MRQwEgYDVQQDDAt0ZWFtNDQ5LW5ldDAeFw0yMzExMDQxMDQ4MzhaFw0yNjEwMTkx
MDQ4MzhaMBkxFzAVBgNVBAMMDnRlYW00NDktY2xpZW50MIIBIjANBgkqhkiG9w0B
AQEFAAOCAQ8AMIIBCgKCAQEAqeUX+CImcvPVqsiv8IHR/qfyVDDVdUJy7VxFscyA
ealk5Gg3m6q7rnyboNpUuBrijsOV/sF24k3+OrXRsSsoEaWNnIggBpL/NGMZ8D8x
R0GLQN7e8L+UkBiR/DLryiZe7IDCP8x4VJGxKrBVj1+gKAP+A8CpBw3skJROWV2q
hM73fkQC9wFZKWlkVxjbykZFNbLCcx1euqFu8j0LRcU/LK7YkA1pKBndMkNE4SVa
SvoYT4zn5aZgulz6gegsmilrWL5S//M3No4/PTQgqOXUbg0QETiKlntvIfiQ5DIr
kdX2ywFOJyX1mpd/NIP1oSloq7RTNHm/8OFtICOtGbIb1wIDAQABo4GiMIGfMAkG
A1UdEwQCMAAwHQYDVR0OBBYEFLwTEBGRfWCxdxKtAhHbZLkYVtGzMFEGA1UdIwRK
MEiAFDJ+RCi/VYaFFotPTtdAf0zZ2dHboRqkGDAWMRQwEgYDVQQDDAt0ZWFtNDQ5
LW5ldIIUdds6/pjJh2EhTD+FfMFVrq6QqhIwEwYDVR0lBAwwCgYIKwYBBQUHAwIw
CwYDVR0PBAQDAgeAMA0GCSqGSIb3DQEBCwUAA4IBAQDRxRSF+0BUAu64T/+3GrO7
NLFocHJtikSmeRFL1vPbYhD5YM+U9HniqPfoDTxer8ITTNceIrg1m+R6lsTU3AiX
fUMZPi/1EBuQPJn1Xtxdsbf+J9AbKe8jeEGPXDU1MSFnfVNDNEZQVZfaNcwGRVaz
mDgWYxib0Noy+JiNUxfqllveSvVw5HOzW8JOvQ/f8stomPBvvyDURUFeGuuXlYdb
KMaOfEKlNvGuqX9eSsKUXrmGtF+qq9CkGKgHqp7T7hc/x1IBZQWfbK5bGOF4doYC
pIk2nKttwyFzJ5wCRPJqfkh0y+rtFnJiDMV/Gj5Vu+5wji9mS47eAhOcSLlsyz9i
-----END CERTIFICATE-----
