Certificate:
    Data:
        Version: 3 (0x2)
        Serial Number:
            f5:c1:10:12:cd:52:10:e3:42:90:3c:44:ef:96:24:fe
        Signature Algorithm: sha256WithRSAEncryption
        Issuer: CN=team449-net
        Validity
            Not Before: Nov  3 20:47:25 2023 GMT
            Not After : Oct 18 20:47:25 2026 GMT
        Subject: CN=team449-client
        Subject Public Key Info:
            Public Key Algorithm: rsaEncryption
                Public-Key: (2048 bit)
                Modulus:
                    00:98:bf:99:e8:e2:82:d6:9d:6e:de:21:8f:84:de:
                    c3:91:1e:67:87:56:c7:6a:6e:f0:ef:5a:c3:e1:d6:
                    8b:b9:0a:31:15:c8:c2:09:58:c4:69:4a:ba:58:5d:
                    e3:ff:1c:95:9c:e0:aa:73:9e:1c:24:14:bb:78:24:
                    0a:f7:e7:c9:a0:0d:9c:4f:cb:2f:e2:cf:6b:d7:b4:
                    d0:74:57:08:f5:18:95:7a:17:4a:88:54:85:16:f7:
                    36:c5:7c:80:fa:7d:7c:fe:1c:6e:cf:35:7c:e4:08:
                    53:f2:a7:08:00:58:23:d7:ca:99:ca:91:75:31:fb:
                    71:4d:32:67:2c:ba:c3:7b:f3:ea:64:b2:4b:fa:97:
                    df:35:99:e6:52:e8:7d:7a:a5:11:ad:5e:e8:df:1f:
                    2e:29:49:0a:98:49:20:34:36:40:41:4e:01:62:0a:
                    0e:f0:d5:b6:1b:39:18:29:c9:93:87:fd:ef:46:43:
                    8e:be:44:68:1a:c2:e9:a2:e1:75:d3:ea:66:22:1e:
                    f4:e7:96:91:be:2e:5d:52:b5:69:d6:3b:7a:38:1b:
                    4f:d6:a3:4c:c9:63:02:c2:67:3c:d5:4d:5b:83:12:
                    6b:67:50:b4:d3:ba:cf:51:61:7c:2c:2c:d4:82:64:
                    f3:6e:d1:c3:4b:e4:db:46:ad:9f:e7:f2:e4:22:e9:
                    16:15
                Exponent: 65537 (0x10001)
        X509v3 extensions:
            X509v3 Basic Constraints: 
                CA:FALSE
            X509v3 Subject Key Identifier: 
                89:68:57:1E:C5:F0:98:DE:88:39:E4:82:0E:1A:6E:F7:43:CB:A9:55
            X509v3 Authority Key Identifier: 
                keyid:78:B9:E6:A9:43:92:CC:A9:3A:9A:C3:11:27:AE:25:D4:2F:0E:13:CA
                DirName:/CN=team449-net
                serial:6C:0F:D9:73:2D:96:C5:D7:70:26:E1:C9:EA:6D:5F:A4:A0:23:DA:D2
            X509v3 Extended Key Usage: 
                TLS Web Client Authentication
            X509v3 Key Usage: 
                Digital Signature
    Signature Algorithm: sha256WithRSAEncryption
    Signature Value:
        7b:59:b1:1d:1b:d5:c2:aa:18:5e:c2:90:94:ef:73:81:e0:1b:
        27:03:c1:ce:66:fe:5a:04:a7:74:0b:19:bb:39:a7:32:49:5c:
        b9:64:0f:dc:31:f9:c8:00:ae:d8:9c:f4:47:55:83:ad:03:b7:
        df:ee:a9:c7:15:e6:d0:24:a3:07:95:db:ca:95:e8:79:32:0a:
        54:d7:83:8f:d7:06:c2:71:c2:dc:7a:25:c5:ff:7f:b6:39:59:
        1c:8f:de:e8:9b:b5:4c:c9:63:15:d6:18:2e:fa:ab:c9:e1:d9:
        f3:a5:ea:42:0c:96:aa:b2:ab:d3:b2:66:c4:e1:f7:2a:33:ac:
        cb:de:0a:39:4b:6c:07:cd:07:b9:e0:1c:05:db:d7:3f:48:65:
        4b:a4:b1:d6:53:05:bd:2e:48:f3:bc:b8:92:38:bd:ff:4c:0f:
        97:8f:c9:4a:35:75:21:bc:73:01:da:5f:1f:2f:a0:73:cb:6e:
        a4:f9:9e:fe:87:9b:68:bb:0c:ca:05:9d:cf:da:94:ae:b3:7a:
        77:4e:80:12:09:be:58:ed:40:aa:26:7a:f0:a7:d6:ca:79:1b:
        36:23:95:b9:d6:ef:0b:b2:3e:0b:16:f4:12:02:17:18:05:5b:
        1b:89:c2:cf:1a:da:a5:1c:47:cd:58:8f:69:b0:13:11:0d:11:
        8b:20:05:1a
-----BEGIN CERTIFICATE-----
MIIDXTCCAkWgAwIBAgIRAPXBEBLNUhDjQpA8RO+WJP4wDQYJKoZIhvcNAQELBQAw
FjEUMBIGA1UEAwwLdGVhbTQ0OS1uZXQwHhcNMjMxMTAzMjA0NzI1WhcNMjYxMDE4
MjA0NzI1WjAZMRcwFQYDVQQDDA50ZWFtNDQ5LWNsaWVudDCCASIwDQYJKoZIhvcN
AQEBBQADggEPADCCAQoCggEBAJi/mejigtadbt4hj4Tew5EeZ4dWx2pu8O9aw+HW
i7kKMRXIwglYxGlKulhd4/8clZzgqnOeHCQUu3gkCvfnyaANnE/LL+LPa9e00HRX
CPUYlXoXSohUhRb3NsV8gPp9fP4cbs81fOQIU/KnCABYI9fKmcqRdTH7cU0yZyy6
w3vz6mSyS/qX3zWZ5lLofXqlEa1e6N8fLilJCphJIDQ2QEFOAWIKDvDVths5GCnJ
k4f970ZDjr5EaBrC6aLhddPqZiIe9OeWkb4uXVK1adY7ejgbT9ajTMljAsJnPNVN
W4MSa2dQtNO6z1FhfCws1IJk827Rw0vk20atn+fy5CLpFhUCAwEAAaOBojCBnzAJ
BgNVHRMEAjAAMB0GA1UdDgQWBBSJaFcexfCY3og55IIOGm73Q8upVTBRBgNVHSME
SjBIgBR4ueapQ5LMqTqawxEnriXULw4TyqEapBgwFjEUMBIGA1UEAwwLdGVhbTQ0
OS1uZXSCFGwP2XMtlsXXcCbhyeptX6SgI9rSMBMGA1UdJQQMMAoGCCsGAQUFBwMC
MAsGA1UdDwQEAwIHgDANBgkqhkiG9w0BAQsFAAOCAQEAe1mxHRvVwqoYXsKQlO9z
geAbJwPBzmb+WgSndAsZuzmnMklcuWQP3DH5yACu2Jz0R1WDrQO33+6pxxXm0CSj
B5XbypXoeTIKVNeDj9cGwnHC3Holxf9/tjlZHI/e6Ju1TMljFdYYLvqryeHZ86Xq
QgyWqrKr07JmxOH3KjOsy94KOUtsB80HueAcBdvXP0hlS6Sx1lMFvS5I87y4kji9
/0wPl4/JSjV1IbxzAdpfHy+gc8tupPme/oebaLsMygWdz9qUrrN6d06AEgm+WO1A
qiZ68KfWynkbNiOVudbvC7I+Cxb0EgIXGAVbG4nCzxrapRxHzViPabATEQ0RiyAF
Gg==
-----END CERTIFICATE-----
