Certificate:
    Data:
        Version: 3 (0x2)
        Serial Number:
            f6:17:63:51:e2:3a:5c:f3:4e:85:ba:d5:e0:ed:8b:0c
        Signature Algorithm: sha256WithRSAEncryption
        Issuer: CN=team449-net
        Validity
            Not Before: Nov  4 11:37:35 2023 GMT
            Not After : Oct 19 11:37:35 2026 GMT
        Subject: CN=team449-server
        Subject Public Key Info:
            Public Key Algorithm: rsaEncryption
                Public-Key: (2048 bit)
                Modulus:
                    00:c3:fd:eb:cb:77:6f:de:de:5e:07:ad:98:44:ed:
                    26:33:d9:c7:94:2e:f0:b8:1d:6a:1f:9e:eb:6a:56:
                    ce:55:00:e1:9a:1c:f0:37:63:33:01:06:f5:06:80:
                    71:78:2b:bb:e3:c3:b3:76:62:b6:06:b7:a3:30:82:
                    39:26:a1:b4:5a:77:b2:3e:2e:6c:a7:d9:3d:e6:6d:
                    6b:b4:6c:13:68:a5:53:63:fd:d9:d6:8f:2c:22:95:
                    0b:84:34:b3:8a:12:8a:b4:ca:8f:ef:8f:5f:8a:02:
                    c0:d9:7f:29:2f:3b:3c:c6:62:d6:56:94:05:00:55:
                    9b:fa:19:91:13:e2:7d:e1:86:36:60:c3:8a:f6:98:
                    a4:2a:8d:5e:4e:cf:7e:b9:f0:59:0f:f3:17:46:10:
                    4a:cb:79:87:17:86:24:bc:f9:56:ca:7e:92:04:4b:
                    4e:c7:50:1f:b8:96:58:49:00:18:8e:00:77:4a:b2:
                    18:cf:16:bb:cb:93:ad:70:15:73:3f:87:2a:04:5c:
                    41:e4:12:20:3a:81:f5:37:57:b5:e0:27:ec:73:94:
                    9c:a4:74:93:b3:fd:03:0c:e7:3e:da:79:56:af:64:
                    c3:2e:06:52:d1:b9:ab:e2:d0:48:a2:c6:63:b8:22:
                    3c:87:2e:ec:40:d4:7a:4d:4c:d5:18:f9:4a:91:38:
                    2f:29
                Exponent: 65537 (0x10001)
        X509v3 extensions:
            X509v3 Basic Constraints: 
                CA:FALSE
            X509v3 Subject Key Identifier: 
                03:DB:2A:2E:AA:93:A7:72:94:17:C8:2F:1F:DB:EC:61:95:1A:F7:DF
            X509v3 Authority Key Identifier: 
                keyid:D6:ED:2F:C7:36:5F:CE:C9:05:EB:C6:1A:F3:E3:21:9F:10:59:AC:83
                DirName:/CN=team449-net
                serial:30:02:84:8A:4A:2D:DA:F0:ED:6E:15:B3:3F:6B:1A:1C:57:6C:CD:B6
            X509v3 Extended Key Usage: 
                TLS Web Server Authentication
            X509v3 Key Usage: 
                Digital Signature, Key Encipherment
            X509v3 Subject Alternative Name: 
                DNS:team449-server
    Signature Algorithm: sha256WithRSAEncryption
    Signature Value:
        82:0b:eb:72:dc:63:da:e1:89:eb:32:1f:75:b5:90:7c:d0:13:
        c1:3c:e4:da:f7:1b:2e:cf:8e:c7:fb:0c:25:d7:3a:0b:ef:54:
        73:39:2a:ee:71:84:a9:28:33:74:32:26:8d:5c:73:10:71:3c:
        63:0e:26:f6:99:cf:06:fd:76:d7:f5:2f:51:f6:6a:04:72:23:
        cb:75:eb:34:28:aa:ef:a4:3b:81:a6:db:5a:d7:5e:ca:a8:82:
        7b:80:52:80:cc:3a:3f:5f:77:74:44:92:7c:4f:63:ee:0c:cb:
        74:df:6b:b2:91:7f:f6:29:bd:1c:22:59:e8:9c:3c:1a:e8:d1:
        6c:04:6a:7b:64:f8:dd:89:9c:9a:20:d4:10:2d:57:96:a2:51:
        15:7f:d7:8e:62:01:45:05:7f:bf:a2:a2:1d:dd:85:cd:d3:fc:
        b8:fa:e0:c7:ea:88:3e:77:c2:98:89:07:be:1b:ca:62:79:9f:
        c7:51:ab:dd:5f:56:51:8f:04:8f:d1:e6:5b:53:0e:21:ad:2a:
        e8:83:ae:3a:80:a3:71:70:c0:85:b4:93:2c:dc:15:59:0e:d9:
        8b:21:aa:fa:4b:51:e2:c0:aa:12:c8:bc:f3:b1:01:a0:f3:1c:
        25:2d:03:c1:3f:df:b4:a8:aa:53:22:18:94:23:51:50:3e:ab:
        fc:f0:d9:07
-----BEGIN CERTIFICATE-----
MIIDeDCCAmCgAwIBAgIRAPYXY1HiOlzzToW61eDtiwwwDQYJKoZIhvcNAQELBQAw
FjEUMBIGA1UEAwwLdGVhbTQ0OS1uZXQwHhcNMjMxMTA0MTEzNzM1WhcNMjYxMDE5
MTEzNzM1WjAZMRcwFQYDVQQDDA50ZWFtNDQ5LXNlcnZlcjCCASIwDQYJKoZIhvcN
AQEBBQADggEPADCCAQoCggEBAMP968t3b97eXgetmETtJjPZx5Qu8Lgdah+e62pW
zlUA4Zoc8DdjMwEG9QaAcXgru+PDs3Zitga3ozCCOSahtFp3sj4ubKfZPeZta7Rs
E2ilU2P92daPLCKVC4Q0s4oSirTKj++PX4oCwNl/KS87PMZi1laUBQBVm/oZkRPi
feGGNmDDivaYpCqNXk7PfrnwWQ/zF0YQSst5hxeGJLz5Vsp+kgRLTsdQH7iWWEkA
GI4Ad0qyGM8Wu8uTrXAVcz+HKgRcQeQSIDqB9TdXteAn7HOUnKR0k7P9AwznPtp5
Vq9kwy4GUtG5q+LQSKLGY7giPIcu7EDUek1M1Rj5SpE4LykCAwEAAaOBvTCBujAJ
BgNVHRMEAjAAMB0GA1UdDgQWBBQD2youqpOncpQXyC8f2+xhlRr33zBRBgNVHSME
SjBIgBTW7S/HNl/OyQXrxhrz4yGfEFmsg6EapBgwFjEUMBIGA1UEAwwLdGVhbTQ0
OS1uZXSCFDAChIpKLdrw7W4Vsz9rGhxXbM22MBMGA1UdJQQMMAoGCCsGAQUFBwMB
MAsGA1UdDwQEAwIFoDAZBgNVHREEEjAQgg50ZWFtNDQ5LXNlcnZlcjANBgkqhkiG
9w0BAQsFAAOCAQEAggvrctxj2uGJ6zIfdbWQfNATwTzk2vcbLs+Ox/sMJdc6C+9U
czkq7nGEqSgzdDImjVxzEHE8Yw4m9pnPBv121/UvUfZqBHIjy3XrNCiq76Q7gabb
WtdeyqiCe4BSgMw6P193dESSfE9j7gzLdN9rspF/9im9HCJZ6Jw8GujRbARqe2T4
3YmcmiDUEC1XlqJRFX/XjmIBRQV/v6KiHd2FzdP8uPrgx+qIPnfCmIkHvhvKYnmf
x1Gr3V9WUY8Ej9HmW1MOIa0q6IOuOoCjcXDAhbSTLNwVWQ7ZiyGq+ktR4sCqEsi8
87EBoPMcJS0DwT/ftKiqUyIYlCNRUD6r/PDZBw==
-----END CERTIFICATE-----
