Certificate:
    Data:
        Version: 3 (0x2)
        Serial Number:
            71:14:a5:93:aa:10:38:22:5f:82:ab:e8:fd:ea:f0:2a
        Signature Algorithm: sha256WithRSAEncryption
        Issuer: CN=team298-net
        Validity
            Not Before: Nov  4 11:33:51 2023 GMT
            Not After : Oct 19 11:33:51 2026 GMT
        Subject: CN=team298-client
        Subject Public Key Info:
            Public Key Algorithm: rsaEncryption
                Public-Key: (2048 bit)
                Modulus:
                    00:d2:fc:72:33:7e:a9:2a:11:9b:cf:94:fe:73:a5:
                    67:99:05:b0:75:05:3f:e6:c6:dc:9d:17:7c:90:85:
                    90:95:fa:46:68:c2:8a:4b:6a:3e:5e:53:ca:02:f0:
                    52:2a:3f:ab:d7:7f:cb:12:cb:c3:18:02:40:44:39:
                    08:67:14:f8:dc:ae:c4:a1:d0:60:e4:ab:fb:95:a9:
                    ca:c7:26:a1:71:d8:a9:4e:1a:39:47:a3:df:9b:27:
                    32:4e:28:c3:6e:2e:35:92:24:37:bf:6e:60:b0:95:
                    89:65:01:1d:f9:89:98:0d:a6:4a:b2:ca:e6:cb:52:
                    96:55:db:c0:2f:38:19:2c:85:8a:f9:d3:c6:1c:a1:
                    77:23:ff:ac:f5:1e:61:31:61:fb:0d:50:f7:ad:2b:
                    66:c0:bd:ea:d8:5e:68:b0:45:46:53:91:ca:13:18:
                    fb:55:08:91:57:83:00:3c:16:7e:ca:fc:c9:71:8a:
                    ce:7c:06:e5:1d:b9:b3:29:99:69:da:e0:99:a6:31:
                    89:cb:df:7f:61:6f:a5:b0:be:ed:aa:83:9f:08:fc:
                    ab:94:24:80:d4:65:df:a5:93:41:31:38:7d:de:57:
                    bf:54:de:42:f2:94:97:28:82:00:a6:51:ba:ca:0a:
                    cb:1a:d4:da:0b:ad:35:ee:a8:df:fe:64:45:96:bc:
                    d0:23
                Exponent: 65537 (0x10001)
        X509v3 extensions:
            X509v3 Basic Constraints: 
                CA:FALSE
            X509v3 Subject Key Identifier: 
                9D:BC:C2:7F:CD:E6:C1:C2:80:AE:91:A0:53:96:A7:53:0E:55:76:BC
            X509v3 Authority Key Identifier: 
                keyid:B2:28:52:DE:CA:40:3E:64:C3:C1:B3:EF:BB:96:0B:24:4D:59:F7:A2
                DirName:/CN=team298-net
                serial:17:31:9E:84:52:22:1C:3C:82:EB:4B:C0:C5:22:B8:47:16:A1:ED:B0
            X509v3 Extended Key Usage: 
                TLS Web Client Authentication
            X509v3 Key Usage: 
                Digital Signature
    Signature Algorithm: sha256WithRSAEncryption
    Signature Value:
        0a:f5:e5:61:e4:e7:aa:0b:1a:e5:c1:58:35:53:33:51:8f:56:
        ff:9e:64:d1:e4:49:b1:2c:ce:43:26:e3:81:52:f6:25:fe:13:
        ef:ad:6a:af:96:51:9a:ff:4d:42:25:5e:ad:4c:03:d0:3d:8f:
        ab:97:5c:14:40:2b:75:af:14:ad:e8:2a:89:fa:f2:f8:14:ce:
        53:f7:17:f7:25:a6:28:53:cf:bb:1e:83:55:8b:a3:1e:e4:fd:
        4d:ff:91:94:c5:3a:e3:97:22:78:ca:83:3e:8b:dd:79:88:06:
        44:cf:5a:fe:a3:75:88:2d:b6:e2:c4:92:49:f9:35:6d:8f:ff:
        09:71:f5:29:65:e3:91:ce:2a:8e:8f:62:d3:69:f0:cd:42:ad:
        b4:00:74:ab:62:d1:40:3f:4a:93:86:cd:7c:ed:b7:60:22:15:
        aa:8d:79:7b:b1:61:e7:02:f4:3d:c0:2a:a3:5a:6a:57:b4:dd:
        d2:34:61:6f:55:7d:93:94:bb:68:2a:fe:d1:43:7d:54:ce:ef:
        51:34:f8:00:ec:17:e4:c2:c1:05:aa:20:38:67:82:00:82:c0:
        41:29:b5:db:c2:f6:0b:57:ec:22:10:cc:24:cf:16:05:aa:e9:
        36:4a:d4:90:88:bf:51:a2:d5:ce:43:97:9d:95:05:ee:5c:c6:
        d5:55:89:ed
-----BEGIN CERTIFICATE-----
MIIDXDCCAkSgAwIBAgIQcRSlk6oQOCJfgqvo/erwKjANBgkqhkiG9w0BAQsFADAW
MRQwEgYDVQQDDAt0ZWFtMjk4LW5ldDAeFw0yMzExMDQxMTMzNTFaFw0yNjEwMTkx
MTMzNTFaMBkxFzAVBgNVBAMMDnRlYW0yOTgtY2xpZW50MIIBIjANBgkqhkiG9w0B
AQEFAAOCAQ8AMIIBCgKCAQEA0vxyM36pKhGbz5T+c6VnmQWwdQU/5sbcnRd8kIWQ
lfpGaMKKS2o+XlPKAvBSKj+r13/LEsvDGAJARDkIZxT43K7EodBg5Kv7lanKxyah
cdipTho5R6PfmycyTijDbi41kiQ3v25gsJWJZQEd+YmYDaZKssrmy1KWVdvALzgZ
LIWK+dPGHKF3I/+s9R5hMWH7DVD3rStmwL3q2F5osEVGU5HKExj7VQiRV4MAPBZ+
yvzJcYrOfAblHbmzKZlp2uCZpjGJy99/YW+lsL7tqoOfCPyrlCSA1GXfpZNBMTh9
3le/VN5C8pSXKIIAplG6ygrLGtTaC6017qjf/mRFlrzQIwIDAQABo4GiMIGfMAkG
A1UdEwQCMAAwHQYDVR0OBBYEFJ28wn/N5sHCgK6RoFOWp1MOVXa8MFEGA1UdIwRK
MEiAFLIoUt7KQD5kw8Gz77uWCyRNWfeioRqkGDAWMRQwEgYDVQQDDAt0ZWFtMjk4
LW5ldIIUFzGehFIiHDyC60vAxSK4Rxah7bAwEwYDVR0lBAwwCgYIKwYBBQUHAwIw
CwYDVR0PBAQDAgeAMA0GCSqGSIb3DQEBCwUAA4IBAQAK9eVh5OeqCxrlwVg1UzNR
j1b/nmTR5EmxLM5DJuOBUvYl/hPvrWqvllGa/01CJV6tTAPQPY+rl1wUQCt1rxSt
6CqJ+vL4FM5T9xf3JaYoU8+7HoNVi6Me5P1N/5GUxTrjlyJ4yoM+i915iAZEz1r+
o3WILbbixJJJ+TVtj/8JcfUpZeORziqOj2LTafDNQq20AHSrYtFAP0qThs187bdg
IhWqjXl7sWHnAvQ9wCqjWmpXtN3SNGFvVX2TlLtoKv7RQ31Uzu9RNPgA7BfkwsEF
qiA4Z4IAgsBBKbXbwvYLV+wiEMwkzxYFquk2StSQiL9RotXOQ5edlQXuXMbVVYnt
-----END CERTIFICATE-----
