Certificate:
    Data:
        Version: 3 (0x2)
        Serial Number:
            7c:ab:ab:5a:ad:79:a5:89:34:b4:d8:d7:b4:62:46:78
        Signature Algorithm: sha256WithRSAEncryption
        Issuer: CN=team298-net
        Validity
            Not Before: Nov  4 10:46:08 2023 GMT
            Not After : Oct 19 10:46:08 2026 GMT
        Subject: CN=team298-server
        Subject Public Key Info:
            Public Key Algorithm: rsaEncryption
                Public-Key: (2048 bit)
                Modulus:
                    00:e3:70:50:ec:9d:a3:37:2f:19:b7:91:9d:34:a6:
                    ed:e0:8d:07:52:d6:2f:aa:f8:db:24:15:aa:a9:50:
                    1b:b9:a1:ea:8d:30:b7:e1:f8:4e:7e:66:99:c2:88:
                    40:a0:4b:39:fd:3d:e5:2d:b2:0d:7f:d6:a3:0d:65:
                    48:d4:a2:3b:de:b0:61:5e:73:1a:72:24:66:03:79:
                    72:07:da:48:fa:21:6b:4b:b3:e2:fe:c3:c8:f3:3f:
                    96:ab:3e:9f:a8:50:90:c4:d1:63:de:7d:ad:98:9a:
                    6f:8f:9d:f1:20:5d:a3:e5:27:29:b5:77:7d:45:d7:
                    57:f5:4b:48:02:ce:e1:7a:a8:d8:47:3d:b1:e1:7e:
                    00:bd:99:5e:b0:cb:6c:8a:1e:a4:d0:de:71:83:16:
                    fd:2e:78:1f:1e:51:0e:3e:a5:50:ae:61:86:01:69:
                    0d:2f:e2:a2:53:a2:18:94:a6:3b:b0:71:ff:aa:da:
                    eb:ef:0b:d9:8a:0c:a9:d1:72:dc:d1:ce:d4:ca:b6:
                    53:1a:7f:68:46:1c:ef:91:a1:8c:67:84:a4:76:9c:
                    c2:c1:44:42:d4:1f:e2:57:3a:3e:d3:33:e4:1d:38:
                    eb:46:4a:88:01:3d:73:51:3e:71:18:6a:31:cb:7f:
                    b5:85:c0:a3:41:14:23:b3:de:55:32:11:e5:43:e2:
                    17:4d
                Exponent: 65537 (0x10001)
        X509v3 extensions:
            X509v3 Basic Constraints: 
                CA:FALSE
            X509v3 Subject Key Identifier: 
                11:77:59:E9:E7:40:CD:83:7E:4F:0D:99:6D:3C:F9:A9:6B:D3:78:B6
            X509v3 Authority Key Identifier: 
                keyid:74:05:68:55:06:9E:2E:6B:84:55:D3:13:8D:3B:27:EB:EB:E7:F5:77
                DirName:/CN=team298-net
                serial:56:FF:AC:94:3B:9D:56:EA:39:07:35:F4:CB:59:FB:D0:EC:01:F9:33
            X509v3 Extended Key Usage: 
                TLS Web Server Authentication
            X509v3 Key Usage: 
                Digital Signature, Key Encipherment
            X509v3 Subject Alternative Name: 
                DNS:team298-server
    Signature Algorithm: sha256WithRSAEncryption
    Signature Value:
        25:f0:a9:c7:28:b3:c0:c5:a5:4b:a0:2d:d1:1d:3d:6c:77:9d:
        fa:f7:0a:4d:6d:37:de:e2:5a:a3:54:ca:11:9d:9e:dc:db:8d:
        24:e0:86:57:da:38:50:0a:be:0c:88:95:0d:49:b3:73:6a:be:
        d1:6d:36:d3:a1:ce:39:d1:79:24:83:89:89:c1:f0:1c:65:fc:
        1d:ff:0b:f2:b7:8f:e3:d6:d7:75:de:86:43:00:35:92:c3:e1:
        59:92:5a:eb:22:b4:c6:0e:0b:ad:c1:d0:93:af:c8:63:29:f7:
        5a:f0:7f:b1:4a:66:e9:f3:7a:83:fb:24:85:42:39:b4:93:69:
        ff:3b:25:64:33:45:79:6d:f8:de:2a:65:4f:5b:92:c5:bc:7d:
        c7:ea:aa:11:23:9e:d2:ab:dd:19:df:cc:d1:9c:fb:aa:c8:4d:
        15:33:b4:d8:e7:97:ea:4e:46:08:34:9a:be:9c:ac:78:db:57:
        34:3c:f3:34:fb:a4:a7:a8:98:72:ef:dd:3c:2c:54:12:5b:b8:
        08:4d:40:02:a1:8a:81:89:23:43:10:ac:e7:2f:e2:a2:18:c5:
        bf:10:47:5d:85:30:61:3d:ac:ca:c4:a7:1a:df:b8:90:94:05:
        17:7d:09:a9:23:dd:40:18:13:53:5d:97:5f:c0:70:4d:9c:26:
        bf:36:63:30
-----BEGIN CERTIFICATE-----
MIIDdzCCAl+gAwIBAgIQfKurWq15pYk0tNjXtGJGeDANBgkqhkiG9w0BAQsFADAW
MRQwEgYDVQQDDAt0ZWFtMjk4LW5ldDAeFw0yMzExMDQxMDQ2MDhaFw0yNjEwMTkx
MDQ2MDhaMBkxFzAVBgNVBAMMDnRlYW0yOTgtc2VydmVyMIIBIjANBgkqhkiG9w0B
AQEFAAOCAQ8AMIIBCgKCAQEA43BQ7J2jNy8Zt5GdNKbt4I0HUtYvqvjbJBWqqVAb
uaHqjTC34fhOfmaZwohAoEs5/T3lLbINf9ajDWVI1KI73rBhXnMaciRmA3lyB9pI
+iFrS7Pi/sPI8z+Wqz6fqFCQxNFj3n2tmJpvj53xIF2j5ScptXd9RddX9UtIAs7h
eqjYRz2x4X4AvZlesMtsih6k0N5xgxb9LngfHlEOPqVQrmGGAWkNL+KiU6IYlKY7
sHH/qtrr7wvZigyp0XLc0c7UyrZTGn9oRhzvkaGMZ4SkdpzCwURC1B/iVzo+0zPk
HTjrRkqIAT1zUT5xGGoxy3+1hcCjQRQjs95VMhHlQ+IXTQIDAQABo4G9MIG6MAkG
A1UdEwQCMAAwHQYDVR0OBBYEFBF3WennQM2Dfk8NmW08+alr03i2MFEGA1UdIwRK
MEiAFHQFaFUGni5rhFXTE407J+vr5/V3oRqkGDAWMRQwEgYDVQQDDAt0ZWFtMjk4
LW5ldIIUVv+slDudVuo5BzX0y1n70OwB+TMwEwYDVR0lBAwwCgYIKwYBBQUHAwEw
CwYDVR0PBAQDAgWgMBkGA1UdEQQSMBCCDnRlYW0yOTgtc2VydmVyMA0GCSqGSIb3
DQEBCwUAA4IBAQAl8KnHKLPAxaVLoC3RHT1sd5369wpNbTfe4lqjVMoRnZ7c240k
4IZX2jhQCr4MiJUNSbNzar7RbTbToc450Xkkg4mJwfAcZfwd/wvyt4/j1td13oZD
ADWSw+FZklrrIrTGDgutwdCTr8hjKfda8H+xSmbp83qD+ySFQjm0k2n/OyVkM0V5
bfjeKmVPW5LFvH3H6qoRI57Sq90Z38zRnPuqyE0VM7TY55fqTkYINJq+nKx421c0
PPM0+6SnqJhy7908LFQSW7gITUACoYqBiSNDEKznL+KiGMW/EEddhTBhPazKxKca
37iQlAUXfQmpI91AGBNTXZdfwHBNnCa/NmMw
-----END CERTIFICATE-----
