Certificate:
    Data:
        Version: 3 (0x2)
        Serial Number:
            c1:0a:e9:b3:56:00:92:ad:64:53:a3:23:91:ca:83:c2
        Signature Algorithm: sha256WithRSAEncryption
        Issuer: CN=team298-net
        Validity
            Not Before: Nov  3 20:44:41 2023 GMT
            Not After : Oct 18 20:44:41 2026 GMT
        Subject: CN=team298-client
        Subject Public Key Info:
            Public Key Algorithm: rsaEncryption
                Public-Key: (2048 bit)
                Modulus:
                    00:c5:c2:e8:0c:a5:62:21:63:fd:71:6c:78:8e:40:
                    a8:18:72:5f:89:43:53:5a:31:76:a0:6f:23:31:f7:
                    bd:e2:fe:4e:d3:c1:b5:ab:15:b5:bc:f6:4c:9f:bf:
                    07:68:71:bd:ab:d2:5d:da:d4:7a:14:ca:91:d0:6d:
                    d3:e5:fd:3a:5f:a8:50:81:1b:ae:60:54:5a:c1:12:
                    21:29:ab:30:bf:b4:09:43:cb:86:ac:ac:15:1a:4c:
                    42:88:67:1d:fe:6b:89:fe:06:b0:74:fc:34:17:f5:
                    35:9e:72:4a:cd:91:b3:93:3e:e3:20:58:f6:a4:6c:
                    ba:dc:c6:8f:c0:87:e6:08:30:7b:37:23:e4:b6:f4:
                    7d:af:c6:b2:ba:47:66:ca:ec:23:bb:ef:f2:1b:35:
                    49:0a:3d:14:e1:cb:d8:f5:c6:3d:cb:61:39:72:4b:
                    2c:09:4d:bb:bd:67:4d:33:7d:b0:f7:31:08:d3:90:
                    b1:5e:98:1e:4c:4e:ea:13:37:c6:01:6d:67:32:48:
                    3c:1d:23:23:3d:d8:aa:8d:35:6c:0c:e7:24:81:92:
                    b5:8e:e5:67:b0:c5:64:fc:eb:73:3e:dd:28:d3:7f:
                    64:47:dc:f3:df:54:34:5b:0f:6c:fa:c8:dc:75:f6:
                    ba:3f:a2:45:98:6c:60:e3:a9:11:e5:31:d8:4d:c7:
                    a6:e7
                Exponent: 65537 (0x10001)
        X509v3 extensions:
            X509v3 Basic Constraints: 
                CA:FALSE
            X509v3 Subject Key Identifier: 
                2A:CB:95:0C:2A:01:7E:F2:ED:43:5A:72:E3:F6:8A:DF:E4:06:5E:9B
            X509v3 Authority Key Identifier: 
                keyid:F6:AE:1C:0F:BC:7C:20:89:C0:23:CA:11:31:4F:DB:EF:CC:B2:EF:F8
                DirName:/CN=team298-net
                serial:37:46:5E:85:86:8E:78:BF:77:AB:C1:A6:14:50:7E:24:9C:41:36:08
            X509v3 Extended Key Usage: 
                TLS Web Client Authentication
            X509v3 Key Usage: 
                Digital Signature
    Signature Algorithm: sha256WithRSAEncryption
    Signature Value:
        ce:4b:0b:be:76:b6:6c:ca:0d:35:95:01:2e:25:8f:ef:84:5f:
        3b:24:30:99:04:6b:e8:55:f5:67:dc:65:f4:fa:10:27:7f:44:
        78:ce:1f:56:fc:90:27:a9:56:0f:23:4a:f9:8d:d6:ba:09:70:
        28:05:6c:c7:a9:b1:54:d4:2d:89:df:21:7c:d4:71:df:bf:ca:
        dd:f6:26:0d:6c:ac:57:1f:d2:ff:b8:20:1d:4c:c8:06:00:b3:
        e8:b8:3c:3c:f9:a3:21:b9:de:8d:d7:f4:19:2c:bf:8a:ea:65:
        37:8c:88:24:4a:bf:f2:2a:e4:6f:11:a3:68:97:f5:ac:77:fe:
        e7:63:5d:1d:2e:b8:5f:66:d8:5b:14:83:c3:4c:67:57:a4:2e:
        9e:b8:8a:f9:ab:aa:27:14:59:d2:b6:25:9d:c8:c6:c3:ca:fa:
        65:0e:d2:91:d2:cd:56:4a:bb:0f:8c:43:dc:3d:b9:24:d4:43:
        ba:05:57:1e:b4:67:64:57:f7:ef:a4:11:89:d7:0e:fe:2c:a1:
        e5:01:5b:f9:26:a5:78:74:ca:ea:d7:5f:b0:2f:0f:f2:39:e4:
        f0:65:e5:c0:e6:42:4c:d8:f1:5f:c0:a9:3a:f3:34:3e:dd:dc:
        ec:2d:73:f7:e4:e2:ad:76:09:f0:28:2a:13:76:0b:c0:41:cd:
        83:d0:e3:e5
-----BEGIN CERTIFICATE-----
MIIDXTCCAkWgAwIBAgIRAMEK6bNWAJKtZFOjI5HKg8IwDQYJKoZIhvcNAQELBQAw
FjEUMBIGA1UEAwwLdGVhbTI5OC1uZXQwHhcNMjMxMTAzMjA0NDQxWhcNMjYxMDE4
MjA0NDQxWjAZMRcwFQYDVQQDDA50ZWFtMjk4LWNsaWVudDCCASIwDQYJKoZIhvcN
AQEBBQADggEPADCCAQoCggEBAMXC6AylYiFj/XFseI5AqBhyX4lDU1oxdqBvIzH3
veL+TtPBtasVtbz2TJ+/B2hxvavSXdrUehTKkdBt0+X9Ol+oUIEbrmBUWsESISmr
ML+0CUPLhqysFRpMQohnHf5rif4GsHT8NBf1NZ5ySs2Rs5M+4yBY9qRsutzGj8CH
5ggwezcj5Lb0fa/GsrpHZsrsI7vv8hs1SQo9FOHL2PXGPcthOXJLLAlNu71nTTN9
sPcxCNOQsV6YHkxO6hM3xgFtZzJIPB0jIz3Yqo01bAznJIGStY7lZ7DFZPzrcz7d
KNN/ZEfc899UNFsPbPrI3HX2uj+iRZhsYOOpEeUx2E3HpucCAwEAAaOBojCBnzAJ
BgNVHRMEAjAAMB0GA1UdDgQWBBQqy5UMKgF+8u1DWnLj9orf5AZemzBRBgNVHSME
SjBIgBT2rhwPvHwgicAjyhExT9vvzLLv+KEapBgwFjEUMBIGA1UEAwwLdGVhbTI5
OC1uZXSCFDdGXoWGjni/d6vBphRQfiScQTYIMBMGA1UdJQQMMAoGCCsGAQUFBwMC
MAsGA1UdDwQEAwIHgDANBgkqhkiG9w0BAQsFAAOCAQEAzksLvna2bMoNNZUBLiWP
74RfOyQwmQRr6FX1Z9xl9PoQJ39EeM4fVvyQJ6lWDyNK+Y3WuglwKAVsx6mxVNQt
id8hfNRx37/K3fYmDWysVx/S/7ggHUzIBgCz6Lg8PPmjIbnejdf0GSy/iuplN4yI
JEq/8irkbxGjaJf1rHf+52NdHS64X2bYWxSDw0xnV6QunriK+auqJxRZ0rYlncjG
w8r6ZQ7SkdLNVkq7D4xD3D25JNRDugVXHrRnZFf376QRidcO/iyh5QFb+SaleHTK
6tdfsC8P8jnk8GXlwOZCTNjxX8CpOvM0Pt3c7C1z9+TirXYJ8CgqE3YLwEHNg9Dj
5Q==
-----END CERTIFICATE-----
