Certificate:
    Data:
        Version: 3 (0x2)
        Serial Number:
            15:50:4b:8c:ea:bb:cf:05:4c:93:03:8a:ca:00:e0:8d
        Signature Algorithm: sha256WithRSAEncryption
        Issuer: CN=team458-net
        Validity
            Not Before: Nov  4 11:37:48 2023 GMT
            Not After : Oct 19 11:37:48 2026 GMT
        Subject: CN=team458-server
        Subject Public Key Info:
            Public Key Algorithm: rsaEncryption
                Public-Key: (2048 bit)
                Modulus:
                    00:9e:e5:ba:15:ea:4f:84:40:41:b9:8d:7d:1f:18:
                    35:43:ef:74:0f:76:b6:ef:29:8e:49:05:f7:a2:27:
                    2b:58:c9:45:24:6b:67:30:33:ba:fa:dc:8b:93:af:
                    45:68:31:c7:b4:2f:63:f0:b7:f3:19:36:8f:af:50:
                    e7:50:c4:56:e0:65:fe:97:9c:e8:e4:51:d1:d0:5a:
                    ab:13:2c:3f:f6:f4:ad:4d:a0:ec:3c:80:23:0c:3b:
                    5e:8a:4a:d9:62:fb:25:ba:8f:df:b3:a0:83:c1:4b:
                    fe:2b:22:d2:64:4f:5a:5b:0d:95:0f:60:33:e4:2f:
                    ab:dc:cf:8f:0f:c1:e5:92:b9:27:3c:64:53:8e:94:
                    33:38:6d:77:00:90:1a:0a:9c:0d:c5:cd:21:f9:b7:
                    ce:69:25:36:37:f2:31:eb:64:2b:4b:b8:b4:d5:45:
                    f0:31:af:f7:0b:e7:62:b0:b6:98:d0:a3:71:1b:72:
                    cc:51:2c:76:82:8a:b7:ee:ad:e0:21:b9:ab:58:7d:
                    32:65:55:a1:76:66:8e:f8:0c:8e:d8:48:5f:67:08:
                    ca:c7:7a:98:35:39:8f:29:36:93:dc:25:98:f3:f6:
                    18:15:1d:38:e2:5a:3e:4f:4b:83:1b:d8:0c:71:48:
                    4f:eb:8c:be:17:33:8f:62:4e:13:6c:2d:5b:bf:59:
                    8d:1d
                Exponent: 65537 (0x10001)
        X509v3 extensions:
            X509v3 Basic Constraints: 
                CA:FALSE
            X509v3 Subject Key Identifier: 
                75:58:37:24:AF:46:C6:81:27:75:AC:65:EF:EB:E4:2B:F1:D4:FB:16
            X509v3 Authority Key Identifier: 
                keyid:67:13:38:42:D5:39:F8:35:16:8F:B7:E9:C1:22:FC:44:FB:15:B0:33
                DirName:/CN=team458-net
                serial:3F:60:88:EB:E8:DA:CB:39:41:8F:A5:BC:11:63:8E:48:89:DB:8C:DD
            X509v3 Extended Key Usage: 
                TLS Web Server Authentication
            X509v3 Key Usage: 
                Digital Signature, Key Encipherment
            X509v3 Subject Alternative Name: 
                DNS:team458-server
    Signature Algorithm: sha256WithRSAEncryption
    Signature Value:
        8b:60:bc:f9:58:9d:d6:7a:db:d7:e7:05:dc:24:11:27:e8:66:
        ed:c8:c0:b3:84:1e:50:f8:e1:57:8f:ad:67:4a:4a:ea:a8:69:
        f5:51:f9:f5:ae:19:c6:9a:d1:e3:80:ee:2c:65:bb:ce:02:2c:
        34:f1:cc:28:06:44:b9:da:df:4f:3e:da:71:c8:f1:37:74:ba:
        42:33:b9:c0:6e:a0:ab:93:c0:ff:24:e7:22:2a:52:a4:a3:2c:
        a5:a7:42:05:c3:d4:b4:cf:e9:80:aa:87:fe:0a:be:e8:1f:0f:
        1b:a6:66:5e:0d:16:c6:0b:ae:4e:83:25:45:54:3a:c9:7d:e3:
        90:4c:9d:bf:88:d0:72:0d:55:a3:ac:a8:e1:fc:b6:e7:18:12:
        03:03:54:a0:e6:68:17:92:f5:44:71:c1:7a:f5:4a:08:dc:2b:
        15:68:be:6c:f2:36:1c:a4:c4:7f:b8:c5:31:d3:96:4f:91:ba:
        59:f0:7d:f1:d6:7b:3a:2f:0f:f4:a7:25:05:ac:4f:e9:dc:19:
        c1:10:f9:5d:5d:c7:e7:70:9d:06:e5:a8:f1:8f:39:20:df:2a:
        a8:ca:c6:1b:67:a4:b1:59:a6:58:bf:c9:00:3a:cd:43:de:eb:
        d3:7e:3d:7e:10:e4:c6:7c:86:28:05:f1:c2:30:96:d4:b3:25:
        29:4a:5a:07
-----BEGIN CERTIFICATE-----
MIIDdzCCAl+gAwIBAgIQFVBLjOq7zwVMkwOKygDgjTANBgkqhkiG9w0BAQsFADAW
MRQwEgYDVQQDDAt0ZWFtNDU4LW5ldDAeFw0yMzExMDQxMTM3NDhaFw0yNjEwMTkx
MTM3NDhaMBkxFzAVBgNVBAMMDnRlYW00NTgtc2VydmVyMIIBIjANBgkqhkiG9w0B
AQEFAAOCAQ8AMIIBCgKCAQEAnuW6FepPhEBBuY19Hxg1Q+90D3a27ymOSQX3oicr
WMlFJGtnMDO6+tyLk69FaDHHtC9j8LfzGTaPr1DnUMRW4GX+l5zo5FHR0FqrEyw/
9vStTaDsPIAjDDteikrZYvsluo/fs6CDwUv+KyLSZE9aWw2VD2Az5C+r3M+PD8Hl
krknPGRTjpQzOG13AJAaCpwNxc0h+bfOaSU2N/Ix62QrS7i01UXwMa/3C+disLaY
0KNxG3LMUSx2goq37q3gIbmrWH0yZVWhdmaO+AyO2EhfZwjKx3qYNTmPKTaT3CWY
8/YYFR044lo+T0uDG9gMcUhP64y+FzOPYk4TbC1bv1mNHQIDAQABo4G9MIG6MAkG
A1UdEwQCMAAwHQYDVR0OBBYEFHVYNySvRsaBJ3WsZe/r5Cvx1PsWMFEGA1UdIwRK
MEiAFGcTOELVOfg1Fo+36cEi/ET7FbAzoRqkGDAWMRQwEgYDVQQDDAt0ZWFtNDU4
LW5ldIIUP2CI6+jayzlBj6W8EWOOSInbjN0wEwYDVR0lBAwwCgYIKwYBBQUHAwEw
CwYDVR0PBAQDAgWgMBkGA1UdEQQSMBCCDnRlYW00NTgtc2VydmVyMA0GCSqGSIb3
DQEBCwUAA4IBAQCLYLz5WJ3WetvX5wXcJBEn6GbtyMCzhB5Q+OFXj61nSkrqqGn1
Ufn1rhnGmtHjgO4sZbvOAiw08cwoBkS52t9PPtpxyPE3dLpCM7nAbqCrk8D/JOci
KlKkoyylp0IFw9S0z+mAqof+Cr7oHw8bpmZeDRbGC65OgyVFVDrJfeOQTJ2/iNBy
DVWjrKjh/LbnGBIDA1Sg5mgXkvVEccF69UoI3CsVaL5s8jYcpMR/uMUx05ZPkbpZ
8H3x1ns6Lw/0pyUFrE/p3BnBEPldXcfncJ0G5ajxjzkg3yqoysYbZ6SxWaZYv8kA
Os1D3uvTfj1+EOTGfIYoBfHCMJbUsyUpSloH
-----END CERTIFICATE-----
