Certificate:
    Data:
        Version: 3 (0x2)
        Serial Number:
            80:cd:6e:2e:83:95:ab:86:32:bb:76:46:98:54:27:da
        Signature Algorithm: sha256WithRSAEncryption
        Issuer: CN=team458-net
        Validity
            Not Before: Nov  4 10:48:46 2023 GMT
            Not After : Oct 19 10:48:46 2026 GMT
        Subject: CN=team458-client
        Subject Public Key Info:
            Public Key Algorithm: rsaEncryption
                Public-Key: (2048 bit)
                Modulus:
                    00:c7:88:c2:b3:8b:ff:37:0c:bc:83:ee:3e:a2:75:
                    8c:3c:4b:5a:43:9b:58:91:57:1c:3b:81:44:72:a0:
                    39:be:ff:91:63:6e:0c:e0:73:48:fa:fa:0f:71:c7:
                    4f:f6:7d:26:9b:31:37:25:70:d7:73:8f:1f:f5:ff:
                    2c:6e:d3:4d:1e:e1:8f:1a:62:b1:d9:4f:3b:f7:a4:
                    af:3d:ad:e7:e9:38:a1:89:23:88:d0:72:f8:8f:7c:
                    39:1f:65:e4:4b:af:6f:23:21:70:ba:23:94:21:0b:
                    1e:3a:9c:08:ae:af:d7:79:a5:f3:a0:ce:49:a9:cb:
                    9a:56:a2:51:88:ad:63:f6:c3:80:3c:f7:0a:df:6b:
                    4e:74:3f:32:25:bf:6a:97:c3:b9:ad:f8:ff:df:2d:
                    4b:35:3f:a6:43:b7:4d:a6:bd:90:4c:cc:ed:89:5d:
                    5f:1f:0d:e9:00:73:2f:ef:4d:2d:49:aa:64:bd:b8:
                    3c:70:90:04:83:21:81:c4:5f:01:0e:90:ec:ce:4f:
                    34:ab:67:ad:6f:8d:07:82:f4:53:87:a2:7e:63:65:
                    5c:11:b4:f5:22:1e:a5:ca:2a:f7:3c:90:03:1e:1a:
                    53:16:35:5a:9f:95:c5:e0:fb:a9:ac:b2:58:b6:68:
                    b6:ac:56:2f:75:eb:45:19:03:82:7c:e9:c6:20:54:
                    f4:51
                Exponent: 65537 (0x10001)
        X509v3 extensions:
            X509v3 Basic Constraints: 
                CA:FALSE
            X509v3 Subject Key Identifier: 
                72:C1:3A:93:AA:EA:FD:CD:02:04:33:42:D2:2E:F5:BD:8C:6E:ED:40
            X509v3 Authority Key Identifier: 
                keyid:E7:D7:3A:17:01:CB:D9:45:35:C3:65:06:F8:F7:38:24:F5:D8:F5:24
                DirName:/CN=team458-net
                serial:2A:79:91:2F:60:E6:27:8B:F6:87:5C:B7:D1:DF:2B:71:80:27:5F:D7
            X509v3 Extended Key Usage: 
                TLS Web Client Authentication
            X509v3 Key Usage: 
                Digital Signature
    Signature Algorithm: sha256WithRSAEncryption
    Signature Value:
        55:27:5b:53:bf:c2:1b:77:75:b8:66:86:2d:eb:45:f4:be:55:
        d2:e1:88:81:28:b1:c7:b5:2d:71:70:e3:4f:e2:34:c1:3b:e1:
        93:b6:31:4b:1b:15:68:d9:04:fb:47:d8:3c:4d:52:39:5f:a6:
        3d:89:9f:a8:75:8e:02:6c:b7:ba:45:76:6f:ab:7b:dc:92:3c:
        52:65:07:de:3b:7c:fb:ee:a9:4a:34:8a:bf:f4:8a:04:74:19:
        c3:9f:2b:95:34:eb:e6:29:92:35:0e:c0:1a:89:f0:c5:6d:4a:
        72:44:16:fb:f1:0d:a7:af:d1:6f:93:c0:ab:d9:ee:4f:5a:a3:
        15:c4:3f:d3:4b:11:ac:01:c6:1e:93:3b:73:b4:b1:eb:3c:bb:
        9c:48:a3:aa:66:5e:c2:9d:b1:85:58:89:e3:b1:d7:7f:7b:9d:
        38:47:dc:44:bd:d0:dc:c3:d7:82:f2:9c:fc:ef:df:44:bc:04:
        6b:10:3d:f7:5d:4a:4d:04:a9:2f:0d:c8:36:a8:4f:6f:92:51:
        7c:88:dd:7b:7b:79:e7:62:5f:39:2e:ce:7d:d1:33:e6:a0:ab:
        00:31:d5:b3:af:36:be:0b:36:9c:4f:00:0c:e1:c6:c3:ec:bd:
        82:6f:d5:cd:a3:16:e8:31:b8:bc:b2:97:1a:09:ec:bf:5f:e6:
        50:8c:b2:39
-----BEGIN CERTIFICATE-----
MIIDXTCCAkWgAwIBAgIRAIDNbi6DlauGMrt2RphUJ9owDQYJKoZIhvcNAQELBQAw
FjEUMBIGA1UEAwwLdGVhbTQ1OC1uZXQwHhcNMjMxMTA0MTA0ODQ2WhcNMjYxMDE5
MTA0ODQ2WjAZMRcwFQYDVQQDDA50ZWFtNDU4LWNsaWVudDCCASIwDQYJKoZIhvcN
AQEBBQADggEPADCCAQoCggEBAMeIwrOL/zcMvIPuPqJ1jDxLWkObWJFXHDuBRHKg
Ob7/kWNuDOBzSPr6D3HHT/Z9JpsxNyVw13OPH/X/LG7TTR7hjxpisdlPO/ekrz2t
5+k4oYkjiNBy+I98OR9l5EuvbyMhcLojlCELHjqcCK6v13ml86DOSanLmlaiUYit
Y/bDgDz3Ct9rTnQ/MiW/apfDua34/98tSzU/pkO3Taa9kEzM7YldXx8N6QBzL+9N
LUmqZL24PHCQBIMhgcRfAQ6Q7M5PNKtnrW+NB4L0U4eifmNlXBG09SIepcoq9zyQ
Ax4aUxY1Wp+VxeD7qayyWLZotqxWL3XrRRkDgnzpxiBU9FECAwEAAaOBojCBnzAJ
BgNVHRMEAjAAMB0GA1UdDgQWBBRywTqTqur9zQIEM0LSLvW9jG7tQDBRBgNVHSME
SjBIgBTn1zoXAcvZRTXDZQb49zgk9dj1JKEapBgwFjEUMBIGA1UEAwwLdGVhbTQ1
OC1uZXSCFCp5kS9g5ieL9odct9HfK3GAJ1/XMBMGA1UdJQQMMAoGCCsGAQUFBwMC
MAsGA1UdDwQEAwIHgDANBgkqhkiG9w0BAQsFAAOCAQEAVSdbU7/CG3d1uGaGLetF
9L5V0uGIgSixx7UtcXDjT+I0wTvhk7YxSxsVaNkE+0fYPE1SOV+mPYmfqHWOAmy3
ukV2b6t73JI8UmUH3jt8++6pSjSKv/SKBHQZw58rlTTr5imSNQ7AGonwxW1KckQW
+/ENp6/Rb5PAq9nuT1qjFcQ/00sRrAHGHpM7c7Sx6zy7nEijqmZewp2xhViJ47HX
f3udOEfcRL3Q3MPXgvKc/O/fRLwEaxA9911KTQSpLw3INqhPb5JRfIjde3t552Jf
OS7OfdEz5qCrADHVs682vgs2nE8ADOHGw+y9gm/VzaMW6DG4vLKXGgnsv1/mUIyy
OQ==
-----END CERTIFICATE-----
