Certificate:
    Data:
        Version: 3 (0x2)
        Serial Number:
            81:05:ba:f4:80:48:c8:25:dc:34:0b:33:d5:a6:b4:b3
        Signature Algorithm: sha256WithRSAEncryption
        Issuer: CN=team458-net
        Validity
            Not Before: Nov  4 10:48:46 2023 GMT
            Not After : Oct 19 10:48:46 2026 GMT
        Subject: CN=team458-server
        Subject Public Key Info:
            Public Key Algorithm: rsaEncryption
                Public-Key: (2048 bit)
                Modulus:
                    00:f4:24:37:a2:5a:87:c5:f8:96:2e:e2:65:5e:17:
                    cd:cc:89:0f:55:8f:a1:55:ab:f6:00:d3:19:85:4c:
                    58:2d:9b:c3:d2:7e:77:91:0e:dc:84:7d:77:ab:46:
                    de:b7:30:9f:8d:72:7a:4c:89:fe:a3:c6:90:ad:25:
                    3f:05:fe:cb:3b:c2:7c:54:fa:9e:e8:77:e5:5e:a9:
                    08:3c:bb:66:ac:90:f1:1b:e7:35:5b:52:c9:38:28:
                    40:6d:d6:89:23:28:37:8b:e1:3d:f3:86:bd:1d:c5:
                    2e:3b:ed:36:19:ea:af:8c:0c:c4:65:6d:f5:9f:14:
                    4d:c0:33:e5:29:cb:ca:55:e6:c7:ad:fe:c1:b0:4f:
                    01:66:2e:1f:bf:39:50:02:2c:27:53:46:4d:c3:71:
                    4b:0c:14:a6:70:8b:29:c4:ea:3f:02:8d:66:e5:ae:
                    27:c8:85:15:5c:c5:b5:79:01:31:82:4b:5f:e8:a1:
                    3c:1c:11:e2:eb:bb:74:06:36:6a:14:9d:36:08:5b:
                    34:fa:92:5a:96:05:ed:81:07:5b:7c:43:39:d9:b8:
                    0a:74:a4:45:85:90:d0:7b:30:2e:1b:dc:c9:a4:f7:
                    a8:b9:78:25:a4:ec:68:df:f8:f0:10:8a:e2:9b:ce:
                    b8:56:65:b1:1c:83:d7:5d:d3:3f:db:c5:e6:a0:ed:
                    35:31
                Exponent: 65537 (0x10001)
        X509v3 extensions:
            X509v3 Basic Constraints: 
                CA:FALSE
            X509v3 Subject Key Identifier: 
                DD:D9:11:4A:61:2F:29:2A:FE:75:DB:9A:D7:35:44:B5:FF:B6:1D:61
            X509v3 Authority Key Identifier: 
                keyid:E7:D7:3A:17:01:CB:D9:45:35:C3:65:06:F8:F7:38:24:F5:D8:F5:24
                DirName:/CN=team458-net
                serial:2A:79:91:2F:60:E6:27:8B:F6:87:5C:B7:D1:DF:2B:71:80:27:5F:D7
            X509v3 Extended Key Usage: 
                TLS Web Server Authentication
            X509v3 Key Usage: 
                Digital Signature, Key Encipherment
            X509v3 Subject Alternative Name: 
                DNS:team458-server
    Signature Algorithm: sha256WithRSAEncryption
    Signature Value:
        32:97:5e:9d:83:b9:c8:7a:97:a8:04:dd:87:bf:99:cb:c4:39:
        95:19:c7:9f:6d:6c:bd:eb:1c:4f:05:30:0a:d4:7f:78:66:ee:
        58:1d:fc:6f:c2:f0:8b:b1:b5:03:cc:2f:64:37:3b:d2:59:17:
        48:fc:d1:28:aa:7f:84:7f:fb:ec:21:43:ec:dd:50:14:09:41:
        eb:ef:87:e4:e4:59:5f:74:58:6d:90:16:70:ee:8a:88:c6:f6:
        af:74:b8:a8:42:0b:57:21:b0:8c:c8:ef:47:ec:e9:57:d8:b5:
        0d:60:16:82:90:7e:44:c8:0d:29:0c:da:3e:f0:bb:27:4d:58:
        1a:ef:1a:20:3a:70:fd:a9:56:9a:a7:2f:1f:eb:a5:c4:d0:63:
        e1:b1:ec:21:74:c3:aa:91:4a:44:c0:f8:cf:48:b0:66:ae:96:
        a7:ca:5a:11:90:89:b7:1e:11:c8:61:48:ff:98:f5:e9:82:00:
        1b:4c:e2:69:c3:41:5d:97:6f:0a:d4:d1:54:f9:d8:8b:9e:c5:
        94:92:a4:13:93:05:80:25:0c:99:93:ac:d4:51:3e:dc:c3:3d:
        8a:a8:39:74:e8:2c:79:c5:a5:df:d2:a2:86:f4:29:1e:6d:21:
        61:66:02:93:62:58:8c:f1:51:d7:78:0b:a8:ac:ed:bf:2b:82:
        a9:91:26:94
-----BEGIN CERTIFICATE-----
MIIDeDCCAmCgAwIBAgIRAIEFuvSASMgl3DQLM9WmtLMwDQYJKoZIhvcNAQELBQAw
FjEUMBIGA1UEAwwLdGVhbTQ1OC1uZXQwHhcNMjMxMTA0MTA0ODQ2WhcNMjYxMDE5
MTA0ODQ2WjAZMRcwFQYDVQQDDA50ZWFtNDU4LXNlcnZlcjCCASIwDQYJKoZIhvcN
AQEBBQADggEPADCCAQoCggEBAPQkN6Jah8X4li7iZV4XzcyJD1WPoVWr9gDTGYVM
WC2bw9J+d5EO3IR9d6tG3rcwn41yekyJ/qPGkK0lPwX+yzvCfFT6nuh35V6pCDy7
ZqyQ8RvnNVtSyTgoQG3WiSMoN4vhPfOGvR3FLjvtNhnqr4wMxGVt9Z8UTcAz5SnL
ylXmx63+wbBPAWYuH785UAIsJ1NGTcNxSwwUpnCLKcTqPwKNZuWuJ8iFFVzFtXkB
MYJLX+ihPBwR4uu7dAY2ahSdNghbNPqSWpYF7YEHW3xDOdm4CnSkRYWQ0HswLhvc
yaT3qLl4JaTsaN/48BCK4pvOuFZlsRyD113TP9vF5qDtNTECAwEAAaOBvTCBujAJ
BgNVHRMEAjAAMB0GA1UdDgQWBBTd2RFKYS8pKv5125rXNUS1/7YdYTBRBgNVHSME
SjBIgBTn1zoXAcvZRTXDZQb49zgk9dj1JKEapBgwFjEUMBIGA1UEAwwLdGVhbTQ1
OC1uZXSCFCp5kS9g5ieL9odct9HfK3GAJ1/XMBMGA1UdJQQMMAoGCCsGAQUFBwMB
MAsGA1UdDwQEAwIFoDAZBgNVHREEEjAQgg50ZWFtNDU4LXNlcnZlcjANBgkqhkiG
9w0BAQsFAAOCAQEAMpdenYO5yHqXqATdh7+Zy8Q5lRnHn21svescTwUwCtR/eGbu
WB38b8Lwi7G1A8wvZDc70lkXSPzRKKp/hH/77CFD7N1QFAlB6++H5ORZX3RYbZAW
cO6KiMb2r3S4qEILVyGwjMjvR+zpV9i1DWAWgpB+RMgNKQzaPvC7J01YGu8aIDpw
/alWmqcvH+ulxNBj4bHsIXTDqpFKRMD4z0iwZq6Wp8paEZCJtx4RyGFI/5j16YIA
G0ziacNBXZdvCtTRVPnYi57FlJKkE5MFgCUMmZOs1FE+3MM9iqg5dOgsecWl39Ki
hvQpHm0hYWYCk2JYjPFR13gLqKztvyuCqZEmlA==
-----END CERTIFICATE-----
