Certificate:
    Data:
        Version: 3 (0x2)
        Serial Number:
            85:bc:76:87:48:fc:eb:08:99:6e:60:5c:d8:c9:eb:34
        Signature Algorithm: sha256WithRSAEncryption
        Issuer: CN=team458-net
        Validity
            Not Before: Nov  3 20:47:37 2023 GMT
            Not After : Oct 18 20:47:37 2026 GMT
        Subject: CN=team458-client
        Subject Public Key Info:
            Public Key Algorithm: rsaEncryption
                Public-Key: (2048 bit)
                Modulus:
                    00:86:ea:af:36:ef:1c:0b:61:8a:fa:52:35:cc:d3:
                    42:9d:69:f3:0e:88:aa:22:df:fb:9c:f0:5e:77:e7:
                    b6:4d:a2:e1:74:d4:25:82:28:9c:ef:70:e3:fe:c7:
                    d5:46:aa:f4:6f:e6:1b:fd:54:a6:f1:1b:dd:c2:db:
                    8c:88:27:78:ed:62:06:85:5e:94:42:f6:67:08:a5:
                    e2:e9:62:af:d2:51:e0:79:02:80:ad:ec:cd:43:b4:
                    49:55:01:00:c7:b6:11:43:95:e7:85:0c:c0:08:54:
                    2b:3b:f1:4c:f5:7d:84:31:85:dc:fb:5c:ee:86:b5:
                    17:ee:bd:ba:02:1f:6c:60:2d:01:d3:c7:40:5f:95:
                    d4:f8:7c:19:5f:16:78:1b:c3:93:94:4e:db:5f:b9:
                    4a:05:6d:8b:a6:ab:88:f7:5f:34:d1:c7:1d:3c:9d:
                    f5:59:6c:3d:76:92:c8:fd:43:45:85:2f:4d:e2:2c:
                    98:6a:a8:8e:fb:5b:b7:3c:29:2f:06:f3:34:d4:ab:
                    68:18:ca:88:c1:de:fa:9d:70:b7:2b:3b:78:e3:fb:
                    fa:16:50:d1:49:48:7c:2d:50:9d:72:88:6b:3b:35:
                    1e:4a:df:ac:84:5e:1b:9c:71:33:c9:8e:78:ef:77:
                    0e:16:f5:d4:8b:72:59:ca:95:31:bf:4b:93:85:9c:
                    20:3d
                Exponent: 65537 (0x10001)
        X509v3 extensions:
            X509v3 Basic Constraints: 
                CA:FALSE
            X509v3 Subject Key Identifier: 
                37:BF:97:05:A9:68:1E:3D:50:4B:BE:AD:25:A7:0C:65:91:12:79:E6
            X509v3 Authority Key Identifier: 
                keyid:1F:46:AD:67:75:03:8C:DF:D3:A2:02:0F:0F:D1:5D:72:AD:41:D6:C9
                DirName:/CN=team458-net
                serial:7A:FA:78:19:83:20:93:0F:5D:2B:9E:86:76:65:11:B8:96:7D:89:21
            X509v3 Extended Key Usage: 
                TLS Web Client Authentication
            X509v3 Key Usage: 
                Digital Signature
    Signature Algorithm: sha256WithRSAEncryption
    Signature Value:
        a4:40:46:f7:93:ac:2f:87:cf:49:33:b2:d7:ad:84:0d:d6:12:
        1e:03:78:aa:d9:80:85:68:bf:7d:fc:fa:4b:2c:2b:35:dd:c0:
        4a:2a:94:3b:b2:e7:34:12:f1:bc:4d:53:2f:e1:38:4c:71:95:
        64:14:0d:99:dc:eb:02:45:f1:fc:50:d4:3f:76:94:41:ad:42:
        dc:c5:3e:7f:b6:31:da:8d:4f:81:90:ad:85:3c:e7:39:71:e5:
        92:3d:c4:c6:98:76:1d:9c:79:6c:69:fe:26:8f:54:e9:e0:16:
        2f:7d:6f:a1:65:e2:05:b6:c7:bb:cc:8b:cf:02:6a:cc:13:5f:
        08:40:92:6a:b5:90:1d:a9:1a:62:57:4c:85:a9:6a:eb:83:ae:
        01:ac:ed:92:e4:f4:6a:e0:a7:99:ca:c0:db:ae:a5:98:91:27:
        71:b2:6a:92:f4:d5:66:fe:b5:6a:67:be:cb:8d:46:df:99:ae:
        df:16:86:da:35:a6:22:68:c6:83:80:dc:71:78:cc:0e:5c:41:
        21:64:40:b3:cb:94:db:e2:b6:7d:97:67:69:59:59:5f:cb:2e:
        2d:b1:b5:70:98:b8:6d:06:e6:2a:bc:a3:42:df:21:d7:a3:03:
        29:a7:40:29:c3:55:40:2f:1a:6d:f1:9f:46:bf:78:4e:78:5a:
        2b:ed:b5:ae
-----BEGIN CERTIFICATE-----
MIIDXTCCAkWgAwIBAgIRAIW8dodI/OsImW5gXNjJ6zQwDQYJKoZIhvcNAQELBQAw
FjEUMBIGA1UEAwwLdGVhbTQ1OC1uZXQwHhcNMjMxMTAzMjA0NzM3WhcNMjYxMDE4
MjA0NzM3WjAZMRcwFQYDVQQDDA50ZWFtNDU4LWNsaWVudDCCASIwDQYJKoZIhvcN
AQEBBQADggEPADCCAQoCggEBAIbqrzbvHAthivpSNczTQp1p8w6IqiLf+5zwXnfn
tk2i4XTUJYIonO9w4/7H1Uaq9G/mG/1UpvEb3cLbjIgneO1iBoVelEL2Zwil4uli
r9JR4HkCgK3szUO0SVUBAMe2EUOV54UMwAhUKzvxTPV9hDGF3Ptc7oa1F+69ugIf
bGAtAdPHQF+V1Ph8GV8WeBvDk5RO21+5SgVti6ariPdfNNHHHTyd9VlsPXaSyP1D
RYUvTeIsmGqojvtbtzwpLwbzNNSraBjKiMHe+p1wtys7eOP7+hZQ0UlIfC1QnXKI
azs1HkrfrIReG5xxM8mOeO93Dhb11ItyWcqVMb9Lk4WcID0CAwEAAaOBojCBnzAJ
BgNVHRMEAjAAMB0GA1UdDgQWBBQ3v5cFqWgePVBLvq0lpwxlkRJ55jBRBgNVHSME
SjBIgBQfRq1ndQOM39OiAg8P0V1yrUHWyaEapBgwFjEUMBIGA1UEAwwLdGVhbTQ1
OC1uZXSCFHr6eBmDIJMPXSuehnZlEbiWfYkhMBMGA1UdJQQMMAoGCCsGAQUFBwMC
MAsGA1UdDwQEAwIHgDANBgkqhkiG9w0BAQsFAAOCAQEApEBG95OsL4fPSTOy162E
DdYSHgN4qtmAhWi/ffz6SywrNd3ASiqUO7LnNBLxvE1TL+E4THGVZBQNmdzrAkXx
/FDUP3aUQa1C3MU+f7Yx2o1PgZCthTznOXHlkj3Exph2HZx5bGn+Jo9U6eAWL31v
oWXiBbbHu8yLzwJqzBNfCECSarWQHakaYldMhalq64OuAaztkuT0auCnmcrA266l
mJEncbJqkvTVZv61ame+y41G35mu3xaG2jWmImjGg4DccXjMDlxBIWRAs8uU2+K2
fZdnaVlZX8suLbG1cJi4bQbmKryjQt8h16MDKadAKcNVQC8abfGfRr94TnhaK+21
rg==
-----END CERTIFICATE-----
