Certificate:
    Data:
        Version: 3 (0x2)
        Serial Number:
            ad:67:cf:42:22:1b:fb:03:4d:0b:71:60:2c:45:a8:f7
        Signature Algorithm: sha256WithRSAEncryption
        Issuer: CN=team458-net
        Validity
            Not Before: Nov  4 11:37:48 2023 GMT
            Not After : Oct 19 11:37:48 2026 GMT
        Subject: CN=team458-client
        Subject Public Key Info:
            Public Key Algorithm: rsaEncryption
                Public-Key: (2048 bit)
                Modulus:
                    00:a7:a9:12:86:65:90:e3:b6:93:d8:0b:5f:49:d6:
                    69:f4:01:d2:5b:fb:78:c8:cd:db:70:b7:b7:49:6a:
                    ed:23:6b:c7:2f:0f:83:ab:07:93:d4:13:64:92:fe:
                    c9:69:37:b3:30:1f:63:d6:2d:cc:70:9f:b2:df:16:
                    1e:14:b1:af:be:6c:15:e2:61:78:f6:21:1c:82:98:
                    ce:63:69:7d:42:fe:d2:fb:8d:3c:75:85:a4:06:0b:
                    23:71:20:97:0e:9a:fa:d3:6e:37:ec:e3:20:56:92:
                    47:85:7c:57:8b:a6:e7:ec:b4:f5:01:ce:d8:77:8e:
                    cd:8a:69:ba:3a:c5:af:a2:c9:ec:e4:87:47:38:af:
                    eb:9b:61:80:07:f4:80:83:79:11:54:12:84:31:75:
                    51:f1:45:b4:56:84:8c:9c:e9:ca:e7:8a:c6:d8:c6:
                    29:47:00:31:2b:2c:c8:53:1b:59:09:4a:89:1c:ed:
                    c4:22:2b:5a:f6:52:dd:9c:3c:01:12:fb:63:bf:79:
                    ad:f9:7b:45:3b:ac:04:39:8d:84:94:67:ec:6f:90:
                    40:49:69:ed:7a:95:e4:4e:0e:55:c4:e8:88:df:46:
                    6c:31:33:5a:54:16:9a:2b:f8:87:15:6c:e8:75:8a:
                    c5:5f:74:c1:f6:b1:92:04:6d:29:eb:4f:58:8e:5c:
                    ea:9f
                Exponent: 65537 (0x10001)
        X509v3 extensions:
            X509v3 Basic Constraints: 
                CA:FALSE
            X509v3 Subject Key Identifier: 
                29:BC:25:1C:57:17:C1:09:9A:D2:C3:47:95:B4:6F:3D:5E:9E:8B:A1
            X509v3 Authority Key Identifier: 
                keyid:67:13:38:42:D5:39:F8:35:16:8F:B7:E9:C1:22:FC:44:FB:15:B0:33
                DirName:/CN=team458-net
                serial:3F:60:88:EB:E8:DA:CB:39:41:8F:A5:BC:11:63:8E:48:89:DB:8C:DD
            X509v3 Extended Key Usage: 
                TLS Web Client Authentication
            X509v3 Key Usage: 
                Digital Signature
    Signature Algorithm: sha256WithRSAEncryption
    Signature Value:
        98:18:dc:66:5d:42:9a:29:83:c1:22:8a:f3:06:1d:80:f8:75:
        54:9e:76:8d:44:04:c2:f4:46:cd:97:3d:e0:7b:8b:46:84:ab:
        72:2a:f0:af:29:ec:18:b0:05:78:32:5b:a2:5a:32:96:9e:54:
        f4:57:b8:50:f0:0a:bb:0f:07:6d:63:a8:d1:64:5c:c8:e4:84:
        08:70:34:a6:8f:53:37:1d:13:07:aa:d8:93:ed:f0:15:49:41:
        9d:fb:89:3a:46:b8:e0:37:e3:16:ac:66:0f:e4:a6:05:7c:4d:
        b6:96:a7:d8:6c:38:47:11:14:6f:4a:ab:fd:dc:7d:b8:5c:0c:
        87:01:14:aa:fe:9b:10:3a:85:10:82:de:58:83:41:17:d4:a1:
        24:b9:c4:3e:55:0a:74:5d:dd:78:af:43:8e:4d:d1:91:ce:6c:
        7d:c3:74:59:fa:b6:5e:e6:7f:83:fa:3e:59:26:2a:39:4b:61:
        73:e7:7a:05:b3:65:2f:6a:af:80:3d:6f:f7:12:eb:38:3e:ab:
        34:9e:c3:66:73:aa:4d:64:b9:0e:8d:65:fd:e8:56:10:74:5f:
        62:c9:1f:94:58:6b:c4:3c:2a:5e:2e:0f:0c:8e:fa:60:0f:af:
        7f:ed:86:5b:e5:2c:64:1c:69:31:ba:2a:57:2f:c1:b3:48:2b:
        a9:b4:10:37
-----BEGIN CERTIFICATE-----
MIIDXTCCAkWgAwIBAgIRAK1nz0IiG/sDTQtxYCxFqPcwDQYJKoZIhvcNAQELBQAw
FjEUMBIGA1UEAwwLdGVhbTQ1OC1uZXQwHhcNMjMxMTA0MTEzNzQ4WhcNMjYxMDE5
MTEzNzQ4WjAZMRcwFQYDVQQDDA50ZWFtNDU4LWNsaWVudDCCASIwDQYJKoZIhvcN
AQEBBQADggEPADCCAQoCggEBAKepEoZlkOO2k9gLX0nWafQB0lv7eMjN23C3t0lq
7SNrxy8Pg6sHk9QTZJL+yWk3szAfY9YtzHCfst8WHhSxr75sFeJhePYhHIKYzmNp
fUL+0vuNPHWFpAYLI3Eglw6a+tNuN+zjIFaSR4V8V4um5+y09QHO2HeOzYppujrF
r6LJ7OSHRziv65thgAf0gIN5EVQShDF1UfFFtFaEjJzpyueKxtjGKUcAMSssyFMb
WQlKiRztxCIrWvZS3Zw8ARL7Y795rfl7RTusBDmNhJRn7G+QQElp7XqV5E4OVcTo
iN9GbDEzWlQWmiv4hxVs6HWKxV90wfaxkgRtKetPWI5c6p8CAwEAAaOBojCBnzAJ
BgNVHRMEAjAAMB0GA1UdDgQWBBQpvCUcVxfBCZrSw0eVtG89Xp6LoTBRBgNVHSME
SjBIgBRnEzhC1Tn4NRaPt+nBIvxE+xWwM6EapBgwFjEUMBIGA1UEAwwLdGVhbTQ1
OC1uZXSCFD9giOvo2ss5QY+lvBFjjkiJ24zdMBMGA1UdJQQMMAoGCCsGAQUFBwMC
MAsGA1UdDwQEAwIHgDANBgkqhkiG9w0BAQsFAAOCAQEAmBjcZl1CmimDwSKK8wYd
gPh1VJ52jUQEwvRGzZc94HuLRoSrcirwrynsGLAFeDJboloylp5U9Fe4UPAKuw8H
bWOo0WRcyOSECHA0po9TNx0TB6rYk+3wFUlBnfuJOka44DfjFqxmD+SmBXxNtpan
2Gw4RxEUb0qr/dx9uFwMhwEUqv6bEDqFEILeWINBF9ShJLnEPlUKdF3deK9Djk3R
kc5sfcN0Wfq2XuZ/g/o+WSYqOUthc+d6BbNlL2qvgD1v9xLrOD6rNJ7DZnOqTWS5
Do1l/ehWEHRfYskflFhrxDwqXi4PDI76YA+vf+2GW+UsZBxpMboqVy/Bs0grqbQQ
Nw==
-----END CERTIFICATE-----
