Certificate:
    Data:
        Version: 3 (0x2)
        Serial Number:
            f3:f2:49:e3:55:0c:21:d4:4e:e7:65:7a:5b:4d:d6:bf
        Signature Algorithm: sha256WithRSAEncryption
        Issuer: CN=team458-net
        Validity
            Not Before: Nov  3 20:47:37 2023 GMT
            Not After : Oct 18 20:47:37 2026 GMT
        Subject: CN=team458-server
        Subject Public Key Info:
            Public Key Algorithm: rsaEncryption
                Public-Key: (2048 bit)
                Modulus:
                    00:d3:7f:db:5b:76:e1:71:11:40:87:f4:41:a0:7f:
                    c4:b1:01:1d:10:b4:c7:5e:12:f7:61:08:3f:ed:1a:
                    2e:20:3a:ec:c1:68:4b:ef:72:7a:91:c9:c0:4f:7d:
                    af:1b:e6:0c:e6:20:fb:48:41:ba:41:56:9e:86:7c:
                    37:f9:02:c4:d6:34:ce:8f:29:27:96:d5:7a:5f:eb:
                    5a:bf:a0:99:b1:d1:7e:72:e0:ed:b0:c7:5f:6a:f2:
                    03:d0:83:53:fa:2f:09:f9:d5:5f:f8:f0:2e:15:47:
                    76:20:cf:df:f4:dc:56:8b:41:df:de:a0:1c:c2:00:
                    02:13:76:c5:60:c3:6c:f0:73:ef:16:cc:b6:3a:2d:
                    dc:f3:96:57:38:7a:ca:5d:80:89:da:a7:79:eb:8f:
                    44:13:1c:79:50:80:91:a5:4b:3d:33:f8:3f:68:44:
                    e8:8a:37:80:1a:14:f0:d7:f1:88:26:22:59:6a:8d:
                    2f:f6:8d:12:d5:d0:c0:e0:66:14:74:96:5c:4d:24:
                    aa:07:ab:9a:d0:62:68:f2:b5:2f:45:ee:ef:3a:cf:
                    b1:61:28:8a:33:86:59:90:32:3e:83:95:8c:db:24:
                    01:7a:4a:48:b3:d5:13:02:3d:f2:54:7a:4d:9c:b3:
                    c4:2f:6b:f3:8c:2f:24:fe:05:53:92:84:cc:a7:aa:
                    7f:87
                Exponent: 65537 (0x10001)
        X509v3 extensions:
            X509v3 Basic Constraints: 
                CA:FALSE
            X509v3 Subject Key Identifier: 
                C9:69:45:E8:06:10:76:70:FE:89:05:A3:68:D7:D1:61:48:91:88:6B
            X509v3 Authority Key Identifier: 
                keyid:1F:46:AD:67:75:03:8C:DF:D3:A2:02:0F:0F:D1:5D:72:AD:41:D6:C9
                DirName:/CN=team458-net
                serial:7A:FA:78:19:83:20:93:0F:5D:2B:9E:86:76:65:11:B8:96:7D:89:21
            X509v3 Extended Key Usage: 
                TLS Web Server Authentication
            X509v3 Key Usage: 
                Digital Signature, Key Encipherment
            X509v3 Subject Alternative Name: 
                DNS:team458-server
    Signature Algorithm: sha256WithRSAEncryption
    Signature Value:
        7a:6b:9b:b7:b8:80:e0:f5:57:af:ec:31:25:8e:32:0d:11:b9:
        06:d5:03:f0:98:db:42:e3:c0:ca:db:0c:d5:ab:c9:01:80:4a:
        f8:b8:7c:ab:78:9e:e8:66:51:0f:bc:20:29:2c:b0:b6:81:fc:
        d9:67:5a:63:55:7b:87:46:4f:14:d8:be:df:27:31:53:37:cf:
        b6:64:9e:4d:bb:3a:e0:88:c2:d7:0a:b2:e6:c3:6d:53:65:d4:
        b8:a4:22:61:2e:1e:d5:82:b6:16:d9:fc:8e:c8:26:58:68:16:
        4e:5c:a8:d7:a9:f8:91:ec:32:e0:63:a1:75:01:82:3c:c7:6f:
        dd:18:97:a7:ec:9c:44:70:a4:02:c5:f8:de:de:b3:e0:08:63:
        cc:00:63:d6:48:0c:71:ec:a5:05:a1:16:4b:86:e9:58:11:04:
        d8:ce:8a:b2:fd:86:fe:75:e5:66:e0:f1:a0:00:47:fc:84:35:
        cb:c5:df:2e:51:a4:71:7c:43:13:d4:2f:62:71:5e:ca:8e:44:
        d5:db:84:cf:54:a4:3c:f4:78:05:16:8d:14:1c:6e:1c:f9:1b:
        41:79:50:16:87:d0:94:31:bd:d2:e1:aa:5b:c3:45:ca:ec:28:
        08:85:a2:68:4d:7b:f4:5d:a1:9f:ca:8b:fd:ff:b2:cb:5b:9d:
        eb:60:49:81
-----BEGIN CERTIFICATE-----
MIIDeDCCAmCgAwIBAgIRAPPySeNVDCHUTudleltN1r8wDQYJKoZIhvcNAQELBQAw
FjEUMBIGA1UEAwwLdGVhbTQ1OC1uZXQwHhcNMjMxMTAzMjA0NzM3WhcNMjYxMDE4
MjA0NzM3WjAZMRcwFQYDVQQDDA50ZWFtNDU4LXNlcnZlcjCCASIwDQYJKoZIhvcN
AQEBBQADggEPADCCAQoCggEBANN/21t24XERQIf0QaB/xLEBHRC0x14S92EIP+0a
LiA67MFoS+9yepHJwE99rxvmDOYg+0hBukFWnoZ8N/kCxNY0zo8pJ5bVel/rWr+g
mbHRfnLg7bDHX2ryA9CDU/ovCfnVX/jwLhVHdiDP3/TcVotB396gHMIAAhN2xWDD
bPBz7xbMtjot3POWVzh6yl2AidqneeuPRBMceVCAkaVLPTP4P2hE6Io3gBoU8Nfx
iCYiWWqNL/aNEtXQwOBmFHSWXE0kqgermtBiaPK1L0Xu7zrPsWEoijOGWZAyPoOV
jNskAXpKSLPVEwI98lR6TZyzxC9r84wvJP4FU5KEzKeqf4cCAwEAAaOBvTCBujAJ
BgNVHRMEAjAAMB0GA1UdDgQWBBTJaUXoBhB2cP6JBaNo19FhSJGIazBRBgNVHSME
SjBIgBQfRq1ndQOM39OiAg8P0V1yrUHWyaEapBgwFjEUMBIGA1UEAwwLdGVhbTQ1
OC1uZXSCFHr6eBmDIJMPXSuehnZlEbiWfYkhMBMGA1UdJQQMMAoGCCsGAQUFBwMB
MAsGA1UdDwQEAwIFoDAZBgNVHREEEjAQgg50ZWFtNDU4LXNlcnZlcjANBgkqhkiG
9w0BAQsFAAOCAQEAemubt7iA4PVXr+wxJY4yDRG5BtUD8JjbQuPAytsM1avJAYBK
+Lh8q3ie6GZRD7wgKSywtoH82WdaY1V7h0ZPFNi+3ycxUzfPtmSeTbs64IjC1wqy
5sNtU2XUuKQiYS4e1YK2Ftn8jsgmWGgWTlyo16n4kewy4GOhdQGCPMdv3RiXp+yc
RHCkAsX43t6z4AhjzABj1kgMceylBaEWS4bpWBEE2M6Ksv2G/nXlZuDxoABH/IQ1
y8XfLlGkcXxDE9QvYnFeyo5E1duEz1SkPPR4BRaNFBxuHPkbQXlQFofQlDG90uGq
W8NFyuwoCIWiaE179F2hn8qL/f+yy1ud62BJgQ==
-----END CERTIFICATE-----
