Certificate:
    Data:
        Version: 3 (0x2)
        Serial Number:
            b7:dc:85:70:13:24:98:ca:96:9c:38:2b:f7:ea:ae:3d
        Signature Algorithm: sha256WithRSAEncryption
        Issuer: CN=team293-net
        Validity
            Not Before: Nov  4 11:33:41 2023 GMT
            Not After : Oct 19 11:33:41 2026 GMT
        Subject: CN=team293-client
        Subject Public Key Info:
            Public Key Algorithm: rsaEncryption
                Public-Key: (2048 bit)
                Modulus:
                    00:a6:1e:ed:40:5d:20:d1:29:54:35:f6:5d:6a:93:
                    dd:f1:95:a1:fc:8e:79:14:90:68:c6:1a:fe:a9:1e:
                    c5:4d:35:05:b7:46:13:12:13:90:ee:fa:3a:75:92:
                    37:56:90:58:ee:fe:02:06:d3:5f:35:30:1b:1e:f3:
                    32:c2:c0:85:26:fe:68:24:31:45:d8:30:fd:76:a6:
                    78:7b:6a:7f:1f:b9:cc:2b:f8:00:78:3f:61:13:84:
                    09:e9:4d:73:bf:5a:c6:77:d2:78:4c:ca:ef:76:87:
                    bd:1f:7e:eb:d5:63:9b:5d:d9:b5:13:5e:2b:d0:89:
                    29:80:f9:1d:19:6a:f4:ad:95:5e:f3:da:d3:6a:2d:
                    9e:1b:89:5b:8d:74:c4:65:78:20:6c:a2:11:d9:ca:
                    59:d2:26:4c:be:67:79:03:5a:2c:30:3c:ec:30:6c:
                    6c:fe:6e:89:59:24:ff:69:e1:10:71:c9:7d:74:da:
                    be:91:c3:dd:f1:6c:ff:de:97:7d:a9:d9:43:6e:96:
                    a7:5d:10:a0:f0:45:81:ae:8e:67:9e:b1:94:96:58:
                    5c:12:f5:fc:7c:5f:3f:76:a0:7d:c4:a5:c2:4d:5b:
                    12:ab:76:af:de:68:9e:d6:bd:58:b2:82:e0:df:0c:
                    f2:90:4a:fe:83:95:59:1f:8c:e9:ed:41:69:6a:b4:
                    38:a7
                Exponent: 65537 (0x10001)
        X509v3 extensions:
            X509v3 Basic Constraints: 
                CA:FALSE
            X509v3 Subject Key Identifier: 
                FE:7E:50:12:15:88:93:37:0F:74:B8:6E:5E:98:5E:29:86:A7:01:74
            X509v3 Authority Key Identifier: 
                keyid:B7:EC:60:E8:34:B8:DD:86:45:89:D0:8E:DE:B2:A3:5D:DC:34:ED:12
                DirName:/CN=team293-net
                serial:51:26:A0:61:68:F8:08:38:BF:35:BF:CC:67:C6:04:37:55:02:B5:72
            X509v3 Extended Key Usage: 
                TLS Web Client Authentication
            X509v3 Key Usage: 
                Digital Signature
    Signature Algorithm: sha256WithRSAEncryption
    Signature Value:
        bf:bd:ce:8b:1b:4c:91:87:bb:90:5d:9a:53:23:f4:88:37:aa:
        3e:3a:67:88:3f:42:e1:01:8c:8f:88:15:8a:0c:21:02:b4:bf:
        79:cf:dc:7b:3d:68:f7:2d:97:8b:5c:e5:e0:59:3d:42:41:a3:
        58:e4:f8:d4:99:8c:d6:13:b8:fc:6f:29:d6:99:55:60:79:1f:
        cb:0a:25:ab:da:7f:5b:81:ad:7e:aa:c5:b5:01:25:b7:03:d3:
        c3:82:02:5d:9b:b5:2e:0e:36:be:88:87:b8:68:ba:34:31:e7:
        b0:1b:9a:d0:cf:30:c0:8b:aa:cb:6f:fe:85:ec:60:aa:32:6b:
        91:34:84:4b:fd:66:b9:f8:93:30:1b:7a:77:5c:11:ee:65:34:
        b8:c2:1d:8d:ac:68:20:21:73:98:53:64:57:97:e5:6f:41:2f:
        27:ad:3d:71:d8:4a:86:67:4e:4f:f4:c5:3f:64:27:4b:e4:3e:
        10:ed:d1:fc:df:3e:7f:bf:6a:08:2d:bd:ee:94:b2:4f:31:75:
        2c:9d:1e:41:d6:53:29:44:b1:fe:88:68:d2:7c:c7:43:22:6d:
        d0:6c:3e:fb:3a:26:85:fd:b6:1c:68:ab:d6:57:6a:18:d1:64:
        99:3f:a3:6e:57:91:74:a7:7e:dd:c5:d4:ee:81:03:8d:44:3f:
        fa:ba:6c:ba
-----BEGIN CERTIFICATE-----
MIIDXTCCAkWgAwIBAgIRALfchXATJJjKlpw4K/fqrj0wDQYJKoZIhvcNAQELBQAw
FjEUMBIGA1UEAwwLdGVhbTI5My1uZXQwHhcNMjMxMTA0MTEzMzQxWhcNMjYxMDE5
MTEzMzQxWjAZMRcwFQYDVQQDDA50ZWFtMjkzLWNsaWVudDCCASIwDQYJKoZIhvcN
AQEBBQADggEPADCCAQoCggEBAKYe7UBdINEpVDX2XWqT3fGVofyOeRSQaMYa/qke
xU01BbdGExITkO76OnWSN1aQWO7+AgbTXzUwGx7zMsLAhSb+aCQxRdgw/XameHtq
fx+5zCv4AHg/YROECelNc79axnfSeEzK73aHvR9+69Vjm13ZtRNeK9CJKYD5HRlq
9K2VXvPa02otnhuJW410xGV4IGyiEdnKWdImTL5neQNaLDA87DBsbP5uiVkk/2nh
EHHJfXTavpHD3fFs/96XfanZQ26Wp10QoPBFga6OZ56xlJZYXBL1/HxfP3agfcSl
wk1bEqt2r95onta9WLKC4N8M8pBK/oOVWR+M6e1BaWq0OKcCAwEAAaOBojCBnzAJ
BgNVHRMEAjAAMB0GA1UdDgQWBBT+flASFYiTNw90uG5emF4phqcBdDBRBgNVHSME
SjBIgBS37GDoNLjdhkWJ0I7esqNd3DTtEqEapBgwFjEUMBIGA1UEAwwLdGVhbTI5
My1uZXSCFFEmoGFo+Ag4vzW/zGfGBDdVArVyMBMGA1UdJQQMMAoGCCsGAQUFBwMC
MAsGA1UdDwQEAwIHgDANBgkqhkiG9w0BAQsFAAOCAQEAv73OixtMkYe7kF2aUyP0
iDeqPjpniD9C4QGMj4gVigwhArS/ec/cez1o9y2Xi1zl4Fk9QkGjWOT41JmM1hO4
/G8p1plVYHkfywolq9p/W4GtfqrFtQEltwPTw4ICXZu1Lg42voiHuGi6NDHnsBua
0M8wwIuqy2/+hexgqjJrkTSES/1mufiTMBt6d1wR7mU0uMIdjaxoICFzmFNkV5fl
b0EvJ609cdhKhmdOT/TFP2QnS+Q+EO3R/N8+f79qCC297pSyTzF1LJ0eQdZTKUSx
/oho0nzHQyJt0Gw++zomhf22HGir1ldqGNFkmT+jbleRdKd+3cXU7oEDjUQ/+rps
ug==
-----END CERTIFICATE-----
