Certificate:
    Data:
        Version: 3 (0x2)
        Serial Number:
            4a:70:63:f1:47:f1:a9:cc:00:08:70:43:9f:84:50:5b
        Signature Algorithm: sha256WithRSAEncryption
        Issuer: CN=team413-net
        Validity
            Not Before: Nov  4 11:36:46 2023 GMT
            Not After : Oct 19 11:36:46 2026 GMT
        Subject: CN=team413-client
        Subject Public Key Info:
            Public Key Algorithm: rsaEncryption
                Public-Key: (2048 bit)
                Modulus:
                    00:b0:58:16:6f:b9:ce:19:a1:18:6a:e0:cc:e4:e7:
                    53:e2:70:2d:ff:e8:ab:5c:f6:0c:3f:95:27:e2:b2:
                    29:3b:4e:3c:e9:4a:91:4c:d5:46:67:04:c9:2c:df:
                    5d:5b:97:b1:f3:68:48:e1:d0:e9:c0:f8:3e:f1:e5:
                    c8:8d:c1:84:78:28:3e:56:65:e8:2c:c5:5e:64:a6:
                    66:b4:c9:58:51:3e:da:5f:77:7d:88:a4:00:6d:6a:
                    6d:00:d4:59:ea:75:df:0d:13:7c:0e:40:a3:a6:b4:
                    10:1d:5f:98:82:36:80:e0:3a:37:7a:5f:f9:b1:83:
                    28:63:f0:99:5c:65:2c:56:cf:b5:bc:a1:00:36:ba:
                    25:f5:e8:f9:e8:f6:e9:9e:5d:6b:d0:14:d8:b3:c9:
                    cf:7f:f7:44:50:14:fa:20:df:f7:23:d7:37:9b:1b:
                    8e:0d:7f:26:5f:3c:3c:af:5b:e1:47:be:5b:63:72:
                    da:13:63:37:0a:f8:22:5e:b6:db:99:fc:4b:e4:43:
                    32:59:58:16:7b:e8:a5:28:2c:9e:f3:51:72:22:0d:
                    99:80:dc:60:ba:e3:a5:ab:9e:fc:28:81:d3:93:36:
                    bc:02:f2:49:e3:96:22:a5:6e:b3:ff:53:bd:42:07:
                    81:3c:d5:e8:69:81:82:b0:6e:49:d6:e9:7b:94:d7:
                    54:01
                Exponent: 65537 (0x10001)
        X509v3 extensions:
            X509v3 Basic Constraints: 
                CA:FALSE
            X509v3 Subject Key Identifier: 
                E8:21:66:1D:28:76:1C:B3:8C:B1:8D:69:B8:57:90:21:81:FD:C9:72
            X509v3 Authority Key Identifier: 
                keyid:2F:B3:61:F6:FC:73:55:05:5B:F2:47:07:4C:F3:8B:8A:46:73:3C:EB
                DirName:/CN=team413-net
                serial:44:8D:51:A5:1C:E8:FD:4D:BA:4A:F3:04:3E:D4:AB:BC:D0:60:8D:74
            X509v3 Extended Key Usage: 
                TLS Web Client Authentication
            X509v3 Key Usage: 
                Digital Signature
    Signature Algorithm: sha256WithRSAEncryption
    Signature Value:
        61:b3:0e:b0:a6:c4:3e:fc:3e:91:ab:cc:08:0b:ad:01:8c:ed:
        28:77:33:dd:86:57:fb:6d:85:57:ff:db:b7:96:1d:61:da:0c:
        f8:77:99:88:c2:d5:6b:7a:9d:5f:e4:3e:11:e0:da:18:fc:4f:
        6a:69:3b:23:e5:ba:0a:01:8c:a2:c9:b9:09:e4:4d:30:dc:38:
        bb:aa:fe:5b:f6:11:e6:cb:de:31:f0:e0:b2:37:ce:20:30:09:
        4f:7d:9c:70:59:eb:91:23:e5:af:25:9c:da:ee:10:c0:40:7e:
        7b:e0:56:dc:0c:72:79:74:c6:85:4f:f1:62:ce:01:9c:ce:9e:
        92:26:bb:f9:b6:4f:46:ff:26:94:66:2b:8b:9b:0b:d3:c9:8d:
        01:20:02:4d:a9:66:55:c2:82:8b:5b:e9:49:e0:59:7b:09:ab:
        08:14:91:05:2a:4f:b5:f1:f8:90:a2:56:2d:39:1a:de:4f:b2:
        71:16:f5:d7:c7:b7:f8:ca:9a:db:75:c4:3e:f3:50:54:6c:e5:
        a1:30:da:43:b4:22:19:dd:92:91:46:26:03:83:4e:33:e1:15:
        24:f2:08:cd:59:9d:e8:ef:2a:a8:24:96:58:fb:65:a4:8d:f5:
        7c:82:46:e1:5c:c6:c0:db:99:52:a7:7b:f2:5d:ec:76:1e:d5:
        2d:ae:11:00
-----BEGIN CERTIFICATE-----
MIIDXDCCAkSgAwIBAgIQSnBj8UfxqcwACHBDn4RQWzANBgkqhkiG9w0BAQsFADAW
MRQwEgYDVQQDDAt0ZWFtNDEzLW5ldDAeFw0yMzExMDQxMTM2NDZaFw0yNjEwMTkx
MTM2NDZaMBkxFzAVBgNVBAMMDnRlYW00MTMtY2xpZW50MIIBIjANBgkqhkiG9w0B
AQEFAAOCAQ8AMIIBCgKCAQEAsFgWb7nOGaEYauDM5OdT4nAt/+irXPYMP5Un4rIp
O0486UqRTNVGZwTJLN9dW5ex82hI4dDpwPg+8eXIjcGEeCg+VmXoLMVeZKZmtMlY
UT7aX3d9iKQAbWptANRZ6nXfDRN8DkCjprQQHV+YgjaA4Do3el/5sYMoY/CZXGUs
Vs+1vKEANrol9ej56Pbpnl1r0BTYs8nPf/dEUBT6IN/3I9c3mxuODX8mXzw8r1vh
R75bY3LaE2M3CvgiXrbbmfxL5EMyWVgWe+ilKCye81FyIg2ZgNxguuOlq578KIHT
kza8AvJJ45YipW6z/1O9QgeBPNXoaYGCsG5J1ul7lNdUAQIDAQABo4GiMIGfMAkG
A1UdEwQCMAAwHQYDVR0OBBYEFOghZh0odhyzjLGNabhXkCGB/clyMFEGA1UdIwRK
MEiAFC+zYfb8c1UFW/JHB0zzi4pGczzroRqkGDAWMRQwEgYDVQQDDAt0ZWFtNDEz
LW5ldIIURI1RpRzo/U26SvMEPtSrvNBgjXQwEwYDVR0lBAwwCgYIKwYBBQUHAwIw
CwYDVR0PBAQDAgeAMA0GCSqGSIb3DQEBCwUAA4IBAQBhsw6wpsQ+/D6Rq8wIC60B
jO0odzPdhlf7bYVX/9u3lh1h2gz4d5mIwtVrep1f5D4R4NoY/E9qaTsj5boKAYyi
ybkJ5E0w3Di7qv5b9hHmy94x8OCyN84gMAlPfZxwWeuRI+WvJZza7hDAQH574Fbc
DHJ5dMaFT/FizgGczp6SJrv5tk9G/yaUZiuLmwvTyY0BIAJNqWZVwoKLW+lJ4Fl7
CasIFJEFKk+18fiQolYtORreT7JxFvXXx7f4yprbdcQ+81BUbOWhMNpDtCIZ3ZKR
RiYDg04z4RUk8gjNWZ3o7yqoJJZY+2WkjfV8gkbhXMbA25lSp3vyXex2HtUtrhEA
-----END CERTIFICATE-----
