Certificate:
    Data:
        Version: 3 (0x2)
        Serial Number:
            5f:32:5d:57:4c:b0:80:57:56:9c:7e:ec:c9:d6:8a:42
        Signature Algorithm: sha256WithRSAEncryption
        Issuer: CN=team413-net
        Validity
            Not Before: Nov  4 11:36:47 2023 GMT
            Not After : Oct 19 11:36:47 2026 GMT
        Subject: CN=team413-server
        Subject Public Key Info:
            Public Key Algorithm: rsaEncryption
                Public-Key: (2048 bit)
                Modulus:
                    00:e8:ad:5b:1d:04:9b:b0:62:2c:1b:4f:36:b0:1e:
                    dd:7a:a3:47:5a:aa:ad:28:3c:75:7d:b0:ea:6b:27:
                    e5:1c:83:f6:98:7a:4a:06:58:2b:68:07:b8:68:aa:
                    68:61:7d:00:ab:cf:ba:56:f4:75:b5:4c:52:ce:36:
                    36:fc:3b:f0:f0:23:71:b2:4c:d7:45:6c:3d:ee:0c:
                    26:8f:2a:f9:d7:bd:d8:16:92:58:9d:a4:96:f6:a5:
                    81:67:c8:69:df:de:5c:fe:58:6f:1e:40:54:3f:e3:
                    e8:2d:0b:f3:15:0b:f4:1b:56:93:4f:58:95:ab:c8:
                    9d:cf:50:02:69:37:1c:34:4e:ff:ad:a7:41:e4:7c:
                    31:5d:1d:26:d2:da:7d:7b:70:f9:ad:01:38:c2:3d:
                    84:cb:1c:48:e0:64:99:64:12:cc:42:05:ea:ce:b2:
                    8a:cc:43:97:ab:d5:86:f7:56:50:d6:2b:97:ec:04:
                    db:fd:9f:af:67:d7:b6:54:54:12:5c:09:70:44:20:
                    b8:8d:9c:37:45:45:d0:01:7d:27:cc:eb:4e:2c:9d:
                    ea:bf:91:84:89:93:d9:72:61:2a:e5:7c:2c:b7:ab:
                    7b:a3:dd:50:e9:ea:71:af:8c:29:23:7a:3d:c2:a5:
                    e9:ce:ef:f0:3d:ce:a1:76:ec:63:99:18:7b:dc:f3:
                    83:97
                Exponent: 65537 (0x10001)
        X509v3 extensions:
            X509v3 Basic Constraints: 
                CA:FALSE
            X509v3 Subject Key Identifier: 
                20:0D:8F:CC:1A:3E:C7:80:94:99:85:95:19:B4:A3:2B:F7:18:91:1C
            X509v3 Authority Key Identifier: 
                keyid:2F:B3:61:F6:FC:73:55:05:5B:F2:47:07:4C:F3:8B:8A:46:73:3C:EB
                DirName:/CN=team413-net
                serial:44:8D:51:A5:1C:E8:FD:4D:BA:4A:F3:04:3E:D4:AB:BC:D0:60:8D:74
            X509v3 Extended Key Usage: 
                TLS Web Server Authentication
            X509v3 Key Usage: 
                Digital Signature, Key Encipherment
            X509v3 Subject Alternative Name: 
                DNS:team413-server
    Signature Algorithm: sha256WithRSAEncryption
    Signature Value:
        34:24:14:97:ba:7e:80:93:04:44:d9:42:dd:7a:65:a7:8b:89:
        8c:cf:93:2d:23:86:11:1e:9a:75:cd:db:49:87:90:cc:59:6e:
        e3:cc:6e:e6:f7:03:38:45:0c:4d:ae:0c:c3:80:d8:71:76:cf:
        a9:f8:5d:ba:28:66:d0:ce:2a:11:03:37:45:65:35:4f:56:6e:
        4b:ea:bd:7a:a8:70:62:70:2d:14:d9:78:10:91:e6:c3:96:d7:
        b3:2d:9d:4f:5f:25:6c:c1:76:40:ae:43:3b:c3:f8:f9:59:db:
        2e:fe:ab:b1:89:f3:d8:3a:20:c4:9c:fd:f0:71:90:ff:a3:ae:
        aa:3a:26:5c:46:14:f4:9d:99:3a:3c:cf:e2:76:be:a6:af:39:
        0e:d1:81:0a:b9:ab:f5:be:fc:bd:44:71:15:91:e7:4f:b0:35:
        36:74:ea:4f:0a:c8:69:2c:f5:d6:52:97:c5:ff:9e:c3:ce:7d:
        ac:ee:e5:1e:5a:b6:81:49:3f:d1:ed:77:e7:d3:6e:9c:20:5c:
        98:b8:c8:0f:55:e3:77:4e:79:e0:da:84:67:1a:47:0d:b6:da:
        73:1c:6e:1b:e0:83:a8:b2:d0:4a:e6:b9:e6:ae:2c:b7:b0:32:
        bf:df:96:70:5d:ce:51:e3:eb:cf:45:c3:4b:26:a4:12:9f:75:
        e1:a2:ef:2d
-----BEGIN CERTIFICATE-----
MIIDdzCCAl+gAwIBAgIQXzJdV0ywgFdWnH7sydaKQjANBgkqhkiG9w0BAQsFADAW
MRQwEgYDVQQDDAt0ZWFtNDEzLW5ldDAeFw0yMzExMDQxMTM2NDdaFw0yNjEwMTkx
MTM2NDdaMBkxFzAVBgNVBAMMDnRlYW00MTMtc2VydmVyMIIBIjANBgkqhkiG9w0B
AQEFAAOCAQ8AMIIBCgKCAQEA6K1bHQSbsGIsG082sB7deqNHWqqtKDx1fbDqayfl
HIP2mHpKBlgraAe4aKpoYX0Aq8+6VvR1tUxSzjY2/Dvw8CNxskzXRWw97gwmjyr5
173YFpJYnaSW9qWBZ8hp395c/lhvHkBUP+PoLQvzFQv0G1aTT1iVq8idz1ACaTcc
NE7/radB5HwxXR0m0tp9e3D5rQE4wj2EyxxI4GSZZBLMQgXqzrKKzEOXq9WG91ZQ
1iuX7ATb/Z+vZ9e2VFQSXAlwRCC4jZw3RUXQAX0nzOtOLJ3qv5GEiZPZcmEq5Xws
t6t7o91Q6epxr4wpI3o9wqXpzu/wPc6hduxjmRh73PODlwIDAQABo4G9MIG6MAkG
A1UdEwQCMAAwHQYDVR0OBBYEFCANj8waPseAlJmFlRm0oyv3GJEcMFEGA1UdIwRK
MEiAFC+zYfb8c1UFW/JHB0zzi4pGczzroRqkGDAWMRQwEgYDVQQDDAt0ZWFtNDEz
LW5ldIIURI1RpRzo/U26SvMEPtSrvNBgjXQwEwYDVR0lBAwwCgYIKwYBBQUHAwEw
CwYDVR0PBAQDAgWgMBkGA1UdEQQSMBCCDnRlYW00MTMtc2VydmVyMA0GCSqGSIb3
DQEBCwUAA4IBAQA0JBSXun6AkwRE2ULdemWni4mMz5MtI4YRHpp1zdtJh5DMWW7j
zG7m9wM4RQxNrgzDgNhxds+p+F26KGbQzioRAzdFZTVPVm5L6r16qHBicC0U2XgQ
kebDltezLZ1PXyVswXZArkM7w/j5Wdsu/quxifPYOiDEnP3wcZD/o66qOiZcRhT0
nZk6PM/idr6mrzkO0YEKuav1vvy9RHEVkedPsDU2dOpPCshpLPXWUpfF/57Dzn2s
7uUeWraBST/R7Xfn026cIFyYuMgPVeN3Tnng2oRnGkcNttpzHG4b4IOostBK5rnm
riy3sDK/35ZwXc5R4+vPRcNLJqQSn3Xhou8t
-----END CERTIFICATE-----
