Certificate:
    Data:
        Version: 3 (0x2)
        Serial Number:
            e6:e8:4e:f7:fd:cf:31:1b:5d:de:b4:08:12:b2:b1:5a
        Signature Algorithm: sha256WithRSAEncryption
        Issuer: CN=team413-net
        Validity
            Not Before: Nov  4 10:48:04 2023 GMT
            Not After : Oct 19 10:48:04 2026 GMT
        Subject: CN=team413-client
        Subject Public Key Info:
            Public Key Algorithm: rsaEncryption
                Public-Key: (2048 bit)
                Modulus:
                    00:9f:96:83:8f:1f:c3:ab:50:8b:73:70:b3:b1:48:
                    c2:55:ee:5c:33:1c:64:8e:ab:d8:f7:22:2b:14:25:
                    4f:4f:c3:fe:1c:51:0a:ff:14:c9:2d:db:db:02:e1:
                    2f:d6:e3:23:f6:15:7a:4d:cf:6a:73:95:3f:fa:d6:
                    b7:e3:b1:a8:46:40:25:c3:a7:97:7b:3a:23:8c:0e:
                    9d:34:33:01:cd:2d:c0:6d:4e:3d:c6:c4:41:e4:25:
                    a8:c2:10:56:38:97:67:67:7a:1b:d8:b8:97:f6:3e:
                    cf:25:cb:de:a9:a4:67:1a:c7:78:fc:f4:fb:a3:a8:
                    6f:45:1b:39:e2:0a:28:66:61:17:64:be:21:18:5c:
                    73:85:df:04:16:0b:20:fe:75:1c:40:c6:e1:bf:0c:
                    96:d7:68:6a:de:9d:07:5a:66:17:15:0d:65:f9:f0:
                    55:f6:5b:4f:54:78:98:6c:d9:c0:c4:7d:d8:d3:34:
                    b3:c5:97:ad:10:9c:a8:ea:d0:33:74:69:ea:78:4c:
                    d2:90:84:30:f6:27:93:e1:67:2e:0e:f3:ec:a8:38:
                    df:b6:3b:60:03:34:c5:4e:8b:e1:45:b4:4d:60:ea:
                    05:da:88:c5:80:7e:aa:e8:18:5a:3b:3a:56:a3:20:
                    55:3c:24:45:1e:8c:85:0d:a3:71:ee:b7:4c:aa:79:
                    92:85
                Exponent: 65537 (0x10001)
        X509v3 extensions:
            X509v3 Basic Constraints: 
                CA:FALSE
            X509v3 Subject Key Identifier: 
                72:78:D8:15:D0:91:4F:2C:A8:AA:96:03:C5:0B:E7:D0:DB:56:2B:0F
            X509v3 Authority Key Identifier: 
                keyid:7E:72:F5:F2:7A:F2:E1:38:C9:48:30:5C:17:C3:24:2A:9D:D4:55:F5
                DirName:/CN=team413-net
                serial:7D:C1:2E:6A:A1:E4:34:88:FB:CD:C2:7C:F5:B3:49:E0:8B:02:86:E0
            X509v3 Extended Key Usage: 
                TLS Web Client Authentication
            X509v3 Key Usage: 
                Digital Signature
    Signature Algorithm: sha256WithRSAEncryption
    Signature Value:
        95:4a:59:f1:f1:54:84:a6:80:99:79:5e:92:2a:c1:e4:74:fb:
        ab:66:19:b2:ef:eb:b7:db:98:5c:70:de:6d:6e:63:1c:59:2c:
        07:8b:c6:8f:68:a3:8e:39:1b:04:7a:93:d7:7d:b2:75:09:e7:
        1b:83:97:3d:37:17:e9:d3:29:6e:68:a5:fb:c9:e8:b6:5f:e6:
        6c:dd:c9:f5:a8:cd:91:dc:bd:8b:2a:fa:96:a4:36:1d:88:e2:
        69:85:13:da:8d:9d:b6:50:a2:95:d9:61:40:1e:db:92:cb:be:
        46:29:94:bc:0c:61:06:75:c7:fa:d6:78:f0:2d:2e:8b:3b:f1:
        11:b6:c9:87:cf:07:1e:fe:a4:07:36:87:95:2a:32:c4:ba:d7:
        37:c5:75:42:24:1e:db:45:ce:68:df:f2:ff:c5:68:35:ac:30:
        5a:8b:ac:20:a8:43:6c:c5:2d:b6:6b:9f:f9:5e:1c:51:46:f5:
        dc:37:7b:0c:d9:c8:1f:f3:94:42:9f:6a:76:fb:e4:dc:cc:62:
        77:18:1e:5a:e5:5b:b4:68:f5:aa:38:d6:34:2b:30:d4:a5:34:
        b2:e9:67:2a:68:2c:e9:3d:46:6f:a4:07:57:d4:ff:e9:9b:29:
        1a:2b:c2:eb:5d:3b:82:07:f7:65:10:91:45:9b:0a:3e:7b:ba:
        69:73:c9:60
-----BEGIN CERTIFICATE-----
MIIDXTCCAkWgAwIBAgIRAOboTvf9zzEbXd60CBKysVowDQYJKoZIhvcNAQELBQAw
FjEUMBIGA1UEAwwLdGVhbTQxMy1uZXQwHhcNMjMxMTA0MTA0ODA0WhcNMjYxMDE5
MTA0ODA0WjAZMRcwFQYDVQQDDA50ZWFtNDEzLWNsaWVudDCCASIwDQYJKoZIhvcN
AQEBBQADggEPADCCAQoCggEBAJ+Wg48fw6tQi3Nws7FIwlXuXDMcZI6r2PciKxQl
T0/D/hxRCv8UyS3b2wLhL9bjI/YVek3PanOVP/rWt+OxqEZAJcOnl3s6I4wOnTQz
Ac0twG1OPcbEQeQlqMIQVjiXZ2d6G9i4l/Y+zyXL3qmkZxrHePz0+6Oob0UbOeIK
KGZhF2S+IRhcc4XfBBYLIP51HEDG4b8Mltdoat6dB1pmFxUNZfnwVfZbT1R4mGzZ
wMR92NM0s8WXrRCcqOrQM3Rp6nhM0pCEMPYnk+FnLg7z7Kg437Y7YAM0xU6L4UW0
TWDqBdqIxYB+qugYWjs6VqMgVTwkRR6MhQ2jce63TKp5koUCAwEAAaOBojCBnzAJ
BgNVHRMEAjAAMB0GA1UdDgQWBBRyeNgV0JFPLKiqlgPFC+fQ21YrDzBRBgNVHSME
SjBIgBR+cvXyevLhOMlIMFwXwyQqndRV9aEapBgwFjEUMBIGA1UEAwwLdGVhbTQx
My1uZXSCFH3BLmqh5DSI+83CfPWzSeCLAobgMBMGA1UdJQQMMAoGCCsGAQUFBwMC
MAsGA1UdDwQEAwIHgDANBgkqhkiG9w0BAQsFAAOCAQEAlUpZ8fFUhKaAmXlekirB
5HT7q2YZsu/rt9uYXHDebW5jHFksB4vGj2ijjjkbBHqT132ydQnnG4OXPTcX6dMp
bmil+8notl/mbN3J9ajNkdy9iyr6lqQ2HYjiaYUT2o2dtlCildlhQB7bksu+RimU
vAxhBnXH+tZ48C0uizvxEbbJh88HHv6kBzaHlSoyxLrXN8V1QiQe20XOaN/y/8Vo
NawwWousIKhDbMUttmuf+V4cUUb13Dd7DNnIH/OUQp9qdvvk3MxidxgeWuVbtGj1
qjjWNCsw1KU0sulnKmgs6T1Gb6QHV9T/6ZspGivC6107ggf3ZRCRRZsKPnu6aXPJ
YA==
-----END CERTIFICATE-----
