Certificate:
    Data:
        Version: 3 (0x2)
        Serial Number:
            21:62:f8:7d:78:df:4f:88:8e:9c:1f:99:8e:ec:6b:0c
        Signature Algorithm: sha256WithRSAEncryption
        Issuer: CN=team287-net
        Validity
            Not Before: Nov  4 10:45:58 2023 GMT
            Not After : Oct 19 10:45:58 2026 GMT
        Subject: CN=team287-client
        Subject Public Key Info:
            Public Key Algorithm: rsaEncryption
                Public-Key: (2048 bit)
                Modulus:
                    00:cd:b7:e3:75:0b:ba:e8:9a:a8:aa:8f:e2:bd:d2:
                    2f:16:3d:5b:de:04:2c:dd:41:5d:d2:ff:e7:e1:40:
                    91:a8:1e:ff:58:80:74:2e:77:c4:f7:82:c5:b4:e2:
                    e6:4e:d7:a1:eb:2c:64:7b:11:11:4d:aa:c6:b6:47:
                    0c:f2:68:15:f1:91:3c:f6:a8:db:14:20:43:61:36:
                    5c:41:65:51:4e:03:0e:91:39:aa:93:57:b8:9e:ba:
                    f1:f5:e4:69:e4:ab:ac:2f:59:1f:e0:ef:a4:d8:e7:
                    15:ef:50:ed:7e:02:c0:77:f3:14:bc:98:1f:fc:e8:
                    96:39:23:9c:82:eb:63:1d:17:ff:ae:92:e6:81:d1:
                    f8:b0:91:d4:2f:7b:45:2e:04:ed:fc:d9:c4:3e:49:
                    17:7d:08:8c:f5:e5:30:a2:84:49:42:51:79:9f:0e:
                    ef:17:b9:d6:cb:3c:ea:79:fc:b2:97:61:05:69:63:
                    dc:76:4e:10:3a:fd:e5:78:70:3d:59:9f:2e:83:48:
                    7e:57:73:05:c3:96:3f:00:c0:b1:8f:c2:1e:fc:16:
                    41:d9:de:aa:15:ba:6a:0b:42:d7:bb:6d:93:3a:9b:
                    81:97:a3:5f:4f:e4:bd:b7:56:f7:bc:6f:0b:ed:9b:
                    c3:93:d7:e0:2f:04:16:75:79:e0:45:8c:9e:52:61:
                    de:5f
                Exponent: 65537 (0x10001)
        X509v3 extensions:
            X509v3 Basic Constraints: 
                CA:FALSE
            X509v3 Subject Key Identifier: 
                B5:74:1A:E6:8E:C4:7D:49:00:DD:50:83:3C:50:21:01:FD:48:1A:27
            X509v3 Authority Key Identifier: 
                keyid:70:2E:6D:FE:31:9E:6B:9D:0E:AC:5D:B0:8F:91:1A:68:17:8D:43:72
                DirName:/CN=team287-net
                serial:61:57:1A:5D:18:A4:26:69:86:45:5B:55:E1:94:7B:DD:10:81:57:47
            X509v3 Extended Key Usage: 
                TLS Web Client Authentication
            X509v3 Key Usage: 
                Digital Signature
    Signature Algorithm: sha256WithRSAEncryption
    Signature Value:
        41:a4:6c:4c:4d:a7:a0:1a:32:bf:47:1e:18:9f:22:eb:05:c2:
        09:32:d2:79:19:eb:5d:2b:36:47:a4:ef:c4:df:90:19:4c:7d:
        3e:30:56:5d:c4:11:85:64:0d:8f:62:15:25:ca:7d:09:06:a4:
        d5:b7:af:8c:b5:f2:e5:7d:8f:3a:b7:f8:fa:44:b3:85:37:31:
        33:a0:80:f3:be:04:84:7b:86:ff:19:7d:a0:56:1a:e6:a7:fb:
        4b:40:2b:16:3d:1f:36:11:a7:1e:01:60:06:f7:a2:ad:25:22:
        6a:a9:e8:e7:50:9c:aa:a7:b7:d0:68:f0:32:b5:72:11:a5:40:
        39:4c:0d:5a:a3:72:ad:04:11:48:fb:d7:2e:be:73:ac:ed:20:
        24:e0:d7:30:97:de:3e:a1:3d:b0:51:f0:40:e8:8a:15:f9:94:
        4b:b7:f9:22:2e:3a:9c:ca:47:8e:b5:89:a1:05:7b:f4:23:6a:
        14:b5:a0:4d:cb:37:33:4a:29:de:72:4c:c0:33:27:c2:24:57:
        c1:05:32:ac:9d:be:c4:ff:97:b1:ac:e4:e4:b8:cc:6c:bd:15:
        19:cc:88:d9:34:6c:3d:32:5b:3a:73:6b:b0:46:e3:49:44:9c:
        3e:78:7e:18:93:d5:87:7d:6d:16:3a:9e:2d:73:83:d5:08:52:
        a0:b0:09:ec
-----BEGIN CERTIFICATE-----
MIIDXDCCAkSgAwIBAgIQIWL4fXjfT4iOnB+ZjuxrDDANBgkqhkiG9w0BAQsFADAW
MRQwEgYDVQQDDAt0ZWFtMjg3LW5ldDAeFw0yMzExMDQxMDQ1NThaFw0yNjEwMTkx
MDQ1NThaMBkxFzAVBgNVBAMMDnRlYW0yODctY2xpZW50MIIBIjANBgkqhkiG9w0B
AQEFAAOCAQ8AMIIBCgKCAQEAzbfjdQu66Jqoqo/ivdIvFj1b3gQs3UFd0v/n4UCR
qB7/WIB0LnfE94LFtOLmTteh6yxkexERTarGtkcM8mgV8ZE89qjbFCBDYTZcQWVR
TgMOkTmqk1e4nrrx9eRp5KusL1kf4O+k2OcV71DtfgLAd/MUvJgf/OiWOSOcgutj
HRf/rpLmgdH4sJHUL3tFLgTt/NnEPkkXfQiM9eUwooRJQlF5nw7vF7nWyzzqefyy
l2EFaWPcdk4QOv3leHA9WZ8ug0h+V3MFw5Y/AMCxj8Ie/BZB2d6qFbpqC0LXu22T
OpuBl6NfT+S9t1b3vG8L7ZvDk9fgLwQWdXngRYyeUmHeXwIDAQABo4GiMIGfMAkG
A1UdEwQCMAAwHQYDVR0OBBYEFLV0GuaOxH1JAN1QgzxQIQH9SBonMFEGA1UdIwRK
MEiAFHAubf4xnmudDqxdsI+RGmgXjUNyoRqkGDAWMRQwEgYDVQQDDAt0ZWFtMjg3
LW5ldIIUYVcaXRikJmmGRVtV4ZR73RCBV0cwEwYDVR0lBAwwCgYIKwYBBQUHAwIw
CwYDVR0PBAQDAgeAMA0GCSqGSIb3DQEBCwUAA4IBAQBBpGxMTaegGjK/Rx4YnyLr
BcIJMtJ5GetdKzZHpO/E35AZTH0+MFZdxBGFZA2PYhUlyn0JBqTVt6+MtfLlfY86
t/j6RLOFNzEzoIDzvgSEe4b/GX2gVhrmp/tLQCsWPR82EaceAWAG96KtJSJqqejn
UJyqp7fQaPAytXIRpUA5TA1ao3KtBBFI+9cuvnOs7SAk4Ncwl94+oT2wUfBA6IoV
+ZRLt/kiLjqcykeOtYmhBXv0I2oUtaBNyzczSineckzAMyfCJFfBBTKsnb7E/5ex
rOTkuMxsvRUZzIjZNGw9Mls6c2uwRuNJRJw+eH4Yk9WHfW0WOp4tc4PVCFKgsAns
-----END CERTIFICATE-----
