Certificate:
    Data:
        Version: 3 (0x2)
        Serial Number:
            c3:96:b1:c5:0d:2a:64:05:37:3e:47:d7:33:fb:9a
        Signature Algorithm: sha256WithRSAEncryption
        Issuer: CN=team287-net
        Validity
            Not Before: Nov  4 11:33:32 2023 GMT
            Not After : Oct 19 11:33:32 2026 GMT
        Subject: CN=team287-server
        Subject Public Key Info:
            Public Key Algorithm: rsaEncryption
                Public-Key: (2048 bit)
                Modulus:
                    00:e4:e2:8e:1d:83:0d:ef:61:39:af:42:02:b2:fc:
                    28:86:91:c5:24:e8:57:82:7d:a1:fa:08:30:df:1a:
                    8c:29:e7:b0:5b:c6:09:4f:29:26:04:2a:18:b8:c3:
                    05:58:f0:ba:b8:59:04:a2:63:44:29:af:99:74:ce:
                    23:b2:0b:5f:ac:2b:f8:0c:75:7b:9b:ec:e4:26:eb:
                    b9:a6:3b:a3:b1:89:60:73:1c:5f:04:09:fb:48:f4:
                    4e:74:60:09:83:c0:03:a1:7f:38:08:e7:17:81:86:
                    c4:5b:39:2b:59:8a:fc:f1:1e:9a:bf:cc:cb:3a:a8:
                    31:07:46:6c:f4:31:11:73:bf:e6:fe:13:3b:b0:1a:
                    7d:8d:5d:d5:a9:1d:0a:39:ae:26:3f:cd:25:6d:03:
                    6b:1f:82:b2:36:52:da:21:ed:68:8a:3e:18:5f:2c:
                    b4:4e:6d:42:91:1b:17:ed:90:f1:c3:fb:18:ba:08:
                    08:1b:ea:2f:46:15:f4:93:31:86:cb:f0:28:73:e2:
                    fb:ae:e4:21:34:f6:03:7b:4f:5c:28:71:d8:6d:9c:
                    63:e2:ad:c7:af:a1:e5:10:be:81:78:86:47:fe:b2:
                    ef:cc:2f:4f:f2:49:11:fb:42:ae:64:32:94:f7:a2:
                    1c:54:51:ec:c8:f1:c0:68:ed:b5:19:88:40:79:cf:
                    c1:17
                Exponent: 65537 (0x10001)
        X509v3 extensions:
            X509v3 Basic Constraints: 
                CA:FALSE
            X509v3 Subject Key Identifier: 
                3E:C6:26:60:D6:DB:B4:9A:0B:76:00:62:0C:2A:0C:CF:07:2D:59:62
            X509v3 Authority Key Identifier: 
                keyid:11:DB:98:F1:DE:87:C3:AC:E6:F2:7E:DF:66:41:FB:96:27:6C:B8:26
                DirName:/CN=team287-net
                serial:5D:25:4D:21:31:15:DF:35:E4:FA:A5:6D:62:9E:F7:AE:92:45:7A:29
            X509v3 Extended Key Usage: 
                TLS Web Server Authentication
            X509v3 Key Usage: 
                Digital Signature, Key Encipherment
            X509v3 Subject Alternative Name: 
                DNS:team287-server
    Signature Algorithm: sha256WithRSAEncryption
    Signature Value:
        23:6c:d3:d6:73:02:90:c7:0a:fe:c9:c3:58:18:61:96:b9:a0:
        a2:61:a9:2a:12:3a:f9:15:50:8d:cb:c2:99:5b:ae:5a:14:ae:
        e5:7d:49:a4:26:31:d1:a2:e8:99:a6:27:78:1c:42:5e:22:69:
        31:03:07:da:c2:cc:91:64:02:9d:7c:cc:28:b9:4f:3d:fc:83:
        2f:b0:4e:26:12:f6:39:e2:0d:ac:97:7d:c6:b4:bb:58:8c:0b:
        37:69:b2:be:7e:f7:2a:6f:e2:7c:30:e8:51:9c:d1:7f:f4:5e:
        b4:a1:09:cb:51:99:37:77:e7:c8:50:f2:38:04:81:6a:4e:f8:
        c9:c6:7c:29:da:8f:ae:3a:bc:d3:4d:ae:77:1d:dd:6f:ac:bf:
        69:ee:a6:bb:04:43:2a:57:3f:9a:08:80:49:8b:f1:b8:74:89:
        fc:0b:7f:6e:c0:de:70:c2:f9:47:37:c0:f3:cd:bf:b2:fb:4f:
        95:96:98:0b:84:08:f9:e0:7b:b3:ef:f7:67:69:0f:40:b3:15:
        41:38:5a:8b:5e:fb:41:4e:2d:19:c1:48:23:47:e8:db:0c:80:
        c0:34:59:2d:2f:5d:cf:f7:43:78:11:a6:72:77:6e:7d:57:7b:
        7a:cc:4e:dc:fc:c9:87:59:61:f5:92:49:94:eb:20:47:d0:f0:
        30:8e:29:8e
-----BEGIN CERTIFICATE-----
MIIDdzCCAl+gAwIBAgIQAMOWscUNKmQFNz5H1zP7mjANBgkqhkiG9w0BAQsFADAW
MRQwEgYDVQQDDAt0ZWFtMjg3LW5ldDAeFw0yMzExMDQxMTMzMzJaFw0yNjEwMTkx
MTMzMzJaMBkxFzAVBgNVBAMMDnRlYW0yODctc2VydmVyMIIBIjANBgkqhkiG9w0B
AQEFAAOCAQ8AMIIBCgKCAQEA5OKOHYMN72E5r0ICsvwohpHFJOhXgn2h+ggw3xqM
KeewW8YJTykmBCoYuMMFWPC6uFkEomNEKa+ZdM4jsgtfrCv4DHV7m+zkJuu5pjuj
sYlgcxxfBAn7SPROdGAJg8ADoX84COcXgYbEWzkrWYr88R6av8zLOqgxB0Zs9DER
c7/m/hM7sBp9jV3VqR0KOa4mP80lbQNrH4KyNlLaIe1oij4YXyy0Tm1CkRsX7ZDx
w/sYuggIG+ovRhX0kzGGy/Aoc+L7ruQhNPYDe09cKHHYbZxj4q3Hr6HlEL6BeIZH
/rLvzC9P8kkR+0KuZDKU96IcVFHsyPHAaO21GYhAec/BFwIDAQABo4G9MIG6MAkG
A1UdEwQCMAAwHQYDVR0OBBYEFD7GJmDW27SaC3YAYgwqDM8HLVliMFEGA1UdIwRK
MEiAFBHbmPHeh8Os5vJ+32ZB+5YnbLgmoRqkGDAWMRQwEgYDVQQDDAt0ZWFtMjg3
LW5ldIIUXSVNITEV3zXk+qVtYp73rpJFeikwEwYDVR0lBAwwCgYIKwYBBQUHAwEw
CwYDVR0PBAQDAgWgMBkGA1UdEQQSMBCCDnRlYW0yODctc2VydmVyMA0GCSqGSIb3
DQEBCwUAA4IBAQAjbNPWcwKQxwr+ycNYGGGWuaCiYakqEjr5FVCNy8KZW65aFK7l
fUmkJjHRouiZpid4HEJeImkxAwfawsyRZAKdfMwouU89/IMvsE4mEvY54g2sl33G
tLtYjAs3abK+fvcqb+J8MOhRnNF/9F60oQnLUZk3d+fIUPI4BIFqTvjJxnwp2o+u
OrzTTa53Hd1vrL9p7qa7BEMqVz+aCIBJi/G4dIn8C39uwN5wwvlHN8Dzzb+y+0+V
lpgLhAj54Huz7/dnaQ9AsxVBOFqLXvtBTi0ZwUgjR+jbDIDANFktL13P90N4EaZy
d259V3t6zE7c/MmHWWH1kkmU6yBH0PAwjimO
-----END CERTIFICATE-----
