Certificate:
    Data:
        Version: 3 (0x2)
        Serial Number:
            cb:d3:02:02:36:be:4d:ee:45:0f:6f:14:fa:6b:b6:80
        Signature Algorithm: sha256WithRSAEncryption
        Issuer: CN=team287-net
        Validity
            Not Before: Nov  4 11:33:32 2023 GMT
            Not After : Oct 19 11:33:32 2026 GMT
        Subject: CN=team287-client
        Subject Public Key Info:
            Public Key Algorithm: rsaEncryption
                Public-Key: (2048 bit)
                Modulus:
                    00:c5:78:24:05:7b:a0:12:c9:1f:20:28:50:a3:24:
                    44:44:72:02:f0:61:1c:d3:ab:26:41:e7:e9:4e:8a:
                    8a:60:47:06:71:8b:0c:27:72:8b:0f:ad:0f:85:9d:
                    77:82:c0:b0:66:f0:a3:d5:9c:39:f9:7b:ef:5a:09:
                    11:3a:d3:b9:e3:5b:21:50:9b:92:be:5f:30:e6:cb:
                    b0:23:d8:32:4d:24:06:28:68:a4:7b:29:42:8d:c3:
                    13:d5:41:2f:5e:34:28:6c:45:87:01:d7:ed:a7:8e:
                    7a:da:75:87:ed:5b:b1:f2:57:19:86:4b:82:5c:37:
                    1b:a9:34:e2:65:fa:6a:60:a9:03:cd:e5:0c:7c:73:
                    f3:17:10:76:55:58:b0:0f:91:b2:27:09:d9:44:e8:
                    1d:26:ae:39:ec:c8:31:58:f5:08:64:97:57:4b:88:
                    c0:64:fa:98:cf:ca:9f:29:d8:72:da:9e:58:4b:13:
                    69:da:61:70:06:d4:76:d2:12:35:87:1c:9c:8b:c7:
                    a3:cc:18:e6:99:4b:bc:d3:3f:27:09:90:c7:07:c3:
                    82:5f:13:77:1c:9c:25:69:b1:7e:25:79:f6:ec:3f:
                    10:a8:2b:a3:23:51:fa:d6:c0:22:02:a3:43:7e:58:
                    19:74:49:72:70:f0:0f:89:85:9f:e3:a4:57:46:a5:
                    ab:c5
                Exponent: 65537 (0x10001)
        X509v3 extensions:
            X509v3 Basic Constraints: 
                CA:FALSE
            X509v3 Subject Key Identifier: 
                9D:49:7D:DD:1B:49:2D:45:BB:58:F2:9A:55:8C:47:E3:A5:72:4E:B8
            X509v3 Authority Key Identifier: 
                keyid:11:DB:98:F1:DE:87:C3:AC:E6:F2:7E:DF:66:41:FB:96:27:6C:B8:26
                DirName:/CN=team287-net
                serial:5D:25:4D:21:31:15:DF:35:E4:FA:A5:6D:62:9E:F7:AE:92:45:7A:29
            X509v3 Extended Key Usage: 
                TLS Web Client Authentication
            X509v3 Key Usage: 
                Digital Signature
    Signature Algorithm: sha256WithRSAEncryption
    Signature Value:
        b2:42:8c:14:b7:c8:bc:63:ca:63:3c:b7:cb:87:b3:7f:4e:2b:
        b5:f1:d8:1e:64:57:cf:0f:d9:6e:04:ac:70:02:d9:70:22:79:
        59:f4:56:d9:de:fe:0c:4f:98:ce:f9:3f:e7:8a:94:19:e2:74:
        31:d3:a9:fe:75:50:d0:96:a2:e4:82:ff:7e:ee:27:68:66:2e:
        f3:3d:64:6d:c4:8c:b7:41:a9:8c:35:6d:3b:9b:5a:8c:1d:4f:
        e3:7d:08:b2:1e:47:86:31:da:cf:b9:b7:c8:f0:56:e4:9d:17:
        29:81:84:0b:e5:3e:f2:ca:d9:80:45:96:4f:97:c5:3e:77:97:
        0f:0c:dc:e7:1c:bd:81:63:fd:8a:37:26:df:4f:94:20:6c:cf:
        9a:b3:87:49:fc:10:13:23:97:82:03:ca:ce:50:ec:b3:04:55:
        b1:4d:6a:ba:83:7c:3d:15:2a:c5:96:5c:ad:81:0f:52:cf:8f:
        3d:bd:a7:05:21:0e:aa:a3:b8:c9:44:f9:fe:ee:94:bc:f7:e2:
        81:4e:e8:5d:c3:a2:b8:04:7e:39:46:2f:62:b9:5b:d0:a1:02:
        ab:7f:02:58:6b:ac:f0:51:f6:ca:f1:95:e2:d6:39:bb:1d:db:
        17:28:16:25:5b:df:d5:30:2a:b9:fb:a2:e8:c0:1e:18:75:7d:
        06:db:f5:36
-----BEGIN CERTIFICATE-----
MIIDXTCCAkWgAwIBAgIRAMvTAgI2vk3uRQ9vFPprtoAwDQYJKoZIhvcNAQELBQAw
FjEUMBIGA1UEAwwLdGVhbTI4Ny1uZXQwHhcNMjMxMTA0MTEzMzMyWhcNMjYxMDE5
MTEzMzMyWjAZMRcwFQYDVQQDDA50ZWFtMjg3LWNsaWVudDCCASIwDQYJKoZIhvcN
AQEBBQADggEPADCCAQoCggEBAMV4JAV7oBLJHyAoUKMkRERyAvBhHNOrJkHn6U6K
imBHBnGLDCdyiw+tD4Wdd4LAsGbwo9WcOfl771oJETrTueNbIVCbkr5fMObLsCPY
Mk0kBihopHspQo3DE9VBL140KGxFhwHX7aeOetp1h+1bsfJXGYZLglw3G6k04mX6
amCpA83lDHxz8xcQdlVYsA+RsicJ2UToHSauOezIMVj1CGSXV0uIwGT6mM/KnynY
ctqeWEsTadphcAbUdtISNYccnIvHo8wY5plLvNM/JwmQxwfDgl8TdxycJWmxfiV5
9uw/EKgroyNR+tbAIgKjQ35YGXRJcnDwD4mFn+OkV0alq8UCAwEAAaOBojCBnzAJ
BgNVHRMEAjAAMB0GA1UdDgQWBBSdSX3dG0ktRbtY8ppVjEfjpXJOuDBRBgNVHSME
SjBIgBQR25jx3ofDrObyft9mQfuWJ2y4JqEapBgwFjEUMBIGA1UEAwwLdGVhbTI4
Ny1uZXSCFF0lTSExFd815PqlbWKe966SRXopMBMGA1UdJQQMMAoGCCsGAQUFBwMC
MAsGA1UdDwQEAwIHgDANBgkqhkiG9w0BAQsFAAOCAQEAskKMFLfIvGPKYzy3y4ez
f04rtfHYHmRXzw/ZbgSscALZcCJ5WfRW2d7+DE+Yzvk/54qUGeJ0MdOp/nVQ0Jai
5IL/fu4naGYu8z1kbcSMt0GpjDVtO5tajB1P430Ish5HhjHaz7m3yPBW5J0XKYGE
C+U+8srZgEWWT5fFPneXDwzc5xy9gWP9ijcm30+UIGzPmrOHSfwQEyOXggPKzlDs
swRVsU1quoN8PRUqxZZcrYEPUs+PPb2nBSEOqqO4yUT5/u6UvPfigU7oXcOiuAR+
OUYvYrlb0KECq38CWGus8FH2yvGV4tY5ux3bFygWJVvf1TAqufui6MAeGHV9Btv1
Ng==
-----END CERTIFICATE-----
