Certificate:
    Data:
        Version: 3 (0x2)
        Serial Number:
            f7:ff:76:2d:f2:d2:94:e9:a0:c8:31:b8:96:a0:24:23
        Signature Algorithm: sha256WithRSAEncryption
        Issuer: CN=team287-net
        Validity
            Not Before: Nov  4 10:45:58 2023 GMT
            Not After : Oct 19 10:45:58 2026 GMT
        Subject: CN=team287-server
        Subject Public Key Info:
            Public Key Algorithm: rsaEncryption
                Public-Key: (2048 bit)
                Modulus:
                    00:cd:8a:8a:1a:a1:b9:27:5a:6b:be:35:f6:4c:09:
                    1e:9c:5e:28:b9:b2:76:68:ad:36:1c:41:25:16:c5:
                    e6:67:f4:f7:2b:66:7d:9d:15:85:92:b1:ca:bb:1b:
                    da:f1:ac:5d:06:3e:e2:80:e7:15:81:a8:95:b4:ac:
                    c2:b0:92:e5:55:97:a0:dc:85:94:b9:01:3c:03:0e:
                    78:08:34:f2:79:30:9b:9f:ae:ff:34:ab:3e:51:55:
                    a5:35:c9:18:e0:fc:4e:14:a1:ca:85:89:7e:d5:f4:
                    df:c0:cc:7b:da:9b:37:97:a4:4f:9b:5e:8d:a4:cf:
                    72:60:32:05:97:92:35:64:d0:4f:c1:8d:ff:a3:3f:
                    ba:00:a4:d9:98:9e:8b:60:5b:61:f6:33:fe:08:a3:
                    c5:fd:ea:5f:1b:5c:e5:58:0f:58:87:7f:00:34:8d:
                    80:0a:38:9d:23:8b:bb:be:21:43:44:d2:bc:8b:40:
                    95:9b:ad:b2:22:53:67:fd:fa:04:05:8f:89:90:69:
                    3c:c3:98:10:dc:b6:56:56:26:e0:b8:a3:ba:2c:99:
                    a9:72:47:b7:59:b2:77:01:a3:f8:44:32:7c:ad:9a:
                    8d:40:0d:65:a2:b9:e3:91:51:97:f7:ee:38:e0:1a:
                    3f:3d:f4:8d:9f:09:6f:0a:e4:ba:9d:ca:64:48:0f:
                    66:dd
                Exponent: 65537 (0x10001)
        X509v3 extensions:
            X509v3 Basic Constraints: 
                CA:FALSE
            X509v3 Subject Key Identifier: 
                B8:82:9D:1F:EB:61:A7:90:FD:5C:56:5B:F6:63:3F:D8:24:34:A4:59
            X509v3 Authority Key Identifier: 
                keyid:70:2E:6D:FE:31:9E:6B:9D:0E:AC:5D:B0:8F:91:1A:68:17:8D:43:72
                DirName:/CN=team287-net
                serial:61:57:1A:5D:18:A4:26:69:86:45:5B:55:E1:94:7B:DD:10:81:57:47
            X509v3 Extended Key Usage: 
                TLS Web Server Authentication
            X509v3 Key Usage: 
                Digital Signature, Key Encipherment
            X509v3 Subject Alternative Name: 
                DNS:team287-server
    Signature Algorithm: sha256WithRSAEncryption
    Signature Value:
        46:8d:4e:f5:6a:00:89:53:16:56:19:20:54:1e:aa:71:83:9c:
        e2:9f:9f:20:46:a4:c2:8b:dd:45:a7:c7:85:40:a8:c9:9d:2a:
        61:c3:0c:e6:41:8c:27:51:a8:e3:b7:e9:56:2f:4c:47:19:90:
        67:91:84:c9:da:73:7e:6d:22:83:b6:67:65:e0:16:f0:2a:96:
        c2:58:f7:f9:e1:ef:3f:a5:8e:06:ef:d5:e9:25:be:2b:36:01:
        b5:9a:5c:bd:92:6d:3b:43:58:cb:18:3e:cd:65:46:c1:2d:8c:
        bf:27:7f:cc:26:7a:d1:b0:90:e2:c1:97:5c:a9:67:f9:cd:91:
        f4:1b:d0:be:69:ad:f9:89:e4:33:a3:f5:73:ea:da:bf:ee:3d:
        7d:fe:14:7b:fa:3f:d3:3d:4d:4c:e4:21:c1:d1:63:9a:b0:f5:
        2b:de:6b:e0:6e:a5:02:e9:bf:c9:59:81:34:f1:00:ee:6c:ae:
        d7:17:18:da:8c:ab:ab:9f:58:fc:b4:f1:2e:c3:ea:bc:2b:3e:
        d3:3f:ad:81:5d:78:06:3a:86:e4:17:c5:e5:3e:23:95:3a:a0:
        31:b6:c7:9d:aa:d8:1d:d8:a1:2b:3b:68:96:66:ea:f6:91:dc:
        b6:23:09:a0:ec:a2:1a:a0:50:f3:1b:1c:bb:51:fb:cc:a9:6c:
        c7:04:bf:08
-----BEGIN CERTIFICATE-----
MIIDeDCCAmCgAwIBAgIRAPf/di3y0pTpoMgxuJagJCMwDQYJKoZIhvcNAQELBQAw
FjEUMBIGA1UEAwwLdGVhbTI4Ny1uZXQwHhcNMjMxMTA0MTA0NTU4WhcNMjYxMDE5
MTA0NTU4WjAZMRcwFQYDVQQDDA50ZWFtMjg3LXNlcnZlcjCCASIwDQYJKoZIhvcN
AQEBBQADggEPADCCAQoCggEBAM2KihqhuSdaa7419kwJHpxeKLmydmitNhxBJRbF
5mf09ytmfZ0VhZKxyrsb2vGsXQY+4oDnFYGolbSswrCS5VWXoNyFlLkBPAMOeAg0
8nkwm5+u/zSrPlFVpTXJGOD8ThShyoWJftX038DMe9qbN5ekT5tejaTPcmAyBZeS
NWTQT8GN/6M/ugCk2Ziei2BbYfYz/gijxf3qXxtc5VgPWId/ADSNgAo4nSOLu74h
Q0TSvItAlZutsiJTZ/36BAWPiZBpPMOYENy2VlYm4LijuiyZqXJHt1mydwGj+EQy
fK2ajUANZaK545FRl/fuOOAaPz30jZ8Jbwrkup3KZEgPZt0CAwEAAaOBvTCBujAJ
BgNVHRMEAjAAMB0GA1UdDgQWBBS4gp0f62GnkP1cVlv2Yz/YJDSkWTBRBgNVHSME
SjBIgBRwLm3+MZ5rnQ6sXbCPkRpoF41DcqEapBgwFjEUMBIGA1UEAwwLdGVhbTI4
Ny1uZXSCFGFXGl0YpCZphkVbVeGUe90QgVdHMBMGA1UdJQQMMAoGCCsGAQUFBwMB
MAsGA1UdDwQEAwIFoDAZBgNVHREEEjAQgg50ZWFtMjg3LXNlcnZlcjANBgkqhkiG
9w0BAQsFAAOCAQEARo1O9WoAiVMWVhkgVB6qcYOc4p+fIEakwovdRafHhUCoyZ0q
YcMM5kGMJ1Go47fpVi9MRxmQZ5GEydpzfm0ig7ZnZeAW8CqWwlj3+eHvP6WOBu/V
6SW+KzYBtZpcvZJtO0NYyxg+zWVGwS2Mvyd/zCZ60bCQ4sGXXKln+c2R9BvQvmmt
+YnkM6P1c+rav+49ff4Ue/o/0z1NTOQhwdFjmrD1K95r4G6lAum/yVmBNPEA7myu
1xcY2oyrq59Y/LTxLsPqvCs+0z+tgV14BjqG5BfF5T4jlTqgMbbHnarYHdihKzto
lmbq9pHctiMJoOyiGqBQ8xscu1H7zKlsxwS/CA==
-----END CERTIFICATE-----
