Certificate:
    Data:
        Version: 3 (0x2)
        Serial Number:
            97:e3:f2:2a:00:4d:72:33:4e:11:54:65:29:02:26:b0
        Signature Algorithm: sha256WithRSAEncryption
        Issuer: CN=team347-net
        Validity
            Not Before: Nov  4 10:46:57 2023 GMT
            Not After : Oct 19 10:46:57 2026 GMT
        Subject: CN=team347-client
        Subject Public Key Info:
            Public Key Algorithm: rsaEncryption
                Public-Key: (2048 bit)
                Modulus:
                    00:d2:0d:36:eb:83:66:c7:a6:c1:fa:fc:36:9c:9d:
                    d9:d3:04:2f:f1:5a:99:44:2b:54:3f:57:32:b8:79:
                    07:27:5e:86:ec:01:6b:10:a7:c2:ca:bc:df:8f:71:
                    56:a9:e6:11:f3:c2:08:4e:f8:62:10:b1:21:4d:78:
                    4b:42:fd:4f:0d:69:91:bc:7b:63:13:dc:1e:d3:dd:
                    6a:75:1b:d1:75:02:b0:07:7f:5e:d5:d7:58:8e:2c:
                    b2:69:d0:9f:c6:ba:d5:19:b7:cb:b6:7d:a8:d2:c4:
                    11:16:6a:79:bc:ce:7a:f1:b8:bc:2a:b0:2b:db:32:
                    ae:da:7c:96:ee:98:59:a8:66:7c:98:e7:f2:7e:15:
                    75:cf:91:c7:72:9d:7a:7a:76:b4:cd:2f:72:98:c9:
                    5f:55:3b:a5:c8:c8:be:09:8f:b3:a7:fa:00:df:1f:
                    4e:4c:f0:cb:7e:98:5b:df:30:58:d8:73:75:d0:4f:
                    57:46:cf:68:7b:49:fb:13:1d:8e:9e:0e:db:38:72:
                    61:d7:b5:e9:0a:ad:24:81:de:03:5d:e3:6c:3f:a3:
                    fc:b3:c8:0e:d5:86:f4:fd:ed:1b:d7:7c:9e:83:41:
                    f6:dc:3d:1b:6d:38:ee:63:b9:f3:d7:86:ce:b2:2e:
                    89:9b:2c:a6:2e:39:49:5c:c8:45:f1:24:ea:a0:be:
                    44:7f
                Exponent: 65537 (0x10001)
        X509v3 extensions:
            X509v3 Basic Constraints: 
                CA:FALSE
            X509v3 Subject Key Identifier: 
                4E:4F:52:77:16:04:C5:E1:1A:79:31:FF:ED:A7:AD:8E:44:C6:B9:62
            X509v3 Authority Key Identifier: 
                keyid:41:08:C6:30:18:FB:56:36:2B:90:EE:45:49:48:64:44:65:DB:10:13
                DirName:/CN=team347-net
                serial:67:33:D2:23:53:1A:30:A9:E4:93:41:DE:47:92:FA:D5:D7:4C:94:AF
            X509v3 Extended Key Usage: 
                TLS Web Client Authentication
            X509v3 Key Usage: 
                Digital Signature
    Signature Algorithm: sha256WithRSAEncryption
    Signature Value:
        07:b1:6f:59:bf:8f:85:14:38:a8:7d:db:ef:7c:4d:f5:07:d1:
        b1:45:5a:51:a0:ec:c8:14:7f:72:2f:f6:b7:20:39:63:bf:d4:
        8b:d2:bc:ae:65:2d:1e:ef:7f:99:21:5b:3e:9c:9d:4a:f9:20:
        a0:bf:c0:26:18:e7:fc:b8:08:03:7f:49:f3:6a:2c:eb:59:4d:
        07:63:d3:cd:71:c4:b2:d5:f1:3c:a7:a9:5b:30:c2:a8:0a:53:
        7e:48:ea:7d:c3:78:12:be:04:94:f0:b0:f9:bb:0c:82:b2:5f:
        eb:6c:35:25:b2:0e:dc:e9:60:89:c0:fc:c5:57:3c:a0:f7:6c:
        0f:7b:89:81:4b:e4:83:6f:dc:9f:64:1f:96:d5:09:1b:3c:2d:
        e7:1b:67:f6:62:fa:1a:62:23:d3:1d:15:8b:21:41:1b:c5:5b:
        d8:94:0a:5c:bc:e8:e5:00:17:e5:99:02:af:ae:d8:73:3d:19:
        25:71:9b:b0:c6:1d:30:21:f5:40:44:46:07:d9:ef:08:24:31:
        21:ca:77:c9:5e:d6:73:bb:b4:b4:5c:f7:64:ad:ea:f1:ed:ef:
        a1:1d:dd:79:80:b2:f6:cd:db:b0:7b:08:d4:05:16:88:a1:97:
        cc:b4:9f:e6:03:be:d0:56:33:ee:82:f7:43:cb:24:e8:53:c0:
        da:b3:31:c8
-----BEGIN CERTIFICATE-----
MIIDXTCCAkWgAwIBAgIRAJfj8ioATXIzThFUZSkCJrAwDQYJKoZIhvcNAQELBQAw
FjEUMBIGA1UEAwwLdGVhbTM0Ny1uZXQwHhcNMjMxMTA0MTA0NjU3WhcNMjYxMDE5
MTA0NjU3WjAZMRcwFQYDVQQDDA50ZWFtMzQ3LWNsaWVudDCCASIwDQYJKoZIhvcN
AQEBBQADggEPADCCAQoCggEBANINNuuDZsemwfr8Npyd2dMEL/FamUQrVD9XMrh5
BydehuwBaxCnwsq8349xVqnmEfPCCE74YhCxIU14S0L9Tw1pkbx7YxPcHtPdanUb
0XUCsAd/XtXXWI4ssmnQn8a61Rm3y7Z9qNLEERZqebzOevG4vCqwK9syrtp8lu6Y
WahmfJjn8n4Vdc+Rx3Kdenp2tM0vcpjJX1U7pcjIvgmPs6f6AN8fTkzwy36YW98w
WNhzddBPV0bPaHtJ+xMdjp4O2zhyYde16QqtJIHeA13jbD+j/LPIDtWG9P3tG9d8
noNB9tw9G2047mO589eGzrIuiZsspi45SVzIRfEk6qC+RH8CAwEAAaOBojCBnzAJ
BgNVHRMEAjAAMB0GA1UdDgQWBBROT1J3FgTF4Rp5Mf/tp62ORMa5YjBRBgNVHSME
SjBIgBRBCMYwGPtWNiuQ7kVJSGREZdsQE6EapBgwFjEUMBIGA1UEAwwLdGVhbTM0
Ny1uZXSCFGcz0iNTGjCp5JNB3keS+tXXTJSvMBMGA1UdJQQMMAoGCCsGAQUFBwMC
MAsGA1UdDwQEAwIHgDANBgkqhkiG9w0BAQsFAAOCAQEAB7FvWb+PhRQ4qH3b73xN
9QfRsUVaUaDsyBR/ci/2tyA5Y7/Ui9K8rmUtHu9/mSFbPpydSvkgoL/AJhjn/LgI
A39J82os61lNB2PTzXHEstXxPKepWzDCqApTfkjqfcN4Er4ElPCw+bsMgrJf62w1
JbIO3OlgicD8xVc8oPdsD3uJgUvkg2/cn2QfltUJGzwt5xtn9mL6GmIj0x0ViyFB
G8Vb2JQKXLzo5QAX5ZkCr67Ycz0ZJXGbsMYdMCH1QERGB9nvCCQxIcp3yV7Wc7u0
tFz3ZK3q8e3voR3deYCy9s3bsHsI1AUWiKGXzLSf5gO+0FYz7oL3Q8sk6FPA2rMx
yA==
-----END CERTIFICATE-----
