Certificate:
    Data:
        Version: 3 (0x2)
        Serial Number:
            d5:5d:5f:5f:ce:d9:e0:f2:43:5d:48:37:2d:25:a2:74
        Signature Algorithm: sha256WithRSAEncryption
        Issuer: CN=team347-net
        Validity
            Not Before: Nov  4 11:35:08 2023 GMT
            Not After : Oct 19 11:35:08 2026 GMT
        Subject: CN=team347-server
        Subject Public Key Info:
            Public Key Algorithm: rsaEncryption
                Public-Key: (2048 bit)
                Modulus:
                    00:88:92:4f:fa:df:b3:55:08:13:93:25:7d:c2:21:
                    0a:1a:d5:77:3a:a7:e8:5a:bf:8b:de:c3:c2:53:df:
                    ad:68:3e:6e:85:8b:19:7a:df:a9:56:32:f8:ba:4d:
                    01:3b:2d:76:15:e0:ea:17:ab:d2:28:ba:81:08:13:
                    60:91:02:a3:5a:07:97:81:26:61:f6:fc:ed:87:f0:
                    d9:59:42:63:3b:00:4d:ee:de:b6:4a:0e:ce:05:20:
                    68:ee:8c:3b:74:7f:a4:68:a8:74:62:53:92:69:ba:
                    5a:5a:7c:2b:23:30:bc:37:0d:72:86:af:b7:26:c7:
                    12:34:7b:a8:52:e1:0b:66:a3:ae:cd:aa:82:1f:96:
                    3d:45:24:46:6b:fb:b5:70:95:06:71:0e:1d:36:24:
                    2d:2f:16:35:04:45:15:51:b3:b9:d8:bf:e4:bd:2a:
                    7d:31:0e:19:d5:08:6e:8b:fd:f8:ef:a1:da:58:20:
                    ed:da:cf:66:82:d9:c2:48:58:57:21:30:55:b7:bf:
                    df:91:86:85:fa:14:23:b8:53:40:79:c7:d2:88:91:
                    bb:47:98:64:be:4e:cc:52:69:7c:86:10:eb:4f:32:
                    09:58:07:1b:7e:2b:29:04:6f:92:36:a9:b1:49:eb:
                    d8:9a:5e:de:b0:86:73:9d:17:b7:60:6d:76:4d:b2:
                    49:cf
                Exponent: 65537 (0x10001)
        X509v3 extensions:
            X509v3 Basic Constraints: 
                CA:FALSE
            X509v3 Subject Key Identifier: 
                85:7B:2C:94:7C:82:48:F8:B6:0B:E8:29:A3:AF:40:D0:D8:93:5A:55
            X509v3 Authority Key Identifier: 
                keyid:17:B9:00:9A:25:88:BB:4B:71:F9:4E:90:2B:19:3F:B1:97:FC:A9:55
                DirName:/CN=team347-net
                serial:1D:E7:E5:60:AD:E0:35:75:A6:82:E0:A7:F4:BB:5A:D0:6F:A7:96:5A
            X509v3 Extended Key Usage: 
                TLS Web Server Authentication
            X509v3 Key Usage: 
                Digital Signature, Key Encipherment
            X509v3 Subject Alternative Name: 
                DNS:team347-server
    Signature Algorithm: sha256WithRSAEncryption
    Signature Value:
        a6:29:80:5e:26:f8:ba:9c:2c:a3:1f:dc:62:3f:7e:aa:eb:33:
        57:f7:a8:97:f0:e3:a2:dc:e2:df:52:b8:b7:ac:91:50:e7:a0:
        3f:39:28:48:9d:d5:63:b9:ed:de:33:9a:e4:2a:39:56:1c:f5:
        80:82:41:df:7a:8a:15:d4:1d:ce:62:d9:f8:a3:33:13:df:26:
        a7:df:91:1b:62:e7:63:f3:5a:6a:b9:46:14:ba:93:48:4e:e6:
        b7:e1:98:9c:b2:28:e8:1a:d2:73:b0:1e:d0:bd:17:27:e7:b5:
        d6:8a:cd:9b:c0:00:82:8a:2f:63:46:f7:99:e0:dd:26:79:27:
        d0:21:13:b3:b2:78:9f:20:1b:4e:8a:0f:7d:1b:f1:df:57:83:
        96:ff:89:dc:86:e2:85:0b:01:f6:04:9b:37:9a:19:8c:97:6a:
        3d:81:ea:ea:d4:2c:36:f5:e2:f4:04:c8:39:b0:2b:fe:79:93:
        d9:9e:4e:6c:dd:fa:f5:c8:d6:ae:e2:dc:42:82:72:75:4d:c3:
        57:2d:6a:d1:5d:2b:b9:de:f2:eb:1b:7c:63:f4:0f:71:cd:33:
        fb:10:8d:13:90:45:26:4f:b4:da:6e:e5:81:e9:6c:4f:0e:58:
        2a:bb:e4:be:0a:82:4f:0d:4e:45:26:9b:6d:59:10:0e:96:9a:
        c3:da:db:67
-----BEGIN CERTIFICATE-----
MIIDeDCCAmCgAwIBAgIRANVdX1/O2eDyQ11INy0lonQwDQYJKoZIhvcNAQELBQAw
FjEUMBIGA1UEAwwLdGVhbTM0Ny1uZXQwHhcNMjMxMTA0MTEzNTA4WhcNMjYxMDE5
MTEzNTA4WjAZMRcwFQYDVQQDDA50ZWFtMzQ3LXNlcnZlcjCCASIwDQYJKoZIhvcN
AQEBBQADggEPADCCAQoCggEBAIiST/rfs1UIE5MlfcIhChrVdzqn6Fq/i97DwlPf
rWg+boWLGXrfqVYy+LpNATstdhXg6her0ii6gQgTYJECo1oHl4EmYfb87Yfw2VlC
YzsATe7etkoOzgUgaO6MO3R/pGiodGJTkmm6Wlp8KyMwvDcNcoavtybHEjR7qFLh
C2ajrs2qgh+WPUUkRmv7tXCVBnEOHTYkLS8WNQRFFVGzudi/5L0qfTEOGdUIbov9
+O+h2lgg7drPZoLZwkhYVyEwVbe/35GGhfoUI7hTQHnH0oiRu0eYZL5OzFJpfIYQ
608yCVgHG34rKQRvkjapsUnr2Jpe3rCGc50Xt2Btdk2ySc8CAwEAAaOBvTCBujAJ
BgNVHRMEAjAAMB0GA1UdDgQWBBSFeyyUfIJI+LYL6Cmjr0DQ2JNaVTBRBgNVHSME
SjBIgBQXuQCaJYi7S3H5TpArGT+xl/ypVaEapBgwFjEUMBIGA1UEAwwLdGVhbTM0
Ny1uZXSCFB3n5WCt4DV1poLgp/S7WtBvp5ZaMBMGA1UdJQQMMAoGCCsGAQUFBwMB
MAsGA1UdDwQEAwIFoDAZBgNVHREEEjAQgg50ZWFtMzQ3LXNlcnZlcjANBgkqhkiG
9w0BAQsFAAOCAQEApimAXib4upwsox/cYj9+quszV/eol/Djotzi31K4t6yRUOeg
PzkoSJ3VY7nt3jOa5Co5Vhz1gIJB33qKFdQdzmLZ+KMzE98mp9+RG2LnY/NaarlG
FLqTSE7mt+GYnLIo6BrSc7Ae0L0XJ+e11orNm8AAgoovY0b3meDdJnkn0CETs7J4
nyAbTooPfRvx31eDlv+J3IbihQsB9gSbN5oZjJdqPYHq6tQsNvXi9ATIObAr/nmT
2Z5ObN369cjWruLcQoJydU3DVy1q0V0rud7y6xt8Y/QPcc0z+xCNE5BFJk+02m7l
gelsTw5YKrvkvgqCTw1ORSabbVkQDpaaw9rbZw==
-----END CERTIFICATE-----
