Certificate:
    Data:
        Version: 3 (0x2)
        Serial Number:
            df:a2:d6:b9:14:66:99:ac:02:a4:b0:86:f1:7d:72:d5
        Signature Algorithm: sha256WithRSAEncryption
        Issuer: CN=team347-net
        Validity
            Not Before: Nov  4 10:46:57 2023 GMT
            Not After : Oct 19 10:46:57 2026 GMT
        Subject: CN=team347-server
        Subject Public Key Info:
            Public Key Algorithm: rsaEncryption
                Public-Key: (2048 bit)
                Modulus:
                    00:e6:4b:28:76:a7:3c:6c:83:86:0f:ee:8e:c6:79:
                    1d:49:ab:ec:16:15:06:48:b4:26:bc:c0:ce:78:99:
                    07:f2:29:24:a7:3f:c0:02:f2:cb:a6:5c:17:2f:fe:
                    b4:09:ab:da:9b:58:9e:26:38:a0:b3:60:8e:38:f3:
                    a4:f3:9f:7a:26:71:29:e3:e3:ca:34:ce:17:64:11:
                    4b:ce:62:86:9d:fb:5d:3f:68:f6:a6:70:a6:7c:e1:
                    6f:c7:59:43:a2:86:a7:d4:c1:d6:f9:87:d3:c1:32:
                    81:1a:26:6b:d8:60:02:64:f2:8b:90:48:cf:dc:04:
                    f0:47:4a:a0:72:51:b9:20:53:d5:9c:cd:34:63:b6:
                    90:31:b5:d4:62:1c:ec:eb:c6:ae:7f:3d:0d:0e:3d:
                    37:bb:cf:bb:1e:76:3a:23:bd:5c:3d:fc:8f:5d:bc:
                    30:68:76:52:d1:52:2b:48:45:1a:33:d8:16:5d:63:
                    b5:b0:e8:da:6c:d3:da:1d:9f:b4:93:55:8c:59:3b:
                    21:41:99:c3:80:9b:d5:1f:e1:98:90:48:e6:f4:d9:
                    3c:f9:e1:c2:d6:5c:d3:8e:58:25:98:74:83:6f:fa:
                    55:6e:08:04:b0:09:1c:6c:8d:66:5c:9f:00:ce:86:
                    96:f0:61:89:7c:13:57:2b:bc:09:d7:ae:9c:85:24:
                    b1:b5
                Exponent: 65537 (0x10001)
        X509v3 extensions:
            X509v3 Basic Constraints: 
                CA:FALSE
            X509v3 Subject Key Identifier: 
                54:26:AA:9D:F7:AE:92:D7:73:B4:4E:F9:06:C4:02:78:A7:E7:E2:04
            X509v3 Authority Key Identifier: 
                keyid:41:08:C6:30:18:FB:56:36:2B:90:EE:45:49:48:64:44:65:DB:10:13
                DirName:/CN=team347-net
                serial:67:33:D2:23:53:1A:30:A9:E4:93:41:DE:47:92:FA:D5:D7:4C:94:AF
            X509v3 Extended Key Usage: 
                TLS Web Server Authentication
            X509v3 Key Usage: 
                Digital Signature, Key Encipherment
            X509v3 Subject Alternative Name: 
                DNS:team347-server
    Signature Algorithm: sha256WithRSAEncryption
    Signature Value:
        9b:dc:14:72:6f:81:34:f8:09:97:d1:64:f7:98:9e:f0:74:ac:
        f5:af:5d:2f:63:da:21:ab:df:05:2f:a5:03:f9:b6:a0:15:a3:
        ce:f4:aa:da:7b:63:db:84:4f:a7:96:d1:b6:2e:c0:f2:b2:22:
        36:3b:3b:7b:cb:3b:e2:43:65:54:87:46:8e:7d:3c:8c:14:5a:
        77:a4:36:34:b3:cd:f3:16:3d:08:aa:31:cc:96:a4:2b:b1:b7:
        7d:73:f5:c0:55:c5:ff:fc:af:8c:d8:9c:af:0a:e6:64:c0:d8:
        ba:59:df:7c:42:15:67:45:3a:2e:36:2f:f3:5f:c2:07:aa:29:
        bf:c2:a2:a4:80:79:fd:89:1d:2d:fe:0e:3d:cb:f6:a8:1c:55:
        3d:88:ac:27:9d:25:4c:40:cb:c9:b6:5f:c5:e6:0e:e1:a6:dc:
        5b:97:27:75:b1:81:49:88:b0:ad:52:f8:d6:1e:6a:b2:f8:ff:
        46:ad:ed:5f:60:cb:2b:e9:51:02:18:ae:5c:50:16:8d:4d:e5:
        3b:ac:9c:94:1b:1a:9c:70:4b:0a:df:42:22:5c:cc:8a:7e:7f:
        bd:36:03:1d:85:60:39:4e:17:59:5b:f9:8a:99:67:a1:c4:e2:
        fc:94:06:8a:e6:b3:df:f3:bc:cd:28:52:c8:5a:ac:b8:cb:7a:
        8f:e2:78:c4
-----BEGIN CERTIFICATE-----
MIIDeDCCAmCgAwIBAgIRAN+i1rkUZpmsAqSwhvF9ctUwDQYJKoZIhvcNAQELBQAw
FjEUMBIGA1UEAwwLdGVhbTM0Ny1uZXQwHhcNMjMxMTA0MTA0NjU3WhcNMjYxMDE5
MTA0NjU3WjAZMRcwFQYDVQQDDA50ZWFtMzQ3LXNlcnZlcjCCASIwDQYJKoZIhvcN
AQEBBQADggEPADCCAQoCggEBAOZLKHanPGyDhg/ujsZ5HUmr7BYVBki0JrzAzniZ
B/IpJKc/wALyy6ZcFy/+tAmr2ptYniY4oLNgjjjzpPOfeiZxKePjyjTOF2QRS85i
hp37XT9o9qZwpnzhb8dZQ6KGp9TB1vmH08EygRoma9hgAmTyi5BIz9wE8EdKoHJR
uSBT1ZzNNGO2kDG11GIc7OvGrn89DQ49N7vPux52OiO9XD38j128MGh2UtFSK0hF
GjPYFl1jtbDo2mzT2h2ftJNVjFk7IUGZw4Cb1R/hmJBI5vTZPPnhwtZc045YJZh0
g2/6VW4IBLAJHGyNZlyfAM6GlvBhiXwTVyu8CdeunIUksbUCAwEAAaOBvTCBujAJ
BgNVHRMEAjAAMB0GA1UdDgQWBBRUJqqd966S13O0TvkGxAJ4p+fiBDBRBgNVHSME
SjBIgBRBCMYwGPtWNiuQ7kVJSGREZdsQE6EapBgwFjEUMBIGA1UEAwwLdGVhbTM0
Ny1uZXSCFGcz0iNTGjCp5JNB3keS+tXXTJSvMBMGA1UdJQQMMAoGCCsGAQUFBwMB
MAsGA1UdDwQEAwIFoDAZBgNVHREEEjAQgg50ZWFtMzQ3LXNlcnZlcjANBgkqhkiG
9w0BAQsFAAOCAQEAm9wUcm+BNPgJl9Fk95ie8HSs9a9dL2PaIavfBS+lA/m2oBWj
zvSq2ntj24RPp5bRti7A8rIiNjs7e8s74kNlVIdGjn08jBRad6Q2NLPN8xY9CKox
zJakK7G3fXP1wFXF//yvjNicrwrmZMDYulnffEIVZ0U6LjYv81/CB6opv8KipIB5
/YkdLf4OPcv2qBxVPYisJ50lTEDLybZfxeYO4abcW5cndbGBSYiwrVL41h5qsvj/
Rq3tX2DLK+lRAhiuXFAWjU3lO6yclBsanHBLCt9CIlzMin5/vTYDHYVgOU4XWVv5
iplnocTi/JQGiuaz3/O8zShSyFqsuMt6j+J4xA==
-----END CERTIFICATE-----
