Certificate:
    Data:
        Version: 3 (0x2)
        Serial Number:
            b7:c7:2c:cb:1c:1a:f0:c2:23:d9:9c:cb:2c:a2:a1:8c
        Signature Algorithm: sha256WithRSAEncryption
        Issuer: CN=team414-net
        Validity
            Not Before: Nov  3 20:46:45 2023 GMT
            Not After : Oct 18 20:46:45 2026 GMT
        Subject: CN=team414-server
        Subject Public Key Info:
            Public Key Algorithm: rsaEncryption
                Public-Key: (2048 bit)
                Modulus:
                    00:a5:76:d2:c2:8c:33:d4:d4:f6:97:37:ce:56:b0:
                    c3:fa:29:98:96:7d:46:f7:38:4a:c4:cd:1a:84:72:
                    8e:2d:f7:ef:d2:a1:dd:8e:93:7e:e7:42:b4:22:78:
                    43:e8:af:a0:1b:08:e2:14:5b:42:6d:a4:d5:3d:ba:
                    53:28:61:04:25:e7:19:e5:52:fe:70:1b:3f:5f:cb:
                    c4:ce:26:81:b3:a1:7e:58:fb:02:b0:7b:f3:87:e9:
                    df:dd:5f:7c:b4:bc:78:1c:b8:4f:36:76:70:0c:0f:
                    07:53:37:9a:86:45:58:89:8b:96:5e:96:05:df:7e:
                    ea:fb:21:95:44:b2:72:0b:cd:b5:14:9e:05:a0:c1:
                    d8:56:b2:da:66:dd:12:27:c9:cd:ab:8c:be:88:92:
                    26:0c:52:26:0a:9c:a3:3e:dd:24:20:2f:80:de:f1:
                    1c:f8:f9:8f:cb:10:52:0d:cd:ce:29:cc:ab:02:2a:
                    60:c6:ce:77:e0:c8:00:30:ce:3b:36:80:8e:d7:4d:
                    e3:aa:47:18:ff:2e:24:ed:83:00:32:bb:2b:6e:e2:
                    df:3a:4f:b9:56:31:86:0d:2f:ec:f1:98:6d:3b:1a:
                    a1:7f:48:41:13:73:eb:e5:d6:1c:46:88:42:91:02:
                    d9:09:83:2c:73:60:68:b3:fd:b8:a3:73:2d:af:9f:
                    50:4d
                Exponent: 65537 (0x10001)
        X509v3 extensions:
            X509v3 Basic Constraints: 
                CA:FALSE
            X509v3 Subject Key Identifier: 
                AD:AC:BE:01:13:B2:97:E4:5D:1B:1D:DD:AA:70:4D:A6:F1:E4:C7:D1
            X509v3 Authority Key Identifier: 
                keyid:55:B3:F8:35:BD:12:70:59:43:3D:49:E7:16:09:36:32:0C:BE:DE:C7
                DirName:/CN=team414-net
                serial:70:92:F4:FC:13:DA:91:65:BB:EC:F7:DD:F8:22:58:A8:62:62:8F:51
            X509v3 Extended Key Usage: 
                TLS Web Server Authentication
            X509v3 Key Usage: 
                Digital Signature, Key Encipherment
            X509v3 Subject Alternative Name: 
                DNS:team414-server
    Signature Algorithm: sha256WithRSAEncryption
    Signature Value:
        04:34:4b:ae:72:bb:2e:40:5a:e6:2b:ee:7a:30:35:a8:3e:7b:
        42:31:be:37:1d:a1:69:cb:28:35:d1:0a:62:6a:2b:01:20:08:
        47:37:d9:e4:40:12:33:bd:06:33:7d:3f:88:c9:4e:99:51:2b:
        da:26:cb:92:c1:83:29:a2:db:1a:41:5f:e3:81:62:58:53:f6:
        39:4e:b5:ed:e1:de:99:39:91:73:f1:76:81:cf:8d:fd:5d:8d:
        fd:e8:22:3b:48:9e:05:8b:f8:2e:ab:80:dd:46:f6:09:6a:ae:
        10:03:5c:be:48:67:87:28:23:8b:ff:c3:5d:cb:f2:17:bd:21:
        9a:08:ae:df:ba:81:76:2d:8b:04:f2:17:00:e1:37:23:e1:67:
        4f:ab:de:5e:12:92:ca:9f:93:ed:b0:84:45:68:f6:10:34:d4:
        bf:aa:8d:b6:0f:ed:c9:c7:42:4e:5d:51:89:06:6d:62:42:e6:
        06:2e:69:25:c2:67:f7:12:cd:38:9e:59:54:a5:47:db:c1:05:
        dc:3c:99:7b:72:df:e3:07:54:a3:2f:39:34:08:ac:74:09:f3:
        8a:c2:e6:70:6d:7c:05:71:53:0b:77:78:b9:e3:be:64:85:de:
        2e:c6:72:91:75:0a:4d:72:af:aa:5a:17:de:9c:e8:98:cc:3e:
        d8:70:d4:2f
-----BEGIN CERTIFICATE-----
MIIDeDCCAmCgAwIBAgIRALfHLMscGvDCI9mcyyyioYwwDQYJKoZIhvcNAQELBQAw
FjEUMBIGA1UEAwwLdGVhbTQxNC1uZXQwHhcNMjMxMTAzMjA0NjQ1WhcNMjYxMDE4
MjA0NjQ1WjAZMRcwFQYDVQQDDA50ZWFtNDE0LXNlcnZlcjCCASIwDQYJKoZIhvcN
AQEBBQADggEPADCCAQoCggEBAKV20sKMM9TU9pc3zlaww/opmJZ9Rvc4SsTNGoRy
ji3379Kh3Y6TfudCtCJ4Q+ivoBsI4hRbQm2k1T26UyhhBCXnGeVS/nAbP1/LxM4m
gbOhflj7ArB784fp391ffLS8eBy4TzZ2cAwPB1M3moZFWImLll6WBd9+6vshlUSy
cgvNtRSeBaDB2Fay2mbdEifJzauMvoiSJgxSJgqcoz7dJCAvgN7xHPj5j8sQUg3N
zinMqwIqYMbOd+DIADDOOzaAjtdN46pHGP8uJO2DADK7K27i3zpPuVYxhg0v7PGY
bTsaoX9IQRNz6+XWHEaIQpEC2QmDLHNgaLP9uKNzLa+fUE0CAwEAAaOBvTCBujAJ
BgNVHRMEAjAAMB0GA1UdDgQWBBStrL4BE7KX5F0bHd2qcE2m8eTH0TBRBgNVHSME
SjBIgBRVs/g1vRJwWUM9SecWCTYyDL7ex6EapBgwFjEUMBIGA1UEAwwLdGVhbTQx
NC1uZXSCFHCS9PwT2pFlu+z33fgiWKhiYo9RMBMGA1UdJQQMMAoGCCsGAQUFBwMB
MAsGA1UdDwQEAwIFoDAZBgNVHREEEjAQgg50ZWFtNDE0LXNlcnZlcjANBgkqhkiG
9w0BAQsFAAOCAQEABDRLrnK7LkBa5ivuejA1qD57QjG+Nx2hacsoNdEKYmorASAI
RzfZ5EASM70GM30/iMlOmVEr2ibLksGDKaLbGkFf44FiWFP2OU617eHemTmRc/F2
gc+N/V2N/egiO0ieBYv4LquA3Ub2CWquEANcvkhnhygji//DXcvyF70hmgiu37qB
di2LBPIXAOE3I+FnT6veXhKSyp+T7bCERWj2EDTUv6qNtg/tycdCTl1RiQZtYkLm
Bi5pJcJn9xLNOJ5ZVKVH28EF3DyZe3Lf4wdUoy85NAisdAnzisLmcG18BXFTC3d4
ueO+ZIXeLsZykXUKTXKvqloX3pzomMw+2HDULw==
-----END CERTIFICATE-----
