Certificate:
    Data:
        Version: 3 (0x2)
        Serial Number:
            79:9b:e7:cd:a5:c1:0d:b4:88:84:1f:30:89:5a:37:f7
        Signature Algorithm: sha256WithRSAEncryption
        Issuer: CN=team412-net
        Validity
            Not Before: Nov  4 11:36:45 2023 GMT
            Not After : Oct 19 11:36:45 2026 GMT
        Subject: CN=team412-server
        Subject Public Key Info:
            Public Key Algorithm: rsaEncryption
                Public-Key: (2048 bit)
                Modulus:
                    00:a1:a7:10:f6:bf:21:7a:03:25:36:d4:ff:2e:c6:
                    36:65:42:34:5a:b2:c2:33:33:9b:f9:30:3b:3a:42:
                    25:4e:2e:26:07:a3:36:d1:ed:1b:0a:dc:0e:7c:3d:
                    0f:c0:01:06:4e:17:a7:4a:2a:29:35:52:5b:77:46:
                    e5:82:36:61:f5:00:35:3e:90:f3:f3:85:d3:f7:68:
                    3d:8f:12:73:4d:80:43:cd:46:24:d3:eb:ca:8d:c9:
                    44:15:b5:ac:3d:54:1d:14:38:d9:05:74:e4:df:96:
                    19:f5:9b:e7:d1:a4:98:16:a5:d2:8f:20:a7:2b:71:
                    08:aa:d7:56:c9:e1:30:d4:82:46:67:d3:8f:cb:86:
                    57:ad:de:d9:19:a7:6f:2a:77:b8:0f:63:fa:ac:23:
                    6e:d6:95:f5:df:50:88:43:e3:68:52:88:46:bd:a3:
                    fb:50:61:74:d6:00:44:71:33:3b:21:4f:57:bf:ae:
                    2c:d5:81:f1:07:e9:0a:05:e5:56:b1:eb:c1:f8:9a:
                    b3:f4:b1:d8:c5:85:23:74:3c:16:40:01:fa:bc:a0:
                    96:75:57:76:ab:58:78:14:68:13:6f:5c:14:d4:2d:
                    75:82:51:8b:44:20:a7:75:74:f9:91:31:5d:c6:2d:
                    dc:9d:6f:10:4e:aa:03:f9:6d:4c:8b:c9:38:1d:1a:
                    bc:09
                Exponent: 65537 (0x10001)
        X509v3 extensions:
            X509v3 Basic Constraints: 
                CA:FALSE
            X509v3 Subject Key Identifier: 
                29:BD:32:67:9E:85:C5:D3:2A:2A:F9:ED:1B:97:6A:9C:E5:93:53:35
            X509v3 Authority Key Identifier: 
                keyid:30:A8:2B:0F:2B:33:50:96:0D:CC:6C:83:9A:5E:BF:BF:00:DE:7D:A4
                DirName:/CN=team412-net
                serial:20:78:4C:F3:90:F9:BD:EE:82:C9:57:EC:0B:21:65:8B:8A:FD:0B:AC
            X509v3 Extended Key Usage: 
                TLS Web Server Authentication
            X509v3 Key Usage: 
                Digital Signature, Key Encipherment
            X509v3 Subject Alternative Name: 
                DNS:team412-server
    Signature Algorithm: sha256WithRSAEncryption
    Signature Value:
        4c:bd:9e:36:d2:ed:9c:37:26:57:74:19:bd:48:8a:bc:10:ed:
        75:28:41:b9:c1:3c:5d:88:b6:b0:ed:b4:69:a3:fb:cd:76:a7:
        3a:29:3a:ef:d7:04:8d:1a:51:34:64:fc:d8:31:ff:42:c4:87:
        04:1e:be:59:4b:7a:5f:06:80:51:7f:83:08:5d:1a:62:f1:5d:
        6a:d9:15:53:09:5a:8e:ab:41:69:0a:82:5a:79:ab:d0:79:dd:
        21:dd:32:43:da:0e:60:22:d9:8e:92:c6:2d:4d:a0:0b:86:77:
        3c:d4:0e:06:60:32:cb:cf:d5:03:79:c6:8e:41:89:29:f6:55:
        43:ee:fa:23:f8:9a:4b:54:cb:5d:99:c9:e1:13:b9:c4:93:93:
        1a:60:32:cc:07:5b:e4:96:41:44:50:0e:ca:1f:3b:46:ed:9b:
        b6:0e:0a:98:73:9e:28:b7:0f:f7:20:60:39:19:be:79:5d:1a:
        ff:78:5d:70:c8:0a:53:23:5a:4a:2e:ef:18:d2:a4:4c:17:eb:
        09:1c:25:62:ed:10:b5:34:3c:8f:af:e9:f4:b9:ce:89:e0:de:
        b9:ff:21:33:00:71:8f:f8:02:59:de:51:96:bb:4a:6b:4b:ab:
        ae:65:25:b3:36:fd:40:68:ae:b9:04:0b:5c:f3:bc:e0:c2:d8:
        4d:91:8e:91
-----BEGIN CERTIFICATE-----
MIIDdzCCAl+gAwIBAgIQeZvnzaXBDbSIhB8wiVo39zANBgkqhkiG9w0BAQsFADAW
MRQwEgYDVQQDDAt0ZWFtNDEyLW5ldDAeFw0yMzExMDQxMTM2NDVaFw0yNjEwMTkx
MTM2NDVaMBkxFzAVBgNVBAMMDnRlYW00MTItc2VydmVyMIIBIjANBgkqhkiG9w0B
AQEFAAOCAQ8AMIIBCgKCAQEAoacQ9r8hegMlNtT/LsY2ZUI0WrLCMzOb+TA7OkIl
Ti4mB6M20e0bCtwOfD0PwAEGThenSiopNVJbd0blgjZh9QA1PpDz84XT92g9jxJz
TYBDzUYk0+vKjclEFbWsPVQdFDjZBXTk35YZ9Zvn0aSYFqXSjyCnK3EIqtdWyeEw
1IJGZ9OPy4ZXrd7ZGadvKne4D2P6rCNu1pX131CIQ+NoUohGvaP7UGF01gBEcTM7
IU9Xv64s1YHxB+kKBeVWsevB+Jqz9LHYxYUjdDwWQAH6vKCWdVd2q1h4FGgTb1wU
1C11glGLRCCndXT5kTFdxi3cnW8QTqoD+W1Mi8k4HRq8CQIDAQABo4G9MIG6MAkG
A1UdEwQCMAAwHQYDVR0OBBYEFCm9MmeehcXTKir57RuXapzlk1M1MFEGA1UdIwRK
MEiAFDCoKw8rM1CWDcxsg5pev78A3n2koRqkGDAWMRQwEgYDVQQDDAt0ZWFtNDEy
LW5ldIIUIHhM85D5ve6CyVfsCyFli4r9C6wwEwYDVR0lBAwwCgYIKwYBBQUHAwEw
CwYDVR0PBAQDAgWgMBkGA1UdEQQSMBCCDnRlYW00MTItc2VydmVyMA0GCSqGSIb3
DQEBCwUAA4IBAQBMvZ420u2cNyZXdBm9SIq8EO11KEG5wTxdiLaw7bRpo/vNdqc6
KTrv1wSNGlE0ZPzYMf9CxIcEHr5ZS3pfBoBRf4MIXRpi8V1q2RVTCVqOq0FpCoJa
eavQed0h3TJD2g5gItmOksYtTaALhnc81A4GYDLLz9UDecaOQYkp9lVD7voj+JpL
VMtdmcnhE7nEk5MaYDLMB1vklkFEUA7KHztG7Zu2DgqYc54otw/3IGA5Gb55XRr/
eF1wyApTI1pKLu8Y0qRMF+sJHCVi7RC1NDyPr+n0uc6J4N65/yEzAHGP+AJZ3lGW
u0prS6uuZSWzNv1AaK65BAtc87zgwthNkY6R
-----END CERTIFICATE-----
