Certificate:
    Data:
        Version: 3 (0x2)
        Serial Number:
            a8:d7:38:35:33:78:19:75:2e:c9:f1:e6:7b:7d:6b:a5
        Signature Algorithm: sha256WithRSAEncryption
        Issuer: CN=team412-net
        Validity
            Not Before: Nov  4 10:48:03 2023 GMT
            Not After : Oct 19 10:48:03 2026 GMT
        Subject: CN=team412-client
        Subject Public Key Info:
            Public Key Algorithm: rsaEncryption
                Public-Key: (2048 bit)
                Modulus:
                    00:e0:03:1a:ce:c3:2a:35:c0:2d:e6:80:23:1b:47:
                    0d:96:7e:dd:ba:14:db:d4:60:ab:31:5b:cd:c6:4e:
                    d6:02:81:6b:84:66:7e:78:b9:a0:99:a5:23:0c:72:
                    ca:15:be:36:87:fb:a2:27:9b:51:14:a6:ed:cf:aa:
                    ea:78:4f:8f:fc:da:96:1a:20:19:0b:26:52:d7:b5:
                    16:47:d4:78:58:4d:0d:4d:55:74:f5:e2:0d:e9:a1:
                    a4:0a:04:68:6e:53:2b:1e:f9:03:8b:fd:2c:bd:f2:
                    02:a6:c0:1e:6d:45:14:4a:a1:8e:e9:bb:94:7a:11:
                    a1:78:c9:34:d5:eb:07:8c:ff:64:b5:ca:bb:d1:6f:
                    bf:75:ca:81:f0:14:6f:4d:5b:95:d2:a5:46:6a:16:
                    c7:b2:87:fd:eb:76:23:26:c4:57:0c:fc:d7:f7:91:
                    ee:80:6e:c9:11:da:38:54:25:3e:0f:a1:c0:0b:32:
                    b9:a0:a7:46:52:51:10:5e:1d:8c:d3:b8:18:64:9e:
                    44:10:6d:fa:d7:c2:48:7b:3f:32:e7:67:c5:60:f1:
                    7c:57:7a:45:97:e8:56:3a:8c:f6:98:f3:10:1d:87:
                    b1:a0:2a:e9:9c:cb:ce:4e:25:ca:1b:36:e3:d7:02:
                    8b:da:d8:fb:54:3f:ee:d3:ae:7b:79:bd:8b:91:10:
                    cb:07
                Exponent: 65537 (0x10001)
        X509v3 extensions:
            X509v3 Basic Constraints: 
                CA:FALSE
            X509v3 Subject Key Identifier: 
                B0:B6:6A:8E:92:DE:F1:5A:08:DA:AD:C0:A0:30:53:29:93:E4:95:F1
            X509v3 Authority Key Identifier: 
                keyid:E8:98:16:AC:D7:C6:AE:A1:E0:53:0D:E0:68:09:A9:26:5C:7B:FE:F8
                DirName:/CN=team412-net
                serial:7F:A4:F4:0D:C0:7A:3A:27:13:72:FF:14:BC:80:DD:D7:11:6C:57:A1
            X509v3 Extended Key Usage: 
                TLS Web Client Authentication
            X509v3 Key Usage: 
                Digital Signature
    Signature Algorithm: sha256WithRSAEncryption
    Signature Value:
        39:19:fb:e5:2b:69:9f:cf:ab:12:1e:ab:ae:c3:20:f4:a4:76:
        73:3d:3a:58:31:fd:f5:9a:63:5a:0e:47:2a:4c:f6:1a:d6:31:
        7d:e4:62:ad:b8:55:d7:20:51:8d:ce:b1:ae:dc:bc:c1:f1:0f:
        5d:da:9e:52:c4:7f:75:cd:5c:8e:6a:49:c9:41:eb:3e:b7:79:
        96:e6:96:83:e9:14:49:f1:69:e6:b8:73:d7:17:49:0a:cb:2c:
        89:19:f2:cf:16:c4:f0:f8:62:5c:21:db:dc:8e:96:d9:ab:e2:
        01:7a:06:e8:e0:7a:a2:7e:54:c5:43:e1:c8:a5:f0:c2:59:98:
        9c:9d:37:b5:b3:26:f7:79:be:96:16:36:32:37:e3:d6:48:e3:
        e5:99:aa:64:46:87:16:3e:c9:be:7f:ab:03:0d:a7:29:b6:ea:
        6b:b0:88:9c:a0:66:42:92:65:e1:6b:c1:13:eb:c9:2b:59:6b:
        be:4e:e3:5a:e9:52:d7:86:9e:9d:65:67:21:3d:d8:16:64:56:
        3e:36:63:8a:be:2d:ba:6f:69:16:61:f2:ee:6d:c7:7e:d4:b9:
        77:57:49:4a:6e:60:44:62:8b:72:24:6c:53:5b:31:d0:ba:f6:
        3c:27:9c:0f:72:c9:8e:16:1b:4d:3e:5e:ed:0c:b4:5f:8e:62:
        1c:8b:3b:fd
-----BEGIN CERTIFICATE-----
MIIDXTCCAkWgAwIBAgIRAKjXODUzeBl1Lsnx5nt9a6UwDQYJKoZIhvcNAQELBQAw
FjEUMBIGA1UEAwwLdGVhbTQxMi1uZXQwHhcNMjMxMTA0MTA0ODAzWhcNMjYxMDE5
MTA0ODAzWjAZMRcwFQYDVQQDDA50ZWFtNDEyLWNsaWVudDCCASIwDQYJKoZIhvcN
AQEBBQADggEPADCCAQoCggEBAOADGs7DKjXALeaAIxtHDZZ+3boU29RgqzFbzcZO
1gKBa4Rmfni5oJmlIwxyyhW+Nof7oiebURSm7c+q6nhPj/zalhogGQsmUte1FkfU
eFhNDU1VdPXiDemhpAoEaG5TKx75A4v9LL3yAqbAHm1FFEqhjum7lHoRoXjJNNXr
B4z/ZLXKu9Fvv3XKgfAUb01bldKlRmoWx7KH/et2IybEVwz81/eR7oBuyRHaOFQl
Pg+hwAsyuaCnRlJREF4djNO4GGSeRBBt+tfCSHs/MudnxWDxfFd6RZfoVjqM9pjz
EB2HsaAq6ZzLzk4lyhs249cCi9rY+1Q/7tOue3m9i5EQywcCAwEAAaOBojCBnzAJ
BgNVHRMEAjAAMB0GA1UdDgQWBBSwtmqOkt7xWgjarcCgMFMpk+SV8TBRBgNVHSME
SjBIgBTomBas18auoeBTDeBoCakmXHv++KEapBgwFjEUMBIGA1UEAwwLdGVhbTQx
Mi1uZXSCFH+k9A3AejonE3L/FLyA3dcRbFehMBMGA1UdJQQMMAoGCCsGAQUFBwMC
MAsGA1UdDwQEAwIHgDANBgkqhkiG9w0BAQsFAAOCAQEAORn75Stpn8+rEh6rrsMg
9KR2cz06WDH99ZpjWg5HKkz2GtYxfeRirbhV1yBRjc6xrty8wfEPXdqeUsR/dc1c
jmpJyUHrPrd5luaWg+kUSfFp5rhz1xdJCsssiRnyzxbE8PhiXCHb3I6W2aviAXoG
6OB6on5UxUPhyKXwwlmYnJ03tbMm93m+lhY2Mjfj1kjj5ZmqZEaHFj7Jvn+rAw2n
Kbbqa7CInKBmQpJl4WvBE+vJK1lrvk7jWulS14aenWVnIT3YFmRWPjZjir4tum9p
FmHy7m3HftS5d1dJSm5gRGKLciRsU1sx0Lr2PCecD3LJjhYbTT5e7Qy0X45iHIs7
/Q==
-----END CERTIFICATE-----
