Certificate:
    Data:
        Version: 3 (0x2)
        Serial Number:
            17:7a:13:48:a1:73:b2:df:6e:41:d5:d1:af:d1:30:e5
        Signature Algorithm: sha256WithRSAEncryption
        Issuer: CN=team421-net
        Validity
            Not Before: Nov  4 11:36:56 2023 GMT
            Not After : Oct 19 11:36:56 2026 GMT
        Subject: CN=team421-client
        Subject Public Key Info:
            Public Key Algorithm: rsaEncryption
                Public-Key: (2048 bit)
                Modulus:
                    00:b6:50:46:93:ed:17:df:b8:76:54:b2:87:ba:bf:
                    13:7e:c3:ea:1f:89:ff:07:5c:2b:8b:eb:e7:1f:ba:
                    1a:e9:f6:12:b7:db:cc:46:1a:bb:67:9e:ad:bc:3f:
                    71:12:61:ed:01:f7:ae:c6:8c:9c:41:29:66:43:d8:
                    8a:fe:4c:9d:06:06:70:f2:d7:06:fe:70:f7:2b:ac:
                    d6:5e:e6:10:87:64:5a:0d:4d:16:e5:c6:39:c7:c8:
                    0f:f1:1b:b8:99:03:49:5d:37:7c:9c:f8:96:e3:6e:
                    bf:ce:a7:5b:7a:d9:d9:1f:33:70:48:c8:2a:bb:5e:
                    4d:57:18:ac:06:79:7d:68:ea:b7:33:d7:f3:e7:68:
                    b6:ef:57:75:77:fc:28:a4:7c:0b:4a:9c:5d:0c:5a:
                    67:e6:d9:7a:f9:73:d5:ae:ee:65:b8:ba:af:90:c0:
                    cc:26:51:d5:a7:15:ff:03:dd:a7:90:28:88:33:cf:
                    73:8d:27:fb:ff:35:50:9f:7a:46:55:4f:0c:4a:22:
                    02:33:e1:16:9c:a2:80:6c:49:6b:db:3a:54:40:bd:
                    ad:c4:1d:79:de:1e:a3:55:22:f5:50:b9:89:f8:a9:
                    bd:7b:72:a0:95:e8:1f:29:d2:89:51:1d:5f:9a:26:
                    01:ab:35:b7:11:32:a7:1b:2c:01:3a:44:50:e2:f9:
                    67:21
                Exponent: 65537 (0x10001)
        X509v3 extensions:
            X509v3 Basic Constraints: 
                CA:FALSE
            X509v3 Subject Key Identifier: 
                61:6B:88:F7:3E:89:30:17:59:63:8A:D6:2A:9D:32:13:33:79:12:E0
            X509v3 Authority Key Identifier: 
                keyid:8A:76:C2:56:F4:52:82:2A:79:D8:5C:9B:F6:8C:D1:E0:C2:17:8A:CD
                DirName:/CN=team421-net
                serial:10:7F:1A:F5:98:DF:37:6E:B5:EE:94:B5:9E:36:02:A5:00:29:D5:E3
            X509v3 Extended Key Usage: 
                TLS Web Client Authentication
            X509v3 Key Usage: 
                Digital Signature
    Signature Algorithm: sha256WithRSAEncryption
    Signature Value:
        86:0a:c5:f4:86:1e:99:68:75:91:c9:92:70:46:38:29:59:97:
        71:96:fc:5c:d8:50:bf:82:e2:78:c4:69:e1:29:bc:55:ce:b7:
        c8:c5:6d:29:5c:40:0f:78:10:ab:a8:5d:44:31:b3:13:b6:ba:
        68:f6:ac:83:d1:f8:ad:ae:99:b2:7b:48:b9:f3:5c:6d:a8:5a:
        fc:1e:f2:bb:d8:18:33:f4:5d:c1:30:94:31:69:da:b0:31:20:
        cc:c8:85:13:c8:54:f8:9c:85:8b:c0:d8:d3:ae:77:9e:80:b1:
        c0:35:36:54:35:8b:b2:3e:6b:b3:99:de:4a:a4:60:28:9a:fa:
        2f:13:ea:01:9c:4c:cd:7b:b7:f0:ad:f0:2c:41:cf:96:ee:3a:
        10:b9:aa:b5:e4:d4:a3:dc:a1:2a:4d:55:18:75:7e:cc:18:38:
        98:bb:88:e9:83:3e:7b:40:78:23:1b:cc:72:e0:17:5c:5d:cf:
        a9:2b:26:7b:9d:2b:d3:ef:56:1e:6b:28:36:23:a7:d7:00:86:
        ee:0b:f6:fc:ed:c8:64:57:9a:86:81:db:0f:f6:1e:66:9e:50:
        29:a4:fe:59:45:67:d9:b4:8d:ec:92:67:6b:03:85:2f:ef:8c:
        14:be:34:2c:d1:dd:81:58:d3:9e:04:78:a3:43:99:5f:a9:2f:
        d1:99:46:2a
-----BEGIN CERTIFICATE-----
MIIDXDCCAkSgAwIBAgIQF3oTSKFzst9uQdXRr9Ew5TANBgkqhkiG9w0BAQsFADAW
MRQwEgYDVQQDDAt0ZWFtNDIxLW5ldDAeFw0yMzExMDQxMTM2NTZaFw0yNjEwMTkx
MTM2NTZaMBkxFzAVBgNVBAMMDnRlYW00MjEtY2xpZW50MIIBIjANBgkqhkiG9w0B
AQEFAAOCAQ8AMIIBCgKCAQEAtlBGk+0X37h2VLKHur8TfsPqH4n/B1wri+vnH7oa
6fYSt9vMRhq7Z56tvD9xEmHtAfeuxoycQSlmQ9iK/kydBgZw8tcG/nD3K6zWXuYQ
h2RaDU0W5cY5x8gP8Ru4mQNJXTd8nPiW426/zqdbetnZHzNwSMgqu15NVxisBnl9
aOq3M9fz52i271d1d/wopHwLSpxdDFpn5tl6+XPVru5luLqvkMDMJlHVpxX/A92n
kCiIM89zjSf7/zVQn3pGVU8MSiICM+EWnKKAbElr2zpUQL2txB153h6jVSL1ULmJ
+Km9e3KglegfKdKJUR1fmiYBqzW3ETKnGywBOkRQ4vlnIQIDAQABo4GiMIGfMAkG
A1UdEwQCMAAwHQYDVR0OBBYEFGFriPc+iTAXWWOK1iqdMhMzeRLgMFEGA1UdIwRK
MEiAFIp2wlb0UoIqedhcm/aM0eDCF4rNoRqkGDAWMRQwEgYDVQQDDAt0ZWFtNDIx
LW5ldIIUEH8a9ZjfN2617pS1njYCpQAp1eMwEwYDVR0lBAwwCgYIKwYBBQUHAwIw
CwYDVR0PBAQDAgeAMA0GCSqGSIb3DQEBCwUAA4IBAQCGCsX0hh6ZaHWRyZJwRjgp
WZdxlvxc2FC/guJ4xGnhKbxVzrfIxW0pXEAPeBCrqF1EMbMTtrpo9qyD0fitrpmy
e0i581xtqFr8HvK72Bgz9F3BMJQxadqwMSDMyIUTyFT4nIWLwNjTrneegLHANTZU
NYuyPmuzmd5KpGAomvovE+oBnEzNe7fwrfAsQc+W7joQuaq15NSj3KEqTVUYdX7M
GDiYu4jpgz57QHgjG8xy4BdcXc+pKyZ7nSvT71Yeayg2I6fXAIbuC/b87chkV5qG
gdsP9h5mnlAppP5ZRWfZtI3skmdrA4Uv74wUvjQs0d2BWNOeBHijQ5lfqS/RmUYq
-----END CERTIFICATE-----
