Certificate:
    Data:
        Version: 3 (0x2)
        Serial Number:
            9f:87:13:25:ba:d6:ba:5f:26:47:fe:99:b2:a7:6c:93
        Signature Algorithm: sha256WithRSAEncryption
        Issuer: CN=team421-net
        Validity
            Not Before: Nov  3 20:46:52 2023 GMT
            Not After : Oct 18 20:46:52 2026 GMT
        Subject: CN=team421-client
        Subject Public Key Info:
            Public Key Algorithm: rsaEncryption
                Public-Key: (2048 bit)
                Modulus:
                    00:d8:06:0c:6e:00:e8:0d:02:56:69:04:1c:a9:a5:
                    63:99:9b:26:ff:10:c5:6c:8d:46:2e:10:21:b7:53:
                    22:2d:11:21:d5:af:a5:88:a9:ec:80:4d:b7:40:c8:
                    7c:d8:63:f3:da:b1:c5:05:c1:3c:dc:2b:50:8b:98:
                    e9:c7:01:fb:6c:42:c3:50:d1:b6:13:8f:26:86:80:
                    93:d4:99:f9:51:1b:b4:86:b7:7f:7a:0f:16:b3:0b:
                    40:cd:68:ef:9d:67:a1:30:7d:99:78:88:87:23:f0:
                    09:62:d6:75:b7:3d:39:f4:a7:85:a9:f3:cd:05:6c:
                    09:8f:c5:a7:88:9a:e3:b0:7b:4d:90:cd:65:29:42:
                    ea:81:67:b1:a0:3f:96:be:06:45:b6:67:5c:f8:4b:
                    de:68:58:bf:43:cd:06:33:10:2a:2c:22:69:92:48:
                    12:f3:d0:e6:f3:79:44:a2:1b:fa:12:1f:4b:83:89:
                    c5:15:55:9f:3f:c1:5b:cf:46:4c:40:b2:2c:a7:2f:
                    7d:a0:9d:ac:44:e6:03:42:c8:40:d9:e6:72:98:84:
                    7d:c0:c6:fc:0d:00:3b:49:33:e8:3d:dc:76:5f:f4:
                    43:5d:77:9b:5c:70:8e:23:de:2f:f6:68:84:fe:0c:
                    4c:5a:57:31:86:8d:3b:b8:42:0c:7b:58:3e:10:9d:
                    9c:2d
                Exponent: 65537 (0x10001)
        X509v3 extensions:
            X509v3 Basic Constraints: 
                CA:FALSE
            X509v3 Subject Key Identifier: 
                07:12:3B:C7:4E:89:C8:3E:CD:6E:0E:B4:6D:9C:63:70:91:CE:B3:C6
            X509v3 Authority Key Identifier: 
                keyid:C7:40:CA:D5:8D:87:9E:F5:4E:6C:81:F4:E3:75:3A:55:A9:32:CF:DD
                DirName:/CN=team421-net
                serial:2C:7E:F2:27:3D:FE:15:68:FC:50:69:02:6E:5F:41:2B:3F:8D:53:A3
            X509v3 Extended Key Usage: 
                TLS Web Client Authentication
            X509v3 Key Usage: 
                Digital Signature
    Signature Algorithm: sha256WithRSAEncryption
    Signature Value:
        98:00:f7:d4:b5:fa:35:39:29:97:ca:9c:60:95:16:5d:8a:66:
        4f:b7:53:00:3f:89:20:1a:27:a8:35:30:8d:39:62:f4:e1:98:
        2f:5b:e8:ef:4d:c5:9d:b3:c8:42:f1:e7:fc:52:ec:aa:02:95:
        06:60:18:3c:45:d3:3a:a5:ab:ce:01:be:e8:26:fb:b6:b7:ca:
        a7:73:5f:b7:00:a9:d1:26:f5:60:45:22:f9:95:b0:2c:b1:57:
        85:15:d5:c8:73:32:58:5b:83:b7:96:fd:3f:a1:e8:23:2b:ed:
        c1:69:bb:0d:a1:e9:3e:8a:de:8b:61:a7:14:63:07:f2:c8:23:
        39:12:bc:3b:41:a6:46:d7:94:9a:30:5a:b4:ab:67:2a:8e:06:
        6a:bc:11:15:88:d6:dd:1c:52:e7:9f:6f:25:75:7b:b1:ba:96:
        2a:e6:8e:56:96:6b:8b:81:ee:f6:60:40:cd:01:00:0c:33:76:
        85:3d:d9:06:c5:68:2e:90:81:a9:a7:01:85:2e:dc:ef:fa:60:
        22:52:d3:a1:1d:ff:db:94:ed:70:ee:14:b8:84:46:57:51:17:
        c1:60:96:42:ff:be:f7:a1:be:29:38:65:d4:9d:57:1c:27:37:
        6e:90:0a:a5:95:f8:ab:75:67:9e:90:02:56:af:46:ba:d5:cc:
        da:3c:d0:65
-----BEGIN CERTIFICATE-----
MIIDXTCCAkWgAwIBAgIRAJ+HEyW61rpfJkf+mbKnbJMwDQYJKoZIhvcNAQELBQAw
FjEUMBIGA1UEAwwLdGVhbTQyMS1uZXQwHhcNMjMxMTAzMjA0NjUyWhcNMjYxMDE4
MjA0NjUyWjAZMRcwFQYDVQQDDA50ZWFtNDIxLWNsaWVudDCCASIwDQYJKoZIhvcN
AQEBBQADggEPADCCAQoCggEBANgGDG4A6A0CVmkEHKmlY5mbJv8QxWyNRi4QIbdT
Ii0RIdWvpYip7IBNt0DIfNhj89qxxQXBPNwrUIuY6ccB+2xCw1DRthOPJoaAk9SZ
+VEbtIa3f3oPFrMLQM1o751noTB9mXiIhyPwCWLWdbc9OfSnhanzzQVsCY/Fp4ia
47B7TZDNZSlC6oFnsaA/lr4GRbZnXPhL3mhYv0PNBjMQKiwiaZJIEvPQ5vN5RKIb
+hIfS4OJxRVVnz/BW89GTECyLKcvfaCdrETmA0LIQNnmcpiEfcDG/A0AO0kz6D3c
dl/0Q113m1xwjiPeL/ZohP4MTFpXMYaNO7hCDHtYPhCdnC0CAwEAAaOBojCBnzAJ
BgNVHRMEAjAAMB0GA1UdDgQWBBQHEjvHTonIPs1uDrRtnGNwkc6zxjBRBgNVHSME
SjBIgBTHQMrVjYee9U5sgfTjdTpVqTLP3aEapBgwFjEUMBIGA1UEAwwLdGVhbTQy
MS1uZXSCFCx+8ic9/hVo/FBpAm5fQSs/jVOjMBMGA1UdJQQMMAoGCCsGAQUFBwMC
MAsGA1UdDwQEAwIHgDANBgkqhkiG9w0BAQsFAAOCAQEAmAD31LX6NTkpl8qcYJUW
XYpmT7dTAD+JIBonqDUwjTli9OGYL1vo703FnbPIQvHn/FLsqgKVBmAYPEXTOqWr
zgG+6Cb7trfKp3NftwCp0Sb1YEUi+ZWwLLFXhRXVyHMyWFuDt5b9P6HoIyvtwWm7
DaHpPorei2GnFGMH8sgjORK8O0GmRteUmjBatKtnKo4GarwRFYjW3RxS559vJXV7
sbqWKuaOVpZri4Hu9mBAzQEADDN2hT3ZBsVoLpCBqacBhS7c7/pgIlLToR3/25Tt
cO4UuIRGV1EXwWCWQv++96G+KThl1J1XHCc3bpAKpZX4q3VnnpACVq9GutXM2jzQ
ZQ==
-----END CERTIFICATE-----
