Certificate:
    Data:
        Version: 3 (0x2)
        Serial Number:
            e0:79:2e:74:73:c0:e3:8c:c5:cb:6f:d2:b0:4b:71:31
        Signature Algorithm: sha256WithRSAEncryption
        Issuer: CN=team421-net
        Validity
            Not Before: Nov  3 20:46:53 2023 GMT
            Not After : Oct 18 20:46:53 2026 GMT
        Subject: CN=team421-server
        Subject Public Key Info:
            Public Key Algorithm: rsaEncryption
                Public-Key: (2048 bit)
                Modulus:
                    00:bb:da:fc:4f:50:9d:ea:d5:df:66:a0:78:0b:e5:
                    02:7e:6b:43:24:1c:db:b7:b7:83:59:43:f7:8f:28:
                    31:7c:4c:cf:46:c9:51:4d:82:18:9f:33:9b:d1:46:
                    b5:59:b4:b0:94:b3:f9:c8:9e:a2:50:e3:7b:6c:8a:
                    61:50:b4:51:3c:c7:1f:5d:ac:81:b1:95:39:e7:1c:
                    30:76:96:f0:49:30:f6:52:1a:f8:5e:be:23:ca:9f:
                    46:11:e4:80:55:2b:9f:55:fe:5a:b2:94:57:54:49:
                    a6:60:cf:64:81:e7:49:e6:e1:d7:95:6a:0c:38:b1:
                    93:08:47:62:e3:18:6b:d2:07:83:56:83:41:d0:47:
                    fd:7f:32:84:99:c6:9a:25:f0:31:a2:77:4c:df:04:
                    96:16:37:bc:d4:d4:7a:86:f6:e9:fa:c0:b4:1b:6a:
                    d5:ff:69:89:33:e8:d7:de:14:bb:d2:a9:42:29:49:
                    45:c4:f1:f9:12:42:b1:36:b3:74:c9:9a:66:2d:12:
                    0b:91:33:66:b9:b8:06:c1:ce:9d:2d:96:0b:5f:68:
                    6f:bb:ad:73:de:c0:4e:39:a9:e7:f5:82:ef:8e:3c:
                    2e:77:49:6e:23:99:97:f5:b2:9c:70:9b:23:78:59:
                    2a:1b:47:94:2c:10:cc:0a:a7:d4:38:7c:70:68:ee:
                    e7:2f
                Exponent: 65537 (0x10001)
        X509v3 extensions:
            X509v3 Basic Constraints: 
                CA:FALSE
            X509v3 Subject Key Identifier: 
                A3:C1:97:4D:C0:7B:B9:64:8F:0F:1F:BB:C7:E9:C0:BB:BA:4E:18:8F
            X509v3 Authority Key Identifier: 
                keyid:C7:40:CA:D5:8D:87:9E:F5:4E:6C:81:F4:E3:75:3A:55:A9:32:CF:DD
                DirName:/CN=team421-net
                serial:2C:7E:F2:27:3D:FE:15:68:FC:50:69:02:6E:5F:41:2B:3F:8D:53:A3
            X509v3 Extended Key Usage: 
                TLS Web Server Authentication
            X509v3 Key Usage: 
                Digital Signature, Key Encipherment
            X509v3 Subject Alternative Name: 
                DNS:team421-server
    Signature Algorithm: sha256WithRSAEncryption
    Signature Value:
        23:6f:3a:33:3a:d0:cb:4c:f5:3c:e8:f8:80:a5:4f:8d:03:c2:
        aa:fe:99:a9:a0:5d:4f:1c:89:d7:bb:4d:2b:ab:63:b7:51:ac:
        20:5a:59:11:bd:6b:99:56:8b:84:eb:b1:18:bf:e2:a8:d1:a4:
        69:52:60:08:d9:e3:5e:f2:b9:90:e6:05:b7:fc:5e:69:a9:b1:
        96:16:18:b8:83:01:c3:69:d0:a1:52:fe:3c:89:2b:b9:7c:5b:
        49:a9:f3:ec:d5:e5:4e:47:8d:45:ad:bf:f3:80:f7:58:73:0d:
        32:70:72:c3:81:35:3d:4a:23:d3:97:2f:3f:ae:09:ba:be:89:
        4e:e0:2a:4c:26:bb:32:0b:fd:76:b4:d5:64:d0:ff:c5:23:02:
        9b:c8:d2:8a:92:d5:f0:c6:4d:30:58:6c:99:be:e1:ec:e4:e6:
        8b:4f:91:02:c8:9e:5a:22:73:bd:3d:51:c2:4f:b0:9b:62:9e:
        3d:d1:fe:4c:29:d6:5b:ac:98:5c:5d:90:6f:69:5d:9d:38:79:
        f2:09:58:8f:d6:89:db:62:66:45:54:cd:54:3b:4f:24:1a:2f:
        1c:b3:fa:db:09:b3:04:f3:d3:89:ff:eb:72:33:0a:42:0e:ef:
        b0:e9:ef:52:ba:cd:1b:c9:31:55:c8:7a:7c:35:fe:d9:01:2a:
        23:b8:6b:6c
-----BEGIN CERTIFICATE-----
MIIDeDCCAmCgAwIBAgIRAOB5LnRzwOOMxctv0rBLcTEwDQYJKoZIhvcNAQELBQAw
FjEUMBIGA1UEAwwLdGVhbTQyMS1uZXQwHhcNMjMxMTAzMjA0NjUzWhcNMjYxMDE4
MjA0NjUzWjAZMRcwFQYDVQQDDA50ZWFtNDIxLXNlcnZlcjCCASIwDQYJKoZIhvcN
AQEBBQADggEPADCCAQoCggEBALva/E9QnerV32ageAvlAn5rQyQc27e3g1lD948o
MXxMz0bJUU2CGJ8zm9FGtVm0sJSz+cieolDje2yKYVC0UTzHH12sgbGVOeccMHaW
8Ekw9lIa+F6+I8qfRhHkgFUrn1X+WrKUV1RJpmDPZIHnSebh15VqDDixkwhHYuMY
a9IHg1aDQdBH/X8yhJnGmiXwMaJ3TN8ElhY3vNTUeob26frAtBtq1f9piTPo194U
u9KpQilJRcTx+RJCsTazdMmaZi0SC5EzZrm4BsHOnS2WC19ob7utc97ATjmp5/WC
7448LndJbiOZl/WynHCbI3hZKhtHlCwQzAqn1Dh8cGju5y8CAwEAAaOBvTCBujAJ
BgNVHRMEAjAAMB0GA1UdDgQWBBSjwZdNwHu5ZI8PH7vH6cC7uk4YjzBRBgNVHSME
SjBIgBTHQMrVjYee9U5sgfTjdTpVqTLP3aEapBgwFjEUMBIGA1UEAwwLdGVhbTQy
MS1uZXSCFCx+8ic9/hVo/FBpAm5fQSs/jVOjMBMGA1UdJQQMMAoGCCsGAQUFBwMB
MAsGA1UdDwQEAwIFoDAZBgNVHREEEjAQgg50ZWFtNDIxLXNlcnZlcjANBgkqhkiG
9w0BAQsFAAOCAQEAI286MzrQy0z1POj4gKVPjQPCqv6ZqaBdTxyJ17tNK6tjt1Gs
IFpZEb1rmVaLhOuxGL/iqNGkaVJgCNnjXvK5kOYFt/xeaamxlhYYuIMBw2nQoVL+
PIkruXxbSanz7NXlTkeNRa2/84D3WHMNMnByw4E1PUoj05cvP64Jur6JTuAqTCa7
Mgv9drTVZND/xSMCm8jSipLV8MZNMFhsmb7h7OTmi0+RAsieWiJzvT1Rwk+wm2Ke
PdH+TCnWW6yYXF2Qb2ldnTh58glYj9aJ22JmRVTNVDtPJBovHLP62wmzBPPTif/r
cjMKQg7vsOnvUrrNG8kxVch6fDX+2QEqI7hrbA==
-----END CERTIFICATE-----
