Certificate:
    Data:
        Version: 3 (0x2)
        Serial Number:
            5d:a1:f6:3e:fe:72:dd:5f:07:aa:ab:4e:f4:94:03:39
        Signature Algorithm: sha256WithRSAEncryption
        Issuer: CN=team312-net
        Validity
            Not Before: Nov  4 10:46:20 2023 GMT
            Not After : Oct 19 10:46:20 2026 GMT
        Subject: CN=team312-client
        Subject Public Key Info:
            Public Key Algorithm: rsaEncryption
                Public-Key: (2048 bit)
                Modulus:
                    00:c4:ed:cc:df:95:99:cc:b5:68:b9:66:97:68:5c:
                    f9:83:04:ee:c1:31:5f:d7:86:b0:f7:b9:16:ff:54:
                    fc:4a:08:bb:c6:de:7f:41:04:4e:da:22:6b:f0:50:
                    dd:f4:43:2d:a5:ca:c8:c1:37:5a:36:87:b5:71:d9:
                    66:f9:0c:3b:e8:92:ee:4c:af:cf:5a:ab:94:34:23:
                    af:ac:d7:52:b5:1d:f4:86:c1:6c:5f:8e:3a:3f:7d:
                    de:cb:66:e3:66:3f:4b:fb:52:68:7d:7e:25:f6:fc:
                    fd:2c:c4:8c:b7:2e:64:e7:60:24:13:b4:9d:46:c5:
                    79:66:77:a2:fb:43:37:d7:b7:da:b8:ce:d1:32:97:
                    e3:0c:51:d1:f4:a5:c4:1f:2c:41:9d:bd:eb:53:52:
                    e6:16:36:f4:e8:af:8e:ee:31:62:82:56:39:1c:87:
                    12:cf:97:90:7e:28:bb:05:11:bb:d4:93:f5:13:ae:
                    0c:cc:af:0d:a6:c3:08:2c:43:2e:8c:61:36:83:1e:
                    30:bc:70:39:96:5c:a2:c6:f8:45:3d:73:54:07:73:
                    03:74:60:59:fa:e8:01:86:30:a2:19:cf:c7:6c:f6:
                    3a:66:4c:15:60:08:37:e3:7e:70:c2:37:76:2d:05:
                    03:7b:3e:eb:54:9f:08:97:6c:2f:fd:52:f4:46:3d:
                    46:43
                Exponent: 65537 (0x10001)
        X509v3 extensions:
            X509v3 Basic Constraints: 
                CA:FALSE
            X509v3 Subject Key Identifier: 
                F6:F2:0C:E2:2C:BC:0D:D0:AA:EE:CA:73:EF:CB:13:97:49:8C:7C:5C
            X509v3 Authority Key Identifier: 
                keyid:C9:FC:15:0E:03:AB:47:AA:33:4D:E3:23:15:CF:C5:27:CA:D0:33:E3
                DirName:/CN=team312-net
                serial:69:8A:39:9C:48:9A:82:03:5C:1B:74:9A:4C:E7:A0:6C:03:6E:10:B7
            X509v3 Extended Key Usage: 
                TLS Web Client Authentication
            X509v3 Key Usage: 
                Digital Signature
    Signature Algorithm: sha256WithRSAEncryption
    Signature Value:
        52:2c:c6:7f:b6:c6:9f:e6:b8:9a:46:a1:f9:64:38:b0:5b:a8:
        38:5a:eb:a2:c8:51:17:d8:c8:96:b4:b0:ed:76:32:c8:a1:ad:
        e1:ce:29:3e:5b:a9:a8:2c:f7:85:e9:de:42:21:69:d9:c7:25:
        3e:7e:ed:8d:b8:34:37:8e:96:5e:f2:b1:20:6a:ae:ad:c8:c4:
        67:20:a7:9f:17:cf:c7:13:59:ff:ce:47:9b:cd:f8:88:bb:59:
        95:87:5e:47:3e:11:3e:fe:4c:23:14:71:8b:64:39:6c:4f:aa:
        42:ba:36:22:2e:e4:46:3a:37:45:59:a3:42:e1:bd:3c:bc:af:
        d5:08:0a:dc:3a:6e:00:4d:b4:3e:c0:1a:3b:a3:20:ff:87:7d:
        99:6c:ad:df:23:67:2a:b5:18:d8:1f:a9:9e:6b:11:14:0a:93:
        3e:18:18:01:e7:90:3d:f8:44:f9:c1:c3:06:88:86:49:89:0a:
        e4:50:66:9d:0b:eb:ea:ca:7c:82:ab:c1:ce:b7:49:64:13:f2:
        f9:ec:c6:d3:2c:36:5b:91:e7:5d:80:f1:0f:30:c3:b5:3c:7f:
        50:37:c3:f8:36:78:03:b8:bb:df:d6:65:db:72:ac:3c:10:d3:
        af:b4:41:aa:e3:d2:1f:92:84:ee:f8:87:6c:77:62:71:4d:6d:
        bf:c4:25:61
-----BEGIN CERTIFICATE-----
MIIDXDCCAkSgAwIBAgIQXaH2Pv5y3V8HqqtO9JQDOTANBgkqhkiG9w0BAQsFADAW
MRQwEgYDVQQDDAt0ZWFtMzEyLW5ldDAeFw0yMzExMDQxMDQ2MjBaFw0yNjEwMTkx
MDQ2MjBaMBkxFzAVBgNVBAMMDnRlYW0zMTItY2xpZW50MIIBIjANBgkqhkiG9w0B
AQEFAAOCAQ8AMIIBCgKCAQEAxO3M35WZzLVouWaXaFz5gwTuwTFf14aw97kW/1T8
Sgi7xt5/QQRO2iJr8FDd9EMtpcrIwTdaNoe1cdlm+Qw76JLuTK/PWquUNCOvrNdS
tR30hsFsX446P33ey2bjZj9L+1JofX4l9vz9LMSMty5k52AkE7SdRsV5Znei+0M3
17fauM7RMpfjDFHR9KXEHyxBnb3rU1LmFjb06K+O7jFiglY5HIcSz5eQfii7BRG7
1JP1E64MzK8NpsMILEMujGE2gx4wvHA5llyixvhFPXNUB3MDdGBZ+ugBhjCiGc/H
bPY6ZkwVYAg3435wwjd2LQUDez7rVJ8Il2wv/VL0Rj1GQwIDAQABo4GiMIGfMAkG
A1UdEwQCMAAwHQYDVR0OBBYEFPbyDOIsvA3Qqu7Kc+/LE5dJjHxcMFEGA1UdIwRK
MEiAFMn8FQ4Dq0eqM03jIxXPxSfK0DPjoRqkGDAWMRQwEgYDVQQDDAt0ZWFtMzEy
LW5ldIIUaYo5nEiaggNcG3SaTOegbANuELcwEwYDVR0lBAwwCgYIKwYBBQUHAwIw
CwYDVR0PBAQDAgeAMA0GCSqGSIb3DQEBCwUAA4IBAQBSLMZ/tsaf5riaRqH5ZDiw
W6g4WuuiyFEX2MiWtLDtdjLIoa3hzik+W6moLPeF6d5CIWnZxyU+fu2NuDQ3jpZe
8rEgaq6tyMRnIKefF8/HE1n/zkebzfiIu1mVh15HPhE+/kwjFHGLZDlsT6pCujYi
LuRGOjdFWaNC4b08vK/VCArcOm4ATbQ+wBo7oyD/h32ZbK3fI2cqtRjYH6meaxEU
CpM+GBgB55A9+ET5wcMGiIZJiQrkUGadC+vqynyCq8HOt0lkE/L57MbTLDZbkedd
gPEPMMO1PH9QN8P4NngDuLvf1mXbcqw8ENOvtEGq49IfkoTu+Idsd2JxTW2/xCVh
-----END CERTIFICATE-----
