Certificate:
    Data:
        Version: 3 (0x2)
        Serial Number:
            72:3b:8b:96:a4:91:94:f3:f2:7b:7a:2d:95:b6:67:49
        Signature Algorithm: sha256WithRSAEncryption
        Issuer: CN=team312-net
        Validity
            Not Before: Nov  3 20:44:56 2023 GMT
            Not After : Oct 18 20:44:56 2026 GMT
        Subject: CN=team312-server
        Subject Public Key Info:
            Public Key Algorithm: rsaEncryption
                Public-Key: (2048 bit)
                Modulus:
                    00:c6:a4:1e:3c:50:97:39:62:90:43:8a:e2:17:74:
                    f5:15:14:0a:d4:cc:43:0f:53:a4:8b:b1:15:2c:5d:
                    0b:ac:84:8d:43:44:2b:86:c4:87:b2:2b:30:ad:44:
                    09:6b:9d:26:ca:c3:47:12:07:de:8a:15:75:36:ae:
                    36:98:91:c9:c8:db:e1:10:41:1b:3d:0b:51:35:22:
                    aa:30:52:57:db:a3:3c:aa:3c:16:2e:15:6a:4b:0e:
                    b4:4a:a9:18:47:8f:e2:ce:6f:92:0d:a9:1f:09:02:
                    c5:7d:83:d8:5f:f0:12:7c:b8:fd:66:19:2b:e9:cc:
                    09:eb:4e:ca:59:a7:a5:a6:47:44:23:9f:a6:53:0c:
                    39:05:4e:c9:d3:ab:e5:1e:05:91:45:ae:d2:13:8e:
                    19:6b:25:96:3a:28:55:98:55:93:e0:7b:fb:66:52:
                    86:ac:dd:45:8b:7c:88:36:c8:e6:a5:09:9c:b7:8c:
                    06:18:cd:c0:75:7f:9c:1e:09:04:aa:71:61:29:8d:
                    1b:49:05:ae:6a:d2:a4:34:b5:67:4f:e8:cf:4c:e8:
                    5c:d2:9a:01:fe:cb:f6:f2:20:ee:22:e3:a4:35:1e:
                    06:bf:ac:44:03:db:03:7e:a9:fa:53:cb:ae:38:53:
                    39:6f:99:8c:40:5d:06:ed:d7:a7:f8:d3:63:b9:ca:
                    bf:8f
                Exponent: 65537 (0x10001)
        X509v3 extensions:
            X509v3 Basic Constraints: 
                CA:FALSE
            X509v3 Subject Key Identifier: 
                91:46:68:CC:5E:BD:3C:98:59:65:21:3D:2B:50:9E:1E:20:33:D0:3B
            X509v3 Authority Key Identifier: 
                keyid:B9:D1:80:F4:AC:E2:8C:32:62:40:79:BD:1B:B2:36:9B:DF:5A:C4:4E
                DirName:/CN=team312-net
                serial:54:A9:1E:26:47:B4:0E:B6:7E:AB:14:2A:F3:BD:8D:ED:A4:57:1B:DB
            X509v3 Extended Key Usage: 
                TLS Web Server Authentication
            X509v3 Key Usage: 
                Digital Signature, Key Encipherment
            X509v3 Subject Alternative Name: 
                DNS:team312-server
    Signature Algorithm: sha256WithRSAEncryption
    Signature Value:
        69:92:8c:53:0a:43:8c:ed:9d:0d:d7:38:83:e1:0c:cf:ff:9b:
        0c:a2:6c:a0:a1:65:4b:9c:7e:af:aa:03:63:fd:70:e8:77:f0:
        16:27:2d:59:2d:5d:0a:98:96:dd:b6:a8:9e:d1:f9:31:d0:8c:
        07:2c:e0:eb:cf:fb:12:28:9a:7f:2c:9b:47:78:7b:d9:23:b4:
        31:25:b2:2c:b2:a1:6d:ac:f5:bb:22:a9:d0:cd:5d:22:c0:f5:
        9f:54:0f:ee:62:3d:46:af:55:72:e3:a6:19:d7:98:ea:fe:9d:
        51:03:5c:c7:d0:9e:18:54:5f:1c:fd:19:ad:93:ef:a4:9b:25:
        09:cf:86:a1:3c:3d:37:86:4e:80:ff:aa:a7:97:46:27:32:e1:
        bc:21:69:71:1a:bc:ce:ec:13:64:c0:90:9f:97:ca:ed:7a:34:
        c2:39:90:99:7c:cb:e2:ff:27:97:63:65:c4:ad:8a:5c:3b:13:
        65:5b:f5:b7:78:5f:8a:5d:d4:d9:87:17:54:3c:3a:7f:ba:38:
        39:3b:76:d5:66:4f:4d:32:95:65:02:4f:bb:fa:32:63:dc:c8:
        35:c3:44:be:5e:67:af:c0:29:ee:50:aa:b0:15:29:6c:a2:c1:
        d6:4a:60:35:e3:cc:e5:13:bf:cb:df:63:42:d8:09:6f:45:88:
        6e:7a:49:da
-----BEGIN CERTIFICATE-----
MIIDdzCCAl+gAwIBAgIQcjuLlqSRlPPye3otlbZnSTANBgkqhkiG9w0BAQsFADAW
MRQwEgYDVQQDDAt0ZWFtMzEyLW5ldDAeFw0yMzExMDMyMDQ0NTZaFw0yNjEwMTgy
MDQ0NTZaMBkxFzAVBgNVBAMMDnRlYW0zMTItc2VydmVyMIIBIjANBgkqhkiG9w0B
AQEFAAOCAQ8AMIIBCgKCAQEAxqQePFCXOWKQQ4riF3T1FRQK1MxDD1Oki7EVLF0L
rISNQ0QrhsSHsiswrUQJa50mysNHEgfeihV1Nq42mJHJyNvhEEEbPQtRNSKqMFJX
26M8qjwWLhVqSw60SqkYR4/izm+SDakfCQLFfYPYX/ASfLj9Zhkr6cwJ607KWael
pkdEI5+mUww5BU7J06vlHgWRRa7SE44ZayWWOihVmFWT4Hv7ZlKGrN1Fi3yINsjm
pQmct4wGGM3AdX+cHgkEqnFhKY0bSQWuatKkNLVnT+jPTOhc0poB/sv28iDuIuOk
NR4Gv6xEA9sDfqn6U8uuOFM5b5mMQF0G7den+NNjucq/jwIDAQABo4G9MIG6MAkG
A1UdEwQCMAAwHQYDVR0OBBYEFJFGaMxevTyYWWUhPStQnh4gM9A7MFEGA1UdIwRK
MEiAFLnRgPSs4owyYkB5vRuyNpvfWsROoRqkGDAWMRQwEgYDVQQDDAt0ZWFtMzEy
LW5ldIIUVKkeJke0DrZ+qxQq872N7aRXG9swEwYDVR0lBAwwCgYIKwYBBQUHAwEw
CwYDVR0PBAQDAgWgMBkGA1UdEQQSMBCCDnRlYW0zMTItc2VydmVyMA0GCSqGSIb3
DQEBCwUAA4IBAQBpkoxTCkOM7Z0N1ziD4QzP/5sMomygoWVLnH6vqgNj/XDod/AW
Jy1ZLV0KmJbdtqie0fkx0IwHLODrz/sSKJp/LJtHeHvZI7QxJbIssqFtrPW7IqnQ
zV0iwPWfVA/uYj1Gr1Vy46YZ15jq/p1RA1zH0J4YVF8c/Rmtk++kmyUJz4ahPD03
hk6A/6qnl0YnMuG8IWlxGrzO7BNkwJCfl8rtejTCOZCZfMvi/yeXY2XErYpcOxNl
W/W3eF+KXdTZhxdUPDp/ujg5O3bVZk9NMpVlAk+7+jJj3Mg1w0S+XmevwCnuUKqw
FSlsosHWSmA148zlE7/L32NC2AlvRYhuekna
-----END CERTIFICATE-----
