Certificate:
    Data:
        Version: 3 (0x2)
        Serial Number:
            c5:e5:d3:89:0b:54:0e:42:38:2f:a0:a5:c1:bb:a3:d9
        Signature Algorithm: sha256WithRSAEncryption
        Issuer: CN=team312-net
        Validity
            Not Before: Nov  4 11:34:16 2023 GMT
            Not After : Oct 19 11:34:16 2026 GMT
        Subject: CN=team312-client
        Subject Public Key Info:
            Public Key Algorithm: rsaEncryption
                Public-Key: (2048 bit)
                Modulus:
                    00:90:b3:88:be:68:88:70:3f:5d:9b:41:9a:24:f3:
                    78:93:ab:7d:a4:4f:3b:b0:ef:78:f7:a5:25:c7:4f:
                    3d:66:76:e0:27:d5:9d:98:1f:55:2b:de:68:28:fa:
                    01:8d:01:27:e9:a2:56:1a:14:20:6b:45:13:9e:fc:
                    08:19:9c:7e:97:d7:d4:85:dc:91:81:6c:25:2f:64:
                    0b:84:0a:19:b3:e8:ee:1c:65:5d:b2:c6:ec:41:29:
                    a6:32:ac:59:c7:81:86:cf:ec:e1:ae:22:41:43:5d:
                    4a:78:fd:e2:9a:08:d8:d9:a7:04:89:15:8f:fa:3c:
                    b9:2a:c3:b7:2f:e8:9a:6d:57:33:e5:d7:d8:b6:60:
                    3f:2a:af:08:00:9c:bb:61:c4:0e:e3:ea:ec:91:e5:
                    b3:5a:63:79:8f:de:60:d7:ff:eb:27:7e:8b:10:0f:
                    7c:a9:92:43:19:d5:5a:0a:6d:31:81:b2:a4:28:9c:
                    15:d8:ff:c4:ff:fb:5e:11:0d:b5:ea:03:3f:d8:66:
                    85:f5:cf:35:94:dc:9e:27:1e:4f:6b:85:35:b0:29:
                    2d:8c:14:8a:c2:c6:76:a1:0d:ca:b5:9e:68:4e:9a:
                    70:fa:51:20:46:ec:eb:dc:28:b9:37:aa:74:5c:d6:
                    bb:4a:94:33:51:ae:d1:99:9b:4e:11:22:89:b1:6d:
                    02:dd
                Exponent: 65537 (0x10001)
        X509v3 extensions:
            X509v3 Basic Constraints: 
                CA:FALSE
            X509v3 Subject Key Identifier: 
                1A:08:ED:A6:F3:6E:AA:1E:06:8D:24:CD:B3:21:51:A7:D1:6F:08:FA
            X509v3 Authority Key Identifier: 
                keyid:7F:FF:C8:A4:CC:59:89:8D:09:C2:E0:54:CA:FF:F2:EA:04:D2:D5:A6
                DirName:/CN=team312-net
                serial:26:7A:F2:B7:D2:AD:5E:B5:90:30:78:F1:83:B9:42:5B:07:53:9A:F7
            X509v3 Extended Key Usage: 
                TLS Web Client Authentication
            X509v3 Key Usage: 
                Digital Signature
    Signature Algorithm: sha256WithRSAEncryption
    Signature Value:
        67:19:26:ab:c6:fa:f4:88:eb:a1:71:36:c0:ac:79:a8:ff:8f:
        e8:6e:27:75:32:83:b4:e1:f2:7a:6e:bc:0e:bb:8f:a0:b5:8b:
        7c:91:43:d6:e2:41:f3:70:98:29:96:89:b5:5e:5f:93:6a:11:
        cb:f9:43:f0:b5:d3:50:8e:0f:84:8e:20:9a:bb:b4:c0:e3:5b:
        f6:35:5c:f3:eb:2d:f2:0d:cf:bc:fd:44:22:ca:0d:25:40:6e:
        2b:9f:a3:56:7d:14:37:b4:4d:57:a1:3b:c8:82:94:82:5f:3e:
        82:30:2f:dd:90:58:db:d5:c9:97:42:6d:58:53:09:71:7e:54:
        90:ca:50:4b:d4:dc:32:6c:a8:44:45:c2:99:3f:b3:97:43:32:
        d3:e5:90:4b:62:af:d1:ba:64:ff:78:35:21:7b:06:e2:3f:fe:
        40:a1:59:32:99:a1:04:89:f2:38:fa:07:66:63:a1:25:f7:99:
        f1:03:6e:08:68:d2:15:32:b0:fb:3e:b9:55:54:f2:36:99:99:
        d8:9a:04:d6:61:04:cd:45:07:98:95:d4:28:c8:4e:7a:4c:ed:
        4a:18:af:13:d2:98:21:d3:1e:21:c5:1a:56:e8:bc:cc:5f:ee:
        1e:c6:ed:51:27:c0:ef:78:cb:41:89:31:98:89:e4:14:13:be:
        b2:2f:42:ad
-----BEGIN CERTIFICATE-----
MIIDXTCCAkWgAwIBAgIRAMXl04kLVA5COC+gpcG7o9kwDQYJKoZIhvcNAQELBQAw
FjEUMBIGA1UEAwwLdGVhbTMxMi1uZXQwHhcNMjMxMTA0MTEzNDE2WhcNMjYxMDE5
MTEzNDE2WjAZMRcwFQYDVQQDDA50ZWFtMzEyLWNsaWVudDCCASIwDQYJKoZIhvcN
AQEBBQADggEPADCCAQoCggEBAJCziL5oiHA/XZtBmiTzeJOrfaRPO7DvePelJcdP
PWZ24CfVnZgfVSveaCj6AY0BJ+miVhoUIGtFE578CBmcfpfX1IXckYFsJS9kC4QK
GbPo7hxlXbLG7EEppjKsWceBhs/s4a4iQUNdSnj94poI2NmnBIkVj/o8uSrDty/o
mm1XM+XX2LZgPyqvCACcu2HEDuPq7JHls1pjeY/eYNf/6yd+ixAPfKmSQxnVWgpt
MYGypCicFdj/xP/7XhENteoDP9hmhfXPNZTcniceT2uFNbApLYwUisLGdqENyrWe
aE6acPpRIEbs69wouTeqdFzWu0qUM1Gu0ZmbThEiibFtAt0CAwEAAaOBojCBnzAJ
BgNVHRMEAjAAMB0GA1UdDgQWBBQaCO2m826qHgaNJM2zIVGn0W8I+jBRBgNVHSME
SjBIgBR//8ikzFmJjQnC4FTK//LqBNLVpqEapBgwFjEUMBIGA1UEAwwLdGVhbTMx
Mi1uZXSCFCZ68rfSrV61kDB48YO5QlsHU5r3MBMGA1UdJQQMMAoGCCsGAQUFBwMC
MAsGA1UdDwQEAwIHgDANBgkqhkiG9w0BAQsFAAOCAQEAZxkmq8b69IjroXE2wKx5
qP+P6G4ndTKDtOHyem68DruPoLWLfJFD1uJB83CYKZaJtV5fk2oRy/lD8LXTUI4P
hI4gmru0wONb9jVc8+st8g3PvP1EIsoNJUBuK5+jVn0UN7RNV6E7yIKUgl8+gjAv
3ZBY29XJl0JtWFMJcX5UkMpQS9TcMmyoREXCmT+zl0My0+WQS2Kv0bpk/3g1IXsG
4j/+QKFZMpmhBInyOPoHZmOhJfeZ8QNuCGjSFTKw+z65VVTyNpmZ2JoE1mEEzUUH
mJXUKMhOekztShivE9KYIdMeIcUaVui8zF/uHsbtUSfA73jLQYkxmInkFBO+si9C
rQ==
-----END CERTIFICATE-----
