Certificate:
    Data:
        Version: 3 (0x2)
        Serial Number:
            ea:ad:fe:95:42:01:78:41:82:6e:01:e3:7f:d4:7d:40
        Signature Algorithm: sha256WithRSAEncryption
        Issuer: CN=team312-net
        Validity
            Not Before: Nov  4 10:46:20 2023 GMT
            Not After : Oct 19 10:46:20 2026 GMT
        Subject: CN=team312-server
        Subject Public Key Info:
            Public Key Algorithm: rsaEncryption
                Public-Key: (2048 bit)
                Modulus:
                    00:bc:93:ae:29:53:f4:21:75:93:04:2b:ef:dd:2b:
                    6e:8b:b1:6b:1c:18:24:20:09:d2:d8:b5:87:84:92:
                    e5:bd:cc:1b:75:43:79:de:05:e7:fd:bb:15:1d:ad:
                    b0:80:47:c1:56:b0:4d:a4:42:b2:45:45:ea:df:38:
                    70:58:f1:c7:49:74:30:6c:a4:7a:80:f5:1e:81:2c:
                    da:6e:22:07:99:d1:b3:13:a9:f0:cb:c4:e1:30:df:
                    e1:e3:39:46:73:0e:c0:58:f9:ec:ea:7c:ff:2b:3d:
                    22:e8:99:64:23:c1:f8:4e:82:7a:6d:c5:14:11:46:
                    71:4a:e9:2a:06:e3:b8:be:85:ea:35:dd:28:4b:f6:
                    5d:4d:38:13:ad:ff:2d:fe:79:9c:79:b0:59:6f:68:
                    da:3e:70:d4:76:74:1e:40:67:e6:20:4d:f5:85:9a:
                    a3:64:58:c4:20:60:16:18:7c:3c:a5:84:67:f2:41:
                    e3:b0:db:2e:2e:43:3c:ae:2a:7c:9a:77:3f:c3:94:
                    43:5b:f3:0d:ce:df:68:d2:fe:b8:e4:47:03:fc:54:
                    b2:e5:b6:b8:a7:a5:d9:ed:0c:81:85:53:81:22:2a:
                    1f:df:dd:4c:3b:24:48:a0:09:4d:f8:fd:3d:ce:66:
                    fa:80:4b:1e:35:2c:9a:3c:7b:88:74:ae:c9:46:1d:
                    12:33
                Exponent: 65537 (0x10001)
        X509v3 extensions:
            X509v3 Basic Constraints: 
                CA:FALSE
            X509v3 Subject Key Identifier: 
                A8:F3:7E:E9:68:1F:FE:1A:2D:D7:83:85:12:33:40:FF:D4:10:CD:DB
            X509v3 Authority Key Identifier: 
                keyid:C9:FC:15:0E:03:AB:47:AA:33:4D:E3:23:15:CF:C5:27:CA:D0:33:E3
                DirName:/CN=team312-net
                serial:69:8A:39:9C:48:9A:82:03:5C:1B:74:9A:4C:E7:A0:6C:03:6E:10:B7
            X509v3 Extended Key Usage: 
                TLS Web Server Authentication
            X509v3 Key Usage: 
                Digital Signature, Key Encipherment
            X509v3 Subject Alternative Name: 
                DNS:team312-server
    Signature Algorithm: sha256WithRSAEncryption
    Signature Value:
        3b:1f:1a:d0:28:ba:0d:8f:8a:05:8c:90:34:f5:4d:a4:a8:8b:
        5e:d4:f2:08:a4:77:ca:ff:b2:1a:bd:e8:55:de:4d:50:b9:83:
        a1:f3:9b:f3:86:1f:59:b6:32:ef:06:47:2e:81:6d:14:54:17:
        48:8a:92:83:03:ef:f0:45:f8:d1:17:3a:ad:e5:42:11:72:e0:
        a9:82:6d:7a:f6:21:09:3b:76:1c:1f:8b:40:ef:e7:5d:f7:79:
        78:25:8a:17:5b:1e:1d:76:2b:50:f1:d3:33:32:31:47:4e:8e:
        b7:44:24:d3:e5:38:45:1f:d4:0d:eb:df:b0:5e:29:d9:b6:72:
        f0:59:33:56:56:23:5e:6e:1f:e0:9a:ec:e1:40:0f:8a:af:6a:
        54:61:c5:89:18:df:5f:35:0c:00:5c:1d:4f:5f:d7:8a:68:0d:
        2e:1b:4f:7e:0c:19:78:dc:8c:3f:67:ff:9a:58:e9:30:53:05:
        d6:7e:8c:86:1e:37:41:ca:e6:f8:24:a8:0f:2d:27:68:02:2a:
        21:df:d4:9c:b3:a7:ac:34:35:0f:52:0c:03:36:32:4e:d3:72:
        a3:9f:98:0f:53:a2:6a:35:a0:bc:51:db:54:0a:31:40:0a:1e:
        3f:4c:3c:8f:22:db:55:63:d2:b5:a0:14:8f:34:82:85:74:04:
        8d:8f:16:17
-----BEGIN CERTIFICATE-----
MIIDeDCCAmCgAwIBAgIRAOqt/pVCAXhBgm4B43/UfUAwDQYJKoZIhvcNAQELBQAw
FjEUMBIGA1UEAwwLdGVhbTMxMi1uZXQwHhcNMjMxMTA0MTA0NjIwWhcNMjYxMDE5
MTA0NjIwWjAZMRcwFQYDVQQDDA50ZWFtMzEyLXNlcnZlcjCCASIwDQYJKoZIhvcN
AQEBBQADggEPADCCAQoCggEBALyTrilT9CF1kwQr790rbouxaxwYJCAJ0ti1h4SS
5b3MG3VDed4F5/27FR2tsIBHwVawTaRCskVF6t84cFjxx0l0MGykeoD1HoEs2m4i
B5nRsxOp8MvE4TDf4eM5RnMOwFj57Op8/ys9IuiZZCPB+E6Cem3FFBFGcUrpKgbj
uL6F6jXdKEv2XU04E63/Lf55nHmwWW9o2j5w1HZ0HkBn5iBN9YWao2RYxCBgFhh8
PKWEZ/JB47DbLi5DPK4qfJp3P8OUQ1vzDc7faNL+uORHA/xUsuW2uKel2e0MgYVT
gSIqH9/dTDskSKAJTfj9Pc5m+oBLHjUsmjx7iHSuyUYdEjMCAwEAAaOBvTCBujAJ
BgNVHRMEAjAAMB0GA1UdDgQWBBSo837paB/+Gi3Xg4USM0D/1BDN2zBRBgNVHSME
SjBIgBTJ/BUOA6tHqjNN4yMVz8UnytAz46EapBgwFjEUMBIGA1UEAwwLdGVhbTMx
Mi1uZXSCFGmKOZxImoIDXBt0mkznoGwDbhC3MBMGA1UdJQQMMAoGCCsGAQUFBwMB
MAsGA1UdDwQEAwIFoDAZBgNVHREEEjAQgg50ZWFtMzEyLXNlcnZlcjANBgkqhkiG
9w0BAQsFAAOCAQEAOx8a0Ci6DY+KBYyQNPVNpKiLXtTyCKR3yv+yGr3oVd5NULmD
ofOb84YfWbYy7wZHLoFtFFQXSIqSgwPv8EX40Rc6reVCEXLgqYJtevYhCTt2HB+L
QO/nXfd5eCWKF1seHXYrUPHTMzIxR06Ot0Qk0+U4RR/UDevfsF4p2bZy8FkzVlYj
Xm4f4Jrs4UAPiq9qVGHFiRjfXzUMAFwdT1/XimgNLhtPfgwZeNyMP2f/mljpMFMF
1n6Mhh43Qcrm+CSoDy0naAIqId/UnLOnrDQ1D1IMAzYyTtNyo5+YD1OiajWgvFHb
VAoxQAoeP0w8jyLbVWPStaAUjzSChXQEjY8WFw==
-----END CERTIFICATE-----
