Certificate:
    Data:
        Version: 3 (0x2)
        Serial Number:
            2e:d9:04:ba:39:13:98:bd:c7:ac:b2:62:88:72:05:d7
        Signature Algorithm: sha256WithRSAEncryption
        Issuer: CN=team331-net
        Validity
            Not Before: Nov  3 20:45:19 2023 GMT
            Not After : Oct 18 20:45:19 2026 GMT
        Subject: CN=team331-client
        Subject Public Key Info:
            Public Key Algorithm: rsaEncryption
                Public-Key: (2048 bit)
                Modulus:
                    00:b5:14:df:81:53:62:ec:62:37:cd:9b:e2:b6:b6:
                    2f:c9:cf:c9:a1:45:fb:7c:00:b9:82:af:b2:73:d2:
                    58:20:0d:32:c6:de:b9:44:00:ef:30:bc:1c:53:d8:
                    65:c1:0a:27:e0:fd:3c:4f:c2:36:1a:f9:0b:e9:23:
                    97:e1:3c:6b:a6:4a:d2:47:e3:01:16:76:cb:34:44:
                    8f:48:63:be:b0:89:7d:e4:b2:f2:04:78:10:e2:d3:
                    74:20:9b:22:66:fd:21:8b:58:6f:95:5c:39:df:cd:
                    4b:0e:4b:7c:3f:b9:6c:6f:5d:ec:d9:a7:88:0e:19:
                    26:44:4a:de:c6:0a:d4:21:b8:8e:d7:c1:9c:90:dc:
                    d3:53:47:e9:aa:32:73:ad:8c:ad:80:2a:37:da:9a:
                    1b:eb:12:b7:2f:32:2a:e7:ec:86:79:5c:01:72:ba:
                    ad:7c:cb:6b:1b:03:74:6d:fd:3d:dc:f3:45:ac:6a:
                    79:78:69:5e:66:b0:33:e3:ab:51:22:be:0a:5c:c9:
                    bf:35:44:80:95:33:25:3c:25:b4:9f:26:3b:d5:e4:
                    fc:24:1c:81:3c:98:c9:9c:44:ba:77:8e:8e:46:eb:
                    cb:da:7f:c6:92:bc:6b:e3:21:f8:5e:ed:05:dd:a7:
                    67:d7:24:6b:d3:fb:eb:69:07:ce:24:3d:b5:21:76:
                    2f:f1
                Exponent: 65537 (0x10001)
        X509v3 extensions:
            X509v3 Basic Constraints: 
                CA:FALSE
            X509v3 Subject Key Identifier: 
                78:AF:91:71:1D:0D:4A:6E:68:C0:5C:42:92:B6:FF:73:55:73:0E:6B
            X509v3 Authority Key Identifier: 
                keyid:10:27:7C:73:71:EB:91:48:F8:FE:09:F2:EE:98:66:74:E5:73:F0:86
                DirName:/CN=team331-net
                serial:5B:2C:90:2B:ED:3E:56:00:35:83:4D:81:47:DD:AA:1B:28:B1:12:49
            X509v3 Extended Key Usage: 
                TLS Web Client Authentication
            X509v3 Key Usage: 
                Digital Signature
    Signature Algorithm: sha256WithRSAEncryption
    Signature Value:
        64:4c:b7:83:61:fc:ba:1f:fb:cc:a6:d0:35:a9:22:fc:ba:a1:
        d3:7b:d7:70:e4:6b:01:b6:b3:dc:a2:02:ae:ef:5c:1f:32:99:
        9c:d0:bf:17:9b:34:c6:dc:e2:0c:01:24:28:1c:4b:3b:50:af:
        00:23:c7:35:b3:34:29:03:67:40:3e:90:ee:8d:75:99:75:6a:
        1a:20:9c:94:02:d1:3f:27:81:9d:b5:9d:5f:1b:f5:66:7f:cc:
        36:40:5a:1e:7b:2d:22:71:80:dd:71:1f:34:32:ca:06:65:6a:
        bf:0d:fc:3d:1a:e0:68:31:f8:bc:c5:24:ff:fc:af:0f:00:35:
        be:18:4b:e9:66:5d:f8:be:88:d0:51:24:d0:a6:dd:62:0b:47:
        14:ef:d8:60:d9:ac:ca:96:4d:d1:d8:77:3b:ad:31:99:88:48:
        4c:fc:7f:11:a2:6f:86:58:ef:a2:24:4b:7c:78:95:09:1b:49:
        11:13:f6:46:11:87:e0:7f:2b:7e:0e:c8:00:fe:8a:34:fc:5a:
        30:6b:29:7b:4d:4f:05:a9:de:64:fc:ce:f7:b2:0c:84:f4:6f:
        51:5d:97:e6:e7:35:9e:37:33:41:47:f0:9d:51:6c:26:59:2e:
        57:8f:62:26:c2:9f:c4:d8:89:10:f4:7c:c3:a8:be:62:af:a6:
        31:90:23:ea
-----BEGIN CERTIFICATE-----
MIIDXDCCAkSgAwIBAgIQLtkEujkTmL3HrLJiiHIF1zANBgkqhkiG9w0BAQsFADAW
MRQwEgYDVQQDDAt0ZWFtMzMxLW5ldDAeFw0yMzExMDMyMDQ1MTlaFw0yNjEwMTgy
MDQ1MTlaMBkxFzAVBgNVBAMMDnRlYW0zMzEtY2xpZW50MIIBIjANBgkqhkiG9w0B
AQEFAAOCAQ8AMIIBCgKCAQEAtRTfgVNi7GI3zZvitrYvyc/JoUX7fAC5gq+yc9JY
IA0yxt65RADvMLwcU9hlwQon4P08T8I2GvkL6SOX4TxrpkrSR+MBFnbLNESPSGO+
sIl95LLyBHgQ4tN0IJsiZv0hi1hvlVw5381LDkt8P7lsb13s2aeIDhkmRErexgrU
IbiO18GckNzTU0fpqjJzrYytgCo32pob6xK3LzIq5+yGeVwBcrqtfMtrGwN0bf09
3PNFrGp5eGleZrAz46tRIr4KXMm/NUSAlTMlPCW0nyY71eT8JByBPJjJnES6d46O
RuvL2n/Gkrxr4yH4Xu0F3adn1yRr0/vraQfOJD21IXYv8QIDAQABo4GiMIGfMAkG
A1UdEwQCMAAwHQYDVR0OBBYEFHivkXEdDUpuaMBcQpK2/3NVcw5rMFEGA1UdIwRK
MEiAFBAnfHNx65FI+P4J8u6YZnTlc/CGoRqkGDAWMRQwEgYDVQQDDAt0ZWFtMzMx
LW5ldIIUWyyQK+0+VgA1g02BR92qGyixEkkwEwYDVR0lBAwwCgYIKwYBBQUHAwIw
CwYDVR0PBAQDAgeAMA0GCSqGSIb3DQEBCwUAA4IBAQBkTLeDYfy6H/vMptA1qSL8
uqHTe9dw5GsBtrPcogKu71wfMpmc0L8XmzTG3OIMASQoHEs7UK8AI8c1szQpA2dA
PpDujXWZdWoaIJyUAtE/J4GdtZ1fG/Vmf8w2QFoeey0icYDdcR80MsoGZWq/Dfw9
GuBoMfi8xST//K8PADW+GEvpZl34vojQUSTQpt1iC0cU79hg2azKlk3R2Hc7rTGZ
iEhM/H8Rom+GWO+iJEt8eJUJG0kRE/ZGEYfgfyt+DsgA/oo0/Fowayl7TU8Fqd5k
/M73sgyE9G9RXZfm5zWeNzNBR/CdUWwmWS5Xj2Imwp/E2IkQ9HzDqL5ir6YxkCPq
-----END CERTIFICATE-----
