Certificate:
    Data:
        Version: 3 (0x2)
        Serial Number:
            4e:c0:cd:c9:88:7a:53:05:09:a6:73:83:7a:ab:7e:b7
        Signature Algorithm: sha256WithRSAEncryption
        Issuer: CN=team331-net
        Validity
            Not Before: Nov  4 10:46:41 2023 GMT
            Not After : Oct 19 10:46:41 2026 GMT
        Subject: CN=team331-server
        Subject Public Key Info:
            Public Key Algorithm: rsaEncryption
                Public-Key: (2048 bit)
                Modulus:
                    00:d3:e1:e7:ec:6b:d6:b9:fe:28:33:2d:ef:dd:73:
                    07:e7:7f:e8:22:a9:20:4a:34:2e:23:65:6b:0d:14:
                    22:2f:51:da:9d:90:c2:69:b0:8f:f3:db:9b:8c:6f:
                    f0:45:bb:5d:1b:61:e9:6b:a0:f0:3f:80:97:88:1f:
                    f2:5b:97:c9:dc:1f:ec:5e:63:0c:50:9e:bb:d4:ea:
                    d7:47:15:ed:02:18:4e:63:f4:84:34:da:fc:d1:37:
                    18:99:6c:b5:55:3c:2c:ad:c8:0a:06:5f:da:b7:90:
                    d9:df:10:48:ff:3f:c1:58:80:35:b1:1c:a7:ec:ad:
                    2a:1c:4a:5a:0c:b0:44:33:b6:e5:c3:ec:ff:7c:8e:
                    40:23:b5:ef:b4:f6:81:0a:a0:fd:58:ef:9b:08:98:
                    0f:c4:79:3b:b3:44:58:97:44:02:56:59:50:0f:28:
                    c4:51:61:d1:81:f7:9d:75:ae:45:a7:b8:24:ad:21:
                    c2:38:7b:de:e0:93:17:11:ee:45:32:26:05:79:40:
                    92:7d:55:cf:03:2e:a7:09:01:27:d8:9a:ae:f4:54:
                    b5:56:94:dc:3f:cb:a9:57:17:62:66:4c:a2:a8:fb:
                    e5:22:bc:8c:4c:7f:b4:4d:7d:2c:d7:f9:2e:a0:be:
                    6f:7e:28:4d:b3:6b:95:5f:2f:dd:1e:8b:b2:b5:15:
                    98:8f
                Exponent: 65537 (0x10001)
        X509v3 extensions:
            X509v3 Basic Constraints: 
                CA:FALSE
            X509v3 Subject Key Identifier: 
                70:05:F3:C2:89:FF:2D:89:FE:E2:FE:32:EE:48:A4:EE:F3:9B:D4:44
            X509v3 Authority Key Identifier: 
                keyid:1F:27:F1:C6:F3:91:CF:D8:01:65:F6:4A:38:C7:21:35:41:F7:A3:68
                DirName:/CN=team331-net
                serial:27:A1:7D:08:74:D7:AC:D9:7B:0D:80:BA:F4:63:CD:C0:2F:00:17:63
            X509v3 Extended Key Usage: 
                TLS Web Server Authentication
            X509v3 Key Usage: 
                Digital Signature, Key Encipherment
            X509v3 Subject Alternative Name: 
                DNS:team331-server
    Signature Algorithm: sha256WithRSAEncryption
    Signature Value:
        2d:2d:63:ad:0e:23:28:08:1e:2b:72:15:84:2e:4d:34:ea:f7:
        14:cf:e7:18:c1:62:86:92:96:17:09:3e:1a:34:d2:bf:a2:0b:
        30:4a:29:69:4f:a0:72:bb:44:62:1c:9d:2c:0a:fc:84:7b:22:
        6c:ea:48:ed:67:5d:73:61:a9:30:68:6e:bc:6d:4b:2b:a1:b4:
        00:40:f1:83:c1:e9:41:37:5e:6c:10:d6:6e:13:49:8b:46:09:
        48:be:89:1c:5f:70:52:27:1a:85:70:c8:2c:f2:78:56:03:04:
        98:73:fa:a9:ac:e9:ec:77:8e:5e:f3:0a:01:67:08:47:a8:08:
        e5:45:b5:b7:12:9d:2d:09:a2:1d:1c:fa:69:bf:a9:05:83:68:
        df:d2:8d:f9:06:fb:5b:44:44:23:f9:c3:0b:91:10:2d:c2:01:
        c5:72:32:3a:4f:d0:22:2c:2c:d0:b4:cf:d9:ca:38:a2:e2:13:
        86:a5:4b:1a:d6:81:c5:6e:93:af:7d:d2:9c:b7:a0:24:9f:50:
        d1:c3:14:f2:04:4d:dd:85:e2:b4:b9:cb:de:89:d1:8b:cd:c7:
        1d:70:ce:3e:58:22:dd:49:32:fe:2d:cd:d8:a4:30:09:ec:bf:
        13:ab:f2:35:d3:0c:e4:43:a3:4e:ca:97:03:f4:75:08:e6:59:
        18:d1:b6:a1
-----BEGIN CERTIFICATE-----
MIIDdzCCAl+gAwIBAgIQTsDNyYh6UwUJpnODeqt+tzANBgkqhkiG9w0BAQsFADAW
MRQwEgYDVQQDDAt0ZWFtMzMxLW5ldDAeFw0yMzExMDQxMDQ2NDFaFw0yNjEwMTkx
MDQ2NDFaMBkxFzAVBgNVBAMMDnRlYW0zMzEtc2VydmVyMIIBIjANBgkqhkiG9w0B
AQEFAAOCAQ8AMIIBCgKCAQEA0+Hn7GvWuf4oMy3v3XMH53/oIqkgSjQuI2VrDRQi
L1HanZDCabCP89ubjG/wRbtdG2Hpa6DwP4CXiB/yW5fJ3B/sXmMMUJ671OrXRxXt
AhhOY/SENNr80TcYmWy1VTwsrcgKBl/at5DZ3xBI/z/BWIA1sRyn7K0qHEpaDLBE
M7blw+z/fI5AI7XvtPaBCqD9WO+bCJgPxHk7s0RYl0QCVllQDyjEUWHRgfedda5F
p7gkrSHCOHve4JMXEe5FMiYFeUCSfVXPAy6nCQEn2Jqu9FS1VpTcP8upVxdiZkyi
qPvlIryMTH+0TX0s1/kuoL5vfihNs2uVXy/dHouytRWYjwIDAQABo4G9MIG6MAkG
A1UdEwQCMAAwHQYDVR0OBBYEFHAF88KJ/y2J/uL+Mu5IpO7zm9REMFEGA1UdIwRK
MEiAFB8n8cbzkc/YAWX2SjjHITVB96NooRqkGDAWMRQwEgYDVQQDDAt0ZWFtMzMx
LW5ldIIUJ6F9CHTXrNl7DYC69GPNwC8AF2MwEwYDVR0lBAwwCgYIKwYBBQUHAwEw
CwYDVR0PBAQDAgWgMBkGA1UdEQQSMBCCDnRlYW0zMzEtc2VydmVyMA0GCSqGSIb3
DQEBCwUAA4IBAQAtLWOtDiMoCB4rchWELk006vcUz+cYwWKGkpYXCT4aNNK/ogsw
SilpT6Byu0RiHJ0sCvyEeyJs6kjtZ11zYakwaG68bUsrobQAQPGDwelBN15sENZu
E0mLRglIvokcX3BSJxqFcMgs8nhWAwSYc/qprOnsd45e8woBZwhHqAjlRbW3Ep0t
CaIdHPppv6kFg2jf0o35BvtbREQj+cMLkRAtwgHFcjI6T9AiLCzQtM/Zyjii4hOG
pUsa1oHFbpOvfdKct6Akn1DRwxTyBE3dheK0ucveidGLzccdcM4+WCLdSTL+Lc3Y
pDAJ7L8Tq/I10wzkQ6NOypcD9HUI5lkY0bah
-----END CERTIFICATE-----
