Certificate:
    Data:
        Version: 3 (0x2)
        Serial Number:
            db:97:b1:3f:5c:e4:c7:78:a2:c1:16:35:95:ab:42:bb
        Signature Algorithm: sha256WithRSAEncryption
        Issuer: CN=team331-net
        Validity
            Not Before: Nov  4 11:34:46 2023 GMT
            Not After : Oct 19 11:34:46 2026 GMT
        Subject: CN=team331-client
        Subject Public Key Info:
            Public Key Algorithm: rsaEncryption
                Public-Key: (2048 bit)
                Modulus:
                    00:a5:d0:2d:9e:50:6f:0e:05:c8:26:43:78:d8:60:
                    71:81:34:6b:29:e5:a5:38:ff:e7:c7:c3:28:fb:ab:
                    95:8a:d4:1b:a7:79:27:b3:b5:70:5c:c5:72:50:44:
                    81:e4:b1:30:46:75:7c:d1:e2:34:4b:e1:8f:5f:9d:
                    c1:b0:22:98:e5:ad:34:18:42:e9:54:95:75:db:9a:
                    7d:b2:cf:cf:59:5b:6a:c2:89:7f:7e:69:26:a7:a9:
                    9b:02:3d:9d:a3:38:11:7c:9e:f7:d8:07:89:43:dd:
                    03:99:51:e0:e3:fa:a1:49:1d:54:a7:eb:0a:34:2d:
                    08:f1:46:eb:e0:e8:49:79:17:8f:15:c9:23:4c:b6:
                    f1:46:ea:de:bf:91:e8:d7:d3:3a:eb:90:e9:7f:da:
                    72:3d:bb:93:44:ca:6a:e1:74:0d:cd:92:8c:55:4b:
                    68:61:ce:5b:50:f0:b2:c9:86:2e:f2:db:27:6f:a6:
                    39:1c:6f:93:17:5c:c9:6a:fd:cf:5c:28:e0:c7:98:
                    ca:4a:36:b6:12:a4:63:83:af:f5:ff:4d:5b:85:85:
                    ae:ec:8b:64:b8:09:41:40:ab:2e:3c:64:68:0e:b9:
                    fd:65:0b:14:42:fc:12:9c:73:6c:19:76:6e:b5:df:
                    4e:f3:c1:e6:d7:60:c5:18:cc:00:88:5f:0c:43:c0:
                    d1:89
                Exponent: 65537 (0x10001)
        X509v3 extensions:
            X509v3 Basic Constraints: 
                CA:FALSE
            X509v3 Subject Key Identifier: 
                C9:D1:36:7E:81:23:3C:F2:ED:F6:E5:77:E3:8C:21:19:E4:14:85:4E
            X509v3 Authority Key Identifier: 
                keyid:EB:71:41:C0:BF:A1:65:61:88:66:3D:45:87:5C:58:18:97:D9:48:D3
                DirName:/CN=team331-net
                serial:50:DD:A9:A8:54:F5:69:50:14:2F:29:09:C4:2A:47:AF:D7:A2:AB:EB
            X509v3 Extended Key Usage: 
                TLS Web Client Authentication
            X509v3 Key Usage: 
                Digital Signature
    Signature Algorithm: sha256WithRSAEncryption
    Signature Value:
        7b:ab:59:14:b0:52:bf:62:ac:ae:1b:0f:f0:5d:7d:22:92:38:
        aa:0f:56:79:8e:c3:6a:2a:05:eb:85:71:aa:89:b9:01:cf:59:
        a6:e7:f0:c0:2f:07:d7:9f:da:bd:71:57:d0:d2:e7:1c:96:7a:
        c4:01:11:6f:b3:40:c5:f0:b5:42:d6:5c:92:9b:5a:12:c0:4f:
        60:7c:ed:71:d1:a1:35:ca:c1:ff:1f:9c:27:f6:bf:ab:fa:bb:
        c8:6e:a6:34:68:61:80:9e:5d:7c:6b:e7:5c:8c:66:a2:67:1b:
        05:e6:91:93:48:e6:0a:bf:51:ab:a3:c2:06:0b:d4:45:c3:6a:
        ae:8b:dc:ea:cd:21:84:fd:69:28:e4:6f:38:3e:b1:62:80:61:
        20:f1:7f:46:66:cb:2f:4d:cf:13:90:62:b6:26:ef:70:c5:c2:
        9d:e7:37:28:f1:21:96:5c:16:d9:a6:9a:08:b7:57:84:d5:8a:
        89:86:36:17:69:44:7a:2f:cf:d0:94:0f:a3:a4:65:d2:84:08:
        b5:73:5c:56:53:12:01:03:03:9a:c6:db:35:57:e6:9d:d2:ef:
        45:b6:1f:26:1c:a2:84:91:bf:52:56:d4:47:d7:7c:b5:80:e5:
        73:af:35:a7:56:f9:26:a2:6f:1a:83:bd:56:04:d0:79:11:a4:
        1c:64:2f:94
-----BEGIN CERTIFICATE-----
MIIDXTCCAkWgAwIBAgIRANuXsT9c5Md4osEWNZWrQrswDQYJKoZIhvcNAQELBQAw
FjEUMBIGA1UEAwwLdGVhbTMzMS1uZXQwHhcNMjMxMTA0MTEzNDQ2WhcNMjYxMDE5
MTEzNDQ2WjAZMRcwFQYDVQQDDA50ZWFtMzMxLWNsaWVudDCCASIwDQYJKoZIhvcN
AQEBBQADggEPADCCAQoCggEBAKXQLZ5Qbw4FyCZDeNhgcYE0aynlpTj/58fDKPur
lYrUG6d5J7O1cFzFclBEgeSxMEZ1fNHiNEvhj1+dwbAimOWtNBhC6VSVdduafbLP
z1lbasKJf35pJqepmwI9naM4EXye99gHiUPdA5lR4OP6oUkdVKfrCjQtCPFG6+Do
SXkXjxXJI0y28Ubq3r+R6NfTOuuQ6X/acj27k0TKauF0Dc2SjFVLaGHOW1DwssmG
LvLbJ2+mORxvkxdcyWr9z1wo4MeYyko2thKkY4Ov9f9NW4WFruyLZLgJQUCrLjxk
aA65/WULFEL8EpxzbBl2brXfTvPB5tdgxRjMAIhfDEPA0YkCAwEAAaOBojCBnzAJ
BgNVHRMEAjAAMB0GA1UdDgQWBBTJ0TZ+gSM88u325XfjjCEZ5BSFTjBRBgNVHSME
SjBIgBTrcUHAv6FlYYhmPUWHXFgYl9lI06EapBgwFjEUMBIGA1UEAwwLdGVhbTMz
MS1uZXSCFFDdqahU9WlQFC8pCcQqR6/XoqvrMBMGA1UdJQQMMAoGCCsGAQUFBwMC
MAsGA1UdDwQEAwIHgDANBgkqhkiG9w0BAQsFAAOCAQEAe6tZFLBSv2KsrhsP8F19
IpI4qg9WeY7DaioF64Vxqom5Ac9ZpufwwC8H15/avXFX0NLnHJZ6xAERb7NAxfC1
QtZckptaEsBPYHztcdGhNcrB/x+cJ/a/q/q7yG6mNGhhgJ5dfGvnXIxmomcbBeaR
k0jmCr9Rq6PCBgvURcNqrovc6s0hhP1pKORvOD6xYoBhIPF/RmbLL03PE5Bitibv
cMXCnec3KPEhllwW2aaaCLdXhNWKiYY2F2lEei/P0JQPo6Rl0oQItXNcVlMSAQMD
msbbNVfmndLvRbYfJhyihJG/UlbUR9d8tYDlc681p1b5JqJvGoO9VgTQeRGkHGQv
lA==
-----END CERTIFICATE-----
