Certificate:
    Data:
        Version: 3 (0x2)
        Serial Number:
            2d:aa:fb:94:3b:45:f2:b4:7b:d7:f2:c1:91:10:2b:36
        Signature Algorithm: sha256WithRSAEncryption
        Issuer: CN=team375-net
        Validity
            Not Before: Nov  4 11:35:52 2023 GMT
            Not After : Oct 19 11:35:52 2026 GMT
        Subject: CN=team375-server
        Subject Public Key Info:
            Public Key Algorithm: rsaEncryption
                Public-Key: (2048 bit)
                Modulus:
                    00:d8:b1:05:5f:a6:fb:1d:2c:af:ea:fb:7f:c3:e8:
                    06:ac:1c:11:28:91:e4:eb:ac:9b:23:f9:34:3e:96:
                    06:76:7a:8a:ea:0e:72:1c:2e:bb:fa:c5:af:8f:aa:
                    35:3c:1b:35:79:be:ce:9e:27:01:d1:52:c6:c6:cf:
                    14:27:62:0f:1a:68:8f:10:8b:8c:e9:45:ac:61:38:
                    2a:69:bd:2e:26:c6:b6:74:33:65:9e:9f:5d:e7:6e:
                    12:92:67:55:7f:fd:f9:80:56:29:52:ef:cb:b0:f2:
                    53:24:98:e7:34:72:60:aa:72:f2:19:1d:ea:61:c5:
                    f9:cc:c2:04:4b:04:60:85:3d:ec:3a:d6:e1:90:70:
                    1d:cc:5c:c0:a5:78:a8:2d:50:c9:0c:e5:99:06:b2:
                    0c:0e:0c:4a:1c:38:58:c3:b9:2b:3e:63:3d:6f:a7:
                    03:b6:b6:dd:1f:7f:60:8c:17:ea:40:27:17:1f:c4:
                    9e:79:b8:38:60:c5:fd:a3:cf:fd:87:f5:d5:07:02:
                    0f:45:61:6b:7c:c7:8f:73:a6:ad:e8:2d:f3:bd:fc:
                    d6:1d:78:fe:f2:5b:da:8f:f4:41:af:91:5d:93:c1:
                    59:ba:28:e6:d7:09:a6:ef:a1:00:12:ec:cc:9c:36:
                    ae:0a:2d:7b:ba:c6:31:d3:4e:29:e1:4a:46:fb:0b:
                    3f:59
                Exponent: 65537 (0x10001)
        X509v3 extensions:
            X509v3 Basic Constraints: 
                CA:FALSE
            X509v3 Subject Key Identifier: 
                DF:68:3B:1C:10:F9:F7:79:DE:CD:4F:96:9B:54:1C:3F:68:DB:E5:D0
            X509v3 Authority Key Identifier: 
                keyid:F1:91:27:20:12:34:04:68:0E:3E:AF:6A:E1:C4:69:1C:8E:89:3D:CF
                DirName:/CN=team375-net
                serial:5F:BF:FE:04:63:7F:49:60:06:95:D5:E0:3C:D7:31:A0:B9:9C:17:CB
            X509v3 Extended Key Usage: 
                TLS Web Server Authentication
            X509v3 Key Usage: 
                Digital Signature, Key Encipherment
            X509v3 Subject Alternative Name: 
                DNS:team375-server
    Signature Algorithm: sha256WithRSAEncryption
    Signature Value:
        86:8d:46:fb:e7:f3:d0:4d:91:c5:99:83:2d:4a:9b:f8:02:bb:
        7d:64:c8:50:41:ec:b7:8e:39:5b:6c:06:fa:eb:a2:fd:92:98:
        d9:4a:46:90:4f:88:58:53:73:f3:95:b2:3b:1d:72:ae:0d:f1:
        30:cf:5d:f6:69:fd:22:3a:8c:67:5b:24:d7:42:03:b0:38:95:
        f2:55:1e:d8:1b:5e:5e:ef:4e:d5:e1:bc:c1:08:9e:91:a5:f0:
        6e:6d:a0:e6:fc:4c:0f:82:57:af:9b:26:27:8a:7a:ca:09:62:
        01:d7:6d:1f:36:64:01:0b:60:72:b5:d5:1f:aa:cd:9a:e1:6b:
        1f:15:63:2e:b6:6d:bd:bf:17:1d:f3:cb:b4:0c:d7:2e:d1:28:
        93:66:67:1f:e2:02:39:ce:c0:7e:42:66:b0:18:25:dc:da:ad:
        b2:05:dc:15:49:21:b3:98:1f:7d:ef:f4:8d:0c:fb:1e:f4:2c:
        88:7e:fc:28:ef:d1:d6:21:02:5b:5c:15:8b:4d:ab:ba:01:af:
        f3:e9:ff:b5:ff:d3:0f:b8:53:22:d7:47:b4:69:a5:d4:c3:af:
        7a:77:09:22:9d:fb:89:85:fd:60:a8:31:4a:1c:47:f1:b2:b7:
        65:61:9d:33:a1:db:28:0c:e0:70:9b:4b:14:47:c1:d9:cb:bc:
        c2:45:aa:eb
-----BEGIN CERTIFICATE-----
MIIDdzCCAl+gAwIBAgIQLar7lDtF8rR71/LBkRArNjANBgkqhkiG9w0BAQsFADAW
MRQwEgYDVQQDDAt0ZWFtMzc1LW5ldDAeFw0yMzExMDQxMTM1NTJaFw0yNjEwMTkx
MTM1NTJaMBkxFzAVBgNVBAMMDnRlYW0zNzUtc2VydmVyMIIBIjANBgkqhkiG9w0B
AQEFAAOCAQ8AMIIBCgKCAQEA2LEFX6b7HSyv6vt/w+gGrBwRKJHk66ybI/k0PpYG
dnqK6g5yHC67+sWvj6o1PBs1eb7OnicB0VLGxs8UJ2IPGmiPEIuM6UWsYTgqab0u
Jsa2dDNlnp9d524SkmdVf/35gFYpUu/LsPJTJJjnNHJgqnLyGR3qYcX5zMIESwRg
hT3sOtbhkHAdzFzApXioLVDJDOWZBrIMDgxKHDhYw7krPmM9b6cDtrbdH39gjBfq
QCcXH8Seebg4YMX9o8/9h/XVBwIPRWFrfMePc6at6C3zvfzWHXj+8lvaj/RBr5Fd
k8FZuijm1wmm76EAEuzMnDauCi17usYx004p4UpG+ws/WQIDAQABo4G9MIG6MAkG
A1UdEwQCMAAwHQYDVR0OBBYEFN9oOxwQ+fd53s1PlptUHD9o2+XQMFEGA1UdIwRK
MEiAFPGRJyASNARoDj6vauHEaRyOiT3PoRqkGDAWMRQwEgYDVQQDDAt0ZWFtMzc1
LW5ldIIUX7/+BGN/SWAGldXgPNcxoLmcF8swEwYDVR0lBAwwCgYIKwYBBQUHAwEw
CwYDVR0PBAQDAgWgMBkGA1UdEQQSMBCCDnRlYW0zNzUtc2VydmVyMA0GCSqGSIb3
DQEBCwUAA4IBAQCGjUb75/PQTZHFmYMtSpv4Art9ZMhQQey3jjlbbAb666L9kpjZ
SkaQT4hYU3PzlbI7HXKuDfEwz132af0iOoxnWyTXQgOwOJXyVR7YG15e707V4bzB
CJ6RpfBubaDm/EwPglevmyYninrKCWIB120fNmQBC2BytdUfqs2a4WsfFWMutm29
vxcd88u0DNcu0SiTZmcf4gI5zsB+QmawGCXc2q2yBdwVSSGzmB997/SNDPse9CyI
fvwo79HWIQJbXBWLTau6Aa/z6f+1/9MPuFMi10e0aaXUw696dwkinfuJhf1gqDFK
HEfxsrdlYZ0zodsoDOBwm0sUR8HZy7zCRarr
-----END CERTIFICATE-----
