Certificate:
    Data:
        Version: 3 (0x2)
        Serial Number:
            42:29:03:9f:54:59:29:fd:23:fc:f6:b1:62:7d:92:31
        Signature Algorithm: sha256WithRSAEncryption
        Issuer: CN=team375-net
        Validity
            Not Before: Nov  4 11:35:52 2023 GMT
            Not After : Oct 19 11:35:52 2026 GMT
        Subject: CN=team375-client
        Subject Public Key Info:
            Public Key Algorithm: rsaEncryption
                Public-Key: (2048 bit)
                Modulus:
                    00:be:59:71:e4:95:53:f8:02:cd:f3:f4:e1:69:2d:
                    a4:fe:b7:ca:89:a9:ea:9e:65:9a:91:7b:dc:07:0c:
                    f1:37:77:43:75:44:f6:ba:df:41:71:de:5a:cd:8c:
                    34:ba:89:72:06:19:bc:d9:fb:f6:33:c2:cd:d6:66:
                    6c:35:e1:cc:ba:ef:8a:3e:4f:c4:09:7d:90:99:09:
                    a3:35:58:b6:43:9e:69:bb:62:fd:09:9c:34:13:b2:
                    f1:76:fa:07:27:c0:c2:68:68:95:27:bf:79:98:34:
                    d5:96:66:29:b7:af:1e:2f:f6:61:b3:26:07:be:4a:
                    d1:07:30:31:8e:fa:e7:af:54:e3:a5:b6:88:5c:34:
                    a5:d8:99:f8:4a:3d:c3:d5:37:c2:71:20:e4:b5:96:
                    3a:20:5c:86:13:87:8e:6e:d9:9b:1a:b5:10:49:73:
                    96:f2:14:16:83:38:b1:58:15:09:f5:4f:16:6d:2e:
                    cb:35:0f:b2:9a:0e:dc:3e:e3:46:40:7b:58:9b:8c:
                    43:2c:b2:1d:17:99:3d:8a:8c:87:73:b5:9c:6d:63:
                    03:09:8a:07:a4:f0:0a:81:fa:af:5a:8a:63:f4:d4:
                    f9:a2:d8:14:76:c8:80:af:fe:8b:a0:c4:d6:cd:1f:
                    84:59:46:b2:b5:ea:b6:ad:f7:30:b2:82:20:d5:ca:
                    69:61
                Exponent: 65537 (0x10001)
        X509v3 extensions:
            X509v3 Basic Constraints: 
                CA:FALSE
            X509v3 Subject Key Identifier: 
                E9:A7:1E:AD:79:8D:D0:BE:48:68:00:7F:0D:56:E5:A1:4B:04:BE:59
            X509v3 Authority Key Identifier: 
                keyid:F1:91:27:20:12:34:04:68:0E:3E:AF:6A:E1:C4:69:1C:8E:89:3D:CF
                DirName:/CN=team375-net
                serial:5F:BF:FE:04:63:7F:49:60:06:95:D5:E0:3C:D7:31:A0:B9:9C:17:CB
            X509v3 Extended Key Usage: 
                TLS Web Client Authentication
            X509v3 Key Usage: 
                Digital Signature
    Signature Algorithm: sha256WithRSAEncryption
    Signature Value:
        2f:93:4f:c4:8b:39:59:57:87:94:bf:00:a5:da:78:b9:11:04:
        88:6d:01:99:f5:a8:94:9e:cc:2f:21:43:e1:d7:bf:97:54:78:
        83:d8:24:3c:cd:0a:01:7e:2b:7b:73:40:ac:41:9f:09:b3:df:
        22:15:89:46:57:97:dd:ca:06:c3:8a:fb:c6:52:44:75:17:e1:
        3c:96:e3:c6:59:ac:63:61:8c:55:64:6f:55:94:f5:11:68:28:
        e5:c0:71:be:03:02:ba:cc:99:08:36:3f:23:11:dc:bf:31:d5:
        2e:9f:fa:c5:7b:a7:35:19:c0:b2:cf:a4:b1:7c:b7:c4:50:94:
        8b:7a:f8:48:50:42:12:1b:a6:de:be:1c:6f:b8:55:22:40:48:
        b9:b0:34:9e:65:47:d9:16:f6:54:fe:85:f8:88:58:eb:f3:45:
        2b:45:b4:10:e5:f1:4a:eb:27:9a:a7:13:0f:7c:2c:8b:99:04:
        b8:b7:87:31:85:9e:2f:94:09:9a:30:fc:0f:bf:78:8b:a3:67:
        6d:27:bb:6a:c6:41:c6:e8:7a:6e:62:d6:66:5d:10:24:78:ea:
        42:c8:52:e2:c5:0f:c0:a1:cd:00:0e:b0:6c:14:af:95:2c:d0:
        e5:80:f4:87:03:55:15:5a:f3:a1:5d:47:66:d9:97:c7:36:3a:
        d9:b9:b7:06
-----BEGIN CERTIFICATE-----
MIIDXDCCAkSgAwIBAgIQQikDn1RZKf0j/PaxYn2SMTANBgkqhkiG9w0BAQsFADAW
MRQwEgYDVQQDDAt0ZWFtMzc1LW5ldDAeFw0yMzExMDQxMTM1NTJaFw0yNjEwMTkx
MTM1NTJaMBkxFzAVBgNVBAMMDnRlYW0zNzUtY2xpZW50MIIBIjANBgkqhkiG9w0B
AQEFAAOCAQ8AMIIBCgKCAQEAvllx5JVT+ALN8/ThaS2k/rfKianqnmWakXvcBwzx
N3dDdUT2ut9Bcd5azYw0uolyBhm82fv2M8LN1mZsNeHMuu+KPk/ECX2QmQmjNVi2
Q55pu2L9CZw0E7LxdvoHJ8DCaGiVJ795mDTVlmYpt68eL/ZhsyYHvkrRBzAxjvrn
r1TjpbaIXDSl2Jn4Sj3D1TfCcSDktZY6IFyGE4eObtmbGrUQSXOW8hQWgzixWBUJ
9U8WbS7LNQ+ymg7cPuNGQHtYm4xDLLIdF5k9ioyHc7WcbWMDCYoHpPAKgfqvWopj
9NT5otgUdsiAr/6LoMTWzR+EWUayteq2rfcwsoIg1cppYQIDAQABo4GiMIGfMAkG
A1UdEwQCMAAwHQYDVR0OBBYEFOmnHq15jdC+SGgAfw1W5aFLBL5ZMFEGA1UdIwRK
MEiAFPGRJyASNARoDj6vauHEaRyOiT3PoRqkGDAWMRQwEgYDVQQDDAt0ZWFtMzc1
LW5ldIIUX7/+BGN/SWAGldXgPNcxoLmcF8swEwYDVR0lBAwwCgYIKwYBBQUHAwIw
CwYDVR0PBAQDAgeAMA0GCSqGSIb3DQEBCwUAA4IBAQAvk0/EizlZV4eUvwCl2ni5
EQSIbQGZ9aiUnswvIUPh17+XVHiD2CQ8zQoBfit7c0CsQZ8Js98iFYlGV5fdygbD
ivvGUkR1F+E8luPGWaxjYYxVZG9VlPURaCjlwHG+AwK6zJkINj8jEdy/MdUun/rF
e6c1GcCyz6SxfLfEUJSLevhIUEISG6bevhxvuFUiQEi5sDSeZUfZFvZU/oX4iFjr
80UrRbQQ5fFK6yeapxMPfCyLmQS4t4cxhZ4vlAmaMPwPv3iLo2dtJ7tqxkHG6Hpu
YtZmXRAkeOpCyFLixQ/Aoc0ADrBsFK+VLNDlgPSHA1UVWvOhXUdm2ZfHNjrZubcG
-----END CERTIFICATE-----
