Certificate:
    Data:
        Version: 3 (0x2)
        Serial Number:
            55:31:9e:66:ad:13:a4:1a:c6:2c:ed:21:5b:4a:1b:40
        Signature Algorithm: sha256WithRSAEncryption
        Issuer: CN=team375-net
        Validity
            Not Before: Nov  4 10:47:26 2023 GMT
            Not After : Oct 19 10:47:26 2026 GMT
        Subject: CN=team375-server
        Subject Public Key Info:
            Public Key Algorithm: rsaEncryption
                Public-Key: (2048 bit)
                Modulus:
                    00:a5:87:be:6f:25:67:4b:e2:78:dd:9f:bd:66:f4:
                    c9:d5:aa:4b:0e:23:d2:f4:65:94:ad:55:03:99:cf:
                    55:ed:59:04:89:20:99:fd:00:e6:0f:78:ab:19:36:
                    e2:ff:92:f8:11:5d:23:95:8c:39:b4:6c:bb:0f:06:
                    4b:f0:4f:6d:68:4a:3a:7a:30:20:b4:89:ba:3d:be:
                    da:c8:c9:7e:4a:4b:ca:8b:08:94:14:d8:86:3e:3c:
                    eb:b4:44:c6:5d:cb:ab:70:ea:08:81:1a:66:1c:ad:
                    47:a6:9f:ce:7d:d4:66:1e:04:c0:8d:37:45:6d:03:
                    b6:eb:78:79:ba:2a:05:57:75:98:2c:68:26:3d:00:
                    49:7c:24:ca:57:f7:47:f3:1d:ff:e2:51:6a:6a:55:
                    10:ca:8e:72:27:aa:57:ef:ba:ba:ba:c5:ca:7f:2f:
                    2c:c2:82:d8:07:f8:60:ce:be:d6:9f:9e:4f:82:a8:
                    0b:61:44:07:76:53:71:f4:6e:71:43:80:a2:22:18:
                    83:24:fe:1f:22:c9:79:21:14:45:09:c7:38:67:48:
                    eb:e7:07:a0:49:40:a5:a7:60:90:93:84:86:df:cf:
                    c7:59:7e:7c:fb:13:57:17:77:65:b9:f4:f7:61:c2:
                    05:62:9f:92:4e:fa:ee:ef:ea:7f:86:60:a0:e6:7b:
                    35:e3
                Exponent: 65537 (0x10001)
        X509v3 extensions:
            X509v3 Basic Constraints: 
                CA:FALSE
            X509v3 Subject Key Identifier: 
                7D:33:E0:2A:76:99:4C:8B:29:FE:D3:4B:43:2F:02:4E:D4:87:96:F5
            X509v3 Authority Key Identifier: 
                keyid:73:8F:31:9E:29:A1:DD:29:E6:EF:E8:77:49:67:3E:53:08:02:EC:5A
                DirName:/CN=team375-net
                serial:1C:94:8E:3C:A7:6E:96:1A:1A:15:60:E0:A6:6C:E3:D2:2D:C1:D4:42
            X509v3 Extended Key Usage: 
                TLS Web Server Authentication
            X509v3 Key Usage: 
                Digital Signature, Key Encipherment
            X509v3 Subject Alternative Name: 
                DNS:team375-server
    Signature Algorithm: sha256WithRSAEncryption
    Signature Value:
        67:3f:5c:d7:c5:f3:69:e1:6c:03:7b:e2:c3:03:92:fc:47:5a:
        e4:59:af:c2:7b:56:9a:f2:b6:42:c1:72:69:6c:e2:77:8d:15:
        81:0e:fe:42:7d:ac:a7:bc:a7:5e:47:e9:9b:ad:fb:7c:50:bd:
        9e:d2:24:cb:ed:53:d8:94:2c:e9:f8:a1:de:19:7a:18:0b:95:
        a7:3a:9a:af:98:4f:ee:85:cb:27:48:e4:ab:ed:e1:01:5c:59:
        3f:1d:23:ba:c3:29:27:58:4f:48:aa:49:47:6a:29:70:37:bf:
        0d:13:18:a1:6c:88:b4:36:75:40:38:ee:57:d6:2d:6c:15:79:
        38:4d:7c:c4:b2:44:a1:32:c9:69:42:40:0a:ea:7c:d0:14:1e:
        7b:00:0b:60:22:d6:43:5e:d5:c1:56:0f:85:1e:91:78:5a:4c:
        66:13:47:67:a8:f7:27:cf:fc:82:96:ca:b0:59:a3:4e:9c:4a:
        c8:5a:f6:85:48:04:ed:7e:dd:be:d8:31:d8:75:51:2b:2d:7d:
        69:ca:f3:77:70:18:91:f6:c3:43:ec:e1:9a:0c:3d:cc:b0:5a:
        03:ed:89:83:df:2c:13:16:d9:2c:43:36:32:5c:b0:08:f1:d9:
        7d:a2:59:e9:a7:af:4d:e5:df:a7:0d:47:d7:fb:6e:0d:31:7a:
        93:c7:cc:ae
-----BEGIN CERTIFICATE-----
MIIDdzCCAl+gAwIBAgIQVTGeZq0TpBrGLO0hW0obQDANBgkqhkiG9w0BAQsFADAW
MRQwEgYDVQQDDAt0ZWFtMzc1LW5ldDAeFw0yMzExMDQxMDQ3MjZaFw0yNjEwMTkx
MDQ3MjZaMBkxFzAVBgNVBAMMDnRlYW0zNzUtc2VydmVyMIIBIjANBgkqhkiG9w0B
AQEFAAOCAQ8AMIIBCgKCAQEApYe+byVnS+J43Z+9ZvTJ1apLDiPS9GWUrVUDmc9V
7VkEiSCZ/QDmD3irGTbi/5L4EV0jlYw5tGy7DwZL8E9taEo6ejAgtIm6Pb7ayMl+
SkvKiwiUFNiGPjzrtETGXcurcOoIgRpmHK1Hpp/OfdRmHgTAjTdFbQO263h5uioF
V3WYLGgmPQBJfCTKV/dH8x3/4lFqalUQyo5yJ6pX77q6usXKfy8swoLYB/hgzr7W
n55PgqgLYUQHdlNx9G5xQ4CiIhiDJP4fIsl5IRRFCcc4Z0jr5wegSUClp2CQk4SG
38/HWX58+xNXF3dlufT3YcIFYp+STvru7+p/hmCg5ns14wIDAQABo4G9MIG6MAkG
A1UdEwQCMAAwHQYDVR0OBBYEFH0z4Cp2mUyLKf7TS0MvAk7Uh5b1MFEGA1UdIwRK
MEiAFHOPMZ4pod0p5u/od0lnPlMIAuxaoRqkGDAWMRQwEgYDVQQDDAt0ZWFtMzc1
LW5ldIIUHJSOPKdulhoaFWDgpmzj0i3B1EIwEwYDVR0lBAwwCgYIKwYBBQUHAwEw
CwYDVR0PBAQDAgWgMBkGA1UdEQQSMBCCDnRlYW0zNzUtc2VydmVyMA0GCSqGSIb3
DQEBCwUAA4IBAQBnP1zXxfNp4WwDe+LDA5L8R1rkWa/Ce1aa8rZCwXJpbOJ3jRWB
Dv5CfaynvKdeR+mbrft8UL2e0iTL7VPYlCzp+KHeGXoYC5WnOpqvmE/uhcsnSOSr
7eEBXFk/HSO6wyknWE9IqklHailwN78NExihbIi0NnVAOO5X1i1sFXk4TXzEskSh
MslpQkAK6nzQFB57AAtgItZDXtXBVg+FHpF4WkxmE0dnqPcnz/yClsqwWaNOnErI
WvaFSATtft2+2DHYdVErLX1pyvN3cBiR9sND7OGaDD3MsFoD7YmD3ywTFtksQzYy
XLAI8dl9olnpp69N5d+nDUfX+24NMXqTx8yu
-----END CERTIFICATE-----
