Certificate:
    Data:
        Version: 3 (0x2)
        Serial Number:
            b6:d8:fa:f1:ce:d8:12:85:0d:80:16:aa:c6:3d:20:fe
        Signature Algorithm: sha256WithRSAEncryption
        Issuer: CN=team375-net
        Validity
            Not Before: Nov  4 10:47:26 2023 GMT
            Not After : Oct 19 10:47:26 2026 GMT
        Subject: CN=team375-client
        Subject Public Key Info:
            Public Key Algorithm: rsaEncryption
                Public-Key: (2048 bit)
                Modulus:
                    00:c3:01:1f:f0:1f:42:bc:33:53:f4:f0:7b:4e:46:
                    10:b2:2a:87:f8:c7:d8:41:fc:5f:e5:b5:55:9d:84:
                    c1:a7:58:87:d1:5f:ef:0b:7a:f4:b8:52:e8:cb:42:
                    7b:ae:00:cb:cf:00:9d:98:f5:70:56:b9:ff:95:3d:
                    41:e8:fb:d9:ac:5b:45:c8:6b:be:3a:27:15:28:7c:
                    23:f0:b7:70:95:96:54:92:fa:f9:1a:ae:03:97:2a:
                    dc:4c:fe:cd:eb:9e:53:f9:cc:fb:c8:f9:a1:79:53:
                    c2:db:00:53:1d:d8:89:78:a9:ff:e7:4e:3f:cc:3e:
                    b6:19:1c:c5:08:e3:97:6e:25:e0:25:9a:8b:60:0a:
                    38:0e:c9:46:66:af:7f:8e:70:4b:36:d1:57:a2:c1:
                    4e:7a:6e:30:96:e9:bb:dd:1b:63:07:0f:6c:11:a4:
                    4e:16:a0:82:af:27:51:9d:c6:7a:3b:bc:c5:15:32:
                    fc:30:1b:58:ee:08:d6:35:7e:cf:92:ad:76:5c:23:
                    2b:17:81:e3:19:1b:86:0a:54:cf:c8:b3:e1:d1:f8:
                    78:ed:13:b3:a4:da:fb:e6:42:93:09:25:46:15:52:
                    f3:2d:29:84:1b:41:87:11:a0:56:c6:cf:c0:b1:df:
                    7e:11:83:8f:d3:81:3d:8c:1b:2f:cb:c9:c5:7b:6e:
                    3a:29
                Exponent: 65537 (0x10001)
        X509v3 extensions:
            X509v3 Basic Constraints: 
                CA:FALSE
            X509v3 Subject Key Identifier: 
                BE:DD:6D:AC:35:66:1A:05:AD:F9:97:ED:A4:B0:6B:F7:A6:A2:65:F6
            X509v3 Authority Key Identifier: 
                keyid:73:8F:31:9E:29:A1:DD:29:E6:EF:E8:77:49:67:3E:53:08:02:EC:5A
                DirName:/CN=team375-net
                serial:1C:94:8E:3C:A7:6E:96:1A:1A:15:60:E0:A6:6C:E3:D2:2D:C1:D4:42
            X509v3 Extended Key Usage: 
                TLS Web Client Authentication
            X509v3 Key Usage: 
                Digital Signature
    Signature Algorithm: sha256WithRSAEncryption
    Signature Value:
        05:63:a3:c4:cb:6c:d9:06:6b:c4:55:3b:55:9b:20:70:74:91:
        8b:38:38:ff:66:3f:69:90:59:d5:a9:ad:57:99:9e:86:54:f9:
        76:77:81:54:ec:08:b1:31:b7:62:5a:ba:76:e4:48:8d:7a:ff:
        2d:92:88:a9:79:9f:e1:b5:45:44:b1:36:2a:2d:ea:fb:8b:bb:
        1f:46:9d:bc:47:84:47:9f:ec:2e:d5:32:e8:2d:c7:ef:61:0d:
        f2:9b:f5:f1:bf:1e:4b:fd:29:88:1b:24:de:33:f6:de:1e:1e:
        c7:10:c2:fb:4a:27:56:a4:f1:d5:f2:a0:13:f6:88:73:8c:68:
        12:7b:c7:5d:53:8c:f6:5b:c0:65:4e:38:24:30:f7:fe:1f:70:
        00:f3:6d:c1:cc:bb:16:1c:8b:32:17:1d:fd:0f:29:f5:6d:73:
        c2:ac:14:bb:bb:74:ed:5d:6b:da:ee:96:99:b2:ca:e3:cf:8b:
        28:0d:5b:c2:58:37:4a:88:ea:d7:b0:15:ce:5b:6b:84:6a:58:
        67:4c:b1:e7:44:ce:20:cd:75:15:c6:27:06:55:49:39:c9:fe:
        5d:79:9d:af:67:dc:77:e6:75:c8:5f:7e:9b:dc:83:d2:6a:b9:
        f6:7d:ef:07:27:57:e0:34:f3:1d:5f:3b:c2:56:be:f5:2d:f7:
        0b:6d:a2:5c
-----BEGIN CERTIFICATE-----
MIIDXTCCAkWgAwIBAgIRALbY+vHO2BKFDYAWqsY9IP4wDQYJKoZIhvcNAQELBQAw
FjEUMBIGA1UEAwwLdGVhbTM3NS1uZXQwHhcNMjMxMTA0MTA0NzI2WhcNMjYxMDE5
MTA0NzI2WjAZMRcwFQYDVQQDDA50ZWFtMzc1LWNsaWVudDCCASIwDQYJKoZIhvcN
AQEBBQADggEPADCCAQoCggEBAMMBH/AfQrwzU/Twe05GELIqh/jH2EH8X+W1VZ2E
wadYh9Ff7wt69LhS6MtCe64Ay88AnZj1cFa5/5U9Qej72axbRchrvjonFSh8I/C3
cJWWVJL6+RquA5cq3Ez+zeueU/nM+8j5oXlTwtsAUx3YiXip/+dOP8w+thkcxQjj
l24l4CWai2AKOA7JRmavf45wSzbRV6LBTnpuMJbpu90bYwcPbBGkThaggq8nUZ3G
eju8xRUy/DAbWO4I1jV+z5KtdlwjKxeB4xkbhgpUz8iz4dH4eO0Ts6Ta++ZCkwkl
RhVS8y0phBtBhxGgVsbPwLHffhGDj9OBPYwbL8vJxXtuOikCAwEAAaOBojCBnzAJ
BgNVHRMEAjAAMB0GA1UdDgQWBBS+3W2sNWYaBa35l+2ksGv3pqJl9jBRBgNVHSME
SjBIgBRzjzGeKaHdKebv6HdJZz5TCALsWqEapBgwFjEUMBIGA1UEAwwLdGVhbTM3
NS1uZXSCFByUjjynbpYaGhVg4KZs49ItwdRCMBMGA1UdJQQMMAoGCCsGAQUFBwMC
MAsGA1UdDwQEAwIHgDANBgkqhkiG9w0BAQsFAAOCAQEABWOjxMts2QZrxFU7VZsg
cHSRizg4/2Y/aZBZ1amtV5mehlT5dneBVOwIsTG3Ylq6duRIjXr/LZKIqXmf4bVF
RLE2Ki3q+4u7H0advEeER5/sLtUy6C3H72EN8pv18b8eS/0piBsk3jP23h4exxDC
+0onVqTx1fKgE/aIc4xoEnvHXVOM9lvAZU44JDD3/h9wAPNtwcy7FhyLMhcd/Q8p
9W1zwqwUu7t07V1r2u6WmbLK48+LKA1bwlg3Sojq17AVzltrhGpYZ0yx50TOIM11
FcYnBlVJOcn+XXmdr2fcd+Z1yF9+m9yD0mq59n3vBydX4DTzHV87wla+9S33C22i
XA==
-----END CERTIFICATE-----
