Certificate:
    Data:
        Version: 3 (0x2)
        Serial Number:
            c9:9d:1d:1e:68:7c:fc:4e:84:60:d7:e7:d4:e2:b6:3a
        Signature Algorithm: sha256WithRSAEncryption
        Issuer: CN=team274-net
        Validity
            Not Before: Nov  3 20:44:18 2023 GMT
            Not After : Oct 18 20:44:18 2026 GMT
        Subject: CN=team274-server
        Subject Public Key Info:
            Public Key Algorithm: rsaEncryption
                Public-Key: (2048 bit)
                Modulus:
                    00:a2:c8:f6:be:01:ba:1d:87:cf:3d:96:29:5b:e4:
                    b7:d2:5c:d2:f1:74:5b:28:37:85:08:ba:6c:ec:55:
                    8d:8c:05:06:29:81:8d:c8:2b:c4:87:25:7f:15:53:
                    9f:9f:13:59:3e:96:49:7a:a6:fd:bd:96:61:07:7f:
                    7d:15:f7:c8:da:c1:08:98:04:8e:35:50:1d:c5:07:
                    f1:83:7d:d4:3f:5d:bc:8c:5f:9b:8b:18:63:a9:4e:
                    1b:8e:e8:4a:9e:7e:99:3c:7c:59:f8:3e:60:11:73:
                    27:90:83:f2:cd:4e:f6:b4:fd:77:87:fd:5f:53:c5:
                    da:6e:e8:10:dc:3d:e0:df:f0:96:03:73:80:7b:e8:
                    88:9b:ae:86:79:5d:a2:33:ef:53:5b:0b:e6:c5:eb:
                    91:ec:0f:50:b1:ea:c9:27:04:63:86:ea:2d:74:88:
                    8d:65:4f:b8:d2:bc:48:f1:55:15:50:69:28:84:e0:
                    65:ea:6f:6d:29:5d:47:bf:0a:9e:0a:e4:60:ec:a3:
                    6b:1f:29:dc:82:33:8e:db:98:ba:7b:05:2d:69:3e:
                    d0:56:b6:52:e7:4c:11:bf:b6:7d:8a:81:e8:4d:18:
                    76:00:4a:d4:30:88:d2:1f:16:b7:59:c5:8c:e4:db:
                    2d:e8:10:8e:fc:0d:f9:5f:0a:39:f6:31:50:ff:7f:
                    b3:d1
                Exponent: 65537 (0x10001)
        X509v3 extensions:
            X509v3 Basic Constraints: 
                CA:FALSE
            X509v3 Subject Key Identifier: 
                B9:0F:1B:71:58:67:7A:13:99:18:A8:73:02:6A:76:55:DE:2F:D4:BE
            X509v3 Authority Key Identifier: 
                keyid:8E:7C:61:54:A5:92:83:42:7C:85:8C:FD:4B:0E:87:D1:80:41:E0:BF
                DirName:/CN=team274-net
                serial:42:11:57:52:E4:03:37:99:DB:70:E5:FD:44:EE:54:00:46:2C:D7:C7
            X509v3 Extended Key Usage: 
                TLS Web Server Authentication
            X509v3 Key Usage: 
                Digital Signature, Key Encipherment
            X509v3 Subject Alternative Name: 
                DNS:team274-server
    Signature Algorithm: sha256WithRSAEncryption
    Signature Value:
        16:db:1a:ed:78:e5:f0:e2:7e:01:b5:9a:53:b4:48:9d:86:34:
        3f:e1:70:db:45:6c:92:e4:95:3b:77:37:22:85:1b:eb:69:a1:
        14:45:08:b9:52:f5:b1:b4:85:29:3e:dc:7e:10:ca:7a:ba:45:
        95:7a:22:8f:f9:ec:e7:4d:ed:27:5a:d3:7a:b7:41:5c:8e:5e:
        0d:c1:41:6a:bd:8a:46:ae:90:ed:f1:b3:b5:df:d5:cf:29:a9:
        a0:e5:fe:48:d0:21:fc:75:ff:32:ca:bf:d2:cd:61:be:c2:fa:
        c8:eb:89:f3:9c:a8:35:6c:ca:c0:18:31:05:75:fd:41:28:9c:
        3c:a2:b7:8b:c8:d1:62:d8:71:40:db:e6:35:69:21:6f:e2:f3:
        da:74:0e:ab:cd:e1:cd:06:11:bc:a3:18:d3:f5:1e:9a:58:6e:
        10:66:19:3f:68:99:40:c3:07:df:fd:23:ec:42:bb:d9:ec:11:
        9d:19:51:7d:b3:3f:40:55:f3:4a:75:7b:4f:dd:7a:6b:5d:8f:
        a4:bb:3d:74:c1:2f:e4:99:8c:74:37:fd:ea:08:54:35:81:ed:
        17:0b:e5:78:d0:1e:8d:45:b6:49:09:3d:5f:8b:bb:cf:1f:b0:
        25:e1:5f:b1:7d:e1:e5:2b:96:e7:07:37:8f:1a:26:fa:45:91:
        51:b5:8f:66
-----BEGIN CERTIFICATE-----
MIIDeDCCAmCgAwIBAgIRAMmdHR5ofPxOhGDX59TitjowDQYJKoZIhvcNAQELBQAw
FjEUMBIGA1UEAwwLdGVhbTI3NC1uZXQwHhcNMjMxMTAzMjA0NDE4WhcNMjYxMDE4
MjA0NDE4WjAZMRcwFQYDVQQDDA50ZWFtMjc0LXNlcnZlcjCCASIwDQYJKoZIhvcN
AQEBBQADggEPADCCAQoCggEBAKLI9r4Buh2Hzz2WKVvkt9Jc0vF0Wyg3hQi6bOxV
jYwFBimBjcgrxIclfxVTn58TWT6WSXqm/b2WYQd/fRX3yNrBCJgEjjVQHcUH8YN9
1D9dvIxfm4sYY6lOG47oSp5+mTx8Wfg+YBFzJ5CD8s1O9rT9d4f9X1PF2m7oENw9
4N/wlgNzgHvoiJuuhnldojPvU1sL5sXrkewPULHqyScEY4bqLXSIjWVPuNK8SPFV
FVBpKITgZepvbSldR78KngrkYOyjax8p3IIzjtuYunsFLWk+0Fa2UudMEb+2fYqB
6E0YdgBK1DCI0h8Wt1nFjOTbLegQjvwN+V8KOfYxUP9/s9ECAwEAAaOBvTCBujAJ
BgNVHRMEAjAAMB0GA1UdDgQWBBS5DxtxWGd6E5kYqHMCanZV3i/UvjBRBgNVHSME
SjBIgBSOfGFUpZKDQnyFjP1LDofRgEHgv6EapBgwFjEUMBIGA1UEAwwLdGVhbTI3
NC1uZXSCFEIRV1LkAzeZ23Dl/UTuVABGLNfHMBMGA1UdJQQMMAoGCCsGAQUFBwMB
MAsGA1UdDwQEAwIFoDAZBgNVHREEEjAQgg50ZWFtMjc0LXNlcnZlcjANBgkqhkiG
9w0BAQsFAAOCAQEAFtsa7Xjl8OJ+AbWaU7RInYY0P+Fw20VskuSVO3c3IoUb62mh
FEUIuVL1sbSFKT7cfhDKerpFlXoij/ns503tJ1rTerdBXI5eDcFBar2KRq6Q7fGz
td/VzympoOX+SNAh/HX/Msq/0s1hvsL6yOuJ85yoNWzKwBgxBXX9QSicPKK3i8jR
YthxQNvmNWkhb+Lz2nQOq83hzQYRvKMY0/UemlhuEGYZP2iZQMMH3/0j7EK72ewR
nRlRfbM/QFXzSnV7T916a12PpLs9dMEv5JmMdDf96ghUNYHtFwvleNAejUW2SQk9
X4u7zx+wJeFfsX3h5SuW5wc3jxom+kWRUbWPZg==
-----END CERTIFICATE-----
