Certificate:
    Data:
        Version: 3 (0x2)
        Serial Number:
            15:3f:bd:4a:5d:b8:24:5d:cb:fe:61:78:08:0a:d0:9e
        Signature Algorithm: sha256WithRSAEncryption
        Issuer: CN=team451-net
        Validity
            Not Before: Nov  4 10:48:40 2023 GMT
            Not After : Oct 19 10:48:40 2026 GMT
        Subject: CN=team451-client
        Subject Public Key Info:
            Public Key Algorithm: rsaEncryption
                Public-Key: (2048 bit)
                Modulus:
                    00:b4:fd:87:25:92:e3:7b:84:d6:51:e8:31:94:d1:
                    72:a2:55:ae:47:e3:6e:45:82:86:c2:7c:85:c6:8a:
                    56:57:fa:ec:05:16:f0:6c:be:43:38:da:f3:96:aa:
                    ca:fe:49:72:70:40:d9:39:86:e4:4b:60:42:e0:01:
                    79:50:ce:21:57:12:aa:06:89:27:4e:6c:ce:5a:c6:
                    aa:bc:30:8a:3b:8f:98:6a:0d:79:83:fe:48:14:92:
                    f7:a8:63:66:bf:91:3a:27:93:ee:f4:19:23:9d:8a:
                    9f:3f:22:c4:f2:52:89:1c:46:cf:69:b6:8d:aa:69:
                    4c:89:e2:56:da:64:98:c0:e9:b5:e7:5b:f4:2d:21:
                    82:56:5d:bf:fe:27:2a:47:09:bf:ce:3f:0a:fa:57:
                    f0:00:34:d0:00:53:0d:10:fa:52:fb:f0:ff:c2:53:
                    f0:6f:59:ac:6c:a8:27:8b:cd:c2:be:47:b6:c1:96:
                    0c:a0:6b:ac:06:99:b8:8c:1e:92:af:18:75:9d:fe:
                    96:a2:a9:9e:48:e1:95:6a:f1:62:45:2a:ca:4c:c2:
                    de:88:f0:67:3f:2e:93:3e:e5:9f:1a:e8:46:d6:e7:
                    44:5e:44:58:99:4e:9f:16:03:15:fc:0d:ab:d1:1a:
                    2f:1b:11:e4:96:c0:d5:0b:fb:93:79:1b:b2:cc:27:
                    4d:81
                Exponent: 65537 (0x10001)
        X509v3 extensions:
            X509v3 Basic Constraints: 
                CA:FALSE
            X509v3 Subject Key Identifier: 
                78:71:FD:21:63:24:C4:ED:A0:18:74:93:2D:C5:59:0D:29:C7:85:78
            X509v3 Authority Key Identifier: 
                keyid:01:40:EC:D6:77:66:13:96:7A:7B:97:26:34:75:74:AD:96:96:51:9E
                DirName:/CN=team451-net
                serial:2F:50:8D:77:B6:74:DB:60:14:EF:B6:50:25:6F:A5:C6:1D:BC:81:C8
            X509v3 Extended Key Usage: 
                TLS Web Client Authentication
            X509v3 Key Usage: 
                Digital Signature
    Signature Algorithm: sha256WithRSAEncryption
    Signature Value:
        41:44:91:d8:90:0c:93:1b:fd:6a:56:8a:d6:33:07:34:06:77:
        53:1a:f5:cd:8a:a5:80:80:5f:c6:de:f9:fa:1f:e5:b9:23:b8:
        3c:c7:92:34:d6:01:25:08:fc:64:54:d1:38:f3:37:4b:2e:82:
        8b:0d:69:7b:94:16:e1:49:2a:80:4f:9f:ec:93:e8:ec:c8:a5:
        7c:00:0c:ba:8b:3d:e6:87:fe:76:6f:09:9e:b6:6b:e8:4b:08:
        e5:d2:fa:f3:c0:03:80:d4:d1:b4:87:68:5b:eb:36:e1:f7:f0:
        14:a5:bc:93:61:51:09:ea:f1:4f:67:67:85:23:22:18:1f:b5:
        c7:4e:91:01:ee:64:65:33:60:65:2f:e2:f3:81:67:af:f4:01:
        5a:c1:ce:f0:bb:5b:98:e4:e4:8b:09:c6:e2:c0:f9:8f:a8:84:
        b3:44:69:fc:1d:f5:92:05:b4:70:eb:7d:04:ac:b7:2a:a3:70:
        5b:f4:6a:8b:aa:a7:01:32:3c:48:17:49:ec:6f:22:a8:10:54:
        f8:fc:87:15:e1:5b:f3:21:05:e5:fe:45:fd:67:2a:56:4a:fa:
        29:f9:0a:9a:5a:10:f1:fe:2b:d6:1d:f3:c0:2e:39:8e:b2:15:
        3d:21:93:33:cc:f9:29:23:41:ce:e7:c3:95:9d:3b:1e:20:de:
        ba:50:70:60
-----BEGIN CERTIFICATE-----
MIIDXDCCAkSgAwIBAgIQFT+9Sl24JF3L/mF4CArQnjANBgkqhkiG9w0BAQsFADAW
MRQwEgYDVQQDDAt0ZWFtNDUxLW5ldDAeFw0yMzExMDQxMDQ4NDBaFw0yNjEwMTkx
MDQ4NDBaMBkxFzAVBgNVBAMMDnRlYW00NTEtY2xpZW50MIIBIjANBgkqhkiG9w0B
AQEFAAOCAQ8AMIIBCgKCAQEAtP2HJZLje4TWUegxlNFyolWuR+NuRYKGwnyFxopW
V/rsBRbwbL5DONrzlqrK/klycEDZOYbkS2BC4AF5UM4hVxKqBoknTmzOWsaqvDCK
O4+Yag15g/5IFJL3qGNmv5E6J5Pu9BkjnYqfPyLE8lKJHEbPabaNqmlMieJW2mSY
wOm151v0LSGCVl2//icqRwm/zj8K+lfwADTQAFMNEPpS+/D/wlPwb1msbKgni83C
vke2wZYMoGusBpm4jB6Srxh1nf6WoqmeSOGVavFiRSrKTMLeiPBnPy6TPuWfGuhG
1udEXkRYmU6fFgMV/A2r0RovGxHklsDVC/uTeRuyzCdNgQIDAQABo4GiMIGfMAkG
A1UdEwQCMAAwHQYDVR0OBBYEFHhx/SFjJMTtoBh0ky3FWQ0px4V4MFEGA1UdIwRK
MEiAFAFA7NZ3ZhOWenuXJjR1dK2WllGeoRqkGDAWMRQwEgYDVQQDDAt0ZWFtNDUx
LW5ldIIUL1CNd7Z022AU77ZQJW+lxh28gcgwEwYDVR0lBAwwCgYIKwYBBQUHAwIw
CwYDVR0PBAQDAgeAMA0GCSqGSIb3DQEBCwUAA4IBAQBBRJHYkAyTG/1qVorWMwc0
BndTGvXNiqWAgF/G3vn6H+W5I7g8x5I01gElCPxkVNE48zdLLoKLDWl7lBbhSSqA
T5/sk+jsyKV8AAy6iz3mh/52bwmetmvoSwjl0vrzwAOA1NG0h2hb6zbh9/AUpbyT
YVEJ6vFPZ2eFIyIYH7XHTpEB7mRlM2BlL+LzgWev9AFawc7wu1uY5OSLCcbiwPmP
qISzRGn8HfWSBbRw630ErLcqo3Bb9GqLqqcBMjxIF0nsbyKoEFT4/IcV4VvzIQXl
/kX9ZypWSvop+QqaWhDx/ivWHfPALjmOshU9IZMzzPkpI0HO58OVnTseIN66UHBg
-----END CERTIFICATE-----
