Certificate:
    Data:
        Version: 3 (0x2)
        Serial Number:
            b3:eb:91:f0:03:98:bc:bb:23:0d:d8:87:d4:2f:34:7c
        Signature Algorithm: sha256WithRSAEncryption
        Issuer: CN=team451-net
        Validity
            Not Before: Nov  4 10:48:40 2023 GMT
            Not After : Oct 19 10:48:40 2026 GMT
        Subject: CN=team451-server
        Subject Public Key Info:
            Public Key Algorithm: rsaEncryption
                Public-Key: (2048 bit)
                Modulus:
                    00:9c:0e:2a:b3:d4:1f:6b:84:ca:cb:ff:cc:2f:20:
                    48:9d:05:f7:85:d6:95:fa:ac:9f:b6:51:9c:10:96:
                    12:9d:59:c6:6a:01:aa:9c:a1:7c:08:79:7c:c4:7e:
                    4b:e0:03:af:cc:c0:64:ec:72:bc:98:2e:e1:ca:ad:
                    50:8b:0d:f5:f0:45:45:77:93:1b:f5:7e:07:1a:c4:
                    46:01:42:8d:60:47:5f:73:43:e2:1e:d2:2d:ea:bd:
                    0c:55:34:ad:cc:ac:13:b9:e0:3c:a7:f9:af:91:53:
                    05:9d:ae:fd:09:46:9a:59:67:b5:ac:67:4e:9d:ab:
                    54:74:23:57:e2:35:90:ea:c2:1a:47:5a:fa:f6:e2:
                    83:be:06:f1:c4:56:8c:d8:aa:75:21:b7:33:26:71:
                    26:e3:0f:b7:98:cc:81:ee:9a:48:08:15:fd:1c:3f:
                    a1:f3:8d:59:72:1d:3b:ac:32:5c:f9:ab:c7:55:3c:
                    2b:8b:0d:e1:ac:98:d1:43:e5:0f:44:0e:6a:f1:d4:
                    9c:60:c6:eb:da:9d:03:c7:d6:f0:86:4a:f8:29:81:
                    b3:7e:8e:7c:6b:99:0f:44:64:9e:8a:2d:3e:d7:ea:
                    b7:b9:e8:88:c8:e3:64:74:00:c0:2b:ba:23:1e:b0:
                    c2:0d:ab:ca:34:3c:58:38:72:b4:12:68:78:40:68:
                    7d:53
                Exponent: 65537 (0x10001)
        X509v3 extensions:
            X509v3 Basic Constraints: 
                CA:FALSE
            X509v3 Subject Key Identifier: 
                50:C3:C1:ED:B5:E9:DE:8E:1C:72:53:70:CC:33:FA:11:A0:51:7B:55
            X509v3 Authority Key Identifier: 
                keyid:01:40:EC:D6:77:66:13:96:7A:7B:97:26:34:75:74:AD:96:96:51:9E
                DirName:/CN=team451-net
                serial:2F:50:8D:77:B6:74:DB:60:14:EF:B6:50:25:6F:A5:C6:1D:BC:81:C8
            X509v3 Extended Key Usage: 
                TLS Web Server Authentication
            X509v3 Key Usage: 
                Digital Signature, Key Encipherment
            X509v3 Subject Alternative Name: 
                DNS:team451-server
    Signature Algorithm: sha256WithRSAEncryption
    Signature Value:
        7a:7f:1d:6e:06:a0:c8:a8:09:8c:e0:f1:9f:55:af:4c:8b:80:
        40:29:94:45:b5:0f:50:e4:30:73:71:52:07:90:b9:9a:47:1a:
        d8:10:40:03:23:8a:9d:af:1b:4d:1c:ee:41:42:9b:46:77:b7:
        15:8f:b8:a5:08:e3:ba:b3:75:4c:e1:c9:5f:9b:6e:9a:fa:a7:
        e7:fc:3c:a0:26:81:3a:21:45:f8:99:0a:d2:a7:95:36:17:ea:
        b1:07:e1:3e:58:db:be:df:b3:77:fc:7a:9d:52:18:e1:d5:58:
        ef:40:cb:a6:48:3c:fc:a0:c3:25:c2:73:b3:f9:10:29:12:d5:
        a4:f0:e5:ae:10:a6:8e:5d:b4:82:03:a8:69:bf:3a:aa:83:a9:
        34:c1:e9:d6:ec:fd:97:e2:82:cb:04:6b:56:61:42:c7:18:62:
        e7:14:eb:1e:7e:7d:45:a3:90:16:45:e5:02:30:d0:b0:5e:42:
        ff:a9:5a:c5:16:cd:57:fc:b6:13:6c:bf:9e:fa:c5:78:a3:47:
        f0:44:8f:4a:b0:e6:0a:30:49:8a:51:92:19:7b:c6:57:74:6f:
        9a:8f:af:72:2a:c9:3a:54:9c:91:32:a9:94:65:90:e3:f5:02:
        82:46:6b:88:12:bb:99:93:5b:df:ca:cd:6a:cf:43:09:57:57:
        68:ec:15:43
-----BEGIN CERTIFICATE-----
MIIDeDCCAmCgAwIBAgIRALPrkfADmLy7Iw3Yh9QvNHwwDQYJKoZIhvcNAQELBQAw
FjEUMBIGA1UEAwwLdGVhbTQ1MS1uZXQwHhcNMjMxMTA0MTA0ODQwWhcNMjYxMDE5
MTA0ODQwWjAZMRcwFQYDVQQDDA50ZWFtNDUxLXNlcnZlcjCCASIwDQYJKoZIhvcN
AQEBBQADggEPADCCAQoCggEBAJwOKrPUH2uEysv/zC8gSJ0F94XWlfqsn7ZRnBCW
Ep1ZxmoBqpyhfAh5fMR+S+ADr8zAZOxyvJgu4cqtUIsN9fBFRXeTG/V+BxrERgFC
jWBHX3ND4h7SLeq9DFU0rcysE7ngPKf5r5FTBZ2u/QlGmllntaxnTp2rVHQjV+I1
kOrCGkda+vbig74G8cRWjNiqdSG3MyZxJuMPt5jMge6aSAgV/Rw/ofONWXIdO6wy
XPmrx1U8K4sN4ayY0UPlD0QOavHUnGDG69qdA8fW8IZK+CmBs36OfGuZD0Rknoot
Ptfqt7noiMjjZHQAwCu6Ix6wwg2ryjQ8WDhytBJoeEBofVMCAwEAAaOBvTCBujAJ
BgNVHRMEAjAAMB0GA1UdDgQWBBRQw8HttenejhxyU3DMM/oRoFF7VTBRBgNVHSME
SjBIgBQBQOzWd2YTlnp7lyY0dXStlpZRnqEapBgwFjEUMBIGA1UEAwwLdGVhbTQ1
MS1uZXSCFC9QjXe2dNtgFO+2UCVvpcYdvIHIMBMGA1UdJQQMMAoGCCsGAQUFBwMB
MAsGA1UdDwQEAwIFoDAZBgNVHREEEjAQgg50ZWFtNDUxLXNlcnZlcjANBgkqhkiG
9w0BAQsFAAOCAQEAen8dbgagyKgJjODxn1WvTIuAQCmURbUPUOQwc3FSB5C5mkca
2BBAAyOKna8bTRzuQUKbRne3FY+4pQjjurN1TOHJX5tumvqn5/w8oCaBOiFF+JkK
0qeVNhfqsQfhPljbvt+zd/x6nVIY4dVY70DLpkg8/KDDJcJzs/kQKRLVpPDlrhCm
jl20ggOoab86qoOpNMHp1uz9l+KCywRrVmFCxxhi5xTrHn59RaOQFkXlAjDQsF5C
/6laxRbNV/y2E2y/nvrFeKNH8ESPSrDmCjBJilGSGXvGV3Rvmo+vcirJOlSckTKp
lGWQ4/UCgkZriBK7mZNb38rNas9DCVdXaOwVQw==
-----END CERTIFICATE-----
