Certificate:
    Data:
        Version: 3 (0x2)
        Serial Number:
            c7:10:2a:d9:ea:a1:3b:66:7d:b0:71:38:f5:e9:3a:c9
        Signature Algorithm: sha256WithRSAEncryption
        Issuer: CN=team451-net
        Validity
            Not Before: Nov  3 20:47:27 2023 GMT
            Not After : Oct 18 20:47:27 2026 GMT
        Subject: CN=team451-client
        Subject Public Key Info:
            Public Key Algorithm: rsaEncryption
                Public-Key: (2048 bit)
                Modulus:
                    00:ce:1d:ab:90:a4:61:88:5b:a7:d6:29:65:cc:68:
                    c1:ef:42:1a:08:81:81:5c:3d:a7:be:dd:00:7d:bb:
                    ff:b3:96:11:be:46:a2:a2:a5:f8:1e:15:fd:d9:03:
                    8d:e8:a3:1f:e0:a8:00:13:2e:9c:f2:e2:19:b3:fd:
                    3c:16:d8:a7:1e:86:e1:ef:0e:62:f9:40:60:89:ae:
                    57:25:3a:f5:ac:38:0a:d5:3b:b8:8b:48:4f:93:fe:
                    90:9a:4b:dc:2b:14:86:1c:d0:5e:b1:25:65:b5:06:
                    7f:2d:94:4a:b7:42:fa:7f:64:a8:ce:b1:b0:36:d4:
                    88:5b:86:54:a4:a7:be:f9:60:1b:ae:d6:e5:e2:13:
                    6d:f6:94:78:90:3f:44:1a:7c:a0:25:b0:ed:3e:d3:
                    66:30:74:50:51:6d:d7:a6:0f:7c:ee:dc:f5:d8:c8:
                    22:73:9e:e2:f9:3d:5f:cc:0d:95:2c:a6:ce:aa:f1:
                    a8:b9:67:43:97:75:fb:3b:80:eb:36:7c:d5:89:4c:
                    79:c8:6a:66:9b:3b:bb:97:f0:bc:db:64:38:50:fb:
                    27:54:62:5f:a2:cf:db:88:0f:dd:1a:98:8d:07:3e:
                    73:c6:1b:9f:ba:aa:5f:d9:9c:a9:78:f3:b5:03:8a:
                    e2:4b:f7:99:c1:31:16:53:e9:f0:0c:3c:27:dc:b2:
                    49:65
                Exponent: 65537 (0x10001)
        X509v3 extensions:
            X509v3 Basic Constraints: 
                CA:FALSE
            X509v3 Subject Key Identifier: 
                7F:F4:50:52:CA:01:8D:38:73:CE:E4:59:36:EF:82:19:EA:E7:9F:E4
            X509v3 Authority Key Identifier: 
                keyid:37:75:8E:02:86:3E:E3:86:4B:83:34:D3:1C:EB:2B:AD:7C:79:F8:A1
                DirName:/CN=team451-net
                serial:38:04:EE:D9:11:1B:C7:BD:62:68:6F:4E:7B:77:8F:86:29:5F:03:07
            X509v3 Extended Key Usage: 
                TLS Web Client Authentication
            X509v3 Key Usage: 
                Digital Signature
    Signature Algorithm: sha256WithRSAEncryption
    Signature Value:
        54:6a:e5:50:20:88:08:40:50:7c:01:ec:1a:a0:32:23:76:0b:
        38:63:90:2e:2d:f4:04:d6:f6:a4:34:4a:5b:de:1f:cb:1c:6f:
        b4:08:40:d4:89:78:23:41:2c:c5:1c:f4:1d:91:a6:77:48:d4:
        a2:39:b6:df:16:d2:4e:41:d3:7f:91:9c:fe:61:be:51:6a:42:
        42:25:5e:2c:46:3a:35:dc:52:ed:1c:9a:df:c2:a8:db:be:ff:
        61:c7:be:69:6a:8c:0a:76:1b:c3:c5:54:1d:55:32:d8:ff:e0:
        72:c9:c5:09:79:fe:27:6b:9e:35:84:9b:60:64:a9:bb:dd:de:
        38:bc:47:cb:68:67:e9:57:81:99:ff:54:dd:67:0c:14:b9:64:
        25:fa:a3:d7:4b:3c:bd:8b:6e:4b:bb:69:41:03:71:40:93:62:
        ad:63:92:17:46:fd:0d:18:f2:8f:96:51:10:d2:5a:09:94:c6:
        df:06:9c:cb:17:a1:ee:6f:6b:b9:b5:36:ff:3f:c4:d6:32:fb:
        fd:b6:42:60:a2:dd:c0:73:47:3b:61:84:43:96:e5:f8:ce:3f:
        c9:e2:68:c2:c4:ea:54:86:cd:2f:d4:0c:a0:f7:59:99:4c:d0:
        27:ab:34:3b:4b:df:24:95:b2:aa:4d:17:d3:e5:9c:0e:12:91:
        2e:0a:48:ff
-----BEGIN CERTIFICATE-----
MIIDXTCCAkWgAwIBAgIRAMcQKtnqoTtmfbBxOPXpOskwDQYJKoZIhvcNAQELBQAw
FjEUMBIGA1UEAwwLdGVhbTQ1MS1uZXQwHhcNMjMxMTAzMjA0NzI3WhcNMjYxMDE4
MjA0NzI3WjAZMRcwFQYDVQQDDA50ZWFtNDUxLWNsaWVudDCCASIwDQYJKoZIhvcN
AQEBBQADggEPADCCAQoCggEBAM4dq5CkYYhbp9YpZcxowe9CGgiBgVw9p77dAH27
/7OWEb5GoqKl+B4V/dkDjeijH+CoABMunPLiGbP9PBbYpx6G4e8OYvlAYImuVyU6
9aw4CtU7uItIT5P+kJpL3CsUhhzQXrElZbUGfy2USrdC+n9kqM6xsDbUiFuGVKSn
vvlgG67W5eITbfaUeJA/RBp8oCWw7T7TZjB0UFFt16YPfO7c9djIInOe4vk9X8wN
lSymzqrxqLlnQ5d1+zuA6zZ81YlMechqZps7u5fwvNtkOFD7J1RiX6LP24gP3RqY
jQc+c8Ybn7qqX9mcqXjztQOK4kv3mcExFlPp8Aw8J9yySWUCAwEAAaOBojCBnzAJ
BgNVHRMEAjAAMB0GA1UdDgQWBBR/9FBSygGNOHPO5Fk274IZ6uef5DBRBgNVHSME
SjBIgBQ3dY4Chj7jhkuDNNMc6yutfHn4oaEapBgwFjEUMBIGA1UEAwwLdGVhbTQ1
MS1uZXSCFDgE7tkRG8e9YmhvTnt3j4YpXwMHMBMGA1UdJQQMMAoGCCsGAQUFBwMC
MAsGA1UdDwQEAwIHgDANBgkqhkiG9w0BAQsFAAOCAQEAVGrlUCCICEBQfAHsGqAy
I3YLOGOQLi30BNb2pDRKW94fyxxvtAhA1Il4I0EsxRz0HZGmd0jUojm23xbSTkHT
f5Gc/mG+UWpCQiVeLEY6NdxS7Rya38Ko277/Yce+aWqMCnYbw8VUHVUy2P/gcsnF
CXn+J2ueNYSbYGSpu93eOLxHy2hn6VeBmf9U3WcMFLlkJfqj10s8vYtuS7tpQQNx
QJNirWOSF0b9DRjyj5ZRENJaCZTG3wacyxeh7m9rubU2/z/E1jL7/bZCYKLdwHNH
O2GEQ5bl+M4/yeJowsTqVIbNL9QMoPdZmUzQJ6s0O0vfJJWyqk0X0+WcDhKRLgpI
/w==
-----END CERTIFICATE-----
