Certificate:
    Data:
        Version: 3 (0x2)
        Serial Number:
            ea:e5:45:6d:af:9c:8b:19:25:4f:f7:1b:a2:89:32:48
        Signature Algorithm: sha256WithRSAEncryption
        Issuer: CN=team451-net
        Validity
            Not Before: Nov  4 11:37:38 2023 GMT
            Not After : Oct 19 11:37:38 2026 GMT
        Subject: CN=team451-client
        Subject Public Key Info:
            Public Key Algorithm: rsaEncryption
                Public-Key: (2048 bit)
                Modulus:
                    00:b5:1e:e0:ec:62:15:26:c6:c1:93:36:11:1e:a6:
                    57:e3:e1:cb:9c:db:0e:83:51:8a:96:cf:05:31:04:
                    7f:32:b6:a3:56:68:a1:6e:60:1d:8c:5f:71:78:1c:
                    a1:d5:cb:db:9a:6a:be:cb:b9:d9:8b:2f:9b:f5:85:
                    b6:59:64:48:25:58:72:b4:ce:33:08:de:71:b4:17:
                    74:1e:ab:0c:ed:25:be:ff:c4:0b:ee:f8:d0:a4:90:
                    2b:88:37:f8:7e:ee:9b:5c:5e:3e:fb:b8:ab:ac:7f:
                    d0:1d:4e:49:1c:01:2e:50:69:fd:b5:71:29:b2:00:
                    ba:31:7e:7c:80:b6:a2:81:61:de:e4:01:fe:fe:15:
                    ca:d1:81:51:16:87:ae:eb:eb:3e:42:9f:28:47:23:
                    68:d0:9a:07:82:11:1f:56:fa:c0:2b:3e:66:98:83:
                    2a:ef:2c:68:0c:ab:42:28:1f:96:0d:2b:36:57:6e:
                    ac:74:2a:68:29:21:cd:57:5d:4e:57:6f:f6:b6:59:
                    15:b3:64:68:98:b0:f6:5f:0d:79:da:24:73:ee:6c:
                    eb:34:44:db:e1:a5:6d:dc:e5:88:69:eb:92:a5:73:
                    6d:aa:ff:6c:6d:05:a3:34:59:c4:8b:e3:f4:4a:5c:
                    40:ad:19:ac:33:ea:f9:38:51:88:b2:6f:37:9e:00:
                    07:c1
                Exponent: 65537 (0x10001)
        X509v3 extensions:
            X509v3 Basic Constraints: 
                CA:FALSE
            X509v3 Subject Key Identifier: 
                A7:11:EC:70:EC:EB:EF:D4:4E:67:D3:A5:A7:3A:28:32:E9:24:93:B2
            X509v3 Authority Key Identifier: 
                keyid:1E:EE:B9:C2:AB:FC:1B:1B:69:72:C5:F4:8F:8E:C9:CA:5C:18:3C:3B
                DirName:/CN=team451-net
                serial:02:5D:7E:01:B8:61:F7:E1:9C:EF:3B:D6:AA:37:CA:74:D0:1A:4B:39
            X509v3 Extended Key Usage: 
                TLS Web Client Authentication
            X509v3 Key Usage: 
                Digital Signature
    Signature Algorithm: sha256WithRSAEncryption
    Signature Value:
        56:0b:7a:9b:27:25:88:aa:46:a1:1e:26:c7:46:87:13:38:c1:
        ff:53:fa:d5:cd:ea:4c:d9:6f:70:2d:61:a2:64:56:97:e2:63:
        ac:1b:a2:e4:83:a6:6f:5b:ae:6a:db:97:57:e9:82:43:83:fd:
        6d:83:8c:64:70:09:5a:1a:f6:07:07:10:6b:a8:b5:ca:40:09:
        a9:9a:3d:d9:e1:49:a1:ec:0f:ae:50:52:76:68:33:7e:7c:e5:
        36:2a:04:82:b1:47:97:b4:3e:e1:f4:d2:d1:3c:cc:2d:9a:10:
        4c:11:ec:49:ab:d5:4a:2c:30:28:d7:06:38:c6:3a:b4:5a:af:
        5f:14:52:c8:51:c9:07:34:ee:f3:84:ea:78:8b:08:df:55:cb:
        48:d2:e6:bf:0b:f1:a5:be:ba:eb:ed:78:88:93:f6:8a:78:c6:
        60:d5:33:45:f5:68:f8:91:92:ab:e9:50:79:ee:52:3f:b8:48:
        5c:f3:ea:ec:ea:e8:db:fc:26:24:73:8c:57:11:69:b0:de:d4:
        f1:28:02:4f:0f:36:d3:b2:5f:e9:35:71:e5:2e:90:29:5b:d5:
        6c:e7:c0:4e:4d:ff:cc:ce:52:5e:27:ff:75:c3:89:5c:1f:32:
        38:36:37:ba:91:02:13:3e:76:18:35:10:d3:ad:4f:10:87:60:
        ac:d7:f8:11
-----BEGIN CERTIFICATE-----
MIIDXTCCAkWgAwIBAgIRAOrlRW2vnIsZJU/3G6KJMkgwDQYJKoZIhvcNAQELBQAw
FjEUMBIGA1UEAwwLdGVhbTQ1MS1uZXQwHhcNMjMxMTA0MTEzNzM4WhcNMjYxMDE5
MTEzNzM4WjAZMRcwFQYDVQQDDA50ZWFtNDUxLWNsaWVudDCCASIwDQYJKoZIhvcN
AQEBBQADggEPADCCAQoCggEBALUe4OxiFSbGwZM2ER6mV+Phy5zbDoNRipbPBTEE
fzK2o1ZooW5gHYxfcXgcodXL25pqvsu52Ysvm/WFtllkSCVYcrTOMwjecbQXdB6r
DO0lvv/EC+740KSQK4g3+H7um1xePvu4q6x/0B1OSRwBLlBp/bVxKbIAujF+fIC2
ooFh3uQB/v4VytGBURaHruvrPkKfKEcjaNCaB4IRH1b6wCs+ZpiDKu8saAyrQigf
lg0rNldurHQqaCkhzVddTldv9rZZFbNkaJiw9l8Nedokc+5s6zRE2+GlbdzliGnr
kqVzbar/bG0FozRZxIvj9EpcQK0ZrDPq+ThRiLJvN54AB8ECAwEAAaOBojCBnzAJ
BgNVHRMEAjAAMB0GA1UdDgQWBBSnEexw7Ovv1E5n06WnOigy6SSTsjBRBgNVHSME
SjBIgBQe7rnCq/wbG2lyxfSPjsnKXBg8O6EapBgwFjEUMBIGA1UEAwwLdGVhbTQ1
MS1uZXSCFAJdfgG4YffhnO871qo3ynTQGks5MBMGA1UdJQQMMAoGCCsGAQUFBwMC
MAsGA1UdDwQEAwIHgDANBgkqhkiG9w0BAQsFAAOCAQEAVgt6mycliKpGoR4mx0aH
EzjB/1P61c3qTNlvcC1homRWl+JjrBui5IOmb1uuatuXV+mCQ4P9bYOMZHAJWhr2
BwcQa6i1ykAJqZo92eFJoewPrlBSdmgzfnzlNioEgrFHl7Q+4fTS0TzMLZoQTBHs
SavVSiwwKNcGOMY6tFqvXxRSyFHJBzTu84TqeIsI31XLSNLmvwvxpb666+14iJP2
injGYNUzRfVo+JGSq+lQee5SP7hIXPPq7Oro2/wmJHOMVxFpsN7U8SgCTw8207Jf
6TVx5S6QKVvVbOfATk3/zM5SXif/dcOJXB8yODY3upECEz52GDUQ061PEIdgrNf4
EQ==
-----END CERTIFICATE-----
