Certificate:
    Data:
        Version: 3 (0x2)
        Serial Number:
            4b:b4:6f:43:a8:68:5e:88:a4:2c:7d:94:8a:9d:d1:66
        Signature Algorithm: sha256WithRSAEncryption
        Issuer: CN=team388-net
        Validity
            Not Before: Nov  4 11:36:13 2023 GMT
            Not After : Oct 19 11:36:13 2026 GMT
        Subject: CN=team388-server
        Subject Public Key Info:
            Public Key Algorithm: rsaEncryption
                Public-Key: (2048 bit)
                Modulus:
                    00:9f:48:24:e8:ab:48:3d:0a:bb:4d:5d:2b:d7:68:
                    92:b6:af:1d:41:f0:bc:45:5c:d5:1c:da:41:b1:32:
                    21:19:3f:e6:9f:91:26:33:75:1d:2f:1d:f2:19:a6:
                    5f:54:02:1c:db:6c:d5:d3:12:e4:ec:98:eb:ac:76:
                    b8:60:65:78:a3:5e:e1:f0:b4:25:5e:16:81:14:a4:
                    c0:f6:70:4c:7e:84:6e:44:70:a1:47:f4:2a:c9:d6:
                    2f:e9:f9:d0:bf:71:1b:8f:ed:e9:e0:41:7d:af:75:
                    3c:c0:32:5a:66:57:3e:eb:f0:19:bf:5a:b7:51:ad:
                    a8:53:05:cd:ac:25:21:6a:60:63:57:6b:77:48:a6:
                    9e:8c:35:6f:1b:36:d3:e6:7d:40:de:6b:92:ef:ba:
                    83:99:30:d9:cc:7d:4f:fa:bf:0e:65:c1:bb:7b:6b:
                    9f:b2:2f:a8:e5:19:34:a6:67:fe:6a:45:03:e4:fc:
                    1b:20:a0:07:ce:30:86:89:90:49:08:3b:11:e8:8d:
                    08:b3:77:61:22:c6:0b:fd:71:5a:b5:5c:5f:d2:1c:
                    18:99:81:db:a3:5e:58:95:a6:46:a1:93:cc:31:80:
                    f7:85:8e:13:31:d3:04:54:5b:13:6e:e3:e1:a6:22:
                    f3:be:fc:ad:16:03:34:34:2a:ee:ca:19:8a:80:9d:
                    48:5d
                Exponent: 65537 (0x10001)
        X509v3 extensions:
            X509v3 Basic Constraints: 
                CA:FALSE
            X509v3 Subject Key Identifier: 
                65:B2:E0:43:EA:D1:EF:7D:A5:16:1B:5D:18:34:2A:D6:D7:8E:B7:45
            X509v3 Authority Key Identifier: 
                keyid:80:7D:11:98:76:58:29:49:16:BB:61:1F:BC:BB:99:46:EB:F1:7A:EA
                DirName:/CN=team388-net
                serial:77:9B:67:4B:C8:18:23:9F:83:C8:4A:32:70:C5:87:C1:34:8B:A3:A2
            X509v3 Extended Key Usage: 
                TLS Web Server Authentication
            X509v3 Key Usage: 
                Digital Signature, Key Encipherment
            X509v3 Subject Alternative Name: 
                DNS:team388-server
    Signature Algorithm: sha256WithRSAEncryption
    Signature Value:
        56:df:66:11:b7:ec:7a:60:d1:4d:f6:49:55:1d:3b:36:fa:e2:
        29:65:db:c4:2f:28:68:f4:7d:8e:c4:3e:ee:6f:ad:ce:26:4f:
        6f:e3:c6:6d:a4:03:61:4e:52:f9:f7:77:68:a7:81:f3:92:9f:
        62:0f:95:f8:bb:fb:6c:55:f6:98:d8:2c:99:be:03:f6:4d:92:
        4c:ab:7a:42:8a:05:82:86:ca:c6:4a:99:7e:f5:97:ad:f7:eb:
        3e:ff:97:b4:82:3b:43:11:c4:a5:34:53:ba:9a:45:a1:0e:b4:
        2b:0e:4f:59:8c:45:7e:28:60:7a:19:fb:a6:49:11:3e:15:6f:
        2b:3b:10:7e:d2:c1:2d:20:9b:0a:a7:71:ee:45:02:7f:3e:a7:
        7e:e3:72:50:ce:3e:27:79:f9:19:c3:6f:7d:c0:9a:0d:36:04:
        68:bf:5b:3b:88:ab:51:db:aa:6a:52:e2:7d:27:12:c9:b1:e5:
        03:f4:41:ab:6d:6d:91:37:a8:37:56:37:c6:00:01:30:03:30:
        18:a1:e8:97:c2:8a:12:79:a6:1a:8e:ae:2b:1c:81:48:90:3e:
        58:b8:1a:49:53:30:9c:26:58:3a:01:50:7f:e1:d7:e3:4e:46:
        4e:26:da:8e:8e:07:db:e0:fd:b5:17:c1:06:61:b3:01:a4:e7:
        68:26:46:f6
-----BEGIN CERTIFICATE-----
MIIDdzCCAl+gAwIBAgIQS7RvQ6hoXoikLH2Uip3RZjANBgkqhkiG9w0BAQsFADAW
MRQwEgYDVQQDDAt0ZWFtMzg4LW5ldDAeFw0yMzExMDQxMTM2MTNaFw0yNjEwMTkx
MTM2MTNaMBkxFzAVBgNVBAMMDnRlYW0zODgtc2VydmVyMIIBIjANBgkqhkiG9w0B
AQEFAAOCAQ8AMIIBCgKCAQEAn0gk6KtIPQq7TV0r12iStq8dQfC8RVzVHNpBsTIh
GT/mn5EmM3UdLx3yGaZfVAIc22zV0xLk7JjrrHa4YGV4o17h8LQlXhaBFKTA9nBM
foRuRHChR/QqydYv6fnQv3Ebj+3p4EF9r3U8wDJaZlc+6/AZv1q3Ua2oUwXNrCUh
amBjV2t3SKaejDVvGzbT5n1A3muS77qDmTDZzH1P+r8OZcG7e2ufsi+o5Rk0pmf+
akUD5PwbIKAHzjCGiZBJCDsR6I0Is3dhIsYL/XFatVxf0hwYmYHbo15YlaZGoZPM
MYD3hY4TMdMEVFsTbuPhpiLzvvytFgM0NCruyhmKgJ1IXQIDAQABo4G9MIG6MAkG
A1UdEwQCMAAwHQYDVR0OBBYEFGWy4EPq0e99pRYbXRg0KtbXjrdFMFEGA1UdIwRK
MEiAFIB9EZh2WClJFrthH7y7mUbr8XrqoRqkGDAWMRQwEgYDVQQDDAt0ZWFtMzg4
LW5ldIIUd5tnS8gYI5+DyEoycMWHwTSLo6IwEwYDVR0lBAwwCgYIKwYBBQUHAwEw
CwYDVR0PBAQDAgWgMBkGA1UdEQQSMBCCDnRlYW0zODgtc2VydmVyMA0GCSqGSIb3
DQEBCwUAA4IBAQBW32YRt+x6YNFN9klVHTs2+uIpZdvELyho9H2OxD7ub63OJk9v
48ZtpANhTlL593dop4Hzkp9iD5X4u/tsVfaY2CyZvgP2TZJMq3pCigWChsrGSpl+
9Zet9+s+/5e0gjtDEcSlNFO6mkWhDrQrDk9ZjEV+KGB6GfumSRE+FW8rOxB+0sEt
IJsKp3HuRQJ/Pqd+43JQzj4nefkZw299wJoNNgRov1s7iKtR26pqUuJ9JxLJseUD
9EGrbW2RN6g3VjfGAAEwAzAYoeiXwooSeaYajq4rHIFIkD5YuBpJUzCcJlg6AVB/
4dfjTkZOJtqOjgfb4P21F8EGYbMBpOdoJkb2
-----END CERTIFICATE-----
