Certificate:
    Data:
        Version: 3 (0x2)
        Serial Number:
            dc:d1:fd:fc:e9:42:45:ec:42:fa:3e:a1:32:9a:23:7b
        Signature Algorithm: sha256WithRSAEncryption
        Issuer: CN=team388-net
        Validity
            Not Before: Nov  3 20:46:15 2023 GMT
            Not After : Oct 18 20:46:15 2026 GMT
        Subject: CN=team388-server
        Subject Public Key Info:
            Public Key Algorithm: rsaEncryption
                Public-Key: (2048 bit)
                Modulus:
                    00:b9:89:af:65:fb:3e:f7:5e:75:94:bc:3b:53:55:
                    05:82:61:cb:46:09:44:cb:0a:51:fc:4c:53:3a:3c:
                    64:0c:8b:0d:43:1a:fa:25:10:04:98:d4:d2:85:21:
                    1d:33:6a:97:d2:58:be:33:50:93:d5:9d:83:98:34:
                    52:b1:1f:fb:6c:62:aa:dc:7b:7a:0b:63:9a:67:b6:
                    8a:cb:09:eb:c2:56:dc:6f:46:68:97:ae:7b:04:78:
                    4a:93:a1:6b:74:a4:5f:4d:c9:5b:06:ff:5d:4b:4a:
                    a8:b4:14:3f:ef:53:79:f8:c9:6b:82:20:f4:3e:2e:
                    85:d5:20:28:93:ca:d2:d7:ec:95:ff:4b:f6:2c:ee:
                    a2:16:5f:1f:7a:cf:35:b1:31:7c:49:46:0c:29:eb:
                    b1:3e:f0:6d:96:f8:11:eb:53:49:63:99:bb:e9:eb:
                    50:57:95:78:55:9d:99:5e:62:5e:ad:48:f9:b5:4b:
                    d2:c9:3e:ed:60:44:c9:d7:38:74:3c:a3:b2:e3:bc:
                    f3:69:5a:2c:d6:6a:37:c7:98:68:c8:e3:e3:d8:bf:
                    27:c5:cd:e6:8b:d1:5d:63:b1:d0:65:cb:7b:f7:aa:
                    18:07:37:10:84:0d:48:01:86:3f:a4:bc:ee:6f:05:
                    a5:8f:66:67:8d:26:94:83:df:c7:79:a9:17:86:1d:
                    64:43
                Exponent: 65537 (0x10001)
        X509v3 extensions:
            X509v3 Basic Constraints: 
                CA:FALSE
            X509v3 Subject Key Identifier: 
                A8:7C:A5:83:82:B9:B8:49:27:D3:73:87:EF:CE:DE:73:C5:4E:58:B4
            X509v3 Authority Key Identifier: 
                keyid:CD:2C:93:16:63:D4:5C:E8:54:4D:09:B1:F4:A1:45:C9:E7:C0:B3:D6
                DirName:/CN=team388-net
                serial:6D:98:34:93:20:07:22:7B:76:04:D8:A8:BE:2E:C6:4A:F9:2A:48:EC
            X509v3 Extended Key Usage: 
                TLS Web Server Authentication
            X509v3 Key Usage: 
                Digital Signature, Key Encipherment
            X509v3 Subject Alternative Name: 
                DNS:team388-server
    Signature Algorithm: sha256WithRSAEncryption
    Signature Value:
        33:29:23:6b:10:a7:cc:9c:f6:dc:3c:3a:9d:f1:06:dd:1b:21:
        8b:b7:73:a8:61:e0:be:a6:23:c5:f4:cc:4c:6c:8d:ff:73:dc:
        0a:80:8d:f2:c9:a5:84:50:00:af:73:84:79:fd:58:ec:b4:44:
        23:f3:ec:2a:c9:3a:45:db:0b:b4:d7:94:3c:69:0a:68:f6:da:
        fb:00:8d:79:4e:36:62:d1:a0:4a:b8:b1:36:78:3b:49:5a:0f:
        39:15:54:27:2c:a2:a5:38:a5:d5:f7:cd:3d:ae:a5:6b:2a:8a:
        62:24:ee:82:ae:2a:a2:cb:d3:11:27:e4:fe:eb:08:89:5d:71:
        97:9a:d7:66:7e:97:64:b0:71:7e:ac:f5:cb:23:10:bc:8a:e4:
        20:ff:57:52:6e:0d:20:ce:b3:5a:84:23:eb:a7:47:56:c4:2a:
        8b:da:bc:94:e8:63:fa:e2:79:64:4f:b7:85:da:80:23:26:85:
        4e:4f:d0:fd:20:bc:66:77:2e:c2:f8:68:bb:12:4b:c1:52:6d:
        1d:57:b3:64:a5:38:e3:b8:84:bf:12:37:d1:6a:9b:5b:d8:ca:
        5c:19:cf:71:ce:01:92:b5:ea:20:49:7f:0d:9a:d2:4d:7c:ae:
        3b:e5:75:a0:3a:4f:b1:c5:66:4f:02:85:7c:6a:f0:1d:f1:6d:
        6b:a4:88:02
-----BEGIN CERTIFICATE-----
MIIDeDCCAmCgAwIBAgIRANzR/fzpQkXsQvo+oTKaI3swDQYJKoZIhvcNAQELBQAw
FjEUMBIGA1UEAwwLdGVhbTM4OC1uZXQwHhcNMjMxMTAzMjA0NjE1WhcNMjYxMDE4
MjA0NjE1WjAZMRcwFQYDVQQDDA50ZWFtMzg4LXNlcnZlcjCCASIwDQYJKoZIhvcN
AQEBBQADggEPADCCAQoCggEBALmJr2X7PvdedZS8O1NVBYJhy0YJRMsKUfxMUzo8
ZAyLDUMa+iUQBJjU0oUhHTNql9JYvjNQk9Wdg5g0UrEf+2xiqtx7egtjmme2issJ
68JW3G9GaJeuewR4SpOha3SkX03JWwb/XUtKqLQUP+9TefjJa4Ig9D4uhdUgKJPK
0tfslf9L9izuohZfH3rPNbExfElGDCnrsT7wbZb4EetTSWOZu+nrUFeVeFWdmV5i
Xq1I+bVL0sk+7WBEydc4dDyjsuO882laLNZqN8eYaMjj49i/J8XN5ovRXWOx0GXL
e/eqGAc3EIQNSAGGP6S87m8FpY9mZ40mlIPfx3mpF4YdZEMCAwEAAaOBvTCBujAJ
BgNVHRMEAjAAMB0GA1UdDgQWBBSofKWDgrm4SSfTc4fvzt5zxU5YtDBRBgNVHSME
SjBIgBTNLJMWY9Rc6FRNCbH0oUXJ58Cz1qEapBgwFjEUMBIGA1UEAwwLdGVhbTM4
OC1uZXSCFG2YNJMgByJ7dgTYqL4uxkr5KkjsMBMGA1UdJQQMMAoGCCsGAQUFBwMB
MAsGA1UdDwQEAwIFoDAZBgNVHREEEjAQgg50ZWFtMzg4LXNlcnZlcjANBgkqhkiG
9w0BAQsFAAOCAQEAMykjaxCnzJz23Dw6nfEG3Rshi7dzqGHgvqYjxfTMTGyN/3Pc
CoCN8smlhFAAr3OEef1Y7LREI/PsKsk6RdsLtNeUPGkKaPba+wCNeU42YtGgSrix
Nng7SVoPORVUJyyipTil1ffNPa6layqKYiTugq4qosvTESfk/usIiV1xl5rXZn6X
ZLBxfqz1yyMQvIrkIP9XUm4NIM6zWoQj66dHVsQqi9q8lOhj+uJ5ZE+3hdqAIyaF
Tk/Q/SC8ZncuwvhouxJLwVJtHVezZKU447iEvxI30WqbW9jKXBnPcc4BkrXqIEl/
DZrSTXyuO+V1oDpPscVmTwKFfGrwHfFta6SIAg==
-----END CERTIFICATE-----
