Certificate:
    Data:
        Version: 3 (0x2)
        Serial Number:
            1f:47:97:3d:d2:60:09:29:9b:a8:5f:05:e3:c9:2e:31
        Signature Algorithm: sha256WithRSAEncryption
        Issuer: CN=team330-net
        Validity
            Not Before: Nov  4 11:34:45 2023 GMT
            Not After : Oct 19 11:34:45 2026 GMT
        Subject: CN=team330-server
        Subject Public Key Info:
            Public Key Algorithm: rsaEncryption
                Public-Key: (2048 bit)
                Modulus:
                    00:ab:15:48:02:d6:f7:81:bc:25:3e:1f:80:34:a8:
                    dc:66:c3:c3:a5:5f:95:d3:17:32:33:44:eb:d7:b1:
                    9d:04:67:fc:53:71:a4:60:f7:b9:f1:9f:15:ad:ed:
                    2f:11:98:65:4e:0f:ff:2b:a1:b6:34:9b:e4:46:10:
                    41:31:b8:43:9b:e7:79:e1:f1:e2:e9:d6:1e:0c:b9:
                    cd:d5:61:11:57:bd:1d:4d:4f:e6:ca:a1:5f:6d:bd:
                    9d:45:0e:8f:af:80:12:69:b0:f7:89:dc:f5:81:2e:
                    80:5b:d2:9a:1a:9e:97:53:5c:ee:d6:c8:d1:3b:a9:
                    2c:2e:c2:2c:55:f4:8e:d1:5b:d9:e0:8d:77:c5:82:
                    f4:e6:b9:0c:94:53:ee:96:26:1a:a1:fe:94:4d:55:
                    56:43:ea:e0:4c:ab:5e:e9:ba:f4:d5:cd:1f:5b:0c:
                    75:7f:fd:c5:ee:e9:23:4b:fe:ea:66:3d:c3:fa:a9:
                    6f:bc:df:3f:54:9e:5a:14:44:00:4e:37:e5:b9:f7:
                    72:16:be:0f:f5:ff:6f:68:4d:bb:ea:3f:ba:3a:89:
                    c6:c5:7b:ab:33:49:c0:29:40:6c:30:ab:55:44:2a:
                    c3:a7:b3:cc:41:55:91:81:03:97:d8:7b:de:aa:8d:
                    58:47:e0:80:a5:32:13:fc:c8:f4:0b:80:34:8c:21:
                    e5:f3
                Exponent: 65537 (0x10001)
        X509v3 extensions:
            X509v3 Basic Constraints: 
                CA:FALSE
            X509v3 Subject Key Identifier: 
                B5:F2:68:49:F2:89:FB:EB:36:4E:81:10:1E:CE:53:89:8E:FE:4E:56
            X509v3 Authority Key Identifier: 
                keyid:7D:BA:13:C2:AE:A4:1C:25:0A:35:77:6E:E0:3C:CA:CB:F9:93:CB:F3
                DirName:/CN=team330-net
                serial:09:04:AB:DF:24:5E:72:14:1A:41:72:1C:45:7A:78:A6:C7:AC:73:D5
            X509v3 Extended Key Usage: 
                TLS Web Server Authentication
            X509v3 Key Usage: 
                Digital Signature, Key Encipherment
            X509v3 Subject Alternative Name: 
                DNS:team330-server
    Signature Algorithm: sha256WithRSAEncryption
    Signature Value:
        a1:26:a5:d0:15:d0:4b:4a:1e:e1:33:f5:68:9b:bc:76:d0:0c:
        17:ab:1a:4d:42:e0:d0:96:00:6b:8c:b8:3c:c1:4f:a4:31:05:
        15:c0:1f:03:24:9f:84:30:cf:cf:b7:9c:e9:43:7b:52:5f:32:
        8f:52:8c:39:5e:ea:1f:cf:6f:6f:96:c7:a5:20:ae:59:29:18:
        b1:ae:89:b4:7d:ea:07:ec:64:b3:65:f9:fd:58:4c:a3:97:f4:
        3e:59:50:08:5f:b7:ab:ef:75:50:9b:47:e6:ff:0a:f3:fa:79:
        70:a2:47:bc:95:4c:4b:73:d0:34:77:dc:b4:81:a3:2d:d5:ca:
        f4:fb:e5:b2:fe:a1:43:8a:4b:88:37:74:ef:d5:09:44:fd:af:
        18:a1:0b:fc:91:d1:6e:03:31:88:31:c5:75:30:1c:cb:43:eb:
        62:c2:90:81:c9:8a:85:bd:10:e1:0e:f4:1e:33:da:7d:cf:59:
        04:b2:d5:2d:d8:0a:79:71:a3:a4:56:3b:5d:df:18:c9:db:b5:
        10:13:c4:fd:a2:c5:97:fa:4f:ba:82:83:47:05:d1:66:85:0a:
        2d:b6:7c:59:ac:6a:12:34:f3:93:cc:3b:f2:67:dc:97:66:68:
        03:24:3a:46:b2:51:c6:bf:83:51:bb:83:82:75:d3:50:d5:59:
        4b:68:81:05
-----BEGIN CERTIFICATE-----
MIIDdzCCAl+gAwIBAgIQH0eXPdJgCSmbqF8F48kuMTANBgkqhkiG9w0BAQsFADAW
MRQwEgYDVQQDDAt0ZWFtMzMwLW5ldDAeFw0yMzExMDQxMTM0NDVaFw0yNjEwMTkx
MTM0NDVaMBkxFzAVBgNVBAMMDnRlYW0zMzAtc2VydmVyMIIBIjANBgkqhkiG9w0B
AQEFAAOCAQ8AMIIBCgKCAQEAqxVIAtb3gbwlPh+ANKjcZsPDpV+V0xcyM0Tr17Gd
BGf8U3GkYPe58Z8Vre0vEZhlTg//K6G2NJvkRhBBMbhDm+d54fHi6dYeDLnN1WER
V70dTU/myqFfbb2dRQ6Pr4ASabD3idz1gS6AW9KaGp6XU1zu1sjRO6ksLsIsVfSO
0VvZ4I13xYL05rkMlFPuliYaof6UTVVWQ+rgTKte6br01c0fWwx1f/3F7ukjS/7q
Zj3D+qlvvN8/VJ5aFEQATjflufdyFr4P9f9vaE276j+6OonGxXurM0nAKUBsMKtV
RCrDp7PMQVWRgQOX2Hveqo1YR+CApTIT/Mj0C4A0jCHl8wIDAQABo4G9MIG6MAkG
A1UdEwQCMAAwHQYDVR0OBBYEFLXyaEnyifvrNk6BEB7OU4mO/k5WMFEGA1UdIwRK
MEiAFH26E8KupBwlCjV3buA8ysv5k8vzoRqkGDAWMRQwEgYDVQQDDAt0ZWFtMzMw
LW5ldIIUCQSr3yRechQaQXIcRXp4psesc9UwEwYDVR0lBAwwCgYIKwYBBQUHAwEw
CwYDVR0PBAQDAgWgMBkGA1UdEQQSMBCCDnRlYW0zMzAtc2VydmVyMA0GCSqGSIb3
DQEBCwUAA4IBAQChJqXQFdBLSh7hM/Vom7x20AwXqxpNQuDQlgBrjLg8wU+kMQUV
wB8DJJ+EMM/Pt5zpQ3tSXzKPUow5Xuofz29vlselIK5ZKRixrom0feoH7GSzZfn9
WEyjl/Q+WVAIX7er73VQm0fm/wrz+nlwoke8lUxLc9A0d9y0gaMt1cr0++Wy/qFD
ikuIN3Tv1QlE/a8YoQv8kdFuAzGIMcV1MBzLQ+tiwpCByYqFvRDhDvQeM9p9z1kE
stUt2Ap5caOkVjtd3xjJ27UQE8T9osWX+k+6goNHBdFmhQottnxZrGoSNPOTzDvy
Z9yXZmgDJDpGslHGv4NRu4OCddNQ1VlLaIEF
-----END CERTIFICATE-----
