Certificate:
    Data:
        Version: 3 (0x2)
        Serial Number:
            91:f1:f7:18:56:8c:fb:37:53:6c:05:9a:b4:18:90:a7
        Signature Algorithm: sha256WithRSAEncryption
        Issuer: CN=team330-net
        Validity
            Not Before: Nov  4 10:46:40 2023 GMT
            Not After : Oct 19 10:46:40 2026 GMT
        Subject: CN=team330-server
        Subject Public Key Info:
            Public Key Algorithm: rsaEncryption
                Public-Key: (2048 bit)
                Modulus:
                    00:d1:67:80:fc:bb:b9:28:c4:c7:71:b4:6f:84:a4:
                    a0:cc:10:27:11:1c:c5:fc:0f:9d:2d:c9:44:64:12:
                    a6:38:3d:aa:3c:f6:52:a2:0c:aa:42:62:74:91:0b:
                    51:01:e6:b3:06:b1:63:b7:b5:d3:07:fb:11:b5:b8:
                    ca:f6:26:df:51:81:04:19:7d:ab:fd:19:12:6e:72:
                    16:6d:24:4d:08:fe:86:8e:a3:c1:a2:d1:4a:7d:00:
                    74:18:c8:0f:77:08:86:05:d9:47:cf:9a:1f:c3:3c:
                    d9:a4:aa:34:52:44:20:f9:25:fa:5f:cf:b0:75:f3:
                    ff:2d:c1:8e:91:9a:6e:0e:79:75:ab:33:48:0c:67:
                    f3:c4:d7:48:3a:c3:df:ff:24:e8:96:87:b1:fb:27:
                    5c:30:d1:04:51:fc:d7:9c:4f:c6:49:5b:07:f4:60:
                    ce:ba:ab:71:25:5e:9e:d0:af:31:e6:f1:1c:14:b2:
                    0b:97:bf:c7:f7:76:14:30:e7:15:ca:3a:3c:4d:25:
                    a3:d5:6e:1d:d5:97:97:30:23:93:ed:02:c3:d6:22:
                    d2:0d:2d:6d:37:c9:68:9f:9d:8f:82:09:7f:ef:f4:
                    53:58:31:d5:93:33:3f:54:54:bd:b2:9a:54:c0:51:
                    0e:df:8e:7c:4a:af:2f:d9:78:b6:54:1c:93:84:37:
                    06:0d
                Exponent: 65537 (0x10001)
        X509v3 extensions:
            X509v3 Basic Constraints: 
                CA:FALSE
            X509v3 Subject Key Identifier: 
                C9:00:82:FA:16:86:A9:76:92:D0:B3:45:B2:42:0D:0E:B8:AA:88:A2
            X509v3 Authority Key Identifier: 
                keyid:8F:A3:DD:62:BB:86:65:C1:D4:FB:FF:E1:C9:BA:5D:F7:5A:90:54:71
                DirName:/CN=team330-net
                serial:3B:5E:8F:CB:C8:D1:2F:9C:CE:70:29:0E:A3:DC:89:B3:0B:28:63:A6
            X509v3 Extended Key Usage: 
                TLS Web Server Authentication
            X509v3 Key Usage: 
                Digital Signature, Key Encipherment
            X509v3 Subject Alternative Name: 
                DNS:team330-server
    Signature Algorithm: sha256WithRSAEncryption
    Signature Value:
        3b:ca:9c:3c:16:bb:9f:7a:e4:05:9d:2c:61:84:d5:b6:0c:35:
        61:9c:f0:90:99:a6:c1:b2:d2:d8:14:02:24:06:c8:5b:d6:d2:
        1b:d5:16:0e:d7:15:0b:9b:2a:91:90:f2:f0:93:06:bc:5e:0d:
        36:eb:e0:f3:0c:c6:a6:93:2a:52:68:52:83:9a:70:1e:09:db:
        6e:66:60:d1:10:8d:e7:b4:09:e3:8d:12:01:e7:2b:5f:4e:ff:
        ca:0b:d3:2c:78:48:b2:ab:04:68:39:bc:18:76:55:a9:ab:d5:
        03:a4:61:7f:76:60:85:71:c9:e8:93:91:b4:3d:51:e0:c8:50:
        e0:8d:aa:9c:1e:9e:be:9e:65:81:68:38:be:87:6b:7d:6b:a5:
        98:f2:98:ad:22:04:4e:da:e2:0d:fd:58:a3:fd:4d:b6:30:39:
        07:c8:a5:70:7e:b3:a9:62:b8:42:73:e9:c8:66:60:cf:5c:7c:
        dd:f4:91:29:11:fd:e8:5b:62:f2:d8:05:29:7e:7e:9a:cf:b5:
        80:bd:6f:26:f4:19:80:ab:9e:85:fc:57:4f:13:4a:07:65:60:
        d8:be:db:95:03:75:d3:99:40:cd:0e:09:d2:0c:8f:3e:f9:58:
        3c:13:35:4f:90:c3:74:b5:07:fc:85:d9:8e:82:fa:c9:a6:56:
        20:d5:3b:12
-----BEGIN CERTIFICATE-----
MIIDeDCCAmCgAwIBAgIRAJHx9xhWjPs3U2wFmrQYkKcwDQYJKoZIhvcNAQELBQAw
FjEUMBIGA1UEAwwLdGVhbTMzMC1uZXQwHhcNMjMxMTA0MTA0NjQwWhcNMjYxMDE5
MTA0NjQwWjAZMRcwFQYDVQQDDA50ZWFtMzMwLXNlcnZlcjCCASIwDQYJKoZIhvcN
AQEBBQADggEPADCCAQoCggEBANFngPy7uSjEx3G0b4SkoMwQJxEcxfwPnS3JRGQS
pjg9qjz2UqIMqkJidJELUQHmswaxY7e10wf7EbW4yvYm31GBBBl9q/0ZEm5yFm0k
TQj+ho6jwaLRSn0AdBjID3cIhgXZR8+aH8M82aSqNFJEIPkl+l/PsHXz/y3BjpGa
bg55daszSAxn88TXSDrD3/8k6JaHsfsnXDDRBFH815xPxklbB/RgzrqrcSVentCv
MebxHBSyC5e/x/d2FDDnFco6PE0lo9VuHdWXlzAjk+0Cw9Yi0g0tbTfJaJ+dj4IJ
f+/0U1gx1ZMzP1RUvbKaVMBRDt+OfEqvL9l4tlQck4Q3Bg0CAwEAAaOBvTCBujAJ
BgNVHRMEAjAAMB0GA1UdDgQWBBTJAIL6FoapdpLQs0WyQg0OuKqIojBRBgNVHSME
SjBIgBSPo91iu4ZlwdT7/+HJul33WpBUcaEapBgwFjEUMBIGA1UEAwwLdGVhbTMz
MC1uZXSCFDtej8vI0S+cznApDqPcibMLKGOmMBMGA1UdJQQMMAoGCCsGAQUFBwMB
MAsGA1UdDwQEAwIFoDAZBgNVHREEEjAQgg50ZWFtMzMwLXNlcnZlcjANBgkqhkiG
9w0BAQsFAAOCAQEAO8qcPBa7n3rkBZ0sYYTVtgw1YZzwkJmmwbLS2BQCJAbIW9bS
G9UWDtcVC5sqkZDy8JMGvF4NNuvg8wzGppMqUmhSg5pwHgnbbmZg0RCN57QJ440S
AecrX07/ygvTLHhIsqsEaDm8GHZVqavVA6Rhf3ZghXHJ6JORtD1R4MhQ4I2qnB6e
vp5lgWg4vodrfWulmPKYrSIETtriDf1Yo/1NtjA5B8ilcH6zqWK4QnPpyGZgz1x8
3fSRKRH96Fti8tgFKX5+ms+1gL1vJvQZgKuehfxXTxNKB2Vg2L7blQN105lAzQ4J
0gyPPvlYPBM1T5DDdLUH/IXZjoL6yaZWINU7Eg==
-----END CERTIFICATE-----
