Certificate:
    Data:
        Version: 3 (0x2)
        Serial Number:
            ad:77:db:d7:18:be:8a:d3:df:77:c1:2d:eb:b3:36:ab
        Signature Algorithm: sha256WithRSAEncryption
        Issuer: CN=team330-net
        Validity
            Not Before: Nov  4 10:46:40 2023 GMT
            Not After : Oct 19 10:46:40 2026 GMT
        Subject: CN=team330-client
        Subject Public Key Info:
            Public Key Algorithm: rsaEncryption
                Public-Key: (2048 bit)
                Modulus:
                    00:aa:40:d1:16:0e:e1:27:c1:ba:c1:11:5f:94:74:
                    18:39:a0:b9:3b:d4:14:d1:94:cc:93:30:70:4e:d8:
                    22:08:6a:b5:f7:6a:6b:c0:64:5b:c1:e3:91:d3:93:
                    1e:dd:e6:7d:79:62:ac:5d:be:c1:2d:64:1d:ae:02:
                    09:44:ea:7a:47:ec:62:95:82:b2:74:cc:3b:78:e7:
                    71:75:55:5f:99:31:1f:e9:26:ce:c4:d2:e8:3c:fb:
                    cf:f8:e5:4d:fe:b9:a3:9d:6c:b0:c4:18:26:dc:de:
                    56:db:a7:e9:eb:c9:d2:c9:77:e3:6b:44:29:26:07:
                    02:d9:c3:32:7d:e9:45:b8:65:41:98:41:a0:39:6f:
                    e7:41:45:6d:e6:4a:11:15:d5:4d:28:f3:43:f6:e2:
                    79:6b:92:c8:0b:f4:8e:a3:d8:69:36:c4:49:60:81:
                    f5:8d:52:04:14:0f:14:37:05:76:82:4d:f1:d6:11:
                    e1:87:3d:a1:78:db:d9:75:b9:87:1d:9a:03:3a:84:
                    14:c4:6c:95:5f:82:fa:e4:fe:23:e9:bf:63:3d:2f:
                    48:1c:8d:79:83:2a:4b:74:3d:2c:5e:d9:eb:54:66:
                    93:d4:13:2f:f7:0f:6d:97:14:16:ea:b7:f0:85:d0:
                    cb:0e:5d:4b:7e:b9:1f:31:10:62:04:ae:c4:97:17:
                    15:23
                Exponent: 65537 (0x10001)
        X509v3 extensions:
            X509v3 Basic Constraints: 
                CA:FALSE
            X509v3 Subject Key Identifier: 
                89:06:A4:11:46:DD:83:D5:B2:AF:17:5A:76:69:24:B4:B1:F8:12:A9
            X509v3 Authority Key Identifier: 
                keyid:8F:A3:DD:62:BB:86:65:C1:D4:FB:FF:E1:C9:BA:5D:F7:5A:90:54:71
                DirName:/CN=team330-net
                serial:3B:5E:8F:CB:C8:D1:2F:9C:CE:70:29:0E:A3:DC:89:B3:0B:28:63:A6
            X509v3 Extended Key Usage: 
                TLS Web Client Authentication
            X509v3 Key Usage: 
                Digital Signature
    Signature Algorithm: sha256WithRSAEncryption
    Signature Value:
        15:30:ba:ed:20:b6:d2:d0:ef:90:a4:fb:f6:2e:40:00:62:fc:
        42:28:a7:70:13:5c:0d:03:02:4c:ea:0d:80:3b:90:bb:f2:a8:
        61:cd:ad:c1:12:8e:ab:d6:4f:9f:cf:43:78:8d:b6:82:79:89:
        38:b5:7a:95:de:65:b7:82:39:e8:f4:1c:b8:7b:a8:66:7a:da:
        7b:e9:f3:48:50:10:32:54:d6:f4:83:24:d4:52:bb:3d:b5:1d:
        ab:10:49:0e:d2:65:ed:9b:fd:15:f4:4e:99:da:a0:e4:91:1f:
        6d:84:8c:ff:fe:af:01:c0:a0:51:a5:92:84:d9:fc:05:6d:44:
        df:7f:5f:4e:1e:32:a3:59:d0:fb:e7:0c:2d:d4:40:71:0b:e9:
        c9:07:50:40:ac:0a:1e:e6:c9:59:e7:f6:93:09:e7:2e:94:19:
        5b:33:fc:d6:8f:44:73:de:19:21:1b:e3:92:c4:6f:d1:63:46:
        c2:08:e6:4e:d7:f3:f6:c4:9e:aa:b2:3d:cd:b9:cb:1f:d8:57:
        91:e2:2e:0a:f9:f5:96:8a:dd:d7:40:53:40:47:ad:16:42:44:
        e6:6e:66:e7:59:99:5c:53:04:8b:e9:12:e9:f4:99:5d:6c:a5:
        90:56:72:53:1f:14:b2:0c:b2:e1:ff:af:8e:40:00:8c:fd:bb:
        34:17:ef:e0
-----BEGIN CERTIFICATE-----
MIIDXTCCAkWgAwIBAgIRAK1329cYvorT33fBLeuzNqswDQYJKoZIhvcNAQELBQAw
FjEUMBIGA1UEAwwLdGVhbTMzMC1uZXQwHhcNMjMxMTA0MTA0NjQwWhcNMjYxMDE5
MTA0NjQwWjAZMRcwFQYDVQQDDA50ZWFtMzMwLWNsaWVudDCCASIwDQYJKoZIhvcN
AQEBBQADggEPADCCAQoCggEBAKpA0RYO4SfBusERX5R0GDmguTvUFNGUzJMwcE7Y
Ighqtfdqa8BkW8HjkdOTHt3mfXlirF2+wS1kHa4CCUTqekfsYpWCsnTMO3jncXVV
X5kxH+kmzsTS6Dz7z/jlTf65o51ssMQYJtzeVtun6evJ0sl342tEKSYHAtnDMn3p
RbhlQZhBoDlv50FFbeZKERXVTSjzQ/bieWuSyAv0jqPYaTbESWCB9Y1SBBQPFDcF
doJN8dYR4Yc9oXjb2XW5hx2aAzqEFMRslV+C+uT+I+m/Yz0vSByNeYMqS3Q9LF7Z
61Rmk9QTL/cPbZcUFuq38IXQyw5dS365HzEQYgSuxJcXFSMCAwEAAaOBojCBnzAJ
BgNVHRMEAjAAMB0GA1UdDgQWBBSJBqQRRt2D1bKvF1p2aSS0sfgSqTBRBgNVHSME
SjBIgBSPo91iu4ZlwdT7/+HJul33WpBUcaEapBgwFjEUMBIGA1UEAwwLdGVhbTMz
MC1uZXSCFDtej8vI0S+cznApDqPcibMLKGOmMBMGA1UdJQQMMAoGCCsGAQUFBwMC
MAsGA1UdDwQEAwIHgDANBgkqhkiG9w0BAQsFAAOCAQEAFTC67SC20tDvkKT79i5A
AGL8QiincBNcDQMCTOoNgDuQu/KoYc2twRKOq9ZPn89DeI22gnmJOLV6ld5lt4I5
6PQcuHuoZnrae+nzSFAQMlTW9IMk1FK7PbUdqxBJDtJl7Zv9FfROmdqg5JEfbYSM
//6vAcCgUaWShNn8BW1E339fTh4yo1nQ++cMLdRAcQvpyQdQQKwKHubJWef2kwnn
LpQZWzP81o9Ec94ZIRvjksRv0WNGwgjmTtfz9sSeqrI9zbnLH9hXkeIuCvn1lord
10BTQEetFkJE5m5m51mZXFMEi+kS6fSZXWylkFZyUx8Usgyy4f+vjkAAjP27NBfv
4A==
-----END CERTIFICATE-----
