Certificate:
    Data:
        Version: 3 (0x2)
        Serial Number:
            e7:11:3f:0e:65:1e:18:7a:09:6e:67:1b:61:4b:f0:05
        Signature Algorithm: sha256WithRSAEncryption
        Issuer: CN=team330-net
        Validity
            Not Before: Nov  4 11:34:45 2023 GMT
            Not After : Oct 19 11:34:45 2026 GMT
        Subject: CN=team330-client
        Subject Public Key Info:
            Public Key Algorithm: rsaEncryption
                Public-Key: (2048 bit)
                Modulus:
                    00:be:0a:b0:59:39:6f:d3:82:78:07:31:de:25:41:
                    18:7b:f2:15:50:d0:54:da:ff:6e:80:c2:82:21:59:
                    4b:fc:c5:98:c8:46:65:cd:99:61:95:1e:76:d7:08:
                    10:77:d2:36:1d:88:da:4d:f9:69:90:9d:6b:a7:1d:
                    7e:e7:39:f9:ff:52:c9:8d:4a:0a:54:25:52:18:96:
                    9d:c1:1c:1d:dd:c6:50:20:d0:48:a6:b2:8c:b6:53:
                    f7:f3:c0:10:2b:7c:4b:e5:f1:8a:b2:fe:02:3e:de:
                    f0:2d:82:40:92:2f:52:99:4c:da:87:22:60:8a:75:
                    5b:52:a0:ea:44:90:1d:f8:75:27:32:18:7a:5e:2c:
                    ef:e8:d8:de:16:0f:a7:c8:ca:08:8d:f4:6b:e6:bf:
                    40:4b:ca:0c:5e:92:0a:3f:87:af:59:81:52:08:82:
                    0a:18:ab:4d:e0:9a:35:c7:e9:6a:ce:4d:fb:b2:cb:
                    2c:3e:a3:c9:c4:66:f4:b4:23:45:25:f4:cd:6a:e8:
                    d3:b9:0f:bc:48:d4:ce:f9:ed:79:08:88:3b:99:e4:
                    3e:01:22:68:d1:2b:86:61:ba:7e:e2:8a:8e:4d:8e:
                    7d:ab:70:2d:ee:6d:3a:b8:ed:ec:3a:88:71:7b:fd:
                    b8:9f:7d:66:ad:cc:91:96:38:5b:f1:e3:8d:4d:1f:
                    ab:c9
                Exponent: 65537 (0x10001)
        X509v3 extensions:
            X509v3 Basic Constraints: 
                CA:FALSE
            X509v3 Subject Key Identifier: 
                F8:D7:DD:E6:D8:64:02:E9:68:7A:81:67:43:02:B4:30:0C:C7:C9:10
            X509v3 Authority Key Identifier: 
                keyid:7D:BA:13:C2:AE:A4:1C:25:0A:35:77:6E:E0:3C:CA:CB:F9:93:CB:F3
                DirName:/CN=team330-net
                serial:09:04:AB:DF:24:5E:72:14:1A:41:72:1C:45:7A:78:A6:C7:AC:73:D5
            X509v3 Extended Key Usage: 
                TLS Web Client Authentication
            X509v3 Key Usage: 
                Digital Signature
    Signature Algorithm: sha256WithRSAEncryption
    Signature Value:
        69:ee:4d:06:f4:5b:49:77:0d:45:b0:fc:6f:a4:bd:9f:2e:ee:
        bb:cf:88:26:68:49:cb:ff:79:e2:5d:67:81:f4:99:6b:79:e9:
        87:5d:d5:4e:69:68:a6:be:95:8d:9c:31:45:5a:e3:d4:31:be:
        e0:a6:ef:39:e2:c5:11:e7:31:2a:7f:f6:2a:0d:2b:09:08:07:
        e8:17:9e:b7:87:f9:b3:12:81:4b:0b:e9:35:6d:9b:8a:cd:8b:
        b4:ea:33:b6:cc:21:dc:98:d1:79:a0:5e:d2:6c:d6:01:95:44:
        cc:39:e3:0d:d9:59:15:43:60:8d:1e:bd:dd:3f:1b:48:e7:63:
        5d:8c:fb:17:5f:48:35:11:bb:49:33:21:57:1f:a4:7c:24:ea:
        17:f9:28:e1:26:b7:13:f9:84:e8:39:94:2a:59:7a:ca:bb:bf:
        8a:fd:56:4d:10:92:63:fb:df:d2:e9:ba:3c:46:4a:90:cc:d8:
        22:6d:ab:60:b0:30:b1:03:6d:df:7b:f8:79:05:13:84:dc:d8:
        7f:da:03:e8:e7:5f:c5:35:ab:64:1f:6e:4f:29:b1:e8:dc:58:
        a2:d5:ed:f9:bf:a9:c1:28:ed:93:0c:9f:13:81:1a:4b:aa:61:
        b5:8a:47:e9:1c:88:e1:0d:9b:74:53:2a:5a:b4:ed:d5:45:56:
        ec:89:83:0c
-----BEGIN CERTIFICATE-----
MIIDXTCCAkWgAwIBAgIRAOcRPw5lHhh6CW5nG2FL8AUwDQYJKoZIhvcNAQELBQAw
FjEUMBIGA1UEAwwLdGVhbTMzMC1uZXQwHhcNMjMxMTA0MTEzNDQ1WhcNMjYxMDE5
MTEzNDQ1WjAZMRcwFQYDVQQDDA50ZWFtMzMwLWNsaWVudDCCASIwDQYJKoZIhvcN
AQEBBQADggEPADCCAQoCggEBAL4KsFk5b9OCeAcx3iVBGHvyFVDQVNr/boDCgiFZ
S/zFmMhGZc2ZYZUedtcIEHfSNh2I2k35aZCda6cdfuc5+f9SyY1KClQlUhiWncEc
Hd3GUCDQSKayjLZT9/PAECt8S+XxirL+Aj7e8C2CQJIvUplM2ociYIp1W1Kg6kSQ
Hfh1JzIYel4s7+jY3hYPp8jKCI30a+a/QEvKDF6SCj+Hr1mBUgiCChirTeCaNcfp
as5N+7LLLD6jycRm9LQjRSX0zWro07kPvEjUzvnteQiIO5nkPgEiaNErhmG6fuKK
jk2OfatwLe5tOrjt7DqIcXv9uJ99Zq3MkZY4W/HjjU0fq8kCAwEAAaOBojCBnzAJ
BgNVHRMEAjAAMB0GA1UdDgQWBBT4193m2GQC6Wh6gWdDArQwDMfJEDBRBgNVHSME
SjBIgBR9uhPCrqQcJQo1d27gPMrL+ZPL86EapBgwFjEUMBIGA1UEAwwLdGVhbTMz
MC1uZXSCFAkEq98kXnIUGkFyHEV6eKbHrHPVMBMGA1UdJQQMMAoGCCsGAQUFBwMC
MAsGA1UdDwQEAwIHgDANBgkqhkiG9w0BAQsFAAOCAQEAae5NBvRbSXcNRbD8b6S9
ny7uu8+IJmhJy/954l1ngfSZa3nph13VTmlopr6VjZwxRVrj1DG+4KbvOeLFEecx
Kn/2Kg0rCQgH6Beet4f5sxKBSwvpNW2bis2LtOoztswh3JjReaBe0mzWAZVEzDnj
DdlZFUNgjR693T8bSOdjXYz7F19INRG7STMhVx+kfCTqF/ko4Sa3E/mE6DmUKll6
yru/iv1WTRCSY/vf0um6PEZKkMzYIm2rYLAwsQNt33v4eQUThNzYf9oD6OdfxTWr
ZB9uTymx6NxYotXt+b+pwSjtkwyfE4EaS6phtYpH6RyI4Q2bdFMqWrTt1UVW7ImD
DA==
-----END CERTIFICATE-----
