Certificate:
    Data:
        Version: 3 (0x2)
        Serial Number:
            cd:6d:4e:a4:80:33:8d:3a:0d:f6:77:d5:12:15:ba:4a
        Signature Algorithm: sha256WithRSAEncryption
        Issuer: CN=team31-net
        Validity
            Not Before: Nov  3 20:39:48 2023 GMT
            Not After : Oct 18 20:39:48 2026 GMT
        Subject: CN=team31-server
        Subject Public Key Info:
            Public Key Algorithm: rsaEncryption
                Public-Key: (2048 bit)
                Modulus:
                    00:c6:d5:c0:9c:60:10:d8:e9:a7:bc:68:ec:ab:7d:
                    9f:7d:3d:62:0b:a0:43:06:9d:c1:95:88:7d:ba:28:
                    f8:31:36:e2:19:ac:19:57:9a:7a:b1:ba:ac:4b:e2:
                    1c:8d:91:34:ee:09:b3:cc:c8:2f:a6:c1:c1:02:3f:
                    f2:43:21:0c:db:8c:8d:28:21:80:42:6d:ee:6e:38:
                    10:ee:94:ac:e0:ab:99:bd:f7:d9:65:2a:fc:f7:8e:
                    fe:5c:4b:71:ff:a9:f7:42:e5:0e:20:9f:75:d5:dd:
                    d1:7d:15:62:04:0f:ba:21:87:ff:84:1a:af:7f:27:
                    38:29:12:8b:09:53:70:d2:02:f0:03:4b:7a:2c:31:
                    22:d0:cb:69:c0:9a:4d:0b:59:32:cc:4a:a7:18:fc:
                    9e:17:b6:36:15:c7:37:a2:be:47:11:32:22:87:82:
                    4d:9a:3b:0b:04:2d:25:b7:18:b5:3c:af:da:04:7a:
                    9e:58:8e:89:e0:ba:68:15:14:e5:a3:fc:28:ad:47:
                    ab:91:6e:d9:83:89:47:d0:76:dd:e9:fa:00:8f:87:
                    fe:c4:34:a1:4a:d7:20:96:a0:e0:3a:ee:57:27:16:
                    e0:96:09:32:15:60:de:35:04:2c:08:ab:86:e8:76:
                    6b:25:f2:de:9e:76:b8:9a:9b:f7:33:c5:d4:9a:9d:
                    bb:7b
                Exponent: 65537 (0x10001)
        X509v3 extensions:
            X509v3 Basic Constraints: 
                CA:FALSE
            X509v3 Subject Key Identifier: 
                E8:81:14:CF:CF:22:F2:39:AF:84:34:60:70:14:EC:CC:3C:8C:B9:A3
            X509v3 Authority Key Identifier: 
                keyid:85:AF:7C:29:55:F8:0E:CE:81:0D:21:55:EB:38:DF:19:7E:B5:69:FB
                DirName:/CN=team31-net
                serial:1C:97:04:0D:BC:5D:B4:D5:7A:6F:A4:A5:E4:B5:89:CA:6A:C0:F5:09
            X509v3 Extended Key Usage: 
                TLS Web Server Authentication
            X509v3 Key Usage: 
                Digital Signature, Key Encipherment
            X509v3 Subject Alternative Name: 
                DNS:team31-server
    Signature Algorithm: sha256WithRSAEncryption
    Signature Value:
        02:68:37:d6:a9:85:76:0f:a0:57:7a:37:5a:db:84:45:92:2a:
        8e:88:c3:90:bc:d4:46:66:56:49:81:2b:13:10:64:56:85:f1:
        ba:5b:79:6c:0f:52:ed:69:aa:0c:f1:d3:87:b7:aa:e1:53:a5:
        3c:f2:2e:ab:fc:c1:d4:6c:42:10:8c:2b:55:8d:cc:8f:41:43:
        df:11:e5:18:3a:64:84:ed:60:f9:f3:a8:f2:4e:aa:4f:13:55:
        0a:6b:ac:93:33:18:42:c8:46:b0:51:7a:01:b9:98:53:75:77:
        ac:9c:f9:07:92:b2:f9:d6:75:9d:2b:da:47:0b:94:e5:da:6d:
        a6:dc:0a:c5:48:7c:96:c8:e3:93:96:00:74:0f:f0:4c:f6:45:
        fc:e4:50:ac:46:03:c3:5b:a7:00:b7:64:a4:8f:95:bf:7f:da:
        9b:75:32:a8:51:f4:b2:22:50:9c:72:ef:b1:22:ad:b0:13:21:
        e5:59:91:f2:06:39:44:4f:47:96:e8:c1:94:bd:ae:52:84:1e:
        e7:f6:95:14:7f:84:ac:90:1e:d9:7d:94:a3:9b:d1:dc:60:41:
        a2:ad:8e:b0:8b:9b:a4:8f:fe:1b:62:59:bf:3f:74:ae:a6:95:
        3b:e6:d9:e3:d7:0f:3e:ef:f5:e6:87:0c:0a:95:1c:c9:54:ff:
        f0:4a:60:9d
-----BEGIN CERTIFICATE-----
MIIDdDCCAlygAwIBAgIRAM1tTqSAM406DfZ31RIVukowDQYJKoZIhvcNAQELBQAw
FTETMBEGA1UEAwwKdGVhbTMxLW5ldDAeFw0yMzExMDMyMDM5NDhaFw0yNjEwMTgy
MDM5NDhaMBgxFjAUBgNVBAMMDXRlYW0zMS1zZXJ2ZXIwggEiMA0GCSqGSIb3DQEB
AQUAA4IBDwAwggEKAoIBAQDG1cCcYBDY6ae8aOyrfZ99PWILoEMGncGViH26KPgx
NuIZrBlXmnqxuqxL4hyNkTTuCbPMyC+mwcECP/JDIQzbjI0oIYBCbe5uOBDulKzg
q5m999llKvz3jv5cS3H/qfdC5Q4gn3XV3dF9FWIED7ohh/+EGq9/JzgpEosJU3DS
AvADS3osMSLQy2nAmk0LWTLMSqcY/J4XtjYVxzeivkcRMiKHgk2aOwsELSW3GLU8
r9oEep5YjongumgVFOWj/CitR6uRbtmDiUfQdt3p+gCPh/7ENKFK1yCWoOA67lcn
FuCWCTIVYN41BCwIq4bodmsl8t6edriam/czxdSanbt7AgMBAAGjgbswgbgwCQYD
VR0TBAIwADAdBgNVHQ4EFgQU6IEUz88i8jmvhDRgcBTszDyMuaMwUAYDVR0jBEkw
R4AUha98KVX4Ds6BDSFV6zjfGX61afuhGaQXMBUxEzARBgNVBAMMCnRlYW0zMS1u
ZXSCFByXBA28XbTVem+kpeS1icpqwPUJMBMGA1UdJQQMMAoGCCsGAQUFBwMBMAsG
A1UdDwQEAwIFoDAYBgNVHREEETAPgg10ZWFtMzEtc2VydmVyMA0GCSqGSIb3DQEB
CwUAA4IBAQACaDfWqYV2D6BXejda24RFkiqOiMOQvNRGZlZJgSsTEGRWhfG6W3ls
D1LtaaoM8dOHt6rhU6U88i6r/MHUbEIQjCtVjcyPQUPfEeUYOmSE7WD586jyTqpP
E1UKa6yTMxhCyEawUXoBuZhTdXesnPkHkrL51nWdK9pHC5Tl2m2m3ArFSHyWyOOT
lgB0D/BM9kX85FCsRgPDW6cAt2Skj5W/f9qbdTKoUfSyIlCccu+xIq2wEyHlWZHy
BjlET0eW6MGUva5ShB7n9pUUf4SskB7ZfZSjm9HcYEGirY6wi5ukj/4bYlm/P3Su
ppU75tnj1w8+7/XmhwwKlRzJVP/wSmCd
-----END CERTIFICATE-----
