Certificate:
    Data:
        Version: 3 (0x2)
        Serial Number:
            3e:1e:c1:3b:ed:13:96:4e:4a:37:2a:a8:47:2c:c0:3a
        Signature Algorithm: sha256WithRSAEncryption
        Issuer: CN=team486-net
        Validity
            Not Before: Nov  4 11:38:36 2023 GMT
            Not After : Oct 19 11:38:36 2026 GMT
        Subject: CN=team486-client
        Subject Public Key Info:
            Public Key Algorithm: rsaEncryption
                Public-Key: (2048 bit)
                Modulus:
                    00:d3:18:f1:e1:55:ac:16:06:44:74:48:1d:4a:73:
                    ae:15:9d:08:ce:e4:3f:f3:c2:0a:b1:00:2f:f4:71:
                    d4:08:c7:93:85:8d:38:0f:3e:db:47:ef:77:86:10:
                    0f:29:0c:47:df:e7:53:dc:b1:9c:bb:48:96:e5:3e:
                    5f:10:85:fa:6b:de:71:2d:e7:0a:bf:94:ae:65:b7:
                    4a:1e:b5:0e:09:37:8f:56:79:5d:ea:40:90:51:8e:
                    ce:21:9a:5e:bc:e5:0b:62:a9:8d:57:4c:8c:30:5f:
                    22:4f:c3:8f:ac:63:47:4c:24:23:64:10:bf:44:26:
                    55:0e:85:b9:14:98:fc:98:80:b2:6c:57:93:95:f5:
                    e2:6a:b5:a2:a5:85:3d:e9:cc:66:97:a5:20:5e:58:
                    8d:0f:99:8d:83:9f:b6:ff:aa:f5:f5:31:ae:b3:4e:
                    ab:56:94:04:ea:86:52:d1:63:c5:67:2e:b4:cc:50:
                    10:5c:4f:66:16:5a:fa:05:78:d0:d0:9a:26:89:70:
                    66:ec:b0:e3:3f:08:64:f8:9b:31:a6:9d:c6:9b:01:
                    b2:b1:a8:18:0f:96:f9:13:44:ac:c9:79:ed:30:33:
                    70:b4:af:ad:59:1f:ff:d5:95:70:43:12:49:e1:36:
                    41:33:e9:86:48:4c:37:4e:c1:ab:85:22:ed:bf:14:
                    bf:03
                Exponent: 65537 (0x10001)
        X509v3 extensions:
            X509v3 Basic Constraints: 
                CA:FALSE
            X509v3 Subject Key Identifier: 
                4D:3A:10:FB:E1:E3:43:46:25:81:C7:7D:AA:33:EF:83:D0:8C:49:03
            X509v3 Authority Key Identifier: 
                keyid:63:5D:1B:5D:41:29:89:90:65:E8:76:52:B8:A8:2B:B7:D2:3E:37:66
                DirName:/CN=team486-net
                serial:0D:41:0C:F9:62:7B:CE:CE:ED:E9:3E:D7:F1:67:3E:EC:C2:CD:02:87
            X509v3 Extended Key Usage: 
                TLS Web Client Authentication
            X509v3 Key Usage: 
                Digital Signature
    Signature Algorithm: sha256WithRSAEncryption
    Signature Value:
        55:87:cb:1c:38:3b:4c:9a:9f:5a:f7:cc:94:2b:53:15:4e:33:
        e7:44:91:2d:eb:78:5d:3a:9e:7d:d6:90:ac:4e:9c:d1:33:56:
        2a:e9:55:4e:1d:5a:42:1e:57:71:69:03:23:30:bc:bb:df:4a:
        0a:ac:81:85:79:58:92:b8:a1:de:34:ab:32:2a:06:61:a1:37:
        5d:14:3d:6b:6c:38:bc:51:63:95:8e:a3:c8:b9:47:de:f9:dd:
        fb:bf:c8:f4:2d:e3:96:71:16:be:a8:8f:f4:2f:b5:7e:3a:63:
        51:1a:6b:f1:d5:fd:20:84:09:f5:f8:c7:13:36:ff:21:1d:d3:
        51:e5:d5:10:76:7e:d8:b0:8c:6b:93:18:bc:4c:7a:57:b5:40:
        de:53:1c:75:79:68:87:9c:6c:61:c7:f5:40:4a:c2:81:46:7d:
        74:a6:cf:93:a4:ac:61:85:0a:6d:eb:28:fe:d4:0e:bd:88:31:
        0c:aa:07:05:ea:1f:d7:70:cf:90:90:fa:a6:2b:9a:14:1c:4d:
        16:33:71:6d:b9:5d:16:4b:1d:25:f3:7a:bd:f6:77:36:7a:3c:
        ff:f3:c8:18:0d:4a:a3:39:9f:3e:c3:92:26:b8:3d:04:41:40:
        10:80:76:ac:7c:29:20:ea:15:98:83:24:d8:e1:e8:d0:f5:7d:
        5d:b7:60:4e
-----BEGIN CERTIFICATE-----
MIIDXDCCAkSgAwIBAgIQPh7BO+0Tlk5KNyqoRyzAOjANBgkqhkiG9w0BAQsFADAW
MRQwEgYDVQQDDAt0ZWFtNDg2LW5ldDAeFw0yMzExMDQxMTM4MzZaFw0yNjEwMTkx
MTM4MzZaMBkxFzAVBgNVBAMMDnRlYW00ODYtY2xpZW50MIIBIjANBgkqhkiG9w0B
AQEFAAOCAQ8AMIIBCgKCAQEA0xjx4VWsFgZEdEgdSnOuFZ0IzuQ/88IKsQAv9HHU
CMeThY04Dz7bR+93hhAPKQxH3+dT3LGcu0iW5T5fEIX6a95xLecKv5SuZbdKHrUO
CTePVnld6kCQUY7OIZpevOULYqmNV0yMMF8iT8OPrGNHTCQjZBC/RCZVDoW5FJj8
mICybFeTlfXiarWipYU96cxml6UgXliND5mNg5+2/6r19TGus06rVpQE6oZS0WPF
Zy60zFAQXE9mFlr6BXjQ0JomiXBm7LDjPwhk+Jsxpp3GmwGysagYD5b5E0SsyXnt
MDNwtK+tWR//1ZVwQxJJ4TZBM+mGSEw3TsGrhSLtvxS/AwIDAQABo4GiMIGfMAkG
A1UdEwQCMAAwHQYDVR0OBBYEFE06EPvh40NGJYHHfaoz74PQjEkDMFEGA1UdIwRK
MEiAFGNdG11BKYmQZeh2UrioK7fSPjdmoRqkGDAWMRQwEgYDVQQDDAt0ZWFtNDg2
LW5ldIIUDUEM+WJ7zs7t6T7X8Wc+7MLNAocwEwYDVR0lBAwwCgYIKwYBBQUHAwIw
CwYDVR0PBAQDAgeAMA0GCSqGSIb3DQEBCwUAA4IBAQBVh8scODtMmp9a98yUK1MV
TjPnRJEt63hdOp591pCsTpzRM1Yq6VVOHVpCHldxaQMjMLy730oKrIGFeViSuKHe
NKsyKgZhoTddFD1rbDi8UWOVjqPIuUfe+d37v8j0LeOWcRa+qI/0L7V+OmNRGmvx
1f0ghAn1+McTNv8hHdNR5dUQdn7YsIxrkxi8THpXtUDeUxx1eWiHnGxhx/VASsKB
Rn10ps+TpKxhhQpt6yj+1A69iDEMqgcF6h/XcM+QkPqmK5oUHE0WM3FtuV0WSx0l
83q99nc2ejz/88gYDUqjOZ8+w5ImuD0EQUAQgHasfCkg6hWYgyTY4ejQ9X1dt2BO
-----END CERTIFICATE-----
