Certificate:
    Data:
        Version: 3 (0x2)
        Serial Number:
            b7:f3:98:c1:0f:db:06:53:ca:89:df:a5:b5:b0:bc:1f
        Signature Algorithm: sha256WithRSAEncryption
        Issuer: CN=team486-net
        Validity
            Not Before: Nov  4 10:49:11 2023 GMT
            Not After : Oct 19 10:49:11 2026 GMT
        Subject: CN=team486-client
        Subject Public Key Info:
            Public Key Algorithm: rsaEncryption
                Public-Key: (2048 bit)
                Modulus:
                    00:90:30:63:db:2c:81:0d:de:79:c6:24:fb:79:55:
                    c1:53:68:f1:68:24:33:c6:b0:cf:af:77:f3:bf:e7:
                    23:c9:c9:fd:8f:a5:8d:64:de:a4:c9:23:cf:ac:31:
                    60:24:8f:71:69:2a:86:14:61:89:4e:5b:52:c4:5a:
                    23:05:a0:df:1e:0b:bc:fa:4f:79:fd:c9:1c:b2:1c:
                    5a:44:98:9a:96:5a:cd:b8:38:1b:2b:f0:52:96:26:
                    02:af:54:b0:79:0b:9d:8c:a4:8b:41:79:23:dd:46:
                    17:b3:5a:d7:da:c4:c0:d6:4e:84:7f:dc:b0:ea:7f:
                    d8:32:d3:57:bb:84:a8:e3:d0:cc:cd:96:c4:88:a0:
                    9e:b6:3e:a6:cb:72:e8:ee:f7:38:cb:86:31:5b:f8:
                    b0:f2:aa:5b:c1:ef:09:3e:c4:cd:f1:38:57:0c:64:
                    19:a5:57:b4:e3:f6:86:6b:06:4f:ea:bb:36:df:50:
                    3a:fa:ff:73:7b:10:fc:59:43:12:4e:92:9e:c8:bc:
                    a7:bc:bd:2a:19:67:06:94:3c:27:d7:b4:e6:5b:4d:
                    44:ac:36:f6:98:60:e6:b7:d0:72:50:36:bb:5c:b9:
                    11:3a:9b:5e:3f:10:80:3a:1c:11:e8:ed:e5:2c:4d:
                    70:02:4a:46:ff:0f:2b:25:b5:5c:72:27:29:57:14:
                    ff:81
                Exponent: 65537 (0x10001)
        X509v3 extensions:
            X509v3 Basic Constraints: 
                CA:FALSE
            X509v3 Subject Key Identifier: 
                D2:47:37:F3:64:98:3D:E5:10:B0:F1:86:3F:48:0F:50:82:9A:59:DB
            X509v3 Authority Key Identifier: 
                keyid:2B:2E:82:AC:77:08:ED:86:80:F1:1B:18:D6:E5:8A:99:72:12:DD:BB
                DirName:/CN=team486-net
                serial:6B:03:DA:E9:B6:71:86:73:1F:7B:7D:9B:17:24:56:C1:89:FA:73:7E
            X509v3 Extended Key Usage: 
                TLS Web Client Authentication
            X509v3 Key Usage: 
                Digital Signature
    Signature Algorithm: sha256WithRSAEncryption
    Signature Value:
        68:95:48:fd:86:2a:41:a7:c4:c4:c3:ed:38:02:50:a5:ea:4c:
        d6:d2:2d:b8:06:28:54:99:8f:dd:90:09:a7:66:3a:8c:22:09:
        4d:77:41:bf:3f:32:a4:b3:9f:a7:d1:d5:f9:dd:f5:99:8d:77:
        68:31:40:77:57:3b:4e:b7:50:cd:bb:8c:39:07:ee:32:65:ac:
        f5:1e:6d:37:fd:6a:9c:78:ab:63:0e:e4:13:ee:8f:aa:98:fb:
        5f:b4:98:b9:2c:52:75:31:1d:eb:09:42:72:ca:54:95:28:f4:
        db:a1:26:4b:18:67:b9:00:ee:7a:6d:f5:86:59:80:6a:f8:69:
        4c:cf:1f:fe:a7:42:21:46:a4:14:19:d1:2e:33:77:53:0a:f7:
        e0:65:d9:88:d1:ed:97:9f:6b:4d:52:c9:67:22:ef:45:70:5a:
        cb:44:ff:21:36:36:ff:23:dd:42:d7:e6:38:9c:f1:49:98:9f:
        ea:42:38:38:fb:e2:09:23:6a:a8:d8:7e:12:51:48:4e:7b:5a:
        8e:e2:b5:00:da:74:ff:65:eb:ad:df:90:4b:7c:9f:63:50:07:
        64:ac:ec:64:87:3b:f7:41:43:4f:3f:32:d7:d6:4c:7a:07:af:
        cb:09:cf:da:c5:ab:e4:a8:16:9e:73:52:28:b5:45:27:65:ed:
        44:d6:ea:d3
-----BEGIN CERTIFICATE-----
MIIDXTCCAkWgAwIBAgIRALfzmMEP2wZTyonfpbWwvB8wDQYJKoZIhvcNAQELBQAw
FjEUMBIGA1UEAwwLdGVhbTQ4Ni1uZXQwHhcNMjMxMTA0MTA0OTExWhcNMjYxMDE5
MTA0OTExWjAZMRcwFQYDVQQDDA50ZWFtNDg2LWNsaWVudDCCASIwDQYJKoZIhvcN
AQEBBQADggEPADCCAQoCggEBAJAwY9ssgQ3eecYk+3lVwVNo8WgkM8awz69387/n
I8nJ/Y+ljWTepMkjz6wxYCSPcWkqhhRhiU5bUsRaIwWg3x4LvPpPef3JHLIcWkSY
mpZazbg4GyvwUpYmAq9UsHkLnYyki0F5I91GF7Na19rEwNZOhH/csOp/2DLTV7uE
qOPQzM2WxIignrY+psty6O73OMuGMVv4sPKqW8HvCT7EzfE4VwxkGaVXtOP2hmsG
T+q7Nt9QOvr/c3sQ/FlDEk6Snsi8p7y9KhlnBpQ8J9e05ltNRKw29phg5rfQclA2
u1y5ETqbXj8QgDocEejt5SxNcAJKRv8PKyW1XHInKVcU/4ECAwEAAaOBojCBnzAJ
BgNVHRMEAjAAMB0GA1UdDgQWBBTSRzfzZJg95RCw8YY/SA9QgppZ2zBRBgNVHSME
SjBIgBQrLoKsdwjthoDxGxjW5YqZchLdu6EapBgwFjEUMBIGA1UEAwwLdGVhbTQ4
Ni1uZXSCFGsD2um2cYZzH3t9mxckVsGJ+nN+MBMGA1UdJQQMMAoGCCsGAQUFBwMC
MAsGA1UdDwQEAwIHgDANBgkqhkiG9w0BAQsFAAOCAQEAaJVI/YYqQafExMPtOAJQ
pepM1tItuAYoVJmP3ZAJp2Y6jCIJTXdBvz8ypLOfp9HV+d31mY13aDFAd1c7TrdQ
zbuMOQfuMmWs9R5tN/1qnHirYw7kE+6Pqpj7X7SYuSxSdTEd6wlCcspUlSj026Em
SxhnuQDuem31hlmAavhpTM8f/qdCIUakFBnRLjN3Uwr34GXZiNHtl59rTVLJZyLv
RXBay0T/ITY2/yPdQtfmOJzxSZif6kI4OPviCSNqqNh+ElFITntajuK1ANp0/2Xr
rd+QS3yfY1AHZKzsZIc790FDTz8y19ZMegevywnP2sWr5KgWnnNSKLVFJ2XtRNbq
0w==
-----END CERTIFICATE-----
