Certificate:
    Data:
        Version: 3 (0x2)
        Serial Number:
            95:d6:9c:d1:f6:f9:fe:20:77:06:29:66:0e:41:8f:df
        Signature Algorithm: sha256WithRSAEncryption
        Issuer: CN=team418-net
        Validity
            Not Before: Nov  3 20:46:49 2023 GMT
            Not After : Oct 18 20:46:49 2026 GMT
        Subject: CN=team418-server
        Subject Public Key Info:
            Public Key Algorithm: rsaEncryption
                Public-Key: (2048 bit)
                Modulus:
                    00:a9:24:01:e2:ab:63:29:2e:5f:04:36:71:60:85:
                    56:6f:7c:5a:f6:20:fa:8a:9a:21:7c:a6:cc:10:b5:
                    9d:81:e5:1b:c4:fa:fb:c5:01:9c:0d:86:7e:a5:8a:
                    97:ba:be:cc:ac:f5:96:fa:88:a6:c7:ca:01:0d:3a:
                    61:c3:66:fb:c6:02:36:44:af:a5:fc:26:53:89:bd:
                    11:d1:06:84:99:16:0f:bf:3f:a9:43:56:e1:03:ba:
                    b3:ef:47:9a:70:44:af:b8:21:91:54:b8:96:52:41:
                    24:75:9e:f4:5e:13:d3:e1:a7:52:ee:f5:6f:db:63:
                    2b:4c:40:6f:32:90:9b:d8:61:e5:ea:98:a0:61:4f:
                    df:80:a6:5b:dc:65:8f:12:b5:5d:17:e2:94:f6:98:
                    62:f2:37:3c:a0:0e:f3:f9:3c:33:0a:f1:3e:76:ef:
                    fe:1a:8e:46:f6:a7:ad:d0:f0:aa:e4:e7:91:ee:fd:
                    78:1d:47:72:90:bb:1a:f6:8c:44:85:e4:20:39:87:
                    d8:6e:1d:24:4d:d8:67:7b:40:65:a4:88:d1:d8:3c:
                    82:b2:1d:cd:91:8b:e3:f9:a1:3b:64:de:f9:fb:c4:
                    99:c9:a6:e5:68:36:32:f6:69:4a:8b:bf:3a:e0:ce:
                    7e:a0:e3:53:cd:93:5d:24:c6:ab:a7:df:78:75:be:
                    79:73
                Exponent: 65537 (0x10001)
        X509v3 extensions:
            X509v3 Basic Constraints: 
                CA:FALSE
            X509v3 Subject Key Identifier: 
                9C:8D:AE:59:37:2F:BE:63:71:5E:18:B5:E3:DE:4F:D3:25:80:B9:79
            X509v3 Authority Key Identifier: 
                keyid:AF:08:18:99:B4:D6:C5:96:7B:43:C5:4D:EB:11:F2:CF:83:C8:B6:BC
                DirName:/CN=team418-net
                serial:20:C8:43:BE:2A:50:FD:E3:92:77:31:A3:FA:6C:56:7A:CD:62:63:D0
            X509v3 Extended Key Usage: 
                TLS Web Server Authentication
            X509v3 Key Usage: 
                Digital Signature, Key Encipherment
            X509v3 Subject Alternative Name: 
                DNS:team418-server
    Signature Algorithm: sha256WithRSAEncryption
    Signature Value:
        59:74:72:2c:36:6d:b2:05:09:dd:6c:02:73:93:75:d4:c7:ab:
        b5:d5:be:6e:a5:5c:f2:9d:d0:8e:2f:0b:9c:1a:0d:8b:80:b0:
        75:55:26:74:45:34:0c:8a:e0:87:d0:0d:33:14:09:f1:0e:96:
        71:cc:68:0b:39:96:48:da:1b:fd:6f:ba:ec:12:de:e0:01:b3:
        27:fb:bd:84:b7:ed:49:76:90:a9:44:d1:f5:d5:10:a3:c7:f0:
        37:15:4d:aa:3f:a1:19:3b:79:2b:b1:8d:e1:7f:78:e1:d8:39:
        16:c8:ca:eb:1c:35:d1:cd:b2:62:06:a0:8d:00:c4:5f:28:99:
        a6:5b:93:28:9a:bb:ca:91:1f:34:b0:01:fa:d7:7a:e9:8a:91:
        21:1c:b7:5b:de:67:1b:57:ad:01:0f:2a:8a:0c:9e:53:2f:56:
        b6:65:10:df:bc:0a:e6:49:dc:15:f9:be:b7:73:09:af:b0:6f:
        d9:e2:21:7f:59:f9:02:19:fc:ae:dd:ac:ce:7d:df:d9:14:ed:
        4f:24:c9:78:57:6b:96:e3:13:2f:b0:a0:09:b0:cf:46:7f:9e:
        f4:d3:b8:52:89:83:19:bd:c6:ca:ca:9e:7d:ed:fe:be:46:18:
        11:32:7a:f4:91:6f:14:73:ae:e4:5c:54:e5:84:1f:e7:6f:94:
        cb:e6:a2:bc
-----BEGIN CERTIFICATE-----
MIIDeDCCAmCgAwIBAgIRAJXWnNH2+f4gdwYpZg5Bj98wDQYJKoZIhvcNAQELBQAw
FjEUMBIGA1UEAwwLdGVhbTQxOC1uZXQwHhcNMjMxMTAzMjA0NjQ5WhcNMjYxMDE4
MjA0NjQ5WjAZMRcwFQYDVQQDDA50ZWFtNDE4LXNlcnZlcjCCASIwDQYJKoZIhvcN
AQEBBQADggEPADCCAQoCggEBAKkkAeKrYykuXwQ2cWCFVm98WvYg+oqaIXymzBC1
nYHlG8T6+8UBnA2GfqWKl7q+zKz1lvqIpsfKAQ06YcNm+8YCNkSvpfwmU4m9EdEG
hJkWD78/qUNW4QO6s+9HmnBEr7ghkVS4llJBJHWe9F4T0+GnUu71b9tjK0xAbzKQ
m9hh5eqYoGFP34CmW9xljxK1XRfilPaYYvI3PKAO8/k8MwrxPnbv/hqORvanrdDw
quTnke79eB1HcpC7GvaMRIXkIDmH2G4dJE3YZ3tAZaSI0dg8grIdzZGL4/mhO2Te
+fvEmcmm5Wg2MvZpSou/OuDOfqDjU82TXSTGq6ffeHW+eXMCAwEAAaOBvTCBujAJ
BgNVHRMEAjAAMB0GA1UdDgQWBBScja5ZNy++Y3FeGLXj3k/TJYC5eTBRBgNVHSME
SjBIgBSvCBiZtNbFlntDxU3rEfLPg8i2vKEapBgwFjEUMBIGA1UEAwwLdGVhbTQx
OC1uZXSCFCDIQ74qUP3jkncxo/psVnrNYmPQMBMGA1UdJQQMMAoGCCsGAQUFBwMB
MAsGA1UdDwQEAwIFoDAZBgNVHREEEjAQgg50ZWFtNDE4LXNlcnZlcjANBgkqhkiG
9w0BAQsFAAOCAQEAWXRyLDZtsgUJ3WwCc5N11MertdW+bqVc8p3Qji8LnBoNi4Cw
dVUmdEU0DIrgh9ANMxQJ8Q6WccxoCzmWSNob/W+67BLe4AGzJ/u9hLftSXaQqUTR
9dUQo8fwNxVNqj+hGTt5K7GN4X944dg5FsjK6xw10c2yYgagjQDEXyiZpluTKJq7
ypEfNLAB+td66YqRIRy3W95nG1etAQ8qigyeUy9WtmUQ37wK5kncFfm+t3MJr7Bv
2eIhf1n5Ahn8rt2szn3f2RTtTyTJeFdrluMTL7CgCbDPRn+e9NO4UomDGb3Gysqe
fe3+vkYYETJ69JFvFHOu5FxU5YQf52+Uy+aivA==
-----END CERTIFICATE-----
