Certificate:
    Data:
        Version: 3 (0x2)
        Serial Number:
            a9:f0:80:eb:ec:8e:3f:90:4e:b0:84:55:f6:ea:9e:47
        Signature Algorithm: sha256WithRSAEncryption
        Issuer: CN=team366-net
        Validity
            Not Before: Nov  3 20:45:55 2023 GMT
            Not After : Oct 18 20:45:55 2026 GMT
        Subject: CN=team366-server
        Subject Public Key Info:
            Public Key Algorithm: rsaEncryption
                Public-Key: (2048 bit)
                Modulus:
                    00:bd:b0:be:24:b1:61:87:20:b1:e8:38:89:7a:7d:
                    3e:6f:64:cc:20:3b:2c:00:62:22:5b:90:1d:a3:05:
                    d2:b6:46:b5:77:c6:d6:92:27:f5:95:81:97:f6:d0:
                    cb:0c:61:ff:05:30:f0:c4:50:4f:b8:a0:60:41:02:
                    01:f0:9a:a4:f8:96:ff:77:fe:3d:34:dd:f6:44:d3:
                    fb:47:fa:a6:2a:56:14:03:66:a1:7d:6b:24:5b:73:
                    d1:89:f8:e3:9a:2d:29:fc:cb:fa:96:10:1c:9d:06:
                    69:8c:38:14:24:bd:25:8c:ea:29:4f:f4:36:c7:93:
                    1a:3f:84:f4:ea:75:ef:f3:fa:f7:0f:aa:e4:eb:7b:
                    3b:18:db:9c:b7:d1:56:98:3b:d9:3c:3b:eb:e1:1f:
                    87:cb:74:e0:bb:f2:0d:93:5c:af:bb:08:aa:6f:0c:
                    1f:b5:18:f0:30:f2:9c:9d:56:a5:6c:20:61:84:c9:
                    33:5c:e4:fb:af:48:96:84:f0:ea:dc:60:18:92:08:
                    33:e1:aa:4d:00:27:d4:5b:ce:21:68:6f:45:b6:1b:
                    2f:c3:46:de:e0:23:ad:dd:b4:0e:b5:93:38:f2:e8:
                    a8:3a:7b:4f:a5:72:1e:86:98:cd:e8:3a:41:ef:2f:
                    d5:67:0b:46:34:6c:6c:74:7e:40:51:1a:f0:33:f1:
                    73:35
                Exponent: 65537 (0x10001)
        X509v3 extensions:
            X509v3 Basic Constraints: 
                CA:FALSE
            X509v3 Subject Key Identifier: 
                33:0F:6A:44:7E:D6:86:ED:46:89:D0:34:5D:42:AD:6A:0D:CF:70:4D
            X509v3 Authority Key Identifier: 
                keyid:1E:97:D9:4E:BC:D7:D1:51:68:AE:40:3A:5C:6B:29:DF:A4:F2:9C:41
                DirName:/CN=team366-net
                serial:01:9E:45:68:16:68:9C:C8:9B:B3:E2:D3:A6:59:AC:13:F5:E1:FF:4E
            X509v3 Extended Key Usage: 
                TLS Web Server Authentication
            X509v3 Key Usage: 
                Digital Signature, Key Encipherment
            X509v3 Subject Alternative Name: 
                DNS:team366-server
    Signature Algorithm: sha256WithRSAEncryption
    Signature Value:
        8f:10:7b:76:3c:da:fc:e9:e3:95:8c:49:7b:ee:7a:47:38:c2:
        ad:15:94:69:7c:e9:23:3a:3e:0c:5f:82:65:59:03:2d:cf:64:
        97:74:35:ac:bf:f2:c9:cc:a8:c5:84:b2:24:e4:c9:c6:16:f1:
        91:87:59:a1:ad:e5:04:55:37:ae:f1:cd:46:d1:eb:54:ba:85:
        2f:10:9e:a5:c7:dc:e7:8e:ae:70:db:d5:48:50:15:a5:44:2f:
        7b:28:0d:77:b2:bc:2a:f7:ef:74:c2:51:91:df:69:56:05:83:
        54:c4:27:b8:e7:70:97:39:a8:96:8f:05:5b:bd:f7:ce:6b:6e:
        62:4f:df:90:4f:53:76:c9:db:a9:9d:2b:5c:5f:1e:3f:06:8f:
        56:8c:52:6b:7c:5a:f0:9e:70:5d:59:7c:51:2d:5d:d1:f0:27:
        ad:0a:83:62:7a:2f:ad:b8:20:ba:63:ca:4c:1f:86:ce:99:af:
        ee:a0:e7:1d:fd:3d:59:fa:a9:cf:59:a7:7b:74:90:a1:09:c9:
        e4:15:bd:d6:f7:37:03:28:95:68:4a:f1:fb:ab:da:45:05:72:
        be:ff:71:7c:d1:ec:53:1e:91:c8:ce:61:5e:4f:b4:14:ba:88:
        63:33:83:fc:12:ce:3b:23:5d:52:35:33:0e:89:02:58:c8:d6:
        85:52:b4:1b
-----BEGIN CERTIFICATE-----
MIIDeDCCAmCgAwIBAgIRAKnwgOvsjj+QTrCEVfbqnkcwDQYJKoZIhvcNAQELBQAw
FjEUMBIGA1UEAwwLdGVhbTM2Ni1uZXQwHhcNMjMxMTAzMjA0NTU1WhcNMjYxMDE4
MjA0NTU1WjAZMRcwFQYDVQQDDA50ZWFtMzY2LXNlcnZlcjCCASIwDQYJKoZIhvcN
AQEBBQADggEPADCCAQoCggEBAL2wviSxYYcgseg4iXp9Pm9kzCA7LABiIluQHaMF
0rZGtXfG1pIn9ZWBl/bQywxh/wUw8MRQT7igYEECAfCapPiW/3f+PTTd9kTT+0f6
pipWFANmoX1rJFtz0Yn445otKfzL+pYQHJ0GaYw4FCS9JYzqKU/0NseTGj+E9Op1
7/P69w+q5Ot7OxjbnLfRVpg72Tw76+Efh8t04LvyDZNcr7sIqm8MH7UY8DDynJ1W
pWwgYYTJM1zk+69IloTw6txgGJIIM+GqTQAn1FvOIWhvRbYbL8NG3uAjrd20DrWT
OPLoqDp7T6VyHoaYzeg6Qe8v1WcLRjRsbHR+QFEa8DPxczUCAwEAAaOBvTCBujAJ
BgNVHRMEAjAAMB0GA1UdDgQWBBQzD2pEftaG7UaJ0DRdQq1qDc9wTTBRBgNVHSME
SjBIgBQel9lOvNfRUWiuQDpcaynfpPKcQaEapBgwFjEUMBIGA1UEAwwLdGVhbTM2
Ni1uZXSCFAGeRWgWaJzIm7Pi06ZZrBP14f9OMBMGA1UdJQQMMAoGCCsGAQUFBwMB
MAsGA1UdDwQEAwIFoDAZBgNVHREEEjAQgg50ZWFtMzY2LXNlcnZlcjANBgkqhkiG
9w0BAQsFAAOCAQEAjxB7djza/OnjlYxJe+56RzjCrRWUaXzpIzo+DF+CZVkDLc9k
l3Q1rL/yycyoxYSyJOTJxhbxkYdZoa3lBFU3rvHNRtHrVLqFLxCepcfc546ucNvV
SFAVpUQveygNd7K8KvfvdMJRkd9pVgWDVMQnuOdwlzmolo8FW733zmtuYk/fkE9T
dsnbqZ0rXF8ePwaPVoxSa3xa8J5wXVl8US1d0fAnrQqDYnovrbggumPKTB+Gzpmv
7qDnHf09Wfqpz1mne3SQoQnJ5BW91vc3AyiVaErx+6vaRQVyvv9xfNHsUx6RyM5h
Xk+0FLqIYzOD/BLOOyNdUjUzDokCWMjWhVK0Gw==
-----END CERTIFICATE-----
