Certificate:
    Data:
        Version: 3 (0x2)
        Serial Number:
            42:b9:7f:5d:82:72:ff:96:1c:76:e6:81:f7:f9:09:31
        Signature Algorithm: sha256WithRSAEncryption
        Issuer: CN=team276-net
        Validity
            Not Before: Nov  4 10:45:46 2023 GMT
            Not After : Oct 19 10:45:46 2026 GMT
        Subject: CN=team276-server
        Subject Public Key Info:
            Public Key Algorithm: rsaEncryption
                Public-Key: (2048 bit)
                Modulus:
                    00:bb:51:70:36:df:cc:67:b4:c6:d2:3f:98:c7:31:
                    12:0f:13:0b:f4:b5:d5:b4:0d:45:df:16:40:3b:4f:
                    38:3b:2c:03:8e:3e:ad:8f:91:b9:01:9b:2e:38:93:
                    7b:c1:db:89:60:a2:b4:9d:16:9b:a1:8c:cc:4d:ca:
                    e7:f5:43:ab:ff:9d:0d:d5:01:af:8f:8b:20:70:5b:
                    3e:f0:00:d8:b1:c2:7f:82:56:c8:ef:fd:c2:3c:0c:
                    71:44:ce:b6:26:0b:01:1a:21:a1:a9:ad:2f:6f:eb:
                    7c:2a:73:49:48:1b:bc:5f:b2:61:7d:75:c8:5d:85:
                    bd:d0:8a:2a:be:22:a3:1c:ee:74:7e:ba:e0:1d:a6:
                    92:cb:cc:48:76:f8:1b:0b:3b:50:9d:dd:68:d3:25:
                    5c:0c:2f:fe:8b:d9:82:c1:c1:1c:fc:19:2b:5f:d2:
                    e5:d1:23:22:b3:94:4c:cb:5f:01:dc:8d:a6:bc:16:
                    3a:81:54:f0:bd:4b:e2:cf:a9:02:f6:94:f4:31:bd:
                    c0:b3:1d:5f:d3:c1:94:f8:06:8d:26:ba:ab:2c:d4:
                    01:76:64:8a:19:6f:e9:a4:98:05:16:82:62:eb:b9:
                    21:25:0b:91:3a:9d:3c:3a:f8:a8:a5:ac:ca:48:d3:
                    58:78:f3:ea:d1:96:41:b0:19:ae:da:aa:f5:e8:d2:
                    2b:db
                Exponent: 65537 (0x10001)
        X509v3 extensions:
            X509v3 Basic Constraints: 
                CA:FALSE
            X509v3 Subject Key Identifier: 
                7B:23:E6:2D:F3:18:69:1F:D4:E5:29:BA:40:6D:C6:6C:5E:60:A6:1D
            X509v3 Authority Key Identifier: 
                keyid:8F:F8:FA:68:09:03:B2:63:DF:77:53:D3:D9:6C:6F:6A:C4:A7:DB:1C
                DirName:/CN=team276-net
                serial:68:36:1D:E3:DB:ED:22:FB:3D:31:99:EC:92:4C:3E:A2:97:3A:FA:4D
            X509v3 Extended Key Usage: 
                TLS Web Server Authentication
            X509v3 Key Usage: 
                Digital Signature, Key Encipherment
            X509v3 Subject Alternative Name: 
                DNS:team276-server
    Signature Algorithm: sha256WithRSAEncryption
    Signature Value:
        b4:90:a2:50:1b:99:07:04:e7:b0:22:2a:43:85:fb:ab:96:44:
        af:1a:dc:8e:c2:8b:1a:c9:39:8e:07:b0:dd:46:8a:20:16:be:
        4e:a0:8c:6c:68:ba:af:08:dc:68:68:2f:86:d5:7a:d7:4e:b0:
        f7:fe:d4:84:69:f3:20:f6:f8:59:bb:ab:51:68:f5:eb:b0:8a:
        53:09:e4:63:7c:bd:33:9e:60:fe:59:2f:bd:ce:1e:9c:cf:ee:
        c1:11:bc:1d:6a:b1:e5:d9:f7:cb:cd:19:ec:30:e8:f6:04:7b:
        1b:28:b1:4d:90:e4:7d:9b:34:42:d0:bd:a3:9c:33:be:bb:12:
        cd:ae:4b:97:c1:bf:21:9e:b0:e0:17:0f:ce:ec:78:bd:d2:c4:
        9e:4b:01:ce:9d:e6:96:14:3d:ec:31:f9:6b:6f:c1:50:8e:69:
        0c:ed:d4:70:c0:d2:8e:85:cd:10:73:f3:7d:b2:54:a2:d3:21:
        8a:aa:41:76:cb:24:85:6c:79:33:69:07:53:f3:9f:37:6e:a4:
        a0:06:fa:a9:f5:0f:dc:66:4c:4b:d9:ec:c8:44:8c:4c:d5:35:
        a8:2a:d0:f7:2e:52:73:9a:79:07:31:83:27:da:32:7d:0e:8c:
        9c:ed:ac:22:2f:c9:47:6b:de:ac:f5:d8:e6:42:46:c7:fa:d0:
        68:2c:97:b3
-----BEGIN CERTIFICATE-----
MIIDdzCCAl+gAwIBAgIQQrl/XYJy/5YcduaB9/kJMTANBgkqhkiG9w0BAQsFADAW
MRQwEgYDVQQDDAt0ZWFtMjc2LW5ldDAeFw0yMzExMDQxMDQ1NDZaFw0yNjEwMTkx
MDQ1NDZaMBkxFzAVBgNVBAMMDnRlYW0yNzYtc2VydmVyMIIBIjANBgkqhkiG9w0B
AQEFAAOCAQ8AMIIBCgKCAQEAu1FwNt/MZ7TG0j+YxzESDxML9LXVtA1F3xZAO084
OywDjj6tj5G5AZsuOJN7wduJYKK0nRaboYzMTcrn9UOr/50N1QGvj4sgcFs+8ADY
scJ/glbI7/3CPAxxRM62JgsBGiGhqa0vb+t8KnNJSBu8X7JhfXXIXYW90IoqviKj
HO50frrgHaaSy8xIdvgbCztQnd1o0yVcDC/+i9mCwcEc/BkrX9Ll0SMis5RMy18B
3I2mvBY6gVTwvUviz6kC9pT0Mb3Asx1f08GU+AaNJrqrLNQBdmSKGW/ppJgFFoJi
67khJQuROp08OviopazKSNNYePPq0ZZBsBmu2qr16NIr2wIDAQABo4G9MIG6MAkG
A1UdEwQCMAAwHQYDVR0OBBYEFHsj5i3zGGkf1OUpukBtxmxeYKYdMFEGA1UdIwRK
MEiAFI/4+mgJA7Jj33dT09lsb2rEp9scoRqkGDAWMRQwEgYDVQQDDAt0ZWFtMjc2
LW5ldIIUaDYd49vtIvs9MZnskkw+opc6+k0wEwYDVR0lBAwwCgYIKwYBBQUHAwEw
CwYDVR0PBAQDAgWgMBkGA1UdEQQSMBCCDnRlYW0yNzYtc2VydmVyMA0GCSqGSIb3
DQEBCwUAA4IBAQC0kKJQG5kHBOewIipDhfurlkSvGtyOwosayTmOB7DdRoogFr5O
oIxsaLqvCNxoaC+G1XrXTrD3/tSEafMg9vhZu6tRaPXrsIpTCeRjfL0znmD+WS+9
zh6cz+7BEbwdarHl2ffLzRnsMOj2BHsbKLFNkOR9mzRC0L2jnDO+uxLNrkuXwb8h
nrDgFw/O7Hi90sSeSwHOneaWFD3sMflrb8FQjmkM7dRwwNKOhc0Qc/N9slSi0yGK
qkF2yySFbHkzaQdT8583bqSgBvqp9Q/cZkxL2ezIRIxM1TWoKtD3LlJzmnkHMYMn
2jJ9Doyc7awiL8lHa96s9djmQkbH+tBoLJez
-----END CERTIFICATE-----
