Certificate:
    Data:
        Version: 3 (0x2)
        Serial Number:
            7f:55:f5:c7:b4:7e:9d:b1:8d:61:90:0c:11:05:1c:77
        Signature Algorithm: sha256WithRSAEncryption
        Issuer: CN=team276-net
        Validity
            Not Before: Nov  4 10:45:46 2023 GMT
            Not After : Oct 19 10:45:46 2026 GMT
        Subject: CN=team276-client
        Subject Public Key Info:
            Public Key Algorithm: rsaEncryption
                Public-Key: (2048 bit)
                Modulus:
                    00:90:fa:65:85:fb:02:b1:ce:64:b8:7f:25:b0:41:
                    ba:4e:2a:c8:98:d1:30:86:f0:ee:4c:6e:29:3e:f7:
                    8f:b9:0d:c4:5b:9a:c1:fe:5b:06:94:11:b1:e9:c9:
                    7d:70:37:53:f2:b1:bc:5a:4f:92:c6:92:a4:77:bc:
                    0b:29:2f:7f:f0:ce:ca:32:b8:4f:ab:e3:ff:f5:95:
                    54:67:90:e6:5f:bf:b8:48:56:b8:81:bf:0b:ec:87:
                    62:58:17:50:f0:0f:10:97:05:12:9f:0f:44:33:f1:
                    a6:cb:77:5a:33:aa:2a:04:0b:cf:2d:de:3d:6d:75:
                    e3:34:3d:c6:bd:2a:d9:07:f8:a7:99:47:48:3b:ac:
                    a5:25:55:fc:a3:66:dc:8a:d9:30:09:97:e0:d1:18:
                    ec:93:1a:0f:7a:14:2c:6c:81:c2:59:c4:92:a1:52:
                    dd:3d:57:3e:7c:3c:9f:ba:eb:8b:10:ea:22:ec:2b:
                    aa:d1:e6:ce:39:c4:78:99:45:81:37:d3:70:32:98:
                    ee:b9:cf:5b:c2:3c:1b:6f:77:e7:5f:65:f0:21:92:
                    64:70:ad:9a:14:9a:aa:b1:69:9f:05:47:ae:03:23:
                    9b:ab:48:85:b6:39:48:8f:e3:35:97:aa:cf:dd:e4:
                    79:a3:df:a6:61:08:0c:ce:bc:38:b7:98:1f:80:6c:
                    fc:9d
                Exponent: 65537 (0x10001)
        X509v3 extensions:
            X509v3 Basic Constraints: 
                CA:FALSE
            X509v3 Subject Key Identifier: 
                6C:72:E8:90:9A:8E:9D:3D:03:6B:DB:2C:EF:EA:5C:CA:A8:12:EA:0A
            X509v3 Authority Key Identifier: 
                keyid:8F:F8:FA:68:09:03:B2:63:DF:77:53:D3:D9:6C:6F:6A:C4:A7:DB:1C
                DirName:/CN=team276-net
                serial:68:36:1D:E3:DB:ED:22:FB:3D:31:99:EC:92:4C:3E:A2:97:3A:FA:4D
            X509v3 Extended Key Usage: 
                TLS Web Client Authentication
            X509v3 Key Usage: 
                Digital Signature
    Signature Algorithm: sha256WithRSAEncryption
    Signature Value:
        03:02:2e:81:1c:bd:51:3d:d7:65:c9:36:08:bf:1d:66:6b:d7:
        0c:03:4c:1e:ef:a4:54:3b:c5:54:6e:94:95:53:96:43:4b:25:
        d5:31:30:0a:50:41:5e:f9:46:39:8a:9b:93:97:0e:75:7d:23:
        15:07:ce:fe:fe:d2:95:27:20:e7:2a:65:32:63:30:7f:a0:c9:
        26:2f:27:54:d1:40:77:86:16:ae:0c:a7:e6:5c:64:02:6a:42:
        b1:24:83:11:64:19:86:05:09:14:1a:b4:41:4e:f7:1e:51:fd:
        f9:b0:1d:49:53:d9:1b:04:a4:0f:22:66:f4:02:fa:90:91:76:
        49:fd:c4:0b:ee:1f:19:78:af:7d:3e:3d:1b:44:f0:d7:4b:11:
        b1:c3:76:ad:9c:7f:8a:1a:66:96:af:74:d0:a7:ca:47:b9:5b:
        09:07:8f:05:ec:30:74:38:2e:9f:37:da:f2:28:79:98:67:48:
        70:f4:04:55:ac:65:b1:6e:49:99:43:83:e8:9d:dd:5f:be:c0:
        60:75:db:13:03:2a:6b:06:c5:5b:b7:d4:69:fa:29:38:41:45:
        6a:41:72:59:bc:76:17:ad:58:5d:64:2f:cd:14:82:af:06:d4:
        18:df:0a:e4:6e:5c:8e:9b:65:49:50:9d:f4:7a:6c:6e:c5:e1:
        b9:e2:96:7e
-----BEGIN CERTIFICATE-----
MIIDXDCCAkSgAwIBAgIQf1X1x7R+nbGNYZAMEQUcdzANBgkqhkiG9w0BAQsFADAW
MRQwEgYDVQQDDAt0ZWFtMjc2LW5ldDAeFw0yMzExMDQxMDQ1NDZaFw0yNjEwMTkx
MDQ1NDZaMBkxFzAVBgNVBAMMDnRlYW0yNzYtY2xpZW50MIIBIjANBgkqhkiG9w0B
AQEFAAOCAQ8AMIIBCgKCAQEAkPplhfsCsc5kuH8lsEG6TirImNEwhvDuTG4pPveP
uQ3EW5rB/lsGlBGx6cl9cDdT8rG8Wk+SxpKkd7wLKS9/8M7KMrhPq+P/9ZVUZ5Dm
X7+4SFa4gb8L7IdiWBdQ8A8QlwUSnw9EM/Gmy3daM6oqBAvPLd49bXXjND3GvSrZ
B/inmUdIO6ylJVX8o2bcitkwCZfg0RjskxoPehQsbIHCWcSSoVLdPVc+fDyfuuuL
EOoi7Cuq0ebOOcR4mUWBN9NwMpjuuc9bwjwbb3fnX2XwIZJkcK2aFJqqsWmfBUeu
AyObq0iFtjlIj+M1l6rP3eR5o9+mYQgMzrw4t5gfgGz8nQIDAQABo4GiMIGfMAkG
A1UdEwQCMAAwHQYDVR0OBBYEFGxy6JCajp09A2vbLO/qXMqoEuoKMFEGA1UdIwRK
MEiAFI/4+mgJA7Jj33dT09lsb2rEp9scoRqkGDAWMRQwEgYDVQQDDAt0ZWFtMjc2
LW5ldIIUaDYd49vtIvs9MZnskkw+opc6+k0wEwYDVR0lBAwwCgYIKwYBBQUHAwIw
CwYDVR0PBAQDAgeAMA0GCSqGSIb3DQEBCwUAA4IBAQADAi6BHL1RPddlyTYIvx1m
a9cMA0we76RUO8VUbpSVU5ZDSyXVMTAKUEFe+UY5ipuTlw51fSMVB87+/tKVJyDn
KmUyYzB/oMkmLydU0UB3hhauDKfmXGQCakKxJIMRZBmGBQkUGrRBTvceUf35sB1J
U9kbBKQPImb0AvqQkXZJ/cQL7h8ZeK99Pj0bRPDXSxGxw3atnH+KGmaWr3TQp8pH
uVsJB48F7DB0OC6fN9ryKHmYZ0hw9ARVrGWxbkmZQ4Pond1fvsBgddsTAyprBsVb
t9Rp+ik4QUVqQXJZvHYXrVhdZC/NFIKvBtQY3wrkblyOm2VJUJ30emxuxeG54pZ+
-----END CERTIFICATE-----
