Certificate:
    Data:
        Version: 3 (0x2)
        Serial Number:
            01:91:91:a9:f0:6b:64:ec:d4:d3:57:75:22:3e:89:ec
        Signature Algorithm: sha256WithRSAEncryption
        Issuer: CN=team354-net
        Validity
            Not Before: Nov  4 11:35:17 2023 GMT
            Not After : Oct 19 11:35:17 2026 GMT
        Subject: CN=team354-server
        Subject Public Key Info:
            Public Key Algorithm: rsaEncryption
                Public-Key: (2048 bit)
                Modulus:
                    00:e6:93:b7:57:1a:c8:4f:fc:d6:73:32:c4:68:59:
                    46:a1:a5:22:23:94:3d:1c:fb:31:11:49:c7:0e:e4:
                    b6:ad:c8:37:f7:30:d0:06:d7:38:89:1e:bd:ca:9e:
                    02:54:ae:23:bb:d8:64:ae:34:e9:d2:2e:8c:ad:55:
                    43:50:bd:3a:11:ca:19:e8:c7:c6:07:f9:a2:31:bb:
                    3d:fa:a1:71:2f:a5:69:51:52:e2:da:e0:c2:b9:3f:
                    63:e9:4a:e4:79:39:8b:c7:5e:e5:a9:f2:1d:d9:6b:
                    89:1d:59:b0:73:63:61:cc:3a:6d:34:89:e0:c4:34:
                    b5:8d:92:29:ec:4b:c1:c6:e5:b6:fd:b3:4f:01:68:
                    78:56:db:e0:1a:5e:a1:c9:23:d8:f1:87:d7:1e:f8:
                    8a:65:fb:da:a4:2e:62:78:ba:f3:16:fc:55:2a:73:
                    39:ce:ee:6f:27:77:0b:c9:97:f0:3d:2d:6c:5d:ba:
                    e3:a0:2c:a6:1a:19:d7:d9:9f:55:1d:d6:dd:ad:d2:
                    db:18:93:04:6f:d2:06:e8:8c:3c:65:33:4c:8a:e0:
                    92:49:88:82:88:dd:ad:c5:2e:1f:b8:5c:d2:a4:19:
                    70:d2:55:a6:b7:6e:57:89:67:b7:77:ff:af:ab:42:
                    d5:63:3e:39:de:a5:8c:4e:9f:c9:74:8d:b3:dd:1f:
                    36:f1
                Exponent: 65537 (0x10001)
        X509v3 extensions:
            X509v3 Basic Constraints: 
                CA:FALSE
            X509v3 Subject Key Identifier: 
                19:58:60:BB:B8:36:5E:EB:44:B7:0D:7C:B2:D0:FC:F3:DE:82:46:52
            X509v3 Authority Key Identifier: 
                keyid:6B:18:28:6F:6A:67:37:F3:34:CD:3C:54:05:B2:3E:A9:93:2B:2B:91
                DirName:/CN=team354-net
                serial:59:E8:31:5E:E7:1A:54:EE:5E:B6:93:1F:4F:2F:47:07:FD:DE:3F:C8
            X509v3 Extended Key Usage: 
                TLS Web Server Authentication
            X509v3 Key Usage: 
                Digital Signature, Key Encipherment
            X509v3 Subject Alternative Name: 
                DNS:team354-server
    Signature Algorithm: sha256WithRSAEncryption
    Signature Value:
        34:19:56:76:60:99:7d:3d:70:39:d0:98:90:5b:69:7a:2d:19:
        1d:e5:1a:ca:56:46:85:0e:e3:16:d9:31:77:33:31:e3:8c:9b:
        9e:ca:68:10:8a:74:07:d0:28:7a:ce:a9:43:98:03:38:85:4d:
        53:96:0d:c1:3c:b8:1b:ec:ca:d8:a9:a5:9e:35:e1:f1:c0:8e:
        24:eb:73:1d:e9:8e:40:ba:9a:f7:26:0d:41:d1:c3:0b:97:5e:
        b3:79:19:1a:77:84:b7:24:21:cd:5a:ee:3e:32:a0:b9:9a:62:
        b5:fc:b5:42:9c:ba:54:98:9a:24:6f:c4:fd:af:25:9b:8e:85:
        f8:de:10:50:7e:90:52:4e:03:78:99:e3:c0:b0:39:dd:5f:7a:
        6f:e9:f9:e1:a4:e5:09:fe:65:59:e4:33:be:8b:61:a1:6e:42:
        55:4a:1f:62:d3:ee:80:8c:16:53:e8:4f:d9:3a:7e:2f:85:09:
        d4:bd:39:68:79:e9:98:41:83:8a:b0:7b:71:51:db:99:2f:f8:
        37:01:8b:63:7e:e7:d7:f2:24:88:15:e3:5d:6d:20:e9:f7:13:
        25:f5:0a:95:f0:0f:be:5d:a3:5a:5f:88:d3:34:05:11:e7:14:
        e2:1e:92:99:2e:bd:91:3c:45:1e:c9:82:41:e6:76:4b:49:28:
        e8:de:e9:ee
-----BEGIN CERTIFICATE-----
MIIDdzCCAl+gAwIBAgIQAZGRqfBrZOzU01d1Ij6J7DANBgkqhkiG9w0BAQsFADAW
MRQwEgYDVQQDDAt0ZWFtMzU0LW5ldDAeFw0yMzExMDQxMTM1MTdaFw0yNjEwMTkx
MTM1MTdaMBkxFzAVBgNVBAMMDnRlYW0zNTQtc2VydmVyMIIBIjANBgkqhkiG9w0B
AQEFAAOCAQ8AMIIBCgKCAQEA5pO3VxrIT/zWczLEaFlGoaUiI5Q9HPsxEUnHDuS2
rcg39zDQBtc4iR69yp4CVK4ju9hkrjTp0i6MrVVDUL06EcoZ6MfGB/miMbs9+qFx
L6VpUVLi2uDCuT9j6UrkeTmLx17lqfId2WuJHVmwc2NhzDptNIngxDS1jZIp7EvB
xuW2/bNPAWh4VtvgGl6hySPY8YfXHviKZfvapC5ieLrzFvxVKnM5zu5vJ3cLyZfw
PS1sXbrjoCymGhnX2Z9VHdbdrdLbGJMEb9IG6Iw8ZTNMiuCSSYiCiN2txS4fuFzS
pBlw0lWmt25XiWe3d/+vq0LVYz453qWMTp/JdI2z3R828QIDAQABo4G9MIG6MAkG
A1UdEwQCMAAwHQYDVR0OBBYEFBlYYLu4Nl7rRLcNfLLQ/PPegkZSMFEGA1UdIwRK
MEiAFGsYKG9qZzfzNM08VAWyPqmTKyuRoRqkGDAWMRQwEgYDVQQDDAt0ZWFtMzU0
LW5ldIIUWegxXucaVO5etpMfTy9HB/3eP8gwEwYDVR0lBAwwCgYIKwYBBQUHAwEw
CwYDVR0PBAQDAgWgMBkGA1UdEQQSMBCCDnRlYW0zNTQtc2VydmVyMA0GCSqGSIb3
DQEBCwUAA4IBAQA0GVZ2YJl9PXA50JiQW2l6LRkd5RrKVkaFDuMW2TF3MzHjjJue
ymgQinQH0Ch6zqlDmAM4hU1Tlg3BPLgb7MrYqaWeNeHxwI4k63Md6Y5Aupr3Jg1B
0cMLl16zeRkad4S3JCHNWu4+MqC5mmK1/LVCnLpUmJokb8T9ryWbjoX43hBQfpBS
TgN4mePAsDndX3pv6fnhpOUJ/mVZ5DO+i2GhbkJVSh9i0+6AjBZT6E/ZOn4vhQnU
vTloeemYQYOKsHtxUduZL/g3AYtjfufX8iSIFeNdbSDp9xMl9QqV8A++XaNaX4jT
NAUR5xTiHpKZLr2RPEUeyYJB5nZLSSjo3unu
-----END CERTIFICATE-----
