Certificate:
    Data:
        Version: 3 (0x2)
        Serial Number:
            23:5c:60:ed:3d:2d:58:ae:f7:bf:47:38:6f:e7:ae:aa
        Signature Algorithm: sha256WithRSAEncryption
        Issuer: CN=team354-net
        Validity
            Not Before: Nov  3 20:45:43 2023 GMT
            Not After : Oct 18 20:45:43 2026 GMT
        Subject: CN=team354-server
        Subject Public Key Info:
            Public Key Algorithm: rsaEncryption
                Public-Key: (2048 bit)
                Modulus:
                    00:b4:4f:c2:ab:ab:94:f9:bb:6f:f4:51:39:7a:6c:
                    ff:8b:9f:08:3b:b1:00:f3:fa:9d:12:9d:b2:11:95:
                    34:28:09:30:1d:d4:9e:36:50:1f:50:d4:f8:a2:68:
                    90:01:4b:ee:00:a8:c2:6e:6d:f7:80:24:cc:03:b2:
                    a8:b1:b6:87:e6:90:e0:ca:c5:35:67:f0:c4:24:ee:
                    e3:76:62:36:34:03:83:92:ab:b2:f2:e4:11:a4:13:
                    05:c9:21:ad:be:9d:63:b3:3b:3d:9c:f0:b0:a8:3d:
                    af:86:02:ed:e1:03:8d:de:be:dc:68:e6:34:43:4d:
                    36:bf:96:c3:f9:88:31:09:02:8c:05:e3:8e:ba:f7:
                    0d:8b:04:a4:33:f5:a1:a0:ac:5c:6b:fe:0e:ff:7c:
                    58:16:a9:c6:1c:60:43:9a:34:f4:de:76:c4:ff:c5:
                    0f:6b:ff:13:43:0d:c8:8e:22:fd:88:49:d1:c1:85:
                    1d:26:42:a2:d8:5d:65:7e:e6:5a:a0:65:89:a7:e8:
                    22:09:7a:88:18:a1:41:e3:6c:26:c0:26:75:af:40:
                    82:14:9d:c3:8a:fe:c5:ca:ac:a8:1d:a3:0f:1c:17:
                    02:68:8a:9c:96:ee:47:29:35:4e:15:16:b5:0e:f2:
                    74:cf:0b:20:d5:d6:6f:59:5e:4c:44:65:87:89:77:
                    05:2f
                Exponent: 65537 (0x10001)
        X509v3 extensions:
            X509v3 Basic Constraints: 
                CA:FALSE
            X509v3 Subject Key Identifier: 
                B2:EE:46:F7:D2:66:E0:AA:03:C7:A0:C8:3D:37:C2:E6:4F:4A:4A:3A
            X509v3 Authority Key Identifier: 
                keyid:7E:05:FD:B4:A9:1F:6D:6C:F8:4C:67:56:B3:9A:D9:42:76:2D:47:B7
                DirName:/CN=team354-net
                serial:01:18:EA:57:16:E6:9C:09:46:EA:3A:05:CF:F6:EC:E2:0F:E8:AC:8E
            X509v3 Extended Key Usage: 
                TLS Web Server Authentication
            X509v3 Key Usage: 
                Digital Signature, Key Encipherment
            X509v3 Subject Alternative Name: 
                DNS:team354-server
    Signature Algorithm: sha256WithRSAEncryption
    Signature Value:
        a5:c7:ef:12:83:af:9b:0e:42:cf:32:13:1c:d2:f8:c3:66:3e:
        d9:09:4d:88:6b:9b:74:10:f0:85:9c:d2:ae:38:92:fa:76:08:
        7b:bb:93:b8:ff:b3:9d:a8:15:88:39:13:90:42:0d:e1:b5:56:
        31:29:62:9a:d3:6c:f3:4c:37:e9:ff:4c:e4:97:65:2b:af:aa:
        df:66:d4:10:15:6a:ac:7d:e7:b3:ec:d5:18:9f:d2:eb:53:63:
        1f:ae:01:88:27:7c:51:76:0b:70:25:eb:00:7d:20:e7:2c:b2:
        0d:30:a8:ef:7d:6e:ee:f8:08:0d:ea:3c:f3:9a:e9:8c:70:d0:
        49:9d:e6:76:84:67:6c:2b:ae:22:f5:65:6d:14:6e:df:f6:15:
        76:88:63:ed:41:08:da:17:65:db:73:14:9d:30:5a:9a:07:79:
        ad:d9:94:ff:fa:db:b7:b3:e7:bf:e1:17:fa:77:40:8d:3e:21:
        17:56:b1:75:21:5f:49:3d:2c:fc:33:82:53:3f:28:e9:4d:7f:
        85:bb:69:f2:7b:ef:80:57:02:18:51:ff:f8:b6:55:c1:b0:bc:
        0b:2d:77:a7:a7:26:f8:62:e2:02:a7:8a:3d:c6:fc:48:f6:ff:
        d8:4c:9b:c3:90:f6:4f:be:88:6a:74:b2:b9:dc:c2:c0:eb:e9:
        aa:d2:cb:13
-----BEGIN CERTIFICATE-----
MIIDdzCCAl+gAwIBAgIQI1xg7T0tWK73v0c4b+euqjANBgkqhkiG9w0BAQsFADAW
MRQwEgYDVQQDDAt0ZWFtMzU0LW5ldDAeFw0yMzExMDMyMDQ1NDNaFw0yNjEwMTgy
MDQ1NDNaMBkxFzAVBgNVBAMMDnRlYW0zNTQtc2VydmVyMIIBIjANBgkqhkiG9w0B
AQEFAAOCAQ8AMIIBCgKCAQEAtE/Cq6uU+btv9FE5emz/i58IO7EA8/qdEp2yEZU0
KAkwHdSeNlAfUNT4omiQAUvuAKjCbm33gCTMA7KosbaH5pDgysU1Z/DEJO7jdmI2
NAODkquy8uQRpBMFySGtvp1jszs9nPCwqD2vhgLt4QON3r7caOY0Q002v5bD+Ygx
CQKMBeOOuvcNiwSkM/WhoKxca/4O/3xYFqnGHGBDmjT03nbE/8UPa/8TQw3IjiL9
iEnRwYUdJkKi2F1lfuZaoGWJp+giCXqIGKFB42wmwCZ1r0CCFJ3Div7FyqyoHaMP
HBcCaIqclu5HKTVOFRa1DvJ0zwsg1dZvWV5MRGWHiXcFLwIDAQABo4G9MIG6MAkG
A1UdEwQCMAAwHQYDVR0OBBYEFLLuRvfSZuCqA8egyD03wuZPSko6MFEGA1UdIwRK
MEiAFH4F/bSpH21s+ExnVrOa2UJ2LUe3oRqkGDAWMRQwEgYDVQQDDAt0ZWFtMzU0
LW5ldIIUARjqVxbmnAlG6joFz/bs4g/orI4wEwYDVR0lBAwwCgYIKwYBBQUHAwEw
CwYDVR0PBAQDAgWgMBkGA1UdEQQSMBCCDnRlYW0zNTQtc2VydmVyMA0GCSqGSIb3
DQEBCwUAA4IBAQClx+8Sg6+bDkLPMhMc0vjDZj7ZCU2Ia5t0EPCFnNKuOJL6dgh7
u5O4/7OdqBWIOROQQg3htVYxKWKa02zzTDfp/0zkl2Urr6rfZtQQFWqsfeez7NUY
n9LrU2MfrgGIJ3xRdgtwJesAfSDnLLINMKjvfW7u+AgN6jzzmumMcNBJneZ2hGds
K64i9WVtFG7f9hV2iGPtQQjaF2XbcxSdMFqaB3mt2ZT/+tu3s+e/4Rf6d0CNPiEX
VrF1IV9JPSz8M4JTPyjpTX+Fu2nye++AVwIYUf/4tlXBsLwLLXenpyb4YuICp4o9
xvxI9v/YTJvDkPZPvohqdLK53MLA6+mq0ssT
-----END CERTIFICATE-----
