Certificate:
    Data:
        Version: 3 (0x2)
        Serial Number:
            e5:a2:55:2d:96:18:4c:b4:3b:3f:b2:e6:26:ae:e7:96
        Signature Algorithm: sha256WithRSAEncryption
        Issuer: CN=team354-net
        Validity
            Not Before: Nov  4 11:35:16 2023 GMT
            Not After : Oct 19 11:35:16 2026 GMT
        Subject: CN=team354-client
        Subject Public Key Info:
            Public Key Algorithm: rsaEncryption
                Public-Key: (2048 bit)
                Modulus:
                    00:b3:7c:a6:c8:1e:65:89:d6:a8:14:86:1a:79:fd:
                    2c:8d:21:d2:e3:aa:d5:66:e5:ce:ae:b9:29:6e:cb:
                    62:8b:5e:5d:1c:64:89:b8:fe:2f:15:72:17:da:6d:
                    26:a1:17:c8:64:34:5b:73:11:e0:3c:64:d9:7d:dc:
                    10:62:8e:77:df:38:31:1f:1e:4a:da:40:7e:ed:88:
                    8e:61:21:0f:6b:e7:80:af:7a:77:3b:57:d9:61:25:
                    ee:67:8e:f0:dc:22:a3:61:eb:1d:3a:d6:32:46:8c:
                    fb:9a:0e:ce:70:4a:6f:36:35:66:fe:62:0b:5e:8e:
                    8a:1c:16:86:52:9c:2c:f3:16:41:e3:8a:2e:b5:b1:
                    26:f6:9c:8a:f4:2c:bb:76:23:84:0f:8b:6a:61:b9:
                    29:ff:7e:a2:4a:09:1b:21:06:af:07:4c:d7:a5:b9:
                    76:54:3d:64:ec:47:c1:29:5d:99:8b:28:9e:99:24:
                    3d:b2:0e:e6:af:34:2a:e8:3a:ba:ee:22:b0:9a:68:
                    38:3a:f9:78:e2:c7:1b:b7:4c:db:69:56:15:81:c0:
                    4b:7b:6d:cf:03:6a:cb:60:81:6e:1c:21:83:3f:3e:
                    5a:e0:7c:41:28:d2:b0:71:cd:80:d1:d6:c2:e3:f3:
                    da:3d:e2:b3:40:56:c5:13:ea:b0:15:7c:f4:16:6a:
                    ed:03
                Exponent: 65537 (0x10001)
        X509v3 extensions:
            X509v3 Basic Constraints: 
                CA:FALSE
            X509v3 Subject Key Identifier: 
                9D:56:F2:D2:79:1A:59:6A:95:EC:EC:31:C4:F2:DE:CD:BB:DC:68:8E
            X509v3 Authority Key Identifier: 
                keyid:6B:18:28:6F:6A:67:37:F3:34:CD:3C:54:05:B2:3E:A9:93:2B:2B:91
                DirName:/CN=team354-net
                serial:59:E8:31:5E:E7:1A:54:EE:5E:B6:93:1F:4F:2F:47:07:FD:DE:3F:C8
            X509v3 Extended Key Usage: 
                TLS Web Client Authentication
            X509v3 Key Usage: 
                Digital Signature
    Signature Algorithm: sha256WithRSAEncryption
    Signature Value:
        a3:ae:7b:1d:5d:52:e1:95:c3:0a:21:38:78:ec:39:64:e1:55:
        8f:07:0a:6f:7f:95:f1:5f:b3:13:c9:aa:2b:6e:3e:01:15:c1:
        47:b3:08:d4:8d:3c:1f:62:de:3d:7d:57:55:51:1e:f8:72:e1:
        8b:19:5f:0e:51:75:76:48:8a:2c:80:1c:8e:dc:aa:27:33:f4:
        4c:b5:81:43:5d:90:fd:f8:09:aa:a0:79:46:c3:3e:ca:13:56:
        89:71:26:5d:1b:38:f1:16:ea:8f:9b:6c:c5:87:b3:b4:69:69:
        af:b6:38:4c:0b:b7:b4:e4:3f:ff:bc:a1:9b:3d:06:0c:bf:72:
        a9:ab:eb:e4:f8:21:cc:32:35:30:c3:6f:ab:fa:1e:0b:e0:17:
        7c:89:10:fa:e3:05:db:3e:70:a8:bd:86:ab:52:72:0d:b3:3d:
        98:c0:90:de:d1:26:81:f7:ec:58:aa:2a:cb:75:72:6b:1e:33:
        73:8e:da:d4:7f:d7:44:92:5f:2a:7a:db:01:c1:43:a6:37:fc:
        25:e7:17:ac:de:01:8f:06:4a:c4:2a:cd:73:c5:a5:8e:d5:0a:
        7f:0b:46:85:ce:f7:7f:7f:61:09:1b:30:68:e0:f1:f4:f3:7e:
        41:76:95:ec:fd:22:bc:9c:6c:46:ba:ec:9f:69:89:cd:b0:97:
        6a:8d:aa:2e
-----BEGIN CERTIFICATE-----
MIIDXTCCAkWgAwIBAgIRAOWiVS2WGEy0Oz+y5iau55YwDQYJKoZIhvcNAQELBQAw
FjEUMBIGA1UEAwwLdGVhbTM1NC1uZXQwHhcNMjMxMTA0MTEzNTE2WhcNMjYxMDE5
MTEzNTE2WjAZMRcwFQYDVQQDDA50ZWFtMzU0LWNsaWVudDCCASIwDQYJKoZIhvcN
AQEBBQADggEPADCCAQoCggEBALN8psgeZYnWqBSGGnn9LI0h0uOq1Wblzq65KW7L
YoteXRxkibj+LxVyF9ptJqEXyGQ0W3MR4Dxk2X3cEGKOd984MR8eStpAfu2IjmEh
D2vngK96dztX2WEl7meO8Nwio2HrHTrWMkaM+5oOznBKbzY1Zv5iC16OihwWhlKc
LPMWQeOKLrWxJvacivQsu3YjhA+LamG5Kf9+okoJGyEGrwdM16W5dlQ9ZOxHwSld
mYsonpkkPbIO5q80Kug6uu4isJpoODr5eOLHG7dM22lWFYHAS3ttzwNqy2CBbhwh
gz8+WuB8QSjSsHHNgNHWwuPz2j3is0BWxRPqsBV89BZq7QMCAwEAAaOBojCBnzAJ
BgNVHRMEAjAAMB0GA1UdDgQWBBSdVvLSeRpZapXs7DHE8t7Nu9xojjBRBgNVHSME
SjBIgBRrGChvamc38zTNPFQFsj6pkysrkaEapBgwFjEUMBIGA1UEAwwLdGVhbTM1
NC1uZXSCFFnoMV7nGlTuXraTH08vRwf93j/IMBMGA1UdJQQMMAoGCCsGAQUFBwMC
MAsGA1UdDwQEAwIHgDANBgkqhkiG9w0BAQsFAAOCAQEAo657HV1S4ZXDCiE4eOw5
ZOFVjwcKb3+V8V+zE8mqK24+ARXBR7MI1I08H2LePX1XVVEe+HLhixlfDlF1dkiK
LIAcjtyqJzP0TLWBQ12Q/fgJqqB5RsM+yhNWiXEmXRs48Rbqj5tsxYeztGlpr7Y4
TAu3tOQ//7yhmz0GDL9yqavr5PghzDI1MMNvq/oeC+AXfIkQ+uMF2z5wqL2Gq1Jy
DbM9mMCQ3tEmgffsWKoqy3Vyax4zc47a1H/XRJJfKnrbAcFDpjf8JecXrN4BjwZK
xCrNc8WljtUKfwtGhc73f39hCRswaODx9PN+QXaV7P0ivJxsRrrsn2mJzbCXao2q
Lg==
-----END CERTIFICATE-----
