Certificate:
    Data:
        Version: 3 (0x2)
        Serial Number:
            ef:7e:fd:a6:f1:41:f7:1f:15:2b:97:39:5b:6d:eb:26
        Signature Algorithm: sha256WithRSAEncryption
        Issuer: CN=team354-net
        Validity
            Not Before: Nov  4 10:47:04 2023 GMT
            Not After : Oct 19 10:47:04 2026 GMT
        Subject: CN=team354-client
        Subject Public Key Info:
            Public Key Algorithm: rsaEncryption
                Public-Key: (2048 bit)
                Modulus:
                    00:e8:b7:58:3f:8a:04:74:56:c2:4e:69:41:f8:8c:
                    dd:24:dd:ff:f9:38:e0:47:9d:f2:a6:b5:46:2d:49:
                    28:70:ed:30:ed:e9:cc:3e:17:b1:07:0a:a9:b8:58:
                    1a:0f:30:7b:87:6a:99:93:36:8c:5b:03:71:1c:b6:
                    44:01:9c:ce:e5:31:84:1d:77:88:02:bb:e7:17:6d:
                    0e:b4:3a:e4:39:98:bf:9c:f4:59:8a:42:e4:d8:ec:
                    29:85:86:5b:53:a3:11:32:ff:54:78:9d:16:06:b2:
                    cd:57:bf:62:47:d0:8f:6b:56:61:54:de:5c:c3:b6:
                    47:7f:01:01:45:92:67:d9:8c:07:45:8c:f3:68:be:
                    6a:b1:7e:42:82:e2:59:a3:b7:d0:78:fe:90:bd:be:
                    bb:46:12:5b:48:05:53:d0:b4:2e:ac:76:15:9a:74:
                    3a:8f:a0:7f:16:cb:89:2a:ee:58:83:fd:89:0f:c8:
                    eb:84:95:51:3c:83:10:c5:27:1e:05:f7:72:5d:4f:
                    a3:45:fc:26:4d:d4:b7:cd:15:7c:42:ee:bb:28:dd:
                    f2:63:ce:a7:a7:dd:d0:2d:ee:e8:60:c9:c1:5b:4a:
                    d8:a4:1e:6b:2f:d6:f3:6a:a0:08:7d:ab:3c:e5:11:
                    58:ff:f8:fd:76:f0:a0:93:8e:a8:37:9d:a3:d7:66:
                    82:25
                Exponent: 65537 (0x10001)
        X509v3 extensions:
            X509v3 Basic Constraints: 
                CA:FALSE
            X509v3 Subject Key Identifier: 
                B0:98:EC:23:B0:8D:BF:96:86:BF:1A:7B:E1:57:2F:BA:C7:B8:7E:A2
            X509v3 Authority Key Identifier: 
                keyid:24:1C:98:47:6F:77:56:64:10:D9:6B:74:AB:17:09:75:77:9B:C7:36
                DirName:/CN=team354-net
                serial:74:E0:E3:40:75:1F:A5:68:31:9B:DE:14:8A:4D:36:79:EF:30:3D:F9
            X509v3 Extended Key Usage: 
                TLS Web Client Authentication
            X509v3 Key Usage: 
                Digital Signature
    Signature Algorithm: sha256WithRSAEncryption
    Signature Value:
        2e:6b:fb:25:8c:ca:d1:ad:df:7e:a6:1d:47:f7:ae:d0:3e:21:
        d5:3d:f3:69:f0:11:8c:12:64:e7:fb:39:87:03:ce:f1:bc:9b:
        6b:32:15:9a:d7:54:79:ae:ef:f4:f8:e4:e4:18:e6:63:a5:7e:
        33:e4:0e:a6:7e:6e:11:8a:d7:eb:cd:05:47:89:b5:07:21:5a:
        c6:a8:14:95:53:5d:91:34:51:dd:f6:38:f8:0f:64:03:7e:c5:
        d0:bb:fc:9d:ed:ba:b2:57:2e:fd:12:29:48:11:cd:37:4d:53:
        7c:5a:e0:2e:dc:41:aa:ad:30:41:bc:aa:b4:0b:a7:2b:bf:4f:
        a9:69:da:e3:d1:8f:50:bc:f4:d9:64:95:3f:52:ff:5b:3d:50:
        ae:d8:7d:a4:a0:cc:4c:e2:98:43:d8:10:82:e4:da:c2:62:30:
        ef:29:3f:1a:6a:87:0e:92:33:f4:f0:24:13:f2:35:5c:06:12:
        2a:c5:29:da:38:6e:9c:51:a1:36:19:9f:51:d8:0e:ff:66:fb:
        3a:62:b8:34:84:19:ed:19:c3:ee:4b:73:3c:b5:0f:e1:28:d3:
        75:28:ea:56:c7:7b:0f:42:ad:68:3e:b0:f4:ac:ed:1c:2f:cd:
        82:17:ac:7f:32:97:e5:8f:b9:38:93:0e:6c:05:8b:c3:e1:73:
        53:2c:07:9b
-----BEGIN CERTIFICATE-----
MIIDXTCCAkWgAwIBAgIRAO9+/abxQfcfFSuXOVtt6yYwDQYJKoZIhvcNAQELBQAw
FjEUMBIGA1UEAwwLdGVhbTM1NC1uZXQwHhcNMjMxMTA0MTA0NzA0WhcNMjYxMDE5
MTA0NzA0WjAZMRcwFQYDVQQDDA50ZWFtMzU0LWNsaWVudDCCASIwDQYJKoZIhvcN
AQEBBQADggEPADCCAQoCggEBAOi3WD+KBHRWwk5pQfiM3STd//k44Eed8qa1Ri1J
KHDtMO3pzD4XsQcKqbhYGg8we4dqmZM2jFsDcRy2RAGczuUxhB13iAK75xdtDrQ6
5DmYv5z0WYpC5NjsKYWGW1OjETL/VHidFgayzVe/YkfQj2tWYVTeXMO2R38BAUWS
Z9mMB0WM82i+arF+QoLiWaO30Hj+kL2+u0YSW0gFU9C0Lqx2FZp0Oo+gfxbLiSru
WIP9iQ/I64SVUTyDEMUnHgX3cl1Po0X8Jk3Ut80VfELuuyjd8mPOp6fd0C3u6GDJ
wVtK2KQeay/W82qgCH2rPOURWP/4/XbwoJOOqDedo9dmgiUCAwEAAaOBojCBnzAJ
BgNVHRMEAjAAMB0GA1UdDgQWBBSwmOwjsI2/loa/GnvhVy+6x7h+ojBRBgNVHSME
SjBIgBQkHJhHb3dWZBDZa3SrFwl1d5vHNqEapBgwFjEUMBIGA1UEAwwLdGVhbTM1
NC1uZXSCFHTg40B1H6VoMZveFIpNNnnvMD35MBMGA1UdJQQMMAoGCCsGAQUFBwMC
MAsGA1UdDwQEAwIHgDANBgkqhkiG9w0BAQsFAAOCAQEALmv7JYzK0a3ffqYdR/eu
0D4h1T3zafARjBJk5/s5hwPO8bybazIVmtdUea7v9Pjk5BjmY6V+M+QOpn5uEYrX
680FR4m1ByFaxqgUlVNdkTRR3fY4+A9kA37F0Lv8ne26slcu/RIpSBHNN01TfFrg
LtxBqq0wQbyqtAunK79PqWna49GPULz02WSVP1L/Wz1Qrth9pKDMTOKYQ9gQguTa
wmIw7yk/GmqHDpIz9PAkE/I1XAYSKsUp2jhunFGhNhmfUdgO/2b7OmK4NIQZ7RnD
7ktzPLUP4SjTdSjqVsd7D0KtaD6w9KztHC/NghesfzKX5Y+5OJMObAWLw+FzUywH
mw==
-----END CERTIFICATE-----
