Certificate:
    Data:
        Version: 3 (0x2)
        Serial Number:
            eb:01:61:85:a3:c0:4a:4d:34:f2:bd:9c:f0:9e:49:7c
        Signature Algorithm: sha256WithRSAEncryption
        Issuer: CN=team277-net
        Validity
            Not Before: Nov  3 20:44:21 2023 GMT
            Not After : Oct 18 20:44:21 2026 GMT
        Subject: CN=team277-client
        Subject Public Key Info:
            Public Key Algorithm: rsaEncryption
                Public-Key: (2048 bit)
                Modulus:
                    00:c4:50:fd:d9:ab:5b:b4:10:c3:c5:dc:f8:36:16:
                    70:f4:5c:3b:22:24:1f:c2:57:9c:1a:7b:8f:b1:47:
                    7a:9a:b9:57:bc:7a:f7:3e:6a:b2:ef:4a:c4:05:a1:
                    5c:92:7d:e3:a8:27:1d:61:07:ac:d2:8b:15:67:72:
                    f9:c5:a1:ea:26:3a:86:5e:06:49:8b:10:48:92:12:
                    ca:62:64:0a:5f:69:74:ae:df:39:b7:50:23:5d:e9:
                    ee:18:54:8a:e9:3c:7f:55:3e:22:37:56:34:cb:f7:
                    03:d7:c2:15:20:30:17:5b:a2:6f:55:88:1a:33:7b:
                    2a:5d:7a:3d:4c:b3:a6:39:70:b5:23:3b:b1:8b:59:
                    55:48:a8:58:26:f4:b5:d7:1b:73:3f:8c:02:e7:38:
                    d6:e8:ec:bc:16:f1:cc:1a:93:b2:d9:1e:49:21:4d:
                    18:2b:14:cf:a2:db:16:c8:d1:d6:2b:fe:e3:27:28:
                    7d:3e:be:5b:4f:65:91:fe:24:f8:27:f1:69:09:35:
                    44:e1:2c:0d:3e:3f:35:2e:f9:19:bf:b2:60:d1:88:
                    7f:82:9a:4a:b9:b3:4c:0f:ca:63:15:f4:c4:95:bf:
                    3c:ec:8a:78:c5:5f:2d:16:6f:80:e4:1f:2a:d6:80:
                    d4:cc:5a:77:e1:11:d4:58:8d:8f:04:7b:b5:ee:2d:
                    80:e5
                Exponent: 65537 (0x10001)
        X509v3 extensions:
            X509v3 Basic Constraints: 
                CA:FALSE
            X509v3 Subject Key Identifier: 
                5B:9B:C0:6E:94:16:3C:30:AF:D0:FD:BE:58:00:F9:B1:86:6A:42:B1
            X509v3 Authority Key Identifier: 
                keyid:EB:F5:2E:FE:70:EF:EC:5C:0D:7E:4A:29:71:E9:9C:4A:74:42:6A:15
                DirName:/CN=team277-net
                serial:56:2B:B7:3F:8C:13:66:B9:A2:D2:93:51:F7:74:94:D0:54:5C:EE:FD
            X509v3 Extended Key Usage: 
                TLS Web Client Authentication
            X509v3 Key Usage: 
                Digital Signature
    Signature Algorithm: sha256WithRSAEncryption
    Signature Value:
        1c:0e:a7:b4:41:4b:a8:48:15:a8:17:36:36:3e:29:75:8e:b4:
        f7:88:18:10:bc:87:3c:84:14:68:f6:fe:56:d9:f6:45:be:c4:
        73:4e:34:18:7c:ba:f1:4c:3d:f7:f9:be:ea:31:a6:37:c1:35:
        bb:83:82:0e:a2:d2:d3:2a:43:15:5c:f1:0d:9a:6b:42:25:e5:
        f5:7f:bc:f3:c2:91:ec:f7:38:db:f2:ba:fe:bf:e5:4b:1f:78:
        84:0f:19:fc:e2:42:2d:3b:97:71:09:2b:c4:1c:a4:01:49:c8:
        34:e7:0b:4b:c5:0f:87:d8:7d:b4:05:ec:60:08:17:5c:e8:2c:
        47:90:75:ae:59:5d:4b:52:2e:58:8e:9b:2a:dd:71:3a:fc:b5:
        90:d7:11:5f:e0:f8:b8:d1:4e:01:2d:40:74:60:3f:67:ee:00:
        a4:6c:c9:2e:72:dd:1c:d1:6d:18:33:29:53:a8:3e:7a:c9:90:
        12:38:29:24:17:a1:93:70:ec:fa:72:1f:f2:99:0e:15:33:c7:
        d7:53:03:0f:3b:42:cd:e4:89:4e:11:b6:a6:e5:64:50:ec:35:
        a3:77:c4:04:b0:a3:11:76:46:ed:b4:af:6a:c7:e0:a6:d7:9b:
        df:ae:4c:74:68:60:85:f4:be:30:2f:95:aa:76:40:55:20:9a:
        5b:40:be:29
-----BEGIN CERTIFICATE-----
MIIDXTCCAkWgAwIBAgIRAOsBYYWjwEpNNPK9nPCeSXwwDQYJKoZIhvcNAQELBQAw
FjEUMBIGA1UEAwwLdGVhbTI3Ny1uZXQwHhcNMjMxMTAzMjA0NDIxWhcNMjYxMDE4
MjA0NDIxWjAZMRcwFQYDVQQDDA50ZWFtMjc3LWNsaWVudDCCASIwDQYJKoZIhvcN
AQEBBQADggEPADCCAQoCggEBAMRQ/dmrW7QQw8Xc+DYWcPRcOyIkH8JXnBp7j7FH
epq5V7x69z5qsu9KxAWhXJJ946gnHWEHrNKLFWdy+cWh6iY6hl4GSYsQSJISymJk
Cl9pdK7fObdQI13p7hhUiuk8f1U+IjdWNMv3A9fCFSAwF1uib1WIGjN7Kl16PUyz
pjlwtSM7sYtZVUioWCb0tdcbcz+MAuc41ujsvBbxzBqTstkeSSFNGCsUz6LbFsjR
1iv+4ycofT6+W09lkf4k+CfxaQk1ROEsDT4/NS75Gb+yYNGIf4KaSrmzTA/KYxX0
xJW/POyKeMVfLRZvgOQfKtaA1Mxad+ER1FiNjwR7te4tgOUCAwEAAaOBojCBnzAJ
BgNVHRMEAjAAMB0GA1UdDgQWBBRbm8BulBY8MK/Q/b5YAPmxhmpCsTBRBgNVHSME
SjBIgBTr9S7+cO/sXA1+Silx6ZxKdEJqFaEapBgwFjEUMBIGA1UEAwwLdGVhbTI3
Ny1uZXSCFFYrtz+ME2a5otKTUfd0lNBUXO79MBMGA1UdJQQMMAoGCCsGAQUFBwMC
MAsGA1UdDwQEAwIHgDANBgkqhkiG9w0BAQsFAAOCAQEAHA6ntEFLqEgVqBc2Nj4p
dY6094gYELyHPIQUaPb+Vtn2Rb7Ec040GHy68Uw99/m+6jGmN8E1u4OCDqLS0ypD
FVzxDZprQiXl9X+888KR7Pc42/K6/r/lSx94hA8Z/OJCLTuXcQkrxBykAUnINOcL
S8UPh9h9tAXsYAgXXOgsR5B1rlldS1IuWI6bKt1xOvy1kNcRX+D4uNFOAS1AdGA/
Z+4ApGzJLnLdHNFtGDMpU6g+esmQEjgpJBehk3Ds+nIf8pkOFTPH11MDDztCzeSJ
ThG2puVkUOw1o3fEBLCjEXZG7bSvasfgpteb365MdGhghfS+MC+VqnZAVSCaW0C+
KQ==
-----END CERTIFICATE-----
