Certificate:
    Data:
        Version: 3 (0x2)
        Serial Number:
            d4:fd:ca:88:7f:e1:87:fd:d8:01:ab:8f:1c:c2:0c:bc
        Signature Algorithm: sha256WithRSAEncryption
        Issuer: CN=team434-net
        Validity
            Not Before: Nov  3 20:47:08 2023 GMT
            Not After : Oct 18 20:47:08 2026 GMT
        Subject: CN=team434-server
        Subject Public Key Info:
            Public Key Algorithm: rsaEncryption
                Public-Key: (2048 bit)
                Modulus:
                    00:93:49:50:e5:b1:86:de:e7:3b:ae:47:20:83:65:
                    a4:16:4c:0c:d5:3a:ae:c2:04:1e:0d:b3:cf:81:0f:
                    75:c3:19:4c:09:ae:ad:c8:3f:70:ff:1b:c2:84:5b:
                    df:7b:52:84:dd:c7:39:e1:a3:48:ae:d7:e2:bc:17:
                    1d:3d:9c:96:bf:24:ba:43:78:ba:ed:4a:d8:91:bd:
                    b3:01:32:19:00:30:dc:ac:1b:5c:b1:7f:af:dc:42:
                    c8:6a:12:1c:b8:f5:b0:4b:c8:af:f5:83:67:b5:15:
                    fb:fd:a7:48:36:6a:2e:f1:7a:d6:8b:6d:56:d2:5b:
                    fa:9b:49:dc:bc:b1:cb:3f:73:90:37:d8:d8:c3:a9:
                    4d:24:47:f9:bf:93:82:60:e8:d6:02:0d:d3:8a:3f:
                    77:6e:2b:32:0a:97:ae:8f:52:97:2f:a6:01:59:9e:
                    27:9e:f1:a6:13:d2:a9:0a:73:85:94:12:92:45:d6:
                    38:61:9c:84:dc:09:9b:c2:d5:49:60:8e:03:5b:9b:
                    dd:91:dc:89:60:e9:c6:46:9c:4d:c3:1d:cc:bd:e3:
                    62:64:87:e4:c3:b6:5f:d0:4c:32:c4:73:24:61:4b:
                    b5:d0:62:d0:0c:73:59:78:20:bc:3c:ba:2e:e1:9a:
                    fd:8e:ce:b3:88:67:b8:73:c3:e2:56:05:11:36:cf:
                    6a:dd
                Exponent: 65537 (0x10001)
        X509v3 extensions:
            X509v3 Basic Constraints: 
                CA:FALSE
            X509v3 Subject Key Identifier: 
                CE:D0:EC:55:77:E5:5F:29:97:76:75:5C:66:2D:A9:BE:5F:07:02:48
            X509v3 Authority Key Identifier: 
                keyid:D6:4B:4D:18:E9:31:64:5C:BB:18:38:30:A5:CC:D7:EF:9D:4D:B2:68
                DirName:/CN=team434-net
                serial:14:8B:70:DF:91:EC:E5:37:F8:6B:31:F4:2C:97:16:9E:F9:4A:3F:10
            X509v3 Extended Key Usage: 
                TLS Web Server Authentication
            X509v3 Key Usage: 
                Digital Signature, Key Encipherment
            X509v3 Subject Alternative Name: 
                DNS:team434-server
    Signature Algorithm: sha256WithRSAEncryption
    Signature Value:
        af:6c:3a:e8:f7:4f:ff:f4:54:5d:8e:b3:f2:c1:3d:a2:07:9a:
        a0:f0:df:08:9a:71:50:e1:6b:16:dd:ea:c5:b7:b1:a8:82:27:
        c0:fd:5e:ed:87:80:64:0e:c9:ce:7a:8a:6b:52:97:d3:fc:ee:
        2d:71:42:c3:9f:ae:68:a0:ca:f1:07:e7:a2:26:34:e8:e5:15:
        fc:c6:ea:f6:69:ff:fb:90:54:47:02:2e:ef:2b:33:78:a1:8b:
        45:b3:61:41:42:c7:71:45:2d:9e:0a:ab:cb:4a:22:0f:72:32:
        8e:66:4d:ea:94:c7:89:ba:d8:95:70:06:ef:8c:01:06:11:60:
        0e:e9:80:41:29:81:d4:ab:05:7b:ad:b5:ff:fb:ff:82:7a:4d:
        6a:d4:06:a6:54:62:e5:d0:a8:fa:41:ed:50:16:1d:40:ae:d0:
        e4:9e:f8:b1:7b:ca:b4:cf:64:da:0a:5c:5e:a7:ec:df:0e:f4:
        bf:b7:22:ad:09:15:9d:29:56:0d:34:60:f2:fe:18:f2:21:2d:
        16:cc:ab:e4:02:bd:84:cc:61:ad:cb:2c:10:37:d4:5f:1c:86:
        84:03:8c:c6:52:d4:d2:75:66:0f:5a:a6:85:0e:8d:c2:67:31:
        cd:6f:ee:c2:81:7d:84:3b:c7:36:20:bf:44:67:f2:52:ca:9d:
        b9:65:17:31
-----BEGIN CERTIFICATE-----
MIIDeDCCAmCgAwIBAgIRANT9yoh/4Yf92AGrjxzCDLwwDQYJKoZIhvcNAQELBQAw
FjEUMBIGA1UEAwwLdGVhbTQzNC1uZXQwHhcNMjMxMTAzMjA0NzA4WhcNMjYxMDE4
MjA0NzA4WjAZMRcwFQYDVQQDDA50ZWFtNDM0LXNlcnZlcjCCASIwDQYJKoZIhvcN
AQEBBQADggEPADCCAQoCggEBAJNJUOWxht7nO65HIINlpBZMDNU6rsIEHg2zz4EP
dcMZTAmurcg/cP8bwoRb33tShN3HOeGjSK7X4rwXHT2clr8kukN4uu1K2JG9swEy
GQAw3KwbXLF/r9xCyGoSHLj1sEvIr/WDZ7UV+/2nSDZqLvF61ottVtJb+ptJ3Lyx
yz9zkDfY2MOpTSRH+b+TgmDo1gIN04o/d24rMgqXro9Sly+mAVmeJ57xphPSqQpz
hZQSkkXWOGGchNwJm8LVSWCOA1ub3ZHciWDpxkacTcMdzL3jYmSH5MO2X9BMMsRz
JGFLtdBi0AxzWXggvDy6LuGa/Y7Os4hnuHPD4lYFETbPat0CAwEAAaOBvTCBujAJ
BgNVHRMEAjAAMB0GA1UdDgQWBBTO0OxVd+VfKZd2dVxmLam+XwcCSDBRBgNVHSME
SjBIgBTWS00Y6TFkXLsYODClzNfvnU2yaKEapBgwFjEUMBIGA1UEAwwLdGVhbTQz
NC1uZXSCFBSLcN+R7OU3+Gsx9CyXFp75Sj8QMBMGA1UdJQQMMAoGCCsGAQUFBwMB
MAsGA1UdDwQEAwIFoDAZBgNVHREEEjAQgg50ZWFtNDM0LXNlcnZlcjANBgkqhkiG
9w0BAQsFAAOCAQEAr2w66PdP//RUXY6z8sE9ogeaoPDfCJpxUOFrFt3qxbexqIIn
wP1e7YeAZA7JznqKa1KX0/zuLXFCw5+uaKDK8QfnoiY06OUV/Mbq9mn/+5BURwIu
7yszeKGLRbNhQULHcUUtngqry0oiD3IyjmZN6pTHibrYlXAG74wBBhFgDumAQSmB
1KsFe621//v/gnpNatQGplRi5dCo+kHtUBYdQK7Q5J74sXvKtM9k2gpcXqfs3w70
v7cirQkVnSlWDTRg8v4Y8iEtFsyr5AK9hMxhrcssEDfUXxyGhAOMxlLU0nVmD1qm
hQ6NwmcxzW/uwoF9hDvHNiC/RGfyUsqduWUXMQ==
-----END CERTIFICATE-----
