Certificate:
    Data:
        Version: 3 (0x2)
        Serial Number:
            5f:ea:39:c0:2a:a0:01:90:50:2d:eb:13:2c:9d:72:e1
        Signature Algorithm: sha256WithRSAEncryption
        Issuer: CN=team327-net
        Validity
            Not Before: Nov  4 10:46:35 2023 GMT
            Not After : Oct 19 10:46:35 2026 GMT
        Subject: CN=team327-client
        Subject Public Key Info:
            Public Key Algorithm: rsaEncryption
                Public-Key: (2048 bit)
                Modulus:
                    00:c3:7d:e4:96:25:4b:a6:85:f2:76:ae:c1:58:2e:
                    7c:53:82:9f:62:42:f2:5d:dc:86:8c:2e:73:61:13:
                    ff:e3:8c:72:34:dd:93:e3:b8:06:7a:36:2a:ab:fd:
                    14:e6:5c:7c:56:f0:4b:35:2c:70:1f:ca:06:07:88:
                    dd:d9:c4:c6:f7:65:77:06:5c:6e:d7:88:92:c6:a4:
                    68:86:94:8f:76:8b:e0:d8:af:54:9d:f5:cd:2d:31:
                    27:6b:22:3e:1d:6e:69:2d:5e:1e:a7:cf:79:40:9c:
                    55:0a:5a:d2:7a:31:5b:22:43:1d:9b:39:6d:43:2d:
                    eb:bd:7f:1c:e9:49:cd:b9:d3:04:80:c5:18:8e:f2:
                    14:3a:bb:ca:4d:0d:86:08:da:5a:99:75:ea:cb:e0:
                    ec:72:d7:7d:3e:6a:31:00:d6:57:8d:e9:bd:0d:a2:
                    90:60:54:81:0f:fb:cf:01:c7:bf:cb:f4:29:96:0e:
                    ea:da:e9:fc:43:ff:a2:9f:3a:a6:67:31:0c:65:19:
                    1c:09:4b:c2:9e:57:51:20:6a:e4:ab:10:dd:a7:cc:
                    cb:b6:c8:e3:fd:42:24:ec:83:5e:a9:cb:31:ff:74:
                    e1:74:c6:ac:6f:28:af:b4:57:63:65:8b:8e:ed:e8:
                    79:07:92:3e:a9:17:ac:6c:52:94:b0:fb:b8:db:eb:
                    60:87
                Exponent: 65537 (0x10001)
        X509v3 extensions:
            X509v3 Basic Constraints: 
                CA:FALSE
            X509v3 Subject Key Identifier: 
                94:3A:96:A7:1A:09:CD:26:54:A2:E8:4D:0B:70:AA:D4:15:DE:13:F7
            X509v3 Authority Key Identifier: 
                keyid:8A:7F:4F:57:C3:C6:AC:41:42:2D:16:89:29:0F:38:D3:9F:C0:DA:A3
                DirName:/CN=team327-net
                serial:54:EA:90:F4:42:08:8F:3B:09:1B:9E:90:3A:1A:EA:3E:D8:F3:57:D1
            X509v3 Extended Key Usage: 
                TLS Web Client Authentication
            X509v3 Key Usage: 
                Digital Signature
    Signature Algorithm: sha256WithRSAEncryption
    Signature Value:
        3c:e2:43:bd:9c:9f:7e:2e:cb:3d:6e:05:10:a4:3d:f9:1e:dd:
        1b:21:27:37:1e:a3:ee:b2:e1:3c:7b:d1:fd:7a:15:88:60:7e:
        21:2f:49:5b:47:42:99:57:41:14:94:db:4a:5d:44:cd:1b:a6:
        83:08:08:60:12:44:48:48:8c:39:6d:ea:3f:5d:40:c1:07:d8:
        6a:f7:11:ce:da:35:c0:9d:b4:85:8b:0b:a1:49:30:47:1b:0c:
        0c:32:1e:39:c8:3c:e3:60:02:74:11:0b:d8:08:9f:a4:24:e9:
        09:be:db:96:e7:dc:d2:57:48:f4:19:4e:9c:ba:d9:d0:21:47:
        df:65:09:ef:fc:10:9e:4e:53:e6:6a:bd:98:7f:4b:db:ab:5b:
        3e:23:41:64:50:5d:c9:b8:94:7e:68:6f:39:5a:1a:04:f3:34:
        ee:b0:fe:fa:cf:b4:27:0c:00:2c:f0:be:eb:3c:42:a5:90:91:
        f3:08:f5:a6:d8:c3:bc:dc:91:d2:fc:2f:88:36:69:11:b0:f4:
        85:8d:88:18:9d:dd:8d:8d:6f:64:98:0d:ce:a6:48:39:5f:51:
        b4:ca:bc:ce:12:0e:1e:17:18:c0:6d:79:3f:49:69:e6:0c:46:
        2c:5f:e4:6c:7a:d5:4d:45:81:69:91:4f:ce:99:f4:23:2a:e1:
        46:9e:46:4b
-----BEGIN CERTIFICATE-----
MIIDXDCCAkSgAwIBAgIQX+o5wCqgAZBQLesTLJ1y4TANBgkqhkiG9w0BAQsFADAW
MRQwEgYDVQQDDAt0ZWFtMzI3LW5ldDAeFw0yMzExMDQxMDQ2MzVaFw0yNjEwMTkx
MDQ2MzVaMBkxFzAVBgNVBAMMDnRlYW0zMjctY2xpZW50MIIBIjANBgkqhkiG9w0B
AQEFAAOCAQ8AMIIBCgKCAQEAw33kliVLpoXydq7BWC58U4KfYkLyXdyGjC5zYRP/
44xyNN2T47gGejYqq/0U5lx8VvBLNSxwH8oGB4jd2cTG92V3Blxu14iSxqRohpSP
dovg2K9UnfXNLTEnayI+HW5pLV4ep895QJxVClrSejFbIkMdmzltQy3rvX8c6UnN
udMEgMUYjvIUOrvKTQ2GCNpamXXqy+Dsctd9PmoxANZXjem9DaKQYFSBD/vPAce/
y/Qplg7q2un8Q/+inzqmZzEMZRkcCUvCnldRIGrkqxDdp8zLtsjj/UIk7INeqcsx
/3ThdMasbyivtFdjZYuO7eh5B5I+qResbFKUsPu42+tghwIDAQABo4GiMIGfMAkG
A1UdEwQCMAAwHQYDVR0OBBYEFJQ6lqcaCc0mVKLoTQtwqtQV3hP3MFEGA1UdIwRK
MEiAFIp/T1fDxqxBQi0WiSkPONOfwNqjoRqkGDAWMRQwEgYDVQQDDAt0ZWFtMzI3
LW5ldIIUVOqQ9EIIjzsJG56QOhrqPtjzV9EwEwYDVR0lBAwwCgYIKwYBBQUHAwIw
CwYDVR0PBAQDAgeAMA0GCSqGSIb3DQEBCwUAA4IBAQA84kO9nJ9+Lss9bgUQpD35
Ht0bISc3HqPusuE8e9H9ehWIYH4hL0lbR0KZV0EUlNtKXUTNG6aDCAhgEkRISIw5
beo/XUDBB9hq9xHO2jXAnbSFiwuhSTBHGwwMMh45yDzjYAJ0EQvYCJ+kJOkJvtuW
59zSV0j0GU6cutnQIUffZQnv/BCeTlPmar2Yf0vbq1s+I0FkUF3JuJR+aG85WhoE
8zTusP76z7QnDAAs8L7rPEKlkJHzCPWm2MO83JHS/C+INmkRsPSFjYgYnd2NjW9k
mA3Opkg5X1G0yrzOEg4eFxjAbXk/SWnmDEYsX+RsetVNRYFpkU/OmfQjKuFGnkZL
-----END CERTIFICATE-----
