Certificate:
    Data:
        Version: 3 (0x2)
        Serial Number:
            8f:d6:98:00:df:de:53:1e:f8:38:a6:bc:65:62:bd:9b
        Signature Algorithm: sha256WithRSAEncryption
        Issuer: CN=team327-net
        Validity
            Not Before: Nov  4 11:34:41 2023 GMT
            Not After : Oct 19 11:34:41 2026 GMT
        Subject: CN=team327-server
        Subject Public Key Info:
            Public Key Algorithm: rsaEncryption
                Public-Key: (2048 bit)
                Modulus:
                    00:95:e9:ba:bb:ea:eb:18:77:a5:90:4a:f3:87:bb:
                    84:4e:8f:c3:d1:e6:17:fd:52:fa:f2:56:57:bb:08:
                    cb:31:76:d6:99:6d:e8:92:2e:fe:e5:c2:3e:cf:91:
                    f5:6f:91:0f:2d:19:9f:e7:df:7e:1f:4b:ab:f2:d8:
                    e3:3c:07:db:1c:78:8a:fb:53:be:39:ef:e3:e4:cd:
                    9d:f5:60:d0:d9:ad:dd:1f:e6:4b:25:2b:9a:cd:bb:
                    71:98:5c:64:90:c8:60:b5:5c:77:9b:3d:a4:6d:9c:
                    39:c2:e7:34:1e:9b:5b:62:ec:cc:b9:dc:f2:5c:f0:
                    40:75:14:0a:40:f5:44:b8:94:e9:03:74:9e:31:b0:
                    a8:8d:33:8d:b5:78:05:21:5a:ae:ee:d1:11:95:48:
                    6d:23:1e:51:50:44:45:32:bb:42:9a:ee:42:ec:c4:
                    c0:86:2f:3a:74:ac:9f:02:62:4d:0c:d9:ac:5f:3b:
                    6a:05:e6:c0:8e:25:13:03:46:d6:de:42:d4:8c:f3:
                    ba:bf:d8:73:16:93:4b:87:41:bb:7f:ac:fb:ac:5a:
                    df:a1:ea:7e:6d:6b:e7:94:12:e2:db:34:f5:f5:34:
                    17:66:1e:66:8c:61:c0:c1:44:38:4a:f9:20:69:6f:
                    64:23:00:28:25:fc:11:9b:94:a5:87:98:9c:73:fd:
                    40:83
                Exponent: 65537 (0x10001)
        X509v3 extensions:
            X509v3 Basic Constraints: 
                CA:FALSE
            X509v3 Subject Key Identifier: 
                B4:E6:39:2C:EA:90:7C:BA:2E:E5:10:CF:E5:CC:71:AD:DE:E1:5D:51
            X509v3 Authority Key Identifier: 
                keyid:7C:A1:14:35:3D:12:40:98:3B:00:C6:DB:0A:34:2D:26:F8:B8:59:39
                DirName:/CN=team327-net
                serial:64:9A:4F:45:3E:29:16:4A:6B:09:38:CE:50:E0:55:D3:5F:D0:52:14
            X509v3 Extended Key Usage: 
                TLS Web Server Authentication
            X509v3 Key Usage: 
                Digital Signature, Key Encipherment
            X509v3 Subject Alternative Name: 
                DNS:team327-server
    Signature Algorithm: sha256WithRSAEncryption
    Signature Value:
        0c:cd:c9:18:ec:4d:86:9f:05:cf:cf:6b:0b:52:1c:f0:88:06:
        1a:ee:86:18:c4:dd:00:2a:84:ae:a8:09:bc:e7:8e:ef:8c:e6:
        fb:fd:c6:f8:f1:9e:ab:7f:d2:44:e9:26:09:5b:ff:f0:fa:20:
        29:0a:cc:73:60:84:60:cf:db:96:3a:f7:18:78:33:77:d0:a8:
        81:53:59:84:51:19:c3:ae:fc:50:80:f9:d0:fc:a7:c1:99:6f:
        cf:f1:7d:ee:26:a5:8f:e9:60:6e:f7:02:08:3f:f0:90:07:e3:
        d2:f1:5b:9d:d8:52:d9:16:7f:86:ed:2c:d1:3e:b2:42:84:b7:
        dd:f0:bf:af:38:70:2c:e1:53:52:09:f1:f4:60:0b:6a:dc:44:
        38:48:3d:08:cd:da:f8:39:9f:83:21:a6:83:31:6e:1a:30:90:
        84:06:bd:5f:d0:74:fc:4f:7f:7e:33:4b:c8:5e:8a:80:4e:00:
        86:72:a0:18:d3:27:9f:ae:d4:30:0e:de:1c:c4:48:b5:28:4d:
        4e:68:d1:a2:b2:0b:1c:d1:c5:66:6e:d9:04:b0:57:32:c3:21:
        2e:f9:be:a6:1a:21:da:a8:f3:c9:00:cf:c1:d7:53:7e:51:dd:
        d2:1e:d6:23:2f:f9:ea:be:5d:4a:18:c0:b1:66:db:18:fc:43:
        12:b3:68:da
-----BEGIN CERTIFICATE-----
MIIDeDCCAmCgAwIBAgIRAI/WmADf3lMe+DimvGVivZswDQYJKoZIhvcNAQELBQAw
FjEUMBIGA1UEAwwLdGVhbTMyNy1uZXQwHhcNMjMxMTA0MTEzNDQxWhcNMjYxMDE5
MTEzNDQxWjAZMRcwFQYDVQQDDA50ZWFtMzI3LXNlcnZlcjCCASIwDQYJKoZIhvcN
AQEBBQADggEPADCCAQoCggEBAJXpurvq6xh3pZBK84e7hE6Pw9HmF/1S+vJWV7sI
yzF21plt6JIu/uXCPs+R9W+RDy0Zn+fffh9Lq/LY4zwH2xx4ivtTvjnv4+TNnfVg
0Nmt3R/mSyUrms27cZhcZJDIYLVcd5s9pG2cOcLnNB6bW2LszLnc8lzwQHUUCkD1
RLiU6QN0njGwqI0zjbV4BSFaru7REZVIbSMeUVBERTK7QpruQuzEwIYvOnSsnwJi
TQzZrF87agXmwI4lEwNG1t5C1Izzur/YcxaTS4dBu3+s+6xa36Hqfm1r55QS4ts0
9fU0F2YeZoxhwMFEOEr5IGlvZCMAKCX8EZuUpYeYnHP9QIMCAwEAAaOBvTCBujAJ
BgNVHRMEAjAAMB0GA1UdDgQWBBS05jks6pB8ui7lEM/lzHGt3uFdUTBRBgNVHSME
SjBIgBR8oRQ1PRJAmDsAxtsKNC0m+LhZOaEapBgwFjEUMBIGA1UEAwwLdGVhbTMy
Ny1uZXSCFGSaT0U+KRZKawk4zlDgVdNf0FIUMBMGA1UdJQQMMAoGCCsGAQUFBwMB
MAsGA1UdDwQEAwIFoDAZBgNVHREEEjAQgg50ZWFtMzI3LXNlcnZlcjANBgkqhkiG
9w0BAQsFAAOCAQEADM3JGOxNhp8Fz89rC1Ic8IgGGu6GGMTdACqErqgJvOeO74zm
+/3G+PGeq3/SROkmCVv/8PogKQrMc2CEYM/bljr3GHgzd9CogVNZhFEZw678UID5
0PynwZlvz/F97ialj+lgbvcCCD/wkAfj0vFbndhS2RZ/hu0s0T6yQoS33fC/rzhw
LOFTUgnx9GALatxEOEg9CM3a+DmfgyGmgzFuGjCQhAa9X9B0/E9/fjNLyF6KgE4A
hnKgGNMnn67UMA7eHMRItShNTmjRorILHNHFZm7ZBLBXMsMhLvm+phoh2qjzyQDP
wddTflHd0h7WIy/56r5dShjAsWbbGPxDErNo2g==
-----END CERTIFICATE-----
