Certificate:
    Data:
        Version: 3 (0x2)
        Serial Number:
            1a:a9:03:96:ae:2d:a1:ac:84:0e:e3:dc:cf:71:f5:8e
        Signature Algorithm: sha256WithRSAEncryption
        Issuer: CN=team130-net
        Validity
            Not Before: Nov  4 11:30:03 2023 GMT
            Not After : Oct 19 11:30:03 2026 GMT
        Subject: CN=team130-client
        Subject Public Key Info:
            Public Key Algorithm: rsaEncryption
                Public-Key: (2048 bit)
                Modulus:
                    00:96:cc:4b:dd:20:36:c0:68:29:06:49:89:68:03:
                    1d:c9:3c:8e:61:6e:ef:69:31:d8:02:74:6e:e2:25:
                    11:24:e7:4f:ee:79:02:6a:65:0d:9f:d6:c7:14:4d:
                    54:76:90:6b:eb:93:9a:8b:4f:79:0c:a1:85:eb:4a:
                    95:e9:4b:ea:f1:16:10:76:f1:8f:69:d8:7d:95:b0:
                    74:54:0d:e8:52:4c:77:bf:44:74:dc:1c:23:ab:8b:
                    e1:cf:63:ea:40:fb:d3:3c:e6:0b:cd:0d:61:3f:97:
                    bc:bf:3a:48:62:2d:58:e5:c1:1a:b9:33:be:43:85:
                    33:46:a9:aa:e8:f7:4e:12:90:cb:da:7c:0f:44:8a:
                    be:76:0e:bd:fc:66:7b:d8:37:3c:51:25:c2:43:75:
                    94:bb:70:70:ff:3e:e5:9b:97:63:c3:81:8f:61:bc:
                    f6:06:30:c5:5b:76:66:6a:a0:4f:3e:e3:e9:2b:67:
                    ef:90:bd:23:cf:3f:3c:8b:f7:55:1a:61:86:aa:3d:
                    33:1c:8c:c7:44:4f:db:4e:97:2c:23:23:78:f9:da:
                    6a:1d:28:f0:6a:a8:93:85:b1:76:1c:d2:2a:b6:c7:
                    c5:d4:11:a6:57:ff:da:07:a7:02:f3:13:8d:65:f0:
                    96:a2:0d:19:1d:76:98:b7:53:8c:6d:80:c1:81:26:
                    28:0b
                Exponent: 65537 (0x10001)
        X509v3 extensions:
            X509v3 Basic Constraints: 
                CA:FALSE
            X509v3 Subject Key Identifier: 
                34:37:33:1C:20:D7:AF:29:73:F9:1E:E6:F7:8F:5D:EC:67:D8:E2:24
            X509v3 Authority Key Identifier: 
                keyid:81:3B:3A:31:D2:2B:D4:41:8E:65:19:62:7D:76:5B:A0:D8:BD:3F:A1
                DirName:/CN=team130-net
                serial:52:64:3A:FC:1D:FC:41:E8:85:7B:1C:E4:32:90:8C:97:AA:0A:07:12
            X509v3 Extended Key Usage: 
                TLS Web Client Authentication
            X509v3 Key Usage: 
                Digital Signature
    Signature Algorithm: sha256WithRSAEncryption
    Signature Value:
        81:02:28:2c:32:7f:9f:e6:0e:0b:ce:14:e4:97:23:a9:f3:04:
        ad:ec:3b:0f:64:e7:10:6a:57:ee:a4:2a:8b:ce:bb:3f:74:94:
        23:14:e6:db:3e:ec:64:7f:b7:59:8e:bf:f7:69:83:c8:22:d3:
        d0:f9:6b:1a:99:09:11:a2:94:35:ea:4d:9b:4d:f4:c0:b1:bb:
        bf:70:3f:a1:3c:9f:d5:55:e9:03:cd:12:9f:bf:39:7e:b0:57:
        54:87:96:41:25:56:6d:4f:98:d4:40:71:09:85:38:6c:59:97:
        9d:dd:53:7f:36:8a:e2:63:28:a9:d9:e7:f9:a9:3c:98:61:e8:
        4e:c0:8b:5d:af:69:9c:e0:e4:6c:4b:f1:be:52:7a:a0:ee:4e:
        86:d9:d8:1e:8e:54:c0:17:a9:a6:1d:cd:0c:d5:82:5e:a6:b9:
        b4:ce:13:55:f5:47:32:a6:c8:dd:c4:fa:7f:c6:73:49:3e:fd:
        af:6e:1f:51:46:d3:82:e2:a5:29:21:fd:39:0d:3f:08:41:db:
        0c:46:b9:1c:63:34:ed:f1:1c:c9:99:ee:f2:3c:72:3b:43:5e:
        be:b5:75:62:91:41:12:72:0c:3f:9d:ee:a3:09:0e:e1:91:0f:
        c4:33:57:f3:5d:0c:b1:7a:27:ad:d4:7b:10:e5:94:74:13:ac:
        98:68:bf:14
-----BEGIN CERTIFICATE-----
MIIDXDCCAkSgAwIBAgIQGqkDlq4toayEDuPcz3H1jjANBgkqhkiG9w0BAQsFADAW
MRQwEgYDVQQDDAt0ZWFtMTMwLW5ldDAeFw0yMzExMDQxMTMwMDNaFw0yNjEwMTkx
MTMwMDNaMBkxFzAVBgNVBAMMDnRlYW0xMzAtY2xpZW50MIIBIjANBgkqhkiG9w0B
AQEFAAOCAQ8AMIIBCgKCAQEAlsxL3SA2wGgpBkmJaAMdyTyOYW7vaTHYAnRu4iUR
JOdP7nkCamUNn9bHFE1UdpBr65Oai095DKGF60qV6Uvq8RYQdvGPadh9lbB0VA3o
Ukx3v0R03Bwjq4vhz2PqQPvTPOYLzQ1hP5e8vzpIYi1Y5cEauTO+Q4UzRqmq6PdO
EpDL2nwPRIq+dg69/GZ72Dc8USXCQ3WUu3Bw/z7lm5djw4GPYbz2BjDFW3ZmaqBP
PuPpK2fvkL0jzz88i/dVGmGGqj0zHIzHRE/bTpcsIyN4+dpqHSjwaqiThbF2HNIq
tsfF1BGmV//aB6cC8xONZfCWog0ZHXaYt1OMbYDBgSYoCwIDAQABo4GiMIGfMAkG
A1UdEwQCMAAwHQYDVR0OBBYEFDQ3Mxwg168pc/ke5vePXexn2OIkMFEGA1UdIwRK
MEiAFIE7OjHSK9RBjmUZYn12W6DYvT+hoRqkGDAWMRQwEgYDVQQDDAt0ZWFtMTMw
LW5ldIIUUmQ6/B38QeiFexzkMpCMl6oKBxIwEwYDVR0lBAwwCgYIKwYBBQUHAwIw
CwYDVR0PBAQDAgeAMA0GCSqGSIb3DQEBCwUAA4IBAQCBAigsMn+f5g4LzhTklyOp
8wSt7DsPZOcQalfupCqLzrs/dJQjFObbPuxkf7dZjr/3aYPIItPQ+WsamQkRopQ1
6k2bTfTAsbu/cD+hPJ/VVekDzRKfvzl+sFdUh5ZBJVZtT5jUQHEJhThsWZed3VN/
NoriYyip2ef5qTyYYehOwItdr2mc4ORsS/G+Unqg7k6G2dgejlTAF6mmHc0M1YJe
prm0zhNV9UcypsjdxPp/xnNJPv2vbh9RRtOC4qUpIf05DT8IQdsMRrkcYzTt8RzJ
me7yPHI7Q16+tXVikUEScgw/ne6jCQ7hkQ/EM1fzXQyxeiet1HsQ5ZR0E6yYaL8U
-----END CERTIFICATE-----
