Certificate:
    Data:
        Version: 3 (0x2)
        Serial Number:
            60:46:f5:31:fe:84:b6:8b:b4:06:09:ee:d8:94:f8:fb
        Signature Algorithm: sha256WithRSAEncryption
        Issuer: CN=team130-net
        Validity
            Not Before: Nov  4 10:42:55 2023 GMT
            Not After : Oct 19 10:42:55 2026 GMT
        Subject: CN=team130-client
        Subject Public Key Info:
            Public Key Algorithm: rsaEncryption
                Public-Key: (2048 bit)
                Modulus:
                    00:d0:c1:d5:35:5a:9b:6b:3c:78:c6:20:c8:92:4a:
                    70:63:62:a4:5e:54:58:7e:68:4c:47:5b:8b:0b:5d:
                    e8:e0:eb:85:1a:4f:8f:58:96:ff:13:6c:a9:88:21:
                    61:c2:5a:ce:e5:86:d8:7e:16:c6:e0:c6:41:8a:35:
                    08:89:b1:39:89:8e:67:9d:22:dd:b2:0d:4c:0c:ed:
                    6f:f5:ad:6b:97:18:0a:e6:2c:eb:5c:bd:0d:a5:69:
                    6f:fa:7e:84:83:bd:bf:60:18:25:ec:9f:c1:49:9f:
                    fe:d9:8a:9f:97:88:c9:55:a8:83:b4:9d:48:bb:94:
                    e8:1f:f3:03:9b:48:c7:17:50:04:a3:0f:74:6f:53:
                    86:18:14:af:15:5f:bb:dc:1d:6c:9e:45:81:25:b9:
                    1f:89:ad:e4:f6:df:ff:de:2c:50:d2:6a:66:06:40:
                    2d:f7:a6:c7:aa:ad:d4:6b:8c:db:1e:9e:20:42:b1:
                    08:24:cf:30:8e:13:c6:b4:4a:ae:4e:47:9b:33:95:
                    4e:5b:8d:dd:13:ff:16:92:ea:f7:55:dc:df:69:4d:
                    ca:ee:af:d9:be:52:36:35:71:8b:39:c9:6a:71:0c:
                    cc:29:12:bd:b3:37:c6:39:2b:a8:8c:cb:27:1c:fc:
                    89:65:7b:e2:50:53:af:b8:49:5b:f1:a4:f5:12:7a:
                    d8:41
                Exponent: 65537 (0x10001)
        X509v3 extensions:
            X509v3 Basic Constraints: 
                CA:FALSE
            X509v3 Subject Key Identifier: 
                CF:0D:26:DE:42:84:F9:65:81:60:63:9E:51:0F:06:84:AC:E0:20:6D
            X509v3 Authority Key Identifier: 
                keyid:A1:DC:D4:6F:FC:C9:C5:70:BD:70:6D:44:05:99:3E:D3:40:A5:4B:86
                DirName:/CN=team130-net
                serial:24:8A:AC:43:B1:77:4D:7F:A0:05:64:79:7B:AB:A4:DA:FE:7E:C0:E5
            X509v3 Extended Key Usage: 
                TLS Web Client Authentication
            X509v3 Key Usage: 
                Digital Signature
    Signature Algorithm: sha256WithRSAEncryption
    Signature Value:
        0f:64:65:a5:47:48:2b:9b:08:04:8a:47:f4:72:bf:1b:26:62:
        f8:7a:14:ed:43:42:69:c3:54:de:6c:7d:b7:9f:a8:27:6f:fb:
        73:a3:05:97:8c:aa:a1:0d:57:cb:7b:7e:a2:10:df:d6:45:27:
        e9:01:df:02:48:e9:e6:17:5e:4f:71:59:e2:89:c3:9d:e0:b6:
        f0:bd:c5:34:b9:75:c0:26:5a:ea:d9:d3:2e:83:c6:b5:f9:f5:
        4c:47:b7:38:8e:13:9b:a4:e1:1b:a2:e1:3a:59:04:a3:31:00:
        64:9d:18:19:18:08:59:ce:4f:62:52:9e:a3:45:15:6a:58:25:
        f7:20:0d:16:28:0b:9f:01:20:07:6b:13:4b:f2:b3:6b:09:5f:
        bf:a8:85:8b:62:f9:9c:28:f2:78:ee:7b:87:da:31:31:39:4f:
        b9:8b:1f:d3:bb:77:21:a1:26:c4:61:fb:0f:e9:7a:e6:61:0e:
        69:7d:02:8e:46:7a:91:19:a7:75:f9:25:c4:bc:a8:6c:db:31:
        b2:4f:87:dd:e2:61:f0:90:95:b0:13:73:9e:ae:a2:7d:0c:7d:
        1f:82:71:bc:29:e4:54:b6:12:89:c4:41:13:08:48:2f:5c:03:
        03:96:9c:c5:78:8a:4e:ef:7a:93:16:90:7c:38:0e:f2:00:87:
        9e:02:d5:7d
-----BEGIN CERTIFICATE-----
MIIDXDCCAkSgAwIBAgIQYEb1Mf6Etou0Bgnu2JT4+zANBgkqhkiG9w0BAQsFADAW
MRQwEgYDVQQDDAt0ZWFtMTMwLW5ldDAeFw0yMzExMDQxMDQyNTVaFw0yNjEwMTkx
MDQyNTVaMBkxFzAVBgNVBAMMDnRlYW0xMzAtY2xpZW50MIIBIjANBgkqhkiG9w0B
AQEFAAOCAQ8AMIIBCgKCAQEA0MHVNVqbazx4xiDIkkpwY2KkXlRYfmhMR1uLC13o
4OuFGk+PWJb/E2ypiCFhwlrO5YbYfhbG4MZBijUIibE5iY5nnSLdsg1MDO1v9a1r
lxgK5izrXL0NpWlv+n6Eg72/YBgl7J/BSZ/+2Yqfl4jJVaiDtJ1Iu5ToH/MDm0jH
F1AEow90b1OGGBSvFV+73B1snkWBJbkfia3k9t//3ixQ0mpmBkAt96bHqq3Ua4zb
Hp4gQrEIJM8wjhPGtEquTkebM5VOW43dE/8Wkur3VdzfaU3K7q/ZvlI2NXGLOclq
cQzMKRK9szfGOSuojMsnHPyJZXviUFOvuElb8aT1EnrYQQIDAQABo4GiMIGfMAkG
A1UdEwQCMAAwHQYDVR0OBBYEFM8NJt5ChPllgWBjnlEPBoSs4CBtMFEGA1UdIwRK
MEiAFKHc1G/8ycVwvXBtRAWZPtNApUuGoRqkGDAWMRQwEgYDVQQDDAt0ZWFtMTMw
LW5ldIIUJIqsQ7F3TX+gBWR5e6uk2v5+wOUwEwYDVR0lBAwwCgYIKwYBBQUHAwIw
CwYDVR0PBAQDAgeAMA0GCSqGSIb3DQEBCwUAA4IBAQAPZGWlR0grmwgEikf0cr8b
JmL4ehTtQ0Jpw1TebH23n6gnb/tzowWXjKqhDVfLe36iEN/WRSfpAd8CSOnmF15P
cVniicOd4LbwvcU0uXXAJlrq2dMug8a1+fVMR7c4jhObpOEbouE6WQSjMQBknRgZ
GAhZzk9iUp6jRRVqWCX3IA0WKAufASAHaxNL8rNrCV+/qIWLYvmcKPJ47nuH2jEx
OU+5ix/Tu3choSbEYfsP6XrmYQ5pfQKORnqRGad1+SXEvKhs2zGyT4fd4mHwkJWw
E3OerqJ9DH0fgnG8KeRUthKJxEETCEgvXAMDlpzFeIpO73qTFpB8OA7yAIeeAtV9
-----END CERTIFICATE-----
