Certificate:
    Data:
        Version: 3 (0x2)
        Serial Number:
            66:cc:9f:d4:1c:41:a9:be:aa:d2:7c:42:01:90:1c:fa
        Signature Algorithm: sha256WithRSAEncryption
        Issuer: CN=team130-net
        Validity
            Not Before: Nov  4 10:42:55 2023 GMT
            Not After : Oct 19 10:42:55 2026 GMT
        Subject: CN=team130-server
        Subject Public Key Info:
            Public Key Algorithm: rsaEncryption
                Public-Key: (2048 bit)
                Modulus:
                    00:ad:86:ad:12:5f:84:d3:82:4d:d4:04:6c:9e:93:
                    2f:dd:4e:1d:98:d5:da:cd:69:5f:30:d0:cb:ca:fe:
                    ed:9f:34:d4:85:1b:ae:9b:d2:82:55:3e:7a:b1:7a:
                    88:63:28:c8:7b:90:43:1e:cb:b8:d1:b4:f7:4d:bf:
                    1b:d7:82:b4:c5:e7:57:d3:a9:5f:67:28:de:68:8a:
                    b8:95:cd:4f:06:57:1b:17:b1:17:7c:cd:d2:78:6a:
                    f2:62:d5:03:da:96:73:f6:db:ef:d6:f4:83:54:c8:
                    4d:53:8f:1a:5d:3f:99:b3:83:30:4c:73:94:3c:da:
                    2d:f0:51:b1:06:e5:f1:f7:90:e8:0e:0b:16:a2:a5:
                    07:fc:a4:33:1c:c6:7f:69:bc:e2:d5:e2:c1:58:ea:
                    5f:16:af:e4:0f:79:3b:52:3b:a5:ff:b3:7d:ee:d1:
                    7a:1f:cd:f4:ad:ca:eb:fa:5e:c3:19:64:8c:33:42:
                    0e:43:28:f7:55:89:44:be:08:c3:80:cb:82:65:70:
                    ff:17:cf:fe:cc:32:4e:fd:73:cc:6c:dd:88:16:49:
                    42:25:25:57:8e:2d:28:ca:9d:73:39:70:04:cc:2d:
                    e7:e8:5d:f8:48:bf:9a:9f:61:0a:77:26:6d:57:99:
                    50:65:dd:48:57:c5:cd:5e:32:e5:88:19:24:0c:d6:
                    e2:33
                Exponent: 65537 (0x10001)
        X509v3 extensions:
            X509v3 Basic Constraints: 
                CA:FALSE
            X509v3 Subject Key Identifier: 
                CE:E8:8D:68:E3:C1:CA:B5:5A:DB:32:6A:D8:43:1E:9C:C5:CB:B6:41
            X509v3 Authority Key Identifier: 
                keyid:A1:DC:D4:6F:FC:C9:C5:70:BD:70:6D:44:05:99:3E:D3:40:A5:4B:86
                DirName:/CN=team130-net
                serial:24:8A:AC:43:B1:77:4D:7F:A0:05:64:79:7B:AB:A4:DA:FE:7E:C0:E5
            X509v3 Extended Key Usage: 
                TLS Web Server Authentication
            X509v3 Key Usage: 
                Digital Signature, Key Encipherment
            X509v3 Subject Alternative Name: 
                DNS:team130-server
    Signature Algorithm: sha256WithRSAEncryption
    Signature Value:
        02:01:42:fa:d1:dd:2e:15:99:37:fc:50:25:35:84:79:4b:f1:
        b4:cc:4a:b3:4b:f0:51:e5:f3:59:4d:76:fd:0d:cb:73:69:f3:
        dd:0f:32:3f:5e:fe:52:52:21:5d:26:4e:96:3a:c2:fe:a0:61:
        5b:bb:be:5f:d2:f4:58:66:f2:71:ee:45:90:3a:b4:f1:65:14:
        f4:31:5e:63:e7:de:ce:eb:13:c3:6d:fe:94:3c:2f:f5:2d:3d:
        80:4e:a1:19:b0:2d:2f:b6:c4:3c:f6:ae:ac:31:2a:24:9c:05:
        01:5b:cd:52:77:4a:4e:d1:f9:6d:42:6d:71:eb:2a:97:67:8b:
        bc:e5:21:15:89:2a:80:91:b1:cf:98:66:5b:3a:18:62:b1:e6:
        fd:03:80:fe:db:02:bf:a5:f4:14:65:6b:2c:22:dd:27:63:a1:
        11:e4:6a:ce:bd:27:ab:1d:02:80:27:fd:53:83:e7:d9:92:25:
        8b:36:12:76:8e:63:ac:7b:ea:9b:33:b0:b2:da:2b:04:e3:8e:
        4f:41:87:da:74:de:31:2c:fb:ed:a9:8e:b7:4f:f7:d3:44:1d:
        94:7e:e7:cd:60:08:9c:e4:c5:47:1f:be:6a:2c:25:d4:4d:ed:
        b4:18:a0:a5:fe:ee:46:67:b1:32:b7:da:53:75:c3:51:ac:c1:
        7c:54:fa:cc
-----BEGIN CERTIFICATE-----
MIIDdzCCAl+gAwIBAgIQZsyf1BxBqb6q0nxCAZAc+jANBgkqhkiG9w0BAQsFADAW
MRQwEgYDVQQDDAt0ZWFtMTMwLW5ldDAeFw0yMzExMDQxMDQyNTVaFw0yNjEwMTkx
MDQyNTVaMBkxFzAVBgNVBAMMDnRlYW0xMzAtc2VydmVyMIIBIjANBgkqhkiG9w0B
AQEFAAOCAQ8AMIIBCgKCAQEArYatEl+E04JN1ARsnpMv3U4dmNXazWlfMNDLyv7t
nzTUhRuum9KCVT56sXqIYyjIe5BDHsu40bT3Tb8b14K0xedX06lfZyjeaIq4lc1P
BlcbF7EXfM3SeGryYtUD2pZz9tvv1vSDVMhNU48aXT+Zs4MwTHOUPNot8FGxBuXx
95DoDgsWoqUH/KQzHMZ/abzi1eLBWOpfFq/kD3k7Ujul/7N97tF6H830rcrr+l7D
GWSMM0IOQyj3VYlEvgjDgMuCZXD/F8/+zDJO/XPMbN2IFklCJSVXji0oyp1zOXAE
zC3n6F34SL+an2EKdyZtV5lQZd1IV8XNXjLliBkkDNbiMwIDAQABo4G9MIG6MAkG
A1UdEwQCMAAwHQYDVR0OBBYEFM7ojWjjwcq1WtsyathDHpzFy7ZBMFEGA1UdIwRK
MEiAFKHc1G/8ycVwvXBtRAWZPtNApUuGoRqkGDAWMRQwEgYDVQQDDAt0ZWFtMTMw
LW5ldIIUJIqsQ7F3TX+gBWR5e6uk2v5+wOUwEwYDVR0lBAwwCgYIKwYBBQUHAwEw
CwYDVR0PBAQDAgWgMBkGA1UdEQQSMBCCDnRlYW0xMzAtc2VydmVyMA0GCSqGSIb3
DQEBCwUAA4IBAQACAUL60d0uFZk3/FAlNYR5S/G0zEqzS/BR5fNZTXb9DctzafPd
DzI/Xv5SUiFdJk6WOsL+oGFbu75f0vRYZvJx7kWQOrTxZRT0MV5j597O6xPDbf6U
PC/1LT2ATqEZsC0vtsQ89q6sMSoknAUBW81Sd0pO0fltQm1x6yqXZ4u85SEViSqA
kbHPmGZbOhhiseb9A4D+2wK/pfQUZWssIt0nY6ER5GrOvSerHQKAJ/1Tg+fZkiWL
NhJ2jmOse+qbM7Cy2isE445PQYfadN4xLPvtqY63T/fTRB2UfufNYAic5MVHH75q
LCXUTe20GKCl/u5GZ7Eyt9pTdcNRrMF8VPrM
-----END CERTIFICATE-----
