Certificate:
    Data:
        Version: 3 (0x2)
        Serial Number:
            ef:b0:2d:8b:fb:a7:6d:53:c0:be:a4:61:1e:d1:29:36
        Signature Algorithm: sha256WithRSAEncryption
        Issuer: CN=team130-net
        Validity
            Not Before: Nov  4 11:30:03 2023 GMT
            Not After : Oct 19 11:30:03 2026 GMT
        Subject: CN=team130-server
        Subject Public Key Info:
            Public Key Algorithm: rsaEncryption
                Public-Key: (2048 bit)
                Modulus:
                    00:d7:76:70:4b:40:e5:fd:7c:bc:12:79:6b:0c:a9:
                    86:35:30:cc:7b:05:7a:fb:16:2e:19:b3:48:5a:53:
                    85:f4:70:6e:5f:27:be:9f:33:68:1b:ed:a4:ff:26:
                    da:1e:bb:85:6e:eb:43:76:f2:08:79:26:c1:97:48:
                    6e:86:e0:8b:ed:8a:02:99:9c:0a:a1:9e:8e:a6:3f:
                    44:f2:73:ff:a1:49:56:5d:0b:57:aa:52:49:3e:54:
                    ae:49:f3:f2:d0:b1:ba:ae:cc:df:af:b7:06:e0:9c:
                    f5:7b:43:55:21:ff:19:b2:66:c0:30:9a:4f:de:28:
                    3b:82:c1:88:74:4c:9c:08:ca:9b:80:35:c0:45:8f:
                    11:23:28:f9:f5:96:9d:76:34:eb:ea:08:53:70:94:
                    62:cc:0f:6f:90:de:d9:32:11:67:2a:a3:d4:9e:08:
                    9c:91:70:09:8d:96:7f:bd:93:2a:0c:4a:d5:07:d6:
                    06:fe:24:7a:66:6a:06:77:ae:e9:04:48:40:35:8d:
                    60:62:f6:eb:33:bb:88:ed:9e:f5:5f:e3:ba:e7:53:
                    e0:b1:27:7a:15:a8:e3:52:01:a2:41:7b:7f:d2:d3:
                    44:25:71:d6:dd:a0:7e:ce:bd:bf:a4:a0:03:6d:71:
                    e7:a0:c2:e6:72:a1:53:39:df:e0:ce:e4:34:b4:e7:
                    1e:a7
                Exponent: 65537 (0x10001)
        X509v3 extensions:
            X509v3 Basic Constraints: 
                CA:FALSE
            X509v3 Subject Key Identifier: 
                3A:7C:D2:94:67:24:2A:19:79:BE:50:31:7B:36:15:63:D2:EA:FD:ED
            X509v3 Authority Key Identifier: 
                keyid:81:3B:3A:31:D2:2B:D4:41:8E:65:19:62:7D:76:5B:A0:D8:BD:3F:A1
                DirName:/CN=team130-net
                serial:52:64:3A:FC:1D:FC:41:E8:85:7B:1C:E4:32:90:8C:97:AA:0A:07:12
            X509v3 Extended Key Usage: 
                TLS Web Server Authentication
            X509v3 Key Usage: 
                Digital Signature, Key Encipherment
            X509v3 Subject Alternative Name: 
                DNS:team130-server
    Signature Algorithm: sha256WithRSAEncryption
    Signature Value:
        14:da:6c:11:34:53:44:51:54:ae:3b:71:2b:56:85:34:80:e0:
        f7:f0:ba:8b:d1:33:fe:4a:26:7d:f4:13:b2:60:f9:b8:a1:d3:
        73:a7:23:7e:15:a2:b7:73:69:b9:08:3e:1a:43:3c:0c:48:c1:
        a3:2d:00:37:43:1d:31:e0:a7:2f:8b:68:72:db:c5:7c:22:29:
        6d:a3:c4:ce:13:62:f6:c2:f4:9d:12:7e:a9:c7:b7:5c:79:ae:
        ea:3d:e5:33:36:c3:0d:15:bb:87:b1:c4:3e:0f:ee:cb:c9:1d:
        2a:66:51:7f:2f:3f:5a:5c:70:06:ba:38:6e:ea:70:7d:51:26:
        09:05:b4:5b:e2:68:42:9c:7b:1a:7c:77:50:ba:fa:31:cd:68:
        96:5d:ac:bf:d4:03:5d:40:e3:78:36:a7:70:48:91:d5:a8:0e:
        03:41:fb:ae:2a:e1:09:c6:4e:74:11:56:0b:11:7a:bb:4b:e4:
        b8:5a:cc:29:cd:7a:63:71:3b:8b:16:35:b3:74:92:c3:60:fe:
        07:65:7d:f8:e3:32:83:70:b3:a2:57:18:cb:cf:fa:db:87:dd:
        40:2a:d4:25:2d:b7:b5:89:e3:a1:85:f7:ff:1c:11:61:d5:e6:
        b6:0a:0c:df:58:2f:e1:0b:5b:00:22:90:5a:e1:ec:c8:f5:f1:
        fa:36:10:b8
-----BEGIN CERTIFICATE-----
MIIDeDCCAmCgAwIBAgIRAO+wLYv7p21TwL6kYR7RKTYwDQYJKoZIhvcNAQELBQAw
FjEUMBIGA1UEAwwLdGVhbTEzMC1uZXQwHhcNMjMxMTA0MTEzMDAzWhcNMjYxMDE5
MTEzMDAzWjAZMRcwFQYDVQQDDA50ZWFtMTMwLXNlcnZlcjCCASIwDQYJKoZIhvcN
AQEBBQADggEPADCCAQoCggEBANd2cEtA5f18vBJ5awyphjUwzHsFevsWLhmzSFpT
hfRwbl8nvp8zaBvtpP8m2h67hW7rQ3byCHkmwZdIbobgi+2KApmcCqGejqY/RPJz
/6FJVl0LV6pSST5Urknz8tCxuq7M36+3BuCc9XtDVSH/GbJmwDCaT94oO4LBiHRM
nAjKm4A1wEWPESMo+fWWnXY06+oIU3CUYswPb5De2TIRZyqj1J4InJFwCY2Wf72T
KgxK1QfWBv4kemZqBneu6QRIQDWNYGL26zO7iO2e9V/juudT4LEnehWo41IBokF7
f9LTRCVx1t2gfs69v6SgA21x56DC5nKhUznf4M7kNLTnHqcCAwEAAaOBvTCBujAJ
BgNVHRMEAjAAMB0GA1UdDgQWBBQ6fNKUZyQqGXm+UDF7NhVj0ur97TBRBgNVHSME
SjBIgBSBOzox0ivUQY5lGWJ9dlug2L0/oaEapBgwFjEUMBIGA1UEAwwLdGVhbTEz
MC1uZXSCFFJkOvwd/EHohXsc5DKQjJeqCgcSMBMGA1UdJQQMMAoGCCsGAQUFBwMB
MAsGA1UdDwQEAwIFoDAZBgNVHREEEjAQgg50ZWFtMTMwLXNlcnZlcjANBgkqhkiG
9w0BAQsFAAOCAQEAFNpsETRTRFFUrjtxK1aFNIDg9/C6i9Ez/komffQTsmD5uKHT
c6cjfhWit3NpuQg+GkM8DEjBoy0AN0MdMeCnL4toctvFfCIpbaPEzhNi9sL0nRJ+
qce3XHmu6j3lMzbDDRW7h7HEPg/uy8kdKmZRfy8/WlxwBro4bupwfVEmCQW0W+Jo
Qpx7Gnx3ULr6Mc1oll2sv9QDXUDjeDancEiR1agOA0H7rirhCcZOdBFWCxF6u0vk
uFrMKc16Y3E7ixY1s3SSw2D+B2V9+OMyg3CzolcYy8/624fdQCrUJS23tYnjoYX3
/xwRYdXmtgoM31gv4QtbACKQWuHsyPXx+jYQuA==
-----END CERTIFICATE-----
