Certificate:
    Data:
        Version: 3 (0x2)
        Serial Number:
            78:2b:15:e1:6b:9a:a9:0a:fe:dd:d2:af:cc:8d:75:f9
        Signature Algorithm: sha256WithRSAEncryption
        Issuer: CN=team384-net
        Validity
            Not Before: Nov  3 20:46:11 2023 GMT
            Not After : Oct 18 20:46:11 2026 GMT
        Subject: CN=team384-server
        Subject Public Key Info:
            Public Key Algorithm: rsaEncryption
                Public-Key: (2048 bit)
                Modulus:
                    00:e0:24:e8:20:58:83:b8:61:c7:8e:56:69:63:a5:
                    37:3b:4a:c4:b8:67:b0:c9:8a:3a:87:7d:59:24:0d:
                    4e:09:8d:64:e0:f8:a3:32:25:60:50:90:c8:de:c1:
                    4b:34:9d:49:6c:c0:cb:68:d9:82:10:47:71:4f:89:
                    f6:68:92:2f:94:8f:f5:ff:9d:a0:f8:3a:cf:fe:6a:
                    4a:09:71:61:4e:8d:05:05:61:e8:8c:54:6b:e2:47:
                    25:9c:e2:61:a3:97:1f:72:3c:d4:f8:4a:f9:d9:f6:
                    ce:40:e8:16:9e:28:a5:dc:8d:8e:5e:00:ec:6e:5f:
                    f9:9f:fa:bd:2e:53:f1:e7:e7:fa:17:6a:8d:08:78:
                    11:0a:85:03:df:5f:39:c8:5d:aa:50:a9:76:8f:37:
                    aa:4a:ba:d0:f2:12:c3:18:a8:e8:e5:21:e0:de:89:
                    94:8b:1e:32:a7:2e:f8:d6:f4:4f:be:2c:7e:01:5f:
                    d3:fd:61:b5:ae:f1:e1:5e:c5:4f:ca:f2:af:44:b9:
                    50:e9:8f:ce:6f:d0:79:71:42:5a:80:db:5c:7a:a0:
                    29:90:44:df:c0:54:0e:31:73:9e:ae:a8:15:ce:83:
                    e0:4f:8f:b4:0f:a8:de:0c:c4:3d:1a:60:cf:1f:60:
                    5d:48:3c:3a:5f:c8:8a:e6:75:e7:57:b4:c2:b9:e1:
                    96:93
                Exponent: 65537 (0x10001)
        X509v3 extensions:
            X509v3 Basic Constraints: 
                CA:FALSE
            X509v3 Subject Key Identifier: 
                1F:44:AF:1D:1E:48:0A:69:98:C7:DB:88:DB:26:3B:A2:ED:08:E3:B6
            X509v3 Authority Key Identifier: 
                keyid:12:EA:DB:06:12:16:46:AD:1F:5A:FD:CF:B0:B3:4C:DE:EF:0C:7B:63
                DirName:/CN=team384-net
                serial:14:8D:79:05:E1:C8:1C:F7:99:14:AF:68:09:39:0C:4D:06:18:BF:C7
            X509v3 Extended Key Usage: 
                TLS Web Server Authentication
            X509v3 Key Usage: 
                Digital Signature, Key Encipherment
            X509v3 Subject Alternative Name: 
                DNS:team384-server
    Signature Algorithm: sha256WithRSAEncryption
    Signature Value:
        33:43:8c:bd:90:76:c0:3e:a1:54:23:3e:90:1a:18:9d:02:bf:
        6e:10:41:e4:7b:af:7b:92:b2:bd:3f:bf:fc:fb:8c:8d:b3:fa:
        fd:bc:d5:72:f4:22:a0:0f:3c:7d:9b:97:b1:a5:74:5f:f0:ec:
        99:bd:07:d2:b8:f6:c1:49:88:41:81:d8:6b:5b:9e:c4:70:ee:
        ec:9a:0e:83:33:1b:58:1c:f4:3f:eb:f9:ba:81:f7:49:17:6b:
        61:d7:85:d5:a2:bb:a2:69:15:fb:49:8a:a5:f1:88:ac:5d:cd:
        b4:fa:dd:1a:6f:8f:6c:31:62:99:84:70:13:07:dc:fc:7f:1a:
        49:3a:10:fa:87:ec:6a:b6:93:08:a3:d6:85:e6:76:75:48:19:
        3a:09:2f:01:d4:9d:49:be:97:0e:cd:a0:b3:be:4d:e0:b8:0f:
        83:85:fe:ce:11:7d:e6:25:b6:0e:78:85:71:4c:f1:e2:2b:81:
        56:e2:b4:af:31:46:2f:4e:36:a9:dd:45:6a:d6:13:3f:83:d4:
        7e:5a:09:39:0d:cf:5c:11:e9:a9:93:67:7e:ed:64:70:41:ad:
        57:16:de:71:a2:7d:d5:b3:b8:60:d1:e6:33:2b:6a:ff:7a:bc:
        9d:d8:7d:26:e9:6a:9a:02:94:cd:e0:cb:92:79:de:a2:a2:04:
        cb:7e:e4:91
-----BEGIN CERTIFICATE-----
MIIDdzCCAl+gAwIBAgIQeCsV4WuaqQr+3dKvzI11+TANBgkqhkiG9w0BAQsFADAW
MRQwEgYDVQQDDAt0ZWFtMzg0LW5ldDAeFw0yMzExMDMyMDQ2MTFaFw0yNjEwMTgy
MDQ2MTFaMBkxFzAVBgNVBAMMDnRlYW0zODQtc2VydmVyMIIBIjANBgkqhkiG9w0B
AQEFAAOCAQ8AMIIBCgKCAQEA4CToIFiDuGHHjlZpY6U3O0rEuGewyYo6h31ZJA1O
CY1k4PijMiVgUJDI3sFLNJ1JbMDLaNmCEEdxT4n2aJIvlI/1/52g+DrP/mpKCXFh
To0FBWHojFRr4kclnOJho5cfcjzU+Er52fbOQOgWniil3I2OXgDsbl/5n/q9LlPx
5+f6F2qNCHgRCoUD3185yF2qUKl2jzeqSrrQ8hLDGKjo5SHg3omUix4ypy741vRP
vix+AV/T/WG1rvHhXsVPyvKvRLlQ6Y/Ob9B5cUJagNtceqApkETfwFQOMXOerqgV
zoPgT4+0D6jeDMQ9GmDPH2BdSDw6X8iK5nXnV7TCueGWkwIDAQABo4G9MIG6MAkG
A1UdEwQCMAAwHQYDVR0OBBYEFB9Erx0eSAppmMfbiNsmO6LtCOO2MFEGA1UdIwRK
MEiAFBLq2wYSFkatH1r9z7CzTN7vDHtjoRqkGDAWMRQwEgYDVQQDDAt0ZWFtMzg0
LW5ldIIUFI15BeHIHPeZFK9oCTkMTQYYv8cwEwYDVR0lBAwwCgYIKwYBBQUHAwEw
CwYDVR0PBAQDAgWgMBkGA1UdEQQSMBCCDnRlYW0zODQtc2VydmVyMA0GCSqGSIb3
DQEBCwUAA4IBAQAzQ4y9kHbAPqFUIz6QGhidAr9uEEHke697krK9P7/8+4yNs/r9
vNVy9CKgDzx9m5expXRf8OyZvQfSuPbBSYhBgdhrW57EcO7smg6DMxtYHPQ/6/m6
gfdJF2th14XVoruiaRX7SYql8YisXc20+t0ab49sMWKZhHATB9z8fxpJOhD6h+xq
tpMIo9aF5nZ1SBk6CS8B1J1JvpcOzaCzvk3guA+Dhf7OEX3mJbYOeIVxTPHiK4FW
4rSvMUYvTjap3UVq1hM/g9R+Wgk5Dc9cEempk2d+7WRwQa1XFt5xon3Vs7hg0eYz
K2r/eryd2H0m6WqaApTN4MuSed6iogTLfuSR
-----END CERTIFICATE-----
