Certificate:
    Data:
        Version: 3 (0x2)
        Serial Number:
            12:04:bc:fb:bb:b7:21:7b:0a:69:bc:65:2a:34:54:63
        Signature Algorithm: sha256WithRSAEncryption
        Issuer: CN=team226-net
        Validity
            Not Before: Nov  4 11:32:03 2023 GMT
            Not After : Oct 19 11:32:03 2026 GMT
        Subject: CN=team226-server
        Subject Public Key Info:
            Public Key Algorithm: rsaEncryption
                Public-Key: (2048 bit)
                Modulus:
                    00:9b:c0:74:e2:5f:a2:34:3a:23:a2:6a:a3:2b:e6:
                    9e:b9:40:d7:95:6a:ac:35:08:e5:36:fd:dd:78:5a:
                    4b:c1:07:5d:52:9d:29:d8:7c:56:3c:86:30:bd:f4:
                    18:ff:b4:02:ae:e4:76:c4:3b:f8:7b:c2:97:7c:54:
                    e9:be:c6:40:e9:0a:b9:0f:2a:da:1e:ae:d6:3b:e1:
                    d3:94:e7:a4:a7:bc:dd:e3:51:78:4f:9b:90:0c:82:
                    98:71:0b:8c:c6:d7:26:f8:67:ec:58:93:d2:6a:4f:
                    1d:61:b2:a7:9e:8e:d3:0f:b0:aa:7d:a9:d0:18:18:
                    4a:5d:a1:7a:e5:59:c6:38:29:34:d2:19:4c:a7:e2:
                    99:9c:19:75:6b:18:20:a4:a0:dc:dd:e8:86:69:d3:
                    fa:15:fc:b6:b1:80:71:60:12:68:ff:76:13:5e:e6:
                    b2:67:1c:36:26:c0:af:0b:c3:f7:cc:1a:05:49:f9:
                    04:5d:18:38:e5:72:44:74:2f:ec:86:b5:00:12:b5:
                    c0:84:4a:26:fb:bb:9e:67:8d:eb:26:3e:a0:8f:eb:
                    c2:fb:99:8d:62:92:be:ea:58:0c:23:71:f1:83:61:
                    9c:07:cd:9e:97:25:ca:da:f5:dc:fa:b9:29:e4:62:
                    af:57:74:c5:23:97:2e:7b:82:58:f1:57:c2:08:14:
                    92:29
                Exponent: 65537 (0x10001)
        X509v3 extensions:
            X509v3 Basic Constraints: 
                CA:FALSE
            X509v3 Subject Key Identifier: 
                A4:7A:C9:18:9D:93:26:8F:E5:C3:48:B6:F3:FC:21:87:2A:4B:59:04
            X509v3 Authority Key Identifier: 
                keyid:BA:EF:D9:EB:C6:C0:2C:78:05:A4:27:62:D9:FA:29:5E:24:7F:76:15
                DirName:/CN=team226-net
                serial:2D:9B:E7:B5:4C:C6:53:53:ED:5D:EC:84:BA:57:F7:61:9E:89:02:5B
            X509v3 Extended Key Usage: 
                TLS Web Server Authentication
            X509v3 Key Usage: 
                Digital Signature, Key Encipherment
            X509v3 Subject Alternative Name: 
                DNS:team226-server
    Signature Algorithm: sha256WithRSAEncryption
    Signature Value:
        85:cb:f6:df:c7:8b:d4:d7:b7:82:bc:ee:c3:2a:cb:f8:ca:8a:
        77:95:83:27:c5:75:f7:a6:41:b3:fc:fd:49:c0:e8:58:20:41:
        d3:b7:2b:d6:cb:f3:a2:b1:09:1a:a8:86:cc:23:0b:a7:c8:b7:
        55:65:69:7d:3e:90:7e:4d:8c:4d:22:62:1a:12:e1:39:11:5f:
        ff:b3:cc:a9:29:4f:45:ca:49:0d:21:9e:78:1a:d9:07:49:63:
        ee:72:13:bc:17:35:8e:84:b5:a8:e1:bf:04:ff:f5:00:ba:19:
        c4:c9:da:52:c9:ae:7e:0d:bb:07:44:15:98:f6:c9:f9:5b:32:
        19:51:db:77:40:6b:af:82:0b:c8:98:ba:58:8e:fd:56:24:c3:
        71:24:d2:63:f8:af:45:4b:f8:54:91:29:a4:2e:6f:b1:64:79:
        ee:53:47:7f:2d:d5:c7:b7:47:c1:d5:6d:86:92:13:e3:81:ba:
        a0:98:db:b3:3c:3a:95:f6:ae:08:64:0f:8d:98:c3:85:c0:e0:
        30:d3:d2:90:b1:a7:80:13:4c:ed:02:65:40:2f:47:5c:c4:ac:
        ed:21:25:aa:c1:70:76:6d:b6:05:28:4a:d7:c4:31:a7:ef:c0:
        26:08:03:71:83:74:d2:04:88:0e:20:11:c5:80:52:33:f3:37:
        9b:01:6b:a4
-----BEGIN CERTIFICATE-----
MIIDdzCCAl+gAwIBAgIQEgS8+7u3IXsKabxlKjRUYzANBgkqhkiG9w0BAQsFADAW
MRQwEgYDVQQDDAt0ZWFtMjI2LW5ldDAeFw0yMzExMDQxMTMyMDNaFw0yNjEwMTkx
MTMyMDNaMBkxFzAVBgNVBAMMDnRlYW0yMjYtc2VydmVyMIIBIjANBgkqhkiG9w0B
AQEFAAOCAQ8AMIIBCgKCAQEAm8B04l+iNDojomqjK+aeuUDXlWqsNQjlNv3deFpL
wQddUp0p2HxWPIYwvfQY/7QCruR2xDv4e8KXfFTpvsZA6Qq5DyraHq7WO+HTlOek
p7zd41F4T5uQDIKYcQuMxtcm+GfsWJPSak8dYbKnno7TD7CqfanQGBhKXaF65VnG
OCk00hlMp+KZnBl1axggpKDc3eiGadP6Ffy2sYBxYBJo/3YTXuayZxw2JsCvC8P3
zBoFSfkEXRg45XJEdC/shrUAErXAhEom+7ueZ43rJj6gj+vC+5mNYpK+6lgMI3Hx
g2GcB82elyXK2vXc+rkp5GKvV3TFI5cue4JY8VfCCBSSKQIDAQABo4G9MIG6MAkG
A1UdEwQCMAAwHQYDVR0OBBYEFKR6yRidkyaP5cNItvP8IYcqS1kEMFEGA1UdIwRK
MEiAFLrv2evGwCx4BaQnYtn6KV4kf3YVoRqkGDAWMRQwEgYDVQQDDAt0ZWFtMjI2
LW5ldIIULZvntUzGU1PtXeyEulf3YZ6JAlswEwYDVR0lBAwwCgYIKwYBBQUHAwEw
CwYDVR0PBAQDAgWgMBkGA1UdEQQSMBCCDnRlYW0yMjYtc2VydmVyMA0GCSqGSIb3
DQEBCwUAA4IBAQCFy/bfx4vU17eCvO7DKsv4yop3lYMnxXX3pkGz/P1JwOhYIEHT
tyvWy/OisQkaqIbMIwunyLdVZWl9PpB+TYxNImIaEuE5EV//s8ypKU9FykkNIZ54
GtkHSWPuchO8FzWOhLWo4b8E//UAuhnEydpSya5+DbsHRBWY9sn5WzIZUdt3QGuv
ggvImLpYjv1WJMNxJNJj+K9FS/hUkSmkLm+xZHnuU0d/LdXHt0fB1W2GkhPjgbqg
mNuzPDqV9q4IZA+NmMOFwOAw09KQsaeAE0ztAmVAL0dcxKztISWqwXB2bbYFKErX
xDGn78AmCANxg3TSBIgOIBHFgFIz8zebAWuk
-----END CERTIFICATE-----
