Certificate:
    Data:
        Version: 3 (0x2)
        Serial Number:
            4f:7b:ca:cd:c9:30:a2:1e:57:eb:08:4e:63:c3:79:80
        Signature Algorithm: sha256WithRSAEncryption
        Issuer: CN=team226-net
        Validity
            Not Before: Nov  4 10:44:52 2023 GMT
            Not After : Oct 19 10:44:52 2026 GMT
        Subject: CN=team226-client
        Subject Public Key Info:
            Public Key Algorithm: rsaEncryption
                Public-Key: (2048 bit)
                Modulus:
                    00:b4:9a:3d:c9:00:44:5f:65:85:64:39:dc:c4:ca:
                    77:a9:57:f2:02:3a:95:78:66:35:7e:0d:50:09:92:
                    ba:67:80:dd:0c:5d:f0:94:d9:90:d9:fd:ca:72:36:
                    68:bb:01:df:c8:61:c8:5c:b3:07:a1:18:4f:0a:00:
                    a3:bc:15:85:ff:d0:79:aa:45:07:11:dd:09:43:06:
                    fa:0a:43:49:64:69:24:0d:ea:7b:98:01:7c:63:28:
                    89:df:9f:ca:08:00:a1:d1:64:ac:ae:b2:1d:92:c1:
                    82:62:7b:c1:52:e9:52:f9:a1:b5:69:f9:93:6d:2c:
                    62:d4:bf:36:c9:e5:a1:a3:fe:7e:ba:a6:cf:35:8c:
                    a8:a5:74:82:70:65:22:b2:60:bc:7f:f6:b6:66:d1:
                    9a:a6:e0:13:15:fb:d8:6a:85:c8:ac:56:35:85:cf:
                    de:80:62:61:f5:d2:af:c6:6d:cd:19:ea:e3:b5:99:
                    70:ce:b3:06:8c:3a:83:c7:a5:56:40:e4:ae:f1:51:
                    79:dc:1a:04:6e:f7:b1:59:8a:fa:ac:de:d6:ae:83:
                    ce:b0:97:56:81:98:5b:30:26:3d:89:aa:8f:0a:e4:
                    b9:b7:5f:37:80:21:69:ee:0c:7b:f4:8b:64:bb:8b:
                    7a:fe:c9:40:5b:88:81:39:5a:3e:90:df:72:fd:9d:
                    7b:5f
                Exponent: 65537 (0x10001)
        X509v3 extensions:
            X509v3 Basic Constraints: 
                CA:FALSE
            X509v3 Subject Key Identifier: 
                32:9E:99:38:3E:47:75:89:FA:06:13:A1:CF:13:16:80:F9:47:0D:EB
            X509v3 Authority Key Identifier: 
                keyid:1B:E6:44:D2:4F:77:9D:FD:8E:01:FD:03:93:DF:9F:F4:72:81:79:DD
                DirName:/CN=team226-net
                serial:07:76:3D:AF:7B:74:A1:4C:D6:39:FF:B1:BE:4D:F1:36:09:A5:31:BE
            X509v3 Extended Key Usage: 
                TLS Web Client Authentication
            X509v3 Key Usage: 
                Digital Signature
    Signature Algorithm: sha256WithRSAEncryption
    Signature Value:
        1c:be:6f:59:6f:63:bb:c8:e3:8b:df:df:f2:75:35:96:d3:b7:
        1f:15:08:1b:95:2e:19:66:93:d2:92:22:71:ea:c6:60:cf:1b:
        c4:6e:cf:2a:ee:f4:a5:dc:22:5f:46:d7:28:d2:65:ac:8d:a1:
        98:9e:fd:1c:08:56:ef:fe:92:f5:16:e9:41:d8:5c:96:be:3f:
        7e:8d:58:bc:15:19:b1:6e:aa:e5:92:58:e6:69:f6:6e:31:9d:
        3f:e3:c1:e8:59:e8:e3:55:3c:fb:5f:4b:c8:61:ef:cf:ac:e2:
        06:25:8a:41:db:ad:86:8b:f0:59:03:93:fa:3c:d0:0a:07:41:
        a5:98:42:6e:d2:fd:ac:af:f2:8a:40:88:9a:21:16:7c:cf:72:
        ec:ed:23:38:2c:32:ad:69:02:0c:e8:46:74:f3:8d:2f:63:33:
        f3:47:50:10:ac:24:51:2c:0f:c8:0a:98:6a:c6:35:b3:43:c4:
        0e:d4:d4:95:12:56:62:6a:ef:3c:39:1c:e8:69:08:51:c6:5b:
        a5:7b:e0:73:8c:58:44:04:98:ab:7d:a1:1b:be:f4:29:47:ab:
        67:f7:90:d2:d1:93:da:0d:4e:3d:48:1d:b5:e7:6b:ca:51:05:
        21:4d:eb:89:82:63:9f:5c:c2:35:e4:31:fd:07:2c:70:aa:cc:
        26:6f:93:62
-----BEGIN CERTIFICATE-----
MIIDXDCCAkSgAwIBAgIQT3vKzckwoh5X6whOY8N5gDANBgkqhkiG9w0BAQsFADAW
MRQwEgYDVQQDDAt0ZWFtMjI2LW5ldDAeFw0yMzExMDQxMDQ0NTJaFw0yNjEwMTkx
MDQ0NTJaMBkxFzAVBgNVBAMMDnRlYW0yMjYtY2xpZW50MIIBIjANBgkqhkiG9w0B
AQEFAAOCAQ8AMIIBCgKCAQEAtJo9yQBEX2WFZDncxMp3qVfyAjqVeGY1fg1QCZK6
Z4DdDF3wlNmQ2f3KcjZouwHfyGHIXLMHoRhPCgCjvBWF/9B5qkUHEd0JQwb6CkNJ
ZGkkDep7mAF8YyiJ35/KCACh0WSsrrIdksGCYnvBUulS+aG1afmTbSxi1L82yeWh
o/5+uqbPNYyopXSCcGUismC8f/a2ZtGapuATFfvYaoXIrFY1hc/egGJh9dKvxm3N
GerjtZlwzrMGjDqDx6VWQOSu8VF53BoEbvexWYr6rN7WroPOsJdWgZhbMCY9iaqP
CuS5t183gCFp7gx79Itku4t6/slAW4iBOVo+kN9y/Z17XwIDAQABo4GiMIGfMAkG
A1UdEwQCMAAwHQYDVR0OBBYEFDKemTg+R3WJ+gYToc8TFoD5Rw3rMFEGA1UdIwRK
MEiAFBvmRNJPd539jgH9A5Pfn/RygXndoRqkGDAWMRQwEgYDVQQDDAt0ZWFtMjI2
LW5ldIIUB3Y9r3t0oUzWOf+xvk3xNgmlMb4wEwYDVR0lBAwwCgYIKwYBBQUHAwIw
CwYDVR0PBAQDAgeAMA0GCSqGSIb3DQEBCwUAA4IBAQAcvm9Zb2O7yOOL39/ydTWW
07cfFQgblS4ZZpPSkiJx6sZgzxvEbs8q7vSl3CJfRtco0mWsjaGYnv0cCFbv/pL1
FulB2FyWvj9+jVi8FRmxbqrlkljmafZuMZ0/48HoWejjVTz7X0vIYe/PrOIGJYpB
262Gi/BZA5P6PNAKB0GlmEJu0v2sr/KKQIiaIRZ8z3Ls7SM4LDKtaQIM6EZ0840v
YzPzR1AQrCRRLA/ICphqxjWzQ8QO1NSVElZiau88ORzoaQhRxlule+BzjFhEBJir
faEbvvQpR6tn95DS0ZPaDU49SB2152vKUQUhTeuJgmOfXMI15DH9Byxwqswmb5Ni
-----END CERTIFICATE-----
