Certificate:
    Data:
        Version: 3 (0x2)
        Serial Number:
            9b:2e:93:ba:67:30:ac:c9:62:bb:c2:b9:da:1b:1b:16
        Signature Algorithm: sha256WithRSAEncryption
        Issuer: CN=team226-net
        Validity
            Not Before: Nov  4 10:44:52 2023 GMT
            Not After : Oct 19 10:44:52 2026 GMT
        Subject: CN=team226-server
        Subject Public Key Info:
            Public Key Algorithm: rsaEncryption
                Public-Key: (2048 bit)
                Modulus:
                    00:af:b8:3f:41:8a:66:3e:f4:53:47:b3:bd:cd:cd:
                    3d:9b:95:f8:65:ce:26:62:4f:01:5f:eb:6e:6e:17:
                    8d:cc:09:2d:fe:a8:07:d1:fb:a3:22:4c:e5:87:02:
                    e1:b8:53:3c:f7:a3:0f:f0:d7:24:70:2f:14:68:02:
                    ff:18:08:bd:82:82:d7:c5:0f:ff:fb:41:e0:6f:5a:
                    d1:44:57:38:b5:db:b9:db:c5:e5:25:e7:e1:14:db:
                    33:65:1a:7b:26:4a:1a:96:3c:78:4e:52:cd:9d:9a:
                    84:2d:60:e3:f5:21:d2:89:78:30:c2:6c:fc:76:45:
                    4c:1c:d1:76:cc:52:e0:eb:a1:70:c4:cf:78:77:05:
                    2c:d2:a3:b4:46:92:7b:21:08:d4:6b:89:c1:1e:77:
                    6f:c9:ae:3d:32:bc:66:fe:22:df:8d:b0:f1:f7:b4:
                    2e:ee:8f:4a:ae:6d:8d:ab:ac:b4:fb:28:c1:03:1f:
                    7d:51:79:4e:42:dc:6a:18:13:30:62:2c:18:65:f5:
                    15:1a:ae:51:8c:ac:66:26:d0:81:12:1e:2c:c7:bc:
                    66:b6:d0:fe:4c:03:4d:a6:ff:d6:f2:8e:f7:6a:b2:
                    4f:f0:9b:e1:92:f9:8c:dc:de:85:30:87:91:88:4e:
                    16:e9:c3:da:62:1a:27:cc:c2:ce:0a:65:97:57:ee:
                    fa:61
                Exponent: 65537 (0x10001)
        X509v3 extensions:
            X509v3 Basic Constraints: 
                CA:FALSE
            X509v3 Subject Key Identifier: 
                E2:A1:5F:95:6F:CA:8C:81:46:C0:2C:8E:ED:66:62:2C:E1:B3:F8:93
            X509v3 Authority Key Identifier: 
                keyid:1B:E6:44:D2:4F:77:9D:FD:8E:01:FD:03:93:DF:9F:F4:72:81:79:DD
                DirName:/CN=team226-net
                serial:07:76:3D:AF:7B:74:A1:4C:D6:39:FF:B1:BE:4D:F1:36:09:A5:31:BE
            X509v3 Extended Key Usage: 
                TLS Web Server Authentication
            X509v3 Key Usage: 
                Digital Signature, Key Encipherment
            X509v3 Subject Alternative Name: 
                DNS:team226-server
    Signature Algorithm: sha256WithRSAEncryption
    Signature Value:
        0f:ef:bc:9e:83:60:68:08:8f:b7:5d:3d:84:2a:8e:12:a7:a4:
        0d:a4:7a:c9:61:f4:71:58:0c:c4:af:f9:e2:ec:5c:61:01:68:
        0c:2f:e6:d9:53:16:e9:59:cb:48:41:dc:71:24:27:c2:a6:80:
        d2:6c:9f:06:ad:ea:81:8d:68:c9:c0:b4:ae:5c:dc:44:0a:34:
        dd:d4:c7:40:1e:b3:28:f9:e6:80:0f:b0:83:b8:f9:90:c0:98:
        4e:1f:e1:78:6d:aa:e5:75:2d:a6:b4:76:8b:03:4b:21:91:8e:
        ee:be:c5:19:9d:09:a9:48:55:5b:fc:3a:8a:2e:3c:9a:17:e2:
        de:14:6a:27:f3:18:d0:f0:11:5b:50:50:e0:0c:2c:17:9c:58:
        df:f8:b3:d0:92:f7:05:af:1b:63:5f:e7:48:a9:8c:0e:67:35:
        9c:81:d0:5b:41:86:12:ad:de:53:6f:f6:80:7f:19:19:e6:38:
        e8:61:d4:30:8c:e6:79:82:e7:fc:08:35:ea:50:97:25:a9:92:
        e7:4f:30:c5:28:e8:30:53:a1:26:72:6e:ff:5d:9d:85:f6:3f:
        50:83:62:22:2b:a2:fd:cb:55:b9:cb:37:6f:a3:72:3e:79:73:
        cb:0a:6e:1d:2a:78:40:c1:4f:88:67:c5:de:cd:76:cc:16:b4:
        56:bb:ff:78
-----BEGIN CERTIFICATE-----
MIIDeDCCAmCgAwIBAgIRAJsuk7pnMKzJYrvCudobGxYwDQYJKoZIhvcNAQELBQAw
FjEUMBIGA1UEAwwLdGVhbTIyNi1uZXQwHhcNMjMxMTA0MTA0NDUyWhcNMjYxMDE5
MTA0NDUyWjAZMRcwFQYDVQQDDA50ZWFtMjI2LXNlcnZlcjCCASIwDQYJKoZIhvcN
AQEBBQADggEPADCCAQoCggEBAK+4P0GKZj70U0ezvc3NPZuV+GXOJmJPAV/rbm4X
jcwJLf6oB9H7oyJM5YcC4bhTPPejD/DXJHAvFGgC/xgIvYKC18UP//tB4G9a0URX
OLXbudvF5SXn4RTbM2UaeyZKGpY8eE5SzZ2ahC1g4/Uh0ol4MMJs/HZFTBzRdsxS
4OuhcMTPeHcFLNKjtEaSeyEI1GuJwR53b8muPTK8Zv4i342w8fe0Lu6PSq5tjaus
tPsowQMffVF5TkLcahgTMGIsGGX1FRquUYysZibQgRIeLMe8ZrbQ/kwDTab/1vKO
92qyT/Cb4ZL5jNzehTCHkYhOFunD2mIaJ8zCzgpll1fu+mECAwEAAaOBvTCBujAJ
BgNVHRMEAjAAMB0GA1UdDgQWBBTioV+Vb8qMgUbALI7tZmIs4bP4kzBRBgNVHSME
SjBIgBQb5kTST3ed/Y4B/QOT35/0coF53aEapBgwFjEUMBIGA1UEAwwLdGVhbTIy
Ni1uZXSCFAd2Pa97dKFM1jn/sb5N8TYJpTG+MBMGA1UdJQQMMAoGCCsGAQUFBwMB
MAsGA1UdDwQEAwIFoDAZBgNVHREEEjAQgg50ZWFtMjI2LXNlcnZlcjANBgkqhkiG
9w0BAQsFAAOCAQEAD++8noNgaAiPt109hCqOEqekDaR6yWH0cVgMxK/54uxcYQFo
DC/m2VMW6VnLSEHccSQnwqaA0myfBq3qgY1oycC0rlzcRAo03dTHQB6zKPnmgA+w
g7j5kMCYTh/heG2q5XUtprR2iwNLIZGO7r7FGZ0JqUhVW/w6ii48mhfi3hRqJ/MY
0PARW1BQ4AwsF5xY3/iz0JL3Ba8bY1/nSKmMDmc1nIHQW0GGEq3eU2/2gH8ZGeY4
6GHUMIzmeYLn/Ag16lCXJamS508wxSjoMFOhJnJu/12dhfY/UINiIiui/ctVucs3
b6NyPnlzywpuHSp4QMFPiGfF3s12zBa0Vrv/eA==
-----END CERTIFICATE-----
