Certificate:
    Data:
        Version: 3 (0x2)
        Serial Number:
            12:74:67:cc:42:1c:3a:71:9c:f9:4a:a0:bf:9f:fa:7b
        Signature Algorithm: sha256WithRSAEncryption
        Issuer: CN=team470-net
        Validity
            Not Before: Nov  4 11:38:10 2023 GMT
            Not After : Oct 19 11:38:10 2026 GMT
        Subject: CN=team470-server
        Subject Public Key Info:
            Public Key Algorithm: rsaEncryption
                Public-Key: (2048 bit)
                Modulus:
                    00:cb:28:4f:7d:6e:5c:24:73:d2:a5:ab:f6:48:08:
                    00:55:95:75:57:75:c6:4b:e8:29:ec:35:0e:ea:6f:
                    74:56:82:28:5b:de:08:31:dc:af:bc:a3:9e:91:4d:
                    9e:2b:97:b6:0d:0f:3f:5a:4f:d0:2f:3a:b9:82:e3:
                    89:de:82:6c:d1:f8:90:78:91:4c:49:74:8d:c1:01:
                    5c:19:09:6b:28:5c:79:ff:9f:03:88:36:f8:98:64:
                    25:90:fd:db:e3:44:ce:f5:db:87:a8:93:b8:8a:ed:
                    23:2b:89:4c:01:c8:1b:c7:d8:f6:84:45:05:cf:49:
                    81:9e:5b:d8:47:93:28:13:5f:69:18:01:bc:4b:eb:
                    09:3d:04:c8:c4:c5:67:f7:ff:86:4b:db:d3:e7:b4:
                    58:dd:b3:0d:91:33:f2:96:7e:c0:a5:7c:0c:bb:0b:
                    07:63:8f:7f:ab:ed:4d:4e:f4:74:06:c2:24:58:c2:
                    43:5a:34:83:6a:a3:1c:c4:c4:7b:07:90:f3:3c:2f:
                    9d:d0:e5:e9:33:a2:ba:e3:fb:0c:cd:76:11:68:33:
                    e2:35:08:4b:8b:86:1f:a6:d1:22:54:60:b3:39:7f:
                    2d:d4:dd:ac:da:44:68:8b:98:61:90:a6:b9:79:f0:
                    87:b1:95:28:21:10:13:25:e8:6f:23:56:27:75:5b:
                    c5:a3
                Exponent: 65537 (0x10001)
        X509v3 extensions:
            X509v3 Basic Constraints: 
                CA:FALSE
            X509v3 Subject Key Identifier: 
                91:AF:47:2B:FF:07:7A:86:A6:D1:3D:12:C8:FC:3A:05:EA:F1:1A:86
            X509v3 Authority Key Identifier: 
                keyid:3D:74:AA:5E:3A:94:2D:5E:5D:CE:07:FD:CC:89:48:43:23:16:70:AC
                DirName:/CN=team470-net
                serial:33:15:86:23:A4:B6:68:FC:2E:92:82:8C:B4:98:38:82:33:76:50:B9
            X509v3 Extended Key Usage: 
                TLS Web Server Authentication
            X509v3 Key Usage: 
                Digital Signature, Key Encipherment
            X509v3 Subject Alternative Name: 
                DNS:team470-server
    Signature Algorithm: sha256WithRSAEncryption
    Signature Value:
        47:ad:03:56:47:48:4b:d8:fb:4b:d3:f4:05:50:74:b7:0f:52:
        03:26:a5:6c:13:10:d4:d8:ba:cd:39:40:07:93:26:1d:85:c0:
        dd:d3:49:6a:dc:c9:58:5a:8c:e8:1a:82:8e:42:ff:f7:93:ca:
        4f:c9:b5:6d:11:c0:50:0c:ff:c6:ad:6c:c1:de:b7:c1:29:34:
        c8:31:7f:82:12:ab:50:0c:1d:50:5c:32:59:55:54:ed:94:60:
        de:69:41:a9:e4:8f:92:45:19:db:4b:4c:f5:df:98:00:06:3b:
        07:b1:e5:66:6e:04:e6:51:b8:bc:5d:4c:b3:c0:da:1d:49:bd:
        27:09:73:4d:98:71:4d:81:02:7f:02:e7:76:f1:6c:58:ac:a6:
        7b:bd:34:37:9c:72:ef:92:d3:1c:3c:cf:1e:ce:33:7d:b7:67:
        f6:a6:20:0e:9e:7d:ab:ee:a9:23:a7:4f:ec:34:d3:ae:9f:b6:
        99:55:9d:93:ac:c7:3f:93:74:e6:6f:54:83:c5:ee:8a:ad:08:
        9f:c1:9b:7e:7b:5a:1a:d4:43:81:48:47:12:f5:da:b6:a5:7a:
        c9:c9:28:7c:87:a3:7d:f8:d8:81:86:26:56:a4:25:23:a1:c2:
        25:a9:dd:2d:21:15:1c:1e:47:9e:b7:e2:65:2a:0f:36:40:27:
        a2:f7:ca:f9
-----BEGIN CERTIFICATE-----
MIIDdzCCAl+gAwIBAgIQEnRnzEIcOnGc+Uqgv5/6ezANBgkqhkiG9w0BAQsFADAW
MRQwEgYDVQQDDAt0ZWFtNDcwLW5ldDAeFw0yMzExMDQxMTM4MTBaFw0yNjEwMTkx
MTM4MTBaMBkxFzAVBgNVBAMMDnRlYW00NzAtc2VydmVyMIIBIjANBgkqhkiG9w0B
AQEFAAOCAQ8AMIIBCgKCAQEAyyhPfW5cJHPSpav2SAgAVZV1V3XGS+gp7DUO6m90
VoIoW94IMdyvvKOekU2eK5e2DQ8/Wk/QLzq5guOJ3oJs0fiQeJFMSXSNwQFcGQlr
KFx5/58DiDb4mGQlkP3b40TO9duHqJO4iu0jK4lMAcgbx9j2hEUFz0mBnlvYR5Mo
E19pGAG8S+sJPQTIxMVn9/+GS9vT57RY3bMNkTPyln7ApXwMuwsHY49/q+1NTvR0
BsIkWMJDWjSDaqMcxMR7B5DzPC+d0OXpM6K64/sMzXYRaDPiNQhLi4YfptEiVGCz
OX8t1N2s2kRoi5hhkKa5efCHsZUoIRATJehvI1YndVvFowIDAQABo4G9MIG6MAkG
A1UdEwQCMAAwHQYDVR0OBBYEFJGvRyv/B3qGptE9Esj8OgXq8RqGMFEGA1UdIwRK
MEiAFD10ql46lC1eXc4H/cyJSEMjFnCsoRqkGDAWMRQwEgYDVQQDDAt0ZWFtNDcw
LW5ldIIUMxWGI6S2aPwukoKMtJg4gjN2ULkwEwYDVR0lBAwwCgYIKwYBBQUHAwEw
CwYDVR0PBAQDAgWgMBkGA1UdEQQSMBCCDnRlYW00NzAtc2VydmVyMA0GCSqGSIb3
DQEBCwUAA4IBAQBHrQNWR0hL2PtL0/QFUHS3D1IDJqVsExDU2LrNOUAHkyYdhcDd
00lq3MlYWozoGoKOQv/3k8pPybVtEcBQDP/GrWzB3rfBKTTIMX+CEqtQDB1QXDJZ
VVTtlGDeaUGp5I+SRRnbS0z135gABjsHseVmbgTmUbi8XUyzwNodSb0nCXNNmHFN
gQJ/Aud28WxYrKZ7vTQ3nHLvktMcPM8ezjN9t2f2piAOnn2r7qkjp0/sNNOun7aZ
VZ2TrMc/k3Tmb1SDxe6KrQifwZt+e1oa1EOBSEcS9dq2pXrJySh8h6N9+NiBhiZW
pCUjocIlqd0tIRUcHkeet+JlKg82QCei98r5
-----END CERTIFICATE-----
