Certificate:
    Data:
        Version: 3 (0x2)
        Serial Number:
            16:72:64:a9:dc:94:92:82:17:6a:36:9a:3e:f2:83:a0
        Signature Algorithm: sha256WithRSAEncryption
        Issuer: CN=team470-net
        Validity
            Not Before: Nov  3 20:47:49 2023 GMT
            Not After : Oct 18 20:47:49 2026 GMT
        Subject: CN=team470-server
        Subject Public Key Info:
            Public Key Algorithm: rsaEncryption
                Public-Key: (2048 bit)
                Modulus:
                    00:ed:80:ad:5f:1e:51:9f:ae:e4:e3:1a:72:c2:06:
                    66:51:d1:8b:12:9f:8c:d4:fd:08:ec:75:25:be:1a:
                    65:fd:a1:4a:68:c5:3b:92:71:98:57:f6:03:d8:3a:
                    a3:ef:18:96:09:27:81:e7:8f:c6:9b:51:80:df:21:
                    5d:78:ab:d5:20:f2:95:49:13:a2:e7:3c:ab:59:43:
                    8d:ce:d2:45:ab:0e:43:39:0e:36:7e:d3:11:4e:c9:
                    0c:a3:61:8f:73:b8:da:d0:37:8e:6c:cd:76:29:69:
                    d5:6b:87:66:53:25:94:a9:41:3c:9d:d9:23:11:fb:
                    0a:2a:5e:06:a1:3f:a5:35:e3:fc:9b:eb:c6:ef:a3:
                    8b:32:ec:e2:7a:77:15:c6:e9:f9:d3:9f:65:31:bb:
                    03:eb:0c:73:7d:93:d8:99:23:d4:d7:d8:0e:12:ad:
                    ca:92:6c:26:66:39:78:c0:8e:92:3b:0d:8c:bc:be:
                    d2:0a:e4:ab:f5:c2:1a:b5:85:05:3c:2f:be:db:1e:
                    ff:a7:a9:39:15:0c:01:7d:85:eb:18:97:bd:d6:c2:
                    00:12:54:64:27:9b:a7:ae:a6:3c:89:a6:17:d7:02:
                    60:5f:27:54:57:0e:72:b4:b5:08:08:c0:c7:60:b6:
                    8e:39:d6:e3:f3:18:95:6c:55:3f:8a:cb:31:7c:b5:
                    02:23
                Exponent: 65537 (0x10001)
        X509v3 extensions:
            X509v3 Basic Constraints: 
                CA:FALSE
            X509v3 Subject Key Identifier: 
                31:94:0C:23:E9:66:EC:2E:EA:D5:BD:68:DC:DF:6C:08:3E:30:14:F4
            X509v3 Authority Key Identifier: 
                keyid:68:AA:28:F6:29:CC:CE:D4:71:96:15:3E:93:6B:90:38:EA:B1:8E:44
                DirName:/CN=team470-net
                serial:08:09:B5:DC:99:4D:76:35:22:8E:EC:F4:92:D7:93:02:E3:6D:20:56
            X509v3 Extended Key Usage: 
                TLS Web Server Authentication
            X509v3 Key Usage: 
                Digital Signature, Key Encipherment
            X509v3 Subject Alternative Name: 
                DNS:team470-server
    Signature Algorithm: sha256WithRSAEncryption
    Signature Value:
        af:9e:b7:08:26:1f:40:bc:e7:2e:0e:47:ed:dd:c2:de:98:23:
        d4:3f:56:aa:8d:6c:52:96:b8:c2:35:fe:74:e1:c3:d9:88:7a:
        41:83:94:dc:31:4f:c0:7f:7c:ac:47:38:d5:4f:56:d9:d0:5f:
        62:1f:a1:dd:55:e4:7d:f6:c7:51:17:43:7b:8b:aa:5b:ea:a2:
        f0:57:19:01:d1:e7:b5:68:4c:33:f9:e5:89:2c:ed:fa:8a:d3:
        df:d9:36:12:68:72:a7:30:84:72:39:e8:b9:13:8d:2d:b9:27:
        9c:c7:02:62:fb:c0:1e:98:f7:cb:c9:cc:52:5f:e3:30:96:f8:
        72:b7:62:91:56:00:36:c6:d9:16:26:60:c7:97:ea:48:2e:e7:
        97:c2:c9:80:9b:58:28:23:72:0e:2a:82:c1:2b:92:58:aa:0a:
        bf:ef:35:48:b9:b3:93:f7:c4:df:df:1c:46:5e:b7:8b:41:26:
        dd:64:8d:8f:c4:5e:44:9e:0f:b4:27:52:00:09:a3:9a:e3:64:
        b8:35:4f:9b:c3:7c:b8:40:a0:af:42:26:72:0c:11:c6:bb:fb:
        d5:5c:12:52:e4:58:a7:a0:2c:04:09:57:b3:38:b2:b8:98:d4:
        f9:29:8a:f5:4e:f8:94:2a:cd:b0:d9:f0:5e:e2:bf:68:da:7f:
        8a:7e:9c:59
-----BEGIN CERTIFICATE-----
MIIDdzCCAl+gAwIBAgIQFnJkqdyUkoIXajaaPvKDoDANBgkqhkiG9w0BAQsFADAW
MRQwEgYDVQQDDAt0ZWFtNDcwLW5ldDAeFw0yMzExMDMyMDQ3NDlaFw0yNjEwMTgy
MDQ3NDlaMBkxFzAVBgNVBAMMDnRlYW00NzAtc2VydmVyMIIBIjANBgkqhkiG9w0B
AQEFAAOCAQ8AMIIBCgKCAQEA7YCtXx5Rn67k4xpywgZmUdGLEp+M1P0I7HUlvhpl
/aFKaMU7knGYV/YD2Dqj7xiWCSeB54/Gm1GA3yFdeKvVIPKVSROi5zyrWUONztJF
qw5DOQ42ftMRTskMo2GPc7ja0DeObM12KWnVa4dmUyWUqUE8ndkjEfsKKl4GoT+l
NeP8m+vG76OLMuziencVxun5059lMbsD6wxzfZPYmSPU19gOEq3KkmwmZjl4wI6S
Ow2MvL7SCuSr9cIatYUFPC++2x7/p6k5FQwBfYXrGJe91sIAElRkJ5unrqY8iaYX
1wJgXydUVw5ytLUICMDHYLaOOdbj8xiVbFU/issxfLUCIwIDAQABo4G9MIG6MAkG
A1UdEwQCMAAwHQYDVR0OBBYEFDGUDCPpZuwu6tW9aNzfbAg+MBT0MFEGA1UdIwRK
MEiAFGiqKPYpzM7UcZYVPpNrkDjqsY5EoRqkGDAWMRQwEgYDVQQDDAt0ZWFtNDcw
LW5ldIIUCAm13JlNdjUijuz0kteTAuNtIFYwEwYDVR0lBAwwCgYIKwYBBQUHAwEw
CwYDVR0PBAQDAgWgMBkGA1UdEQQSMBCCDnRlYW00NzAtc2VydmVyMA0GCSqGSIb3
DQEBCwUAA4IBAQCvnrcIJh9AvOcuDkft3cLemCPUP1aqjWxSlrjCNf504cPZiHpB
g5TcMU/Af3ysRzjVT1bZ0F9iH6HdVeR99sdRF0N7i6pb6qLwVxkB0ee1aEwz+eWJ
LO36itPf2TYSaHKnMIRyOei5E40tuSecxwJi+8AemPfLycxSX+Mwlvhyt2KRVgA2
xtkWJmDHl+pILueXwsmAm1goI3IOKoLBK5JYqgq/7zVIubOT98Tf3xxGXreLQSbd
ZI2PxF5Eng+0J1IACaOa42S4NU+bw3y4QKCvQiZyDBHGu/vVXBJS5FinoCwECVez
OLK4mNT5KYr1TviUKs2w2fBe4r9o2n+KfpxZ
-----END CERTIFICATE-----
