Certificate:
    Data:
        Version: 3 (0x2)
        Serial Number:
            a4:60:ba:0e:25:7d:a6:55:bf:ed:10:32:bb:f2:67:6c
        Signature Algorithm: sha256WithRSAEncryption
        Issuer: CN=team470-net
        Validity
            Not Before: Nov  4 11:38:09 2023 GMT
            Not After : Oct 19 11:38:09 2026 GMT
        Subject: CN=team470-client
        Subject Public Key Info:
            Public Key Algorithm: rsaEncryption
                Public-Key: (2048 bit)
                Modulus:
                    00:de:d4:3d:18:21:d3:2f:33:d1:31:3d:ea:03:8b:
                    b7:c1:7d:bb:fe:03:8a:67:f6:89:8e:d8:5e:48:1b:
                    d1:1e:09:06:f2:b5:3d:8b:3c:00:ca:ef:19:e2:c7:
                    68:77:08:c5:61:97:6f:77:b7:18:c3:2b:01:5b:cb:
                    b6:45:4d:4b:8e:b7:77:29:0b:44:9c:58:42:db:a8:
                    1b:3e:a5:6f:e9:c1:cd:3f:37:e6:94:78:f0:7c:e7:
                    ff:79:dd:22:ac:03:29:c6:ed:93:c5:c2:b5:52:47:
                    17:33:95:04:e0:5f:42:28:05:3e:bd:73:68:e7:3c:
                    6d:8e:44:cc:bf:cb:a0:cc:7e:d5:9f:f4:3a:db:7f:
                    23:8e:60:da:c7:f2:3d:54:8f:03:4d:41:d9:ba:70:
                    a1:43:91:3f:c1:f2:33:ba:bd:95:1e:8c:e2:5b:d0:
                    5f:d7:c2:83:b6:06:42:b7:c2:6c:b0:50:ac:e5:64:
                    2b:22:9c:3a:67:1c:14:f1:41:93:a4:f1:11:3f:9a:
                    d4:1f:c7:52:2c:90:e6:f6:ab:36:17:da:ee:f6:6e:
                    69:79:73:41:b8:f8:34:88:cf:35:cc:8f:d8:a5:74:
                    d5:fd:79:1e:a4:c1:91:1e:ec:e0:60:8c:21:15:b8:
                    9f:b7:1c:9b:25:91:5b:6a:5a:0e:0a:a8:f5:7d:d2:
                    70:8f
                Exponent: 65537 (0x10001)
        X509v3 extensions:
            X509v3 Basic Constraints: 
                CA:FALSE
            X509v3 Subject Key Identifier: 
                93:36:0B:8C:BC:D6:2A:85:50:D8:5C:6F:7C:0B:AC:F1:23:E9:F6:0B
            X509v3 Authority Key Identifier: 
                keyid:3D:74:AA:5E:3A:94:2D:5E:5D:CE:07:FD:CC:89:48:43:23:16:70:AC
                DirName:/CN=team470-net
                serial:33:15:86:23:A4:B6:68:FC:2E:92:82:8C:B4:98:38:82:33:76:50:B9
            X509v3 Extended Key Usage: 
                TLS Web Client Authentication
            X509v3 Key Usage: 
                Digital Signature
    Signature Algorithm: sha256WithRSAEncryption
    Signature Value:
        68:61:f3:e7:63:9c:9a:06:b6:33:ff:33:f0:dc:d9:9a:0e:47:
        0b:eb:29:17:e1:30:4c:8f:ed:69:f7:63:a4:a6:1b:74:a2:96:
        59:35:50:34:59:c9:0c:92:9e:98:be:24:a4:d5:89:68:5b:f4:
        aa:88:f0:b0:fe:ec:8b:07:08:00:7c:e9:07:36:69:37:b9:64:
        9b:2a:61:f6:45:6e:ca:fa:2c:81:b0:02:12:56:38:d0:c5:71:
        a9:e2:b2:d8:11:fe:c3:8c:8c:82:88:e8:74:ea:d9:68:e5:c3:
        b1:b9:8e:82:fc:bc:0d:5a:c0:c6:34:de:4d:59:f3:ef:4b:ee:
        d9:2e:d1:d5:33:c1:a9:8c:c5:5f:8f:b8:ac:1b:ff:9b:b3:f9:
        5e:49:aa:12:96:e3:2a:3d:87:6e:42:0d:ab:88:90:3a:a8:5a:
        ab:75:97:58:49:d2:44:6c:f0:58:86:77:3e:df:df:c7:50:77:
        af:3f:6e:82:9d:c9:a4:09:ca:5e:d0:12:39:c4:19:97:37:cc:
        fa:c6:e1:7a:e3:2c:32:41:bf:e8:78:94:3d:79:ca:be:2d:de:
        cf:a6:47:9f:bc:4e:72:54:b2:95:2f:a2:4a:8d:16:5a:95:44:
        b0:2c:1d:a7:5e:05:bb:4b:02:91:8a:ee:ac:45:df:95:c4:f1:
        b7:bd:db:8f
-----BEGIN CERTIFICATE-----
MIIDXTCCAkWgAwIBAgIRAKRgug4lfaZVv+0QMrvyZ2wwDQYJKoZIhvcNAQELBQAw
FjEUMBIGA1UEAwwLdGVhbTQ3MC1uZXQwHhcNMjMxMTA0MTEzODA5WhcNMjYxMDE5
MTEzODA5WjAZMRcwFQYDVQQDDA50ZWFtNDcwLWNsaWVudDCCASIwDQYJKoZIhvcN
AQEBBQADggEPADCCAQoCggEBAN7UPRgh0y8z0TE96gOLt8F9u/4Dimf2iY7YXkgb
0R4JBvK1PYs8AMrvGeLHaHcIxWGXb3e3GMMrAVvLtkVNS463dykLRJxYQtuoGz6l
b+nBzT835pR48Hzn/3ndIqwDKcbtk8XCtVJHFzOVBOBfQigFPr1zaOc8bY5EzL/L
oMx+1Z/0Ott/I45g2sfyPVSPA01B2bpwoUORP8HyM7q9lR6M4lvQX9fCg7YGQrfC
bLBQrOVkKyKcOmccFPFBk6TxET+a1B/HUiyQ5varNhfa7vZuaXlzQbj4NIjPNcyP
2KV01f15HqTBkR7s4GCMIRW4n7ccmyWRW2paDgqo9X3ScI8CAwEAAaOBojCBnzAJ
BgNVHRMEAjAAMB0GA1UdDgQWBBSTNguMvNYqhVDYXG98C6zxI+n2CzBRBgNVHSME
SjBIgBQ9dKpeOpQtXl3OB/3MiUhDIxZwrKEapBgwFjEUMBIGA1UEAwwLdGVhbTQ3
MC1uZXSCFDMVhiOktmj8LpKCjLSYOIIzdlC5MBMGA1UdJQQMMAoGCCsGAQUFBwMC
MAsGA1UdDwQEAwIHgDANBgkqhkiG9w0BAQsFAAOCAQEAaGHz52Ocmga2M/8z8NzZ
mg5HC+spF+EwTI/tafdjpKYbdKKWWTVQNFnJDJKemL4kpNWJaFv0qojwsP7siwcI
AHzpBzZpN7lkmyph9kVuyvosgbACElY40MVxqeKy2BH+w4yMgojodOrZaOXDsbmO
gvy8DVrAxjTeTVnz70vu2S7R1TPBqYzFX4+4rBv/m7P5XkmqEpbjKj2HbkINq4iQ
Oqhaq3WXWEnSRGzwWIZ3Pt/fx1B3rz9ugp3JpAnKXtASOcQZlzfM+sbheuMsMkG/
6HiUPXnKvi3ez6ZHn7xOclSylS+iSo0WWpVEsCwdp14Fu0sCkYrurEXflcTxt73b
jw==
-----END CERTIFICATE-----
