Certificate:
    Data:
        Version: 3 (0x2)
        Serial Number:
            a6:ce:03:26:72:c1:83:47:9f:33:a6:ab:4e:a6:f0:e6
        Signature Algorithm: sha256WithRSAEncryption
        Issuer: CN=team491-net
        Validity
            Not Before: Nov  4 10:49:18 2023 GMT
            Not After : Oct 19 10:49:18 2026 GMT
        Subject: CN=team491-server
        Subject Public Key Info:
            Public Key Algorithm: rsaEncryption
                Public-Key: (2048 bit)
                Modulus:
                    00:ca:75:83:f3:08:fa:8f:c4:68:12:f9:4b:c2:f6:
                    66:be:41:97:95:7e:9e:92:1a:c7:9b:6a:62:75:6a:
                    94:fb:d8:e9:8b:8c:79:c5:87:dd:f0:8c:84:25:63:
                    dc:1f:a2:a1:fc:42:50:43:dd:c0:cb:25:7f:46:b7:
                    77:68:17:59:30:17:51:20:3c:e0:85:96:4a:1b:ea:
                    8b:f3:37:38:9a:3e:04:0b:54:0f:92:f7:9f:b6:cb:
                    7f:eb:1b:60:e8:9b:b9:bd:63:bd:39:79:38:cf:e4:
                    7f:2c:54:80:45:76:64:f4:6c:8f:a9:44:6e:87:23:
                    24:f5:61:3c:80:67:83:2e:25:69:cd:f0:ee:ae:fe:
                    6f:c9:3f:cd:2c:ae:e3:01:3b:a1:9e:70:bb:dc:54:
                    53:ed:54:52:b6:07:77:e2:54:0f:15:ab:1d:33:6a:
                    d3:fa:7e:89:d3:2d:47:c5:f6:ac:0c:e2:09:7f:47:
                    33:ea:08:44:9a:4c:62:a2:17:e6:aa:1e:12:89:2d:
                    d9:cb:62:9a:5d:21:5a:75:0a:21:50:aa:92:64:d4:
                    89:47:56:5d:00:2b:4f:a8:cd:c9:91:fa:39:3e:c2:
                    2d:96:4a:c8:ff:99:0b:26:a6:d7:0c:81:48:6f:25:
                    60:09:6b:18:0d:55:dc:1b:39:ba:14:a1:75:84:92:
                    ca:d7
                Exponent: 65537 (0x10001)
        X509v3 extensions:
            X509v3 Basic Constraints: 
                CA:FALSE
            X509v3 Subject Key Identifier: 
                80:B2:89:58:0F:E2:8C:48:C0:C2:64:BD:D3:FA:35:44:DE:F3:C9:A5
            X509v3 Authority Key Identifier: 
                keyid:06:0B:45:92:9D:07:B2:66:6A:9C:C6:36:E9:75:72:DA:15:DD:7F:95
                DirName:/CN=team491-net
                serial:15:D0:54:5D:15:46:50:DC:47:F7:9A:E8:80:DB:DA:66:4A:BF:CB:C2
            X509v3 Extended Key Usage: 
                TLS Web Server Authentication
            X509v3 Key Usage: 
                Digital Signature, Key Encipherment
            X509v3 Subject Alternative Name: 
                DNS:team491-server
    Signature Algorithm: sha256WithRSAEncryption
    Signature Value:
        52:a5:da:91:18:d0:a4:71:9a:a3:67:36:18:08:25:31:dc:29:
        63:57:40:ac:a8:e6:19:08:dc:4a:50:17:72:e5:1e:3b:01:0b:
        a3:98:34:f1:29:15:b8:17:b0:eb:2e:c3:33:69:ec:0b:69:d8:
        60:7b:80:7d:28:2a:db:92:5d:81:4e:46:55:62:f9:19:d0:1d:
        6e:be:3b:86:d8:62:e6:cf:05:e1:5a:3d:c3:1c:c8:dc:52:8c:
        cf:7d:55:12:d5:1b:90:42:15:0c:ed:7e:7f:62:b7:fb:8e:54:
        c2:55:23:bc:3e:b9:b9:ae:0c:e0:84:b8:86:08:6c:46:a5:9e:
        69:fd:1d:bd:05:a2:74:51:2a:11:a4:70:d6:a8:5d:ba:8c:b7:
        8c:8a:ff:a7:fa:d1:ce:8c:14:77:72:10:b5:78:5d:36:cd:5c:
        97:a5:bc:5b:38:82:91:3b:b1:c2:87:97:a8:f3:0b:78:66:27:
        f7:37:26:d2:d7:e2:3c:ac:8f:a0:51:84:8e:80:8c:be:0c:6d:
        9b:3e:eb:27:e0:72:20:54:85:42:82:e2:6d:85:c1:31:e7:d0:
        92:ec:d0:4d:19:15:a5:55:e0:da:fa:ff:c1:f2:c8:12:96:e5:
        b1:6b:7d:f4:2d:d3:ea:b7:fd:15:4b:b9:f9:e0:41:d1:7f:58:
        1b:b1:48:95
-----BEGIN CERTIFICATE-----
MIIDeDCCAmCgAwIBAgIRAKbOAyZywYNHnzOmq06m8OYwDQYJKoZIhvcNAQELBQAw
FjEUMBIGA1UEAwwLdGVhbTQ5MS1uZXQwHhcNMjMxMTA0MTA0OTE4WhcNMjYxMDE5
MTA0OTE4WjAZMRcwFQYDVQQDDA50ZWFtNDkxLXNlcnZlcjCCASIwDQYJKoZIhvcN
AQEBBQADggEPADCCAQoCggEBAMp1g/MI+o/EaBL5S8L2Zr5Bl5V+npIax5tqYnVq
lPvY6YuMecWH3fCMhCVj3B+iofxCUEPdwMslf0a3d2gXWTAXUSA84IWWShvqi/M3
OJo+BAtUD5L3n7bLf+sbYOibub1jvTl5OM/kfyxUgEV2ZPRsj6lEbocjJPVhPIBn
gy4lac3w7q7+b8k/zSyu4wE7oZ5wu9xUU+1UUrYHd+JUDxWrHTNq0/p+idMtR8X2
rAziCX9HM+oIRJpMYqIX5qoeEokt2ctiml0hWnUKIVCqkmTUiUdWXQArT6jNyZH6
OT7CLZZKyP+ZCyam1wyBSG8lYAlrGA1V3Bs5uhShdYSSytcCAwEAAaOBvTCBujAJ
BgNVHRMEAjAAMB0GA1UdDgQWBBSAsolYD+KMSMDCZL3T+jVE3vPJpTBRBgNVHSME
SjBIgBQGC0WSnQeyZmqcxjbpdXLaFd1/laEapBgwFjEUMBIGA1UEAwwLdGVhbTQ5
MS1uZXSCFBXQVF0VRlDcR/ea6IDb2mZKv8vCMBMGA1UdJQQMMAoGCCsGAQUFBwMB
MAsGA1UdDwQEAwIFoDAZBgNVHREEEjAQgg50ZWFtNDkxLXNlcnZlcjANBgkqhkiG
9w0BAQsFAAOCAQEAUqXakRjQpHGao2c2GAglMdwpY1dArKjmGQjcSlAXcuUeOwEL
o5g08SkVuBew6y7DM2nsC2nYYHuAfSgq25JdgU5GVWL5GdAdbr47hthi5s8F4Vo9
wxzI3FKMz31VEtUbkEIVDO1+f2K3+45UwlUjvD65ua4M4IS4hghsRqWeaf0dvQWi
dFEqEaRw1qhduoy3jIr/p/rRzowUd3IQtXhdNs1cl6W8WziCkTuxwoeXqPMLeGYn
9zcm0tfiPKyPoFGEjoCMvgxtmz7rJ+ByIFSFQoLibYXBMefQkuzQTRkVpVXg2vr/
wfLIEpblsWt99C3T6rf9FUu5+eBB0X9YG7FIlQ==
-----END CERTIFICATE-----
