Certificate:
    Data:
        Version: 3 (0x2)
        Serial Number:
            f4:3b:2d:11:5e:6f:33:fe:f5:18:b8:0a:41:0d:eb:55
        Signature Algorithm: sha256WithRSAEncryption
        Issuer: CN=team491-net
        Validity
            Not Before: Nov  4 11:38:43 2023 GMT
            Not After : Oct 19 11:38:43 2026 GMT
        Subject: CN=team491-server
        Subject Public Key Info:
            Public Key Algorithm: rsaEncryption
                Public-Key: (2048 bit)
                Modulus:
                    00:ae:af:f0:04:38:ea:1b:97:33:e7:2e:04:40:3e:
                    0e:5c:a5:d3:2e:03:88:d8:7c:38:78:74:55:4c:ee:
                    32:6a:12:37:3d:10:f9:66:e4:3b:99:56:14:e2:24:
                    34:61:24:c3:d3:e8:65:75:44:76:f8:5c:55:d5:3b:
                    ba:80:b5:c9:7c:84:3b:9e:0e:0a:ff:ca:f5:ae:c7:
                    26:6f:2b:a3:5b:82:79:32:56:ed:de:60:e8:7c:7a:
                    73:f3:bf:4f:97:e6:d8:d3:a5:f8:bd:a7:60:a9:2e:
                    3e:16:6b:ed:04:11:f3:36:9d:6a:16:7e:98:ef:37:
                    37:20:61:8f:4f:9b:bf:a3:4f:ed:c9:ba:25:5f:53:
                    9a:29:90:17:62:56:f4:81:c0:7e:6f:23:22:bc:ad:
                    26:ff:92:5d:9b:27:35:1d:49:40:53:d5:31:dd:e6:
                    cb:f3:87:b4:58:6a:1a:d7:fd:7d:28:a7:a4:a1:4d:
                    50:44:89:2e:21:31:f6:37:1e:02:60:8c:06:7b:5c:
                    ec:f1:58:c5:04:73:e0:2e:16:6e:e9:69:92:d0:68:
                    4b:9e:d5:87:05:04:4b:19:7a:c7:94:6e:57:ae:74:
                    69:6d:e7:08:e4:bd:6d:a7:f7:d1:29:aa:1e:24:fc:
                    82:60:f7:82:dd:14:d0:c0:23:5a:c7:d6:00:79:aa:
                    f6:27
                Exponent: 65537 (0x10001)
        X509v3 extensions:
            X509v3 Basic Constraints: 
                CA:FALSE
            X509v3 Subject Key Identifier: 
                E4:0C:45:D1:A7:33:26:34:57:96:05:FC:2F:C9:82:19:AD:03:47:8F
            X509v3 Authority Key Identifier: 
                keyid:53:3A:1A:D8:92:C3:B2:E2:0D:70:89:04:BB:00:DF:CD:37:03:12:B5
                DirName:/CN=team491-net
                serial:55:86:13:A8:00:4F:08:BC:F0:4F:3A:A2:FC:3B:B7:16:8A:A2:30:6F
            X509v3 Extended Key Usage: 
                TLS Web Server Authentication
            X509v3 Key Usage: 
                Digital Signature, Key Encipherment
            X509v3 Subject Alternative Name: 
                DNS:team491-server
    Signature Algorithm: sha256WithRSAEncryption
    Signature Value:
        2d:57:61:91:6f:0d:44:e3:cd:31:76:bc:6c:60:34:4b:0d:6e:
        16:af:92:0d:5f:e5:0b:c3:01:ea:9e:d4:80:5f:20:10:cf:bb:
        fc:ce:8c:9a:c7:33:68:64:eb:ca:0a:f8:1a:b1:3f:a7:6c:a9:
        e5:f1:15:2a:d7:a0:1f:ba:3b:51:6e:d3:07:c5:2d:c5:8b:a7:
        58:07:53:58:06:14:54:f9:8c:9a:87:4a:ac:fb:a5:78:f3:54:
        63:86:5a:e2:5f:d2:ce:1d:4c:1f:93:df:fc:57:8f:d5:48:94:
        8c:f7:b3:89:e4:b1:c2:b4:17:73:e5:11:31:77:f2:a2:fe:7f:
        89:1c:75:d1:d5:93:3d:48:fd:3d:c4:6c:0a:f0:a4:fa:b1:0d:
        e7:ee:7d:20:81:07:98:c6:ec:54:4d:11:0d:69:41:93:fa:9f:
        57:07:44:36:ce:8e:3a:7e:be:c5:a2:11:75:89:91:f8:5d:0f:
        97:cb:eb:0d:20:df:74:f8:b2:c8:fe:dc:f1:76:a8:07:b2:51:
        45:d6:b0:23:3a:07:fc:ac:c3:ed:ac:a4:08:5f:e6:88:a7:2e:
        0b:db:1b:df:ac:4c:fa:98:65:28:93:f5:4e:5a:91:f2:10:8e:
        cf:40:1c:24:24:09:d1:5a:3c:f7:03:9a:d3:07:7f:16:75:ce:
        25:6d:aa:32
-----BEGIN CERTIFICATE-----
MIIDeDCCAmCgAwIBAgIRAPQ7LRFebzP+9Ri4CkEN61UwDQYJKoZIhvcNAQELBQAw
FjEUMBIGA1UEAwwLdGVhbTQ5MS1uZXQwHhcNMjMxMTA0MTEzODQzWhcNMjYxMDE5
MTEzODQzWjAZMRcwFQYDVQQDDA50ZWFtNDkxLXNlcnZlcjCCASIwDQYJKoZIhvcN
AQEBBQADggEPADCCAQoCggEBAK6v8AQ46huXM+cuBEA+Dlyl0y4DiNh8OHh0VUzu
MmoSNz0Q+WbkO5lWFOIkNGEkw9PoZXVEdvhcVdU7uoC1yXyEO54OCv/K9a7HJm8r
o1uCeTJW7d5g6Hx6c/O/T5fm2NOl+L2nYKkuPhZr7QQR8zadahZ+mO83NyBhj0+b
v6NP7cm6JV9TmimQF2JW9IHAfm8jIrytJv+SXZsnNR1JQFPVMd3my/OHtFhqGtf9
fSinpKFNUESJLiEx9jceAmCMBntc7PFYxQRz4C4WbulpktBoS57VhwUESxl6x5Ru
V650aW3nCOS9baf30SmqHiT8gmD3gt0U0MAjWsfWAHmq9icCAwEAAaOBvTCBujAJ
BgNVHRMEAjAAMB0GA1UdDgQWBBTkDEXRpzMmNFeWBfwvyYIZrQNHjzBRBgNVHSME
SjBIgBRTOhrYksOy4g1wiQS7AN/NNwMStaEapBgwFjEUMBIGA1UEAwwLdGVhbTQ5
MS1uZXSCFFWGE6gATwi88E86ovw7txaKojBvMBMGA1UdJQQMMAoGCCsGAQUFBwMB
MAsGA1UdDwQEAwIFoDAZBgNVHREEEjAQgg50ZWFtNDkxLXNlcnZlcjANBgkqhkiG
9w0BAQsFAAOCAQEALVdhkW8NROPNMXa8bGA0Sw1uFq+SDV/lC8MB6p7UgF8gEM+7
/M6MmsczaGTrygr4GrE/p2yp5fEVKtegH7o7UW7TB8UtxYunWAdTWAYUVPmMmodK
rPulePNUY4Za4l/Szh1MH5Pf/FeP1UiUjPezieSxwrQXc+URMXfyov5/iRx10dWT
PUj9PcRsCvCk+rEN5+59IIEHmMbsVE0RDWlBk/qfVwdENs6OOn6+xaIRdYmR+F0P
l8vrDSDfdPiyyP7c8XaoB7JRRdawIzoH/KzD7aykCF/miKcuC9sb36xM+phlKJP1
TlqR8hCOz0AcJCQJ0Vo89wOa0wd/FnXOJW2qMg==
-----END CERTIFICATE-----
