Certificate:
    Data:
        Version: 3 (0x2)
        Serial Number:
            05:6c:af:86:0e:ad:e4:14:fa:1d:66:a7:8c:85:40:9b
        Signature Algorithm: sha256WithRSAEncryption
        Issuer: CN=team314-net
        Validity
            Not Before: Nov  4 10:46:22 2023 GMT
            Not After : Oct 19 10:46:22 2026 GMT
        Subject: CN=team314-server
        Subject Public Key Info:
            Public Key Algorithm: rsaEncryption
                Public-Key: (2048 bit)
                Modulus:
                    00:95:3f:d7:6f:1b:4b:da:8d:bf:ce:69:63:1a:df:
                    b5:28:cf:f6:93:e2:32:a1:89:2f:61:bb:a6:0f:a6:
                    4e:4d:a3:2c:bb:60:77:f2:c2:81:3f:c0:22:68:11:
                    3e:ae:3c:65:5d:a1:5d:9f:45:b5:d1:2a:c7:9b:16:
                    a3:30:99:6f:06:7b:d8:72:c8:c0:f3:18:11:bb:62:
                    d0:08:6c:b2:13:4a:fe:d7:b5:ce:0f:19:61:f1:b5:
                    87:9c:6d:72:2e:82:4a:16:da:2d:bf:12:ee:d2:d2:
                    9b:f3:a6:79:97:14:20:75:d4:93:de:4d:1d:21:0d:
                    e5:99:50:48:3d:ed:eb:98:70:9d:13:4c:e2:e9:1f:
                    51:a6:9e:7e:21:74:a9:bf:96:b1:04:31:97:cb:48:
                    70:26:6b:94:10:c2:d6:34:e9:bf:3a:c2:19:72:20:
                    60:46:10:d9:a1:ba:c5:27:a4:34:1c:3b:29:61:db:
                    4f:2a:fa:7d:0a:19:cb:4e:42:33:38:06:d6:23:f6:
                    a4:50:ef:95:08:1d:e7:a4:fa:b9:6f:ec:d7:87:69:
                    c9:dd:9e:dd:a2:aa:d8:92:78:ea:37:a4:d5:02:fe:
                    7e:0b:c7:44:31:6a:fa:9d:da:a2:4c:08:a9:9b:3c:
                    36:1b:fc:cb:12:b2:39:b3:12:a8:69:b5:9c:86:36:
                    10:f9
                Exponent: 65537 (0x10001)
        X509v3 extensions:
            X509v3 Basic Constraints: 
                CA:FALSE
            X509v3 Subject Key Identifier: 
                48:78:13:B8:C5:50:41:2F:10:50:23:5F:21:61:1C:51:37:98:93:EB
            X509v3 Authority Key Identifier: 
                keyid:00:BF:06:74:DA:0A:AF:9E:7C:72:E4:42:AB:A3:1D:F7:BC:FF:3E:96
                DirName:/CN=team314-net
                serial:57:EB:04:70:E5:6B:E5:FE:6E:96:3A:F8:0B:A4:99:B6:37:74:02:4F
            X509v3 Extended Key Usage: 
                TLS Web Server Authentication
            X509v3 Key Usage: 
                Digital Signature, Key Encipherment
            X509v3 Subject Alternative Name: 
                DNS:team314-server
    Signature Algorithm: sha256WithRSAEncryption
    Signature Value:
        6b:d7:6c:8d:2b:bb:54:16:41:b8:0d:15:03:c7:0d:bb:49:bc:
        c4:09:e2:25:e6:0c:a7:d4:fc:79:91:ea:48:07:dc:ec:e8:e1:
        f6:86:ff:73:2c:b6:80:79:6c:0b:9e:8f:4d:23:23:e6:96:d0:
        81:cc:3f:b1:9b:88:8d:fb:48:16:3a:1b:0c:3f:92:cc:0b:6c:
        27:bd:67:a4:30:3c:f2:dd:aa:a2:82:7c:6e:05:16:01:49:5b:
        23:53:e3:c0:f5:aa:57:a5:41:03:af:3d:53:d2:9a:ed:56:e1:
        12:22:34:f9:35:62:ab:17:4e:a9:00:01:86:c0:ed:ed:50:fa:
        85:b5:e8:ef:45:4c:f4:2e:67:f8:57:ac:63:db:32:ff:39:4d:
        3a:3d:c7:69:b7:3d:6f:57:cc:ba:2b:60:e1:88:82:0c:5c:c3:
        8d:1c:a4:db:0e:fd:4b:e7:a5:6e:c3:b6:ec:c8:5d:04:8e:f5:
        d8:1f:dc:90:cd:6c:f0:d0:39:4b:39:d5:cb:06:5a:b5:d6:67:
        94:ae:b0:d6:6c:7b:40:13:65:f2:9d:bc:28:2d:54:08:38:30:
        07:45:50:05:a4:52:b8:bd:1d:69:03:c1:ee:ce:1b:a4:bb:a9:
        dd:09:c0:01:38:b1:18:9d:8b:8e:1a:1f:a9:e0:34:6b:79:46:
        01:76:d3:3f
-----BEGIN CERTIFICATE-----
MIIDdzCCAl+gAwIBAgIQBWyvhg6t5BT6HWanjIVAmzANBgkqhkiG9w0BAQsFADAW
MRQwEgYDVQQDDAt0ZWFtMzE0LW5ldDAeFw0yMzExMDQxMDQ2MjJaFw0yNjEwMTkx
MDQ2MjJaMBkxFzAVBgNVBAMMDnRlYW0zMTQtc2VydmVyMIIBIjANBgkqhkiG9w0B
AQEFAAOCAQ8AMIIBCgKCAQEAlT/XbxtL2o2/zmljGt+1KM/2k+IyoYkvYbumD6ZO
TaMsu2B38sKBP8AiaBE+rjxlXaFdn0W10SrHmxajMJlvBnvYcsjA8xgRu2LQCGyy
E0r+17XODxlh8bWHnG1yLoJKFtotvxLu0tKb86Z5lxQgddST3k0dIQ3lmVBIPe3r
mHCdE0zi6R9Rpp5+IXSpv5axBDGXy0hwJmuUEMLWNOm/OsIZciBgRhDZobrFJ6Q0
HDspYdtPKvp9ChnLTkIzOAbWI/akUO+VCB3npPq5b+zXh2nJ3Z7doqrYknjqN6TV
Av5+C8dEMWr6ndqiTAipmzw2G/zLErI5sxKoabWchjYQ+QIDAQABo4G9MIG6MAkG
A1UdEwQCMAAwHQYDVR0OBBYEFEh4E7jFUEEvEFAjXyFhHFE3mJPrMFEGA1UdIwRK
MEiAFAC/BnTaCq+efHLkQqujHfe8/z6WoRqkGDAWMRQwEgYDVQQDDAt0ZWFtMzE0
LW5ldIIUV+sEcOVr5f5uljr4C6SZtjd0Ak8wEwYDVR0lBAwwCgYIKwYBBQUHAwEw
CwYDVR0PBAQDAgWgMBkGA1UdEQQSMBCCDnRlYW0zMTQtc2VydmVyMA0GCSqGSIb3
DQEBCwUAA4IBAQBr12yNK7tUFkG4DRUDxw27SbzECeIl5gyn1Px5kepIB9zs6OH2
hv9zLLaAeWwLno9NIyPmltCBzD+xm4iN+0gWOhsMP5LMC2wnvWekMDzy3aqignxu
BRYBSVsjU+PA9apXpUEDrz1T0prtVuESIjT5NWKrF06pAAGGwO3tUPqFtejvRUz0
Lmf4V6xj2zL/OU06Pcdptz1vV8y6K2DhiIIMXMONHKTbDv1L56Vuw7bsyF0EjvXY
H9yQzWzw0DlLOdXLBlq11meUrrDWbHtAE2XynbwoLVQIODAHRVAFpFK4vR1pA8Hu
zhuku6ndCcABOLEYnYuOGh+p4DRreUYBdtM/
-----END CERTIFICATE-----
