Certificate:
    Data:
        Version: 3 (0x2)
        Serial Number:
            65:1a:40:0f:b9:02:a7:bd:16:48:a8:cc:3c:7a:c7:89
        Signature Algorithm: sha256WithRSAEncryption
        Issuer: CN=team314-net
        Validity
            Not Before: Nov  3 20:44:58 2023 GMT
            Not After : Oct 18 20:44:58 2026 GMT
        Subject: CN=team314-server
        Subject Public Key Info:
            Public Key Algorithm: rsaEncryption
                Public-Key: (2048 bit)
                Modulus:
                    00:8d:27:85:f2:1f:d0:05:b6:fd:85:67:eb:79:1f:
                    72:16:0e:02:14:62:3b:a6:54:fa:10:a6:60:f8:d9:
                    9a:f3:79:8c:98:a3:50:e5:55:80:ad:3c:3b:49:9f:
                    7e:9e:03:c6:4c:9c:bb:39:84:37:25:d6:c2:fa:fa:
                    15:61:1c:e5:6a:ab:64:4b:f2:c4:a6:4b:15:3c:76:
                    00:10:45:1f:3e:fb:c6:83:6a:42:b0:7b:1d:8e:12:
                    db:58:95:6c:07:4e:7d:80:ee:e7:69:53:87:24:60:
                    a3:92:8f:8b:03:80:3b:f9:f3:5f:ca:2d:6a:85:8f:
                    14:68:41:e5:05:6f:95:4c:fa:29:c3:c3:59:72:95:
                    90:7b:b7:70:39:60:19:b3:d2:dc:1c:5d:aa:db:47:
                    91:c6:e5:3f:b3:1a:d6:56:d7:8b:54:ba:49:a7:32:
                    1f:1d:3e:da:99:3f:f9:9d:c6:fd:f7:e5:9a:97:d4:
                    ef:bd:2d:ae:3c:ed:99:12:f5:2a:65:d4:09:83:6c:
                    87:f7:65:31:b1:34:a9:e0:4f:47:68:7e:11:07:b0:
                    d5:f8:16:00:dd:27:09:6d:d2:86:a2:2d:b0:08:6c:
                    a7:f4:15:9e:36:e4:d5:ee:ce:1c:b2:ff:8c:8f:35:
                    b1:e1:3a:90:a0:54:3c:d0:43:0b:64:ac:d2:3e:43:
                    01:41
                Exponent: 65537 (0x10001)
        X509v3 extensions:
            X509v3 Basic Constraints: 
                CA:FALSE
            X509v3 Subject Key Identifier: 
                24:8A:57:3E:74:6A:6E:F6:70:9D:1E:B7:86:15:7D:93:80:E6:29:16
            X509v3 Authority Key Identifier: 
                keyid:AA:2A:4E:73:6D:36:A9:8B:08:23:E7:90:30:A6:C5:CF:50:34:0D:16
                DirName:/CN=team314-net
                serial:18:D6:82:2B:88:4D:F7:F7:86:4F:59:4F:E2:AD:9D:11:CC:00:0F:4A
            X509v3 Extended Key Usage: 
                TLS Web Server Authentication
            X509v3 Key Usage: 
                Digital Signature, Key Encipherment
            X509v3 Subject Alternative Name: 
                DNS:team314-server
    Signature Algorithm: sha256WithRSAEncryption
    Signature Value:
        c5:fb:af:87:e7:48:8d:f1:66:f7:f3:7b:e0:40:3b:ad:f9:92:
        15:dc:04:14:2e:0a:8d:96:92:70:dc:90:1c:b1:f6:85:4e:c6:
        3e:c1:21:5e:24:47:c8:d3:fd:fd:cc:35:ea:05:f9:c8:10:76:
        8d:94:23:ae:a5:b0:0f:48:16:9a:b4:06:93:fa:ad:d1:63:63:
        9e:6b:88:b7:ce:fc:87:17:f1:68:8c:b9:3a:da:dd:fe:7d:88:
        9a:66:51:e2:25:df:54:32:04:e9:8c:b5:df:85:87:aa:d6:ad:
        2a:a4:8c:90:f2:7b:bc:57:20:c9:d6:aa:8f:cb:6d:8d:03:e4:
        86:18:3c:d5:b2:76:14:e0:e1:d7:0d:97:2f:14:0c:00:6e:46:
        df:33:67:62:30:c2:43:b3:ab:d3:f0:e1:91:06:a7:d2:cf:48:
        31:fe:c8:7e:22:03:60:42:19:b0:80:54:a3:23:b3:61:b6:0f:
        92:f5:20:ea:bc:7d:ad:cd:3d:fe:29:e9:0e:e9:90:a0:46:0b:
        cd:a7:93:bb:de:03:b0:02:16:1b:3e:26:06:03:3d:1a:7a:b2:
        c2:aa:50:c1:df:87:29:3d:b7:49:40:78:aa:c8:57:e1:29:df:
        fd:8d:cd:77:8c:a1:3e:5c:11:42:5f:b7:e4:c6:2b:39:ee:a4:
        0d:63:55:84
-----BEGIN CERTIFICATE-----
MIIDdzCCAl+gAwIBAgIQZRpAD7kCp70WSKjMPHrHiTANBgkqhkiG9w0BAQsFADAW
MRQwEgYDVQQDDAt0ZWFtMzE0LW5ldDAeFw0yMzExMDMyMDQ0NThaFw0yNjEwMTgy
MDQ0NThaMBkxFzAVBgNVBAMMDnRlYW0zMTQtc2VydmVyMIIBIjANBgkqhkiG9w0B
AQEFAAOCAQ8AMIIBCgKCAQEAjSeF8h/QBbb9hWfreR9yFg4CFGI7plT6EKZg+Nma
83mMmKNQ5VWArTw7SZ9+ngPGTJy7OYQ3JdbC+voVYRzlaqtkS/LEpksVPHYAEEUf
PvvGg2pCsHsdjhLbWJVsB059gO7naVOHJGCjko+LA4A7+fNfyi1qhY8UaEHlBW+V
TPopw8NZcpWQe7dwOWAZs9LcHF2q20eRxuU/sxrWVteLVLpJpzIfHT7amT/5ncb9
9+Wal9TvvS2uPO2ZEvUqZdQJg2yH92UxsTSp4E9HaH4RB7DV+BYA3ScJbdKGoi2w
CGyn9BWeNuTV7s4csv+MjzWx4TqQoFQ80EMLZKzSPkMBQQIDAQABo4G9MIG6MAkG
A1UdEwQCMAAwHQYDVR0OBBYEFCSKVz50am72cJ0et4YVfZOA5ikWMFEGA1UdIwRK
MEiAFKoqTnNtNqmLCCPnkDCmxc9QNA0WoRqkGDAWMRQwEgYDVQQDDAt0ZWFtMzE0
LW5ldIIUGNaCK4hN9/eGT1lP4q2dEcwAD0owEwYDVR0lBAwwCgYIKwYBBQUHAwEw
CwYDVR0PBAQDAgWgMBkGA1UdEQQSMBCCDnRlYW0zMTQtc2VydmVyMA0GCSqGSIb3
DQEBCwUAA4IBAQDF+6+H50iN8Wb383vgQDut+ZIV3AQULgqNlpJw3JAcsfaFTsY+
wSFeJEfI0/39zDXqBfnIEHaNlCOupbAPSBaatAaT+q3RY2Oea4i3zvyHF/FojLk6
2t3+fYiaZlHiJd9UMgTpjLXfhYeq1q0qpIyQ8nu8VyDJ1qqPy22NA+SGGDzVsnYU
4OHXDZcvFAwAbkbfM2diMMJDs6vT8OGRBqfSz0gx/sh+IgNgQhmwgFSjI7Nhtg+S
9SDqvH2tzT3+KekO6ZCgRgvNp5O73gOwAhYbPiYGAz0aerLCqlDB34cpPbdJQHiq
yFfhKd/9jc13jKE+XBFCX7fkxis57qQNY1WE
-----END CERTIFICATE-----
