Certificate:
    Data:
        Version: 3 (0x2)
        Serial Number:
            6b:94:cc:f1:03:10:73:76:f3:64:59:23:66:4f:e7:9b
        Signature Algorithm: sha256WithRSAEncryption
        Issuer: CN=team314-net
        Validity
            Not Before: Nov  4 11:34:20 2023 GMT
            Not After : Oct 19 11:34:20 2026 GMT
        Subject: CN=team314-server
        Subject Public Key Info:
            Public Key Algorithm: rsaEncryption
                Public-Key: (2048 bit)
                Modulus:
                    00:da:79:2a:fe:78:2c:ed:bd:d7:9c:96:2d:90:28:
                    e2:4a:f8:f4:cd:f9:75:6c:14:33:6d:db:d6:21:c4:
                    e5:45:a3:d8:b2:be:3f:8f:6f:04:2d:18:73:36:dc:
                    4e:0d:4e:bf:8a:37:74:ea:7e:fa:2c:69:ed:b3:fa:
                    da:61:f1:45:25:2c:9d:98:b1:c9:16:a0:63:6b:92:
                    d9:68:3d:42:8d:33:50:74:ae:10:c6:c5:02:86:b3:
                    be:8c:5d:61:3d:3b:52:8c:77:f3:28:ee:1d:01:eb:
                    a9:a7:62:f5:d0:7a:c3:d3:1b:19:1e:fd:c5:43:cf:
                    84:d6:b1:53:a2:b0:ba:16:9e:56:ed:26:4a:34:4c:
                    83:d2:73:32:1d:e6:df:9d:af:3a:42:ad:41:92:c8:
                    16:8c:2f:34:42:0c:7a:d9:aa:16:00:53:e7:dc:0b:
                    cb:6b:82:08:c2:04:7a:53:de:51:d1:49:94:89:6b:
                    5e:55:6b:e7:3f:e9:cb:7f:4b:1b:73:68:10:84:05:
                    04:49:fb:b5:4b:9b:7f:b1:70:62:88:9c:b5:74:4a:
                    bb:27:30:91:50:85:f8:2b:39:d4:dc:1b:cf:72:ff:
                    04:31:bf:de:d8:c3:10:8f:fa:a2:3c:51:89:9f:12:
                    af:bc:6c:d8:97:d9:92:cf:22:ff:99:c9:73:c9:03:
                    cc:21
                Exponent: 65537 (0x10001)
        X509v3 extensions:
            X509v3 Basic Constraints: 
                CA:FALSE
            X509v3 Subject Key Identifier: 
                3D:D9:B4:84:63:95:9B:4A:71:F2:41:B4:56:F5:51:E4:13:FB:D8:69
            X509v3 Authority Key Identifier: 
                keyid:AA:EC:60:81:2F:D0:C6:C6:D4:07:8C:F0:C4:84:CE:B6:95:5C:C8:B0
                DirName:/CN=team314-net
                serial:21:62:6D:44:B1:09:0E:0D:10:B5:A2:C7:B8:6D:80:33:88:9F:02:30
            X509v3 Extended Key Usage: 
                TLS Web Server Authentication
            X509v3 Key Usage: 
                Digital Signature, Key Encipherment
            X509v3 Subject Alternative Name: 
                DNS:team314-server
    Signature Algorithm: sha256WithRSAEncryption
    Signature Value:
        58:c2:73:7b:f8:8c:22:92:6d:27:40:d8:f9:02:2a:90:78:53:
        4a:00:90:4b:98:4f:fa:df:43:b0:51:76:d4:f3:b0:5d:bf:32:
        52:3a:47:29:25:c1:50:1c:72:28:ef:17:ce:21:9b:eb:6a:c8:
        07:f0:3e:26:cb:ae:d9:37:98:bc:96:fb:d7:3a:72:db:30:49:
        35:3a:c6:ed:64:7f:b3:31:a5:e8:58:02:e9:5d:2c:a8:2e:aa:
        2a:c8:9b:65:15:2b:f6:9a:50:cd:73:87:9a:d0:3b:00:42:1b:
        ef:21:69:33:a4:2d:b1:9d:14:1a:c0:3b:dd:8f:8a:83:31:d2:
        7d:cf:6c:76:94:42:5f:70:6b:0b:4b:b9:94:29:ff:ea:f8:1d:
        91:a3:7c:e6:c1:27:b7:77:ff:46:88:57:99:ee:c0:2a:ba:a6:
        06:13:4e:1a:33:a1:88:2a:30:b4:0d:b8:25:19:31:64:62:00:
        3d:bf:f1:3e:b2:1b:2a:a6:78:4b:1f:06:45:65:45:b5:c6:9e:
        23:be:22:f8:76:4b:e6:53:94:31:28:62:be:a0:c3:bd:1a:c1:
        78:23:59:b4:2b:b2:f0:f6:54:6a:1c:a0:f8:3b:fc:44:9e:71:
        6f:fe:d6:39:49:89:7d:96:f4:4c:5b:de:7d:eb:bd:6a:36:6b:
        90:ea:7e:a8
-----BEGIN CERTIFICATE-----
MIIDdzCCAl+gAwIBAgIQa5TM8QMQc3bzZFkjZk/nmzANBgkqhkiG9w0BAQsFADAW
MRQwEgYDVQQDDAt0ZWFtMzE0LW5ldDAeFw0yMzExMDQxMTM0MjBaFw0yNjEwMTkx
MTM0MjBaMBkxFzAVBgNVBAMMDnRlYW0zMTQtc2VydmVyMIIBIjANBgkqhkiG9w0B
AQEFAAOCAQ8AMIIBCgKCAQEA2nkq/ngs7b3XnJYtkCjiSvj0zfl1bBQzbdvWIcTl
RaPYsr4/j28ELRhzNtxODU6/ijd06n76LGnts/raYfFFJSydmLHJFqBja5LZaD1C
jTNQdK4QxsUChrO+jF1hPTtSjHfzKO4dAeupp2L10HrD0xsZHv3FQ8+E1rFTorC6
Fp5W7SZKNEyD0nMyHebfna86Qq1BksgWjC80Qgx62aoWAFPn3AvLa4IIwgR6U95R
0UmUiWteVWvnP+nLf0sbc2gQhAUESfu1S5t/sXBiiJy1dEq7JzCRUIX4KznU3BvP
cv8EMb/e2MMQj/qiPFGJnxKvvGzYl9mSzyL/mclzyQPMIQIDAQABo4G9MIG6MAkG
A1UdEwQCMAAwHQYDVR0OBBYEFD3ZtIRjlZtKcfJBtFb1UeQT+9hpMFEGA1UdIwRK
MEiAFKrsYIEv0MbG1AeM8MSEzraVXMiwoRqkGDAWMRQwEgYDVQQDDAt0ZWFtMzE0
LW5ldIIUIWJtRLEJDg0QtaLHuG2AM4ifAjAwEwYDVR0lBAwwCgYIKwYBBQUHAwEw
CwYDVR0PBAQDAgWgMBkGA1UdEQQSMBCCDnRlYW0zMTQtc2VydmVyMA0GCSqGSIb3
DQEBCwUAA4IBAQBYwnN7+Iwikm0nQNj5AiqQeFNKAJBLmE/630OwUXbU87BdvzJS
OkcpJcFQHHIo7xfOIZvrasgH8D4my67ZN5i8lvvXOnLbMEk1OsbtZH+zMaXoWALp
XSyoLqoqyJtlFSv2mlDNc4ea0DsAQhvvIWkzpC2xnRQawDvdj4qDMdJ9z2x2lEJf
cGsLS7mUKf/q+B2Ro3zmwSe3d/9GiFeZ7sAquqYGE04aM6GIKjC0DbglGTFkYgA9
v/E+shsqpnhLHwZFZUW1xp4jviL4dkvmU5QxKGK+oMO9GsF4I1m0K7Lw9lRqHKD4
O/xEnnFv/tY5SYl9lvRMW959671qNmuQ6n6o
-----END CERTIFICATE-----
