Certificate:
    Data:
        Version: 3 (0x2)
        Serial Number:
            d5:06:0b:14:1d:26:31:75:e5:2f:a4:2b:2f:1d:e5:9b
        Signature Algorithm: sha256WithRSAEncryption
        Issuer: CN=team314-net
        Validity
            Not Before: Nov  4 11:34:19 2023 GMT
            Not After : Oct 19 11:34:19 2026 GMT
        Subject: CN=team314-client
        Subject Public Key Info:
            Public Key Algorithm: rsaEncryption
                Public-Key: (2048 bit)
                Modulus:
                    00:ac:19:b1:10:10:8c:3c:db:14:be:f9:02:48:0c:
                    23:c3:1a:3e:02:a3:d1:63:69:ac:0e:4d:d0:03:e7:
                    dd:bb:06:56:33:89:7b:f6:ff:d1:79:bd:9b:2e:bc:
                    40:ab:07:2c:51:d4:23:f8:6e:cf:b9:cd:3e:d6:3b:
                    fd:ad:1f:d4:d7:c3:e8:5a:8d:4e:97:87:3d:2f:a2:
                    c9:29:43:5a:f5:5f:0f:b2:d1:84:3d:19:0b:aa:01:
                    e5:e2:41:3c:46:b5:d8:a4:a7:c6:00:3b:d1:77:3a:
                    3e:ee:9d:c7:4c:b1:01:69:12:53:8e:66:5e:55:64:
                    a9:67:37:92:84:6c:c9:ee:71:e7:fb:ae:cb:54:4a:
                    cd:68:68:14:1a:38:c3:1f:76:26:5a:00:82:36:b6:
                    53:c3:ae:e4:63:87:77:76:20:4f:63:a7:85:9e:9d:
                    3e:b6:6d:b7:76:51:0f:29:23:8b:95:08:87:27:4b:
                    94:7b:64:92:d2:07:ac:67:1f:e1:79:c3:30:4f:15:
                    0d:e4:a7:c5:13:69:25:2f:96:7a:40:8d:9e:6c:ea:
                    0f:60:4e:08:ba:50:19:2e:83:62:3e:65:28:dc:6b:
                    3a:fc:1d:d8:40:b4:ef:f3:4d:59:6f:6e:4c:f4:1a:
                    88:92:65:60:5b:d7:18:75:d0:18:b0:d7:20:26:c4:
                    72:09
                Exponent: 65537 (0x10001)
        X509v3 extensions:
            X509v3 Basic Constraints: 
                CA:FALSE
            X509v3 Subject Key Identifier: 
                F8:41:6E:CB:25:91:6C:55:76:C0:78:61:D1:FC:57:DC:90:87:84:68
            X509v3 Authority Key Identifier: 
                keyid:AA:EC:60:81:2F:D0:C6:C6:D4:07:8C:F0:C4:84:CE:B6:95:5C:C8:B0
                DirName:/CN=team314-net
                serial:21:62:6D:44:B1:09:0E:0D:10:B5:A2:C7:B8:6D:80:33:88:9F:02:30
            X509v3 Extended Key Usage: 
                TLS Web Client Authentication
            X509v3 Key Usage: 
                Digital Signature
    Signature Algorithm: sha256WithRSAEncryption
    Signature Value:
        38:dc:56:c7:1e:a0:f8:8b:a6:50:ea:ff:60:11:4e:e8:a3:ef:
        6c:27:fd:78:00:4b:e0:fb:67:ce:e5:06:b1:4b:c5:a2:70:85:
        e7:db:a3:75:26:34:50:c7:36:0a:f1:82:b2:b3:c3:5a:1e:78:
        ac:00:fc:99:9f:a3:a5:64:da:08:68:7c:75:c2:7f:57:92:21:
        e0:fb:eb:07:d7:4e:38:87:5f:dd:05:01:d5:40:63:a4:f4:fb:
        83:be:96:43:0a:50:b9:85:56:70:e4:19:11:33:15:80:97:3f:
        47:5b:77:f9:61:84:77:17:f6:27:67:38:2a:d4:4f:64:63:3a:
        b7:7c:6d:9e:5b:77:4b:44:2b:20:5d:73:a4:52:dc:48:7d:0b:
        eb:a0:d5:7c:ae:1d:7c:5f:0b:b5:aa:89:4a:17:6f:e5:75:32:
        b5:0c:49:06:d0:81:bd:be:68:ce:93:c4:43:87:c5:48:00:67:
        f4:92:1b:9b:30:c3:ad:b4:06:2c:b5:1c:ea:e3:24:53:1f:18:
        56:cf:0a:6e:ba:97:17:ef:b7:4f:c5:83:9a:cd:ce:ac:8a:d3:
        c9:40:4b:1f:82:ea:a3:9e:0b:3f:82:e6:93:3f:ab:0c:6a:49:
        30:60:e9:82:0b:57:2f:0f:bf:4c:ac:a7:4a:63:0e:af:eb:d8:
        83:18:fa:de
-----BEGIN CERTIFICATE-----
MIIDXTCCAkWgAwIBAgIRANUGCxQdJjF15S+kKy8d5ZswDQYJKoZIhvcNAQELBQAw
FjEUMBIGA1UEAwwLdGVhbTMxNC1uZXQwHhcNMjMxMTA0MTEzNDE5WhcNMjYxMDE5
MTEzNDE5WjAZMRcwFQYDVQQDDA50ZWFtMzE0LWNsaWVudDCCASIwDQYJKoZIhvcN
AQEBBQADggEPADCCAQoCggEBAKwZsRAQjDzbFL75AkgMI8MaPgKj0WNprA5N0APn
3bsGVjOJe/b/0Xm9my68QKsHLFHUI/huz7nNPtY7/a0f1NfD6FqNTpeHPS+iySlD
WvVfD7LRhD0ZC6oB5eJBPEa12KSnxgA70Xc6Pu6dx0yxAWkSU45mXlVkqWc3koRs
ye5x5/uuy1RKzWhoFBo4wx92JloAgja2U8Ou5GOHd3YgT2OnhZ6dPrZtt3ZRDykj
i5UIhydLlHtkktIHrGcf4XnDME8VDeSnxRNpJS+WekCNnmzqD2BOCLpQGS6DYj5l
KNxrOvwd2EC07/NNWW9uTPQaiJJlYFvXGHXQGLDXICbEcgkCAwEAAaOBojCBnzAJ
BgNVHRMEAjAAMB0GA1UdDgQWBBT4QW7LJZFsVXbAeGHR/FfckIeEaDBRBgNVHSME
SjBIgBSq7GCBL9DGxtQHjPDEhM62lVzIsKEapBgwFjEUMBIGA1UEAwwLdGVhbTMx
NC1uZXSCFCFibUSxCQ4NELWix7htgDOInwIwMBMGA1UdJQQMMAoGCCsGAQUFBwMC
MAsGA1UdDwQEAwIHgDANBgkqhkiG9w0BAQsFAAOCAQEAONxWxx6g+IumUOr/YBFO
6KPvbCf9eABL4PtnzuUGsUvFonCF59ujdSY0UMc2CvGCsrPDWh54rAD8mZ+jpWTa
CGh8dcJ/V5Ih4PvrB9dOOIdf3QUB1UBjpPT7g76WQwpQuYVWcOQZETMVgJc/R1t3
+WGEdxf2J2c4KtRPZGM6t3xtnlt3S0QrIF1zpFLcSH0L66DVfK4dfF8LtaqJShdv
5XUytQxJBtCBvb5ozpPEQ4fFSABn9JIbmzDDrbQGLLUc6uMkUx8YVs8KbrqXF++3
T8WDms3OrIrTyUBLH4Lqo54LP4Lmkz+rDGpJMGDpggtXLw+/TKynSmMOr+vYgxj6
3g==
-----END CERTIFICATE-----
