Certificate:
    Data:
        Version: 3 (0x2)
        Serial Number:
            67:38:e7:9c:da:da:32:5e:39:ea:65:1f:84:88:ba:4f
        Signature Algorithm: sha256WithRSAEncryption
        Issuer: CN=team190-net
        Validity
            Not Before: Nov  3 20:42:43 2023 GMT
            Not After : Oct 18 20:42:43 2026 GMT
        Subject: CN=team190-client
        Subject Public Key Info:
            Public Key Algorithm: rsaEncryption
                Public-Key: (2048 bit)
                Modulus:
                    00:98:11:6f:c1:dc:46:d4:2e:69:4a:f8:0d:54:b8:
                    bf:96:d9:72:c5:08:69:29:19:d7:be:8d:58:c7:ca:
                    04:5e:8d:31:08:14:33:d2:11:c3:d6:ff:8f:de:0b:
                    f3:44:75:3a:98:e0:48:2b:dc:97:86:db:be:4e:2c:
                    16:55:b3:32:ae:96:16:5b:7d:a1:f4:ac:9d:9e:db:
                    7f:17:8c:55:e7:bb:3a:d7:c0:e0:09:9a:32:0e:62:
                    eb:3f:df:14:06:9d:bf:ac:ff:40:80:03:e6:56:cb:
                    df:77:8c:37:93:cd:94:d1:b6:2f:a9:d6:7c:a9:dc:
                    0f:5c:12:6c:66:5f:15:c3:97:4f:79:91:e2:7f:92:
                    43:7d:a5:b0:80:c3:39:93:6d:19:96:06:90:39:91:
                    37:75:7d:61:e0:4d:2a:17:47:23:81:45:1f:2f:8a:
                    6a:7f:58:fd:ed:1e:2a:01:be:30:fa:99:e9:23:88:
                    7c:af:3e:11:4f:73:f0:98:bd:e3:3c:ae:f4:63:91:
                    2a:29:42:ad:6c:9a:c3:7c:83:51:ec:3e:8b:a3:8d:
                    c5:13:f2:0a:44:ed:0d:5f:ef:04:ea:82:a1:e9:d7:
                    ac:36:8a:f8:4c:4f:5f:93:20:0d:03:e0:a6:6d:6a:
                    52:ad:97:6f:fd:f7:66:e7:f5:9f:69:69:a4:4a:7e:
                    8f:99
                Exponent: 65537 (0x10001)
        X509v3 extensions:
            X509v3 Basic Constraints: 
                CA:FALSE
            X509v3 Subject Key Identifier: 
                63:3B:46:0E:43:2C:C4:C4:6A:2F:82:3A:8F:8A:92:EA:22:FF:BC:CE
            X509v3 Authority Key Identifier: 
                keyid:30:CE:7C:8E:DB:58:50:C5:72:AE:AB:EC:E8:11:92:3C:83:24:A6:CB
                DirName:/CN=team190-net
                serial:32:2E:C6:E5:EF:89:94:11:DA:ED:DC:1B:F8:1D:14:C8:F4:48:36:45
            X509v3 Extended Key Usage: 
                TLS Web Client Authentication
            X509v3 Key Usage: 
                Digital Signature
    Signature Algorithm: sha256WithRSAEncryption
    Signature Value:
        c4:57:8b:1b:7e:7d:d3:28:cb:c7:cb:a8:f8:b8:42:9a:c4:b3:
        c2:d8:9b:07:c4:af:05:7d:4e:e1:fa:3b:b8:95:27:41:30:bc:
        92:0e:2a:89:a5:f8:11:81:76:ac:b4:28:fb:e1:6d:cc:f2:6c:
        20:d6:9f:a6:83:43:12:61:92:19:b2:e0:ca:6b:a3:51:16:cf:
        4a:61:b3:5a:fe:0a:53:83:07:e1:f9:8d:f1:5e:bc:26:6d:21:
        b3:2e:fa:82:33:6b:f0:c3:cf:5e:56:c5:7b:8e:f0:ec:5e:0c:
        65:b4:0b:b8:70:e3:c4:f5:d5:65:3f:51:2b:26:12:81:ee:b1:
        a9:52:eb:8b:18:4e:80:1b:43:eb:fc:50:e4:a8:84:99:19:87:
        65:5c:3c:6b:bb:ed:c7:d4:d1:0c:12:e4:b2:4e:89:d2:ab:39:
        3b:f0:2c:84:66:bb:99:40:ef:ef:58:7f:c1:76:a9:9d:d8:7c:
        bc:3a:42:3b:b7:9f:e2:43:40:76:bb:52:1a:bb:30:16:79:86:
        ed:d2:41:cd:bb:fc:b9:74:38:7c:26:fd:e7:e3:bc:42:32:eb:
        df:a9:c2:92:33:01:52:47:d8:e6:a0:89:f1:cb:93:ba:49:50:
        2b:a7:a9:41:af:1c:b4:4c:21:05:17:23:0e:9b:71:af:be:90:
        0f:c8:f9:9e
-----BEGIN CERTIFICATE-----
MIIDXDCCAkSgAwIBAgIQZzjnnNraMl456mUfhIi6TzANBgkqhkiG9w0BAQsFADAW
MRQwEgYDVQQDDAt0ZWFtMTkwLW5ldDAeFw0yMzExMDMyMDQyNDNaFw0yNjEwMTgy
MDQyNDNaMBkxFzAVBgNVBAMMDnRlYW0xOTAtY2xpZW50MIIBIjANBgkqhkiG9w0B
AQEFAAOCAQ8AMIIBCgKCAQEAmBFvwdxG1C5pSvgNVLi/ltlyxQhpKRnXvo1Yx8oE
Xo0xCBQz0hHD1v+P3gvzRHU6mOBIK9yXhtu+TiwWVbMyrpYWW32h9Kydntt/F4xV
57s618DgCZoyDmLrP98UBp2/rP9AgAPmVsvfd4w3k82U0bYvqdZ8qdwPXBJsZl8V
w5dPeZHif5JDfaWwgMM5k20ZlgaQOZE3dX1h4E0qF0cjgUUfL4pqf1j97R4qAb4w
+pnpI4h8rz4RT3PwmL3jPK70Y5EqKUKtbJrDfINR7D6Lo43FE/IKRO0NX+8E6oKh
6desNor4TE9fkyANA+CmbWpSrZdv/fdm5/WfaWmkSn6PmQIDAQABo4GiMIGfMAkG
A1UdEwQCMAAwHQYDVR0OBBYEFGM7Rg5DLMTEai+COo+Kkuoi/7zOMFEGA1UdIwRK
MEiAFDDOfI7bWFDFcq6r7OgRkjyDJKbLoRqkGDAWMRQwEgYDVQQDDAt0ZWFtMTkw
LW5ldIIUMi7G5e+JlBHa7dwb+B0UyPRINkUwEwYDVR0lBAwwCgYIKwYBBQUHAwIw
CwYDVR0PBAQDAgeAMA0GCSqGSIb3DQEBCwUAA4IBAQDEV4sbfn3TKMvHy6j4uEKa
xLPC2JsHxK8FfU7h+ju4lSdBMLySDiqJpfgRgXastCj74W3M8mwg1p+mg0MSYZIZ
suDKa6NRFs9KYbNa/gpTgwfh+Y3xXrwmbSGzLvqCM2vww89eVsV7jvDsXgxltAu4
cOPE9dVlP1ErJhKB7rGpUuuLGE6AG0Pr/FDkqISZGYdlXDxru+3H1NEMEuSyTonS
qzk78CyEZruZQO/vWH/Bdqmd2Hy8OkI7t5/iQ0B2u1IauzAWeYbt0kHNu/y5dDh8
Jv3n47xCMuvfqcKSMwFSR9jmoInxy5O6SVArp6lBrxy0TCEFFyMOm3GvvpAPyPme
-----END CERTIFICATE-----
