Certificate:
    Data:
        Version: 3 (0x2)
        Serial Number:
            a1:57:a7:5d:d6:c4:64:73:2b:b0:15:46:db:a9:f9:ed
        Signature Algorithm: sha256WithRSAEncryption
        Issuer: CN=team177-net
        Validity
            Not Before: Nov  3 20:42:27 2023 GMT
            Not After : Oct 18 20:42:27 2026 GMT
        Subject: CN=team177-client
        Subject Public Key Info:
            Public Key Algorithm: rsaEncryption
                Public-Key: (2048 bit)
                Modulus:
                    00:c2:11:36:65:b3:cc:12:52:88:e5:4c:a7:35:20:
                    5b:36:56:58:ae:08:c9:f7:25:16:8a:c2:ab:e6:66:
                    95:25:66:b2:9a:1d:09:35:42:18:db:64:13:a3:4c:
                    3d:6b:4b:12:8a:3d:9f:de:b4:5c:18:d8:98:b6:4d:
                    dd:f6:36:62:9e:6b:01:8a:18:aa:43:ce:2b:fe:68:
                    3b:6f:ea:50:5e:67:4f:1e:9e:0a:24:52:6b:aa:50:
                    fd:cd:25:a8:7c:a7:e7:3a:2f:31:a3:02:95:a8:56:
                    a8:70:9e:99:27:0f:b4:53:23:a1:94:0f:46:6f:23:
                    6f:89:b3:4b:49:48:49:65:09:9a:bc:05:0f:be:45:
                    5a:f6:10:da:42:37:1c:85:e9:ff:cd:17:84:7f:6a:
                    e6:e6:5e:c3:27:4c:55:3a:5c:7e:55:a8:71:47:69:
                    36:1a:46:36:dd:bb:bf:5b:54:8f:04:95:ea:2f:e7:
                    da:15:94:7b:06:dd:8c:26:7e:e9:4d:31:31:ba:49:
                    c3:14:b3:7d:40:fe:d6:29:b8:d6:a5:e6:d3:54:7c:
                    92:45:ff:14:91:5a:ae:ff:b4:4e:5b:b5:6e:6e:19:
                    39:bf:63:78:88:57:50:31:09:19:c4:3b:6d:1d:ce:
                    69:a7:24:81:6b:90:d5:52:0a:ff:22:e9:a5:1d:8c:
                    1d:99
                Exponent: 65537 (0x10001)
        X509v3 extensions:
            X509v3 Basic Constraints: 
                CA:FALSE
            X509v3 Subject Key Identifier: 
                DC:53:73:92:5C:32:EB:34:7D:24:0C:8C:E2:0E:DC:56:F8:A9:54:82
            X509v3 Authority Key Identifier: 
                keyid:81:33:E1:05:5F:12:A6:56:E9:90:4F:CC:C6:13:6D:8F:B1:A0:EB:BA
                DirName:/CN=team177-net
                serial:79:48:E7:B5:F2:47:DD:A3:4B:E4:C2:71:26:2D:D1:B0:4A:51:C3:47
            X509v3 Extended Key Usage: 
                TLS Web Client Authentication
            X509v3 Key Usage: 
                Digital Signature
    Signature Algorithm: sha256WithRSAEncryption
    Signature Value:
        1a:b1:c8:23:3d:d3:2d:17:ed:66:91:8b:58:15:2d:e7:96:04:
        55:ee:4b:d5:e6:68:55:67:1f:3a:4e:fe:23:33:ea:17:0a:ff:
        ae:72:bd:a3:0c:62:f2:3a:9c:08:73:8f:04:a7:45:22:ae:a8:
        e6:65:59:99:19:5c:d4:6e:0e:ad:9d:17:4a:d4:8c:73:1b:49:
        ac:82:94:4a:cb:eb:f4:04:a5:aa:b2:2b:27:ff:76:04:1c:32:
        a8:82:e9:54:ac:76:c7:42:ba:71:77:e4:2e:38:3b:37:0a:1e:
        8e:f3:f6:a4:df:9a:29:40:bd:84:7a:4c:49:d1:96:e1:88:15:
        97:6c:03:f4:7f:a6:56:58:67:85:c1:da:e1:c4:e3:4f:c1:c3:
        c8:7e:67:3f:99:10:84:b3:55:73:22:6c:b2:49:98:79:e6:80:
        ff:5d:c5:8c:b4:c2:85:55:c6:03:0c:55:a8:74:01:8f:2a:04:
        be:5d:71:31:5f:09:4f:0f:93:03:4c:bd:00:3e:8b:f4:c9:31:
        e1:b7:54:0d:3b:ab:43:73:08:58:df:87:15:ea:b9:56:30:08:
        4a:39:13:a3:68:08:bf:f6:a9:93:d3:54:f6:e2:3e:26:c8:77:
        2d:02:f3:13:64:28:3a:76:a5:e4:17:0a:30:21:13:57:04:f6:
        c7:11:fb:1a
-----BEGIN CERTIFICATE-----
MIIDXTCCAkWgAwIBAgIRAKFXp13WxGRzK7AVRtup+e0wDQYJKoZIhvcNAQELBQAw
FjEUMBIGA1UEAwwLdGVhbTE3Ny1uZXQwHhcNMjMxMTAzMjA0MjI3WhcNMjYxMDE4
MjA0MjI3WjAZMRcwFQYDVQQDDA50ZWFtMTc3LWNsaWVudDCCASIwDQYJKoZIhvcN
AQEBBQADggEPADCCAQoCggEBAMIRNmWzzBJSiOVMpzUgWzZWWK4IyfclForCq+Zm
lSVmspodCTVCGNtkE6NMPWtLEoo9n960XBjYmLZN3fY2Yp5rAYoYqkPOK/5oO2/q
UF5nTx6eCiRSa6pQ/c0lqHyn5zovMaMClahWqHCemScPtFMjoZQPRm8jb4mzS0lI
SWUJmrwFD75FWvYQ2kI3HIXp/80XhH9q5uZewydMVTpcflWocUdpNhpGNt27v1tU
jwSV6i/n2hWUewbdjCZ+6U0xMbpJwxSzfUD+1im41qXm01R8kkX/FJFarv+0Tlu1
bm4ZOb9jeIhXUDEJGcQ7bR3OaackgWuQ1VIK/yLppR2MHZkCAwEAAaOBojCBnzAJ
BgNVHRMEAjAAMB0GA1UdDgQWBBTcU3OSXDLrNH0kDIziDtxW+KlUgjBRBgNVHSME
SjBIgBSBM+EFXxKmVumQT8zGE22PsaDruqEapBgwFjEUMBIGA1UEAwwLdGVhbTE3
Ny1uZXSCFHlI57XyR92jS+TCcSYt0bBKUcNHMBMGA1UdJQQMMAoGCCsGAQUFBwMC
MAsGA1UdDwQEAwIHgDANBgkqhkiG9w0BAQsFAAOCAQEAGrHIIz3TLRftZpGLWBUt
55YEVe5L1eZoVWcfOk7+IzPqFwr/rnK9owxi8jqcCHOPBKdFIq6o5mVZmRlc1G4O
rZ0XStSMcxtJrIKUSsvr9ASlqrIrJ/92BBwyqILpVKx2x0K6cXfkLjg7NwoejvP2
pN+aKUC9hHpMSdGW4YgVl2wD9H+mVlhnhcHa4cTjT8HDyH5nP5kQhLNVcyJsskmY
eeaA/13FjLTChVXGAwxVqHQBjyoEvl1xMV8JTw+TA0y9AD6L9Mkx4bdUDTurQ3MI
WN+HFeq5VjAISjkTo2gIv/apk9NU9uI+Jsh3LQLzE2QoOnal5BcKMCETVwT2xxH7
Gg==
-----END CERTIFICATE-----
