Certificate:
    Data:
        Version: 3 (0x2)
        Serial Number:
            02:72:d4:59:d5:22:b1:ed:6c:63:3d:31:a0:89:1d:ad
        Signature Algorithm: sha256WithRSAEncryption
        Issuer: CN=team189-net
        Validity
            Not Before: Nov  4 11:31:21 2023 GMT
            Not After : Oct 19 11:31:21 2026 GMT
        Subject: CN=team189-client
        Subject Public Key Info:
            Public Key Algorithm: rsaEncryption
                Public-Key: (2048 bit)
                Modulus:
                    00:ba:79:71:6d:ba:83:49:a3:28:7a:c3:12:1a:15:
                    f7:63:34:a2:4f:a6:7e:ad:56:96:10:de:78:df:b4:
                    cf:a5:31:77:70:65:a4:08:2a:18:90:00:f0:e9:6a:
                    df:77:84:12:61:d5:16:15:10:87:dd:40:79:00:78:
                    cb:0c:48:09:35:44:6d:67:0f:53:2a:40:4f:5b:3d:
                    f7:b0:39:84:fb:5e:bb:33:ff:d4:a0:f3:04:71:60:
                    c0:93:23:fe:95:c6:07:cf:31:9c:37:35:46:68:65:
                    15:54:32:1a:25:83:db:ff:0d:b2:dd:c8:6a:19:2a:
                    65:14:7b:c6:fb:64:41:8d:0c:c9:99:c6:d1:a4:86:
                    96:8a:f3:b6:bc:45:1a:23:45:f4:a1:3f:d9:b2:d9:
                    2f:03:8f:d3:86:1b:d1:07:4d:ba:2b:a2:15:30:4a:
                    ed:73:53:c4:16:ff:45:3e:21:74:16:f7:3b:96:44:
                    98:4c:8e:b5:08:08:9d:48:ce:1a:8b:93:33:01:88:
                    9c:1f:87:91:cc:63:34:d1:e0:f5:57:f5:6c:05:cc:
                    e6:6b:41:47:08:39:a3:1f:c9:3c:d1:ee:14:ce:0e:
                    60:cf:57:56:25:93:00:39:e4:56:ae:2b:2a:67:6a:
                    ea:f7:51:e6:e0:c3:76:f2:05:73:e8:d5:4b:9f:45:
                    e2:9d
                Exponent: 65537 (0x10001)
        X509v3 extensions:
            X509v3 Basic Constraints: 
                CA:FALSE
            X509v3 Subject Key Identifier: 
                80:1F:02:BD:C0:04:16:EC:D9:5D:64:9D:0B:5C:E2:E9:8E:E5:5F:59
            X509v3 Authority Key Identifier: 
                keyid:E7:B5:35:4E:E1:8E:3A:39:33:3C:AA:E3:5C:27:A6:85:65:CB:17:3A
                DirName:/CN=team189-net
                serial:55:CD:CE:35:42:D3:9E:8F:D3:71:6F:D4:5B:FD:5B:FB:2F:4D:11:A2
            X509v3 Extended Key Usage: 
                TLS Web Client Authentication
            X509v3 Key Usage: 
                Digital Signature
    Signature Algorithm: sha256WithRSAEncryption
    Signature Value:
        d9:92:6c:df:32:89:c6:64:b4:a3:d1:ff:8e:0d:f3:25:c2:34:
        0c:e8:d0:dd:be:1b:80:aa:6b:ae:39:94:00:b2:e8:8f:0c:a7:
        65:79:00:17:bb:49:54:45:82:a7:85:3a:88:6f:e6:6c:0d:49:
        a1:26:d5:85:0b:8b:17:a1:c5:75:4f:58:3d:ec:9f:c1:90:7a:
        8b:d4:c7:6e:13:1b:52:9f:c6:aa:d7:73:80:bb:79:99:21:50:
        45:2c:4b:3c:3f:e4:20:ee:6e:3b:8d:84:70:42:53:eb:34:c9:
        07:0a:0d:1f:09:0b:2e:92:95:09:a9:a1:98:f9:06:b1:84:37:
        86:60:32:a9:0c:ff:cc:78:df:57:4f:b0:fd:87:7d:ba:29:99:
        a4:48:ce:6a:63:ea:4d:64:ae:87:5a:c8:c3:d8:bc:fb:4f:ef:
        fe:d9:02:53:bc:11:4c:30:bc:22:31:d5:45:0d:cd:fe:15:2a:
        f5:fa:74:cc:04:6c:0d:bb:53:79:53:0b:55:5a:ae:12:9b:08:
        d4:3a:85:9a:7b:70:3b:ed:0f:c1:96:47:30:0b:61:3f:b3:19:
        3c:2a:c7:23:83:7f:44:66:f3:75:e9:63:b0:29:6a:e8:7a:34:
        47:bd:35:ae:50:95:89:05:0a:1d:39:c5:7e:3c:91:87:9a:a7:
        4e:c0:ea:0b
-----BEGIN CERTIFICATE-----
MIIDXDCCAkSgAwIBAgIQAnLUWdUise1sYz0xoIkdrTANBgkqhkiG9w0BAQsFADAW
MRQwEgYDVQQDDAt0ZWFtMTg5LW5ldDAeFw0yMzExMDQxMTMxMjFaFw0yNjEwMTkx
MTMxMjFaMBkxFzAVBgNVBAMMDnRlYW0xODktY2xpZW50MIIBIjANBgkqhkiG9w0B
AQEFAAOCAQ8AMIIBCgKCAQEAunlxbbqDSaMoesMSGhX3YzSiT6Z+rVaWEN5437TP
pTF3cGWkCCoYkADw6Wrfd4QSYdUWFRCH3UB5AHjLDEgJNURtZw9TKkBPWz33sDmE
+167M//UoPMEcWDAkyP+lcYHzzGcNzVGaGUVVDIaJYPb/w2y3chqGSplFHvG+2RB
jQzJmcbRpIaWivO2vEUaI0X0oT/ZstkvA4/ThhvRB026K6IVMErtc1PEFv9FPiF0
Fvc7lkSYTI61CAidSM4ai5MzAYicH4eRzGM00eD1V/VsBczma0FHCDmjH8k80e4U
zg5gz1dWJZMAOeRWrisqZ2rq91Hm4MN28gVz6NVLn0XinQIDAQABo4GiMIGfMAkG
A1UdEwQCMAAwHQYDVR0OBBYEFIAfAr3ABBbs2V1knQtc4umO5V9ZMFEGA1UdIwRK
MEiAFOe1NU7hjjo5Mzyq41wnpoVlyxc6oRqkGDAWMRQwEgYDVQQDDAt0ZWFtMTg5
LW5ldIIUVc3ONULTno/TcW/UW/1b+y9NEaIwEwYDVR0lBAwwCgYIKwYBBQUHAwIw
CwYDVR0PBAQDAgeAMA0GCSqGSIb3DQEBCwUAA4IBAQDZkmzfMonGZLSj0f+ODfMl
wjQM6NDdvhuAqmuuOZQAsuiPDKdleQAXu0lURYKnhTqIb+ZsDUmhJtWFC4sXocV1
T1g97J/BkHqL1MduExtSn8aq13OAu3mZIVBFLEs8P+Qg7m47jYRwQlPrNMkHCg0f
CQsukpUJqaGY+QaxhDeGYDKpDP/MeN9XT7D9h326KZmkSM5qY+pNZK6HWsjD2Lz7
T+/+2QJTvBFMMLwiMdVFDc3+FSr1+nTMBGwNu1N5UwtVWq4SmwjUOoWae3A77Q/B
lkcwC2E/sxk8Kscjg39EZvN16WOwKWroejRHvTWuUJWJBQodOcV+PJGHmqdOwOoL
-----END CERTIFICATE-----
