Certificate:
    Data:
        Version: 3 (0x2)
        Serial Number:
            18:3a:67:9b:c4:cd:1d:4a:52:9a:bf:70:6d:f4:fa:81
        Signature Algorithm: sha256WithRSAEncryption
        Issuer: CN=team189-net
        Validity
            Not Before: Nov  3 20:42:42 2023 GMT
            Not After : Oct 18 20:42:42 2026 GMT
        Subject: CN=team189-client
        Subject Public Key Info:
            Public Key Algorithm: rsaEncryption
                Public-Key: (2048 bit)
                Modulus:
                    00:b2:b4:9d:ff:23:6e:1a:c4:96:c9:9d:c5:41:c8:
                    96:22:34:b0:a4:89:86:20:0b:b6:b7:9a:8e:f4:0c:
                    b1:ef:34:c6:5b:b8:eb:01:59:88:29:18:9d:b4:ea:
                    f7:cc:4a:1e:d4:e5:30:d2:30:e8:85:9b:5d:f0:0e:
                    9a:f6:c8:f8:59:b4:40:aa:11:57:5d:2f:80:8d:37:
                    08:4a:54:74:48:9e:b5:06:cc:e3:5d:a0:c7:c9:85:
                    fb:f6:e0:e9:17:7e:7f:3f:39:29:20:41:4c:27:f9:
                    af:6e:9f:18:72:2f:7c:71:e4:c0:98:c6:b4:0f:17:
                    4b:5a:29:0f:95:ee:1e:f9:82:7e:00:d1:c2:d1:e1:
                    de:7e:64:ba:80:47:c4:20:ef:c6:9b:89:84:34:f6:
                    02:11:b2:b0:cc:2a:25:ed:b4:8e:a8:2b:5e:c0:b3:
                    d1:ac:dd:32:76:c2:88:a3:1e:42:ab:ce:4a:86:33:
                    4c:c8:d6:4a:57:20:5f:90:33:24:90:ee:0b:d2:00:
                    8f:9f:a1:42:2f:e9:a1:ad:ed:4f:1d:c3:76:c0:2c:
                    62:2f:c1:60:87:ff:4c:14:21:c2:f4:50:9a:47:77:
                    49:e8:ea:02:74:2e:e6:30:b5:c5:c9:fd:ad:53:31:
                    90:26:90:de:32:e8:c4:36:da:f6:fc:f7:cc:28:01:
                    d5:71
                Exponent: 65537 (0x10001)
        X509v3 extensions:
            X509v3 Basic Constraints: 
                CA:FALSE
            X509v3 Subject Key Identifier: 
                B1:9E:38:6E:F0:6F:4A:A3:39:A4:BD:D4:F7:BF:08:09:DF:F0:51:F0
            X509v3 Authority Key Identifier: 
                keyid:AE:0E:9E:83:56:48:26:7E:CD:6C:37:F4:D1:29:CC:CC:4E:4C:05:F9
                DirName:/CN=team189-net
                serial:5E:31:C8:AA:34:12:94:17:65:48:FA:C0:69:A6:FA:7F:D3:66:83:D6
            X509v3 Extended Key Usage: 
                TLS Web Client Authentication
            X509v3 Key Usage: 
                Digital Signature
    Signature Algorithm: sha256WithRSAEncryption
    Signature Value:
        5f:75:90:86:ff:19:44:a2:0a:b4:61:c2:13:87:3a:1e:dc:8a:
        a1:4a:cf:e8:74:63:53:f6:c1:f6:95:c6:c8:16:8d:b3:a2:cd:
        ce:d7:05:1e:aa:1e:7e:02:fa:f0:d5:86:4e:f0:2b:83:ea:22:
        1d:61:c0:9f:4a:c4:95:4b:42:2f:d9:8f:39:df:76:25:68:f9:
        b9:23:c9:21:87:3e:4e:02:d3:8b:4f:59:aa:51:94:8e:93:0f:
        ae:5c:c6:02:c1:f2:d5:e9:fb:76:80:d7:ff:33:e6:a2:46:6f:
        cd:37:3f:d0:b7:de:7a:a4:b4:75:54:59:46:92:47:9b:cb:ec:
        a0:4a:34:60:b4:3a:ba:b8:e8:69:59:70:57:71:e3:ea:8a:f5:
        ea:a0:07:3d:a7:df:4d:32:dc:78:51:8c:fd:6c:58:a3:6f:e4:
        9c:10:1e:b2:cb:e4:47:78:9a:cf:55:b6:e2:97:e9:19:1e:42:
        8f:a1:bb:d1:35:65:16:5b:04:a4:f7:25:06:fd:aa:ee:d2:47:
        85:b7:4e:1e:f0:b9:b7:90:a6:68:a4:28:1d:cb:1e:04:e5:b4:
        de:44:e0:45:fc:b0:1f:85:ec:27:7d:3a:d9:92:0d:e2:c4:07:
        52:3d:76:32:12:64:b2:6f:7e:1c:c0:78:72:45:e6:2f:b4:6a:
        2c:3b:13:6c
-----BEGIN CERTIFICATE-----
MIIDXDCCAkSgAwIBAgIQGDpnm8TNHUpSmr9wbfT6gTANBgkqhkiG9w0BAQsFADAW
MRQwEgYDVQQDDAt0ZWFtMTg5LW5ldDAeFw0yMzExMDMyMDQyNDJaFw0yNjEwMTgy
MDQyNDJaMBkxFzAVBgNVBAMMDnRlYW0xODktY2xpZW50MIIBIjANBgkqhkiG9w0B
AQEFAAOCAQ8AMIIBCgKCAQEAsrSd/yNuGsSWyZ3FQciWIjSwpImGIAu2t5qO9Ayx
7zTGW7jrAVmIKRidtOr3zEoe1OUw0jDohZtd8A6a9sj4WbRAqhFXXS+AjTcISlR0
SJ61BszjXaDHyYX79uDpF35/PzkpIEFMJ/mvbp8Yci98ceTAmMa0DxdLWikPle4e
+YJ+ANHC0eHefmS6gEfEIO/Gm4mENPYCEbKwzCol7bSOqCtewLPRrN0ydsKIox5C
q85KhjNMyNZKVyBfkDMkkO4L0gCPn6FCL+mhre1PHcN2wCxiL8Fgh/9MFCHC9FCa
R3dJ6OoCdC7mMLXFyf2tUzGQJpDeMujENtr2/PfMKAHVcQIDAQABo4GiMIGfMAkG
A1UdEwQCMAAwHQYDVR0OBBYEFLGeOG7wb0qjOaS91Pe/CAnf8FHwMFEGA1UdIwRK
MEiAFK4OnoNWSCZ+zWw39NEpzMxOTAX5oRqkGDAWMRQwEgYDVQQDDAt0ZWFtMTg5
LW5ldIIUXjHIqjQSlBdlSPrAaab6f9Nmg9YwEwYDVR0lBAwwCgYIKwYBBQUHAwIw
CwYDVR0PBAQDAgeAMA0GCSqGSIb3DQEBCwUAA4IBAQBfdZCG/xlEogq0YcIThzoe
3IqhSs/odGNT9sH2lcbIFo2zos3O1wUeqh5+Avrw1YZO8CuD6iIdYcCfSsSVS0Iv
2Y8533YlaPm5I8khhz5OAtOLT1mqUZSOkw+uXMYCwfLV6ft2gNf/M+aiRm/NNz/Q
t956pLR1VFlGkkeby+ygSjRgtDq6uOhpWXBXcePqivXqoAc9p99NMtx4UYz9bFij
b+ScEB6yy+RHeJrPVbbil+kZHkKPobvRNWUWWwSk9yUG/aru0keFt04e8Lm3kKZo
pCgdyx4E5bTeROBF/LAfhewnfTrZkg3ixAdSPXYyEmSyb34cwHhyReYvtGosOxNs
-----END CERTIFICATE-----
