Certificate:
    Data:
        Version: 3 (0x2)
        Serial Number:
            1f:77:da:e0:65:b4:d4:2f:63:69:f1:7c:68:ea:2c:26
        Signature Algorithm: sha256WithRSAEncryption
        Issuer: CN=team189-net
        Validity
            Not Before: Nov  4 10:44:04 2023 GMT
            Not After : Oct 19 10:44:04 2026 GMT
        Subject: CN=team189-client
        Subject Public Key Info:
            Public Key Algorithm: rsaEncryption
                Public-Key: (2048 bit)
                Modulus:
                    00:e2:71:98:6f:8d:a3:76:d3:b8:51:4e:f5:d2:e9:
                    3c:4d:12:a0:a6:b0:90:10:4b:24:c2:6f:31:4e:a7:
                    d4:c8:34:b5:f2:af:68:9b:9f:ed:3c:58:7d:0d:6d:
                    b0:c6:a9:73:df:4f:67:ac:6a:aa:27:07:ee:e7:5d:
                    6b:37:cf:39:dd:6b:5b:d9:c3:61:41:50:45:16:fc:
                    43:88:2b:d0:1f:bd:7c:79:98:5d:1b:05:79:7f:bf:
                    2d:79:6b:6d:a5:2a:e2:f0:be:4c:73:66:c9:ea:d1:
                    c5:f8:50:d1:e4:73:ee:c0:ac:a0:ad:54:8c:bc:12:
                    bb:7b:ee:a1:d4:e9:78:d0:4a:35:df:41:3b:13:c2:
                    d6:06:04:d7:f1:62:33:fa:e8:19:16:2a:60:55:dc:
                    19:a2:c4:b7:97:8f:dc:c7:80:71:eb:ca:0f:11:8b:
                    ed:81:e9:a3:15:3a:40:f3:35:b9:c5:c3:c9:93:e6:
                    8d:13:fd:ca:61:1d:2f:1e:5e:48:7a:e4:be:ae:8c:
                    7d:54:80:f1:c4:78:fd:86:1c:80:ea:44:c0:05:62:
                    7d:e5:f9:36:47:09:d1:70:c6:1a:0a:04:9a:14:c3:
                    83:e4:45:34:e5:96:a4:fa:e9:89:34:20:2e:e3:8e:
                    bc:9e:28:75:17:f1:f0:d6:75:2c:f7:93:18:42:1b:
                    80:7b
                Exponent: 65537 (0x10001)
        X509v3 extensions:
            X509v3 Basic Constraints: 
                CA:FALSE
            X509v3 Subject Key Identifier: 
                FB:54:03:94:75:35:E0:E6:9E:4A:93:6E:D9:95:E6:C4:B7:38:FB:F7
            X509v3 Authority Key Identifier: 
                keyid:DB:02:EA:B1:00:8B:88:B7:14:10:29:A1:93:68:50:5E:3B:48:E8:B2
                DirName:/CN=team189-net
                serial:65:F0:BC:39:9D:ED:B3:11:8E:B2:37:1D:AE:EA:C3:A0:7D:E7:25:4D
            X509v3 Extended Key Usage: 
                TLS Web Client Authentication
            X509v3 Key Usage: 
                Digital Signature
    Signature Algorithm: sha256WithRSAEncryption
    Signature Value:
        01:42:1a:b4:3e:f3:f6:8a:7c:3b:ca:0e:82:c0:6d:5d:ec:e4:
        dc:2b:6f:88:7e:7d:67:d2:76:6e:f0:dd:d4:ab:66:64:d0:80:
        84:7f:4e:32:2d:22:32:97:7d:b8:1a:63:c3:1b:f9:17:8d:60:
        b8:33:b9:ee:b1:08:c5:c6:bf:ae:1c:84:94:b7:12:1c:6a:75:
        cc:16:92:8a:fe:42:c3:1a:55:4e:b5:bd:34:b3:71:35:ac:2b:
        aa:f5:22:18:02:c3:e9:fe:44:f2:ad:ec:82:16:ea:db:4d:3f:
        13:a1:84:63:bf:03:31:53:ea:e6:a7:4b:ae:94:f3:f7:cd:57:
        8c:ab:43:8f:4d:48:93:dc:e8:cb:1a:2d:70:b5:a4:15:85:c0:
        14:9d:8a:a8:ea:98:fa:72:3c:85:b6:7d:c0:47:ee:bb:4b:09:
        3b:37:ad:49:36:99:92:e6:a9:f8:5e:1a:48:a6:52:e2:39:98:
        3a:16:a9:56:bb:82:07:b2:08:bd:0a:aa:27:7a:bd:1e:d2:37:
        97:51:f1:6f:a6:4b:50:c2:1d:f0:17:78:72:5e:0a:72:1c:53:
        bb:40:ad:52:74:ed:a7:91:fe:09:b4:71:82:93:56:bb:18:cb:
        f7:f0:86:07:ad:37:63:bd:81:6b:c2:9e:4d:3f:3f:9f:96:bd:
        b7:59:9d:a0
-----BEGIN CERTIFICATE-----
MIIDXDCCAkSgAwIBAgIQH3fa4GW01C9jafF8aOosJjANBgkqhkiG9w0BAQsFADAW
MRQwEgYDVQQDDAt0ZWFtMTg5LW5ldDAeFw0yMzExMDQxMDQ0MDRaFw0yNjEwMTkx
MDQ0MDRaMBkxFzAVBgNVBAMMDnRlYW0xODktY2xpZW50MIIBIjANBgkqhkiG9w0B
AQEFAAOCAQ8AMIIBCgKCAQEA4nGYb42jdtO4UU710uk8TRKgprCQEEskwm8xTqfU
yDS18q9om5/tPFh9DW2wxqlz309nrGqqJwfu511rN8853Wtb2cNhQVBFFvxDiCvQ
H718eZhdGwV5f78teWttpSri8L5Mc2bJ6tHF+FDR5HPuwKygrVSMvBK7e+6h1Ol4
0Eo130E7E8LWBgTX8WIz+ugZFipgVdwZosS3l4/cx4Bx68oPEYvtgemjFTpA8zW5
xcPJk+aNE/3KYR0vHl5IeuS+rox9VIDxxHj9hhyA6kTABWJ95fk2RwnRcMYaCgSa
FMOD5EU05Zak+umJNCAu4468nih1F/Hw1nUs95MYQhuAewIDAQABo4GiMIGfMAkG
A1UdEwQCMAAwHQYDVR0OBBYEFPtUA5R1NeDmnkqTbtmV5sS3OPv3MFEGA1UdIwRK
MEiAFNsC6rEAi4i3FBApoZNoUF47SOiyoRqkGDAWMRQwEgYDVQQDDAt0ZWFtMTg5
LW5ldIIUZfC8OZ3tsxGOsjcdrurDoH3nJU0wEwYDVR0lBAwwCgYIKwYBBQUHAwIw
CwYDVR0PBAQDAgeAMA0GCSqGSIb3DQEBCwUAA4IBAQABQhq0PvP2inw7yg6CwG1d
7OTcK2+Ifn1n0nZu8N3Uq2Zk0ICEf04yLSIyl324GmPDG/kXjWC4M7nusQjFxr+u
HISUtxIcanXMFpKK/kLDGlVOtb00s3E1rCuq9SIYAsPp/kTyreyCFurbTT8ToYRj
vwMxU+rmp0uulPP3zVeMq0OPTUiT3OjLGi1wtaQVhcAUnYqo6pj6cjyFtn3AR+67
Swk7N61JNpmS5qn4XhpIplLiOZg6FqlWu4IHsgi9Cqoner0e0jeXUfFvpktQwh3w
F3hyXgpyHFO7QK1SdO2nkf4JtHGCk1a7GMv38IYHrTdjvYFrwp5NPz+flr23WZ2g
-----END CERTIFICATE-----
