Certificate:
    Data:
        Version: 3 (0x2)
        Serial Number:
            44:a7:67:4d:6e:b6:3f:b9:2c:14:2e:30:82:0c:e3:01
        Signature Algorithm: sha256WithRSAEncryption
        Issuer: CN=team189-net
        Validity
            Not Before: Nov  4 10:44:04 2023 GMT
            Not After : Oct 19 10:44:04 2026 GMT
        Subject: CN=team189-server
        Subject Public Key Info:
            Public Key Algorithm: rsaEncryption
                Public-Key: (2048 bit)
                Modulus:
                    00:bf:73:8e:c7:3d:f8:95:ee:da:49:17:1f:48:67:
                    16:72:df:1b:4b:a1:73:91:22:62:e0:03:c5:43:cb:
                    69:9d:25:cf:b5:66:44:05:2a:01:d4:ef:07:d2:d8:
                    74:4a:86:e6:71:85:33:e0:77:66:40:fb:92:19:aa:
                    1d:6c:be:4b:7e:e6:9b:b9:65:68:5c:7c:09:f5:32:
                    33:ec:01:d5:9c:fc:77:35:fc:b5:1a:98:84:6d:e6:
                    56:31:97:de:1d:09:44:52:bd:13:73:f3:99:02:20:
                    1b:41:40:6f:73:71:36:a6:cb:c4:c8:c4:53:76:a9:
                    45:86:a1:3c:56:17:2f:35:38:a0:82:06:92:5b:9c:
                    28:54:92:a8:38:2f:d2:52:80:12:92:09:a3:31:87:
                    81:1f:fc:7b:15:38:d9:70:01:6d:16:d7:a7:7a:98:
                    3e:88:45:da:92:e6:10:5c:ed:d7:c3:22:8a:13:76:
                    25:64:52:71:e9:83:12:e0:4f:76:7f:10:7d:d9:8a:
                    8e:7a:2f:4b:ef:23:14:b5:ac:4e:65:4c:e7:65:db:
                    fa:22:b3:52:aa:c8:2e:f9:7e:14:3d:dc:2c:33:1d:
                    37:b5:f6:6e:70:17:07:be:5a:75:45:45:f6:b3:45:
                    17:09:eb:fb:d8:41:2d:5c:72:3d:b2:30:32:7a:83:
                    a8:df
                Exponent: 65537 (0x10001)
        X509v3 extensions:
            X509v3 Basic Constraints: 
                CA:FALSE
            X509v3 Subject Key Identifier: 
                03:9A:F9:67:4C:84:3E:BB:1F:E6:9C:8A:8F:6F:4A:59:91:AF:C3:74
            X509v3 Authority Key Identifier: 
                keyid:DB:02:EA:B1:00:8B:88:B7:14:10:29:A1:93:68:50:5E:3B:48:E8:B2
                DirName:/CN=team189-net
                serial:65:F0:BC:39:9D:ED:B3:11:8E:B2:37:1D:AE:EA:C3:A0:7D:E7:25:4D
            X509v3 Extended Key Usage: 
                TLS Web Server Authentication
            X509v3 Key Usage: 
                Digital Signature, Key Encipherment
            X509v3 Subject Alternative Name: 
                DNS:team189-server
    Signature Algorithm: sha256WithRSAEncryption
    Signature Value:
        13:c9:ca:ff:2c:31:c2:c4:a7:6c:26:78:33:3c:c0:74:e6:a9:
        54:e2:de:58:6e:66:9d:72:ba:22:bf:95:50:2f:ac:8b:d6:78:
        32:9e:77:ef:15:7b:0e:df:f4:4b:8b:aa:a0:a2:98:20:3d:33:
        4e:e2:45:0e:a1:40:7c:42:91:17:c5:47:cf:94:64:07:ca:3b:
        08:af:a6:b0:dd:db:78:f3:fb:7e:69:55:2a:7b:39:f2:af:c6:
        9c:e8:41:c0:38:49:e2:d3:9f:44:7d:bc:d6:f3:46:a3:0d:be:
        f5:7d:85:c9:7e:36:6d:f7:78:4c:75:f9:90:6d:1e:86:e6:4e:
        61:62:3f:a1:2b:04:ed:0f:ca:ca:49:c6:b7:db:73:dc:71:2f:
        79:41:80:94:7f:5b:91:17:14:a4:38:7a:07:2e:f4:c0:37:55:
        86:6f:f4:fb:c8:7b:d4:95:a5:fe:4f:d5:33:d3:e4:d2:59:6c:
        a1:a8:9a:a2:8e:af:29:01:f1:dd:d3:9d:9c:3b:24:2e:84:63:
        fd:3b:e8:da:29:18:22:b2:45:11:71:a5:c6:17:96:b8:07:40:
        66:f1:8e:e6:21:d6:34:72:88:9c:50:39:4c:9e:e3:4d:6e:fd:
        82:4d:cf:f6:84:27:a5:d2:81:77:72:05:d7:ae:3a:ab:33:5c:
        92:8f:e3:af
-----BEGIN CERTIFICATE-----
MIIDdzCCAl+gAwIBAgIQRKdnTW62P7ksFC4wggzjATANBgkqhkiG9w0BAQsFADAW
MRQwEgYDVQQDDAt0ZWFtMTg5LW5ldDAeFw0yMzExMDQxMDQ0MDRaFw0yNjEwMTkx
MDQ0MDRaMBkxFzAVBgNVBAMMDnRlYW0xODktc2VydmVyMIIBIjANBgkqhkiG9w0B
AQEFAAOCAQ8AMIIBCgKCAQEAv3OOxz34le7aSRcfSGcWct8bS6FzkSJi4APFQ8tp
nSXPtWZEBSoB1O8H0th0SobmcYUz4HdmQPuSGaodbL5LfuabuWVoXHwJ9TIz7AHV
nPx3Nfy1GpiEbeZWMZfeHQlEUr0Tc/OZAiAbQUBvc3E2psvEyMRTdqlFhqE8Vhcv
NTigggaSW5woVJKoOC/SUoASkgmjMYeBH/x7FTjZcAFtFtenepg+iEXakuYQXO3X
wyKKE3YlZFJx6YMS4E92fxB92YqOei9L7yMUtaxOZUznZdv6IrNSqsgu+X4UPdws
Mx03tfZucBcHvlp1RUX2s0UXCev72EEtXHI9sjAyeoOo3wIDAQABo4G9MIG6MAkG
A1UdEwQCMAAwHQYDVR0OBBYEFAOa+WdMhD67H+acio9vSlmRr8N0MFEGA1UdIwRK
MEiAFNsC6rEAi4i3FBApoZNoUF47SOiyoRqkGDAWMRQwEgYDVQQDDAt0ZWFtMTg5
LW5ldIIUZfC8OZ3tsxGOsjcdrurDoH3nJU0wEwYDVR0lBAwwCgYIKwYBBQUHAwEw
CwYDVR0PBAQDAgWgMBkGA1UdEQQSMBCCDnRlYW0xODktc2VydmVyMA0GCSqGSIb3
DQEBCwUAA4IBAQATycr/LDHCxKdsJngzPMB05qlU4t5Ybmadcroiv5VQL6yL1ngy
nnfvFXsO3/RLi6qgopggPTNO4kUOoUB8QpEXxUfPlGQHyjsIr6aw3dt48/t+aVUq
eznyr8ac6EHAOEni059EfbzW80ajDb71fYXJfjZt93hMdfmQbR6G5k5hYj+hKwTt
D8rKSca323PccS95QYCUf1uRFxSkOHoHLvTAN1WGb/T7yHvUlaX+T9Uz0+TSWWyh
qJqijq8pAfHd052cOyQuhGP9O+jaKRgiskURcaXGF5a4B0Bm8Y7mIdY0coicUDlM
nuNNbv2CTc/2hCel0oF3cgXXrjqrM1ySj+Ov
-----END CERTIFICATE-----
