Certificate:
    Data:
        Version: 3 (0x2)
        Serial Number:
            8d:77:80:1c:1b:cf:7b:b0:64:15:6c:8f:5f:ff:75:c3
        Signature Algorithm: sha256WithRSAEncryption
        Issuer: CN=team189-net
        Validity
            Not Before: Nov  4 11:31:21 2023 GMT
            Not After : Oct 19 11:31:21 2026 GMT
        Subject: CN=team189-server
        Subject Public Key Info:
            Public Key Algorithm: rsaEncryption
                Public-Key: (2048 bit)
                Modulus:
                    00:c8:b3:0d:1e:4e:c0:b4:9b:c7:61:35:3f:d3:53:
                    ed:ca:df:fd:4e:fb:33:59:f1:e5:38:df:65:08:03:
                    c4:57:1b:8e:f8:d6:25:db:76:18:0c:8e:e4:2f:66:
                    68:cc:6e:20:0b:e5:3c:33:61:13:4e:19:59:b3:13:
                    aa:3c:5a:64:57:ad:79:63:14:0c:4e:04:21:1b:a9:
                    da:e5:02:ec:8b:23:37:6a:e1:7e:23:7d:4c:f4:29:
                    71:89:93:31:44:91:2b:26:5d:2d:72:0f:0d:c4:87:
                    70:0c:ff:56:64:e9:bb:62:6b:0f:09:ea:e7:66:29:
                    39:05:68:87:71:b7:05:8a:f4:61:77:65:15:8a:6f:
                    8b:63:08:80:76:ab:e3:94:e0:6a:99:6c:1c:fc:26:
                    17:86:17:aa:58:ee:5e:74:7c:d4:72:41:ff:d3:47:
                    f8:98:80:19:c0:ff:a3:27:45:ed:8d:6d:de:11:6d:
                    03:ab:6f:96:83:cc:a1:22:a5:3c:bd:ce:87:63:8d:
                    4a:60:82:d3:72:3e:71:52:b9:02:61:ac:a3:73:dc:
                    70:9e:10:ba:a1:f4:3a:95:ca:72:b7:3d:f2:19:4f:
                    eb:55:2f:fe:30:8e:3a:cc:86:3e:ca:c2:aa:ea:b5:
                    7b:e9:85:1d:fc:e0:08:b3:63:a5:65:5c:49:9b:eb:
                    15:d3
                Exponent: 65537 (0x10001)
        X509v3 extensions:
            X509v3 Basic Constraints: 
                CA:FALSE
            X509v3 Subject Key Identifier: 
                BD:F7:A3:B2:F2:64:E0:7F:0C:88:25:44:BA:16:62:92:05:92:3F:36
            X509v3 Authority Key Identifier: 
                keyid:E7:B5:35:4E:E1:8E:3A:39:33:3C:AA:E3:5C:27:A6:85:65:CB:17:3A
                DirName:/CN=team189-net
                serial:55:CD:CE:35:42:D3:9E:8F:D3:71:6F:D4:5B:FD:5B:FB:2F:4D:11:A2
            X509v3 Extended Key Usage: 
                TLS Web Server Authentication
            X509v3 Key Usage: 
                Digital Signature, Key Encipherment
            X509v3 Subject Alternative Name: 
                DNS:team189-server
    Signature Algorithm: sha256WithRSAEncryption
    Signature Value:
        eb:b1:94:62:1c:c4:e0:48:5a:8b:3c:3c:3c:18:42:ec:24:57:
        4e:31:0e:4b:b4:6e:54:5d:e7:7c:bf:58:47:2b:4b:02:81:a8:
        12:f8:d6:92:44:64:d1:bf:3a:af:80:7c:e9:2f:18:68:ae:25:
        cc:13:85:30:f5:f6:1d:81:e4:69:96:7d:96:5a:e2:57:62:bb:
        eb:dd:9d:50:5a:76:5a:dc:34:1f:5c:a3:2f:3c:2b:83:15:03:
        97:7b:6e:8a:93:ce:05:19:10:be:a6:97:0f:36:a9:6c:b8:db:
        d1:fb:19:cb:60:9c:6b:ef:bc:07:4e:a6:79:c7:e4:77:40:5e:
        f7:1b:11:29:a9:fb:c0:bf:ae:9f:23:63:96:dc:f8:17:74:69:
        df:a3:9a:00:05:80:46:e6:7b:08:cc:4c:53:42:09:62:02:52:
        27:e9:5b:f6:df:e9:e2:02:1b:9a:46:2c:43:f2:bb:99:c1:6d:
        ac:c4:47:60:c3:75:00:5d:ee:8c:35:f7:19:6b:02:5b:6f:48:
        b9:bc:86:6a:2a:36:32:da:f2:43:f1:08:0f:92:20:83:fc:1b:
        73:be:f4:3d:92:00:41:67:1f:09:4e:c0:9d:86:c2:9e:2d:b9:
        1b:40:d4:4b:82:10:37:4b:7d:37:7e:d4:63:99:2c:46:32:8d:
        e4:81:ef:72
-----BEGIN CERTIFICATE-----
MIIDeDCCAmCgAwIBAgIRAI13gBwbz3uwZBVsj1//dcMwDQYJKoZIhvcNAQELBQAw
FjEUMBIGA1UEAwwLdGVhbTE4OS1uZXQwHhcNMjMxMTA0MTEzMTIxWhcNMjYxMDE5
MTEzMTIxWjAZMRcwFQYDVQQDDA50ZWFtMTg5LXNlcnZlcjCCASIwDQYJKoZIhvcN
AQEBBQADggEPADCCAQoCggEBAMizDR5OwLSbx2E1P9NT7crf/U77M1nx5TjfZQgD
xFcbjvjWJdt2GAyO5C9maMxuIAvlPDNhE04ZWbMTqjxaZFeteWMUDE4EIRup2uUC
7IsjN2rhfiN9TPQpcYmTMUSRKyZdLXIPDcSHcAz/VmTpu2JrDwnq52YpOQVoh3G3
BYr0YXdlFYpvi2MIgHar45TgaplsHPwmF4YXqljuXnR81HJB/9NH+JiAGcD/oydF
7Y1t3hFtA6tvloPMoSKlPL3Oh2ONSmCC03I+cVK5AmGso3PccJ4QuqH0OpXKcrc9
8hlP61Uv/jCOOsyGPsrCquq1e+mFHfzgCLNjpWVcSZvrFdMCAwEAAaOBvTCBujAJ
BgNVHRMEAjAAMB0GA1UdDgQWBBS996Oy8mTgfwyIJUS6FmKSBZI/NjBRBgNVHSME
SjBIgBTntTVO4Y46OTM8quNcJ6aFZcsXOqEapBgwFjEUMBIGA1UEAwwLdGVhbTE4
OS1uZXSCFFXNzjVC056P03Fv1Fv9W/svTRGiMBMGA1UdJQQMMAoGCCsGAQUFBwMB
MAsGA1UdDwQEAwIFoDAZBgNVHREEEjAQgg50ZWFtMTg5LXNlcnZlcjANBgkqhkiG
9w0BAQsFAAOCAQEA67GUYhzE4Ehaizw8PBhC7CRXTjEOS7RuVF3nfL9YRytLAoGo
EvjWkkRk0b86r4B86S8YaK4lzBOFMPX2HYHkaZZ9llriV2K7692dUFp2Wtw0H1yj
LzwrgxUDl3tuipPOBRkQvqaXDzapbLjb0fsZy2Cca++8B06mecfkd0Be9xsRKan7
wL+unyNjltz4F3Rp36OaAAWARuZ7CMxMU0IJYgJSJ+lb9t/p4gIbmkYsQ/K7mcFt
rMRHYMN1AF3ujDX3GWsCW29IubyGaio2MtryQ/EID5Igg/wbc770PZIAQWcfCU7A
nYbCni25G0DUS4IQN0t9N37UY5ksRjKN5IHvcg==
-----END CERTIFICATE-----
