Certificate:
    Data:
        Version: 3 (0x2)
        Serial Number:
            30:62:58:b1:80:ce:bb:3d:6e:22:f9:f7:d7:49:ba:5f
        Signature Algorithm: sha256WithRSAEncryption
        Issuer: CN=team94-net
        Validity
            Not Before: Nov  4 11:29:15 2023 GMT
            Not After : Oct 19 11:29:15 2026 GMT
        Subject: CN=team94-client
        Subject Public Key Info:
            Public Key Algorithm: rsaEncryption
                Public-Key: (2048 bit)
                Modulus:
                    00:a6:89:b2:9c:fb:dc:28:26:33:d1:0f:62:d8:8e:
                    60:7e:98:cb:28:2c:29:17:e9:d1:d5:5e:62:5f:1e:
                    e9:c6:7c:6b:bb:7a:f4:17:bf:db:ca:63:58:e6:01:
                    97:08:96:68:5a:10:4a:cf:6d:27:68:d7:32:01:96:
                    df:7c:10:15:1b:62:3d:1a:42:a3:5c:cc:10:32:c3:
                    7e:0f:92:3e:20:58:42:61:7b:df:61:dc:7c:21:7d:
                    fc:bd:54:2e:60:d3:f4:f7:0b:ff:8c:fb:ee:72:78:
                    cc:e2:91:f9:ec:6c:30:41:be:be:25:6e:c4:15:3e:
                    27:12:a0:9b:ac:6d:eb:d4:bc:bf:48:d2:a0:06:44:
                    49:29:2b:ef:f0:ec:9e:d5:43:cb:ce:13:25:7e:b1:
                    51:da:9d:19:86:e0:9f:43:5d:5a:bb:36:d6:80:02:
                    ed:0c:da:45:57:c1:36:ed:3f:99:d4:c8:74:8d:c8:
                    1d:51:62:38:fe:bd:6c:09:e6:cc:d1:a1:a8:2f:60:
                    de:fb:22:97:3e:89:e2:d0:6d:f2:60:4a:d6:fc:86:
                    72:ef:d3:2d:d5:31:c7:51:20:0d:4a:6a:28:3d:09:
                    f2:84:9a:fc:de:5a:96:a6:ec:c4:af:77:fc:99:75:
                    fc:4b:31:ca:90:98:e4:d1:0d:bf:70:cb:63:da:0b:
                    7d:e9
                Exponent: 65537 (0x10001)
        X509v3 extensions:
            X509v3 Basic Constraints: 
                CA:FALSE
            X509v3 Subject Key Identifier: 
                74:90:7B:59:33:4A:94:0C:98:07:A4:85:92:5E:36:D0:F6:4B:23:93
            X509v3 Authority Key Identifier: 
                keyid:0B:30:DF:C2:76:E2:EC:36:79:F0:72:E7:67:23:06:CA:21:82:E8:EE
                DirName:/CN=team94-net
                serial:51:56:4D:4B:F4:ED:22:0D:1B:C1:4F:DF:59:B4:E2:F9:68:CB:68:4C
            X509v3 Extended Key Usage: 
                TLS Web Client Authentication
            X509v3 Key Usage: 
                Digital Signature
    Signature Algorithm: sha256WithRSAEncryption
    Signature Value:
        24:6d:0b:f1:6a:2b:75:11:b6:78:63:32:86:c2:08:ca:93:fb:
        44:5f:4d:6a:11:38:6f:44:27:72:20:d3:48:5f:a3:41:94:84:
        cb:82:b9:9e:eb:5f:81:7f:52:ed:d1:a5:5d:7a:98:ff:79:78:
        91:ce:c4:d7:c7:7a:d7:4d:ec:f2:21:52:ea:ea:6c:86:aa:ea:
        b7:07:d1:91:46:cb:ba:bf:8c:f0:23:90:31:8b:12:31:9a:08:
        85:b2:1e:c8:1c:e5:a8:ca:fb:04:3c:18:55:e1:80:14:d1:ed:
        c0:a4:9f:24:de:56:d9:ea:93:4f:e3:7e:45:19:80:d2:92:ec:
        c5:52:7c:9e:d4:59:8c:ec:97:ad:50:16:26:6e:01:a2:9e:a9:
        bd:88:dc:34:eb:3d:ef:03:3e:2f:07:8b:cd:c3:e4:3a:f1:b1:
        95:45:db:02:61:3e:b3:42:ef:f0:71:f8:67:6c:89:eb:69:db:
        14:e1:c6:d5:2d:f7:0b:40:0d:2e:c1:b2:a3:9b:3a:11:4d:c4:
        0f:5e:19:f9:a8:38:17:2b:50:ba:d8:94:6a:a0:da:c6:48:99:
        6f:03:5a:15:17:10:d4:48:00:36:e4:fa:b9:3c:7e:a2:24:5f:
        18:71:fe:0c:5f:43:b0:f3:c8:7b:3c:13:59:d7:2a:bc:45:66:
        c1:9f:4c:1a
-----BEGIN CERTIFICATE-----
MIIDWTCCAkGgAwIBAgIQMGJYsYDOuz1uIvn310m6XzANBgkqhkiG9w0BAQsFADAV
MRMwEQYDVQQDDAp0ZWFtOTQtbmV0MB4XDTIzMTEwNDExMjkxNVoXDTI2MTAxOTEx
MjkxNVowGDEWMBQGA1UEAwwNdGVhbTk0LWNsaWVudDCCASIwDQYJKoZIhvcNAQEB
BQADggEPADCCAQoCggEBAKaJspz73CgmM9EPYtiOYH6YyygsKRfp0dVeYl8e6cZ8
a7t69Be/28pjWOYBlwiWaFoQSs9tJ2jXMgGW33wQFRtiPRpCo1zMEDLDfg+SPiBY
QmF732HcfCF9/L1ULmDT9PcL/4z77nJ4zOKR+exsMEG+viVuxBU+JxKgm6xt69S8
v0jSoAZESSkr7/DsntVDy84TJX6xUdqdGYbgn0NdWrs21oAC7QzaRVfBNu0/mdTI
dI3IHVFiOP69bAnmzNGhqC9g3vsilz6J4tBt8mBK1vyGcu/TLdUxx1EgDUpqKD0J
8oSa/N5alqbsxK93/Jl1/EsxypCY5NENv3DLY9oLfekCAwEAAaOBoTCBnjAJBgNV
HRMEAjAAMB0GA1UdDgQWBBR0kHtZM0qUDJgHpIWSXjbQ9ksjkzBQBgNVHSMESTBH
gBQLMN/CduLsNnnwcudnIwbKIYLo7qEZpBcwFTETMBEGA1UEAwwKdGVhbTk0LW5l
dIIUUVZNS/TtIg0bwU/fWbTi+WjLaEwwEwYDVR0lBAwwCgYIKwYBBQUHAwIwCwYD
VR0PBAQDAgeAMA0GCSqGSIb3DQEBCwUAA4IBAQAkbQvxait1EbZ4YzKGwgjKk/tE
X01qEThvRCdyINNIX6NBlITLgrme61+Bf1Lt0aVdepj/eXiRzsTXx3rXTezyIVLq
6myGquq3B9GRRsu6v4zwI5AxixIxmgiFsh7IHOWoyvsEPBhV4YAU0e3ApJ8k3lbZ
6pNP435FGYDSkuzFUnye1FmM7JetUBYmbgGinqm9iNw06z3vAz4vB4vNw+Q68bGV
RdsCYT6zQu/wcfhnbInradsU4cbVLfcLQA0uwbKjmzoRTcQPXhn5qDgXK1C62JRq
oNrGSJlvA1oVFxDUSAA25Pq5PH6iJF8Ycf4MX0Ow88h7PBNZ1yq8RWbBn0wa
-----END CERTIFICATE-----
