Certificate:
    Data:
        Version: 3 (0x2)
        Serial Number:
            64:74:d8:cd:e8:05:9e:4b:09:24:5d:89:22:b5:65:c9
        Signature Algorithm: sha256WithRSAEncryption
        Issuer: CN=team94-net
        Validity
            Not Before: Nov  4 10:42:09 2023 GMT
            Not After : Oct 19 10:42:09 2026 GMT
        Subject: CN=team94-server
        Subject Public Key Info:
            Public Key Algorithm: rsaEncryption
                Public-Key: (2048 bit)
                Modulus:
                    00:a0:91:ff:31:eb:7e:88:b8:e7:20:b6:99:9f:14:
                    5d:9b:ce:93:32:fa:bf:51:86:29:0c:c5:31:fd:29:
                    49:1e:73:97:d9:c2:17:85:de:e9:6b:b2:a0:26:3b:
                    cc:43:42:88:f3:9c:c2:c9:24:76:98:76:5b:25:b0:
                    5e:d8:4c:7f:5a:c6:50:84:dc:2a:ca:6a:ff:90:13:
                    04:6a:81:f8:c8:ea:7b:a6:97:40:33:dd:2f:22:f5:
                    9f:a9:44:13:5a:26:3f:25:39:7d:e3:94:6f:49:76:
                    34:87:a3:35:b1:58:4f:cf:16:32:ea:6b:a9:13:9e:
                    6d:04:9c:c5:b3:e4:0d:71:10:1a:80:ee:9b:65:77:
                    05:c5:cf:e8:9f:0b:df:72:1e:c6:41:cb:a6:3a:75:
                    cb:fc:02:72:16:a9:73:76:ae:22:18:65:f3:07:47:
                    1f:99:d0:79:c6:bc:4d:15:f4:cf:86:b1:d7:03:c5:
                    b0:73:04:cb:a3:e3:33:b0:b5:5d:63:0e:d5:2d:49:
                    8c:79:a9:17:2d:94:10:77:7c:96:23:8b:48:39:d4:
                    b9:c9:99:c7:2d:d7:20:ed:cb:9c:4d:37:d0:5d:67:
                    58:7d:a9:a4:a8:4d:85:b7:db:db:0e:8c:8f:f5:1c:
                    fa:53:d7:c5:b2:2c:ba:d5:64:08:7f:e2:43:f5:69:
                    01:43
                Exponent: 65537 (0x10001)
        X509v3 extensions:
            X509v3 Basic Constraints: 
                CA:FALSE
            X509v3 Subject Key Identifier: 
                28:48:65:BD:50:A7:D9:F6:D3:B2:3F:F2:66:DA:5A:E2:0E:75:0B:C5
            X509v3 Authority Key Identifier: 
                keyid:FD:13:16:A5:C9:9F:32:2D:89:3C:BE:86:1C:FD:11:E1:69:CB:C9:E9
                DirName:/CN=team94-net
                serial:22:8E:27:8D:35:C4:F1:F9:BA:9E:14:A3:B7:B2:E2:85:BA:9A:51:FA
            X509v3 Extended Key Usage: 
                TLS Web Server Authentication
            X509v3 Key Usage: 
                Digital Signature, Key Encipherment
            X509v3 Subject Alternative Name: 
                DNS:team94-server
    Signature Algorithm: sha256WithRSAEncryption
    Signature Value:
        bc:6b:fc:6f:0b:80:73:5c:6d:0b:a9:b9:95:30:06:42:76:aa:
        12:64:d7:b5:56:77:4a:65:a3:f5:d2:42:97:ca:51:5b:ee:69:
        ae:7b:f7:54:cd:26:52:2f:c2:88:62:87:71:be:5b:0e:59:fc:
        2d:5d:9e:f9:9b:b6:59:8a:89:7a:b5:1f:36:8b:84:7a:02:79:
        77:f8:07:2d:26:57:0c:f2:1f:fd:54:15:19:33:05:93:0d:75:
        3f:0b:fe:84:15:29:a3:44:fd:51:65:32:20:23:04:6e:a0:eb:
        24:f9:52:52:ec:63:da:42:2c:d0:97:36:21:88:12:5a:3b:c1:
        ab:23:46:b6:61:f1:de:ca:2c:71:cb:a2:20:d5:61:95:a6:ae:
        cc:c2:81:be:f8:5d:05:a9:5b:11:4d:9e:40:92:c2:b5:75:2c:
        4f:39:d7:8a:6a:8b:52:54:8d:a7:86:41:47:66:9e:59:3f:ef:
        7f:1f:95:8b:00:89:87:a9:66:ee:f4:a4:11:c0:48:a8:58:f4:
        52:a1:e6:7f:29:b5:25:16:3a:af:d2:e2:48:22:47:02:bc:7b:
        87:4a:ae:e5:18:ce:72:4f:5d:2b:e3:ef:67:1a:eb:66:35:88:
        be:5b:b7:24:c8:2c:cf:3f:92:f8:56:63:59:89:78:f6:69:bc:
        eb:ba:be:d7
-----BEGIN CERTIFICATE-----
MIIDczCCAlugAwIBAgIQZHTYzegFnksJJF2JIrVlyTANBgkqhkiG9w0BAQsFADAV
MRMwEQYDVQQDDAp0ZWFtOTQtbmV0MB4XDTIzMTEwNDEwNDIwOVoXDTI2MTAxOTEw
NDIwOVowGDEWMBQGA1UEAwwNdGVhbTk0LXNlcnZlcjCCASIwDQYJKoZIhvcNAQEB
BQADggEPADCCAQoCggEBAKCR/zHrfoi45yC2mZ8UXZvOkzL6v1GGKQzFMf0pSR5z
l9nCF4Xe6WuyoCY7zENCiPOcwskkdph2WyWwXthMf1rGUITcKspq/5ATBGqB+Mjq
e6aXQDPdLyL1n6lEE1omPyU5feOUb0l2NIejNbFYT88WMuprqROebQScxbPkDXEQ
GoDum2V3BcXP6J8L33IexkHLpjp1y/wCchapc3auIhhl8wdHH5nQeca8TRX0z4ax
1wPFsHMEy6PjM7C1XWMO1S1JjHmpFy2UEHd8liOLSDnUucmZxy3XIO3LnE030F1n
WH2ppKhNhbfb2w6Mj/Uc+lPXxbIsutVkCH/iQ/VpAUMCAwEAAaOBuzCBuDAJBgNV
HRMEAjAAMB0GA1UdDgQWBBQoSGW9UKfZ9tOyP/Jm2lriDnULxTBQBgNVHSMESTBH
gBT9ExalyZ8yLYk8voYc/RHhacvJ6aEZpBcwFTETMBEGA1UEAwwKdGVhbTk0LW5l
dIIUIo4njTXE8fm6nhSjt7LihbqaUfowEwYDVR0lBAwwCgYIKwYBBQUHAwEwCwYD
VR0PBAQDAgWgMBgGA1UdEQQRMA+CDXRlYW05NC1zZXJ2ZXIwDQYJKoZIhvcNAQEL
BQADggEBALxr/G8LgHNcbQupuZUwBkJ2qhJk17VWd0plo/XSQpfKUVvuaa5791TN
JlIvwohih3G+Ww5Z/C1dnvmbtlmKiXq1HzaLhHoCeXf4By0mVwzyH/1UFRkzBZMN
dT8L/oQVKaNE/VFlMiAjBG6g6yT5UlLsY9pCLNCXNiGIElo7wasjRrZh8d7KLHHL
oiDVYZWmrszCgb74XQWpWxFNnkCSwrV1LE8514pqi1JUjaeGQUdmnlk/738flYsA
iYepZu70pBHASKhY9FKh5n8ptSUWOq/S4kgiRwK8e4dKruUYznJPXSvj72ca62Y1
iL5btyTILM8/kvhWY1mJePZpvOu6vtc=
-----END CERTIFICATE-----
