Certificate:
    Data:
        Version: 3 (0x2)
        Serial Number:
            84:8c:af:38:f4:20:37:c9:a8:8e:09:0f:87:0a:02:1c
        Signature Algorithm: sha256WithRSAEncryption
        Issuer: CN=team94-net
        Validity
            Not Before: Nov  4 10:42:09 2023 GMT
            Not After : Oct 19 10:42:09 2026 GMT
        Subject: CN=team94-client
        Subject Public Key Info:
            Public Key Algorithm: rsaEncryption
                Public-Key: (2048 bit)
                Modulus:
                    00:c3:cc:9b:e7:75:56:5d:c7:98:47:a8:2a:ca:a1:
                    4d:47:60:7e:3a:07:a4:02:ab:aa:29:f4:5d:e6:9d:
                    c9:00:be:0f:d6:9c:d4:88:ac:4a:97:8f:fb:11:a9:
                    56:50:4d:4a:24:7b:22:19:da:9d:e6:6c:c5:e7:46:
                    66:85:51:26:4c:6b:10:f0:61:75:ed:41:49:64:e6:
                    91:c2:cb:8f:95:0e:db:28:ce:4c:6a:b8:ef:13:10:
                    75:62:03:56:25:bf:48:76:a5:65:10:c7:3d:b5:e6:
                    76:7b:2f:ae:2d:8a:60:7b:25:4e:17:dc:5e:c8:02:
                    84:d5:7b:24:c2:c0:8d:d4:fc:90:85:1a:fc:69:3e:
                    e4:11:9f:83:bd:b8:7f:9d:c9:61:4c:2b:fa:e4:6c:
                    59:7e:0f:72:24:ca:70:d6:da:17:67:39:09:2b:8f:
                    43:88:93:eb:3d:4a:bc:5f:fb:b9:e0:13:53:1c:d2:
                    81:a3:34:5e:78:86:f7:18:5e:bf:31:72:3b:e7:a3:
                    e3:da:cb:a6:5f:cb:a7:6b:6f:92:82:bc:ad:b8:6e:
                    c8:a3:31:bc:c8:32:f3:3a:79:dc:f0:e3:37:59:88:
                    69:35:d6:39:79:a3:52:9b:0d:e7:94:93:f4:60:83:
                    fe:f1:a6:16:64:2a:9d:e7:b9:b6:b4:c0:10:0b:4b:
                    1e:c5
                Exponent: 65537 (0x10001)
        X509v3 extensions:
            X509v3 Basic Constraints: 
                CA:FALSE
            X509v3 Subject Key Identifier: 
                26:3D:61:56:7E:B7:BD:66:98:DE:D3:29:43:0D:EA:38:3E:FA:33:D3
            X509v3 Authority Key Identifier: 
                keyid:FD:13:16:A5:C9:9F:32:2D:89:3C:BE:86:1C:FD:11:E1:69:CB:C9:E9
                DirName:/CN=team94-net
                serial:22:8E:27:8D:35:C4:F1:F9:BA:9E:14:A3:B7:B2:E2:85:BA:9A:51:FA
            X509v3 Extended Key Usage: 
                TLS Web Client Authentication
            X509v3 Key Usage: 
                Digital Signature
    Signature Algorithm: sha256WithRSAEncryption
    Signature Value:
        00:72:38:0d:d0:81:9b:0e:86:11:15:fa:76:57:bc:71:97:4d:
        62:da:34:80:e4:45:3c:4d:03:ac:24:5e:be:22:ba:bb:a1:fa:
        9e:b4:7f:e5:31:30:bf:51:a5:f0:c3:08:ed:de:6e:02:15:62:
        e7:a2:fe:76:78:9e:ec:ca:e7:00:7e:7b:ec:e6:31:25:38:5d:
        2a:b5:aa:6f:5a:39:f4:1f:83:0a:a3:76:22:d7:03:0f:d0:f4:
        cf:8a:24:c9:f3:10:b6:a4:e6:07:f8:3c:25:e6:bd:1c:e8:2f:
        76:cc:83:08:e6:03:d4:c4:87:7b:8b:35:8c:d7:a1:69:8c:b8:
        59:b9:b2:87:87:fa:f0:bf:15:3b:1d:bd:58:39:b7:36:54:f1:
        2c:a1:49:bd:78:c2:d8:b7:57:e3:8b:16:a3:00:6a:7c:2c:20:
        31:23:6d:5c:68:9b:d5:19:cb:15:7a:ab:91:60:26:f1:76:c0:
        df:48:f0:10:f9:bf:eb:bf:8f:54:77:b7:91:c8:8f:af:6c:b8:
        dd:16:1f:58:f9:a1:b0:53:64:1d:fc:1e:de:ff:d8:5a:fa:aa:
        ac:8c:5d:76:7b:81:87:19:4e:2d:14:5e:ed:c8:f4:3b:e6:c1:
        ab:04:2f:40:c5:53:1b:21:cd:44:6d:76:dd:47:6f:c6:24:59:
        d6:91:0d:ca
-----BEGIN CERTIFICATE-----
MIIDWjCCAkKgAwIBAgIRAISMrzj0IDfJqI4JD4cKAhwwDQYJKoZIhvcNAQELBQAw
FTETMBEGA1UEAwwKdGVhbTk0LW5ldDAeFw0yMzExMDQxMDQyMDlaFw0yNjEwMTkx
MDQyMDlaMBgxFjAUBgNVBAMMDXRlYW05NC1jbGllbnQwggEiMA0GCSqGSIb3DQEB
AQUAA4IBDwAwggEKAoIBAQDDzJvndVZdx5hHqCrKoU1HYH46B6QCq6op9F3mnckA
vg/WnNSIrEqXj/sRqVZQTUokeyIZ2p3mbMXnRmaFUSZMaxDwYXXtQUlk5pHCy4+V
DtsozkxquO8TEHViA1Ylv0h2pWUQxz215nZ7L64timB7JU4X3F7IAoTVeyTCwI3U
/JCFGvxpPuQRn4O9uH+dyWFMK/rkbFl+D3IkynDW2hdnOQkrj0OIk+s9Srxf+7ng
E1Mc0oGjNF54hvcYXr8xcjvno+Pay6Zfy6drb5KCvK24bsijMbzIMvM6edzw4zdZ
iGk11jl5o1KbDeeUk/Rgg/7xphZkKp3nuba0wBALSx7FAgMBAAGjgaEwgZ4wCQYD
VR0TBAIwADAdBgNVHQ4EFgQUJj1hVn63vWaY3tMpQw3qOD76M9MwUAYDVR0jBEkw
R4AU/RMWpcmfMi2JPL6GHP0R4WnLyemhGaQXMBUxEzARBgNVBAMMCnRlYW05NC1u
ZXSCFCKOJ401xPH5up4Uo7ey4oW6mlH6MBMGA1UdJQQMMAoGCCsGAQUFBwMCMAsG
A1UdDwQEAwIHgDANBgkqhkiG9w0BAQsFAAOCAQEAAHI4DdCBmw6GERX6dle8cZdN
Yto0gORFPE0DrCReviK6u6H6nrR/5TEwv1Gl8MMI7d5uAhVi56L+dnie7MrnAH57
7OYxJThdKrWqb1o59B+DCqN2ItcDD9D0z4okyfMQtqTmB/g8Jea9HOgvdsyDCOYD
1MSHe4s1jNehaYy4Wbmyh4f68L8VOx29WDm3NlTxLKFJvXjC2LdX44sWowBqfCwg
MSNtXGib1RnLFXqrkWAm8XbA30jwEPm/67+PVHe3kciPr2y43RYfWPmhsFNkHfwe
3v/YWvqqrIxddnuBhxlOLRRe7cj0O+bBqwQvQMVTGyHNRG123UdvxiRZ1pENyg==
-----END CERTIFICATE-----
