Certificate:
    Data:
        Version: 3 (0x2)
        Serial Number:
            a1:2b:c8:21:53:05:95:f8:e8:18:ef:cf:dc:72:f6:02
        Signature Algorithm: sha256WithRSAEncryption
        Issuer: CN=team254-net
        Validity
            Not Before: Nov  4 10:45:25 2023 GMT
            Not After : Oct 19 10:45:25 2026 GMT
        Subject: CN=team254-client
        Subject Public Key Info:
            Public Key Algorithm: rsaEncryption
                Public-Key: (2048 bit)
                Modulus:
                    00:a0:82:21:e4:ef:ad:85:2e:b3:73:8f:60:ca:bd:
                    6b:f2:c5:d3:4e:e9:8a:f3:8c:30:cd:f6:81:70:32:
                    2a:04:c8:ea:db:cd:68:a6:1d:87:b8:ed:13:43:d4:
                    5b:d6:6f:24:6d:d5:74:b2:68:2a:41:50:37:2d:08:
                    91:8e:ad:3b:7b:61:de:2e:9b:14:22:ec:e7:bc:28:
                    2c:e6:93:a0:e0:76:98:91:18:d0:e2:3a:3d:58:0c:
                    35:86:08:53:f6:f7:62:81:57:dc:75:7a:d1:af:d1:
                    5e:c7:24:ee:36:7e:2c:8c:59:06:86:1e:c1:3c:a5:
                    41:ea:c5:b5:30:31:93:ac:81:7b:82:ea:97:bc:81:
                    14:72:02:eb:79:7e:5d:35:01:f9:75:6d:2c:4f:0a:
                    ca:53:dd:c0:53:64:3d:8b:25:90:cb:f1:d8:9b:5a:
                    2e:42:ec:4d:f6:81:06:83:9c:a9:38:f5:b1:82:64:
                    77:3b:21:4d:42:4b:e4:45:e0:29:f6:eb:a1:9e:76:
                    c5:a1:55:a8:33:4e:7e:bc:38:55:aa:16:d3:d5:58:
                    45:47:55:38:fe:fd:24:92:3a:b3:93:ed:39:a1:69:
                    dd:97:7f:96:56:68:4d:52:fc:91:a4:a5:2a:50:f6:
                    62:04:4a:55:ae:ac:d4:69:f7:02:01:95:22:bc:92:
                    50:db
                Exponent: 65537 (0x10001)
        X509v3 extensions:
            X509v3 Basic Constraints: 
                CA:FALSE
            X509v3 Subject Key Identifier: 
                51:EE:CB:A3:AD:6D:4F:C7:CB:31:D6:54:BE:1C:26:C7:EC:59:61:BF
            X509v3 Authority Key Identifier: 
                keyid:53:B1:43:D9:F7:6A:EE:0C:07:7B:C9:FA:41:9C:90:99:25:64:0B:EA
                DirName:/CN=team254-net
                serial:6E:8F:B7:A1:8C:E6:40:FA:CB:AF:54:79:24:ED:18:B0:2A:4C:06:F4
            X509v3 Extended Key Usage: 
                TLS Web Client Authentication
            X509v3 Key Usage: 
                Digital Signature
    Signature Algorithm: sha256WithRSAEncryption
    Signature Value:
        44:93:ec:c7:ce:ca:f9:a3:62:3f:f3:8b:8a:9f:1f:14:3e:c5:
        4c:fa:b6:04:b8:f8:f9:d0:75:ab:97:0b:74:50:1b:13:65:f1:
        4b:72:a9:b0:be:9f:b1:65:06:2b:b2:82:d4:7e:93:33:fd:03:
        cc:23:16:c3:42:d4:61:85:2d:5d:92:4a:72:f6:45:ff:58:3b:
        11:5d:97:ff:b8:08:e1:72:55:57:85:8e:27:92:f6:9b:d4:45:
        c0:b6:4b:8d:7d:43:39:74:96:46:a2:f6:ca:de:61:98:b8:5a:
        de:af:b3:ac:7f:0b:11:a9:dd:0a:74:5c:0a:82:72:c6:83:ba:
        3c:4f:9e:9f:24:68:d7:e9:12:51:8e:1e:79:12:13:54:0d:7a:
        e5:75:61:bd:6e:2f:d5:7e:80:c9:14:9c:96:61:2d:13:00:5e:
        06:98:9c:37:4b:ad:1e:87:04:10:63:1e:ba:a6:fd:aa:17:cb:
        13:78:20:1a:39:58:1c:8c:a6:0a:74:21:b0:05:de:77:42:c2:
        44:b7:7f:09:67:6e:cc:66:19:bb:ea:e7:52:45:91:a6:9b:58:
        5e:ff:f9:d1:9e:32:0b:4f:5c:86:12:8a:b9:da:49:67:23:08:
        d6:f5:6d:63:f0:a7:05:de:ef:2b:38:a9:f6:4a:85:f7:75:95:
        82:f5:d3:18
-----BEGIN CERTIFICATE-----
MIIDXTCCAkWgAwIBAgIRAKEryCFTBZX46Bjvz9xy9gIwDQYJKoZIhvcNAQELBQAw
FjEUMBIGA1UEAwwLdGVhbTI1NC1uZXQwHhcNMjMxMTA0MTA0NTI1WhcNMjYxMDE5
MTA0NTI1WjAZMRcwFQYDVQQDDA50ZWFtMjU0LWNsaWVudDCCASIwDQYJKoZIhvcN
AQEBBQADggEPADCCAQoCggEBAKCCIeTvrYUus3OPYMq9a/LF007pivOMMM32gXAy
KgTI6tvNaKYdh7jtE0PUW9ZvJG3VdLJoKkFQNy0IkY6tO3th3i6bFCLs57woLOaT
oOB2mJEY0OI6PVgMNYYIU/b3YoFX3HV60a/RXsck7jZ+LIxZBoYewTylQerFtTAx
k6yBe4Lql7yBFHIC63l+XTUB+XVtLE8KylPdwFNkPYslkMvx2JtaLkLsTfaBBoOc
qTj1sYJkdzshTUJL5EXgKfbroZ52xaFVqDNOfrw4VaoW09VYRUdVOP79JJI6s5Pt
OaFp3Zd/llZoTVL8kaSlKlD2YgRKVa6s1Gn3AgGVIrySUNsCAwEAAaOBojCBnzAJ
BgNVHRMEAjAAMB0GA1UdDgQWBBRR7sujrW1Px8sx1lS+HCbH7FlhvzBRBgNVHSME
SjBIgBRTsUPZ92ruDAd7yfpBnJCZJWQL6qEapBgwFjEUMBIGA1UEAwwLdGVhbTI1
NC1uZXSCFG6Pt6GM5kD6y69UeSTtGLAqTAb0MBMGA1UdJQQMMAoGCCsGAQUFBwMC
MAsGA1UdDwQEAwIHgDANBgkqhkiG9w0BAQsFAAOCAQEARJPsx87K+aNiP/OLip8f
FD7FTPq2BLj4+dB1q5cLdFAbE2XxS3KpsL6fsWUGK7KC1H6TM/0DzCMWw0LUYYUt
XZJKcvZF/1g7EV2X/7gI4XJVV4WOJ5L2m9RFwLZLjX1DOXSWRqL2yt5hmLha3q+z
rH8LEandCnRcCoJyxoO6PE+enyRo1+kSUY4eeRITVA165XVhvW4v1X6AyRSclmEt
EwBeBpicN0utHocEEGMeuqb9qhfLE3ggGjlYHIymCnQhsAXed0LCRLd/CWduzGYZ
u+rnUkWRpptYXv/50Z4yC09chhKKudpJZyMI1vVtY/CnBd7vKzip9kqF93WVgvXT
GA==
-----END CERTIFICATE-----
