Certificate:
    Data:
        Version: 3 (0x2)
        Serial Number:
            d5:ca:48:d1:44:c3:61:0e:8e:ad:8d:b3:b6:54:aa:28
        Signature Algorithm: sha256WithRSAEncryption
        Issuer: CN=team254-net
        Validity
            Not Before: Nov  4 11:32:38 2023 GMT
            Not After : Oct 19 11:32:38 2026 GMT
        Subject: CN=team254-client
        Subject Public Key Info:
            Public Key Algorithm: rsaEncryption
                Public-Key: (2048 bit)
                Modulus:
                    00:b8:24:57:4f:ec:69:57:72:dc:f8:52:0f:71:d5:
                    87:3a:f4:fc:94:de:fe:63:cc:ef:a6:3f:1a:3f:2b:
                    8f:7a:dc:71:29:dc:e0:3f:7f:a4:fa:59:ab:4c:1e:
                    5e:4d:5c:0a:e2:4f:f1:b1:52:5f:3a:e6:94:ef:1c:
                    d7:34:b5:1e:24:ad:48:b9:c9:a0:31:62:38:30:91:
                    dc:71:0e:7b:d8:69:62:57:8e:d0:60:06:95:50:ef:
                    8d:97:d3:a1:92:85:32:ba:6a:e2:e4:15:6b:40:16:
                    50:25:e0:2f:91:b1:ef:dd:b7:b6:3e:87:e4:a7:51:
                    f6:1a:8b:67:67:01:4a:95:ee:aa:af:8a:b1:b5:8d:
                    1e:6d:d4:9d:3b:c4:af:d5:ec:74:3b:02:2a:ba:11:
                    6d:6d:bd:4a:92:9a:18:d4:cb:4d:93:10:1b:99:ae:
                    26:20:ac:e5:1b:0e:a1:03:ca:85:ce:19:c0:f8:9d:
                    61:b9:7d:39:47:d7:34:14:f3:3a:52:90:e2:5a:f4:
                    71:f9:2f:1b:16:98:d0:23:bf:fe:77:35:a1:71:b2:
                    87:87:c5:03:cd:4e:d6:e6:06:6c:12:3b:08:e2:5d:
                    4e:79:57:cf:15:c2:a9:24:07:59:a3:be:aa:21:a5:
                    93:61:2f:7a:af:01:07:fb:f3:51:b1:54:f6:bf:d1:
                    4c:fb
                Exponent: 65537 (0x10001)
        X509v3 extensions:
            X509v3 Basic Constraints: 
                CA:FALSE
            X509v3 Subject Key Identifier: 
                97:93:9B:32:A2:16:BB:9B:CA:5D:25:57:65:85:F0:40:4D:EF:32:49
            X509v3 Authority Key Identifier: 
                keyid:DC:F3:0C:A7:0E:DD:AA:7D:96:66:CA:D8:23:F1:1D:20:10:C6:05:6D
                DirName:/CN=team254-net
                serial:04:AD:79:7E:C2:8B:4E:02:8E:D7:08:E9:1C:98:60:B2:17:A9:0C:7C
            X509v3 Extended Key Usage: 
                TLS Web Client Authentication
            X509v3 Key Usage: 
                Digital Signature
    Signature Algorithm: sha256WithRSAEncryption
    Signature Value:
        47:92:ef:b2:bd:a8:6b:4a:ed:4a:34:98:6c:a9:c6:63:11:24:
        85:b2:1e:22:41:d9:3c:7b:ae:c9:47:5b:3d:6e:6d:a6:6c:62:
        29:b5:f7:c7:ac:5e:5b:56:01:84:d1:70:0b:c8:47:89:29:2d:
        38:21:2d:3d:7f:96:b2:a2:0e:9c:b8:c9:06:71:e0:28:a4:38:
        b9:f1:21:22:b7:62:c1:36:c8:73:b5:c1:14:63:a4:f9:9a:08:
        6b:ca:6d:d3:ab:5a:05:f8:42:0c:59:60:ba:3e:04:2f:7c:a2:
        f5:f0:d7:b4:08:1a:ae:c0:46:e9:d0:19:46:01:e8:f1:5d:3d:
        6a:b1:08:55:84:35:00:67:6d:4c:20:7f:30:b2:72:25:36:1b:
        c2:36:5e:48:2e:35:6f:ca:7a:04:dd:ba:88:c5:95:ad:cc:38:
        a9:e5:23:5b:6b:69:e9:7c:75:cf:00:52:63:ae:29:b2:41:6e:
        5b:e7:21:8a:90:e2:7a:94:00:b6:f6:e2:65:3c:c8:66:07:5d:
        ae:ea:bc:90:67:18:2b:1a:49:10:e1:46:4e:fa:a2:f1:f1:26:
        76:f0:89:d9:be:b4:e2:51:cf:e9:ee:ca:cd:db:52:0b:87:30:
        4f:e8:54:25:9b:0d:f2:19:00:40:e5:d5:26:06:2a:19:a7:bc:
        51:53:6d:c8
-----BEGIN CERTIFICATE-----
MIIDXTCCAkWgAwIBAgIRANXKSNFEw2EOjq2Ns7ZUqigwDQYJKoZIhvcNAQELBQAw
FjEUMBIGA1UEAwwLdGVhbTI1NC1uZXQwHhcNMjMxMTA0MTEzMjM4WhcNMjYxMDE5
MTEzMjM4WjAZMRcwFQYDVQQDDA50ZWFtMjU0LWNsaWVudDCCASIwDQYJKoZIhvcN
AQEBBQADggEPADCCAQoCggEBALgkV0/saVdy3PhSD3HVhzr0/JTe/mPM76Y/Gj8r
j3rccSnc4D9/pPpZq0weXk1cCuJP8bFSXzrmlO8c1zS1HiStSLnJoDFiODCR3HEO
e9hpYleO0GAGlVDvjZfToZKFMrpq4uQVa0AWUCXgL5Gx7923tj6H5KdR9hqLZ2cB
SpXuqq+KsbWNHm3UnTvEr9XsdDsCKroRbW29SpKaGNTLTZMQG5muJiCs5RsOoQPK
hc4ZwPidYbl9OUfXNBTzOlKQ4lr0cfkvGxaY0CO//nc1oXGyh4fFA81O1uYGbBI7
COJdTnlXzxXCqSQHWaO+qiGlk2Eveq8BB/vzUbFU9r/RTPsCAwEAAaOBojCBnzAJ
BgNVHRMEAjAAMB0GA1UdDgQWBBSXk5syoha7m8pdJVdlhfBATe8ySTBRBgNVHSME
SjBIgBTc8wynDt2qfZZmytgj8R0gEMYFbaEapBgwFjEUMBIGA1UEAwwLdGVhbTI1
NC1uZXSCFASteX7Ci04CjtcI6RyYYLIXqQx8MBMGA1UdJQQMMAoGCCsGAQUFBwMC
MAsGA1UdDwQEAwIHgDANBgkqhkiG9w0BAQsFAAOCAQEAR5Lvsr2oa0rtSjSYbKnG
YxEkhbIeIkHZPHuuyUdbPW5tpmxiKbX3x6xeW1YBhNFwC8hHiSktOCEtPX+WsqIO
nLjJBnHgKKQ4ufEhIrdiwTbIc7XBFGOk+ZoIa8pt06taBfhCDFlguj4EL3yi9fDX
tAgarsBG6dAZRgHo8V09arEIVYQ1AGdtTCB/MLJyJTYbwjZeSC41b8p6BN26iMWV
rcw4qeUjW2tp6Xx1zwBSY64pskFuW+chipDiepQAtvbiZTzIZgddruq8kGcYKxpJ
EOFGTvqi8fEmdvCJ2b604lHP6e7KzdtSC4cwT+hUJZsN8hkAQOXVJgYqGae8UVNt
yA==
-----END CERTIFICATE-----
