Certificate:
    Data:
        Version: 3 (0x2)
        Serial Number:
            0e:4a:0b:02:af:b1:81:81:e5:ff:77:2d:bb:aa:54:22
        Signature Algorithm: sha256WithRSAEncryption
        Issuer: CN=team198-net
        Validity
            Not Before: Nov  3 20:42:52 2023 GMT
            Not After : Oct 18 20:42:52 2026 GMT
        Subject: CN=team198-client
        Subject Public Key Info:
            Public Key Algorithm: rsaEncryption
                Public-Key: (2048 bit)
                Modulus:
                    00:8c:72:7f:44:0f:0d:64:a3:68:71:7e:b7:c9:dc:
                    db:ce:de:1f:83:c0:b8:6e:26:cb:f4:e4:9e:cd:5f:
                    f7:01:1d:27:7e:15:88:79:8b:fc:b0:54:b9:bd:c7:
                    55:a8:92:b2:d2:81:1e:c7:fe:55:92:5b:3e:21:9f:
                    df:c5:68:11:82:72:12:8a:fd:da:fa:9f:54:75:b8:
                    8a:0b:c0:5f:7c:ab:cb:a5:a4:c7:19:ea:b3:88:75:
                    1e:22:0f:14:56:04:82:5e:b3:47:c1:b1:d2:22:5f:
                    14:bf:8b:2f:eb:08:9d:13:2c:d8:86:87:89:5d:72:
                    d3:37:c9:77:75:68:cb:67:f0:32:aa:9b:7a:e6:03:
                    b3:ec:1c:9f:21:1b:95:0c:c5:3e:90:1f:98:6f:81:
                    6d:85:48:a1:4b:5b:e9:40:cf:f0:50:ab:db:17:e4:
                    a9:b4:ea:14:33:45:96:76:bf:ae:be:cf:05:b5:8d:
                    9b:85:12:21:49:5a:c0:e1:48:6e:58:86:d0:09:13:
                    bd:83:26:8d:18:9e:1f:6c:fd:66:01:d7:fc:34:95:
                    d6:d5:1d:05:e5:6f:2d:e4:b8:a9:21:27:12:8f:ec:
                    a6:20:81:fe:dd:66:64:20:21:4b:4e:16:a5:8c:fc:
                    23:24:fb:4f:68:72:35:6b:88:79:ff:8f:0e:b7:1b:
                    5c:01
                Exponent: 65537 (0x10001)
        X509v3 extensions:
            X509v3 Basic Constraints: 
                CA:FALSE
            X509v3 Subject Key Identifier: 
                5D:E4:FF:FF:59:1B:E1:22:64:60:CD:7C:05:61:53:98:96:C7:DA:C4
            X509v3 Authority Key Identifier: 
                keyid:9B:D9:AD:1E:FD:E1:CB:08:A1:DB:4D:AC:5C:E8:0F:C1:36:CE:61:87
                DirName:/CN=team198-net
                serial:0B:87:C8:1A:88:EF:1D:DB:E0:BD:DE:5D:2D:40:5D:EE:18:4B:D7:6A
            X509v3 Extended Key Usage: 
                TLS Web Client Authentication
            X509v3 Key Usage: 
                Digital Signature
    Signature Algorithm: sha256WithRSAEncryption
    Signature Value:
        60:b7:d1:a8:98:14:28:dc:1d:c4:c6:df:30:38:46:fd:ba:f6:
        6d:11:0f:5e:24:36:43:c1:4c:05:ba:35:d8:99:e9:de:aa:9a:
        55:2e:15:f8:71:49:51:08:7f:fb:af:4c:bf:d0:40:f4:2d:55:
        57:45:76:ad:f2:a0:0d:8d:47:9e:bc:ae:dd:04:f6:4b:cb:97:
        eb:c4:c2:10:39:8b:39:89:d8:a4:d4:eb:d7:85:fd:e7:f3:f7:
        b2:a8:07:6a:a5:36:d2:88:57:b7:3f:c9:47:09:01:4e:d6:c3:
        1d:68:40:4c:9d:d3:7b:c2:72:56:97:41:91:13:4a:5f:59:1c:
        cb:f5:b8:f3:33:7c:6d:a1:03:1a:28:c9:60:41:22:26:e1:e0:
        0e:c0:0a:74:c8:c2:69:a7:cc:71:75:79:3d:b2:e7:aa:72:2f:
        fc:9e:fb:00:cc:bd:bc:e7:71:fb:eb:80:f5:6a:b9:17:81:f6:
        c2:88:62:7b:6e:a1:b0:9b:59:1c:b0:a0:de:d0:ab:ce:4e:09:
        5a:8b:c2:5f:e0:70:03:68:c0:63:e9:e4:be:e2:0e:9f:58:6e:
        8e:f2:15:6d:c6:49:ca:0a:f1:40:8d:72:b3:f6:9f:66:d5:c2:
        57:b0:4a:6c:ce:33:ae:3e:a0:dd:de:89:2f:fc:bb:29:4e:0c:
        92:ae:6c:27
-----BEGIN CERTIFICATE-----
MIIDXDCCAkSgAwIBAgIQDkoLAq+xgYHl/3ctu6pUIjANBgkqhkiG9w0BAQsFADAW
MRQwEgYDVQQDDAt0ZWFtMTk4LW5ldDAeFw0yMzExMDMyMDQyNTJaFw0yNjEwMTgy
MDQyNTJaMBkxFzAVBgNVBAMMDnRlYW0xOTgtY2xpZW50MIIBIjANBgkqhkiG9w0B
AQEFAAOCAQ8AMIIBCgKCAQEAjHJ/RA8NZKNocX63ydzbzt4fg8C4bibL9OSezV/3
AR0nfhWIeYv8sFS5vcdVqJKy0oEex/5Vkls+IZ/fxWgRgnISiv3a+p9UdbiKC8Bf
fKvLpaTHGeqziHUeIg8UVgSCXrNHwbHSIl8Uv4sv6widEyzYhoeJXXLTN8l3dWjL
Z/Ayqpt65gOz7ByfIRuVDMU+kB+Yb4FthUihS1vpQM/wUKvbF+SptOoUM0WWdr+u
vs8FtY2bhRIhSVrA4UhuWIbQCRO9gyaNGJ4fbP1mAdf8NJXW1R0F5W8t5LipIScS
j+ymIIH+3WZkICFLThaljPwjJPtPaHI1a4h5/48OtxtcAQIDAQABo4GiMIGfMAkG
A1UdEwQCMAAwHQYDVR0OBBYEFF3k//9ZG+EiZGDNfAVhU5iWx9rEMFEGA1UdIwRK
MEiAFJvZrR794csIodtNrFzoD8E2zmGHoRqkGDAWMRQwEgYDVQQDDAt0ZWFtMTk4
LW5ldIIUC4fIGojvHdvgvd5dLUBd7hhL12owEwYDVR0lBAwwCgYIKwYBBQUHAwIw
CwYDVR0PBAQDAgeAMA0GCSqGSIb3DQEBCwUAA4IBAQBgt9GomBQo3B3Ext8wOEb9
uvZtEQ9eJDZDwUwFujXYmeneqppVLhX4cUlRCH/7r0y/0ED0LVVXRXat8qANjUee
vK7dBPZLy5frxMIQOYs5idik1OvXhf3n8/eyqAdqpTbSiFe3P8lHCQFO1sMdaEBM
ndN7wnJWl0GRE0pfWRzL9bjzM3xtoQMaKMlgQSIm4eAOwAp0yMJpp8xxdXk9sueq
ci/8nvsAzL2853H764D1arkXgfbCiGJ7bqGwm1kcsKDe0KvOTglai8Jf4HADaMBj
6eS+4g6fWG6O8hVtxknKCvFAjXKz9p9m1cJXsEpszjOuPqDd3okv/LspTgySrmwn
-----END CERTIFICATE-----
