Certificate:
    Data:
        Version: 3 (0x2)
        Serial Number:
            7f:a1:bd:0f:83:b8:04:43:29:c7:63:e0:1f:ac:0e:71
        Signature Algorithm: sha256WithRSAEncryption
        Issuer: CN=team198-net
        Validity
            Not Before: Nov  4 11:31:32 2023 GMT
            Not After : Oct 19 11:31:32 2026 GMT
        Subject: CN=team198-server
        Subject Public Key Info:
            Public Key Algorithm: rsaEncryption
                Public-Key: (2048 bit)
                Modulus:
                    00:e2:4b:a2:ff:c7:3e:f0:86:85:e3:e7:b8:90:14:
                    41:91:21:4c:73:a8:47:db:17:3f:2f:5d:4c:8e:fe:
                    97:43:96:ea:3e:03:0b:5b:ff:99:7f:45:d2:26:eb:
                    0d:af:ff:04:8d:91:3d:45:29:fc:1c:44:a7:88:47:
                    32:e7:04:90:f4:8b:00:ae:db:1c:b7:8e:f5:c8:29:
                    0c:02:e9:2b:93:16:19:ca:1e:4c:b4:3a:38:ae:33:
                    35:51:cf:78:2c:31:e8:33:ae:c5:35:81:8e:09:32:
                    2e:33:f6:14:3e:52:bc:7e:bb:95:9f:42:a0:63:8c:
                    b2:f2:77:4a:a7:6e:c7:89:cc:3e:1d:5c:90:51:a2:
                    e5:36:ab:ba:d8:34:8b:d8:b8:f2:f1:54:51:13:52:
                    45:79:83:6c:1e:c2:5f:83:1e:b5:f7:8c:e1:cf:a0:
                    06:ca:b5:87:2e:3b:66:d4:1e:18:b7:42:17:a0:10:
                    78:3e:d4:93:65:d7:47:6f:2f:b2:61:25:b9:17:26:
                    6c:5c:31:ee:f2:51:3d:87:f0:a2:78:44:b9:8e:6f:
                    bf:51:84:eb:76:8a:98:c3:a8:4a:d7:e7:b3:69:8c:
                    0b:32:79:0c:02:fa:44:0a:bc:4b:1e:b4:3a:d5:67:
                    b0:fc:96:4e:43:b4:d0:17:64:77:7c:21:8e:52:a3:
                    59:cf
                Exponent: 65537 (0x10001)
        X509v3 extensions:
            X509v3 Basic Constraints: 
                CA:FALSE
            X509v3 Subject Key Identifier: 
                5E:C3:A1:17:26:53:23:AF:C9:BB:2F:B0:E1:F1:81:D4:E6:93:83:07
            X509v3 Authority Key Identifier: 
                keyid:84:A2:ED:04:1B:5A:9D:34:9D:16:09:0A:D9:0E:11:DA:8C:A8:E8:6A
                DirName:/CN=team198-net
                serial:65:D5:A9:A0:98:92:22:1F:E9:2D:DA:13:2B:C9:8C:7D:23:7F:3F:E9
            X509v3 Extended Key Usage: 
                TLS Web Server Authentication
            X509v3 Key Usage: 
                Digital Signature, Key Encipherment
            X509v3 Subject Alternative Name: 
                DNS:team198-server
    Signature Algorithm: sha256WithRSAEncryption
    Signature Value:
        32:86:9b:b8:c7:f3:4e:49:8d:68:a0:f9:b9:b9:e3:57:a9:e2:
        15:8b:8e:49:e6:30:61:a3:7b:c3:b4:97:b0:04:84:ee:43:f7:
        d9:9b:3e:88:b3:d8:bf:2f:52:b9:ff:ef:1b:25:2f:76:b7:68:
        f6:b6:e2:ec:ff:4a:f7:db:22:1d:f1:ab:81:0c:54:c4:fd:1a:
        82:16:ba:59:2a:c2:f5:73:a9:08:13:e5:48:d9:97:16:8d:71:
        b8:6f:0d:92:88:d4:b6:d9:15:85:ac:a4:05:a6:0a:a8:ce:43:
        97:81:bf:35:96:0b:9c:b7:91:b3:b8:55:c2:28:25:87:fb:c8:
        1e:57:b5:f2:b1:c6:7d:4e:27:8a:04:a4:8e:4c:9f:5a:c0:99:
        a3:a5:a7:83:f8:cf:50:c1:6f:47:9b:b0:db:ec:6d:da:ac:04:
        42:d4:a2:42:83:f2:6a:c3:5d:db:32:b6:f0:19:f9:52:b1:49:
        9b:1c:0d:6e:ae:d5:d4:70:22:d2:cb:d7:20:aa:d9:79:93:09:
        54:e6:3d:e2:a8:f1:c9:e6:82:08:18:4a:aa:63:d6:c8:d4:46:
        1e:68:43:e1:2c:32:08:02:d7:e2:88:f8:3a:9d:3e:3c:ec:10:
        64:63:ba:98:f4:33:de:bf:a5:e0:dd:7e:45:53:02:4b:2d:8c:
        f1:ee:5d:27
-----BEGIN CERTIFICATE-----
MIIDdzCCAl+gAwIBAgIQf6G9D4O4BEMpx2PgH6wOcTANBgkqhkiG9w0BAQsFADAW
MRQwEgYDVQQDDAt0ZWFtMTk4LW5ldDAeFw0yMzExMDQxMTMxMzJaFw0yNjEwMTkx
MTMxMzJaMBkxFzAVBgNVBAMMDnRlYW0xOTgtc2VydmVyMIIBIjANBgkqhkiG9w0B
AQEFAAOCAQ8AMIIBCgKCAQEA4kui/8c+8IaF4+e4kBRBkSFMc6hH2xc/L11Mjv6X
Q5bqPgMLW/+Zf0XSJusNr/8EjZE9RSn8HESniEcy5wSQ9IsArtsct471yCkMAukr
kxYZyh5MtDo4rjM1Uc94LDHoM67FNYGOCTIuM/YUPlK8fruVn0KgY4yy8ndKp27H
icw+HVyQUaLlNqu62DSL2Ljy8VRRE1JFeYNsHsJfgx6194zhz6AGyrWHLjtm1B4Y
t0IXoBB4PtSTZddHby+yYSW5FyZsXDHu8lE9h/CieES5jm+/UYTrdoqYw6hK1+ez
aYwLMnkMAvpECrxLHrQ61Wew/JZOQ7TQF2R3fCGOUqNZzwIDAQABo4G9MIG6MAkG
A1UdEwQCMAAwHQYDVR0OBBYEFF7DoRcmUyOvybsvsOHxgdTmk4MHMFEGA1UdIwRK
MEiAFISi7QQbWp00nRYJCtkOEdqMqOhqoRqkGDAWMRQwEgYDVQQDDAt0ZWFtMTk4
LW5ldIIUZdWpoJiSIh/pLdoTK8mMfSN/P+kwEwYDVR0lBAwwCgYIKwYBBQUHAwEw
CwYDVR0PBAQDAgWgMBkGA1UdEQQSMBCCDnRlYW0xOTgtc2VydmVyMA0GCSqGSIb3
DQEBCwUAA4IBAQAyhpu4x/NOSY1ooPm5ueNXqeIVi45J5jBho3vDtJewBITuQ/fZ
mz6Is9i/L1K5/+8bJS92t2j2tuLs/0r32yId8auBDFTE/RqCFrpZKsL1c6kIE+VI
2ZcWjXG4bw2SiNS22RWFrKQFpgqozkOXgb81lguct5GzuFXCKCWH+8geV7XyscZ9
TieKBKSOTJ9awJmjpaeD+M9QwW9Hm7Db7G3arARC1KJCg/Jqw13bMrbwGflSsUmb
HA1urtXUcCLSy9cgqtl5kwlU5j3iqPHJ5oIIGEqqY9bI1EYeaEPhLDIIAtfiiPg6
nT487BBkY7qY9DPev6Xg3X5FUwJLLYzx7l0n
-----END CERTIFICATE-----
