Certificate:
    Data:
        Version: 3 (0x2)
        Serial Number:
            84:06:e9:c8:fa:13:70:0d:5e:75:f5:89:2d:a0:e2:d3
        Signature Algorithm: sha256WithRSAEncryption
        Issuer: CN=team198-net
        Validity
            Not Before: Nov  4 10:44:15 2023 GMT
            Not After : Oct 19 10:44:15 2026 GMT
        Subject: CN=team198-client
        Subject Public Key Info:
            Public Key Algorithm: rsaEncryption
                Public-Key: (2048 bit)
                Modulus:
                    00:b7:34:00:53:01:f4:31:f6:7a:b1:0b:32:4d:92:
                    30:3d:43:6b:d0:b4:69:e8:13:b3:38:51:07:c6:ee:
                    5c:bd:9f:d3:8a:a3:7d:db:a2:24:17:b7:1d:ed:1c:
                    8e:1f:23:a5:cc:a6:67:9b:89:58:ad:e9:dc:66:48:
                    58:df:cb:76:37:6d:72:7f:83:ed:93:ea:cd:ba:6e:
                    64:c0:25:bb:58:13:17:88:8b:08:33:70:1d:f3:42:
                    ff:73:1f:94:57:c6:f7:21:be:cf:14:96:0d:b1:da:
                    94:cd:97:4e:f0:25:e2:09:ab:11:a4:bd:a7:b1:f9:
                    2f:57:16:93:1f:5a:e9:92:11:34:15:b8:d3:65:a4:
                    e0:a0:bb:c8:3d:77:1d:78:55:0a:f4:f3:43:d8:42:
                    1a:23:5d:33:f5:a2:10:71:2f:3c:02:11:37:ec:d0:
                    04:27:17:a4:dc:17:69:00:4d:f9:3a:8d:77:43:9a:
                    d5:c7:2d:47:07:06:2d:e6:9e:07:d0:4c:79:8c:97:
                    d4:34:42:be:18:66:f4:3f:ea:ce:9c:7d:04:83:72:
                    35:06:37:ef:9f:f7:96:a4:f4:82:19:6d:f4:18:4e:
                    d6:a2:7c:6c:d8:a8:da:e1:a2:77:48:a3:47:dc:e5:
                    b2:75:75:41:75:d2:69:16:49:98:57:25:16:03:fd:
                    59:e3
                Exponent: 65537 (0x10001)
        X509v3 extensions:
            X509v3 Basic Constraints: 
                CA:FALSE
            X509v3 Subject Key Identifier: 
                87:5D:70:79:75:51:A3:F1:CB:15:8F:E4:11:B7:82:C6:FE:54:A0:DE
            X509v3 Authority Key Identifier: 
                keyid:75:81:00:C6:85:99:84:74:86:75:E9:63:AD:A3:EF:12:0B:06:4C:DD
                DirName:/CN=team198-net
                serial:4A:77:68:8E:1A:7B:8D:D3:B6:AE:89:18:80:91:AD:72:2C:58:79:F9
            X509v3 Extended Key Usage: 
                TLS Web Client Authentication
            X509v3 Key Usage: 
                Digital Signature
    Signature Algorithm: sha256WithRSAEncryption
    Signature Value:
        93:59:34:d5:71:b4:26:e4:c8:d2:92:33:12:90:ab:63:f3:07:
        c8:56:2b:62:e7:c5:68:3c:10:b5:2f:50:59:9e:0b:71:99:fc:
        60:2b:79:dd:e3:e7:e2:a5:7a:a1:fd:3a:c9:74:1e:0b:6a:6e:
        51:83:e3:40:80:e2:f9:93:4b:60:e4:42:4a:e1:da:8e:b8:70:
        51:a1:7b:bc:ab:ab:1f:12:af:fe:20:6e:b5:f6:0f:35:49:ac:
        a4:0d:c7:4f:17:4e:c0:63:77:8e:41:7e:24:69:40:ef:cf:13:
        79:25:8e:09:81:3d:17:53:9f:b8:46:0f:99:24:75:19:89:b3:
        7a:77:2b:9d:d6:18:1d:5e:23:b8:13:54:1f:d2:56:3a:08:8a:
        d4:d2:d2:51:9c:68:05:ba:8e:aa:24:d1:9d:fe:0c:fe:ed:53:
        4c:a5:8b:64:37:d2:d3:34:bb:0a:2a:8b:42:ed:34:bc:00:82:
        34:76:c5:8c:8a:86:34:89:fe:0c:b2:55:25:13:73:54:62:3c:
        df:4c:b6:68:68:40:03:89:f4:2f:64:84:ea:0c:8f:76:0c:ba:
        ef:96:be:44:6a:42:9f:8a:04:09:04:f9:6a:e1:63:da:fd:c3:
        4b:dc:e3:64:bd:b0:d2:a7:84:95:d9:15:2e:c8:01:29:d8:77:
        d7:61:6e:9a
-----BEGIN CERTIFICATE-----
MIIDXTCCAkWgAwIBAgIRAIQG6cj6E3ANXnX1iS2g4tMwDQYJKoZIhvcNAQELBQAw
FjEUMBIGA1UEAwwLdGVhbTE5OC1uZXQwHhcNMjMxMTA0MTA0NDE1WhcNMjYxMDE5
MTA0NDE1WjAZMRcwFQYDVQQDDA50ZWFtMTk4LWNsaWVudDCCASIwDQYJKoZIhvcN
AQEBBQADggEPADCCAQoCggEBALc0AFMB9DH2erELMk2SMD1Da9C0aegTszhRB8bu
XL2f04qjfduiJBe3He0cjh8jpcymZ5uJWK3p3GZIWN/Ldjdtcn+D7ZPqzbpuZMAl
u1gTF4iLCDNwHfNC/3MflFfG9yG+zxSWDbHalM2XTvAl4gmrEaS9p7H5L1cWkx9a
6ZIRNBW402Wk4KC7yD13HXhVCvTzQ9hCGiNdM/WiEHEvPAIRN+zQBCcXpNwXaQBN
+TqNd0Oa1cctRwcGLeaeB9BMeYyX1DRCvhhm9D/qzpx9BINyNQY375/3lqT0ghlt
9BhO1qJ8bNio2uGid0ijR9zlsnV1QXXSaRZJmFclFgP9WeMCAwEAAaOBojCBnzAJ
BgNVHRMEAjAAMB0GA1UdDgQWBBSHXXB5dVGj8csVj+QRt4LG/lSg3jBRBgNVHSME
SjBIgBR1gQDGhZmEdIZ16WOto+8SCwZM3aEapBgwFjEUMBIGA1UEAwwLdGVhbTE5
OC1uZXSCFEp3aI4ae43Ttq6JGICRrXIsWHn5MBMGA1UdJQQMMAoGCCsGAQUFBwMC
MAsGA1UdDwQEAwIHgDANBgkqhkiG9w0BAQsFAAOCAQEAk1k01XG0JuTI0pIzEpCr
Y/MHyFYrYufFaDwQtS9QWZ4LcZn8YCt53ePn4qV6of06yXQeC2puUYPjQIDi+ZNL
YORCSuHajrhwUaF7vKurHxKv/iButfYPNUmspA3HTxdOwGN3jkF+JGlA788TeSWO
CYE9F1OfuEYPmSR1GYmzencrndYYHV4juBNUH9JWOgiK1NLSUZxoBbqOqiTRnf4M
/u1TTKWLZDfS0zS7CiqLQu00vACCNHbFjIqGNIn+DLJVJRNzVGI830y2aGhAA4n0
L2SE6gyPdgy675a+RGpCn4oECQT5auFj2v3DS9zjZL2w0qeEldkVLsgBKdh312Fu
mg==
-----END CERTIFICATE-----
