Certificate:
    Data:
        Version: 3 (0x2)
        Serial Number:
            c1:07:f5:12:93:3c:c2:16:22:73:37:cf:79:7d:ee:4d
        Signature Algorithm: sha256WithRSAEncryption
        Issuer: CN=team198-net
        Validity
            Not Before: Nov  4 11:31:32 2023 GMT
            Not After : Oct 19 11:31:32 2026 GMT
        Subject: CN=team198-client
        Subject Public Key Info:
            Public Key Algorithm: rsaEncryption
                Public-Key: (2048 bit)
                Modulus:
                    00:d6:7d:74:c2:06:15:da:00:e4:40:f0:21:38:36:
                    e1:f4:8e:6c:55:ae:68:33:1c:bf:5d:63:39:67:ba:
                    4e:13:b9:c2:d4:79:88:8e:1d:05:35:02:03:c2:6a:
                    25:00:48:87:87:0c:36:50:99:f7:a2:5d:97:50:15:
                    9c:bd:72:91:12:5a:bd:96:87:5d:f7:82:85:b9:f2:
                    7a:02:8d:0d:3d:66:9f:ed:41:e9:bf:a3:9b:04:14:
                    74:36:c3:84:8d:72:ff:b0:20:8e:13:d3:9e:dc:9c:
                    09:e1:05:09:5a:75:b3:95:92:ad:82:d5:4e:db:43:
                    c8:5a:cf:48:41:06:bb:26:de:77:4f:b9:3e:76:12:
                    ce:7c:f1:03:fc:bd:12:c0:1e:a2:26:09:d7:1b:e2:
                    e9:5c:4b:88:c3:c3:43:4c:5a:0e:a7:76:50:cd:dc:
                    1c:86:dd:2f:33:c2:37:9b:ab:3f:8a:06:81:2f:7c:
                    0a:de:e7:32:4f:8d:e3:9a:5e:52:c0:bf:e8:9f:93:
                    9a:cb:0c:36:25:ef:32:e4:c5:82:91:3a:47:78:7f:
                    88:0e:16:b6:e8:10:7e:3d:a1:e0:0b:23:0a:54:01:
                    57:df:37:4e:1e:e8:98:70:6a:d3:1d:9b:eb:db:19:
                    c4:dc:4a:7e:2f:08:44:7e:0b:a0:a6:71:71:79:c7:
                    a8:75
                Exponent: 65537 (0x10001)
        X509v3 extensions:
            X509v3 Basic Constraints: 
                CA:FALSE
            X509v3 Subject Key Identifier: 
                4F:30:D0:AE:65:06:56:A9:BA:B4:9C:62:B3:85:5D:3D:BF:8E:BA:56
            X509v3 Authority Key Identifier: 
                keyid:84:A2:ED:04:1B:5A:9D:34:9D:16:09:0A:D9:0E:11:DA:8C:A8:E8:6A
                DirName:/CN=team198-net
                serial:65:D5:A9:A0:98:92:22:1F:E9:2D:DA:13:2B:C9:8C:7D:23:7F:3F:E9
            X509v3 Extended Key Usage: 
                TLS Web Client Authentication
            X509v3 Key Usage: 
                Digital Signature
    Signature Algorithm: sha256WithRSAEncryption
    Signature Value:
        83:d5:bd:20:63:69:90:76:1d:a3:a6:87:a8:ae:64:2b:d3:33:
        6e:d1:10:61:bc:b1:59:80:ec:bd:cf:4f:a6:7a:57:9a:f6:49:
        27:6b:ce:5e:ac:e8:7b:05:0d:29:d5:45:c2:a9:6d:13:b7:13:
        ee:c2:b2:ac:61:a5:70:2d:35:d5:e9:ab:33:e3:47:b0:ea:a8:
        11:8b:98:26:73:8a:f0:92:65:41:9f:2d:38:dd:b7:9e:81:a9:
        65:28:78:4c:94:bc:21:c3:0f:93:d5:8a:7f:6e:91:18:db:a5:
        0f:0a:eb:5f:43:53:e1:df:dc:54:2a:38:62:13:1b:94:22:1d:
        51:c6:a7:d5:5d:e7:39:7d:bc:74:5e:15:ac:08:8d:9c:78:0c:
        0b:cd:4f:56:c3:c1:be:31:da:02:9c:cf:7e:08:1d:27:fa:7a:
        1b:14:16:63:0a:fa:0c:48:3c:3c:e6:82:6f:bf:d9:e2:15:cc:
        27:41:cb:dc:d6:9d:a3:33:5d:e5:ad:c4:9f:0b:9e:47:27:6f:
        e5:ef:2a:50:9c:73:8c:9c:58:37:b0:7b:75:74:e2:b7:ef:03:
        61:01:68:7c:b3:03:56:ef:06:c0:a1:c0:ff:c5:4d:a0:2e:40:
        15:36:fd:10:4c:d6:d7:1c:a8:e9:ba:12:cd:00:33:41:06:75:
        83:11:dd:36
-----BEGIN CERTIFICATE-----
MIIDXTCCAkWgAwIBAgIRAMEH9RKTPMIWInM3z3l97k0wDQYJKoZIhvcNAQELBQAw
FjEUMBIGA1UEAwwLdGVhbTE5OC1uZXQwHhcNMjMxMTA0MTEzMTMyWhcNMjYxMDE5
MTEzMTMyWjAZMRcwFQYDVQQDDA50ZWFtMTk4LWNsaWVudDCCASIwDQYJKoZIhvcN
AQEBBQADggEPADCCAQoCggEBANZ9dMIGFdoA5EDwITg24fSObFWuaDMcv11jOWe6
ThO5wtR5iI4dBTUCA8JqJQBIh4cMNlCZ96Jdl1AVnL1ykRJavZaHXfeChbnyegKN
DT1mn+1B6b+jmwQUdDbDhI1y/7AgjhPTntycCeEFCVp1s5WSrYLVTttDyFrPSEEG
uybed0+5PnYSznzxA/y9EsAeoiYJ1xvi6VxLiMPDQ0xaDqd2UM3cHIbdLzPCN5ur
P4oGgS98Ct7nMk+N45peUsC/6J+TmssMNiXvMuTFgpE6R3h/iA4WtugQfj2h4Asj
ClQBV983Th7omHBq0x2b69sZxNxKfi8IRH4LoKZxcXnHqHUCAwEAAaOBojCBnzAJ
BgNVHRMEAjAAMB0GA1UdDgQWBBRPMNCuZQZWqbq0nGKzhV09v466VjBRBgNVHSME
SjBIgBSEou0EG1qdNJ0WCQrZDhHajKjoaqEapBgwFjEUMBIGA1UEAwwLdGVhbTE5
OC1uZXSCFGXVqaCYkiIf6S3aEyvJjH0jfz/pMBMGA1UdJQQMMAoGCCsGAQUFBwMC
MAsGA1UdDwQEAwIHgDANBgkqhkiG9w0BAQsFAAOCAQEAg9W9IGNpkHYdo6aHqK5k
K9MzbtEQYbyxWYDsvc9PpnpXmvZJJ2vOXqzoewUNKdVFwqltE7cT7sKyrGGlcC01
1emrM+NHsOqoEYuYJnOK8JJlQZ8tON23noGpZSh4TJS8IcMPk9WKf26RGNulDwrr
X0NT4d/cVCo4YhMblCIdUcan1V3nOX28dF4VrAiNnHgMC81PVsPBvjHaApzPfggd
J/p6GxQWYwr6DEg8POaCb7/Z4hXMJ0HL3NadozNd5a3EnwueRydv5e8qUJxzjJxY
N7B7dXTit+8DYQFofLMDVu8GwKHA/8VNoC5AFTb9EEzW1xyo6boSzQAzQQZ1gxHd
Ng==
-----END CERTIFICATE-----
