Certificate:
    Data:
        Version: 3 (0x2)
        Serial Number:
            e9:ec:89:bf:bd:b9:2f:02:a6:42:35:9e:7f:77:d5:c2
        Signature Algorithm: sha256WithRSAEncryption
        Issuer: CN=team198-net
        Validity
            Not Before: Nov  4 10:44:16 2023 GMT
            Not After : Oct 19 10:44:16 2026 GMT
        Subject: CN=team198-server
        Subject Public Key Info:
            Public Key Algorithm: rsaEncryption
                Public-Key: (2048 bit)
                Modulus:
                    00:af:a4:91:2c:d6:94:85:39:80:a0:34:0a:7e:c8:
                    63:1a:c7:8a:c0:e9:7e:cb:a7:f2:62:60:95:9d:71:
                    b5:8a:3a:f3:5e:4f:31:33:d1:e4:10:90:af:0f:6b:
                    b5:3b:a6:08:09:04:6d:1f:15:b3:0a:7f:5c:76:63:
                    da:28:97:09:70:d6:6c:bd:fe:fc:eb:13:fa:4c:09:
                    50:f1:88:55:fd:5a:f8:0d:c0:f7:1d:11:0a:9c:fd:
                    55:d9:82:ab:9d:67:14:c2:b6:45:f8:33:17:dd:c6:
                    2e:c4:28:1d:9c:5e:63:75:18:51:a3:dc:02:85:e8:
                    a5:cd:f6:57:ad:df:aa:ed:6e:cc:af:41:ff:43:07:
                    73:ec:98:d3:75:3b:1c:a0:1e:9f:b4:01:f4:a4:06:
                    52:ff:7e:fc:7f:9a:bd:a9:f2:86:20:12:6a:6e:d8:
                    86:20:c6:b6:02:25:66:1d:c6:dc:23:52:99:fb:3c:
                    e6:dd:fc:fe:47:4d:cf:48:f7:4f:44:b8:46:1d:12:
                    16:24:50:bf:f4:e3:fb:64:ed:9f:bf:ec:f8:38:34:
                    a4:1a:83:61:14:08:60:b2:f2:98:29:aa:68:63:2d:
                    62:8e:7e:2c:08:ff:3b:ef:0f:5e:da:35:71:cf:e9:
                    22:fd:5e:dd:5e:51:5c:4c:c8:a8:43:3d:f2:cc:4a:
                    76:35
                Exponent: 65537 (0x10001)
        X509v3 extensions:
            X509v3 Basic Constraints: 
                CA:FALSE
            X509v3 Subject Key Identifier: 
                8C:DF:E9:07:C8:66:29:88:90:EF:0B:CE:B3:C5:03:69:26:57:CB:5C
            X509v3 Authority Key Identifier: 
                keyid:75:81:00:C6:85:99:84:74:86:75:E9:63:AD:A3:EF:12:0B:06:4C:DD
                DirName:/CN=team198-net
                serial:4A:77:68:8E:1A:7B:8D:D3:B6:AE:89:18:80:91:AD:72:2C:58:79:F9
            X509v3 Extended Key Usage: 
                TLS Web Server Authentication
            X509v3 Key Usage: 
                Digital Signature, Key Encipherment
            X509v3 Subject Alternative Name: 
                DNS:team198-server
    Signature Algorithm: sha256WithRSAEncryption
    Signature Value:
        8e:5e:b8:3a:b0:cc:34:69:41:00:c6:61:82:36:cd:b6:da:f3:
        ff:6c:ea:a3:18:30:5a:63:30:8a:bf:82:13:85:3e:00:87:84:
        f9:55:c4:dd:48:bc:8e:98:98:f2:2b:d4:40:63:12:f0:28:e3:
        00:fe:f7:d2:b7:98:f7:d6:93:7b:fc:f9:a9:a7:ac:3b:44:20:
        12:4b:83:fa:90:f2:2b:d9:5d:80:62:99:f4:78:bc:ae:3c:a3:
        a4:6a:b3:f0:78:3c:24:85:e5:d0:6a:34:2a:e4:66:a8:3e:62:
        db:5e:c5:5b:c8:fb:2b:92:8f:07:22:f5:52:1d:55:56:09:5c:
        9e:fa:65:b1:4b:1d:80:c4:34:97:7e:13:b1:97:76:c1:8f:1c:
        10:58:4f:50:43:6b:38:40:fe:86:0b:07:e9:1a:35:9b:1c:64:
        0c:1d:70:25:43:88:38:9a:57:04:d5:83:8d:e9:5b:83:ba:39:
        21:d6:e6:a7:3a:43:d9:03:46:7b:78:e4:06:2b:33:0e:b3:91:
        00:40:03:68:7c:7a:fe:cf:85:bb:2b:55:81:13:b2:6f:9b:ae:
        34:2c:bd:d3:00:45:40:b4:c8:3e:1d:d2:c3:a4:7a:08:22:69:
        66:ad:04:f6:8a:a6:81:d4:29:95:35:11:42:82:d9:92:c5:15:
        3a:60:83:87
-----BEGIN CERTIFICATE-----
MIIDeDCCAmCgAwIBAgIRAOnsib+9uS8CpkI1nn931cIwDQYJKoZIhvcNAQELBQAw
FjEUMBIGA1UEAwwLdGVhbTE5OC1uZXQwHhcNMjMxMTA0MTA0NDE2WhcNMjYxMDE5
MTA0NDE2WjAZMRcwFQYDVQQDDA50ZWFtMTk4LXNlcnZlcjCCASIwDQYJKoZIhvcN
AQEBBQADggEPADCCAQoCggEBAK+kkSzWlIU5gKA0Cn7IYxrHisDpfsun8mJglZ1x
tYo6815PMTPR5BCQrw9rtTumCAkEbR8Vswp/XHZj2iiXCXDWbL3+/OsT+kwJUPGI
Vf1a+A3A9x0RCpz9VdmCq51nFMK2RfgzF93GLsQoHZxeY3UYUaPcAoXopc32V63f
qu1uzK9B/0MHc+yY03U7HKAen7QB9KQGUv9+/H+avanyhiASam7YhiDGtgIlZh3G
3CNSmfs85t38/kdNz0j3T0S4Rh0SFiRQv/Tj+2Ttn7/s+Dg0pBqDYRQIYLLymCmq
aGMtYo5+LAj/O+8PXto1cc/pIv1e3V5RXEzIqEM98sxKdjUCAwEAAaOBvTCBujAJ
BgNVHRMEAjAAMB0GA1UdDgQWBBSM3+kHyGYpiJDvC86zxQNpJlfLXDBRBgNVHSME
SjBIgBR1gQDGhZmEdIZ16WOto+8SCwZM3aEapBgwFjEUMBIGA1UEAwwLdGVhbTE5
OC1uZXSCFEp3aI4ae43Ttq6JGICRrXIsWHn5MBMGA1UdJQQMMAoGCCsGAQUFBwMB
MAsGA1UdDwQEAwIFoDAZBgNVHREEEjAQgg50ZWFtMTk4LXNlcnZlcjANBgkqhkiG
9w0BAQsFAAOCAQEAjl64OrDMNGlBAMZhgjbNttrz/2zqoxgwWmMwir+CE4U+AIeE
+VXE3Ui8jpiY8ivUQGMS8CjjAP730reY99aTe/z5qaesO0QgEkuD+pDyK9ldgGKZ
9Hi8rjyjpGqz8Hg8JIXl0Go0KuRmqD5i217FW8j7K5KPByL1Uh1VVglcnvplsUsd
gMQ0l34TsZd2wY8cEFhPUENrOED+hgsH6Ro1mxxkDB1wJUOIOJpXBNWDjelbg7o5
IdbmpzpD2QNGe3jkBiszDrORAEADaHx6/s+FuytVgROyb5uuNCy90wBFQLTIPh3S
w6R6CCJpZq0E9oqmgdQplTURQoLZksUVOmCDhw==
-----END CERTIFICATE-----
