Certificate:
    Data:
        Version: 3 (0x2)
        Serial Number:
            7a:91:a0:61:78:2f:a0:66:76:c6:45:b6:8e:bb:52:47
        Signature Algorithm: sha256WithRSAEncryption
        Issuer: CN=team144-net
        Validity
            Not Before: Nov  4 11:30:24 2023 GMT
            Not After : Oct 19 11:30:24 2026 GMT
        Subject: CN=team144-server
        Subject Public Key Info:
            Public Key Algorithm: rsaEncryption
                Public-Key: (2048 bit)
                Modulus:
                    00:eb:5f:50:03:35:f0:73:ca:9b:f0:41:88:8a:80:
                    a6:36:ef:7e:2b:67:74:bf:0c:e8:af:ce:e4:84:68:
                    48:b9:8c:72:40:1d:19:1b:67:bc:38:aa:41:69:a9:
                    99:7e:29:98:8c:4e:b4:b1:50:d9:d5:0f:a2:28:67:
                    77:29:0e:1b:69:3b:08:a9:53:c6:80:f8:34:0e:40:
                    fd:dc:7e:d2:dd:39:4f:2a:06:54:d4:19:07:87:d0:
                    a8:67:d0:66:6e:ae:84:68:61:bf:37:8e:76:dd:44:
                    98:8c:7c:2b:89:05:43:cc:5a:89:b7:3a:98:8e:45:
                    54:de:63:1a:31:6a:b7:1c:e0:19:6b:6c:1d:c7:36:
                    6a:9c:c6:70:aa:dd:1b:b5:c3:3e:53:df:4d:f1:8e:
                    6b:6b:ec:01:11:31:d6:24:e0:12:09:51:95:97:19:
                    02:bf:2a:69:e8:b0:23:a1:f0:13:f7:a5:26:ca:55:
                    48:19:93:9e:b0:eb:b7:ec:68:db:90:62:9d:6e:62:
                    46:55:00:3a:e9:bb:5e:59:23:b6:85:a8:b9:f9:b9:
                    23:21:83:8d:24:a4:1e:13:89:88:a1:d8:a0:e2:73:
                    24:07:8d:92:37:ec:bf:81:3b:c3:01:df:75:74:f1:
                    18:0a:ba:19:fc:88:2f:10:85:82:b9:a0:6e:db:cf:
                    a2:e1
                Exponent: 65537 (0x10001)
        X509v3 extensions:
            X509v3 Basic Constraints: 
                CA:FALSE
            X509v3 Subject Key Identifier: 
                9C:F1:0B:5A:B8:DD:97:82:0C:02:C6:AA:D3:FE:7B:57:4B:28:7E:03
            X509v3 Authority Key Identifier: 
                keyid:B4:5C:D1:06:24:36:69:A3:EC:08:0B:1E:1E:4F:D0:EC:A0:AC:44:3A
                DirName:/CN=team144-net
                serial:68:06:C8:F1:4B:F9:1E:E4:2C:B8:F6:F8:04:77:0E:F7:EE:77:99:53
            X509v3 Extended Key Usage: 
                TLS Web Server Authentication
            X509v3 Key Usage: 
                Digital Signature, Key Encipherment
            X509v3 Subject Alternative Name: 
                DNS:team144-server
    Signature Algorithm: sha256WithRSAEncryption
    Signature Value:
        9e:2c:53:b8:4f:b4:eb:f3:f4:92:80:42:8e:86:ab:6b:4f:e2:
        7b:32:f5:85:5a:d4:f1:bb:51:37:db:ea:f0:aa:58:53:64:cc:
        83:90:37:0a:94:16:5c:c8:b9:1f:5c:93:18:f6:91:d0:ac:1b:
        3b:60:5a:db:89:7f:d6:45:93:91:8f:d4:54:b7:8a:90:65:91:
        ca:1f:89:9f:91:14:df:86:e1:3e:6c:2a:15:65:90:03:2d:0f:
        53:6c:ef:ba:e5:e4:53:e1:ea:51:5d:83:6a:27:48:ba:74:7e:
        c6:9a:69:d3:e5:72:fb:1f:1d:16:3e:d5:98:ec:42:a6:f6:34:
        d4:8a:da:26:54:66:15:8e:2a:67:09:b4:88:2f:c7:3e:16:03:
        88:86:40:7f:73:e9:ac:7b:f5:03:d7:c7:74:d8:2f:45:2a:e8:
        15:40:c5:9a:b8:37:13:0c:1d:5e:a7:1a:34:66:c4:87:01:55:
        0c:aa:70:07:43:17:26:11:05:dd:ab:04:86:a5:03:b5:a2:b7:
        c4:bc:b0:91:35:22:11:10:e5:95:f1:fd:39:3c:24:51:40:8d:
        85:ba:1b:0c:20:4f:01:cb:52:91:19:ed:9b:07:7c:46:a2:84:
        87:27:8a:3c:96:85:c5:d5:ac:ce:92:38:f0:cf:3b:99:3c:35:
        79:a9:c9:6a
-----BEGIN CERTIFICATE-----
MIIDdzCCAl+gAwIBAgIQepGgYXgvoGZ2xkW2jrtSRzANBgkqhkiG9w0BAQsFADAW
MRQwEgYDVQQDDAt0ZWFtMTQ0LW5ldDAeFw0yMzExMDQxMTMwMjRaFw0yNjEwMTkx
MTMwMjRaMBkxFzAVBgNVBAMMDnRlYW0xNDQtc2VydmVyMIIBIjANBgkqhkiG9w0B
AQEFAAOCAQ8AMIIBCgKCAQEA619QAzXwc8qb8EGIioCmNu9+K2d0vwzor87khGhI
uYxyQB0ZG2e8OKpBaamZfimYjE60sVDZ1Q+iKGd3KQ4baTsIqVPGgPg0DkD93H7S
3TlPKgZU1BkHh9CoZ9Bmbq6EaGG/N4523USYjHwriQVDzFqJtzqYjkVU3mMaMWq3
HOAZa2wdxzZqnMZwqt0btcM+U99N8Y5ra+wBETHWJOASCVGVlxkCvypp6LAjofAT
96UmylVIGZOesOu37GjbkGKdbmJGVQA66bteWSO2hai5+bkjIYONJKQeE4mIodig
4nMkB42SN+y/gTvDAd91dPEYCroZ/IgvEIWCuaBu28+i4QIDAQABo4G9MIG6MAkG
A1UdEwQCMAAwHQYDVR0OBBYEFJzxC1q43ZeCDALGqtP+e1dLKH4DMFEGA1UdIwRK
MEiAFLRc0QYkNmmj7AgLHh5P0OygrEQ6oRqkGDAWMRQwEgYDVQQDDAt0ZWFtMTQ0
LW5ldIIUaAbI8Uv5HuQsuPb4BHcO9+53mVMwEwYDVR0lBAwwCgYIKwYBBQUHAwEw
CwYDVR0PBAQDAgWgMBkGA1UdEQQSMBCCDnRlYW0xNDQtc2VydmVyMA0GCSqGSIb3
DQEBCwUAA4IBAQCeLFO4T7Tr8/SSgEKOhqtrT+J7MvWFWtTxu1E32+rwqlhTZMyD
kDcKlBZcyLkfXJMY9pHQrBs7YFrbiX/WRZORj9RUt4qQZZHKH4mfkRTfhuE+bCoV
ZZADLQ9TbO+65eRT4epRXYNqJ0i6dH7GmmnT5XL7Hx0WPtWY7EKm9jTUitomVGYV
jipnCbSIL8c+FgOIhkB/c+mse/UD18d02C9FKugVQMWauDcTDB1epxo0ZsSHAVUM
qnAHQxcmEQXdqwSGpQO1orfEvLCRNSIREOWV8f05PCRRQI2FuhsMIE8By1KRGe2b
B3xGooSHJ4o8loXF1azOkjjwzzuZPDV5qclq
-----END CERTIFICATE-----
