Certificate:
    Data:
        Version: 3 (0x2)
        Serial Number:
            ae:26:a7:4e:e0:2b:df:9d:66:75:54:1d:c7:f2:20:be
        Signature Algorithm: sha256WithRSAEncryption
        Issuer: CN=team144-net
        Validity
            Not Before: Nov  4 10:43:13 2023 GMT
            Not After : Oct 19 10:43:13 2026 GMT
        Subject: CN=team144-client
        Subject Public Key Info:
            Public Key Algorithm: rsaEncryption
                Public-Key: (2048 bit)
                Modulus:
                    00:b1:f1:c7:54:f7:f3:cd:fa:0a:1f:7b:5c:56:06:
                    0f:6e:be:18:1a:80:7c:f0:86:11:47:55:da:4b:28:
                    3b:59:88:f0:d7:d9:0c:10:56:a8:17:9e:f1:e8:c9:
                    e3:42:f7:84:f0:3b:d0:4c:f9:82:48:87:69:c3:da:
                    bf:c5:a1:72:4e:b4:f4:8b:16:4e:87:42:7a:96:e8:
                    aa:d8:ee:67:f1:e8:3a:1a:53:b5:0f:1e:f8:50:18:
                    dc:57:50:87:1d:5a:a3:93:8a:82:3e:7e:86:68:a2:
                    52:3c:46:4e:6d:87:a2:e1:09:fb:83:95:5c:c2:a3:
                    f7:1d:0e:50:0d:3f:72:68:e3:6e:b8:9c:ec:cb:87:
                    6c:e8:44:6e:b9:2b:1b:30:c3:f3:cd:d6:1c:15:83:
                    48:d6:56:de:78:6f:26:77:8d:11:80:18:18:df:fb:
                    38:50:df:6f:91:08:8c:bf:b8:3b:1a:84:a5:c5:53:
                    34:d1:99:45:2c:80:c5:d3:7b:db:04:51:d8:c2:0e:
                    91:0d:5a:9c:ef:39:36:54:d8:03:a0:a7:cd:00:ea:
                    75:20:66:0f:75:b4:86:b4:1f:ad:32:6f:04:51:81:
                    bb:cd:e3:ed:19:55:c7:c4:6d:f0:99:b7:27:32:31:
                    0a:2c:95:e0:29:da:96:36:7d:fa:0c:ea:fd:b6:43:
                    c4:e9
                Exponent: 65537 (0x10001)
        X509v3 extensions:
            X509v3 Basic Constraints: 
                CA:FALSE
            X509v3 Subject Key Identifier: 
                81:93:F3:2E:6B:84:D4:F8:30:90:46:09:C3:36:3E:E2:C6:31:83:B0
            X509v3 Authority Key Identifier: 
                keyid:E4:8C:97:AE:35:36:DF:EF:89:AE:3C:D2:EC:DF:83:94:9F:6B:02:CC
                DirName:/CN=team144-net
                serial:1F:5F:B8:A1:5A:5A:36:44:88:77:4C:D3:19:47:69:4F:2A:72:95:C8
            X509v3 Extended Key Usage: 
                TLS Web Client Authentication
            X509v3 Key Usage: 
                Digital Signature
    Signature Algorithm: sha256WithRSAEncryption
    Signature Value:
        7a:5c:28:fc:45:ed:b2:f3:38:1a:94:7a:61:3a:9d:d4:d4:ca:
        ab:b4:d9:b7:a9:f9:83:5f:51:da:d9:f2:cf:0a:b3:29:6f:24:
        c0:b4:66:e1:76:b4:07:0b:95:42:e6:08:e2:30:84:4c:3f:dc:
        bd:6d:9b:0b:2f:d1:a2:ca:2c:32:b8:27:34:75:35:ac:67:cd:
        93:2a:5b:58:b7:9b:cb:20:37:d4:70:91:75:23:5f:60:de:1c:
        42:8e:d3:fc:f1:74:83:2a:0d:fc:18:55:a1:22:0c:9f:ac:81:
        c4:01:84:a8:7e:1a:d2:02:a2:bb:51:2f:cd:07:de:9a:ae:55:
        f6:e1:31:e5:09:b4:48:11:4e:d5:53:78:30:16:10:eb:c8:08:
        fc:c3:a2:e1:13:3b:32:31:d1:e6:9b:00:09:2c:bc:69:ec:e0:
        13:8c:2a:47:4e:0b:3d:72:c2:09:8b:12:55:f4:bd:6d:7b:55:
        5e:68:e1:6c:47:82:2c:8d:84:12:96:b4:d6:77:50:c9:8b:6f:
        32:6b:23:d7:16:26:bf:58:cc:d3:54:ac:8c:31:24:47:a3:cb:
        1e:c7:6b:79:11:be:ac:ce:69:19:70:fe:7b:65:d1:ed:93:70:
        59:aa:36:bb:5e:0b:8f:a2:95:47:49:25:5c:e4:9e:e8:7c:ad:
        22:2b:23:7e
-----BEGIN CERTIFICATE-----
MIIDXTCCAkWgAwIBAgIRAK4mp07gK9+dZnVUHcfyIL4wDQYJKoZIhvcNAQELBQAw
FjEUMBIGA1UEAwwLdGVhbTE0NC1uZXQwHhcNMjMxMTA0MTA0MzEzWhcNMjYxMDE5
MTA0MzEzWjAZMRcwFQYDVQQDDA50ZWFtMTQ0LWNsaWVudDCCASIwDQYJKoZIhvcN
AQEBBQADggEPADCCAQoCggEBALHxx1T38836Ch97XFYGD26+GBqAfPCGEUdV2kso
O1mI8NfZDBBWqBee8ejJ40L3hPA70Ez5gkiHacPav8Whck609IsWTodCepboqtju
Z/HoOhpTtQ8e+FAY3FdQhx1ao5OKgj5+hmiiUjxGTm2HouEJ+4OVXMKj9x0OUA0/
cmjjbric7MuHbOhEbrkrGzDD883WHBWDSNZW3nhvJneNEYAYGN/7OFDfb5EIjL+4
OxqEpcVTNNGZRSyAxdN72wRR2MIOkQ1anO85NlTYA6CnzQDqdSBmD3W0hrQfrTJv
BFGBu83j7RlVx8Rt8Jm3JzIxCiyV4CnaljZ9+gzq/bZDxOkCAwEAAaOBojCBnzAJ
BgNVHRMEAjAAMB0GA1UdDgQWBBSBk/Mua4TU+DCQRgnDNj7ixjGDsDBRBgNVHSME
SjBIgBTkjJeuNTbf74muPNLs34OUn2sCzKEapBgwFjEUMBIGA1UEAwwLdGVhbTE0
NC1uZXSCFB9fuKFaWjZEiHdM0xlHaU8qcpXIMBMGA1UdJQQMMAoGCCsGAQUFBwMC
MAsGA1UdDwQEAwIHgDANBgkqhkiG9w0BAQsFAAOCAQEAelwo/EXtsvM4GpR6YTqd
1NTKq7TZt6n5g19R2tnyzwqzKW8kwLRm4Xa0BwuVQuYI4jCETD/cvW2bCy/Rosos
MrgnNHU1rGfNkypbWLebyyA31HCRdSNfYN4cQo7T/PF0gyoN/BhVoSIMn6yBxAGE
qH4a0gKiu1EvzQfemq5V9uEx5Qm0SBFO1VN4MBYQ68gI/MOi4RM7MjHR5psACSy8
aezgE4wqR04LPXLCCYsSVfS9bXtVXmjhbEeCLI2EEpa01ndQyYtvMmsj1xYmv1jM
01SsjDEkR6PLHsdreRG+rM5pGXD+e2XR7ZNwWao2u14Lj6KVR0klXOSe6HytIisj
fg==
-----END CERTIFICATE-----
