Certificate:
    Data:
        Version: 3 (0x2)
        Serial Number:
            d7:2e:a1:ed:5b:a2:a4:5e:7b:94:26:56:2d:78:34:a8
        Signature Algorithm: sha256WithRSAEncryption
        Issuer: CN=team144-net
        Validity
            Not Before: Nov  4 10:43:13 2023 GMT
            Not After : Oct 19 10:43:13 2026 GMT
        Subject: CN=team144-server
        Subject Public Key Info:
            Public Key Algorithm: rsaEncryption
                Public-Key: (2048 bit)
                Modulus:
                    00:bd:6b:17:c0:27:6d:82:04:6a:f4:f0:71:dc:ee:
                    bc:70:c6:a9:84:ad:ed:8a:00:b0:16:18:13:c3:26:
                    c0:37:04:a0:d5:6b:c7:34:2e:09:21:88:b6:82:db:
                    aa:ec:ed:eb:f0:ee:52:ba:97:32:d8:2b:15:4e:2a:
                    19:bd:43:3e:de:2e:6b:b8:e7:ca:ef:a4:04:89:bb:
                    81:63:7e:82:38:1c:95:e2:d7:7f:f9:c4:23:81:36:
                    73:8b:1c:0b:d0:ac:f1:ee:f2:62:f7:15:d6:21:6e:
                    66:cf:fa:b1:62:c3:66:9f:f8:de:5f:f8:21:44:5c:
                    72:91:b3:c3:38:7b:70:81:d7:d1:73:dd:6a:b3:a2:
                    20:6c:4e:b8:f2:08:31:24:5e:61:38:ba:04:2c:c2:
                    ba:ce:51:2c:89:56:23:99:d4:b3:a3:61:02:b4:3f:
                    e5:3c:9f:5e:a4:9d:9d:ed:1c:78:a5:4d:ed:19:a3:
                    48:e9:c2:eb:a0:11:b3:28:3c:60:74:d4:9d:0b:6a:
                    3c:d2:08:21:8d:f2:11:a5:d7:de:bf:fc:54:64:dd:
                    7a:cc:bc:1e:a2:68:9e:06:c0:ae:70:3f:ba:66:08:
                    2a:99:d4:66:f2:51:5e:f9:49:11:a2:45:c3:24:9a:
                    a1:ee:bf:0e:bf:8e:35:4a:f2:32:45:e7:de:e5:45:
                    62:37
                Exponent: 65537 (0x10001)
        X509v3 extensions:
            X509v3 Basic Constraints: 
                CA:FALSE
            X509v3 Subject Key Identifier: 
                AB:81:18:24:CF:D5:3B:A8:AD:57:2B:F3:26:59:B3:37:41:95:E2:07
            X509v3 Authority Key Identifier: 
                keyid:E4:8C:97:AE:35:36:DF:EF:89:AE:3C:D2:EC:DF:83:94:9F:6B:02:CC
                DirName:/CN=team144-net
                serial:1F:5F:B8:A1:5A:5A:36:44:88:77:4C:D3:19:47:69:4F:2A:72:95:C8
            X509v3 Extended Key Usage: 
                TLS Web Server Authentication
            X509v3 Key Usage: 
                Digital Signature, Key Encipherment
            X509v3 Subject Alternative Name: 
                DNS:team144-server
    Signature Algorithm: sha256WithRSAEncryption
    Signature Value:
        58:1e:07:91:14:8d:aa:03:ef:cc:07:2c:99:ff:ba:9b:1e:f5:
        75:75:48:91:06:5e:f7:e1:60:e1:85:cd:80:86:c1:8a:c6:c2:
        58:a4:30:8c:2b:8b:d6:80:8c:7e:fe:89:aa:d7:df:22:2c:df:
        e4:29:5e:55:12:48:97:9a:88:f0:42:3c:e9:70:ca:23:08:40:
        b3:d9:a6:bf:4f:dd:b4:3d:37:da:d6:31:9f:e3:37:7c:8c:b0:
        0b:93:5f:e4:05:85:50:e1:5b:49:8d:6e:e0:e5:6b:c9:eb:cc:
        c5:e7:19:d0:e3:3d:20:b6:4a:ff:0e:1f:8a:5d:94:a0:ff:61:
        02:e2:10:20:29:75:23:3a:bc:fa:41:3f:4c:cb:ae:0d:7b:dd:
        73:83:4a:3a:cd:fe:ff:5f:66:18:1a:fe:95:86:59:a5:ed:4d:
        36:af:fa:48:80:ef:e4:50:ad:9d:0a:8b:72:fd:5a:56:3b:4b:
        66:8b:43:9c:09:a8:14:51:09:2a:1d:44:e0:f2:1e:ab:31:12:
        9c:ae:38:fc:5b:4e:9c:a2:28:69:40:08:95:ff:89:69:91:e1:
        88:e0:70:5d:27:72:dd:ab:04:1b:1f:57:5f:55:a2:14:df:25:
        cf:e9:46:c2:7d:62:31:cf:0b:dd:35:8e:99:1d:08:57:5d:08:
        71:3c:4e:c6
-----BEGIN CERTIFICATE-----
MIIDeDCCAmCgAwIBAgIRANcuoe1boqRee5QmVi14NKgwDQYJKoZIhvcNAQELBQAw
FjEUMBIGA1UEAwwLdGVhbTE0NC1uZXQwHhcNMjMxMTA0MTA0MzEzWhcNMjYxMDE5
MTA0MzEzWjAZMRcwFQYDVQQDDA50ZWFtMTQ0LXNlcnZlcjCCASIwDQYJKoZIhvcN
AQEBBQADggEPADCCAQoCggEBAL1rF8AnbYIEavTwcdzuvHDGqYSt7YoAsBYYE8Mm
wDcEoNVrxzQuCSGItoLbquzt6/DuUrqXMtgrFU4qGb1DPt4ua7jnyu+kBIm7gWN+
gjgcleLXf/nEI4E2c4scC9Cs8e7yYvcV1iFuZs/6sWLDZp/43l/4IURccpGzwzh7
cIHX0XPdarOiIGxOuPIIMSReYTi6BCzCus5RLIlWI5nUs6NhArQ/5TyfXqSdne0c
eKVN7RmjSOnC66ARsyg8YHTUnQtqPNIIIY3yEaXX3r/8VGTdesy8HqJongbArnA/
umYIKpnUZvJRXvlJEaJFwySaoe6/Dr+ONUryMkXn3uVFYjcCAwEAAaOBvTCBujAJ
BgNVHRMEAjAAMB0GA1UdDgQWBBSrgRgkz9U7qK1XK/MmWbM3QZXiBzBRBgNVHSME
SjBIgBTkjJeuNTbf74muPNLs34OUn2sCzKEapBgwFjEUMBIGA1UEAwwLdGVhbTE0
NC1uZXSCFB9fuKFaWjZEiHdM0xlHaU8qcpXIMBMGA1UdJQQMMAoGCCsGAQUFBwMB
MAsGA1UdDwQEAwIFoDAZBgNVHREEEjAQgg50ZWFtMTQ0LXNlcnZlcjANBgkqhkiG
9w0BAQsFAAOCAQEAWB4HkRSNqgPvzAcsmf+6mx71dXVIkQZe9+Fg4YXNgIbBisbC
WKQwjCuL1oCMfv6JqtffIizf5CleVRJIl5qI8EI86XDKIwhAs9mmv0/dtD032tYx
n+M3fIywC5Nf5AWFUOFbSY1u4OVryevMxecZ0OM9ILZK/w4fil2UoP9hAuIQICl1
Izq8+kE/TMuuDXvdc4NKOs3+/19mGBr+lYZZpe1NNq/6SIDv5FCtnQqLcv1aVjtL
ZotDnAmoFFEJKh1E4PIeqzESnK44/FtOnKIoaUAIlf+JaZHhiOBwXSdy3asEGx9X
X1WiFN8lz+lGwn1iMc8L3TWOmR0IV10IcTxOxg==
-----END CERTIFICATE-----
