Certificate:
    Data:
        Version: 3 (0x2)
        Serial Number:
            ed:61:63:b7:da:33:f6:c3:21:be:33:03:dc:c6:19:a5
        Signature Algorithm: sha256WithRSAEncryption
        Issuer: CN=team144-net
        Validity
            Not Before: Nov  3 20:41:48 2023 GMT
            Not After : Oct 18 20:41:48 2026 GMT
        Subject: CN=team144-server
        Subject Public Key Info:
            Public Key Algorithm: rsaEncryption
                Public-Key: (2048 bit)
                Modulus:
                    00:95:bd:71:62:db:cb:81:c5:ee:70:ca:19:35:7c:
                    cf:f8:d2:dc:95:96:71:01:09:5b:db:76:69:66:3d:
                    83:6c:b3:4a:13:79:b5:68:fd:7f:f1:8b:50:c2:1f:
                    dc:07:0b:89:ee:71:e9:fe:39:8b:c2:a9:a5:1e:41:
                    ae:24:ca:0a:ad:0f:2a:37:0b:c5:19:bd:c1:fd:6a:
                    e0:fe:09:f2:f9:85:32:79:aa:7b:96:b1:c3:fd:e9:
                    4e:b4:e5:13:d6:1a:d7:eb:b9:6e:34:a5:40:b4:f6:
                    f1:7e:7d:52:df:c7:90:82:b0:d3:62:cb:9d:56:ad:
                    f1:0e:66:3c:c3:6d:97:46:8a:68:23:33:4a:e2:71:
                    53:52:a9:bb:6e:a8:7a:5b:2f:f1:c3:cc:b3:4a:fd:
                    df:e9:5e:88:7e:63:74:62:ac:d8:14:39:3a:dc:32:
                    a9:0e:e6:4e:9b:eb:a9:81:a2:40:33:35:66:29:f7:
                    1c:20:f1:53:0a:ed:40:96:11:a3:59:20:e4:de:e3:
                    26:4b:72:3b:b6:c6:92:84:a0:7c:66:a1:fb:3c:38:
                    2b:aa:52:bc:29:db:3f:3a:f9:34:87:1f:32:0d:8e:
                    56:c1:93:50:ae:dd:a9:c4:18:cd:0b:84:fb:97:39:
                    8a:30:f0:b8:5f:62:c0:b2:a1:ba:b2:1d:42:88:6c:
                    82:fd
                Exponent: 65537 (0x10001)
        X509v3 extensions:
            X509v3 Basic Constraints: 
                CA:FALSE
            X509v3 Subject Key Identifier: 
                AC:73:6D:FF:87:A9:1E:C0:72:67:33:08:DA:CB:C3:A6:F5:E5:A5:4D
            X509v3 Authority Key Identifier: 
                keyid:61:24:CC:7F:31:5D:AC:CA:D8:F0:E9:E9:0E:D6:0B:91:E7:6B:F3:AF
                DirName:/CN=team144-net
                serial:55:E9:C6:9D:B4:6C:E5:9D:63:4A:C3:99:4B:AA:AD:39:AF:0B:F7:72
            X509v3 Extended Key Usage: 
                TLS Web Server Authentication
            X509v3 Key Usage: 
                Digital Signature, Key Encipherment
            X509v3 Subject Alternative Name: 
                DNS:team144-server
    Signature Algorithm: sha256WithRSAEncryption
    Signature Value:
        0c:d4:94:8a:36:97:61:e2:5e:c5:2f:75:8f:4b:2a:f7:4d:13:
        f5:be:86:4a:e7:a4:da:4e:fc:5c:99:c7:ef:37:ad:dc:d4:d2:
        71:17:95:41:38:4e:19:56:72:7b:dd:c1:ce:27:29:9b:a8:40:
        1b:ed:7e:68:50:a0:fd:5b:a6:40:6e:48:a9:96:6b:dc:7f:82:
        db:6d:f0:f3:15:fe:ce:d1:64:f0:24:5c:5a:67:7f:5f:de:22:
        f0:32:0b:e3:a1:85:59:86:09:4a:49:f2:ed:3e:61:86:a5:21:
        e3:e2:ce:f3:75:a2:55:0a:36:63:6d:31:0b:2d:e6:f3:d8:b8:
        58:6f:5f:92:72:a2:85:f1:e5:72:32:db:da:e2:b3:e9:83:f0:
        18:85:85:40:ed:dd:cc:c1:43:6a:f0:27:26:5d:6a:97:b0:75:
        69:a2:5b:cf:ad:60:42:0c:f6:90:14:3b:8b:fd:5d:52:1e:57:
        16:cb:84:19:32:db:08:94:ca:8e:04:0c:45:cc:3b:bd:e8:a5:
        0b:2b:e5:65:88:73:52:a8:0d:c9:6b:38:1d:20:17:45:52:cc:
        60:97:e6:48:72:70:32:58:bb:1a:6b:a6:44:31:ff:ca:dc:44:
        45:39:4a:da:0b:d6:53:7d:ff:95:7a:95:de:50:67:74:e5:71:
        3e:7f:a1:fc
-----BEGIN CERTIFICATE-----
MIIDeDCCAmCgAwIBAgIRAO1hY7faM/bDIb4zA9zGGaUwDQYJKoZIhvcNAQELBQAw
FjEUMBIGA1UEAwwLdGVhbTE0NC1uZXQwHhcNMjMxMTAzMjA0MTQ4WhcNMjYxMDE4
MjA0MTQ4WjAZMRcwFQYDVQQDDA50ZWFtMTQ0LXNlcnZlcjCCASIwDQYJKoZIhvcN
AQEBBQADggEPADCCAQoCggEBAJW9cWLby4HF7nDKGTV8z/jS3JWWcQEJW9t2aWY9
g2yzShN5tWj9f/GLUMIf3AcLie5x6f45i8KppR5BriTKCq0PKjcLxRm9wf1q4P4J
8vmFMnmqe5axw/3pTrTlE9Ya1+u5bjSlQLT28X59Ut/HkIKw02LLnVat8Q5mPMNt
l0aKaCMzSuJxU1Kpu26oelsv8cPMs0r93+leiH5jdGKs2BQ5OtwyqQ7mTpvrqYGi
QDM1Zin3HCDxUwrtQJYRo1kg5N7jJktyO7bGkoSgfGah+zw4K6pSvCnbPzr5NIcf
Mg2OVsGTUK7dqcQYzQuE+5c5ijDwuF9iwLKhurIdQohsgv0CAwEAAaOBvTCBujAJ
BgNVHRMEAjAAMB0GA1UdDgQWBBSsc23/h6kewHJnMwjay8Om9eWlTTBRBgNVHSME
SjBIgBRhJMx/MV2sytjw6ekO1guR52vzr6EapBgwFjEUMBIGA1UEAwwLdGVhbTE0
NC1uZXSCFFXpxp20bOWdY0rDmUuqrTmvC/dyMBMGA1UdJQQMMAoGCCsGAQUFBwMB
MAsGA1UdDwQEAwIFoDAZBgNVHREEEjAQgg50ZWFtMTQ0LXNlcnZlcjANBgkqhkiG
9w0BAQsFAAOCAQEADNSUijaXYeJexS91j0sq900T9b6GSuek2k78XJnH7zet3NTS
cReVQThOGVZye93Bzicpm6hAG+1+aFCg/VumQG5IqZZr3H+C223w8xX+ztFk8CRc
Wmd/X94i8DIL46GFWYYJSkny7T5hhqUh4+LO83WiVQo2Y20xCy3m89i4WG9fknKi
hfHlcjLb2uKz6YPwGIWFQO3dzMFDavAnJl1ql7B1aaJbz61gQgz2kBQ7i/1dUh5X
FsuEGTLbCJTKjgQMRcw7veilCyvlZYhzUqgNyWs4HSAXRVLMYJfmSHJwMli7Gmum
RDH/ytxERTlK2gvWU33/lXqV3lBndOVxPn+h/A==
-----END CERTIFICATE-----
