Certificate:
    Data:
        Version: 3 (0x2)
        Serial Number:
            65:df:82:c7:34:e9:0d:1e:2d:5b:ee:a9:72:f7:c6:22
        Signature Algorithm: sha256WithRSAEncryption
        Issuer: CN=team275-net
        Validity
            Not Before: Nov  4 10:45:45 2023 GMT
            Not After : Oct 19 10:45:45 2026 GMT
        Subject: CN=team275-server
        Subject Public Key Info:
            Public Key Algorithm: rsaEncryption
                Public-Key: (2048 bit)
                Modulus:
                    00:9c:e5:0b:47:0f:1b:fc:11:bd:b7:bf:5d:66:ff:
                    36:41:ae:23:c2:41:e1:1f:58:d0:73:b7:41:cb:36:
                    90:72:62:4f:d5:08:e2:ac:9f:36:64:b1:17:ca:09:
                    90:52:59:5b:86:a6:6e:27:23:60:1d:78:e6:39:38:
                    e9:16:6e:c0:93:d1:25:6d:98:6a:c5:9b:98:19:f2:
                    f4:f9:57:d1:c1:2b:a5:dc:fa:81:96:0a:3e:b8:fd:
                    c7:73:6a:64:c7:67:60:47:63:f6:3d:9a:c2:31:15:
                    4e:71:06:39:ae:11:9f:c5:81:12:8c:09:64:2b:b7:
                    b8:fd:d5:06:55:de:83:b7:61:a0:7a:be:aa:7e:35:
                    b6:f0:83:73:1b:b4:bd:38:e0:37:72:63:dc:58:f8:
                    af:bc:16:f6:a3:96:e4:b6:91:5a:21:ac:0d:1a:f0:
                    e5:d3:86:3f:3d:27:aa:5a:8b:7b:fc:f7:5a:8b:8f:
                    08:44:d6:49:7f:48:43:e0:bf:50:22:60:0b:c4:a6:
                    71:95:19:d1:b1:30:b0:b4:97:ec:05:8b:39:9e:11:
                    68:ba:ef:6a:01:a8:97:49:1f:35:68:9d:fe:f5:4e:
                    53:46:7a:e4:bb:79:86:c6:ef:f9:e2:ae:ab:a4:09:
                    c4:22:f0:bd:72:2d:be:04:b7:9a:f5:f5:74:e1:1b:
                    fc:d1
                Exponent: 65537 (0x10001)
        X509v3 extensions:
            X509v3 Basic Constraints: 
                CA:FALSE
            X509v3 Subject Key Identifier: 
                AC:FB:6E:3F:BC:60:62:34:E7:F6:04:8D:B9:B8:86:DC:C4:2C:DB:8F
            X509v3 Authority Key Identifier: 
                keyid:23:F3:C0:18:19:64:B8:6C:60:BA:A1:13:5F:E5:20:6C:BF:10:CD:19
                DirName:/CN=team275-net
                serial:0C:0D:6D:8B:EC:DF:F4:DD:43:31:57:B0:9C:28:3D:B1:B7:67:AD:CF
            X509v3 Extended Key Usage: 
                TLS Web Server Authentication
            X509v3 Key Usage: 
                Digital Signature, Key Encipherment
            X509v3 Subject Alternative Name: 
                DNS:team275-server
    Signature Algorithm: sha256WithRSAEncryption
    Signature Value:
        4f:57:d7:b9:83:20:97:f5:64:ad:fe:2e:28:02:5f:8b:02:0d:
        97:7a:0b:fc:75:9c:96:28:77:8d:bd:8a:3c:e2:e3:a6:51:c8:
        b4:0d:77:ce:f1:f1:60:cc:d4:27:59:83:20:98:01:f6:e4:c1:
        de:5d:38:a0:e1:f0:f8:92:a4:db:23:d5:b9:2a:1c:44:59:9d:
        a2:65:ba:d0:46:57:ec:51:69:4b:c7:06:74:21:88:30:09:6c:
        78:14:68:9d:67:6e:48:6f:26:35:3a:43:7e:c7:3d:a6:99:ad:
        12:ef:01:89:4f:f1:d3:87:30:b3:dc:fa:45:e1:c4:a4:bb:36:
        c6:c6:56:df:e6:c2:c7:ba:87:02:3a:34:18:24:0d:22:9e:65:
        4e:c6:bb:3c:62:e1:c7:44:81:aa:f5:93:fa:89:02:f0:ae:08:
        25:0a:c7:e1:91:08:a7:16:9a:a2:cb:07:79:72:ba:1e:04:14:
        eb:b2:ab:7f:dc:4a:81:9f:2b:57:39:a4:cf:6b:6b:f1:d3:ec:
        3c:ea:f2:f4:84:01:00:39:c2:fe:b1:28:d7:b8:89:70:6a:2c:
        da:58:d8:a0:08:cf:d7:59:83:97:95:0f:96:da:52:4f:aa:2d:
        87:fd:33:bb:18:17:7d:8d:06:34:50:6a:df:51:aa:5c:fc:e6:
        ef:ab:dc:89
-----BEGIN CERTIFICATE-----
MIIDdzCCAl+gAwIBAgIQZd+CxzTpDR4tW+6pcvfGIjANBgkqhkiG9w0BAQsFADAW
MRQwEgYDVQQDDAt0ZWFtMjc1LW5ldDAeFw0yMzExMDQxMDQ1NDVaFw0yNjEwMTkx
MDQ1NDVaMBkxFzAVBgNVBAMMDnRlYW0yNzUtc2VydmVyMIIBIjANBgkqhkiG9w0B
AQEFAAOCAQ8AMIIBCgKCAQEAnOULRw8b/BG9t79dZv82Qa4jwkHhH1jQc7dByzaQ
cmJP1QjirJ82ZLEXygmQUllbhqZuJyNgHXjmOTjpFm7Ak9ElbZhqxZuYGfL0+VfR
wSul3PqBlgo+uP3Hc2pkx2dgR2P2PZrCMRVOcQY5rhGfxYESjAlkK7e4/dUGVd6D
t2Gger6qfjW28INzG7S9OOA3cmPcWPivvBb2o5bktpFaIawNGvDl04Y/PSeqWot7
/Pdai48IRNZJf0hD4L9QImALxKZxlRnRsTCwtJfsBYs5nhFouu9qAaiXSR81aJ3+
9U5TRnrku3mGxu/54q6rpAnEIvC9ci2+BLea9fV04Rv80QIDAQABo4G9MIG6MAkG
A1UdEwQCMAAwHQYDVR0OBBYEFKz7bj+8YGI05/YEjbm4htzELNuPMFEGA1UdIwRK
MEiAFCPzwBgZZLhsYLqhE1/lIGy/EM0ZoRqkGDAWMRQwEgYDVQQDDAt0ZWFtMjc1
LW5ldIIUDA1ti+zf9N1DMVewnCg9sbdnrc8wEwYDVR0lBAwwCgYIKwYBBQUHAwEw
CwYDVR0PBAQDAgWgMBkGA1UdEQQSMBCCDnRlYW0yNzUtc2VydmVyMA0GCSqGSIb3
DQEBCwUAA4IBAQBPV9e5gyCX9WSt/i4oAl+LAg2Xegv8dZyWKHeNvYo84uOmUci0
DXfO8fFgzNQnWYMgmAH25MHeXTig4fD4kqTbI9W5KhxEWZ2iZbrQRlfsUWlLxwZ0
IYgwCWx4FGidZ25IbyY1OkN+xz2mma0S7wGJT/HThzCz3PpF4cSkuzbGxlbf5sLH
uocCOjQYJA0inmVOxrs8YuHHRIGq9ZP6iQLwrgglCsfhkQinFpqiywd5croeBBTr
sqt/3EqBnytXOaTPa2vx0+w86vL0hAEAOcL+sSjXuIlwaizaWNigCM/XWYOXlQ+W
2lJPqi2H/TO7GBd9jQY0UGrfUapc/Obvq9yJ
-----END CERTIFICATE-----
