Certificate:
    Data:
        Version: 3 (0x2)
        Serial Number:
            68:e2:da:95:46:b3:ba:e8:30:e5:3a:e0:bd:dd:b3:43
        Signature Algorithm: sha256WithRSAEncryption
        Issuer: CN=team275-net
        Validity
            Not Before: Nov  4 10:45:45 2023 GMT
            Not After : Oct 19 10:45:45 2026 GMT
        Subject: CN=team275-client
        Subject Public Key Info:
            Public Key Algorithm: rsaEncryption
                Public-Key: (2048 bit)
                Modulus:
                    00:ca:b3:de:6f:0d:d2:e1:19:95:46:c3:bd:4a:38:
                    22:a6:c4:94:55:f1:31:e2:a6:2f:81:9c:1f:fd:ee:
                    26:9c:0c:b4:bb:03:71:15:37:da:fe:90:81:f1:92:
                    e1:ed:fa:38:c0:fd:2c:61:46:87:12:64:a2:ab:e7:
                    a2:bc:eb:62:30:66:3b:f9:eb:13:8e:12:7e:94:86:
                    00:dd:bd:4a:7c:25:0e:e5:a8:8e:65:ab:e4:ba:e3:
                    12:9c:19:8f:99:ea:b7:13:31:91:6e:fd:29:95:ac:
                    aa:e6:42:4d:23:6a:37:53:6a:0a:b6:b2:cf:21:18:
                    90:38:9e:04:8a:a0:ea:08:75:9b:95:99:77:ca:2c:
                    16:b2:43:63:4f:85:31:55:c4:ae:88:e2:6e:ac:c6:
                    8a:c5:22:40:75:ac:ea:e6:34:67:8a:e8:99:a8:1e:
                    56:3f:7e:13:ec:44:98:7d:24:eb:cf:65:1e:8a:ef:
                    70:6b:34:ea:0e:2a:67:4b:ad:34:d9:b1:72:f0:9d:
                    86:b3:1f:41:a0:ae:fa:dc:2d:3a:ae:9d:b2:c3:f5:
                    ff:8f:de:00:7b:63:63:25:ff:45:60:6e:99:d5:c1:
                    1f:64:c3:90:d3:5c:ba:6f:5c:29:00:48:93:2b:71:
                    41:22:d2:94:71:3d:ff:28:fe:00:ca:bd:f1:98:f8:
                    73:d1
                Exponent: 65537 (0x10001)
        X509v3 extensions:
            X509v3 Basic Constraints: 
                CA:FALSE
            X509v3 Subject Key Identifier: 
                65:9A:44:E1:95:A7:9F:53:A7:43:C9:0F:04:99:D4:E5:0B:B0:30:D5
            X509v3 Authority Key Identifier: 
                keyid:23:F3:C0:18:19:64:B8:6C:60:BA:A1:13:5F:E5:20:6C:BF:10:CD:19
                DirName:/CN=team275-net
                serial:0C:0D:6D:8B:EC:DF:F4:DD:43:31:57:B0:9C:28:3D:B1:B7:67:AD:CF
            X509v3 Extended Key Usage: 
                TLS Web Client Authentication
            X509v3 Key Usage: 
                Digital Signature
    Signature Algorithm: sha256WithRSAEncryption
    Signature Value:
        49:3a:eb:cf:d8:d5:67:0c:a2:47:4b:ae:08:85:e9:99:9a:c9:
        a1:38:6a:3e:d2:a3:3a:85:36:46:2d:11:5f:32:c3:32:89:b1:
        86:9e:23:5c:bf:a9:b7:9b:25:52:35:0e:f5:5a:23:ba:36:4b:
        a1:c8:e4:5c:4f:a5:64:d3:4b:9f:4a:e6:6c:ee:81:53:b3:5d:
        df:2f:ab:ad:2e:4d:22:1f:16:87:46:a7:bc:41:82:f7:e9:10:
        61:52:f7:05:64:4e:f3:e7:b6:d2:f3:6d:36:83:69:1b:6e:e5:
        50:79:01:98:2a:5e:9f:7e:a0:6f:f7:f6:f4:92:64:60:a5:93:
        18:3b:46:c1:17:eb:82:6a:d7:c4:c4:04:aa:ef:ed:27:67:32:
        a8:c3:93:ad:d8:0a:17:16:75:f9:03:7c:74:90:2e:08:61:51:
        74:44:69:17:23:80:76:8d:8b:81:aa:77:a9:e2:31:ca:e8:25:
        c6:04:6a:76:93:a4:c7:bd:a8:46:8c:c7:09:c6:88:a2:ae:fb:
        87:b6:45:27:f9:5c:1f:01:cf:06:f5:83:f9:40:4e:98:af:1c:
        40:a6:74:1c:96:bd:38:e0:a6:79:be:53:eb:2f:6d:61:14:d4:
        59:6c:ed:64:d0:a8:0b:53:0a:0d:0b:d0:cd:68:60:f0:b0:b9:
        53:c9:26:69
-----BEGIN CERTIFICATE-----
MIIDXDCCAkSgAwIBAgIQaOLalUazuugw5Trgvd2zQzANBgkqhkiG9w0BAQsFADAW
MRQwEgYDVQQDDAt0ZWFtMjc1LW5ldDAeFw0yMzExMDQxMDQ1NDVaFw0yNjEwMTkx
MDQ1NDVaMBkxFzAVBgNVBAMMDnRlYW0yNzUtY2xpZW50MIIBIjANBgkqhkiG9w0B
AQEFAAOCAQ8AMIIBCgKCAQEAyrPebw3S4RmVRsO9SjgipsSUVfEx4qYvgZwf/e4m
nAy0uwNxFTfa/pCB8ZLh7fo4wP0sYUaHEmSiq+eivOtiMGY7+esTjhJ+lIYA3b1K
fCUO5aiOZavkuuMSnBmPmeq3EzGRbv0playq5kJNI2o3U2oKtrLPIRiQOJ4EiqDq
CHWblZl3yiwWskNjT4UxVcSuiOJurMaKxSJAdazq5jRniuiZqB5WP34T7ESYfSTr
z2Ueiu9wazTqDipnS6002bFy8J2Gsx9BoK763C06rp2yw/X/j94Ae2NjJf9FYG6Z
1cEfZMOQ01y6b1wpAEiTK3FBItKUcT3/KP4Ayr3xmPhz0QIDAQABo4GiMIGfMAkG
A1UdEwQCMAAwHQYDVR0OBBYEFGWaROGVp59Tp0PJDwSZ1OULsDDVMFEGA1UdIwRK
MEiAFCPzwBgZZLhsYLqhE1/lIGy/EM0ZoRqkGDAWMRQwEgYDVQQDDAt0ZWFtMjc1
LW5ldIIUDA1ti+zf9N1DMVewnCg9sbdnrc8wEwYDVR0lBAwwCgYIKwYBBQUHAwIw
CwYDVR0PBAQDAgeAMA0GCSqGSIb3DQEBCwUAA4IBAQBJOuvP2NVnDKJHS64IhemZ
msmhOGo+0qM6hTZGLRFfMsMyibGGniNcv6m3myVSNQ71WiO6NkuhyORcT6Vk00uf
SuZs7oFTs13fL6utLk0iHxaHRqe8QYL36RBhUvcFZE7z57bS8202g2kbbuVQeQGY
Kl6ffqBv9/b0kmRgpZMYO0bBF+uCatfExASq7+0nZzKow5Ot2AoXFnX5A3x0kC4I
YVF0RGkXI4B2jYuBqnep4jHK6CXGBGp2k6THvahGjMcJxoiirvuHtkUn+VwfAc8G
9YP5QE6YrxxApnQclr044KZ5vlPrL21hFNRZbO1k0KgLUwoNC9DNaGDwsLlTySZp
-----END CERTIFICATE-----
