Certificate:
    Data:
        Version: 3 (0x2)
        Serial Number:
            e3:64:a5:fc:ac:d6:18:16:7f:46:b4:f5:0e:8d:99:66
        Signature Algorithm: sha256WithRSAEncryption
        Issuer: CN=team275-net
        Validity
            Not Before: Nov  4 11:33:12 2023 GMT
            Not After : Oct 19 11:33:12 2026 GMT
        Subject: CN=team275-client
        Subject Public Key Info:
            Public Key Algorithm: rsaEncryption
                Public-Key: (2048 bit)
                Modulus:
                    00:bd:68:51:8c:05:75:ca:c7:12:a7:04:ee:66:6d:
                    33:72:e5:ac:28:2a:e6:0f:06:d1:87:11:ad:2c:b4:
                    1f:5d:8d:d1:a9:b6:35:84:96:67:f3:ca:44:61:12:
                    9d:94:d2:88:2d:5e:9d:74:e2:d0:d9:fd:11:9e:e5:
                    7d:de:c2:75:78:c3:be:bf:78:aa:0c:f2:81:67:58:
                    48:78:76:73:9b:4a:54:69:a8:86:a4:b1:5b:e3:f2:
                    c6:af:d0:ed:66:de:1a:0a:b7:3a:61:ff:ef:eb:64:
                    fd:d8:c4:74:bb:82:61:35:cb:7e:44:68:2d:03:5f:
                    c7:e3:29:61:da:69:d7:cd:2f:24:86:9c:57:6d:e0:
                    fe:4e:c9:69:f9:d6:3e:51:8e:16:8e:7a:70:fd:dd:
                    92:78:87:a2:82:be:49:0d:f7:40:f5:58:57:12:37:
                    eb:09:9d:bd:f4:c5:c7:85:8e:e6:d9:d9:60:c1:03:
                    ec:e7:4c:79:07:86:ee:ad:d5:4d:fd:25:ac:34:00:
                    68:08:46:8e:ef:77:de:cc:1b:25:dc:d8:ae:5e:a1:
                    f3:c2:31:03:5c:f0:52:4b:b3:be:70:b8:52:c6:a7:
                    4f:70:b6:01:87:c6:cd:bf:a0:cd:7c:82:89:10:4a:
                    d0:77:49:d2:87:54:19:8d:c9:62:ba:07:85:c6:7c:
                    a8:a3
                Exponent: 65537 (0x10001)
        X509v3 extensions:
            X509v3 Basic Constraints: 
                CA:FALSE
            X509v3 Subject Key Identifier: 
                11:D5:51:87:DE:1D:4D:12:71:BA:19:AB:36:EF:E8:72:F6:04:65:1D
            X509v3 Authority Key Identifier: 
                keyid:EA:68:B7:D5:30:93:33:23:0B:8D:86:C6:AE:B7:D1:02:20:96:67:22
                DirName:/CN=team275-net
                serial:6F:12:5F:D0:6A:BE:F0:B0:F5:F4:C1:39:C9:D3:16:C9:57:6C:3C:7A
            X509v3 Extended Key Usage: 
                TLS Web Client Authentication
            X509v3 Key Usage: 
                Digital Signature
    Signature Algorithm: sha256WithRSAEncryption
    Signature Value:
        23:33:d8:b0:13:cd:bf:c6:ba:5e:9e:72:5f:67:9e:b3:b8:dd:
        52:2d:2f:7c:c5:1b:e4:f4:97:ee:41:7d:b7:32:56:c8:ee:85:
        79:42:fb:49:b2:c9:a1:a2:3e:32:9a:7f:ac:38:8e:89:9f:b6:
        84:27:8e:a9:80:f8:61:be:cb:7d:f8:85:2a:37:09:91:7a:86:
        c6:d2:92:c1:b5:53:99:14:29:2a:10:6e:b3:de:4e:5c:bc:d4:
        aa:9c:f1:28:75:76:11:a2:59:ff:b6:f5:1d:c9:67:d1:e6:36:
        85:a6:68:ae:49:e5:60:54:8e:96:d3:b0:83:d8:d7:0e:f6:5a:
        0f:f3:c6:33:0c:30:23:f6:b5:49:66:e3:90:03:9e:a8:75:c8:
        c1:c3:12:ba:b9:a7:a6:9b:3b:13:dd:4f:6e:37:39:7d:8c:57:
        cf:e3:7d:cd:5d:d7:ee:d2:97:b6:3a:1f:3e:15:c5:99:bb:48:
        9d:8c:15:64:8e:85:67:99:3e:92:b1:3a:b0:58:aa:ef:38:e5:
        ed:a3:ff:fa:2e:cd:7a:49:46:1f:17:c5:5a:12:c7:1f:55:b6:
        75:27:45:56:19:c3:75:bd:41:0f:36:64:2f:7c:a9:63:f1:2d:
        88:f1:48:13:9e:8d:78:aa:c7:95:aa:c1:0b:f8:ba:39:16:25:
        72:d2:b8:7d
-----BEGIN CERTIFICATE-----
MIIDXTCCAkWgAwIBAgIRAONkpfys1hgWf0a09Q6NmWYwDQYJKoZIhvcNAQELBQAw
FjEUMBIGA1UEAwwLdGVhbTI3NS1uZXQwHhcNMjMxMTA0MTEzMzEyWhcNMjYxMDE5
MTEzMzEyWjAZMRcwFQYDVQQDDA50ZWFtMjc1LWNsaWVudDCCASIwDQYJKoZIhvcN
AQEBBQADggEPADCCAQoCggEBAL1oUYwFdcrHEqcE7mZtM3LlrCgq5g8G0YcRrSy0
H12N0am2NYSWZ/PKRGESnZTSiC1enXTi0Nn9EZ7lfd7CdXjDvr94qgzygWdYSHh2
c5tKVGmohqSxW+Pyxq/Q7WbeGgq3OmH/7+tk/djEdLuCYTXLfkRoLQNfx+MpYdpp
180vJIacV23g/k7JafnWPlGOFo56cP3dkniHooK+SQ33QPVYVxI36wmdvfTFx4WO
5tnZYMED7OdMeQeG7q3VTf0lrDQAaAhGju933swbJdzYrl6h88IxA1zwUkuzvnC4
UsanT3C2AYfGzb+gzXyCiRBK0HdJ0odUGY3JYroHhcZ8qKMCAwEAAaOBojCBnzAJ
BgNVHRMEAjAAMB0GA1UdDgQWBBQR1VGH3h1NEnG6Gas27+hy9gRlHTBRBgNVHSME
SjBIgBTqaLfVMJMzIwuNhsaut9ECIJZnIqEapBgwFjEUMBIGA1UEAwwLdGVhbTI3
NS1uZXSCFG8SX9BqvvCw9fTBOcnTFslXbDx6MBMGA1UdJQQMMAoGCCsGAQUFBwMC
MAsGA1UdDwQEAwIHgDANBgkqhkiG9w0BAQsFAAOCAQEAIzPYsBPNv8a6Xp5yX2ee
s7jdUi0vfMUb5PSX7kF9tzJWyO6FeUL7SbLJoaI+Mpp/rDiOiZ+2hCeOqYD4Yb7L
ffiFKjcJkXqGxtKSwbVTmRQpKhBus95OXLzUqpzxKHV2EaJZ/7b1Hcln0eY2haZo
rknlYFSOltOwg9jXDvZaD/PGMwwwI/a1SWbjkAOeqHXIwcMSurmnpps7E91Pbjc5
fYxXz+N9zV3X7tKXtjofPhXFmbtInYwVZI6FZ5k+krE6sFiq7zjl7aP/+i7NeklG
HxfFWhLHH1W2dSdFVhnDdb1BDzZkL3ypY/EtiPFIE56NeKrHlarBC/i6ORYlctK4
fQ==
-----END CERTIFICATE-----
