Certificate:
    Data:
        Version: 3 (0x2)
        Serial Number:
            be:e7:02:b0:72:d0:b6:7c:e3:55:a9:bf:94:9b:da:08
        Signature Algorithm: sha256WithRSAEncryption
        Issuer: CN=team216-net
        Validity
            Not Before: Nov  3 20:43:15 2023 GMT
            Not After : Oct 18 20:43:15 2026 GMT
        Subject: CN=team216-client
        Subject Public Key Info:
            Public Key Algorithm: rsaEncryption
                Public-Key: (2048 bit)
                Modulus:
                    00:f3:2f:97:83:23:08:49:69:06:7f:8f:62:59:7a:
                    ac:4e:58:cb:55:53:c8:d7:d6:a9:44:87:cd:f6:31:
                    bd:68:02:4b:44:29:22:33:c4:d7:23:c5:6d:fa:60:
                    a6:17:68:35:f8:bc:e2:08:f8:95:42:22:13:2a:55:
                    2b:52:c9:e0:e5:27:cd:71:94:f1:21:5d:ce:12:f8:
                    61:6c:d3:97:94:95:b6:27:bf:38:1a:e2:00:23:75:
                    54:3d:a2:23:55:ec:0a:31:d1:1a:94:00:ef:01:49:
                    df:7f:38:36:d1:49:d2:fb:f8:c9:a9:87:05:dd:a0:
                    3f:cc:3f:68:fd:df:da:58:04:f4:55:74:c1:8b:cf:
                    ae:65:03:1c:36:b3:26:ec:9b:80:84:a0:21:c8:d0:
                    51:e0:b2:3e:65:3b:41:c4:ac:4f:2d:2c:b2:ea:71:
                    e7:a8:04:b2:1e:3c:e0:ae:29:99:f7:61:7a:98:a9:
                    27:cf:b8:64:15:84:d8:3c:43:23:2c:8b:f6:30:38:
                    3d:2a:a2:85:3d:ea:b0:ae:76:25:ef:ab:24:00:ad:
                    1f:70:fd:5b:cc:e1:09:6e:e2:77:d3:4e:01:3a:ef:
                    3b:4f:3c:83:72:95:64:fe:79:c5:dc:d6:ee:e5:2c:
                    dd:c7:4a:e4:85:07:3c:2e:21:4d:02:ab:49:f3:b9:
                    a3:6d
                Exponent: 65537 (0x10001)
        X509v3 extensions:
            X509v3 Basic Constraints: 
                CA:FALSE
            X509v3 Subject Key Identifier: 
                39:74:0F:29:99:B3:AF:16:4F:99:6A:08:96:1E:7A:1C:48:EF:40:29
            X509v3 Authority Key Identifier: 
                keyid:64:37:92:DC:E8:47:2C:3E:76:2E:6C:C2:21:69:B2:11:D5:D0:CA:49
                DirName:/CN=team216-net
                serial:30:2A:F8:9A:EB:8D:7C:11:41:CA:A3:4C:AB:41:AD:F6:54:28:3C:29
            X509v3 Extended Key Usage: 
                TLS Web Client Authentication
            X509v3 Key Usage: 
                Digital Signature
    Signature Algorithm: sha256WithRSAEncryption
    Signature Value:
        06:c3:b8:37:9e:a2:3f:ef:65:6e:d9:09:74:0b:a6:d2:2b:f4:
        ca:1c:5d:16:e7:ba:e6:ed:61:fa:f3:0a:04:c0:ac:db:d8:ab:
        5e:05:c5:37:05:bf:3b:d6:08:74:e7:b4:6e:bd:bc:8c:70:60:
        d3:c4:0e:38:d9:70:b7:2a:22:86:df:f2:20:b2:eb:5b:6a:c0:
        62:40:d8:f6:1e:5a:cc:40:a1:5d:53:a6:ab:35:ee:78:ed:eb:
        f1:0b:aa:6c:5b:7d:13:7d:f2:46:c5:df:33:57:98:dd:21:f2:
        d5:b2:a5:fc:85:32:f8:b1:38:50:1a:ef:e1:b0:64:d0:e6:aa:
        3e:9b:73:8c:ab:38:d4:04:4e:27:00:78:71:28:1c:cb:3b:25:
        c6:07:dd:ab:4c:f4:f4:5d:bb:9a:8b:e2:cf:64:66:b5:5a:d4:
        ae:90:cf:0e:20:93:c3:db:d9:23:a0:88:5d:cb:5a:9d:28:b6:
        32:06:d0:e3:d8:eb:be:04:4f:e4:6f:3b:d0:a5:3b:37:8d:c3:
        17:ae:ab:39:15:70:b7:5a:cb:39:50:0f:e1:ab:8c:62:dc:d2:
        dc:0c:6d:7c:c9:93:51:96:60:66:54:b3:f7:b8:63:a0:83:2f:
        51:75:da:b4:ad:d9:f5:92:56:89:a7:df:ab:d5:dd:09:d4:78:
        5d:cf:96:71
-----BEGIN CERTIFICATE-----
MIIDXTCCAkWgAwIBAgIRAL7nArBy0LZ841Wpv5Sb2ggwDQYJKoZIhvcNAQELBQAw
FjEUMBIGA1UEAwwLdGVhbTIxNi1uZXQwHhcNMjMxMTAzMjA0MzE1WhcNMjYxMDE4
MjA0MzE1WjAZMRcwFQYDVQQDDA50ZWFtMjE2LWNsaWVudDCCASIwDQYJKoZIhvcN
AQEBBQADggEPADCCAQoCggEBAPMvl4MjCElpBn+PYll6rE5Yy1VTyNfWqUSHzfYx
vWgCS0QpIjPE1yPFbfpgphdoNfi84gj4lUIiEypVK1LJ4OUnzXGU8SFdzhL4YWzT
l5SVtie/OBriACN1VD2iI1XsCjHRGpQA7wFJ3384NtFJ0vv4yamHBd2gP8w/aP3f
2lgE9FV0wYvPrmUDHDazJuybgISgIcjQUeCyPmU7QcSsTy0ssupx56gEsh484K4p
mfdhepipJ8+4ZBWE2DxDIyyL9jA4PSqihT3qsK52Je+rJACtH3D9W8zhCW7id9NO
ATrvO088g3KVZP55xdzW7uUs3cdK5IUHPC4hTQKrSfO5o20CAwEAAaOBojCBnzAJ
BgNVHRMEAjAAMB0GA1UdDgQWBBQ5dA8pmbOvFk+ZagiWHnocSO9AKTBRBgNVHSME
SjBIgBRkN5Lc6EcsPnYubMIhabIR1dDKSaEapBgwFjEUMBIGA1UEAwwLdGVhbTIx
Ni1uZXSCFDAq+JrrjXwRQcqjTKtBrfZUKDwpMBMGA1UdJQQMMAoGCCsGAQUFBwMC
MAsGA1UdDwQEAwIHgDANBgkqhkiG9w0BAQsFAAOCAQEABsO4N56iP+9lbtkJdAum
0iv0yhxdFue65u1h+vMKBMCs29irXgXFNwW/O9YIdOe0br28jHBg08QOONlwtyoi
ht/yILLrW2rAYkDY9h5azEChXVOmqzXueO3r8QuqbFt9E33yRsXfM1eY3SHy1bKl
/IUy+LE4UBrv4bBk0OaqPptzjKs41AROJwB4cSgcyzslxgfdq0z09F27moviz2Rm
tVrUrpDPDiCTw9vZI6CIXctanSi2MgbQ49jrvgRP5G870KU7N43DF66rORVwt1rL
OVAP4auMYtzS3AxtfMmTUZZgZlSz97hjoIMvUXXatK3Z9ZJWiaffq9XdCdR4Xc+W
cQ==
-----END CERTIFICATE-----
