Certificate:
    Data:
        Version: 3 (0x2)
        Serial Number:
            30:8f:bf:70:00:05:b0:bc:27:4e:e9:0f:11:bb:07:cc
        Signature Algorithm: sha256WithRSAEncryption
        Issuer: CN=team41-net
        Validity
            Not Before: Nov  4 10:40:59 2023 GMT
            Not After : Oct 19 10:40:59 2026 GMT
        Subject: CN=team41-server
        Subject Public Key Info:
            Public Key Algorithm: rsaEncryption
                Public-Key: (2048 bit)
                Modulus:
                    00:d3:a0:46:3f:ee:65:07:8a:d4:49:10:ed:7e:e4:
                    8a:33:76:9e:a1:fd:d0:38:59:82:c1:c8:92:b0:ba:
                    ce:bc:cf:8f:bf:86:35:3a:41:76:fe:52:f1:fb:87:
                    55:a1:c5:ec:61:9c:95:c5:96:c1:cc:93:c7:fb:e6:
                    84:3b:ce:02:f7:05:28:51:57:b8:8b:9a:0b:7e:c6:
                    99:ca:e2:a3:f6:e4:49:9d:25:93:4d:96:38:6d:c1:
                    54:08:47:fd:22:c7:d4:a3:ea:f6:e7:10:fe:9c:50:
                    0d:62:e1:ac:2a:60:0d:4c:e6:ee:2a:5c:99:f3:e3:
                    8e:8e:44:0d:a1:be:17:cc:ee:48:8e:9a:2a:30:0a:
                    93:60:dc:28:8d:19:ca:6b:72:04:ab:7d:ae:7e:db:
                    16:e9:d9:3d:aa:ac:35:bb:e8:e3:ed:cd:45:f5:76:
                    17:aa:09:56:ad:ca:04:a1:1a:39:2b:7c:f6:7f:af:
                    9f:1d:41:1e:2c:e2:b6:42:88:4b:78:cc:b6:da:c5:
                    d6:bc:c9:bc:6a:16:e1:fd:7f:6e:13:4a:6e:eb:96:
                    54:39:42:bf:84:6f:d1:d0:f8:66:5c:b3:3d:9a:07:
                    23:e1:8d:35:c9:d6:a0:41:75:eb:27:58:95:e7:b6:
                    17:5b:ea:67:c4:2d:5d:c3:58:cf:98:ff:75:75:51:
                    b2:4d
                Exponent: 65537 (0x10001)
        X509v3 extensions:
            X509v3 Basic Constraints: 
                CA:FALSE
            X509v3 Subject Key Identifier: 
                AA:1C:DD:A5:C6:49:0C:CB:13:9E:5D:D2:CC:BA:13:15:5B:B8:58:D4
            X509v3 Authority Key Identifier: 
                keyid:E0:CF:62:FE:2A:08:EE:A1:8A:C3:C4:5E:44:47:68:03:4F:61:64:39
                DirName:/CN=team41-net
                serial:3A:D9:CD:D9:C3:BD:BC:0A:63:C1:DD:AE:C5:20:BE:5C:F3:3E:65:AE
            X509v3 Extended Key Usage: 
                TLS Web Server Authentication
            X509v3 Key Usage: 
                Digital Signature, Key Encipherment
            X509v3 Subject Alternative Name: 
                DNS:team41-server
    Signature Algorithm: sha256WithRSAEncryption
    Signature Value:
        94:ee:b6:43:43:f7:43:7e:f3:d8:fa:07:2f:c2:9e:13:37:b3:
        8d:75:a6:e3:65:fa:ca:6a:78:45:70:1f:b0:44:2b:b2:04:d9:
        c7:a6:18:2d:29:68:48:44:82:8e:73:f2:e9:a4:87:b0:28:dd:
        dc:af:6e:c4:8d:7b:fc:79:45:11:fa:79:ac:6d:c5:61:cc:81:
        c9:43:37:4b:4c:cd:29:22:7d:a2:af:23:93:2d:fa:d1:78:3e:
        62:ca:ca:5d:0d:a8:e1:79:ad:c9:d7:c3:8e:9f:0a:7c:7f:a6:
        ac:bb:57:cb:3a:59:3e:97:aa:9d:5a:91:49:3e:5f:5a:fb:54:
        41:f6:c6:fc:d8:08:55:43:2c:84:e2:11:c8:e8:27:0c:d4:3a:
        06:f6:46:e5:84:a6:00:90:59:4f:93:c2:13:7b:e8:c8:6c:5e:
        a7:7e:31:22:52:27:9e:8e:ff:6d:3a:81:cc:5c:01:e8:2e:97:
        bc:b5:ba:75:15:52:84:94:df:d4:6c:65:a4:35:4f:0d:4b:c1:
        6b:07:6c:2d:5f:5e:37:49:45:4f:d8:92:a1:65:80:61:91:81:
        95:5a:a7:fd:0c:25:40:05:c7:ad:12:77:0f:c6:5a:36:ce:61:
        3f:33:f9:e7:7f:57:f5:4a:67:90:ae:a3:ca:6b:37:71:38:b3:
        65:11:53:dc
-----BEGIN CERTIFICATE-----
MIIDczCCAlugAwIBAgIQMI+/cAAFsLwnTukPEbsHzDANBgkqhkiG9w0BAQsFADAV
MRMwEQYDVQQDDAp0ZWFtNDEtbmV0MB4XDTIzMTEwNDEwNDA1OVoXDTI2MTAxOTEw
NDA1OVowGDEWMBQGA1UEAwwNdGVhbTQxLXNlcnZlcjCCASIwDQYJKoZIhvcNAQEB
BQADggEPADCCAQoCggEBANOgRj/uZQeK1EkQ7X7kijN2nqH90DhZgsHIkrC6zrzP
j7+GNTpBdv5S8fuHVaHF7GGclcWWwcyTx/vmhDvOAvcFKFFXuIuaC37Gmcrio/bk
SZ0lk02WOG3BVAhH/SLH1KPq9ucQ/pxQDWLhrCpgDUzm7ipcmfPjjo5EDaG+F8zu
SI6aKjAKk2DcKI0ZymtyBKt9rn7bFunZPaqsNbvo4+3NRfV2F6oJVq3KBKEaOSt8
9n+vnx1BHizitkKIS3jMttrF1rzJvGoW4f1/bhNKbuuWVDlCv4Rv0dD4ZlyzPZoH
I+GNNcnWoEF16ydYlee2F1vqZ8QtXcNYz5j/dXVRsk0CAwEAAaOBuzCBuDAJBgNV
HRMEAjAAMB0GA1UdDgQWBBSqHN2lxkkMyxOeXdLMuhMVW7hY1DBQBgNVHSMESTBH
gBTgz2L+KgjuoYrDxF5ER2gDT2FkOaEZpBcwFTETMBEGA1UEAwwKdGVhbTQxLW5l
dIIUOtnN2cO9vApjwd2uxSC+XPM+Za4wEwYDVR0lBAwwCgYIKwYBBQUHAwEwCwYD
VR0PBAQDAgWgMBgGA1UdEQQRMA+CDXRlYW00MS1zZXJ2ZXIwDQYJKoZIhvcNAQEL
BQADggEBAJTutkND90N+89j6By/CnhM3s411puNl+spqeEVwH7BEK7IE2cemGC0p
aEhEgo5z8umkh7Ao3dyvbsSNe/x5RRH6eaxtxWHMgclDN0tMzSkifaKvI5Mt+tF4
PmLKyl0NqOF5rcnXw46fCnx/pqy7V8s6WT6Xqp1akUk+X1r7VEH2xvzYCFVDLITi
EcjoJwzUOgb2RuWEpgCQWU+TwhN76MhsXqd+MSJSJ56O/206gcxcAegul7y1unUV
UoSU39RsZaQ1Tw1LwWsHbC1fXjdJRU/YkqFlgGGRgZVap/0MJUAFx60Sdw/GWjbO
YT8z+ed/V/VKZ5Cuo8prN3E4s2URU9w=
-----END CERTIFICATE-----
