Certificate:
    Data:
        Version: 3 (0x2)
        Serial Number:
            61:a6:63:bb:ea:79:5e:c2:43:b3:73:ba:ba:cd:0a:78
        Signature Algorithm: sha256WithRSAEncryption
        Issuer: CN=team41-net
        Validity
            Not Before: Nov  4 10:40:59 2023 GMT
            Not After : Oct 19 10:40:59 2026 GMT
        Subject: CN=team41-client
        Subject Public Key Info:
            Public Key Algorithm: rsaEncryption
                Public-Key: (2048 bit)
                Modulus:
                    00:d6:5d:de:1b:03:e6:d9:b7:f7:f1:b7:9e:f6:43:
                    9f:2a:66:27:12:3f:2e:8c:84:cc:23:2b:c0:43:04:
                    de:d9:c2:05:c6:dd:dd:6e:57:a9:e4:30:28:18:d5:
                    02:67:6f:06:6e:22:a2:26:d4:82:4d:41:c8:d2:52:
                    49:70:8e:7c:0d:c0:cf:76:6f:d8:61:a9:b2:bc:56:
                    94:9d:00:c1:2e:6d:7f:7f:2b:44:5c:be:8e:23:55:
                    3c:97:ce:43:44:21:89:15:c2:d6:77:60:c6:22:28:
                    ae:c6:5d:5e:0b:e4:6e:1a:90:07:a0:75:00:35:25:
                    41:06:66:82:f7:b5:99:11:f3:ee:5a:ad:79:64:88:
                    52:f3:dd:db:96:2a:2d:6f:43:9a:cb:f7:f3:26:26:
                    4d:42:3f:30:e1:3b:a8:78:ba:13:bb:4f:ef:ea:9d:
                    78:67:29:6b:06:af:7d:2b:3d:86:fe:26:a7:e0:24:
                    97:f8:b3:1b:57:dd:20:63:6a:c0:4f:77:dd:ab:b2:
                    f2:93:95:f1:75:4f:1c:01:18:ba:9a:40:b9:5a:da:
                    33:16:24:79:77:90:e4:eb:1e:29:b9:35:d8:53:87:
                    a2:16:a2:e3:39:55:89:34:4c:47:fe:18:e7:d7:de:
                    a0:69:85:69:79:8f:de:88:a0:8c:a3:52:9a:df:ed:
                    bb:55
                Exponent: 65537 (0x10001)
        X509v3 extensions:
            X509v3 Basic Constraints: 
                CA:FALSE
            X509v3 Subject Key Identifier: 
                0F:97:51:AA:84:50:60:79:31:5B:31:0B:FF:8F:7A:9E:30:44:21:45
            X509v3 Authority Key Identifier: 
                keyid:E0:CF:62:FE:2A:08:EE:A1:8A:C3:C4:5E:44:47:68:03:4F:61:64:39
                DirName:/CN=team41-net
                serial:3A:D9:CD:D9:C3:BD:BC:0A:63:C1:DD:AE:C5:20:BE:5C:F3:3E:65:AE
            X509v3 Extended Key Usage: 
                TLS Web Client Authentication
            X509v3 Key Usage: 
                Digital Signature
    Signature Algorithm: sha256WithRSAEncryption
    Signature Value:
        45:14:b6:31:9a:2a:4c:26:7f:54:f4:76:c7:8a:70:30:30:34:
        80:79:41:0f:72:9c:42:ff:30:c9:b4:c3:f9:c9:6e:28:77:07:
        30:ff:8f:42:eb:06:33:5d:be:5b:7f:31:4f:8c:50:37:f3:9c:
        5d:1a:57:28:51:45:c5:71:b9:8a:85:85:65:03:36:95:b0:f0:
        01:f2:c2:e9:b7:64:7b:8f:02:5f:68:b0:8a:b2:80:a4:93:a9:
        4a:92:7c:9b:d7:64:66:ab:fb:0d:c8:bb:a0:88:62:4a:2b:a5:
        e5:bb:30:dc:d9:8c:7c:ba:05:2e:04:90:3c:07:61:fe:37:e4:
        ff:51:72:e7:9c:0b:58:e8:dc:74:1f:e2:be:e2:df:a6:0c:4a:
        a4:1f:aa:e9:d0:f1:ed:6c:ae:98:88:4b:cf:ec:a3:86:64:18:
        f2:d7:de:20:75:12:56:20:78:5f:86:37:69:41:f6:99:15:2e:
        8e:ab:8a:67:c7:35:15:18:22:3a:c0:e2:2c:bc:7c:52:b0:92:
        5c:97:70:ed:e0:b9:bc:6a:85:bc:da:01:e4:ab:81:ce:5e:68:
        e5:6b:eb:a7:13:a0:d7:5a:de:17:70:e2:02:dc:4c:df:cd:b7:
        02:4b:38:ee:62:9f:b4:90:11:b6:fd:74:c8:7a:1d:88:ba:d7:
        63:07:f7:cb
-----BEGIN CERTIFICATE-----
MIIDWTCCAkGgAwIBAgIQYaZju+p5XsJDs3O6us0KeDANBgkqhkiG9w0BAQsFADAV
MRMwEQYDVQQDDAp0ZWFtNDEtbmV0MB4XDTIzMTEwNDEwNDA1OVoXDTI2MTAxOTEw
NDA1OVowGDEWMBQGA1UEAwwNdGVhbTQxLWNsaWVudDCCASIwDQYJKoZIhvcNAQEB
BQADggEPADCCAQoCggEBANZd3hsD5tm39/G3nvZDnypmJxI/LoyEzCMrwEME3tnC
Bcbd3W5XqeQwKBjVAmdvBm4ioibUgk1ByNJSSXCOfA3Az3Zv2GGpsrxWlJ0AwS5t
f38rRFy+jiNVPJfOQ0QhiRXC1ndgxiIorsZdXgvkbhqQB6B1ADUlQQZmgve1mRHz
7lqteWSIUvPd25YqLW9Dmsv38yYmTUI/MOE7qHi6E7tP7+qdeGcpawavfSs9hv4m
p+Akl/izG1fdIGNqwE933auy8pOV8XVPHAEYuppAuVraMxYkeXeQ5OseKbk12FOH
ohai4zlViTRMR/4Y59feoGmFaXmP3oigjKNSmt/tu1UCAwEAAaOBoTCBnjAJBgNV
HRMEAjAAMB0GA1UdDgQWBBQPl1GqhFBgeTFbMQv/j3qeMEQhRTBQBgNVHSMESTBH
gBTgz2L+KgjuoYrDxF5ER2gDT2FkOaEZpBcwFTETMBEGA1UEAwwKdGVhbTQxLW5l
dIIUOtnN2cO9vApjwd2uxSC+XPM+Za4wEwYDVR0lBAwwCgYIKwYBBQUHAwIwCwYD
VR0PBAQDAgeAMA0GCSqGSIb3DQEBCwUAA4IBAQBFFLYxmipMJn9U9HbHinAwMDSA
eUEPcpxC/zDJtMP5yW4odwcw/49C6wYzXb5bfzFPjFA385xdGlcoUUXFcbmKhYVl
AzaVsPAB8sLpt2R7jwJfaLCKsoCkk6lKknyb12Rmq/sNyLugiGJKK6XluzDc2Yx8
ugUuBJA8B2H+N+T/UXLnnAtY6Nx0H+K+4t+mDEqkH6rp0PHtbK6YiEvP7KOGZBjy
194gdRJWIHhfhjdpQfaZFS6Oq4pnxzUVGCI6wOIsvHxSsJJcl3Dt4Lm8aoW82gHk
q4HOXmjla+unE6DXWt4XcOIC3EzfzbcCSzjuYp+0kBG2/XTIeh2IutdjB/fL
-----END CERTIFICATE-----
