Certificate:
    Data:
        Version: 3 (0x2)
        Serial Number:
            7c:0f:ff:e4:65:c0:e0:d8:a0:e1:b9:65:7d:94:43:8c
        Signature Algorithm: sha256WithRSAEncryption
        Issuer: CN=team148-net
        Validity
            Not Before: Nov  4 11:30:29 2023 GMT
            Not After : Oct 19 11:30:29 2026 GMT
        Subject: CN=team148-server
        Subject Public Key Info:
            Public Key Algorithm: rsaEncryption
                Public-Key: (2048 bit)
                Modulus:
                    00:a4:a2:df:dd:0b:06:c5:fb:13:a6:59:87:03:0d:
                    d8:23:a1:7a:0c:17:cb:14:20:8e:cb:df:96:22:18:
                    b7:52:1d:c2:76:59:f4:f7:11:79:ec:2e:45:c9:5c:
                    44:f7:cf:c1:ab:28:c2:5b:c1:71:9e:18:52:a2:14:
                    95:55:dd:9f:e3:28:fd:fd:66:3a:e3:1d:af:05:f7:
                    52:46:df:8f:67:e6:3a:1a:44:72:61:f4:21:69:5e:
                    ad:bb:53:7c:8e:a3:71:41:8c:f1:52:f3:32:b1:b0:
                    8a:d5:d1:f5:ad:d1:e7:63:80:e4:b0:4a:11:f7:da:
                    df:02:0a:33:8b:c5:64:ec:1d:d2:37:31:98:a4:b2:
                    ff:e9:0a:94:47:9f:a7:0c:bf:4a:d9:81:dc:05:5e:
                    5a:a7:0a:10:a9:96:7c:2a:3d:3e:b0:23:a7:26:d6:
                    a2:10:eb:20:f1:74:30:a7:a3:a8:71:42:97:1c:49:
                    cf:e4:ce:f9:84:28:91:fb:3b:ee:8c:e4:3c:5a:55:
                    0f:0a:36:c6:94:17:55:13:11:2f:b6:ab:8a:91:04:
                    e9:01:2b:f8:b5:76:15:15:4a:99:e7:d1:0b:a9:a4:
                    4c:42:72:fd:08:b7:27:cb:7b:55:ce:fa:45:ba:bc:
                    2d:c8:f1:2f:82:07:48:cb:30:59:f3:d7:9c:e5:ce:
                    b0:a9
                Exponent: 65537 (0x10001)
        X509v3 extensions:
            X509v3 Basic Constraints: 
                CA:FALSE
            X509v3 Subject Key Identifier: 
                9F:DD:ED:20:7E:7A:2D:C7:81:24:C8:44:18:D1:27:F4:E0:58:D6:8C
            X509v3 Authority Key Identifier: 
                keyid:7F:78:4B:7E:27:56:FA:2C:D0:1D:9F:0C:47:F6:98:7C:3D:17:7B:25
                DirName:/CN=team148-net
                serial:0A:CB:D2:64:71:51:C6:0E:2C:44:C6:6B:19:33:CD:B5:27:F7:C3:56
            X509v3 Extended Key Usage: 
                TLS Web Server Authentication
            X509v3 Key Usage: 
                Digital Signature, Key Encipherment
            X509v3 Subject Alternative Name: 
                DNS:team148-server
    Signature Algorithm: sha256WithRSAEncryption
    Signature Value:
        7b:1d:78:07:9b:53:7f:f5:59:cc:0a:4a:66:36:4f:d9:d4:b4:
        d5:a0:8a:54:42:2d:f8:52:17:de:86:62:82:27:59:e6:f4:bb:
        df:f5:99:4f:9b:4e:fa:6d:b9:77:36:e4:5d:70:07:e9:53:48:
        24:93:b8:d9:c5:38:b6:97:b9:6d:14:6f:69:8e:e0:eb:8f:17:
        f3:7f:94:a4:0d:b4:b6:14:03:7c:03:5d:20:19:ba:eb:33:ab:
        01:f8:1c:cf:d3:35:b6:4e:fa:16:5f:3c:a3:5d:05:46:44:fc:
        62:4d:13:4f:4a:a5:ec:cc:eb:ad:72:c8:53:66:bf:7f:c3:bc:
        7a:a1:14:ac:e2:a0:b3:47:ae:6c:8e:3d:c9:86:0e:64:b8:89:
        07:ce:fc:8d:ce:f4:f1:a5:8b:aa:1f:78:33:46:5e:fa:d5:ac:
        8c:51:45:f1:e3:a3:0d:35:ad:11:a0:23:4b:dc:dd:be:eb:6a:
        78:b6:8f:03:d7:5a:9e:53:6d:b8:35:61:82:e2:81:38:83:a5:
        9a:a0:c7:f7:0a:38:7b:2c:bd:68:5d:c2:ca:ac:59:6a:37:a2:
        a9:05:dd:8c:f6:90:7a:ce:e8:08:1c:57:76:c8:43:12:c3:e5:
        91:fd:71:ef:6e:48:66:03:9e:35:19:9f:5f:f2:95:01:7d:fe:
        39:d8:24:d3
-----BEGIN CERTIFICATE-----
MIIDdzCCAl+gAwIBAgIQfA//5GXA4Nig4bllfZRDjDANBgkqhkiG9w0BAQsFADAW
MRQwEgYDVQQDDAt0ZWFtMTQ4LW5ldDAeFw0yMzExMDQxMTMwMjlaFw0yNjEwMTkx
MTMwMjlaMBkxFzAVBgNVBAMMDnRlYW0xNDgtc2VydmVyMIIBIjANBgkqhkiG9w0B
AQEFAAOCAQ8AMIIBCgKCAQEApKLf3QsGxfsTplmHAw3YI6F6DBfLFCCOy9+WIhi3
Uh3Cdln09xF57C5FyVxE98/BqyjCW8FxnhhSohSVVd2f4yj9/WY64x2vBfdSRt+P
Z+Y6GkRyYfQhaV6tu1N8jqNxQYzxUvMysbCK1dH1rdHnY4DksEoR99rfAgozi8Vk
7B3SNzGYpLL/6QqUR5+nDL9K2YHcBV5apwoQqZZ8Kj0+sCOnJtaiEOsg8XQwp6Oo
cUKXHEnP5M75hCiR+zvujOQ8WlUPCjbGlBdVExEvtquKkQTpASv4tXYVFUqZ59EL
qaRMQnL9CLcny3tVzvpFurwtyPEvggdIyzBZ89ec5c6wqQIDAQABo4G9MIG6MAkG
A1UdEwQCMAAwHQYDVR0OBBYEFJ/d7SB+ei3HgSTIRBjRJ/TgWNaMMFEGA1UdIwRK
MEiAFH94S34nVvos0B2fDEf2mHw9F3sloRqkGDAWMRQwEgYDVQQDDAt0ZWFtMTQ4
LW5ldIIUCsvSZHFRxg4sRMZrGTPNtSf3w1YwEwYDVR0lBAwwCgYIKwYBBQUHAwEw
CwYDVR0PBAQDAgWgMBkGA1UdEQQSMBCCDnRlYW0xNDgtc2VydmVyMA0GCSqGSIb3
DQEBCwUAA4IBAQB7HXgHm1N/9VnMCkpmNk/Z1LTVoIpUQi34UhfehmKCJ1nm9Lvf
9ZlPm076bbl3NuRdcAfpU0gkk7jZxTi2l7ltFG9pjuDrjxfzf5SkDbS2FAN8A10g
GbrrM6sB+BzP0zW2TvoWXzyjXQVGRPxiTRNPSqXszOutcshTZr9/w7x6oRSs4qCz
R65sjj3Jhg5kuIkHzvyNzvTxpYuqH3gzRl761ayMUUXx46MNNa0RoCNL3N2+62p4
to8D11qeU224NWGC4oE4g6WaoMf3Cjh7LL1oXcLKrFlqN6KpBd2M9pB6zugIHFd2
yEMSw+WR/XHvbkhmA541GZ9f8pUBff452CTT
-----END CERTIFICATE-----
