Certificate:
    Data:
        Version: 3 (0x2)
        Serial Number:
            93:7f:6a:e2:fb:10:89:8e:4e:89:de:5e:3d:b2:ba:82
        Signature Algorithm: sha256WithRSAEncryption
        Issuer: CN=team148-net
        Validity
            Not Before: Nov  3 20:41:52 2023 GMT
            Not After : Oct 18 20:41:52 2026 GMT
        Subject: CN=team148-client
        Subject Public Key Info:
            Public Key Algorithm: rsaEncryption
                Public-Key: (2048 bit)
                Modulus:
                    00:ac:83:aa:ff:85:df:df:93:87:cb:1c:1c:f6:9a:
                    eb:1d:99:2e:59:4b:c9:69:e9:c3:9e:c3:0c:13:84:
                    42:ff:d3:ee:10:d1:a9:7e:06:3a:b5:35:20:0d:b6:
                    c6:51:5c:df:63:75:ce:9b:70:ac:20:36:a9:b8:d0:
                    86:d6:61:00:9b:9a:9b:a4:05:f8:5a:d3:49:4f:8e:
                    87:5c:9b:2b:0e:57:1e:23:72:3f:46:11:cd:17:83:
                    28:11:21:89:89:ba:33:5f:44:1b:88:f9:d2:01:92:
                    a6:c6:c6:af:97:1c:8e:62:4e:e8:e7:f6:74:82:23:
                    6b:ae:8f:06:cc:ad:b3:cd:86:3f:0a:c1:46:0d:10:
                    ba:c9:54:bd:3b:58:a9:0e:01:38:b7:28:97:95:f7:
                    06:9a:7f:3c:39:42:19:56:13:f5:ee:ee:05:1f:b7:
                    be:0a:5b:fc:3c:4c:b4:af:da:19:82:0c:0d:5a:fd:
                    5c:56:13:70:7b:5e:60:c2:fc:e7:29:58:77:27:15:
                    9a:54:4b:b1:43:4c:f4:f4:a3:31:bf:42:db:0d:ad:
                    b2:3e:59:3b:f7:e5:18:cd:ad:30:90:e7:30:fc:89:
                    24:7a:1b:95:6a:62:64:80:cd:ce:74:b9:24:40:73:
                    c8:af:f9:3f:ba:9b:fc:f6:e9:6b:a2:34:f4:41:17:
                    39:05
                Exponent: 65537 (0x10001)
        X509v3 extensions:
            X509v3 Basic Constraints: 
                CA:FALSE
            X509v3 Subject Key Identifier: 
                F2:F6:43:B9:2F:39:BA:41:DE:9F:75:1E:6C:CB:6D:FA:0B:07:DC:2B
            X509v3 Authority Key Identifier: 
                keyid:08:D0:7D:72:22:2C:12:5F:AE:EB:A3:A2:1A:4E:9D:E6:99:77:A5:92
                DirName:/CN=team148-net
                serial:67:7F:98:9D:31:5C:84:BC:02:09:9D:2D:A8:0B:4E:14:AF:69:BB:6D
            X509v3 Extended Key Usage: 
                TLS Web Client Authentication
            X509v3 Key Usage: 
                Digital Signature
    Signature Algorithm: sha256WithRSAEncryption
    Signature Value:
        7c:2d:47:7e:76:f3:a3:7b:70:ce:2e:37:b8:a1:d6:02:fc:4e:
        d2:81:3b:52:3e:5e:62:1a:c1:9e:5e:de:b8:29:97:b8:0e:a9:
        6a:a5:c1:ac:b0:ff:ce:de:89:2d:22:5a:9f:d4:c4:23:1b:fa:
        28:7c:64:cb:58:9d:06:49:92:6b:ff:4c:d4:08:b1:60:8e:b4:
        6b:fa:32:ef:22:d2:40:96:d5:f6:cf:90:b2:63:ff:f2:f2:e3:
        2a:4e:81:ba:88:ef:7f:35:e6:e1:d6:51:52:b9:ee:57:b3:81:
        fb:a9:34:53:8a:bd:4e:0c:68:cb:f1:d7:bf:e9:7a:d6:0c:bb:
        04:9e:46:b0:6a:bb:26:52:34:37:53:df:0d:de:5e:ec:06:13:
        f5:7d:7d:ba:32:66:5e:f7:32:b5:59:63:86:03:dc:1b:66:72:
        45:d9:2f:a4:04:19:6f:fc:41:8c:43:05:61:e2:47:05:16:a9:
        77:38:d5:7f:c0:7f:a8:69:9c:78:1d:9e:fa:df:53:15:9a:69:
        3a:bd:aa:96:c9:1a:71:c5:e1:1e:bc:7d:54:cd:41:c3:e8:1b:
        80:d3:43:2c:f6:2e:c6:7d:0a:1e:a6:ac:36:f7:cf:14:3f:97:
        09:6d:df:30:69:7e:00:8d:70:99:86:36:97:60:d2:16:b8:51:
        75:2e:1e:90
-----BEGIN CERTIFICATE-----
MIIDXTCCAkWgAwIBAgIRAJN/auL7EImOToneXj2yuoIwDQYJKoZIhvcNAQELBQAw
FjEUMBIGA1UEAwwLdGVhbTE0OC1uZXQwHhcNMjMxMTAzMjA0MTUyWhcNMjYxMDE4
MjA0MTUyWjAZMRcwFQYDVQQDDA50ZWFtMTQ4LWNsaWVudDCCASIwDQYJKoZIhvcN
AQEBBQADggEPADCCAQoCggEBAKyDqv+F39+Th8scHPaa6x2ZLllLyWnpw57DDBOE
Qv/T7hDRqX4GOrU1IA22xlFc32N1zptwrCA2qbjQhtZhAJuam6QF+FrTSU+Oh1yb
Kw5XHiNyP0YRzReDKBEhiYm6M19EG4j50gGSpsbGr5ccjmJO6Of2dIIja66PBsyt
s82GPwrBRg0QuslUvTtYqQ4BOLcol5X3Bpp/PDlCGVYT9e7uBR+3vgpb/DxMtK/a
GYIMDVr9XFYTcHteYML85ylYdycVmlRLsUNM9PSjMb9C2w2tsj5ZO/flGM2tMJDn
MPyJJHoblWpiZIDNznS5JEBzyK/5P7qb/Pbpa6I09EEXOQUCAwEAAaOBojCBnzAJ
BgNVHRMEAjAAMB0GA1UdDgQWBBTy9kO5Lzm6Qd6fdR5sy236CwfcKzBRBgNVHSME
SjBIgBQI0H1yIiwSX67ro6IaTp3mmXelkqEapBgwFjEUMBIGA1UEAwwLdGVhbTE0
OC1uZXSCFGd/mJ0xXIS8AgmdLagLThSvabttMBMGA1UdJQQMMAoGCCsGAQUFBwMC
MAsGA1UdDwQEAwIHgDANBgkqhkiG9w0BAQsFAAOCAQEAfC1Hfnbzo3twzi43uKHW
AvxO0oE7Uj5eYhrBnl7euCmXuA6paqXBrLD/zt6JLSJan9TEIxv6KHxky1idBkmS
a/9M1AixYI60a/oy7yLSQJbV9s+QsmP/8vLjKk6BuojvfzXm4dZRUrnuV7OB+6k0
U4q9Tgxoy/HXv+l61gy7BJ5GsGq7JlI0N1PfDd5e7AYT9X19ujJmXvcytVljhgPc
G2ZyRdkvpAQZb/xBjEMFYeJHBRapdzjVf8B/qGmceB2e+t9TFZppOr2qlskaccXh
Hrx9VM1Bw+gbgNNDLPYuxn0KHqasNvfPFD+XCW3fMGl+AI1wmYY2l2DSFrhRdS4e
kA==
-----END CERTIFICATE-----
