Certificate:
    Data:
        Version: 3 (0x2)
        Serial Number:
            d0:0c:f4:5c:85:14:a3:23:c6:5c:79:a9:3f:8b:1f:fc
        Signature Algorithm: sha256WithRSAEncryption
        Issuer: CN=team148-net
        Validity
            Not Before: Nov  4 11:30:29 2023 GMT
            Not After : Oct 19 11:30:29 2026 GMT
        Subject: CN=team148-client
        Subject Public Key Info:
            Public Key Algorithm: rsaEncryption
                Public-Key: (2048 bit)
                Modulus:
                    00:a8:a4:0f:91:6d:2d:ad:05:f7:7a:ca:20:07:2f:
                    bb:72:5d:e4:96:f6:7a:88:73:ee:ce:2a:56:38:f1:
                    24:dd:c6:ac:b4:ed:59:f3:8a:1e:f0:bb:f6:d3:ac:
                    9a:59:69:51:6c:ed:e2:c6:3c:66:9c:d0:3a:cf:85:
                    a9:a7:2b:39:eb:21:70:74:bb:2b:0e:16:2d:e1:f9:
                    a5:74:3a:34:15:f1:a2:a4:b6:0c:38:de:38:7d:34:
                    6c:bd:9f:1c:6e:55:d5:9f:b7:35:0a:4a:6d:4d:64:
                    3d:43:6b:bf:1a:57:1d:29:a1:d4:30:70:bc:4b:a8:
                    e7:c1:bc:92:ea:75:d2:d2:a0:92:fa:05:11:82:c8:
                    e6:95:36:08:83:87:ff:2f:2a:21:11:6b:2c:de:ab:
                    2b:62:6f:2e:c0:ec:02:85:75:87:5f:78:a9:94:b2:
                    f9:21:8a:8c:8d:29:e6:de:c0:9e:fe:05:b5:60:af:
                    89:57:34:b0:16:95:2b:bf:4a:aa:cb:ad:0f:f5:ec:
                    a2:42:16:5c:4e:07:20:5f:a7:92:f0:0f:94:26:f9:
                    61:89:92:9c:4d:db:dd:7f:9b:ce:35:9b:c6:bc:8f:
                    ef:fd:2d:ad:88:9a:3a:10:83:68:dc:fc:9c:03:19:
                    a0:23:2b:27:ee:56:31:a9:d9:56:6b:e9:8f:66:03:
                    3b:61
                Exponent: 65537 (0x10001)
        X509v3 extensions:
            X509v3 Basic Constraints: 
                CA:FALSE
            X509v3 Subject Key Identifier: 
                9A:22:5A:47:6D:3D:16:E8:E5:3A:9B:00:B2:F7:5F:58:FA:E7:A3:60
            X509v3 Authority Key Identifier: 
                keyid:7F:78:4B:7E:27:56:FA:2C:D0:1D:9F:0C:47:F6:98:7C:3D:17:7B:25
                DirName:/CN=team148-net
                serial:0A:CB:D2:64:71:51:C6:0E:2C:44:C6:6B:19:33:CD:B5:27:F7:C3:56
            X509v3 Extended Key Usage: 
                TLS Web Client Authentication
            X509v3 Key Usage: 
                Digital Signature
    Signature Algorithm: sha256WithRSAEncryption
    Signature Value:
        95:a3:5b:65:14:c0:f8:7b:f5:29:1d:ad:92:a8:be:2c:c3:fe:
        7e:8c:1f:44:c0:3c:2b:4b:70:74:f0:2f:64:ee:bc:0f:6c:70:
        1c:55:58:48:84:7c:f0:36:c2:23:78:4c:91:20:ed:64:55:0a:
        05:9c:71:da:24:76:05:9a:8d:82:ea:44:39:b3:76:e9:bc:ba:
        80:58:a5:27:57:70:a4:fd:12:30:40:fb:ce:fe:af:8e:39:cd:
        a8:a9:0c:55:05:f2:c1:2c:9f:40:83:ee:09:aa:77:e8:70:0d:
        54:32:57:a5:6a:5e:6d:fd:8c:b3:a1:48:24:a4:7a:34:22:46:
        d7:95:03:80:e0:57:76:7c:7a:ca:2b:85:14:df:f8:53:98:c7:
        fb:a5:0c:ca:9a:4a:41:1c:7c:e5:b7:9d:da:1f:0c:9f:db:d5:
        8e:5e:cf:14:db:31:8d:e1:6c:17:b7:fb:bb:79:fe:40:99:32:
        9e:89:42:53:5c:6a:8c:03:91:06:44:aa:fe:df:84:e7:20:af:
        11:8c:35:00:fe:fe:37:6b:b8:a5:10:aa:e2:ad:ed:ec:27:48:
        0d:41:64:3a:64:3f:a3:88:fb:74:4d:3f:79:e9:79:4f:65:80:
        0b:04:48:b4:2e:c6:ab:bf:59:5a:a2:7c:c4:b6:2c:e8:72:ac:
        df:e7:a5:21
-----BEGIN CERTIFICATE-----
MIIDXTCCAkWgAwIBAgIRANAM9FyFFKMjxlx5qT+LH/wwDQYJKoZIhvcNAQELBQAw
FjEUMBIGA1UEAwwLdGVhbTE0OC1uZXQwHhcNMjMxMTA0MTEzMDI5WhcNMjYxMDE5
MTEzMDI5WjAZMRcwFQYDVQQDDA50ZWFtMTQ4LWNsaWVudDCCASIwDQYJKoZIhvcN
AQEBBQADggEPADCCAQoCggEBAKikD5FtLa0F93rKIAcvu3Jd5Jb2eohz7s4qVjjx
JN3GrLTtWfOKHvC79tOsmllpUWzt4sY8ZpzQOs+FqacrOeshcHS7Kw4WLeH5pXQ6
NBXxoqS2DDjeOH00bL2fHG5V1Z+3NQpKbU1kPUNrvxpXHSmh1DBwvEuo58G8kup1
0tKgkvoFEYLI5pU2CIOH/y8qIRFrLN6rK2JvLsDsAoV1h194qZSy+SGKjI0p5t7A
nv4FtWCviVc0sBaVK79KqsutD/XsokIWXE4HIF+nkvAPlCb5YYmSnE3b3X+bzjWb
xryP7/0trYiaOhCDaNz8nAMZoCMrJ+5WManZVmvpj2YDO2ECAwEAAaOBojCBnzAJ
BgNVHRMEAjAAMB0GA1UdDgQWBBSaIlpHbT0W6OU6mwCy919Y+uejYDBRBgNVHSME
SjBIgBR/eEt+J1b6LNAdnwxH9ph8PRd7JaEapBgwFjEUMBIGA1UEAwwLdGVhbTE0
OC1uZXSCFArL0mRxUcYOLETGaxkzzbUn98NWMBMGA1UdJQQMMAoGCCsGAQUFBwMC
MAsGA1UdDwQEAwIHgDANBgkqhkiG9w0BAQsFAAOCAQEAlaNbZRTA+Hv1KR2tkqi+
LMP+fowfRMA8K0twdPAvZO68D2xwHFVYSIR88DbCI3hMkSDtZFUKBZxx2iR2BZqN
gupEObN26by6gFilJ1dwpP0SMED7zv6vjjnNqKkMVQXywSyfQIPuCap36HANVDJX
pWpebf2Ms6FIJKR6NCJG15UDgOBXdnx6yiuFFN/4U5jH+6UMyppKQRx85bed2h8M
n9vVjl7PFNsxjeFsF7f7u3n+QJkynolCU1xqjAORBkSq/t+E5yCvEYw1AP7+N2u4
pRCq4q3t7CdIDUFkOmQ/o4j7dE0/eel5T2WACwRItC7Gq79ZWqJ8xLYs6HKs3+el
IQ==
-----END CERTIFICATE-----
