Certificate:
    Data:
        Version: 3 (0x2)
        Serial Number:
            e2:1f:f6:c8:31:69:de:74:bb:b3:c2:8d:c6:3f:45:f7
        Signature Algorithm: sha256WithRSAEncryption
        Issuer: CN=team148-net
        Validity
            Not Before: Nov  3 20:41:53 2023 GMT
            Not After : Oct 18 20:41:53 2026 GMT
        Subject: CN=team148-server
        Subject Public Key Info:
            Public Key Algorithm: rsaEncryption
                Public-Key: (2048 bit)
                Modulus:
                    00:b0:87:33:6c:d6:c8:4c:7a:82:b8:b6:27:12:b4:
                    5d:eb:3e:4f:17:64:73:69:a3:3c:9e:fe:4d:20:c4:
                    2f:b0:70:70:e0:9b:ea:db:32:02:75:ba:b9:5b:8a:
                    f7:9e:76:5a:60:a4:89:3e:37:d4:e1:6f:cc:cc:30:
                    6e:4c:67:43:78:70:d2:14:15:11:ea:71:e2:d9:e0:
                    13:b1:6a:26:de:b2:74:39:b7:af:10:ba:02:9a:88:
                    54:0b:a6:ab:b8:d2:28:e3:26:ce:ab:c1:72:10:1b:
                    80:80:62:71:45:67:3d:8f:ea:9d:d4:aa:28:f3:35:
                    e4:e6:12:52:43:13:db:05:77:4a:3c:0a:6e:f2:65:
                    8e:7d:b0:72:93:ec:a2:91:7e:47:35:e4:e3:0c:ef:
                    b2:88:4f:1c:2d:4e:54:67:32:18:bb:be:2b:70:78:
                    fe:94:9f:45:84:c8:99:10:e6:5b:4f:b4:d2:ca:55:
                    1b:f2:6b:16:f5:93:b7:8c:bf:26:95:af:a8:48:06:
                    55:a3:4a:b6:93:77:e0:69:c0:2c:b8:b1:3b:24:5a:
                    7f:03:25:f9:97:fe:b2:22:e4:10:67:a0:83:e2:f3:
                    8b:4d:c8:84:26:18:34:9d:04:12:9b:eb:4d:a3:32:
                    0c:0b:3f:60:43:f0:60:94:b7:38:04:fe:b0:4d:eb:
                    e8:f9
                Exponent: 65537 (0x10001)
        X509v3 extensions:
            X509v3 Basic Constraints: 
                CA:FALSE
            X509v3 Subject Key Identifier: 
                58:46:0D:A7:6A:64:88:C7:BA:C4:A0:50:67:4E:B5:42:35:5D:F9:0F
            X509v3 Authority Key Identifier: 
                keyid:08:D0:7D:72:22:2C:12:5F:AE:EB:A3:A2:1A:4E:9D:E6:99:77:A5:92
                DirName:/CN=team148-net
                serial:67:7F:98:9D:31:5C:84:BC:02:09:9D:2D:A8:0B:4E:14:AF:69:BB:6D
            X509v3 Extended Key Usage: 
                TLS Web Server Authentication
            X509v3 Key Usage: 
                Digital Signature, Key Encipherment
            X509v3 Subject Alternative Name: 
                DNS:team148-server
    Signature Algorithm: sha256WithRSAEncryption
    Signature Value:
        71:5f:97:26:7d:ee:08:cc:20:6b:2b:df:61:4b:7b:0d:17:81:
        fa:7d:f5:e7:49:6f:b4:9a:8c:c4:b1:4b:9a:78:1a:77:c0:8a:
        fa:27:b7:e5:4e:1e:b9:31:3b:02:28:21:98:e5:78:fd:76:17:
        db:8e:02:30:33:00:04:1d:ad:1b:5f:0c:a8:fb:62:f6:47:27:
        b7:9f:7b:78:8b:12:bb:62:f4:12:35:e9:34:8f:de:dc:6a:bb:
        67:70:c9:67:9e:84:d2:ab:a0:10:18:ad:d1:4f:4f:6c:c3:9a:
        83:ef:05:ab:5e:39:c9:d8:9d:96:1c:a5:5e:24:c0:ea:bf:fe:
        92:58:d7:a5:26:42:47:36:19:6c:93:36:93:21:c2:1a:f0:a5:
        4a:dc:68:7c:30:31:5a:82:a2:35:85:55:06:dd:b9:29:1b:20:
        8d:30:9f:7d:28:f6:57:c4:0e:08:52:a9:5e:37:9d:43:09:85:
        40:4c:6a:43:3b:d0:38:35:60:df:0e:4b:7e:92:68:15:c3:cc:
        29:cd:01:1e:26:44:7e:f7:12:95:1b:bf:39:03:07:10:02:5f:
        4c:f8:7d:6e:ca:dc:2c:76:df:48:04:2d:e3:79:e2:01:20:1e:
        7d:d5:a8:60:58:2e:f2:da:0a:5c:12:95:e7:02:9f:e8:20:d1:
        fa:f0:0d:06
-----BEGIN CERTIFICATE-----
MIIDeDCCAmCgAwIBAgIRAOIf9sgxad50u7PCjcY/RfcwDQYJKoZIhvcNAQELBQAw
FjEUMBIGA1UEAwwLdGVhbTE0OC1uZXQwHhcNMjMxMTAzMjA0MTUzWhcNMjYxMDE4
MjA0MTUzWjAZMRcwFQYDVQQDDA50ZWFtMTQ4LXNlcnZlcjCCASIwDQYJKoZIhvcN
AQEBBQADggEPADCCAQoCggEBALCHM2zWyEx6gri2JxK0Xes+Txdkc2mjPJ7+TSDE
L7BwcOCb6tsyAnW6uVuK9552WmCkiT431OFvzMwwbkxnQ3hw0hQVEepx4tngE7Fq
Jt6ydDm3rxC6ApqIVAumq7jSKOMmzqvBchAbgIBicUVnPY/qndSqKPM15OYSUkMT
2wV3SjwKbvJljn2wcpPsopF+RzXk4wzvsohPHC1OVGcyGLu+K3B4/pSfRYTImRDm
W0+00spVG/JrFvWTt4y/JpWvqEgGVaNKtpN34GnALLixOyRafwMl+Zf+siLkEGeg
g+Lzi03IhCYYNJ0EEpvrTaMyDAs/YEPwYJS3OAT+sE3r6PkCAwEAAaOBvTCBujAJ
BgNVHRMEAjAAMB0GA1UdDgQWBBRYRg2namSIx7rEoFBnTrVCNV35DzBRBgNVHSME
SjBIgBQI0H1yIiwSX67ro6IaTp3mmXelkqEapBgwFjEUMBIGA1UEAwwLdGVhbTE0
OC1uZXSCFGd/mJ0xXIS8AgmdLagLThSvabttMBMGA1UdJQQMMAoGCCsGAQUFBwMB
MAsGA1UdDwQEAwIFoDAZBgNVHREEEjAQgg50ZWFtMTQ4LXNlcnZlcjANBgkqhkiG
9w0BAQsFAAOCAQEAcV+XJn3uCMwgayvfYUt7DReB+n3150lvtJqMxLFLmngad8CK
+ie35U4euTE7AighmOV4/XYX244CMDMABB2tG18MqPti9kcnt597eIsSu2L0EjXp
NI/e3Gq7Z3DJZ56E0qugEBit0U9PbMOag+8Fq145ydidlhylXiTA6r/+kljXpSZC
RzYZbJM2kyHCGvClStxofDAxWoKiNYVVBt25KRsgjTCffSj2V8QOCFKpXjedQwmF
QExqQzvQODVg3w5LfpJoFcPMKc0BHiZEfvcSlRu/OQMHEAJfTPh9bsrcLHbfSAQt
43niASAefdWoYFgu8toKXBKV5wKf6CDR+vANBg==
-----END CERTIFICATE-----
