Certificate:
    Data:
        Version: 3 (0x2)
        Serial Number:
            bd:c9:a1:b5:49:cf:f9:75:0d:c8:90:a1:62:ba:7d:4e
        Signature Algorithm: sha256WithRSAEncryption
        Issuer: CN=team81-net
        Validity
            Not Before: Nov  3 20:40:35 2023 GMT
            Not After : Oct 18 20:40:35 2026 GMT
        Subject: CN=team81-server
        Subject Public Key Info:
            Public Key Algorithm: rsaEncryption
                Public-Key: (2048 bit)
                Modulus:
                    00:a5:c4:2e:ed:37:6c:05:f1:b7:be:d7:d7:89:ea:
                    ed:71:59:37:b0:62:69:5c:55:b4:b0:0c:5f:37:83:
                    99:1c:e0:90:10:5c:81:34:1a:4b:07:74:ae:07:70:
                    f2:86:29:f2:31:9a:44:8a:a7:64:8d:84:43:71:f7:
                    91:9f:3b:75:ca:df:95:b2:1c:bc:e1:36:19:a5:89:
                    ea:40:7f:89:12:ef:3a:ca:45:ef:d1:46:f8:f5:b0:
                    54:87:ec:51:8d:55:60:77:47:79:71:1a:e8:ae:fc:
                    17:e4:1d:f3:a3:ea:97:5e:eb:82:8f:12:bb:87:0d:
                    6b:0c:4e:f3:31:88:16:f1:ff:ef:ca:8e:35:01:cf:
                    27:33:a9:f8:00:32:54:f6:89:73:5d:55:b9:3e:df:
                    91:b9:5c:f3:8e:8c:0a:07:96:00:87:04:a7:69:f9:
                    4d:35:fb:4f:1b:97:df:5c:00:a1:fa:f0:2b:d4:d5:
                    6a:f2:2f:8e:60:f9:93:3d:6f:2d:57:64:de:83:c8:
                    64:09:5c:1b:da:79:68:ba:69:32:3b:4e:18:45:13:
                    be:8c:0a:60:4b:e4:63:2b:89:f9:69:9c:0c:3d:88:
                    8f:05:48:ba:47:98:a1:98:cf:4a:d0:1d:d6:49:e8:
                    12:91:9e:e1:f9:a5:ad:65:a0:c4:b7:ed:d1:fd:93:
                    97:cb
                Exponent: 65537 (0x10001)
        X509v3 extensions:
            X509v3 Basic Constraints: 
                CA:FALSE
            X509v3 Subject Key Identifier: 
                40:13:03:30:BC:25:A2:74:70:50:A0:63:18:1F:11:7B:5B:51:30:31
            X509v3 Authority Key Identifier: 
                keyid:6F:83:83:87:4A:CA:DA:73:91:DE:9B:41:7D:2D:D5:C0:77:CD:76:D9
                DirName:/CN=team81-net
                serial:32:9A:45:54:BF:53:C5:DE:5D:C6:E0:0D:E0:7E:28:EC:64:0E:A0:0D
            X509v3 Extended Key Usage: 
                TLS Web Server Authentication
            X509v3 Key Usage: 
                Digital Signature, Key Encipherment
            X509v3 Subject Alternative Name: 
                DNS:team81-server
    Signature Algorithm: sha256WithRSAEncryption
    Signature Value:
        77:55:54:44:67:03:53:98:37:a0:4b:3b:c1:5f:da:d5:15:ca:
        21:28:71:4a:0b:a1:e5:1f:5d:56:50:9b:05:0b:78:50:bb:70:
        99:e8:d1:b5:df:e2:00:a1:40:bc:36:61:0a:e4:56:70:bc:bd:
        34:78:dc:20:0c:41:ae:a2:20:7a:f1:ae:99:0d:3f:83:3f:9f:
        de:c5:23:e6:ba:34:04:75:23:c9:2c:96:1f:a3:92:e9:0c:f8:
        53:75:1e:d1:c1:ed:7a:63:d2:9b:f5:4c:1d:ca:06:73:2f:04:
        02:fe:10:b6:b6:95:e5:07:6f:27:fc:0f:56:35:bb:38:ce:58:
        e5:66:62:a6:9d:24:21:ea:8d:14:73:be:23:6a:a2:5c:fb:8c:
        83:80:ee:60:cf:24:6d:9d:42:e3:26:9c:3d:99:fd:5b:c1:c4:
        33:8d:b5:3e:29:35:cf:85:64:00:3e:45:5e:86:37:65:fe:87:
        9f:df:4b:96:7b:3a:99:e2:3f:b4:00:8c:d2:fe:d9:9f:dc:92:
        25:b9:e6:cd:a6:f2:d5:7b:8b:80:3a:04:82:95:5a:78:15:00:
        d8:ac:f1:72:fc:82:8b:72:d4:d6:77:d0:9d:2f:9a:fb:16:69:
        45:dc:f1:2a:a5:4d:7a:c7:79:e0:ad:8a:73:71:ba:cf:82:44:
        8f:1b:8c:48
-----BEGIN CERTIFICATE-----
MIIDdDCCAlygAwIBAgIRAL3JobVJz/l1DciQoWK6fU4wDQYJKoZIhvcNAQELBQAw
FTETMBEGA1UEAwwKdGVhbTgxLW5ldDAeFw0yMzExMDMyMDQwMzVaFw0yNjEwMTgy
MDQwMzVaMBgxFjAUBgNVBAMMDXRlYW04MS1zZXJ2ZXIwggEiMA0GCSqGSIb3DQEB
AQUAA4IBDwAwggEKAoIBAQClxC7tN2wF8be+19eJ6u1xWTewYmlcVbSwDF83g5kc
4JAQXIE0GksHdK4HcPKGKfIxmkSKp2SNhENx95GfO3XK35WyHLzhNhmliepAf4kS
7zrKRe/RRvj1sFSH7FGNVWB3R3lxGuiu/BfkHfOj6pde64KPEruHDWsMTvMxiBbx
/+/KjjUBzyczqfgAMlT2iXNdVbk+35G5XPOOjAoHlgCHBKdp+U01+08bl99cAKH6
8CvU1WryL45g+ZM9by1XZN6DyGQJXBvaeWi6aTI7ThhFE76MCmBL5GMriflpnAw9
iI8FSLpHmKGYz0rQHdZJ6BKRnuH5pa1loMS37dH9k5fLAgMBAAGjgbswgbgwCQYD
VR0TBAIwADAdBgNVHQ4EFgQUQBMDMLwlonRwUKBjGB8Re1tRMDEwUAYDVR0jBEkw
R4AUb4ODh0rK2nOR3ptBfS3VwHfNdtmhGaQXMBUxEzARBgNVBAMMCnRlYW04MS1u
ZXSCFDKaRVS/U8XeXcbgDeB+KOxkDqANMBMGA1UdJQQMMAoGCCsGAQUFBwMBMAsG
A1UdDwQEAwIFoDAYBgNVHREEETAPgg10ZWFtODEtc2VydmVyMA0GCSqGSIb3DQEB
CwUAA4IBAQB3VVREZwNTmDegSzvBX9rVFcohKHFKC6HlH11WUJsFC3hQu3CZ6NG1
3+IAoUC8NmEK5FZwvL00eNwgDEGuoiB68a6ZDT+DP5/exSPmujQEdSPJLJYfo5Lp
DPhTdR7Rwe16Y9Kb9UwdygZzLwQC/hC2tpXlB28n/A9WNbs4zljlZmKmnSQh6o0U
c74jaqJc+4yDgO5gzyRtnULjJpw9mf1bwcQzjbU+KTXPhWQAPkVehjdl/oef30uW
ezqZ4j+0AIzS/tmf3JIluebNpvLVe4uAOgSClVp4FQDYrPFy/IKLctTWd9CdL5r7
FmlF3PEqpU16x3ngrYpzcbrPgkSPG4xI
-----END CERTIFICATE-----
