Certificate:
    Data:
        Version: 3 (0x2)
        Serial Number:
            78:1b:73:c8:cf:3f:17:dc:7e:1d:6e:c7:7a:02:35:0f
        Signature Algorithm: sha256WithRSAEncryption
        Issuer: CN=team161-net
        Validity
            Not Before: Nov  3 20:42:07 2023 GMT
            Not After : Oct 18 20:42:07 2026 GMT
        Subject: CN=team161-client
        Subject Public Key Info:
            Public Key Algorithm: rsaEncryption
                Public-Key: (2048 bit)
                Modulus:
                    00:d0:63:ac:6c:3f:0c:29:b4:aa:f4:8b:ce:ec:d1:
                    b3:f3:22:03:be:c4:b0:c4:06:4e:44:a0:ad:78:bf:
                    cd:e8:f4:76:65:8f:1c:42:d3:5d:e7:bf:70:b2:d7:
                    da:1b:99:1c:8f:26:20:86:4b:97:14:bb:eb:d5:03:
                    f3:ca:73:b4:05:0e:af:ae:e3:e7:d9:f2:0e:4f:ad:
                    01:16:76:2e:dc:8c:74:ca:fd:dc:2a:3e:7e:0e:af:
                    2e:87:b7:db:28:21:6a:db:8f:25:d6:b2:ae:78:2b:
                    6b:96:e7:27:60:25:0b:5e:5f:10:43:a6:66:11:4e:
                    2a:4e:34:fa:7f:2b:76:5a:bc:55:c9:8e:d6:35:7a:
                    86:bd:45:b0:e7:20:53:0e:b3:d0:49:16:54:58:b6:
                    37:e1:22:07:ef:1c:37:33:e7:b9:fc:99:f0:f2:16:
                    fa:59:c2:db:45:45:0e:a6:83:4a:c5:54:18:31:33:
                    03:26:dc:6c:cf:bc:ef:bb:a0:5d:ba:16:a7:41:4e:
                    4a:bf:f5:07:55:b6:7e:20:6e:05:76:37:1b:4c:67:
                    9e:4a:5e:7a:58:2b:4e:b9:20:b7:7b:39:70:86:1a:
                    c1:de:07:c9:0e:42:51:70:54:e5:06:8e:e6:06:a0:
                    06:c6:f8:1e:d0:91:d1:6b:db:df:16:c2:b3:c4:34:
                    5a:83
                Exponent: 65537 (0x10001)
        X509v3 extensions:
            X509v3 Basic Constraints: 
                CA:FALSE
            X509v3 Subject Key Identifier: 
                60:B7:6E:AF:66:5F:68:8E:71:7D:A1:F9:DB:86:59:D6:F1:CD:EA:2E
            X509v3 Authority Key Identifier: 
                keyid:63:11:9D:B2:B1:FC:24:60:31:29:7B:56:F7:06:82:C3:5A:A8:0F:D6
                DirName:/CN=team161-net
                serial:12:8E:90:AB:39:AD:FC:1E:35:E9:96:F7:82:AC:36:78:A8:C2:9D:25
            X509v3 Extended Key Usage: 
                TLS Web Client Authentication
            X509v3 Key Usage: 
                Digital Signature
    Signature Algorithm: sha256WithRSAEncryption
    Signature Value:
        3d:99:43:7c:ce:26:b5:d3:19:b3:53:16:2c:9d:a2:6e:d1:73:
        0c:c0:88:d0:ad:8a:d6:20:d5:c6:61:9f:d3:04:47:c2:ea:01:
        ab:cb:48:59:15:9d:e4:f9:93:8f:25:1f:49:9f:3f:81:29:ca:
        e5:97:02:1c:2d:7f:69:e5:18:70:19:5a:c4:63:7b:1c:27:de:
        19:32:0a:c3:c2:72:77:72:c2:f0:3b:ba:38:e0:ad:b6:0d:6a:
        b3:2b:c9:f8:54:14:9c:bb:5f:2c:f5:27:11:5b:2d:68:72:ab:
        80:0c:08:8d:ad:eb:b1:cd:fb:8c:1f:1d:c4:3c:c9:b2:4c:71:
        ca:57:dc:25:af:db:b1:ba:58:2d:d1:79:30:2c:85:a2:bb:0b:
        d0:cf:90:7c:77:53:33:72:a5:1d:dc:d8:1e:cb:d6:16:04:f3:
        49:34:0f:64:62:e1:ad:27:b5:a7:81:5b:54:a9:c5:54:28:d0:
        17:8c:dc:54:6b:46:05:25:8b:80:21:36:fa:b8:b3:33:d5:7a:
        0f:f1:ab:0d:0a:57:7a:fb:48:c0:35:9a:9a:b8:cb:5a:6f:4f:
        a8:c7:c6:c1:65:c9:67:ef:3c:b6:b3:9f:36:84:11:4d:91:47:
        63:84:e1:c7:c4:da:4b:23:db:4e:39:a1:df:ec:2d:de:79:e5:
        90:66:ff:62
-----BEGIN CERTIFICATE-----
MIIDXDCCAkSgAwIBAgIQeBtzyM8/F9x+HW7HegI1DzANBgkqhkiG9w0BAQsFADAW
MRQwEgYDVQQDDAt0ZWFtMTYxLW5ldDAeFw0yMzExMDMyMDQyMDdaFw0yNjEwMTgy
MDQyMDdaMBkxFzAVBgNVBAMMDnRlYW0xNjEtY2xpZW50MIIBIjANBgkqhkiG9w0B
AQEFAAOCAQ8AMIIBCgKCAQEA0GOsbD8MKbSq9IvO7NGz8yIDvsSwxAZORKCteL/N
6PR2ZY8cQtNd579wstfaG5kcjyYghkuXFLvr1QPzynO0BQ6vruPn2fIOT60BFnYu
3Ix0yv3cKj5+Dq8uh7fbKCFq248l1rKueCtrlucnYCULXl8QQ6ZmEU4qTjT6fyt2
WrxVyY7WNXqGvUWw5yBTDrPQSRZUWLY34SIH7xw3M+e5/Jnw8hb6WcLbRUUOpoNK
xVQYMTMDJtxsz7zvu6BduhanQU5Kv/UHVbZ+IG4FdjcbTGeeSl56WCtOuSC3ezlw
hhrB3gfJDkJRcFTlBo7mBqAGxvge0JHRa9vfFsKzxDRagwIDAQABo4GiMIGfMAkG
A1UdEwQCMAAwHQYDVR0OBBYEFGC3bq9mX2iOcX2h+duGWdbxzeouMFEGA1UdIwRK
MEiAFGMRnbKx/CRgMSl7VvcGgsNaqA/WoRqkGDAWMRQwEgYDVQQDDAt0ZWFtMTYx
LW5ldIIUEo6Qqzmt/B416Zb3gqw2eKjCnSUwEwYDVR0lBAwwCgYIKwYBBQUHAwIw
CwYDVR0PBAQDAgeAMA0GCSqGSIb3DQEBCwUAA4IBAQA9mUN8zia10xmzUxYsnaJu
0XMMwIjQrYrWINXGYZ/TBEfC6gGry0hZFZ3k+ZOPJR9Jnz+BKcrllwIcLX9p5Rhw
GVrEY3scJ94ZMgrDwnJ3csLwO7o44K22DWqzK8n4VBScu18s9ScRWy1ocquADAiN
reuxzfuMHx3EPMmyTHHKV9wlr9uxulgt0XkwLIWiuwvQz5B8d1MzcqUd3Ngey9YW
BPNJNA9kYuGtJ7WngVtUqcVUKNAXjNxUa0YFJYuAITb6uLMz1XoP8asNCld6+0jA
NZqauMtab0+ox8bBZcln7zy2s582hBFNkUdjhOHHxNpLI9tOOaHf7C3eeeWQZv9i
-----END CERTIFICATE-----
