Certificate:
    Data:
        Version: 3 (0x2)
        Serial Number:
            af:d1:7a:2e:c9:aa:9e:fa:25:34:37:ef:11:11:c0:a4
        Signature Algorithm: sha256WithRSAEncryption
        Issuer: CN=team161-net
        Validity
            Not Before: Nov  4 10:43:32 2023 GMT
            Not After : Oct 19 10:43:32 2026 GMT
        Subject: CN=team161-server
        Subject Public Key Info:
            Public Key Algorithm: rsaEncryption
                Public-Key: (2048 bit)
                Modulus:
                    00:b4:97:90:8e:3b:54:fe:92:8c:fe:1e:41:37:89:
                    b4:1a:fa:b2:9a:a7:2c:3a:3d:5b:47:fe:e3:86:3c:
                    79:05:f2:36:e3:24:06:c0:9e:d2:0e:cd:d7:ea:e7:
                    17:9c:98:b4:69:55:f7:8c:b9:81:8c:5a:05:5b:e4:
                    98:c1:45:d3:66:9c:fa:2c:41:e9:fe:08:6c:ce:aa:
                    37:66:ac:ee:cd:de:b8:cd:23:75:7c:e9:d9:56:45:
                    c9:9a:68:6b:7a:53:aa:b1:9e:02:ea:5b:96:c4:a8:
                    c8:69:5f:c7:a7:00:6f:46:c6:7a:de:f1:4d:63:2a:
                    a0:4a:2e:8f:62:0d:92:fa:e4:4c:69:2e:1f:87:d3:
                    24:d4:03:f5:88:0c:dc:b4:86:8c:02:39:f1:6a:51:
                    47:2f:15:45:d3:7a:f8:fc:1e:fe:2a:71:e1:b1:44:
                    cf:e6:02:2b:78:c3:6e:5e:5d:05:c3:77:06:bd:70:
                    00:2b:a9:1e:ba:4e:9f:29:4b:db:4f:95:14:c6:9c:
                    16:d5:76:af:43:18:42:68:ef:7b:fd:c2:a4:e4:65:
                    75:e8:f7:e3:ed:c5:82:04:3c:c6:20:ab:d6:76:c6:
                    83:02:c5:d6:4b:24:dd:2a:06:01:d5:d6:ac:5e:9e:
                    39:24:63:34:c3:93:b7:9d:49:bb:63:7d:1c:00:66:
                    df:a9
                Exponent: 65537 (0x10001)
        X509v3 extensions:
            X509v3 Basic Constraints: 
                CA:FALSE
            X509v3 Subject Key Identifier: 
                5E:05:16:5E:3D:98:1C:27:CC:06:E1:1C:86:76:80:7D:C7:0B:6D:97
            X509v3 Authority Key Identifier: 
                keyid:55:B6:10:81:C8:64:88:F2:22:7C:2A:4F:EA:C4:D0:81:B9:C4:5E:C6
                DirName:/CN=team161-net
                serial:0B:8E:B0:25:C4:49:E2:FA:91:21:87:34:88:8B:A7:46:25:A7:64:3B
            X509v3 Extended Key Usage: 
                TLS Web Server Authentication
            X509v3 Key Usage: 
                Digital Signature, Key Encipherment
            X509v3 Subject Alternative Name: 
                DNS:team161-server
    Signature Algorithm: sha256WithRSAEncryption
    Signature Value:
        30:5e:e6:b3:65:e9:a3:af:19:e8:b9:9b:f1:35:e9:de:2a:50:
        b6:37:07:65:73:ab:62:cc:5f:a5:76:ce:06:8e:5b:ea:1a:29:
        fb:80:84:b1:21:81:38:0e:bc:00:0a:ac:bd:e7:5f:49:02:ad:
        93:d4:57:bb:46:da:5a:09:2f:88:17:0b:2c:12:a0:c2:f3:6f:
        e8:5a:12:62:34:14:fc:c7:9a:45:d2:c3:50:96:cf:f0:b1:2d:
        28:24:db:8f:9f:d2:d1:fe:3b:31:83:5a:c8:3b:83:3e:ff:5b:
        34:71:1a:6f:ff:73:b8:5f:1e:70:a9:08:65:e7:1d:eb:ef:7e:
        9d:02:25:d1:cb:0e:8f:bc:b9:50:e3:bc:0d:c2:4e:83:63:27:
        0a:04:62:08:81:18:6f:4c:9d:4e:91:84:9e:e7:35:ac:b0:73:
        5a:45:3c:dc:20:51:4b:de:cc:07:dd:91:da:f7:56:cf:6e:46:
        42:ae:10:6d:68:08:dc:4b:3c:71:d7:34:ed:0a:ea:3f:77:d6:
        d0:74:94:34:a0:73:a8:10:fc:f1:5e:58:2b:e5:7f:40:d0:de:
        a1:5e:10:64:c6:b7:c1:17:6a:85:81:ca:19:ed:26:1e:09:35:
        90:7c:ac:d4:9a:0f:ff:f2:02:e5:f9:2e:fc:f6:e2:7d:95:71:
        d2:b5:81:f9
-----BEGIN CERTIFICATE-----
MIIDeDCCAmCgAwIBAgIRAK/Rei7Jqp76JTQ37xERwKQwDQYJKoZIhvcNAQELBQAw
FjEUMBIGA1UEAwwLdGVhbTE2MS1uZXQwHhcNMjMxMTA0MTA0MzMyWhcNMjYxMDE5
MTA0MzMyWjAZMRcwFQYDVQQDDA50ZWFtMTYxLXNlcnZlcjCCASIwDQYJKoZIhvcN
AQEBBQADggEPADCCAQoCggEBALSXkI47VP6SjP4eQTeJtBr6spqnLDo9W0f+44Y8
eQXyNuMkBsCe0g7N1+rnF5yYtGlV94y5gYxaBVvkmMFF02ac+ixB6f4IbM6qN2as
7s3euM0jdXzp2VZFyZpoa3pTqrGeAupblsSoyGlfx6cAb0bGet7xTWMqoEouj2IN
kvrkTGkuH4fTJNQD9YgM3LSGjAI58WpRRy8VRdN6+Pwe/ipx4bFEz+YCK3jDbl5d
BcN3Br1wACupHrpOnylL20+VFMacFtV2r0MYQmjve/3CpORldej34+3FggQ8xiCr
1nbGgwLF1ksk3SoGAdXWrF6eOSRjNMOTt51Ju2N9HABm36kCAwEAAaOBvTCBujAJ
BgNVHRMEAjAAMB0GA1UdDgQWBBReBRZePZgcJ8wG4RyGdoB9xwttlzBRBgNVHSME
SjBIgBRVthCByGSI8iJ8Kk/qxNCBucRexqEapBgwFjEUMBIGA1UEAwwLdGVhbTE2
MS1uZXSCFAuOsCXESeL6kSGHNIiLp0Ylp2Q7MBMGA1UdJQQMMAoGCCsGAQUFBwMB
MAsGA1UdDwQEAwIFoDAZBgNVHREEEjAQgg50ZWFtMTYxLXNlcnZlcjANBgkqhkiG
9w0BAQsFAAOCAQEAMF7ms2Xpo68Z6Lmb8TXp3ipQtjcHZXOrYsxfpXbOBo5b6hop
+4CEsSGBOA68AAqsvedfSQKtk9RXu0baWgkviBcLLBKgwvNv6FoSYjQU/MeaRdLD
UJbP8LEtKCTbj5/S0f47MYNayDuDPv9bNHEab/9zuF8ecKkIZecd6+9+nQIl0csO
j7y5UOO8DcJOg2MnCgRiCIEYb0ydTpGEnuc1rLBzWkU83CBRS97MB92R2vdWz25G
Qq4QbWgI3Es8cdc07QrqP3fW0HSUNKBzqBD88V5YK+V/QNDeoV4QZMa3wRdqhYHK
Ge0mHgk1kHys1JoP//IC5fku/PbifZVx0rWB+Q==
-----END CERTIFICATE-----
