Certificate:
    Data:
        Version: 3 (0x2)
        Serial Number:
            1b:64:6e:f0:e0:73:10:31:2c:d0:56:38:04:f1:3e:45
        Signature Algorithm: sha256WithRSAEncryption
        Issuer: CN=team192-net
        Validity
            Not Before: Nov  3 20:42:46 2023 GMT
            Not After : Oct 18 20:42:46 2026 GMT
        Subject: CN=team192-server
        Subject Public Key Info:
            Public Key Algorithm: rsaEncryption
                Public-Key: (2048 bit)
                Modulus:
                    00:d6:ec:d9:3d:db:5d:9d:15:37:1e:68:b1:ed:f8:
                    8b:bb:2b:1e:75:ac:3d:82:39:14:e5:8f:c7:5b:7d:
                    d1:46:8a:6a:10:7e:e4:71:04:f8:c5:78:1a:6f:37:
                    3e:b8:c2:5f:3d:66:5c:a4:90:40:4d:f7:5c:84:2f:
                    cb:55:76:98:9e:31:7e:8e:ac:6a:52:a2:d1:35:43:
                    94:ec:8f:72:f4:58:3d:c7:d8:6c:50:87:d6:a2:0a:
                    8a:9f:66:ca:c9:94:f1:48:2e:57:d2:55:90:be:88:
                    4f:d8:44:15:44:8e:94:ed:c8:7b:c4:e0:f2:41:26:
                    68:09:9d:e0:e6:96:1b:0f:06:bd:d1:e1:07:7c:7f:
                    3d:99:41:8f:b2:a3:9d:3b:cc:a2:2a:6b:38:3e:5f:
                    ef:a2:33:1f:6a:f4:9a:f7:63:82:1c:e3:98:02:a9:
                    95:5b:e0:40:40:de:f1:c5:d5:bf:4a:e2:49:59:5a:
                    5b:4a:e6:c4:d2:51:9e:1e:1a:c9:8d:16:08:fe:96:
                    c1:54:03:78:9f:7f:01:46:90:12:96:ca:b5:9a:b2:
                    65:ae:be:d5:88:52:fc:9e:20:cb:3b:e3:71:4f:76:
                    70:28:fb:9f:4e:6e:b8:52:8d:45:bc:11:84:6d:1d:
                    ff:3b:ca:ff:d1:30:35:94:0a:83:54:6e:e4:6f:a5:
                    ba:45
                Exponent: 65537 (0x10001)
        X509v3 extensions:
            X509v3 Basic Constraints: 
                CA:FALSE
            X509v3 Subject Key Identifier: 
                BE:6C:A9:2E:DC:5D:E2:2B:FE:18:8B:B8:F0:DE:8E:71:99:E7:A7:BF
            X509v3 Authority Key Identifier: 
                keyid:5B:B2:FD:E1:EA:23:CC:4B:81:CF:95:C7:FC:6A:92:36:20:E9:43:DC
                DirName:/CN=team192-net
                serial:08:13:C4:F1:47:E7:45:4D:16:BC:EE:FA:30:DE:FA:35:EA:6C:53:B1
            X509v3 Extended Key Usage: 
                TLS Web Server Authentication
            X509v3 Key Usage: 
                Digital Signature, Key Encipherment
            X509v3 Subject Alternative Name: 
                DNS:team192-server
    Signature Algorithm: sha256WithRSAEncryption
    Signature Value:
        e1:1b:20:d4:83:7f:b3:f3:b0:df:de:a2:ba:9f:cf:9d:ce:96:
        88:a6:4a:4f:67:c4:4b:a8:dd:80:7d:0e:27:67:a9:21:9e:01:
        12:b2:9f:c3:46:5d:6f:3f:7f:e3:ab:77:d6:fd:11:7b:7f:34:
        39:80:db:17:7d:cd:3c:1f:5b:d7:9c:2c:fc:21:53:4d:e2:91:
        39:80:66:36:75:4a:8a:1d:f5:04:54:ed:75:c7:27:e0:a7:db:
        2b:fd:4e:45:40:70:b5:af:26:c7:c7:8a:bb:b9:a0:9d:a2:d4:
        9c:ec:36:a6:fe:61:24:57:ad:af:ac:01:79:5c:da:51:17:8a:
        c2:a6:28:d2:e5:3f:b8:de:4a:34:b4:45:24:b9:a1:74:af:e5:
        06:f7:75:38:43:1e:e8:99:30:4a:b2:e3:b9:c0:a2:ca:82:78:
        ba:43:3b:1c:53:9f:7a:cc:95:45:f8:39:5c:6b:98:39:c7:c8:
        40:0e:a8:8f:a7:ab:cb:28:6e:91:60:55:dc:5c:4e:94:35:02:
        09:fb:c7:ad:2e:15:3d:f8:c8:95:1e:9a:6f:4e:4d:9e:dc:ae:
        da:20:3e:f1:bf:e3:22:ee:0d:c0:64:15:2a:27:4f:2f:45:fa:
        6e:5e:8a:a9:36:6c:a4:db:14:4b:11:99:49:be:1f:8a:0e:b5:
        d5:a9:66:3a
-----BEGIN CERTIFICATE-----
MIIDdzCCAl+gAwIBAgIQG2Ru8OBzEDEs0FY4BPE+RTANBgkqhkiG9w0BAQsFADAW
MRQwEgYDVQQDDAt0ZWFtMTkyLW5ldDAeFw0yMzExMDMyMDQyNDZaFw0yNjEwMTgy
MDQyNDZaMBkxFzAVBgNVBAMMDnRlYW0xOTItc2VydmVyMIIBIjANBgkqhkiG9w0B
AQEFAAOCAQ8AMIIBCgKCAQEA1uzZPdtdnRU3Hmix7fiLuysedaw9gjkU5Y/HW33R
RopqEH7kcQT4xXgabzc+uMJfPWZcpJBATfdchC/LVXaYnjF+jqxqUqLRNUOU7I9y
9Fg9x9hsUIfWogqKn2bKyZTxSC5X0lWQvohP2EQVRI6U7ch7xODyQSZoCZ3g5pYb
Dwa90eEHfH89mUGPsqOdO8yiKms4Pl/vojMfavSa92OCHOOYAqmVW+BAQN7xxdW/
SuJJWVpbSubE0lGeHhrJjRYI/pbBVAN4n38BRpASlsq1mrJlrr7ViFL8niDLO+Nx
T3ZwKPufTm64Uo1FvBGEbR3/O8r/0TA1lAqDVG7kb6W6RQIDAQABo4G9MIG6MAkG
A1UdEwQCMAAwHQYDVR0OBBYEFL5sqS7cXeIr/hiLuPDejnGZ56e/MFEGA1UdIwRK
MEiAFFuy/eHqI8xLgc+Vx/xqkjYg6UPcoRqkGDAWMRQwEgYDVQQDDAt0ZWFtMTky
LW5ldIIUCBPE8UfnRU0WvO76MN76NepsU7EwEwYDVR0lBAwwCgYIKwYBBQUHAwEw
CwYDVR0PBAQDAgWgMBkGA1UdEQQSMBCCDnRlYW0xOTItc2VydmVyMA0GCSqGSIb3
DQEBCwUAA4IBAQDhGyDUg3+z87Df3qK6n8+dzpaIpkpPZ8RLqN2AfQ4nZ6khngES
sp/DRl1vP3/jq3fW/RF7fzQ5gNsXfc08H1vXnCz8IVNN4pE5gGY2dUqKHfUEVO11
xyfgp9sr/U5FQHC1rybHx4q7uaCdotSc7Dam/mEkV62vrAF5XNpRF4rCpijS5T+4
3ko0tEUkuaF0r+UG93U4Qx7omTBKsuO5wKLKgni6QzscU596zJVF+Dlca5g5x8hA
DqiPp6vLKG6RYFXcXE6UNQIJ+8etLhU9+MiVHppvTk2e3K7aID7xv+Mi7g3AZBUq
J08vRfpuXoqpNmyk2xRLEZlJvh+KDrXVqWY6
-----END CERTIFICATE-----
