Certificate:
    Data:
        Version: 3 (0x2)
        Serial Number:
            62:cc:69:4d:1b:5f:2f:34:00:92:83:ed:3a:44:7b:8d
        Signature Algorithm: sha256WithRSAEncryption
        Issuer: CN=team409-net
        Validity
            Not Before: Nov  4 11:36:41 2023 GMT
            Not After : Oct 19 11:36:41 2026 GMT
        Subject: CN=team409-client
        Subject Public Key Info:
            Public Key Algorithm: rsaEncryption
                Public-Key: (2048 bit)
                Modulus:
                    00:c3:2b:61:73:94:d2:7a:b9:21:16:26:de:19:78:
                    75:b3:ef:c4:be:ac:5f:4c:bc:7b:cb:78:47:0b:3a:
                    89:17:cd:b4:df:a4:7f:47:9e:e0:f0:45:6d:41:17:
                    70:c7:1b:1c:39:94:7c:d3:05:00:5e:f9:63:d9:7b:
                    7c:06:24:ee:b9:ea:97:04:ab:64:78:26:51:e8:9f:
                    2c:93:a3:a1:a6:b3:af:dd:6f:79:af:91:25:da:1b:
                    d7:a1:e5:65:e7:ae:17:d1:f0:4d:c8:f5:56:90:a5:
                    c8:4c:00:28:f3:7d:47:f6:34:09:6f:b4:4e:42:46:
                    3d:83:04:4c:71:54:97:24:1b:35:e0:9d:c8:1a:62:
                    4a:36:fc:9f:27:28:84:4b:81:3e:0a:2e:b5:6b:40:
                    0e:58:36:59:c1:24:b0:4c:e7:5b:80:22:d6:10:8c:
                    7f:16:81:15:47:82:c2:11:39:aa:70:78:45:c7:0c:
                    6d:a0:b9:5c:be:0e:f2:50:31:4f:eb:c3:ca:65:b5:
                    6f:7a:f3:89:dc:e3:91:df:45:36:35:80:f6:79:e6:
                    6b:38:1c:4f:65:3f:ec:9e:b8:97:72:15:85:9b:33:
                    39:d7:c8:6d:1e:d5:99:93:8f:11:58:16:88:84:a5:
                    f3:dd:4c:f0:7c:b7:04:0b:bc:63:50:ae:d8:5d:2f:
                    e0:6f
                Exponent: 65537 (0x10001)
        X509v3 extensions:
            X509v3 Basic Constraints: 
                CA:FALSE
            X509v3 Subject Key Identifier: 
                0D:33:D2:AB:7D:83:8B:F0:E3:81:16:0C:79:8C:82:6C:A9:C5:39:4C
            X509v3 Authority Key Identifier: 
                keyid:00:C6:04:3F:99:E8:38:EA:75:FD:E9:30:10:72:22:B0:66:F0:1C:56
                DirName:/CN=team409-net
                serial:5D:70:9E:31:66:68:95:09:7F:CF:2F:18:8F:AC:81:34:11:4B:DD:17
            X509v3 Extended Key Usage: 
                TLS Web Client Authentication
            X509v3 Key Usage: 
                Digital Signature
    Signature Algorithm: sha256WithRSAEncryption
    Signature Value:
        98:d8:ed:1f:f0:f9:d1:34:cb:45:1e:06:17:25:16:bc:e9:dc:
        25:f8:54:e8:3b:ef:e0:20:ee:52:9a:98:b1:e1:30:0b:3d:9e:
        05:fa:56:da:99:cb:fd:83:60:ce:dc:ab:de:e9:b5:32:a6:b6:
        be:b7:0a:d2:f9:4e:f8:97:09:9e:31:24:ac:b9:52:12:9e:b5:
        54:be:79:1e:28:78:e7:2f:9c:e1:68:e8:c0:06:fa:de:ba:96:
        41:b5:4a:2c:2b:c5:a9:51:90:7f:d9:66:e5:21:49:7c:d9:93:
        98:84:7d:31:f3:0f:b8:70:0e:34:d6:d2:a0:25:8b:58:6d:15:
        b0:8b:b1:c7:82:ec:1a:49:d4:87:d6:9c:62:11:96:f0:38:88:
        73:c9:4e:8e:67:9d:b3:e5:e6:66:ad:5e:06:be:2e:64:8e:07:
        1f:56:7e:0b:24:dc:9a:74:44:c5:6b:7f:38:67:7a:81:e5:06:
        16:cd:72:e8:e1:56:34:23:f5:78:bc:b5:53:ad:e2:1a:ad:63:
        c7:a4:2d:c4:4a:01:95:b9:2f:59:93:10:31:e0:50:4c:73:08:
        4d:8b:b3:39:27:84:d3:84:2a:e6:79:7f:93:85:7f:ca:13:9e:
        c8:53:a2:a2:9b:8f:4f:d3:b7:2b:f0:00:2c:fb:5f:08:41:f5:
        ef:26:c7:89
-----BEGIN CERTIFICATE-----
MIIDXDCCAkSgAwIBAgIQYsxpTRtfLzQAkoPtOkR7jTANBgkqhkiG9w0BAQsFADAW
MRQwEgYDVQQDDAt0ZWFtNDA5LW5ldDAeFw0yMzExMDQxMTM2NDFaFw0yNjEwMTkx
MTM2NDFaMBkxFzAVBgNVBAMMDnRlYW00MDktY2xpZW50MIIBIjANBgkqhkiG9w0B
AQEFAAOCAQ8AMIIBCgKCAQEAwythc5TSerkhFibeGXh1s+/EvqxfTLx7y3hHCzqJ
F82036R/R57g8EVtQRdwxxscOZR80wUAXvlj2Xt8BiTuueqXBKtkeCZR6J8sk6Oh
prOv3W95r5El2hvXoeVl564X0fBNyPVWkKXITAAo831H9jQJb7ROQkY9gwRMcVSX
JBs14J3IGmJKNvyfJyiES4E+Ci61a0AOWDZZwSSwTOdbgCLWEIx/FoEVR4LCETmq
cHhFxwxtoLlcvg7yUDFP68PKZbVvevOJ3OOR30U2NYD2eeZrOBxPZT/snriXchWF
mzM518htHtWZk48RWBaIhKXz3UzwfLcEC7xjUK7YXS/gbwIDAQABo4GiMIGfMAkG
A1UdEwQCMAAwHQYDVR0OBBYEFA0z0qt9g4vw44EWDHmMgmypxTlMMFEGA1UdIwRK
MEiAFADGBD+Z6Djqdf3pMBByIrBm8BxWoRqkGDAWMRQwEgYDVQQDDAt0ZWFtNDA5
LW5ldIIUXXCeMWZolQl/zy8Yj6yBNBFL3RcwEwYDVR0lBAwwCgYIKwYBBQUHAwIw
CwYDVR0PBAQDAgeAMA0GCSqGSIb3DQEBCwUAA4IBAQCY2O0f8PnRNMtFHgYXJRa8
6dwl+FToO+/gIO5Smpix4TALPZ4F+lbamcv9g2DO3Kve6bUypra+twrS+U74lwme
MSSsuVISnrVUvnkeKHjnL5zhaOjABvreupZBtUosK8WpUZB/2WblIUl82ZOYhH0x
8w+4cA401tKgJYtYbRWwi7HHguwaSdSH1pxiEZbwOIhzyU6OZ52z5eZmrV4Gvi5k
jgcfVn4LJNyadETFa384Z3qB5QYWzXLo4VY0I/V4vLVTreIarWPHpC3ESgGVuS9Z
kxAx4FBMcwhNi7M5J4TThCrmeX+ThX/KE57IU6Kim49P07cr8AAs+18IQfXvJseJ
-----END CERTIFICATE-----
