Certificate:
    Data:
        Version: 3 (0x2)
        Serial Number:
            6e:98:85:02:fc:9a:54:9c:d5:9f:03:fe:39:87:69:d4
        Signature Algorithm: sha256WithRSAEncryption
        Issuer: CN=team409-net
        Validity
            Not Before: Nov  4 11:36:42 2023 GMT
            Not After : Oct 19 11:36:42 2026 GMT
        Subject: CN=team409-server
        Subject Public Key Info:
            Public Key Algorithm: rsaEncryption
                Public-Key: (2048 bit)
                Modulus:
                    00:c6:e7:12:85:29:0a:de:00:db:3f:51:a8:57:4c:
                    e9:2d:1d:e2:39:84:42:7e:4b:cf:57:7c:17:27:d6:
                    f3:12:7d:a3:dd:47:e7:4c:bf:0c:34:6d:8e:2e:28:
                    87:d6:ee:f0:73:8c:cb:56:05:a2:f5:1f:1e:11:86:
                    c4:0f:88:c5:a4:ab:d4:c8:aa:90:c0:77:19:ba:2c:
                    93:9b:40:b0:75:22:73:05:14:09:f3:5c:5b:bf:eb:
                    27:03:e8:ab:31:29:9c:c2:16:ae:6f:dd:d6:8f:f2:
                    af:37:a0:08:28:cf:4f:e1:df:ef:2e:d1:1e:84:b5:
                    d5:a0:5d:8d:ab:4c:c8:9d:81:ba:85:ad:f4:7f:b3:
                    4f:1c:f5:b8:5b:48:a2:54:99:91:a3:8a:96:e4:0e:
                    cb:ea:47:b1:7a:4a:9b:bc:f2:06:0e:fc:6a:9c:1e:
                    2a:3b:16:7d:e3:30:dc:d7:c3:41:5b:f1:fc:75:03:
                    33:39:9c:74:d0:dc:f3:71:6c:c4:0c:8a:33:c2:76:
                    36:81:10:ac:5a:6c:8e:50:70:a1:f2:5b:68:ce:8c:
                    fc:f9:77:e0:98:a2:fa:23:1f:72:30:c5:37:31:3b:
                    e1:c8:68:3e:8e:0d:c8:50:65:26:ac:1d:e7:da:9e:
                    61:63:cb:c8:3e:32:96:ca:0c:0f:90:e6:47:57:7d:
                    37:53
                Exponent: 65537 (0x10001)
        X509v3 extensions:
            X509v3 Basic Constraints: 
                CA:FALSE
            X509v3 Subject Key Identifier: 
                BF:10:9D:DE:F0:3D:8A:43:F9:E9:E0:08:1F:25:83:3C:8E:72:DD:F4
            X509v3 Authority Key Identifier: 
                keyid:00:C6:04:3F:99:E8:38:EA:75:FD:E9:30:10:72:22:B0:66:F0:1C:56
                DirName:/CN=team409-net
                serial:5D:70:9E:31:66:68:95:09:7F:CF:2F:18:8F:AC:81:34:11:4B:DD:17
            X509v3 Extended Key Usage: 
                TLS Web Server Authentication
            X509v3 Key Usage: 
                Digital Signature, Key Encipherment
            X509v3 Subject Alternative Name: 
                DNS:team409-server
    Signature Algorithm: sha256WithRSAEncryption
    Signature Value:
        8e:bf:50:97:5e:0f:11:a1:da:26:03:0c:31:f5:3b:8e:47:be:
        96:af:be:6c:79:95:26:a1:bc:8e:6a:0a:e9:9b:e9:cf:ae:c9:
        10:d7:4c:ba:2c:f2:96:8c:c0:2e:11:97:38:b0:dd:5c:66:83:
        86:f5:09:3b:f9:db:43:a2:84:e7:67:e2:32:b6:bb:ce:3f:a3:
        f2:4f:b4:54:a3:5a:8d:0c:c1:fa:01:1e:87:52:46:e8:2b:c0:
        90:f3:6e:47:83:cd:fa:cb:74:a8:eb:59:e5:31:14:ce:ee:63:
        8c:0b:e8:0f:18:b8:b0:e2:99:12:d0:74:7f:41:05:42:0b:cb:
        63:f8:b3:19:cf:0c:96:1f:01:e1:78:07:70:6a:8c:24:cf:77:
        8a:3b:07:02:57:6a:71:5d:03:b0:a6:d3:5a:fa:b2:4a:76:54:
        c2:2c:9b:3a:dc:bf:32:b8:a6:56:dd:ca:d9:f1:25:69:78:fc:
        07:6e:d5:30:b9:c5:11:ea:e8:87:e9:5d:24:57:a3:d3:d5:22:
        e8:cd:dc:1b:51:9a:86:ee:f8:89:27:6e:74:19:6d:03:4c:df:
        42:5c:16:6a:a4:50:84:fd:37:b1:f1:cc:b9:89:a7:95:4d:85:
        e5:36:b1:ff:88:70:6e:54:12:a2:ef:50:d8:b8:71:8c:f8:79:
        ba:a8:23:f0
-----BEGIN CERTIFICATE-----
MIIDdzCCAl+gAwIBAgIQbpiFAvyaVJzVnwP+OYdp1DANBgkqhkiG9w0BAQsFADAW
MRQwEgYDVQQDDAt0ZWFtNDA5LW5ldDAeFw0yMzExMDQxMTM2NDJaFw0yNjEwMTkx
MTM2NDJaMBkxFzAVBgNVBAMMDnRlYW00MDktc2VydmVyMIIBIjANBgkqhkiG9w0B
AQEFAAOCAQ8AMIIBCgKCAQEAxucShSkK3gDbP1GoV0zpLR3iOYRCfkvPV3wXJ9bz
En2j3UfnTL8MNG2OLiiH1u7wc4zLVgWi9R8eEYbED4jFpKvUyKqQwHcZuiyTm0Cw
dSJzBRQJ81xbv+snA+irMSmcwhaub93Wj/KvN6AIKM9P4d/vLtEehLXVoF2Nq0zI
nYG6ha30f7NPHPW4W0iiVJmRo4qW5A7L6kexekqbvPIGDvxqnB4qOxZ94zDc18NB
W/H8dQMzOZx00NzzcWzEDIozwnY2gRCsWmyOUHCh8ltozoz8+XfgmKL6Ix9yMMU3
MTvhyGg+jg3IUGUmrB3n2p5hY8vIPjKWygwPkOZHV303UwIDAQABo4G9MIG6MAkG
A1UdEwQCMAAwHQYDVR0OBBYEFL8Qnd7wPYpD+engCB8lgzyOct30MFEGA1UdIwRK
MEiAFADGBD+Z6Djqdf3pMBByIrBm8BxWoRqkGDAWMRQwEgYDVQQDDAt0ZWFtNDA5
LW5ldIIUXXCeMWZolQl/zy8Yj6yBNBFL3RcwEwYDVR0lBAwwCgYIKwYBBQUHAwEw
CwYDVR0PBAQDAgWgMBkGA1UdEQQSMBCCDnRlYW00MDktc2VydmVyMA0GCSqGSIb3
DQEBCwUAA4IBAQCOv1CXXg8RodomAwwx9TuOR76Wr75seZUmobyOagrpm+nPrskQ
10y6LPKWjMAuEZc4sN1cZoOG9Qk7+dtDooTnZ+IytrvOP6PyT7RUo1qNDMH6AR6H
UkboK8CQ825Hg836y3So61nlMRTO7mOMC+gPGLiw4pkS0HR/QQVCC8tj+LMZzwyW
HwHheAdwaowkz3eKOwcCV2pxXQOwptNa+rJKdlTCLJs63L8yuKZW3crZ8SVpePwH
btUwucUR6uiH6V0kV6PT1SLozdwbUZqG7viJJ250GW0DTN9CXBZqpFCE/Tex8cy5
iaeVTYXlNrH/iHBuVBKi71DYuHGM+Hm6qCPw
-----END CERTIFICATE-----
