Certificate:
    Data:
        Version: 3 (0x2)
        Serial Number:
            e2:a6:7f:48:35:38:3e:e6:05:6f:7e:2a:a8:9a:bd:37
        Signature Algorithm: sha256WithRSAEncryption
        Issuer: CN=team409-net
        Validity
            Not Before: Nov  3 20:46:40 2023 GMT
            Not After : Oct 18 20:46:40 2026 GMT
        Subject: CN=team409-client
        Subject Public Key Info:
            Public Key Algorithm: rsaEncryption
                Public-Key: (2048 bit)
                Modulus:
                    00:dc:af:f5:48:41:72:f7:8c:12:d1:58:ed:ea:73:
                    6c:28:0f:94:04:d0:d7:6f:a9:7e:68:d4:0c:86:b9:
                    65:54:fc:32:61:aa:71:1e:65:03:06:42:7d:3f:63:
                    b0:46:01:b3:ea:a6:bb:c5:75:c1:47:0c:a6:00:05:
                    8b:2f:f5:19:9f:84:e6:f0:84:22:12:f4:0e:03:4b:
                    c4:70:f9:8b:ca:7e:1f:90:5f:79:ab:4f:97:87:54:
                    79:9e:26:7e:6b:28:00:25:e3:15:5b:f9:2c:26:ca:
                    81:ff:77:c9:7e:59:22:b9:97:89:5f:4a:f6:2b:e2:
                    3d:f3:a1:e0:05:3e:9f:83:ea:7d:5a:1c:cf:ae:d5:
                    4d:83:df:dd:9b:99:a0:d8:5f:b9:c4:3b:e4:ef:f1:
                    ba:01:2a:7a:3e:bc:ca:ff:10:b0:41:48:b2:8c:db:
                    94:f1:bf:c8:a0:e1:69:d4:e7:24:3b:96:25:be:89:
                    1b:ff:30:b2:20:75:89:fe:78:6f:39:c2:ae:52:45:
                    ee:42:10:11:af:c8:88:31:b5:fe:6c:c9:fb:de:db:
                    cd:3d:7f:16:a3:4e:2c:62:ba:65:83:be:d1:06:3e:
                    ae:d9:75:9d:fe:61:1c:91:7d:3f:55:a8:e4:88:7e:
                    fc:2d:35:61:1e:a1:21:0d:f6:e3:64:ea:36:f9:bb:
                    9e:f5
                Exponent: 65537 (0x10001)
        X509v3 extensions:
            X509v3 Basic Constraints: 
                CA:FALSE
            X509v3 Subject Key Identifier: 
                DC:F9:89:DB:CC:04:61:00:97:CA:8D:F0:C1:D6:B4:15:FE:E4:13:7B
            X509v3 Authority Key Identifier: 
                keyid:CD:69:1D:C8:1A:B0:9C:39:B0:A7:5A:D2:FC:A8:01:D8:65:95:4F:A1
                DirName:/CN=team409-net
                serial:07:74:1A:A0:30:87:11:8B:C0:52:2F:A0:76:10:02:86:B1:BA:F4:EA
            X509v3 Extended Key Usage: 
                TLS Web Client Authentication
            X509v3 Key Usage: 
                Digital Signature
    Signature Algorithm: sha256WithRSAEncryption
    Signature Value:
        43:eb:83:43:a9:4e:bb:35:98:f4:c8:d2:41:ec:94:83:1b:7f:
        76:7c:ed:a2:ed:ef:d2:a2:1f:35:39:e6:5c:05:5e:88:23:b6:
        4b:b9:eb:66:b6:06:e9:8a:7b:e3:92:d2:be:a7:e4:96:3d:90:
        b5:a1:63:a2:b0:32:a7:db:e3:2c:24:0b:68:81:f6:d4:76:4d:
        b6:a1:da:1d:b6:5c:52:da:49:e8:43:3a:d6:37:d7:90:b1:11:
        da:b1:65:83:60:d6:2b:f4:4a:b8:40:c9:b2:61:2a:4c:bb:15:
        c4:87:a2:e0:e5:32:b7:63:38:e8:e0:68:59:a5:40:be:8a:f9:
        3f:38:db:92:28:64:37:80:55:b0:58:c8:e3:45:ba:65:1d:0c:
        9a:08:78:18:f1:6e:bf:b1:c6:c9:23:47:f8:97:9f:59:7b:9f:
        6e:d3:33:11:c9:d1:7b:80:63:be:7d:76:a1:ca:79:a5:d2:52:
        26:46:75:f0:0a:5c:4e:f1:b7:b5:c5:fa:8d:07:a6:87:a4:d2:
        2c:c1:16:60:3c:77:c6:9c:cc:54:6c:73:f1:28:c9:0e:62:86:
        93:bd:21:d8:33:07:52:c6:20:57:ac:f0:93:ab:54:10:72:60:
        a1:70:28:68:2c:bb:fe:b5:28:03:83:a0:fa:96:25:99:15:3b:
        b0:c0:98:47
-----BEGIN CERTIFICATE-----
MIIDXTCCAkWgAwIBAgIRAOKmf0g1OD7mBW9+KqiavTcwDQYJKoZIhvcNAQELBQAw
FjEUMBIGA1UEAwwLdGVhbTQwOS1uZXQwHhcNMjMxMTAzMjA0NjQwWhcNMjYxMDE4
MjA0NjQwWjAZMRcwFQYDVQQDDA50ZWFtNDA5LWNsaWVudDCCASIwDQYJKoZIhvcN
AQEBBQADggEPADCCAQoCggEBANyv9UhBcveMEtFY7epzbCgPlATQ12+pfmjUDIa5
ZVT8MmGqcR5lAwZCfT9jsEYBs+qmu8V1wUcMpgAFiy/1GZ+E5vCEIhL0DgNLxHD5
i8p+H5BfeatPl4dUeZ4mfmsoACXjFVv5LCbKgf93yX5ZIrmXiV9K9iviPfOh4AU+
n4PqfVocz67VTYPf3ZuZoNhfucQ75O/xugEqej68yv8QsEFIsozblPG/yKDhadTn
JDuWJb6JG/8wsiB1if54bznCrlJF7kIQEa/IiDG1/mzJ+97bzT1/FqNOLGK6ZYO+
0QY+rtl1nf5hHJF9P1Wo5Ih+/C01YR6hIQ3242TqNvm7nvUCAwEAAaOBojCBnzAJ
BgNVHRMEAjAAMB0GA1UdDgQWBBTc+YnbzARhAJfKjfDB1rQV/uQTezBRBgNVHSME
SjBIgBTNaR3IGrCcObCnWtL8qAHYZZVPoaEapBgwFjEUMBIGA1UEAwwLdGVhbTQw
OS1uZXSCFAd0GqAwhxGLwFIvoHYQAoaxuvTqMBMGA1UdJQQMMAoGCCsGAQUFBwMC
MAsGA1UdDwQEAwIHgDANBgkqhkiG9w0BAQsFAAOCAQEAQ+uDQ6lOuzWY9MjSQeyU
gxt/dnztou3v0qIfNTnmXAVeiCO2S7nrZrYG6Yp745LSvqfklj2QtaFjorAyp9vj
LCQLaIH21HZNtqHaHbZcUtpJ6EM61jfXkLER2rFlg2DWK/RKuEDJsmEqTLsVxIei
4OUyt2M46OBoWaVAvor5PzjbkihkN4BVsFjI40W6ZR0Mmgh4GPFuv7HGySNH+Jef
WXufbtMzEcnRe4Bjvn12ocp5pdJSJkZ18ApcTvG3tcX6jQemh6TSLMEWYDx3xpzM
VGxz8SjJDmKGk70h2DMHUsYgV6zwk6tUEHJgoXAoaCy7/rUoA4Og+pYlmRU7sMCY
Rw==
-----END CERTIFICATE-----
