Certificate:
    Data:
        Version: 3 (0x2)
        Serial Number:
            e4:26:f9:a2:41:fb:57:78:5d:09:87:2a:b0:53:d3:30
        Signature Algorithm: sha256WithRSAEncryption
        Issuer: CN=team409-net
        Validity
            Not Before: Nov  3 20:46:40 2023 GMT
            Not After : Oct 18 20:46:40 2026 GMT
        Subject: CN=team409-server
        Subject Public Key Info:
            Public Key Algorithm: rsaEncryption
                Public-Key: (2048 bit)
                Modulus:
                    00:9b:f0:4b:9a:f7:2c:ca:60:b9:00:5d:d4:ed:b5:
                    80:82:b4:a5:a8:b7:f2:89:84:db:6a:be:63:fb:7d:
                    80:47:7a:e4:2d:16:b2:8c:6b:d9:00:9d:1e:7d:a7:
                    35:e7:0c:f2:1c:8d:7a:86:18:93:6e:11:27:01:82:
                    ba:b1:da:a0:03:1a:d3:3d:28:75:f0:87:7b:f3:89:
                    3f:29:d7:5b:a7:83:59:13:fd:18:33:dc:31:cd:b9:
                    d1:1e:81:ec:6a:b6:16:c8:cc:d0:8e:c1:9a:19:46:
                    23:94:9f:61:aa:f6:ca:fd:ff:25:ae:2a:a6:32:fe:
                    30:75:cc:85:ef:e5:79:38:18:f2:2e:00:44:4d:34:
                    17:6c:9e:58:95:67:f9:d2:e9:64:9e:5a:e0:38:95:
                    71:c7:73:fa:2b:5d:b6:6a:e7:3d:f9:82:06:43:6b:
                    68:fd:e2:5e:3f:65:a0:da:bf:51:c4:53:f7:47:b5:
                    2a:1e:6f:f3:8a:b2:4e:41:f1:ab:23:43:83:a7:f0:
                    12:b2:01:f3:ca:6a:3d:25:e3:71:32:ac:34:68:b9:
                    92:9a:d1:aa:b8:ad:e6:9e:32:53:e1:67:c9:ef:64:
                    03:bb:39:d6:22:d1:a2:54:fb:60:28:d2:ad:d8:c2:
                    2b:6a:7a:a5:ee:5d:d2:6f:54:90:81:75:c1:3d:2c:
                    12:73
                Exponent: 65537 (0x10001)
        X509v3 extensions:
            X509v3 Basic Constraints: 
                CA:FALSE
            X509v3 Subject Key Identifier: 
                03:A6:C3:20:F2:8A:45:73:2B:AF:38:B5:91:1D:41:05:85:11:49:E9
            X509v3 Authority Key Identifier: 
                keyid:CD:69:1D:C8:1A:B0:9C:39:B0:A7:5A:D2:FC:A8:01:D8:65:95:4F:A1
                DirName:/CN=team409-net
                serial:07:74:1A:A0:30:87:11:8B:C0:52:2F:A0:76:10:02:86:B1:BA:F4:EA
            X509v3 Extended Key Usage: 
                TLS Web Server Authentication
            X509v3 Key Usage: 
                Digital Signature, Key Encipherment
            X509v3 Subject Alternative Name: 
                DNS:team409-server
    Signature Algorithm: sha256WithRSAEncryption
    Signature Value:
        66:8a:85:23:db:83:86:37:4f:f1:e7:7a:a6:15:52:f8:87:80:
        ae:d7:e6:b1:7e:57:ac:21:a9:73:09:74:7a:3c:e9:3c:6e:3c:
        3f:fe:04:88:56:50:07:5a:c0:27:0e:be:a2:53:28:19:bc:61:
        2d:04:04:e5:85:e6:e3:11:8a:02:64:24:cd:b0:af:a9:86:0d:
        10:68:12:63:7a:76:e2:96:ae:c3:ba:b4:2f:ae:4d:e7:b9:72:
        2e:56:16:3b:07:30:f2:8d:80:37:23:e8:24:ad:1b:41:0f:6c:
        76:e2:76:5e:02:9a:ba:80:c4:93:5e:1c:4b:90:5d:50:6a:80:
        c0:4d:e7:0a:8b:a6:d6:74:fd:87:0d:84:5b:42:29:15:04:bd:
        95:9c:a6:5f:08:ce:f1:d6:20:a2:13:60:9f:f2:10:5c:6f:9c:
        54:a3:fe:f4:2a:e8:83:5b:bd:03:9b:c4:50:3f:5d:10:df:27:
        ca:8b:5b:5f:d6:a8:d8:69:d9:de:71:ef:f5:65:bd:a2:b1:cc:
        ea:8b:b3:97:e5:d8:15:3f:db:08:e5:1c:7e:4a:d5:bd:3f:b8:
        73:a8:ec:9a:ad:c4:9c:1c:9a:28:a7:b4:11:ac:7f:5b:c5:c9:
        78:9b:fa:56:60:3c:fb:82:20:3a:35:d7:ad:1f:dd:80:50:53:
        07:ea:ea:23
-----BEGIN CERTIFICATE-----
MIIDeDCCAmCgAwIBAgIRAOQm+aJB+1d4XQmHKrBT0zAwDQYJKoZIhvcNAQELBQAw
FjEUMBIGA1UEAwwLdGVhbTQwOS1uZXQwHhcNMjMxMTAzMjA0NjQwWhcNMjYxMDE4
MjA0NjQwWjAZMRcwFQYDVQQDDA50ZWFtNDA5LXNlcnZlcjCCASIwDQYJKoZIhvcN
AQEBBQADggEPADCCAQoCggEBAJvwS5r3LMpguQBd1O21gIK0pai38omE22q+Y/t9
gEd65C0Wsoxr2QCdHn2nNecM8hyNeoYYk24RJwGCurHaoAMa0z0odfCHe/OJPynX
W6eDWRP9GDPcMc250R6B7Gq2FsjM0I7BmhlGI5SfYar2yv3/Ja4qpjL+MHXMhe/l
eTgY8i4ARE00F2yeWJVn+dLpZJ5a4DiVccdz+itdtmrnPfmCBkNraP3iXj9loNq/
UcRT90e1Kh5v84qyTkHxqyNDg6fwErIB88pqPSXjcTKsNGi5kprRqrit5p4yU+Fn
ye9kA7s51iLRolT7YCjSrdjCK2p6pe5d0m9UkIF1wT0sEnMCAwEAAaOBvTCBujAJ
BgNVHRMEAjAAMB0GA1UdDgQWBBQDpsMg8opFcyuvOLWRHUEFhRFJ6TBRBgNVHSME
SjBIgBTNaR3IGrCcObCnWtL8qAHYZZVPoaEapBgwFjEUMBIGA1UEAwwLdGVhbTQw
OS1uZXSCFAd0GqAwhxGLwFIvoHYQAoaxuvTqMBMGA1UdJQQMMAoGCCsGAQUFBwMB
MAsGA1UdDwQEAwIFoDAZBgNVHREEEjAQgg50ZWFtNDA5LXNlcnZlcjANBgkqhkiG
9w0BAQsFAAOCAQEAZoqFI9uDhjdP8ed6phVS+IeArtfmsX5XrCGpcwl0ejzpPG48
P/4EiFZQB1rAJw6+olMoGbxhLQQE5YXm4xGKAmQkzbCvqYYNEGgSY3p24pauw7q0
L65N57lyLlYWOwcw8o2ANyPoJK0bQQ9sduJ2XgKauoDEk14cS5BdUGqAwE3nCoum
1nT9hw2EW0IpFQS9lZymXwjO8dYgohNgn/IQXG+cVKP+9Crog1u9A5vEUD9dEN8n
yotbX9ao2GnZ3nHv9WW9orHM6ouzl+XYFT/bCOUcfkrVvT+4c6jsmq3EnByaKKe0
Eax/W8XJeJv6VmA8+4IgOjXXrR/dgFBTB+rqIw==
-----END CERTIFICATE-----
