Certificate:
    Data:
        Version: 3 (0x2)
        Serial Number:
            76:42:48:98:33:63:4b:33:0c:77:b8:37:7a:b2:5d:53
        Signature Algorithm: sha256WithRSAEncryption
        Issuer: CN=team189-net
        Validity
            Not Before: Nov  3 20:42:42 2023 GMT
            Not After : Oct 18 20:42:42 2026 GMT
        Subject: CN=team189-server
        Subject Public Key Info:
            Public Key Algorithm: rsaEncryption
                Public-Key: (2048 bit)
                Modulus:
                    00:de:c6:2e:0a:74:fe:7e:8b:1e:0f:d6:d2:79:2c:
                    62:f7:fc:78:d2:92:73:e0:cc:80:07:38:92:4c:85:
                    99:de:7c:7e:72:8d:ef:6e:9a:a1:e1:ef:16:df:15:
                    40:7f:d9:d9:80:b2:03:62:ac:04:4f:cd:0c:9c:e7:
                    1e:67:73:50:67:7f:4d:27:b9:46:50:96:0e:3b:47:
                    c2:e5:c6:d7:f7:61:27:41:42:ca:92:8c:fb:17:76:
                    8a:9d:a9:51:9f:76:b6:36:8a:53:94:85:6b:c2:49:
                    52:d5:4f:b6:56:9f:a8:eb:4e:5f:db:e0:2f:ae:18:
                    54:f5:7f:d3:4e:a3:6b:87:34:90:7a:47:8a:be:99:
                    61:8b:f4:1f:17:64:43:4a:96:cb:f4:3f:7a:78:0a:
                    9a:09:2d:fe:f8:6a:29:22:1f:c7:ec:78:9e:f5:15:
                    d5:c2:ff:fa:96:1c:b9:db:0a:ea:24:4e:bc:e2:f9:
                    ec:d7:a3:9f:35:3f:1f:e3:82:81:ed:ae:8f:28:7d:
                    5c:ed:c9:49:0f:ad:be:84:13:e4:24:e8:5c:2a:69:
                    dc:e5:fe:08:53:69:56:49:90:a4:53:dd:95:19:bb:
                    94:00:92:c6:a0:a8:f6:7a:66:b1:08:f8:b3:0a:7c:
                    c0:cf:ac:2c:52:85:66:ea:0a:7f:a1:d5:49:f6:7f:
                    6b:0f
                Exponent: 65537 (0x10001)
        X509v3 extensions:
            X509v3 Basic Constraints: 
                CA:FALSE
            X509v3 Subject Key Identifier: 
                69:CF:C4:6A:8E:8D:0B:2C:E9:75:D6:B5:3A:2E:F2:20:A9:62:72:2A
            X509v3 Authority Key Identifier: 
                keyid:AE:0E:9E:83:56:48:26:7E:CD:6C:37:F4:D1:29:CC:CC:4E:4C:05:F9
                DirName:/CN=team189-net
                serial:5E:31:C8:AA:34:12:94:17:65:48:FA:C0:69:A6:FA:7F:D3:66:83:D6
            X509v3 Extended Key Usage: 
                TLS Web Server Authentication
            X509v3 Key Usage: 
                Digital Signature, Key Encipherment
            X509v3 Subject Alternative Name: 
                DNS:team189-server
    Signature Algorithm: sha256WithRSAEncryption
    Signature Value:
        8b:59:b3:6f:4d:89:d0:f6:ec:83:e5:36:a2:b5:67:d7:81:5e:
        4f:0d:a5:54:9f:a4:00:b4:bd:ac:41:7e:28:91:31:86:3c:bb:
        cf:dc:ad:06:ba:9e:e4:31:b6:96:80:89:2c:88:b1:3d:50:91:
        88:88:5a:ab:5e:be:fb:08:03:25:78:ee:0f:e4:0f:07:95:0e:
        bf:50:4d:c0:aa:12:85:24:da:70:dc:30:04:f5:0f:88:ec:c5:
        0d:05:11:63:05:b8:67:17:79:95:aa:d6:20:09:bb:3d:e8:0e:
        81:44:56:3e:04:fa:b9:01:d8:d1:78:b4:b1:7f:e6:af:a6:bb:
        c2:5d:1e:c4:44:e5:dc:b0:ba:a7:91:c9:96:9c:fd:9f:ae:d5:
        0a:ed:bd:bc:02:32:71:a6:7f:21:8e:fa:91:a3:68:30:7c:69:
        60:f2:09:a4:c8:ed:5b:aa:37:6a:58:32:84:bd:ac:c1:26:f4:
        b3:8b:0f:d7:f6:e3:91:cc:0d:3b:b6:bf:b5:7a:6b:29:30:b2:
        71:6b:2e:51:7b:0a:70:6d:98:73:ef:0c:8f:ea:f3:40:c8:33:
        cc:73:8b:d7:7c:e7:a4:65:58:f6:89:38:57:32:05:15:1d:0c:
        03:36:ae:58:4a:fd:b6:c6:9b:a3:88:21:75:c0:65:4e:26:eb:
        d2:f7:a5:8e
-----BEGIN CERTIFICATE-----
MIIDdzCCAl+gAwIBAgIQdkJImDNjSzMMd7g3erJdUzANBgkqhkiG9w0BAQsFADAW
MRQwEgYDVQQDDAt0ZWFtMTg5LW5ldDAeFw0yMzExMDMyMDQyNDJaFw0yNjEwMTgy
MDQyNDJaMBkxFzAVBgNVBAMMDnRlYW0xODktc2VydmVyMIIBIjANBgkqhkiG9w0B
AQEFAAOCAQ8AMIIBCgKCAQEA3sYuCnT+foseD9bSeSxi9/x40pJz4MyABziSTIWZ
3nx+co3vbpqh4e8W3xVAf9nZgLIDYqwET80MnOceZ3NQZ39NJ7lGUJYOO0fC5cbX
92EnQULKkoz7F3aKnalRn3a2NopTlIVrwklS1U+2Vp+o605f2+AvrhhU9X/TTqNr
hzSQekeKvplhi/QfF2RDSpbL9D96eAqaCS3++GopIh/H7Hie9RXVwv/6lhy52wrq
JE684vns16OfNT8f44KB7a6PKH1c7clJD62+hBPkJOhcKmnc5f4IU2lWSZCkU92V
GbuUAJLGoKj2emaxCPizCnzAz6wsUoVm6gp/odVJ9n9rDwIDAQABo4G9MIG6MAkG
A1UdEwQCMAAwHQYDVR0OBBYEFGnPxGqOjQss6XXWtTou8iCpYnIqMFEGA1UdIwRK
MEiAFK4OnoNWSCZ+zWw39NEpzMxOTAX5oRqkGDAWMRQwEgYDVQQDDAt0ZWFtMTg5
LW5ldIIUXjHIqjQSlBdlSPrAaab6f9Nmg9YwEwYDVR0lBAwwCgYIKwYBBQUHAwEw
CwYDVR0PBAQDAgWgMBkGA1UdEQQSMBCCDnRlYW0xODktc2VydmVyMA0GCSqGSIb3
DQEBCwUAA4IBAQCLWbNvTYnQ9uyD5TaitWfXgV5PDaVUn6QAtL2sQX4okTGGPLvP
3K0Gup7kMbaWgIksiLE9UJGIiFqrXr77CAMleO4P5A8HlQ6/UE3AqhKFJNpw3DAE
9Q+I7MUNBRFjBbhnF3mVqtYgCbs96A6BRFY+BPq5AdjReLSxf+avprvCXR7EROXc
sLqnkcmWnP2frtUK7b28AjJxpn8hjvqRo2gwfGlg8gmkyO1bqjdqWDKEvazBJvSz
iw/X9uORzA07tr+1emspMLJxay5RewpwbZhz7wyP6vNAyDPMc4vXfOekZVj2iThX
MgUVHQwDNq5YSv22xpujiCF1wGVOJuvS96WO
-----END CERTIFICATE-----
