Certificate:
    Data:
        Version: 3 (0x2)
        Serial Number:
            08:28:6c:b5:d9:43:23:29:fe:be:9e:5d:b8:ad:1d:a8
        Signature Algorithm: sha256WithRSAEncryption
        Issuer: CN=team56-net
        Validity
            Not Before: Nov  4 11:28:27 2023 GMT
            Not After : Oct 19 11:28:27 2026 GMT
        Subject: CN=team56-client
        Subject Public Key Info:
            Public Key Algorithm: rsaEncryption
                Public-Key: (2048 bit)
                Modulus:
                    00:cf:11:15:37:b1:aa:83:8d:8c:6d:ee:66:43:f3:
                    b3:d4:4b:6c:e5:01:ec:62:35:02:bf:56:8b:de:f5:
                    ca:64:5d:8d:d2:99:1e:9e:c9:e3:85:a2:6d:d7:80:
                    c3:d1:66:23:29:d2:83:91:d3:95:45:22:d8:4b:65:
                    00:65:3b:3d:37:e1:d6:f5:6c:94:9a:65:df:a7:52:
                    71:a9:35:a2:84:c1:f6:f7:de:15:88:dc:e1:5b:0f:
                    84:34:e2:98:19:50:8f:ae:d9:b0:f7:29:c5:8e:28:
                    20:a2:f6:17:65:c8:47:bf:ee:22:b8:e8:a0:e3:95:
                    84:70:de:4e:43:da:82:a2:03:3d:d8:c0:12:ee:f0:
                    20:d1:a7:19:cf:4d:bf:29:76:05:89:a4:b1:82:50:
                    df:c8:3b:78:9a:7f:a6:96:50:e0:2b:45:f3:fb:ba:
                    80:27:c8:2f:08:69:01:06:d9:13:25:60:75:92:6d:
                    6d:67:e9:b4:d8:b1:03:a7:46:a1:75:03:ea:ee:8c:
                    d7:c9:a3:d0:4e:39:e5:09:bd:a1:32:01:61:c3:c9:
                    95:7b:67:0d:3c:fd:92:83:cc:8b:ef:24:e1:bc:c0:
                    c7:c5:4b:49:f4:25:04:9b:a1:88:59:fc:8d:4c:8b:
                    ce:e5:f0:ea:80:28:6c:7e:bc:4f:5e:9c:11:df:ac:
                    11:37
                Exponent: 65537 (0x10001)
        X509v3 extensions:
            X509v3 Basic Constraints: 
                CA:FALSE
            X509v3 Subject Key Identifier: 
                DE:95:F7:AD:5B:B3:62:6B:C8:9F:79:18:25:3C:86:C9:6C:5E:D5:F1
            X509v3 Authority Key Identifier: 
                keyid:F0:BB:66:19:8A:80:36:8E:AF:B7:85:7B:BE:31:E3:60:D1:91:B0:6B
                DirName:/CN=team56-net
                serial:08:12:FF:E3:5E:88:7C:52:01:6F:E4:00:ED:54:B5:1D:74:0D:A3:D7
            X509v3 Extended Key Usage: 
                TLS Web Client Authentication
            X509v3 Key Usage: 
                Digital Signature
    Signature Algorithm: sha256WithRSAEncryption
    Signature Value:
        a5:d0:47:a8:d2:85:c5:d2:a7:90:ff:d4:3b:5b:84:32:33:c3:
        8d:26:5f:fa:68:98:88:95:d2:5b:1e:84:6f:09:70:01:99:52:
        8b:49:49:fb:18:e4:77:6b:86:8d:42:6c:8c:08:93:9d:3a:f8:
        2e:50:e0:2f:32:c4:dc:a2:d6:77:db:9f:5f:a4:0f:f8:70:dc:
        ac:99:41:98:83:36:c4:e7:8e:4e:34:5e:1f:b9:9a:44:ce:8e:
        bf:15:19:23:70:c9:23:5b:92:50:17:91:2d:fd:7f:de:b1:47:
        1e:35:75:74:81:3e:8d:fc:cb:8c:12:19:a8:84:67:54:2e:ef:
        76:1a:5f:4c:56:87:ef:15:b8:45:e3:5a:56:d1:c1:05:09:ca:
        ef:b8:32:34:c7:64:d1:6d:88:88:7d:45:51:ac:3f:5c:d5:8c:
        1d:c0:8e:2d:05:ff:4e:9f:b4:73:a4:8f:84:4a:e6:1f:ef:64:
        41:84:8c:f2:e2:1b:0b:79:d8:df:fc:f8:25:cf:8a:8e:e5:38:
        ff:77:e8:c5:ce:b0:21:d7:2a:4a:47:56:60:b5:80:c9:2f:e9:
        3e:b2:4e:b4:e7:35:78:c7:68:6f:e5:c5:6e:f3:4e:7a:b3:50:
        58:77:60:90:ed:9f:28:ca:87:b1:05:29:d2:43:21:c2:db:86:
        d8:fd:dc:bc
-----BEGIN CERTIFICATE-----
MIIDWTCCAkGgAwIBAgIQCChstdlDIyn+vp5duK0dqDANBgkqhkiG9w0BAQsFADAV
MRMwEQYDVQQDDAp0ZWFtNTYtbmV0MB4XDTIzMTEwNDExMjgyN1oXDTI2MTAxOTEx
MjgyN1owGDEWMBQGA1UEAwwNdGVhbTU2LWNsaWVudDCCASIwDQYJKoZIhvcNAQEB
BQADggEPADCCAQoCggEBAM8RFTexqoONjG3uZkPzs9RLbOUB7GI1Ar9Wi971ymRd
jdKZHp7J44WibdeAw9FmIynSg5HTlUUi2EtlAGU7PTfh1vVslJpl36dScak1ooTB
9vfeFYjc4VsPhDTimBlQj67ZsPcpxY4oIKL2F2XIR7/uIrjooOOVhHDeTkPagqID
PdjAEu7wINGnGc9Nvyl2BYmksYJQ38g7eJp/ppZQ4CtF8/u6gCfILwhpAQbZEyVg
dZJtbWfptNixA6dGoXUD6u6M18mj0E455Qm9oTIBYcPJlXtnDTz9koPMi+8k4bzA
x8VLSfQlBJuhiFn8jUyLzuXw6oAobH68T16cEd+sETcCAwEAAaOBoTCBnjAJBgNV
HRMEAjAAMB0GA1UdDgQWBBTelfetW7Nia8ifeRglPIbJbF7V8TBQBgNVHSMESTBH
gBTwu2YZioA2jq+3hXu+MeNg0ZGwa6EZpBcwFTETMBEGA1UEAwwKdGVhbTU2LW5l
dIIUCBL/416IfFIBb+QA7VS1HXQNo9cwEwYDVR0lBAwwCgYIKwYBBQUHAwIwCwYD
VR0PBAQDAgeAMA0GCSqGSIb3DQEBCwUAA4IBAQCl0Eeo0oXF0qeQ/9Q7W4QyM8ON
Jl/6aJiIldJbHoRvCXABmVKLSUn7GOR3a4aNQmyMCJOdOvguUOAvMsTcotZ3259f
pA/4cNysmUGYgzbE545ONF4fuZpEzo6/FRkjcMkjW5JQF5Et/X/esUceNXV0gT6N
/MuMEhmohGdULu92Gl9MVofvFbhF41pW0cEFCcrvuDI0x2TRbYiIfUVRrD9c1Ywd
wI4tBf9On7RzpI+ESuYf72RBhIzy4hsLedjf/Pglz4qO5Tj/d+jFzrAh1ypKR1Zg
tYDJL+k+sk605zV4x2hv5cVu8056s1BYd2CQ7Z8oyoexBSnSQyHC24bY/dy8
-----END CERTIFICATE-----
