Certificate:
    Data:
        Version: 3 (0x2)
        Serial Number:
            c3:9b:93:75:a8:2e:ee:b5:3f:cd:1b:4c:5a:90:b1:85
        Signature Algorithm: sha256WithRSAEncryption
        Issuer: CN=team56-net
        Validity
            Not Before: Nov  4 10:41:18 2023 GMT
            Not After : Oct 19 10:41:18 2026 GMT
        Subject: CN=team56-client
        Subject Public Key Info:
            Public Key Algorithm: rsaEncryption
                Public-Key: (2048 bit)
                Modulus:
                    00:c2:ec:89:0d:ba:94:8a:1e:5f:4b:24:e3:34:a3:
                    91:16:35:e9:f2:07:dc:5d:4c:60:26:55:af:e7:19:
                    88:3e:ff:66:d6:eb:54:07:73:36:c8:e6:9e:3f:bf:
                    61:74:7d:5e:a4:29:4b:69:29:6d:11:7c:a5:4f:45:
                    c8:a1:50:05:4b:2b:ea:ba:8e:f4:10:ed:39:86:32:
                    4a:2c:ca:7f:2e:ab:9c:92:a8:cb:9d:48:68:35:1d:
                    ac:f1:44:38:78:cf:ff:bc:ad:81:fa:3d:68:7e:66:
                    77:87:71:76:9d:48:21:cd:f5:bb:92:b0:b7:4e:08:
                    5c:77:dd:3e:8e:ec:1e:fe:e4:5a:64:be:02:80:31:
                    38:ee:c3:87:b4:d4:fa:50:48:7b:d1:84:51:c7:26:
                    52:0a:18:37:ec:44:45:af:50:76:ac:d0:ac:20:b2:
                    e4:27:c4:c4:35:4f:49:22:73:5b:73:51:05:14:c7:
                    e8:83:a8:bd:80:76:dd:78:84:87:36:7e:16:64:6c:
                    77:e1:72:5d:f3:06:88:7d:f2:97:13:5d:9f:a1:97:
                    64:86:69:33:ca:20:39:ba:ea:cc:ff:f3:a0:69:fb:
                    5e:59:86:a2:f3:47:a0:8f:2b:0b:84:51:7f:06:90:
                    cc:a7:d4:b1:a8:4b:8a:3b:f5:7e:57:ec:92:4f:a6:
                    ed:0d
                Exponent: 65537 (0x10001)
        X509v3 extensions:
            X509v3 Basic Constraints: 
                CA:FALSE
            X509v3 Subject Key Identifier: 
                D4:26:DA:2C:A2:41:FC:65:FD:A7:A2:94:D3:BC:93:44:9D:55:B4:B7
            X509v3 Authority Key Identifier: 
                keyid:D1:CB:A4:07:6A:D5:EE:94:BD:6D:97:3F:60:D5:94:47:68:CB:02:3D
                DirName:/CN=team56-net
                serial:07:9B:D5:93:05:98:9D:E7:D7:90:21:FF:07:FC:B4:03:F5:FF:4F:3F
            X509v3 Extended Key Usage: 
                TLS Web Client Authentication
            X509v3 Key Usage: 
                Digital Signature
    Signature Algorithm: sha256WithRSAEncryption
    Signature Value:
        5a:19:74:94:d7:44:65:dc:c9:c7:1b:e0:d1:49:31:9a:67:e1:
        40:73:33:49:b7:5e:d7:56:4c:43:1a:e5:41:66:0f:a8:df:3c:
        2b:6a:9d:e9:1d:72:bf:70:47:09:99:52:e7:2c:ce:34:8f:b5:
        5e:de:67:1a:c8:b2:f1:59:dd:6d:4d:b8:2d:fb:c2:9b:59:c8:
        9c:dd:8b:1b:e7:dc:7d:b3:81:79:79:78:a1:2c:0e:9d:9b:42:
        0f:a9:36:32:c2:d7:ed:ab:05:39:67:35:2e:68:91:58:52:bd:
        46:05:47:9c:fb:79:f2:61:c4:22:c4:bf:ce:3c:97:66:8e:df:
        75:5c:24:51:bc:1d:62:c9:34:ee:6e:8c:fc:96:6a:59:58:93:
        20:db:32:14:3b:6f:b0:3c:7b:3f:86:79:ec:db:bd:82:83:7d:
        cf:ae:c3:25:f4:64:e2:cd:84:bc:bb:3d:b1:c0:d3:1b:60:76:
        69:ed:a1:fe:96:00:70:09:ac:f1:08:22:8d:84:8a:9b:7a:16:
        1c:c0:9a:83:31:78:ab:c6:05:f0:15:d0:15:95:c8:8a:9d:82:
        7f:bd:54:95:1b:37:eb:08:de:b3:2d:ae:ba:7e:b2:bd:84:17:
        43:d5:be:d3:42:ed:0b:eb:1b:67:27:e5:a3:74:f0:4f:60:38:
        e7:d9:b6:e1
-----BEGIN CERTIFICATE-----
MIIDWjCCAkKgAwIBAgIRAMObk3WoLu61P80bTFqQsYUwDQYJKoZIhvcNAQELBQAw
FTETMBEGA1UEAwwKdGVhbTU2LW5ldDAeFw0yMzExMDQxMDQxMThaFw0yNjEwMTkx
MDQxMThaMBgxFjAUBgNVBAMMDXRlYW01Ni1jbGllbnQwggEiMA0GCSqGSIb3DQEB
AQUAA4IBDwAwggEKAoIBAQDC7IkNupSKHl9LJOM0o5EWNenyB9xdTGAmVa/nGYg+
/2bW61QHczbI5p4/v2F0fV6kKUtpKW0RfKVPRcihUAVLK+q6jvQQ7TmGMkosyn8u
q5ySqMudSGg1HazxRDh4z/+8rYH6PWh+ZneHcXadSCHN9buSsLdOCFx33T6O7B7+
5FpkvgKAMTjuw4e01PpQSHvRhFHHJlIKGDfsREWvUHas0KwgsuQnxMQ1T0kic1tz
UQUUx+iDqL2Adt14hIc2fhZkbHfhcl3zBoh98pcTXZ+hl2SGaTPKIDm66sz/86Bp
+15ZhqLzR6CPKwuEUX8GkMyn1LGoS4o79X5X7JJPpu0NAgMBAAGjgaEwgZ4wCQYD
VR0TBAIwADAdBgNVHQ4EFgQU1CbaLKJB/GX9p6KU07yTRJ1VtLcwUAYDVR0jBEkw
R4AU0cukB2rV7pS9bZc/YNWUR2jLAj2hGaQXMBUxEzARBgNVBAMMCnRlYW01Ni1u
ZXSCFAeb1ZMFmJ3n15Ah/wf8tAP1/08/MBMGA1UdJQQMMAoGCCsGAQUFBwMCMAsG
A1UdDwQEAwIHgDANBgkqhkiG9w0BAQsFAAOCAQEAWhl0lNdEZdzJxxvg0Ukxmmfh
QHMzSbde11ZMQxrlQWYPqN88K2qd6R1yv3BHCZlS5yzONI+1Xt5nGsiy8VndbU24
LfvCm1nInN2LG+fcfbOBeXl4oSwOnZtCD6k2MsLX7asFOWc1LmiRWFK9RgVHnPt5
8mHEIsS/zjyXZo7fdVwkUbwdYsk07m6M/JZqWViTINsyFDtvsDx7P4Z57Nu9goN9
z67DJfRk4s2EvLs9scDTG2B2ae2h/pYAcAms8QgijYSKm3oWHMCagzF4q8YF8BXQ
FZXIip2Cf71UlRs36wjesy2uun6yvYQXQ9W+00LtC+sbZyflo3TwT2A459m24Q==
-----END CERTIFICATE-----
