Certificate:
    Data:
        Version: 3 (0x2)
        Serial Number:
            cb:6e:22:7e:e1:02:46:c7:07:d6:e6:47:99:d7:1b:c9
        Signature Algorithm: sha256WithRSAEncryption
        Issuer: CN=team56-net
        Validity
            Not Before: Nov  4 10:41:18 2023 GMT
            Not After : Oct 19 10:41:18 2026 GMT
        Subject: CN=team56-server
        Subject Public Key Info:
            Public Key Algorithm: rsaEncryption
                Public-Key: (2048 bit)
                Modulus:
                    00:d9:ac:ff:cf:e9:5f:6a:c0:a8:d5:a2:04:85:27:
                    83:bf:c3:07:1f:8d:a4:85:55:ce:75:c0:95:29:2e:
                    93:8f:74:5d:ac:e3:92:4d:89:c8:01:25:94:a6:40:
                    0c:09:54:4c:21:62:23:e8:0d:bd:4e:74:8c:30:4b:
                    a9:3d:88:26:e8:4a:09:39:c7:e3:0c:fc:08:34:27:
                    30:29:b0:05:cd:ea:41:d4:26:f3:b0:1d:51:3d:50:
                    37:ad:cb:5d:f3:ed:35:91:06:90:2c:8d:4e:40:fd:
                    20:a6:87:e9:ec:19:0c:9f:d0:44:41:55:c9:77:64:
                    6a:e5:5d:ae:76:e9:a5:ca:0c:54:7e:dc:aa:75:61:
                    9b:cf:d0:1d:a2:2a:b8:35:3b:be:3f:9d:cc:2b:7e:
                    6f:dc:1d:51:8b:42:7a:17:73:ea:1b:23:7b:7e:db:
                    50:c4:57:c0:a7:ce:79:a2:72:4c:b9:0e:23:ac:6c:
                    67:f8:31:50:3f:7e:c4:81:af:72:5e:09:87:9b:b1:
                    c4:0d:f7:34:45:36:4a:37:d2:ab:34:9a:cd:96:23:
                    34:6f:00:57:bc:03:5b:9e:20:31:f1:b6:33:c1:cb:
                    5c:4d:b2:b1:4d:33:be:18:b1:ac:29:73:a3:16:14:
                    c8:ae:c0:42:70:58:4a:4c:84:07:a7:63:33:08:0d:
                    51:9b
                Exponent: 65537 (0x10001)
        X509v3 extensions:
            X509v3 Basic Constraints: 
                CA:FALSE
            X509v3 Subject Key Identifier: 
                F6:D4:FA:D6:48:1D:55:E7:C1:00:44:DE:92:3B:CB:4A:38:B4:56:B8
            X509v3 Authority Key Identifier: 
                keyid:D1:CB:A4:07:6A:D5:EE:94:BD:6D:97:3F:60:D5:94:47:68:CB:02:3D
                DirName:/CN=team56-net
                serial:07:9B:D5:93:05:98:9D:E7:D7:90:21:FF:07:FC:B4:03:F5:FF:4F:3F
            X509v3 Extended Key Usage: 
                TLS Web Server Authentication
            X509v3 Key Usage: 
                Digital Signature, Key Encipherment
            X509v3 Subject Alternative Name: 
                DNS:team56-server
    Signature Algorithm: sha256WithRSAEncryption
    Signature Value:
        b7:64:84:d0:4a:f0:2b:8f:91:dc:fe:8c:3f:9d:58:b3:05:04:
        a7:0b:a0:2e:1a:b5:3f:fe:21:65:8f:b1:25:45:9a:ab:ea:6f:
        54:b6:65:89:b9:77:13:b0:db:93:d7:70:a9:ee:00:18:9a:f6:
        77:c9:f4:81:8a:b5:aa:07:82:18:e8:8b:e2:75:f7:d4:ed:a9:
        64:41:bd:a1:1d:18:58:e9:2a:28:bf:ba:de:a1:48:16:f6:1b:
        ca:bc:4d:75:6c:cf:68:43:72:6c:2b:fc:ed:a0:bf:8e:20:09:
        f3:f7:2a:51:09:ad:71:61:15:a6:ae:a6:23:d3:5f:39:e7:88:
        10:f1:66:38:ba:2f:50:e4:cc:04:1f:21:c6:df:69:28:e2:f3:
        28:f7:92:bf:8e:0f:d5:03:12:c7:e4:25:4a:4e:3a:4a:c2:84:
        99:78:87:aa:c3:46:c7:62:fa:79:2b:9f:81:5f:14:a7:25:48:
        76:e1:3d:25:cc:37:dd:49:c8:02:56:88:d6:0d:21:2f:57:33:
        0c:a2:7a:82:35:cc:f0:30:07:f7:97:95:2c:da:82:ee:4c:3f:
        7a:6f:55:5f:97:1b:9c:af:71:e0:90:a5:7d:9c:a5:c7:0f:2a:
        1c:af:1a:38:e8:ee:49:f3:03:74:5b:b3:4a:99:c8:2e:29:1f:
        7f:d5:a5:3d
-----BEGIN CERTIFICATE-----
MIIDdDCCAlygAwIBAgIRAMtuIn7hAkbHB9bmR5nXG8kwDQYJKoZIhvcNAQELBQAw
FTETMBEGA1UEAwwKdGVhbTU2LW5ldDAeFw0yMzExMDQxMDQxMThaFw0yNjEwMTkx
MDQxMThaMBgxFjAUBgNVBAMMDXRlYW01Ni1zZXJ2ZXIwggEiMA0GCSqGSIb3DQEB
AQUAA4IBDwAwggEKAoIBAQDZrP/P6V9qwKjVogSFJ4O/wwcfjaSFVc51wJUpLpOP
dF2s45JNicgBJZSmQAwJVEwhYiPoDb1OdIwwS6k9iCboSgk5x+MM/Ag0JzApsAXN
6kHUJvOwHVE9UDety13z7TWRBpAsjU5A/SCmh+nsGQyf0ERBVcl3ZGrlXa526aXK
DFR+3Kp1YZvP0B2iKrg1O74/ncwrfm/cHVGLQnoXc+obI3t+21DEV8Cnznmicky5
DiOsbGf4MVA/fsSBr3JeCYebscQN9zRFNko30qs0ms2WIzRvAFe8A1ueIDHxtjPB
y1xNsrFNM74Ysawpc6MWFMiuwEJwWEpMhAenYzMIDVGbAgMBAAGjgbswgbgwCQYD
VR0TBAIwADAdBgNVHQ4EFgQU9tT61kgdVefBAETekjvLSji0VrgwUAYDVR0jBEkw
R4AU0cukB2rV7pS9bZc/YNWUR2jLAj2hGaQXMBUxEzARBgNVBAMMCnRlYW01Ni1u
ZXSCFAeb1ZMFmJ3n15Ah/wf8tAP1/08/MBMGA1UdJQQMMAoGCCsGAQUFBwMBMAsG
A1UdDwQEAwIFoDAYBgNVHREEETAPgg10ZWFtNTYtc2VydmVyMA0GCSqGSIb3DQEB
CwUAA4IBAQC3ZITQSvArj5Hc/ow/nVizBQSnC6AuGrU//iFlj7ElRZqr6m9UtmWJ
uXcTsNuT13Cp7gAYmvZ3yfSBirWqB4IY6IvidffU7alkQb2hHRhY6Soov7reoUgW
9hvKvE11bM9oQ3JsK/ztoL+OIAnz9ypRCa1xYRWmrqYj018554gQ8WY4ui9Q5MwE
HyHG32ko4vMo95K/jg/VAxLH5CVKTjpKwoSZeIeqw0bHYvp5K5+BXxSnJUh24T0l
zDfdScgCVojWDSEvVzMMonqCNczwMAf3l5Us2oLuTD96b1Vflxucr3HgkKV9nKXH
Dyocrxo46O5J8wN0W7NKmcguKR9/1aU9
-----END CERTIFICATE-----
