Certificate:
    Data:
        Version: 3 (0x2)
        Serial Number:
            22:f3:a1:07:4d:91:52:f3:dd:d2:77:be:47:d7:f3:a1
        Signature Algorithm: sha256WithRSAEncryption
        Issuer: CN=team448-net
        Validity
            Not Before: Nov  4 11:37:34 2023 GMT
            Not After : Oct 19 11:37:34 2026 GMT
        Subject: CN=team448-server
        Subject Public Key Info:
            Public Key Algorithm: rsaEncryption
                Public-Key: (2048 bit)
                Modulus:
                    00:97:71:d8:8d:d8:92:8c:fa:49:19:f4:22:9a:01:
                    bc:3e:e4:02:70:af:3e:f0:4f:79:8e:57:c5:76:62:
                    02:1e:83:9c:10:2e:3b:c1:cf:4c:3a:1f:18:a1:85:
                    cd:4f:13:02:72:f0:7e:17:2b:a0:40:79:2d:26:cc:
                    75:c0:84:f6:bf:b1:8b:17:42:b1:f8:75:93:dc:f4:
                    d9:a5:d0:cd:6b:25:57:02:30:5f:12:2e:0b:16:af:
                    65:28:c6:6e:03:6e:7e:69:0b:62:53:7d:eb:d2:f0:
                    c3:42:7d:99:9d:f7:97:18:b9:fd:ff:e0:dd:34:fd:
                    d4:d9:ff:66:b9:2b:d4:76:01:e2:a7:b9:67:a7:0a:
                    ab:e8:52:71:e5:20:2d:2e:02:4e:99:10:23:d1:ea:
                    65:e7:0d:0f:35:3b:0f:33:32:ef:f9:e3:f3:a0:91:
                    5e:a4:3d:1b:a2:94:d9:9a:73:f8:45:f2:c4:58:83:
                    2c:c1:89:fa:8a:ef:68:da:ee:1c:b3:4f:74:32:53:
                    72:54:51:ed:63:bc:c6:da:f6:2d:78:55:77:44:1f:
                    51:04:62:d3:80:24:6b:fe:ab:99:4b:87:02:fe:06:
                    9c:f5:a7:d3:d7:bf:f5:81:e2:8f:5c:78:09:dc:ce:
                    72:28:30:c0:5d:bb:9e:e1:4a:35:8c:ed:a6:6d:a6:
                    80:11
                Exponent: 65537 (0x10001)
        X509v3 extensions:
            X509v3 Basic Constraints: 
                CA:FALSE
            X509v3 Subject Key Identifier: 
                65:44:9B:05:46:90:D1:22:EA:7E:68:10:1F:80:2C:E4:86:7F:23:EB
            X509v3 Authority Key Identifier: 
                keyid:E4:37:66:95:D7:AC:3E:AD:63:68:5C:7B:2C:15:FE:62:6F:55:BB:D2
                DirName:/CN=team448-net
                serial:79:80:31:13:2B:35:AF:92:5C:BE:0E:1A:3F:BC:2D:8A:E0:2F:55:66
            X509v3 Extended Key Usage: 
                TLS Web Server Authentication
            X509v3 Key Usage: 
                Digital Signature, Key Encipherment
            X509v3 Subject Alternative Name: 
                DNS:team448-server
    Signature Algorithm: sha256WithRSAEncryption
    Signature Value:
        2b:28:29:37:22:15:78:2f:27:b9:54:a3:bd:1b:d9:4d:c9:61:
        ac:72:f5:8c:14:3a:50:54:87:56:43:26:d5:3b:64:ba:36:5a:
        8b:3e:44:88:f7:c9:cb:88:05:d6:3f:8a:3d:5a:29:78:79:ea:
        ff:67:31:a7:66:7e:38:de:14:40:b1:6f:90:5b:71:fa:56:cb:
        96:e1:de:22:a3:9e:ed:c7:60:99:2d:81:05:18:7a:aa:94:16:
        62:04:ee:26:51:42:67:71:b5:5c:89:b2:17:c2:2b:38:47:a4:
        e5:b8:58:ad:34:90:63:92:b5:2a:ff:5e:ea:7c:76:66:e0:7f:
        25:96:06:d4:6f:6f:2f:5e:fd:0c:82:07:8b:35:b3:c5:5d:c0:
        3f:ae:b5:a6:a6:d2:72:82:51:84:85:f2:73:8b:5e:46:6a:7b:
        6e:17:b7:4d:44:a4:d2:e8:06:57:a3:51:79:da:86:4d:14:f9:
        76:85:7c:a5:af:d9:85:61:df:2b:fa:6c:b4:3f:d2:e5:0b:da:
        76:f2:0e:4d:21:f5:e5:3d:58:c1:a0:e7:d6:0a:b0:e4:81:78:
        82:22:27:95:d8:8b:c3:a8:87:f1:2d:8b:d0:09:23:45:18:f3:
        5c:0a:f8:c9:39:6b:08:23:43:70:06:90:33:01:26:72:9e:0e:
        60:bd:16:6c
-----BEGIN CERTIFICATE-----
MIIDdzCCAl+gAwIBAgIQIvOhB02RUvPd0ne+R9fzoTANBgkqhkiG9w0BAQsFADAW
MRQwEgYDVQQDDAt0ZWFtNDQ4LW5ldDAeFw0yMzExMDQxMTM3MzRaFw0yNjEwMTkx
MTM3MzRaMBkxFzAVBgNVBAMMDnRlYW00NDgtc2VydmVyMIIBIjANBgkqhkiG9w0B
AQEFAAOCAQ8AMIIBCgKCAQEAl3HYjdiSjPpJGfQimgG8PuQCcK8+8E95jlfFdmIC
HoOcEC47wc9MOh8YoYXNTxMCcvB+FyugQHktJsx1wIT2v7GLF0Kx+HWT3PTZpdDN
ayVXAjBfEi4LFq9lKMZuA25+aQtiU33r0vDDQn2ZnfeXGLn9/+DdNP3U2f9muSvU
dgHip7lnpwqr6FJx5SAtLgJOmRAj0epl5w0PNTsPMzLv+ePzoJFepD0bopTZmnP4
RfLEWIMswYn6iu9o2u4cs090MlNyVFHtY7zG2vYteFV3RB9RBGLTgCRr/quZS4cC
/gac9afT17/1geKPXHgJ3M5yKDDAXbue4Uo1jO2mbaaAEQIDAQABo4G9MIG6MAkG
A1UdEwQCMAAwHQYDVR0OBBYEFGVEmwVGkNEi6n5oEB+ALOSGfyPrMFEGA1UdIwRK
MEiAFOQ3ZpXXrD6tY2hceywV/mJvVbvSoRqkGDAWMRQwEgYDVQQDDAt0ZWFtNDQ4
LW5ldIIUeYAxEys1r5Jcvg4aP7wtiuAvVWYwEwYDVR0lBAwwCgYIKwYBBQUHAwEw
CwYDVR0PBAQDAgWgMBkGA1UdEQQSMBCCDnRlYW00NDgtc2VydmVyMA0GCSqGSIb3
DQEBCwUAA4IBAQArKCk3IhV4Lye5VKO9G9lNyWGscvWMFDpQVIdWQybVO2S6NlqL
PkSI98nLiAXWP4o9Wil4eer/ZzGnZn443hRAsW+QW3H6VsuW4d4io57tx2CZLYEF
GHqqlBZiBO4mUUJncbVcibIXwis4R6TluFitNJBjkrUq/17qfHZm4H8llgbUb28v
Xv0MggeLNbPFXcA/rrWmptJyglGEhfJzi15GantuF7dNRKTS6AZXo1F52oZNFPl2
hXylr9mFYd8r+my0P9LlC9p28g5NIfXlPVjBoOfWCrDkgXiCIieV2IvDqIfxLYvQ
CSNFGPNcCvjJOWsII0NwBpAzASZyng5gvRZs
-----END CERTIFICATE-----
