Certificate:
    Data:
        Version: 3 (0x2)
        Serial Number:
            34:25:fb:92:6d:04:53:03:86:91:3c:e7:63:57:f8:5b
        Signature Algorithm: sha256WithRSAEncryption
        Issuer: CN=team448-net
        Validity
            Not Before: Nov  4 11:37:34 2023 GMT
            Not After : Oct 19 11:37:34 2026 GMT
        Subject: CN=team448-client
        Subject Public Key Info:
            Public Key Algorithm: rsaEncryption
                Public-Key: (2048 bit)
                Modulus:
                    00:a6:c4:9b:26:f3:85:f4:fd:be:ba:6c:f6:df:b4:
                    2d:74:91:0c:9f:c4:ff:b6:dc:ff:d9:1b:0a:d3:6e:
                    4a:b0:ed:21:9c:aa:c4:c6:7a:95:73:b8:ad:f8:55:
                    69:49:c7:c7:d1:74:29:ff:94:95:dd:82:7c:76:0e:
                    c3:44:11:30:d3:6b:30:89:4f:40:7f:55:04:3c:5f:
                    23:69:3d:16:2d:33:07:f2:79:8c:84:6f:4a:9d:2d:
                    48:e3:db:e6:4a:b9:4f:0a:74:91:ad:96:20:2f:f7:
                    37:b9:c3:17:b5:5f:57:02:bb:f5:64:07:71:92:c5:
                    29:7e:ca:70:bc:be:1c:c9:a2:90:15:76:85:9f:b2:
                    d1:d5:53:3d:ca:38:f2:f2:be:fe:27:a6:87:3a:46:
                    20:db:61:bd:49:ca:1e:19:13:d0:cb:3f:c1:5c:ed:
                    11:11:00:c9:8a:37:73:11:b9:34:2d:88:4a:eb:c6:
                    9b:f5:51:ae:0f:74:f6:35:92:e5:2a:3b:00:6b:f5:
                    ce:e9:cb:c5:2b:33:3f:6c:55:84:25:7d:0f:e7:0f:
                    41:15:09:91:5e:d8:a1:2c:62:a2:21:71:ca:fc:e6:
                    6a:1c:75:5c:10:cf:89:da:3e:0a:ca:b8:e8:78:39:
                    e9:77:4d:27:ca:f0:26:09:a8:e7:90:46:62:a8:26:
                    c2:7d
                Exponent: 65537 (0x10001)
        X509v3 extensions:
            X509v3 Basic Constraints: 
                CA:FALSE
            X509v3 Subject Key Identifier: 
                FF:15:04:52:00:24:A9:4B:AE:0E:2D:6D:29:C9:D3:0C:B0:69:F9:95
            X509v3 Authority Key Identifier: 
                keyid:E4:37:66:95:D7:AC:3E:AD:63:68:5C:7B:2C:15:FE:62:6F:55:BB:D2
                DirName:/CN=team448-net
                serial:79:80:31:13:2B:35:AF:92:5C:BE:0E:1A:3F:BC:2D:8A:E0:2F:55:66
            X509v3 Extended Key Usage: 
                TLS Web Client Authentication
            X509v3 Key Usage: 
                Digital Signature
    Signature Algorithm: sha256WithRSAEncryption
    Signature Value:
        16:f5:ed:c7:6b:81:71:ce:20:16:b2:2f:5a:8f:1c:e6:5d:ae:
        32:47:4b:31:32:32:5e:ce:ad:1a:a2:f3:1e:d7:12:b2:8b:3a:
        1f:30:30:34:78:85:0b:fa:8e:f0:68:55:d2:b8:6f:cb:6f:3e:
        84:41:35:cd:84:dd:4d:69:f5:c4:ca:99:cd:f9:9c:e8:f7:d5:
        28:53:43:69:02:30:12:2a:dd:c8:d3:a6:64:08:2e:1c:d6:2a:
        85:91:1f:c3:7a:53:a6:33:24:57:ce:b0:01:71:c5:7d:b2:8c:
        42:ec:9e:32:2d:dc:31:76:20:ad:b9:ff:c1:a6:cc:89:0b:e7:
        e5:cc:0e:59:7a:df:47:e1:56:fe:f3:3f:16:3c:f5:c0:f1:b6:
        38:05:f5:3a:a0:c8:e8:24:8a:6d:94:b5:d7:90:d2:13:40:d8:
        55:f3:cd:7d:d6:e9:e6:36:91:9d:5c:c0:96:2e:f4:a1:96:d1:
        97:0b:5c:cc:dc:96:d3:2c:9c:0c:ae:ac:3b:20:19:ab:1d:67:
        8c:ae:6c:5d:5b:41:c8:20:d1:a9:d8:cc:7f:da:ff:ea:14:bb:
        c1:ad:53:45:57:a8:5c:29:a2:53:a5:b3:c2:eb:8a:f8:c6:78:
        7a:49:31:5b:66:c1:65:b6:f0:c5:82:83:80:8e:b2:99:4a:0e:
        1e:5d:5a:38
-----BEGIN CERTIFICATE-----
MIIDXDCCAkSgAwIBAgIQNCX7km0EUwOGkTznY1f4WzANBgkqhkiG9w0BAQsFADAW
MRQwEgYDVQQDDAt0ZWFtNDQ4LW5ldDAeFw0yMzExMDQxMTM3MzRaFw0yNjEwMTkx
MTM3MzRaMBkxFzAVBgNVBAMMDnRlYW00NDgtY2xpZW50MIIBIjANBgkqhkiG9w0B
AQEFAAOCAQ8AMIIBCgKCAQEApsSbJvOF9P2+umz237QtdJEMn8T/ttz/2RsK025K
sO0hnKrExnqVc7it+FVpScfH0XQp/5SV3YJ8dg7DRBEw02swiU9Af1UEPF8jaT0W
LTMH8nmMhG9KnS1I49vmSrlPCnSRrZYgL/c3ucMXtV9XArv1ZAdxksUpfspwvL4c
yaKQFXaFn7LR1VM9yjjy8r7+J6aHOkYg22G9ScoeGRPQyz/BXO0REQDJijdzEbk0
LYhK68ab9VGuD3T2NZLlKjsAa/XO6cvFKzM/bFWEJX0P5w9BFQmRXtihLGKiIXHK
/OZqHHVcEM+J2j4KyrjoeDnpd00nyvAmCajnkEZiqCbCfQIDAQABo4GiMIGfMAkG
A1UdEwQCMAAwHQYDVR0OBBYEFP8VBFIAJKlLrg4tbSnJ0wywafmVMFEGA1UdIwRK
MEiAFOQ3ZpXXrD6tY2hceywV/mJvVbvSoRqkGDAWMRQwEgYDVQQDDAt0ZWFtNDQ4
LW5ldIIUeYAxEys1r5Jcvg4aP7wtiuAvVWYwEwYDVR0lBAwwCgYIKwYBBQUHAwIw
CwYDVR0PBAQDAgeAMA0GCSqGSIb3DQEBCwUAA4IBAQAW9e3Ha4FxziAWsi9ajxzm
Xa4yR0sxMjJezq0aovMe1xKyizofMDA0eIUL+o7waFXSuG/Lbz6EQTXNhN1NafXE
ypnN+Zzo99UoU0NpAjASKt3I06ZkCC4c1iqFkR/DelOmMyRXzrABccV9soxC7J4y
LdwxdiCtuf/BpsyJC+flzA5Zet9H4Vb+8z8WPPXA8bY4BfU6oMjoJIptlLXXkNIT
QNhV88191unmNpGdXMCWLvShltGXC1zM3JbTLJwMrqw7IBmrHWeMrmxdW0HIINGp
2Mx/2v/qFLvBrVNFV6hcKaJTpbPC64r4xnh6STFbZsFltvDFgoOAjrKZSg4eXVo4
-----END CERTIFICATE-----
