Certificate:
    Data:
        Version: 3 (0x2)
        Serial Number:
            34:b4:93:c6:24:fc:99:06:6e:f1:64:f5:3b:66:c4:26
        Signature Algorithm: sha256WithRSAEncryption
        Issuer: CN=team448-net
        Validity
            Not Before: Nov  4 10:48:38 2023 GMT
            Not After : Oct 19 10:48:38 2026 GMT
        Subject: CN=team448-server
        Subject Public Key Info:
            Public Key Algorithm: rsaEncryption
                Public-Key: (2048 bit)
                Modulus:
                    00:b0:20:ac:18:06:69:90:10:02:c1:c7:2b:59:22:
                    e8:7d:47:89:52:82:f7:7c:ce:0d:fb:f6:3c:d2:5b:
                    56:69:36:74:37:a0:25:af:80:33:9c:9d:79:c9:91:
                    ed:d6:5b:b4:d0:df:f8:d4:cd:85:0d:c1:72:55:a9:
                    ea:2f:ed:bd:d3:d4:d8:17:16:7a:d3:8f:16:14:c2:
                    0c:32:81:c9:2f:ce:f8:f4:8f:7b:46:b0:9d:18:ed:
                    8f:c4:44:49:dd:b6:cf:de:1c:2e:cd:52:c4:a7:56:
                    db:37:bb:a5:0e:57:4d:94:f2:28:b3:2e:f4:56:bc:
                    67:0c:42:5b:77:d0:e5:ca:60:2c:20:c0:1d:13:d4:
                    cb:e9:3f:a3:d5:d6:89:15:47:8e:37:e8:00:58:7d:
                    1b:b1:c6:16:73:34:dc:12:ed:0c:bf:ae:85:db:41:
                    1c:92:dd:de:c7:a4:bc:1c:67:db:da:30:21:22:9f:
                    72:f1:90:6e:80:07:97:ad:de:45:32:1d:e5:bd:da:
                    9a:3d:13:b1:4e:06:3d:73:20:87:78:7d:a5:54:be:
                    32:55:3a:10:16:df:c4:21:9c:ce:c6:50:36:39:af:
                    56:a7:f7:b4:31:8f:b6:00:e9:7f:5a:a9:42:91:d7:
                    b1:ec:1a:95:4d:68:dd:54:be:35:7f:d7:15:67:3f:
                    6e:df
                Exponent: 65537 (0x10001)
        X509v3 extensions:
            X509v3 Basic Constraints: 
                CA:FALSE
            X509v3 Subject Key Identifier: 
                F4:28:AF:1E:42:F9:09:C4:6A:3D:0F:05:DF:E4:76:1F:86:4B:FF:58
            X509v3 Authority Key Identifier: 
                keyid:06:2E:D8:A0:87:BA:E2:76:48:E2:7F:06:B1:70:76:E8:D3:20:DC:14
                DirName:/CN=team448-net
                serial:1A:1B:4B:12:7B:7E:BF:18:05:DA:89:30:36:8B:C1:F6:57:1E:07:FF
            X509v3 Extended Key Usage: 
                TLS Web Server Authentication
            X509v3 Key Usage: 
                Digital Signature, Key Encipherment
            X509v3 Subject Alternative Name: 
                DNS:team448-server
    Signature Algorithm: sha256WithRSAEncryption
    Signature Value:
        47:a2:aa:85:db:1f:9c:0d:ea:5e:f9:11:32:c1:08:65:d5:db:
        1c:ec:90:83:53:28:c0:3a:f9:d3:88:63:d7:24:cb:02:f4:15:
        66:3d:ec:a9:b9:1c:4c:a7:a0:5a:8d:c2:bc:7f:11:cb:0f:fc:
        c8:bc:fc:ad:e7:2d:d8:10:80:1b:2c:e0:3b:8e:18:fa:65:f4:
        66:75:65:e1:db:8e:f2:9d:ff:d3:4c:88:16:a7:6c:71:8b:52:
        8d:96:72:42:16:5e:19:a4:ea:5a:8d:c3:cd:1b:d4:17:48:cf:
        61:e0:f8:5b:11:c3:cd:73:3f:c6:44:9e:f6:d0:61:d7:12:58:
        4a:e8:30:7e:e3:7f:cc:1a:b5:e1:c0:21:9f:13:86:1c:ef:69:
        1d:e6:96:6a:9a:89:5f:5a:09:19:66:6c:79:3c:b8:d1:d2:15:
        1f:ca:85:51:ee:d6:a1:93:d3:3a:5d:de:f6:dd:35:92:42:47:
        bb:d1:69:9f:a7:8e:cc:72:44:da:6b:66:e2:49:8b:04:9a:2e:
        26:f4:96:f1:e8:3e:d5:f5:9c:17:08:33:12:09:86:52:32:b0:
        e4:31:ef:2a:bb:90:dc:df:19:db:6a:3c:db:e0:de:48:60:0e:
        6a:f6:46:f4:b0:fc:dc:4a:2b:92:e4:f3:8e:26:3e:c1:52:ae:
        3f:b0:f6:9d
-----BEGIN CERTIFICATE-----
MIIDdzCCAl+gAwIBAgIQNLSTxiT8mQZu8WT1O2bEJjANBgkqhkiG9w0BAQsFADAW
MRQwEgYDVQQDDAt0ZWFtNDQ4LW5ldDAeFw0yMzExMDQxMDQ4MzhaFw0yNjEwMTkx
MDQ4MzhaMBkxFzAVBgNVBAMMDnRlYW00NDgtc2VydmVyMIIBIjANBgkqhkiG9w0B
AQEFAAOCAQ8AMIIBCgKCAQEAsCCsGAZpkBACwccrWSLofUeJUoL3fM4N+/Y80ltW
aTZ0N6Alr4AznJ15yZHt1lu00N/41M2FDcFyVanqL+2909TYFxZ6048WFMIMMoHJ
L8749I97RrCdGO2PxERJ3bbP3hwuzVLEp1bbN7ulDldNlPIosy70VrxnDEJbd9Dl
ymAsIMAdE9TL6T+j1daJFUeON+gAWH0bscYWczTcEu0Mv66F20Eckt3ex6S8HGfb
2jAhIp9y8ZBugAeXrd5FMh3lvdqaPROxTgY9cyCHeH2lVL4yVToQFt/EIZzOxlA2
Oa9Wp/e0MY+2AOl/WqlCkdex7BqVTWjdVL41f9cVZz9u3wIDAQABo4G9MIG6MAkG
A1UdEwQCMAAwHQYDVR0OBBYEFPQorx5C+QnEaj0PBd/kdh+GS/9YMFEGA1UdIwRK
MEiAFAYu2KCHuuJ2SOJ/BrFwdujTINwUoRqkGDAWMRQwEgYDVQQDDAt0ZWFtNDQ4
LW5ldIIUGhtLEnt+vxgF2okwNovB9lceB/8wEwYDVR0lBAwwCgYIKwYBBQUHAwEw
CwYDVR0PBAQDAgWgMBkGA1UdEQQSMBCCDnRlYW00NDgtc2VydmVyMA0GCSqGSIb3
DQEBCwUAA4IBAQBHoqqF2x+cDepe+REywQhl1dsc7JCDUyjAOvnTiGPXJMsC9BVm
PeypuRxMp6BajcK8fxHLD/zIvPyt5y3YEIAbLOA7jhj6ZfRmdWXh247ynf/TTIgW
p2xxi1KNlnJCFl4ZpOpajcPNG9QXSM9h4PhbEcPNcz/GRJ720GHXElhK6DB+43/M
GrXhwCGfE4Yc72kd5pZqmolfWgkZZmx5PLjR0hUfyoVR7tahk9M6Xd723TWSQke7
0Wmfp47MckTaa2biSYsEmi4m9Jbx6D7V9ZwXCDMSCYZSMrDkMe8qu5Dc3xnbajzb
4N5IYA5q9kb0sPzcSiuS5POOJj7BUq4/sPad
-----END CERTIFICATE-----
