Certificate:
    Data:
        Version: 3 (0x2)
        Serial Number:
            8e:fa:70:bd:61:64:f7:bc:bb:35:f4:50:23:be:40:d4
        Signature Algorithm: sha256WithRSAEncryption
        Issuer: CN=team448-net
        Validity
            Not Before: Nov  4 10:48:38 2023 GMT
            Not After : Oct 19 10:48:38 2026 GMT
        Subject: CN=team448-client
        Subject Public Key Info:
            Public Key Algorithm: rsaEncryption
                Public-Key: (2048 bit)
                Modulus:
                    00:b7:f7:62:a2:28:c3:cd:7e:95:80:bb:8f:d3:58:
                    c3:65:c8:6a:9d:cb:58:8e:4d:06:f5:fb:f0:ed:6d:
                    c8:04:70:2f:ce:2b:07:62:4a:8b:7d:3e:1a:84:0b:
                    0f:18:04:2a:60:e0:0e:b5:fe:74:ea:5f:c1:ba:ae:
                    b0:ae:32:34:dc:32:f8:89:13:9d:ab:ae:ab:c0:e2:
                    7e:da:1c:a3:70:dd:ac:79:bf:e6:59:4e:b1:fb:b0:
                    d2:b2:3e:ed:3a:1a:7f:0d:29:85:7f:d1:bb:3b:05:
                    0f:fb:2b:11:6b:9c:60:7d:4f:f9:21:d3:cd:22:1e:
                    bc:3e:51:6b:2a:31:8e:d9:db:0e:3e:f5:77:ed:61:
                    ce:96:c0:e3:b6:d8:5f:f1:d6:1c:69:4d:cb:4a:d9:
                    54:4e:a8:25:ce:48:5b:99:7a:eb:16:56:48:d2:20:
                    48:30:fc:68:52:d5:84:c7:8b:a8:b8:c3:9e:95:8f:
                    d5:2c:a6:ce:4e:37:5f:bc:f0:99:2d:a6:a6:b8:e4:
                    2d:55:4e:69:dc:c1:b8:ef:9a:16:dc:01:b8:f9:fe:
                    7a:73:53:10:43:21:29:88:f7:dc:f2:a0:39:88:a7:
                    dc:e1:8a:61:e2:82:2a:9a:bf:35:7f:41:4a:8b:88:
                    14:05:3f:7d:cb:9e:70:af:58:91:67:76:29:9e:36:
                    2d:af
                Exponent: 65537 (0x10001)
        X509v3 extensions:
            X509v3 Basic Constraints: 
                CA:FALSE
            X509v3 Subject Key Identifier: 
                FC:08:32:F0:A4:6E:A6:18:F2:90:12:DC:5B:42:83:8C:51:A4:A5:47
            X509v3 Authority Key Identifier: 
                keyid:06:2E:D8:A0:87:BA:E2:76:48:E2:7F:06:B1:70:76:E8:D3:20:DC:14
                DirName:/CN=team448-net
                serial:1A:1B:4B:12:7B:7E:BF:18:05:DA:89:30:36:8B:C1:F6:57:1E:07:FF
            X509v3 Extended Key Usage: 
                TLS Web Client Authentication
            X509v3 Key Usage: 
                Digital Signature
    Signature Algorithm: sha256WithRSAEncryption
    Signature Value:
        4e:5d:33:85:9d:73:c3:7b:30:c9:f7:22:7a:2c:e7:9b:02:20:
        79:4a:1c:98:db:13:a1:f0:41:f3:0b:09:fa:56:aa:7f:6f:43:
        78:fa:05:84:80:15:8c:b4:5c:f1:72:71:a3:78:90:3b:ea:3a:
        4b:87:1e:35:c4:2d:f2:14:19:72:9a:d9:bd:c0:b0:ec:98:0d:
        fc:ed:32:24:c0:74:58:9c:51:35:5c:94:35:68:ce:fa:36:8c:
        59:a9:25:f3:1b:8e:71:a5:e6:21:10:dd:75:21:9c:ed:5f:95:
        04:98:d3:11:9c:2a:df:b8:7b:2f:ce:f8:07:4b:38:59:c9:ad:
        c8:28:c6:46:f8:76:5f:41:3b:1f:65:48:3c:c8:72:0e:32:1f:
        e3:2b:ef:b0:cf:5c:4d:b2:48:1c:4e:bd:cb:3d:90:f8:bb:5e:
        56:b6:cf:08:9f:35:64:ea:56:b4:fa:92:0a:d8:c7:93:8f:0e:
        f4:f5:95:a4:5a:08:6c:67:ba:4d:c6:c6:27:14:4a:df:72:4b:
        6f:73:27:df:13:bd:63:1a:d1:d3:f4:1e:16:8a:20:1a:2d:10:
        a0:6d:f7:bd:80:f2:b3:26:ca:24:96:63:e9:a7:22:b5:ad:83:
        f7:0c:0d:51:72:69:9a:04:1c:0f:23:da:e2:9a:75:bf:af:10:
        49:26:53:37
-----BEGIN CERTIFICATE-----
MIIDXTCCAkWgAwIBAgIRAI76cL1hZPe8uzX0UCO+QNQwDQYJKoZIhvcNAQELBQAw
FjEUMBIGA1UEAwwLdGVhbTQ0OC1uZXQwHhcNMjMxMTA0MTA0ODM4WhcNMjYxMDE5
MTA0ODM4WjAZMRcwFQYDVQQDDA50ZWFtNDQ4LWNsaWVudDCCASIwDQYJKoZIhvcN
AQEBBQADggEPADCCAQoCggEBALf3YqIow81+lYC7j9NYw2XIap3LWI5NBvX78O1t
yARwL84rB2JKi30+GoQLDxgEKmDgDrX+dOpfwbqusK4yNNwy+IkTnauuq8Diftoc
o3DdrHm/5llOsfuw0rI+7Toafw0phX/RuzsFD/srEWucYH1P+SHTzSIevD5Rayox
jtnbDj71d+1hzpbA47bYX/HWHGlNy0rZVE6oJc5IW5l66xZWSNIgSDD8aFLVhMeL
qLjDnpWP1Symzk43X7zwmS2mprjkLVVOadzBuO+aFtwBuPn+enNTEEMhKYj33PKg
OYin3OGKYeKCKpq/NX9BSouIFAU/fcuecK9YkWd2KZ42La8CAwEAAaOBojCBnzAJ
BgNVHRMEAjAAMB0GA1UdDgQWBBT8CDLwpG6mGPKQEtxbQoOMUaSlRzBRBgNVHSME
SjBIgBQGLtigh7ridkjifwaxcHbo0yDcFKEapBgwFjEUMBIGA1UEAwwLdGVhbTQ0
OC1uZXSCFBobSxJ7fr8YBdqJMDaLwfZXHgf/MBMGA1UdJQQMMAoGCCsGAQUFBwMC
MAsGA1UdDwQEAwIHgDANBgkqhkiG9w0BAQsFAAOCAQEATl0zhZ1zw3swyfcieizn
mwIgeUocmNsTofBB8wsJ+laqf29DePoFhIAVjLRc8XJxo3iQO+o6S4ceNcQt8hQZ
cprZvcCw7JgN/O0yJMB0WJxRNVyUNWjO+jaMWakl8xuOcaXmIRDddSGc7V+VBJjT
EZwq37h7L874B0s4WcmtyCjGRvh2X0E7H2VIPMhyDjIf4yvvsM9cTbJIHE69yz2Q
+LteVrbPCJ81ZOpWtPqSCtjHk48O9PWVpFoIbGe6TcbGJxRK33JLb3Mn3xO9YxrR
0/QeFoogGi0QoG33vYDysybKJJZj6acita2D9wwNUXJpmgQcDyPa4pp1v68QSSZT
Nw==
-----END CERTIFICATE-----
