Certificate:
    Data:
        Version: 3 (0x2)
        Serial Number:
            08:40:6f:6f:96:33:80:59:38:f1:e7:e5:9b:b3:1e:33
        Signature Algorithm: sha256WithRSAEncryption
        Issuer: CN=team240-net
        Validity
            Not Before: Nov  4 11:32:20 2023 GMT
            Not After : Oct 19 11:32:20 2026 GMT
        Subject: CN=team240-client
        Subject Public Key Info:
            Public Key Algorithm: rsaEncryption
                Public-Key: (2048 bit)
                Modulus:
                    00:d1:18:8e:e6:02:a6:aa:79:70:68:21:ff:3f:23:
                    a4:de:cf:a1:50:da:7e:d3:a7:38:ba:3f:81:6b:7e:
                    ba:ca:81:68:05:e5:85:7e:7e:69:44:7d:20:ae:8b:
                    89:a8:c4:57:9d:a5:53:fb:25:0b:92:88:88:b0:72:
                    f0:c9:ad:24:b7:58:ce:ae:31:46:e2:33:76:27:9f:
                    7e:77:a7:09:b7:92:dd:54:43:5c:30:91:51:81:b2:
                    73:31:10:fd:71:77:a3:d8:85:d6:11:fd:c2:33:b4:
                    29:84:4f:2c:4c:97:33:23:99:9a:fd:30:bf:a7:66:
                    41:3a:75:3f:fd:4a:ba:e1:fa:2b:67:30:df:66:22:
                    47:2c:94:66:6c:07:a9:39:9d:a0:bd:ef:76:70:a0:
                    b6:d4:59:e0:6d:1b:77:27:cb:18:8c:45:be:42:f2:
                    9e:e4:ff:aa:8f:84:d9:ef:ec:1e:38:cf:86:5e:5c:
                    97:af:b3:c8:eb:3c:4a:71:0d:ed:f7:19:89:ee:51:
                    0e:11:cc:a1:4a:4d:b2:f4:d1:ba:90:d7:01:37:73:
                    63:45:f3:60:6d:5d:f4:60:d5:75:5d:ea:87:e2:89:
                    84:de:9e:ab:59:c9:49:2f:bd:5d:9f:98:e8:95:61:
                    8f:07:47:8a:5a:de:ef:be:3b:1e:2d:12:f3:d8:67:
                    41:95
                Exponent: 65537 (0x10001)
        X509v3 extensions:
            X509v3 Basic Constraints: 
                CA:FALSE
            X509v3 Subject Key Identifier: 
                0F:90:3E:37:79:B6:12:33:A5:DD:5E:A8:87:68:90:46:03:31:A3:FE
            X509v3 Authority Key Identifier: 
                keyid:24:C9:07:A6:42:5D:75:38:0E:6C:D4:E0:35:A5:39:8C:1A:8D:B3:94
                DirName:/CN=team240-net
                serial:35:79:D2:DF:BD:EC:E4:F1:B6:12:11:D7:60:53:67:43:3E:27:23:70
            X509v3 Extended Key Usage: 
                TLS Web Client Authentication
            X509v3 Key Usage: 
                Digital Signature
    Signature Algorithm: sha256WithRSAEncryption
    Signature Value:
        1c:44:d1:5d:ea:32:f4:40:cc:4b:f4:06:76:44:18:d4:e3:10:
        75:94:f6:60:40:b1:08:ab:db:47:6c:5c:93:bf:1a:28:c0:15:
        ae:a4:fd:02:d3:9b:7a:ae:5a:2e:3f:61:97:d7:49:22:e8:2f:
        17:12:c6:29:ef:ed:ec:74:04:b8:f8:9b:4e:07:a3:f1:03:9a:
        00:6c:9e:a4:8c:bf:19:0d:3f:70:13:7f:b1:3c:2b:25:8e:3a:
        16:d4:fb:a9:74:b9:2d:a7:5d:91:d0:2e:c1:64:d0:c8:7c:7c:
        8e:09:42:c6:ef:72:15:20:85:7a:d3:6a:7b:e3:46:80:92:03:
        7b:b8:71:ca:71:a7:d8:52:b1:3a:7a:be:57:80:61:1b:e6:37:
        1d:e6:4d:a9:d3:af:54:c0:a4:11:0a:c1:9b:5f:89:32:c4:d1:
        fb:4c:55:07:01:d9:d9:18:a7:a7:7a:6a:6b:fc:33:a1:83:e2:
        8a:e1:14:d0:ba:7d:0d:ab:4b:06:09:5b:7f:88:aa:96:d2:4e:
        dc:a5:a1:eb:5d:8a:5d:02:d8:d3:8b:5c:96:b3:02:7f:6f:5e:
        96:e9:7f:5e:6d:82:b1:35:c8:bd:14:37:bf:32:f4:0c:0b:82:
        bc:43:6a:e0:9f:73:03:c0:90:a7:55:71:fd:de:ef:24:2b:34:
        28:a1:9a:e5
-----BEGIN CERTIFICATE-----
MIIDXDCCAkSgAwIBAgIQCEBvb5YzgFk48eflm7MeMzANBgkqhkiG9w0BAQsFADAW
MRQwEgYDVQQDDAt0ZWFtMjQwLW5ldDAeFw0yMzExMDQxMTMyMjBaFw0yNjEwMTkx
MTMyMjBaMBkxFzAVBgNVBAMMDnRlYW0yNDAtY2xpZW50MIIBIjANBgkqhkiG9w0B
AQEFAAOCAQ8AMIIBCgKCAQEA0RiO5gKmqnlwaCH/PyOk3s+hUNp+06c4uj+Ba366
yoFoBeWFfn5pRH0grouJqMRXnaVT+yULkoiIsHLwya0kt1jOrjFG4jN2J59+d6cJ
t5LdVENcMJFRgbJzMRD9cXej2IXWEf3CM7QphE8sTJczI5ma/TC/p2ZBOnU//Uq6
4forZzDfZiJHLJRmbAepOZ2gve92cKC21FngbRt3J8sYjEW+QvKe5P+qj4TZ7+we
OM+GXlyXr7PI6zxKcQ3t9xmJ7lEOEcyhSk2y9NG6kNcBN3NjRfNgbV30YNV1XeqH
4omE3p6rWclJL71dn5jolWGPB0eKWt7vvjseLRLz2GdBlQIDAQABo4GiMIGfMAkG
A1UdEwQCMAAwHQYDVR0OBBYEFA+QPjd5thIzpd1eqIdokEYDMaP+MFEGA1UdIwRK
MEiAFCTJB6ZCXXU4DmzU4DWlOYwajbOUoRqkGDAWMRQwEgYDVQQDDAt0ZWFtMjQw
LW5ldIIUNXnS373s5PG2EhHXYFNnQz4nI3AwEwYDVR0lBAwwCgYIKwYBBQUHAwIw
CwYDVR0PBAQDAgeAMA0GCSqGSIb3DQEBCwUAA4IBAQAcRNFd6jL0QMxL9AZ2RBjU
4xB1lPZgQLEIq9tHbFyTvxoowBWupP0C05t6rlouP2GX10ki6C8XEsYp7+3sdAS4
+JtOB6PxA5oAbJ6kjL8ZDT9wE3+xPCsljjoW1PupdLktp12R0C7BZNDIfHyOCULG
73IVIIV602p740aAkgN7uHHKcafYUrE6er5XgGEb5jcd5k2p069UwKQRCsGbX4ky
xNH7TFUHAdnZGKenempr/DOhg+KK4RTQun0Nq0sGCVt/iKqW0k7cpaHrXYpdAtjT
i1yWswJ/b16W6X9ebYKxNci9FDe/MvQMC4K8Q2rgn3MDwJCnVXH93u8kKzQooZrl
-----END CERTIFICATE-----
