Certificate:
    Data:
        Version: 3 (0x2)
        Serial Number:
            46:bd:f1:24:19:54:9f:94:0d:1e:b8:f5:4e:24:2a:c7
        Signature Algorithm: sha256WithRSAEncryption
        Issuer: CN=team240-net
        Validity
            Not Before: Nov  4 10:45:07 2023 GMT
            Not After : Oct 19 10:45:07 2026 GMT
        Subject: CN=team240-client
        Subject Public Key Info:
            Public Key Algorithm: rsaEncryption
                Public-Key: (2048 bit)
                Modulus:
                    00:be:cb:ce:17:3e:b6:56:52:2c:49:5c:f1:b0:c4:
                    c4:0d:3e:26:06:cb:dc:4a:2d:93:2a:0e:e8:59:8a:
                    d6:f4:5f:50:04:d4:f3:9b:00:30:3d:92:b3:c8:38:
                    b3:d4:48:08:44:37:39:e9:d0:36:26:4b:df:3f:24:
                    dd:ee:8f:0a:10:1f:aa:1e:07:30:0f:d6:11:29:c3:
                    2f:12:6c:9b:e6:30:24:32:2f:2a:3d:1a:05:a6:46:
                    ad:5b:07:e1:4b:ec:66:ea:6b:b1:1b:c0:6d:89:ac:
                    bd:64:60:92:d1:f2:71:98:2e:e1:2d:61:f7:89:00:
                    05:ae:73:89:30:a9:cd:f3:31:fc:7a:85:dc:b2:a3:
                    04:5b:4e:52:b4:4b:fa:70:7c:10:79:9f:aa:b7:67:
                    ef:6b:c7:55:3f:c3:84:7c:54:29:74:f0:42:61:b1:
                    cd:2a:45:d3:5c:ad:c0:c9:23:3e:77:e5:14:d2:cd:
                    f9:be:80:be:e5:d5:10:bd:74:12:ce:9a:19:66:54:
                    89:45:b5:85:ee:8f:91:76:24:c7:5b:82:bc:2e:9a:
                    19:75:eb:1f:54:a8:8a:a0:ee:d5:b3:02:f2:c9:48:
                    69:db:4b:ee:68:f5:d8:cd:84:d5:eb:da:cf:9b:3d:
                    f8:94:5e:64:58:f4:87:4d:ad:83:5b:7f:1e:e9:7f:
                    6e:91
                Exponent: 65537 (0x10001)
        X509v3 extensions:
            X509v3 Basic Constraints: 
                CA:FALSE
            X509v3 Subject Key Identifier: 
                DE:2B:80:BA:0D:E6:E5:73:B6:56:5B:95:83:ED:28:8D:C7:16:AD:F4
            X509v3 Authority Key Identifier: 
                keyid:96:ED:F7:E5:79:2C:E1:B6:EE:02:68:D0:EC:FB:05:30:2F:82:6E:AA
                DirName:/CN=team240-net
                serial:58:38:0A:98:DF:CE:7B:C3:A0:D0:0A:70:3B:7B:3F:B5:2C:11:B9:13
            X509v3 Extended Key Usage: 
                TLS Web Client Authentication
            X509v3 Key Usage: 
                Digital Signature
    Signature Algorithm: sha256WithRSAEncryption
    Signature Value:
        14:0d:3b:ca:e6:e9:26:21:5e:f1:ff:2d:a3:a6:ad:58:81:95:
        a1:33:48:61:81:76:3f:b1:6e:c1:45:cb:96:48:4c:70:10:94:
        7e:ae:53:45:9c:6a:f2:82:3a:9e:bb:10:4e:a7:bc:14:cb:1c:
        0b:02:ed:f9:78:92:ad:b4:14:99:57:bb:37:c5:4b:2c:ba:f5:
        d8:28:d3:af:43:0e:b5:b8:1d:b7:27:d3:d6:ac:5b:90:a5:93:
        2a:78:12:fd:c0:1e:24:0d:32:00:64:94:fa:73:02:46:a7:40:
        6c:e9:87:f3:72:00:ab:a6:8b:43:3a:04:27:87:70:ac:c1:7b:
        55:0a:e6:20:71:e7:3c:12:d0:0a:5d:ca:48:b7:15:c5:6e:b5:
        be:3b:fc:4f:00:a6:77:48:0c:17:da:9a:17:78:db:43:e1:6c:
        72:b2:e1:ff:ff:01:2b:84:a7:b9:f6:9d:d1:16:75:8a:4a:45:
        28:c8:ba:07:c5:97:8d:dc:ab:dc:4f:79:f4:78:b9:7d:aa:25:
        cb:f1:63:04:df:5c:20:46:96:1d:59:94:41:08:d2:17:2d:f8:
        82:2e:88:1c:09:66:ab:a7:de:3a:e4:dd:d7:c4:3d:9f:06:d5:
        a8:e5:a4:df:3a:af:1c:29:fd:84:45:16:1d:20:b0:d1:74:4c:
        1b:80:18:c4
-----BEGIN CERTIFICATE-----
MIIDXDCCAkSgAwIBAgIQRr3xJBlUn5QNHrj1TiQqxzANBgkqhkiG9w0BAQsFADAW
MRQwEgYDVQQDDAt0ZWFtMjQwLW5ldDAeFw0yMzExMDQxMDQ1MDdaFw0yNjEwMTkx
MDQ1MDdaMBkxFzAVBgNVBAMMDnRlYW0yNDAtY2xpZW50MIIBIjANBgkqhkiG9w0B
AQEFAAOCAQ8AMIIBCgKCAQEAvsvOFz62VlIsSVzxsMTEDT4mBsvcSi2TKg7oWYrW
9F9QBNTzmwAwPZKzyDiz1EgIRDc56dA2JkvfPyTd7o8KEB+qHgcwD9YRKcMvEmyb
5jAkMi8qPRoFpkatWwfhS+xm6muxG8Btiay9ZGCS0fJxmC7hLWH3iQAFrnOJMKnN
8zH8eoXcsqMEW05StEv6cHwQeZ+qt2fva8dVP8OEfFQpdPBCYbHNKkXTXK3AySM+
d+UU0s35voC+5dUQvXQSzpoZZlSJRbWF7o+RdiTHW4K8LpoZdesfVKiKoO7VswLy
yUhp20vuaPXYzYTV69rPmz34lF5kWPSHTa2DW38e6X9ukQIDAQABo4GiMIGfMAkG
A1UdEwQCMAAwHQYDVR0OBBYEFN4rgLoN5uVztlZblYPtKI3HFq30MFEGA1UdIwRK
MEiAFJbt9+V5LOG27gJo0Oz7BTAvgm6qoRqkGDAWMRQwEgYDVQQDDAt0ZWFtMjQw
LW5ldIIUWDgKmN/Oe8Og0ApwO3s/tSwRuRMwEwYDVR0lBAwwCgYIKwYBBQUHAwIw
CwYDVR0PBAQDAgeAMA0GCSqGSIb3DQEBCwUAA4IBAQAUDTvK5ukmIV7x/y2jpq1Y
gZWhM0hhgXY/sW7BRcuWSExwEJR+rlNFnGrygjqeuxBOp7wUyxwLAu35eJKttBSZ
V7s3xUssuvXYKNOvQw61uB23J9PWrFuQpZMqeBL9wB4kDTIAZJT6cwJGp0Bs6Yfz
cgCrpotDOgQnh3CswXtVCuYgcec8EtAKXcpItxXFbrW+O/xPAKZ3SAwX2poXeNtD
4WxysuH//wErhKe59p3RFnWKSkUoyLoHxZeN3KvcT3n0eLl9qiXL8WME31wgRpYd
WZRBCNIXLfiCLogcCWarp9465N3XxD2fBtWo5aTfOq8cKf2ERRYdILDRdEwbgBjE
-----END CERTIFICATE-----
