Certificate:
    Data:
        Version: 3 (0x2)
        Serial Number:
            5b:ca:37:0a:24:eb:84:ec:07:0e:0b:00:72:fd:19:ab
        Signature Algorithm: sha256WithRSAEncryption
        Issuer: CN=team240-net
        Validity
            Not Before: Nov  4 10:45:07 2023 GMT
            Not After : Oct 19 10:45:07 2026 GMT
        Subject: CN=team240-server
        Subject Public Key Info:
            Public Key Algorithm: rsaEncryption
                Public-Key: (2048 bit)
                Modulus:
                    00:c0:69:5f:68:c9:65:5d:f9:40:d9:15:62:1c:39:
                    62:ef:56:95:31:c0:ba:02:50:b6:94:3c:45:36:7e:
                    87:f7:e2:e0:d0:78:24:7a:bc:a4:54:bb:27:5f:91:
                    7b:fb:97:6b:54:da:fd:e5:f1:4b:9a:1e:c4:1c:e4:
                    dd:99:91:3c:00:e3:45:12:a4:81:31:51:a5:c5:90:
                    ad:41:74:7d:54:57:b6:14:3e:93:5b:fb:28:71:5f:
                    89:fb:c8:30:66:96:26:4b:58:93:61:14:39:af:a6:
                    8e:55:30:1c:ed:d7:d2:68:9e:26:b8:b2:a8:75:74:
                    f6:c1:10:44:f3:3f:fb:c6:e8:e6:35:1f:65:39:5f:
                    2e:09:20:a4:cf:44:c1:89:33:b5:4d:0b:74:75:ac:
                    d9:c3:3c:75:9d:a3:75:24:30:e9:5e:33:e0:69:c9:
                    d1:1d:9b:c9:5d:f3:08:1f:b9:6f:24:ed:64:27:e5:
                    a3:2b:2e:b6:20:8d:e5:36:1d:72:c2:63:ea:5b:c9:
                    9f:93:7f:0d:c8:f5:fd:5b:33:c4:dd:1e:0b:e2:0e:
                    75:5d:8f:51:61:d1:ff:4c:68:b3:94:26:f8:f5:68:
                    f1:6c:9f:b9:4d:a2:85:18:63:d9:e2:8a:d1:27:20:
                    1d:78:00:c1:30:b2:eb:c9:6a:dc:9f:ca:7c:b6:be:
                    3f:77
                Exponent: 65537 (0x10001)
        X509v3 extensions:
            X509v3 Basic Constraints: 
                CA:FALSE
            X509v3 Subject Key Identifier: 
                D2:1D:81:A6:23:B9:61:92:FC:9E:3A:1A:82:B6:98:A8:F7:50:A1:E8
            X509v3 Authority Key Identifier: 
                keyid:96:ED:F7:E5:79:2C:E1:B6:EE:02:68:D0:EC:FB:05:30:2F:82:6E:AA
                DirName:/CN=team240-net
                serial:58:38:0A:98:DF:CE:7B:C3:A0:D0:0A:70:3B:7B:3F:B5:2C:11:B9:13
            X509v3 Extended Key Usage: 
                TLS Web Server Authentication
            X509v3 Key Usage: 
                Digital Signature, Key Encipherment
            X509v3 Subject Alternative Name: 
                DNS:team240-server
    Signature Algorithm: sha256WithRSAEncryption
    Signature Value:
        aa:a2:aa:39:17:18:60:b5:00:c4:9f:5b:80:7e:65:6c:ec:fb:
        26:6a:6d:43:44:2c:7a:ec:9b:b7:50:f3:5a:58:9b:aa:49:a5:
        b6:b2:71:71:23:a2:f4:24:ef:07:eb:9b:f6:a6:ca:1a:60:92:
        ac:7d:5c:d2:b3:23:d4:b1:1d:f9:f1:5d:1f:e7:fa:36:ad:a4:
        2a:4f:60:8b:84:0e:8e:6a:aa:2e:79:4a:c7:e1:00:07:3b:c1:
        bc:5e:c3:21:47:d2:14:f5:82:00:dd:c7:1c:82:c5:29:5f:2d:
        79:cd:3e:c5:27:1c:d0:cb:f9:5b:36:60:21:56:8a:f1:00:d5:
        2d:4a:38:9d:88:0a:09:71:e9:a3:d5:60:f3:d3:1c:c3:e9:c2:
        92:66:b1:ec:e5:59:78:22:c3:6e:f3:30:1a:87:4e:3b:e5:be:
        83:93:e3:d2:67:3a:5b:04:43:3a:9d:40:fb:b3:06:ee:ad:92:
        73:e1:2a:28:49:c3:18:31:b7:ef:bb:4d:9a:e3:47:1d:2d:a7:
        47:88:80:ed:2f:01:08:7a:22:1e:a9:21:1f:3d:c5:06:e0:b9:
        d2:67:53:57:0f:f7:6d:47:08:1a:79:02:54:7e:38:3e:4d:65:
        a1:2a:0b:02:d3:d5:f7:00:6d:cd:19:72:c4:5d:0e:d6:26:22:
        b0:47:7a:3b
-----BEGIN CERTIFICATE-----
MIIDdzCCAl+gAwIBAgIQW8o3CiTrhOwHDgsAcv0ZqzANBgkqhkiG9w0BAQsFADAW
MRQwEgYDVQQDDAt0ZWFtMjQwLW5ldDAeFw0yMzExMDQxMDQ1MDdaFw0yNjEwMTkx
MDQ1MDdaMBkxFzAVBgNVBAMMDnRlYW0yNDAtc2VydmVyMIIBIjANBgkqhkiG9w0B
AQEFAAOCAQ8AMIIBCgKCAQEAwGlfaMllXflA2RViHDli71aVMcC6AlC2lDxFNn6H
9+Lg0HgkerykVLsnX5F7+5drVNr95fFLmh7EHOTdmZE8AONFEqSBMVGlxZCtQXR9
VFe2FD6TW/socV+J+8gwZpYmS1iTYRQ5r6aOVTAc7dfSaJ4muLKodXT2wRBE8z/7
xujmNR9lOV8uCSCkz0TBiTO1TQt0dazZwzx1naN1JDDpXjPgacnRHZvJXfMIH7lv
JO1kJ+WjKy62II3lNh1ywmPqW8mfk38NyPX9WzPE3R4L4g51XY9RYdH/TGizlCb4
9WjxbJ+5TaKFGGPZ4orRJyAdeADBMLLryWrcn8p8tr4/dwIDAQABo4G9MIG6MAkG
A1UdEwQCMAAwHQYDVR0OBBYEFNIdgaYjuWGS/J46GoK2mKj3UKHoMFEGA1UdIwRK
MEiAFJbt9+V5LOG27gJo0Oz7BTAvgm6qoRqkGDAWMRQwEgYDVQQDDAt0ZWFtMjQw
LW5ldIIUWDgKmN/Oe8Og0ApwO3s/tSwRuRMwEwYDVR0lBAwwCgYIKwYBBQUHAwEw
CwYDVR0PBAQDAgWgMBkGA1UdEQQSMBCCDnRlYW0yNDAtc2VydmVyMA0GCSqGSIb3
DQEBCwUAA4IBAQCqoqo5FxhgtQDEn1uAfmVs7Psmam1DRCx67Ju3UPNaWJuqSaW2
snFxI6L0JO8H65v2psoaYJKsfVzSsyPUsR358V0f5/o2raQqT2CLhA6OaqoueUrH
4QAHO8G8XsMhR9IU9YIA3cccgsUpXy15zT7FJxzQy/lbNmAhVorxANUtSjidiAoJ
cemj1WDz0xzD6cKSZrHs5Vl4IsNu8zAah0475b6Dk+PSZzpbBEM6nUD7swburZJz
4SooScMYMbfvu02a40cdLadHiIDtLwEIeiIeqSEfPcUG4LnSZ1NXD/dtRwgaeQJU
fjg+TWWhKgsC09X3AG3NGXLEXQ7WJiKwR3o7
-----END CERTIFICATE-----
