Certificate:
    Data:
        Version: 3 (0x2)
        Serial Number:
            bd:fd:59:3e:27:a5:98:4f:54:fb:dc:ea:c8:3e:b5:95
        Signature Algorithm: sha256WithRSAEncryption
        Issuer: CN=team240-net
        Validity
            Not Before: Nov  3 20:43:42 2023 GMT
            Not After : Oct 18 20:43:42 2026 GMT
        Subject: CN=team240-server
        Subject Public Key Info:
            Public Key Algorithm: rsaEncryption
                Public-Key: (2048 bit)
                Modulus:
                    00:c5:d0:de:43:b9:2b:df:2b:f6:94:f5:df:2a:a4:
                    d1:c4:41:58:a9:be:ef:ae:d8:ad:8f:f5:77:b6:47:
                    77:6a:b1:da:26:d9:c0:4c:4b:d6:75:e1:f3:19:a9:
                    9b:78:d8:0b:6c:40:14:31:8f:4d:9b:1b:22:58:31:
                    f0:be:79:7b:48:c2:be:ea:d2:7b:7b:71:bd:e0:df:
                    79:0f:85:46:c8:b8:27:39:47:3c:40:0a:93:aa:22:
                    29:98:e2:0d:7c:02:da:36:1c:fc:fc:99:7c:a3:c8:
                    60:d8:0e:28:f0:12:a9:6d:2b:32:67:5b:91:4f:32:
                    b5:4b:84:86:08:cc:fd:76:68:b8:b6:88:50:a6:ec:
                    a9:33:d4:8c:68:cf:b3:c5:2c:c4:9b:8c:84:dd:7e:
                    bb:61:7d:62:09:44:82:64:49:d5:7d:99:e3:11:22:
                    26:44:52:77:c7:ba:77:4b:e8:1e:4f:41:bc:dd:83:
                    71:a7:1b:7c:76:fc:7b:88:56:6a:82:41:78:9a:64:
                    17:83:de:85:0c:47:8d:98:22:61:d7:23:02:f0:9c:
                    9a:f2:3a:d8:78:dd:b0:ba:2f:e9:37:6b:58:f3:66:
                    0c:8c:6d:2e:7f:54:33:41:af:ce:0e:34:91:69:81:
                    c9:52:79:80:45:d2:42:6b:82:59:ea:33:85:10:1e:
                    0c:1b
                Exponent: 65537 (0x10001)
        X509v3 extensions:
            X509v3 Basic Constraints: 
                CA:FALSE
            X509v3 Subject Key Identifier: 
                BE:9B:79:69:10:00:54:B5:76:8B:28:B5:7C:87:65:E8:21:A4:36:0C
            X509v3 Authority Key Identifier: 
                keyid:55:E4:D9:D4:BF:B2:97:16:10:44:3A:4B:A8:FD:D7:31:19:35:C2:FF
                DirName:/CN=team240-net
                serial:79:35:25:24:5B:F9:D0:EE:DF:85:F3:2E:4E:9A:0D:08:B2:FB:1D:4F
            X509v3 Extended Key Usage: 
                TLS Web Server Authentication
            X509v3 Key Usage: 
                Digital Signature, Key Encipherment
            X509v3 Subject Alternative Name: 
                DNS:team240-server
    Signature Algorithm: sha256WithRSAEncryption
    Signature Value:
        5e:b5:ce:68:ae:87:2b:8b:bf:79:05:b5:52:23:af:fd:28:b8:
        36:34:f1:26:21:ad:9d:8d:ce:4b:f1:9f:65:b5:02:4f:01:3b:
        c2:92:9a:b1:0d:2a:ea:3a:ab:1b:5f:b8:0e:c5:c5:af:1a:58:
        0d:c0:f1:4f:e8:f5:b4:53:a3:07:61:63:5e:d8:57:05:50:d8:
        97:83:32:2f:86:57:81:7d:cd:99:25:a1:be:5f:08:72:bf:10:
        24:af:a2:e0:e4:62:c3:9f:76:70:f0:89:50:6a:42:eb:6f:12:
        65:b4:69:a0:09:9a:4a:c0:e2:19:2f:02:f4:04:35:2a:44:12:
        e2:26:25:b1:d7:9a:a2:a0:db:53:69:7f:02:68:81:41:69:87:
        c8:91:a3:4f:fe:cf:0e:47:74:9b:c0:ed:0b:ec:7b:76:32:a7:
        f1:4e:ab:37:ec:63:00:dd:91:2b:b0:c2:44:8d:85:1b:87:07:
        7c:c8:28:d9:b2:63:c3:7b:95:c5:9e:59:5e:f6:9e:a9:b4:49:
        7f:57:21:55:2e:58:49:c3:ac:fd:3e:3b:e3:7d:6e:42:a2:fc:
        bc:86:19:9c:29:4c:e7:38:40:1d:ae:93:13:c3:6b:7e:16:5b:
        a9:58:1a:fb:e6:8e:95:74:7b:ab:ac:4c:a1:bd:35:4c:8a:f6:
        14:9e:f7:8b
-----BEGIN CERTIFICATE-----
MIIDeDCCAmCgAwIBAgIRAL39WT4npZhPVPvc6sg+tZUwDQYJKoZIhvcNAQELBQAw
FjEUMBIGA1UEAwwLdGVhbTI0MC1uZXQwHhcNMjMxMTAzMjA0MzQyWhcNMjYxMDE4
MjA0MzQyWjAZMRcwFQYDVQQDDA50ZWFtMjQwLXNlcnZlcjCCASIwDQYJKoZIhvcN
AQEBBQADggEPADCCAQoCggEBAMXQ3kO5K98r9pT13yqk0cRBWKm+767YrY/1d7ZH
d2qx2ibZwExL1nXh8xmpm3jYC2xAFDGPTZsbIlgx8L55e0jCvurSe3txveDfeQ+F
Rsi4JzlHPEAKk6oiKZjiDXwC2jYc/PyZfKPIYNgOKPASqW0rMmdbkU8ytUuEhgjM
/XZouLaIUKbsqTPUjGjPs8UsxJuMhN1+u2F9YglEgmRJ1X2Z4xEiJkRSd8e6d0vo
Hk9BvN2DcacbfHb8e4hWaoJBeJpkF4PehQxHjZgiYdcjAvCcmvI62HjdsLov6Tdr
WPNmDIxtLn9UM0Gvzg40kWmByVJ5gEXSQmuCWeozhRAeDBsCAwEAAaOBvTCBujAJ
BgNVHRMEAjAAMB0GA1UdDgQWBBS+m3lpEABUtXaLKLV8h2XoIaQ2DDBRBgNVHSME
SjBIgBRV5NnUv7KXFhBEOkuo/dcxGTXC/6EapBgwFjEUMBIGA1UEAwwLdGVhbTI0
MC1uZXSCFHk1JSRb+dDu34XzLk6aDQiy+x1PMBMGA1UdJQQMMAoGCCsGAQUFBwMB
MAsGA1UdDwQEAwIFoDAZBgNVHREEEjAQgg50ZWFtMjQwLXNlcnZlcjANBgkqhkiG
9w0BAQsFAAOCAQEAXrXOaK6HK4u/eQW1UiOv/Si4NjTxJiGtnY3OS/GfZbUCTwE7
wpKasQ0q6jqrG1+4DsXFrxpYDcDxT+j1tFOjB2FjXthXBVDYl4MyL4ZXgX3NmSWh
vl8Icr8QJK+i4ORiw592cPCJUGpC628SZbRpoAmaSsDiGS8C9AQ1KkQS4iYlsdea
oqDbU2l/AmiBQWmHyJGjT/7PDkd0m8DtC+x7djKn8U6rN+xjAN2RK7DCRI2FG4cH
fMgo2bJjw3uVxZ5ZXvaeqbRJf1chVS5YScOs/T47431uQqL8vIYZnClM5zhAHa6T
E8NrfhZbqVga++aOlXR7q6xMob01TIr2FJ73iw==
-----END CERTIFICATE-----
