Certificate:
    Data:
        Version: 3 (0x2)
        Serial Number:
            44:00:f6:b0:cc:4f:20:c2:36:c9:52:52:eb:dc:46:35
        Signature Algorithm: sha256WithRSAEncryption
        Issuer: CN=team492-net
        Validity
            Not Before: Nov  3 20:48:14 2023 GMT
            Not After : Oct 18 20:48:14 2026 GMT
        Subject: CN=team492-server
        Subject Public Key Info:
            Public Key Algorithm: rsaEncryption
                Public-Key: (2048 bit)
                Modulus:
                    00:c4:4d:cc:86:11:d6:06:5c:52:22:92:c7:79:f6:
                    ae:fb:4f:9a:1f:11:0a:9d:27:47:62:97:24:96:b8:
                    68:38:6e:6a:c2:f0:90:97:1d:30:b0:5f:30:74:9b:
                    8d:46:37:b2:51:55:46:9f:95:78:3f:78:50:52:07:
                    76:26:13:78:ea:1b:0b:4f:61:80:bd:dd:d8:75:58:
                    9d:aa:61:09:c3:aa:6d:8b:fc:d9:60:20:f3:d3:01:
                    db:39:fe:76:3f:46:14:15:f2:df:02:18:48:83:de:
                    08:af:4d:f9:34:55:55:db:24:3e:fd:83:18:76:84:
                    3d:86:67:09:2f:a1:94:26:ed:b4:a5:47:68:0a:27:
                    25:ab:b6:15:7a:8d:4b:a9:31:f7:2f:6a:f1:14:4a:
                    b9:1c:a4:45:9f:41:d2:71:92:ef:5f:2e:40:90:a5:
                    19:35:61:c3:43:44:85:f2:b6:12:e0:77:a3:11:cf:
                    60:0e:13:bb:d5:0a:78:4c:66:c1:da:db:b0:63:07:
                    c5:d8:2d:68:9a:cb:7f:e0:6c:e9:02:1e:c0:6a:08:
                    42:bd:25:be:64:44:b1:34:15:27:f5:fe:49:35:76:
                    f8:4d:a4:f4:0f:9e:f1:66:4a:75:98:9f:23:6a:f3:
                    01:75:96:57:b6:02:11:bc:72:7c:ef:61:6a:2d:79:
                    34:03
                Exponent: 65537 (0x10001)
        X509v3 extensions:
            X509v3 Basic Constraints: 
                CA:FALSE
            X509v3 Subject Key Identifier: 
                C7:64:FA:33:5D:9E:8B:44:CB:56:F2:AB:B2:60:A8:64:53:42:62:ED
            X509v3 Authority Key Identifier: 
                keyid:12:EE:0F:1B:7B:85:C8:28:16:B8:8F:42:00:31:56:E4:EA:69:42:95
                DirName:/CN=team492-net
                serial:4B:93:CC:7B:42:94:C7:97:49:42:33:D8:E1:19:76:FC:FB:67:EE:C4
            X509v3 Extended Key Usage: 
                TLS Web Server Authentication
            X509v3 Key Usage: 
                Digital Signature, Key Encipherment
            X509v3 Subject Alternative Name: 
                DNS:team492-server
    Signature Algorithm: sha256WithRSAEncryption
    Signature Value:
        72:0e:93:3a:01:cd:f1:37:0d:7e:f9:8a:60:6f:89:4c:d5:e5:
        08:d4:f0:cf:0e:a7:93:ba:4b:9d:10:9f:4b:77:cd:c0:b1:af:
        96:5e:29:a3:2f:25:f2:3d:38:49:23:c9:f9:70:eb:dc:30:95:
        24:dd:40:d6:18:18:11:82:de:30:01:b4:e1:46:b1:e1:2d:47:
        85:59:f6:8c:19:a7:cc:1f:73:6d:50:3f:02:a4:a5:45:e5:1d:
        37:29:31:db:a5:84:a5:5f:ab:73:ed:19:c9:1e:a5:bd:55:44:
        13:3e:ab:1b:b7:31:cf:28:59:3e:e6:6a:ed:e5:70:71:53:af:
        a3:9e:c8:54:08:27:78:14:80:0b:03:ed:c6:8a:7a:ff:a3:57:
        a2:bf:29:b7:5c:7f:99:4b:14:6d:fe:24:81:9f:ef:1d:ad:90:
        4f:9d:8b:d6:58:69:dd:44:e3:a6:d3:45:e0:35:f6:86:ca:7d:
        9b:1f:77:21:c4:63:da:47:fc:80:51:dd:da:34:f5:dd:f7:83:
        35:ae:fa:cb:a5:1b:27:4a:90:31:59:7f:35:8a:43:e2:3a:33:
        1d:91:b4:ad:57:c7:38:22:5a:76:52:14:c0:b4:81:e8:f1:d8:
        cb:b5:04:c6:61:2e:36:fb:ef:74:5d:a9:86:79:79:e1:8f:33:
        12:f7:03:b9
-----BEGIN CERTIFICATE-----
MIIDdzCCAl+gAwIBAgIQRAD2sMxPIMI2yVJS69xGNTANBgkqhkiG9w0BAQsFADAW
MRQwEgYDVQQDDAt0ZWFtNDkyLW5ldDAeFw0yMzExMDMyMDQ4MTRaFw0yNjEwMTgy
MDQ4MTRaMBkxFzAVBgNVBAMMDnRlYW00OTItc2VydmVyMIIBIjANBgkqhkiG9w0B
AQEFAAOCAQ8AMIIBCgKCAQEAxE3MhhHWBlxSIpLHefau+0+aHxEKnSdHYpcklrho
OG5qwvCQlx0wsF8wdJuNRjeyUVVGn5V4P3hQUgd2JhN46hsLT2GAvd3YdVidqmEJ
w6pti/zZYCDz0wHbOf52P0YUFfLfAhhIg94Ir035NFVV2yQ+/YMYdoQ9hmcJL6GU
Ju20pUdoCiclq7YVeo1LqTH3L2rxFEq5HKRFn0HScZLvXy5AkKUZNWHDQ0SF8rYS
4HejEc9gDhO71Qp4TGbB2tuwYwfF2C1omst/4GzpAh7AaghCvSW+ZESxNBUn9f5J
NXb4TaT0D57xZkp1mJ8javMBdZZXtgIRvHJ872FqLXk0AwIDAQABo4G9MIG6MAkG
A1UdEwQCMAAwHQYDVR0OBBYEFMdk+jNdnotEy1byq7JgqGRTQmLtMFEGA1UdIwRK
MEiAFBLuDxt7hcgoFriPQgAxVuTqaUKVoRqkGDAWMRQwEgYDVQQDDAt0ZWFtNDky
LW5ldIIUS5PMe0KUx5dJQjPY4Rl2/Ptn7sQwEwYDVR0lBAwwCgYIKwYBBQUHAwEw
CwYDVR0PBAQDAgWgMBkGA1UdEQQSMBCCDnRlYW00OTItc2VydmVyMA0GCSqGSIb3
DQEBCwUAA4IBAQByDpM6Ac3xNw1++Ypgb4lM1eUI1PDPDqeTukudEJ9Ld83Asa+W
XimjLyXyPThJI8n5cOvcMJUk3UDWGBgRgt4wAbThRrHhLUeFWfaMGafMH3NtUD8C
pKVF5R03KTHbpYSlX6tz7RnJHqW9VUQTPqsbtzHPKFk+5mrt5XBxU6+jnshUCCd4
FIALA+3Ginr/o1eivym3XH+ZSxRt/iSBn+8drZBPnYvWWGndROOm00XgNfaGyn2b
H3chxGPaR/yAUd3aNPXd94M1rvrLpRsnSpAxWX81ikPiOjMdkbStV8c4Ilp2UhTA
tIHo8djLtQTGYS42++90XamGeXnhjzMS9wO5
-----END CERTIFICATE-----
