Certificate:
    Data:
        Version: 3 (0x2)
        Serial Number:
            97:46:72:f2:0f:bd:c7:ec:c1:55:18:73:be:9e:12:52
        Signature Algorithm: sha256WithRSAEncryption
        Issuer: CN=team492-net
        Validity
            Not Before: Nov  4 10:49:19 2023 GMT
            Not After : Oct 19 10:49:19 2026 GMT
        Subject: CN=team492-client
        Subject Public Key Info:
            Public Key Algorithm: rsaEncryption
                Public-Key: (2048 bit)
                Modulus:
                    00:b0:ed:5a:e0:f5:60:7c:72:8a:1c:84:1e:66:68:
                    51:84:8a:9d:8b:ca:20:e1:fc:80:2b:3b:dc:d6:66:
                    0d:c2:7b:c3:e0:c4:99:5c:87:84:e7:e8:f1:4b:64:
                    a0:90:e5:c0:cf:25:81:d0:50:4f:2c:51:76:e0:04:
                    f0:9d:db:15:fc:86:6c:31:ff:a2:29:a3:ce:3d:1e:
                    5d:b2:5d:81:c8:74:7b:93:da:3b:8c:da:97:a4:c8:
                    4a:0d:14:a9:e0:e5:23:5e:b8:10:72:d6:f2:53:13:
                    8f:05:7b:12:d6:27:97:65:5a:e3:6b:16:9f:94:50:
                    f9:22:0a:39:94:f2:c3:1b:77:03:45:f0:44:78:89:
                    43:a4:52:59:1b:c1:72:fc:02:fa:70:22:76:c8:1e:
                    bc:79:a1:6b:85:f4:6d:6c:07:4d:7c:1d:39:90:17:
                    0d:90:d8:a5:07:99:c9:aa:46:95:38:48:00:09:46:
                    66:12:b7:32:1a:c5:ba:d4:8b:75:1e:b4:ce:6e:ec:
                    9c:94:71:3e:33:ed:6c:b5:46:ce:94:3c:53:ec:8b:
                    7e:23:46:0c:ed:14:3c:0e:d7:0a:34:7b:84:be:37:
                    93:83:5e:2f:b0:94:f0:97:d5:43:9d:c2:5b:64:8a:
                    73:02:de:d4:e5:d0:c7:75:5f:42:2f:d0:0a:28:e2:
                    9c:55
                Exponent: 65537 (0x10001)
        X509v3 extensions:
            X509v3 Basic Constraints: 
                CA:FALSE
            X509v3 Subject Key Identifier: 
                EE:F9:E2:D7:EC:89:F7:D5:09:73:3D:C2:D7:BC:81:3F:34:0C:BF:B4
            X509v3 Authority Key Identifier: 
                keyid:32:6C:A2:3C:6E:F8:06:EC:B5:97:E4:8F:8A:1D:60:6A:50:27:AD:5F
                DirName:/CN=team492-net
                serial:18:74:5D:8E:E8:10:4E:1B:17:78:16:9B:74:41:BA:D3:FE:A5:54:89
            X509v3 Extended Key Usage: 
                TLS Web Client Authentication
            X509v3 Key Usage: 
                Digital Signature
    Signature Algorithm: sha256WithRSAEncryption
    Signature Value:
        86:a7:b9:f8:f5:80:38:e9:d4:29:4c:a4:6b:ef:23:4f:33:20:
        44:f4:c9:be:8f:e9:c2:c0:44:27:cb:9a:00:b3:be:a2:cc:8b:
        d3:41:4c:f5:06:3e:e1:46:06:b5:44:02:a5:28:da:70:d3:53:
        ea:08:a9:b9:66:c4:a2:a0:c0:45:92:92:a6:a5:de:a0:43:af:
        5d:4c:79:00:b7:24:b2:69:c7:80:de:31:8e:ac:78:98:ac:94:
        5b:3b:cc:7f:09:92:12:20:1f:a4:87:3f:98:4c:d4:87:21:e1:
        83:78:03:c9:88:a5:03:9c:18:7d:82:91:fd:e3:73:67:be:45:
        fb:d8:3e:52:b1:8e:6c:55:6a:fd:29:85:5a:c3:5d:0a:24:7c:
        ff:2c:a8:ee:c5:ea:b3:93:cd:c2:c6:8c:db:82:2d:ad:36:71:
        d0:37:e6:0d:f9:ce:47:93:76:1a:c6:10:8e:11:89:df:f0:de:
        c0:a2:71:15:85:7b:33:94:c5:af:d6:2a:4f:6f:a3:3d:03:87:
        66:15:ae:97:39:77:54:56:89:ef:cf:c9:bf:d2:16:85:91:2f:
        70:f0:eb:4d:7b:ee:98:ca:d7:ce:d2:26:99:b9:1b:cd:1d:1a:
        a2:24:e2:77:78:b3:1d:97:fe:f2:9f:b3:5a:fa:4b:89:30:e5:
        35:8f:f7:16
-----BEGIN CERTIFICATE-----
MIIDXTCCAkWgAwIBAgIRAJdGcvIPvcfswVUYc76eElIwDQYJKoZIhvcNAQELBQAw
FjEUMBIGA1UEAwwLdGVhbTQ5Mi1uZXQwHhcNMjMxMTA0MTA0OTE5WhcNMjYxMDE5
MTA0OTE5WjAZMRcwFQYDVQQDDA50ZWFtNDkyLWNsaWVudDCCASIwDQYJKoZIhvcN
AQEBBQADggEPADCCAQoCggEBALDtWuD1YHxyihyEHmZoUYSKnYvKIOH8gCs73NZm
DcJ7w+DEmVyHhOfo8UtkoJDlwM8lgdBQTyxRduAE8J3bFfyGbDH/oimjzj0eXbJd
gch0e5PaO4zal6TISg0UqeDlI164EHLW8lMTjwV7EtYnl2Va42sWn5RQ+SIKOZTy
wxt3A0XwRHiJQ6RSWRvBcvwC+nAidsgevHmha4X0bWwHTXwdOZAXDZDYpQeZyapG
lThIAAlGZhK3MhrFutSLdR60zm7snJRxPjPtbLVGzpQ8U+yLfiNGDO0UPA7XCjR7
hL43k4NeL7CU8JfVQ53CW2SKcwLe1OXQx3VfQi/QCijinFUCAwEAAaOBojCBnzAJ
BgNVHRMEAjAAMB0GA1UdDgQWBBTu+eLX7In31QlzPcLXvIE/NAy/tDBRBgNVHSME
SjBIgBQybKI8bvgG7LWX5I+KHWBqUCetX6EapBgwFjEUMBIGA1UEAwwLdGVhbTQ5
Mi1uZXSCFBh0XY7oEE4bF3gWm3RButP+pVSJMBMGA1UdJQQMMAoGCCsGAQUFBwMC
MAsGA1UdDwQEAwIHgDANBgkqhkiG9w0BAQsFAAOCAQEAhqe5+PWAOOnUKUyka+8j
TzMgRPTJvo/pwsBEJ8uaALO+osyL00FM9QY+4UYGtUQCpSjacNNT6gipuWbEoqDA
RZKSpqXeoEOvXUx5ALcksmnHgN4xjqx4mKyUWzvMfwmSEiAfpIc/mEzUhyHhg3gD
yYilA5wYfYKR/eNzZ75F+9g+UrGObFVq/SmFWsNdCiR8/yyo7sXqs5PNwsaM24It
rTZx0DfmDfnOR5N2GsYQjhGJ3/DewKJxFYV7M5TFr9YqT2+jPQOHZhWulzl3VFaJ
78/Jv9IWhZEvcPDrTXvumMrXztImmbkbzR0aoiTid3izHZf+8p+zWvpLiTDlNY/3
Fg==
-----END CERTIFICATE-----
