Certificate:
    Data:
        Version: 3 (0x2)
        Serial Number:
            a9:38:2f:27:14:1c:03:c4:ff:fc:b1:92:67:14:85:a8
        Signature Algorithm: sha256WithRSAEncryption
        Issuer: CN=team492-net
        Validity
            Not Before: Nov  3 20:48:14 2023 GMT
            Not After : Oct 18 20:48:14 2026 GMT
        Subject: CN=team492-client
        Subject Public Key Info:
            Public Key Algorithm: rsaEncryption
                Public-Key: (2048 bit)
                Modulus:
                    00:b2:f3:56:ac:3a:d4:cb:81:9e:6c:d6:d7:33:60:
                    b0:d8:8f:93:42:ca:02:c8:39:53:5f:69:46:e3:28:
                    4d:22:d6:f3:d9:f5:18:e4:93:66:d3:c2:9f:ee:c5:
                    45:c3:18:02:b1:2e:22:dd:d5:f0:39:de:9e:7a:cf:
                    1f:ab:14:11:88:14:7e:9d:6c:2d:90:f2:b1:67:54:
                    ae:39:ce:1f:52:b2:ee:8b:7f:67:53:f2:eb:75:0d:
                    be:99:93:a5:a9:ea:80:8e:e7:a5:68:5c:c0:a4:58:
                    46:2e:c9:1f:64:8c:dd:3a:ff:b7:14:7e:94:a3:cc:
                    49:1f:cf:88:32:8f:9c:38:6c:30:21:22:e9:e0:ad:
                    bf:47:ac:c3:91:d8:8e:24:db:a2:3b:38:13:31:f6:
                    d6:71:a2:82:8a:3c:76:c8:47:64:50:39:98:2f:6d:
                    60:64:15:3e:7b:77:63:f1:4f:28:ed:30:68:06:db:
                    f9:b9:ce:8e:24:02:e7:40:49:ed:cc:ed:d0:6c:fd:
                    b7:fb:63:4d:37:f8:14:66:35:25:15:32:55:34:49:
                    6d:9f:47:0c:84:55:2c:8d:a4:63:19:5f:e2:93:ab:
                    1f:c0:d2:eb:7d:66:2c:f7:a9:86:71:77:d8:d6:4d:
                    12:44:1c:a6:80:d0:b0:c4:6b:43:cf:cf:be:d0:e1:
                    fb:9f
                Exponent: 65537 (0x10001)
        X509v3 extensions:
            X509v3 Basic Constraints: 
                CA:FALSE
            X509v3 Subject Key Identifier: 
                3A:15:6D:E6:8D:2A:A7:0E:B7:AF:CB:D2:5E:F4:68:CB:F3:00:EF:A4
            X509v3 Authority Key Identifier: 
                keyid:12:EE:0F:1B:7B:85:C8:28:16:B8:8F:42:00:31:56:E4:EA:69:42:95
                DirName:/CN=team492-net
                serial:4B:93:CC:7B:42:94:C7:97:49:42:33:D8:E1:19:76:FC:FB:67:EE:C4
            X509v3 Extended Key Usage: 
                TLS Web Client Authentication
            X509v3 Key Usage: 
                Digital Signature
    Signature Algorithm: sha256WithRSAEncryption
    Signature Value:
        a3:97:56:35:03:e2:6c:10:d5:51:94:fa:2d:52:a4:7e:3f:eb:
        42:bf:2d:db:50:27:98:f0:c4:20:52:e2:55:ca:e6:71:fd:e0:
        e6:18:5b:81:24:bf:cb:75:df:49:1e:b6:94:e0:32:20:0b:c4:
        25:26:5c:97:99:43:49:c6:a8:67:70:85:22:72:6b:e8:b9:53:
        6e:72:7a:f7:c6:e2:a8:ae:81:33:5c:f9:f3:83:07:80:6f:c8:
        83:40:14:01:d2:84:77:fb:8c:ce:93:cc:a8:6c:37:f7:c9:61:
        d2:dd:b0:dc:b3:a8:de:90:b0:23:ec:64:84:ad:27:40:42:9f:
        08:6a:3b:68:5d:61:a8:bd:78:0c:80:d9:a4:b0:ab:74:86:ca:
        f5:27:2c:98:a0:87:7d:df:ea:d3:41:7b:8b:2c:11:a4:0b:98:
        69:ad:b3:4a:11:f7:63:48:96:d7:31:4b:57:6f:6f:d0:ef:9d:
        83:77:51:5e:89:5a:06:9c:91:80:0d:be:59:0f:6d:9c:58:e1:
        5e:54:c9:6f:94:53:d7:d4:38:ba:3b:75:b4:03:97:f6:a6:d5:
        77:03:d7:74:cd:2d:bd:61:91:5b:45:42:98:dc:14:63:50:23:
        14:b4:80:e2:bc:12:37:3b:d2:01:31:f9:36:8c:78:a6:ec:00:
        48:95:65:a6
-----BEGIN CERTIFICATE-----
MIIDXTCCAkWgAwIBAgIRAKk4LycUHAPE//yxkmcUhagwDQYJKoZIhvcNAQELBQAw
FjEUMBIGA1UEAwwLdGVhbTQ5Mi1uZXQwHhcNMjMxMTAzMjA0ODE0WhcNMjYxMDE4
MjA0ODE0WjAZMRcwFQYDVQQDDA50ZWFtNDkyLWNsaWVudDCCASIwDQYJKoZIhvcN
AQEBBQADggEPADCCAQoCggEBALLzVqw61MuBnmzW1zNgsNiPk0LKAsg5U19pRuMo
TSLW89n1GOSTZtPCn+7FRcMYArEuIt3V8DnennrPH6sUEYgUfp1sLZDysWdUrjnO
H1Ky7ot/Z1Py63UNvpmTpanqgI7npWhcwKRYRi7JH2SM3Tr/txR+lKPMSR/PiDKP
nDhsMCEi6eCtv0esw5HYjiTbojs4EzH21nGigoo8dshHZFA5mC9tYGQVPnt3Y/FP
KO0waAbb+bnOjiQC50BJ7czt0Gz9t/tjTTf4FGY1JRUyVTRJbZ9HDIRVLI2kYxlf
4pOrH8DS631mLPephnF32NZNEkQcpoDQsMRrQ8/PvtDh+58CAwEAAaOBojCBnzAJ
BgNVHRMEAjAAMB0GA1UdDgQWBBQ6FW3mjSqnDrevy9Je9GjL8wDvpDBRBgNVHSME
SjBIgBQS7g8be4XIKBa4j0IAMVbk6mlClaEapBgwFjEUMBIGA1UEAwwLdGVhbTQ5
Mi1uZXSCFEuTzHtClMeXSUIz2OEZdvz7Z+7EMBMGA1UdJQQMMAoGCCsGAQUFBwMC
MAsGA1UdDwQEAwIHgDANBgkqhkiG9w0BAQsFAAOCAQEAo5dWNQPibBDVUZT6LVKk
fj/rQr8t21AnmPDEIFLiVcrmcf3g5hhbgSS/y3XfSR62lOAyIAvEJSZcl5lDScao
Z3CFInJr6LlTbnJ698biqK6BM1z584MHgG/Ig0AUAdKEd/uMzpPMqGw398lh0t2w
3LOo3pCwI+xkhK0nQEKfCGo7aF1hqL14DIDZpLCrdIbK9ScsmKCHfd/q00F7iywR
pAuYaa2zShH3Y0iW1zFLV29v0O+dg3dRXolaBpyRgA2+WQ9tnFjhXlTJb5RT19Q4
ujt1tAOX9qbVdwPXdM0tvWGRW0VCmNwUY1AjFLSA4rwSNzvSATH5Nox4puwASJVl
pg==
-----END CERTIFICATE-----
