Certificate:
    Data:
        Version: 3 (0x2)
        Serial Number:
            e2:f8:79:3b:be:1f:3a:3d:f9:03:8c:f3:0e:86:00:ad
        Signature Algorithm: sha256WithRSAEncryption
        Issuer: CN=team492-net
        Validity
            Not Before: Nov  4 11:38:44 2023 GMT
            Not After : Oct 19 11:38:44 2026 GMT
        Subject: CN=team492-client
        Subject Public Key Info:
            Public Key Algorithm: rsaEncryption
                Public-Key: (2048 bit)
                Modulus:
                    00:bb:39:98:38:38:da:8f:09:05:8f:d5:27:22:37:
                    89:e9:56:07:4e:6b:30:b1:d1:9c:1f:fc:58:40:48:
                    53:19:51:23:38:0c:d4:e5:aa:ca:9c:d6:b7:c3:98:
                    04:ef:ab:d9:12:cb:b5:29:af:6c:a5:81:6b:ac:da:
                    bf:f7:07:65:bb:35:1d:59:b4:b7:90:86:61:8f:a9:
                    b3:96:63:60:5f:5b:80:b7:c5:cb:24:f2:6a:e3:15:
                    8d:47:6b:9e:9e:fb:3c:55:ab:58:7c:fb:80:23:7f:
                    53:66:3d:0e:35:7c:af:c3:ef:0a:22:e2:bb:63:70:
                    e7:32:f0:3f:35:f2:47:bd:de:02:bb:44:56:0a:76:
                    8f:aa:b4:d4:95:e1:96:b3:94:27:95:ec:51:4e:68:
                    f4:bc:62:4e:9b:04:02:d9:c1:43:38:f9:78:46:49:
                    68:95:c1:62:b9:12:4f:a3:a2:0a:d3:7e:d5:5e:32:
                    ff:76:39:38:75:40:fd:6c:74:b4:e2:f2:bc:50:b3:
                    cb:9c:99:f2:f3:d8:40:ee:c7:fc:8b:2f:05:29:76:
                    9a:98:db:93:ac:87:6a:21:eb:58:09:34:c8:ac:38:
                    8f:1a:c0:f0:51:d8:2e:62:d0:21:bb:1e:9b:f9:d8:
                    06:73:28:aa:9b:72:0d:ad:cb:72:83:14:4e:5d:1d:
                    5d:95
                Exponent: 65537 (0x10001)
        X509v3 extensions:
            X509v3 Basic Constraints: 
                CA:FALSE
            X509v3 Subject Key Identifier: 
                9D:B3:E9:2D:EC:0C:6E:F6:1F:37:2E:4D:F7:79:4D:50:56:56:F1:05
            X509v3 Authority Key Identifier: 
                keyid:A0:54:90:16:6D:81:56:41:07:BA:AB:E4:6A:85:38:92:98:72:20:E1
                DirName:/CN=team492-net
                serial:4C:E9:F9:44:7B:52:6A:ED:12:6C:B2:8D:26:31:C1:EF:3D:EE:46:A7
            X509v3 Extended Key Usage: 
                TLS Web Client Authentication
            X509v3 Key Usage: 
                Digital Signature
    Signature Algorithm: sha256WithRSAEncryption
    Signature Value:
        9c:54:fb:42:bc:e5:16:f9:db:a7:0c:21:bf:ea:42:b0:aa:d7:
        9a:2c:6a:eb:19:57:7a:51:22:cb:89:ac:cf:d4:5e:24:ad:78:
        db:2b:59:b5:f7:5c:62:be:ee:b6:5f:55:3d:2b:4b:0d:02:e4:
        d6:10:6c:be:3b:1a:f8:eb:27:78:43:3a:7f:50:1a:ee:ba:96:
        a3:7c:10:cb:2c:1f:12:59:34:a1:79:c8:95:e0:41:c7:b6:6c:
        79:58:78:c8:54:05:13:bb:cc:30:91:d2:81:5b:e8:f5:43:2d:
        bf:4f:2a:3c:75:0b:7c:1b:b3:78:69:2f:d7:50:78:b5:75:f2:
        63:95:a0:77:dd:cc:fe:8b:dd:22:c4:90:e5:e2:ce:d3:76:5e:
        10:a5:27:e6:a2:36:69:ca:1d:7b:ba:a4:55:f5:9c:db:7e:89:
        3c:54:d5:fc:e5:a7:7a:a5:c3:3a:e1:97:2b:de:75:6b:b1:11:
        8a:85:47:66:11:c6:aa:fc:d3:76:de:86:ed:78:81:fc:f2:f4:
        e5:97:6f:95:69:f6:06:76:69:2a:d5:07:64:1f:17:c6:c5:aa:
        f5:db:f6:cd:f7:a2:96:75:97:d8:6f:2e:62:ac:03:2e:06:a0:
        61:3c:48:4e:a7:35:f1:ce:ef:15:28:bd:66:fe:19:f9:41:93:
        19:d6:ea:58
-----BEGIN CERTIFICATE-----
MIIDXTCCAkWgAwIBAgIRAOL4eTu+Hzo9+QOM8w6GAK0wDQYJKoZIhvcNAQELBQAw
FjEUMBIGA1UEAwwLdGVhbTQ5Mi1uZXQwHhcNMjMxMTA0MTEzODQ0WhcNMjYxMDE5
MTEzODQ0WjAZMRcwFQYDVQQDDA50ZWFtNDkyLWNsaWVudDCCASIwDQYJKoZIhvcN
AQEBBQADggEPADCCAQoCggEBALs5mDg42o8JBY/VJyI3ielWB05rMLHRnB/8WEBI
UxlRIzgM1OWqypzWt8OYBO+r2RLLtSmvbKWBa6zav/cHZbs1HVm0t5CGYY+ps5Zj
YF9bgLfFyyTyauMVjUdrnp77PFWrWHz7gCN/U2Y9DjV8r8PvCiLiu2Nw5zLwPzXy
R73eArtEVgp2j6q01JXhlrOUJ5XsUU5o9LxiTpsEAtnBQzj5eEZJaJXBYrkST6Oi
CtN+1V4y/3Y5OHVA/Wx0tOLyvFCzy5yZ8vPYQO7H/IsvBSl2mpjbk6yHaiHrWAk0
yKw4jxrA8FHYLmLQIbsem/nYBnMoqptyDa3LcoMUTl0dXZUCAwEAAaOBojCBnzAJ
BgNVHRMEAjAAMB0GA1UdDgQWBBSds+kt7Axu9h83Lk33eU1QVlbxBTBRBgNVHSME
SjBIgBSgVJAWbYFWQQe6q+RqhTiSmHIg4aEapBgwFjEUMBIGA1UEAwwLdGVhbTQ5
Mi1uZXSCFEzp+UR7UmrtEmyyjSYxwe897kanMBMGA1UdJQQMMAoGCCsGAQUFBwMC
MAsGA1UdDwQEAwIHgDANBgkqhkiG9w0BAQsFAAOCAQEAnFT7QrzlFvnbpwwhv+pC
sKrXmixq6xlXelEiy4msz9ReJK142ytZtfdcYr7utl9VPStLDQLk1hBsvjsa+Osn
eEM6f1Aa7rqWo3wQyywfElk0oXnIleBBx7ZseVh4yFQFE7vMMJHSgVvo9UMtv08q
PHULfBuzeGkv11B4tXXyY5Wgd93M/ovdIsSQ5eLO03ZeEKUn5qI2acode7qkVfWc
236JPFTV/OWneqXDOuGXK951a7ERioVHZhHGqvzTdt6G7XiB/PL05ZdvlWn2BnZp
KtUHZB8XxsWq9dv2zfeilnWX2G8uYqwDLgagYTxITqc18c7vFSi9Zv4Z+UGTGdbq
WA==
-----END CERTIFICATE-----
