Certificate:
    Data:
        Version: 3 (0x2)
        Serial Number:
            fd:ac:4b:7c:51:c2:13:57:ee:9d:2c:93:1b:f2:b0:9d
        Signature Algorithm: sha256WithRSAEncryption
        Issuer: CN=team492-net
        Validity
            Not Before: Nov  4 11:38:45 2023 GMT
            Not After : Oct 19 11:38:45 2026 GMT
        Subject: CN=team492-server
        Subject Public Key Info:
            Public Key Algorithm: rsaEncryption
                Public-Key: (2048 bit)
                Modulus:
                    00:9b:88:49:0d:c0:b6:1e:dc:2a:ec:b0:05:8a:1f:
                    24:ab:9e:73:19:4f:49:63:b3:87:db:68:69:22:54:
                    fa:82:34:03:09:42:fc:ce:0a:da:76:3b:57:b9:bd:
                    4f:74:c6:c7:9f:02:67:79:4f:9a:69:8b:56:5c:b5:
                    44:12:3a:10:74:cf:4f:5d:ac:e3:98:43:47:b8:6a:
                    96:b1:ee:d9:c6:72:0b:74:2d:67:58:06:a7:2c:58:
                    68:b8:3c:31:00:13:01:2a:df:fc:cc:89:e4:95:89:
                    39:d9:be:e7:71:b3:8d:f5:d4:cf:da:6c:57:0a:1c:
                    0a:96:00:91:fe:18:cd:18:c7:30:90:9d:e3:b6:13:
                    eb:e5:f3:99:47:eb:6a:07:64:20:75:91:5b:17:72:
                    31:bd:ad:09:c0:3c:4f:6f:c1:3b:d6:bb:cc:50:a6:
                    fe:4b:b1:6f:e1:09:4c:b3:3c:de:20:12:3b:48:68:
                    14:a7:88:b7:ae:e7:1d:7f:97:7e:1b:ce:1f:4f:4b:
                    58:c9:d9:62:53:91:26:77:44:ba:04:c3:04:90:8c:
                    83:05:06:4b:ca:65:ff:26:49:e2:34:f0:5e:01:63:
                    07:4d:04:0f:40:cf:06:49:45:e6:6e:fa:0c:4e:0c:
                    31:72:96:6e:9d:51:21:d6:b6:6a:79:10:02:91:e4:
                    31:51
                Exponent: 65537 (0x10001)
        X509v3 extensions:
            X509v3 Basic Constraints: 
                CA:FALSE
            X509v3 Subject Key Identifier: 
                DD:A1:89:52:98:2E:FF:76:CC:40:61:62:BF:BC:5D:8B:7E:74:30:6A
            X509v3 Authority Key Identifier: 
                keyid:A0:54:90:16:6D:81:56:41:07:BA:AB:E4:6A:85:38:92:98:72:20:E1
                DirName:/CN=team492-net
                serial:4C:E9:F9:44:7B:52:6A:ED:12:6C:B2:8D:26:31:C1:EF:3D:EE:46:A7
            X509v3 Extended Key Usage: 
                TLS Web Server Authentication
            X509v3 Key Usage: 
                Digital Signature, Key Encipherment
            X509v3 Subject Alternative Name: 
                DNS:team492-server
    Signature Algorithm: sha256WithRSAEncryption
    Signature Value:
        3a:84:bf:21:93:e8:14:0c:e0:f9:09:87:54:81:79:74:00:ee:
        9b:fd:9f:a5:e9:1b:26:da:cc:e2:ff:a3:35:a3:30:2d:54:85:
        09:8e:80:07:63:95:6f:00:a4:fd:d0:c5:67:94:db:7a:a1:fa:
        e3:a3:74:6b:3f:94:50:ed:c0:26:c7:4c:36:47:56:b9:fc:c8:
        10:ac:d4:a4:82:dd:a5:9a:9a:7c:66:39:3a:ae:49:a7:e2:70:
        45:7e:19:b4:47:ab:02:4a:dd:bc:1d:90:06:15:eb:f4:0e:ad:
        61:e9:7c:ae:86:27:cc:0e:2a:5b:e5:bf:75:37:ea:ff:bc:87:
        6c:6a:1b:f5:09:01:45:b1:3e:74:e3:24:fd:56:92:b3:82:22:
        d4:04:ef:be:2b:0f:cd:a2:00:69:5c:35:6c:dc:4c:9c:7c:1d:
        3f:a1:8a:00:e0:d1:c5:27:18:82:8b:a3:e8:06:2b:2d:f4:b2:
        47:82:39:33:96:b0:32:7f:8b:1c:74:9f:3b:62:f0:3d:d1:47:
        13:91:45:82:55:5b:87:06:16:01:e6:15:06:32:ea:27:05:3e:
        a2:0d:37:b1:f1:25:4c:d1:56:f9:7e:b2:2c:f3:d1:54:33:92:
        a5:1b:e5:7d:20:fa:1f:e2:32:83:08:6d:00:81:8f:57:34:7e:
        ad:09:e6:28
-----BEGIN CERTIFICATE-----
MIIDeDCCAmCgAwIBAgIRAP2sS3xRwhNX7p0skxvysJ0wDQYJKoZIhvcNAQELBQAw
FjEUMBIGA1UEAwwLdGVhbTQ5Mi1uZXQwHhcNMjMxMTA0MTEzODQ1WhcNMjYxMDE5
MTEzODQ1WjAZMRcwFQYDVQQDDA50ZWFtNDkyLXNlcnZlcjCCASIwDQYJKoZIhvcN
AQEBBQADggEPADCCAQoCggEBAJuISQ3Ath7cKuywBYofJKuecxlPSWOzh9toaSJU
+oI0AwlC/M4K2nY7V7m9T3TGx58CZ3lPmmmLVly1RBI6EHTPT12s45hDR7hqlrHu
2cZyC3QtZ1gGpyxYaLg8MQATASrf/MyJ5JWJOdm+53GzjfXUz9psVwocCpYAkf4Y
zRjHMJCd47YT6+XzmUfragdkIHWRWxdyMb2tCcA8T2/BO9a7zFCm/kuxb+EJTLM8
3iASO0hoFKeIt67nHX+XfhvOH09LWMnZYlORJndEugTDBJCMgwUGS8pl/yZJ4jTw
XgFjB00ED0DPBklF5m76DE4MMXKWbp1RIda2ankQApHkMVECAwEAAaOBvTCBujAJ
BgNVHRMEAjAAMB0GA1UdDgQWBBTdoYlSmC7/dsxAYWK/vF2LfnQwajBRBgNVHSME
SjBIgBSgVJAWbYFWQQe6q+RqhTiSmHIg4aEapBgwFjEUMBIGA1UEAwwLdGVhbTQ5
Mi1uZXSCFEzp+UR7UmrtEmyyjSYxwe897kanMBMGA1UdJQQMMAoGCCsGAQUFBwMB
MAsGA1UdDwQEAwIFoDAZBgNVHREEEjAQgg50ZWFtNDkyLXNlcnZlcjANBgkqhkiG
9w0BAQsFAAOCAQEAOoS/IZPoFAzg+QmHVIF5dADum/2fpekbJtrM4v+jNaMwLVSF
CY6AB2OVbwCk/dDFZ5TbeqH646N0az+UUO3AJsdMNkdWufzIEKzUpILdpZqafGY5
Oq5Jp+JwRX4ZtEerAkrdvB2QBhXr9A6tYel8roYnzA4qW+W/dTfq/7yHbGob9QkB
RbE+dOMk/VaSs4Ii1ATvvisPzaIAaVw1bNxMnHwdP6GKAODRxScYgouj6AYrLfSy
R4I5M5awMn+LHHSfO2LwPdFHE5FFglVbhwYWAeYVBjLqJwU+og03sfElTNFW+X6y
LPPRVDOSpRvlfSD6H+IygwhtAIGPVzR+rQnmKA==
-----END CERTIFICATE-----
