Certificate:
    Data:
        Version: 3 (0x2)
        Serial Number:
            5a:50:de:b0:b7:a4:76:ed:53:2c:57:aa:c1:7d:32:7d
        Signature Algorithm: sha256WithRSAEncryption
        Issuer: CN=team43-net
        Validity
            Not Before: Nov  3 20:40:00 2023 GMT
            Not After : Oct 18 20:40:00 2026 GMT
        Subject: CN=team43-server
        Subject Public Key Info:
            Public Key Algorithm: rsaEncryption
                Public-Key: (2048 bit)
                Modulus:
                    00:d3:cf:c7:e2:98:94:80:01:1a:0a:83:7a:ca:73:
                    5e:0a:ad:b6:4f:06:2a:8e:48:13:32:7f:59:53:0b:
                    d0:b2:2c:52:65:51:ac:8b:cb:90:fb:2d:43:2d:26:
                    fc:24:17:90:a3:eb:d4:df:35:16:61:7a:f0:35:fd:
                    32:d9:dd:47:39:d5:a4:be:b2:2c:26:be:ef:5a:89:
                    91:71:78:88:c2:b7:87:d4:cd:bd:fb:d2:ad:b6:a8:
                    72:3a:92:f9:92:60:4c:43:f5:f6:1a:cf:49:df:70:
                    8f:cd:ad:ca:98:ef:9f:ef:a6:56:56:29:67:ac:35:
                    c2:80:19:22:c4:ce:88:54:f7:55:ca:d5:8d:7b:6c:
                    d4:fd:83:94:3e:de:11:49:cc:64:8e:fc:d0:97:50:
                    ae:2e:0e:10:3a:2b:06:8a:78:61:5c:79:5e:f6:4a:
                    f5:5c:b4:43:6f:35:f4:3d:ee:e5:01:4c:aa:a2:1c:
                    36:f3:3a:0a:76:9e:55:ee:f2:8f:bd:8b:f7:0e:44:
                    83:27:f4:da:b3:30:7e:b6:c4:8d:e2:34:53:46:d9:
                    8f:de:8c:ca:75:f3:50:b5:1e:3f:31:52:c1:a6:58:
                    80:0c:0a:b8:64:ba:cd:9b:3e:db:ec:20:ce:66:a5:
                    5f:c1:7b:17:fc:c5:d1:a9:70:05:89:75:dc:4c:ec:
                    43:71
                Exponent: 65537 (0x10001)
        X509v3 extensions:
            X509v3 Basic Constraints: 
                CA:FALSE
            X509v3 Subject Key Identifier: 
                4A:C3:B4:77:47:FD:01:38:75:8E:D2:29:D9:37:7F:EA:84:18:D0:57
            X509v3 Authority Key Identifier: 
                keyid:B8:3C:41:04:4F:84:32:A6:88:80:E8:30:C0:18:C7:0E:DE:BC:30:C6
                DirName:/CN=team43-net
                serial:2C:C8:12:16:00:4E:E3:4F:77:0C:78:1D:26:04:DB:C2:12:DD:BF:C7
            X509v3 Extended Key Usage: 
                TLS Web Server Authentication
            X509v3 Key Usage: 
                Digital Signature, Key Encipherment
            X509v3 Subject Alternative Name: 
                DNS:team43-server
    Signature Algorithm: sha256WithRSAEncryption
    Signature Value:
        0c:63:65:e5:63:b9:cb:a9:cb:72:a3:de:64:ba:02:94:81:62:
        1d:2d:bf:82:29:88:8c:41:d7:c0:c2:a2:9e:10:6e:17:57:55:
        68:ac:70:c9:98:ca:e6:af:6c:bc:32:3d:70:77:88:f2:24:13:
        d3:88:49:ad:21:7f:dc:fb:6c:bf:36:a6:9e:77:ce:4a:9f:b8:
        38:c9:c4:57:46:71:02:c1:b2:28:04:ba:77:2b:37:64:62:a0:
        de:b7:f0:9a:32:6c:ab:ad:28:23:80:26:7c:96:ae:ce:5b:68:
        5b:a3:63:cb:bc:e8:f8:48:28:10:c9:1f:4d:4c:c0:a1:d0:6f:
        7d:c9:ec:45:05:cd:ac:34:c9:f4:a5:e1:97:8f:f2:63:29:08:
        3d:c6:e6:3b:54:92:ec:47:33:07:ff:c9:c7:ff:26:84:60:ee:
        ba:17:a9:a6:6f:2b:c3:1a:3e:da:20:7a:27:9a:f7:d8:20:1e:
        dc:f4:62:9b:a3:c5:56:1e:57:64:08:a9:24:f3:f5:57:6e:4e:
        e3:40:aa:a4:aa:9d:8f:8d:df:43:8e:0c:22:04:c6:4b:62:95:
        98:69:0f:0c:30:d7:d3:6f:58:57:51:11:52:68:56:da:73:3b:
        ac:5c:e7:0d:a5:6a:49:16:d1:2a:bc:77:39:ff:da:bb:a8:72:
        bd:60:01:38
-----BEGIN CERTIFICATE-----
MIIDczCCAlugAwIBAgIQWlDesLekdu1TLFeqwX0yfTANBgkqhkiG9w0BAQsFADAV
MRMwEQYDVQQDDAp0ZWFtNDMtbmV0MB4XDTIzMTEwMzIwNDAwMFoXDTI2MTAxODIw
NDAwMFowGDEWMBQGA1UEAwwNdGVhbTQzLXNlcnZlcjCCASIwDQYJKoZIhvcNAQEB
BQADggEPADCCAQoCggEBANPPx+KYlIABGgqDespzXgqttk8GKo5IEzJ/WVML0LIs
UmVRrIvLkPstQy0m/CQXkKPr1N81FmF68DX9MtndRznVpL6yLCa+71qJkXF4iMK3
h9TNvfvSrbaocjqS+ZJgTEP19hrPSd9wj82typjvn++mVlYpZ6w1woAZIsTOiFT3
VcrVjXts1P2DlD7eEUnMZI780JdQri4OEDorBop4YVx5XvZK9Vy0Q2819D3u5QFM
qqIcNvM6CnaeVe7yj72L9w5Egyf02rMwfrbEjeI0U0bZj96MynXzULUePzFSwaZY
gAwKuGS6zZs+2+wgzmalX8F7F/zF0alwBYl13EzsQ3ECAwEAAaOBuzCBuDAJBgNV
HRMEAjAAMB0GA1UdDgQWBBRKw7R3R/0BOHWO0inZN3/qhBjQVzBQBgNVHSMESTBH
gBS4PEEET4QypoiA6DDAGMcO3rwwxqEZpBcwFTETMBEGA1UEAwwKdGVhbTQzLW5l
dIIULMgSFgBO4093DHgdJgTbwhLdv8cwEwYDVR0lBAwwCgYIKwYBBQUHAwEwCwYD
VR0PBAQDAgWgMBgGA1UdEQQRMA+CDXRlYW00My1zZXJ2ZXIwDQYJKoZIhvcNAQEL
BQADggEBAAxjZeVjucupy3Kj3mS6ApSBYh0tv4IpiIxB18DCop4QbhdXVWiscMmY
yuavbLwyPXB3iPIkE9OISa0hf9z7bL82pp53zkqfuDjJxFdGcQLBsigEuncrN2Ri
oN638JoybKutKCOAJnyWrs5baFujY8u86PhIKBDJH01MwKHQb33J7EUFzaw0yfSl
4ZeP8mMpCD3G5jtUkuxHMwf/ycf/JoRg7roXqaZvK8MaPtogeiea99ggHtz0Ypuj
xVYeV2QIqSTz9VduTuNAqqSqnY+N30OODCIExktilZhpDwww19NvWFdREVJoVtpz
O6xc5w2lakkW0Sq8dzn/2ruocr1gATg=
-----END CERTIFICATE-----
