Certificate:
    Data:
        Version: 3 (0x2)
        Serial Number:
            79:79:96:03:d9:34:11:98:ee:01:2d:cc:9f:3e:b3:8d
        Signature Algorithm: sha256WithRSAEncryption
        Issuer: CN=team43-net
        Validity
            Not Before: Nov  4 11:28:13 2023 GMT
            Not After : Oct 19 11:28:13 2026 GMT
        Subject: CN=team43-server
        Subject Public Key Info:
            Public Key Algorithm: rsaEncryption
                Public-Key: (2048 bit)
                Modulus:
                    00:a4:3e:98:ad:90:5f:70:62:c5:3b:3a:df:29:ca:
                    a9:2c:4f:72:d2:f3:6f:95:2c:40:3f:9e:92:12:d4:
                    a1:ab:e9:c5:f3:50:bc:02:10:40:12:8f:9a:c0:7f:
                    30:cd:b3:a6:f8:d6:bf:83:a6:19:ed:85:7e:4b:45:
                    ca:45:77:58:df:c8:d8:a8:56:0e:2b:11:82:4e:84:
                    1a:bb:c4:5e:08:f5:1d:04:b2:d2:76:a7:55:e1:cd:
                    12:2f:1c:e3:28:a5:a8:f8:2a:79:fa:87:61:a2:a1:
                    46:2b:04:20:50:b1:25:a2:06:18:5c:82:09:95:ff:
                    4c:db:1a:d4:ec:42:50:fc:c7:c7:49:55:f3:e8:6e:
                    62:9a:60:50:1b:82:26:9e:b0:4e:68:ab:da:c3:95:
                    59:48:b9:83:03:47:e6:ea:b9:a6:28:d5:cd:f2:05:
                    f5:61:be:97:10:0f:a6:7a:0e:4d:42:8c:df:d8:b7:
                    a5:cd:dd:50:1c:fc:d4:1d:01:c4:5e:23:92:86:af:
                    f7:09:35:4c:3f:42:37:bb:f9:3c:ec:7c:3b:89:67:
                    84:0b:30:d8:d5:e4:54:91:8e:c2:85:00:bd:b4:10:
                    08:07:23:94:48:da:d8:e5:e4:9d:b5:5d:c5:d2:94:
                    f0:bd:58:20:e2:e5:83:d7:fc:20:cf:4d:b9:f6:1c:
                    c8:07
                Exponent: 65537 (0x10001)
        X509v3 extensions:
            X509v3 Basic Constraints: 
                CA:FALSE
            X509v3 Subject Key Identifier: 
                72:73:05:1F:57:83:4E:CD:6B:AF:90:30:24:30:E5:6C:5F:E0:10:50
            X509v3 Authority Key Identifier: 
                keyid:13:8C:60:50:38:3C:3B:EA:78:7A:81:16:E5:FD:1D:F5:4B:CA:D1:C4
                DirName:/CN=team43-net
                serial:4B:B7:4D:43:7A:43:E4:84:C5:62:75:5C:E3:69:72:57:90:7A:C6:D5
            X509v3 Extended Key Usage: 
                TLS Web Server Authentication
            X509v3 Key Usage: 
                Digital Signature, Key Encipherment
            X509v3 Subject Alternative Name: 
                DNS:team43-server
    Signature Algorithm: sha256WithRSAEncryption
    Signature Value:
        68:ba:0c:7b:74:41:cf:27:7b:03:76:54:74:b4:e6:d1:16:57:
        50:0a:60:48:d9:7a:0c:d9:91:1f:f2:ad:c8:e5:8f:1c:22:3b:
        f5:cf:87:44:47:90:8e:86:4e:88:90:9d:a1:e2:3b:42:3d:cb:
        25:43:e1:3c:2e:1e:d2:f5:1d:c4:d3:08:59:e7:30:61:7a:12:
        52:9f:05:0c:91:32:a9:41:1a:8f:17:59:f1:c5:b1:79:b5:d0:
        09:63:b5:a9:07:b8:38:bf:5e:04:e5:ea:fc:c6:5f:e7:39:43:
        f7:4c:82:85:87:76:9c:ae:0f:de:1a:c4:46:09:7c:0c:ac:37:
        8f:99:5a:d6:dc:08:2b:a2:45:92:e5:11:63:51:f2:24:62:a5:
        f6:d7:50:cc:07:fe:2f:aa:6d:f9:98:2c:b4:69:31:90:c6:3c:
        f4:2a:e1:91:72:dd:2c:b6:49:d6:01:df:c5:dd:59:b3:e8:a3:
        15:c6:c6:78:66:2c:34:44:9c:88:d1:ee:a5:e1:27:21:33:9e:
        1b:c1:c7:90:a2:76:19:3e:98:df:3d:af:01:9a:00:68:28:61:
        4c:5a:08:ab:7e:b0:ec:9b:65:ae:ac:bb:d1:a7:e3:db:3f:90:
        42:aa:00:d1:21:5c:0c:43:a1:17:a2:d5:ea:37:84:d7:e5:6c:
        eb:73:3e:ba
-----BEGIN CERTIFICATE-----
MIIDczCCAlugAwIBAgIQeXmWA9k0EZjuAS3Mnz6zjTANBgkqhkiG9w0BAQsFADAV
MRMwEQYDVQQDDAp0ZWFtNDMtbmV0MB4XDTIzMTEwNDExMjgxM1oXDTI2MTAxOTEx
MjgxM1owGDEWMBQGA1UEAwwNdGVhbTQzLXNlcnZlcjCCASIwDQYJKoZIhvcNAQEB
BQADggEPADCCAQoCggEBAKQ+mK2QX3BixTs63ynKqSxPctLzb5UsQD+ekhLUoavp
xfNQvAIQQBKPmsB/MM2zpvjWv4OmGe2FfktFykV3WN/I2KhWDisRgk6EGrvEXgj1
HQSy0nanVeHNEi8c4yilqPgqefqHYaKhRisEIFCxJaIGGFyCCZX/TNsa1OxCUPzH
x0lV8+huYppgUBuCJp6wTmir2sOVWUi5gwNH5uq5pijVzfIF9WG+lxAPpnoOTUKM
39i3pc3dUBz81B0BxF4jkoav9wk1TD9CN7v5POx8O4lnhAsw2NXkVJGOwoUAvbQQ
CAcjlEja2OXknbVdxdKU8L1YIOLlg9f8IM9NufYcyAcCAwEAAaOBuzCBuDAJBgNV
HRMEAjAAMB0GA1UdDgQWBBRycwUfV4NOzWuvkDAkMOVsX+AQUDBQBgNVHSMESTBH
gBQTjGBQODw76nh6gRbl/R31S8rRxKEZpBcwFTETMBEGA1UEAwwKdGVhbTQzLW5l
dIIUS7dNQ3pD5ITFYnVc42lyV5B6xtUwEwYDVR0lBAwwCgYIKwYBBQUHAwEwCwYD
VR0PBAQDAgWgMBgGA1UdEQQRMA+CDXRlYW00My1zZXJ2ZXIwDQYJKoZIhvcNAQEL
BQADggEBAGi6DHt0Qc8newN2VHS05tEWV1AKYEjZegzZkR/yrcjljxwiO/XPh0RH
kI6GToiQnaHiO0I9yyVD4TwuHtL1HcTTCFnnMGF6ElKfBQyRMqlBGo8XWfHFsXm1
0AljtakHuDi/XgTl6vzGX+c5Q/dMgoWHdpyuD94axEYJfAysN4+ZWtbcCCuiRZLl
EWNR8iRipfbXUMwH/i+qbfmYLLRpMZDGPPQq4ZFy3Sy2SdYB38XdWbPooxXGxnhm
LDREnIjR7qXhJyEznhvBx5Cidhk+mN89rwGaAGgoYUxaCKt+sOybZa6su9Gn49s/
kEKqANEhXAxDoRei1eo3hNflbOtzPro=
-----END CERTIFICATE-----
