Certificate:
    Data:
        Version: 3 (0x2)
        Serial Number:
            ed:36:94:35:4c:6e:3b:a6:11:b8:56:38:6f:d7:18:2d
        Signature Algorithm: sha256WithRSAEncryption
        Issuer: CN=team43-net
        Validity
            Not Before: Nov  4 11:28:12 2023 GMT
            Not After : Oct 19 11:28:12 2026 GMT
        Subject: CN=team43-client
        Subject Public Key Info:
            Public Key Algorithm: rsaEncryption
                Public-Key: (2048 bit)
                Modulus:
                    00:e6:18:85:ea:16:4f:3e:52:6e:1c:2c:1e:77:da:
                    31:c6:69:3c:f6:56:b8:39:40:e8:af:77:0a:3f:1c:
                    a4:bd:9d:a4:bb:b2:23:ab:e7:9a:75:09:14:30:05:
                    a0:6e:3b:a3:26:97:4d:14:27:7d:02:a5:0e:41:53:
                    88:9b:58:24:61:06:81:02:d6:60:9d:98:8f:3d:96:
                    a3:7b:51:a5:8e:08:7b:00:48:1d:d9:ce:bc:0f:e5:
                    da:b8:60:d4:fc:1f:6d:a2:c6:10:7e:01:fb:59:25:
                    3d:55:75:67:65:f1:fa:16:13:20:30:24:55:63:fc:
                    11:dc:7a:95:48:a5:a6:a5:bf:2a:9c:3c:e6:ae:24:
                    3f:48:71:d8:5d:07:1e:2c:fc:16:3b:e5:33:0d:f6:
                    f8:7c:93:b0:e9:34:50:46:46:65:34:f4:49:af:27:
                    b0:18:96:a5:a4:1d:df:19:ea:86:7c:83:fe:5d:aa:
                    be:df:10:eb:7c:0f:61:cf:48:3e:bb:c4:18:da:3f:
                    46:b3:33:6b:a9:ef:c7:29:b5:fe:ee:d6:a6:f5:29:
                    d7:6a:6f:d5:49:af:c6:45:55:d1:0c:a7:5c:15:e1:
                    c1:80:80:25:98:75:54:c3:7a:9e:1f:04:98:eb:1e:
                    02:b7:34:87:48:46:fb:e9:46:da:67:58:9d:19:f6:
                    bb:cd
                Exponent: 65537 (0x10001)
        X509v3 extensions:
            X509v3 Basic Constraints: 
                CA:FALSE
            X509v3 Subject Key Identifier: 
                FF:9A:7E:08:BD:B0:52:FE:23:4F:67:22:95:67:12:0D:00:38:6E:49
            X509v3 Authority Key Identifier: 
                keyid:13:8C:60:50:38:3C:3B:EA:78:7A:81:16:E5:FD:1D:F5:4B:CA:D1:C4
                DirName:/CN=team43-net
                serial:4B:B7:4D:43:7A:43:E4:84:C5:62:75:5C:E3:69:72:57:90:7A:C6:D5
            X509v3 Extended Key Usage: 
                TLS Web Client Authentication
            X509v3 Key Usage: 
                Digital Signature
    Signature Algorithm: sha256WithRSAEncryption
    Signature Value:
        a2:80:67:77:84:58:5c:0c:36:a4:7d:58:5d:f6:eb:63:b2:13:
        7b:90:d0:d8:9f:39:6a:eb:db:26:6c:74:42:88:0e:3d:72:6c:
        d1:7d:9b:b7:38:45:27:60:85:09:09:e6:ff:66:ad:ba:95:fc:
        ce:85:65:0a:46:42:b8:41:3b:80:ad:8d:d3:93:f3:99:43:50:
        16:4e:c6:8e:8b:15:b7:d5:8a:bd:c8:e1:59:01:d5:b3:07:d9:
        6b:f9:bc:b8:76:fc:4f:c7:ca:02:21:39:cb:11:8e:7d:37:dc:
        96:65:21:d8:e6:75:d7:a0:b8:bf:f0:9d:66:d6:67:a7:0b:8b:
        51:4f:13:fa:a3:b8:97:f1:d6:b7:e0:49:e8:1b:e5:22:53:60:
        9c:6b:eb:81:ba:02:19:3d:64:43:48:7f:89:1b:9c:a0:e3:91:
        d3:be:fe:48:0c:b7:dd:23:41:6b:ce:05:67:d5:0f:50:cc:31:
        ff:72:9b:f6:f4:a8:d7:71:c1:3c:d8:56:03:02:f6:13:91:14:
        bb:f4:d0:3a:8b:ec:18:e7:45:e8:9f:52:7c:b8:60:69:97:f5:
        27:80:32:73:a7:88:66:ec:74:d6:22:87:60:9a:82:60:d6:72:
        3f:f0:28:41:f6:4a:ec:e3:47:7c:44:64:21:dc:6b:58:20:b3:
        97:6c:04:cc
-----BEGIN CERTIFICATE-----
MIIDWjCCAkKgAwIBAgIRAO02lDVMbjumEbhWOG/XGC0wDQYJKoZIhvcNAQELBQAw
FTETMBEGA1UEAwwKdGVhbTQzLW5ldDAeFw0yMzExMDQxMTI4MTJaFw0yNjEwMTkx
MTI4MTJaMBgxFjAUBgNVBAMMDXRlYW00My1jbGllbnQwggEiMA0GCSqGSIb3DQEB
AQUAA4IBDwAwggEKAoIBAQDmGIXqFk8+Um4cLB532jHGaTz2Vrg5QOivdwo/HKS9
naS7siOr55p1CRQwBaBuO6Mml00UJ30CpQ5BU4ibWCRhBoEC1mCdmI89lqN7UaWO
CHsASB3ZzrwP5dq4YNT8H22ixhB+AftZJT1VdWdl8foWEyAwJFVj/BHcepVIpaal
vyqcPOauJD9IcdhdBx4s/BY75TMN9vh8k7DpNFBGRmU09EmvJ7AYlqWkHd8Z6oZ8
g/5dqr7fEOt8D2HPSD67xBjaP0azM2up78cptf7u1qb1Kddqb9VJr8ZFVdEMp1wV
4cGAgCWYdVTDep4fBJjrHgK3NIdIRvvpRtpnWJ0Z9rvNAgMBAAGjgaEwgZ4wCQYD
VR0TBAIwADAdBgNVHQ4EFgQU/5p+CL2wUv4jT2cilWcSDQA4bkkwUAYDVR0jBEkw
R4AUE4xgUDg8O+p4eoEW5f0d9UvK0cShGaQXMBUxEzARBgNVBAMMCnRlYW00My1u
ZXSCFEu3TUN6Q+SExWJ1XONpcleQesbVMBMGA1UdJQQMMAoGCCsGAQUFBwMCMAsG
A1UdDwQEAwIHgDANBgkqhkiG9w0BAQsFAAOCAQEAooBnd4RYXAw2pH1YXfbrY7IT
e5DQ2J85auvbJmx0QogOPXJs0X2btzhFJ2CFCQnm/2atupX8zoVlCkZCuEE7gK2N
05PzmUNQFk7GjosVt9WKvcjhWQHVswfZa/m8uHb8T8fKAiE5yxGOfTfclmUh2OZ1
16C4v/CdZtZnpwuLUU8T+qO4l/HWt+BJ6BvlIlNgnGvrgboCGT1kQ0h/iRucoOOR
077+SAy33SNBa84FZ9UPUMwx/3Kb9vSo13HBPNhWAwL2E5EUu/TQOovsGOdF6J9S
fLhgaZf1J4Ayc6eIZux01iKHYJqCYNZyP/AoQfZK7ONHfERkIdxrWCCzl2wEzA==
-----END CERTIFICATE-----
