Certificate:
    Data:
        Version: 3 (0x2)
        Serial Number:
            91:18:6a:17:f9:cc:11:6a:d5:cb:9c:3a:2c:0f:0a:71
        Signature Algorithm: sha256WithRSAEncryption
        Issuer: CN=team187-net
        Validity
            Not Before: Nov  3 20:42:40 2023 GMT
            Not After : Oct 18 20:42:40 2026 GMT
        Subject: CN=team187-server
        Subject Public Key Info:
            Public Key Algorithm: rsaEncryption
                Public-Key: (2048 bit)
                Modulus:
                    00:d8:19:13:e2:21:bf:07:59:fe:70:f6:0c:3b:26:
                    e1:53:6e:55:52:d7:ea:8c:0c:a4:c0:10:58:d3:6f:
                    1d:cd:27:7f:44:4b:d6:0a:c1:5b:f9:67:06:e9:ed:
                    e3:d0:80:67:7c:e7:52:bd:09:7d:d1:88:1c:0a:81:
                    b5:ac:a4:e2:0f:f3:21:ad:1d:ce:96:61:4b:5b:1a:
                    e0:14:7a:a3:3c:87:22:6a:97:d9:5e:df:a3:48:e9:
                    25:90:40:b7:1e:73:7f:05:ed:21:97:6b:2d:7b:f1:
                    a1:78:e3:e2:a1:5e:82:8f:4d:e6:f1:1f:a1:cd:cd:
                    9b:09:74:59:b7:8e:b2:30:a1:0b:a3:95:ba:38:ae:
                    4b:d4:37:60:aa:66:1d:32:0a:5e:35:97:5a:3e:ad:
                    20:d3:a6:a8:e5:33:3c:7e:cc:a2:a2:8c:c2:7a:f1:
                    ce:d1:df:ba:bf:e9:9a:b3:32:11:12:6c:03:a2:7d:
                    5f:7e:1d:05:57:40:17:35:01:61:ee:b4:5b:ed:68:
                    8a:11:16:70:68:2c:4d:f0:59:ef:ca:b0:15:30:7d:
                    e1:bd:11:70:a0:45:62:aa:96:0d:c4:e5:18:ce:ee:
                    7d:a6:d8:43:ca:3c:00:a4:2f:3b:2b:42:51:f1:65:
                    b6:64:b0:fa:bb:f3:eb:b1:1d:68:1f:16:59:d3:4d:
                    fc:b7
                Exponent: 65537 (0x10001)
        X509v3 extensions:
            X509v3 Basic Constraints: 
                CA:FALSE
            X509v3 Subject Key Identifier: 
                48:B4:7A:A0:38:2B:7E:73:2B:23:65:F7:24:73:EC:43:9B:56:87:CC
            X509v3 Authority Key Identifier: 
                keyid:C5:29:5B:83:04:70:05:1B:69:3D:E8:6F:90:31:0B:27:4A:D3:02:E3
                DirName:/CN=team187-net
                serial:53:24:79:1A:0C:1A:B8:5A:BD:37:50:F2:0B:EF:5D:3B:D1:80:D0:4F
            X509v3 Extended Key Usage: 
                TLS Web Server Authentication
            X509v3 Key Usage: 
                Digital Signature, Key Encipherment
            X509v3 Subject Alternative Name: 
                DNS:team187-server
    Signature Algorithm: sha256WithRSAEncryption
    Signature Value:
        25:81:5d:f7:41:91:d3:2b:a9:6f:92:f2:55:2b:55:0f:4a:47:
        03:cc:33:99:ea:f1:70:b6:e8:d1:45:44:2e:76:8d:66:80:15:
        66:e9:c3:0d:99:69:28:8e:54:d2:a2:23:b2:a7:77:04:f5:fd:
        22:f0:10:90:2d:ca:4e:30:7b:17:e1:50:79:e2:8c:77:92:7b:
        11:37:b9:4e:33:cb:eb:eb:d8:7c:10:7b:6b:b2:11:7c:a6:0b:
        78:34:66:d3:e5:d4:b2:67:2d:a2:7a:7d:b5:a2:41:6a:54:f7:
        e1:6e:d4:d6:98:62:f2:30:6f:52:5f:20:cd:52:74:4a:1c:bb:
        da:ac:45:88:de:a3:2d:b9:f3:1c:7a:cc:b6:6e:93:7c:2b:e2:
        3c:94:74:ad:e3:85:88:81:c8:f2:e0:1d:6f:ce:f4:63:08:80:
        b5:44:13:1a:f8:b5:aa:e3:1e:eb:d7:fd:1d:7f:35:b4:98:f1:
        c4:31:1a:65:b4:48:c7:82:84:8a:91:f2:ac:26:e3:ef:a7:1a:
        31:14:a4:ea:70:35:6e:eb:72:78:99:9a:09:ac:30:a6:42:ad:
        f9:1f:df:57:70:af:07:72:eb:3f:ae:73:28:af:4a:c1:b7:66:
        45:4a:06:be:d7:e6:b7:5e:e3:f4:0f:4c:cd:92:f5:e7:4b:52:
        af:43:8d:22
-----BEGIN CERTIFICATE-----
MIIDeDCCAmCgAwIBAgIRAJEYahf5zBFq1cucOiwPCnEwDQYJKoZIhvcNAQELBQAw
FjEUMBIGA1UEAwwLdGVhbTE4Ny1uZXQwHhcNMjMxMTAzMjA0MjQwWhcNMjYxMDE4
MjA0MjQwWjAZMRcwFQYDVQQDDA50ZWFtMTg3LXNlcnZlcjCCASIwDQYJKoZIhvcN
AQEBBQADggEPADCCAQoCggEBANgZE+IhvwdZ/nD2DDsm4VNuVVLX6owMpMAQWNNv
Hc0nf0RL1grBW/lnBunt49CAZ3znUr0JfdGIHAqBtayk4g/zIa0dzpZhS1sa4BR6
ozyHImqX2V7fo0jpJZBAtx5zfwXtIZdrLXvxoXjj4qFego9N5vEfoc3Nmwl0WbeO
sjChC6OVujiuS9Q3YKpmHTIKXjWXWj6tINOmqOUzPH7MoqKMwnrxztHfur/pmrMy
ERJsA6J9X34dBVdAFzUBYe60W+1oihEWcGgsTfBZ78qwFTB94b0RcKBFYqqWDcTl
GM7ufabYQ8o8AKQvOytCUfFltmSw+rvz67EdaB8WWdNN/LcCAwEAAaOBvTCBujAJ
BgNVHRMEAjAAMB0GA1UdDgQWBBRItHqgOCt+cysjZfckc+xDm1aHzDBRBgNVHSME
SjBIgBTFKVuDBHAFG2k96G+QMQsnStMC46EapBgwFjEUMBIGA1UEAwwLdGVhbTE4
Ny1uZXSCFFMkeRoMGrhavTdQ8gvvXTvRgNBPMBMGA1UdJQQMMAoGCCsGAQUFBwMB
MAsGA1UdDwQEAwIFoDAZBgNVHREEEjAQgg50ZWFtMTg3LXNlcnZlcjANBgkqhkiG
9w0BAQsFAAOCAQEAJYFd90GR0yupb5LyVStVD0pHA8wzmerxcLbo0UVELnaNZoAV
ZunDDZlpKI5U0qIjsqd3BPX9IvAQkC3KTjB7F+FQeeKMd5J7ETe5TjPL6+vYfBB7
a7IRfKYLeDRm0+XUsmctonp9taJBalT34W7U1phi8jBvUl8gzVJ0Shy72qxFiN6j
LbnzHHrMtm6TfCviPJR0reOFiIHI8uAdb870YwiAtUQTGvi1quMe69f9HX81tJjx
xDEaZbRIx4KEipHyrCbj76caMRSk6nA1butyeJmaCawwpkKt+R/fV3CvB3LrP65z
KK9KwbdmRUoGvtfmt17j9A9MzZL150tSr0ONIg==
-----END CERTIFICATE-----
