Certificate:
    Data:
        Version: 3 (0x2)
        Serial Number:
            32:22:19:83:57:2f:de:93:c8:47:bf:d8:b2:6f:05:a2
        Signature Algorithm: sha256WithRSAEncryption
        Issuer: CN=team159-net
        Validity
            Not Before: Nov  4 11:30:45 2023 GMT
            Not After : Oct 19 11:30:45 2026 GMT
        Subject: CN=team159-server
        Subject Public Key Info:
            Public Key Algorithm: rsaEncryption
                Public-Key: (2048 bit)
                Modulus:
                    00:cc:ce:bd:bd:f9:7b:7e:0f:5f:04:94:16:02:03:
                    2b:ce:6d:df:6f:43:4b:30:1d:36:7a:0f:5c:bc:91:
                    25:32:91:0d:6a:1b:11:e5:6d:7b:64:f0:2d:b6:f9:
                    6a:0a:9e:7d:03:f5:8e:1b:e5:cf:7c:14:e5:38:f4:
                    4a:10:c2:9c:39:b8:85:bd:98:48:5f:97:bf:80:72:
                    fa:c5:55:11:20:99:7b:92:87:d9:b1:89:c1:3f:58:
                    db:b8:c1:c7:f0:65:ae:45:44:91:0c:d0:a0:7a:b1:
                    46:cf:06:5d:d9:e0:87:64:ef:45:ca:9f:52:ad:9d:
                    d3:df:8f:ce:12:ad:63:20:d2:61:cb:78:e6:27:d0:
                    ea:57:a8:bb:a0:5c:ae:b1:f8:fa:30:22:4f:25:7d:
                    55:4c:0f:39:2e:1d:97:a5:40:d4:ef:29:3d:6e:c8:
                    55:cb:fc:8a:01:cc:e2:15:50:46:6f:1b:65:42:6d:
                    d7:e3:40:e4:e8:0d:56:74:40:a9:0e:05:4b:89:b9:
                    08:b7:35:d3:c2:e9:9d:b9:59:71:98:cc:e0:ab:59:
                    64:5b:87:f4:d5:b7:01:24:42:44:e1:8a:69:d0:71:
                    d7:f7:df:14:ac:7a:2b:d4:e3:a8:e6:3b:fd:5d:cf:
                    79:bc:28:bd:9c:96:f9:7e:ca:2f:aa:69:27:c2:b1:
                    8c:81
                Exponent: 65537 (0x10001)
        X509v3 extensions:
            X509v3 Basic Constraints: 
                CA:FALSE
            X509v3 Subject Key Identifier: 
                09:D9:03:35:7A:A7:9D:96:E3:D5:B5:78:2F:55:01:3B:28:90:EC:8B
            X509v3 Authority Key Identifier: 
                keyid:FB:5B:C1:E8:80:50:3B:09:81:B6:06:E1:66:7F:00:25:08:8A:E9:74
                DirName:/CN=team159-net
                serial:0E:E6:B8:75:A0:49:25:17:9E:FE:76:E4:60:FD:AC:3A:C5:46:C5:5A
            X509v3 Extended Key Usage: 
                TLS Web Server Authentication
            X509v3 Key Usage: 
                Digital Signature, Key Encipherment
            X509v3 Subject Alternative Name: 
                DNS:team159-server
    Signature Algorithm: sha256WithRSAEncryption
    Signature Value:
        1d:c2:15:95:55:8a:24:ef:06:37:e7:13:6b:8d:e2:58:f0:e3:
        96:9c:90:5f:63:e9:9a:32:9d:b0:90:6e:25:5e:fd:ac:ca:4d:
        18:69:51:26:5f:84:28:be:4f:01:a8:f3:f3:17:a7:8b:45:55:
        4b:f6:61:5c:69:ca:8d:28:df:fc:65:4d:fd:60:bf:c7:e2:e1:
        be:f7:59:62:f7:80:9b:e5:7a:f6:c1:aa:ed:4d:f5:eb:36:dc:
        d2:22:8e:26:d0:c2:c8:ef:58:8c:b7:7f:d8:34:42:8c:a6:a4:
        a6:b2:10:53:4d:a9:95:c1:d9:fb:39:bf:d0:99:be:3c:3f:7c:
        b9:56:bf:33:f7:39:97:b0:6a:ea:4e:10:22:92:12:8f:44:d7:
        78:99:ad:9b:72:cd:5c:bf:54:94:b9:30:8c:08:4e:61:b1:04:
        49:89:04:61:2c:2e:0d:ab:fa:df:37:4e:cc:b3:2e:0e:be:46:
        db:f1:86:04:68:67:99:50:db:7a:e7:05:16:ec:79:9f:60:8a:
        91:37:7e:77:d4:64:fb:cc:ee:23:39:bf:ba:d9:45:e5:45:50:
        67:a7:5e:53:4c:61:21:36:54:70:57:56:8a:db:3c:c6:f3:eb:
        c0:2f:81:42:97:48:eb:01:45:2e:96:99:cb:16:ca:57:92:c9:
        59:d1:90:00
-----BEGIN CERTIFICATE-----
MIIDdzCCAl+gAwIBAgIQMiIZg1cv3pPIR7/Ysm8FojANBgkqhkiG9w0BAQsFADAW
MRQwEgYDVQQDDAt0ZWFtMTU5LW5ldDAeFw0yMzExMDQxMTMwNDVaFw0yNjEwMTkx
MTMwNDVaMBkxFzAVBgNVBAMMDnRlYW0xNTktc2VydmVyMIIBIjANBgkqhkiG9w0B
AQEFAAOCAQ8AMIIBCgKCAQEAzM69vfl7fg9fBJQWAgMrzm3fb0NLMB02eg9cvJEl
MpENahsR5W17ZPAttvlqCp59A/WOG+XPfBTlOPRKEMKcObiFvZhIX5e/gHL6xVUR
IJl7kofZsYnBP1jbuMHH8GWuRUSRDNCgerFGzwZd2eCHZO9Fyp9SrZ3T34/OEq1j
INJhy3jmJ9DqV6i7oFyusfj6MCJPJX1VTA85Lh2XpUDU7yk9bshVy/yKAcziFVBG
bxtlQm3X40Dk6A1WdECpDgVLibkItzXTwumduVlxmMzgq1lkW4f01bcBJEJE4Ypp
0HHX998UrHor1OOo5jv9Xc95vCi9nJb5fsovqmknwrGMgQIDAQABo4G9MIG6MAkG
A1UdEwQCMAAwHQYDVR0OBBYEFAnZAzV6p52W49W1eC9VATsokOyLMFEGA1UdIwRK
MEiAFPtbweiAUDsJgbYG4WZ/ACUIiul0oRqkGDAWMRQwEgYDVQQDDAt0ZWFtMTU5
LW5ldIIUDua4daBJJRee/nbkYP2sOsVGxVowEwYDVR0lBAwwCgYIKwYBBQUHAwEw
CwYDVR0PBAQDAgWgMBkGA1UdEQQSMBCCDnRlYW0xNTktc2VydmVyMA0GCSqGSIb3
DQEBCwUAA4IBAQAdwhWVVYok7wY35xNrjeJY8OOWnJBfY+maMp2wkG4lXv2syk0Y
aVEmX4Qovk8BqPPzF6eLRVVL9mFcacqNKN/8ZU39YL/H4uG+91li94Cb5Xr2wart
TfXrNtzSIo4m0MLI71iMt3/YNEKMpqSmshBTTamVwdn7Ob/Qmb48P3y5Vr8z9zmX
sGrqThAikhKPRNd4ma2bcs1cv1SUuTCMCE5hsQRJiQRhLC4Nq/rfN07Msy4Ovkbb
8YYEaGeZUNt65wUW7HmfYIqRN3531GT7zO4jOb+62UXlRVBnp15TTGEhNlRwV1aK
2zzG8+vAL4FCl0jrAUUulpnLFspXkslZ0ZAA
-----END CERTIFICATE-----
