Certificate:
    Data:
        Version: 3 (0x2)
        Serial Number:
            5b:b2:7c:a0:a0:b6:47:5a:5b:04:82:27:b6:b5:4b:cd
        Signature Algorithm: sha256WithRSAEncryption
        Issuer: CN=team159-net
        Validity
            Not Before: Nov  4 11:30:45 2023 GMT
            Not After : Oct 19 11:30:45 2026 GMT
        Subject: CN=team159-client
        Subject Public Key Info:
            Public Key Algorithm: rsaEncryption
                Public-Key: (2048 bit)
                Modulus:
                    00:c8:e8:eb:41:27:a0:2b:c1:69:ff:a7:69:52:aa:
                    22:1d:df:e0:7f:43:bf:39:9d:54:f7:f9:c3:88:48:
                    db:af:88:54:c8:b5:3c:35:53:c9:b2:3b:cb:a9:69:
                    ba:b9:1c:3c:51:64:9f:9d:74:8d:90:18:49:19:1b:
                    fc:70:91:f6:d1:10:64:fe:f5:29:33:e8:c7:93:c3:
                    5c:bb:e6:59:75:ac:14:27:41:68:09:19:6b:a6:26:
                    7f:ec:e8:e0:8e:07:4d:78:21:b5:06:3e:4e:87:3b:
                    d2:08:70:89:7d:38:b9:72:2b:61:27:5c:28:d8:54:
                    53:bd:e1:27:76:5c:c4:d8:f0:74:b6:a9:c1:9b:3e:
                    68:ae:c0:bb:69:a5:91:47:63:d7:16:3a:ae:89:c7:
                    ba:02:19:b0:39:13:77:f1:53:c7:4d:d4:53:ec:14:
                    01:4d:37:1b:8c:5e:ea:21:a2:a0:9d:8e:64:2b:c9:
                    d6:39:74:41:04:77:35:d9:21:96:82:9a:48:da:3b:
                    5f:32:9c:93:be:53:f8:f0:16:a8:fd:bd:a4:d8:e7:
                    b3:33:5f:9c:60:d0:a7:b0:33:63:12:c8:be:97:b0:
                    ed:73:ed:31:a8:8a:42:67:b7:84:b4:72:75:10:23:
                    51:cf:f4:ed:b4:49:fc:6e:d0:13:0d:ab:d4:48:6c:
                    0a:e5
                Exponent: 65537 (0x10001)
        X509v3 extensions:
            X509v3 Basic Constraints: 
                CA:FALSE
            X509v3 Subject Key Identifier: 
                22:27:6F:5E:7F:62:7F:57:5D:20:27:7E:75:B0:D8:3B:56:54:56:EC
            X509v3 Authority Key Identifier: 
                keyid:FB:5B:C1:E8:80:50:3B:09:81:B6:06:E1:66:7F:00:25:08:8A:E9:74
                DirName:/CN=team159-net
                serial:0E:E6:B8:75:A0:49:25:17:9E:FE:76:E4:60:FD:AC:3A:C5:46:C5:5A
            X509v3 Extended Key Usage: 
                TLS Web Client Authentication
            X509v3 Key Usage: 
                Digital Signature
    Signature Algorithm: sha256WithRSAEncryption
    Signature Value:
        20:09:99:d2:59:ba:27:6a:5f:73:7a:a6:ef:64:69:ab:6a:f7:
        34:4d:77:e5:32:30:41:34:36:58:5c:04:eb:09:4b:d4:1a:0f:
        4b:5b:e4:ff:46:c6:60:31:16:2c:e7:7a:45:31:c7:9c:9c:00:
        a2:b9:58:5f:45:6e:27:64:2e:38:c7:d2:1d:82:3b:9c:14:e6:
        68:74:ce:1c:c8:09:07:6c:cd:06:e0:65:c9:eb:c0:90:2d:ad:
        7d:f1:f6:82:b8:dc:75:da:7d:d8:b6:3e:f3:76:80:2b:4d:e4:
        37:fd:e4:b2:aa:e8:ba:ca:0e:92:de:0d:b2:8b:cc:8a:de:e4:
        fe:06:51:f8:01:73:50:ef:a3:d1:56:af:d1:00:3a:af:7c:a4:
        8f:1d:a9:67:c8:01:17:2c:21:40:10:02:ac:fd:24:43:b7:3f:
        bd:e3:eb:40:8e:be:ea:c8:29:46:05:c8:cc:bc:3a:a9:31:00:
        c1:e5:cb:37:61:ee:c0:62:94:ee:1a:c3:e3:c8:bc:21:d9:7d:
        d5:1f:61:60:73:be:72:5d:47:aa:55:df:4a:88:43:69:a7:cc:
        60:30:58:77:72:d4:68:d8:82:f7:62:34:36:da:19:01:34:0d:
        21:34:61:40:74:36:a3:da:94:be:d6:fc:b5:06:4f:9e:37:fb:
        ab:02:05:34
-----BEGIN CERTIFICATE-----
MIIDXDCCAkSgAwIBAgIQW7J8oKC2R1pbBIIntrVLzTANBgkqhkiG9w0BAQsFADAW
MRQwEgYDVQQDDAt0ZWFtMTU5LW5ldDAeFw0yMzExMDQxMTMwNDVaFw0yNjEwMTkx
MTMwNDVaMBkxFzAVBgNVBAMMDnRlYW0xNTktY2xpZW50MIIBIjANBgkqhkiG9w0B
AQEFAAOCAQ8AMIIBCgKCAQEAyOjrQSegK8Fp/6dpUqoiHd/gf0O/OZ1U9/nDiEjb
r4hUyLU8NVPJsjvLqWm6uRw8UWSfnXSNkBhJGRv8cJH20RBk/vUpM+jHk8Ncu+ZZ
dawUJ0FoCRlrpiZ/7OjgjgdNeCG1Bj5OhzvSCHCJfTi5cithJ1wo2FRTveEndlzE
2PB0tqnBmz5orsC7aaWRR2PXFjquice6AhmwORN38VPHTdRT7BQBTTcbjF7qIaKg
nY5kK8nWOXRBBHc12SGWgppI2jtfMpyTvlP48Bao/b2k2OezM1+cYNCnsDNjEsi+
l7Dtc+0xqIpCZ7eEtHJ1ECNRz/TttEn8btATDavUSGwK5QIDAQABo4GiMIGfMAkG
A1UdEwQCMAAwHQYDVR0OBBYEFCInb15/Yn9XXSAnfnWw2DtWVFbsMFEGA1UdIwRK
MEiAFPtbweiAUDsJgbYG4WZ/ACUIiul0oRqkGDAWMRQwEgYDVQQDDAt0ZWFtMTU5
LW5ldIIUDua4daBJJRee/nbkYP2sOsVGxVowEwYDVR0lBAwwCgYIKwYBBQUHAwIw
CwYDVR0PBAQDAgeAMA0GCSqGSIb3DQEBCwUAA4IBAQAgCZnSWbonal9zeqbvZGmr
avc0TXflMjBBNDZYXATrCUvUGg9LW+T/RsZgMRYs53pFMcecnACiuVhfRW4nZC44
x9IdgjucFOZodM4cyAkHbM0G4GXJ68CQLa198faCuNx12n3Ytj7zdoArTeQ3/eSy
qui6yg6S3g2yi8yK3uT+BlH4AXNQ76PRVq/RADqvfKSPHalnyAEXLCFAEAKs/SRD
tz+94+tAjr7qyClGBcjMvDqpMQDB5cs3Ye7AYpTuGsPjyLwh2X3VH2Fgc75yXUeq
Vd9KiENpp8xgMFh3ctRo2IL3YjQ22hkBNA0hNGFAdDaj2pS+1vy1Bk+eN/urAgU0
-----END CERTIFICATE-----
