Certificate:
    Data:
        Version: 3 (0x2)
        Serial Number:
            c6:69:13:f0:7d:11:2b:b4:30:f7:bb:bb:68:ae:56:12
        Signature Algorithm: sha256WithRSAEncryption
        Issuer: CN=team159-net
        Validity
            Not Before: Nov  4 10:43:30 2023 GMT
            Not After : Oct 19 10:43:30 2026 GMT
        Subject: CN=team159-server
        Subject Public Key Info:
            Public Key Algorithm: rsaEncryption
                Public-Key: (2048 bit)
                Modulus:
                    00:e2:77:2b:39:9c:90:04:d3:45:5c:9f:94:16:da:
                    d3:b2:5c:db:ef:fd:ed:33:04:d5:8b:ff:1e:2d:b1:
                    24:6a:62:86:f6:5d:ae:c0:e7:c3:09:39:a1:8a:e2:
                    d7:94:7b:8e:fc:6d:4b:df:0f:34:af:cb:67:7a:a9:
                    e3:19:2d:26:09:a9:24:de:4a:79:6b:7b:dd:5d:f0:
                    bf:9a:25:7b:37:53:b3:01:72:c3:8e:71:45:6f:a3:
                    93:2d:4d:11:97:7a:d9:e4:3a:21:52:64:2a:5f:09:
                    fb:3f:a3:31:3c:52:d3:ba:63:6f:20:28:a9:3c:fd:
                    5b:24:6e:bf:41:74:34:c0:21:6a:cd:19:ef:05:c3:
                    0b:0c:ea:5b:73:ab:c2:be:c0:34:83:54:9a:3e:1e:
                    38:16:64:37:87:4e:42:2b:1f:a8:81:9e:9b:2d:5b:
                    69:16:65:3a:13:64:f1:7f:7e:c7:6f:26:e5:71:f7:
                    f4:75:47:dc:19:8f:fb:0a:d4:51:8e:ca:d1:24:7b:
                    db:de:64:3d:39:43:d0:15:8b:f0:42:68:54:8f:91:
                    e6:1f:cd:af:ae:01:ac:1c:1b:b1:02:9d:ec:6a:aa:
                    9d:aa:7d:b9:04:b2:91:2b:ee:10:d2:67:fe:a3:fe:
                    24:6c:35:e5:3b:57:15:09:43:d5:95:b1:76:d9:44:
                    4a:2b
                Exponent: 65537 (0x10001)
        X509v3 extensions:
            X509v3 Basic Constraints: 
                CA:FALSE
            X509v3 Subject Key Identifier: 
                C8:92:8D:BD:BC:60:6C:E7:03:B8:6C:22:04:2D:98:0E:87:8C:D3:92
            X509v3 Authority Key Identifier: 
                keyid:68:03:DA:BB:6F:A1:9D:11:86:CA:89:B0:F8:4E:E2:A4:3C:7F:47:9B
                DirName:/CN=team159-net
                serial:1E:20:4B:44:C1:03:C8:E2:BE:AC:D2:83:81:1C:6F:99:C5:5E:2D:8A
            X509v3 Extended Key Usage: 
                TLS Web Server Authentication
            X509v3 Key Usage: 
                Digital Signature, Key Encipherment
            X509v3 Subject Alternative Name: 
                DNS:team159-server
    Signature Algorithm: sha256WithRSAEncryption
    Signature Value:
        8a:46:aa:be:74:0e:09:73:bf:67:4a:4a:2d:57:27:9e:23:e2:
        4e:a7:43:45:81:ee:6a:9a:1a:0e:a8:f5:65:ae:f0:03:aa:92:
        66:b2:bd:32:a0:54:95:7e:3f:01:88:0e:16:24:72:1d:3c:53:
        d8:f7:a3:66:52:64:88:3d:62:d6:ac:e2:81:55:80:fc:cd:e9:
        94:ec:1a:64:b0:23:6c:62:06:50:e0:e8:16:41:3d:81:2b:08:
        54:6f:fc:ec:d0:66:94:65:df:39:5f:f6:92:9a:ea:30:9c:67:
        49:da:b8:4a:97:1f:4a:da:e6:a4:cb:4f:df:ba:27:93:83:76:
        23:ec:11:9c:7f:e8:36:e4:6b:7e:c5:2e:70:b5:95:20:20:2d:
        27:e8:a6:7e:95:1c:6d:ae:ba:de:b8:b2:af:58:18:c6:b1:d7:
        6e:7e:48:8b:68:b4:2e:ab:f4:31:b0:87:23:f8:4e:51:47:7e:
        36:53:a0:26:d5:88:33:2c:0b:6a:4a:84:28:45:cb:ce:c8:f3:
        b8:2c:a1:2d:d5:37:f1:d4:88:0b:3d:09:10:9e:9d:ad:70:b3:
        0b:d2:49:1d:cd:07:c2:ba:21:03:47:e8:4e:ad:c1:44:84:f6:
        ec:cf:6f:98:8b:55:ba:a0:bb:13:ee:9f:34:6e:2e:f6:2e:5d:
        a3:15:5b:52
-----BEGIN CERTIFICATE-----
MIIDeDCCAmCgAwIBAgIRAMZpE/B9ESu0MPe7u2iuVhIwDQYJKoZIhvcNAQELBQAw
FjEUMBIGA1UEAwwLdGVhbTE1OS1uZXQwHhcNMjMxMTA0MTA0MzMwWhcNMjYxMDE5
MTA0MzMwWjAZMRcwFQYDVQQDDA50ZWFtMTU5LXNlcnZlcjCCASIwDQYJKoZIhvcN
AQEBBQADggEPADCCAQoCggEBAOJ3KzmckATTRVyflBba07Jc2+/97TME1Yv/Hi2x
JGpihvZdrsDnwwk5oYri15R7jvxtS98PNK/LZ3qp4xktJgmpJN5KeWt73V3wv5ol
ezdTswFyw45xRW+jky1NEZd62eQ6IVJkKl8J+z+jMTxS07pjbyAoqTz9WyRuv0F0
NMAhas0Z7wXDCwzqW3Orwr7ANINUmj4eOBZkN4dOQisfqIGemy1baRZlOhNk8X9+
x28m5XH39HVH3BmP+wrUUY7K0SR7295kPTlD0BWL8EJoVI+R5h/Nr64BrBwbsQKd
7Gqqnap9uQSykSvuENJn/qP+JGw15TtXFQlD1ZWxdtlESisCAwEAAaOBvTCBujAJ
BgNVHRMEAjAAMB0GA1UdDgQWBBTIko29vGBs5wO4bCIELZgOh4zTkjBRBgNVHSME
SjBIgBRoA9q7b6GdEYbKibD4TuKkPH9Hm6EapBgwFjEUMBIGA1UEAwwLdGVhbTE1
OS1uZXSCFB4gS0TBA8jivqzSg4Ecb5nFXi2KMBMGA1UdJQQMMAoGCCsGAQUFBwMB
MAsGA1UdDwQEAwIFoDAZBgNVHREEEjAQgg50ZWFtMTU5LXNlcnZlcjANBgkqhkiG
9w0BAQsFAAOCAQEAikaqvnQOCXO/Z0pKLVcnniPiTqdDRYHuapoaDqj1Za7wA6qS
ZrK9MqBUlX4/AYgOFiRyHTxT2PejZlJkiD1i1qzigVWA/M3plOwaZLAjbGIGUODo
FkE9gSsIVG/87NBmlGXfOV/2kprqMJxnSdq4SpcfStrmpMtP37onk4N2I+wRnH/o
NuRrfsUucLWVICAtJ+imfpUcba663riyr1gYxrHXbn5Ii2i0Lqv0MbCHI/hOUUd+
NlOgJtWIMywLakqEKEXLzsjzuCyhLdU38dSICz0JEJ6drXCzC9JJHc0HwrohA0fo
Tq3BRIT27M9vmItVuqC7E+6fNG4u9i5doxVbUg==
-----END CERTIFICATE-----
