Certificate:
    Data:
        Version: 3 (0x2)
        Serial Number:
            cd:5e:15:62:f3:b5:9d:00:36:b4:d3:11:07:86:19:ee
        Signature Algorithm: sha256WithRSAEncryption
        Issuer: CN=team159-net
        Validity
            Not Before: Nov  4 10:43:29 2023 GMT
            Not After : Oct 19 10:43:29 2026 GMT
        Subject: CN=team159-client
        Subject Public Key Info:
            Public Key Algorithm: rsaEncryption
                Public-Key: (2048 bit)
                Modulus:
                    00:9d:b5:d7:04:f5:6a:31:d0:34:97:a3:d1:92:0c:
                    4d:c7:32:09:48:16:13:f8:a7:be:ad:5b:16:7e:42:
                    39:dd:ad:7f:f2:0a:02:ee:7d:8e:73:12:29:24:fb:
                    cb:99:32:6f:3e:73:cc:8d:7a:95:c2:1e:b0:24:43:
                    bc:bc:5f:12:9a:00:57:7d:79:68:10:e6:76:e8:e4:
                    8c:06:85:07:96:ae:53:eb:01:08:36:8d:5e:bf:20:
                    c9:4c:c0:e5:c9:06:b8:4d:c4:ec:bf:77:61:45:5f:
                    9a:3f:bb:fb:43:be:75:0a:cd:06:47:e0:22:30:14:
                    de:3a:eb:55:76:79:0b:30:37:46:f1:55:11:25:de:
                    6d:be:80:72:31:45:2d:c8:c0:07:ba:2b:15:27:56:
                    2a:92:dd:a2:cc:5e:81:ef:ca:91:ab:c3:89:a4:00:
                    e0:94:81:43:80:29:aa:b5:a5:e0:65:86:27:ba:c4:
                    22:19:52:0f:4a:b9:27:23:e0:52:27:c7:b4:58:86:
                    d2:a0:03:f4:ad:15:d3:cc:9e:5a:d6:da:be:f2:20:
                    be:2a:2c:7b:4d:97:27:ac:08:7f:f2:80:bc:1a:50:
                    7b:04:70:91:81:7b:da:d2:ba:c8:60:f4:26:08:75:
                    15:82:1d:27:d3:31:3f:d8:ce:7d:20:6e:50:78:2b:
                    74:79
                Exponent: 65537 (0x10001)
        X509v3 extensions:
            X509v3 Basic Constraints: 
                CA:FALSE
            X509v3 Subject Key Identifier: 
                54:68:4A:9C:27:46:74:A2:7F:FD:1B:0E:BF:47:9B:AD:31:03:0D:80
            X509v3 Authority Key Identifier: 
                keyid:68:03:DA:BB:6F:A1:9D:11:86:CA:89:B0:F8:4E:E2:A4:3C:7F:47:9B
                DirName:/CN=team159-net
                serial:1E:20:4B:44:C1:03:C8:E2:BE:AC:D2:83:81:1C:6F:99:C5:5E:2D:8A
            X509v3 Extended Key Usage: 
                TLS Web Client Authentication
            X509v3 Key Usage: 
                Digital Signature
    Signature Algorithm: sha256WithRSAEncryption
    Signature Value:
        4d:b4:57:0e:80:ed:21:12:13:e0:ab:45:93:07:5b:12:99:0a:
        b3:6d:0d:c1:eb:b1:f5:60:ae:55:40:35:db:74:1e:99:93:0e:
        ec:4f:b3:b4:16:16:78:0c:f6:06:80:bd:b5:d1:27:11:51:35:
        fe:fa:b8:d5:c4:4f:aa:c8:31:a1:1f:0d:29:d7:82:d1:ce:d8:
        58:16:3a:50:d1:d2:5d:66:7e:7a:5c:f3:2c:35:e5:14:9a:9c:
        e5:13:ab:5b:93:0a:07:4c:7e:80:8d:8a:23:8d:d8:c1:f5:79:
        34:31:54:7b:8c:af:60:5e:f1:b9:b1:02:4f:80:b8:16:38:da:
        b7:e3:db:f1:6a:ce:99:df:88:2e:7a:c7:72:10:c6:dd:ff:30:
        4f:26:11:b7:2c:d3:65:33:bb:34:4a:fa:9b:90:64:3d:5a:67:
        8f:ac:6c:c0:e6:6b:dd:25:5a:a0:32:66:66:f7:6f:b4:6d:97:
        e9:b5:4b:2b:ec:f9:58:8e:db:6c:49:c6:9f:f0:48:25:b6:6c:
        70:6c:8f:ef:d9:fe:b3:16:de:74:79:10:a7:0b:dc:6c:81:7e:
        f4:f3:b6:65:33:61:d3:58:54:cd:70:00:eb:e3:6c:87:1b:27:
        1e:57:51:2a:db:e4:c8:9e:5a:18:58:f4:1e:da:b3:9d:e1:ee:
        6a:d9:88:72
-----BEGIN CERTIFICATE-----
MIIDXTCCAkWgAwIBAgIRAM1eFWLztZ0ANrTTEQeGGe4wDQYJKoZIhvcNAQELBQAw
FjEUMBIGA1UEAwwLdGVhbTE1OS1uZXQwHhcNMjMxMTA0MTA0MzI5WhcNMjYxMDE5
MTA0MzI5WjAZMRcwFQYDVQQDDA50ZWFtMTU5LWNsaWVudDCCASIwDQYJKoZIhvcN
AQEBBQADggEPADCCAQoCggEBAJ211wT1ajHQNJej0ZIMTccyCUgWE/invq1bFn5C
Od2tf/IKAu59jnMSKST7y5kybz5zzI16lcIesCRDvLxfEpoAV315aBDmdujkjAaF
B5auU+sBCDaNXr8gyUzA5ckGuE3E7L93YUVfmj+7+0O+dQrNBkfgIjAU3jrrVXZ5
CzA3RvFVESXebb6AcjFFLcjAB7orFSdWKpLdosxege/KkavDiaQA4JSBQ4ApqrWl
4GWGJ7rEIhlSD0q5JyPgUifHtFiG0qAD9K0V08yeWtbavvIgviose02XJ6wIf/KA
vBpQewRwkYF72tK6yGD0Jgh1FYIdJ9MxP9jOfSBuUHgrdHkCAwEAAaOBojCBnzAJ
BgNVHRMEAjAAMB0GA1UdDgQWBBRUaEqcJ0Z0on/9Gw6/R5utMQMNgDBRBgNVHSME
SjBIgBRoA9q7b6GdEYbKibD4TuKkPH9Hm6EapBgwFjEUMBIGA1UEAwwLdGVhbTE1
OS1uZXSCFB4gS0TBA8jivqzSg4Ecb5nFXi2KMBMGA1UdJQQMMAoGCCsGAQUFBwMC
MAsGA1UdDwQEAwIHgDANBgkqhkiG9w0BAQsFAAOCAQEATbRXDoDtIRIT4KtFkwdb
EpkKs20Nweux9WCuVUA123QemZMO7E+ztBYWeAz2BoC9tdEnEVE1/vq41cRPqsgx
oR8NKdeC0c7YWBY6UNHSXWZ+elzzLDXlFJqc5ROrW5MKB0x+gI2KI43YwfV5NDFU
e4yvYF7xubECT4C4Fjjat+Pb8WrOmd+ILnrHchDG3f8wTyYRtyzTZTO7NEr6m5Bk
PVpnj6xswOZr3SVaoDJmZvdvtG2X6bVLK+z5WI7bbEnGn/BIJbZscGyP79n+sxbe
dHkQpwvcbIF+9PO2ZTNh01hUzXAA6+NshxsnHldRKtvkyJ5aGFj0HtqzneHuatmI
cg==
-----END CERTIFICATE-----
