Certificate:
    Data:
        Version: 3 (0x2)
        Serial Number:
            f5:3c:e0:25:2b:cc:fe:c6:91:ff:23:5a:30:98:0c:28
        Signature Algorithm: sha256WithRSAEncryption
        Issuer: CN=team351-net
        Validity
            Not Before: Nov  3 20:45:40 2023 GMT
            Not After : Oct 18 20:45:40 2026 GMT
        Subject: CN=team351-client
        Subject Public Key Info:
            Public Key Algorithm: rsaEncryption
                Public-Key: (2048 bit)
                Modulus:
                    00:ab:b9:88:27:5b:96:8f:16:03:0b:99:39:5a:cb:
                    37:d9:8b:6f:b7:80:af:a2:c2:f2:5e:58:79:96:90:
                    6b:c7:41:82:2e:48:03:4c:3a:de:02:31:60:ce:d5:
                    27:66:5c:29:02:13:fb:a5:e0:75:5d:67:f8:46:01:
                    8a:d3:de:2f:d3:01:dc:14:a9:4f:99:87:f7:26:53:
                    e0:96:f6:eb:60:19:38:5e:6e:58:d2:14:4b:3a:df:
                    30:33:1f:2f:db:71:bd:fa:20:4a:70:f1:20:41:bc:
                    c6:0b:d5:4c:fe:c0:cd:cf:de:e9:93:64:4b:bb:b6:
                    b5:65:26:66:21:22:12:68:fc:17:62:f5:ef:a6:e3:
                    a8:f1:0d:98:5c:e7:55:99:a4:cf:b1:39:be:07:ed:
                    fb:9e:c2:10:92:9e:13:fd:a7:07:d5:c3:bc:12:d6:
                    53:1b:f7:b3:88:25:41:09:53:af:86:e4:69:f6:16:
                    7a:6b:24:fb:99:18:13:f4:df:81:6b:df:f1:57:56:
                    a3:d5:b5:39:63:c1:56:0e:0c:36:50:0e:98:b6:d4:
                    0b:df:ef:92:d2:77:cb:06:bb:92:ff:e7:18:d9:b0:
                    41:f8:1d:6c:d9:19:9d:d0:70:a6:91:12:22:49:03:
                    47:d3:24:64:74:70:60:b9:34:46:84:5f:2b:aa:52:
                    58:a9
                Exponent: 65537 (0x10001)
        X509v3 extensions:
            X509v3 Basic Constraints: 
                CA:FALSE
            X509v3 Subject Key Identifier: 
                D3:13:90:39:FE:AD:56:EE:7A:D9:34:F9:A6:9C:09:CE:02:70:C8:63
            X509v3 Authority Key Identifier: 
                keyid:E9:DA:4B:B9:50:56:E8:C8:1E:B5:A6:E1:32:35:39:38:BD:FF:9A:3A
                DirName:/CN=team351-net
                serial:2E:FA:B9:94:E9:3C:88:B1:23:4F:4D:90:7D:18:49:45:59:A6:41:C5
            X509v3 Extended Key Usage: 
                TLS Web Client Authentication
            X509v3 Key Usage: 
                Digital Signature
    Signature Algorithm: sha256WithRSAEncryption
    Signature Value:
        6c:d9:dd:a9:2d:15:34:7a:6e:53:a8:bc:81:81:6b:4e:ec:f2:
        8f:89:d5:bc:82:24:25:0c:c9:34:79:e0:41:7a:1f:c9:ae:6a:
        63:02:67:ab:df:0f:c3:61:f7:df:83:2b:6a:6c:b0:94:0a:03:
        5a:be:37:d0:34:25:61:75:91:37:bd:d9:2f:ef:67:20:bf:8e:
        7b:7a:d6:22:97:e9:18:33:d8:34:5b:83:79:f3:5e:a7:42:1f:
        a0:2b:42:d9:54:f1:ae:69:3d:bb:02:ea:43:eb:c6:c0:a2:c2:
        85:7c:d5:b9:ca:de:5e:04:75:51:3d:10:36:84:af:5b:72:11:
        bf:7a:3e:a6:b3:b6:2b:fb:b7:f1:64:84:46:07:40:13:e2:c2:
        bf:73:b4:df:9c:3b:5c:4e:15:e9:f3:40:b8:70:00:ed:84:19:
        49:bc:2a:87:97:ff:c2:e5:a4:f2:53:86:4c:d8:92:20:58:99:
        b5:46:a2:3c:8c:1d:ab:96:89:1d:0d:23:de:99:57:86:9b:ec:
        ff:1f:44:91:93:d5:a0:16:86:e0:4f:ef:7d:bd:b5:01:8c:ff:
        41:bb:1d:68:10:65:da:02:da:6d:38:18:54:63:90:7b:81:7e:
        23:d2:e3:4a:79:2b:06:5a:c2:20:b5:57:0b:3e:43:af:80:c9:
        88:41:c5:a6
-----BEGIN CERTIFICATE-----
MIIDXTCCAkWgAwIBAgIRAPU84CUrzP7Gkf8jWjCYDCgwDQYJKoZIhvcNAQELBQAw
FjEUMBIGA1UEAwwLdGVhbTM1MS1uZXQwHhcNMjMxMTAzMjA0NTQwWhcNMjYxMDE4
MjA0NTQwWjAZMRcwFQYDVQQDDA50ZWFtMzUxLWNsaWVudDCCASIwDQYJKoZIhvcN
AQEBBQADggEPADCCAQoCggEBAKu5iCdblo8WAwuZOVrLN9mLb7eAr6LC8l5YeZaQ
a8dBgi5IA0w63gIxYM7VJ2ZcKQIT+6XgdV1n+EYBitPeL9MB3BSpT5mH9yZT4Jb2
62AZOF5uWNIUSzrfMDMfL9txvfogSnDxIEG8xgvVTP7Azc/e6ZNkS7u2tWUmZiEi
Emj8F2L176bjqPENmFznVZmkz7E5vgft+57CEJKeE/2nB9XDvBLWUxv3s4glQQlT
r4bkafYWemsk+5kYE/TfgWvf8VdWo9W1OWPBVg4MNlAOmLbUC9/vktJ3ywa7kv/n
GNmwQfgdbNkZndBwppESIkkDR9MkZHRwYLk0RoRfK6pSWKkCAwEAAaOBojCBnzAJ
BgNVHRMEAjAAMB0GA1UdDgQWBBTTE5A5/q1W7nrZNPmmnAnOAnDIYzBRBgNVHSME
SjBIgBTp2ku5UFboyB61puEyNTk4vf+aOqEapBgwFjEUMBIGA1UEAwwLdGVhbTM1
MS1uZXSCFC76uZTpPIixI09NkH0YSUVZpkHFMBMGA1UdJQQMMAoGCCsGAQUFBwMC
MAsGA1UdDwQEAwIHgDANBgkqhkiG9w0BAQsFAAOCAQEAbNndqS0VNHpuU6i8gYFr
Tuzyj4nVvIIkJQzJNHngQXofya5qYwJnq98Pw2H334MramywlAoDWr430DQlYXWR
N73ZL+9nIL+Oe3rWIpfpGDPYNFuDefNep0IfoCtC2VTxrmk9uwLqQ+vGwKLChXzV
ucreXgR1UT0QNoSvW3IRv3o+prO2K/u38WSERgdAE+LCv3O035w7XE4V6fNAuHAA
7YQZSbwqh5f/wuWk8lOGTNiSIFiZtUaiPIwdq5aJHQ0j3plXhpvs/x9EkZPVoBaG
4E/vfb21AYz/QbsdaBBl2gLabTgYVGOQe4F+I9LjSnkrBlrCILVXCz5Dr4DJiEHF
pg==
-----END CERTIFICATE-----
