Certificate:
    Data:
        Version: 3 (0x2)
        Serial Number:
            9d:c0:3b:a3:dc:36:bb:1e:ac:fb:d8:6b:17:12:d7:4e
        Signature Algorithm: sha256WithRSAEncryption
        Issuer: CN=team480-net
        Validity
            Not Before: Nov  4 10:49:05 2023 GMT
            Not After : Oct 19 10:49:05 2026 GMT
        Subject: CN=team480-client
        Subject Public Key Info:
            Public Key Algorithm: rsaEncryption
                Public-Key: (2048 bit)
                Modulus:
                    00:9d:ac:2b:90:d8:a0:d0:1a:65:81:4c:57:b2:43:
                    75:9f:8c:cf:30:b9:53:58:b2:ee:0e:ed:45:6f:6d:
                    2a:62:8c:8f:ef:70:63:c6:2e:dd:47:9b:53:3e:76:
                    91:0b:fd:ea:fd:cf:20:ca:09:cb:56:d5:0f:cc:66:
                    70:9a:4f:d8:c9:d8:cc:f5:ae:3b:80:cf:7a:10:db:
                    2b:7e:f8:39:49:19:24:3b:7c:ac:24:09:ee:1f:6c:
                    c3:9c:09:5b:65:3d:1e:00:49:b3:68:2f:25:49:76:
                    01:52:40:19:94:5f:dc:a8:26:39:87:ef:70:0e:b7:
                    e5:7e:e3:07:e4:ce:60:34:62:22:1e:e4:e3:51:37:
                    92:0a:24:10:a1:97:6a:87:4f:db:9c:9f:7a:20:f5:
                    7c:62:bf:35:4b:24:6b:03:24:26:aa:84:b5:d2:39:
                    75:11:c5:36:0e:ef:60:8a:42:e6:75:76:19:b5:a2:
                    11:1b:b2:bb:de:2f:12:01:44:be:25:c9:3a:9d:ca:
                    46:1a:a6:75:4c:9d:5f:6b:b7:3d:ce:a6:3d:41:00:
                    0d:ed:72:3f:25:3f:51:e1:f7:09:e6:da:9d:32:76:
                    3b:84:89:4c:6c:04:40:96:56:fb:25:92:e5:9f:f0:
                    0c:6c:ea:0c:12:b1:b8:00:1c:f1:bf:2f:54:5e:c5:
                    90:2f
                Exponent: 65537 (0x10001)
        X509v3 extensions:
            X509v3 Basic Constraints: 
                CA:FALSE
            X509v3 Subject Key Identifier: 
                CE:E3:9B:CD:76:87:48:9A:A6:16:5C:11:1B:CB:1C:8B:48:52:71:7C
            X509v3 Authority Key Identifier: 
                keyid:A3:77:5C:36:DD:4E:17:1E:53:D1:33:AD:74:7B:24:1C:2C:28:60:D5
                DirName:/CN=team480-net
                serial:42:34:84:13:B3:56:70:6D:44:A3:DA:4A:86:AA:23:E6:F8:4D:C9:FC
            X509v3 Extended Key Usage: 
                TLS Web Client Authentication
            X509v3 Key Usage: 
                Digital Signature
    Signature Algorithm: sha256WithRSAEncryption
    Signature Value:
        40:d2:87:57:4d:73:ae:41:59:73:cc:2d:52:cf:da:26:ad:98:
        aa:dc:4f:8c:70:66:bf:ea:f2:00:be:69:79:62:1a:9a:11:a3:
        0c:cc:73:a3:d5:a3:0f:f2:38:e0:af:e2:7f:5c:29:8c:be:8c:
        93:0a:67:33:40:ce:c0:09:6a:4d:1b:4f:7e:95:a4:28:7d:b0:
        49:63:fa:8c:b9:ff:98:5e:83:13:b3:2a:e7:e0:fe:17:6c:de:
        16:f7:d4:c7:a4:36:85:50:79:42:08:be:96:d3:6e:b4:0e:cf:
        5b:d1:e8:82:e8:81:da:fb:cb:f9:c1:4b:67:ab:0d:01:2f:ed:
        47:72:2e:ea:56:b8:02:00:18:2a:4a:1d:1f:a8:59:ef:3e:b2:
        ff:28:5b:fe:27:1d:df:fd:13:a8:72:57:81:52:17:f8:06:1b:
        19:36:88:9e:9b:71:aa:7c:0b:3e:53:f0:fb:1b:df:60:a7:fe:
        d3:e1:0c:e7:1b:99:e5:9d:92:4e:5e:58:4d:4c:26:bf:c3:6e:
        a1:3c:cb:96:53:f2:f5:89:2a:95:e7:f5:66:92:43:95:64:a9:
        86:9a:0f:0e:af:49:62:4a:f3:96:6a:59:a5:c7:f9:46:84:d6:
        28:fb:b8:19:bc:ca:86:45:25:e6:8d:6d:29:f0:14:24:1b:fe:
        9b:9a:5a:a1
-----BEGIN CERTIFICATE-----
MIIDXTCCAkWgAwIBAgIRAJ3AO6PcNrserPvYaxcS104wDQYJKoZIhvcNAQELBQAw
FjEUMBIGA1UEAwwLdGVhbTQ4MC1uZXQwHhcNMjMxMTA0MTA0OTA1WhcNMjYxMDE5
MTA0OTA1WjAZMRcwFQYDVQQDDA50ZWFtNDgwLWNsaWVudDCCASIwDQYJKoZIhvcN
AQEBBQADggEPADCCAQoCggEBAJ2sK5DYoNAaZYFMV7JDdZ+MzzC5U1iy7g7tRW9t
KmKMj+9wY8Yu3UebUz52kQv96v3PIMoJy1bVD8xmcJpP2MnYzPWuO4DPehDbK374
OUkZJDt8rCQJ7h9sw5wJW2U9HgBJs2gvJUl2AVJAGZRf3KgmOYfvcA635X7jB+TO
YDRiIh7k41E3kgokEKGXaodP25yfeiD1fGK/NUskawMkJqqEtdI5dRHFNg7vYIpC
5nV2GbWiERuyu94vEgFEviXJOp3KRhqmdUydX2u3Pc6mPUEADe1yPyU/UeH3Ceba
nTJ2O4SJTGwEQJZW+yWS5Z/wDGzqDBKxuAAc8b8vVF7FkC8CAwEAAaOBojCBnzAJ
BgNVHRMEAjAAMB0GA1UdDgQWBBTO45vNdodImqYWXBEbyxyLSFJxfDBRBgNVHSME
SjBIgBSjd1w23U4XHlPRM610eyQcLChg1aEapBgwFjEUMBIGA1UEAwwLdGVhbTQ4
MC1uZXSCFEI0hBOzVnBtRKPaSoaqI+b4Tcn8MBMGA1UdJQQMMAoGCCsGAQUFBwMC
MAsGA1UdDwQEAwIHgDANBgkqhkiG9w0BAQsFAAOCAQEAQNKHV01zrkFZc8wtUs/a
Jq2YqtxPjHBmv+ryAL5peWIamhGjDMxzo9WjD/I44K/if1wpjL6MkwpnM0DOwAlq
TRtPfpWkKH2wSWP6jLn/mF6DE7Mq5+D+F2zeFvfUx6Q2hVB5Qgi+ltNutA7PW9Ho
guiB2vvL+cFLZ6sNAS/tR3Iu6la4AgAYKkodH6hZ7z6y/yhb/icd3/0TqHJXgVIX
+AYbGTaInptxqnwLPlPw+xvfYKf+0+EM5xuZ5Z2STl5YTUwmv8NuoTzLllPy9Ykq
lef1ZpJDlWSphpoPDq9JYkrzlmpZpcf5RoTWKPu4GbzKhkUl5o1tKfAUJBv+m5pa
oQ==
-----END CERTIFICATE-----
