Certificate:
    Data:
        Version: 3 (0x2)
        Serial Number:
            a0:49:ff:26:7b:87:25:21:b1:30:ea:68:3c:f0:df:00
        Signature Algorithm: sha256WithRSAEncryption
        Issuer: CN=team480-net
        Validity
            Not Before: Nov  4 11:38:26 2023 GMT
            Not After : Oct 19 11:38:26 2026 GMT
        Subject: CN=team480-server
        Subject Public Key Info:
            Public Key Algorithm: rsaEncryption
                Public-Key: (2048 bit)
                Modulus:
                    00:b0:2a:11:d5:01:3a:77:19:f9:6d:38:30:02:3e:
                    e4:88:64:45:92:a3:60:d4:57:e2:07:b9:76:fd:c6:
                    42:a6:e2:85:cc:e2:33:6e:43:b1:a3:20:d1:f0:fe:
                    ac:06:55:26:79:1b:e1:03:cf:af:63:e2:e1:df:e8:
                    85:c5:8f:03:1c:84:ef:b0:39:86:e5:ad:7f:d9:c5:
                    c7:f5:4d:4d:6b:52:c6:ac:2e:b0:ad:c4:f2:b0:58:
                    57:dd:6e:a7:f5:94:c0:38:7d:e2:c9:c6:2d:3c:5e:
                    fe:0b:3f:0e:33:47:8b:9a:93:cc:ba:4f:bb:95:61:
                    a2:20:13:6f:97:97:a5:55:93:b2:18:be:6d:2f:32:
                    27:e6:4e:e5:ba:05:67:d7:8b:27:56:7f:a0:73:a2:
                    ff:6b:92:1f:11:84:1d:ac:28:a3:1d:67:f0:18:63:
                    2d:3b:6b:7f:54:8d:79:15:72:7c:86:d6:fe:73:0a:
                    21:8b:9b:fc:51:1d:48:c6:af:ee:2a:12:46:13:04:
                    e4:2c:5a:ad:b4:9f:93:48:66:f3:5f:7a:02:7c:82:
                    af:ee:cd:9d:63:f8:34:7f:7e:62:4b:df:66:b3:a5:
                    ab:1d:46:cc:15:b4:e5:a5:87:a5:13:52:2b:89:25:
                    72:f1:6b:5c:89:3b:27:50:4e:fc:58:bb:b5:bd:01:
                    45:53
                Exponent: 65537 (0x10001)
        X509v3 extensions:
            X509v3 Basic Constraints: 
                CA:FALSE
            X509v3 Subject Key Identifier: 
                DA:19:DA:00:64:7B:AD:98:F6:84:5F:27:57:72:C8:48:E2:BB:A8:F6
            X509v3 Authority Key Identifier: 
                keyid:FD:65:DB:39:EB:BC:0C:E5:C0:65:54:79:05:E5:8C:5D:D3:8F:F4:63
                DirName:/CN=team480-net
                serial:36:B1:61:A1:ED:D5:3D:E1:BB:02:3B:FF:37:C4:79:CF:32:6E:D5:E0
            X509v3 Extended Key Usage: 
                TLS Web Server Authentication
            X509v3 Key Usage: 
                Digital Signature, Key Encipherment
            X509v3 Subject Alternative Name: 
                DNS:team480-server
    Signature Algorithm: sha256WithRSAEncryption
    Signature Value:
        58:9d:70:da:96:dd:af:57:98:3e:32:fe:65:22:8e:ea:0e:5f:
        f5:49:30:5f:a4:03:d7:90:51:83:bb:e4:96:42:89:6f:c1:ed:
        61:f7:88:dd:00:7b:71:e6:68:c2:09:54:9a:bd:6e:73:78:b6:
        05:e4:0e:95:15:50:24:51:5e:a0:2f:0b:9c:01:b6:14:07:3e:
        42:5f:c8:44:dc:5d:40:8d:ac:74:a2:4f:3d:15:15:7d:b4:ce:
        cc:e7:40:cd:c4:6b:25:99:ad:b0:66:f0:d5:a2:c5:82:c1:bf:
        0f:21:ed:0e:07:f7:de:f3:91:b2:d0:36:b4:e4:cf:f5:59:0f:
        74:76:95:f2:87:dd:71:42:cb:2e:cd:ac:d1:45:bc:ea:e7:7f:
        49:23:9d:8a:18:08:ba:fc:72:25:c2:7f:87:aa:f7:6a:ae:b0:
        77:8c:80:c8:e8:e1:61:24:52:78:e1:31:9d:e7:4a:59:c2:55:
        4d:73:97:05:95:a8:19:ac:7c:40:52:a5:40:f6:9d:8d:24:57:
        2e:58:6b:ed:b8:9f:c6:ae:c2:fb:1a:d1:fd:a8:8f:17:79:83:
        ff:47:2c:cc:25:b5:5c:65:84:4c:aa:ed:c6:d4:cb:f0:ac:7e:
        cb:e4:b2:e5:27:6d:17:69:83:41:8c:cf:77:fc:3c:1a:e2:03:
        cd:16:8e:d7
-----BEGIN CERTIFICATE-----
MIIDeDCCAmCgAwIBAgIRAKBJ/yZ7hyUhsTDqaDzw3wAwDQYJKoZIhvcNAQELBQAw
FjEUMBIGA1UEAwwLdGVhbTQ4MC1uZXQwHhcNMjMxMTA0MTEzODI2WhcNMjYxMDE5
MTEzODI2WjAZMRcwFQYDVQQDDA50ZWFtNDgwLXNlcnZlcjCCASIwDQYJKoZIhvcN
AQEBBQADggEPADCCAQoCggEBALAqEdUBOncZ+W04MAI+5IhkRZKjYNRX4ge5dv3G
QqbihcziM25DsaMg0fD+rAZVJnkb4QPPr2Pi4d/ohcWPAxyE77A5huWtf9nFx/VN
TWtSxqwusK3E8rBYV91up/WUwDh94snGLTxe/gs/DjNHi5qTzLpPu5VhoiATb5eX
pVWTshi+bS8yJ+ZO5boFZ9eLJ1Z/oHOi/2uSHxGEHawoox1n8BhjLTtrf1SNeRVy
fIbW/nMKIYub/FEdSMav7ioSRhME5CxarbSfk0hm8196AnyCr+7NnWP4NH9+Ykvf
ZrOlqx1GzBW05aWHpRNSK4klcvFrXIk7J1BO/Fi7tb0BRVMCAwEAAaOBvTCBujAJ
BgNVHRMEAjAAMB0GA1UdDgQWBBTaGdoAZHutmPaEXydXcshI4ruo9jBRBgNVHSME
SjBIgBT9Zds567wM5cBlVHkF5Yxd04/0Y6EapBgwFjEUMBIGA1UEAwwLdGVhbTQ4
MC1uZXSCFDaxYaHt1T3huwI7/zfEec8ybtXgMBMGA1UdJQQMMAoGCCsGAQUFBwMB
MAsGA1UdDwQEAwIFoDAZBgNVHREEEjAQgg50ZWFtNDgwLXNlcnZlcjANBgkqhkiG
9w0BAQsFAAOCAQEAWJ1w2pbdr1eYPjL+ZSKO6g5f9UkwX6QD15BRg7vklkKJb8Ht
YfeI3QB7ceZowglUmr1uc3i2BeQOlRVQJFFeoC8LnAG2FAc+Ql/IRNxdQI2sdKJP
PRUVfbTOzOdAzcRrJZmtsGbw1aLFgsG/DyHtDgf33vORstA2tOTP9VkPdHaV8ofd
cULLLs2s0UW86ud/SSOdihgIuvxyJcJ/h6r3aq6wd4yAyOjhYSRSeOExnedKWcJV
TXOXBZWoGax8QFKlQPadjSRXLlhr7bifxq7C+xrR/aiPF3mD/0cszCW1XGWETKrt
xtTL8Kx+y+Sy5SdtF2mDQYzPd/w8GuIDzRaO1w==
-----END CERTIFICATE-----
