Certificate:
    Data:
        Version: 3 (0x2)
        Serial Number:
            ac:52:24:ef:aa:d5:a3:5b:d7:65:ef:ef:3d:0d:73:27
        Signature Algorithm: sha256WithRSAEncryption
        Issuer: CN=team480-net
        Validity
            Not Before: Nov  4 11:38:25 2023 GMT
            Not After : Oct 19 11:38:25 2026 GMT
        Subject: CN=team480-client
        Subject Public Key Info:
            Public Key Algorithm: rsaEncryption
                Public-Key: (2048 bit)
                Modulus:
                    00:c3:32:e2:04:59:e4:bd:38:b8:94:83:be:ef:d3:
                    c7:c7:43:00:bc:cd:80:0f:80:e9:b2:51:f1:39:06:
                    a3:94:4f:d1:d1:28:4e:5f:6b:bb:74:99:9c:28:dc:
                    38:c0:52:94:af:67:c7:a1:b7:e6:71:12:8a:50:b9:
                    1f:08:67:29:c9:53:d9:13:74:80:92:89:7e:83:6f:
                    e6:22:05:96:53:04:27:94:ab:70:06:e1:5c:7b:14:
                    ba:ac:cd:d6:fc:fd:4f:30:53:67:1c:04:1a:17:a8:
                    4d:bb:a8:5b:52:c9:65:ed:55:8f:93:ce:29:d4:ca:
                    86:18:b1:25:69:e6:47:da:bf:8c:08:de:e0:de:1d:
                    6d:0f:90:3e:3e:53:90:e9:6d:90:8d:d3:88:c2:da:
                    b2:54:bf:28:7b:45:91:f5:54:17:d9:ad:84:c9:e1:
                    57:a3:11:49:bd:e0:54:00:7d:74:00:21:9b:bb:35:
                    3f:c3:61:aa:5a:ed:19:ae:ac:e4:96:4c:c1:6c:08:
                    5c:37:be:a2:b5:c2:43:47:36:f3:4b:d5:8c:8a:1f:
                    b8:1b:64:3a:5e:d4:7e:87:70:fa:77:a6:e4:c6:0f:
                    9d:f0:a0:02:ff:51:85:70:77:98:9f:20:d3:c7:04:
                    73:f7:0f:49:30:38:53:8b:57:62:1a:1b:46:1b:7c:
                    09:93
                Exponent: 65537 (0x10001)
        X509v3 extensions:
            X509v3 Basic Constraints: 
                CA:FALSE
            X509v3 Subject Key Identifier: 
                D2:7A:21:89:6A:54:07:31:5D:8D:40:4B:FC:4A:C9:F0:78:42:8A:24
            X509v3 Authority Key Identifier: 
                keyid:FD:65:DB:39:EB:BC:0C:E5:C0:65:54:79:05:E5:8C:5D:D3:8F:F4:63
                DirName:/CN=team480-net
                serial:36:B1:61:A1:ED:D5:3D:E1:BB:02:3B:FF:37:C4:79:CF:32:6E:D5:E0
            X509v3 Extended Key Usage: 
                TLS Web Client Authentication
            X509v3 Key Usage: 
                Digital Signature
    Signature Algorithm: sha256WithRSAEncryption
    Signature Value:
        1a:77:29:15:ed:c8:d3:3e:c8:c2:16:e7:31:08:ab:e1:89:f5:
        3e:ba:c9:2c:6e:38:8e:23:e5:6f:29:34:78:44:ae:ab:4a:af:
        d7:b1:5f:b3:df:dc:cf:23:c0:c2:1e:ad:05:56:58:8e:ae:11:
        d6:9b:e2:d0:a4:d0:e2:4a:9b:e6:f7:44:d6:fd:16:52:c0:a0:
        51:fd:1b:48:af:0f:e4:c1:74:17:7c:5b:66:c6:d3:78:de:4e:
        9e:cb:96:df:1b:81:4a:fd:01:5b:7f:c9:da:e9:ad:1a:61:b2:
        a3:70:d3:e6:e4:5e:bd:19:e2:ef:e2:4e:69:ad:00:7e:b3:9d:
        27:07:18:dc:2b:3b:84:d5:03:cc:6a:f6:d7:66:bc:84:f5:60:
        e7:d9:f4:ae:65:c7:3b:8e:dc:c4:4b:7b:79:1d:b6:da:21:8a:
        a0:86:99:5e:8d:ea:39:f9:c2:23:62:a7:f0:22:90:ac:f8:b8:
        62:80:fc:0a:be:7d:17:32:20:64:e8:d8:25:f3:da:aa:54:7b:
        89:75:7a:30:ab:c2:c9:14:da:b5:81:63:31:39:32:41:03:39:
        34:58:83:a7:19:d6:07:db:8b:5e:e7:3f:30:33:17:2c:b7:dd:
        e0:ec:7f:a7:30:4a:74:99:1f:c0:92:77:f5:1e:89:28:df:f5:
        fc:4d:b2:18
-----BEGIN CERTIFICATE-----
MIIDXTCCAkWgAwIBAgIRAKxSJO+q1aNb12Xv7z0NcycwDQYJKoZIhvcNAQELBQAw
FjEUMBIGA1UEAwwLdGVhbTQ4MC1uZXQwHhcNMjMxMTA0MTEzODI1WhcNMjYxMDE5
MTEzODI1WjAZMRcwFQYDVQQDDA50ZWFtNDgwLWNsaWVudDCCASIwDQYJKoZIhvcN
AQEBBQADggEPADCCAQoCggEBAMMy4gRZ5L04uJSDvu/Tx8dDALzNgA+A6bJR8TkG
o5RP0dEoTl9ru3SZnCjcOMBSlK9nx6G35nESilC5HwhnKclT2RN0gJKJfoNv5iIF
llMEJ5SrcAbhXHsUuqzN1vz9TzBTZxwEGheoTbuoW1LJZe1Vj5POKdTKhhixJWnm
R9q/jAje4N4dbQ+QPj5TkOltkI3TiMLaslS/KHtFkfVUF9mthMnhV6MRSb3gVAB9
dAAhm7s1P8NhqlrtGa6s5JZMwWwIXDe+orXCQ0c280vVjIofuBtkOl7Ufodw+nem
5MYPnfCgAv9RhXB3mJ8g08cEc/cPSTA4U4tXYhobRht8CZMCAwEAAaOBojCBnzAJ
BgNVHRMEAjAAMB0GA1UdDgQWBBTSeiGJalQHMV2NQEv8SsnweEKKJDBRBgNVHSME
SjBIgBT9Zds567wM5cBlVHkF5Yxd04/0Y6EapBgwFjEUMBIGA1UEAwwLdGVhbTQ4
MC1uZXSCFDaxYaHt1T3huwI7/zfEec8ybtXgMBMGA1UdJQQMMAoGCCsGAQUFBwMC
MAsGA1UdDwQEAwIHgDANBgkqhkiG9w0BAQsFAAOCAQEAGncpFe3I0z7IwhbnMQir
4Yn1PrrJLG44jiPlbyk0eESuq0qv17Ffs9/czyPAwh6tBVZYjq4R1pvi0KTQ4kqb
5vdE1v0WUsCgUf0bSK8P5MF0F3xbZsbTeN5OnsuW3xuBSv0BW3/J2umtGmGyo3DT
5uRevRni7+JOaa0AfrOdJwcY3Cs7hNUDzGr212a8hPVg59n0rmXHO47cxEt7eR22
2iGKoIaZXo3qOfnCI2Kn8CKQrPi4YoD8Cr59FzIgZOjYJfPaqlR7iXV6MKvCyRTa
tYFjMTkyQQM5NFiDpxnWB9uLXuc/MDMXLLfd4Ox/pzBKdJkfwJJ39R6JKN/1/E2y
GA==
-----END CERTIFICATE-----
