Certificate:
    Data:
        Version: 3 (0x2)
        Serial Number:
            ff:ef:17:db:18:69:bb:f9:cb:4f:e2:f7:39:6e:86:5d
        Signature Algorithm: sha256WithRSAEncryption
        Issuer: CN=team480-net
        Validity
            Not Before: Nov  4 10:49:05 2023 GMT
            Not After : Oct 19 10:49:05 2026 GMT
        Subject: CN=team480-server
        Subject Public Key Info:
            Public Key Algorithm: rsaEncryption
                Public-Key: (2048 bit)
                Modulus:
                    00:b1:c3:4c:2c:a7:42:73:8d:97:ac:71:0b:9d:2f:
                    46:57:9b:16:b7:ec:74:40:29:0e:38:be:c8:5f:0b:
                    21:e4:0f:52:e9:95:ba:40:34:ed:27:f1:69:46:b0:
                    f3:9f:98:cd:13:63:5f:51:79:3c:ff:67:a9:0a:6f:
                    8b:74:74:f4:8f:1f:8e:c6:24:42:8f:b2:6f:09:54:
                    e7:ff:1c:c1:50:2b:d6:ed:fe:46:35:c9:9f:bf:e0:
                    c6:47:14:3b:60:9b:a8:23:99:9a:cc:6f:d8:de:0a:
                    b7:79:34:5c:b1:43:7c:8a:26:32:e8:c1:d7:7a:9f:
                    5f:e6:5a:b0:40:11:81:f1:02:f3:fd:5a:4d:7c:3a:
                    98:fc:51:bf:cb:df:a9:12:e8:27:6e:12:c5:42:0d:
                    fb:65:13:47:64:71:24:8d:e2:3f:0d:70:c2:2a:36:
                    78:e3:e6:ec:6c:2b:40:0e:17:a9:a4:30:2e:04:fa:
                    43:b2:79:9f:bb:04:4d:ed:a8:bf:cc:1f:97:22:00:
                    41:77:34:85:ff:98:a8:b0:d1:c8:a6:d8:5b:33:12:
                    01:26:96:c9:7e:59:a7:5a:bb:90:c2:10:73:c0:ba:
                    ca:39:00:8c:2e:2a:76:55:ae:43:bf:7c:c0:93:43:
                    29:72:06:2b:19:28:e5:06:c0:be:8f:d3:10:09:59:
                    c9:57
                Exponent: 65537 (0x10001)
        X509v3 extensions:
            X509v3 Basic Constraints: 
                CA:FALSE
            X509v3 Subject Key Identifier: 
                56:78:74:D8:B1:D7:D9:A1:6D:F2:A9:65:25:92:FE:F1:45:3F:78:BF
            X509v3 Authority Key Identifier: 
                keyid:A3:77:5C:36:DD:4E:17:1E:53:D1:33:AD:74:7B:24:1C:2C:28:60:D5
                DirName:/CN=team480-net
                serial:42:34:84:13:B3:56:70:6D:44:A3:DA:4A:86:AA:23:E6:F8:4D:C9:FC
            X509v3 Extended Key Usage: 
                TLS Web Server Authentication
            X509v3 Key Usage: 
                Digital Signature, Key Encipherment
            X509v3 Subject Alternative Name: 
                DNS:team480-server
    Signature Algorithm: sha256WithRSAEncryption
    Signature Value:
        76:42:61:43:87:03:4d:99:d6:1c:43:f2:e5:df:fd:aa:7d:f1:
        48:e5:63:28:33:bc:54:ac:03:bd:99:af:fd:43:75:5b:72:e9:
        59:7b:9b:5f:49:df:6c:7b:ea:4e:ee:ec:29:af:9a:1d:ef:50:
        5f:e7:a5:12:24:c6:fd:72:e0:6e:f1:dc:65:b4:fe:cd:09:8e:
        ff:36:b7:bd:b5:34:d7:a3:4b:2d:10:e6:6e:f8:8a:1a:85:5c:
        84:47:3a:2e:26:98:f9:24:37:a3:d4:d1:59:1f:92:3e:d9:96:
        83:8d:e2:28:84:4e:3c:65:54:64:2f:15:8c:39:ca:85:fa:03:
        a2:37:b4:4c:78:94:7d:3c:ed:04:8a:53:e4:b9:c6:38:22:11:
        54:d8:89:fd:bc:20:e8:f4:0c:c2:e4:67:c1:6c:41:25:74:7a:
        e1:4b:78:de:d6:3c:7e:2c:cc:b2:15:b3:b9:f5:55:46:e8:1b:
        64:21:d3:b8:26:37:ab:f4:75:db:ad:cf:9c:9a:45:a7:44:75:
        72:2b:ad:0a:74:08:6e:bc:8f:32:2d:bb:79:e9:ca:b8:5f:95:
        e9:f6:f7:b9:16:3c:4b:4f:7d:6e:b0:68:df:ad:1a:48:fe:ec:
        15:59:71:00:6b:f2:b3:b5:63:39:5b:29:6c:e6:39:8b:30:9b:
        28:dc:6d:1d
-----BEGIN CERTIFICATE-----
MIIDeDCCAmCgAwIBAgIRAP/vF9sYabv5y0/i9zluhl0wDQYJKoZIhvcNAQELBQAw
FjEUMBIGA1UEAwwLdGVhbTQ4MC1uZXQwHhcNMjMxMTA0MTA0OTA1WhcNMjYxMDE5
MTA0OTA1WjAZMRcwFQYDVQQDDA50ZWFtNDgwLXNlcnZlcjCCASIwDQYJKoZIhvcN
AQEBBQADggEPADCCAQoCggEBALHDTCynQnONl6xxC50vRlebFrfsdEApDji+yF8L
IeQPUumVukA07SfxaUaw85+YzRNjX1F5PP9nqQpvi3R09I8fjsYkQo+ybwlU5/8c
wVAr1u3+RjXJn7/gxkcUO2CbqCOZmsxv2N4Kt3k0XLFDfIomMujB13qfX+ZasEAR
gfEC8/1aTXw6mPxRv8vfqRLoJ24SxUIN+2UTR2RxJI3iPw1wwio2eOPm7GwrQA4X
qaQwLgT6Q7J5n7sETe2ov8wflyIAQXc0hf+YqLDRyKbYWzMSASaWyX5Zp1q7kMIQ
c8C6yjkAjC4qdlWuQ798wJNDKXIGKxko5QbAvo/TEAlZyVcCAwEAAaOBvTCBujAJ
BgNVHRMEAjAAMB0GA1UdDgQWBBRWeHTYsdfZoW3yqWUlkv7xRT94vzBRBgNVHSME
SjBIgBSjd1w23U4XHlPRM610eyQcLChg1aEapBgwFjEUMBIGA1UEAwwLdGVhbTQ4
MC1uZXSCFEI0hBOzVnBtRKPaSoaqI+b4Tcn8MBMGA1UdJQQMMAoGCCsGAQUFBwMB
MAsGA1UdDwQEAwIFoDAZBgNVHREEEjAQgg50ZWFtNDgwLXNlcnZlcjANBgkqhkiG
9w0BAQsFAAOCAQEAdkJhQ4cDTZnWHEPy5d/9qn3xSOVjKDO8VKwDvZmv/UN1W3Lp
WXubX0nfbHvqTu7sKa+aHe9QX+elEiTG/XLgbvHcZbT+zQmO/za3vbU016NLLRDm
bviKGoVchEc6LiaY+SQ3o9TRWR+SPtmWg43iKIROPGVUZC8VjDnKhfoDoje0THiU
fTztBIpT5LnGOCIRVNiJ/bwg6PQMwuRnwWxBJXR64Ut43tY8fizMshWzufVVRugb
ZCHTuCY3q/R1263PnJpFp0R1ciutCnQIbryPMi27eenKuF+V6fb3uRY8S099brBo
360aSP7sFVlxAGvys7VjOVspbOY5izCbKNxtHQ==
-----END CERTIFICATE-----
