Certificate:
    Data:
        Version: 3 (0x2)
        Serial Number:
            14:d0:3b:96:73:7e:5e:17:25:81:3a:eb:0e:63:57:31
        Signature Algorithm: sha256WithRSAEncryption
        Issuer: CN=team229-net
        Validity
            Not Before: Nov  3 20:43:30 2023 GMT
            Not After : Oct 18 20:43:30 2026 GMT
        Subject: CN=team229-client
        Subject Public Key Info:
            Public Key Algorithm: rsaEncryption
                Public-Key: (2048 bit)
                Modulus:
                    00:f1:54:97:4f:81:32:28:de:85:1f:4c:7f:ab:f5:
                    f3:06:57:65:1e:34:e8:e0:cb:cf:25:df:27:a2:d5:
                    58:65:ff:6f:fc:b3:c3:37:57:8a:e9:72:87:f0:f0:
                    ec:4c:0b:ba:93:83:45:9f:10:55:29:d2:a1:a9:11:
                    35:71:57:62:f2:2c:e6:de:6f:0e:19:0f:4d:8b:a1:
                    eb:86:f5:3d:bf:cb:ee:a8:b4:87:8b:2d:7b:ee:f7:
                    7a:87:d7:45:19:9d:6e:a6:a4:f3:0a:47:5d:e6:03:
                    45:97:fd:8a:b5:d2:45:c6:9d:35:38:0f:e0:9a:5e:
                    f6:75:19:b5:6d:6a:65:7e:90:58:9d:72:8f:eb:12:
                    c1:a5:08:e2:dc:c5:81:7c:61:20:d4:ca:de:d4:3a:
                    57:5a:62:3b:82:d0:06:d1:ec:26:d4:62:84:a1:f7:
                    fb:ea:d9:8c:20:f9:09:59:ae:0a:1c:bc:42:fc:64:
                    0c:d3:8a:1d:97:1f:9a:7b:c3:8b:11:6d:e9:b8:e0:
                    20:4a:0f:ce:c0:b0:cb:50:65:15:dd:ce:dc:76:c9:
                    41:f2:11:20:6a:74:67:8c:78:7c:70:30:18:88:36:
                    e6:da:83:72:b2:dc:c0:52:3d:9d:68:d4:d4:f1:72:
                    b8:05:6f:5a:a3:4b:3e:bc:b1:cd:7a:08:54:5d:17:
                    07:0b
                Exponent: 65537 (0x10001)
        X509v3 extensions:
            X509v3 Basic Constraints: 
                CA:FALSE
            X509v3 Subject Key Identifier: 
                3F:39:88:20:75:72:96:BD:4F:B1:E8:07:6A:62:A7:60:AC:54:03:1D
            X509v3 Authority Key Identifier: 
                keyid:41:02:72:10:8A:59:80:69:FB:43:1E:6A:84:FB:72:B5:A6:9B:5C:EB
                DirName:/CN=team229-net
                serial:60:9E:DA:3E:49:10:0F:12:DC:13:4F:BB:F9:C6:A4:EC:35:84:90:E5
            X509v3 Extended Key Usage: 
                TLS Web Client Authentication
            X509v3 Key Usage: 
                Digital Signature
    Signature Algorithm: sha256WithRSAEncryption
    Signature Value:
        35:ec:c1:ec:6b:30:21:1b:ce:7a:40:37:15:65:ba:a6:08:c6:
        f1:27:38:74:3c:3a:43:d0:1c:44:22:78:95:3a:8b:85:43:84:
        cc:be:99:8a:f2:4e:78:4d:a9:7e:68:fa:b1:6a:a4:88:99:7c:
        2e:86:21:a9:e9:6b:7d:0e:bc:a9:46:06:1a:21:7b:8b:a4:96:
        67:62:5b:17:a2:20:74:a1:68:11:92:fb:ff:37:17:b2:58:6c:
        cb:7b:99:81:4f:57:ce:21:e8:8d:4b:5d:60:25:48:e9:f2:48:
        5f:55:f9:22:22:44:94:7d:b6:8c:8a:8c:ed:25:d5:ea:ab:8c:
        13:dd:cc:7b:c3:d6:26:5b:59:d9:65:db:3b:1b:1d:c7:a3:ba:
        93:48:07:fd:07:39:a8:1d:d8:86:f0:d1:a3:3c:4c:b4:90:3c:
        4b:ea:84:e5:30:71:96:0a:c2:8c:1e:39:4a:2c:92:b3:ed:c3:
        e9:c6:7a:98:91:22:ab:08:25:77:ff:ee:fe:98:d8:00:fb:cc:
        1e:d7:2b:d2:d1:bd:10:8f:42:b1:83:fe:11:2f:e0:33:97:9e:
        a9:50:a7:ae:ac:7b:03:05:55:c6:9f:e8:24:08:d1:84:c7:0e:
        99:46:15:d4:6f:f1:21:03:ac:d0:05:57:9e:4a:8e:32:3b:bc:
        86:02:91:32
-----BEGIN CERTIFICATE-----
MIIDXDCCAkSgAwIBAgIQFNA7lnN+XhclgTrrDmNXMTANBgkqhkiG9w0BAQsFADAW
MRQwEgYDVQQDDAt0ZWFtMjI5LW5ldDAeFw0yMzExMDMyMDQzMzBaFw0yNjEwMTgy
MDQzMzBaMBkxFzAVBgNVBAMMDnRlYW0yMjktY2xpZW50MIIBIjANBgkqhkiG9w0B
AQEFAAOCAQ8AMIIBCgKCAQEA8VSXT4EyKN6FH0x/q/XzBldlHjTo4MvPJd8notVY
Zf9v/LPDN1eK6XKH8PDsTAu6k4NFnxBVKdKhqRE1cVdi8izm3m8OGQ9Ni6HrhvU9
v8vuqLSHiy177vd6h9dFGZ1upqTzCkdd5gNFl/2KtdJFxp01OA/gml72dRm1bWpl
fpBYnXKP6xLBpQji3MWBfGEg1Mre1DpXWmI7gtAG0ewm1GKEoff76tmMIPkJWa4K
HLxC/GQM04odlx+ae8OLEW3puOAgSg/OwLDLUGUV3c7cdslB8hEganRnjHh8cDAY
iDbm2oNystzAUj2daNTU8XK4BW9ao0s+vLHNeghUXRcHCwIDAQABo4GiMIGfMAkG
A1UdEwQCMAAwHQYDVR0OBBYEFD85iCB1cpa9T7HoB2pip2CsVAMdMFEGA1UdIwRK
MEiAFEECchCKWYBp+0MeaoT7crWmm1zroRqkGDAWMRQwEgYDVQQDDAt0ZWFtMjI5
LW5ldIIUYJ7aPkkQDxLcE0+7+cak7DWEkOUwEwYDVR0lBAwwCgYIKwYBBQUHAwIw
CwYDVR0PBAQDAgeAMA0GCSqGSIb3DQEBCwUAA4IBAQA17MHsazAhG856QDcVZbqm
CMbxJzh0PDpD0BxEIniVOouFQ4TMvpmK8k54Tal+aPqxaqSImXwuhiGp6Wt9Dryp
RgYaIXuLpJZnYlsXoiB0oWgRkvv/NxeyWGzLe5mBT1fOIeiNS11gJUjp8khfVfki
IkSUfbaMioztJdXqq4wT3cx7w9YmW1nZZds7Gx3Ho7qTSAf9BzmoHdiG8NGjPEy0
kDxL6oTlMHGWCsKMHjlKLJKz7cPpxnqYkSKrCCV3/+7+mNgA+8we1yvS0b0Qj0Kx
g/4RL+Azl56pUKeurHsDBVXGn+gkCNGExw6ZRhXUb/EhA6zQBVeeSo4yO7yGApEy
-----END CERTIFICATE-----
