Certificate:
    Data:
        Version: 3 (0x2)
        Serial Number:
            49:44:5e:c1:23:a0:e8:7e:31:b6:c2:cd:83:07:99:16
        Signature Algorithm: sha256WithRSAEncryption
        Issuer: CN=team75-net
        Validity
            Not Before: Nov  4 11:28:50 2023 GMT
            Not After : Oct 19 11:28:50 2026 GMT
        Subject: CN=team75-server
        Subject Public Key Info:
            Public Key Algorithm: rsaEncryption
                Public-Key: (2048 bit)
                Modulus:
                    00:ca:78:fa:90:fc:79:7d:7d:e2:8a:0f:d9:ff:33:
                    b0:77:16:7f:b7:c6:10:c3:75:f9:df:36:8a:51:b0:
                    76:95:73:32:14:a2:9b:d2:3c:cd:bb:81:b7:94:5f:
                    68:d0:1e:97:8c:69:be:3a:be:70:e4:45:13:2e:b5:
                    0f:18:e7:a1:66:df:a2:1b:8e:a6:89:39:86:e6:70:
                    fd:8e:c8:9d:47:e0:6f:87:d6:9a:62:df:06:db:59:
                    f4:3f:fd:69:5a:c0:4c:15:62:f1:6d:ad:38:d8:5b:
                    cc:de:ef:59:8b:1c:93:1d:73:c3:e2:a4:b3:59:01:
                    ab:bb:e3:c3:75:ff:4c:c5:b1:f4:11:cc:76:67:a1:
                    18:8c:55:09:58:a9:90:89:b8:a2:9a:79:e6:89:34:
                    ea:9d:a8:d7:19:fc:17:16:6f:d8:27:8a:21:a9:c7:
                    ea:41:f8:6b:24:09:0a:5b:ca:32:71:43:3f:d9:51:
                    76:16:f0:c3:30:2c:0a:f7:78:1a:fd:58:e7:5d:4a:
                    6d:e8:dd:aa:d4:35:34:8c:f5:d1:4d:92:90:65:81:
                    b4:78:3b:97:4b:02:a8:75:65:11:91:df:5d:18:a3:
                    95:e4:62:1f:20:ba:2c:47:87:ab:34:82:c8:67:36:
                    d2:59:6d:27:47:bc:dc:64:51:62:7e:b0:06:69:05:
                    de:1d
                Exponent: 65537 (0x10001)
        X509v3 extensions:
            X509v3 Basic Constraints: 
                CA:FALSE
            X509v3 Subject Key Identifier: 
                76:58:DC:44:51:94:26:28:D2:D3:13:3D:A4:2C:57:3E:AE:BE:A0:8D
            X509v3 Authority Key Identifier: 
                keyid:45:FB:0E:61:B0:F1:7E:F6:27:74:A5:B4:AE:35:2C:36:40:B4:4B:35
                DirName:/CN=team75-net
                serial:4C:51:E7:84:47:6C:CC:51:CA:F0:81:80:11:39:40:05:B6:99:51:C6
            X509v3 Extended Key Usage: 
                TLS Web Server Authentication
            X509v3 Key Usage: 
                Digital Signature, Key Encipherment
            X509v3 Subject Alternative Name: 
                DNS:team75-server
    Signature Algorithm: sha256WithRSAEncryption
    Signature Value:
        55:81:1c:23:3a:31:8d:cb:e3:cd:a3:d5:f0:4f:76:96:2d:5d:
        eb:76:c4:5d:0a:11:4c:26:c4:57:25:3d:5c:48:c6:cf:40:6e:
        5f:d9:07:a1:0e:cb:d4:c3:bb:5a:1b:46:f4:55:9b:66:e3:13:
        db:cf:85:1c:0d:9c:fb:ec:72:57:08:e6:9e:24:bb:80:2f:fe:
        5c:b0:0f:67:93:d3:db:ae:b8:68:50:ec:3c:e3:57:d7:61:0a:
        c9:fd:88:93:90:ae:7b:48:69:19:37:41:2f:97:c3:4a:50:0e:
        f8:9a:c5:ce:4e:34:9f:f1:b1:ad:4f:30:d8:24:ee:f9:55:8f:
        99:df:a4:5c:5b:e6:93:82:5d:f9:84:c3:ae:31:f2:7b:0d:58:
        4a:26:4b:d9:07:a0:86:f6:a1:c7:21:b3:f6:f8:c7:bd:45:16:
        dc:07:5d:c2:9d:4b:90:44:0b:9d:b7:a9:35:93:86:84:ac:d1:
        8e:45:58:bc:a4:23:c1:6d:ea:36:6b:d7:c8:28:ec:e2:cb:5e:
        e4:70:30:54:80:8b:76:9d:63:d6:ef:f3:a7:77:ce:ef:58:1b:
        f7:c9:84:44:ae:7f:26:99:78:d6:69:77:72:b4:67:e6:9a:c4:
        eb:1b:9e:1c:01:65:e8:40:71:59:eb:ed:49:36:65:72:70:c0:
        93:bf:b2:d1
-----BEGIN CERTIFICATE-----
MIIDczCCAlugAwIBAgIQSURewSOg6H4xtsLNgweZFjANBgkqhkiG9w0BAQsFADAV
MRMwEQYDVQQDDAp0ZWFtNzUtbmV0MB4XDTIzMTEwNDExMjg1MFoXDTI2MTAxOTEx
Mjg1MFowGDEWMBQGA1UEAwwNdGVhbTc1LXNlcnZlcjCCASIwDQYJKoZIhvcNAQEB
BQADggEPADCCAQoCggEBAMp4+pD8eX194ooP2f8zsHcWf7fGEMN1+d82ilGwdpVz
MhSim9I8zbuBt5RfaNAel4xpvjq+cORFEy61DxjnoWbfohuOpok5huZw/Y7InUfg
b4fWmmLfBttZ9D/9aVrATBVi8W2tONhbzN7vWYsckx1zw+Kks1kBq7vjw3X/TMWx
9BHMdmehGIxVCVipkIm4opp55ok06p2o1xn8FxZv2CeKIanH6kH4ayQJClvKMnFD
P9lRdhbwwzAsCvd4Gv1Y511KbejdqtQ1NIz10U2SkGWBtHg7l0sCqHVlEZHfXRij
leRiHyC6LEeHqzSCyGc20lltJ0e83GRRYn6wBmkF3h0CAwEAAaOBuzCBuDAJBgNV
HRMEAjAAMB0GA1UdDgQWBBR2WNxEUZQmKNLTEz2kLFc+rr6gjTBQBgNVHSMESTBH
gBRF+w5hsPF+9id0pbSuNSw2QLRLNaEZpBcwFTETMBEGA1UEAwwKdGVhbTc1LW5l
dIIUTFHnhEdszFHK8IGAETlABbaZUcYwEwYDVR0lBAwwCgYIKwYBBQUHAwEwCwYD
VR0PBAQDAgWgMBgGA1UdEQQRMA+CDXRlYW03NS1zZXJ2ZXIwDQYJKoZIhvcNAQEL
BQADggEBAFWBHCM6MY3L482j1fBPdpYtXet2xF0KEUwmxFclPVxIxs9Abl/ZB6EO
y9TDu1obRvRVm2bjE9vPhRwNnPvsclcI5p4ku4Av/lywD2eT09uuuGhQ7DzjV9dh
Csn9iJOQrntIaRk3QS+Xw0pQDviaxc5ONJ/xsa1PMNgk7vlVj5nfpFxb5pOCXfmE
w64x8nsNWEomS9kHoIb2occhs/b4x71FFtwHXcKdS5BEC523qTWThoSs0Y5FWLyk
I8Ft6jZr18go7OLLXuRwMFSAi3adY9bv86d3zu9YG/fJhESufyaZeNZpd3K0Z+aa
xOsbnhwBZehAcVnr7Uk2ZXJwwJO/stE=
-----END CERTIFICATE-----
