Certificate:
    Data:
        Version: 3 (0x2)
        Serial Number:
            bc:07:af:6b:d4:79:30:e9:31:42:bf:94:d9:83:4f:f3
        Signature Algorithm: sha256WithRSAEncryption
        Issuer: CN=team75-net
        Validity
            Not Before: Nov  4 10:41:46 2023 GMT
            Not After : Oct 19 10:41:46 2026 GMT
        Subject: CN=team75-server
        Subject Public Key Info:
            Public Key Algorithm: rsaEncryption
                Public-Key: (2048 bit)
                Modulus:
                    00:b2:d5:87:50:7a:4e:c5:48:b0:c2:57:e7:68:e4:
                    28:96:97:df:fe:c9:ce:ff:76:15:30:63:b3:af:a5:
                    d6:7a:39:ed:60:19:f9:fc:52:38:86:b8:ce:25:76:
                    40:42:cb:02:80:58:72:e4:71:cb:ca:70:ac:9f:f6:
                    5e:a4:39:80:41:55:6f:fd:33:b7:f3:a4:4d:84:35:
                    a3:5c:1d:17:19:84:85:86:eb:1c:75:b7:da:95:a3:
                    46:03:4f:9c:f2:8a:28:9d:3b:43:2e:0c:7e:07:99:
                    ec:c9:dd:a4:72:1f:a4:ae:6d:5a:9f:53:39:fa:70:
                    ee:7a:78:f1:d1:93:4c:7e:f1:71:37:43:6e:be:6f:
                    b6:09:14:c3:29:3c:11:7d:34:da:49:71:74:84:de:
                    d9:9a:ca:4e:8d:12:53:23:dd:44:a4:0e:59:d0:c2:
                    ce:6a:b6:3c:92:67:97:e6:24:af:5c:7a:80:5b:e6:
                    85:4d:48:2a:f3:e0:4b:58:80:20:70:c3:22:47:c8:
                    c8:b8:ef:f3:2c:4e:1c:c9:db:be:7e:29:ae:e6:0f:
                    99:47:76:a6:25:03:a6:6f:ee:ff:98:dc:f2:b6:78:
                    2e:14:cc:54:e2:10:49:04:ba:f9:f1:7f:97:e5:33:
                    bf:5e:8d:4e:24:51:aa:07:45:04:cb:97:67:38:d9:
                    0c:6d
                Exponent: 65537 (0x10001)
        X509v3 extensions:
            X509v3 Basic Constraints: 
                CA:FALSE
            X509v3 Subject Key Identifier: 
                63:DC:8C:D0:23:E3:02:82:C3:9F:FC:9F:2B:80:24:18:AE:44:89:CF
            X509v3 Authority Key Identifier: 
                keyid:77:7D:C9:1C:92:7C:60:FB:DE:0D:C0:4C:D1:AB:61:16:9D:59:95:DF
                DirName:/CN=team75-net
                serial:4F:94:C0:78:5D:7F:22:CB:52:31:33:BB:6F:CF:F1:AA:3D:25:BF:A4
            X509v3 Extended Key Usage: 
                TLS Web Server Authentication
            X509v3 Key Usage: 
                Digital Signature, Key Encipherment
            X509v3 Subject Alternative Name: 
                DNS:team75-server
    Signature Algorithm: sha256WithRSAEncryption
    Signature Value:
        bf:4c:78:0b:4a:17:66:48:8a:75:94:d6:1b:e4:f6:7e:f8:f3:
        6f:4b:54:f1:45:f7:11:7d:80:61:f7:d3:07:02:f3:9d:12:7a:
        9b:24:e2:e5:ac:82:0d:1a:fa:5f:87:d4:9b:2f:9a:ce:0b:fe:
        37:7e:d5:c8:e5:33:32:3e:7f:a3:92:e2:c5:a6:df:46:76:a9:
        25:92:c5:72:65:8c:ed:3a:df:cf:0d:40:4b:15:f3:a2:97:c1:
        42:38:8c:a6:2c:47:21:2f:e7:68:0d:ab:05:60:ae:ed:b2:33:
        fb:6b:a3:b6:cd:4e:8c:2f:78:3b:5e:c3:f1:ff:55:29:d1:08:
        6a:04:b8:27:a7:51:38:52:a5:02:7e:2b:6d:37:1d:d9:c1:3c:
        e8:2d:cc:92:48:a9:1e:9e:2f:a2:47:18:21:08:4d:67:dc:d6:
        9f:1a:42:9e:63:a5:71:a0:e7:ea:b2:f9:b9:71:ab:a1:1f:4d:
        ff:d3:ae:df:f4:3d:d3:2e:48:1e:b0:67:83:06:70:39:28:d2:
        fb:dc:c0:56:6d:a1:a0:64:c9:73:80:d3:56:59:41:14:37:7d:
        6a:6f:a8:8a:b9:4e:30:fd:23:f3:90:f4:cb:5c:f5:12:b9:03:
        5c:a6:ff:9f:9f:ff:d9:5d:08:77:c4:52:0e:b5:0f:f4:25:ae:
        6c:c3:9b:39
-----BEGIN CERTIFICATE-----
MIIDdDCCAlygAwIBAgIRALwHr2vUeTDpMUK/lNmDT/MwDQYJKoZIhvcNAQELBQAw
FTETMBEGA1UEAwwKdGVhbTc1LW5ldDAeFw0yMzExMDQxMDQxNDZaFw0yNjEwMTkx
MDQxNDZaMBgxFjAUBgNVBAMMDXRlYW03NS1zZXJ2ZXIwggEiMA0GCSqGSIb3DQEB
AQUAA4IBDwAwggEKAoIBAQCy1YdQek7FSLDCV+do5CiWl9/+yc7/dhUwY7OvpdZ6
Oe1gGfn8UjiGuM4ldkBCywKAWHLkccvKcKyf9l6kOYBBVW/9M7fzpE2ENaNcHRcZ
hIWG6xx1t9qVo0YDT5zyiiidO0MuDH4HmezJ3aRyH6SubVqfUzn6cO56ePHRk0x+
8XE3Q26+b7YJFMMpPBF9NNpJcXSE3tmayk6NElMj3USkDlnQws5qtjySZ5fmJK9c
eoBb5oVNSCrz4EtYgCBwwyJHyMi47/MsThzJ275+Ka7mD5lHdqYlA6Zv7v+Y3PK2
eC4UzFTiEEkEuvnxf5flM79ejU4kUaoHRQTLl2c42QxtAgMBAAGjgbswgbgwCQYD
VR0TBAIwADAdBgNVHQ4EFgQUY9yM0CPjAoLDn/yfK4AkGK5Eic8wUAYDVR0jBEkw
R4AUd33JHJJ8YPveDcBM0athFp1Zld+hGaQXMBUxEzARBgNVBAMMCnRlYW03NS1u
ZXSCFE+UwHhdfyLLUjEzu2/P8ao9Jb+kMBMGA1UdJQQMMAoGCCsGAQUFBwMBMAsG
A1UdDwQEAwIFoDAYBgNVHREEETAPgg10ZWFtNzUtc2VydmVyMA0GCSqGSIb3DQEB
CwUAA4IBAQC/THgLShdmSIp1lNYb5PZ++PNvS1TxRfcRfYBh99MHAvOdEnqbJOLl
rIINGvpfh9SbL5rOC/43ftXI5TMyPn+jkuLFpt9GdqklksVyZYztOt/PDUBLFfOi
l8FCOIymLEchL+doDasFYK7tsjP7a6O2zU6ML3g7XsPx/1Up0QhqBLgnp1E4UqUC
fittNx3ZwTzoLcySSKkeni+iRxghCE1n3NafGkKeY6VxoOfqsvm5cauhH03/067f
9D3TLkgesGeDBnA5KNL73MBWbaGgZMlzgNNWWUEUN31qb6iKuU4w/SPzkPTLXPUS
uQNcpv+fn//ZXQh3xFIOtQ/0Ja5sw5s5
-----END CERTIFICATE-----
