Certificate:
    Data:
        Version: 3 (0x2)
        Serial Number:
            ec:4c:13:42:34:22:8c:e2:e7:b7:0a:96:fb:9e:d2:68
        Signature Algorithm: sha256WithRSAEncryption
        Issuer: CN=team75-net
        Validity
            Not Before: Nov  4 10:41:46 2023 GMT
            Not After : Oct 19 10:41:46 2026 GMT
        Subject: CN=team75-client
        Subject Public Key Info:
            Public Key Algorithm: rsaEncryption
                Public-Key: (2048 bit)
                Modulus:
                    00:9e:bf:24:42:8c:5b:68:d8:9a:ff:1b:c1:2d:e6:
                    06:3e:ee:5b:2c:d2:ac:e1:fb:ad:43:ad:1b:89:4d:
                    74:8c:bf:13:dd:63:fc:ba:63:61:bd:34:0f:2c:70:
                    79:00:80:2f:a0:cf:2f:66:6f:74:d7:af:4e:a6:f9:
                    9c:97:b0:58:bc:10:28:c6:f9:6a:94:a6:6e:24:29:
                    29:cc:70:47:4c:27:77:9b:b3:5e:34:f8:8b:f2:dc:
                    b0:67:b6:62:63:60:56:74:52:e8:3e:58:17:f1:de:
                    05:d4:39:b5:05:aa:11:4f:69:73:71:2c:51:e5:fd:
                    3a:9d:7a:83:94:bd:3c:ae:d4:84:b6:83:d4:48:f7:
                    1e:5e:ee:d7:ec:5a:17:13:44:41:6d:fb:6d:de:30:
                    06:16:40:72:df:9c:67:24:5c:a6:4b:31:a2:22:72:
                    69:ed:6b:b4:88:fa:e7:17:80:b4:fc:65:ee:ee:10:
                    32:16:52:0b:37:25:d7:32:e4:fd:6f:f8:b2:66:3a:
                    a2:fa:a3:e1:1e:15:04:95:24:a0:7c:64:58:ef:af:
                    de:f1:28:23:32:9c:3e:f9:59:bb:1c:58:b9:a7:8e:
                    52:17:e6:37:53:c8:e3:e9:66:dc:db:94:2a:77:f4:
                    78:5a:58:e5:81:ee:60:df:dd:8f:01:55:b7:73:81:
                    06:25
                Exponent: 65537 (0x10001)
        X509v3 extensions:
            X509v3 Basic Constraints: 
                CA:FALSE
            X509v3 Subject Key Identifier: 
                BF:1F:EE:31:0D:74:3D:9F:3F:E0:A3:54:00:1F:16:F4:F8:24:BD:20
            X509v3 Authority Key Identifier: 
                keyid:77:7D:C9:1C:92:7C:60:FB:DE:0D:C0:4C:D1:AB:61:16:9D:59:95:DF
                DirName:/CN=team75-net
                serial:4F:94:C0:78:5D:7F:22:CB:52:31:33:BB:6F:CF:F1:AA:3D:25:BF:A4
            X509v3 Extended Key Usage: 
                TLS Web Client Authentication
            X509v3 Key Usage: 
                Digital Signature
    Signature Algorithm: sha256WithRSAEncryption
    Signature Value:
        ba:6a:6c:0c:68:d2:e9:43:e6:03:ad:31:75:e8:1e:b0:48:e9:
        f1:ca:08:81:8c:d5:52:a8:19:e3:da:03:87:02:50:67:55:62:
        84:8a:b9:f0:e1:17:82:9b:fb:cb:7c:20:e7:be:c5:5c:e5:58:
        f7:2c:c3:de:4c:51:e0:0a:84:0e:4b:e2:84:18:85:03:43:63:
        80:21:22:70:74:df:3f:a0:c1:9a:d7:9d:30:9a:7c:7b:e4:9e:
        1d:53:71:87:f5:fd:d1:23:9f:cc:cb:b5:92:5b:5d:84:a1:b8:
        6e:dd:08:95:42:e5:e4:9a:33:a5:7f:98:50:a8:7a:7a:27:b2:
        28:05:c3:29:b6:60:51:74:b7:a9:03:e9:31:1e:29:d4:57:f8:
        41:88:e8:a7:f4:01:19:4b:d3:6c:0f:84:97:55:de:ac:37:6d:
        8b:4f:11:2b:41:67:fa:96:80:e8:94:fb:44:79:6c:5c:f1:06:
        df:df:45:c1:98:8b:85:8a:f6:37:32:0d:c6:20:94:90:6f:c7:
        bf:a5:9f:9c:8f:83:d6:38:70:6e:b2:f0:29:0e:9c:ba:f2:43:
        08:93:0a:8e:a1:5e:83:e1:db:1c:d9:5a:dc:51:e6:d2:8e:5a:
        ad:fb:82:36:51:60:65:7b:68:58:92:23:bd:02:6b:c7:84:ad:
        d1:64:e9:29
-----BEGIN CERTIFICATE-----
MIIDWjCCAkKgAwIBAgIRAOxME0I0Iozi57cKlvue0mgwDQYJKoZIhvcNAQELBQAw
FTETMBEGA1UEAwwKdGVhbTc1LW5ldDAeFw0yMzExMDQxMDQxNDZaFw0yNjEwMTkx
MDQxNDZaMBgxFjAUBgNVBAMMDXRlYW03NS1jbGllbnQwggEiMA0GCSqGSIb3DQEB
AQUAA4IBDwAwggEKAoIBAQCevyRCjFto2Jr/G8Et5gY+7lss0qzh+61DrRuJTXSM
vxPdY/y6Y2G9NA8scHkAgC+gzy9mb3TXr06m+ZyXsFi8ECjG+WqUpm4kKSnMcEdM
J3ebs140+Ivy3LBntmJjYFZ0Uug+WBfx3gXUObUFqhFPaXNxLFHl/TqdeoOUvTyu
1IS2g9RI9x5e7tfsWhcTREFt+23eMAYWQHLfnGckXKZLMaIicmnta7SI+ucXgLT8
Ze7uEDIWUgs3Jdcy5P1v+LJmOqL6o+EeFQSVJKB8ZFjvr97xKCMynD75WbscWLmn
jlIX5jdTyOPpZtzblCp39HhaWOWB7mDf3Y8BVbdzgQYlAgMBAAGjgaEwgZ4wCQYD
VR0TBAIwADAdBgNVHQ4EFgQUvx/uMQ10PZ8/4KNUAB8W9PgkvSAwUAYDVR0jBEkw
R4AUd33JHJJ8YPveDcBM0athFp1Zld+hGaQXMBUxEzARBgNVBAMMCnRlYW03NS1u
ZXSCFE+UwHhdfyLLUjEzu2/P8ao9Jb+kMBMGA1UdJQQMMAoGCCsGAQUFBwMCMAsG
A1UdDwQEAwIHgDANBgkqhkiG9w0BAQsFAAOCAQEAumpsDGjS6UPmA60xdegesEjp
8coIgYzVUqgZ49oDhwJQZ1VihIq58OEXgpv7y3wg577FXOVY9yzD3kxR4AqEDkvi
hBiFA0NjgCEicHTfP6DBmtedMJp8e+SeHVNxh/X90SOfzMu1kltdhKG4bt0IlULl
5JozpX+YUKh6eieyKAXDKbZgUXS3qQPpMR4p1Ff4QYjop/QBGUvTbA+El1XerDdt
i08RK0Fn+paA6JT7RHlsXPEG399FwZiLhYr2NzINxiCUkG/Hv6WfnI+D1jhwbrLw
KQ6cuvJDCJMKjqFeg+HbHNla3FHm0o5arfuCNlFgZXtoWJIjvQJrx4St0WTpKQ==
-----END CERTIFICATE-----
