Certificate:
    Data:
        Version: 3 (0x2)
        Serial Number:
            f7:52:da:55:a2:be:5e:65:7f:b5:a0:f7:1d:06:87:be
        Signature Algorithm: sha256WithRSAEncryption
        Issuer: CN=team75-net
        Validity
            Not Before: Nov  4 11:28:50 2023 GMT
            Not After : Oct 19 11:28:50 2026 GMT
        Subject: CN=team75-client
        Subject Public Key Info:
            Public Key Algorithm: rsaEncryption
                Public-Key: (2048 bit)
                Modulus:
                    00:97:d0:32:e2:52:6b:ec:55:f6:b5:b0:55:8e:16:
                    9a:73:51:37:5d:e8:8e:30:96:73:3a:ad:db:43:de:
                    1c:22:b0:3b:0f:ff:ee:b8:7a:8a:97:ac:de:4f:b7:
                    75:49:13:d0:84:44:ea:8f:c8:b5:da:62:29:7c:d9:
                    82:15:95:35:65:74:9a:1b:58:9c:37:fa:9d:ad:1e:
                    a1:7e:49:4b:a0:f2:d4:0a:54:c3:89:61:b6:d8:c7:
                    48:51:87:e6:01:17:d3:98:b0:18:ee:85:39:92:fb:
                    90:a5:d6:52:dd:72:36:ce:cc:96:42:4c:d6:65:2f:
                    b5:0b:7f:07:d0:b4:f8:af:fa:29:b2:27:f9:99:e5:
                    bb:e8:d4:5a:de:49:e4:12:2d:2d:c1:be:f9:2c:ff:
                    82:11:2d:9a:97:92:bd:a9:a7:75:56:0c:aa:88:ee:
                    0a:1e:c4:49:81:f9:05:2f:bb:4f:7d:47:38:f4:cb:
                    86:19:f0:8a:6c:85:a6:30:45:5c:48:e9:81:3f:c4:
                    d0:2c:da:9f:56:25:38:44:24:f6:3a:f5:72:04:71:
                    09:ca:f1:19:24:b6:3b:ff:67:46:5f:58:46:35:93:
                    c8:2e:94:ac:e7:d5:6a:a3:8d:e0:ba:2c:81:b7:63:
                    77:16:26:12:3e:9f:3a:2c:40:8e:ef:ca:41:b8:8c:
                    b1:a1
                Exponent: 65537 (0x10001)
        X509v3 extensions:
            X509v3 Basic Constraints: 
                CA:FALSE
            X509v3 Subject Key Identifier: 
                62:66:D8:67:96:4A:8B:C0:3B:BE:75:C6:99:7D:B8:6A:93:29:6E:5C
            X509v3 Authority Key Identifier: 
                keyid:45:FB:0E:61:B0:F1:7E:F6:27:74:A5:B4:AE:35:2C:36:40:B4:4B:35
                DirName:/CN=team75-net
                serial:4C:51:E7:84:47:6C:CC:51:CA:F0:81:80:11:39:40:05:B6:99:51:C6
            X509v3 Extended Key Usage: 
                TLS Web Client Authentication
            X509v3 Key Usage: 
                Digital Signature
    Signature Algorithm: sha256WithRSAEncryption
    Signature Value:
        45:de:60:8c:37:50:cb:70:40:d9:0b:60:e1:a1:2d:34:b8:3a:
        90:7a:67:57:cf:a1:c1:60:5e:e6:62:11:7f:13:43:93:1d:e7:
        ca:05:19:72:27:eb:e9:85:be:27:f2:5e:91:d2:fb:9d:a0:f0:
        27:f3:d2:af:25:43:91:bb:74:6d:61:0c:f3:4a:69:63:00:84:
        7e:4c:10:38:bb:2b:f4:a4:08:21:b6:e3:c4:8c:d6:04:78:c7:
        30:e2:00:0f:ca:15:93:09:98:12:65:5a:0b:3e:bc:97:81:4a:
        c2:ae:8f:18:cd:74:b1:2a:94:44:37:df:d7:12:0f:41:c6:85:
        50:81:5d:30:84:6f:67:aa:4e:62:5e:66:98:51:6e:5c:e2:9a:
        8c:cc:23:3f:3b:ff:dd:da:b5:22:02:81:14:17:14:9e:a6:2f:
        7b:d0:b6:de:7a:29:a4:e2:b3:84:46:28:b2:56:60:7e:54:68:
        71:eb:7d:75:1a:ce:b8:7e:fa:dc:83:93:d3:2f:f6:c6:2d:35:
        27:b3:21:bc:2f:8b:6a:c8:b8:2d:23:d5:bf:0b:b3:a7:08:05:
        30:aa:d4:a4:4e:0a:dd:f1:6a:02:09:3b:6c:35:c4:de:a2:91:
        a9:2d:3b:b2:6a:e1:dd:8f:5d:49:03:fd:fc:93:5c:26:c2:30:
        36:5e:70:68
-----BEGIN CERTIFICATE-----
MIIDWjCCAkKgAwIBAgIRAPdS2lWivl5lf7Wg9x0Gh74wDQYJKoZIhvcNAQELBQAw
FTETMBEGA1UEAwwKdGVhbTc1LW5ldDAeFw0yMzExMDQxMTI4NTBaFw0yNjEwMTkx
MTI4NTBaMBgxFjAUBgNVBAMMDXRlYW03NS1jbGllbnQwggEiMA0GCSqGSIb3DQEB
AQUAA4IBDwAwggEKAoIBAQCX0DLiUmvsVfa1sFWOFppzUTdd6I4wlnM6rdtD3hwi
sDsP/+64eoqXrN5Pt3VJE9CEROqPyLXaYil82YIVlTVldJobWJw3+p2tHqF+SUug
8tQKVMOJYbbYx0hRh+YBF9OYsBjuhTmS+5Cl1lLdcjbOzJZCTNZlL7ULfwfQtPiv
+imyJ/mZ5bvo1FreSeQSLS3Bvvks/4IRLZqXkr2pp3VWDKqI7goexEmB+QUvu099
Rzj0y4YZ8IpshaYwRVxI6YE/xNAs2p9WJThEJPY69XIEcQnK8Rkktjv/Z0ZfWEY1
k8gulKzn1WqjjeC6LIG3Y3cWJhI+nzosQI7vykG4jLGhAgMBAAGjgaEwgZ4wCQYD
VR0TBAIwADAdBgNVHQ4EFgQUYmbYZ5ZKi8A7vnXGmX24apMpblwwUAYDVR0jBEkw
R4AURfsOYbDxfvYndKW0rjUsNkC0SzWhGaQXMBUxEzARBgNVBAMMCnRlYW03NS1u
ZXSCFExR54RHbMxRyvCBgBE5QAW2mVHGMBMGA1UdJQQMMAoGCCsGAQUFBwMCMAsG
A1UdDwQEAwIHgDANBgkqhkiG9w0BAQsFAAOCAQEARd5gjDdQy3BA2Qtg4aEtNLg6
kHpnV8+hwWBe5mIRfxNDkx3nygUZcifr6YW+J/JekdL7naDwJ/PSryVDkbt0bWEM
80ppYwCEfkwQOLsr9KQIIbbjxIzWBHjHMOIAD8oVkwmYEmVaCz68l4FKwq6PGM10
sSqURDff1xIPQcaFUIFdMIRvZ6pOYl5mmFFuXOKajMwjPzv/3dq1IgKBFBcUnqYv
e9C23noppOKzhEYoslZgflRocet9dRrOuH763IOT0y/2xi01J7MhvC+Lasi4LSPV
vwuzpwgFMKrUpE4K3fFqAgk7bDXE3qKRqS07smrh3Y9dSQP9/JNcJsIwNl5waA==
-----END CERTIFICATE-----
