Certificate:
    Data:
        Version: 3 (0x2)
        Serial Number:
            fd:49:ce:30:5a:f3:4e:09:f8:15:6a:9b:d4:8a:36:80
        Signature Algorithm: sha256WithRSAEncryption
        Issuer: CN=team75-net
        Validity
            Not Before: Nov  3 20:40:30 2023 GMT
            Not After : Oct 18 20:40:30 2026 GMT
        Subject: CN=team75-client
        Subject Public Key Info:
            Public Key Algorithm: rsaEncryption
                Public-Key: (2048 bit)
                Modulus:
                    00:e8:53:cb:3a:dd:10:34:51:ea:62:9e:66:c7:b9:
                    2d:e9:8c:16:36:51:1b:12:11:0e:ba:44:08:ee:7b:
                    56:25:23:7c:e6:d5:0f:3b:9e:63:f3:97:4b:dd:90:
                    bc:ec:cb:47:db:2a:71:2a:78:d6:1a:83:12:3e:42:
                    18:d0:12:22:7f:88:30:c5:89:75:cb:24:47:3e:97:
                    af:88:b0:56:16:55:2f:12:5a:85:f3:ed:43:26:66:
                    e7:6d:cb:ae:46:97:62:4a:22:c9:42:14:f5:91:b0:
                    c6:c9:26:c5:69:fa:8d:2c:b3:19:54:78:32:ab:b3:
                    c0:cc:6d:7f:57:46:e4:02:eb:ca:7c:6f:dc:ff:12:
                    bd:0f:8c:54:a8:1f:af:dc:5c:d7:ef:34:13:76:60:
                    a6:ae:97:6b:45:b1:64:89:7d:19:7e:7b:bd:dc:0e:
                    14:bc:2b:40:c3:1c:13:16:fa:a0:ce:a0:5e:d1:73:
                    1a:13:d2:0b:36:8e:4d:62:bb:88:ac:ef:28:ad:7c:
                    be:db:8e:df:79:bb:4d:a0:b1:66:8f:cc:ed:90:ac:
                    e8:56:8c:60:4b:ff:a9:b0:c5:4d:ab:d6:83:8e:bd:
                    12:e9:29:84:ae:37:99:97:15:2c:bd:42:fe:19:f6:
                    98:ee:b4:7d:13:21:37:30:7a:94:48:08:03:7b:87:
                    3f:d9
                Exponent: 65537 (0x10001)
        X509v3 extensions:
            X509v3 Basic Constraints: 
                CA:FALSE
            X509v3 Subject Key Identifier: 
                B0:93:2B:CC:65:5D:14:66:F8:ED:07:84:DF:C5:A0:55:9D:32:FC:81
            X509v3 Authority Key Identifier: 
                keyid:EC:56:E3:20:61:6C:00:C6:C7:26:18:82:A3:8D:E1:EC:B4:93:B3:4C
                DirName:/CN=team75-net
                serial:2C:96:82:EF:A1:25:50:D0:0A:03:A0:CE:E8:25:21:F6:AC:62:A0:C6
            X509v3 Extended Key Usage: 
                TLS Web Client Authentication
            X509v3 Key Usage: 
                Digital Signature
    Signature Algorithm: sha256WithRSAEncryption
    Signature Value:
        4c:69:88:fa:40:04:e2:f0:ce:c1:bb:d3:63:f1:22:ba:80:48:
        96:fe:e4:23:80:6f:04:d8:31:ae:3d:f6:6e:36:b3:1c:aa:ed:
        ba:2d:69:f6:13:34:cb:f1:b1:69:19:81:2c:e3:93:aa:1e:38:
        3f:46:88:6e:08:2a:52:5b:12:f4:18:9d:86:61:b6:1f:2e:37:
        34:39:2b:52:4c:86:1d:de:7c:a4:a2:ce:eb:4a:4c:f0:94:95:
        81:ba:8c:17:c1:42:8a:61:a5:f5:d3:6d:e0:d4:f2:63:4d:cb:
        c8:b6:e6:58:7a:d2:1b:3e:7d:31:ee:bc:ea:07:b8:c0:8b:46:
        7f:29:15:e6:82:53:c4:99:6f:27:0a:73:79:12:71:41:e4:d2:
        76:5e:fb:36:ed:f1:55:d3:bf:5f:2a:c0:01:02:7c:fb:77:c1:
        46:20:cb:16:92:82:95:39:ed:12:a4:89:13:5c:e9:f7:3d:7b:
        3b:8a:a7:92:73:c3:e9:8d:0b:71:3c:53:f7:07:60:33:4a:60:
        fe:76:50:56:19:73:bd:fd:9f:b4:ea:ef:df:17:3a:2e:21:1f:
        0b:d4:6d:39:bb:ee:59:71:80:1b:20:09:08:90:52:e3:3e:37:
        35:03:53:9a:75:91:34:b7:d9:c8:e7:03:f4:b1:17:c0:d4:b4:
        4c:dd:e9:8e
-----BEGIN CERTIFICATE-----
MIIDWjCCAkKgAwIBAgIRAP1JzjBa804J+BVqm9SKNoAwDQYJKoZIhvcNAQELBQAw
FTETMBEGA1UEAwwKdGVhbTc1LW5ldDAeFw0yMzExMDMyMDQwMzBaFw0yNjEwMTgy
MDQwMzBaMBgxFjAUBgNVBAMMDXRlYW03NS1jbGllbnQwggEiMA0GCSqGSIb3DQEB
AQUAA4IBDwAwggEKAoIBAQDoU8s63RA0UepinmbHuS3pjBY2URsSEQ66RAjue1Yl
I3zm1Q87nmPzl0vdkLzsy0fbKnEqeNYagxI+QhjQEiJ/iDDFiXXLJEc+l6+IsFYW
VS8SWoXz7UMmZudty65Gl2JKIslCFPWRsMbJJsVp+o0ssxlUeDKrs8DMbX9XRuQC
68p8b9z/Er0PjFSoH6/cXNfvNBN2YKaul2tFsWSJfRl+e73cDhS8K0DDHBMW+qDO
oF7RcxoT0gs2jk1iu4is7yitfL7bjt95u02gsWaPzO2QrOhWjGBL/6mwxU2r1oOO
vRLpKYSuN5mXFSy9Qv4Z9pjutH0TITcwepRICAN7hz/ZAgMBAAGjgaEwgZ4wCQYD
VR0TBAIwADAdBgNVHQ4EFgQUsJMrzGVdFGb47QeE38WgVZ0y/IEwUAYDVR0jBEkw
R4AU7FbjIGFsAMbHJhiCo43h7LSTs0yhGaQXMBUxEzARBgNVBAMMCnRlYW03NS1u
ZXSCFCyWgu+hJVDQCgOgzuglIfasYqDGMBMGA1UdJQQMMAoGCCsGAQUFBwMCMAsG
A1UdDwQEAwIHgDANBgkqhkiG9w0BAQsFAAOCAQEATGmI+kAE4vDOwbvTY/EiuoBI
lv7kI4BvBNgxrj32bjazHKrtui1p9hM0y/GxaRmBLOOTqh44P0aIbggqUlsS9Bid
hmG2Hy43NDkrUkyGHd58pKLO60pM8JSVgbqMF8FCimGl9dNt4NTyY03LyLbmWHrS
Gz59Me686ge4wItGfykV5oJTxJlvJwpzeRJxQeTSdl77Nu3xVdO/XyrAAQJ8+3fB
RiDLFpKClTntEqSJE1zp9z17O4qnknPD6Y0LcTxT9wdgM0pg/nZQVhlzvf2ftOrv
3xc6LiEfC9RtObvuWXGAGyAJCJBS4z43NQNTmnWRNLfZyOcD9LEXwNS0TN3pjg==
-----END CERTIFICATE-----
