Certificate:
    Data:
        Version: 3 (0x2)
        Serial Number:
            21:94:29:e8:07:94:c8:6b:72:3a:a2:9e:8f:42:19:16
        Signature Algorithm: sha256WithRSAEncryption
        Issuer: CN=team418-net
        Validity
            Not Before: Nov  4 11:36:52 2023 GMT
            Not After : Oct 19 11:36:52 2026 GMT
        Subject: CN=team418-client
        Subject Public Key Info:
            Public Key Algorithm: rsaEncryption
                Public-Key: (2048 bit)
                Modulus:
                    00:ae:29:a7:4c:f3:c0:d1:ed:99:88:fd:6d:cf:bc:
                    84:1c:28:3f:60:d6:5e:94:e7:a3:04:4d:43:ed:93:
                    7a:2f:b1:9c:88:d2:d9:27:23:cd:d6:d5:25:e3:57:
                    59:dc:43:79:14:14:6a:59:bf:aa:ae:e6:97:fa:3f:
                    6c:ea:b3:c7:87:9e:9e:44:70:65:90:d8:0f:ec:1c:
                    7a:8a:87:ed:8b:af:85:1a:ef:e5:8e:ec:d4:1e:47:
                    41:36:e9:f5:bd:97:1e:cf:b3:2a:bb:5c:61:96:93:
                    39:83:75:67:d6:3b:a9:61:b4:33:2a:ef:e5:6b:69:
                    20:f2:0b:3b:f4:3f:ff:f5:7b:d9:a8:83:f5:ff:f4:
                    b9:8e:ef:a2:6a:0a:a9:a8:99:f1:a8:00:d4:b7:f1:
                    5f:13:f0:32:3b:57:99:5a:ef:df:0c:98:52:d4:6c:
                    16:b5:4e:fc:cb:23:2b:71:0f:2f:ba:ed:1b:f8:97:
                    c7:b9:ec:41:12:8b:fe:06:8f:53:14:03:e9:3a:58:
                    df:d4:f7:40:c9:5b:45:df:00:49:08:d2:87:cc:0e:
                    2f:d1:92:c4:cb:9a:9b:04:b1:84:95:53:2b:6d:89:
                    15:5b:2c:f6:7d:0d:fa:03:be:8f:7f:15:f5:80:1e:
                    40:64:0a:91:85:19:7f:27:fb:da:fb:20:44:b9:c1:
                    e5:87
                Exponent: 65537 (0x10001)
        X509v3 extensions:
            X509v3 Basic Constraints: 
                CA:FALSE
            X509v3 Subject Key Identifier: 
                4B:DF:1C:03:E6:29:A1:07:4E:8A:9E:E5:CF:B9:3A:D6:1A:A8:90:F9
            X509v3 Authority Key Identifier: 
                keyid:D2:6A:5E:79:D5:A2:83:F4:BB:01:C2:82:9E:B3:2A:C7:7D:7C:59:E3
                DirName:/CN=team418-net
                serial:10:FF:E3:4B:C7:75:39:D9:4A:EE:00:2C:68:AE:7F:6B:AB:76:57:B1
            X509v3 Extended Key Usage: 
                TLS Web Client Authentication
            X509v3 Key Usage: 
                Digital Signature
    Signature Algorithm: sha256WithRSAEncryption
    Signature Value:
        9a:5b:ff:00:49:69:90:94:c5:83:1b:db:f6:b8:f4:fc:d1:8c:
        e8:63:77:ab:de:47:32:89:6c:18:b5:13:b7:2a:f9:ee:3c:f8:
        c1:cc:3f:da:eb:a5:e1:9e:3b:4e:87:e9:de:80:70:f3:99:24:
        87:2b:d0:79:64:b6:95:72:d5:4b:31:c3:0c:19:28:08:60:a4:
        9c:f5:65:d0:8a:dd:68:fe:97:04:bf:86:23:92:a2:0b:73:f1:
        90:7d:fa:14:46:26:20:52:f3:4d:cc:f1:0b:c7:22:27:d6:0a:
        22:fc:dd:40:b1:d5:be:7e:eb:1a:2e:8e:7a:88:17:21:03:db:
        0a:ff:6f:5f:76:9f:1e:0e:49:db:c7:6f:1f:b0:37:08:3d:46:
        44:f5:1a:30:5c:96:9d:a4:a2:d9:98:66:c6:24:df:39:2d:5f:
        91:59:1d:8c:ca:e4:24:99:1f:e8:6b:59:40:89:0a:eb:2e:a4:
        33:1a:f4:53:b7:b0:ef:13:34:c6:bc:a4:19:dd:4c:a9:10:08:
        0f:72:c0:62:fb:25:86:f6:5d:7c:8f:e5:ee:ba:47:26:54:a6:
        c2:1c:ab:50:2d:b5:dc:34:37:c7:d8:6d:c6:c1:59:d4:ad:48:
        0e:c0:ad:24:fc:a4:5f:d2:11:e5:1a:5e:d5:d8:d1:ac:b4:3e:
        55:1c:8f:eb
-----BEGIN CERTIFICATE-----
MIIDXDCCAkSgAwIBAgIQIZQp6AeUyGtyOqKej0IZFjANBgkqhkiG9w0BAQsFADAW
MRQwEgYDVQQDDAt0ZWFtNDE4LW5ldDAeFw0yMzExMDQxMTM2NTJaFw0yNjEwMTkx
MTM2NTJaMBkxFzAVBgNVBAMMDnRlYW00MTgtY2xpZW50MIIBIjANBgkqhkiG9w0B
AQEFAAOCAQ8AMIIBCgKCAQEArimnTPPA0e2ZiP1tz7yEHCg/YNZelOejBE1D7ZN6
L7GciNLZJyPN1tUl41dZ3EN5FBRqWb+qruaX+j9s6rPHh56eRHBlkNgP7Bx6ioft
i6+FGu/ljuzUHkdBNun1vZcez7Mqu1xhlpM5g3Vn1jupYbQzKu/la2kg8gs79D//
9XvZqIP1//S5ju+iagqpqJnxqADUt/FfE/AyO1eZWu/fDJhS1GwWtU78yyMrcQ8v
uu0b+JfHuexBEov+Bo9TFAPpOljf1PdAyVtF3wBJCNKHzA4v0ZLEy5qbBLGElVMr
bYkVWyz2fQ36A76PfxX1gB5AZAqRhRl/J/va+yBEucHlhwIDAQABo4GiMIGfMAkG
A1UdEwQCMAAwHQYDVR0OBBYEFEvfHAPmKaEHToqe5c+5OtYaqJD5MFEGA1UdIwRK
MEiAFNJqXnnVooP0uwHCgp6zKsd9fFnjoRqkGDAWMRQwEgYDVQQDDAt0ZWFtNDE4
LW5ldIIUEP/jS8d1OdlK7gAsaK5/a6t2V7EwEwYDVR0lBAwwCgYIKwYBBQUHAwIw
CwYDVR0PBAQDAgeAMA0GCSqGSIb3DQEBCwUAA4IBAQCaW/8ASWmQlMWDG9v2uPT8
0YzoY3er3kcyiWwYtRO3KvnuPPjBzD/a66XhnjtOh+negHDzmSSHK9B5ZLaVctVL
McMMGSgIYKSc9WXQit1o/pcEv4YjkqILc/GQffoURiYgUvNNzPELxyIn1goi/N1A
sdW+fusaLo56iBchA9sK/29fdp8eDknbx28fsDcIPUZE9RowXJadpKLZmGbGJN85
LV+RWR2MyuQkmR/oa1lAiQrrLqQzGvRTt7DvEzTGvKQZ3UypEAgPcsBi+yWG9l18
j+XuukcmVKbCHKtQLbXcNDfH2G3GwVnUrUgOwK0k/KRf0hHlGl7V2NGstD5VHI/r
-----END CERTIFICATE-----
