Certificate:
    Data:
        Version: 3 (0x2)
        Serial Number:
            fe:94:f6:b5:3d:00:8a:0b:28:fa:44:8e:2d:a9:d6:77
        Signature Algorithm: sha256WithRSAEncryption
        Issuer: CN=team418-net
        Validity
            Not Before: Nov  4 11:36:53 2023 GMT
            Not After : Oct 19 11:36:53 2026 GMT
        Subject: CN=team418-server
        Subject Public Key Info:
            Public Key Algorithm: rsaEncryption
                Public-Key: (2048 bit)
                Modulus:
                    00:a1:ec:4e:8d:0e:df:8e:69:39:da:9c:1f:2e:79:
                    63:89:6d:a6:2f:2e:43:d7:44:2b:b5:a2:57:20:2a:
                    17:77:4a:69:a1:8d:7b:41:1c:3c:b9:ed:67:ec:b0:
                    38:28:ef:17:96:d2:9a:7b:e2:74:c6:b2:d1:92:09:
                    37:57:16:7e:24:95:38:53:c2:e7:2a:4a:2b:68:5b:
                    da:31:22:90:8f:32:24:41:df:54:4d:b9:02:4c:f8:
                    fe:61:c8:44:15:b9:34:43:07:66:84:f7:eb:06:ce:
                    cf:7b:af:92:c0:43:86:0b:d7:f1:3d:31:06:00:5f:
                    e8:de:94:c2:94:f5:8c:5a:92:40:46:c7:b4:5e:bf:
                    f3:f1:b2:87:4a:88:f4:ad:96:d1:fe:10:f1:29:19:
                    95:5d:70:9b:68:1c:e0:a3:15:88:90:57:b9:26:13:
                    9c:cc:87:4a:9d:1a:d8:24:17:1c:25:ab:55:10:ef:
                    76:c1:ad:09:5f:cf:18:1c:c2:68:03:87:e6:73:d1:
                    99:63:11:9b:ac:cf:da:4a:35:1b:77:1d:41:d2:2f:
                    12:90:23:a5:af:8f:09:84:72:0e:13:e2:36:15:45:
                    84:fd:18:f2:90:d4:6a:3d:3c:b6:be:d5:ed:3c:61:
                    02:f9:ed:81:88:6d:86:d0:5f:a9:b7:75:01:07:6d:
                    f1:c3
                Exponent: 65537 (0x10001)
        X509v3 extensions:
            X509v3 Basic Constraints: 
                CA:FALSE
            X509v3 Subject Key Identifier: 
                BF:34:1D:39:40:AC:66:0A:E4:89:B2:5A:FA:87:81:10:E0:A5:08:83
            X509v3 Authority Key Identifier: 
                keyid:D2:6A:5E:79:D5:A2:83:F4:BB:01:C2:82:9E:B3:2A:C7:7D:7C:59:E3
                DirName:/CN=team418-net
                serial:10:FF:E3:4B:C7:75:39:D9:4A:EE:00:2C:68:AE:7F:6B:AB:76:57:B1
            X509v3 Extended Key Usage: 
                TLS Web Server Authentication
            X509v3 Key Usage: 
                Digital Signature, Key Encipherment
            X509v3 Subject Alternative Name: 
                DNS:team418-server
    Signature Algorithm: sha256WithRSAEncryption
    Signature Value:
        57:68:03:00:b4:74:37:cc:24:6d:98:e1:40:46:c1:56:b9:be:
        1d:b7:61:2c:d0:71:a9:e7:86:ae:5f:f4:4f:32:2f:c2:2b:33:
        95:7c:59:79:fc:8a:1e:a7:35:cb:11:29:3e:fc:42:09:f5:09:
        1e:87:8f:93:48:78:8d:5a:e9:4b:ff:56:e4:74:31:ee:94:0e:
        e6:94:1f:80:84:ca:95:b0:06:19:07:f6:9c:d1:2c:47:fa:7d:
        b1:85:5d:ad:6d:5e:c0:7b:a8:54:6d:65:67:08:a2:be:b2:d6:
        12:d6:9c:4d:3a:96:fd:12:ee:db:83:2c:ef:20:8d:24:f7:47:
        b3:89:32:50:67:82:d3:07:13:f9:5a:bf:40:0c:e4:97:20:47:
        de:d8:d7:a5:37:1b:85:55:e3:ee:98:eb:78:43:29:96:7f:55:
        8d:49:20:2c:e9:96:ab:99:dd:46:35:19:99:7a:26:ae:0e:a2:
        8a:74:ed:2f:9f:9d:03:b2:c6:3f:ad:71:0b:20:7c:06:7e:6f:
        1b:a4:fd:f2:e5:b2:32:b9:96:a0:22:de:c8:13:1f:7f:ee:50:
        b1:78:9d:e2:7c:4e:a1:71:1f:fd:f0:29:fe:82:7d:77:93:36:
        42:6e:53:4a:a3:0f:e8:ce:9f:7e:79:19:07:b6:b3:f9:56:40:
        97:8e:46:09
-----BEGIN CERTIFICATE-----
MIIDeDCCAmCgAwIBAgIRAP6U9rU9AIoLKPpEji2p1ncwDQYJKoZIhvcNAQELBQAw
FjEUMBIGA1UEAwwLdGVhbTQxOC1uZXQwHhcNMjMxMTA0MTEzNjUzWhcNMjYxMDE5
MTEzNjUzWjAZMRcwFQYDVQQDDA50ZWFtNDE4LXNlcnZlcjCCASIwDQYJKoZIhvcN
AQEBBQADggEPADCCAQoCggEBAKHsTo0O345pOdqcHy55Y4ltpi8uQ9dEK7WiVyAq
F3dKaaGNe0EcPLntZ+ywOCjvF5bSmnvidMay0ZIJN1cWfiSVOFPC5ypKK2hb2jEi
kI8yJEHfVE25Akz4/mHIRBW5NEMHZoT36wbOz3uvksBDhgvX8T0xBgBf6N6UwpT1
jFqSQEbHtF6/8/Gyh0qI9K2W0f4Q8SkZlV1wm2gc4KMViJBXuSYTnMyHSp0a2CQX
HCWrVRDvdsGtCV/PGBzCaAOH5nPRmWMRm6zP2ko1G3cdQdIvEpAjpa+PCYRyDhPi
NhVFhP0Y8pDUaj08tr7V7TxhAvntgYhthtBfqbd1AQdt8cMCAwEAAaOBvTCBujAJ
BgNVHRMEAjAAMB0GA1UdDgQWBBS/NB05QKxmCuSJslr6h4EQ4KUIgzBRBgNVHSME
SjBIgBTSal551aKD9LsBwoKesyrHfXxZ46EapBgwFjEUMBIGA1UEAwwLdGVhbTQx
OC1uZXSCFBD/40vHdTnZSu4ALGiuf2urdlexMBMGA1UdJQQMMAoGCCsGAQUFBwMB
MAsGA1UdDwQEAwIFoDAZBgNVHREEEjAQgg50ZWFtNDE4LXNlcnZlcjANBgkqhkiG
9w0BAQsFAAOCAQEAV2gDALR0N8wkbZjhQEbBVrm+HbdhLNBxqeeGrl/0TzIvwisz
lXxZefyKHqc1yxEpPvxCCfUJHoePk0h4jVrpS/9W5HQx7pQO5pQfgITKlbAGGQf2
nNEsR/p9sYVdrW1ewHuoVG1lZwiivrLWEtacTTqW/RLu24Ms7yCNJPdHs4kyUGeC
0wcT+Vq/QAzklyBH3tjXpTcbhVXj7pjreEMpln9VjUkgLOmWq5ndRjUZmXomrg6i
inTtL5+dA7LGP61xCyB8Bn5vG6T98uWyMrmWoCLeyBMff+5QsXid4nxOoXEf/fAp
/oJ9d5M2Qm5TSqMP6M6ffnkZB7az+VZAl45GCQ==
-----END CERTIFICATE-----
