Certificate:
    Data:
        Version: 3 (0x2)
        Serial Number:
            27:97:f1:90:f8:42:57:17:d4:e2:5f:28:4a:15:e6:0a
        Signature Algorithm: sha256WithRSAEncryption
        Issuer: CN=team199-net
        Validity
            Not Before: Nov  4 10:44:16 2023 GMT
            Not After : Oct 19 10:44:16 2026 GMT
        Subject: CN=team199-client
        Subject Public Key Info:
            Public Key Algorithm: rsaEncryption
                Public-Key: (2048 bit)
                Modulus:
                    00:a6:b5:f7:9b:cc:d3:74:fb:38:d7:09:63:24:6b:
                    9f:47:64:e1:e1:65:0a:83:cc:bf:59:75:15:67:a1:
                    57:1e:44:49:81:43:37:cb:4c:78:da:bf:e2:09:c4:
                    38:66:2b:13:c9:f2:54:f7:40:3f:b7:aa:f7:d8:b7:
                    25:77:1a:89:8f:12:e8:b8:8c:7e:86:af:ac:b9:70:
                    7f:a0:ba:cd:95:55:16:2c:9b:59:f3:0f:5d:8f:15:
                    8e:9c:4d:be:43:57:16:5c:ba:75:7f:22:99:e6:34:
                    56:7c:54:76:ee:5f:d6:a1:e2:68:c4:49:7f:c8:d9:
                    51:86:d5:47:91:12:33:cd:87:f0:f9:cb:88:97:b8:
                    c0:7a:cf:c9:63:17:85:1e:19:b5:53:dd:bd:72:d7:
                    75:b9:d1:44:96:23:3a:e7:6d:1e:6e:24:55:42:87:
                    86:7c:1c:2a:cc:97:7d:94:7e:0b:42:e1:50:5c:aa:
                    eb:70:1c:f5:69:7f:7f:b2:74:39:f1:04:18:03:94:
                    33:ac:d2:dc:a6:e4:bd:cb:c0:3d:1d:91:ba:40:41:
                    17:1c:ef:79:d1:b2:3e:b0:28:9b:a1:04:47:87:99:
                    92:7f:1f:4d:2f:6f:74:1c:cf:7e:69:ba:7e:9d:6d:
                    61:f8:2b:9e:84:74:b2:18:df:77:83:76:ca:d3:bb:
                    a6:fb
                Exponent: 65537 (0x10001)
        X509v3 extensions:
            X509v3 Basic Constraints: 
                CA:FALSE
            X509v3 Subject Key Identifier: 
                47:25:D1:95:16:4D:EC:95:46:2D:51:35:75:45:9C:FE:53:12:38:BF
            X509v3 Authority Key Identifier: 
                keyid:1E:A0:FD:73:4C:8D:71:88:32:59:1C:94:0D:C5:24:AD:00:30:D4:53
                DirName:/CN=team199-net
                serial:13:2F:D8:EA:DE:3A:B2:E0:AE:19:62:6A:F3:38:FE:71:3C:47:2C:45
            X509v3 Extended Key Usage: 
                TLS Web Client Authentication
            X509v3 Key Usage: 
                Digital Signature
    Signature Algorithm: sha256WithRSAEncryption
    Signature Value:
        64:10:3a:f9:51:64:27:9d:74:88:e7:34:19:23:aa:20:43:d9:
        7a:59:02:80:03:b2:f9:97:2e:d1:aa:85:ef:2d:35:b6:5b:01:
        02:3c:41:fe:bc:65:a5:b0:e2:f7:e3:61:8a:23:5a:87:e8:2c:
        76:b8:91:01:8f:bb:76:f0:24:71:d8:b0:d3:94:a5:b3:c4:c2:
        14:c0:bc:d0:08:b2:0a:21:12:20:77:0b:9d:60:41:bc:59:69:
        27:85:21:e7:00:28:60:64:a7:cf:0a:96:cb:8a:a0:03:82:98:
        c9:01:a8:5c:92:65:71:6c:6c:bf:c4:c5:fd:12:5b:03:52:f4:
        ea:61:c5:08:b9:f6:63:a8:f9:87:92:5f:92:dc:1e:57:1b:5c:
        2a:32:cf:0c:79:d6:a1:28:4d:55:7f:23:5a:7e:7e:9d:02:e5:
        79:bf:c8:7f:98:b3:33:49:9a:4d:fc:6d:54:6d:cb:38:0d:08:
        fc:ae:ea:78:87:2a:9c:5a:30:77:b7:e6:24:08:11:ab:06:94:
        6f:79:8f:fe:81:b5:2f:60:1c:41:65:49:b2:ef:58:9d:a6:58:
        3d:b5:10:47:4f:1b:5f:65:4e:b2:87:e3:f0:4e:0d:43:47:a2:
        01:f8:f1:d6:76:ed:16:a8:5b:93:b9:fc:3d:74:87:8d:a3:77:
        a8:61:7e:f8
-----BEGIN CERTIFICATE-----
MIIDXDCCAkSgAwIBAgIQJ5fxkPhCVxfU4l8oShXmCjANBgkqhkiG9w0BAQsFADAW
MRQwEgYDVQQDDAt0ZWFtMTk5LW5ldDAeFw0yMzExMDQxMDQ0MTZaFw0yNjEwMTkx
MDQ0MTZaMBkxFzAVBgNVBAMMDnRlYW0xOTktY2xpZW50MIIBIjANBgkqhkiG9w0B
AQEFAAOCAQ8AMIIBCgKCAQEAprX3m8zTdPs41wljJGufR2Th4WUKg8y/WXUVZ6FX
HkRJgUM3y0x42r/iCcQ4ZisTyfJU90A/t6r32LcldxqJjxLouIx+hq+suXB/oLrN
lVUWLJtZ8w9djxWOnE2+Q1cWXLp1fyKZ5jRWfFR27l/WoeJoxEl/yNlRhtVHkRIz
zYfw+cuIl7jAes/JYxeFHhm1U929ctd1udFEliM6520ebiRVQoeGfBwqzJd9lH4L
QuFQXKrrcBz1aX9/snQ58QQYA5QzrNLcpuS9y8A9HZG6QEEXHO950bI+sCiboQRH
h5mSfx9NL290HM9+abp+nW1h+CuehHSyGN93g3bK07um+wIDAQABo4GiMIGfMAkG
A1UdEwQCMAAwHQYDVR0OBBYEFEcl0ZUWTeyVRi1RNXVFnP5TEji/MFEGA1UdIwRK
MEiAFB6g/XNMjXGIMlkclA3FJK0AMNRToRqkGDAWMRQwEgYDVQQDDAt0ZWFtMTk5
LW5ldIIUEy/Y6t46suCuGWJq8zj+cTxHLEUwEwYDVR0lBAwwCgYIKwYBBQUHAwIw
CwYDVR0PBAQDAgeAMA0GCSqGSIb3DQEBCwUAA4IBAQBkEDr5UWQnnXSI5zQZI6og
Q9l6WQKAA7L5ly7RqoXvLTW2WwECPEH+vGWlsOL342GKI1qH6Cx2uJEBj7t28CRx
2LDTlKWzxMIUwLzQCLIKIRIgdwudYEG8WWknhSHnAChgZKfPCpbLiqADgpjJAahc
kmVxbGy/xMX9ElsDUvTqYcUIufZjqPmHkl+S3B5XG1wqMs8MedahKE1VfyNafn6d
AuV5v8h/mLMzSZpN/G1Ubcs4DQj8rup4hyqcWjB3t+YkCBGrBpRveY/+gbUvYBxB
ZUmy71idplg9tRBHTxtfZU6yh+PwTg1DR6IB+PHWdu0WqFuTufw9dIeNo3eoYX74
-----END CERTIFICATE-----
