Certificate:
    Data:
        Version: 3 (0x2)
        Serial Number:
            60:de:32:5d:ba:65:86:31:07:c7:c6:4b:75:c5:22:68
        Signature Algorithm: sha256WithRSAEncryption
        Issuer: CN=team199-net
        Validity
            Not Before: Nov  4 11:31:33 2023 GMT
            Not After : Oct 19 11:31:33 2026 GMT
        Subject: CN=team199-client
        Subject Public Key Info:
            Public Key Algorithm: rsaEncryption
                Public-Key: (2048 bit)
                Modulus:
                    00:ac:03:5b:54:7d:d3:a6:13:d7:b1:3d:25:46:94:
                    a3:4c:9a:2a:3a:71:02:f4:fe:f2:3f:79:25:67:d5:
                    f9:86:14:50:f7:fc:a2:4f:f8:da:59:e8:59:38:56:
                    77:ba:10:30:f8:a3:05:e7:c4:37:20:5a:72:2c:be:
                    3d:c8:b9:f9:7e:65:d0:ee:9a:2d:c7:88:fe:86:aa:
                    0c:07:d4:e3:01:2a:31:69:30:d2:a6:88:17:83:fb:
                    e6:0f:8b:f5:90:bf:33:6f:a7:02:54:20:61:cc:cc:
                    8f:c6:23:2e:29:67:aa:dd:23:4d:bf:2d:eb:e1:aa:
                    29:cc:6f:7f:7e:0c:fc:d4:a7:e4:de:17:9d:32:8d:
                    6d:cf:93:ee:59:cd:2f:0d:2e:97:46:67:e1:16:81:
                    43:08:7a:f6:8e:db:b7:19:42:f3:38:ab:2f:e6:df:
                    9c:ac:af:1b:b3:03:37:f9:ad:8d:ef:a3:93:0a:f0:
                    e2:cf:a9:2e:ab:65:7e:93:f0:0f:32:0d:d4:22:ed:
                    96:c5:c2:23:28:c8:e7:fc:22:7f:da:59:7d:3f:58:
                    68:c3:f1:14:ed:39:02:d4:51:a2:79:21:64:d7:0d:
                    4c:95:16:d0:86:8e:94:59:e7:d5:15:4f:e9:68:96:
                    10:f6:d4:a1:e3:72:36:da:83:59:cb:9f:50:5f:21:
                    ac:2d
                Exponent: 65537 (0x10001)
        X509v3 extensions:
            X509v3 Basic Constraints: 
                CA:FALSE
            X509v3 Subject Key Identifier: 
                C8:BB:60:6F:EA:96:5A:7F:71:69:4E:6A:AF:49:62:20:FF:1E:65:C3
            X509v3 Authority Key Identifier: 
                keyid:A0:D6:EA:46:B1:A6:9D:7E:AE:FD:D0:80:A4:68:BB:97:AF:66:A8:B6
                DirName:/CN=team199-net
                serial:4E:05:3C:BE:AB:EB:74:21:1B:FD:5D:21:B7:43:DE:07:78:A1:D8:80
            X509v3 Extended Key Usage: 
                TLS Web Client Authentication
            X509v3 Key Usage: 
                Digital Signature
    Signature Algorithm: sha256WithRSAEncryption
    Signature Value:
        14:c6:2d:f1:29:86:cc:a4:1e:11:1a:6e:e2:3d:75:ad:04:eb:
        ed:25:31:db:86:66:6c:c2:41:16:fe:72:5b:95:3d:1d:49:0c:
        41:d5:d9:e5:04:8a:91:46:47:f1:20:a7:6a:02:fb:31:56:b9:
        69:4b:09:1d:5b:4d:66:26:d0:12:93:90:9d:77:ae:cf:f7:29:
        0c:33:f0:bb:8e:08:3f:4e:b7:f5:6d:94:0d:ce:8b:aa:6d:c4:
        02:67:b8:1f:9c:61:b0:71:ca:33:53:df:f9:f7:34:69:6e:61:
        0f:3d:d1:85:63:95:93:64:07:29:cd:a0:ab:1d:d2:6b:2a:7f:
        f8:02:1a:ff:73:16:10:d9:ee:1c:81:96:90:fa:6f:b5:1e:27:
        69:2e:d9:69:56:2f:a7:43:0f:97:ee:cf:94:37:d7:ce:8c:b9:
        90:4f:4d:1f:f2:ae:6b:48:30:91:6f:98:be:3e:d8:21:af:43:
        58:65:6b:92:fe:e1:08:e9:a7:99:a5:8f:e5:2c:75:11:f2:0e:
        91:2c:65:0f:f6:72:a2:05:c6:b8:dd:cc:a2:fd:0b:bc:a3:c1:
        09:f8:2a:ce:5a:19:06:78:09:d7:2c:c5:61:2f:10:5f:b4:6e:
        c4:14:f6:df:17:f5:3d:e8:35:70:dd:50:25:92:bf:37:30:68:
        0c:f9:42:e2
-----BEGIN CERTIFICATE-----
MIIDXDCCAkSgAwIBAgIQYN4yXbplhjEHx8ZLdcUiaDANBgkqhkiG9w0BAQsFADAW
MRQwEgYDVQQDDAt0ZWFtMTk5LW5ldDAeFw0yMzExMDQxMTMxMzNaFw0yNjEwMTkx
MTMxMzNaMBkxFzAVBgNVBAMMDnRlYW0xOTktY2xpZW50MIIBIjANBgkqhkiG9w0B
AQEFAAOCAQ8AMIIBCgKCAQEArANbVH3TphPXsT0lRpSjTJoqOnEC9P7yP3klZ9X5
hhRQ9/yiT/jaWehZOFZ3uhAw+KMF58Q3IFpyLL49yLn5fmXQ7potx4j+hqoMB9Tj
ASoxaTDSpogXg/vmD4v1kL8zb6cCVCBhzMyPxiMuKWeq3SNNvy3r4aopzG9/fgz8
1Kfk3hedMo1tz5PuWc0vDS6XRmfhFoFDCHr2jtu3GULzOKsv5t+crK8bswM3+a2N
76OTCvDiz6kuq2V+k/APMg3UIu2WxcIjKMjn/CJ/2ll9P1how/EU7TkC1FGieSFk
1w1MlRbQho6UWefVFU/paJYQ9tSh43I22oNZy59QXyGsLQIDAQABo4GiMIGfMAkG
A1UdEwQCMAAwHQYDVR0OBBYEFMi7YG/qllp/cWlOaq9JYiD/HmXDMFEGA1UdIwRK
MEiAFKDW6kaxpp1+rv3QgKRou5evZqi2oRqkGDAWMRQwEgYDVQQDDAt0ZWFtMTk5
LW5ldIIUTgU8vqvrdCEb/V0ht0PeB3ih2IAwEwYDVR0lBAwwCgYIKwYBBQUHAwIw
CwYDVR0PBAQDAgeAMA0GCSqGSIb3DQEBCwUAA4IBAQAUxi3xKYbMpB4RGm7iPXWt
BOvtJTHbhmZswkEW/nJblT0dSQxB1dnlBIqRRkfxIKdqAvsxVrlpSwkdW01mJtAS
k5Cdd67P9ykMM/C7jgg/Trf1bZQNzouqbcQCZ7gfnGGwccozU9/59zRpbmEPPdGF
Y5WTZAcpzaCrHdJrKn/4Ahr/cxYQ2e4cgZaQ+m+1HidpLtlpVi+nQw+X7s+UN9fO
jLmQT00f8q5rSDCRb5i+Ptghr0NYZWuS/uEI6aeZpY/lLHUR8g6RLGUP9nKiBca4
3cyi/Qu8o8EJ+CrOWhkGeAnXLMVhLxBftG7EFPbfF/U96DVw3VAlkr83MGgM+ULi
-----END CERTIFICATE-----
