Certificate:
    Data:
        Version: 3 (0x2)
        Serial Number:
            6b:3b:4d:41:fe:f0:25:bf:44:78:2d:5b:bc:46:1e:bc
        Signature Algorithm: sha256WithRSAEncryption
        Issuer: CN=team199-net
        Validity
            Not Before: Nov  3 20:42:53 2023 GMT
            Not After : Oct 18 20:42:53 2026 GMT
        Subject: CN=team199-client
        Subject Public Key Info:
            Public Key Algorithm: rsaEncryption
                Public-Key: (2048 bit)
                Modulus:
                    00:b0:87:d5:c3:5b:d5:22:90:1a:b6:1c:f2:2b:3f:
                    82:72:19:70:7c:56:20:60:e3:69:96:4e:77:62:c8:
                    12:c4:c2:86:f7:bd:40:37:02:39:ad:e9:2d:24:1d:
                    36:c9:36:a2:23:a6:34:50:7d:72:95:e8:4e:f8:a6:
                    de:85:85:51:fe:12:73:93:5b:97:b6:60:47:bc:44:
                    c5:08:1e:1d:22:7a:86:ea:1c:a5:12:b3:0e:35:82:
                    3d:16:ba:38:30:7b:94:3b:0d:71:9c:2c:8d:8e:1c:
                    dd:bc:d9:08:32:f0:6d:13:28:a8:ce:0f:07:d6:80:
                    dc:a4:38:7c:07:9f:9d:d3:84:be:67:a9:20:ca:a0:
                    24:e0:9e:4c:37:cd:1e:26:47:bb:00:bd:b9:36:8d:
                    73:06:ca:be:10:a8:61:b0:12:92:cf:e4:71:80:e6:
                    e9:ef:ae:ec:7b:98:ea:ba:6c:1d:16:b4:bf:9f:37:
                    af:cf:44:df:81:f6:52:e8:2a:0b:6a:a5:b6:57:e6:
                    c7:ba:3b:12:88:8e:0f:53:40:a7:1b:8b:8b:e8:a9:
                    d0:4e:9e:67:eb:42:8b:c6:1a:66:15:b6:13:0b:fc:
                    2c:85:48:d1:cc:c0:f9:30:76:4a:a7:c8:fc:d0:fc:
                    0a:ee:d9:37:75:6c:2c:b5:2b:47:49:bf:57:b3:7c:
                    8a:55
                Exponent: 65537 (0x10001)
        X509v3 extensions:
            X509v3 Basic Constraints: 
                CA:FALSE
            X509v3 Subject Key Identifier: 
                B8:93:56:39:84:2A:CE:8B:A1:A9:A9:89:A5:61:70:1B:CD:6E:8A:B0
            X509v3 Authority Key Identifier: 
                keyid:CE:BE:DF:F5:CF:8E:9C:C9:E7:72:E2:7B:D3:33:B1:B4:10:9D:EE:96
                DirName:/CN=team199-net
                serial:04:FB:67:02:69:0C:AA:F6:D1:67:68:A8:A6:72:FA:89:0A:A9:69:82
            X509v3 Extended Key Usage: 
                TLS Web Client Authentication
            X509v3 Key Usage: 
                Digital Signature
    Signature Algorithm: sha256WithRSAEncryption
    Signature Value:
        a2:36:8f:36:dc:ce:8b:d6:f5:81:46:6b:d6:54:5a:5e:1b:23:
        8b:17:aa:0e:61:1d:a7:70:ff:05:46:e3:e5:8f:71:0f:46:c4:
        26:a0:77:47:d8:62:77:a2:14:a7:f7:bc:f5:4a:0e:ff:a9:9c:
        1a:5a:1c:9d:06:84:0a:c6:6c:fe:24:a0:f4:a1:ea:4f:cc:95:
        42:4a:ca:17:ed:43:e6:23:97:f8:8b:fe:2b:62:6a:21:59:e0:
        08:b6:20:6c:7d:31:45:5a:08:19:a5:1a:3f:ea:cd:eb:cb:e7:
        12:cc:32:65:6d:92:41:25:52:78:aa:47:57:bd:b0:1f:ee:3f:
        17:29:fe:c2:84:04:14:5b:5f:8c:07:69:7b:9e:5b:ae:8a:58:
        36:7b:44:46:58:af:ef:c2:ba:a7:92:ce:87:a1:84:af:e6:39:
        2c:a2:f7:2b:f7:44:2b:68:20:2f:2e:42:25:fb:f2:34:82:40:
        60:d6:d9:91:65:1f:95:31:25:9c:55:d9:ad:7b:3a:53:e7:e4:
        3e:25:29:b5:88:21:a1:a1:be:76:01:cc:9b:6d:74:5b:07:59:
        91:72:21:3a:9d:11:12:2b:f7:87:9c:61:6b:1f:07:09:a9:22:
        6a:e2:95:99:e0:df:b2:e6:22:41:23:21:0f:3b:fc:a4:34:7f:
        de:1e:ec:cd
-----BEGIN CERTIFICATE-----
MIIDXDCCAkSgAwIBAgIQaztNQf7wJb9EeC1bvEYevDANBgkqhkiG9w0BAQsFADAW
MRQwEgYDVQQDDAt0ZWFtMTk5LW5ldDAeFw0yMzExMDMyMDQyNTNaFw0yNjEwMTgy
MDQyNTNaMBkxFzAVBgNVBAMMDnRlYW0xOTktY2xpZW50MIIBIjANBgkqhkiG9w0B
AQEFAAOCAQ8AMIIBCgKCAQEAsIfVw1vVIpAathzyKz+CchlwfFYgYONplk53YsgS
xMKG971ANwI5rektJB02yTaiI6Y0UH1ylehO+KbehYVR/hJzk1uXtmBHvETFCB4d
InqG6hylErMONYI9Fro4MHuUOw1xnCyNjhzdvNkIMvBtEyiozg8H1oDcpDh8B5+d
04S+Z6kgyqAk4J5MN80eJke7AL25No1zBsq+EKhhsBKSz+RxgObp767se5jqumwd
FrS/nzevz0TfgfZS6CoLaqW2V+bHujsSiI4PU0CnG4uL6KnQTp5n60KLxhpmFbYT
C/wshUjRzMD5MHZKp8j80PwK7tk3dWwstStHSb9Xs3yKVQIDAQABo4GiMIGfMAkG
A1UdEwQCMAAwHQYDVR0OBBYEFLiTVjmEKs6LoampiaVhcBvNboqwMFEGA1UdIwRK
MEiAFM6+3/XPjpzJ53Lie9MzsbQQne6WoRqkGDAWMRQwEgYDVQQDDAt0ZWFtMTk5
LW5ldIIUBPtnAmkMqvbRZ2iopnL6iQqpaYIwEwYDVR0lBAwwCgYIKwYBBQUHAwIw
CwYDVR0PBAQDAgeAMA0GCSqGSIb3DQEBCwUAA4IBAQCiNo823M6L1vWBRmvWVFpe
GyOLF6oOYR2ncP8FRuPlj3EPRsQmoHdH2GJ3ohSn97z1Sg7/qZwaWhydBoQKxmz+
JKD0oepPzJVCSsoX7UPmI5f4i/4rYmohWeAItiBsfTFFWggZpRo/6s3ry+cSzDJl
bZJBJVJ4qkdXvbAf7j8XKf7ChAQUW1+MB2l7nluuilg2e0RGWK/vwrqnks6HoYSv
5jksovcr90QraCAvLkIl+/I0gkBg1tmRZR+VMSWcVdmtezpT5+Q+JSm1iCGhob52
AcybbXRbB1mRciE6nRESK/eHnGFrHwcJqSJq4pWZ4N+y5iJBIyEPO/ykNH/eHuzN
-----END CERTIFICATE-----
