Certificate:
    Data:
        Version: 3 (0x2)
        Serial Number:
            74:87:c1:a7:00:ee:21:54:dd:56:91:65:65:e3:81:fe
        Signature Algorithm: sha256WithRSAEncryption
        Issuer: CN=team199-net
        Validity
            Not Before: Nov  4 11:31:33 2023 GMT
            Not After : Oct 19 11:31:33 2026 GMT
        Subject: CN=team199-server
        Subject Public Key Info:
            Public Key Algorithm: rsaEncryption
                Public-Key: (2048 bit)
                Modulus:
                    00:d4:a3:dc:90:48:57:ff:8f:23:13:ac:69:a3:43:
                    02:0b:4b:3f:21:d6:b8:94:7a:b2:0a:af:94:14:20:
                    1d:3c:37:4a:ff:bc:e0:09:6c:c6:07:a8:54:40:e3:
                    a5:0c:96:69:cd:55:37:a2:03:f9:66:0e:18:ef:bc:
                    22:7f:f6:53:ae:fb:19:61:73:d6:a8:1a:72:21:2f:
                    cf:19:3a:17:8b:b5:fa:6b:e3:f8:cc:e1:27:2c:bc:
                    3c:be:48:da:16:e7:97:c4:70:69:58:fe:07:69:42:
                    7c:ae:5a:84:d9:f3:3c:85:fc:b7:ec:59:d1:17:39:
                    6e:78:82:23:93:31:44:cc:2a:59:4b:4e:cf:c3:d7:
                    0c:06:fb:0c:74:7b:64:0e:1c:df:c4:6e:67:73:23:
                    b8:04:ed:bb:0f:b2:3e:bc:93:f8:4e:dc:18:df:cf:
                    d7:6d:9c:09:87:e2:7c:1f:87:8b:c1:65:4e:ea:f3:
                    95:c0:e5:1e:58:2f:07:b5:3b:90:c5:b4:41:41:30:
                    b4:f7:4d:65:d2:72:18:75:13:65:02:70:7e:d1:ba:
                    43:59:07:e1:da:ad:b5:67:1b:a7:e0:e8:d4:d5:c2:
                    63:74:ce:67:01:de:10:c8:69:ab:12:54:1d:98:5e:
                    ce:3e:37:89:b5:09:86:d2:71:52:6b:c5:c1:01:86:
                    c8:3f
                Exponent: 65537 (0x10001)
        X509v3 extensions:
            X509v3 Basic Constraints: 
                CA:FALSE
            X509v3 Subject Key Identifier: 
                C4:95:7F:8F:C8:2D:53:F0:65:B1:5C:5A:9C:55:33:5E:97:95:74:F3
            X509v3 Authority Key Identifier: 
                keyid:A0:D6:EA:46:B1:A6:9D:7E:AE:FD:D0:80:A4:68:BB:97:AF:66:A8:B6
                DirName:/CN=team199-net
                serial:4E:05:3C:BE:AB:EB:74:21:1B:FD:5D:21:B7:43:DE:07:78:A1:D8:80
            X509v3 Extended Key Usage: 
                TLS Web Server Authentication
            X509v3 Key Usage: 
                Digital Signature, Key Encipherment
            X509v3 Subject Alternative Name: 
                DNS:team199-server
    Signature Algorithm: sha256WithRSAEncryption
    Signature Value:
        b9:84:83:07:44:19:87:23:59:66:dc:26:48:11:c6:16:18:02:
        5b:ec:79:58:6c:ed:1f:5b:25:d0:81:26:ac:a6:63:29:ef:e2:
        24:3c:fa:38:98:c0:77:15:73:ec:00:db:48:69:40:ba:ed:76:
        f4:1c:1d:30:7a:4a:71:c0:ca:80:5f:80:03:d3:77:91:8a:e7:
        d7:1a:fc:9d:6e:1d:66:53:d6:cb:3c:28:16:8e:8e:12:8f:a3:
        a1:31:03:a1:c8:f3:cd:b3:aa:56:74:a8:6c:99:f9:ad:c3:64:
        ca:90:4d:4e:09:1f:ca:4e:3c:c6:f0:11:75:02:5d:7f:80:f9:
        ac:b9:71:0d:c1:4b:aa:d4:85:d4:6d:09:46:45:5f:dd:54:07:
        44:03:af:d7:c5:4d:04:9e:67:8b:32:f4:de:e4:2c:64:b8:df:
        99:e8:aa:74:58:91:0e:25:55:bc:b0:b5:fa:8a:b4:c1:96:f1:
        b4:48:c6:b1:04:3b:1f:3b:e1:a5:f5:71:93:c9:8f:f7:75:d0:
        1e:06:2e:bf:5b:b9:7a:01:60:7b:a4:24:29:71:7b:51:07:2d:
        dd:0b:07:28:79:a0:05:fd:93:f7:25:da:71:26:30:c6:2a:0d:
        83:4c:b1:5d:55:e6:03:45:f0:89:08:91:d1:6d:28:44:b3:41:
        c3:3c:0c:06
-----BEGIN CERTIFICATE-----
MIIDdzCCAl+gAwIBAgIQdIfBpwDuIVTdVpFlZeOB/jANBgkqhkiG9w0BAQsFADAW
MRQwEgYDVQQDDAt0ZWFtMTk5LW5ldDAeFw0yMzExMDQxMTMxMzNaFw0yNjEwMTkx
MTMxMzNaMBkxFzAVBgNVBAMMDnRlYW0xOTktc2VydmVyMIIBIjANBgkqhkiG9w0B
AQEFAAOCAQ8AMIIBCgKCAQEA1KPckEhX/48jE6xpo0MCC0s/Ida4lHqyCq+UFCAd
PDdK/7zgCWzGB6hUQOOlDJZpzVU3ogP5Zg4Y77wif/ZTrvsZYXPWqBpyIS/PGToX
i7X6a+P4zOEnLLw8vkjaFueXxHBpWP4HaUJ8rlqE2fM8hfy37FnRFzlueIIjkzFE
zCpZS07Pw9cMBvsMdHtkDhzfxG5ncyO4BO27D7I+vJP4TtwY38/XbZwJh+J8H4eL
wWVO6vOVwOUeWC8HtTuQxbRBQTC0901l0nIYdRNlAnB+0bpDWQfh2q21Zxun4OjU
1cJjdM5nAd4QyGmrElQdmF7OPjeJtQmG0nFSa8XBAYbIPwIDAQABo4G9MIG6MAkG
A1UdEwQCMAAwHQYDVR0OBBYEFMSVf4/ILVPwZbFcWpxVM16XlXTzMFEGA1UdIwRK
MEiAFKDW6kaxpp1+rv3QgKRou5evZqi2oRqkGDAWMRQwEgYDVQQDDAt0ZWFtMTk5
LW5ldIIUTgU8vqvrdCEb/V0ht0PeB3ih2IAwEwYDVR0lBAwwCgYIKwYBBQUHAwEw
CwYDVR0PBAQDAgWgMBkGA1UdEQQSMBCCDnRlYW0xOTktc2VydmVyMA0GCSqGSIb3
DQEBCwUAA4IBAQC5hIMHRBmHI1lm3CZIEcYWGAJb7HlYbO0fWyXQgSaspmMp7+Ik
PPo4mMB3FXPsANtIaUC67Xb0HB0wekpxwMqAX4AD03eRiufXGvydbh1mU9bLPCgW
jo4Sj6OhMQOhyPPNs6pWdKhsmfmtw2TKkE1OCR/KTjzG8BF1Al1/gPmsuXENwUuq
1IXUbQlGRV/dVAdEA6/XxU0EnmeLMvTe5CxkuN+Z6Kp0WJEOJVW8sLX6irTBlvG0
SMaxBDsfO+Gl9XGTyY/3ddAeBi6/W7l6AWB7pCQpcXtRBy3dCwcoeaAF/ZP3Jdpx
JjDGKg2DTLFdVeYDRfCJCJHRbShEs0HDPAwG
-----END CERTIFICATE-----
