Certificate:
    Data:
        Version: 3 (0x2)
        Serial Number:
            d9:ea:67:b8:f7:cb:27:f5:e6:fb:59:c7:62:c1:ee:0f
        Signature Algorithm: sha256WithRSAEncryption
        Issuer: CN=team199-net
        Validity
            Not Before: Nov  4 10:44:16 2023 GMT
            Not After : Oct 19 10:44:16 2026 GMT
        Subject: CN=team199-server
        Subject Public Key Info:
            Public Key Algorithm: rsaEncryption
                Public-Key: (2048 bit)
                Modulus:
                    00:9f:d9:62:6c:07:83:a3:e1:85:02:ec:38:0d:1a:
                    05:fc:85:fa:b3:73:14:c5:6e:ff:9c:09:90:89:e0:
                    4d:64:e1:f1:f6:19:7d:c3:ef:01:0d:8d:54:3d:61:
                    e4:7f:36:84:ab:63:ed:14:7e:57:1b:91:c5:47:a7:
                    05:54:70:89:c2:91:e3:77:21:18:9e:c7:e8:75:b5:
                    5e:a6:b5:bb:fa:89:3f:02:cd:70:f3:25:a1:74:62:
                    fc:13:db:65:a3:13:de:fc:58:09:ab:2c:26:13:82:
                    8f:2f:8f:c7:a9:7e:09:d8:42:4f:fa:ae:dd:5b:46:
                    44:84:2d:80:15:30:ad:e2:34:cd:4f:6f:25:ae:1f:
                    30:37:ef:8b:e5:4b:d2:b0:f3:c7:ae:b2:f9:40:4f:
                    2e:72:55:b6:a4:d4:6e:db:e6:d4:d0:da:66:e0:38:
                    a0:b9:8f:37:c4:c0:72:ee:49:a3:0d:fe:c9:ca:91:
                    d9:8a:59:06:6a:94:73:fb:40:03:6e:05:a0:04:89:
                    ad:4c:5b:ac:76:8d:d0:1e:3c:e9:7c:fa:c8:c2:3d:
                    7c:f6:58:73:06:07:15:5e:f1:64:c0:dc:8d:ff:cd:
                    07:e7:b5:3f:46:36:9c:3c:54:88:b8:23:58:6a:40:
                    57:14:d2:d7:33:e5:b2:2b:be:43:1b:41:3d:c8:d2:
                    7c:2d
                Exponent: 65537 (0x10001)
        X509v3 extensions:
            X509v3 Basic Constraints: 
                CA:FALSE
            X509v3 Subject Key Identifier: 
                AC:07:99:B5:F5:0A:11:AB:C6:9E:A3:57:DF:9C:2C:7E:6F:A7:EA:6B
            X509v3 Authority Key Identifier: 
                keyid:1E:A0:FD:73:4C:8D:71:88:32:59:1C:94:0D:C5:24:AD:00:30:D4:53
                DirName:/CN=team199-net
                serial:13:2F:D8:EA:DE:3A:B2:E0:AE:19:62:6A:F3:38:FE:71:3C:47:2C:45
            X509v3 Extended Key Usage: 
                TLS Web Server Authentication
            X509v3 Key Usage: 
                Digital Signature, Key Encipherment
            X509v3 Subject Alternative Name: 
                DNS:team199-server
    Signature Algorithm: sha256WithRSAEncryption
    Signature Value:
        7d:c4:bd:20:c0:74:81:90:af:7f:5d:8c:54:75:2e:06:32:04:
        5f:0f:f6:72:21:ba:1a:cd:57:d2:40:5b:85:53:f8:2b:22:a6:
        4f:1e:f6:09:95:ae:1a:f9:c1:3d:9b:2f:60:01:27:76:66:2a:
        21:11:23:e1:4b:5d:f3:71:c2:d2:9c:c7:cf:da:6d:6c:0f:6e:
        08:5b:74:5d:6c:32:5f:0c:90:94:17:a6:98:3c:a3:ef:99:ba:
        02:60:4a:65:1a:61:a4:64:bc:77:40:c3:53:7c:cd:5f:b2:a6:
        b1:85:d6:e6:32:65:aa:12:b3:fe:e8:c9:c5:39:9e:2c:2e:a8:
        e5:e1:10:80:8e:0b:be:77:21:55:30:e8:25:2d:be:62:d2:cc:
        e3:1e:69:46:1a:3d:f5:bd:b1:77:31:86:da:38:06:51:77:2b:
        8a:c7:0a:6a:98:40:cb:b7:b4:60:fd:32:0d:7d:28:3d:d8:64:
        43:62:36:2c:48:d7:48:db:ba:bf:5f:c9:68:24:73:fc:e5:9d:
        50:8c:a6:e3:2a:2c:48:d8:9c:55:1c:e0:c9:7b:ba:00:77:12:
        90:14:30:e8:6c:48:a6:2c:2e:42:40:38:87:8b:5e:1c:b7:0c:
        9d:12:00:2c:34:61:b1:f4:a1:de:3e:47:5f:ad:8b:00:f6:88:
        c6:c3:7c:68
-----BEGIN CERTIFICATE-----
MIIDeDCCAmCgAwIBAgIRANnqZ7j3yyf15vtZx2LB7g8wDQYJKoZIhvcNAQELBQAw
FjEUMBIGA1UEAwwLdGVhbTE5OS1uZXQwHhcNMjMxMTA0MTA0NDE2WhcNMjYxMDE5
MTA0NDE2WjAZMRcwFQYDVQQDDA50ZWFtMTk5LXNlcnZlcjCCASIwDQYJKoZIhvcN
AQEBBQADggEPADCCAQoCggEBAJ/ZYmwHg6PhhQLsOA0aBfyF+rNzFMVu/5wJkIng
TWTh8fYZfcPvAQ2NVD1h5H82hKtj7RR+VxuRxUenBVRwicKR43chGJ7H6HW1Xqa1
u/qJPwLNcPMloXRi/BPbZaMT3vxYCassJhOCjy+Px6l+CdhCT/qu3VtGRIQtgBUw
reI0zU9vJa4fMDfvi+VL0rDzx66y+UBPLnJVtqTUbtvm1NDaZuA4oLmPN8TAcu5J
ow3+ycqR2YpZBmqUc/tAA24FoASJrUxbrHaN0B486Xz6yMI9fPZYcwYHFV7xZMDc
jf/NB+e1P0Y2nDxUiLgjWGpAVxTS1zPlsiu+QxtBPcjSfC0CAwEAAaOBvTCBujAJ
BgNVHRMEAjAAMB0GA1UdDgQWBBSsB5m19QoRq8aeo1ffnCx+b6fqazBRBgNVHSME
SjBIgBQeoP1zTI1xiDJZHJQNxSStADDUU6EapBgwFjEUMBIGA1UEAwwLdGVhbTE5
OS1uZXSCFBMv2OreOrLgrhliavM4/nE8RyxFMBMGA1UdJQQMMAoGCCsGAQUFBwMB
MAsGA1UdDwQEAwIFoDAZBgNVHREEEjAQgg50ZWFtMTk5LXNlcnZlcjANBgkqhkiG
9w0BAQsFAAOCAQEAfcS9IMB0gZCvf12MVHUuBjIEXw/2ciG6Gs1X0kBbhVP4KyKm
Tx72CZWuGvnBPZsvYAEndmYqIREj4Utd83HC0pzHz9ptbA9uCFt0XWwyXwyQlBem
mDyj75m6AmBKZRphpGS8d0DDU3zNX7KmsYXW5jJlqhKz/ujJxTmeLC6o5eEQgI4L
vnchVTDoJS2+YtLM4x5pRho99b2xdzGG2jgGUXcriscKaphAy7e0YP0yDX0oPdhk
Q2I2LEjXSNu6v1/JaCRz/OWdUIym4yosSNicVRzgyXu6AHcSkBQw6GxIpiwuQkA4
h4teHLcMnRIALDRhsfSh3j5HX62LAPaIxsN8aA==
-----END CERTIFICATE-----
