Certificate:
    Data:
        Version: 3 (0x2)
        Serial Number:
            72:65:7d:31:da:b7:fa:b8:42:d8:41:1e:94:24:17:84
        Signature Algorithm: sha256WithRSAEncryption
        Issuer: CN=team188-net
        Validity
            Not Before: Nov  4 10:44:02 2023 GMT
            Not After : Oct 19 10:44:02 2026 GMT
        Subject: CN=team188-client
        Subject Public Key Info:
            Public Key Algorithm: rsaEncryption
                Public-Key: (2048 bit)
                Modulus:
                    00:f4:38:63:aa:e2:d7:b2:f0:12:42:e8:02:cb:a9:
                    98:7b:ae:57:83:cc:36:e6:ec:5d:9e:d1:e0:b2:1e:
                    92:0f:ed:48:e5:f8:a3:bb:aa:75:25:e1:36:09:e5:
                    63:35:51:51:b7:06:b0:88:7a:df:8f:16:1b:ba:5d:
                    85:61:64:15:e0:ad:c6:a2:84:df:20:5e:83:8b:d1:
                    23:96:44:17:eb:df:98:a2:65:f0:64:46:32:05:48:
                    9d:fd:be:f1:a3:2c:07:4f:cc:a6:2d:cb:35:40:60:
                    8a:8b:a7:34:11:96:37:f2:45:0d:c7:ac:5d:93:41:
                    95:ab:8e:91:40:3a:70:87:6a:1f:c9:a7:de:8c:ff:
                    ca:45:ed:37:5b:1f:ea:5d:6a:04:84:35:23:e9:84:
                    d1:7d:0b:4f:40:2c:f9:ff:54:fc:b4:74:20:98:96:
                    3f:64:9e:66:ea:b0:bf:b9:ed:d8:b8:eb:fd:55:12:
                    ca:dc:fc:d2:6f:75:91:81:59:69:f4:e5:a5:40:30:
                    82:db:09:d5:e6:56:7f:93:bf:6c:5d:fe:3a:df:18:
                    ab:1b:9e:1c:13:79:a8:6f:20:f6:b9:85:d5:a6:34:
                    e8:16:1c:4d:ed:b7:94:49:73:dd:91:a3:a9:e3:d0:
                    65:a5:94:c9:f2:e8:21:59:5a:2a:5e:6a:19:97:7f:
                    52:cb
                Exponent: 65537 (0x10001)
        X509v3 extensions:
            X509v3 Basic Constraints: 
                CA:FALSE
            X509v3 Subject Key Identifier: 
                A5:26:CE:42:66:A8:43:73:16:DE:A5:DB:98:9D:F1:21:1F:17:30:AF
            X509v3 Authority Key Identifier: 
                keyid:88:B5:8E:41:BA:DD:CD:0A:17:E8:AE:F0:64:A7:EB:33:22:84:C5:81
                DirName:/CN=team188-net
                serial:41:88:CB:2A:14:99:4B:8B:38:CF:41:D2:B5:B7:E2:28:77:DB:FE:F3
            X509v3 Extended Key Usage: 
                TLS Web Client Authentication
            X509v3 Key Usage: 
                Digital Signature
    Signature Algorithm: sha256WithRSAEncryption
    Signature Value:
        4a:c2:de:e9:3a:6a:9b:48:6e:c6:bc:90:88:9f:56:e9:67:5a:
        02:a8:d3:a3:b3:ef:e1:9b:0d:7d:f6:f8:b5:64:b0:ae:05:2b:
        98:e8:fe:b6:23:40:da:be:a3:fc:af:87:40:aa:c5:6a:75:1b:
        57:c0:41:38:5f:50:e0:58:05:d0:83:ed:2e:f5:b0:b0:d4:de:
        b2:31:19:47:a2:6c:39:8a:cb:d2:9f:af:6a:f6:27:4b:68:74:
        d9:64:f9:d8:31:fe:7b:34:6a:5b:c4:46:61:6b:57:c5:5b:60:
        e7:93:12:b7:41:36:14:a1:b1:94:4c:76:5d:9f:15:55:66:cd:
        47:39:c1:3b:87:ac:ef:5a:63:c5:54:97:11:46:13:21:ab:34:
        43:0a:95:d7:2b:54:eb:ef:8b:5e:62:2f:07:35:f7:56:00:d8:
        21:f4:e8:dc:99:24:da:10:bb:62:d4:a0:84:f0:ce:f4:fc:b8:
        68:9f:56:9c:cd:da:c3:91:fb:81:19:3c:f9:df:ee:39:9f:1f:
        0c:4e:ab:4e:4e:37:21:28:94:3c:a2:09:14:81:14:25:97:c2:
        b7:89:ce:f0:ff:5a:84:95:36:4c:a8:dd:c5:e8:bd:07:90:1d:
        7a:67:63:99:c0:77:6c:97:1d:42:ce:17:9f:46:47:0c:31:b8:
        fa:ca:1f:eb
-----BEGIN CERTIFICATE-----
MIIDXDCCAkSgAwIBAgIQcmV9Mdq3+rhC2EEelCQXhDANBgkqhkiG9w0BAQsFADAW
MRQwEgYDVQQDDAt0ZWFtMTg4LW5ldDAeFw0yMzExMDQxMDQ0MDJaFw0yNjEwMTkx
MDQ0MDJaMBkxFzAVBgNVBAMMDnRlYW0xODgtY2xpZW50MIIBIjANBgkqhkiG9w0B
AQEFAAOCAQ8AMIIBCgKCAQEA9DhjquLXsvASQugCy6mYe65Xg8w25uxdntHgsh6S
D+1I5fiju6p1JeE2CeVjNVFRtwawiHrfjxYbul2FYWQV4K3GooTfIF6Di9EjlkQX
69+YomXwZEYyBUid/b7xoywHT8ymLcs1QGCKi6c0EZY38kUNx6xdk0GVq46RQDpw
h2ofyafejP/KRe03Wx/qXWoEhDUj6YTRfQtPQCz5/1T8tHQgmJY/ZJ5m6rC/ue3Y
uOv9VRLK3PzSb3WRgVlp9OWlQDCC2wnV5lZ/k79sXf463xirG54cE3mobyD2uYXV
pjToFhxN7beUSXPdkaOp49BlpZTJ8ughWVoqXmoZl39SywIDAQABo4GiMIGfMAkG
A1UdEwQCMAAwHQYDVR0OBBYEFKUmzkJmqENzFt6l25id8SEfFzCvMFEGA1UdIwRK
MEiAFIi1jkG63c0KF+iu8GSn6zMihMWBoRqkGDAWMRQwEgYDVQQDDAt0ZWFtMTg4
LW5ldIIUQYjLKhSZS4s4z0HStbfiKHfb/vMwEwYDVR0lBAwwCgYIKwYBBQUHAwIw
CwYDVR0PBAQDAgeAMA0GCSqGSIb3DQEBCwUAA4IBAQBKwt7pOmqbSG7GvJCIn1bp
Z1oCqNOjs+/hmw199vi1ZLCuBSuY6P62I0DavqP8r4dAqsVqdRtXwEE4X1DgWAXQ
g+0u9bCw1N6yMRlHomw5isvSn69q9idLaHTZZPnYMf57NGpbxEZha1fFW2DnkxK3
QTYUobGUTHZdnxVVZs1HOcE7h6zvWmPFVJcRRhMhqzRDCpXXK1Tr74teYi8HNfdW
ANgh9OjcmSTaELti1KCE8M70/Lhon1aczdrDkfuBGTz53+45nx8MTqtOTjchKJQ8
ogkUgRQll8K3ic7w/1qElTZMqN3F6L0HkB16Z2OZwHdslx1CzhefRkcMMbj6yh/r
-----END CERTIFICATE-----
