Certificate:
    Data:
        Version: 3 (0x2)
        Serial Number:
            06:1b:b3:32:5f:46:84:f8:d3:1c:44:f7:09:5a:e9:a8
        Signature Algorithm: sha256WithRSAEncryption
        Issuer: CN=team427-net
        Validity
            Not Before: Nov  4 11:37:03 2023 GMT
            Not After : Oct 19 11:37:03 2026 GMT
        Subject: CN=team427-client
        Subject Public Key Info:
            Public Key Algorithm: rsaEncryption
                Public-Key: (2048 bit)
                Modulus:
                    00:ac:1f:b2:f8:51:74:22:17:b1:f4:d9:66:58:64:
                    ef:cf:e7:c1:f8:a9:51:9b:c1:d4:03:46:5e:b2:82:
                    c9:30:4a:c6:db:22:61:59:16:c4:45:3a:f0:d4:cb:
                    19:69:e9:7a:9e:a7:59:e8:d9:1c:09:40:d4:13:6e:
                    b2:4c:8f:c8:eb:13:b3:58:04:9d:40:d0:08:d5:2e:
                    b7:70:40:90:1a:c3:cc:67:ed:3f:cd:8d:56:f2:59:
                    a2:0d:20:51:ee:a6:51:49:f5:e8:45:66:53:20:82:
                    d1:8b:1a:a6:05:7c:03:9c:3c:d9:8c:fd:4e:14:82:
                    eb:21:5c:e1:6c:c2:4c:50:7b:90:dc:e8:3c:c8:f8:
                    8e:f7:7e:be:8b:a7:eb:4c:3f:80:e7:d4:f6:a0:33:
                    f9:00:81:e2:99:20:c7:50:f9:a9:5a:b2:85:2a:ba:
                    1b:99:21:a6:54:60:ee:76:36:e4:07:96:dd:b9:5d:
                    ec:6a:99:ee:84:36:9a:9f:a9:ed:47:e8:39:43:72:
                    eb:e4:07:6d:ca:5d:d5:5b:ae:62:ff:37:9f:fc:49:
                    54:cd:62:61:7f:59:49:af:e9:2c:8c:bf:8b:56:58:
                    d7:87:a9:52:af:70:5f:1e:30:d9:24:6c:d2:33:b9:
                    a9:37:cf:04:b4:91:62:d3:c7:be:c1:bc:58:5b:7c:
                    a9:b9
                Exponent: 65537 (0x10001)
        X509v3 extensions:
            X509v3 Basic Constraints: 
                CA:FALSE
            X509v3 Subject Key Identifier: 
                24:18:9B:FD:0D:3A:21:4E:83:D3:F0:19:C9:ED:F6:4F:D2:BF:D7:5E
            X509v3 Authority Key Identifier: 
                keyid:55:38:98:68:2C:FE:37:B3:E4:18:BF:2E:A0:FD:26:C9:B7:81:14:A4
                DirName:/CN=team427-net
                serial:41:03:2E:24:46:E4:C8:55:65:08:51:D9:18:4F:B9:C8:D4:33:4F:82
            X509v3 Extended Key Usage: 
                TLS Web Client Authentication
            X509v3 Key Usage: 
                Digital Signature
    Signature Algorithm: sha256WithRSAEncryption
    Signature Value:
        3d:a9:3d:27:de:57:66:61:e1:73:97:6e:8d:56:3d:fa:35:20:
        75:e5:ce:d3:5c:6d:f2:89:eb:55:fa:a4:68:b7:25:c4:9d:9c:
        1f:dc:39:d1:8e:f7:fe:4a:9f:24:43:26:af:a4:cd:c9:4b:9a:
        c3:a1:08:22:7f:bf:80:b4:ae:ee:b4:60:b8:cc:58:72:32:82:
        38:9f:8e:ac:30:cd:5f:03:84:4a:e6:44:7f:aa:90:37:8c:7b:
        25:19:de:87:0f:58:28:9b:7b:29:cc:b1:72:fd:3a:25:7b:58:
        36:73:0e:ad:0f:e3:42:9f:b5:37:ed:ee:03:67:dd:03:08:d8:
        ce:ee:b8:9b:a9:cb:77:01:61:f3:10:01:44:bf:8a:27:d3:c3:
        c1:78:5f:0e:f1:c0:75:7d:19:88:d1:be:80:66:26:6c:0c:a7:
        c2:05:8f:8b:86:77:4a:95:19:5b:98:e7:ff:ef:98:74:8c:9d:
        ae:80:19:11:48:1f:8f:5e:9e:e6:66:d3:6d:cf:b8:d2:36:80:
        1d:92:c3:51:17:8f:5b:e3:29:9d:08:9f:b3:2b:fe:22:02:1d:
        9e:18:ca:03:66:92:36:00:95:df:68:95:1e:8d:13:91:ff:ad:
        a3:b0:66:3a:c0:fa:de:1e:a2:68:ed:af:2e:83:92:8f:da:e9:
        89:8f:2d:a0
-----BEGIN CERTIFICATE-----
MIIDXDCCAkSgAwIBAgIQBhuzMl9GhPjTHET3CVrpqDANBgkqhkiG9w0BAQsFADAW
MRQwEgYDVQQDDAt0ZWFtNDI3LW5ldDAeFw0yMzExMDQxMTM3MDNaFw0yNjEwMTkx
MTM3MDNaMBkxFzAVBgNVBAMMDnRlYW00MjctY2xpZW50MIIBIjANBgkqhkiG9w0B
AQEFAAOCAQ8AMIIBCgKCAQEArB+y+FF0Ihex9NlmWGTvz+fB+KlRm8HUA0ZesoLJ
MErG2yJhWRbERTrw1MsZael6nqdZ6NkcCUDUE26yTI/I6xOzWASdQNAI1S63cECQ
GsPMZ+0/zY1W8lmiDSBR7qZRSfXoRWZTIILRixqmBXwDnDzZjP1OFILrIVzhbMJM
UHuQ3Og8yPiO936+i6frTD+A59T2oDP5AIHimSDHUPmpWrKFKrobmSGmVGDudjbk
B5bduV3sapnuhDaan6ntR+g5Q3Lr5Adtyl3VW65i/zef/ElUzWJhf1lJr+ksjL+L
VljXh6lSr3BfHjDZJGzSM7mpN88EtJFi08e+wbxYW3ypuQIDAQABo4GiMIGfMAkG
A1UdEwQCMAAwHQYDVR0OBBYEFCQYm/0NOiFOg9PwGcnt9k/Sv9deMFEGA1UdIwRK
MEiAFFU4mGgs/jez5Bi/LqD9Jsm3gRSkoRqkGDAWMRQwEgYDVQQDDAt0ZWFtNDI3
LW5ldIIUQQMuJEbkyFVlCFHZGE+5yNQzT4IwEwYDVR0lBAwwCgYIKwYBBQUHAwIw
CwYDVR0PBAQDAgeAMA0GCSqGSIb3DQEBCwUAA4IBAQA9qT0n3ldmYeFzl26NVj36
NSB15c7TXG3yietV+qRotyXEnZwf3DnRjvf+Sp8kQyavpM3JS5rDoQgif7+AtK7u
tGC4zFhyMoI4n46sMM1fA4RK5kR/qpA3jHslGd6HD1gom3spzLFy/Tole1g2cw6t
D+NCn7U37e4DZ90DCNjO7ribqct3AWHzEAFEv4on08PBeF8O8cB1fRmI0b6AZiZs
DKfCBY+LhndKlRlbmOf/75h0jJ2ugBkRSB+PXp7mZtNtz7jSNoAdksNRF49b4ymd
CJ+zK/4iAh2eGMoDZpI2AJXfaJUejROR/62jsGY6wPreHqJo7a8ug5KP2umJjy2g
-----END CERTIFICATE-----
