Certificate:
    Data:
        Version: 3 (0x2)
        Serial Number:
            8d:26:ed:cf:29:c5:34:91:ec:50:6c:72:70:d6:d2:e0
        Signature Algorithm: sha256WithRSAEncryption
        Issuer: CN=team427-net
        Validity
            Not Before: Nov  4 11:37:03 2023 GMT
            Not After : Oct 19 11:37:03 2026 GMT
        Subject: CN=team427-server
        Subject Public Key Info:
            Public Key Algorithm: rsaEncryption
                Public-Key: (2048 bit)
                Modulus:
                    00:f0:11:ec:ea:1a:cc:f9:c1:81:eb:56:a1:79:7e:
                    ff:9a:85:54:c5:2e:d1:74:fe:b1:20:c0:eb:27:6e:
                    15:9c:51:4c:fc:e4:6d:a8:ee:6d:01:1a:78:3e:c4:
                    69:ee:ca:a3:f8:87:54:0e:aa:f8:f6:66:22:0b:59:
                    29:d4:18:5a:6d:1f:12:dc:5b:30:8b:a8:2c:a7:2b:
                    31:07:5b:b2:6e:43:bd:7f:8e:32:7f:89:36:8a:2f:
                    2d:ae:0f:48:b4:95:31:f3:2a:39:b0:ef:e4:ac:a5:
                    bc:88:25:9b:42:0b:2d:6c:e7:10:70:1e:00:87:15:
                    4e:a8:be:3d:5b:2e:0f:d5:58:0a:60:2f:a9:7b:30:
                    ac:0b:2b:d1:3a:05:ae:5d:4b:ec:b1:cf:3d:58:de:
                    b1:d3:8d:12:83:68:dd:cb:b4:2c:ae:23:98:26:f2:
                    9e:d4:a7:1f:76:ad:8d:dc:f6:f9:1a:17:87:62:bf:
                    d2:b1:16:e3:3f:e2:e3:ac:8d:66:ca:4b:42:67:9d:
                    70:41:bf:ca:67:46:5d:21:a9:6e:2b:e7:5a:bd:c1:
                    d5:d5:aa:2e:3f:c5:bf:60:80:52:66:36:90:9b:f7:
                    4c:6c:3e:60:7c:f8:98:1c:1e:80:1a:01:dc:03:15:
                    ab:03:95:a8:d9:1c:3c:f3:ee:95:77:5f:e1:13:8e:
                    ec:49
                Exponent: 65537 (0x10001)
        X509v3 extensions:
            X509v3 Basic Constraints: 
                CA:FALSE
            X509v3 Subject Key Identifier: 
                1A:CA:54:27:1C:13:78:57:DD:F1:5D:0E:E1:22:1B:7A:5E:E0:97:D7
            X509v3 Authority Key Identifier: 
                keyid:55:38:98:68:2C:FE:37:B3:E4:18:BF:2E:A0:FD:26:C9:B7:81:14:A4
                DirName:/CN=team427-net
                serial:41:03:2E:24:46:E4:C8:55:65:08:51:D9:18:4F:B9:C8:D4:33:4F:82
            X509v3 Extended Key Usage: 
                TLS Web Server Authentication
            X509v3 Key Usage: 
                Digital Signature, Key Encipherment
            X509v3 Subject Alternative Name: 
                DNS:team427-server
    Signature Algorithm: sha256WithRSAEncryption
    Signature Value:
        5e:1a:fc:54:16:b2:88:a5:32:40:30:94:97:94:6b:e6:f6:78:
        03:d7:9b:41:45:26:9e:13:2f:e9:6a:63:39:e0:71:d7:38:4b:
        67:81:ea:54:10:79:42:8d:05:05:f0:9d:82:dc:fa:1f:7e:93:
        e2:74:fa:63:d0:17:6a:e1:62:d6:d4:32:1d:73:5f:40:39:e1:
        dd:ef:0a:69:d1:8c:e1:ea:ef:2d:60:74:2f:e2:84:5f:47:59:
        19:c2:55:30:39:3d:b3:5d:ff:c3:3e:fe:ed:6d:ce:c6:30:a9:
        b2:16:01:bd:0b:b9:d8:00:df:19:36:b5:ba:9d:6a:f9:5b:00:
        d8:49:41:78:b7:d1:c5:d7:26:0b:97:10:3f:ba:24:a2:0a:45:
        bc:42:06:4b:df:b2:97:4a:7b:21:15:4c:23:92:b1:d1:7e:38:
        74:b9:eb:74:a9:36:8b:fe:01:28:a6:ad:df:51:a0:3d:c8:f3:
        71:fd:01:87:ee:0d:0c:dc:0c:6e:ef:0d:73:af:3e:7d:0d:4a:
        22:63:2b:5b:e7:71:bc:09:90:97:f6:3e:03:98:f9:67:70:7f:
        99:29:f5:aa:4a:17:dc:fe:fc:c0:50:88:72:0e:e9:bb:1c:88:
        29:8a:cc:8b:44:f6:e4:32:71:15:6a:0a:43:f5:69:58:ef:c7:
        89:f3:db:fd
-----BEGIN CERTIFICATE-----
MIIDeDCCAmCgAwIBAgIRAI0m7c8pxTSR7FBscnDW0uAwDQYJKoZIhvcNAQELBQAw
FjEUMBIGA1UEAwwLdGVhbTQyNy1uZXQwHhcNMjMxMTA0MTEzNzAzWhcNMjYxMDE5
MTEzNzAzWjAZMRcwFQYDVQQDDA50ZWFtNDI3LXNlcnZlcjCCASIwDQYJKoZIhvcN
AQEBBQADggEPADCCAQoCggEBAPAR7OoazPnBgetWoXl+/5qFVMUu0XT+sSDA6ydu
FZxRTPzkbajubQEaeD7Eae7Ko/iHVA6q+PZmIgtZKdQYWm0fEtxbMIuoLKcrMQdb
sm5DvX+OMn+JNoovLa4PSLSVMfMqObDv5KylvIglm0ILLWznEHAeAIcVTqi+PVsu
D9VYCmAvqXswrAsr0ToFrl1L7LHPPVjesdONEoNo3cu0LK4jmCbyntSnH3atjdz2
+RoXh2K/0rEW4z/i46yNZspLQmedcEG/ymdGXSGpbivnWr3B1dWqLj/Fv2CAUmY2
kJv3TGw+YHz4mBwegBoB3AMVqwOVqNkcPPPulXdf4ROO7EkCAwEAAaOBvTCBujAJ
BgNVHRMEAjAAMB0GA1UdDgQWBBQaylQnHBN4V93xXQ7hIht6XuCX1zBRBgNVHSME
SjBIgBRVOJhoLP43s+QYvy6g/SbJt4EUpKEapBgwFjEUMBIGA1UEAwwLdGVhbTQy
Ny1uZXSCFEEDLiRG5MhVZQhR2RhPucjUM0+CMBMGA1UdJQQMMAoGCCsGAQUFBwMB
MAsGA1UdDwQEAwIFoDAZBgNVHREEEjAQgg50ZWFtNDI3LXNlcnZlcjANBgkqhkiG
9w0BAQsFAAOCAQEAXhr8VBayiKUyQDCUl5Rr5vZ4A9ebQUUmnhMv6WpjOeBx1zhL
Z4HqVBB5Qo0FBfCdgtz6H36T4nT6Y9AXauFi1tQyHXNfQDnh3e8KadGM4ervLWB0
L+KEX0dZGcJVMDk9s13/wz7+7W3OxjCpshYBvQu52ADfGTa1up1q+VsA2ElBeLfR
xdcmC5cQP7okogpFvEIGS9+yl0p7IRVMI5Kx0X44dLnrdKk2i/4BKKat31GgPcjz
cf0Bh+4NDNwMbu8Nc68+fQ1KImMrW+dxvAmQl/Y+A5j5Z3B/mSn1qkoX3P78wFCI
cg7puxyIKYrMi0T25DJxFWoKQ/VpWO/HifPb/Q==
-----END CERTIFICATE-----
