Certificate:
    Data:
        Version: 3 (0x2)
        Serial Number:
            08:aa:d8:d2:ff:c4:6b:7f:9b:e1:4f:12:0a:a0:f9:8a
        Signature Algorithm: sha256WithRSAEncryption
        Issuer: CN=team18-net
        Validity
            Not Before: Nov  4 11:27:42 2023 GMT
            Not After : Oct 19 11:27:42 2026 GMT
        Subject: CN=team18-client
        Subject Public Key Info:
            Public Key Algorithm: rsaEncryption
                Public-Key: (2048 bit)
                Modulus:
                    00:af:f0:56:ee:8d:57:f2:87:75:f1:5b:89:0e:c3:
                    fc:6d:26:c1:b4:7d:50:27:9f:de:08:73:05:d8:2f:
                    53:e0:4e:fe:35:88:14:49:9d:58:4d:5b:d2:6c:f9:
                    c3:98:a9:6b:7e:8e:99:49:14:1e:e3:9d:03:b2:5d:
                    81:18:fb:22:e4:95:9a:eb:fb:02:7c:85:be:eb:93:
                    d7:0d:b7:a9:68:db:2c:b4:ac:b5:4f:5c:9e:9c:74:
                    12:dd:e7:bd:2f:5c:ee:4a:91:17:3e:8b:23:c0:71:
                    4c:53:17:fd:9a:0f:5a:95:19:50:75:ac:99:f5:5a:
                    23:d1:93:9f:b5:ed:a6:2e:63:16:91:51:d2:9a:ad:
                    48:36:20:9a:e9:e3:be:59:b9:78:53:71:2d:53:1f:
                    dc:32:cf:d6:5a:ee:77:f1:51:24:c2:86:9c:ab:5f:
                    c9:39:2b:1a:ce:1b:b1:2a:58:77:d3:f1:8e:43:2e:
                    e7:e1:20:77:5c:4b:42:1f:5a:81:8b:9d:b1:49:60:
                    12:1a:3d:22:e9:f6:1f:9a:10:4e:27:24:fa:48:6d:
                    b3:b6:5d:50:be:ec:c2:9c:27:09:b1:ea:8c:5d:14:
                    00:18:57:11:6f:d7:d3:0c:01:cd:e5:39:e8:9b:36:
                    7a:1b:b1:e2:c2:87:56:d7:99:3a:b3:78:3e:ae:56:
                    68:fb
                Exponent: 65537 (0x10001)
        X509v3 extensions:
            X509v3 Basic Constraints: 
                CA:FALSE
            X509v3 Subject Key Identifier: 
                D6:CD:DD:EE:A1:93:DC:B1:98:CE:04:64:B7:9D:62:17:AC:DE:06:C6
            X509v3 Authority Key Identifier: 
                keyid:C0:66:CC:80:1E:9D:CF:6B:14:4F:BB:1A:45:A7:4C:23:F8:74:53:40
                DirName:/CN=team18-net
                serial:5F:7E:E9:34:80:25:18:FE:F5:04:BD:46:75:AD:AF:F0:C0:61:7A:81
            X509v3 Extended Key Usage: 
                TLS Web Client Authentication
            X509v3 Key Usage: 
                Digital Signature
    Signature Algorithm: sha256WithRSAEncryption
    Signature Value:
        05:9c:4f:91:90:47:cf:63:30:f7:5d:ff:28:5e:ac:e1:b5:87:
        19:a9:17:20:b7:b4:c6:1f:6a:7e:eb:7a:1b:42:71:9d:08:b7:
        b4:84:bb:bb:ed:14:ce:d8:bc:14:8b:4c:e0:e5:48:06:e9:37:
        70:24:cd:3d:35:8b:56:1e:94:97:2e:26:bb:5d:65:26:0c:cd:
        67:d6:29:6f:ba:49:29:82:77:11:7f:ce:c6:69:a8:a9:fc:32:
        cf:ef:ce:79:15:58:63:61:13:5d:d5:94:09:77:4d:b2:f9:8f:
        3a:ee:b5:7e:44:cd:74:8f:23:e0:a9:c6:48:af:35:39:5b:cb:
        32:30:1b:44:aa:d0:a5:03:d8:59:e1:e3:d5:7a:bf:14:1e:cd:
        49:f9:46:89:6c:bf:39:2f:a4:c9:ac:bb:e9:44:b9:9f:68:03:
        65:b4:f0:a0:2a:88:3f:9e:d7:f8:f2:3c:89:45:1a:11:b9:40:
        2e:7c:2d:ed:d1:ba:dd:56:86:dd:74:18:4f:c9:af:00:79:6e:
        ef:9e:3b:5f:30:fb:31:7e:68:60:2a:ce:22:87:73:3f:62:6e:
        68:c6:d2:b3:26:da:e9:21:a3:fd:12:94:62:41:ea:ea:f9:f3:
        3c:be:02:89:56:79:e6:63:e3:78:eb:89:72:bb:4f:e7:c0:2c:
        c0:83:1a:cf
-----BEGIN CERTIFICATE-----
MIIDWTCCAkGgAwIBAgIQCKrY0v/Ea3+b4U8SCqD5ijANBgkqhkiG9w0BAQsFADAV
MRMwEQYDVQQDDAp0ZWFtMTgtbmV0MB4XDTIzMTEwNDExMjc0MloXDTI2MTAxOTEx
Mjc0MlowGDEWMBQGA1UEAwwNdGVhbTE4LWNsaWVudDCCASIwDQYJKoZIhvcNAQEB
BQADggEPADCCAQoCggEBAK/wVu6NV/KHdfFbiQ7D/G0mwbR9UCef3ghzBdgvU+BO
/jWIFEmdWE1b0mz5w5ipa36OmUkUHuOdA7JdgRj7IuSVmuv7AnyFvuuT1w23qWjb
LLSstU9cnpx0Et3nvS9c7kqRFz6LI8BxTFMX/ZoPWpUZUHWsmfVaI9GTn7Xtpi5j
FpFR0pqtSDYgmunjvlm5eFNxLVMf3DLP1lrud/FRJMKGnKtfyTkrGs4bsSpYd9Px
jkMu5+Egd1xLQh9agYudsUlgEho9Iun2H5oQTick+khts7ZdUL7swpwnCbHqjF0U
ABhXEW/X0wwBzeU56Js2ehux4sKHVteZOrN4Pq5WaPsCAwEAAaOBoTCBnjAJBgNV
HRMEAjAAMB0GA1UdDgQWBBTWzd3uoZPcsZjOBGS3nWIXrN4GxjBQBgNVHSMESTBH
gBTAZsyAHp3PaxRPuxpFp0wj+HRTQKEZpBcwFTETMBEGA1UEAwwKdGVhbTE4LW5l
dIIUX37pNIAlGP71BL1Gda2v8MBheoEwEwYDVR0lBAwwCgYIKwYBBQUHAwIwCwYD
VR0PBAQDAgeAMA0GCSqGSIb3DQEBCwUAA4IBAQAFnE+RkEfPYzD3Xf8oXqzhtYcZ
qRcgt7TGH2p+63obQnGdCLe0hLu77RTO2LwUi0zg5UgG6TdwJM09NYtWHpSXLia7
XWUmDM1n1ilvukkpgncRf87Gaaip/DLP7855FVhjYRNd1ZQJd02y+Y867rV+RM10
jyPgqcZIrzU5W8syMBtEqtClA9hZ4ePVer8UHs1J+UaJbL85L6TJrLvpRLmfaANl
tPCgKog/ntf48jyJRRoRuUAufC3t0brdVobddBhPya8AeW7vnjtfMPsxfmhgKs4i
h3M/Ym5oxtKzJtrpIaP9EpRiQerq+fM8vgKJVnnmY+N464lyu0/nwCzAgxrP
-----END CERTIFICATE-----
