Certificate:
    Data:
        Version: 3 (0x2)
        Serial Number:
            19:11:f8:78:56:4d:bf:1a:09:bd:d0:e3:32:28:bb:8d
        Signature Algorithm: sha256WithRSAEncryption
        Issuer: CN=team18-net
        Validity
            Not Before: Nov  3 20:39:35 2023 GMT
            Not After : Oct 18 20:39:35 2026 GMT
        Subject: CN=team18-server
        Subject Public Key Info:
            Public Key Algorithm: rsaEncryption
                Public-Key: (2048 bit)
                Modulus:
                    00:a3:55:97:d4:66:fa:2c:cf:87:4d:ec:8c:bb:fb:
                    a5:2e:c2:0b:c2:4c:4d:bc:93:d1:7e:d4:43:e5:fc:
                    ba:8a:c4:61:2d:5c:a4:59:3d:b3:7e:a2:45:5a:be:
                    b6:ea:c7:37:a1:6e:80:e7:02:10:6f:e3:d2:5a:5c:
                    5e:11:24:bf:ef:8c:4b:36:41:3d:3a:e0:e5:c8:bd:
                    ee:b6:9f:f9:3d:ae:93:ff:57:69:75:83:d8:3b:df:
                    45:74:8c:e1:90:b6:0b:b7:3a:d2:96:c0:d9:0e:8f:
                    f7:21:b9:d6:de:19:d0:ad:87:44:30:fc:37:e3:8f:
                    af:04:c6:0d:d4:16:44:8a:79:32:05:fb:34:1b:31:
                    73:40:73:72:62:d4:04:b4:0d:c1:b1:70:79:33:09:
                    f0:b3:96:af:99:bf:46:0e:77:5c:30:2c:88:5e:82:
                    88:fd:32:2d:65:ab:e9:fb:54:ea:0a:ed:f2:8e:cd:
                    46:0e:7d:2b:e5:c6:ca:86:ec:b3:3a:9f:4c:d0:fb:
                    0c:be:b5:f5:6f:f2:0f:25:1e:29:f5:c6:c8:6f:e5:
                    3c:ad:72:c2:90:d2:eb:b4:eb:15:d8:26:d9:4a:e2:
                    f9:8c:24:9f:55:1e:91:04:53:80:53:5e:83:3f:db:
                    1d:0c:f6:97:9a:66:46:f1:ec:09:64:89:07:66:3f:
                    fe:1b
                Exponent: 65537 (0x10001)
        X509v3 extensions:
            X509v3 Basic Constraints: 
                CA:FALSE
            X509v3 Subject Key Identifier: 
                89:4E:64:D9:31:FA:24:4B:5C:99:D7:D9:9F:DB:4B:59:C6:F4:BA:52
            X509v3 Authority Key Identifier: 
                keyid:E3:00:F1:23:53:18:20:E2:70:81:F8:11:91:24:CE:F2:7B:CC:02:3D
                DirName:/CN=team18-net
                serial:2E:93:08:BD:03:68:11:62:24:2D:AD:E4:C0:3C:D3:09:6A:76:F3:3E
            X509v3 Extended Key Usage: 
                TLS Web Server Authentication
            X509v3 Key Usage: 
                Digital Signature, Key Encipherment
            X509v3 Subject Alternative Name: 
                DNS:team18-server
    Signature Algorithm: sha256WithRSAEncryption
    Signature Value:
        3a:e9:fc:32:b9:b1:3b:6e:11:d6:14:81:0f:aa:25:fb:10:8e:
        42:0c:59:b8:67:0e:89:85:a2:38:34:c8:66:40:ee:aa:7d:62:
        d9:ae:37:50:fa:e7:1e:59:51:2f:a9:4c:19:4a:a3:b0:17:76:
        5c:a4:cb:39:b3:da:c6:50:5c:39:f6:7d:21:c2:3d:94:22:2b:
        0a:e8:e8:00:6b:31:ea:ef:1e:70:58:a0:f8:95:37:6c:97:81:
        41:9a:b4:78:ab:4a:f6:8f:47:ff:69:18:a2:0c:ff:93:62:d8:
        aa:43:3d:9f:b2:d2:a6:d4:c1:5f:51:fe:31:9c:b5:46:42:3a:
        a0:3b:fc:a4:d0:3c:a8:cd:13:1b:1c:fd:a2:f8:ae:73:99:2b:
        3d:cd:95:98:d9:38:df:89:20:59:a3:ee:31:40:34:06:65:a9:
        59:0a:55:e5:9e:cd:e0:34:07:5c:d0:19:8f:b6:d5:d1:78:9b:
        92:49:77:84:32:46:ce:34:32:d4:3f:27:a7:0d:d1:d9:cb:80:
        13:00:a9:31:1b:ad:df:d7:f7:c0:fe:c4:84:fd:95:15:f0:99:
        b3:49:37:ab:4e:74:86:9e:11:3b:16:16:77:31:d3:55:10:08:
        fa:47:32:37:c3:07:dd:5c:43:b8:4b:cb:5c:82:fe:95:d4:bd:
        b1:38:50:dd
-----BEGIN CERTIFICATE-----
MIIDczCCAlugAwIBAgIQGRH4eFZNvxoJvdDjMii7jTANBgkqhkiG9w0BAQsFADAV
MRMwEQYDVQQDDAp0ZWFtMTgtbmV0MB4XDTIzMTEwMzIwMzkzNVoXDTI2MTAxODIw
MzkzNVowGDEWMBQGA1UEAwwNdGVhbTE4LXNlcnZlcjCCASIwDQYJKoZIhvcNAQEB
BQADggEPADCCAQoCggEBAKNVl9Rm+izPh03sjLv7pS7CC8JMTbyT0X7UQ+X8uorE
YS1cpFk9s36iRVq+turHN6FugOcCEG/j0lpcXhEkv++MSzZBPTrg5ci97raf+T2u
k/9XaXWD2DvfRXSM4ZC2C7c60pbA2Q6P9yG51t4Z0K2HRDD8N+OPrwTGDdQWRIp5
MgX7NBsxc0BzcmLUBLQNwbFweTMJ8LOWr5m/Rg53XDAsiF6CiP0yLWWr6ftU6grt
8o7NRg59K+XGyobsszqfTND7DL619W/yDyUeKfXGyG/lPK1ywpDS67TrFdgm2Uri
+Ywkn1UekQRTgFNegz/bHQz2l5pmRvHsCWSJB2Y//hsCAwEAAaOBuzCBuDAJBgNV
HRMEAjAAMB0GA1UdDgQWBBSJTmTZMfokS1yZ19mf20tZxvS6UjBQBgNVHSMESTBH
gBTjAPEjUxgg4nCB+BGRJM7ye8wCPaEZpBcwFTETMBEGA1UEAwwKdGVhbTE4LW5l
dIIULpMIvQNoEWIkLa3kwDzTCWp28z4wEwYDVR0lBAwwCgYIKwYBBQUHAwEwCwYD
VR0PBAQDAgWgMBgGA1UdEQQRMA+CDXRlYW0xOC1zZXJ2ZXIwDQYJKoZIhvcNAQEL
BQADggEBADrp/DK5sTtuEdYUgQ+qJfsQjkIMWbhnDomFojg0yGZA7qp9YtmuN1D6
5x5ZUS+pTBlKo7AXdlykyzmz2sZQXDn2fSHCPZQiKwro6ABrMervHnBYoPiVN2yX
gUGatHirSvaPR/9pGKIM/5Ni2KpDPZ+y0qbUwV9R/jGctUZCOqA7/KTQPKjNExsc
/aL4rnOZKz3NlZjZON+JIFmj7jFANAZlqVkKVeWezeA0B1zQGY+21dF4m5JJd4Qy
Rs40MtQ/J6cN0dnLgBMAqTEbrd/X98D+xIT9lRXwmbNJN6tOdIaeETsWFncx01UQ
CPpHMjfDB91cQ7hLy1yC/pXUvbE4UN0=
-----END CERTIFICATE-----
