Certificate:
    Data:
        Version: 3 (0x2)
        Serial Number:
            5f:11:eb:2a:85:3d:74:fa:ae:34:5d:66:8d:eb:37:6f
        Signature Algorithm: sha256WithRSAEncryption
        Issuer: CN=team192-net
        Validity
            Not Before: Nov  4 11:31:25 2023 GMT
            Not After : Oct 19 11:31:25 2026 GMT
        Subject: CN=team192-server
        Subject Public Key Info:
            Public Key Algorithm: rsaEncryption
                Public-Key: (2048 bit)
                Modulus:
                    00:e6:5e:14:a7:6f:ee:2a:b6:60:68:ee:bb:94:d9:
                    84:64:0d:c3:6c:cc:49:8e:09:fe:61:e1:24:de:0c:
                    9d:5e:27:27:13:c7:e5:5c:5d:ca:8c:e4:8e:ee:92:
                    c8:b7:f9:7e:65:cd:cf:08:dd:06:fe:a3:ab:f1:2e:
                    ba:43:35:ff:6e:68:fb:6b:94:a0:98:3a:8a:a6:4f:
                    58:29:75:16:01:fa:50:e1:ad:f7:20:45:f4:65:98:
                    c0:37:23:57:53:c5:34:27:56:e7:68:0c:f0:d3:08:
                    d3:6a:88:61:3e:90:3c:77:aa:6c:4a:de:c7:38:d6:
                    90:a2:10:3b:44:7a:42:29:49:36:6d:77:26:34:ab:
                    e8:d4:00:eb:28:de:58:1f:64:b2:99:f4:4d:ac:96:
                    c4:60:a2:19:7b:b6:08:b7:1b:c2:75:f3:2f:cd:a3:
                    8e:d5:df:31:5d:30:12:8a:50:1a:6d:3b:7f:e9:fc:
                    76:21:d1:31:a1:ef:81:1e:ec:93:72:63:c1:9d:bf:
                    1e:ed:f1:23:0b:86:2e:9d:d7:7a:76:dd:02:0c:a3:
                    49:f9:f4:de:d9:9c:db:63:af:fc:ef:b8:fb:bf:80:
                    68:4b:c4:cf:f1:7b:9d:02:c0:3e:22:ed:5e:1b:72:
                    90:b9:74:ab:ef:5a:24:f4:a6:21:87:92:2d:40:c7:
                    36:43
                Exponent: 65537 (0x10001)
        X509v3 extensions:
            X509v3 Basic Constraints: 
                CA:FALSE
            X509v3 Subject Key Identifier: 
                0D:67:03:AD:4E:CC:FC:5B:9B:CD:A0:3C:02:1B:76:2A:CA:DE:26:7A
            X509v3 Authority Key Identifier: 
                keyid:63:CD:62:50:7F:4F:80:DE:43:14:EF:29:30:38:86:B9:21:C2:CA:DC
                DirName:/CN=team192-net
                serial:4E:66:92:C6:9E:CF:4E:EB:C4:44:B3:17:21:A7:6F:B4:7E:33:B8:4A
            X509v3 Extended Key Usage: 
                TLS Web Server Authentication
            X509v3 Key Usage: 
                Digital Signature, Key Encipherment
            X509v3 Subject Alternative Name: 
                DNS:team192-server
    Signature Algorithm: sha256WithRSAEncryption
    Signature Value:
        66:80:9f:56:4e:82:5e:bf:88:9e:94:72:71:d9:23:78:cd:94:
        24:1f:7b:08:42:3e:36:cf:36:4b:28:14:92:f7:2f:4c:d0:92:
        6e:a6:a0:eb:3a:41:c1:56:e7:25:25:b5:8f:34:30:77:27:17:
        87:b9:3c:fe:1a:a4:da:06:ba:66:6d:cd:a5:6b:41:15:f6:af:
        cb:ed:1b:75:b3:95:de:94:d6:54:41:bf:35:6f:23:15:6e:4a:
        fb:63:f7:67:18:09:79:78:37:a0:e8:06:92:dd:c1:b8:3f:28:
        4e:26:77:93:d1:20:de:e9:53:4e:1e:b1:03:66:be:69:5e:a5:
        31:67:76:5f:f7:9f:f6:9b:c5:bf:9d:39:9e:ac:92:10:4b:54:
        f6:68:5d:9b:e9:5c:5d:75:44:08:8d:92:76:ca:2e:a2:cd:9e:
        85:34:72:7d:0f:14:cc:24:a2:bb:e0:43:af:73:73:48:5f:b6:
        56:e5:51:83:12:64:3e:f5:cb:04:66:ce:82:88:4d:8c:94:a9:
        8d:c7:9d:6e:3f:dd:ff:00:95:2f:43:00:f2:ba:52:5d:88:02:
        5a:d4:91:1c:35:78:df:50:bb:0c:7e:87:f3:21:84:d7:ef:9c:
        8e:89:b1:8c:93:01:10:9a:63:8c:25:59:48:a1:5c:0c:8f:22:
        48:3a:8d:47
-----BEGIN CERTIFICATE-----
MIIDdzCCAl+gAwIBAgIQXxHrKoU9dPquNF1mjes3bzANBgkqhkiG9w0BAQsFADAW
MRQwEgYDVQQDDAt0ZWFtMTkyLW5ldDAeFw0yMzExMDQxMTMxMjVaFw0yNjEwMTkx
MTMxMjVaMBkxFzAVBgNVBAMMDnRlYW0xOTItc2VydmVyMIIBIjANBgkqhkiG9w0B
AQEFAAOCAQ8AMIIBCgKCAQEA5l4Up2/uKrZgaO67lNmEZA3DbMxJjgn+YeEk3gyd
XicnE8flXF3KjOSO7pLIt/l+Zc3PCN0G/qOr8S66QzX/bmj7a5SgmDqKpk9YKXUW
AfpQ4a33IEX0ZZjANyNXU8U0J1bnaAzw0wjTaohhPpA8d6psSt7HONaQohA7RHpC
KUk2bXcmNKvo1ADrKN5YH2SymfRNrJbEYKIZe7YItxvCdfMvzaOO1d8xXTASilAa
bTt/6fx2IdExoe+BHuyTcmPBnb8e7fEjC4Yundd6dt0CDKNJ+fTe2ZzbY6/877j7
v4BoS8TP8XudAsA+Iu1eG3KQuXSr71ok9KYhh5ItQMc2QwIDAQABo4G9MIG6MAkG
A1UdEwQCMAAwHQYDVR0OBBYEFA1nA61OzPxbm82gPAIbdirK3iZ6MFEGA1UdIwRK
MEiAFGPNYlB/T4DeQxTvKTA4hrkhwsrcoRqkGDAWMRQwEgYDVQQDDAt0ZWFtMTky
LW5ldIIUTmaSxp7PTuvERLMXIadvtH4zuEowEwYDVR0lBAwwCgYIKwYBBQUHAwEw
CwYDVR0PBAQDAgWgMBkGA1UdEQQSMBCCDnRlYW0xOTItc2VydmVyMA0GCSqGSIb3
DQEBCwUAA4IBAQBmgJ9WToJev4ielHJx2SN4zZQkH3sIQj42zzZLKBSS9y9M0JJu
pqDrOkHBVuclJbWPNDB3JxeHuTz+GqTaBrpmbc2la0EV9q/L7Rt1s5XelNZUQb81
byMVbkr7Y/dnGAl5eDeg6AaS3cG4PyhOJneT0SDe6VNOHrEDZr5pXqUxZ3Zf95/2
m8W/nTmerJIQS1T2aF2b6VxddUQIjZJ2yi6izZ6FNHJ9DxTMJKK74EOvc3NIX7ZW
5VGDEmQ+9csEZs6CiE2MlKmNx51uP93/AJUvQwDyulJdiAJa1JEcNXjfULsMfofz
IYTX75yOibGMkwEQmmOMJVlIoVwMjyJIOo1H
-----END CERTIFICATE-----
