Certificate:
    Data:
        Version: 3 (0x2)
        Serial Number:
            ad:a3:8d:96:1c:5b:fa:4e:fd:12:f8:a1:4d:cc:cd:5e
        Signature Algorithm: sha256WithRSAEncryption
        Issuer: CN=team192-net
        Validity
            Not Before: Nov  4 11:31:24 2023 GMT
            Not After : Oct 19 11:31:24 2026 GMT
        Subject: CN=team192-client
        Subject Public Key Info:
            Public Key Algorithm: rsaEncryption
                Public-Key: (2048 bit)
                Modulus:
                    00:94:f7:39:d5:6f:7c:2e:db:61:f3:f1:73:d1:07:
                    0e:5c:fd:d8:90:0c:3b:b3:1f:7e:a9:9c:17:7d:19:
                    3b:4b:3d:f1:16:34:5a:42:d6:0c:7c:a7:1d:65:1a:
                    47:07:d9:ba:66:a0:54:dd:a3:40:e5:a4:b1:4e:c1:
                    d3:75:e3:f2:6b:a4:57:97:e1:12:73:e1:7d:f9:b6:
                    ee:01:4c:89:f1:c8:13:8f:56:3a:6e:be:58:a1:eb:
                    5b:1f:60:23:82:1e:31:6a:af:df:8d:98:aa:0e:89:
                    1d:37:10:2c:57:15:9a:51:e5:f2:c9:f1:fc:87:d2:
                    9d:18:11:fd:e3:3e:d0:4d:c3:3e:b6:41:97:b0:6f:
                    e2:6b:7a:10:f0:f9:d5:5d:35:18:1e:24:0c:dc:74:
                    ae:78:de:78:9b:dd:18:77:c7:ae:22:70:61:98:cf:
                    f1:d8:d1:91:59:27:3e:39:73:25:5f:eb:cb:c0:dc:
                    11:ea:e7:85:64:bc:f8:d6:ff:4b:83:5b:af:bb:e1:
                    12:7f:c3:73:51:ee:16:11:98:8a:2c:20:ee:94:c5:
                    2f:c1:c1:5b:85:f2:80:50:b1:04:fe:b6:ec:b3:bb:
                    10:10:53:55:e1:8c:e9:79:7a:69:99:03:0f:86:e0:
                    8b:86:af:e2:85:ee:10:5a:1e:5d:58:f5:9d:11:15:
                    d0:8b
                Exponent: 65537 (0x10001)
        X509v3 extensions:
            X509v3 Basic Constraints: 
                CA:FALSE
            X509v3 Subject Key Identifier: 
                6B:BF:F2:C1:09:50:AA:8B:0F:26:E8:5D:9F:92:9E:D0:E1:C7:F1:43
            X509v3 Authority Key Identifier: 
                keyid:63:CD:62:50:7F:4F:80:DE:43:14:EF:29:30:38:86:B9:21:C2:CA:DC
                DirName:/CN=team192-net
                serial:4E:66:92:C6:9E:CF:4E:EB:C4:44:B3:17:21:A7:6F:B4:7E:33:B8:4A
            X509v3 Extended Key Usage: 
                TLS Web Client Authentication
            X509v3 Key Usage: 
                Digital Signature
    Signature Algorithm: sha256WithRSAEncryption
    Signature Value:
        89:95:8f:c2:d4:24:04:f0:05:64:1c:0b:97:74:9f:fa:a2:11:
        a4:d5:a3:f4:9d:85:06:7f:6a:bb:5c:ba:f4:48:4e:4e:fc:a8:
        79:b3:af:4e:81:7e:12:35:4f:55:9f:cb:73:f1:74:3a:1e:ee:
        82:f9:21:3a:2f:2b:75:44:d6:51:63:55:98:b5:b2:87:38:f7:
        af:37:bc:2a:a4:96:ab:50:00:82:30:77:a6:88:0c:56:17:49:
        d5:d5:82:80:61:dc:62:69:6d:5a:6f:1c:7c:31:05:49:d0:f9:
        2c:a3:d3:b2:3e:4d:9e:fa:56:07:06:34:8b:ad:a9:93:c4:71:
        5c:51:ca:0b:0d:df:08:4e:ed:e6:45:ed:38:64:ad:fa:99:12:
        5f:86:ce:32:36:c4:22:9e:06:3a:ba:32:2b:b6:43:46:d1:ce:
        54:20:ca:2b:01:03:2e:96:db:03:02:1e:eb:38:0c:b9:29:0e:
        99:9d:96:7f:66:c1:e3:6a:af:5d:f8:68:b3:9a:d0:65:fb:94:
        4d:99:eb:d8:76:50:ad:2d:1a:52:e4:65:43:1f:b1:57:4b:40:
        b3:cc:df:40:28:3a:5d:67:a5:af:2e:16:68:fc:31:6b:4b:7f:
        58:28:2b:f2:fa:8d:fa:4a:43:80:b5:69:f9:2e:90:6f:fa:bb:
        6a:11:74:e9
-----BEGIN CERTIFICATE-----
MIIDXTCCAkWgAwIBAgIRAK2jjZYcW/pO/RL4oU3MzV4wDQYJKoZIhvcNAQELBQAw
FjEUMBIGA1UEAwwLdGVhbTE5Mi1uZXQwHhcNMjMxMTA0MTEzMTI0WhcNMjYxMDE5
MTEzMTI0WjAZMRcwFQYDVQQDDA50ZWFtMTkyLWNsaWVudDCCASIwDQYJKoZIhvcN
AQEBBQADggEPADCCAQoCggEBAJT3OdVvfC7bYfPxc9EHDlz92JAMO7MffqmcF30Z
O0s98RY0WkLWDHynHWUaRwfZumagVN2jQOWksU7B03Xj8mukV5fhEnPhffm27gFM
ifHIE49WOm6+WKHrWx9gI4IeMWqv342Yqg6JHTcQLFcVmlHl8snx/IfSnRgR/eM+
0E3DPrZBl7Bv4mt6EPD51V01GB4kDNx0rnjeeJvdGHfHriJwYZjP8djRkVknPjlz
JV/ry8DcEernhWS8+Nb/S4Nbr7vhEn/Dc1HuFhGYiiwg7pTFL8HBW4XygFCxBP62
7LO7EBBTVeGM6Xl6aZkDD4bgi4av4oXuEFoeXVj1nREV0IsCAwEAAaOBojCBnzAJ
BgNVHRMEAjAAMB0GA1UdDgQWBBRrv/LBCVCqiw8m6F2fkp7Q4cfxQzBRBgNVHSME
SjBIgBRjzWJQf0+A3kMU7ykwOIa5IcLK3KEapBgwFjEUMBIGA1UEAwwLdGVhbTE5
Mi1uZXSCFE5mksaez07rxESzFyGnb7R+M7hKMBMGA1UdJQQMMAoGCCsGAQUFBwMC
MAsGA1UdDwQEAwIHgDANBgkqhkiG9w0BAQsFAAOCAQEAiZWPwtQkBPAFZBwLl3Sf
+qIRpNWj9J2FBn9qu1y69EhOTvyoebOvToF+EjVPVZ/Lc/F0Oh7ugvkhOi8rdUTW
UWNVmLWyhzj3rze8KqSWq1AAgjB3pogMVhdJ1dWCgGHcYmltWm8cfDEFSdD5LKPT
sj5NnvpWBwY0i62pk8RxXFHKCw3fCE7t5kXtOGSt+pkSX4bOMjbEIp4GOroyK7ZD
RtHOVCDKKwEDLpbbAwIe6zgMuSkOmZ2Wf2bB42qvXfhos5rQZfuUTZnr2HZQrS0a
UuRlQx+xV0tAs8zfQCg6XWelry4WaPwxa0t/WCgr8vqN+kpDgLVp+S6Qb/q7ahF0
6Q==
-----END CERTIFICATE-----
