Certificate:
    Data:
        Version: 3 (0x2)
        Serial Number:
            c6:e6:76:45:1d:68:97:6a:03:c7:6d:aa:42:07:98:83
        Signature Algorithm: sha256WithRSAEncryption
        Issuer: CN=team192-net
        Validity
            Not Before: Nov  4 10:44:07 2023 GMT
            Not After : Oct 19 10:44:07 2026 GMT
        Subject: CN=team192-client
        Subject Public Key Info:
            Public Key Algorithm: rsaEncryption
                Public-Key: (2048 bit)
                Modulus:
                    00:d6:64:4c:cd:fe:02:f5:4e:15:dc:23:f4:17:b8:
                    08:3b:6e:fa:73:f5:28:aa:0f:33:73:70:7b:29:4c:
                    74:28:49:ce:27:4b:fa:f5:1a:7f:55:f5:93:78:f4:
                    dd:c2:d7:16:ca:5e:57:99:08:b7:7b:ac:25:16:eb:
                    07:8b:6c:4e:e3:99:46:95:50:be:ae:b0:4c:5f:ba:
                    80:d5:4d:c4:73:1a:27:d7:f7:4f:ee:8d:ca:c7:68:
                    7b:80:84:15:f9:6e:2c:85:1a:e4:eb:3d:ef:59:ba:
                    61:e9:53:d9:7b:ec:8c:e4:6b:80:a3:a1:f2:e2:1b:
                    20:45:52:da:36:4e:d4:46:bb:90:59:b7:d6:12:68:
                    dc:39:3c:c3:31:a6:bf:ae:6c:3b:05:fc:55:7a:9c:
                    91:35:58:bb:f6:4a:c5:93:f6:19:7e:fc:10:e9:45:
                    85:23:84:00:ae:5b:6f:b3:50:78:ef:4e:84:1f:f0:
                    ff:8a:b7:a4:5f:6c:79:c1:e8:e3:50:87:52:58:2a:
                    6b:6f:98:19:1e:cc:78:5a:8f:99:8a:f9:a5:f3:75:
                    ae:53:f6:8a:04:b3:95:0b:af:a2:0f:a7:99:89:50:
                    e0:14:83:e7:3f:fb:39:92:10:09:1e:61:aa:ee:d6:
                    7d:13:73:e3:ff:ef:a1:d8:4d:f3:d2:5a:59:db:da:
                    ee:e3
                Exponent: 65537 (0x10001)
        X509v3 extensions:
            X509v3 Basic Constraints: 
                CA:FALSE
            X509v3 Subject Key Identifier: 
                FA:60:94:2C:69:84:39:58:3D:A7:1D:EE:57:C1:22:24:4B:56:78:7D
            X509v3 Authority Key Identifier: 
                keyid:02:D3:16:8D:A2:B8:ED:E2:42:FF:18:18:D4:38:A6:1D:26:ED:0C:DD
                DirName:/CN=team192-net
                serial:7E:2D:7C:BB:10:BE:BA:A8:CD:1F:74:6A:FF:B1:60:4D:8E:FB:C6:BA
            X509v3 Extended Key Usage: 
                TLS Web Client Authentication
            X509v3 Key Usage: 
                Digital Signature
    Signature Algorithm: sha256WithRSAEncryption
    Signature Value:
        1e:a4:84:58:d2:36:bb:a7:4f:c6:ea:43:5f:6f:90:4b:df:35:
        6a:1d:6a:3d:3d:7a:50:dc:16:0d:3d:81:0d:b6:1e:01:00:ff:
        2d:95:5e:4e:98:00:8b:24:17:b5:14:4f:12:67:49:b1:eb:1b:
        2f:01:82:7e:e9:f2:86:43:49:2b:20:13:d7:8c:96:53:8d:b1:
        79:3b:d9:18:49:e1:0e:81:9c:2e:06:18:04:80:b1:0a:ed:a2:
        12:23:f6:75:20:33:58:5d:dd:fe:67:4c:a8:a5:d9:c3:6e:4f:
        79:46:7e:f0:b3:d5:e7:df:ca:28:de:aa:26:e1:bf:c6:24:b3:
        05:fe:27:b8:ce:a7:8d:19:b7:0f:6c:91:f4:cf:4c:be:97:59:
        39:06:2d:7b:ea:a8:4b:c2:91:c1:44:08:fd:83:e6:96:19:2f:
        d0:3c:75:70:73:fd:eb:a6:04:06:61:93:4d:c2:d7:46:68:a5:
        a4:83:0f:01:df:3b:28:89:8c:9a:0b:fa:bd:31:6b:5d:a6:b4:
        14:f7:f7:05:dd:1a:82:87:45:3b:3b:07:c2:16:e7:92:0f:35:
        f2:aa:5f:bb:04:9e:fc:5b:67:06:6d:b3:3a:91:57:38:10:96:
        f5:1e:eb:ee:1e:f3:44:f9:c0:5d:70:d3:ea:87:cf:03:33:e5:
        34:92:f3:ca
-----BEGIN CERTIFICATE-----
MIIDXTCCAkWgAwIBAgIRAMbmdkUdaJdqA8dtqkIHmIMwDQYJKoZIhvcNAQELBQAw
FjEUMBIGA1UEAwwLdGVhbTE5Mi1uZXQwHhcNMjMxMTA0MTA0NDA3WhcNMjYxMDE5
MTA0NDA3WjAZMRcwFQYDVQQDDA50ZWFtMTkyLWNsaWVudDCCASIwDQYJKoZIhvcN
AQEBBQADggEPADCCAQoCggEBANZkTM3+AvVOFdwj9Be4CDtu+nP1KKoPM3NweylM
dChJzidL+vUaf1X1k3j03cLXFspeV5kIt3usJRbrB4tsTuOZRpVQvq6wTF+6gNVN
xHMaJ9f3T+6Nysdoe4CEFfluLIUa5Os971m6YelT2XvsjORrgKOh8uIbIEVS2jZO
1Ea7kFm31hJo3Dk8wzGmv65sOwX8VXqckTVYu/ZKxZP2GX78EOlFhSOEAK5bb7NQ
eO9OhB/w/4q3pF9secHo41CHUlgqa2+YGR7MeFqPmYr5pfN1rlP2igSzlQuvog+n
mYlQ4BSD5z/7OZIQCR5hqu7WfRNz4//vodhN89JaWdva7uMCAwEAAaOBojCBnzAJ
BgNVHRMEAjAAMB0GA1UdDgQWBBT6YJQsaYQ5WD2nHe5XwSIkS1Z4fTBRBgNVHSME
SjBIgBQC0xaNorjt4kL/GBjUOKYdJu0M3aEapBgwFjEUMBIGA1UEAwwLdGVhbTE5
Mi1uZXSCFH4tfLsQvrqozR90av+xYE2O+8a6MBMGA1UdJQQMMAoGCCsGAQUFBwMC
MAsGA1UdDwQEAwIHgDANBgkqhkiG9w0BAQsFAAOCAQEAHqSEWNI2u6dPxupDX2+Q
S981ah1qPT16UNwWDT2BDbYeAQD/LZVeTpgAiyQXtRRPEmdJsesbLwGCfunyhkNJ
KyAT14yWU42xeTvZGEnhDoGcLgYYBICxCu2iEiP2dSAzWF3d/mdMqKXZw25PeUZ+
8LPV59/KKN6qJuG/xiSzBf4nuM6njRm3D2yR9M9MvpdZOQYte+qoS8KRwUQI/YPm
lhkv0Dx1cHP966YEBmGTTcLXRmilpIMPAd87KImMmgv6vTFrXaa0FPf3Bd0agodF
OzsHwhbnkg818qpfuwSe/FtnBm2zOpFXOBCW9R7r7h7zRPnAXXDT6ofPAzPlNJLz
yg==
-----END CERTIFICATE-----
