Certificate:
    Data:
        Version: 3 (0x2)
        Serial Number:
            d6:1a:42:86:a0:f3:59:e1:2f:76:6b:8c:55:1a:fe:5b
        Signature Algorithm: sha256WithRSAEncryption
        Issuer: CN=team462-net
        Validity
            Not Before: Nov  3 20:47:41 2023 GMT
            Not After : Oct 18 20:47:41 2026 GMT
        Subject: CN=team462-client
        Subject Public Key Info:
            Public Key Algorithm: rsaEncryption
                Public-Key: (2048 bit)
                Modulus:
                    00:c7:42:1a:e7:15:a7:60:c4:cc:c1:a6:9c:42:5f:
                    ed:fa:57:51:98:be:29:fa:90:7b:c4:31:26:9e:f1:
                    1f:9c:40:93:47:d1:a7:83:52:9f:d2:7f:27:5d:2f:
                    1e:ba:0e:ba:62:3a:74:78:d9:65:4e:5c:a3:0d:17:
                    74:1b:5d:2b:9c:ad:b1:56:1b:fa:5a:68:0f:13:e7:
                    6c:24:6a:b1:83:c9:b1:d5:44:89:67:9f:e2:f2:ff:
                    2f:b5:9b:53:21:6b:67:94:ba:15:40:d4:a3:44:0d:
                    ce:f8:6b:57:ac:90:77:a5:38:12:98:9a:a9:b7:24:
                    b9:49:8e:87:68:3e:23:a6:c5:d0:77:d3:6f:13:c9:
                    8f:75:55:14:e9:15:df:a4:f8:6f:05:af:3b:c8:f9:
                    70:a8:6b:52:06:f3:dd:ef:9c:bc:a0:97:24:ca:26:
                    1d:31:db:0b:97:89:87:2d:72:57:0c:c3:fe:a4:5d:
                    6d:ee:72:3e:02:d1:12:92:ab:8d:33:1b:f1:7f:21:
                    e9:4d:39:63:a8:c6:52:f0:ba:0d:68:ba:39:2c:22:
                    b2:cd:c1:09:80:27:cd:b3:9a:d3:b8:ae:79:72:ed:
                    96:96:73:93:9d:d8:eb:3f:82:13:99:6f:40:e4:22:
                    d6:fa:37:10:fb:17:8c:a3:c3:03:b6:d2:56:82:af:
                    61:0b
                Exponent: 65537 (0x10001)
        X509v3 extensions:
            X509v3 Basic Constraints: 
                CA:FALSE
            X509v3 Subject Key Identifier: 
                3C:41:68:D2:5B:9C:DF:5D:77:C1:50:15:94:6E:EB:7A:39:65:D6:95
            X509v3 Authority Key Identifier: 
                keyid:9F:BB:EC:02:B1:F7:35:73:29:09:59:92:7E:96:04:89:C1:60:2F:B0
                DirName:/CN=team462-net
                serial:0C:34:BD:DE:15:1E:84:5A:6C:72:BE:C1:43:FC:4F:5B:CB:7F:78:17
            X509v3 Extended Key Usage: 
                TLS Web Client Authentication
            X509v3 Key Usage: 
                Digital Signature
    Signature Algorithm: sha256WithRSAEncryption
    Signature Value:
        35:65:b3:ee:e7:b4:f2:ed:86:6a:04:bd:19:fa:ae:4d:4e:9a:
        72:b2:5f:68:94:9a:e9:eb:5c:fc:b1:25:01:e1:e6:1c:41:44:
        c5:25:76:35:43:29:bf:1b:0f:b8:13:8a:ac:fb:e5:8a:6a:37:
        b8:c6:6a:f8:e8:3c:6d:12:9a:ff:a4:76:cf:77:90:34:32:cf:
        c8:11:ed:c1:07:3b:5f:6b:8e:58:a3:51:b3:dd:ca:58:db:b3:
        ef:ae:b2:1f:84:9b:97:45:66:73:f1:89:13:cd:35:6e:52:30:
        fd:4d:22:56:90:1d:fb:c6:73:33:ac:63:ad:ee:4d:0c:b2:b8:
        33:4f:e6:5c:14:60:d1:a6:8f:70:f1:d3:e1:c0:6c:bc:00:79:
        1f:ba:b4:c1:0a:22:83:0a:de:84:4d:ae:0c:0f:ed:d5:f8:34:
        b0:6e:7c:aa:f0:28:2a:0f:51:55:f2:cc:db:69:87:65:93:1e:
        bf:3a:79:b2:0f:74:3a:fb:08:0b:0f:49:9e:78:cd:d1:6e:86:
        09:df:15:ba:2d:7f:55:23:2d:35:57:e2:0f:04:ec:02:77:5e:
        da:32:cb:f9:be:cf:8a:f9:76:24:bb:77:a1:c6:f9:61:9c:81:
        82:a1:22:3a:dc:5b:3e:05:a0:50:aa:1b:62:db:64:98:2c:80:
        61:b8:4d:44
-----BEGIN CERTIFICATE-----
MIIDXTCCAkWgAwIBAgIRANYaQoag81nhL3ZrjFUa/lswDQYJKoZIhvcNAQELBQAw
FjEUMBIGA1UEAwwLdGVhbTQ2Mi1uZXQwHhcNMjMxMTAzMjA0NzQxWhcNMjYxMDE4
MjA0NzQxWjAZMRcwFQYDVQQDDA50ZWFtNDYyLWNsaWVudDCCASIwDQYJKoZIhvcN
AQEBBQADggEPADCCAQoCggEBAMdCGucVp2DEzMGmnEJf7fpXUZi+KfqQe8QxJp7x
H5xAk0fRp4NSn9J/J10vHroOumI6dHjZZU5cow0XdBtdK5ytsVYb+lpoDxPnbCRq
sYPJsdVEiWef4vL/L7WbUyFrZ5S6FUDUo0QNzvhrV6yQd6U4EpiaqbckuUmOh2g+
I6bF0HfTbxPJj3VVFOkV36T4bwWvO8j5cKhrUgbz3e+cvKCXJMomHTHbC5eJhy1y
VwzD/qRdbe5yPgLREpKrjTMb8X8h6U05Y6jGUvC6DWi6OSwiss3BCYAnzbOa07iu
eXLtlpZzk53Y6z+CE5lvQOQi1vo3EPsXjKPDA7bSVoKvYQsCAwEAAaOBojCBnzAJ
BgNVHRMEAjAAMB0GA1UdDgQWBBQ8QWjSW5zfXXfBUBWUbut6OWXWlTBRBgNVHSME
SjBIgBSfu+wCsfc1cykJWZJ+lgSJwWAvsKEapBgwFjEUMBIGA1UEAwwLdGVhbTQ2
Mi1uZXSCFAw0vd4VHoRabHK+wUP8T1vLf3gXMBMGA1UdJQQMMAoGCCsGAQUFBwMC
MAsGA1UdDwQEAwIHgDANBgkqhkiG9w0BAQsFAAOCAQEANWWz7ue08u2GagS9Gfqu
TU6acrJfaJSa6etc/LElAeHmHEFExSV2NUMpvxsPuBOKrPvlimo3uMZq+Og8bRKa
/6R2z3eQNDLPyBHtwQc7X2uOWKNRs93KWNuz766yH4Sbl0Vmc/GJE801blIw/U0i
VpAd+8ZzM6xjre5NDLK4M0/mXBRg0aaPcPHT4cBsvAB5H7q0wQoigwrehE2uDA/t
1fg0sG58qvAoKg9RVfLM22mHZZMevzp5sg90OvsICw9JnnjN0W6GCd8Vui1/VSMt
NVfiDwTsAnde2jLL+b7Pivl2JLt3ocb5YZyBgqEiOtxbPgWgUKobYttkmCyAYbhN
RA==
-----END CERTIFICATE-----
