Certificate:
    Data:
        Version: 3 (0x2)
        Serial Number:
            7a:1e:3b:b4:7c:c4:3d:20:50:20:82:bc:0f:12:92:f1
        Signature Algorithm: sha256WithRSAEncryption
        Issuer: CN=team462-net
        Validity
            Not Before: Nov  3 20:47:41 2023 GMT
            Not After : Oct 18 20:47:41 2026 GMT
        Subject: CN=team462-server
        Subject Public Key Info:
            Public Key Algorithm: rsaEncryption
                Public-Key: (2048 bit)
                Modulus:
                    00:c0:84:79:a7:bc:88:f9:87:7f:5e:e0:ca:ff:9d:
                    36:a8:90:b8:aa:22:e7:63:eb:1d:13:e6:3a:ea:df:
                    d2:0b:44:63:f6:b9:c2:82:02:85:bc:81:c5:6f:90:
                    86:d3:d2:47:4b:31:00:a6:1d:05:77:33:1c:50:7e:
                    54:8d:8c:8a:56:49:bf:5c:37:5c:24:e1:4c:cf:95:
                    a5:a3:63:4c:c6:ea:29:e4:5c:cc:87:73:a3:30:13:
                    cc:d2:93:af:3a:fd:87:5d:a0:52:f0:9d:91:a6:44:
                    07:4a:61:a6:74:3b:fe:9d:4b:fa:3f:2f:b4:d0:3b:
                    b0:c2:e1:c7:b3:d8:4e:f2:04:13:95:2e:53:e7:0e:
                    0b:ea:1a:dc:49:51:78:ec:10:07:12:c1:91:5b:43:
                    0b:28:43:e3:b7:f1:63:dd:da:fd:23:e5:97:06:30:
                    69:7d:0d:f8:0d:1c:bc:18:39:75:30:3e:41:20:20:
                    e4:d1:a4:eb:f7:54:b2:07:52:90:b7:bf:0a:b7:fc:
                    3f:0f:87:16:fd:0b:31:6e:91:71:73:ff:30:16:ef:
                    8b:fc:c1:a0:ac:91:bc:28:91:37:bf:f4:ab:e7:4b:
                    f7:fd:78:01:35:d3:ab:af:af:b3:e0:94:85:19:ce:
                    be:bd:f9:38:10:73:2a:f0:ac:e8:53:97:99:a5:13:
                    4b:9b
                Exponent: 65537 (0x10001)
        X509v3 extensions:
            X509v3 Basic Constraints: 
                CA:FALSE
            X509v3 Subject Key Identifier: 
                41:3F:01:EB:CB:71:EB:27:89:5A:17:54:55:A4:5E:0F:CD:F2:4A:95
            X509v3 Authority Key Identifier: 
                keyid:9F:BB:EC:02:B1:F7:35:73:29:09:59:92:7E:96:04:89:C1:60:2F:B0
                DirName:/CN=team462-net
                serial:0C:34:BD:DE:15:1E:84:5A:6C:72:BE:C1:43:FC:4F:5B:CB:7F:78:17
            X509v3 Extended Key Usage: 
                TLS Web Server Authentication
            X509v3 Key Usage: 
                Digital Signature, Key Encipherment
            X509v3 Subject Alternative Name: 
                DNS:team462-server
    Signature Algorithm: sha256WithRSAEncryption
    Signature Value:
        59:9c:22:f4:f6:93:17:28:eb:9b:6a:49:15:c7:47:7c:47:53:
        5a:45:3b:51:c7:86:e6:19:32:96:19:5a:87:2e:59:6d:d3:fd:
        46:98:b1:45:37:24:5a:fd:18:f0:c3:84:4b:67:8d:ee:3e:a1:
        28:20:bd:9b:8d:8a:0c:6d:fd:c1:f2:f5:50:d8:04:30:ca:ae:
        c0:06:fe:86:5e:82:2f:88:84:3c:1b:10:10:da:f9:8f:2b:a9:
        4a:a9:18:a8:c4:f8:fc:12:b0:43:85:da:17:d3:d7:f7:09:f4:
        ac:7c:e7:de:69:90:2d:3d:96:cc:9b:a0:a8:45:f2:58:0d:af:
        27:40:a6:e1:62:76:f2:53:b9:72:dc:5e:56:f8:9d:de:b6:df:
        60:73:cd:01:24:db:78:32:fb:c2:03:e4:63:ee:15:ac:f5:96:
        b1:43:e7:ef:19:6e:75:5f:40:15:84:ea:ed:64:67:6f:9d:c6:
        c8:1f:79:27:67:27:ec:d6:48:ba:b8:09:f2:f9:0d:dd:d4:30:
        4b:5a:31:57:f6:fc:01:d8:45:74:2a:30:09:ee:5a:44:db:d0:
        e1:b3:7c:e9:64:e0:33:5f:9b:1e:b2:54:7a:11:8a:2e:d7:40:
        89:75:01:09:68:2d:fb:f5:c9:cf:22:2a:fa:31:7b:5d:b1:78:
        45:db:a9:ab
-----BEGIN CERTIFICATE-----
MIIDdzCCAl+gAwIBAgIQeh47tHzEPSBQIIK8DxKS8TANBgkqhkiG9w0BAQsFADAW
MRQwEgYDVQQDDAt0ZWFtNDYyLW5ldDAeFw0yMzExMDMyMDQ3NDFaFw0yNjEwMTgy
MDQ3NDFaMBkxFzAVBgNVBAMMDnRlYW00NjItc2VydmVyMIIBIjANBgkqhkiG9w0B
AQEFAAOCAQ8AMIIBCgKCAQEAwIR5p7yI+Yd/XuDK/502qJC4qiLnY+sdE+Y66t/S
C0Rj9rnCggKFvIHFb5CG09JHSzEAph0FdzMcUH5UjYyKVkm/XDdcJOFMz5Wlo2NM
xuop5FzMh3OjMBPM0pOvOv2HXaBS8J2RpkQHSmGmdDv+nUv6Py+00DuwwuHHs9hO
8gQTlS5T5w4L6hrcSVF47BAHEsGRW0MLKEPjt/Fj3dr9I+WXBjBpfQ34DRy8GDl1
MD5BICDk0aTr91SyB1KQt78Kt/w/D4cW/QsxbpFxc/8wFu+L/MGgrJG8KJE3v/Sr
50v3/XgBNdOrr6+z4JSFGc6+vfk4EHMq8KzoU5eZpRNLmwIDAQABo4G9MIG6MAkG
A1UdEwQCMAAwHQYDVR0OBBYEFEE/AevLcesniVoXVFWkXg/N8kqVMFEGA1UdIwRK
MEiAFJ+77AKx9zVzKQlZkn6WBInBYC+woRqkGDAWMRQwEgYDVQQDDAt0ZWFtNDYy
LW5ldIIUDDS93hUehFpscr7BQ/xPW8t/eBcwEwYDVR0lBAwwCgYIKwYBBQUHAwEw
CwYDVR0PBAQDAgWgMBkGA1UdEQQSMBCCDnRlYW00NjItc2VydmVyMA0GCSqGSIb3
DQEBCwUAA4IBAQBZnCL09pMXKOubakkVx0d8R1NaRTtRx4bmGTKWGVqHLllt0/1G
mLFFNyRa/Rjww4RLZ43uPqEoIL2bjYoMbf3B8vVQ2AQwyq7ABv6GXoIviIQ8GxAQ
2vmPK6lKqRioxPj8ErBDhdoX09f3CfSsfOfeaZAtPZbMm6CoRfJYDa8nQKbhYnby
U7ly3F5W+J3ett9gc80BJNt4MvvCA+Rj7hWs9ZaxQ+fvGW51X0AVhOrtZGdvncbI
H3knZyfs1ki6uAny+Q3d1DBLWjFX9vwB2EV0KjAJ7lpE29Dhs3zpZOAzX5seslR6
EYou10CJdQEJaC379cnPIir6MXtdsXhF26mr
-----END CERTIFICATE-----
