Certificate:
    Data:
        Version: 3 (0x2)
        Serial Number:
            3d:48:ee:40:f9:60:e6:3e:6d:78:2e:81:95:11:9f:30
        Signature Algorithm: sha256WithRSAEncryption
        Issuer: CN=team370-net
        Validity
            Not Before: Nov  4 11:35:44 2023 GMT
            Not After : Oct 19 11:35:44 2026 GMT
        Subject: CN=team370-server
        Subject Public Key Info:
            Public Key Algorithm: rsaEncryption
                Public-Key: (2048 bit)
                Modulus:
                    00:d7:a6:9d:91:93:30:c0:f3:da:0c:47:03:07:3d:
                    32:51:2a:52:d8:7d:26:50:21:6e:20:c1:92:8b:f2:
                    e1:69:cf:78:7b:56:44:6d:45:c5:3f:15:c8:e4:38:
                    34:39:2e:5e:93:22:22:89:38:22:05:18:80:74:4a:
                    3d:89:e3:28:14:be:38:f7:b3:00:67:ff:e0:cf:87:
                    2c:82:08:34:08:18:aa:c9:d0:18:40:ee:72:ba:9b:
                    b8:5d:d9:82:60:61:f5:86:11:99:ba:be:cb:8c:20:
                    43:fd:86:eb:42:57:cf:0f:09:c6:c7:0f:92:9e:5e:
                    b3:8d:af:26:5f:33:cf:44:61:fe:22:69:dc:42:a9:
                    b9:ff:bd:ca:28:04:dd:4d:68:98:ed:55:7a:1b:77:
                    63:6d:28:76:06:bb:53:fc:cb:f3:51:7b:94:3c:ac:
                    03:39:21:93:e6:43:ad:1a:9f:29:95:af:4b:ee:4f:
                    ba:69:fb:1d:89:33:30:98:7b:9a:84:88:9b:e6:d2:
                    ca:1d:b2:0e:b1:18:7a:df:0f:f2:0b:ca:94:07:60:
                    d7:4e:b0:da:7f:88:70:1e:ed:b1:aa:26:31:c7:5e:
                    19:ed:7c:14:4e:ac:c0:00:2a:8f:fa:1f:69:a5:96:
                    e5:d4:83:ff:51:0b:23:c6:9c:f2:c6:47:df:88:cc:
                    42:bb
                Exponent: 65537 (0x10001)
        X509v3 extensions:
            X509v3 Basic Constraints: 
                CA:FALSE
            X509v3 Subject Key Identifier: 
                A2:FF:5E:D3:DD:5B:82:DC:D7:2C:6F:9E:71:8C:B9:FD:74:6F:12:7E
            X509v3 Authority Key Identifier: 
                keyid:14:DF:5F:6C:77:5B:CB:71:E2:D7:A1:A4:EA:80:B7:B9:03:D0:E7:12
                DirName:/CN=team370-net
                serial:30:E6:62:D4:4B:3D:5E:BE:64:A3:83:B4:C1:49:A0:0D:C3:6E:38:84
            X509v3 Extended Key Usage: 
                TLS Web Server Authentication
            X509v3 Key Usage: 
                Digital Signature, Key Encipherment
            X509v3 Subject Alternative Name: 
                DNS:team370-server
    Signature Algorithm: sha256WithRSAEncryption
    Signature Value:
        a1:ad:48:95:61:78:a0:de:e4:e3:64:b8:95:44:c8:ce:b9:a5:
        b6:24:aa:d3:d5:24:c0:db:65:59:37:77:b7:b7:cb:cd:4a:88:
        50:e1:aa:1a:7a:6c:ad:28:75:38:b4:82:67:06:35:d0:b2:39:
        2f:05:7b:a5:02:c9:29:d5:bf:50:2c:09:dc:d2:cb:41:fb:23:
        e1:f6:ac:00:9d:68:10:36:59:69:de:57:b6:b2:32:a6:93:04:
        4c:ea:72:4a:f9:4e:f5:16:a0:34:88:0c:33:92:ec:fc:0d:ee:
        fa:b4:bd:c5:23:d0:57:f7:e9:bf:d1:df:15:d6:91:4e:62:2d:
        40:89:90:11:f7:b0:6c:fa:a2:35:80:2e:1e:0e:fc:8d:55:52:
        f6:3b:18:39:10:cb:e5:46:af:38:02:2e:23:98:13:17:00:08:
        14:f1:2a:2e:c9:e5:9f:ff:5d:b4:07:d0:2d:fd:69:75:58:56:
        3f:ee:21:a0:59:82:bf:98:f7:29:78:d0:1e:1f:39:ed:28:98:
        f6:97:de:56:6c:20:b2:f3:20:4f:be:37:b2:e4:a4:ba:55:6f:
        10:e2:3c:14:df:38:2c:83:91:4b:62:3f:74:5a:e8:4e:b1:24:
        4f:25:82:9a:19:b2:b3:a9:ed:44:92:06:78:8d:e2:cc:41:b2:
        33:a0:0f:00
-----BEGIN CERTIFICATE-----
MIIDdzCCAl+gAwIBAgIQPUjuQPlg5j5teC6BlRGfMDANBgkqhkiG9w0BAQsFADAW
MRQwEgYDVQQDDAt0ZWFtMzcwLW5ldDAeFw0yMzExMDQxMTM1NDRaFw0yNjEwMTkx
MTM1NDRaMBkxFzAVBgNVBAMMDnRlYW0zNzAtc2VydmVyMIIBIjANBgkqhkiG9w0B
AQEFAAOCAQ8AMIIBCgKCAQEA16adkZMwwPPaDEcDBz0yUSpS2H0mUCFuIMGSi/Lh
ac94e1ZEbUXFPxXI5Dg0OS5ekyIiiTgiBRiAdEo9ieMoFL4497MAZ//gz4csggg0
CBiqydAYQO5yupu4XdmCYGH1hhGZur7LjCBD/YbrQlfPDwnGxw+Snl6zja8mXzPP
RGH+ImncQqm5/73KKATdTWiY7VV6G3djbSh2BrtT/MvzUXuUPKwDOSGT5kOtGp8p
la9L7k+6afsdiTMwmHuahIib5tLKHbIOsRh63w/yC8qUB2DXTrDaf4hwHu2xqiYx
x14Z7XwUTqzAACqP+h9ppZbl1IP/UQsjxpzyxkffiMxCuwIDAQABo4G9MIG6MAkG
A1UdEwQCMAAwHQYDVR0OBBYEFKL/XtPdW4Lc1yxvnnGMuf10bxJ+MFEGA1UdIwRK
MEiAFBTfX2x3W8tx4tehpOqAt7kD0OcSoRqkGDAWMRQwEgYDVQQDDAt0ZWFtMzcw
LW5ldIIUMOZi1Es9Xr5ko4O0wUmgDcNuOIQwEwYDVR0lBAwwCgYIKwYBBQUHAwEw
CwYDVR0PBAQDAgWgMBkGA1UdEQQSMBCCDnRlYW0zNzAtc2VydmVyMA0GCSqGSIb3
DQEBCwUAA4IBAQChrUiVYXig3uTjZLiVRMjOuaW2JKrT1STA22VZN3e3t8vNSohQ
4aoaemytKHU4tIJnBjXQsjkvBXulAskp1b9QLAnc0stB+yPh9qwAnWgQNllp3le2
sjKmkwRM6nJK+U71FqA0iAwzkuz8De76tL3FI9BX9+m/0d8V1pFOYi1AiZAR97Bs
+qI1gC4eDvyNVVL2Oxg5EMvlRq84Ai4jmBMXAAgU8SouyeWf/120B9At/Wl1WFY/
7iGgWYK/mPcpeNAeHzntKJj2l95WbCCy8yBPvjey5KS6VW8Q4jwU3zgsg5FLYj90
WuhOsSRPJYKaGbKzqe1EkgZ4jeLMQbIzoA8A
-----END CERTIFICATE-----
