Certificate:
    Data:
        Version: 3 (0x2)
        Serial Number:
            b7:e1:01:05:c7:5d:bb:48:99:6a:5c:91:96:c8:6e:7c
        Signature Algorithm: sha256WithRSAEncryption
        Issuer: CN=team370-net
        Validity
            Not Before: Nov  4 10:47:21 2023 GMT
            Not After : Oct 19 10:47:21 2026 GMT
        Subject: CN=team370-server
        Subject Public Key Info:
            Public Key Algorithm: rsaEncryption
                Public-Key: (2048 bit)
                Modulus:
                    00:ae:4e:f5:24:07:3b:62:35:8f:48:77:7a:9a:14:
                    06:ab:96:81:99:69:c0:97:e4:e5:52:f5:4b:94:7f:
                    84:f2:9c:4e:bf:ac:2c:8e:53:e7:41:6e:bb:05:8d:
                    8c:4d:ca:92:10:9c:19:9e:cf:05:40:d0:b1:47:73:
                    61:18:46:d5:b5:1e:ea:08:94:62:b4:03:88:be:cc:
                    3c:66:f6:ca:e0:4d:ec:90:4d:b8:2a:c7:a3:af:11:
                    39:f6:33:51:98:9f:80:a3:d0:bd:a7:db:ef:2d:94:
                    96:f0:cb:3a:bb:0f:56:ab:de:b9:f5:32:71:6f:47:
                    8d:f8:c0:57:d3:49:be:9a:b6:3e:53:af:ae:79:6b:
                    23:9a:70:2f:68:c7:dd:9b:d1:b6:37:9e:7c:1e:f8:
                    0e:99:df:84:4f:a7:0b:bf:53:f4:e2:09:c7:8d:3d:
                    d6:a7:ae:d8:14:ef:6d:2a:b6:0e:78:9c:b4:47:74:
                    95:7c:ab:f9:e9:90:6d:55:9c:0d:4b:65:a5:57:04:
                    a6:ad:f5:25:ad:92:cb:8c:43:8f:c7:2d:d9:d6:bd:
                    11:e9:86:db:f7:2f:5a:b3:45:c5:f4:c8:b1:a2:fe:
                    62:37:4a:c8:be:68:4b:2d:ed:10:69:54:00:14:ac:
                    b2:4b:da:02:a5:b8:82:20:09:a2:66:18:e3:2e:73:
                    16:e7
                Exponent: 65537 (0x10001)
        X509v3 extensions:
            X509v3 Basic Constraints: 
                CA:FALSE
            X509v3 Subject Key Identifier: 
                5A:19:43:84:E3:85:A0:CE:71:47:15:1D:D5:16:03:AF:08:57:0B:78
            X509v3 Authority Key Identifier: 
                keyid:0B:8D:E0:F4:14:00:CE:25:6B:6F:55:C0:54:2F:4A:66:CD:85:70:43
                DirName:/CN=team370-net
                serial:12:1F:28:0C:FD:9C:0A:A8:04:32:9B:81:98:CB:AC:7E:A6:A6:1B:06
            X509v3 Extended Key Usage: 
                TLS Web Server Authentication
            X509v3 Key Usage: 
                Digital Signature, Key Encipherment
            X509v3 Subject Alternative Name: 
                DNS:team370-server
    Signature Algorithm: sha256WithRSAEncryption
    Signature Value:
        28:10:98:f6:b2:46:f3:ed:66:dd:a4:fa:6e:85:0e:87:24:f5:
        1a:09:50:07:a2:61:43:0a:28:6c:5e:f5:e9:9f:1f:40:40:85:
        d3:d2:e5:3a:63:ee:e0:15:59:c8:88:64:96:74:95:05:aa:d2:
        01:13:bd:5d:21:12:36:b0:1e:6a:ee:bd:22:38:97:32:56:4b:
        a8:cd:14:3f:53:19:63:94:22:ea:26:4d:e4:5f:25:c8:96:6d:
        51:30:e9:f6:05:62:f6:33:4d:79:1e:6a:da:9e:f3:6a:2b:66:
        fc:89:63:39:4c:a2:50:a5:ea:6e:ff:83:1d:24:63:46:07:c1:
        b1:b1:2a:dd:11:6a:6f:f3:e7:74:54:d0:25:08:a2:e7:e0:a5:
        79:54:2e:f4:5b:20:61:e3:7b:47:cf:46:9d:70:14:50:8f:98:
        3f:a1:4e:2a:d0:f5:7f:69:c5:ea:06:83:8a:63:5f:fb:9b:ad:
        0b:72:a8:99:91:bd:a8:53:12:4d:d8:40:c4:32:54:09:85:3b:
        41:42:dc:47:5d:72:d7:b7:e4:40:e1:06:60:aa:da:81:45:e9:
        2e:76:dd:d9:00:06:aa:cb:1d:89:20:c6:c5:a8:51:65:a1:4c:
        b8:02:da:3a:26:70:b2:f3:5f:4c:a9:25:70:00:5f:fa:c9:07:
        10:20:64:46
-----BEGIN CERTIFICATE-----
MIIDeDCCAmCgAwIBAgIRALfhAQXHXbtImWpckZbIbnwwDQYJKoZIhvcNAQELBQAw
FjEUMBIGA1UEAwwLdGVhbTM3MC1uZXQwHhcNMjMxMTA0MTA0NzIxWhcNMjYxMDE5
MTA0NzIxWjAZMRcwFQYDVQQDDA50ZWFtMzcwLXNlcnZlcjCCASIwDQYJKoZIhvcN
AQEBBQADggEPADCCAQoCggEBAK5O9SQHO2I1j0h3epoUBquWgZlpwJfk5VL1S5R/
hPKcTr+sLI5T50FuuwWNjE3KkhCcGZ7PBUDQsUdzYRhG1bUe6giUYrQDiL7MPGb2
yuBN7JBNuCrHo68ROfYzUZifgKPQvafb7y2UlvDLOrsPVqveufUycW9HjfjAV9NJ
vpq2PlOvrnlrI5pwL2jH3ZvRtjeefB74DpnfhE+nC79T9OIJx4091qeu2BTvbSq2
DnictEd0lXyr+emQbVWcDUtlpVcEpq31Ja2Sy4xDj8ct2da9EemG2/cvWrNFxfTI
saL+YjdKyL5oSy3tEGlUABSsskvaAqW4giAJomYY4y5zFucCAwEAAaOBvTCBujAJ
BgNVHRMEAjAAMB0GA1UdDgQWBBRaGUOE44WgznFHFR3VFgOvCFcLeDBRBgNVHSME
SjBIgBQLjeD0FADOJWtvVcBUL0pmzYVwQ6EapBgwFjEUMBIGA1UEAwwLdGVhbTM3
MC1uZXSCFBIfKAz9nAqoBDKbgZjLrH6mphsGMBMGA1UdJQQMMAoGCCsGAQUFBwMB
MAsGA1UdDwQEAwIFoDAZBgNVHREEEjAQgg50ZWFtMzcwLXNlcnZlcjANBgkqhkiG
9w0BAQsFAAOCAQEAKBCY9rJG8+1m3aT6boUOhyT1GglQB6JhQwoobF716Z8fQECF
09LlOmPu4BVZyIhklnSVBarSARO9XSESNrAeau69IjiXMlZLqM0UP1MZY5Qi6iZN
5F8lyJZtUTDp9gVi9jNNeR5q2p7zaitm/IljOUyiUKXqbv+DHSRjRgfBsbEq3RFq
b/PndFTQJQii5+CleVQu9FsgYeN7R89GnXAUUI+YP6FOKtD1f2nF6gaDimNf+5ut
C3KomZG9qFMSTdhAxDJUCYU7QULcR11y17fkQOEGYKragUXpLnbd2QAGqssdiSDG
xahRZaFMuALaOiZwsvNfTKklcABf+skHECBkRg==
-----END CERTIFICATE-----
