Certificate:
    Data:
        Version: 3 (0x2)
        Serial Number:
            ca:36:18:84:94:6f:b6:d4:32:36:9e:51:0a:d5:c3:ef
        Signature Algorithm: sha256WithRSAEncryption
        Issuer: CN=team370-net
        Validity
            Not Before: Nov  3 20:45:58 2023 GMT
            Not After : Oct 18 20:45:58 2026 GMT
        Subject: CN=team370-client
        Subject Public Key Info:
            Public Key Algorithm: rsaEncryption
                Public-Key: (2048 bit)
                Modulus:
                    00:a7:81:23:1b:80:fa:4d:a1:36:4d:48:6a:63:b7:
                    c0:9b:5c:08:a7:d1:97:e1:af:f2:ac:a3:94:ac:bd:
                    d7:7d:97:f4:d0:c0:f6:b3:ef:f2:17:bc:6b:f5:61:
                    f7:c0:11:d4:d7:7a:4f:50:5d:3e:75:82:65:10:4b:
                    f6:a6:61:b8:b4:9e:97:cc:d9:f7:09:66:05:6f:6e:
                    e9:f3:45:5c:8c:2a:ae:5b:ec:f8:dd:71:7e:b0:87:
                    e6:db:c3:85:fd:09:42:31:14:44:a2:af:7b:21:66:
                    95:90:d0:4e:93:73:c0:3d:7f:80:87:fb:ab:35:a9:
                    5f:39:18:e9:73:ff:d5:ef:08:38:4d:84:40:95:6d:
                    aa:30:62:87:b0:53:c1:f5:50:17:67:3d:cf:32:b2:
                    1e:eb:09:08:63:4b:1c:07:43:ef:c7:43:30:f4:4c:
                    3f:76:bc:b9:07:c5:7b:cb:83:6b:71:39:66:d7:b6:
                    c7:2d:23:b9:cf:a8:3f:be:d4:7e:21:25:77:39:a1:
                    0e:2d:87:ae:a1:70:50:a2:45:64:2e:ed:76:f9:c3:
                    57:97:62:53:e5:9c:89:60:8d:23:d7:42:85:ef:ee:
                    30:78:58:c0:8b:bb:7e:62:a4:12:99:5b:f4:78:f3:
                    53:fb:6f:57:b4:b3:cd:32:43:63:8e:2e:0c:2f:0f:
                    75:6d
                Exponent: 65537 (0x10001)
        X509v3 extensions:
            X509v3 Basic Constraints: 
                CA:FALSE
            X509v3 Subject Key Identifier: 
                56:AF:DC:55:7F:55:E5:6B:3B:E7:03:EE:A2:3A:60:AD:34:C5:A8:4E
            X509v3 Authority Key Identifier: 
                keyid:01:74:CA:3D:D1:42:4D:4F:5D:5B:FC:9B:AA:48:DD:18:07:29:50:64
                DirName:/CN=team370-net
                serial:7A:1A:5F:9A:EF:5F:00:1A:B5:3D:A9:08:BC:BF:C6:14:E7:E3:BC:5C
            X509v3 Extended Key Usage: 
                TLS Web Client Authentication
            X509v3 Key Usage: 
                Digital Signature
    Signature Algorithm: sha256WithRSAEncryption
    Signature Value:
        6a:01:57:42:06:16:b8:96:47:9f:2c:bf:8a:2b:3f:09:f0:12:
        b5:dd:b2:c3:19:38:ca:c8:0c:7a:84:66:5c:91:74:ee:a9:17:
        b3:05:64:21:0a:63:1b:76:62:83:06:40:c9:33:f7:fe:15:b0:
        0c:32:52:7c:1f:62:40:04:6e:6f:33:48:1e:9e:83:02:89:eb:
        fa:d7:f3:25:f6:f0:46:10:e8:0f:9d:da:13:64:7e:d4:46:61:
        bc:46:5d:54:41:c7:02:ae:be:9c:4a:49:3e:f3:51:f7:99:95:
        3d:c8:ca:f4:11:ff:9d:3d:64:38:36:fa:4d:23:67:81:f0:8b:
        9c:ad:7c:fe:af:47:ff:45:db:54:40:c7:38:56:90:99:ee:46:
        97:7d:ea:88:d4:88:06:8e:ba:15:90:9d:39:db:9c:96:67:46:
        06:fa:cd:4b:c7:f7:72:2b:71:0f:b1:12:05:b7:33:9c:8e:27:
        1a:66:f2:61:9c:7f:8a:fc:d2:1e:1f:b2:8a:29:a6:ae:35:6e:
        ab:a4:0d:5d:6c:52:76:79:8e:bd:d1:f6:9f:9f:03:d1:93:20:
        23:b6:e8:02:5f:f3:61:2d:30:ee:32:f5:c9:a8:8f:30:63:23:
        a2:c7:ec:61:36:bf:87:da:93:12:5f:11:bb:56:b1:77:7f:8f:
        a5:bc:99:1c
-----BEGIN CERTIFICATE-----
MIIDXTCCAkWgAwIBAgIRAMo2GISUb7bUMjaeUQrVw+8wDQYJKoZIhvcNAQELBQAw
FjEUMBIGA1UEAwwLdGVhbTM3MC1uZXQwHhcNMjMxMTAzMjA0NTU4WhcNMjYxMDE4
MjA0NTU4WjAZMRcwFQYDVQQDDA50ZWFtMzcwLWNsaWVudDCCASIwDQYJKoZIhvcN
AQEBBQADggEPADCCAQoCggEBAKeBIxuA+k2hNk1IamO3wJtcCKfRl+Gv8qyjlKy9
132X9NDA9rPv8he8a/Vh98AR1Nd6T1BdPnWCZRBL9qZhuLSel8zZ9wlmBW9u6fNF
XIwqrlvs+N1xfrCH5tvDhf0JQjEURKKveyFmlZDQTpNzwD1/gIf7qzWpXzkY6XP/
1e8IOE2EQJVtqjBih7BTwfVQF2c9zzKyHusJCGNLHAdD78dDMPRMP3a8uQfFe8uD
a3E5Zte2xy0juc+oP77UfiEldzmhDi2HrqFwUKJFZC7tdvnDV5diU+WciWCNI9dC
he/uMHhYwIu7fmKkEplb9HjzU/tvV7SzzTJDY44uDC8PdW0CAwEAAaOBojCBnzAJ
BgNVHRMEAjAAMB0GA1UdDgQWBBRWr9xVf1XlazvnA+6iOmCtNMWoTjBRBgNVHSME
SjBIgBQBdMo90UJNT11b/JuqSN0YBylQZKEapBgwFjEUMBIGA1UEAwwLdGVhbTM3
MC1uZXSCFHoaX5rvXwAatT2pCLy/xhTn47xcMBMGA1UdJQQMMAoGCCsGAQUFBwMC
MAsGA1UdDwQEAwIHgDANBgkqhkiG9w0BAQsFAAOCAQEAagFXQgYWuJZHnyy/iis/
CfAStd2ywxk4ysgMeoRmXJF07qkXswVkIQpjG3ZigwZAyTP3/hWwDDJSfB9iQARu
bzNIHp6DAonr+tfzJfbwRhDoD53aE2R+1EZhvEZdVEHHAq6+nEpJPvNR95mVPcjK
9BH/nT1kODb6TSNngfCLnK18/q9H/0XbVEDHOFaQme5Gl33qiNSIBo66FZCdOduc
lmdGBvrNS8f3citxD7ESBbcznI4nGmbyYZx/ivzSHh+yiimmrjVuq6QNXWxSdnmO
vdH2n58D0ZMgI7boAl/zYS0w7jL1yaiPMGMjosfsYTa/h9qTEl8Ru1axd3+PpbyZ
HA==
-----END CERTIFICATE-----
