Certificate:
    Data:
        Version: 3 (0x2)
        Serial Number:
            d7:e7:f4:79:d9:82:85:41:6e:31:fd:c3:32:03:68:8a
        Signature Algorithm: sha256WithRSAEncryption
        Issuer: CN=team370-net
        Validity
            Not Before: Nov  3 20:45:58 2023 GMT
            Not After : Oct 18 20:45:58 2026 GMT
        Subject: CN=team370-server
        Subject Public Key Info:
            Public Key Algorithm: rsaEncryption
                Public-Key: (2048 bit)
                Modulus:
                    00:a8:68:8e:e1:1e:b4:83:88:53:d8:d9:74:02:fc:
                    19:88:b3:9e:f9:cb:58:f5:6a:c9:90:1a:ca:a2:1a:
                    f4:2b:49:b2:ee:98:e0:4c:48:da:80:1b:d5:25:31:
                    06:6e:76:f1:53:5f:67:53:a8:b1:84:a7:e7:ce:9a:
                    5d:78:e8:5d:94:99:8d:fe:65:99:dd:ed:93:eb:a8:
                    99:6d:65:aa:01:c9:e4:98:a2:1c:11:5f:0f:4c:94:
                    9d:bb:23:c4:a9:4d:30:ba:43:2f:38:c3:89:77:a1:
                    16:f7:c5:50:6c:da:95:e4:61:e8:92:32:7a:0d:9b:
                    5b:ef:f7:90:d4:26:97:9b:eb:2f:40:69:71:f2:a0:
                    e4:66:cd:a8:95:7e:e6:58:67:54:0d:3f:2a:6f:93:
                    3e:fd:73:1c:2f:51:ed:fc:73:a5:10:60:4d:f8:84:
                    c8:b2:fe:77:2c:ca:c0:fb:5d:5f:16:60:6e:05:71:
                    86:9a:48:85:33:15:56:1f:7e:b0:ea:1b:ea:32:52:
                    06:cc:83:c6:47:ef:c5:f7:82:9b:01:76:7d:9c:cb:
                    95:cf:92:85:a2:96:45:2c:ff:dc:26:ca:b8:f6:92:
                    1a:9e:53:53:25:11:5d:9a:8a:3f:1a:81:0b:78:87:
                    25:42:03:71:15:9b:11:c2:16:f4:1d:99:7d:87:84:
                    1b:ef
                Exponent: 65537 (0x10001)
        X509v3 extensions:
            X509v3 Basic Constraints: 
                CA:FALSE
            X509v3 Subject Key Identifier: 
                3E:B7:3B:72:8E:BD:22:AE:6C:B9:9D:C9:7B:7E:A8:48:A0:27:4E:43
            X509v3 Authority Key Identifier: 
                keyid:01:74:CA:3D:D1:42:4D:4F:5D:5B:FC:9B:AA:48:DD:18:07:29:50:64
                DirName:/CN=team370-net
                serial:7A:1A:5F:9A:EF:5F:00:1A:B5:3D:A9:08:BC:BF:C6:14:E7:E3:BC:5C
            X509v3 Extended Key Usage: 
                TLS Web Server Authentication
            X509v3 Key Usage: 
                Digital Signature, Key Encipherment
            X509v3 Subject Alternative Name: 
                DNS:team370-server
    Signature Algorithm: sha256WithRSAEncryption
    Signature Value:
        5e:3c:d1:89:ea:af:62:30:ab:94:a6:4c:7f:80:05:9c:f7:d7:
        04:22:5d:bf:1a:35:5e:91:f6:54:49:6a:8f:93:b6:57:f2:fc:
        2c:ab:8c:30:b3:d8:9d:6a:7d:be:cb:df:ef:b9:34:de:a2:70:
        a7:01:5f:2e:50:db:44:29:59:ec:12:e1:b5:32:7b:06:d2:cf:
        8d:bc:b6:f9:0e:ea:3e:70:8d:c0:1d:e7:89:a7:0b:18:4d:ba:
        ce:92:49:41:ce:49:93:27:ed:0f:67:88:83:a9:7b:ba:0a:4c:
        9a:aa:f1:9f:a4:06:a0:32:3a:fe:48:02:20:95:1a:85:38:9c:
        d3:12:9c:7a:5f:2a:ce:5b:a8:b6:3f:e9:0a:e6:62:b8:91:db:
        a2:c1:43:25:9b:52:b2:d3:50:57:a6:5e:88:56:99:16:70:ab:
        17:ca:cb:6a:e0:f9:97:b5:b9:47:0c:86:55:37:3f:94:fb:21:
        79:d6:4e:52:e2:dd:90:8a:b1:64:ef:7b:3f:65:db:5f:4c:f4:
        14:65:6b:6e:74:67:ce:ba:df:28:d2:e4:ce:a3:c2:f3:4d:22:
        c6:88:02:28:ab:8c:53:22:0a:fb:07:e2:a1:6c:6e:c9:37:bb:
        4d:67:0f:c7:96:49:a0:6a:cd:91:ea:db:b3:ae:ef:8d:c1:05:
        a1:c1:b7:a2
-----BEGIN CERTIFICATE-----
MIIDeDCCAmCgAwIBAgIRANfn9HnZgoVBbjH9wzIDaIowDQYJKoZIhvcNAQELBQAw
FjEUMBIGA1UEAwwLdGVhbTM3MC1uZXQwHhcNMjMxMTAzMjA0NTU4WhcNMjYxMDE4
MjA0NTU4WjAZMRcwFQYDVQQDDA50ZWFtMzcwLXNlcnZlcjCCASIwDQYJKoZIhvcN
AQEBBQADggEPADCCAQoCggEBAKhojuEetIOIU9jZdAL8GYiznvnLWPVqyZAayqIa
9CtJsu6Y4ExI2oAb1SUxBm528VNfZ1OosYSn586aXXjoXZSZjf5lmd3tk+uomW1l
qgHJ5JiiHBFfD0yUnbsjxKlNMLpDLzjDiXehFvfFUGzaleRh6JIyeg2bW+/3kNQm
l5vrL0BpcfKg5GbNqJV+5lhnVA0/Km+TPv1zHC9R7fxzpRBgTfiEyLL+dyzKwPtd
XxZgbgVxhppIhTMVVh9+sOob6jJSBsyDxkfvxfeCmwF2fZzLlc+ShaKWRSz/3CbK
uPaSGp5TUyURXZqKPxqBC3iHJUIDcRWbEcIW9B2ZfYeEG+8CAwEAAaOBvTCBujAJ
BgNVHRMEAjAAMB0GA1UdDgQWBBQ+tztyjr0irmy5ncl7fqhIoCdOQzBRBgNVHSME
SjBIgBQBdMo90UJNT11b/JuqSN0YBylQZKEapBgwFjEUMBIGA1UEAwwLdGVhbTM3
MC1uZXSCFHoaX5rvXwAatT2pCLy/xhTn47xcMBMGA1UdJQQMMAoGCCsGAQUFBwMB
MAsGA1UdDwQEAwIFoDAZBgNVHREEEjAQgg50ZWFtMzcwLXNlcnZlcjANBgkqhkiG
9w0BAQsFAAOCAQEAXjzRieqvYjCrlKZMf4AFnPfXBCJdvxo1XpH2VElqj5O2V/L8
LKuMMLPYnWp9vsvf77k03qJwpwFfLlDbRClZ7BLhtTJ7BtLPjby2+Q7qPnCNwB3n
iacLGE26zpJJQc5JkyftD2eIg6l7ugpMmqrxn6QGoDI6/kgCIJUahTic0xKcel8q
zluotj/pCuZiuJHbosFDJZtSstNQV6ZeiFaZFnCrF8rLauD5l7W5RwyGVTc/lPsh
edZOUuLdkIqxZO97P2XbX0z0FGVrbnRnzrrfKNLkzqPC800ixogCKKuMUyIK+wfi
oWxuyTe7TWcPx5ZJoGrNkerbs67vjcEFocG3og==
-----END CERTIFICATE-----
