Certificate:
    Data:
        Version: 3 (0x2)
        Serial Number:
            31:60:55:02:6d:61:1b:8b:10:19:78:ad:51:09:38:be
        Signature Algorithm: sha256WithRSAEncryption
        Issuer: CN=team29-net
        Validity
            Not Before: Nov  3 20:39:45 2023 GMT
            Not After : Oct 18 20:39:45 2026 GMT
        Subject: CN=team29-client
        Subject Public Key Info:
            Public Key Algorithm: rsaEncryption
                Public-Key: (2048 bit)
                Modulus:
                    00:a5:5a:5c:61:a5:f5:6d:f2:b9:bb:68:c1:41:36:
                    d4:04:15:c2:91:c3:15:69:03:6b:e3:9e:92:a5:7d:
                    8c:83:c4:c1:4c:1f:06:82:ac:44:a8:5d:30:e9:c0:
                    1d:6d:ab:5b:c5:3e:7e:ff:42:ba:72:c2:4d:59:42:
                    31:0a:2f:d0:07:d0:40:13:a0:74:83:2a:71:a0:2b:
                    d9:c7:bc:68:c7:d7:d6:57:81:1c:84:67:7c:1c:6a:
                    45:ef:34:ff:a2:53:59:1a:69:57:10:52:e6:e5:2d:
                    da:68:c6:f5:37:91:df:fc:f8:af:42:5e:46:e8:40:
                    ce:b3:f5:5b:21:5b:57:10:03:60:26:d7:7c:cb:0e:
                    92:28:f2:e8:dd:a5:2f:9e:c0:0a:88:67:e0:06:d7:
                    eb:d7:c9:a2:26:fd:25:cc:78:ee:a9:4f:31:97:f3:
                    7f:0a:18:95:d2:19:fd:0e:16:b4:e8:20:2c:1f:e7:
                    08:a3:0e:41:07:02:cd:2a:ab:a6:d6:66:58:ef:18:
                    39:ac:80:ff:35:88:3b:db:f1:1f:37:3c:a5:22:fc:
                    3c:35:22:c5:a1:35:89:27:34:9e:28:67:d6:97:01:
                    90:90:93:d4:a8:a0:3b:95:65:65:32:d5:3e:f9:c8:
                    65:14:71:28:68:ce:8c:6a:05:5a:79:b9:3b:bf:77:
                    a2:e3
                Exponent: 65537 (0x10001)
        X509v3 extensions:
            X509v3 Basic Constraints: 
                CA:FALSE
            X509v3 Subject Key Identifier: 
                07:AF:87:A9:98:6A:E3:C1:21:E0:D8:BD:06:76:3E:1A:89:09:6E:CC
            X509v3 Authority Key Identifier: 
                keyid:BB:AD:90:08:1B:0D:3F:E6:58:1D:8C:90:31:F4:3E:92:88:D9:B0:B9
                DirName:/CN=team29-net
                serial:28:45:70:57:09:9F:81:5A:E3:8A:05:3D:C0:5C:B9:66:37:92:EB:FB
            X509v3 Extended Key Usage: 
                TLS Web Client Authentication
            X509v3 Key Usage: 
                Digital Signature
    Signature Algorithm: sha256WithRSAEncryption
    Signature Value:
        bd:7a:1e:20:d5:e4:d2:0d:6e:97:5c:96:89:41:c4:9e:ba:9d:
        d2:1f:1d:db:70:bd:19:27:1e:29:68:5c:de:1d:06:90:6b:9b:
        75:da:a2:7c:5c:fd:8f:05:92:aa:7c:41:60:c4:67:9a:3f:a2:
        af:9d:7a:b7:80:73:6f:66:9a:fa:ba:a4:3b:6e:58:7b:73:24:
        f6:41:ea:5e:4d:71:1f:bd:88:f5:4a:90:db:fb:26:97:d3:7d:
        db:c8:e5:88:cc:dd:05:d1:bc:e5:f6:19:f9:85:a4:9e:10:2e:
        b6:6b:16:b5:94:53:cc:02:05:af:8f:32:c5:fc:d0:af:fa:9d:
        6c:51:52:b7:c9:9f:b1:74:12:95:ae:03:d8:1f:6b:51:8e:1d:
        87:2a:2f:d1:69:c2:d5:07:69:dc:86:ae:c5:fc:5d:45:d0:d6:
        81:77:30:ac:1b:c1:c5:c1:76:be:90:b4:c5:13:49:67:c4:9a:
        2d:f3:8a:a1:82:7a:1d:e2:75:90:5b:63:32:4d:f1:fc:c3:fb:
        a6:9b:54:7d:9d:e3:f5:c2:8a:fa:d0:ad:ff:69:8e:40:13:0b:
        ea:19:30:57:7a:b3:38:aa:ab:f3:6d:b6:b9:f3:42:5b:69:21:
        ff:e7:b4:e9:61:0e:50:cc:e4:5b:e7:eb:13:7a:ca:1e:9a:17:
        76:ec:8d:ef
-----BEGIN CERTIFICATE-----
MIIDWTCCAkGgAwIBAgIQMWBVAm1hG4sQGXitUQk4vjANBgkqhkiG9w0BAQsFADAV
MRMwEQYDVQQDDAp0ZWFtMjktbmV0MB4XDTIzMTEwMzIwMzk0NVoXDTI2MTAxODIw
Mzk0NVowGDEWMBQGA1UEAwwNdGVhbTI5LWNsaWVudDCCASIwDQYJKoZIhvcNAQEB
BQADggEPADCCAQoCggEBAKVaXGGl9W3yubtowUE21AQVwpHDFWkDa+OekqV9jIPE
wUwfBoKsRKhdMOnAHW2rW8U+fv9CunLCTVlCMQov0AfQQBOgdIMqcaAr2ce8aMfX
1leBHIRnfBxqRe80/6JTWRppVxBS5uUt2mjG9TeR3/z4r0JeRuhAzrP1WyFbVxAD
YCbXfMsOkijy6N2lL57ACohn4AbX69fJoib9Jcx47qlPMZfzfwoYldIZ/Q4WtOgg
LB/nCKMOQQcCzSqrptZmWO8YOayA/zWIO9vxHzc8pSL8PDUixaE1iSc0nihn1pcB
kJCT1KigO5VlZTLVPvnIZRRxKGjOjGoFWnm5O793ouMCAwEAAaOBoTCBnjAJBgNV
HRMEAjAAMB0GA1UdDgQWBBQHr4epmGrjwSHg2L0Gdj4aiQluzDBQBgNVHSMESTBH
gBS7rZAIGw0/5lgdjJAx9D6SiNmwuaEZpBcwFTETMBEGA1UEAwwKdGVhbTI5LW5l
dIIUKEVwVwmfgVrjigU9wFy5ZjeS6/swEwYDVR0lBAwwCgYIKwYBBQUHAwIwCwYD
VR0PBAQDAgeAMA0GCSqGSIb3DQEBCwUAA4IBAQC9eh4g1eTSDW6XXJaJQcSeup3S
Hx3bcL0ZJx4paFzeHQaQa5t12qJ8XP2PBZKqfEFgxGeaP6KvnXq3gHNvZpr6uqQ7
blh7cyT2QepeTXEfvYj1SpDb+yaX033byOWIzN0F0bzl9hn5haSeEC62axa1lFPM
AgWvjzLF/NCv+p1sUVK3yZ+xdBKVrgPYH2tRjh2HKi/RacLVB2nchq7F/F1F0NaB
dzCsG8HFwXa+kLTFE0lnxJot84qhgnod4nWQW2MyTfH8w/umm1R9neP1wor60K3/
aY5AEwvqGTBXerM4qqvzbba580JbaSH/57TpYQ5QzORb5+sTesoemhd27I3v
-----END CERTIFICATE-----
