Certificate:
    Data:
        Version: 3 (0x2)
        Serial Number:
            4c:ee:f1:2e:72:25:20:c4:0c:73:d6:31:3e:87:08:a3
        Signature Algorithm: sha256WithRSAEncryption
        Issuer: CN=team29-net
        Validity
            Not Before: Nov  4 10:40:46 2023 GMT
            Not After : Oct 19 10:40:46 2026 GMT
        Subject: CN=team29-client
        Subject Public Key Info:
            Public Key Algorithm: rsaEncryption
                Public-Key: (2048 bit)
                Modulus:
                    00:d2:f5:38:7f:fa:5e:ad:46:4e:bf:49:d9:8d:81:
                    00:cf:bc:f0:16:0f:d1:5b:3c:a5:c3:4e:b3:65:8a:
                    24:62:8c:0a:e7:e0:9d:89:5e:e3:47:96:78:8f:a4:
                    34:b1:3e:a7:5f:e6:24:85:dc:05:34:6e:ee:51:e5:
                    2c:0a:5c:86:9c:84:f9:46:b9:3a:18:36:90:28:5c:
                    15:2b:7d:8e:66:8e:5a:93:f6:e7:cd:ee:e2:a9:29:
                    78:42:35:46:84:d6:03:1c:cc:d5:9d:2f:ce:e7:c7:
                    87:fe:64:ff:2b:c1:c1:c2:05:df:f7:5d:0b:8f:92:
                    0f:97:cb:ab:dc:5c:ee:dc:13:69:e1:4f:6e:18:f8:
                    03:89:7d:f2:16:48:c7:80:3a:55:85:57:db:9b:d1:
                    4c:9d:99:db:9d:57:01:0f:17:1c:fc:57:8b:c5:a3:
                    2f:af:2c:5e:2f:13:6f:d0:0a:58:42:cc:4f:90:d0:
                    da:55:1f:2d:a4:93:40:28:60:75:be:23:d6:07:22:
                    b2:49:b5:4b:8e:b5:23:72:87:e6:16:cc:87:30:d3:
                    50:27:89:fe:99:1f:78:c3:38:86:6d:76:c2:ea:bb:
                    7d:2d:9c:e9:71:27:e6:ae:1d:dd:95:33:6d:2b:17:
                    b4:c2:ca:bf:30:a7:a3:9b:5c:c5:f2:26:37:ba:75:
                    ec:bd
                Exponent: 65537 (0x10001)
        X509v3 extensions:
            X509v3 Basic Constraints: 
                CA:FALSE
            X509v3 Subject Key Identifier: 
                D0:77:D9:5F:49:40:AB:82:F7:53:19:00:6D:45:5A:71:56:36:63:61
            X509v3 Authority Key Identifier: 
                keyid:A1:1A:58:09:71:0D:18:71:E5:19:81:39:12:66:F1:E5:B6:7C:56:33
                DirName:/CN=team29-net
                serial:34:6D:30:21:DD:5B:98:53:6C:91:62:85:9C:4C:7B:20:1A:27:5D:70
            X509v3 Extended Key Usage: 
                TLS Web Client Authentication
            X509v3 Key Usage: 
                Digital Signature
    Signature Algorithm: sha256WithRSAEncryption
    Signature Value:
        5f:ac:a7:a7:7c:18:32:a1:88:2c:23:cc:f5:a8:55:d5:c0:15:
        fd:16:3f:cd:27:07:99:98:18:d3:54:6f:f6:a0:bb:86:19:3b:
        64:b0:ba:9f:b4:fe:97:75:28:f9:ed:72:91:ec:fd:b7:7b:64:
        4b:4a:19:90:c6:c3:75:59:be:c0:f9:83:36:23:12:93:40:79:
        c1:7e:ac:48:9c:3b:2a:75:aa:e6:95:f2:e2:b6:99:c5:be:30:
        f3:6f:98:f5:d7:1a:fb:d4:c7:64:0b:7e:0c:b1:cc:7e:79:37:
        b4:0c:21:8b:49:e5:2f:74:92:fd:f2:d2:2d:db:bd:de:a1:5d:
        3e:50:10:14:5e:a9:17:ac:61:22:a8:11:3d:52:76:eb:0b:a4:
        22:b6:57:87:28:c5:5c:db:1a:85:18:f9:c5:3c:e8:8a:dc:37:
        c8:95:a5:5f:fc:03:a3:e1:22:6e:89:7a:2b:fd:f5:07:ec:27:
        d5:e8:9d:33:99:57:0c:3d:ec:97:7c:ad:ec:3d:de:2c:e4:31:
        d8:c6:74:65:56:f6:48:7e:dd:49:3a:8f:73:91:cc:4e:90:d4:
        58:36:e4:ad:b7:0e:ee:b5:d6:d8:c7:53:1c:85:81:88:56:10:
        58:dd:64:97:e5:ea:af:a3:48:86:ae:7a:bf:4c:4e:13:71:53:
        bc:51:71:83
-----BEGIN CERTIFICATE-----
MIIDWTCCAkGgAwIBAgIQTO7xLnIlIMQMc9YxPocIozANBgkqhkiG9w0BAQsFADAV
MRMwEQYDVQQDDAp0ZWFtMjktbmV0MB4XDTIzMTEwNDEwNDA0NloXDTI2MTAxOTEw
NDA0NlowGDEWMBQGA1UEAwwNdGVhbTI5LWNsaWVudDCCASIwDQYJKoZIhvcNAQEB
BQADggEPADCCAQoCggEBANL1OH/6Xq1GTr9J2Y2BAM+88BYP0Vs8pcNOs2WKJGKM
CufgnYle40eWeI+kNLE+p1/mJIXcBTRu7lHlLApchpyE+Ua5Ohg2kChcFSt9jmaO
WpP2583u4qkpeEI1RoTWAxzM1Z0vzufHh/5k/yvBwcIF3/ddC4+SD5fLq9xc7twT
aeFPbhj4A4l98hZIx4A6VYVX25vRTJ2Z251XAQ8XHPxXi8WjL68sXi8Tb9AKWELM
T5DQ2lUfLaSTQChgdb4j1gciskm1S461I3KH5hbMhzDTUCeJ/pkfeMM4hm12wuq7
fS2c6XEn5q4d3ZUzbSsXtMLKvzCno5tcxfImN7p17L0CAwEAAaOBoTCBnjAJBgNV
HRMEAjAAMB0GA1UdDgQWBBTQd9lfSUCrgvdTGQBtRVpxVjZjYTBQBgNVHSMESTBH
gBShGlgJcQ0YceUZgTkSZvHltnxWM6EZpBcwFTETMBEGA1UEAwwKdGVhbTI5LW5l
dIIUNG0wId1bmFNskWKFnEx7IBonXXAwEwYDVR0lBAwwCgYIKwYBBQUHAwIwCwYD
VR0PBAQDAgeAMA0GCSqGSIb3DQEBCwUAA4IBAQBfrKenfBgyoYgsI8z1qFXVwBX9
Fj/NJweZmBjTVG/2oLuGGTtksLqftP6XdSj57XKR7P23e2RLShmQxsN1Wb7A+YM2
IxKTQHnBfqxInDsqdarmlfLitpnFvjDzb5j11xr71MdkC34Mscx+eTe0DCGLSeUv
dJL98tIt273eoV0+UBAUXqkXrGEiqBE9UnbrC6QitleHKMVc2xqFGPnFPOiK3DfI
laVf/AOj4SJuiXor/fUH7CfV6J0zmVcMPeyXfK3sPd4s5DHYxnRlVvZIft1JOo9z
kcxOkNRYNuSttw7utdbYx1MchYGIVhBY3WSX5eqvo0iGrnq/TE4TcVO8UXGD
-----END CERTIFICATE-----
