Certificate:
    Data:
        Version: 3 (0x2)
        Serial Number:
            6c:7b:aa:6c:d5:c9:96:12:c5:db:d3:97:4c:fc:1a:28
        Signature Algorithm: sha256WithRSAEncryption
        Issuer: CN=team29-net
        Validity
            Not Before: Nov  4 10:40:46 2023 GMT
            Not After : Oct 19 10:40:46 2026 GMT
        Subject: CN=team29-server
        Subject Public Key Info:
            Public Key Algorithm: rsaEncryption
                Public-Key: (2048 bit)
                Modulus:
                    00:ce:55:9a:1d:a8:f8:af:15:1a:d8:68:62:e1:b9:
                    8f:ea:6e:17:be:5c:21:81:c6:49:98:6f:60:e8:5f:
                    f6:db:dc:7d:40:17:12:58:ea:72:ad:66:4b:c5:27:
                    c9:a5:02:99:12:ac:8d:58:e6:11:10:7f:87:81:a4:
                    dc:86:7f:a1:51:bc:06:0f:63:60:59:6d:96:64:d4:
                    9d:40:94:d3:0f:d6:b6:87:87:03:72:16:64:a7:67:
                    f0:48:cd:07:c2:7c:7f:de:c7:6f:9e:d6:7d:25:4c:
                    0b:b9:01:85:71:c9:b4:74:1c:cd:33:16:32:5b:cf:
                    e9:40:e0:a1:e8:90:e1:4b:3a:20:7b:e3:df:b3:5c:
                    30:0b:dc:d6:b1:e0:d8:85:dd:bc:cf:d5:3c:80:4d:
                    ae:aa:aa:5d:21:f1:70:71:6f:4f:03:76:43:04:1b:
                    59:d2:90:60:53:99:1b:55:a8:66:b3:46:39:ff:7e:
                    a4:9c:68:ce:ac:a8:53:67:cd:d1:64:9f:a4:0d:cc:
                    7c:80:09:1a:ed:b0:a9:9c:45:7b:02:63:71:64:66:
                    af:64:8c:b4:23:51:c0:ff:30:fd:85:3a:ca:cb:a8:
                    3b:af:c6:37:16:b3:68:49:84:1e:a7:50:1b:11:ea:
                    66:f8:4f:66:ba:21:2c:6e:aa:4b:59:1c:3d:e4:5e:
                    94:cb
                Exponent: 65537 (0x10001)
        X509v3 extensions:
            X509v3 Basic Constraints: 
                CA:FALSE
            X509v3 Subject Key Identifier: 
                D9:B0:F6:B8:02:8B:6F:26:C4:A5:E9:EE:02:38:29:D0:43:A9:A4:A2
            X509v3 Authority Key Identifier: 
                keyid:A1:1A:58:09:71:0D:18:71:E5:19:81:39:12:66:F1:E5:B6:7C:56:33
                DirName:/CN=team29-net
                serial:34:6D:30:21:DD:5B:98:53:6C:91:62:85:9C:4C:7B:20:1A:27:5D:70
            X509v3 Extended Key Usage: 
                TLS Web Server Authentication
            X509v3 Key Usage: 
                Digital Signature, Key Encipherment
            X509v3 Subject Alternative Name: 
                DNS:team29-server
    Signature Algorithm: sha256WithRSAEncryption
    Signature Value:
        97:62:dc:c7:62:ad:10:4f:e6:6d:96:7c:f2:98:92:34:55:16:
        a2:41:b8:39:6d:a5:ac:bf:77:dd:2e:8a:fe:97:9d:2b:a2:d5:
        19:37:60:63:29:e4:d4:9a:9b:fe:92:4f:d1:21:cf:b5:be:c7:
        c5:8d:db:98:cb:95:59:29:c0:bb:ff:96:cd:9c:bb:c6:00:82:
        f7:ca:86:24:f5:d2:00:01:ee:b7:00:9c:ef:0c:23:5d:17:b8:
        97:e2:1a:8d:4f:37:df:b7:df:dc:09:be:3f:85:bb:1a:08:6a:
        52:7d:5e:39:cf:70:31:fb:88:6b:9f:6e:cd:40:9e:d0:45:3a:
        1f:fc:c4:50:20:60:1a:6e:19:bf:60:06:08:44:cf:fc:c4:82:
        63:d5:24:34:96:9c:a9:a1:2f:fc:9d:9d:d4:75:b1:ca:84:48:
        eb:5d:3b:b2:d6:19:65:af:d6:7b:b2:a8:21:ee:ea:b0:64:94:
        af:d1:b8:88:17:01:9e:6f:ec:88:aa:e7:58:52:7c:6f:cf:1e:
        d8:13:ed:79:06:70:8a:bb:d6:c2:17:dc:4b:3a:72:a6:74:96:
        73:79:52:72:d1:79:b2:80:c6:63:e1:bf:11:b6:15:fe:c0:75:
        f5:59:63:9d:dd:84:31:da:2f:96:05:1a:42:af:a5:2c:4f:62:
        be:fc:8b:42
-----BEGIN CERTIFICATE-----
MIIDczCCAlugAwIBAgIQbHuqbNXJlhLF29OXTPwaKDANBgkqhkiG9w0BAQsFADAV
MRMwEQYDVQQDDAp0ZWFtMjktbmV0MB4XDTIzMTEwNDEwNDA0NloXDTI2MTAxOTEw
NDA0NlowGDEWMBQGA1UEAwwNdGVhbTI5LXNlcnZlcjCCASIwDQYJKoZIhvcNAQEB
BQADggEPADCCAQoCggEBAM5Vmh2o+K8VGthoYuG5j+puF75cIYHGSZhvYOhf9tvc
fUAXEljqcq1mS8UnyaUCmRKsjVjmERB/h4Gk3IZ/oVG8Bg9jYFltlmTUnUCU0w/W
toeHA3IWZKdn8EjNB8J8f97Hb57WfSVMC7kBhXHJtHQczTMWMlvP6UDgoeiQ4Us6
IHvj37NcMAvc1rHg2IXdvM/VPIBNrqqqXSHxcHFvTwN2QwQbWdKQYFOZG1WoZrNG
Of9+pJxozqyoU2fN0WSfpA3MfIAJGu2wqZxFewJjcWRmr2SMtCNRwP8w/YU6ysuo
O6/GNxazaEmEHqdQGxHqZvhPZrohLG6qS1kcPeRelMsCAwEAAaOBuzCBuDAJBgNV
HRMEAjAAMB0GA1UdDgQWBBTZsPa4AotvJsSl6e4COCnQQ6mkojBQBgNVHSMESTBH
gBShGlgJcQ0YceUZgTkSZvHltnxWM6EZpBcwFTETMBEGA1UEAwwKdGVhbTI5LW5l
dIIUNG0wId1bmFNskWKFnEx7IBonXXAwEwYDVR0lBAwwCgYIKwYBBQUHAwEwCwYD
VR0PBAQDAgWgMBgGA1UdEQQRMA+CDXRlYW0yOS1zZXJ2ZXIwDQYJKoZIhvcNAQEL
BQADggEBAJdi3MdirRBP5m2WfPKYkjRVFqJBuDltpay/d90uiv6XnSui1Rk3YGMp
5NSam/6ST9Ehz7W+x8WN25jLlVkpwLv/ls2cu8YAgvfKhiT10gAB7rcAnO8MI10X
uJfiGo1PN9+339wJvj+FuxoIalJ9XjnPcDH7iGufbs1AntBFOh/8xFAgYBpuGb9g
BghEz/zEgmPVJDSWnKmhL/ydndR1scqESOtdO7LWGWWv1nuyqCHu6rBklK/RuIgX
AZ5v7Iiq51hSfG/PHtgT7XkGcIq71sIX3Es6cqZ0lnN5UnLRebKAxmPhvxG2Ff7A
dfVZY53dhDHaL5YFGkKvpSxPYr78i0I=
-----END CERTIFICATE-----
