Certificate:
    Data:
        Version: 3 (0x2)
        Serial Number:
            b7:11:9c:a8:a0:75:b0:0e:f7:17:e3:67:b6:17:b8:70
        Signature Algorithm: sha256WithRSAEncryption
        Issuer: CN=team29-net
        Validity
            Not Before: Nov  4 11:27:55 2023 GMT
            Not After : Oct 19 11:27:55 2026 GMT
        Subject: CN=team29-server
        Subject Public Key Info:
            Public Key Algorithm: rsaEncryption
                Public-Key: (2048 bit)
                Modulus:
                    00:b5:8d:b2:1f:bf:da:10:ea:c5:9f:d2:19:e4:fa:
                    54:e4:5a:f3:8a:f4:6e:0d:a7:28:5a:b7:95:07:a2:
                    96:37:98:13:09:63:94:37:5b:4e:9c:1e:9b:cd:05:
                    40:b8:f2:c4:04:75:ef:66:6f:d9:06:85:9d:61:83:
                    bc:77:8c:a6:7e:9d:5a:d0:4a:3d:e6:38:1b:fd:77:
                    69:05:81:e6:6d:de:fa:03:79:f4:25:6c:2e:9d:fb:
                    87:ad:c1:d0:6a:57:0c:9c:c7:f6:79:c4:57:4e:65:
                    42:b5:f8:60:51:94:79:f1:5b:cb:81:dc:64:d2:16:
                    27:af:72:1f:43:50:5f:cc:f8:85:31:ec:5a:4e:42:
                    21:9e:df:92:8f:c3:8e:db:85:1e:00:5b:40:d6:16:
                    1d:a5:42:3d:ac:d3:35:57:89:75:fc:c8:24:05:eb:
                    40:22:1d:e6:b3:ff:c0:30:1f:d2:1f:bc:8e:aa:56:
                    d8:fb:56:92:74:6b:e6:f0:b3:c0:24:ae:09:f9:fc:
                    38:4c:d4:44:db:dc:a4:e9:59:5f:a5:fb:97:41:5a:
                    b9:f1:78:51:08:a7:23:3b:9c:bc:ac:87:de:00:58:
                    88:60:66:2e:b7:56:00:e6:ba:24:a4:a9:dc:2e:e1:
                    43:2b:20:19:53:49:11:e5:bd:f9:6c:aa:5b:1a:8c:
                    65:31
                Exponent: 65537 (0x10001)
        X509v3 extensions:
            X509v3 Basic Constraints: 
                CA:FALSE
            X509v3 Subject Key Identifier: 
                E8:35:C0:65:E4:88:5B:E6:90:C8:A4:9B:E4:54:E4:CB:C4:EA:7F:3E
            X509v3 Authority Key Identifier: 
                keyid:E7:C0:0D:CC:0C:81:6A:C2:C7:2C:83:9E:D2:ED:66:4C:5F:E3:29:C0
                DirName:/CN=team29-net
                serial:2B:5F:91:57:3F:88:03:CB:03:63:5B:3D:23:BA:BC:62:A9:93:DD:01
            X509v3 Extended Key Usage: 
                TLS Web Server Authentication
            X509v3 Key Usage: 
                Digital Signature, Key Encipherment
            X509v3 Subject Alternative Name: 
                DNS:team29-server
    Signature Algorithm: sha256WithRSAEncryption
    Signature Value:
        55:63:53:8d:fd:20:82:bc:92:4f:9e:bf:9d:2a:b4:03:df:c3:
        9b:12:e5:ef:44:00:e8:ed:5b:b1:df:af:ea:e5:56:47:49:8b:
        b5:06:2a:eb:87:c8:ba:f2:78:da:bf:50:68:b7:ba:9e:69:db:
        56:f7:c7:3d:99:9c:64:64:2e:9b:cc:70:d0:f8:51:c7:30:90:
        3e:b6:e3:21:e8:7d:fc:e7:5b:87:c8:25:85:ba:69:ec:ed:42:
        63:94:14:b3:92:52:03:7b:f0:00:62:d1:ed:a8:8c:93:40:a1:
        76:dd:37:ee:e8:87:74:8f:bb:5f:1c:ce:68:37:1b:33:c8:e5:
        d7:d2:a5:7e:c1:62:51:ce:52:bc:24:03:e6:90:07:f3:34:8f:
        3e:5b:7e:a4:9b:68:88:6f:5d:cd:68:5e:73:3f:c6:f5:84:ad:
        88:e4:b0:e6:f4:bf:ef:cc:a9:d5:40:06:7e:f7:93:da:b8:fc:
        0c:ac:c2:ce:25:37:bb:34:d8:89:85:35:95:44:bc:73:30:09:
        33:8c:cd:cc:67:04:fd:0e:45:81:4a:77:71:78:6c:3e:03:a4:
        e4:63:24:9d:44:0d:65:fb:c5:63:94:d9:9d:96:b1:1a:ae:ad:
        de:01:06:73:61:a7:e0:04:49:80:5a:88:c1:fe:18:34:42:f3:
        bc:e1:2f:52
-----BEGIN CERTIFICATE-----
MIIDdDCCAlygAwIBAgIRALcRnKigdbAO9xfjZ7YXuHAwDQYJKoZIhvcNAQELBQAw
FTETMBEGA1UEAwwKdGVhbTI5LW5ldDAeFw0yMzExMDQxMTI3NTVaFw0yNjEwMTkx
MTI3NTVaMBgxFjAUBgNVBAMMDXRlYW0yOS1zZXJ2ZXIwggEiMA0GCSqGSIb3DQEB
AQUAA4IBDwAwggEKAoIBAQC1jbIfv9oQ6sWf0hnk+lTkWvOK9G4Npyhat5UHopY3
mBMJY5Q3W06cHpvNBUC48sQEde9mb9kGhZ1hg7x3jKZ+nVrQSj3mOBv9d2kFgeZt
3voDefQlbC6d+4etwdBqVwycx/Z5xFdOZUK1+GBRlHnxW8uB3GTSFievch9DUF/M
+IUx7FpOQiGe35KPw47bhR4AW0DWFh2lQj2s0zVXiXX8yCQF60AiHeaz/8AwH9If
vI6qVtj7VpJ0a+bws8Akrgn5/DhM1ETb3KTpWV+l+5dBWrnxeFEIpyM7nLysh94A
WIhgZi63VgDmuiSkqdwu4UMrIBlTSRHlvflsqlsajGUxAgMBAAGjgbswgbgwCQYD
VR0TBAIwADAdBgNVHQ4EFgQU6DXAZeSIW+aQyKSb5FTky8Tqfz4wUAYDVR0jBEkw
R4AU58ANzAyBasLHLIOe0u1mTF/jKcChGaQXMBUxEzARBgNVBAMMCnRlYW0yOS1u
ZXSCFCtfkVc/iAPLA2NbPSO6vGKpk90BMBMGA1UdJQQMMAoGCCsGAQUFBwMBMAsG
A1UdDwQEAwIFoDAYBgNVHREEETAPgg10ZWFtMjktc2VydmVyMA0GCSqGSIb3DQEB
CwUAA4IBAQBVY1ON/SCCvJJPnr+dKrQD38ObEuXvRADo7Vux36/q5VZHSYu1Birr
h8i68njav1Bot7qeadtW98c9mZxkZC6bzHDQ+FHHMJA+tuMh6H3851uHyCWFumns
7UJjlBSzklIDe/AAYtHtqIyTQKF23Tfu6Id0j7tfHM5oNxszyOXX0qV+wWJRzlK8
JAPmkAfzNI8+W36km2iIb13NaF5zP8b1hK2I5LDm9L/vzKnVQAZ+95PauPwMrMLO
JTe7NNiJhTWVRLxzMAkzjM3MZwT9DkWBSndxeGw+A6TkYySdRA1l+8VjlNmdlrEa
rq3eAQZzYafgBEmAWojB/hg0QvO84S9S
-----END CERTIFICATE-----
