Certificate:
    Data:
        Version: 3 (0x2)
        Serial Number:
            44:6e:2a:61:e4:9f:f8:0c:f5:4f:96:c0:5b:7f:ae:60
        Signature Algorithm: sha256WithRSAEncryption
        Issuer: CN=team81-net
        Validity
            Not Before: Nov  4 11:28:57 2023 GMT
            Not After : Oct 19 11:28:57 2026 GMT
        Subject: CN=team81-client
        Subject Public Key Info:
            Public Key Algorithm: rsaEncryption
                Public-Key: (2048 bit)
                Modulus:
                    00:98:88:db:98:e9:87:3f:09:b9:cd:ab:3a:b9:2b:
                    e3:13:60:84:de:ee:ad:ae:fa:1c:6d:3b:cf:7b:87:
                    de:94:64:b9:1e:91:3d:d8:29:f7:53:d7:6c:8d:d4:
                    14:73:af:d5:f5:ec:ab:25:1a:37:fd:04:38:31:c5:
                    12:79:5b:af:ac:75:a9:3b:e9:6a:d6:a7:30:13:b1:
                    9b:8c:ad:2e:fa:7c:65:e3:13:bf:1e:9e:50:17:3a:
                    c2:90:79:e7:e7:92:02:d7:7f:22:db:e8:05:af:0e:
                    0e:63:6e:0e:a1:5a:ba:51:32:c7:66:74:53:35:81:
                    5d:bc:82:68:e9:0e:69:4e:18:88:4d:2f:28:34:03:
                    6c:14:3e:dd:44:9d:12:5e:08:8d:29:e5:1d:7e:3e:
                    c2:3e:12:83:e5:39:fc:7d:99:7e:18:ce:5f:0e:0e:
                    f4:f3:e3:e6:34:88:e7:b3:c2:ba:e9:fc:82:ba:7a:
                    86:31:ae:e9:2a:d4:5d:fd:95:50:02:9e:ce:94:d6:
                    6a:3a:0c:e7:50:28:6b:a5:86:bf:8b:fb:93:3e:71:
                    88:1f:34:bb:9b:99:ce:ef:56:60:ff:84:45:4e:9d:
                    70:83:31:4d:24:38:40:32:d2:22:df:e5:a3:36:74:
                    be:fb:6e:de:0e:ae:2e:28:7f:d6:c2:ef:19:32:40:
                    cb:29
                Exponent: 65537 (0x10001)
        X509v3 extensions:
            X509v3 Basic Constraints: 
                CA:FALSE
            X509v3 Subject Key Identifier: 
                24:31:00:97:83:52:AD:6F:C9:D6:20:BE:5F:9F:41:7E:A7:B7:1D:30
            X509v3 Authority Key Identifier: 
                keyid:8E:F2:94:01:CE:F8:6E:1F:F8:D5:0D:4F:6D:5C:F2:FE:7D:6A:DC:9F
                DirName:/CN=team81-net
                serial:50:39:B0:6B:C7:8A:69:CE:4D:1F:76:4F:07:BB:0F:3B:FE:83:44:6D
            X509v3 Extended Key Usage: 
                TLS Web Client Authentication
            X509v3 Key Usage: 
                Digital Signature
    Signature Algorithm: sha256WithRSAEncryption
    Signature Value:
        30:38:81:6b:0d:b7:fe:f7:13:72:4d:cb:dc:2d:bd:2f:77:a4:
        01:bc:3a:0b:dd:96:9f:15:a0:14:7d:19:b7:fc:e0:80:de:7a:
        be:b1:e6:24:4e:dd:78:7f:11:33:9b:e1:a6:b3:72:22:65:c5:
        a6:b1:ff:ca:7b:60:73:20:32:67:2b:76:d3:4e:40:ed:d2:5c:
        00:6d:8f:a7:3c:a2:fc:a6:5d:a2:e7:98:53:d4:7e:fd:c6:8b:
        f9:d5:20:fc:23:1c:51:a4:b1:e0:fa:82:0c:d9:c7:ef:10:9c:
        72:26:3e:ae:04:d8:5f:4f:e8:eb:f3:80:79:7b:7f:59:3d:a5:
        fa:bc:99:9b:69:80:4e:06:c0:45:7b:4d:46:d7:86:07:c0:7c:
        4d:40:52:5e:d8:26:ec:75:bf:b0:c4:0b:78:36:2a:cf:32:d3:
        56:82:ec:d9:d1:cf:d3:0a:50:76:26:3d:ad:47:1f:8b:fa:04:
        57:b7:30:55:ad:9f:3b:b4:c2:fe:da:7f:f6:c3:2d:05:e2:67:
        f4:b1:f3:4b:7a:01:32:96:9f:49:28:01:b7:20:91:6c:4f:1f:
        06:e0:2e:94:80:bc:f6:f3:16:a9:76:00:6d:3d:5f:f9:de:1a:
        e3:10:f4:a9:78:92:a3:c9:13:b6:34:18:e7:57:00:d6:3e:b4:
        5c:04:56:d7
-----BEGIN CERTIFICATE-----
MIIDWTCCAkGgAwIBAgIQRG4qYeSf+Az1T5bAW3+uYDANBgkqhkiG9w0BAQsFADAV
MRMwEQYDVQQDDAp0ZWFtODEtbmV0MB4XDTIzMTEwNDExMjg1N1oXDTI2MTAxOTEx
Mjg1N1owGDEWMBQGA1UEAwwNdGVhbTgxLWNsaWVudDCCASIwDQYJKoZIhvcNAQEB
BQADggEPADCCAQoCggEBAJiI25jphz8Juc2rOrkr4xNghN7ura76HG07z3uH3pRk
uR6RPdgp91PXbI3UFHOv1fXsqyUaN/0EODHFEnlbr6x1qTvpatanMBOxm4ytLvp8
ZeMTvx6eUBc6wpB55+eSAtd/ItvoBa8ODmNuDqFaulEyx2Z0UzWBXbyCaOkOaU4Y
iE0vKDQDbBQ+3USdEl4IjSnlHX4+wj4Sg+U5/H2ZfhjOXw4O9PPj5jSI57PCuun8
grp6hjGu6SrUXf2VUAKezpTWajoM51Aoa6WGv4v7kz5xiB80u5uZzu9WYP+ERU6d
cIMxTSQ4QDLSIt/lozZ0vvtu3g6uLih/1sLvGTJAyykCAwEAAaOBoTCBnjAJBgNV
HRMEAjAAMB0GA1UdDgQWBBQkMQCXg1Ktb8nWIL5fn0F+p7cdMDBQBgNVHSMESTBH
gBSO8pQBzvhuH/jVDU9tXPL+fWrcn6EZpBcwFTETMBEGA1UEAwwKdGVhbTgxLW5l
dIIUUDmwa8eKac5NH3ZPB7sPO/6DRG0wEwYDVR0lBAwwCgYIKwYBBQUHAwIwCwYD
VR0PBAQDAgeAMA0GCSqGSIb3DQEBCwUAA4IBAQAwOIFrDbf+9xNyTcvcLb0vd6QB
vDoL3ZafFaAUfRm3/OCA3nq+seYkTt14fxEzm+Gms3IiZcWmsf/Ke2BzIDJnK3bT
TkDt0lwAbY+nPKL8pl2i55hT1H79xov51SD8IxxRpLHg+oIM2cfvEJxyJj6uBNhf
T+jr84B5e39ZPaX6vJmbaYBOBsBFe01G14YHwHxNQFJe2Cbsdb+wxAt4NirPMtNW
guzZ0c/TClB2Jj2tRx+L+gRXtzBVrZ87tML+2n/2wy0F4mf0sfNLegEylp9JKAG3
IJFsTx8G4C6UgLz28xapdgBtPV/53hrjEPSpeJKjyRO2NBjnVwDWPrRcBFbX
-----END CERTIFICATE-----
