Certificate:
    Data:
        Version: 3 (0x2)
        Serial Number:
            de:93:fd:1d:78:5e:be:48:2d:2c:63:40:d4:cb:da:e1
        Signature Algorithm: sha256WithRSAEncryption
        Issuer: CN=team81-net
        Validity
            Not Before: Nov  4 10:41:55 2023 GMT
            Not After : Oct 19 10:41:55 2026 GMT
        Subject: CN=team81-server
        Subject Public Key Info:
            Public Key Algorithm: rsaEncryption
                Public-Key: (2048 bit)
                Modulus:
                    00:fb:0a:76:b4:f2:83:0f:a9:ef:d2:6a:ea:1a:44:
                    eb:44:87:06:0e:68:29:2f:33:a0:53:b2:f0:d1:3f:
                    e2:5a:8c:c8:8b:a8:3e:46:d0:dc:fa:7d:2b:68:ab:
                    c1:04:9d:6c:82:79:8d:86:9b:41:25:a0:7d:89:f1:
                    f9:0a:6b:42:5b:a4:81:c6:0e:b7:5a:73:e1:d5:c9:
                    e4:61:1e:e4:9c:2e:d9:c7:ce:07:5e:65:d6:60:90:
                    b2:22:e5:71:96:bd:1b:35:59:64:b1:84:80:ce:5e:
                    17:6d:57:7c:f2:0d:68:5d:f0:71:2d:05:a3:fd:e1:
                    ab:3a:74:e3:41:87:93:7c:e9:7b:01:b3:ed:81:3e:
                    eb:84:d0:85:85:da:a4:a2:7b:68:4d:1c:d2:9f:cb:
                    64:30:53:b8:22:4b:17:d9:d4:b9:b6:f3:72:5e:7c:
                    e3:4a:d6:a1:44:f5:f0:fc:e5:e9:ed:f2:95:7e:93:
                    8b:ff:24:ac:9e:78:78:fe:b3:f4:bf:37:33:04:0b:
                    cb:40:4b:ec:26:07:f6:ed:b8:25:9e:04:5b:b9:a8:
                    3a:e8:3e:b3:13:87:03:78:db:67:f1:b2:f7:81:fe:
                    c8:49:97:75:bc:2d:52:e7:07:9c:ae:8c:60:1c:e4:
                    3e:ce:c0:27:a2:8d:bc:47:1e:ca:04:f1:f4:8d:6b:
                    f9:a7
                Exponent: 65537 (0x10001)
        X509v3 extensions:
            X509v3 Basic Constraints: 
                CA:FALSE
            X509v3 Subject Key Identifier: 
                C1:B4:88:23:03:D6:C1:16:A9:62:C8:2D:1F:AB:DE:D0:F2:91:51:83
            X509v3 Authority Key Identifier: 
                keyid:59:DE:F1:2F:34:20:E1:47:5A:1F:05:D2:42:EB:E7:AC:71:82:41:56
                DirName:/CN=team81-net
                serial:26:12:B3:C1:97:49:61:9D:30:EB:BC:82:28:A6:CB:5C:E0:63:36:9E
            X509v3 Extended Key Usage: 
                TLS Web Server Authentication
            X509v3 Key Usage: 
                Digital Signature, Key Encipherment
            X509v3 Subject Alternative Name: 
                DNS:team81-server
    Signature Algorithm: sha256WithRSAEncryption
    Signature Value:
        0b:a9:f9:f3:82:cf:cb:fd:fa:89:13:53:db:02:6c:7c:0b:15:
        b8:58:da:da:9d:a3:8b:65:98:22:f7:fe:37:ef:bd:72:02:5d:
        bf:01:bf:1a:6d:04:40:1c:bb:bf:0b:30:84:ef:99:35:40:81:
        0e:1e:56:41:8b:7a:40:f1:ab:e2:58:97:c6:f0:03:01:f6:82:
        10:e6:b4:54:ac:59:a6:97:b6:04:46:24:9e:fa:86:f9:35:15:
        aa:74:36:9f:5e:1a:e9:06:51:5a:bc:2e:11:68:bd:95:17:9f:
        a3:4e:82:a3:70:cc:32:65:04:47:f9:fb:56:e0:ee:2c:3c:25:
        e8:db:9c:32:a5:a5:59:31:ab:40:d7:f8:22:2f:11:5d:1f:27:
        58:8a:4c:34:23:fa:4d:eb:36:93:73:87:2f:ce:26:33:f5:2b:
        2b:84:51:c1:a3:e5:e4:af:a7:48:ec:70:e0:99:f3:33:ea:be:
        d0:1b:7c:dc:a0:fe:57:38:51:36:90:03:c6:78:57:b1:23:ce:
        07:b3:f0:b0:3d:d7:3d:e0:b3:63:e7:37:c0:52:95:62:75:d7:
        98:1c:f7:5a:4c:54:ec:e1:b8:92:45:85:c5:6b:d0:b2:78:32:
        8b:73:5a:d7:0d:21:48:9c:67:a0:34:03:77:11:fd:d2:7f:ee:
        70:28:41:54
-----BEGIN CERTIFICATE-----
MIIDdDCCAlygAwIBAgIRAN6T/R14Xr5ILSxjQNTL2uEwDQYJKoZIhvcNAQELBQAw
FTETMBEGA1UEAwwKdGVhbTgxLW5ldDAeFw0yMzExMDQxMDQxNTVaFw0yNjEwMTkx
MDQxNTVaMBgxFjAUBgNVBAMMDXRlYW04MS1zZXJ2ZXIwggEiMA0GCSqGSIb3DQEB
AQUAA4IBDwAwggEKAoIBAQD7Cna08oMPqe/SauoaROtEhwYOaCkvM6BTsvDRP+Ja
jMiLqD5G0Nz6fStoq8EEnWyCeY2Gm0EloH2J8fkKa0JbpIHGDrdac+HVyeRhHuSc
LtnHzgdeZdZgkLIi5XGWvRs1WWSxhIDOXhdtV3zyDWhd8HEtBaP94as6dONBh5N8
6XsBs+2BPuuE0IWF2qSie2hNHNKfy2QwU7giSxfZ1Lm283JefONK1qFE9fD85ent
8pV+k4v/JKyeeHj+s/S/NzMEC8tAS+wmB/btuCWeBFu5qDroPrMThwN422fxsveB
/shJl3W8LVLnB5yujGAc5D7OwCeijbxHHsoE8fSNa/mnAgMBAAGjgbswgbgwCQYD
VR0TBAIwADAdBgNVHQ4EFgQUwbSIIwPWwRapYsgtH6ve0PKRUYMwUAYDVR0jBEkw
R4AUWd7xLzQg4UdaHwXSQuvnrHGCQVahGaQXMBUxEzARBgNVBAMMCnRlYW04MS1u
ZXSCFCYSs8GXSWGdMOu8giimy1zgYzaeMBMGA1UdJQQMMAoGCCsGAQUFBwMBMAsG
A1UdDwQEAwIFoDAYBgNVHREEETAPgg10ZWFtODEtc2VydmVyMA0GCSqGSIb3DQEB
CwUAA4IBAQALqfnzgs/L/fqJE1PbAmx8CxW4WNranaOLZZgi9/43771yAl2/Ab8a
bQRAHLu/CzCE75k1QIEOHlZBi3pA8aviWJfG8AMB9oIQ5rRUrFmml7YERiSe+ob5
NRWqdDafXhrpBlFavC4RaL2VF5+jToKjcMwyZQRH+ftW4O4sPCXo25wypaVZMatA
1/giLxFdHydYikw0I/pN6zaTc4cvziYz9SsrhFHBo+Xkr6dI7HDgmfMz6r7QG3zc
oP5XOFE2kAPGeFexI84Hs/CwPdc94LNj5zfAUpViddeYHPdaTFTs4biSRYXFa9Cy
eDKLc1rXDSFInGegNAN3Ef3Sf+5wKEFU
-----END CERTIFICATE-----
