Certificate:
    Data:
        Version: 3 (0x2)
        Serial Number:
            f6:10:de:88:a2:45:ab:2b:50:16:b7:62:09:66:1e:5a
        Signature Algorithm: sha256WithRSAEncryption
        Issuer: CN=team81-net
        Validity
            Not Before: Nov  4 11:28:57 2023 GMT
            Not After : Oct 19 11:28:57 2026 GMT
        Subject: CN=team81-server
        Subject Public Key Info:
            Public Key Algorithm: rsaEncryption
                Public-Key: (2048 bit)
                Modulus:
                    00:b2:a3:fd:66:10:34:ea:88:17:69:60:ed:a6:30:
                    fb:6d:c0:51:83:ae:e8:1d:94:f9:46:0d:7e:4c:ac:
                    08:46:97:14:5f:4d:da:ce:c3:b3:5d:f4:8a:aa:a0:
                    a1:0f:ab:d8:51:de:87:9d:20:97:e7:07:e9:3d:cd:
                    43:0e:9f:fd:8c:3c:db:c0:e6:72:72:3a:f0:75:f3:
                    80:ed:af:a1:51:5a:2c:9e:ba:56:fc:6d:65:3e:66:
                    26:e7:37:2a:ab:92:8c:dc:83:b5:18:d7:a3:a8:17:
                    7d:ac:39:02:f9:0d:5f:17:73:bf:86:1d:61:bd:3f:
                    5b:8e:73:7b:48:b1:17:66:80:e9:58:33:d2:64:2f:
                    e5:f0:1a:40:96:6b:0a:1e:10:f0:59:5e:e0:d8:aa:
                    df:39:51:e6:9a:52:cf:82:2a:44:9a:59:88:ab:a7:
                    91:b6:c8:c2:af:68:6f:d2:58:23:01:57:10:45:e4:
                    31:db:95:4b:c2:d4:5a:d4:e2:10:08:f1:2c:71:f0:
                    20:a4:4d:a2:d2:09:a5:1f:34:96:64:b7:e7:44:0e:
                    86:51:ef:01:30:f6:b1:9b:5f:5c:fa:f2:b4:40:c9:
                    79:16:a5:60:ea:42:08:31:90:b8:6f:d9:5d:ba:d5:
                    a3:17:ea:6b:3c:bd:c8:49:92:2c:9b:c8:d6:e2:2e:
                    9d:e7
                Exponent: 65537 (0x10001)
        X509v3 extensions:
            X509v3 Basic Constraints: 
                CA:FALSE
            X509v3 Subject Key Identifier: 
                5B:83:B6:5A:E0:AF:DC:21:60:37:DE:06:39:AB:8C:AE:48:6B:6A:47
            X509v3 Authority Key Identifier: 
                keyid:8E:F2:94:01:CE:F8:6E:1F:F8:D5:0D:4F:6D:5C:F2:FE:7D:6A:DC:9F
                DirName:/CN=team81-net
                serial:50:39:B0:6B:C7:8A:69:CE:4D:1F:76:4F:07:BB:0F:3B:FE:83:44:6D
            X509v3 Extended Key Usage: 
                TLS Web Server Authentication
            X509v3 Key Usage: 
                Digital Signature, Key Encipherment
            X509v3 Subject Alternative Name: 
                DNS:team81-server
    Signature Algorithm: sha256WithRSAEncryption
    Signature Value:
        93:df:0f:41:5e:31:56:42:4c:c1:4c:ea:2f:65:1d:dc:2e:6f:
        fb:8d:82:75:8a:ac:e5:d5:3f:f3:6a:3f:0c:a5:0d:1c:d8:44:
        7e:82:6e:2b:2d:62:e1:80:86:8b:b8:0e:0f:f8:4b:b3:fd:3a:
        f2:11:73:b9:05:f0:42:32:16:df:89:48:60:18:95:3a:1a:01:
        55:99:c1:6b:d1:6b:90:b6:1c:8a:d1:48:11:38:67:28:43:1e:
        c5:f7:a6:06:e2:74:fd:7b:8b:c2:a6:cd:81:9e:3b:47:6f:4d:
        a1:e8:82:48:19:95:ef:29:07:88:dd:28:6f:c0:23:52:18:b8:
        73:12:21:e7:eb:06:a5:f2:b5:08:c4:12:50:9a:3b:9c:74:01:
        25:5c:dd:cf:f2:c3:f7:dd:3b:c3:4a:43:17:19:f1:be:4d:21:
        35:da:44:2f:c8:c3:a9:9c:7b:83:41:aa:e5:6d:6e:36:25:1c:
        2e:19:4c:26:68:8d:1d:c2:9e:84:50:5f:08:0f:16:7f:66:f9:
        f9:85:c2:4b:e3:48:4a:d2:12:28:1a:c9:5b:8a:1b:1d:04:e2:
        36:8d:16:71:dd:83:40:17:f1:ee:32:80:89:e4:4c:e1:75:41:
        3f:f1:4f:72:e0:fd:a0:d1:62:5d:6c:74:a9:04:d2:f2:f5:46:
        a1:ee:f2:c7
-----BEGIN CERTIFICATE-----
MIIDdDCCAlygAwIBAgIRAPYQ3oiiRasrUBa3YglmHlowDQYJKoZIhvcNAQELBQAw
FTETMBEGA1UEAwwKdGVhbTgxLW5ldDAeFw0yMzExMDQxMTI4NTdaFw0yNjEwMTkx
MTI4NTdaMBgxFjAUBgNVBAMMDXRlYW04MS1zZXJ2ZXIwggEiMA0GCSqGSIb3DQEB
AQUAA4IBDwAwggEKAoIBAQCyo/1mEDTqiBdpYO2mMPttwFGDrugdlPlGDX5MrAhG
lxRfTdrOw7Nd9IqqoKEPq9hR3oedIJfnB+k9zUMOn/2MPNvA5nJyOvB184Dtr6FR
Wiyeulb8bWU+ZibnNyqrkozcg7UY16OoF32sOQL5DV8Xc7+GHWG9P1uOc3tIsRdm
gOlYM9JkL+XwGkCWawoeEPBZXuDYqt85UeaaUs+CKkSaWYirp5G2yMKvaG/SWCMB
VxBF5DHblUvC1FrU4hAI8Sxx8CCkTaLSCaUfNJZkt+dEDoZR7wEw9rGbX1z68rRA
yXkWpWDqQggxkLhv2V261aMX6ms8vchJkiybyNbiLp3nAgMBAAGjgbswgbgwCQYD
VR0TBAIwADAdBgNVHQ4EFgQUW4O2WuCv3CFgN94GOauMrkhrakcwUAYDVR0jBEkw
R4AUjvKUAc74bh/41Q1PbVzy/n1q3J+hGaQXMBUxEzARBgNVBAMMCnRlYW04MS1u
ZXSCFFA5sGvHimnOTR92Twe7Dzv+g0RtMBMGA1UdJQQMMAoGCCsGAQUFBwMBMAsG
A1UdDwQEAwIFoDAYBgNVHREEETAPgg10ZWFtODEtc2VydmVyMA0GCSqGSIb3DQEB
CwUAA4IBAQCT3w9BXjFWQkzBTOovZR3cLm/7jYJ1iqzl1T/zaj8MpQ0c2ER+gm4r
LWLhgIaLuA4P+Euz/TryEXO5BfBCMhbfiUhgGJU6GgFVmcFr0WuQthyK0UgROGco
Qx7F96YG4nT9e4vCps2BnjtHb02h6IJIGZXvKQeI3ShvwCNSGLhzEiHn6wal8rUI
xBJQmjucdAElXN3P8sP33TvDSkMXGfG+TSE12kQvyMOpnHuDQarlbW42JRwuGUwm
aI0dwp6EUF8IDxZ/Zvn5hcJL40hK0hIoGslbihsdBOI2jRZx3YNAF/HuMoCJ5Ezh
dUE/8U9y4P2g0WJdbHSpBNLy9Uah7vLH
-----END CERTIFICATE-----
