Certificate:
    Data:
        Version: 3 (0x2)
        Serial Number:
            40:6e:c4:2f:9c:c5:4a:5d:18:7a:45:78:d7:82:f5:5e
        Signature Algorithm: sha256WithRSAEncryption
        Issuer: CN=team49-net
        Validity
            Not Before: Nov  3 20:40:06 2023 GMT
            Not After : Oct 18 20:40:06 2026 GMT
        Subject: CN=team49-client
        Subject Public Key Info:
            Public Key Algorithm: rsaEncryption
                Public-Key: (2048 bit)
                Modulus:
                    00:e7:d8:79:f0:9b:df:ed:b3:15:8e:29:8c:b9:e1:
                    f8:60:95:3e:e7:73:c4:53:17:a3:18:d0:7f:38:d9:
                    ee:a6:78:89:90:93:07:09:9f:3c:04:47:08:ab:f3:
                    55:71:49:40:96:87:88:eb:3f:56:c4:13:96:9d:c6:
                    cc:ee:65:e6:c0:c7:3b:75:58:fb:be:2b:22:23:79:
                    f1:95:ed:2b:99:2a:0f:de:a1:85:44:27:02:b0:db:
                    10:3e:c5:dd:26:45:cd:31:30:d3:45:f9:e9:66:6c:
                    bf:e2:d9:24:bb:58:ca:e2:36:a5:82:6d:62:c5:8e:
                    c9:0c:6d:b6:b3:e0:6d:e8:30:4f:a8:ad:20:95:e6:
                    7b:27:df:6a:75:26:d2:73:17:cb:7e:bb:87:eb:51:
                    41:3c:1d:d1:22:05:e3:0d:47:7b:aa:ff:94:e3:a2:
                    73:f6:9c:73:45:6e:42:b7:c1:51:90:6f:81:a1:0e:
                    87:9a:9f:76:2b:b9:14:63:8a:33:38:1b:d9:f9:12:
                    1f:33:22:68:16:f5:ca:16:35:07:0d:bb:2b:39:f6:
                    cf:70:4b:ae:8c:59:32:e2:ae:f3:8e:f4:9a:1c:26:
                    f3:9b:6c:a4:1a:ef:37:46:cd:8a:81:b0:6d:f8:01:
                    0f:82:4f:25:a2:3a:0e:8a:25:c9:9e:65:aa:c9:8b:
                    1b:d7
                Exponent: 65537 (0x10001)
        X509v3 extensions:
            X509v3 Basic Constraints: 
                CA:FALSE
            X509v3 Subject Key Identifier: 
                8D:0F:48:65:57:84:7C:07:85:29:1A:3B:14:DE:6A:1D:12:95:E0:3E
            X509v3 Authority Key Identifier: 
                keyid:C6:00:D6:F0:E6:56:4C:79:5E:11:D8:84:98:10:6C:C8:32:27:4D:BB
                DirName:/CN=team49-net
                serial:1E:95:14:FD:7C:AC:E4:5B:1F:59:67:AF:E3:0D:A6:FB:3A:51:AA:A9
            X509v3 Extended Key Usage: 
                TLS Web Client Authentication
            X509v3 Key Usage: 
                Digital Signature
    Signature Algorithm: sha256WithRSAEncryption
    Signature Value:
        1a:54:c2:fa:ee:9b:28:c3:d0:1d:ce:7e:02:f1:76:9e:a5:3c:
        a4:42:cb:07:a7:19:d0:ef:a2:e0:0e:93:d2:8a:7a:ef:6d:d4:
        e0:19:ec:de:f0:30:f5:13:c2:b8:ea:a0:3e:a0:eb:03:69:be:
        bc:1e:de:40:a7:ab:a5:ca:80:cd:c2:55:9f:c3:ed:90:0b:54:
        d1:c8:61:85:e6:d5:de:d0:6a:23:38:18:0f:d6:a0:3e:08:98:
        3a:ac:5b:bc:c6:66:b5:a5:c3:45:50:85:59:50:83:10:dd:81:
        3e:94:91:c9:6c:d0:7e:24:b8:83:6d:09:b9:ef:3c:b3:e6:41:
        f0:1d:ed:6c:c8:a8:db:46:33:b8:86:97:02:cb:e3:63:03:bf:
        8a:00:c8:cb:49:c6:12:55:ac:e7:2f:33:e0:44:5b:76:c6:89:
        cc:e4:26:b2:d6:f8:a8:11:c5:85:50:be:f4:0b:4c:f6:5c:4d:
        5a:6e:6d:71:f6:76:e7:c9:0c:17:1f:00:ca:8b:f7:49:9b:ca:
        a8:e4:32:70:cf:c6:57:0c:88:71:86:13:d8:16:e5:f4:8e:a2:
        78:25:c5:5b:a4:28:87:ca:7e:e9:b3:08:7c:83:a8:44:81:17:
        d8:8e:89:d0:8b:f6:f1:45:26:e5:89:5b:6e:97:b3:5c:4d:e0:
        71:21:6d:3f
-----BEGIN CERTIFICATE-----
MIIDWTCCAkGgAwIBAgIQQG7EL5zFSl0YekV414L1XjANBgkqhkiG9w0BAQsFADAV
MRMwEQYDVQQDDAp0ZWFtNDktbmV0MB4XDTIzMTEwMzIwNDAwNloXDTI2MTAxODIw
NDAwNlowGDEWMBQGA1UEAwwNdGVhbTQ5LWNsaWVudDCCASIwDQYJKoZIhvcNAQEB
BQADggEPADCCAQoCggEBAOfYefCb3+2zFY4pjLnh+GCVPudzxFMXoxjQfzjZ7qZ4
iZCTBwmfPARHCKvzVXFJQJaHiOs/VsQTlp3GzO5l5sDHO3VY+74rIiN58ZXtK5kq
D96hhUQnArDbED7F3SZFzTEw00X56WZsv+LZJLtYyuI2pYJtYsWOyQxttrPgbegw
T6itIJXmeyffanUm0nMXy367h+tRQTwd0SIF4w1He6r/lOOic/acc0VuQrfBUZBv
gaEOh5qfdiu5FGOKMzgb2fkSHzMiaBb1yhY1Bw27Kzn2z3BLroxZMuKu8470mhwm
85tspBrvN0bNioGwbfgBD4JPJaI6DoolyZ5lqsmLG9cCAwEAAaOBoTCBnjAJBgNV
HRMEAjAAMB0GA1UdDgQWBBSND0hlV4R8B4UpGjsU3modEpXgPjBQBgNVHSMESTBH
gBTGANbw5lZMeV4R2ISYEGzIMidNu6EZpBcwFTETMBEGA1UEAwwKdGVhbTQ5LW5l
dIIUHpUU/Xys5FsfWWev4w2m+zpRqqkwEwYDVR0lBAwwCgYIKwYBBQUHAwIwCwYD
VR0PBAQDAgeAMA0GCSqGSIb3DQEBCwUAA4IBAQAaVML67psow9Adzn4C8XaepTyk
QssHpxnQ76LgDpPSinrvbdTgGeze8DD1E8K46qA+oOsDab68Ht5Ap6ulyoDNwlWf
w+2QC1TRyGGF5tXe0GojOBgP1qA+CJg6rFu8xma1pcNFUIVZUIMQ3YE+lJHJbNB+
JLiDbQm57zyz5kHwHe1syKjbRjO4hpcCy+NjA7+KAMjLScYSVaznLzPgRFt2xonM
5Cay1vioEcWFUL70C0z2XE1abm1x9nbnyQwXHwDKi/dJm8qo5DJwz8ZXDIhxhhPY
FuX0jqJ4JcVbpCiHyn7pswh8g6hEgRfYjonQi/bxRSbliVtul7NcTeBxIW0/
-----END CERTIFICATE-----
