Certificate:
    Data:
        Version: 3 (0x2)
        Serial Number:
            14:c9:80:72:0d:74:a0:bd:35:c3:c1:40:19:5b:73:01
        Signature Algorithm: sha256WithRSAEncryption
        Issuer: CN=team477-net
        Validity
            Not Before: Nov  4 10:49:02 2023 GMT
            Not After : Oct 19 10:49:02 2026 GMT
        Subject: CN=team477-server
        Subject Public Key Info:
            Public Key Algorithm: rsaEncryption
                Public-Key: (2048 bit)
                Modulus:
                    00:b7:77:59:a5:33:84:b1:fe:4e:17:9f:97:47:62:
                    5b:6f:00:ce:6a:cd:0c:19:92:45:b6:59:d3:b4:c0:
                    1e:dd:67:b3:93:58:a9:74:a8:e9:90:bc:a5:8d:2a:
                    cd:e1:1b:b7:32:21:dc:1f:d5:fd:0f:d5:d3:52:1d:
                    07:ee:c4:7b:97:82:c6:bc:88:cf:88:07:a3:68:e1:
                    e6:77:7f:75:9c:f7:2e:ec:d2:48:c7:30:eb:86:75:
                    05:f3:93:12:cb:7b:8c:a8:8d:0a:09:0f:ef:d1:fd:
                    5f:d7:b9:5d:11:5d:dd:67:b8:45:7e:48:f1:5d:d8:
                    3f:1c:c7:c3:1a:84:cc:18:7d:b3:ef:a9:19:34:01:
                    0a:f7:a2:0e:04:cf:24:43:45:05:bd:4b:12:f5:90:
                    5a:91:d9:eb:9e:33:cc:89:ef:b1:43:a3:5d:94:fb:
                    01:0f:a5:2f:e1:b3:e9:d7:54:7b:87:d4:03:bb:bd:
                    83:61:e3:a6:3d:b7:79:93:2d:f6:17:fe:53:8e:0b:
                    ad:90:36:32:32:89:12:ed:1c:d3:4a:62:19:50:77:
                    05:58:47:a8:c2:12:fb:df:56:aa:73:0b:50:e4:e8:
                    a2:ae:8d:44:b7:c1:0e:05:76:52:c9:32:90:5c:2d:
                    81:67:02:ea:9c:9e:fb:d6:a7:48:f3:8b:d2:90:2e:
                    e0:a7
                Exponent: 65537 (0x10001)
        X509v3 extensions:
            X509v3 Basic Constraints: 
                CA:FALSE
            X509v3 Subject Key Identifier: 
                51:D2:2C:B6:C2:9A:38:E9:A6:3D:B6:53:3B:17:88:E8:CE:2A:49:A1
            X509v3 Authority Key Identifier: 
                keyid:3E:A7:F1:73:F9:1A:2F:04:85:3D:24:2E:F5:27:49:5A:B3:EC:B2:79
                DirName:/CN=team477-net
                serial:23:AC:63:B7:2C:A5:AC:5D:46:C0:AD:92:0F:B8:58:3D:00:27:4F:DC
            X509v3 Extended Key Usage: 
                TLS Web Server Authentication
            X509v3 Key Usage: 
                Digital Signature, Key Encipherment
            X509v3 Subject Alternative Name: 
                DNS:team477-server
    Signature Algorithm: sha256WithRSAEncryption
    Signature Value:
        87:2b:70:34:1a:f6:f5:8f:c8:b8:a1:4d:21:ff:29:4c:66:ec:
        9c:d6:c3:f4:0e:79:89:e8:03:11:b6:40:3b:2a:42:ac:8b:78:
        25:64:7c:1b:28:32:d8:a6:1d:04:45:09:b6:a0:d0:93:77:d9:
        fb:52:c7:a2:f3:19:d5:c0:eb:79:e7:89:e9:10:ec:1f:a0:ec:
        db:3d:9a:4b:9d:f5:d1:e7:35:19:69:ad:0b:d5:a7:e3:20:c8:
        6a:7c:c9:ef:f5:87:b0:9a:79:52:81:39:fe:49:f6:26:1b:35:
        20:ef:7b:ef:95:3e:01:df:a6:38:20:92:36:e4:91:2b:8a:52:
        c8:43:8b:f7:a6:5b:07:9a:c1:c4:9a:09:d2:87:be:44:19:4d:
        11:be:db:d1:05:11:7f:f0:06:fa:93:47:2a:a8:78:a5:44:79:
        35:11:00:88:41:c9:3d:d8:3c:30:de:46:61:47:b7:93:48:f5:
        3c:40:4f:9f:e0:64:68:49:ae:77:97:94:da:fa:0b:1e:84:0d:
        f2:9c:ea:27:36:d3:00:3d:ab:20:b9:b3:95:00:c1:ec:46:04:
        b3:79:2a:c2:c1:0b:25:9b:a7:09:49:54:3c:da:41:d1:0b:4b:
        ba:9b:14:db:d3:7c:a3:ec:1a:c2:e3:2c:95:bd:db:b5:c4:18:
        dc:5a:47:f1
-----BEGIN CERTIFICATE-----
MIIDdzCCAl+gAwIBAgIQFMmAcg10oL01w8FAGVtzATANBgkqhkiG9w0BAQsFADAW
MRQwEgYDVQQDDAt0ZWFtNDc3LW5ldDAeFw0yMzExMDQxMDQ5MDJaFw0yNjEwMTkx
MDQ5MDJaMBkxFzAVBgNVBAMMDnRlYW00Nzctc2VydmVyMIIBIjANBgkqhkiG9w0B
AQEFAAOCAQ8AMIIBCgKCAQEAt3dZpTOEsf5OF5+XR2JbbwDOas0MGZJFtlnTtMAe
3Wezk1ipdKjpkLyljSrN4Ru3MiHcH9X9D9XTUh0H7sR7l4LGvIjPiAejaOHmd391
nPcu7NJIxzDrhnUF85MSy3uMqI0KCQ/v0f1f17ldEV3dZ7hFfkjxXdg/HMfDGoTM
GH2z76kZNAEK96IOBM8kQ0UFvUsS9ZBakdnrnjPMie+xQ6NdlPsBD6Uv4bPp11R7
h9QDu72DYeOmPbd5ky32F/5TjgutkDYyMokS7RzTSmIZUHcFWEeowhL731aqcwtQ
5Oiiro1Et8EOBXZSyTKQXC2BZwLqnJ771qdI84vSkC7gpwIDAQABo4G9MIG6MAkG
A1UdEwQCMAAwHQYDVR0OBBYEFFHSLLbCmjjppj22UzsXiOjOKkmhMFEGA1UdIwRK
MEiAFD6n8XP5Gi8EhT0kLvUnSVqz7LJ5oRqkGDAWMRQwEgYDVQQDDAt0ZWFtNDc3
LW5ldIIUI6xjtyylrF1GwK2SD7hYPQAnT9wwEwYDVR0lBAwwCgYIKwYBBQUHAwEw
CwYDVR0PBAQDAgWgMBkGA1UdEQQSMBCCDnRlYW00Nzctc2VydmVyMA0GCSqGSIb3
DQEBCwUAA4IBAQCHK3A0Gvb1j8i4oU0h/ylMZuyc1sP0DnmJ6AMRtkA7KkKsi3gl
ZHwbKDLYph0ERQm2oNCTd9n7Usei8xnVwOt554npEOwfoOzbPZpLnfXR5zUZaa0L
1afjIMhqfMnv9YewmnlSgTn+SfYmGzUg73vvlT4B36Y4IJI25JErilLIQ4v3plsH
msHEmgnSh75EGU0RvtvRBRF/8Ab6k0cqqHilRHk1EQCIQck92Dww3kZhR7eTSPU8
QE+f4GRoSa53l5Ta+gsehA3ynOonNtMAPasgubOVAMHsRgSzeSrCwQslm6cJSVQ8
2kHRC0u6mxTb03yj7BrC4yyVvdu1xBjcWkfx
-----END CERTIFICATE-----
