Certificate:
    Data:
        Version: 3 (0x2)
        Serial Number:
            eb:d5:b1:19:e7:d8:77:fd:67:d8:15:be:81:69:1d:a1
        Signature Algorithm: sha256WithRSAEncryption
        Issuer: CN=team477-net
        Validity
            Not Before: Nov  4 10:49:02 2023 GMT
            Not After : Oct 19 10:49:02 2026 GMT
        Subject: CN=team477-client
        Subject Public Key Info:
            Public Key Algorithm: rsaEncryption
                Public-Key: (2048 bit)
                Modulus:
                    00:bf:df:f1:1a:b9:68:47:28:19:9e:15:e0:2e:8d:
                    e7:b7:e5:64:c6:b5:26:53:15:ee:2c:1f:3d:62:be:
                    2d:41:0d:11:0d:dc:e5:29:2a:6e:0f:f3:53:7f:55:
                    98:b4:42:8c:cc:c4:43:6d:6c:54:9e:05:f5:31:4a:
                    a1:7e:2a:cd:a1:27:a6:ab:c5:ca:a1:31:e7:62:4e:
                    95:e1:31:6c:6c:cf:81:f4:83:f7:cb:0f:6d:fd:a8:
                    f5:f1:9d:86:08:93:35:94:ab:45:d1:3d:dd:9e:99:
                    0c:2d:ce:09:6f:8a:e8:eb:41:3c:aa:7d:fa:b7:d1:
                    99:42:b6:d4:77:46:80:38:13:3d:15:44:52:a3:ec:
                    c1:07:1a:7e:d4:d9:e3:15:39:e6:ac:c8:d0:cd:16:
                    1f:10:92:55:db:ab:66:de:e0:f7:0c:6c:16:c4:2d:
                    25:02:6e:d9:1c:19:99:0b:ad:83:dc:9b:fd:ad:9d:
                    4c:90:a4:6a:f4:84:62:a9:1b:2d:24:48:bf:c0:8a:
                    5f:33:fc:19:ac:57:28:62:e7:02:8f:f0:25:14:4c:
                    27:61:7c:d3:19:73:50:46:f0:b6:e4:27:9d:0a:1d:
                    41:f0:9c:34:2b:86:10:73:a7:45:d2:e7:41:34:a1:
                    c2:b1:2f:8c:a1:16:24:3d:d9:52:67:58:1c:6e:c8:
                    66:7f
                Exponent: 65537 (0x10001)
        X509v3 extensions:
            X509v3 Basic Constraints: 
                CA:FALSE
            X509v3 Subject Key Identifier: 
                19:CD:29:F7:4B:84:57:8F:D7:1E:24:26:E5:49:DC:34:07:69:8F:25
            X509v3 Authority Key Identifier: 
                keyid:3E:A7:F1:73:F9:1A:2F:04:85:3D:24:2E:F5:27:49:5A:B3:EC:B2:79
                DirName:/CN=team477-net
                serial:23:AC:63:B7:2C:A5:AC:5D:46:C0:AD:92:0F:B8:58:3D:00:27:4F:DC
            X509v3 Extended Key Usage: 
                TLS Web Client Authentication
            X509v3 Key Usage: 
                Digital Signature
    Signature Algorithm: sha256WithRSAEncryption
    Signature Value:
        45:75:c5:12:39:61:16:1c:64:ce:9d:29:29:64:21:97:26:88:
        30:c4:0b:32:19:87:8a:d0:22:66:61:c7:bc:dd:8a:18:25:76:
        e4:3d:9b:ee:8e:54:7a:f9:cd:f1:4c:b4:e2:62:6d:1d:80:eb:
        31:7c:aa:44:8d:f4:68:a2:6d:32:57:c1:78:47:89:a6:e4:d5:
        81:08:db:21:3c:0d:c3:57:04:f2:b4:17:e9:09:a0:55:0c:08:
        cb:30:bb:14:b1:da:04:9d:a8:c9:90:35:cc:f8:14:3f:94:57:
        fb:ee:88:81:1f:94:d9:ae:20:64:a1:77:6e:c9:b6:f0:34:98:
        32:55:40:96:eb:a1:43:74:11:52:47:d5:51:63:dc:fc:c7:74:
        09:8f:d8:34:5e:00:00:d6:7a:fd:46:79:b9:89:e8:98:9e:59:
        9a:ee:05:83:4c:b7:7f:7d:d5:cb:af:bd:2b:73:96:38:70:e4:
        03:1d:20:06:16:9d:19:e3:63:e2:65:5e:e0:68:bc:14:d7:5a:
        ff:fc:a2:ae:d8:c6:8f:b9:12:6f:43:e9:79:fa:11:31:e5:d9:
        5c:e6:0c:7e:f3:52:02:f9:38:e6:f8:1a:a0:fa:3d:b1:a5:48:
        e7:42:07:eb:de:de:3c:84:81:83:d0:ab:77:b3:7c:4b:41:f7:
        f6:ac:23:b2
-----BEGIN CERTIFICATE-----
MIIDXTCCAkWgAwIBAgIRAOvVsRnn2Hf9Z9gVvoFpHaEwDQYJKoZIhvcNAQELBQAw
FjEUMBIGA1UEAwwLdGVhbTQ3Ny1uZXQwHhcNMjMxMTA0MTA0OTAyWhcNMjYxMDE5
MTA0OTAyWjAZMRcwFQYDVQQDDA50ZWFtNDc3LWNsaWVudDCCASIwDQYJKoZIhvcN
AQEBBQADggEPADCCAQoCggEBAL/f8Rq5aEcoGZ4V4C6N57flZMa1JlMV7iwfPWK+
LUENEQ3c5Skqbg/zU39VmLRCjMzEQ21sVJ4F9TFKoX4qzaEnpqvFyqEx52JOleEx
bGzPgfSD98sPbf2o9fGdhgiTNZSrRdE93Z6ZDC3OCW+K6OtBPKp9+rfRmUK21HdG
gDgTPRVEUqPswQcaftTZ4xU55qzI0M0WHxCSVdurZt7g9wxsFsQtJQJu2RwZmQut
g9yb/a2dTJCkavSEYqkbLSRIv8CKXzP8GaxXKGLnAo/wJRRMJ2F80xlzUEbwtuQn
nQodQfCcNCuGEHOnRdLnQTShwrEvjKEWJD3ZUmdYHG7IZn8CAwEAAaOBojCBnzAJ
BgNVHRMEAjAAMB0GA1UdDgQWBBQZzSn3S4RXj9ceJCblSdw0B2mPJTBRBgNVHSME
SjBIgBQ+p/Fz+RovBIU9JC71J0las+yyeaEapBgwFjEUMBIGA1UEAwwLdGVhbTQ3
Ny1uZXSCFCOsY7cspaxdRsCtkg+4WD0AJ0/cMBMGA1UdJQQMMAoGCCsGAQUFBwMC
MAsGA1UdDwQEAwIHgDANBgkqhkiG9w0BAQsFAAOCAQEARXXFEjlhFhxkzp0pKWQh
lyaIMMQLMhmHitAiZmHHvN2KGCV25D2b7o5UevnN8Uy04mJtHYDrMXyqRI30aKJt
MlfBeEeJpuTVgQjbITwNw1cE8rQX6QmgVQwIyzC7FLHaBJ2oyZA1zPgUP5RX++6I
gR+U2a4gZKF3bsm28DSYMlVAluuhQ3QRUkfVUWPc/Md0CY/YNF4AANZ6/UZ5uYno
mJ5Zmu4Fg0y3f33Vy6+9K3OWOHDkAx0gBhadGeNj4mVe4Gi8FNda//yirtjGj7kS
b0PpefoRMeXZXOYMfvNSAvk45vgaoPo9saVI50IH697ePISBg9Crd7N8S0H39qwj
sg==
-----END CERTIFICATE-----
