Certificate:
    Data:
        Version: 3 (0x2)
        Serial Number:
            fa:ec:d4:30:3a:2d:b3:5e:51:72:83:f3:23:25:bf:77
        Signature Algorithm: sha256WithRSAEncryption
        Issuer: CN=team477-net
        Validity
            Not Before: Nov  3 20:47:58 2023 GMT
            Not After : Oct 18 20:47:58 2026 GMT
        Subject: CN=team477-client
        Subject Public Key Info:
            Public Key Algorithm: rsaEncryption
                Public-Key: (2048 bit)
                Modulus:
                    00:c0:29:3d:e8:64:7a:59:50:fd:9e:0d:91:a9:0b:
                    ce:69:c7:3e:a3:e9:0c:1e:01:24:0e:d1:92:ab:35:
                    4f:ca:41:f8:f0:1c:ef:08:10:0a:2d:63:d5:a2:f9:
                    c8:cc:d9:eb:5b:e7:5c:e4:f5:41:d5:ef:ac:0f:1e:
                    da:97:60:fb:60:44:57:22:e2:3a:53:f3:8f:38:19:
                    4e:4e:73:21:c1:9c:6d:7b:3f:56:9b:10:d8:e2:02:
                    8e:30:4c:d3:9b:1b:e3:6e:22:6b:9c:2b:f0:68:1e:
                    03:de:63:a4:c0:a7:89:75:a0:78:a9:aa:42:5e:8b:
                    f5:c1:96:c9:99:30:40:49:0a:5f:c9:aa:cb:6d:47:
                    22:24:03:9c:7d:fe:ab:d0:d6:da:4c:1c:dd:d0:46:
                    35:66:d2:cd:bd:a1:4b:b7:c7:89:34:50:9b:9c:d8:
                    6c:8f:52:1a:e1:de:99:a0:98:fa:64:9a:a7:2c:09:
                    71:20:72:00:f9:27:94:05:73:b1:c9:c9:f3:65:b2:
                    94:17:74:c9:fd:5d:54:2a:a0:02:72:a7:08:be:a6:
                    ae:b0:4a:27:00:16:6e:a9:87:7a:36:e5:a8:4b:b5:
                    97:ad:79:52:79:da:93:71:44:55:93:50:9f:65:17:
                    d4:09:82:16:15:4c:10:2b:55:b5:71:69:1c:42:fa:
                    24:d7
                Exponent: 65537 (0x10001)
        X509v3 extensions:
            X509v3 Basic Constraints: 
                CA:FALSE
            X509v3 Subject Key Identifier: 
                CB:72:49:40:AA:8F:F4:09:EE:2B:78:78:A6:0B:90:41:19:FE:A3:44
            X509v3 Authority Key Identifier: 
                keyid:A0:2C:F5:AB:ED:CB:8E:35:46:F2:20:35:38:B9:C4:C7:DD:5E:64:47
                DirName:/CN=team477-net
                serial:40:B8:22:B7:FD:50:58:47:57:27:5A:D3:C3:11:38:AC:2D:07:82:2E
            X509v3 Extended Key Usage: 
                TLS Web Client Authentication
            X509v3 Key Usage: 
                Digital Signature
    Signature Algorithm: sha256WithRSAEncryption
    Signature Value:
        c1:7d:34:e1:ea:4e:e3:51:2a:9e:10:44:e6:8d:17:2f:15:bb:
        22:1d:c7:7d:ed:46:ed:80:54:77:44:c9:76:6f:5f:8d:fa:ce:
        eb:7f:ad:46:57:8a:9e:94:6d:90:a4:49:02:e7:b0:8d:9d:f7:
        26:9b:04:89:58:81:26:17:f4:e9:08:9e:3e:87:6e:f0:43:07:
        c0:4e:ac:47:cb:53:c4:99:79:5d:e7:e6:97:bd:33:41:a1:01:
        89:a7:48:f8:b3:61:b2:f1:f6:b5:72:77:00:e6:1f:fe:49:de:
        86:7d:ff:db:df:1a:f0:e4:ea:10:3c:e6:f9:cf:43:fb:4f:d7:
        82:0c:fd:9a:a2:d3:64:24:7a:97:be:e6:0c:3b:46:31:21:b0:
        e8:52:30:ca:ed:88:0f:02:bc:8d:52:54:ca:54:8a:da:fc:a3:
        46:4c:a3:b3:86:9d:79:b5:e6:8c:d2:9e:89:74:e9:4b:94:18:
        b3:2b:90:68:b1:b5:a5:af:fd:4c:23:b9:d8:ec:0c:a6:90:31:
        36:1a:19:73:d4:20:a5:30:65:60:a5:4e:a5:95:8a:11:62:30:
        96:db:65:f6:a3:07:5e:8c:c5:7e:97:f3:19:e0:27:4a:3d:ec:
        25:fd:d7:1d:ca:fd:00:8f:46:7a:45:fd:05:b9:8f:98:29:6d:
        33:ce:10:32
-----BEGIN CERTIFICATE-----
MIIDXTCCAkWgAwIBAgIRAPrs1DA6LbNeUXKD8yMlv3cwDQYJKoZIhvcNAQELBQAw
FjEUMBIGA1UEAwwLdGVhbTQ3Ny1uZXQwHhcNMjMxMTAzMjA0NzU4WhcNMjYxMDE4
MjA0NzU4WjAZMRcwFQYDVQQDDA50ZWFtNDc3LWNsaWVudDCCASIwDQYJKoZIhvcN
AQEBBQADggEPADCCAQoCggEBAMApPehkellQ/Z4NkakLzmnHPqPpDB4BJA7Rkqs1
T8pB+PAc7wgQCi1j1aL5yMzZ61vnXOT1QdXvrA8e2pdg+2BEVyLiOlPzjzgZTk5z
IcGcbXs/VpsQ2OICjjBM05sb424ia5wr8GgeA95jpMCniXWgeKmqQl6L9cGWyZkw
QEkKX8mqy21HIiQDnH3+q9DW2kwc3dBGNWbSzb2hS7fHiTRQm5zYbI9SGuHemaCY
+mSapywJcSByAPknlAVzscnJ82WylBd0yf1dVCqgAnKnCL6mrrBKJwAWbqmHejbl
qEu1l615Unnak3FEVZNQn2UX1AmCFhVMECtVtXFpHEL6JNcCAwEAAaOBojCBnzAJ
BgNVHRMEAjAAMB0GA1UdDgQWBBTLcklAqo/0Ce4reHimC5BBGf6jRDBRBgNVHSME
SjBIgBSgLPWr7cuONUbyIDU4ucTH3V5kR6EapBgwFjEUMBIGA1UEAwwLdGVhbTQ3
Ny1uZXSCFEC4Irf9UFhHVyda08MROKwtB4IuMBMGA1UdJQQMMAoGCCsGAQUFBwMC
MAsGA1UdDwQEAwIHgDANBgkqhkiG9w0BAQsFAAOCAQEAwX004epO41EqnhBE5o0X
LxW7Ih3Hfe1G7YBUd0TJdm9fjfrO63+tRleKnpRtkKRJAuewjZ33JpsEiViBJhf0
6QiePodu8EMHwE6sR8tTxJl5Xefml70zQaEBiadI+LNhsvH2tXJ3AOYf/knehn3/
298a8OTqEDzm+c9D+0/Xggz9mqLTZCR6l77mDDtGMSGw6FIwyu2IDwK8jVJUylSK
2vyjRkyjs4adebXmjNKeiXTpS5QYsyuQaLG1pa/9TCO52OwMppAxNhoZc9QgpTBl
YKVOpZWKEWIwlttl9qMHXozFfpfzGeAnSj3sJf3XHcr9AI9GekX9BbmPmCltM84Q
Mg==
-----END CERTIFICATE-----
