Certificate:
    Data:
        Version: 3 (0x2)
        Serial Number:
            01:2e:95:04:75:cf:8f:53:cc:17:47:b6:bf:47:c3:4e
        Signature Algorithm: sha256WithRSAEncryption
        Issuer: CN=team461-net
        Validity
            Not Before: Nov  4 10:48:49 2023 GMT
            Not After : Oct 19 10:48:49 2026 GMT
        Subject: CN=team461-client
        Subject Public Key Info:
            Public Key Algorithm: rsaEncryption
                Public-Key: (2048 bit)
                Modulus:
                    00:f4:05:3a:2c:dc:06:35:c5:03:72:51:86:be:a6:
                    3e:b9:93:18:25:33:10:34:ec:f6:b0:ca:d6:39:70:
                    8a:64:fe:3b:95:e0:8a:a8:ea:7c:0e:19:3c:93:29:
                    92:2d:34:fc:09:94:f4:25:42:76:11:4c:43:54:86:
                    67:10:24:8e:fa:3f:38:14:5d:01:91:be:0b:09:de:
                    35:10:01:5c:ed:fe:84:91:e5:a8:49:cb:72:90:d9:
                    1d:2d:9d:e7:51:41:44:6f:95:34:b2:8f:7f:32:ea:
                    67:80:40:d3:3d:7e:a6:ac:7f:f7:dd:8f:0d:92:ec:
                    03:69:c5:a4:29:6e:57:0e:91:a6:a6:66:04:13:9d:
                    16:5b:1a:85:0d:b9:2e:9a:4d:98:c9:15:d1:7f:1b:
                    b5:1b:fb:04:e7:86:83:77:0a:1a:a8:a0:5c:f9:b9:
                    15:08:ea:34:9f:64:30:19:3b:6c:2d:81:30:0e:6f:
                    a2:a6:36:17:9e:b6:b4:ca:d1:c2:9d:fe:cb:2a:c7:
                    f7:33:bd:51:8d:37:d3:f5:b2:9c:16:e2:e1:d6:5c:
                    44:72:f3:8a:6b:06:ef:b9:9e:b1:29:5c:c8:da:b6:
                    fa:8f:dd:8d:7b:a2:ce:e5:00:69:d6:ec:ad:a6:33:
                    c9:d3:32:f9:20:e5:a3:bc:cd:5e:30:85:1c:ff:c5:
                    30:c5
                Exponent: 65537 (0x10001)
        X509v3 extensions:
            X509v3 Basic Constraints: 
                CA:FALSE
            X509v3 Subject Key Identifier: 
                C9:86:41:E3:B0:99:01:DC:CC:D2:C7:A4:85:D7:28:6F:B0:6D:F7:CB
            X509v3 Authority Key Identifier: 
                keyid:0B:FA:F0:76:34:6F:73:7D:83:8B:92:FE:E3:E5:8F:34:03:1A:33:D3
                DirName:/CN=team461-net
                serial:38:E5:80:72:C4:C1:C8:B0:26:38:AE:0A:AA:C3:86:AE:12:F3:F0:88
            X509v3 Extended Key Usage: 
                TLS Web Client Authentication
            X509v3 Key Usage: 
                Digital Signature
    Signature Algorithm: sha256WithRSAEncryption
    Signature Value:
        09:d4:06:76:da:1c:54:57:17:2b:af:b0:69:0f:cc:da:41:29:
        c0:77:0e:dc:f2:dd:86:37:04:d3:2d:dc:3f:69:08:e2:60:2e:
        a4:7c:46:9a:e6:b5:5e:86:53:2f:f7:97:b1:21:40:51:56:19:
        7c:f2:83:f9:7c:99:e4:c6:40:66:4d:fe:18:89:f1:f8:2f:26:
        cc:95:81:a6:0f:35:3d:8d:e7:cd:95:dc:e1:9e:70:c7:11:19:
        80:35:bd:96:0f:41:4b:9d:06:99:81:5b:ad:ab:f4:dd:d4:72:
        3e:3c:14:ad:57:0c:d0:25:f3:72:45:86:d7:e1:78:ec:72:dc:
        24:fb:2b:ae:90:42:24:0e:e3:c0:08:fd:e3:46:ac:8b:f1:43:
        b8:2c:78:d0:9a:98:57:c1:8e:ff:36:76:d7:94:70:a9:df:ce:
        ff:3d:cc:80:b4:d7:b4:7f:9b:88:af:64:16:1b:a0:1c:5d:69:
        91:1f:31:a9:ff:5f:88:b6:9e:bc:9c:d8:75:d0:48:c2:17:25:
        b6:10:89:ff:f3:99:10:b2:7b:4e:64:03:96:a8:5b:8b:1e:b4:
        a9:4d:36:43:6a:55:54:69:2c:12:6f:10:f7:ec:3d:e1:32:17:
        99:15:f9:bd:57:0e:b8:45:16:ea:9f:23:a9:0f:a5:83:3b:e9:
        24:29:0f:4d
-----BEGIN CERTIFICATE-----
MIIDXDCCAkSgAwIBAgIQAS6VBHXPj1PMF0e2v0fDTjANBgkqhkiG9w0BAQsFADAW
MRQwEgYDVQQDDAt0ZWFtNDYxLW5ldDAeFw0yMzExMDQxMDQ4NDlaFw0yNjEwMTkx
MDQ4NDlaMBkxFzAVBgNVBAMMDnRlYW00NjEtY2xpZW50MIIBIjANBgkqhkiG9w0B
AQEFAAOCAQ8AMIIBCgKCAQEA9AU6LNwGNcUDclGGvqY+uZMYJTMQNOz2sMrWOXCK
ZP47leCKqOp8Dhk8kymSLTT8CZT0JUJ2EUxDVIZnECSO+j84FF0Bkb4LCd41EAFc
7f6EkeWoSctykNkdLZ3nUUFEb5U0so9/MupngEDTPX6mrH/33Y8NkuwDacWkKW5X
DpGmpmYEE50WWxqFDbkumk2YyRXRfxu1G/sE54aDdwoaqKBc+bkVCOo0n2QwGTts
LYEwDm+ipjYXnra0ytHCnf7LKsf3M71RjTfT9bKcFuLh1lxEcvOKawbvuZ6xKVzI
2rb6j92Ne6LO5QBp1uytpjPJ0zL5IOWjvM1eMIUc/8UwxQIDAQABo4GiMIGfMAkG
A1UdEwQCMAAwHQYDVR0OBBYEFMmGQeOwmQHczNLHpIXXKG+wbffLMFEGA1UdIwRK
MEiAFAv68HY0b3N9g4uS/uPljzQDGjPToRqkGDAWMRQwEgYDVQQDDAt0ZWFtNDYx
LW5ldIIUOOWAcsTByLAmOK4KqsOGrhLz8IgwEwYDVR0lBAwwCgYIKwYBBQUHAwIw
CwYDVR0PBAQDAgeAMA0GCSqGSIb3DQEBCwUAA4IBAQAJ1AZ22hxUVxcrr7BpD8za
QSnAdw7c8t2GNwTTLdw/aQjiYC6kfEaa5rVehlMv95exIUBRVhl88oP5fJnkxkBm
Tf4YifH4LybMlYGmDzU9jefNldzhnnDHERmANb2WD0FLnQaZgVutq/Td1HI+PBSt
VwzQJfNyRYbX4Xjsctwk+yuukEIkDuPACP3jRqyL8UO4LHjQmphXwY7/NnbXlHCp
387/PcyAtNe0f5uIr2QWG6AcXWmRHzGp/1+Itp68nNh10EjCFyW2EIn/85kQsntO
ZAOWqFuLHrSpTTZDalVUaSwSbxD37D3hMheZFfm9Vw64RRbqnyOpD6WDO+kkKQ9N
-----END CERTIFICATE-----
