Certificate:
    Data:
        Version: 3 (0x2)
        Serial Number:
            03:9d:76:1c:52:ff:7f:0b:ba:22:8b:c3:c9:f4:0f:22
        Signature Algorithm: sha256WithRSAEncryption
        Issuer: CN=team461-net
        Validity
            Not Before: Nov  4 11:37:53 2023 GMT
            Not After : Oct 19 11:37:53 2026 GMT
        Subject: CN=team461-client
        Subject Public Key Info:
            Public Key Algorithm: rsaEncryption
                Public-Key: (2048 bit)
                Modulus:
                    00:df:5c:c3:81:e3:6e:da:11:b9:d2:03:3a:46:ab:
                    5b:a9:af:a3:c4:34:c4:f4:e9:4e:3a:ef:c8:20:38:
                    88:2b:d4:32:59:66:d3:a6:dd:a9:1a:0f:5f:fc:87:
                    c2:fa:8e:22:ba:ed:b7:15:d0:c4:92:ab:c1:4e:7b:
                    27:73:42:97:26:1a:bc:0b:99:b1:42:31:98:12:7c:
                    46:e9:83:b3:95:06:49:e6:ea:40:50:59:5f:63:10:
                    64:d6:ba:cf:ad:fa:5c:c8:89:a4:7c:76:c3:ad:92:
                    6d:75:95:84:4f:9e:99:68:58:cf:53:09:2d:7a:82:
                    59:b6:73:a3:f6:c3:75:74:95:fa:0e:1b:30:63:7c:
                    14:d4:42:36:78:fe:72:6d:70:8c:ee:0c:a4:bb:db:
                    4f:88:e7:45:91:e7:ca:00:6c:ff:12:9e:f9:90:0e:
                    41:7d:e5:1c:66:af:5a:22:40:76:50:6a:43:29:1e:
                    10:73:bb:85:88:96:1c:50:a8:77:98:02:75:37:4b:
                    e9:76:8f:08:70:cc:1d:09:b7:7c:b8:c9:40:cf:76:
                    60:86:3e:bb:e9:aa:e4:74:fb:c4:a2:34:0c:65:1d:
                    59:95:0b:23:0d:e9:36:99:ff:98:43:d5:e9:98:8e:
                    e8:10:9c:b6:cb:94:d3:20:88:28:47:c0:42:5b:e5:
                    ac:eb
                Exponent: 65537 (0x10001)
        X509v3 extensions:
            X509v3 Basic Constraints: 
                CA:FALSE
            X509v3 Subject Key Identifier: 
                BE:B3:D9:D1:8E:93:81:65:1C:59:32:E7:C9:FC:E6:14:18:E3:EE:25
            X509v3 Authority Key Identifier: 
                keyid:74:8C:0F:FD:35:2E:77:A3:B5:55:C3:60:43:E1:C9:A3:0D:2F:54:88
                DirName:/CN=team461-net
                serial:7A:3A:F7:8F:1E:11:E3:2B:8D:08:47:D1:9B:4D:4B:E1:92:2E:4F:3D
            X509v3 Extended Key Usage: 
                TLS Web Client Authentication
            X509v3 Key Usage: 
                Digital Signature
    Signature Algorithm: sha256WithRSAEncryption
    Signature Value:
        77:8b:fc:b3:dc:05:33:5f:f2:d7:b3:90:4a:8a:7f:19:0e:68:
        e9:87:0e:b9:8e:c2:89:9a:0e:cd:f8:83:5c:01:aa:25:2e:3d:
        43:be:6d:ca:11:e6:77:d4:62:b6:ee:80:9f:bb:57:d0:ae:40:
        a7:af:10:86:18:62:68:b3:60:b8:cf:2a:cd:2a:2c:67:86:31:
        49:d7:68:5e:d2:55:2e:a4:05:76:67:e6:b5:e5:0c:4d:02:84:
        57:02:90:8c:af:6f:d7:bf:a2:17:f6:da:4f:0d:a1:78:53:a4:
        f1:5f:64:a8:31:20:3d:ff:b9:b4:64:87:ae:05:14:9f:04:f4:
        bf:a2:f9:3d:39:37:30:9f:3e:43:f3:e5:16:54:40:8a:f3:9f:
        50:c3:b8:2f:2b:3d:1d:61:f8:11:37:19:66:8a:68:fe:fe:51:
        3f:c1:f7:dd:1c:e2:a5:e8:37:bc:54:21:25:07:bf:57:71:8f:
        f1:d3:54:6a:0f:03:9b:37:17:cc:bb:3c:86:72:88:65:01:e8:
        9c:81:c1:79:77:d9:25:5d:c8:46:34:13:6f:ce:ad:a7:00:ae:
        9f:55:f3:58:63:76:ae:d8:66:58:32:5b:62:67:ae:9d:a2:86:
        b9:fd:ea:79:0e:51:2b:8f:74:4f:4b:7b:6f:28:6f:91:36:a3:
        60:ba:48:e1
-----BEGIN CERTIFICATE-----
MIIDXDCCAkSgAwIBAgIQA512HFL/fwu6IovDyfQPIjANBgkqhkiG9w0BAQsFADAW
MRQwEgYDVQQDDAt0ZWFtNDYxLW5ldDAeFw0yMzExMDQxMTM3NTNaFw0yNjEwMTkx
MTM3NTNaMBkxFzAVBgNVBAMMDnRlYW00NjEtY2xpZW50MIIBIjANBgkqhkiG9w0B
AQEFAAOCAQ8AMIIBCgKCAQEA31zDgeNu2hG50gM6Rqtbqa+jxDTE9OlOOu/IIDiI
K9QyWWbTpt2pGg9f/IfC+o4iuu23FdDEkqvBTnsnc0KXJhq8C5mxQjGYEnxG6YOz
lQZJ5upAUFlfYxBk1rrPrfpcyImkfHbDrZJtdZWET56ZaFjPUwkteoJZtnOj9sN1
dJX6DhswY3wU1EI2eP5ybXCM7gyku9tPiOdFkefKAGz/Ep75kA5BfeUcZq9aIkB2
UGpDKR4Qc7uFiJYcUKh3mAJ1N0vpdo8IcMwdCbd8uMlAz3Zghj676arkdPvEojQM
ZR1ZlQsjDek2mf+YQ9XpmI7oEJy2y5TTIIgoR8BCW+Ws6wIDAQABo4GiMIGfMAkG
A1UdEwQCMAAwHQYDVR0OBBYEFL6z2dGOk4FlHFky58n85hQY4+4lMFEGA1UdIwRK
MEiAFHSMD/01LnejtVXDYEPhyaMNL1SIoRqkGDAWMRQwEgYDVQQDDAt0ZWFtNDYx
LW5ldIIUejr3jx4R4yuNCEfRm01L4ZIuTz0wEwYDVR0lBAwwCgYIKwYBBQUHAwIw
CwYDVR0PBAQDAgeAMA0GCSqGSIb3DQEBCwUAA4IBAQB3i/yz3AUzX/LXs5BKin8Z
Dmjphw65jsKJmg7N+INcAaolLj1Dvm3KEeZ31GK27oCfu1fQrkCnrxCGGGJos2C4
zyrNKixnhjFJ12he0lUupAV2Z+a15QxNAoRXApCMr2/Xv6IX9tpPDaF4U6TxX2So
MSA9/7m0ZIeuBRSfBPS/ovk9OTcwnz5D8+UWVECK859Qw7gvKz0dYfgRNxlmimj+
/lE/wffdHOKl6De8VCElB79XcY/x01RqDwObNxfMuzyGcohlAeicgcF5d9klXchG
NBNvzq2nAK6fVfNYY3au2GZYMltiZ66dooa5/ep5DlErj3RPS3tvKG+RNqNgukjh
-----END CERTIFICATE-----
