Certificate:
    Data:
        Version: 3 (0x2)
        Serial Number:
            57:db:a4:ec:14:a5:1a:a9:38:fb:10:26:1e:07:9b:97
        Signature Algorithm: sha256WithRSAEncryption
        Issuer: CN=team461-net
        Validity
            Not Before: Nov  4 10:48:49 2023 GMT
            Not After : Oct 19 10:48:49 2026 GMT
        Subject: CN=team461-server
        Subject Public Key Info:
            Public Key Algorithm: rsaEncryption
                Public-Key: (2048 bit)
                Modulus:
                    00:a8:05:4c:ab:39:af:04:67:d2:97:d5:cc:58:d7:
                    9a:d9:38:ab:6f:e8:93:3b:8a:55:47:f9:d0:1c:55:
                    39:6d:64:a5:b1:a8:95:1d:32:30:6c:58:48:28:83:
                    3e:8a:79:d6:6c:ae:d9:2e:39:63:7e:fd:bd:1f:08:
                    13:60:90:a5:76:f3:2b:5e:99:28:0a:ce:59:44:f7:
                    1e:94:ff:fd:0e:04:01:4a:26:4a:a4:fd:ce:9b:85:
                    ea:c7:d3:e5:3c:b4:be:0a:92:7b:71:e6:39:85:f1:
                    f8:6a:78:0f:4e:30:3f:d0:8b:46:77:67:1c:e2:c1:
                    dd:25:3c:2f:c1:89:85:ec:21:31:e8:e7:54:89:d6:
                    13:e5:af:07:ae:e4:23:84:8b:ca:79:4c:3c:50:6b:
                    66:24:fa:fa:4a:54:51:df:38:10:1c:28:c2:3c:e1:
                    75:e4:1c:53:95:46:16:51:0d:0e:3b:fe:00:1f:8a:
                    8e:5a:80:d0:bb:d8:ec:84:e7:b9:0b:c5:a1:b9:44:
                    ba:5d:ab:ce:ad:8c:62:4e:4d:20:a1:0c:ba:f7:c6:
                    6a:07:0e:03:34:6c:ea:54:73:37:29:f7:65:b4:5a:
                    fc:12:60:b0:99:41:53:7a:bd:54:2e:d6:76:93:d1:
                    be:21:cf:03:4e:e6:88:91:8d:64:37:55:74:f0:ce:
                    03:dd
                Exponent: 65537 (0x10001)
        X509v3 extensions:
            X509v3 Basic Constraints: 
                CA:FALSE
            X509v3 Subject Key Identifier: 
                1D:2D:64:0D:56:8F:A5:00:BB:A7:00:90:A5:23:9D:16:C7:27:C4:88
            X509v3 Authority Key Identifier: 
                keyid:0B:FA:F0:76:34:6F:73:7D:83:8B:92:FE:E3:E5:8F:34:03:1A:33:D3
                DirName:/CN=team461-net
                serial:38:E5:80:72:C4:C1:C8:B0:26:38:AE:0A:AA:C3:86:AE:12:F3:F0:88
            X509v3 Extended Key Usage: 
                TLS Web Server Authentication
            X509v3 Key Usage: 
                Digital Signature, Key Encipherment
            X509v3 Subject Alternative Name: 
                DNS:team461-server
    Signature Algorithm: sha256WithRSAEncryption
    Signature Value:
        53:3b:1f:6c:30:8f:e7:0b:e4:ca:25:c2:ac:6f:44:ae:8f:1e:
        84:fe:a1:17:d1:dc:da:e2:5c:c7:4f:a6:59:a3:54:35:d0:40:
        85:b4:70:a3:64:b4:1b:c4:fc:b0:fb:f4:b6:e3:25:ed:cb:63:
        f0:8c:10:56:87:c6:e8:e8:b3:12:4c:81:f5:ca:f5:cc:22:d3:
        ac:55:08:fb:bd:ff:99:1b:56:3f:a2:df:c0:40:29:1d:d9:35:
        bf:75:5d:1f:53:cc:fc:1a:c4:6b:24:c4:38:80:c9:bf:ba:2d:
        da:78:85:75:6b:7b:3c:e7:17:fa:47:4f:f4:12:f3:ab:70:7a:
        79:d2:6d:3e:7d:c0:02:f2:1f:98:ad:54:36:c7:c3:e5:ca:6a:
        88:fc:a4:57:40:bc:05:a9:0b:96:e0:06:5a:b5:d8:b8:97:5b:
        9b:a0:7e:bc:5e:4b:66:9b:4c:19:82:92:8f:2d:1b:c8:aa:f6:
        6b:27:d9:77:49:61:d7:5d:9b:67:6a:05:ea:ac:eb:03:0a:20:
        f1:af:b6:e3:4e:d3:3c:8a:a3:c6:23:95:2f:1b:91:71:1a:4c:
        ba:7c:70:0b:b5:32:c0:b6:1a:e1:eb:c1:8b:5b:26:d5:79:12:
        c6:d6:62:c4:2e:fd:3e:90:20:1d:89:67:5c:5c:e7:c7:34:ca:
        28:98:b7:aa
-----BEGIN CERTIFICATE-----
MIIDdzCCAl+gAwIBAgIQV9uk7BSlGqk4+xAmHgeblzANBgkqhkiG9w0BAQsFADAW
MRQwEgYDVQQDDAt0ZWFtNDYxLW5ldDAeFw0yMzExMDQxMDQ4NDlaFw0yNjEwMTkx
MDQ4NDlaMBkxFzAVBgNVBAMMDnRlYW00NjEtc2VydmVyMIIBIjANBgkqhkiG9w0B
AQEFAAOCAQ8AMIIBCgKCAQEAqAVMqzmvBGfSl9XMWNea2Tirb+iTO4pVR/nQHFU5
bWSlsaiVHTIwbFhIKIM+innWbK7ZLjljfv29HwgTYJCldvMrXpkoCs5ZRPcelP/9
DgQBSiZKpP3Om4Xqx9PlPLS+CpJ7ceY5hfH4angPTjA/0ItGd2cc4sHdJTwvwYmF
7CEx6OdUidYT5a8HruQjhIvKeUw8UGtmJPr6SlRR3zgQHCjCPOF15BxTlUYWUQ0O
O/4AH4qOWoDQu9jshOe5C8WhuUS6XavOrYxiTk0goQy698ZqBw4DNGzqVHM3Kfdl
tFr8EmCwmUFTer1ULtZ2k9G+Ic8DTuaIkY1kN1V08M4D3QIDAQABo4G9MIG6MAkG
A1UdEwQCMAAwHQYDVR0OBBYEFB0tZA1Wj6UAu6cAkKUjnRbHJ8SIMFEGA1UdIwRK
MEiAFAv68HY0b3N9g4uS/uPljzQDGjPToRqkGDAWMRQwEgYDVQQDDAt0ZWFtNDYx
LW5ldIIUOOWAcsTByLAmOK4KqsOGrhLz8IgwEwYDVR0lBAwwCgYIKwYBBQUHAwEw
CwYDVR0PBAQDAgWgMBkGA1UdEQQSMBCCDnRlYW00NjEtc2VydmVyMA0GCSqGSIb3
DQEBCwUAA4IBAQBTOx9sMI/nC+TKJcKsb0Sujx6E/qEX0dza4lzHT6ZZo1Q10ECF
tHCjZLQbxPyw+/S24yXty2PwjBBWh8bo6LMSTIH1yvXMItOsVQj7vf+ZG1Y/ot/A
QCkd2TW/dV0fU8z8GsRrJMQ4gMm/ui3aeIV1a3s85xf6R0/0EvOrcHp50m0+fcAC
8h+YrVQ2x8PlymqI/KRXQLwFqQuW4AZatdi4l1uboH68Xktmm0wZgpKPLRvIqvZr
J9l3SWHXXZtnagXqrOsDCiDxr7bjTtM8iqPGI5UvG5FxGky6fHALtTLAthrh68GL
WybVeRLG1mLELv0+kCAdiWdcXOfHNMoomLeq
-----END CERTIFICATE-----
