Certificate:
    Data:
        Version: 3 (0x2)
        Serial Number:
            22:94:5c:12:ea:e7:11:6d:27:59:e5:9d:3e:6f:33:94
        Signature Algorithm: sha256WithRSAEncryption
        Issuer: CN=team147-net
        Validity
            Not Before: Nov  4 11:30:28 2023 GMT
            Not After : Oct 19 11:30:28 2026 GMT
        Subject: CN=team147-server
        Subject Public Key Info:
            Public Key Algorithm: rsaEncryption
                Public-Key: (2048 bit)
                Modulus:
                    00:a4:32:dd:18:b6:f3:5f:a2:d8:15:53:75:30:25:
                    31:1e:3b:9d:46:68:c7:cc:d9:ec:49:d2:4f:71:b3:
                    e6:bc:9c:45:17:79:46:55:ad:65:f6:b7:5b:27:62:
                    28:d2:d6:5d:28:4c:e7:cb:03:9b:fb:4f:47:a6:5d:
                    91:b1:51:cf:6c:ab:8f:0b:4f:62:14:98:9e:45:04:
                    f1:a7:61:4a:7d:7d:7c:0e:7b:f9:9c:68:3a:8d:ff:
                    5e:ca:03:30:f1:6c:a7:ec:39:15:36:b0:a7:bd:29:
                    f0:66:dc:fd:ef:a3:a0:04:54:bb:7e:95:7e:63:3c:
                    44:2e:7a:f0:5c:ae:08:be:f3:27:ba:ff:d8:3c:e0:
                    16:83:8e:f9:97:96:0e:69:d2:c8:ff:64:50:4a:03:
                    c4:a2:51:26:49:e3:db:af:4c:60:04:18:5c:5b:f2:
                    26:f4:f6:ff:5c:a7:5a:c6:71:16:83:7a:d2:11:8a:
                    87:93:49:87:af:56:e3:9e:94:76:4c:58:15:36:11:
                    b7:e2:55:cb:c3:68:df:40:8b:1b:e8:37:30:65:34:
                    99:47:3b:dc:64:d3:69:80:c2:f4:54:c4:df:b6:a6:
                    84:a4:83:86:e2:78:16:6c:d1:35:95:95:89:c7:78:
                    8c:d5:7e:c0:77:7a:3b:2b:17:d0:7a:9f:04:ad:30:
                    d5:1d
                Exponent: 65537 (0x10001)
        X509v3 extensions:
            X509v3 Basic Constraints: 
                CA:FALSE
            X509v3 Subject Key Identifier: 
                3C:44:C5:BC:40:48:5B:5C:63:80:7C:3F:1A:06:3D:69:C9:BF:A8:71
            X509v3 Authority Key Identifier: 
                keyid:88:61:FA:8D:AB:A7:4B:A5:71:3D:CA:B7:D6:CC:60:39:8C:FC:43:17
                DirName:/CN=team147-net
                serial:29:9F:0B:10:24:20:FA:E1:D4:BB:F9:EE:BC:6A:06:03:E3:EA:C1:93
            X509v3 Extended Key Usage: 
                TLS Web Server Authentication
            X509v3 Key Usage: 
                Digital Signature, Key Encipherment
            X509v3 Subject Alternative Name: 
                DNS:team147-server
    Signature Algorithm: sha256WithRSAEncryption
    Signature Value:
        b3:e6:53:ac:27:03:09:a0:89:44:47:4e:d5:56:cc:54:65:43:
        d6:dc:72:9e:d1:01:8c:1c:ed:02:0e:88:77:6f:68:71:c4:ca:
        7f:58:69:e8:ca:65:2d:0c:92:ad:34:51:80:c0:47:da:da:db:
        83:5a:58:e2:b3:c9:d3:4e:6a:7d:14:f4:92:e3:9f:c0:2c:cc:
        9f:54:3c:b9:8d:af:cc:9e:bb:4f:65:de:9d:80:7f:c0:13:6c:
        87:95:bc:5b:a5:1f:04:f3:7a:ef:44:a1:d3:31:be:0c:15:30:
        93:47:05:af:e6:c8:13:c9:30:da:d0:70:b2:62:46:ff:d5:8d:
        48:ed:e7:08:38:6b:ed:4d:ce:2f:b0:df:e2:d0:cf:c1:4f:72:
        4f:57:d2:fb:0e:a4:3a:a0:c5:60:f5:80:f7:5d:5e:c6:e7:a2:
        27:5a:6a:a8:26:18:9b:06:3b:d8:35:e6:08:cf:78:53:5b:9a:
        47:de:27:e0:95:3d:1f:d2:39:0b:2a:02:03:67:d9:aa:06:26:
        ec:24:a9:c9:10:30:62:04:6b:6c:f5:cb:ae:11:2b:01:c7:ff:
        84:46:f9:1e:39:05:57:a9:f4:62:6d:b1:07:18:92:87:d0:bc:
        aa:cc:55:8c:27:be:95:09:c5:f0:84:82:98:f1:ea:74:ac:be:
        fd:e1:98:88
-----BEGIN CERTIFICATE-----
MIIDdzCCAl+gAwIBAgIQIpRcEurnEW0nWeWdPm8zlDANBgkqhkiG9w0BAQsFADAW
MRQwEgYDVQQDDAt0ZWFtMTQ3LW5ldDAeFw0yMzExMDQxMTMwMjhaFw0yNjEwMTkx
MTMwMjhaMBkxFzAVBgNVBAMMDnRlYW0xNDctc2VydmVyMIIBIjANBgkqhkiG9w0B
AQEFAAOCAQ8AMIIBCgKCAQEApDLdGLbzX6LYFVN1MCUxHjudRmjHzNnsSdJPcbPm
vJxFF3lGVa1l9rdbJ2Io0tZdKEznywOb+09Hpl2RsVHPbKuPC09iFJieRQTxp2FK
fX18Dnv5nGg6jf9eygMw8Wyn7DkVNrCnvSnwZtz976OgBFS7fpV+YzxELnrwXK4I
vvMnuv/YPOAWg475l5YOadLI/2RQSgPEolEmSePbr0xgBBhcW/Im9Pb/XKdaxnEW
g3rSEYqHk0mHr1bjnpR2TFgVNhG34lXLw2jfQIsb6DcwZTSZRzvcZNNpgML0VMTf
tqaEpIOG4ngWbNE1lZWJx3iM1X7Ad3o7KxfQep8ErTDVHQIDAQABo4G9MIG6MAkG
A1UdEwQCMAAwHQYDVR0OBBYEFDxExbxASFtcY4B8PxoGPWnJv6hxMFEGA1UdIwRK
MEiAFIhh+o2rp0ulcT3Kt9bMYDmM/EMXoRqkGDAWMRQwEgYDVQQDDAt0ZWFtMTQ3
LW5ldIIUKZ8LECQg+uHUu/nuvGoGA+PqwZMwEwYDVR0lBAwwCgYIKwYBBQUHAwEw
CwYDVR0PBAQDAgWgMBkGA1UdEQQSMBCCDnRlYW0xNDctc2VydmVyMA0GCSqGSIb3
DQEBCwUAA4IBAQCz5lOsJwMJoIlER07VVsxUZUPW3HKe0QGMHO0CDoh3b2hxxMp/
WGnoymUtDJKtNFGAwEfa2tuDWljis8nTTmp9FPSS45/ALMyfVDy5ja/MnrtPZd6d
gH/AE2yHlbxbpR8E83rvRKHTMb4MFTCTRwWv5sgTyTDa0HCyYkb/1Y1I7ecIOGvt
Tc4vsN/i0M/BT3JPV9L7DqQ6oMVg9YD3XV7G56InWmqoJhibBjvYNeYIz3hTW5pH
3ifglT0f0jkLKgIDZ9mqBibsJKnJEDBiBGts9cuuESsBx/+ERvkeOQVXqfRibbEH
GJKH0LyqzFWMJ76VCcXwhIKY8ep0rL794ZiI
-----END CERTIFICATE-----
