Certificate:
    Data:
        Version: 3 (0x2)
        Serial Number:
            81:24:13:05:3a:68:c9:8a:33:8f:78:70:46:31:05:38
        Signature Algorithm: sha256WithRSAEncryption
        Issuer: CN=team147-net
        Validity
            Not Before: Nov  4 10:43:16 2023 GMT
            Not After : Oct 19 10:43:16 2026 GMT
        Subject: CN=team147-client
        Subject Public Key Info:
            Public Key Algorithm: rsaEncryption
                Public-Key: (2048 bit)
                Modulus:
                    00:da:b5:49:ac:22:27:74:19:25:56:72:28:f8:91:
                    5d:c6:70:d7:8a:45:97:83:ca:6d:ae:b1:39:be:75:
                    43:29:f2:e7:0c:d0:2e:6f:7b:01:53:f5:80:25:58:
                    c2:23:85:1c:53:4a:33:74:a3:c2:3f:55:4a:11:4e:
                    44:9a:47:c5:1a:6d:c8:96:78:00:fe:d1:e8:53:92:
                    0b:39:2b:c4:a5:28:77:c4:81:1b:77:a0:58:ef:a5:
                    6e:98:fd:a5:33:5c:49:10:d6:45:51:ad:39:1c:5b:
                    b6:5e:57:52:22:88:63:95:11:85:7b:05:ab:21:b1:
                    08:d1:da:32:34:61:4f:95:ec:dd:66:a2:e0:ed:e0:
                    ec:60:fb:eb:94:dd:db:31:d0:37:d9:dd:21:e0:ad:
                    81:ed:84:0e:31:7f:88:a0:90:a7:9a:92:e7:85:a3:
                    df:39:e5:85:1e:a7:3b:2c:81:04:ec:81:23:02:60:
                    eb:ed:b5:d1:d9:2b:bd:84:78:16:93:5c:e0:0d:08:
                    4e:bf:5b:6d:65:cb:40:1d:3d:6f:ec:54:f8:b5:79:
                    5d:87:ea:0c:36:e0:cb:51:a6:54:ba:bd:81:f9:6c:
                    c5:01:3f:b6:5f:7b:ce:84:2e:17:c4:06:f3:9d:ed:
                    bf:ec:9d:df:2b:f7:9c:27:ad:91:7b:7d:17:60:51:
                    a8:8d
                Exponent: 65537 (0x10001)
        X509v3 extensions:
            X509v3 Basic Constraints: 
                CA:FALSE
            X509v3 Subject Key Identifier: 
                1D:05:98:30:13:A2:41:17:21:D0:EE:40:BA:80:18:F9:BB:5F:EC:8A
            X509v3 Authority Key Identifier: 
                keyid:D6:94:F2:1C:03:65:40:07:C2:16:A7:EF:8E:B8:AA:97:FF:90:A3:BD
                DirName:/CN=team147-net
                serial:50:BD:D2:9E:61:F5:95:C8:C4:13:CA:73:56:A0:99:FA:C5:53:76:65
            X509v3 Extended Key Usage: 
                TLS Web Client Authentication
            X509v3 Key Usage: 
                Digital Signature
    Signature Algorithm: sha256WithRSAEncryption
    Signature Value:
        69:bf:45:5f:13:a8:50:3d:11:58:7f:67:65:05:59:f1:6f:3a:
        37:f2:9c:1a:d9:aa:10:41:d8:04:f5:71:c8:94:9a:f3:97:8b:
        b3:74:d4:0a:75:a4:59:97:d0:d9:30:19:d1:39:7b:5e:2f:b0:
        28:d1:ed:f4:d8:42:23:f3:c9:8d:82:81:d2:1a:cb:7c:39:fb:
        db:81:59:96:2b:d9:bf:eb:28:69:2c:4a:89:67:1f:4e:c2:c2:
        fa:e7:76:ff:19:be:52:02:53:0e:64:35:5d:88:77:c5:3d:2c:
        95:b4:d6:55:25:ab:0d:79:0b:af:1e:67:75:ab:4b:06:a0:97:
        71:98:0a:10:c1:3f:e9:41:7e:a4:01:0d:04:d2:a1:df:41:b0:
        c1:dd:f7:e3:72:08:ae:6e:ef:98:ae:7c:07:7e:76:43:60:0b:
        21:cc:93:28:87:2b:d6:b4:5b:f9:82:fa:c9:f8:6f:9b:ca:86:
        10:71:46:ce:04:81:54:88:a2:a0:7b:c0:29:ad:4f:f5:1e:28:
        fe:b7:c8:70:91:6f:92:63:2f:f2:c9:08:b8:25:32:9f:0e:6e:
        d1:a8:1a:ab:90:50:6f:f1:e4:b2:fa:9c:b4:c7:fc:45:e4:84:
        bf:6a:ae:f6:8b:b1:ff:d8:b7:f2:2c:55:f6:a2:4a:01:6e:d1:
        9f:d0:c9:6e
-----BEGIN CERTIFICATE-----
MIIDXTCCAkWgAwIBAgIRAIEkEwU6aMmKM494cEYxBTgwDQYJKoZIhvcNAQELBQAw
FjEUMBIGA1UEAwwLdGVhbTE0Ny1uZXQwHhcNMjMxMTA0MTA0MzE2WhcNMjYxMDE5
MTA0MzE2WjAZMRcwFQYDVQQDDA50ZWFtMTQ3LWNsaWVudDCCASIwDQYJKoZIhvcN
AQEBBQADggEPADCCAQoCggEBANq1SawiJ3QZJVZyKPiRXcZw14pFl4PKba6xOb51
Qyny5wzQLm97AVP1gCVYwiOFHFNKM3Sjwj9VShFORJpHxRptyJZ4AP7R6FOSCzkr
xKUod8SBG3egWO+lbpj9pTNcSRDWRVGtORxbtl5XUiKIY5URhXsFqyGxCNHaMjRh
T5Xs3Wai4O3g7GD765Td2zHQN9ndIeCtge2EDjF/iKCQp5qS54Wj3znlhR6nOyyB
BOyBIwJg6+210dkrvYR4FpNc4A0ITr9bbWXLQB09b+xU+LV5XYfqDDbgy1GmVLq9
gflsxQE/tl97zoQuF8QG853tv+yd3yv3nCetkXt9F2BRqI0CAwEAAaOBojCBnzAJ
BgNVHRMEAjAAMB0GA1UdDgQWBBQdBZgwE6JBFyHQ7kC6gBj5u1/sijBRBgNVHSME
SjBIgBTWlPIcA2VAB8IWp++OuKqX/5CjvaEapBgwFjEUMBIGA1UEAwwLdGVhbTE0
Ny1uZXSCFFC90p5h9ZXIxBPKc1agmfrFU3ZlMBMGA1UdJQQMMAoGCCsGAQUFBwMC
MAsGA1UdDwQEAwIHgDANBgkqhkiG9w0BAQsFAAOCAQEAab9FXxOoUD0RWH9nZQVZ
8W86N/KcGtmqEEHYBPVxyJSa85eLs3TUCnWkWZfQ2TAZ0Tl7Xi+wKNHt9NhCI/PJ
jYKB0hrLfDn724FZlivZv+soaSxKiWcfTsLC+ud2/xm+UgJTDmQ1XYh3xT0slbTW
VSWrDXkLrx5ndatLBqCXcZgKEME/6UF+pAENBNKh30Gwwd3343IIrm7vmK58B352
Q2ALIcyTKIcr1rRb+YL6yfhvm8qGEHFGzgSBVIiioHvAKa1P9R4o/rfIcJFvkmMv
8skIuCUynw5u0agaq5BQb/HksvqctMf8ReSEv2qu9oux/9i38ixV9qJKAW7Rn9DJ
bg==
-----END CERTIFICATE-----
