Certificate:
    Data:
        Version: 3 (0x2)
        Serial Number:
            e7:ce:90:79:4e:3b:7f:86:d9:21:2d:81:48:29:d0:d5
        Signature Algorithm: sha256WithRSAEncryption
        Issuer: CN=team147-net
        Validity
            Not Before: Nov  4 10:43:16 2023 GMT
            Not After : Oct 19 10:43:16 2026 GMT
        Subject: CN=team147-server
        Subject Public Key Info:
            Public Key Algorithm: rsaEncryption
                Public-Key: (2048 bit)
                Modulus:
                    00:98:68:bb:19:20:fd:d4:bb:bc:2f:7c:cb:17:36:
                    9a:5a:7b:f8:4f:74:65:c7:a6:a0:ac:16:fc:7c:c2:
                    ef:58:37:c5:e9:f3:7e:66:d2:fc:41:5a:d1:e0:ac:
                    2d:5c:58:88:41:e6:34:ae:7c:da:c4:91:16:2d:03:
                    d5:bb:f5:b7:cd:8d:d4:c4:86:22:57:18:1f:69:59:
                    ad:3e:5e:bb:fb:43:e0:57:77:02:c1:4b:07:59:3c:
                    28:35:3c:93:20:bf:ea:fb:76:de:07:71:73:e1:e6:
                    00:2b:6a:69:b7:10:f3:bb:00:38:e8:54:d6:bc:3c:
                    5c:1b:f0:4f:02:e2:ab:3b:cb:6d:51:ce:28:fa:24:
                    2b:7d:e0:f1:dd:1d:5f:fe:8f:58:91:2d:e7:86:e6:
                    ed:bc:32:51:b3:90:ac:4e:c4:82:88:20:30:ed:04:
                    87:bd:79:c8:ce:ce:b2:58:5f:c1:9a:5c:05:cd:65:
                    f3:a2:ba:88:b9:ed:d0:6b:ac:62:04:26:80:d3:9d:
                    3f:c8:d9:50:08:e5:28:c1:18:e0:f1:72:4f:4e:b4:
                    48:ce:cf:74:bf:45:cd:22:7f:21:c9:b5:34:96:6a:
                    b5:16:a1:c3:69:c3:96:e7:8f:8d:d5:38:c5:71:10:
                    53:36:ae:1f:e4:a7:ec:c7:00:1d:ac:4b:22:e5:fd:
                    3d:af
                Exponent: 65537 (0x10001)
        X509v3 extensions:
            X509v3 Basic Constraints: 
                CA:FALSE
            X509v3 Subject Key Identifier: 
                7B:95:1D:F6:76:CB:40:28:55:E4:65:BF:26:AD:7E:CA:DB:D7:61:9C
            X509v3 Authority Key Identifier: 
                keyid:D6:94:F2:1C:03:65:40:07:C2:16:A7:EF:8E:B8:AA:97:FF:90:A3:BD
                DirName:/CN=team147-net
                serial:50:BD:D2:9E:61:F5:95:C8:C4:13:CA:73:56:A0:99:FA:C5:53:76:65
            X509v3 Extended Key Usage: 
                TLS Web Server Authentication
            X509v3 Key Usage: 
                Digital Signature, Key Encipherment
            X509v3 Subject Alternative Name: 
                DNS:team147-server
    Signature Algorithm: sha256WithRSAEncryption
    Signature Value:
        38:8d:a0:09:40:c7:14:14:58:3a:fc:bc:15:73:80:00:ab:f2:
        80:53:86:8f:0c:2c:77:99:b9:05:b9:2b:d9:91:ce:c2:bc:29:
        3d:4c:d8:78:01:50:85:59:d8:3d:69:c7:3b:f8:02:a8:f0:f1:
        da:25:5d:2b:b5:93:97:60:b6:1d:9f:0c:61:ec:35:86:4f:3c:
        9a:c0:51:05:e9:f2:96:ec:31:af:9b:58:04:c5:9f:2d:23:35:
        87:e4:d7:50:19:c6:e0:e3:78:81:e2:b5:9b:52:f3:22:ff:ba:
        ff:95:39:31:52:00:8f:12:e9:04:7e:98:20:9c:1a:0f:90:7f:
        7c:3b:c6:b1:79:35:1e:3d:21:f0:2a:96:aa:49:41:ec:24:d8:
        db:bd:1f:92:df:b3:77:4e:7f:d6:a0:ee:95:01:5f:54:7f:4f:
        e0:32:7a:6b:2d:b9:b2:ba:e3:bd:a0:4a:1e:82:60:ab:dc:43:
        3b:80:ca:49:e8:ea:f5:68:c4:37:49:e4:96:4e:26:35:95:a6:
        b7:30:cf:37:14:74:64:dc:09:2b:29:11:5a:88:24:d4:53:2e:
        39:07:25:a8:96:a7:33:23:69:b9:54:18:94:25:e6:33:13:cd:
        ec:f9:22:54:ac:61:f6:2f:cc:40:4f:52:f9:27:1d:ea:b7:a8:
        cc:b8:69:3f
-----BEGIN CERTIFICATE-----
MIIDeDCCAmCgAwIBAgIRAOfOkHlOO3+G2SEtgUgp0NUwDQYJKoZIhvcNAQELBQAw
FjEUMBIGA1UEAwwLdGVhbTE0Ny1uZXQwHhcNMjMxMTA0MTA0MzE2WhcNMjYxMDE5
MTA0MzE2WjAZMRcwFQYDVQQDDA50ZWFtMTQ3LXNlcnZlcjCCASIwDQYJKoZIhvcN
AQEBBQADggEPADCCAQoCggEBAJhouxkg/dS7vC98yxc2mlp7+E90ZcemoKwW/HzC
71g3xenzfmbS/EFa0eCsLVxYiEHmNK582sSRFi0D1bv1t82N1MSGIlcYH2lZrT5e
u/tD4Fd3AsFLB1k8KDU8kyC/6vt23gdxc+HmACtqabcQ87sAOOhU1rw8XBvwTwLi
qzvLbVHOKPokK33g8d0dX/6PWJEt54bm7bwyUbOQrE7EgoggMO0Eh715yM7Oslhf
wZpcBc1l86K6iLnt0GusYgQmgNOdP8jZUAjlKMEY4PFyT060SM7PdL9FzSJ/Icm1
NJZqtRahw2nDluePjdU4xXEQUzauH+Sn7McAHaxLIuX9Pa8CAwEAAaOBvTCBujAJ
BgNVHRMEAjAAMB0GA1UdDgQWBBR7lR32dstAKFXkZb8mrX7K29dhnDBRBgNVHSME
SjBIgBTWlPIcA2VAB8IWp++OuKqX/5CjvaEapBgwFjEUMBIGA1UEAwwLdGVhbTE0
Ny1uZXSCFFC90p5h9ZXIxBPKc1agmfrFU3ZlMBMGA1UdJQQMMAoGCCsGAQUFBwMB
MAsGA1UdDwQEAwIFoDAZBgNVHREEEjAQgg50ZWFtMTQ3LXNlcnZlcjANBgkqhkiG
9w0BAQsFAAOCAQEAOI2gCUDHFBRYOvy8FXOAAKvygFOGjwwsd5m5Bbkr2ZHOwrwp
PUzYeAFQhVnYPWnHO/gCqPDx2iVdK7WTl2C2HZ8MYew1hk88msBRBenyluwxr5tY
BMWfLSM1h+TXUBnG4ON4geK1m1LzIv+6/5U5MVIAjxLpBH6YIJwaD5B/fDvGsXk1
Hj0h8CqWqklB7CTY270fkt+zd05/1qDulQFfVH9P4DJ6ay25srrjvaBKHoJgq9xD
O4DKSejq9WjEN0nklk4mNZWmtzDPNxR0ZNwJKykRWogk1FMuOQclqJanMyNpuVQY
lCXmMxPN7PkiVKxh9i/MQE9S+Scd6reozLhpPw==
-----END CERTIFICATE-----
