Certificate:
    Data:
        Version: 3 (0x2)
        Serial Number:
            16:2b:c0:0b:ee:d7:71:1a:a7:32:98:57:10:6a:a3:51
        Signature Algorithm: sha256WithRSAEncryption
        Issuer: CN=team202-net
        Validity
            Not Before: Nov  3 20:42:57 2023 GMT
            Not After : Oct 18 20:42:57 2026 GMT
        Subject: CN=team202-server
        Subject Public Key Info:
            Public Key Algorithm: rsaEncryption
                Public-Key: (2048 bit)
                Modulus:
                    00:cb:a3:2e:de:1a:69:14:20:52:ea:d7:16:52:92:
                    1d:70:80:b1:af:8a:b0:23:3b:fc:1d:4a:6d:47:62:
                    17:6d:fb:5b:d9:42:26:a4:2e:7b:e5:9e:0d:11:7e:
                    4b:cb:1b:63:50:a2:7e:07:16:d4:99:a8:7c:24:60:
                    83:94:c6:2d:bb:25:5e:c0:fb:e2:c9:aa:61:f9:e6:
                    87:da:22:78:fa:29:0e:15:3d:8f:6e:7d:a6:29:4c:
                    96:c9:bb:1c:1e:43:8b:69:dd:57:3a:f6:bf:77:89:
                    02:b0:5a:04:b4:2b:ea:ec:c9:a0:6b:25:63:a4:9b:
                    9d:df:fa:b2:c8:f8:b2:d7:fc:d5:71:9e:da:29:93:
                    ba:a0:5c:c2:40:00:a9:39:f6:b8:1e:93:8b:50:50:
                    13:fb:9a:46:58:08:c0:58:12:df:02:c7:0b:37:be:
                    d2:0e:f0:2d:5c:9b:a0:f2:55:ad:e7:a5:ab:14:72:
                    24:39:4b:d1:2e:99:33:a7:ff:29:a8:5c:b7:aa:4e:
                    2a:db:7f:43:6f:92:10:09:77:3d:31:50:04:b3:59:
                    72:e1:d1:f4:11:09:b8:65:d8:dc:37:ce:40:57:26:
                    ce:02:c7:da:92:9a:79:7b:50:51:f0:48:b1:e6:55:
                    fc:1a:14:00:dc:67:79:3c:39:64:7d:9d:0b:9a:3c:
                    5f:59
                Exponent: 65537 (0x10001)
        X509v3 extensions:
            X509v3 Basic Constraints: 
                CA:FALSE
            X509v3 Subject Key Identifier: 
                9B:0D:96:75:2D:37:20:5D:19:9E:3B:C6:3E:99:AD:96:DF:4F:EC:95
            X509v3 Authority Key Identifier: 
                keyid:16:A9:22:42:C9:64:F7:25:A5:C2:4C:C0:93:4B:AB:29:A3:88:1B:1E
                DirName:/CN=team202-net
                serial:35:CD:15:45:11:B2:28:B9:CC:93:1F:3C:77:3F:07:E2:14:93:9C:85
            X509v3 Extended Key Usage: 
                TLS Web Server Authentication
            X509v3 Key Usage: 
                Digital Signature, Key Encipherment
            X509v3 Subject Alternative Name: 
                DNS:team202-server
    Signature Algorithm: sha256WithRSAEncryption
    Signature Value:
        8c:20:1d:7a:a0:72:5a:2f:2d:98:21:98:63:02:52:00:43:f0:
        4e:0e:09:dd:eb:6a:2b:41:bd:41:00:67:04:3c:ab:fa:00:92:
        79:32:89:c9:60:f0:cb:dd:6e:5f:19:1c:33:2b:5d:07:ae:06:
        5e:52:d6:d7:f0:86:ef:9c:40:7d:ec:57:dc:f0:10:8b:56:11:
        76:6e:d7:ce:9f:94:79:42:d9:85:9d:0a:f6:37:5e:f8:25:74:
        e0:8f:6a:b7:52:3f:e4:fc:ee:d1:14:90:c9:9d:08:e9:7b:bc:
        16:48:5c:af:70:e0:9c:b1:8b:fd:ca:af:ee:94:0e:ef:43:f7:
        87:14:07:b0:30:9d:a7:2f:21:96:0d:2a:a1:3e:4f:b7:07:13:
        bb:14:30:cd:49:bb:3f:e5:26:7b:21:bf:6c:88:ea:4a:d8:f6:
        e0:6f:3e:66:32:f9:3b:8e:93:54:45:04:dd:0c:0e:f8:e7:c4:
        df:50:48:34:d6:ac:96:5f:93:15:5a:e4:8a:41:c2:a8:cd:92:
        6d:0c:c8:aa:01:dc:f3:2d:87:e8:19:e7:60:12:40:31:5b:6e:
        90:7f:6e:ab:21:cd:a3:af:44:2f:de:c0:c4:d1:43:52:cd:a5:
        0f:37:e5:31:80:67:6b:bc:03:1e:9b:33:eb:35:fd:c6:39:14:
        de:97:1c:a0
-----BEGIN CERTIFICATE-----
MIIDdzCCAl+gAwIBAgIQFivAC+7XcRqnMphXEGqjUTANBgkqhkiG9w0BAQsFADAW
MRQwEgYDVQQDDAt0ZWFtMjAyLW5ldDAeFw0yMzExMDMyMDQyNTdaFw0yNjEwMTgy
MDQyNTdaMBkxFzAVBgNVBAMMDnRlYW0yMDItc2VydmVyMIIBIjANBgkqhkiG9w0B
AQEFAAOCAQ8AMIIBCgKCAQEAy6Mu3hppFCBS6tcWUpIdcICxr4qwIzv8HUptR2IX
bftb2UImpC575Z4NEX5LyxtjUKJ+BxbUmah8JGCDlMYtuyVewPviyaph+eaH2iJ4
+ikOFT2Pbn2mKUyWybscHkOLad1XOva/d4kCsFoEtCvq7MmgayVjpJud3/qyyPiy
1/zVcZ7aKZO6oFzCQACpOfa4HpOLUFAT+5pGWAjAWBLfAscLN77SDvAtXJug8lWt
56WrFHIkOUvRLpkzp/8pqFy3qk4q239Db5IQCXc9MVAEs1ly4dH0EQm4ZdjcN85A
VybOAsfakpp5e1BR8Eix5lX8GhQA3Gd5PDlkfZ0LmjxfWQIDAQABo4G9MIG6MAkG
A1UdEwQCMAAwHQYDVR0OBBYEFJsNlnUtNyBdGZ47xj6ZrZbfT+yVMFEGA1UdIwRK
MEiAFBapIkLJZPclpcJMwJNLqymjiBseoRqkGDAWMRQwEgYDVQQDDAt0ZWFtMjAy
LW5ldIIUNc0VRRGyKLnMkx88dz8H4hSTnIUwEwYDVR0lBAwwCgYIKwYBBQUHAwEw
CwYDVR0PBAQDAgWgMBkGA1UdEQQSMBCCDnRlYW0yMDItc2VydmVyMA0GCSqGSIb3
DQEBCwUAA4IBAQCMIB16oHJaLy2YIZhjAlIAQ/BODgnd62orQb1BAGcEPKv6AJJ5
MonJYPDL3W5fGRwzK10HrgZeUtbX8IbvnEB97Ffc8BCLVhF2btfOn5R5QtmFnQr2
N174JXTgj2q3Uj/k/O7RFJDJnQjpe7wWSFyvcOCcsYv9yq/ulA7vQ/eHFAewMJ2n
LyGWDSqhPk+3BxO7FDDNSbs/5SZ7Ib9siOpK2Pbgbz5mMvk7jpNURQTdDA7458Tf
UEg01qyWX5MVWuSKQcKozZJtDMiqAdzzLYfoGedgEkAxW26Qf26rIc2jr0Qv3sDE
0UNSzaUPN+UxgGdrvAMemzPrNf3GORTelxyg
-----END CERTIFICATE-----
