Certificate:
    Data:
        Version: 3 (0x2)
        Serial Number:
            3f:75:5d:9a:9b:3d:61:ee:92:59:58:ae:e9:d4:1c:a9
        Signature Algorithm: sha256WithRSAEncryption
        Issuer: CN=team125-net
        Validity
            Not Before: Nov  4 10:42:49 2023 GMT
            Not After : Oct 19 10:42:49 2026 GMT
        Subject: CN=team125-server
        Subject Public Key Info:
            Public Key Algorithm: rsaEncryption
                Public-Key: (2048 bit)
                Modulus:
                    00:ab:a4:b6:8d:db:66:82:98:d1:66:b7:62:38:4b:
                    1b:1c:73:33:04:0d:75:9f:08:6c:31:85:c6:ec:8f:
                    ca:b9:b8:e0:d8:b8:27:4b:5f:da:08:d2:8d:19:96:
                    72:48:0f:2d:05:77:fd:e3:71:5f:22:76:19:38:a5:
                    ec:1a:b8:75:38:4f:b3:75:b9:f1:2e:e2:68:0e:b3:
                    cd:ec:83:f7:db:44:4d:6b:e2:9e:aa:15:0d:88:58:
                    de:63:de:0b:eb:85:98:31:dd:fd:d2:07:75:10:b1:
                    e6:48:1d:16:8b:3f:1e:86:c6:9c:ee:71:08:b6:1c:
                    84:18:15:20:b8:c0:de:b7:8a:6b:0c:af:83:71:cb:
                    df:04:6f:48:bc:0b:e1:3e:c8:33:3f:80:da:03:1d:
                    e9:a6:d7:27:91:51:2a:ae:b1:84:80:13:19:32:50:
                    6f:44:b6:78:a6:eb:c0:ee:a6:b2:00:e8:8e:6b:67:
                    a4:8f:1e:61:92:13:78:da:ec:33:71:cd:38:35:3e:
                    40:cb:ea:bc:2f:65:17:27:6c:48:02:69:0f:ff:0b:
                    b0:61:ec:10:a1:d3:39:37:0b:bf:0c:d7:d9:05:9c:
                    09:91:9f:55:6d:82:77:75:ce:af:a2:e4:2f:e4:41:
                    39:cc:e6:02:c6:ed:f4:93:42:5d:38:b3:62:42:8c:
                    75:b3
                Exponent: 65537 (0x10001)
        X509v3 extensions:
            X509v3 Basic Constraints: 
                CA:FALSE
            X509v3 Subject Key Identifier: 
                2E:47:91:F3:FB:93:E7:4C:6C:13:DF:6E:85:12:60:DF:19:BF:39:B2
            X509v3 Authority Key Identifier: 
                keyid:00:44:51:F3:61:31:D2:A7:82:BB:60:5C:E3:39:D8:36:C5:2C:84:43
                DirName:/CN=team125-net
                serial:0E:72:40:7A:25:36:94:62:D4:E1:94:48:61:C2:61:FE:E0:C1:38:E6
            X509v3 Extended Key Usage: 
                TLS Web Server Authentication
            X509v3 Key Usage: 
                Digital Signature, Key Encipherment
            X509v3 Subject Alternative Name: 
                DNS:team125-server
    Signature Algorithm: sha256WithRSAEncryption
    Signature Value:
        64:c6:02:18:1e:68:f4:1d:97:54:ba:2f:49:e9:24:5b:98:a2:
        bd:09:4e:24:cb:f6:52:77:00:b6:a1:82:02:d0:65:a5:a8:19:
        f3:1e:fe:1a:1f:0b:fa:82:51:ae:31:08:65:9a:63:3b:45:de:
        a9:59:01:46:83:75:c7:37:ae:5a:a8:e1:e4:78:fe:00:5b:bd:
        98:f0:db:cd:b7:da:06:8f:b2:ff:1b:0b:7e:a3:d8:57:a7:7d:
        71:11:c8:b4:24:c4:60:3c:76:15:c6:b8:1f:65:96:95:8b:e2:
        d7:b4:b5:f6:fb:d5:4f:80:88:33:5b:2b:95:f2:3e:17:35:b2:
        b5:e2:d8:08:80:0e:f9:41:ba:b6:af:4b:d9:d6:c3:46:5b:3e:
        28:c8:fa:37:57:5b:c2:96:68:c2:b5:31:c3:35:b0:a5:14:d4:
        4b:73:48:c4:11:e8:05:22:68:04:4d:61:de:8c:3d:6e:f2:e2:
        24:e4:1b:46:5e:3c:a2:6d:ed:1c:55:16:f6:a7:04:98:83:94:
        e5:f3:c1:53:39:32:fe:b4:bb:70:05:ca:aa:e5:50:66:8d:d4:
        cd:22:d7:00:30:3b:9b:4e:48:4c:69:68:8d:e6:b8:88:76:f0:
        ec:ec:37:7e:0f:c7:9c:ec:cc:45:9c:13:2d:aa:ba:89:9a:5b:
        24:27:76:a2
-----BEGIN CERTIFICATE-----
MIIDdzCCAl+gAwIBAgIQP3Vdmps9Ye6SWViu6dQcqTANBgkqhkiG9w0BAQsFADAW
MRQwEgYDVQQDDAt0ZWFtMTI1LW5ldDAeFw0yMzExMDQxMDQyNDlaFw0yNjEwMTkx
MDQyNDlaMBkxFzAVBgNVBAMMDnRlYW0xMjUtc2VydmVyMIIBIjANBgkqhkiG9w0B
AQEFAAOCAQ8AMIIBCgKCAQEAq6S2jdtmgpjRZrdiOEsbHHMzBA11nwhsMYXG7I/K
ubjg2LgnS1/aCNKNGZZySA8tBXf943FfInYZOKXsGrh1OE+zdbnxLuJoDrPN7IP3
20RNa+KeqhUNiFjeY94L64WYMd390gd1ELHmSB0Wiz8ehsac7nEIthyEGBUguMDe
t4prDK+DccvfBG9IvAvhPsgzP4DaAx3pptcnkVEqrrGEgBMZMlBvRLZ4puvA7qay
AOiOa2ekjx5hkhN42uwzcc04NT5Ay+q8L2UXJ2xIAmkP/wuwYewQodM5Nwu/DNfZ
BZwJkZ9VbYJ3dc6vouQv5EE5zOYCxu30k0JdOLNiQox1swIDAQABo4G9MIG6MAkG
A1UdEwQCMAAwHQYDVR0OBBYEFC5HkfP7k+dMbBPfboUSYN8ZvzmyMFEGA1UdIwRK
MEiAFABEUfNhMdKngrtgXOM52DbFLIRDoRqkGDAWMRQwEgYDVQQDDAt0ZWFtMTI1
LW5ldIIUDnJAeiU2lGLU4ZRIYcJh/uDBOOYwEwYDVR0lBAwwCgYIKwYBBQUHAwEw
CwYDVR0PBAQDAgWgMBkGA1UdEQQSMBCCDnRlYW0xMjUtc2VydmVyMA0GCSqGSIb3
DQEBCwUAA4IBAQBkxgIYHmj0HZdUui9J6SRbmKK9CU4ky/ZSdwC2oYIC0GWlqBnz
Hv4aHwv6glGuMQhlmmM7Rd6pWQFGg3XHN65aqOHkeP4AW72Y8NvNt9oGj7L/Gwt+
o9hXp31xEci0JMRgPHYVxrgfZZaVi+LXtLX2+9VPgIgzWyuV8j4XNbK14tgIgA75
Qbq2r0vZ1sNGWz4oyPo3V1vClmjCtTHDNbClFNRLc0jEEegFImgETWHejD1u8uIk
5BtGXjyibe0cVRb2pwSYg5Tl88FTOTL+tLtwBcqq5VBmjdTNItcAMDubTkhMaWiN
5riIdvDs7Dd+D8ec7MxFnBMtqrqJmlskJ3ai
-----END CERTIFICATE-----
