Certificate:
    Data:
        Version: 3 (0x2)
        Serial Number:
            8e:2b:46:ac:03:49:7d:dd:b7:8e:d4:57:d1:90:86:8c
        Signature Algorithm: sha256WithRSAEncryption
        Issuer: CN=team125-net
        Validity
            Not Before: Nov  3 20:41:25 2023 GMT
            Not After : Oct 18 20:41:25 2026 GMT
        Subject: CN=team125-server
        Subject Public Key Info:
            Public Key Algorithm: rsaEncryption
                Public-Key: (2048 bit)
                Modulus:
                    00:ad:a8:65:63:98:04:cd:bc:4c:6b:89:48:de:c6:
                    e8:18:ba:e6:52:4c:a3:aa:b5:2a:8d:cf:51:71:d8:
                    8d:68:e7:38:7a:7e:15:e8:eb:63:c3:c7:da:ad:7b:
                    1c:0d:d4:fb:22:07:b5:fa:66:ee:40:8d:34:5f:92:
                    0c:b7:fe:45:3a:12:3c:36:0d:6b:06:f6:8b:3b:08:
                    b9:ef:4a:2c:5f:f4:51:ac:af:b1:e4:eb:3e:1e:51:
                    06:c6:5c:97:0a:e0:8c:49:37:bd:1a:39:48:5d:cc:
                    d6:46:47:c9:0f:cb:b7:b8:fc:8a:b7:26:f4:bd:22:
                    39:ee:89:17:3c:a4:9a:72:38:e6:1d:cb:1a:53:f2:
                    95:c2:8c:14:67:c1:ea:78:fd:bc:8a:fe:c3:64:9e:
                    ab:54:ae:da:f5:5e:1a:2b:e5:b9:c0:e8:84:98:61:
                    11:af:be:15:bd:ed:0c:f3:b1:c0:57:ab:e9:66:b7:
                    15:63:c9:ee:2c:1d:dd:26:9f:ab:67:db:fd:11:99:
                    72:cf:d9:b3:6e:74:4e:7d:9c:7a:bf:85:fb:f3:d8:
                    03:52:9c:24:96:07:ff:ef:5c:e6:06:64:1c:79:ba:
                    ac:06:74:c4:54:f1:41:08:a8:f8:18:2b:1d:4f:b8:
                    76:81:0f:d0:a9:36:e2:05:19:1d:72:a3:7d:2f:93:
                    ca:b1
                Exponent: 65537 (0x10001)
        X509v3 extensions:
            X509v3 Basic Constraints: 
                CA:FALSE
            X509v3 Subject Key Identifier: 
                A0:DA:C7:7B:3E:EC:99:6F:7A:3F:8F:CF:E5:74:45:32:39:A8:FF:27
            X509v3 Authority Key Identifier: 
                keyid:83:D6:A5:BB:53:25:F5:6B:18:25:F8:08:7A:A0:50:E8:2A:AD:C6:6A
                DirName:/CN=team125-net
                serial:6A:75:34:D4:CB:08:75:1F:0A:A0:FC:1F:21:EF:88:38:15:84:D0:EB
            X509v3 Extended Key Usage: 
                TLS Web Server Authentication
            X509v3 Key Usage: 
                Digital Signature, Key Encipherment
            X509v3 Subject Alternative Name: 
                DNS:team125-server
    Signature Algorithm: sha256WithRSAEncryption
    Signature Value:
        b0:dd:65:0f:49:5e:ab:5b:8d:bc:3f:33:63:85:db:a4:ab:7c:
        a4:ba:26:71:04:23:f6:b9:08:b2:37:76:3a:bf:2c:18:a4:23:
        4c:df:c3:19:a7:a8:f0:53:5d:1f:3d:2f:6a:1e:41:ef:24:1e:
        47:22:5f:d1:b3:a1:9f:1e:28:92:7c:76:ae:06:b1:38:5b:b5:
        c4:04:5a:f9:b9:84:43:f9:f1:92:c6:f4:a8:76:a2:42:dd:7e:
        d0:b3:82:0f:6b:1a:86:39:c8:b7:03:19:b6:41:36:f4:ad:26:
        75:87:5b:e6:5d:fc:79:57:cc:f1:ba:7d:48:bc:7a:f1:4f:32:
        bb:d9:46:89:f7:79:6f:cd:b4:40:cb:14:af:3f:44:21:18:ab:
        6a:9f:76:c8:10:4f:f0:d0:cf:cb:09:9a:57:c9:af:a6:db:e9:
        e1:3c:54:76:f5:24:f3:a4:d9:07:ed:a7:4d:76:d0:fc:f4:c9:
        0c:08:6d:4d:1a:71:45:ce:15:6c:44:76:e3:24:8b:57:7d:16:
        ee:7e:33:7e:94:8f:68:88:70:2c:88:dc:2e:9a:7a:5a:16:ed:
        97:7c:ba:d9:0d:97:98:51:a5:ac:bc:fb:6d:36:2f:32:b7:b4:
        d5:c3:9b:68:df:3e:83:9f:fb:77:3a:95:c5:49:d3:b9:fe:37:
        b8:c6:4d:48
-----BEGIN CERTIFICATE-----
MIIDeDCCAmCgAwIBAgIRAI4rRqwDSX3dt47UV9GQhowwDQYJKoZIhvcNAQELBQAw
FjEUMBIGA1UEAwwLdGVhbTEyNS1uZXQwHhcNMjMxMTAzMjA0MTI1WhcNMjYxMDE4
MjA0MTI1WjAZMRcwFQYDVQQDDA50ZWFtMTI1LXNlcnZlcjCCASIwDQYJKoZIhvcN
AQEBBQADggEPADCCAQoCggEBAK2oZWOYBM28TGuJSN7G6Bi65lJMo6q1Ko3PUXHY
jWjnOHp+FejrY8PH2q17HA3U+yIHtfpm7kCNNF+SDLf+RToSPDYNawb2izsIue9K
LF/0UayvseTrPh5RBsZclwrgjEk3vRo5SF3M1kZHyQ/Lt7j8ircm9L0iOe6JFzyk
mnI45h3LGlPylcKMFGfB6nj9vIr+w2Seq1Su2vVeGivlucDohJhhEa++Fb3tDPOx
wFer6Wa3FWPJ7iwd3Safq2fb/RGZcs/Zs250Tn2cer+F+/PYA1KcJJYH/+9c5gZk
HHm6rAZ0xFTxQQio+BgrHU+4doEP0Kk24gUZHXKjfS+TyrECAwEAAaOBvTCBujAJ
BgNVHRMEAjAAMB0GA1UdDgQWBBSg2sd7PuyZb3o/j8/ldEUyOaj/JzBRBgNVHSME
SjBIgBSD1qW7UyX1axgl+Ah6oFDoKq3GaqEapBgwFjEUMBIGA1UEAwwLdGVhbTEy
NS1uZXSCFGp1NNTLCHUfCqD8HyHviDgVhNDrMBMGA1UdJQQMMAoGCCsGAQUFBwMB
MAsGA1UdDwQEAwIFoDAZBgNVHREEEjAQgg50ZWFtMTI1LXNlcnZlcjANBgkqhkiG
9w0BAQsFAAOCAQEAsN1lD0leq1uNvD8zY4XbpKt8pLomcQQj9rkIsjd2Or8sGKQj
TN/DGaeo8FNdHz0vah5B7yQeRyJf0bOhnx4oknx2rgaxOFu1xARa+bmEQ/nxksb0
qHaiQt1+0LOCD2sahjnItwMZtkE29K0mdYdb5l38eVfM8bp9SLx68U8yu9lGifd5
b820QMsUrz9EIRirap92yBBP8NDPywmaV8mvptvp4TxUdvUk86TZB+2nTXbQ/PTJ
DAhtTRpxRc4VbER24ySLV30W7n4zfpSPaIhwLIjcLpp6Whbtl3y62Q2XmFGlrLz7
bTYvMre01cObaN8+g5/7dzqVxUnTuf43uMZNSA==
-----END CERTIFICATE-----
