Certificate:
    Data:
        Version: 3 (0x2)
        Serial Number:
            fe:54:2a:4b:c3:5e:b8:b9:68:9d:65:50:2d:7d:1e:ce
        Signature Algorithm: sha256WithRSAEncryption
        Issuer: CN=team125-net
        Validity
            Not Before: Nov  4 10:42:48 2023 GMT
            Not After : Oct 19 10:42:48 2026 GMT
        Subject: CN=team125-client
        Subject Public Key Info:
            Public Key Algorithm: rsaEncryption
                Public-Key: (2048 bit)
                Modulus:
                    00:ac:0b:9b:d2:5e:eb:c7:cf:3d:aa:60:47:ed:07:
                    fb:ad:9a:ad:14:4c:d5:30:64:53:32:bf:4c:de:c3:
                    82:aa:98:f9:ef:d1:97:36:29:75:8d:2c:ca:95:22:
                    e2:f2:3b:f6:80:93:89:34:1f:6e:8f:6f:f5:ec:90:
                    62:0a:03:f8:5f:dd:79:b8:98:ad:62:e9:df:ab:9a:
                    b1:26:be:81:83:3b:45:4f:9d:06:eb:3d:6d:be:58:
                    7b:a3:87:66:cc:58:64:91:ad:a1:9f:2e:4d:1a:22:
                    10:67:35:b1:1f:75:ff:84:23:06:f7:ea:8c:dd:61:
                    3f:04:db:2d:96:73:fd:4e:1f:09:ee:61:11:65:91:
                    3b:a2:c1:d6:c8:68:01:66:e5:4d:71:4c:6e:d4:91:
                    f0:f9:18:79:38:18:46:7f:06:fa:19:dd:5b:08:22:
                    cd:6c:35:4e:44:27:5a:5f:8a:93:ae:a8:ba:40:eb:
                    a5:46:75:29:3c:af:c7:0c:9b:f4:8a:47:ae:e4:64:
                    96:5a:29:a1:9a:d1:65:98:0b:cc:83:d4:ee:5b:7d:
                    ce:d1:75:30:96:af:bc:41:9d:7d:c8:50:db:75:d0:
                    fa:2a:85:b3:40:1f:20:a1:85:03:a0:dc:3f:b5:1a:
                    ad:5d:f8:12:f1:95:c2:88:27:cd:5e:f5:31:a6:9c:
                    32:b9
                Exponent: 65537 (0x10001)
        X509v3 extensions:
            X509v3 Basic Constraints: 
                CA:FALSE
            X509v3 Subject Key Identifier: 
                1F:B5:4E:5E:FC:E5:DF:F6:4D:AF:08:96:78:0B:63:9B:47:8A:2B:35
            X509v3 Authority Key Identifier: 
                keyid:00:44:51:F3:61:31:D2:A7:82:BB:60:5C:E3:39:D8:36:C5:2C:84:43
                DirName:/CN=team125-net
                serial:0E:72:40:7A:25:36:94:62:D4:E1:94:48:61:C2:61:FE:E0:C1:38:E6
            X509v3 Extended Key Usage: 
                TLS Web Client Authentication
            X509v3 Key Usage: 
                Digital Signature
    Signature Algorithm: sha256WithRSAEncryption
    Signature Value:
        26:c2:2a:81:44:e9:2f:63:a3:df:c2:b6:ca:aa:fc:5a:0c:94:
        71:cf:8c:d7:9c:bc:f5:fe:df:41:34:b6:56:71:a4:10:3e:fa:
        fa:90:11:61:d3:82:62:a3:7f:7c:8d:83:1e:7c:39:dc:49:b4:
        d6:91:99:d5:30:da:c8:22:3c:24:82:8f:c3:d8:33:81:ac:18:
        bd:8f:a5:68:fd:50:c3:2a:09:61:98:a3:6f:0d:74:c4:63:b3:
        be:58:8c:d8:9c:0f:5d:ad:48:40:ca:d6:c5:b1:25:59:be:34:
        82:fe:a4:4a:50:46:8d:ed:78:81:3b:d7:3e:0c:2b:98:05:6f:
        ce:91:da:47:bf:20:49:8d:ef:18:88:1d:2f:47:23:63:fb:61:
        10:cf:55:3b:6c:64:11:65:e5:32:8c:66:e3:e1:5e:9d:eb:fb:
        74:50:71:60:44:aa:1a:c2:4c:9f:95:c2:8e:02:23:d6:39:0c:
        0b:a5:39:8f:a2:a0:29:12:44:08:cf:38:15:d3:50:cc:a3:af:
        65:56:b5:38:d7:3f:95:43:d4:8a:6c:e2:02:38:81:b9:50:69:
        01:26:ae:cb:ae:1a:6f:5f:68:cf:51:84:4e:8d:46:d8:e1:a5:
        b4:66:87:87:d3:36:7b:5c:a4:68:0c:b5:a0:8a:fc:c4:9f:f2:
        38:e6:a5:e1
-----BEGIN CERTIFICATE-----
MIIDXTCCAkWgAwIBAgIRAP5UKkvDXri5aJ1lUC19Hs4wDQYJKoZIhvcNAQELBQAw
FjEUMBIGA1UEAwwLdGVhbTEyNS1uZXQwHhcNMjMxMTA0MTA0MjQ4WhcNMjYxMDE5
MTA0MjQ4WjAZMRcwFQYDVQQDDA50ZWFtMTI1LWNsaWVudDCCASIwDQYJKoZIhvcN
AQEBBQADggEPADCCAQoCggEBAKwLm9Je68fPPapgR+0H+62arRRM1TBkUzK/TN7D
gqqY+e/RlzYpdY0sypUi4vI79oCTiTQfbo9v9eyQYgoD+F/debiYrWLp36uasSa+
gYM7RU+dBus9bb5Ye6OHZsxYZJGtoZ8uTRoiEGc1sR91/4QjBvfqjN1hPwTbLZZz
/U4fCe5hEWWRO6LB1shoAWblTXFMbtSR8PkYeTgYRn8G+hndWwgizWw1TkQnWl+K
k66oukDrpUZ1KTyvxwyb9IpHruRkllopoZrRZZgLzIPU7lt9ztF1MJavvEGdfchQ
23XQ+iqFs0AfIKGFA6DcP7UarV34EvGVwognzV71MaacMrkCAwEAAaOBojCBnzAJ
BgNVHRMEAjAAMB0GA1UdDgQWBBQftU5e/OXf9k2vCJZ4C2ObR4orNTBRBgNVHSME
SjBIgBQARFHzYTHSp4K7YFzjOdg2xSyEQ6EapBgwFjEUMBIGA1UEAwwLdGVhbTEy
NS1uZXSCFA5yQHolNpRi1OGUSGHCYf7gwTjmMBMGA1UdJQQMMAoGCCsGAQUFBwMC
MAsGA1UdDwQEAwIHgDANBgkqhkiG9w0BAQsFAAOCAQEAJsIqgUTpL2Oj38K2yqr8
WgyUcc+M15y89f7fQTS2VnGkED76+pARYdOCYqN/fI2DHnw53Em01pGZ1TDayCI8
JIKPw9gzgawYvY+laP1QwyoJYZijbw10xGOzvliM2JwPXa1IQMrWxbElWb40gv6k
SlBGje14gTvXPgwrmAVvzpHaR78gSY3vGIgdL0cjY/thEM9VO2xkEWXlMoxm4+Fe
nev7dFBxYESqGsJMn5XCjgIj1jkMC6U5j6KgKRJECM84FdNQzKOvZVa1ONc/lUPU
imziAjiBuVBpASauy64ab19oz1GETo1G2OGltGaHh9M2e1ykaAy1oIr8xJ/yOOal
4Q==
-----END CERTIFICATE-----
