Certificate:
    Data:
        Version: 3 (0x2)
        Serial Number:
            22:32:b1:0f:c4:a5:30:78:61:5a:64:d6:ce:9f:9d:7a
        Signature Algorithm: sha256WithRSAEncryption
        Issuer: CN=team71-net
        Validity
            Not Before: Nov  4 11:28:45 2023 GMT
            Not After : Oct 19 11:28:45 2026 GMT
        Subject: CN=team71-client
        Subject Public Key Info:
            Public Key Algorithm: rsaEncryption
                Public-Key: (2048 bit)
                Modulus:
                    00:cf:bd:2c:de:6c:89:e3:94:66:ac:9b:09:f8:a3:
                    72:0c:15:7d:0b:64:69:3e:a1:9d:3b:ec:bf:c0:67:
                    94:d5:99:7c:38:ce:9b:09:89:b0:29:64:52:f5:4b:
                    e9:52:c3:9e:c3:cf:bd:db:cd:ff:bd:3e:4f:15:9e:
                    91:4c:37:9c:09:97:bc:ce:3b:2b:b6:25:eb:4f:e7:
                    e5:3d:9d:14:3b:eb:5a:68:0a:10:f5:81:4a:3e:da:
                    d9:50:51:db:3f:1e:a4:6b:2d:49:72:6d:31:bb:47:
                    c4:0a:58:ba:88:03:c4:83:d1:0e:5d:96:f9:64:56:
                    93:ea:cd:a2:3b:ce:b4:81:d1:9a:8a:6e:ca:75:0c:
                    ca:8e:8f:e6:74:0e:cc:68:7b:3a:2a:1e:ef:d6:21:
                    40:c6:8c:d0:74:b9:8a:97:74:3a:05:3e:80:1b:d8:
                    cd:b4:7b:8f:44:c2:15:66:47:6f:86:85:5a:8e:65:
                    07:df:e2:4d:7e:4f:e0:24:20:77:96:26:16:80:ce:
                    e0:c4:2d:c7:95:e2:74:ec:fd:9c:1b:7b:1e:9a:ab:
                    63:14:a1:8b:26:fb:4d:a3:0c:63:c1:8c:aa:93:fb:
                    54:89:05:1b:a3:59:b0:4c:1d:98:87:72:3a:ed:93:
                    d0:9f:60:8a:c7:d6:17:c9:d4:28:fb:93:f7:1b:d3:
                    72:29
                Exponent: 65537 (0x10001)
        X509v3 extensions:
            X509v3 Basic Constraints: 
                CA:FALSE
            X509v3 Subject Key Identifier: 
                1F:76:39:10:F8:29:A9:F4:4B:7B:45:55:74:5C:68:1B:28:02:CC:AC
            X509v3 Authority Key Identifier: 
                keyid:31:44:A3:05:D6:1F:8A:AB:80:67:C6:C2:5B:A9:94:12:43:BA:72:57
                DirName:/CN=team71-net
                serial:4B:77:03:E5:40:7E:3A:D8:91:C8:CF:7F:9C:EB:FF:74:19:11:7E:45
            X509v3 Extended Key Usage: 
                TLS Web Client Authentication
            X509v3 Key Usage: 
                Digital Signature
    Signature Algorithm: sha256WithRSAEncryption
    Signature Value:
        59:06:ce:56:f3:13:2a:89:f2:6c:ee:40:c5:35:c9:67:ec:d1:
        fb:b4:9e:94:76:a5:93:be:64:73:6e:f9:6b:b1:f4:96:08:78:
        6d:c0:0d:82:fd:a3:e2:53:f0:33:f7:e1:14:a3:d3:a6:b3:91:
        24:9c:f6:46:4c:f7:42:68:f3:5f:8d:cf:f5:8b:a2:f7:9c:c1:
        26:b9:9d:0e:67:86:f2:4f:f9:09:f2:ed:e6:a1:0e:9d:00:69:
        9a:83:5c:7d:82:69:50:26:68:05:9c:f8:f8:45:83:36:4b:f7:
        4f:7b:f6:f4:32:35:92:69:a6:b8:16:48:18:ca:bd:cb:b6:10:
        0b:1f:e8:45:63:e4:6d:f0:82:b5:da:25:36:3d:db:e8:b0:84:
        e0:06:0d:7d:0a:c1:73:03:af:8e:1d:66:31:f4:6c:ea:cd:e6:
        a1:b5:9b:09:d5:25:22:ff:4b:23:d3:f9:d7:6e:6c:27:2d:1f:
        f5:8b:c8:7c:66:de:2e:7f:e4:ac:d7:dc:f1:fa:59:d7:b8:1e:
        4e:5f:81:1e:44:56:bc:d3:3e:62:f3:c0:1c:f3:46:a9:e7:64:
        11:a2:cb:9a:97:4b:b3:3b:e4:4a:fd:4e:46:7f:f2:b7:65:10:
        bb:75:4f:31:a6:e0:26:ac:5d:c9:1c:7f:cd:43:0c:2c:58:61:
        83:15:08:f2
-----BEGIN CERTIFICATE-----
MIIDWTCCAkGgAwIBAgIQIjKxD8SlMHhhWmTWzp+dejANBgkqhkiG9w0BAQsFADAV
MRMwEQYDVQQDDAp0ZWFtNzEtbmV0MB4XDTIzMTEwNDExMjg0NVoXDTI2MTAxOTEx
Mjg0NVowGDEWMBQGA1UEAwwNdGVhbTcxLWNsaWVudDCCASIwDQYJKoZIhvcNAQEB
BQADggEPADCCAQoCggEBAM+9LN5sieOUZqybCfijcgwVfQtkaT6hnTvsv8BnlNWZ
fDjOmwmJsClkUvVL6VLDnsPPvdvN/70+TxWekUw3nAmXvM47K7Yl60/n5T2dFDvr
WmgKEPWBSj7a2VBR2z8epGstSXJtMbtHxApYuogDxIPRDl2W+WRWk+rNojvOtIHR
mopuynUMyo6P5nQOzGh7Oioe79YhQMaM0HS5ipd0OgU+gBvYzbR7j0TCFWZHb4aF
Wo5lB9/iTX5P4CQgd5YmFoDO4MQtx5XidOz9nBt7HpqrYxShiyb7TaMMY8GMqpP7
VIkFG6NZsEwdmIdyOu2T0J9gisfWF8nUKPuT9xvTcikCAwEAAaOBoTCBnjAJBgNV
HRMEAjAAMB0GA1UdDgQWBBQfdjkQ+Cmp9Et7RVV0XGgbKALMrDBQBgNVHSMESTBH
gBQxRKMF1h+Kq4BnxsJbqZQSQ7pyV6EZpBcwFTETMBEGA1UEAwwKdGVhbTcxLW5l
dIIUS3cD5UB+OtiRyM9/nOv/dBkRfkUwEwYDVR0lBAwwCgYIKwYBBQUHAwIwCwYD
VR0PBAQDAgeAMA0GCSqGSIb3DQEBCwUAA4IBAQBZBs5W8xMqifJs7kDFNcln7NH7
tJ6UdqWTvmRzbvlrsfSWCHhtwA2C/aPiU/Az9+EUo9Oms5EknPZGTPdCaPNfjc/1
i6L3nMEmuZ0OZ4byT/kJ8u3moQ6dAGmag1x9gmlQJmgFnPj4RYM2S/dPe/b0MjWS
aaa4FkgYyr3LthALH+hFY+Rt8IK12iU2PdvosITgBg19CsFzA6+OHWYx9Gzqzeah
tZsJ1SUi/0sj0/nXbmwnLR/1i8h8Zt4uf+Ss19zx+lnXuB5OX4EeRFa80z5i88Ac
80ap52QRosual0uzO+RK/U5Gf/K3ZRC7dU8xpuAmrF3JHH/NQwwsWGGDFQjy
-----END CERTIFICATE-----
