Certificate:
    Data:
        Version: 3 (0x2)
        Serial Number:
            6a:95:e1:ce:e7:27:23:01:4c:fe:6b:9c:ac:52:22:d7
        Signature Algorithm: sha256WithRSAEncryption
        Issuer: CN=team71-net
        Validity
            Not Before: Nov  4 10:41:41 2023 GMT
            Not After : Oct 19 10:41:41 2026 GMT
        Subject: CN=team71-server
        Subject Public Key Info:
            Public Key Algorithm: rsaEncryption
                Public-Key: (2048 bit)
                Modulus:
                    00:d7:36:20:05:1c:6c:a1:05:15:ea:a3:32:ea:19:
                    9e:e0:e5:30:fb:05:b0:b3:a6:f4:cc:e7:9b:84:c4:
                    7f:1b:47:2f:fa:80:4a:d3:71:63:5f:a9:bd:83:3e:
                    ca:14:1a:97:ad:af:fe:23:4f:4f:56:b3:aa:be:01:
                    76:d5:ff:f5:9a:6a:52:0d:cd:2d:b1:3d:a6:82:4b:
                    04:37:cf:1c:8b:46:2f:61:25:f9:45:db:17:30:e5:
                    7f:44:f8:fe:4b:d3:ea:c1:c7:e0:7b:d4:2d:4d:2f:
                    49:58:8f:16:87:9d:08:24:74:1b:54:a2:e9:36:33:
                    c2:76:8c:71:8a:cd:77:55:9d:80:ab:8a:48:41:85:
                    5e:8b:23:c4:33:0f:f3:ee:24:41:8c:ca:f1:2f:e0:
                    90:cb:35:15:f9:8a:f9:96:ad:7f:8b:05:7c:73:85:
                    64:74:a8:20:cc:e3:24:b8:5c:ed:95:67:dd:0c:ca:
                    11:67:9f:e9:3a:f6:de:6f:a4:d4:d4:ca:08:ee:93:
                    b6:56:23:4b:c9:bd:a7:57:05:45:b2:4a:53:ff:fb:
                    ea:11:23:a0:8f:1c:90:53:d6:f0:5d:6b:d6:0d:df:
                    12:39:1e:c5:8a:a1:8e:1c:33:74:90:35:a9:90:41:
                    ba:76:3c:0d:66:7c:d4:34:25:2a:66:8a:ab:cb:16:
                    1e:53
                Exponent: 65537 (0x10001)
        X509v3 extensions:
            X509v3 Basic Constraints: 
                CA:FALSE
            X509v3 Subject Key Identifier: 
                4E:D6:0A:FA:2B:52:01:D8:EF:C7:6C:74:4B:85:6B:2A:EA:2C:A4:5E
            X509v3 Authority Key Identifier: 
                keyid:9C:78:71:3B:EF:7A:77:07:DA:6B:DF:91:FC:C0:63:A8:A1:7B:29:D1
                DirName:/CN=team71-net
                serial:1D:40:7E:23:3C:83:97:32:95:BD:7C:E9:C2:5D:10:A8:92:F1:F0:3F
            X509v3 Extended Key Usage: 
                TLS Web Server Authentication
            X509v3 Key Usage: 
                Digital Signature, Key Encipherment
            X509v3 Subject Alternative Name: 
                DNS:team71-server
    Signature Algorithm: sha256WithRSAEncryption
    Signature Value:
        11:61:65:04:cd:d8:87:1e:dd:1a:6d:0f:fa:8a:9d:cb:7e:55:
        98:6f:62:01:3b:a2:cc:00:3f:e9:62:55:8d:ce:c0:e3:13:aa:
        29:ec:d2:ef:31:95:d6:15:50:42:89:5c:57:cb:e6:b1:51:f7:
        d1:b6:6f:51:67:bc:f8:de:de:d5:c1:2f:58:41:d3:96:e0:1f:
        88:a4:7d:d1:77:70:5f:4b:7e:09:9f:a8:57:3c:25:c5:f0:ec:
        72:1c:8a:6f:bc:04:05:74:85:09:fc:38:a2:db:2d:25:1d:4d:
        dc:85:8d:ee:7c:2b:e9:60:67:2e:ae:35:7b:a2:6c:0b:63:bf:
        b1:d2:79:a6:15:c1:98:59:b5:c1:9d:99:0c:83:66:05:a4:98:
        16:5d:b3:2f:33:50:0a:d9:c3:c1:c0:60:a0:87:cc:97:24:1d:
        20:e1:9b:cf:3a:ca:c8:95:51:ad:e0:a7:a0:75:f2:40:6e:a0:
        06:0d:86:b6:33:ac:c1:f2:07:b6:23:d7:39:28:e4:aa:7d:ba:
        b9:1f:96:69:10:fe:05:9e:d7:88:f4:56:0a:08:a6:aa:40:f4:
        53:67:e9:0f:45:f7:fe:f2:31:9d:9d:94:c2:bd:1e:3f:a7:93:
        30:8f:3c:8d:23:26:fc:85:ad:64:4d:85:4e:19:db:49:5a:1c:
        81:36:db:8f
-----BEGIN CERTIFICATE-----
MIIDczCCAlugAwIBAgIQapXhzucnIwFM/mucrFIi1zANBgkqhkiG9w0BAQsFADAV
MRMwEQYDVQQDDAp0ZWFtNzEtbmV0MB4XDTIzMTEwNDEwNDE0MVoXDTI2MTAxOTEw
NDE0MVowGDEWMBQGA1UEAwwNdGVhbTcxLXNlcnZlcjCCASIwDQYJKoZIhvcNAQEB
BQADggEPADCCAQoCggEBANc2IAUcbKEFFeqjMuoZnuDlMPsFsLOm9Mznm4TEfxtH
L/qAStNxY1+pvYM+yhQal62v/iNPT1azqr4BdtX/9ZpqUg3NLbE9poJLBDfPHItG
L2El+UXbFzDlf0T4/kvT6sHH4HvULU0vSViPFoedCCR0G1Si6TYzwnaMcYrNd1Wd
gKuKSEGFXosjxDMP8+4kQYzK8S/gkMs1FfmK+Zatf4sFfHOFZHSoIMzjJLhc7ZVn
3QzKEWef6Tr23m+k1NTKCO6TtlYjS8m9p1cFRbJKU//76hEjoI8ckFPW8F1r1g3f
EjkexYqhjhwzdJA1qZBBunY8DWZ81DQlKmaKq8sWHlMCAwEAAaOBuzCBuDAJBgNV
HRMEAjAAMB0GA1UdDgQWBBRO1gr6K1IB2O/HbHRLhWsq6iykXjBQBgNVHSMESTBH
gBSceHE773p3B9pr35H8wGOooXsp0aEZpBcwFTETMBEGA1UEAwwKdGVhbTcxLW5l
dIIUHUB+IzyDlzKVvXzpwl0QqJLx8D8wEwYDVR0lBAwwCgYIKwYBBQUHAwEwCwYD
VR0PBAQDAgWgMBgGA1UdEQQRMA+CDXRlYW03MS1zZXJ2ZXIwDQYJKoZIhvcNAQEL
BQADggEBABFhZQTN2Ice3RptD/qKnct+VZhvYgE7oswAP+liVY3OwOMTqins0u8x
ldYVUEKJXFfL5rFR99G2b1FnvPje3tXBL1hB05bgH4ikfdF3cF9LfgmfqFc8JcXw
7HIcim+8BAV0hQn8OKLbLSUdTdyFje58K+lgZy6uNXuibAtjv7HSeaYVwZhZtcGd
mQyDZgWkmBZdsy8zUArZw8HAYKCHzJckHSDhm886ysiVUa3gp6B18kBuoAYNhrYz
rMHyB7Yj1zko5Kp9urkflmkQ/gWe14j0VgoIpqpA9FNn6Q9F9/7yMZ2dlMK9Hj+n
kzCPPI0jJvyFrWRNhU4Z20laHIE2248=
-----END CERTIFICATE-----
