Certificate:
    Data:
        Version: 3 (0x2)
        Serial Number:
            90:29:19:43:49:5c:f1:ef:9c:5b:bf:8c:7e:d5:49:99
        Signature Algorithm: sha256WithRSAEncryption
        Issuer: CN=team71-net
        Validity
            Not Before: Nov  4 11:28:45 2023 GMT
            Not After : Oct 19 11:28:45 2026 GMT
        Subject: CN=team71-server
        Subject Public Key Info:
            Public Key Algorithm: rsaEncryption
                Public-Key: (2048 bit)
                Modulus:
                    00:ef:f1:87:e8:9f:9f:fa:e7:16:91:45:35:ed:d3:
                    3e:35:3b:4a:bb:1d:34:e9:28:07:85:74:4c:a4:d3:
                    e1:47:ec:f7:9d:63:51:c6:b4:2b:f1:80:24:01:81:
                    46:ce:95:dc:6e:5a:15:72:b2:ed:71:fd:d6:20:5b:
                    ab:7d:fa:c9:3a:82:6e:5c:98:c9:83:60:45:9f:4e:
                    6c:68:4c:de:ef:41:52:eb:99:d0:91:ed:5e:6b:7b:
                    7a:8d:b0:ae:f5:63:c8:aa:3a:f6:c4:5c:70:68:75:
                    63:26:57:02:71:05:a5:40:5b:46:84:7b:2e:4f:8b:
                    d4:ce:94:21:cc:9f:b9:48:8d:4b:19:43:8a:cc:8a:
                    eb:ef:b8:56:ac:4d:39:54:1f:31:77:a0:10:29:b3:
                    89:c7:e3:ac:ed:9e:f8:fc:fe:53:72:9f:dd:44:75:
                    c8:dd:17:ce:2e:88:52:71:69:93:97:23:cc:9c:83:
                    50:f6:2c:fe:2d:bf:1b:c5:74:f2:77:bc:ab:9b:0a:
                    7f:2d:d2:dc:fa:5e:b3:16:60:ef:ab:07:cf:fb:91:
                    dd:bf:34:24:54:6d:69:67:42:1a:86:e0:25:68:35:
                    9e:b4:79:44:4f:ea:00:df:01:fd:92:03:1b:09:ca:
                    71:ce:e7:cf:09:5c:cd:03:aa:97:29:e4:d1:5e:9b:
                    85:95
                Exponent: 65537 (0x10001)
        X509v3 extensions:
            X509v3 Basic Constraints: 
                CA:FALSE
            X509v3 Subject Key Identifier: 
                5A:6C:49:43:93:B3:5B:AD:84:86:0C:EF:A9:8E:DC:48:BC:02:D0:4C
            X509v3 Authority Key Identifier: 
                keyid:31:44:A3:05:D6:1F:8A:AB:80:67:C6:C2:5B:A9:94:12:43:BA:72:57
                DirName:/CN=team71-net
                serial:4B:77:03:E5:40:7E:3A:D8:91:C8:CF:7F:9C:EB:FF:74:19:11:7E:45
            X509v3 Extended Key Usage: 
                TLS Web Server Authentication
            X509v3 Key Usage: 
                Digital Signature, Key Encipherment
            X509v3 Subject Alternative Name: 
                DNS:team71-server
    Signature Algorithm: sha256WithRSAEncryption
    Signature Value:
        0d:48:9c:05:6d:7d:31:83:80:19:af:96:17:df:d2:22:16:c9:
        02:27:bb:5f:8c:a0:51:87:64:93:42:79:79:39:2f:8a:e1:3b:
        62:00:63:1f:ca:54:b7:3a:00:7e:4c:00:f3:a0:e1:25:34:6f:
        53:fc:2e:ed:d7:05:72:21:88:ec:74:be:3a:a0:73:d8:87:05:
        3a:73:9f:a7:f4:75:45:fc:bf:80:83:2e:ca:63:24:45:69:c3:
        98:f5:48:4c:76:f6:1c:52:db:3d:09:4c:b6:c5:f5:3c:d5:8f:
        23:4f:57:f5:a4:85:c5:cd:47:c5:5b:e7:10:f3:ea:61:88:cc:
        98:41:3a:e4:dd:07:fe:2d:a5:a9:8c:a9:3e:90:4c:54:e6:58:
        b5:a3:8b:e5:d1:20:5c:b9:ae:0f:6b:d4:95:e3:9d:c6:ab:76:
        f2:d2:cf:70:f5:66:97:a1:18:5c:62:fe:78:58:ee:f4:0a:1a:
        ab:4b:ee:fa:68:ef:e4:c4:ad:43:c3:53:9e:13:6f:ba:c3:71:
        f2:e2:d8:6a:1e:d3:24:b7:48:60:e4:c3:4d:e2:03:0e:93:1a:
        62:31:5f:a3:03:80:37:b7:47:ca:99:73:e4:be:0d:57:18:65:
        55:80:e1:3b:98:46:32:3a:65:c1:a9:fc:b1:87:ef:2c:35:4c:
        0e:b5:32:e9
-----BEGIN CERTIFICATE-----
MIIDdDCCAlygAwIBAgIRAJApGUNJXPHvnFu/jH7VSZkwDQYJKoZIhvcNAQELBQAw
FTETMBEGA1UEAwwKdGVhbTcxLW5ldDAeFw0yMzExMDQxMTI4NDVaFw0yNjEwMTkx
MTI4NDVaMBgxFjAUBgNVBAMMDXRlYW03MS1zZXJ2ZXIwggEiMA0GCSqGSIb3DQEB
AQUAA4IBDwAwggEKAoIBAQDv8Yfon5/65xaRRTXt0z41O0q7HTTpKAeFdEyk0+FH
7PedY1HGtCvxgCQBgUbOldxuWhVysu1x/dYgW6t9+sk6gm5cmMmDYEWfTmxoTN7v
QVLrmdCR7V5re3qNsK71Y8iqOvbEXHBodWMmVwJxBaVAW0aEey5Pi9TOlCHMn7lI
jUsZQ4rMiuvvuFasTTlUHzF3oBAps4nH46ztnvj8/lNyn91EdcjdF84uiFJxaZOX
I8ycg1D2LP4tvxvFdPJ3vKubCn8t0tz6XrMWYO+rB8/7kd2/NCRUbWlnQhqG4CVo
NZ60eURP6gDfAf2SAxsJynHO588JXM0Dqpcp5NFem4WVAgMBAAGjgbswgbgwCQYD
VR0TBAIwADAdBgNVHQ4EFgQUWmxJQ5OzW62EhgzvqY7cSLwC0EwwUAYDVR0jBEkw
R4AUMUSjBdYfiquAZ8bCW6mUEkO6clehGaQXMBUxEzARBgNVBAMMCnRlYW03MS1u
ZXSCFEt3A+VAfjrYkcjPf5zr/3QZEX5FMBMGA1UdJQQMMAoGCCsGAQUFBwMBMAsG
A1UdDwQEAwIFoDAYBgNVHREEETAPgg10ZWFtNzEtc2VydmVyMA0GCSqGSIb3DQEB
CwUAA4IBAQANSJwFbX0xg4AZr5YX39IiFskCJ7tfjKBRh2STQnl5OS+K4TtiAGMf
ylS3OgB+TADzoOElNG9T/C7t1wVyIYjsdL46oHPYhwU6c5+n9HVF/L+Agy7KYyRF
acOY9UhMdvYcUts9CUy2xfU81Y8jT1f1pIXFzUfFW+cQ8+phiMyYQTrk3Qf+LaWp
jKk+kExU5li1o4vl0SBcua4Pa9SV453Gq3by0s9w9WaXoRhcYv54WO70ChqrS+76
aO/kxK1Dw1OeE2+6w3Hy4thqHtMkt0hg5MNN4gMOkxpiMV+jA4A3t0fKmXPkvg1X
GGVVgOE7mEYyOmXBqfyxh+8sNUwOtTLp
-----END CERTIFICATE-----
