Certificate:
    Data:
        Version: 3 (0x2)
        Serial Number:
            a1:d9:9d:26:1b:1a:6a:85:63:19:d5:d2:10:fa:a1:20
        Signature Algorithm: sha256WithRSAEncryption
        Issuer: CN=team87-net
        Validity
            Not Before: Nov  4 11:29:03 2023 GMT
            Not After : Oct 19 11:29:03 2026 GMT
        Subject: CN=team87-client
        Subject Public Key Info:
            Public Key Algorithm: rsaEncryption
                Public-Key: (2048 bit)
                Modulus:
                    00:b0:ba:b3:52:17:10:47:7f:66:ff:3e:37:67:98:
                    3a:b2:3c:3c:3e:b8:4a:9a:5d:95:95:c9:99:e5:a5:
                    8e:e9:a1:60:51:a6:ff:dc:99:a7:a6:78:92:79:8e:
                    65:5a:94:0a:7b:5a:5f:5d:ac:27:c5:bb:0c:b6:3d:
                    6f:a1:91:20:05:e9:bf:18:b0:e6:f2:1c:11:a5:0b:
                    12:56:95:5a:80:53:55:b4:47:e3:a3:8b:94:00:c4:
                    49:90:16:8b:54:4f:f2:bc:da:2c:93:9d:7a:53:88:
                    1a:6d:8a:a9:b7:e1:0a:91:f3:26:fb:13:90:80:b0:
                    37:db:4d:2c:ec:5b:18:1d:77:00:74:54:61:e7:01:
                    2b:04:c5:5e:8f:1e:47:5b:a1:92:02:a2:ad:fa:98:
                    b7:0f:a6:f1:83:e0:86:e2:9d:6e:f3:b9:4a:35:b9:
                    e6:59:35:02:71:1d:41:49:7e:8c:f9:b9:e7:0c:f4:
                    50:e3:3b:d3:b7:42:bb:a9:99:6a:04:b6:92:82:5b:
                    5f:fe:bd:aa:95:fb:76:ee:96:a4:0c:34:c2:07:7b:
                    e2:0f:95:8d:a1:bf:e6:09:43:fd:02:51:a9:da:75:
                    92:6d:d9:42:dd:3d:8e:2d:af:fc:6a:61:71:57:fd:
                    c7:a1:64:32:17:43:12:58:fe:2f:62:13:24:5e:59:
                    14:3f
                Exponent: 65537 (0x10001)
        X509v3 extensions:
            X509v3 Basic Constraints: 
                CA:FALSE
            X509v3 Subject Key Identifier: 
                D1:40:CF:48:1C:26:D1:E0:22:3F:EC:16:12:B8:91:CF:DD:2D:32:75
            X509v3 Authority Key Identifier: 
                keyid:BF:FB:61:6A:A1:59:1B:29:2F:E1:9B:A1:03:07:2A:18:68:EA:2A:BD
                DirName:/CN=team87-net
                serial:13:4F:F4:60:E1:A2:45:93:CA:A5:1C:40:54:26:76:BD:52:34:B0:1A
            X509v3 Extended Key Usage: 
                TLS Web Client Authentication
            X509v3 Key Usage: 
                Digital Signature
    Signature Algorithm: sha256WithRSAEncryption
    Signature Value:
        2c:44:aa:2f:69:73:d1:6b:bc:2b:df:f3:04:35:21:8d:65:67:
        36:f1:9f:9a:2a:a3:95:12:d9:34:64:2b:35:9e:ca:db:b1:99:
        c5:ba:25:80:86:70:ac:df:18:a0:ab:55:96:bf:39:f5:a7:f7:
        2c:7d:ae:f5:8a:9f:09:11:f5:4f:b0:f6:2f:8d:4a:2e:9a:ff:
        18:29:47:89:62:73:d0:4e:c3:89:1d:47:c8:b0:32:38:2e:89:
        7e:ef:e4:a6:57:49:3f:b5:b5:b8:83:e3:0e:30:9a:83:72:7d:
        04:4b:dc:94:af:59:02:7f:d1:36:78:71:69:dd:35:3e:30:86:
        57:23:a4:ec:18:b6:b3:8a:8f:d9:87:05:37:bd:90:28:19:8c:
        4e:a6:a4:af:4b:48:5f:e6:d4:5e:59:e4:88:b5:59:89:ec:2b:
        d4:6d:06:32:5c:20:cd:30:b0:1d:f3:e6:14:e6:79:8b:26:40:
        5c:2e:a0:3b:99:a4:50:26:f4:9f:c3:b3:2a:5b:53:c4:a5:be:
        6b:f2:2e:49:53:72:0f:df:9b:27:f6:66:40:03:4a:fe:3a:d4:
        99:ea:43:2c:4b:fd:c7:b8:1d:a4:c6:2f:bb:2a:f0:8d:43:55:
        f1:c3:55:6f:12:ed:9d:1b:25:b8:33:0a:27:3f:25:6a:9c:cd:
        56:72:45:42
-----BEGIN CERTIFICATE-----
MIIDWjCCAkKgAwIBAgIRAKHZnSYbGmqFYxnV0hD6oSAwDQYJKoZIhvcNAQELBQAw
FTETMBEGA1UEAwwKdGVhbTg3LW5ldDAeFw0yMzExMDQxMTI5MDNaFw0yNjEwMTkx
MTI5MDNaMBgxFjAUBgNVBAMMDXRlYW04Ny1jbGllbnQwggEiMA0GCSqGSIb3DQEB
AQUAA4IBDwAwggEKAoIBAQCwurNSFxBHf2b/PjdnmDqyPDw+uEqaXZWVyZnlpY7p
oWBRpv/cmaemeJJ5jmValAp7Wl9drCfFuwy2PW+hkSAF6b8YsObyHBGlCxJWlVqA
U1W0R+Oji5QAxEmQFotUT/K82iyTnXpTiBptiqm34QqR8yb7E5CAsDfbTSzsWxgd
dwB0VGHnASsExV6PHkdboZICoq36mLcPpvGD4IbinW7zuUo1ueZZNQJxHUFJfoz5
uecM9FDjO9O3QrupmWoEtpKCW1/+vaqV+3bulqQMNMIHe+IPlY2hv+YJQ/0CUana
dZJt2ULdPY4tr/xqYXFX/cehZDIXQxJY/i9iEyReWRQ/AgMBAAGjgaEwgZ4wCQYD
VR0TBAIwADAdBgNVHQ4EFgQU0UDPSBwm0eAiP+wWEriRz90tMnUwUAYDVR0jBEkw
R4AUv/thaqFZGykv4ZuhAwcqGGjqKr2hGaQXMBUxEzARBgNVBAMMCnRlYW04Ny1u
ZXSCFBNP9GDhokWTyqUcQFQmdr1SNLAaMBMGA1UdJQQMMAoGCCsGAQUFBwMCMAsG
A1UdDwQEAwIHgDANBgkqhkiG9w0BAQsFAAOCAQEALESqL2lz0Wu8K9/zBDUhjWVn
NvGfmiqjlRLZNGQrNZ7K27GZxbolgIZwrN8YoKtVlr859af3LH2u9YqfCRH1T7D2
L41KLpr/GClHiWJz0E7DiR1HyLAyOC6Jfu/kpldJP7W1uIPjDjCag3J9BEvclK9Z
An/RNnhxad01PjCGVyOk7Bi2s4qP2YcFN72QKBmMTqakr0tIX+bUXlnkiLVZiewr
1G0GMlwgzTCwHfPmFOZ5iyZAXC6gO5mkUCb0n8OzKltTxKW+a/IuSVNyD9+bJ/Zm
QANK/jrUmepDLEv9x7gdpMYvuyrwjUNV8cNVbxLtnRsluDMKJz8lapzNVnJFQg==
-----END CERTIFICATE-----
