Certificate:
    Data:
        Version: 3 (0x2)
        Serial Number:
            ee:8b:6c:57:a2:d4:59:de:81:6b:e4:c0:d1:a8:40:59
        Signature Algorithm: sha256WithRSAEncryption
        Issuer: CN=team87-net
        Validity
            Not Before: Nov  3 20:40:42 2023 GMT
            Not After : Oct 18 20:40:42 2026 GMT
        Subject: CN=team87-server
        Subject Public Key Info:
            Public Key Algorithm: rsaEncryption
                Public-Key: (2048 bit)
                Modulus:
                    00:aa:fd:27:ac:7b:1b:90:11:4b:92:9e:d5:fb:1a:
                    74:b4:d5:92:37:3a:89:a5:0b:24:3e:7e:bc:3f:18:
                    50:0a:ee:29:93:83:c7:2c:74:11:26:f9:39:78:d2:
                    ce:f7:b2:80:6d:c3:7f:0b:54:e4:43:1a:76:e4:a4:
                    d1:7c:17:2f:a4:41:55:ee:9d:57:6e:42:21:f7:2b:
                    43:c3:20:d0:3b:25:0a:4d:9b:9b:4e:e4:37:9e:bb:
                    fd:aa:99:c5:79:72:43:b2:a5:f7:fa:a8:48:c6:b2:
                    82:57:db:d2:08:d4:2e:fb:77:2f:66:a4:b4:c7:27:
                    49:21:cd:c7:14:42:28:73:6a:e0:86:64:0c:25:ad:
                    ed:a3:b6:25:47:cf:97:b0:53:0b:d7:61:24:3a:f6:
                    3c:d4:c5:40:19:d3:61:4c:97:33:92:a4:c8:70:e3:
                    34:99:0f:cd:b2:89:41:6d:cd:ed:f8:77:5c:b8:2f:
                    d8:70:ad:77:72:34:82:96:a8:ee:de:ad:35:15:f1:
                    0b:6a:35:0f:c3:37:74:67:64:f6:87:53:cd:4c:03:
                    9d:7f:de:61:99:55:4b:6b:c8:15:4c:40:e8:4c:96:
                    c0:6e:56:4a:ae:12:6c:29:20:48:c5:c0:d0:0b:1e:
                    14:9f:17:2b:6c:46:17:2f:39:6f:39:d6:50:f5:30:
                    9d:59
                Exponent: 65537 (0x10001)
        X509v3 extensions:
            X509v3 Basic Constraints: 
                CA:FALSE
            X509v3 Subject Key Identifier: 
                E4:EF:F2:6F:F5:33:EE:A6:56:20:E1:C8:40:A3:67:7D:3D:E1:20:94
            X509v3 Authority Key Identifier: 
                keyid:E2:D3:AC:AC:C5:BA:B7:E7:CD:77:54:E6:A5:8E:35:1C:B9:F5:F4:5F
                DirName:/CN=team87-net
                serial:61:7C:27:70:DF:20:D7:08:52:92:65:17:86:C5:0F:E2:B2:B1:0C:6D
            X509v3 Extended Key Usage: 
                TLS Web Server Authentication
            X509v3 Key Usage: 
                Digital Signature, Key Encipherment
            X509v3 Subject Alternative Name: 
                DNS:team87-server
    Signature Algorithm: sha256WithRSAEncryption
    Signature Value:
        47:c8:99:27:fc:44:ba:d3:96:b6:a0:2b:f9:51:54:3c:e3:84:
        8b:19:2e:2a:dc:f4:c8:b2:de:a2:a3:2b:55:d5:94:12:35:b4:
        34:8f:ed:82:72:79:03:af:ec:c4:36:40:62:42:af:f5:f0:14:
        63:ff:ef:e1:a6:e6:6a:fa:b7:a5:0a:2a:74:17:e8:6c:b6:87:
        13:be:2e:01:fa:5a:79:99:2f:a5:7b:b0:d4:62:a0:f6:f4:f7:
        9d:e7:23:84:11:47:48:86:80:d2:70:ca:1c:36:06:00:5f:d8:
        7e:b7:21:05:46:e6:61:1d:39:22:b7:83:9d:06:44:5f:e2:12:
        7a:53:37:d9:ea:0a:bc:89:07:fc:29:9a:57:1c:bf:ff:ee:61:
        73:1a:6a:f7:b9:b4:6c:e5:68:7a:ee:39:5b:6c:e6:b3:2f:a5:
        f2:26:38:48:67:cd:e0:6a:78:84:f9:40:04:40:4c:08:3b:8d:
        85:00:f6:7c:7d:e5:71:fe:2a:c8:f6:4c:e4:ca:93:ec:d5:df:
        75:e1:24:01:6e:0c:eb:80:ec:5e:8a:bd:07:4d:50:65:a1:71:
        b1:4a:c8:a9:86:d2:4a:ab:35:00:85:db:c9:e1:4c:29:ba:29:
        49:0d:c0:87:d2:9e:fd:a5:0c:d9:26:e1:62:53:52:dc:3b:ed:
        46:74:f5:46
-----BEGIN CERTIFICATE-----
MIIDdDCCAlygAwIBAgIRAO6LbFei1FnegWvkwNGoQFkwDQYJKoZIhvcNAQELBQAw
FTETMBEGA1UEAwwKdGVhbTg3LW5ldDAeFw0yMzExMDMyMDQwNDJaFw0yNjEwMTgy
MDQwNDJaMBgxFjAUBgNVBAMMDXRlYW04Ny1zZXJ2ZXIwggEiMA0GCSqGSIb3DQEB
AQUAA4IBDwAwggEKAoIBAQCq/SesexuQEUuSntX7GnS01ZI3OomlCyQ+frw/GFAK
7imTg8csdBEm+Tl40s73soBtw38LVORDGnbkpNF8Fy+kQVXunVduQiH3K0PDINA7
JQpNm5tO5Deeu/2qmcV5ckOypff6qEjGsoJX29II1C77dy9mpLTHJ0khzccUQihz
auCGZAwlre2jtiVHz5ewUwvXYSQ69jzUxUAZ02FMlzOSpMhw4zSZD82yiUFtze34
d1y4L9hwrXdyNIKWqO7erTUV8QtqNQ/DN3RnZPaHU81MA51/3mGZVUtryBVMQOhM
lsBuVkquEmwpIEjFwNALHhSfFytsRhcvOW851lD1MJ1ZAgMBAAGjgbswgbgwCQYD
VR0TBAIwADAdBgNVHQ4EFgQU5O/yb/Uz7qZWIOHIQKNnfT3hIJQwUAYDVR0jBEkw
R4AU4tOsrMW6t+fNd1TmpY41HLn19F+hGaQXMBUxEzARBgNVBAMMCnRlYW04Ny1u
ZXSCFGF8J3DfINcIUpJlF4bFD+KysQxtMBMGA1UdJQQMMAoGCCsGAQUFBwMBMAsG
A1UdDwQEAwIFoDAYBgNVHREEETAPgg10ZWFtODctc2VydmVyMA0GCSqGSIb3DQEB
CwUAA4IBAQBHyJkn/ES605a2oCv5UVQ844SLGS4q3PTIst6ioytV1ZQSNbQ0j+2C
cnkDr+zENkBiQq/18BRj/+/hpuZq+relCip0F+hstocTvi4B+lp5mS+le7DUYqD2
9Ped5yOEEUdIhoDScMocNgYAX9h+tyEFRuZhHTkit4OdBkRf4hJ6UzfZ6gq8iQf8
KZpXHL//7mFzGmr3ubRs5Wh67jlbbOazL6XyJjhIZ83ganiE+UAEQEwIO42FAPZ8
feVx/irI9kzkypPs1d914SQBbgzrgOxeir0HTVBloXGxSsiphtJKqzUAhdvJ4Uwp
uilJDcCH0p79pQzZJuFiU1LcO+1GdPVG
-----END CERTIFICATE-----
