Certificate:
    Data:
        Version: 3 (0x2)
        Serial Number:
            05:1c:02:54:b7:d0:ff:61:e9:9e:43:f8:dd:f7:7c:ff
        Signature Algorithm: sha256WithRSAEncryption
        Issuer: CN=team214-net
        Validity
            Not Before: Nov  4 10:44:38 2023 GMT
            Not After : Oct 19 10:44:38 2026 GMT
        Subject: CN=team214-client
        Subject Public Key Info:
            Public Key Algorithm: rsaEncryption
                Public-Key: (2048 bit)
                Modulus:
                    00:a1:b7:02:1e:e5:b1:f2:5f:87:f2:3d:8b:9d:6c:
                    b2:9d:29:b0:3d:f8:15:38:f9:58:88:ff:29:a2:71:
                    c6:e5:12:06:a7:af:67:90:be:f6:2f:f1:87:5b:96:
                    83:ea:64:ea:43:25:be:c2:5d:0c:a5:bc:b9:7a:ea:
                    95:19:32:af:e7:6e:ae:41:c7:ae:94:e4:0b:7f:50:
                    fa:73:29:34:d3:52:b8:e7:c0:6d:7e:38:6a:cb:58:
                    c6:1d:19:60:80:88:60:03:c0:28:6e:2b:49:94:d6:
                    8b:1f:79:fb:5d:77:79:86:31:59:77:08:dc:7b:84:
                    de:7c:ef:a4:bf:c2:f2:92:44:31:55:8c:de:e9:e9:
                    17:99:90:5c:28:ef:c7:79:ae:6f:c4:f1:db:70:ee:
                    16:96:73:c7:11:f0:3e:45:17:9c:58:cd:b0:18:4d:
                    bd:b5:61:1a:98:cb:57:62:65:77:e7:00:0b:af:0a:
                    3d:8c:88:21:b9:e4:82:3a:05:78:22:48:86:b3:23:
                    77:c8:2e:80:2b:85:39:59:ac:62:c2:93:cb:89:d7:
                    72:bd:3c:b4:75:bc:c0:eb:e3:83:85:95:fa:c2:15:
                    35:b9:eb:b7:67:9a:1f:28:62:80:9d:0c:ae:8c:90:
                    c9:ac:96:ad:95:99:e9:62:02:67:2a:33:02:b0:03:
                    aa:37
                Exponent: 65537 (0x10001)
        X509v3 extensions:
            X509v3 Basic Constraints: 
                CA:FALSE
            X509v3 Subject Key Identifier: 
                EF:71:93:80:38:EE:A3:F3:6E:69:3F:71:30:21:1D:F4:47:BE:B5:C8
            X509v3 Authority Key Identifier: 
                keyid:49:6D:91:85:88:7B:C0:3B:4F:98:C5:BE:79:3D:10:57:79:93:EA:48
                DirName:/CN=team214-net
                serial:0C:27:C8:CC:2E:53:08:C3:F5:27:2E:80:F4:84:39:CA:A4:FD:33:52
            X509v3 Extended Key Usage: 
                TLS Web Client Authentication
            X509v3 Key Usage: 
                Digital Signature
    Signature Algorithm: sha256WithRSAEncryption
    Signature Value:
        22:43:b5:15:77:a9:3b:4a:35:db:df:2d:50:bb:c5:07:be:ff:
        06:74:7c:02:16:0d:f2:0a:ec:5a:1f:68:57:3a:28:6e:d3:a4:
        ab:39:33:91:a1:06:56:56:87:de:19:76:9f:62:ed:4c:a9:8e:
        43:50:87:c4:db:06:51:00:43:f9:69:72:c8:3e:5b:bb:af:87:
        41:04:c0:eb:7d:b2:8b:8e:b8:41:5f:e0:9c:d6:3c:26:70:98:
        89:0a:a3:de:e0:ce:69:50:36:21:a6:1a:2e:11:4d:de:88:3d:
        e4:42:1e:6f:27:8d:47:9b:f5:30:cd:96:27:7e:07:a5:97:fa:
        6d:b4:a8:37:01:5c:0d:f6:41:22:d6:ce:33:ba:39:ec:86:af:
        d0:f9:96:e2:d2:de:44:19:94:e8:99:80:52:c4:d9:51:d6:e9:
        16:1c:13:7f:b3:8f:88:0d:f7:e0:30:9d:1b:04:0b:7a:1e:ad:
        fc:70:34:a5:07:32:3b:b3:70:f8:04:e9:8a:5b:f6:4e:76:a4:
        a5:a3:c2:74:74:dd:81:c7:4e:22:ab:35:fb:ce:86:64:42:2b:
        41:25:c4:84:91:00:72:0c:f3:b0:ea:e6:be:70:7e:64:03:c5:
        50:9c:38:95:d9:24:92:35:b4:cc:f4:12:b7:55:4d:d8:6e:bc:
        cb:51:ee:55
-----BEGIN CERTIFICATE-----
MIIDXDCCAkSgAwIBAgIQBRwCVLfQ/2HpnkP43fd8/zANBgkqhkiG9w0BAQsFADAW
MRQwEgYDVQQDDAt0ZWFtMjE0LW5ldDAeFw0yMzExMDQxMDQ0MzhaFw0yNjEwMTkx
MDQ0MzhaMBkxFzAVBgNVBAMMDnRlYW0yMTQtY2xpZW50MIIBIjANBgkqhkiG9w0B
AQEFAAOCAQ8AMIIBCgKCAQEAobcCHuWx8l+H8j2LnWyynSmwPfgVOPlYiP8ponHG
5RIGp69nkL72L/GHW5aD6mTqQyW+wl0Mpby5euqVGTKv526uQceulOQLf1D6cyk0
01K458Btfjhqy1jGHRlggIhgA8AobitJlNaLH3n7XXd5hjFZdwjce4TefO+kv8Ly
kkQxVYze6ekXmZBcKO/Hea5vxPHbcO4WlnPHEfA+RRecWM2wGE29tWEamMtXYmV3
5wALrwo9jIghueSCOgV4IkiGsyN3yC6AK4U5WaxiwpPLiddyvTy0dbzA6+ODhZX6
whU1ueu3Z5ofKGKAnQyujJDJrJatlZnpYgJnKjMCsAOqNwIDAQABo4GiMIGfMAkG
A1UdEwQCMAAwHQYDVR0OBBYEFO9xk4A47qPzbmk/cTAhHfRHvrXIMFEGA1UdIwRK
MEiAFEltkYWIe8A7T5jFvnk9EFd5k+pIoRqkGDAWMRQwEgYDVQQDDAt0ZWFtMjE0
LW5ldIIUDCfIzC5TCMP1Jy6A9IQ5yqT9M1IwEwYDVR0lBAwwCgYIKwYBBQUHAwIw
CwYDVR0PBAQDAgeAMA0GCSqGSIb3DQEBCwUAA4IBAQAiQ7UVd6k7SjXb3y1Qu8UH
vv8GdHwCFg3yCuxaH2hXOihu06SrOTORoQZWVofeGXafYu1MqY5DUIfE2wZRAEP5
aXLIPlu7r4dBBMDrfbKLjrhBX+Cc1jwmcJiJCqPe4M5pUDYhphouEU3eiD3kQh5v
J41Hm/UwzZYnfgell/pttKg3AVwN9kEi1s4zujnshq/Q+Zbi0t5EGZTomYBSxNlR
1ukWHBN/s4+IDffgMJ0bBAt6Hq38cDSlBzI7s3D4BOmKW/ZOdqSlo8J0dN2Bx04i
qzX7zoZkQitBJcSEkQByDPOw6ua+cH5kA8VQnDiV2SSSNbTM9BK3VU3YbrzLUe5V
-----END CERTIFICATE-----
