Certificate:
    Data:
        Version: 3 (0x2)
        Serial Number:
            76:00:8c:0d:ae:32:4b:9a:9a:ca:7d:93:d8:fe:e6:81
        Signature Algorithm: sha256WithRSAEncryption
        Issuer: CN=team214-net
        Validity
            Not Before: Nov  4 11:31:50 2023 GMT
            Not After : Oct 19 11:31:50 2026 GMT
        Subject: CN=team214-client
        Subject Public Key Info:
            Public Key Algorithm: rsaEncryption
                Public-Key: (2048 bit)
                Modulus:
                    00:b4:11:c5:8a:d0:e9:6a:28:5a:f5:62:95:65:1f:
                    a0:74:9b:55:ae:c0:d0:6f:f3:58:25:ff:29:27:1a:
                    6f:91:a4:73:bd:9e:90:8b:40:d6:72:9f:fa:ef:1e:
                    8f:a7:8d:fe:d6:6f:3b:f5:2a:76:b9:37:3d:f0:24:
                    86:d7:41:65:03:58:8d:ea:d4:bf:32:f8:75:73:fb:
                    ac:72:41:b5:00:4a:7e:92:0d:af:65:f0:f4:2e:86:
                    6a:d4:c6:d8:31:c2:45:0a:37:a4:5e:c2:00:8c:dc:
                    2a:3e:d1:60:e6:36:c2:bf:de:d3:1e:67:c8:d7:8c:
                    d6:bb:83:ec:5d:47:98:40:52:12:86:10:b3:bc:77:
                    23:53:ab:ae:8b:bd:2a:ef:c2:fa:6e:ed:5e:da:1b:
                    f3:26:c6:02:69:e7:7d:4d:88:32:7a:68:fe:95:37:
                    5b:83:f2:4f:a0:9b:b4:81:15:a0:cf:27:72:39:a3:
                    88:9b:a0:79:f3:d6:22:13:09:c3:8d:81:10:32:04:
                    09:23:57:64:a7:0c:c5:62:b8:e0:ab:ca:26:80:35:
                    11:11:40:05:a5:fc:4c:b2:8c:85:2e:d9:f9:73:29:
                    b5:2d:94:80:7c:5f:f7:7d:ee:b7:d1:d6:ca:9a:ac:
                    f3:f1:f6:4e:d0:a5:e8:2c:3b:0e:a7:9d:9f:e6:5e:
                    cc:df
                Exponent: 65537 (0x10001)
        X509v3 extensions:
            X509v3 Basic Constraints: 
                CA:FALSE
            X509v3 Subject Key Identifier: 
                C9:3C:F9:BF:2E:DD:A0:E8:DF:56:31:01:3C:67:24:33:A9:B5:40:EA
            X509v3 Authority Key Identifier: 
                keyid:FA:48:C4:21:A7:51:7A:65:77:C4:64:54:AD:9A:5C:82:94:AE:8C:08
                DirName:/CN=team214-net
                serial:22:6E:13:37:74:AD:E5:83:DD:7D:CA:FE:29:29:03:F5:01:05:68:CE
            X509v3 Extended Key Usage: 
                TLS Web Client Authentication
            X509v3 Key Usage: 
                Digital Signature
    Signature Algorithm: sha256WithRSAEncryption
    Signature Value:
        b2:01:f6:6b:54:4e:0b:2d:e6:e0:68:14:2a:cb:06:cb:c6:6a:
        8f:16:78:0b:90:94:64:94:53:80:7a:4d:85:ba:6f:ae:74:12:
        2f:d2:8a:b1:7e:d4:f2:e7:2d:16:38:19:fa:8d:92:69:0f:ba:
        be:f1:5f:10:99:b1:b6:71:3f:98:76:b7:79:a5:31:f5:71:80:
        85:72:dd:b0:6b:fb:4e:52:04:f9:30:75:19:1e:36:40:c8:a8:
        b8:8c:04:16:ee:c6:27:99:b0:58:a1:7f:93:70:af:23:90:44:
        80:4f:d0:0b:27:0a:ce:b4:eb:6d:c7:d4:2d:9b:0c:b8:d9:c9:
        e0:a3:0f:71:82:ca:39:ef:92:21:46:b6:87:bc:13:8d:67:d0:
        02:fe:b4:ab:8b:e6:dc:a6:b4:6a:a5:6a:d4:79:0a:e9:08:05:
        0f:fd:01:71:11:ad:85:e0:f7:bb:fa:07:f9:34:8b:d2:05:6b:
        0d:0e:b6:d0:5a:4a:e0:9d:38:68:f4:b9:92:e2:2e:5c:7d:c3:
        f1:5c:9b:f8:66:8c:3f:87:6a:a6:ee:bc:fe:8a:bc:2f:5b:a2:
        b3:47:34:57:c9:51:76:5a:db:f1:9f:75:e8:23:d0:5c:b2:ad:
        85:d0:e1:68:40:08:33:26:7c:2e:ab:08:e5:e0:2c:85:b3:bc:
        6b:ce:a9:84
-----BEGIN CERTIFICATE-----
MIIDXDCCAkSgAwIBAgIQdgCMDa4yS5qayn2T2P7mgTANBgkqhkiG9w0BAQsFADAW
MRQwEgYDVQQDDAt0ZWFtMjE0LW5ldDAeFw0yMzExMDQxMTMxNTBaFw0yNjEwMTkx
MTMxNTBaMBkxFzAVBgNVBAMMDnRlYW0yMTQtY2xpZW50MIIBIjANBgkqhkiG9w0B
AQEFAAOCAQ8AMIIBCgKCAQEAtBHFitDpaiha9WKVZR+gdJtVrsDQb/NYJf8pJxpv
kaRzvZ6Qi0DWcp/67x6Pp43+1m879Sp2uTc98CSG10FlA1iN6tS/Mvh1c/usckG1
AEp+kg2vZfD0LoZq1MbYMcJFCjekXsIAjNwqPtFg5jbCv97THmfI14zWu4PsXUeY
QFIShhCzvHcjU6uui70q78L6bu1e2hvzJsYCaed9TYgyemj+lTdbg/JPoJu0gRWg
zydyOaOIm6B589YiEwnDjYEQMgQJI1dkpwzFYrjgq8omgDUREUAFpfxMsoyFLtn5
cym1LZSAfF/3fe630dbKmqzz8fZO0KXoLDsOp52f5l7M3wIDAQABo4GiMIGfMAkG
A1UdEwQCMAAwHQYDVR0OBBYEFMk8+b8u3aDo31YxATxnJDOptUDqMFEGA1UdIwRK
MEiAFPpIxCGnUXpld8RkVK2aXIKUrowIoRqkGDAWMRQwEgYDVQQDDAt0ZWFtMjE0
LW5ldIIUIm4TN3St5YPdfcr+KSkD9QEFaM4wEwYDVR0lBAwwCgYIKwYBBQUHAwIw
CwYDVR0PBAQDAgeAMA0GCSqGSIb3DQEBCwUAA4IBAQCyAfZrVE4LLebgaBQqywbL
xmqPFngLkJRklFOAek2Fum+udBIv0oqxftTy5y0WOBn6jZJpD7q+8V8QmbG2cT+Y
drd5pTH1cYCFct2wa/tOUgT5MHUZHjZAyKi4jAQW7sYnmbBYoX+TcK8jkESAT9AL
JwrOtOttx9Qtmwy42cngow9xgso575IhRraHvBONZ9AC/rSri+bcprRqpWrUeQrp
CAUP/QFxEa2F4Pe7+gf5NIvSBWsNDrbQWkrgnTho9LmS4i5cfcPxXJv4Zow/h2qm
7rz+irwvW6KzRzRXyVF2Wtvxn3XoI9Bcsq2F0OFoQAgzJnwuqwjl4CyFs7xrzqmE
-----END CERTIFICATE-----
