Certificate:
    Data:
        Version: 3 (0x2)
        Serial Number:
            85:38:74:ce:f7:c9:56:8d:c7:fb:13:4c:af:95:cb:fe
        Signature Algorithm: sha256WithRSAEncryption
        Issuer: CN=team214-net
        Validity
            Not Before: Nov  4 10:44:38 2023 GMT
            Not After : Oct 19 10:44:38 2026 GMT
        Subject: CN=team214-server
        Subject Public Key Info:
            Public Key Algorithm: rsaEncryption
                Public-Key: (2048 bit)
                Modulus:
                    00:9e:9d:17:c4:cd:62:69:6f:4d:89:19:84:dd:08:
                    15:69:62:f1:bc:aa:70:d7:a3:ce:4a:36:61:ac:3e:
                    d0:77:4b:73:4e:a9:13:07:53:5b:90:ee:1f:7c:02:
                    cd:5e:7c:93:b1:f6:31:e7:20:72:3d:02:45:87:ec:
                    07:a9:b2:78:50:c9:f5:c9:9d:96:14:ee:02:9e:bb:
                    9e:c9:17:a3:9b:44:ec:31:69:bf:b3:e3:0f:24:b8:
                    50:da:44:6a:6a:0a:5f:d3:44:7b:2c:c1:04:25:36:
                    20:17:74:46:61:b5:fb:2f:5c:64:12:8b:49:7c:c9:
                    91:18:37:16:19:5e:0b:c0:fe:0a:83:42:a2:0d:a5:
                    11:15:6c:c8:28:8d:26:75:7a:d4:c0:ca:4b:62:cb:
                    0c:f1:9c:45:da:bc:ef:e3:32:b4:5a:73:d4:54:2d:
                    27:9e:01:20:76:48:d1:33:24:86:b4:a5:71:e1:33:
                    ba:b7:24:11:59:ac:59:34:ff:05:4e:d8:f9:1e:54:
                    0f:65:0d:5e:f1:cc:57:58:d1:de:95:2d:a5:23:12:
                    81:ed:ee:f5:c7:be:1d:b0:af:44:29:11:69:2d:67:
                    51:48:b0:80:c3:b0:f3:52:b1:6b:9e:1a:a3:c3:03:
                    dc:fe:21:7d:47:32:56:89:ac:84:15:eb:a2:14:3b:
                    76:d7
                Exponent: 65537 (0x10001)
        X509v3 extensions:
            X509v3 Basic Constraints: 
                CA:FALSE
            X509v3 Subject Key Identifier: 
                71:A4:85:5C:67:73:8F:1F:EF:94:29:D0:25:DC:FA:FE:2C:ED:94:97
            X509v3 Authority Key Identifier: 
                keyid:49:6D:91:85:88:7B:C0:3B:4F:98:C5:BE:79:3D:10:57:79:93:EA:48
                DirName:/CN=team214-net
                serial:0C:27:C8:CC:2E:53:08:C3:F5:27:2E:80:F4:84:39:CA:A4:FD:33:52
            X509v3 Extended Key Usage: 
                TLS Web Server Authentication
            X509v3 Key Usage: 
                Digital Signature, Key Encipherment
            X509v3 Subject Alternative Name: 
                DNS:team214-server
    Signature Algorithm: sha256WithRSAEncryption
    Signature Value:
        5a:5e:ce:c4:c3:a0:b6:75:88:be:8f:23:df:6f:ba:7f:d3:b6:
        fd:72:e4:89:2b:0f:72:3d:65:86:82:8b:0f:80:e9:8a:07:80:
        09:20:1b:36:48:94:35:dd:86:a7:29:56:32:7b:40:2d:bd:da:
        d5:52:61:42:be:88:80:fa:72:16:97:26:d2:e2:4e:ae:5d:96:
        df:39:3e:77:46:a9:8d:33:63:b6:71:66:df:8d:7f:9a:b8:49:
        2b:4b:b1:5d:7a:1d:b8:4e:62:26:ed:d4:d5:03:cb:1c:01:fa:
        14:61:5a:ae:fa:94:4c:82:4d:f7:b7:30:de:e0:45:91:42:56:
        5a:01:c4:71:b4:a6:35:d0:4b:ac:4e:b1:64:a3:d9:d2:8d:df:
        cb:b2:e7:77:c2:fd:a4:17:14:ce:88:92:aa:ad:d8:b2:5e:c1:
        b4:ca:d3:45:ae:2b:c4:d3:24:39:d9:c2:f0:83:39:fe:e1:13:
        e6:59:e0:19:66:74:c3:14:05:5d:ba:cf:96:b5:ed:90:57:7f:
        54:15:d8:a6:ff:65:ca:73:7b:52:76:9e:92:7e:50:ca:71:ad:
        ad:3c:81:98:a9:7f:0e:c3:34:35:33:57:62:5a:c4:09:ca:02:
        35:1f:30:2b:76:e6:19:c0:0b:51:19:53:97:6a:72:0a:e5:f1:
        26:3f:7f:ef
-----BEGIN CERTIFICATE-----
MIIDeDCCAmCgAwIBAgIRAIU4dM73yVaNx/sTTK+Vy/4wDQYJKoZIhvcNAQELBQAw
FjEUMBIGA1UEAwwLdGVhbTIxNC1uZXQwHhcNMjMxMTA0MTA0NDM4WhcNMjYxMDE5
MTA0NDM4WjAZMRcwFQYDVQQDDA50ZWFtMjE0LXNlcnZlcjCCASIwDQYJKoZIhvcN
AQEBBQADggEPADCCAQoCggEBAJ6dF8TNYmlvTYkZhN0IFWli8byqcNejzko2Yaw+
0HdLc06pEwdTW5DuH3wCzV58k7H2Mecgcj0CRYfsB6myeFDJ9cmdlhTuAp67nskX
o5tE7DFpv7PjDyS4UNpEamoKX9NEeyzBBCU2IBd0RmG1+y9cZBKLSXzJkRg3Fhle
C8D+CoNCog2lERVsyCiNJnV61MDKS2LLDPGcRdq87+MytFpz1FQtJ54BIHZI0TMk
hrSlceEzurckEVmsWTT/BU7Y+R5UD2UNXvHMV1jR3pUtpSMSge3u9ce+HbCvRCkR
aS1nUUiwgMOw81Kxa54ao8MD3P4hfUcyVomshBXrohQ7dtcCAwEAAaOBvTCBujAJ
BgNVHRMEAjAAMB0GA1UdDgQWBBRxpIVcZ3OPH++UKdAl3Pr+LO2UlzBRBgNVHSME
SjBIgBRJbZGFiHvAO0+Yxb55PRBXeZPqSKEapBgwFjEUMBIGA1UEAwwLdGVhbTIx
NC1uZXSCFAwnyMwuUwjD9ScugPSEOcqk/TNSMBMGA1UdJQQMMAoGCCsGAQUFBwMB
MAsGA1UdDwQEAwIFoDAZBgNVHREEEjAQgg50ZWFtMjE0LXNlcnZlcjANBgkqhkiG
9w0BAQsFAAOCAQEAWl7OxMOgtnWIvo8j32+6f9O2/XLkiSsPcj1lhoKLD4DpigeA
CSAbNkiUNd2GpylWMntALb3a1VJhQr6IgPpyFpcm0uJOrl2W3zk+d0apjTNjtnFm
341/mrhJK0uxXXoduE5iJu3U1QPLHAH6FGFarvqUTIJN97cw3uBFkUJWWgHEcbSm
NdBLrE6xZKPZ0o3fy7Lnd8L9pBcUzoiSqq3Ysl7BtMrTRa4rxNMkOdnC8IM5/uET
5lngGWZ0wxQFXbrPlrXtkFd/VBXYpv9lynN7Unaekn5QynGtrTyBmKl/DsM0NTNX
YlrECcoCNR8wK3bmGcALURlTl2pyCuXxJj9/7w==
-----END CERTIFICATE-----
