Certificate:
    Data:
        Version: 3 (0x2)
        Serial Number:
            a6:2f:22:29:e4:f3:e2:e3:c3:24:f6:24:48:0d:84:6e
        Signature Algorithm: sha256WithRSAEncryption
        Issuer: CN=team214-net
        Validity
            Not Before: Nov  4 11:31:50 2023 GMT
            Not After : Oct 19 11:31:50 2026 GMT
        Subject: CN=team214-server
        Subject Public Key Info:
            Public Key Algorithm: rsaEncryption
                Public-Key: (2048 bit)
                Modulus:
                    00:bd:ef:8f:52:f7:b5:73:15:c4:01:8b:de:ca:9c:
                    4e:f9:3c:76:f0:5c:5d:f6:3f:b0:a7:5c:99:c2:e5:
                    cf:b8:8e:7c:ba:e2:22:20:64:ab:12:b8:63:f1:b5:
                    f0:e5:15:f8:0f:d9:53:0d:ae:fa:27:84:59:98:ec:
                    76:b9:da:37:18:33:21:91:5f:67:63:10:dc:f0:03:
                    99:9e:b4:be:7e:4b:e7:94:b3:7b:d7:f9:08:e1:fb:
                    17:f6:17:13:b7:b9:b9:1e:56:7b:3a:11:65:cb:99:
                    f6:fa:c5:db:16:97:ca:f8:7b:9d:04:9b:48:7b:9d:
                    1c:ee:60:83:69:29:24:84:93:fb:3c:56:e4:b5:8c:
                    71:68:49:86:4e:9f:fd:3b:c1:08:23:f6:a2:41:12:
                    71:64:bb:54:a4:c2:1f:24:4d:f0:9f:5b:b7:fd:58:
                    1e:54:7e:93:3b:20:a8:ba:ac:ce:35:95:41:41:c8:
                    c8:d3:d0:e6:28:da:31:7b:c5:72:f1:71:b4:1e:b7:
                    f4:20:28:72:aa:7f:89:0a:d7:ec:77:89:97:41:5d:
                    52:55:24:dd:51:3d:cf:4a:ad:c2:dc:ca:94:5a:57:
                    13:93:88:d6:c3:07:29:d2:9b:7f:1d:ce:89:6e:cb:
                    e9:22:56:0f:01:16:c4:1a:cd:6f:1e:2e:83:6c:34:
                    f6:2b
                Exponent: 65537 (0x10001)
        X509v3 extensions:
            X509v3 Basic Constraints: 
                CA:FALSE
            X509v3 Subject Key Identifier: 
                46:A2:54:82:73:16:18:E4:CD:1D:F7:79:B7:68:0C:8F:C3:96:B2:58
            X509v3 Authority Key Identifier: 
                keyid:FA:48:C4:21:A7:51:7A:65:77:C4:64:54:AD:9A:5C:82:94:AE:8C:08
                DirName:/CN=team214-net
                serial:22:6E:13:37:74:AD:E5:83:DD:7D:CA:FE:29:29:03:F5:01:05:68:CE
            X509v3 Extended Key Usage: 
                TLS Web Server Authentication
            X509v3 Key Usage: 
                Digital Signature, Key Encipherment
            X509v3 Subject Alternative Name: 
                DNS:team214-server
    Signature Algorithm: sha256WithRSAEncryption
    Signature Value:
        18:7e:b1:00:a9:2e:a8:76:b0:2b:12:7b:a1:c6:9d:25:f0:69:
        ad:d5:1b:f7:f3:5b:03:e0:8c:a4:ed:b0:e0:50:14:29:42:f4:
        05:45:2d:c4:a6:ad:79:92:a5:c7:62:a5:4a:1a:0b:d8:9c:e9:
        b9:75:04:8a:05:22:ec:b4:37:f6:cf:f5:a9:d4:5d:a6:46:8a:
        36:fd:1f:bf:ac:34:bc:2f:1a:22:2a:1c:a4:e1:35:a4:11:b9:
        62:b4:62:6e:dd:d3:ca:c6:6e:13:7e:86:03:cd:e1:a6:ad:ae:
        cb:7d:25:d9:2c:eb:00:be:3d:ce:57:3a:a6:db:14:f3:7f:37:
        fb:e1:3d:ba:e0:a9:42:ea:ce:67:aa:72:d0:60:78:29:7d:e2:
        7c:f9:b8:69:6c:c8:9e:aa:43:79:50:63:0a:e1:8a:4a:28:5d:
        00:7c:f5:71:b8:a5:3b:4c:43:45:cd:da:59:7e:53:43:ec:4b:
        69:0c:2e:0d:f8:7e:bb:0b:5c:bc:35:25:ae:c8:55:65:bf:4e:
        db:bb:31:18:d5:fc:3c:2e:fa:5e:4f:09:c8:cf:f4:01:77:84:
        34:46:34:5b:67:7f:3a:ed:9e:c6:b3:ac:8a:51:8c:86:f7:0a:
        52:62:ef:86:1d:46:e1:15:1b:c6:c0:95:e6:3e:d8:e2:5f:08:
        57:b2:04:c0
-----BEGIN CERTIFICATE-----
MIIDeDCCAmCgAwIBAgIRAKYvIink8+LjwyT2JEgNhG4wDQYJKoZIhvcNAQELBQAw
FjEUMBIGA1UEAwwLdGVhbTIxNC1uZXQwHhcNMjMxMTA0MTEzMTUwWhcNMjYxMDE5
MTEzMTUwWjAZMRcwFQYDVQQDDA50ZWFtMjE0LXNlcnZlcjCCASIwDQYJKoZIhvcN
AQEBBQADggEPADCCAQoCggEBAL3vj1L3tXMVxAGL3sqcTvk8dvBcXfY/sKdcmcLl
z7iOfLriIiBkqxK4Y/G18OUV+A/ZUw2u+ieEWZjsdrnaNxgzIZFfZ2MQ3PADmZ60
vn5L55Sze9f5COH7F/YXE7e5uR5WezoRZcuZ9vrF2xaXyvh7nQSbSHudHO5gg2kp
JIST+zxW5LWMcWhJhk6f/TvBCCP2okEScWS7VKTCHyRN8J9bt/1YHlR+kzsgqLqs
zjWVQUHIyNPQ5ijaMXvFcvFxtB639CAocqp/iQrX7HeJl0FdUlUk3VE9z0qtwtzK
lFpXE5OI1sMHKdKbfx3OiW7L6SJWDwEWxBrNbx4ug2w09isCAwEAAaOBvTCBujAJ
BgNVHRMEAjAAMB0GA1UdDgQWBBRGolSCcxYY5M0d93m3aAyPw5ayWDBRBgNVHSME
SjBIgBT6SMQhp1F6ZXfEZFStmlyClK6MCKEapBgwFjEUMBIGA1UEAwwLdGVhbTIx
NC1uZXSCFCJuEzd0reWD3X3K/ikpA/UBBWjOMBMGA1UdJQQMMAoGCCsGAQUFBwMB
MAsGA1UdDwQEAwIFoDAZBgNVHREEEjAQgg50ZWFtMjE0LXNlcnZlcjANBgkqhkiG
9w0BAQsFAAOCAQEAGH6xAKkuqHawKxJ7ocadJfBprdUb9/NbA+CMpO2w4FAUKUL0
BUUtxKateZKlx2KlShoL2JzpuXUEigUi7LQ39s/1qdRdpkaKNv0fv6w0vC8aIioc
pOE1pBG5YrRibt3TysZuE36GA83hpq2uy30l2SzrAL49zlc6ptsU8383++E9uuCp
QurOZ6py0GB4KX3ifPm4aWzInqpDeVBjCuGKSihdAHz1cbilO0xDRc3aWX5TQ+xL
aQwuDfh+uwtcvDUlrshVZb9O27sxGNX8PC76Xk8JyM/0AXeENEY0W2d/Ou2exrOs
ilGMhvcKUmLvhh1G4RUbxsCV5j7Y4l8IV7IEwA==
-----END CERTIFICATE-----
