Certificate:
    Data:
        Version: 3 (0x2)
        Serial Number:
            08:7a:30:fd:8c:3d:0a:60:51:80:71:d3:52:85:e2:a4
        Signature Algorithm: sha256WithRSAEncryption
        Issuer: CN=team328-net
        Validity
            Not Before: Nov  4 10:46:37 2023 GMT
            Not After : Oct 19 10:46:37 2026 GMT
        Subject: CN=team328-server
        Subject Public Key Info:
            Public Key Algorithm: rsaEncryption
                Public-Key: (2048 bit)
                Modulus:
                    00:a0:30:9e:65:82:10:e2:eb:a8:b4:e7:75:7a:eb:
                    3d:37:c6:7a:32:c4:0c:ee:05:9d:ea:d6:83:f0:66:
                    e3:27:0e:f1:fa:9c:0a:f9:12:1c:7f:98:95:40:00:
                    c7:ad:98:55:bd:0b:87:78:be:88:41:2e:d6:27:9f:
                    d4:58:0b:21:83:b4:b9:bc:a6:13:2f:36:d8:1a:e3:
                    a8:ed:53:76:e2:04:f0:dc:db:8d:a4:61:a1:71:99:
                    1c:d6:03:7a:27:b4:1d:5b:a2:af:13:ab:f9:b4:33:
                    74:98:03:52:58:14:80:19:7f:3b:bc:d7:80:96:5d:
                    89:79:89:bc:49:2c:f5:c0:7e:a7:87:94:76:4a:4a:
                    cb:73:28:f4:bb:3c:74:89:03:f7:01:d6:c0:85:00:
                    62:14:b4:63:62:c1:62:d4:3e:23:bb:68:df:6a:38:
                    77:e9:a2:64:cd:46:27:a5:47:0f:f2:b2:d4:0f:8e:
                    5d:96:ab:cc:f9:db:68:31:8b:e5:e8:a2:cd:2f:23:
                    f3:9c:60:13:25:9c:64:9e:2b:5f:a4:60:4e:be:cf:
                    5d:2a:ee:cc:2a:02:ee:35:01:19:c2:87:05:73:2e:
                    22:2a:0a:e0:44:c8:2a:09:b1:bb:99:dd:e3:eb:7b:
                    8c:98:32:f4:ef:92:3e:32:18:34:13:c3:ca:b8:85:
                    54:9d
                Exponent: 65537 (0x10001)
        X509v3 extensions:
            X509v3 Basic Constraints: 
                CA:FALSE
            X509v3 Subject Key Identifier: 
                27:B2:10:4F:9C:B0:82:83:77:DA:B6:36:37:F0:B0:B5:BB:E4:DF:4F
            X509v3 Authority Key Identifier: 
                keyid:37:B3:B7:02:F5:35:07:23:53:A1:09:4E:F1:C7:DD:57:AB:FF:A3:14
                DirName:/CN=team328-net
                serial:66:8B:13:D4:84:8D:C3:01:9D:9F:68:2A:CC:4C:64:B8:91:5C:EF:DD
            X509v3 Extended Key Usage: 
                TLS Web Server Authentication
            X509v3 Key Usage: 
                Digital Signature, Key Encipherment
            X509v3 Subject Alternative Name: 
                DNS:team328-server
    Signature Algorithm: sha256WithRSAEncryption
    Signature Value:
        3f:35:75:9a:ee:35:6d:1e:8b:c7:9f:26:44:e4:22:5e:c4:7d:
        cc:73:0b:a0:cb:93:95:c7:ab:2c:7e:37:4f:4c:d3:c8:be:08:
        8f:76:89:60:aa:a2:ac:ac:e1:0c:2d:2b:1f:40:7b:fc:4a:11:
        b2:6a:ef:17:6f:5e:b9:b7:84:16:99:db:51:12:cf:b4:a8:de:
        e4:c5:2b:ae:5c:fe:6b:68:3a:30:b4:b5:29:d3:cf:20:ae:f9:
        b4:35:0f:e3:3d:82:75:34:b5:5c:1d:53:7a:9b:7f:42:d7:e4:
        84:1f:04:6e:67:12:b6:0e:c0:a8:b1:f0:26:a6:d5:dc:f0:32:
        3e:4b:bd:fe:ae:f1:67:2d:c4:87:bd:8f:af:41:46:ff:c4:d0:
        eb:c8:99:37:bc:05:d4:b3:0c:7d:66:d4:8e:77:51:70:9b:8a:
        1e:d2:7b:34:ee:12:7c:47:9f:29:2d:6c:fa:42:8f:21:27:e2:
        2d:8d:e9:85:c4:56:5d:9f:f7:3c:c1:f2:bc:c8:f3:90:f1:25:
        91:5b:d7:2f:b2:e0:93:d0:eb:85:ae:f7:91:06:be:4c:d1:ed:
        d0:3d:ea:96:bf:9c:76:51:15:2b:92:71:41:82:07:29:f9:3c:
        bb:77:e9:b3:9f:a9:08:83:99:57:46:58:bc:58:03:86:d6:cf:
        f4:84:15:32
-----BEGIN CERTIFICATE-----
MIIDdzCCAl+gAwIBAgIQCHow/Yw9CmBRgHHTUoXipDANBgkqhkiG9w0BAQsFADAW
MRQwEgYDVQQDDAt0ZWFtMzI4LW5ldDAeFw0yMzExMDQxMDQ2MzdaFw0yNjEwMTkx
MDQ2MzdaMBkxFzAVBgNVBAMMDnRlYW0zMjgtc2VydmVyMIIBIjANBgkqhkiG9w0B
AQEFAAOCAQ8AMIIBCgKCAQEAoDCeZYIQ4uuotOd1eus9N8Z6MsQM7gWd6taD8Gbj
Jw7x+pwK+RIcf5iVQADHrZhVvQuHeL6IQS7WJ5/UWAshg7S5vKYTLzbYGuOo7VN2
4gTw3NuNpGGhcZkc1gN6J7QdW6KvE6v5tDN0mANSWBSAGX87vNeAll2JeYm8SSz1
wH6nh5R2SkrLcyj0uzx0iQP3AdbAhQBiFLRjYsFi1D4ju2jfajh36aJkzUYnpUcP
8rLUD45dlqvM+dtoMYvl6KLNLyPznGATJZxknitfpGBOvs9dKu7MKgLuNQEZwocF
cy4iKgrgRMgqCbG7md3j63uMmDL075I+Mhg0E8PKuIVUnQIDAQABo4G9MIG6MAkG
A1UdEwQCMAAwHQYDVR0OBBYEFCeyEE+csIKDd9q2NjfwsLW75N9PMFEGA1UdIwRK
MEiAFDeztwL1NQcjU6EJTvHH3Ver/6MUoRqkGDAWMRQwEgYDVQQDDAt0ZWFtMzI4
LW5ldIIUZosT1ISNwwGdn2gqzExkuJFc790wEwYDVR0lBAwwCgYIKwYBBQUHAwEw
CwYDVR0PBAQDAgWgMBkGA1UdEQQSMBCCDnRlYW0zMjgtc2VydmVyMA0GCSqGSIb3
DQEBCwUAA4IBAQA/NXWa7jVtHovHnyZE5CJexH3Mcwugy5OVx6ssfjdPTNPIvgiP
dolgqqKsrOEMLSsfQHv8ShGyau8Xb165t4QWmdtREs+0qN7kxSuuXP5raDowtLUp
088grvm0NQ/jPYJ1NLVcHVN6m39C1+SEHwRuZxK2DsCosfAmptXc8DI+S73+rvFn
LcSHvY+vQUb/xNDryJk3vAXUswx9ZtSOd1Fwm4oe0ns07hJ8R58pLWz6Qo8hJ+It
jemFxFZdn/c8wfK8yPOQ8SWRW9cvsuCT0OuFrveRBr5M0e3QPeqWv5x2URUrknFB
ggcp+Ty7d+mzn6kIg5lXRli8WAOG1s/0hBUy
-----END CERTIFICATE-----
