Certificate:
    Data:
        Version: 3 (0x2)
        Serial Number:
            19:73:9e:05:69:eb:6c:f5:96:05:8e:c7:56:51:62:10
        Signature Algorithm: sha256WithRSAEncryption
        Issuer: CN=team328-net
        Validity
            Not Before: Nov  4 11:34:42 2023 GMT
            Not After : Oct 19 11:34:42 2026 GMT
        Subject: CN=team328-server
        Subject Public Key Info:
            Public Key Algorithm: rsaEncryption
                Public-Key: (2048 bit)
                Modulus:
                    00:b9:8e:ca:0c:45:10:e6:d7:d1:c7:73:41:48:e0:
                    e9:7a:2e:67:d0:5e:e2:94:4c:4f:f2:28:b4:04:bc:
                    19:9b:13:d6:c8:e3:f9:b5:79:9a:5d:08:e1:19:64:
                    45:f4:30:56:f8:f1:c7:e4:74:7b:71:06:62:d0:82:
                    da:77:5f:b1:71:78:8f:d0:51:0a:4d:0b:0b:ae:c3:
                    c6:1e:b9:ba:52:62:8f:58:ac:1d:83:06:ff:2e:3c:
                    e9:a4:49:bd:e9:c3:be:fe:a1:76:3c:0e:9f:bf:8a:
                    f5:99:25:ff:f6:0b:1b:b9:8e:c7:25:49:56:f4:8d:
                    d9:01:7b:fd:0e:17:12:2d:4b:90:07:fc:12:e7:ee:
                    d6:e0:b3:08:e1:c4:31:5b:26:99:b4:7b:4e:3a:f6:
                    df:79:5a:15:25:f6:c1:9f:cf:72:ca:89:a4:f7:6a:
                    89:e5:57:97:71:b9:38:a2:9d:0b:a1:52:b0:1e:f3:
                    24:52:e4:ff:25:a2:71:90:49:4b:6e:0f:93:c6:11:
                    d5:58:d6:2f:c8:85:5c:f4:24:ef:68:2d:10:63:71:
                    f9:ad:f3:f7:ad:bc:ce:1c:63:59:3f:d9:62:ee:6f:
                    6a:f4:cb:0d:d1:0f:a7:02:99:97:26:27:05:7b:95:
                    af:3e:6f:7c:b0:09:13:e6:0e:51:39:b2:1d:80:42:
                    fa:4b
                Exponent: 65537 (0x10001)
        X509v3 extensions:
            X509v3 Basic Constraints: 
                CA:FALSE
            X509v3 Subject Key Identifier: 
                B7:FE:5B:82:67:C4:BA:19:87:61:E6:B8:0E:8A:EA:12:A1:EF:DD:C5
            X509v3 Authority Key Identifier: 
                keyid:BD:B5:BB:59:E0:37:27:63:4A:5D:03:10:E3:18:3B:2F:D1:EF:15:56
                DirName:/CN=team328-net
                serial:1B:06:A8:8A:74:4A:61:8A:05:6C:A5:F1:AD:72:4D:C5:FE:F5:13:0F
            X509v3 Extended Key Usage: 
                TLS Web Server Authentication
            X509v3 Key Usage: 
                Digital Signature, Key Encipherment
            X509v3 Subject Alternative Name: 
                DNS:team328-server
    Signature Algorithm: sha256WithRSAEncryption
    Signature Value:
        a2:ef:8f:bf:f0:b8:d6:14:3e:68:87:0b:9f:07:a2:bd:da:96:
        5b:7c:18:63:27:88:48:c9:73:de:2a:89:1f:ec:cb:06:3e:95:
        7d:d3:50:e5:13:4e:8c:31:ad:a3:3b:d1:38:01:06:f4:73:24:
        c0:d2:da:6b:63:96:5b:c1:67:d0:91:ac:1a:4c:79:b2:7d:d1:
        1d:fb:ac:47:23:2f:db:bc:f9:0d:43:bc:11:6f:92:49:83:96:
        1b:80:23:dc:d0:da:25:55:c4:69:e9:72:9f:2d:8f:50:6b:00:
        d3:25:ae:00:52:a0:72:aa:c7:55:4d:52:a5:bd:ee:01:be:8f:
        7c:71:16:9f:6b:f3:13:0c:b3:22:be:77:93:6c:5d:af:90:a6:
        f9:15:a7:08:d3:be:76:7e:77:15:41:bd:cc:4d:b6:4d:be:90:
        a6:90:97:89:a7:1f:c3:5c:b3:16:5e:3a:0e:12:7d:da:f3:0f:
        a7:b0:eb:b7:d9:c9:82:79:d2:5f:11:83:16:62:08:54:29:40:
        7e:b0:23:a6:d2:f6:4f:ee:06:cb:f0:af:80:e3:97:b2:6b:03:
        ce:77:99:c7:17:c5:e1:9c:8c:ab:95:85:d7:9c:a4:cb:bd:79:
        8f:ab:f0:21:18:a7:27:30:1b:8f:9e:d9:1a:05:b6:90:a8:83:
        f9:7c:6d:b6
-----BEGIN CERTIFICATE-----
MIIDdzCCAl+gAwIBAgIQGXOeBWnrbPWWBY7HVlFiEDANBgkqhkiG9w0BAQsFADAW
MRQwEgYDVQQDDAt0ZWFtMzI4LW5ldDAeFw0yMzExMDQxMTM0NDJaFw0yNjEwMTkx
MTM0NDJaMBkxFzAVBgNVBAMMDnRlYW0zMjgtc2VydmVyMIIBIjANBgkqhkiG9w0B
AQEFAAOCAQ8AMIIBCgKCAQEAuY7KDEUQ5tfRx3NBSODpei5n0F7ilExP8ii0BLwZ
mxPWyOP5tXmaXQjhGWRF9DBW+PHH5HR7cQZi0ILad1+xcXiP0FEKTQsLrsPGHrm6
UmKPWKwdgwb/LjzppEm96cO+/qF2PA6fv4r1mSX/9gsbuY7HJUlW9I3ZAXv9DhcS
LUuQB/wS5+7W4LMI4cQxWyaZtHtOOvbfeVoVJfbBn89yyomk92qJ5VeXcbk4op0L
oVKwHvMkUuT/JaJxkElLbg+TxhHVWNYvyIVc9CTvaC0QY3H5rfP3rbzOHGNZP9li
7m9q9MsN0Q+nApmXJicFe5WvPm98sAkT5g5RObIdgEL6SwIDAQABo4G9MIG6MAkG
A1UdEwQCMAAwHQYDVR0OBBYEFLf+W4JnxLoZh2HmuA6K6hKh793FMFEGA1UdIwRK
MEiAFL21u1ngNydjSl0DEOMYOy/R7xVWoRqkGDAWMRQwEgYDVQQDDAt0ZWFtMzI4
LW5ldIIUGwaoinRKYYoFbKXxrXJNxf71Ew8wEwYDVR0lBAwwCgYIKwYBBQUHAwEw
CwYDVR0PBAQDAgWgMBkGA1UdEQQSMBCCDnRlYW0zMjgtc2VydmVyMA0GCSqGSIb3
DQEBCwUAA4IBAQCi74+/8LjWFD5ohwufB6K92pZbfBhjJ4hIyXPeKokf7MsGPpV9
01DlE06MMa2jO9E4AQb0cyTA0tprY5ZbwWfQkawaTHmyfdEd+6xHIy/bvPkNQ7wR
b5JJg5YbgCPc0NolVcRp6XKfLY9QawDTJa4AUqByqsdVTVKlve4Bvo98cRafa/MT
DLMivneTbF2vkKb5FacI0752fncVQb3MTbZNvpCmkJeJpx/DXLMWXjoOEn3a8w+n
sOu32cmCedJfEYMWYghUKUB+sCOm0vZP7gbL8K+A45eyawPOd5nHF8XhnIyrlYXX
nKTLvXmPq/AhGKcnMBuPntkaBbaQqIP5fG22
-----END CERTIFICATE-----
