Certificate:
    Data:
        Version: 3 (0x2)
        Serial Number:
            20:73:9c:77:e0:08:3d:bf:a0:57:a4:4b:6b:3a:55:54
        Signature Algorithm: sha256WithRSAEncryption
        Issuer: CN=team328-net
        Validity
            Not Before: Nov  4 10:46:37 2023 GMT
            Not After : Oct 19 10:46:37 2026 GMT
        Subject: CN=team328-client
        Subject Public Key Info:
            Public Key Algorithm: rsaEncryption
                Public-Key: (2048 bit)
                Modulus:
                    00:ca:b7:f7:ca:65:01:61:43:35:6d:4b:6e:46:a5:
                    08:29:aa:93:b1:b4:38:e0:00:1e:59:fe:61:79:9e:
                    a4:aa:35:c5:a9:95:3d:6a:c4:6c:33:e7:99:b4:7a:
                    a6:7c:95:04:0a:ff:11:d0:b6:dc:12:8e:e0:28:c3:
                    32:5e:34:19:2e:79:fc:68:a5:52:33:c4:f2:ab:4c:
                    53:f5:32:40:47:94:03:9c:05:4a:ca:ee:4e:a4:05:
                    2a:11:3a:b6:56:1f:e9:4d:e6:18:7d:23:c8:01:4e:
                    70:97:08:23:2b:7e:61:ab:74:6e:8c:4b:a6:51:07:
                    ae:ac:ea:32:ae:b1:c5:9b:9b:17:57:cf:cb:88:e0:
                    29:e7:9e:fa:9f:e9:a0:2d:b0:35:a2:91:83:23:32:
                    fc:3c:a3:63:5b:db:00:38:01:79:ce:b4:25:fd:39:
                    9a:06:1b:f2:7c:03:5a:12:ae:4c:9e:f9:de:ac:8c:
                    6a:e1:18:62:a3:53:0a:a2:1d:8e:a2:5a:e5:6d:11:
                    92:3f:9b:7a:57:7c:f9:08:01:cb:cc:91:a7:64:44:
                    d4:2a:a8:f1:db:98:c2:33:88:27:3d:91:7f:68:0f:
                    7e:ae:22:a2:07:ee:3b:bf:b9:7b:52:82:38:05:b2:
                    a1:4c:d9:a5:0b:ac:5d:27:d0:a7:2d:eb:51:f0:9d:
                    0e:27
                Exponent: 65537 (0x10001)
        X509v3 extensions:
            X509v3 Basic Constraints: 
                CA:FALSE
            X509v3 Subject Key Identifier: 
                67:7C:52:80:47:AE:83:56:83:4C:B5:A5:EA:59:20:EB:2A:85:6E:B0
            X509v3 Authority Key Identifier: 
                keyid:37:B3:B7:02:F5:35:07:23:53:A1:09:4E:F1:C7:DD:57:AB:FF:A3:14
                DirName:/CN=team328-net
                serial:66:8B:13:D4:84:8D:C3:01:9D:9F:68:2A:CC:4C:64:B8:91:5C:EF:DD
            X509v3 Extended Key Usage: 
                TLS Web Client Authentication
            X509v3 Key Usage: 
                Digital Signature
    Signature Algorithm: sha256WithRSAEncryption
    Signature Value:
        3c:c5:03:7d:47:24:b7:c9:47:b8:e2:99:82:af:bb:18:77:fe:
        bc:3b:d7:85:d3:8a:41:de:66:b4:db:df:54:65:8c:23:af:a8:
        95:c4:84:dc:57:dd:b6:db:b8:9c:38:08:f1:2c:68:d5:f7:dc:
        53:55:9f:d5:3b:dd:8d:b0:10:60:2a:36:71:51:36:47:90:6a:
        f1:1a:eb:3f:47:c8:a6:88:e9:60:bc:15:05:92:0c:f4:1d:d1:
        23:85:64:8c:93:35:b3:e8:1f:24:34:5b:62:7b:24:f3:c0:f7:
        c6:55:18:f7:c4:7b:a3:99:50:23:02:6a:73:94:74:d6:e9:7e:
        ba:6c:0e:84:90:89:59:96:c0:c4:3c:fd:b5:89:73:ce:f3:51:
        40:de:d9:a3:fb:cb:0d:c3:e2:31:b9:08:2d:f7:57:78:b1:f3:
        15:3b:d3:c6:6c:5c:68:64:a4:1d:09:70:ea:39:47:6f:60:6a:
        98:d5:8d:89:9e:b8:9d:6f:4d:98:6e:06:fa:30:4c:0b:25:e9:
        d7:17:a4:01:5d:76:81:77:36:05:de:9a:5a:1e:4a:b0:2d:a2:
        f7:55:e8:35:6e:0c:25:30:e9:1a:e4:f1:2e:a1:b8:a7:b1:99:
        2c:81:f3:83:20:8d:f7:81:82:ff:26:2d:5f:4a:dc:c6:f3:61:
        95:a9:0c:9a
-----BEGIN CERTIFICATE-----
MIIDXDCCAkSgAwIBAgIQIHOcd+AIPb+gV6RLazpVVDANBgkqhkiG9w0BAQsFADAW
MRQwEgYDVQQDDAt0ZWFtMzI4LW5ldDAeFw0yMzExMDQxMDQ2MzdaFw0yNjEwMTkx
MDQ2MzdaMBkxFzAVBgNVBAMMDnRlYW0zMjgtY2xpZW50MIIBIjANBgkqhkiG9w0B
AQEFAAOCAQ8AMIIBCgKCAQEAyrf3ymUBYUM1bUtuRqUIKaqTsbQ44AAeWf5heZ6k
qjXFqZU9asRsM+eZtHqmfJUECv8R0LbcEo7gKMMyXjQZLnn8aKVSM8Tyq0xT9TJA
R5QDnAVKyu5OpAUqETq2Vh/pTeYYfSPIAU5wlwgjK35hq3RujEumUQeurOoyrrHF
m5sXV8/LiOAp5576n+mgLbA1opGDIzL8PKNjW9sAOAF5zrQl/TmaBhvyfANaEq5M
nvnerIxq4Rhio1MKoh2OolrlbRGSP5t6V3z5CAHLzJGnZETUKqjx25jCM4gnPZF/
aA9+riKiB+47v7l7UoI4BbKhTNmlC6xdJ9CnLetR8J0OJwIDAQABo4GiMIGfMAkG
A1UdEwQCMAAwHQYDVR0OBBYEFGd8UoBHroNWg0y1pepZIOsqhW6wMFEGA1UdIwRK
MEiAFDeztwL1NQcjU6EJTvHH3Ver/6MUoRqkGDAWMRQwEgYDVQQDDAt0ZWFtMzI4
LW5ldIIUZosT1ISNwwGdn2gqzExkuJFc790wEwYDVR0lBAwwCgYIKwYBBQUHAwIw
CwYDVR0PBAQDAgeAMA0GCSqGSIb3DQEBCwUAA4IBAQA8xQN9RyS3yUe44pmCr7sY
d/68O9eF04pB3ma0299UZYwjr6iVxITcV92227icOAjxLGjV99xTVZ/VO92NsBBg
KjZxUTZHkGrxGus/R8imiOlgvBUFkgz0HdEjhWSMkzWz6B8kNFtieyTzwPfGVRj3
xHujmVAjAmpzlHTW6X66bA6EkIlZlsDEPP21iXPO81FA3tmj+8sNw+IxuQgt91d4
sfMVO9PGbFxoZKQdCXDqOUdvYGqY1Y2Jnridb02Ybgb6MEwLJenXF6QBXXaBdzYF
3ppaHkqwLaL3Veg1bgwlMOka5PEuobinsZksgfODII33gYL/Ji1fStzG82GVqQya
-----END CERTIFICATE-----
