Certificate:
    Data:
        Version: 3 (0x2)
        Serial Number:
            41:b6:a7:c3:7f:c0:7a:3d:19:98:bf:22:97:00:db:52
        Signature Algorithm: sha256WithRSAEncryption
        Issuer: CN=team328-net
        Validity
            Not Before: Nov  3 20:45:16 2023 GMT
            Not After : Oct 18 20:45:16 2026 GMT
        Subject: CN=team328-server
        Subject Public Key Info:
            Public Key Algorithm: rsaEncryption
                Public-Key: (2048 bit)
                Modulus:
                    00:ac:54:72:3d:49:b8:07:0e:1f:85:62:35:6f:a9:
                    16:a2:6e:07:41:34:7a:e1:8f:b4:38:c0:8b:f1:62:
                    81:a8:78:0a:36:21:fb:ad:58:87:dc:e5:ee:8b:9c:
                    6c:92:38:ca:57:1b:32:f3:28:5c:9f:db:ee:40:34:
                    86:f2:1a:fa:92:d7:0e:6d:d6:15:52:9e:be:24:77:
                    8d:12:2e:cb:f0:06:e5:61:a6:91:14:52:7a:86:66:
                    c3:ce:53:5a:1a:7a:d0:4a:97:9c:14:45:79:4a:b7:
                    e8:f2:b6:b7:1e:e9:fc:2e:c4:e5:bb:85:53:23:99:
                    d1:57:2c:92:07:09:33:35:15:95:55:07:86:39:1b:
                    0e:87:3d:50:2d:3a:61:16:06:1f:12:d5:12:8a:5b:
                    08:ba:45:5e:79:ba:53:3d:c5:f1:62:20:43:7e:44:
                    bf:d7:52:f5:2b:72:a9:d5:84:c2:34:58:d0:d7:6f:
                    cc:32:78:c4:a6:15:f1:05:16:63:88:f5:96:f0:b7:
                    89:f8:7b:b6:b3:61:66:f1:84:87:42:cf:f7:b6:a1:
                    25:9d:ee:6b:1b:7c:8f:0c:10:3b:2f:dd:1d:53:f3:
                    8e:24:00:74:25:58:7b:6a:c0:da:af:85:5c:67:12:
                    98:c2:f3:e1:b4:a0:67:3e:25:c6:ad:00:4f:1f:bb:
                    31:93
                Exponent: 65537 (0x10001)
        X509v3 extensions:
            X509v3 Basic Constraints: 
                CA:FALSE
            X509v3 Subject Key Identifier: 
                B6:F4:6C:59:DD:27:35:84:33:24:53:84:D7:55:18:64:36:3F:60:ED
            X509v3 Authority Key Identifier: 
                keyid:E2:66:6B:57:8A:2D:5B:01:D6:72:33:49:E5:8A:20:42:84:0B:80:9C
                DirName:/CN=team328-net
                serial:4E:2C:39:DE:D5:22:A1:4F:BC:99:17:E9:57:0B:CA:FD:09:6D:D0:94
            X509v3 Extended Key Usage: 
                TLS Web Server Authentication
            X509v3 Key Usage: 
                Digital Signature, Key Encipherment
            X509v3 Subject Alternative Name: 
                DNS:team328-server
    Signature Algorithm: sha256WithRSAEncryption
    Signature Value:
        3d:95:34:0b:5c:54:b5:1b:36:4e:dd:77:3c:d0:ce:ba:4f:88:
        26:da:66:cc:f5:65:23:b1:f0:93:cd:20:e8:0a:bb:de:40:f1:
        b8:71:f7:c1:b1:0d:b6:d4:90:80:50:b0:5b:54:44:a4:d3:9a:
        8a:5c:3d:86:18:58:09:25:8e:fc:7c:51:01:45:b0:cf:ce:c0:
        71:4d:3f:02:d5:d4:91:c2:5b:32:28:ec:5e:e1:18:ec:84:d3:
        2a:2a:26:ed:95:f5:a7:a8:f6:bb:33:de:18:ce:3b:5a:85:c0:
        11:45:6a:c7:4a:45:f2:90:c6:1b:6b:3a:d3:91:c4:00:c5:5d:
        71:62:40:cf:c2:19:dc:2e:e8:c4:b3:4e:15:ef:df:ee:7b:5c:
        e8:ae:3c:45:6c:55:63:a3:24:41:4f:f2:d2:19:9f:ac:b8:c4:
        f2:47:d8:91:dc:76:1c:5f:25:fe:73:ac:08:db:68:c1:5e:b2:
        96:31:05:32:20:ea:35:d5:23:09:7c:84:de:19:44:66:3b:5a:
        95:92:a0:e0:e1:47:eb:b3:a0:96:fa:86:7e:48:2e:a7:c2:d9:
        65:b4:73:c1:d2:42:15:24:98:5a:44:28:82:21:55:9e:8d:63:
        86:f5:50:a2:fb:5d:1a:1e:09:50:0a:3b:3d:77:06:e6:0d:6b:
        66:ac:a6:d3
-----BEGIN CERTIFICATE-----
MIIDdzCCAl+gAwIBAgIQQbanw3/Aej0ZmL8ilwDbUjANBgkqhkiG9w0BAQsFADAW
MRQwEgYDVQQDDAt0ZWFtMzI4LW5ldDAeFw0yMzExMDMyMDQ1MTZaFw0yNjEwMTgy
MDQ1MTZaMBkxFzAVBgNVBAMMDnRlYW0zMjgtc2VydmVyMIIBIjANBgkqhkiG9w0B
AQEFAAOCAQ8AMIIBCgKCAQEArFRyPUm4Bw4fhWI1b6kWom4HQTR64Y+0OMCL8WKB
qHgKNiH7rViH3OXui5xskjjKVxsy8yhcn9vuQDSG8hr6ktcObdYVUp6+JHeNEi7L
8AblYaaRFFJ6hmbDzlNaGnrQSpecFEV5Srfo8ra3Hun8LsTlu4VTI5nRVyySBwkz
NRWVVQeGORsOhz1QLTphFgYfEtUSilsIukVeebpTPcXxYiBDfkS/11L1K3Kp1YTC
NFjQ12/MMnjEphXxBRZjiPWW8LeJ+Hu2s2Fm8YSHQs/3tqElne5rG3yPDBA7L90d
U/OOJAB0JVh7asDar4VcZxKYwvPhtKBnPiXGrQBPH7sxkwIDAQABo4G9MIG6MAkG
A1UdEwQCMAAwHQYDVR0OBBYEFLb0bFndJzWEMyRThNdVGGQ2P2DtMFEGA1UdIwRK
MEiAFOJma1eKLVsB1nIzSeWKIEKEC4CcoRqkGDAWMRQwEgYDVQQDDAt0ZWFtMzI4
LW5ldIIUTiw53tUioU+8mRfpVwvK/Qlt0JQwEwYDVR0lBAwwCgYIKwYBBQUHAwEw
CwYDVR0PBAQDAgWgMBkGA1UdEQQSMBCCDnRlYW0zMjgtc2VydmVyMA0GCSqGSIb3
DQEBCwUAA4IBAQA9lTQLXFS1GzZO3Xc80M66T4gm2mbM9WUjsfCTzSDoCrveQPG4
cffBsQ221JCAULBbVESk05qKXD2GGFgJJY78fFEBRbDPzsBxTT8C1dSRwlsyKOxe
4RjshNMqKibtlfWnqPa7M94YzjtahcARRWrHSkXykMYbazrTkcQAxV1xYkDPwhnc
LujEs04V79/ue1zorjxFbFVjoyRBT/LSGZ+suMTyR9iR3HYcXyX+c6wI22jBXrKW
MQUyIOo11SMJfITeGURmO1qVkqDg4Ufrs6CW+oZ+SC6nwtlltHPB0kIVJJhaRCiC
IVWejWOG9VCi+10aHglQCjs9dwbmDWtmrKbT
-----END CERTIFICATE-----
