Certificate:
    Data:
        Version: 3 (0x2)
        Serial Number:
            52:75:46:16:7d:e1:e1:c1:2e:2d:43:83:f0:8e:a2:af
        Signature Algorithm: sha256WithRSAEncryption
        Issuer: CN=team271-net
        Validity
            Not Before: Nov  3 20:44:15 2023 GMT
            Not After : Oct 18 20:44:15 2026 GMT
        Subject: CN=team271-client
        Subject Public Key Info:
            Public Key Algorithm: rsaEncryption
                Public-Key: (2048 bit)
                Modulus:
                    00:8e:76:21:2c:9c:19:e8:c4:00:98:d1:46:89:2e:
                    32:bf:0b:e3:40:74:94:b7:58:08:2c:50:e5:8a:08:
                    f9:e1:09:06:cb:fd:74:ee:35:98:0c:a0:c3:d8:d6:
                    de:57:71:c0:da:7b:83:72:a4:7a:7e:33:e6:2f:fb:
                    55:b9:2d:0d:a4:90:68:27:a1:5c:c5:03:e4:99:9e:
                    01:54:09:fb:76:97:9e:98:46:f2:e2:ee:86:18:34:
                    13:b5:39:ef:4e:d8:18:30:61:14:a0:9f:79:c7:a9:
                    ed:bd:a0:59:c3:78:62:b3:0e:af:f8:c4:ba:2d:df:
                    29:1e:10:e2:04:3d:da:b7:31:62:3f:e4:64:b6:c6:
                    40:ee:d1:73:f4:33:21:20:03:0a:07:89:e3:3b:b7:
                    b5:4c:d4:74:91:04:64:84:67:b3:35:99:f6:a9:e3:
                    9c:04:14:3a:9e:9a:2b:c7:a2:35:43:72:46:a8:fe:
                    e4:ad:64:c9:c4:f2:46:97:3b:20:3f:13:9b:87:29:
                    d2:bb:5d:3e:78:f2:43:07:27:01:5f:5a:40:bf:b7:
                    bb:bf:6d:29:dd:02:0f:48:79:47:79:19:71:f3:bb:
                    f2:55:78:cf:c7:39:3d:cc:cb:06:8d:c7:46:3c:9e:
                    a5:18:58:a3:ef:7f:96:4c:96:21:5f:2b:68:3a:90:
                    1b:1f
                Exponent: 65537 (0x10001)
        X509v3 extensions:
            X509v3 Basic Constraints: 
                CA:FALSE
            X509v3 Subject Key Identifier: 
                40:9A:E5:FD:84:29:41:0E:1A:C1:1D:A0:3E:95:0B:B7:33:D0:4B:95
            X509v3 Authority Key Identifier: 
                keyid:B9:C4:B3:30:C2:B4:8A:11:B1:5F:69:AA:64:F0:E1:C4:5C:CF:19:18
                DirName:/CN=team271-net
                serial:36:7A:B4:1F:0D:3C:8B:03:9E:BD:55:85:E7:1E:FC:7B:5F:52:6E:2C
            X509v3 Extended Key Usage: 
                TLS Web Client Authentication
            X509v3 Key Usage: 
                Digital Signature
    Signature Algorithm: sha256WithRSAEncryption
    Signature Value:
        a5:7a:cd:4b:a0:e5:03:9e:31:ca:f7:70:66:cb:9a:9e:7a:f8:
        2a:b7:72:6c:7d:69:fa:8c:66:34:56:cc:ff:8c:71:5e:11:75:
        9d:42:a3:ec:0e:b6:d8:db:3e:a1:e7:90:73:ee:4a:7f:5a:0f:
        b3:55:42:98:d3:4c:4d:22:64:a1:26:b4:61:fe:1c:5b:09:cc:
        85:01:c5:a5:f7:9b:6b:f1:aa:29:a6:5a:c8:d4:c4:1b:df:40:
        df:f6:e0:de:95:51:61:e9:0b:14:d1:5b:01:84:64:91:07:96:
        9c:fb:fa:76:38:7f:62:40:ec:5e:f1:1e:83:30:5e:9a:51:b6:
        f3:c9:f2:fd:95:c3:c7:a6:d0:43:40:c6:7f:96:a5:10:3d:1e:
        2c:c6:2e:78:fd:a4:76:7d:04:ad:26:58:2c:43:23:8b:c7:6d:
        2b:c8:d8:7e:ad:44:56:36:7d:df:bb:98:22:a7:42:0e:69:e9:
        30:a6:16:75:e2:ce:5f:6f:77:a3:5b:9a:02:de:30:30:83:db:
        88:de:52:8a:63:e5:92:0a:c9:ed:c8:79:3a:2e:a3:65:db:95:
        46:0a:e4:93:58:e0:75:8a:f0:60:f0:d9:ae:89:c7:43:56:07:
        4d:4c:4e:82:2d:f6:9b:fc:e4:95:68:66:e6:ff:ca:c9:1b:71:
        13:a0:69:4a
-----BEGIN CERTIFICATE-----
MIIDXDCCAkSgAwIBAgIQUnVGFn3h4cEuLUOD8I6irzANBgkqhkiG9w0BAQsFADAW
MRQwEgYDVQQDDAt0ZWFtMjcxLW5ldDAeFw0yMzExMDMyMDQ0MTVaFw0yNjEwMTgy
MDQ0MTVaMBkxFzAVBgNVBAMMDnRlYW0yNzEtY2xpZW50MIIBIjANBgkqhkiG9w0B
AQEFAAOCAQ8AMIIBCgKCAQEAjnYhLJwZ6MQAmNFGiS4yvwvjQHSUt1gILFDligj5
4QkGy/107jWYDKDD2NbeV3HA2nuDcqR6fjPmL/tVuS0NpJBoJ6FcxQPkmZ4BVAn7
dpeemEby4u6GGDQTtTnvTtgYMGEUoJ95x6ntvaBZw3hisw6v+MS6Ld8pHhDiBD3a
tzFiP+RktsZA7tFz9DMhIAMKB4njO7e1TNR0kQRkhGezNZn2qeOcBBQ6nporx6I1
Q3JGqP7krWTJxPJGlzsgPxObhynSu10+ePJDBycBX1pAv7e7v20p3QIPSHlHeRlx
87vyVXjPxzk9zMsGjcdGPJ6lGFij73+WTJYhXytoOpAbHwIDAQABo4GiMIGfMAkG
A1UdEwQCMAAwHQYDVR0OBBYEFECa5f2EKUEOGsEdoD6VC7cz0EuVMFEGA1UdIwRK
MEiAFLnEszDCtIoRsV9pqmTw4cRczxkYoRqkGDAWMRQwEgYDVQQDDAt0ZWFtMjcx
LW5ldIIUNnq0Hw08iwOevVWF5x78e19SbiwwEwYDVR0lBAwwCgYIKwYBBQUHAwIw
CwYDVR0PBAQDAgeAMA0GCSqGSIb3DQEBCwUAA4IBAQCles1LoOUDnjHK93Bmy5qe
evgqt3JsfWn6jGY0Vsz/jHFeEXWdQqPsDrbY2z6h55Bz7kp/Wg+zVUKY00xNImSh
JrRh/hxbCcyFAcWl95tr8aopplrI1MQb30Df9uDelVFh6QsU0VsBhGSRB5ac+/p2
OH9iQOxe8R6DMF6aUbbzyfL9lcPHptBDQMZ/lqUQPR4sxi54/aR2fQStJlgsQyOL
x20ryNh+rURWNn3fu5gip0IOaekwphZ14s5fb3ejW5oC3jAwg9uI3lKKY+WSCsnt
yHk6LqNl25VGCuSTWOB1ivBg8NmuicdDVgdNTE6CLfab/OSVaGbm/8rJG3EToGlK
-----END CERTIFICATE-----
