Certificate:
    Data:
        Version: 3 (0x2)
        Serial Number:
            50:7a:ca:29:40:5b:4b:ff:44:d9:e1:58:d6:5c:91:25
        Signature Algorithm: sha256WithRSAEncryption
        Issuer: CN=team113-net
        Validity
            Not Before: Nov  3 20:41:10 2023 GMT
            Not After : Oct 18 20:41:10 2026 GMT
        Subject: CN=team113-server
        Subject Public Key Info:
            Public Key Algorithm: rsaEncryption
                Public-Key: (2048 bit)
                Modulus:
                    00:ee:0c:be:ff:9b:8f:49:7c:e4:cf:79:98:46:af:
                    29:04:8b:b5:01:e3:67:40:e3:f1:d8:6e:8d:d4:59:
                    4b:42:8c:44:ca:ce:aa:4b:9c:6d:2d:aa:a7:e3:cd:
                    34:da:b4:7b:c8:25:ec:41:85:fe:1c:c4:b8:88:f4:
                    98:aa:b1:e6:59:5b:93:6e:6b:a0:85:d0:99:b3:32:
                    30:85:7e:f7:bc:c7:9d:0c:88:78:e4:3d:60:52:19:
                    03:4f:b2:7c:31:b6:36:c5:52:9a:7c:90:b4:de:3f:
                    40:cc:0b:42:a8:2b:58:cb:bf:45:c5:d5:67:44:7b:
                    2b:b6:77:6a:fe:25:d9:cb:da:91:38:c1:fc:e3:ca:
                    0b:b4:51:cb:37:03:1f:c1:a3:8e:97:3b:a9:49:a5:
                    c4:e4:42:de:d7:b8:2a:6a:09:39:4d:b6:2c:a7:d6:
                    2e:13:7e:db:70:0e:f6:6b:18:42:67:59:09:f5:8f:
                    41:db:c5:bd:09:be:5f:5f:9e:54:f9:34:c4:af:8c:
                    f9:e9:26:4f:2e:9e:c0:38:8f:7d:d6:08:f0:97:e9:
                    51:0b:cf:11:91:bf:20:55:9d:64:45:38:c6:a9:5c:
                    06:47:aa:fb:93:56:94:cc:3a:e9:66:72:12:86:e3:
                    ad:2e:93:f5:e9:0a:4b:95:68:d6:9e:d3:e1:95:ee:
                    77:c5
                Exponent: 65537 (0x10001)
        X509v3 extensions:
            X509v3 Basic Constraints: 
                CA:FALSE
            X509v3 Subject Key Identifier: 
                43:95:1F:74:78:14:9A:FF:76:F3:58:7D:C2:AC:B4:7E:DD:20:D4:96
            X509v3 Authority Key Identifier: 
                keyid:BC:A5:07:F7:78:E8:F8:E0:B8:6D:5D:CD:B1:19:59:E4:68:72:77:5A
                DirName:/CN=team113-net
                serial:03:F5:0E:CD:3D:05:AE:DA:B2:64:CA:D6:F3:9C:0C:CF:76:68:57:5D
            X509v3 Extended Key Usage: 
                TLS Web Server Authentication
            X509v3 Key Usage: 
                Digital Signature, Key Encipherment
            X509v3 Subject Alternative Name: 
                DNS:team113-server
    Signature Algorithm: sha256WithRSAEncryption
    Signature Value:
        93:24:76:09:11:f6:b4:1f:f3:b7:f7:5d:84:61:70:6f:99:51:
        99:0a:11:c6:d2:cb:aa:49:15:59:56:7a:28:f1:f3:60:2e:0a:
        57:af:43:2d:80:99:3c:27:63:c0:36:8f:96:c9:ea:1c:b1:c3:
        56:50:f8:bd:f8:59:28:42:07:70:92:2f:b5:33:a4:44:75:da:
        04:7b:dd:9b:5b:35:01:60:17:59:53:b4:9a:06:d2:3c:93:a2:
        2c:26:f0:86:7b:dc:2a:96:6c:c4:b7:c8:d1:b5:8f:1a:55:83:
        48:6f:91:94:88:38:dd:ff:0f:b7:8a:e0:0e:6e:d7:56:85:01:
        ff:4e:43:b7:cd:50:11:f7:46:d7:90:27:81:b5:ff:26:78:34:
        5f:75:37:3a:f3:05:04:bf:21:2a:2f:c2:b0:a5:29:79:5c:f7:
        fe:59:67:12:2a:13:10:18:a8:cf:b9:cf:be:6a:44:3f:ee:55:
        51:b1:10:bd:5d:5b:f2:a7:5d:53:b5:eb:59:89:33:60:98:20:
        ed:39:7a:96:9a:a5:2a:34:df:d5:cb:d0:a5:3a:55:3d:2b:6f:
        9f:8f:5e:dd:4e:a8:6b:42:52:62:13:f3:4a:ee:51:23:ba:0f:
        a1:b0:dd:f3:cf:fa:03:32:48:75:de:c5:b7:cb:c1:bc:12:ff:
        d1:f6:2e:94
-----BEGIN CERTIFICATE-----
MIIDdzCCAl+gAwIBAgIQUHrKKUBbS/9E2eFY1lyRJTANBgkqhkiG9w0BAQsFADAW
MRQwEgYDVQQDDAt0ZWFtMTEzLW5ldDAeFw0yMzExMDMyMDQxMTBaFw0yNjEwMTgy
MDQxMTBaMBkxFzAVBgNVBAMMDnRlYW0xMTMtc2VydmVyMIIBIjANBgkqhkiG9w0B
AQEFAAOCAQ8AMIIBCgKCAQEA7gy+/5uPSXzkz3mYRq8pBIu1AeNnQOPx2G6N1FlL
QoxEys6qS5xtLaqn48002rR7yCXsQYX+HMS4iPSYqrHmWVuTbmughdCZszIwhX73
vMedDIh45D1gUhkDT7J8MbY2xVKafJC03j9AzAtCqCtYy79FxdVnRHsrtndq/iXZ
y9qROMH848oLtFHLNwMfwaOOlzupSaXE5ELe17gqagk5TbYsp9YuE37bcA72axhC
Z1kJ9Y9B28W9Cb5fX55U+TTEr4z56SZPLp7AOI991gjwl+lRC88Rkb8gVZ1kRTjG
qVwGR6r7k1aUzDrpZnIShuOtLpP16QpLlWjWntPhle53xQIDAQABo4G9MIG6MAkG
A1UdEwQCMAAwHQYDVR0OBBYEFEOVH3R4FJr/dvNYfcKstH7dINSWMFEGA1UdIwRK
MEiAFLylB/d46PjguG1dzbEZWeRocndaoRqkGDAWMRQwEgYDVQQDDAt0ZWFtMTEz
LW5ldIIUA/UOzT0FrtqyZMrW85wMz3ZoV10wEwYDVR0lBAwwCgYIKwYBBQUHAwEw
CwYDVR0PBAQDAgWgMBkGA1UdEQQSMBCCDnRlYW0xMTMtc2VydmVyMA0GCSqGSIb3
DQEBCwUAA4IBAQCTJHYJEfa0H/O3912EYXBvmVGZChHG0suqSRVZVnoo8fNgLgpX
r0MtgJk8J2PANo+WyeocscNWUPi9+FkoQgdwki+1M6REddoEe92bWzUBYBdZU7Sa
BtI8k6IsJvCGe9wqlmzEt8jRtY8aVYNIb5GUiDjd/w+3iuAObtdWhQH/TkO3zVAR
90bXkCeBtf8meDRfdTc68wUEvyEqL8KwpSl5XPf+WWcSKhMQGKjPuc++akQ/7lVR
sRC9XVvyp11TtetZiTNgmCDtOXqWmqUqNN/Vy9ClOlU9K2+fj17dTqhrQlJiE/NK
7lEjug+hsN3zz/oDMkh13sW3y8G8Ev/R9i6U
-----END CERTIFICATE-----
