Certificate:
    Data:
        Version: 3 (0x2)
        Serial Number:
            9f:0c:6f:20:42:16:91:62:d8:b1:c7:11:c1:0c:08:65
        Signature Algorithm: sha256WithRSAEncryption
        Issuer: CN=team113-net
        Validity
            Not Before: Nov  4 10:42:31 2023 GMT
            Not After : Oct 19 10:42:31 2026 GMT
        Subject: CN=team113-server
        Subject Public Key Info:
            Public Key Algorithm: rsaEncryption
                Public-Key: (2048 bit)
                Modulus:
                    00:e3:81:65:d7:28:f6:40:a9:3d:47:b3:9b:e0:fa:
                    81:5e:39:5a:ca:bb:65:04:74:67:1b:ad:b5:62:62:
                    b1:29:c2:49:fd:00:8a:4c:e2:e5:97:35:d8:ba:36:
                    aa:86:92:9d:15:e9:6b:ae:0e:b4:38:ff:3d:db:11:
                    2e:1f:2c:df:cb:76:be:db:cc:dd:d3:f7:16:3a:75:
                    bf:07:6f:1a:5d:c1:a5:6e:ce:4a:0f:50:9b:c5:1e:
                    79:3d:ef:71:69:6e:a7:ec:1e:28:ab:87:3f:da:14:
                    5a:f7:bc:7e:af:36:67:1b:2a:fa:3c:91:bd:7c:2d:
                    df:e3:49:7e:16:13:e7:9f:e3:90:45:14:67:a1:c3:
                    98:9a:9b:c5:a3:a0:83:f4:88:96:e9:db:35:7b:50:
                    97:23:16:d2:62:fc:5d:1e:91:52:77:7a:9d:89:bb:
                    18:28:7c:19:33:05:45:6c:b5:08:38:20:59:ee:e5:
                    52:31:e3:19:5e:39:54:ba:67:cd:67:73:8f:8f:ed:
                    5c:6f:ca:f1:f3:22:8b:c0:f1:ab:ed:9b:1c:37:8c:
                    85:19:30:7d:2f:e5:60:2c:f6:03:b5:22:65:c5:4c:
                    64:62:17:13:b7:0b:05:c2:8a:22:5c:10:d3:c6:e8:
                    4c:84:fc:ae:8f:61:87:85:8b:f8:2c:38:6b:52:c8:
                    af:bd
                Exponent: 65537 (0x10001)
        X509v3 extensions:
            X509v3 Basic Constraints: 
                CA:FALSE
            X509v3 Subject Key Identifier: 
                66:14:95:C1:33:8F:94:65:22:ED:36:30:AE:BE:B1:59:5E:B8:60:ED
            X509v3 Authority Key Identifier: 
                keyid:88:5D:CC:CF:65:FB:5B:FC:06:62:21:83:74:6A:8A:36:1E:29:53:81
                DirName:/CN=team113-net
                serial:73:10:41:87:E2:04:E3:27:76:04:B1:E9:AB:BE:01:93:8C:07:93:43
            X509v3 Extended Key Usage: 
                TLS Web Server Authentication
            X509v3 Key Usage: 
                Digital Signature, Key Encipherment
            X509v3 Subject Alternative Name: 
                DNS:team113-server
    Signature Algorithm: sha256WithRSAEncryption
    Signature Value:
        64:32:6e:11:24:30:ed:d9:79:b8:0b:2e:fe:57:1e:38:f4:ab:
        45:92:5d:90:b4:56:19:a2:90:a8:1d:fc:29:8c:b6:ad:48:5e:
        cb:57:e1:32:a6:94:6d:cd:9d:c8:92:a8:26:ac:e9:df:ea:1c:
        2b:f1:7d:e8:4a:76:90:6b:e1:12:74:ba:a9:a9:70:56:6c:63:
        f0:f3:7e:44:5d:40:84:b1:84:ef:dc:10:0b:f1:36:d8:7c:a4:
        46:00:c6:48:83:86:5b:65:ff:ab:df:1a:3a:00:f5:12:17:f0:
        f2:fe:72:86:a7:77:f1:26:ec:a6:15:70:b2:10:f3:68:e9:04:
        0c:64:98:ee:4f:9c:6e:f5:fe:01:ba:5f:07:90:44:74:fe:b5:
        bf:a5:10:6d:ef:69:af:3c:d2:07:2b:32:1a:a0:fa:ca:2a:de:
        78:4f:8d:fc:5d:38:b8:5a:ab:54:43:14:8c:3b:cc:43:bd:7b:
        8d:34:b8:3d:97:31:a7:d0:16:fa:6a:06:ef:24:5e:da:8e:86:
        dd:6e:25:75:68:a5:22:b7:03:e8:72:f0:fa:0d:7c:3b:af:4c:
        32:8b:94:0f:98:87:8f:14:e4:43:47:1a:4a:6a:30:38:61:a6:
        9a:00:08:fe:cd:7a:88:fa:70:0e:6c:00:5b:7f:4d:aa:69:fd:
        10:3b:59:7c
-----BEGIN CERTIFICATE-----
MIIDeDCCAmCgAwIBAgIRAJ8MbyBCFpFi2LHHEcEMCGUwDQYJKoZIhvcNAQELBQAw
FjEUMBIGA1UEAwwLdGVhbTExMy1uZXQwHhcNMjMxMTA0MTA0MjMxWhcNMjYxMDE5
MTA0MjMxWjAZMRcwFQYDVQQDDA50ZWFtMTEzLXNlcnZlcjCCASIwDQYJKoZIhvcN
AQEBBQADggEPADCCAQoCggEBAOOBZdco9kCpPUezm+D6gV45Wsq7ZQR0ZxuttWJi
sSnCSf0Aikzi5Zc12Lo2qoaSnRXpa64OtDj/PdsRLh8s38t2vtvM3dP3Fjp1vwdv
Gl3BpW7OSg9Qm8UeeT3vcWlup+weKKuHP9oUWve8fq82Zxsq+jyRvXwt3+NJfhYT
55/jkEUUZ6HDmJqbxaOgg/SIlunbNXtQlyMW0mL8XR6RUnd6nYm7GCh8GTMFRWy1
CDggWe7lUjHjGV45VLpnzWdzj4/tXG/K8fMii8Dxq+2bHDeMhRkwfS/lYCz2A7Ui
ZcVMZGIXE7cLBcKKIlwQ08boTIT8ro9hh4WL+Cw4a1LIr70CAwEAAaOBvTCBujAJ
BgNVHRMEAjAAMB0GA1UdDgQWBBRmFJXBM4+UZSLtNjCuvrFZXrhg7TBRBgNVHSME
SjBIgBSIXczPZftb/AZiIYN0aoo2HilTgaEapBgwFjEUMBIGA1UEAwwLdGVhbTEx
My1uZXSCFHMQQYfiBOMndgSx6au+AZOMB5NDMBMGA1UdJQQMMAoGCCsGAQUFBwMB
MAsGA1UdDwQEAwIFoDAZBgNVHREEEjAQgg50ZWFtMTEzLXNlcnZlcjANBgkqhkiG
9w0BAQsFAAOCAQEAZDJuESQw7dl5uAsu/lceOPSrRZJdkLRWGaKQqB38KYy2rUhe
y1fhMqaUbc2dyJKoJqzp3+ocK/F96Ep2kGvhEnS6qalwVmxj8PN+RF1AhLGE79wQ
C/E22HykRgDGSIOGW2X/q98aOgD1Ehfw8v5yhqd38SbsphVwshDzaOkEDGSY7k+c
bvX+AbpfB5BEdP61v6UQbe9przzSBysyGqD6yireeE+N/F04uFqrVEMUjDvMQ717
jTS4PZcxp9AW+moG7yRe2o6G3W4ldWilIrcD6HLw+g18O69MMouUD5iHjxTkQ0ca
SmowOGGmmgAI/s16iPpwDmwAW39Nqmn9EDtZfA==
-----END CERTIFICATE-----
