Certificate:
    Data:
        Version: 3 (0x2)
        Serial Number:
            cd:ab:70:57:6b:1e:93:86:7b:e0:c0:9d:88:c5:a1:c3
        Signature Algorithm: sha256WithRSAEncryption
        Issuer: CN=team113-net
        Validity
            Not Before: Nov  4 11:29:41 2023 GMT
            Not After : Oct 19 11:29:41 2026 GMT
        Subject: CN=team113-client
        Subject Public Key Info:
            Public Key Algorithm: rsaEncryption
                Public-Key: (2048 bit)
                Modulus:
                    00:ba:3d:be:9a:08:4c:d5:88:b7:0f:f4:e7:05:b1:
                    a0:63:aa:b9:2c:5b:8a:05:27:99:0f:4e:73:c4:1c:
                    d6:85:78:06:22:bf:39:de:6c:9c:02:99:11:d5:42:
                    ae:8e:a5:8b:1b:d6:34:a1:a7:38:85:c2:df:96:fe:
                    75:70:26:ca:6d:2f:97:b0:5f:91:a0:1c:05:0c:49:
                    75:e2:10:de:a3:b2:a7:98:3a:8b:ae:36:d4:75:71:
                    d8:84:0a:89:54:bb:0d:74:51:e1:97:88:7e:bb:16:
                    55:80:5d:72:87:4b:f6:29:52:4f:4c:58:8f:90:bd:
                    f3:08:0a:6c:2e:d8:31:29:b6:36:b8:18:db:7d:da:
                    06:27:d3:24:a6:04:60:36:0c:e9:08:06:f5:d1:f5:
                    5e:b4:5b:79:1b:71:1c:9a:46:26:82:52:ab:fc:f5:
                    d5:dd:1e:16:44:ab:0b:70:58:27:21:57:b3:c2:1e:
                    5c:85:99:d8:f1:66:eb:2b:30:b4:0e:6a:38:71:0b:
                    72:23:d7:21:60:45:63:80:00:53:b9:59:91:2e:37:
                    35:a6:bd:6e:cb:6d:30:50:39:37:ff:42:65:66:49:
                    48:8c:4c:98:97:95:f1:1f:3d:24:f9:c3:f8:40:6a:
                    61:b7:c3:88:16:0f:1a:1f:d6:c2:be:a9:fb:12:0a:
                    ee:ed
                Exponent: 65537 (0x10001)
        X509v3 extensions:
            X509v3 Basic Constraints: 
                CA:FALSE
            X509v3 Subject Key Identifier: 
                04:12:E0:F1:35:D7:A7:4E:C2:8A:17:FD:95:23:EA:A6:1B:C8:22:0E
            X509v3 Authority Key Identifier: 
                keyid:87:1F:57:6F:7D:BB:91:4F:6E:93:9D:BC:7F:F7:4B:0A:27:5A:FF:40
                DirName:/CN=team113-net
                serial:0D:11:2B:B8:51:78:45:CA:89:7F:79:20:92:01:4D:03:E2:45:52:65
            X509v3 Extended Key Usage: 
                TLS Web Client Authentication
            X509v3 Key Usage: 
                Digital Signature
    Signature Algorithm: sha256WithRSAEncryption
    Signature Value:
        a4:fd:67:ff:9b:cb:4b:2a:7f:3b:68:37:3d:cb:08:22:4b:a6:
        a2:8e:50:f2:43:16:7c:bc:dd:62:24:3b:30:01:9e:7c:8d:36:
        a9:a3:30:e7:ed:13:43:0f:ba:4f:06:1a:a5:47:a9:94:6c:03:
        1b:8b:ff:84:40:ae:77:c2:b0:7e:b2:b8:24:2d:12:c7:68:28:
        9a:a4:3d:b3:ca:d0:93:cb:ec:7f:25:40:12:f8:bb:0d:78:b4:
        5d:3d:04:73:2a:fe:e5:b4:a3:81:e7:8d:c9:ef:2f:cb:95:e9:
        7b:59:50:23:11:a0:81:13:58:93:ac:f4:57:4f:b8:4a:1a:39:
        d9:93:6b:b7:dc:30:d9:20:d2:e8:2e:82:c0:7b:04:d9:8f:c8:
        98:ff:f3:f0:7a:ed:e6:4c:45:95:8c:a4:14:b0:d6:cd:ef:c2:
        6d:ef:02:3f:93:34:26:18:b9:89:a9:56:d2:ca:59:b1:14:18:
        59:a7:31:5f:ec:0b:84:e5:4a:44:ef:99:36:ba:7b:2f:1e:12:
        67:0f:c9:e9:5b:03:b6:db:16:f9:42:c2:ec:5a:20:dd:da:bf:
        4e:1a:af:7f:be:e5:b0:15:b0:57:bd:11:10:83:82:ec:10:39:
        42:1c:18:91:a9:d5:e8:6c:7e:d3:99:d0:41:aa:cc:b2:18:01:
        ae:a3:43:a2
-----BEGIN CERTIFICATE-----
MIIDXTCCAkWgAwIBAgIRAM2rcFdrHpOGe+DAnYjFocMwDQYJKoZIhvcNAQELBQAw
FjEUMBIGA1UEAwwLdGVhbTExMy1uZXQwHhcNMjMxMTA0MTEyOTQxWhcNMjYxMDE5
MTEyOTQxWjAZMRcwFQYDVQQDDA50ZWFtMTEzLWNsaWVudDCCASIwDQYJKoZIhvcN
AQEBBQADggEPADCCAQoCggEBALo9vpoITNWItw/05wWxoGOquSxbigUnmQ9Oc8Qc
1oV4BiK/Od5snAKZEdVCro6lixvWNKGnOIXC35b+dXAmym0vl7BfkaAcBQxJdeIQ
3qOyp5g6i6421HVx2IQKiVS7DXRR4ZeIfrsWVYBdcodL9ilST0xYj5C98wgKbC7Y
MSm2NrgY233aBifTJKYEYDYM6QgG9dH1XrRbeRtxHJpGJoJSq/z11d0eFkSrC3BY
JyFXs8IeXIWZ2PFm6yswtA5qOHELciPXIWBFY4AAU7lZkS43Naa9bsttMFA5N/9C
ZWZJSIxMmJeV8R89JPnD+EBqYbfDiBYPGh/Wwr6p+xIK7u0CAwEAAaOBojCBnzAJ
BgNVHRMEAjAAMB0GA1UdDgQWBBQEEuDxNdenTsKKF/2VI+qmG8giDjBRBgNVHSME
SjBIgBSHH1dvfbuRT26Tnbx/90sKJ1r/QKEapBgwFjEUMBIGA1UEAwwLdGVhbTEx
My1uZXSCFA0RK7hReEXKiX95IJIBTQPiRVJlMBMGA1UdJQQMMAoGCCsGAQUFBwMC
MAsGA1UdDwQEAwIHgDANBgkqhkiG9w0BAQsFAAOCAQEApP1n/5vLSyp/O2g3PcsI
Ikumoo5Q8kMWfLzdYiQ7MAGefI02qaMw5+0TQw+6TwYapUeplGwDG4v/hECud8Kw
frK4JC0Sx2gomqQ9s8rQk8vsfyVAEvi7DXi0XT0Ecyr+5bSjgeeNye8vy5Xpe1lQ
IxGggRNYk6z0V0+4Sho52ZNrt9ww2SDS6C6CwHsE2Y/ImP/z8Hrt5kxFlYykFLDW
ze/Cbe8CP5M0Jhi5ialW0spZsRQYWacxX+wLhOVKRO+ZNrp7Lx4SZw/J6VsDttsW
+ULC7Fog3dq/Thqvf77lsBWwV70REIOC7BA5QhwYkanV6Gx+05nQQarMshgBrqND
og==
-----END CERTIFICATE-----
