Certificate:
    Data:
        Version: 3 (0x2)
        Serial Number:
            cc:66:f1:0f:cc:4f:17:ca:12:72:99:06:39:8d:d5:a8
        Signature Algorithm: sha256WithRSAEncryption
        Issuer: CN=team264-net
        Validity
            Not Before: Nov  3 20:44:09 2023 GMT
            Not After : Oct 18 20:44:09 2026 GMT
        Subject: CN=team264-server
        Subject Public Key Info:
            Public Key Algorithm: rsaEncryption
                Public-Key: (2048 bit)
                Modulus:
                    00:ce:88:92:a1:33:0a:53:3b:bd:36:78:a0:74:4c:
                    5d:02:f4:30:74:05:37:07:6b:0c:99:6e:b4:fa:f8:
                    e7:cc:46:82:71:60:f5:31:f0:8f:a7:6a:0d:fd:72:
                    7c:cf:66:ad:5a:6c:85:e4:62:83:a3:20:8d:f2:f4:
                    a7:bc:38:4b:c3:be:43:14:39:e4:77:c2:93:86:69:
                    75:d5:0e:24:d3:00:58:09:ce:00:3e:80:a1:ad:4d:
                    f4:d3:02:6b:f8:15:b1:19:37:46:18:9e:db:2e:87:
                    44:aa:21:5d:d2:2a:06:ff:f9:6b:49:42:b5:21:18:
                    ff:d3:23:23:85:d8:42:ab:58:60:b1:1c:74:4f:8c:
                    d8:1e:39:4a:56:af:60:b1:29:d2:c8:03:99:00:cb:
                    47:88:a8:47:d4:7a:23:5f:45:d8:13:d0:13:e7:c9:
                    19:54:a8:eb:a7:70:b5:e2:41:e9:cd:e8:f4:7c:35:
                    c0:4d:77:fe:73:5b:94:55:d0:1e:a9:ef:91:48:9f:
                    4c:b8:17:f8:a5:8e:d8:ea:c9:b6:f6:b7:7b:3d:a6:
                    a9:5b:f0:32:0a:fd:8c:c5:eb:f1:8b:e7:c6:ca:f0:
                    bc:42:8d:55:7f:c6:fc:a7:5b:c9:4b:2b:9d:28:c3:
                    8e:2b:15:5d:c3:2f:53:8f:fc:dc:07:06:1b:da:30:
                    ef:4f
                Exponent: 65537 (0x10001)
        X509v3 extensions:
            X509v3 Basic Constraints: 
                CA:FALSE
            X509v3 Subject Key Identifier: 
                68:ED:3B:43:24:37:24:98:53:30:F3:FF:13:17:20:83:EC:FC:2B:9E
            X509v3 Authority Key Identifier: 
                keyid:33:75:C0:F0:A9:E4:2E:5A:38:CE:28:1D:65:ED:B8:B1:FF:F7:C5:9A
                DirName:/CN=team264-net
                serial:10:FD:FE:18:CA:07:65:04:93:6C:25:7E:89:F6:DE:7E:0E:7E:A9:16
            X509v3 Extended Key Usage: 
                TLS Web Server Authentication
            X509v3 Key Usage: 
                Digital Signature, Key Encipherment
            X509v3 Subject Alternative Name: 
                DNS:team264-server
    Signature Algorithm: sha256WithRSAEncryption
    Signature Value:
        86:8c:cc:54:92:6c:dc:2a:05:2b:75:7b:13:4e:29:64:59:8e:
        c7:85:8d:ce:af:85:d1:8e:96:3a:69:98:38:51:be:aa:13:01:
        27:aa:99:7b:82:f6:5f:2a:86:fc:ee:ab:b3:5b:78:50:b6:44:
        0b:19:4e:69:b4:0b:9e:79:d1:97:e2:6c:cc:cd:90:e8:74:01:
        fd:7e:25:45:d9:cf:22:13:95:02:29:5d:c4:95:5a:5d:fa:ec:
        18:5b:de:f5:c8:75:65:f8:ea:90:1c:cc:14:e5:e7:41:ba:d3:
        dc:9a:9a:a3:11:4c:59:20:8b:c2:49:43:12:64:60:e4:6a:13:
        94:23:95:06:fe:9a:16:68:fa:a7:0c:17:f8:f3:f7:7c:ae:17:
        1d:9d:da:03:7d:21:6a:c5:8c:ac:e0:a9:30:99:2b:9c:8d:45:
        21:07:7f:1e:48:53:24:9e:da:da:48:a0:30:8d:07:45:bd:2c:
        33:30:af:5d:91:b9:d2:31:a7:dc:4d:13:88:5b:a7:e1:80:c8:
        25:f0:76:61:4c:b1:ea:93:4b:1e:f5:aa:14:77:9c:5d:1b:b6:
        8b:31:9c:17:bd:41:8d:8f:7b:18:56:f9:79:87:70:1a:b3:0c:
        d2:1b:3d:c5:5a:7a:d2:25:13:32:d0:e8:4a:1d:b9:7f:97:51:
        f0:14:89:31
-----BEGIN CERTIFICATE-----
MIIDeDCCAmCgAwIBAgIRAMxm8Q/MTxfKEnKZBjmN1agwDQYJKoZIhvcNAQELBQAw
FjEUMBIGA1UEAwwLdGVhbTI2NC1uZXQwHhcNMjMxMTAzMjA0NDA5WhcNMjYxMDE4
MjA0NDA5WjAZMRcwFQYDVQQDDA50ZWFtMjY0LXNlcnZlcjCCASIwDQYJKoZIhvcN
AQEBBQADggEPADCCAQoCggEBAM6IkqEzClM7vTZ4oHRMXQL0MHQFNwdrDJlutPr4
58xGgnFg9THwj6dqDf1yfM9mrVpsheRig6MgjfL0p7w4S8O+QxQ55HfCk4ZpddUO
JNMAWAnOAD6Aoa1N9NMCa/gVsRk3Rhie2y6HRKohXdIqBv/5a0lCtSEY/9MjI4XY
QqtYYLEcdE+M2B45SlavYLEp0sgDmQDLR4ioR9R6I19F2BPQE+fJGVSo66dwteJB
6c3o9Hw1wE13/nNblFXQHqnvkUifTLgX+KWO2OrJtva3ez2mqVvwMgr9jMXr8Yvn
xsrwvEKNVX/G/KdbyUsrnSjDjisVXcMvU4/83AcGG9ow708CAwEAAaOBvTCBujAJ
BgNVHRMEAjAAMB0GA1UdDgQWBBRo7TtDJDckmFMw8/8TFyCD7PwrnjBRBgNVHSME
SjBIgBQzdcDwqeQuWjjOKB1l7bix//fFmqEapBgwFjEUMBIGA1UEAwwLdGVhbTI2
NC1uZXSCFBD9/hjKB2UEk2wlfon23n4OfqkWMBMGA1UdJQQMMAoGCCsGAQUFBwMB
MAsGA1UdDwQEAwIFoDAZBgNVHREEEjAQgg50ZWFtMjY0LXNlcnZlcjANBgkqhkiG
9w0BAQsFAAOCAQEAhozMVJJs3CoFK3V7E04pZFmOx4WNzq+F0Y6WOmmYOFG+qhMB
J6qZe4L2XyqG/O6rs1t4ULZECxlOabQLnnnRl+JszM2Q6HQB/X4lRdnPIhOVAild
xJVaXfrsGFve9ch1ZfjqkBzMFOXnQbrT3JqaoxFMWSCLwklDEmRg5GoTlCOVBv6a
Fmj6pwwX+PP3fK4XHZ3aA30hasWMrOCpMJkrnI1FIQd/HkhTJJ7a2kigMI0HRb0s
MzCvXZG50jGn3E0TiFun4YDIJfB2YUyx6pNLHvWqFHecXRu2izGcF71BjY97GFb5
eYdwGrMM0hs9xVp60iUTMtDoSh25f5dR8BSJMQ==
-----END CERTIFICATE-----
