Certificate:
    Data:
        Version: 3 (0x2)
        Serial Number:
            c1:6c:f8:d5:a3:6f:e0:50:20:6a:81:d1:78:15:32:fe
        Signature Algorithm: sha256WithRSAEncryption
        Issuer: CN=team240-net
        Validity
            Not Before: Nov  3 20:43:41 2023 GMT
            Not After : Oct 18 20:43:41 2026 GMT
        Subject: CN=team240-client
        Subject Public Key Info:
            Public Key Algorithm: rsaEncryption
                Public-Key: (2048 bit)
                Modulus:
                    00:bb:25:1a:4b:41:39:89:df:2a:5b:d2:4d:9c:f5:
                    c3:f7:fc:dd:0d:db:4a:2b:0c:b3:1d:a9:8d:a6:f1:
                    7d:5f:dd:f1:c2:97:52:8e:03:a2:99:f2:08:81:a9:
                    57:d1:53:6b:bc:7b:ae:d4:45:eb:f7:12:d4:f0:c9:
                    f4:70:34:29:79:65:27:13:c7:7a:21:8d:aa:10:32:
                    52:b7:c1:5f:bc:e2:a6:12:98:5f:6d:c2:43:51:91:
                    72:8c:0a:be:c0:7c:7f:82:3e:ce:5e:76:e0:e0:4e:
                    ed:3c:d1:fe:59:59:83:4d:b8:dc:94:ae:4f:e5:77:
                    8f:f4:d9:eb:74:95:49:70:a8:df:e9:6d:41:fb:db:
                    ba:cb:6d:45:9b:e1:35:4a:22:b7:78:ff:9a:46:e4:
                    b1:f9:e8:81:07:0e:4b:19:e6:68:34:72:be:da:ea:
                    7e:7e:13:f1:be:c1:a0:6a:ec:17:f3:41:93:61:65:
                    2b:37:18:63:97:4c:9d:d7:0e:44:7d:b0:6a:8d:a4:
                    4c:97:cf:68:76:45:ad:6a:eb:56:74:d9:9d:0a:55:
                    97:95:75:d5:cd:07:6e:75:eb:88:e9:ff:47:ce:ec:
                    91:09:2c:29:45:97:36:30:57:14:6e:67:5b:4c:42:
                    c9:30:84:37:e0:68:12:03:26:e2:3c:1a:81:f3:64:
                    16:0d
                Exponent: 65537 (0x10001)
        X509v3 extensions:
            X509v3 Basic Constraints: 
                CA:FALSE
            X509v3 Subject Key Identifier: 
                01:D7:02:FD:5C:E1:FE:AA:A3:D8:91:72:A1:05:51:A3:90:1C:0A:DC
            X509v3 Authority Key Identifier: 
                keyid:55:E4:D9:D4:BF:B2:97:16:10:44:3A:4B:A8:FD:D7:31:19:35:C2:FF
                DirName:/CN=team240-net
                serial:79:35:25:24:5B:F9:D0:EE:DF:85:F3:2E:4E:9A:0D:08:B2:FB:1D:4F
            X509v3 Extended Key Usage: 
                TLS Web Client Authentication
            X509v3 Key Usage: 
                Digital Signature
    Signature Algorithm: sha256WithRSAEncryption
    Signature Value:
        a0:b7:1e:a3:10:9f:24:1b:86:23:ae:21:9b:81:05:13:13:7d:
        49:f2:36:92:c7:cd:0d:c2:76:a9:b6:c1:c0:24:6d:19:2c:57:
        2b:86:88:6f:ae:73:1b:2b:ec:f2:b8:01:02:f0:68:9f:c3:80:
        46:25:e8:d8:94:5a:fd:00:43:bb:68:4d:a1:13:c6:42:30:2e:
        05:43:7e:14:9d:4f:2f:a2:05:5d:4c:42:0b:9a:47:a5:ac:73:
        ae:08:f1:29:3d:74:68:6f:6e:9b:6d:d8:8c:51:23:ab:6d:b7:
        a3:07:c0:8c:f5:39:33:1a:07:82:5c:c4:db:6a:1e:2b:54:1f:
        7f:47:08:8b:cb:31:46:f4:74:f4:4d:48:3a:e0:9b:cd:be:49:
        a2:9d:f6:dc:26:bc:4d:de:d7:5d:d4:54:ea:0b:fc:ee:ae:9c:
        00:d2:5e:56:04:53:3e:e3:f1:27:b2:31:b4:d5:dd:2a:3b:96:
        c4:25:db:88:55:96:ac:b6:78:b5:ad:6d:23:19:4f:4e:23:da:
        4d:90:99:a5:06:7f:ed:a8:78:ba:f2:9d:44:c0:db:b6:c1:51:
        0f:cd:3e:57:c9:8e:8f:6b:c5:65:43:e7:47:66:6c:21:83:34:
        f7:95:12:bc:ce:92:ca:72:bc:92:60:f1:a7:2e:e4:c8:56:36:
        06:00:11:9c
-----BEGIN CERTIFICATE-----
MIIDXTCCAkWgAwIBAgIRAMFs+NWjb+BQIGqB0XgVMv4wDQYJKoZIhvcNAQELBQAw
FjEUMBIGA1UEAwwLdGVhbTI0MC1uZXQwHhcNMjMxMTAzMjA0MzQxWhcNMjYxMDE4
MjA0MzQxWjAZMRcwFQYDVQQDDA50ZWFtMjQwLWNsaWVudDCCASIwDQYJKoZIhvcN
AQEBBQADggEPADCCAQoCggEBALslGktBOYnfKlvSTZz1w/f83Q3bSisMsx2pjabx
fV/d8cKXUo4DopnyCIGpV9FTa7x7rtRF6/cS1PDJ9HA0KXllJxPHeiGNqhAyUrfB
X7ziphKYX23CQ1GRcowKvsB8f4I+zl524OBO7TzR/llZg0243JSuT+V3j/TZ63SV
SXCo3+ltQfvbusttRZvhNUoit3j/mkbksfnogQcOSxnmaDRyvtrqfn4T8b7BoGrs
F/NBk2FlKzcYY5dMndcORH2wao2kTJfPaHZFrWrrVnTZnQpVl5V11c0HbnXriOn/
R87skQksKUWXNjBXFG5nW0xCyTCEN+BoEgMm4jwagfNkFg0CAwEAAaOBojCBnzAJ
BgNVHRMEAjAAMB0GA1UdDgQWBBQB1wL9XOH+qqPYkXKhBVGjkBwK3DBRBgNVHSME
SjBIgBRV5NnUv7KXFhBEOkuo/dcxGTXC/6EapBgwFjEUMBIGA1UEAwwLdGVhbTI0
MC1uZXSCFHk1JSRb+dDu34XzLk6aDQiy+x1PMBMGA1UdJQQMMAoGCCsGAQUFBwMC
MAsGA1UdDwQEAwIHgDANBgkqhkiG9w0BAQsFAAOCAQEAoLceoxCfJBuGI64hm4EF
ExN9SfI2ksfNDcJ2qbbBwCRtGSxXK4aIb65zGyvs8rgBAvBon8OARiXo2JRa/QBD
u2hNoRPGQjAuBUN+FJ1PL6IFXUxCC5pHpaxzrgjxKT10aG9um23YjFEjq223owfA
jPU5MxoHglzE22oeK1Qff0cIi8sxRvR09E1IOuCbzb5Jop323Ca8Td7XXdRU6gv8
7q6cANJeVgRTPuPxJ7IxtNXdKjuWxCXbiFWWrLZ4ta1tIxlPTiPaTZCZpQZ/7ah4
uvKdRMDbtsFRD80+V8mOj2vFZUPnR2ZsIYM095USvM6SynK8kmDxpy7kyFY2BgAR
nA==
-----END CERTIFICATE-----
