Certificate:
    Data:
        Version: 3 (0x2)
        Serial Number:
            57:f3:e1:c7:48:29:17:60:a3:b0:fd:f8:5d:ca:af:ce
        Signature Algorithm: sha256WithRSAEncryption
        Issuer: CN=team205-net
        Validity
            Not Before: Nov  4 11:31:39 2023 GMT
            Not After : Oct 19 11:31:39 2026 GMT
        Subject: CN=team205-server
        Subject Public Key Info:
            Public Key Algorithm: rsaEncryption
                Public-Key: (2048 bit)
                Modulus:
                    00:b5:ab:b2:42:e1:cb:45:32:63:72:71:a3:1c:c5:
                    c3:8d:6e:db:db:5b:e2:94:d0:28:32:6e:a5:56:62:
                    5d:1a:6c:32:bf:6f:19:71:9e:39:53:7b:03:a3:7a:
                    be:68:3e:22:93:e9:e1:e8:1f:12:7d:4a:53:56:a2:
                    cf:54:1a:55:83:41:93:ff:30:f5:80:4d:3e:ee:f3:
                    04:2b:52:54:1f:5f:19:ea:7a:26:59:00:ce:f5:0d:
                    d0:ec:dd:68:4f:48:a3:60:df:57:06:8c:39:bf:57:
                    fc:c5:84:08:f9:3e:d1:43:f1:94:69:92:fd:cd:f3:
                    be:98:42:74:e7:a0:6d:3f:e6:e0:68:12:28:72:a6:
                    f8:3c:60:38:11:1b:6a:b6:f8:bc:7e:b9:15:bf:d3:
                    70:ce:bf:96:20:9e:35:99:bc:0a:12:bd:15:d8:5e:
                    7a:27:e2:17:ec:a0:bf:13:60:ea:1b:08:8a:b4:49:
                    a6:ed:0b:25:d0:34:d4:e3:86:80:7a:c8:3f:a8:b8:
                    ca:eb:53:c6:e1:94:af:33:0a:f2:85:bb:8f:f1:5a:
                    bb:12:81:bd:48:0e:37:5b:0b:09:9c:19:71:fc:26:
                    0b:14:33:a0:70:f5:1d:73:89:b7:45:b4:5b:1b:4a:
                    31:4f:5f:0f:83:d1:6e:bf:9f:16:6a:c6:ff:ae:31:
                    e2:75
                Exponent: 65537 (0x10001)
        X509v3 extensions:
            X509v3 Basic Constraints: 
                CA:FALSE
            X509v3 Subject Key Identifier: 
                40:23:C8:DE:14:9B:AF:78:3A:C8:DD:BD:8E:96:55:22:CD:EB:26:5E
            X509v3 Authority Key Identifier: 
                keyid:66:D8:9F:51:A9:69:B9:95:DD:43:DA:02:95:75:B7:1E:2C:96:F3:A3
                DirName:/CN=team205-net
                serial:77:B7:EC:12:7F:E5:01:CB:37:EF:C5:69:33:F9:FD:D2:D1:D1:94:9F
            X509v3 Extended Key Usage: 
                TLS Web Server Authentication
            X509v3 Key Usage: 
                Digital Signature, Key Encipherment
            X509v3 Subject Alternative Name: 
                DNS:team205-server
    Signature Algorithm: sha256WithRSAEncryption
    Signature Value:
        c6:f1:4c:9c:17:1c:d5:7e:33:51:1b:f4:43:d3:2e:a0:5b:0b:
        cd:5d:ad:81:fb:0e:3f:c4:a2:9a:96:f9:bf:32:ac:e4:b9:14:
        ab:a2:0d:d2:5b:4f:f6:15:dd:8b:a0:2b:1f:e6:cb:1c:7d:66:
        e5:19:17:6a:46:45:c6:42:98:c4:d2:78:e1:ea:92:dd:6b:13:
        6f:13:3e:2c:d3:b3:1f:69:01:79:88:29:73:88:6e:59:d2:86:
        f0:d0:51:f6:58:1b:2d:f8:d9:14:2b:c5:29:86:a2:c2:ed:1d:
        11:05:a3:9c:aa:d9:d6:cf:98:ab:69:86:f5:70:5b:c5:be:eb:
        f7:20:42:a6:30:a3:e8:eb:f3:3f:38:b3:b3:ba:f3:f6:6f:82:
        1b:6c:85:dc:30:18:ef:71:d0:17:fc:a0:63:13:9b:74:10:3b:
        1d:79:bb:40:50:46:c6:f0:c4:62:5d:d7:58:91:18:ab:c3:7e:
        55:05:7c:d7:15:f6:0c:68:8e:dd:78:0b:8e:31:5a:17:07:2a:
        68:f5:8a:83:b6:51:6e:2d:2d:cc:7f:6f:b0:fe:87:71:73:73:
        df:2d:04:41:1e:be:4a:95:ce:65:25:0b:df:29:2e:cd:88:d2:
        1e:33:b3:33:df:c0:a0:fa:5b:8b:66:6b:3b:a4:86:a9:05:7c:
        26:32:f7:a2
-----BEGIN CERTIFICATE-----
MIIDdzCCAl+gAwIBAgIQV/Phx0gpF2CjsP34XcqvzjANBgkqhkiG9w0BAQsFADAW
MRQwEgYDVQQDDAt0ZWFtMjA1LW5ldDAeFw0yMzExMDQxMTMxMzlaFw0yNjEwMTkx
MTMxMzlaMBkxFzAVBgNVBAMMDnRlYW0yMDUtc2VydmVyMIIBIjANBgkqhkiG9w0B
AQEFAAOCAQ8AMIIBCgKCAQEAtauyQuHLRTJjcnGjHMXDjW7b21vilNAoMm6lVmJd
Gmwyv28ZcZ45U3sDo3q+aD4ik+nh6B8SfUpTVqLPVBpVg0GT/zD1gE0+7vMEK1JU
H18Z6nomWQDO9Q3Q7N1oT0ijYN9XBow5v1f8xYQI+T7RQ/GUaZL9zfO+mEJ056Bt
P+bgaBIocqb4PGA4ERtqtvi8frkVv9Nwzr+WIJ41mbwKEr0V2F56J+IX7KC/E2Dq
GwiKtEmm7Qsl0DTU44aAesg/qLjK61PG4ZSvMwryhbuP8Vq7EoG9SA43WwsJnBlx
/CYLFDOgcPUdc4m3RbRbG0oxT18Pg9Fuv58Wasb/rjHidQIDAQABo4G9MIG6MAkG
A1UdEwQCMAAwHQYDVR0OBBYEFEAjyN4Um694OsjdvY6WVSLN6yZeMFEGA1UdIwRK
MEiAFGbYn1GpabmV3UPaApV1tx4slvOjoRqkGDAWMRQwEgYDVQQDDAt0ZWFtMjA1
LW5ldIIUd7fsEn/lAcs378VpM/n90tHRlJ8wEwYDVR0lBAwwCgYIKwYBBQUHAwEw
CwYDVR0PBAQDAgWgMBkGA1UdEQQSMBCCDnRlYW0yMDUtc2VydmVyMA0GCSqGSIb3
DQEBCwUAA4IBAQDG8UycFxzVfjNRG/RD0y6gWwvNXa2B+w4/xKKalvm/MqzkuRSr
og3SW0/2Fd2LoCsf5sscfWblGRdqRkXGQpjE0njh6pLdaxNvEz4s07MfaQF5iClz
iG5Z0obw0FH2WBst+NkUK8UphqLC7R0RBaOcqtnWz5iraYb1cFvFvuv3IEKmMKPo
6/M/OLOzuvP2b4IbbIXcMBjvcdAX/KBjE5t0EDsdebtAUEbG8MRiXddYkRirw35V
BXzXFfYMaI7deAuOMVoXBypo9YqDtlFuLS3Mf2+w/odxc3PfLQRBHr5Klc5lJQvf
KS7NiNIeM7Mz38Cg+luLZms7pIapBXwmMvei
-----END CERTIFICATE-----
