Certificate:
    Data:
        Version: 3 (0x2)
        Serial Number:
            7e:25:7f:29:20:06:06:6c:96:f8:64:d7:87:3e:10:8e
        Signature Algorithm: sha256WithRSAEncryption
        Issuer: CN=team205-net
        Validity
            Not Before: Nov  4 10:44:26 2023 GMT
            Not After : Oct 19 10:44:26 2026 GMT
        Subject: CN=team205-client
        Subject Public Key Info:
            Public Key Algorithm: rsaEncryption
                Public-Key: (2048 bit)
                Modulus:
                    00:cd:7e:a0:16:4c:a3:18:84:f8:54:fe:eb:78:ce:
                    f2:53:99:8d:15:b9:84:e9:3d:ba:bb:ef:91:8d:eb:
                    a8:28:1b:34:d0:9d:3e:5e:ab:3b:dc:b7:f2:e8:6f:
                    fd:d9:01:b1:a6:5a:b5:80:8c:3a:a7:c8:e7:5c:eb:
                    92:a4:83:59:32:fb:ff:5b:96:d0:11:79:a0:18:2b:
                    8c:70:35:bd:dd:69:72:b1:5e:22:ee:8f:5b:d6:aa:
                    5b:83:a3:30:ba:7b:3f:af:9d:12:1d:8b:52:23:9e:
                    df:42:df:9b:23:5c:23:42:93:3f:ee:0a:a2:54:8f:
                    7e:42:9c:70:d8:53:e6:06:cc:ad:92:64:51:24:af:
                    77:e5:34:68:50:5e:f9:90:16:e4:3a:53:d9:1f:46:
                    c6:95:74:9c:fd:3f:ab:f3:63:20:6f:b3:6c:34:30:
                    87:1a:73:ba:9d:16:ec:f3:01:de:58:ef:fa:57:5a:
                    66:25:b9:3a:b5:32:b4:5f:7e:41:e0:39:99:1d:cf:
                    5f:99:6e:7a:36:2f:72:34:ca:30:bc:cd:50:77:02:
                    f5:c3:cc:1e:30:38:9c:02:8e:ed:f4:1c:86:5d:96:
                    8b:43:0a:c5:9e:6f:2d:6e:0d:16:ba:4f:df:a1:77:
                    47:09:33:9a:6e:80:1b:9a:08:99:e4:ad:80:3a:45:
                    98:a5
                Exponent: 65537 (0x10001)
        X509v3 extensions:
            X509v3 Basic Constraints: 
                CA:FALSE
            X509v3 Subject Key Identifier: 
                C8:7A:5F:4A:81:48:B2:3E:C0:1B:FB:75:0C:F8:3E:11:D8:D9:48:68
            X509v3 Authority Key Identifier: 
                keyid:9C:39:35:DE:6C:EB:97:AE:AA:DF:8F:B8:16:B5:66:2F:59:77:87:60
                DirName:/CN=team205-net
                serial:0E:15:2B:F4:EA:04:74:DA:40:6F:10:C8:BE:C7:DF:7E:99:17:DC:C7
            X509v3 Extended Key Usage: 
                TLS Web Client Authentication
            X509v3 Key Usage: 
                Digital Signature
    Signature Algorithm: sha256WithRSAEncryption
    Signature Value:
        94:f7:ce:0e:ac:9e:44:1e:33:05:c6:d1:71:16:b6:7f:cc:b1:
        cb:fc:06:29:6e:93:2f:dd:39:e0:01:53:5b:1f:0e:bb:17:bc:
        d1:b2:5d:36:f0:ed:3f:fe:9b:0c:ab:c3:3e:88:de:b9:b1:d3:
        3c:0e:51:7b:50:a8:bf:20:7c:b4:4a:4a:a4:e3:43:3a:74:bd:
        f1:12:c2:8a:d1:e1:0d:60:76:48:4d:d0:ea:cc:bf:41:54:e4:
        57:9e:49:f0:30:7b:3c:ac:6d:4f:e9:ca:b6:23:f7:c3:a8:ca:
        2c:c2:a6:2e:69:1d:6a:b6:33:f3:04:77:07:b6:a7:a4:91:ae:
        39:90:97:f7:61:49:4f:46:59:73:6e:ed:de:3c:fd:93:c6:b8:
        c6:51:52:bf:d0:4f:cf:df:01:a6:be:2a:7b:3e:54:32:c1:c7:
        33:20:34:19:a1:87:73:42:52:45:b8:1a:af:88:9d:b9:ec:34:
        d7:0d:17:53:c5:56:f5:9b:be:90:e0:de:4c:bf:81:4e:cf:f0:
        92:9f:5f:fe:a9:e8:49:0a:a9:ef:3d:bd:f8:bf:16:30:37:72:
        80:18:98:5b:ac:c6:92:b0:e0:4c:80:73:67:61:43:23:bf:ad:
        d7:ec:20:8e:55:a1:f4:3f:ef:5f:32:df:0b:9a:53:ac:5d:1f:
        63:75:92:02
-----BEGIN CERTIFICATE-----
MIIDXDCCAkSgAwIBAgIQfiV/KSAGBmyW+GTXhz4QjjANBgkqhkiG9w0BAQsFADAW
MRQwEgYDVQQDDAt0ZWFtMjA1LW5ldDAeFw0yMzExMDQxMDQ0MjZaFw0yNjEwMTkx
MDQ0MjZaMBkxFzAVBgNVBAMMDnRlYW0yMDUtY2xpZW50MIIBIjANBgkqhkiG9w0B
AQEFAAOCAQ8AMIIBCgKCAQEAzX6gFkyjGIT4VP7reM7yU5mNFbmE6T26u++Rjeuo
KBs00J0+Xqs73Lfy6G/92QGxplq1gIw6p8jnXOuSpINZMvv/W5bQEXmgGCuMcDW9
3WlysV4i7o9b1qpbg6Mwuns/r50SHYtSI57fQt+bI1wjQpM/7gqiVI9+Qpxw2FPm
BsytkmRRJK935TRoUF75kBbkOlPZH0bGlXSc/T+r82Mgb7NsNDCHGnO6nRbs8wHe
WO/6V1pmJbk6tTK0X35B4DmZHc9fmW56Ni9yNMowvM1QdwL1w8weMDicAo7t9ByG
XZaLQwrFnm8tbg0Wuk/foXdHCTOaboAbmgiZ5K2AOkWYpQIDAQABo4GiMIGfMAkG
A1UdEwQCMAAwHQYDVR0OBBYEFMh6X0qBSLI+wBv7dQz4PhHY2UhoMFEGA1UdIwRK
MEiAFJw5Nd5s65euqt+PuBa1Zi9Zd4dgoRqkGDAWMRQwEgYDVQQDDAt0ZWFtMjA1
LW5ldIIUDhUr9OoEdNpAbxDIvsfffpkX3McwEwYDVR0lBAwwCgYIKwYBBQUHAwIw
CwYDVR0PBAQDAgeAMA0GCSqGSIb3DQEBCwUAA4IBAQCU984OrJ5EHjMFxtFxFrZ/
zLHL/AYpbpMv3TngAVNbHw67F7zRsl028O0//psMq8M+iN65sdM8DlF7UKi/IHy0
Skqk40M6dL3xEsKK0eENYHZITdDqzL9BVORXnknwMHs8rG1P6cq2I/fDqMoswqYu
aR1qtjPzBHcHtqekka45kJf3YUlPRllzbu3ePP2TxrjGUVK/0E/P3wGmvip7PlQy
wcczIDQZoYdzQlJFuBqviJ257DTXDRdTxVb1m76Q4N5Mv4FOz/CSn1/+qehJCqnv
Pb34vxYwN3KAGJhbrMaSsOBMgHNnYUMjv63X7CCOVaH0P+9fMt8LmlOsXR9jdZIC
-----END CERTIFICATE-----
