Certificate:
    Data:
        Version: 3 (0x2)
        Serial Number:
            96:59:03:ed:82:93:60:47:63:6a:ef:2e:df:80:58:1e
        Signature Algorithm: sha256WithRSAEncryption
        Issuer: CN=team205-net
        Validity
            Not Before: Nov  4 11:31:39 2023 GMT
            Not After : Oct 19 11:31:39 2026 GMT
        Subject: CN=team205-client
        Subject Public Key Info:
            Public Key Algorithm: rsaEncryption
                Public-Key: (2048 bit)
                Modulus:
                    00:c2:7d:7f:06:9d:ff:97:82:e0:3c:88:e0:1e:d7:
                    16:6e:f5:06:ab:6b:48:72:8e:17:e8:5c:eb:9a:c9:
                    13:7f:26:2a:df:5c:c8:be:f8:a6:bb:6c:c7:76:55:
                    88:2f:87:21:06:36:9c:2c:a6:f0:8d:44:71:11:74:
                    29:b3:30:29:c9:d4:71:68:b1:6e:6e:c1:fc:c4:a1:
                    90:d1:b9:37:9d:f9:4f:7b:5f:d6:81:5e:1c:26:7e:
                    e9:8e:48:13:8f:1c:f0:c9:76:87:4b:c1:d6:ea:49:
                    20:8b:7a:16:34:83:b7:9c:9e:97:3a:67:d5:51:0a:
                    91:4b:6f:00:c8:49:d6:91:48:52:73:ec:51:59:ee:
                    1f:37:3f:52:57:06:4e:1e:08:b9:c0:9e:62:72:1b:
                    4c:26:7e:61:82:04:e6:71:e9:de:64:c4:ab:8f:5a:
                    34:2b:40:a1:f0:c1:c0:08:fe:8c:c8:c8:c5:5a:29:
                    35:d0:99:20:ae:aa:d6:a5:3d:19:c5:9c:af:14:87:
                    01:02:70:29:ed:08:16:fe:76:db:96:20:3a:d4:0d:
                    6b:74:5d:73:c3:50:55:3d:43:c3:f8:e5:f8:52:73:
                    71:53:6f:c6:63:fc:87:45:32:77:af:67:eb:f4:fa:
                    ac:3f:42:e5:7c:55:ff:c3:a5:2b:b1:ea:03:a0:1c:
                    07:2f
                Exponent: 65537 (0x10001)
        X509v3 extensions:
            X509v3 Basic Constraints: 
                CA:FALSE
            X509v3 Subject Key Identifier: 
                E3:40:08:46:48:75:6D:E0:81:D5:38:24:6F:80:65:7C:C3:15:0F:08
            X509v3 Authority Key Identifier: 
                keyid:66:D8:9F:51:A9:69:B9:95:DD:43:DA:02:95:75:B7:1E:2C:96:F3:A3
                DirName:/CN=team205-net
                serial:77:B7:EC:12:7F:E5:01:CB:37:EF:C5:69:33:F9:FD:D2:D1:D1:94:9F
            X509v3 Extended Key Usage: 
                TLS Web Client Authentication
            X509v3 Key Usage: 
                Digital Signature
    Signature Algorithm: sha256WithRSAEncryption
    Signature Value:
        56:8c:3b:d9:74:f9:e6:d3:f8:47:1d:07:78:6a:f0:11:0d:fa:
        70:41:5b:3c:10:e9:98:a4:7a:ad:70:e9:f7:66:0f:37:45:fa:
        ca:9f:df:8a:05:27:b8:17:95:44:af:cf:6b:63:67:a2:81:e9:
        a0:6c:61:e8:07:57:cc:be:cf:57:76:cf:80:e0:13:16:bf:61:
        94:45:b2:2f:c2:ef:84:8e:a4:76:54:70:57:bd:b5:4f:97:58:
        1a:ef:d1:ae:e1:c4:81:50:56:05:fa:d9:98:21:0b:d7:ad:47:
        54:82:71:db:a0:59:6c:0d:34:40:18:17:66:aa:fc:10:df:5e:
        5a:70:b5:3f:11:ce:f0:cd:76:ff:f1:32:a7:07:16:4d:b6:dd:
        c6:a7:3b:99:0a:2b:b8:86:9d:c3:9f:32:e6:c0:61:f8:6d:7b:
        c8:e5:52:19:2b:17:33:a9:45:d8:2a:57:3d:f0:01:5e:40:22:
        c7:2b:96:8d:a1:99:7b:c5:18:2b:f6:41:0a:07:e4:ae:18:23:
        b9:d5:1b:e8:1b:d7:1a:98:3c:3c:72:19:1e:87:bd:10:6f:ed:
        eb:73:45:28:34:11:59:08:99:a4:f7:f3:5d:f7:85:3a:61:56:
        90:f2:84:39:24:97:74:52:40:5f:fa:17:d0:84:c8:ed:81:21:
        0e:c6:18:1c
-----BEGIN CERTIFICATE-----
MIIDXTCCAkWgAwIBAgIRAJZZA+2Ck2BHY2rvLt+AWB4wDQYJKoZIhvcNAQELBQAw
FjEUMBIGA1UEAwwLdGVhbTIwNS1uZXQwHhcNMjMxMTA0MTEzMTM5WhcNMjYxMDE5
MTEzMTM5WjAZMRcwFQYDVQQDDA50ZWFtMjA1LWNsaWVudDCCASIwDQYJKoZIhvcN
AQEBBQADggEPADCCAQoCggEBAMJ9fwad/5eC4DyI4B7XFm71BqtrSHKOF+hc65rJ
E38mKt9cyL74prtsx3ZViC+HIQY2nCym8I1EcRF0KbMwKcnUcWixbm7B/MShkNG5
N535T3tf1oFeHCZ+6Y5IE48c8Ml2h0vB1upJIIt6FjSDt5yelzpn1VEKkUtvAMhJ
1pFIUnPsUVnuHzc/UlcGTh4IucCeYnIbTCZ+YYIE5nHp3mTEq49aNCtAofDBwAj+
jMjIxVopNdCZIK6q1qU9GcWcrxSHAQJwKe0IFv5225YgOtQNa3Rdc8NQVT1Dw/jl
+FJzcVNvxmP8h0Uyd69n6/T6rD9C5XxV/8OlK7HqA6AcBy8CAwEAAaOBojCBnzAJ
BgNVHRMEAjAAMB0GA1UdDgQWBBTjQAhGSHVt4IHVOCRvgGV8wxUPCDBRBgNVHSME
SjBIgBRm2J9RqWm5ld1D2gKVdbceLJbzo6EapBgwFjEUMBIGA1UEAwwLdGVhbTIw
NS1uZXSCFHe37BJ/5QHLN+/FaTP5/dLR0ZSfMBMGA1UdJQQMMAoGCCsGAQUFBwMC
MAsGA1UdDwQEAwIHgDANBgkqhkiG9w0BAQsFAAOCAQEAVow72XT55tP4Rx0HeGrw
EQ36cEFbPBDpmKR6rXDp92YPN0X6yp/figUnuBeVRK/Pa2NnooHpoGxh6AdXzL7P
V3bPgOATFr9hlEWyL8LvhI6kdlRwV721T5dYGu/RruHEgVBWBfrZmCEL161HVIJx
26BZbA00QBgXZqr8EN9eWnC1PxHO8M12//EypwcWTbbdxqc7mQoruIadw58y5sBh
+G17yOVSGSsXM6lF2CpXPfABXkAixyuWjaGZe8UYK/ZBCgfkrhgjudUb6BvXGpg8
PHIZHoe9EG/t63NFKDQRWQiZpPfzXfeFOmFWkPKEOSSXdFJAX/oX0ITI7YEhDsYY
HA==
-----END CERTIFICATE-----
