Certificate:
    Data:
        Version: 3 (0x2)
        Serial Number:
            c7:38:12:05:a9:49:68:07:59:b2:b5:d9:19:fa:1d:0f
        Signature Algorithm: sha256WithRSAEncryption
        Issuer: CN=team205-net
        Validity
            Not Before: Nov  4 10:44:26 2023 GMT
            Not After : Oct 19 10:44:26 2026 GMT
        Subject: CN=team205-server
        Subject Public Key Info:
            Public Key Algorithm: rsaEncryption
                Public-Key: (2048 bit)
                Modulus:
                    00:ca:7f:0e:30:17:ee:4e:a9:26:0a:43:0c:00:71:
                    79:f1:26:f6:66:00:61:ae:04:29:61:bf:99:ad:00:
                    ab:2f:fa:46:dd:a2:3d:c9:eb:4a:08:85:32:38:63:
                    02:6a:a9:25:cf:e3:1c:7e:26:93:ef:c0:b7:34:d7:
                    93:4b:00:0b:93:24:28:17:c0:f8:fa:aa:b8:5e:f9:
                    f0:5f:1c:13:bc:10:84:7a:1d:8d:be:62:1c:de:2e:
                    75:18:3f:55:3f:77:03:e3:98:3a:aa:7a:49:d6:8d:
                    1e:0e:a7:67:54:69:af:07:d8:84:36:16:78:1e:3e:
                    6a:7a:71:1b:f2:a1:06:39:ea:81:5c:e8:06:6a:1a:
                    29:cc:de:7f:7a:27:18:ce:44:dd:bc:8b:3f:00:e6:
                    e1:ee:b0:d0:4d:d0:e9:e7:30:30:63:0b:11:99:73:
                    d7:dd:74:c1:96:52:7d:fa:40:54:3a:a9:a0:24:23:
                    9f:0c:e0:04:01:40:ec:c4:f0:db:eb:22:5e:7f:3a:
                    99:a0:79:5b:10:c5:2a:6f:47:b5:bd:0f:2d:b0:77:
                    7a:7d:56:0e:0f:a3:3f:bb:54:27:fc:5f:c4:01:2b:
                    b0:8e:4e:3a:c1:05:8a:ad:58:a0:4f:5f:0b:bb:39:
                    eb:1c:d9:c7:61:4d:13:e2:11:ef:63:a8:64:94:28:
                    1f:21
                Exponent: 65537 (0x10001)
        X509v3 extensions:
            X509v3 Basic Constraints: 
                CA:FALSE
            X509v3 Subject Key Identifier: 
                CA:6E:3F:B6:D3:16:09:26:E8:99:C7:88:8E:E8:5F:85:83:8B:8D:23
            X509v3 Authority Key Identifier: 
                keyid:9C:39:35:DE:6C:EB:97:AE:AA:DF:8F:B8:16:B5:66:2F:59:77:87:60
                DirName:/CN=team205-net
                serial:0E:15:2B:F4:EA:04:74:DA:40:6F:10:C8:BE:C7:DF:7E:99:17:DC:C7
            X509v3 Extended Key Usage: 
                TLS Web Server Authentication
            X509v3 Key Usage: 
                Digital Signature, Key Encipherment
            X509v3 Subject Alternative Name: 
                DNS:team205-server
    Signature Algorithm: sha256WithRSAEncryption
    Signature Value:
        b1:e3:6e:c5:6d:2f:c7:ac:29:a5:27:43:ae:e3:ef:50:7e:06:
        f2:58:2c:a0:36:dc:e3:18:23:da:c5:b7:6c:68:c3:68:0a:51:
        b9:7a:f9:2e:f0:eb:ee:f7:2c:8d:63:d8:e5:e3:ea:19:3f:7f:
        9a:0e:43:2b:7c:b3:96:41:fe:db:6c:9b:7e:b0:1d:10:c7:3e:
        f5:31:52:5f:b8:c0:cb:75:0e:3b:0b:e6:3f:5b:a6:07:c8:61:
        48:9a:dd:78:b8:21:cb:5c:45:e8:96:cf:c2:7a:19:07:04:f7:
        d0:e8:1c:bb:64:6a:f2:c8:77:00:e5:df:93:c9:9e:77:8b:76:
        5c:2d:6e:e3:fe:af:8b:07:ad:a4:ae:a1:80:84:ef:c9:88:27:
        11:e0:fa:bb:f2:95:66:3b:52:d4:53:33:3b:0f:8f:a1:b0:ae:
        44:ec:b4:bb:38:02:37:34:cf:70:9f:43:93:a6:c7:c5:15:b1:
        55:c0:2f:f9:4f:f3:98:3b:1f:0e:c4:58:e3:3a:be:f1:70:94:
        45:21:0e:91:2f:63:66:79:68:9a:e3:20:5c:1c:12:9a:e3:bc:
        fe:99:0d:be:b9:21:59:ed:bf:60:a8:f5:da:18:67:c8:69:35:
        81:18:8e:f6:41:bc:4f:f4:2c:37:df:cb:de:14:06:c5:94:81:
        81:06:f4:6e
-----BEGIN CERTIFICATE-----
MIIDeDCCAmCgAwIBAgIRAMc4EgWpSWgHWbK12Rn6HQ8wDQYJKoZIhvcNAQELBQAw
FjEUMBIGA1UEAwwLdGVhbTIwNS1uZXQwHhcNMjMxMTA0MTA0NDI2WhcNMjYxMDE5
MTA0NDI2WjAZMRcwFQYDVQQDDA50ZWFtMjA1LXNlcnZlcjCCASIwDQYJKoZIhvcN
AQEBBQADggEPADCCAQoCggEBAMp/DjAX7k6pJgpDDABxefEm9mYAYa4EKWG/ma0A
qy/6Rt2iPcnrSgiFMjhjAmqpJc/jHH4mk+/AtzTXk0sAC5MkKBfA+PqquF758F8c
E7wQhHodjb5iHN4udRg/VT93A+OYOqp6SdaNHg6nZ1RprwfYhDYWeB4+anpxG/Kh
BjnqgVzoBmoaKczef3onGM5E3byLPwDm4e6w0E3Q6ecwMGMLEZlz1910wZZSffpA
VDqpoCQjnwzgBAFA7MTw2+siXn86maB5WxDFKm9Htb0PLbB3en1WDg+jP7tUJ/xf
xAErsI5OOsEFiq1YoE9fC7s56xzZx2FNE+IR72OoZJQoHyECAwEAAaOBvTCBujAJ
BgNVHRMEAjAAMB0GA1UdDgQWBBTKbj+20xYJJuiZx4iO6F+Fg4uNIzBRBgNVHSME
SjBIgBScOTXebOuXrqrfj7gWtWYvWXeHYKEapBgwFjEUMBIGA1UEAwwLdGVhbTIw
NS1uZXSCFA4VK/TqBHTaQG8QyL7H336ZF9zHMBMGA1UdJQQMMAoGCCsGAQUFBwMB
MAsGA1UdDwQEAwIFoDAZBgNVHREEEjAQgg50ZWFtMjA1LXNlcnZlcjANBgkqhkiG
9w0BAQsFAAOCAQEAseNuxW0vx6wppSdDruPvUH4G8lgsoDbc4xgj2sW3bGjDaApR
uXr5LvDr7vcsjWPY5ePqGT9/mg5DK3yzlkH+22ybfrAdEMc+9TFSX7jAy3UOOwvm
P1umB8hhSJrdeLghy1xF6JbPwnoZBwT30Ogcu2Rq8sh3AOXfk8med4t2XC1u4/6v
iwetpK6hgITvyYgnEeD6u/KVZjtS1FMzOw+PobCuROy0uzgCNzTPcJ9Dk6bHxRWx
VcAv+U/zmDsfDsRY4zq+8XCURSEOkS9jZnlomuMgXBwSmuO8/pkNvrkhWe2/YKj1
2hhnyGk1gRiO9kG8T/QsN9/L3hQGxZSBgQb0bg==
-----END CERTIFICATE-----
