Certificate:
    Data:
        Version: 3 (0x2)
        Serial Number:
            d5:5f:a2:55:7d:92:35:b2:4c:9f:a6:ab:ce:6f:da:b1
        Signature Algorithm: sha256WithRSAEncryption
        Issuer: CN=team205-net
        Validity
            Not Before: Nov  3 20:43:00 2023 GMT
            Not After : Oct 18 20:43:00 2026 GMT
        Subject: CN=team205-server
        Subject Public Key Info:
            Public Key Algorithm: rsaEncryption
                Public-Key: (2048 bit)
                Modulus:
                    00:c4:43:9a:f9:05:d0:fc:03:88:fd:67:d1:eb:d2:
                    3c:c6:5d:fa:7f:72:9e:cf:a6:93:c2:09:0e:c9:32:
                    47:dd:cc:24:24:7b:8b:e7:d7:30:5d:42:b9:25:61:
                    aa:8c:1f:3c:34:87:13:4e:03:ba:f7:43:cb:8d:32:
                    8e:0a:db:43:ee:7c:3a:c1:d4:41:79:c6:7d:12:ee:
                    15:51:e8:fd:5f:8f:32:93:94:f7:50:60:81:ad:f0:
                    fc:1e:0f:fb:4c:91:f2:35:58:39:b1:cb:b2:64:1f:
                    69:6e:cd:b5:51:e1:92:fc:b1:64:4f:4b:70:67:9a:
                    a2:c0:6c:95:6b:a7:78:93:fa:89:bd:f9:35:be:d1:
                    d4:75:76:c6:6c:8f:83:fd:91:70:23:f0:ba:cb:3d:
                    b6:6b:1d:87:20:4a:da:e2:3b:c7:d6:e9:f6:a0:b2:
                    77:f4:66:f4:67:a7:c3:cb:13:23:04:89:3a:b8:08:
                    5a:cc:60:9d:8f:4b:d1:9e:98:6c:6a:2e:18:e8:27:
                    66:cf:21:11:a0:47:83:63:cd:74:fb:7c:99:8c:27:
                    51:62:33:2a:31:88:93:42:46:1a:06:c2:85:72:ec:
                    06:6c:07:9c:bb:8c:be:d3:56:14:77:91:46:a8:1c:
                    90:fe:12:55:e9:48:d1:ae:9c:6c:82:9c:55:24:7d:
                    9c:f1
                Exponent: 65537 (0x10001)
        X509v3 extensions:
            X509v3 Basic Constraints: 
                CA:FALSE
            X509v3 Subject Key Identifier: 
                6C:76:94:8A:7A:2D:2E:21:D9:4D:78:82:AC:BF:16:65:9D:49:71:B9
            X509v3 Authority Key Identifier: 
                keyid:55:85:88:0F:64:8E:67:F5:08:B8:84:98:47:28:37:05:C9:52:84:14
                DirName:/CN=team205-net
                serial:38:7D:57:51:54:8E:C9:B9:C6:15:8B:54:26:87:5E:FC:D3:14:4C:C6
            X509v3 Extended Key Usage: 
                TLS Web Server Authentication
            X509v3 Key Usage: 
                Digital Signature, Key Encipherment
            X509v3 Subject Alternative Name: 
                DNS:team205-server
    Signature Algorithm: sha256WithRSAEncryption
    Signature Value:
        9c:72:a1:44:f8:3e:a4:ea:04:b2:0f:8c:12:92:14:37:aa:94:
        91:7a:f3:d1:b4:85:9f:e6:3e:d1:fc:26:1a:5f:df:79:c1:c2:
        52:f2:03:4c:80:aa:1a:dd:82:9c:40:9c:90:ba:77:f3:57:03:
        81:2b:a5:2e:a1:7c:7e:83:cc:c7:54:19:49:f9:e1:47:c8:58:
        30:1a:9d:dc:1d:3a:f6:6d:9c:43:da:b6:bf:80:93:97:28:aa:
        e1:7d:c4:e3:bb:e6:44:c6:73:ca:4c:96:b0:1c:7f:ff:15:57:
        19:7d:69:79:0f:55:e2:ab:4b:e3:a4:73:58:ea:1b:9e:eb:61:
        36:d5:05:a6:db:0b:6a:2a:6e:c3:44:6e:22:46:47:34:df:4c:
        41:8a:98:3a:c3:67:1f:35:99:b9:d4:fc:e9:2e:39:ee:00:31:
        dc:6c:8e:50:99:08:f3:e3:3f:d1:0c:ee:33:93:4c:ec:84:dd:
        a9:28:b5:1c:51:75:cc:c8:9d:e0:d1:87:d1:05:1b:36:ac:cf:
        4a:83:1a:b2:4a:50:d1:95:44:1c:c5:c5:12:4c:2f:dc:05:54:
        4e:27:d6:64:9f:be:89:a9:3d:16:97:d2:80:8f:f3:f0:1e:b6:
        87:ba:4f:d5:52:f3:95:85:ca:db:d6:1d:c9:f1:5b:5e:2e:66:
        90:77:b0:70
-----BEGIN CERTIFICATE-----
MIIDeDCCAmCgAwIBAgIRANVfolV9kjWyTJ+mq85v2rEwDQYJKoZIhvcNAQELBQAw
FjEUMBIGA1UEAwwLdGVhbTIwNS1uZXQwHhcNMjMxMTAzMjA0MzAwWhcNMjYxMDE4
MjA0MzAwWjAZMRcwFQYDVQQDDA50ZWFtMjA1LXNlcnZlcjCCASIwDQYJKoZIhvcN
AQEBBQADggEPADCCAQoCggEBAMRDmvkF0PwDiP1n0evSPMZd+n9yns+mk8IJDsky
R93MJCR7i+fXMF1CuSVhqowfPDSHE04DuvdDy40yjgrbQ+58OsHUQXnGfRLuFVHo
/V+PMpOU91Bgga3w/B4P+0yR8jVYObHLsmQfaW7NtVHhkvyxZE9LcGeaosBslWun
eJP6ib35Nb7R1HV2xmyPg/2RcCPwuss9tmsdhyBK2uI7x9bp9qCyd/Rm9Genw8sT
IwSJOrgIWsxgnY9L0Z6YbGouGOgnZs8hEaBHg2PNdPt8mYwnUWIzKjGIk0JGGgbC
hXLsBmwHnLuMvtNWFHeRRqgckP4SVelI0a6cbIKcVSR9nPECAwEAAaOBvTCBujAJ
BgNVHRMEAjAAMB0GA1UdDgQWBBRsdpSKei0uIdlNeIKsvxZlnUlxuTBRBgNVHSME
SjBIgBRVhYgPZI5n9Qi4hJhHKDcFyVKEFKEapBgwFjEUMBIGA1UEAwwLdGVhbTIw
NS1uZXSCFDh9V1FUjsm5xhWLVCaHXvzTFEzGMBMGA1UdJQQMMAoGCCsGAQUFBwMB
MAsGA1UdDwQEAwIFoDAZBgNVHREEEjAQgg50ZWFtMjA1LXNlcnZlcjANBgkqhkiG
9w0BAQsFAAOCAQEAnHKhRPg+pOoEsg+MEpIUN6qUkXrz0bSFn+Y+0fwmGl/fecHC
UvIDTICqGt2CnECckLp381cDgSulLqF8foPMx1QZSfnhR8hYMBqd3B069m2cQ9q2
v4CTlyiq4X3E47vmRMZzykyWsBx//xVXGX1peQ9V4qtL46RzWOobnuthNtUFptsL
aipuw0RuIkZHNN9MQYqYOsNnHzWZudT86S457gAx3GyOUJkI8+M/0QzuM5NM7ITd
qSi1HFF1zMid4NGH0QUbNqzPSoMaskpQ0ZVEHMXFEkwv3AVUTifWZJ++iak9FpfS
gI/z8B62h7pP1VLzlYXK29YdyfFbXi5mkHewcA==
-----END CERTIFICATE-----
