Certificate:
    Data:
        Version: 3 (0x2)
        Serial Number:
            15:be:8e:8b:c7:a3:63:ea:ec:98:02:9c:95:c0:ed:59
        Signature Algorithm: sha256WithRSAEncryption
        Issuer: CN=team92-net
        Validity
            Not Before: Nov  4 11:29:13 2023 GMT
            Not After : Oct 19 11:29:13 2026 GMT
        Subject: CN=team92-server
        Subject Public Key Info:
            Public Key Algorithm: rsaEncryption
                Public-Key: (2048 bit)
                Modulus:
                    00:c8:05:f9:56:e8:c6:6d:6c:7a:3f:7a:a3:65:d3:
                    c6:b2:fc:d0:39:11:cb:c3:ce:3b:7b:de:c5:f1:cd:
                    a9:6c:8a:c3:e2:a5:69:fb:f8:8e:47:90:98:66:af:
                    63:e5:c7:44:b1:c1:bb:f7:80:6f:28:8a:00:1e:ab:
                    11:37:a1:6f:ac:f3:35:82:ea:07:8c:11:95:fc:2c:
                    ed:f6:f2:b8:bd:9a:96:1d:73:73:9a:25:5c:4c:a2:
                    43:9a:a6:38:fb:0f:0b:33:31:dc:45:26:fa:e5:ca:
                    42:55:0f:3d:df:97:cd:78:2a:f5:a7:11:74:1d:3e:
                    05:7f:6a:b0:dd:64:c6:f5:ba:d2:22:05:ae:c5:c1:
                    8f:e5:95:51:2f:04:47:44:03:f7:1e:64:70:60:6d:
                    17:15:df:46:5d:b3:61:aa:5b:19:5c:ef:e7:67:d3:
                    80:7b:2b:8d:89:88:17:0c:7d:73:28:54:81:f7:41:
                    e5:b1:b5:6c:74:c7:24:cf:70:6c:c3:b6:76:02:23:
                    1d:8a:e8:0a:16:d3:d3:c4:72:bf:a7:e2:ba:f7:66:
                    f4:3d:cc:3e:16:10:cf:06:08:9b:dc:c6:95:2a:e6:
                    a7:ed:aa:5c:f3:70:9b:2d:52:2f:8e:1a:42:90:60:
                    e2:62:0f:d5:7a:a6:9c:b1:ff:e3:48:5b:57:c0:5d:
                    2a:07
                Exponent: 65537 (0x10001)
        X509v3 extensions:
            X509v3 Basic Constraints: 
                CA:FALSE
            X509v3 Subject Key Identifier: 
                0D:FE:EE:B5:F2:69:47:D6:17:65:34:16:5C:32:AA:B9:04:F5:46:64
            X509v3 Authority Key Identifier: 
                keyid:67:FA:BE:57:60:78:10:FC:79:33:D4:FA:E6:92:7B:A4:DC:8A:77:75
                DirName:/CN=team92-net
                serial:22:D5:68:B9:EA:7F:48:41:02:4D:16:70:35:D7:FB:FC:ED:40:3C:30
            X509v3 Extended Key Usage: 
                TLS Web Server Authentication
            X509v3 Key Usage: 
                Digital Signature, Key Encipherment
            X509v3 Subject Alternative Name: 
                DNS:team92-server
    Signature Algorithm: sha256WithRSAEncryption
    Signature Value:
        c2:12:73:06:10:1b:88:b4:c5:a6:ac:bf:9d:74:bf:c8:c4:04:
        ad:9f:25:ce:e5:73:8f:f1:32:1e:ab:ae:dc:cb:13:e3:50:9d:
        61:c7:7a:a1:83:85:29:7f:da:6b:8e:58:2b:d3:f1:5a:1d:a2:
        48:b9:f6:6e:fb:c3:d5:33:22:08:0a:46:71:92:d8:1a:27:fa:
        35:84:ce:7b:18:a7:e7:de:f2:f8:9c:0e:d2:79:28:08:c0:53:
        0c:61:6c:c8:13:55:c7:a2:9c:56:f6:dd:3b:dc:73:d6:60:68:
        26:c8:13:dc:ed:ce:cd:b8:cf:4e:4d:71:47:db:d6:d2:e6:85:
        c4:d3:27:71:2d:99:6c:6a:43:a7:be:3c:46:40:76:55:06:50:
        2b:fc:7b:d6:8e:48:f4:45:f3:cd:73:e9:7b:6b:ea:b9:62:3c:
        82:87:b8:38:dd:74:bd:2b:37:97:a4:e7:d6:a8:b7:ab:92:4e:
        ec:d2:45:50:05:72:31:c5:c8:73:a2:7c:7c:aa:94:04:ae:2d:
        86:d7:43:64:7f:3c:9f:ec:6c:57:37:b5:b5:05:57:ec:d0:ac:
        81:28:d8:9c:2c:34:06:b2:de:cd:ca:9c:86:72:ec:ff:61:75:
        fc:28:2e:22:ac:e5:67:6f:1e:2d:24:5b:0d:82:78:a4:0b:08:
        23:11:8e:03
-----BEGIN CERTIFICATE-----
MIIDczCCAlugAwIBAgIQFb6Oi8ejY+rsmAKclcDtWTANBgkqhkiG9w0BAQsFADAV
MRMwEQYDVQQDDAp0ZWFtOTItbmV0MB4XDTIzMTEwNDExMjkxM1oXDTI2MTAxOTEx
MjkxM1owGDEWMBQGA1UEAwwNdGVhbTkyLXNlcnZlcjCCASIwDQYJKoZIhvcNAQEB
BQADggEPADCCAQoCggEBAMgF+Vboxm1sej96o2XTxrL80DkRy8POO3vexfHNqWyK
w+Klafv4jkeQmGavY+XHRLHBu/eAbyiKAB6rETehb6zzNYLqB4wRlfws7fbyuL2a
lh1zc5olXEyiQ5qmOPsPCzMx3EUm+uXKQlUPPd+XzXgq9acRdB0+BX9qsN1kxvW6
0iIFrsXBj+WVUS8ER0QD9x5kcGBtFxXfRl2zYapbGVzv52fTgHsrjYmIFwx9cyhU
gfdB5bG1bHTHJM9wbMO2dgIjHYroChbT08Ryv6fiuvdm9D3MPhYQzwYIm9zGlSrm
p+2qXPNwmy1SL44aQpBg4mIP1XqmnLH/40hbV8BdKgcCAwEAAaOBuzCBuDAJBgNV
HRMEAjAAMB0GA1UdDgQWBBQN/u618mlH1hdlNBZcMqq5BPVGZDBQBgNVHSMESTBH
gBRn+r5XYHgQ/Hkz1Prmknuk3Ip3daEZpBcwFTETMBEGA1UEAwwKdGVhbTkyLW5l
dIIUItVouep/SEECTRZwNdf7/O1APDAwEwYDVR0lBAwwCgYIKwYBBQUHAwEwCwYD
VR0PBAQDAgWgMBgGA1UdEQQRMA+CDXRlYW05Mi1zZXJ2ZXIwDQYJKoZIhvcNAQEL
BQADggEBAMIScwYQG4i0xaasv510v8jEBK2fJc7lc4/xMh6rrtzLE+NQnWHHeqGD
hSl/2muOWCvT8Vodoki59m77w9UzIggKRnGS2Bon+jWEznsYp+fe8vicDtJ5KAjA
UwxhbMgTVceinFb23Tvcc9ZgaCbIE9ztzs24z05NcUfb1tLmhcTTJ3EtmWxqQ6e+
PEZAdlUGUCv8e9aOSPRF881z6Xtr6rliPIKHuDjddL0rN5ek59aot6uSTuzSRVAF
cjHFyHOifHyqlASuLYbXQ2R/PJ/sbFc3tbUFV+zQrIEo2JwsNAay3s3KnIZy7P9h
dfwoLiKs5WdvHi0kWw2CeKQLCCMRjgM=
-----END CERTIFICATE-----
