Certificate:
    Data:
        Version: 3 (0x2)
        Serial Number:
            5e:c8:6c:13:94:53:cf:ff:dd:b1:ed:db:04:ab:53:8e
        Signature Algorithm: sha256WithRSAEncryption
        Issuer: CN=team92-net
        Validity
            Not Before: Nov  4 11:29:12 2023 GMT
            Not After : Oct 19 11:29:12 2026 GMT
        Subject: CN=team92-client
        Subject Public Key Info:
            Public Key Algorithm: rsaEncryption
                Public-Key: (2048 bit)
                Modulus:
                    00:b1:ca:61:65:32:41:3c:58:d9:57:0a:7c:fb:b9:
                    8e:1a:9d:44:e1:f5:62:55:07:bb:03:8b:4d:01:f7:
                    eb:91:46:94:a4:eb:6a:61:bf:b9:56:2e:57:9c:e5:
                    4c:22:25:2b:20:1f:a2:92:fb:83:33:3d:fb:fd:f1:
                    df:c5:ff:62:32:d7:09:35:e7:7c:94:b2:e3:d3:ce:
                    a0:c9:33:86:a2:22:d8:b1:8c:7b:d6:89:9e:ea:ee:
                    03:86:c5:cc:14:c4:08:dc:94:0f:75:40:87:44:3d:
                    59:0b:d2:5f:cb:97:45:f9:bc:04:a7:dc:dc:2f:7d:
                    21:a3:75:09:fc:d3:5e:bf:6f:b8:1e:a4:93:6a:cc:
                    0c:ed:3b:ed:7f:b9:7e:32:4b:d2:a6:b0:7b:e3:7b:
                    7f:40:2a:63:dd:73:07:ce:3a:47:55:dd:3d:9e:08:
                    d3:1b:89:15:c9:9b:7f:82:4c:07:14:b5:3b:9d:89:
                    f5:5d:33:8d:c2:b6:7f:db:61:df:ca:84:7d:2f:0e:
                    90:eb:80:f8:e9:12:c0:20:26:0d:72:9c:28:7f:16:
                    e4:93:fc:b3:8e:19:11:a9:44:e3:56:ce:05:3c:c7:
                    e8:ab:0b:71:e0:2c:af:b9:20:7e:55:77:05:37:bd:
                    04:46:72:dc:0b:f2:b4:83:32:2d:c7:5e:0d:49:3f:
                    6f:e9
                Exponent: 65537 (0x10001)
        X509v3 extensions:
            X509v3 Basic Constraints: 
                CA:FALSE
            X509v3 Subject Key Identifier: 
                4F:7E:63:14:F4:BE:7E:E3:0A:32:53:2C:80:67:00:46:D1:99:AB:E8
            X509v3 Authority Key Identifier: 
                keyid:67:FA:BE:57:60:78:10:FC:79:33:D4:FA:E6:92:7B:A4:DC:8A:77:75
                DirName:/CN=team92-net
                serial:22:D5:68:B9:EA:7F:48:41:02:4D:16:70:35:D7:FB:FC:ED:40:3C:30
            X509v3 Extended Key Usage: 
                TLS Web Client Authentication
            X509v3 Key Usage: 
                Digital Signature
    Signature Algorithm: sha256WithRSAEncryption
    Signature Value:
        67:c3:3a:2b:47:33:20:63:1d:f0:2c:66:f5:e7:28:a6:e1:50:
        ec:2f:8d:95:1b:72:89:2c:2f:46:13:d4:6d:ad:38:20:f0:14:
        a0:ae:c0:b3:5c:37:0c:11:77:17:03:56:25:f2:e9:bd:06:dc:
        52:56:75:3d:fb:c0:2d:23:4c:dd:c6:e9:07:30:ef:58:9d:cb:
        57:bd:c0:1b:f8:c8:15:b4:56:f2:59:87:2b:6a:de:11:ae:1d:
        26:e0:2a:f2:cf:ab:8c:7b:1a:c8:c6:c4:4c:a0:bb:53:50:31:
        8f:31:b3:ec:8a:7e:d4:31:27:2b:2f:ff:ce:ba:bc:d9:0d:a9:
        13:ca:93:47:54:7b:52:1b:0a:10:f0:c0:54:4c:d7:7d:5e:a4:
        6a:81:61:0e:43:cd:51:7e:f8:10:a7:f8:d8:5d:a4:14:4d:04:
        95:43:ab:11:a0:aa:51:4a:68:f1:21:f2:c4:ae:74:2d:5e:97:
        8f:5e:d0:e5:04:14:d2:43:e9:07:cd:e9:67:4a:e5:d9:44:d9:
        43:96:8c:9b:6d:32:0e:1e:90:76:59:b2:18:04:ae:cd:52:07:
        58:ee:8d:cf:28:e2:59:76:49:54:9e:3f:1a:0d:34:0b:dd:98:
        5b:1f:40:90:7c:53:8b:28:0a:0c:e3:32:49:9a:dd:3f:80:a0:
        a1:ca:c5:cd
-----BEGIN CERTIFICATE-----
MIIDWTCCAkGgAwIBAgIQXshsE5RTz//dse3bBKtTjjANBgkqhkiG9w0BAQsFADAV
MRMwEQYDVQQDDAp0ZWFtOTItbmV0MB4XDTIzMTEwNDExMjkxMloXDTI2MTAxOTEx
MjkxMlowGDEWMBQGA1UEAwwNdGVhbTkyLWNsaWVudDCCASIwDQYJKoZIhvcNAQEB
BQADggEPADCCAQoCggEBALHKYWUyQTxY2VcKfPu5jhqdROH1YlUHuwOLTQH365FG
lKTramG/uVYuV5zlTCIlKyAfopL7gzM9+/3x38X/YjLXCTXnfJSy49POoMkzhqIi
2LGMe9aJnuruA4bFzBTECNyUD3VAh0Q9WQvSX8uXRfm8BKfc3C99IaN1CfzTXr9v
uB6kk2rMDO077X+5fjJL0qawe+N7f0AqY91zB846R1XdPZ4I0xuJFcmbf4JMBxS1
O52J9V0zjcK2f9th38qEfS8OkOuA+OkSwCAmDXKcKH8W5JP8s44ZEalE41bOBTzH
6KsLceAsr7kgflV3BTe9BEZy3AvytIMyLcdeDUk/b+kCAwEAAaOBoTCBnjAJBgNV
HRMEAjAAMB0GA1UdDgQWBBRPfmMU9L5+4woyUyyAZwBG0Zmr6DBQBgNVHSMESTBH
gBRn+r5XYHgQ/Hkz1Prmknuk3Ip3daEZpBcwFTETMBEGA1UEAwwKdGVhbTkyLW5l
dIIUItVouep/SEECTRZwNdf7/O1APDAwEwYDVR0lBAwwCgYIKwYBBQUHAwIwCwYD
VR0PBAQDAgeAMA0GCSqGSIb3DQEBCwUAA4IBAQBnwzorRzMgYx3wLGb15yim4VDs
L42VG3KJLC9GE9RtrTgg8BSgrsCzXDcMEXcXA1Yl8um9BtxSVnU9+8AtI0zdxukH
MO9YnctXvcAb+MgVtFbyWYcrat4Rrh0m4Cryz6uMexrIxsRMoLtTUDGPMbPsin7U
MScrL//OurzZDakTypNHVHtSGwoQ8MBUTNd9XqRqgWEOQ81RfvgQp/jYXaQUTQSV
Q6sRoKpRSmjxIfLErnQtXpePXtDlBBTSQ+kHzelnSuXZRNlDloybbTIOHpB2WbIY
BK7NUgdY7o3PKOJZdklUnj8aDTQL3ZhbH0CQfFOLKAoM4zJJmt0/gKChysXN
-----END CERTIFICATE-----
