Certificate:
    Data:
        Version: 3 (0x2)
        Serial Number:
            9f:06:02:88:f4:f6:e8:9e:13:e9:56:cb:3a:61:c3:cc
        Signature Algorithm: sha256WithRSAEncryption
        Issuer: CN=team92-net
        Validity
            Not Before: Nov  4 10:42:07 2023 GMT
            Not After : Oct 19 10:42:07 2026 GMT
        Subject: CN=team92-server
        Subject Public Key Info:
            Public Key Algorithm: rsaEncryption
                Public-Key: (2048 bit)
                Modulus:
                    00:b9:df:90:cc:f7:33:f0:73:5e:30:bc:91:ce:68:
                    2e:7f:b1:8b:b0:7a:a7:c5:33:5c:e5:92:9f:56:5c:
                    72:37:50:7f:c5:51:1b:b1:3f:db:37:c5:a1:b9:19:
                    e9:d9:2d:dc:8b:19:20:48:9d:45:25:20:4c:fe:35:
                    6f:a4:ec:ce:aa:00:b3:eb:0d:50:5e:92:9d:7c:f5:
                    bb:b7:90:09:08:92:e4:8f:a8:93:9b:0f:04:7f:ec:
                    a4:4c:21:d6:93:fa:79:88:d1:5b:fc:91:04:5a:ee:
                    11:f1:ff:c0:61:fc:2a:5f:af:9c:c8:70:e3:e9:17:
                    7d:84:e8:3a:98:2a:2a:d1:ae:d2:90:4f:78:08:0d:
                    5a:6d:af:64:79:a4:6d:21:32:99:28:30:1c:e9:fd:
                    ed:76:8b:82:08:40:42:6b:f3:2b:eb:f1:d1:7b:8e:
                    4d:6b:61:bd:3f:06:04:d0:61:be:81:bc:be:e0:8b:
                    ae:26:41:01:c4:27:66:7c:e5:ee:6c:dc:1c:13:cb:
                    a8:a3:2e:d3:30:cc:3c:46:17:77:0d:8a:fc:4c:26:
                    2f:71:e7:fd:a6:1c:a1:2c:e1:7e:b1:8f:d7:34:04:
                    ea:0e:a7:b6:09:6b:9d:ed:c0:0e:0b:0a:65:50:f6:
                    ff:52:ae:a8:7f:b7:07:9a:cf:84:b4:63:2b:ce:d5:
                    50:e5
                Exponent: 65537 (0x10001)
        X509v3 extensions:
            X509v3 Basic Constraints: 
                CA:FALSE
            X509v3 Subject Key Identifier: 
                A7:84:4A:A9:81:84:38:3B:1D:0B:38:1B:C5:D3:88:CF:BC:EE:C1:1E
            X509v3 Authority Key Identifier: 
                keyid:83:48:DD:15:63:E7:9D:FA:68:3E:26:BA:3A:AE:8F:07:09:31:F1:E8
                DirName:/CN=team92-net
                serial:58:68:34:03:A4:67:DA:B3:CC:30:5E:7C:4F:4D:6E:E5:8E:2B:0B:48
            X509v3 Extended Key Usage: 
                TLS Web Server Authentication
            X509v3 Key Usage: 
                Digital Signature, Key Encipherment
            X509v3 Subject Alternative Name: 
                DNS:team92-server
    Signature Algorithm: sha256WithRSAEncryption
    Signature Value:
        34:dc:dd:68:1b:f8:0a:ae:81:f2:5e:cb:56:21:9e:a4:df:90:
        a8:56:d1:f7:f5:55:52:6f:6e:90:f3:0d:e3:3b:34:31:fe:59:
        27:6f:21:67:04:21:cd:fa:09:dd:f5:e9:2d:30:79:11:79:cc:
        e2:16:83:3a:80:c5:f0:59:28:7e:c1:a7:ec:72:ce:d5:10:6d:
        73:ed:2a:f8:67:db:7f:99:90:ed:45:d4:e3:49:b4:69:49:ec:
        2b:4e:4e:70:b2:a0:4c:05:49:23:ff:db:5e:50:44:12:a3:ad:
        7b:fd:e6:47:a3:77:68:d1:83:f6:11:82:0a:6f:b7:11:ad:02:
        78:67:3e:bb:0f:9e:19:dd:e9:d0:bc:a9:16:b8:3e:84:95:6f:
        b7:c0:70:d0:9a:39:ce:1a:dd:31:8b:92:2b:fd:1a:eb:cd:db:
        2e:c5:30:79:f9:2e:7c:b8:25:b4:12:01:72:ef:b4:cb:c4:d2:
        33:d6:a2:65:a4:0c:d7:a2:92:83:ef:ff:77:30:14:95:d1:7b:
        32:8a:6c:93:6c:9a:ca:4d:fb:44:86:6d:92:a1:a2:47:4d:c0:
        be:8e:29:b3:51:3f:75:be:29:34:82:13:0d:75:20:a1:b0:88:
        d0:92:06:8b:1f:75:be:58:61:f7:a3:3e:03:82:2b:05:4a:a4:
        0c:c3:65:ac
-----BEGIN CERTIFICATE-----
MIIDdDCCAlygAwIBAgIRAJ8GAoj09uieE+lWyzphw8wwDQYJKoZIhvcNAQELBQAw
FTETMBEGA1UEAwwKdGVhbTkyLW5ldDAeFw0yMzExMDQxMDQyMDdaFw0yNjEwMTkx
MDQyMDdaMBgxFjAUBgNVBAMMDXRlYW05Mi1zZXJ2ZXIwggEiMA0GCSqGSIb3DQEB
AQUAA4IBDwAwggEKAoIBAQC535DM9zPwc14wvJHOaC5/sYuweqfFM1zlkp9WXHI3
UH/FURuxP9s3xaG5GenZLdyLGSBInUUlIEz+NW+k7M6qALPrDVBekp189bu3kAkI
kuSPqJObDwR/7KRMIdaT+nmI0Vv8kQRa7hHx/8Bh/Cpfr5zIcOPpF32E6DqYKirR
rtKQT3gIDVptr2R5pG0hMpkoMBzp/e12i4IIQEJr8yvr8dF7jk1rYb0/BgTQYb6B
vL7gi64mQQHEJ2Z85e5s3BwTy6ijLtMwzDxGF3cNivxMJi9x5/2mHKEs4X6xj9c0
BOoOp7YJa53twA4LCmVQ9v9Srqh/tweaz4S0YyvO1VDlAgMBAAGjgbswgbgwCQYD
VR0TBAIwADAdBgNVHQ4EFgQUp4RKqYGEODsdCzgbxdOIz7zuwR4wUAYDVR0jBEkw
R4AUg0jdFWPnnfpoPia6Oq6PBwkx8eihGaQXMBUxEzARBgNVBAMMCnRlYW05Mi1u
ZXSCFFhoNAOkZ9qzzDBefE9NbuWOKwtIMBMGA1UdJQQMMAoGCCsGAQUFBwMBMAsG
A1UdDwQEAwIFoDAYBgNVHREEETAPgg10ZWFtOTItc2VydmVyMA0GCSqGSIb3DQEB
CwUAA4IBAQA03N1oG/gKroHyXstWIZ6k35CoVtH39VVSb26Q8w3jOzQx/lknbyFn
BCHN+gnd9ektMHkRecziFoM6gMXwWSh+wafscs7VEG1z7Sr4Z9t/mZDtRdTjSbRp
SewrTk5wsqBMBUkj/9teUEQSo617/eZHo3do0YP2EYIKb7cRrQJ4Zz67D54Z3enQ
vKkWuD6ElW+3wHDQmjnOGt0xi5Ir/RrrzdsuxTB5+S58uCW0EgFy77TLxNIz1qJl
pAzXopKD7/93MBSV0XsyimyTbJrKTftEhm2SoaJHTcC+jimzUT91vik0ghMNdSCh
sIjQkgaLH3W+WGH3oz4DgisFSqQMw2Ws
-----END CERTIFICATE-----
