Certificate:
    Data:
        Version: 3 (0x2)
        Serial Number:
            c0:ad:52:8f:76:54:19:1c:ba:5f:d4:16:0f:18:24:ad
        Signature Algorithm: sha256WithRSAEncryption
        Issuer: CN=team92-net
        Validity
            Not Before: Nov  3 20:40:47 2023 GMT
            Not After : Oct 18 20:40:47 2026 GMT
        Subject: CN=team92-server
        Subject Public Key Info:
            Public Key Algorithm: rsaEncryption
                Public-Key: (2048 bit)
                Modulus:
                    00:ad:45:92:2b:0e:fa:e2:4e:db:29:12:dc:ab:1b:
                    31:de:31:11:8e:24:ed:e3:c7:1b:b9:5a:e1:89:c9:
                    01:40:af:cc:7b:4b:33:76:d7:d9:3a:02:a1:00:50:
                    cb:2a:d6:a7:6e:89:ec:21:83:01:c1:77:6f:45:b8:
                    52:11:dc:ab:f7:34:2c:98:c5:f5:9b:b7:15:1d:36:
                    38:38:17:aa:45:f3:f0:67:e7:dc:f4:a8:91:06:81:
                    18:fe:9a:3b:62:fc:80:6d:ca:98:a1:50:1c:db:0c:
                    7a:4e:77:dc:c2:2c:6d:c0:6b:27:02:68:41:50:b0:
                    03:52:32:b8:e7:32:39:58:92:a5:e0:88:61:b1:17:
                    5b:6b:f2:aa:11:46:af:26:7a:85:f8:25:f5:6b:ed:
                    c0:3c:9d:e4:f6:b9:b5:af:69:c9:a4:9c:27:54:55:
                    53:ab:27:df:ac:b3:6d:66:70:99:c1:e9:fc:82:5e:
                    6d:a7:5c:7b:99:be:78:a0:43:77:33:4a:76:87:15:
                    f7:1a:3c:c7:eb:5f:2e:8a:7b:82:d1:e3:00:d0:65:
                    ac:bd:7d:ee:4a:2d:88:0a:df:18:d1:e8:d5:0d:b8:
                    dd:66:75:16:d5:3f:59:ca:d8:aa:83:75:8c:be:4e:
                    48:5b:0f:c1:7f:53:3e:1a:da:4f:2a:a5:a4:07:21:
                    1f:8f
                Exponent: 65537 (0x10001)
        X509v3 extensions:
            X509v3 Basic Constraints: 
                CA:FALSE
            X509v3 Subject Key Identifier: 
                B6:ED:AF:92:DB:A0:54:80:0F:3A:D1:A2:B2:A3:07:5C:C3:D4:5A:95
            X509v3 Authority Key Identifier: 
                keyid:FD:51:FB:D7:88:A1:A5:43:C5:16:6A:9D:D2:A7:C4:6C:45:A4:1F:B8
                DirName:/CN=team92-net
                serial:13:E4:B7:3F:BE:24:89:19:A0:F3:87:12:B1:7F:1F:A6:D0:45:43:53
            X509v3 Extended Key Usage: 
                TLS Web Server Authentication
            X509v3 Key Usage: 
                Digital Signature, Key Encipherment
            X509v3 Subject Alternative Name: 
                DNS:team92-server
    Signature Algorithm: sha256WithRSAEncryption
    Signature Value:
        59:3e:82:a9:90:d6:eb:33:e6:97:45:6a:0c:bf:8d:d0:82:18:
        55:85:ea:d6:0e:a6:5f:83:69:e0:51:21:96:71:44:c2:e5:91:
        dd:b4:8e:b0:61:16:df:e6:5a:2b:8c:85:5b:46:62:50:d7:36:
        ab:1e:99:52:cf:a8:fb:af:69:02:e2:87:7b:93:02:1a:63:15:
        21:e2:a3:8b:9c:31:27:ad:1b:4d:8a:66:1e:07:a5:3a:a3:59:
        fd:82:44:46:93:04:1c:f4:0b:75:59:cf:80:1e:0b:04:61:eb:
        69:b9:05:36:a1:0d:c1:8c:e7:f8:a0:44:e4:d9:85:b0:fc:d9:
        a2:55:f9:c7:32:9e:05:25:b6:92:db:10:67:07:eb:92:e8:82:
        2b:17:a8:8b:c9:ca:06:ca:e9:63:f9:46:ca:38:65:6f:5c:b9:
        b4:24:66:b9:23:93:c3:31:06:d2:93:6f:33:47:39:a8:80:af:
        70:32:f0:a2:29:19:d2:ff:40:63:b4:83:87:3e:a4:85:d5:8e:
        43:00:fd:7f:40:83:8c:6e:27:e3:0e:97:28:6a:3e:f6:0c:3e:
        fa:d4:aa:23:23:a6:9b:7c:21:62:52:2e:ed:2b:01:57:57:2f:
        3c:c5:f6:6a:7d:bb:56:69:92:a3:35:5a:75:88:ec:3e:ed:d7:
        85:d6:51:05
-----BEGIN CERTIFICATE-----
MIIDdDCCAlygAwIBAgIRAMCtUo92VBkcul/UFg8YJK0wDQYJKoZIhvcNAQELBQAw
FTETMBEGA1UEAwwKdGVhbTkyLW5ldDAeFw0yMzExMDMyMDQwNDdaFw0yNjEwMTgy
MDQwNDdaMBgxFjAUBgNVBAMMDXRlYW05Mi1zZXJ2ZXIwggEiMA0GCSqGSIb3DQEB
AQUAA4IBDwAwggEKAoIBAQCtRZIrDvriTtspEtyrGzHeMRGOJO3jxxu5WuGJyQFA
r8x7SzN219k6AqEAUMsq1qduiewhgwHBd29FuFIR3Kv3NCyYxfWbtxUdNjg4F6pF
8/Bn59z0qJEGgRj+mjti/IBtypihUBzbDHpOd9zCLG3AaycCaEFQsANSMrjnMjlY
kqXgiGGxF1tr8qoRRq8meoX4JfVr7cA8neT2ubWvacmknCdUVVOrJ9+ss21mcJnB
6fyCXm2nXHuZvnigQ3czSnaHFfcaPMfrXy6Ke4LR4wDQZay9fe5KLYgK3xjR6NUN
uN1mdRbVP1nK2KqDdYy+TkhbD8F/Uz4a2k8qpaQHIR+PAgMBAAGjgbswgbgwCQYD
VR0TBAIwADAdBgNVHQ4EFgQUtu2vktugVIAPOtGisqMHXMPUWpUwUAYDVR0jBEkw
R4AU/VH714ihpUPFFmqd0qfEbEWkH7ihGaQXMBUxEzARBgNVBAMMCnRlYW05Mi1u
ZXSCFBPktz++JIkZoPOHErF/H6bQRUNTMBMGA1UdJQQMMAoGCCsGAQUFBwMBMAsG
A1UdDwQEAwIFoDAYBgNVHREEETAPgg10ZWFtOTItc2VydmVyMA0GCSqGSIb3DQEB
CwUAA4IBAQBZPoKpkNbrM+aXRWoMv43QghhVherWDqZfg2ngUSGWcUTC5ZHdtI6w
YRbf5lorjIVbRmJQ1zarHplSz6j7r2kC4od7kwIaYxUh4qOLnDEnrRtNimYeB6U6
o1n9gkRGkwQc9At1Wc+AHgsEYetpuQU2oQ3BjOf4oETk2YWw/NmiVfnHMp4FJbaS
2xBnB+uS6IIrF6iLycoGyulj+UbKOGVvXLm0JGa5I5PDMQbSk28zRzmogK9wMvCi
KRnS/0BjtIOHPqSF1Y5DAP1/QIOMbifjDpcoaj72DD761KojI6abfCFiUi7tKwFX
Vy88xfZqfbtWaZKjNVp1iOw+7deF1lEF
-----END CERTIFICATE-----
