Certificate:
    Data:
        Version: 3 (0x2)
        Serial Number:
            4e:fb:47:63:06:93:d4:ed:bd:4d:4c:47:22:ce:65:7d
        Signature Algorithm: sha256WithRSAEncryption
        Issuer: CN=team281-net
        Validity
            Not Before: Nov  4 11:33:20 2023 GMT
            Not After : Oct 19 11:33:20 2026 GMT
        Subject: CN=team281-server
        Subject Public Key Info:
            Public Key Algorithm: rsaEncryption
                Public-Key: (2048 bit)
                Modulus:
                    00:a9:de:c9:eb:bc:b4:55:42:d6:28:6c:f3:68:40:
                    96:2e:94:d1:0e:7f:0b:65:b7:4c:38:d2:f6:ca:b1:
                    d2:29:b3:79:ae:24:6c:4a:8d:7f:99:cf:31:a7:66:
                    d3:22:63:a4:d4:90:cf:0e:e9:7f:bd:f6:10:82:a8:
                    30:63:fa:7a:6d:a6:d2:5e:fa:9f:b1:fa:0a:22:1c:
                    b6:47:05:69:f5:8e:90:b8:7d:e4:87:5a:41:26:da:
                    cc:62:bd:f7:3b:81:dc:07:0f:d9:f6:83:c0:07:82:
                    bc:22:3e:38:d9:c5:58:72:2e:75:ca:68:15:dd:98:
                    f6:a1:cb:1e:d6:1b:13:8e:60:1d:9f:60:3f:cb:80:
                    2c:34:4e:52:93:23:75:9d:fa:bf:08:52:52:d8:a6:
                    44:31:29:1c:6f:e5:a2:18:13:f3:06:1c:1e:18:aa:
                    08:ad:84:6e:45:6e:f9:71:be:b0:a5:ed:b5:06:71:
                    91:ff:d0:ac:d3:f9:92:8a:a8:6d:6b:d0:b0:f4:c7:
                    7f:fa:3c:05:86:94:52:ba:bb:1b:5d:be:dc:25:39:
                    e4:0e:ed:ee:93:1f:76:08:ac:ec:c6:47:dd:77:1f:
                    74:ef:f2:c3:9e:bf:e9:c5:20:9a:0e:da:1b:e0:7e:
                    d9:ca:c4:87:75:48:8f:b9:cb:ed:00:b8:e0:45:42:
                    a1:13
                Exponent: 65537 (0x10001)
        X509v3 extensions:
            X509v3 Basic Constraints: 
                CA:FALSE
            X509v3 Subject Key Identifier: 
                2C:F3:35:8D:01:AB:DA:36:41:C4:AF:CB:EA:91:D1:6A:24:F3:52:A8
            X509v3 Authority Key Identifier: 
                keyid:79:EE:41:89:CB:AC:42:08:10:46:6E:51:03:B0:CF:AA:0A:A1:06:51
                DirName:/CN=team281-net
                serial:0D:CB:61:4A:CC:00:FC:13:24:C0:64:9E:FF:A0:83:5D:86:26:B1:13
            X509v3 Extended Key Usage: 
                TLS Web Server Authentication
            X509v3 Key Usage: 
                Digital Signature, Key Encipherment
            X509v3 Subject Alternative Name: 
                DNS:team281-server
    Signature Algorithm: sha256WithRSAEncryption
    Signature Value:
        a7:7b:d0:2b:76:64:91:99:c2:d7:4e:7b:4b:e4:c8:b0:79:41:
        d0:1a:ed:61:bf:65:35:c5:c4:66:8f:99:e6:8d:0e:98:c3:df:
        da:c6:37:82:25:9d:2c:1b:53:e2:c0:75:08:19:3d:53:f8:22:
        fa:fe:36:b8:9a:77:b3:54:06:23:69:72:87:c1:37:b7:f0:9e:
        76:c6:86:cc:72:42:41:98:9a:76:c3:11:2e:d0:95:dc:32:95:
        40:90:a5:d8:1f:64:50:c0:1d:ab:f1:f9:fe:22:5f:23:36:d3:
        85:5f:67:32:cb:06:83:57:ab:85:41:9b:f7:38:8c:cb:45:11:
        14:20:8c:f6:14:c0:78:d0:1b:32:5d:82:3f:a3:60:2c:f3:2f:
        99:86:4d:8b:05:91:b6:da:ea:1e:96:a1:d9:14:68:87:7e:2b:
        dd:4c:43:0b:d4:30:d8:fc:41:36:1e:ff:03:90:09:58:f8:ff:
        5f:64:3c:d0:48:b0:71:aa:e2:5c:74:24:8e:ef:cc:39:5d:d7:
        4e:c5:b0:fe:ea:a5:84:c3:c5:24:a9:fb:13:e6:5b:5c:ff:81:
        fa:4e:d9:02:12:c6:9f:77:7d:73:47:b7:e7:d8:8a:d1:25:ff:
        49:b7:53:0c:b0:c3:93:e1:85:f7:83:57:59:01:67:7f:bb:b1:
        be:0b:12:df
-----BEGIN CERTIFICATE-----
MIIDdzCCAl+gAwIBAgIQTvtHYwaT1O29TUxHIs5lfTANBgkqhkiG9w0BAQsFADAW
MRQwEgYDVQQDDAt0ZWFtMjgxLW5ldDAeFw0yMzExMDQxMTMzMjBaFw0yNjEwMTkx
MTMzMjBaMBkxFzAVBgNVBAMMDnRlYW0yODEtc2VydmVyMIIBIjANBgkqhkiG9w0B
AQEFAAOCAQ8AMIIBCgKCAQEAqd7J67y0VULWKGzzaECWLpTRDn8LZbdMONL2yrHS
KbN5riRsSo1/mc8xp2bTImOk1JDPDul/vfYQgqgwY/p6babSXvqfsfoKIhy2RwVp
9Y6QuH3kh1pBJtrMYr33O4HcBw/Z9oPAB4K8Ij442cVYci51ymgV3Zj2ocse1hsT
jmAdn2A/y4AsNE5SkyN1nfq/CFJS2KZEMSkcb+WiGBPzBhweGKoIrYRuRW75cb6w
pe21BnGR/9Cs0/mSiqhta9Cw9Md/+jwFhpRSursbXb7cJTnkDu3ukx92CKzsxkfd
dx907/LDnr/pxSCaDtob4H7ZysSHdUiPucvtALjgRUKhEwIDAQABo4G9MIG6MAkG
A1UdEwQCMAAwHQYDVR0OBBYEFCzzNY0Bq9o2QcSvy+qR0Wok81KoMFEGA1UdIwRK
MEiAFHnuQYnLrEIIEEZuUQOwz6oKoQZRoRqkGDAWMRQwEgYDVQQDDAt0ZWFtMjgx
LW5ldIIUDcthSswA/BMkwGSe/6CDXYYmsRMwEwYDVR0lBAwwCgYIKwYBBQUHAwEw
CwYDVR0PBAQDAgWgMBkGA1UdEQQSMBCCDnRlYW0yODEtc2VydmVyMA0GCSqGSIb3
DQEBCwUAA4IBAQCne9ArdmSRmcLXTntL5MiweUHQGu1hv2U1xcRmj5nmjQ6Yw9/a
xjeCJZ0sG1PiwHUIGT1T+CL6/ja4mnezVAYjaXKHwTe38J52xobMckJBmJp2wxEu
0JXcMpVAkKXYH2RQwB2r8fn+Il8jNtOFX2cyywaDV6uFQZv3OIzLRREUIIz2FMB4
0BsyXYI/o2As8y+Zhk2LBZG22uoelqHZFGiHfivdTEML1DDY/EE2Hv8DkAlY+P9f
ZDzQSLBxquJcdCSO78w5XddOxbD+6qWEw8UkqfsT5ltc/4H6TtkCEsafd31zR7fn
2IrRJf9Jt1MMsMOT4YX3g1dZAWd/u7G+CxLf
-----END CERTIFICATE-----
