Certificate:
    Data:
        Version: 3 (0x2)
        Serial Number:
            63:0f:7d:f3:4f:23:25:14:be:5d:3b:98:a9:f9:9f:b9
        Signature Algorithm: sha256WithRSAEncryption
        Issuer: CN=team281-net
        Validity
            Not Before: Nov  3 20:44:26 2023 GMT
            Not After : Oct 18 20:44:26 2026 GMT
        Subject: CN=team281-server
        Subject Public Key Info:
            Public Key Algorithm: rsaEncryption
                Public-Key: (2048 bit)
                Modulus:
                    00:a1:14:9a:e1:5b:07:7e:7d:36:64:3f:ef:7d:90:
                    0b:bd:f3:8e:d5:f9:78:f5:f0:21:33:40:f3:61:c5:
                    38:c2:f7:31:b8:6d:3a:f0:d9:a4:56:43:26:b7:95:
                    fa:1e:5f:d1:14:c3:97:e0:e7:29:a5:7f:bc:45:1a:
                    2b:95:6b:02:0f:bd:62:e8:6b:ad:ad:42:c2:5f:1e:
                    26:1d:60:f8:94:3b:7d:0d:d8:b3:b1:3a:91:d7:e1:
                    4f:ee:30:e7:d7:28:c0:81:0d:5d:05:66:83:7c:42:
                    d1:04:1a:77:9d:40:57:ee:14:76:32:e0:2e:d4:ae:
                    cc:59:b1:2c:95:7a:54:19:d4:52:5f:9c:a6:98:df:
                    2c:c3:7d:35:58:0f:64:61:f7:bb:4d:75:ae:e2:b5:
                    c6:58:1a:ab:71:fb:63:90:42:f5:df:d6:f7:45:0d:
                    b3:79:3b:4d:40:42:c0:89:99:70:2a:4d:5f:37:39:
                    70:ea:5a:f8:40:c2:54:9e:7c:db:95:5e:d3:32:47:
                    ae:bd:7d:08:e7:ec:d8:9d:b5:c3:c0:cb:33:17:d1:
                    15:04:51:2a:0c:65:3c:54:cb:2e:86:92:57:b9:bb:
                    82:ab:68:4c:fe:cf:8a:81:88:db:bb:6d:0f:27:86:
                    79:57:72:41:c1:e9:a6:59:5c:18:16:56:e2:7a:47:
                    4d:3f
                Exponent: 65537 (0x10001)
        X509v3 extensions:
            X509v3 Basic Constraints: 
                CA:FALSE
            X509v3 Subject Key Identifier: 
                7C:01:2A:66:6E:3C:2E:5B:C7:BC:44:09:A7:EF:63:7A:D6:96:AC:B5
            X509v3 Authority Key Identifier: 
                keyid:78:6E:0D:EE:12:11:04:80:3D:6B:46:1F:C3:46:7A:76:FD:B1:66:23
                DirName:/CN=team281-net
                serial:47:3C:F6:DF:0E:C2:C8:DF:64:BC:B7:15:F7:01:50:F1:6F:BC:BA:71
            X509v3 Extended Key Usage: 
                TLS Web Server Authentication
            X509v3 Key Usage: 
                Digital Signature, Key Encipherment
            X509v3 Subject Alternative Name: 
                DNS:team281-server
    Signature Algorithm: sha256WithRSAEncryption
    Signature Value:
        0b:3e:69:57:e4:6d:da:05:5a:76:14:7c:2a:93:61:4e:5f:ed:
        b6:6a:41:ab:77:82:e8:47:95:4e:1b:9c:14:01:62:d7:f5:5f:
        6a:03:ee:0d:7a:d2:50:fd:3b:f4:4c:10:26:dc:78:f4:82:94:
        6a:1d:16:51:d0:f0:9d:2d:60:a9:4e:2a:67:8d:ff:6d:57:65:
        77:d8:e9:47:4d:43:f7:38:7d:67:ee:c7:7d:02:9e:df:e7:42:
        b7:a8:9b:d0:a8:01:04:52:eb:7c:1f:b5:86:dd:00:23:e9:f7:
        3b:60:5b:d7:b6:f9:1d:4b:64:3e:f2:d4:96:c4:d4:a4:58:48:
        09:7f:e5:ea:62:62:75:26:e1:a6:9d:64:32:48:1d:6c:eb:b3:
        99:65:18:16:66:56:7e:9e:b1:86:20:95:d1:a1:1a:85:a8:26:
        4c:a6:b7:a7:16:f0:5b:f3:14:d7:55:bb:d9:f5:83:88:fc:7b:
        6b:bb:84:7f:26:09:bc:5f:68:30:fd:fc:5f:71:76:58:c4:4d:
        95:dd:db:e4:0b:d4:4d:30:a6:da:65:5a:60:0f:25:a8:ba:60:
        52:3e:18:88:65:6c:6c:5a:dd:1e:4b:2b:38:4b:7c:3f:6f:c5:
        be:02:48:12:3c:0a:17:d0:af:db:dd:5b:bc:41:11:18:87:84:
        5e:6d:19:24
-----BEGIN CERTIFICATE-----
MIIDdzCCAl+gAwIBAgIQYw99808jJRS+XTuYqfmfuTANBgkqhkiG9w0BAQsFADAW
MRQwEgYDVQQDDAt0ZWFtMjgxLW5ldDAeFw0yMzExMDMyMDQ0MjZaFw0yNjEwMTgy
MDQ0MjZaMBkxFzAVBgNVBAMMDnRlYW0yODEtc2VydmVyMIIBIjANBgkqhkiG9w0B
AQEFAAOCAQ8AMIIBCgKCAQEAoRSa4VsHfn02ZD/vfZALvfOO1fl49fAhM0DzYcU4
wvcxuG068NmkVkMmt5X6Hl/RFMOX4OcppX+8RRorlWsCD71i6GutrULCXx4mHWD4
lDt9DdizsTqR1+FP7jDn1yjAgQ1dBWaDfELRBBp3nUBX7hR2MuAu1K7MWbEslXpU
GdRSX5ymmN8sw301WA9kYfe7TXWu4rXGWBqrcftjkEL139b3RQ2zeTtNQELAiZlw
Kk1fNzlw6lr4QMJUnnzblV7TMkeuvX0I5+zYnbXDwMszF9EVBFEqDGU8VMsuhpJX
ubuCq2hM/s+KgYjbu20PJ4Z5V3JBwemmWVwYFlbiekdNPwIDAQABo4G9MIG6MAkG
A1UdEwQCMAAwHQYDVR0OBBYEFHwBKmZuPC5bx7xECafvY3rWlqy1MFEGA1UdIwRK
MEiAFHhuDe4SEQSAPWtGH8NGenb9sWYjoRqkGDAWMRQwEgYDVQQDDAt0ZWFtMjgx
LW5ldIIURzz23w7CyN9kvLcV9wFQ8W+8unEwEwYDVR0lBAwwCgYIKwYBBQUHAwEw
CwYDVR0PBAQDAgWgMBkGA1UdEQQSMBCCDnRlYW0yODEtc2VydmVyMA0GCSqGSIb3
DQEBCwUAA4IBAQALPmlX5G3aBVp2FHwqk2FOX+22akGrd4LoR5VOG5wUAWLX9V9q
A+4NetJQ/Tv0TBAm3Hj0gpRqHRZR0PCdLWCpTipnjf9tV2V32OlHTUP3OH1n7sd9
Ap7f50K3qJvQqAEEUut8H7WG3QAj6fc7YFvXtvkdS2Q+8tSWxNSkWEgJf+XqYmJ1
JuGmnWQySB1s67OZZRgWZlZ+nrGGIJXRoRqFqCZMprenFvBb8xTXVbvZ9YOI/Htr
u4R/Jgm8X2gw/fxfcXZYxE2V3dvkC9RNMKbaZVpgDyWoumBSPhiIZWxsWt0eSys4
S3w/b8W+AkgSPAoX0K/b3Vu8QREYh4RebRkk
-----END CERTIFICATE-----
