Certificate:
    Data:
        Version: 3 (0x2)
        Serial Number:
            66:c0:2c:3a:e4:f9:82:db:bf:f0:93:63:a3:e8:11:a0
        Signature Algorithm: sha256WithRSAEncryption
        Issuer: CN=team281-net
        Validity
            Not Before: Nov  4 11:33:20 2023 GMT
            Not After : Oct 19 11:33:20 2026 GMT
        Subject: CN=team281-client
        Subject Public Key Info:
            Public Key Algorithm: rsaEncryption
                Public-Key: (2048 bit)
                Modulus:
                    00:cf:d2:6c:29:05:53:96:fe:59:e0:bd:f9:78:16:
                    44:83:c0:b8:1f:78:3b:d0:22:10:e6:2d:ed:da:61:
                    be:e4:93:31:46:13:fd:82:1d:44:67:1c:58:7f:75:
                    c0:d3:16:ef:c1:f8:f3:45:8e:df:92:4c:af:ef:74:
                    ef:89:5f:8b:ac:c8:d3:14:eb:d7:75:c4:b0:29:33:
                    83:46:06:87:75:8a:25:23:1d:2d:44:26:44:2e:f0:
                    8e:f9:ad:79:3d:8c:25:6e:d4:b1:11:08:42:a2:a0:
                    33:a8:9d:26:9a:51:27:b6:88:16:18:71:4a:58:3d:
                    78:ab:42:fe:43:22:75:21:6d:35:67:aa:e5:18:58:
                    4c:d7:74:d9:df:16:83:17:d1:22:e2:4a:99:7f:3f:
                    62:b9:b9:e6:6d:06:89:a8:36:a6:4b:2d:b0:42:48:
                    03:fb:e0:5a:95:3b:ca:bd:f2:bd:e6:87:6c:97:71:
                    cd:83:da:4c:3e:a6:71:59:cf:86:68:5a:21:3e:4c:
                    11:b4:63:39:dc:a1:e2:59:00:72:a0:dd:6a:2c:ac:
                    fb:49:31:4e:14:0c:15:fe:f3:b9:33:d9:9f:2f:cc:
                    01:72:e3:02:67:c4:bc:8a:46:31:91:52:e6:f7:d2:
                    94:88:9d:17:57:5c:6e:11:ee:bb:79:8c:fe:7e:be:
                    ca:c5
                Exponent: 65537 (0x10001)
        X509v3 extensions:
            X509v3 Basic Constraints: 
                CA:FALSE
            X509v3 Subject Key Identifier: 
                FB:E0:2D:40:F4:DB:C4:6A:58:28:80:99:DF:8A:C7:E2:79:58:CE:A5
            X509v3 Authority Key Identifier: 
                keyid:79:EE:41:89:CB:AC:42:08:10:46:6E:51:03:B0:CF:AA:0A:A1:06:51
                DirName:/CN=team281-net
                serial:0D:CB:61:4A:CC:00:FC:13:24:C0:64:9E:FF:A0:83:5D:86:26:B1:13
            X509v3 Extended Key Usage: 
                TLS Web Client Authentication
            X509v3 Key Usage: 
                Digital Signature
    Signature Algorithm: sha256WithRSAEncryption
    Signature Value:
        72:60:55:92:b0:b0:7c:b2:ce:6b:82:94:a8:1c:8a:ac:a7:22:
        d4:bc:ba:44:fd:ca:e8:47:34:a4:f8:76:25:bc:2d:f0:db:4f:
        2c:f5:0d:d3:b3:46:f5:47:f8:3b:bf:f4:55:be:ea:33:34:80:
        ad:62:9b:3e:f0:13:00:01:3f:04:71:0f:ba:d1:fb:52:2d:22:
        c7:35:15:a4:90:af:24:d4:83:73:21:8d:53:01:2f:52:ae:5a:
        87:bf:05:9d:24:64:a3:d4:0b:3f:2c:39:41:a1:cc:b3:b3:58:
        9c:fc:b7:81:11:a9:d3:e0:59:85:36:00:ef:36:ab:7a:29:66:
        47:b0:20:02:3c:b8:74:0a:c0:ce:61:4b:28:a7:17:9d:2f:e8:
        d7:4f:70:bc:64:da:bb:24:8b:78:52:a6:22:5a:2b:02:35:20:
        9d:c4:13:a4:48:05:4c:cd:d2:fd:81:d2:71:66:b1:01:cd:61:
        90:1b:52:ad:86:de:bb:be:42:d8:b0:0c:d5:d6:99:2f:ed:3b:
        c7:6c:24:7d:6c:04:f4:c8:88:4d:1b:91:43:36:cf:ab:56:55:
        20:e2:10:4a:17:89:8b:bf:04:da:1c:79:3a:31:b5:87:0e:b7:
        a0:0a:e9:cf:26:8e:dd:76:72:98:35:ec:6b:3a:13:bc:19:72:
        3e:4c:06:be
-----BEGIN CERTIFICATE-----
MIIDXDCCAkSgAwIBAgIQZsAsOuT5gtu/8JNjo+gRoDANBgkqhkiG9w0BAQsFADAW
MRQwEgYDVQQDDAt0ZWFtMjgxLW5ldDAeFw0yMzExMDQxMTMzMjBaFw0yNjEwMTkx
MTMzMjBaMBkxFzAVBgNVBAMMDnRlYW0yODEtY2xpZW50MIIBIjANBgkqhkiG9w0B
AQEFAAOCAQ8AMIIBCgKCAQEAz9JsKQVTlv5Z4L35eBZEg8C4H3g70CIQ5i3t2mG+
5JMxRhP9gh1EZxxYf3XA0xbvwfjzRY7fkkyv73TviV+LrMjTFOvXdcSwKTODRgaH
dYolIx0tRCZELvCO+a15PYwlbtSxEQhCoqAzqJ0mmlEntogWGHFKWD14q0L+QyJ1
IW01Z6rlGFhM13TZ3xaDF9Ei4kqZfz9iubnmbQaJqDamSy2wQkgD++BalTvKvfK9
5odsl3HNg9pMPqZxWc+GaFohPkwRtGM53KHiWQByoN1qLKz7STFOFAwV/vO5M9mf
L8wBcuMCZ8S8ikYxkVLm99KUiJ0XV1xuEe67eYz+fr7KxQIDAQABo4GiMIGfMAkG
A1UdEwQCMAAwHQYDVR0OBBYEFPvgLUD028RqWCiAmd+Kx+J5WM6lMFEGA1UdIwRK
MEiAFHnuQYnLrEIIEEZuUQOwz6oKoQZRoRqkGDAWMRQwEgYDVQQDDAt0ZWFtMjgx
LW5ldIIUDcthSswA/BMkwGSe/6CDXYYmsRMwEwYDVR0lBAwwCgYIKwYBBQUHAwIw
CwYDVR0PBAQDAgeAMA0GCSqGSIb3DQEBCwUAA4IBAQByYFWSsLB8ss5rgpSoHIqs
pyLUvLpE/croRzSk+HYlvC3w208s9Q3Ts0b1R/g7v/RVvuozNICtYps+8BMAAT8E
cQ+60ftSLSLHNRWkkK8k1INzIY1TAS9SrlqHvwWdJGSj1As/LDlBocyzs1ic/LeB
EanT4FmFNgDvNqt6KWZHsCACPLh0CsDOYUsopxedL+jXT3C8ZNq7JIt4UqYiWisC
NSCdxBOkSAVMzdL9gdJxZrEBzWGQG1Ktht67vkLYsAzV1pkv7TvHbCR9bAT0yIhN
G5FDNs+rVlUg4hBKF4mLvwTaHHk6MbWHDregCunPJo7ddnKYNexrOhO8GXI+TAa+
-----END CERTIFICATE-----
