Certificate:
    Data:
        Version: 3 (0x2)
        Serial Number:
            d8:da:a0:46:e6:32:0d:0c:6c:66:f6:f1:4b:04:26:97
        Signature Algorithm: sha256WithRSAEncryption
        Issuer: CN=team281-net
        Validity
            Not Before: Nov  4 10:45:51 2023 GMT
            Not After : Oct 19 10:45:51 2026 GMT
        Subject: CN=team281-client
        Subject Public Key Info:
            Public Key Algorithm: rsaEncryption
                Public-Key: (2048 bit)
                Modulus:
                    00:a5:fb:c9:12:de:d9:b4:b0:27:fc:64:fd:ca:c9:
                    33:29:1e:41:4e:b1:63:84:0f:b2:c8:45:ab:88:88:
                    e0:ee:17:76:56:54:fc:ea:ae:5d:eb:76:c4:eb:1e:
                    83:f4:f0:7d:33:c6:dc:da:03:19:d9:37:43:e7:b7:
                    86:00:42:b8:c3:cb:90:12:27:d2:76:53:e9:23:34:
                    78:38:24:bd:ae:6a:64:a1:19:bc:01:a3:6f:95:4d:
                    9f:9a:d0:cf:96:8d:fb:cb:7b:40:c6:43:a3:23:e0:
                    10:87:31:85:09:9c:59:f7:60:78:0b:1a:fe:5b:e8:
                    cc:72:9f:6c:4e:65:33:c3:25:4c:db:48:fa:f4:85:
                    6b:fe:cd:03:84:1d:3c:14:27:c8:78:22:3d:07:a1:
                    e8:4c:1b:e1:71:30:b4:b1:91:c0:8c:0f:b7:97:f6:
                    df:17:3a:35:23:d7:a3:80:9e:0f:f1:63:55:51:e5:
                    48:52:f1:ad:42:16:ec:e2:d4:1e:7d:af:ab:51:40:
                    97:06:f7:af:7c:45:50:f1:38:47:70:66:28:0f:52:
                    31:80:b7:55:8c:72:33:b5:b4:a2:50:e3:fc:d6:6b:
                    47:82:6b:60:86:ed:1b:04:2a:bf:44:cb:ad:54:8b:
                    b5:35:5d:1b:66:1e:fc:c5:8f:1d:19:61:6e:0a:e9:
                    9a:03
                Exponent: 65537 (0x10001)
        X509v3 extensions:
            X509v3 Basic Constraints: 
                CA:FALSE
            X509v3 Subject Key Identifier: 
                07:6F:45:DC:B8:A6:67:13:89:68:66:F0:5C:22:02:D7:1C:82:FC:EC
            X509v3 Authority Key Identifier: 
                keyid:05:D5:2E:C2:A8:47:18:42:92:00:A2:2E:42:2A:45:1C:FD:BF:64:7A
                DirName:/CN=team281-net
                serial:53:FE:B5:46:B5:6B:93:36:7B:74:A6:9B:F1:77:E0:D0:EC:0A:06:88
            X509v3 Extended Key Usage: 
                TLS Web Client Authentication
            X509v3 Key Usage: 
                Digital Signature
    Signature Algorithm: sha256WithRSAEncryption
    Signature Value:
        1a:a9:2b:6c:ee:06:f2:73:0c:7f:8f:ed:45:5d:4f:3c:5d:d1:
        f7:ae:6f:95:e0:dd:d5:6b:0e:3b:4f:6a:2c:f0:08:cf:e0:c6:
        11:7e:70:1c:58:e6:ad:d0:74:b3:24:a4:73:cd:da:63:ec:f3:
        70:fb:48:f6:2b:79:68:bf:de:b4:c6:e9:b2:ad:a2:0e:2c:ad:
        9d:62:9b:f0:1c:ac:75:4a:8d:3d:53:5a:35:b2:f0:b7:85:7f:
        ea:cf:d5:e7:f7:fa:28:be:a1:2a:1c:97:92:ec:da:07:53:fe:
        fe:62:ab:67:20:54:68:92:48:54:bf:d3:ba:32:db:45:a4:58:
        bc:e0:ed:5b:35:07:c6:8a:0e:83:3c:37:60:c4:75:cb:d8:9d:
        df:b5:b9:47:7a:5f:6a:c7:e3:ed:fb:9b:03:a4:7a:f3:d2:0d:
        8a:3c:25:ac:f7:bd:e3:15:dc:00:b1:48:5e:09:f6:ae:fc:25:
        06:39:7d:17:ed:cc:a7:95:0c:bc:13:ae:6f:4b:13:d3:64:81:
        b2:bb:c8:c0:8d:2d:4f:64:5f:25:10:e3:e6:ab:8d:09:c5:7c:
        ee:90:80:98:63:ff:a6:15:07:49:6c:4a:3b:63:6b:9e:8a:e9:
        e6:38:58:6d:43:c0:da:1e:9f:30:c3:73:de:1b:6b:b2:f4:8f:
        0c:69:cc:4f
-----BEGIN CERTIFICATE-----
MIIDXTCCAkWgAwIBAgIRANjaoEbmMg0MbGb28UsEJpcwDQYJKoZIhvcNAQELBQAw
FjEUMBIGA1UEAwwLdGVhbTI4MS1uZXQwHhcNMjMxMTA0MTA0NTUxWhcNMjYxMDE5
MTA0NTUxWjAZMRcwFQYDVQQDDA50ZWFtMjgxLWNsaWVudDCCASIwDQYJKoZIhvcN
AQEBBQADggEPADCCAQoCggEBAKX7yRLe2bSwJ/xk/crJMykeQU6xY4QPsshFq4iI
4O4XdlZU/OquXet2xOseg/TwfTPG3NoDGdk3Q+e3hgBCuMPLkBIn0nZT6SM0eDgk
va5qZKEZvAGjb5VNn5rQz5aN+8t7QMZDoyPgEIcxhQmcWfdgeAsa/lvozHKfbE5l
M8MlTNtI+vSFa/7NA4QdPBQnyHgiPQeh6Ewb4XEwtLGRwIwPt5f23xc6NSPXo4Ce
D/FjVVHlSFLxrUIW7OLUHn2vq1FAlwb3r3xFUPE4R3BmKA9SMYC3VYxyM7W0olDj
/NZrR4JrYIbtGwQqv0TLrVSLtTVdG2Ye/MWPHRlhbgrpmgMCAwEAAaOBojCBnzAJ
BgNVHRMEAjAAMB0GA1UdDgQWBBQHb0XcuKZnE4loZvBcIgLXHIL87DBRBgNVHSME
SjBIgBQF1S7CqEcYQpIAoi5CKkUc/b9keqEapBgwFjEUMBIGA1UEAwwLdGVhbTI4
MS1uZXSCFFP+tUa1a5M2e3Smm/F34NDsCgaIMBMGA1UdJQQMMAoGCCsGAQUFBwMC
MAsGA1UdDwQEAwIHgDANBgkqhkiG9w0BAQsFAAOCAQEAGqkrbO4G8nMMf4/tRV1P
PF3R965vleDd1WsOO09qLPAIz+DGEX5wHFjmrdB0sySkc83aY+zzcPtI9it5aL/e
tMbpsq2iDiytnWKb8BysdUqNPVNaNbLwt4V/6s/V5/f6KL6hKhyXkuzaB1P+/mKr
ZyBUaJJIVL/TujLbRaRYvODtWzUHxooOgzw3YMR1y9id37W5R3pfasfj7fubA6R6
89INijwlrPe94xXcALFIXgn2rvwlBjl9F+3Mp5UMvBOub0sT02SBsrvIwI0tT2Rf
JRDj5quNCcV87pCAmGP/phUHSWxKO2Nrnorp5jhYbUPA2h6fMMNz3htrsvSPDGnM
Tw==
-----END CERTIFICATE-----
