Certificate:
    Data:
        Version: 3 (0x2)
        Serial Number:
            c1:0e:cd:cc:c5:4e:b7:1b:23:ca:2e:e9:b9:aa:20:bd
        Signature Algorithm: sha256WithRSAEncryption
        Issuer: CN=team365-net
        Validity
            Not Before: Nov  4 10:47:16 2023 GMT
            Not After : Oct 19 10:47:16 2026 GMT
        Subject: CN=team365-server
        Subject Public Key Info:
            Public Key Algorithm: rsaEncryption
                Public-Key: (2048 bit)
                Modulus:
                    00:a4:2f:f1:90:d5:19:f5:14:20:a3:83:ed:ab:72:
                    1a:8f:d6:eb:d3:df:a0:92:5d:c3:8a:bb:5b:8a:8a:
                    af:f3:b5:80:90:3b:4e:4e:6f:fd:ef:81:ae:ba:4a:
                    e2:e2:89:68:5b:b0:19:bd:8d:5f:31:79:82:08:36:
                    d2:90:b0:44:19:3b:ff:ea:7c:a8:9e:b4:15:f1:2f:
                    6c:0e:84:e6:5a:68:2e:42:ac:7a:93:94:30:07:64:
                    d7:39:84:d7:fd:26:57:53:ca:57:c9:b5:e6:5b:3c:
                    92:4e:35:d8:06:a3:9a:6f:07:c5:3a:16:5d:3c:09:
                    bb:16:59:2d:04:6d:6d:0f:68:6c:03:12:6a:df:23:
                    00:57:8c:6d:d6:26:c7:87:b3:ae:5d:e3:d9:e8:f0:
                    e7:73:dc:3a:93:f2:ca:da:a3:59:82:65:86:0c:2a:
                    bc:08:b2:87:5a:d1:cf:39:7b:b8:fa:d4:7e:71:6a:
                    d8:ad:f8:36:75:8c:ba:52:69:24:60:1a:41:00:74:
                    31:f6:9b:66:2b:14:33:e4:98:b0:f9:b8:5c:c0:56:
                    3d:6d:9f:08:08:82:12:ee:13:fa:f5:35:a7:04:81:
                    e0:96:e1:68:4f:fd:49:57:79:71:e4:16:ec:87:ae:
                    55:93:7a:db:2d:e1:0b:9f:49:51:79:e5:42:18:21:
                    97:cf
                Exponent: 65537 (0x10001)
        X509v3 extensions:
            X509v3 Basic Constraints: 
                CA:FALSE
            X509v3 Subject Key Identifier: 
                4D:0A:C1:02:C2:01:0A:4A:D7:9A:3E:61:C8:6D:A8:DA:FB:C2:C0:A1
            X509v3 Authority Key Identifier: 
                keyid:5A:EC:9F:6C:A5:05:A9:F2:0A:26:10:2C:77:ED:24:7D:AB:B4:44:93
                DirName:/CN=team365-net
                serial:14:4E:F1:90:FA:F3:66:F1:05:85:44:CA:43:7E:01:FB:9D:10:97:6F
            X509v3 Extended Key Usage: 
                TLS Web Server Authentication
            X509v3 Key Usage: 
                Digital Signature, Key Encipherment
            X509v3 Subject Alternative Name: 
                DNS:team365-server
    Signature Algorithm: sha256WithRSAEncryption
    Signature Value:
        01:0f:e5:c5:57:b9:63:c3:40:bd:ec:47:b9:ad:ac:20:de:b1:
        08:1c:34:9c:64:9d:f0:26:bb:26:9b:0a:d4:ee:1e:2b:a7:70:
        68:d3:bf:8f:93:34:24:4b:0e:50:cf:ae:85:e0:aa:2d:7c:09:
        04:74:9c:fe:0b:f0:52:d9:21:08:08:87:ee:ee:d5:ce:60:7a:
        31:3d:8d:be:8b:7c:f7:1a:d6:17:49:be:f1:ce:5e:b0:cd:4c:
        95:bf:63:25:0e:c4:fb:01:dd:7a:72:72:b7:d1:a6:e3:b7:af:
        b1:2c:27:5d:73:5d:f7:49:06:8e:a2:33:70:89:63:31:d2:9f:
        8a:a1:2a:7a:f0:51:92:4c:2b:08:14:e9:0f:e2:f8:36:03:e5:
        c3:4e:6c:26:70:5f:98:ab:d4:0f:9f:ef:4a:f4:fc:a8:30:08:
        29:54:36:90:24:6b:0d:8e:18:c8:e0:68:88:47:f3:89:07:14:
        53:16:6d:5e:e4:f8:a2:bb:8b:a6:3e:5a:7e:43:dd:6b:b9:e8:
        87:f1:97:15:18:9a:52:a4:26:97:1e:b1:23:0e:6b:ce:6e:f5:
        d2:8e:3b:c5:14:c2:9e:48:01:f5:98:22:b5:0e:eb:bd:fb:ee:
        e1:56:33:54:7e:cd:eb:9c:b9:27:b4:24:0e:cc:7e:2b:df:8c:
        80:a9:6b:28
-----BEGIN CERTIFICATE-----
MIIDeDCCAmCgAwIBAgIRAMEOzczFTrcbI8ou6bmqIL0wDQYJKoZIhvcNAQELBQAw
FjEUMBIGA1UEAwwLdGVhbTM2NS1uZXQwHhcNMjMxMTA0MTA0NzE2WhcNMjYxMDE5
MTA0NzE2WjAZMRcwFQYDVQQDDA50ZWFtMzY1LXNlcnZlcjCCASIwDQYJKoZIhvcN
AQEBBQADggEPADCCAQoCggEBAKQv8ZDVGfUUIKOD7atyGo/W69PfoJJdw4q7W4qK
r/O1gJA7Tk5v/e+BrrpK4uKJaFuwGb2NXzF5ggg20pCwRBk7/+p8qJ60FfEvbA6E
5lpoLkKsepOUMAdk1zmE1/0mV1PKV8m15ls8kk412Aajmm8HxToWXTwJuxZZLQRt
bQ9obAMSat8jAFeMbdYmx4ezrl3j2ejw53PcOpPyytqjWYJlhgwqvAiyh1rRzzl7
uPrUfnFq2K34NnWMulJpJGAaQQB0MfabZisUM+SYsPm4XMBWPW2fCAiCEu4T+vU1
pwSB4JbhaE/9SVd5ceQW7IeuVZN62y3hC59JUXnlQhghl88CAwEAAaOBvTCBujAJ
BgNVHRMEAjAAMB0GA1UdDgQWBBRNCsECwgEKSteaPmHIbaja+8LAoTBRBgNVHSME
SjBIgBRa7J9spQWp8gomECx37SR9q7REk6EapBgwFjEUMBIGA1UEAwwLdGVhbTM2
NS1uZXSCFBRO8ZD682bxBYVEykN+AfudEJdvMBMGA1UdJQQMMAoGCCsGAQUFBwMB
MAsGA1UdDwQEAwIFoDAZBgNVHREEEjAQgg50ZWFtMzY1LXNlcnZlcjANBgkqhkiG
9w0BAQsFAAOCAQEAAQ/lxVe5Y8NAvexHua2sIN6xCBw0nGSd8Ca7JpsK1O4eK6dw
aNO/j5M0JEsOUM+uheCqLXwJBHSc/gvwUtkhCAiH7u7VzmB6MT2Nvot89xrWF0m+
8c5esM1Mlb9jJQ7E+wHdenJyt9Gm47evsSwnXXNd90kGjqIzcIljMdKfiqEqevBR
kkwrCBTpD+L4NgPlw05sJnBfmKvUD5/vSvT8qDAIKVQ2kCRrDY4YyOBoiEfziQcU
UxZtXuT4oruLpj5afkPda7noh/GXFRiaUqQmlx6xIw5rzm710o47xRTCnkgB9Zgi
tQ7rvfvu4VYzVH7N65y5J7QkDsx+K9+MgKlrKA==
-----END CERTIFICATE-----
