Certificate:
    Data:
        Version: 3 (0x2)
        Serial Number:
            f8:a7:66:f0:6d:64:20:2e:ad:e8:a2:3a:94:5a:6f:fb
        Signature Algorithm: sha256WithRSAEncryption
        Issuer: CN=team365-net
        Validity
            Not Before: Nov  4 11:35:36 2023 GMT
            Not After : Oct 19 11:35:36 2026 GMT
        Subject: CN=team365-client
        Subject Public Key Info:
            Public Key Algorithm: rsaEncryption
                Public-Key: (2048 bit)
                Modulus:
                    00:bd:d7:84:88:76:60:aa:c6:13:24:46:ea:a1:d3:
                    95:14:32:97:57:05:ff:7b:88:1b:2a:d6:01:4f:80:
                    0c:88:5e:bf:6f:cf:87:ae:eb:8e:dc:25:a5:08:0f:
                    fc:9d:98:e3:b7:3c:f5:81:94:2c:09:4f:65:ca:81:
                    83:84:f3:62:38:ca:b6:94:39:b5:f8:6f:f7:d3:5c:
                    d1:2f:58:6f:38:e3:dd:36:a7:65:ce:48:f6:35:25:
                    87:ad:90:0f:91:99:df:2c:f6:bb:b4:d4:a5:97:24:
                    26:24:d9:52:fa:54:4b:e0:bd:c6:c4:d2:06:eb:a6:
                    2f:a4:51:9c:b1:94:e9:df:08:ee:55:1a:9c:8f:86:
                    9f:8a:8c:52:2b:ff:6b:fb:ee:bc:76:cf:ca:09:09:
                    ad:4c:96:74:89:b6:8f:c7:8a:5d:19:3f:69:9b:06:
                    e1:db:d9:76:1b:98:b3:fc:f1:89:7b:04:74:9d:27:
                    4f:8e:aa:04:e3:26:b7:82:21:40:fc:3e:de:79:b3:
                    bd:dd:0c:aa:59:0c:6c:72:eb:c4:a2:64:24:2a:57:
                    12:6e:1f:fa:bd:50:74:78:e1:ce:a0:54:20:9d:b5:
                    87:c2:a0:ca:5c:86:37:45:90:e7:16:30:ca:fa:e2:
                    05:c3:9c:bc:54:cc:f5:e9:55:4f:bb:01:fc:c8:11:
                    94:b7
                Exponent: 65537 (0x10001)
        X509v3 extensions:
            X509v3 Basic Constraints: 
                CA:FALSE
            X509v3 Subject Key Identifier: 
                B5:7A:66:5F:35:39:D8:D7:E9:55:74:E3:5F:EF:ED:87:3D:05:B2:29
            X509v3 Authority Key Identifier: 
                keyid:CC:12:5A:10:DB:0E:6D:D2:C4:AD:CA:97:97:C4:36:D8:6C:53:BD:60
                DirName:/CN=team365-net
                serial:61:22:A4:DE:C7:81:CC:4F:3A:F6:5F:E0:AB:C0:6E:33:29:D0:EC:EB
            X509v3 Extended Key Usage: 
                TLS Web Client Authentication
            X509v3 Key Usage: 
                Digital Signature
    Signature Algorithm: sha256WithRSAEncryption
    Signature Value:
        75:31:56:a2:13:d4:84:22:78:0c:64:10:84:2c:38:f5:d1:d8:
        9f:c8:ea:92:d9:f2:25:74:99:91:1b:be:3c:e9:f2:86:51:df:
        7e:60:c9:2e:b3:3c:b4:83:76:f8:01:1c:cc:fd:2c:89:c0:39:
        cb:1b:b9:c3:4d:fb:0b:df:e8:0a:de:f8:fe:d8:57:43:ac:26:
        37:b6:52:73:eb:20:9d:6a:cb:d3:e7:5f:a4:84:28:89:61:40:
        e2:74:88:56:ae:f3:dc:85:55:df:3a:ad:9f:04:51:89:21:7e:
        12:c3:ad:12:38:0e:14:f2:bd:d7:0d:31:af:d9:7b:dc:dd:6f:
        79:b4:c1:fc:e8:16:eb:25:9c:54:af:62:02:35:ed:51:5e:d9:
        76:72:2d:a3:a3:76:9e:49:16:e0:a5:26:43:16:ed:6f:68:a2:
        39:6c:01:7c:2f:77:5b:60:88:56:d8:61:50:9c:c4:10:79:78:
        45:af:15:6a:d6:82:2c:60:75:66:9a:2c:36:fc:a2:f2:22:21:
        f7:62:27:88:3a:36:db:9b:02:03:60:8c:a4:33:7e:ec:a8:0d:
        ea:55:0c:3b:30:19:15:09:87:a3:12:c1:ca:18:8d:b1:62:b9:
        22:17:28:2d:5e:a9:72:3e:d0:fc:f7:79:29:61:bc:f7:25:92:
        7f:3c:68:09
-----BEGIN CERTIFICATE-----
MIIDXTCCAkWgAwIBAgIRAPinZvBtZCAureiiOpRab/swDQYJKoZIhvcNAQELBQAw
FjEUMBIGA1UEAwwLdGVhbTM2NS1uZXQwHhcNMjMxMTA0MTEzNTM2WhcNMjYxMDE5
MTEzNTM2WjAZMRcwFQYDVQQDDA50ZWFtMzY1LWNsaWVudDCCASIwDQYJKoZIhvcN
AQEBBQADggEPADCCAQoCggEBAL3XhIh2YKrGEyRG6qHTlRQyl1cF/3uIGyrWAU+A
DIhev2/Ph67rjtwlpQgP/J2Y47c89YGULAlPZcqBg4TzYjjKtpQ5tfhv99Nc0S9Y
bzjj3TanZc5I9jUlh62QD5GZ3yz2u7TUpZckJiTZUvpUS+C9xsTSBuumL6RRnLGU
6d8I7lUanI+Gn4qMUiv/a/vuvHbPygkJrUyWdIm2j8eKXRk/aZsG4dvZdhuYs/zx
iXsEdJ0nT46qBOMmt4IhQPw+3nmzvd0MqlkMbHLrxKJkJCpXEm4f+r1QdHjhzqBU
IJ21h8KgylyGN0WQ5xYwyvriBcOcvFTM9elVT7sB/MgRlLcCAwEAAaOBojCBnzAJ
BgNVHRMEAjAAMB0GA1UdDgQWBBS1emZfNTnY1+lVdONf7+2HPQWyKTBRBgNVHSME
SjBIgBTMEloQ2w5t0sStypeXxDbYbFO9YKEapBgwFjEUMBIGA1UEAwwLdGVhbTM2
NS1uZXSCFGEipN7HgcxPOvZf4KvAbjMp0OzrMBMGA1UdJQQMMAoGCCsGAQUFBwMC
MAsGA1UdDwQEAwIHgDANBgkqhkiG9w0BAQsFAAOCAQEAdTFWohPUhCJ4DGQQhCw4
9dHYn8jqktnyJXSZkRu+POnyhlHffmDJLrM8tIN2+AEczP0sicA5yxu5w037C9/o
Ct74/thXQ6wmN7ZSc+sgnWrL0+dfpIQoiWFA4nSIVq7z3IVV3zqtnwRRiSF+EsOt
EjgOFPK91w0xr9l73N1vebTB/OgW6yWcVK9iAjXtUV7ZdnIto6N2nkkW4KUmQxbt
b2iiOWwBfC93W2CIVthhUJzEEHl4Ra8VataCLGB1ZposNvyi8iIh92IniDo225sC
A2CMpDN+7KgN6lUMOzAZFQmHoxLByhiNsWK5IhcoLV6pcj7Q/Pd5KWG89yWSfzxo
CQ==
-----END CERTIFICATE-----
