Certificate:
    Data:
        Version: 3 (0x2)
        Serial Number:
            54:03:2b:a1:0f:75:67:19:70:16:24:e0:06:19:d6:12
        Signature Algorithm: sha256WithRSAEncryption
        Issuer: CN=team111-net
        Validity
            Not Before: Nov  4 11:29:39 2023 GMT
            Not After : Oct 19 11:29:39 2026 GMT
        Subject: CN=team111-server
        Subject Public Key Info:
            Public Key Algorithm: rsaEncryption
                Public-Key: (2048 bit)
                Modulus:
                    00:9b:2d:82:5d:a1:88:f3:6c:b6:08:c9:1c:60:16:
                    68:ab:76:58:73:bd:b6:f2:e4:a6:c2:f8:e7:64:c6:
                    73:00:2d:b1:53:10:37:26:0b:5c:9f:53:2d:2a:a2:
                    c3:b6:12:89:16:fd:4a:88:5e:85:95:12:79:74:fc:
                    6a:01:f6:f2:59:19:ff:03:42:16:6e:8a:25:b2:0c:
                    1e:8f:c7:ce:7a:0f:34:c9:9c:49:04:a7:de:af:25:
                    a7:49:94:e0:f2:11:5d:c8:bd:cb:86:48:0b:93:c0:
                    b7:b6:32:90:fa:5f:60:11:73:49:26:e2:9f:67:11:
                    8f:00:7d:5e:20:38:24:44:f2:cb:e2:43:d9:7c:0b:
                    88:bd:3f:10:9d:ce:67:48:90:b5:56:e1:b7:df:c3:
                    de:bc:1c:92:90:f2:8f:67:ff:eb:ed:b6:98:bb:b4:
                    b4:82:1b:d8:13:2f:f6:30:8a:ef:56:6d:ae:19:f5:
                    1e:c3:9b:59:a6:3c:7c:da:0c:3b:93:19:43:8a:b9:
                    92:dc:2c:ce:94:62:6e:7f:21:0c:dd:03:a6:b6:d3:
                    de:ef:49:a9:82:13:cd:16:78:00:29:7e:d4:51:85:
                    3c:2d:21:64:5f:22:db:b3:e4:5a:6a:15:81:7f:ec:
                    48:73:83:77:47:bd:b5:06:60:8f:0f:47:92:50:96:
                    80:97
                Exponent: 65537 (0x10001)
        X509v3 extensions:
            X509v3 Basic Constraints: 
                CA:FALSE
            X509v3 Subject Key Identifier: 
                2E:9B:E0:C8:9A:7A:7A:EF:88:1A:37:C4:DC:87:52:E0:52:ED:D5:08
            X509v3 Authority Key Identifier: 
                keyid:7A:60:AC:9E:09:77:56:D5:07:B7:4F:D0:FC:4D:73:03:9E:AD:94:0F
                DirName:/CN=team111-net
                serial:36:47:80:32:80:36:C0:5F:6C:45:76:2B:DD:A9:26:D0:13:BF:DE:EC
            X509v3 Extended Key Usage: 
                TLS Web Server Authentication
            X509v3 Key Usage: 
                Digital Signature, Key Encipherment
            X509v3 Subject Alternative Name: 
                DNS:team111-server
    Signature Algorithm: sha256WithRSAEncryption
    Signature Value:
        54:26:71:fd:53:fb:6d:58:04:30:c6:99:5e:89:28:73:9a:6e:
        b3:be:df:98:77:c7:09:31:81:84:f9:f2:75:9c:12:47:b0:dd:
        a2:f1:71:bf:78:99:24:22:dc:57:35:da:9d:c9:90:d1:89:c5:
        b5:d8:72:d5:d0:8a:16:c3:58:01:b5:fe:6f:86:33:99:c8:1c:
        08:cf:b4:8f:67:04:ca:b4:ef:37:6e:c6:f7:58:95:86:1c:cf:
        3d:40:d4:fa:d4:49:14:12:03:b3:eb:8a:89:12:d8:84:28:85:
        b1:71:b9:99:38:51:49:77:db:06:26:b1:71:66:1b:13:97:bd:
        dd:09:fa:aa:11:6b:3b:95:61:ca:3e:da:a7:f1:41:c6:4d:f5:
        97:3c:b8:9c:63:d3:d1:72:4b:b0:6d:1e:11:9f:fd:be:e8:a3:
        5f:5c:ff:f5:d8:8f:48:e5:2c:1e:bb:99:b6:eb:06:92:2a:83:
        6d:20:43:17:04:5f:d1:61:35:e1:76:49:e1:db:c9:c5:fb:81:
        31:dc:04:93:28:23:57:22:59:0b:e3:61:c2:78:bd:6d:f7:38:
        da:66:2b:ff:fb:4a:c2:95:44:79:85:a7:50:39:4b:bf:03:78:
        96:f7:c5:df:b6:ba:4a:7a:05:7f:a6:49:92:dd:38:66:92:00:
        45:cf:b7:a9
-----BEGIN CERTIFICATE-----
MIIDdzCCAl+gAwIBAgIQVAMroQ91ZxlwFiTgBhnWEjANBgkqhkiG9w0BAQsFADAW
MRQwEgYDVQQDDAt0ZWFtMTExLW5ldDAeFw0yMzExMDQxMTI5MzlaFw0yNjEwMTkx
MTI5MzlaMBkxFzAVBgNVBAMMDnRlYW0xMTEtc2VydmVyMIIBIjANBgkqhkiG9w0B
AQEFAAOCAQ8AMIIBCgKCAQEAmy2CXaGI82y2CMkcYBZoq3ZYc7228uSmwvjnZMZz
AC2xUxA3Jgtcn1MtKqLDthKJFv1KiF6FlRJ5dPxqAfbyWRn/A0IWboolsgwej8fO
eg80yZxJBKferyWnSZTg8hFdyL3LhkgLk8C3tjKQ+l9gEXNJJuKfZxGPAH1eIDgk
RPLL4kPZfAuIvT8Qnc5nSJC1VuG338PevBySkPKPZ//r7baYu7S0ghvYEy/2MIrv
Vm2uGfUew5tZpjx82gw7kxlDirmS3CzOlGJufyEM3QOmttPe70mpghPNFngAKX7U
UYU8LSFkXyLbs+RaahWBf+xIc4N3R721BmCPD0eSUJaAlwIDAQABo4G9MIG6MAkG
A1UdEwQCMAAwHQYDVR0OBBYEFC6b4MiaenrviBo3xNyHUuBS7dUIMFEGA1UdIwRK
MEiAFHpgrJ4Jd1bVB7dP0PxNcwOerZQPoRqkGDAWMRQwEgYDVQQDDAt0ZWFtMTEx
LW5ldIIUNkeAMoA2wF9sRXYr3akm0BO/3uwwEwYDVR0lBAwwCgYIKwYBBQUHAwEw
CwYDVR0PBAQDAgWgMBkGA1UdEQQSMBCCDnRlYW0xMTEtc2VydmVyMA0GCSqGSIb3
DQEBCwUAA4IBAQBUJnH9U/ttWAQwxpleiShzmm6zvt+Yd8cJMYGE+fJ1nBJHsN2i
8XG/eJkkItxXNdqdyZDRicW12HLV0IoWw1gBtf5vhjOZyBwIz7SPZwTKtO83bsb3
WJWGHM89QNT61EkUEgOz64qJEtiEKIWxcbmZOFFJd9sGJrFxZhsTl73dCfqqEWs7
lWHKPtqn8UHGTfWXPLicY9PRckuwbR4Rn/2+6KNfXP/12I9I5Sweu5m26waSKoNt
IEMXBF/RYTXhdknh28nF+4Ex3ASTKCNXIlkL42HCeL1t9zjaZiv/+0rClUR5hadQ
OUu/A3iW98XftrpKegV/pkmS3ThmkgBFz7ep
-----END CERTIFICATE-----
