Certificate:
    Data:
        Version: 3 (0x2)
        Serial Number:
            83:19:a2:e7:83:a4:80:52:f1:39:c5:a6:e4:7e:42:91
        Signature Algorithm: sha256WithRSAEncryption
        Issuer: CN=team111-net
        Validity
            Not Before: Nov  4 11:29:38 2023 GMT
            Not After : Oct 19 11:29:38 2026 GMT
        Subject: CN=team111-client
        Subject Public Key Info:
            Public Key Algorithm: rsaEncryption
                Public-Key: (2048 bit)
                Modulus:
                    00:b6:2f:77:44:dd:71:5e:73:99:52:6c:f2:41:5e:
                    a8:df:9a:e5:0a:96:60:0b:62:4f:59:f5:9f:8b:97:
                    1f:60:a9:52:ca:c0:cb:43:c7:52:55:81:e1:34:a5:
                    1c:dc:fe:78:3f:a2:25:15:0f:b9:1b:1d:4b:04:80:
                    96:67:cd:01:1b:56:d3:84:30:0d:c9:e3:3b:07:2e:
                    1a:70:f0:7d:41:cb:e2:ab:dc:e2:37:40:ea:87:80:
                    9f:91:05:79:a9:c7:a2:ae:41:d1:48:e0:16:fb:1e:
                    fc:ab:d2:c0:e4:02:9c:ad:62:ca:ec:dc:b8:46:54:
                    1a:7a:a1:b1:1a:98:21:38:f1:64:fa:65:37:fd:25:
                    f9:60:b8:5f:1b:c9:86:8e:b0:d0:6a:66:d0:5f:c9:
                    8e:b0:47:ca:51:38:32:04:3c:a4:4a:99:30:c1:80:
                    22:62:a0:94:3b:9c:e6:ff:08:a0:2c:37:bf:a7:f2:
                    e5:ae:1e:52:70:2d:09:ea:b0:66:1b:e7:c9:5a:0e:
                    b8:d9:9a:66:13:77:6b:49:8e:62:a3:e6:ff:2a:37:
                    dd:57:59:ba:9e:fc:66:44:d0:0d:e1:13:01:cc:7d:
                    b1:e7:ab:5d:d6:ef:73:73:9d:60:23:bd:0d:cb:38:
                    5d:3c:f6:cd:ef:ee:66:33:f7:5c:66:65:a9:8b:f0:
                    4f:4d
                Exponent: 65537 (0x10001)
        X509v3 extensions:
            X509v3 Basic Constraints: 
                CA:FALSE
            X509v3 Subject Key Identifier: 
                1E:66:FD:9B:97:AA:05:31:8D:7A:C4:66:A1:5E:BC:4C:E6:FB:A7:A5
            X509v3 Authority Key Identifier: 
                keyid:7A:60:AC:9E:09:77:56:D5:07:B7:4F:D0:FC:4D:73:03:9E:AD:94:0F
                DirName:/CN=team111-net
                serial:36:47:80:32:80:36:C0:5F:6C:45:76:2B:DD:A9:26:D0:13:BF:DE:EC
            X509v3 Extended Key Usage: 
                TLS Web Client Authentication
            X509v3 Key Usage: 
                Digital Signature
    Signature Algorithm: sha256WithRSAEncryption
    Signature Value:
        a0:32:5a:c6:6b:5e:5c:07:4d:e5:a7:60:cb:3c:b6:49:6e:0f:
        1b:6a:4a:b6:3d:0a:12:85:45:03:52:d6:6c:0c:d3:db:c1:a8:
        0e:0d:d9:eb:33:4c:21:f0:5b:f7:89:21:9e:f4:31:7a:0f:a3:
        28:f5:a2:9a:07:fe:65:ff:52:41:42:01:a5:24:88:3d:71:99:
        1f:ba:db:74:9a:53:b3:1e:9e:e8:d6:b7:dc:d1:3a:15:49:e6:
        61:e5:7f:68:27:22:53:23:87:41:c6:02:01:21:8d:dc:9e:42:
        3a:a3:a5:f5:36:e1:1d:32:95:b5:cf:8f:90:e2:c8:77:17:88:
        55:8e:ae:ce:d0:6f:d3:ca:4a:6c:80:0c:18:67:ec:14:c8:fb:
        8c:dd:08:c1:ea:36:c9:ef:f0:b2:fe:86:6a:82:5d:fc:57:9c:
        ea:6b:d6:57:ef:5b:8c:87:ac:ca:14:57:08:f8:b9:95:dc:5f:
        6e:74:c2:fc:a9:a0:68:6b:cb:e0:4f:ed:fd:b8:e5:43:63:ee:
        57:7b:32:ca:89:f7:4c:94:ad:4d:27:00:f1:f4:7b:61:e6:f2:
        08:9d:40:a7:d9:61:24:1f:cd:ad:6c:c2:ab:26:be:af:d8:07:
        75:26:0b:54:52:9c:b3:73:d0:08:c7:3e:e8:8e:aa:7d:18:bb:
        49:f6:1b:9f
-----BEGIN CERTIFICATE-----
MIIDXTCCAkWgAwIBAgIRAIMZoueDpIBS8TnFpuR+QpEwDQYJKoZIhvcNAQELBQAw
FjEUMBIGA1UEAwwLdGVhbTExMS1uZXQwHhcNMjMxMTA0MTEyOTM4WhcNMjYxMDE5
MTEyOTM4WjAZMRcwFQYDVQQDDA50ZWFtMTExLWNsaWVudDCCASIwDQYJKoZIhvcN
AQEBBQADggEPADCCAQoCggEBALYvd0TdcV5zmVJs8kFeqN+a5QqWYAtiT1n1n4uX
H2CpUsrAy0PHUlWB4TSlHNz+eD+iJRUPuRsdSwSAlmfNARtW04QwDcnjOwcuGnDw
fUHL4qvc4jdA6oeAn5EFeanHoq5B0UjgFvse/KvSwOQCnK1iyuzcuEZUGnqhsRqY
ITjxZPplN/0l+WC4XxvJho6w0Gpm0F/JjrBHylE4MgQ8pEqZMMGAImKglDuc5v8I
oCw3v6fy5a4eUnAtCeqwZhvnyVoOuNmaZhN3a0mOYqPm/yo33VdZup78ZkTQDeET
Acx9seerXdbvc3OdYCO9Dcs4XTz2ze/uZjP3XGZlqYvwT00CAwEAAaOBojCBnzAJ
BgNVHRMEAjAAMB0GA1UdDgQWBBQeZv2bl6oFMY16xGahXrxM5vunpTBRBgNVHSME
SjBIgBR6YKyeCXdW1Qe3T9D8TXMDnq2UD6EapBgwFjEUMBIGA1UEAwwLdGVhbTEx
MS1uZXSCFDZHgDKANsBfbEV2K92pJtATv97sMBMGA1UdJQQMMAoGCCsGAQUFBwMC
MAsGA1UdDwQEAwIHgDANBgkqhkiG9w0BAQsFAAOCAQEAoDJaxmteXAdN5adgyzy2
SW4PG2pKtj0KEoVFA1LWbAzT28GoDg3Z6zNMIfBb94khnvQxeg+jKPWimgf+Zf9S
QUIBpSSIPXGZH7rbdJpTsx6e6Na33NE6FUnmYeV/aCciUyOHQcYCASGN3J5COqOl
9TbhHTKVtc+PkOLIdxeIVY6uztBv08pKbIAMGGfsFMj7jN0Iweo2ye/wsv6GaoJd
/Fec6mvWV+9bjIesyhRXCPi5ldxfbnTC/KmgaGvL4E/t/bjlQ2PuV3syyon3TJSt
TScA8fR7YebyCJ1Ap9lhJB/NrWzCqya+r9gHdSYLVFKcs3PQCMc+6I6qfRi7SfYb
nw==
-----END CERTIFICATE-----
