Certificate:
    Data:
        Version: 3 (0x2)
        Serial Number:
            df:e9:f5:d4:77:0a:c7:b3:ba:ef:8f:fd:5b:90:dc:e1
        Signature Algorithm: sha256WithRSAEncryption
        Issuer: CN=team111-net
        Validity
            Not Before: Nov  3 20:41:08 2023 GMT
            Not After : Oct 18 20:41:08 2026 GMT
        Subject: CN=team111-client
        Subject Public Key Info:
            Public Key Algorithm: rsaEncryption
                Public-Key: (2048 bit)
                Modulus:
                    00:b7:9b:e6:b6:bc:11:b8:eb:c5:c0:d8:c7:d9:1a:
                    d2:6a:95:dd:9d:eb:6a:50:b4:99:bc:87:61:65:90:
                    c4:cd:42:07:2a:ac:bc:1c:68:46:54:b1:48:40:ad:
                    5c:2a:06:6b:90:18:be:1b:e8:8b:f4:26:b7:21:e6:
                    7e:34:29:ac:1c:34:c9:a8:b6:10:8a:5b:69:9e:dd:
                    ab:27:2f:ad:31:74:e5:b5:29:19:05:09:d2:b6:4f:
                    a0:cf:4c:6c:f9:b9:eb:e6:3b:0d:b2:9d:e0:01:ba:
                    5c:35:8d:a2:16:6f:27:1f:23:35:c0:3b:17:bf:86:
                    08:51:b3:7e:18:81:c3:35:4c:89:22:eb:28:5b:65:
                    ef:7a:b4:ad:fb:65:79:79:b3:65:2e:9c:85:ae:8f:
                    a0:ca:e5:c8:f0:32:6a:92:d9:5d:d0:48:dc:66:c5:
                    c6:0f:ae:58:35:12:75:e8:f5:8c:fe:23:3c:15:8e:
                    44:74:33:e2:19:69:f2:34:c6:83:79:0c:0a:be:0a:
                    5f:3f:81:9f:de:38:d8:6d:ab:70:bf:e9:a1:54:f4:
                    d9:c1:22:33:a4:f0:7f:8e:f6:d2:48:db:6f:d6:e4:
                    d3:89:8b:ca:58:6d:b8:34:4c:ee:67:e2:a8:9b:ad:
                    32:86:6c:a7:8d:d5:a8:54:f3:53:6d:0f:7d:0e:db:
                    1b:57
                Exponent: 65537 (0x10001)
        X509v3 extensions:
            X509v3 Basic Constraints: 
                CA:FALSE
            X509v3 Subject Key Identifier: 
                34:7E:DA:CE:E5:CC:AF:18:F7:4C:91:7E:BC:72:C4:48:5A:C9:C3:DC
            X509v3 Authority Key Identifier: 
                keyid:26:CC:1C:27:44:8D:3C:95:36:99:28:B8:6B:15:B8:C4:1E:70:41:2C
                DirName:/CN=team111-net
                serial:45:32:8C:30:47:D0:B8:B6:A5:82:AF:42:E8:CB:A2:50:9F:C6:95:07
            X509v3 Extended Key Usage: 
                TLS Web Client Authentication
            X509v3 Key Usage: 
                Digital Signature
    Signature Algorithm: sha256WithRSAEncryption
    Signature Value:
        7c:5b:69:da:1a:1a:b9:e3:dd:92:39:17:fe:96:74:c8:35:df:
        ce:f7:7a:1e:67:97:1e:7b:2b:e9:dc:5e:4d:70:2f:2e:4d:4d:
        90:17:6c:ce:3f:38:f8:17:18:e0:a9:56:6c:78:f0:11:af:6d:
        50:4d:6a:b7:d4:05:d4:b3:df:34:9a:bc:25:20:da:8c:16:94:
        ea:cd:77:10:02:03:8f:f3:cb:97:4b:60:28:10:98:b5:d6:06:
        28:1c:99:61:c0:f2:cf:89:4a:ad:ce:8d:52:76:54:08:3d:33:
        eb:d6:44:d8:9f:21:43:00:ac:e1:cd:93:63:64:25:66:cf:0c:
        d6:a0:19:b3:46:4c:dc:7f:9b:37:7e:7b:42:1d:20:e5:8e:47:
        ed:1d:d7:64:95:fe:95:f3:9a:69:19:b5:f3:bf:26:9c:4a:16:
        73:75:d3:41:85:1e:a1:6f:18:ba:90:92:66:83:34:a7:e0:89:
        32:57:35:6b:f9:b0:04:23:81:07:d5:a0:a7:e4:94:8a:42:4c:
        04:b3:11:bb:2f:ea:2f:48:4d:69:09:87:a6:6b:37:2d:04:3c:
        0f:f4:45:bd:7e:ab:b8:e6:7c:34:68:62:99:9d:53:a6:81:99:
        87:4a:e5:a4:c1:11:db:f6:40:dc:51:c0:3a:1f:2a:f7:c1:7d:
        fa:7a:67:e8
-----BEGIN CERTIFICATE-----
MIIDXTCCAkWgAwIBAgIRAN/p9dR3Csezuu+P/VuQ3OEwDQYJKoZIhvcNAQELBQAw
FjEUMBIGA1UEAwwLdGVhbTExMS1uZXQwHhcNMjMxMTAzMjA0MTA4WhcNMjYxMDE4
MjA0MTA4WjAZMRcwFQYDVQQDDA50ZWFtMTExLWNsaWVudDCCASIwDQYJKoZIhvcN
AQEBBQADggEPADCCAQoCggEBALeb5ra8EbjrxcDYx9ka0mqV3Z3ralC0mbyHYWWQ
xM1CByqsvBxoRlSxSECtXCoGa5AYvhvoi/QmtyHmfjQprBw0yai2EIpbaZ7dqycv
rTF05bUpGQUJ0rZPoM9MbPm56+Y7DbKd4AG6XDWNohZvJx8jNcA7F7+GCFGzfhiB
wzVMiSLrKFtl73q0rftleXmzZS6cha6PoMrlyPAyapLZXdBI3GbFxg+uWDUSdej1
jP4jPBWORHQz4hlp8jTGg3kMCr4KXz+Bn9442G2rcL/poVT02cEiM6Twf4720kjb
b9bk04mLylhtuDRM7mfiqJutMoZsp43VqFTzU20PfQ7bG1cCAwEAAaOBojCBnzAJ
BgNVHRMEAjAAMB0GA1UdDgQWBBQ0ftrO5cyvGPdMkX68csRIWsnD3DBRBgNVHSME
SjBIgBQmzBwnRI08lTaZKLhrFbjEHnBBLKEapBgwFjEUMBIGA1UEAwwLdGVhbTEx
MS1uZXSCFEUyjDBH0Li2pYKvQujLolCfxpUHMBMGA1UdJQQMMAoGCCsGAQUFBwMC
MAsGA1UdDwQEAwIHgDANBgkqhkiG9w0BAQsFAAOCAQEAfFtp2hoauePdkjkX/pZ0
yDXfzvd6HmeXHnsr6dxeTXAvLk1NkBdszj84+BcY4KlWbHjwEa9tUE1qt9QF1LPf
NJq8JSDajBaU6s13EAIDj/PLl0tgKBCYtdYGKByZYcDyz4lKrc6NUnZUCD0z69ZE
2J8hQwCs4c2TY2QlZs8M1qAZs0ZM3H+bN357Qh0g5Y5H7R3XZJX+lfOaaRm1878m
nEoWc3XTQYUeoW8YupCSZoM0p+CJMlc1a/mwBCOBB9Wgp+SUikJMBLMRuy/qL0hN
aQmHpms3LQQ8D/RFvX6ruOZ8NGhimZ1TpoGZh0rlpMER2/ZA3FHAOh8q98F9+npn
6A==
-----END CERTIFICATE-----
