Certificate:
    Data:
        Version: 3 (0x2)
        Serial Number:
            05:84:73:68:5f:57:53:c7:60:ae:64:4b:63:d8:d4:1f
        Signature Algorithm: sha256WithRSAEncryption
        Issuer: CN=team378-net
        Validity
            Not Before: Nov  4 10:47:29 2023 GMT
            Not After : Oct 19 10:47:29 2026 GMT
        Subject: CN=team378-client
        Subject Public Key Info:
            Public Key Algorithm: rsaEncryption
                Public-Key: (2048 bit)
                Modulus:
                    00:c7:70:d6:de:4a:e3:f4:59:9c:d2:c0:a7:f5:1c:
                    31:f3:df:cd:05:62:71:88:60:29:97:4d:8b:62:77:
                    9f:d0:ab:58:cf:8f:16:7a:5d:08:ec:f0:b8:66:79:
                    34:c6:3a:8a:b9:ff:aa:9f:6b:28:85:b5:a5:37:bf:
                    e6:9f:7c:10:27:3c:e9:8e:67:80:9d:a1:87:5c:6d:
                    51:e7:ae:b7:f2:30:70:ac:7e:1c:99:f0:f4:ef:ba:
                    af:10:62:6e:57:16:64:1c:91:95:41:6c:fd:48:0b:
                    3b:a1:0a:db:9f:83:ca:56:ff:60:f8:44:c3:4d:a3:
                    aa:0f:25:41:1e:e1:9f:5c:77:25:e8:2f:31:6a:6a:
                    e4:b9:37:f5:e5:78:d2:cf:9f:1e:90:46:a2:37:7f:
                    6e:f5:15:de:56:04:8e:35:1e:1d:e1:84:f3:41:00:
                    ca:b9:b7:c8:cb:ea:de:4e:32:8f:98:94:6a:3c:eb:
                    58:26:29:db:65:a8:66:80:bd:7e:7c:f0:9c:2e:86:
                    ef:34:5a:52:23:cd:a4:45:64:9e:ab:9f:e1:25:d6:
                    fc:57:e2:42:48:35:67:df:32:3e:6e:dc:33:b8:44:
                    54:62:e1:79:06:f6:9c:6c:db:75:6d:a5:92:70:18:
                    23:7e:fc:f0:83:cb:06:77:d0:88:42:d7:a1:6a:ec:
                    af:ad
                Exponent: 65537 (0x10001)
        X509v3 extensions:
            X509v3 Basic Constraints: 
                CA:FALSE
            X509v3 Subject Key Identifier: 
                4A:5F:E5:5B:39:9E:F7:CB:62:14:73:9F:90:1C:82:FC:64:D7:A8:7B
            X509v3 Authority Key Identifier: 
                keyid:D3:4D:63:0F:4F:E9:65:1D:95:CF:EC:EC:B8:64:38:C2:6B:B2:65:53
                DirName:/CN=team378-net
                serial:06:9A:A2:A0:44:A9:D0:25:12:74:2A:3E:FF:56:8E:53:08:25:86:A6
            X509v3 Extended Key Usage: 
                TLS Web Client Authentication
            X509v3 Key Usage: 
                Digital Signature
    Signature Algorithm: sha256WithRSAEncryption
    Signature Value:
        09:41:2d:a9:02:0f:3f:dc:42:50:1f:01:19:03:76:5e:5b:8c:
        8f:e9:a5:fd:fb:0a:7e:14:fc:89:2b:9c:cb:54:ee:aa:06:af:
        cf:3b:41:c0:02:0d:14:dc:d0:ef:94:d0:33:60:ae:bc:9f:9e:
        ae:31:fa:71:34:3f:1d:66:db:a9:69:a8:a0:eb:5b:84:17:65:
        03:27:d0:8c:bc:b7:8a:ba:9c:87:a2:5e:f4:ca:7d:a4:bd:36:
        d2:55:86:76:80:29:2d:ac:e4:a6:b1:54:6c:0d:23:36:f4:eb:
        f8:26:cb:50:e2:16:3f:b2:4a:2f:91:41:55:29:64:c8:86:4f:
        67:4f:6c:7d:97:48:b8:c2:d1:02:87:04:04:db:19:cc:03:f7:
        65:22:e3:c8:f9:ea:8b:37:fd:e6:c6:8e:37:8d:82:05:38:8b:
        07:20:c8:93:59:62:c7:9f:46:27:e6:19:1f:65:98:cc:fb:2c:
        fd:44:5e:19:31:85:23:61:23:8e:d9:1a:49:1e:1e:a0:7d:49:
        90:38:ad:6e:a9:eb:a8:5d:17:3f:ee:bf:33:42:0e:8e:88:26:
        1d:4c:4e:d9:b2:ff:e2:a7:54:b2:82:97:b0:00:00:c4:08:f6:
        d7:dc:02:eb:80:3f:1d:9d:7b:e3:47:df:5c:03:0a:c7:0a:bf:
        b6:2d:0f:f1
-----BEGIN CERTIFICATE-----
MIIDXDCCAkSgAwIBAgIQBYRzaF9XU8dgrmRLY9jUHzANBgkqhkiG9w0BAQsFADAW
MRQwEgYDVQQDDAt0ZWFtMzc4LW5ldDAeFw0yMzExMDQxMDQ3MjlaFw0yNjEwMTkx
MDQ3MjlaMBkxFzAVBgNVBAMMDnRlYW0zNzgtY2xpZW50MIIBIjANBgkqhkiG9w0B
AQEFAAOCAQ8AMIIBCgKCAQEAx3DW3krj9Fmc0sCn9Rwx89/NBWJxiGApl02LYnef
0KtYz48Wel0I7PC4Znk0xjqKuf+qn2sohbWlN7/mn3wQJzzpjmeAnaGHXG1R5663
8jBwrH4cmfD077qvEGJuVxZkHJGVQWz9SAs7oQrbn4PKVv9g+ETDTaOqDyVBHuGf
XHcl6C8xamrkuTf15XjSz58ekEaiN39u9RXeVgSONR4d4YTzQQDKubfIy+reTjKP
mJRqPOtYJinbZahmgL1+fPCcLobvNFpSI82kRWSeq5/hJdb8V+JCSDVn3zI+btwz
uERUYuF5BvacbNt1baWScBgjfvzwg8sGd9CIQtehauyvrQIDAQABo4GiMIGfMAkG
A1UdEwQCMAAwHQYDVR0OBBYEFEpf5Vs5nvfLYhRzn5Acgvxk16h7MFEGA1UdIwRK
MEiAFNNNYw9P6WUdlc/s7LhkOMJrsmVToRqkGDAWMRQwEgYDVQQDDAt0ZWFtMzc4
LW5ldIIUBpqioESp0CUSdCo+/1aOUwglhqYwEwYDVR0lBAwwCgYIKwYBBQUHAwIw
CwYDVR0PBAQDAgeAMA0GCSqGSIb3DQEBCwUAA4IBAQAJQS2pAg8/3EJQHwEZA3Ze
W4yP6aX9+wp+FPyJK5zLVO6qBq/PO0HAAg0U3NDvlNAzYK68n56uMfpxND8dZtup
aaig61uEF2UDJ9CMvLeKupyHol70yn2kvTbSVYZ2gCktrOSmsVRsDSM29Ov4JstQ
4hY/skovkUFVKWTIhk9nT2x9l0i4wtEChwQE2xnMA/dlIuPI+eqLN/3mxo43jYIF
OIsHIMiTWWLHn0Yn5hkfZZjM+yz9RF4ZMYUjYSOO2RpJHh6gfUmQOK1uqeuoXRc/
7r8zQg6OiCYdTE7Zsv/ip1SygpewAADECPbX3ALrgD8dnXvjR99cAwrHCr+2LQ/x
-----END CERTIFICATE-----
