Certificate:
    Data:
        Version: 3 (0x2)
        Serial Number:
            33:e6:48:14:44:3d:80:3f:8e:5c:1d:a2:e0:83:08:4d
        Signature Algorithm: sha256WithRSAEncryption
        Issuer: CN=team378-net
        Validity
            Not Before: Nov  4 11:35:58 2023 GMT
            Not After : Oct 19 11:35:58 2026 GMT
        Subject: CN=team378-client
        Subject Public Key Info:
            Public Key Algorithm: rsaEncryption
                Public-Key: (2048 bit)
                Modulus:
                    00:b8:2b:dd:5c:81:37:89:97:ca:6b:21:6c:ba:0a:
                    10:44:ec:24:24:32:8e:16:f1:2b:b7:1c:03:56:41:
                    03:35:41:71:0e:f7:4c:98:af:88:8f:40:17:75:8a:
                    7d:7f:89:cf:08:02:b5:b5:5b:b6:4d:83:07:d3:0a:
                    90:cd:fd:6a:9b:83:db:85:e7:7f:09:09:eb:ef:12:
                    c2:a3:ae:90:bb:70:46:00:58:2d:6e:4a:06:64:1c:
                    43:2b:e5:03:3c:56:0f:0b:2c:0d:dc:fa:a6:2f:5f:
                    24:eb:28:cb:18:5e:76:33:1c:e1:bd:d3:95:d9:40:
                    6d:78:02:2d:96:df:78:bb:e1:91:b0:02:9d:90:32:
                    22:0b:e1:20:fa:ba:63:50:21:a6:5c:2e:5c:cf:33:
                    c4:3b:ee:03:c7:42:2d:72:20:86:67:0e:1c:b5:a7:
                    b6:b0:14:6d:c7:ad:5d:22:50:41:7b:bb:e1:1a:fc:
                    e4:c0:04:33:e5:1e:15:18:16:c3:e6:d0:02:b7:f9:
                    d4:d8:3e:3a:a2:8d:85:ed:f8:fd:ba:a3:bd:03:45:
                    ea:e4:f6:20:ea:2e:d1:b5:19:8c:a3:d5:bb:b8:07:
                    8e:b1:5a:15:ab:97:98:4b:39:a5:e4:b1:90:ce:79:
                    a8:8b:89:54:e8:90:f0:7d:22:2c:12:8b:56:3a:b0:
                    c7:29
                Exponent: 65537 (0x10001)
        X509v3 extensions:
            X509v3 Basic Constraints: 
                CA:FALSE
            X509v3 Subject Key Identifier: 
                92:75:61:A5:F2:D8:C8:74:0C:38:95:7A:27:77:DC:81:EF:C7:F8:65
            X509v3 Authority Key Identifier: 
                keyid:94:A8:7D:F6:94:05:F1:75:E7:21:26:77:31:D6:7F:B5:92:28:10:1B
                DirName:/CN=team378-net
                serial:26:7E:5B:38:22:80:BD:C7:F6:4D:D3:D6:50:29:82:E8:8B:2E:BC:3A
            X509v3 Extended Key Usage: 
                TLS Web Client Authentication
            X509v3 Key Usage: 
                Digital Signature
    Signature Algorithm: sha256WithRSAEncryption
    Signature Value:
        05:cc:74:a3:ba:da:92:56:15:58:05:4b:5a:86:1c:86:78:45:
        57:1c:0a:41:76:c6:9b:69:2a:c0:09:20:5d:37:25:75:b6:3e:
        c4:d2:6a:d8:66:02:ab:dd:c5:b1:c1:69:ad:c0:26:34:28:6a:
        d3:a0:81:7d:18:16:d1:cd:f3:76:8d:24:92:02:06:5d:fe:c1:
        e6:cc:a5:b5:fa:81:42:7b:84:9d:23:b5:54:87:34:ca:a8:5a:
        f1:4f:a7:6a:bb:84:a6:01:be:2b:ce:fb:32:7a:2b:1c:1d:ff:
        bf:91:07:1a:0c:96:4d:4b:3f:49:03:83:56:7e:31:50:92:af:
        98:3f:fd:26:38:15:f3:c2:02:86:ba:60:80:71:88:a9:0c:c3:
        10:1c:eb:08:0b:ec:26:2a:13:48:03:77:68:92:da:23:da:50:
        8a:3e:c6:6b:08:29:0c:e7:01:bf:b0:74:7d:38:a9:cb:bc:29:
        10:5e:bc:d9:83:3d:b1:db:ca:7f:af:42:23:96:e1:3e:cd:87:
        a5:c5:5c:14:0f:6a:27:e4:f6:bb:5c:cd:32:a3:ee:36:96:96:
        23:17:ec:d7:3b:73:ab:f2:67:14:95:3f:29:6b:dd:94:20:db:
        2b:78:c2:f2:76:e7:4f:7c:a3:6f:b2:95:de:c5:40:ee:95:ca:
        df:df:65:d0
-----BEGIN CERTIFICATE-----
MIIDXDCCAkSgAwIBAgIQM+ZIFEQ9gD+OXB2i4IMITTANBgkqhkiG9w0BAQsFADAW
MRQwEgYDVQQDDAt0ZWFtMzc4LW5ldDAeFw0yMzExMDQxMTM1NThaFw0yNjEwMTkx
MTM1NThaMBkxFzAVBgNVBAMMDnRlYW0zNzgtY2xpZW50MIIBIjANBgkqhkiG9w0B
AQEFAAOCAQ8AMIIBCgKCAQEAuCvdXIE3iZfKayFsugoQROwkJDKOFvErtxwDVkED
NUFxDvdMmK+Ij0AXdYp9f4nPCAK1tVu2TYMH0wqQzf1qm4Pbhed/CQnr7xLCo66Q
u3BGAFgtbkoGZBxDK+UDPFYPCywN3PqmL18k6yjLGF52MxzhvdOV2UBteAItlt94
u+GRsAKdkDIiC+Eg+rpjUCGmXC5czzPEO+4Dx0ItciCGZw4ctae2sBRtx61dIlBB
e7vhGvzkwAQz5R4VGBbD5tACt/nU2D46oo2F7fj9uqO9A0Xq5PYg6i7RtRmMo9W7
uAeOsVoVq5eYSzml5LGQznmoi4lU6JDwfSIsEotWOrDHKQIDAQABo4GiMIGfMAkG
A1UdEwQCMAAwHQYDVR0OBBYEFJJ1YaXy2Mh0DDiVeid33IHvx/hlMFEGA1UdIwRK
MEiAFJSoffaUBfF15yEmdzHWf7WSKBAboRqkGDAWMRQwEgYDVQQDDAt0ZWFtMzc4
LW5ldIIUJn5bOCKAvcf2TdPWUCmC6IsuvDowEwYDVR0lBAwwCgYIKwYBBQUHAwIw
CwYDVR0PBAQDAgeAMA0GCSqGSIb3DQEBCwUAA4IBAQAFzHSjutqSVhVYBUtahhyG
eEVXHApBdsabaSrACSBdNyV1tj7E0mrYZgKr3cWxwWmtwCY0KGrToIF9GBbRzfN2
jSSSAgZd/sHmzKW1+oFCe4SdI7VUhzTKqFrxT6dqu4SmAb4rzvsyeiscHf+/kQca
DJZNSz9JA4NWfjFQkq+YP/0mOBXzwgKGumCAcYipDMMQHOsIC+wmKhNIA3doktoj
2lCKPsZrCCkM5wG/sHR9OKnLvCkQXrzZgz2x28p/r0IjluE+zYelxVwUD2on5Pa7
XM0yo+42lpYjF+zXO3Or8mcUlT8pa92UINsreMLydudPfKNvspXexUDulcrf32XQ
-----END CERTIFICATE-----
