Certificate:
    Data:
        Version: 3 (0x2)
        Serial Number:
            4d:39:7e:b8:40:9a:93:5d:c4:35:4e:c1:8a:c8:c5:db
        Signature Algorithm: sha256WithRSAEncryption
        Issuer: CN=team378-net
        Validity
            Not Before: Nov  4 11:35:59 2023 GMT
            Not After : Oct 19 11:35:59 2026 GMT
        Subject: CN=team378-server
        Subject Public Key Info:
            Public Key Algorithm: rsaEncryption
                Public-Key: (2048 bit)
                Modulus:
                    00:ce:62:0f:b7:32:a9:a5:01:8c:7e:55:25:26:cc:
                    47:6a:19:f3:a3:e0:00:ec:d8:e3:70:95:5c:aa:f9:
                    9e:86:d3:01:42:33:0e:f2:06:93:31:18:c1:50:03:
                    0e:36:48:5c:04:78:ba:75:d7:6e:6a:d6:c8:0b:ee:
                    82:a0:54:22:50:d7:fd:74:58:7c:ea:3c:a8:77:9d:
                    67:22:c0:d8:28:6e:36:52:43:0b:95:15:d0:71:7a:
                    0c:95:e0:1f:48:b7:16:16:c2:7b:27:fa:0c:ea:82:
                    84:a6:e7:a0:5b:30:61:ee:7f:c8:da:15:8c:de:65:
                    6d:ab:4b:17:0a:64:36:1f:bd:c0:14:f0:52:a2:5b:
                    e8:4a:5b:2c:6f:20:41:66:aa:95:4d:26:fb:f4:9b:
                    d4:5c:50:f6:dd:aa:51:b2:71:81:50:cf:2c:72:0f:
                    90:77:3d:e8:2e:fd:f9:37:e6:6c:aa:7e:06:d3:2f:
                    4a:93:3e:83:78:f2:d3:e2:58:80:f3:dd:11:03:0a:
                    a4:6a:e7:c8:5a:34:46:c4:25:a4:96:a1:53:d0:b3:
                    f6:d8:57:cf:08:ce:b4:b0:06:e7:f7:77:3d:2e:ac:
                    d8:8e:18:87:a2:8f:9c:2f:00:d2:d8:fe:68:36:59:
                    08:ff:32:6c:80:15:e0:31:75:c6:ef:0d:e3:31:d9:
                    90:71
                Exponent: 65537 (0x10001)
        X509v3 extensions:
            X509v3 Basic Constraints: 
                CA:FALSE
            X509v3 Subject Key Identifier: 
                FC:0A:B5:81:49:E6:24:EB:97:17:B1:4B:6E:88:15:75:09:88:9C:E3
            X509v3 Authority Key Identifier: 
                keyid:94:A8:7D:F6:94:05:F1:75:E7:21:26:77:31:D6:7F:B5:92:28:10:1B
                DirName:/CN=team378-net
                serial:26:7E:5B:38:22:80:BD:C7:F6:4D:D3:D6:50:29:82:E8:8B:2E:BC:3A
            X509v3 Extended Key Usage: 
                TLS Web Server Authentication
            X509v3 Key Usage: 
                Digital Signature, Key Encipherment
            X509v3 Subject Alternative Name: 
                DNS:team378-server
    Signature Algorithm: sha256WithRSAEncryption
    Signature Value:
        3e:65:d5:20:62:86:5f:6f:e6:e7:76:83:94:77:7e:c6:49:ca:
        18:4f:00:08:b6:91:d3:c7:07:ca:01:7b:e1:5b:91:0a:3d:fd:
        42:35:41:9a:d1:91:06:8b:29:43:1f:b1:29:92:0c:e0:ba:2b:
        a8:b8:c9:88:9a:19:d8:f1:88:05:74:19:36:ac:42:ff:91:41:
        e0:54:71:f6:fe:94:5e:64:42:21:65:15:05:ec:11:f0:3e:f5:
        e1:3e:e5:71:da:6e:9d:7b:c5:b3:c1:52:a9:95:86:52:54:54:
        b6:9c:60:98:00:95:79:31:34:61:17:dd:45:c6:b2:66:3c:44:
        84:4b:88:86:5a:b5:3a:71:1e:1a:41:47:cf:91:98:3c:29:68:
        76:81:22:08:63:27:90:7d:bf:b2:0f:2f:99:9b:54:69:b8:f0:
        cc:bb:9a:ae:74:69:be:06:f3:01:94:e3:67:1e:ea:30:a3:27:
        eb:e1:c1:6a:a4:ad:d6:0e:71:ce:bc:cd:d1:fe:2f:e4:07:46:
        4d:7a:0a:96:34:00:8c:87:a5:16:a9:ac:d1:2f:13:c5:36:9a:
        84:3f:b1:c8:c4:e9:c9:27:22:95:da:a4:eb:ae:45:71:57:82:
        03:d3:2e:96:91:a6:21:ae:6e:16:6e:ce:14:d0:50:3f:98:f7:
        e0:e3:9b:97
-----BEGIN CERTIFICATE-----
MIIDdzCCAl+gAwIBAgIQTTl+uECak13ENU7BisjF2zANBgkqhkiG9w0BAQsFADAW
MRQwEgYDVQQDDAt0ZWFtMzc4LW5ldDAeFw0yMzExMDQxMTM1NTlaFw0yNjEwMTkx
MTM1NTlaMBkxFzAVBgNVBAMMDnRlYW0zNzgtc2VydmVyMIIBIjANBgkqhkiG9w0B
AQEFAAOCAQ8AMIIBCgKCAQEAzmIPtzKppQGMflUlJsxHahnzo+AA7NjjcJVcqvme
htMBQjMO8gaTMRjBUAMONkhcBHi6ddduatbIC+6CoFQiUNf9dFh86jyod51nIsDY
KG42UkMLlRXQcXoMleAfSLcWFsJ7J/oM6oKEpuegWzBh7n/I2hWM3mVtq0sXCmQ2
H73AFPBSolvoSlssbyBBZqqVTSb79JvUXFD23apRsnGBUM8scg+Qdz3oLv35N+Zs
qn4G0y9Kkz6DePLT4liA890RAwqkaufIWjRGxCWklqFT0LP22FfPCM60sAbn93c9
LqzYjhiHoo+cLwDS2P5oNlkI/zJsgBXgMXXG7w3jMdmQcQIDAQABo4G9MIG6MAkG
A1UdEwQCMAAwHQYDVR0OBBYEFPwKtYFJ5iTrlxexS26IFXUJiJzjMFEGA1UdIwRK
MEiAFJSoffaUBfF15yEmdzHWf7WSKBAboRqkGDAWMRQwEgYDVQQDDAt0ZWFtMzc4
LW5ldIIUJn5bOCKAvcf2TdPWUCmC6IsuvDowEwYDVR0lBAwwCgYIKwYBBQUHAwEw
CwYDVR0PBAQDAgWgMBkGA1UdEQQSMBCCDnRlYW0zNzgtc2VydmVyMA0GCSqGSIb3
DQEBCwUAA4IBAQA+ZdUgYoZfb+bndoOUd37GScoYTwAItpHTxwfKAXvhW5EKPf1C
NUGa0ZEGiylDH7EpkgzguiuouMmImhnY8YgFdBk2rEL/kUHgVHH2/pReZEIhZRUF
7BHwPvXhPuVx2m6de8WzwVKplYZSVFS2nGCYAJV5MTRhF91FxrJmPESES4iGWrU6
cR4aQUfPkZg8KWh2gSIIYyeQfb+yDy+Zm1RpuPDMu5qudGm+BvMBlONnHuowoyfr
4cFqpK3WDnHOvM3R/i/kB0ZNegqWNACMh6UWqazRLxPFNpqEP7HIxOnJJyKV2qTr
rkVxV4ID0y6WkaYhrm4Wbs4U0FA/mPfg45uX
-----END CERTIFICATE-----
