Certificate:
    Data:
        Version: 3 (0x2)
        Serial Number:
            c2:d7:ff:e8:e2:69:cb:57:e0:22:39:8e:a6:b7:78:aa
        Signature Algorithm: sha256WithRSAEncryption
        Issuer: CN=team378-net
        Validity
            Not Before: Nov  4 10:47:29 2023 GMT
            Not After : Oct 19 10:47:29 2026 GMT
        Subject: CN=team378-server
        Subject Public Key Info:
            Public Key Algorithm: rsaEncryption
                Public-Key: (2048 bit)
                Modulus:
                    00:c4:9c:51:75:29:f0:e7:05:83:a7:a6:7c:04:31:
                    46:42:73:1a:a1:ca:f6:57:4e:0a:8d:71:dc:d8:32:
                    15:3d:ba:6c:cc:9f:90:0d:5e:df:8f:ec:c8:4a:95:
                    7a:71:75:63:99:e0:0b:16:9a:72:d4:5c:e4:51:82:
                    0d:a4:bd:ec:61:a2:43:fb:f3:fa:02:6a:13:9b:fc:
                    8f:f6:54:45:b2:08:1e:03:a7:a7:23:fd:58:21:4b:
                    56:b6:68:72:99:e9:76:c6:8e:0c:a2:d8:72:af:10:
                    a8:74:6a:08:fc:63:f0:b8:4a:cf:01:26:e9:9a:a7:
                    43:f3:2c:96:b7:ec:7f:3f:c1:99:03:2c:b5:5e:ee:
                    a8:e7:c1:e2:97:4b:ea:94:35:bd:df:b7:92:2b:b8:
                    ad:23:74:fa:82:64:ab:8c:66:4f:cc:64:4c:cd:53:
                    80:8f:c3:e3:73:fa:45:00:0c:7f:ab:27:71:56:ae:
                    41:cd:f6:82:6d:8d:c0:a1:62:9d:39:4b:2e:db:19:
                    10:6f:8c:85:d5:df:20:e4:bf:bb:76:8c:8d:d9:ac:
                    3f:4b:6a:22:25:9f:58:48:1a:19:47:ac:9a:57:fc:
                    54:7d:0c:92:93:12:70:57:e6:92:f4:5b:51:1e:1e:
                    2e:f2:61:47:52:9e:44:00:8d:e4:4c:bc:b7:a3:e8:
                    b0:d5
                Exponent: 65537 (0x10001)
        X509v3 extensions:
            X509v3 Basic Constraints: 
                CA:FALSE
            X509v3 Subject Key Identifier: 
                0F:26:65:69:57:CC:51:AF:24:16:06:41:FE:CA:86:15:0B:7A:3F:D8
            X509v3 Authority Key Identifier: 
                keyid:D3:4D:63:0F:4F:E9:65:1D:95:CF:EC:EC:B8:64:38:C2:6B:B2:65:53
                DirName:/CN=team378-net
                serial:06:9A:A2:A0:44:A9:D0:25:12:74:2A:3E:FF:56:8E:53:08:25:86:A6
            X509v3 Extended Key Usage: 
                TLS Web Server Authentication
            X509v3 Key Usage: 
                Digital Signature, Key Encipherment
            X509v3 Subject Alternative Name: 
                DNS:team378-server
    Signature Algorithm: sha256WithRSAEncryption
    Signature Value:
        91:29:18:94:f2:9a:f7:c7:94:19:c8:a2:57:04:db:95:d3:bf:
        06:0f:bf:bb:9d:21:24:e3:e7:88:c6:63:da:71:80:f0:bb:2a:
        3e:f1:4d:50:7b:a7:9f:22:25:48:27:4e:33:b2:54:bc:4b:a2:
        99:bb:4c:10:a8:14:a4:28:9e:3e:9d:70:28:3e:88:8d:be:52:
        d8:37:bc:2f:8b:49:5b:c9:b6:df:de:c2:77:52:d1:2b:ce:bb:
        a1:d5:6a:88:6e:b5:8c:b0:c2:79:40:7d:e4:c0:e8:69:74:0e:
        cb:cd:f3:a1:dd:ee:28:a8:9f:5a:a7:db:73:27:dc:3b:00:a8:
        82:23:9c:63:dc:5c:26:e9:d4:e5:4e:b2:13:e1:ea:5c:e6:44:
        69:e6:a2:af:88:a5:0d:02:6e:32:7b:45:f1:5b:23:e5:06:a9:
        1e:7f:73:eb:7c:09:a8:78:8b:1b:10:59:5d:f0:c7:09:d7:c7:
        68:87:40:a6:0b:d1:ae:39:30:37:3d:45:dc:28:36:47:27:9d:
        17:fa:d3:b6:4f:03:03:96:3d:e1:4a:af:a4:b1:f3:e9:47:a5:
        91:13:21:a6:65:f5:d1:6e:df:c1:b8:0c:e0:ef:0f:dc:ef:42:
        02:5e:c9:37:9c:90:5a:5f:80:02:7d:7d:58:ce:c6:69:fe:35:
        be:fe:fa:0f
-----BEGIN CERTIFICATE-----
MIIDeDCCAmCgAwIBAgIRAMLX/+jiactX4CI5jqa3eKowDQYJKoZIhvcNAQELBQAw
FjEUMBIGA1UEAwwLdGVhbTM3OC1uZXQwHhcNMjMxMTA0MTA0NzI5WhcNMjYxMDE5
MTA0NzI5WjAZMRcwFQYDVQQDDA50ZWFtMzc4LXNlcnZlcjCCASIwDQYJKoZIhvcN
AQEBBQADggEPADCCAQoCggEBAMScUXUp8OcFg6emfAQxRkJzGqHK9ldOCo1x3Ngy
FT26bMyfkA1e34/syEqVenF1Y5ngCxaactRc5FGCDaS97GGiQ/vz+gJqE5v8j/ZU
RbIIHgOnpyP9WCFLVrZocpnpdsaODKLYcq8QqHRqCPxj8LhKzwEm6ZqnQ/Mslrfs
fz/BmQMstV7uqOfB4pdL6pQ1vd+3kiu4rSN0+oJkq4xmT8xkTM1TgI/D43P6RQAM
f6sncVauQc32gm2NwKFinTlLLtsZEG+MhdXfIOS/u3aMjdmsP0tqIiWfWEgaGUes
mlf8VH0MkpMScFfmkvRbUR4eLvJhR1KeRACN5Ey8t6PosNUCAwEAAaOBvTCBujAJ
BgNVHRMEAjAAMB0GA1UdDgQWBBQPJmVpV8xRryQWBkH+yoYVC3o/2DBRBgNVHSME
SjBIgBTTTWMPT+llHZXP7Oy4ZDjCa7JlU6EapBgwFjEUMBIGA1UEAwwLdGVhbTM3
OC1uZXSCFAaaoqBEqdAlEnQqPv9WjlMIJYamMBMGA1UdJQQMMAoGCCsGAQUFBwMB
MAsGA1UdDwQEAwIFoDAZBgNVHREEEjAQgg50ZWFtMzc4LXNlcnZlcjANBgkqhkiG
9w0BAQsFAAOCAQEAkSkYlPKa98eUGciiVwTbldO/Bg+/u50hJOPniMZj2nGA8Lsq
PvFNUHunnyIlSCdOM7JUvEuimbtMEKgUpCiePp1wKD6Ijb5S2De8L4tJW8m2397C
d1LRK867odVqiG61jLDCeUB95MDoaXQOy83zod3uKKifWqfbcyfcOwCogiOcY9xc
JunU5U6yE+HqXOZEaeair4ilDQJuMntF8Vsj5QapHn9z63wJqHiLGxBZXfDHCdfH
aIdApgvRrjkwNz1F3Cg2RyedF/rTtk8DA5Y94UqvpLHz6UelkRMhpmX10W7fwbgM
4O8P3O9CAl7JN5yQWl+AAn19WM7Gaf41vv76Dw==
-----END CERTIFICATE-----
