Certificate:
    Data:
        Version: 3 (0x2)
        Serial Number:
            e2:a0:b0:3d:03:56:af:f9:52:e7:72:bc:c2:31:d8:fc
        Signature Algorithm: sha256WithRSAEncryption
        Issuer: CN=team378-net
        Validity
            Not Before: Nov  3 20:46:05 2023 GMT
            Not After : Oct 18 20:46:05 2026 GMT
        Subject: CN=team378-client
        Subject Public Key Info:
            Public Key Algorithm: rsaEncryption
                Public-Key: (2048 bit)
                Modulus:
                    00:b1:6a:f3:87:06:a0:79:4d:4f:cf:a0:2c:e5:84:
                    76:a1:7f:35:20:73:3d:0b:75:3e:0b:15:89:c8:25:
                    63:d9:9c:1d:7c:bf:23:8b:1b:15:aa:d9:29:3b:cd:
                    22:ad:db:3a:79:c2:72:8a:7a:37:6e:18:dc:de:eb:
                    b3:52:09:8b:5a:62:8e:52:54:2b:d3:7d:45:f2:56:
                    c7:54:0a:47:a5:83:2f:5b:bf:c0:3d:b0:8a:a6:31:
                    0b:f6:8a:35:af:cb:d6:7a:5f:af:c4:b8:0c:e7:52:
                    cb:f3:bb:c6:2a:af:ab:78:75:09:88:de:95:28:a0:
                    87:c3:a0:4e:83:e4:20:33:15:68:dc:96:fa:27:61:
                    68:57:35:89:21:4f:f8:1c:36:86:56:16:7b:a5:e3:
                    99:2c:b0:8e:fd:e3:52:84:62:58:cd:30:44:f6:87:
                    ab:6e:4e:e5:c2:a2:02:bf:96:26:62:3b:ad:44:3c:
                    57:25:84:01:ae:a4:b3:21:4f:84:4c:3b:a1:36:f9:
                    6b:c0:f3:50:ab:3a:5c:26:4c:a3:f3:93:fa:ea:47:
                    cd:45:08:6d:e5:ae:87:28:98:01:43:24:70:f0:81:
                    f4:30:58:14:4e:d8:ca:8d:a1:73:e1:d4:4f:24:99:
                    24:88:49:2e:aa:a8:be:37:d7:31:7f:ad:4f:fe:5d:
                    72:b7
                Exponent: 65537 (0x10001)
        X509v3 extensions:
            X509v3 Basic Constraints: 
                CA:FALSE
            X509v3 Subject Key Identifier: 
                57:2D:26:50:92:D3:B8:A9:9E:25:5E:B8:A7:11:41:F0:B8:FE:60:CA
            X509v3 Authority Key Identifier: 
                keyid:E5:6A:A9:0E:B1:F7:A6:38:93:83:1C:E3:5C:98:62:5C:2E:19:5B:A9
                DirName:/CN=team378-net
                serial:3C:54:3D:46:DB:FB:8F:CF:3D:58:67:6D:76:18:94:D6:83:6B:B1:A6
            X509v3 Extended Key Usage: 
                TLS Web Client Authentication
            X509v3 Key Usage: 
                Digital Signature
    Signature Algorithm: sha256WithRSAEncryption
    Signature Value:
        7a:3a:23:0a:f8:d1:13:8f:a7:1a:14:1d:16:5b:76:52:3b:e8:
        f1:f1:3b:9a:b8:ff:1d:df:8d:81:76:0c:bf:7d:8a:5f:65:8a:
        fc:6e:ea:c6:43:5e:84:94:08:8c:f3:6d:67:08:9e:f2:a7:b2:
        aa:58:8a:54:fd:4e:cb:13:1e:3a:76:fe:d3:b2:a5:04:c6:7f:
        ea:03:21:59:fc:3e:f1:3e:cb:8f:65:e7:2a:5c:2f:90:1f:17:
        49:f9:3e:c0:81:5d:50:54:f7:51:1b:c0:91:ba:b8:7e:21:61:
        79:27:56:2f:08:04:46:9d:f3:ad:02:18:a9:01:c9:65:9f:79:
        6f:da:2f:ab:e4:73:bc:ac:28:56:cd:06:4b:79:95:e3:3d:31:
        46:30:66:62:3c:71:16:84:4b:0b:01:fa:36:f3:6e:87:6e:04:
        d2:df:a6:1b:7f:fc:ca:21:3e:92:68:c5:a5:dc:28:7b:8c:aa:
        af:ec:a5:74:15:49:2d:31:ad:6a:32:6c:b9:af:73:a4:1e:75:
        ff:96:0c:98:41:e4:5f:0e:91:d5:f8:10:26:e0:59:59:a0:a1:
        aa:87:ec:ad:63:d4:bc:09:f8:46:e6:93:3e:c7:c6:74:d5:d8:
        8a:42:59:94:7a:5f:ce:7e:a4:a9:a4:77:09:12:80:90:e7:ea:
        3d:38:75:b6
-----BEGIN CERTIFICATE-----
MIIDXTCCAkWgAwIBAgIRAOKgsD0DVq/5UudyvMIx2PwwDQYJKoZIhvcNAQELBQAw
FjEUMBIGA1UEAwwLdGVhbTM3OC1uZXQwHhcNMjMxMTAzMjA0NjA1WhcNMjYxMDE4
MjA0NjA1WjAZMRcwFQYDVQQDDA50ZWFtMzc4LWNsaWVudDCCASIwDQYJKoZIhvcN
AQEBBQADggEPADCCAQoCggEBALFq84cGoHlNT8+gLOWEdqF/NSBzPQt1PgsVicgl
Y9mcHXy/I4sbFarZKTvNIq3bOnnCcop6N24Y3N7rs1IJi1pijlJUK9N9RfJWx1QK
R6WDL1u/wD2wiqYxC/aKNa/L1npfr8S4DOdSy/O7xiqvq3h1CYjelSigh8OgToPk
IDMVaNyW+idhaFc1iSFP+Bw2hlYWe6XjmSywjv3jUoRiWM0wRPaHq25O5cKiAr+W
JmI7rUQ8VyWEAa6ksyFPhEw7oTb5a8DzUKs6XCZMo/OT+upHzUUIbeWuhyiYAUMk
cPCB9DBYFE7Yyo2hc+HUTySZJIhJLqqovjfXMX+tT/5dcrcCAwEAAaOBojCBnzAJ
BgNVHRMEAjAAMB0GA1UdDgQWBBRXLSZQktO4qZ4lXrinEUHwuP5gyjBRBgNVHSME
SjBIgBTlaqkOsfemOJODHONcmGJcLhlbqaEapBgwFjEUMBIGA1UEAwwLdGVhbTM3
OC1uZXSCFDxUPUbb+4/PPVhnbXYYlNaDa7GmMBMGA1UdJQQMMAoGCCsGAQUFBwMC
MAsGA1UdDwQEAwIHgDANBgkqhkiG9w0BAQsFAAOCAQEAejojCvjRE4+nGhQdFlt2
Ujvo8fE7mrj/Hd+NgXYMv32KX2WK/G7qxkNehJQIjPNtZwie8qeyqliKVP1OyxMe
Onb+07KlBMZ/6gMhWfw+8T7Lj2XnKlwvkB8XSfk+wIFdUFT3URvAkbq4fiFheSdW
LwgERp3zrQIYqQHJZZ95b9ovq+RzvKwoVs0GS3mV4z0xRjBmYjxxFoRLCwH6NvNu
h24E0t+mG3/8yiE+kmjFpdwoe4yqr+yldBVJLTGtajJsua9zpB51/5YMmEHkXw6R
1fgQJuBZWaChqofsrWPUvAn4RuaTPsfGdNXYikJZlHpfzn6kqaR3CRKAkOfqPTh1
tg==
-----END CERTIFICATE-----
