Certificate:
    Data:
        Version: 3 (0x2)
        Serial Number:
            f1:2d:5c:c6:0a:75:99:91:9d:75:ab:6b:f8:d1:a8:44
        Signature Algorithm: sha256WithRSAEncryption
        Issuer: CN=team378-net
        Validity
            Not Before: Nov  3 20:46:05 2023 GMT
            Not After : Oct 18 20:46:05 2026 GMT
        Subject: CN=team378-server
        Subject Public Key Info:
            Public Key Algorithm: rsaEncryption
                Public-Key: (2048 bit)
                Modulus:
                    00:a8:4a:fe:b7:8a:f6:e6:ec:73:8f:2c:20:35:4e:
                    54:94:da:87:ac:7a:5c:8c:bd:2c:8c:a0:ba:40:9c:
                    43:24:2c:94:0d:1d:cf:3b:20:92:26:f7:7f:67:85:
                    0c:ea:c3:d3:64:f7:83:68:39:28:7c:a3:91:e5:80:
                    91:ef:e0:4b:b5:08:3e:ea:01:dd:b2:a8:52:f5:0d:
                    71:75:03:b6:94:cc:98:fb:b5:cc:c5:71:a8:20:e4:
                    d1:83:57:1d:31:25:66:35:89:cb:84:96:ad:43:4c:
                    2a:b3:fa:c9:df:db:e8:9d:81:a2:fa:e4:15:a7:85:
                    87:7c:66:c0:ac:80:f4:88:fc:b6:0f:08:3f:d5:17:
                    8b:d3:bd:80:55:46:85:ea:5d:d2:d2:e8:38:24:31:
                    32:8c:d7:7a:3f:71:ae:b6:49:15:f9:f1:4f:bd:64:
                    ce:45:9a:ac:3b:a8:53:0e:d7:22:1f:79:f9:8b:f0:
                    a9:bf:39:17:52:2c:e4:c4:c9:ec:a9:2f:06:e2:db:
                    53:4e:61:4e:ce:71:c8:23:74:4b:93:34:b1:24:43:
                    8c:7f:eb:58:6d:9f:13:17:a2:7c:1c:81:67:e2:80:
                    3b:d6:30:2a:9c:58:22:cb:ef:7e:f7:53:d9:52:da:
                    a1:39:24:55:d3:16:bc:4d:57:a0:61:e4:b5:fe:bc:
                    b7:17
                Exponent: 65537 (0x10001)
        X509v3 extensions:
            X509v3 Basic Constraints: 
                CA:FALSE
            X509v3 Subject Key Identifier: 
                F1:97:57:87:E4:02:51:CB:9D:D5:56:F0:A3:CD:59:11:67:99:3F:A7
            X509v3 Authority Key Identifier: 
                keyid:E5:6A:A9:0E:B1:F7:A6:38:93:83:1C:E3:5C:98:62:5C:2E:19:5B:A9
                DirName:/CN=team378-net
                serial:3C:54:3D:46:DB:FB:8F:CF:3D:58:67:6D:76:18:94:D6:83:6B:B1:A6
            X509v3 Extended Key Usage: 
                TLS Web Server Authentication
            X509v3 Key Usage: 
                Digital Signature, Key Encipherment
            X509v3 Subject Alternative Name: 
                DNS:team378-server
    Signature Algorithm: sha256WithRSAEncryption
    Signature Value:
        64:a6:0e:db:f1:54:05:50:6b:86:c0:4a:e4:6a:55:5b:53:fe:
        9e:4b:43:9d:d9:31:3f:87:ef:21:3c:9d:84:4c:bc:5e:4e:3d:
        ca:ad:e8:2c:cf:6f:ce:9e:81:8a:88:46:c0:49:81:41:11:da:
        cd:f6:b0:5d:30:f7:69:68:28:d3:66:ab:ab:34:98:fd:3d:24:
        2b:ab:b5:db:08:30:cb:b7:b6:20:5f:0c:b7:10:00:c4:6d:29:
        e7:ce:8b:a9:24:35:77:eb:7d:d1:c9:eb:fb:da:36:98:32:40:
        fb:db:a8:0b:4e:9d:05:e0:db:43:5a:d4:21:2d:c5:54:f1:a9:
        64:40:2f:c6:9a:94:c7:14:ee:cc:57:5a:53:0a:e8:95:1b:5f:
        b0:c4:c5:f2:a3:a0:36:32:cf:4d:53:e3:41:b8:29:20:5e:cc:
        f2:84:b5:45:63:9b:6a:78:d3:b2:7c:c4:34:49:8d:ac:fd:53:
        c1:bc:11:5e:e5:63:16:98:4b:e0:41:9b:01:09:d1:ff:5b:f4:
        c2:21:72:7f:6f:b7:00:33:96:4f:5b:38:0c:8e:cb:65:e8:45:
        dc:0e:36:23:5d:ab:07:ab:7f:87:a5:26:cc:61:49:0c:8e:a1:
        30:6d:3e:6e:20:ad:35:94:ae:dc:ef:0f:d3:a0:6c:57:00:f3:
        33:8b:53:d2
-----BEGIN CERTIFICATE-----
MIIDeDCCAmCgAwIBAgIRAPEtXMYKdZmRnXWra/jRqEQwDQYJKoZIhvcNAQELBQAw
FjEUMBIGA1UEAwwLdGVhbTM3OC1uZXQwHhcNMjMxMTAzMjA0NjA1WhcNMjYxMDE4
MjA0NjA1WjAZMRcwFQYDVQQDDA50ZWFtMzc4LXNlcnZlcjCCASIwDQYJKoZIhvcN
AQEBBQADggEPADCCAQoCggEBAKhK/reK9ubsc48sIDVOVJTah6x6XIy9LIygukCc
QyQslA0dzzsgkib3f2eFDOrD02T3g2g5KHyjkeWAke/gS7UIPuoB3bKoUvUNcXUD
tpTMmPu1zMVxqCDk0YNXHTElZjWJy4SWrUNMKrP6yd/b6J2BovrkFaeFh3xmwKyA
9Ij8tg8IP9UXi9O9gFVGhepd0tLoOCQxMozXej9xrrZJFfnxT71kzkWarDuoUw7X
Ih95+Yvwqb85F1Is5MTJ7KkvBuLbU05hTs5xyCN0S5M0sSRDjH/rWG2fExeifByB
Z+KAO9YwKpxYIsvvfvdT2VLaoTkkVdMWvE1XoGHktf68txcCAwEAAaOBvTCBujAJ
BgNVHRMEAjAAMB0GA1UdDgQWBBTxl1eH5AJRy53VVvCjzVkRZ5k/pzBRBgNVHSME
SjBIgBTlaqkOsfemOJODHONcmGJcLhlbqaEapBgwFjEUMBIGA1UEAwwLdGVhbTM3
OC1uZXSCFDxUPUbb+4/PPVhnbXYYlNaDa7GmMBMGA1UdJQQMMAoGCCsGAQUFBwMB
MAsGA1UdDwQEAwIFoDAZBgNVHREEEjAQgg50ZWFtMzc4LXNlcnZlcjANBgkqhkiG
9w0BAQsFAAOCAQEAZKYO2/FUBVBrhsBK5GpVW1P+nktDndkxP4fvITydhEy8Xk49
yq3oLM9vzp6BiohGwEmBQRHazfawXTD3aWgo02arqzSY/T0kK6u12wgwy7e2IF8M
txAAxG0p586LqSQ1d+t90cnr+9o2mDJA+9uoC06dBeDbQ1rUIS3FVPGpZEAvxpqU
xxTuzFdaUwrolRtfsMTF8qOgNjLPTVPjQbgpIF7M8oS1RWObanjTsnzENEmNrP1T
wbwRXuVjFphL4EGbAQnR/1v0wiFyf2+3ADOWT1s4DI7LZehF3A42I12rB6t/h6Um
zGFJDI6hMG0+biCtNZSu3O8P06BsVwDzM4tT0g==
-----END CERTIFICATE-----
