Certificate:
    Data:
        Version: 3 (0x2)
        Serial Number:
            39:d9:b3:67:13:84:e5:0d:a5:41:c0:16:37:b7:81:fe
        Signature Algorithm: sha256WithRSAEncryption
        Issuer: CN=team415-net
        Validity
            Not Before: Nov  3 20:46:46 2023 GMT
            Not After : Oct 18 20:46:46 2026 GMT
        Subject: CN=team415-server
        Subject Public Key Info:
            Public Key Algorithm: rsaEncryption
                Public-Key: (2048 bit)
                Modulus:
                    00:9b:d5:b2:05:a7:e5:89:70:3c:9e:88:d4:f5:01:
                    ae:b9:c2:76:99:4d:a0:c8:46:c8:b5:54:a1:18:85:
                    60:f7:d8:ec:4d:ff:a1:e8:1a:64:29:2e:07:19:7b:
                    2e:81:c1:23:0c:23:d8:95:6b:3f:f2:c5:3c:80:3a:
                    14:70:b5:9c:65:ab:8b:d1:ee:81:6d:67:e3:3b:bc:
                    06:09:7d:9c:a8:68:63:42:df:06:16:04:d6:64:be:
                    d9:28:ff:78:80:d6:69:9c:bc:90:cd:ce:41:17:9c:
                    e7:78:7c:35:54:85:bf:fc:77:b9:69:5b:70:0e:08:
                    41:4d:3a:66:67:58:de:98:b5:e9:da:87:27:3d:27:
                    e0:e7:a5:ee:6d:ec:5f:27:eb:d8:bc:c1:44:b0:f3:
                    c1:33:1b:fa:fa:3a:2b:42:07:50:67:36:66:2b:e0:
                    fa:e2:12:ec:c6:45:6f:84:72:18:42:74:8a:7e:f6:
                    b5:75:c5:74:e7:c5:9f:29:e4:a4:97:31:bd:8c:8a:
                    ca:8c:c3:c8:50:16:d2:8a:b1:97:92:dd:10:16:46:
                    15:a8:4a:3c:5d:13:db:f5:11:a9:ab:5a:4a:b7:8a:
                    d3:02:e9:e6:a0:71:e6:cc:43:ef:cc:49:a8:51:c0:
                    cd:a8:38:36:b1:7d:b4:21:e4:0f:f6:24:9f:ca:e4:
                    3d:83
                Exponent: 65537 (0x10001)
        X509v3 extensions:
            X509v3 Basic Constraints: 
                CA:FALSE
            X509v3 Subject Key Identifier: 
                15:90:B0:42:80:95:C2:BD:03:57:BC:04:93:A6:AE:FE:77:07:71:AB
            X509v3 Authority Key Identifier: 
                keyid:FF:6E:BC:D9:DF:FF:45:20:45:22:BF:3A:E3:81:58:1E:94:8F:53:A0
                DirName:/CN=team415-net
                serial:6E:E7:37:16:BA:66:35:1D:A5:19:53:9F:17:D2:A6:46:15:5C:53:7C
            X509v3 Extended Key Usage: 
                TLS Web Server Authentication
            X509v3 Key Usage: 
                Digital Signature, Key Encipherment
            X509v3 Subject Alternative Name: 
                DNS:team415-server
    Signature Algorithm: sha256WithRSAEncryption
    Signature Value:
        bb:e8:7b:85:1d:6e:10:07:ec:87:1c:3c:df:80:9d:dd:b9:a9:
        38:97:64:41:54:91:f2:7c:05:96:f6:7e:af:70:91:42:f9:70:
        0d:98:44:60:21:ad:f2:b9:02:20:b7:5b:97:6b:6e:e5:86:53:
        68:e2:07:c3:38:85:30:dd:d9:20:e5:5f:ca:08:be:ea:c8:b3:
        a9:e0:05:bb:ba:b3:d1:4a:9e:1a:cb:d9:94:2b:54:d1:95:f0:
        89:c1:77:fa:45:83:6a:74:60:0f:75:62:d4:2b:95:ca:17:a5:
        6f:77:ff:a4:ca:b7:38:4e:ed:4e:30:01:54:de:1e:c1:4e:f9:
        bf:a6:f0:ac:53:00:7e:2a:47:62:81:09:10:98:80:38:19:6a:
        15:e6:26:29:c6:d5:86:53:3a:44:4d:e3:2d:22:bb:f5:e2:20:
        bb:51:2a:bc:aa:cf:67:c1:f6:1f:82:93:c3:d5:f6:e1:7d:20:
        1f:eb:89:91:47:11:f5:d9:b9:69:12:17:37:3f:c1:56:6a:ea:
        63:e8:0e:14:b3:e1:07:0e:77:0d:49:9f:45:8c:4a:c7:3b:20:
        25:f7:30:db:cb:35:ce:9e:bc:51:6c:b6:2e:02:63:1f:ae:06:
        6f:b4:cf:bc:d6:7c:b8:b6:68:68:30:c1:d6:e9:4e:4e:de:3b:
        5f:24:88:90
-----BEGIN CERTIFICATE-----
MIIDdzCCAl+gAwIBAgIQOdmzZxOE5Q2lQcAWN7eB/jANBgkqhkiG9w0BAQsFADAW
MRQwEgYDVQQDDAt0ZWFtNDE1LW5ldDAeFw0yMzExMDMyMDQ2NDZaFw0yNjEwMTgy
MDQ2NDZaMBkxFzAVBgNVBAMMDnRlYW00MTUtc2VydmVyMIIBIjANBgkqhkiG9w0B
AQEFAAOCAQ8AMIIBCgKCAQEAm9WyBafliXA8nojU9QGuucJ2mU2gyEbItVShGIVg
99jsTf+h6BpkKS4HGXsugcEjDCPYlWs/8sU8gDoUcLWcZauL0e6BbWfjO7wGCX2c
qGhjQt8GFgTWZL7ZKP94gNZpnLyQzc5BF5zneHw1VIW//He5aVtwDghBTTpmZ1je
mLXp2ocnPSfg56XubexfJ+vYvMFEsPPBMxv6+jorQgdQZzZmK+D64hLsxkVvhHIY
QnSKfva1dcV058WfKeSklzG9jIrKjMPIUBbSirGXkt0QFkYVqEo8XRPb9RGpq1pK
t4rTAunmoHHmzEPvzEmoUcDNqDg2sX20IeQP9iSfyuQ9gwIDAQABo4G9MIG6MAkG
A1UdEwQCMAAwHQYDVR0OBBYEFBWQsEKAlcK9A1e8BJOmrv53B3GrMFEGA1UdIwRK
MEiAFP9uvNnf/0UgRSK/OuOBWB6Uj1OgoRqkGDAWMRQwEgYDVQQDDAt0ZWFtNDE1
LW5ldIIUbuc3FrpmNR2lGVOfF9KmRhVcU3wwEwYDVR0lBAwwCgYIKwYBBQUHAwEw
CwYDVR0PBAQDAgWgMBkGA1UdEQQSMBCCDnRlYW00MTUtc2VydmVyMA0GCSqGSIb3
DQEBCwUAA4IBAQC76HuFHW4QB+yHHDzfgJ3duak4l2RBVJHyfAWW9n6vcJFC+XAN
mERgIa3yuQIgt1uXa27lhlNo4gfDOIUw3dkg5V/KCL7qyLOp4AW7urPRSp4ay9mU
K1TRlfCJwXf6RYNqdGAPdWLUK5XKF6Vvd/+kyrc4Tu1OMAFU3h7BTvm/pvCsUwB+
KkdigQkQmIA4GWoV5iYpxtWGUzpETeMtIrv14iC7USq8qs9nwfYfgpPD1fbhfSAf
64mRRxH12blpEhc3P8FWaupj6A4Us+EHDncNSZ9FjErHOyAl9zDbyzXOnrxRbLYu
AmMfrgZvtM+81ny4tmhoMMHW6U5O3jtfJIiQ
-----END CERTIFICATE-----
