Certificate:
    Data:
        Version: 3 (0x2)
        Serial Number:
            b2:fe:2c:90:83:32:80:2e:64:45:5c:a8:8a:2d:94:45
        Signature Algorithm: sha256WithRSAEncryption
        Issuer: CN=team415-net
        Validity
            Not Before: Nov  4 10:48:06 2023 GMT
            Not After : Oct 19 10:48:06 2026 GMT
        Subject: CN=team415-server
        Subject Public Key Info:
            Public Key Algorithm: rsaEncryption
                Public-Key: (2048 bit)
                Modulus:
                    00:b9:74:dc:ef:94:b7:5a:7a:21:3b:34:72:d9:1b:
                    d5:6f:1e:b4:aa:1c:e0:80:fa:d7:0c:84:eb:ca:45:
                    82:7b:59:88:c4:9f:92:09:e6:98:5a:f4:d7:c5:f6:
                    a1:45:8e:87:01:cf:df:f9:5c:b7:68:e9:62:ea:b2:
                    cc:ff:3b:0c:96:c6:53:c3:24:8b:de:97:f3:83:0a:
                    14:db:f6:ae:f6:dd:e8:cf:cf:35:72:7a:52:14:f2:
                    26:96:27:47:92:f5:4d:f4:fc:3f:1c:a7:80:2f:44:
                    b5:3e:65:44:a3:76:9c:11:cc:97:89:ea:cb:32:bf:
                    52:5f:be:e8:f1:75:56:37:e3:93:d2:c4:6e:34:12:
                    dd:96:f7:69:0d:09:0f:4d:c1:db:a1:dd:33:24:07:
                    17:f2:76:e3:2f:33:4f:63:e1:88:5e:78:49:44:1a:
                    35:5f:a9:65:2a:d2:fb:6f:82:a8:e4:21:96:02:1b:
                    ac:38:1d:0a:ca:04:fc:36:6e:ce:11:b8:38:e9:12:
                    4f:fb:7c:b9:a7:c8:0f:d9:23:cd:76:a1:eb:35:37:
                    77:8d:20:9c:18:38:3b:ec:1a:35:f5:52:9e:f3:7c:
                    e5:18:4b:51:c1:cc:12:66:ef:20:7f:ad:34:1b:2d:
                    d1:ef:97:7f:5a:9f:4c:ec:99:ea:2f:0a:ad:04:f0:
                    54:cb
                Exponent: 65537 (0x10001)
        X509v3 extensions:
            X509v3 Basic Constraints: 
                CA:FALSE
            X509v3 Subject Key Identifier: 
                83:DD:88:02:42:C3:78:B1:E1:38:09:8A:34:E8:4E:71:84:3E:C9:CE
            X509v3 Authority Key Identifier: 
                keyid:81:2E:B0:0A:FE:2F:98:8E:F3:8F:89:5A:56:BA:3C:DC:44:4E:65:B0
                DirName:/CN=team415-net
                serial:7E:24:E3:64:C3:5E:F9:56:C4:08:B4:DE:42:84:02:49:8D:95:E5:94
            X509v3 Extended Key Usage: 
                TLS Web Server Authentication
            X509v3 Key Usage: 
                Digital Signature, Key Encipherment
            X509v3 Subject Alternative Name: 
                DNS:team415-server
    Signature Algorithm: sha256WithRSAEncryption
    Signature Value:
        6d:10:0e:fa:0c:5c:15:44:b6:23:37:cf:4a:67:25:0c:16:30:
        0f:42:23:db:c6:ba:5d:77:af:75:56:29:4e:4a:47:1d:07:3e:
        63:d8:91:7c:28:9a:e4:b7:b3:a7:bb:43:60:66:ad:c2:77:e4:
        ba:fe:ee:5a:74:5f:87:7a:a5:62:0a:de:96:f0:d7:7b:59:ca:
        de:7c:bb:37:92:36:e3:21:70:ea:46:e6:f8:a1:d0:6a:9b:ce:
        79:dc:f9:44:9c:0e:32:96:45:6c:6f:34:bb:e8:41:c1:4c:2e:
        0c:55:1a:a8:89:dd:c4:8d:ae:70:e6:67:aa:f7:5f:9b:eb:11:
        64:ec:c2:15:30:82:dd:e6:67:3c:e5:72:6d:ff:9d:5d:71:e2:
        0b:b1:a0:c1:67:9e:16:16:9d:ca:bf:af:4d:a2:c0:de:04:d8:
        6d:5d:b2:6f:62:64:b2:e9:c1:48:99:e1:76:37:e0:8c:35:29:
        4c:9e:02:7d:39:63:d2:8d:47:f9:36:5e:03:84:90:d3:39:e9:
        a5:07:8e:b5:a4:5c:81:36:63:f2:43:cb:b4:d3:a1:b4:bb:95:
        ed:15:c2:4b:fe:71:83:64:ea:42:70:4c:97:c2:69:a2:7b:c4:
        25:01:34:81:33:97:e5:06:14:4e:36:a6:0c:6f:6b:74:ea:cc:
        c4:fa:98:90
-----BEGIN CERTIFICATE-----
MIIDeDCCAmCgAwIBAgIRALL+LJCDMoAuZEVcqIotlEUwDQYJKoZIhvcNAQELBQAw
FjEUMBIGA1UEAwwLdGVhbTQxNS1uZXQwHhcNMjMxMTA0MTA0ODA2WhcNMjYxMDE5
MTA0ODA2WjAZMRcwFQYDVQQDDA50ZWFtNDE1LXNlcnZlcjCCASIwDQYJKoZIhvcN
AQEBBQADggEPADCCAQoCggEBALl03O+Ut1p6ITs0ctkb1W8etKoc4ID61wyE68pF
gntZiMSfkgnmmFr018X2oUWOhwHP3/lct2jpYuqyzP87DJbGU8Mki96X84MKFNv2
rvbd6M/PNXJ6UhTyJpYnR5L1TfT8PxyngC9EtT5lRKN2nBHMl4nqyzK/Ul++6PF1
Vjfjk9LEbjQS3Zb3aQ0JD03B26HdMyQHF/J24y8zT2PhiF54SUQaNV+pZSrS+2+C
qOQhlgIbrDgdCsoE/DZuzhG4OOkST/t8uafID9kjzXah6zU3d40gnBg4O+waNfVS
nvN85RhLUcHMEmbvIH+tNBst0e+Xf1qfTOyZ6i8KrQTwVMsCAwEAAaOBvTCBujAJ
BgNVHRMEAjAAMB0GA1UdDgQWBBSD3YgCQsN4seE4CYo06E5xhD7JzjBRBgNVHSME
SjBIgBSBLrAK/i+YjvOPiVpWujzcRE5lsKEapBgwFjEUMBIGA1UEAwwLdGVhbTQx
NS1uZXSCFH4k42TDXvlWxAi03kKEAkmNleWUMBMGA1UdJQQMMAoGCCsGAQUFBwMB
MAsGA1UdDwQEAwIFoDAZBgNVHREEEjAQgg50ZWFtNDE1LXNlcnZlcjANBgkqhkiG
9w0BAQsFAAOCAQEAbRAO+gxcFUS2IzfPSmclDBYwD0Ij28a6XXevdVYpTkpHHQc+
Y9iRfCia5Lezp7tDYGatwnfkuv7uWnRfh3qlYgrelvDXe1nK3ny7N5I24yFw6kbm
+KHQapvOedz5RJwOMpZFbG80u+hBwUwuDFUaqIndxI2ucOZnqvdfm+sRZOzCFTCC
3eZnPOVybf+dXXHiC7GgwWeeFhadyr+vTaLA3gTYbV2yb2JksunBSJnhdjfgjDUp
TJ4CfTlj0o1H+TZeA4SQ0znppQeOtaRcgTZj8kPLtNOhtLuV7RXCS/5xg2TqQnBM
l8JponvEJQE0gTOX5QYUTjamDG9rdOrMxPqYkA==
-----END CERTIFICATE-----
