Certificate:
    Data:
        Version: 3 (0x2)
        Serial Number:
            9c:c3:7b:59:05:9e:d6:ff:c3:95:38:2d:7e:e7:0a:0e
        Signature Algorithm: sha256WithRSAEncryption
        Issuer: CN=team84-net
        Validity
            Not Before: Nov  3 20:40:38 2023 GMT
            Not After : Oct 18 20:40:38 2026 GMT
        Subject: CN=team84-client
        Subject Public Key Info:
            Public Key Algorithm: rsaEncryption
                Public-Key: (2048 bit)
                Modulus:
                    00:e6:4e:b4:60:13:ef:62:7c:23:89:ac:e1:22:5e:
                    2f:67:aa:c1:61:64:9d:11:c3:f3:bb:a4:a4:23:95:
                    02:02:d8:a1:6e:64:c0:82:6e:d2:5d:be:df:c1:d6:
                    37:ad:19:86:a6:6a:5a:75:9d:5c:55:22:ab:16:66:
                    49:b7:a3:e7:4b:64:ef:1a:a9:90:5f:1e:b9:e0:83:
                    bb:89:4e:2b:46:2b:8a:64:45:da:ae:b3:48:02:48:
                    d0:94:6a:86:e0:4e:bb:5f:80:a9:78:16:31:b0:59:
                    74:c4:1a:55:65:39:a5:60:be:f9:10:49:03:88:f2:
                    56:2b:7a:d9:e0:e1:b9:60:74:1e:50:00:40:55:45:
                    2a:bc:17:f6:76:54:06:8d:5c:0d:08:b5:93:c9:ba:
                    5f:4b:4c:ab:25:16:0d:7d:d1:18:c9:2e:68:6b:7e:
                    65:78:27:6d:68:de:26:46:7d:46:98:d4:05:5f:4a:
                    87:bb:e1:6d:c5:63:51:11:91:58:50:e1:52:46:b2:
                    9d:97:48:32:46:0f:06:25:7a:21:fe:ad:e0:e1:64:
                    99:8c:50:cc:13:60:30:23:01:b0:df:17:ea:11:81:
                    09:1e:2d:9a:b2:2b:75:cc:3f:63:a4:ac:a0:ae:38:
                    ab:5b:72:a2:33:30:8d:17:fd:da:87:37:17:19:db:
                    90:3d
                Exponent: 65537 (0x10001)
        X509v3 extensions:
            X509v3 Basic Constraints: 
                CA:FALSE
            X509v3 Subject Key Identifier: 
                FF:0A:91:CE:1E:AE:8F:FE:F0:FD:0C:BF:6A:DA:5F:4B:F2:06:9F:C5
            X509v3 Authority Key Identifier: 
                keyid:D6:40:FD:67:9B:95:63:8F:6A:D2:13:54:C7:C5:69:A8:78:5B:2F:C4
                DirName:/CN=team84-net
                serial:50:71:C8:AD:41:85:9B:E1:33:03:42:98:9D:4F:49:C1:44:8B:2A:8E
            X509v3 Extended Key Usage: 
                TLS Web Client Authentication
            X509v3 Key Usage: 
                Digital Signature
    Signature Algorithm: sha256WithRSAEncryption
    Signature Value:
        a6:84:8d:1b:f4:b6:3a:66:2b:ee:0e:f7:93:3a:a4:25:42:e7:
        07:64:85:32:f4:33:f7:d5:67:d4:f1:42:ca:66:de:b3:e7:cf:
        be:27:81:f7:09:36:94:e5:cc:c0:09:86:6e:03:db:46:7a:d0:
        ed:c5:9f:c5:c2:b5:2c:7f:78:23:f3:82:97:19:92:17:f1:d7:
        32:79:e9:81:38:8c:20:df:4f:9d:69:e4:8e:05:36:16:8d:dc:
        28:77:26:fb:35:db:0a:ea:69:80:ad:64:1d:d3:ee:49:ab:92:
        2d:8b:f9:b9:62:82:c7:7c:e5:d0:6f:d7:b2:90:cc:14:79:58:
        86:13:cd:4d:02:c8:62:fd:2e:71:3e:18:86:c1:ac:55:33:bf:
        f8:5c:39:3e:8b:fa:b3:10:0b:87:03:30:02:64:4b:65:a8:36:
        72:bd:b3:09:ee:e3:79:1d:72:a6:24:eb:25:bb:71:01:3d:f1:
        66:e6:bf:f9:e9:fb:3d:6b:62:db:3f:ec:67:f2:36:e7:4a:c0:
        21:4d:94:46:97:af:cb:7e:56:31:26:d8:cb:3f:70:36:b8:81:
        b5:62:16:16:80:40:a0:07:d6:b5:4d:2d:37:e6:e9:a6:fb:91:
        c3:c7:bb:da:04:13:ca:52:47:08:1a:21:fc:66:66:ba:a9:f1:
        73:14:a2:d7
-----BEGIN CERTIFICATE-----
MIIDWjCCAkKgAwIBAgIRAJzDe1kFntb/w5U4LX7nCg4wDQYJKoZIhvcNAQELBQAw
FTETMBEGA1UEAwwKdGVhbTg0LW5ldDAeFw0yMzExMDMyMDQwMzhaFw0yNjEwMTgy
MDQwMzhaMBgxFjAUBgNVBAMMDXRlYW04NC1jbGllbnQwggEiMA0GCSqGSIb3DQEB
AQUAA4IBDwAwggEKAoIBAQDmTrRgE+9ifCOJrOEiXi9nqsFhZJ0Rw/O7pKQjlQIC
2KFuZMCCbtJdvt/B1jetGYamalp1nVxVIqsWZkm3o+dLZO8aqZBfHrngg7uJTitG
K4pkRdqus0gCSNCUaobgTrtfgKl4FjGwWXTEGlVlOaVgvvkQSQOI8lYretng4blg
dB5QAEBVRSq8F/Z2VAaNXA0ItZPJul9LTKslFg190RjJLmhrfmV4J21o3iZGfUaY
1AVfSoe74W3FY1ERkVhQ4VJGsp2XSDJGDwYleiH+reDhZJmMUMwTYDAjAbDfF+oR
gQkeLZqyK3XMP2OkrKCuOKtbcqIzMI0X/dqHNxcZ25A9AgMBAAGjgaEwgZ4wCQYD
VR0TBAIwADAdBgNVHQ4EFgQU/wqRzh6uj/7w/Qy/atpfS/IGn8UwUAYDVR0jBEkw
R4AU1kD9Z5uVY49q0hNUx8VpqHhbL8ShGaQXMBUxEzARBgNVBAMMCnRlYW04NC1u
ZXSCFFBxyK1BhZvhMwNCmJ1PScFEiyqOMBMGA1UdJQQMMAoGCCsGAQUFBwMCMAsG
A1UdDwQEAwIHgDANBgkqhkiG9w0BAQsFAAOCAQEApoSNG/S2OmYr7g73kzqkJULn
B2SFMvQz99Vn1PFCymbes+fPvieB9wk2lOXMwAmGbgPbRnrQ7cWfxcK1LH94I/OC
lxmSF/HXMnnpgTiMIN9PnWnkjgU2Fo3cKHcm+zXbCuppgK1kHdPuSauSLYv5uWKC
x3zl0G/XspDMFHlYhhPNTQLIYv0ucT4YhsGsVTO/+Fw5Pov6sxALhwMwAmRLZag2
cr2zCe7jeR1ypiTrJbtxAT3xZua/+en7PWti2z/sZ/I250rAIU2URpevy35WMSbY
yz9wNriBtWIWFoBAoAfWtU0tN+bppvuRw8e72gQTylJHCBoh/GZmuqnxcxSi1w==
-----END CERTIFICATE-----
