Certificate:
    Data:
        Version: 3 (0x2)
        Serial Number:
            bb:8e:7a:b8:f2:b0:c8:41:03:ad:a3:21:7c:cc:c1:9f
        Signature Algorithm: sha256WithRSAEncryption
        Issuer: CN=team84-net
        Validity
            Not Before: Nov  3 20:40:38 2023 GMT
            Not After : Oct 18 20:40:38 2026 GMT
        Subject: CN=team84-server
        Subject Public Key Info:
            Public Key Algorithm: rsaEncryption
                Public-Key: (2048 bit)
                Modulus:
                    00:ac:a5:45:10:8c:19:9a:c6:bf:05:17:61:90:87:
                    82:6b:67:ea:a2:aa:da:c0:ff:f2:db:4d:3d:f5:be:
                    56:83:d3:41:d8:55:0d:80:0e:d1:cf:67:e7:9b:df:
                    34:ff:83:36:d6:3c:7b:31:36:c2:a0:7a:e6:47:07:
                    82:a3:32:c2:6e:87:3e:9f:22:cb:ed:36:16:ad:07:
                    c2:cc:c0:aa:64:ce:e6:64:8b:8a:9c:07:6b:e2:ae:
                    9a:cf:9a:a3:f2:6b:3c:05:9c:cf:0c:e0:fc:c7:76:
                    6e:e4:c8:43:64:e9:29:c2:38:f7:54:9b:f7:e3:8d:
                    1f:a3:be:90:8e:9f:89:c9:fe:1f:a0:97:58:ef:7c:
                    e4:ac:a5:9a:23:c6:2e:51:ec:bc:e8:e7:a7:11:93:
                    50:33:9c:1f:ad:59:10:c7:64:24:b9:9b:3b:b4:9c:
                    2a:e8:5d:03:60:89:33:28:95:d9:da:82:04:89:9f:
                    bc:d7:a3:bc:a2:84:0d:35:e9:cb:d4:c5:f1:32:f2:
                    54:08:95:87:81:7e:d1:28:66:f6:46:25:a7:f4:a0:
                    df:03:18:98:e8:d1:9b:68:de:3c:9b:3a:d9:bf:cc:
                    06:08:9e:27:0a:13:48:e0:53:61:3d:0b:c2:0f:9a:
                    9f:4f:c3:97:e4:d6:53:6c:6a:44:e4:e9:ec:94:db:
                    86:fb
                Exponent: 65537 (0x10001)
        X509v3 extensions:
            X509v3 Basic Constraints: 
                CA:FALSE
            X509v3 Subject Key Identifier: 
                56:1F:25:26:97:49:81:58:D5:8A:0C:3D:00:5E:C0:E0:41:54:1E:D8
            X509v3 Authority Key Identifier: 
                keyid:D6:40:FD:67:9B:95:63:8F:6A:D2:13:54:C7:C5:69:A8:78:5B:2F:C4
                DirName:/CN=team84-net
                serial:50:71:C8:AD:41:85:9B:E1:33:03:42:98:9D:4F:49:C1:44:8B:2A:8E
            X509v3 Extended Key Usage: 
                TLS Web Server Authentication
            X509v3 Key Usage: 
                Digital Signature, Key Encipherment
            X509v3 Subject Alternative Name: 
                DNS:team84-server
    Signature Algorithm: sha256WithRSAEncryption
    Signature Value:
        bd:ef:54:dc:96:ba:53:9f:a6:42:19:7f:dd:6f:44:ce:73:9b:
        81:a6:02:af:81:71:70:6a:34:3d:7e:38:7d:e7:30:16:d0:31:
        f3:04:78:19:9d:f2:c5:0b:10:e1:7d:59:8f:5c:11:12:25:3d:
        ab:30:d1:c7:3a:ef:fb:cf:cb:94:ca:35:89:96:80:64:ad:38:
        d4:f8:62:25:23:4a:56:92:0e:eb:a5:86:66:17:a8:ca:28:99:
        4e:a4:8c:60:e5:07:83:d0:1b:7e:ef:09:61:35:dd:82:a5:d1:
        aa:3a:de:71:74:6e:81:93:0d:b7:d1:4f:df:35:ed:37:a2:c4:
        e8:ce:a7:3f:20:f1:0e:63:be:35:23:c0:c6:44:2a:c1:94:4e:
        b2:c7:88:5e:67:4c:74:3f:7e:e3:cd:5f:68:36:c1:b4:aa:3b:
        ad:1c:7e:ff:f0:66:c7:c8:b3:e6:e5:ff:1e:a7:e9:8c:f3:42:
        4a:88:fc:c7:4c:05:41:12:aa:3c:6f:13:d6:cc:1a:f4:12:d7:
        8a:25:f8:c7:07:59:59:d3:9f:c6:71:57:d8:c3:1b:71:9d:cb:
        6e:3a:db:5f:41:c7:1e:92:8c:e4:a3:42:fb:76:e0:90:c6:c8:
        13:13:8f:f7:29:46:80:68:18:96:ab:4d:58:a8:05:e3:52:e3:
        5d:00:5b:af
-----BEGIN CERTIFICATE-----
MIIDdDCCAlygAwIBAgIRALuOerjysMhBA62jIXzMwZ8wDQYJKoZIhvcNAQELBQAw
FTETMBEGA1UEAwwKdGVhbTg0LW5ldDAeFw0yMzExMDMyMDQwMzhaFw0yNjEwMTgy
MDQwMzhaMBgxFjAUBgNVBAMMDXRlYW04NC1zZXJ2ZXIwggEiMA0GCSqGSIb3DQEB
AQUAA4IBDwAwggEKAoIBAQCspUUQjBmaxr8FF2GQh4JrZ+qiqtrA//LbTT31vlaD
00HYVQ2ADtHPZ+eb3zT/gzbWPHsxNsKgeuZHB4KjMsJuhz6fIsvtNhatB8LMwKpk
zuZki4qcB2virprPmqPyazwFnM8M4PzHdm7kyENk6SnCOPdUm/fjjR+jvpCOn4nJ
/h+gl1jvfOSspZojxi5R7Lzo56cRk1AznB+tWRDHZCS5mzu0nCroXQNgiTMoldna
ggSJn7zXo7yihA016cvUxfEy8lQIlYeBftEoZvZGJaf0oN8DGJjo0Zto3jybOtm/
zAYInicKE0jgU2E9C8IPmp9Pw5fk1lNsakTk6eyU24b7AgMBAAGjgbswgbgwCQYD
VR0TBAIwADAdBgNVHQ4EFgQUVh8lJpdJgVjVigw9AF7A4EFUHtgwUAYDVR0jBEkw
R4AU1kD9Z5uVY49q0hNUx8VpqHhbL8ShGaQXMBUxEzARBgNVBAMMCnRlYW04NC1u
ZXSCFFBxyK1BhZvhMwNCmJ1PScFEiyqOMBMGA1UdJQQMMAoGCCsGAQUFBwMBMAsG
A1UdDwQEAwIFoDAYBgNVHREEETAPgg10ZWFtODQtc2VydmVyMA0GCSqGSIb3DQEB
CwUAA4IBAQC971TclrpTn6ZCGX/db0TOc5uBpgKvgXFwajQ9fjh95zAW0DHzBHgZ
nfLFCxDhfVmPXBESJT2rMNHHOu/7z8uUyjWJloBkrTjU+GIlI0pWkg7rpYZmF6jK
KJlOpIxg5QeD0Bt+7wlhNd2CpdGqOt5xdG6Bkw230U/fNe03osTozqc/IPEOY741
I8DGRCrBlE6yx4heZ0x0P37jzV9oNsG0qjutHH7/8GbHyLPm5f8ep+mM80JKiPzH
TAVBEqo8bxPWzBr0EteKJfjHB1lZ05/GcVfYwxtxnctuOttfQccekozko0L7duCQ
xsgTE4/3KUaAaBiWq01YqAXjUuNdAFuv
-----END CERTIFICATE-----
