Certificate:
    Data:
        Version: 3 (0x2)
        Serial Number:
            17:2d:4a:80:72:5d:6b:ac:ee:2f:ea:84:e8:ca:43:95
        Signature Algorithm: sha256WithRSAEncryption
        Issuer: CN=team160-net
        Validity
            Not Before: Nov  4 10:43:30 2023 GMT
            Not After : Oct 19 10:43:30 2026 GMT
        Subject: CN=team160-client
        Subject Public Key Info:
            Public Key Algorithm: rsaEncryption
                Public-Key: (2048 bit)
                Modulus:
                    00:99:4d:21:09:dc:9e:a8:86:1d:71:5f:f5:f0:ac:
                    fd:28:89:8c:9a:e1:0a:6a:5d:a2:f4:bd:60:d2:d4:
                    e8:2c:c1:f9:99:2d:c6:6e:e3:8e:2f:cc:ba:77:65:
                    d9:60:56:15:04:af:44:11:4c:4c:2e:12:37:1b:b3:
                    d6:ee:7d:65:69:ee:76:63:44:87:3e:0d:70:aa:89:
                    3f:f8:b2:81:9b:78:d8:1e:b2:a1:3f:21:58:08:d8:
                    4e:61:20:a0:9a:d7:48:4d:95:ac:b8:e0:8e:64:5e:
                    8d:b8:9c:e8:be:56:10:68:6b:4f:50:58:76:68:7b:
                    ed:ab:01:8b:b5:79:64:f1:8a:2b:4d:0b:9d:57:98:
                    90:8a:9e:91:1b:fe:a8:da:a4:3d:be:08:98:7a:35:
                    7c:ac:59:9a:b4:ef:59:4a:e1:8c:e7:92:5b:4d:ab:
                    80:39:08:a7:33:44:f7:fa:a4:30:cc:20:13:76:77:
                    f6:42:12:5e:c5:5d:aa:ac:1d:cc:59:40:aa:b6:88:
                    14:c3:81:f7:d1:74:b2:01:0e:87:82:55:de:be:ae:
                    87:6c:1d:15:cf:82:6e:68:8d:30:30:20:6b:7e:59:
                    40:82:07:a8:2d:37:ee:24:1a:38:07:0d:e7:d8:74:
                    3a:73:00:fc:72:ea:f1:76:5d:d1:e3:c2:30:fc:b8:
                    87:0d
                Exponent: 65537 (0x10001)
        X509v3 extensions:
            X509v3 Basic Constraints: 
                CA:FALSE
            X509v3 Subject Key Identifier: 
                7C:B1:93:51:7C:E2:FF:C6:BB:71:3D:E8:22:C2:07:95:BA:92:2D:DB
            X509v3 Authority Key Identifier: 
                keyid:B8:A3:5D:3F:7B:2E:B3:20:BD:8E:A6:27:F4:D4:7B:A0:E0:6A:01:D7
                DirName:/CN=team160-net
                serial:56:38:02:D5:CA:E7:E7:4D:83:20:3D:28:B4:6D:40:C4:50:C3:6A:0C
            X509v3 Extended Key Usage: 
                TLS Web Client Authentication
            X509v3 Key Usage: 
                Digital Signature
    Signature Algorithm: sha256WithRSAEncryption
    Signature Value:
        39:86:48:23:8f:83:38:4b:32:de:96:a2:58:39:8b:16:34:c6:
        33:40:41:7f:8a:36:8e:18:5f:4b:6d:57:34:2a:88:73:1c:41:
        24:55:d9:ca:06:40:2d:bf:94:af:1b:8c:65:89:b2:9d:8b:db:
        68:a8:69:df:f8:36:63:84:e9:f6:06:1b:ee:0a:b0:06:df:1b:
        54:ec:dc:42:7a:49:54:a0:6a:6b:56:39:fa:3f:10:53:0f:ef:
        73:a6:cc:2a:bc:f0:da:b8:b2:e6:73:5a:2c:1e:20:be:fa:ea:
        5c:a7:bd:db:11:ab:a8:db:19:5f:60:b0:78:1a:f3:af:42:66:
        a0:6a:34:73:d0:46:d6:bb:b7:a1:36:e7:56:0d:e4:df:18:e1:
        2c:37:41:b2:d6:8e:32:d3:a1:25:b9:5c:63:8b:56:fa:a3:f2:
        ed:96:b4:55:ef:8c:5a:bd:24:4b:65:eb:ff:cb:5a:84:c1:a6:
        84:cd:8d:b0:6b:e2:d2:a1:63:b7:aa:b6:b5:1e:41:c1:24:8e:
        6f:1d:f4:24:2e:76:37:d8:d7:e2:2c:b3:d0:37:27:fe:fa:33:
        7a:e7:39:9d:f1:80:31:79:b8:31:b0:8c:90:11:00:52:39:44:
        a8:98:e0:3c:93:4e:1f:f4:6e:99:a7:eb:9f:ba:5b:04:bd:07:
        51:25:d9:a5
-----BEGIN CERTIFICATE-----
MIIDXDCCAkSgAwIBAgIQFy1KgHJda6zuL+qE6MpDlTANBgkqhkiG9w0BAQsFADAW
MRQwEgYDVQQDDAt0ZWFtMTYwLW5ldDAeFw0yMzExMDQxMDQzMzBaFw0yNjEwMTkx
MDQzMzBaMBkxFzAVBgNVBAMMDnRlYW0xNjAtY2xpZW50MIIBIjANBgkqhkiG9w0B
AQEFAAOCAQ8AMIIBCgKCAQEAmU0hCdyeqIYdcV/18Kz9KImMmuEKal2i9L1g0tTo
LMH5mS3GbuOOL8y6d2XZYFYVBK9EEUxMLhI3G7PW7n1lae52Y0SHPg1wqok/+LKB
m3jYHrKhPyFYCNhOYSCgmtdITZWsuOCOZF6NuJzovlYQaGtPUFh2aHvtqwGLtXlk
8YorTQudV5iQip6RG/6o2qQ9vgiYejV8rFmatO9ZSuGM55JbTauAOQinM0T3+qQw
zCATdnf2QhJexV2qrB3MWUCqtogUw4H30XSyAQ6HglXevq6HbB0Vz4JuaI0wMCBr
fllAggeoLTfuJBo4Bw3n2HQ6cwD8curxdl3R48Iw/LiHDQIDAQABo4GiMIGfMAkG
A1UdEwQCMAAwHQYDVR0OBBYEFHyxk1F84v/Gu3E96CLCB5W6ki3bMFEGA1UdIwRK
MEiAFLijXT97LrMgvY6mJ/TUe6DgagHXoRqkGDAWMRQwEgYDVQQDDAt0ZWFtMTYw
LW5ldIIUVjgC1crn502DID0otG1AxFDDagwwEwYDVR0lBAwwCgYIKwYBBQUHAwIw
CwYDVR0PBAQDAgeAMA0GCSqGSIb3DQEBCwUAA4IBAQA5hkgjj4M4SzLelqJYOYsW
NMYzQEF/ijaOGF9LbVc0KohzHEEkVdnKBkAtv5SvG4xlibKdi9toqGnf+DZjhOn2
BhvuCrAG3xtU7NxCeklUoGprVjn6PxBTD+9zpswqvPDauLLmc1osHiC++upcp73b
Eauo2xlfYLB4GvOvQmagajRz0EbWu7ehNudWDeTfGOEsN0Gy1o4y06EluVxji1b6
o/LtlrRV74xavSRLZev/y1qEwaaEzY2wa+LSoWO3qra1HkHBJI5vHfQkLnY32Nfi
LLPQNyf++jN65zmd8YAxebgxsIyQEQBSOUSomOA8k04f9G6Zp+ufulsEvQdRJdml
-----END CERTIFICATE-----
