Certificate:
    Data:
        Version: 3 (0x2)
        Serial Number:
            65:20:8f:2c:c9:11:51:02:7c:e7:c7:5b:10:f8:56:5f
        Signature Algorithm: sha256WithRSAEncryption
        Issuer: CN=team160-net
        Validity
            Not Before: Nov  4 11:30:46 2023 GMT
            Not After : Oct 19 11:30:46 2026 GMT
        Subject: CN=team160-server
        Subject Public Key Info:
            Public Key Algorithm: rsaEncryption
                Public-Key: (2048 bit)
                Modulus:
                    00:9f:88:b1:9c:52:78:a3:73:ff:e9:2a:be:54:4e:
                    c1:66:9b:02:41:e3:77:44:d0:56:26:bb:44:02:f8:
                    5d:07:0a:ec:85:c4:d4:28:10:4a:be:5d:e3:cf:ab:
                    82:6a:d0:e9:73:9f:08:4f:87:bf:79:6d:c8:eb:5b:
                    1f:59:69:33:74:e3:50:44:14:2f:6f:c6:71:51:e0:
                    f0:c3:63:6c:37:d1:d4:28:45:65:c7:36:83:58:12:
                    95:31:de:45:b2:31:39:02:7d:53:c4:a2:0d:28:4a:
                    4f:92:f5:6d:5f:73:1d:1b:af:7a:d0:a8:b5:3f:7f:
                    df:a2:46:7d:47:fd:ce:52:7d:5e:58:bd:93:1c:39:
                    44:01:44:9b:70:d7:e2:87:6d:9b:ce:1f:e5:90:21:
                    33:87:c5:ab:ca:c6:9e:28:41:87:f2:8c:b6:d8:32:
                    57:ac:b0:26:89:0d:31:bb:b0:de:97:60:a8:9a:bd:
                    3a:77:06:9e:ab:e5:ae:4e:b7:86:c9:be:3e:61:57:
                    92:9b:9d:c9:12:44:ef:72:f4:84:cb:59:27:a0:00:
                    1a:76:60:4d:17:63:44:76:f1:07:67:e2:4d:d3:1b:
                    31:9e:60:d6:dd:af:fe:a7:54:4c:2f:0d:14:72:46:
                    14:97:47:76:31:5b:52:d3:a0:cf:e6:4f:93:c7:dd:
                    f0:83
                Exponent: 65537 (0x10001)
        X509v3 extensions:
            X509v3 Basic Constraints: 
                CA:FALSE
            X509v3 Subject Key Identifier: 
                94:A0:DD:D9:E9:C4:C4:9C:AF:91:E9:65:FB:BD:54:8F:1F:FA:49:13
            X509v3 Authority Key Identifier: 
                keyid:A2:EA:85:CA:DA:4C:E1:20:CD:4B:7C:F6:87:D1:78:D6:E2:AB:35:F5
                DirName:/CN=team160-net
                serial:4E:D1:24:31:A2:CA:7D:A1:75:6B:BB:52:06:0E:7D:18:B8:29:B7:75
            X509v3 Extended Key Usage: 
                TLS Web Server Authentication
            X509v3 Key Usage: 
                Digital Signature, Key Encipherment
            X509v3 Subject Alternative Name: 
                DNS:team160-server
    Signature Algorithm: sha256WithRSAEncryption
    Signature Value:
        4c:fe:d5:b4:68:2b:20:5b:5e:4c:15:ef:a8:3f:9c:2c:1f:57:
        9d:90:71:22:82:29:ac:36:3d:a5:6b:28:f7:b0:21:04:a1:c7:
        e4:de:93:f4:41:f3:a9:72:b4:ca:02:f9:15:3e:7a:ae:b0:3e:
        6b:02:2a:c2:e4:c1:fe:6e:6c:60:e1:8b:85:e0:ac:af:3c:5d:
        51:ed:91:b2:12:ac:29:bb:9b:54:c0:1c:c0:3b:68:67:f2:50:
        32:88:8a:e0:c9:15:d6:a9:59:e2:7d:0c:1d:90:7a:ba:f4:7e:
        07:22:34:ff:62:b9:2a:6c:b5:3f:9f:53:07:30:f5:f3:7d:22:
        36:c2:05:db:ed:53:27:1b:93:92:58:c0:a1:29:fa:e6:4d:53:
        57:71:07:e4:72:94:06:a5:ad:2d:c4:24:43:d7:bd:ce:a7:9b:
        ed:cb:15:63:9e:1a:ab:76:90:2b:7c:41:a1:95:1a:fa:5d:24:
        6b:6b:00:4f:af:10:e7:8b:f1:27:45:e3:bc:79:f5:bf:ff:66:
        8a:a5:65:ec:72:40:58:71:9a:d4:34:5d:49:59:04:f3:0b:94:
        63:da:6b:60:a1:5e:92:a6:93:52:36:19:01:3b:10:89:02:df:
        0a:7b:d6:08:2f:2c:12:4b:65:7f:c7:a8:15:03:8b:9a:b9:db:
        9f:fd:75:92
-----BEGIN CERTIFICATE-----
MIIDdzCCAl+gAwIBAgIQZSCPLMkRUQJ858dbEPhWXzANBgkqhkiG9w0BAQsFADAW
MRQwEgYDVQQDDAt0ZWFtMTYwLW5ldDAeFw0yMzExMDQxMTMwNDZaFw0yNjEwMTkx
MTMwNDZaMBkxFzAVBgNVBAMMDnRlYW0xNjAtc2VydmVyMIIBIjANBgkqhkiG9w0B
AQEFAAOCAQ8AMIIBCgKCAQEAn4ixnFJ4o3P/6Sq+VE7BZpsCQeN3RNBWJrtEAvhd
BwrshcTUKBBKvl3jz6uCatDpc58IT4e/eW3I61sfWWkzdONQRBQvb8ZxUeDww2Ns
N9HUKEVlxzaDWBKVMd5FsjE5An1TxKINKEpPkvVtX3MdG6960Ki1P3/fokZ9R/3O
Un1eWL2THDlEAUSbcNfih22bzh/lkCEzh8WrysaeKEGH8oy22DJXrLAmiQ0xu7De
l2Comr06dwaeq+WuTreGyb4+YVeSm53JEkTvcvSEy1knoAAadmBNF2NEdvEHZ+JN
0xsxnmDW3a/+p1RMLw0UckYUl0d2MVtS06DP5k+Tx93wgwIDAQABo4G9MIG6MAkG
A1UdEwQCMAAwHQYDVR0OBBYEFJSg3dnpxMScr5HpZfu9VI8f+kkTMFEGA1UdIwRK
MEiAFKLqhcraTOEgzUt89ofReNbiqzX1oRqkGDAWMRQwEgYDVQQDDAt0ZWFtMTYw
LW5ldIIUTtEkMaLKfaF1a7tSBg59GLgpt3UwEwYDVR0lBAwwCgYIKwYBBQUHAwEw
CwYDVR0PBAQDAgWgMBkGA1UdEQQSMBCCDnRlYW0xNjAtc2VydmVyMA0GCSqGSIb3
DQEBCwUAA4IBAQBM/tW0aCsgW15MFe+oP5wsH1edkHEigimsNj2layj3sCEEocfk
3pP0QfOpcrTKAvkVPnqusD5rAirC5MH+bmxg4YuF4KyvPF1R7ZGyEqwpu5tUwBzA
O2hn8lAyiIrgyRXWqVnifQwdkHq69H4HIjT/YrkqbLU/n1MHMPXzfSI2wgXb7VMn
G5OSWMChKfrmTVNXcQfkcpQGpa0txCRD173Op5vtyxVjnhqrdpArfEGhlRr6XSRr
awBPrxDni/EnReO8efW//2aKpWXsckBYcZrUNF1JWQTzC5Rj2mtgoV6SppNSNhkB
OxCJAt8Ke9YILywSS2V/x6gVA4uauduf/XWS
-----END CERTIFICATE-----
