Certificate:
    Data:
        Version: 3 (0x2)
        Serial Number:
            92:c5:30:41:bc:9a:9c:7c:9a:f9:41:8a:c2:16:d2:8e
        Signature Algorithm: sha256WithRSAEncryption
        Issuer: CN=team160-net
        Validity
            Not Before: Nov  4 10:43:31 2023 GMT
            Not After : Oct 19 10:43:31 2026 GMT
        Subject: CN=team160-server
        Subject Public Key Info:
            Public Key Algorithm: rsaEncryption
                Public-Key: (2048 bit)
                Modulus:
                    00:b8:30:6b:36:ab:a8:03:a2:e5:67:77:de:3e:ff:
                    21:c9:92:04:3e:50:ee:f7:dd:f0:39:7b:fe:52:00:
                    98:81:89:dd:0b:58:a3:b5:75:ca:2c:20:44:1c:c4:
                    30:0c:65:c6:cd:7b:1f:87:4d:1d:68:a2:df:d4:c2:
                    9f:c2:ad:ca:95:f8:f1:f9:a9:c6:08:29:f4:c2:2d:
                    23:bc:6c:31:cd:35:ce:61:42:0a:46:cb:84:9e:29:
                    e6:55:ac:0d:4a:f0:d2:1b:7c:0b:17:b8:7f:41:85:
                    9c:24:a7:16:bf:da:07:25:fd:02:ce:53:bc:a6:7e:
                    04:62:b8:7e:04:87:0d:61:f3:80:6d:c8:83:fe:44:
                    dc:cd:77:b9:85:62:21:8e:6f:e1:45:e1:35:a2:f6:
                    b5:5b:ed:39:1c:5f:86:28:c7:ec:c0:15:47:0b:5d:
                    b2:c3:49:a3:c9:8b:70:7e:2b:bd:b9:2d:b2:3f:51:
                    99:42:de:dc:22:84:62:fe:68:bf:92:78:73:3e:45:
                    e6:20:3a:2f:d5:62:01:44:e6:c6:c0:41:37:77:41:
                    27:b1:7b:ac:0b:2a:73:7f:3e:d4:ee:3b:7f:10:6d:
                    13:eb:9e:2e:b0:b2:b0:b3:5c:a4:03:9f:f9:be:49:
                    3c:fd:b1:8d:44:2d:fd:ff:f3:2a:b9:b5:88:f5:05:
                    5f:55
                Exponent: 65537 (0x10001)
        X509v3 extensions:
            X509v3 Basic Constraints: 
                CA:FALSE
            X509v3 Subject Key Identifier: 
                76:14:46:5D:DD:E3:5E:AB:6C:01:BC:29:19:E5:DD:B1:7D:D8:CA:48
            X509v3 Authority Key Identifier: 
                keyid:B8:A3:5D:3F:7B:2E:B3:20:BD:8E:A6:27:F4:D4:7B:A0:E0:6A:01:D7
                DirName:/CN=team160-net
                serial:56:38:02:D5:CA:E7:E7:4D:83:20:3D:28:B4:6D:40:C4:50:C3:6A:0C
            X509v3 Extended Key Usage: 
                TLS Web Server Authentication
            X509v3 Key Usage: 
                Digital Signature, Key Encipherment
            X509v3 Subject Alternative Name: 
                DNS:team160-server
    Signature Algorithm: sha256WithRSAEncryption
    Signature Value:
        8c:0b:65:ec:64:e0:21:b7:22:00:2d:d2:8e:20:fd:f7:7c:c3:
        49:5d:f7:2e:0d:12:65:1a:ee:ea:a0:93:64:ff:46:9c:76:85:
        ae:47:83:30:39:98:7e:aa:b2:cb:11:b2:ab:09:86:21:45:1f:
        e7:80:ce:93:f5:2c:15:36:db:6a:e7:93:e3:cf:5a:23:d6:41:
        52:72:68:96:e1:78:bd:ed:05:bb:cc:c2:6e:fb:d8:38:ba:78:
        1c:5d:5d:6b:52:44:db:14:08:b4:a7:25:c3:41:fc:56:43:c7:
        f9:55:f3:30:53:7c:7a:a8:bd:0b:98:f9:e6:98:ac:5a:ec:60:
        e5:85:d4:36:ed:36:a8:1d:89:d1:73:9f:2b:7b:de:7b:c0:b7:
        88:ad:a6:27:35:35:0a:01:18:9b:f0:02:4f:37:87:a5:e6:b4:
        4c:9f:54:b2:76:c7:ea:06:32:f5:09:9d:e5:de:ca:4e:26:eb:
        45:48:0f:d3:a2:82:2e:be:1b:cf:25:f3:fd:1e:30:2b:f6:f1:
        9b:22:b0:3e:9e:4f:80:39:d7:dd:28:83:1e:74:7a:ac:7c:2e:
        84:48:66:a0:59:af:f5:f8:bb:5e:85:2a:19:d4:3d:c5:2e:e3:
        f4:53:c0:1a:06:8d:40:ca:b2:af:4c:22:12:2c:0d:2f:f6:11:
        cb:f7:d9:89
-----BEGIN CERTIFICATE-----
MIIDeDCCAmCgAwIBAgIRAJLFMEG8mpx8mvlBisIW0o4wDQYJKoZIhvcNAQELBQAw
FjEUMBIGA1UEAwwLdGVhbTE2MC1uZXQwHhcNMjMxMTA0MTA0MzMxWhcNMjYxMDE5
MTA0MzMxWjAZMRcwFQYDVQQDDA50ZWFtMTYwLXNlcnZlcjCCASIwDQYJKoZIhvcN
AQEBBQADggEPADCCAQoCggEBALgwazarqAOi5Wd33j7/IcmSBD5Q7vfd8Dl7/lIA
mIGJ3QtYo7V1yiwgRBzEMAxlxs17H4dNHWii39TCn8KtypX48fmpxggp9MItI7xs
Mc01zmFCCkbLhJ4p5lWsDUrw0ht8Cxe4f0GFnCSnFr/aByX9As5TvKZ+BGK4fgSH
DWHzgG3Ig/5E3M13uYViIY5v4UXhNaL2tVvtORxfhijH7MAVRwtdssNJo8mLcH4r
vbktsj9RmULe3CKEYv5ov5J4cz5F5iA6L9ViAUTmxsBBN3dBJ7F7rAsqc38+1O47
fxBtE+ueLrCysLNcpAOf+b5JPP2xjUQt/f/zKrm1iPUFX1UCAwEAAaOBvTCBujAJ
BgNVHRMEAjAAMB0GA1UdDgQWBBR2FEZd3eNeq2wBvCkZ5d2xfdjKSDBRBgNVHSME
SjBIgBS4o10/ey6zIL2Opif01Hug4GoB16EapBgwFjEUMBIGA1UEAwwLdGVhbTE2
MC1uZXSCFFY4AtXK5+dNgyA9KLRtQMRQw2oMMBMGA1UdJQQMMAoGCCsGAQUFBwMB
MAsGA1UdDwQEAwIFoDAZBgNVHREEEjAQgg50ZWFtMTYwLXNlcnZlcjANBgkqhkiG
9w0BAQsFAAOCAQEAjAtl7GTgIbciAC3SjiD993zDSV33Lg0SZRru6qCTZP9GnHaF
rkeDMDmYfqqyyxGyqwmGIUUf54DOk/UsFTbbaueT489aI9ZBUnJoluF4ve0Fu8zC
bvvYOLp4HF1da1JE2xQItKclw0H8VkPH+VXzMFN8eqi9C5j55pisWuxg5YXUNu02
qB2J0XOfK3vee8C3iK2mJzU1CgEYm/ACTzeHpea0TJ9UsnbH6gYy9Qmd5d7KTibr
RUgP06KCLr4bzyXz/R4wK/bxmyKwPp5PgDnX3SiDHnR6rHwuhEhmoFmv9fi7XoUq
GdQ9xS7j9FPAGgaNQMqyr0wiEiwNL/YRy/fZiQ==
-----END CERTIFICATE-----
