Certificate:
    Data:
        Version: 3 (0x2)
        Serial Number:
            3b:e4:b4:8d:b2:86:f4:20:da:ad:3a:2a:4b:7a:7d:e5
        Signature Algorithm: sha256WithRSAEncryption
        Issuer: CN=team174-net
        Validity
            Not Before: Nov  4 11:31:04 2023 GMT
            Not After : Oct 19 11:31:04 2026 GMT
        Subject: CN=team174-client
        Subject Public Key Info:
            Public Key Algorithm: rsaEncryption
                Public-Key: (2048 bit)
                Modulus:
                    00:de:fe:f1:c4:75:3e:c2:84:c0:11:5f:c3:c4:3e:
                    51:62:bb:a0:e4:be:40:5b:5a:82:56:ff:21:46:ef:
                    5a:98:18:28:ea:af:cf:18:17:ec:c6:50:b2:5c:b3:
                    65:dd:55:ef:52:88:35:7d:64:80:1a:51:3b:40:a3:
                    2f:91:4a:d7:57:22:2e:83:e9:ff:87:9f:2a:3e:a9:
                    3b:00:f2:c9:9e:69:63:a0:4e:79:89:0b:aa:00:50:
                    93:5c:a7:f9:a5:17:85:71:d2:f2:76:2b:4d:d6:bb:
                    18:1b:6b:5f:81:a2:71:00:f3:9b:f1:c4:a5:ae:3b:
                    c6:e6:93:22:49:2e:72:2e:6f:41:92:d7:27:f3:5d:
                    e9:4b:8c:82:44:e9:3f:a8:20:0e:bf:05:14:3c:cd:
                    f4:37:7a:a2:29:04:24:da:c0:11:85:59:e2:69:3e:
                    ab:a2:dd:80:a0:13:83:b7:16:bf:00:5b:b1:4d:05:
                    55:a1:c5:11:ce:5d:67:dc:8e:24:4a:c2:0a:89:af:
                    62:08:c5:fa:51:21:56:0d:a6:2a:be:e1:0b:f4:d9:
                    4a:c4:2d:d2:7e:6e:54:82:9f:d7:bb:83:f3:81:ae:
                    66:b9:99:fe:0c:fd:47:05:a8:5c:69:f3:30:73:ba:
                    25:97:82:ce:5b:b0:3d:e7:c0:a6:ef:eb:92:fa:7a:
                    85:39
                Exponent: 65537 (0x10001)
        X509v3 extensions:
            X509v3 Basic Constraints: 
                CA:FALSE
            X509v3 Subject Key Identifier: 
                A4:A8:FF:EF:8E:36:31:0F:B9:5A:CA:05:E3:C2:8C:88:38:11:6D:B4
            X509v3 Authority Key Identifier: 
                keyid:0A:1F:90:50:FB:1F:BB:C1:7C:92:DB:49:F9:C2:44:8F:EE:6E:C7:5E
                DirName:/CN=team174-net
                serial:47:67:8F:CA:23:02:81:31:41:86:FD:C7:B2:A3:D4:F8:44:65:B9:C4
            X509v3 Extended Key Usage: 
                TLS Web Client Authentication
            X509v3 Key Usage: 
                Digital Signature
    Signature Algorithm: sha256WithRSAEncryption
    Signature Value:
        0f:bf:92:73:bd:da:9b:04:7a:42:e3:80:3f:27:7b:8c:83:5d:
        59:c7:bd:61:ed:d4:9d:05:37:c0:20:a2:de:14:2e:aa:73:fa:
        78:eb:9b:f1:c7:e1:a7:dc:08:b5:e6:02:72:9e:73:ef:05:6b:
        5c:ad:2f:d9:88:ef:83:21:b9:85:7c:1a:15:1a:67:c8:ad:ca:
        f0:1b:b1:49:ea:4b:b2:5a:93:c1:8f:ec:20:cf:5b:d4:e7:7b:
        55:4f:42:42:6f:3e:eb:2e:86:76:6f:10:1d:3a:93:06:8e:3d:
        d2:3e:3e:b3:00:9d:7d:20:e9:65:08:68:15:75:e0:99:e5:ce:
        f3:e9:50:cb:9e:b0:c1:a1:be:0d:5a:a7:36:b4:f6:25:02:3b:
        74:6a:46:96:6a:41:e2:9e:8c:57:08:6d:97:bf:df:c8:e3:5a:
        e1:a8:9d:df:d3:2f:f9:27:5d:08:dd:ab:a6:b5:30:c3:56:72:
        53:ac:56:60:96:56:57:8e:fd:f3:dd:1e:e4:44:56:a3:68:f9:
        49:06:b0:7e:55:7d:ae:1d:50:7e:d5:7c:a6:88:af:9f:ba:01:
        0e:15:9d:1b:05:6f:34:51:ec:70:3b:98:3c:48:a4:82:bc:25:
        48:fa:8a:56:f4:ee:9a:cc:f1:af:d2:b2:50:7b:3a:f3:8e:88:
        72:0e:43:87
-----BEGIN CERTIFICATE-----
MIIDXDCCAkSgAwIBAgIQO+S0jbKG9CDarToqS3p95TANBgkqhkiG9w0BAQsFADAW
MRQwEgYDVQQDDAt0ZWFtMTc0LW5ldDAeFw0yMzExMDQxMTMxMDRaFw0yNjEwMTkx
MTMxMDRaMBkxFzAVBgNVBAMMDnRlYW0xNzQtY2xpZW50MIIBIjANBgkqhkiG9w0B
AQEFAAOCAQ8AMIIBCgKCAQEA3v7xxHU+woTAEV/DxD5RYrug5L5AW1qCVv8hRu9a
mBgo6q/PGBfsxlCyXLNl3VXvUog1fWSAGlE7QKMvkUrXVyIug+n/h58qPqk7APLJ
nmljoE55iQuqAFCTXKf5pReFcdLyditN1rsYG2tfgaJxAPOb8cSlrjvG5pMiSS5y
Lm9Bktcn813pS4yCROk/qCAOvwUUPM30N3qiKQQk2sARhVniaT6rot2AoBODtxa/
AFuxTQVVocURzl1n3I4kSsIKia9iCMX6USFWDaYqvuEL9NlKxC3Sfm5Ugp/Xu4Pz
ga5muZn+DP1HBahcafMwc7oll4LOW7A958Cm7+uS+nqFOQIDAQABo4GiMIGfMAkG
A1UdEwQCMAAwHQYDVR0OBBYEFKSo/++ONjEPuVrKBePCjIg4EW20MFEGA1UdIwRK
MEiAFAofkFD7H7vBfJLbSfnCRI/ubsdeoRqkGDAWMRQwEgYDVQQDDAt0ZWFtMTc0
LW5ldIIUR2ePyiMCgTFBhv3HsqPU+ERlucQwEwYDVR0lBAwwCgYIKwYBBQUHAwIw
CwYDVR0PBAQDAgeAMA0GCSqGSIb3DQEBCwUAA4IBAQAPv5JzvdqbBHpC44A/J3uM
g11Zx71h7dSdBTfAIKLeFC6qc/p465vxx+Gn3Ai15gJynnPvBWtcrS/ZiO+DIbmF
fBoVGmfIrcrwG7FJ6kuyWpPBj+wgz1vU53tVT0JCbz7rLoZ2bxAdOpMGjj3SPj6z
AJ19IOllCGgVdeCZ5c7z6VDLnrDBob4NWqc2tPYlAjt0akaWakHinoxXCG2Xv9/I
41rhqJ3f0y/5J10I3aumtTDDVnJTrFZgllZXjv3z3R7kRFajaPlJBrB+VX2uHVB+
1XymiK+fugEOFZ0bBW80UexwO5g8SKSCvCVI+opW9O6azPGv0rJQezrzjohyDkOH
-----END CERTIFICATE-----
