Certificate:
    Data:
        Version: 3 (0x2)
        Serial Number:
            b3:d6:a7:86:10:8b:34:54:05:72:26:ac:d4:65:8b:84
        Signature Algorithm: sha256WithRSAEncryption
        Issuer: CN=team174-net
        Validity
            Not Before: Nov  4 11:31:04 2023 GMT
            Not After : Oct 19 11:31:04 2026 GMT
        Subject: CN=team174-server
        Subject Public Key Info:
            Public Key Algorithm: rsaEncryption
                Public-Key: (2048 bit)
                Modulus:
                    00:bf:c2:66:77:34:24:3d:e9:86:ea:99:29:d6:80:
                    c0:fc:26:30:aa:12:0c:d8:69:0d:8e:d1:8f:40:46:
                    cc:7f:0b:d9:0b:e3:8e:0c:da:7a:ff:c2:83:f8:d4:
                    97:97:b8:ba:fd:14:18:88:92:6a:2c:68:fa:76:19:
                    e3:fc:5a:10:c1:ee:87:38:11:e0:ac:f7:32:c5:f4:
                    53:f7:49:ed:85:9f:5b:f0:87:36:0e:b3:f9:5f:e5:
                    42:33:42:cb:91:a7:d3:35:35:0a:b7:e1:a0:1b:34:
                    4e:ea:49:0e:0e:c0:c0:4b:ae:a2:b7:fa:cc:b2:07:
                    1e:f8:3e:bf:19:97:f7:9e:9a:70:0e:9b:ec:87:88:
                    0e:38:f0:a6:0a:f3:47:9a:51:83:bd:6a:f5:b5:1b:
                    8b:e6:c9:82:bd:d8:c1:ab:c8:d4:7f:0c:14:58:c3:
                    dc:3a:1b:b3:c2:ce:5e:1e:72:2a:fc:ab:74:06:c0:
                    e0:b4:89:e7:79:57:10:11:09:8c:18:64:7b:23:f6:
                    a2:9d:3e:d2:60:79:95:2b:09:14:c3:fb:e8:77:cf:
                    8c:7c:62:b2:a3:12:13:81:a6:b6:b5:08:31:59:e9:
                    bd:94:60:a9:fe:c9:b7:ba:cf:e9:c1:52:f1:de:82:
                    06:6b:c7:b9:53:ec:29:18:ea:7a:fa:ab:84:0a:ec:
                    a5:8f
                Exponent: 65537 (0x10001)
        X509v3 extensions:
            X509v3 Basic Constraints: 
                CA:FALSE
            X509v3 Subject Key Identifier: 
                7B:5D:C9:1C:91:27:DA:D6:72:BB:55:24:5A:25:C1:B2:F3:96:67:57
            X509v3 Authority Key Identifier: 
                keyid:0A:1F:90:50:FB:1F:BB:C1:7C:92:DB:49:F9:C2:44:8F:EE:6E:C7:5E
                DirName:/CN=team174-net
                serial:47:67:8F:CA:23:02:81:31:41:86:FD:C7:B2:A3:D4:F8:44:65:B9:C4
            X509v3 Extended Key Usage: 
                TLS Web Server Authentication
            X509v3 Key Usage: 
                Digital Signature, Key Encipherment
            X509v3 Subject Alternative Name: 
                DNS:team174-server
    Signature Algorithm: sha256WithRSAEncryption
    Signature Value:
        86:6c:b3:58:26:77:8f:c4:c9:01:e8:e3:40:08:98:10:72:1a:
        4d:c0:2c:1c:de:6e:c6:8a:ab:4e:2c:65:12:14:c5:fe:c1:3d:
        7d:d1:c7:f2:6a:0c:db:e5:2f:ba:c6:0c:08:b9:ce:83:fb:f9:
        14:9e:ce:91:d4:60:3d:88:55:0e:f9:90:23:fb:66:02:fe:95:
        2a:81:ea:f7:35:44:71:45:fe:4f:31:0f:52:f4:50:8b:3f:6a:
        ce:84:41:3d:64:d5:46:e6:ee:71:cc:a6:75:e9:0a:51:27:df:
        1b:75:65:ce:63:0d:e1:7b:91:c5:17:ac:7d:c9:eb:ac:45:e6:
        6c:86:2d:b0:28:98:43:60:7a:77:31:ae:6d:dc:87:7a:8b:30:
        60:54:8b:0b:28:f1:f3:22:95:73:4b:ea:b0:76:e7:90:c7:58:
        48:f6:e5:3d:f6:f0:09:7c:53:88:9a:d7:b3:6d:97:a3:f6:f9:
        fc:7e:2a:48:47:e6:21:ea:eb:25:37:6f:21:57:ca:28:34:a9:
        e7:68:99:3d:da:bf:ff:32:f2:9d:fe:69:0c:34:62:38:ff:30:
        a0:bf:48:2c:0e:bb:b4:35:fb:3f:aa:6c:44:55:d5:d2:fd:8a:
        2d:63:8a:22:c8:45:5b:ea:26:de:4f:fa:f5:02:c6:dc:fe:fe:
        0e:69:bd:69
-----BEGIN CERTIFICATE-----
MIIDeDCCAmCgAwIBAgIRALPWp4YQizRUBXImrNRli4QwDQYJKoZIhvcNAQELBQAw
FjEUMBIGA1UEAwwLdGVhbTE3NC1uZXQwHhcNMjMxMTA0MTEzMTA0WhcNMjYxMDE5
MTEzMTA0WjAZMRcwFQYDVQQDDA50ZWFtMTc0LXNlcnZlcjCCASIwDQYJKoZIhvcN
AQEBBQADggEPADCCAQoCggEBAL/CZnc0JD3phuqZKdaAwPwmMKoSDNhpDY7Rj0BG
zH8L2Qvjjgzaev/Cg/jUl5e4uv0UGIiSaixo+nYZ4/xaEMHuhzgR4Kz3MsX0U/dJ
7YWfW/CHNg6z+V/lQjNCy5Gn0zU1CrfhoBs0TupJDg7AwEuuorf6zLIHHvg+vxmX
956acA6b7IeIDjjwpgrzR5pRg71q9bUbi+bJgr3YwavI1H8MFFjD3Dobs8LOXh5y
KvyrdAbA4LSJ53lXEBEJjBhkeyP2op0+0mB5lSsJFMP76HfPjHxisqMSE4GmtrUI
MVnpvZRgqf7Jt7rP6cFS8d6CBmvHuVPsKRjqevqrhArspY8CAwEAAaOBvTCBujAJ
BgNVHRMEAjAAMB0GA1UdDgQWBBR7XckckSfa1nK7VSRaJcGy85ZnVzBRBgNVHSME
SjBIgBQKH5BQ+x+7wXyS20n5wkSP7m7HXqEapBgwFjEUMBIGA1UEAwwLdGVhbTE3
NC1uZXSCFEdnj8ojAoExQYb9x7Kj1PhEZbnEMBMGA1UdJQQMMAoGCCsGAQUFBwMB
MAsGA1UdDwQEAwIFoDAZBgNVHREEEjAQgg50ZWFtMTc0LXNlcnZlcjANBgkqhkiG
9w0BAQsFAAOCAQEAhmyzWCZ3j8TJAejjQAiYEHIaTcAsHN5uxoqrTixlEhTF/sE9
fdHH8moM2+UvusYMCLnOg/v5FJ7OkdRgPYhVDvmQI/tmAv6VKoHq9zVEcUX+TzEP
UvRQiz9qzoRBPWTVRubuccymdekKUSffG3VlzmMN4XuRxResfcnrrEXmbIYtsCiY
Q2B6dzGubdyHeoswYFSLCyjx8yKVc0vqsHbnkMdYSPblPfbwCXxTiJrXs22Xo/b5
/H4qSEfmIerrJTdvIVfKKDSp52iZPdq//zLynf5pDDRiOP8woL9ILA67tDX7P6ps
RFXV0v2KLWOKIshFW+om3k/69QLG3P7+Dmm9aQ==
-----END CERTIFICATE-----
