Certificate:
    Data:
        Version: 3 (0x2)
        Serial Number:
            f0:9b:3f:0c:e2:9f:99:9c:03:66:1c:5f:9a:5e:93:2e
        Signature Algorithm: sha256WithRSAEncryption
        Issuer: CN=team174-net
        Validity
            Not Before: Nov  4 10:43:46 2023 GMT
            Not After : Oct 19 10:43:46 2026 GMT
        Subject: CN=team174-client
        Subject Public Key Info:
            Public Key Algorithm: rsaEncryption
                Public-Key: (2048 bit)
                Modulus:
                    00:d7:94:85:32:5b:70:b2:93:f3:86:00:7d:4e:40:
                    5e:d3:6f:a8:de:61:c1:b2:bd:81:6f:26:78:7e:93:
                    f1:b3:d8:ef:37:71:3f:c4:4f:8b:5f:f1:ba:26:db:
                    b8:fb:87:3a:3c:1d:5a:1d:ba:19:8a:bb:e3:a7:b0:
                    70:4a:f9:68:25:a8:7d:9e:e7:49:08:55:92:31:b1:
                    08:d6:a9:5a:7f:14:dd:02:2d:a1:02:12:91:27:f0:
                    a1:49:51:22:72:a4:f7:4a:f3:50:b7:bc:10:26:03:
                    51:8d:fb:dc:39:d1:c3:a1:43:fb:50:e3:9a:63:e2:
                    a1:88:85:e5:d1:f9:e5:70:97:eb:d7:0d:d5:f6:74:
                    4f:2a:00:72:cb:be:18:c0:e5:2b:c9:52:e7:46:1c:
                    4e:ad:47:d5:e2:89:be:70:de:80:47:8b:c5:31:44:
                    c9:4f:17:3a:06:c8:fb:24:0e:06:fb:ab:2e:6a:ef:
                    2d:73:ee:7f:a3:59:dc:f5:9e:4c:c2:44:c4:1c:61:
                    e9:fc:f1:8e:93:bc:f6:e6:62:d7:46:d1:2e:83:8c:
                    07:70:65:00:3f:6b:92:4b:66:19:da:04:2a:58:19:
                    a4:fb:85:e9:2a:30:a9:df:c5:7c:af:ff:e2:ba:23:
                    47:2c:d6:16:ae:8f:46:65:e6:34:29:63:28:dc:42:
                    59:85
                Exponent: 65537 (0x10001)
        X509v3 extensions:
            X509v3 Basic Constraints: 
                CA:FALSE
            X509v3 Subject Key Identifier: 
                69:B8:C3:52:59:1A:F6:AA:E9:51:77:65:CC:97:CC:0E:85:69:FB:81
            X509v3 Authority Key Identifier: 
                keyid:77:72:A8:75:C8:59:03:DB:52:67:4A:36:5E:EC:96:39:18:F5:AC:A0
                DirName:/CN=team174-net
                serial:45:02:DC:34:BA:59:D6:18:CE:C7:6E:60:61:FE:C2:39:0B:1D:F7:06
            X509v3 Extended Key Usage: 
                TLS Web Client Authentication
            X509v3 Key Usage: 
                Digital Signature
    Signature Algorithm: sha256WithRSAEncryption
    Signature Value:
        83:59:68:1e:3e:89:c7:79:d6:f3:7c:f2:e2:54:9c:f7:0b:38:
        3b:af:f9:c2:ee:0b:be:a7:7c:95:04:2c:37:3e:cb:bd:17:1c:
        38:bb:1d:fb:6a:ea:39:cb:d8:d7:a7:01:e3:65:c8:76:92:d5:
        66:2f:d2:3d:02:e6:b8:16:25:2d:87:ab:14:de:97:b1:a6:ac:
        44:80:51:32:78:a8:e0:d3:c5:40:06:4d:07:9d:55:bc:98:f4:
        3c:96:9b:80:91:de:17:94:3b:a0:c3:76:9c:eb:89:75:b5:a4:
        92:3f:13:a7:b6:92:8c:7f:e9:2c:2f:26:32:b2:5e:82:36:7d:
        2f:1f:7b:63:fe:56:36:b4:43:3f:18:15:94:dd:88:32:8b:80:
        9b:b9:e0:a2:ba:a2:52:97:54:e5:d3:de:5c:31:73:08:67:89:
        33:1e:1e:ec:4d:7c:64:03:69:91:89:7d:f6:30:7e:84:90:2a:
        17:3c:35:4e:a9:d6:1b:c0:e9:f2:f1:ed:45:c4:e1:c8:cd:37:
        be:ea:d7:8f:27:42:b7:e7:a5:75:17:eb:e7:33:32:d2:f2:fd:
        eb:ea:2c:ab:85:b4:c2:67:36:9c:02:c2:ef:d9:d7:f1:f7:7c:
        e2:16:e5:61:ad:ad:de:e5:09:8d:16:44:b9:ea:55:ee:85:62:
        72:70:1f:b6
-----BEGIN CERTIFICATE-----
MIIDXTCCAkWgAwIBAgIRAPCbPwzin5mcA2YcX5peky4wDQYJKoZIhvcNAQELBQAw
FjEUMBIGA1UEAwwLdGVhbTE3NC1uZXQwHhcNMjMxMTA0MTA0MzQ2WhcNMjYxMDE5
MTA0MzQ2WjAZMRcwFQYDVQQDDA50ZWFtMTc0LWNsaWVudDCCASIwDQYJKoZIhvcN
AQEBBQADggEPADCCAQoCggEBANeUhTJbcLKT84YAfU5AXtNvqN5hwbK9gW8meH6T
8bPY7zdxP8RPi1/xuibbuPuHOjwdWh26GYq746ewcEr5aCWofZ7nSQhVkjGxCNap
Wn8U3QItoQISkSfwoUlRInKk90rzULe8ECYDUY373DnRw6FD+1DjmmPioYiF5dH5
5XCX69cN1fZ0TyoAcsu+GMDlK8lS50YcTq1H1eKJvnDegEeLxTFEyU8XOgbI+yQO
BvurLmrvLXPuf6NZ3PWeTMJExBxh6fzxjpO89uZi10bRLoOMB3BlAD9rkktmGdoE
KlgZpPuF6Sowqd/FfK//4rojRyzWFq6PRmXmNCljKNxCWYUCAwEAAaOBojCBnzAJ
BgNVHRMEAjAAMB0GA1UdDgQWBBRpuMNSWRr2qulRd2XMl8wOhWn7gTBRBgNVHSME
SjBIgBR3cqh1yFkD21JnSjZe7JY5GPWsoKEapBgwFjEUMBIGA1UEAwwLdGVhbTE3
NC1uZXSCFEUC3DS6WdYYzsduYGH+wjkLHfcGMBMGA1UdJQQMMAoGCCsGAQUFBwMC
MAsGA1UdDwQEAwIHgDANBgkqhkiG9w0BAQsFAAOCAQEAg1loHj6Jx3nW83zy4lSc
9ws4O6/5wu4Lvqd8lQQsNz7LvRccOLsd+2rqOcvY16cB42XIdpLVZi/SPQLmuBYl
LYerFN6XsaasRIBRMnio4NPFQAZNB51VvJj0PJabgJHeF5Q7oMN2nOuJdbWkkj8T
p7aSjH/pLC8mMrJegjZ9Lx97Y/5WNrRDPxgVlN2IMouAm7ngorqiUpdU5dPeXDFz
CGeJMx4e7E18ZANpkYl99jB+hJAqFzw1TqnWG8Dp8vHtRcThyM03vurXjydCt+el
dRfr5zMy0vL96+osq4W0wmc2nALC79nX8fd84hblYa2t3uUJjRZEuepV7oVicnAf
tg==
-----END CERTIFICATE-----
