Certificate:
    Data:
        Version: 3 (0x2)
        Serial Number:
            fc:5a:f4:b4:5d:57:c6:26:be:fb:ac:5c:92:e3:cf:2e
        Signature Algorithm: sha256WithRSAEncryption
        Issuer: CN=team266-net
        Validity
            Not Before: Nov  4 10:45:37 2023 GMT
            Not After : Oct 19 10:45:37 2026 GMT
        Subject: CN=team266-server
        Subject Public Key Info:
            Public Key Algorithm: rsaEncryption
                Public-Key: (2048 bit)
                Modulus:
                    00:ea:0f:21:c9:c6:17:d0:29:2b:4c:68:c8:e1:ae:
                    7e:33:62:fc:3b:17:86:85:93:f6:90:fa:86:ff:ab:
                    b4:05:00:c1:c0:5b:03:c7:be:3e:ff:db:be:68:92:
                    ba:3c:5f:1c:dd:c2:d7:43:93:16:f2:1e:33:5d:1b:
                    40:cc:86:f9:3a:f9:d2:b7:b8:d5:b4:fa:b5:0e:85:
                    19:12:85:3c:94:14:3a:bf:18:61:d6:61:f7:7a:14:
                    dd:56:a7:e4:4f:2c:bc:05:dc:46:d5:b1:d5:f4:4e:
                    0e:06:f2:43:20:dc:eb:4c:b0:cd:e6:42:a9:65:16:
                    32:21:04:7b:8e:f6:0c:36:e6:5d:02:ac:55:4e:0b:
                    67:b1:5c:14:3a:6f:a9:b9:3c:e9:97:98:19:a8:0c:
                    1b:b2:71:bf:fa:a2:a2:ef:77:f6:c2:5d:fe:50:7d:
                    45:7a:82:62:20:d7:4d:b8:a5:ae:4b:71:b8:aa:ad:
                    82:ae:32:59:5c:75:1f:ed:f1:ef:01:1f:0b:c3:15:
                    5b:49:67:3d:1a:fe:51:c6:b1:2f:b7:30:9e:02:68:
                    38:2e:d9:42:d0:3b:bb:31:9d:71:e4:7d:90:da:c7:
                    b5:79:fb:7c:9d:19:6b:24:4b:c9:14:ea:f7:f5:1a:
                    c7:25:64:21:a4:9b:70:12:1a:70:9e:d3:50:31:96:
                    e9:ff
                Exponent: 65537 (0x10001)
        X509v3 extensions:
            X509v3 Basic Constraints: 
                CA:FALSE
            X509v3 Subject Key Identifier: 
                14:EB:45:0A:D4:2F:64:ED:72:A6:D0:4A:18:CB:A3:A8:77:3D:9E:F4
            X509v3 Authority Key Identifier: 
                keyid:04:A4:85:E8:3E:8F:BA:A9:B2:10:F8:A5:42:7B:0D:F1:B3:18:E6:0C
                DirName:/CN=team266-net
                serial:55:C0:9B:A8:99:4D:DC:36:53:A7:75:22:36:08:E1:00:4D:E6:14:58
            X509v3 Extended Key Usage: 
                TLS Web Server Authentication
            X509v3 Key Usage: 
                Digital Signature, Key Encipherment
            X509v3 Subject Alternative Name: 
                DNS:team266-server
    Signature Algorithm: sha256WithRSAEncryption
    Signature Value:
        de:35:8a:c3:ad:e9:7f:a2:a5:00:fd:dc:d4:64:d6:2f:83:76:
        69:fe:60:27:14:13:35:0f:cb:dd:bd:f4:40:0c:dc:28:0d:b7:
        c0:1d:16:7b:6d:aa:3a:c4:6a:a9:8a:a3:ab:55:61:5c:c6:db:
        a1:48:62:71:77:84:67:86:2d:fd:a8:49:18:2d:0d:6e:a5:df:
        ed:90:62:20:45:b4:49:b1:aa:6c:3f:75:b0:8d:0b:4a:e1:75:
        60:3a:af:08:76:46:0d:15:1c:a9:0b:44:4c:43:cd:f6:12:a2:
        d9:c2:af:84:db:cc:16:96:a1:77:d1:bb:2a:14:e0:21:31:bf:
        4a:94:16:2a:ed:6a:20:79:97:99:94:da:b7:88:47:c8:6a:0b:
        4d:be:96:e6:3b:00:46:ae:c4:a3:79:bb:8e:91:95:0e:89:55:
        7f:10:78:84:ba:04:98:2c:ff:c7:23:bb:c9:0a:57:bd:65:57:
        42:ab:77:3d:45:a0:c9:46:41:d8:fb:aa:a9:4d:f0:a4:40:2f:
        f9:ca:a4:b4:ee:a7:bc:c9:e6:3a:6e:8e:20:6c:22:98:a3:c7:
        e8:60:6c:9a:dd:6b:c3:37:08:79:7a:a3:a6:6f:7d:59:13:8c:
        06:02:1f:4d:57:2c:28:0b:2b:c6:4c:79:fb:2b:3d:f9:6e:cd:
        c5:c0:03:26
-----BEGIN CERTIFICATE-----
MIIDeDCCAmCgAwIBAgIRAPxa9LRdV8YmvvusXJLjzy4wDQYJKoZIhvcNAQELBQAw
FjEUMBIGA1UEAwwLdGVhbTI2Ni1uZXQwHhcNMjMxMTA0MTA0NTM3WhcNMjYxMDE5
MTA0NTM3WjAZMRcwFQYDVQQDDA50ZWFtMjY2LXNlcnZlcjCCASIwDQYJKoZIhvcN
AQEBBQADggEPADCCAQoCggEBAOoPIcnGF9ApK0xoyOGufjNi/DsXhoWT9pD6hv+r
tAUAwcBbA8e+Pv/bvmiSujxfHN3C10OTFvIeM10bQMyG+Tr50re41bT6tQ6FGRKF
PJQUOr8YYdZh93oU3Van5E8svAXcRtWx1fRODgbyQyDc60ywzeZCqWUWMiEEe472
DDbmXQKsVU4LZ7FcFDpvqbk86ZeYGagMG7Jxv/qiou939sJd/lB9RXqCYiDXTbil
rktxuKqtgq4yWVx1H+3x7wEfC8MVW0lnPRr+UcaxL7cwngJoOC7ZQtA7uzGdceR9
kNrHtXn7fJ0ZayRLyRTq9/UaxyVkIaSbcBIacJ7TUDGW6f8CAwEAAaOBvTCBujAJ
BgNVHRMEAjAAMB0GA1UdDgQWBBQU60UK1C9k7XKm0EoYy6Oodz2e9DBRBgNVHSME
SjBIgBQEpIXoPo+6qbIQ+KVCew3xsxjmDKEapBgwFjEUMBIGA1UEAwwLdGVhbTI2
Ni1uZXSCFFXAm6iZTdw2U6d1IjYI4QBN5hRYMBMGA1UdJQQMMAoGCCsGAQUFBwMB
MAsGA1UdDwQEAwIFoDAZBgNVHREEEjAQgg50ZWFtMjY2LXNlcnZlcjANBgkqhkiG
9w0BAQsFAAOCAQEA3jWKw63pf6KlAP3c1GTWL4N2af5gJxQTNQ/L3b30QAzcKA23
wB0We22qOsRqqYqjq1VhXMbboUhicXeEZ4Yt/ahJGC0NbqXf7ZBiIEW0SbGqbD91
sI0LSuF1YDqvCHZGDRUcqQtETEPN9hKi2cKvhNvMFpahd9G7KhTgITG/SpQWKu1q
IHmXmZTat4hHyGoLTb6W5jsARq7Eo3m7jpGVDolVfxB4hLoEmCz/xyO7yQpXvWVX
Qqt3PUWgyUZB2PuqqU3wpEAv+cqktO6nvMnmOm6OIGwimKPH6GBsmt1rwzcIeXqj
pm99WROMBgIfTVcsKAsrxkx5+ys9+W7NxcADJg==
-----END CERTIFICATE-----
