Certificate:
    Data:
        Version: 3 (0x2)
        Serial Number:
            28:3f:73:18:5c:fd:f7:cc:78:86:e9:0b:9f:71:cf:cc
        Signature Algorithm: sha256WithRSAEncryption
        Issuer: CN=team231-net
        Validity
            Not Before: Nov  4 11:32:08 2023 GMT
            Not After : Oct 19 11:32:08 2026 GMT
        Subject: CN=team231-client
        Subject Public Key Info:
            Public Key Algorithm: rsaEncryption
                Public-Key: (2048 bit)
                Modulus:
                    00:98:5b:1f:80:1b:32:5a:67:18:f4:76:ea:50:b1:
                    f1:fd:91:67:05:e4:10:39:6f:8e:32:33:a2:74:01:
                    c4:73:0d:df:a2:2e:77:5d:bb:25:f6:eb:df:24:32:
                    6a:ef:be:7c:47:af:6e:89:2c:a5:cd:b5:f2:cb:63:
                    c0:7f:bd:5b:45:bb:cd:fe:0b:c7:31:26:a1:b4:2a:
                    8e:0c:ce:ac:4f:17:25:0f:23:33:b2:06:c7:34:72:
                    54:df:5e:3d:aa:bf:dd:ca:65:15:22:01:67:84:75:
                    91:63:af:b8:9c:56:15:b0:7a:0d:00:35:63:2b:f3:
                    66:f2:f7:3d:5f:64:02:86:d1:57:ea:b8:1a:c8:a7:
                    a7:93:4b:2a:3e:d6:70:1f:38:45:21:da:40:ec:e6:
                    ee:ca:3a:f1:37:d4:12:41:1a:55:1b:2c:f5:43:80:
                    ec:5b:2f:68:3d:8d:5f:3a:26:4e:57:79:a0:9c:15:
                    5f:d4:fd:1d:f6:0c:ec:51:d9:77:ee:c0:e8:90:2e:
                    1e:c3:e8:f0:ff:56:35:66:8e:53:f9:26:7a:6e:3e:
                    b5:50:d7:72:e5:8e:61:a8:9c:97:0a:30:c6:83:36:
                    d3:3b:4d:ea:0e:f5:e3:24:c8:a2:8b:0c:83:59:76:
                    7b:9a:fc:f6:12:5a:a3:e7:09:03:5a:37:d9:44:31:
                    40:f3
                Exponent: 65537 (0x10001)
        X509v3 extensions:
            X509v3 Basic Constraints: 
                CA:FALSE
            X509v3 Subject Key Identifier: 
                9A:FA:6B:52:E8:B6:3E:18:DF:BB:E5:F6:65:17:D2:56:F9:16:7E:4F
            X509v3 Authority Key Identifier: 
                keyid:DC:5B:15:E3:B6:42:97:5B:3F:2F:8E:21:C6:7F:49:02:D9:71:3F:DF
                DirName:/CN=team231-net
                serial:03:26:D4:E0:35:70:A0:DF:A5:72:6C:65:D2:2B:E4:D9:6F:4F:5C:2B
            X509v3 Extended Key Usage: 
                TLS Web Client Authentication
            X509v3 Key Usage: 
                Digital Signature
    Signature Algorithm: sha256WithRSAEncryption
    Signature Value:
        65:1a:12:9c:db:c4:1c:40:1d:af:31:cb:9d:e0:b2:8b:6e:db:
        d5:d1:f6:6d:09:8b:c9:8e:fe:5d:1e:f8:b8:1a:3b:32:52:d2:
        5d:b8:ce:ce:9e:61:e6:0b:b2:1f:ef:54:85:f4:3a:75:ab:f2:
        6c:b0:74:a9:27:ad:3d:58:a6:31:dc:83:57:16:0b:ac:52:ed:
        8c:9b:5c:5c:03:f8:14:ba:64:c3:39:a4:ff:b1:98:01:a0:60:
        ac:62:e7:00:1e:8b:10:da:81:c0:00:68:a1:3b:ba:51:e4:a9:
        74:73:9a:1c:45:73:c5:93:4e:76:f3:f4:7c:8f:fa:d6:fa:7c:
        61:a7:a3:0a:3d:d7:63:b4:21:54:45:a0:ec:b7:b8:a6:90:b1:
        4e:3e:a4:8f:37:e3:62:3f:67:10:dd:45:db:b8:9d:6f:a1:5b:
        f1:0e:df:8b:ba:49:5f:e2:fb:56:01:5a:2b:c4:86:da:7f:35:
        60:5d:d6:0d:9b:a2:44:83:47:1d:5d:fb:c1:b1:f1:f9:0b:27:
        c2:a4:0a:ac:ce:02:88:41:a8:af:f5:b6:bb:b9:4d:99:3e:d5:
        75:5c:fa:e4:e9:b8:aa:0e:f5:29:35:94:00:c0:9e:3d:2c:d4:
        55:cc:b3:f4:69:f6:3e:f4:2e:c0:e2:00:45:01:88:41:d9:42:
        e9:5f:64:0e
-----BEGIN CERTIFICATE-----
MIIDXDCCAkSgAwIBAgIQKD9zGFz998x4hukLn3HPzDANBgkqhkiG9w0BAQsFADAW
MRQwEgYDVQQDDAt0ZWFtMjMxLW5ldDAeFw0yMzExMDQxMTMyMDhaFw0yNjEwMTkx
MTMyMDhaMBkxFzAVBgNVBAMMDnRlYW0yMzEtY2xpZW50MIIBIjANBgkqhkiG9w0B
AQEFAAOCAQ8AMIIBCgKCAQEAmFsfgBsyWmcY9HbqULHx/ZFnBeQQOW+OMjOidAHE
cw3foi53Xbsl9uvfJDJq7758R69uiSylzbXyy2PAf71bRbvN/gvHMSahtCqODM6s
TxclDyMzsgbHNHJU3149qr/dymUVIgFnhHWRY6+4nFYVsHoNADVjK/Nm8vc9X2QC
htFX6rgayKenk0sqPtZwHzhFIdpA7ObuyjrxN9QSQRpVGyz1Q4DsWy9oPY1fOiZO
V3mgnBVf1P0d9gzsUdl37sDokC4ew+jw/1Y1Zo5T+SZ6bj61UNdy5Y5hqJyXCjDG
gzbTO03qDvXjJMiiiwyDWXZ7mvz2Elqj5wkDWjfZRDFA8wIDAQABo4GiMIGfMAkG
A1UdEwQCMAAwHQYDVR0OBBYEFJr6a1Lotj4Y37vl9mUX0lb5Fn5PMFEGA1UdIwRK
MEiAFNxbFeO2QpdbPy+OIcZ/SQLZcT/foRqkGDAWMRQwEgYDVQQDDAt0ZWFtMjMx
LW5ldIIUAybU4DVwoN+lcmxl0ivk2W9PXCswEwYDVR0lBAwwCgYIKwYBBQUHAwIw
CwYDVR0PBAQDAgeAMA0GCSqGSIb3DQEBCwUAA4IBAQBlGhKc28QcQB2vMcud4LKL
btvV0fZtCYvJjv5dHvi4GjsyUtJduM7OnmHmC7If71SF9Dp1q/JssHSpJ609WKYx
3INXFgusUu2Mm1xcA/gUumTDOaT/sZgBoGCsYucAHosQ2oHAAGihO7pR5Kl0c5oc
RXPFk0528/R8j/rW+nxhp6MKPddjtCFURaDst7imkLFOPqSPN+NiP2cQ3UXbuJ1v
oVvxDt+Luklf4vtWAVorxIbafzVgXdYNm6JEg0cdXfvBsfH5CyfCpAqszgKIQaiv
9ba7uU2ZPtV1XPrk6biqDvUpNZQAwJ49LNRVzLP0afY+9C7A4gBFAYhB2ULpX2QO
-----END CERTIFICATE-----
