Certificate:
    Data:
        Version: 3 (0x2)
        Serial Number:
            7e:23:cd:4b:d8:9f:8c:a2:43:d4:db:a1:e0:2f:47:53
        Signature Algorithm: sha256WithRSAEncryption
        Issuer: CN=team231-net
        Validity
            Not Before: Nov  4 10:44:58 2023 GMT
            Not After : Oct 19 10:44:58 2026 GMT
        Subject: CN=team231-server
        Subject Public Key Info:
            Public Key Algorithm: rsaEncryption
                Public-Key: (2048 bit)
                Modulus:
                    00:d0:f2:49:a1:b2:6f:03:0c:ee:9c:29:b7:7c:f7:
                    0d:71:58:d1:c9:34:b1:80:55:8b:8d:2c:f7:35:b0:
                    b5:08:9d:90:e2:00:eb:1f:33:34:60:bb:37:6e:1f:
                    15:fb:04:20:37:93:dd:27:38:02:25:e5:50:79:7c:
                    4d:5e:ea:30:a3:42:b6:5c:eb:30:a9:a2:11:be:d1:
                    23:08:0a:11:51:bc:6c:ab:37:78:b4:8a:29:ed:b0:
                    ca:aa:da:6d:f0:8f:7a:2e:9d:06:7f:e3:4f:ef:6c:
                    31:c8:88:8f:1c:e6:fe:e7:ea:bc:3b:30:da:89:b2:
                    d7:52:ff:30:83:d7:5c:ad:4d:c5:1f:66:ed:2c:d2:
                    4e:eb:fa:b3:e4:c9:00:99:7f:b1:34:a6:76:a0:6a:
                    b1:75:dd:5e:ad:1e:00:5d:75:66:45:94:98:06:82:
                    35:9e:4f:fb:6f:c6:01:83:4a:9b:68:7d:b7:e0:92:
                    b0:2b:8a:e7:2f:e7:c2:c4:34:d6:2b:dd:95:31:4d:
                    85:fb:09:4c:10:a0:23:e3:69:96:a9:1b:a3:43:10:
                    75:73:8d:9a:98:9e:a0:f1:f0:c6:16:63:02:9a:8b:
                    8b:ef:86:b4:32:fa:2e:86:95:25:20:40:86:f6:01:
                    67:11:75:4f:71:2f:76:87:85:91:20:5c:78:b0:20:
                    34:9b
                Exponent: 65537 (0x10001)
        X509v3 extensions:
            X509v3 Basic Constraints: 
                CA:FALSE
            X509v3 Subject Key Identifier: 
                1E:0D:54:62:84:B1:0D:4C:D6:A3:7F:C2:2E:04:3C:83:2C:A9:51:58
            X509v3 Authority Key Identifier: 
                keyid:27:05:AB:C8:11:64:95:6D:EA:29:CB:61:2F:0A:95:C2:D3:69:89:10
                DirName:/CN=team231-net
                serial:0C:11:48:9B:5C:3C:97:A2:D8:12:77:E3:B3:2D:1D:FB:AB:7B:A8:36
            X509v3 Extended Key Usage: 
                TLS Web Server Authentication
            X509v3 Key Usage: 
                Digital Signature, Key Encipherment
            X509v3 Subject Alternative Name: 
                DNS:team231-server
    Signature Algorithm: sha256WithRSAEncryption
    Signature Value:
        8f:6d:bb:78:01:b6:14:c8:80:f4:9f:fc:10:cb:9c:96:17:69:
        bd:5d:fb:e3:04:05:74:87:71:f1:11:fd:ca:9b:aa:37:11:f0:
        f0:5d:7b:ca:bf:74:6f:d1:99:f5:52:5f:65:b9:c9:df:81:2d:
        1d:96:c5:cb:27:e3:08:d6:52:ab:6f:26:fb:bf:d0:a3:1c:83:
        4f:06:29:1c:9e:6e:8f:c1:a7:fe:97:30:71:5d:9b:bb:6f:ec:
        63:d7:aa:63:30:56:fa:06:55:ca:29:ad:25:c7:af:e1:d6:1a:
        ad:88:e5:4d:9b:6c:08:ec:d0:76:26:fd:8d:00:18:cc:af:53:
        95:b3:be:c6:0a:cd:ce:42:75:a9:79:4c:88:37:e3:94:ae:c6:
        b1:31:f6:5f:c1:f4:6a:3e:b8:98:3e:ba:07:8f:88:83:95:3a:
        44:ae:1e:8f:f7:39:e6:b9:9a:49:19:77:62:3a:aa:e0:33:89:
        32:e5:5e:f1:d3:d1:e1:4d:26:30:a1:37:23:db:a9:f3:b4:a2:
        85:da:e4:b0:83:09:63:b7:e3:01:bd:37:28:04:53:c6:39:8d:
        d9:f4:95:2d:a6:ac:32:7f:50:e1:16:cf:02:9f:c9:72:c9:a7:
        2c:ab:af:02:f0:16:f4:dc:c0:94:f6:ae:65:c0:08:fa:3a:7b:
        9c:1e:02:ae
-----BEGIN CERTIFICATE-----
MIIDdzCCAl+gAwIBAgIQfiPNS9ifjKJD1Nuh4C9HUzANBgkqhkiG9w0BAQsFADAW
MRQwEgYDVQQDDAt0ZWFtMjMxLW5ldDAeFw0yMzExMDQxMDQ0NThaFw0yNjEwMTkx
MDQ0NThaMBkxFzAVBgNVBAMMDnRlYW0yMzEtc2VydmVyMIIBIjANBgkqhkiG9w0B
AQEFAAOCAQ8AMIIBCgKCAQEA0PJJobJvAwzunCm3fPcNcVjRyTSxgFWLjSz3NbC1
CJ2Q4gDrHzM0YLs3bh8V+wQgN5PdJzgCJeVQeXxNXuowo0K2XOswqaIRvtEjCAoR
Ubxsqzd4tIop7bDKqtpt8I96Lp0Gf+NP72wxyIiPHOb+5+q8OzDaibLXUv8wg9dc
rU3FH2btLNJO6/qz5MkAmX+xNKZ2oGqxdd1erR4AXXVmRZSYBoI1nk/7b8YBg0qb
aH234JKwK4rnL+fCxDTWK92VMU2F+wlMEKAj42mWqRujQxB1c42amJ6g8fDGFmMC
mouL74a0MvouhpUlIECG9gFnEXVPcS92h4WRIFx4sCA0mwIDAQABo4G9MIG6MAkG
A1UdEwQCMAAwHQYDVR0OBBYEFB4NVGKEsQ1M1qN/wi4EPIMsqVFYMFEGA1UdIwRK
MEiAFCcFq8gRZJVt6inLYS8KlcLTaYkQoRqkGDAWMRQwEgYDVQQDDAt0ZWFtMjMx
LW5ldIIUDBFIm1w8l6LYEnfjsy0d+6t7qDYwEwYDVR0lBAwwCgYIKwYBBQUHAwEw
CwYDVR0PBAQDAgWgMBkGA1UdEQQSMBCCDnRlYW0yMzEtc2VydmVyMA0GCSqGSIb3
DQEBCwUAA4IBAQCPbbt4AbYUyID0n/wQy5yWF2m9XfvjBAV0h3HxEf3Km6o3EfDw
XXvKv3Rv0Zn1Ul9lucnfgS0dlsXLJ+MI1lKrbyb7v9CjHINPBikcnm6Pwaf+lzBx
XZu7b+xj16pjMFb6BlXKKa0lx6/h1hqtiOVNm2wI7NB2Jv2NABjMr1OVs77GCs3O
QnWpeUyIN+OUrsaxMfZfwfRqPriYProHj4iDlTpErh6P9znmuZpJGXdiOqrgM4ky
5V7x09HhTSYwoTcj26nztKKF2uSwgwljt+MBvTcoBFPGOY3Z9JUtpqwyf1DhFs8C
n8lyyacsq68C8Bb03MCU9q5lwAj6OnucHgKu
-----END CERTIFICATE-----
