Certificate:
    Data:
        Version: 3 (0x2)
        Serial Number:
            c3:00:33:5b:63:09:f3:91:95:56:3c:1e:4b:3d:17:e7
        Signature Algorithm: sha256WithRSAEncryption
        Issuer: CN=team231-net
        Validity
            Not Before: Nov  4 10:44:58 2023 GMT
            Not After : Oct 19 10:44:58 2026 GMT
        Subject: CN=team231-client
        Subject Public Key Info:
            Public Key Algorithm: rsaEncryption
                Public-Key: (2048 bit)
                Modulus:
                    00:af:e9:06:36:49:f9:b7:c6:6c:aa:0f:7b:54:f3:
                    5f:7f:0a:61:7d:09:a9:8e:96:fe:59:9d:f5:46:4b:
                    f8:62:26:c5:3c:7c:e0:77:6c:42:f8:e6:c8:0a:59:
                    4f:f5:c9:5e:9d:7b:f4:53:1a:0c:fe:1e:ef:16:06:
                    ae:09:97:69:ba:f1:67:e3:e0:51:33:56:82:60:90:
                    e1:8f:89:e4:70:f4:f5:35:ab:ea:eb:a3:5b:89:4a:
                    5e:2d:71:1a:c3:59:88:7d:dd:90:48:7c:27:ed:da:
                    fa:03:2d:51:b3:a8:56:a5:9e:ff:12:b1:67:26:d2:
                    6c:8a:80:28:b5:d8:8c:14:9f:9c:6d:db:b3:9d:de:
                    1b:74:cf:7d:22:d6:ae:d1:61:c6:dc:97:7b:db:66:
                    50:5a:00:a1:cc:dc:ad:58:7c:7f:69:ba:d1:52:90:
                    1c:e8:f2:38:91:4d:46:fa:cc:5c:76:68:6d:65:76:
                    ce:9c:6f:e7:1e:89:d2:ea:a0:6b:29:e1:7b:92:64:
                    67:b0:d8:d4:3e:b2:6a:75:37:ce:b2:e3:76:f0:d4:
                    dc:ff:30:2a:40:de:d5:1b:88:9a:92:6d:3e:42:a6:
                    dd:80:f2:1a:af:e6:a1:dd:7b:12:c9:ce:7f:cf:63:
                    d4:95:4c:50:b1:18:21:fb:7b:62:8c:33:63:c7:50:
                    23:03
                Exponent: 65537 (0x10001)
        X509v3 extensions:
            X509v3 Basic Constraints: 
                CA:FALSE
            X509v3 Subject Key Identifier: 
                A2:97:F5:C0:97:40:A4:D3:9A:F7:73:74:60:E7:12:81:14:ED:80:89
            X509v3 Authority Key Identifier: 
                keyid:27:05:AB:C8:11:64:95:6D:EA:29:CB:61:2F:0A:95:C2:D3:69:89:10
                DirName:/CN=team231-net
                serial:0C:11:48:9B:5C:3C:97:A2:D8:12:77:E3:B3:2D:1D:FB:AB:7B:A8:36
            X509v3 Extended Key Usage: 
                TLS Web Client Authentication
            X509v3 Key Usage: 
                Digital Signature
    Signature Algorithm: sha256WithRSAEncryption
    Signature Value:
        15:43:ba:69:ef:7e:83:df:0a:78:13:1f:c5:ea:26:f7:7e:18:
        59:4e:7a:d0:ca:33:da:5a:42:3b:0e:45:fa:bd:de:63:b9:17:
        53:9d:56:99:9a:c0:a1:66:f8:d6:9e:3d:d7:bc:1d:52:fd:13:
        67:44:81:2b:d3:ff:4e:46:52:99:5e:cf:05:66:92:1c:65:ad:
        84:c3:8d:5b:2f:2d:dd:28:ac:17:48:d9:a2:64:1e:b1:b8:7e:
        00:48:4a:ba:a7:2a:67:4d:66:ea:30:d7:1d:8d:58:75:03:d8:
        1d:08:2e:0d:6c:59:e8:23:2e:3b:4d:83:f2:09:35:21:b1:fe:
        78:45:f5:7d:f1:29:e9:92:db:1e:02:7b:a1:d5:6f:2c:c6:83:
        bd:6d:a2:67:0b:fd:4a:0e:cf:64:22:d6:f1:30:fb:a6:24:db:
        47:74:90:a0:66:fb:67:fd:e4:6f:2e:8c:49:61:b7:d7:b8:27:
        8b:d3:14:1d:74:2a:52:d9:30:ee:42:72:f3:e5:95:b6:e0:90:
        14:1c:f0:3a:64:ad:ef:84:08:9e:2a:2a:02:39:61:2d:6d:db:
        e4:f6:8f:e9:27:97:33:80:63:15:1c:1c:7b:8f:4a:d0:80:db:
        39:81:95:8c:e2:38:ac:88:8c:28:9f:43:c9:42:98:45:52:f4:
        9a:4d:4d:6a
-----BEGIN CERTIFICATE-----
MIIDXTCCAkWgAwIBAgIRAMMAM1tjCfORlVY8Hks9F+cwDQYJKoZIhvcNAQELBQAw
FjEUMBIGA1UEAwwLdGVhbTIzMS1uZXQwHhcNMjMxMTA0MTA0NDU4WhcNMjYxMDE5
MTA0NDU4WjAZMRcwFQYDVQQDDA50ZWFtMjMxLWNsaWVudDCCASIwDQYJKoZIhvcN
AQEBBQADggEPADCCAQoCggEBAK/pBjZJ+bfGbKoPe1TzX38KYX0JqY6W/lmd9UZL
+GImxTx84HdsQvjmyApZT/XJXp179FMaDP4e7xYGrgmXabrxZ+PgUTNWgmCQ4Y+J
5HD09TWr6uujW4lKXi1xGsNZiH3dkEh8J+3a+gMtUbOoVqWe/xKxZybSbIqAKLXY
jBSfnG3bs53eG3TPfSLWrtFhxtyXe9tmUFoAoczcrVh8f2m60VKQHOjyOJFNRvrM
XHZobWV2zpxv5x6J0uqgaynhe5JkZ7DY1D6yanU3zrLjdvDU3P8wKkDe1RuImpJt
PkKm3YDyGq/mod17EsnOf89j1JVMULEYIft7YowzY8dQIwMCAwEAAaOBojCBnzAJ
BgNVHRMEAjAAMB0GA1UdDgQWBBSil/XAl0Ck05r3c3Rg5xKBFO2AiTBRBgNVHSME
SjBIgBQnBavIEWSVbeopy2EvCpXC02mJEKEapBgwFjEUMBIGA1UEAwwLdGVhbTIz
MS1uZXSCFAwRSJtcPJei2BJ347MtHfure6g2MBMGA1UdJQQMMAoGCCsGAQUFBwMC
MAsGA1UdDwQEAwIHgDANBgkqhkiG9w0BAQsFAAOCAQEAFUO6ae9+g98KeBMfxeom
934YWU560Moz2lpCOw5F+r3eY7kXU51WmZrAoWb41p4917wdUv0TZ0SBK9P/TkZS
mV7PBWaSHGWthMONWy8t3SisF0jZomQesbh+AEhKuqcqZ01m6jDXHY1YdQPYHQgu
DWxZ6CMuO02D8gk1IbH+eEX1ffEp6ZLbHgJ7odVvLMaDvW2iZwv9Sg7PZCLW8TD7
piTbR3SQoGb7Z/3kby6MSWG317gni9MUHXQqUtkw7kJy8+WVtuCQFBzwOmSt74QI
nioqAjlhLW3b5PaP6SeXM4BjFRwce49K0IDbOYGVjOI4rIiMKJ9DyUKYRVL0mk1N
ag==
-----END CERTIFICATE-----
