Certificate:
    Data:
        Version: 3 (0x2)
        Serial Number:
            a7:a7:fc:a0:78:77:e1:1b:17:39:34:90:a6:44:cc:02
        Signature Algorithm: sha256WithRSAEncryption
        Issuer: CN=team15-net
        Validity
            Not Before: Oct 31 16:30:26 2023 GMT
            Not After : Oct 15 16:30:26 2026 GMT
        Subject: CN=team15-server
        Subject Public Key Info:
            Public Key Algorithm: rsaEncryption
                Public-Key: (2048 bit)
                Modulus:
                    00:cb:fe:93:82:ae:ff:5a:96:46:f6:9e:8c:fb:29:
                    72:e8:23:9e:38:cd:70:7e:ef:b5:14:3a:e4:64:3c:
                    e6:ac:fe:d4:a4:38:be:6e:15:12:d6:22:5d:a1:92:
                    13:b3:8e:6e:88:19:34:8c:02:e8:51:c6:84:9b:18:
                    a1:ee:d8:b8:3b:13:86:fb:3c:7a:b1:59:6c:6e:21:
                    86:c0:60:57:25:0e:dd:ec:5c:f0:bf:9a:fc:7f:f9:
                    db:68:f5:ee:07:c8:a2:80:76:e2:ea:78:2d:7f:07:
                    d4:f5:df:69:1c:c9:43:4d:9d:6e:3b:ae:17:fe:05:
                    44:25:d6:62:79:26:fe:16:e2:c2:85:9f:27:21:f8:
                    dc:2f:9f:3c:f0:6e:b7:11:42:a0:2b:93:ca:27:60:
                    97:5e:99:89:61:da:0f:72:07:e8:fb:00:77:17:a1:
                    aa:42:31:d6:7a:0a:c7:96:48:6d:76:49:52:86:96:
                    7e:f6:d3:1b:fb:33:bb:02:9c:c5:d5:91:ca:02:69:
                    74:5c:12:70:e7:19:e1:39:6d:b6:1a:3b:fa:63:37:
                    a2:fb:dd:32:5b:11:8d:32:28:d7:5f:54:3b:8a:fb:
                    ba:af:29:dc:4e:d0:d3:9d:a5:e9:92:69:b6:3a:dd:
                    b8:4c:44:ee:21:71:1f:9a:9b:7c:6c:ca:10:e2:73:
                    8f:cf
                Exponent: 65537 (0x10001)
        X509v3 extensions:
            X509v3 Basic Constraints: 
                CA:FALSE
            X509v3 Subject Key Identifier: 
                FA:32:38:BD:64:2B:2E:7F:46:AA:C9:31:47:2F:24:EA:41:8B:EE:82
            X509v3 Authority Key Identifier: 
                keyid:10:FB:6E:D8:4C:9D:38:F6:0E:96:A5:66:AF:8E:37:8E:3E:9F:3E:06
                DirName:/CN=team15-net
                serial:7F:98:34:EA:B2:21:9A:9C:D5:97:2C:B2:C2:18:7D:FD:31:57:A3:2B
            X509v3 Extended Key Usage: 
                TLS Web Server Authentication
            X509v3 Key Usage: 
                Digital Signature, Key Encipherment
            X509v3 Subject Alternative Name: 
                DNS:team15-server
    Signature Algorithm: sha256WithRSAEncryption
    Signature Value:
        77:bb:ad:20:4d:4e:41:9f:03:62:c0:31:d9:ae:29:5c:3b:11:
        02:be:ba:a6:43:83:4f:28:10:b7:66:82:19:61:6c:44:03:2a:
        1a:c5:24:c1:2e:b9:3d:8c:b7:ee:ed:b8:69:d1:b8:04:9f:7c:
        36:52:c7:90:f0:e1:f4:91:b0:7e:6b:bc:07:b5:6f:30:a9:4d:
        2a:4d:75:c5:06:ff:ba:9e:fa:d2:dd:70:2d:a8:80:ce:d4:50:
        d5:2c:0d:a9:b9:79:75:1b:96:a3:ef:f8:b8:5d:ff:7e:05:64:
        5b:80:fe:08:95:a9:34:dd:61:9a:76:0f:94:33:29:f5:59:aa:
        8a:7f:6f:6f:12:f0:9e:fa:90:90:6e:a5:1f:e4:38:89:65:54:
        bb:37:2d:b9:3c:4a:ac:26:32:43:13:e5:53:e7:4d:f2:e9:35:
        d0:bf:77:8c:12:29:7d:2c:65:6a:57:fa:06:af:e2:3e:23:64:
        0e:f0:4c:7a:f8:6d:e7:1f:a3:57:e0:6a:44:b6:5b:2f:4c:d5:
        f4:a4:b9:cd:9c:bb:0d:36:8c:81:68:8c:b3:a3:22:8a:a0:98:
        7b:0b:16:ec:1c:01:1c:77:d4:7a:d5:fe:69:da:8c:ed:2f:fb:
        dd:71:6d:2a:4b:e7:e9:e6:78:0e:a6:34:4a:83:f3:94:a7:55:
        45:1d:c8:a3
-----BEGIN CERTIFICATE-----
MIIDdDCCAlygAwIBAgIRAKen/KB4d+EbFzk0kKZEzAIwDQYJKoZIhvcNAQELBQAw
FTETMBEGA1UEAwwKdGVhbTE1LW5ldDAeFw0yMzEwMzExNjMwMjZaFw0yNjEwMTUx
NjMwMjZaMBgxFjAUBgNVBAMMDXRlYW0xNS1zZXJ2ZXIwggEiMA0GCSqGSIb3DQEB
AQUAA4IBDwAwggEKAoIBAQDL/pOCrv9alkb2noz7KXLoI544zXB+77UUOuRkPOas
/tSkOL5uFRLWIl2hkhOzjm6IGTSMAuhRxoSbGKHu2Lg7E4b7PHqxWWxuIYbAYFcl
Dt3sXPC/mvx/+dto9e4HyKKAduLqeC1/B9T132kcyUNNnW47rhf+BUQl1mJ5Jv4W
4sKFnych+NwvnzzwbrcRQqArk8onYJdemYlh2g9yB+j7AHcXoapCMdZ6CseWSG12
SVKGln720xv7M7sCnMXVkcoCaXRcEnDnGeE5bbYaO/pjN6L73TJbEY0yKNdfVDuK
+7qvKdxO0NOdpemSabY63bhMRO4hcR+am3xsyhDic4/PAgMBAAGjgbswgbgwCQYD
VR0TBAIwADAdBgNVHQ4EFgQU+jI4vWQrLn9GqskxRy8k6kGL7oIwUAYDVR0jBEkw
R4AUEPtu2EydOPYOlqVmr443jj6fPgahGaQXMBUxEzARBgNVBAMMCnRlYW0xNS1u
ZXSCFH+YNOqyIZqc1ZcsssIYff0xV6MrMBMGA1UdJQQMMAoGCCsGAQUFBwMBMAsG
A1UdDwQEAwIFoDAYBgNVHREEETAPgg10ZWFtMTUtc2VydmVyMA0GCSqGSIb3DQEB
CwUAA4IBAQB3u60gTU5BnwNiwDHZrilcOxECvrqmQ4NPKBC3ZoIZYWxEAyoaxSTB
Lrk9jLfu7bhp0bgEn3w2UseQ8OH0kbB+a7wHtW8wqU0qTXXFBv+6nvrS3XAtqIDO
1FDVLA2puXl1G5aj7/i4Xf9+BWRbgP4Ilak03WGadg+UMyn1WaqKf29vEvCe+pCQ
bqUf5DiJZVS7Ny25PEqsJjJDE+VT503y6TXQv3eMEil9LGVqV/oGr+I+I2QO8Ex6
+G3nH6NX4GpEtlsvTNX0pLnNnLsNNoyBaIyzoyKKoJh7CxbsHAEcd9R61f5p2ozt
L/vdcW0qS+fp5ngOpjRKg/OUp1VFHcij
-----END CERTIFICATE-----
