Certificate:
    Data:
        Version: 3 (0x2)
        Serial Number:
            5a:87:8f:71:d4:28:a4:17:41:d0:4e:52:e4:58:04:e9
        Signature Algorithm: sha256WithRSAEncryption
        Issuer: CN=team93-net
        Validity
            Not Before: Nov  3 20:40:48 2023 GMT
            Not After : Oct 18 20:40:48 2026 GMT
        Subject: CN=team93-client
        Subject Public Key Info:
            Public Key Algorithm: rsaEncryption
                Public-Key: (2048 bit)
                Modulus:
                    00:98:e1:8d:74:e9:41:de:a2:12:52:20:af:6b:54:
                    f9:c3:8d:09:b2:42:21:21:62:88:43:72:a7:cb:7b:
                    56:1c:30:3e:ce:ff:be:44:3a:0c:76:3f:74:01:8f:
                    dc:f8:a0:a6:fd:85:3c:44:02:88:76:c6:99:56:15:
                    2f:b2:63:f1:6f:77:f6:74:bd:4a:69:67:71:32:fe:
                    e5:9d:74:03:d9:a3:d8:bc:14:b5:9a:ba:72:be:eb:
                    86:63:f5:10:7f:e5:f1:26:19:b2:2d:8d:61:94:a2:
                    fe:55:6b:4f:3e:d3:33:00:06:ca:2b:3c:f6:96:13:
                    bc:5e:99:37:1a:d4:69:cb:4a:b4:20:7f:0a:51:e5:
                    36:ac:a5:1f:3a:cb:01:7a:49:05:f0:76:65:68:4c:
                    df:57:51:6c:7b:e3:bd:44:b6:6f:ba:69:03:a6:e9:
                    e0:4d:ca:0a:d8:1d:52:9f:ec:8b:ac:97:be:00:f9:
                    4d:80:08:54:58:ff:d5:ed:fe:a3:3f:48:4c:66:5f:
                    74:91:42:e9:ba:a0:1c:ae:0f:04:5f:31:79:c0:d2:
                    62:e1:c3:1e:c4:78:6b:dd:ea:4a:6a:33:60:02:3d:
                    00:f8:ae:bf:b8:fd:d0:54:17:a9:18:a2:d4:59:72:
                    30:d9:df:01:26:fc:6e:1d:f3:81:9c:4c:6b:80:11:
                    d0:17
                Exponent: 65537 (0x10001)
        X509v3 extensions:
            X509v3 Basic Constraints: 
                CA:FALSE
            X509v3 Subject Key Identifier: 
                F5:C7:31:C5:34:BA:06:72:98:C5:D9:0D:F9:78:77:ED:D5:1B:32:94
            X509v3 Authority Key Identifier: 
                keyid:15:B3:61:F9:0C:3D:66:B9:B2:78:24:00:9D:2B:D5:7E:74:A7:03:0C
                DirName:/CN=team93-net
                serial:1F:D6:E2:D5:C9:96:C4:55:D7:F0:F0:B1:A7:41:70:9F:C9:E5:B1:33
            X509v3 Extended Key Usage: 
                TLS Web Client Authentication
            X509v3 Key Usage: 
                Digital Signature
    Signature Algorithm: sha256WithRSAEncryption
    Signature Value:
        99:87:4e:a8:7c:60:59:c9:d8:61:23:ad:f2:b1:9f:7c:ae:ea:
        0a:5d:2f:f3:51:82:e7:45:09:6d:05:f2:68:72:a1:b5:24:07:
        87:a4:50:57:c5:48:ac:1d:d1:94:ba:44:5a:65:89:8f:94:06:
        1b:57:d4:48:f2:f3:8b:f2:19:70:9f:88:ba:79:4f:56:77:14:
        95:54:92:76:62:49:f1:c0:28:62:4a:6e:c7:61:c3:02:7d:ce:
        9d:19:33:e9:28:9e:7d:23:ac:31:1b:3b:84:c0:b8:bb:ab:34:
        7f:e8:30:ff:a3:54:3e:7f:45:90:7c:a9:5b:48:65:95:70:18:
        42:8e:a7:6f:67:d5:e4:61:78:45:f4:60:5a:12:74:97:3a:31:
        11:62:96:a2:f5:ef:99:9b:72:f1:8e:3c:6f:6e:25:19:46:c0:
        6a:75:01:48:9c:69:82:5b:11:ba:29:05:61:f8:d8:27:c0:88:
        29:7c:a4:0e:2c:62:f7:23:77:d1:a1:ed:c4:be:8e:86:4b:9a:
        c3:78:25:3e:de:c2:39:46:f1:6c:b5:b4:81:36:70:09:9e:dd:
        79:8d:91:a4:eb:12:94:d7:de:d0:00:11:5c:f6:db:e7:bd:2e:
        02:1c:ed:e0:b8:7a:28:dc:6d:8b:15:47:d9:5c:6f:71:20:15:
        20:3c:15:9e
-----BEGIN CERTIFICATE-----
MIIDWTCCAkGgAwIBAgIQWoePcdQopBdB0E5S5FgE6TANBgkqhkiG9w0BAQsFADAV
MRMwEQYDVQQDDAp0ZWFtOTMtbmV0MB4XDTIzMTEwMzIwNDA0OFoXDTI2MTAxODIw
NDA0OFowGDEWMBQGA1UEAwwNdGVhbTkzLWNsaWVudDCCASIwDQYJKoZIhvcNAQEB
BQADggEPADCCAQoCggEBAJjhjXTpQd6iElIgr2tU+cONCbJCISFiiENyp8t7Vhww
Ps7/vkQ6DHY/dAGP3Pigpv2FPEQCiHbGmVYVL7Jj8W939nS9SmlncTL+5Z10A9mj
2LwUtZq6cr7rhmP1EH/l8SYZsi2NYZSi/lVrTz7TMwAGyis89pYTvF6ZNxrUactK
tCB/ClHlNqylHzrLAXpJBfB2ZWhM31dRbHvjvUS2b7ppA6bp4E3KCtgdUp/si6yX
vgD5TYAIVFj/1e3+oz9ITGZfdJFC6bqgHK4PBF8xecDSYuHDHsR4a93qSmozYAI9
APiuv7j90FQXqRii1FlyMNnfASb8bh3zgZxMa4AR0BcCAwEAAaOBoTCBnjAJBgNV
HRMEAjAAMB0GA1UdDgQWBBT1xzHFNLoGcpjF2Q35eHft1RsylDBQBgNVHSMESTBH
gBQVs2H5DD1mubJ4JACdK9V+dKcDDKEZpBcwFTETMBEGA1UEAwwKdGVhbTkzLW5l
dIIUH9bi1cmWxFXX8PCxp0Fwn8nlsTMwEwYDVR0lBAwwCgYIKwYBBQUHAwIwCwYD
VR0PBAQDAgeAMA0GCSqGSIb3DQEBCwUAA4IBAQCZh06ofGBZydhhI63ysZ98ruoK
XS/zUYLnRQltBfJocqG1JAeHpFBXxUisHdGUukRaZYmPlAYbV9RI8vOL8hlwn4i6
eU9WdxSVVJJ2YknxwChiSm7HYcMCfc6dGTPpKJ59I6wxGzuEwLi7qzR/6DD/o1Q+
f0WQfKlbSGWVcBhCjqdvZ9XkYXhF9GBaEnSXOjERYpai9e+Zm3LxjjxvbiUZRsBq
dQFInGmCWxG6KQVh+NgnwIgpfKQOLGL3I3fRoe3Evo6GS5rDeCU+3sI5RvFstbSB
NnAJnt15jZGk6xKU197QABFc9tvnvS4CHO3guHoo3G2LFUfZXG9xIBUgPBWe
-----END CERTIFICATE-----
