Certificate:
    Data:
        Version: 3 (0x2)
        Serial Number:
            83:67:c6:55:66:8a:b2:fb:e5:e4:f8:61:6f:2a:67:5d
        Signature Algorithm: sha256WithRSAEncryption
        Issuer: CN=team93-net
        Validity
            Not Before: Nov  4 11:29:14 2023 GMT
            Not After : Oct 19 11:29:14 2026 GMT
        Subject: CN=team93-server
        Subject Public Key Info:
            Public Key Algorithm: rsaEncryption
                Public-Key: (2048 bit)
                Modulus:
                    00:b5:52:51:88:d8:c7:95:3b:22:66:60:4c:e7:43:
                    0b:91:60:98:7a:ae:13:ef:46:74:ac:0a:49:9b:a2:
                    db:01:a6:2e:b4:aa:39:96:24:28:dd:fa:93:0d:5f:
                    ac:44:19:f8:28:fd:01:ce:64:e6:7c:f0:a7:51:a9:
                    f0:c0:90:61:d9:00:0a:97:68:64:1f:1b:db:c0:fe:
                    b0:1b:23:b1:02:f8:62:6c:c1:22:fb:dc:98:15:12:
                    17:a4:da:99:6c:fa:68:ed:a4:4f:f5:32:da:81:5c:
                    02:62:9c:99:54:ec:12:b6:95:f4:7d:5e:f1:8e:68:
                    71:8e:eb:0e:02:7f:3c:d3:a8:e6:dc:93:e0:12:ae:
                    ea:99:79:bf:db:33:51:f0:91:2f:45:6e:38:cb:97:
                    c1:e1:06:a8:10:5a:68:1a:4d:64:dc:f2:e2:d3:3d:
                    80:8d:4c:01:7f:f4:5a:a1:21:74:b5:f4:09:e6:79:
                    18:92:52:26:52:c0:ca:a9:1e:ef:6d:02:d0:42:ce:
                    0a:43:f1:4a:af:16:4b:2a:d3:c4:3e:71:81:76:20:
                    b2:d5:e7:e4:d9:4b:9d:61:9d:5e:e7:c4:de:45:f3:
                    0f:4b:50:7f:5b:60:8a:1b:7e:90:60:e2:19:bf:87:
                    81:00:be:a4:af:ca:e0:38:61:8d:b6:76:6a:2f:da:
                    7c:bd
                Exponent: 65537 (0x10001)
        X509v3 extensions:
            X509v3 Basic Constraints: 
                CA:FALSE
            X509v3 Subject Key Identifier: 
                49:67:1C:DB:96:E6:E0:5B:70:0A:67:13:2B:65:0C:E6:83:67:40:A9
            X509v3 Authority Key Identifier: 
                keyid:07:BD:A4:CD:72:16:1F:14:A1:47:A1:DA:FC:19:B0:61:01:EC:02:4C
                DirName:/CN=team93-net
                serial:59:18:B6:CF:46:1C:FF:D1:9B:A6:CF:86:00:3D:45:5B:66:1F:C4:89
            X509v3 Extended Key Usage: 
                TLS Web Server Authentication
            X509v3 Key Usage: 
                Digital Signature, Key Encipherment
            X509v3 Subject Alternative Name: 
                DNS:team93-server
    Signature Algorithm: sha256WithRSAEncryption
    Signature Value:
        9c:0e:c0:8a:55:b4:e1:91:72:a4:a7:d5:ab:95:e2:4e:18:66:
        d2:17:a7:34:c1:d9:a5:3b:eb:98:2a:d5:5b:4c:a2:81:0f:9f:
        f3:ab:55:10:3d:99:59:de:6e:88:08:ca:7f:d1:99:90:15:ff:
        21:f5:fd:19:33:8e:e3:86:ec:17:4d:d6:6b:3b:10:67:90:94:
        c7:17:a4:64:cd:1d:79:17:5c:15:d1:23:11:e2:04:66:11:f1:
        f7:8b:40:e3:bc:51:63:bd:a2:9a:08:09:fc:80:b1:73:58:b2:
        2e:93:64:80:90:4e:a4:78:6a:b1:53:29:15:6b:7c:47:8e:b7:
        1c:b9:61:40:0e:89:02:62:ec:21:b6:2e:99:8e:73:af:08:fb:
        fb:b0:8c:fc:6d:19:35:76:f9:44:bb:84:c6:00:b9:d2:99:7d:
        cc:0a:6f:d5:89:d2:9a:cf:c7:0d:d0:2a:b3:f9:c7:bc:b5:89:
        a6:50:4b:00:14:88:5d:38:78:2d:5f:9f:7a:b3:85:86:1c:78:
        38:4b:42:a5:9c:d1:68:35:6f:c0:05:09:2e:bb:54:92:a1:ec:
        a6:da:28:12:6c:10:8f:65:11:a7:ee:5a:b5:0e:3a:f1:64:80:
        3e:54:bd:b7:e1:fd:80:da:d1:fd:51:b6:f6:36:c1:b5:2d:15:
        98:6a:1a:83
-----BEGIN CERTIFICATE-----
MIIDdDCCAlygAwIBAgIRAINnxlVmirL75eT4YW8qZ10wDQYJKoZIhvcNAQELBQAw
FTETMBEGA1UEAwwKdGVhbTkzLW5ldDAeFw0yMzExMDQxMTI5MTRaFw0yNjEwMTkx
MTI5MTRaMBgxFjAUBgNVBAMMDXRlYW05My1zZXJ2ZXIwggEiMA0GCSqGSIb3DQEB
AQUAA4IBDwAwggEKAoIBAQC1UlGI2MeVOyJmYEznQwuRYJh6rhPvRnSsCkmbotsB
pi60qjmWJCjd+pMNX6xEGfgo/QHOZOZ88KdRqfDAkGHZAAqXaGQfG9vA/rAbI7EC
+GJswSL73JgVEhek2pls+mjtpE/1MtqBXAJinJlU7BK2lfR9XvGOaHGO6w4CfzzT
qObck+ASruqZeb/bM1HwkS9FbjjLl8HhBqgQWmgaTWTc8uLTPYCNTAF/9FqhIXS1
9AnmeRiSUiZSwMqpHu9tAtBCzgpD8UqvFksq08Q+cYF2ILLV5+TZS51hnV7nxN5F
8w9LUH9bYIobfpBg4hm/h4EAvqSvyuA4YY22dmov2ny9AgMBAAGjgbswgbgwCQYD
VR0TBAIwADAdBgNVHQ4EFgQUSWcc25bm4FtwCmcTK2UM5oNnQKkwUAYDVR0jBEkw
R4AUB72kzXIWHxShR6Ha/BmwYQHsAkyhGaQXMBUxEzARBgNVBAMMCnRlYW05My1u
ZXSCFFkYts9GHP/Rm6bPhgA9RVtmH8SJMBMGA1UdJQQMMAoGCCsGAQUFBwMBMAsG
A1UdDwQEAwIFoDAYBgNVHREEETAPgg10ZWFtOTMtc2VydmVyMA0GCSqGSIb3DQEB
CwUAA4IBAQCcDsCKVbThkXKkp9WrleJOGGbSF6c0wdmlO+uYKtVbTKKBD5/zq1UQ
PZlZ3m6ICMp/0ZmQFf8h9f0ZM47jhuwXTdZrOxBnkJTHF6RkzR15F1wV0SMR4gRm
EfH3i0DjvFFjvaKaCAn8gLFzWLIuk2SAkE6keGqxUykVa3xHjrccuWFADokCYuwh
ti6ZjnOvCPv7sIz8bRk1dvlEu4TGALnSmX3MCm/VidKaz8cN0Cqz+ce8tYmmUEsA
FIhdOHgtX596s4WGHHg4S0KlnNFoNW/ABQkuu1SSoeym2igSbBCPZRGn7lq1Djrx
ZIA+VL234f2A2tH9Ubb2NsG1LRWYahqD
-----END CERTIFICATE-----
