Certificate:
    Data:
        Version: 3 (0x2)
        Serial Number:
            50:37:89:d1:4d:71:17:0b:24:50:f2:cf:af:ca:93:e2
        Signature Algorithm: sha256WithRSAEncryption
        Issuer: CN=team107-net
        Validity
            Not Before: Nov  4 10:42:24 2023 GMT
            Not After : Oct 19 10:42:24 2026 GMT
        Subject: CN=team107-server
        Subject Public Key Info:
            Public Key Algorithm: rsaEncryption
                Public-Key: (2048 bit)
                Modulus:
                    00:c9:0b:3e:96:55:ae:6a:e8:f7:d0:df:97:0b:7a:
                    33:c1:b6:18:93:85:51:ae:2b:a3:c4:31:c6:e2:1d:
                    65:1a:fc:a6:c6:25:ea:8a:40:75:c6:e0:b2:f3:ff:
                    25:85:56:f8:a6:eb:10:44:25:2e:6e:f8:ef:b3:e3:
                    29:45:6f:76:8c:ef:f4:a1:d4:59:ab:55:7e:ba:36:
                    42:2b:4d:19:7d:43:0d:c5:21:c6:d2:de:77:68:af:
                    70:91:65:a6:14:85:83:58:ff:d2:46:c0:6f:fc:9f:
                    6f:17:a1:32:32:06:fb:c8:b8:65:f0:27:98:36:21:
                    60:f0:a7:1a:49:49:8a:03:27:1c:bc:57:a7:80:0c:
                    27:25:f0:c4:db:e8:c0:0e:7d:9c:f5:06:ed:98:fa:
                    e4:0b:6a:be:09:ae:95:c4:f6:77:e1:89:23:28:e9:
                    2c:ad:70:3f:f3:4f:17:a6:db:d4:b7:dd:88:13:92:
                    32:fc:5e:e5:df:6e:c4:ad:71:45:25:b9:81:12:e0:
                    34:20:a3:3a:74:23:25:be:4c:82:62:6c:f3:e7:8b:
                    c0:8c:67:32:a8:8a:20:bf:07:c9:44:fc:e2:04:aa:
                    51:c9:c0:f8:86:79:fa:07:9c:93:67:8d:ca:4c:7a:
                    7c:d1:3f:86:b6:77:54:54:4f:47:c7:0d:3f:da:13:
                    1f:2b
                Exponent: 65537 (0x10001)
        X509v3 extensions:
            X509v3 Basic Constraints: 
                CA:FALSE
            X509v3 Subject Key Identifier: 
                1B:E4:F8:C6:7E:79:72:1C:31:B8:E4:3F:11:B4:AF:3B:78:35:0A:25
            X509v3 Authority Key Identifier: 
                keyid:5D:39:7F:F3:CB:94:78:B3:EA:2C:C4:E0:22:95:C9:C3:6A:BE:FD:4E
                DirName:/CN=team107-net
                serial:38:77:ED:29:1A:A0:F0:E7:2C:CD:AA:42:70:FF:97:BA:A0:7E:16:E7
            X509v3 Extended Key Usage: 
                TLS Web Server Authentication
            X509v3 Key Usage: 
                Digital Signature, Key Encipherment
            X509v3 Subject Alternative Name: 
                DNS:team107-server
    Signature Algorithm: sha256WithRSAEncryption
    Signature Value:
        10:15:48:b1:14:63:c8:96:ef:66:2d:af:b9:9a:0d:20:ba:d9:
        a5:b1:07:6a:03:91:f0:85:fc:dd:2e:cc:c0:31:ea:ff:e1:df:
        46:d6:f6:ac:86:10:09:3b:a7:29:17:f3:b3:96:f4:42:ca:fe:
        a0:cf:83:5e:9d:b0:4e:06:39:01:ae:df:51:38:e8:31:9b:a5:
        39:22:35:4f:8b:8c:63:d7:77:51:28:00:b3:d2:41:ff:d9:d6:
        79:ee:0f:94:7a:74:61:69:37:e3:39:c1:0d:f8:5e:60:a8:12:
        98:d5:7b:23:df:65:55:3d:31:e2:e8:24:19:73:19:8a:0a:06:
        51:eb:f8:e2:ca:8a:90:7f:18:c0:c4:9d:71:2f:cf:7c:54:19:
        51:29:90:2c:2f:91:2e:0b:c9:0c:16:4d:9e:f0:51:b5:c3:ed:
        14:dd:42:b1:72:4d:ae:27:69:84:25:7f:ba:f8:73:04:2f:f7:
        71:87:9c:44:08:3c:fe:e0:6e:5b:e8:20:54:b6:0a:e1:9e:8f:
        8f:88:55:ef:d0:22:70:8f:be:71:37:3f:0c:ae:87:c0:08:fb:
        e0:22:b6:b3:af:ec:69:55:af:17:8b:56:d6:01:ef:e1:5b:79:
        8f:ca:e2:8d:da:aa:91:2c:b2:e4:a0:9f:d1:da:7b:22:20:d8:
        86:02:7e:97
-----BEGIN CERTIFICATE-----
MIIDdzCCAl+gAwIBAgIQUDeJ0U1xFwskUPLPr8qT4jANBgkqhkiG9w0BAQsFADAW
MRQwEgYDVQQDDAt0ZWFtMTA3LW5ldDAeFw0yMzExMDQxMDQyMjRaFw0yNjEwMTkx
MDQyMjRaMBkxFzAVBgNVBAMMDnRlYW0xMDctc2VydmVyMIIBIjANBgkqhkiG9w0B
AQEFAAOCAQ8AMIIBCgKCAQEAyQs+llWuauj30N+XC3ozwbYYk4VRriujxDHG4h1l
GvymxiXqikB1xuCy8/8lhVb4pusQRCUubvjvs+MpRW92jO/0odRZq1V+ujZCK00Z
fUMNxSHG0t53aK9wkWWmFIWDWP/SRsBv/J9vF6EyMgb7yLhl8CeYNiFg8KcaSUmK
AyccvFengAwnJfDE2+jADn2c9QbtmPrkC2q+Ca6VxPZ34YkjKOksrXA/808XptvU
t92IE5Iy/F7l327ErXFFJbmBEuA0IKM6dCMlvkyCYmzz54vAjGcyqIogvwfJRPzi
BKpRycD4hnn6B5yTZ43KTHp80T+GtndUVE9Hxw0/2hMfKwIDAQABo4G9MIG6MAkG
A1UdEwQCMAAwHQYDVR0OBBYEFBvk+MZ+eXIcMbjkPxG0rzt4NQolMFEGA1UdIwRK
MEiAFF05f/PLlHiz6izE4CKVycNqvv1OoRqkGDAWMRQwEgYDVQQDDAt0ZWFtMTA3
LW5ldIIUOHftKRqg8OcszapCcP+XuqB+FucwEwYDVR0lBAwwCgYIKwYBBQUHAwEw
CwYDVR0PBAQDAgWgMBkGA1UdEQQSMBCCDnRlYW0xMDctc2VydmVyMA0GCSqGSIb3
DQEBCwUAA4IBAQAQFUixFGPIlu9mLa+5mg0gutmlsQdqA5HwhfzdLszAMer/4d9G
1vashhAJO6cpF/OzlvRCyv6gz4NenbBOBjkBrt9ROOgxm6U5IjVPi4xj13dRKACz
0kH/2dZ57g+UenRhaTfjOcEN+F5gqBKY1Xsj32VVPTHi6CQZcxmKCgZR6/jiyoqQ
fxjAxJ1xL898VBlRKZAsL5EuC8kMFk2e8FG1w+0U3UKxck2uJ2mEJX+6+HMEL/dx
h5xECDz+4G5b6CBUtgrhno+PiFXv0CJwj75xNz8MrofACPvgIrazr+xpVa8Xi1bW
Ae/hW3mPyuKN2qqRLLLkoJ/R2nsiINiGAn6X
-----END CERTIFICATE-----
