Certificate:
    Data:
        Version: 3 (0x2)
        Serial Number:
            b6:7f:fc:3a:f2:9c:dd:0b:dd:70:2a:85:94:98:ae:be
        Signature Algorithm: sha256WithRSAEncryption
        Issuer: CN=team107-net
        Validity
            Not Before: Nov  4 11:29:33 2023 GMT
            Not After : Oct 19 11:29:33 2026 GMT
        Subject: CN=team107-client
        Subject Public Key Info:
            Public Key Algorithm: rsaEncryption
                Public-Key: (2048 bit)
                Modulus:
                    00:96:1a:1a:14:fa:3a:c6:af:16:ca:4d:bb:7a:ad:
                    e5:ca:43:89:53:91:24:98:22:5c:4b:bf:ec:4d:7c:
                    5c:5d:86:b5:0e:d6:ba:ca:23:f2:fc:7e:a5:17:80:
                    d5:31:b8:30:02:18:d4:10:63:f1:73:78:27:fe:c9:
                    15:cb:bd:f5:8a:ac:75:7f:60:5a:27:bc:4f:90:7f:
                    92:16:b9:bc:04:7e:39:bf:88:a9:f9:b6:f6:e7:e2:
                    a4:84:33:c1:ee:ec:94:0e:ac:be:c6:66:d2:e7:a2:
                    c6:d7:d7:aa:6c:fd:f6:44:92:91:1b:b4:c4:c7:2b:
                    6e:73:75:60:b2:72:1b:d8:bc:77:1a:73:1a:49:8a:
                    b0:26:bc:02:85:f1:16:4b:34:b2:ae:b4:7e:30:84:
                    09:69:cf:83:f8:2e:c6:0c:58:ce:87:4f:28:0c:5e:
                    f2:f2:83:93:67:ba:1b:56:10:05:72:8a:78:15:98:
                    11:24:8d:eb:1e:cf:5b:49:ca:ec:4f:58:58:32:ff:
                    8b:e6:69:14:8d:63:9a:d8:fc:68:f3:d1:17:27:48:
                    d7:b9:8f:15:14:f8:68:ed:78:04:85:c4:f9:12:d0:
                    1d:c1:dc:67:8c:34:06:a4:b1:ee:d9:ca:3b:a1:df:
                    93:22:5a:d2:17:dc:e9:f0:2b:22:2a:e2:23:1b:b8:
                    aa:05
                Exponent: 65537 (0x10001)
        X509v3 extensions:
            X509v3 Basic Constraints: 
                CA:FALSE
            X509v3 Subject Key Identifier: 
                B1:82:D8:71:49:4F:74:28:D6:5E:DA:8B:74:E7:CA:A5:C8:CD:59:FC
            X509v3 Authority Key Identifier: 
                keyid:31:39:55:26:30:0D:7F:0D:39:DF:F6:83:EE:8D:69:AB:39:94:BB:7C
                DirName:/CN=team107-net
                serial:01:73:D2:65:5B:0A:6C:F0:1C:21:76:45:F8:FD:12:CC:24:5B:65:EF
            X509v3 Extended Key Usage: 
                TLS Web Client Authentication
            X509v3 Key Usage: 
                Digital Signature
    Signature Algorithm: sha256WithRSAEncryption
    Signature Value:
        7e:3e:da:05:f0:e6:a3:f6:ed:04:35:37:1c:7a:a1:1b:eb:51:
        02:38:1b:98:49:be:ce:18:7c:ca:d9:14:7a:ed:a0:fd:b2:93:
        58:20:fc:b8:84:fd:09:0e:b0:16:5f:09:87:98:b8:2e:d5:6f:
        6b:4c:a2:a2:a2:7f:ff:d0:47:fd:e0:25:83:33:9b:ee:c3:f6:
        65:ec:69:03:d1:00:08:db:8c:55:5d:78:09:fd:e7:2d:59:fc:
        7c:bd:e6:27:76:d4:9a:51:76:7c:51:24:bb:e7:2a:ac:a7:63:
        04:16:87:c0:f1:b8:ee:dd:46:c6:83:6d:3e:91:1e:33:28:9b:
        e6:2d:05:19:a4:7a:6a:c6:ee:59:d7:df:fe:93:cb:b8:26:38:
        d6:79:0e:97:34:6a:63:48:fe:3a:cf:42:6c:2f:bc:93:13:35:
        2c:e8:7e:d5:86:df:d6:2f:0c:9c:9e:9d:f5:10:82:c4:f8:38:
        71:92:d3:03:5b:c4:90:7c:17:b1:07:12:b6:4a:cf:89:e3:cc:
        b9:38:fa:13:f6:d6:ab:e0:68:56:f8:af:61:c7:80:61:b9:27:
        a4:d5:2d:3f:91:81:ad:e0:22:e6:a5:da:fa:81:bc:67:ef:4a:
        cf:40:4a:f7:9f:b0:41:a4:13:0d:ab:e7:43:ed:72:ff:f6:6e:
        fe:f4:9d:5b
-----BEGIN CERTIFICATE-----
MIIDXTCCAkWgAwIBAgIRALZ//DrynN0L3XAqhZSYrr4wDQYJKoZIhvcNAQELBQAw
FjEUMBIGA1UEAwwLdGVhbTEwNy1uZXQwHhcNMjMxMTA0MTEyOTMzWhcNMjYxMDE5
MTEyOTMzWjAZMRcwFQYDVQQDDA50ZWFtMTA3LWNsaWVudDCCASIwDQYJKoZIhvcN
AQEBBQADggEPADCCAQoCggEBAJYaGhT6OsavFspNu3qt5cpDiVORJJgiXEu/7E18
XF2GtQ7Wusoj8vx+pReA1TG4MAIY1BBj8XN4J/7JFcu99YqsdX9gWie8T5B/kha5
vAR+Ob+Iqfm29ufipIQzwe7slA6svsZm0ueixtfXqmz99kSSkRu0xMcrbnN1YLJy
G9i8dxpzGkmKsCa8AoXxFks0sq60fjCECWnPg/guxgxYzodPKAxe8vKDk2e6G1YQ
BXKKeBWYESSN6x7PW0nK7E9YWDL/i+ZpFI1jmtj8aPPRFydI17mPFRT4aO14BIXE
+RLQHcHcZ4w0BqSx7tnKO6HfkyJa0hfc6fArIiriIxu4qgUCAwEAAaOBojCBnzAJ
BgNVHRMEAjAAMB0GA1UdDgQWBBSxgthxSU90KNZe2ot058qlyM1Z/DBRBgNVHSME
SjBIgBQxOVUmMA1/DTnf9oPujWmrOZS7fKEapBgwFjEUMBIGA1UEAwwLdGVhbTEw
Ny1uZXSCFAFz0mVbCmzwHCF2Rfj9EswkW2XvMBMGA1UdJQQMMAoGCCsGAQUFBwMC
MAsGA1UdDwQEAwIHgDANBgkqhkiG9w0BAQsFAAOCAQEAfj7aBfDmo/btBDU3HHqh
G+tRAjgbmEm+zhh8ytkUeu2g/bKTWCD8uIT9CQ6wFl8Jh5i4LtVva0yioqJ//9BH
/eAlgzOb7sP2ZexpA9EACNuMVV14Cf3nLVn8fL3mJ3bUmlF2fFEku+cqrKdjBBaH
wPG47t1GxoNtPpEeMyib5i0FGaR6asbuWdff/pPLuCY41nkOlzRqY0j+Os9CbC+8
kxM1LOh+1Ybf1i8MnJ6d9RCCxPg4cZLTA1vEkHwXsQcStkrPiePMuTj6E/bWq+Bo
VvivYceAYbknpNUtP5GBreAi5qXa+oG8Z+9Kz0BK95+wQaQTDavnQ+1y//Zu/vSd
Ww==
-----END CERTIFICATE-----
