Certificate:
    Data:
        Version: 3 (0x2)
        Serial Number:
            e0:d0:76:b5:11:d5:31:e9:bb:e5:6d:d5:43:9c:10:2f
        Signature Algorithm: sha256WithRSAEncryption
        Issuer: CN=team107-net
        Validity
            Not Before: Nov  4 11:29:33 2023 GMT
            Not After : Oct 19 11:29:33 2026 GMT
        Subject: CN=team107-server
        Subject Public Key Info:
            Public Key Algorithm: rsaEncryption
                Public-Key: (2048 bit)
                Modulus:
                    00:ce:94:23:63:eb:dd:53:d3:f0:2b:38:4b:a7:a6:
                    79:c5:8f:14:db:74:1f:1c:b1:38:09:4c:0f:93:ba:
                    0d:b2:e2:bd:ad:7a:16:a5:40:fc:b3:76:2a:05:70:
                    4b:06:3c:ca:be:05:22:f7:26:3e:b6:f1:e3:53:c5:
                    a2:61:0b:58:57:5b:36:e5:4e:1a:51:3b:af:9f:94:
                    8d:e3:66:6b:fb:60:bd:8d:96:85:55:b6:8a:e5:a9:
                    0c:7a:a6:08:13:30:ac:11:f7:75:a2:c3:1b:5c:10:
                    b4:41:37:3b:48:c4:4c:d5:db:1b:93:26:b0:93:75:
                    ab:32:46:8f:76:e0:4b:61:86:14:f6:7e:23:cc:ee:
                    dc:38:4f:86:6d:54:63:0c:5f:61:ee:43:c7:e1:ce:
                    f1:65:fe:d7:3e:cf:67:86:c8:39:87:c5:a8:a7:13:
                    54:5a:02:e0:12:f9:bb:3a:4d:4e:da:bf:98:eb:8a:
                    71:91:b2:7d:23:bf:c6:f5:c4:8c:2d:ff:b9:3e:98:
                    76:e2:a7:87:be:7a:c0:17:62:96:42:26:be:16:c1:
                    ca:16:d7:f4:6b:cb:98:a8:fe:3a:c5:9f:53:e9:b7:
                    12:4e:77:50:1d:89:83:89:1f:e3:43:7c:c4:0e:97:
                    d8:f9:b6:4f:54:7b:b6:1a:74:1d:72:43:38:bc:17:
                    2e:47
                Exponent: 65537 (0x10001)
        X509v3 extensions:
            X509v3 Basic Constraints: 
                CA:FALSE
            X509v3 Subject Key Identifier: 
                43:BE:46:4C:D2:22:CD:F5:A1:F5:88:34:19:99:7F:C4:03:E5:47:38
            X509v3 Authority Key Identifier: 
                keyid:31:39:55:26:30:0D:7F:0D:39:DF:F6:83:EE:8D:69:AB:39:94:BB:7C
                DirName:/CN=team107-net
                serial:01:73:D2:65:5B:0A:6C:F0:1C:21:76:45:F8:FD:12:CC:24:5B:65:EF
            X509v3 Extended Key Usage: 
                TLS Web Server Authentication
            X509v3 Key Usage: 
                Digital Signature, Key Encipherment
            X509v3 Subject Alternative Name: 
                DNS:team107-server
    Signature Algorithm: sha256WithRSAEncryption
    Signature Value:
        d0:69:cf:9c:be:2c:67:a7:85:13:14:0b:46:48:ef:c6:b6:6c:
        50:b7:8e:39:66:87:7c:00:d3:29:85:47:2f:64:f6:3b:44:5b:
        4d:df:f5:b0:ee:a6:1d:b1:72:f2:b9:c4:ea:47:31:c9:b8:df:
        34:0d:24:bc:6a:0a:12:66:73:24:55:e0:01:1b:32:04:8b:d8:
        95:62:e9:4b:0a:66:e3:9c:78:50:d8:0b:c1:e8:9a:04:d4:3d:
        a8:f3:e5:2c:b1:44:e8:40:97:d4:32:d8:58:b7:93:ff:8c:c4:
        aa:2d:07:23:0b:2f:ba:1f:54:84:46:9e:47:7f:91:73:41:35:
        16:b2:ed:c7:c5:4a:c7:78:96:c0:a5:39:e5:7e:ae:a2:f6:44:
        90:d3:ff:2c:ac:40:0d:f4:36:77:7d:80:bd:34:a9:d8:95:c0:
        01:8b:bd:73:91:0c:1f:5a:7d:0d:95:46:d1:0b:2e:eb:f5:87:
        02:2b:27:b4:dd:7d:d1:c6:83:a0:ce:e3:44:b3:39:29:08:84:
        15:3d:36:e7:43:0d:c1:99:bb:80:f1:6f:25:14:8f:95:34:64:
        e5:0e:e9:35:96:be:2e:32:9a:2b:1b:5e:a6:28:c7:1a:c2:f0:
        3e:be:39:93:a9:ef:99:f1:a3:66:2a:5c:d1:01:3e:e7:95:77:
        16:33:30:e0
-----BEGIN CERTIFICATE-----
MIIDeDCCAmCgAwIBAgIRAODQdrUR1THpu+Vt1UOcEC8wDQYJKoZIhvcNAQELBQAw
FjEUMBIGA1UEAwwLdGVhbTEwNy1uZXQwHhcNMjMxMTA0MTEyOTMzWhcNMjYxMDE5
MTEyOTMzWjAZMRcwFQYDVQQDDA50ZWFtMTA3LXNlcnZlcjCCASIwDQYJKoZIhvcN
AQEBBQADggEPADCCAQoCggEBAM6UI2Pr3VPT8Cs4S6emecWPFNt0HxyxOAlMD5O6
DbLiva16FqVA/LN2KgVwSwY8yr4FIvcmPrbx41PFomELWFdbNuVOGlE7r5+UjeNm
a/tgvY2WhVW2iuWpDHqmCBMwrBH3daLDG1wQtEE3O0jETNXbG5MmsJN1qzJGj3bg
S2GGFPZ+I8zu3DhPhm1UYwxfYe5Dx+HO8WX+1z7PZ4bIOYfFqKcTVFoC4BL5uzpN
Ttq/mOuKcZGyfSO/xvXEjC3/uT6YduKnh756wBdilkImvhbByhbX9GvLmKj+OsWf
U+m3Ek53UB2Jg4kf40N8xA6X2Pm2T1R7thp0HXJDOLwXLkcCAwEAAaOBvTCBujAJ
BgNVHRMEAjAAMB0GA1UdDgQWBBRDvkZM0iLN9aH1iDQZmX/EA+VHODBRBgNVHSME
SjBIgBQxOVUmMA1/DTnf9oPujWmrOZS7fKEapBgwFjEUMBIGA1UEAwwLdGVhbTEw
Ny1uZXSCFAFz0mVbCmzwHCF2Rfj9EswkW2XvMBMGA1UdJQQMMAoGCCsGAQUFBwMB
MAsGA1UdDwQEAwIFoDAZBgNVHREEEjAQgg50ZWFtMTA3LXNlcnZlcjANBgkqhkiG
9w0BAQsFAAOCAQEA0GnPnL4sZ6eFExQLRkjvxrZsULeOOWaHfADTKYVHL2T2O0Rb
Td/1sO6mHbFy8rnE6kcxybjfNA0kvGoKEmZzJFXgARsyBIvYlWLpSwpm45x4UNgL
weiaBNQ9qPPlLLFE6ECX1DLYWLeT/4zEqi0HIwsvuh9UhEaeR3+Rc0E1FrLtx8VK
x3iWwKU55X6uovZEkNP/LKxADfQ2d32AvTSp2JXAAYu9c5EMH1p9DZVG0Qsu6/WH
AisntN190caDoM7jRLM5KQiEFT0250MNwZm7gPFvJRSPlTRk5Q7pNZa+LjKaKxte
pijHGsLwPr45k6nvmfGjZipc0QE+55V3FjMw4A==
-----END CERTIFICATE-----
