Certificate:
    Data:
        Version: 3 (0x2)
        Serial Number:
            1d:92:4c:6a:a1:86:89:02:02:32:8b:d0:19:53:e0:1b
        Signature Algorithm: sha256WithRSAEncryption
        Issuer: CN=team250-net
        Validity
            Not Before: Nov  3 20:43:52 2023 GMT
            Not After : Oct 18 20:43:52 2026 GMT
        Subject: CN=team250-client
        Subject Public Key Info:
            Public Key Algorithm: rsaEncryption
                Public-Key: (2048 bit)
                Modulus:
                    00:a6:c1:f9:41:46:3f:f2:ca:96:c7:44:6f:73:26:
                    2e:e5:cc:90:b7:45:2a:43:b9:48:37:74:f1:76:54:
                    55:50:ca:d9:cd:d2:96:34:bd:6a:58:af:07:48:8d:
                    bc:5b:ee:0e:85:ed:a3:bb:13:9a:aa:ee:d2:11:3c:
                    b2:f7:93:e1:d9:3c:1d:46:be:51:d6:14:1e:32:6d:
                    6b:1a:27:ee:ae:a7:f8:ae:ab:09:8a:33:95:77:e2:
                    a7:95:e0:10:d5:1f:6f:67:bf:eb:f5:63:be:ff:6e:
                    02:b4:13:d2:f6:df:1a:b8:fe:19:1a:1c:f0:1d:6c:
                    bc:54:8d:a8:8a:e5:1f:8e:13:e1:ee:06:15:76:71:
                    92:af:b6:87:da:28:a9:81:23:7c:0b:05:50:bf:8c:
                    e7:7f:83:7a:40:38:48:e1:d7:72:f3:86:94:10:6f:
                    c2:16:bc:ff:f7:71:fc:ec:b7:02:7b:74:33:47:ef:
                    32:0b:0a:29:c9:c4:d0:06:90:f4:50:66:b2:e5:4f:
                    f4:32:31:da:01:4d:3f:a6:c7:b8:54:47:28:96:0c:
                    bf:7b:4b:65:02:04:01:0d:6a:46:71:01:5a:e2:0e:
                    b1:52:94:1b:08:a1:37:16:35:8e:c1:25:61:1b:9a:
                    a0:a9:ed:e5:34:11:65:5b:50:5f:d9:14:c0:ae:1d:
                    5d:6b
                Exponent: 65537 (0x10001)
        X509v3 extensions:
            X509v3 Basic Constraints: 
                CA:FALSE
            X509v3 Subject Key Identifier: 
                C3:49:D1:AD:6C:56:A6:89:B2:CD:08:88:C1:E0:E1:29:2C:21:87:88
            X509v3 Authority Key Identifier: 
                keyid:29:DC:53:9D:B3:C6:4F:93:B8:E0:9B:93:78:E3:90:CF:EE:5C:91:1B
                DirName:/CN=team250-net
                serial:22:27:A3:71:E1:D1:6C:6B:B3:C2:F7:C7:2B:42:29:06:EC:AA:37:7E
            X509v3 Extended Key Usage: 
                TLS Web Client Authentication
            X509v3 Key Usage: 
                Digital Signature
    Signature Algorithm: sha256WithRSAEncryption
    Signature Value:
        ab:6f:63:12:ea:5b:62:4c:40:db:14:23:02:b2:5c:d8:54:18:
        e3:85:61:2d:e7:b8:ba:92:14:72:6a:85:71:b7:8e:21:fa:7b:
        0f:41:51:6d:22:2a:ae:6e:30:0d:aa:26:bb:c6:04:12:23:3d:
        f4:e2:45:ac:30:97:9f:90:da:22:73:9b:de:76:59:53:de:29:
        d1:39:63:d3:ca:70:c8:35:ea:18:69:9e:35:c3:e1:1e:93:5c:
        14:fe:74:90:a8:33:7e:07:2d:33:df:b0:1e:7f:2e:7c:c5:f4:
        84:de:7d:47:18:4c:4e:8f:c6:35:dc:2e:2f:09:63:6c:97:12:
        e7:74:ec:1c:fe:a6:03:06:b6:e0:9d:fc:d4:f9:86:2b:14:a7:
        6e:b6:6a:5a:a1:34:78:95:de:d2:72:f1:03:18:7f:95:03:ba:
        3d:0e:47:8d:a4:c4:c8:e8:d9:16:8c:23:ee:0e:5d:52:f5:7d:
        1e:4b:18:4f:5e:e6:3e:f0:0b:4a:97:23:dc:14:f2:0a:bb:2a:
        cd:5a:57:36:33:f0:ed:98:52:1f:2b:32:cc:52:8b:ea:97:57:
        56:79:b9:7f:7e:04:5a:a9:6d:b6:aa:a4:ae:32:9a:d7:c7:eb:
        43:b8:05:24:ef:fc:0c:82:95:60:d8:ce:44:22:b2:d1:13:98:
        34:45:7a:a1
-----BEGIN CERTIFICATE-----
MIIDXDCCAkSgAwIBAgIQHZJMaqGGiQICMovQGVPgGzANBgkqhkiG9w0BAQsFADAW
MRQwEgYDVQQDDAt0ZWFtMjUwLW5ldDAeFw0yMzExMDMyMDQzNTJaFw0yNjEwMTgy
MDQzNTJaMBkxFzAVBgNVBAMMDnRlYW0yNTAtY2xpZW50MIIBIjANBgkqhkiG9w0B
AQEFAAOCAQ8AMIIBCgKCAQEApsH5QUY/8sqWx0RvcyYu5cyQt0UqQ7lIN3TxdlRV
UMrZzdKWNL1qWK8HSI28W+4Ohe2juxOaqu7SETyy95Ph2TwdRr5R1hQeMm1rGifu
rqf4rqsJijOVd+KnleAQ1R9vZ7/r9WO+/24CtBPS9t8auP4ZGhzwHWy8VI2oiuUf
jhPh7gYVdnGSr7aH2iipgSN8CwVQv4znf4N6QDhI4ddy84aUEG/CFrz/93H87LcC
e3QzR+8yCwopycTQBpD0UGay5U/0MjHaAU0/pse4VEcolgy/e0tlAgQBDWpGcQFa
4g6xUpQbCKE3FjWOwSVhG5qgqe3lNBFlW1Bf2RTArh1dawIDAQABo4GiMIGfMAkG
A1UdEwQCMAAwHQYDVR0OBBYEFMNJ0a1sVqaJss0IiMHg4SksIYeIMFEGA1UdIwRK
MEiAFCncU52zxk+TuOCbk3jjkM/uXJEboRqkGDAWMRQwEgYDVQQDDAt0ZWFtMjUw
LW5ldIIUIiejceHRbGuzwvfHK0IpBuyqN34wEwYDVR0lBAwwCgYIKwYBBQUHAwIw
CwYDVR0PBAQDAgeAMA0GCSqGSIb3DQEBCwUAA4IBAQCrb2MS6ltiTEDbFCMCslzY
VBjjhWEt57i6khRyaoVxt44h+nsPQVFtIiqubjANqia7xgQSIz304kWsMJefkNoi
c5vedllT3inROWPTynDINeoYaZ41w+Eek1wU/nSQqDN+By0z37Aefy58xfSE3n1H
GExOj8Y13C4vCWNslxLndOwc/qYDBrbgnfzU+YYrFKdutmpaoTR4ld7ScvEDGH+V
A7o9DkeNpMTI6NkWjCPuDl1S9X0eSxhPXuY+8AtKlyPcFPIKuyrNWlc2M/DtmFIf
KzLMUovql1dWebl/fgRaqW22qqSuMprXx+tDuAUk7/wMgpVg2M5EIrLRE5g0RXqh
-----END CERTIFICATE-----
