Certificate:
    Data:
        Version: 3 (0x2)
        Serial Number:
            3c:d3:70:3a:e3:e8:5a:65:ed:90:ea:80:40:73:c1:cf
        Signature Algorithm: sha256WithRSAEncryption
        Issuer: CN=team250-net
        Validity
            Not Before: Nov  4 10:45:20 2023 GMT
            Not After : Oct 19 10:45:20 2026 GMT
        Subject: CN=team250-client
        Subject Public Key Info:
            Public Key Algorithm: rsaEncryption
                Public-Key: (2048 bit)
                Modulus:
                    00:c3:0c:17:59:a4:92:35:23:94:d8:0d:b2:39:a7:
                    9c:35:cc:0c:f6:90:5a:10:1f:eb:5d:9d:2c:cd:86:
                    f4:44:48:14:e7:72:44:18:0d:cc:98:5b:81:d8:b8:
                    b7:c0:9d:45:a0:d6:47:dc:05:14:1f:29:d9:b2:94:
                    65:47:6f:74:f2:01:d1:29:76:09:d3:2b:cd:c0:8f:
                    73:49:29:db:ed:a6:0c:96:d6:61:ce:23:79:19:c6:
                    49:4a:17:14:f1:15:d4:0b:d6:81:3d:0b:9a:6f:75:
                    77:97:0b:36:d6:ca:21:41:ef:eb:e0:23:40:aa:83:
                    64:a3:04:68:ac:7e:41:1e:01:8e:ef:fb:78:18:51:
                    e1:2f:67:49:a4:36:dc:fa:6f:d6:1f:45:0f:8f:90:
                    4a:0c:c8:89:62:18:d7:e4:e8:2f:44:5a:90:ed:15:
                    1d:4d:77:69:fd:8d:52:f9:63:6d:c4:97:8d:eb:3a:
                    fc:1d:cb:2f:9e:b9:95:23:62:bb:ee:88:d5:42:9b:
                    1b:f6:f0:38:73:47:59:95:90:9a:ed:11:a6:91:e0:
                    bc:29:8f:e7:67:b1:54:f8:c5:0b:33:b6:9d:f7:21:
                    11:88:53:fb:cb:dd:4e:c4:f3:63:21:01:02:79:7e:
                    9a:78:9f:52:d5:9f:59:53:0b:12:1f:d1:e8:25:98:
                    e5:11
                Exponent: 65537 (0x10001)
        X509v3 extensions:
            X509v3 Basic Constraints: 
                CA:FALSE
            X509v3 Subject Key Identifier: 
                AC:8F:1E:02:C2:6D:AD:82:7C:60:AB:50:76:97:35:FA:FB:1E:6C:59
            X509v3 Authority Key Identifier: 
                keyid:AD:43:B1:C8:0F:9E:57:04:50:6E:FF:BB:CF:BC:D0:FA:8A:63:76:AC
                DirName:/CN=team250-net
                serial:4C:5B:3A:46:94:5E:2F:DC:4F:27:F5:82:E7:11:DB:59:1B:41:1E:92
            X509v3 Extended Key Usage: 
                TLS Web Client Authentication
            X509v3 Key Usage: 
                Digital Signature
    Signature Algorithm: sha256WithRSAEncryption
    Signature Value:
        91:ab:23:70:99:84:37:0c:72:95:42:2e:4a:61:b4:3a:10:dc:
        df:47:cf:47:f8:a7:2f:db:ab:2f:9b:e4:f3:54:85:8f:9e:80:
        fc:f8:b6:d7:91:5b:3a:82:ea:11:a6:17:68:54:9c:2f:0b:ec:
        5c:da:22:4f:fa:e4:77:2d:1d:75:c4:9b:6e:17:02:30:87:f9:
        fb:cc:be:6a:c0:2b:53:b3:7c:b1:7e:2d:fe:78:c1:b0:21:23:
        d3:7b:e6:db:9e:2a:e8:45:37:d2:d3:ef:92:a2:ee:69:2f:14:
        f9:b5:97:85:36:79:9e:5d:b9:58:d3:09:20:79:d6:0d:ba:39:
        24:4b:90:2e:2b:a5:18:db:85:65:7b:43:4a:8f:5b:51:62:b1:
        f9:5f:fb:c5:36:cd:67:8a:db:4b:90:d5:40:e0:08:7d:37:22:
        71:f6:ed:f3:b0:7b:0e:ed:93:9a:04:da:a9:51:b8:0a:5e:e5:
        bf:6c:3b:d8:97:82:76:34:ca:af:6d:d8:82:c2:32:c6:28:1d:
        31:cc:6b:8f:34:3e:fc:de:c3:f8:c6:62:eb:59:f1:8f:91:9e:
        5b:ab:e6:73:34:a8:0e:a7:ef:7d:4e:38:c3:0c:91:c4:fc:7a:
        35:1b:5e:53:68:b2:f5:a1:e3:7e:5f:69:c0:c1:74:e1:e3:17:
        4c:58:8a:c5
-----BEGIN CERTIFICATE-----
MIIDXDCCAkSgAwIBAgIQPNNwOuPoWmXtkOqAQHPBzzANBgkqhkiG9w0BAQsFADAW
MRQwEgYDVQQDDAt0ZWFtMjUwLW5ldDAeFw0yMzExMDQxMDQ1MjBaFw0yNjEwMTkx
MDQ1MjBaMBkxFzAVBgNVBAMMDnRlYW0yNTAtY2xpZW50MIIBIjANBgkqhkiG9w0B
AQEFAAOCAQ8AMIIBCgKCAQEAwwwXWaSSNSOU2A2yOaecNcwM9pBaEB/rXZ0szYb0
REgU53JEGA3MmFuB2Li3wJ1FoNZH3AUUHynZspRlR2908gHRKXYJ0yvNwI9zSSnb
7aYMltZhziN5GcZJShcU8RXUC9aBPQuab3V3lws21sohQe/r4CNAqoNkowRorH5B
HgGO7/t4GFHhL2dJpDbc+m/WH0UPj5BKDMiJYhjX5OgvRFqQ7RUdTXdp/Y1S+WNt
xJeN6zr8HcsvnrmVI2K77ojVQpsb9vA4c0dZlZCa7RGmkeC8KY/nZ7FU+MULM7ad
9yERiFP7y91OxPNjIQECeX6aeJ9S1Z9ZUwsSH9HoJZjlEQIDAQABo4GiMIGfMAkG
A1UdEwQCMAAwHQYDVR0OBBYEFKyPHgLCba2CfGCrUHaXNfr7HmxZMFEGA1UdIwRK
MEiAFK1DscgPnlcEUG7/u8+80PqKY3asoRqkGDAWMRQwEgYDVQQDDAt0ZWFtMjUw
LW5ldIIUTFs6RpReL9xPJ/WC5xHbWRtBHpIwEwYDVR0lBAwwCgYIKwYBBQUHAwIw
CwYDVR0PBAQDAgeAMA0GCSqGSIb3DQEBCwUAA4IBAQCRqyNwmYQ3DHKVQi5KYbQ6
ENzfR89H+Kcv26svm+TzVIWPnoD8+LbXkVs6guoRphdoVJwvC+xc2iJP+uR3LR11
xJtuFwIwh/n7zL5qwCtTs3yxfi3+eMGwISPTe+bbniroRTfS0++Sou5pLxT5tZeF
NnmeXblY0wkgedYNujkkS5AuK6UY24Vle0NKj1tRYrH5X/vFNs1nittLkNVA4Ah9
NyJx9u3zsHsO7ZOaBNqpUbgKXuW/bDvYl4J2NMqvbdiCwjLGKB0xzGuPND783sP4
xmLrWfGPkZ5bq+ZzNKgOp+99TjjDDJHE/Ho1G15TaLL1oeN+X2nAwXTh4xdMWIrF
-----END CERTIFICATE-----
