Certificate:
    Data:
        Version: 3 (0x2)
        Serial Number:
            b6:9c:c7:21:4d:ff:99:3b:dc:eb:49:c7:d1:c0:6f:ca
        Signature Algorithm: sha256WithRSAEncryption
        Issuer: CN=team250-net
        Validity
            Not Before: Nov  4 11:32:33 2023 GMT
            Not After : Oct 19 11:32:33 2026 GMT
        Subject: CN=team250-client
        Subject Public Key Info:
            Public Key Algorithm: rsaEncryption
                Public-Key: (2048 bit)
                Modulus:
                    00:c8:70:e4:ce:5c:3f:24:5d:b8:13:47:68:96:b2:
                    2a:18:6f:7d:b8:2d:28:a6:e7:d7:b2:5b:97:cc:5a:
                    c7:5f:a6:4a:b8:e2:aa:c5:78:67:38:c3:e5:a8:54:
                    3c:2c:54:44:61:b7:c9:91:ff:36:67:10:91:cf:a8:
                    d4:10:7e:b6:16:a4:e3:dd:60:de:1c:cb:08:ab:04:
                    e6:4e:63:39:5d:f1:f8:52:d3:79:47:63:64:9e:ab:
                    b6:2f:d3:99:da:8b:96:83:68:f3:86:db:c4:60:c0:
                    1d:ec:14:eb:7b:1d:82:61:b8:e4:3a:f6:48:7e:8f:
                    9d:31:97:87:e5:72:13:bc:aa:27:88:78:36:a5:e6:
                    1c:b3:b5:53:7b:f9:33:0a:28:50:1a:eb:36:7f:43:
                    29:39:3f:5e:ed:92:a5:1b:be:12:4f:62:b0:b7:b0:
                    63:5e:00:cf:53:6c:a4:aa:73:81:95:69:f9:22:85:
                    32:5e:18:b0:5e:52:5c:7a:4d:00:89:42:91:53:3a:
                    9d:9b:a5:1d:b8:b1:08:66:bf:78:02:aa:6b:44:60:
                    34:a2:2d:01:c0:12:c9:54:ad:08:9d:39:e3:ac:e8:
                    cf:14:5c:34:ad:e7:3f:9c:51:06:d3:de:ca:69:7b:
                    b7:07:92:22:a5:4f:b0:93:9f:96:76:f6:96:ca:c4:
                    37:09
                Exponent: 65537 (0x10001)
        X509v3 extensions:
            X509v3 Basic Constraints: 
                CA:FALSE
            X509v3 Subject Key Identifier: 
                26:52:61:A9:11:4B:A7:19:25:DE:E5:7B:58:64:41:2C:CB:99:EF:0B
            X509v3 Authority Key Identifier: 
                keyid:B2:EB:86:50:F4:73:12:B3:21:AE:11:9A:C5:54:61:91:32:BC:68:92
                DirName:/CN=team250-net
                serial:48:05:4A:68:B1:F5:4D:0B:EB:1A:0E:67:AD:A1:D4:F7:9E:77:DD:39
            X509v3 Extended Key Usage: 
                TLS Web Client Authentication
            X509v3 Key Usage: 
                Digital Signature
    Signature Algorithm: sha256WithRSAEncryption
    Signature Value:
        5c:8b:07:61:78:6c:e5:c0:b8:7a:d2:9b:1c:b4:6e:c4:95:f7:
        60:82:20:19:83:00:e5:d2:be:b5:4d:d2:0b:02:ba:99:36:de:
        80:63:ad:3f:cf:1f:73:1f:f3:8b:72:c2:29:0d:aa:91:17:5f:
        67:61:12:e6:2d:3c:02:2c:e3:14:9c:93:cc:4d:70:9e:4b:5c:
        84:fb:e0:d8:9c:2b:9c:03:50:a8:42:61:36:a5:15:69:7c:90:
        9a:68:a5:0f:b1:53:2a:dc:b8:65:8f:4f:00:80:98:a7:1b:81:
        47:dc:cf:17:9c:d1:cc:e3:fb:4b:93:22:96:9e:cf:a7:07:e2:
        d8:8c:99:fd:34:6b:6f:17:20:1f:d5:e8:ec:22:34:8d:f2:61:
        26:bc:25:47:48:8d:2e:5b:0e:89:7a:8e:47:7d:0c:3f:d4:eb:
        0b:26:21:4f:50:59:b7:0c:a9:1f:4b:0c:53:69:4f:76:c4:ba:
        06:8e:1c:65:a6:ed:57:3c:c9:32:83:bc:66:64:33:e0:ac:af:
        c2:44:c7:dd:b0:15:ff:c4:93:98:1b:03:f7:31:c8:fd:c0:0c:
        ce:53:cb:68:d3:ba:f7:23:55:97:82:bf:e0:83:11:a2:21:de:
        a7:6c:1d:73:fc:ff:d0:83:56:ed:58:f5:8e:48:53:3a:9e:81:
        72:67:1a:c3
-----BEGIN CERTIFICATE-----
MIIDXTCCAkWgAwIBAgIRALacxyFN/5k73OtJx9HAb8owDQYJKoZIhvcNAQELBQAw
FjEUMBIGA1UEAwwLdGVhbTI1MC1uZXQwHhcNMjMxMTA0MTEzMjMzWhcNMjYxMDE5
MTEzMjMzWjAZMRcwFQYDVQQDDA50ZWFtMjUwLWNsaWVudDCCASIwDQYJKoZIhvcN
AQEBBQADggEPADCCAQoCggEBAMhw5M5cPyRduBNHaJayKhhvfbgtKKbn17Jbl8xa
x1+mSrjiqsV4ZzjD5ahUPCxURGG3yZH/NmcQkc+o1BB+thak491g3hzLCKsE5k5j
OV3x+FLTeUdjZJ6rti/TmdqLloNo84bbxGDAHewU63sdgmG45Dr2SH6PnTGXh+Vy
E7yqJ4h4NqXmHLO1U3v5MwooUBrrNn9DKTk/Xu2SpRu+Ek9isLewY14Az1NspKpz
gZVp+SKFMl4YsF5SXHpNAIlCkVM6nZulHbixCGa/eAKqa0RgNKItAcASyVStCJ05
46zozxRcNK3nP5xRBtPeyml7tweSIqVPsJOflnb2lsrENwkCAwEAAaOBojCBnzAJ
BgNVHRMEAjAAMB0GA1UdDgQWBBQmUmGpEUunGSXe5XtYZEEsy5nvCzBRBgNVHSME
SjBIgBSy64ZQ9HMSsyGuEZrFVGGRMrxokqEapBgwFjEUMBIGA1UEAwwLdGVhbTI1
MC1uZXSCFEgFSmix9U0L6xoOZ62h1Peed905MBMGA1UdJQQMMAoGCCsGAQUFBwMC
MAsGA1UdDwQEAwIHgDANBgkqhkiG9w0BAQsFAAOCAQEAXIsHYXhs5cC4etKbHLRu
xJX3YIIgGYMA5dK+tU3SCwK6mTbegGOtP88fcx/zi3LCKQ2qkRdfZ2ES5i08Aizj
FJyTzE1wnktchPvg2JwrnANQqEJhNqUVaXyQmmilD7FTKty4ZY9PAICYpxuBR9zP
F5zRzOP7S5Milp7Ppwfi2IyZ/TRrbxcgH9Xo7CI0jfJhJrwlR0iNLlsOiXqOR30M
P9TrCyYhT1BZtwypH0sMU2lPdsS6Bo4cZabtVzzJMoO8ZmQz4KyvwkTH3bAV/8ST
mBsD9zHI/cAMzlPLaNO69yNVl4K/4IMRoiHep2wdc/z/0INW7Vj1jkhTOp6Bcmca
ww==
-----END CERTIFICATE-----
