Certificate:
    Data:
        Version: 3 (0x2)
        Serial Number:
            d8:dd:36:07:f4:7a:fb:5a:4d:12:1d:d5:63:bc:24:1e
        Signature Algorithm: sha256WithRSAEncryption
        Issuer: CN=team250-net
        Validity
            Not Before: Nov  4 11:32:34 2023 GMT
            Not After : Oct 19 11:32:34 2026 GMT
        Subject: CN=team250-server
        Subject Public Key Info:
            Public Key Algorithm: rsaEncryption
                Public-Key: (2048 bit)
                Modulus:
                    00:8d:8f:b2:da:ca:8d:54:48:de:ab:34:82:d0:a7:
                    37:5d:90:37:70:b2:eb:eb:5a:72:81:88:a1:82:bd:
                    1c:60:22:1d:ad:27:85:46:48:fb:ae:3c:e7:eb:44:
                    ff:21:b6:72:39:91:44:80:2a:93:ce:79:da:4c:2c:
                    09:6b:de:14:6a:a8:d5:c7:14:0b:f1:71:ba:ef:c5:
                    cd:2c:4b:62:56:f3:14:b7:8f:39:f0:de:cd:1b:ba:
                    00:e3:67:f9:44:d0:de:3e:22:1f:da:99:da:28:4c:
                    02:ba:ef:fa:8d:db:b0:42:25:74:c8:4b:ce:92:3b:
                    f7:15:1c:4b:34:f2:4d:35:b1:a6:fd:18:a5:9b:35:
                    94:88:77:7c:b0:c1:c4:01:b1:59:9d:97:69:3a:57:
                    a9:44:24:23:34:ac:d3:9c:e5:8e:a7:e3:c7:bc:89:
                    4e:a6:f5:14:15:43:8a:68:1e:fc:92:ae:77:fb:00:
                    ed:38:c6:15:1e:63:54:17:8e:b3:78:fa:66:d5:71:
                    b5:fa:34:5e:b4:0a:83:ff:af:d1:d1:d3:d9:91:6d:
                    36:8d:9c:0e:d9:ac:bb:dc:30:4a:b1:49:87:7e:06:
                    3d:fe:d7:66:f6:a1:96:49:37:58:d0:93:5a:3e:fa:
                    dc:7a:72:a6:17:3b:fd:7c:b8:9a:6d:3a:44:41:07:
                    3c:5b
                Exponent: 65537 (0x10001)
        X509v3 extensions:
            X509v3 Basic Constraints: 
                CA:FALSE
            X509v3 Subject Key Identifier: 
                25:B7:E6:01:D2:DF:E3:E2:CD:BF:DA:88:AB:FA:89:54:9D:C6:FE:E0
            X509v3 Authority Key Identifier: 
                keyid:B2:EB:86:50:F4:73:12:B3:21:AE:11:9A:C5:54:61:91:32:BC:68:92
                DirName:/CN=team250-net
                serial:48:05:4A:68:B1:F5:4D:0B:EB:1A:0E:67:AD:A1:D4:F7:9E:77:DD:39
            X509v3 Extended Key Usage: 
                TLS Web Server Authentication
            X509v3 Key Usage: 
                Digital Signature, Key Encipherment
            X509v3 Subject Alternative Name: 
                DNS:team250-server
    Signature Algorithm: sha256WithRSAEncryption
    Signature Value:
        71:8e:75:c3:de:d8:4e:46:06:43:f5:96:08:93:9c:bb:5d:8c:
        19:d6:cc:d0:f7:7b:d5:0e:a9:2e:d1:bb:5c:20:82:33:90:93:
        be:4a:ea:d9:e1:6d:87:0c:d4:67:af:9a:8b:d6:57:cf:3c:fa:
        81:e2:bd:40:74:27:1c:0b:3e:9c:48:b2:3b:ef:81:69:a0:6d:
        c0:2c:eb:ca:7d:9c:91:4b:72:84:33:5d:12:3a:c0:55:3e:ee:
        3f:90:8a:01:38:b0:1e:06:0a:55:c9:ff:8d:14:99:a0:35:f4:
        fe:73:04:37:ce:4c:d2:a8:b5:94:92:14:9b:7f:31:08:50:70:
        09:ab:2a:a5:e2:be:6e:79:21:e0:1e:4f:f7:8c:a7:7d:55:40:
        5f:ee:75:b9:83:9e:d9:ea:fa:25:7f:ae:65:2e:9c:33:a1:f7:
        5a:8c:63:11:02:84:49:65:3d:5e:6b:33:00:dd:21:67:df:7b:
        07:78:2c:d7:ee:3d:a6:64:39:c6:f5:66:6f:7b:9b:ac:92:16:
        bb:05:3e:63:b4:1c:cd:d7:28:ab:09:5d:4d:fd:2b:a8:ee:cc:
        eb:15:e9:e1:cf:72:c5:8d:38:bb:ae:b1:d0:29:80:c2:24:07:
        a0:c3:d8:00:81:ba:04:e1:50:2a:31:e9:37:e3:bf:9b:ef:4e:
        6d:50:6d:d2
-----BEGIN CERTIFICATE-----
MIIDeDCCAmCgAwIBAgIRANjdNgf0evtaTRId1WO8JB4wDQYJKoZIhvcNAQELBQAw
FjEUMBIGA1UEAwwLdGVhbTI1MC1uZXQwHhcNMjMxMTA0MTEzMjM0WhcNMjYxMDE5
MTEzMjM0WjAZMRcwFQYDVQQDDA50ZWFtMjUwLXNlcnZlcjCCASIwDQYJKoZIhvcN
AQEBBQADggEPADCCAQoCggEBAI2PstrKjVRI3qs0gtCnN12QN3Cy6+tacoGIoYK9
HGAiHa0nhUZI+6485+tE/yG2cjmRRIAqk8552kwsCWveFGqo1ccUC/Fxuu/FzSxL
YlbzFLePOfDezRu6AONn+UTQ3j4iH9qZ2ihMArrv+o3bsEIldMhLzpI79xUcSzTy
TTWxpv0YpZs1lIh3fLDBxAGxWZ2XaTpXqUQkIzSs05zljqfjx7yJTqb1FBVDimge
/JKud/sA7TjGFR5jVBeOs3j6ZtVxtfo0XrQKg/+v0dHT2ZFtNo2cDtmsu9wwSrFJ
h34GPf7XZvahlkk3WNCTWj763Hpyphc7/Xy4mm06REEHPFsCAwEAAaOBvTCBujAJ
BgNVHRMEAjAAMB0GA1UdDgQWBBQlt+YB0t/j4s2/2oir+olUncb+4DBRBgNVHSME
SjBIgBSy64ZQ9HMSsyGuEZrFVGGRMrxokqEapBgwFjEUMBIGA1UEAwwLdGVhbTI1
MC1uZXSCFEgFSmix9U0L6xoOZ62h1Peed905MBMGA1UdJQQMMAoGCCsGAQUFBwMB
MAsGA1UdDwQEAwIFoDAZBgNVHREEEjAQgg50ZWFtMjUwLXNlcnZlcjANBgkqhkiG
9w0BAQsFAAOCAQEAcY51w97YTkYGQ/WWCJOcu12MGdbM0Pd71Q6pLtG7XCCCM5CT
vkrq2eFthwzUZ6+ai9ZXzzz6geK9QHQnHAs+nEiyO++BaaBtwCzryn2ckUtyhDNd
EjrAVT7uP5CKATiwHgYKVcn/jRSZoDX0/nMEN85M0qi1lJIUm38xCFBwCasqpeK+
bnkh4B5P94ynfVVAX+51uYOe2er6JX+uZS6cM6H3WoxjEQKESWU9XmszAN0hZ997
B3gs1+49pmQ5xvVmb3ubrJIWuwU+Y7QczdcoqwldTf0rqO7M6xXp4c9yxY04u66x
0CmAwiQHoMPYAIG6BOFQKjHpN+O/m+9ObVBt0g==
-----END CERTIFICATE-----
