Certificate:
    Data:
        Version: 3 (0x2)
        Serial Number:
            47:9d:ca:78:a8:7e:5a:e2:cb:84:2d:c2:dd:0b:50:e9
        Signature Algorithm: sha256WithRSAEncryption
        Issuer: CN=team467-net
        Validity
            Not Before: Nov  4 11:38:05 2023 GMT
            Not After : Oct 19 11:38:05 2026 GMT
        Subject: CN=team467-server
        Subject Public Key Info:
            Public Key Algorithm: rsaEncryption
                Public-Key: (2048 bit)
                Modulus:
                    00:f0:71:35:d9:07:94:7e:24:cb:a6:e4:45:ca:b1:
                    7b:c1:e6:c6:6a:5e:d5:2e:6e:d7:75:5b:8c:7e:be:
                    07:fe:17:ac:0f:94:d4:83:2c:c9:03:2a:61:c1:30:
                    fb:c5:6b:f0:3b:b3:39:09:7b:c6:92:c9:24:6f:ca:
                    c4:93:11:db:8a:fa:0e:62:2d:a8:4d:1a:30:50:1c:
                    ee:a4:6d:55:ad:08:d2:e6:a7:bf:fa:81:fe:c0:c5:
                    1d:68:9c:c5:d4:bd:62:27:42:fd:2f:d7:cf:4e:0e:
                    68:8a:25:51:2f:55:4a:ed:d2:14:c4:10:37:e9:5c:
                    e5:51:9c:61:24:02:8d:bc:3f:3f:7c:f6:e8:00:83:
                    68:30:b3:11:15:16:a3:ec:a9:00:be:a7:c8:20:f8:
                    59:ea:b3:3c:e6:6f:02:b8:d6:d5:93:02:6d:38:d1:
                    f6:e1:60:cc:2a:10:6c:c5:f7:c5:42:ab:54:2c:94:
                    d2:a4:05:d0:39:b8:ba:97:a1:fd:87:f6:3c:8d:dd:
                    2d:3e:e5:60:9c:73:5e:a4:42:5f:77:6b:e4:0c:88:
                    44:ae:ed:7c:8d:58:f0:41:9c:44:23:16:2e:ff:e3:
                    fa:82:4a:82:53:5e:45:cd:d7:21:7e:18:e6:1b:fa:
                    34:a2:14:b6:75:69:4b:5b:56:6d:71:3d:ec:77:c7:
                    46:93
                Exponent: 65537 (0x10001)
        X509v3 extensions:
            X509v3 Basic Constraints: 
                CA:FALSE
            X509v3 Subject Key Identifier: 
                19:0B:89:8A:FB:03:03:40:B3:E0:C8:21:F3:EC:86:50:09:06:3F:5A
            X509v3 Authority Key Identifier: 
                keyid:F2:52:1E:ED:B2:54:96:EA:79:1D:8F:44:8F:CF:17:87:22:F6:AE:A4
                DirName:/CN=team467-net
                serial:78:15:87:40:FA:E1:9F:E3:C6:B7:EE:EF:74:4E:38:E5:33:E1:D2:0D
            X509v3 Extended Key Usage: 
                TLS Web Server Authentication
            X509v3 Key Usage: 
                Digital Signature, Key Encipherment
            X509v3 Subject Alternative Name: 
                DNS:team467-server
    Signature Algorithm: sha256WithRSAEncryption
    Signature Value:
        54:c5:52:54:82:da:39:fb:44:c1:39:e7:54:ca:b1:1c:62:98:
        fc:4f:db:22:ea:b7:81:c5:9e:f1:63:cf:0e:ce:d1:a2:1d:c0:
        aa:ed:68:3e:a7:13:8a:5d:26:aa:62:47:2d:2d:94:2d:7f:2e:
        2b:c8:9c:86:81:10:8b:60:2d:4b:32:ac:e1:4d:99:0e:af:f0:
        a0:9c:01:c5:b4:d0:e0:2b:ea:8b:4c:b9:e7:55:72:6a:f2:54:
        13:e8:fd:f6:f6:06:fa:95:1b:01:be:78:ff:43:6d:e6:2c:8e:
        11:0b:97:d9:86:f7:f2:3a:1c:1a:f8:e8:76:22:2d:5a:5c:df:
        36:5c:29:a6:86:17:2d:8c:f6:a0:f9:fa:0b:e7:5c:5a:c7:59:
        f7:38:1c:9d:e9:74:f9:a6:5a:8b:95:ed:23:fa:3a:8d:34:d2:
        4f:50:a5:bd:de:8e:19:e7:ba:c8:2d:3c:48:25:01:27:8e:1b:
        2f:f7:80:51:1d:e9:90:f2:b4:d5:53:2a:8c:ee:f2:e1:0c:04:
        88:27:40:f4:dc:54:24:a6:85:eb:32:ef:d8:e1:d4:cc:95:79:
        36:40:72:7c:e5:2d:8b:86:76:8e:17:e0:48:fa:61:bc:a4:42:
        90:bf:db:01:89:24:7a:64:45:b9:d5:df:84:13:1a:88:35:0a:
        b1:3e:fe:11
-----BEGIN CERTIFICATE-----
MIIDdzCCAl+gAwIBAgIQR53KeKh+WuLLhC3C3QtQ6TANBgkqhkiG9w0BAQsFADAW
MRQwEgYDVQQDDAt0ZWFtNDY3LW5ldDAeFw0yMzExMDQxMTM4MDVaFw0yNjEwMTkx
MTM4MDVaMBkxFzAVBgNVBAMMDnRlYW00Njctc2VydmVyMIIBIjANBgkqhkiG9w0B
AQEFAAOCAQ8AMIIBCgKCAQEA8HE12QeUfiTLpuRFyrF7webGal7VLm7XdVuMfr4H
/hesD5TUgyzJAyphwTD7xWvwO7M5CXvGkskkb8rEkxHbivoOYi2oTRowUBzupG1V
rQjS5qe/+oH+wMUdaJzF1L1iJ0L9L9fPTg5oiiVRL1VK7dIUxBA36VzlUZxhJAKN
vD8/fPboAINoMLMRFRaj7KkAvqfIIPhZ6rM85m8CuNbVkwJtONH24WDMKhBsxffF
QqtULJTSpAXQObi6l6H9h/Y8jd0tPuVgnHNepEJfd2vkDIhEru18jVjwQZxEIxYu
/+P6gkqCU15FzdchfhjmG/o0ohS2dWlLW1ZtcT3sd8dGkwIDAQABo4G9MIG6MAkG
A1UdEwQCMAAwHQYDVR0OBBYEFBkLiYr7AwNAs+DIIfPshlAJBj9aMFEGA1UdIwRK
MEiAFPJSHu2yVJbqeR2PRI/PF4ci9q6koRqkGDAWMRQwEgYDVQQDDAt0ZWFtNDY3
LW5ldIIUeBWHQPrhn+PGt+7vdE445TPh0g0wEwYDVR0lBAwwCgYIKwYBBQUHAwEw
CwYDVR0PBAQDAgWgMBkGA1UdEQQSMBCCDnRlYW00Njctc2VydmVyMA0GCSqGSIb3
DQEBCwUAA4IBAQBUxVJUgto5+0TBOedUyrEcYpj8T9si6reBxZ7xY88OztGiHcCq
7Wg+pxOKXSaqYkctLZQtfy4ryJyGgRCLYC1LMqzhTZkOr/CgnAHFtNDgK+qLTLnn
VXJq8lQT6P329gb6lRsBvnj/Q23mLI4RC5fZhvfyOhwa+Oh2Ii1aXN82XCmmhhct
jPag+foL51xax1n3OByd6XT5plqLle0j+jqNNNJPUKW93o4Z57rILTxIJQEnjhsv
94BRHemQ8rTVUyqM7vLhDASIJ0D03FQkpoXrMu/Y4dTMlXk2QHJ85S2LhnaOF+BI
+mG8pEKQv9sBiSR6ZEW51d+EExqINQqxPv4R
-----END CERTIFICATE-----
