Certificate:
    Data:
        Version: 3 (0x2)
        Serial Number:
            12:de:7a:d2:47:7c:73:57:30:46:3e:93:47:d5:8f:b0
        Signature Algorithm: sha256WithRSAEncryption
        Issuer: CN=team490-net
        Validity
            Not Before: Nov  3 20:48:12 2023 GMT
            Not After : Oct 18 20:48:12 2026 GMT
        Subject: CN=team490-server
        Subject Public Key Info:
            Public Key Algorithm: rsaEncryption
                Public-Key: (2048 bit)
                Modulus:
                    00:c6:f2:dc:b7:8c:dd:d6:49:24:a4:5c:61:86:14:
                    9e:a7:1a:3b:56:ad:50:ac:15:87:3a:1a:97:f9:2c:
                    27:44:dc:96:a4:ba:a8:d2:1b:68:58:4b:e5:55:98:
                    14:f8:81:20:c0:e5:6b:4b:0e:3c:41:d4:26:f9:97:
                    22:99:05:fd:d0:6c:db:2b:8b:06:34:02:7c:f6:3d:
                    b5:8f:69:f0:e4:c1:26:04:09:5d:2c:74:71:0c:bf:
                    c2:f1:00:66:8a:93:c0:5e:39:68:f3:5d:3b:fe:0d:
                    58:09:bf:4a:bc:84:e8:a0:74:39:31:ea:47:b2:93:
                    76:78:d3:af:60:88:7d:15:46:e9:53:72:77:14:12:
                    e0:35:72:38:ec:c2:65:93:ff:eb:45:07:fd:c9:d2:
                    2f:b7:48:0a:a2:f4:70:07:7c:93:df:c2:6e:9e:08:
                    09:05:03:ca:c9:6c:ab:97:14:00:d7:45:e7:94:b3:
                    02:71:1e:3d:e5:0d:ff:9f:0c:8f:b1:9a:78:40:ef:
                    e7:70:d4:da:68:29:20:a9:00:18:54:2f:f5:e7:74:
                    00:8a:fd:fa:98:7d:54:ff:14:af:6a:65:77:cf:cd:
                    31:e5:f8:a8:71:b6:73:08:a0:74:79:70:02:2b:c1:
                    04:46:f5:7a:e9:c9:1f:bf:7a:1d:a0:54:05:84:cc:
                    ad:c7
                Exponent: 65537 (0x10001)
        X509v3 extensions:
            X509v3 Basic Constraints: 
                CA:FALSE
            X509v3 Subject Key Identifier: 
                B2:B4:A3:0E:4F:9B:89:33:56:80:30:31:9A:07:4D:E5:CB:18:10:5B
            X509v3 Authority Key Identifier: 
                keyid:16:19:0B:EC:EB:A9:28:70:11:2E:24:36:1D:1F:DE:61:53:80:3B:3C
                DirName:/CN=team490-net
                serial:43:FF:DC:6E:A3:98:D9:4E:9A:21:FC:3C:45:FE:77:57:19:B8:15:97
            X509v3 Extended Key Usage: 
                TLS Web Server Authentication
            X509v3 Key Usage: 
                Digital Signature, Key Encipherment
            X509v3 Subject Alternative Name: 
                DNS:team490-server
    Signature Algorithm: sha256WithRSAEncryption
    Signature Value:
        3b:cb:b1:bb:9f:27:90:4c:58:58:93:62:5a:a8:f3:ff:8c:f7:
        31:a9:86:b2:e7:b9:ee:16:8e:6a:a5:cf:41:49:16:56:ca:c7:
        6c:79:ab:5d:ad:86:81:98:b8:80:bd:dd:5e:a6:53:7b:c9:cb:
        ce:c7:b2:f9:ac:0a:46:53:c5:02:e0:20:f3:15:eb:24:33:f3:
        28:d6:09:14:1b:41:ba:e1:08:8e:00:b4:08:fb:cd:09:ed:d2:
        65:31:87:6b:c1:79:37:79:75:9e:e9:97:97:cc:90:d9:87:50:
        e4:9c:00:8a:72:9a:e6:49:03:a2:ea:c3:16:be:44:e4:45:4f:
        a9:12:73:b1:4b:37:3f:c8:23:9f:9d:48:ac:14:4b:f8:aa:66:
        77:bb:09:73:ea:25:53:fd:07:e6:79:55:21:78:24:98:35:1b:
        16:c4:b8:e5:5f:a1:d6:45:1c:39:e1:af:5f:af:24:57:6c:8c:
        12:48:88:1d:0b:71:cd:c3:17:ef:8e:6d:97:ee:5a:a3:3f:e0:
        6e:27:90:5b:66:0b:cf:13:5f:a3:3a:02:ed:6f:d0:c5:d5:1c:
        de:be:39:97:1e:90:33:f0:6e:f4:f5:30:fe:0d:f7:d0:b9:62:
        62:3b:55:92:15:94:ef:93:b9:15:19:bf:90:1a:b2:43:71:a6:
        96:66:31:4b
-----BEGIN CERTIFICATE-----
MIIDdzCCAl+gAwIBAgIQEt560kd8c1cwRj6TR9WPsDANBgkqhkiG9w0BAQsFADAW
MRQwEgYDVQQDDAt0ZWFtNDkwLW5ldDAeFw0yMzExMDMyMDQ4MTJaFw0yNjEwMTgy
MDQ4MTJaMBkxFzAVBgNVBAMMDnRlYW00OTAtc2VydmVyMIIBIjANBgkqhkiG9w0B
AQEFAAOCAQ8AMIIBCgKCAQEAxvLct4zd1kkkpFxhhhSepxo7Vq1QrBWHOhqX+Swn
RNyWpLqo0htoWEvlVZgU+IEgwOVrSw48QdQm+ZcimQX90GzbK4sGNAJ89j21j2nw
5MEmBAldLHRxDL/C8QBmipPAXjlo8107/g1YCb9KvITooHQ5MepHspN2eNOvYIh9
FUbpU3J3FBLgNXI47MJlk//rRQf9ydIvt0gKovRwB3yT38JunggJBQPKyWyrlxQA
10XnlLMCcR495Q3/nwyPsZp4QO/ncNTaaCkgqQAYVC/153QAiv36mH1U/xSvamV3
z80x5fiocbZzCKB0eXACK8EERvV66ckfv3odoFQFhMytxwIDAQABo4G9MIG6MAkG
A1UdEwQCMAAwHQYDVR0OBBYEFLK0ow5Pm4kzVoAwMZoHTeXLGBBbMFEGA1UdIwRK
MEiAFBYZC+zrqShwES4kNh0f3mFTgDs8oRqkGDAWMRQwEgYDVQQDDAt0ZWFtNDkw
LW5ldIIUQ//cbqOY2U6aIfw8Rf53Vxm4FZcwEwYDVR0lBAwwCgYIKwYBBQUHAwEw
CwYDVR0PBAQDAgWgMBkGA1UdEQQSMBCCDnRlYW00OTAtc2VydmVyMA0GCSqGSIb3
DQEBCwUAA4IBAQA7y7G7nyeQTFhYk2JaqPP/jPcxqYay57nuFo5qpc9BSRZWysds
eatdrYaBmLiAvd1eplN7ycvOx7L5rApGU8UC4CDzFeskM/Mo1gkUG0G64QiOALQI
+80J7dJlMYdrwXk3eXWe6ZeXzJDZh1DknACKcprmSQOi6sMWvkTkRU+pEnOxSzc/
yCOfnUisFEv4qmZ3uwlz6iVT/QfmeVUheCSYNRsWxLjlX6HWRRw54a9fryRXbIwS
SIgdC3HNwxfvjm2X7lqjP+BuJ5BbZgvPE1+jOgLtb9DF1RzevjmXHpAz8G709TD+
DffQuWJiO1WSFZTvk7kVGb+QGrJDcaaWZjFL
-----END CERTIFICATE-----
