Certificate:
    Data:
        Version: 3 (0x2)
        Serial Number:
            24:31:46:3b:39:4d:42:a9:9e:0d:f5:f7:7c:86:53:d6
        Signature Algorithm: sha256WithRSAEncryption
        Issuer: CN=team479-net
        Validity
            Not Before: Nov  3 20:47:59 2023 GMT
            Not After : Oct 18 20:47:59 2026 GMT
        Subject: CN=team479-client
        Subject Public Key Info:
            Public Key Algorithm: rsaEncryption
                Public-Key: (2048 bit)
                Modulus:
                    00:b8:60:58:6b:64:b7:40:f4:87:4b:f9:cd:54:20:
                    83:93:ac:4b:14:c0:39:9b:b2:40:ed:d1:b5:3a:11:
                    bd:c4:6a:d1:00:34:53:6e:12:c4:06:5a:a4:e8:98:
                    19:9a:6a:9e:2c:54:46:85:25:f4:42:b2:cd:24:24:
                    c9:e5:80:32:e3:81:ef:c1:28:5e:ed:6b:7d:98:c4:
                    ad:2f:b1:5b:e6:aa:8d:97:3d:36:c7:20:b3:f8:e1:
                    75:10:24:00:10:b8:78:07:b7:78:ed:d4:cf:a8:01:
                    44:78:c8:69:4c:aa:2a:7a:4a:09:11:5d:f2:df:79:
                    91:26:57:f3:c5:03:76:0e:d2:57:29:2f:26:80:2c:
                    40:b2:d7:cf:ba:b5:a3:b3:17:c9:4e:31:c3:96:09:
                    03:4e:6c:d1:d8:c9:fe:a1:99:3f:d3:0f:0d:cd:04:
                    7b:9a:2f:b3:1e:c8:8e:c8:ec:de:a8:e8:bb:cb:28:
                    cb:16:b8:19:2b:33:79:75:fa:ee:5e:68:df:bd:73:
                    6d:dd:ee:81:86:03:91:0f:73:7b:99:3e:5a:9c:e2:
                    83:bb:a6:c7:14:a5:c4:82:0e:a7:27:ab:50:93:08:
                    6f:15:e1:2e:35:0d:f1:ee:d8:27:1d:f3:53:1b:5a:
                    f7:7e:60:9f:67:1c:31:cd:63:b1:dc:ca:33:f8:33:
                    13:2d
                Exponent: 65537 (0x10001)
        X509v3 extensions:
            X509v3 Basic Constraints: 
                CA:FALSE
            X509v3 Subject Key Identifier: 
                3B:CA:01:D2:3C:14:B2:B2:10:C9:07:7E:A3:55:EC:52:72:E6:7C:0F
            X509v3 Authority Key Identifier: 
                keyid:AF:D0:A9:31:E5:32:8C:3B:C6:C3:6D:38:C8:2D:4A:59:B2:04:DA:7F
                DirName:/CN=team479-net
                serial:6B:CB:CF:D3:89:36:2F:C4:17:F5:87:2C:EC:4E:AC:A7:3B:8C:F6:A6
            X509v3 Extended Key Usage: 
                TLS Web Client Authentication
            X509v3 Key Usage: 
                Digital Signature
    Signature Algorithm: sha256WithRSAEncryption
    Signature Value:
        68:bd:cb:95:07:83:50:a2:03:88:9b:89:e4:6f:d2:b6:74:e4:
        f0:f9:4f:32:f7:87:c4:08:0f:a9:b7:de:f8:f8:c7:03:c0:36:
        98:ab:53:f8:4a:c2:a1:8c:e7:e1:49:83:7c:f2:38:2c:cc:1d:
        20:2f:41:ae:d0:a1:f8:8b:61:80:fc:55:68:ca:71:89:f1:06:
        7b:93:1f:9d:37:c7:b0:1a:09:9b:98:b5:63:a8:b6:73:d4:fb:
        70:2f:48:2d:e3:1a:c4:7c:43:85:90:5b:b2:c0:03:20:13:e3:
        d7:f9:48:82:78:1e:30:93:12:f4:18:e3:34:8e:19:b7:da:92:
        46:e0:f2:42:03:0c:95:18:e9:b4:4c:66:9a:30:ba:c5:b8:99:
        4a:a9:57:5c:af:b2:e7:c7:ae:04:b6:67:2b:21:3e:c4:41:4c:
        41:7c:ec:b4:79:02:ab:5c:ef:82:f9:f0:eb:31:e4:e8:59:dd:
        54:ff:05:71:3b:af:2d:6c:67:e9:b6:cc:42:88:55:ee:60:d8:
        da:31:c6:47:39:cf:4b:c8:0c:64:71:ac:7a:41:a8:1c:85:51:
        b4:57:24:c9:27:5d:89:4a:79:f9:98:10:92:e0:f2:ef:6d:84:
        5a:b2:04:2a:91:ac:fe:9d:d2:d8:94:56:d7:65:4a:c1:c5:c3:
        91:6e:72:12
-----BEGIN CERTIFICATE-----
MIIDXDCCAkSgAwIBAgIQJDFGOzlNQqmeDfX3fIZT1jANBgkqhkiG9w0BAQsFADAW
MRQwEgYDVQQDDAt0ZWFtNDc5LW5ldDAeFw0yMzExMDMyMDQ3NTlaFw0yNjEwMTgy
MDQ3NTlaMBkxFzAVBgNVBAMMDnRlYW00NzktY2xpZW50MIIBIjANBgkqhkiG9w0B
AQEFAAOCAQ8AMIIBCgKCAQEAuGBYa2S3QPSHS/nNVCCDk6xLFMA5m7JA7dG1OhG9
xGrRADRTbhLEBlqk6JgZmmqeLFRGhSX0QrLNJCTJ5YAy44HvwShe7Wt9mMStL7Fb
5qqNlz02xyCz+OF1ECQAELh4B7d47dTPqAFEeMhpTKoqekoJEV3y33mRJlfzxQN2
DtJXKS8mgCxAstfPurWjsxfJTjHDlgkDTmzR2Mn+oZk/0w8NzQR7mi+zHsiOyOze
qOi7yyjLFrgZKzN5dfruXmjfvXNt3e6BhgORD3N7mT5anOKDu6bHFKXEgg6nJ6tQ
kwhvFeEuNQ3x7tgnHfNTG1r3fmCfZxwxzWOx3Moz+DMTLQIDAQABo4GiMIGfMAkG
A1UdEwQCMAAwHQYDVR0OBBYEFDvKAdI8FLKyEMkHfqNV7FJy5nwPMFEGA1UdIwRK
MEiAFK/QqTHlMow7xsNtOMgtSlmyBNp/oRqkGDAWMRQwEgYDVQQDDAt0ZWFtNDc5
LW5ldIIUa8vP04k2L8QX9Ycs7E6spzuM9qYwEwYDVR0lBAwwCgYIKwYBBQUHAwIw
CwYDVR0PBAQDAgeAMA0GCSqGSIb3DQEBCwUAA4IBAQBovcuVB4NQogOIm4nkb9K2
dOTw+U8y94fECA+pt974+McDwDaYq1P4SsKhjOfhSYN88jgszB0gL0Gu0KH4i2GA
/FVoynGJ8QZ7kx+dN8ewGgmbmLVjqLZz1PtwL0gt4xrEfEOFkFuywAMgE+PX+UiC
eB4wkxL0GOM0jhm32pJG4PJCAwyVGOm0TGaaMLrFuJlKqVdcr7Lnx64EtmcrIT7E
QUxBfOy0eQKrXO+C+fDrMeToWd1U/wVxO68tbGfptsxCiFXuYNjaMcZHOc9LyAxk
cax6QagchVG0VyTJJ12JSnn5mBCS4PLvbYRasgQqkaz+ndLYlFbXZUrBxcORbnIS
-----END CERTIFICATE-----
