Certificate:
    Data:
        Version: 3 (0x2)
        Serial Number:
            25:7a:96:c2:7a:e3:50:d7:84:6c:bf:8e:77:56:95:c6
        Signature Algorithm: sha256WithRSAEncryption
        Issuer: CN=team260-net
        Validity
            Not Before: Nov  4 11:32:47 2023 GMT
            Not After : Oct 19 11:32:47 2026 GMT
        Subject: CN=team260-server
        Subject Public Key Info:
            Public Key Algorithm: rsaEncryption
                Public-Key: (2048 bit)
                Modulus:
                    00:a2:58:55:ec:17:ca:bc:8f:55:70:68:9e:d4:4b:
                    fc:b8:f1:f6:02:de:88:2e:98:ea:45:51:fa:f8:24:
                    af:64:2a:91:7b:8b:ad:bb:ca:fa:a2:4a:69:2f:74:
                    e0:89:73:b4:1f:50:95:ee:07:be:d4:ce:36:95:d7:
                    1d:e2:5c:f8:5c:34:4e:9c:76:2c:1e:ce:70:b7:e2:
                    c5:dd:f5:ee:5a:bb:03:45:38:80:27:ab:12:b7:90:
                    04:7b:a6:61:85:fc:4e:6a:55:89:c0:ce:d1:2b:49:
                    d4:05:24:d8:33:40:e7:f8:39:74:6d:60:60:8b:ee:
                    e0:e1:04:84:e1:52:5a:f4:64:4f:90:9b:2d:38:a3:
                    7c:bf:88:53:86:7b:85:4c:f2:f0:05:24:5d:28:46:
                    1a:cc:3b:89:2d:36:4d:e5:3a:e0:c3:a4:78:a7:4f:
                    a6:b8:34:45:9c:09:34:1e:fd:e4:7f:46:0f:1f:b8:
                    16:58:50:b3:cd:95:50:ec:63:8e:3d:ba:9a:88:b9:
                    fc:8c:c1:9b:b2:3a:a7:49:e2:66:09:3d:4c:94:ff:
                    75:14:2b:93:73:df:35:6f:75:e3:2a:2d:a0:24:f9:
                    ed:aa:73:ea:bf:db:28:df:26:d0:a9:44:7a:36:45:
                    14:69:6c:b6:b8:1e:be:a0:f0:5a:97:24:02:f1:a3:
                    38:07
                Exponent: 65537 (0x10001)
        X509v3 extensions:
            X509v3 Basic Constraints: 
                CA:FALSE
            X509v3 Subject Key Identifier: 
                E7:E3:78:01:1D:2E:92:23:B1:50:3D:72:21:04:C4:FE:E0:55:03:48
            X509v3 Authority Key Identifier: 
                keyid:3D:5E:2C:68:47:ED:81:D8:96:AE:44:19:14:36:DE:3E:E9:E9:4C:22
                DirName:/CN=team260-net
                serial:32:9B:98:EE:73:EF:79:44:15:6A:98:01:2D:0E:8C:EE:AE:47:A3:99
            X509v3 Extended Key Usage: 
                TLS Web Server Authentication
            X509v3 Key Usage: 
                Digital Signature, Key Encipherment
            X509v3 Subject Alternative Name: 
                DNS:team260-server
    Signature Algorithm: sha256WithRSAEncryption
    Signature Value:
        62:c9:e7:bc:60:1c:65:bd:de:70:58:e6:76:ca:ac:97:b9:af:
        85:b5:29:2b:94:2c:e8:09:99:58:33:9b:42:a5:c5:22:f5:34:
        c2:27:88:c9:3a:dd:ff:e9:83:2b:2c:21:7c:26:4a:87:80:d6:
        ba:8c:07:0b:3c:cc:67:55:49:6f:01:cf:17:30:0b:3c:4f:f2:
        73:8e:49:fb:58:10:78:77:78:74:ab:ba:f8:b5:d5:1e:cb:2d:
        e6:95:8b:55:46:9e:a4:b2:6a:f7:2e:c2:e1:c7:8c:1c:26:a7:
        52:b6:db:d8:81:c9:e2:64:67:34:86:27:0d:de:b5:ef:75:b7:
        3c:42:bd:1e:fc:d4:40:2a:28:6a:f0:d8:22:bf:7a:27:a1:71:
        07:d0:08:df:11:fa:39:5b:d0:a7:62:96:fc:63:9e:8b:bd:ca:
        df:b9:51:a1:19:c4:92:96:44:15:7f:1d:f7:a7:0d:e9:c1:e6:
        8b:b9:eb:7e:13:ea:d0:03:4c:8a:d1:bd:9a:79:ef:5d:68:47:
        f8:d8:a9:40:b3:33:ab:75:d4:e0:6c:bf:54:28:3a:78:2b:ca:
        74:a1:ce:52:0a:3e:45:ad:8b:3c:99:ec:6f:d6:e0:d9:48:fb:
        57:20:04:0a:ef:87:ef:7a:2b:5e:78:af:53:03:5a:8f:29:6d:
        65:35:ee:fc
-----BEGIN CERTIFICATE-----
MIIDdzCCAl+gAwIBAgIQJXqWwnrjUNeEbL+Od1aVxjANBgkqhkiG9w0BAQsFADAW
MRQwEgYDVQQDDAt0ZWFtMjYwLW5ldDAeFw0yMzExMDQxMTMyNDdaFw0yNjEwMTkx
MTMyNDdaMBkxFzAVBgNVBAMMDnRlYW0yNjAtc2VydmVyMIIBIjANBgkqhkiG9w0B
AQEFAAOCAQ8AMIIBCgKCAQEAolhV7BfKvI9VcGie1Ev8uPH2At6ILpjqRVH6+CSv
ZCqRe4utu8r6okppL3TgiXO0H1CV7ge+1M42ldcd4lz4XDROnHYsHs5wt+LF3fXu
WrsDRTiAJ6sSt5AEe6ZhhfxOalWJwM7RK0nUBSTYM0Dn+Dl0bWBgi+7g4QSE4VJa
9GRPkJstOKN8v4hThnuFTPLwBSRdKEYazDuJLTZN5Trgw6R4p0+muDRFnAk0Hv3k
f0YPH7gWWFCzzZVQ7GOOPbqaiLn8jMGbsjqnSeJmCT1MlP91FCuTc981b3XjKi2g
JPntqnPqv9so3ybQqUR6NkUUaWy2uB6+oPBalyQC8aM4BwIDAQABo4G9MIG6MAkG
A1UdEwQCMAAwHQYDVR0OBBYEFOfjeAEdLpIjsVA9ciEExP7gVQNIMFEGA1UdIwRK
MEiAFD1eLGhH7YHYlq5EGRQ23j7p6UwioRqkGDAWMRQwEgYDVQQDDAt0ZWFtMjYw
LW5ldIIUMpuY7nPveUQVapgBLQ6M7q5Ho5kwEwYDVR0lBAwwCgYIKwYBBQUHAwEw
CwYDVR0PBAQDAgWgMBkGA1UdEQQSMBCCDnRlYW0yNjAtc2VydmVyMA0GCSqGSIb3
DQEBCwUAA4IBAQBiyee8YBxlvd5wWOZ2yqyXua+FtSkrlCzoCZlYM5tCpcUi9TTC
J4jJOt3/6YMrLCF8JkqHgNa6jAcLPMxnVUlvAc8XMAs8T/Jzjkn7WBB4d3h0q7r4
tdUeyy3mlYtVRp6ksmr3LsLhx4wcJqdSttvYgcniZGc0hicN3rXvdbc8Qr0e/NRA
Kihq8Ngiv3onoXEH0AjfEfo5W9CnYpb8Y56LvcrfuVGhGcSSlkQVfx33pw3pweaL
uet+E+rQA0yK0b2aee9daEf42KlAszOrddTgbL9UKDp4K8p0oc5SCj5FrYs8mexv
1uDZSPtXIAQK74fveiteeK9TA1qPKW1lNe78
-----END CERTIFICATE-----
