Certificate:
    Data:
        Version: 3 (0x2)
        Serial Number:
            43:c4:ab:57:52:47:e3:1d:52:85:23:d7:bd:76:bf:cc
        Signature Algorithm: sha256WithRSAEncryption
        Issuer: CN=team260-net
        Validity
            Not Before: Nov  3 20:44:04 2023 GMT
            Not After : Oct 18 20:44:04 2026 GMT
        Subject: CN=team260-client
        Subject Public Key Info:
            Public Key Algorithm: rsaEncryption
                Public-Key: (2048 bit)
                Modulus:
                    00:f4:d8:88:b7:af:f5:cc:ba:8d:30:87:63:82:e9:
                    19:17:a0:20:01:a9:6f:84:2a:2b:0c:aa:3c:20:1c:
                    63:50:fe:ad:b1:93:b2:ef:0e:d7:a2:15:c4:18:7a:
                    7b:90:81:51:08:94:03:a3:e7:ac:5f:4d:c5:ca:6c:
                    ef:54:c1:de:ce:64:b0:e4:a1:f4:fc:b8:1b:64:d1:
                    a3:55:48:3f:e1:0e:07:85:ca:f0:b2:2d:4b:4a:1e:
                    16:29:5a:cc:8d:3d:cc:a3:f5:23:90:08:3b:e7:84:
                    11:16:81:01:51:96:d7:05:47:69:b1:a2:89:9b:d1:
                    ed:0f:28:0e:a7:89:c0:16:8f:68:99:d5:be:59:ec:
                    6f:87:ec:25:d0:9b:68:47:33:45:d9:31:0c:07:5a:
                    86:c2:50:8f:a8:f6:b4:7b:bb:2f:1a:d1:92:a2:92:
                    82:58:b4:08:6d:19:7e:27:a1:70:2d:44:bb:29:bc:
                    d1:e7:b8:72:e1:92:b3:99:e1:75:f6:70:e1:bc:cc:
                    e8:3b:ac:de:0f:e4:49:fe:3f:21:1e:06:7b:4c:31:
                    8e:8c:e8:7b:49:41:eb:46:05:60:36:c1:cf:d8:57:
                    45:61:8e:6f:1e:08:e0:24:5f:f2:cb:55:66:cc:71:
                    b4:b6:1f:14:1a:66:18:d5:68:d2:0f:63:83:c5:d8:
                    b3:05
                Exponent: 65537 (0x10001)
        X509v3 extensions:
            X509v3 Basic Constraints: 
                CA:FALSE
            X509v3 Subject Key Identifier: 
                85:1A:AE:F5:4C:83:F8:5A:01:C8:42:5B:01:30:6F:31:3E:68:82:E8
            X509v3 Authority Key Identifier: 
                keyid:DF:D3:40:74:B9:C6:AE:70:A2:6E:A8:ED:F5:FE:B5:64:32:75:BC:4F
                DirName:/CN=team260-net
                serial:6D:50:B4:E8:FC:B1:9D:98:AF:9F:F8:D7:B7:E4:E4:95:86:44:4C:42
            X509v3 Extended Key Usage: 
                TLS Web Client Authentication
            X509v3 Key Usage: 
                Digital Signature
    Signature Algorithm: sha256WithRSAEncryption
    Signature Value:
        1f:54:d6:d9:bb:55:73:49:25:b8:f9:80:20:48:90:64:a1:ea:
        84:66:3d:12:ee:d6:4c:48:63:4d:5a:dc:30:f2:1f:99:6b:df:
        78:12:7f:6f:b8:7c:cf:ce:db:ca:85:8f:7f:f6:68:54:ed:1b:
        92:ff:bd:d0:c5:a0:9a:e5:22:0d:3a:7a:5f:95:d7:22:d7:39:
        f4:00:f8:39:0b:61:71:4f:cd:fb:61:d4:d7:a8:07:bd:89:c0:
        9e:46:26:05:99:52:05:c0:99:59:71:6f:b6:48:25:bc:97:10:
        5d:e1:91:0b:b8:ac:4b:4a:eb:86:30:6d:9a:50:ce:be:64:1b:
        3e:8c:79:cf:56:98:58:1d:86:d1:2b:3a:64:1f:87:d8:50:fd:
        93:fe:b5:59:a5:02:a0:32:18:94:7d:b1:e6:42:ab:62:f4:77:
        c4:0c:d2:d1:11:70:4d:9f:1c:db:74:6e:ca:fc:ea:81:f1:c4:
        75:bc:4f:79:34:cf:8c:57:8f:68:f0:cd:c6:e1:23:96:12:19:
        dd:54:8e:e8:c6:13:b5:15:2e:71:46:99:84:e9:de:5a:47:63:
        96:23:2e:82:95:49:30:bd:97:b4:74:63:eb:a9:0f:d8:31:1d:
        9e:b5:e7:73:9e:7d:b7:e5:05:d0:48:4e:04:1b:af:7e:5a:d2:
        a8:86:18:7a
-----BEGIN CERTIFICATE-----
MIIDXDCCAkSgAwIBAgIQQ8SrV1JH4x1ShSPXvXa/zDANBgkqhkiG9w0BAQsFADAW
MRQwEgYDVQQDDAt0ZWFtMjYwLW5ldDAeFw0yMzExMDMyMDQ0MDRaFw0yNjEwMTgy
MDQ0MDRaMBkxFzAVBgNVBAMMDnRlYW0yNjAtY2xpZW50MIIBIjANBgkqhkiG9w0B
AQEFAAOCAQ8AMIIBCgKCAQEA9NiIt6/1zLqNMIdjgukZF6AgAalvhCorDKo8IBxj
UP6tsZOy7w7XohXEGHp7kIFRCJQDo+esX03FymzvVMHezmSw5KH0/LgbZNGjVUg/
4Q4Hhcrwsi1LSh4WKVrMjT3Mo/UjkAg754QRFoEBUZbXBUdpsaKJm9HtDygOp4nA
Fo9omdW+Wexvh+wl0JtoRzNF2TEMB1qGwlCPqPa0e7svGtGSopKCWLQIbRl+J6Fw
LUS7KbzR57hy4ZKzmeF19nDhvMzoO6zeD+RJ/j8hHgZ7TDGOjOh7SUHrRgVgNsHP
2FdFYY5vHgjgJF/yy1VmzHG0th8UGmYY1WjSD2ODxdizBQIDAQABo4GiMIGfMAkG
A1UdEwQCMAAwHQYDVR0OBBYEFIUarvVMg/haAchCWwEwbzE+aILoMFEGA1UdIwRK
MEiAFN/TQHS5xq5wom6o7fX+tWQydbxPoRqkGDAWMRQwEgYDVQQDDAt0ZWFtMjYw
LW5ldIIUbVC06PyxnZivn/jXt+TklYZETEIwEwYDVR0lBAwwCgYIKwYBBQUHAwIw
CwYDVR0PBAQDAgeAMA0GCSqGSIb3DQEBCwUAA4IBAQAfVNbZu1VzSSW4+YAgSJBk
oeqEZj0S7tZMSGNNWtww8h+Za994En9vuHzPztvKhY9/9mhU7RuS/73QxaCa5SIN
Onpfldci1zn0APg5C2FxT837YdTXqAe9icCeRiYFmVIFwJlZcW+2SCW8lxBd4ZEL
uKxLSuuGMG2aUM6+ZBs+jHnPVphYHYbRKzpkH4fYUP2T/rVZpQKgMhiUfbHmQqti
9HfEDNLREXBNnxzbdG7K/OqB8cR1vE95NM+MV49o8M3G4SOWEhndVI7oxhO1FS5x
RpmE6d5aR2OWIy6ClUkwvZe0dGPrqQ/YMR2etedznn235QXQSE4EG69+WtKohhh6
-----END CERTIFICATE-----
