Certificate:
    Data:
        Version: 3 (0x2)
        Serial Number:
            7d:63:e1:45:2f:f0:f1:90:ca:b0:cd:14:67:a4:35:7d
        Signature Algorithm: sha256WithRSAEncryption
        Issuer: CN=team260-net
        Validity
            Not Before: Nov  3 20:44:04 2023 GMT
            Not After : Oct 18 20:44:04 2026 GMT
        Subject: CN=team260-server
        Subject Public Key Info:
            Public Key Algorithm: rsaEncryption
                Public-Key: (2048 bit)
                Modulus:
                    00:c1:fc:cb:07:16:11:6c:e9:fc:48:68:c8:43:19:
                    0e:80:a2:e2:e8:29:be:80:44:08:50:af:8a:a6:6c:
                    5a:95:c3:e0:71:f2:a4:76:1d:2f:ed:28:24:4a:64:
                    7b:7d:20:14:80:a7:c6:3b:25:50:d5:12:32:a2:0f:
                    2d:24:23:77:1d:39:96:66:0f:a0:07:f4:14:e8:57:
                    90:30:55:10:3c:c6:3a:8e:dc:50:0e:2b:85:a5:10:
                    c4:f9:ad:46:09:be:85:21:96:91:ef:5f:2c:41:cc:
                    14:f7:28:41:97:c2:dc:7f:94:d8:1c:5f:7a:f2:ec:
                    11:9b:dd:9c:79:ea:55:b1:85:8f:8a:7c:6b:29:f7:
                    a1:d6:36:5c:9e:c3:b4:76:d8:2c:7c:63:9c:6e:e3:
                    48:2e:53:6c:f6:47:72:56:dd:c1:a9:7e:13:2d:14:
                    16:64:c1:e6:be:5f:db:91:35:71:ca:26:a9:2c:8b:
                    46:6b:c7:36:79:97:8f:80:da:68:bb:c0:95:35:52:
                    44:e6:90:fd:44:5c:06:26:ab:25:29:3e:c7:46:f9:
                    e6:10:a7:3e:5a:37:b2:03:c8:12:c9:3f:71:9a:5a:
                    e6:87:84:7d:0a:bf:75:27:42:6c:36:0b:76:58:66:
                    bd:3e:26:e0:da:a2:95:54:c5:ed:e5:e0:dc:a4:79:
                    6c:f5
                Exponent: 65537 (0x10001)
        X509v3 extensions:
            X509v3 Basic Constraints: 
                CA:FALSE
            X509v3 Subject Key Identifier: 
                27:58:19:72:2B:2D:B7:80:56:06:E9:CF:40:B0:1E:A4:65:3E:F4:B9
            X509v3 Authority Key Identifier: 
                keyid:DF:D3:40:74:B9:C6:AE:70:A2:6E:A8:ED:F5:FE:B5:64:32:75:BC:4F
                DirName:/CN=team260-net
                serial:6D:50:B4:E8:FC:B1:9D:98:AF:9F:F8:D7:B7:E4:E4:95:86:44:4C:42
            X509v3 Extended Key Usage: 
                TLS Web Server Authentication
            X509v3 Key Usage: 
                Digital Signature, Key Encipherment
            X509v3 Subject Alternative Name: 
                DNS:team260-server
    Signature Algorithm: sha256WithRSAEncryption
    Signature Value:
        6e:35:20:ba:21:45:26:50:1d:26:52:db:08:05:3d:30:82:c6:
        d4:7b:43:d8:73:37:71:36:b8:63:90:bd:1e:19:ed:d1:55:82:
        16:c2:fc:68:68:f3:2f:d3:4d:d3:72:54:5e:bb:a7:69:b1:6e:
        cc:ed:e5:08:c7:5f:1f:e4:b8:e0:5a:f3:0b:19:3b:fe:53:0d:
        1a:27:dd:0f:4a:cd:7b:c6:11:a0:4f:18:de:5b:36:d9:74:34:
        91:c5:25:36:6c:9c:b2:6d:fd:b6:2f:ce:1c:38:60:bb:26:24:
        ab:a2:7e:88:e1:81:b6:b9:68:09:b2:80:76:d5:24:cb:2d:d7:
        b2:d7:4e:93:dd:84:8a:f0:c7:f8:25:b2:10:57:7b:64:8d:6b:
        f9:f3:c9:37:e5:83:cc:b9:f8:8d:8a:c9:3e:05:9b:20:76:80:
        c5:d2:e2:27:2c:00:09:a5:7d:2d:0c:fd:21:8f:dc:38:10:20:
        4a:6a:8c:fc:50:71:a3:fa:1b:c3:4c:ca:2d:b4:62:fd:d6:82:
        7a:ee:d8:12:2c:b4:82:d8:81:8d:45:31:b5:ca:1f:1c:95:f8:
        3a:81:a4:32:d4:68:0c:da:86:9f:60:69:b2:cd:f7:34:15:56:
        8c:a9:6e:c7:6d:94:7e:6c:8a:82:54:55:dc:14:04:4e:ca:2f:
        0b:0c:78:6e
-----BEGIN CERTIFICATE-----
MIIDdzCCAl+gAwIBAgIQfWPhRS/w8ZDKsM0UZ6Q1fTANBgkqhkiG9w0BAQsFADAW
MRQwEgYDVQQDDAt0ZWFtMjYwLW5ldDAeFw0yMzExMDMyMDQ0MDRaFw0yNjEwMTgy
MDQ0MDRaMBkxFzAVBgNVBAMMDnRlYW0yNjAtc2VydmVyMIIBIjANBgkqhkiG9w0B
AQEFAAOCAQ8AMIIBCgKCAQEAwfzLBxYRbOn8SGjIQxkOgKLi6Cm+gEQIUK+Kpmxa
lcPgcfKkdh0v7SgkSmR7fSAUgKfGOyVQ1RIyog8tJCN3HTmWZg+gB/QU6FeQMFUQ
PMY6jtxQDiuFpRDE+a1GCb6FIZaR718sQcwU9yhBl8Lcf5TYHF968uwRm92ceepV
sYWPinxrKfeh1jZcnsO0dtgsfGOcbuNILlNs9kdyVt3BqX4TLRQWZMHmvl/bkTVx
yiapLItGa8c2eZePgNpou8CVNVJE5pD9RFwGJqslKT7HRvnmEKc+WjeyA8gSyT9x
mlrmh4R9Cr91J0JsNgt2WGa9Pibg2qKVVMXt5eDcpHls9QIDAQABo4G9MIG6MAkG
A1UdEwQCMAAwHQYDVR0OBBYEFCdYGXIrLbeAVgbpz0CwHqRlPvS5MFEGA1UdIwRK
MEiAFN/TQHS5xq5wom6o7fX+tWQydbxPoRqkGDAWMRQwEgYDVQQDDAt0ZWFtMjYw
LW5ldIIUbVC06PyxnZivn/jXt+TklYZETEIwEwYDVR0lBAwwCgYIKwYBBQUHAwEw
CwYDVR0PBAQDAgWgMBkGA1UdEQQSMBCCDnRlYW0yNjAtc2VydmVyMA0GCSqGSIb3
DQEBCwUAA4IBAQBuNSC6IUUmUB0mUtsIBT0wgsbUe0PYczdxNrhjkL0eGe3RVYIW
wvxoaPMv003TclReu6dpsW7M7eUIx18f5LjgWvMLGTv+Uw0aJ90PSs17xhGgTxje
WzbZdDSRxSU2bJyybf22L84cOGC7JiSron6I4YG2uWgJsoB21STLLdey106T3YSK
8Mf4JbIQV3tkjWv588k35YPMufiNisk+BZsgdoDF0uInLAAJpX0tDP0hj9w4ECBK
aoz8UHGj+hvDTMottGL91oJ67tgSLLSC2IGNRTG1yh8clfg6gaQy1GgM2oafYGmy
zfc0FVaMqW7HbZR+bIqCVFXcFAROyi8LDHhu
-----END CERTIFICATE-----
