Certificate:
    Data:
        Version: 3 (0x2)
        Serial Number:
            b4:4b:e0:91:17:9b:dc:e5:c2:2b:5e:c6:83:05:4a:f7
        Signature Algorithm: sha256WithRSAEncryption
        Issuer: CN=team271-net
        Validity
            Not Before: Nov  4 10:45:41 2023 GMT
            Not After : Oct 19 10:45:41 2026 GMT
        Subject: CN=team271-client
        Subject Public Key Info:
            Public Key Algorithm: rsaEncryption
                Public-Key: (2048 bit)
                Modulus:
                    00:c4:e1:58:89:43:38:d6:37:16:ba:8a:4a:b1:4d:
                    36:52:1c:1a:9e:ea:0a:64:d6:87:b7:17:21:b1:14:
                    e3:09:42:ba:16:80:a3:47:2e:1d:ce:20:fb:a6:f2:
                    1e:b1:aa:f4:0f:02:ac:ee:e7:7c:e9:b1:e7:9f:de:
                    43:86:98:09:31:5d:80:db:bf:50:27:a3:88:8e:eb:
                    e3:70:82:33:87:18:04:11:e1:05:5b:e8:f3:71:8f:
                    28:1a:07:d6:ca:c2:50:ee:ac:cc:6a:2f:1d:d4:da:
                    fe:e0:9b:0e:44:07:e1:e1:5e:ef:de:a4:10:71:eb:
                    af:72:a7:09:93:3b:7b:e6:ae:30:e7:de:f3:e3:59:
                    27:9f:b7:62:1e:38:98:96:48:7b:7e:67:55:5a:cc:
                    f2:95:f4:d0:18:fb:25:24:20:e6:ed:c1:58:19:80:
                    8f:e3:46:4d:c0:de:7f:db:b2:07:f3:0f:42:83:aa:
                    6b:65:84:e1:e6:a5:cf:21:f3:9f:03:78:bd:f1:f6:
                    a2:af:0e:57:2d:38:76:c5:28:fe:e9:e5:f0:2a:c2:
                    0e:9f:4a:3c:b5:87:3f:ba:95:c0:69:25:3b:e1:f9:
                    ef:01:ac:9a:f9:db:8a:b9:44:20:1f:b6:61:65:bb:
                    00:19:42:e9:a1:93:47:55:4f:c9:54:18:82:64:dc:
                    8e:ff
                Exponent: 65537 (0x10001)
        X509v3 extensions:
            X509v3 Basic Constraints: 
                CA:FALSE
            X509v3 Subject Key Identifier: 
                80:EB:31:75:9A:E6:11:8F:01:F9:38:EF:81:A7:0B:83:53:30:3E:BB
            X509v3 Authority Key Identifier: 
                keyid:31:76:27:86:B6:0D:C7:9A:CC:84:60:34:8D:40:15:CC:E6:20:44:CA
                DirName:/CN=team271-net
                serial:4F:81:F0:64:F4:30:26:62:B4:19:1A:C7:58:B7:27:6D:3A:4C:C7:DC
            X509v3 Extended Key Usage: 
                TLS Web Client Authentication
            X509v3 Key Usage: 
                Digital Signature
    Signature Algorithm: sha256WithRSAEncryption
    Signature Value:
        42:78:76:29:76:85:18:80:84:ca:04:32:53:37:fd:93:09:89:
        f2:87:3d:29:d3:54:14:cc:5d:f3:95:63:c4:72:e8:6f:75:d8:
        9d:3a:34:b1:a8:54:19:5f:e0:77:d3:63:38:dc:3f:81:59:d7:
        c1:9c:55:4a:fb:6b:88:82:38:37:24:d9:75:d7:a1:af:cc:e0:
        ef:23:a9:37:7d:fa:57:1a:f6:32:cd:3d:3d:e7:40:0c:5b:ec:
        b6:25:b0:0b:54:9e:10:b9:cf:fd:b6:f5:d0:f1:1b:bc:ab:47:
        82:37:9c:de:95:80:73:a2:5a:2e:c9:75:ef:46:2c:4a:6d:7f:
        66:84:33:76:75:48:e3:fd:7a:d9:bb:42:d9:df:26:65:5c:6a:
        b9:74:b2:bc:1f:6d:77:3d:1c:15:89:08:e6:a6:af:8d:d7:21:
        d3:3e:9e:e3:29:6e:8a:01:58:66:88:65:b7:2c:05:29:40:21:
        e9:70:3d:93:37:8c:39:1a:93:dd:08:a3:31:84:f9:ff:80:0f:
        42:e2:ec:61:ea:96:1a:f2:f2:f1:c8:15:14:31:40:af:44:b2:
        15:8e:92:f2:24:05:62:a9:ad:72:05:8d:7e:d0:3d:51:e5:1b:
        a2:69:85:9c:31:0c:18:8e:c2:b1:ae:28:db:ec:0f:1d:c1:2a:
        f4:e6:16:f0
-----BEGIN CERTIFICATE-----
MIIDXTCCAkWgAwIBAgIRALRL4JEXm9zlwitexoMFSvcwDQYJKoZIhvcNAQELBQAw
FjEUMBIGA1UEAwwLdGVhbTI3MS1uZXQwHhcNMjMxMTA0MTA0NTQxWhcNMjYxMDE5
MTA0NTQxWjAZMRcwFQYDVQQDDA50ZWFtMjcxLWNsaWVudDCCASIwDQYJKoZIhvcN
AQEBBQADggEPADCCAQoCggEBAMThWIlDONY3FrqKSrFNNlIcGp7qCmTWh7cXIbEU
4wlCuhaAo0cuHc4g+6byHrGq9A8CrO7nfOmx55/eQ4aYCTFdgNu/UCejiI7r43CC
M4cYBBHhBVvo83GPKBoH1srCUO6szGovHdTa/uCbDkQH4eFe796kEHHrr3KnCZM7
e+auMOfe8+NZJ5+3Yh44mJZIe35nVVrM8pX00Bj7JSQg5u3BWBmAj+NGTcDef9uy
B/MPQoOqa2WE4ealzyHznwN4vfH2oq8OVy04dsUo/unl8CrCDp9KPLWHP7qVwGkl
O+H57wGsmvnbirlEIB+2YWW7ABlC6aGTR1VPyVQYgmTcjv8CAwEAAaOBojCBnzAJ
BgNVHRMEAjAAMB0GA1UdDgQWBBSA6zF1muYRjwH5OO+BpwuDUzA+uzBRBgNVHSME
SjBIgBQxdieGtg3HmsyEYDSNQBXM5iBEyqEapBgwFjEUMBIGA1UEAwwLdGVhbTI3
MS1uZXSCFE+B8GT0MCZitBkax1i3J206TMfcMBMGA1UdJQQMMAoGCCsGAQUFBwMC
MAsGA1UdDwQEAwIHgDANBgkqhkiG9w0BAQsFAAOCAQEAQnh2KXaFGICEygQyUzf9
kwmJ8oc9KdNUFMxd85VjxHLob3XYnTo0sahUGV/gd9NjONw/gVnXwZxVSvtriII4
NyTZddehr8zg7yOpN336Vxr2Ms09PedADFvstiWwC1SeELnP/bb10PEbvKtHgjec
3pWAc6JaLsl170YsSm1/ZoQzdnVI4/162btC2d8mZVxquXSyvB9tdz0cFYkI5qav
jdch0z6e4yluigFYZohltywFKUAh6XA9kzeMORqT3QijMYT5/4APQuLsYeqWGvLy
8cgVFDFAr0SyFY6S8iQFYqmtcgWNftA9UeUbommFnDEMGI7Csa4o2+wPHcEq9OYW
8A==
-----END CERTIFICATE-----
