Certificate:
    Data:
        Version: 3 (0x2)
        Serial Number:
            9a:70:fc:04:6f:98:26:d5:f1:3a:8c:65:e6:29:43:1b
        Signature Algorithm: sha256WithRSAEncryption
        Issuer: CN=team197-net
        Validity
            Not Before: Nov  3 20:42:51 2023 GMT
            Not After : Oct 18 20:42:51 2026 GMT
        Subject: CN=team197-server
        Subject Public Key Info:
            Public Key Algorithm: rsaEncryption
                Public-Key: (2048 bit)
                Modulus:
                    00:cd:cc:5b:5e:14:53:c9:f2:51:8e:0e:f1:ea:bf:
                    b0:3f:e8:bb:13:2c:eb:fc:7a:ae:c1:a3:a6:69:79:
                    49:58:f4:01:4d:56:e9:d6:a7:41:e8:c5:97:49:c8:
                    f1:12:44:e3:c6:f2:77:cc:60:f3:2c:c8:6f:94:1e:
                    ed:63:bf:d2:74:a6:e0:f8:1e:d0:e8:16:47:b6:ba:
                    04:53:f0:2f:1e:c0:1e:e5:b9:a8:4a:db:5e:99:68:
                    08:68:d6:7d:26:9e:b3:90:bd:ec:ce:22:f1:de:6c:
                    c9:b7:00:04:43:0b:0f:f6:d4:13:17:ac:db:96:4d:
                    95:f5:cf:db:27:3d:bc:19:7d:39:d2:42:69:f9:28:
                    2c:b0:fd:29:65:89:c4:78:7a:ab:57:71:76:b0:19:
                    00:77:00:48:2b:c9:33:21:87:86:a0:f8:d5:27:0e:
                    f8:23:49:a2:3d:e3:a2:30:6b:b5:8e:13:fa:86:09:
                    e2:c8:03:45:39:25:c1:0a:40:e7:ad:1b:d6:65:0f:
                    c6:fa:de:36:ee:77:8f:b7:55:fb:f4:99:df:a4:12:
                    66:cd:9a:26:12:28:50:f8:1d:2e:77:79:54:b9:01:
                    f5:54:dc:d2:a8:38:e1:7c:13:23:d4:64:5a:00:2a:
                    16:53:81:e1:96:ff:87:d4:5f:42:9e:e5:b4:12:8b:
                    4b:51
                Exponent: 65537 (0x10001)
        X509v3 extensions:
            X509v3 Basic Constraints: 
                CA:FALSE
            X509v3 Subject Key Identifier: 
                13:58:D0:8E:FE:28:9F:65:7D:2C:49:DB:E7:FA:EA:C7:E6:41:B2:7F
            X509v3 Authority Key Identifier: 
                keyid:4F:88:1B:29:BD:F6:12:2A:64:B5:A2:90:92:63:39:1D:E5:E2:E5:91
                DirName:/CN=team197-net
                serial:0C:75:64:59:A4:11:79:A3:F5:23:6D:85:72:F1:1A:1F:4E:27:59:94
            X509v3 Extended Key Usage: 
                TLS Web Server Authentication
            X509v3 Key Usage: 
                Digital Signature, Key Encipherment
            X509v3 Subject Alternative Name: 
                DNS:team197-server
    Signature Algorithm: sha256WithRSAEncryption
    Signature Value:
        29:b7:21:ce:89:3e:56:b0:48:6a:b6:56:5b:08:41:f8:d5:17:
        92:61:11:6e:8b:31:32:9f:44:a9:ca:7f:c6:e7:02:5c:cc:bf:
        3a:d1:4b:5c:d7:7d:0a:54:48:85:92:c3:8c:34:16:19:b1:42:
        46:0a:05:02:90:f3:37:99:2b:25:e0:82:36:24:bf:45:e2:4f:
        55:77:b7:55:f1:52:ac:c9:cc:aa:97:6a:18:70:e6:19:af:35:
        31:f5:0c:30:3d:21:d6:52:23:96:2b:4b:8e:d1:82:e3:57:0f:
        68:9b:03:1f:e0:42:7a:2b:d3:2b:f7:d7:5d:76:71:09:4f:0a:
        00:c3:54:7d:e3:a7:2c:16:dd:00:ed:30:29:0b:2f:a9:7f:f5:
        8f:34:8c:47:3d:64:57:20:f9:ee:27:b6:68:cc:b3:93:11:a0:
        fa:ec:64:97:d8:b0:c3:ce:31:11:ad:49:73:7e:a9:d3:39:30:
        e2:66:f3:8c:c5:79:79:d6:30:1f:b9:42:1c:1f:ab:7a:b8:35:
        7d:33:b9:23:4a:13:26:b6:b9:3e:9b:4e:50:9e:a1:4c:62:5a:
        98:9e:a2:af:f9:cb:9f:70:dd:60:93:3e:ee:4d:d5:df:c8:43:
        84:9a:2c:11:25:10:90:63:38:56:b7:6a:61:5d:e8:79:3b:dc:
        bb:38:44:b4
-----BEGIN CERTIFICATE-----
MIIDeDCCAmCgAwIBAgIRAJpw/ARvmCbV8TqMZeYpQxswDQYJKoZIhvcNAQELBQAw
FjEUMBIGA1UEAwwLdGVhbTE5Ny1uZXQwHhcNMjMxMTAzMjA0MjUxWhcNMjYxMDE4
MjA0MjUxWjAZMRcwFQYDVQQDDA50ZWFtMTk3LXNlcnZlcjCCASIwDQYJKoZIhvcN
AQEBBQADggEPADCCAQoCggEBAM3MW14UU8nyUY4O8eq/sD/ouxMs6/x6rsGjpml5
SVj0AU1W6danQejFl0nI8RJE48byd8xg8yzIb5Qe7WO/0nSm4Pge0OgWR7a6BFPw
Lx7AHuW5qErbXploCGjWfSaes5C97M4i8d5sybcABEMLD/bUExes25ZNlfXP2yc9
vBl9OdJCafkoLLD9KWWJxHh6q1dxdrAZAHcASCvJMyGHhqD41ScO+CNJoj3jojBr
tY4T+oYJ4sgDRTklwQpA560b1mUPxvreNu53j7dV+/SZ36QSZs2aJhIoUPgdLnd5
VLkB9VTc0qg44XwTI9RkWgAqFlOB4Zb/h9RfQp7ltBKLS1ECAwEAAaOBvTCBujAJ
BgNVHRMEAjAAMB0GA1UdDgQWBBQTWNCO/iifZX0sSdvn+urH5kGyfzBRBgNVHSME
SjBIgBRPiBspvfYSKmS1opCSYzkd5eLlkaEapBgwFjEUMBIGA1UEAwwLdGVhbTE5
Ny1uZXSCFAx1ZFmkEXmj9SNthXLxGh9OJ1mUMBMGA1UdJQQMMAoGCCsGAQUFBwMB
MAsGA1UdDwQEAwIFoDAZBgNVHREEEjAQgg50ZWFtMTk3LXNlcnZlcjANBgkqhkiG
9w0BAQsFAAOCAQEAKbchzok+VrBIarZWWwhB+NUXkmERbosxMp9Eqcp/xucCXMy/
OtFLXNd9ClRIhZLDjDQWGbFCRgoFApDzN5krJeCCNiS/ReJPVXe3VfFSrMnMqpdq
GHDmGa81MfUMMD0h1lIjlitLjtGC41cPaJsDH+BCeivTK/fXXXZxCU8KAMNUfeOn
LBbdAO0wKQsvqX/1jzSMRz1kVyD57ie2aMyzkxGg+uxkl9iww84xEa1Jc36p0zkw
4mbzjMV5edYwH7lCHB+rerg1fTO5I0oTJra5PptOUJ6hTGJamJ6ir/nLn3DdYJM+
7k3V38hDhJosESUQkGM4VrdqYV3oeTvcuzhEtA==
-----END CERTIFICATE-----
