Certificate:
    Data:
        Version: 3 (0x2)
        Serial Number:
            3c:33:87:20:35:d7:77:1f:08:60:56:45:e8:ae:02:71
        Signature Algorithm: sha256WithRSAEncryption
        Issuer: CN=team47-net
        Validity
            Not Before: Nov  3 20:40:04 2023 GMT
            Not After : Oct 18 20:40:04 2026 GMT
        Subject: CN=team47-server
        Subject Public Key Info:
            Public Key Algorithm: rsaEncryption
                Public-Key: (2048 bit)
                Modulus:
                    00:c0:f8:a1:95:0a:29:12:a0:23:82:d3:e6:48:9f:
                    f8:65:f5:b5:7c:f6:e0:81:3c:6d:32:a8:d4:78:5c:
                    10:6d:e0:4d:c9:51:c1:bc:99:0c:4a:4a:74:ca:59:
                    4b:51:0e:2d:fd:9a:1d:7c:92:4c:7c:0b:96:5f:51:
                    47:f0:33:a0:8f:f5:c0:8d:c2:37:ce:55:d0:e2:06:
                    c7:6a:d4:96:e1:20:bf:78:e6:1a:9a:83:bf:23:ce:
                    79:66:5f:02:e1:8e:9d:93:27:66:42:00:93:b5:c3:
                    42:af:c3:82:2d:d2:c1:42:6c:81:3a:28:91:11:7d:
                    5e:aa:0b:40:2e:ff:b9:b9:1d:c9:ff:d9:d4:dd:e1:
                    ed:10:6c:85:60:be:8d:18:01:ab:2e:3a:bc:fd:ed:
                    50:55:60:e4:be:62:69:5f:fb:a3:ef:43:a0:90:bb:
                    af:52:59:f9:e5:fd:dd:fd:33:ae:2d:aa:78:e1:f1:
                    8f:f3:a1:40:8e:9a:2f:6f:23:cc:11:31:c0:35:81:
                    ae:6f:1a:d1:62:67:68:2d:42:b3:b9:9f:bf:f2:16:
                    03:a3:a1:eb:10:15:9a:cd:60:5b:71:5a:f8:5d:da:
                    74:11:be:ac:57:97:1d:33:5c:97:5f:4a:96:9b:b9:
                    7e:53:76:e2:9d:96:41:48:5a:79:a7:70:3e:20:80:
                    07:55
                Exponent: 65537 (0x10001)
        X509v3 extensions:
            X509v3 Basic Constraints: 
                CA:FALSE
            X509v3 Subject Key Identifier: 
                AE:C8:81:B3:84:73:85:B7:6B:AF:B4:3A:1E:7E:E6:63:CC:CA:4A:3F
            X509v3 Authority Key Identifier: 
                keyid:41:FD:E8:23:2B:1B:0C:1B:E2:92:9D:C5:51:80:DD:6F:66:94:F5:91
                DirName:/CN=team47-net
                serial:68:47:49:BC:67:1F:7F:A3:7B:6B:4C:72:1B:BD:A6:39:E4:B4:90:6F
            X509v3 Extended Key Usage: 
                TLS Web Server Authentication
            X509v3 Key Usage: 
                Digital Signature, Key Encipherment
            X509v3 Subject Alternative Name: 
                DNS:team47-server
    Signature Algorithm: sha256WithRSAEncryption
    Signature Value:
        56:8b:e2:e4:4f:dd:4e:11:06:6a:95:7b:30:67:67:37:87:3e:
        7b:8d:6c:09:97:4a:62:66:9a:0e:c3:3f:ac:4e:c5:65:55:0f:
        64:b9:62:77:16:51:6f:8f:0a:ad:0e:8a:24:a3:a1:da:a8:80:
        0f:52:a8:71:3c:e8:c1:61:92:3c:c2:02:d1:73:34:21:e9:5f:
        ab:e1:1c:48:1b:07:bc:fe:a4:a5:37:e7:b7:7a:ad:c3:db:da:
        1b:04:78:94:e8:73:08:c7:16:1b:56:1f:40:5e:27:6e:11:66:
        b1:b1:b6:7e:78:99:7e:ad:40:22:92:93:ab:56:e5:82:d3:d9:
        58:ac:ae:3a:29:49:9f:64:b7:8e:f3:b4:58:0a:fa:9a:fd:75:
        a2:8a:1e:e8:17:6b:4f:cc:3d:65:35:e3:44:67:f9:c5:b2:7c:
        9d:a4:9b:83:5d:44:7b:e3:a9:7c:82:be:12:43:04:f5:26:b4:
        74:54:6d:4d:80:f0:e7:83:48:9b:3b:49:83:fd:2d:8e:88:07:
        de:54:1d:4b:e6:2d:75:c6:83:4f:1e:39:ad:37:98:1e:f9:b7:
        07:af:37:18:ba:46:b5:c7:92:d7:9f:4c:b2:8c:04:e6:a9:6c:
        90:36:02:79:dc:7e:3c:19:df:83:b9:39:67:2f:a5:13:15:ca:
        b7:b3:84:14
-----BEGIN CERTIFICATE-----
MIIDczCCAlugAwIBAgIQPDOHIDXXdx8IYFZF6K4CcTANBgkqhkiG9w0BAQsFADAV
MRMwEQYDVQQDDAp0ZWFtNDctbmV0MB4XDTIzMTEwMzIwNDAwNFoXDTI2MTAxODIw
NDAwNFowGDEWMBQGA1UEAwwNdGVhbTQ3LXNlcnZlcjCCASIwDQYJKoZIhvcNAQEB
BQADggEPADCCAQoCggEBAMD4oZUKKRKgI4LT5kif+GX1tXz24IE8bTKo1HhcEG3g
TclRwbyZDEpKdMpZS1EOLf2aHXySTHwLll9RR/AzoI/1wI3CN85V0OIGx2rUluEg
v3jmGpqDvyPOeWZfAuGOnZMnZkIAk7XDQq/Dgi3SwUJsgTookRF9XqoLQC7/ubkd
yf/Z1N3h7RBshWC+jRgBqy46vP3tUFVg5L5iaV/7o+9DoJC7r1JZ+eX93f0zri2q
eOHxj/OhQI6aL28jzBExwDWBrm8a0WJnaC1Cs7mfv/IWA6Oh6xAVms1gW3Fa+F3a
dBG+rFeXHTNcl19Klpu5flN24p2WQUhaeadwPiCAB1UCAwEAAaOBuzCBuDAJBgNV
HRMEAjAAMB0GA1UdDgQWBBSuyIGzhHOFt2uvtDoefuZjzMpKPzBQBgNVHSMESTBH
gBRB/egjKxsMG+KSncVRgN1vZpT1kaEZpBcwFTETMBEGA1UEAwwKdGVhbTQ3LW5l
dIIUaEdJvGcff6N7a0xyG72mOeS0kG8wEwYDVR0lBAwwCgYIKwYBBQUHAwEwCwYD
VR0PBAQDAgWgMBgGA1UdEQQRMA+CDXRlYW00Ny1zZXJ2ZXIwDQYJKoZIhvcNAQEL
BQADggEBAFaL4uRP3U4RBmqVezBnZzeHPnuNbAmXSmJmmg7DP6xOxWVVD2S5YncW
UW+PCq0OiiSjodqogA9SqHE86MFhkjzCAtFzNCHpX6vhHEgbB7z+pKU357d6rcPb
2hsEeJTocwjHFhtWH0BeJ24RZrGxtn54mX6tQCKSk6tW5YLT2VisrjopSZ9kt47z
tFgK+pr9daKKHugXa0/MPWU140Rn+cWyfJ2km4NdRHvjqXyCvhJDBPUmtHRUbU2A
8OeDSJs7SYP9LY6IB95UHUvmLXXGg08eOa03mB75twevNxi6RrXHktefTLKMBOap
bJA2AnncfjwZ34O5OWcvpRMVyrezhBQ=
-----END CERTIFICATE-----
