Certificate:
    Data:
        Version: 3 (0x2)
        Serial Number:
            cb:33:c6:8b:5f:48:65:2e:f3:ef:5f:b8:f2:0a:d1:c0
        Signature Algorithm: sha256WithRSAEncryption
        Issuer: CN=team149-net
        Validity
            Not Before: Nov  4 11:30:31 2023 GMT
            Not After : Oct 19 11:30:31 2026 GMT
        Subject: CN=team149-server
        Subject Public Key Info:
            Public Key Algorithm: rsaEncryption
                Public-Key: (2048 bit)
                Modulus:
                    00:9d:50:2e:80:60:ed:f1:85:e2:0c:b2:f1:de:5c:
                    57:36:58:61:b4:ee:95:11:43:61:15:59:37:dc:bf:
                    4d:65:c5:0a:0b:e1:bb:46:93:95:6d:23:5d:32:db:
                    9e:65:0f:47:9a:fd:3f:5c:40:d4:e4:d6:31:ca:82:
                    57:67:3d:af:f1:02:96:62:5b:1c:33:08:07:30:93:
                    16:10:30:50:66:48:e1:e8:18:99:14:f4:da:2c:1d:
                    b4:4e:b2:13:22:2b:ec:42:dd:6d:7e:62:35:53:77:
                    38:92:70:a3:d0:8d:73:31:a4:d8:a5:99:7c:e4:d8:
                    72:2f:16:54:0a:6b:ae:83:d2:2c:92:61:d8:65:1b:
                    e1:6e:46:c5:a2:25:9b:86:56:07:4e:c8:70:b0:7c:
                    0d:cf:94:44:3d:5e:e2:2d:91:82:7a:10:61:2b:23:
                    7c:5b:32:97:f0:87:f6:98:de:c8:5f:83:ae:a6:55:
                    d7:3b:e7:2d:9d:ee:f4:d9:8e:ef:5d:5e:ae:36:f2:
                    70:08:75:52:41:e4:b0:e0:83:9d:2a:9f:c2:5c:16:
                    b7:65:50:ba:25:4c:e3:a1:9c:67:5c:aa:f0:93:9a:
                    99:f5:5a:a5:ae:01:0c:79:18:26:b0:41:e6:87:95:
                    6e:0b:ce:bb:d0:b3:f5:66:1d:8c:d1:aa:dd:61:1c:
                    b8:45
                Exponent: 65537 (0x10001)
        X509v3 extensions:
            X509v3 Basic Constraints: 
                CA:FALSE
            X509v3 Subject Key Identifier: 
                A1:A8:05:5F:6E:7D:AE:DB:29:2B:C1:3C:FD:E4:5C:96:68:DF:6A:96
            X509v3 Authority Key Identifier: 
                keyid:D7:78:7E:08:D1:2E:E6:4E:C0:56:7D:6F:23:C0:B6:B4:08:B3:E7:ED
                DirName:/CN=team149-net
                serial:29:B9:D2:97:96:68:5C:96:00:84:81:24:12:D6:42:A9:A7:C6:81:44
            X509v3 Extended Key Usage: 
                TLS Web Server Authentication
            X509v3 Key Usage: 
                Digital Signature, Key Encipherment
            X509v3 Subject Alternative Name: 
                DNS:team149-server
    Signature Algorithm: sha256WithRSAEncryption
    Signature Value:
        e1:d6:16:75:78:55:de:60:55:b4:98:c5:06:4f:aa:21:65:37:
        e6:3f:6b:74:db:09:27:de:ff:f0:03:1c:f9:25:fe:b2:4a:9b:
        82:e2:56:f3:b2:0a:95:92:53:17:e0:29:94:11:a3:4f:71:49:
        3c:3e:bb:78:b0:5c:b9:6e:71:5c:67:f1:6e:b5:5f:b5:f3:cf:
        39:c1:1a:e3:b4:b0:71:89:18:c0:36:dc:7f:50:c2:f0:51:b6:
        ec:72:23:e2:8d:83:b9:63:3c:e1:83:0b:9a:80:29:39:f9:ce:
        36:41:c1:6f:48:e8:57:2a:4f:fd:23:47:66:20:0c:f3:0d:9e:
        ab:aa:66:d0:b0:30:ff:d1:5c:eb:7a:7c:a3:26:d4:ab:8e:4c:
        cb:7e:05:b9:79:81:7e:31:f4:c0:2e:bf:e1:0f:ee:76:c3:a2:
        11:19:fb:0e:64:eb:33:ca:c4:34:e2:58:b6:18:37:a3:aa:d2:
        6c:b2:cc:b4:71:e1:d8:9d:cf:a7:98:76:6d:c9:c2:fd:2c:52:
        ee:37:ed:5d:7b:99:1a:0d:67:8c:83:80:ed:4e:ae:68:1d:9c:
        ad:75:51:34:37:3a:68:51:f7:68:46:ce:3d:49:57:7c:15:ed:
        71:03:36:34:9c:ed:27:be:c7:6d:cd:ec:4b:79:c3:1a:f0:31:
        66:5a:a3:49
-----BEGIN CERTIFICATE-----
MIIDeDCCAmCgAwIBAgIRAMszxotfSGUu8+9fuPIK0cAwDQYJKoZIhvcNAQELBQAw
FjEUMBIGA1UEAwwLdGVhbTE0OS1uZXQwHhcNMjMxMTA0MTEzMDMxWhcNMjYxMDE5
MTEzMDMxWjAZMRcwFQYDVQQDDA50ZWFtMTQ5LXNlcnZlcjCCASIwDQYJKoZIhvcN
AQEBBQADggEPADCCAQoCggEBAJ1QLoBg7fGF4gyy8d5cVzZYYbTulRFDYRVZN9y/
TWXFCgvhu0aTlW0jXTLbnmUPR5r9P1xA1OTWMcqCV2c9r/EClmJbHDMIBzCTFhAw
UGZI4egYmRT02iwdtE6yEyIr7ELdbX5iNVN3OJJwo9CNczGk2KWZfOTYci8WVApr
roPSLJJh2GUb4W5GxaIlm4ZWB07IcLB8Dc+URD1e4i2RgnoQYSsjfFsyl/CH9pje
yF+DrqZV1zvnLZ3u9NmO711erjbycAh1UkHksOCDnSqfwlwWt2VQuiVM46GcZ1yq
8JOamfVapa4BDHkYJrBB5oeVbgvOu9Cz9WYdjNGq3WEcuEUCAwEAAaOBvTCBujAJ
BgNVHRMEAjAAMB0GA1UdDgQWBBShqAVfbn2u2ykrwTz95FyWaN9qljBRBgNVHSME
SjBIgBTXeH4I0S7mTsBWfW8jwLa0CLPn7aEapBgwFjEUMBIGA1UEAwwLdGVhbTE0
OS1uZXSCFCm50peWaFyWAISBJBLWQqmnxoFEMBMGA1UdJQQMMAoGCCsGAQUFBwMB
MAsGA1UdDwQEAwIFoDAZBgNVHREEEjAQgg50ZWFtMTQ5LXNlcnZlcjANBgkqhkiG
9w0BAQsFAAOCAQEA4dYWdXhV3mBVtJjFBk+qIWU35j9rdNsJJ97/8AMc+SX+skqb
guJW87IKlZJTF+AplBGjT3FJPD67eLBcuW5xXGfxbrVftfPPOcEa47SwcYkYwDbc
f1DC8FG27HIj4o2DuWM84YMLmoApOfnONkHBb0joVypP/SNHZiAM8w2eq6pm0LAw
/9Fc63p8oybUq45My34FuXmBfjH0wC6/4Q/udsOiERn7DmTrM8rENOJYthg3o6rS
bLLMtHHh2J3Pp5h2bcnC/SxS7jftXXuZGg1njIOA7U6uaB2crXVRNDc6aFH3aEbO
PUlXfBXtcQM2NJztJ77Hbc3sS3nDGvAxZlqjSQ==
-----END CERTIFICATE-----
