Certificate:
    Data:
        Version: 3 (0x2)
        Serial Number:
            e5:45:c9:3a:8f:65:7f:dd:6b:0a:fe:28:73:da:0b:c3
        Signature Algorithm: sha256WithRSAEncryption
        Issuer: CN=team149-net
        Validity
            Not Before: Nov  3 20:41:54 2023 GMT
            Not After : Oct 18 20:41:54 2026 GMT
        Subject: CN=team149-client
        Subject Public Key Info:
            Public Key Algorithm: rsaEncryption
                Public-Key: (2048 bit)
                Modulus:
                    00:b9:c9:d9:8d:60:39:d0:3a:44:be:e4:8f:9f:24:
                    d0:d0:2a:af:79:67:80:66:d1:36:9c:4e:7e:ef:05:
                    ba:c8:06:08:44:80:1f:d6:5c:dc:bd:94:d2:77:91:
                    f7:aa:44:8d:59:57:5c:cf:f4:01:c2:c2:b5:8b:cc:
                    07:87:11:a0:5a:ef:4b:d8:c8:22:7b:23:f1:22:2d:
                    23:90:09:24:3b:bf:39:1e:b7:14:46:5a:97:2c:1a:
                    af:15:eb:d2:8f:30:ab:93:96:54:ed:14:82:c7:e0:
                    88:74:a3:f6:44:02:61:60:d6:24:d1:8f:47:de:b5:
                    27:d9:03:92:b3:34:c8:f3:1e:d5:24:5e:16:8d:82:
                    fa:07:ba:e8:e1:6e:23:a6:ea:e2:18:c9:16:fa:ac:
                    10:ff:28:63:09:ef:a9:46:4e:21:8f:12:90:26:78:
                    27:a6:f4:5d:5c:d9:82:1b:02:8a:18:46:90:95:a9:
                    dc:28:ea:fe:53:86:ce:59:53:ca:5e:b7:62:98:2f:
                    49:58:20:61:d3:40:cf:4f:d1:be:d3:b9:f9:4d:f3:
                    e7:89:cd:1c:63:db:fd:29:69:8a:1b:3f:04:86:25:
                    0e:36:d1:95:01:78:d5:3c:75:5e:db:c8:b2:b1:a0:
                    c0:2f:2e:c7:35:7f:9f:9b:57:56:c3:a2:04:e0:98:
                    49:d7
                Exponent: 65537 (0x10001)
        X509v3 extensions:
            X509v3 Basic Constraints: 
                CA:FALSE
            X509v3 Subject Key Identifier: 
                92:ED:F3:34:AA:72:FC:27:3A:2D:72:71:F4:40:DA:7A:33:37:C5:D1
            X509v3 Authority Key Identifier: 
                keyid:3E:8A:66:35:E9:69:82:27:2F:3B:DD:F9:C8:2D:15:EE:00:EB:C5:77
                DirName:/CN=team149-net
                serial:6D:D8:54:12:21:6F:AD:63:84:EA:59:AB:25:DB:AF:41:13:F3:5D:56
            X509v3 Extended Key Usage: 
                TLS Web Client Authentication
            X509v3 Key Usage: 
                Digital Signature
    Signature Algorithm: sha256WithRSAEncryption
    Signature Value:
        78:8c:e0:58:ce:67:64:fa:42:d5:d1:6c:c0:84:fd:3e:a6:1b:
        17:26:b5:27:3b:bb:47:9a:de:fb:b3:c8:7b:db:39:88:19:fd:
        9a:f0:4c:8b:98:38:9e:b2:10:e8:1d:fb:f5:47:16:e6:a9:fb:
        c0:3d:34:32:90:aa:a9:db:22:60:ae:ed:a4:4d:a0:10:f9:63:
        f7:60:a4:29:3d:65:c9:6a:20:31:68:27:b3:af:aa:52:6a:17:
        f6:a1:67:1d:47:b3:10:e8:7f:b3:45:90:72:1f:57:a8:76:dc:
        0a:a4:4c:31:45:cb:1d:d2:7c:97:40:5e:ed:ee:fc:dd:cf:6e:
        30:b4:1d:46:ce:e9:0d:76:b8:23:7a:af:b4:8e:54:7a:6e:7a:
        c5:22:3e:c4:cc:07:60:dd:63:10:95:02:b5:78:03:8d:f0:20:
        92:54:cc:3c:83:9f:50:e9:0c:47:fd:70:19:0b:88:95:02:30:
        a5:67:3c:d7:0a:bf:ab:ac:ae:24:be:00:d6:1b:93:55:43:e9:
        c3:07:c0:e6:7f:5c:07:a7:ec:de:bc:6a:a3:c3:f2:ff:11:56:
        29:f1:ee:a3:7f:5a:86:54:f0:79:8a:07:40:fd:c1:25:d7:ac:
        1d:87:c5:0e:00:e0:b9:94:b8:b0:68:3c:11:2d:6f:00:aa:36:
        6c:7e:8d:f0
-----BEGIN CERTIFICATE-----
MIIDXTCCAkWgAwIBAgIRAOVFyTqPZX/dawr+KHPaC8MwDQYJKoZIhvcNAQELBQAw
FjEUMBIGA1UEAwwLdGVhbTE0OS1uZXQwHhcNMjMxMTAzMjA0MTU0WhcNMjYxMDE4
MjA0MTU0WjAZMRcwFQYDVQQDDA50ZWFtMTQ5LWNsaWVudDCCASIwDQYJKoZIhvcN
AQEBBQADggEPADCCAQoCggEBALnJ2Y1gOdA6RL7kj58k0NAqr3lngGbRNpxOfu8F
usgGCESAH9Zc3L2U0neR96pEjVlXXM/0AcLCtYvMB4cRoFrvS9jIInsj8SItI5AJ
JDu/OR63FEZalywarxXr0o8wq5OWVO0UgsfgiHSj9kQCYWDWJNGPR961J9kDkrM0
yPMe1SReFo2C+ge66OFuI6bq4hjJFvqsEP8oYwnvqUZOIY8SkCZ4J6b0XVzZghsC
ihhGkJWp3Cjq/lOGzllTyl63YpgvSVggYdNAz0/RvtO5+U3z54nNHGPb/Slpihs/
BIYlDjbRlQF41Tx1XtvIsrGgwC8uxzV/n5tXVsOiBOCYSdcCAwEAAaOBojCBnzAJ
BgNVHRMEAjAAMB0GA1UdDgQWBBSS7fM0qnL8JzotcnH0QNp6MzfF0TBRBgNVHSME
SjBIgBQ+imY16WmCJy873fnILRXuAOvFd6EapBgwFjEUMBIGA1UEAwwLdGVhbTE0
OS1uZXSCFG3YVBIhb61jhOpZqyXbr0ET811WMBMGA1UdJQQMMAoGCCsGAQUFBwMC
MAsGA1UdDwQEAwIHgDANBgkqhkiG9w0BAQsFAAOCAQEAeIzgWM5nZPpC1dFswIT9
PqYbFya1Jzu7R5re+7PIe9s5iBn9mvBMi5g4nrIQ6B379UcW5qn7wD00MpCqqdsi
YK7tpE2gEPlj92CkKT1lyWogMWgns6+qUmoX9qFnHUezEOh/s0WQch9XqHbcCqRM
MUXLHdJ8l0Be7e783c9uMLQdRs7pDXa4I3qvtI5Uem56xSI+xMwHYN1jEJUCtXgD
jfAgklTMPIOfUOkMR/1wGQuIlQIwpWc81wq/q6yuJL4A1huTVUPpwwfA5n9cB6fs
3rxqo8Py/xFWKfHuo39ahlTweYoHQP3BJdesHYfFDgDguZS4sGg8ES1vAKo2bH6N
8A==
-----END CERTIFICATE-----
