Certificate:
    Data:
        Version: 3 (0x2)
        Serial Number:
            e7:22:31:7a:24:ff:38:c3:62:ae:65:35:ea:d8:f2:dd
        Signature Algorithm: sha256WithRSAEncryption
        Issuer: CN=team149-net
        Validity
            Not Before: Nov  4 10:43:18 2023 GMT
            Not After : Oct 19 10:43:18 2026 GMT
        Subject: CN=team149-client
        Subject Public Key Info:
            Public Key Algorithm: rsaEncryption
                Public-Key: (2048 bit)
                Modulus:
                    00:bc:8c:5d:a0:88:2d:ca:b2:d5:bb:61:b0:e3:1e:
                    17:b7:40:52:42:5a:f7:04:c9:46:ba:87:86:40:2f:
                    e8:99:7b:49:d9:1e:fb:02:b3:ed:30:e0:2c:68:e0:
                    db:34:d1:2a:93:07:13:10:c2:a9:cf:c9:83:80:7c:
                    79:31:ed:2b:b1:38:9f:ed:13:5a:69:fc:f0:51:1e:
                    b8:a1:d7:c3:18:d2:4f:cd:95:d4:c8:b7:a4:d9:57:
                    2f:85:6f:57:9a:87:f9:69:80:b4:9d:27:1b:68:73:
                    71:97:7a:75:38:43:38:75:37:5a:48:fd:5f:9f:63:
                    94:c8:59:c8:c7:99:12:81:e6:10:86:70:83:ca:70:
                    ac:db:cd:a6:e1:21:40:e5:8e:0d:78:62:8e:d0:ca:
                    81:d0:6f:43:5d:d8:59:be:12:95:d3:c0:c6:29:fb:
                    0b:83:aa:8f:84:ca:e1:b7:aa:d1:51:5d:17:8c:cb:
                    1c:69:bb:22:24:ea:7e:89:93:60:f6:32:1d:d2:86:
                    b0:4d:80:67:88:9c:d1:dd:62:ee:c9:09:58:96:7d:
                    50:0d:09:62:4a:fa:41:61:5c:20:6d:68:6f:32:e5:
                    ef:40:0d:75:8e:ac:d5:08:ed:3d:5a:74:f3:38:53:
                    36:5f:ea:93:68:e1:8b:9a:c1:a6:f6:fe:48:e9:82:
                    e8:8b
                Exponent: 65537 (0x10001)
        X509v3 extensions:
            X509v3 Basic Constraints: 
                CA:FALSE
            X509v3 Subject Key Identifier: 
                32:B6:66:9D:36:75:C4:9F:71:45:85:C5:BF:2D:D4:BE:B7:44:35:6E
            X509v3 Authority Key Identifier: 
                keyid:1D:EA:AB:8F:77:84:D6:FD:56:D7:19:18:22:E9:F9:A2:91:3F:99:03
                DirName:/CN=team149-net
                serial:51:29:6F:BB:96:56:85:ED:81:56:06:10:9B:FD:B8:0E:DA:EA:66:8F
            X509v3 Extended Key Usage: 
                TLS Web Client Authentication
            X509v3 Key Usage: 
                Digital Signature
    Signature Algorithm: sha256WithRSAEncryption
    Signature Value:
        09:8c:d4:2d:22:07:35:0e:d9:e0:ab:da:f4:dc:16:3f:c3:b5:
        f1:79:84:10:1e:95:da:b9:34:aa:28:67:30:f8:92:53:ba:c0:
        4a:be:18:d3:fb:cc:2b:e2:b6:83:b3:4b:e2:66:c0:74:63:47:
        59:19:3d:d9:5f:99:e8:42:21:62:2d:38:09:cd:03:5c:a1:ae:
        b1:88:45:cc:07:0a:5c:fd:24:32:bd:c7:2a:ef:56:ea:38:fe:
        08:15:5b:69:0c:d7:65:81:cb:55:8b:2b:08:66:5e:08:d1:44:
        17:07:f6:11:c5:aa:f5:db:84:af:dd:ce:97:d5:f0:a3:cb:f0:
        4a:10:32:11:60:1e:37:38:87:ed:13:53:d7:bf:51:b0:b7:75:
        a3:db:ab:37:f1:60:63:05:8d:1d:c3:54:25:39:53:51:55:34:
        3f:4b:12:80:8e:0f:8b:ae:b2:f4:90:a0:45:7e:b9:b3:b2:b3:
        e5:0c:cc:72:17:3c:5b:ba:2e:f5:4e:d5:1c:76:60:33:64:14:
        49:af:cc:d2:b9:df:51:eb:14:5d:0d:b2:ba:37:6a:81:80:54:
        d0:41:94:59:73:9a:67:9c:35:09:d8:f8:2e:79:53:be:be:3a:
        ab:55:db:f8:19:f2:26:1e:5e:f4:ec:a3:75:32:32:65:9f:33:
        cd:ca:e2:85
-----BEGIN CERTIFICATE-----
MIIDXTCCAkWgAwIBAgIRAOciMXok/zjDYq5lNerY8t0wDQYJKoZIhvcNAQELBQAw
FjEUMBIGA1UEAwwLdGVhbTE0OS1uZXQwHhcNMjMxMTA0MTA0MzE4WhcNMjYxMDE5
MTA0MzE4WjAZMRcwFQYDVQQDDA50ZWFtMTQ5LWNsaWVudDCCASIwDQYJKoZIhvcN
AQEBBQADggEPADCCAQoCggEBALyMXaCILcqy1bthsOMeF7dAUkJa9wTJRrqHhkAv
6Jl7Sdke+wKz7TDgLGjg2zTRKpMHExDCqc/Jg4B8eTHtK7E4n+0TWmn88FEeuKHX
wxjST82V1Mi3pNlXL4VvV5qH+WmAtJ0nG2hzcZd6dThDOHU3Wkj9X59jlMhZyMeZ
EoHmEIZwg8pwrNvNpuEhQOWODXhijtDKgdBvQ13YWb4SldPAxin7C4Oqj4TK4beq
0VFdF4zLHGm7IiTqfomTYPYyHdKGsE2AZ4ic0d1i7skJWJZ9UA0JYkr6QWFcIG1o
bzLl70ANdY6s1QjtPVp08zhTNl/qk2jhi5rBpvb+SOmC6IsCAwEAAaOBojCBnzAJ
BgNVHRMEAjAAMB0GA1UdDgQWBBQytmadNnXEn3FFhcW/LdS+t0Q1bjBRBgNVHSME
SjBIgBQd6quPd4TW/VbXGRgi6fmikT+ZA6EapBgwFjEUMBIGA1UEAwwLdGVhbTE0
OS1uZXSCFFEpb7uWVoXtgVYGEJv9uA7a6maPMBMGA1UdJQQMMAoGCCsGAQUFBwMC
MAsGA1UdDwQEAwIHgDANBgkqhkiG9w0BAQsFAAOCAQEACYzULSIHNQ7Z4Kva9NwW
P8O18XmEEB6V2rk0qihnMPiSU7rASr4Y0/vMK+K2g7NL4mbAdGNHWRk92V+Z6EIh
Yi04Cc0DXKGusYhFzAcKXP0kMr3HKu9W6jj+CBVbaQzXZYHLVYsrCGZeCNFEFwf2
EcWq9duEr93Ol9Xwo8vwShAyEWAeNziH7RNT179RsLd1o9urN/FgYwWNHcNUJTlT
UVU0P0sSgI4Pi66y9JCgRX65s7Kz5QzMchc8W7ou9U7VHHZgM2QUSa/M0rnfUesU
XQ2yujdqgYBU0EGUWXOaZ5w1Cdj4LnlTvr46q1Xb+BnyJh5e9OyjdTIyZZ8zzcri
hQ==
-----END CERTIFICATE-----
