Certificate:
    Data:
        Version: 3 (0x2)
        Serial Number:
            eb:8f:fd:39:d1:0d:45:a2:12:a1:4e:46:4e:39:de:53
        Signature Algorithm: sha256WithRSAEncryption
        Issuer: CN=team340-net
        Validity
            Not Before: Nov  3 20:45:30 2023 GMT
            Not After : Oct 18 20:45:30 2026 GMT
        Subject: CN=team340-client
        Subject Public Key Info:
            Public Key Algorithm: rsaEncryption
                Public-Key: (2048 bit)
                Modulus:
                    00:a4:ab:9e:17:93:86:73:97:9d:ee:98:03:7d:79:
                    e0:c3:e1:f4:a5:d1:95:a6:34:5a:ad:42:32:c0:03:
                    e4:6b:8d:f0:32:51:f5:4f:74:a0:18:c4:1d:4a:37:
                    0c:93:d5:9e:20:83:94:37:a1:d7:11:b8:a5:ff:ba:
                    0b:7a:20:c2:2e:33:7e:68:fc:55:22:d8:6c:e9:7b:
                    fe:55:90:a2:5d:dc:df:48:3f:c7:eb:25:19:91:f3:
                    c7:38:d7:a0:2f:2c:5d:7d:67:69:77:43:b5:37:46:
                    e6:07:cc:ea:27:75:51:5e:01:9c:a4:90:88:ce:8e:
                    e1:38:bb:c7:e6:01:c8:ff:bf:13:13:06:2e:15:08:
                    34:3d:be:37:1b:3c:b3:d6:f8:c0:59:36:0a:6d:9f:
                    f8:1a:95:97:43:72:85:ef:cc:0e:c9:61:ca:44:10:
                    e4:30:53:ba:8d:ac:c0:19:2c:15:83:69:25:46:eb:
                    d8:b2:68:a3:91:53:1a:0b:f1:24:2a:c1:97:b1:00:
                    02:c6:0e:b6:d9:43:82:f9:20:c6:6d:f2:b3:27:84:
                    01:2c:c4:95:0c:c3:52:7c:ca:fe:b4:c4:79:4d:30:
                    44:5a:d9:5d:5b:20:73:6f:1e:58:9f:e4:1d:e1:16:
                    dc:30:90:0d:41:7f:bf:ac:52:d7:88:e2:d2:4c:07:
                    ad:99
                Exponent: 65537 (0x10001)
        X509v3 extensions:
            X509v3 Basic Constraints: 
                CA:FALSE
            X509v3 Subject Key Identifier: 
                89:23:F9:CA:DC:A7:0C:23:43:2D:CC:19:C3:76:D7:79:9D:F3:C9:B5
            X509v3 Authority Key Identifier: 
                keyid:7D:42:F5:49:B0:69:2A:87:DC:79:31:2D:13:19:5D:93:8F:40:E5:10
                DirName:/CN=team340-net
                serial:53:B2:54:5F:87:F3:E7:2C:6A:9C:4D:43:60:7B:B8:6A:E0:14:CB:4E
            X509v3 Extended Key Usage: 
                TLS Web Client Authentication
            X509v3 Key Usage: 
                Digital Signature
    Signature Algorithm: sha256WithRSAEncryption
    Signature Value:
        94:2d:03:96:e3:5f:a9:d0:13:c5:e8:75:14:6e:4e:85:cb:72:
        be:d5:6b:fa:2b:f2:fb:7c:ec:be:c7:ad:8b:96:fa:4a:d0:46:
        86:a2:8d:ce:c2:36:4c:c0:8b:5d:18:92:e2:aa:02:06:a0:2c:
        77:d5:ee:d4:9d:e0:e3:3a:99:23:60:f5:3a:e8:9d:bc:22:8a:
        ec:6f:28:60:dd:30:82:43:67:e2:6d:46:38:39:0f:5d:82:02:
        76:92:68:67:17:9f:b1:bd:6e:2f:7f:8a:00:ae:75:4c:8c:db:
        6c:12:d3:95:58:b6:f4:8b:c4:e4:21:ce:91:d6:38:14:10:4a:
        d7:03:75:af:ce:ff:dc:2a:60:b0:d2:89:23:f7:9c:cf:e4:04:
        f1:e3:f7:75:e0:19:15:72:b4:f2:de:24:fc:4d:ca:3a:ed:a8:
        ba:14:82:24:97:70:ac:17:bf:c0:03:bd:5c:fe:7e:db:51:fb:
        e5:6a:96:dc:9a:28:a5:8f:d4:30:85:bf:78:78:bd:58:56:de:
        7b:99:4d:48:6f:9a:44:ce:1a:75:28:22:10:9e:d0:5d:8f:12:
        51:05:b3:e6:a2:d2:f4:3f:99:61:82:96:94:b6:85:4f:a4:96:
        b4:ee:56:8c:4b:0f:a8:2c:9d:a6:03:20:c7:a1:1f:b0:0e:b1:
        42:fa:3a:1f
-----BEGIN CERTIFICATE-----
MIIDXTCCAkWgAwIBAgIRAOuP/TnRDUWiEqFORk453lMwDQYJKoZIhvcNAQELBQAw
FjEUMBIGA1UEAwwLdGVhbTM0MC1uZXQwHhcNMjMxMTAzMjA0NTMwWhcNMjYxMDE4
MjA0NTMwWjAZMRcwFQYDVQQDDA50ZWFtMzQwLWNsaWVudDCCASIwDQYJKoZIhvcN
AQEBBQADggEPADCCAQoCggEBAKSrnheThnOXne6YA3154MPh9KXRlaY0Wq1CMsAD
5GuN8DJR9U90oBjEHUo3DJPVniCDlDeh1xG4pf+6C3ogwi4zfmj8VSLYbOl7/lWQ
ol3c30g/x+slGZHzxzjXoC8sXX1naXdDtTdG5gfM6id1UV4BnKSQiM6O4Ti7x+YB
yP+/ExMGLhUIND2+Nxs8s9b4wFk2Cm2f+BqVl0Nyhe/MDslhykQQ5DBTuo2swBks
FYNpJUbr2LJoo5FTGgvxJCrBl7EAAsYOttlDgvkgxm3ysyeEASzElQzDUnzK/rTE
eU0wRFrZXVsgc28eWJ/kHeEW3DCQDUF/v6xS14ji0kwHrZkCAwEAAaOBojCBnzAJ
BgNVHRMEAjAAMB0GA1UdDgQWBBSJI/nK3KcMI0MtzBnDdtd5nfPJtTBRBgNVHSME
SjBIgBR9QvVJsGkqh9x5MS0TGV2Tj0DlEKEapBgwFjEUMBIGA1UEAwwLdGVhbTM0
MC1uZXSCFFOyVF+H8+csapxNQ2B7uGrgFMtOMBMGA1UdJQQMMAoGCCsGAQUFBwMC
MAsGA1UdDwQEAwIHgDANBgkqhkiG9w0BAQsFAAOCAQEAlC0DluNfqdATxeh1FG5O
hctyvtVr+ivy+3zsvseti5b6StBGhqKNzsI2TMCLXRiS4qoCBqAsd9Xu1J3g4zqZ
I2D1OuidvCKK7G8oYN0wgkNn4m1GODkPXYICdpJoZxefsb1uL3+KAK51TIzbbBLT
lVi29IvE5CHOkdY4FBBK1wN1r87/3CpgsNKJI/ecz+QE8eP3deAZFXK08t4k/E3K
Ou2ouhSCJJdwrBe/wAO9XP5+21H75WqW3JoopY/UMIW/eHi9WFbee5lNSG+aRM4a
dSgiEJ7QXY8SUQWz5qLS9D+ZYYKWlLaFT6SWtO5WjEsPqCydpgMgx6EfsA6xQvo6
Hw==
-----END CERTIFICATE-----
