Certificate:
    Data:
        Version: 3 (0x2)
        Serial Number:
            0a:0d:2f:ef:b8:3d:5e:0c:0c:6c:7d:c9:c2:20:cb:99
        Signature Algorithm: sha256WithRSAEncryption
        Issuer: CN=team485-net
        Validity
            Not Before: Nov  4 10:49:10 2023 GMT
            Not After : Oct 19 10:49:10 2026 GMT
        Subject: CN=team485-server
        Subject Public Key Info:
            Public Key Algorithm: rsaEncryption
                Public-Key: (2048 bit)
                Modulus:
                    00:cc:55:8d:b0:f7:24:a6:74:ea:95:d5:fe:4b:68:
                    97:ad:eb:a4:7e:b8:f3:71:a2:42:47:2e:ca:e4:94:
                    56:46:e8:2f:f1:89:f1:54:53:7c:90:53:28:ce:ec:
                    dd:56:82:89:7e:da:e7:1d:e8:c7:70:89:d4:3c:88:
                    a5:8f:59:17:71:a6:fe:ef:d7:92:30:ab:34:25:1e:
                    ef:1e:9f:ac:c7:77:bc:91:e5:7d:71:cf:a4:3b:c3:
                    5c:10:0c:52:4a:94:b0:9e:5f:6d:82:cb:6c:f3:0e:
                    29:43:ab:66:bc:aa:ee:3c:88:4a:5f:0d:75:ba:89:
                    33:1d:61:fd:b1:78:2c:69:d9:6b:c2:df:2f:23:be:
                    b6:15:9c:74:83:43:67:6f:64:94:7f:a2:a4:b7:87:
                    d9:8b:76:af:cc:6a:69:82:77:13:33:0d:47:8e:df:
                    eb:da:24:c7:d9:a1:0c:30:4b:1d:70:ba:57:13:01:
                    93:d2:e8:0a:13:0e:c5:93:7a:07:b4:f4:89:65:21:
                    06:7d:ea:84:92:a9:4b:c5:f7:78:78:6d:a1:b0:fd:
                    a6:35:98:ea:4a:22:e1:10:72:09:1e:83:24:83:af:
                    16:56:5d:f2:5a:bf:c2:38:10:e0:70:25:af:f1:e8:
                    08:08:4f:25:95:2f:a3:78:39:32:b3:9e:29:28:1b:
                    9e:03
                Exponent: 65537 (0x10001)
        X509v3 extensions:
            X509v3 Basic Constraints: 
                CA:FALSE
            X509v3 Subject Key Identifier: 
                E2:F1:14:06:67:2E:5B:E9:3D:EA:7B:FA:FE:6D:C0:0D:E7:DE:E6:56
            X509v3 Authority Key Identifier: 
                keyid:8C:03:2C:82:1D:49:84:66:E2:2E:B3:E1:C8:A3:33:78:CA:6A:3B:C3
                DirName:/CN=team485-net
                serial:25:DB:28:A3:A5:27:B1:3D:AD:C7:A8:B5:9E:7F:2A:2A:11:CD:01:48
            X509v3 Extended Key Usage: 
                TLS Web Server Authentication
            X509v3 Key Usage: 
                Digital Signature, Key Encipherment
            X509v3 Subject Alternative Name: 
                DNS:team485-server
    Signature Algorithm: sha256WithRSAEncryption
    Signature Value:
        cb:87:3a:ad:a3:38:29:4f:89:ad:8b:63:7f:e0:e8:81:72:f4:
        33:62:5e:91:d9:50:ea:86:c0:02:6c:11:cc:61:f0:c9:26:50:
        d5:06:ce:fc:64:d3:c7:3d:c3:98:ea:f7:9a:83:b0:d9:02:6c:
        52:11:ab:8d:63:fc:b2:1e:be:0a:54:cf:cc:49:3a:f9:35:70:
        20:dd:5d:45:81:e2:bb:3c:74:0f:11:05:d9:49:1b:4f:b0:0f:
        81:05:8b:40:47:ef:a0:45:c8:86:09:6c:3e:9b:7e:65:2b:2d:
        19:ef:9e:9b:69:7c:5c:56:7a:b7:48:6c:46:a7:2c:62:1a:66:
        cd:18:c2:10:65:ea:7f:6b:7a:a7:65:4e:7a:4f:1a:d9:09:ec:
        f4:90:f3:cb:03:15:83:68:05:fc:8b:81:73:82:6c:5a:c3:7a:
        41:51:00:8d:52:d7:e0:32:1c:9e:e2:a9:08:60:46:d5:7c:78:
        a0:50:02:b8:01:63:78:b8:47:41:99:3c:dc:3b:ee:e1:4a:2f:
        4e:ce:5e:de:84:77:3d:9e:fc:86:1d:c8:39:86:3a:89:e6:3e:
        2c:94:02:61:18:8e:43:30:5a:e0:52:11:ac:5d:55:42:55:17:
        3e:78:fb:2a:d6:94:81:30:21:de:5f:9b:e3:60:70:da:bd:63:
        89:28:80:90
-----BEGIN CERTIFICATE-----
MIIDdzCCAl+gAwIBAgIQCg0v77g9XgwMbH3JwiDLmTANBgkqhkiG9w0BAQsFADAW
MRQwEgYDVQQDDAt0ZWFtNDg1LW5ldDAeFw0yMzExMDQxMDQ5MTBaFw0yNjEwMTkx
MDQ5MTBaMBkxFzAVBgNVBAMMDnRlYW00ODUtc2VydmVyMIIBIjANBgkqhkiG9w0B
AQEFAAOCAQ8AMIIBCgKCAQEAzFWNsPckpnTqldX+S2iXreukfrjzcaJCRy7K5JRW
Rugv8YnxVFN8kFMozuzdVoKJftrnHejHcInUPIilj1kXcab+79eSMKs0JR7vHp+s
x3e8keV9cc+kO8NcEAxSSpSwnl9tgsts8w4pQ6tmvKruPIhKXw11uokzHWH9sXgs
adlrwt8vI762FZx0g0Nnb2SUf6Kkt4fZi3avzGppgncTMw1Hjt/r2iTH2aEMMEsd
cLpXEwGT0ugKEw7Fk3oHtPSJZSEGfeqEkqlLxfd4eG2hsP2mNZjqSiLhEHIJHoMk
g68WVl3yWr/COBDgcCWv8egICE8llS+jeDkys54pKBueAwIDAQABo4G9MIG6MAkG
A1UdEwQCMAAwHQYDVR0OBBYEFOLxFAZnLlvpPep7+v5twA3n3uZWMFEGA1UdIwRK
MEiAFIwDLIIdSYRm4i6z4cijM3jKajvDoRqkGDAWMRQwEgYDVQQDDAt0ZWFtNDg1
LW5ldIIUJdsoo6UnsT2tx6i1nn8qKhHNAUgwEwYDVR0lBAwwCgYIKwYBBQUHAwEw
CwYDVR0PBAQDAgWgMBkGA1UdEQQSMBCCDnRlYW00ODUtc2VydmVyMA0GCSqGSIb3
DQEBCwUAA4IBAQDLhzqtozgpT4mti2N/4OiBcvQzYl6R2VDqhsACbBHMYfDJJlDV
Bs78ZNPHPcOY6veag7DZAmxSEauNY/yyHr4KVM/MSTr5NXAg3V1FgeK7PHQPEQXZ
SRtPsA+BBYtAR++gRciGCWw+m35lKy0Z756baXxcVnq3SGxGpyxiGmbNGMIQZep/
a3qnZU56TxrZCez0kPPLAxWDaAX8i4Fzgmxaw3pBUQCNUtfgMhye4qkIYEbVfHig
UAK4AWN4uEdBmTzcO+7hSi9Ozl7ehHc9nvyGHcg5hjqJ5j4slAJhGI5DMFrgUhGs
XVVCVRc+ePsq1pSBMCHeX5vjYHDavWOJKICQ
-----END CERTIFICATE-----
