Certificate:
    Data:
        Version: 3 (0x2)
        Serial Number:
            52:9e:46:f7:21:1f:57:7b:56:08:c7:36:b3:df:8d:f9
        Signature Algorithm: sha256WithRSAEncryption
        Issuer: CN=team485-net
        Validity
            Not Before: Nov  4 11:38:34 2023 GMT
            Not After : Oct 19 11:38:34 2026 GMT
        Subject: CN=team485-client
        Subject Public Key Info:
            Public Key Algorithm: rsaEncryption
                Public-Key: (2048 bit)
                Modulus:
                    00:b7:0f:cb:6e:17:2a:d8:44:06:ae:ce:55:68:20:
                    02:a4:9c:15:3b:42:45:db:3b:8d:31:d2:96:19:8c:
                    39:02:0c:19:7a:7a:b1:14:bd:0e:fc:ee:81:91:8c:
                    de:7f:30:e6:08:98:24:73:7b:11:c4:f9:53:61:a4:
                    9e:1c:b4:1b:a3:c8:4a:ab:43:b6:76:17:58:6e:d1:
                    06:92:11:97:90:9e:c2:ad:ad:5b:de:8c:eb:36:35:
                    0c:b3:fb:7b:69:6b:9f:e7:10:5a:1b:64:89:82:71:
                    79:e6:67:20:24:62:93:a9:24:fa:2e:9d:19:51:fe:
                    98:59:11:23:7a:58:68:26:a0:92:72:fe:e0:8c:9e:
                    ce:be:cd:c2:b3:97:dc:4c:12:8c:42:88:28:71:22:
                    6b:3b:bb:ec:7c:a7:8a:cc:8f:6b:62:6b:89:4a:96:
                    a3:b7:1d:bf:a4:a3:87:eb:d8:4b:cc:cf:bb:f3:59:
                    12:32:e1:32:b3:57:42:6f:20:26:83:c9:60:57:02:
                    32:14:59:4c:52:76:3e:f0:46:7a:35:66:f9:84:2a:
                    88:9c:a2:3d:69:83:62:84:2e:0b:22:ba:9c:54:5d:
                    b1:06:9c:08:c4:35:ed:d4:24:b2:5b:f3:53:82:35:
                    fc:d7:cd:06:94:3d:c7:30:07:38:45:05:73:71:2b:
                    d4:f1
                Exponent: 65537 (0x10001)
        X509v3 extensions:
            X509v3 Basic Constraints: 
                CA:FALSE
            X509v3 Subject Key Identifier: 
                4B:3C:21:91:9F:B5:E9:EA:A8:F5:54:05:7B:2A:D5:D6:1A:CE:AB:C9
            X509v3 Authority Key Identifier: 
                keyid:95:36:14:6B:97:91:82:F2:E1:6A:E5:A4:91:13:2A:BE:6C:3C:63:21
                DirName:/CN=team485-net
                serial:1A:DC:AB:93:BA:CE:2A:F0:8E:43:A7:66:26:47:AB:41:7C:20:DD:67
            X509v3 Extended Key Usage: 
                TLS Web Client Authentication
            X509v3 Key Usage: 
                Digital Signature
    Signature Algorithm: sha256WithRSAEncryption
    Signature Value:
        36:be:b8:a1:61:dc:4b:7c:58:ce:ba:75:76:26:09:46:86:c3:
        1b:3b:e5:49:19:8c:ba:e2:6c:b7:74:f2:eb:16:2c:c0:bf:e4:
        5e:5e:44:01:ae:59:eb:47:2d:13:07:da:e2:c3:d3:a3:c9:1a:
        72:77:ed:77:ba:14:38:bd:c3:fb:ce:c4:62:c8:78:e7:e3:47:
        01:a5:80:81:92:4b:bc:e8:5f:3d:82:92:d2:0e:96:3b:91:19:
        12:33:41:8a:dc:8f:32:8b:93:f7:3e:86:a0:f8:65:af:a9:de:
        59:8b:ab:5e:6a:57:7c:0b:ae:19:90:ba:10:77:e8:5c:07:d1:
        2e:da:1d:a9:ed:4d:75:99:0d:f0:8a:ee:37:9a:92:8c:03:6f:
        ff:27:d1:f6:b0:3c:b1:61:af:64:ec:3d:40:cf:93:e4:28:12:
        53:90:1e:35:a6:13:dc:82:f5:2e:76:35:76:05:bd:5e:6c:64:
        ea:d8:40:fc:c5:0d:cf:9f:3f:a3:6c:de:9d:33:83:fb:64:8d:
        37:67:1d:5b:fb:86:ba:c8:74:cc:ae:17:75:2b:13:87:c3:5b:
        f4:c5:98:d7:5e:f3:6a:72:18:18:83:15:8c:76:7b:22:2a:9b:
        d2:43:bb:3d:b1:31:fb:21:04:0d:2f:dd:27:aa:da:05:6e:14:
        a4:6e:1c:ca
-----BEGIN CERTIFICATE-----
MIIDXDCCAkSgAwIBAgIQUp5G9yEfV3tWCMc2s9+N+TANBgkqhkiG9w0BAQsFADAW
MRQwEgYDVQQDDAt0ZWFtNDg1LW5ldDAeFw0yMzExMDQxMTM4MzRaFw0yNjEwMTkx
MTM4MzRaMBkxFzAVBgNVBAMMDnRlYW00ODUtY2xpZW50MIIBIjANBgkqhkiG9w0B
AQEFAAOCAQ8AMIIBCgKCAQEAtw/Lbhcq2EQGrs5VaCACpJwVO0JF2zuNMdKWGYw5
AgwZenqxFL0O/O6BkYzefzDmCJgkc3sRxPlTYaSeHLQbo8hKq0O2dhdYbtEGkhGX
kJ7Cra1b3ozrNjUMs/t7aWuf5xBaG2SJgnF55mcgJGKTqST6Lp0ZUf6YWREjelho
JqCScv7gjJ7Ovs3Cs5fcTBKMQogocSJrO7vsfKeKzI9rYmuJSpajtx2/pKOH69hL
zM+781kSMuEys1dCbyAmg8lgVwIyFFlMUnY+8EZ6NWb5hCqInKI9aYNihC4LIrqc
VF2xBpwIxDXt1CSyW/NTgjX8180GlD3HMAc4RQVzcSvU8QIDAQABo4GiMIGfMAkG
A1UdEwQCMAAwHQYDVR0OBBYEFEs8IZGftenqqPVUBXsq1dYazqvJMFEGA1UdIwRK
MEiAFJU2FGuXkYLy4WrlpJETKr5sPGMhoRqkGDAWMRQwEgYDVQQDDAt0ZWFtNDg1
LW5ldIIUGtyrk7rOKvCOQ6dmJkerQXwg3WcwEwYDVR0lBAwwCgYIKwYBBQUHAwIw
CwYDVR0PBAQDAgeAMA0GCSqGSIb3DQEBCwUAA4IBAQA2vrihYdxLfFjOunV2JglG
hsMbO+VJGYy64my3dPLrFizAv+ReXkQBrlnrRy0TB9riw9OjyRpyd+13uhQ4vcP7
zsRiyHjn40cBpYCBkku86F89gpLSDpY7kRkSM0GK3I8yi5P3Poag+GWvqd5Zi6te
ald8C64ZkLoQd+hcB9Eu2h2p7U11mQ3wiu43mpKMA2//J9H2sDyxYa9k7D1Az5Pk
KBJTkB41phPcgvUudjV2Bb1ebGTq2ED8xQ3Pnz+jbN6dM4P7ZI03Zx1b+4a6yHTM
rhd1KxOHw1v0xZjXXvNqchgYgxWMdnsiKpvSQ7s9sTH7IQQNL90nqtoFbhSkbhzK
-----END CERTIFICATE-----
