Certificate:
    Data:
        Version: 3 (0x2)
        Serial Number:
            59:32:0a:e7:77:b8:b3:02:ce:fb:4d:c9:9d:45:e0:cb
        Signature Algorithm: sha256WithRSAEncryption
        Issuer: CN=team485-net
        Validity
            Not Before: Nov  4 11:38:34 2023 GMT
            Not After : Oct 19 11:38:34 2026 GMT
        Subject: CN=team485-server
        Subject Public Key Info:
            Public Key Algorithm: rsaEncryption
                Public-Key: (2048 bit)
                Modulus:
                    00:e4:c6:97:62:5a:da:d4:60:97:3c:9a:d8:9f:7e:
                    20:af:1d:25:04:0a:8e:07:20:02:b2:74:38:0a:37:
                    41:ff:b7:92:e5:29:4b:d2:5c:08:3b:6e:5a:76:2a:
                    0e:63:55:51:af:93:a3:73:de:9f:17:c7:f0:b2:21:
                    7c:b2:7a:d6:26:45:20:cf:35:8f:85:2a:c7:f0:45:
                    4b:22:b3:32:3b:47:8c:ac:8f:48:23:b2:96:01:fb:
                    7e:91:36:5c:4b:b5:20:e9:e6:2d:48:69:3d:7b:96:
                    26:2e:cc:49:69:97:e2:4d:28:07:3d:1c:c5:72:ae:
                    87:79:a0:7d:43:ae:0c:c5:5f:03:07:cc:4d:68:24:
                    e3:a5:0e:e4:37:46:28:58:2d:ee:6b:20:52:7d:76:
                    ac:59:b4:4b:01:91:16:16:8a:2f:d2:4a:f4:f2:2d:
                    b0:69:a4:19:4b:30:a8:aa:35:ca:12:92:08:d8:e3:
                    fc:b8:16:d2:99:7d:f2:d3:a7:98:a4:61:eb:c2:ac:
                    53:c7:ac:f0:62:ac:d5:36:db:9a:45:9a:1e:dc:d0:
                    45:9e:f2:2b:2e:77:c9:99:29:9e:b5:fb:0e:75:2f:
                    75:40:0e:c2:c4:1c:5f:e2:d9:b5:7b:bd:7d:66:61:
                    09:f1:2b:dc:e2:31:2a:1e:e6:14:3a:eb:03:79:8c:
                    ed:6b
                Exponent: 65537 (0x10001)
        X509v3 extensions:
            X509v3 Basic Constraints: 
                CA:FALSE
            X509v3 Subject Key Identifier: 
                4E:91:1D:2A:0F:88:7F:FD:7A:91:B4:3A:CC:C5:F5:B1:AB:4C:D6:FF
            X509v3 Authority Key Identifier: 
                keyid:95:36:14:6B:97:91:82:F2:E1:6A:E5:A4:91:13:2A:BE:6C:3C:63:21
                DirName:/CN=team485-net
                serial:1A:DC:AB:93:BA:CE:2A:F0:8E:43:A7:66:26:47:AB:41:7C:20:DD:67
            X509v3 Extended Key Usage: 
                TLS Web Server Authentication
            X509v3 Key Usage: 
                Digital Signature, Key Encipherment
            X509v3 Subject Alternative Name: 
                DNS:team485-server
    Signature Algorithm: sha256WithRSAEncryption
    Signature Value:
        17:31:b9:f0:71:fa:52:cd:27:ae:c8:0e:70:ce:e5:c9:8c:67:
        25:87:5b:7d:03:10:ef:99:67:cf:41:1d:c6:c2:cc:62:f8:64:
        18:ea:aa:9d:27:13:23:71:35:a2:42:5a:4b:76:94:a2:03:7c:
        66:1b:3f:76:c3:3d:d8:70:ca:e8:0b:4a:b8:75:96:64:af:4c:
        ae:13:50:3b:8b:b2:79:61:47:ce:c0:85:ca:8b:8a:a2:33:31:
        95:ef:23:5a:d5:fb:47:eb:73:7a:3e:09:44:67:8e:8c:63:b4:
        30:8b:33:09:4d:0c:18:05:29:67:87:77:65:6d:ec:58:fa:1b:
        2a:26:b2:91:98:88:db:4e:4a:2b:dd:37:d1:e7:fd:d6:3b:c6:
        d9:d5:54:c3:6c:79:04:73:cd:31:00:f5:0e:04:4f:f5:b6:cc:
        1f:a7:11:7d:f9:1f:04:4f:b0:26:ab:11:05:28:5a:99:d8:b8:
        98:39:f5:04:8d:0d:33:39:13:e8:8a:2d:cd:ed:3a:a2:28:ce:
        6b:49:e7:c3:48:a6:f7:9b:18:03:fb:fe:c4:cd:1f:4c:12:18:
        4d:7f:49:61:ba:86:7b:97:db:a8:54:56:3e:ad:43:65:93:1c:
        96:14:73:42:cc:e0:64:77:99:70:e2:ea:eb:e5:a2:97:f6:dd:
        7a:34:26:b0
-----BEGIN CERTIFICATE-----
MIIDdzCCAl+gAwIBAgIQWTIK53e4swLO+03JnUXgyzANBgkqhkiG9w0BAQsFADAW
MRQwEgYDVQQDDAt0ZWFtNDg1LW5ldDAeFw0yMzExMDQxMTM4MzRaFw0yNjEwMTkx
MTM4MzRaMBkxFzAVBgNVBAMMDnRlYW00ODUtc2VydmVyMIIBIjANBgkqhkiG9w0B
AQEFAAOCAQ8AMIIBCgKCAQEA5MaXYlra1GCXPJrYn34grx0lBAqOByACsnQ4CjdB
/7eS5SlL0lwIO25adioOY1VRr5Ojc96fF8fwsiF8snrWJkUgzzWPhSrH8EVLIrMy
O0eMrI9II7KWAft+kTZcS7Ug6eYtSGk9e5YmLsxJaZfiTSgHPRzFcq6HeaB9Q64M
xV8DB8xNaCTjpQ7kN0YoWC3uayBSfXasWbRLAZEWFoov0kr08i2waaQZSzCoqjXK
EpII2OP8uBbSmX3y06eYpGHrwqxTx6zwYqzVNtuaRZoe3NBFnvIrLnfJmSmetfsO
dS91QA7CxBxf4tm1e719ZmEJ8Svc4jEqHuYUOusDeYztawIDAQABo4G9MIG6MAkG
A1UdEwQCMAAwHQYDVR0OBBYEFE6RHSoPiH/9epG0OszF9bGrTNb/MFEGA1UdIwRK
MEiAFJU2FGuXkYLy4WrlpJETKr5sPGMhoRqkGDAWMRQwEgYDVQQDDAt0ZWFtNDg1
LW5ldIIUGtyrk7rOKvCOQ6dmJkerQXwg3WcwEwYDVR0lBAwwCgYIKwYBBQUHAwEw
CwYDVR0PBAQDAgWgMBkGA1UdEQQSMBCCDnRlYW00ODUtc2VydmVyMA0GCSqGSIb3
DQEBCwUAA4IBAQAXMbnwcfpSzSeuyA5wzuXJjGclh1t9AxDvmWfPQR3Gwsxi+GQY
6qqdJxMjcTWiQlpLdpSiA3xmGz92wz3YcMroC0q4dZZkr0yuE1A7i7J5YUfOwIXK
i4qiMzGV7yNa1ftH63N6PglEZ46MY7QwizMJTQwYBSlnh3dlbexY+hsqJrKRmIjb
Tkor3TfR5/3WO8bZ1VTDbHkEc80xAPUOBE/1tswfpxF9+R8ET7AmqxEFKFqZ2LiY
OfUEjQ0zORPoii3N7TqiKM5rSefDSKb3mxgD+/7EzR9MEhhNf0lhuoZ7l9uoVFY+
rUNlkxyWFHNCzOBkd5lw4urr5aKX9t16NCaw
-----END CERTIFICATE-----
