Certificate:
    Data:
        Version: 3 (0x2)
        Serial Number:
            86:a6:c7:30:34:8d:55:f5:97:f3:6a:4b:6a:b7:3c:0a
        Signature Algorithm: sha256WithRSAEncryption
        Issuer: CN=team485-net
        Validity
            Not Before: Nov  3 20:48:07 2023 GMT
            Not After : Oct 18 20:48:07 2026 GMT
        Subject: CN=team485-server
        Subject Public Key Info:
            Public Key Algorithm: rsaEncryption
                Public-Key: (2048 bit)
                Modulus:
                    00:a0:31:6e:7e:e2:e8:40:7d:f8:ce:05:6d:9e:88:
                    fa:f8:08:14:dd:21:97:aa:0f:bb:44:6b:3e:38:b0:
                    96:bb:dc:52:c5:3e:90:fb:fb:84:55:6a:f4:dc:ff:
                    07:4b:0f:07:35:ff:fa:c5:f7:bc:7a:2d:9e:15:7f:
                    7c:5f:9c:26:ec:a8:a1:dc:9a:a4:df:4d:de:f5:42:
                    28:b6:1f:6f:8c:cb:94:a3:e8:6d:e1:98:71:19:2c:
                    45:a0:16:ca:94:e9:91:e6:1a:22:09:3a:c5:c2:d1:
                    cb:a6:7b:5b:4b:18:ee:36:89:d2:15:c1:33:63:ed:
                    ff:69:a7:56:6c:b1:f8:ec:5c:c5:6e:0a:38:8e:e7:
                    90:b4:fb:fc:08:b6:87:13:4a:6f:5d:4d:47:27:ce:
                    5b:96:be:03:b6:35:b1:b6:c5:21:1a:09:9f:fa:3d:
                    0a:ee:dd:4a:73:da:63:48:5e:34:29:03:d2:50:ac:
                    56:bf:74:03:75:ad:b8:87:28:0a:e0:aa:2c:4b:f6:
                    e2:9d:55:4b:9f:e3:59:96:68:f0:2a:f4:d7:22:d7:
                    81:97:42:c3:ef:8f:4a:da:5e:47:9a:51:15:9a:b5:
                    dc:c2:d6:20:36:21:a4:5a:b1:ff:16:4b:eb:ad:47:
                    79:b8:29:c6:4d:50:e0:42:d3:2d:ac:52:50:5a:b5:
                    b1:37
                Exponent: 65537 (0x10001)
        X509v3 extensions:
            X509v3 Basic Constraints: 
                CA:FALSE
            X509v3 Subject Key Identifier: 
                E8:82:A5:1F:B8:6E:CD:4D:8F:E0:2A:B9:16:B6:D5:18:25:DA:85:2D
            X509v3 Authority Key Identifier: 
                keyid:8E:42:AB:D6:D8:D0:8E:79:BB:E2:7E:6D:90:E3:6A:C9:03:70:5F:1F
                DirName:/CN=team485-net
                serial:2D:94:D0:95:52:E0:44:52:C7:CA:C0:77:2D:87:73:0E:1A:63:7E:8A
            X509v3 Extended Key Usage: 
                TLS Web Server Authentication
            X509v3 Key Usage: 
                Digital Signature, Key Encipherment
            X509v3 Subject Alternative Name: 
                DNS:team485-server
    Signature Algorithm: sha256WithRSAEncryption
    Signature Value:
        89:72:b5:c0:86:08:fe:80:cc:85:00:eb:a0:c9:10:f3:0a:41:
        32:9f:da:69:24:bb:59:2f:49:40:b7:6a:e5:3e:fb:64:d5:11:
        f1:52:a6:01:ab:1a:1f:10:53:cb:94:de:cf:3a:8d:fb:60:e6:
        78:83:05:41:14:cb:f0:2c:47:ab:03:fd:5b:2f:71:ce:2a:38:
        38:38:52:bc:f2:07:e6:49:1e:6c:40:17:51:b9:bc:92:65:b3:
        ed:02:9e:e5:2e:fe:49:68:a2:47:0c:36:ef:60:c3:29:80:01:
        5e:87:54:27:8e:f2:72:04:c3:3b:a9:3f:f1:c1:98:70:df:2b:
        76:92:ab:b3:08:61:03:83:8b:94:25:34:95:26:82:2b:21:aa:
        83:ee:41:7c:f0:88:ce:3f:b4:8c:f6:ea:45:d7:ef:31:cc:74:
        e9:72:60:32:cf:7a:4c:c7:89:d5:a4:d5:48:03:27:6c:2a:93:
        e0:7f:4d:57:ba:55:de:bf:63:5b:d4:5d:cd:5a:33:28:20:d8:
        13:75:44:41:a1:c4:f6:e4:22:41:d7:1e:8f:f2:4a:bf:e9:9e:
        0b:d6:ad:26:0c:b2:27:39:f5:3c:4d:de:17:66:cf:89:e7:23:
        14:46:9e:f4:dd:d1:fd:43:4e:96:00:0f:77:31:9f:5f:c7:2c:
        69:04:86:fb
-----BEGIN CERTIFICATE-----
MIIDeDCCAmCgAwIBAgIRAIamxzA0jVX1l/NqS2q3PAowDQYJKoZIhvcNAQELBQAw
FjEUMBIGA1UEAwwLdGVhbTQ4NS1uZXQwHhcNMjMxMTAzMjA0ODA3WhcNMjYxMDE4
MjA0ODA3WjAZMRcwFQYDVQQDDA50ZWFtNDg1LXNlcnZlcjCCASIwDQYJKoZIhvcN
AQEBBQADggEPADCCAQoCggEBAKAxbn7i6EB9+M4FbZ6I+vgIFN0hl6oPu0RrPjiw
lrvcUsU+kPv7hFVq9Nz/B0sPBzX/+sX3vHotnhV/fF+cJuyoodyapN9N3vVCKLYf
b4zLlKPobeGYcRksRaAWypTpkeYaIgk6xcLRy6Z7W0sY7jaJ0hXBM2Pt/2mnVmyx
+OxcxW4KOI7nkLT7/Ai2hxNKb11NRyfOW5a+A7Y1sbbFIRoJn/o9Cu7dSnPaY0he
NCkD0lCsVr90A3WtuIcoCuCqLEv24p1VS5/jWZZo8Cr01yLXgZdCw++PStpeR5pR
FZq13MLWIDYhpFqx/xZL661Hebgpxk1Q4ELTLaxSUFq1sTcCAwEAAaOBvTCBujAJ
BgNVHRMEAjAAMB0GA1UdDgQWBBTogqUfuG7NTY/gKrkWttUYJdqFLTBRBgNVHSME
SjBIgBSOQqvW2NCOebvifm2Q42rJA3BfH6EapBgwFjEUMBIGA1UEAwwLdGVhbTQ4
NS1uZXSCFC2U0JVS4ERSx8rAdy2Hcw4aY36KMBMGA1UdJQQMMAoGCCsGAQUFBwMB
MAsGA1UdDwQEAwIFoDAZBgNVHREEEjAQgg50ZWFtNDg1LXNlcnZlcjANBgkqhkiG
9w0BAQsFAAOCAQEAiXK1wIYI/oDMhQDroMkQ8wpBMp/aaSS7WS9JQLdq5T77ZNUR
8VKmAasaHxBTy5TezzqN+2DmeIMFQRTL8CxHqwP9Wy9xzio4ODhSvPIH5kkebEAX
Ubm8kmWz7QKe5S7+SWiiRww272DDKYABXodUJ47ycgTDO6k/8cGYcN8rdpKrswhh
A4OLlCU0lSaCKyGqg+5BfPCIzj+0jPbqRdfvMcx06XJgMs96TMeJ1aTVSAMnbCqT
4H9NV7pV3r9jW9RdzVozKCDYE3VEQaHE9uQiQdcej/JKv+meC9atJgyyJzn1PE3e
F2bPiecjFEae9N3R/UNOlgAPdzGfX8csaQSG+w==
-----END CERTIFICATE-----
