Certificate:
    Data:
        Version: 3 (0x2)
        Serial Number:
            a6:6d:57:35:0d:de:13:47:a6:a5:97:f1:2e:33:33:ca
        Signature Algorithm: sha256WithRSAEncryption
        Issuer: CN=team485-net
        Validity
            Not Before: Nov  4 10:49:10 2023 GMT
            Not After : Oct 19 10:49:10 2026 GMT
        Subject: CN=team485-client
        Subject Public Key Info:
            Public Key Algorithm: rsaEncryption
                Public-Key: (2048 bit)
                Modulus:
                    00:b6:2d:47:1f:02:44:35:b7:ca:af:6b:d8:1a:6a:
                    b7:31:bf:36:44:7f:e1:41:5e:bd:20:5f:0e:28:3b:
                    cc:50:25:f2:1a:b6:87:42:be:f1:c2:4b:a1:65:9a:
                    7c:28:29:4e:6c:36:04:aa:e2:3e:1d:be:2d:0e:80:
                    c2:af:73:c1:96:c7:bf:57:6a:87:bf:64:f5:37:7d:
                    66:a2:80:ee:c5:6c:55:6c:6a:01:de:9d:4a:77:18:
                    c1:ac:b8:b6:56:5f:19:7f:ef:02:c0:91:ab:9c:8a:
                    ef:c9:55:8d:d1:bd:da:47:c4:71:2e:91:4e:73:e4:
                    50:91:fb:42:15:1d:20:e9:fb:1f:0c:fd:25:d2:2b:
                    59:67:07:5d:39:bc:55:24:7b:2e:47:99:34:f7:ed:
                    ff:cb:e3:06:b5:95:7c:37:54:e8:c9:92:42:5f:86:
                    97:00:47:31:f8:ed:c5:38:30:96:c7:26:59:ea:62:
                    1b:8c:ad:71:c7:b7:04:bd:07:31:07:ea:32:e5:cf:
                    8a:61:99:0f:2c:9d:7b:b6:51:19:1f:b4:2d:32:55:
                    91:15:a5:d5:4a:52:64:b3:fe:f1:59:48:27:21:4d:
                    20:dc:24:d6:22:b7:f8:db:a5:49:99:1a:48:fd:14:
                    25:07:63:13:0f:dc:d3:77:4f:31:23:6c:01:01:42:
                    b7:8b
                Exponent: 65537 (0x10001)
        X509v3 extensions:
            X509v3 Basic Constraints: 
                CA:FALSE
            X509v3 Subject Key Identifier: 
                96:6C:D1:A9:D2:45:3D:55:01:81:29:AD:44:ED:1F:D6:7C:79:44:B4
            X509v3 Authority Key Identifier: 
                keyid:8C:03:2C:82:1D:49:84:66:E2:2E:B3:E1:C8:A3:33:78:CA:6A:3B:C3
                DirName:/CN=team485-net
                serial:25:DB:28:A3:A5:27:B1:3D:AD:C7:A8:B5:9E:7F:2A:2A:11:CD:01:48
            X509v3 Extended Key Usage: 
                TLS Web Client Authentication
            X509v3 Key Usage: 
                Digital Signature
    Signature Algorithm: sha256WithRSAEncryption
    Signature Value:
        4d:f3:f4:dd:a0:76:64:1b:ef:e2:44:6f:6c:c5:85:6c:b2:00:
        40:f5:23:cc:ff:87:27:75:cb:9f:db:c9:f2:d1:63:52:2d:74:
        f2:91:ec:65:1f:8f:ff:f7:72:99:73:18:ab:02:1d:22:be:47:
        53:c9:75:c0:35:41:a6:cb:aa:75:4a:2b:54:a9:46:7a:a3:e5:
        64:c9:2b:d8:0f:61:e4:ba:95:30:c3:9d:72:3e:7a:d8:be:18:
        0f:f1:70:e0:bb:7a:69:68:b7:32:ba:be:b0:b6:e9:e2:ec:27:
        ed:08:a7:12:e0:9e:40:f1:32:6b:40:3a:c8:e6:07:25:03:6c:
        8d:5e:c3:f7:a6:ef:26:d1:46:0b:a7:60:62:f7:84:81:fb:f5:
        3d:58:f6:51:78:44:fa:80:e1:6c:4a:cc:db:e2:f7:ad:f0:7e:
        16:07:19:5c:ad:a9:33:92:f6:5f:aa:14:bf:6b:17:7f:f9:ad:
        85:1a:e7:1e:6e:78:35:83:40:57:b8:e2:b9:b1:12:93:ff:35:
        cd:4e:b6:3b:00:06:74:31:b4:b7:52:a5:53:9e:59:0a:88:97:
        1c:6e:b8:2b:ca:c9:ef:fe:87:73:1e:95:6c:2e:a2:be:8c:e4:
        74:1a:d6:81:86:05:b1:86:fd:b2:d3:e3:75:68:7d:d3:47:40:
        e0:c7:11:6c
-----BEGIN CERTIFICATE-----
MIIDXTCCAkWgAwIBAgIRAKZtVzUN3hNHpqWX8S4zM8owDQYJKoZIhvcNAQELBQAw
FjEUMBIGA1UEAwwLdGVhbTQ4NS1uZXQwHhcNMjMxMTA0MTA0OTEwWhcNMjYxMDE5
MTA0OTEwWjAZMRcwFQYDVQQDDA50ZWFtNDg1LWNsaWVudDCCASIwDQYJKoZIhvcN
AQEBBQADggEPADCCAQoCggEBALYtRx8CRDW3yq9r2BpqtzG/NkR/4UFevSBfDig7
zFAl8hq2h0K+8cJLoWWafCgpTmw2BKriPh2+LQ6Awq9zwZbHv1dqh79k9Td9ZqKA
7sVsVWxqAd6dSncYway4tlZfGX/vAsCRq5yK78lVjdG92kfEcS6RTnPkUJH7QhUd
IOn7Hwz9JdIrWWcHXTm8VSR7LkeZNPft/8vjBrWVfDdU6MmSQl+GlwBHMfjtxTgw
lscmWepiG4ytcce3BL0HMQfqMuXPimGZDyyde7ZRGR+0LTJVkRWl1UpSZLP+8VlI
JyFNINwk1iK3+NulSZkaSP0UJQdjEw/c03dPMSNsAQFCt4sCAwEAAaOBojCBnzAJ
BgNVHRMEAjAAMB0GA1UdDgQWBBSWbNGp0kU9VQGBKa1E7R/WfHlEtDBRBgNVHSME
SjBIgBSMAyyCHUmEZuIus+HIozN4ymo7w6EapBgwFjEUMBIGA1UEAwwLdGVhbTQ4
NS1uZXSCFCXbKKOlJ7E9rceotZ5/KioRzQFIMBMGA1UdJQQMMAoGCCsGAQUFBwMC
MAsGA1UdDwQEAwIHgDANBgkqhkiG9w0BAQsFAAOCAQEATfP03aB2ZBvv4kRvbMWF
bLIAQPUjzP+HJ3XLn9vJ8tFjUi108pHsZR+P//dymXMYqwIdIr5HU8l1wDVBpsuq
dUorVKlGeqPlZMkr2A9h5LqVMMOdcj562L4YD/Fw4Lt6aWi3Mrq+sLbp4uwn7Qin
EuCeQPEya0A6yOYHJQNsjV7D96bvJtFGC6dgYveEgfv1PVj2UXhE+oDhbErM2+L3
rfB+FgcZXK2pM5L2X6oUv2sXf/mthRrnHm54NYNAV7jiubESk/81zU62OwAGdDG0
t1KlU55ZCoiXHG64K8rJ7/6Hcx6VbC6ivozkdBrWgYYFsYb9stPjdWh900dA4McR
bA==
-----END CERTIFICATE-----
