Certificate:
    Data:
        Version: 3 (0x2)
        Serial Number:
            3f:d4:ae:bb:cd:48:6e:ba:f2:82:bb:d6:f3:7c:b5:7a
        Signature Algorithm: sha256WithRSAEncryption
        Issuer: CN=team103-net
        Validity
            Not Before: Nov  4 11:29:27 2023 GMT
            Not After : Oct 19 11:29:27 2026 GMT
        Subject: CN=team103-server
        Subject Public Key Info:
            Public Key Algorithm: rsaEncryption
                Public-Key: (2048 bit)
                Modulus:
                    00:b9:63:12:65:a1:fd:20:91:7a:ef:30:eb:db:e5:
                    25:29:44:51:59:4c:94:4d:f9:14:4d:95:2b:33:c3:
                    30:5d:3b:42:d6:08:f5:7e:fd:f3:d5:a1:fd:c6:65:
                    7f:b4:d6:00:0d:b7:25:d7:45:fb:d9:33:31:dc:ad:
                    87:71:4a:22:5b:de:3d:63:e5:6f:5c:3c:91:d6:f6:
                    a9:2b:78:08:4a:3b:e3:62:e6:a7:b7:b4:00:3a:1a:
                    ba:55:71:3c:59:1b:99:b6:6f:a0:a1:aa:31:fc:f1:
                    94:f5:e3:99:84:a9:d9:1d:69:67:b7:85:7d:a3:97:
                    73:03:58:66:d3:23:9e:85:4a:49:2b:1a:f6:80:53:
                    50:45:1f:ff:ce:63:7f:3e:85:d3:d7:47:1a:d3:d5:
                    5e:20:a1:a4:e9:5a:21:52:96:b0:29:58:b6:26:33:
                    a4:1d:ce:3c:ea:a4:e4:62:22:cd:98:97:75:6c:81:
                    e2:24:28:cf:da:08:ca:3a:76:9a:c8:5f:0e:91:12:
                    b3:5a:43:b5:7d:86:9f:59:a8:ca:c1:1a:30:28:f0:
                    cc:a4:62:f3:64:95:26:fd:d6:3c:78:81:e8:58:9a:
                    e7:52:dd:5c:41:2d:70:04:94:60:59:fe:5b:11:95:
                    2b:75:85:35:2b:8e:14:4c:18:ff:48:c1:73:5d:7f:
                    19:9d
                Exponent: 65537 (0x10001)
        X509v3 extensions:
            X509v3 Basic Constraints: 
                CA:FALSE
            X509v3 Subject Key Identifier: 
                C8:18:56:C5:AA:AA:01:78:F1:DD:FA:CE:1A:E6:77:EB:DC:B7:A6:39
            X509v3 Authority Key Identifier: 
                keyid:42:D1:1D:ED:D4:DD:49:4D:BB:0E:09:AC:DC:9D:1B:DB:9A:A1:76:8E
                DirName:/CN=team103-net
                serial:33:60:EB:6E:44:AF:56:FD:6F:30:F4:8A:9A:AD:02:17:8F:6A:7E:FD
            X509v3 Extended Key Usage: 
                TLS Web Server Authentication
            X509v3 Key Usage: 
                Digital Signature, Key Encipherment
            X509v3 Subject Alternative Name: 
                DNS:team103-server
    Signature Algorithm: sha256WithRSAEncryption
    Signature Value:
        a4:ca:06:12:1b:45:a8:1a:a8:99:5e:c0:2b:58:e2:32:ab:f6:
        ba:c2:db:3d:32:d7:9c:99:4a:03:d3:b4:d1:eb:e4:11:2c:d1:
        b3:11:bd:50:e7:2c:be:15:84:cd:19:f7:1d:c5:33:e6:43:c8:
        05:e4:bb:7a:d4:3e:43:a2:a1:7c:f2:9c:28:43:b2:ae:b5:0d:
        b3:42:9c:0a:be:8e:75:db:c1:a0:65:d7:58:92:d1:dd:71:b1:
        f3:f0:da:7f:79:c5:f1:13:d7:db:94:d3:bb:a2:bc:40:a4:3d:
        6e:94:63:ea:17:fc:0a:0f:da:3d:89:81:c9:17:a7:9d:5c:c7:
        c8:bc:b4:7c:cb:ce:a6:40:33:df:c3:3d:47:a5:ec:23:3c:da:
        ff:71:a5:5c:38:aa:d9:07:40:30:93:c4:af:a1:97:ee:30:9b:
        22:26:9c:91:4d:ab:bb:80:0b:d8:ae:eb:70:f1:42:ab:2b:e6:
        64:bc:78:6b:22:45:cc:7f:e4:25:36:e2:bc:0a:af:d4:1a:13:
        9e:ab:02:07:42:d0:19:20:20:f7:51:49:0c:71:f5:97:90:eb:
        bb:84:a0:0a:60:94:f6:a2:0f:74:66:85:e1:8c:db:82:d5:b6:
        bb:ed:93:54:8b:b8:8d:ce:dc:e8:67:12:1b:75:4a:8a:bd:1d:
        d7:08:53:32
-----BEGIN CERTIFICATE-----
MIIDdzCCAl+gAwIBAgIQP9Suu81IbrrygrvW83y1ejANBgkqhkiG9w0BAQsFADAW
MRQwEgYDVQQDDAt0ZWFtMTAzLW5ldDAeFw0yMzExMDQxMTI5MjdaFw0yNjEwMTkx
MTI5MjdaMBkxFzAVBgNVBAMMDnRlYW0xMDMtc2VydmVyMIIBIjANBgkqhkiG9w0B
AQEFAAOCAQ8AMIIBCgKCAQEAuWMSZaH9IJF67zDr2+UlKURRWUyUTfkUTZUrM8Mw
XTtC1gj1fv3z1aH9xmV/tNYADbcl10X72TMx3K2HcUoiW949Y+VvXDyR1vapK3gI
SjvjYuant7QAOhq6VXE8WRuZtm+goaox/PGU9eOZhKnZHWlnt4V9o5dzA1hm0yOe
hUpJKxr2gFNQRR//zmN/PoXT10ca09VeIKGk6VohUpawKVi2JjOkHc486qTkYiLN
mJd1bIHiJCjP2gjKOnaayF8OkRKzWkO1fYafWajKwRowKPDMpGLzZJUm/dY8eIHo
WJrnUt1cQS1wBJRgWf5bEZUrdYU1K44UTBj/SMFzXX8ZnQIDAQABo4G9MIG6MAkG
A1UdEwQCMAAwHQYDVR0OBBYEFMgYVsWqqgF48d36zhrmd+vct6Y5MFEGA1UdIwRK
MEiAFELRHe3U3UlNuw4JrNydG9uaoXaOoRqkGDAWMRQwEgYDVQQDDAt0ZWFtMTAz
LW5ldIIUM2DrbkSvVv1vMPSKmq0CF49qfv0wEwYDVR0lBAwwCgYIKwYBBQUHAwEw
CwYDVR0PBAQDAgWgMBkGA1UdEQQSMBCCDnRlYW0xMDMtc2VydmVyMA0GCSqGSIb3
DQEBCwUAA4IBAQCkygYSG0WoGqiZXsArWOIyq/a6wts9MtecmUoD07TR6+QRLNGz
Eb1Q5yy+FYTNGfcdxTPmQ8gF5Lt61D5DoqF88pwoQ7KutQ2zQpwKvo5128GgZddY
ktHdcbHz8Np/ecXxE9fblNO7orxApD1ulGPqF/wKD9o9iYHJF6edXMfIvLR8y86m
QDPfwz1HpewjPNr/caVcOKrZB0Awk8SvoZfuMJsiJpyRTau7gAvYrutw8UKrK+Zk
vHhrIkXMf+QlNuK8Cq/UGhOeqwIHQtAZICD3UUkMcfWXkOu7hKAKYJT2og90ZoXh
jNuC1ba77ZNUi7iNztzoZxIbdUqKvR3XCFMy
-----END CERTIFICATE-----
