Certificate:
    Data:
        Version: 3 (0x2)
        Serial Number:
            49:6c:0b:41:2b:cc:f6:c4:19:bf:a2:c4:3f:6b:d1:10
        Signature Algorithm: sha256WithRSAEncryption
        Issuer: CN=team103-net
        Validity
            Not Before: Nov  4 10:42:20 2023 GMT
            Not After : Oct 19 10:42:20 2026 GMT
        Subject: CN=team103-client
        Subject Public Key Info:
            Public Key Algorithm: rsaEncryption
                Public-Key: (2048 bit)
                Modulus:
                    00:e9:3c:01:04:f3:80:03:f4:1c:f2:a5:08:e8:ea:
                    98:93:70:bd:9a:3b:74:09:a8:b1:8b:62:ca:8c:fc:
                    04:e9:ff:23:b8:c1:c7:79:9c:21:77:d5:3e:58:9e:
                    fd:d5:7c:e9:02:52:58:28:38:52:f4:94:a1:08:a4:
                    5c:95:92:ad:74:24:d8:b9:da:11:84:ef:1a:ee:b3:
                    75:42:7c:0a:42:c1:d1:d0:6b:a8:41:9f:1c:d4:c1:
                    08:59:c7:29:1a:b1:fe:c0:99:8a:9e:79:b6:9b:bf:
                    69:fb:f7:0f:26:95:87:bf:5c:b4:40:bb:43:66:79:
                    66:87:2b:28:a1:ac:0f:fd:f6:30:f3:80:9b:65:78:
                    83:ac:45:b0:20:d1:a0:fc:af:2f:70:50:3a:ea:16:
                    6e:21:95:48:0e:a9:41:a8:c3:07:08:f7:0a:d5:f6:
                    9b:83:47:a0:1c:b4:7f:6c:59:47:e6:3c:fa:c4:cd:
                    c0:a8:a2:c7:9e:0f:53:9b:14:40:83:48:cf:30:e8:
                    ff:8b:a5:a2:d6:de:68:88:a2:db:34:f3:b5:ef:79:
                    c8:50:ed:2b:95:ff:69:e1:70:92:60:cf:c4:d7:df:
                    f3:7b:56:3b:0f:5b:18:65:7b:f3:84:0c:2f:c8:ce:
                    5f:3a:e9:82:87:8f:29:db:79:b4:95:0f:9e:0d:5a:
                    7e:d5
                Exponent: 65537 (0x10001)
        X509v3 extensions:
            X509v3 Basic Constraints: 
                CA:FALSE
            X509v3 Subject Key Identifier: 
                91:AA:8C:DC:4E:F0:8E:A9:06:67:1F:F0:13:77:4E:B4:6D:5C:03:E2
            X509v3 Authority Key Identifier: 
                keyid:C5:B4:FF:A1:9C:85:60:7D:80:F9:28:A9:0B:3C:3C:26:B2:23:F2:C5
                DirName:/CN=team103-net
                serial:55:61:0E:38:7F:55:63:13:3C:BF:77:EB:A2:1D:80:EA:BE:82:F3:6D
            X509v3 Extended Key Usage: 
                TLS Web Client Authentication
            X509v3 Key Usage: 
                Digital Signature
    Signature Algorithm: sha256WithRSAEncryption
    Signature Value:
        3b:d9:37:86:94:9a:ce:30:3e:e3:79:8c:f7:93:7b:99:47:af:
        64:ac:e1:e2:c1:95:3f:a4:89:c6:8c:72:f1:ca:ec:b3:77:e4:
        22:b8:60:4f:3d:72:97:df:2e:8c:d3:cf:26:90:1e:6a:1f:18:
        26:75:8e:93:5f:41:99:30:8a:c6:42:73:d3:c8:c3:67:1e:8c:
        0a:89:19:54:9c:fc:1c:55:7c:6e:ec:74:35:07:02:89:78:02:
        ff:bf:6f:04:21:2b:2d:db:a7:9f:12:7a:db:31:96:80:a6:aa:
        c6:40:c7:20:b9:60:e4:f4:b2:b3:cf:7a:ee:f0:b6:1a:9b:25:
        c6:ad:8e:70:32:34:57:fe:40:bf:8c:b7:38:14:a8:8b:ba:eb:
        0f:72:3d:40:4b:a3:df:c3:a0:18:84:85:a3:a2:5d:2e:9e:f4:
        8a:77:21:88:8d:75:53:5e:de:40:9e:53:85:e7:b2:4d:ec:1c:
        e7:16:fd:8b:dd:16:24:47:e0:35:a6:55:30:df:0b:20:ff:a7:
        fa:47:83:e5:da:0a:aa:15:95:b7:47:f8:9c:5c:cc:75:12:70:
        b3:68:8e:d1:21:2d:2f:aa:00:49:7c:7d:b5:e8:5d:6f:eb:53:
        b4:a9:01:20:a8:70:29:21:f2:35:ca:b4:5b:53:49:62:a2:49:
        76:3e:20:20
-----BEGIN CERTIFICATE-----
MIIDXDCCAkSgAwIBAgIQSWwLQSvM9sQZv6LEP2vREDANBgkqhkiG9w0BAQsFADAW
MRQwEgYDVQQDDAt0ZWFtMTAzLW5ldDAeFw0yMzExMDQxMDQyMjBaFw0yNjEwMTkx
MDQyMjBaMBkxFzAVBgNVBAMMDnRlYW0xMDMtY2xpZW50MIIBIjANBgkqhkiG9w0B
AQEFAAOCAQ8AMIIBCgKCAQEA6TwBBPOAA/Qc8qUI6OqYk3C9mjt0Caixi2LKjPwE
6f8juMHHeZwhd9U+WJ791XzpAlJYKDhS9JShCKRclZKtdCTYudoRhO8a7rN1QnwK
QsHR0GuoQZ8c1MEIWccpGrH+wJmKnnm2m79p+/cPJpWHv1y0QLtDZnlmhysooawP
/fYw84CbZXiDrEWwINGg/K8vcFA66hZuIZVIDqlBqMMHCPcK1fabg0egHLR/bFlH
5jz6xM3AqKLHng9TmxRAg0jPMOj/i6Wi1t5oiKLbNPO173nIUO0rlf9p4XCSYM/E
19/ze1Y7D1sYZXvzhAwvyM5fOumCh48p23m0lQ+eDVp+1QIDAQABo4GiMIGfMAkG
A1UdEwQCMAAwHQYDVR0OBBYEFJGqjNxO8I6pBmcf8BN3TrRtXAPiMFEGA1UdIwRK
MEiAFMW0/6GchWB9gPkoqQs8PCayI/LFoRqkGDAWMRQwEgYDVQQDDAt0ZWFtMTAz
LW5ldIIUVWEOOH9VYxM8v3froh2A6r6C820wEwYDVR0lBAwwCgYIKwYBBQUHAwIw
CwYDVR0PBAQDAgeAMA0GCSqGSIb3DQEBCwUAA4IBAQA72TeGlJrOMD7jeYz3k3uZ
R69krOHiwZU/pInGjHLxyuyzd+QiuGBPPXKX3y6M088mkB5qHxgmdY6TX0GZMIrG
QnPTyMNnHowKiRlUnPwcVXxu7HQ1BwKJeAL/v28EISst26efEnrbMZaApqrGQMcg
uWDk9LKzz3ru8LYamyXGrY5wMjRX/kC/jLc4FKiLuusPcj1AS6Pfw6AYhIWjol0u
nvSKdyGIjXVTXt5AnlOF57JN7BznFv2L3RYkR+A1plUw3wsg/6f6R4Pl2gqqFZW3
R/icXMx1EnCzaI7RIS0vqgBJfH216F1v61O0qQEgqHApIfI1yrRbU0liokl2PiAg
-----END CERTIFICATE-----
