Certificate:
    Data:
        Version: 3 (0x2)
        Serial Number:
            90:39:89:ad:f1:e4:58:37:c1:23:04:aa:6f:60:14:30
        Signature Algorithm: sha256WithRSAEncryption
        Issuer: CN=team103-net
        Validity
            Not Before: Nov  3 20:40:58 2023 GMT
            Not After : Oct 18 20:40:58 2026 GMT
        Subject: CN=team103-server
        Subject Public Key Info:
            Public Key Algorithm: rsaEncryption
                Public-Key: (2048 bit)
                Modulus:
                    00:9a:ce:74:b0:85:de:46:30:c9:1d:44:1d:95:31:
                    be:df:c8:ba:cc:05:2a:fe:77:e3:ac:ac:9b:35:d0:
                    c4:85:41:55:68:dd:3e:8e:a7:43:d1:12:69:77:0d:
                    00:ea:b9:38:04:29:f0:a6:bc:10:79:46:f4:2b:23:
                    af:45:a6:a1:8e:dc:a8:4d:b8:31:17:48:7b:03:cf:
                    06:ef:33:8a:68:3c:db:13:c1:6c:29:d8:1a:70:cb:
                    4c:82:0c:7c:56:cc:1d:3d:a2:59:ca:39:21:37:7f:
                    13:e6:8e:cc:44:b9:bf:33:27:1b:52:a7:7a:08:03:
                    3c:81:60:51:45:37:65:97:62:37:6b:2f:c7:2d:62:
                    72:70:8d:d3:93:3e:fc:39:e8:8e:ce:5c:7b:3c:ce:
                    53:7a:bb:6d:34:c9:fe:e1:10:8d:7c:17:d6:b0:b5:
                    c8:c2:6a:79:e2:ea:9c:44:3b:53:89:fe:da:02:12:
                    a1:86:5d:26:c2:72:10:ef:54:9f:95:e7:72:c7:b8:
                    e2:1d:d4:dc:84:f9:64:51:1f:cb:05:ee:a5:a2:ab:
                    54:34:9d:e4:76:f6:31:83:9f:a9:8a:c2:01:07:17:
                    7d:a0:d8:de:a7:bb:8d:5b:71:3a:c5:61:b3:27:1a:
                    58:44:8d:09:d3:ee:e0:51:fd:b2:5d:91:fe:9e:9b:
                    c8:45
                Exponent: 65537 (0x10001)
        X509v3 extensions:
            X509v3 Basic Constraints: 
                CA:FALSE
            X509v3 Subject Key Identifier: 
                9C:A4:4F:59:AA:40:66:E6:0E:17:EB:11:32:1B:02:4F:D0:E6:DC:45
            X509v3 Authority Key Identifier: 
                keyid:EC:63:2E:29:F0:D8:C4:91:17:5C:90:C2:DC:FD:18:81:6F:9E:5C:6E
                DirName:/CN=team103-net
                serial:83:C3:36:82:87:D4:B4:38:FD:AA:D9:4A:C1:55:35:22:FF:F7:70
            X509v3 Extended Key Usage: 
                TLS Web Server Authentication
            X509v3 Key Usage: 
                Digital Signature, Key Encipherment
            X509v3 Subject Alternative Name: 
                DNS:team103-server
    Signature Algorithm: sha256WithRSAEncryption
    Signature Value:
        79:01:29:5e:ba:7d:19:49:4c:d6:95:96:3e:cc:1f:94:ac:f3:
        49:9d:ff:54:6e:fa:40:7b:35:40:58:e0:07:d9:ec:ac:6f:1e:
        16:10:11:5f:15:b9:f8:60:79:1b:d7:99:fe:ea:77:bc:80:c1:
        44:cc:46:d8:49:10:c7:58:93:dc:42:f4:08:00:d0:6b:37:b6:
        fc:39:73:d4:65:25:83:d8:18:7a:01:eb:a0:0d:2f:a5:4c:ee:
        4b:6d:2a:d0:9e:ef:1a:7e:44:09:e8:e2:71:04:a8:a7:db:96:
        32:cb:1e:8e:a2:ee:ce:32:29:59:31:3b:5f:03:fb:65:12:a5:
        95:44:76:3e:22:fe:f9:b2:51:69:33:93:17:71:3d:6a:4e:46:
        99:ff:37:cb:06:5d:b9:24:40:ce:40:17:ff:93:fe:4f:83:7f:
        f9:17:2f:eb:5f:04:85:09:ab:83:ac:de:d3:0c:d1:db:ba:7f:
        86:8c:cc:26:53:ee:7d:82:2d:66:e2:da:29:95:f7:83:b8:95:
        43:74:04:2c:8d:09:a7:85:39:af:6d:3d:63:8e:fa:bc:35:88:
        0b:cc:ab:15:40:ab:81:1c:63:a9:46:4a:26:9d:24:2f:17:26:
        7f:d8:d6:8f:3c:2b:65:99:57:ec:4d:5d:79:1b:af:cb:3e:bb:
        22:33:a4:91
-----BEGIN CERTIFICATE-----
MIIDeDCCAmCgAwIBAgIRAJA5ia3x5Fg3wSMEqm9gFDAwDQYJKoZIhvcNAQELBQAw
FjEUMBIGA1UEAwwLdGVhbTEwMy1uZXQwHhcNMjMxMTAzMjA0MDU4WhcNMjYxMDE4
MjA0MDU4WjAZMRcwFQYDVQQDDA50ZWFtMTAzLXNlcnZlcjCCASIwDQYJKoZIhvcN
AQEBBQADggEPADCCAQoCggEBAJrOdLCF3kYwyR1EHZUxvt/IuswFKv5346ysmzXQ
xIVBVWjdPo6nQ9ESaXcNAOq5OAQp8Ka8EHlG9Csjr0WmoY7cqE24MRdIewPPBu8z
img82xPBbCnYGnDLTIIMfFbMHT2iWco5ITd/E+aOzES5vzMnG1KneggDPIFgUUU3
ZZdiN2svxy1icnCN05M+/Dnojs5cezzOU3q7bTTJ/uEQjXwX1rC1yMJqeeLqnEQ7
U4n+2gISoYZdJsJyEO9Un5Xncse44h3U3IT5ZFEfywXupaKrVDSd5Hb2MYOfqYrC
AQcXfaDY3qe7jVtxOsVhsycaWESNCdPu4FH9sl2R/p6byEUCAwEAAaOBvTCBujAJ
BgNVHRMEAjAAMB0GA1UdDgQWBBScpE9ZqkBm5g4X6xEyGwJP0ObcRTBRBgNVHSME
SjBIgBTsYy4p8NjEkRdckMLc/RiBb55cbqEapBgwFjEUMBIGA1UEAwwLdGVhbTEw
My1uZXSCFACDwzaCh9S0OP2q2UrBVTUi//dwMBMGA1UdJQQMMAoGCCsGAQUFBwMB
MAsGA1UdDwQEAwIFoDAZBgNVHREEEjAQgg50ZWFtMTAzLXNlcnZlcjANBgkqhkiG
9w0BAQsFAAOCAQEAeQEpXrp9GUlM1pWWPswflKzzSZ3/VG76QHs1QFjgB9nsrG8e
FhARXxW5+GB5G9eZ/up3vIDBRMxG2EkQx1iT3EL0CADQaze2/Dlz1GUlg9gYegHr
oA0vpUzuS20q0J7vGn5ECejicQSop9uWMssejqLuzjIpWTE7XwP7ZRKllUR2PiL+
+bJRaTOTF3E9ak5Gmf83ywZduSRAzkAX/5P+T4N/+Rcv618EhQmrg6ze0wzR27p/
hozMJlPufYItZuLaKZX3g7iVQ3QELI0Jp4U5r209Y476vDWIC8yrFUCrgRxjqUZK
Jp0kLxcmf9jWjzwrZZlX7E1deRuvyz67IjOkkQ==
-----END CERTIFICATE-----
