Certificate:
    Data:
        Version: 3 (0x2)
        Serial Number:
            93:dc:1c:e3:e0:bd:50:61:18:b4:35:2d:b5:69:77:be
        Signature Algorithm: sha256WithRSAEncryption
        Issuer: CN=team103-net
        Validity
            Not Before: Nov  4 11:29:27 2023 GMT
            Not After : Oct 19 11:29:27 2026 GMT
        Subject: CN=team103-client
        Subject Public Key Info:
            Public Key Algorithm: rsaEncryption
                Public-Key: (2048 bit)
                Modulus:
                    00:c8:5b:59:57:61:85:2c:30:ba:a1:66:0d:31:6a:
                    40:40:85:24:44:d9:f0:9e:46:3d:0a:d7:99:9e:d9:
                    50:ad:63:46:96:f0:16:e2:bb:c3:30:35:3b:77:d5:
                    9c:6c:8e:ce:38:64:6f:d4:cd:4e:2f:0c:c0:ff:75:
                    ab:f1:30:c9:1c:51:b9:7e:98:74:24:3a:60:49:53:
                    c2:77:01:ce:ee:6e:17:e7:46:cd:81:f8:fc:86:ab:
                    c4:2f:93:63:da:18:a8:42:63:9e:3c:66:61:7c:bb:
                    e3:ef:52:69:83:4b:54:80:4a:18:eb:94:f1:70:99:
                    b7:81:3f:69:32:3a:3e:0c:40:89:8d:0e:e9:b1:a5:
                    d1:e7:17:c7:12:3c:57:f8:94:0c:9d:8a:7a:f6:dc:
                    c7:bc:f5:94:cd:51:9b:40:12:a4:03:cb:04:c0:ca:
                    36:e9:fe:36:ed:1d:cd:06:27:08:c7:ac:d9:e0:05:
                    d2:a4:d8:bb:17:22:10:c3:15:b1:5e:ed:e2:b3:45:
                    af:e3:9b:f5:2e:35:08:b6:fd:fc:f1:c4:5d:45:dc:
                    6b:c0:b9:99:dc:1a:34:d7:a4:b5:e0:88:cd:40:a6:
                    1e:ef:d1:12:f5:18:c7:15:ba:5d:b1:18:10:ef:1a:
                    17:cb:84:e3:85:90:ef:47:02:69:a2:d3:bc:87:d9:
                    0d:27
                Exponent: 65537 (0x10001)
        X509v3 extensions:
            X509v3 Basic Constraints: 
                CA:FALSE
            X509v3 Subject Key Identifier: 
                E7:5E:8A:4B:FD:FB:4F:87:2C:AD:1E:4C:B7:4E:B7:1F:D7:58:33:17
            X509v3 Authority Key Identifier: 
                keyid:42:D1:1D:ED:D4:DD:49:4D:BB:0E:09:AC:DC:9D:1B:DB:9A:A1:76:8E
                DirName:/CN=team103-net
                serial:33:60:EB:6E:44:AF:56:FD:6F:30:F4:8A:9A:AD:02:17:8F:6A:7E:FD
            X509v3 Extended Key Usage: 
                TLS Web Client Authentication
            X509v3 Key Usage: 
                Digital Signature
    Signature Algorithm: sha256WithRSAEncryption
    Signature Value:
        60:e3:4d:f3:2d:f9:6c:b3:2f:96:63:dc:c4:18:bf:bf:12:70:
        e7:f8:76:56:db:98:33:a9:53:36:7e:58:3a:17:f3:51:90:04:
        a0:c2:71:89:88:3d:24:9a:73:98:50:e1:be:a7:c4:35:4f:ad:
        1f:2e:32:93:bc:7f:c4:31:b0:a9:2e:85:f1:d7:0a:0b:36:c3:
        fa:9f:57:87:91:7b:77:f5:32:83:91:01:a1:ae:93:01:4c:3c:
        6b:3b:36:f1:ad:85:fc:aa:79:4d:2a:27:1e:7a:b5:4d:0a:f5:
        ae:ed:01:d6:df:89:99:94:94:20:5e:66:79:e2:a7:d9:a1:0a:
        72:ac:4e:9c:79:a8:ce:5f:a6:d7:e9:76:3b:5b:78:db:1c:ed:
        78:5e:c3:55:db:ce:3b:6d:c5:ca:93:76:d6:c7:59:59:97:79:
        67:d3:59:77:7b:e5:cb:d3:a5:2a:c1:09:21:89:ad:c7:3f:7b:
        46:04:17:84:06:0a:f2:ed:ac:7d:68:6c:3a:e6:ab:19:e6:90:
        f1:9c:10:d9:37:a8:4e:bc:67:3c:ea:6b:d9:84:94:65:be:75:
        89:f8:64:43:c7:6e:f0:6c:ed:f7:e6:fb:4c:48:76:67:26:bc:
        03:3c:bb:98:38:a8:12:32:63:8c:71:ea:f8:be:a3:98:26:6b:
        5c:b0:f7:8e
-----BEGIN CERTIFICATE-----
MIIDXTCCAkWgAwIBAgIRAJPcHOPgvVBhGLQ1LbVpd74wDQYJKoZIhvcNAQELBQAw
FjEUMBIGA1UEAwwLdGVhbTEwMy1uZXQwHhcNMjMxMTA0MTEyOTI3WhcNMjYxMDE5
MTEyOTI3WjAZMRcwFQYDVQQDDA50ZWFtMTAzLWNsaWVudDCCASIwDQYJKoZIhvcN
AQEBBQADggEPADCCAQoCggEBAMhbWVdhhSwwuqFmDTFqQECFJETZ8J5GPQrXmZ7Z
UK1jRpbwFuK7wzA1O3fVnGyOzjhkb9TNTi8MwP91q/EwyRxRuX6YdCQ6YElTwncB
zu5uF+dGzYH4/IarxC+TY9oYqEJjnjxmYXy74+9SaYNLVIBKGOuU8XCZt4E/aTI6
PgxAiY0O6bGl0ecXxxI8V/iUDJ2Kevbcx7z1lM1Rm0ASpAPLBMDKNun+Nu0dzQYn
CMes2eAF0qTYuxciEMMVsV7t4rNFr+Ob9S41CLb9/PHEXUXca8C5mdwaNNekteCI
zUCmHu/REvUYxxW6XbEYEO8aF8uE44WQ70cCaaLTvIfZDScCAwEAAaOBojCBnzAJ
BgNVHRMEAjAAMB0GA1UdDgQWBBTnXopL/ftPhyytHky3Trcf11gzFzBRBgNVHSME
SjBIgBRC0R3t1N1JTbsOCazcnRvbmqF2jqEapBgwFjEUMBIGA1UEAwwLdGVhbTEw
My1uZXSCFDNg625Er1b9bzD0ipqtAhePan79MBMGA1UdJQQMMAoGCCsGAQUFBwMC
MAsGA1UdDwQEAwIHgDANBgkqhkiG9w0BAQsFAAOCAQEAYONN8y35bLMvlmPcxBi/
vxJw5/h2VtuYM6lTNn5YOhfzUZAEoMJxiYg9JJpzmFDhvqfENU+tHy4yk7x/xDGw
qS6F8dcKCzbD+p9Xh5F7d/Uyg5EBoa6TAUw8azs28a2F/Kp5TSonHnq1TQr1ru0B
1t+JmZSUIF5meeKn2aEKcqxOnHmozl+m1+l2O1t42xzteF7DVdvOO23FypN21sdZ
WZd5Z9NZd3vly9OlKsEJIYmtxz97RgQXhAYK8u2sfWhsOuarGeaQ8ZwQ2TeoTrxn
POpr2YSUZb51ifhkQ8du8Gzt9+b7TEh2Zya8Azy7mDioEjJjjHHq+L6jmCZrXLD3
jg==
-----END CERTIFICATE-----
