Certificate:
    Data:
        Version: 3 (0x2)
        Serial Number:
            12:34:d4:0b:6c:ea:46:28:bd:a5:40:57:5f:5a:a4:58
        Signature Algorithm: sha256WithRSAEncryption
        Issuer: CN=team306-net
        Validity
            Not Before: Nov  4 10:46:15 2023 GMT
            Not After : Oct 19 10:46:15 2026 GMT
        Subject: CN=team306-client
        Subject Public Key Info:
            Public Key Algorithm: rsaEncryption
                Public-Key: (2048 bit)
                Modulus:
                    00:a5:eb:04:68:48:40:c5:95:49:09:6a:47:f6:70:
                    4a:c4:fd:c0:78:a5:f1:20:50:27:6f:7a:e3:ac:b7:
                    35:54:9b:48:2a:86:45:f6:a4:4d:15:fb:8f:5c:71:
                    ca:74:eb:37:1f:19:86:a8:fc:85:28:4b:07:89:e8:
                    17:e3:bc:32:a7:90:fb:9a:20:07:15:3c:b6:ee:0e:
                    09:f1:ce:9c:42:31:48:1b:02:a9:1a:26:4f:75:32:
                    16:f1:e3:96:aa:bf:fd:ae:54:6d:57:8e:43:15:5f:
                    5e:60:28:5f:3a:c3:f2:db:a5:d3:37:ff:63:14:2f:
                    60:ab:af:24:ff:00:b9:92:08:5a:13:9c:53:69:b4:
                    c4:31:1f:52:99:5f:9e:59:5f:31:d6:35:7e:cd:42:
                    a5:12:a5:5a:ab:54:be:f8:dc:81:63:6f:d2:4a:8d:
                    8b:3f:3b:0e:f1:e9:b4:37:2c:43:54:ea:2b:df:eb:
                    c2:26:65:a5:2f:c9:51:d2:34:81:43:24:28:07:6a:
                    c2:85:ba:67:f6:9b:9d:22:78:c3:40:62:be:d1:9e:
                    13:ae:b9:22:b7:ce:0f:9b:bf:bf:e6:01:93:90:03:
                    19:4a:e4:5c:e1:e0:cd:6c:b6:49:39:05:08:9b:07:
                    4d:8c:43:9a:9a:21:39:e3:da:5a:9d:2c:39:01:52:
                    77:7b
                Exponent: 65537 (0x10001)
        X509v3 extensions:
            X509v3 Basic Constraints: 
                CA:FALSE
            X509v3 Subject Key Identifier: 
                71:31:34:69:55:D5:5E:2C:E3:09:EE:53:A4:67:B8:16:05:28:50:2F
            X509v3 Authority Key Identifier: 
                keyid:27:34:D7:4C:0D:9E:6A:19:99:32:67:85:91:A7:C9:8E:0F:F9:43:10
                DirName:/CN=team306-net
                serial:62:ED:FB:B8:62:D8:E0:A4:FB:01:37:68:5B:C3:80:3C:05:12:94:1B
            X509v3 Extended Key Usage: 
                TLS Web Client Authentication
            X509v3 Key Usage: 
                Digital Signature
    Signature Algorithm: sha256WithRSAEncryption
    Signature Value:
        d2:0c:16:00:f1:64:db:d8:23:bb:09:11:dc:95:12:3e:67:e9:
        d3:0b:f5:18:0c:7e:ea:32:5e:3f:3a:20:f7:68:6c:b7:19:2c:
        90:7d:e9:d5:2b:51:f3:a8:70:18:1e:86:79:bd:f6:31:66:b1:
        e5:e4:c2:8e:a8:ab:2c:cb:1a:f5:af:2a:63:49:b8:d0:b2:55:
        eb:75:80:46:27:1d:2b:b5:7e:72:98:c5:62:59:d6:92:16:04:
        d8:34:f5:10:c1:46:6d:0f:82:e4:4d:39:92:ee:08:a2:ee:0c:
        df:d3:6a:41:ad:1d:77:24:c9:00:37:80:ca:1c:ab:da:85:2d:
        c8:58:8b:2e:88:49:04:e2:e2:16:52:03:1f:85:59:f3:f8:18:
        e4:44:45:d6:38:14:2c:a7:f9:3f:73:0f:ed:e4:f8:30:89:13:
        94:59:c3:a2:30:0b:69:d1:b9:93:98:cc:26:eb:8f:1a:55:15:
        c8:39:4c:c6:e3:ad:d7:77:74:26:f1:4d:83:17:cd:1e:d9:6c:
        78:93:52:01:86:41:64:ce:24:b4:6c:81:94:bb:10:23:63:1f:
        bd:44:45:d3:0e:13:c2:93:09:9b:0d:79:a8:5f:2e:5e:6e:42:
        3a:b6:65:83:03:e8:6b:da:89:9a:d7:89:8f:0c:d0:88:46:47:
        05:3d:c1:b7
-----BEGIN CERTIFICATE-----
MIIDXDCCAkSgAwIBAgIQEjTUC2zqRii9pUBXX1qkWDANBgkqhkiG9w0BAQsFADAW
MRQwEgYDVQQDDAt0ZWFtMzA2LW5ldDAeFw0yMzExMDQxMDQ2MTVaFw0yNjEwMTkx
MDQ2MTVaMBkxFzAVBgNVBAMMDnRlYW0zMDYtY2xpZW50MIIBIjANBgkqhkiG9w0B
AQEFAAOCAQ8AMIIBCgKCAQEApesEaEhAxZVJCWpH9nBKxP3AeKXxIFAnb3rjrLc1
VJtIKoZF9qRNFfuPXHHKdOs3HxmGqPyFKEsHiegX47wyp5D7miAHFTy27g4J8c6c
QjFIGwKpGiZPdTIW8eOWqr/9rlRtV45DFV9eYChfOsPy26XTN/9jFC9gq68k/wC5
kghaE5xTabTEMR9SmV+eWV8x1jV+zUKlEqVaq1S++NyBY2/SSo2LPzsO8em0NyxD
VOor3+vCJmWlL8lR0jSBQyQoB2rChbpn9pudInjDQGK+0Z4Trrkit84Pm7+/5gGT
kAMZSuRc4eDNbLZJOQUImwdNjEOamiE549panSw5AVJ3ewIDAQABo4GiMIGfMAkG
A1UdEwQCMAAwHQYDVR0OBBYEFHExNGlV1V4s4wnuU6RnuBYFKFAvMFEGA1UdIwRK
MEiAFCc010wNnmoZmTJnhZGnyY4P+UMQoRqkGDAWMRQwEgYDVQQDDAt0ZWFtMzA2
LW5ldIIUYu37uGLY4KT7ATdoW8OAPAUSlBswEwYDVR0lBAwwCgYIKwYBBQUHAwIw
CwYDVR0PBAQDAgeAMA0GCSqGSIb3DQEBCwUAA4IBAQDSDBYA8WTb2CO7CRHclRI+
Z+nTC/UYDH7qMl4/OiD3aGy3GSyQfenVK1HzqHAYHoZ5vfYxZrHl5MKOqKssyxr1
rypjSbjQslXrdYBGJx0rtX5ymMViWdaSFgTYNPUQwUZtD4LkTTmS7gii7gzf02pB
rR13JMkAN4DKHKvahS3IWIsuiEkE4uIWUgMfhVnz+BjkREXWOBQsp/k/cw/t5Pgw
iROUWcOiMAtp0bmTmMwm648aVRXIOUzG463Xd3Qm8U2DF80e2Wx4k1IBhkFkziS0
bIGUuxAjYx+9REXTDhPCkwmbDXmoXy5ebkI6tmWDA+hr2oma14mPDNCIRkcFPcG3
-----END CERTIFICATE-----
