Certificate:
    Data:
        Version: 3 (0x2)
        Serial Number:
            66:1c:aa:01:bb:30:35:37:28:d7:aa:57:44:9d:a4:d5
        Signature Algorithm: sha256WithRSAEncryption
        Issuer: CN=team306-net
        Validity
            Not Before: Nov  4 11:34:04 2023 GMT
            Not After : Oct 19 11:34:04 2026 GMT
        Subject: CN=team306-client
        Subject Public Key Info:
            Public Key Algorithm: rsaEncryption
                Public-Key: (2048 bit)
                Modulus:
                    00:b2:0c:1c:ff:32:67:31:64:98:13:16:7d:97:40:
                    fe:b7:56:bc:3c:fb:bc:aa:f8:9b:fa:68:ed:31:42:
                    2a:63:b8:22:66:8c:a0:be:e1:93:62:aa:87:1c:38:
                    0e:15:1b:98:fa:f3:2e:2d:2d:e5:cb:1c:cc:d8:ad:
                    a0:f1:80:aa:fa:30:2c:c9:b1:dd:3b:22:88:a5:3a:
                    dc:23:76:52:61:40:2b:e3:08:fc:d8:a3:83:f7:03:
                    b2:7d:d9:a4:b7:8c:2d:a8:d1:2f:78:ad:9e:5c:9c:
                    3e:a0:ca:2f:c5:6e:db:c8:7f:51:36:a9:57:f4:9c:
                    5f:8e:db:c2:cc:aa:c1:46:24:73:7d:95:9a:8a:62:
                    83:ec:1f:16:0f:e1:87:20:88:b7:9e:c3:73:f3:3f:
                    ff:6a:21:27:e2:f3:41:4c:f4:01:2d:a7:97:08:34:
                    7d:8a:a8:65:50:73:d4:22:84:64:f0:00:d1:30:e0:
                    c1:92:27:15:41:39:7e:6e:d3:f4:83:5a:99:e9:27:
                    30:de:95:28:75:63:54:14:be:93:df:81:3e:19:f6:
                    3b:e7:ce:b6:cd:8f:11:c9:cb:3d:ff:6c:6b:83:6b:
                    6d:97:59:bf:4d:e6:28:47:ab:ba:0e:4f:c2:68:7b:
                    75:e8:7e:4d:74:76:67:2c:2b:72:7c:9c:e9:bb:d0:
                    b9:7f
                Exponent: 65537 (0x10001)
        X509v3 extensions:
            X509v3 Basic Constraints: 
                CA:FALSE
            X509v3 Subject Key Identifier: 
                4E:07:3F:70:EC:11:E9:11:93:E1:F6:6B:26:F7:D7:88:24:E6:0E:65
            X509v3 Authority Key Identifier: 
                keyid:EA:04:99:A6:FA:FC:01:38:ED:97:EA:6E:CE:BE:35:A8:E2:E1:F2:20
                DirName:/CN=team306-net
                serial:94:44:2B:82:85:F6:91:63:C0:08:24:A6:A3:9C:64:83:A4:3F:17
            X509v3 Extended Key Usage: 
                TLS Web Client Authentication
            X509v3 Key Usage: 
                Digital Signature
    Signature Algorithm: sha256WithRSAEncryption
    Signature Value:
        78:25:42:c0:53:96:72:e1:d8:a4:07:0b:f6:1e:91:f9:b4:6a:
        0c:66:8b:90:93:4a:61:61:4b:7b:34:d0:ca:00:54:02:a6:6d:
        55:e6:8d:a4:86:7f:39:82:99:73:80:f3:87:da:e9:8b:f9:4b:
        b5:98:be:46:71:33:d9:35:40:9f:9a:51:75:18:8b:b1:e0:d8:
        4e:25:9f:c2:2d:9e:3c:29:87:47:33:a9:18:e4:13:b3:94:43:
        0e:8e:e6:02:1a:02:cd:ad:a1:40:fa:a9:5d:75:eb:5f:c3:83:
        15:4c:8d:d2:a0:36:1a:9d:7b:60:cb:40:dd:bc:61:5a:90:0a:
        3b:6c:d7:cb:9b:61:ba:5a:f6:ec:60:12:c2:bc:4b:c1:48:1e:
        97:66:54:86:36:95:c6:2c:3a:14:3d:d0:25:68:45:6c:a5:ef:
        f9:0a:a0:57:16:a3:f1:64:76:20:8d:67:1c:42:74:b0:bf:08:
        fe:13:4c:9d:20:f8:c3:5e:29:c6:7a:b1:7d:67:c5:bc:6c:6d:
        d3:fa:a1:a7:cd:66:9e:72:b7:40:36:73:08:3f:0a:76:e0:a5:
        eb:56:10:c6:cf:3d:4b:91:24:83:ff:12:4d:a0:20:7c:df:76:
        07:01:2d:e1:25:dc:c7:04:28:f7:78:e8:1f:79:5a:24:41:1f:
        27:83:96:63
-----BEGIN CERTIFICATE-----
MIIDXDCCAkSgAwIBAgIQZhyqAbswNTco16pXRJ2k1TANBgkqhkiG9w0BAQsFADAW
MRQwEgYDVQQDDAt0ZWFtMzA2LW5ldDAeFw0yMzExMDQxMTM0MDRaFw0yNjEwMTkx
MTM0MDRaMBkxFzAVBgNVBAMMDnRlYW0zMDYtY2xpZW50MIIBIjANBgkqhkiG9w0B
AQEFAAOCAQ8AMIIBCgKCAQEAsgwc/zJnMWSYExZ9l0D+t1a8PPu8qvib+mjtMUIq
Y7giZoygvuGTYqqHHDgOFRuY+vMuLS3lyxzM2K2g8YCq+jAsybHdOyKIpTrcI3ZS
YUAr4wj82KOD9wOyfdmkt4wtqNEveK2eXJw+oMovxW7byH9RNqlX9JxfjtvCzKrB
RiRzfZWaimKD7B8WD+GHIIi3nsNz8z//aiEn4vNBTPQBLaeXCDR9iqhlUHPUIoRk
8ADRMODBkicVQTl+btP0g1qZ6Scw3pUodWNUFL6T34E+GfY75862zY8Rycs9/2xr
g2ttl1m/TeYoR6u6Dk/CaHt16H5NdHZnLCtyfJzpu9C5fwIDAQABo4GiMIGfMAkG
A1UdEwQCMAAwHQYDVR0OBBYEFE4HP3DsEekRk+H2ayb314gk5g5lMFEGA1UdIwRK
MEiAFOoEmab6/AE47Zfqbs6+Naji4fIgoRqkGDAWMRQwEgYDVQQDDAt0ZWFtMzA2
LW5ldIIUAJREK4KF9pFjwAgkpqOcZIOkPxcwEwYDVR0lBAwwCgYIKwYBBQUHAwIw
CwYDVR0PBAQDAgeAMA0GCSqGSIb3DQEBCwUAA4IBAQB4JULAU5Zy4dikBwv2HpH5
tGoMZouQk0phYUt7NNDKAFQCpm1V5o2khn85gplzgPOH2umL+Uu1mL5GcTPZNUCf
mlF1GIux4NhOJZ/CLZ48KYdHM6kY5BOzlEMOjuYCGgLNraFA+qlddetfw4MVTI3S
oDYanXtgy0DdvGFakAo7bNfLm2G6WvbsYBLCvEvBSB6XZlSGNpXGLDoUPdAlaEVs
pe/5CqBXFqPxZHYgjWccQnSwvwj+E0ydIPjDXinGerF9Z8W8bG3T+qGnzWaecrdA
NnMIPwp24KXrVhDGzz1LkSSD/xJNoCB833YHAS3hJdzHBCj3eOgfeVokQR8ng5Zj
-----END CERTIFICATE-----
