Certificate:
    Data:
        Version: 3 (0x2)
        Serial Number:
            e6:03:d0:a9:7a:de:c8:07:f7:93:29:86:58:a7:fb:83
        Signature Algorithm: sha256WithRSAEncryption
        Issuer: CN=team306-net
        Validity
            Not Before: Nov  4 11:34:05 2023 GMT
            Not After : Oct 19 11:34:05 2026 GMT
        Subject: CN=team306-server
        Subject Public Key Info:
            Public Key Algorithm: rsaEncryption
                Public-Key: (2048 bit)
                Modulus:
                    00:af:aa:fc:dc:1d:ed:c0:8e:34:67:42:9c:09:4f:
                    18:c1:75:d6:af:88:fd:f2:8c:81:b5:2a:93:f7:5f:
                    2d:d5:4b:6c:ac:37:5b:cb:19:45:ae:53:d0:7a:2e:
                    2e:20:a9:07:c9:2c:ce:21:30:c0:8c:05:f0:02:44:
                    ae:e3:7c:6c:c8:e4:15:03:4a:aa:b2:c3:8c:0c:7d:
                    4f:e0:c0:92:62:ea:2d:18:b3:82:6f:9d:01:db:a0:
                    cf:87:49:18:db:7a:d7:50:cf:98:1b:d9:0e:e9:f1:
                    a4:8e:63:15:0e:c3:a3:61:b7:c7:15:e3:6e:1b:71:
                    b6:5f:97:83:be:da:53:32:e8:fb:45:15:a9:76:01:
                    4b:d5:19:77:1b:da:d6:ed:38:36:3e:0b:89:99:32:
                    ba:34:a8:ae:ce:b5:bc:18:1e:8c:c2:b5:03:46:08:
                    e0:0a:f3:bc:3b:67:f2:b5:60:ae:6d:6e:36:51:9d:
                    76:c8:15:da:5c:1e:31:36:cf:c6:a9:15:cb:9b:4e:
                    ba:77:f4:97:2a:54:c5:ba:db:e7:f8:07:ef:45:fc:
                    e6:55:5e:21:50:8c:29:df:da:1d:85:26:86:7a:17:
                    7e:8f:ff:da:c7:71:1b:f1:80:2c:cd:27:69:01:bf:
                    75:ac:fb:38:94:ab:b1:c8:04:0b:72:a7:6e:78:87:
                    f5:95
                Exponent: 65537 (0x10001)
        X509v3 extensions:
            X509v3 Basic Constraints: 
                CA:FALSE
            X509v3 Subject Key Identifier: 
                14:79:C0:13:A2:B1:20:11:88:0F:E2:34:13:7C:A8:33:BC:D5:71:D1
            X509v3 Authority Key Identifier: 
                keyid:EA:04:99:A6:FA:FC:01:38:ED:97:EA:6E:CE:BE:35:A8:E2:E1:F2:20
                DirName:/CN=team306-net
                serial:94:44:2B:82:85:F6:91:63:C0:08:24:A6:A3:9C:64:83:A4:3F:17
            X509v3 Extended Key Usage: 
                TLS Web Server Authentication
            X509v3 Key Usage: 
                Digital Signature, Key Encipherment
            X509v3 Subject Alternative Name: 
                DNS:team306-server
    Signature Algorithm: sha256WithRSAEncryption
    Signature Value:
        6f:7a:06:b8:75:5a:6e:7c:39:d6:34:6e:87:57:36:f2:30:0c:
        e9:65:c8:47:0f:ec:e6:4f:3a:9e:27:6e:65:88:55:57:52:e4:
        83:2f:8a:0f:3e:fc:8e:1d:9e:dc:3e:e0:eb:25:ec:fd:25:57:
        32:2b:78:bb:8a:09:ed:ad:c8:4a:4e:06:7c:ff:f0:03:13:6d:
        b6:7f:24:72:07:22:6b:a5:67:38:ff:45:f9:99:ab:12:aa:a0:
        7b:6f:f4:81:0c:b9:ef:8d:19:de:76:99:1d:bb:2d:38:da:48:
        a4:25:1b:76:dc:ae:dd:19:ac:51:58:cb:05:b0:6d:77:5c:46:
        fe:9f:4c:e2:ea:b0:20:de:89:90:36:34:17:99:1b:23:42:07:
        9d:65:09:1b:63:14:e5:e0:42:d6:fd:f6:dd:b5:42:df:ae:da:
        93:f2:ec:b4:3d:ba:49:19:c4:29:ba:46:52:81:a0:aa:80:8b:
        7f:6c:ac:13:06:d8:4a:a4:1b:59:26:de:92:f1:1a:31:e2:1a:
        1d:f0:fc:b0:14:da:01:0f:8b:e1:ef:f2:3b:2b:3b:66:58:3d:
        d0:4b:9d:24:48:ef:9d:e4:03:74:c9:c2:24:8c:26:90:b7:ec:
        1d:9a:67:3e:11:35:fe:d0:30:65:e7:5c:78:a2:de:5f:b1:1e:
        ef:00:2c:d1
-----BEGIN CERTIFICATE-----
MIIDeDCCAmCgAwIBAgIRAOYD0Kl63sgH95Mphlin+4MwDQYJKoZIhvcNAQELBQAw
FjEUMBIGA1UEAwwLdGVhbTMwNi1uZXQwHhcNMjMxMTA0MTEzNDA1WhcNMjYxMDE5
MTEzNDA1WjAZMRcwFQYDVQQDDA50ZWFtMzA2LXNlcnZlcjCCASIwDQYJKoZIhvcN
AQEBBQADggEPADCCAQoCggEBAK+q/Nwd7cCONGdCnAlPGMF11q+I/fKMgbUqk/df
LdVLbKw3W8sZRa5T0HouLiCpB8ksziEwwIwF8AJEruN8bMjkFQNKqrLDjAx9T+DA
kmLqLRizgm+dAdugz4dJGNt611DPmBvZDunxpI5jFQ7Do2G3xxXjbhtxtl+Xg77a
UzLo+0UVqXYBS9UZdxva1u04Nj4LiZkyujSors61vBgejMK1A0YI4ArzvDtn8rVg
rm1uNlGddsgV2lweMTbPxqkVy5tOunf0lypUxbrb5/gH70X85lVeIVCMKd/aHYUm
hnoXfo//2sdxG/GALM0naQG/daz7OJSrscgEC3KnbniH9ZUCAwEAAaOBvTCBujAJ
BgNVHRMEAjAAMB0GA1UdDgQWBBQUecATorEgEYgP4jQTfKgzvNVx0TBRBgNVHSME
SjBIgBTqBJmm+vwBOO2X6m7OvjWo4uHyIKEapBgwFjEUMBIGA1UEAwwLdGVhbTMw
Ni1uZXSCFACURCuChfaRY8AIJKajnGSDpD8XMBMGA1UdJQQMMAoGCCsGAQUFBwMB
MAsGA1UdDwQEAwIFoDAZBgNVHREEEjAQgg50ZWFtMzA2LXNlcnZlcjANBgkqhkiG
9w0BAQsFAAOCAQEAb3oGuHVabnw51jRuh1c28jAM6WXIRw/s5k86niduZYhVV1Lk
gy+KDz78jh2e3D7g6yXs/SVXMit4u4oJ7a3ISk4GfP/wAxNttn8kcgcia6VnOP9F
+ZmrEqqge2/0gQy5740Z3naZHbstONpIpCUbdtyu3RmsUVjLBbBtd1xG/p9M4uqw
IN6JkDY0F5kbI0IHnWUJG2MU5eBC1v323bVC367ak/LstD26SRnEKbpGUoGgqoCL
f2ysEwbYSqQbWSbekvEaMeIaHfD8sBTaAQ+L4e/yOys7Zlg90EudJEjvneQDdMnC
JIwmkLfsHZpnPhE1/tAwZedceKLeX7Ee7wAs0Q==
-----END CERTIFICATE-----
