Certificate:
    Data:
        Version: 3 (0x2)
        Serial Number:
            5b:a5:82:c9:4a:9f:67:a7:8d:8f:8c:64:37:7e:25:25
        Signature Algorithm: sha256WithRSAEncryption
        Issuer: CN=team437-net
        Validity
            Not Before: Nov  3 20:47:11 2023 GMT
            Not After : Oct 18 20:47:11 2026 GMT
        Subject: CN=team437-client
        Subject Public Key Info:
            Public Key Algorithm: rsaEncryption
                Public-Key: (2048 bit)
                Modulus:
                    00:cb:14:38:ee:25:97:24:00:a9:45:c2:2f:ad:53:
                    2c:d9:d3:4b:18:55:37:2e:a7:34:d5:ce:4d:de:c2:
                    f7:5f:e5:3b:f3:fa:7b:48:ff:78:b6:ce:43:73:02:
                    7b:97:e9:e3:da:bd:50:2b:ae:4f:c6:4d:49:de:af:
                    38:15:bb:92:fc:08:94:78:73:7f:18:0c:07:59:9d:
                    71:0f:ed:fe:50:96:4e:8e:77:c8:9c:5a:74:78:12:
                    b7:1c:81:c5:14:60:39:d1:c4:e5:ab:1f:37:b2:70:
                    31:87:d2:81:aa:a7:c9:a2:1b:5f:9a:3b:87:fb:cf:
                    56:81:52:5f:6a:48:47:c7:d7:33:c2:7e:bb:92:d7:
                    7c:2e:9e:84:62:3c:f3:d1:8c:3c:d6:48:83:b3:1f:
                    91:32:ed:38:24:45:bb:83:64:cb:2b:60:d3:bd:d7:
                    d6:07:5b:7e:d3:98:82:29:20:6b:84:1c:f8:a5:62:
                    ef:02:d0:4f:db:9b:05:ec:ad:18:50:b7:f2:b5:c7:
                    6f:4a:e2:6d:e9:88:00:d8:71:11:dc:08:b7:ab:81:
                    29:7d:97:37:3e:26:d1:69:2a:f5:c8:f3:31:3a:b2:
                    2a:c0:ed:07:a4:d7:10:5e:87:46:66:78:d1:de:43:
                    69:51:5b:6a:39:98:2f:fb:03:61:72:03:0f:83:ff:
                    0d:87
                Exponent: 65537 (0x10001)
        X509v3 extensions:
            X509v3 Basic Constraints: 
                CA:FALSE
            X509v3 Subject Key Identifier: 
                7A:A6:9C:4E:7F:D7:1A:F8:BD:D1:19:47:5E:66:AE:BF:F1:FB:58:2F
            X509v3 Authority Key Identifier: 
                keyid:17:D5:13:16:CC:F7:05:40:88:70:A6:8A:C9:D1:93:15:33:D3:12:DB
                DirName:/CN=team437-net
                serial:11:F4:55:48:30:EC:E2:A5:E5:BE:78:62:2E:DB:EF:89:9C:F8:17:37
            X509v3 Extended Key Usage: 
                TLS Web Client Authentication
            X509v3 Key Usage: 
                Digital Signature
    Signature Algorithm: sha256WithRSAEncryption
    Signature Value:
        5b:1e:fa:55:41:19:b8:66:6b:21:6e:25:b3:08:28:12:9b:e3:
        3d:7c:38:52:a6:bc:8e:76:9f:62:35:75:8c:42:65:cc:b8:06:
        a6:e5:ff:36:16:19:dc:ac:f1:66:ff:7c:69:10:56:2f:39:0e:
        5a:57:ee:0b:5a:8d:8f:80:f1:80:26:f0:c4:74:88:71:81:95:
        4d:04:07:a3:a4:05:24:17:07:7a:f3:af:76:bb:d0:6f:51:b6:
        d1:cf:20:6f:e0:73:c1:9c:e4:08:93:62:15:2a:cc:c0:e1:b7:
        9d:60:5c:93:12:d1:0c:7c:9e:62:5d:9e:de:f9:66:c0:b8:4f:
        96:ad:21:f4:a8:64:2c:68:49:0d:4e:06:bb:2e:61:ae:26:fa:
        0a:6d:72:7e:d0:80:09:cc:17:09:4d:42:68:31:ec:d1:c5:01:
        05:b4:58:8a:d5:38:a2:56:ea:76:0b:e8:4f:c9:5e:15:95:4a:
        3f:b8:b0:aa:52:f8:85:02:93:69:6c:91:fb:c5:bb:cf:0b:20:
        26:81:f6:22:4b:27:c3:1e:e3:49:5f:7e:2f:55:9e:18:eb:34:
        be:cc:ac:d6:28:2a:1f:b8:1a:c6:8f:8c:13:e7:9f:cd:33:b9:
        84:d0:dd:26:76:4b:c0:65:ad:62:7d:06:84:f7:b9:ae:6d:f4:
        d7:24:42:9f
-----BEGIN CERTIFICATE-----
MIIDXDCCAkSgAwIBAgIQW6WCyUqfZ6eNj4xkN34lJTANBgkqhkiG9w0BAQsFADAW
MRQwEgYDVQQDDAt0ZWFtNDM3LW5ldDAeFw0yMzExMDMyMDQ3MTFaFw0yNjEwMTgy
MDQ3MTFaMBkxFzAVBgNVBAMMDnRlYW00MzctY2xpZW50MIIBIjANBgkqhkiG9w0B
AQEFAAOCAQ8AMIIBCgKCAQEAyxQ47iWXJACpRcIvrVMs2dNLGFU3Lqc01c5N3sL3
X+U78/p7SP94ts5DcwJ7l+nj2r1QK65Pxk1J3q84FbuS/AiUeHN/GAwHWZ1xD+3+
UJZOjnfInFp0eBK3HIHFFGA50cTlqx83snAxh9KBqqfJohtfmjuH+89WgVJfakhH
x9czwn67ktd8Lp6EYjzz0Yw81kiDsx+RMu04JEW7g2TLK2DTvdfWB1t+05iCKSBr
hBz4pWLvAtBP25sF7K0YULfytcdvSuJt6YgA2HER3Ai3q4EpfZc3PibRaSr1yPMx
OrIqwO0HpNcQXodGZnjR3kNpUVtqOZgv+wNhcgMPg/8NhwIDAQABo4GiMIGfMAkG
A1UdEwQCMAAwHQYDVR0OBBYEFHqmnE5/1xr4vdEZR15mrr/x+1gvMFEGA1UdIwRK
MEiAFBfVExbM9wVAiHCmisnRkxUz0xLboRqkGDAWMRQwEgYDVQQDDAt0ZWFtNDM3
LW5ldIIUEfRVSDDs4qXlvnhiLtvviZz4FzcwEwYDVR0lBAwwCgYIKwYBBQUHAwIw
CwYDVR0PBAQDAgeAMA0GCSqGSIb3DQEBCwUAA4IBAQBbHvpVQRm4ZmshbiWzCCgS
m+M9fDhSpryOdp9iNXWMQmXMuAam5f82FhncrPFm/3xpEFYvOQ5aV+4LWo2PgPGA
JvDEdIhxgZVNBAejpAUkFwd68692u9BvUbbRzyBv4HPBnOQIk2IVKszA4bedYFyT
EtEMfJ5iXZ7e+WbAuE+WrSH0qGQsaEkNTga7LmGuJvoKbXJ+0IAJzBcJTUJoMezR
xQEFtFiK1TiiVup2C+hPyV4VlUo/uLCqUviFApNpbJH7xbvPCyAmgfYiSyfDHuNJ
X34vVZ4Y6zS+zKzWKCofuBrGj4wT55/NM7mE0N0mdkvAZa1ifQaE97mubfTXJEKf
-----END CERTIFICATE-----
