Certificate:
    Data:
        Version: 3 (0x2)
        Serial Number:
            6c:db:55:8c:83:a6:c3:8d:fb:2e:7f:28:cd:f0:75:fd
        Signature Algorithm: sha256WithRSAEncryption
        Issuer: CN=team437-net
        Validity
            Not Before: Nov  3 20:47:11 2023 GMT
            Not After : Oct 18 20:47:11 2026 GMT
        Subject: CN=team437-server
        Subject Public Key Info:
            Public Key Algorithm: rsaEncryption
                Public-Key: (2048 bit)
                Modulus:
                    00:a3:f0:c6:03:d0:a9:2c:c7:7e:6b:76:25:78:04:
                    3b:45:77:b6:96:ba:fd:02:91:76:4e:3c:ce:5b:04:
                    5f:a6:c2:23:8f:94:e4:82:06:88:21:70:77:95:fc:
                    d6:44:c8:39:48:7d:34:2e:8a:e4:3f:f3:36:b4:99:
                    a3:dc:dd:ca:ae:49:30:1e:cf:1b:03:ed:a9:41:d9:
                    ee:71:b7:02:82:8b:5b:c3:a8:07:b6:c5:62:1d:16:
                    b7:d2:9f:9b:ff:7b:8d:d4:8e:23:bb:96:a3:2d:3e:
                    bd:6c:18:24:1c:ad:c6:d3:7a:6c:63:ae:4b:9b:94:
                    4d:d6:0d:ea:86:e9:c7:aa:0a:dd:d1:8a:75:e7:ea:
                    4e:8b:3c:87:ae:32:ad:30:69:0d:d1:79:28:dc:f6:
                    38:f2:25:44:1f:d5:48:d9:35:98:30:0d:b5:d2:e1:
                    c9:91:cb:a4:07:b2:fb:8b:d6:df:6b:75:73:bc:03:
                    37:3b:e9:c5:e0:08:a9:a9:b6:a5:64:f3:a6:b0:f2:
                    44:54:8f:ab:11:05:48:85:7c:a1:03:f4:af:8f:41:
                    4c:0e:40:68:ad:a5:12:10:82:19:8a:3b:8a:aa:28:
                    a0:5e:8e:c1:2a:fc:04:57:8f:89:69:5d:f9:c4:b9:
                    60:9f:97:7d:12:7f:af:ac:e5:df:a9:4e:cf:ba:9b:
                    1e:47
                Exponent: 65537 (0x10001)
        X509v3 extensions:
            X509v3 Basic Constraints: 
                CA:FALSE
            X509v3 Subject Key Identifier: 
                5A:4D:74:9C:9F:7F:AF:45:CE:24:D1:9C:A6:40:14:21:F6:62:C3:AE
            X509v3 Authority Key Identifier: 
                keyid:17:D5:13:16:CC:F7:05:40:88:70:A6:8A:C9:D1:93:15:33:D3:12:DB
                DirName:/CN=team437-net
                serial:11:F4:55:48:30:EC:E2:A5:E5:BE:78:62:2E:DB:EF:89:9C:F8:17:37
            X509v3 Extended Key Usage: 
                TLS Web Server Authentication
            X509v3 Key Usage: 
                Digital Signature, Key Encipherment
            X509v3 Subject Alternative Name: 
                DNS:team437-server
    Signature Algorithm: sha256WithRSAEncryption
    Signature Value:
        51:1e:43:51:43:6b:8f:2e:97:39:61:26:a2:f1:90:46:29:e9:
        bf:66:f4:12:fd:03:a5:47:53:69:8c:01:9f:77:37:77:67:51:
        dd:7d:7c:17:9e:a2:dd:44:77:44:f8:f5:4a:41:fa:1d:2d:a0:
        70:07:ba:89:ba:06:ce:6d:e6:7c:fc:d8:5b:cf:97:b2:8a:3f:
        39:76:53:82:e9:8d:a8:a4:e0:9c:8b:40:c0:75:eb:b5:bb:26:
        b5:61:13:cc:8d:ec:3e:80:f9:55:f0:b9:00:6d:66:ad:1a:42:
        46:66:09:92:97:5f:c8:e6:3c:f1:d4:04:7a:ff:f4:c4:57:06:
        47:d7:63:66:fd:0a:8a:45:e5:01:db:1c:c9:e0:04:ca:d7:24:
        e9:41:71:06:c7:2d:6b:aa:09:01:1a:01:8c:b2:bc:f7:dd:7d:
        e1:f7:76:83:bd:ec:6c:aa:f9:1d:96:c7:2a:64:18:6a:82:d8:
        f4:f2:6b:f2:09:00:03:07:32:af:67:55:29:32:e7:d5:d7:54:
        b7:2e:1b:75:93:7d:c9:71:5b:6e:87:34:c3:f8:1d:91:20:dd:
        07:d4:03:98:c4:6a:5b:58:2b:45:e5:b9:ee:bf:0b:a6:06:9d:
        f5:68:72:b0:8c:e7:8d:a0:d8:76:13:fb:e3:a8:7c:86:11:d1:
        0b:8e:b0:96
-----BEGIN CERTIFICATE-----
MIIDdzCCAl+gAwIBAgIQbNtVjIOmw437Ln8ozfB1/TANBgkqhkiG9w0BAQsFADAW
MRQwEgYDVQQDDAt0ZWFtNDM3LW5ldDAeFw0yMzExMDMyMDQ3MTFaFw0yNjEwMTgy
MDQ3MTFaMBkxFzAVBgNVBAMMDnRlYW00Mzctc2VydmVyMIIBIjANBgkqhkiG9w0B
AQEFAAOCAQ8AMIIBCgKCAQEAo/DGA9CpLMd+a3YleAQ7RXe2lrr9ApF2TjzOWwRf
psIjj5TkggaIIXB3lfzWRMg5SH00LorkP/M2tJmj3N3KrkkwHs8bA+2pQdnucbcC
gotbw6gHtsViHRa30p+b/3uN1I4ju5ajLT69bBgkHK3G03psY65Lm5RN1g3qhunH
qgrd0Yp15+pOizyHrjKtMGkN0Xko3PY48iVEH9VI2TWYMA210uHJkcukB7L7i9bf
a3VzvAM3O+nF4AipqbalZPOmsPJEVI+rEQVIhXyhA/Svj0FMDkBoraUSEIIZijuK
qiigXo7BKvwEV4+JaV35xLlgn5d9En+vrOXfqU7PupseRwIDAQABo4G9MIG6MAkG
A1UdEwQCMAAwHQYDVR0OBBYEFFpNdJyff69FziTRnKZAFCH2YsOuMFEGA1UdIwRK
MEiAFBfVExbM9wVAiHCmisnRkxUz0xLboRqkGDAWMRQwEgYDVQQDDAt0ZWFtNDM3
LW5ldIIUEfRVSDDs4qXlvnhiLtvviZz4FzcwEwYDVR0lBAwwCgYIKwYBBQUHAwEw
CwYDVR0PBAQDAgWgMBkGA1UdEQQSMBCCDnRlYW00Mzctc2VydmVyMA0GCSqGSIb3
DQEBCwUAA4IBAQBRHkNRQ2uPLpc5YSai8ZBGKem/ZvQS/QOlR1NpjAGfdzd3Z1Hd
fXwXnqLdRHdE+PVKQfodLaBwB7qJugbObeZ8/Nhbz5eyij85dlOC6Y2opOCci0DA
deu1uya1YRPMjew+gPlV8LkAbWatGkJGZgmSl1/I5jzx1AR6//TEVwZH12Nm/QqK
ReUB2xzJ4ATK1yTpQXEGxy1rqgkBGgGMsrz33X3h93aDvexsqvkdlscqZBhqgtj0
8mvyCQADBzKvZ1UpMufV11S3Lht1k33JcVtuhzTD+B2RIN0H1AOYxGpbWCtF5bnu
vwumBp31aHKwjOeNoNh2E/vjqHyGEdELjrCW
-----END CERTIFICATE-----
