Certificate:
    Data:
        Version: 3 (0x2)
        Serial Number:
            ac:03:d4:40:75:90:b2:a2:e4:c9:7e:15:fd:3f:b2:95
        Signature Algorithm: sha256WithRSAEncryption
        Issuer: CN=team437-net
        Validity
            Not Before: Nov  4 10:48:29 2023 GMT
            Not After : Oct 19 10:48:29 2026 GMT
        Subject: CN=team437-server
        Subject Public Key Info:
            Public Key Algorithm: rsaEncryption
                Public-Key: (2048 bit)
                Modulus:
                    00:cc:b6:47:f9:b9:92:83:83:fe:0f:4a:bd:01:c2:
                    80:53:d6:eb:74:d8:d8:1e:98:69:da:f1:13:91:06:
                    78:e3:33:3b:24:a1:13:ec:6f:95:95:c8:3f:6c:29:
                    df:6d:c2:1b:5d:af:e8:c6:be:d9:0d:d2:f1:c2:e3:
                    2d:11:76:fc:4c:99:66:5a:75:89:51:e7:09:99:40:
                    69:42:5b:24:7b:e6:f7:8a:34:07:8c:f1:b2:bd:be:
                    2e:19:e5:40:83:7c:07:15:78:0f:05:12:12:ad:14:
                    8b:36:86:4d:87:69:50:98:0b:8d:ec:3e:76:da:13:
                    6d:99:cb:0f:6a:eb:4d:be:85:c0:12:e7:db:76:1f:
                    8a:b1:5b:99:dd:f4:38:fc:46:ba:a0:16:e1:5a:74:
                    34:da:1b:a7:d1:e5:ac:40:75:0e:eb:ef:f1:fa:94:
                    93:59:d2:9e:77:9a:fc:66:05:0b:b1:5b:50:9a:e8:
                    41:26:bb:3d:ad:f8:8c:39:d1:6f:ac:58:c9:9a:b4:
                    b2:c1:06:80:8f:13:72:c8:e4:11:c0:83:55:f8:74:
                    2b:e5:57:b1:66:72:e1:e9:33:3a:e3:7a:a4:b2:98:
                    e8:c2:c5:ed:e9:fa:23:18:c2:09:17:fc:25:98:e8:
                    d0:54:40:03:fe:69:a4:75:21:13:6e:2b:a4:94:5e:
                    d3:e9
                Exponent: 65537 (0x10001)
        X509v3 extensions:
            X509v3 Basic Constraints: 
                CA:FALSE
            X509v3 Subject Key Identifier: 
                FC:54:40:37:9E:5C:0F:19:3C:5D:8C:3F:92:52:2A:CA:7F:E6:B5:FD
            X509v3 Authority Key Identifier: 
                keyid:ED:D6:B0:8F:DA:CD:59:69:2B:08:FF:18:E1:BF:CF:31:95:A9:64:8B
                DirName:/CN=team437-net
                serial:05:A3:17:FA:03:15:F1:7E:76:70:7A:2B:0D:DB:84:A5:77:D8:A2:E8
            X509v3 Extended Key Usage: 
                TLS Web Server Authentication
            X509v3 Key Usage: 
                Digital Signature, Key Encipherment
            X509v3 Subject Alternative Name: 
                DNS:team437-server
    Signature Algorithm: sha256WithRSAEncryption
    Signature Value:
        2e:53:14:a0:50:9d:99:31:eb:80:c3:22:6f:f1:77:da:3a:4f:
        34:a5:a0:3f:fa:04:56:12:57:07:1d:ed:b0:e8:ee:09:37:ec:
        bb:1e:d9:45:48:ce:09:f4:6e:7d:86:0f:b7:cd:da:f2:56:d2:
        4d:ca:4f:c9:55:09:43:02:a7:c6:6a:2d:d5:3e:da:78:fb:be:
        5b:9b:72:f3:c1:0b:c1:65:da:a8:cc:d0:ca:45:3c:f0:13:d7:
        1d:74:81:05:d9:e3:9a:ad:fc:66:f9:53:cb:7a:f4:84:5b:94:
        a8:b9:93:a2:18:8d:e2:7a:59:0a:ef:e4:3a:65:f6:e7:5c:2f:
        6b:e3:09:20:27:b9:cc:4b:f1:1a:8d:c6:fe:62:23:16:fc:fb:
        93:63:9a:63:f4:44:19:9c:31:0f:03:52:33:ff:27:77:bf:63:
        0e:dd:dd:83:cd:ca:26:39:f3:3d:22:45:91:b6:41:ae:0e:d5:
        6f:27:b7:c0:92:0d:fc:5d:d0:17:dc:1a:e0:6b:9a:0a:7b:e7:
        37:62:eb:85:4f:e0:6c:7e:d8:0f:9b:c3:d2:5e:b3:09:a8:95:
        08:41:50:f5:29:42:72:b7:17:3b:87:7d:4f:08:27:6a:2c:f1:
        d0:e8:a4:8f:00:99:dd:c1:7d:cc:3e:8e:ec:6d:50:4e:ce:eb:
        13:e4:9c:15
-----BEGIN CERTIFICATE-----
MIIDeDCCAmCgAwIBAgIRAKwD1EB1kLKi5Ml+Ff0/spUwDQYJKoZIhvcNAQELBQAw
FjEUMBIGA1UEAwwLdGVhbTQzNy1uZXQwHhcNMjMxMTA0MTA0ODI5WhcNMjYxMDE5
MTA0ODI5WjAZMRcwFQYDVQQDDA50ZWFtNDM3LXNlcnZlcjCCASIwDQYJKoZIhvcN
AQEBBQADggEPADCCAQoCggEBAMy2R/m5koOD/g9KvQHCgFPW63TY2B6YadrxE5EG
eOMzOyShE+xvlZXIP2wp323CG12v6Ma+2Q3S8cLjLRF2/EyZZlp1iVHnCZlAaUJb
JHvm94o0B4zxsr2+LhnlQIN8BxV4DwUSEq0UizaGTYdpUJgLjew+dtoTbZnLD2rr
Tb6FwBLn23YfirFbmd30OPxGuqAW4Vp0NNobp9HlrEB1Duvv8fqUk1nSnnea/GYF
C7FbUJroQSa7Pa34jDnRb6xYyZq0ssEGgI8TcsjkEcCDVfh0K+VXsWZy4ekzOuN6
pLKY6MLF7en6IxjCCRf8JZjo0FRAA/5ppHUhE24rpJRe0+kCAwEAAaOBvTCBujAJ
BgNVHRMEAjAAMB0GA1UdDgQWBBT8VEA3nlwPGTxdjD+SUirKf+a1/TBRBgNVHSME
SjBIgBTt1rCP2s1ZaSsI/xjhv88xlalki6EapBgwFjEUMBIGA1UEAwwLdGVhbTQz
Ny1uZXSCFAWjF/oDFfF+dnB6Kw3bhKV32KLoMBMGA1UdJQQMMAoGCCsGAQUFBwMB
MAsGA1UdDwQEAwIFoDAZBgNVHREEEjAQgg50ZWFtNDM3LXNlcnZlcjANBgkqhkiG
9w0BAQsFAAOCAQEALlMUoFCdmTHrgMMib/F32jpPNKWgP/oEVhJXBx3tsOjuCTfs
ux7ZRUjOCfRufYYPt83a8lbSTcpPyVUJQwKnxmot1T7aePu+W5ty88ELwWXaqMzQ
ykU88BPXHXSBBdnjmq38ZvlTy3r0hFuUqLmTohiN4npZCu/kOmX251wva+MJICe5
zEvxGo3G/mIjFvz7k2OaY/REGZwxDwNSM/8nd79jDt3dg83KJjnzPSJFkbZBrg7V
bye3wJIN/F3QF9wa4GuaCnvnN2LrhU/gbH7YD5vD0l6zCaiVCEFQ9SlCcrcXO4d9
Twgnaizx0OikjwCZ3cF9zD6O7G1QTs7rE+ScFQ==
-----END CERTIFICATE-----
