Certificate:
    Data:
        Version: 3 (0x2)
        Serial Number:
            cc:52:c0:62:fa:37:ba:c1:94:25:b4:6c:13:69:8e:3c
        Signature Algorithm: sha256WithRSAEncryption
        Issuer: CN=team437-net
        Validity
            Not Before: Nov  4 10:48:29 2023 GMT
            Not After : Oct 19 10:48:29 2026 GMT
        Subject: CN=team437-client
        Subject Public Key Info:
            Public Key Algorithm: rsaEncryption
                Public-Key: (2048 bit)
                Modulus:
                    00:ca:99:4a:4c:62:25:21:e8:b1:f4:60:f2:a0:b7:
                    f7:50:b2:b0:71:d0:e7:fa:e2:87:e0:d9:fc:d5:64:
                    75:58:a0:ed:49:a2:b2:32:ce:4d:be:4e:55:23:65:
                    07:1d:c2:7e:1b:6f:a8:e5:44:79:57:d5:1c:4c:bd:
                    79:33:1b:03:fe:93:7d:d8:c3:61:59:60:0f:29:b1:
                    c1:71:f5:8a:3d:2a:29:11:59:d2:8a:31:95:87:9c:
                    14:2d:c4:0a:fb:8f:d9:37:75:35:54:5c:2e:00:0d:
                    23:85:1a:3e:3e:45:c8:56:a7:58:6e:92:ee:6a:cd:
                    60:eb:a0:33:f0:5d:f6:00:6b:70:4e:63:fa:61:5f:
                    bd:07:6d:6d:0e:1d:67:89:2a:3b:93:91:15:20:f6:
                    83:0a:82:4d:45:7d:73:e2:ad:f9:b7:06:e2:8b:45:
                    bf:62:ed:d4:14:30:86:1b:a6:1b:8f:1a:63:67:2d:
                    cb:28:5c:79:4f:bb:bf:5c:d4:92:a3:f9:4f:32:47:
                    d1:2b:48:1a:74:f6:92:d0:06:0a:b5:4f:41:24:46:
                    4b:d7:de:7e:53:35:5d:d5:9b:39:2b:71:b5:ee:86:
                    c2:08:ac:ca:f4:0f:05:47:4b:cd:4a:61:da:8d:9f:
                    8f:d6:74:10:28:74:2a:aa:b2:19:97:a6:df:cb:85:
                    2e:51
                Exponent: 65537 (0x10001)
        X509v3 extensions:
            X509v3 Basic Constraints: 
                CA:FALSE
            X509v3 Subject Key Identifier: 
                40:37:2B:68:75:CD:CC:85:22:43:CF:EB:FE:C1:BE:F1:81:CD:33:3A
            X509v3 Authority Key Identifier: 
                keyid:ED:D6:B0:8F:DA:CD:59:69:2B:08:FF:18:E1:BF:CF:31:95:A9:64:8B
                DirName:/CN=team437-net
                serial:05:A3:17:FA:03:15:F1:7E:76:70:7A:2B:0D:DB:84:A5:77:D8:A2:E8
            X509v3 Extended Key Usage: 
                TLS Web Client Authentication
            X509v3 Key Usage: 
                Digital Signature
    Signature Algorithm: sha256WithRSAEncryption
    Signature Value:
        1a:4c:c9:47:bc:ce:cf:76:2d:1b:9b:7a:50:a3:1d:94:96:44:
        ff:86:48:40:2e:55:d0:0c:17:e5:d0:d7:f3:34:7c:2f:48:4b:
        5f:53:3a:47:14:cc:a9:51:88:31:33:c7:f6:28:20:c4:83:92:
        25:00:fd:ca:9a:0a:87:23:a3:2e:97:82:2d:e9:bb:93:2d:b2:
        04:e0:d6:9d:42:c7:b0:c0:88:2b:0f:3f:22:6b:d9:7c:cb:58:
        f3:28:08:e4:53:68:34:61:9c:6c:4e:eb:74:9e:b1:7e:1b:e3:
        79:6b:81:c3:51:88:ec:ef:bc:80:1e:a0:a3:a6:a3:a3:d6:de:
        ae:5f:bc:a4:69:ff:b9:45:1c:cf:ba:04:e9:31:b8:d5:46:99:
        92:c2:80:4b:1c:9a:26:8d:29:13:8a:5d:eb:a9:4b:aa:2e:37:
        3e:ac:71:5d:a8:d5:50:3d:2c:d9:2d:c3:0a:17:bc:37:47:28:
        2f:02:f2:0d:91:4a:33:ce:86:f7:06:36:4d:91:a5:4e:de:81:
        a2:00:5a:15:e6:dc:3a:4c:af:c5:39:e4:b0:0b:8a:83:55:a6:
        c4:78:b9:2f:24:9b:f0:60:43:66:57:02:f1:af:34:90:95:7d:
        a6:2b:02:1f:df:4a:96:7e:b0:f1:07:56:a6:81:a4:de:96:88:
        75:3c:89:76
-----BEGIN CERTIFICATE-----
MIIDXTCCAkWgAwIBAgIRAMxSwGL6N7rBlCW0bBNpjjwwDQYJKoZIhvcNAQELBQAw
FjEUMBIGA1UEAwwLdGVhbTQzNy1uZXQwHhcNMjMxMTA0MTA0ODI5WhcNMjYxMDE5
MTA0ODI5WjAZMRcwFQYDVQQDDA50ZWFtNDM3LWNsaWVudDCCASIwDQYJKoZIhvcN
AQEBBQADggEPADCCAQoCggEBAMqZSkxiJSHosfRg8qC391CysHHQ5/rih+DZ/NVk
dVig7UmisjLOTb5OVSNlBx3CfhtvqOVEeVfVHEy9eTMbA/6TfdjDYVlgDymxwXH1
ij0qKRFZ0ooxlYecFC3ECvuP2Td1NVRcLgANI4UaPj5FyFanWG6S7mrNYOugM/Bd
9gBrcE5j+mFfvQdtbQ4dZ4kqO5ORFSD2gwqCTUV9c+Kt+bcG4otFv2Lt1BQwhhum
G48aY2ctyyhceU+7v1zUkqP5TzJH0StIGnT2ktAGCrVPQSRGS9feflM1XdWbOStx
te6GwgisyvQPBUdLzUph2o2fj9Z0ECh0KqqyGZem38uFLlECAwEAAaOBojCBnzAJ
BgNVHRMEAjAAMB0GA1UdDgQWBBRANytodc3MhSJDz+v+wb7xgc0zOjBRBgNVHSME
SjBIgBTt1rCP2s1ZaSsI/xjhv88xlalki6EapBgwFjEUMBIGA1UEAwwLdGVhbTQz
Ny1uZXSCFAWjF/oDFfF+dnB6Kw3bhKV32KLoMBMGA1UdJQQMMAoGCCsGAQUFBwMC
MAsGA1UdDwQEAwIHgDANBgkqhkiG9w0BAQsFAAOCAQEAGkzJR7zOz3YtG5t6UKMd
lJZE/4ZIQC5V0AwX5dDX8zR8L0hLX1M6RxTMqVGIMTPH9iggxIOSJQD9ypoKhyOj
LpeCLem7ky2yBODWnULHsMCIKw8/ImvZfMtY8ygI5FNoNGGcbE7rdJ6xfhvjeWuB
w1GI7O+8gB6go6ajo9berl+8pGn/uUUcz7oE6TG41UaZksKASxyaJo0pE4pd66lL
qi43PqxxXajVUD0s2S3DChe8N0coLwLyDZFKM86G9wY2TZGlTt6BogBaFebcOkyv
xTnksAuKg1WmxHi5LySb8GBDZlcC8a80kJV9pisCH99Kln6w8QdWpoGk3paIdTyJ
dg==
-----END CERTIFICATE-----
