Certificate:
    Data:
        Version: 3 (0x2)
        Serial Number:
            cd:68:42:59:f2:1c:b8:db:65:f0:93:b8:f1:f9:bc:20
        Signature Algorithm: sha256WithRSAEncryption
        Issuer: CN=team437-net
        Validity
            Not Before: Nov  4 11:37:16 2023 GMT
            Not After : Oct 19 11:37:16 2026 GMT
        Subject: CN=team437-client
        Subject Public Key Info:
            Public Key Algorithm: rsaEncryption
                Public-Key: (2048 bit)
                Modulus:
                    00:a9:86:b0:c1:c1:63:59:4c:b7:c6:7a:a6:b2:f2:
                    a9:da:55:20:bf:4f:5b:ee:c7:b3:6c:3e:6e:bf:38:
                    72:fa:7d:9f:3d:79:99:a1:57:b7:4a:fa:fe:ea:29:
                    e8:1a:68:b2:71:57:47:4a:4e:b7:a1:04:98:36:8e:
                    04:c3:96:61:ed:66:cf:15:68:84:f2:94:07:ed:25:
                    84:6c:7b:2a:0d:77:5d:ea:02:71:fd:95:ed:d3:2f:
                    72:7d:09:f1:f9:41:20:29:db:23:41:6b:a0:48:26:
                    eb:e1:a4:7c:2d:11:0a:5f:e0:ed:16:3d:29:a8:c6:
                    98:7b:0e:cc:a7:04:7a:cc:62:ba:19:88:a4:c0:3d:
                    01:9f:93:60:d2:6d:4a:12:53:18:b3:11:ea:0a:13:
                    ca:ee:17:e5:b2:ba:9b:97:68:d2:d6:b7:a8:99:76:
                    2f:75:63:1b:de:9c:fd:9c:da:42:d6:59:0d:c1:94:
                    dd:54:3d:ac:d0:05:df:17:3e:c3:4f:7a:9b:7c:e7:
                    ac:44:62:6d:97:0c:39:03:f0:7e:42:dc:04:45:30:
                    19:19:61:13:45:d9:7e:c2:d0:b7:52:b6:6f:d7:81:
                    20:32:61:d6:50:12:42:2a:af:e9:2e:c4:58:b8:bd:
                    9a:3e:aa:72:70:1b:ed:e6:4a:7d:f8:a3:ff:93:fb:
                    09:8f
                Exponent: 65537 (0x10001)
        X509v3 extensions:
            X509v3 Basic Constraints: 
                CA:FALSE
            X509v3 Subject Key Identifier: 
                DB:1C:6B:3C:74:5C:A5:6F:D6:A5:8F:E4:85:BC:0F:52:29:CC:B6:96
            X509v3 Authority Key Identifier: 
                keyid:63:78:ED:D7:FC:CF:C1:09:69:09:AB:26:3D:C1:18:3A:B8:63:72:EF
                DirName:/CN=team437-net
                serial:35:B9:DB:7D:EE:5B:BD:C8:D1:39:3F:29:68:E0:D0:E1:8B:03:49:3B
            X509v3 Extended Key Usage: 
                TLS Web Client Authentication
            X509v3 Key Usage: 
                Digital Signature
    Signature Algorithm: sha256WithRSAEncryption
    Signature Value:
        9c:36:78:18:7c:71:d8:6b:ca:fb:d9:e9:fd:05:79:47:cc:8d:
        dc:ff:70:0d:04:b3:b9:f2:60:e3:0d:65:5c:62:44:f0:25:f6:
        00:98:a4:6f:8c:1a:7b:84:33:d5:0a:58:e0:d2:5d:e1:a2:dd:
        da:5b:13:af:49:09:85:b4:4c:e0:db:f1:aa:f7:dd:6d:38:11:
        8f:fd:f7:8f:ee:28:39:30:05:47:cb:5f:59:eb:be:12:17:c7:
        42:a5:31:1e:6e:c2:03:7b:38:10:fa:72:5b:24:90:1b:81:01:
        67:26:8a:63:1e:8a:92:2b:05:f8:d4:e6:55:26:3f:70:a3:4d:
        cd:36:aa:73:f8:0c:26:8b:e9:14:bd:b8:0e:69:ef:c4:e4:52:
        fd:ad:56:7d:bc:d8:d6:d5:33:de:b7:e6:e7:02:13:6b:8b:47:
        9d:6c:54:bd:d4:66:36:5c:18:6a:83:56:7c:9a:7b:dc:6c:c8:
        1b:c7:84:d7:af:4d:69:d1:9d:39:b2:84:e1:6b:01:9e:f4:9d:
        b7:81:d6:4e:e6:8f:b1:5b:ba:a7:f8:fc:85:f4:b3:7b:2b:9b:
        3f:87:31:dc:bd:2d:6a:e2:c6:93:89:00:c6:89:6a:cf:40:6b:
        58:df:a8:6f:aa:f4:59:6b:1a:95:3a:6f:88:d0:5c:2c:47:a8:
        f5:6d:ff:54
-----BEGIN CERTIFICATE-----
MIIDXTCCAkWgAwIBAgIRAM1oQlnyHLjbZfCTuPH5vCAwDQYJKoZIhvcNAQELBQAw
FjEUMBIGA1UEAwwLdGVhbTQzNy1uZXQwHhcNMjMxMTA0MTEzNzE2WhcNMjYxMDE5
MTEzNzE2WjAZMRcwFQYDVQQDDA50ZWFtNDM3LWNsaWVudDCCASIwDQYJKoZIhvcN
AQEBBQADggEPADCCAQoCggEBAKmGsMHBY1lMt8Z6prLyqdpVIL9PW+7Hs2w+br84
cvp9nz15maFXt0r6/uop6BposnFXR0pOt6EEmDaOBMOWYe1mzxVohPKUB+0lhGx7
Kg13XeoCcf2V7dMvcn0J8flBICnbI0FroEgm6+GkfC0RCl/g7RY9KajGmHsOzKcE
esxiuhmIpMA9AZ+TYNJtShJTGLMR6goTyu4X5bK6m5do0ta3qJl2L3VjG96c/Zza
QtZZDcGU3VQ9rNAF3xc+w096m3znrERibZcMOQPwfkLcBEUwGRlhE0XZfsLQt1K2
b9eBIDJh1lASQiqv6S7EWLi9mj6qcnAb7eZKffij/5P7CY8CAwEAAaOBojCBnzAJ
BgNVHRMEAjAAMB0GA1UdDgQWBBTbHGs8dFylb9alj+SFvA9SKcy2ljBRBgNVHSME
SjBIgBRjeO3X/M/BCWkJqyY9wRg6uGNy76EapBgwFjEUMBIGA1UEAwwLdGVhbTQz
Ny1uZXSCFDW5233uW73I0Tk/KWjg0OGLA0k7MBMGA1UdJQQMMAoGCCsGAQUFBwMC
MAsGA1UdDwQEAwIHgDANBgkqhkiG9w0BAQsFAAOCAQEAnDZ4GHxx2GvK+9np/QV5
R8yN3P9wDQSzufJg4w1lXGJE8CX2AJikb4wae4Qz1QpY4NJd4aLd2lsTr0kJhbRM
4NvxqvfdbTgRj/33j+4oOTAFR8tfWeu+EhfHQqUxHm7CA3s4EPpyWySQG4EBZyaK
Yx6KkisF+NTmVSY/cKNNzTaqc/gMJovpFL24DmnvxORS/a1WfbzY1tUz3rfm5wIT
a4tHnWxUvdRmNlwYaoNWfJp73GzIG8eE169NadGdObKE4WsBnvSdt4HWTuaPsVu6
p/j8hfSzeyubP4cx3L0tauLGk4kAxolqz0BrWN+ob6r0WWsalTpviNBcLEeo9W3/
VA==
-----END CERTIFICATE-----
