Certificate:
    Data:
        Version: 3 (0x2)
        Serial Number:
            02:bf:ab:15:48:40:f4:83:21:56:25:de:1b:c3:7b:bb
        Signature Algorithm: sha256WithRSAEncryption
        Issuer: CN=team343-net
        Validity
            Not Before: Nov  4 10:46:53 2023 GMT
            Not After : Oct 19 10:46:53 2026 GMT
        Subject: CN=team343-server
        Subject Public Key Info:
            Public Key Algorithm: rsaEncryption
                Public-Key: (2048 bit)
                Modulus:
                    00:d8:c7:9d:79:37:65:d1:ce:7b:f9:58:c8:f8:f4:
                    7c:d2:74:77:f6:31:69:bd:63:4e:74:f4:cc:da:d4:
                    d5:ee:09:3a:32:3b:2f:78:9e:a2:05:e5:16:62:55:
                    58:3f:c1:e8:44:f6:be:cb:29:5a:64:b9:54:d5:ce:
                    36:c6:1b:e9:52:9a:33:b6:7a:3f:83:7c:84:e8:8b:
                    7a:3e:d7:ac:e9:37:a9:c4:60:ae:6e:6e:9a:cb:9d:
                    b3:7f:b9:15:19:4f:5d:85:66:16:11:ed:3a:dd:0b:
                    a4:70:3f:a9:38:91:57:e2:b5:69:66:ff:de:53:c5:
                    d5:bb:10:45:ae:74:29:2f:d6:4c:00:94:30:a5:d3:
                    94:73:1c:25:dc:8b:30:ea:4d:60:ec:23:84:0d:f2:
                    0d:13:d2:ac:4c:cc:2a:07:71:b3:0b:64:71:12:59:
                    a9:04:82:42:9e:34:c4:d2:23:aa:5e:bd:87:58:1c:
                    9f:75:e6:87:12:48:db:66:73:35:5e:5b:73:0f:6a:
                    5e:a9:24:c4:5c:75:ce:47:bd:85:38:53:04:1d:33:
                    4f:21:7b:ed:c0:ab:ce:8d:c6:bb:b1:2a:c6:ff:7d:
                    cd:94:ff:0a:91:b5:57:b7:be:04:63:07:3e:73:69:
                    e6:52:f8:e3:fd:ec:11:40:fe:d3:59:d3:6a:0b:8d:
                    dc:7d
                Exponent: 65537 (0x10001)
        X509v3 extensions:
            X509v3 Basic Constraints: 
                CA:FALSE
            X509v3 Subject Key Identifier: 
                AD:C5:5C:A0:99:CE:FB:33:5B:99:D2:A3:F2:A4:A2:81:92:37:A4:7F
            X509v3 Authority Key Identifier: 
                keyid:DB:46:97:39:A2:E7:5A:C0:B3:6B:14:70:47:01:14:C1:5E:BD:A1:91
                DirName:/CN=team343-net
                serial:0F:AA:2D:14:55:6E:6C:2D:51:C5:6D:32:FF:1F:02:ED:F5:2E:0F:46
            X509v3 Extended Key Usage: 
                TLS Web Server Authentication
            X509v3 Key Usage: 
                Digital Signature, Key Encipherment
            X509v3 Subject Alternative Name: 
                DNS:team343-server
    Signature Algorithm: sha256WithRSAEncryption
    Signature Value:
        87:6f:8e:74:e0:3b:ee:19:f5:0f:92:e1:59:14:19:a7:45:f3:
        95:c9:09:f8:f9:64:20:6d:d6:0b:bd:e8:b4:92:42:83:b4:8e:
        2b:86:d2:23:84:45:2a:82:bf:3b:70:f3:65:ba:60:6c:55:13:
        e3:26:8b:b4:64:1b:39:7d:46:26:5d:16:a6:03:6f:8f:ce:5a:
        f5:1b:5c:a3:74:70:49:59:69:f7:67:18:57:f4:01:3a:6c:dd:
        ec:27:30:0c:10:32:49:27:7d:d4:c6:2e:a0:78:5d:f4:db:1a:
        da:fc:b3:a7:dc:49:2c:ca:e1:11:c6:db:a0:e4:98:aa:be:86:
        24:3c:91:05:bb:f4:ca:16:96:90:c0:49:d7:4e:95:e5:ff:c6:
        9c:bb:2b:23:20:c3:10:0a:d5:d8:f4:1d:77:ca:20:4c:f8:b2:
        7d:7e:22:c2:be:bd:ca:56:ab:94:23:38:5a:42:55:1e:b8:d0:
        99:c2:fb:7b:75:b2:74:1f:a0:27:75:e1:30:ca:b4:b3:55:ee:
        ec:f7:aa:30:5b:f3:89:d0:5a:18:7d:2a:cb:59:60:e1:53:64:
        80:7c:24:19:e3:ac:63:01:ec:e5:36:af:2a:7c:62:ed:c1:71:
        42:e9:1c:d6:32:45:2a:ad:b9:e5:27:5a:d5:f0:84:f7:5d:0a:
        ed:18:8c:2d
-----BEGIN CERTIFICATE-----
MIIDdzCCAl+gAwIBAgIQAr+rFUhA9IMhViXeG8N7uzANBgkqhkiG9w0BAQsFADAW
MRQwEgYDVQQDDAt0ZWFtMzQzLW5ldDAeFw0yMzExMDQxMDQ2NTNaFw0yNjEwMTkx
MDQ2NTNaMBkxFzAVBgNVBAMMDnRlYW0zNDMtc2VydmVyMIIBIjANBgkqhkiG9w0B
AQEFAAOCAQ8AMIIBCgKCAQEA2MedeTdl0c57+VjI+PR80nR39jFpvWNOdPTM2tTV
7gk6MjsveJ6iBeUWYlVYP8HoRPa+yylaZLlU1c42xhvpUpoztno/g3yE6It6Ptes
6TepxGCubm6ay52zf7kVGU9dhWYWEe063QukcD+pOJFX4rVpZv/eU8XVuxBFrnQp
L9ZMAJQwpdOUcxwl3Isw6k1g7COEDfINE9KsTMwqB3GzC2RxElmpBIJCnjTE0iOq
Xr2HWByfdeaHEkjbZnM1XltzD2peqSTEXHXOR72FOFMEHTNPIXvtwKvOjca7sSrG
/33NlP8KkbVXt74EYwc+c2nmUvjj/ewRQP7TWdNqC43cfQIDAQABo4G9MIG6MAkG
A1UdEwQCMAAwHQYDVR0OBBYEFK3FXKCZzvszW5nSo/KkooGSN6R/MFEGA1UdIwRK
MEiAFNtGlzmi51rAs2sUcEcBFMFevaGRoRqkGDAWMRQwEgYDVQQDDAt0ZWFtMzQz
LW5ldIIUD6otFFVubC1RxW0y/x8C7fUuD0YwEwYDVR0lBAwwCgYIKwYBBQUHAwEw
CwYDVR0PBAQDAgWgMBkGA1UdEQQSMBCCDnRlYW0zNDMtc2VydmVyMA0GCSqGSIb3
DQEBCwUAA4IBAQCHb4504DvuGfUPkuFZFBmnRfOVyQn4+WQgbdYLvei0kkKDtI4r
htIjhEUqgr87cPNlumBsVRPjJou0ZBs5fUYmXRamA2+Pzlr1G1yjdHBJWWn3ZxhX
9AE6bN3sJzAMEDJJJ33Uxi6geF302xra/LOn3EksyuERxtug5JiqvoYkPJEFu/TK
FpaQwEnXTpXl/8acuysjIMMQCtXY9B13yiBM+LJ9fiLCvr3KVquUIzhaQlUeuNCZ
wvt7dbJ0H6AndeEwyrSzVe7s96owW/OJ0FoYfSrLWWDhU2SAfCQZ46xjAezlNq8q
fGLtwXFC6RzWMkUqrbnlJ1rV8IT3XQrtGIwt
-----END CERTIFICATE-----
