Certificate:
    Data:
        Version: 3 (0x2)
        Serial Number:
            76:2c:07:81:19:f4:a2:9c:08:3e:5f:71:c5:1e:a0:3c
        Signature Algorithm: sha256WithRSAEncryption
        Issuer: CN=team343-net
        Validity
            Not Before: Nov  4 10:46:52 2023 GMT
            Not After : Oct 19 10:46:52 2026 GMT
        Subject: CN=team343-client
        Subject Public Key Info:
            Public Key Algorithm: rsaEncryption
                Public-Key: (2048 bit)
                Modulus:
                    00:db:e5:e3:03:42:63:01:2f:80:eb:3b:c6:5c:85:
                    c9:24:d4:73:1e:52:c6:0f:41:05:c6:83:6f:64:36:
                    dc:34:e6:0a:f0:07:e8:b5:fe:32:1b:91:66:a4:c2:
                    56:6b:e2:8f:2a:a2:73:4e:15:46:0c:ef:f2:53:95:
                    ec:0f:ec:f2:37:b6:9c:cf:99:34:04:7d:82:ae:8b:
                    bf:1c:c3:5b:a3:46:10:b8:89:61:97:56:46:ca:37:
                    72:32:bd:aa:23:46:f6:ca:bb:25:aa:f7:f0:2d:c8:
                    2f:4f:25:6d:f9:1f:5a:ce:07:f7:9c:85:5f:f5:24:
                    8a:6d:c8:dc:bb:02:60:9a:73:46:e7:b7:02:77:d1:
                    4f:a0:f1:da:03:fe:64:e3:26:c4:aa:79:37:c0:f9:
                    a0:06:5a:24:16:f1:13:db:60:6c:74:3f:00:46:5d:
                    53:10:42:d9:a0:bf:07:59:30:32:32:f7:74:97:bf:
                    a2:b6:46:25:e6:1a:98:f3:15:cd:83:34:dd:ca:8f:
                    1b:af:db:e3:8f:10:6c:ff:09:b1:92:2b:76:ee:3e:
                    ff:7e:29:62:c1:95:02:20:f6:e0:c8:5c:d5:98:3d:
                    ed:60:db:0c:b9:26:47:c8:93:68:7c:fd:6a:75:dd:
                    67:f5:df:f1:16:c8:bb:d5:47:fe:fd:0e:b5:67:c2:
                    a7:43
                Exponent: 65537 (0x10001)
        X509v3 extensions:
            X509v3 Basic Constraints: 
                CA:FALSE
            X509v3 Subject Key Identifier: 
                17:27:21:88:82:AC:0B:8A:E8:D1:D8:73:ED:6C:3A:20:26:C7:07:E8
            X509v3 Authority Key Identifier: 
                keyid:DB:46:97:39:A2:E7:5A:C0:B3:6B:14:70:47:01:14:C1:5E:BD:A1:91
                DirName:/CN=team343-net
                serial:0F:AA:2D:14:55:6E:6C:2D:51:C5:6D:32:FF:1F:02:ED:F5:2E:0F:46
            X509v3 Extended Key Usage: 
                TLS Web Client Authentication
            X509v3 Key Usage: 
                Digital Signature
    Signature Algorithm: sha256WithRSAEncryption
    Signature Value:
        0b:36:ae:21:ab:eb:bb:99:89:da:62:99:7e:3e:70:95:39:31:
        cd:2c:6b:b3:34:25:9c:70:fe:06:e0:5a:8c:f2:73:8d:d5:b4:
        70:07:c6:1f:a8:c9:d7:5e:50:27:d4:b8:63:b5:20:a2:b2:6d:
        e9:eb:c7:25:5f:5f:34:4f:c2:45:f7:4e:22:9c:99:fd:ee:5e:
        e6:82:e4:6a:e0:65:4c:f9:a1:30:fe:89:f0:48:81:14:ad:47:
        7b:50:a5:b0:d8:0e:56:91:51:75:09:8f:a8:e3:18:1f:4d:fb:
        46:8c:74:0b:45:24:4f:6c:7e:1e:c9:78:24:cc:bc:aa:01:5d:
        01:c2:6d:2b:99:30:28:f0:0c:5f:59:15:88:c6:62:e8:2f:61:
        69:ab:21:08:b2:36:5e:47:eb:44:14:32:80:75:93:a2:a3:db:
        f3:82:16:db:74:f4:cb:76:41:3e:bc:12:45:26:fa:48:99:4f:
        13:d8:f3:6b:10:2b:40:d3:a7:33:32:0f:e5:54:58:31:6f:7e:
        4b:44:38:a6:e7:ec:56:fc:8a:6b:2b:ff:29:b5:e3:8c:b1:74:
        d0:52:c8:c7:e2:04:fc:96:b2:42:11:91:a3:22:b7:a2:4c:80:
        52:c4:30:7f:5a:30:fe:ce:23:e3:c4:95:3a:11:e0:22:c2:e5:
        14:4b:54:24
-----BEGIN CERTIFICATE-----
MIIDXDCCAkSgAwIBAgIQdiwHgRn0opwIPl9xxR6gPDANBgkqhkiG9w0BAQsFADAW
MRQwEgYDVQQDDAt0ZWFtMzQzLW5ldDAeFw0yMzExMDQxMDQ2NTJaFw0yNjEwMTkx
MDQ2NTJaMBkxFzAVBgNVBAMMDnRlYW0zNDMtY2xpZW50MIIBIjANBgkqhkiG9w0B
AQEFAAOCAQ8AMIIBCgKCAQEA2+XjA0JjAS+A6zvGXIXJJNRzHlLGD0EFxoNvZDbc
NOYK8Afotf4yG5FmpMJWa+KPKqJzThVGDO/yU5XsD+zyN7acz5k0BH2Crou/HMNb
o0YQuIlhl1ZGyjdyMr2qI0b2yrslqvfwLcgvTyVt+R9azgf3nIVf9SSKbcjcuwJg
mnNG57cCd9FPoPHaA/5k4ybEqnk3wPmgBlokFvET22BsdD8ARl1TEELZoL8HWTAy
Mvd0l7+itkYl5hqY8xXNgzTdyo8br9vjjxBs/wmxkit27j7/filiwZUCIPbgyFzV
mD3tYNsMuSZHyJNofP1qdd1n9d/xFsi71Uf+/Q61Z8KnQwIDAQABo4GiMIGfMAkG
A1UdEwQCMAAwHQYDVR0OBBYEFBcnIYiCrAuK6NHYc+1sOiAmxwfoMFEGA1UdIwRK
MEiAFNtGlzmi51rAs2sUcEcBFMFevaGRoRqkGDAWMRQwEgYDVQQDDAt0ZWFtMzQz
LW5ldIIUD6otFFVubC1RxW0y/x8C7fUuD0YwEwYDVR0lBAwwCgYIKwYBBQUHAwIw
CwYDVR0PBAQDAgeAMA0GCSqGSIb3DQEBCwUAA4IBAQALNq4hq+u7mYnaYpl+PnCV
OTHNLGuzNCWccP4G4FqM8nON1bRwB8YfqMnXXlAn1LhjtSCism3p68clX180T8JF
904inJn97l7mguRq4GVM+aEw/onwSIEUrUd7UKWw2A5WkVF1CY+o4xgfTftGjHQL
RSRPbH4eyXgkzLyqAV0Bwm0rmTAo8AxfWRWIxmLoL2FpqyEIsjZeR+tEFDKAdZOi
o9vzghbbdPTLdkE+vBJFJvpImU8T2PNrECtA06czMg/lVFgxb35LRDim5+xW/Ipr
K/8pteOMsXTQUsjH4gT8lrJCEZGjIreiTIBSxDB/WjD+ziPjxJU6EeAiwuUUS1Qk
-----END CERTIFICATE-----
