Certificate:
    Data:
        Version: 3 (0x2)
        Serial Number:
            7f:07:af:bc:87:16:fc:c5:b2:db:25:c3:0d:d7:07:3e
        Signature Algorithm: sha256WithRSAEncryption
        Issuer: CN=team343-net
        Validity
            Not Before: Nov  4 11:35:02 2023 GMT
            Not After : Oct 19 11:35:02 2026 GMT
        Subject: CN=team343-server
        Subject Public Key Info:
            Public Key Algorithm: rsaEncryption
                Public-Key: (2048 bit)
                Modulus:
                    00:ad:cb:19:db:ff:fd:67:1f:fb:5d:b6:4d:51:a4:
                    41:e3:72:3d:87:92:58:48:93:6a:6f:93:cf:e4:90:
                    ad:ea:5b:e9:99:ff:6a:c6:11:3d:2d:b3:c0:3d:34:
                    04:70:e3:36:fc:fa:d4:f1:76:3a:04:12:8e:1e:7c:
                    a2:44:7c:ae:b6:ee:9c:49:34:bd:7f:ec:11:19:5a:
                    9c:7e:4c:78:c7:2e:9d:09:5a:ed:d6:3a:13:a2:8a:
                    63:a3:8d:70:16:07:97:f9:27:5a:ff:70:6b:c0:50:
                    a6:05:fd:fb:5b:6a:41:5d:fe:fb:75:8e:9c:09:a9:
                    4a:ad:87:0c:98:2a:ff:a1:2f:01:37:b4:f5:be:49:
                    e4:cc:20:72:92:29:98:a6:44:2a:10:a3:58:43:ab:
                    f1:08:4b:c1:3f:59:8c:33:85:72:ee:62:21:d5:29:
                    39:aa:99:8c:4d:f0:11:b3:60:81:01:f1:9b:28:75:
                    eb:56:8d:90:7e:5d:58:ce:55:1f:79:32:3e:ba:70:
                    77:b3:42:28:01:ce:49:f8:3f:b2:85:10:8e:74:77:
                    eb:0f:70:fa:6f:d9:2d:b8:35:34:48:12:17:94:e1:
                    cd:fc:97:0b:2a:2a:a1:59:35:b5:14:42:68:95:2e:
                    f2:2c:e0:2a:2a:f7:3d:ca:71:f0:74:cc:55:29:f7:
                    8a:73
                Exponent: 65537 (0x10001)
        X509v3 extensions:
            X509v3 Basic Constraints: 
                CA:FALSE
            X509v3 Subject Key Identifier: 
                77:DB:38:83:DD:13:1F:32:27:A1:5C:BF:3B:01:D5:5B:A1:72:DD:79
            X509v3 Authority Key Identifier: 
                keyid:35:F9:4A:9C:98:39:76:CA:BC:F5:40:3A:B3:46:6F:5D:1F:E0:0B:84
                DirName:/CN=team343-net
                serial:71:AB:E7:3F:92:18:96:15:68:1C:59:35:87:3E:70:E1:87:D0:D7:7E
            X509v3 Extended Key Usage: 
                TLS Web Server Authentication
            X509v3 Key Usage: 
                Digital Signature, Key Encipherment
            X509v3 Subject Alternative Name: 
                DNS:team343-server
    Signature Algorithm: sha256WithRSAEncryption
    Signature Value:
        e5:d4:b8:ba:5a:07:15:5e:08:f0:24:d8:2b:50:34:78:33:e9:
        6e:a8:a2:cb:20:ef:3c:1b:d3:f9:fa:da:87:e2:85:3b:3d:6c:
        c4:7a:16:b5:fa:a1:be:c3:83:ce:10:06:97:76:62:dd:28:52:
        9c:0d:ba:25:80:7a:bf:f9:c8:92:04:fb:bc:f7:ea:36:a8:b7:
        fc:6e:4d:2b:45:d4:26:64:19:cd:b2:78:12:e0:4a:e1:ac:93:
        a5:59:8a:b9:d6:db:a8:01:d1:cf:3a:b4:de:73:17:dd:f3:fd:
        d5:49:2e:a9:86:8f:66:4d:ad:41:9a:4d:6d:3e:4b:74:b8:39:
        22:6b:28:13:ca:a8:ad:d0:0c:10:47:94:75:d6:c3:50:4f:17:
        7c:cf:87:76:59:de:44:d2:29:9e:ea:14:d5:5d:fc:97:21:0f:
        f0:7e:08:25:6e:7c:95:4e:78:d6:a1:49:1b:9e:fc:88:57:f2:
        73:99:37:65:76:7d:36:3c:75:d3:d0:f4:62:e3:ef:e5:bf:f1:
        2e:38:b2:85:a0:67:f0:fa:a4:39:af:c8:2e:30:62:56:0c:c2:
        8d:3a:93:a6:7d:1b:e3:d2:b9:4e:4f:d5:d3:31:a8:5c:f8:a3:
        8e:60:7f:d7:cd:00:53:03:09:bb:4d:36:e3:fc:0f:a5:a8:01:
        57:8b:f3:1d
-----BEGIN CERTIFICATE-----
MIIDdzCCAl+gAwIBAgIQfwevvIcW/MWy2yXDDdcHPjANBgkqhkiG9w0BAQsFADAW
MRQwEgYDVQQDDAt0ZWFtMzQzLW5ldDAeFw0yMzExMDQxMTM1MDJaFw0yNjEwMTkx
MTM1MDJaMBkxFzAVBgNVBAMMDnRlYW0zNDMtc2VydmVyMIIBIjANBgkqhkiG9w0B
AQEFAAOCAQ8AMIIBCgKCAQEArcsZ2//9Zx/7XbZNUaRB43I9h5JYSJNqb5PP5JCt
6lvpmf9qxhE9LbPAPTQEcOM2/PrU8XY6BBKOHnyiRHyutu6cSTS9f+wRGVqcfkx4
xy6dCVrt1joToopjo41wFgeX+Sda/3BrwFCmBf37W2pBXf77dY6cCalKrYcMmCr/
oS8BN7T1vknkzCBykimYpkQqEKNYQ6vxCEvBP1mMM4Vy7mIh1Sk5qpmMTfARs2CB
AfGbKHXrVo2Qfl1YzlUfeTI+unB3s0IoAc5J+D+yhRCOdHfrD3D6b9ktuDU0SBIX
lOHN/JcLKiqhWTW1FEJolS7yLOAqKvc9ynHwdMxVKfeKcwIDAQABo4G9MIG6MAkG
A1UdEwQCMAAwHQYDVR0OBBYEFHfbOIPdEx8yJ6FcvzsB1Vuhct15MFEGA1UdIwRK
MEiAFDX5SpyYOXbKvPVAOrNGb10f4AuEoRqkGDAWMRQwEgYDVQQDDAt0ZWFtMzQz
LW5ldIIUcavnP5IYlhVoHFk1hz5w4YfQ134wEwYDVR0lBAwwCgYIKwYBBQUHAwEw
CwYDVR0PBAQDAgWgMBkGA1UdEQQSMBCCDnRlYW0zNDMtc2VydmVyMA0GCSqGSIb3
DQEBCwUAA4IBAQDl1Li6WgcVXgjwJNgrUDR4M+luqKLLIO88G9P5+tqH4oU7PWzE
eha1+qG+w4POEAaXdmLdKFKcDbolgHq/+ciSBPu89+o2qLf8bk0rRdQmZBnNsngS
4ErhrJOlWYq51tuoAdHPOrTecxfd8/3VSS6pho9mTa1Bmk1tPkt0uDkiaygTyqit
0AwQR5R11sNQTxd8z4d2Wd5E0ime6hTVXfyXIQ/wfgglbnyVTnjWoUkbnvyIV/Jz
mTdldn02PHXT0PRi4+/lv/EuOLKFoGfw+qQ5r8guMGJWDMKNOpOmfRvj0rlOT9XT
Mahc+KOOYH/XzQBTAwm7TTbj/A+lqAFXi/Md
-----END CERTIFICATE-----
