Certificate:
    Data:
        Version: 3 (0x2)
        Serial Number:
            a9:a9:8a:e3:98:ef:e9:23:ea:1b:46:de:0f:95:5f
        Signature Algorithm: sha256WithRSAEncryption
        Issuer: CN=team343-net
        Validity
            Not Before: Nov  4 11:35:02 2023 GMT
            Not After : Oct 19 11:35:02 2026 GMT
        Subject: CN=team343-client
        Subject Public Key Info:
            Public Key Algorithm: rsaEncryption
                Public-Key: (2048 bit)
                Modulus:
                    00:bf:e4:45:db:7b:44:6d:13:37:73:fa:8b:c0:f5:
                    27:3b:30:5c:2b:10:00:26:46:08:f0:65:e2:b2:8c:
                    73:40:43:fd:ce:7c:64:ca:f8:5f:42:42:85:70:bc:
                    90:14:cf:c9:29:0a:41:4d:25:28:c2:a5:55:aa:41:
                    99:8f:bb:b7:2e:60:99:f4:c7:23:65:22:b2:44:e8:
                    eb:92:be:ff:ca:7b:f4:42:9e:60:cc:94:58:b1:c6:
                    98:20:ec:be:bc:17:55:d7:4d:81:51:71:53:3c:3b:
                    c4:07:1b:9d:24:76:73:2c:d6:48:fa:5d:2c:c8:88:
                    83:33:5d:ac:6b:59:67:62:14:a2:f4:8c:1b:60:d5:
                    67:cf:ae:81:04:94:fb:24:e6:00:fd:53:fc:40:68:
                    50:5c:50:f7:9b:52:9a:d6:28:7e:ec:43:8d:dd:07:
                    73:38:a6:8b:ec:2a:ae:f8:de:c1:08:86:0a:47:14:
                    22:65:02:c0:54:bf:73:97:a7:ae:1a:b3:9a:a4:62:
                    ba:13:b7:f0:f8:50:7b:48:2d:00:a9:e3:ea:c3:fc:
                    7e:87:be:76:ee:09:9c:eb:76:2b:52:d9:06:1a:c5:
                    41:63:a1:94:7b:a0:e2:e2:87:c9:ea:63:8f:2e:41:
                    88:3a:22:de:4a:44:89:07:09:ba:dc:83:ae:73:eb:
                    9a:b9
                Exponent: 65537 (0x10001)
        X509v3 extensions:
            X509v3 Basic Constraints: 
                CA:FALSE
            X509v3 Subject Key Identifier: 
                6F:C3:D5:0D:70:B9:AC:68:72:FA:3D:A4:77:E1:D2:27:2C:3B:2F:2D
            X509v3 Authority Key Identifier: 
                keyid:35:F9:4A:9C:98:39:76:CA:BC:F5:40:3A:B3:46:6F:5D:1F:E0:0B:84
                DirName:/CN=team343-net
                serial:71:AB:E7:3F:92:18:96:15:68:1C:59:35:87:3E:70:E1:87:D0:D7:7E
            X509v3 Extended Key Usage: 
                TLS Web Client Authentication
            X509v3 Key Usage: 
                Digital Signature
    Signature Algorithm: sha256WithRSAEncryption
    Signature Value:
        47:ea:90:f5:97:9f:aa:c2:16:b8:49:64:40:5f:f5:13:cd:53:
        cd:93:b4:b3:ba:1c:63:24:8e:06:d0:10:39:28:e1:ed:68:a5:
        18:a3:b3:2a:3f:a2:e1:3e:30:e4:0c:84:79:2f:ee:f7:77:a0:
        20:19:56:52:2f:f6:f5:b1:f5:0f:4c:c3:a9:ba:27:63:f6:22:
        ef:08:7c:9c:78:e7:14:28:f5:5f:34:29:8a:13:f2:a3:bc:4c:
        53:56:40:6d:d9:c8:55:a7:5c:e1:c9:e4:51:7e:bf:90:dc:1c:
        f8:de:20:01:09:08:cf:57:16:bf:c4:45:32:68:cc:93:bb:99:
        af:ae:07:ed:02:dd:ce:5e:48:69:23:b1:07:ea:a2:c6:b1:e1:
        29:a5:03:5a:09:01:d9:e1:e3:35:b4:5f:78:7a:8d:ae:49:c8:
        f6:ef:e0:ed:f1:e4:5c:52:cb:19:f0:82:ca:48:62:dd:15:be:
        99:bb:b5:8d:fd:48:14:c7:e5:81:be:cc:10:0d:87:ee:f2:84:
        ad:c7:eb:79:5e:8c:02:40:6f:07:84:ba:59:25:35:d3:90:00:
        17:88:3b:9a:da:b7:db:b9:76:65:86:20:75:c3:a1:7c:b2:f7:
        66:0f:70:f2:46:5b:5b:ec:38:48:58:2d:c2:f7:d1:c3:3f:ab:
        2a:28:a1:0d
-----BEGIN CERTIFICATE-----
MIIDXDCCAkSgAwIBAgIQAKmpiuOY7+kj6htG3g+VXzANBgkqhkiG9w0BAQsFADAW
MRQwEgYDVQQDDAt0ZWFtMzQzLW5ldDAeFw0yMzExMDQxMTM1MDJaFw0yNjEwMTkx
MTM1MDJaMBkxFzAVBgNVBAMMDnRlYW0zNDMtY2xpZW50MIIBIjANBgkqhkiG9w0B
AQEFAAOCAQ8AMIIBCgKCAQEAv+RF23tEbRM3c/qLwPUnOzBcKxAAJkYI8GXisoxz
QEP9znxkyvhfQkKFcLyQFM/JKQpBTSUowqVVqkGZj7u3LmCZ9McjZSKyROjrkr7/
ynv0Qp5gzJRYscaYIOy+vBdV102BUXFTPDvEBxudJHZzLNZI+l0syIiDM12sa1ln
YhSi9IwbYNVnz66BBJT7JOYA/VP8QGhQXFD3m1Ka1ih+7EON3QdzOKaL7Cqu+N7B
CIYKRxQiZQLAVL9zl6euGrOapGK6E7fw+FB7SC0AqePqw/x+h7527gmc63YrUtkG
GsVBY6GUe6Di4ofJ6mOPLkGIOiLeSkSJBwm63IOuc+uauQIDAQABo4GiMIGfMAkG
A1UdEwQCMAAwHQYDVR0OBBYEFG/D1Q1wuaxocvo9pHfh0icsOy8tMFEGA1UdIwRK
MEiAFDX5SpyYOXbKvPVAOrNGb10f4AuEoRqkGDAWMRQwEgYDVQQDDAt0ZWFtMzQz
LW5ldIIUcavnP5IYlhVoHFk1hz5w4YfQ134wEwYDVR0lBAwwCgYIKwYBBQUHAwIw
CwYDVR0PBAQDAgeAMA0GCSqGSIb3DQEBCwUAA4IBAQBH6pD1l5+qwha4SWRAX/UT
zVPNk7SzuhxjJI4G0BA5KOHtaKUYo7MqP6LhPjDkDIR5L+73d6AgGVZSL/b1sfUP
TMOpuidj9iLvCHyceOcUKPVfNCmKE/KjvExTVkBt2chVp1zhyeRRfr+Q3Bz43iAB
CQjPVxa/xEUyaMyTu5mvrgftAt3OXkhpI7EH6qLGseEppQNaCQHZ4eM1tF94eo2u
Scj27+Dt8eRcUssZ8ILKSGLdFb6Zu7WN/UgUx+WBvswQDYfu8oStx+t5XowCQG8H
hLpZJTXTkAAXiDua2rfbuXZlhiB1w6F8svdmD3DyRltb7DhIWC3C99HDP6sqKKEN
-----END CERTIFICATE-----
