Certificate:
    Data:
        Version: 3 (0x2)
        Serial Number:
            59:90:09:91:f2:d0:b6:5f:77:f4:92:14:a1:23:87:22
        Signature Algorithm: sha256WithRSAEncryption
        Issuer: CN=team397-net
        Validity
            Not Before: Nov  4 10:47:48 2023 GMT
            Not After : Oct 19 10:47:48 2026 GMT
        Subject: CN=team397-server
        Subject Public Key Info:
            Public Key Algorithm: rsaEncryption
                Public-Key: (2048 bit)
                Modulus:
                    00:ae:08:d2:ce:36:09:bb:f1:ca:e9:50:80:de:6f:
                    4c:c6:6e:6d:40:f5:a4:9d:f9:d4:2c:9b:9b:5a:77:
                    ec:62:45:ae:1e:f9:d2:b7:62:ae:7d:1a:0e:1b:88:
                    4f:cb:a2:d1:93:b3:4b:26:91:56:dd:74:de:3d:f5:
                    c5:53:ad:ba:3e:0f:0e:8b:c9:64:04:1c:87:c1:6d:
                    88:84:3d:01:1c:2d:2f:d3:04:9d:d8:b3:b2:a5:fa:
                    22:ec:32:10:9b:bf:cc:db:bd:7e:17:03:ba:63:0e:
                    2f:20:b6:30:99:b7:73:4d:49:6a:10:eb:5f:7b:93:
                    ad:73:4e:e8:87:bd:20:49:a9:71:80:f0:1d:53:c0:
                    30:c3:df:ea:bd:f6:0f:7a:49:04:11:a9:46:e9:b7:
                    cb:56:c8:8b:29:14:d7:88:5d:16:e7:07:cd:93:11:
                    d1:ff:49:9e:41:2b:b6:a5:50:93:42:1c:6f:f5:62:
                    a7:db:1a:ba:2c:90:3f:9f:00:46:e5:4a:f4:73:87:
                    af:e5:54:99:f4:07:7c:9e:82:aa:b0:fc:c9:c1:40:
                    fb:73:f2:6e:77:49:d1:a0:a5:0b:e2:0a:df:d5:96:
                    aa:25:66:2d:d1:a8:46:c8:aa:3d:a9:46:2c:63:70:
                    e4:43:d9:32:0b:a3:9d:03:b0:e0:ec:98:8d:ec:30:
                    73:bb
                Exponent: 65537 (0x10001)
        X509v3 extensions:
            X509v3 Basic Constraints: 
                CA:FALSE
            X509v3 Subject Key Identifier: 
                B0:5D:16:03:C1:00:D7:98:0C:60:86:7F:94:27:9A:09:2B:00:70:4C
            X509v3 Authority Key Identifier: 
                keyid:85:F4:E9:66:D7:77:CD:05:ED:10:9E:56:8F:42:FF:02:A5:3B:C5:04
                DirName:/CN=team397-net
                serial:23:D8:31:AE:69:A2:81:5A:9A:E8:CB:1F:DC:55:10:0B:F9:DF:A0:17
            X509v3 Extended Key Usage: 
                TLS Web Server Authentication
            X509v3 Key Usage: 
                Digital Signature, Key Encipherment
            X509v3 Subject Alternative Name: 
                DNS:team397-server
    Signature Algorithm: sha256WithRSAEncryption
    Signature Value:
        49:87:d4:84:b4:22:d1:2e:1b:89:71:59:eb:ca:bc:00:a5:22:
        b4:a8:62:e8:0d:88:6b:03:9d:b1:2a:72:b2:59:73:d3:d3:50:
        7e:ad:4a:cd:b2:71:24:7d:5b:ba:04:de:61:85:1f:53:28:8b:
        af:11:b1:7e:3f:d2:7c:21:16:fc:21:7f:e1:47:52:b0:07:b8:
        12:3d:a4:82:ba:f7:d5:b1:bf:87:8d:8a:12:28:88:19:67:f1:
        23:da:52:84:dc:4c:ab:16:9e:75:69:57:1e:88:f3:23:93:67:
        9a:43:7f:e7:7a:30:05:d6:41:ab:64:c9:42:d2:63:77:be:36:
        87:63:7a:f9:18:f8:8f:6d:75:22:92:32:72:c3:dd:6d:e4:05:
        9b:26:f0:f3:47:9e:6a:24:a7:67:a7:d4:c3:b6:45:36:2f:66:
        d1:52:62:a9:95:00:5a:5b:8e:ab:8b:9d:f8:b4:74:30:05:d2:
        41:95:1f:a6:69:c0:b3:e0:49:16:74:63:c5:03:db:16:6f:fb:
        e6:84:cb:26:63:00:04:6a:6f:03:60:84:8d:3d:1d:e5:90:05:
        95:fc:f2:8f:6c:e4:af:e5:52:53:4c:a7:27:60:e0:2e:84:5a:
        68:a4:9f:e0:b8:a1:48:4a:32:c8:96:8e:b6:5f:b6:fb:b0:21:
        7e:34:03:c8
-----BEGIN CERTIFICATE-----
MIIDdzCCAl+gAwIBAgIQWZAJkfLQtl939JIUoSOHIjANBgkqhkiG9w0BAQsFADAW
MRQwEgYDVQQDDAt0ZWFtMzk3LW5ldDAeFw0yMzExMDQxMDQ3NDhaFw0yNjEwMTkx
MDQ3NDhaMBkxFzAVBgNVBAMMDnRlYW0zOTctc2VydmVyMIIBIjANBgkqhkiG9w0B
AQEFAAOCAQ8AMIIBCgKCAQEArgjSzjYJu/HK6VCA3m9Mxm5tQPWknfnULJubWnfs
YkWuHvnSt2KufRoOG4hPy6LRk7NLJpFW3XTePfXFU626Pg8Oi8lkBByHwW2IhD0B
HC0v0wSd2LOypfoi7DIQm7/M271+FwO6Yw4vILYwmbdzTUlqEOtfe5Otc07oh70g
SalxgPAdU8Aww9/qvfYPekkEEalG6bfLVsiLKRTXiF0W5wfNkxHR/0meQSu2pVCT
Qhxv9WKn2xq6LJA/nwBG5Ur0c4ev5VSZ9Ad8noKqsPzJwUD7c/Jud0nRoKUL4grf
1ZaqJWYt0ahGyKo9qUYsY3DkQ9kyC6OdA7Dg7JiN7DBzuwIDAQABo4G9MIG6MAkG
A1UdEwQCMAAwHQYDVR0OBBYEFLBdFgPBANeYDGCGf5QnmgkrAHBMMFEGA1UdIwRK
MEiAFIX06WbXd80F7RCeVo9C/wKlO8UEoRqkGDAWMRQwEgYDVQQDDAt0ZWFtMzk3
LW5ldIIUI9gxrmmigVqa6Msf3FUQC/nfoBcwEwYDVR0lBAwwCgYIKwYBBQUHAwEw
CwYDVR0PBAQDAgWgMBkGA1UdEQQSMBCCDnRlYW0zOTctc2VydmVyMA0GCSqGSIb3
DQEBCwUAA4IBAQBJh9SEtCLRLhuJcVnryrwApSK0qGLoDYhrA52xKnKyWXPT01B+
rUrNsnEkfVu6BN5hhR9TKIuvEbF+P9J8IRb8IX/hR1KwB7gSPaSCuvfVsb+HjYoS
KIgZZ/Ej2lKE3EyrFp51aVceiPMjk2eaQ3/nejAF1kGrZMlC0mN3vjaHY3r5GPiP
bXUikjJyw91t5AWbJvDzR55qJKdnp9TDtkU2L2bRUmKplQBaW46ri534tHQwBdJB
lR+macCz4EkWdGPFA9sWb/vmhMsmYwAEam8DYISNPR3lkAWV/PKPbOSv5VJTTKcn
YOAuhFpopJ/guKFISjLIlo62X7b7sCF+NAPI
-----END CERTIFICATE-----
