Certificate:
    Data:
        Version: 3 (0x2)
        Serial Number:
            7f:17:a5:5b:81:e2:1d:49:e7:3a:0c:f5:54:77:35:5f
        Signature Algorithm: sha256WithRSAEncryption
        Issuer: CN=team397-net
        Validity
            Not Before: Nov  4 10:47:48 2023 GMT
            Not After : Oct 19 10:47:48 2026 GMT
        Subject: CN=team397-client
        Subject Public Key Info:
            Public Key Algorithm: rsaEncryption
                Public-Key: (2048 bit)
                Modulus:
                    00:ac:6a:12:61:c8:2b:d7:90:2c:01:24:28:b4:0a:
                    b0:cb:52:71:35:93:69:2b:28:31:5d:79:af:80:1b:
                    7e:1f:89:3d:6a:9e:30:29:51:b6:a0:18:73:e6:7d:
                    34:f1:e1:49:0d:65:d8:76:60:71:a0:fe:80:fc:db:
                    74:de:a3:41:80:7e:ee:9a:d4:28:9a:6e:69:0c:33:
                    e7:15:a4:45:e7:a5:2f:ef:fa:73:9b:c6:8f:a9:25:
                    b9:26:f2:7f:82:4f:45:4f:57:9d:a7:1d:59:74:a7:
                    1e:54:dc:41:c9:16:a4:91:e8:1c:63:a4:30:1a:18:
                    a6:49:f7:f0:6c:80:6b:f6:2c:08:37:52:00:82:af:
                    e8:88:cd:d7:62:57:f9:0a:05:bb:53:54:d6:1a:42:
                    81:94:83:a7:1f:29:66:31:cb:6a:24:c5:2f:ae:5f:
                    8b:cb:d1:f1:93:0c:02:82:0a:36:2c:30:69:1f:da:
                    c3:93:54:9c:20:c0:b4:32:97:92:df:bb:74:79:83:
                    ea:08:c3:69:a6:66:19:bd:0d:4c:02:cc:12:be:7a:
                    a8:0c:42:86:83:ea:45:e6:f8:b4:27:44:16:55:70:
                    26:e6:ec:40:f4:c9:2d:d5:1e:cb:4c:4f:d6:46:41:
                    07:aa:dd:f0:37:81:4b:43:4d:e1:b6:09:5d:e1:f9:
                    46:27
                Exponent: 65537 (0x10001)
        X509v3 extensions:
            X509v3 Basic Constraints: 
                CA:FALSE
            X509v3 Subject Key Identifier: 
                C9:C2:3C:F4:76:8E:09:DB:9D:32:6A:AE:E1:89:B4:D2:1A:15:9F:AD
            X509v3 Authority Key Identifier: 
                keyid:85:F4:E9:66:D7:77:CD:05:ED:10:9E:56:8F:42:FF:02:A5:3B:C5:04
                DirName:/CN=team397-net
                serial:23:D8:31:AE:69:A2:81:5A:9A:E8:CB:1F:DC:55:10:0B:F9:DF:A0:17
            X509v3 Extended Key Usage: 
                TLS Web Client Authentication
            X509v3 Key Usage: 
                Digital Signature
    Signature Algorithm: sha256WithRSAEncryption
    Signature Value:
        1a:32:8a:42:50:8d:1e:11:d7:f3:d7:26:61:93:7b:9b:88:25:
        e4:23:16:24:5d:35:f9:07:7f:7f:bb:67:2f:88:b0:f8:45:0d:
        0e:b5:28:9a:b5:60:1f:b2:e7:bd:cb:c7:61:b7:80:cb:72:f0:
        3b:df:5e:96:6b:39:af:ac:01:38:3d:7d:21:6e:da:65:f0:d8:
        af:8b:00:21:e0:2e:08:ed:42:3f:62:24:f5:4f:39:49:60:dc:
        e4:da:11:3d:ff:94:0c:cd:ed:79:84:1f:a5:2d:05:7a:ed:e4:
        cc:fb:d2:47:b9:28:eb:d9:c1:07:7a:15:5f:59:6d:be:ec:15:
        b9:af:6a:37:e1:42:e5:87:a1:9d:a9:b6:db:9a:17:2a:9d:77:
        a3:84:c1:54:2b:45:06:df:4d:7d:6e:cc:31:f4:b8:14:e3:6d:
        dc:0e:99:18:1e:4a:72:39:27:13:c8:38:8a:be:79:70:4c:6a:
        1a:e4:41:94:cd:df:e0:30:d1:2a:2a:8e:8a:17:f0:d3:53:d1:
        bf:02:df:21:0c:4c:ed:6d:1e:f4:7c:3f:76:8d:3c:73:0a:cc:
        d3:f3:c2:af:82:4f:10:f6:6f:1f:34:8b:c5:bb:b0:8e:36:46:
        e7:b0:4f:2d:11:2e:2e:56:9a:29:73:26:09:05:30:03:11:d8:
        f8:44:ca:33
-----BEGIN CERTIFICATE-----
MIIDXDCCAkSgAwIBAgIQfxelW4HiHUnnOgz1VHc1XzANBgkqhkiG9w0BAQsFADAW
MRQwEgYDVQQDDAt0ZWFtMzk3LW5ldDAeFw0yMzExMDQxMDQ3NDhaFw0yNjEwMTkx
MDQ3NDhaMBkxFzAVBgNVBAMMDnRlYW0zOTctY2xpZW50MIIBIjANBgkqhkiG9w0B
AQEFAAOCAQ8AMIIBCgKCAQEArGoSYcgr15AsASQotAqwy1JxNZNpKygxXXmvgBt+
H4k9ap4wKVG2oBhz5n008eFJDWXYdmBxoP6A/Nt03qNBgH7umtQomm5pDDPnFaRF
56Uv7/pzm8aPqSW5JvJ/gk9FT1edpx1ZdKceVNxByRakkegcY6QwGhimSffwbIBr
9iwIN1IAgq/oiM3XYlf5CgW7U1TWGkKBlIOnHylmMctqJMUvrl+Ly9HxkwwCggo2
LDBpH9rDk1ScIMC0MpeS37t0eYPqCMNppmYZvQ1MAswSvnqoDEKGg+pF5vi0J0QW
VXAm5uxA9Mkt1R7LTE/WRkEHqt3wN4FLQ03htgld4flGJwIDAQABo4GiMIGfMAkG
A1UdEwQCMAAwHQYDVR0OBBYEFMnCPPR2jgnbnTJqruGJtNIaFZ+tMFEGA1UdIwRK
MEiAFIX06WbXd80F7RCeVo9C/wKlO8UEoRqkGDAWMRQwEgYDVQQDDAt0ZWFtMzk3
LW5ldIIUI9gxrmmigVqa6Msf3FUQC/nfoBcwEwYDVR0lBAwwCgYIKwYBBQUHAwIw
CwYDVR0PBAQDAgeAMA0GCSqGSIb3DQEBCwUAA4IBAQAaMopCUI0eEdfz1yZhk3ub
iCXkIxYkXTX5B39/u2cviLD4RQ0OtSiatWAfsue9y8dht4DLcvA7316WazmvrAE4
PX0hbtpl8NiviwAh4C4I7UI/YiT1TzlJYNzk2hE9/5QMze15hB+lLQV67eTM+9JH
uSjr2cEHehVfWW2+7BW5r2o34ULlh6GdqbbbmhcqnXejhMFUK0UG3019bswx9LgU
423cDpkYHkpyOScTyDiKvnlwTGoa5EGUzd/gMNEqKo6KF/DTU9G/At8hDEztbR70
fD92jTxzCszT88Kvgk8Q9m8fNIvFu7CONkbnsE8tES4uVpopcyYJBTADEdj4RMoz
-----END CERTIFICATE-----
