Certificate:
    Data:
        Version: 3 (0x2)
        Serial Number:
            b6:81:b0:16:f0:05:93:13:90:48:32:31:0f:20:cf:77
        Signature Algorithm: sha256WithRSAEncryption
        Issuer: CN=team397-net
        Validity
            Not Before: Nov  4 11:36:26 2023 GMT
            Not After : Oct 19 11:36:26 2026 GMT
        Subject: CN=team397-server
        Subject Public Key Info:
            Public Key Algorithm: rsaEncryption
                Public-Key: (2048 bit)
                Modulus:
                    00:ae:a1:e6:b4:55:ac:23:47:ce:b5:d9:62:3b:85:
                    ab:ec:56:50:c2:56:5b:cc:20:5b:50:e5:a6:6b:d0:
                    5c:4b:db:39:08:e9:5b:35:8e:6f:ec:60:11:53:45:
                    18:7a:95:71:86:e8:f1:d4:91:0a:08:83:5a:92:82:
                    cd:e6:11:d8:60:01:df:64:75:21:93:e5:bc:35:89:
                    ca:c8:fc:64:cd:3d:0a:a1:b9:7a:7c:83:8b:3c:8b:
                    6b:71:6b:22:70:b5:c1:62:f6:2e:cc:21:39:7f:da:
                    8a:72:46:65:af:56:3f:45:2e:93:d2:c9:60:69:54:
                    bb:e0:43:e1:f6:88:83:69:9d:44:a3:a1:f5:cb:4f:
                    a9:f8:66:fa:fe:1f:82:f5:76:a5:b1:25:db:7b:bf:
                    77:4b:6e:35:75:e3:03:0d:b9:ae:42:10:16:66:f1:
                    a6:36:2d:be:7a:c1:68:aa:86:83:6c:db:16:a4:3e:
                    07:25:0c:5e:be:95:bb:d3:25:01:a7:ae:2a:72:e3:
                    f5:df:11:86:0e:96:72:9a:7c:f5:e7:b2:47:df:60:
                    a6:d0:2c:cc:a1:6e:2c:70:eb:5f:3a:6e:76:ca:95:
                    48:90:d6:97:b5:e9:e8:c8:3c:70:73:73:61:19:41:
                    6b:c4:7d:8f:70:64:99:59:a8:74:b2:fa:11:6f:84:
                    4f:17
                Exponent: 65537 (0x10001)
        X509v3 extensions:
            X509v3 Basic Constraints: 
                CA:FALSE
            X509v3 Subject Key Identifier: 
                73:9F:57:E0:16:F2:59:2D:72:32:62:33:3E:87:85:34:12:A1:3C:B2
            X509v3 Authority Key Identifier: 
                keyid:F0:7D:CB:07:ED:CA:78:86:6D:22:4E:13:4F:2B:C0:ED:F6:1B:3A:7D
                DirName:/CN=team397-net
                serial:23:2B:4D:7F:DE:7A:43:36:DB:B1:31:88:3D:5B:9B:84:48:F0:83:E0
            X509v3 Extended Key Usage: 
                TLS Web Server Authentication
            X509v3 Key Usage: 
                Digital Signature, Key Encipherment
            X509v3 Subject Alternative Name: 
                DNS:team397-server
    Signature Algorithm: sha256WithRSAEncryption
    Signature Value:
        79:f4:b6:7d:ba:bc:99:c1:8e:99:f6:98:45:f5:7b:8f:73:44:
        a8:15:9c:a5:3a:31:8d:cb:e5:07:f4:22:7f:25:57:cb:f3:46:
        9b:48:87:e1:63:93:4c:b5:9e:8a:9b:d4:e6:33:cd:94:46:6f:
        27:ad:0e:13:72:05:93:ea:c1:59:68:be:46:ce:ca:c2:52:02:
        d8:96:77:1c:e4:0c:3e:8f:73:af:94:8e:fc:ee:6b:5e:94:d7:
        10:cf:ca:4e:f7:0a:be:d7:7c:f9:8d:4f:74:c4:6f:1c:f9:d5:
        20:6b:b3:06:06:01:84:10:8c:ff:b1:08:62:d9:29:5e:e3:3a:
        a7:be:ad:12:3a:59:a5:3f:d8:56:d6:9f:96:17:6d:58:54:c6:
        55:5c:a9:3c:cf:64:0a:e5:34:19:d4:05:70:a4:6d:92:40:fe:
        98:4d:bd:62:0b:ff:41:73:67:c8:be:7a:e5:a3:8b:02:fb:6d:
        0f:8b:28:a0:23:74:06:32:6d:5a:67:98:ee:30:da:91:86:d7:
        45:21:f0:15:4b:01:d0:7d:f4:fd:00:f3:5d:cd:3b:bb:b5:f8:
        c1:68:1a:60:ea:ba:af:cd:4b:56:5e:11:c1:82:10:3b:bf:f5:
        df:a3:80:0e:33:63:fa:8d:d2:a1:60:81:84:be:c5:45:51:7b:
        95:74:e7:7b
-----BEGIN CERTIFICATE-----
MIIDeDCCAmCgAwIBAgIRALaBsBbwBZMTkEgyMQ8gz3cwDQYJKoZIhvcNAQELBQAw
FjEUMBIGA1UEAwwLdGVhbTM5Ny1uZXQwHhcNMjMxMTA0MTEzNjI2WhcNMjYxMDE5
MTEzNjI2WjAZMRcwFQYDVQQDDA50ZWFtMzk3LXNlcnZlcjCCASIwDQYJKoZIhvcN
AQEBBQADggEPADCCAQoCggEBAK6h5rRVrCNHzrXZYjuFq+xWUMJWW8wgW1DlpmvQ
XEvbOQjpWzWOb+xgEVNFGHqVcYbo8dSRCgiDWpKCzeYR2GAB32R1IZPlvDWJysj8
ZM09CqG5enyDizyLa3FrInC1wWL2LswhOX/ainJGZa9WP0Uuk9LJYGlUu+BD4faI
g2mdRKOh9ctPqfhm+v4fgvV2pbEl23u/d0tuNXXjAw25rkIQFmbxpjYtvnrBaKqG
g2zbFqQ+ByUMXr6Vu9MlAaeuKnLj9d8Rhg6Wcpp89eeyR99gptAszKFuLHDrXzpu
dsqVSJDWl7Xp6Mg8cHNzYRlBa8R9j3BkmVmodLL6EW+ETxcCAwEAAaOBvTCBujAJ
BgNVHRMEAjAAMB0GA1UdDgQWBBRzn1fgFvJZLXIyYjM+h4U0EqE8sjBRBgNVHSME
SjBIgBTwfcsH7cp4hm0iThNPK8Dt9hs6faEapBgwFjEUMBIGA1UEAwwLdGVhbTM5
Ny1uZXSCFCMrTX/eekM227ExiD1bm4RI8IPgMBMGA1UdJQQMMAoGCCsGAQUFBwMB
MAsGA1UdDwQEAwIFoDAZBgNVHREEEjAQgg50ZWFtMzk3LXNlcnZlcjANBgkqhkiG
9w0BAQsFAAOCAQEAefS2fbq8mcGOmfaYRfV7j3NEqBWcpToxjcvlB/QifyVXy/NG
m0iH4WOTTLWeipvU5jPNlEZvJ60OE3IFk+rBWWi+Rs7KwlIC2JZ3HOQMPo9zr5SO
/O5rXpTXEM/KTvcKvtd8+Y1PdMRvHPnVIGuzBgYBhBCM/7EIYtkpXuM6p76tEjpZ
pT/YVtaflhdtWFTGVVypPM9kCuU0GdQFcKRtkkD+mE29Ygv/QXNnyL565aOLAvtt
D4sooCN0BjJtWmeY7jDakYbXRSHwFUsB0H30/QDzXc07u7X4wWgaYOq6r81LVl4R
wYIQO7/136OADjNj+o3SoWCBhL7FRVF7lXTnew==
-----END CERTIFICATE-----
