Certificate:
    Data:
        Version: 3 (0x2)
        Serial Number:
            ff:76:ca:1e:58:4a:e2:16:b8:cc:a2:df:64:3d:f0:ca
        Signature Algorithm: sha256WithRSAEncryption
        Issuer: CN=team397-net
        Validity
            Not Before: Nov  4 11:36:26 2023 GMT
            Not After : Oct 19 11:36:26 2026 GMT
        Subject: CN=team397-client
        Subject Public Key Info:
            Public Key Algorithm: rsaEncryption
                Public-Key: (2048 bit)
                Modulus:
                    00:9f:f9:0a:bc:52:98:9d:ef:b9:36:be:80:89:e4:
                    35:2d:04:06:2c:08:bf:21:c3:1a:5c:80:33:4b:76:
                    13:17:d2:1e:41:d4:d1:10:3f:cc:d8:05:c1:de:0b:
                    ff:53:2f:55:21:85:96:94:14:63:e7:a2:68:df:f9:
                    23:e6:01:34:f8:29:e0:b2:c8:af:34:31:db:9f:6d:
                    3a:a4:f9:a6:1b:0c:36:02:14:44:8a:c8:fd:36:96:
                    91:cb:fe:45:c4:b1:ce:2e:f2:07:97:6b:e1:f9:6c:
                    9a:25:9c:2a:98:61:c0:27:f0:71:3f:37:1c:25:6a:
                    9b:ae:11:c1:76:16:a7:3f:82:0c:e2:54:79:eb:dc:
                    87:1e:4e:e5:de:62:e6:b0:54:b7:69:f2:88:aa:11:
                    2e:7c:6b:65:75:b0:e1:42:44:5f:9a:ba:81:08:37:
                    1a:e6:17:2a:cf:26:17:02:fd:c6:49:a3:14:7f:a7:
                    91:b3:8c:ba:48:8a:8b:e8:e7:ed:04:cf:67:6f:3c:
                    16:ea:17:f0:c5:f4:a8:c7:43:2a:f5:50:e8:a7:83:
                    37:bf:8b:dc:e9:5b:c3:c8:ab:a0:05:58:8e:52:50:
                    66:1b:bf:bb:1c:46:13:e9:53:4a:19:87:1b:0d:57:
                    97:6f:23:79:ae:84:47:36:dd:c2:e8:9d:ab:1b:13:
                    b7:0b
                Exponent: 65537 (0x10001)
        X509v3 extensions:
            X509v3 Basic Constraints: 
                CA:FALSE
            X509v3 Subject Key Identifier: 
                7E:52:F0:94:34:45:73:3B:4D:4A:02:1D:42:53:9D:99:05:1B:BE:C2
            X509v3 Authority Key Identifier: 
                keyid:F0:7D:CB:07:ED:CA:78:86:6D:22:4E:13:4F:2B:C0:ED:F6:1B:3A:7D
                DirName:/CN=team397-net
                serial:23:2B:4D:7F:DE:7A:43:36:DB:B1:31:88:3D:5B:9B:84:48:F0:83:E0
            X509v3 Extended Key Usage: 
                TLS Web Client Authentication
            X509v3 Key Usage: 
                Digital Signature
    Signature Algorithm: sha256WithRSAEncryption
    Signature Value:
        42:b3:4d:40:90:aa:bb:1f:e5:cc:b5:a3:e7:2a:ac:4e:45:1b:
        21:8f:03:74:5d:6e:83:a9:5f:ed:a5:32:9e:d6:f9:96:51:84:
        7b:f4:6b:ba:6f:61:14:2e:cd:37:96:31:85:13:d4:49:66:a0:
        e4:2e:f8:30:85:44:9b:74:45:68:74:a3:58:0f:59:91:0a:ad:
        92:2d:3f:05:e2:c5:9e:6f:92:1c:f0:28:a6:42:f5:e8:96:28:
        47:4a:2b:65:13:ee:ad:b1:16:04:3f:ff:4a:47:aa:e1:d1:99:
        fe:b8:ae:1c:82:d9:97:e7:b7:8a:75:41:9d:59:79:fc:7c:04:
        da:2b:e2:5b:96:2b:07:17:34:4a:b9:af:62:01:df:43:8e:57:
        29:bc:4a:02:ab:c0:0d:73:83:e6:ef:59:45:75:1e:61:f8:dc:
        f3:7a:da:97:3f:95:6e:cf:af:a5:54:fc:42:56:4a:db:7e:fc:
        4e:33:9c:9d:c4:c5:20:58:ea:e5:20:12:10:e3:36:a0:2c:3f:
        cc:81:19:5b:03:aa:d8:64:b6:c2:9d:a4:5c:e9:00:2d:3d:bf:
        b6:69:f6:7f:8f:20:33:47:4b:c8:51:dd:e5:11:69:a8:ac:cb:
        72:8e:ab:8d:1c:5a:19:19:7b:92:f2:c5:58:a7:3f:11:4d:56:
        10:1d:f3:ba
-----BEGIN CERTIFICATE-----
MIIDXTCCAkWgAwIBAgIRAP92yh5YSuIWuMyi32Q98MowDQYJKoZIhvcNAQELBQAw
FjEUMBIGA1UEAwwLdGVhbTM5Ny1uZXQwHhcNMjMxMTA0MTEzNjI2WhcNMjYxMDE5
MTEzNjI2WjAZMRcwFQYDVQQDDA50ZWFtMzk3LWNsaWVudDCCASIwDQYJKoZIhvcN
AQEBBQADggEPADCCAQoCggEBAJ/5CrxSmJ3vuTa+gInkNS0EBiwIvyHDGlyAM0t2
ExfSHkHU0RA/zNgFwd4L/1MvVSGFlpQUY+eiaN/5I+YBNPgp4LLIrzQx259tOqT5
phsMNgIURIrI/TaWkcv+RcSxzi7yB5dr4flsmiWcKphhwCfwcT83HCVqm64RwXYW
pz+CDOJUeevchx5O5d5i5rBUt2nyiKoRLnxrZXWw4UJEX5q6gQg3GuYXKs8mFwL9
xkmjFH+nkbOMukiKi+jn7QTPZ288FuoX8MX0qMdDKvVQ6KeDN7+L3Olbw8iroAVY
jlJQZhu/uxxGE+lTShmHGw1Xl28jea6ERzbdwuidqxsTtwsCAwEAAaOBojCBnzAJ
BgNVHRMEAjAAMB0GA1UdDgQWBBR+UvCUNEVzO01KAh1CU52ZBRu+wjBRBgNVHSME
SjBIgBTwfcsH7cp4hm0iThNPK8Dt9hs6faEapBgwFjEUMBIGA1UEAwwLdGVhbTM5
Ny1uZXSCFCMrTX/eekM227ExiD1bm4RI8IPgMBMGA1UdJQQMMAoGCCsGAQUFBwMC
MAsGA1UdDwQEAwIHgDANBgkqhkiG9w0BAQsFAAOCAQEAQrNNQJCqux/lzLWj5yqs
TkUbIY8DdF1ug6lf7aUyntb5llGEe/Rrum9hFC7NN5YxhRPUSWag5C74MIVEm3RF
aHSjWA9ZkQqtki0/BeLFnm+SHPAopkL16JYoR0orZRPurbEWBD//Skeq4dGZ/riu
HILZl+e3inVBnVl5/HwE2iviW5YrBxc0SrmvYgHfQ45XKbxKAqvADXOD5u9ZRXUe
Yfjc83ralz+Vbs+vpVT8QlZK2378TjOcncTFIFjq5SASEOM2oCw/zIEZWwOq2GS2
wp2kXOkALT2/tmn2f48gM0dLyFHd5RFpqKzLco6rjRxaGRl7kvLFWKc/EU1WEB3z
ug==
-----END CERTIFICATE-----
