Certificate:
    Data:
        Version: 3 (0x2)
        Serial Number:
            21:6d:f5:6e:c3:87:d9:ea:0e:2a:38:b9:9b:c8:48:2a
        Signature Algorithm: sha256WithRSAEncryption
        Issuer: CN=team469-net
        Validity
            Not Before: Nov  4 11:38:08 2023 GMT
            Not After : Oct 19 11:38:08 2026 GMT
        Subject: CN=team469-client
        Subject Public Key Info:
            Public Key Algorithm: rsaEncryption
                Public-Key: (2048 bit)
                Modulus:
                    00:c7:4d:4d:a6:c6:6c:b3:0c:eb:ad:ac:84:1b:d9:
                    44:9b:50:ee:6f:41:b1:1c:6d:d7:7b:77:02:0a:2a:
                    1a:df:0e:8b:83:ab:f4:6d:af:87:3c:64:a7:fd:f7:
                    e0:38:4b:f8:2f:46:10:08:6f:86:1a:4f:d7:63:5c:
                    35:8e:d3:ef:fb:a3:8b:24:63:25:98:8b:c6:66:93:
                    c2:f6:d6:5e:83:51:02:bd:a2:c6:91:cc:8e:a9:8d:
                    95:b5:09:ba:61:5b:e8:81:8f:1a:21:4c:cc:40:91:
                    f1:f0:32:52:3d:d0:9a:09:f7:1b:11:d2:24:e0:63:
                    b5:64:df:f1:2b:de:58:c7:1a:03:a1:8c:b4:75:1f:
                    69:64:2a:22:cb:55:ba:89:6d:d6:9b:e4:76:4b:a3:
                    3e:a8:f9:39:02:f0:cf:cd:35:b2:e1:73:40:4e:eb:
                    2a:a6:13:1d:2c:09:56:16:10:16:7c:3a:97:25:c6:
                    71:71:47:3e:32:8d:02:87:15:9b:00:d1:e8:74:10:
                    f7:c9:4f:c3:1f:6d:5b:89:2b:85:3b:6c:43:d3:8a:
                    56:e2:66:e9:a3:8d:57:c7:76:87:10:2f:77:6e:6c:
                    a5:ad:a7:b9:70:a2:f3:dc:7f:39:3e:7c:b5:7f:78:
                    3b:1e:45:35:cf:b0:71:80:6a:54:aa:d1:d1:1a:ae:
                    c4:55
                Exponent: 65537 (0x10001)
        X509v3 extensions:
            X509v3 Basic Constraints: 
                CA:FALSE
            X509v3 Subject Key Identifier: 
                03:6B:7B:A8:80:87:46:0E:C8:51:45:9B:99:67:07:6D:77:1F:F5:80
            X509v3 Authority Key Identifier: 
                keyid:28:C3:62:58:99:8C:ED:C5:ED:D2:5B:A4:26:44:F7:01:FE:AA:7F:A8
                DirName:/CN=team469-net
                serial:7B:3A:D4:1F:89:F6:4E:65:22:33:26:B1:20:C8:95:1A:C8:50:FB:B8
            X509v3 Extended Key Usage: 
                TLS Web Client Authentication
            X509v3 Key Usage: 
                Digital Signature
    Signature Algorithm: sha256WithRSAEncryption
    Signature Value:
        53:d2:8d:01:3a:41:43:86:6b:a5:4e:17:8f:e5:c3:8a:e3:42:
        be:89:d7:41:1e:ad:c5:4d:5c:62:97:86:1c:87:74:79:6c:7a:
        14:9d:0e:a2:b1:22:12:b6:89:01:8b:57:1f:0b:2e:f5:a5:ee:
        1a:4f:75:0f:02:9d:7a:bd:c7:91:f7:76:a8:8c:c8:1f:7e:b5:
        99:2d:a6:b3:11:90:e4:86:c9:37:57:6b:d3:20:f9:00:e0:34:
        2b:ea:b0:20:4b:f0:10:95:68:f6:1a:46:5b:d6:55:85:e2:d6:
        e9:54:77:bf:54:2e:5c:41:17:b4:fd:ff:47:a7:71:0b:31:fa:
        a3:cc:34:13:f3:0d:7e:16:9d:f8:87:70:f2:4b:fc:be:da:f7:
        2f:5a:4f:93:9c:36:a5:15:f2:c6:e5:55:c9:2d:53:b9:71:8b:
        9d:25:74:eb:9c:da:05:7c:e4:8c:25:70:42:ad:5e:4e:c5:a9:
        45:7e:44:b3:65:bf:e7:a9:89:ab:99:99:59:f9:66:ee:9a:e1:
        1c:7b:b4:cf:d0:ae:c0:eb:5a:84:d3:37:3e:82:c8:d7:e9:81:
        18:d1:4a:b0:1f:a3:76:10:65:73:91:4d:56:75:72:05:57:d9:
        0c:3e:bb:fb:a9:00:fb:21:94:14:8d:cd:b1:2e:ab:47:5b:33:
        a0:7c:62:13
-----BEGIN CERTIFICATE-----
MIIDXDCCAkSgAwIBAgIQIW31bsOH2eoOKji5m8hIKjANBgkqhkiG9w0BAQsFADAW
MRQwEgYDVQQDDAt0ZWFtNDY5LW5ldDAeFw0yMzExMDQxMTM4MDhaFw0yNjEwMTkx
MTM4MDhaMBkxFzAVBgNVBAMMDnRlYW00NjktY2xpZW50MIIBIjANBgkqhkiG9w0B
AQEFAAOCAQ8AMIIBCgKCAQEAx01NpsZsswzrrayEG9lEm1Dub0GxHG3Xe3cCCioa
3w6Lg6v0ba+HPGSn/ffgOEv4L0YQCG+GGk/XY1w1jtPv+6OLJGMlmIvGZpPC9tZe
g1ECvaLGkcyOqY2VtQm6YVvogY8aIUzMQJHx8DJSPdCaCfcbEdIk4GO1ZN/xK95Y
xxoDoYy0dR9pZCoiy1W6iW3Wm+R2S6M+qPk5AvDPzTWy4XNATusqphMdLAlWFhAW
fDqXJcZxcUc+Mo0ChxWbANHodBD3yU/DH21biSuFO2xD04pW4mbpo41Xx3aHEC93
bmylrae5cKLz3H85Pny1f3g7HkU1z7BxgGpUqtHRGq7EVQIDAQABo4GiMIGfMAkG
A1UdEwQCMAAwHQYDVR0OBBYEFANre6iAh0YOyFFFm5lnB213H/WAMFEGA1UdIwRK
MEiAFCjDYliZjO3F7dJbpCZE9wH+qn+ooRqkGDAWMRQwEgYDVQQDDAt0ZWFtNDY5
LW5ldIIUezrUH4n2TmUiMyaxIMiVGshQ+7gwEwYDVR0lBAwwCgYIKwYBBQUHAwIw
CwYDVR0PBAQDAgeAMA0GCSqGSIb3DQEBCwUAA4IBAQBT0o0BOkFDhmulTheP5cOK
40K+iddBHq3FTVxil4Ych3R5bHoUnQ6isSIStokBi1cfCy71pe4aT3UPAp16vceR
93aojMgffrWZLaazEZDkhsk3V2vTIPkA4DQr6rAgS/AQlWj2GkZb1lWF4tbpVHe/
VC5cQRe0/f9Hp3ELMfqjzDQT8w1+Fp34h3DyS/y+2vcvWk+TnDalFfLG5VXJLVO5
cYudJXTrnNoFfOSMJXBCrV5OxalFfkSzZb/nqYmrmZlZ+WbumuEce7TP0K7A61qE
0zc+gsjX6YEY0UqwH6N2EGVzkU1WdXIFV9kMPrv7qQD7IZQUjc2xLqtHWzOgfGIT
-----END CERTIFICATE-----
