Certificate:
    Data:
        Version: 3 (0x2)
        Serial Number:
            2b:b6:9d:67:41:09:52:dc:ea:7a:b2:e7:ca:69:59:47
        Signature Algorithm: sha256WithRSAEncryption
        Issuer: CN=team469-net
        Validity
            Not Before: Nov  4 10:48:56 2023 GMT
            Not After : Oct 19 10:48:56 2026 GMT
        Subject: CN=team469-server
        Subject Public Key Info:
            Public Key Algorithm: rsaEncryption
                Public-Key: (2048 bit)
                Modulus:
                    00:ae:2e:c5:b7:d3:4f:f5:c4:f0:4c:f8:0a:f7:da:
                    05:c9:23:bf:f5:78:34:24:fe:25:5f:41:37:c6:57:
                    d6:9c:06:38:6b:ef:38:e3:fc:42:d9:24:fe:b8:d9:
                    e1:b0:6b:20:6c:f5:b5:a1:58:5f:e3:ed:0f:ec:18:
                    8e:06:94:39:59:b4:74:70:05:37:00:07:d3:d1:c0:
                    ec:f3:43:b9:32:03:b2:6b:59:22:75:09:10:04:34:
                    dc:ec:7c:35:61:77:68:0f:42:03:b8:41:07:a2:e7:
                    92:2f:e8:fe:d2:89:8a:06:b9:65:a1:a9:20:7b:5c:
                    2f:94:0c:0b:c5:86:c2:16:b7:b9:ed:a8:15:cd:87:
                    c7:82:e9:f2:f5:33:80:40:c4:c6:c9:98:10:90:e6:
                    19:6a:f6:61:61:f2:1a:93:45:f8:9a:02:61:ae:1c:
                    ee:d9:42:07:8f:b6:14:a1:a1:d9:ba:bb:34:0c:e8:
                    5e:8e:4e:9c:f4:0f:bd:b4:ef:b8:20:c5:56:f8:e3:
                    0a:0f:99:3a:8e:f4:77:6c:d9:03:3a:f9:e2:24:55:
                    82:bd:ab:57:a5:54:30:29:ba:48:2b:1f:e5:7c:4f:
                    37:4b:cd:09:5c:50:93:08:f5:85:2a:27:98:40:17:
                    f4:e2:c8:85:0e:60:89:6c:2c:4b:b3:20:c1:52:84:
                    cd:77
                Exponent: 65537 (0x10001)
        X509v3 extensions:
            X509v3 Basic Constraints: 
                CA:FALSE
            X509v3 Subject Key Identifier: 
                56:FF:8B:10:5F:D4:BB:6F:B4:0C:35:81:72:FD:6C:A3:B1:0C:09:BA
            X509v3 Authority Key Identifier: 
                keyid:00:70:31:0C:DA:84:F5:42:7C:21:EC:44:6E:2E:56:23:B7:D2:2C:59
                DirName:/CN=team469-net
                serial:51:46:68:5A:0D:B0:38:F3:02:98:42:64:AD:29:36:89:83:6D:84:49
            X509v3 Extended Key Usage: 
                TLS Web Server Authentication
            X509v3 Key Usage: 
                Digital Signature, Key Encipherment
            X509v3 Subject Alternative Name: 
                DNS:team469-server
    Signature Algorithm: sha256WithRSAEncryption
    Signature Value:
        5b:0e:12:09:5a:71:73:b1:e3:af:e4:09:17:29:41:b2:01:e0:
        5d:fe:b2:d7:8f:86:9b:0c:a0:5d:eb:5c:8a:17:a5:fe:e9:d5:
        e7:28:bb:fb:28:0b:bc:ef:c0:93:ca:98:68:c5:09:46:40:34:
        26:5e:3e:e9:71:dc:ee:18:f0:56:17:62:37:63:f3:e9:92:14:
        9d:34:ea:db:bd:92:19:85:e9:60:70:9f:e2:5a:40:59:85:06:
        17:74:3c:a6:12:7e:28:9f:92:f0:83:e9:a2:7a:88:3c:e7:8d:
        a5:6c:79:38:2b:c7:52:4c:95:c3:e5:d1:40:8f:9f:d4:66:d9:
        c4:c3:ae:c8:85:80:5f:8e:3b:ba:f2:fa:6f:ff:9b:0d:7d:40:
        e2:b1:44:64:cc:3c:87:c7:d6:a2:22:0e:e9:cb:0b:65:1d:4d:
        8b:17:21:df:a7:36:c6:2f:26:83:ef:0f:27:4c:76:e1:c7:e3:
        fc:98:e2:ee:ed:5f:8c:a3:fe:10:9e:8f:7a:18:95:e1:89:a5:
        71:f1:ec:35:14:3d:f8:c0:3c:63:da:b5:86:55:90:5a:38:1b:
        80:05:ae:15:14:cd:68:e0:56:d3:0f:08:09:c3:a8:f1:9b:0a:
        e8:90:8f:a8:cd:6d:e9:3c:e0:62:9f:62:76:76:9c:88:a6:be:
        1d:86:fd:57
-----BEGIN CERTIFICATE-----
MIIDdzCCAl+gAwIBAgIQK7adZ0EJUtzqerLnymlZRzANBgkqhkiG9w0BAQsFADAW
MRQwEgYDVQQDDAt0ZWFtNDY5LW5ldDAeFw0yMzExMDQxMDQ4NTZaFw0yNjEwMTkx
MDQ4NTZaMBkxFzAVBgNVBAMMDnRlYW00Njktc2VydmVyMIIBIjANBgkqhkiG9w0B
AQEFAAOCAQ8AMIIBCgKCAQEAri7Ft9NP9cTwTPgK99oFySO/9Xg0JP4lX0E3xlfW
nAY4a+844/xC2ST+uNnhsGsgbPW1oVhf4+0P7BiOBpQ5WbR0cAU3AAfT0cDs80O5
MgOya1kidQkQBDTc7Hw1YXdoD0IDuEEHoueSL+j+0omKBrlloakge1wvlAwLxYbC
Fre57agVzYfHguny9TOAQMTGyZgQkOYZavZhYfIak0X4mgJhrhzu2UIHj7YUoaHZ
urs0DOhejk6c9A+9tO+4IMVW+OMKD5k6jvR3bNkDOvniJFWCvatXpVQwKbpIKx/l
fE83S80JXFCTCPWFKieYQBf04siFDmCJbCxLsyDBUoTNdwIDAQABo4G9MIG6MAkG
A1UdEwQCMAAwHQYDVR0OBBYEFFb/ixBf1LtvtAw1gXL9bKOxDAm6MFEGA1UdIwRK
MEiAFABwMQzahPVCfCHsRG4uViO30ixZoRqkGDAWMRQwEgYDVQQDDAt0ZWFtNDY5
LW5ldIIUUUZoWg2wOPMCmEJkrSk2iYNthEkwEwYDVR0lBAwwCgYIKwYBBQUHAwEw
CwYDVR0PBAQDAgWgMBkGA1UdEQQSMBCCDnRlYW00Njktc2VydmVyMA0GCSqGSIb3
DQEBCwUAA4IBAQBbDhIJWnFzseOv5AkXKUGyAeBd/rLXj4abDKBd61yKF6X+6dXn
KLv7KAu878CTyphoxQlGQDQmXj7pcdzuGPBWF2I3Y/PpkhSdNOrbvZIZhelgcJ/i
WkBZhQYXdDymEn4on5Lwg+mieog8542lbHk4K8dSTJXD5dFAj5/UZtnEw67IhYBf
jju68vpv/5sNfUDisURkzDyHx9aiIg7pywtlHU2LFyHfpzbGLyaD7w8nTHbhx+P8
mOLu7V+Mo/4Qno96GJXhiaVx8ew1FD34wDxj2rWGVZBaOBuABa4VFM1o4FbTDwgJ
w6jxmwrokI+ozW3pPOBin2J2dpyIpr4dhv1X
-----END CERTIFICATE-----
