Certificate:
    Data:
        Version: 3 (0x2)
        Serial Number:
            43:17:e6:2e:97:f4:b6:76:f9:e0:5b:fc:c3:0e:ff:8b
        Signature Algorithm: sha256WithRSAEncryption
        Issuer: CN=team469-net
        Validity
            Not Before: Nov  4 10:48:56 2023 GMT
            Not After : Oct 19 10:48:56 2026 GMT
        Subject: CN=team469-client
        Subject Public Key Info:
            Public Key Algorithm: rsaEncryption
                Public-Key: (2048 bit)
                Modulus:
                    00:ca:6c:56:84:68:1e:eb:49:cb:04:14:ef:18:3a:
                    a7:57:82:61:2c:68:32:de:f9:73:92:8e:3d:26:27:
                    69:52:f4:d9:b8:64:15:52:42:5b:92:1c:c8:5d:12:
                    8e:21:09:c2:cc:22:0b:0e:f6:13:87:af:c2:d9:4d:
                    b8:b8:86:c7:81:db:72:c2:27:e5:19:98:61:01:7d:
                    ac:ac:3c:e8:47:85:b3:63:bd:86:44:0d:36:bf:3b:
                    8d:ad:ee:bb:9c:b9:ea:e1:cc:58:d2:43:12:a6:64:
                    ca:ac:3f:54:f9:eb:52:55:8b:72:1a:1d:2f:22:22:
                    4e:b6:48:69:d7:92:12:85:6a:8f:b6:93:4f:8c:55:
                    19:9a:81:21:0a:e5:2a:73:fb:4f:6c:6e:fb:b6:dd:
                    65:b4:3e:76:36:5e:20:69:e9:7d:d7:b6:b8:65:84:
                    1f:cd:26:23:80:22:a8:97:89:2a:9b:7c:27:e0:f1:
                    63:68:68:70:c5:af:2a:11:d3:62:43:a2:fc:13:88:
                    66:a9:14:64:d6:c3:3b:ca:73:51:fc:63:95:36:d9:
                    05:0f:0b:b7:da:fc:52:47:13:9d:87:51:84:54:db:
                    ad:d9:ce:4b:95:7a:0f:c9:b3:c1:7c:d2:45:ee:b1:
                    30:aa:c8:dc:34:b0:76:55:9a:68:62:2e:5c:60:20:
                    3d:07
                Exponent: 65537 (0x10001)
        X509v3 extensions:
            X509v3 Basic Constraints: 
                CA:FALSE
            X509v3 Subject Key Identifier: 
                75:A3:06:45:D0:8F:5C:7A:14:D8:F7:D2:83:E9:0D:68:63:BF:93:F9
            X509v3 Authority Key Identifier: 
                keyid:00:70:31:0C:DA:84:F5:42:7C:21:EC:44:6E:2E:56:23:B7:D2:2C:59
                DirName:/CN=team469-net
                serial:51:46:68:5A:0D:B0:38:F3:02:98:42:64:AD:29:36:89:83:6D:84:49
            X509v3 Extended Key Usage: 
                TLS Web Client Authentication
            X509v3 Key Usage: 
                Digital Signature
    Signature Algorithm: sha256WithRSAEncryption
    Signature Value:
        6a:0f:75:61:51:2c:f1:df:1f:66:12:1a:95:7c:7d:78:cf:1a:
        55:4a:3c:e9:28:ff:d9:7a:d0:52:ac:fe:67:ac:80:9d:9e:11:
        37:36:9a:bd:59:ca:ce:13:fa:47:db:12:47:cd:be:e9:1f:c1:
        31:1a:57:6d:3a:bf:75:3a:e6:e0:a3:bf:2b:cc:b4:84:f0:c7:
        78:7b:25:08:19:e7:17:f7:f9:d1:58:47:11:22:3a:b9:02:5b:
        66:ce:41:a9:ae:68:f2:a8:c7:67:50:40:93:67:0f:28:ad:b8:
        fc:45:fc:51:b7:db:0a:25:45:c1:d8:98:d6:a2:d1:0e:e9:6d:
        01:a9:f9:55:24:33:7b:8e:e9:f3:41:c0:fe:f9:70:5e:09:cf:
        a1:5c:4d:77:71:c5:28:63:e5:fe:eb:6a:0c:e4:ec:46:9e:19:
        ef:1c:3b:ad:15:66:50:fd:9f:ad:9c:e7:da:68:43:1e:66:bc:
        36:78:9e:d5:b5:25:8a:14:8d:c8:39:62:9e:2b:5e:3a:7b:12:
        0f:82:7a:9f:6d:35:ad:9e:53:26:e2:52:64:17:d7:0d:29:dc:
        35:c1:95:d6:86:79:7d:40:4b:44:2d:05:f3:03:ca:92:50:e1:
        49:b1:6a:5e:a0:13:b5:29:78:47:56:7d:39:08:7c:1a:ef:f9:
        7c:26:22:07
-----BEGIN CERTIFICATE-----
MIIDXDCCAkSgAwIBAgIQQxfmLpf0tnb54Fv8ww7/izANBgkqhkiG9w0BAQsFADAW
MRQwEgYDVQQDDAt0ZWFtNDY5LW5ldDAeFw0yMzExMDQxMDQ4NTZaFw0yNjEwMTkx
MDQ4NTZaMBkxFzAVBgNVBAMMDnRlYW00NjktY2xpZW50MIIBIjANBgkqhkiG9w0B
AQEFAAOCAQ8AMIIBCgKCAQEAymxWhGge60nLBBTvGDqnV4JhLGgy3vlzko49Jidp
UvTZuGQVUkJbkhzIXRKOIQnCzCILDvYTh6/C2U24uIbHgdtywiflGZhhAX2srDzo
R4WzY72GRA02vzuNre67nLnq4cxY0kMSpmTKrD9U+etSVYtyGh0vIiJOtkhp15IS
hWqPtpNPjFUZmoEhCuUqc/tPbG77tt1ltD52Nl4gael917a4ZYQfzSYjgCKol4kq
m3wn4PFjaGhwxa8qEdNiQ6L8E4hmqRRk1sM7ynNR/GOVNtkFDwu32vxSRxOdh1GE
VNut2c5LlXoPybPBfNJF7rEwqsjcNLB2VZpoYi5cYCA9BwIDAQABo4GiMIGfMAkG
A1UdEwQCMAAwHQYDVR0OBBYEFHWjBkXQj1x6FNj30oPpDWhjv5P5MFEGA1UdIwRK
MEiAFABwMQzahPVCfCHsRG4uViO30ixZoRqkGDAWMRQwEgYDVQQDDAt0ZWFtNDY5
LW5ldIIUUUZoWg2wOPMCmEJkrSk2iYNthEkwEwYDVR0lBAwwCgYIKwYBBQUHAwIw
CwYDVR0PBAQDAgeAMA0GCSqGSIb3DQEBCwUAA4IBAQBqD3VhUSzx3x9mEhqVfH14
zxpVSjzpKP/ZetBSrP5nrICdnhE3Npq9WcrOE/pH2xJHzb7pH8ExGldtOr91Oubg
o78rzLSE8Md4eyUIGecX9/nRWEcRIjq5AltmzkGprmjyqMdnUECTZw8orbj8RfxR
t9sKJUXB2JjWotEO6W0BqflVJDN7junzQcD++XBeCc+hXE13ccUoY+X+62oM5OxG
nhnvHDutFWZQ/Z+tnOfaaEMeZrw2eJ7VtSWKFI3IOWKeK146exIPgnqfbTWtnlMm
4lJkF9cNKdw1wZXWhnl9QEtELQXzA8qSUOFJsWpeoBO1KXhHVn05CHwa7/l8JiIH
-----END CERTIFICATE-----
