Certificate:
    Data:
        Version: 3 (0x2)
        Serial Number:
            08:76:2a:7f:3c:9a:6a:5d:01:07:5f:04:5d:7b:57:78
        Signature Algorithm: sha256WithRSAEncryption
        Issuer: CN=team96-net
        Validity
            Not Before: Nov  4 10:42:12 2023 GMT
            Not After : Oct 19 10:42:12 2026 GMT
        Subject: CN=team96-client
        Subject Public Key Info:
            Public Key Algorithm: rsaEncryption
                Public-Key: (2048 bit)
                Modulus:
                    00:d9:c2:db:3f:a2:2c:6e:ab:21:a7:6c:8a:c0:89:
                    94:33:7d:32:87:cc:47:d8:bc:1e:a4:8e:6b:1d:39:
                    dc:c9:e4:e4:9f:d3:3d:f4:53:94:35:94:d9:f6:24:
                    67:7f:b9:35:61:b2:5f:5d:26:31:93:2a:a4:2c:9d:
                    4d:f1:38:f6:82:e7:30:9b:b5:b6:bd:d3:b8:86:83:
                    69:c3:a3:ed:74:6c:32:03:95:37:46:36:5d:0d:88:
                    0d:5a:95:9b:0a:69:b9:4a:11:6a:86:0a:8b:02:f6:
                    67:7d:a8:fe:68:d8:7f:f1:5e:39:70:19:e4:49:32:
                    5f:6e:41:c4:e6:d5:60:8c:9a:2a:a3:87:f2:16:7e:
                    56:ae:97:bf:d5:7b:b0:57:b8:3d:eb:5d:51:fe:dc:
                    31:eb:20:88:e4:90:d5:ba:9c:ff:2d:7d:8a:dc:50:
                    4a:6c:e0:a3:13:9f:f3:9d:f0:17:bb:35:7b:1d:18:
                    a3:7d:ab:79:4d:42:23:04:9d:a9:70:c5:71:8b:51:
                    60:9e:d5:69:fb:65:4e:44:43:d4:82:21:99:dd:30:
                    fd:fb:66:7c:cf:9d:d7:49:61:b2:99:3b:81:e7:d0:
                    ac:ec:9a:95:d7:12:f1:56:14:cf:a2:2a:b6:f7:84:
                    6a:7f:b5:11:81:d6:cf:66:18:9f:6a:19:ca:45:f5:
                    be:8f
                Exponent: 65537 (0x10001)
        X509v3 extensions:
            X509v3 Basic Constraints: 
                CA:FALSE
            X509v3 Subject Key Identifier: 
                3B:86:D1:75:E4:C8:35:97:D9:51:D8:83:48:52:2B:F6:F8:39:C7:CC
            X509v3 Authority Key Identifier: 
                keyid:8C:F3:39:AE:70:DE:5B:5B:15:AD:38:5D:45:A0:63:3D:DE:73:B3:31
                DirName:/CN=team96-net
                serial:64:0A:95:C1:9D:C4:A8:EA:03:39:23:C6:92:0F:D7:43:B6:E4:A7:E8
            X509v3 Extended Key Usage: 
                TLS Web Client Authentication
            X509v3 Key Usage: 
                Digital Signature
    Signature Algorithm: sha256WithRSAEncryption
    Signature Value:
        43:c8:ad:7d:81:08:2b:cd:2f:a9:b6:0d:fe:3b:cd:5f:1f:ca:
        24:e4:6c:df:d5:88:25:71:3e:9e:41:fc:42:c6:7c:cd:94:e5:
        e5:93:86:ef:62:a6:2b:3d:47:19:80:4c:24:e3:96:f7:57:db:
        0f:69:a2:b0:6b:4c:88:e2:22:b4:6f:64:ef:6b:83:c1:1e:fe:
        38:ff:6b:fb:e0:5d:f5:a0:7c:84:3a:3c:9b:b8:79:6d:df:24:
        19:eb:09:38:eb:3a:33:a7:4c:d7:68:d5:a2:3b:73:b3:f2:35:
        df:78:49:49:83:25:47:3f:bd:1d:d8:ff:64:c0:e1:f9:9f:a9:
        cd:5e:c8:44:95:fa:e2:61:7e:0b:3c:e1:44:33:d9:75:bf:25:
        d3:9c:60:dc:fe:d7:c7:14:6b:cb:3c:56:9c:28:c3:e9:ce:a0:
        28:ac:df:03:53:93:10:56:6f:45:95:c0:eb:86:c6:8b:b2:de:
        5b:d5:e0:81:c6:a5:f1:df:5d:69:4a:0a:60:7a:ee:83:fc:e9:
        44:97:36:6d:a9:d3:a2:bb:e6:53:7a:9f:71:1e:06:cf:77:fc:
        fc:2e:3f:dd:34:c6:de:79:d2:36:3e:41:97:b6:07:4f:20:5a:
        60:aa:48:13:48:0d:6e:d7:c8:9e:67:cf:7f:73:47:82:72:26:
        4b:35:19:fd
-----BEGIN CERTIFICATE-----
MIIDWTCCAkGgAwIBAgIQCHYqfzyaal0BB18EXXtXeDANBgkqhkiG9w0BAQsFADAV
MRMwEQYDVQQDDAp0ZWFtOTYtbmV0MB4XDTIzMTEwNDEwNDIxMloXDTI2MTAxOTEw
NDIxMlowGDEWMBQGA1UEAwwNdGVhbTk2LWNsaWVudDCCASIwDQYJKoZIhvcNAQEB
BQADggEPADCCAQoCggEBANnC2z+iLG6rIadsisCJlDN9MofMR9i8HqSOax053Mnk
5J/TPfRTlDWU2fYkZ3+5NWGyX10mMZMqpCydTfE49oLnMJu1tr3TuIaDacOj7XRs
MgOVN0Y2XQ2IDVqVmwppuUoRaoYKiwL2Z32o/mjYf/FeOXAZ5EkyX25BxObVYIya
KqOH8hZ+Vq6Xv9V7sFe4PetdUf7cMesgiOSQ1bqc/y19itxQSmzgoxOf853wF7s1
ex0Yo32reU1CIwSdqXDFcYtRYJ7VaftlTkRD1IIhmd0w/ftmfM+d10lhspk7gefQ
rOyaldcS8VYUz6IqtveEan+1EYHWz2YYn2oZykX1vo8CAwEAAaOBoTCBnjAJBgNV
HRMEAjAAMB0GA1UdDgQWBBQ7htF15Mg1l9lR2INIUiv2+DnHzDBQBgNVHSMESTBH
gBSM8zmucN5bWxWtOF1FoGM93nOzMaEZpBcwFTETMBEGA1UEAwwKdGVhbTk2LW5l
dIIUZAqVwZ3EqOoDOSPGkg/XQ7bkp+gwEwYDVR0lBAwwCgYIKwYBBQUHAwIwCwYD
VR0PBAQDAgeAMA0GCSqGSIb3DQEBCwUAA4IBAQBDyK19gQgrzS+ptg3+O81fH8ok
5Gzf1YglcT6eQfxCxnzNlOXlk4bvYqYrPUcZgEwk45b3V9sPaaKwa0yI4iK0b2Tv
a4PBHv44/2v74F31oHyEOjybuHlt3yQZ6wk46zozp0zXaNWiO3Oz8jXfeElJgyVH
P70d2P9kwOH5n6nNXshElfriYX4LPOFEM9l1vyXTnGDc/tfHFGvLPFacKMPpzqAo
rN8DU5MQVm9FlcDrhsaLst5b1eCBxqXx311pSgpgeu6D/OlElzZtqdOiu+ZTep9x
HgbPd/z8Lj/dNMbeedI2PkGXtgdPIFpgqkgTSA1u18ieZ89/c0eCciZLNRn9
-----END CERTIFICATE-----
