Certificate:
    Data:
        Version: 3 (0x2)
        Serial Number:
            10:cf:40:56:81:2b:b6:6d:68:71:d2:65:33:a9:71:03
        Signature Algorithm: sha256WithRSAEncryption
        Issuer: CN=team96-net
        Validity
            Not Before: Nov  3 20:40:51 2023 GMT
            Not After : Oct 18 20:40:51 2026 GMT
        Subject: CN=team96-server
        Subject Public Key Info:
            Public Key Algorithm: rsaEncryption
                Public-Key: (2048 bit)
                Modulus:
                    00:ba:2d:84:c5:6e:53:3a:25:17:a0:72:2c:14:52:
                    82:da:0d:d3:4f:7b:70:05:96:37:23:b3:0f:5b:bb:
                    57:ce:ab:52:17:b3:45:4d:ab:a8:80:1f:e4:d3:68:
                    29:02:b3:42:01:d4:fb:f9:6c:4a:03:b9:d9:f9:1a:
                    95:c7:b7:13:bb:69:39:75:19:f0:01:c5:2d:8e:de:
                    80:f1:32:cf:5f:48:27:1e:0b:ab:3e:4f:81:06:92:
                    8e:3a:1a:24:aa:a3:a9:10:34:a7:08:2c:a5:c4:e5:
                    13:e6:b7:08:d0:3f:0d:e4:64:66:ee:65:db:1f:de:
                    f0:60:8c:b6:70:97:9f:7a:62:54:c8:4b:b2:8b:b4:
                    38:59:b3:a1:6f:7b:c8:80:aa:71:30:40:e6:8e:01:
                    e9:20:86:b2:b3:7c:7a:69:f6:22:98:3e:59:61:58:
                    0f:0f:0c:ad:be:81:9c:24:b5:e0:f7:e0:46:7f:ef:
                    a8:8c:31:e2:f2:d2:d7:59:8e:fa:c9:66:dc:46:e4:
                    60:ad:d8:fd:81:26:fb:bf:3f:57:a2:3e:93:42:98:
                    fd:9b:88:57:84:eb:b3:8e:f2:1b:f9:bc:09:ca:3b:
                    13:af:d1:53:31:6f:ce:c9:60:24:96:2c:47:ca:43:
                    f6:f5:da:36:b2:14:ed:30:98:84:54:06:e0:de:e6:
                    71:8d
                Exponent: 65537 (0x10001)
        X509v3 extensions:
            X509v3 Basic Constraints: 
                CA:FALSE
            X509v3 Subject Key Identifier: 
                06:D9:81:98:25:DF:FB:C8:14:FA:A2:28:81:39:97:F6:6F:66:89:04
            X509v3 Authority Key Identifier: 
                keyid:FB:12:0C:D3:71:3E:DA:3B:D4:D9:EB:F6:2B:FC:33:86:75:99:00:B3
                DirName:/CN=team96-net
                serial:75:94:DB:BC:D1:AD:61:DB:D5:82:FC:CF:71:8E:4A:AF:D8:C2:AA:6F
            X509v3 Extended Key Usage: 
                TLS Web Server Authentication
            X509v3 Key Usage: 
                Digital Signature, Key Encipherment
            X509v3 Subject Alternative Name: 
                DNS:team96-server
    Signature Algorithm: sha256WithRSAEncryption
    Signature Value:
        4d:d5:c3:be:fc:eb:45:be:e2:40:d9:15:98:42:40:6a:5c:e7:
        1b:e2:fc:81:6e:80:e8:a5:66:64:6c:29:30:ea:8f:bd:d0:8b:
        62:cb:00:c5:58:e9:04:dc:3e:7d:69:31:c8:91:64:9f:7a:e1:
        3b:98:ac:45:6c:bc:7c:8d:f3:6c:20:2a:ca:89:a5:35:10:45:
        1b:c8:a2:c9:a5:71:91:f0:f0:5b:3f:51:d6:f4:73:f2:8b:70:
        f7:18:40:0b:77:45:db:55:c6:9f:f0:a9:e4:46:76:32:18:5f:
        2f:ea:3d:0b:19:3e:65:be:54:81:04:b5:70:e6:2a:b3:98:c0:
        98:92:b3:8f:eb:26:e0:60:68:23:13:51:33:1b:f5:78:fe:b8:
        11:ce:15:4e:59:93:4e:5e:0b:2a:22:de:6c:6c:89:57:88:de:
        3b:f0:08:4f:4b:ce:54:d7:22:a4:4c:2e:b3:32:ff:58:ec:52:
        12:c7:94:c4:7f:45:0b:70:7b:39:44:c1:29:f5:f8:de:ae:94:
        9c:90:71:0f:f0:12:77:7e:23:92:c7:92:00:88:57:b7:45:da:
        50:52:44:45:cd:ad:06:2c:66:5e:ae:ea:5b:be:57:26:7c:64:
        7f:a7:49:a3:41:13:a6:6f:69:c1:ea:45:7e:ce:fe:cd:ba:10:
        00:ac:ea:07
-----BEGIN CERTIFICATE-----
MIIDczCCAlugAwIBAgIQEM9AVoErtm1ocdJlM6lxAzANBgkqhkiG9w0BAQsFADAV
MRMwEQYDVQQDDAp0ZWFtOTYtbmV0MB4XDTIzMTEwMzIwNDA1MVoXDTI2MTAxODIw
NDA1MVowGDEWMBQGA1UEAwwNdGVhbTk2LXNlcnZlcjCCASIwDQYJKoZIhvcNAQEB
BQADggEPADCCAQoCggEBALothMVuUzolF6ByLBRSgtoN0097cAWWNyOzD1u7V86r
UhezRU2rqIAf5NNoKQKzQgHU+/lsSgO52fkalce3E7tpOXUZ8AHFLY7egPEyz19I
Jx4Lqz5PgQaSjjoaJKqjqRA0pwgspcTlE+a3CNA/DeRkZu5l2x/e8GCMtnCXn3pi
VMhLsou0OFmzoW97yICqcTBA5o4B6SCGsrN8emn2Ipg+WWFYDw8Mrb6BnCS14Pfg
Rn/vqIwx4vLS11mO+slm3EbkYK3Y/YEm+78/V6I+k0KY/ZuIV4Trs47yG/m8Cco7
E6/RUzFvzslgJJYsR8pD9vXaNrIU7TCYhFQG4N7mcY0CAwEAAaOBuzCBuDAJBgNV
HRMEAjAAMB0GA1UdDgQWBBQG2YGYJd/7yBT6oiiBOZf2b2aJBDBQBgNVHSMESTBH
gBT7EgzTcT7aO9TZ6/Yr/DOGdZkAs6EZpBcwFTETMBEGA1UEAwwKdGVhbTk2LW5l
dIIUdZTbvNGtYdvVgvzPcY5Kr9jCqm8wEwYDVR0lBAwwCgYIKwYBBQUHAwEwCwYD
VR0PBAQDAgWgMBgGA1UdEQQRMA+CDXRlYW05Ni1zZXJ2ZXIwDQYJKoZIhvcNAQEL
BQADggEBAE3Vw77860W+4kDZFZhCQGpc5xvi/IFugOilZmRsKTDqj73Qi2LLAMVY
6QTcPn1pMciRZJ964TuYrEVsvHyN82wgKsqJpTUQRRvIosmlcZHw8Fs/Udb0c/KL
cPcYQAt3RdtVxp/wqeRGdjIYXy/qPQsZPmW+VIEEtXDmKrOYwJiSs4/rJuBgaCMT
UTMb9Xj+uBHOFU5Zk05eCyoi3mxsiVeI3jvwCE9LzlTXIqRMLrMy/1jsUhLHlMR/
RQtwezlEwSn1+N6ulJyQcQ/wEnd+I5LHkgCIV7dF2lBSREXNrQYsZl6u6lu+VyZ8
ZH+nSaNBE6ZvacHqRX7O/s26EACs6gc=
-----END CERTIFICATE-----
