Certificate:
    Data:
        Version: 3 (0x2)
        Serial Number:
            93:42:fc:82:a6:cc:dc:5e:98:fd:75:2a:09:a4:9e:22
        Signature Algorithm: sha256WithRSAEncryption
        Issuer: CN=team96-net
        Validity
            Not Before: Nov  4 11:29:17 2023 GMT
            Not After : Oct 19 11:29:17 2026 GMT
        Subject: CN=team96-server
        Subject Public Key Info:
            Public Key Algorithm: rsaEncryption
                Public-Key: (2048 bit)
                Modulus:
                    00:9e:ae:ae:8a:70:a1:a5:fa:0d:2c:de:6e:50:dd:
                    84:bc:23:c9:20:f3:d2:56:bb:ab:37:fc:f7:6d:b2:
                    55:b9:3d:e2:83:1c:66:71:68:e9:93:39:bb:f7:7e:
                    8e:17:7f:04:7e:41:c0:f7:ff:d8:ca:50:f4:58:6a:
                    a0:c7:f5:f2:46:45:c8:e4:e9:51:a6:ba:00:45:1a:
                    b5:68:f1:c1:ca:5b:95:5b:69:61:88:89:4f:bf:ba:
                    39:b1:ae:05:ea:82:fa:21:88:b0:4e:fe:24:c7:37:
                    ba:f1:58:49:93:4a:b2:dc:5d:13:ac:90:ed:33:13:
                    52:f4:04:57:c1:20:b1:ed:ad:73:16:48:f3:72:b4:
                    7f:90:48:bd:e5:72:1c:9b:1f:a5:72:63:a2:27:80:
                    de:63:bc:16:21:92:8b:e4:95:c5:16:f5:d2:e3:92:
                    ce:0a:76:34:23:ae:45:fa:50:1a:28:ed:df:9a:8f:
                    e9:cc:d5:00:8a:4d:af:c8:3e:96:d1:ad:ce:b9:15:
                    13:bb:05:4e:b4:b7:d9:a4:c1:27:d9:df:5c:1a:13:
                    63:75:b3:b1:74:11:2a:00:27:19:45:f5:e8:02:d9:
                    2b:85:ea:c8:a3:ea:93:17:da:9d:9f:86:98:fb:4d:
                    07:a0:24:76:ca:15:aa:c1:66:96:e8:af:e6:50:30:
                    08:89
                Exponent: 65537 (0x10001)
        X509v3 extensions:
            X509v3 Basic Constraints: 
                CA:FALSE
            X509v3 Subject Key Identifier: 
                CA:F3:47:AB:DC:53:51:CC:9C:37:38:97:F4:73:95:D5:DE:E2:37:63
            X509v3 Authority Key Identifier: 
                keyid:F8:66:1E:0D:C0:BB:B1:AF:3D:38:EF:E3:EB:9F:58:E2:72:8F:F9:21
                DirName:/CN=team96-net
                serial:40:23:A6:73:4F:73:D7:A6:6F:BE:15:C8:4E:BE:58:62:2E:20:92:DE
            X509v3 Extended Key Usage: 
                TLS Web Server Authentication
            X509v3 Key Usage: 
                Digital Signature, Key Encipherment
            X509v3 Subject Alternative Name: 
                DNS:team96-server
    Signature Algorithm: sha256WithRSAEncryption
    Signature Value:
        32:1e:76:b9:64:4c:dc:6c:f2:05:48:73:f3:f0:44:5a:35:3d:
        1f:86:87:e4:c2:a0:22:1f:e1:d1:a7:05:c3:bb:cb:f9:0c:ba:
        b7:c4:e2:15:13:36:e7:2f:28:8e:e4:8c:dd:a0:aa:1b:e8:bd:
        29:2e:c0:5f:fa:1d:54:34:fb:a8:0e:c0:67:b7:3a:45:5a:71:
        59:56:63:46:9e:0e:09:2c:22:00:e6:26:f3:ca:33:e8:79:ae:
        1a:1f:21:0f:4d:6c:20:7b:0e:a0:9a:dc:4e:03:c2:e3:83:cc:
        56:1d:90:51:16:60:5e:2b:0a:c9:3a:02:45:c6:cc:5d:2b:4b:
        59:32:4a:72:ce:25:2a:3b:67:ec:85:2e:bb:d8:00:62:ba:ca:
        c0:55:30:e9:63:fc:a7:76:c7:d1:9d:a4:da:49:21:6a:54:05:
        69:e6:32:0c:2d:87:00:ce:30:bf:25:09:48:fe:dd:18:6c:57:
        db:86:4a:f6:0d:3d:b2:af:00:c7:0a:87:5e:35:a6:4d:69:50:
        89:9d:3f:94:87:d8:44:a9:16:b1:cc:0c:3b:bb:f0:05:bb:3a:
        be:bd:4d:e6:9e:2c:11:18:f1:73:35:93:d2:7b:21:ad:ca:be:
        9f:80:df:3f:80:ac:6e:4a:39:5e:ba:65:63:a7:ce:38:d3:90:
        d1:7e:72:d9
-----BEGIN CERTIFICATE-----
MIIDdDCCAlygAwIBAgIRAJNC/IKmzNxemP11KgmkniIwDQYJKoZIhvcNAQELBQAw
FTETMBEGA1UEAwwKdGVhbTk2LW5ldDAeFw0yMzExMDQxMTI5MTdaFw0yNjEwMTkx
MTI5MTdaMBgxFjAUBgNVBAMMDXRlYW05Ni1zZXJ2ZXIwggEiMA0GCSqGSIb3DQEB
AQUAA4IBDwAwggEKAoIBAQCerq6KcKGl+g0s3m5Q3YS8I8kg89JWu6s3/PdtslW5
PeKDHGZxaOmTObv3fo4XfwR+QcD3/9jKUPRYaqDH9fJGRcjk6VGmugBFGrVo8cHK
W5VbaWGIiU+/ujmxrgXqgvohiLBO/iTHN7rxWEmTSrLcXROskO0zE1L0BFfBILHt
rXMWSPNytH+QSL3lchybH6VyY6IngN5jvBYhkovklcUW9dLjks4KdjQjrkX6UBoo
7d+aj+nM1QCKTa/IPpbRrc65FRO7BU60t9mkwSfZ31waE2N1s7F0ESoAJxlF9egC
2SuF6sij6pMX2p2fhpj7TQegJHbKFarBZpbor+ZQMAiJAgMBAAGjgbswgbgwCQYD
VR0TBAIwADAdBgNVHQ4EFgQUyvNHq9xTUcycNziX9HOV1d7iN2MwUAYDVR0jBEkw
R4AU+GYeDcC7sa89OO/j659Y4nKP+SGhGaQXMBUxEzARBgNVBAMMCnRlYW05Ni1u
ZXSCFEAjpnNPc9emb74VyE6+WGIuIJLeMBMGA1UdJQQMMAoGCCsGAQUFBwMBMAsG
A1UdDwQEAwIFoDAYBgNVHREEETAPgg10ZWFtOTYtc2VydmVyMA0GCSqGSIb3DQEB
CwUAA4IBAQAyHna5ZEzcbPIFSHPz8ERaNT0fhofkwqAiH+HRpwXDu8v5DLq3xOIV
EzbnLyiO5IzdoKob6L0pLsBf+h1UNPuoDsBntzpFWnFZVmNGng4JLCIA5ibzyjPo
ea4aHyEPTWwgew6gmtxOA8Ljg8xWHZBRFmBeKwrJOgJFxsxdK0tZMkpyziUqO2fs
hS672ABiusrAVTDpY/yndsfRnaTaSSFqVAVp5jIMLYcAzjC/JQlI/t0YbFfbhkr2
DT2yrwDHCodeNaZNaVCJnT+Uh9hEqRaxzAw7u/AFuzq+vU3mniwRGPFzNZPSeyGt
yr6fgN8/gKxuSjleumVjp84405DRfnLZ
-----END CERTIFICATE-----
