Certificate:
    Data:
        Version: 3 (0x2)
        Serial Number:
            9b:69:26:93:28:c3:56:11:ef:32:e9:27:a9:de:53:00
        Signature Algorithm: sha256WithRSAEncryption
        Issuer: CN=team96-net
        Validity
            Not Before: Nov  3 20:40:51 2023 GMT
            Not After : Oct 18 20:40:51 2026 GMT
        Subject: CN=team96-client
        Subject Public Key Info:
            Public Key Algorithm: rsaEncryption
                Public-Key: (2048 bit)
                Modulus:
                    00:bc:b4:83:97:71:0a:ae:e5:f9:38:d7:87:72:be:
                    68:60:b6:80:f2:bb:01:35:aa:fb:4f:fc:be:ed:0d:
                    c7:fe:0f:31:0f:d0:48:58:c8:c5:fb:1f:d6:20:4c:
                    f1:17:96:7e:9e:66:4c:3e:16:fb:eb:35:21:a2:a7:
                    1b:68:74:bf:92:db:7a:fd:88:83:3c:6d:72:59:de:
                    64:3d:81:9d:f6:c9:06:74:4f:79:2d:34:5e:44:8f:
                    19:ae:ca:9b:97:6c:f7:a9:4c:2f:33:31:fe:54:a2:
                    ed:93:cb:23:10:f5:c2:70:a9:f0:65:a4:ea:f3:5a:
                    0b:ee:c7:23:0b:8b:bd:b3:39:c1:ca:7b:27:71:c5:
                    2b:ac:44:30:03:ba:8f:5c:67:e3:e0:29:5e:dc:0e:
                    69:a9:08:5c:54:8c:a5:aa:8c:ce:b1:1d:89:10:35:
                    45:62:18:5e:a2:a4:a3:af:9b:3d:9b:47:ba:24:11:
                    2e:87:bf:3a:d0:ec:3e:f2:df:c2:f2:d1:63:8f:c4:
                    4c:86:39:e1:80:46:f1:10:96:7d:80:17:7f:f2:74:
                    7d:74:9a:2b:24:15:8f:c3:3b:17:dc:2b:2e:d1:5c:
                    44:58:e6:88:a9:4b:e6:69:65:2c:81:cc:b0:f1:db:
                    b5:fd:60:e7:89:14:cf:59:c7:ef:9f:3f:4c:dc:75:
                    e4:f5
                Exponent: 65537 (0x10001)
        X509v3 extensions:
            X509v3 Basic Constraints: 
                CA:FALSE
            X509v3 Subject Key Identifier: 
                28:AE:71:A0:AB:35:85:34:C7:94:9E:58:FF:1D:62:72:D1:64:8F:C0
            X509v3 Authority Key Identifier: 
                keyid:FB:12:0C:D3:71:3E:DA:3B:D4:D9:EB:F6:2B:FC:33:86:75:99:00:B3
                DirName:/CN=team96-net
                serial:75:94:DB:BC:D1:AD:61:DB:D5:82:FC:CF:71:8E:4A:AF:D8:C2:AA:6F
            X509v3 Extended Key Usage: 
                TLS Web Client Authentication
            X509v3 Key Usage: 
                Digital Signature
    Signature Algorithm: sha256WithRSAEncryption
    Signature Value:
        4c:2e:bb:7f:5e:e9:bb:2c:26:4b:6c:06:f7:a6:c8:c2:db:8d:
        a2:67:46:c8:ae:74:4e:00:d9:c2:63:93:a5:52:39:4a:97:aa:
        8e:a5:89:a6:e5:29:c3:c2:20:dd:ee:29:2e:fd:25:10:05:c5:
        fa:2a:9c:ee:2d:49:82:f1:85:81:4e:dc:31:cd:50:18:30:f3:
        67:2b:8e:96:47:c7:55:ac:40:d9:dc:d3:81:c1:d4:ce:07:86:
        b2:54:7c:15:94:eb:08:71:83:5a:44:7e:e5:ee:af:e1:20:eb:
        8a:97:95:cd:2a:21:d0:ec:0e:83:c3:53:a8:ed:ea:b0:a4:88:
        6e:74:ce:aa:00:b5:2c:9b:bb:72:fd:7d:9c:17:cc:98:c3:3f:
        42:3e:dc:98:45:8f:84:08:c3:16:59:96:3b:a7:14:26:f3:b4:
        ae:04:62:37:af:bf:95:c3:12:ae:c3:8c:14:a5:c5:3b:4f:3e:
        02:24:5d:88:ad:80:2e:7a:71:e3:fc:b2:ef:40:bd:c7:14:90:
        b1:00:71:24:b6:d2:c8:42:ad:fd:ef:f3:24:e5:0b:76:dc:f6:
        f5:d1:ba:38:a7:76:bf:a6:6f:90:a3:72:41:3d:bf:68:65:aa:
        fe:9d:e1:14:d1:23:32:94:ff:96:9f:c7:86:9f:d7:78:5c:af:
        ee:02:f2:8b
-----BEGIN CERTIFICATE-----
MIIDWjCCAkKgAwIBAgIRAJtpJpMow1YR7zLpJ6neUwAwDQYJKoZIhvcNAQELBQAw
FTETMBEGA1UEAwwKdGVhbTk2LW5ldDAeFw0yMzExMDMyMDQwNTFaFw0yNjEwMTgy
MDQwNTFaMBgxFjAUBgNVBAMMDXRlYW05Ni1jbGllbnQwggEiMA0GCSqGSIb3DQEB
AQUAA4IBDwAwggEKAoIBAQC8tIOXcQqu5fk414dyvmhgtoDyuwE1qvtP/L7tDcf+
DzEP0EhYyMX7H9YgTPEXln6eZkw+FvvrNSGipxtodL+S23r9iIM8bXJZ3mQ9gZ32
yQZ0T3ktNF5EjxmuypuXbPepTC8zMf5Uou2TyyMQ9cJwqfBlpOrzWgvuxyMLi72z
OcHKeydxxSusRDADuo9cZ+PgKV7cDmmpCFxUjKWqjM6xHYkQNUViGF6ipKOvmz2b
R7okES6HvzrQ7D7y38Ly0WOPxEyGOeGARvEQln2AF3/ydH10miskFY/DOxfcKy7R
XERY5oipS+ZpZSyBzLDx27X9YOeJFM9Zx++fP0zcdeT1AgMBAAGjgaEwgZ4wCQYD
VR0TBAIwADAdBgNVHQ4EFgQUKK5xoKs1hTTHlJ5Y/x1ictFkj8AwUAYDVR0jBEkw
R4AU+xIM03E+2jvU2ev2K/wzhnWZALOhGaQXMBUxEzARBgNVBAMMCnRlYW05Ni1u
ZXSCFHWU27zRrWHb1YL8z3GOSq/YwqpvMBMGA1UdJQQMMAoGCCsGAQUFBwMCMAsG
A1UdDwQEAwIHgDANBgkqhkiG9w0BAQsFAAOCAQEATC67f17puywmS2wG96bIwtuN
omdGyK50TgDZwmOTpVI5SpeqjqWJpuUpw8Ig3e4pLv0lEAXF+iqc7i1JgvGFgU7c
Mc1QGDDzZyuOlkfHVaxA2dzTgcHUzgeGslR8FZTrCHGDWkR+5e6v4SDripeVzSoh
0OwOg8NTqO3qsKSIbnTOqgC1LJu7cv19nBfMmMM/Qj7cmEWPhAjDFlmWO6cUJvO0
rgRiN6+/lcMSrsOMFKXFO08+AiRdiK2ALnpx4/yy70C9xxSQsQBxJLbSyEKt/e/z
JOULdtz29dG6OKd2v6ZvkKNyQT2/aGWq/p3hFNEjMpT/lp/Hhp/XeFyv7gLyiw==
-----END CERTIFICATE-----
