Certificate:
    Data:
        Version: 3 (0x2)
        Serial Number:
            e7:a2:16:f5:ba:39:b8:9f:78:2a:fb:ec:52:27:00:8c
        Signature Algorithm: sha256WithRSAEncryption
        Issuer: CN=team96-net
        Validity
            Not Before: Nov  4 11:29:17 2023 GMT
            Not After : Oct 19 11:29:17 2026 GMT
        Subject: CN=team96-client
        Subject Public Key Info:
            Public Key Algorithm: rsaEncryption
                Public-Key: (2048 bit)
                Modulus:
                    00:b5:b8:d7:94:6f:b3:14:d5:e8:82:6d:3e:e4:e2:
                    53:2f:08:f3:ee:90:fd:d1:53:e1:cb:ba:30:67:c5:
                    3a:f0:b7:d0:55:9c:90:a1:69:14:06:86:1e:fd:50:
                    5f:8f:46:b7:73:df:06:a4:cc:6b:71:01:b0:4d:ce:
                    7e:26:38:a7:e5:1e:b3:bd:89:65:3a:e8:db:da:f3:
                    e6:d0:26:94:cd:a5:d5:c8:d2:ee:26:f1:fa:5e:e9:
                    cc:82:e8:fb:42:a7:e3:a2:f1:9b:36:d9:d8:36:11:
                    c0:2b:bf:80:f0:70:f8:d7:f8:1a:c5:d0:cb:33:5f:
                    85:e1:b8:93:aa:e1:07:b1:52:d6:4e:c2:ae:37:9a:
                    d1:3f:d4:2c:9e:7c:6a:1d:1b:5e:11:90:6b:6d:15:
                    ec:f1:d5:5e:7d:1f:55:ee:0a:e8:fb:b4:88:cf:32:
                    a1:fc:c2:41:70:95:2a:de:1a:fd:34:46:30:86:87:
                    0a:64:da:9d:28:7c:4e:d4:b5:d1:b3:a3:23:3d:ff:
                    21:55:0d:8d:ac:d4:54:e8:6d:c9:49:e5:89:91:82:
                    43:d0:4b:15:e7:c2:42:f5:74:16:4e:0c:54:74:ba:
                    42:07:f4:ae:7d:40:cd:2f:a9:02:da:a9:51:2b:5e:
                    fe:9f:71:4f:1b:00:9d:c3:74:16:16:a2:18:ef:81:
                    f9:e9
                Exponent: 65537 (0x10001)
        X509v3 extensions:
            X509v3 Basic Constraints: 
                CA:FALSE
            X509v3 Subject Key Identifier: 
                D8:F4:91:52:45:38:3E:86:37:6B:1B:84:C6:88:1A:77:D3:14:7E:3E
            X509v3 Authority Key Identifier: 
                keyid:F8:66:1E:0D:C0:BB:B1:AF:3D:38:EF:E3:EB:9F:58:E2:72:8F:F9:21
                DirName:/CN=team96-net
                serial:40:23:A6:73:4F:73:D7:A6:6F:BE:15:C8:4E:BE:58:62:2E:20:92:DE
            X509v3 Extended Key Usage: 
                TLS Web Client Authentication
            X509v3 Key Usage: 
                Digital Signature
    Signature Algorithm: sha256WithRSAEncryption
    Signature Value:
        6d:cb:bf:89:63:ff:e9:8d:11:6c:17:cf:b0:a1:f8:ad:53:c7:
        fe:d8:5a:fa:1e:d1:dd:14:72:64:cd:85:a5:a7:70:bb:cd:71:
        b1:66:b4:61:ac:2c:a2:57:6b:c1:dd:70:3c:ce:10:99:74:04:
        3a:81:4c:0a:34:12:e6:70:0c:16:5b:8e:bb:42:bf:17:a8:a9:
        c3:3b:0b:97:76:fb:e4:53:49:32:a9:cf:20:f2:73:d6:63:75:
        78:63:00:48:ee:17:26:51:d9:95:77:0c:18:de:13:b3:d1:95:
        c2:9f:68:d0:9a:f8:37:aa:ab:2a:fb:50:af:e6:52:e4:cc:75:
        3b:96:aa:57:fa:2c:6e:cd:5a:d4:4c:26:8c:94:b2:24:9f:8a:
        e5:68:c6:5a:a6:fc:75:d3:02:7f:f3:b7:a8:6b:37:36:7a:cf:
        b6:45:d7:8e:4d:72:2e:72:df:c9:71:fe:f3:af:97:a9:56:6e:
        58:18:db:0a:93:df:a4:f4:5b:d1:0d:ff:92:4b:5b:a5:76:8d:
        a5:6a:93:2b:db:24:96:64:6a:a4:1e:a8:98:b0:41:f0:f8:62:
        f4:99:99:3d:3a:fb:91:1d:6c:b4:89:8c:e0:40:c7:32:5c:dc:
        49:f7:0f:17:1f:00:ac:b3:a1:4f:55:63:4c:6c:1d:70:fc:d1:
        d1:a4:ac:59
-----BEGIN CERTIFICATE-----
MIIDWjCCAkKgAwIBAgIRAOeiFvW6ObifeCr77FInAIwwDQYJKoZIhvcNAQELBQAw
FTETMBEGA1UEAwwKdGVhbTk2LW5ldDAeFw0yMzExMDQxMTI5MTdaFw0yNjEwMTkx
MTI5MTdaMBgxFjAUBgNVBAMMDXRlYW05Ni1jbGllbnQwggEiMA0GCSqGSIb3DQEB
AQUAA4IBDwAwggEKAoIBAQC1uNeUb7MU1eiCbT7k4lMvCPPukP3RU+HLujBnxTrw
t9BVnJChaRQGhh79UF+PRrdz3wakzGtxAbBNzn4mOKflHrO9iWU66Nva8+bQJpTN
pdXI0u4m8fpe6cyC6PtCp+Oi8Zs22dg2EcArv4DwcPjX+BrF0MszX4XhuJOq4Qex
UtZOwq43mtE/1CyefGodG14RkGttFezx1V59H1XuCuj7tIjPMqH8wkFwlSreGv00
RjCGhwpk2p0ofE7UtdGzoyM9/yFVDY2s1FTobclJ5YmRgkPQSxXnwkL1dBZODFR0
ukIH9K59QM0vqQLaqVErXv6fcU8bAJ3DdBYWohjvgfnpAgMBAAGjgaEwgZ4wCQYD
VR0TBAIwADAdBgNVHQ4EFgQU2PSRUkU4PoY3axuExogad9MUfj4wUAYDVR0jBEkw
R4AU+GYeDcC7sa89OO/j659Y4nKP+SGhGaQXMBUxEzARBgNVBAMMCnRlYW05Ni1u
ZXSCFEAjpnNPc9emb74VyE6+WGIuIJLeMBMGA1UdJQQMMAoGCCsGAQUFBwMCMAsG
A1UdDwQEAwIHgDANBgkqhkiG9w0BAQsFAAOCAQEAbcu/iWP/6Y0RbBfPsKH4rVPH
/tha+h7R3RRyZM2Fpadwu81xsWa0Yawsoldrwd1wPM4QmXQEOoFMCjQS5nAMFluO
u0K/F6ipwzsLl3b75FNJMqnPIPJz1mN1eGMASO4XJlHZlXcMGN4Ts9GVwp9o0Jr4
N6qrKvtQr+ZS5Mx1O5aqV/osbs1a1EwmjJSyJJ+K5WjGWqb8ddMCf/O3qGs3NnrP
tkXXjk1yLnLfyXH+86+XqVZuWBjbCpPfpPRb0Q3/kktbpXaNpWqTK9sklmRqpB6o
mLBB8Phi9JmZPTr7kR1stImM4EDHMlzcSfcPFx8ArLOhT1VjTGwdcPzR0aSsWQ==
-----END CERTIFICATE-----
