Certificate:
    Data:
        Version: 3 (0x2)
        Serial Number:
            06:c0:9e:2a:e1:99:66:93:fb:a0:8a:9c:7a:76:17:53
        Signature Algorithm: sha256WithRSAEncryption
        Issuer: CN=team157-net
        Validity
            Not Before: Nov  3 20:42:03 2023 GMT
            Not After : Oct 18 20:42:03 2026 GMT
        Subject: CN=team157-client
        Subject Public Key Info:
            Public Key Algorithm: rsaEncryption
                Public-Key: (2048 bit)
                Modulus:
                    00:cb:8f:77:19:15:84:40:9a:d9:63:81:1e:4a:f4:
                    ea:1b:88:3e:88:1a:b3:94:33:8f:d5:60:26:47:19:
                    bf:9e:d0:5e:f0:4b:ab:d5:3d:5c:3b:9d:33:a1:03:
                    d2:ac:17:fa:00:4e:53:67:b8:ba:02:3b:50:dc:61:
                    29:09:70:69:46:72:f2:45:56:44:e0:32:8c:ca:07:
                    cd:2a:d1:22:0d:20:2d:f2:cc:80:2d:e6:77:df:b4:
                    65:4e:8b:97:70:66:24:02:98:2f:e7:f5:dc:ca:6f:
                    75:ff:96:d6:bc:e2:7f:91:30:f9:5f:aa:e7:bf:9d:
                    bc:1b:d5:39:01:1d:82:bb:80:d5:d2:78:f6:10:7a:
                    be:bb:e0:da:cc:11:51:7b:5b:33:45:73:ba:27:f9:
                    68:7a:ee:b6:92:22:71:b9:79:ac:5f:8a:6f:4f:c9:
                    83:73:29:71:7f:99:e6:d4:3d:87:62:f6:48:a5:43:
                    c7:3b:24:b7:2a:e6:af:20:33:5e:5a:2e:85:91:15:
                    19:16:59:bf:24:0b:7c:80:fe:b1:89:1a:5c:e6:b0:
                    67:18:db:20:cf:46:f0:1e:23:d2:38:72:6f:b5:2f:
                    35:3f:64:c4:1c:59:04:cc:d0:68:84:a2:21:ad:d0:
                    fa:62:31:a0:38:0a:37:63:e5:ce:fe:72:76:ca:e6:
                    46:93
                Exponent: 65537 (0x10001)
        X509v3 extensions:
            X509v3 Basic Constraints: 
                CA:FALSE
            X509v3 Subject Key Identifier: 
                95:D0:B2:E9:7F:1E:AB:73:F7:F8:9D:99:6E:D1:34:AB:80:A5:F6:45
            X509v3 Authority Key Identifier: 
                keyid:9F:F1:78:4F:10:21:BB:55:14:C1:AC:23:67:78:1B:B8:6E:B5:1B:07
                DirName:/CN=team157-net
                serial:21:BF:97:02:72:F0:FD:6E:CC:67:A2:C4:68:AA:A0:F6:CA:FC:DD:E2
            X509v3 Extended Key Usage: 
                TLS Web Client Authentication
            X509v3 Key Usage: 
                Digital Signature
    Signature Algorithm: sha256WithRSAEncryption
    Signature Value:
        26:a4:cc:0a:57:c0:4c:73:9d:51:3c:f9:35:8b:ee:6f:07:2a:
        5e:8a:fc:17:d3:90:90:55:a8:f8:b2:0c:bb:31:25:ef:d1:14:
        f3:d6:00:ea:bc:43:5a:4f:71:bf:1b:5e:09:23:9b:fc:5e:5c:
        b9:b0:88:78:98:2c:60:83:0b:05:48:8b:11:b4:59:8c:02:10:
        db:8a:04:84:69:26:27:39:6f:7e:f5:75:8a:59:31:54:b8:76:
        10:a3:37:09:9c:cc:bb:97:63:81:df:e3:6d:90:55:78:e6:81:
        9a:fb:60:e4:0a:57:0c:f3:87:c1:97:5c:98:e4:ae:f8:f5:20:
        82:4c:08:ee:50:5a:32:0b:48:7e:9d:1f:00:1f:33:ca:1a:80:
        72:46:61:e9:3b:a0:be:0e:7f:79:e9:8b:95:5b:f2:09:bd:84:
        e1:6b:e6:87:d8:ab:96:8d:3d:46:d6:4e:ff:98:ee:9e:8b:79:
        9b:66:59:d3:54:33:3f:14:de:15:b4:58:cb:e9:ab:61:73:f8:
        b6:2e:d0:e6:89:c1:b0:0d:53:69:2b:47:9a:bd:a9:cf:1d:ce:
        09:3c:99:64:fb:27:2f:0a:62:8e:65:dd:c6:38:3e:dc:43:39:
        f7:30:4f:a3:de:74:31:c2:36:bc:03:9e:c6:d8:f5:5b:5c:29:
        48:cf:39:b6
-----BEGIN CERTIFICATE-----
MIIDXDCCAkSgAwIBAgIQBsCeKuGZZpP7oIqcenYXUzANBgkqhkiG9w0BAQsFADAW
MRQwEgYDVQQDDAt0ZWFtMTU3LW5ldDAeFw0yMzExMDMyMDQyMDNaFw0yNjEwMTgy
MDQyMDNaMBkxFzAVBgNVBAMMDnRlYW0xNTctY2xpZW50MIIBIjANBgkqhkiG9w0B
AQEFAAOCAQ8AMIIBCgKCAQEAy493GRWEQJrZY4EeSvTqG4g+iBqzlDOP1WAmRxm/
ntBe8Eur1T1cO50zoQPSrBf6AE5TZ7i6AjtQ3GEpCXBpRnLyRVZE4DKMygfNKtEi
DSAt8syALeZ337RlTouXcGYkApgv5/Xcym91/5bWvOJ/kTD5X6rnv528G9U5AR2C
u4DV0nj2EHq+u+DazBFRe1szRXO6J/loeu62kiJxuXmsX4pvT8mDcylxf5nm1D2H
YvZIpUPHOyS3KuavIDNeWi6FkRUZFlm/JAt8gP6xiRpc5rBnGNsgz0bwHiPSOHJv
tS81P2TEHFkEzNBohKIhrdD6YjGgOAo3Y+XO/nJ2yuZGkwIDAQABo4GiMIGfMAkG
A1UdEwQCMAAwHQYDVR0OBBYEFJXQsul/Hqtz9/idmW7RNKuApfZFMFEGA1UdIwRK
MEiAFJ/xeE8QIbtVFMGsI2d4G7hutRsHoRqkGDAWMRQwEgYDVQQDDAt0ZWFtMTU3
LW5ldIIUIb+XAnLw/W7MZ6LEaKqg9sr83eIwEwYDVR0lBAwwCgYIKwYBBQUHAwIw
CwYDVR0PBAQDAgeAMA0GCSqGSIb3DQEBCwUAA4IBAQAmpMwKV8BMc51RPPk1i+5v
BypeivwX05CQVaj4sgy7MSXv0RTz1gDqvENaT3G/G14JI5v8Xly5sIh4mCxggwsF
SIsRtFmMAhDbigSEaSYnOW9+9XWKWTFUuHYQozcJnMy7l2OB3+NtkFV45oGa+2Dk
ClcM84fBl1yY5K749SCCTAjuUFoyC0h+nR8AHzPKGoByRmHpO6C+Dn956YuVW/IJ
vYTha+aH2KuWjT1G1k7/mO6ei3mbZlnTVDM/FN4VtFjL6athc/i2LtDmicGwDVNp
K0eavanPHc4JPJlk+ycvCmKOZd3GOD7cQzn3ME+j3nQxwja8A57G2PVbXClIzzm2
-----END CERTIFICATE-----
