Certificate:
    Data:
        Version: 3 (0x2)
        Serial Number:
            88:c5:a2:59:b1:55:64:ab:a2:fb:f8:06:69:81:19:d7
        Signature Algorithm: sha256WithRSAEncryption
        Issuer: CN=team157-net
        Validity
            Not Before: Nov  4 10:43:27 2023 GMT
            Not After : Oct 19 10:43:27 2026 GMT
        Subject: CN=team157-server
        Subject Public Key Info:
            Public Key Algorithm: rsaEncryption
                Public-Key: (2048 bit)
                Modulus:
                    00:d6:82:b7:cf:6b:ac:c0:a5:fe:98:a2:57:87:a8:
                    46:3f:b4:7c:10:cf:da:cd:55:80:fa:bd:07:1f:45:
                    7d:f5:e6:c5:2d:54:0c:01:e3:f0:28:9c:96:ca:93:
                    9a:42:9f:1d:cf:02:21:9e:4e:e7:51:a2:60:3f:da:
                    3f:88:1e:58:ee:dc:9a:c5:d1:02:68:b3:22:77:f8:
                    7e:bf:8a:75:c5:04:09:27:e9:a0:c9:2e:58:c1:7a:
                    23:cb:9f:e0:57:ca:bb:b3:c7:66:dd:86:24:b3:2c:
                    77:0a:f9:b0:8d:26:6c:10:60:59:5e:c2:75:dc:3c:
                    42:55:fb:95:95:20:c0:fe:4f:1b:9f:ce:5f:38:e9:
                    b2:19:58:06:a8:9d:52:70:ce:36:2f:e5:3d:cf:96:
                    00:32:ab:10:1f:f7:78:c8:04:4d:47:fc:f0:fc:1f:
                    be:cf:ba:1e:c5:21:75:f4:09:e3:74:9a:07:21:b1:
                    86:55:29:45:e9:27:04:88:5d:a8:00:cf:35:d5:a9:
                    b4:2f:d8:bf:14:43:a1:03:2b:3a:9a:0d:33:b2:2a:
                    55:44:0e:66:a4:9b:47:4f:4c:c7:8d:50:64:a1:bb:
                    ab:37:30:d2:1c:df:18:ad:6f:cc:9a:14:ca:5d:2a:
                    69:68:60:4b:67:2c:c4:97:7d:33:09:8c:75:c0:9d:
                    7d:0f
                Exponent: 65537 (0x10001)
        X509v3 extensions:
            X509v3 Basic Constraints: 
                CA:FALSE
            X509v3 Subject Key Identifier: 
                07:F2:BF:EF:79:96:78:4C:4D:3D:5F:6F:74:F3:7C:75:69:F4:E0:71
            X509v3 Authority Key Identifier: 
                keyid:17:AD:95:0B:E6:92:9D:A8:00:2F:16:BB:7E:A0:9F:18:61:D5:6D:70
                DirName:/CN=team157-net
                serial:67:3D:A5:47:29:7D:71:2A:52:44:75:EE:6F:D8:FF:DF:D1:DD:46:BE
            X509v3 Extended Key Usage: 
                TLS Web Server Authentication
            X509v3 Key Usage: 
                Digital Signature, Key Encipherment
            X509v3 Subject Alternative Name: 
                DNS:team157-server
    Signature Algorithm: sha256WithRSAEncryption
    Signature Value:
        4e:ae:af:14:83:f3:0e:7e:b0:e0:c5:d6:6e:ee:fa:c1:db:cb:
        61:15:27:14:25:fb:37:8d:21:7a:23:aa:b2:59:99:40:18:ee:
        9a:02:75:91:c4:a7:56:72:f2:99:5b:9d:59:bc:0c:ba:6e:08:
        02:a1:2b:1d:f6:2e:ff:30:99:0c:2d:10:a4:ca:3f:30:d2:1d:
        01:dd:f9:9b:38:95:0c:3f:aa:6f:7f:de:82:af:6c:3c:35:82:
        fb:6b:f2:64:1a:97:50:01:5f:53:b6:54:80:7f:42:89:3d:7c:
        35:b4:c7:3a:2d:0b:5e:1c:6e:7b:e6:09:2b:7d:e1:e7:74:55:
        60:16:c1:73:9b:c7:78:c9:5b:1a:d7:4a:86:91:ad:8a:e4:f3:
        7e:eb:20:dc:8a:08:b8:15:fc:3b:01:74:41:4d:71:a9:a2:47:
        bc:bd:7e:ce:d1:b6:36:78:37:3b:fe:e9:8f:b4:9d:d8:cf:2e:
        c5:8b:74:49:e2:ea:a7:fe:55:0e:54:41:fa:66:c5:5b:22:70:
        3b:da:a0:18:e3:42:0d:2e:22:05:ae:09:55:9e:52:82:8e:81:
        5e:47:fc:be:ef:8a:cf:ca:14:23:70:84:18:00:28:c5:f9:c6:
        5f:86:68:6e:16:23:82:0c:3f:47:d0:17:0f:15:ed:7c:59:30:
        f4:e6:bb:1a
-----BEGIN CERTIFICATE-----
MIIDeDCCAmCgAwIBAgIRAIjFolmxVWSrovv4BmmBGdcwDQYJKoZIhvcNAQELBQAw
FjEUMBIGA1UEAwwLdGVhbTE1Ny1uZXQwHhcNMjMxMTA0MTA0MzI3WhcNMjYxMDE5
MTA0MzI3WjAZMRcwFQYDVQQDDA50ZWFtMTU3LXNlcnZlcjCCASIwDQYJKoZIhvcN
AQEBBQADggEPADCCAQoCggEBANaCt89rrMCl/piiV4eoRj+0fBDP2s1VgPq9Bx9F
ffXmxS1UDAHj8CiclsqTmkKfHc8CIZ5O51GiYD/aP4geWO7cmsXRAmizInf4fr+K
dcUECSfpoMkuWMF6I8uf4FfKu7PHZt2GJLMsdwr5sI0mbBBgWV7Cddw8QlX7lZUg
wP5PG5/OXzjpshlYBqidUnDONi/lPc+WADKrEB/3eMgETUf88Pwfvs+6HsUhdfQJ
43SaByGxhlUpReknBIhdqADPNdWptC/YvxRDoQMrOpoNM7IqVUQOZqSbR09Mx41Q
ZKG7qzcw0hzfGK1vzJoUyl0qaWhgS2csxJd9MwmMdcCdfQ8CAwEAAaOBvTCBujAJ
BgNVHRMEAjAAMB0GA1UdDgQWBBQH8r/veZZ4TE09X29083x1afTgcTBRBgNVHSME
SjBIgBQXrZUL5pKdqAAvFrt+oJ8YYdVtcKEapBgwFjEUMBIGA1UEAwwLdGVhbTE1
Ny1uZXSCFGc9pUcpfXEqUkR17m/Y/9/R3Ua+MBMGA1UdJQQMMAoGCCsGAQUFBwMB
MAsGA1UdDwQEAwIFoDAZBgNVHREEEjAQgg50ZWFtMTU3LXNlcnZlcjANBgkqhkiG
9w0BAQsFAAOCAQEATq6vFIPzDn6w4MXWbu76wdvLYRUnFCX7N40heiOqslmZQBju
mgJ1kcSnVnLymVudWbwMum4IAqErHfYu/zCZDC0QpMo/MNIdAd35mziVDD+qb3/e
gq9sPDWC+2vyZBqXUAFfU7ZUgH9CiT18NbTHOi0LXhxue+YJK33h53RVYBbBc5vH
eMlbGtdKhpGtiuTzfusg3IoIuBX8OwF0QU1xqaJHvL1+ztG2Nng3O/7pj7Sd2M8u
xYt0SeLqp/5VDlRB+mbFWyJwO9qgGONCDS4iBa4JVZ5Sgo6BXkf8vu+Kz8oUI3CE
GAAoxfnGX4ZobhYjggw/R9AXDxXtfFkw9Oa7Gg==
-----END CERTIFICATE-----
