Certificate:
    Data:
        Version: 3 (0x2)
        Serial Number:
            f1:9e:39:e7:eb:17:66:a8:36:e7:05:dc:b8:8e:3f:cd
        Signature Algorithm: sha256WithRSAEncryption
        Issuer: CN=team157-net
        Validity
            Not Before: Nov  4 11:30:42 2023 GMT
            Not After : Oct 19 11:30:42 2026 GMT
        Subject: CN=team157-server
        Subject Public Key Info:
            Public Key Algorithm: rsaEncryption
                Public-Key: (2048 bit)
                Modulus:
                    00:bf:4b:a0:29:53:cc:34:d3:ee:46:9e:d8:c6:76:
                    e7:5b:c7:d1:00:23:a9:8b:30:dd:30:c5:bd:16:c8:
                    01:53:e8:1c:bb:8a:10:15:d4:ee:8c:21:2f:c8:f9:
                    b8:5c:11:60:e3:a3:98:4d:91:1e:83:e0:11:59:93:
                    2e:c0:31:3a:2e:e7:97:88:ef:97:3d:78:84:01:15:
                    8b:fb:4f:40:14:e9:8d:50:f4:b2:bd:cd:a5:d2:cd:
                    27:d3:c5:07:46:54:b6:e9:01:bb:3a:c6:1c:4b:90:
                    31:c6:41:b1:5a:af:f4:e0:84:8c:60:8d:43:e5:75:
                    0f:18:47:dc:2c:14:9d:bd:c6:8d:c6:5f:c7:ee:e2:
                    f2:d3:82:35:f9:25:a9:08:5b:74:3d:1a:53:71:52:
                    fc:21:10:66:14:9e:30:27:3b:e6:78:c0:33:72:13:
                    cc:86:f7:bc:9c:9b:56:3f:9a:dd:65:da:9e:00:b4:
                    2b:26:1b:c1:71:e3:7b:9b:f8:e0:2d:68:1e:c9:1c:
                    0a:d9:2c:3a:c5:65:3e:48:67:6c:34:da:6a:aa:e1:
                    78:06:8c:c9:a4:f3:45:7c:b6:bd:18:f9:50:38:c9:
                    80:03:d7:3d:b9:0a:b6:a2:d3:ef:06:9a:7c:af:2f:
                    ba:fe:e2:61:d9:aa:91:05:a7:2d:6a:1f:ec:87:aa:
                    9a:ef
                Exponent: 65537 (0x10001)
        X509v3 extensions:
            X509v3 Basic Constraints: 
                CA:FALSE
            X509v3 Subject Key Identifier: 
                A5:51:86:4A:DE:2B:E6:5E:49:98:F6:E8:8E:93:CA:3B:BE:7C:3D:B3
            X509v3 Authority Key Identifier: 
                keyid:90:48:90:B0:08:B4:45:72:45:D0:5D:A4:0A:15:BF:C8:A1:90:E5:FA
                DirName:/CN=team157-net
                serial:4F:AE:88:0C:B4:AA:3A:F8:C1:1F:F3:FB:BE:B5:4A:19:A8:A4:73:93
            X509v3 Extended Key Usage: 
                TLS Web Server Authentication
            X509v3 Key Usage: 
                Digital Signature, Key Encipherment
            X509v3 Subject Alternative Name: 
                DNS:team157-server
    Signature Algorithm: sha256WithRSAEncryption
    Signature Value:
        25:37:80:c0:e2:32:42:75:7b:ef:cd:09:73:a1:0d:eb:8a:4d:
        61:b7:f1:05:47:bc:50:aa:fd:c1:26:9f:60:66:dd:99:48:eb:
        5e:d3:3d:33:dd:d8:91:61:5c:d4:93:fc:a1:f7:e4:31:88:93:
        3b:31:1f:35:2f:1f:60:c2:10:79:98:d0:bc:4e:5b:53:09:17:
        d2:35:60:5c:71:cd:98:01:ed:af:3e:b6:64:33:f8:66:c6:7a:
        e6:c0:92:3a:06:25:91:df:40:ab:63:fa:9e:90:71:fa:04:10:
        88:5e:e5:49:e8:2b:40:43:a8:fd:3c:e9:c3:3c:7a:90:fa:68:
        79:35:5f:64:09:c5:ca:09:d1:80:a9:b7:8e:57:ad:df:6c:2d:
        89:11:8b:7a:37:a9:a9:d7:18:55:74:19:89:8b:f7:35:a6:cb:
        00:39:2a:d0:a2:49:bd:b1:b5:e1:87:66:a8:5a:58:fe:eb:1e:
        8c:8e:37:cc:7e:ed:65:4c:1a:27:ab:71:c3:50:b7:89:82:87:
        69:c0:79:25:8a:04:99:eb:b6:d1:80:18:91:6f:1f:e5:c6:0f:
        83:06:6e:67:7a:40:01:9a:9c:13:ef:06:f1:bd:9e:a4:f0:b8:
        32:60:d6:1c:5c:1a:1e:9d:ba:a1:a2:96:cf:96:4d:ac:29:2c:
        c7:30:6d:62
-----BEGIN CERTIFICATE-----
MIIDeDCCAmCgAwIBAgIRAPGeOefrF2aoNucF3LiOP80wDQYJKoZIhvcNAQELBQAw
FjEUMBIGA1UEAwwLdGVhbTE1Ny1uZXQwHhcNMjMxMTA0MTEzMDQyWhcNMjYxMDE5
MTEzMDQyWjAZMRcwFQYDVQQDDA50ZWFtMTU3LXNlcnZlcjCCASIwDQYJKoZIhvcN
AQEBBQADggEPADCCAQoCggEBAL9LoClTzDTT7kae2MZ251vH0QAjqYsw3TDFvRbI
AVPoHLuKEBXU7owhL8j5uFwRYOOjmE2RHoPgEVmTLsAxOi7nl4jvlz14hAEVi/tP
QBTpjVD0sr3NpdLNJ9PFB0ZUtukBuzrGHEuQMcZBsVqv9OCEjGCNQ+V1DxhH3CwU
nb3GjcZfx+7i8tOCNfklqQhbdD0aU3FS/CEQZhSeMCc75njAM3ITzIb3vJybVj+a
3WXangC0KyYbwXHje5v44C1oHskcCtksOsVlPkhnbDTaaqrheAaMyaTzRXy2vRj5
UDjJgAPXPbkKtqLT7waafK8vuv7iYdmqkQWnLWof7Ieqmu8CAwEAAaOBvTCBujAJ
BgNVHRMEAjAAMB0GA1UdDgQWBBSlUYZK3ivmXkmY9uiOk8o7vnw9szBRBgNVHSME
SjBIgBSQSJCwCLRFckXQXaQKFb/IoZDl+qEapBgwFjEUMBIGA1UEAwwLdGVhbTE1
Ny1uZXSCFE+uiAy0qjr4wR/z+761ShmopHOTMBMGA1UdJQQMMAoGCCsGAQUFBwMB
MAsGA1UdDwQEAwIFoDAZBgNVHREEEjAQgg50ZWFtMTU3LXNlcnZlcjANBgkqhkiG
9w0BAQsFAAOCAQEAJTeAwOIyQnV7780Jc6EN64pNYbfxBUe8UKr9wSafYGbdmUjr
XtM9M93YkWFc1JP8offkMYiTOzEfNS8fYMIQeZjQvE5bUwkX0jVgXHHNmAHtrz62
ZDP4ZsZ65sCSOgYlkd9Aq2P6npBx+gQQiF7lSegrQEOo/Tzpwzx6kPpoeTVfZAnF
ygnRgKm3jlet32wtiRGLejepqdcYVXQZiYv3NabLADkq0KJJvbG14YdmqFpY/use
jI43zH7tZUwaJ6txw1C3iYKHacB5JYoEmeu20YAYkW8f5cYPgwZuZ3pAAZqcE+8G
8b2epPC4MmDWHFwaHp26oaKWz5ZNrCksxzBtYg==
-----END CERTIFICATE-----
