Certificate:
    Data:
        Version: 3 (0x2)
        Serial Number:
            ee:49:6c:ab:31:6b:d0:db:a0:64:6a:c3:b1:64:6a:2b
        Signature Algorithm: sha256WithRSAEncryption
        Issuer: CN=team360-net
        Validity
            Not Before: Nov  3 20:45:50 2023 GMT
            Not After : Oct 18 20:45:50 2026 GMT
        Subject: CN=team360-server
        Subject Public Key Info:
            Public Key Algorithm: rsaEncryption
                Public-Key: (2048 bit)
                Modulus:
                    00:ba:0d:6d:85:c8:09:31:4b:75:f4:60:f9:4c:17:
                    27:73:87:ab:6c:74:c7:ef:ce:a4:64:a4:94:3d:1f:
                    a0:a8:fa:cb:89:41:1c:df:47:0d:17:af:4f:6d:cf:
                    f4:30:03:f9:93:f4:ce:18:f8:0b:ce:cb:e0:d4:87:
                    d3:11:66:1a:e7:7a:90:17:c4:c6:98:06:da:1c:6c:
                    8b:c5:60:06:da:29:83:4c:f1:7b:d2:49:8f:91:7b:
                    f3:8b:7f:a1:9a:ce:22:e2:e4:00:da:96:a6:28:0e:
                    19:9c:fc:d8:d3:73:b3:c2:4b:4f:d7:a3:53:f0:68:
                    b3:a5:ff:a4:f3:36:76:e7:87:e0:29:a8:0c:8a:e4:
                    85:56:ba:57:1b:be:9e:77:bd:6c:5d:83:88:fd:7d:
                    8c:20:44:70:49:d9:e0:57:93:32:07:86:6b:24:54:
                    ac:ec:7a:7d:21:6a:b7:a2:a6:35:92:2e:71:0d:ef:
                    7f:64:16:56:9e:a7:de:58:86:a4:04:cc:1b:a0:78:
                    31:e6:57:f8:d2:df:d7:1d:88:ea:2d:0c:e2:bd:0c:
                    83:93:23:2c:4e:a9:62:e7:47:38:20:99:1f:c5:b1:
                    ce:df:48:79:76:da:83:4c:fe:77:41:1b:0b:26:8a:
                    32:26:10:7f:e0:44:c2:97:9f:91:ee:a3:9d:7d:9b:
                    06:d7
                Exponent: 65537 (0x10001)
        X509v3 extensions:
            X509v3 Basic Constraints: 
                CA:FALSE
            X509v3 Subject Key Identifier: 
                D2:26:7E:0D:FA:66:8E:56:C9:C0:CB:8F:D7:9C:C9:D6:E4:85:B5:8E
            X509v3 Authority Key Identifier: 
                keyid:B6:96:F5:02:7E:9E:1F:93:DE:CB:04:DC:9E:DA:52:F9:8C:D1:05:9A
                DirName:/CN=team360-net
                serial:77:9C:3C:3A:05:AD:91:5B:B9:87:CA:48:89:9F:E9:E0:0D:00:2E:1E
            X509v3 Extended Key Usage: 
                TLS Web Server Authentication
            X509v3 Key Usage: 
                Digital Signature, Key Encipherment
            X509v3 Subject Alternative Name: 
                DNS:team360-server
    Signature Algorithm: sha256WithRSAEncryption
    Signature Value:
        ae:54:28:37:cd:87:f9:9c:d6:dd:a0:f4:04:62:4a:61:2f:0f:
        23:e9:ae:3d:ce:ba:0e:6e:0b:7e:04:de:20:bb:29:20:84:19:
        ad:cd:8b:68:85:9c:68:73:01:4f:31:bf:f5:a8:20:80:b0:af:
        5c:45:3e:7a:69:f5:6a:85:a2:51:d9:f2:81:31:97:8b:57:9b:
        cf:50:13:cb:fb:b4:d7:b8:3a:b4:e0:26:8b:09:8a:6e:a0:b1:
        ce:23:b2:2c:89:04:d3:f1:3b:2f:80:4f:e1:88:1a:2e:61:9f:
        9e:81:06:26:ed:b9:d2:52:c2:79:aa:39:58:1b:92:a7:66:34:
        56:40:8a:84:2b:11:c7:5d:13:b6:66:66:96:2b:c1:3e:66:bc:
        2e:9d:88:2b:d7:9d:be:2f:31:f9:d2:cb:ea:13:17:8f:7e:96:
        5b:7f:29:8a:08:f4:03:ae:52:1e:36:27:c4:69:8a:e9:10:b1:
        95:4c:e3:2d:7a:37:83:0e:c1:53:1d:7e:cf:48:b9:9a:18:98:
        b5:3b:d3:15:9c:44:62:da:23:59:08:b3:f9:77:5d:6d:e0:50:
        97:11:e2:ab:35:70:a0:57:05:8d:d7:d7:e1:a1:dc:9d:37:9b:
        c4:2a:48:26:93:21:fd:6b:4b:64:8f:aa:07:ae:26:87:c8:26:
        a3:aa:e7:b1
-----BEGIN CERTIFICATE-----
MIIDeDCCAmCgAwIBAgIRAO5JbKsxa9DboGRqw7FkaiswDQYJKoZIhvcNAQELBQAw
FjEUMBIGA1UEAwwLdGVhbTM2MC1uZXQwHhcNMjMxMTAzMjA0NTUwWhcNMjYxMDE4
MjA0NTUwWjAZMRcwFQYDVQQDDA50ZWFtMzYwLXNlcnZlcjCCASIwDQYJKoZIhvcN
AQEBBQADggEPADCCAQoCggEBALoNbYXICTFLdfRg+UwXJ3OHq2x0x+/OpGSklD0f
oKj6y4lBHN9HDRevT23P9DAD+ZP0zhj4C87L4NSH0xFmGud6kBfExpgG2hxsi8Vg
Btopg0zxe9JJj5F784t/oZrOIuLkANqWpigOGZz82NNzs8JLT9ejU/Bos6X/pPM2
dueH4CmoDIrkhVa6Vxu+nne9bF2DiP19jCBEcEnZ4FeTMgeGayRUrOx6fSFqt6Km
NZIucQ3vf2QWVp6n3liGpATMG6B4MeZX+NLf1x2I6i0M4r0Mg5MjLE6pYudHOCCZ
H8Wxzt9IeXbag0z+d0EbCyaKMiYQf+BEwpefke6jnX2bBtcCAwEAAaOBvTCBujAJ
BgNVHRMEAjAAMB0GA1UdDgQWBBTSJn4N+maOVsnAy4/XnMnW5IW1jjBRBgNVHSME
SjBIgBS2lvUCfp4fk97LBNye2lL5jNEFmqEapBgwFjEUMBIGA1UEAwwLdGVhbTM2
MC1uZXSCFHecPDoFrZFbuYfKSImf6eANAC4eMBMGA1UdJQQMMAoGCCsGAQUFBwMB
MAsGA1UdDwQEAwIFoDAZBgNVHREEEjAQgg50ZWFtMzYwLXNlcnZlcjANBgkqhkiG
9w0BAQsFAAOCAQEArlQoN82H+ZzW3aD0BGJKYS8PI+muPc66Dm4LfgTeILspIIQZ
rc2LaIWcaHMBTzG/9agggLCvXEU+emn1aoWiUdnygTGXi1ebz1ATy/u017g6tOAm
iwmKbqCxziOyLIkE0/E7L4BP4YgaLmGfnoEGJu250lLCeao5WBuSp2Y0VkCKhCsR
x10TtmZmlivBPma8Lp2IK9edvi8x+dLL6hMXj36WW38pigj0A65SHjYnxGmK6RCx
lUzjLXo3gw7BUx1+z0i5mhiYtTvTFZxEYtojWQiz+XddbeBQlxHiqzVwoFcFjdfX
4aHcnTebxCpIJpMh/WtLZI+qB64mh8gmo6rnsQ==
-----END CERTIFICATE-----
