Certificate:
    Data:
        Version: 3 (0x2)
        Serial Number:
            70:1d:a1:16:f5:dd:74:5c:18:58:3d:d6:8e:f4:28:4e
        Signature Algorithm: sha256WithRSAEncryption
        Issuer: CN=team8-net
        Validity
            Not Before: Oct 31 16:30:17 2023 GMT
            Not After : Oct 15 16:30:17 2026 GMT
        Subject: CN=team8-client
        Subject Public Key Info:
            Public Key Algorithm: rsaEncryption
                Public-Key: (2048 bit)
                Modulus:
                    00:bd:e9:9d:d9:64:85:94:40:d1:dd:46:5d:7a:87:
                    2a:6f:80:c2:43:ea:46:19:74:f0:a7:3e:6d:34:c1:
                    17:13:ba:25:7d:b1:3a:03:ae:7d:15:b2:d2:c9:32:
                    4f:6f:7f:fb:79:12:b0:4a:fa:10:67:8b:a5:ff:ba:
                    6e:81:83:57:f4:32:e0:19:52:df:23:a4:2f:9f:a6:
                    f2:b3:cc:91:00:9a:9f:36:fb:91:d7:fe:25:69:81:
                    5b:65:65:97:bf:64:c1:e6:a5:f3:16:04:f3:01:fb:
                    d7:47:3f:56:88:87:a8:b0:b6:82:4a:7d:db:2d:2f:
                    cc:a9:01:5b:c9:2b:56:b3:49:f9:9e:98:11:ab:88:
                    90:aa:23:4b:ef:d2:a3:f5:00:3d:3c:5d:f9:a4:1a:
                    45:97:6c:1c:83:3b:d0:d7:3f:4f:e8:7b:f6:78:ac:
                    11:d3:f0:65:62:9e:b4:0c:18:0f:fd:54:cb:a1:e7:
                    5a:e7:33:cc:80:40:60:8e:b2:a4:bd:01:69:1c:66:
                    db:39:dc:97:f8:b3:a0:d6:36:c0:92:46:0e:61:56:
                    b9:14:7a:8f:9f:ff:e3:38:41:4c:0d:eb:74:d0:4e:
                    d8:19:5c:e2:32:54:9f:9a:17:bb:ea:bf:9c:e5:0c:
                    06:22:ff:b1:28:47:db:92:3e:68:8b:f9:14:d9:79:
                    55:b7
                Exponent: 65537 (0x10001)
        X509v3 extensions:
            X509v3 Basic Constraints: 
                CA:FALSE
            X509v3 Subject Key Identifier: 
                5C:D5:0B:55:9B:CC:F4:43:F6:43:33:77:5B:41:C0:5C:56:55:32:DC
            X509v3 Authority Key Identifier: 
                keyid:9D:B5:57:0C:EB:A4:7F:97:FB:47:DD:84:41:90:8A:58:C7:F5:23:49
                DirName:/CN=team8-net
                serial:7C:8C:D3:ED:16:67:54:D8:DF:AA:60:58:AB:9E:2A:E0:38:86:40:86
            X509v3 Extended Key Usage: 
                TLS Web Client Authentication
            X509v3 Key Usage: 
                Digital Signature
    Signature Algorithm: sha256WithRSAEncryption
    Signature Value:
        6c:0b:af:06:40:6e:ce:7b:24:51:cf:8e:47:aa:78:1f:7b:6d:
        b0:30:8b:39:9b:83:0e:de:7f:4f:f9:d0:56:b7:75:3d:85:00:
        7e:fb:8c:2a:e3:8f:1a:83:95:ae:0a:bd:b2:5c:82:bb:a4:bc:
        1d:7f:69:80:21:f7:9d:82:1e:45:ae:0a:27:04:76:af:b1:ae:
        ba:8f:c5:20:dc:f5:03:81:bb:03:4c:22:a6:b1:7c:d0:13:07:
        82:1f:98:d5:88:41:0c:b1:4a:75:93:c2:6d:7f:79:af:fe:a8:
        fb:50:64:0e:33:35:f0:56:be:40:24:ad:23:8b:48:0f:f0:75:
        98:27:64:1e:33:d5:0e:6c:bd:44:8c:34:e1:4a:26:88:00:c3:
        79:5f:48:86:42:b1:21:03:5e:65:e0:6d:65:c2:a3:bd:11:8d:
        1f:ce:70:8f:67:09:0d:1a:86:a4:fd:c4:95:1d:29:21:39:93:
        a8:ca:7f:2c:84:0b:88:7c:4a:9c:10:04:fd:7d:2c:f8:49:f9:
        68:2e:70:f7:eb:3b:55:3e:9f:41:fb:2b:af:00:7e:d3:0f:a9:
        cd:35:ed:5d:33:9a:9f:a0:8d:56:e8:2f:cd:9b:a8:fa:c5:05:
        4b:36:31:c6:5f:72:17:df:7f:c2:a7:81:aa:d7:c1:79:c3:7e:
        9c:43:98:10
-----BEGIN CERTIFICATE-----
MIIDVjCCAj6gAwIBAgIQcB2hFvXddFwYWD3WjvQoTjANBgkqhkiG9w0BAQsFADAU
MRIwEAYDVQQDDAl0ZWFtOC1uZXQwHhcNMjMxMDMxMTYzMDE3WhcNMjYxMDE1MTYz
MDE3WjAXMRUwEwYDVQQDDAx0ZWFtOC1jbGllbnQwggEiMA0GCSqGSIb3DQEBAQUA
A4IBDwAwggEKAoIBAQC96Z3ZZIWUQNHdRl16hypvgMJD6kYZdPCnPm00wRcTuiV9
sToDrn0VstLJMk9vf/t5ErBK+hBni6X/um6Bg1f0MuAZUt8jpC+fpvKzzJEAmp82
+5HX/iVpgVtlZZe/ZMHmpfMWBPMB+9dHP1aIh6iwtoJKfdstL8ypAVvJK1azSfme
mBGriJCqI0vv0qP1AD08XfmkGkWXbByDO9DXP0/oe/Z4rBHT8GVinrQMGA/9VMuh
51rnM8yAQGCOsqS9AWkcZts53Jf4s6DWNsCSRg5hVrkUeo+f/+M4QUwN63TQTtgZ
XOIyVJ+aF7vqv5zlDAYi/7EoR9uSPmiL+RTZeVW3AgMBAAGjgaAwgZ0wCQYDVR0T
BAIwADAdBgNVHQ4EFgQUXNULVZvM9EP2QzN3W0HAXFZVMtwwTwYDVR0jBEgwRoAU
nbVXDOukf5f7R92EQZCKWMf1I0mhGKQWMBQxEjAQBgNVBAMMCXRlYW04LW5ldIIU
fIzT7RZnVNjfqmBYq54q4DiGQIYwEwYDVR0lBAwwCgYIKwYBBQUHAwIwCwYDVR0P
BAQDAgeAMA0GCSqGSIb3DQEBCwUAA4IBAQBsC68GQG7OeyRRz45Hqngfe22wMIs5
m4MO3n9P+dBWt3U9hQB++4wq448ag5WuCr2yXIK7pLwdf2mAIfedgh5FrgonBHav
sa66j8Ug3PUDgbsDTCKmsXzQEweCH5jViEEMsUp1k8Jtf3mv/qj7UGQOMzXwVr5A
JK0ji0gP8HWYJ2QeM9UObL1EjDThSiaIAMN5X0iGQrEhA15l4G1lwqO9EY0fznCP
ZwkNGoak/cSVHSkhOZOoyn8shAuIfEqcEAT9fSz4SfloLnD36ztVPp9B+yuvAH7T
D6nNNe1dM5qfoI1W6C/Nm6j6xQVLNjHGX3IX33/Cp4Gq18F5w36cQ5gQ
-----END CERTIFICATE-----
