Certificate:
    Data:
        Version: 3 (0x2)
        Serial Number:
            44:a0:5b:ce:28:ea:ea:73:2a:ed:0e:39:a0:95:c6:d5
        Signature Algorithm: sha256WithRSAEncryption
        Issuer: CN=team213-net
        Validity
            Not Before: Nov  3 20:43:11 2023 GMT
            Not After : Oct 18 20:43:11 2026 GMT
        Subject: CN=team213-client
        Subject Public Key Info:
            Public Key Algorithm: rsaEncryption
                Public-Key: (2048 bit)
                Modulus:
                    00:ce:7c:06:ac:b4:95:32:7a:42:f0:3f:6f:16:c2:
                    bb:a3:8e:26:0b:8a:2a:35:99:9b:2b:b8:50:0d:4d:
                    14:d0:e8:56:21:55:3b:13:d9:09:59:3d:1f:c7:c3:
                    06:57:01:e8:5b:76:47:57:19:0f:f0:ba:53:31:26:
                    5e:59:d2:80:73:78:22:b9:b6:71:cb:86:8c:a7:f9:
                    0c:30:0d:ce:95:62:14:f0:5f:23:45:10:70:2a:a3:
                    5d:c2:c1:38:87:b6:4a:2a:c4:96:bb:a7:6f:7c:5e:
                    e0:a0:61:b4:09:c6:09:e1:9f:4c:c6:49:44:58:12:
                    64:94:27:b4:d7:0c:26:01:62:22:99:60:28:f6:7a:
                    72:73:f8:cf:fa:c4:f3:d3:99:4b:4f:fe:47:81:83:
                    a8:69:5d:79:b2:4a:c3:3d:50:12:a0:78:7f:fc:52:
                    b1:c0:47:a2:53:5d:29:09:46:00:e9:0f:48:29:3c:
                    ee:39:fb:3a:47:35:9f:5a:04:92:aa:00:49:e3:c7:
                    e9:ed:a4:ae:83:77:4f:42:7f:89:00:36:42:9e:bd:
                    97:05:8f:40:ad:8d:5e:00:f5:bd:bd:e9:d4:07:f9:
                    e0:6b:1c:8a:54:cf:5a:11:fc:4d:07:bc:ef:7d:b5:
                    a1:b8:58:a5:a6:d7:54:e7:f0:bd:9c:14:45:0a:88:
                    a6:7d
                Exponent: 65537 (0x10001)
        X509v3 extensions:
            X509v3 Basic Constraints: 
                CA:FALSE
            X509v3 Subject Key Identifier: 
                BF:60:F3:5C:21:F7:BC:39:27:4A:2F:80:58:79:66:FB:48:FB:7D:6B
            X509v3 Authority Key Identifier: 
                keyid:D3:24:5F:C5:12:6A:A3:6A:15:D8:0C:03:5B:D7:61:84:AB:1F:82:6B
                DirName:/CN=team213-net
                serial:77:CE:6D:1A:70:77:BC:FB:3E:8F:64:65:72:EC:FC:72:C9:C8:80:32
            X509v3 Extended Key Usage: 
                TLS Web Client Authentication
            X509v3 Key Usage: 
                Digital Signature
    Signature Algorithm: sha256WithRSAEncryption
    Signature Value:
        bb:7d:0f:c4:bf:31:d3:60:a9:7e:8a:92:9e:3e:20:6d:57:82:
        a5:82:b6:ce:e7:1c:58:3a:43:57:ee:43:9a:8e:25:df:45:cb:
        d7:ef:fb:8f:9c:e4:e8:05:4e:fd:b5:ea:12:4d:40:76:37:e0:
        67:6e:7d:f4:42:4e:3a:95:e4:e8:bb:5c:47:ff:20:c2:7e:45:
        2d:b6:d5:8d:bc:c6:d1:1c:72:1a:db:2b:af:53:d6:af:fb:68:
        76:da:24:a7:6e:05:22:25:f8:22:df:04:18:23:cc:90:e4:4b:
        bb:98:32:56:89:02:c2:98:00:81:bc:27:9e:3c:ac:43:8e:01:
        4e:c0:aa:49:79:c5:79:ac:fa:1a:ad:ba:cc:65:f2:5c:73:48:
        1f:87:c3:41:db:a7:b6:09:13:3e:af:89:59:c4:1c:ff:64:7d:
        b4:d9:b1:ca:96:ec:01:9f:11:41:90:39:78:99:6f:2c:43:08:
        c7:02:85:1a:8d:1a:07:10:8e:8b:76:fa:61:cb:71:0e:4e:a5:
        31:87:78:35:30:40:4a:23:10:ac:03:55:2a:1a:29:b5:4f:ec:
        30:09:bb:4f:76:13:cc:7d:49:94:a2:b0:4c:92:e1:cd:de:83:
        81:e5:1b:d2:f0:cc:20:8b:f6:fd:48:82:a3:05:aa:96:dc:74:
        f9:cc:dc:95
-----BEGIN CERTIFICATE-----
MIIDXDCCAkSgAwIBAgIQRKBbzijq6nMq7Q45oJXG1TANBgkqhkiG9w0BAQsFADAW
MRQwEgYDVQQDDAt0ZWFtMjEzLW5ldDAeFw0yMzExMDMyMDQzMTFaFw0yNjEwMTgy
MDQzMTFaMBkxFzAVBgNVBAMMDnRlYW0yMTMtY2xpZW50MIIBIjANBgkqhkiG9w0B
AQEFAAOCAQ8AMIIBCgKCAQEAznwGrLSVMnpC8D9vFsK7o44mC4oqNZmbK7hQDU0U
0OhWIVU7E9kJWT0fx8MGVwHoW3ZHVxkP8LpTMSZeWdKAc3giubZxy4aMp/kMMA3O
lWIU8F8jRRBwKqNdwsE4h7ZKKsSWu6dvfF7goGG0CcYJ4Z9MxklEWBJklCe01wwm
AWIimWAo9npyc/jP+sTz05lLT/5HgYOoaV15skrDPVASoHh//FKxwEeiU10pCUYA
6Q9IKTzuOfs6RzWfWgSSqgBJ48fp7aSug3dPQn+JADZCnr2XBY9ArY1eAPW9venU
B/ngaxyKVM9aEfxNB7zvfbWhuFilptdU5/C9nBRFCoimfQIDAQABo4GiMIGfMAkG
A1UdEwQCMAAwHQYDVR0OBBYEFL9g81wh97w5J0ovgFh5ZvtI+31rMFEGA1UdIwRK
MEiAFNMkX8USaqNqFdgMA1vXYYSrH4JroRqkGDAWMRQwEgYDVQQDDAt0ZWFtMjEz
LW5ldIIUd85tGnB3vPs+j2Rlcuz8csnIgDIwEwYDVR0lBAwwCgYIKwYBBQUHAwIw
CwYDVR0PBAQDAgeAMA0GCSqGSIb3DQEBCwUAA4IBAQC7fQ/EvzHTYKl+ipKePiBt
V4KlgrbO5xxYOkNX7kOajiXfRcvX7/uPnOToBU79teoSTUB2N+Bnbn30Qk46leTo
u1xH/yDCfkUtttWNvMbRHHIa2yuvU9av+2h22iSnbgUiJfgi3wQYI8yQ5Eu7mDJW
iQLCmACBvCeePKxDjgFOwKpJecV5rPoarbrMZfJcc0gfh8NB26e2CRM+r4lZxBz/
ZH202bHKluwBnxFBkDl4mW8sQwjHAoUajRoHEI6Ldvphy3EOTqUxh3g1MEBKIxCs
A1UqGim1T+wwCbtPdhPMfUmUorBMkuHN3oOB5RvS8Mwgi/b9SIKjBaqW3HT5zNyV
-----END CERTIFICATE-----
