Certificate:
    Data:
        Version: 3 (0x2)
        Serial Number:
            78:8c:32:8d:8a:15:ab:32:6e:49:4a:04:2a:68:42:74
        Signature Algorithm: sha256WithRSAEncryption
        Issuer: CN=team213-net
        Validity
            Not Before: Nov  4 10:44:37 2023 GMT
            Not After : Oct 19 10:44:37 2026 GMT
        Subject: CN=team213-server
        Subject Public Key Info:
            Public Key Algorithm: rsaEncryption
                Public-Key: (2048 bit)
                Modulus:
                    00:9d:01:5e:ca:51:28:31:1b:38:17:35:2e:5b:e9:
                    53:33:ee:e0:08:61:46:49:5e:b3:3c:70:88:d9:76:
                    bf:8f:be:c6:7a:3b:4d:41:80:b3:ff:55:e3:48:6b:
                    ac:b5:99:12:36:4b:c1:7e:27:9a:e6:e8:ce:94:d4:
                    56:c7:26:56:93:b6:98:06:ba:a6:18:e5:c9:c5:03:
                    2c:5f:6b:2e:72:bc:71:88:a2:2d:8e:75:01:48:94:
                    bc:f1:99:5e:52:2d:25:1f:84:0f:f4:56:eb:a9:cc:
                    8f:3e:d9:2a:0e:1d:87:17:3e:18:72:46:cd:32:12:
                    b3:12:3f:20:0f:a7:37:60:c0:54:c5:4b:bc:ed:e5:
                    5c:d3:c3:46:05:5e:51:d6:07:5f:c2:76:27:d8:e7:
                    68:8f:57:dc:d5:21:f4:a1:95:b9:3e:13:0e:72:ad:
                    b4:46:28:88:49:9c:7a:45:3c:e2:67:61:42:91:fa:
                    48:2f:98:20:77:3a:cb:f5:57:bf:11:04:5a:64:f0:
                    25:b9:aa:be:c9:c5:9e:7f:08:1d:41:4c:4c:57:9c:
                    7d:08:c1:55:19:39:0b:99:5c:eb:b8:df:6a:3d:fc:
                    e7:eb:04:2f:92:e4:ef:77:70:f4:ba:33:25:25:d4:
                    c3:20:0b:35:7c:30:ed:66:9a:c5:0d:a4:63:18:c4:
                    0d:e5
                Exponent: 65537 (0x10001)
        X509v3 extensions:
            X509v3 Basic Constraints: 
                CA:FALSE
            X509v3 Subject Key Identifier: 
                83:61:3C:25:29:2F:62:0D:60:B6:53:CD:6C:56:1A:25:23:97:51:64
            X509v3 Authority Key Identifier: 
                keyid:79:A6:BB:8A:58:25:94:C0:07:4D:C6:E1:63:54:EF:D8:EA:99:DA:C4
                DirName:/CN=team213-net
                serial:27:C9:E8:B9:92:9E:75:B7:1F:42:CD:8D:96:C9:97:84:85:43:D9:0A
            X509v3 Extended Key Usage: 
                TLS Web Server Authentication
            X509v3 Key Usage: 
                Digital Signature, Key Encipherment
            X509v3 Subject Alternative Name: 
                DNS:team213-server
    Signature Algorithm: sha256WithRSAEncryption
    Signature Value:
        50:09:36:d6:0e:56:3b:58:6b:db:76:09:12:44:a4:7b:c0:a9:
        12:d1:bb:6a:b9:d0:37:c9:fe:ad:e7:eb:22:74:52:11:5b:db:
        83:78:5f:f5:56:60:74:03:16:a6:a4:e7:c3:0d:fb:2f:73:9e:
        f5:3e:9d:07:6f:d0:55:6f:63:9f:ee:91:c0:dc:07:d1:5c:49:
        ba:5c:5b:fe:7d:3f:4b:4c:52:4e:dc:b3:43:c3:4f:7c:8f:ca:
        a2:41:3c:3b:dd:8e:61:ea:77:cf:9c:b7:32:95:4c:ea:2c:34:
        8e:96:d8:b6:d6:ef:91:18:dd:a3:63:63:ea:30:d0:4f:bd:28:
        a8:85:75:34:b7:b2:a4:eb:5d:75:e6:18:1d:2e:fc:c0:c0:f2:
        39:f5:7b:b6:65:7a:b6:7b:4f:41:0c:10:b1:ca:37:fc:64:3c:
        44:89:ad:d9:54:72:90:1d:e4:bf:95:97:da:f0:73:38:50:72:
        40:f0:13:41:39:d0:6b:76:8e:48:36:c4:d6:11:5c:8d:32:bb:
        50:f6:d6:45:ef:07:58:b7:6b:5b:25:c7:9b:0a:59:11:99:a8:
        55:06:fd:2b:5d:e4:84:95:c1:60:72:c8:4c:25:18:e7:ff:96:
        79:8c:ff:06:3b:3a:4d:44:3b:19:ba:e5:e0:8a:10:8c:37:f2:
        59:7c:5b:a2
-----BEGIN CERTIFICATE-----
MIIDdzCCAl+gAwIBAgIQeIwyjYoVqzJuSUoEKmhCdDANBgkqhkiG9w0BAQsFADAW
MRQwEgYDVQQDDAt0ZWFtMjEzLW5ldDAeFw0yMzExMDQxMDQ0MzdaFw0yNjEwMTkx
MDQ0MzdaMBkxFzAVBgNVBAMMDnRlYW0yMTMtc2VydmVyMIIBIjANBgkqhkiG9w0B
AQEFAAOCAQ8AMIIBCgKCAQEAnQFeylEoMRs4FzUuW+lTM+7gCGFGSV6zPHCI2Xa/
j77GejtNQYCz/1XjSGustZkSNkvBfiea5ujOlNRWxyZWk7aYBrqmGOXJxQMsX2su
crxxiKItjnUBSJS88ZleUi0lH4QP9FbrqcyPPtkqDh2HFz4YckbNMhKzEj8gD6c3
YMBUxUu87eVc08NGBV5R1gdfwnYn2Odoj1fc1SH0oZW5PhMOcq20RiiISZx6RTzi
Z2FCkfpIL5ggdzrL9Ve/EQRaZPAluaq+ycWefwgdQUxMV5x9CMFVGTkLmVzruN9q
Pfzn6wQvkuTvd3D0ujMlJdTDIAs1fDDtZprFDaRjGMQN5QIDAQABo4G9MIG6MAkG
A1UdEwQCMAAwHQYDVR0OBBYEFINhPCUpL2INYLZTzWxWGiUjl1FkMFEGA1UdIwRK
MEiAFHmmu4pYJZTAB03G4WNU79jqmdrEoRqkGDAWMRQwEgYDVQQDDAt0ZWFtMjEz
LW5ldIIUJ8nouZKedbcfQs2NlsmXhIVD2QowEwYDVR0lBAwwCgYIKwYBBQUHAwEw
CwYDVR0PBAQDAgWgMBkGA1UdEQQSMBCCDnRlYW0yMTMtc2VydmVyMA0GCSqGSIb3
DQEBCwUAA4IBAQBQCTbWDlY7WGvbdgkSRKR7wKkS0btqudA3yf6t5+sidFIRW9uD
eF/1VmB0AxampOfDDfsvc571Pp0Hb9BVb2Of7pHA3AfRXEm6XFv+fT9LTFJO3LND
w098j8qiQTw73Y5h6nfPnLcylUzqLDSOlti21u+RGN2jY2PqMNBPvSiohXU0t7Kk
61115hgdLvzAwPI59Xu2ZXq2e09BDBCxyjf8ZDxEia3ZVHKQHeS/lZfa8HM4UHJA
8BNBOdBrdo5INsTWEVyNMrtQ9tZF7wdYt2tbJcebClkRmahVBv0rXeSElcFgcshM
JRjn/5Z5jP8GOzpNRDsZuuXgihCMN/JZfFui
-----END CERTIFICATE-----
