Certificate:
    Data:
        Version: 3 (0x2)
        Serial Number:
            81:7a:22:4f:65:ba:22:da:fc:e2:a4:7f:6c:db:ba:1e
        Signature Algorithm: sha256WithRSAEncryption
        Issuer: CN=team213-net
        Validity
            Not Before: Nov  4 11:31:49 2023 GMT
            Not After : Oct 19 11:31:49 2026 GMT
        Subject: CN=team213-server
        Subject Public Key Info:
            Public Key Algorithm: rsaEncryption
                Public-Key: (2048 bit)
                Modulus:
                    00:94:5e:62:7d:6a:ad:82:3a:a1:93:69:31:5c:7b:
                    1e:2e:94:9a:ef:fb:45:8c:92:64:65:23:47:b2:c8:
                    d1:0f:d4:a0:4e:42:16:e9:82:9a:6b:e4:4f:b6:a1:
                    0d:2e:b7:d9:e6:d9:a5:50:19:84:d3:43:8f:8b:69:
                    7e:08:30:6d:30:4c:9a:52:9a:9e:6c:39:b2:66:ef:
                    37:b6:2d:41:f2:8b:21:b5:07:43:e4:87:9e:83:17:
                    2e:38:5a:a6:3f:ef:43:17:df:42:bd:be:a8:cb:e1:
                    23:c5:81:18:d7:53:25:bc:c4:6b:ef:f2:8e:de:25:
                    66:26:62:7e:a8:6f:a4:27:bf:49:a8:bf:a2:71:0a:
                    39:13:c6:a3:d1:00:15:f5:b6:fd:e7:1e:93:45:59:
                    31:b3:3b:5f:8a:7a:a9:0b:dc:fb:d0:01:35:cc:bf:
                    c7:f0:a3:11:bb:d8:fa:5d:4b:c7:f5:2c:a4:e4:6f:
                    05:ed:b6:88:e9:aa:ff:25:ad:c6:d3:3a:76:e6:66:
                    44:cf:aa:af:1e:ab:e5:3a:78:5a:5e:3b:72:e5:19:
                    5f:41:ec:38:91:9d:7c:46:c6:90:65:ad:9f:af:3c:
                    58:00:7f:59:3b:0c:f8:09:1c:3a:6f:ad:9d:f6:a0:
                    93:9a:e0:d8:7b:47:93:72:ea:8d:44:08:51:04:77:
                    06:41
                Exponent: 65537 (0x10001)
        X509v3 extensions:
            X509v3 Basic Constraints: 
                CA:FALSE
            X509v3 Subject Key Identifier: 
                B1:29:6A:AF:38:34:E1:5B:97:6D:87:B8:29:FC:D7:BC:7C:1E:59:FB
            X509v3 Authority Key Identifier: 
                keyid:8F:23:2D:B6:8F:AA:28:10:5C:92:C2:AD:60:28:2A:E3:23:F9:11:CA
                DirName:/CN=team213-net
                serial:52:A8:B8:E8:B4:B2:86:7E:14:76:25:25:6B:81:0E:38:1C:60:B8:56
            X509v3 Extended Key Usage: 
                TLS Web Server Authentication
            X509v3 Key Usage: 
                Digital Signature, Key Encipherment
            X509v3 Subject Alternative Name: 
                DNS:team213-server
    Signature Algorithm: sha256WithRSAEncryption
    Signature Value:
        b3:29:eb:60:34:5b:7f:7d:18:07:90:66:79:9e:12:81:99:0d:
        c0:05:a7:43:69:c3:49:e9:ef:1a:cd:61:27:48:2b:4f:57:51:
        2f:c9:eb:31:81:2b:87:27:d7:06:0e:ae:ed:fa:25:64:b8:a8:
        e0:16:6c:c4:5e:8a:48:bc:53:59:91:cd:c9:a1:c0:6b:48:aa:
        0c:f1:62:60:cf:a7:a8:24:63:13:b7:52:9b:da:3e:d6:a2:41:
        87:6c:de:83:51:e5:6a:85:01:3c:d4:de:b1:87:28:ad:72:be:
        0f:40:2b:01:e8:bf:73:b1:e8:20:8d:e5:07:7e:85:52:11:c5:
        4a:8a:0f:af:57:b0:a7:e5:49:e8:39:c5:6f:41:a1:c4:09:e9:
        6e:74:1d:5b:91:39:e1:21:26:73:a2:7b:14:fa:66:15:d8:cb:
        15:d4:f0:4d:a0:07:76:59:33:2c:0a:19:39:fe:c9:6d:5b:b3:
        54:22:89:e5:53:ac:7a:a7:71:05:9a:51:5d:d7:8b:24:1a:2d:
        c5:e5:aa:67:90:05:61:81:60:c0:37:8c:c6:c8:6d:31:63:e4:
        88:b5:c7:76:ef:86:b3:07:89:68:8b:be:08:f2:aa:76:f4:c3:
        d1:46:b1:8b:7b:46:2b:ff:f2:23:a8:7d:9b:50:ed:0a:f6:d8:
        c3:15:9b:d5
-----BEGIN CERTIFICATE-----
MIIDeDCCAmCgAwIBAgIRAIF6Ik9luiLa/OKkf2zbuh4wDQYJKoZIhvcNAQELBQAw
FjEUMBIGA1UEAwwLdGVhbTIxMy1uZXQwHhcNMjMxMTA0MTEzMTQ5WhcNMjYxMDE5
MTEzMTQ5WjAZMRcwFQYDVQQDDA50ZWFtMjEzLXNlcnZlcjCCASIwDQYJKoZIhvcN
AQEBBQADggEPADCCAQoCggEBAJReYn1qrYI6oZNpMVx7Hi6Umu/7RYySZGUjR7LI
0Q/UoE5CFumCmmvkT7ahDS632ebZpVAZhNNDj4tpfggwbTBMmlKanmw5smbvN7Yt
QfKLIbUHQ+SHnoMXLjhapj/vQxffQr2+qMvhI8WBGNdTJbzEa+/yjt4lZiZifqhv
pCe/Sai/onEKORPGo9EAFfW2/ecek0VZMbM7X4p6qQvc+9ABNcy/x/CjEbvY+l1L
x/UspORvBe22iOmq/yWtxtM6duZmRM+qrx6r5Tp4Wl47cuUZX0HsOJGdfEbGkGWt
n688WAB/WTsM+AkcOm+tnfagk5rg2HtHk3LqjUQIUQR3BkECAwEAAaOBvTCBujAJ
BgNVHRMEAjAAMB0GA1UdDgQWBBSxKWqvODThW5dth7gp/Ne8fB5Z+zBRBgNVHSME
SjBIgBSPIy22j6ooEFySwq1gKCrjI/kRyqEapBgwFjEUMBIGA1UEAwwLdGVhbTIx
My1uZXSCFFKouOi0soZ+FHYlJWuBDjgcYLhWMBMGA1UdJQQMMAoGCCsGAQUFBwMB
MAsGA1UdDwQEAwIFoDAZBgNVHREEEjAQgg50ZWFtMjEzLXNlcnZlcjANBgkqhkiG
9w0BAQsFAAOCAQEAsynrYDRbf30YB5BmeZ4SgZkNwAWnQ2nDSenvGs1hJ0grT1dR
L8nrMYErhyfXBg6u7folZLio4BZsxF6KSLxTWZHNyaHAa0iqDPFiYM+nqCRjE7dS
m9o+1qJBh2zeg1HlaoUBPNTesYcorXK+D0ArAei/c7HoII3lB36FUhHFSooPr1ew
p+VJ6DnFb0GhxAnpbnQdW5E54SEmc6J7FPpmFdjLFdTwTaAHdlkzLAoZOf7JbVuz
VCKJ5VOseqdxBZpRXdeLJBotxeWqZ5AFYYFgwDeMxshtMWPkiLXHdu+GsweJaIu+
CPKqdvTD0Uaxi3tGK//yI6h9m1DtCvbYwxWb1Q==
-----END CERTIFICATE-----
