Certificate:
    Data:
        Version: 3 (0x2)
        Serial Number:
            f9:c4:9f:7f:33:4f:f7:97:23:3a:32:a0:4d:7a:de:d3
        Signature Algorithm: sha256WithRSAEncryption
        Issuer: CN=team213-net
        Validity
            Not Before: Nov  4 10:44:37 2023 GMT
            Not After : Oct 19 10:44:37 2026 GMT
        Subject: CN=team213-client
        Subject Public Key Info:
            Public Key Algorithm: rsaEncryption
                Public-Key: (2048 bit)
                Modulus:
                    00:ac:03:4f:0d:0d:3d:84:b5:fd:c6:87:87:49:20:
                    7d:cb:ab:ce:bb:e4:48:3c:f3:cb:bf:9c:37:1a:34:
                    9e:53:0a:e5:dc:1f:e7:2b:91:6c:0f:d5:36:fd:4d:
                    48:d9:1f:5a:fe:82:24:f9:ef:ba:0b:73:fa:47:6f:
                    b1:fa:c7:cf:2f:6a:4e:64:1b:ae:c3:ae:a9:30:bc:
                    dc:9d:ba:b7:d2:7c:6a:fb:25:93:93:ad:e0:b1:44:
                    99:40:9a:b3:fc:52:14:74:08:81:b3:06:d3:52:79:
                    ce:1c:a1:08:cd:48:39:5d:ef:40:96:cc:08:da:9d:
                    d1:27:06:df:b5:f5:62:7d:f8:58:96:eb:e2:c5:60:
                    4a:22:48:26:75:84:6a:1a:43:3b:8f:ae:07:d6:4c:
                    d1:1b:4e:7c:03:69:89:bf:41:fe:df:79:f8:85:44:
                    f1:f2:cc:02:55:26:7c:77:91:db:8b:91:0d:24:49:
                    d7:e9:0b:05:c7:c2:1f:22:ec:ad:46:0c:5e:6a:64:
                    76:a1:ad:99:e4:08:83:e8:ac:0a:92:49:42:04:b0:
                    21:ec:90:1f:ba:49:50:3d:1a:0c:4c:fd:77:ff:c4:
                    c2:61:99:85:5a:be:dc:ca:0d:2f:a3:51:51:a2:69:
                    4c:c1:14:24:28:be:00:38:6d:2a:ce:ef:99:2d:81:
                    29:11
                Exponent: 65537 (0x10001)
        X509v3 extensions:
            X509v3 Basic Constraints: 
                CA:FALSE
            X509v3 Subject Key Identifier: 
                C9:E4:86:A9:18:00:19:83:14:0A:90:07:26:5C:52:E7:F7:6F:61:15
            X509v3 Authority Key Identifier: 
                keyid:79:A6:BB:8A:58:25:94:C0:07:4D:C6:E1:63:54:EF:D8:EA:99:DA:C4
                DirName:/CN=team213-net
                serial:27:C9:E8:B9:92:9E:75:B7:1F:42:CD:8D:96:C9:97:84:85:43:D9:0A
            X509v3 Extended Key Usage: 
                TLS Web Client Authentication
            X509v3 Key Usage: 
                Digital Signature
    Signature Algorithm: sha256WithRSAEncryption
    Signature Value:
        37:bd:23:2c:98:7e:17:d9:45:ec:91:7a:b7:fa:0e:98:3d:f1:
        2e:f6:ca:ae:ed:60:0b:58:7a:67:46:b1:7e:97:4f:f0:59:9a:
        9b:bf:cf:c3:65:3d:f3:0b:bd:d4:c8:64:21:96:c6:a7:98:27:
        a3:6a:3e:35:96:2d:2c:23:3b:21:1e:31:96:63:f1:42:21:42:
        66:54:95:96:9b:8d:38:3f:6b:82:a9:74:20:09:17:35:ec:cd:
        c9:e5:bc:c2:83:4d:24:fc:6d:f2:76:91:e1:3f:d1:3a:a4:f1:
        32:a9:a1:5d:13:ff:ad:db:57:38:b1:1f:21:10:91:8f:66:d3:
        12:68:24:64:a1:fc:77:34:0c:6d:24:48:d0:01:29:df:b8:3b:
        c5:61:93:a4:0b:07:49:79:a8:bf:77:82:25:7e:4e:8c:dd:19:
        49:7f:cc:06:0b:ba:e3:3f:6a:68:bd:95:62:4c:d1:23:e2:ca:
        09:bf:aa:a4:cc:cf:bc:47:9d:e8:46:b1:ab:34:7b:b7:86:7f:
        91:f1:4c:24:91:7d:09:59:db:fe:0b:02:34:d4:23:53:4c:bb:
        50:8d:6d:16:d7:2c:ab:60:96:65:79:45:e9:59:08:7c:96:dc:
        05:c0:55:26:c5:58:99:f4:c4:1c:e8:18:aa:cc:0a:e9:63:6a:
        45:b5:a9:35
-----BEGIN CERTIFICATE-----
MIIDXTCCAkWgAwIBAgIRAPnEn38zT/eXIzoyoE163tMwDQYJKoZIhvcNAQELBQAw
FjEUMBIGA1UEAwwLdGVhbTIxMy1uZXQwHhcNMjMxMTA0MTA0NDM3WhcNMjYxMDE5
MTA0NDM3WjAZMRcwFQYDVQQDDA50ZWFtMjEzLWNsaWVudDCCASIwDQYJKoZIhvcN
AQEBBQADggEPADCCAQoCggEBAKwDTw0NPYS1/caHh0kgfcurzrvkSDzzy7+cNxo0
nlMK5dwf5yuRbA/VNv1NSNkfWv6CJPnvugtz+kdvsfrHzy9qTmQbrsOuqTC83J26
t9J8avslk5Ot4LFEmUCas/xSFHQIgbMG01J5zhyhCM1IOV3vQJbMCNqd0ScG37X1
Yn34WJbr4sVgSiJIJnWEahpDO4+uB9ZM0RtOfANpib9B/t95+IVE8fLMAlUmfHeR
24uRDSRJ1+kLBcfCHyLsrUYMXmpkdqGtmeQIg+isCpJJQgSwIeyQH7pJUD0aDEz9
d//EwmGZhVq+3MoNL6NRUaJpTMEUJCi+ADhtKs7vmS2BKRECAwEAAaOBojCBnzAJ
BgNVHRMEAjAAMB0GA1UdDgQWBBTJ5IapGAAZgxQKkAcmXFLn929hFTBRBgNVHSME
SjBIgBR5pruKWCWUwAdNxuFjVO/Y6pnaxKEapBgwFjEUMBIGA1UEAwwLdGVhbTIx
My1uZXSCFCfJ6LmSnnW3H0LNjZbJl4SFQ9kKMBMGA1UdJQQMMAoGCCsGAQUFBwMC
MAsGA1UdDwQEAwIHgDANBgkqhkiG9w0BAQsFAAOCAQEAN70jLJh+F9lF7JF6t/oO
mD3xLvbKru1gC1h6Z0axfpdP8Fmam7/Pw2U98wu91MhkIZbGp5gno2o+NZYtLCM7
IR4xlmPxQiFCZlSVlpuNOD9rgql0IAkXNezNyeW8woNNJPxt8naR4T/ROqTxMqmh
XRP/rdtXOLEfIRCRj2bTEmgkZKH8dzQMbSRI0AEp37g7xWGTpAsHSXmov3eCJX5O
jN0ZSX/MBgu64z9qaL2VYkzRI+LKCb+qpMzPvEed6EaxqzR7t4Z/kfFMJJF9CVnb
/gsCNNQjU0y7UI1tFtcsq2CWZXlF6VkIfJbcBcBVJsVYmfTEHOgYqswK6WNqRbWp
NQ==
-----END CERTIFICATE-----
