Certificate:
    Data:
        Version: 3 (0x2)
        Serial Number:
            1d:6c:25:9e:5f:30:97:22:30:24:73:9f:7e:17:74:c5
        Signature Algorithm: sha256WithRSAEncryption
        Issuer: CN=team27-net
        Validity
            Not Before: Nov  3 20:39:44 2023 GMT
            Not After : Oct 18 20:39:44 2026 GMT
        Subject: CN=team27-server
        Subject Public Key Info:
            Public Key Algorithm: rsaEncryption
                Public-Key: (2048 bit)
                Modulus:
                    00:93:4f:92:e9:d1:b9:40:8d:1f:62:e6:e5:41:26:
                    46:62:00:0a:4c:42:1f:2d:67:49:e4:82:09:c0:e4:
                    55:c0:8e:a1:fe:b3:fc:79:20:23:00:b9:9d:1b:a7:
                    4f:f7:70:01:6e:da:68:14:89:ac:05:e1:37:2b:c9:
                    98:cf:36:bb:f1:a5:8c:f3:eb:cb:32:ad:c5:b9:62:
                    b7:61:c7:1b:c9:55:36:a0:bd:6d:77:26:2e:de:de:
                    56:a4:d6:95:50:f6:ae:9b:ce:f4:ff:6e:3c:45:d6:
                    97:bb:d4:b6:2d:6c:68:ce:df:63:7b:12:8d:8c:50:
                    ca:24:33:9f:34:f8:3e:2d:fc:40:f7:7a:0a:2d:39:
                    03:e0:b7:aa:14:b8:7f:db:14:8e:9b:50:fb:af:16:
                    0b:fb:2e:e0:92:0d:fa:c1:41:79:cc:9a:c8:33:0f:
                    ae:8e:0f:26:a7:91:f5:4c:05:69:20:fa:d7:cf:06:
                    c1:5f:44:29:99:f3:0b:9b:22:5e:36:41:c5:3c:ad:
                    af:d5:3e:be:5f:1a:00:d2:05:41:66:eb:05:19:40:
                    48:83:ad:4a:db:2a:ab:cc:e0:c3:36:7a:11:15:6b:
                    e0:7f:52:ed:a2:44:6e:be:78:69:e2:2b:7a:52:d0:
                    cd:84:a7:5d:e0:0f:94:9c:80:2d:bc:b7:9e:a5:2c:
                    18:29
                Exponent: 65537 (0x10001)
        X509v3 extensions:
            X509v3 Basic Constraints: 
                CA:FALSE
            X509v3 Subject Key Identifier: 
                19:C8:D7:C3:22:C5:5B:35:9E:29:2D:00:5A:CC:88:A7:41:2C:B7:43
            X509v3 Authority Key Identifier: 
                keyid:76:53:ED:BD:FC:FC:0F:53:FA:39:32:BE:36:1C:5C:3C:7E:F9:29:2C
                DirName:/CN=team27-net
                serial:2B:A2:5E:65:3C:A9:E8:53:E9:57:50:08:45:37:B0:3A:78:44:CF:8D
            X509v3 Extended Key Usage: 
                TLS Web Server Authentication
            X509v3 Key Usage: 
                Digital Signature, Key Encipherment
            X509v3 Subject Alternative Name: 
                DNS:team27-server
    Signature Algorithm: sha256WithRSAEncryption
    Signature Value:
        88:a2:14:26:85:3d:3d:4e:4d:74:67:6a:9d:58:48:fe:88:a3:
        7a:89:ae:07:db:6a:0c:43:22:79:2e:33:80:b5:ef:3e:77:0d:
        62:74:45:2d:44:6a:a9:93:cf:4e:af:64:63:93:d2:65:af:96:
        1d:99:e2:c6:37:a1:97:e5:4c:69:40:79:2c:7c:d4:3a:9e:fb:
        92:0c:4d:2d:b2:69:1e:06:d8:11:b7:76:e0:1a:49:a7:b8:b2:
        f7:88:bf:f0:c5:d9:c8:27:e0:02:1e:05:19:74:b2:55:73:71:
        3a:a8:a7:d2:ce:47:7d:cb:3c:f8:bd:e3:5f:60:eb:6a:91:5a:
        fb:4f:28:21:00:24:99:0a:2c:ac:09:70:a1:ed:81:14:3a:f4:
        96:ec:8f:ac:8b:fb:78:c4:2b:03:31:97:cc:ba:23:10:f9:b1:
        72:db:b2:43:77:58:fb:b3:a4:cb:2e:79:16:7b:84:1f:f9:15:
        ab:9c:a4:6f:c1:3e:d5:cc:13:eb:02:f2:23:7a:aa:72:06:73:
        7c:da:bb:e9:dc:b4:26:c1:f5:e3:6a:5a:6f:23:43:62:00:d7:
        41:69:ce:a6:02:a4:e8:e5:eb:0a:d3:2f:1d:52:0d:b5:fb:11:
        0b:21:8c:79:77:86:2c:49:59:c4:fc:3a:5e:c7:84:b7:7f:1d:
        4f:96:7e:ba
-----BEGIN CERTIFICATE-----
MIIDczCCAlugAwIBAgIQHWwlnl8wlyIwJHOffhd0xTANBgkqhkiG9w0BAQsFADAV
MRMwEQYDVQQDDAp0ZWFtMjctbmV0MB4XDTIzMTEwMzIwMzk0NFoXDTI2MTAxODIw
Mzk0NFowGDEWMBQGA1UEAwwNdGVhbTI3LXNlcnZlcjCCASIwDQYJKoZIhvcNAQEB
BQADggEPADCCAQoCggEBAJNPkunRuUCNH2Lm5UEmRmIACkxCHy1nSeSCCcDkVcCO
of6z/HkgIwC5nRunT/dwAW7aaBSJrAXhNyvJmM82u/GljPPryzKtxblit2HHG8lV
NqC9bXcmLt7eVqTWlVD2rpvO9P9uPEXWl7vUti1saM7fY3sSjYxQyiQznzT4Pi38
QPd6Ci05A+C3qhS4f9sUjptQ+68WC/su4JIN+sFBecyayDMPro4PJqeR9UwFaSD6
188GwV9EKZnzC5siXjZBxTytr9U+vl8aANIFQWbrBRlASIOtStsqq8zgwzZ6ERVr
4H9S7aJEbr54aeIrelLQzYSnXeAPlJyALby3nqUsGCkCAwEAAaOBuzCBuDAJBgNV
HRMEAjAAMB0GA1UdDgQWBBQZyNfDIsVbNZ4pLQBazIinQSy3QzBQBgNVHSMESTBH
gBR2U+29/PwPU/o5Mr42HFw8fvkpLKEZpBcwFTETMBEGA1UEAwwKdGVhbTI3LW5l
dIIUK6JeZTyp6FPpV1AIRTewOnhEz40wEwYDVR0lBAwwCgYIKwYBBQUHAwEwCwYD
VR0PBAQDAgWgMBgGA1UdEQQRMA+CDXRlYW0yNy1zZXJ2ZXIwDQYJKoZIhvcNAQEL
BQADggEBAIiiFCaFPT1OTXRnap1YSP6Io3qJrgfbagxDInkuM4C17z53DWJ0RS1E
aqmTz06vZGOT0mWvlh2Z4sY3oZflTGlAeSx81Dqe+5IMTS2yaR4G2BG3duAaSae4
sveIv/DF2cgn4AIeBRl0slVzcTqop9LOR33LPPi9419g62qRWvtPKCEAJJkKLKwJ
cKHtgRQ69Jbsj6yL+3jEKwMxl8y6IxD5sXLbskN3WPuzpMsueRZ7hB/5FaucpG/B
PtXME+sC8iN6qnIGc3zau+nctCbB9eNqWm8jQ2IA10FpzqYCpOjl6wrTLx1SDbX7
EQshjHl3hixJWcT8Ol7HhLd/HU+Wfro=
-----END CERTIFICATE-----
