Certificate:
    Data:
        Version: 3 (0x2)
        Serial Number:
            5f:77:45:44:3f:b3:f8:81:6c:50:7a:ea:d1:00:3e:dc
        Signature Algorithm: sha256WithRSAEncryption
        Issuer: CN=team27-net
        Validity
            Not Before: Nov  3 20:39:43 2023 GMT
            Not After : Oct 18 20:39:43 2026 GMT
        Subject: CN=team27-client
        Subject Public Key Info:
            Public Key Algorithm: rsaEncryption
                Public-Key: (2048 bit)
                Modulus:
                    00:b2:58:e2:18:7e:9b:7b:9c:97:31:8a:68:9e:9d:
                    60:0f:04:0d:54:0c:f7:05:85:f9:1c:70:17:b2:10:
                    0f:6b:f3:2e:cd:f3:82:74:a7:5c:3c:86:f5:e0:1d:
                    78:d4:3b:c6:d7:99:a8:98:89:34:26:fd:fa:72:7f:
                    88:70:b3:d9:c4:ef:eb:a1:d6:e2:f8:dd:57:a3:95:
                    cf:59:4e:11:9e:fe:8e:2f:73:0d:16:f6:70:29:f3:
                    2a:a1:ae:6b:4f:d4:81:7f:46:fb:30:0a:08:be:06:
                    b8:96:2d:05:80:93:c0:5f:b3:6a:27:5f:a8:dc:dd:
                    1f:3d:1b:ab:5c:b5:f8:27:cc:1d:fe:59:b1:93:8f:
                    e5:e6:45:90:b4:f5:78:fe:63:91:72:0c:bb:6d:f4:
                    a3:59:6d:cc:a9:0f:b0:80:3d:96:ed:3e:c5:c2:4d:
                    b5:39:a2:5c:7f:bf:d6:da:87:0c:eb:ac:41:4e:ae:
                    19:5c:0e:50:1b:12:50:1f:6e:7b:8a:13:0b:dd:09:
                    cb:2c:09:ec:76:0f:b1:30:dc:5e:4b:2d:81:95:48:
                    7d:f1:d2:b8:69:81:a7:0c:6d:88:f8:99:1f:b5:d4:
                    79:ac:00:04:7b:0f:b0:fd:60:34:6b:e3:a2:5a:eb:
                    d3:18:97:0c:c9:16:51:1e:9e:94:88:2a:9b:37:d9:
                    09:09
                Exponent: 65537 (0x10001)
        X509v3 extensions:
            X509v3 Basic Constraints: 
                CA:FALSE
            X509v3 Subject Key Identifier: 
                9D:C9:C4:D5:79:27:C6:B4:87:F6:BA:7C:41:74:15:80:AF:B3:D6:82
            X509v3 Authority Key Identifier: 
                keyid:76:53:ED:BD:FC:FC:0F:53:FA:39:32:BE:36:1C:5C:3C:7E:F9:29:2C
                DirName:/CN=team27-net
                serial:2B:A2:5E:65:3C:A9:E8:53:E9:57:50:08:45:37:B0:3A:78:44:CF:8D
            X509v3 Extended Key Usage: 
                TLS Web Client Authentication
            X509v3 Key Usage: 
                Digital Signature
    Signature Algorithm: sha256WithRSAEncryption
    Signature Value:
        26:fa:47:fb:98:47:0a:5c:64:29:87:40:09:8e:b8:9e:20:cd:
        66:ca:73:b6:d5:b6:95:d6:1b:4a:96:19:9b:a0:90:9e:fa:f9:
        16:93:ac:28:24:5c:c9:51:ca:2a:72:a8:67:6d:23:27:6c:95:
        28:24:c5:bb:24:80:b4:46:ea:bc:71:10:a5:ef:2c:5d:81:d6:
        10:b7:1a:02:9c:79:9d:73:70:28:b1:6a:b2:ec:21:60:87:35:
        18:e3:c9:f9:37:56:84:87:d6:b9:ad:19:ea:fa:c7:53:49:b7:
        ca:82:8e:9e:13:c3:63:eb:0d:e2:7d:a4:a4:5c:63:4b:5a:6c:
        81:fe:74:5c:62:bd:46:2b:89:0d:42:58:c0:3f:71:55:46:d1:
        1b:e6:09:d0:c4:6e:6f:6e:85:60:f1:51:f8:6e:88:16:bb:c4:
        1d:fd:92:3d:e2:0e:f0:ec:39:5c:79:87:8b:69:f1:a4:8c:d0:
        d7:52:89:93:47:dc:4f:f7:57:ac:7a:35:57:52:0f:fd:0b:e0:
        6e:7c:38:61:1b:f5:e1:67:1e:db:4a:fa:e8:57:91:17:3d:eb:
        9e:c3:5d:71:82:fa:35:c1:41:85:ce:81:fa:89:79:99:98:a5:
        a5:fb:35:19:4f:7b:d8:9e:34:14:5b:af:73:fe:4f:bd:40:8c:
        23:25:bb:bc
-----BEGIN CERTIFICATE-----
MIIDWTCCAkGgAwIBAgIQX3dFRD+z+IFsUHrq0QA+3DANBgkqhkiG9w0BAQsFADAV
MRMwEQYDVQQDDAp0ZWFtMjctbmV0MB4XDTIzMTEwMzIwMzk0M1oXDTI2MTAxODIw
Mzk0M1owGDEWMBQGA1UEAwwNdGVhbTI3LWNsaWVudDCCASIwDQYJKoZIhvcNAQEB
BQADggEPADCCAQoCggEBALJY4hh+m3uclzGKaJ6dYA8EDVQM9wWF+RxwF7IQD2vz
Ls3zgnSnXDyG9eAdeNQ7xteZqJiJNCb9+nJ/iHCz2cTv66HW4vjdV6OVz1lOEZ7+
ji9zDRb2cCnzKqGua0/UgX9G+zAKCL4GuJYtBYCTwF+zaidfqNzdHz0bq1y1+CfM
Hf5ZsZOP5eZFkLT1eP5jkXIMu230o1ltzKkPsIA9lu0+xcJNtTmiXH+/1tqHDOus
QU6uGVwOUBsSUB9ue4oTC90JyywJ7HYPsTDcXkstgZVIffHSuGmBpwxtiPiZH7XU
eawABHsPsP1gNGvjolrr0xiXDMkWUR6elIgqmzfZCQkCAwEAAaOBoTCBnjAJBgNV
HRMEAjAAMB0GA1UdDgQWBBSdycTVeSfGtIf2unxBdBWAr7PWgjBQBgNVHSMESTBH
gBR2U+29/PwPU/o5Mr42HFw8fvkpLKEZpBcwFTETMBEGA1UEAwwKdGVhbTI3LW5l
dIIUK6JeZTyp6FPpV1AIRTewOnhEz40wEwYDVR0lBAwwCgYIKwYBBQUHAwIwCwYD
VR0PBAQDAgeAMA0GCSqGSIb3DQEBCwUAA4IBAQAm+kf7mEcKXGQph0AJjrieIM1m
ynO21baV1htKlhmboJCe+vkWk6woJFzJUcoqcqhnbSMnbJUoJMW7JIC0Ruq8cRCl
7yxdgdYQtxoCnHmdc3AosWqy7CFghzUY48n5N1aEh9a5rRnq+sdTSbfKgo6eE8Nj
6w3ifaSkXGNLWmyB/nRcYr1GK4kNQljAP3FVRtEb5gnQxG5vboVg8VH4bogWu8Qd
/ZI94g7w7DlceYeLafGkjNDXUomTR9xP91esejVXUg/9C+BufDhhG/XhZx7bSvro
V5EXPeuew11xgvo1wUGFzoH6iXmZmKWl+zUZT3vYnjQUW69z/k+9QIwjJbu8
-----END CERTIFICATE-----
