Certificate:
    Data:
        Version: 3 (0x2)
        Serial Number:
            21:c2:1d:ae:74:5a:9d:b2:22:09:32:82:0a:24:f7:de
        Signature Algorithm: sha256WithRSAEncryption
        Issuer: CN=team307-net
        Validity
            Not Before: Nov  3 20:44:51 2023 GMT
            Not After : Oct 18 20:44:51 2026 GMT
        Subject: CN=team307-server
        Subject Public Key Info:
            Public Key Algorithm: rsaEncryption
                Public-Key: (2048 bit)
                Modulus:
                    00:9c:b9:0c:bb:76:a8:e1:c3:54:11:6b:c6:4e:ef:
                    ce:1b:cc:b6:03:a6:59:83:b9:35:7f:ec:4f:0d:2f:
                    8f:c7:f7:18:33:39:30:7f:8d:bc:f8:ed:4b:2f:a8:
                    82:e5:ac:75:2c:e6:e4:a9:82:a6:af:9c:e5:7e:6b:
                    dd:94:39:4a:fa:d7:34:5f:a0:04:eb:16:91:a5:1f:
                    af:98:82:f7:2b:74:6a:68:d8:4d:19:51:30:b8:8b:
                    5e:b5:e2:c8:c7:b9:ee:fa:11:72:0d:e0:26:ee:4d:
                    fb:6c:a1:55:c5:07:f1:b3:c5:e9:30:38:a6:62:fe:
                    95:44:09:78:5f:d2:27:01:c6:d0:2d:62:48:36:06:
                    90:3d:f2:68:aa:ea:82:d1:b0:d3:3b:5f:04:c0:1e:
                    4b:61:c1:ea:84:11:dd:63:8a:63:4e:7e:45:61:2c:
                    08:7f:b0:5c:b7:2f:e0:6a:6e:8b:cb:39:68:e6:e8:
                    41:c5:3e:ca:79:61:0d:39:74:5f:3a:b6:80:7b:19:
                    80:eb:6c:27:9b:2c:fe:9f:eb:2d:f9:7c:7c:5f:3b:
                    38:99:6c:af:18:46:92:fc:f3:8a:cb:04:56:c4:0c:
                    c8:1a:45:34:53:80:23:85:dc:7c:36:fc:4b:04:cc:
                    42:74:de:c8:81:88:c7:dd:60:7d:cc:50:52:21:34:
                    34:b9
                Exponent: 65537 (0x10001)
        X509v3 extensions:
            X509v3 Basic Constraints: 
                CA:FALSE
            X509v3 Subject Key Identifier: 
                4C:5A:CD:03:80:B6:04:CD:53:DA:90:3C:D6:EE:0B:B1:AC:3B:E7:67
            X509v3 Authority Key Identifier: 
                keyid:F6:95:6D:12:DF:7D:EE:DB:B0:D0:27:75:A3:94:6C:79:B9:4C:2C:75
                DirName:/CN=team307-net
                serial:10:5E:DA:62:58:51:AF:C4:6D:D2:9D:C8:23:8D:B2:D0:28:A3:38:A8
            X509v3 Extended Key Usage: 
                TLS Web Server Authentication
            X509v3 Key Usage: 
                Digital Signature, Key Encipherment
            X509v3 Subject Alternative Name: 
                DNS:team307-server
    Signature Algorithm: sha256WithRSAEncryption
    Signature Value:
        c4:2c:31:80:35:a7:6c:24:f4:15:b3:ed:95:a3:8e:be:7c:69:
        ab:c2:cb:60:24:ae:b9:49:09:4e:a4:a3:cf:0d:e7:46:3f:6b:
        ce:ec:a2:30:fe:e5:e1:9e:15:bf:5c:95:bd:51:79:b3:05:cc:
        1a:4b:bd:68:bb:37:db:95:2a:de:cc:a9:6f:6b:7e:d3:fa:00:
        6e:b5:45:ee:3d:af:be:be:f9:a8:9b:58:47:23:f7:40:90:24:
        a1:5a:21:5e:7b:45:a5:1e:af:06:f0:ed:e3:1b:88:45:30:76:
        b5:cb:2f:49:49:3a:85:41:30:66:f3:24:35:ea:8d:09:0c:6b:
        b2:0c:e5:5f:3c:b5:54:2a:f3:3c:8c:10:46:9e:49:a3:ea:c9:
        55:1f:1f:2e:b8:4c:c2:73:15:a5:9e:05:b9:92:b9:9d:ce:76:
        13:5f:79:b0:84:56:a9:54:23:d2:05:94:42:72:5d:4b:26:18:
        0d:33:62:28:75:20:9e:d2:95:d5:e7:b1:6b:bd:21:49:d8:73:
        f1:8e:ce:e8:3c:24:8e:ba:ff:12:bd:1c:e0:eb:d3:95:82:d2:
        9f:2c:13:6e:57:4a:8a:1d:80:9f:fd:36:95:5a:3d:4a:9b:df:
        98:64:d8:e5:50:32:d8:e5:d8:fa:4c:04:3d:4a:a2:7d:2d:27:
        81:5d:84:5e
-----BEGIN CERTIFICATE-----
MIIDdzCCAl+gAwIBAgIQIcIdrnRanbIiCTKCCiT33jANBgkqhkiG9w0BAQsFADAW
MRQwEgYDVQQDDAt0ZWFtMzA3LW5ldDAeFw0yMzExMDMyMDQ0NTFaFw0yNjEwMTgy
MDQ0NTFaMBkxFzAVBgNVBAMMDnRlYW0zMDctc2VydmVyMIIBIjANBgkqhkiG9w0B
AQEFAAOCAQ8AMIIBCgKCAQEAnLkMu3ao4cNUEWvGTu/OG8y2A6ZZg7k1f+xPDS+P
x/cYMzkwf428+O1LL6iC5ax1LObkqYKmr5zlfmvdlDlK+tc0X6AE6xaRpR+vmIL3
K3RqaNhNGVEwuIteteLIx7nu+hFyDeAm7k37bKFVxQfxs8XpMDimYv6VRAl4X9In
AcbQLWJINgaQPfJoquqC0bDTO18EwB5LYcHqhBHdY4pjTn5FYSwIf7Bcty/gam6L
yzlo5uhBxT7KeWENOXRfOraAexmA62wnmyz+n+st+Xx8Xzs4mWyvGEaS/POKywRW
xAzIGkU0U4Ajhdx8NvxLBMxCdN7IgYjH3WB9zFBSITQ0uQIDAQABo4G9MIG6MAkG
A1UdEwQCMAAwHQYDVR0OBBYEFExazQOAtgTNU9qQPNbuC7GsO+dnMFEGA1UdIwRK
MEiAFPaVbRLffe7bsNAndaOUbHm5TCx1oRqkGDAWMRQwEgYDVQQDDAt0ZWFtMzA3
LW5ldIIUEF7aYlhRr8Rt0p3II42y0CijOKgwEwYDVR0lBAwwCgYIKwYBBQUHAwEw
CwYDVR0PBAQDAgWgMBkGA1UdEQQSMBCCDnRlYW0zMDctc2VydmVyMA0GCSqGSIb3
DQEBCwUAA4IBAQDELDGANadsJPQVs+2Vo46+fGmrwstgJK65SQlOpKPPDedGP2vO
7KIw/uXhnhW/XJW9UXmzBcwaS71ouzfblSrezKlva37T+gButUXuPa++vvmom1hH
I/dAkCShWiFee0WlHq8G8O3jG4hFMHa1yy9JSTqFQTBm8yQ16o0JDGuyDOVfPLVU
KvM8jBBGnkmj6slVHx8uuEzCcxWlngW5krmdznYTX3mwhFapVCPSBZRCcl1LJhgN
M2IodSCe0pXV57FrvSFJ2HPxjs7oPCSOuv8SvRzg69OVgtKfLBNuV0qKHYCf/TaV
Wj1Km9+YZNjlUDLY5dj6TAQ9SqJ9LSeBXYRe
-----END CERTIFICATE-----
