Certificate:
    Data:
        Version: 3 (0x2)
        Serial Number:
            e6:7d:f1:ad:56:f9:24:be:74:dd:2a:ca:cf:e4:f2:07
        Signature Algorithm: sha256WithRSAEncryption
        Issuer: CN=team307-net
        Validity
            Not Before: Nov  4 11:34:08 2023 GMT
            Not After : Oct 19 11:34:08 2026 GMT
        Subject: CN=team307-client
        Subject Public Key Info:
            Public Key Algorithm: rsaEncryption
                Public-Key: (2048 bit)
                Modulus:
                    00:ca:80:37:70:6d:44:c0:d0:1a:e5:3c:60:e0:55:
                    dc:e7:a5:2d:50:73:7e:2c:e9:66:fa:3f:e9:a5:d6:
                    73:61:cd:45:81:54:c6:8a:91:2b:1f:e6:e2:5b:c9:
                    1b:db:9f:ee:e7:57:53:ba:04:3f:4c:08:65:f7:54:
                    c5:3c:86:77:5f:f0:8a:17:b2:7c:d4:52:b3:68:96:
                    a0:78:98:7f:6b:bf:40:80:85:05:c5:30:ac:53:f0:
                    9f:f9:cc:be:62:6e:69:20:66:fa:60:5d:1a:69:9d:
                    81:f4:37:e0:85:c2:6a:a8:61:74:f9:32:dd:90:64:
                    19:45:cf:5c:5b:e9:cc:2e:4d:73:07:5c:06:25:21:
                    7f:4f:6c:79:36:cb:ed:7b:4f:30:2b:be:a2:3f:c1:
                    34:16:97:5d:f7:e3:7a:e8:e6:52:6c:e0:76:69:66:
                    ab:33:a2:54:55:8b:75:ef:91:9b:24:31:8b:21:f0:
                    11:bc:95:81:8a:dd:7c:92:2e:fb:d3:62:40:55:67:
                    87:b2:ce:12:2e:72:e6:b5:49:ab:08:0d:46:5d:2d:
                    dc:11:46:aa:fc:a3:26:b4:19:fc:61:96:a4:0d:ef:
                    98:ce:5a:2b:38:84:91:32:f9:f0:48:e6:1c:bc:a6:
                    75:aa:6e:5e:96:f3:ef:46:43:f6:4a:56:f9:7d:68:
                    15:89
                Exponent: 65537 (0x10001)
        X509v3 extensions:
            X509v3 Basic Constraints: 
                CA:FALSE
            X509v3 Subject Key Identifier: 
                A0:72:26:28:64:6F:2F:66:37:CF:BD:40:78:C4:F4:04:1F:BB:5D:D0
            X509v3 Authority Key Identifier: 
                keyid:45:05:C3:DB:85:4E:F9:AC:E3:CB:0B:E3:F7:09:0A:6F:35:43:A4:22
                DirName:/CN=team307-net
                serial:42:80:27:08:60:92:DE:36:84:12:ED:5A:3C:2E:92:6C:82:1F:89:CF
            X509v3 Extended Key Usage: 
                TLS Web Client Authentication
            X509v3 Key Usage: 
                Digital Signature
    Signature Algorithm: sha256WithRSAEncryption
    Signature Value:
        57:82:f5:31:35:67:5b:0e:1b:e0:6c:43:93:fc:53:6c:ec:4e:
        72:0f:62:26:44:46:9c:92:e4:a3:48:8f:9c:14:19:aa:e5:45:
        e7:af:02:4d:91:8b:cd:a6:6c:18:3f:d9:82:c7:a3:c5:13:d2:
        df:70:9a:50:f1:36:e2:b4:23:69:36:7e:e2:6e:5a:3e:fa:6b:
        e8:15:66:30:70:7d:38:08:57:e1:a4:0a:b8:f3:ed:ca:e5:a1:
        00:6f:5a:54:8f:ed:7f:d1:92:d3:85:d0:d7:af:1e:3c:80:d9:
        bd:83:7d:66:d7:0f:cb:42:6c:17:6e:e3:0e:81:cb:18:16:e0:
        ef:72:1d:2b:ad:b9:2e:8f:c5:09:b9:fa:14:2c:b3:23:ed:a0:
        6d:19:f1:b6:03:06:27:2b:85:74:82:82:4e:4f:e2:3c:42:ac:
        a2:b6:3c:f7:1f:4a:04:b0:22:75:2a:3a:d9:b4:40:bd:5e:97:
        f1:e5:59:0f:06:3e:fd:e9:ad:dc:04:c0:b6:ec:08:43:a6:05:
        7e:6e:3e:ce:2e:4e:cf:fe:84:24:65:e2:1e:73:df:79:37:0f:
        27:56:58:0e:d6:10:0c:ec:27:94:7a:e0:d7:f6:99:98:f0:14:
        a1:cd:2d:4d:4e:bd:f4:3c:b9:a9:49:44:d1:e0:24:7b:f3:de:
        45:17:40:bd
-----BEGIN CERTIFICATE-----
MIIDXTCCAkWgAwIBAgIRAOZ98a1W+SS+dN0qys/k8gcwDQYJKoZIhvcNAQELBQAw
FjEUMBIGA1UEAwwLdGVhbTMwNy1uZXQwHhcNMjMxMTA0MTEzNDA4WhcNMjYxMDE5
MTEzNDA4WjAZMRcwFQYDVQQDDA50ZWFtMzA3LWNsaWVudDCCASIwDQYJKoZIhvcN
AQEBBQADggEPADCCAQoCggEBAMqAN3BtRMDQGuU8YOBV3OelLVBzfizpZvo/6aXW
c2HNRYFUxoqRKx/m4lvJG9uf7udXU7oEP0wIZfdUxTyGd1/wiheyfNRSs2iWoHiY
f2u/QICFBcUwrFPwn/nMvmJuaSBm+mBdGmmdgfQ34IXCaqhhdPky3ZBkGUXPXFvp
zC5NcwdcBiUhf09seTbL7XtPMCu+oj/BNBaXXffjeujmUmzgdmlmqzOiVFWLde+R
myQxiyHwEbyVgYrdfJIu+9NiQFVnh7LOEi5y5rVJqwgNRl0t3BFGqvyjJrQZ/GGW
pA3vmM5aKziEkTL58EjmHLymdapuXpbz70ZD9kpW+X1oFYkCAwEAAaOBojCBnzAJ
BgNVHRMEAjAAMB0GA1UdDgQWBBSgciYoZG8vZjfPvUB4xPQEH7td0DBRBgNVHSME
SjBIgBRFBcPbhU75rOPLC+P3CQpvNUOkIqEapBgwFjEUMBIGA1UEAwwLdGVhbTMw
Ny1uZXSCFEKAJwhgkt42hBLtWjwukmyCH4nPMBMGA1UdJQQMMAoGCCsGAQUFBwMC
MAsGA1UdDwQEAwIHgDANBgkqhkiG9w0BAQsFAAOCAQEAV4L1MTVnWw4b4GxDk/xT
bOxOcg9iJkRGnJLko0iPnBQZquVF568CTZGLzaZsGD/ZgsejxRPS33CaUPE24rQj
aTZ+4m5aPvpr6BVmMHB9OAhX4aQKuPPtyuWhAG9aVI/tf9GS04XQ168ePIDZvYN9
ZtcPy0JsF27jDoHLGBbg73IdK625Lo/FCbn6FCyzI+2gbRnxtgMGJyuFdIKCTk/i
PEKsorY89x9KBLAidSo62bRAvV6X8eVZDwY+/emt3ATAtuwIQ6YFfm4+zi5Oz/6E
JGXiHnPfeTcPJ1ZYDtYQDOwnlHrg1/aZmPAUoc0tTU699Dy5qUlE0eAke/PeRRdA
vQ==
-----END CERTIFICATE-----
