Certificate:
    Data:
        Version: 3 (0x2)
        Serial Number:
            f4:5f:ef:3e:0e:ca:98:35:45:f2:df:4c:40:75:f7:17
        Signature Algorithm: sha256WithRSAEncryption
        Issuer: CN=team307-net
        Validity
            Not Before: Nov  4 10:46:16 2023 GMT
            Not After : Oct 19 10:46:16 2026 GMT
        Subject: CN=team307-client
        Subject Public Key Info:
            Public Key Algorithm: rsaEncryption
                Public-Key: (2048 bit)
                Modulus:
                    00:a2:76:6b:08:66:a9:76:67:64:9f:42:40:e2:67:
                    20:78:42:1a:a4:03:76:af:5f:4b:6d:5b:58:21:58:
                    c9:2f:42:ee:be:67:75:3b:68:e8:c9:90:87:41:4e:
                    24:0a:8c:5d:da:cf:e7:df:9e:c4:4d:f3:b6:25:35:
                    80:ad:24:31:18:fc:26:b4:fe:d2:7a:da:d7:5a:1a:
                    4a:98:fb:79:41:ca:00:4c:e1:94:75:7f:e8:49:bc:
                    58:a6:d2:47:ba:e5:41:db:13:b0:65:c0:1d:88:ec:
                    3b:59:95:4a:40:c5:5a:20:b3:1c:09:16:f9:2b:35:
                    60:fa:73:2a:61:2a:15:71:86:b9:bb:80:cf:c8:85:
                    23:26:47:ce:56:ba:28:a9:b0:79:b9:64:68:83:c3:
                    7d:2f:b1:39:9a:b3:f5:8b:20:41:5c:fa:6d:18:a6:
                    3f:c7:78:66:9f:45:19:e7:24:d8:09:6c:4a:37:68:
                    b6:a0:a8:2d:87:4b:3b:18:3a:7b:1b:70:ac:40:fc:
                    6a:da:a7:7c:de:e7:3a:d9:15:f9:fb:d7:ec:ad:67:
                    4c:a9:4a:3a:ce:bd:65:d8:23:3b:78:49:e9:03:b0:
                    ce:fa:cb:33:df:a0:8f:41:48:cd:0f:1e:51:3d:28:
                    e5:e4:e7:a2:79:44:22:b8:69:93:53:fb:34:33:3f:
                    21:23
                Exponent: 65537 (0x10001)
        X509v3 extensions:
            X509v3 Basic Constraints: 
                CA:FALSE
            X509v3 Subject Key Identifier: 
                12:6E:3C:6D:36:CF:D0:F8:4F:40:66:30:91:90:47:BF:D2:52:F4:04
            X509v3 Authority Key Identifier: 
                keyid:58:7B:63:66:07:AB:B4:81:93:89:28:24:6D:AC:E2:27:33:A3:D4:78
                DirName:/CN=team307-net
                serial:0D:32:7C:B9:1A:C3:B2:EA:50:B4:15:34:74:62:47:AE:A0:E2:0B:E2
            X509v3 Extended Key Usage: 
                TLS Web Client Authentication
            X509v3 Key Usage: 
                Digital Signature
    Signature Algorithm: sha256WithRSAEncryption
    Signature Value:
        ad:53:6a:0d:47:83:49:9d:6c:73:8f:90:11:06:85:20:6f:0d:
        8a:eb:c6:fe:81:42:4b:bc:a8:44:df:75:0f:6d:05:a6:82:01:
        4d:c5:be:00:92:e7:60:ef:9a:82:c8:03:46:12:17:a7:6e:75:
        a0:58:59:69:9b:d5:ff:79:a1:af:2c:63:e0:cc:6a:19:32:40:
        bf:25:04:05:a4:ae:37:e4:6d:a3:00:90:03:ac:68:db:94:96:
        2a:33:c2:db:be:3f:92:76:d7:07:52:2f:ca:18:bc:c4:43:2d:
        96:65:6b:66:84:b0:7a:f1:86:04:10:8c:38:75:30:9d:9c:2d:
        3e:6e:ee:3a:b0:0f:34:98:21:9d:47:c2:d2:17:5b:cf:1a:e8:
        97:55:a3:52:a1:f1:f3:cf:98:f4:8f:33:06:71:a8:b9:ef:64:
        e0:2d:85:6e:c9:e8:4c:89:1c:2e:a5:19:1c:ef:46:bf:aa:c0:
        50:b0:6c:f0:93:01:94:b9:7a:42:47:d6:41:ec:2c:e8:60:e5:
        71:f0:51:29:5e:83:3b:52:7e:47:f2:b9:cd:eb:57:02:ca:dc:
        87:8f:8e:12:a2:db:a7:c2:54:bb:1f:1b:5f:bf:18:06:a7:a4:
        37:d8:90:9f:13:c5:37:0a:1a:05:0f:4c:9a:52:cc:8e:f7:ca:
        95:df:65:f3
-----BEGIN CERTIFICATE-----
MIIDXTCCAkWgAwIBAgIRAPRf7z4Oypg1RfLfTEB19xcwDQYJKoZIhvcNAQELBQAw
FjEUMBIGA1UEAwwLdGVhbTMwNy1uZXQwHhcNMjMxMTA0MTA0NjE2WhcNMjYxMDE5
MTA0NjE2WjAZMRcwFQYDVQQDDA50ZWFtMzA3LWNsaWVudDCCASIwDQYJKoZIhvcN
AQEBBQADggEPADCCAQoCggEBAKJ2awhmqXZnZJ9CQOJnIHhCGqQDdq9fS21bWCFY
yS9C7r5ndTto6MmQh0FOJAqMXdrP59+exE3ztiU1gK0kMRj8JrT+0nra11oaSpj7
eUHKAEzhlHV/6Em8WKbSR7rlQdsTsGXAHYjsO1mVSkDFWiCzHAkW+Ss1YPpzKmEq
FXGGubuAz8iFIyZHzla6KKmweblkaIPDfS+xOZqz9YsgQVz6bRimP8d4Zp9FGeck
2AlsSjdotqCoLYdLOxg6extwrED8atqnfN7nOtkV+fvX7K1nTKlKOs69ZdgjO3hJ
6QOwzvrLM9+gj0FIzQ8eUT0o5eTnonlEIrhpk1P7NDM/ISMCAwEAAaOBojCBnzAJ
BgNVHRMEAjAAMB0GA1UdDgQWBBQSbjxtNs/Q+E9AZjCRkEe/0lL0BDBRBgNVHSME
SjBIgBRYe2NmB6u0gZOJKCRtrOInM6PUeKEapBgwFjEUMBIGA1UEAwwLdGVhbTMw
Ny1uZXSCFA0yfLkaw7LqULQVNHRiR66g4gviMBMGA1UdJQQMMAoGCCsGAQUFBwMC
MAsGA1UdDwQEAwIHgDANBgkqhkiG9w0BAQsFAAOCAQEArVNqDUeDSZ1sc4+QEQaF
IG8NiuvG/oFCS7yoRN91D20FpoIBTcW+AJLnYO+agsgDRhIXp251oFhZaZvV/3mh
ryxj4MxqGTJAvyUEBaSuN+RtowCQA6xo25SWKjPC274/knbXB1Ivyhi8xEMtlmVr
ZoSwevGGBBCMOHUwnZwtPm7uOrAPNJghnUfC0hdbzxrol1WjUqHx88+Y9I8zBnGo
ue9k4C2FbsnoTIkcLqUZHO9Gv6rAULBs8JMBlLl6QkfWQews6GDlcfBRKV6DO1J+
R/K5zetXAsrch4+OEqLbp8JUux8bX78YBqekN9iQnxPFNwoaBQ9MmlLMjvfKld9l
8w==
-----END CERTIFICATE-----
