Certificate:
    Data:
        Version: 3 (0x2)
        Serial Number:
            4e:15:9e:74:e5:9c:75:ed:85:c3:a8:4f:76:fc:fd:5d
        Signature Algorithm: sha256WithRSAEncryption
        Issuer: CN=team377-net
        Validity
            Not Before: Nov  3 20:46:04 2023 GMT
            Not After : Oct 18 20:46:04 2026 GMT
        Subject: CN=team377-client
        Subject Public Key Info:
            Public Key Algorithm: rsaEncryption
                Public-Key: (2048 bit)
                Modulus:
                    00:cd:cd:3f:d2:2e:fe:7f:0a:d2:4b:6f:77:38:93:
                    7c:32:8c:ad:c3:a9:5d:49:51:1b:a5:16:04:ee:a4:
                    bc:6d:af:77:7e:80:dc:24:a3:c8:a3:7a:ee:4d:33:
                    74:c5:ab:81:34:33:be:bf:9e:02:0b:26:1f:2c:e8:
                    c0:08:be:70:3b:1d:2e:9d:bd:ee:36:72:37:d7:92:
                    62:68:eb:1f:ac:93:41:c2:32:ae:2c:12:d7:13:67:
                    28:d5:ad:20:3f:6c:5c:27:c4:e2:24:2b:77:ec:d5:
                    5f:ee:03:4c:18:2d:23:26:a1:ff:df:f4:48:06:41:
                    45:78:27:88:a0:d9:27:81:75:cc:bd:8a:b7:49:1d:
                    83:18:0a:0f:37:0a:28:e4:c2:34:37:97:22:a2:8b:
                    14:40:47:aa:93:60:e1:01:a3:97:8c:e7:43:aa:da:
                    6c:c8:9e:d1:8b:b9:08:3a:b6:76:a3:40:9d:6e:72:
                    d4:c4:13:7f:48:a2:9d:cf:8a:3d:c2:7d:8f:05:48:
                    d9:1e:af:0f:18:f8:61:55:a3:7f:4f:40:2c:c1:f4:
                    f6:46:b7:00:3d:da:85:de:88:c8:eb:27:cf:37:ce:
                    d8:4a:a7:b5:b0:e9:c9:ce:35:3f:f1:43:2a:c6:f6:
                    59:03:ad:79:44:d9:9c:53:4c:18:3f:16:dc:b5:1f:
                    b9:91
                Exponent: 65537 (0x10001)
        X509v3 extensions:
            X509v3 Basic Constraints: 
                CA:FALSE
            X509v3 Subject Key Identifier: 
                E0:22:F1:82:11:30:FE:5D:6A:F8:68:7D:EE:AB:AE:FC:26:8E:53:65
            X509v3 Authority Key Identifier: 
                keyid:E0:4F:EB:83:C1:A5:42:8B:97:46:91:F1:2A:8D:98:6E:F5:0F:02:88
                DirName:/CN=team377-net
                serial:14:92:D8:D7:87:D6:18:4B:4F:AA:F3:F2:32:55:E8:98:72:3B:5B:BC
            X509v3 Extended Key Usage: 
                TLS Web Client Authentication
            X509v3 Key Usage: 
                Digital Signature
    Signature Algorithm: sha256WithRSAEncryption
    Signature Value:
        b1:70:67:af:3a:6d:9d:0e:79:e5:38:6a:cc:e3:7d:65:13:63:
        f8:2c:cb:45:db:e0:a7:20:99:b0:0a:7f:d5:52:a0:05:ce:80:
        cd:49:02:42:3e:6c:c6:61:54:d8:d0:66:0f:09:13:94:1e:42:
        32:fe:f0:e2:aa:1f:8d:e3:88:35:b0:9d:b9:ea:7e:8a:ba:94:
        d2:36:fd:83:0c:92:b3:a8:f8:85:04:e1:93:0c:0d:84:9b:cc:
        eb:9f:fa:01:e8:9a:ed:64:67:25:c0:da:a9:82:83:06:4f:f9:
        f8:ae:76:37:a1:49:2c:8d:21:27:33:f5:9c:24:60:84:93:1b:
        0c:0b:e2:d2:68:60:25:e5:79:f5:ac:fd:7d:ea:0a:19:12:64:
        45:b1:e6:95:ee:23:45:5f:f6:2e:0b:cd:32:7b:79:99:e8:7d:
        38:c6:fc:3e:05:fe:8d:c1:dc:5d:b1:c7:0e:ec:9e:7e:3d:d6:
        51:31:12:63:a7:69:bc:bd:65:ca:c9:53:90:0d:2e:18:f8:3a:
        a5:4d:27:83:d6:bd:c3:c0:e0:e1:cb:26:f8:e3:25:e8:f3:ea:
        a3:61:ac:67:7b:c7:cf:32:77:89:96:7b:fe:2b:93:82:53:72:
        24:fd:97:63:9d:df:70:01:aa:12:d8:9d:62:ae:05:14:da:fd:
        eb:65:ec:59
-----BEGIN CERTIFICATE-----
MIIDXDCCAkSgAwIBAgIQThWedOWcde2Fw6hPdvz9XTANBgkqhkiG9w0BAQsFADAW
MRQwEgYDVQQDDAt0ZWFtMzc3LW5ldDAeFw0yMzExMDMyMDQ2MDRaFw0yNjEwMTgy
MDQ2MDRaMBkxFzAVBgNVBAMMDnRlYW0zNzctY2xpZW50MIIBIjANBgkqhkiG9w0B
AQEFAAOCAQ8AMIIBCgKCAQEAzc0/0i7+fwrSS293OJN8Moytw6ldSVEbpRYE7qS8
ba93foDcJKPIo3ruTTN0xauBNDO+v54CCyYfLOjACL5wOx0unb3uNnI315JiaOsf
rJNBwjKuLBLXE2co1a0gP2xcJ8TiJCt37NVf7gNMGC0jJqH/3/RIBkFFeCeIoNkn
gXXMvYq3SR2DGAoPNwoo5MI0N5cioosUQEeqk2DhAaOXjOdDqtpsyJ7Ri7kIOrZ2
o0CdbnLUxBN/SKKdz4o9wn2PBUjZHq8PGPhhVaN/T0AswfT2RrcAPdqF3ojI6yfP
N87YSqe1sOnJzjU/8UMqxvZZA615RNmcU0wYPxbctR+5kQIDAQABo4GiMIGfMAkG
A1UdEwQCMAAwHQYDVR0OBBYEFOAi8YIRMP5davhofe6rrvwmjlNlMFEGA1UdIwRK
MEiAFOBP64PBpUKLl0aR8SqNmG71DwKIoRqkGDAWMRQwEgYDVQQDDAt0ZWFtMzc3
LW5ldIIUFJLY14fWGEtPqvPyMlXomHI7W7wwEwYDVR0lBAwwCgYIKwYBBQUHAwIw
CwYDVR0PBAQDAgeAMA0GCSqGSIb3DQEBCwUAA4IBAQCxcGevOm2dDnnlOGrM431l
E2P4LMtF2+CnIJmwCn/VUqAFzoDNSQJCPmzGYVTY0GYPCROUHkIy/vDiqh+N44g1
sJ256n6KupTSNv2DDJKzqPiFBOGTDA2Em8zrn/oB6JrtZGclwNqpgoMGT/n4rnY3
oUksjSEnM/WcJGCEkxsMC+LSaGAl5Xn1rP196goZEmRFseaV7iNFX/YuC80ye3mZ
6H04xvw+Bf6NwdxdsccO7J5+PdZRMRJjp2m8vWXKyVOQDS4Y+DqlTSeD1r3DwODh
yyb44yXo8+qjYaxne8fPMneJlnv+K5OCU3Ik/Zdjnd9wAaoS2J1irgUU2v3rZexZ
-----END CERTIFICATE-----
