Certificate:
    Data:
        Version: 3 (0x2)
        Serial Number:
            2a:84:56:54:a4:1d:33:06:a5:12:49:46:23:6a:3d:01
        Signature Algorithm: sha256WithRSAEncryption
        Issuer: CN=team28-net
        Validity
            Not Before: Nov  4 10:40:45 2023 GMT
            Not After : Oct 19 10:40:45 2026 GMT
        Subject: CN=team28-client
        Subject Public Key Info:
            Public Key Algorithm: rsaEncryption
                Public-Key: (2048 bit)
                Modulus:
                    00:ca:3a:5e:e4:47:a0:9b:24:6e:d9:5a:07:6a:10:
                    41:e2:fd:a5:c8:12:e1:d4:67:4e:8a:da:32:07:1f:
                    40:f0:76:3f:db:07:c7:fc:db:1b:83:69:38:74:db:
                    49:ea:61:34:1c:57:49:9a:f6:df:4a:d9:af:f8:70:
                    37:01:bd:aa:c5:5a:da:a7:98:39:5f:74:47:59:99:
                    92:f9:7f:02:d6:39:74:b9:c2:72:97:20:5f:c7:e7:
                    ee:2c:22:38:93:cd:e3:8f:cf:9f:40:e1:84:5b:24:
                    25:d3:42:94:48:85:cd:18:ed:75:36:43:31:40:64:
                    cd:eb:e9:13:7a:cd:ea:3f:bb:73:50:b6:d2:f3:ff:
                    dc:bf:58:c1:12:b1:48:76:34:2d:f0:ca:7a:20:a8:
                    1f:60:a3:f8:3f:28:df:fa:c2:e4:4c:88:14:82:c2:
                    d6:79:fb:29:90:34:fb:a8:92:72:45:14:02:1c:28:
                    ca:6f:74:ec:06:1d:e3:c6:da:f5:37:cd:a4:58:86:
                    31:b1:b0:a6:1b:21:73:5c:94:46:cd:85:2a:ff:a5:
                    9b:29:22:d0:00:cc:47:b7:56:1f:63:c2:cf:2d:c0:
                    b6:26:11:ea:7b:6e:6e:6c:30:0b:84:27:7b:bd:3d:
                    83:e3:7f:13:5c:82:b6:bf:5e:36:7f:c0:bd:3c:f5:
                    74:15
                Exponent: 65537 (0x10001)
        X509v3 extensions:
            X509v3 Basic Constraints: 
                CA:FALSE
            X509v3 Subject Key Identifier: 
                B4:CE:D0:82:31:F1:C2:91:3C:E1:8F:F5:3D:83:CE:9F:BB:3C:9F:25
            X509v3 Authority Key Identifier: 
                keyid:CD:BC:55:FD:5F:DF:1B:93:DB:B2:3F:D9:24:9A:7D:20:87:0B:4A:E2
                DirName:/CN=team28-net
                serial:55:E0:B6:BF:8A:D9:A1:06:C3:B1:11:23:77:FC:00:59:FE:69:F3:9B
            X509v3 Extended Key Usage: 
                TLS Web Client Authentication
            X509v3 Key Usage: 
                Digital Signature
    Signature Algorithm: sha256WithRSAEncryption
    Signature Value:
        18:6d:d8:be:9f:3f:9e:d0:b9:51:7d:ab:0b:41:2f:75:df:dd:
        ff:7e:af:d5:2b:ef:3a:1a:40:a6:de:26:e2:93:0e:cc:ad:33:
        59:81:33:54:43:84:54:c1:6c:3c:f3:7f:48:e0:84:31:09:62:
        e4:80:f3:89:a4:b7:38:2e:22:13:ac:95:85:b7:7d:25:5a:e5:
        34:0b:ac:17:1e:b6:8a:5a:bc:7a:44:f8:09:c1:b6:0f:49:94:
        a5:99:3a:e5:fa:82:df:3c:db:20:8f:33:25:0d:a1:b4:43:a1:
        1d:80:a1:c6:ba:ad:96:1a:2f:fe:97:e4:60:26:f4:64:9d:c0:
        70:07:4a:59:d7:bb:b5:ef:45:e8:25:20:d0:0d:25:86:50:49:
        dc:23:ff:d6:1d:47:d6:4d:bd:c3:ad:4f:50:6e:61:a0:2a:28:
        6a:73:7c:6f:79:9a:cd:bc:c7:a4:ef:98:0c:da:1c:d6:84:67:
        1b:0d:0c:2a:d0:69:7e:82:51:99:c4:90:83:fa:c4:bd:19:e8:
        bf:49:d7:91:08:73:ac:b4:b0:77:fc:ea:25:91:a4:e9:9e:72:
        f3:36:c4:97:70:8c:4b:03:d3:14:c5:b1:54:e7:b6:d3:37:25:
        bb:9b:29:27:ee:d0:ea:07:74:76:01:91:10:10:73:b3:60:96:
        29:6a:9b:8f
-----BEGIN CERTIFICATE-----
MIIDWTCCAkGgAwIBAgIQKoRWVKQdMwalEklGI2o9ATANBgkqhkiG9w0BAQsFADAV
MRMwEQYDVQQDDAp0ZWFtMjgtbmV0MB4XDTIzMTEwNDEwNDA0NVoXDTI2MTAxOTEw
NDA0NVowGDEWMBQGA1UEAwwNdGVhbTI4LWNsaWVudDCCASIwDQYJKoZIhvcNAQEB
BQADggEPADCCAQoCggEBAMo6XuRHoJskbtlaB2oQQeL9pcgS4dRnToraMgcfQPB2
P9sHx/zbG4NpOHTbSephNBxXSZr230rZr/hwNwG9qsVa2qeYOV90R1mZkvl/AtY5
dLnCcpcgX8fn7iwiOJPN44/Pn0DhhFskJdNClEiFzRjtdTZDMUBkzevpE3rN6j+7
c1C20vP/3L9YwRKxSHY0LfDKeiCoH2Cj+D8o3/rC5EyIFILC1nn7KZA0+6iSckUU
Ahwoym907AYd48ba9TfNpFiGMbGwphshc1yURs2FKv+lmyki0ADMR7dWH2PCzy3A
tiYR6ntubmwwC4Qne709g+N/E1yCtr9eNn/AvTz1dBUCAwEAAaOBoTCBnjAJBgNV
HRMEAjAAMB0GA1UdDgQWBBS0ztCCMfHCkTzhj/U9g86fuzyfJTBQBgNVHSMESTBH
gBTNvFX9X98bk9uyP9kkmn0ghwtK4qEZpBcwFTETMBEGA1UEAwwKdGVhbTI4LW5l
dIIUVeC2v4rZoQbDsREjd/wAWf5p85swEwYDVR0lBAwwCgYIKwYBBQUHAwIwCwYD
VR0PBAQDAgeAMA0GCSqGSIb3DQEBCwUAA4IBAQAYbdi+nz+e0LlRfasLQS91393/
fq/VK+86GkCm3ibikw7MrTNZgTNUQ4RUwWw8839I4IQxCWLkgPOJpLc4LiITrJWF
t30lWuU0C6wXHraKWrx6RPgJwbYPSZSlmTrl+oLfPNsgjzMlDaG0Q6EdgKHGuq2W
Gi/+l+RgJvRkncBwB0pZ17u170XoJSDQDSWGUEncI//WHUfWTb3DrU9QbmGgKihq
c3xveZrNvMek75gM2hzWhGcbDQwq0Gl+glGZxJCD+sS9Gei/SdeRCHOstLB3/Ool
kaTpnnLzNsSXcIxLA9MUxbFU57bTNyW7mykn7tDqB3R2AZEQEHOzYJYpapuP
-----END CERTIFICATE-----
