Certificate:
    Data:
        Version: 3 (0x2)
        Serial Number:
            36:85:ab:02:8d:15:94:c0:06:3e:35:92:d2:84:22:26
        Signature Algorithm: sha256WithRSAEncryption
        Issuer: CN=team28-net
        Validity
            Not Before: Nov  4 11:27:54 2023 GMT
            Not After : Oct 19 11:27:54 2026 GMT
        Subject: CN=team28-server
        Subject Public Key Info:
            Public Key Algorithm: rsaEncryption
                Public-Key: (2048 bit)
                Modulus:
                    00:b4:91:97:5b:5e:e6:4b:f8:64:bd:59:86:5b:ca:
                    b1:ae:32:3b:57:a4:b6:1d:05:5b:7c:f3:08:02:70:
                    00:06:c7:18:d9:56:c1:9f:26:c9:be:70:4f:ae:15:
                    11:70:b8:2a:19:27:5f:c8:cb:9c:c9:d8:09:07:d3:
                    fb:22:17:74:4b:84:8d:50:b8:34:01:b7:82:19:d9:
                    07:5c:fc:52:d1:43:90:3b:2b:00:90:29:e8:2e:3b:
                    e4:c7:b1:f1:de:91:64:82:e8:99:ed:7e:61:e1:f0:
                    5c:a5:7a:9c:26:20:c7:62:e9:e6:61:27:04:a4:08:
                    d0:02:59:70:ca:b6:21:19:04:0b:44:eb:b9:f6:74:
                    a9:99:3c:d3:f8:e2:1d:9a:9a:19:23:e8:78:51:0f:
                    d9:22:35:e2:68:4c:04:22:4f:a3:cd:ac:75:39:4e:
                    dc:70:be:b6:e5:a3:34:c0:c8:ba:39:fd:c8:07:a6:
                    80:4c:6c:48:68:a1:d6:cd:49:86:10:59:08:5c:94:
                    2a:af:ed:bc:cb:de:4e:1c:f0:97:1a:bb:24:98:da:
                    78:f0:c3:22:87:da:45:68:07:d7:21:8f:5a:e4:96:
                    7c:b2:72:32:d8:2d:98:da:bf:a6:02:c3:32:70:5f:
                    7c:23:df:26:1a:67:a1:0c:b6:dd:08:f0:60:86:98:
                    fb:e3
                Exponent: 65537 (0x10001)
        X509v3 extensions:
            X509v3 Basic Constraints: 
                CA:FALSE
            X509v3 Subject Key Identifier: 
                DF:BF:E1:4E:14:50:D0:14:B3:0E:48:BD:F3:29:5D:79:45:50:89:A7
            X509v3 Authority Key Identifier: 
                keyid:FE:03:9C:1B:F3:8D:53:F0:EF:4D:0F:B8:43:B2:F7:37:31:D4:32:36
                DirName:/CN=team28-net
                serial:0B:AA:10:A5:6E:02:F3:AF:19:F7:6A:CE:18:8F:B7:95:97:BC:E3:D4
            X509v3 Extended Key Usage: 
                TLS Web Server Authentication
            X509v3 Key Usage: 
                Digital Signature, Key Encipherment
            X509v3 Subject Alternative Name: 
                DNS:team28-server
    Signature Algorithm: sha256WithRSAEncryption
    Signature Value:
        11:45:f4:85:f0:84:48:cd:21:41:d3:09:2a:16:e5:f7:ce:50:
        74:b9:7b:35:dd:59:93:22:4d:8e:c1:f1:05:fa:c4:19:df:e5:
        66:ec:a8:9b:0a:0f:6d:f9:0b:68:1b:3c:40:9d:68:0c:05:a6:
        2c:8a:1e:54:c6:83:46:97:23:c0:93:ef:d6:64:14:68:8e:23:
        fa:06:4d:82:c7:4b:f6:f1:ff:0b:72:47:13:db:ed:3c:6a:b5:
        4a:da:a7:46:0c:53:bc:81:47:bd:b9:30:ee:f7:25:eb:85:cb:
        8d:c9:d3:43:74:5b:bf:5b:70:5a:ac:08:f7:84:d6:79:63:45:
        87:aa:87:7b:c5:f1:d5:37:b3:23:8a:ae:5b:4d:8a:35:19:94:
        b8:4c:b3:d3:50:8d:7b:dc:3c:4a:06:36:03:a0:b6:9b:1c:24:
        25:73:b7:ab:1f:b2:75:64:b8:dc:79:3b:e0:8a:58:51:72:89:
        39:2a:c6:ca:72:d8:59:b7:0e:1e:35:df:b1:63:cf:26:f0:51:
        8c:12:7c:59:6f:d4:eb:af:67:e1:6e:2c:07:39:f2:b1:af:e3:
        30:5f:f9:5f:5d:52:3f:55:db:31:f6:ee:92:da:29:80:54:19:
        34:69:27:d5:2d:24:af:29:3e:eb:81:3e:cc:1b:fc:23:7c:dc:
        00:10:b6:c6
-----BEGIN CERTIFICATE-----
MIIDczCCAlugAwIBAgIQNoWrAo0VlMAGPjWS0oQiJjANBgkqhkiG9w0BAQsFADAV
MRMwEQYDVQQDDAp0ZWFtMjgtbmV0MB4XDTIzMTEwNDExMjc1NFoXDTI2MTAxOTEx
Mjc1NFowGDEWMBQGA1UEAwwNdGVhbTI4LXNlcnZlcjCCASIwDQYJKoZIhvcNAQEB
BQADggEPADCCAQoCggEBALSRl1te5kv4ZL1ZhlvKsa4yO1ekth0FW3zzCAJwAAbH
GNlWwZ8myb5wT64VEXC4KhknX8jLnMnYCQfT+yIXdEuEjVC4NAG3ghnZB1z8UtFD
kDsrAJAp6C475Mex8d6RZILome1+YeHwXKV6nCYgx2Lp5mEnBKQI0AJZcMq2IRkE
C0TrufZ0qZk80/jiHZqaGSPoeFEP2SI14mhMBCJPo82sdTlO3HC+tuWjNMDIujn9
yAemgExsSGih1s1JhhBZCFyUKq/tvMveThzwlxq7JJjaePDDIofaRWgH1yGPWuSW
fLJyMtgtmNq/pgLDMnBffCPfJhpnoQy23QjwYIaY++MCAwEAAaOBuzCBuDAJBgNV
HRMEAjAAMB0GA1UdDgQWBBTfv+FOFFDQFLMOSL3zKV15RVCJpzBQBgNVHSMESTBH
gBT+A5wb841T8O9ND7hDsvc3MdQyNqEZpBcwFTETMBEGA1UEAwwKdGVhbTI4LW5l
dIIUC6oQpW4C868Z92rOGI+3lZe849QwEwYDVR0lBAwwCgYIKwYBBQUHAwEwCwYD
VR0PBAQDAgWgMBgGA1UdEQQRMA+CDXRlYW0yOC1zZXJ2ZXIwDQYJKoZIhvcNAQEL
BQADggEBABFF9IXwhEjNIUHTCSoW5ffOUHS5ezXdWZMiTY7B8QX6xBnf5WbsqJsK
D235C2gbPECdaAwFpiyKHlTGg0aXI8CT79ZkFGiOI/oGTYLHS/bx/wtyRxPb7Txq
tUrap0YMU7yBR725MO73JeuFy43J00N0W79bcFqsCPeE1nljRYeqh3vF8dU3syOK
rltNijUZlLhMs9NQjXvcPEoGNgOgtpscJCVzt6sfsnVkuNx5O+CKWFFyiTkqxspy
2Fm3Dh4137FjzybwUYwSfFlv1OuvZ+FuLAc58rGv4zBf+V9dUj9V2zH27pLaKYBU
GTRpJ9UtJK8pPuuBPswb/CN83AAQtsY=
-----END CERTIFICATE-----
