Certificate:
    Data:
        Version: 3 (0x2)
        Serial Number:
            dc:5d:2b:57:ae:9f:41:e5:74:cf:7c:ef:c9:dd:ad:63
        Signature Algorithm: sha256WithRSAEncryption
        Issuer: CN=team28-net
        Validity
            Not Before: Nov  4 11:27:54 2023 GMT
            Not After : Oct 19 11:27:54 2026 GMT
        Subject: CN=team28-client
        Subject Public Key Info:
            Public Key Algorithm: rsaEncryption
                Public-Key: (2048 bit)
                Modulus:
                    00:a3:b6:11:b3:1c:b9:61:ef:78:ac:cc:6d:fe:7d:
                    30:d5:f6:68:3a:0c:17:e1:47:5c:2a:2c:90:ab:7c:
                    2d:3d:80:79:aa:ac:e6:19:cc:55:76:22:fe:75:63:
                    0d:42:ad:3d:54:b3:fc:c4:69:d2:44:33:09:af:f2:
                    2c:f0:08:b9:3f:31:6a:52:34:c4:bb:45:d4:b9:98:
                    77:c4:b2:d1:31:83:33:9e:86:6b:3d:8b:e0:a2:2d:
                    fd:d7:ef:76:dd:61:ef:e1:0d:22:e2:57:fa:10:e5:
                    66:ad:c2:7e:a9:04:c6:e6:76:65:fe:2f:35:67:bd:
                    3d:18:c8:dc:9e:47:55:62:9f:d6:95:58:ec:5d:45:
                    9e:88:14:db:db:21:db:3f:95:d2:d9:c4:71:2e:e5:
                    db:21:cc:37:21:3d:8e:60:3a:56:a9:3b:5a:4c:3e:
                    b9:25:40:a1:f7:2a:e6:67:a6:62:1e:4e:7b:a9:56:
                    7c:72:fe:d8:8c:bd:d9:53:e6:14:95:95:e8:e5:b1:
                    38:3b:13:8c:93:93:ea:b3:a0:f8:b3:b4:ed:93:f7:
                    d3:3a:86:2d:e3:02:6a:ee:aa:b8:28:d2:74:5a:1e:
                    ea:89:9c:a1:17:62:94:b0:3f:6f:d6:c9:8b:77:07:
                    b4:fa:41:0a:38:75:81:33:f3:09:79:f0:36:be:b6:
                    59:27
                Exponent: 65537 (0x10001)
        X509v3 extensions:
            X509v3 Basic Constraints: 
                CA:FALSE
            X509v3 Subject Key Identifier: 
                E9:0A:2F:E7:7A:B7:24:FA:0D:BB:EB:0B:17:5A:93:3A:D6:BA:61:54
            X509v3 Authority Key Identifier: 
                keyid:FE:03:9C:1B:F3:8D:53:F0:EF:4D:0F:B8:43:B2:F7:37:31:D4:32:36
                DirName:/CN=team28-net
                serial:0B:AA:10:A5:6E:02:F3:AF:19:F7:6A:CE:18:8F:B7:95:97:BC:E3:D4
            X509v3 Extended Key Usage: 
                TLS Web Client Authentication
            X509v3 Key Usage: 
                Digital Signature
    Signature Algorithm: sha256WithRSAEncryption
    Signature Value:
        9f:0a:57:e4:75:a6:f8:bf:04:30:e6:a8:e3:86:d0:15:2c:8a:
        1a:8d:e3:39:6b:95:37:81:97:00:b4:d2:d0:b9:52:75:0c:80:
        08:3b:d5:de:98:10:04:13:4d:90:da:5b:90:f1:0d:4e:19:a2:
        73:ae:7b:52:b1:11:a2:c9:39:eb:c1:7a:e9:06:d5:38:f6:1d:
        d6:b5:23:47:06:72:cf:19:f0:ff:1b:3c:34:7b:ce:f9:9b:c7:
        02:85:e5:0c:bb:27:aa:39:97:d3:21:a2:14:0e:cf:73:63:30:
        a1:70:29:e0:c9:ff:24:2f:13:92:4e:ad:95:9e:35:b6:01:af:
        43:c6:80:5a:58:27:5f:5e:32:38:ea:ca:c5:cc:f6:bb:04:87:
        36:f7:4f:6c:fb:11:b5:2e:f8:7f:37:f0:b3:43:24:ab:63:f6:
        e6:83:c3:c3:ca:2c:4e:48:9c:48:b9:9f:cf:b4:35:1a:37:28:
        cb:01:68:c7:7c:b1:f9:b0:14:06:9a:68:65:86:bb:32:5f:58:
        e1:4e:5d:4e:f0:3d:de:2f:39:a9:7d:2f:c7:49:48:c0:70:37:
        1a:72:ad:79:8e:29:e6:c9:ef:12:f5:88:41:32:81:7b:91:da:
        15:87:b6:e6:78:31:63:1b:11:3d:44:bd:75:b4:19:75:41:d1:
        7b:d8:ec:92
-----BEGIN CERTIFICATE-----
MIIDWjCCAkKgAwIBAgIRANxdK1eun0HldM9878ndrWMwDQYJKoZIhvcNAQELBQAw
FTETMBEGA1UEAwwKdGVhbTI4LW5ldDAeFw0yMzExMDQxMTI3NTRaFw0yNjEwMTkx
MTI3NTRaMBgxFjAUBgNVBAMMDXRlYW0yOC1jbGllbnQwggEiMA0GCSqGSIb3DQEB
AQUAA4IBDwAwggEKAoIBAQCjthGzHLlh73iszG3+fTDV9mg6DBfhR1wqLJCrfC09
gHmqrOYZzFV2Iv51Yw1CrT1Us/zEadJEMwmv8izwCLk/MWpSNMS7RdS5mHfEstEx
gzOehms9i+CiLf3X73bdYe/hDSLiV/oQ5Watwn6pBMbmdmX+LzVnvT0YyNyeR1Vi
n9aVWOxdRZ6IFNvbIds/ldLZxHEu5dshzDchPY5gOlapO1pMPrklQKH3KuZnpmIe
TnupVnxy/tiMvdlT5hSVlejlsTg7E4yTk+qzoPiztO2T99M6hi3jAmruqrgo0nRa
HuqJnKEXYpSwP2/WyYt3B7T6QQo4dYEz8wl58Da+tlknAgMBAAGjgaEwgZ4wCQYD
VR0TBAIwADAdBgNVHQ4EFgQU6Qov53q3JPoNu+sLF1qTOta6YVQwUAYDVR0jBEkw
R4AU/gOcG/ONU/DvTQ+4Q7L3NzHUMjahGaQXMBUxEzARBgNVBAMMCnRlYW0yOC1u
ZXSCFAuqEKVuAvOvGfdqzhiPt5WXvOPUMBMGA1UdJQQMMAoGCCsGAQUFBwMCMAsG
A1UdDwQEAwIHgDANBgkqhkiG9w0BAQsFAAOCAQEAnwpX5HWm+L8EMOao44bQFSyK
Go3jOWuVN4GXALTS0LlSdQyACDvV3pgQBBNNkNpbkPENThmic657UrERosk568F6
6QbVOPYd1rUjRwZyzxnw/xs8NHvO+ZvHAoXlDLsnqjmX0yGiFA7Pc2MwoXAp4Mn/
JC8Tkk6tlZ41tgGvQ8aAWlgnX14yOOrKxcz2uwSHNvdPbPsRtS74fzfws0Mkq2P2
5oPDw8osTkicSLmfz7Q1GjcoywFox3yx+bAUBppoZYa7Ml9Y4U5dTvA93i85qX0v
x0lIwHA3GnKteY4p5snvEvWIQTKBe5HaFYe25ngxYxsRPUS9dbQZdUHRe9jskg==
-----END CERTIFICATE-----
