Certificate:
    Data:
        Version: 3 (0x2)
        Serial Number:
            4a:61:48:14:03:34:81:68:f4:fb:4b:c8:3d:a8:df:f3
        Signature Algorithm: sha256WithRSAEncryption
        Issuer: CN=team464-net
        Validity
            Not Before: Nov  4 10:48:52 2023 GMT
            Not After : Oct 19 10:48:52 2026 GMT
        Subject: CN=team464-client
        Subject Public Key Info:
            Public Key Algorithm: rsaEncryption
                Public-Key: (2048 bit)
                Modulus:
                    00:8e:f9:2d:6c:ed:d9:b3:cc:22:82:9c:ce:5b:78:
                    e2:2b:7f:83:b2:88:5b:4f:22:fa:9b:49:c1:b5:bb:
                    c5:7f:3a:bc:0b:11:a4:b1:74:b6:57:e9:8e:58:37:
                    2f:f3:e1:92:bf:b6:68:1f:d9:c9:25:94:09:44:13:
                    27:b2:db:dc:b1:b6:a6:34:96:52:19:68:c3:41:63:
                    4a:2f:ab:55:02:66:a1:cc:01:88:90:14:af:98:92:
                    65:48:a3:49:79:32:6c:60:d5:8a:4c:22:17:e8:b7:
                    ab:6d:52:bd:9a:a0:94:8f:f5:88:e1:b7:3e:7f:f2:
                    8f:82:c1:97:d6:79:07:9b:5d:c8:43:d9:b5:7c:81:
                    ea:ae:46:bd:71:69:bb:23:94:4f:26:6e:44:89:d8:
                    34:6c:88:47:c6:13:78:cd:70:39:76:71:3a:6b:d3:
                    19:1d:1d:32:e1:93:f5:79:f1:54:ef:eb:b1:85:3b:
                    2d:00:aa:19:7b:37:4d:7b:4c:d1:13:b1:1a:3a:8d:
                    9c:3e:d6:d8:ab:c1:47:2f:f4:44:55:43:f4:72:ce:
                    86:64:ca:f0:02:1c:fb:b5:87:ab:76:81:b8:04:77:
                    e3:7c:83:71:f0:7e:77:c2:95:16:e6:37:fb:5f:f3:
                    83:d3:69:f0:1e:a1:be:97:ba:ab:10:19:e2:03:fe:
                    3c:89
                Exponent: 65537 (0x10001)
        X509v3 extensions:
            X509v3 Basic Constraints: 
                CA:FALSE
            X509v3 Subject Key Identifier: 
                EF:CB:36:99:8F:6F:5D:5E:B1:38:E4:85:B2:75:B5:55:EA:D1:2C:41
            X509v3 Authority Key Identifier: 
                keyid:65:79:3F:66:1D:DF:60:55:68:7D:CA:2A:74:08:78:23:04:29:3A:EF
                DirName:/CN=team464-net
                serial:63:E4:B4:4E:46:77:92:95:2B:22:D1:D1:63:CC:0F:C3:5E:83:3C:15
            X509v3 Extended Key Usage: 
                TLS Web Client Authentication
            X509v3 Key Usage: 
                Digital Signature
    Signature Algorithm: sha256WithRSAEncryption
    Signature Value:
        6e:71:bd:27:0b:2c:96:ff:d0:f6:a4:ef:a2:b9:d5:80:70:72:
        98:79:69:53:eb:b3:ea:64:c4:37:66:1e:82:78:15:57:2f:c8:
        b7:14:35:00:74:83:a3:60:03:a9:ce:51:07:f1:37:fa:cd:fb:
        a4:47:1d:6c:5f:d6:ad:30:86:c4:ff:55:87:87:88:0b:bc:c2:
        3b:d2:c2:c0:59:e6:95:12:1a:3f:87:a6:be:5d:29:f2:58:ba:
        15:6e:e6:e6:49:a7:28:42:1d:e8:df:f2:ed:48:4e:3c:d9:a4:
        45:8f:48:3b:68:db:f7:0f:68:fd:ca:e2:c1:50:1c:86:07:d2:
        c4:d6:39:01:13:a0:47:c6:af:bd:4b:bf:ae:6d:85:34:c9:89:
        c7:84:91:2f:b0:7f:1a:06:65:81:4a:85:9b:41:7f:6b:d3:44:
        82:3b:5a:f6:71:a6:3d:2a:7d:1c:68:0a:b3:4b:3f:65:b5:e7:
        4d:39:8c:7f:c0:c6:61:61:d8:71:e7:13:77:6c:4b:8a:e8:15:
        e0:dc:33:42:a9:3e:24:c2:dc:fd:25:ba:49:b8:9d:33:46:18:
        06:66:1c:d2:c0:40:d5:4b:70:2d:56:fd:42:21:db:09:1d:35:
        b4:52:93:f7:7d:d6:66:e3:7f:38:48:2b:5d:26:be:74:ed:7c:
        4a:a5:be:38
-----BEGIN CERTIFICATE-----
MIIDXDCCAkSgAwIBAgIQSmFIFAM0gWj0+0vIPajf8zANBgkqhkiG9w0BAQsFADAW
MRQwEgYDVQQDDAt0ZWFtNDY0LW5ldDAeFw0yMzExMDQxMDQ4NTJaFw0yNjEwMTkx
MDQ4NTJaMBkxFzAVBgNVBAMMDnRlYW00NjQtY2xpZW50MIIBIjANBgkqhkiG9w0B
AQEFAAOCAQ8AMIIBCgKCAQEAjvktbO3Zs8wigpzOW3jiK3+DsohbTyL6m0nBtbvF
fzq8CxGksXS2V+mOWDcv8+GSv7ZoH9nJJZQJRBMnstvcsbamNJZSGWjDQWNKL6tV
AmahzAGIkBSvmJJlSKNJeTJsYNWKTCIX6LerbVK9mqCUj/WI4bc+f/KPgsGX1nkH
m13IQ9m1fIHqrka9cWm7I5RPJm5Eidg0bIhHxhN4zXA5dnE6a9MZHR0y4ZP1efFU
7+uxhTstAKoZezdNe0zRE7EaOo2cPtbYq8FHL/REVUP0cs6GZMrwAhz7tYerdoG4
BHfjfINx8H53wpUW5jf7X/OD02nwHqG+l7qrEBniA/48iQIDAQABo4GiMIGfMAkG
A1UdEwQCMAAwHQYDVR0OBBYEFO/LNpmPb11esTjkhbJ1tVXq0SxBMFEGA1UdIwRK
MEiAFGV5P2Yd32BVaH3KKnQIeCMEKTrvoRqkGDAWMRQwEgYDVQQDDAt0ZWFtNDY0
LW5ldIIUY+S0TkZ3kpUrItHRY8wPw16DPBUwEwYDVR0lBAwwCgYIKwYBBQUHAwIw
CwYDVR0PBAQDAgeAMA0GCSqGSIb3DQEBCwUAA4IBAQBucb0nCyyW/9D2pO+iudWA
cHKYeWlT67PqZMQ3Zh6CeBVXL8i3FDUAdIOjYAOpzlEH8Tf6zfukRx1sX9atMIbE
/1WHh4gLvMI70sLAWeaVEho/h6a+XSnyWLoVbubmSacoQh3o3/LtSE482aRFj0g7
aNv3D2j9yuLBUByGB9LE1jkBE6BHxq+9S7+ubYU0yYnHhJEvsH8aBmWBSoWbQX9r
00SCO1r2caY9Kn0caAqzSz9ltedNOYx/wMZhYdhx5xN3bEuK6BXg3DNCqT4kwtz9
JbpJuJ0zRhgGZhzSwEDVS3AtVv1CIdsJHTW0UpP3fdZm4384SCtdJr507XxKpb44
-----END CERTIFICATE-----
