Certificate:
    Data:
        Version: 3 (0x2)
        Serial Number:
            a3:4e:78:b8:61:c3:a2:c5:24:42:8a:d2:b6:ef:9f:00
        Signature Algorithm: sha256WithRSAEncryption
        Issuer: CN=team464-net
        Validity
            Not Before: Nov  4 10:48:52 2023 GMT
            Not After : Oct 19 10:48:52 2026 GMT
        Subject: CN=team464-server
        Subject Public Key Info:
            Public Key Algorithm: rsaEncryption
                Public-Key: (2048 bit)
                Modulus:
                    00:db:74:f3:c4:10:c5:cd:e3:c7:39:68:84:36:9f:
                    fc:f6:55:4e:91:a6:7e:0a:65:61:c9:90:a8:19:e4:
                    c8:b5:d4:28:ca:32:59:db:db:df:03:4b:aa:b0:72:
                    3c:9e:ae:bc:0d:73:84:41:45:d3:9b:cc:82:cf:1a:
                    92:d2:14:d6:51:4f:e2:b6:83:8d:ca:c9:28:8c:d0:
                    5a:f0:d2:9b:45:f3:af:05:d8:f8:68:bb:37:73:77:
                    e8:80:e3:2b:ca:a8:79:95:ab:f6:db:91:ce:3d:2c:
                    85:a1:e5:1d:e4:2d:4d:49:e5:22:cd:61:f1:91:d4:
                    0b:04:74:69:57:40:80:14:22:18:35:1a:c1:89:3b:
                    51:26:1b:3b:4d:57:53:9d:a0:05:8a:d3:98:cb:b0:
                    85:19:8c:14:e7:04:19:18:11:40:03:79:88:c3:9e:
                    cd:16:82:75:0c:9e:3d:f6:15:7d:2d:d1:21:91:40:
                    7a:9a:d2:e8:c0:a0:86:fd:b4:c9:cd:d8:e5:29:91:
                    f5:99:98:18:1c:8e:1f:46:ec:a8:c9:bb:22:a3:b7:
                    c8:57:9e:e3:02:42:7f:f6:96:d6:58:5e:fd:0d:dd:
                    39:50:c9:34:c5:04:62:6e:30:6d:75:6a:64:42:a2:
                    9d:a8:1d:f4:b9:03:16:6a:d2:2f:d0:87:78:a0:df:
                    de:99
                Exponent: 65537 (0x10001)
        X509v3 extensions:
            X509v3 Basic Constraints: 
                CA:FALSE
            X509v3 Subject Key Identifier: 
                8C:39:90:2F:CE:37:98:7D:94:89:D4:DC:34:6C:CC:78:24:49:D3:63
            X509v3 Authority Key Identifier: 
                keyid:65:79:3F:66:1D:DF:60:55:68:7D:CA:2A:74:08:78:23:04:29:3A:EF
                DirName:/CN=team464-net
                serial:63:E4:B4:4E:46:77:92:95:2B:22:D1:D1:63:CC:0F:C3:5E:83:3C:15
            X509v3 Extended Key Usage: 
                TLS Web Server Authentication
            X509v3 Key Usage: 
                Digital Signature, Key Encipherment
            X509v3 Subject Alternative Name: 
                DNS:team464-server
    Signature Algorithm: sha256WithRSAEncryption
    Signature Value:
        ae:9b:2a:6b:cf:a2:0c:18:a2:6d:42:9f:9d:c3:70:ec:34:eb:
        ef:83:80:19:dd:cc:cf:ad:15:ca:2c:30:a3:50:1a:4e:7c:f9:
        45:96:4d:a6:80:7e:9e:a0:60:3a:aa:85:1e:94:e6:29:a2:da:
        31:64:36:64:57:f5:fb:3f:13:24:4e:0f:5f:b0:5d:47:29:21:
        65:2c:a1:cb:5f:76:ea:d2:9e:45:a6:a8:26:f5:cc:5c:2f:1a:
        f8:ad:71:e5:51:22:b1:8e:a7:90:a5:e6:c9:fb:eb:b6:d5:e2:
        1b:55:6e:b0:11:ff:47:a1:5f:92:4f:8a:6f:c6:3e:aa:e1:b0:
        64:17:96:56:b7:4c:08:5f:26:16:04:cf:aa:26:a0:be:e3:83:
        a6:66:ff:48:5b:6e:cc:f3:8f:01:5a:39:bd:7a:1d:da:1e:d7:
        46:87:d8:29:39:1e:c9:82:9e:32:7b:21:0e:9e:d2:a2:92:75:
        99:75:04:e6:f2:73:32:b4:4b:22:be:db:e6:05:ed:03:32:f1:
        6e:d9:03:b8:c0:62:aa:4e:ff:fb:75:96:d7:a9:5a:b2:0a:ff:
        64:d5:96:54:7a:db:b5:60:22:52:43:0c:2d:89:59:a7:b8:f4:
        ed:2d:a8:d9:80:02:91:5a:d8:fa:18:ad:c4:d7:1f:a9:74:64:
        99:40:ff:e4
-----BEGIN CERTIFICATE-----
MIIDeDCCAmCgAwIBAgIRAKNOeLhhw6LFJEKK0rbvnwAwDQYJKoZIhvcNAQELBQAw
FjEUMBIGA1UEAwwLdGVhbTQ2NC1uZXQwHhcNMjMxMTA0MTA0ODUyWhcNMjYxMDE5
MTA0ODUyWjAZMRcwFQYDVQQDDA50ZWFtNDY0LXNlcnZlcjCCASIwDQYJKoZIhvcN
AQEBBQADggEPADCCAQoCggEBANt088QQxc3jxzlohDaf/PZVTpGmfgplYcmQqBnk
yLXUKMoyWdvb3wNLqrByPJ6uvA1zhEFF05vMgs8aktIU1lFP4raDjcrJKIzQWvDS
m0XzrwXY+Gi7N3N36IDjK8qoeZWr9tuRzj0shaHlHeQtTUnlIs1h8ZHUCwR0aVdA
gBQiGDUawYk7USYbO01XU52gBYrTmMuwhRmMFOcEGRgRQAN5iMOezRaCdQyePfYV
fS3RIZFAeprS6MCghv20yc3Y5SmR9ZmYGByOH0bsqMm7IqO3yFee4wJCf/aW1lhe
/Q3dOVDJNMUEYm4wbXVqZEKinagd9LkDFmrSL9CHeKDf3pkCAwEAAaOBvTCBujAJ
BgNVHRMEAjAAMB0GA1UdDgQWBBSMOZAvzjeYfZSJ1Nw0bMx4JEnTYzBRBgNVHSME
SjBIgBRleT9mHd9gVWh9yip0CHgjBCk676EapBgwFjEUMBIGA1UEAwwLdGVhbTQ2
NC1uZXSCFGPktE5Gd5KVKyLR0WPMD8NegzwVMBMGA1UdJQQMMAoGCCsGAQUFBwMB
MAsGA1UdDwQEAwIFoDAZBgNVHREEEjAQgg50ZWFtNDY0LXNlcnZlcjANBgkqhkiG
9w0BAQsFAAOCAQEArpsqa8+iDBiibUKfncNw7DTr74OAGd3Mz60Vyiwwo1AaTnz5
RZZNpoB+nqBgOqqFHpTmKaLaMWQ2ZFf1+z8TJE4PX7BdRykhZSyhy1926tKeRaao
JvXMXC8a+K1x5VEisY6nkKXmyfvrttXiG1VusBH/R6Ffkk+Kb8Y+quGwZBeWVrdM
CF8mFgTPqiagvuODpmb/SFtuzPOPAVo5vXod2h7XRofYKTkeyYKeMnshDp7SopJ1
mXUE5vJzMrRLIr7b5gXtAzLxbtkDuMBiqk7/+3WW16lasgr/ZNWWVHrbtWAiUkMM
LYlZp7j07S2o2YACkVrY+hitxNcfqXRkmUD/5A==
-----END CERTIFICATE-----
