Certificate:
    Data:
        Version: 3 (0x2)
        Serial Number:
            e2:ba:ff:95:e6:18:b1:aa:85:50:c3:1d:60:2d:43:24
        Signature Algorithm: sha256WithRSAEncryption
        Issuer: CN=team464-net
        Validity
            Not Before: Nov  3 20:47:43 2023 GMT
            Not After : Oct 18 20:47:43 2026 GMT
        Subject: CN=team464-server
        Subject Public Key Info:
            Public Key Algorithm: rsaEncryption
                Public-Key: (2048 bit)
                Modulus:
                    00:a0:eb:f9:b1:06:71:c1:39:bd:45:d7:a4:78:dd:
                    92:e9:48:69:f4:08:70:ae:ce:b6:9b:88:26:b8:dc:
                    e1:4d:1f:8f:be:59:9d:81:f7:a9:67:7b:b2:16:e7:
                    e9:db:88:2c:4a:4f:7d:4a:3a:55:51:d5:a4:de:44:
                    e3:11:09:2c:78:d9:27:82:07:d4:42:16:a7:e3:c8:
                    25:f6:f4:fb:ea:54:63:dc:75:99:bc:39:8f:19:a7:
                    9f:6b:03:06:6e:ff:cd:c9:78:bf:3b:4a:78:4a:54:
                    4b:8d:66:37:c2:f9:0f:de:b0:59:2a:74:d9:31:56:
                    99:b7:3e:e0:5e:8a:fe:3c:83:2b:01:c6:7a:f2:56:
                    ce:f8:94:66:8e:38:20:de:33:3e:57:26:de:52:d5:
                    80:bb:48:06:ee:07:b2:fb:74:b0:d6:b1:1a:84:c1:
                    f6:e8:a0:a1:2e:d8:2e:7d:49:52:43:0d:80:18:2e:
                    e1:4c:f5:5e:43:76:59:b8:37:0a:46:97:12:3a:6e:
                    b4:9f:13:4d:53:38:20:af:75:2d:6d:dd:37:5b:d2:
                    f8:bb:74:58:86:19:86:72:14:45:e3:19:e0:7c:be:
                    0a:25:9d:c4:e1:1b:f6:a0:23:e6:1d:cc:28:bb:d0:
                    c9:9a:60:99:15:28:d1:63:6f:7d:0c:b0:8b:a1:44:
                    4c:69
                Exponent: 65537 (0x10001)
        X509v3 extensions:
            X509v3 Basic Constraints: 
                CA:FALSE
            X509v3 Subject Key Identifier: 
                48:9F:B3:55:76:A3:38:CA:D6:A8:56:38:0C:82:B7:54:6B:92:55:6F
            X509v3 Authority Key Identifier: 
                keyid:9B:EE:B2:1B:51:62:85:A8:B7:A5:27:0A:9B:F5:2C:D9:56:54:49:18
                DirName:/CN=team464-net
                serial:14:8F:D1:1D:75:78:EE:13:CD:0A:06:9F:E6:A0:95:B6:65:AB:59:DB
            X509v3 Extended Key Usage: 
                TLS Web Server Authentication
            X509v3 Key Usage: 
                Digital Signature, Key Encipherment
            X509v3 Subject Alternative Name: 
                DNS:team464-server
    Signature Algorithm: sha256WithRSAEncryption
    Signature Value:
        1c:c3:3f:bb:5c:9b:cf:c1:29:a3:5b:ef:97:80:35:93:04:d9:
        3d:26:bf:66:a6:8a:74:e6:bf:b5:0c:bf:31:22:03:8b:fd:1a:
        5d:80:02:01:a8:50:2d:a9:81:c7:ec:4f:b9:87:7e:16:c6:5f:
        58:fd:0e:6c:96:c7:91:63:10:1a:05:be:5d:20:b2:dd:26:36:
        50:e1:80:dd:3b:8a:e2:3b:78:6f:1a:30:7b:28:db:98:cd:c9:
        36:8c:22:a0:33:b3:c5:8e:ed:b4:9a:38:e4:b2:cd:b1:73:f2:
        76:d9:47:65:88:e6:29:7f:1d:5b:4a:b3:56:14:01:3b:5c:93:
        e9:3a:28:e1:89:21:c9:36:d1:92:83:24:50:ca:31:96:0c:1e:
        14:15:3f:ba:5a:84:95:e8:cc:e7:b6:66:9d:75:92:76:f3:5b:
        e9:2a:b7:0f:1a:2f:e4:63:ed:86:5a:3d:f5:72:43:d5:2f:96:
        df:e6:29:84:05:79:c9:b9:a8:ff:d9:d6:c0:aa:a3:cc:df:4e:
        91:fa:80:98:9c:4a:fe:95:ca:ef:43:9a:99:31:fa:7f:e7:ee:
        a6:6c:57:64:c4:66:9c:b1:9c:17:27:58:9b:30:f5:f2:d7:a9:
        a5:df:3b:03:a0:16:54:dd:b7:90:f0:e0:0f:aa:38:bf:9d:fe:
        ae:84:bc:1f
-----BEGIN CERTIFICATE-----
MIIDeDCCAmCgAwIBAgIRAOK6/5XmGLGqhVDDHWAtQyQwDQYJKoZIhvcNAQELBQAw
FjEUMBIGA1UEAwwLdGVhbTQ2NC1uZXQwHhcNMjMxMTAzMjA0NzQzWhcNMjYxMDE4
MjA0NzQzWjAZMRcwFQYDVQQDDA50ZWFtNDY0LXNlcnZlcjCCASIwDQYJKoZIhvcN
AQEBBQADggEPADCCAQoCggEBAKDr+bEGccE5vUXXpHjdkulIafQIcK7OtpuIJrjc
4U0fj75ZnYH3qWd7shbn6duILEpPfUo6VVHVpN5E4xEJLHjZJ4IH1EIWp+PIJfb0
++pUY9x1mbw5jxmnn2sDBm7/zcl4vztKeEpUS41mN8L5D96wWSp02TFWmbc+4F6K
/jyDKwHGevJWzviUZo44IN4zPlcm3lLVgLtIBu4Hsvt0sNaxGoTB9uigoS7YLn1J
UkMNgBgu4Uz1XkN2Wbg3CkaXEjputJ8TTVM4IK91LW3dN1vS+Lt0WIYZhnIUReMZ
4Hy+CiWdxOEb9qAj5h3MKLvQyZpgmRUo0WNvfQywi6FETGkCAwEAAaOBvTCBujAJ
BgNVHRMEAjAAMB0GA1UdDgQWBBRIn7NVdqM4ytaoVjgMgrdUa5JVbzBRBgNVHSME
SjBIgBSb7rIbUWKFqLelJwqb9SzZVlRJGKEapBgwFjEUMBIGA1UEAwwLdGVhbTQ2
NC1uZXSCFBSP0R11eO4TzQoGn+aglbZlq1nbMBMGA1UdJQQMMAoGCCsGAQUFBwMB
MAsGA1UdDwQEAwIFoDAZBgNVHREEEjAQgg50ZWFtNDY0LXNlcnZlcjANBgkqhkiG
9w0BAQsFAAOCAQEAHMM/u1ybz8Epo1vvl4A1kwTZPSa/ZqaKdOa/tQy/MSIDi/0a
XYACAahQLamBx+xPuYd+FsZfWP0ObJbHkWMQGgW+XSCy3SY2UOGA3TuK4jt4bxow
eyjbmM3JNowioDOzxY7ttJo45LLNsXPydtlHZYjmKX8dW0qzVhQBO1yT6Too4Ykh
yTbRkoMkUMoxlgweFBU/ulqElejM57ZmnXWSdvNb6Sq3Dxov5GPthlo99XJD1S+W
3+YphAV5ybmo/9nWwKqjzN9OkfqAmJxK/pXK70OamTH6f+fupmxXZMRmnLGcFydY
mzD18teppd87A6AWVN23kPDgD6o4v53+roS8Hw==
-----END CERTIFICATE-----
