Certificate:
    Data:
        Version: 3 (0x2)
        Serial Number:
            f5:f5:c8:20:99:e7:d8:d6:f8:35:d5:90:f5:6f:45:63
        Signature Algorithm: sha256WithRSAEncryption
        Issuer: CN=team464-net
        Validity
            Not Before: Nov  4 11:37:57 2023 GMT
            Not After : Oct 19 11:37:57 2026 GMT
        Subject: CN=team464-client
        Subject Public Key Info:
            Public Key Algorithm: rsaEncryption
                Public-Key: (2048 bit)
                Modulus:
                    00:a6:b0:e8:5e:e5:7b:58:f5:36:23:e5:d8:94:7c:
                    5f:92:2f:bb:58:f5:aa:aa:67:f4:1d:df:91:e9:3b:
                    b9:c0:c0:06:09:4d:b0:c7:5c:98:30:75:ca:e7:a1:
                    1b:d4:f1:98:4d:93:7a:0d:56:71:64:08:6c:47:2a:
                    62:73:7c:fe:99:0d:7d:b2:00:1b:ef:0e:69:03:97:
                    f7:40:19:d4:af:c4:4e:5f:9b:3a:4b:74:96:f0:85:
                    fe:13:95:3d:23:fe:49:5a:16:f3:db:ad:cc:f4:aa:
                    ad:60:a0:2d:cb:98:e6:e6:03:a6:7d:8b:aa:fd:d9:
                    5b:13:61:ee:5f:64:1b:b7:f1:59:ac:6b:50:4b:4f:
                    11:e0:ae:2c:08:1a:a9:04:e2:a7:c2:86:33:57:6e:
                    6b:b5:71:f1:50:c2:34:ce:85:60:bf:dc:e5:01:ad:
                    3e:51:d0:d3:c9:54:1a:8b:e4:dc:66:51:1a:64:63:
                    f3:d8:41:0b:c3:1f:51:63:70:09:fe:2e:b9:34:60:
                    bd:ed:77:49:f4:c6:17:a4:37:08:7d:28:03:aa:ba:
                    1a:ab:5a:3e:c9:96:bd:e1:ab:11:f4:1e:39:3b:a1:
                    89:12:f4:a9:61:c4:13:8d:eb:88:04:bb:b1:0e:51:
                    82:50:04:d6:dc:77:10:b0:c2:0b:37:47:16:99:99:
                    a3:95
                Exponent: 65537 (0x10001)
        X509v3 extensions:
            X509v3 Basic Constraints: 
                CA:FALSE
            X509v3 Subject Key Identifier: 
                AB:3F:26:14:C0:BD:0B:BD:B4:4E:1A:FA:48:36:F4:46:66:A0:E8:70
            X509v3 Authority Key Identifier: 
                keyid:F2:06:72:11:16:26:79:15:2A:88:3F:F2:B3:6A:77:AD:0D:EB:E4:B6
                DirName:/CN=team464-net
                serial:0C:F3:3D:1D:8A:A8:ED:EC:87:54:3F:6E:C2:EC:02:39:6D:F0:85:DA
            X509v3 Extended Key Usage: 
                TLS Web Client Authentication
            X509v3 Key Usage: 
                Digital Signature
    Signature Algorithm: sha256WithRSAEncryption
    Signature Value:
        00:16:3b:6e:fa:40:3d:3c:97:b6:3c:cb:b7:9e:74:14:c3:3f:
        90:16:a5:98:f9:88:45:6f:41:9f:f8:03:65:7a:49:99:8c:ce:
        76:ad:45:2c:e4:75:04:87:fd:97:c1:b5:a8:c7:94:13:5a:7f:
        f1:a4:5b:b1:50:31:db:09:c4:df:62:54:6e:19:3c:c0:f4:1b:
        6a:98:00:32:72:c2:92:27:1f:ac:82:8c:93:d9:cd:c7:5c:bb:
        fd:be:43:2d:91:e7:44:3b:48:3b:0d:76:d4:b6:5f:93:bb:f9:
        e2:f1:40:1d:29:76:14:3e:1b:6a:9f:d4:32:b2:4e:a0:c3:b7:
        d8:46:01:43:29:e0:dd:97:31:b1:88:e3:80:0b:fc:39:47:51:
        2e:ef:81:5e:fa:d9:5b:1b:14:d3:de:0a:01:0a:d0:fd:e3:ab:
        6d:36:65:d4:b6:0b:78:00:82:97:20:b2:c8:f4:47:19:9a:4e:
        f6:54:e0:75:9f:12:c7:81:f2:39:3c:2b:17:77:02:80:03:5a:
        d6:63:38:f8:d4:71:a1:8c:0f:f5:5d:d4:a1:b9:84:40:24:1b:
        f3:94:62:ac:e9:e2:c2:83:68:30:fb:8a:78:50:f4:cf:f4:e2:
        6b:b1:7b:29:9c:18:3f:cd:4d:70:2b:b6:87:59:92:9f:3c:6f:
        bd:c3:a7:ed
-----BEGIN CERTIFICATE-----
MIIDXTCCAkWgAwIBAgIRAPX1yCCZ59jW+DXVkPVvRWMwDQYJKoZIhvcNAQELBQAw
FjEUMBIGA1UEAwwLdGVhbTQ2NC1uZXQwHhcNMjMxMTA0MTEzNzU3WhcNMjYxMDE5
MTEzNzU3WjAZMRcwFQYDVQQDDA50ZWFtNDY0LWNsaWVudDCCASIwDQYJKoZIhvcN
AQEBBQADggEPADCCAQoCggEBAKaw6F7le1j1NiPl2JR8X5Ivu1j1qqpn9B3fkek7
ucDABglNsMdcmDB1yuehG9TxmE2Teg1WcWQIbEcqYnN8/pkNfbIAG+8OaQOX90AZ
1K/ETl+bOkt0lvCF/hOVPSP+SVoW89utzPSqrWCgLcuY5uYDpn2Lqv3ZWxNh7l9k
G7fxWaxrUEtPEeCuLAgaqQTip8KGM1dua7Vx8VDCNM6FYL/c5QGtPlHQ08lUGovk
3GZRGmRj89hBC8MfUWNwCf4uuTRgve13SfTGF6Q3CH0oA6q6GqtaPsmWveGrEfQe
OTuhiRL0qWHEE43riAS7sQ5RglAE1tx3ELDCCzdHFpmZo5UCAwEAAaOBojCBnzAJ
BgNVHRMEAjAAMB0GA1UdDgQWBBSrPyYUwL0LvbROGvpINvRGZqDocDBRBgNVHSME
SjBIgBTyBnIRFiZ5FSqIP/KzanetDevktqEapBgwFjEUMBIGA1UEAwwLdGVhbTQ2
NC1uZXSCFAzzPR2KqO3sh1Q/bsLsAjlt8IXaMBMGA1UdJQQMMAoGCCsGAQUFBwMC
MAsGA1UdDwQEAwIHgDANBgkqhkiG9w0BAQsFAAOCAQEAABY7bvpAPTyXtjzLt550
FMM/kBalmPmIRW9Bn/gDZXpJmYzOdq1FLOR1BIf9l8G1qMeUE1p/8aRbsVAx2wnE
32JUbhk8wPQbapgAMnLCkicfrIKMk9nNx1y7/b5DLZHnRDtIOw121LZfk7v54vFA
HSl2FD4bap/UMrJOoMO32EYBQyng3ZcxsYjjgAv8OUdRLu+BXvrZWxsU094KAQrQ
/eOrbTZl1LYLeACClyCyyPRHGZpO9lTgdZ8Sx4HyOTwrF3cCgANa1mM4+NRxoYwP
9V3UobmEQCQb85RirOniwoNoMPuKeFD0z/Tia7F7KZwYP81NcCu2h1mSnzxvvcOn
7Q==
-----END CERTIFICATE-----
