Certificate:
    Data:
        Version: 3 (0x2)
        Serial Number:
            36:be:68:d4:33:0b:f6:1b:0e:27:ef:e3:af:04:59:4f
        Signature Algorithm: sha256WithRSAEncryption
        Issuer: CN=team288-net
        Validity
            Not Before: Nov  3 20:44:32 2023 GMT
            Not After : Oct 18 20:44:32 2026 GMT
        Subject: CN=team288-client
        Subject Public Key Info:
            Public Key Algorithm: rsaEncryption
                Public-Key: (2048 bit)
                Modulus:
                    00:9f:f0:a0:cf:ef:72:2f:39:ec:0b:a1:66:7f:be:
                    1d:ff:af:63:bf:53:a0:64:6e:f9:12:78:1a:ea:1b:
                    77:d6:aa:28:40:2e:b0:aa:48:df:94:1a:1a:1a:29:
                    28:d2:bc:7c:65:8f:4a:65:d0:d7:79:c9:ec:e7:c7:
                    ee:7c:d5:67:c3:d5:f5:43:00:fd:6b:4c:8b:87:21:
                    36:ce:f4:6e:2e:f6:97:f9:66:b2:0b:5b:9c:7e:84:
                    d7:e5:95:b9:8b:c5:9d:c9:ef:92:49:d6:71:0e:f4:
                    af:2e:10:28:95:8a:ae:8a:78:53:60:1d:8a:56:29:
                    9e:46:d8:f4:b2:89:f0:87:88:f0:d1:58:b3:96:47:
                    84:19:0d:24:23:8a:da:a2:82:c0:07:2b:8f:57:fd:
                    2f:ca:db:22:5b:c8:50:a2:52:3d:b3:7e:3b:a0:30:
                    c7:71:01:8e:6b:e2:7d:21:31:a1:12:ce:e3:5c:8c:
                    06:1d:7f:fb:ac:49:86:42:9b:73:08:56:00:22:1e:
                    81:3d:4a:d4:a4:f8:4f:31:c9:d4:5c:87:5b:6a:7c:
                    8d:78:cb:2b:64:14:ca:74:65:ee:83:35:c3:da:16:
                    70:a4:f6:2e:cc:0d:ab:89:1a:6d:4e:ae:70:39:16:
                    b4:aa:3e:9a:32:9d:8b:a2:30:98:b6:d1:b1:db:86:
                    6d:05
                Exponent: 65537 (0x10001)
        X509v3 extensions:
            X509v3 Basic Constraints: 
                CA:FALSE
            X509v3 Subject Key Identifier: 
                5B:11:50:9D:FA:57:05:C4:03:95:4A:69:41:3E:D0:8D:D3:30:CC:2D
            X509v3 Authority Key Identifier: 
                keyid:19:BD:B1:64:34:11:A0:50:B9:09:67:0D:A4:8C:B4:13:5F:CC:B8:99
                DirName:/CN=team288-net
                serial:4B:29:D9:55:77:14:D8:E7:BF:4C:27:CB:82:D4:7A:8B:94:A5:5D:14
            X509v3 Extended Key Usage: 
                TLS Web Client Authentication
            X509v3 Key Usage: 
                Digital Signature
    Signature Algorithm: sha256WithRSAEncryption
    Signature Value:
        23:55:ba:78:d4:2c:9b:07:20:ab:48:a4:1c:6c:7a:d4:ef:57:
        be:2e:7f:76:88:3a:da:9b:85:38:a0:86:5b:2f:a6:c5:c1:db:
        de:5d:69:1e:26:40:6c:4d:c4:74:95:df:57:cb:f6:19:06:70:
        ef:f9:a6:ff:50:e3:aa:37:fa:d0:ce:84:e9:25:ab:62:72:7e:
        1b:78:85:24:ed:bc:c8:5c:78:ef:69:cc:43:81:2b:7d:6f:b8:
        7b:27:80:21:2b:1f:d7:41:c7:37:b7:0d:41:24:85:17:35:f7:
        88:17:df:6e:ce:53:e5:df:c3:e2:dd:3f:5d:3d:9d:e2:1f:1b:
        56:a3:dc:23:d5:26:00:8d:ec:29:27:09:ac:ce:6e:11:2b:ec:
        26:80:58:c2:e6:c2:dc:96:84:7a:fc:4c:3e:01:83:c2:2d:ad:
        cf:2a:95:d2:b0:52:83:ad:5d:88:02:48:26:58:31:7b:af:af:
        6b:04:29:7a:f1:d2:d1:ec:c3:2d:02:d0:57:e1:d4:4a:b3:8a:
        45:66:2f:20:85:b4:8c:e2:11:98:ad:0e:f3:d0:f5:7b:c3:ed:
        bc:e8:af:86:33:04:45:31:4d:e6:cb:1b:bb:d5:51:b9:20:d5:
        5e:8c:72:eb:77:a4:1d:25:74:6b:55:80:af:7b:09:db:37:70:
        7b:e4:f1:32
-----BEGIN CERTIFICATE-----
MIIDXDCCAkSgAwIBAgIQNr5o1DML9hsOJ+/jrwRZTzANBgkqhkiG9w0BAQsFADAW
MRQwEgYDVQQDDAt0ZWFtMjg4LW5ldDAeFw0yMzExMDMyMDQ0MzJaFw0yNjEwMTgy
MDQ0MzJaMBkxFzAVBgNVBAMMDnRlYW0yODgtY2xpZW50MIIBIjANBgkqhkiG9w0B
AQEFAAOCAQ8AMIIBCgKCAQEAn/Cgz+9yLznsC6Fmf74d/69jv1OgZG75Enga6ht3
1qooQC6wqkjflBoaGiko0rx8ZY9KZdDXecns58fufNVnw9X1QwD9a0yLhyE2zvRu
LvaX+WayC1ucfoTX5ZW5i8Wdye+SSdZxDvSvLhAolYquinhTYB2KVimeRtj0sonw
h4jw0VizlkeEGQ0kI4raooLAByuPV/0vytsiW8hQolI9s347oDDHcQGOa+J9ITGh
Es7jXIwGHX/7rEmGQptzCFYAIh6BPUrUpPhPMcnUXIdbanyNeMsrZBTKdGXugzXD
2hZwpPYuzA2riRptTq5wORa0qj6aMp2LojCYttGx24ZtBQIDAQABo4GiMIGfMAkG
A1UdEwQCMAAwHQYDVR0OBBYEFFsRUJ36VwXEA5VKaUE+0I3TMMwtMFEGA1UdIwRK
MEiAFBm9sWQ0EaBQuQlnDaSMtBNfzLiZoRqkGDAWMRQwEgYDVQQDDAt0ZWFtMjg4
LW5ldIIUSynZVXcU2Oe/TCfLgtR6i5SlXRQwEwYDVR0lBAwwCgYIKwYBBQUHAwIw
CwYDVR0PBAQDAgeAMA0GCSqGSIb3DQEBCwUAA4IBAQAjVbp41CybByCrSKQcbHrU
71e+Ln92iDram4U4oIZbL6bFwdveXWkeJkBsTcR0ld9Xy/YZBnDv+ab/UOOqN/rQ
zoTpJaticn4beIUk7bzIXHjvacxDgSt9b7h7J4AhKx/XQcc3tw1BJIUXNfeIF99u
zlPl38Pi3T9dPZ3iHxtWo9wj1SYAjewpJwmszm4RK+wmgFjC5sLcloR6/Ew+AYPC
La3PKpXSsFKDrV2IAkgmWDF7r69rBCl68dLR7MMtAtBX4dRKs4pFZi8ghbSM4hGY
rQ7z0PV7w+286K+GMwRFMU3myxu71VG5INVejHLrd6QdJXRrVYCvewnbN3B75PEy
-----END CERTIFICATE-----
