Certificate:
    Data:
        Version: 3 (0x2)
        Serial Number:
            ce:7b:92:8b:5c:7e:9c:f4:da:67:e4:04:23:fd:0f:8a
        Signature Algorithm: sha256WithRSAEncryption
        Issuer: CN=team23-net
        Validity
            Not Before: Nov  4 11:27:48 2023 GMT
            Not After : Oct 19 11:27:48 2026 GMT
        Subject: CN=team23-client
        Subject Public Key Info:
            Public Key Algorithm: rsaEncryption
                Public-Key: (2048 bit)
                Modulus:
                    00:a7:7f:ac:55:20:20:75:21:ec:0d:ff:bf:fc:18:
                    0a:ff:84:df:e0:e1:5d:da:cb:73:5d:4c:87:5d:84:
                    99:5b:36:4f:2b:90:0d:11:0b:1d:e1:c3:b4:7b:39:
                    57:04:92:00:69:28:56:f6:e7:54:24:89:73:55:77:
                    07:6e:15:2e:fa:52:76:0d:ae:70:1e:00:7a:44:31:
                    b6:56:ce:02:d1:73:bc:4a:92:02:e3:66:21:86:43:
                    c8:11:48:12:b6:cc:f1:18:f8:d6:76:ae:e0:cb:d7:
                    a4:8c:af:46:1d:55:58:8c:f3:da:5d:43:64:ba:03:
                    20:5b:72:97:16:d0:0a:30:e4:ae:3a:42:9d:c7:66:
                    f6:7d:26:ff:b6:dc:70:2a:0d:b0:4b:10:32:78:22:
                    8d:18:da:0f:86:e8:c7:b8:1d:80:5e:27:bd:a0:34:
                    98:cd:0b:8d:71:06:76:f0:53:30:a9:39:e0:87:83:
                    0a:b1:87:b0:b3:77:ca:c8:cb:31:c7:d4:f1:0e:62:
                    b9:fb:3d:93:90:b0:86:82:d7:c0:78:ee:38:0b:74:
                    99:eb:57:e2:df:78:d8:5b:d6:51:ee:6c:96:1d:71:
                    0c:a9:12:dc:75:94:04:a4:70:ae:d6:2f:f7:e0:02:
                    ed:a3:e0:a8:f6:b5:22:c6:e0:01:a6:8a:8b:a2:0b:
                    e5:8f
                Exponent: 65537 (0x10001)
        X509v3 extensions:
            X509v3 Basic Constraints: 
                CA:FALSE
            X509v3 Subject Key Identifier: 
                36:ED:31:96:6F:5E:B6:D4:8B:01:6E:A1:92:11:32:6A:4F:4D:A7:3A
            X509v3 Authority Key Identifier: 
                keyid:6A:95:10:6F:C3:E9:5C:F9:42:C6:09:1F:F0:4F:FB:0D:45:EF:16:63
                DirName:/CN=team23-net
                serial:04:06:0C:80:7F:66:08:51:BB:F6:E5:99:50:E6:B2:03:FA:07:3D:5F
            X509v3 Extended Key Usage: 
                TLS Web Client Authentication
            X509v3 Key Usage: 
                Digital Signature
    Signature Algorithm: sha256WithRSAEncryption
    Signature Value:
        80:ac:ce:9e:ac:d1:29:0c:30:2e:d2:9d:91:cf:be:6b:5e:6a:
        05:63:40:2b:aa:1d:5b:ea:33:d7:23:9e:dd:ce:7d:9a:28:5a:
        a4:41:81:cd:dd:91:1f:3f:51:3e:d7:a1:bd:b7:d1:f3:0b:f6:
        38:82:4a:de:a4:53:c2:eb:bb:cf:36:62:f6:13:1d:13:e2:0c:
        38:2a:be:42:b6:5d:b0:ae:17:4e:a3:7e:bf:f7:e3:f1:a8:c5:
        f4:e8:67:a1:bf:ee:bf:3c:be:29:4f:2c:cd:de:fa:37:8c:b5:
        1e:35:5d:14:4b:e8:52:be:4b:ab:1d:a0:bc:55:ae:e5:f2:25:
        29:8e:28:ad:f5:98:77:fc:64:46:c3:2a:02:f3:16:54:1c:60:
        21:98:f1:73:9e:f6:cc:6a:c4:13:3b:36:8c:53:1f:8a:10:a5:
        f1:97:94:86:17:fa:64:31:04:66:6d:90:1a:2c:50:d5:04:34:
        2a:cd:a4:19:56:55:df:69:ce:aa:a4:75:2e:42:b6:61:e8:63:
        b5:45:83:6e:98:70:a8:b4:0f:f5:80:23:ff:67:39:49:62:28:
        b3:46:e9:c5:ff:08:02:b9:91:c8:44:33:58:bf:40:0e:83:53:
        af:9b:ea:a4:14:d9:5d:4f:88:38:e6:97:7c:5f:90:54:47:d9:
        26:23:53:ef
-----BEGIN CERTIFICATE-----
MIIDWjCCAkKgAwIBAgIRAM57kotcfpz02mfkBCP9D4owDQYJKoZIhvcNAQELBQAw
FTETMBEGA1UEAwwKdGVhbTIzLW5ldDAeFw0yMzExMDQxMTI3NDhaFw0yNjEwMTkx
MTI3NDhaMBgxFjAUBgNVBAMMDXRlYW0yMy1jbGllbnQwggEiMA0GCSqGSIb3DQEB
AQUAA4IBDwAwggEKAoIBAQCnf6xVICB1IewN/7/8GAr/hN/g4V3ay3NdTIddhJlb
Nk8rkA0RCx3hw7R7OVcEkgBpKFb251QkiXNVdwduFS76UnYNrnAeAHpEMbZWzgLR
c7xKkgLjZiGGQ8gRSBK2zPEY+NZ2ruDL16SMr0YdVViM89pdQ2S6AyBbcpcW0Aow
5K46Qp3HZvZ9Jv+23HAqDbBLEDJ4Io0Y2g+G6Me4HYBeJ72gNJjNC41xBnbwUzCp
OeCHgwqxh7Czd8rIyzHH1PEOYrn7PZOQsIaC18B47jgLdJnrV+LfeNhb1lHubJYd
cQypEtx1lASkcK7WL/fgAu2j4Kj2tSLG4AGmiouiC+WPAgMBAAGjgaEwgZ4wCQYD
VR0TBAIwADAdBgNVHQ4EFgQUNu0xlm9ettSLAW6hkhEyak9NpzowUAYDVR0jBEkw
R4AUapUQb8PpXPlCxgkf8E/7DUXvFmOhGaQXMBUxEzARBgNVBAMMCnRlYW0yMy1u
ZXSCFAQGDIB/ZghRu/blmVDmsgP6Bz1fMBMGA1UdJQQMMAoGCCsGAQUFBwMCMAsG
A1UdDwQEAwIHgDANBgkqhkiG9w0BAQsFAAOCAQEAgKzOnqzRKQwwLtKdkc++a15q
BWNAK6odW+oz1yOe3c59mihapEGBzd2RHz9RPtehvbfR8wv2OIJK3qRTwuu7zzZi
9hMdE+IMOCq+QrZdsK4XTqN+v/fj8ajF9Ohnob/uvzy+KU8szd76N4y1HjVdFEvo
Ur5Lqx2gvFWu5fIlKY4orfWYd/xkRsMqAvMWVBxgIZjxc572zGrEEzs2jFMfihCl
8ZeUhhf6ZDEEZm2QGixQ1QQ0Ks2kGVZV32nOqqR1LkK2YehjtUWDbphwqLQP9YAj
/2c5SWIos0bpxf8IArmRyEQzWL9ADoNTr5vqpBTZXU+IOOaXfF+QVEfZJiNT7w==
-----END CERTIFICATE-----
