Certificate:
    Data:
        Version: 3 (0x2)
        Serial Number:
            6e:2a:65:cb:f3:34:41:4f:25:c3:30:4b:43:0d:f4:f4
        Signature Algorithm: sha256WithRSAEncryption
        Issuer: CN=team107-net
        Validity
            Not Before: Nov  3 20:41:04 2023 GMT
            Not After : Oct 18 20:41:04 2026 GMT
        Subject: CN=team107-server
        Subject Public Key Info:
            Public Key Algorithm: rsaEncryption
                Public-Key: (2048 bit)
                Modulus:
                    00:88:82:04:0f:e0:65:f6:3f:80:fe:bb:16:d8:85:
                    5e:ba:e5:0c:37:b2:a9:6b:fe:20:42:c2:c1:5b:db:
                    c6:9f:e9:57:66:e8:31:67:4e:3e:e1:b7:39:d3:ca:
                    a8:58:26:ba:59:64:5f:3e:ca:3b:dd:cd:5c:51:c5:
                    d9:eb:d5:45:21:a2:96:69:a3:6c:85:bb:e7:21:15:
                    5c:ed:45:00:3a:c9:ba:06:65:2b:51:6c:ed:ba:20:
                    a1:a3:1c:fe:6e:d5:72:ba:fd:95:34:ed:01:0a:34:
                    29:a7:eb:75:7a:cc:99:0e:3c:02:df:c4:40:95:ae:
                    57:1d:1e:55:43:d2:91:77:eb:15:12:d0:1a:a3:2a:
                    25:12:85:e5:f0:a8:a5:a2:dc:7f:10:f3:33:c7:c4:
                    3d:f7:b2:33:20:53:e1:31:27:06:3f:51:ca:f6:0d:
                    c6:51:c6:1b:62:f5:3b:78:d2:53:ad:74:52:7e:2f:
                    a9:77:de:d2:09:bb:29:78:de:db:6c:11:f2:4d:0d:
                    8f:fd:c4:3f:ae:fb:e1:4a:55:20:c2:89:2e:97:bd:
                    dc:a3:f6:ec:9c:88:9b:f5:ad:7c:4e:1b:da:28:17:
                    50:09:75:ff:37:32:09:f3:b3:17:6f:ed:8d:26:92:
                    74:01:93:ab:4e:46:08:8f:0a:90:79:69:de:93:29:
                    d4:f3
                Exponent: 65537 (0x10001)
        X509v3 extensions:
            X509v3 Basic Constraints: 
                CA:FALSE
            X509v3 Subject Key Identifier: 
                F3:D2:F1:B6:B9:D7:C9:E3:6F:63:FE:F5:00:69:A8:FD:AD:C4:24:DE
            X509v3 Authority Key Identifier: 
                keyid:4C:C1:D4:A9:04:C8:00:8C:79:54:1D:39:2E:C8:12:B7:62:8C:DF:92
                DirName:/CN=team107-net
                serial:20:A5:A1:E6:DB:9F:A2:71:E1:C3:F6:19:E9:22:9D:9E:A7:8B:FE:08
            X509v3 Extended Key Usage: 
                TLS Web Server Authentication
            X509v3 Key Usage: 
                Digital Signature, Key Encipherment
            X509v3 Subject Alternative Name: 
                DNS:team107-server
    Signature Algorithm: sha256WithRSAEncryption
    Signature Value:
        02:08:86:b7:b0:d4:87:cf:40:3e:e2:3d:cd:0f:ca:09:54:d4:
        96:5e:0f:3d:6b:2e:d9:51:1a:16:a3:d6:cd:ef:dd:72:65:a3:
        46:a9:d7:a9:ba:5b:b6:02:33:cb:9c:df:f7:8e:50:42:d6:a2:
        1a:18:9c:94:31:ba:a0:3a:3d:8f:cd:bc:94:49:f2:1e:8e:73:
        6d:1c:ee:6e:17:71:88:52:c8:a6:ad:bd:0a:ba:fc:60:99:99:
        b6:c8:db:25:a5:42:2e:54:9d:19:66:aa:9c:19:39:ea:aa:c4:
        ff:78:54:7c:30:a9:86:46:54:41:ad:df:9b:88:d6:36:f8:ae:
        c2:6a:74:e6:c7:9c:1e:61:50:ab:b5:30:77:7e:60:f6:ef:bf:
        e9:a5:e1:5d:e1:a3:19:fe:f8:2c:b7:b6:e3:5d:30:d7:df:da:
        b5:3c:c6:a8:fd:b4:56:a9:4d:65:b6:13:2d:0d:89:d6:05:07:
        df:c4:2f:97:8a:ad:7f:3e:58:a1:ff:5d:9d:e6:f9:7f:82:57:
        bc:96:6e:f5:3a:1a:82:95:68:89:b8:05:6e:b3:9f:bf:8c:a1:
        53:cf:84:d8:c0:9f:50:e3:fe:49:6c:2b:b7:c1:30:53:52:c8:
        3f:32:71:7c:3e:81:13:47:1e:62:6a:58:f1:d6:c7:b1:d0:63:
        0a:8b:dc:48
-----BEGIN CERTIFICATE-----
MIIDdzCCAl+gAwIBAgIQbiply/M0QU8lwzBLQw309DANBgkqhkiG9w0BAQsFADAW
MRQwEgYDVQQDDAt0ZWFtMTA3LW5ldDAeFw0yMzExMDMyMDQxMDRaFw0yNjEwMTgy
MDQxMDRaMBkxFzAVBgNVBAMMDnRlYW0xMDctc2VydmVyMIIBIjANBgkqhkiG9w0B
AQEFAAOCAQ8AMIIBCgKCAQEAiIIED+Bl9j+A/rsW2IVeuuUMN7Kpa/4gQsLBW9vG
n+lXZugxZ04+4bc508qoWCa6WWRfPso73c1cUcXZ69VFIaKWaaNshbvnIRVc7UUA
Osm6BmUrUWztuiChoxz+btVyuv2VNO0BCjQpp+t1esyZDjwC38RAla5XHR5VQ9KR
d+sVEtAaoyolEoXl8Kilotx/EPMzx8Q997IzIFPhMScGP1HK9g3GUcYbYvU7eNJT
rXRSfi+pd97SCbspeN7bbBHyTQ2P/cQ/rvvhSlUgwokul73co/bsnIib9a18Thva
KBdQCXX/NzIJ87MXb+2NJpJ0AZOrTkYIjwqQeWnekynU8wIDAQABo4G9MIG6MAkG
A1UdEwQCMAAwHQYDVR0OBBYEFPPS8ba518njb2P+9QBpqP2txCTeMFEGA1UdIwRK
MEiAFEzB1KkEyACMeVQdOS7IErdijN+SoRqkGDAWMRQwEgYDVQQDDAt0ZWFtMTA3
LW5ldIIUIKWh5tufonHhw/YZ6SKdnqeL/ggwEwYDVR0lBAwwCgYIKwYBBQUHAwEw
CwYDVR0PBAQDAgWgMBkGA1UdEQQSMBCCDnRlYW0xMDctc2VydmVyMA0GCSqGSIb3
DQEBCwUAA4IBAQACCIa3sNSHz0A+4j3ND8oJVNSWXg89ay7ZURoWo9bN791yZaNG
qdepulu2AjPLnN/3jlBC1qIaGJyUMbqgOj2PzbyUSfIejnNtHO5uF3GIUsimrb0K
uvxgmZm2yNslpUIuVJ0ZZqqcGTnqqsT/eFR8MKmGRlRBrd+biNY2+K7CanTmx5we
YVCrtTB3fmD277/ppeFd4aMZ/vgst7bjXTDX39q1PMao/bRWqU1lthMtDYnWBQff
xC+Xiq1/Plih/12d5vl/gle8lm71OhqClWiJuAVus5+/jKFTz4TYwJ9Q4/5JbCu3
wTBTUsg/MnF8PoETRx5ialjx1sex0GMKi9xI
-----END CERTIFICATE-----
