Certificate:
    Data:
        Version: 3 (0x2)
        Serial Number:
            51:3f:e1:a8:4e:d5:8d:64:05:6f:07:0f:fe:1e:ff:ad
        Signature Algorithm: sha256WithRSAEncryption
        Issuer: CN=team419-net
        Validity
            Not Before: Nov  4 11:36:54 2023 GMT
            Not After : Oct 19 11:36:54 2026 GMT
        Subject: CN=team419-client
        Subject Public Key Info:
            Public Key Algorithm: rsaEncryption
                Public-Key: (2048 bit)
                Modulus:
                    00:e3:b6:c9:e9:b8:c9:41:ca:e6:18:85:a0:06:06:
                    f9:1c:fd:40:df:e8:e9:18:17:d5:69:7b:62:60:0c:
                    2c:2c:48:a7:bf:ab:a6:a5:14:b2:45:5c:28:1c:06:
                    17:88:c5:53:6f:6b:a3:3b:c9:ed:97:8c:c1:cd:12:
                    73:7a:be:28:63:1c:08:c2:51:0a:2d:79:f0:3c:86:
                    ce:15:85:cf:c5:d3:6c:2a:e1:1b:03:61:d0:d1:d2:
                    0b:28:9f:94:1d:8a:e5:5f:53:13:95:5d:01:6e:0a:
                    df:22:be:ee:c5:26:23:6b:c4:35:04:2f:72:0a:89:
                    b4:49:c5:58:93:1f:a7:ec:bc:53:6e:35:a0:82:92:
                    07:70:f6:70:6a:8d:c7:b0:69:a7:dd:14:e7:6a:dd:
                    3f:60:26:68:c8:c1:77:bc:5f:24:48:ec:ce:3c:4a:
                    3f:71:cc:b2:fa:83:dd:04:31:d2:de:9d:36:7d:d0:
                    f5:90:a3:f2:17:d0:f5:b7:6b:0f:29:5e:e2:73:cb:
                    80:bf:81:ff:5a:cc:80:dc:81:1e:e9:b7:fd:09:31:
                    41:10:b9:8d:70:b7:b4:a9:70:6c:fa:b9:ec:6c:34:
                    ec:7f:2c:ac:f8:59:d0:20:2a:3c:5f:5d:78:bd:0c:
                    b6:c9:3a:29:b7:37:05:04:1a:52:f6:81:55:68:d4:
                    04:63
                Exponent: 65537 (0x10001)
        X509v3 extensions:
            X509v3 Basic Constraints: 
                CA:FALSE
            X509v3 Subject Key Identifier: 
                1D:47:0D:56:5D:77:FE:3C:B9:50:C4:4B:51:0E:27:6B:42:C3:0F:A1
            X509v3 Authority Key Identifier: 
                keyid:DA:1B:86:47:2C:4E:B5:7D:DF:61:C3:EE:7E:74:B4:09:80:A7:85:71
                DirName:/CN=team419-net
                serial:7C:F0:B4:65:A3:21:5E:65:D0:54:25:59:25:8C:26:93:07:AB:F0:49
            X509v3 Extended Key Usage: 
                TLS Web Client Authentication
            X509v3 Key Usage: 
                Digital Signature
    Signature Algorithm: sha256WithRSAEncryption
    Signature Value:
        7e:54:af:2c:65:61:fa:c4:12:00:40:68:39:24:1b:de:e3:f7:
        f2:b6:6c:82:92:e8:a0:29:b8:86:6a:57:92:a0:70:18:f6:9e:
        76:b5:6c:4c:4f:09:1a:d7:79:16:70:cc:af:93:18:b1:33:de:
        25:13:8e:fa:1a:36:c0:f9:e8:b0:69:07:35:fc:73:13:f5:c2:
        29:29:b2:9b:19:0c:73:14:50:56:3e:38:57:3a:20:5f:ba:3b:
        f9:b7:e2:a7:d0:d8:f5:ab:11:b4:24:bb:bf:73:c2:9f:1c:bf:
        6f:1b:fb:e7:52:b2:38:92:85:37:0e:67:88:21:8b:15:ec:a8:
        76:ff:c2:2c:dd:3e:69:9a:5d:d9:91:be:36:6f:72:c7:57:95:
        a9:18:ee:af:29:8f:cd:6d:97:85:81:02:f6:67:01:b8:30:62:
        8e:32:70:b5:f3:95:a9:84:2a:80:3a:a2:d1:93:f4:af:e8:03:
        5b:c8:78:ae:6e:01:03:be:e1:4c:8d:98:bb:26:fc:6f:c8:72:
        51:2f:b3:74:f4:d3:83:7b:3d:f7:1a:c1:e6:1c:9e:b6:9d:ac:
        9c:3e:ec:d2:ba:37:69:79:54:41:e0:9e:86:f2:0f:28:f2:3a:
        04:04:ef:44:d2:ae:28:3b:06:3a:54:66:b2:12:40:e3:7e:30:
        c8:08:60:c0
-----BEGIN CERTIFICATE-----
MIIDXDCCAkSgAwIBAgIQUT/hqE7VjWQFbwcP/h7/rTANBgkqhkiG9w0BAQsFADAW
MRQwEgYDVQQDDAt0ZWFtNDE5LW5ldDAeFw0yMzExMDQxMTM2NTRaFw0yNjEwMTkx
MTM2NTRaMBkxFzAVBgNVBAMMDnRlYW00MTktY2xpZW50MIIBIjANBgkqhkiG9w0B
AQEFAAOCAQ8AMIIBCgKCAQEA47bJ6bjJQcrmGIWgBgb5HP1A3+jpGBfVaXtiYAws
LEinv6umpRSyRVwoHAYXiMVTb2ujO8ntl4zBzRJzer4oYxwIwlEKLXnwPIbOFYXP
xdNsKuEbA2HQ0dILKJ+UHYrlX1MTlV0BbgrfIr7uxSYja8Q1BC9yCom0ScVYkx+n
7LxTbjWggpIHcPZwao3HsGmn3RTnat0/YCZoyMF3vF8kSOzOPEo/ccyy+oPdBDHS
3p02fdD1kKPyF9D1t2sPKV7ic8uAv4H/WsyA3IEe6bf9CTFBELmNcLe0qXBs+rns
bDTsfyys+FnQICo8X114vQy2yToptzcFBBpS9oFVaNQEYwIDAQABo4GiMIGfMAkG
A1UdEwQCMAAwHQYDVR0OBBYEFB1HDVZdd/48uVDES1EOJ2tCww+hMFEGA1UdIwRK
MEiAFNobhkcsTrV932HD7n50tAmAp4VxoRqkGDAWMRQwEgYDVQQDDAt0ZWFtNDE5
LW5ldIIUfPC0ZaMhXmXQVCVZJYwmkwer8EkwEwYDVR0lBAwwCgYIKwYBBQUHAwIw
CwYDVR0PBAQDAgeAMA0GCSqGSIb3DQEBCwUAA4IBAQB+VK8sZWH6xBIAQGg5JBve
4/fytmyCkuigKbiGaleSoHAY9p52tWxMTwka13kWcMyvkxixM94lE476GjbA+eiw
aQc1/HMT9cIpKbKbGQxzFFBWPjhXOiBfujv5t+Kn0Nj1qxG0JLu/c8KfHL9vG/vn
UrI4koU3DmeIIYsV7Kh2/8Is3T5pml3Zkb42b3LHV5WpGO6vKY/NbZeFgQL2ZwG4
MGKOMnC185WphCqAOqLRk/Sv6ANbyHiubgEDvuFMjZi7JvxvyHJRL7N09NODez33
GsHmHJ62naycPuzSujdpeVRB4J6G8g8o8joEBO9E0q4oOwY6VGayEkDjfjDICGDA
-----END CERTIFICATE-----
