Certificate:
    Data:
        Version: 3 (0x2)
        Serial Number:
            81:d9:e2:d6:91:0f:8b:1e:15:16:92:2b:fb:48:3f:97
        Signature Algorithm: sha256WithRSAEncryption
        Issuer: CN=team419-net
        Validity
            Not Before: Nov  4 10:48:11 2023 GMT
            Not After : Oct 19 10:48:11 2026 GMT
        Subject: CN=team419-client
        Subject Public Key Info:
            Public Key Algorithm: rsaEncryption
                Public-Key: (2048 bit)
                Modulus:
                    00:c7:25:68:0f:52:f5:3d:d0:89:32:b1:46:28:0c:
                    de:f4:67:e6:f9:25:72:58:6c:b3:49:27:7d:9c:f6:
                    d6:28:e6:24:78:59:3c:05:38:06:fd:fb:41:54:c6:
                    db:f2:d2:5b:11:f0:12:29:48:b8:80:82:2c:c4:f1:
                    aa:e9:5b:f6:b9:39:26:6c:2b:3f:7b:ef:34:f8:be:
                    c7:c0:0c:99:07:7c:d0:d8:81:02:63:a2:d9:05:fa:
                    38:de:2f:e2:26:39:c6:be:35:90:1d:ea:72:aa:da:
                    46:88:58:84:cb:6b:9e:1b:29:11:2c:9f:38:3c:82:
                    fb:64:18:c6:82:63:93:a9:d2:47:f2:1e:e1:1d:a1:
                    06:6a:a8:c9:db:ff:e1:5f:62:71:33:e7:45:bb:7b:
                    8d:c5:65:5c:3c:42:25:99:2d:2f:6b:72:12:d6:19:
                    b8:84:0d:d3:19:71:58:07:50:ed:b1:4c:16:07:24:
                    7c:4e:3d:48:c5:2d:ff:97:cd:4a:de:2e:f4:e7:81:
                    db:23:65:19:ee:58:e1:85:35:9b:87:fd:c2:5c:e0:
                    7d:d4:79:94:06:86:0a:7d:a1:fd:03:bf:b7:b8:ee:
                    68:c6:0d:11:5c:c6:a0:9e:e4:8b:2e:00:53:f5:68:
                    83:b7:02:e4:e9:69:a9:b2:d9:a7:8d:f7:9f:eb:54:
                    40:bd
                Exponent: 65537 (0x10001)
        X509v3 extensions:
            X509v3 Basic Constraints: 
                CA:FALSE
            X509v3 Subject Key Identifier: 
                49:B4:2E:7F:9F:A3:47:78:52:D8:F7:E9:94:7D:7B:D5:D1:2A:AB:23
            X509v3 Authority Key Identifier: 
                keyid:BD:37:07:77:49:F4:88:8E:CF:45:AC:A4:8C:DC:95:19:A5:1E:BF:6D
                DirName:/CN=team419-net
                serial:1E:45:BF:E6:C3:F6:16:B4:C4:31:0F:33:2A:78:B9:D0:E1:51:B7:6F
            X509v3 Extended Key Usage: 
                TLS Web Client Authentication
            X509v3 Key Usage: 
                Digital Signature
    Signature Algorithm: sha256WithRSAEncryption
    Signature Value:
        89:31:fc:3f:ec:b1:fa:98:6e:c0:7f:bf:b6:49:0d:ea:07:2b:
        ee:c2:9e:2f:75:4e:4a:b4:25:89:68:94:13:d1:8b:dc:6a:d4:
        78:a7:47:5b:90:7a:95:6c:d5:5a:5a:45:00:e4:49:83:98:a7:
        93:46:0f:33:ab:6f:d8:61:73:94:f3:e5:31:2c:99:90:98:9a:
        98:3c:4b:f2:d9:a2:57:6e:35:53:11:f1:90:b0:19:67:fa:c4:
        21:e0:a7:36:19:a6:2d:50:e6:a4:cf:47:d6:8a:2d:15:0f:f9:
        c3:81:88:91:1f:f7:54:c0:fd:f3:0a:b2:ab:2c:38:b1:6a:1a:
        50:bf:6e:fa:57:de:81:d9:08:a7:a9:62:89:3b:69:6f:19:3d:
        a5:45:58:0f:d4:fa:f8:0d:a8:3b:c0:2d:a3:97:65:36:39:e3:
        08:df:f9:7f:7f:d7:62:3f:23:5b:72:0d:c7:ec:bb:f7:13:a8:
        79:30:7f:1a:02:90:6b:0c:d3:5e:6e:5e:30:1c:c6:f9:9a:71:
        32:7c:46:0e:aa:72:63:c8:77:4c:28:0b:94:fe:ea:f4:83:45:
        c6:8a:06:cc:57:08:f1:4c:58:90:cc:ff:ad:a3:e4:67:71:96:
        eb:fb:69:a6:b2:fb:bf:94:80:ae:de:62:b5:43:32:67:dd:ef:
        7f:42:90:0a
-----BEGIN CERTIFICATE-----
MIIDXTCCAkWgAwIBAgIRAIHZ4taRD4seFRaSK/tIP5cwDQYJKoZIhvcNAQELBQAw
FjEUMBIGA1UEAwwLdGVhbTQxOS1uZXQwHhcNMjMxMTA0MTA0ODExWhcNMjYxMDE5
MTA0ODExWjAZMRcwFQYDVQQDDA50ZWFtNDE5LWNsaWVudDCCASIwDQYJKoZIhvcN
AQEBBQADggEPADCCAQoCggEBAMclaA9S9T3QiTKxRigM3vRn5vklclhss0knfZz2
1ijmJHhZPAU4Bv37QVTG2/LSWxHwEilIuICCLMTxqulb9rk5JmwrP3vvNPi+x8AM
mQd80NiBAmOi2QX6ON4v4iY5xr41kB3qcqraRohYhMtrnhspESyfODyC+2QYxoJj
k6nSR/Ie4R2hBmqoydv/4V9icTPnRbt7jcVlXDxCJZktL2tyEtYZuIQN0xlxWAdQ
7bFMFgckfE49SMUt/5fNSt4u9OeB2yNlGe5Y4YU1m4f9wlzgfdR5lAaGCn2h/QO/
t7juaMYNEVzGoJ7kiy4AU/Vog7cC5OlpqbLZp433n+tUQL0CAwEAAaOBojCBnzAJ
BgNVHRMEAjAAMB0GA1UdDgQWBBRJtC5/n6NHeFLY9+mUfXvV0SqrIzBRBgNVHSME
SjBIgBS9Nwd3SfSIjs9FrKSM3JUZpR6/baEapBgwFjEUMBIGA1UEAwwLdGVhbTQx
OS1uZXSCFB5Fv+bD9ha0xDEPMyp4udDhUbdvMBMGA1UdJQQMMAoGCCsGAQUFBwMC
MAsGA1UdDwQEAwIHgDANBgkqhkiG9w0BAQsFAAOCAQEAiTH8P+yx+phuwH+/tkkN
6gcr7sKeL3VOSrQliWiUE9GL3GrUeKdHW5B6lWzVWlpFAORJg5ink0YPM6tv2GFz
lPPlMSyZkJiamDxL8tmiV241UxHxkLAZZ/rEIeCnNhmmLVDmpM9H1ootFQ/5w4GI
kR/3VMD98wqyqyw4sWoaUL9u+lfegdkIp6liiTtpbxk9pUVYD9T6+A2oO8Ato5dl
NjnjCN/5f3/XYj8jW3INx+y79xOoeTB/GgKQawzTXm5eMBzG+ZpxMnxGDqpyY8h3
TCgLlP7q9INFxooGzFcI8UxYkMz/raPkZ3GW6/tpprL7v5SArt5itUMyZ93vf0KQ
Cg==
-----END CERTIFICATE-----
