Certificate:
    Data:
        Version: 3 (0x2)
        Serial Number:
            f5:01:6b:4e:00:8d:3c:a3:26:16:c6:55:e3:94:85:8c
        Signature Algorithm: sha256WithRSAEncryption
        Issuer: CN=team419-net
        Validity
            Not Before: Nov  4 10:48:11 2023 GMT
            Not After : Oct 19 10:48:11 2026 GMT
        Subject: CN=team419-server
        Subject Public Key Info:
            Public Key Algorithm: rsaEncryption
                Public-Key: (2048 bit)
                Modulus:
                    00:b2:59:23:02:07:47:ec:24:3c:94:58:06:e7:18:
                    d2:d2:b2:11:ce:92:22:ea:ef:9d:42:84:65:6f:82:
                    09:3e:fb:8a:ad:7a:0d:7a:07:a5:92:ae:75:0a:4b:
                    af:e1:30:83:c1:8a:2b:c7:03:90:16:0d:af:e2:78:
                    4a:29:1c:13:f2:72:72:69:6e:61:d1:9e:1d:84:8d:
                    90:82:84:0d:6a:f4:ec:93:69:da:78:ad:34:e2:56:
                    a2:b0:73:e5:8d:60:f5:cf:6d:57:e1:9a:a4:72:39:
                    88:10:6d:2d:b6:cd:f3:e0:39:74:eb:e0:de:d1:f5:
                    d9:a9:53:75:13:a2:52:4f:36:b2:eb:27:ff:63:6c:
                    71:00:26:61:ff:0c:fb:3f:1c:09:f9:3f:61:e4:49:
                    b6:6c:2c:ed:bc:ff:f6:85:aa:56:94:2f:f3:8a:c1:
                    67:03:58:ff:e1:c2:02:f4:8c:6e:ea:7e:49:ba:25:
                    16:91:6d:0c:21:9f:90:f1:22:dc:d7:1b:60:97:0c:
                    8c:9a:56:4c:6b:5e:dc:1a:47:1e:6a:f5:d1:a2:45:
                    08:44:34:ad:53:47:69:13:3b:17:b2:2e:87:71:e0:
                    ab:e5:95:17:ad:41:12:51:4d:97:94:b4:47:fb:60:
                    a7:a0:8c:29:34:8b:81:d0:df:9f:24:92:c0:f9:ce:
                    58:a3
                Exponent: 65537 (0x10001)
        X509v3 extensions:
            X509v3 Basic Constraints: 
                CA:FALSE
            X509v3 Subject Key Identifier: 
                42:2F:15:12:8A:25:3F:BD:69:77:78:4F:BC:79:21:6C:7B:F8:67:6E
            X509v3 Authority Key Identifier: 
                keyid:BD:37:07:77:49:F4:88:8E:CF:45:AC:A4:8C:DC:95:19:A5:1E:BF:6D
                DirName:/CN=team419-net
                serial:1E:45:BF:E6:C3:F6:16:B4:C4:31:0F:33:2A:78:B9:D0:E1:51:B7:6F
            X509v3 Extended Key Usage: 
                TLS Web Server Authentication
            X509v3 Key Usage: 
                Digital Signature, Key Encipherment
            X509v3 Subject Alternative Name: 
                DNS:team419-server
    Signature Algorithm: sha256WithRSAEncryption
    Signature Value:
        2f:8c:ea:4a:38:34:30:3e:07:c6:33:8b:1c:30:73:fa:1d:03:
        57:f0:d7:5a:78:9f:22:04:39:9e:87:ac:37:fb:f5:38:f3:a8:
        ed:31:64:35:25:95:11:e5:43:2d:f5:b0:c3:25:2a:26:f1:19:
        18:55:ed:fe:72:a5:fc:6a:45:93:22:9f:74:58:21:8c:db:a7:
        45:3a:26:cd:27:48:da:c3:00:8d:69:dd:02:1e:f0:04:ea:a0:
        49:60:86:29:d1:bb:68:eb:64:80:eb:8a:0c:ed:0c:05:ba:58:
        62:70:58:d8:6d:12:20:3b:a3:3d:29:ab:f0:49:4a:86:f8:25:
        41:2c:72:4d:9a:c8:a1:18:3b:65:f2:1b:92:8f:39:97:a1:8a:
        9d:97:3b:3b:33:87:4e:ff:42:5e:8f:9b:8f:cd:c8:18:9e:6b:
        be:87:0a:4c:05:25:89:97:e4:84:d7:61:ad:94:56:b1:a4:3b:
        c4:43:ba:c8:30:3e:ad:4c:61:03:bd:c4:cc:01:28:45:7e:bc:
        f1:00:62:c9:96:40:5c:8b:43:b6:82:a6:37:34:fa:c2:d0:15:
        ab:27:64:ba:5e:53:e3:fb:2a:c8:3f:a2:3d:68:f2:86:14:af:
        2b:24:b8:e9:58:d5:9d:49:02:0e:1f:c8:fe:ec:dc:fe:ef:55:
        4d:92:c1:ac
-----BEGIN CERTIFICATE-----
MIIDeDCCAmCgAwIBAgIRAPUBa04AjTyjJhbGVeOUhYwwDQYJKoZIhvcNAQELBQAw
FjEUMBIGA1UEAwwLdGVhbTQxOS1uZXQwHhcNMjMxMTA0MTA0ODExWhcNMjYxMDE5
MTA0ODExWjAZMRcwFQYDVQQDDA50ZWFtNDE5LXNlcnZlcjCCASIwDQYJKoZIhvcN
AQEBBQADggEPADCCAQoCggEBALJZIwIHR+wkPJRYBucY0tKyEc6SIurvnUKEZW+C
CT77iq16DXoHpZKudQpLr+Ewg8GKK8cDkBYNr+J4SikcE/JycmluYdGeHYSNkIKE
DWr07JNp2nitNOJWorBz5Y1g9c9tV+GapHI5iBBtLbbN8+A5dOvg3tH12alTdROi
Uk82susn/2NscQAmYf8M+z8cCfk/YeRJtmws7bz/9oWqVpQv84rBZwNY/+HCAvSM
bup+SbolFpFtDCGfkPEi3NcbYJcMjJpWTGte3BpHHmr10aJFCEQ0rVNHaRM7F7Iu
h3Hgq+WVF61BElFNl5S0R/tgp6CMKTSLgdDfnySSwPnOWKMCAwEAAaOBvTCBujAJ
BgNVHRMEAjAAMB0GA1UdDgQWBBRCLxUSiiU/vWl3eE+8eSFse/hnbjBRBgNVHSME
SjBIgBS9Nwd3SfSIjs9FrKSM3JUZpR6/baEapBgwFjEUMBIGA1UEAwwLdGVhbTQx
OS1uZXSCFB5Fv+bD9ha0xDEPMyp4udDhUbdvMBMGA1UdJQQMMAoGCCsGAQUFBwMB
MAsGA1UdDwQEAwIFoDAZBgNVHREEEjAQgg50ZWFtNDE5LXNlcnZlcjANBgkqhkiG
9w0BAQsFAAOCAQEAL4zqSjg0MD4HxjOLHDBz+h0DV/DXWnifIgQ5noesN/v1OPOo
7TFkNSWVEeVDLfWwwyUqJvEZGFXt/nKl/GpFkyKfdFghjNunRTomzSdI2sMAjWnd
Ah7wBOqgSWCGKdG7aOtkgOuKDO0MBbpYYnBY2G0SIDujPSmr8ElKhvglQSxyTZrI
oRg7ZfIbko85l6GKnZc7OzOHTv9CXo+bj83IGJ5rvocKTAUliZfkhNdhrZRWsaQ7
xEO6yDA+rUxhA73EzAEoRX688QBiyZZAXItDtoKmNzT6wtAVqydkul5T4/sqyD+i
PWjyhhSvKyS46VjVnUkCDh/I/uzc/u9VTZLBrA==
-----END CERTIFICATE-----
