Certificate:
    Data:
        Version: 3 (0x2)
        Serial Number:
            bb:90:c5:50:45:d3:e5:8d:f2:96:35:43:21:65:81:6b
        Signature Algorithm: sha256WithRSAEncryption
        Issuer: CN=team328-net
        Validity
            Not Before: Nov  3 20:45:16 2023 GMT
            Not After : Oct 18 20:45:16 2026 GMT
        Subject: CN=team328-client
        Subject Public Key Info:
            Public Key Algorithm: rsaEncryption
                Public-Key: (2048 bit)
                Modulus:
                    00:9d:69:3e:e5:0f:94:8b:23:3c:23:e3:33:ce:fa:
                    3c:49:ce:98:41:04:34:40:e1:0d:40:e1:f9:3f:b3:
                    72:40:4b:3c:da:52:9d:44:19:79:34:66:f6:e2:49:
                    28:67:6d:18:5d:ec:16:90:ba:07:c9:cd:c5:c1:80:
                    05:5e:1e:af:30:18:66:d9:8a:eb:a5:ae:22:08:28:
                    24:13:e6:80:56:f3:1a:af:5a:0b:24:20:06:99:e8:
                    5f:7a:49:34:2e:fa:f3:a7:9a:5e:4d:78:e3:8f:ba:
                    2a:fe:49:66:0d:0e:56:61:bf:f5:44:3b:f4:aa:96:
                    d0:07:d8:c9:21:0a:ab:e9:4c:5b:42:c7:88:6c:2b:
                    3d:ce:e0:7e:1b:67:93:5f:9f:60:4a:30:a7:b8:82:
                    f3:e6:7b:37:e6:4a:92:0b:8b:f1:f0:ed:48:07:43:
                    79:28:f1:5f:3e:5d:6f:a3:06:83:17:09:b4:15:6c:
                    d2:96:b1:5d:01:e9:8c:5d:c0:2c:71:4e:e4:d6:af:
                    88:4e:73:f6:b9:75:6e:a2:90:05:f5:85:a4:0f:83:
                    27:65:6c:9a:4a:f6:23:ab:61:ef:e2:96:24:bd:d9:
                    6c:5e:d0:f6:15:3a:28:ae:5a:7f:d1:41:c5:c9:3b:
                    ce:28:17:c1:44:60:bc:20:3c:57:69:f9:e9:cd:0d:
                    2c:49
                Exponent: 65537 (0x10001)
        X509v3 extensions:
            X509v3 Basic Constraints: 
                CA:FALSE
            X509v3 Subject Key Identifier: 
                4B:26:FB:B1:CC:0A:4F:EA:B0:95:4A:10:A9:F2:78:CE:45:73:DC:5F
            X509v3 Authority Key Identifier: 
                keyid:E2:66:6B:57:8A:2D:5B:01:D6:72:33:49:E5:8A:20:42:84:0B:80:9C
                DirName:/CN=team328-net
                serial:4E:2C:39:DE:D5:22:A1:4F:BC:99:17:E9:57:0B:CA:FD:09:6D:D0:94
            X509v3 Extended Key Usage: 
                TLS Web Client Authentication
            X509v3 Key Usage: 
                Digital Signature
    Signature Algorithm: sha256WithRSAEncryption
    Signature Value:
        8a:85:ed:30:be:62:2d:ca:cb:ba:f5:d4:dd:56:5a:21:f9:e5:
        65:bc:9d:d4:11:9c:7a:05:d3:2d:af:0a:b7:b1:30:f9:cd:9f:
        cc:4d:8d:bd:83:0f:1d:cc:36:ab:8c:b4:01:6d:d4:1f:0b:fd:
        0b:a1:96:45:5e:7a:ea:4c:07:b7:0f:a9:4b:55:36:53:e2:52:
        76:75:06:37:65:05:82:26:c5:57:fb:69:51:00:72:93:17:81:
        4d:8b:5d:92:60:46:f9:4d:02:b8:55:42:df:cc:6d:1f:09:5f:
        56:84:f7:91:76:b5:a5:a4:b3:0b:54:18:8e:d4:30:33:44:15:
        19:03:da:c3:44:2f:92:fa:d5:c6:e1:58:0b:71:af:c0:c1:e6:
        c3:df:55:22:d8:2e:db:3c:75:80:9f:9b:01:ca:3e:62:42:5c:
        76:26:b2:41:7e:9f:a2:df:11:38:b3:2b:2c:36:cb:fb:a1:dd:
        0a:ce:37:db:8a:59:6a:03:f2:54:c5:19:dc:54:eb:40:43:3e:
        24:65:35:93:6d:db:7a:07:05:15:55:e7:05:f4:b8:4f:a4:2d:
        98:f6:8b:c1:7d:de:0a:2e:3d:78:4e:1c:5d:5f:90:fe:eb:52:
        49:b6:47:7c:b7:c0:0d:b2:23:f8:45:5c:24:4c:2f:63:9f:71:
        4a:c7:0c:d3
-----BEGIN CERTIFICATE-----
MIIDXTCCAkWgAwIBAgIRALuQxVBF0+WN8pY1QyFlgWswDQYJKoZIhvcNAQELBQAw
FjEUMBIGA1UEAwwLdGVhbTMyOC1uZXQwHhcNMjMxMTAzMjA0NTE2WhcNMjYxMDE4
MjA0NTE2WjAZMRcwFQYDVQQDDA50ZWFtMzI4LWNsaWVudDCCASIwDQYJKoZIhvcN
AQEBBQADggEPADCCAQoCggEBAJ1pPuUPlIsjPCPjM876PEnOmEEENEDhDUDh+T+z
ckBLPNpSnUQZeTRm9uJJKGdtGF3sFpC6B8nNxcGABV4erzAYZtmK66WuIggoJBPm
gFbzGq9aCyQgBpnoX3pJNC7686eaXk1444+6Kv5JZg0OVmG/9UQ79KqW0AfYySEK
q+lMW0LHiGwrPc7gfhtnk1+fYEowp7iC8+Z7N+ZKkguL8fDtSAdDeSjxXz5db6MG
gxcJtBVs0paxXQHpjF3ALHFO5NaviE5z9rl1bqKQBfWFpA+DJ2Vsmkr2I6th7+KW
JL3ZbF7Q9hU6KK5af9FBxck7zigXwURgvCA8V2n56c0NLEkCAwEAAaOBojCBnzAJ
BgNVHRMEAjAAMB0GA1UdDgQWBBRLJvuxzApP6rCVShCp8njORXPcXzBRBgNVHSME
SjBIgBTiZmtXii1bAdZyM0nliiBChAuAnKEapBgwFjEUMBIGA1UEAwwLdGVhbTMy
OC1uZXSCFE4sOd7VIqFPvJkX6VcLyv0JbdCUMBMGA1UdJQQMMAoGCCsGAQUFBwMC
MAsGA1UdDwQEAwIHgDANBgkqhkiG9w0BAQsFAAOCAQEAioXtML5iLcrLuvXU3VZa
IfnlZbyd1BGcegXTLa8Kt7Ew+c2fzE2NvYMPHcw2q4y0AW3UHwv9C6GWRV566kwH
tw+pS1U2U+JSdnUGN2UFgibFV/tpUQBykxeBTYtdkmBG+U0CuFVC38xtHwlfVoT3
kXa1paSzC1QYjtQwM0QVGQPaw0QvkvrVxuFYC3GvwMHmw99VItgu2zx1gJ+bAco+
YkJcdiayQX6fot8ROLMrLDbL+6HdCs4324pZagPyVMUZ3FTrQEM+JGU1k23begcF
FVXnBfS4T6QtmPaLwX3eCi49eE4cXV+Q/utSSbZHfLfADbIj+EVcJEwvY59xSscM
0w==
-----END CERTIFICATE-----
