Certificate:
    Data:
        Version: 3 (0x2)
        Serial Number:
            02:29:e4:08:dc:b2:40:d0:c1:7c:e5:f5:12:c6:65:c7
        Signature Algorithm: sha256WithRSAEncryption
        Issuer: CN=team147-net
        Validity
            Not Before: Nov  3 20:41:52 2023 GMT
            Not After : Oct 18 20:41:52 2026 GMT
        Subject: CN=team147-client
        Subject Public Key Info:
            Public Key Algorithm: rsaEncryption
                Public-Key: (2048 bit)
                Modulus:
                    00:bd:31:6a:55:cb:49:49:7d:2e:b4:c2:92:dc:b2:
                    64:54:e7:de:f0:9d:31:33:60:6f:f0:c7:10:8e:9f:
                    26:c6:21:0d:5a:6b:1d:3f:6e:93:e9:cc:98:5c:23:
                    ef:cf:b3:09:45:8d:fd:c8:3e:58:08:34:ec:2e:98:
                    88:3f:b4:1f:5f:cf:ee:91:a4:1e:2e:e4:ca:fd:70:
                    03:16:89:d8:cb:a5:78:20:0f:6a:38:0b:1c:01:76:
                    62:09:ea:2c:2e:ec:53:6f:16:28:b1:30:b1:02:17:
                    8d:e3:2d:d1:64:0e:35:e1:62:5e:98:4b:c0:ae:c8:
                    26:85:68:d5:52:be:57:d7:9b:1d:ee:c7:c3:28:a8:
                    5d:52:37:d0:27:52:16:c4:c6:78:4b:44:18:04:ba:
                    fd:f6:7b:5a:96:bf:fe:69:a6:57:77:de:38:f7:f0:
                    64:9a:31:af:27:50:54:57:d7:cb:ce:e7:5d:83:8d:
                    f0:ee:63:4a:8e:2e:46:60:a1:82:38:db:24:51:89:
                    81:0c:ed:f0:ac:08:ad:8f:e2:aa:c5:28:36:bb:34:
                    23:c9:62:f0:60:b2:5f:b3:d1:93:68:54:5e:a2:37:
                    d6:b9:5e:50:05:08:5b:90:e7:71:40:fd:3e:f6:8d:
                    ec:97:c0:7b:9e:f9:3f:3f:92:c6:72:22:e7:c0:98:
                    76:77
                Exponent: 65537 (0x10001)
        X509v3 extensions:
            X509v3 Basic Constraints: 
                CA:FALSE
            X509v3 Subject Key Identifier: 
                D8:34:5C:93:40:F8:F0:3E:4B:4D:D3:C8:B4:2A:DF:40:37:DB:D0:2A
            X509v3 Authority Key Identifier: 
                keyid:F7:F2:7B:EE:7B:15:92:1C:29:E6:AD:7D:62:40:D8:56:45:55:96:3D
                DirName:/CN=team147-net
                serial:1B:DF:77:86:14:76:80:D5:22:9B:92:EE:FA:75:82:2C:EB:28:BC:FC
            X509v3 Extended Key Usage: 
                TLS Web Client Authentication
            X509v3 Key Usage: 
                Digital Signature
    Signature Algorithm: sha256WithRSAEncryption
    Signature Value:
        41:2c:2c:ed:14:0d:a0:91:af:0c:08:22:5d:c9:2f:20:cb:4d:
        a5:b9:8a:0a:3d:bf:68:8c:40:a2:25:29:6f:d7:8b:7c:0d:39:
        91:bd:4d:f1:c0:95:91:27:76:44:e3:ec:43:dd:bf:c7:23:f1:
        63:65:b4:f7:d1:07:2d:e5:f2:b2:ce:d8:de:18:5f:2a:ac:15:
        44:41:b9:8a:03:9e:cf:b4:8c:5d:b8:89:90:10:0b:44:4b:89:
        e9:37:c4:75:03:af:3b:36:95:5a:41:84:8a:99:b6:37:db:47:
        29:18:e5:9c:ff:3a:78:b9:ef:b5:00:c9:a8:b8:3f:9b:55:72:
        3c:6d:b0:23:e0:4a:ac:90:d2:78:7d:99:d2:06:ed:fa:40:0e:
        86:87:52:c9:b0:56:1b:48:8e:a9:fe:46:a3:f8:77:31:26:cb:
        c0:d7:e3:be:1e:d6:ed:e0:fd:2e:49:a8:4c:d0:be:54:97:47:
        de:53:d1:37:56:7a:fb:72:b7:86:10:a8:fe:c0:80:b0:65:13:
        b3:65:ee:35:db:15:03:1a:48:ba:5a:69:eb:a6:3b:f9:52:34:
        ef:69:50:4a:49:12:02:72:5a:17:79:1a:74:95:0a:a0:50:d3:
        31:27:9b:2b:1c:19:96:d6:04:ee:90:b9:03:f5:f1:7b:ab:cc:
        8c:e8:04:2c
-----BEGIN CERTIFICATE-----
MIIDXDCCAkSgAwIBAgIQAinkCNyyQNDBfOX1EsZlxzANBgkqhkiG9w0BAQsFADAW
MRQwEgYDVQQDDAt0ZWFtMTQ3LW5ldDAeFw0yMzExMDMyMDQxNTJaFw0yNjEwMTgy
MDQxNTJaMBkxFzAVBgNVBAMMDnRlYW0xNDctY2xpZW50MIIBIjANBgkqhkiG9w0B
AQEFAAOCAQ8AMIIBCgKCAQEAvTFqVctJSX0utMKS3LJkVOfe8J0xM2Bv8McQjp8m
xiENWmsdP26T6cyYXCPvz7MJRY39yD5YCDTsLpiIP7QfX8/ukaQeLuTK/XADFonY
y6V4IA9qOAscAXZiCeosLuxTbxYosTCxAheN4y3RZA414WJemEvArsgmhWjVUr5X
15sd7sfDKKhdUjfQJ1IWxMZ4S0QYBLr99ntalr/+aaZXd9449/BkmjGvJ1BUV9fL
zuddg43w7mNKji5GYKGCONskUYmBDO3wrAitj+KqxSg2uzQjyWLwYLJfs9GTaFRe
ojfWuV5QBQhbkOdxQP0+9o3sl8B7nvk/P5LGciLnwJh2dwIDAQABo4GiMIGfMAkG
A1UdEwQCMAAwHQYDVR0OBBYEFNg0XJNA+PA+S03TyLQq30A329AqMFEGA1UdIwRK
MEiAFPfye+57FZIcKeatfWJA2FZFVZY9oRqkGDAWMRQwEgYDVQQDDAt0ZWFtMTQ3
LW5ldIIUG993hhR2gNUim5Lu+nWCLOsovPwwEwYDVR0lBAwwCgYIKwYBBQUHAwIw
CwYDVR0PBAQDAgeAMA0GCSqGSIb3DQEBCwUAA4IBAQBBLCztFA2gka8MCCJdyS8g
y02luYoKPb9ojECiJSlv14t8DTmRvU3xwJWRJ3ZE4+xD3b/HI/FjZbT30Qct5fKy
ztjeGF8qrBVEQbmKA57PtIxduImQEAtES4npN8R1A687NpVaQYSKmbY320cpGOWc
/zp4ue+1AMmouD+bVXI8bbAj4EqskNJ4fZnSBu36QA6Gh1LJsFYbSI6p/kaj+Hcx
JsvA1+O+Htbt4P0uSahM0L5Ul0feU9E3Vnr7creGEKj+wICwZROzZe412xUDGki6
Wmnrpjv5UjTvaVBKSRICcloXeRp0lQqgUNMxJ5srHBmW1gTukLkD9fF7q8yM6AQs
-----END CERTIFICATE-----
