Certificate:
    Data:
        Version: 3 (0x2)
        Serial Number:
            6a:88:51:dc:6b:e8:1a:ea:88:07:f1:3f:01:b4:ed:c5
        Signature Algorithm: sha256WithRSAEncryption
        Issuer: CN=team147-net
        Validity
            Not Before: Nov  3 20:41:52 2023 GMT
            Not After : Oct 18 20:41:52 2026 GMT
        Subject: CN=team147-server
        Subject Public Key Info:
            Public Key Algorithm: rsaEncryption
                Public-Key: (2048 bit)
                Modulus:
                    00:af:9c:60:a5:66:e2:a5:22:65:f4:91:6b:f8:64:
                    ab:c8:1d:68:1e:f2:73:09:e8:37:f0:7c:6c:80:14:
                    95:13:82:cb:a3:89:a6:3b:eb:84:de:a2:70:cc:9f:
                    51:82:58:29:68:f6:f9:23:f3:30:25:2c:ea:cb:5c:
                    1a:0a:7c:dc:56:18:a4:ab:d3:23:0a:7f:2c:83:95:
                    c6:bb:0c:af:e6:83:fc:6e:fd:36:6f:54:ca:fd:41:
                    63:f4:67:04:38:a7:8b:99:e5:85:01:9a:22:51:96:
                    ac:f4:d0:3f:d7:7b:a1:5f:60:c0:c0:84:a7:4f:71:
                    8d:bd:0f:7c:34:16:62:de:cd:2a:5c:af:3f:32:98:
                    e0:8f:98:cc:1f:96:7f:0f:40:f5:0b:c0:fc:83:3c:
                    da:59:d6:59:cd:a2:5a:98:dc:ce:fb:f9:4f:c5:a1:
                    a4:cc:3e:66:09:5b:8d:68:7e:d4:cd:0b:31:1f:6e:
                    78:a3:01:62:15:50:17:38:53:6e:e3:f2:3c:cb:ca:
                    e9:11:5d:c6:d2:d5:7b:68:41:71:b2:d2:94:95:1b:
                    df:2d:77:bf:a5:2b:13:8b:46:4e:71:bd:31:31:64:
                    06:03:12:d3:72:97:0a:ad:21:b1:7c:d3:43:b1:88:
                    e7:58:e8:77:1b:67:27:a3:8c:90:e7:bc:e4:d5:68:
                    fb:51
                Exponent: 65537 (0x10001)
        X509v3 extensions:
            X509v3 Basic Constraints: 
                CA:FALSE
            X509v3 Subject Key Identifier: 
                7F:30:B5:18:95:BA:77:0A:17:9A:FA:DA:4E:01:BD:DB:0E:5D:86:23
            X509v3 Authority Key Identifier: 
                keyid:F7:F2:7B:EE:7B:15:92:1C:29:E6:AD:7D:62:40:D8:56:45:55:96:3D
                DirName:/CN=team147-net
                serial:1B:DF:77:86:14:76:80:D5:22:9B:92:EE:FA:75:82:2C:EB:28:BC:FC
            X509v3 Extended Key Usage: 
                TLS Web Server Authentication
            X509v3 Key Usage: 
                Digital Signature, Key Encipherment
            X509v3 Subject Alternative Name: 
                DNS:team147-server
    Signature Algorithm: sha256WithRSAEncryption
    Signature Value:
        ac:b7:98:02:40:74:08:1a:5d:71:6d:2b:51:30:49:04:d0:44:
        b3:49:d7:a1:da:23:ef:9d:e6:0e:d3:2a:32:d9:8d:60:bf:44:
        7d:0c:11:e5:5c:62:e2:5a:45:12:42:96:d7:64:99:aa:98:65:
        e5:73:40:59:57:07:ec:99:9b:44:b6:5e:a7:5c:56:c3:b9:3d:
        b7:4f:06:f7:e0:9b:5d:4f:d6:37:25:a5:be:d4:4b:d7:16:4e:
        6c:e1:2a:eb:f5:27:a0:b7:dd:68:45:e5:bf:b2:f6:21:63:47:
        14:30:23:71:0f:bb:a4:f7:9a:4b:3c:aa:90:96:ee:01:93:72:
        6e:e0:af:95:77:da:89:75:d4:b0:6f:b5:86:63:c9:e2:26:ee:
        fa:6d:01:c2:c0:2c:40:b0:29:ed:0c:46:e4:80:20:64:79:b3:
        82:11:45:6c:f6:ea:2c:c8:72:7f:74:44:67:a4:e8:3b:ec:54:
        fd:14:7b:86:1c:d1:42:ac:03:f0:38:cb:bb:27:c2:fd:b3:d2:
        33:76:d6:bf:8c:a8:d0:ba:78:2c:61:a4:29:fd:b1:14:55:ca:
        d0:4f:26:d5:fd:93:eb:e7:35:8a:40:73:4e:aa:32:46:84:3d:
        da:3c:19:ef:df:97:f8:8b:33:b0:5c:f2:90:72:d3:8e:0e:2b:
        26:1c:c7:cf
-----BEGIN CERTIFICATE-----
MIIDdzCCAl+gAwIBAgIQaohR3GvoGuqIB/E/AbTtxTANBgkqhkiG9w0BAQsFADAW
MRQwEgYDVQQDDAt0ZWFtMTQ3LW5ldDAeFw0yMzExMDMyMDQxNTJaFw0yNjEwMTgy
MDQxNTJaMBkxFzAVBgNVBAMMDnRlYW0xNDctc2VydmVyMIIBIjANBgkqhkiG9w0B
AQEFAAOCAQ8AMIIBCgKCAQEAr5xgpWbipSJl9JFr+GSryB1oHvJzCeg38HxsgBSV
E4LLo4mmO+uE3qJwzJ9RglgpaPb5I/MwJSzqy1waCnzcVhikq9MjCn8sg5XGuwyv
5oP8bv02b1TK/UFj9GcEOKeLmeWFAZoiUZas9NA/13uhX2DAwISnT3GNvQ98NBZi
3s0qXK8/Mpjgj5jMH5Z/D0D1C8D8gzzaWdZZzaJamNzO+/lPxaGkzD5mCVuNaH7U
zQsxH254owFiFVAXOFNu4/I8y8rpEV3G0tV7aEFxstKUlRvfLXe/pSsTi0ZOcb0x
MWQGAxLTcpcKrSGxfNNDsYjnWOh3G2cno4yQ57zk1Wj7UQIDAQABo4G9MIG6MAkG
A1UdEwQCMAAwHQYDVR0OBBYEFH8wtRiVuncKF5r62k4BvdsOXYYjMFEGA1UdIwRK
MEiAFPfye+57FZIcKeatfWJA2FZFVZY9oRqkGDAWMRQwEgYDVQQDDAt0ZWFtMTQ3
LW5ldIIUG993hhR2gNUim5Lu+nWCLOsovPwwEwYDVR0lBAwwCgYIKwYBBQUHAwEw
CwYDVR0PBAQDAgWgMBkGA1UdEQQSMBCCDnRlYW0xNDctc2VydmVyMA0GCSqGSIb3
DQEBCwUAA4IBAQCst5gCQHQIGl1xbStRMEkE0ESzSdeh2iPvneYO0yoy2Y1gv0R9
DBHlXGLiWkUSQpbXZJmqmGXlc0BZVwfsmZtEtl6nXFbDuT23Twb34JtdT9Y3JaW+
1EvXFk5s4Srr9Segt91oReW/svYhY0cUMCNxD7uk95pLPKqQlu4Bk3Ju4K+Vd9qJ
ddSwb7WGY8niJu76bQHCwCxAsCntDEbkgCBkebOCEUVs9uosyHJ/dERnpOg77FT9
FHuGHNFCrAPwOMu7J8L9s9Izdta/jKjQungsYaQp/bEUVcrQTybV/ZPr5zWKQHNO
qjJGhD3aPBnv35f4izOwXPKQctOODismHMfP
-----END CERTIFICATE-----
