Certificate:
    Data:
        Version: 3 (0x2)
        Serial Number:
            62:67:2c:7a:21:6c:5e:54:a1:ad:ac:58:fc:6a:88:95
        Signature Algorithm: sha256WithRSAEncryption
        Issuer: CN=team102-net
        Validity
            Not Before: Nov  4 11:29:26 2023 GMT
            Not After : Oct 19 11:29:26 2026 GMT
        Subject: CN=team102-server
        Subject Public Key Info:
            Public Key Algorithm: rsaEncryption
                Public-Key: (2048 bit)
                Modulus:
                    00:9b:02:61:c7:9e:11:76:d3:79:af:ce:c9:3c:7c:
                    ea:2b:7e:cb:71:ec:ff:0e:f5:aa:16:ed:2b:1b:e1:
                    1f:ea:83:92:28:2d:aa:c4:89:ec:8d:26:34:79:57:
                    f8:c2:2e:18:4b:38:b3:20:80:c8:df:d2:ed:4d:ef:
                    f4:65:94:89:1a:75:5f:bf:ab:18:8b:6e:f1:e1:5a:
                    d3:9f:bf:c7:a8:b6:63:fe:2d:4d:6b:28:b7:bb:0b:
                    5e:b5:87:3f:99:74:8b:89:74:82:2c:50:6a:94:1f:
                    c5:9a:db:d1:ea:7e:4f:d6:65:55:50:5a:63:0d:45:
                    a0:eb:c7:22:c0:42:2a:3e:4b:f8:c3:f5:be:c2:f8:
                    72:86:24:cd:64:30:5f:78:c8:73:53:53:5f:00:e9:
                    46:d6:54:54:d4:05:91:d4:1c:ed:ec:6c:37:30:ef:
                    9e:40:af:a9:38:e0:ec:63:9a:f8:79:da:82:30:d0:
                    d3:56:67:5e:73:0a:e8:13:cc:02:26:34:62:4b:67:
                    33:38:3f:dc:2c:44:0a:45:29:68:4d:60:41:fa:4d:
                    13:aa:67:cd:b1:88:5e:39:a0:d5:f5:5a:2e:d7:eb:
                    a8:aa:6c:af:a0:c7:4d:3c:13:28:b9:ab:49:ea:95:
                    65:dd:31:31:8d:88:4d:44:df:11:5c:f3:ce:d2:bc:
                    b3:07
                Exponent: 65537 (0x10001)
        X509v3 extensions:
            X509v3 Basic Constraints: 
                CA:FALSE
            X509v3 Subject Key Identifier: 
                90:32:35:B2:DB:88:7C:55:24:36:5C:81:D1:4D:E6:2C:69:F8:BD:B8
            X509v3 Authority Key Identifier: 
                keyid:1A:F6:26:6A:7E:F9:D8:17:B3:38:F6:69:D0:E9:11:77:CC:2D:F6:26
                DirName:/CN=team102-net
                serial:4C:A5:55:6F:84:88:2A:D6:9F:EC:FA:55:C0:95:0F:EB:DA:7A:9E:51
            X509v3 Extended Key Usage: 
                TLS Web Server Authentication
            X509v3 Key Usage: 
                Digital Signature, Key Encipherment
            X509v3 Subject Alternative Name: 
                DNS:team102-server
    Signature Algorithm: sha256WithRSAEncryption
    Signature Value:
        45:72:de:a7:0a:3b:43:ee:04:d6:77:9b:76:a9:a8:0b:8d:27:
        af:6c:85:8b:41:f5:0f:59:f4:21:82:18:d9:82:2f:3d:6c:e2:
        8f:e4:a6:12:ce:9b:c6:8c:aa:ef:56:9c:33:ea:f9:95:37:42:
        63:39:c9:fa:02:cd:34:17:4c:20:09:9c:f7:d5:c5:66:8b:88:
        70:79:e6:06:33:23:86:17:07:62:ab:69:c5:0b:20:90:0c:ca:
        51:7a:b4:a3:d1:77:ac:f9:13:d5:32:23:26:f4:cc:e1:48:78:
        d3:70:6d:e6:87:93:d9:e0:7d:3d:93:c7:fc:4a:62:3c:e1:42:
        89:91:11:5f:d2:ed:ad:1f:76:84:95:69:86:5a:d3:97:bd:16:
        f5:ad:5a:f3:ca:b8:3b:c6:53:1a:59:07:00:b8:07:bf:ba:0c:
        a3:5c:92:c6:91:42:d2:7b:39:d3:d7:53:b8:3e:35:9b:6d:44:
        b2:60:2a:c4:0e:1b:9f:5c:05:15:d0:c4:93:0f:4b:f5:e7:e7:
        3c:8d:fa:a3:de:95:e5:8c:27:1f:fd:fe:81:9d:4f:ae:ed:4b:
        4c:86:8f:78:44:85:d2:df:0f:be:84:f5:0d:fd:b9:54:70:d6:
        e3:94:ef:4b:58:1f:bd:8d:96:50:ff:35:73:ba:13:af:97:e3:
        0b:d5:7e:a7
-----BEGIN CERTIFICATE-----
MIIDdzCCAl+gAwIBAgIQYmcseiFsXlShraxY/GqIlTANBgkqhkiG9w0BAQsFADAW
MRQwEgYDVQQDDAt0ZWFtMTAyLW5ldDAeFw0yMzExMDQxMTI5MjZaFw0yNjEwMTkx
MTI5MjZaMBkxFzAVBgNVBAMMDnRlYW0xMDItc2VydmVyMIIBIjANBgkqhkiG9w0B
AQEFAAOCAQ8AMIIBCgKCAQEAmwJhx54RdtN5r87JPHzqK37Lcez/DvWqFu0rG+Ef
6oOSKC2qxInsjSY0eVf4wi4YSzizIIDI39LtTe/0ZZSJGnVfv6sYi27x4VrTn7/H
qLZj/i1Nayi3uwtetYc/mXSLiXSCLFBqlB/FmtvR6n5P1mVVUFpjDUWg68ciwEIq
Pkv4w/W+wvhyhiTNZDBfeMhzU1NfAOlG1lRU1AWR1Bzt7Gw3MO+eQK+pOODsY5r4
edqCMNDTVmdecwroE8wCJjRiS2czOD/cLEQKRSloTWBB+k0TqmfNsYheOaDV9Vou
1+uoqmyvoMdNPBMouatJ6pVl3TExjYhNRN8RXPPO0ryzBwIDAQABo4G9MIG6MAkG
A1UdEwQCMAAwHQYDVR0OBBYEFJAyNbLbiHxVJDZcgdFN5ixp+L24MFEGA1UdIwRK
MEiAFBr2Jmp++dgXszj2adDpEXfMLfYmoRqkGDAWMRQwEgYDVQQDDAt0ZWFtMTAy
LW5ldIIUTKVVb4SIKtaf7PpVwJUP69p6nlEwEwYDVR0lBAwwCgYIKwYBBQUHAwEw
CwYDVR0PBAQDAgWgMBkGA1UdEQQSMBCCDnRlYW0xMDItc2VydmVyMA0GCSqGSIb3
DQEBCwUAA4IBAQBFct6nCjtD7gTWd5t2qagLjSevbIWLQfUPWfQhghjZgi89bOKP
5KYSzpvGjKrvVpwz6vmVN0JjOcn6As00F0wgCZz31cVmi4hweeYGMyOGFwdiq2nF
CyCQDMpRerSj0Xes+RPVMiMm9MzhSHjTcG3mh5PZ4H09k8f8SmI84UKJkRFf0u2t
H3aElWmGWtOXvRb1rVrzyrg7xlMaWQcAuAe/ugyjXJLGkULSeznT11O4PjWbbUSy
YCrEDhufXAUV0MSTD0v15+c8jfqj3pXljCcf/f6BnU+u7UtMho94RIXS3w++hPUN
/blUcNbjlO9LWB+9jZZQ/zVzuhOvl+ML1X6n
-----END CERTIFICATE-----
