Certificate:
    Data:
        Version: 3 (0x2)
        Serial Number:
            78:25:e2:9b:b5:a4:f5:20:bb:5c:6e:57:4a:c0:ef:b2
        Signature Algorithm: sha256WithRSAEncryption
        Issuer: CN=team102-net
        Validity
            Not Before: Nov  3 20:40:56 2023 GMT
            Not After : Oct 18 20:40:56 2026 GMT
        Subject: CN=team102-client
        Subject Public Key Info:
            Public Key Algorithm: rsaEncryption
                Public-Key: (2048 bit)
                Modulus:
                    00:b9:dd:ef:10:57:96:98:14:69:19:fb:1d:e0:e0:
                    c8:d2:84:d0:92:a1:02:7a:6b:b7:fb:c1:82:b8:22:
                    73:09:51:12:d1:39:51:33:05:39:6e:85:93:84:7e:
                    c0:95:44:86:2b:e7:8b:73:33:06:e9:88:07:ca:37:
                    e1:24:71:62:03:c5:52:bb:37:3e:a6:54:d0:ba:1d:
                    e3:ce:c2:eb:a9:5c:31:98:1c:b0:2f:b7:6c:ab:01:
                    cd:63:01:60:4f:11:3e:e5:c0:84:7f:d9:3f:9d:0e:
                    a5:a0:26:de:26:e2:ac:d1:a7:1b:d8:4e:bb:bc:04:
                    5a:30:e3:4e:04:d6:7e:e5:1e:64:27:f1:72:a3:73:
                    c4:f7:3f:ba:aa:10:34:0c:81:48:91:d6:26:2d:cb:
                    d3:4c:8e:27:13:89:26:14:95:e8:42:69:a4:cd:a4:
                    2e:bc:bf:6b:e8:8a:24:72:4a:8e:05:2b:33:71:76:
                    75:69:fa:af:c3:8d:92:61:35:90:18:06:22:12:0b:
                    7b:68:f5:48:ff:cb:5a:e3:0a:e8:35:c7:8b:b8:15:
                    93:11:27:7d:76:ed:28:e4:2e:13:45:98:67:05:d5:
                    2e:c0:fd:6b:ee:12:d4:fd:10:28:95:33:b5:c3:e1:
                    46:a7:79:e8:e3:1d:7f:a4:6b:44:6a:8e:f4:df:9a:
                    bb:9f
                Exponent: 65537 (0x10001)
        X509v3 extensions:
            X509v3 Basic Constraints: 
                CA:FALSE
            X509v3 Subject Key Identifier: 
                1C:2A:BE:86:21:EE:97:FC:35:06:AA:A2:45:AB:17:1C:1E:28:85:45
            X509v3 Authority Key Identifier: 
                keyid:3D:A0:9C:BA:7C:2A:C1:0B:14:35:67:26:28:B7:6D:C2:90:C6:91:84
                DirName:/CN=team102-net
                serial:6E:ED:ED:CC:F7:E7:ED:C7:08:8D:6C:92:60:F8:F2:B0:CB:D8:8E:C1
            X509v3 Extended Key Usage: 
                TLS Web Client Authentication
            X509v3 Key Usage: 
                Digital Signature
    Signature Algorithm: sha256WithRSAEncryption
    Signature Value:
        2a:16:cf:4f:49:20:b7:cf:40:1a:26:ac:27:3c:10:13:19:87:
        70:6f:8c:15:c3:67:6c:b5:7d:46:ad:d0:a5:a3:f3:22:96:8a:
        77:3d:94:88:aa:a3:c3:b6:74:a7:01:0e:ba:82:98:7c:f6:fd:
        5d:89:4b:21:b3:f3:bb:75:a2:81:66:f9:b7:f7:93:42:5a:72:
        3a:40:f6:ed:f9:c8:22:ac:2c:e4:04:b9:5b:44:00:c0:c7:47:
        c5:c0:5d:b3:a8:2c:d7:86:39:08:62:cf:34:30:d1:c4:0f:12:
        1b:f7:62:5e:8d:e0:5f:a7:0c:53:61:6e:50:50:37:c9:56:3c:
        04:38:84:9c:73:4d:db:13:da:bb:53:30:dd:9b:6c:6a:cf:7b:
        dc:ff:8e:7d:22:f2:cd:fe:9c:c6:8c:64:91:5f:7e:ea:1b:0f:
        87:d7:1c:bc:ec:49:8f:a7:6a:5c:1b:51:51:0d:db:c4:08:1a:
        5e:c8:a9:d1:a6:a8:a6:07:9a:e3:37:1c:dd:cc:52:dc:35:c8:
        c3:a6:2b:78:ec:10:97:59:f8:91:ef:aa:0c:50:fa:7f:eb:89:
        65:e7:5e:c7:b2:e9:a8:8d:a6:27:6b:99:fb:2e:ab:9a:4f:ea:
        8a:1e:0d:07:4d:45:d9:73:24:9a:b0:39:2e:d7:d5:fa:dd:84:
        87:0d:e2:49
-----BEGIN CERTIFICATE-----
MIIDXDCCAkSgAwIBAgIQeCXim7Wk9SC7XG5XSsDvsjANBgkqhkiG9w0BAQsFADAW
MRQwEgYDVQQDDAt0ZWFtMTAyLW5ldDAeFw0yMzExMDMyMDQwNTZaFw0yNjEwMTgy
MDQwNTZaMBkxFzAVBgNVBAMMDnRlYW0xMDItY2xpZW50MIIBIjANBgkqhkiG9w0B
AQEFAAOCAQ8AMIIBCgKCAQEAud3vEFeWmBRpGfsd4ODI0oTQkqECemu3+8GCuCJz
CVES0TlRMwU5boWThH7AlUSGK+eLczMG6YgHyjfhJHFiA8VSuzc+plTQuh3jzsLr
qVwxmBywL7dsqwHNYwFgTxE+5cCEf9k/nQ6loCbeJuKs0acb2E67vARaMONOBNZ+
5R5kJ/Fyo3PE9z+6qhA0DIFIkdYmLcvTTI4nE4kmFJXoQmmkzaQuvL9r6IokckqO
BSszcXZ1afqvw42SYTWQGAYiEgt7aPVI/8ta4wroNceLuBWTESd9du0o5C4TRZhn
BdUuwP1r7hLU/RAolTO1w+FGp3no4x1/pGtEao7035q7nwIDAQABo4GiMIGfMAkG
A1UdEwQCMAAwHQYDVR0OBBYEFBwqvoYh7pf8NQaqokWrFxweKIVFMFEGA1UdIwRK
MEiAFD2gnLp8KsELFDVnJii3bcKQxpGEoRqkGDAWMRQwEgYDVQQDDAt0ZWFtMTAy
LW5ldIIUbu3tzPfn7ccIjWySYPjysMvYjsEwEwYDVR0lBAwwCgYIKwYBBQUHAwIw
CwYDVR0PBAQDAgeAMA0GCSqGSIb3DQEBCwUAA4IBAQAqFs9PSSC3z0AaJqwnPBAT
GYdwb4wVw2dstX1GrdClo/Milop3PZSIqqPDtnSnAQ66gph89v1diUshs/O7daKB
Zvm395NCWnI6QPbt+cgirCzkBLlbRADAx0fFwF2zqCzXhjkIYs80MNHEDxIb92Je
jeBfpwxTYW5QUDfJVjwEOIScc03bE9q7UzDdm2xqz3vc/459IvLN/pzGjGSRX37q
Gw+H1xy87EmPp2pcG1FRDdvECBpeyKnRpqimB5rjNxzdzFLcNcjDpit47BCXWfiR
76oMUPp/64ll517HsumojaYna5n7LquaT+qKHg0HTUXZcySasDku19X63YSHDeJJ
-----END CERTIFICATE-----
