Certificate:
    Data:
        Version: 3 (0x2)
        Serial Number:
            94:78:44:6f:1b:32:f0:0e:63:83:5f:e7:11:b2:f0:f1
        Signature Algorithm: sha256WithRSAEncryption
        Issuer: CN=team102-net
        Validity
            Not Before: Nov  3 20:40:57 2023 GMT
            Not After : Oct 18 20:40:57 2026 GMT
        Subject: CN=team102-server
        Subject Public Key Info:
            Public Key Algorithm: rsaEncryption
                Public-Key: (2048 bit)
                Modulus:
                    00:f7:f1:b3:90:4e:da:1b:14:00:5f:84:d7:b0:d9:
                    a6:e0:b1:b5:de:00:71:80:e3:11:7e:98:9e:af:15:
                    7a:6f:6e:a0:04:52:5a:f0:c9:93:00:ec:9f:01:a7:
                    0e:33:54:53:49:27:5b:30:29:71:af:84:50:c0:11:
                    d5:b4:50:23:0c:3a:29:83:e9:2f:a5:a5:cd:5e:02:
                    a6:10:ee:51:5c:75:cb:21:a8:75:4e:2f:e4:cb:1b:
                    72:b0:ea:e5:cf:78:b8:93:80:0d:ed:09:03:c2:cb:
                    50:55:77:58:ed:c8:5e:65:38:a1:86:e1:4e:95:3c:
                    4a:eb:97:d5:31:fe:cb:35:b4:ff:e6:94:50:1f:ba:
                    a0:38:be:cf:66:0c:2b:53:77:b1:c8:36:58:72:9e:
                    d2:5c:82:d9:ce:38:d1:43:97:12:28:2c:4f:b6:8c:
                    25:bf:90:62:2a:9a:17:03:19:3c:46:4d:70:03:9e:
                    ce:40:a6:18:56:de:ea:00:6d:4c:2b:7c:20:30:c1:
                    ee:41:22:f7:b7:03:10:73:35:57:22:78:62:57:9b:
                    86:5a:87:f5:b1:b5:24:0a:30:f4:4f:2a:9b:ca:08:
                    d8:26:94:c4:83:28:dc:b7:18:6b:52:37:cd:a3:dc:
                    94:99:89:87:df:14:e5:33:2a:98:ee:c8:43:f8:58:
                    18:77
                Exponent: 65537 (0x10001)
        X509v3 extensions:
            X509v3 Basic Constraints: 
                CA:FALSE
            X509v3 Subject Key Identifier: 
                9E:3C:A3:FF:2A:76:FD:03:72:5E:A5:30:7B:1F:0B:E6:ED:D2:28:6A
            X509v3 Authority Key Identifier: 
                keyid:3D:A0:9C:BA:7C:2A:C1:0B:14:35:67:26:28:B7:6D:C2:90:C6:91:84
                DirName:/CN=team102-net
                serial:6E:ED:ED:CC:F7:E7:ED:C7:08:8D:6C:92:60:F8:F2:B0:CB:D8:8E:C1
            X509v3 Extended Key Usage: 
                TLS Web Server Authentication
            X509v3 Key Usage: 
                Digital Signature, Key Encipherment
            X509v3 Subject Alternative Name: 
                DNS:team102-server
    Signature Algorithm: sha256WithRSAEncryption
    Signature Value:
        2a:80:0d:ab:87:08:1d:75:09:e7:43:8a:97:6f:e1:86:6c:6d:
        09:37:83:c7:f7:80:2c:a5:15:35:20:5b:34:16:2a:78:11:91:
        6c:9a:dc:49:fd:e4:df:54:47:d3:95:d3:f9:ec:0c:8b:a1:f5:
        30:ae:dd:c7:10:1f:96:db:d7:00:b7:74:4a:45:c7:27:06:11:
        f1:9f:bb:7b:ec:97:cf:8c:6b:d2:f6:95:63:b3:b5:5c:94:41:
        22:47:c5:a6:03:1a:07:b8:e9:00:12:3c:d4:07:3c:f7:69:f3:
        15:9e:09:fb:5a:2a:d3:07:ff:f0:3b:3f:ae:0c:33:9e:4b:b8:
        02:c3:3c:2e:63:41:e2:d9:92:6c:76:c4:02:17:43:78:19:36:
        13:b8:e3:8c:88:c0:6f:4d:5e:f4:4e:ea:fd:4a:be:5f:1d:7c:
        06:13:cc:f1:9a:ef:a3:fb:21:6d:df:54:ad:04:4e:19:be:a7:
        76:5e:07:25:bd:26:2c:9d:cb:66:23:57:1e:5c:d1:97:ba:49:
        be:77:eb:72:bb:73:62:bf:0c:ea:6a:a8:d1:9d:f8:30:9c:5c:
        5b:c7:13:c5:37:42:f7:5c:99:79:f2:f4:f6:e9:8d:dd:0e:17:
        63:d0:0f:32:d8:50:48:3f:e2:9a:3d:0c:ef:a3:1d:7c:3e:da:
        b5:fd:e8:62
-----BEGIN CERTIFICATE-----
MIIDeDCCAmCgAwIBAgIRAJR4RG8bMvAOY4Nf5xGy8PEwDQYJKoZIhvcNAQELBQAw
FjEUMBIGA1UEAwwLdGVhbTEwMi1uZXQwHhcNMjMxMTAzMjA0MDU3WhcNMjYxMDE4
MjA0MDU3WjAZMRcwFQYDVQQDDA50ZWFtMTAyLXNlcnZlcjCCASIwDQYJKoZIhvcN
AQEBBQADggEPADCCAQoCggEBAPfxs5BO2hsUAF+E17DZpuCxtd4AcYDjEX6Ynq8V
em9uoARSWvDJkwDsnwGnDjNUU0knWzApca+EUMAR1bRQIww6KYPpL6WlzV4CphDu
UVx1yyGodU4v5MsbcrDq5c94uJOADe0JA8LLUFV3WO3IXmU4oYbhTpU8SuuX1TH+
yzW0/+aUUB+6oDi+z2YMK1N3scg2WHKe0lyC2c440UOXEigsT7aMJb+QYiqaFwMZ
PEZNcAOezkCmGFbe6gBtTCt8IDDB7kEi97cDEHM1VyJ4YlebhlqH9bG1JAow9E8q
m8oI2CaUxIMo3LcYa1I3zaPclJmJh98U5TMqmO7IQ/hYGHcCAwEAAaOBvTCBujAJ
BgNVHRMEAjAAMB0GA1UdDgQWBBSePKP/Knb9A3JepTB7Hwvm7dIoajBRBgNVHSME
SjBIgBQ9oJy6fCrBCxQ1ZyYot23CkMaRhKEapBgwFjEUMBIGA1UEAwwLdGVhbTEw
Mi1uZXSCFG7t7cz35+3HCI1skmD48rDL2I7BMBMGA1UdJQQMMAoGCCsGAQUFBwMB
MAsGA1UdDwQEAwIFoDAZBgNVHREEEjAQgg50ZWFtMTAyLXNlcnZlcjANBgkqhkiG
9w0BAQsFAAOCAQEAKoANq4cIHXUJ50OKl2/hhmxtCTeDx/eALKUVNSBbNBYqeBGR
bJrcSf3k31RH05XT+ewMi6H1MK7dxxAfltvXALd0SkXHJwYR8Z+7e+yXz4xr0vaV
Y7O1XJRBIkfFpgMaB7jpABI81Ac892nzFZ4J+1oq0wf/8Ds/rgwznku4AsM8LmNB
4tmSbHbEAhdDeBk2E7jjjIjAb01e9E7q/Uq+Xx18BhPM8Zrvo/shbd9UrQROGb6n
dl4HJb0mLJ3LZiNXHlzRl7pJvnfrcrtzYr8M6mqo0Z34MJxcW8cTxTdC91yZefL0
9umN3Q4XY9APMthQSD/imj0M76MdfD7atf3oYg==
-----END CERTIFICATE-----
