Certificate:
    Data:
        Version: 3 (0x2)
        Serial Number:
            97:20:1a:d3:37:c1:bc:6a:31:33:8e:95:c9:1c:41:dc
        Signature Algorithm: sha256WithRSAEncryption
        Issuer: CN=team102-net
        Validity
            Not Before: Nov  4 11:29:25 2023 GMT
            Not After : Oct 19 11:29:25 2026 GMT
        Subject: CN=team102-client
        Subject Public Key Info:
            Public Key Algorithm: rsaEncryption
                Public-Key: (2048 bit)
                Modulus:
                    00:ec:2a:6c:40:00:f0:e4:6f:14:9b:97:10:fd:06:
                    bb:c6:28:94:2f:ad:6d:b0:d1:00:64:6e:0e:b7:fa:
                    3b:25:cf:a5:50:ff:79:8e:1a:01:00:8d:c9:f6:4b:
                    ed:a6:f0:ee:5c:31:b4:e8:60:3c:dc:d4:28:8a:04:
                    70:42:82:04:a6:af:e3:af:00:dd:7a:28:4c:ed:dd:
                    34:40:cb:e3:3a:64:7d:d7:79:12:84:20:d0:01:4f:
                    bc:28:dc:3d:7f:f4:d0:64:26:2e:56:6e:66:ec:10:
                    88:38:81:16:60:7c:67:a4:81:90:93:69:ea:96:97:
                    c3:46:97:af:c9:3c:2d:9a:03:56:c4:6c:f2:ea:42:
                    0e:68:58:98:4b:61:a1:cc:23:c4:c3:1f:cc:fc:a6:
                    6a:19:04:07:33:ef:00:17:dc:29:fb:9e:70:af:d4:
                    c9:f7:41:8a:11:62:68:21:e9:59:14:75:20:3e:9b:
                    4b:bc:b7:9a:e0:e8:eb:b7:79:8d:1d:1d:7b:c1:c8:
                    69:ab:0d:b3:ce:63:56:86:f8:1e:97:e1:51:52:85:
                    f1:7b:98:39:d8:93:e7:a0:e7:0f:68:2d:ca:96:85:
                    b9:65:5b:cc:0c:67:58:fe:2c:0d:45:2f:19:5c:37:
                    d2:26:bc:8d:5a:59:25:38:69:47:e2:df:e0:d1:23:
                    04:27
                Exponent: 65537 (0x10001)
        X509v3 extensions:
            X509v3 Basic Constraints: 
                CA:FALSE
            X509v3 Subject Key Identifier: 
                A7:B2:F0:9B:9B:CE:1E:7D:06:A2:FB:EE:99:37:F3:2B:A9:62:55:77
            X509v3 Authority Key Identifier: 
                keyid:1A:F6:26:6A:7E:F9:D8:17:B3:38:F6:69:D0:E9:11:77:CC:2D:F6:26
                DirName:/CN=team102-net
                serial:4C:A5:55:6F:84:88:2A:D6:9F:EC:FA:55:C0:95:0F:EB:DA:7A:9E:51
            X509v3 Extended Key Usage: 
                TLS Web Client Authentication
            X509v3 Key Usage: 
                Digital Signature
    Signature Algorithm: sha256WithRSAEncryption
    Signature Value:
        9b:87:21:97:9b:e8:94:14:8a:3f:b5:e5:e3:dc:87:ab:0b:22:
        84:4d:68:13:94:21:ac:57:30:ba:f9:20:4f:87:83:0e:93:ca:
        71:6f:43:b9:e6:cc:88:b6:19:e3:49:ff:65:15:22:32:f6:62:
        eb:35:28:49:5d:08:74:4b:73:86:d0:6d:d9:81:e0:b8:6d:1c:
        2c:91:0a:b3:ce:9d:ff:7e:c8:92:c9:06:a8:2d:e8:37:87:1f:
        b1:b9:94:6c:86:f1:22:94:03:f5:f3:0e:62:e8:17:60:7f:53:
        97:1b:f9:6b:b1:30:44:61:d5:bd:13:48:3b:70:f0:8d:82:0b:
        c3:7f:b4:79:2d:4c:73:28:8d:39:37:3b:16:ee:c1:fb:47:47:
        59:4e:b1:84:47:11:b9:91:21:81:30:cb:de:ce:a0:70:b7:56:
        83:9e:6a:02:c4:da:b5:8d:76:37:f1:0b:c6:22:09:35:ba:1f:
        ce:37:93:d4:1f:63:57:80:85:66:de:4d:40:b7:75:dc:ca:05:
        e5:f1:7d:f7:56:43:0f:5e:af:1f:ad:dc:38:98:ab:97:f7:ef:
        6b:f4:6f:c2:bc:f8:79:78:28:17:0a:19:38:f5:95:a2:f9:9c:
        fa:37:79:e1:e2:9d:62:a6:57:00:e1:92:1f:26:8f:f1:95:2f:
        d2:31:ce:bb
-----BEGIN CERTIFICATE-----
MIIDXTCCAkWgAwIBAgIRAJcgGtM3wbxqMTOOlckcQdwwDQYJKoZIhvcNAQELBQAw
FjEUMBIGA1UEAwwLdGVhbTEwMi1uZXQwHhcNMjMxMTA0MTEyOTI1WhcNMjYxMDE5
MTEyOTI1WjAZMRcwFQYDVQQDDA50ZWFtMTAyLWNsaWVudDCCASIwDQYJKoZIhvcN
AQEBBQADggEPADCCAQoCggEBAOwqbEAA8ORvFJuXEP0Gu8YolC+tbbDRAGRuDrf6
OyXPpVD/eY4aAQCNyfZL7abw7lwxtOhgPNzUKIoEcEKCBKav468A3XooTO3dNEDL
4zpkfdd5EoQg0AFPvCjcPX/00GQmLlZuZuwQiDiBFmB8Z6SBkJNp6paXw0aXr8k8
LZoDVsRs8upCDmhYmEthocwjxMMfzPymahkEBzPvABfcKfuecK/UyfdBihFiaCHp
WRR1ID6bS7y3muDo67d5jR0de8HIaasNs85jVob4HpfhUVKF8XuYOdiT56DnD2gt
ypaFuWVbzAxnWP4sDUUvGVw30ia8jVpZJThpR+Lf4NEjBCcCAwEAAaOBojCBnzAJ
BgNVHRMEAjAAMB0GA1UdDgQWBBSnsvCbm84efQai++6ZN/MrqWJVdzBRBgNVHSME
SjBIgBQa9iZqfvnYF7M49mnQ6RF3zC32JqEapBgwFjEUMBIGA1UEAwwLdGVhbTEw
Mi1uZXSCFEylVW+EiCrWn+z6VcCVD+vaep5RMBMGA1UdJQQMMAoGCCsGAQUFBwMC
MAsGA1UdDwQEAwIHgDANBgkqhkiG9w0BAQsFAAOCAQEAm4chl5volBSKP7Xl49yH
qwsihE1oE5QhrFcwuvkgT4eDDpPKcW9DuebMiLYZ40n/ZRUiMvZi6zUoSV0IdEtz
htBt2YHguG0cLJEKs86d/37IkskGqC3oN4cfsbmUbIbxIpQD9fMOYugXYH9Tlxv5
a7EwRGHVvRNIO3DwjYILw3+0eS1McyiNOTc7Fu7B+0dHWU6xhEcRuZEhgTDL3s6g
cLdWg55qAsTatY12N/ELxiIJNbofzjeT1B9jV4CFZt5NQLd13MoF5fF991ZDD16v
H63cOJirl/fva/Rvwrz4eXgoFwoZOPWVovmc+jd54eKdYqZXAOGSHyaP8ZUv0jHO
uw==
-----END CERTIFICATE-----
