Certificate:
    Data:
        Version: 3 (0x2)
        Serial Number:
            06:2e:b3:ab:ec:88:fc:36:88:e0:49:50:83:cb:2a:1e
        Signature Algorithm: sha256WithRSAEncryption
        Issuer: CN=team65-net
        Validity
            Not Before: Nov  4 11:28:35 2023 GMT
            Not After : Oct 19 11:28:35 2026 GMT
        Subject: CN=team65-client
        Subject Public Key Info:
            Public Key Algorithm: rsaEncryption
                Public-Key: (2048 bit)
                Modulus:
                    00:98:fb:cf:80:9d:02:ab:f8:a8:f3:c4:46:91:0d:
                    3a:13:47:59:d6:ba:3a:8c:2c:a7:ec:b6:b6:f4:8c:
                    fb:4d:9e:77:50:8c:d2:fe:06:9e:c0:0d:6f:0a:0a:
                    38:5b:41:a3:ac:5c:1e:c7:b4:f9:27:50:07:85:62:
                    dd:c2:f5:84:ce:66:c7:31:56:1c:2f:2d:ad:92:e7:
                    7d:89:05:5a:3b:e0:dd:95:99:9e:0b:06:2c:19:93:
                    74:2d:60:2b:28:ba:92:fa:9d:fa:15:fb:f3:2b:23:
                    94:12:ef:36:45:33:5e:e8:37:27:48:8c:3c:fb:2b:
                    d6:56:e5:6a:f3:5a:31:66:ae:17:d8:e9:a4:89:dd:
                    3a:02:fd:08:7d:fd:b6:7b:7a:77:2b:41:2b:65:0e:
                    8c:7a:f5:bd:02:be:77:35:b6:37:2d:20:c9:e3:ea:
                    71:a1:cc:c1:3e:b5:be:a2:89:72:c9:a0:2b:c1:c5:
                    b9:e6:ac:a5:9f:6d:ee:5d:bf:12:74:f5:3d:bf:ea:
                    1b:d0:b0:b8:ca:1f:f1:be:4c:bb:2e:ed:39:a0:43:
                    42:ec:3a:e4:ab:23:79:8c:1e:d2:28:c3:95:55:d4:
                    80:66:fe:08:05:35:9e:82:16:bd:b7:6a:76:e0:d6:
                    7e:5b:b0:51:c9:33:36:bc:fc:92:e8:c5:7d:b6:9d:
                    1d:99
                Exponent: 65537 (0x10001)
        X509v3 extensions:
            X509v3 Basic Constraints: 
                CA:FALSE
            X509v3 Subject Key Identifier: 
                8C:3A:FB:D5:8A:04:89:90:88:4A:91:01:16:5F:DF:AE:87:50:23:E9
            X509v3 Authority Key Identifier: 
                keyid:07:4B:C9:18:0E:38:B3:AE:28:01:70:A0:00:F8:D5:4A:09:9C:17:EA
                DirName:/CN=team65-net
                serial:4A:5D:28:30:2F:46:1A:A1:6A:7D:39:07:0D:F4:A4:83:4D:67:04:91
            X509v3 Extended Key Usage: 
                TLS Web Client Authentication
            X509v3 Key Usage: 
                Digital Signature
    Signature Algorithm: sha256WithRSAEncryption
    Signature Value:
        25:df:af:88:5b:d0:55:4f:79:a4:52:a1:7e:ff:55:6b:3e:75:
        da:09:e7:51:c1:b0:e9:aa:88:75:43:f2:65:7b:a8:aa:7e:cc:
        2b:07:5e:98:94:96:5f:88:e2:07:e3:7c:95:29:54:23:16:15:
        ad:bc:99:23:cf:96:95:c1:a6:df:09:89:71:8d:b0:5a:63:8f:
        be:3d:f5:84:88:05:2c:07:41:97:c6:ba:62:3c:3f:90:fb:5d:
        a6:0c:a6:3f:c8:61:36:ef:e9:fd:33:9f:de:92:81:3b:19:87:
        56:37:fa:b1:51:9f:37:1b:ad:7e:ec:a0:a7:1f:c7:13:b6:90:
        37:25:1a:79:0c:ca:b6:92:a7:2b:1b:de:b4:a5:c4:f6:68:b6:
        fa:0b:05:9b:e5:22:f0:c9:29:b5:8a:2d:70:37:0b:93:28:5f:
        45:0d:15:5d:45:e0:bc:35:65:9a:a1:20:d1:7f:39:68:22:52:
        43:21:9b:ea:7b:fa:de:71:5b:da:de:8c:da:fa:b3:a8:57:e4:
        3d:de:d1:b6:30:9e:1a:1d:89:52:b0:50:a5:a0:f1:02:bc:56:
        b2:04:4e:94:fc:f1:15:bd:47:43:95:73:d1:69:d1:eb:de:ee:
        32:78:0f:66:42:1b:d7:79:30:73:94:4b:af:28:b7:3a:a1:07:
        62:b2:a2:ce
-----BEGIN CERTIFICATE-----
MIIDWTCCAkGgAwIBAgIQBi6zq+yI/DaI4ElQg8sqHjANBgkqhkiG9w0BAQsFADAV
MRMwEQYDVQQDDAp0ZWFtNjUtbmV0MB4XDTIzMTEwNDExMjgzNVoXDTI2MTAxOTEx
MjgzNVowGDEWMBQGA1UEAwwNdGVhbTY1LWNsaWVudDCCASIwDQYJKoZIhvcNAQEB
BQADggEPADCCAQoCggEBAJj7z4CdAqv4qPPERpENOhNHWda6Oowsp+y2tvSM+02e
d1CM0v4GnsANbwoKOFtBo6xcHse0+SdQB4Vi3cL1hM5mxzFWHC8trZLnfYkFWjvg
3ZWZngsGLBmTdC1gKyi6kvqd+hX78ysjlBLvNkUzXug3J0iMPPsr1lblavNaMWau
F9jppIndOgL9CH39tnt6dytBK2UOjHr1vQK+dzW2Ny0gyePqcaHMwT61vqKJcsmg
K8HFueaspZ9t7l2/EnT1Pb/qG9CwuMof8b5Muy7tOaBDQuw65KsjeYwe0ijDlVXU
gGb+CAU1noIWvbdqduDWfluwUckzNrz8kujFfbadHZkCAwEAAaOBoTCBnjAJBgNV
HRMEAjAAMB0GA1UdDgQWBBSMOvvVigSJkIhKkQEWX9+uh1Aj6TBQBgNVHSMESTBH
gBQHS8kYDjizrigBcKAA+NVKCZwX6qEZpBcwFTETMBEGA1UEAwwKdGVhbTY1LW5l
dIIUSl0oMC9GGqFqfTkHDfSkg01nBJEwEwYDVR0lBAwwCgYIKwYBBQUHAwIwCwYD
VR0PBAQDAgeAMA0GCSqGSIb3DQEBCwUAA4IBAQAl36+IW9BVT3mkUqF+/1VrPnXa
CedRwbDpqoh1Q/Jle6iqfswrB16YlJZfiOIH43yVKVQjFhWtvJkjz5aVwabfCYlx
jbBaY4++PfWEiAUsB0GXxrpiPD+Q+12mDKY/yGE27+n9M5/ekoE7GYdWN/qxUZ83
G61+7KCnH8cTtpA3JRp5DMq2kqcrG960pcT2aLb6CwWb5SLwySm1ii1wNwuTKF9F
DRVdReC8NWWaoSDRfzloIlJDIZvqe/recVva3oza+rOoV+Q93tG2MJ4aHYlSsFCl
oPECvFayBE6U/PEVvUdDlXPRadHr3u4yeA9mQhvXeTBzlEuvKLc6oQdisqLO
-----END CERTIFICATE-----
