Certificate:
    Data:
        Version: 3 (0x2)
        Serial Number:
            1e:4f:a8:76:d0:8d:d9:63:3c:88:a5:7b:0c:93:0f:37
        Signature Algorithm: sha256WithRSAEncryption
        Issuer: CN=team65-net
        Validity
            Not Before: Nov  3 20:40:22 2023 GMT
            Not After : Oct 18 20:40:22 2026 GMT
        Subject: CN=team65-server
        Subject Public Key Info:
            Public Key Algorithm: rsaEncryption
                Public-Key: (2048 bit)
                Modulus:
                    00:93:7e:04:eb:c0:70:b7:05:83:d7:77:25:5e:71:
                    27:59:c0:e3:09:94:ec:7a:e0:2b:73:f8:aa:4f:67:
                    b4:67:c2:2d:31:76:1f:86:cc:15:a4:48:db:4f:88:
                    97:a5:fb:c5:73:9b:a4:fa:88:4c:79:7f:19:44:7a:
                    66:bf:60:51:5e:93:81:eb:d1:93:3f:52:3b:3d:da:
                    3b:7f:81:7c:80:2f:65:91:ff:f5:26:0d:b5:6b:ea:
                    84:40:7b:69:2d:dd:eb:51:3f:d8:89:96:d8:81:8f:
                    31:24:25:59:06:d7:db:72:b8:83:fb:19:83:a1:f4:
                    eb:9c:bc:13:c0:24:c8:21:60:8a:0e:3b:5e:2c:8b:
                    56:89:7f:88:6d:0d:f8:77:32:49:a9:ef:bc:6c:4d:
                    91:f3:20:02:5f:72:9e:a2:ff:a0:18:2e:78:12:40:
                    1b:b9:08:09:df:2a:11:35:af:83:54:8a:63:12:82:
                    5b:86:2c:79:96:5c:b6:78:71:a8:66:3a:42:fd:69:
                    f0:5e:d9:b9:8d:fc:19:6a:be:3a:5e:de:de:fa:9f:
                    93:5f:cb:2b:6f:a2:01:6a:40:33:72:b2:b3:51:a7:
                    85:82:c3:99:ee:f0:13:d6:07:03:b3:42:a3:de:26:
                    49:b8:3d:74:a4:c1:24:33:6b:07:05:cd:fb:a2:cc:
                    ec:eb
                Exponent: 65537 (0x10001)
        X509v3 extensions:
            X509v3 Basic Constraints: 
                CA:FALSE
            X509v3 Subject Key Identifier: 
                A8:A9:F9:E5:25:98:73:7D:38:74:74:11:D5:90:48:6F:3A:AB:97:F4
            X509v3 Authority Key Identifier: 
                keyid:9E:26:1E:AC:7E:CE:C6:C9:CB:2A:9E:AF:CB:42:92:29:14:47:07:5C
                DirName:/CN=team65-net
                serial:70:E0:29:34:69:9B:A4:DC:1A:A5:86:C9:01:54:C4:61:7E:82:89:6E
            X509v3 Extended Key Usage: 
                TLS Web Server Authentication
            X509v3 Key Usage: 
                Digital Signature, Key Encipherment
            X509v3 Subject Alternative Name: 
                DNS:team65-server
    Signature Algorithm: sha256WithRSAEncryption
    Signature Value:
        54:dc:38:54:48:99:da:3d:59:fc:f1:0e:8d:fb:8e:cc:7d:9e:
        cb:1c:e8:61:f4:24:fe:cb:63:16:05:62:57:2a:4c:3d:1f:85:
        15:5c:17:84:ea:d1:fd:ff:bd:8d:28:67:8c:0d:02:8c:cc:df:
        fb:b4:6f:0e:df:9b:a8:46:f0:e6:6f:05:ca:73:d8:57:a9:12:
        e3:52:86:71:21:dc:9e:4b:71:2f:a9:29:24:4d:25:bd:83:20:
        ed:d8:21:15:78:f2:61:59:04:bf:d0:75:40:ee:8c:2b:8f:7b:
        c8:7c:a9:37:dd:08:cb:4f:ea:19:68:00:95:38:c1:30:66:7c:
        20:48:40:97:4a:f3:40:10:5b:82:ff:63:f7:d9:d8:48:34:41:
        0b:98:c0:b2:b4:06:90:50:ec:b4:c7:c8:ce:a4:4c:a4:d4:43:
        06:18:9d:f5:d5:b3:49:90:f0:f6:96:7a:36:44:af:c3:de:25:
        4b:d3:ac:36:a5:e7:42:c6:df:68:1e:61:c8:5e:61:fe:73:fa:
        81:cf:dc:d8:ae:d1:4d:d5:8d:36:2f:69:59:5d:ac:40:d3:cf:
        20:e1:70:a8:c1:aa:da:60:a2:35:5e:b7:97:f4:b7:26:70:7d:
        b5:cc:9c:85:f8:ca:40:37:7b:87:d4:0c:d8:37:c5:03:f9:d5:
        72:e2:72:eb
-----BEGIN CERTIFICATE-----
MIIDczCCAlugAwIBAgIQHk+odtCN2WM8iKV7DJMPNzANBgkqhkiG9w0BAQsFADAV
MRMwEQYDVQQDDAp0ZWFtNjUtbmV0MB4XDTIzMTEwMzIwNDAyMloXDTI2MTAxODIw
NDAyMlowGDEWMBQGA1UEAwwNdGVhbTY1LXNlcnZlcjCCASIwDQYJKoZIhvcNAQEB
BQADggEPADCCAQoCggEBAJN+BOvAcLcFg9d3JV5xJ1nA4wmU7HrgK3P4qk9ntGfC
LTF2H4bMFaRI20+Il6X7xXObpPqITHl/GUR6Zr9gUV6TgevRkz9SOz3aO3+BfIAv
ZZH/9SYNtWvqhEB7aS3d61E/2ImW2IGPMSQlWQbX23K4g/sZg6H065y8E8AkyCFg
ig47XiyLVol/iG0N+HcySanvvGxNkfMgAl9ynqL/oBgueBJAG7kICd8qETWvg1SK
YxKCW4YseZZctnhxqGY6Qv1p8F7ZuY38GWq+Ol7e3vqfk1/LK2+iAWpAM3Kys1Gn
hYLDme7wE9YHA7NCo94mSbg9dKTBJDNrBwXN+6LM7OsCAwEAAaOBuzCBuDAJBgNV
HRMEAjAAMB0GA1UdDgQWBBSoqfnlJZhzfTh0dBHVkEhvOquX9DBQBgNVHSMESTBH
gBSeJh6sfs7Gycsqnq/LQpIpFEcHXKEZpBcwFTETMBEGA1UEAwwKdGVhbTY1LW5l
dIIUcOApNGmbpNwapYbJAVTEYX6CiW4wEwYDVR0lBAwwCgYIKwYBBQUHAwEwCwYD
VR0PBAQDAgWgMBgGA1UdEQQRMA+CDXRlYW02NS1zZXJ2ZXIwDQYJKoZIhvcNAQEL
BQADggEBAFTcOFRImdo9WfzxDo37jsx9nssc6GH0JP7LYxYFYlcqTD0fhRVcF4Tq
0f3/vY0oZ4wNAozM3/u0bw7fm6hG8OZvBcpz2FepEuNShnEh3J5LcS+pKSRNJb2D
IO3YIRV48mFZBL/QdUDujCuPe8h8qTfdCMtP6hloAJU4wTBmfCBIQJdK80AQW4L/
Y/fZ2Eg0QQuYwLK0BpBQ7LTHyM6kTKTUQwYYnfXVs0mQ8PaWejZEr8PeJUvTrDal
50LG32geYcheYf5z+oHP3Niu0U3VjTYvaVldrEDTzyDhcKjBqtpgojVet5f0tyZw
fbXMnIX4ykA3e4fUDNg3xQP51XLicus=
-----END CERTIFICATE-----
