Certificate:
    Data:
        Version: 3 (0x2)
        Serial Number:
            e2:99:a3:37:73:70:23:a4:ef:c9:41:4d:eb:bc:a3:33
        Signature Algorithm: sha256WithRSAEncryption
        Issuer: CN=team65-net
        Validity
            Not Before: Nov  4 11:28:35 2023 GMT
            Not After : Oct 19 11:28:35 2026 GMT
        Subject: CN=team65-server
        Subject Public Key Info:
            Public Key Algorithm: rsaEncryption
                Public-Key: (2048 bit)
                Modulus:
                    00:b0:64:42:18:a5:e5:07:5f:64:e2:96:35:d7:cc:
                    42:47:2d:4a:0d:ee:11:10:a1:ed:55:df:ac:c4:10:
                    fd:74:0c:c1:91:4e:c0:3b:b7:5a:ba:60:33:6b:a3:
                    44:24:8a:a3:08:13:a8:02:67:78:fa:53:b7:5d:55:
                    a2:97:98:db:63:44:04:2d:ae:89:12:57:ae:4b:19:
                    b6:b3:bf:ef:2a:ea:3f:cc:1a:16:d3:0d:6d:a6:a7:
                    9b:57:b1:ca:98:74:5e:e0:9c:a8:59:17:eb:d8:54:
                    1d:56:ed:7b:7e:eb:f8:2b:b1:db:7d:8b:38:53:5b:
                    7c:da:26:c9:0e:6a:9f:e8:36:e4:f9:71:43:5c:2d:
                    db:49:24:6a:c1:10:bb:f1:7a:f6:78:2e:a6:bf:1a:
                    a5:18:40:87:d1:f9:02:3a:a9:c9:af:eb:c0:10:ae:
                    99:a5:1a:5c:79:ee:dd:1d:b9:3d:e3:77:e2:bc:3d:
                    18:c3:68:fc:d7:52:cc:c1:be:b5:82:07:84:cc:a1:
                    f9:99:60:ec:0e:f8:07:b4:3b:7c:29:ae:a3:e4:f1:
                    7a:20:1b:06:61:1d:7e:88:db:9e:cd:7f:df:cd:7a:
                    d6:38:f1:a0:9c:31:0b:19:64:98:ca:a8:b3:b0:c4:
                    92:c3:e1:5f:db:e2:fd:38:e8:2d:18:22:99:b7:f3:
                    51:9f
                Exponent: 65537 (0x10001)
        X509v3 extensions:
            X509v3 Basic Constraints: 
                CA:FALSE
            X509v3 Subject Key Identifier: 
                46:0C:61:68:07:8A:BF:E9:3F:EE:2C:D4:99:F5:93:85:B4:6B:D3:86
            X509v3 Authority Key Identifier: 
                keyid:07:4B:C9:18:0E:38:B3:AE:28:01:70:A0:00:F8:D5:4A:09:9C:17:EA
                DirName:/CN=team65-net
                serial:4A:5D:28:30:2F:46:1A:A1:6A:7D:39:07:0D:F4:A4:83:4D:67:04:91
            X509v3 Extended Key Usage: 
                TLS Web Server Authentication
            X509v3 Key Usage: 
                Digital Signature, Key Encipherment
            X509v3 Subject Alternative Name: 
                DNS:team65-server
    Signature Algorithm: sha256WithRSAEncryption
    Signature Value:
        87:30:98:2b:fb:c4:a6:47:34:9e:15:d0:88:5d:11:c8:71:96:
        4c:22:3f:c2:69:1d:68:f5:be:76:e9:dd:13:6a:51:58:c8:1b:
        60:1d:73:7f:77:8c:ff:6a:96:8b:1f:6f:26:f7:16:4d:30:27:
        7b:16:c5:47:11:f1:71:ac:b5:4b:58:ee:a4:2a:93:26:a6:dd:
        c2:9d:c1:41:f6:2d:9f:cf:ef:d2:3d:55:21:4b:dc:64:3d:a2:
        58:0f:47:8d:97:dc:88:cb:5d:9e:a2:dc:19:37:38:13:16:f7:
        42:3c:8a:33:da:3a:ca:65:f4:56:d7:a7:b1:4a:02:55:99:5f:
        19:a8:a9:d3:64:9c:c5:2a:16:9f:d7:72:a0:6f:9a:cc:82:b0:
        16:1d:d3:bf:c4:0a:f2:f6:74:1e:36:51:07:e0:21:7b:62:e3:
        7f:7c:9d:d4:a0:e5:ae:c7:86:6b:90:ed:30:7e:56:22:14:87:
        26:a6:da:2a:dd:06:c2:33:be:76:47:27:11:f5:ed:18:a4:b8:
        ac:26:81:4e:1a:76:4a:6d:59:ae:ac:cf:30:e1:2c:49:31:b4:
        d9:7a:f6:be:c4:0a:9f:56:81:ff:87:1f:dc:e4:06:df:d5:24:
        e6:c9:98:f6:c7:5a:0c:9a:8f:40:08:1a:c3:3f:5d:40:4d:6d:
        c5:af:fc:fe
-----BEGIN CERTIFICATE-----
MIIDdDCCAlygAwIBAgIRAOKZozdzcCOk78lBTeu8ozMwDQYJKoZIhvcNAQELBQAw
FTETMBEGA1UEAwwKdGVhbTY1LW5ldDAeFw0yMzExMDQxMTI4MzVaFw0yNjEwMTkx
MTI4MzVaMBgxFjAUBgNVBAMMDXRlYW02NS1zZXJ2ZXIwggEiMA0GCSqGSIb3DQEB
AQUAA4IBDwAwggEKAoIBAQCwZEIYpeUHX2TiljXXzEJHLUoN7hEQoe1V36zEEP10
DMGRTsA7t1q6YDNro0QkiqMIE6gCZ3j6U7ddVaKXmNtjRAQtrokSV65LGbazv+8q
6j/MGhbTDW2mp5tXscqYdF7gnKhZF+vYVB1W7Xt+6/grsdt9izhTW3zaJskOap/o
NuT5cUNcLdtJJGrBELvxevZ4Lqa/GqUYQIfR+QI6qcmv68AQrpmlGlx57t0duT3j
d+K8PRjDaPzXUszBvrWCB4TMofmZYOwO+Ae0O3wprqPk8XogGwZhHX6I257Nf9/N
etY48aCcMQsZZJjKqLOwxJLD4V/b4v046C0YIpm381GfAgMBAAGjgbswgbgwCQYD
VR0TBAIwADAdBgNVHQ4EFgQURgxhaAeKv+k/7izUmfWThbRr04YwUAYDVR0jBEkw
R4AUB0vJGA44s64oAXCgAPjVSgmcF+qhGaQXMBUxEzARBgNVBAMMCnRlYW02NS1u
ZXSCFEpdKDAvRhqhan05Bw30pINNZwSRMBMGA1UdJQQMMAoGCCsGAQUFBwMBMAsG
A1UdDwQEAwIFoDAYBgNVHREEETAPgg10ZWFtNjUtc2VydmVyMA0GCSqGSIb3DQEB
CwUAA4IBAQCHMJgr+8SmRzSeFdCIXRHIcZZMIj/CaR1o9b526d0TalFYyBtgHXN/
d4z/apaLH28m9xZNMCd7FsVHEfFxrLVLWO6kKpMmpt3CncFB9i2fz+/SPVUhS9xk
PaJYD0eNl9yIy12eotwZNzgTFvdCPIoz2jrKZfRW16exSgJVmV8ZqKnTZJzFKhaf
13Kgb5rMgrAWHdO/xAry9nQeNlEH4CF7YuN/fJ3UoOWux4ZrkO0wflYiFIcmptoq
3QbCM752RycR9e0YpLisJoFOGnZKbVmurM8w4SxJMbTZeva+xAqfVoH/hx/c5Abf
1STmyZj2x1oMmo9ACBrDP11ATW3Fr/z+
-----END CERTIFICATE-----
