Certificate:
    Data:
        Version: 3 (0x2)
        Serial Number:
            f3:fd:56:23:9c:8d:c6:e6:36:77:7c:ae:af:2c:13:24
        Signature Algorithm: sha256WithRSAEncryption
        Issuer: CN=team65-net
        Validity
            Not Before: Nov  4 10:41:32 2023 GMT
            Not After : Oct 19 10:41:32 2026 GMT
        Subject: CN=team65-server
        Subject Public Key Info:
            Public Key Algorithm: rsaEncryption
                Public-Key: (2048 bit)
                Modulus:
                    00:b7:f9:c6:1b:41:fb:24:77:e8:86:7a:55:db:6a:
                    93:2e:e9:3b:28:d2:f4:f9:ff:f6:92:fe:10:e2:cd:
                    b2:9f:41:fb:ea:67:34:de:88:2c:9b:f4:81:b7:7b:
                    df:39:ea:90:47:2e:a3:ab:54:99:f6:22:d4:c3:27:
                    b3:53:b1:63:6a:c5:e3:5a:d0:6c:45:6a:5d:41:5c:
                    74:81:11:f0:d0:df:3e:88:13:76:94:35:d9:b7:a1:
                    60:f7:46:53:ca:4a:ce:cc:9b:34:b9:d8:d6:34:9d:
                    c1:c3:6c:7a:36:67:07:6d:7d:23:df:ca:cd:c9:be:
                    3b:64:87:56:1b:75:76:3c:32:0b:cc:65:6f:d5:bf:
                    fa:7d:bf:00:20:40:15:07:5f:f3:aa:ea:aa:9c:cd:
                    5a:d9:65:64:17:d0:78:2c:8e:eb:31:f1:3e:9f:00:
                    8b:cd:dd:89:b2:90:2c:55:3b:4a:cb:eb:b4:9a:61:
                    de:02:08:02:9e:8f:6b:8b:c1:32:f9:ce:6d:31:22:
                    1d:b5:48:5d:e0:0f:67:cf:5b:d1:b3:11:e2:6e:3d:
                    06:8e:ab:d5:b2:8b:bb:72:ad:49:fb:75:88:64:fc:
                    e5:13:97:f3:d1:00:10:e4:78:bf:bd:34:23:ff:a2:
                    d3:95:3a:68:b1:a9:c1:e6:35:61:30:9f:cf:aa:3f:
                    bc:ef
                Exponent: 65537 (0x10001)
        X509v3 extensions:
            X509v3 Basic Constraints: 
                CA:FALSE
            X509v3 Subject Key Identifier: 
                98:62:F0:07:6E:F5:8B:A6:D1:2A:BD:A8:31:27:3F:31:71:7F:4F:68
            X509v3 Authority Key Identifier: 
                keyid:1F:E1:1E:20:8F:D4:B5:4D:2A:EA:36:D7:15:5D:D5:FE:35:34:2E:CB
                DirName:/CN=team65-net
                serial:2A:99:76:7C:72:6C:F8:F3:32:CB:42:F4:C2:01:B1:DF:70:20:EC:C6
            X509v3 Extended Key Usage: 
                TLS Web Server Authentication
            X509v3 Key Usage: 
                Digital Signature, Key Encipherment
            X509v3 Subject Alternative Name: 
                DNS:team65-server
    Signature Algorithm: sha256WithRSAEncryption
    Signature Value:
        93:46:4f:82:5e:55:2b:1a:0c:d1:1a:c8:52:0b:dd:60:b8:c8:
        52:18:10:38:37:52:16:eb:db:c9:a0:ad:6b:69:f4:01:1e:86:
        ff:25:97:16:71:b5:da:9d:6c:44:2c:1e:e1:3d:f8:c5:cf:ab:
        50:81:0b:42:b8:99:fb:8d:63:42:3f:a9:6d:ba:a3:37:b6:fe:
        fd:d9:3a:0b:46:b6:62:91:57:96:c3:3b:2e:4a:9c:e1:62:d5:
        02:d7:76:16:09:0d:28:23:4a:98:49:8d:a9:40:f4:65:d8:86:
        54:d5:18:d1:73:6d:ce:89:f9:6b:b3:74:60:a3:ed:c2:e2:d4:
        f1:56:f8:56:b9:91:d5:c8:b2:39:df:e4:b6:43:d6:b7:fe:1b:
        f9:24:1a:a0:bd:46:4f:22:6a:9a:d9:21:9c:f1:a2:89:43:e6:
        50:86:26:c3:7c:bc:01:c9:15:31:03:77:fc:0e:ec:7c:1d:21:
        42:83:86:f3:46:0d:8e:7e:59:03:33:fe:cc:d4:37:e9:3c:5c:
        bb:99:05:d8:c3:b7:29:71:d0:aa:86:ad:bf:01:a9:77:52:cf:
        80:69:2f:a5:a9:22:82:cb:1e:97:85:94:31:3e:5c:1f:52:d3:
        73:20:e9:15:29:26:88:7d:9a:20:45:1f:90:ec:0d:3e:fd:d7:
        cd:d5:70:7d
-----BEGIN CERTIFICATE-----
MIIDdDCCAlygAwIBAgIRAPP9ViOcjcbmNnd8rq8sEyQwDQYJKoZIhvcNAQELBQAw
FTETMBEGA1UEAwwKdGVhbTY1LW5ldDAeFw0yMzExMDQxMDQxMzJaFw0yNjEwMTkx
MDQxMzJaMBgxFjAUBgNVBAMMDXRlYW02NS1zZXJ2ZXIwggEiMA0GCSqGSIb3DQEB
AQUAA4IBDwAwggEKAoIBAQC3+cYbQfskd+iGelXbapMu6Tso0vT5//aS/hDizbKf
QfvqZzTeiCyb9IG3e9856pBHLqOrVJn2ItTDJ7NTsWNqxeNa0GxFal1BXHSBEfDQ
3z6IE3aUNdm3oWD3RlPKSs7MmzS52NY0ncHDbHo2ZwdtfSPfys3Jvjtkh1YbdXY8
MgvMZW/Vv/p9vwAgQBUHX/Oq6qqczVrZZWQX0Hgsjusx8T6fAIvN3YmykCxVO0rL
67SaYd4CCAKej2uLwTL5zm0xIh21SF3gD2fPW9GzEeJuPQaOq9Wyi7tyrUn7dYhk
/OUTl/PRABDkeL+9NCP/otOVOmixqcHmNWEwn8+qP7zvAgMBAAGjgbswgbgwCQYD
VR0TBAIwADAdBgNVHQ4EFgQUmGLwB271i6bRKr2oMSc/MXF/T2gwUAYDVR0jBEkw
R4AUH+EeII/UtU0q6jbXFV3V/jU0LsuhGaQXMBUxEzARBgNVBAMMCnRlYW02NS1u
ZXSCFCqZdnxybPjzMstC9MIBsd9wIOzGMBMGA1UdJQQMMAoGCCsGAQUFBwMBMAsG
A1UdDwQEAwIFoDAYBgNVHREEETAPgg10ZWFtNjUtc2VydmVyMA0GCSqGSIb3DQEB
CwUAA4IBAQCTRk+CXlUrGgzRGshSC91guMhSGBA4N1IW69vJoK1rafQBHob/JZcW
cbXanWxELB7hPfjFz6tQgQtCuJn7jWNCP6ltuqM3tv792ToLRrZikVeWwzsuSpzh
YtUC13YWCQ0oI0qYSY2pQPRl2IZU1RjRc23Oiflrs3Rgo+3C4tTxVvhWuZHVyLI5
3+S2Q9a3/hv5JBqgvUZPImqa2SGc8aKJQ+ZQhibDfLwByRUxA3f8Dux8HSFCg4bz
Rg2OflkDM/7M1DfpPFy7mQXYw7cpcdCqhq2/Aal3Us+AaS+lqSKCyx6XhZQxPlwf
UtNzIOkVKSaIfZogRR+Q7A0+/dfN1XB9
-----END CERTIFICATE-----
