Certificate:
    Data:
        Version: 3 (0x2)
        Serial Number:
            2b:66:80:e1:46:53:3f:9a:b7:17:cb:9e:04:ad:5c:f9
        Signature Algorithm: sha256WithRSAEncryption
        Issuer: CN=team42-net
        Validity
            Not Before: Nov  4 10:41:00 2023 GMT
            Not After : Oct 19 10:41:00 2026 GMT
        Subject: CN=team42-client
        Subject Public Key Info:
            Public Key Algorithm: rsaEncryption
                Public-Key: (2048 bit)
                Modulus:
                    00:c1:61:3b:a8:15:c4:ce:11:55:39:2a:0c:62:20:
                    15:4f:69:8d:ad:9a:44:ff:53:30:6b:3c:9e:83:7e:
                    12:3e:9b:86:3a:49:81:a7:12:ae:56:e4:b8:b3:27:
                    6b:25:5b:52:8b:85:c9:8b:64:96:d5:31:25:9f:57:
                    f2:cc:c5:04:3a:a6:db:bb:bb:a3:4c:61:c8:0b:f7:
                    83:64:eb:64:0d:9e:5c:65:7e:f2:e9:ef:28:92:b8:
                    03:68:8f:55:1a:28:bc:53:3d:90:49:ad:93:32:6a:
                    ae:32:ef:71:a4:f2:d8:e3:74:f6:2e:2a:ba:a0:b4:
                    1f:f6:50:f0:76:b3:3f:1e:73:e5:c1:16:30:83:1e:
                    07:68:ea:41:fb:68:fc:56:1c:09:5b:4d:7d:df:73:
                    32:d8:84:a2:ba:e9:e3:f1:61:28:f6:07:2f:4c:24:
                    82:98:70:09:a6:8f:8f:db:13:95:03:9b:c5:e7:a1:
                    dd:f8:94:97:cf:d4:88:00:4d:0c:7a:13:0d:2b:52:
                    fc:9d:87:c8:73:51:89:89:1f:e1:a5:dd:7a:b1:02:
                    cb:cf:ba:d2:f6:01:99:09:63:fd:51:17:1f:e9:b2:
                    ee:6f:a7:5b:19:4c:a4:28:46:94:3f:4e:40:f5:93:
                    36:d0:7d:df:71:18:93:f6:a6:2a:e3:15:b7:86:da:
                    41:85
                Exponent: 65537 (0x10001)
        X509v3 extensions:
            X509v3 Basic Constraints: 
                CA:FALSE
            X509v3 Subject Key Identifier: 
                3E:BA:2D:D8:E2:5F:B4:0A:10:FA:22:39:9E:5C:D3:05:D4:BC:6A:99
            X509v3 Authority Key Identifier: 
                keyid:C6:DD:FD:9E:61:B7:96:27:9C:E1:33:6A:1D:1D:18:33:4A:97:46:44
                DirName:/CN=team42-net
                serial:50:C4:AF:14:72:BD:6F:2D:48:3A:32:0E:56:8D:54:4A:48:A6:45:D3
            X509v3 Extended Key Usage: 
                TLS Web Client Authentication
            X509v3 Key Usage: 
                Digital Signature
    Signature Algorithm: sha256WithRSAEncryption
    Signature Value:
        29:56:4f:59:89:f5:1a:4e:fe:c4:d6:75:00:1b:0b:03:55:01:
        fe:6c:6e:e4:8e:f3:1f:ce:f9:74:c7:1c:3a:75:50:07:f4:71:
        fe:d4:b3:5e:9c:ac:78:70:99:e0:76:55:0e:19:3b:22:2f:36:
        a9:c5:b8:73:52:a7:46:ab:2a:82:10:ff:fa:7e:c6:c2:75:e0:
        5c:e5:e1:ba:c7:18:4c:d5:18:7f:63:56:3f:6e:cc:f6:e6:33:
        b3:d3:52:f4:23:d2:46:3d:85:46:f6:8c:05:b7:63:c4:69:7c:
        8c:88:27:3e:dc:b4:90:77:cf:0e:be:72:8b:b7:3a:7b:fd:c5:
        07:64:ba:95:88:55:4e:79:c3:58:81:72:71:8f:e6:c8:4d:ca:
        2c:f5:f2:e5:42:82:70:a1:d9:bf:80:30:fe:ed:50:82:d4:cc:
        cd:32:15:58:4d:3e:cb:a5:2e:2f:6b:1b:9f:fa:5c:05:ee:44:
        63:f3:39:79:66:7d:f0:5f:da:8d:e9:61:0d:b7:0e:6a:b7:1b:
        ef:3b:f0:94:4b:10:54:c6:dc:0a:ae:65:d9:84:3f:7b:7d:6a:
        44:7a:e2:e9:6e:37:4a:7c:8a:1a:d1:17:a8:98:b8:c4:6f:c1:
        56:fb:a6:6c:8c:27:8e:08:f8:fd:f9:35:56:84:d6:2f:6b:fb:
        ff:2e:8c:a8
-----BEGIN CERTIFICATE-----
MIIDWTCCAkGgAwIBAgIQK2aA4UZTP5q3F8ueBK1c+TANBgkqhkiG9w0BAQsFADAV
MRMwEQYDVQQDDAp0ZWFtNDItbmV0MB4XDTIzMTEwNDEwNDEwMFoXDTI2MTAxOTEw
NDEwMFowGDEWMBQGA1UEAwwNdGVhbTQyLWNsaWVudDCCASIwDQYJKoZIhvcNAQEB
BQADggEPADCCAQoCggEBAMFhO6gVxM4RVTkqDGIgFU9pja2aRP9TMGs8noN+Ej6b
hjpJgacSrlbkuLMnayVbUouFyYtkltUxJZ9X8szFBDqm27u7o0xhyAv3g2TrZA2e
XGV+8unvKJK4A2iPVRoovFM9kEmtkzJqrjLvcaTy2ON09i4quqC0H/ZQ8HazPx5z
5cEWMIMeB2jqQfto/FYcCVtNfd9zMtiEorrp4/FhKPYHL0wkgphwCaaPj9sTlQOb
xeeh3fiUl8/UiABNDHoTDStS/J2HyHNRiYkf4aXderECy8+60vYBmQlj/VEXH+my
7m+nWxlMpChGlD9OQPWTNtB933EYk/amKuMVt4baQYUCAwEAAaOBoTCBnjAJBgNV
HRMEAjAAMB0GA1UdDgQWBBQ+ui3Y4l+0ChD6IjmeXNMF1LxqmTBQBgNVHSMESTBH
gBTG3f2eYbeWJ5zhM2odHRgzSpdGRKEZpBcwFTETMBEGA1UEAwwKdGVhbTQyLW5l
dIIUUMSvFHK9by1IOjIOVo1USkimRdMwEwYDVR0lBAwwCgYIKwYBBQUHAwIwCwYD
VR0PBAQDAgeAMA0GCSqGSIb3DQEBCwUAA4IBAQApVk9ZifUaTv7E1nUAGwsDVQH+
bG7kjvMfzvl0xxw6dVAH9HH+1LNenKx4cJngdlUOGTsiLzapxbhzUqdGqyqCEP/6
fsbCdeBc5eG6xxhM1Rh/Y1Y/bsz25jOz01L0I9JGPYVG9owFt2PEaXyMiCc+3LSQ
d88OvnKLtzp7/cUHZLqViFVOecNYgXJxj+bITcos9fLlQoJwodm/gDD+7VCC1MzN
MhVYTT7LpS4vaxuf+lwF7kRj8zl5Zn3wX9qN6WENtw5qtxvvO/CUSxBUxtwKrmXZ
hD97fWpEeuLpbjdKfIoa0ReomLjEb8FW+6ZsjCeOCPj9+TVWhNYva/v/Loyo
-----END CERTIFICATE-----
