Certificate:
    Data:
        Version: 3 (0x2)
        Serial Number:
            f2:cf:c4:da:4a:a7:f0:ba:d6:ac:e8:0f:5b:ba:18:78
        Signature Algorithm: sha256WithRSAEncryption
        Issuer: CN=team42-net
        Validity
            Not Before: Nov  4 11:28:11 2023 GMT
            Not After : Oct 19 11:28:11 2026 GMT
        Subject: CN=team42-client
        Subject Public Key Info:
            Public Key Algorithm: rsaEncryption
                Public-Key: (2048 bit)
                Modulus:
                    00:f0:72:81:9c:f3:df:0b:99:d3:2f:fe:9e:33:52:
                    4b:0b:22:2a:06:18:4d:a2:4a:ef:48:08:68:0c:dc:
                    04:38:47:8c:da:fd:e3:3b:d2:59:33:ae:6e:e0:42:
                    7a:62:18:f2:c9:f7:54:cf:0b:f0:fb:e0:d5:66:3f:
                    10:57:e9:ad:a0:ea:e5:9d:59:17:31:06:94:e5:43:
                    68:f3:c0:4d:07:6b:5f:4a:77:6e:1a:76:a9:17:66:
                    8a:6c:59:c6:91:64:40:4c:9d:1f:6a:71:2a:34:b4:
                    fb:0f:4d:0f:39:c6:90:ca:69:a1:10:33:cc:b3:89:
                    34:ea:4b:bc:fb:e7:19:29:b3:ce:3c:9b:95:70:00:
                    ff:d8:69:a5:49:8e:98:e9:fb:ab:2e:8d:34:25:ba:
                    d4:45:c2:65:d2:23:03:ee:2f:a2:b0:38:35:b3:68:
                    41:87:c4:12:ac:a1:c2:b7:e2:b6:06:ad:6c:c7:f9:
                    bf:cc:db:ac:bf:0d:f4:38:7e:b0:6e:08:f9:51:a6:
                    63:f4:35:82:ef:bf:45:e6:07:d6:2a:0d:d9:ac:95:
                    07:1f:57:ae:f5:0f:91:1f:42:75:33:3f:13:0b:38:
                    1e:11:24:f4:aa:21:46:e1:f7:79:60:cf:6f:1a:d8:
                    be:1f:ab:0d:f5:af:7c:c3:fd:1c:3c:0b:a7:f1:45:
                    c1:29
                Exponent: 65537 (0x10001)
        X509v3 extensions:
            X509v3 Basic Constraints: 
                CA:FALSE
            X509v3 Subject Key Identifier: 
                7D:58:45:CA:E9:D2:BF:B1:E3:B0:D7:25:6B:F8:7D:02:8D:20:5C:CB
            X509v3 Authority Key Identifier: 
                keyid:2C:E7:96:63:D2:1D:EE:D9:30:54:18:A4:1E:FE:E2:BB:F3:E9:18:28
                DirName:/CN=team42-net
                serial:23:A5:9B:4F:E8:6F:8C:EA:99:7F:C9:CA:B5:CE:D3:78:FD:64:3F:9B
            X509v3 Extended Key Usage: 
                TLS Web Client Authentication
            X509v3 Key Usage: 
                Digital Signature
    Signature Algorithm: sha256WithRSAEncryption
    Signature Value:
        0e:a1:de:1f:98:40:8f:59:93:89:07:7d:d2:26:af:ec:4c:83:
        c3:23:df:eb:51:15:30:82:85:05:7a:94:f5:99:35:fb:b8:a2:
        0a:5f:ed:46:2d:ca:e8:5d:4a:85:b7:e3:4c:0b:c4:bf:db:1b:
        74:c1:4e:4d:8b:3f:09:22:89:2b:0e:fc:ce:0b:a1:45:16:78:
        33:1d:14:13:b6:3c:f9:17:45:d9:b8:39:4e:8a:6c:bb:c4:9c:
        ea:e1:f5:48:30:0d:31:82:16:14:58:57:d9:33:ba:a6:2b:eb:
        ec:0d:5c:65:1d:97:0c:ef:3d:57:7c:c6:5d:75:40:72:d6:0a:
        4e:dc:ce:e8:92:ef:a8:17:6e:a1:c9:5c:81:3b:d9:e9:0c:0a:
        12:76:0d:8a:14:58:8d:26:69:4b:b7:96:1c:67:13:69:de:0f:
        22:b8:65:fa:6e:8c:73:14:eb:17:b8:6f:fc:af:88:2d:50:6a:
        b7:81:df:2e:fd:fc:48:e3:b8:25:1e:75:78:3c:c6:41:79:72:
        c7:c5:58:e8:cd:f4:0a:15:17:28:a5:dc:0c:da:dc:d2:05:77:
        e0:30:2e:ed:6d:16:4c:3f:b3:1a:fc:0a:f3:bb:41:0f:d8:4a:
        9e:82:72:f9:3f:70:6f:5f:83:2e:a8:df:14:cf:0b:4b:a2:54:
        a4:9e:8a:83
-----BEGIN CERTIFICATE-----
MIIDWjCCAkKgAwIBAgIRAPLPxNpKp/C61qzoD1u6GHgwDQYJKoZIhvcNAQELBQAw
FTETMBEGA1UEAwwKdGVhbTQyLW5ldDAeFw0yMzExMDQxMTI4MTFaFw0yNjEwMTkx
MTI4MTFaMBgxFjAUBgNVBAMMDXRlYW00Mi1jbGllbnQwggEiMA0GCSqGSIb3DQEB
AQUAA4IBDwAwggEKAoIBAQDwcoGc898LmdMv/p4zUksLIioGGE2iSu9ICGgM3AQ4
R4za/eM70lkzrm7gQnpiGPLJ91TPC/D74NVmPxBX6a2g6uWdWRcxBpTlQ2jzwE0H
a19Kd24adqkXZopsWcaRZEBMnR9qcSo0tPsPTQ85xpDKaaEQM8yziTTqS7z75xkp
s848m5VwAP/YaaVJjpjp+6sujTQlutRFwmXSIwPuL6KwODWzaEGHxBKsocK34rYG
rWzH+b/M26y/DfQ4frBuCPlRpmP0NYLvv0XmB9YqDdmslQcfV671D5EfQnUzPxML
OB4RJPSqIUbh93lgz28a2L4fqw31r3zD/Rw8C6fxRcEpAgMBAAGjgaEwgZ4wCQYD
VR0TBAIwADAdBgNVHQ4EFgQUfVhFyunSv7HjsNcla/h9Ao0gXMswUAYDVR0jBEkw
R4AULOeWY9Id7tkwVBikHv7iu/PpGCihGaQXMBUxEzARBgNVBAMMCnRlYW00Mi1u
ZXSCFCOlm0/ob4zqmX/JyrXO03j9ZD+bMBMGA1UdJQQMMAoGCCsGAQUFBwMCMAsG
A1UdDwQEAwIHgDANBgkqhkiG9w0BAQsFAAOCAQEADqHeH5hAj1mTiQd90iav7EyD
wyPf61EVMIKFBXqU9Zk1+7iiCl/tRi3K6F1KhbfjTAvEv9sbdMFOTYs/CSKJKw78
zguhRRZ4Mx0UE7Y8+RdF2bg5Topsu8Sc6uH1SDANMYIWFFhX2TO6pivr7A1cZR2X
DO89V3zGXXVActYKTtzO6JLvqBduoclcgTvZ6QwKEnYNihRYjSZpS7eWHGcTad4P
Irhl+m6McxTrF7hv/K+ILVBqt4HfLv38SOO4JR51eDzGQXlyx8VY6M30ChUXKKXc
DNrc0gV34DAu7W0WTD+zGvwK87tBD9hKnoJy+T9wb1+DLqjfFM8LS6JUpJ6Kgw==
-----END CERTIFICATE-----
