Certificate:
    Data:
        Version: 3 (0x2)
        Serial Number:
            ef:b6:05:c9:7f:c6:d1:50:62:c2:af:56:0c:91:bf:b9
        Signature Algorithm: sha256WithRSAEncryption
        Issuer: CN=team266-net
        Validity
            Not Before: Nov  3 20:44:11 2023 GMT
            Not After : Oct 18 20:44:11 2026 GMT
        Subject: CN=team266-server
        Subject Public Key Info:
            Public Key Algorithm: rsaEncryption
                Public-Key: (2048 bit)
                Modulus:
                    00:b8:4f:03:6e:41:6e:34:74:b0:f8:0b:61:67:bd:
                    e2:f2:b6:88:18:9e:d6:aa:f2:69:4a:70:d1:ab:5e:
                    de:94:bb:a1:7f:9a:81:60:10:b7:33:48:cc:fe:dd:
                    e0:38:21:99:38:fd:49:fc:20:9a:2d:69:67:a3:d4:
                    c7:ee:ef:10:fb:9c:85:d4:4d:13:39:8b:a6:98:e7:
                    71:5a:a2:a3:e0:46:46:6e:90:83:83:f2:14:66:f3:
                    91:ec:51:61:42:a4:88:0b:23:71:e4:98:dd:bb:fe:
                    36:c4:19:7c:6e:2f:10:00:53:04:0e:e3:bd:db:af:
                    95:ca:79:6b:fb:2a:b7:ac:d4:fe:c1:57:db:67:2d:
                    8a:b1:ed:25:e9:e6:59:22:f5:b6:ba:5e:8b:15:c2:
                    ed:d7:24:12:25:ba:8e:89:72:b6:9c:4c:7e:f6:0e:
                    e7:01:42:56:1f:7e:ed:94:f4:9b:80:45:a9:a4:9d:
                    75:d4:d7:65:78:f4:ae:ac:00:20:38:d8:a5:30:b0:
                    ef:b1:c2:14:15:fb:9e:34:cb:70:e6:d8:05:2f:c5:
                    5c:c7:52:2e:74:3b:9d:52:9c:a6:92:6e:51:81:00:
                    bf:a9:47:c0:c3:c4:d8:87:1d:21:77:7f:36:dd:0f:
                    11:44:57:77:01:7b:5b:8e:69:8a:7c:00:b8:77:aa:
                    87:4d
                Exponent: 65537 (0x10001)
        X509v3 extensions:
            X509v3 Basic Constraints: 
                CA:FALSE
            X509v3 Subject Key Identifier: 
                B2:F7:8E:08:FB:97:1E:DD:C7:48:12:F7:F2:B1:60:0D:35:8F:FB:DA
            X509v3 Authority Key Identifier: 
                keyid:A8:B0:B7:F4:3B:D9:BB:C7:F2:E0:B7:84:59:FD:A4:21:E5:C1:89:9F
                DirName:/CN=team266-net
                serial:08:9B:91:2B:5B:2D:E1:B0:0D:60:6A:F9:FA:9D:D5:70:3A:9E:C1:55
            X509v3 Extended Key Usage: 
                TLS Web Server Authentication
            X509v3 Key Usage: 
                Digital Signature, Key Encipherment
            X509v3 Subject Alternative Name: 
                DNS:team266-server
    Signature Algorithm: sha256WithRSAEncryption
    Signature Value:
        91:8b:f1:27:68:27:1f:94:30:96:66:10:bd:e8:60:72:98:3b:
        3e:26:ab:6d:5c:bf:c0:da:96:64:ae:ab:08:e4:ee:cd:1b:2e:
        c0:39:db:9a:1e:7e:1a:a8:04:33:1d:ba:70:42:75:7d:bd:3b:
        db:f3:e7:e7:09:e5:58:41:4a:34:56:5a:52:b1:24:13:00:7f:
        75:7f:06:56:ea:2f:c8:73:39:93:47:f4:16:40:fc:4d:22:3e:
        c9:9f:bb:41:52:be:54:93:39:f3:cd:b0:b0:33:9d:93:00:fb:
        7a:34:e1:ab:c8:d8:da:b6:ba:73:54:6d:2f:44:8f:08:e6:8e:
        99:2c:fd:11:7d:2a:46:39:c0:b2:b8:06:2c:ea:ab:47:17:4f:
        eb:94:79:10:ed:6b:41:81:31:c8:50:87:be:d2:61:9e:34:72:
        5f:23:9f:ec:72:43:8e:43:8b:e0:68:ac:5e:8a:4a:46:21:cd:
        51:74:e0:fc:01:a5:8f:59:0a:ba:01:86:4f:da:f4:0e:91:28:
        cf:02:df:31:79:30:fe:04:45:3f:01:0c:8f:88:ef:f9:2b:b9:
        eb:1e:14:9c:a9:87:fe:c0:78:ac:d1:e5:4c:11:29:77:4b:d1:
        eb:3c:09:8c:b1:99:bb:d0:c7:38:ce:3c:5b:5f:0f:e1:38:36:
        e7:89:13:4d
-----BEGIN CERTIFICATE-----
MIIDeDCCAmCgAwIBAgIRAO+2Bcl/xtFQYsKvVgyRv7kwDQYJKoZIhvcNAQELBQAw
FjEUMBIGA1UEAwwLdGVhbTI2Ni1uZXQwHhcNMjMxMTAzMjA0NDExWhcNMjYxMDE4
MjA0NDExWjAZMRcwFQYDVQQDDA50ZWFtMjY2LXNlcnZlcjCCASIwDQYJKoZIhvcN
AQEBBQADggEPADCCAQoCggEBALhPA25BbjR0sPgLYWe94vK2iBie1qryaUpw0ate
3pS7oX+agWAQtzNIzP7d4DghmTj9Sfwgmi1pZ6PUx+7vEPuchdRNEzmLppjncVqi
o+BGRm6Qg4PyFGbzkexRYUKkiAsjceSY3bv+NsQZfG4vEABTBA7jvduvlcp5a/sq
t6zU/sFX22ctirHtJenmWSL1trpeixXC7dckEiW6jolytpxMfvYO5wFCVh9+7ZT0
m4BFqaSdddTXZXj0rqwAIDjYpTCw77HCFBX7njTLcObYBS/FXMdSLnQ7nVKcppJu
UYEAv6lHwMPE2IcdIXd/Nt0PEURXdwF7W45pinwAuHeqh00CAwEAAaOBvTCBujAJ
BgNVHRMEAjAAMB0GA1UdDgQWBBSy944I+5ce3cdIEvfysWANNY/72jBRBgNVHSME
SjBIgBSosLf0O9m7x/Lgt4RZ/aQh5cGJn6EapBgwFjEUMBIGA1UEAwwLdGVhbTI2
Ni1uZXSCFAibkStbLeGwDWBq+fqd1XA6nsFVMBMGA1UdJQQMMAoGCCsGAQUFBwMB
MAsGA1UdDwQEAwIFoDAZBgNVHREEEjAQgg50ZWFtMjY2LXNlcnZlcjANBgkqhkiG
9w0BAQsFAAOCAQEAkYvxJ2gnH5QwlmYQvehgcpg7PiarbVy/wNqWZK6rCOTuzRsu
wDnbmh5+GqgEMx26cEJ1fb072/Pn5wnlWEFKNFZaUrEkEwB/dX8GVuovyHM5k0f0
FkD8TSI+yZ+7QVK+VJM5882wsDOdkwD7ejThq8jY2ra6c1RtL0SPCOaOmSz9EX0q
RjnAsrgGLOqrRxdP65R5EO1rQYExyFCHvtJhnjRyXyOf7HJDjkOL4GisXopKRiHN
UXTg/AGlj1kKugGGT9r0DpEozwLfMXkw/gRFPwEMj4jv+Su56x4UnKmH/sB4rNHl
TBEpd0vR6zwJjLGZu9DHOM48W18P4Tg254kTTQ==
-----END CERTIFICATE-----
