Certificate:
    Data:
        Version: 3 (0x2)
        Serial Number:
            ba:06:43:d6:53:60:2b:68:8f:20:12:74:4e:c4:26:3d
        Signature Algorithm: sha256WithRSAEncryption
        Issuer: CN=team297-net
        Validity
            Not Before: Nov  4 10:46:07 2023 GMT
            Not After : Oct 19 10:46:07 2026 GMT
        Subject: CN=team297-client
        Subject Public Key Info:
            Public Key Algorithm: rsaEncryption
                Public-Key: (2048 bit)
                Modulus:
                    00:d9:e9:3b:8f:38:9a:4b:40:7f:63:ad:1c:e8:70:
                    c9:e8:04:89:65:cf:be:c3:18:ea:21:1b:5a:2e:00:
                    89:d3:f4:49:9a:fc:c4:62:5b:8a:16:90:21:6b:8b:
                    70:73:88:5a:69:b1:f3:f9:9b:88:88:0d:e9:d6:10:
                    55:7d:15:25:89:4e:fc:20:13:b4:dc:7e:a3:0c:80:
                    74:e4:6b:fd:07:e5:43:51:2c:ab:e5:e2:7f:b4:5b:
                    fd:f1:8d:be:c5:eb:00:1a:29:d6:bd:e4:12:95:2f:
                    0d:1e:eb:4f:9b:5e:93:bb:b7:d4:00:20:62:02:49:
                    40:1b:4e:8f:ed:f9:c7:c2:ad:bb:71:db:ba:da:ab:
                    8f:23:39:bf:6d:b8:1e:d5:56:cd:60:20:7a:a4:45:
                    65:4c:66:69:93:ef:70:a9:ee:2a:5a:a6:44:f9:62:
                    c8:34:f1:25:b3:92:f5:60:c0:eb:b0:c1:48:27:91:
                    da:87:d5:9f:46:d3:26:9d:4c:b3:e6:da:88:65:5f:
                    d3:13:7a:19:80:0b:d9:1b:1e:0a:59:2a:dc:7b:23:
                    a4:ed:43:a9:af:3b:50:71:31:48:d2:5f:aa:cc:92:
                    d8:e4:72:21:b6:93:a9:f8:f4:4d:cc:b6:3d:4d:a9:
                    4c:74:85:a1:c2:d7:8e:64:8e:cd:bb:21:7a:5d:e7:
                    34:0f
                Exponent: 65537 (0x10001)
        X509v3 extensions:
            X509v3 Basic Constraints: 
                CA:FALSE
            X509v3 Subject Key Identifier: 
                18:0B:A4:31:F4:16:67:6A:D4:8F:7B:62:37:E8:FE:17:69:7F:B7:9C
            X509v3 Authority Key Identifier: 
                keyid:A9:FA:A5:03:36:51:13:27:71:11:51:5C:D1:ED:8D:54:31:AF:A5:6D
                DirName:/CN=team297-net
                serial:1D:F1:E9:60:18:33:39:86:92:5F:C1:6C:5E:1C:6E:5C:E4:24:7D:C9
            X509v3 Extended Key Usage: 
                TLS Web Client Authentication
            X509v3 Key Usage: 
                Digital Signature
    Signature Algorithm: sha256WithRSAEncryption
    Signature Value:
        5a:ec:ae:3b:91:90:82:27:f5:dd:d7:1e:cf:3d:67:98:45:8a:
        88:f6:a0:29:fe:7f:d4:eb:24:65:af:6c:83:76:8c:05:ae:ca:
        37:66:93:38:5e:c0:70:3a:54:ee:ec:87:f9:ac:ed:a0:a4:fd:
        e9:01:ec:9b:20:5a:ed:6f:d4:7c:75:66:4e:fb:82:4f:6c:36:
        20:1e:95:58:38:cd:cc:51:a7:4b:72:3e:1b:2a:a1:5b:61:48:
        d4:36:85:1a:41:09:2c:da:f2:6b:95:89:2d:5f:4e:03:4f:89:
        45:b4:03:4a:d7:f3:ec:76:72:08:32:19:ff:f8:02:74:47:c6:
        d3:c9:36:9b:61:51:0a:64:45:5e:4e:cd:16:01:c8:4d:4f:3c:
        02:fe:7e:06:fd:8d:76:e0:7b:96:4c:ea:4c:e7:40:87:39:08:
        2e:16:0b:77:f5:ec:e9:c3:55:bf:db:4b:3e:c9:aa:a1:96:2f:
        dc:0d:76:c1:21:7d:94:a4:42:bb:ef:00:a0:a6:09:89:37:c1:
        f2:74:c4:16:fa:34:54:db:c4:81:2b:68:39:17:a9:bb:16:e3:
        67:77:f3:c5:65:26:d8:60:c8:9f:d7:bd:b4:3d:ec:74:51:2c:
        54:ec:4d:87:05:b3:4b:2e:d1:9f:da:8f:b0:3f:5f:8f:93:d4:
        83:57:e9:82
-----BEGIN CERTIFICATE-----
MIIDXTCCAkWgAwIBAgIRALoGQ9ZTYCtojyASdE7EJj0wDQYJKoZIhvcNAQELBQAw
FjEUMBIGA1UEAwwLdGVhbTI5Ny1uZXQwHhcNMjMxMTA0MTA0NjA3WhcNMjYxMDE5
MTA0NjA3WjAZMRcwFQYDVQQDDA50ZWFtMjk3LWNsaWVudDCCASIwDQYJKoZIhvcN
AQEBBQADggEPADCCAQoCggEBANnpO484mktAf2OtHOhwyegEiWXPvsMY6iEbWi4A
idP0SZr8xGJbihaQIWuLcHOIWmmx8/mbiIgN6dYQVX0VJYlO/CATtNx+owyAdORr
/QflQ1Esq+Xif7Rb/fGNvsXrABop1r3kEpUvDR7rT5tek7u31AAgYgJJQBtOj+35
x8Ktu3HbutqrjyM5v224HtVWzWAgeqRFZUxmaZPvcKnuKlqmRPliyDTxJbOS9WDA
67DBSCeR2ofVn0bTJp1Ms+baiGVf0xN6GYAL2RseClkq3HsjpO1Dqa87UHExSNJf
qsyS2ORyIbaTqfj0Tcy2PU2pTHSFocLXjmSOzbshel3nNA8CAwEAAaOBojCBnzAJ
BgNVHRMEAjAAMB0GA1UdDgQWBBQYC6Qx9BZnatSPe2I36P4XaX+3nDBRBgNVHSME
SjBIgBSp+qUDNlETJ3ERUVzR7Y1UMa+lbaEapBgwFjEUMBIGA1UEAwwLdGVhbTI5
Ny1uZXSCFB3x6WAYMzmGkl/BbF4cblzkJH3JMBMGA1UdJQQMMAoGCCsGAQUFBwMC
MAsGA1UdDwQEAwIHgDANBgkqhkiG9w0BAQsFAAOCAQEAWuyuO5GQgif13dcezz1n
mEWKiPagKf5/1OskZa9sg3aMBa7KN2aTOF7AcDpU7uyH+aztoKT96QHsmyBa7W/U
fHVmTvuCT2w2IB6VWDjNzFGnS3I+GyqhW2FI1DaFGkEJLNrya5WJLV9OA0+JRbQD
Stfz7HZyCDIZ//gCdEfG08k2m2FRCmRFXk7NFgHITU88Av5+Bv2NduB7lkzqTOdA
hzkILhYLd/Xs6cNVv9tLPsmqoZYv3A12wSF9lKRCu+8AoKYJiTfB8nTEFvo0VNvE
gStoORepuxbjZ3fzxWUm2GDIn9e9tD3sdFEsVOxNhwWzSy7Rn9qPsD9fj5PUg1fp
gg==
-----END CERTIFICATE-----
