Certificate:
    Data:
        Version: 3 (0x2)
        Serial Number:
            df:82:af:29:06:50:e8:10:53:22:b2:2b:5c:25:dc:84
        Signature Algorithm: sha256WithRSAEncryption
        Issuer: CN=team297-net
        Validity
            Not Before: Nov  4 11:33:50 2023 GMT
            Not After : Oct 19 11:33:50 2026 GMT
        Subject: CN=team297-client
        Subject Public Key Info:
            Public Key Algorithm: rsaEncryption
                Public-Key: (2048 bit)
                Modulus:
                    00:9d:c2:24:a7:89:77:9d:4e:2d:0c:88:27:15:bd:
                    be:9b:a0:e8:56:30:53:56:07:b9:9a:b7:d1:8c:1f:
                    de:40:87:b8:67:21:e2:a8:07:7a:c1:77:62:ad:65:
                    8e:04:f8:cf:a8:7a:4e:30:3f:33:84:db:07:10:14:
                    11:db:ee:a8:4e:d9:df:6c:5b:9c:bf:2d:2b:33:3e:
                    3a:23:2a:bb:45:ab:36:90:5b:33:cd:81:0d:11:a8:
                    1f:1a:87:49:1a:b7:d4:3c:d2:f9:d2:22:8c:bd:f6:
                    25:73:b2:14:51:17:51:0f:28:06:a1:ee:7d:48:41:
                    99:35:88:b5:93:8b:8c:73:12:3d:f7:e8:99:90:0e:
                    d2:4b:13:aa:98:fb:d7:b1:5e:d8:b7:52:2b:5e:54:
                    57:06:d3:8d:1b:16:65:2d:b9:81:ad:43:cb:25:e7:
                    0a:a3:8d:95:fb:70:3d:67:86:0a:89:fd:be:b8:dc:
                    d8:b7:2c:1c:b8:bf:d5:d9:ba:44:eb:ce:c6:1e:bf:
                    90:8b:af:51:f7:42:f1:da:8e:99:f0:aa:a4:48:ee:
                    be:24:c7:d5:07:2d:74:12:df:fd:60:ed:4b:b2:df:
                    f3:a1:3a:a7:13:c3:8f:8f:74:b0:2f:d7:31:72:7c:
                    45:26:eb:88:21:72:95:21:1c:02:68:fa:e4:43:82:
                    42:59
                Exponent: 65537 (0x10001)
        X509v3 extensions:
            X509v3 Basic Constraints: 
                CA:FALSE
            X509v3 Subject Key Identifier: 
                C8:CA:28:0F:37:92:E6:E2:1A:04:85:A2:4B:A4:FA:4C:A1:AD:3E:F0
            X509v3 Authority Key Identifier: 
                keyid:53:0A:1C:4F:8D:B5:A8:D9:D8:DF:FB:A2:34:BD:5B:65:1D:05:41:E9
                DirName:/CN=team297-net
                serial:72:FD:01:DC:A9:B8:9D:F2:12:F6:FB:60:FD:47:ED:25:C8:5C:AF:25
            X509v3 Extended Key Usage: 
                TLS Web Client Authentication
            X509v3 Key Usage: 
                Digital Signature
    Signature Algorithm: sha256WithRSAEncryption
    Signature Value:
        98:f5:00:6f:35:45:66:ca:c9:c4:56:4f:77:46:ec:0e:f6:37:
        a1:95:a5:e7:d4:6e:d1:b8:be:d9:c6:91:99:c7:dd:a2:18:f5:
        3d:eb:e3:b5:eb:82:61:66:b1:75:f9:d4:5f:04:1f:2f:76:b4:
        7a:69:99:c4:b9:52:20:9a:96:3d:05:7d:f3:75:a6:ee:4e:7d:
        d0:f3:cd:4b:e0:40:f8:e1:bf:dd:0d:d9:5b:af:2e:03:38:eb:
        ff:6c:e6:9a:75:97:c3:cf:84:20:93:39:45:d6:60:d2:05:61:
        09:c2:d3:b1:b7:6c:d8:da:21:b1:1d:e4:3e:65:ab:ca:7e:e8:
        b8:59:7e:14:c4:31:75:c8:e3:c0:ab:5e:d3:18:46:16:b3:0a:
        a6:d6:e9:6f:95:2c:eb:0a:71:c4:cc:56:e7:d7:81:d4:36:68:
        de:88:ef:c6:fc:f5:01:d0:dc:f6:e2:45:a8:1c:26:cc:5a:33:
        f2:21:be:e2:f5:09:95:9a:3f:73:5f:24:08:aa:fd:ba:cf:27:
        78:61:d6:e5:dd:63:ca:8d:db:d2:c9:6b:3b:a1:32:10:97:b9:
        f0:d4:25:04:2b:c6:ab:67:b5:8e:85:27:08:66:67:37:b0:e0:
        50:3b:66:11:f1:3e:2e:0e:e2:61:e8:b5:a2:5a:30:a1:b9:cc:
        68:73:cf:da
-----BEGIN CERTIFICATE-----
MIIDXTCCAkWgAwIBAgIRAN+CrykGUOgQUyKyK1wl3IQwDQYJKoZIhvcNAQELBQAw
FjEUMBIGA1UEAwwLdGVhbTI5Ny1uZXQwHhcNMjMxMTA0MTEzMzUwWhcNMjYxMDE5
MTEzMzUwWjAZMRcwFQYDVQQDDA50ZWFtMjk3LWNsaWVudDCCASIwDQYJKoZIhvcN
AQEBBQADggEPADCCAQoCggEBAJ3CJKeJd51OLQyIJxW9vpug6FYwU1YHuZq30Ywf
3kCHuGch4qgHesF3Yq1ljgT4z6h6TjA/M4TbBxAUEdvuqE7Z32xbnL8tKzM+OiMq
u0WrNpBbM82BDRGoHxqHSRq31DzS+dIijL32JXOyFFEXUQ8oBqHufUhBmTWItZOL
jHMSPffomZAO0ksTqpj717Fe2LdSK15UVwbTjRsWZS25ga1DyyXnCqONlftwPWeG
Con9vrjc2LcsHLi/1dm6ROvOxh6/kIuvUfdC8dqOmfCqpEjuviTH1QctdBLf/WDt
S7Lf86E6pxPDj490sC/XMXJ8RSbriCFylSEcAmj65EOCQlkCAwEAAaOBojCBnzAJ
BgNVHRMEAjAAMB0GA1UdDgQWBBTIyigPN5Lm4hoEhaJLpPpMoa0+8DBRBgNVHSME
SjBIgBRTChxPjbWo2djf+6I0vVtlHQVB6aEapBgwFjEUMBIGA1UEAwwLdGVhbTI5
Ny1uZXSCFHL9AdypuJ3yEvb7YP1H7SXIXK8lMBMGA1UdJQQMMAoGCCsGAQUFBwMC
MAsGA1UdDwQEAwIHgDANBgkqhkiG9w0BAQsFAAOCAQEAmPUAbzVFZsrJxFZPd0bs
DvY3oZWl59Ru0bi+2caRmcfdohj1PevjteuCYWaxdfnUXwQfL3a0emmZxLlSIJqW
PQV983Wm7k590PPNS+BA+OG/3Q3ZW68uAzjr/2zmmnWXw8+EIJM5RdZg0gVhCcLT
sbds2NohsR3kPmWryn7ouFl+FMQxdcjjwKte0xhGFrMKptbpb5Us6wpxxMxW59eB
1DZo3ojvxvz1AdDc9uJFqBwmzFoz8iG+4vUJlZo/c18kCKr9us8neGHW5d1jyo3b
0slrO6EyEJe58NQlBCvGq2e1joUnCGZnN7DgUDtmEfE+Lg7iYei1olowobnMaHPP
2g==
-----END CERTIFICATE-----
