Certificate:
    Data:
        Version: 3 (0x2)
        Serial Number:
            e0:49:65:8b:b7:1c:02:a1:bc:bf:2a:60:cc:25:d4:0e
        Signature Algorithm: sha256WithRSAEncryption
        Issuer: CN=team297-net
        Validity
            Not Before: Nov  4 11:33:50 2023 GMT
            Not After : Oct 19 11:33:50 2026 GMT
        Subject: CN=team297-server
        Subject Public Key Info:
            Public Key Algorithm: rsaEncryption
                Public-Key: (2048 bit)
                Modulus:
                    00:dc:41:b0:aa:8f:68:0d:37:7e:4e:89:6c:00:a5:
                    9b:ac:94:48:14:a4:92:1c:cd:4f:93:65:6d:d6:9d:
                    78:77:5c:02:f6:6a:7f:67:66:66:10:dd:e2:9c:6b:
                    12:f5:3b:6a:5a:7b:8e:c1:56:5c:4e:a0:36:3a:f8:
                    e7:c3:88:73:4a:81:ef:4d:af:c5:b3:75:2b:44:3f:
                    5a:d4:36:3e:64:50:37:4a:d1:df:02:7d:6d:7d:cb:
                    96:6a:e4:ca:fe:de:d8:6e:af:c1:84:2c:dd:b4:5c:
                    83:df:e7:7e:3b:23:61:9f:05:9c:da:58:dc:98:91:
                    75:ee:0f:10:3c:0b:a8:aa:81:5f:e6:a8:5b:31:0b:
                    35:f9:29:64:79:97:8f:05:e8:78:0b:38:02:ac:ea:
                    ca:5e:70:90:4e:45:37:84:a9:7f:4e:fa:f4:4d:ff:
                    17:22:6a:fa:0b:f0:e0:c8:2d:67:9b:c2:56:85:9e:
                    bd:3d:25:58:bc:44:ad:a3:ef:fa:84:0a:5d:d6:ac:
                    93:ab:b2:10:af:e5:23:67:a8:4d:b4:ba:b0:35:ec:
                    1d:3e:57:a8:c5:d8:70:c6:18:e6:37:db:6a:77:f7:
                    b8:49:64:20:19:74:1b:17:df:a8:54:bb:f9:a7:af:
                    3a:d5:c7:2a:43:a9:d5:40:93:a7:a3:97:cd:50:5f:
                    3e:35
                Exponent: 65537 (0x10001)
        X509v3 extensions:
            X509v3 Basic Constraints: 
                CA:FALSE
            X509v3 Subject Key Identifier: 
                B9:76:AE:24:CC:FB:9C:B5:10:D1:58:27:9B:5C:75:80:54:DE:B0:8D
            X509v3 Authority Key Identifier: 
                keyid:53:0A:1C:4F:8D:B5:A8:D9:D8:DF:FB:A2:34:BD:5B:65:1D:05:41:E9
                DirName:/CN=team297-net
                serial:72:FD:01:DC:A9:B8:9D:F2:12:F6:FB:60:FD:47:ED:25:C8:5C:AF:25
            X509v3 Extended Key Usage: 
                TLS Web Server Authentication
            X509v3 Key Usage: 
                Digital Signature, Key Encipherment
            X509v3 Subject Alternative Name: 
                DNS:team297-server
    Signature Algorithm: sha256WithRSAEncryption
    Signature Value:
        08:6a:01:51:25:a8:33:bd:54:03:06:2c:f3:6f:8a:74:1e:9e:
        70:0d:af:ae:53:cb:ca:c0:31:ea:00:c9:8d:e2:ac:bd:03:43:
        08:9a:f0:bb:17:a1:f4:44:76:53:7a:42:80:71:01:a2:2f:e5:
        c4:bc:35:92:c4:a7:a2:33:6d:c7:26:4e:a4:ae:24:5c:cd:aa:
        dc:42:7f:5a:e0:76:7c:ab:b4:40:fd:87:1c:06:67:85:29:b2:
        e8:33:18:ec:33:6c:c0:9f:68:06:08:d1:3e:1f:75:c5:15:92:
        61:79:8e:e9:a6:88:7b:30:65:cf:60:47:f7:94:a6:9c:a8:df:
        78:81:e0:80:f5:62:63:bd:c5:cc:7e:1b:f5:72:36:fc:4a:2f:
        64:a0:b8:df:f3:26:40:23:96:aa:fd:d8:65:7f:46:04:6d:4f:
        38:c3:f0:34:34:84:7b:bc:19:bc:67:94:99:2d:2b:ad:81:6d:
        23:14:b1:21:24:45:e2:86:fb:db:cc:88:2a:ea:bb:17:eb:2a:
        4f:10:16:04:f0:89:77:70:de:88:13:e9:43:2a:1a:9b:ba:d5:
        8f:36:6c:b2:c7:9f:ab:65:6a:cc:23:c6:6d:70:fa:95:c9:2b:
        33:2e:6e:f5:2b:7d:a3:33:77:85:b7:6d:99:f9:13:0f:50:62:
        08:fc:3f:ab
-----BEGIN CERTIFICATE-----
MIIDeDCCAmCgAwIBAgIRAOBJZYu3HAKhvL8qYMwl1A4wDQYJKoZIhvcNAQELBQAw
FjEUMBIGA1UEAwwLdGVhbTI5Ny1uZXQwHhcNMjMxMTA0MTEzMzUwWhcNMjYxMDE5
MTEzMzUwWjAZMRcwFQYDVQQDDA50ZWFtMjk3LXNlcnZlcjCCASIwDQYJKoZIhvcN
AQEBBQADggEPADCCAQoCggEBANxBsKqPaA03fk6JbAClm6yUSBSkkhzNT5Nlbdad
eHdcAvZqf2dmZhDd4pxrEvU7alp7jsFWXE6gNjr458OIc0qB702vxbN1K0Q/WtQ2
PmRQN0rR3wJ9bX3Llmrkyv7e2G6vwYQs3bRcg9/nfjsjYZ8FnNpY3JiRde4PEDwL
qKqBX+aoWzELNfkpZHmXjwXoeAs4Aqzqyl5wkE5FN4Spf0769E3/FyJq+gvw4Mgt
Z5vCVoWevT0lWLxEraPv+oQKXdask6uyEK/lI2eoTbS6sDXsHT5XqMXYcMYY5jfb
anf3uElkIBl0GxffqFS7+aevOtXHKkOp1UCTp6OXzVBfPjUCAwEAAaOBvTCBujAJ
BgNVHRMEAjAAMB0GA1UdDgQWBBS5dq4kzPuctRDRWCebXHWAVN6wjTBRBgNVHSME
SjBIgBRTChxPjbWo2djf+6I0vVtlHQVB6aEapBgwFjEUMBIGA1UEAwwLdGVhbTI5
Ny1uZXSCFHL9AdypuJ3yEvb7YP1H7SXIXK8lMBMGA1UdJQQMMAoGCCsGAQUFBwMB
MAsGA1UdDwQEAwIFoDAZBgNVHREEEjAQgg50ZWFtMjk3LXNlcnZlcjANBgkqhkiG
9w0BAQsFAAOCAQEACGoBUSWoM71UAwYs82+KdB6ecA2vrlPLysAx6gDJjeKsvQND
CJrwuxeh9ER2U3pCgHEBoi/lxLw1ksSnojNtxyZOpK4kXM2q3EJ/WuB2fKu0QP2H
HAZnhSmy6DMY7DNswJ9oBgjRPh91xRWSYXmO6aaIezBlz2BH95SmnKjfeIHggPVi
Y73FzH4b9XI2/EovZKC43/MmQCOWqv3YZX9GBG1POMPwNDSEe7wZvGeUmS0rrYFt
IxSxISRF4ob728yIKuq7F+sqTxAWBPCJd3DeiBPpQyoam7rVjzZsssefq2VqzCPG
bXD6lckrMy5u9St9ozN3hbdtmfkTD1BiCPw/qw==
-----END CERTIFICATE-----
