Certificate:
    Data:
        Version: 3 (0x2)
        Serial Number:
            eb:68:49:4c:4b:1f:5f:c1:03:8f:c5:89:5c:4a:bb:3c
        Signature Algorithm: sha256WithRSAEncryption
        Issuer: CN=team297-net
        Validity
            Not Before: Nov  4 10:46:07 2023 GMT
            Not After : Oct 19 10:46:07 2026 GMT
        Subject: CN=team297-server
        Subject Public Key Info:
            Public Key Algorithm: rsaEncryption
                Public-Key: (2048 bit)
                Modulus:
                    00:a1:69:76:d0:98:70:ed:1c:ad:d0:5c:e6:f4:6e:
                    35:40:74:f8:6d:57:fa:60:85:63:93:c8:bb:bd:ab:
                    a0:1d:ea:e4:06:37:69:2a:42:e2:0d:0c:1e:18:62:
                    25:24:56:37:21:4f:13:63:60:f6:44:f2:86:d8:4e:
                    a7:7b:c8:a3:38:07:ee:01:ea:b9:71:d8:c1:32:bd:
                    8f:84:81:45:d9:ee:0d:ff:33:cb:dd:46:1e:0a:e6:
                    37:63:c8:47:87:56:aa:b2:61:66:af:f0:c1:51:f9:
                    0e:ae:8d:dd:09:9c:c6:5f:c5:3e:31:be:ae:b5:4d:
                    04:46:12:fe:1c:6e:6c:69:62:1e:fc:b9:44:92:27:
                    41:60:cd:21:51:51:6b:90:e1:6d:04:9f:b8:99:b7:
                    b9:12:0f:73:c9:f1:93:f5:4a:f3:2f:89:6c:41:9d:
                    33:b3:fa:ae:64:76:b1:89:b8:f7:b0:1b:32:76:08:
                    4f:e2:e5:94:ee:c5:56:17:11:12:b9:c6:35:6b:17:
                    11:39:62:cc:11:fd:80:bc:f6:04:83:00:72:8f:5f:
                    2d:48:a7:96:8b:bd:67:b9:95:fb:c7:c9:e4:41:86:
                    b0:44:de:bb:2d:e0:cc:a4:9f:57:0c:d1:15:d7:0b:
                    12:c3:d0:ae:33:d3:7a:cb:bf:49:20:a7:5b:30:1d:
                    14:27
                Exponent: 65537 (0x10001)
        X509v3 extensions:
            X509v3 Basic Constraints: 
                CA:FALSE
            X509v3 Subject Key Identifier: 
                9A:EA:F0:6A:D9:D2:6B:A7:B7:33:A2:45:89:09:1B:60:F4:AF:65:9D
            X509v3 Authority Key Identifier: 
                keyid:A9:FA:A5:03:36:51:13:27:71:11:51:5C:D1:ED:8D:54:31:AF:A5:6D
                DirName:/CN=team297-net
                serial:1D:F1:E9:60:18:33:39:86:92:5F:C1:6C:5E:1C:6E:5C:E4:24:7D:C9
            X509v3 Extended Key Usage: 
                TLS Web Server Authentication
            X509v3 Key Usage: 
                Digital Signature, Key Encipherment
            X509v3 Subject Alternative Name: 
                DNS:team297-server
    Signature Algorithm: sha256WithRSAEncryption
    Signature Value:
        b2:0c:8e:5a:b6:01:e3:4a:26:be:a2:2a:9d:65:d0:25:80:f7:
        bc:af:f5:f2:41:60:cf:ed:56:23:5b:2c:00:e5:44:66:b4:25:
        61:bd:46:48:51:ec:0f:a5:66:dd:f2:7c:4b:bd:59:b4:11:c2:
        4b:85:f9:78:51:f2:c2:a2:81:16:a4:fa:75:51:43:6e:32:e2:
        d9:eb:c6:27:1e:cf:91:20:1d:e1:83:e6:2e:85:51:66:40:a8:
        40:f8:40:ad:b6:a8:c3:31:95:a3:93:58:74:8d:b3:f0:1d:45:
        2e:db:63:88:91:f5:4a:db:12:13:28:6d:ee:9a:53:e6:ba:bf:
        78:4b:d1:e8:f8:32:60:a6:71:08:ba:c8:75:46:3c:0f:c0:80:
        aa:1f:d4:01:07:55:3e:ad:22:79:dc:c1:d7:73:5b:05:a0:ce:
        b8:e6:92:d4:56:9c:c3:cb:88:f9:d6:53:f0:c7:29:b8:95:f0:
        07:b7:75:75:ed:ef:08:b7:bf:b5:81:dc:bd:b2:ce:5f:77:8c:
        e7:66:83:df:90:96:ae:8f:e3:33:1d:ab:89:3d:40:6f:b3:65:
        2a:fe:2a:86:23:62:da:b1:c5:4f:43:de:4a:13:cf:1c:8c:c5:
        8e:c1:99:41:9a:39:14:30:9c:be:9d:b3:42:3b:d5:e8:43:01:
        b0:2e:e8:f8
-----BEGIN CERTIFICATE-----
MIIDeDCCAmCgAwIBAgIRAOtoSUxLH1/BA4/FiVxKuzwwDQYJKoZIhvcNAQELBQAw
FjEUMBIGA1UEAwwLdGVhbTI5Ny1uZXQwHhcNMjMxMTA0MTA0NjA3WhcNMjYxMDE5
MTA0NjA3WjAZMRcwFQYDVQQDDA50ZWFtMjk3LXNlcnZlcjCCASIwDQYJKoZIhvcN
AQEBBQADggEPADCCAQoCggEBAKFpdtCYcO0crdBc5vRuNUB0+G1X+mCFY5PIu72r
oB3q5AY3aSpC4g0MHhhiJSRWNyFPE2Ng9kTyhthOp3vIozgH7gHquXHYwTK9j4SB
RdnuDf8zy91GHgrmN2PIR4dWqrJhZq/wwVH5Dq6N3Qmcxl/FPjG+rrVNBEYS/hxu
bGliHvy5RJInQWDNIVFRa5DhbQSfuJm3uRIPc8nxk/VK8y+JbEGdM7P6rmR2sYm4
97AbMnYIT+LllO7FVhcRErnGNWsXETlizBH9gLz2BIMAco9fLUinlou9Z7mV+8fJ
5EGGsETeuy3gzKSfVwzRFdcLEsPQrjPTesu/SSCnWzAdFCcCAwEAAaOBvTCBujAJ
BgNVHRMEAjAAMB0GA1UdDgQWBBSa6vBq2dJrp7czokWJCRtg9K9lnTBRBgNVHSME
SjBIgBSp+qUDNlETJ3ERUVzR7Y1UMa+lbaEapBgwFjEUMBIGA1UEAwwLdGVhbTI5
Ny1uZXSCFB3x6WAYMzmGkl/BbF4cblzkJH3JMBMGA1UdJQQMMAoGCCsGAQUFBwMB
MAsGA1UdDwQEAwIFoDAZBgNVHREEEjAQgg50ZWFtMjk3LXNlcnZlcjANBgkqhkiG
9w0BAQsFAAOCAQEAsgyOWrYB40omvqIqnWXQJYD3vK/18kFgz+1WI1ssAOVEZrQl
Yb1GSFHsD6Vm3fJ8S71ZtBHCS4X5eFHywqKBFqT6dVFDbjLi2evGJx7PkSAd4YPm
LoVRZkCoQPhArbaowzGVo5NYdI2z8B1FLttjiJH1StsSEyht7ppT5rq/eEvR6Pgy
YKZxCLrIdUY8D8CAqh/UAQdVPq0iedzB13NbBaDOuOaS1Facw8uI+dZT8McpuJXw
B7d1de3vCLe/tYHcvbLOX3eM52aD35CWro/jMx2riT1Ab7NlKv4qhiNi2rHFT0Pe
ShPPHIzFjsGZQZo5FDCcvp2zQjvV6EMBsC7o+A==
-----END CERTIFICATE-----
