Certificate:
    Data:
        Version: 3 (0x2)
        Serial Number:
            33:d6:9e:c1:a1:41:bc:60:27:ee:e9:95:85:39:09:5b
        Signature Algorithm: sha256WithRSAEncryption
        Issuer: CN=team308-net
        Validity
            Not Before: Nov  3 20:44:52 2023 GMT
            Not After : Oct 18 20:44:52 2026 GMT
        Subject: CN=team308-server
        Subject Public Key Info:
            Public Key Algorithm: rsaEncryption
                Public-Key: (2048 bit)
                Modulus:
                    00:87:d1:f8:be:9d:cf:37:69:9a:aa:72:43:99:2b:
                    ae:f6:fb:b2:29:9c:c8:aa:aa:c3:71:f1:5a:34:86:
                    a8:22:ee:50:eb:fa:57:42:56:aa:00:76:1b:b4:c5:
                    c7:a4:0f:88:85:48:a5:15:9e:c0:24:76:ef:3c:62:
                    6d:0c:cc:cc:98:61:5b:c4:0c:4f:df:b3:f2:e3:0b:
                    e6:d1:7d:1e:b7:fd:d7:4d:d0:ac:1d:45:72:e9:74:
                    52:ab:82:c0:d6:5b:dd:6f:04:75:c6:45:4a:80:ad:
                    07:da:16:ca:00:8d:60:6f:f6:31:81:67:62:20:79:
                    d1:0c:8b:ed:41:db:be:4f:47:cc:06:32:9d:bb:54:
                    48:01:5c:90:df:3c:0b:76:65:6e:57:ba:66:7b:35:
                    93:32:9e:06:c0:00:03:45:48:be:ae:50:37:62:77:
                    0a:63:03:f3:d7:ee:72:3d:cd:bf:e0:25:62:c5:70:
                    14:97:9b:7b:d0:72:14:36:ff:30:55:a7:7a:1b:7b:
                    1a:c3:eb:0a:e3:e3:c5:98:00:e2:4e:ac:33:93:b0:
                    21:c5:20:05:bb:7e:80:63:67:22:a8:f4:41:36:41:
                    44:61:99:31:ad:74:ca:ac:55:16:25:59:78:4d:2a:
                    ef:2e:75:2d:27:c5:d7:cc:09:a8:d5:ec:05:46:21:
                    8f:f3
                Exponent: 65537 (0x10001)
        X509v3 extensions:
            X509v3 Basic Constraints: 
                CA:FALSE
            X509v3 Subject Key Identifier: 
                88:08:92:66:48:1D:20:0A:AE:DC:1C:FA:35:43:39:DA:97:63:73:EA
            X509v3 Authority Key Identifier: 
                keyid:BE:E2:17:9B:D8:63:2F:14:DE:F8:3F:76:D9:79:8F:DB:F2:3C:88:90
                DirName:/CN=team308-net
                serial:47:49:BF:F8:54:D7:5A:EE:96:E8:1E:19:95:3E:C4:C2:EE:1A:FA:BA
            X509v3 Extended Key Usage: 
                TLS Web Server Authentication
            X509v3 Key Usage: 
                Digital Signature, Key Encipherment
            X509v3 Subject Alternative Name: 
                DNS:team308-server
    Signature Algorithm: sha256WithRSAEncryption
    Signature Value:
        7d:45:7d:bf:59:14:42:1e:96:cc:41:6d:86:2e:e0:8d:0a:8a:
        8c:ce:6b:4d:8b:bc:fb:82:ed:5c:df:f8:f2:19:db:0b:a0:dc:
        80:79:82:6e:76:86:ca:d8:86:e0:50:7e:a6:04:70:18:04:40:
        46:e9:94:db:2d:d8:8d:83:2b:c0:3a:57:0a:9e:d4:7d:bc:d4:
        9c:8e:cf:10:90:b8:6e:31:0b:e1:f9:4d:1c:e4:7f:82:cd:fc:
        c3:f9:c9:dc:5f:71:71:55:c6:c6:67:21:f0:bd:b2:81:b7:ca:
        56:e9:7d:27:4c:e8:13:72:85:a5:f9:ad:99:46:eb:90:c9:32:
        09:09:51:7e:bf:57:5a:d2:71:07:03:52:54:d5:96:8e:c1:39:
        ff:b5:8a:4e:81:4a:89:92:43:02:44:b3:44:be:72:bd:4f:5d:
        c1:72:67:3a:9f:42:4a:d5:79:f8:91:97:1b:8e:54:85:96:1e:
        2f:45:61:dc:38:f9:a6:8c:6b:37:71:c4:71:94:96:7b:0b:26:
        cb:d2:ed:5a:2a:4e:b9:1b:cb:7a:d1:0c:aa:30:ed:2e:39:23:
        9f:c9:4e:72:e9:15:41:6d:c6:ee:db:52:0d:42:2a:8f:0d:d9:
        7b:46:21:c7:2e:42:2d:5b:9c:7c:0e:96:b4:46:dd:5e:64:b8:
        90:13:79:2e
-----BEGIN CERTIFICATE-----
MIIDdzCCAl+gAwIBAgIQM9aewaFBvGAn7umVhTkJWzANBgkqhkiG9w0BAQsFADAW
MRQwEgYDVQQDDAt0ZWFtMzA4LW5ldDAeFw0yMzExMDMyMDQ0NTJaFw0yNjEwMTgy
MDQ0NTJaMBkxFzAVBgNVBAMMDnRlYW0zMDgtc2VydmVyMIIBIjANBgkqhkiG9w0B
AQEFAAOCAQ8AMIIBCgKCAQEAh9H4vp3PN2maqnJDmSuu9vuyKZzIqqrDcfFaNIao
Iu5Q6/pXQlaqAHYbtMXHpA+IhUilFZ7AJHbvPGJtDMzMmGFbxAxP37Py4wvm0X0e
t/3XTdCsHUVy6XRSq4LA1lvdbwR1xkVKgK0H2hbKAI1gb/YxgWdiIHnRDIvtQdu+
T0fMBjKdu1RIAVyQ3zwLdmVuV7pmezWTMp4GwAADRUi+rlA3YncKYwPz1+5yPc2/
4CVixXAUl5t70HIUNv8wVad6G3saw+sK4+PFmADiTqwzk7AhxSAFu36AY2ciqPRB
NkFEYZkxrXTKrFUWJVl4TSrvLnUtJ8XXzAmo1ewFRiGP8wIDAQABo4G9MIG6MAkG
A1UdEwQCMAAwHQYDVR0OBBYEFIgIkmZIHSAKrtwc+jVDOdqXY3PqMFEGA1UdIwRK
MEiAFL7iF5vYYy8U3vg/dtl5j9vyPIiQoRqkGDAWMRQwEgYDVQQDDAt0ZWFtMzA4
LW5ldIIUR0m/+FTXWu6W6B4ZlT7Ewu4a+rowEwYDVR0lBAwwCgYIKwYBBQUHAwEw
CwYDVR0PBAQDAgWgMBkGA1UdEQQSMBCCDnRlYW0zMDgtc2VydmVyMA0GCSqGSIb3
DQEBCwUAA4IBAQB9RX2/WRRCHpbMQW2GLuCNCoqMzmtNi7z7gu1c3/jyGdsLoNyA
eYJudobK2IbgUH6mBHAYBEBG6ZTbLdiNgyvAOlcKntR9vNScjs8QkLhuMQvh+U0c
5H+CzfzD+cncX3FxVcbGZyHwvbKBt8pW6X0nTOgTcoWl+a2ZRuuQyTIJCVF+v1da
0nEHA1JU1ZaOwTn/tYpOgUqJkkMCRLNEvnK9T13Bcmc6n0JK1Xn4kZcbjlSFlh4v
RWHcOPmmjGs3ccRxlJZ7CybL0u1aKk65G8t60QyqMO0uOSOfyU5y6RVBbcbu21IN
QiqPDdl7RiHHLkItW5x8Dpa0Rt1eZLiQE3ku
-----END CERTIFICATE-----
