Certificate:
    Data:
        Version: 3 (0x2)
        Serial Number:
            4b:00:c0:a6:fc:84:40:cf:96:ab:b2:bc:7b:96:88:03
        Signature Algorithm: sha256WithRSAEncryption
        Issuer: CN=team308-net
        Validity
            Not Before: Nov  4 10:46:16 2023 GMT
            Not After : Oct 19 10:46:16 2026 GMT
        Subject: CN=team308-client
        Subject Public Key Info:
            Public Key Algorithm: rsaEncryption
                Public-Key: (2048 bit)
                Modulus:
                    00:c5:71:2a:de:2f:35:94:f7:45:90:fa:2e:1b:b5:
                    c4:df:24:7f:81:d3:30:98:0d:88:f8:78:1e:9b:79:
                    fd:cf:31:9d:e0:1c:14:44:43:28:11:88:18:73:88:
                    7d:e8:24:de:f0:14:ce:0a:cd:2a:bb:c2:c1:12:aa:
                    2f:85:ca:5a:4f:b7:db:a3:ab:4b:86:a2:0d:60:2f:
                    61:9b:9c:40:dd:05:6a:32:c0:8d:24:00:61:b7:35:
                    73:58:38:30:32:35:ab:9c:a9:55:26:fe:07:0e:95:
                    ba:11:7f:f2:2c:26:cb:de:cf:63:b6:c1:88:cd:fc:
                    f9:6f:b7:38:11:50:a5:9f:35:9d:aa:57:10:c2:b2:
                    5c:96:d3:1d:5c:59:18:ca:1e:4d:81:e0:e4:cc:33:
                    07:9d:41:0c:f6:bc:ca:7f:a9:69:f6:07:a3:e9:1b:
                    a0:8a:45:84:a4:9e:e9:9e:3e:e3:84:e2:91:ee:13:
                    ea:14:c0:68:1a:77:40:bf:49:3d:18:a3:0e:47:42:
                    50:86:77:a1:c5:b8:2e:22:72:38:cb:01:a4:1b:43:
                    3b:e1:5a:fe:c0:eb:10:af:2b:aa:e2:de:85:72:c1:
                    fc:82:ab:04:f3:a9:c0:fa:73:11:32:11:8a:a3:e3:
                    ed:1e:c1:5b:7b:37:ab:d9:70:44:f0:4e:77:a8:88:
                    8c:b5
                Exponent: 65537 (0x10001)
        X509v3 extensions:
            X509v3 Basic Constraints: 
                CA:FALSE
            X509v3 Subject Key Identifier: 
                D5:14:27:0D:5B:8B:7A:57:52:36:93:10:0E:CE:27:CD:E2:BB:BC:B3
            X509v3 Authority Key Identifier: 
                keyid:25:F6:E9:8D:6E:E3:B6:74:1D:58:E1:45:97:80:38:1F:3B:D6:0C:79
                DirName:/CN=team308-net
                serial:5B:EF:5C:C5:FF:3E:33:68:67:FD:69:F7:FE:97:70:78:CF:3A:5A:61
            X509v3 Extended Key Usage: 
                TLS Web Client Authentication
            X509v3 Key Usage: 
                Digital Signature
    Signature Algorithm: sha256WithRSAEncryption
    Signature Value:
        0b:18:68:c9:f1:5a:d6:48:c4:ef:73:c1:20:11:3a:d3:95:dd:
        24:15:16:8b:fd:70:5a:dd:75:73:1a:d3:bc:53:fe:9e:ba:dd:
        7f:0a:35:dd:5e:ec:62:fb:c9:88:ef:3b:b7:05:d4:82:ab:f6:
        43:e9:1c:6e:fb:3f:6b:5e:22:91:f9:37:1e:42:6b:3d:13:3b:
        48:d7:e4:76:88:77:00:50:cb:27:49:59:78:ac:d7:77:2a:fd:
        66:64:bb:50:2a:87:0d:d4:d5:6e:0a:43:48:0a:7f:9b:03:3d:
        c3:17:9d:46:a4:a8:6a:0e:63:c5:36:45:73:a1:7a:ca:5f:39:
        e2:db:86:af:84:3a:67:03:0a:a2:f6:ee:4d:16:8c:48:cc:e5:
        55:55:fc:12:72:fe:5e:0b:ab:8c:73:fd:fd:ea:de:59:b9:52:
        fb:66:db:78:b5:ef:ff:a8:90:8d:57:0a:96:6a:15:6d:11:b5:
        b4:33:da:ac:da:90:66:7f:4e:b7:0b:da:88:20:79:8d:80:ba:
        9b:ad:b9:36:4c:c5:82:70:15:e3:0f:5e:2b:7f:48:c5:b8:95:
        f7:02:6f:a3:5a:11:fb:70:f3:1a:a6:04:af:2b:a6:6b:1c:1e:
        25:6d:5c:d3:2c:9f:38:ac:94:d6:b3:43:67:41:0f:0d:d1:8a:
        99:87:80:f7
-----BEGIN CERTIFICATE-----
MIIDXDCCAkSgAwIBAgIQSwDApvyEQM+Wq7K8e5aIAzANBgkqhkiG9w0BAQsFADAW
MRQwEgYDVQQDDAt0ZWFtMzA4LW5ldDAeFw0yMzExMDQxMDQ2MTZaFw0yNjEwMTkx
MDQ2MTZaMBkxFzAVBgNVBAMMDnRlYW0zMDgtY2xpZW50MIIBIjANBgkqhkiG9w0B
AQEFAAOCAQ8AMIIBCgKCAQEAxXEq3i81lPdFkPouG7XE3yR/gdMwmA2I+Hgem3n9
zzGd4BwUREMoEYgYc4h96CTe8BTOCs0qu8LBEqovhcpaT7fbo6tLhqINYC9hm5xA
3QVqMsCNJABhtzVzWDgwMjWrnKlVJv4HDpW6EX/yLCbL3s9jtsGIzfz5b7c4EVCl
nzWdqlcQwrJcltMdXFkYyh5NgeDkzDMHnUEM9rzKf6lp9gej6RugikWEpJ7pnj7j
hOKR7hPqFMBoGndAv0k9GKMOR0JQhnehxbguInI4ywGkG0M74Vr+wOsQryuq4t6F
csH8gqsE86nA+nMRMhGKo+PtHsFbezer2XBE8E53qIiMtQIDAQABo4GiMIGfMAkG
A1UdEwQCMAAwHQYDVR0OBBYEFNUUJw1bi3pXUjaTEA7OJ83iu7yzMFEGA1UdIwRK
MEiAFCX26Y1u47Z0HVjhRZeAOB871gx5oRqkGDAWMRQwEgYDVQQDDAt0ZWFtMzA4
LW5ldIIUW+9cxf8+M2hn/Wn3/pdweM86WmEwEwYDVR0lBAwwCgYIKwYBBQUHAwIw
CwYDVR0PBAQDAgeAMA0GCSqGSIb3DQEBCwUAA4IBAQALGGjJ8VrWSMTvc8EgETrT
ld0kFRaL/XBa3XVzGtO8U/6eut1/CjXdXuxi+8mI7zu3BdSCq/ZD6Rxu+z9rXiKR
+TceQms9EztI1+R2iHcAUMsnSVl4rNd3Kv1mZLtQKocN1NVuCkNICn+bAz3DF51G
pKhqDmPFNkVzoXrKXzni24avhDpnAwqi9u5NFoxIzOVVVfwScv5eC6uMc/396t5Z
uVL7Ztt4te//qJCNVwqWahVtEbW0M9qs2pBmf063C9qIIHmNgLqbrbk2TMWCcBXj
D14rf0jFuJX3Am+jWhH7cPMapgSvK6ZrHB4lbVzTLJ84rJTWs0NnQQ8N0YqZh4D3
-----END CERTIFICATE-----
