Certificate:
    Data:
        Version: 3 (0x2)
        Serial Number:
            70:7c:d0:9a:67:86:f3:1e:9e:e9:07:11:6b:db:06:62
        Signature Algorithm: sha256WithRSAEncryption
        Issuer: CN=team308-net
        Validity
            Not Before: Nov  4 11:34:10 2023 GMT
            Not After : Oct 19 11:34:10 2026 GMT
        Subject: CN=team308-server
        Subject Public Key Info:
            Public Key Algorithm: rsaEncryption
                Public-Key: (2048 bit)
                Modulus:
                    00:9e:e7:49:3c:f9:53:d6:c0:43:a6:e2:ed:cf:9a:
                    61:f9:42:56:c0:5d:21:32:97:de:29:42:15:34:ca:
                    45:19:7b:79:31:19:b6:ae:8c:c1:c1:73:c1:ad:eb:
                    e4:3f:b0:1d:c5:23:c6:3c:9a:7f:5d:96:8d:31:1b:
                    be:94:aa:9d:3e:40:ec:91:fd:12:41:c8:9e:0d:26:
                    1f:4e:65:44:23:ba:fc:d1:b0:43:9c:86:72:68:27:
                    1b:e8:6e:0a:c9:8d:8e:2f:99:64:96:ff:b6:94:b5:
                    1b:ef:24:b3:69:42:a5:62:25:bb:9c:52:61:87:6a:
                    f2:bf:2e:5e:0d:24:a4:97:11:ed:5d:ed:cb:ed:0a:
                    08:45:92:53:8e:16:69:57:ee:99:0e:4a:4b:2c:29:
                    6f:14:13:fe:86:98:91:f4:22:a0:fe:66:8e:75:39:
                    2f:f6:a1:fe:bc:c7:9f:68:8f:22:d3:d2:fb:8a:17:
                    3f:0c:a8:b0:bc:44:db:8a:cb:11:23:33:24:9a:6a:
                    1d:35:dc:e9:72:25:30:aa:d0:36:8c:eb:c6:6b:ed:
                    26:97:f4:79:a2:53:e4:29:8b:c7:3e:d1:ff:e7:ed:
                    84:36:62:6b:a2:42:c3:30:84:55:6f:31:20:dc:d1:
                    0b:5f:6a:2d:6c:df:fa:73:5c:94:3c:b1:d7:a7:bb:
                    b7:53
                Exponent: 65537 (0x10001)
        X509v3 extensions:
            X509v3 Basic Constraints: 
                CA:FALSE
            X509v3 Subject Key Identifier: 
                05:01:B3:D4:AD:D7:A1:B8:29:D3:CD:3E:76:72:68:D8:05:37:39:04
            X509v3 Authority Key Identifier: 
                keyid:16:03:7D:0C:5B:0E:D1:6C:9F:87:7C:2B:9A:30:75:98:F6:84:BD:3A
                DirName:/CN=team308-net
                serial:3C:DF:E9:3D:2C:80:D3:47:0E:B8:BA:1B:65:F4:D0:41:D7:2E:87:77
            X509v3 Extended Key Usage: 
                TLS Web Server Authentication
            X509v3 Key Usage: 
                Digital Signature, Key Encipherment
            X509v3 Subject Alternative Name: 
                DNS:team308-server
    Signature Algorithm: sha256WithRSAEncryption
    Signature Value:
        8a:91:15:9a:47:d8:9b:ff:5c:2f:f3:0e:ed:67:68:fc:58:2e:
        02:27:40:48:6b:41:f9:0e:98:34:d1:35:17:37:24:12:9f:42:
        5a:71:f6:29:88:8d:1e:e3:c5:e9:0e:b5:80:6a:90:92:44:30:
        fc:98:97:7a:4d:8d:24:87:53:3b:db:f3:4a:81:2d:be:d3:f3:
        b6:5c:65:c3:30:dc:c1:fe:09:c4:c0:05:7a:eb:06:52:03:be:
        fd:a6:84:d1:00:1a:16:ef:af:f2:1f:6d:44:c7:1c:23:d9:c1:
        84:c5:f1:ef:0c:49:7e:a3:f5:2e:ec:63:24:8f:38:12:22:a1:
        12:43:34:d8:f0:ed:94:e4:19:8e:81:3c:94:40:39:13:14:b8:
        ea:0c:29:38:6d:3d:e3:72:1f:f7:e0:ed:6e:62:70:a4:1d:01:
        c0:92:23:4d:8b:2b:e0:08:2d:2c:e5:28:f6:76:65:4a:d7:2e:
        45:2d:f8:95:70:bc:64:db:1e:0e:af:cb:40:c2:ad:75:0a:61:
        29:28:10:81:19:58:cd:75:bc:c0:db:4a:c1:89:0a:19:bb:47:
        f8:24:36:e8:84:94:47:80:69:a7:cb:84:e1:06:93:73:0a:61:
        8d:a6:61:86:b1:27:f0:2e:18:92:87:75:7f:5e:d2:db:8b:c5:
        cc:d5:79:07
-----BEGIN CERTIFICATE-----
MIIDdzCCAl+gAwIBAgIQcHzQmmeG8x6e6QcRa9sGYjANBgkqhkiG9w0BAQsFADAW
MRQwEgYDVQQDDAt0ZWFtMzA4LW5ldDAeFw0yMzExMDQxMTM0MTBaFw0yNjEwMTkx
MTM0MTBaMBkxFzAVBgNVBAMMDnRlYW0zMDgtc2VydmVyMIIBIjANBgkqhkiG9w0B
AQEFAAOCAQ8AMIIBCgKCAQEAnudJPPlT1sBDpuLtz5ph+UJWwF0hMpfeKUIVNMpF
GXt5MRm2rozBwXPBrevkP7AdxSPGPJp/XZaNMRu+lKqdPkDskf0SQcieDSYfTmVE
I7r80bBDnIZyaCcb6G4KyY2OL5lklv+2lLUb7ySzaUKlYiW7nFJhh2ryvy5eDSSk
lxHtXe3L7QoIRZJTjhZpV+6ZDkpLLClvFBP+hpiR9CKg/maOdTkv9qH+vMefaI8i
09L7ihc/DKiwvETbissRIzMkmmodNdzpciUwqtA2jOvGa+0ml/R5olPkKYvHPtH/
5+2ENmJrokLDMIRVbzEg3NELX2otbN/6c1yUPLHXp7u3UwIDAQABo4G9MIG6MAkG
A1UdEwQCMAAwHQYDVR0OBBYEFAUBs9St16G4KdPNPnZyaNgFNzkEMFEGA1UdIwRK
MEiAFBYDfQxbDtFsn4d8K5owdZj2hL06oRqkGDAWMRQwEgYDVQQDDAt0ZWFtMzA4
LW5ldIIUPN/pPSyA00cOuLobZfTQQdcuh3cwEwYDVR0lBAwwCgYIKwYBBQUHAwEw
CwYDVR0PBAQDAgWgMBkGA1UdEQQSMBCCDnRlYW0zMDgtc2VydmVyMA0GCSqGSIb3
DQEBCwUAA4IBAQCKkRWaR9ib/1wv8w7tZ2j8WC4CJ0BIa0H5Dpg00TUXNyQSn0Ja
cfYpiI0e48XpDrWAapCSRDD8mJd6TY0kh1M72/NKgS2+0/O2XGXDMNzB/gnEwAV6
6wZSA779poTRABoW76/yH21Exxwj2cGExfHvDEl+o/Uu7GMkjzgSIqESQzTY8O2U
5BmOgTyUQDkTFLjqDCk4bT3jch/34O1uYnCkHQHAkiNNiyvgCC0s5Sj2dmVK1y5F
LfiVcLxk2x4Or8tAwq11CmEpKBCBGVjNdbzA20rBiQoZu0f4JDbohJRHgGmny4Th
BpNzCmGNpmGGsSfwLhiSh3V/XtLbi8XM1XkH
-----END CERTIFICATE-----
