Certificate:
    Data:
        Version: 3 (0x2)
        Serial Number:
            a9:11:f4:44:50:87:a1:4e:82:e7:fb:ad:77:68:aa:fe
        Signature Algorithm: sha256WithRSAEncryption
        Issuer: CN=team308-net
        Validity
            Not Before: Nov  3 20:44:52 2023 GMT
            Not After : Oct 18 20:44:52 2026 GMT
        Subject: CN=team308-client
        Subject Public Key Info:
            Public Key Algorithm: rsaEncryption
                Public-Key: (2048 bit)
                Modulus:
                    00:ac:11:d4:fc:db:36:17:55:84:7d:c6:6e:e7:1a:
                    39:00:1b:44:dc:0e:01:46:bb:8e:c2:25:02:3f:d4:
                    e1:62:c4:af:77:01:b2:32:d2:3e:5e:45:a5:76:ea:
                    c3:51:17:c8:90:fa:a1:7f:b7:8d:7d:e1:3f:e3:8f:
                    e2:cf:0f:93:dc:dd:2c:a4:5a:05:63:d5:6e:a8:08:
                    cd:68:fb:f7:9a:cd:94:86:f1:f1:ce:1c:22:12:a9:
                    0b:11:84:0e:7a:16:60:90:10:2b:4f:78:9a:33:62:
                    5d:53:6b:44:3b:c7:4b:cf:49:16:45:79:40:52:01:
                    37:84:dd:2d:78:75:71:5f:82:b8:78:cb:3e:38:9d:
                    33:4f:c3:6d:e4:26:fb:d1:48:e8:a7:9c:8a:b5:c1:
                    aa:00:34:ac:a3:47:4f:0f:59:4d:2e:a6:d9:c9:5a:
                    d5:f3:e4:a4:ff:47:c1:56:3b:a6:fa:4b:42:9b:d2:
                    c0:c7:79:a0:7e:98:8a:34:ba:f5:3d:f5:48:35:f3:
                    0e:bf:e5:ce:5c:a7:af:6a:b5:1a:e0:c0:1e:08:38:
                    f9:f1:cd:b8:e5:2d:9a:58:c5:92:cd:08:91:80:f6:
                    52:43:fd:4f:37:f3:6b:97:95:db:0e:82:55:96:3f:
                    ac:1e:e6:23:70:54:05:1d:fd:b8:6f:bf:a7:c8:fb:
                    05:ad
                Exponent: 65537 (0x10001)
        X509v3 extensions:
            X509v3 Basic Constraints: 
                CA:FALSE
            X509v3 Subject Key Identifier: 
                B5:03:43:EA:22:A7:E2:31:53:49:78:73:FF:40:0B:E8:DF:DD:B9:A9
            X509v3 Authority Key Identifier: 
                keyid:BE:E2:17:9B:D8:63:2F:14:DE:F8:3F:76:D9:79:8F:DB:F2:3C:88:90
                DirName:/CN=team308-net
                serial:47:49:BF:F8:54:D7:5A:EE:96:E8:1E:19:95:3E:C4:C2:EE:1A:FA:BA
            X509v3 Extended Key Usage: 
                TLS Web Client Authentication
            X509v3 Key Usage: 
                Digital Signature
    Signature Algorithm: sha256WithRSAEncryption
    Signature Value:
        7d:a2:7b:e0:40:d0:e7:ac:42:cd:c9:5a:9e:a0:8a:8e:d4:ba:
        95:ed:a9:18:6d:3c:26:dd:f8:53:e3:96:05:bd:e3:7e:a0:8c:
        7f:f4:c6:52:62:4f:f1:74:25:00:e3:ef:30:54:4d:eb:10:12:
        a3:aa:70:1e:49:47:de:36:f5:64:cf:ea:98:e2:2a:86:79:40:
        23:c6:dd:18:f2:30:7e:cf:ca:65:89:7e:ff:b3:c3:db:fe:fc:
        dc:27:2a:c8:15:83:85:22:8b:9d:ee:ab:d6:6b:48:dd:71:54:
        1d:3b:1f:c3:50:1a:50:ab:09:b1:b4:8b:86:84:97:a8:d8:1b:
        9c:2a:2e:25:48:47:0b:75:b4:85:46:c0:92:cc:ae:1d:0f:9b:
        66:10:cb:17:d4:e8:7e:96:fe:ba:2f:91:8c:75:80:1a:e5:98:
        65:70:19:49:63:e5:82:dd:c4:79:e7:6c:2d:ca:e1:ed:48:d3:
        6a:e7:02:48:9e:66:4e:79:13:5c:6e:c4:b0:4d:0f:24:80:b4:
        21:09:ad:3f:64:9a:eb:b3:32:9e:5c:68:c0:81:e9:e8:3f:d1:
        b8:56:5e:86:0b:06:85:74:0d:13:b7:77:db:e1:31:b5:ea:5b:
        a3:b0:3b:f7:5d:2f:83:91:26:a4:d2:c7:20:ad:3d:07:84:bf:
        9e:7e:0c:91
-----BEGIN CERTIFICATE-----
MIIDXTCCAkWgAwIBAgIRAKkR9ERQh6FOguf7rXdoqv4wDQYJKoZIhvcNAQELBQAw
FjEUMBIGA1UEAwwLdGVhbTMwOC1uZXQwHhcNMjMxMTAzMjA0NDUyWhcNMjYxMDE4
MjA0NDUyWjAZMRcwFQYDVQQDDA50ZWFtMzA4LWNsaWVudDCCASIwDQYJKoZIhvcN
AQEBBQADggEPADCCAQoCggEBAKwR1PzbNhdVhH3GbucaOQAbRNwOAUa7jsIlAj/U
4WLEr3cBsjLSPl5FpXbqw1EXyJD6oX+3jX3hP+OP4s8Pk9zdLKRaBWPVbqgIzWj7
95rNlIbx8c4cIhKpCxGEDnoWYJAQK094mjNiXVNrRDvHS89JFkV5QFIBN4TdLXh1
cV+CuHjLPjidM0/DbeQm+9FI6KecirXBqgA0rKNHTw9ZTS6m2cla1fPkpP9HwVY7
pvpLQpvSwMd5oH6YijS69T31SDXzDr/lzlynr2q1GuDAHgg4+fHNuOUtmljFks0I
kYD2UkP9Tzfza5eV2w6CVZY/rB7mI3BUBR39uG+/p8j7Ba0CAwEAAaOBojCBnzAJ
BgNVHRMEAjAAMB0GA1UdDgQWBBS1A0PqIqfiMVNJeHP/QAvo3925qTBRBgNVHSME
SjBIgBS+4heb2GMvFN74P3bZeY/b8jyIkKEapBgwFjEUMBIGA1UEAwwLdGVhbTMw
OC1uZXSCFEdJv/hU11rulugeGZU+xMLuGvq6MBMGA1UdJQQMMAoGCCsGAQUFBwMC
MAsGA1UdDwQEAwIHgDANBgkqhkiG9w0BAQsFAAOCAQEAfaJ74EDQ56xCzclanqCK
jtS6le2pGG08Jt34U+OWBb3jfqCMf/TGUmJP8XQlAOPvMFRN6xASo6pwHklH3jb1
ZM/qmOIqhnlAI8bdGPIwfs/KZYl+/7PD2/783CcqyBWDhSKLne6r1mtI3XFUHTsf
w1AaUKsJsbSLhoSXqNgbnCouJUhHC3W0hUbAksyuHQ+bZhDLF9Tofpb+ui+RjHWA
GuWYZXAZSWPlgt3EeedsLcrh7UjTaucCSJ5mTnkTXG7EsE0PJIC0IQmtP2Sa67My
nlxowIHp6D/RuFZehgsGhXQNE7d32+Extepbo7A7910vg5EmpNLHIK09B4S/nn4M
kQ==
-----END CERTIFICATE-----
