Certificate:
    Data:
        Version: 3 (0x2)
        Serial Number:
            25:6b:39:cf:7a:04:70:b2:49:ce:00:f4:e6:9a:51:a5
        Signature Algorithm: sha256WithRSAEncryption
        Issuer: CN=team241-net
        Validity
            Not Before: Nov  4 10:45:09 2023 GMT
            Not After : Oct 19 10:45:09 2026 GMT
        Subject: CN=team241-client
        Subject Public Key Info:
            Public Key Algorithm: rsaEncryption
                Public-Key: (2048 bit)
                Modulus:
                    00:b7:fc:d5:fc:c9:2d:5e:1a:3d:eb:03:9d:d2:6b:
                    0b:c2:1b:3d:8e:2b:b7:63:bc:e6:13:74:37:a0:0f:
                    ee:5d:06:5f:fb:a0:95:f5:1a:75:75:9d:eb:7f:8b:
                    7e:31:81:d8:52:11:f5:79:f8:88:a4:92:63:f7:56:
                    4c:2d:08:3f:ba:12:2c:5f:6f:dc:ca:ef:74:ba:72:
                    ec:27:8c:0f:bc:d2:90:dd:46:f9:21:06:c4:c4:f3:
                    80:a3:fe:51:c4:f5:6f:ca:06:47:e0:74:3e:c7:40:
                    21:d5:22:6b:94:63:38:52:1f:95:f0:d3:3b:fa:14:
                    98:fc:64:d3:a4:ab:89:2b:47:7a:fc:df:43:42:6c:
                    b3:a1:61:d0:78:4e:dd:b3:d1:1d:41:bc:ee:d9:d9:
                    05:0f:4e:79:9b:69:63:1a:98:70:cb:c0:3b:06:0a:
                    23:b1:71:e5:26:46:b7:87:35:8f:d1:1a:f8:44:64:
                    b1:fc:06:d4:10:6a:c3:6e:04:6a:da:4d:16:78:e1:
                    ac:01:86:23:d7:47:20:22:23:a3:f0:3c:00:e7:be:
                    c1:73:20:01:0c:10:8c:01:f0:0d:1f:e0:b2:fa:27:
                    6b:4e:41:47:7e:d9:d4:9f:95:6a:92:77:2e:12:41:
                    86:b8:02:db:4e:f4:d9:6d:ca:b8:61:e0:aa:d9:e3:
                    15:49
                Exponent: 65537 (0x10001)
        X509v3 extensions:
            X509v3 Basic Constraints: 
                CA:FALSE
            X509v3 Subject Key Identifier: 
                40:68:F1:89:D1:E4:10:BD:6D:70:87:AE:56:E6:00:AA:36:D7:66:33
            X509v3 Authority Key Identifier: 
                keyid:6E:90:6E:42:83:80:8E:77:3E:12:EE:DA:BA:C1:68:45:A5:CE:3C:42
                DirName:/CN=team241-net
                serial:7B:2B:C0:AC:6A:F0:9A:C3:00:AF:55:FC:22:1F:6A:8E:B1:1D:BC:F8
            X509v3 Extended Key Usage: 
                TLS Web Client Authentication
            X509v3 Key Usage: 
                Digital Signature
    Signature Algorithm: sha256WithRSAEncryption
    Signature Value:
        67:96:8a:fb:ef:4f:df:b6:21:34:93:6b:27:72:86:f0:89:73:
        9a:cf:35:4a:ef:f0:14:d7:3d:19:22:1e:9a:0e:ec:ad:4f:80:
        11:1e:a2:0c:94:2d:05:20:1e:eb:0b:41:e3:6d:b5:0d:39:b0:
        d4:67:ac:fb:4c:cd:7f:19:67:dc:47:b5:cb:9a:d8:0d:00:01:
        3b:58:07:50:ef:fb:b3:83:e3:45:d0:a4:8a:1d:17:48:41:3b:
        5e:25:2c:d4:86:89:81:e2:66:8f:2f:bf:7a:ed:e3:da:34:22:
        2b:c2:56:bf:a1:81:ed:fa:fb:71:c6:b7:d3:c2:32:40:07:c8:
        89:12:57:0c:47:f7:17:93:a4:2c:a9:d1:2d:2d:5b:f7:c8:7d:
        5d:17:7f:c8:dc:c9:90:f6:31:ed:df:9f:c3:7d:3d:a7:c0:13:
        91:b5:8d:41:2c:13:f4:0a:3a:b8:2b:62:93:fc:37:60:7d:a2:
        a9:0c:94:5a:be:50:06:41:a0:00:36:c9:a2:49:e4:7c:c2:e5:
        9e:dd:5d:b7:ac:2b:e6:30:37:60:ad:d5:15:f1:02:60:01:60:
        4d:80:d3:fd:76:6e:47:45:b6:3d:21:3b:dc:cb:d7:d8:9b:67:
        1f:b2:04:44:9e:99:a4:8d:bd:cc:89:4e:95:81:fd:12:5d:93:
        ef:27:97:79
-----BEGIN CERTIFICATE-----
MIIDXDCCAkSgAwIBAgIQJWs5z3oEcLJJzgD05ppRpTANBgkqhkiG9w0BAQsFADAW
MRQwEgYDVQQDDAt0ZWFtMjQxLW5ldDAeFw0yMzExMDQxMDQ1MDlaFw0yNjEwMTkx
MDQ1MDlaMBkxFzAVBgNVBAMMDnRlYW0yNDEtY2xpZW50MIIBIjANBgkqhkiG9w0B
AQEFAAOCAQ8AMIIBCgKCAQEAt/zV/MktXho96wOd0msLwhs9jiu3Y7zmE3Q3oA/u
XQZf+6CV9Rp1dZ3rf4t+MYHYUhH1efiIpJJj91ZMLQg/uhIsX2/cyu90unLsJ4wP
vNKQ3Ub5IQbExPOAo/5RxPVvygZH4HQ+x0Ah1SJrlGM4Uh+V8NM7+hSY/GTTpKuJ
K0d6/N9DQmyzoWHQeE7ds9EdQbzu2dkFD055m2ljGphwy8A7BgojsXHlJka3hzWP
0Rr4RGSx/AbUEGrDbgRq2k0WeOGsAYYj10cgIiOj8DwA577BcyABDBCMAfANH+Cy
+idrTkFHftnUn5VqkncuEkGGuALbTvTZbcq4YeCq2eMVSQIDAQABo4GiMIGfMAkG
A1UdEwQCMAAwHQYDVR0OBBYEFEBo8YnR5BC9bXCHrlbmAKo212YzMFEGA1UdIwRK
MEiAFG6QbkKDgI53PhLu2rrBaEWlzjxCoRqkGDAWMRQwEgYDVQQDDAt0ZWFtMjQx
LW5ldIIUeyvArGrwmsMAr1X8Ih9qjrEdvPgwEwYDVR0lBAwwCgYIKwYBBQUHAwIw
CwYDVR0PBAQDAgeAMA0GCSqGSIb3DQEBCwUAA4IBAQBnlor770/ftiE0k2sncobw
iXOazzVK7/AU1z0ZIh6aDuytT4ARHqIMlC0FIB7rC0HjbbUNObDUZ6z7TM1/GWfc
R7XLmtgNAAE7WAdQ7/uzg+NF0KSKHRdIQTteJSzUhomB4maPL7967ePaNCIrwla/
oYHt+vtxxrfTwjJAB8iJElcMR/cXk6QsqdEtLVv3yH1dF3/I3MmQ9jHt35/DfT2n
wBORtY1BLBP0Cjq4K2KT/DdgfaKpDJRavlAGQaAANsmiSeR8wuWe3V23rCvmMDdg
rdUV8QJgAWBNgNP9dm5HRbY9ITvcy9fYm2cfsgREnpmkjb3MiU6Vgf0SXZPvJ5d5
-----END CERTIFICATE-----
