Certificate:
    Data:
        Version: 3 (0x2)
        Serial Number:
            db:b6:1f:80:53:67:39:68:2d:11:7e:ae:58:d8:2d:8c
        Signature Algorithm: sha256WithRSAEncryption
        Issuer: CN=team241-net
        Validity
            Not Before: Nov  4 11:32:21 2023 GMT
            Not After : Oct 19 11:32:21 2026 GMT
        Subject: CN=team241-server
        Subject Public Key Info:
            Public Key Algorithm: rsaEncryption
                Public-Key: (2048 bit)
                Modulus:
                    00:b0:38:65:33:37:f4:ac:ee:d0:d0:5e:8f:ff:87:
                    04:8e:bb:b8:0a:de:8a:47:91:1a:de:88:7c:02:9a:
                    49:c6:62:5b:c1:74:02:3f:7d:ce:0d:5c:da:27:20:
                    d4:b7:76:05:60:7c:4c:23:7f:98:ae:2b:70:3b:34:
                    6d:73:06:6d:34:f6:0d:d4:ed:36:b0:37:4c:67:2b:
                    77:6e:12:1f:79:48:8e:b9:0b:41:b3:3e:20:f9:61:
                    d4:2d:76:07:57:83:de:76:06:4c:ae:10:38:af:9f:
                    3b:eb:15:e8:4a:a1:ec:c5:ba:e2:64:16:68:b9:47:
                    95:c1:02:3e:e1:06:0e:4f:3e:9b:d3:b1:7b:91:06:
                    b4:b4:ae:77:88:99:74:4b:f8:a7:87:52:01:9f:db:
                    65:bb:f7:2b:d4:90:c6:3a:a5:ed:0b:8b:aa:d2:05:
                    8b:1d:7a:e8:d7:b2:d0:a4:f4:ca:13:30:4b:0d:70:
                    8a:39:2c:02:09:c5:f9:b6:74:fb:28:f0:01:fe:26:
                    67:43:37:05:41:7a:af:b8:86:b1:e7:31:79:97:2c:
                    7b:ee:01:59:8d:50:7c:7a:6a:76:9f:22:6c:ec:fb:
                    d9:48:96:18:51:43:2c:57:a4:35:8b:28:8d:a7:b5:
                    85:19:c9:44:e0:be:6d:60:79:c3:cf:74:44:31:a6:
                    60:b9
                Exponent: 65537 (0x10001)
        X509v3 extensions:
            X509v3 Basic Constraints: 
                CA:FALSE
            X509v3 Subject Key Identifier: 
                DD:99:9E:9D:80:6A:87:3D:C2:BE:D6:E0:CD:A8:BB:6A:E6:2B:95:67
            X509v3 Authority Key Identifier: 
                keyid:48:D5:10:2E:71:53:40:7D:89:A1:8E:6F:70:00:50:C1:78:A0:ED:EB
                DirName:/CN=team241-net
                serial:28:5C:25:FE:1F:EB:EC:5A:C3:48:F2:E7:CE:56:89:69:22:55:63:64
            X509v3 Extended Key Usage: 
                TLS Web Server Authentication
            X509v3 Key Usage: 
                Digital Signature, Key Encipherment
            X509v3 Subject Alternative Name: 
                DNS:team241-server
    Signature Algorithm: sha256WithRSAEncryption
    Signature Value:
        8b:70:4d:30:af:35:0c:03:a4:e9:9d:b2:37:19:54:62:06:e2:
        d0:fa:48:73:fd:ca:a5:87:09:4d:07:73:4d:11:66:34:49:44:
        87:3f:a5:4d:df:ae:2b:ce:0c:4d:90:25:dc:5b:61:ca:49:b1:
        b8:d5:0a:eb:f1:32:65:6a:0e:d0:b6:af:e9:a2:e3:4c:82:e6:
        82:55:bc:20:d1:c9:a2:fe:a5:83:4e:52:77:96:aa:b7:8e:e0:
        c8:cb:a7:30:c7:25:35:3b:07:fb:aa:e5:05:fc:e4:1d:26:8b:
        79:1f:2e:ea:dd:c6:d7:51:27:7b:e4:19:fb:55:20:d5:d9:ce:
        84:9f:ec:4c:0c:6d:27:f5:f8:89:83:28:97:e2:2b:0c:91:d8:
        d0:74:5b:83:ea:09:4b:0e:79:4a:f4:17:3e:24:86:0a:59:75:
        14:a7:d6:f8:55:cc:2b:74:8f:52:d2:d5:56:90:a6:43:14:f3:
        6d:79:21:c7:94:1f:c4:d5:0e:c7:d1:ff:9a:65:c4:6e:9a:9d:
        c3:c0:f0:00:f3:9f:45:53:03:ba:18:0d:22:02:cf:1d:95:d0:
        b6:ec:7e:29:52:36:69:6e:66:71:a1:ea:34:31:a0:bc:2d:3e:
        47:f5:bd:1c:b2:4a:ad:02:ce:96:56:16:eb:c5:d3:89:4f:dd:
        6e:fd:60:51
-----BEGIN CERTIFICATE-----
MIIDeDCCAmCgAwIBAgIRANu2H4BTZzloLRF+rljYLYwwDQYJKoZIhvcNAQELBQAw
FjEUMBIGA1UEAwwLdGVhbTI0MS1uZXQwHhcNMjMxMTA0MTEzMjIxWhcNMjYxMDE5
MTEzMjIxWjAZMRcwFQYDVQQDDA50ZWFtMjQxLXNlcnZlcjCCASIwDQYJKoZIhvcN
AQEBBQADggEPADCCAQoCggEBALA4ZTM39Kzu0NBej/+HBI67uAreikeRGt6IfAKa
ScZiW8F0Aj99zg1c2icg1Ld2BWB8TCN/mK4rcDs0bXMGbTT2DdTtNrA3TGcrd24S
H3lIjrkLQbM+IPlh1C12B1eD3nYGTK4QOK+fO+sV6Eqh7MW64mQWaLlHlcECPuEG
Dk8+m9Oxe5EGtLSud4iZdEv4p4dSAZ/bZbv3K9SQxjql7QuLqtIFix166Ney0KT0
yhMwSw1wijksAgnF+bZ0+yjwAf4mZ0M3BUF6r7iGsecxeZcse+4BWY1QfHpqdp8i
bOz72UiWGFFDLFekNYsojae1hRnJROC+bWB5w890RDGmYLkCAwEAAaOBvTCBujAJ
BgNVHRMEAjAAMB0GA1UdDgQWBBTdmZ6dgGqHPcK+1uDNqLtq5iuVZzBRBgNVHSME
SjBIgBRI1RAucVNAfYmhjm9wAFDBeKDt66EapBgwFjEUMBIGA1UEAwwLdGVhbTI0
MS1uZXSCFChcJf4f6+xaw0jy585WiWkiVWNkMBMGA1UdJQQMMAoGCCsGAQUFBwMB
MAsGA1UdDwQEAwIFoDAZBgNVHREEEjAQgg50ZWFtMjQxLXNlcnZlcjANBgkqhkiG
9w0BAQsFAAOCAQEAi3BNMK81DAOk6Z2yNxlUYgbi0PpIc/3KpYcJTQdzTRFmNElE
hz+lTd+uK84MTZAl3FthykmxuNUK6/EyZWoO0Lav6aLjTILmglW8INHJov6lg05S
d5aqt47gyMunMMclNTsH+6rlBfzkHSaLeR8u6t3G11Ene+QZ+1Ug1dnOhJ/sTAxt
J/X4iYMol+IrDJHY0HRbg+oJSw55SvQXPiSGCll1FKfW+FXMK3SPUtLVVpCmQxTz
bXkhx5QfxNUOx9H/mmXEbpqdw8DwAPOfRVMDuhgNIgLPHZXQtux+KVI2aW5mcaHq
NDGgvC0+R/W9HLJKrQLOllYW68XTiU/dbv1gUQ==
-----END CERTIFICATE-----
