Certificate:
    Data:
        Version: 3 (0x2)
        Serial Number:
            ee:fb:00:bf:cc:e6:6e:fc:6d:fd:47:df:c3:34:5c:5c
        Signature Algorithm: sha256WithRSAEncryption
        Issuer: CN=team241-net
        Validity
            Not Before: Nov  4 10:45:09 2023 GMT
            Not After : Oct 19 10:45:09 2026 GMT
        Subject: CN=team241-server
        Subject Public Key Info:
            Public Key Algorithm: rsaEncryption
                Public-Key: (2048 bit)
                Modulus:
                    00:be:41:e7:25:3a:c3:da:eb:5f:28:d0:2b:df:da:
                    43:32:31:dd:a2:5f:68:ec:01:84:9c:73:b9:ff:3e:
                    eb:a7:1f:c7:50:68:26:1e:be:71:ad:aa:24:6c:d5:
                    85:44:aa:cb:7e:e8:98:b3:37:22:c7:bb:07:73:48:
                    24:5b:a2:0d:c5:78:de:32:f7:b4:3b:ac:7b:48:96:
                    1e:5a:10:9d:37:7a:dd:6f:d3:41:70:91:c7:31:e0:
                    12:9d:d3:68:e2:09:43:8b:0e:50:5c:52:6a:f9:7a:
                    5b:d6:73:32:80:1d:e0:38:c4:cd:9b:b1:5e:8a:81:
                    5a:df:b7:2f:26:e7:52:78:d9:43:44:a6:a9:74:4d:
                    fe:b4:8f:98:57:c6:28:ef:e4:f4:35:ee:a9:b3:9f:
                    1e:6a:01:52:70:6e:3e:30:23:7e:e9:d4:6f:e7:eb:
                    48:d3:d2:ae:de:21:50:e2:72:44:e7:71:ef:fb:87:
                    6b:bf:fe:b2:1f:bb:a6:fc:12:d7:67:f2:57:88:25:
                    cd:5d:02:98:4d:16:49:c6:89:59:7c:51:7a:8b:bc:
                    f8:0c:59:b2:50:3b:78:25:0b:7d:85:ec:8c:96:ab:
                    6e:ef:92:72:19:66:c9:47:0e:c8:2c:e5:df:10:45:
                    0e:6f:08:7e:d6:b6:d9:38:e3:ea:f4:44:3f:c7:5b:
                    7e:b1
                Exponent: 65537 (0x10001)
        X509v3 extensions:
            X509v3 Basic Constraints: 
                CA:FALSE
            X509v3 Subject Key Identifier: 
                90:27:43:9C:87:16:AF:E2:80:AC:59:8B:EB:FF:1C:EE:9D:9A:0E:C5
            X509v3 Authority Key Identifier: 
                keyid:6E:90:6E:42:83:80:8E:77:3E:12:EE:DA:BA:C1:68:45:A5:CE:3C:42
                DirName:/CN=team241-net
                serial:7B:2B:C0:AC:6A:F0:9A:C3:00:AF:55:FC:22:1F:6A:8E:B1:1D:BC:F8
            X509v3 Extended Key Usage: 
                TLS Web Server Authentication
            X509v3 Key Usage: 
                Digital Signature, Key Encipherment
            X509v3 Subject Alternative Name: 
                DNS:team241-server
    Signature Algorithm: sha256WithRSAEncryption
    Signature Value:
        46:f9:a5:c3:72:bd:fc:85:81:02:60:a3:7b:8a:8e:cc:25:ac:
        c1:93:c4:6a:df:28:8e:3c:f2:c4:c9:1c:b9:4f:af:ff:ad:9d:
        ed:18:32:34:e5:85:fb:44:85:e7:48:7d:63:19:98:dd:63:cd:
        ab:a5:ff:3f:cf:b9:09:43:48:31:b3:1c:ff:b5:ba:29:73:0c:
        33:ff:78:97:5e:20:c1:00:6c:08:b4:f9:7a:d7:1d:f6:9e:a2:
        c4:83:c8:d0:f7:dd:60:23:20:c4:96:08:f0:c9:1f:96:55:b6:
        c4:c8:84:d8:5f:11:57:ef:c1:a2:8b:cc:4e:10:0f:30:8b:51:
        ab:49:e4:39:fb:69:27:7b:8c:89:bc:24:9d:28:5d:c6:91:46:
        6f:02:30:a0:3e:4a:4f:8f:0c:41:f9:c7:58:e9:44:9f:aa:db:
        0b:36:12:42:8c:48:b6:43:22:e4:84:12:2d:8b:7c:c7:79:0d:
        61:79:a9:3d:de:80:32:d5:dc:aa:93:ac:67:81:53:e8:80:c3:
        d4:a8:71:3e:ce:0f:82:42:db:eb:a1:69:09:81:21:0e:09:e8:
        bd:82:e2:32:b1:dc:7f:6a:04:a0:6e:f5:12:bc:3b:e6:4b:b3:
        cc:07:5d:6a:8f:ae:c6:3a:88:2c:08:e8:81:c5:77:3a:38:9c:
        3f:28:92:fe
-----BEGIN CERTIFICATE-----
MIIDeDCCAmCgAwIBAgIRAO77AL/M5m78bf1H38M0XFwwDQYJKoZIhvcNAQELBQAw
FjEUMBIGA1UEAwwLdGVhbTI0MS1uZXQwHhcNMjMxMTA0MTA0NTA5WhcNMjYxMDE5
MTA0NTA5WjAZMRcwFQYDVQQDDA50ZWFtMjQxLXNlcnZlcjCCASIwDQYJKoZIhvcN
AQEBBQADggEPADCCAQoCggEBAL5B5yU6w9rrXyjQK9/aQzIx3aJfaOwBhJxzuf8+
66cfx1BoJh6+ca2qJGzVhUSqy37omLM3Ise7B3NIJFuiDcV43jL3tDuse0iWHloQ
nTd63W/TQXCRxzHgEp3TaOIJQ4sOUFxSavl6W9ZzMoAd4DjEzZuxXoqBWt+3Lybn
UnjZQ0SmqXRN/rSPmFfGKO/k9DXuqbOfHmoBUnBuPjAjfunUb+frSNPSrt4hUOJy
ROdx7/uHa7/+sh+7pvwS12fyV4glzV0CmE0WScaJWXxReou8+AxZslA7eCULfYXs
jJarbu+SchlmyUcOyCzl3xBFDm8Ifta22Tjj6vREP8dbfrECAwEAAaOBvTCBujAJ
BgNVHRMEAjAAMB0GA1UdDgQWBBSQJ0Ochxav4oCsWYvr/xzunZoOxTBRBgNVHSME
SjBIgBRukG5Cg4COdz4S7tq6wWhFpc48QqEapBgwFjEUMBIGA1UEAwwLdGVhbTI0
MS1uZXSCFHsrwKxq8JrDAK9V/CIfao6xHbz4MBMGA1UdJQQMMAoGCCsGAQUFBwMB
MAsGA1UdDwQEAwIFoDAZBgNVHREEEjAQgg50ZWFtMjQxLXNlcnZlcjANBgkqhkiG
9w0BAQsFAAOCAQEARvmlw3K9/IWBAmCje4qOzCWswZPEat8ojjzyxMkcuU+v/62d
7RgyNOWF+0SF50h9YxmY3WPNq6X/P8+5CUNIMbMc/7W6KXMMM/94l14gwQBsCLT5
etcd9p6ixIPI0PfdYCMgxJYI8MkfllW2xMiE2F8RV+/BoovMThAPMItRq0nkOftp
J3uMibwknShdxpFGbwIwoD5KT48MQfnHWOlEn6rbCzYSQoxItkMi5IQSLYt8x3kN
YXmpPd6AMtXcqpOsZ4FT6IDD1KhxPs4PgkLb66FpCYEhDgnovYLiMrHcf2oEoG71
Erw75kuzzAddao+uxjqILAjogcV3OjicPyiS/g==
-----END CERTIFICATE-----
