Certificate:
    Data:
        Version: 3 (0x2)
        Serial Number:
            ef:93:9f:dd:ee:aa:ce:98:2e:48:ab:91:3a:04:26:01
        Signature Algorithm: sha256WithRSAEncryption
        Issuer: CN=team241-net
        Validity
            Not Before: Nov  4 11:32:21 2023 GMT
            Not After : Oct 19 11:32:21 2026 GMT
        Subject: CN=team241-client
        Subject Public Key Info:
            Public Key Algorithm: rsaEncryption
                Public-Key: (2048 bit)
                Modulus:
                    00:c7:ab:5f:ed:01:ef:51:e6:ff:c5:ac:c1:c2:5a:
                    d7:71:f2:b2:e4:7b:ee:77:0f:e1:1d:53:33:1f:85:
                    5d:1b:66:5b:14:d4:83:5d:ae:54:94:50:0a:bb:7a:
                    50:da:a7:41:21:fa:71:09:22:a1:98:79:ca:09:8b:
                    9f:aa:82:37:ad:7c:c2:3d:cf:7d:d9:3b:dc:f2:3a:
                    58:80:99:16:a2:1f:45:00:54:8d:ea:5a:d6:31:63:
                    e5:ad:b0:eb:5e:a6:f5:ce:d3:a5:80:78:c8:5e:fc:
                    25:fa:d3:27:ff:63:15:8f:3b:38:ee:30:fd:16:6c:
                    4e:92:2d:12:4a:0e:56:92:3a:ab:c5:ad:0b:a3:96:
                    39:6a:0e:a2:1f:f0:5b:84:03:42:01:5b:94:d1:9d:
                    a2:d8:2a:3c:98:76:0f:9c:3b:2d:46:c4:c7:e7:a7:
                    4d:23:59:f4:ae:c9:fb:69:ed:2e:e2:e6:1d:f0:d2:
                    48:4d:e5:82:40:5f:1a:fa:e9:87:9e:ab:16:c4:37:
                    53:dd:b2:97:ad:ee:52:9a:20:a6:f7:b6:97:4e:d9:
                    83:18:ca:74:7b:04:cb:f0:7d:59:76:b6:a8:4b:a2:
                    57:e3:be:c9:2d:fc:26:00:5e:1f:91:02:fc:ac:e6:
                    20:9d:15:3b:b8:6e:bd:0d:a4:c4:b1:42:82:19:a6:
                    e7:85
                Exponent: 65537 (0x10001)
        X509v3 extensions:
            X509v3 Basic Constraints: 
                CA:FALSE
            X509v3 Subject Key Identifier: 
                C7:76:D5:78:59:00:19:54:3D:9F:64:FC:57:D1:B7:E5:03:F2:1D:35
            X509v3 Authority Key Identifier: 
                keyid:48:D5:10:2E:71:53:40:7D:89:A1:8E:6F:70:00:50:C1:78:A0:ED:EB
                DirName:/CN=team241-net
                serial:28:5C:25:FE:1F:EB:EC:5A:C3:48:F2:E7:CE:56:89:69:22:55:63:64
            X509v3 Extended Key Usage: 
                TLS Web Client Authentication
            X509v3 Key Usage: 
                Digital Signature
    Signature Algorithm: sha256WithRSAEncryption
    Signature Value:
        86:59:5f:24:0f:8b:9d:d6:be:5d:6b:68:66:f4:22:43:c6:15:
        7f:90:05:b0:61:c3:b5:d5:64:42:a3:25:72:12:c1:c3:88:af:
        ac:6a:c3:63:ea:78:df:37:7d:70:d6:1a:29:83:d7:56:d7:e3:
        76:f3:e2:da:0e:3a:cb:98:0e:7b:b8:ad:7e:07:6c:af:47:4a:
        d0:4e:f9:2a:fb:a8:28:39:12:6c:cb:67:bc:39:7f:5b:7a:16:
        0e:8b:3e:db:65:21:6c:9f:6b:b1:1d:60:e8:29:c7:ad:0e:9c:
        7e:42:5d:de:7f:39:68:b5:6b:b3:ce:b2:79:95:99:65:b3:93:
        ea:fb:ba:44:4e:9a:62:64:2d:a4:94:eb:9a:2f:f9:a6:3f:f0:
        97:49:c2:bf:89:5f:e0:b7:b6:16:79:dc:4f:c6:9e:76:5a:80:
        b7:cd:4f:78:ac:b7:a3:18:a2:47:cc:6d:8c:18:9c:ba:51:9d:
        27:12:30:f2:f2:79:41:0a:f6:17:9c:10:a3:6b:8e:89:eb:25:
        15:c8:14:14:10:74:f7:37:96:35:f2:ae:0d:cb:4b:4c:89:a7:
        ca:34:1d:1a:89:6e:3d:a6:a6:6f:91:8c:4a:b6:d7:5b:83:92:
        b8:24:b2:e1:77:e7:ea:65:83:e5:84:98:73:9c:28:b5:35:90:
        b5:74:70:98
-----BEGIN CERTIFICATE-----
MIIDXTCCAkWgAwIBAgIRAO+Tn93uqs6YLkirkToEJgEwDQYJKoZIhvcNAQELBQAw
FjEUMBIGA1UEAwwLdGVhbTI0MS1uZXQwHhcNMjMxMTA0MTEzMjIxWhcNMjYxMDE5
MTEzMjIxWjAZMRcwFQYDVQQDDA50ZWFtMjQxLWNsaWVudDCCASIwDQYJKoZIhvcN
AQEBBQADggEPADCCAQoCggEBAMerX+0B71Hm/8WswcJa13HysuR77ncP4R1TMx+F
XRtmWxTUg12uVJRQCrt6UNqnQSH6cQkioZh5ygmLn6qCN618wj3Pfdk73PI6WICZ
FqIfRQBUjepa1jFj5a2w616m9c7TpYB4yF78JfrTJ/9jFY87OO4w/RZsTpItEkoO
VpI6q8WtC6OWOWoOoh/wW4QDQgFblNGdotgqPJh2D5w7LUbEx+enTSNZ9K7J+2nt
LuLmHfDSSE3lgkBfGvrph56rFsQ3U92yl63uUpogpve2l07ZgxjKdHsEy/B9WXa2
qEuiV+O+yS38JgBeH5EC/KzmIJ0VO7huvQ2kxLFCghmm54UCAwEAAaOBojCBnzAJ
BgNVHRMEAjAAMB0GA1UdDgQWBBTHdtV4WQAZVD2fZPxX0bflA/IdNTBRBgNVHSME
SjBIgBRI1RAucVNAfYmhjm9wAFDBeKDt66EapBgwFjEUMBIGA1UEAwwLdGVhbTI0
MS1uZXSCFChcJf4f6+xaw0jy585WiWkiVWNkMBMGA1UdJQQMMAoGCCsGAQUFBwMC
MAsGA1UdDwQEAwIHgDANBgkqhkiG9w0BAQsFAAOCAQEAhllfJA+Lnda+XWtoZvQi
Q8YVf5AFsGHDtdVkQqMlchLBw4ivrGrDY+p43zd9cNYaKYPXVtfjdvPi2g46y5gO
e7itfgdsr0dK0E75KvuoKDkSbMtnvDl/W3oWDos+22UhbJ9rsR1g6CnHrQ6cfkJd
3n85aLVrs86yeZWZZbOT6vu6RE6aYmQtpJTrmi/5pj/wl0nCv4lf4Le2FnncT8ae
dlqAt81PeKy3oxiiR8xtjBiculGdJxIw8vJ5QQr2F5wQo2uOieslFcgUFBB09zeW
NfKuDctLTImnyjQdGoluPaamb5GMSrbXW4OSuCSy4Xfn6mWD5YSYc5wotTWQtXRw
mA==
-----END CERTIFICATE-----
