Certificate:
    Data:
        Version: 3 (0x2)
        Serial Number:
            41:a5:90:cd:54:a4:f3:76:5c:8d:b3:f1:a2:eb:b5:b9
        Signature Algorithm: sha256WithRSAEncryption
        Issuer: CN=team265-net
        Validity
            Not Before: Nov  3 20:44:10 2023 GMT
            Not After : Oct 18 20:44:10 2026 GMT
        Subject: CN=team265-server
        Subject Public Key Info:
            Public Key Algorithm: rsaEncryption
                Public-Key: (2048 bit)
                Modulus:
                    00:97:ab:c4:a3:0d:1c:03:e7:c5:5e:19:3b:00:f0:
                    bf:91:13:7b:0f:84:dd:f1:07:12:a8:94:e9:42:31:
                    1e:38:b1:e4:04:5a:87:d5:a5:91:78:ce:1e:17:ad:
                    b3:b7:26:63:5c:47:32:85:fb:26:75:c7:79:0f:29:
                    4d:13:c8:2d:98:02:07:74:5a:bd:f8:3b:b3:b1:a2:
                    fb:3b:a1:1b:e6:ed:65:e2:ea:dd:ad:1f:88:d8:c4:
                    56:b2:6a:c0:24:da:bf:0c:b9:37:43:52:48:15:01:
                    af:ef:8a:39:07:3f:13:f6:e4:e4:4f:13:c4:aa:e2:
                    4a:06:b1:55:ba:c2:c9:58:47:39:92:d5:4b:62:6b:
                    da:4c:a1:3a:fa:fb:46:95:2a:cd:90:4e:51:55:55:
                    d9:df:b0:7f:3d:bf:5a:b5:8d:6c:e5:50:63:e6:81:
                    f9:80:89:b9:04:cc:e2:a4:a8:c2:d9:22:c2:24:c1:
                    fb:22:df:1f:58:6b:5d:7a:e6:d3:cc:af:86:ee:e3:
                    5d:9f:8b:fa:25:96:91:35:76:13:70:46:f1:11:ca:
                    25:c0:88:af:87:dd:38:09:12:e7:22:ec:1b:68:45:
                    9d:e5:47:74:9a:c2:a0:3d:65:19:66:61:f5:27:57:
                    ba:74:5d:7b:e6:55:7e:1f:99:29:a4:ab:22:76:3c:
                    4f:63
                Exponent: 65537 (0x10001)
        X509v3 extensions:
            X509v3 Basic Constraints: 
                CA:FALSE
            X509v3 Subject Key Identifier: 
                E6:ED:67:B1:C7:CA:33:CB:6B:7C:67:DB:03:29:08:90:9C:A0:46:7A
            X509v3 Authority Key Identifier: 
                keyid:92:0B:A7:92:F4:81:A4:C9:4C:76:BC:9A:67:E4:84:ED:29:05:2C:75
                DirName:/CN=team265-net
                serial:7F:2F:54:A0:32:59:25:8F:71:1F:07:74:32:6E:57:D4:C1:96:8B:B7
            X509v3 Extended Key Usage: 
                TLS Web Server Authentication
            X509v3 Key Usage: 
                Digital Signature, Key Encipherment
            X509v3 Subject Alternative Name: 
                DNS:team265-server
    Signature Algorithm: sha256WithRSAEncryption
    Signature Value:
        17:07:00:57:45:6d:8d:4a:4c:df:18:d4:01:b9:e8:09:42:a9:
        24:93:27:14:9f:3a:e1:92:2b:25:c5:36:f3:1e:a2:43:cc:dc:
        2a:49:b3:6e:60:dc:ec:e3:f8:af:a0:c3:2c:e7:55:ee:af:13:
        44:cf:3f:d6:f8:80:62:f5:0c:69:b7:c7:41:ac:08:07:b9:75:
        09:3a:6b:9b:5e:c4:6d:29:18:4a:a2:89:7e:d2:5c:68:ca:e4:
        b1:c8:be:c3:7c:98:8e:d5:e5:89:e1:80:ed:83:74:1d:c0:76:
        59:89:0a:f0:bf:ae:31:a6:8e:f9:9c:82:e3:cc:a7:cc:78:64:
        a8:85:54:f6:ca:5a:80:1b:ff:a0:78:60:6d:6e:43:83:aa:5b:
        ac:9e:79:1c:9d:f1:7c:b8:c6:8c:08:0b:40:64:db:fa:39:8b:
        6d:f8:6f:ac:76:25:c1:33:c1:d9:02:72:e6:ae:bc:0f:7f:56:
        51:0b:0c:41:65:73:78:66:61:cc:ba:a9:e8:6c:22:5e:05:ff:
        69:72:6c:d0:ba:a4:23:03:f6:60:de:55:ac:07:7e:cb:a2:4a:
        82:ce:fa:6a:e7:db:5a:82:82:a1:4f:37:a5:cb:a5:ed:78:d2:
        d4:c9:ce:21:97:47:3a:b6:f0:9a:67:b9:b0:54:df:3b:37:dd:
        0a:d2:d1:07
-----BEGIN CERTIFICATE-----
MIIDdzCCAl+gAwIBAgIQQaWQzVSk83ZcjbPxouu1uTANBgkqhkiG9w0BAQsFADAW
MRQwEgYDVQQDDAt0ZWFtMjY1LW5ldDAeFw0yMzExMDMyMDQ0MTBaFw0yNjEwMTgy
MDQ0MTBaMBkxFzAVBgNVBAMMDnRlYW0yNjUtc2VydmVyMIIBIjANBgkqhkiG9w0B
AQEFAAOCAQ8AMIIBCgKCAQEAl6vEow0cA+fFXhk7APC/kRN7D4Td8QcSqJTpQjEe
OLHkBFqH1aWReM4eF62ztyZjXEcyhfsmdcd5DylNE8gtmAIHdFq9+DuzsaL7O6Eb
5u1l4urdrR+I2MRWsmrAJNq/DLk3Q1JIFQGv74o5Bz8T9uTkTxPEquJKBrFVusLJ
WEc5ktVLYmvaTKE6+vtGlSrNkE5RVVXZ37B/Pb9atY1s5VBj5oH5gIm5BMzipKjC
2SLCJMH7It8fWGtdeubTzK+G7uNdn4v6JZaRNXYTcEbxEcolwIivh904CRLnIuwb
aEWd5Ud0msKgPWUZZmH1J1e6dF175lV+H5kppKsidjxPYwIDAQABo4G9MIG6MAkG
A1UdEwQCMAAwHQYDVR0OBBYEFObtZ7HHyjPLa3xn2wMpCJCcoEZ6MFEGA1UdIwRK
MEiAFJILp5L0gaTJTHa8mmfkhO0pBSx1oRqkGDAWMRQwEgYDVQQDDAt0ZWFtMjY1
LW5ldIIUfy9UoDJZJY9xHwd0Mm5X1MGWi7cwEwYDVR0lBAwwCgYIKwYBBQUHAwEw
CwYDVR0PBAQDAgWgMBkGA1UdEQQSMBCCDnRlYW0yNjUtc2VydmVyMA0GCSqGSIb3
DQEBCwUAA4IBAQAXBwBXRW2NSkzfGNQBuegJQqkkkycUnzrhkislxTbzHqJDzNwq
SbNuYNzs4/ivoMMs51XurxNEzz/W+IBi9Qxpt8dBrAgHuXUJOmubXsRtKRhKool+
0lxoyuSxyL7DfJiO1eWJ4YDtg3QdwHZZiQrwv64xpo75nILjzKfMeGSohVT2ylqA
G/+geGBtbkODqlusnnkcnfF8uMaMCAtAZNv6OYtt+G+sdiXBM8HZAnLmrrwPf1ZR
CwxBZXN4ZmHMuqnobCJeBf9pcmzQuqQjA/Zg3lWsB37LokqCzvpq59tagoKhTzel
y6XteNLUyc4hl0c6tvCaZ7mwVN87N90K0tEH
-----END CERTIFICATE-----
