Certificate:
    Data:
        Version: 3 (0x2)
        Serial Number:
            08:fa:e5:ec:86:4c:c9:3e:28:34:49:78:85:00:2b:0b
        Signature Algorithm: sha256WithRSAEncryption
        Issuer: CN=team131-net
        Validity
            Not Before: Nov  4 11:30:04 2023 GMT
            Not After : Oct 19 11:30:04 2026 GMT
        Subject: CN=team131-client
        Subject Public Key Info:
            Public Key Algorithm: rsaEncryption
                Public-Key: (2048 bit)
                Modulus:
                    00:af:bc:a8:13:36:ce:4d:fd:cf:cb:34:e6:9e:aa:
                    5c:0e:e5:03:d5:ae:4d:1a:13:f7:0c:ae:53:73:59:
                    1a:ed:7c:fc:f8:ea:7a:a2:4a:80:fe:f8:92:b9:f5:
                    59:9f:28:02:5a:4b:92:fe:82:f6:aa:d0:61:f3:0a:
                    58:de:ec:13:1a:fa:6a:a0:ac:39:a5:2a:92:1d:5a:
                    f1:19:50:23:4d:ee:5d:93:38:29:4f:0d:e8:7d:00:
                    86:62:c7:95:1c:f0:f2:4c:d3:8b:9a:1d:7d:d1:2e:
                    4f:be:c2:dc:33:00:b6:19:9a:b2:14:7e:24:97:cf:
                    a3:34:f2:54:8d:da:7a:b1:0e:f2:58:10:b3:89:94:
                    8d:41:3b:91:7f:12:92:a4:cd:56:44:33:31:2a:a6:
                    d0:08:3e:91:e3:88:b9:27:3e:2f:e2:f2:d4:14:f7:
                    64:f1:91:a3:36:cf:75:58:a9:c7:4f:76:97:d0:c1:
                    c1:f9:2f:5b:e6:9d:b3:a0:7f:ef:84:76:a5:c0:29:
                    9b:8d:71:af:99:43:80:5c:16:1f:be:ba:bd:4e:f4:
                    96:ac:db:4e:bb:b6:67:c8:a3:26:17:64:f4:36:e0:
                    b7:7c:90:17:7a:bb:44:dc:69:1b:c5:a5:f1:90:fe:
                    93:a2:57:8f:96:ad:17:7e:a2:be:47:b6:60:cc:c3:
                    03:db
                Exponent: 65537 (0x10001)
        X509v3 extensions:
            X509v3 Basic Constraints: 
                CA:FALSE
            X509v3 Subject Key Identifier: 
                05:42:DE:A7:6C:91:E3:9F:89:B5:54:B0:55:A7:65:96:FB:7B:87:77
            X509v3 Authority Key Identifier: 
                keyid:DA:3F:DB:8E:20:78:A9:4B:89:9C:D7:2A:CE:FD:3E:C0:96:F2:CD:84
                DirName:/CN=team131-net
                serial:34:55:0A:FA:CD:AF:DC:02:93:E3:45:89:D6:14:47:41:AD:B6:65:4A
            X509v3 Extended Key Usage: 
                TLS Web Client Authentication
            X509v3 Key Usage: 
                Digital Signature
    Signature Algorithm: sha256WithRSAEncryption
    Signature Value:
        90:5b:08:27:a5:8d:09:12:61:28:56:0d:bd:61:59:13:6a:84:
        f5:58:c7:30:15:47:1a:b4:04:6a:eb:b8:12:9b:77:a8:68:81:
        f3:16:4e:02:37:96:d8:95:b7:ee:f3:3a:17:2d:85:c6:3f:50:
        27:f0:b1:bb:38:21:31:1c:36:32:47:75:19:60:83:1c:f6:9a:
        88:be:01:1c:4b:b9:f3:36:d7:7e:c7:6c:d5:b1:37:7d:4c:12:
        14:37:cc:18:4d:96:82:6c:1e:77:c4:4b:5f:51:f7:e0:ce:a8:
        0f:27:3a:b6:c4:8f:9e:ac:66:81:ed:e5:e4:9f:88:7b:72:76:
        cf:2e:b8:3b:b7:02:65:b1:73:26:5e:a8:84:07:c7:7b:23:ba:
        fe:2e:70:b2:19:12:a0:3b:83:5d:80:1a:60:6d:6e:b9:a3:12:
        a9:fe:50:f1:4b:ad:18:21:d6:c5:fc:a1:91:36:8a:eb:44:ce:
        ff:90:98:4e:ff:38:cd:ad:49:ce:b3:38:33:a9:4a:d9:95:ad:
        66:35:fa:b3:f2:74:4c:ed:64:55:19:6c:c7:07:39:5a:28:58:
        ea:32:b4:4b:96:5b:bd:45:b0:98:c3:8d:50:29:a4:18:8f:69:
        af:94:33:f3:c9:45:dc:d5:e6:b0:09:40:d6:6a:19:26:91:63:
        a0:30:0f:2e
-----BEGIN CERTIFICATE-----
MIIDXDCCAkSgAwIBAgIQCPrl7IZMyT4oNEl4hQArCzANBgkqhkiG9w0BAQsFADAW
MRQwEgYDVQQDDAt0ZWFtMTMxLW5ldDAeFw0yMzExMDQxMTMwMDRaFw0yNjEwMTkx
MTMwMDRaMBkxFzAVBgNVBAMMDnRlYW0xMzEtY2xpZW50MIIBIjANBgkqhkiG9w0B
AQEFAAOCAQ8AMIIBCgKCAQEAr7yoEzbOTf3PyzTmnqpcDuUD1a5NGhP3DK5Tc1ka
7Xz8+Op6okqA/viSufVZnygCWkuS/oL2qtBh8wpY3uwTGvpqoKw5pSqSHVrxGVAj
Te5dkzgpTw3ofQCGYseVHPDyTNOLmh190S5PvsLcMwC2GZqyFH4kl8+jNPJUjdp6
sQ7yWBCziZSNQTuRfxKSpM1WRDMxKqbQCD6R44i5Jz4v4vLUFPdk8ZGjNs91WKnH
T3aX0MHB+S9b5p2zoH/vhHalwCmbjXGvmUOAXBYfvrq9TvSWrNtOu7ZnyKMmF2T0
NuC3fJAXertE3GkbxaXxkP6TolePlq0XfqK+R7ZgzMMD2wIDAQABo4GiMIGfMAkG
A1UdEwQCMAAwHQYDVR0OBBYEFAVC3qdskeOfibVUsFWnZZb7e4d3MFEGA1UdIwRK
MEiAFNo/244geKlLiZzXKs79PsCW8s2EoRqkGDAWMRQwEgYDVQQDDAt0ZWFtMTMx
LW5ldIIUNFUK+s2v3AKT40WJ1hRHQa22ZUowEwYDVR0lBAwwCgYIKwYBBQUHAwIw
CwYDVR0PBAQDAgeAMA0GCSqGSIb3DQEBCwUAA4IBAQCQWwgnpY0JEmEoVg29YVkT
aoT1WMcwFUcatARq67gSm3eoaIHzFk4CN5bYlbfu8zoXLYXGP1An8LG7OCExHDYy
R3UZYIMc9pqIvgEcS7nzNtd+x2zVsTd9TBIUN8wYTZaCbB53xEtfUffgzqgPJzq2
xI+erGaB7eXkn4h7cnbPLrg7twJlsXMmXqiEB8d7I7r+LnCyGRKgO4NdgBpgbW65
oxKp/lDxS60YIdbF/KGRNorrRM7/kJhO/zjNrUnOszgzqUrZla1mNfqz8nRM7WRV
GWzHBzlaKFjqMrRLllu9RbCYw41QKaQYj2mvlDPzyUXc1eawCUDWahkmkWOgMA8u
-----END CERTIFICATE-----
