Certificate:
    Data:
        Version: 3 (0x2)
        Serial Number:
            0a:73:be:c7:8c:43:bb:40:b3:40:39:da:5b:d2:6d:d5
        Signature Algorithm: sha256WithRSAEncryption
        Issuer: CN=team131-net
        Validity
            Not Before: Nov  4 11:30:04 2023 GMT
            Not After : Oct 19 11:30:04 2026 GMT
        Subject: CN=team131-server
        Subject Public Key Info:
            Public Key Algorithm: rsaEncryption
                Public-Key: (2048 bit)
                Modulus:
                    00:c0:1b:17:7d:1b:07:48:85:11:fc:21:c2:64:55:
                    e2:4e:be:85:a9:75:40:9a:d7:c4:0f:d0:02:b1:5d:
                    23:db:12:2c:0e:ef:2c:46:6a:67:f6:ae:c6:7b:1c:
                    16:d7:41:fc:b7:c8:7b:b1:07:bc:ec:1a:5e:9a:dc:
                    49:6c:b0:8d:c5:e5:e0:eb:58:95:94:e7:d6:52:fc:
                    3c:5e:e3:30:4a:02:3d:01:b2:9a:2e:de:cf:6c:52:
                    b1:e8:d4:c9:7d:5e:2d:13:a1:af:7d:4e:0a:e3:36:
                    91:b4:37:a3:24:9f:69:3f:f3:ba:06:fc:6d:21:0c:
                    9a:ad:c7:b5:7a:af:e0:44:49:ab:d9:8b:e7:c1:e8:
                    8e:13:7b:dd:4a:aa:fc:01:6e:e8:89:2f:ea:40:ba:
                    bc:36:36:37:d5:36:d6:5e:1a:ab:1c:3b:61:20:5c:
                    3e:a1:77:71:fd:0f:d8:a1:61:9d:d2:68:6e:d4:14:
                    5a:bb:9e:d7:6d:73:f1:45:5e:cf:0a:6f:0d:9d:90:
                    d3:53:49:74:00:ba:d1:f0:90:67:f3:f9:14:0a:7a:
                    c9:eb:57:7b:88:b4:7f:a2:cf:02:17:37:f5:41:10:
                    fe:be:ea:50:05:27:72:00:ea:da:9b:fe:1c:62:cb:
                    10:6e:40:82:59:cf:c1:00:bb:48:47:e9:1f:da:85:
                    99:73
                Exponent: 65537 (0x10001)
        X509v3 extensions:
            X509v3 Basic Constraints: 
                CA:FALSE
            X509v3 Subject Key Identifier: 
                DE:1F:8D:EE:F6:88:64:06:F6:DA:EB:A8:91:25:83:9F:99:29:23:5A
            X509v3 Authority Key Identifier: 
                keyid:DA:3F:DB:8E:20:78:A9:4B:89:9C:D7:2A:CE:FD:3E:C0:96:F2:CD:84
                DirName:/CN=team131-net
                serial:34:55:0A:FA:CD:AF:DC:02:93:E3:45:89:D6:14:47:41:AD:B6:65:4A
            X509v3 Extended Key Usage: 
                TLS Web Server Authentication
            X509v3 Key Usage: 
                Digital Signature, Key Encipherment
            X509v3 Subject Alternative Name: 
                DNS:team131-server
    Signature Algorithm: sha256WithRSAEncryption
    Signature Value:
        80:bb:b6:3d:a4:6a:50:d5:03:2d:57:f8:82:7d:8f:9c:fa:13:
        d7:64:fe:8c:7a:0e:c3:c9:62:5d:2e:ce:0a:1a:70:6f:25:e3:
        2f:85:ed:99:33:2f:29:48:26:7c:d5:5a:0b:bd:60:fc:4b:5d:
        8b:75:99:30:a1:7a:8a:3b:ee:6a:ea:01:01:9a:b7:a0:85:56:
        f9:14:c3:ea:fe:2c:ac:be:86:72:1a:a8:00:de:d3:91:6d:7b:
        74:1d:0b:e7:c5:93:7c:2a:cc:b1:0f:da:2c:3f:5f:cc:a6:58:
        10:3c:df:3c:72:6a:5f:e2:7b:b4:e9:46:62:38:a2:a4:05:2b:
        4a:36:55:f9:b1:88:10:e3:50:4c:97:9e:af:fb:69:cd:3c:57:
        70:0e:ea:72:5b:81:0c:b5:2d:02:65:a4:86:2e:a5:05:21:7b:
        a7:f6:1b:d1:d3:a3:d1:85:f4:19:b3:83:88:cb:13:8c:c5:63:
        77:3e:c8:d0:3d:20:68:a9:d4:d8:88:b5:1c:7d:44:04:b6:d8:
        14:0c:0a:a6:bd:d4:f2:1d:6e:fa:ee:30:b0:2f:5a:69:14:c6:
        64:ff:e5:07:3e:55:23:8b:e3:21:13:2d:79:20:d0:34:1a:e6:
        80:e4:a9:9d:d2:7b:4a:3e:28:c0:a8:f6:95:c6:15:39:26:4d:
        f3:a7:2b:0e
-----BEGIN CERTIFICATE-----
MIIDdzCCAl+gAwIBAgIQCnO+x4xDu0CzQDnaW9Jt1TANBgkqhkiG9w0BAQsFADAW
MRQwEgYDVQQDDAt0ZWFtMTMxLW5ldDAeFw0yMzExMDQxMTMwMDRaFw0yNjEwMTkx
MTMwMDRaMBkxFzAVBgNVBAMMDnRlYW0xMzEtc2VydmVyMIIBIjANBgkqhkiG9w0B
AQEFAAOCAQ8AMIIBCgKCAQEAwBsXfRsHSIUR/CHCZFXiTr6FqXVAmtfED9ACsV0j
2xIsDu8sRmpn9q7GexwW10H8t8h7sQe87BpemtxJbLCNxeXg61iVlOfWUvw8XuMw
SgI9AbKaLt7PbFKx6NTJfV4tE6GvfU4K4zaRtDejJJ9pP/O6BvxtIQyarce1eq/g
REmr2YvnweiOE3vdSqr8AW7oiS/qQLq8NjY31TbWXhqrHDthIFw+oXdx/Q/YoWGd
0mhu1BRau57XbXPxRV7PCm8NnZDTU0l0ALrR8JBn8/kUCnrJ61d7iLR/os8CFzf1
QRD+vupQBSdyAOram/4cYssQbkCCWc/BALtIR+kf2oWZcwIDAQABo4G9MIG6MAkG
A1UdEwQCMAAwHQYDVR0OBBYEFN4fje72iGQG9trrqJElg5+ZKSNaMFEGA1UdIwRK
MEiAFNo/244geKlLiZzXKs79PsCW8s2EoRqkGDAWMRQwEgYDVQQDDAt0ZWFtMTMx
LW5ldIIUNFUK+s2v3AKT40WJ1hRHQa22ZUowEwYDVR0lBAwwCgYIKwYBBQUHAwEw
CwYDVR0PBAQDAgWgMBkGA1UdEQQSMBCCDnRlYW0xMzEtc2VydmVyMA0GCSqGSIb3
DQEBCwUAA4IBAQCAu7Y9pGpQ1QMtV/iCfY+c+hPXZP6Meg7DyWJdLs4KGnBvJeMv
he2ZMy8pSCZ81VoLvWD8S12LdZkwoXqKO+5q6gEBmreghVb5FMPq/iysvoZyGqgA
3tORbXt0HQvnxZN8KsyxD9osP1/MplgQPN88cmpf4nu06UZiOKKkBStKNlX5sYgQ
41BMl56v+2nNPFdwDupyW4EMtS0CZaSGLqUFIXun9hvR06PRhfQZs4OIyxOMxWN3
PsjQPSBoqdTYiLUcfUQEttgUDAqmvdTyHW767jCwL1ppFMZk/+UHPlUji+MhEy15
INA0GuaA5Kmd0ntKPijAqPaVxhU5Jk3zpysO
-----END CERTIFICATE-----
