Certificate:
    Data:
        Version: 3 (0x2)
        Serial Number:
            a6:4d:f7:dd:65:fc:34:8b:89:d2:d2:f2:83:be:e7:e2
        Signature Algorithm: sha256WithRSAEncryption
        Issuer: CN=team131-net
        Validity
            Not Before: Nov  4 10:42:57 2023 GMT
            Not After : Oct 19 10:42:57 2026 GMT
        Subject: CN=team131-client
        Subject Public Key Info:
            Public Key Algorithm: rsaEncryption
                Public-Key: (2048 bit)
                Modulus:
                    00:aa:09:ed:91:0f:1b:4f:16:b9:bd:58:27:e1:4d:
                    02:fc:28:0a:37:a1:ee:68:ac:a8:7b:70:7b:8c:cf:
                    2d:97:28:7f:62:96:d7:0a:d5:00:7f:df:cc:b8:6a:
                    67:bd:03:64:9f:9b:ca:ad:6c:59:b6:82:1f:ca:13:
                    a8:22:96:11:ce:a6:d2:5b:ff:d9:82:d5:cc:8e:6a:
                    f1:9f:8c:2e:07:41:a6:14:1d:11:e3:6f:0a:21:d8:
                    7d:2b:07:5c:d6:4b:2f:48:6f:42:43:4c:4a:81:fa:
                    5b:c7:e2:b6:95:5c:83:56:ed:f2:f5:47:e7:22:c6:
                    19:cd:0a:2f:e0:39:01:b5:22:fa:ac:ea:3c:11:d7:
                    64:38:3f:60:b5:10:13:ef:c1:76:75:92:a2:f1:5e:
                    dd:68:f8:4c:a8:a4:f2:23:4e:12:9d:09:80:83:d8:
                    cc:d6:5e:fb:5b:46:f1:b4:53:47:25:0f:94:2c:16:
                    9e:16:1d:18:25:fb:c9:26:7a:a7:87:0f:73:e5:ec:
                    7d:17:57:63:9a:49:09:49:da:f4:38:9f:17:cb:77:
                    4f:c5:91:04:f1:ff:15:8e:be:02:53:a8:f3:31:f1:
                    12:69:25:d6:f0:58:35:fc:af:79:1b:77:1b:64:9d:
                    b9:ed:2d:31:a6:70:47:92:a7:1b:c9:f2:7c:b0:cf:
                    01:bb
                Exponent: 65537 (0x10001)
        X509v3 extensions:
            X509v3 Basic Constraints: 
                CA:FALSE
            X509v3 Subject Key Identifier: 
                0C:57:74:C2:EE:2C:FE:88:F9:E3:82:76:A9:45:1E:E0:E6:10:A7:79
            X509v3 Authority Key Identifier: 
                keyid:84:E6:D0:C5:3D:6A:C1:F5:0D:F9:C2:4F:69:2A:FB:99:BC:C8:A7:EC
                DirName:/CN=team131-net
                serial:37:55:46:5B:A1:D5:31:D1:30:8E:80:5F:15:C5:53:4E:AD:E9:77:3F
            X509v3 Extended Key Usage: 
                TLS Web Client Authentication
            X509v3 Key Usage: 
                Digital Signature
    Signature Algorithm: sha256WithRSAEncryption
    Signature Value:
        60:51:4f:78:58:86:61:7e:91:a0:6d:3e:7e:74:c0:3b:da:64:
        4a:35:67:f0:6b:fc:1b:10:07:24:f1:82:d3:ca:e2:6b:fb:65:
        56:bb:b0:fa:2f:c1:3e:04:00:fa:1c:08:8a:39:15:87:af:3c:
        e3:e4:ca:e8:9e:eb:7e:f6:a5:7e:ba:30:0b:b5:e8:36:1a:f1:
        bc:8b:46:b1:d4:38:9f:fa:ae:0f:4d:0e:ec:20:a9:8c:ea:1f:
        11:8a:b0:f8:79:c3:4d:bb:76:a8:c8:7d:cb:95:86:2c:0e:63:
        7f:60:97:5a:34:7c:03:c0:57:d5:19:be:2f:7c:7b:c0:62:04:
        59:a3:19:1f:06:5f:5a:75:b1:96:a6:5f:7b:c9:8c:90:85:d6:
        5b:3c:f5:8a:8c:b6:29:53:d2:53:f1:be:cf:bd:a9:35:e4:2a:
        d1:3a:6c:11:24:c6:91:6a:0a:a7:f3:73:88:28:9e:1c:3c:e7:
        ce:dd:16:9d:40:e0:51:26:bb:25:bc:1e:7a:ef:71:6b:19:bf:
        8c:fe:5f:8e:92:9e:8b:85:0f:88:b2:6e:fe:5e:96:cd:68:d3:
        0c:5a:d6:f6:a3:23:f8:47:0c:0b:c7:e3:ec:08:07:49:61:e8:
        1f:b7:91:0a:cc:d0:19:a5:ff:6c:b9:a7:63:b0:26:a7:c5:3a:
        a2:5e:46:cd
-----BEGIN CERTIFICATE-----
MIIDXTCCAkWgAwIBAgIRAKZN991l/DSLidLS8oO+5+IwDQYJKoZIhvcNAQELBQAw
FjEUMBIGA1UEAwwLdGVhbTEzMS1uZXQwHhcNMjMxMTA0MTA0MjU3WhcNMjYxMDE5
MTA0MjU3WjAZMRcwFQYDVQQDDA50ZWFtMTMxLWNsaWVudDCCASIwDQYJKoZIhvcN
AQEBBQADggEPADCCAQoCggEBAKoJ7ZEPG08Wub1YJ+FNAvwoCjeh7misqHtwe4zP
LZcof2KW1wrVAH/fzLhqZ70DZJ+byq1sWbaCH8oTqCKWEc6m0lv/2YLVzI5q8Z+M
LgdBphQdEeNvCiHYfSsHXNZLL0hvQkNMSoH6W8fitpVcg1bt8vVH5yLGGc0KL+A5
AbUi+qzqPBHXZDg/YLUQE+/BdnWSovFe3Wj4TKik8iNOEp0JgIPYzNZe+1tG8bRT
RyUPlCwWnhYdGCX7ySZ6p4cPc+XsfRdXY5pJCUna9DifF8t3T8WRBPH/FY6+AlOo
8zHxEmkl1vBYNfyveRt3G2Sdue0tMaZwR5KnG8nyfLDPAbsCAwEAAaOBojCBnzAJ
BgNVHRMEAjAAMB0GA1UdDgQWBBQMV3TC7iz+iPnjgnapRR7g5hCneTBRBgNVHSME
SjBIgBSE5tDFPWrB9Q35wk9pKvuZvMin7KEapBgwFjEUMBIGA1UEAwwLdGVhbTEz
MS1uZXSCFDdVRluh1THRMI6AXxXFU06t6Xc/MBMGA1UdJQQMMAoGCCsGAQUFBwMC
MAsGA1UdDwQEAwIHgDANBgkqhkiG9w0BAQsFAAOCAQEAYFFPeFiGYX6RoG0+fnTA
O9pkSjVn8Gv8GxAHJPGC08ria/tlVruw+i/BPgQA+hwIijkVh6884+TK6J7rfval
frowC7XoNhrxvItGsdQ4n/quD00O7CCpjOofEYqw+HnDTbt2qMh9y5WGLA5jf2CX
WjR8A8BX1Rm+L3x7wGIEWaMZHwZfWnWxlqZfe8mMkIXWWzz1ioy2KVPSU/G+z72p
NeQq0TpsESTGkWoKp/NziCieHDznzt0WnUDgUSa7Jbweeu9xaxm/jP5fjpKei4UP
iLJu/l6WzWjTDFrW9qMj+EcMC8fj7AgHSWHoH7eRCszQGaX/bLmnY7Amp8U6ol5G
zQ==
-----END CERTIFICATE-----
