Certificate:
    Data:
        Version: 3 (0x2)
        Serial Number:
            d4:ce:0f:37:13:fe:e0:3e:68:c3:b7:a9:bc:1a:00:06
        Signature Algorithm: sha256WithRSAEncryption
        Issuer: CN=team131-net
        Validity
            Not Before: Nov  3 20:41:33 2023 GMT
            Not After : Oct 18 20:41:33 2026 GMT
        Subject: CN=team131-client
        Subject Public Key Info:
            Public Key Algorithm: rsaEncryption
                Public-Key: (2048 bit)
                Modulus:
                    00:b8:87:f6:d0:d8:ba:4c:da:fd:42:a8:f1:12:65:
                    21:c3:39:f8:44:05:50:08:04:d7:5b:6b:20:10:1d:
                    e7:4d:b8:51:26:c1:17:67:70:be:9d:35:3e:19:b5:
                    42:9d:99:f1:af:e0:95:3b:0a:fb:c2:11:2b:19:0a:
                    4b:90:15:ac:74:52:c9:d1:e2:db:a0:68:2d:b0:f4:
                    12:7e:ee:82:df:50:8a:bc:d8:79:ed:ef:31:e0:72:
                    d9:42:01:bd:ac:63:90:50:4f:89:af:75:7d:e4:5c:
                    5a:cb:1e:fc:4a:08:97:a6:6d:5a:e9:81:8f:91:70:
                    b0:b5:37:a3:77:ad:6c:45:57:a7:11:ae:ca:46:1e:
                    68:de:69:1d:35:e7:28:04:d1:9c:b9:1e:f1:93:30:
                    67:e1:4a:a7:99:dc:d6:d7:9c:3b:30:76:27:b5:7d:
                    fb:03:c5:22:37:ba:ea:3f:6f:c2:b0:a3:18:7c:8a:
                    24:63:ed:99:86:5c:01:ce:b0:08:1a:58:91:2e:6e:
                    56:a4:f8:44:ff:70:1a:fd:d7:32:22:59:a5:01:a8:
                    30:ba:85:fe:01:99:c0:e2:62:16:38:bd:ce:56:4f:
                    ab:79:ef:09:29:11:ca:b6:84:2c:16:6e:4d:86:fd:
                    e0:e5:bd:7e:3d:c1:2f:6e:da:51:b1:24:e8:76:33:
                    fc:e1
                Exponent: 65537 (0x10001)
        X509v3 extensions:
            X509v3 Basic Constraints: 
                CA:FALSE
            X509v3 Subject Key Identifier: 
                BE:2D:8C:0B:2C:0D:4C:38:40:4B:96:08:93:A6:BB:9A:2C:13:02:6D
            X509v3 Authority Key Identifier: 
                keyid:68:57:FC:E5:C2:80:10:F4:64:37:60:C7:98:C4:EA:BA:AA:62:68:DB
                DirName:/CN=team131-net
                serial:41:8E:0D:76:A9:48:99:05:33:BD:1B:4C:13:54:7A:DD:7F:85:94:9F
            X509v3 Extended Key Usage: 
                TLS Web Client Authentication
            X509v3 Key Usage: 
                Digital Signature
    Signature Algorithm: sha256WithRSAEncryption
    Signature Value:
        bd:72:c3:4c:7a:7f:0f:f5:dc:29:a0:10:d9:6d:8f:eb:21:7a:
        7c:f3:c7:ee:c0:66:e2:3b:2a:d4:2a:a8:22:f3:15:02:3c:d3:
        fa:04:b0:f1:d8:86:2e:c1:a4:54:9a:ee:a9:4b:3e:12:ab:f2:
        2c:1a:4d:14:85:58:b4:94:5b:0a:d8:01:77:c8:0d:b4:59:11:
        73:9b:5d:71:e2:44:19:ae:a5:e0:1b:e0:35:5b:04:a8:ed:07:
        40:20:3b:24:ef:67:4a:bd:29:17:4e:19:66:ee:1d:02:78:95:
        e8:37:d8:e4:85:6d:49:ab:21:71:a5:eb:e9:c7:1e:64:b2:9e:
        fd:ca:05:07:eb:af:9d:9e:a8:be:b4:d4:d9:04:8c:21:48:a6:
        0c:c0:b1:4e:50:d7:7b:3a:d2:00:cd:46:b0:25:ba:fa:db:4c:
        11:3b:a2:ce:9d:9b:43:0a:f5:0c:a0:5a:75:34:c5:66:5c:20:
        0f:39:85:d3:32:5a:ee:12:71:d0:f3:c3:22:60:4b:0e:c9:d1:
        7d:f9:a1:e5:ac:f7:6c:73:f5:54:d5:9f:23:18:11:e7:6d:db:
        93:9f:b2:8e:86:2c:6a:46:82:9d:88:4f:b8:d7:76:c1:9d:52:
        6c:a7:b5:f2:4b:47:fc:fc:41:a7:e8:bf:3d:e9:7e:c0:3d:80:
        9a:6b:2f:4b
-----BEGIN CERTIFICATE-----
MIIDXTCCAkWgAwIBAgIRANTODzcT/uA+aMO3qbwaAAYwDQYJKoZIhvcNAQELBQAw
FjEUMBIGA1UEAwwLdGVhbTEzMS1uZXQwHhcNMjMxMTAzMjA0MTMzWhcNMjYxMDE4
MjA0MTMzWjAZMRcwFQYDVQQDDA50ZWFtMTMxLWNsaWVudDCCASIwDQYJKoZIhvcN
AQEBBQADggEPADCCAQoCggEBALiH9tDYukza/UKo8RJlIcM5+EQFUAgE11trIBAd
5024USbBF2dwvp01Phm1Qp2Z8a/glTsK+8IRKxkKS5AVrHRSydHi26BoLbD0En7u
gt9QirzYee3vMeBy2UIBvaxjkFBPia91feRcWsse/EoIl6ZtWumBj5FwsLU3o3et
bEVXpxGuykYeaN5pHTXnKATRnLke8ZMwZ+FKp5nc1tecOzB2J7V9+wPFIje66j9v
wrCjGHyKJGPtmYZcAc6wCBpYkS5uVqT4RP9wGv3XMiJZpQGoMLqF/gGZwOJiFji9
zlZPq3nvCSkRyraELBZuTYb94OW9fj3BL27aUbEk6HYz/OECAwEAAaOBojCBnzAJ
BgNVHRMEAjAAMB0GA1UdDgQWBBS+LYwLLA1MOEBLlgiTpruaLBMCbTBRBgNVHSME
SjBIgBRoV/zlwoAQ9GQ3YMeYxOq6qmJo26EapBgwFjEUMBIGA1UEAwwLdGVhbTEz
MS1uZXSCFEGODXapSJkFM70bTBNUet1/hZSfMBMGA1UdJQQMMAoGCCsGAQUFBwMC
MAsGA1UdDwQEAwIHgDANBgkqhkiG9w0BAQsFAAOCAQEAvXLDTHp/D/XcKaAQ2W2P
6yF6fPPH7sBm4jsq1CqoIvMVAjzT+gSw8diGLsGkVJruqUs+EqvyLBpNFIVYtJRb
CtgBd8gNtFkRc5tdceJEGa6l4BvgNVsEqO0HQCA7JO9nSr0pF04ZZu4dAniV6DfY
5IVtSashcaXr6cceZLKe/coFB+uvnZ6ovrTU2QSMIUimDMCxTlDXezrSAM1GsCW6
+ttMETuizp2bQwr1DKBadTTFZlwgDzmF0zJa7hJx0PPDImBLDsnRffmh5az3bHP1
VNWfIxgR523bk5+yjoYsakaCnYhPuNd2wZ1SbKe18ktH/PxBp+i/Pel+wD2Ammsv
Sw==
-----END CERTIFICATE-----
