Certificate:
    Data:
        Version: 3 (0x2)
        Serial Number:
            1e:11:05:a2:02:60:17:04:b4:a4:19:01:a2:fa:b2:22
        Signature Algorithm: sha256WithRSAEncryption
        Issuer: CN=team25-net
        Validity
            Not Before: Nov  4 10:40:41 2023 GMT
            Not After : Oct 19 10:40:41 2026 GMT
        Subject: CN=team25-client
        Subject Public Key Info:
            Public Key Algorithm: rsaEncryption
                Public-Key: (2048 bit)
                Modulus:
                    00:b3:13:dc:c3:e7:fe:49:e6:ea:dc:ac:39:87:5e:
                    4b:7a:33:ad:52:34:85:2f:c0:b1:7f:42:2a:1d:eb:
                    09:11:3a:f5:3f:cf:a1:5d:84:91:f6:d1:ea:1e:63:
                    bd:36:2e:3e:8e:a7:dc:ef:a1:43:47:c6:b5:c5:c1:
                    41:aa:f0:c7:55:c6:bf:72:39:66:a3:ab:78:cf:b8:
                    07:98:87:b5:f0:55:d0:ce:e8:e1:13:82:36:02:74:
                    a6:d7:d4:a7:43:81:bf:35:c7:0e:03:af:ac:9c:98:
                    4c:6d:bf:f8:43:71:1b:aa:a3:1d:9d:3b:a4:45:84:
                    cb:c1:77:9b:d8:19:a7:55:96:0b:e0:19:60:51:de:
                    2c:3c:1c:f5:e6:75:0a:03:13:15:eb:08:37:6e:01:
                    ca:ae:36:7b:b5:22:88:f8:b5:5b:60:56:ae:94:13:
                    e1:36:93:ec:1b:12:1c:11:6f:2d:9a:dc:fc:91:8b:
                    61:98:55:81:67:00:7b:07:ed:6f:50:9f:a6:d7:cc:
                    b7:14:ab:49:cb:de:34:61:43:df:68:4d:20:42:26:
                    03:55:cb:34:43:0b:2f:4e:7e:77:8b:0f:85:a7:5e:
                    a1:cc:02:ca:9b:77:9a:58:88:8e:c2:01:fb:07:b4:
                    b2:bc:ff:15:a8:a3:8f:72:60:2b:1a:21:4d:45:af:
                    a2:21
                Exponent: 65537 (0x10001)
        X509v3 extensions:
            X509v3 Basic Constraints: 
                CA:FALSE
            X509v3 Subject Key Identifier: 
                06:D5:9C:FF:03:9F:ED:2E:34:BF:C4:71:53:53:34:79:19:66:2E:BB
            X509v3 Authority Key Identifier: 
                keyid:35:11:12:4C:0B:B9:2A:26:7C:AA:FA:2F:6D:8B:67:56:01:A2:13:85
                DirName:/CN=team25-net
                serial:11:7A:21:9A:76:04:38:97:FB:F5:53:D5:5C:99:41:D5:4B:A8:08:8A
            X509v3 Extended Key Usage: 
                TLS Web Client Authentication
            X509v3 Key Usage: 
                Digital Signature
    Signature Algorithm: sha256WithRSAEncryption
    Signature Value:
        a7:4b:39:e2:59:db:6b:3b:f7:b0:fd:67:cc:de:93:26:ec:38:
        03:be:df:10:cc:fd:1e:63:aa:cc:0d:76:27:e8:a1:4a:c4:3e:
        13:99:c8:46:c2:2b:0a:18:52:5e:ca:71:cf:63:9e:03:81:36:
        99:82:67:46:1d:05:ee:34:9d:55:b3:23:15:11:e9:f2:b4:88:
        e3:0b:83:77:e3:9f:be:a7:9c:16:1b:e0:12:38:ea:e2:ee:ea:
        dd:97:f0:2c:b2:8b:65:54:b3:a0:84:43:ff:eb:71:84:5c:cc:
        a8:ab:11:b3:68:f8:76:9f:b1:44:61:37:b2:e8:91:8e:61:32:
        e0:07:2a:65:1d:2d:02:ee:fc:47:e9:b2:aa:0b:a1:58:36:53:
        6e:f3:71:3e:17:51:87:11:23:cb:46:a2:e6:0b:c4:e0:a4:75:
        7d:bd:31:a2:ed:46:0a:5f:a0:80:c0:0e:70:6f:a3:ad:c1:f8:
        bc:dc:7f:4f:80:8e:df:42:9c:32:ef:f0:c2:4a:60:22:94:14:
        96:13:ad:e8:26:ba:e2:8b:86:a8:06:a0:36:51:b9:9d:4f:09:
        7f:ba:51:33:aa:b5:2a:1d:a8:c5:26:f6:8f:b2:8e:23:ff:73:
        96:8b:9e:8e:f7:9a:eb:fd:c6:91:d0:24:19:e4:2a:fb:1b:80:
        aa:73:68:b4
-----BEGIN CERTIFICATE-----
MIIDWTCCAkGgAwIBAgIQHhEFogJgFwS0pBkBovqyIjANBgkqhkiG9w0BAQsFADAV
MRMwEQYDVQQDDAp0ZWFtMjUtbmV0MB4XDTIzMTEwNDEwNDA0MVoXDTI2MTAxOTEw
NDA0MVowGDEWMBQGA1UEAwwNdGVhbTI1LWNsaWVudDCCASIwDQYJKoZIhvcNAQEB
BQADggEPADCCAQoCggEBALMT3MPn/knm6tysOYdeS3ozrVI0hS/AsX9CKh3rCRE6
9T/PoV2EkfbR6h5jvTYuPo6n3O+hQ0fGtcXBQarwx1XGv3I5ZqOreM+4B5iHtfBV
0M7o4ROCNgJ0ptfUp0OBvzXHDgOvrJyYTG2/+ENxG6qjHZ07pEWEy8F3m9gZp1WW
C+AZYFHeLDwc9eZ1CgMTFesIN24Byq42e7UiiPi1W2BWrpQT4TaT7BsSHBFvLZrc
/JGLYZhVgWcAewftb1CfptfMtxSrScveNGFD32hNIEImA1XLNEMLL05+d4sPhade
ocwCypt3mliIjsIB+we0srz/Faijj3JgKxohTUWvoiECAwEAAaOBoTCBnjAJBgNV
HRMEAjAAMB0GA1UdDgQWBBQG1Zz/A5/tLjS/xHFTUzR5GWYuuzBQBgNVHSMESTBH
gBQ1ERJMC7kqJnyq+i9ti2dWAaIThaEZpBcwFTETMBEGA1UEAwwKdGVhbTI1LW5l
dIIUEXohmnYEOJf79VPVXJlB1UuoCIowEwYDVR0lBAwwCgYIKwYBBQUHAwIwCwYD
VR0PBAQDAgeAMA0GCSqGSIb3DQEBCwUAA4IBAQCnSzniWdtrO/ew/WfM3pMm7DgD
vt8QzP0eY6rMDXYn6KFKxD4TmchGwisKGFJeynHPY54DgTaZgmdGHQXuNJ1VsyMV
EenytIjjC4N345++p5wWG+ASOOri7urdl/AssotlVLOghEP/63GEXMyoqxGzaPh2
n7FEYTey6JGOYTLgByplHS0C7vxH6bKqC6FYNlNu83E+F1GHESPLRqLmC8TgpHV9
vTGi7UYKX6CAwA5wb6Otwfi83H9PgI7fQpwy7/DCSmAilBSWE63oJrrii4aoBqA2
UbmdTwl/ulEzqrUqHajFJvaPso4j/3OWi56O95rr/caR0CQZ5Cr7G4Cqc2i0
-----END CERTIFICATE-----
