Certificate:
    Data:
        Version: 3 (0x2)
        Serial Number:
            51:9c:d4:7b:7a:44:5f:b5:d9:1c:4f:d7:8f:2a:f8:a5
        Signature Algorithm: sha256WithRSAEncryption
        Issuer: CN=team25-net
        Validity
            Not Before: Nov  3 20:39:42 2023 GMT
            Not After : Oct 18 20:39:42 2026 GMT
        Subject: CN=team25-client
        Subject Public Key Info:
            Public Key Algorithm: rsaEncryption
                Public-Key: (2048 bit)
                Modulus:
                    00:8b:53:3d:30:a9:f5:9b:80:c1:b5:64:6b:60:54:
                    23:ab:55:1c:01:0f:5e:24:d4:07:66:eb:1f:b4:2e:
                    7c:c4:46:6d:80:e7:8f:0f:33:18:7e:86:80:8b:3d:
                    db:4e:59:62:69:d3:c3:dc:1a:44:39:34:5b:8c:ad:
                    20:82:d5:a3:da:75:e2:d9:7c:3c:19:56:f6:bd:d4:
                    c3:e4:33:c4:5a:a7:64:1c:bf:e7:81:53:79:89:3e:
                    1c:de:8a:90:9f:ca:4a:65:d8:61:3f:33:7b:21:57:
                    f2:69:14:ab:fa:6d:3a:34:08:28:31:cb:c8:f1:db:
                    e3:a7:47:65:51:4c:7a:d9:86:c5:db:de:c7:61:f9:
                    10:e9:a6:2e:4d:3a:78:d1:da:c5:6f:4d:f2:35:cd:
                    ab:47:5b:e4:da:7d:d9:44:4a:d2:c4:78:62:a0:20:
                    cd:eb:2f:40:5a:21:00:6b:68:3e:a2:ba:8c:a2:86:
                    2d:0b:69:2f:8f:61:f9:b6:6e:39:0d:de:3d:49:6a:
                    11:cb:b1:aa:67:64:1f:8c:19:f3:0b:63:db:22:31:
                    5c:d3:98:2a:e6:04:36:dd:a3:65:eb:ef:01:5e:3b:
                    e5:69:fc:23:69:cd:b1:04:81:da:56:eb:1c:16:2d:
                    3e:be:59:e8:88:dd:a9:9b:f2:de:bf:00:b0:5e:6e:
                    fd:c1
                Exponent: 65537 (0x10001)
        X509v3 extensions:
            X509v3 Basic Constraints: 
                CA:FALSE
            X509v3 Subject Key Identifier: 
                0C:30:22:3C:8D:46:E6:CC:B8:94:5B:9F:63:14:F4:EC:2B:06:BB:78
            X509v3 Authority Key Identifier: 
                keyid:8A:B2:9E:62:DF:92:BB:C2:6A:AC:80:5A:99:98:8C:E2:DE:BC:AA:52
                DirName:/CN=team25-net
                serial:2F:E6:7F:E8:DF:EC:6A:2B:A8:C7:2E:8E:34:B2:BD:F6:80:90:BE:C2
            X509v3 Extended Key Usage: 
                TLS Web Client Authentication
            X509v3 Key Usage: 
                Digital Signature
    Signature Algorithm: sha256WithRSAEncryption
    Signature Value:
        00:b0:5c:ce:a5:f2:4d:12:c7:93:07:f4:ae:d6:6e:bf:fd:0f:
        24:de:c8:b8:47:e2:5e:06:a9:e3:80:2c:ec:ea:58:ea:fa:52:
        65:bd:f0:16:6e:ff:d6:be:cc:06:12:72:41:20:cb:23:d0:e8:
        76:8d:7a:77:47:57:81:8d:2e:94:41:aa:94:3f:b3:3b:68:62:
        d2:ab:d2:b4:14:4d:66:d4:da:f7:8f:7a:98:31:39:c0:20:41:
        fe:27:95:9e:b1:4f:cd:0a:2c:98:a8:5d:d7:2e:e0:fd:e9:4b:
        ea:16:bd:74:4e:ce:b8:a8:1e:17:ec:93:b7:ac:7b:e3:f4:2f:
        b9:a3:56:48:ee:0f:0b:52:2c:5a:14:bf:f8:d5:b3:33:d2:c2:
        58:7b:6f:ef:b6:f0:bf:39:17:11:0b:c1:9b:2e:86:4a:8a:ad:
        33:e4:2c:55:00:d1:a6:9d:71:d9:53:3e:a8:d9:87:12:df:19:
        ad:44:ec:70:fe:de:39:3d:66:3b:7c:96:57:07:c6:be:7d:b8:
        78:75:e1:89:8a:41:8a:8a:67:5e:20:14:a5:a3:38:be:21:16:
        b0:f2:2a:b6:4a:37:d6:b1:d6:da:96:d3:a2:d6:f9:bd:b4:06:
        81:8d:cd:a5:a3:46:d9:66:36:d8:a1:95:6e:74:fb:64:5a:be:
        56:4c:c2:b9
-----BEGIN CERTIFICATE-----
MIIDWTCCAkGgAwIBAgIQUZzUe3pEX7XZHE/Xjyr4pTANBgkqhkiG9w0BAQsFADAV
MRMwEQYDVQQDDAp0ZWFtMjUtbmV0MB4XDTIzMTEwMzIwMzk0MloXDTI2MTAxODIw
Mzk0MlowGDEWMBQGA1UEAwwNdGVhbTI1LWNsaWVudDCCASIwDQYJKoZIhvcNAQEB
BQADggEPADCCAQoCggEBAItTPTCp9ZuAwbVka2BUI6tVHAEPXiTUB2brH7QufMRG
bYDnjw8zGH6GgIs9205ZYmnTw9waRDk0W4ytIILVo9p14tl8PBlW9r3Uw+QzxFqn
ZBy/54FTeYk+HN6KkJ/KSmXYYT8zeyFX8mkUq/ptOjQIKDHLyPHb46dHZVFMetmG
xdvex2H5EOmmLk06eNHaxW9N8jXNq0db5Np92URK0sR4YqAgzesvQFohAGtoPqK6
jKKGLQtpL49h+bZuOQ3ePUlqEcuxqmdkH4wZ8wtj2yIxXNOYKuYENt2jZevvAV47
5Wn8I2nNsQSB2lbrHBYtPr5Z6IjdqZvy3r8AsF5u/cECAwEAAaOBoTCBnjAJBgNV
HRMEAjAAMB0GA1UdDgQWBBQMMCI8jUbmzLiUW59jFPTsKwa7eDBQBgNVHSMESTBH
gBSKsp5i35K7wmqsgFqZmIzi3ryqUqEZpBcwFTETMBEGA1UEAwwKdGVhbTI1LW5l
dIIUL+Z/6N/saiuoxy6ONLK99oCQvsIwEwYDVR0lBAwwCgYIKwYBBQUHAwIwCwYD
VR0PBAQDAgeAMA0GCSqGSIb3DQEBCwUAA4IBAQAAsFzOpfJNEseTB/Su1m6//Q8k
3si4R+JeBqnjgCzs6ljq+lJlvfAWbv/WvswGEnJBIMsj0Oh2jXp3R1eBjS6UQaqU
P7M7aGLSq9K0FE1m1Nr3j3qYMTnAIEH+J5WesU/NCiyYqF3XLuD96UvqFr10Ts64
qB4X7JO3rHvj9C+5o1ZI7g8LUixaFL/41bMz0sJYe2/vtvC/ORcRC8GbLoZKiq0z
5CxVANGmnXHZUz6o2YcS3xmtROxw/t45PWY7fJZXB8a+fbh4deGJikGKimdeIBSl
ozi+IRaw8iq2SjfWsdbaltOi1vm9tAaBjc2lo0bZZjbYoZVudPtkWr5WTMK5
-----END CERTIFICATE-----
