Certificate:
    Data:
        Version: 3 (0x2)
        Serial Number:
            83:36:71:01:f0:15:6a:dc:9d:b6:e8:53:37:50:80:0d
        Signature Algorithm: sha256WithRSAEncryption
        Issuer: CN=team25-net
        Validity
            Not Before: Nov  3 20:39:42 2023 GMT
            Not After : Oct 18 20:39:42 2026 GMT
        Subject: CN=team25-server
        Subject Public Key Info:
            Public Key Algorithm: rsaEncryption
                Public-Key: (2048 bit)
                Modulus:
                    00:d5:cc:f0:4e:63:3f:49:d8:c9:30:be:a2:e4:66:
                    2e:ed:45:3e:11:53:88:21:85:1d:09:32:1e:39:15:
                    ab:2b:ed:92:46:c7:6d:cf:e7:8e:f4:78:cf:a1:e4:
                    99:bb:ac:51:1d:03:47:3b:55:89:97:21:bb:5f:b3:
                    fb:60:1e:f9:52:f9:ee:57:e1:8d:63:6e:59:92:6b:
                    c1:9b:43:45:86:63:36:21:33:79:08:a2:24:96:ab:
                    6c:db:b2:2a:f1:0a:5e:8b:f1:1c:af:fa:83:88:ba:
                    6e:2a:f7:1e:b5:d5:b9:09:65:e3:b1:b7:12:3c:29:
                    95:a9:01:1a:10:2c:78:74:a7:e1:9d:f4:a4:af:96:
                    fa:7e:c6:88:cc:80:d6:59:4c:46:60:67:24:c4:f5:
                    0f:e3:a2:e3:a5:05:cf:cb:94:e7:b6:7d:5f:c0:a3:
                    54:37:6b:a2:b7:a4:3c:75:23:3d:2f:32:d9:a5:78:
                    f5:92:b9:04:82:33:81:b2:b5:ef:59:57:e4:9a:79:
                    df:4d:47:80:a3:fc:53:bd:bc:26:bf:5a:9c:27:5c:
                    12:3f:8e:29:e2:bf:37:8d:c6:3b:cf:06:80:03:bc:
                    82:c7:e1:8f:a2:59:82:da:d9:d3:39:34:a9:70:08:
                    3f:eb:b3:fc:b5:4f:4a:c3:ec:eb:13:e9:13:ca:1d:
                    bd:4d
                Exponent: 65537 (0x10001)
        X509v3 extensions:
            X509v3 Basic Constraints: 
                CA:FALSE
            X509v3 Subject Key Identifier: 
                E2:38:49:B6:C0:E5:0F:06:8D:C2:DC:A3:16:D2:26:68:A4:4A:AE:10
            X509v3 Authority Key Identifier: 
                keyid:8A:B2:9E:62:DF:92:BB:C2:6A:AC:80:5A:99:98:8C:E2:DE:BC:AA:52
                DirName:/CN=team25-net
                serial:2F:E6:7F:E8:DF:EC:6A:2B:A8:C7:2E:8E:34:B2:BD:F6:80:90:BE:C2
            X509v3 Extended Key Usage: 
                TLS Web Server Authentication
            X509v3 Key Usage: 
                Digital Signature, Key Encipherment
            X509v3 Subject Alternative Name: 
                DNS:team25-server
    Signature Algorithm: sha256WithRSAEncryption
    Signature Value:
        33:2d:f5:54:5d:1c:34:bc:83:13:c2:f6:49:d4:8c:23:be:ca:
        fb:52:cb:95:fc:0d:fa:09:c0:3e:e5:61:af:67:a3:90:55:df:
        8e:11:0e:70:8a:9d:26:7e:54:85:b0:27:6b:6c:3c:5b:a6:83:
        10:29:7b:bd:a0:5c:87:aa:91:3f:ed:cd:b3:07:ec:02:13:3c:
        6f:3d:07:47:8a:53:74:b6:84:dd:a6:70:43:cf:4f:83:4b:b4:
        16:1c:73:37:e6:70:13:43:a7:52:b3:33:b6:c2:7e:42:bf:64:
        cf:81:49:65:4e:c1:c2:73:a7:fb:89:04:96:21:c6:11:9c:3b:
        b9:02:b9:7f:ce:10:23:c6:4f:43:1c:29:f0:73:00:5b:08:01:
        a6:3e:ac:73:43:c9:03:d9:b9:68:1e:6d:5f:7d:91:15:16:e5:
        ef:92:7d:63:94:8d:fb:0f:f0:ea:d8:4e:fd:c6:f1:b6:8b:c6:
        79:47:67:ff:9d:ba:11:c0:1e:51:7e:91:75:3b:73:cd:8c:ce:
        86:08:84:bd:1c:5d:2a:ed:de:55:8c:a0:df:a5:1d:bb:36:fb:
        ec:0c:87:94:3d:39:1c:5a:7c:d9:6d:9d:8b:21:43:1d:ef:93:
        0c:11:23:14:d2:64:57:5e:b7:ee:90:fa:ad:4d:84:ea:44:9b:
        67:69:ab:c8
-----BEGIN CERTIFICATE-----
MIIDdDCCAlygAwIBAgIRAIM2cQHwFWrcnbboUzdQgA0wDQYJKoZIhvcNAQELBQAw
FTETMBEGA1UEAwwKdGVhbTI1LW5ldDAeFw0yMzExMDMyMDM5NDJaFw0yNjEwMTgy
MDM5NDJaMBgxFjAUBgNVBAMMDXRlYW0yNS1zZXJ2ZXIwggEiMA0GCSqGSIb3DQEB
AQUAA4IBDwAwggEKAoIBAQDVzPBOYz9J2MkwvqLkZi7tRT4RU4ghhR0JMh45Fasr
7ZJGx23P5470eM+h5Jm7rFEdA0c7VYmXIbtfs/tgHvlS+e5X4Y1jblmSa8GbQ0WG
YzYhM3kIoiSWq2zbsirxCl6L8Ryv+oOIum4q9x611bkJZeOxtxI8KZWpARoQLHh0
p+Gd9KSvlvp+xojMgNZZTEZgZyTE9Q/jouOlBc/LlOe2fV/Ao1Q3a6K3pDx1Iz0v
MtmlePWSuQSCM4Gyte9ZV+Saed9NR4Cj/FO9vCa/WpwnXBI/jinivzeNxjvPBoAD
vILH4Y+iWYLa2dM5NKlwCD/rs/y1T0rD7OsT6RPKHb1NAgMBAAGjgbswgbgwCQYD
VR0TBAIwADAdBgNVHQ4EFgQU4jhJtsDlDwaNwtyjFtImaKRKrhAwUAYDVR0jBEkw
R4AUirKeYt+Su8JqrIBamZiM4t68qlKhGaQXMBUxEzARBgNVBAMMCnRlYW0yNS1u
ZXSCFC/mf+jf7GorqMcujjSyvfaAkL7CMBMGA1UdJQQMMAoGCCsGAQUFBwMBMAsG
A1UdDwQEAwIFoDAYBgNVHREEETAPgg10ZWFtMjUtc2VydmVyMA0GCSqGSIb3DQEB
CwUAA4IBAQAzLfVUXRw0vIMTwvZJ1Iwjvsr7UsuV/A36CcA+5WGvZ6OQVd+OEQ5w
ip0mflSFsCdrbDxbpoMQKXu9oFyHqpE/7c2zB+wCEzxvPQdHilN0toTdpnBDz0+D
S7QWHHM35nATQ6dSszO2wn5Cv2TPgUllTsHCc6f7iQSWIcYRnDu5Arl/zhAjxk9D
HCnwcwBbCAGmPqxzQ8kD2bloHm1ffZEVFuXvkn1jlI37D/Dq2E79xvG2i8Z5R2f/
nboRwB5RfpF1O3PNjM6GCIS9HF0q7d5VjKDfpR27NvvsDIeUPTkcWnzZbZ2LIUMd
75MMESMU0mRXXrfukPqtTYTqRJtnaavI
-----END CERTIFICATE-----
