Certificate:
    Data:
        Version: 3 (0x2)
        Serial Number:
            e5:ac:d0:42:20:3c:4f:2c:ae:aa:f7:97:55:83:bc:1e
        Signature Algorithm: sha256WithRSAEncryption
        Issuer: CN=team25-net
        Validity
            Not Before: Nov  4 11:27:50 2023 GMT
            Not After : Oct 19 11:27:50 2026 GMT
        Subject: CN=team25-server
        Subject Public Key Info:
            Public Key Algorithm: rsaEncryption
                Public-Key: (2048 bit)
                Modulus:
                    00:c1:4a:77:1e:a6:97:83:47:ec:38:cc:de:ae:b2:
                    23:33:0c:d7:31:47:10:89:9a:e4:b0:7f:62:88:2e:
                    7e:79:b1:87:3c:0c:0a:95:3e:b6:2b:5d:1a:20:93:
                    4e:a5:2d:93:99:e5:f3:73:25:4b:34:1f:d2:c5:64:
                    82:9f:a4:cc:e2:96:60:c1:97:ab:9d:58:9e:dd:cc:
                    9c:a5:70:0f:b6:c2:0a:b0:ab:8b:b4:9a:48:b8:83:
                    c6:95:11:2b:fa:e5:15:a8:08:c3:01:08:5f:83:47:
                    d8:11:b8:7b:cf:62:a2:06:7e:dd:58:12:45:50:c1:
                    6a:91:31:95:08:d8:ba:cd:0a:c7:75:b3:cf:6e:e9:
                    fd:3f:68:9e:c5:83:73:b9:70:49:01:13:5f:2e:b9:
                    36:08:63:99:4f:95:a5:4e:13:9b:f1:11:50:af:d8:
                    d0:7d:05:1c:f6:61:59:0f:c9:c9:41:3f:e2:93:ef:
                    f1:c7:1c:79:e0:53:8f:33:eb:30:28:23:a1:9a:1c:
                    01:00:de:73:e5:28:9b:f5:04:07:cf:7e:54:cc:2d:
                    a4:b3:b2:be:f0:89:78:16:75:03:94:03:fd:b5:5f:
                    c9:4d:e6:06:b3:c9:70:19:1c:5c:f5:95:f0:ad:f4:
                    8a:f8:43:41:a0:50:fa:10:d9:9b:08:7d:6e:d9:57:
                    21:cb
                Exponent: 65537 (0x10001)
        X509v3 extensions:
            X509v3 Basic Constraints: 
                CA:FALSE
            X509v3 Subject Key Identifier: 
                B5:BB:80:EC:0A:72:79:77:F2:46:7B:76:90:A1:B6:47:4C:09:3A:DA
            X509v3 Authority Key Identifier: 
                keyid:13:59:5C:AF:8B:85:EE:00:FB:83:FF:24:C9:99:29:EB:5D:35:AC:35
                DirName:/CN=team25-net
                serial:1F:E3:EF:B8:62:2B:F1:04:9F:40:2C:31:F1:21:95:28:9F:9C:22:4F
            X509v3 Extended Key Usage: 
                TLS Web Server Authentication
            X509v3 Key Usage: 
                Digital Signature, Key Encipherment
            X509v3 Subject Alternative Name: 
                DNS:team25-server
    Signature Algorithm: sha256WithRSAEncryption
    Signature Value:
        69:f7:42:83:61:9b:01:af:d5:75:55:76:5d:d1:85:c7:af:81:
        71:0f:b6:79:e8:2f:67:ae:f5:15:90:77:2a:8c:58:8c:b5:ca:
        43:0a:06:d8:96:eb:95:be:35:2f:eb:15:fa:3a:e5:28:45:6d:
        c2:46:f3:4b:26:5a:aa:bc:89:72:0d:b9:9a:a6:60:3a:58:a9:
        5b:91:ec:93:77:11:6c:dd:0f:b1:ea:80:ed:da:d5:7e:dc:2c:
        f8:c7:18:d0:c9:b8:c2:d5:06:fc:f4:2c:6c:15:47:03:24:1f:
        3c:81:2e:87:72:79:04:c7:28:ce:55:23:49:85:ac:3b:2a:ab:
        9b:f4:8e:c6:a2:2d:ce:b1:47:6d:3f:ce:8a:6b:8e:45:f6:0c:
        5b:29:35:23:10:c2:49:33:f2:86:a7:c8:cf:04:6a:2b:b1:6e:
        c3:c0:98:98:35:b1:97:17:d8:72:04:1d:b8:96:51:3a:d4:8e:
        43:f3:c5:0c:42:28:58:5a:f9:4e:20:49:2f:4b:e8:ec:26:7b:
        7c:54:80:41:69:3e:a0:fd:fe:37:1d:b3:a5:57:07:05:f2:bf:
        31:0a:7d:f7:85:7a:ac:b8:4d:27:2a:b8:c4:68:38:af:7e:af:
        d4:03:4e:a6:7a:0d:19:f4:e1:39:b9:63:9c:fa:ae:93:77:0d:
        d5:90:dc:51
-----BEGIN CERTIFICATE-----
MIIDdDCCAlygAwIBAgIRAOWs0EIgPE8srqr3l1WDvB4wDQYJKoZIhvcNAQELBQAw
FTETMBEGA1UEAwwKdGVhbTI1LW5ldDAeFw0yMzExMDQxMTI3NTBaFw0yNjEwMTkx
MTI3NTBaMBgxFjAUBgNVBAMMDXRlYW0yNS1zZXJ2ZXIwggEiMA0GCSqGSIb3DQEB
AQUAA4IBDwAwggEKAoIBAQDBSnceppeDR+w4zN6usiMzDNcxRxCJmuSwf2KILn55
sYc8DAqVPrYrXRogk06lLZOZ5fNzJUs0H9LFZIKfpMzilmDBl6udWJ7dzJylcA+2
wgqwq4u0mki4g8aVESv65RWoCMMBCF+DR9gRuHvPYqIGft1YEkVQwWqRMZUI2LrN
Csd1s89u6f0/aJ7Fg3O5cEkBE18uuTYIY5lPlaVOE5vxEVCv2NB9BRz2YVkPyclB
P+KT7/HHHHngU48z6zAoI6GaHAEA3nPlKJv1BAfPflTMLaSzsr7wiXgWdQOUA/21
X8lN5gazyXAZHFz1lfCt9Ir4Q0GgUPoQ2ZsIfW7ZVyHLAgMBAAGjgbswgbgwCQYD
VR0TBAIwADAdBgNVHQ4EFgQUtbuA7ApyeXfyRnt2kKG2R0wJOtowUAYDVR0jBEkw
R4AUE1lcr4uF7gD7g/8kyZkp6101rDWhGaQXMBUxEzARBgNVBAMMCnRlYW0yNS1u
ZXSCFB/j77hiK/EEn0AsMfEhlSifnCJPMBMGA1UdJQQMMAoGCCsGAQUFBwMBMAsG
A1UdDwQEAwIFoDAYBgNVHREEETAPgg10ZWFtMjUtc2VydmVyMA0GCSqGSIb3DQEB
CwUAA4IBAQBp90KDYZsBr9V1VXZd0YXHr4FxD7Z56C9nrvUVkHcqjFiMtcpDCgbY
luuVvjUv6xX6OuUoRW3CRvNLJlqqvIlyDbmapmA6WKlbkeyTdxFs3Q+x6oDt2tV+
3Cz4xxjQybjC1Qb89CxsFUcDJB88gS6HcnkExyjOVSNJhaw7Kqub9I7Goi3OsUdt
P86Ka45F9gxbKTUjEMJJM/KGp8jPBGorsW7DwJiYNbGXF9hyBB24llE61I5D88UM
QihYWvlOIEkvS+jsJnt8VIBBaT6g/f43HbOlVwcF8r8xCn33hXqsuE0nKrjEaDiv
fq/UA06meg0Z9OE5uWOc+q6Tdw3VkNxR
-----END CERTIFICATE-----
