Certificate:
    Data:
        Version: 3 (0x2)
        Serial Number:
            0f:36:0c:9f:d7:3a:9d:56:c8:14:62:27:0d:84:b3:56
        Signature Algorithm: sha256WithRSAEncryption
        Issuer: CN=team154-net
        Validity
            Not Before: Nov  3 20:41:59 2023 GMT
            Not After : Oct 18 20:41:59 2026 GMT
        Subject: CN=team154-client
        Subject Public Key Info:
            Public Key Algorithm: rsaEncryption
                Public-Key: (2048 bit)
                Modulus:
                    00:b4:93:12:cf:8e:60:cc:0b:9a:81:0d:48:84:7d:
                    e8:48:8b:12:9d:37:65:c0:eb:4f:be:f9:2a:05:d6:
                    6b:ef:af:8f:e7:86:b6:a1:fd:86:10:83:38:63:e4:
                    40:07:58:52:5c:05:a4:16:7c:04:c5:52:7f:93:cc:
                    ec:a6:dd:95:fe:d3:0f:8f:95:60:db:8e:86:c7:2f:
                    83:6d:86:f3:11:9b:c6:df:7e:73:35:24:77:c5:88:
                    7f:f9:08:84:d5:24:a3:26:eb:2c:7a:27:c1:39:82:
                    17:1b:70:54:16:76:2d:f0:43:3b:d0:03:52:1e:23:
                    65:6e:9c:7e:be:a6:42:10:0f:63:d0:e7:7c:63:10:
                    f2:ef:38:fb:f7:fa:11:75:94:bb:e4:24:93:5f:da:
                    f2:80:e5:81:48:fe:d6:80:8d:04:0c:86:d2:1a:02:
                    81:aa:62:83:4a:03:93:51:02:e2:9a:a4:62:53:89:
                    d5:3a:69:f0:3e:4c:bc:9e:d9:ba:7d:a2:b7:96:89:
                    01:a0:cf:9c:8a:ef:65:37:40:a1:6a:96:1c:65:2f:
                    c3:20:68:58:46:fc:68:c8:e6:ea:5c:d1:75:7c:3c:
                    f2:af:a3:65:fa:fc:66:96:7b:32:56:d8:0a:90:fe:
                    af:e7:73:dc:b4:b6:bb:9f:3e:ad:5e:10:c3:49:69:
                    c3:61
                Exponent: 65537 (0x10001)
        X509v3 extensions:
            X509v3 Basic Constraints: 
                CA:FALSE
            X509v3 Subject Key Identifier: 
                8A:E2:09:56:AD:2E:7B:81:92:B1:04:D4:E3:63:9B:30:24:03:D8:0B
            X509v3 Authority Key Identifier: 
                keyid:A8:18:B6:00:31:39:C9:A3:59:58:9F:B1:CC:D3:78:E4:F8:61:0A:93
                DirName:/CN=team154-net
                serial:73:7B:A1:22:3B:16:83:16:59:3D:6B:27:06:AF:02:A0:3D:9D:5B:CC
            X509v3 Extended Key Usage: 
                TLS Web Client Authentication
            X509v3 Key Usage: 
                Digital Signature
    Signature Algorithm: sha256WithRSAEncryption
    Signature Value:
        6a:ec:de:04:16:ab:bf:a1:4b:e6:3b:42:a3:72:51:fe:e8:f5:
        75:b0:60:eb:a4:74:4b:96:e6:2e:0e:6e:12:cf:6c:72:3a:3f:
        8a:aa:53:ce:27:16:02:ea:ff:ed:2b:c9:ad:bf:36:1c:46:15:
        0c:6e:eb:e3:0d:19:00:ee:43:94:3b:e9:2b:d8:04:14:fe:32:
        30:06:10:5d:4d:2e:24:05:d7:85:a8:aa:94:ff:75:c5:42:8d:
        2a:49:29:57:c5:82:8f:4f:cd:72:46:0d:47:1c:13:8a:98:67:
        c8:73:46:8e:3f:fd:19:df:89:98:23:17:e4:7c:7c:58:b5:13:
        f0:58:44:e4:b1:0b:29:88:5a:5d:76:4f:cb:01:99:c4:d1:09:
        e3:a3:02:19:bd:9b:5a:1c:c6:20:7c:52:7f:f4:64:54:76:73:
        85:00:f5:4b:5e:2e:d1:51:98:92:f3:83:0d:00:29:84:e6:19:
        b0:16:23:17:89:5b:25:3b:61:ee:d6:93:f6:72:ca:01:21:6a:
        0f:a6:c7:b6:3c:ff:a4:fd:78:f6:a2:dc:d4:b8:4a:d4:6e:e2:
        0c:5e:0f:0d:5d:d0:b5:8f:a8:d5:98:64:7d:4d:79:46:44:3f:
        1c:98:fd:ba:a2:63:8d:54:ae:25:8e:c2:e0:17:23:67:2f:60:
        b9:9e:48:28
-----BEGIN CERTIFICATE-----
MIIDXDCCAkSgAwIBAgIQDzYMn9c6nVbIFGInDYSzVjANBgkqhkiG9w0BAQsFADAW
MRQwEgYDVQQDDAt0ZWFtMTU0LW5ldDAeFw0yMzExMDMyMDQxNTlaFw0yNjEwMTgy
MDQxNTlaMBkxFzAVBgNVBAMMDnRlYW0xNTQtY2xpZW50MIIBIjANBgkqhkiG9w0B
AQEFAAOCAQ8AMIIBCgKCAQEAtJMSz45gzAuagQ1IhH3oSIsSnTdlwOtPvvkqBdZr
76+P54a2of2GEIM4Y+RAB1hSXAWkFnwExVJ/k8zspt2V/tMPj5Vg246Gxy+DbYbz
EZvG335zNSR3xYh/+QiE1SSjJusseifBOYIXG3BUFnYt8EM70ANSHiNlbpx+vqZC
EA9j0Od8YxDy7zj79/oRdZS75CSTX9rygOWBSP7WgI0EDIbSGgKBqmKDSgOTUQLi
mqRiU4nVOmnwPky8ntm6faK3lokBoM+ciu9lN0ChapYcZS/DIGhYRvxoyObqXNF1
fDzyr6Nl+vxmlnsyVtgKkP6v53PctLa7nz6tXhDDSWnDYQIDAQABo4GiMIGfMAkG
A1UdEwQCMAAwHQYDVR0OBBYEFIriCVatLnuBkrEE1ONjmzAkA9gLMFEGA1UdIwRK
MEiAFKgYtgAxOcmjWVifsczTeOT4YQqToRqkGDAWMRQwEgYDVQQDDAt0ZWFtMTU0
LW5ldIIUc3uhIjsWgxZZPWsnBq8CoD2dW8wwEwYDVR0lBAwwCgYIKwYBBQUHAwIw
CwYDVR0PBAQDAgeAMA0GCSqGSIb3DQEBCwUAA4IBAQBq7N4EFqu/oUvmO0KjclH+
6PV1sGDrpHRLluYuDm4Sz2xyOj+KqlPOJxYC6v/tK8mtvzYcRhUMbuvjDRkA7kOU
O+kr2AQU/jIwBhBdTS4kBdeFqKqU/3XFQo0qSSlXxYKPT81yRg1HHBOKmGfIc0aO
P/0Z34mYIxfkfHxYtRPwWETksQspiFpddk/LAZnE0QnjowIZvZtaHMYgfFJ/9GRU
dnOFAPVLXi7RUZiS84MNACmE5hmwFiMXiVslO2Hu1pP2csoBIWoPpse2PP+k/Xj2
otzUuErUbuIMXg8NXdC1j6jVmGR9TXlGRD8cmP26omONVK4ljsLgFyNnL2C5nkgo
-----END CERTIFICATE-----
