Certificate:
    Data:
        Version: 3 (0x2)
        Serial Number:
            50:02:ef:c3:36:54:bc:22:c5:35:d4:77:50:50:5a:2c
        Signature Algorithm: sha256WithRSAEncryption
        Issuer: CN=team154-net
        Validity
            Not Before: Nov  4 11:30:37 2023 GMT
            Not After : Oct 19 11:30:37 2026 GMT
        Subject: CN=team154-client
        Subject Public Key Info:
            Public Key Algorithm: rsaEncryption
                Public-Key: (2048 bit)
                Modulus:
                    00:b6:76:3d:2f:aa:92:07:4a:5e:2c:a9:cf:10:ea:
                    b2:59:39:88:fa:2b:4a:70:70:fa:b3:7f:86:f9:eb:
                    cd:5d:24:39:3f:0c:d2:9a:ed:a8:ee:be:5a:69:43:
                    d5:68:28:45:ba:2d:07:78:e9:37:e7:b4:ca:69:56:
                    d9:0d:bd:ea:8f:98:7a:31:70:71:7c:7d:1f:5f:42:
                    6d:66:91:aa:49:9b:df:5d:99:03:17:3f:0d:c5:39:
                    95:74:0a:88:85:8b:f7:d4:74:89:ea:06:a2:cb:ab:
                    63:8b:22:6e:a4:0d:4b:f2:5d:88:04:c7:b2:81:ac:
                    2c:00:6c:42:4c:8f:c0:9a:e9:14:b4:1d:2e:10:65:
                    b4:fe:12:6a:8b:64:42:7c:16:ae:ce:7d:5c:8f:9f:
                    d4:e9:aa:9b:02:90:8b:80:2b:6f:39:04:b2:67:2b:
                    04:af:87:ac:49:6a:c3:c0:c6:cb:5d:3c:c2:97:ab:
                    a7:e9:6b:5f:de:7c:78:71:e2:0e:6d:81:dd:cf:9f:
                    00:ef:f5:74:60:cf:2e:1a:ff:60:d0:d9:a5:de:0b:
                    34:ec:54:fe:43:08:ca:0b:62:b2:8c:67:f6:03:a3:
                    51:3f:4e:66:cb:59:27:2b:8f:f2:8e:89:1d:f4:a9:
                    e7:3c:bd:32:d8:03:81:fb:2a:e0:b4:f7:ac:11:50:
                    76:f3
                Exponent: 65537 (0x10001)
        X509v3 extensions:
            X509v3 Basic Constraints: 
                CA:FALSE
            X509v3 Subject Key Identifier: 
                3E:37:9A:0E:62:6A:7E:5C:D2:8D:64:79:A1:F1:08:12:4D:CC:91:1E
            X509v3 Authority Key Identifier: 
                keyid:03:2D:FA:CC:9E:8E:6B:D3:28:D8:F0:66:A7:F2:BB:CF:48:13:82:C4
                DirName:/CN=team154-net
                serial:08:97:4E:A0:E1:9C:27:37:49:BC:F0:7D:42:98:3D:7A:A3:D2:92:7C
            X509v3 Extended Key Usage: 
                TLS Web Client Authentication
            X509v3 Key Usage: 
                Digital Signature
    Signature Algorithm: sha256WithRSAEncryption
    Signature Value:
        08:c7:a3:5d:7c:1a:9b:7a:dc:8b:4f:bc:20:b3:ce:1d:27:8a:
        ff:a7:0b:2f:c8:27:36:ea:ba:b1:ad:6c:ca:ec:46:a7:83:d5:
        3b:fe:f7:79:ba:c9:c3:db:17:30:86:85:08:2d:6f:f8:e8:1f:
        4a:ec:e4:ba:4e:a0:47:de:0c:13:39:df:dd:d9:3c:03:86:d8:
        8d:4a:11:df:ed:31:4d:48:a2:96:ed:13:3d:e0:42:30:66:7e:
        63:95:e2:2f:05:b3:cd:12:be:3c:20:10:27:2a:6c:20:80:bb:
        aa:8d:51:9d:08:af:48:6d:f3:89:d4:31:80:59:d2:a8:2f:c2:
        aa:51:4d:6a:d0:f1:37:06:a6:02:9c:47:f0:f4:7b:22:46:c8:
        47:7d:37:9c:20:03:1d:21:30:8d:f4:2a:b7:cf:25:b3:22:e1:
        2b:55:06:47:cd:b3:a6:cf:87:83:8a:86:a5:12:dc:9f:1f:5a:
        9d:a2:46:8d:58:a7:94:38:2c:88:36:ec:d6:ae:e7:b1:86:c4:
        7f:15:67:ce:dd:18:1b:52:18:c6:cc:72:61:b6:82:1f:08:da:
        16:da:c0:87:dc:02:e7:91:c1:d6:aa:22:69:52:9f:3f:46:2c:
        0e:46:80:05:4b:b3:7a:0b:20:3c:3f:2e:77:6e:37:d2:69:54:
        d7:b9:01:ac
-----BEGIN CERTIFICATE-----
MIIDXDCCAkSgAwIBAgIQUALvwzZUvCLFNdR3UFBaLDANBgkqhkiG9w0BAQsFADAW
MRQwEgYDVQQDDAt0ZWFtMTU0LW5ldDAeFw0yMzExMDQxMTMwMzdaFw0yNjEwMTkx
MTMwMzdaMBkxFzAVBgNVBAMMDnRlYW0xNTQtY2xpZW50MIIBIjANBgkqhkiG9w0B
AQEFAAOCAQ8AMIIBCgKCAQEAtnY9L6qSB0peLKnPEOqyWTmI+itKcHD6s3+G+evN
XSQ5PwzSmu2o7r5aaUPVaChFui0HeOk357TKaVbZDb3qj5h6MXBxfH0fX0JtZpGq
SZvfXZkDFz8NxTmVdAqIhYv31HSJ6gaiy6tjiyJupA1L8l2IBMeygawsAGxCTI/A
mukUtB0uEGW0/hJqi2RCfBauzn1cj5/U6aqbApCLgCtvOQSyZysEr4esSWrDwMbL
XTzCl6un6Wtf3nx4ceIObYHdz58A7/V0YM8uGv9g0Nml3gs07FT+QwjKC2KyjGf2
A6NRP05my1knK4/yjokd9KnnPL0y2AOB+yrgtPesEVB28wIDAQABo4GiMIGfMAkG
A1UdEwQCMAAwHQYDVR0OBBYEFD43mg5ian5c0o1keaHxCBJNzJEeMFEGA1UdIwRK
MEiAFAMt+syejmvTKNjwZqfyu89IE4LEoRqkGDAWMRQwEgYDVQQDDAt0ZWFtMTU0
LW5ldIIUCJdOoOGcJzdJvPB9Qpg9eqPSknwwEwYDVR0lBAwwCgYIKwYBBQUHAwIw
CwYDVR0PBAQDAgeAMA0GCSqGSIb3DQEBCwUAA4IBAQAIx6NdfBqbetyLT7wgs84d
J4r/pwsvyCc26rqxrWzK7Eang9U7/vd5usnD2xcwhoUILW/46B9K7OS6TqBH3gwT
Od/d2TwDhtiNShHf7TFNSKKW7RM94EIwZn5jleIvBbPNEr48IBAnKmwggLuqjVGd
CK9IbfOJ1DGAWdKoL8KqUU1q0PE3BqYCnEfw9HsiRshHfTecIAMdITCN9Cq3zyWz
IuErVQZHzbOmz4eDioalEtyfH1qdokaNWKeUOCyINuzWruexhsR/FWfO3RgbUhjG
zHJhtoIfCNoW2sCH3ALnkcHWqiJpUp8/RiwORoAFS7N6CyA8Py53bjfSaVTXuQGs
-----END CERTIFICATE-----
