Certificate:
    Data:
        Version: 3 (0x2)
        Serial Number:
            80:88:d3:2d:cb:d0:c0:33:2d:c5:46:10:03:d3:b3:7a
        Signature Algorithm: sha256WithRSAEncryption
        Issuer: CN=team154-net
        Validity
            Not Before: Nov  4 10:43:24 2023 GMT
            Not After : Oct 19 10:43:24 2026 GMT
        Subject: CN=team154-client
        Subject Public Key Info:
            Public Key Algorithm: rsaEncryption
                Public-Key: (2048 bit)
                Modulus:
                    00:a8:fa:97:ae:15:2f:3e:3f:5e:70:87:30:fc:7e:
                    f8:74:81:a2:97:47:fa:81:d1:a5:e4:67:3a:ff:44:
                    f5:e9:8e:62:8d:7a:4f:93:e3:2c:27:86:62:39:e7:
                    e9:b6:c0:36:8c:95:dd:0f:96:c8:e7:c0:d7:86:b6:
                    23:6d:37:86:76:74:33:ca:44:d2:31:5c:4d:d1:91:
                    7f:cf:39:48:96:c5:f8:0c:47:1f:67:fa:71:9e:25:
                    ce:1e:df:27:24:cb:f1:99:52:08:9e:08:af:90:0d:
                    98:d3:24:7a:e0:1d:ab:36:42:a4:32:17:56:30:01:
                    df:c1:b1:7a:77:d1:66:45:60:ea:18:75:c9:ef:3d:
                    06:68:89:fa:5a:44:c5:a1:84:cb:d5:c4:94:42:fd:
                    05:50:ff:ea:5b:c7:3f:24:7b:17:a2:e0:f7:a5:06:
                    ff:6c:bf:ba:c9:48:7e:f9:87:1a:5a:7e:5a:ae:e8:
                    c7:10:76:ce:96:35:35:7a:61:ad:c9:69:ff:38:a1:
                    55:fd:bb:d1:30:51:06:9e:31:87:47:90:bd:73:73:
                    a5:15:97:42:b1:72:8b:ad:a4:82:5a:7d:e3:31:08:
                    e1:cb:af:fb:42:b9:43:c4:3d:d5:ff:24:19:2f:57:
                    6a:63:0a:ae:df:2f:87:5f:93:0f:df:e3:06:0d:74:
                    f9:0b
                Exponent: 65537 (0x10001)
        X509v3 extensions:
            X509v3 Basic Constraints: 
                CA:FALSE
            X509v3 Subject Key Identifier: 
                BE:6C:9B:04:73:5E:C0:C4:73:17:88:2F:5E:78:0E:CA:E3:17:8D:1B
            X509v3 Authority Key Identifier: 
                keyid:66:FC:F2:90:8A:EF:1C:88:3D:EB:7E:FB:A7:3F:AF:B1:FF:E3:B1:00
                DirName:/CN=team154-net
                serial:12:B0:F0:26:A4:63:89:B4:A6:8C:40:35:AF:B9:7F:87:1D:C7:A0:1C
            X509v3 Extended Key Usage: 
                TLS Web Client Authentication
            X509v3 Key Usage: 
                Digital Signature
    Signature Algorithm: sha256WithRSAEncryption
    Signature Value:
        a8:c5:a0:f2:5f:81:2b:7f:ed:a3:c0:3d:ba:1d:79:ec:1c:40:
        d7:b9:eb:8e:0e:64:ef:83:27:b0:b0:cb:5d:6e:64:1c:e7:30:
        20:96:af:37:c5:e9:2b:35:92:d1:f8:ff:e8:a2:cd:2f:ab:a7:
        21:ba:f0:fd:14:ad:c4:a7:21:70:06:24:7c:07:70:30:b5:c1:
        38:49:b5:4c:0c:59:f5:e9:04:99:59:f6:76:fe:6f:47:e9:55:
        ce:f8:b4:63:30:c5:15:e4:92:b7:56:28:a3:a0:d5:0e:36:de:
        e3:c4:53:1f:67:fe:54:85:62:8b:98:fc:f4:65:1e:36:80:96:
        56:47:aa:26:a2:86:a4:61:1a:01:dc:78:4e:f6:57:5c:a8:c9:
        d6:c3:9a:aa:79:14:12:54:18:f2:6a:0e:d0:17:bf:6b:a3:a7:
        9f:59:df:1c:cc:2d:0c:5d:30:1b:7c:f3:22:54:e5:ab:b9:a4:
        24:78:1f:42:11:2c:32:71:78:ed:e0:5e:2f:b5:6b:61:39:ac:
        7d:49:60:83:1b:d1:c5:60:2e:54:99:f9:05:bd:d8:d6:4c:cb:
        26:f3:87:be:df:9c:42:09:f0:26:56:ec:a1:53:a1:9b:00:6e:
        49:bd:ad:87:3f:98:e3:50:37:eb:fd:6d:b3:a7:ef:3a:85:b7:
        df:09:80:ba
-----BEGIN CERTIFICATE-----
MIIDXTCCAkWgAwIBAgIRAICI0y3L0MAzLcVGEAPTs3owDQYJKoZIhvcNAQELBQAw
FjEUMBIGA1UEAwwLdGVhbTE1NC1uZXQwHhcNMjMxMTA0MTA0MzI0WhcNMjYxMDE5
MTA0MzI0WjAZMRcwFQYDVQQDDA50ZWFtMTU0LWNsaWVudDCCASIwDQYJKoZIhvcN
AQEBBQADggEPADCCAQoCggEBAKj6l64VLz4/XnCHMPx++HSBopdH+oHRpeRnOv9E
9emOYo16T5PjLCeGYjnn6bbANoyV3Q+WyOfA14a2I203hnZ0M8pE0jFcTdGRf885
SJbF+AxHH2f6cZ4lzh7fJyTL8ZlSCJ4Ir5ANmNMkeuAdqzZCpDIXVjAB38GxenfR
ZkVg6hh1ye89BmiJ+lpExaGEy9XElEL9BVD/6lvHPyR7F6Lg96UG/2y/uslIfvmH
Glp+Wq7oxxB2zpY1NXphrclp/zihVf270TBRBp4xh0eQvXNzpRWXQrFyi62kglp9
4zEI4cuv+0K5Q8Q91f8kGS9XamMKrt8vh1+TD9/jBg10+QsCAwEAAaOBojCBnzAJ
BgNVHRMEAjAAMB0GA1UdDgQWBBS+bJsEc17AxHMXiC9eeA7K4xeNGzBRBgNVHSME
SjBIgBRm/PKQiu8ciD3rfvunP6+x/+OxAKEapBgwFjEUMBIGA1UEAwwLdGVhbTE1
NC1uZXSCFBKw8CakY4m0poxANa+5f4cdx6AcMBMGA1UdJQQMMAoGCCsGAQUFBwMC
MAsGA1UdDwQEAwIHgDANBgkqhkiG9w0BAQsFAAOCAQEAqMWg8l+BK3/to8A9uh15
7BxA17nrjg5k74MnsLDLXW5kHOcwIJavN8XpKzWS0fj/6KLNL6unIbrw/RStxKch
cAYkfAdwMLXBOEm1TAxZ9ekEmVn2dv5vR+lVzvi0YzDFFeSSt1Yoo6DVDjbe48RT
H2f+VIVii5j89GUeNoCWVkeqJqKGpGEaAdx4TvZXXKjJ1sOaqnkUElQY8moO0Be/
a6Onn1nfHMwtDF0wG3zzIlTlq7mkJHgfQhEsMnF47eBeL7VrYTmsfUlggxvRxWAu
VJn5Bb3Y1kzLJvOHvt+cQgnwJlbsoVOhmwBuSb2thz+Y41A36/1ts6fvOoW33wmA
ug==
-----END CERTIFICATE-----
