Certificate:
    Data:
        Version: 3 (0x2)
        Serial Number:
            cd:7e:36:2f:fd:7a:be:8b:bd:9f:4e:00:ff:72:1e:3f
        Signature Algorithm: sha256WithRSAEncryption
        Issuer: CN=team154-net
        Validity
            Not Before: Nov  4 10:43:24 2023 GMT
            Not After : Oct 19 10:43:24 2026 GMT
        Subject: CN=team154-server
        Subject Public Key Info:
            Public Key Algorithm: rsaEncryption
                Public-Key: (2048 bit)
                Modulus:
                    00:db:b5:b0:86:ca:2e:57:02:87:21:b3:0e:6c:b1:
                    37:82:f8:9d:32:38:d9:c1:31:d0:73:78:80:63:04:
                    f6:1c:92:0e:79:8c:bd:c9:cf:12:c9:02:fb:ad:3e:
                    b5:6f:01:e5:24:61:84:34:3d:95:e9:ba:06:f4:08:
                    05:a3:d2:e4:d0:c8:bd:35:bd:36:e4:14:7d:f9:1c:
                    f4:15:4b:29:7b:74:c2:17:cd:63:26:da:9e:e5:c7:
                    c5:69:6c:55:99:1f:f7:6b:3c:d0:2e:dc:e5:4a:95:
                    cb:54:2e:fe:f2:2f:f2:dc:70:de:dc:9f:7e:dc:34:
                    d9:30:11:fb:aa:07:76:af:28:d8:4f:a9:0e:be:7d:
                    33:7a:17:cb:b9:46:1f:7c:2f:c2:60:d4:1b:f4:6c:
                    5f:fe:8e:4d:97:e0:8c:e5:69:7d:04:42:f2:0f:64:
                    27:0a:07:12:d0:c6:ff:7e:fd:77:b3:c9:fe:9b:a8:
                    b3:5b:47:ad:29:b8:6e:f8:9b:0c:12:fa:51:c8:de:
                    92:b7:ab:92:b1:a7:29:22:02:a0:1e:5a:2e:33:99:
                    b6:8e:2c:05:59:86:11:09:6b:39:39:e8:a8:f1:45:
                    e2:c9:d3:2b:d9:dc:db:f6:24:fc:9a:5a:c9:11:ca:
                    4b:56:af:e0:af:87:88:69:79:ad:e2:54:a3:2c:48:
                    43:4d
                Exponent: 65537 (0x10001)
        X509v3 extensions:
            X509v3 Basic Constraints: 
                CA:FALSE
            X509v3 Subject Key Identifier: 
                E5:E1:E2:6A:69:7D:B4:7B:96:D7:67:00:EF:27:19:72:F0:CA:31:CA
            X509v3 Authority Key Identifier: 
                keyid:66:FC:F2:90:8A:EF:1C:88:3D:EB:7E:FB:A7:3F:AF:B1:FF:E3:B1:00
                DirName:/CN=team154-net
                serial:12:B0:F0:26:A4:63:89:B4:A6:8C:40:35:AF:B9:7F:87:1D:C7:A0:1C
            X509v3 Extended Key Usage: 
                TLS Web Server Authentication
            X509v3 Key Usage: 
                Digital Signature, Key Encipherment
            X509v3 Subject Alternative Name: 
                DNS:team154-server
    Signature Algorithm: sha256WithRSAEncryption
    Signature Value:
        9a:1d:b7:83:60:d5:e5:df:74:b4:b5:0d:75:28:7b:12:f0:33:
        4e:8c:ee:3a:df:c2:e5:67:3f:ce:1d:0a:36:a4:71:2a:eb:7d:
        27:7a:0f:1b:3f:82:4b:51:57:74:80:dc:54:08:24:17:35:a9:
        03:ca:4a:b3:74:db:19:d3:ac:7a:76:de:14:a8:89:a5:fa:c6:
        2a:d7:cf:eb:1f:02:ed:b5:33:b1:12:10:73:f5:e9:e7:af:f0:
        ae:04:93:2a:9b:b3:a8:32:a1:bc:c3:a9:d0:85:13:82:8f:05:
        11:61:06:46:d1:6b:44:7a:db:e2:af:c5:22:32:10:9b:13:0f:
        c9:72:92:2d:7a:18:65:00:a2:74:61:2b:db:53:08:4f:52:20:
        0d:10:55:27:80:6e:19:cb:78:6d:f9:8b:1c:4e:c7:42:44:62:
        ed:ee:7d:09:7b:21:60:b2:c5:aa:69:9e:33:b5:b8:dc:b1:a5:
        74:10:85:48:24:72:a1:0c:5d:2e:87:e1:ea:dd:08:d3:9d:f9:
        d7:e2:9a:5f:db:25:ae:ac:74:05:c2:3c:eb:c9:26:c0:d4:5b:
        22:05:84:ac:71:a5:a1:b0:d7:dc:88:78:f7:cc:c4:7c:a5:7c:
        36:1b:49:2c:cc:06:24:d6:ea:d8:bf:5b:78:20:f0:50:40:6e:
        c0:81:31:7e
-----BEGIN CERTIFICATE-----
MIIDeDCCAmCgAwIBAgIRAM1+Ni/9er6LvZ9OAP9yHj8wDQYJKoZIhvcNAQELBQAw
FjEUMBIGA1UEAwwLdGVhbTE1NC1uZXQwHhcNMjMxMTA0MTA0MzI0WhcNMjYxMDE5
MTA0MzI0WjAZMRcwFQYDVQQDDA50ZWFtMTU0LXNlcnZlcjCCASIwDQYJKoZIhvcN
AQEBBQADggEPADCCAQoCggEBANu1sIbKLlcChyGzDmyxN4L4nTI42cEx0HN4gGME
9hySDnmMvcnPEskC+60+tW8B5SRhhDQ9lem6BvQIBaPS5NDIvTW9NuQUffkc9BVL
KXt0whfNYybanuXHxWlsVZkf92s80C7c5UqVy1Qu/vIv8txw3tyfftw02TAR+6oH
dq8o2E+pDr59M3oXy7lGH3wvwmDUG/RsX/6OTZfgjOVpfQRC8g9kJwoHEtDG/379
d7PJ/puos1tHrSm4bvibDBL6UcjekrerkrGnKSICoB5aLjOZto4sBVmGEQlrOTno
qPFF4snTK9nc2/Yk/JpayRHKS1av4K+HiGl5reJUoyxIQ00CAwEAAaOBvTCBujAJ
BgNVHRMEAjAAMB0GA1UdDgQWBBTl4eJqaX20e5bXZwDvJxly8MoxyjBRBgNVHSME
SjBIgBRm/PKQiu8ciD3rfvunP6+x/+OxAKEapBgwFjEUMBIGA1UEAwwLdGVhbTE1
NC1uZXSCFBKw8CakY4m0poxANa+5f4cdx6AcMBMGA1UdJQQMMAoGCCsGAQUFBwMB
MAsGA1UdDwQEAwIFoDAZBgNVHREEEjAQgg50ZWFtMTU0LXNlcnZlcjANBgkqhkiG
9w0BAQsFAAOCAQEAmh23g2DV5d90tLUNdSh7EvAzTozuOt/C5Wc/zh0KNqRxKut9
J3oPGz+CS1FXdIDcVAgkFzWpA8pKs3TbGdOsenbeFKiJpfrGKtfP6x8C7bUzsRIQ
c/Xp56/wrgSTKpuzqDKhvMOp0IUTgo8FEWEGRtFrRHrb4q/FIjIQmxMPyXKSLXoY
ZQCidGEr21MIT1IgDRBVJ4BuGct4bfmLHE7HQkRi7e59CXshYLLFqmmeM7W43LGl
dBCFSCRyoQxdLofh6t0I05351+KaX9slrqx0BcI868kmwNRbIgWErHGlobDX3Ih4
98zEfKV8NhtJLMwGJNbq2L9beCDwUEBuwIExfg==
-----END CERTIFICATE-----
