Certificate:
    Data:
        Version: 3 (0x2)
        Serial Number:
            83:5b:57:83:ae:af:0c:a7:f7:e4:d9:ab:ef:d5:51:5a
        Signature Algorithm: sha256WithRSAEncryption
        Issuer: CN=team280-net
        Validity
            Not Before: Nov  3 20:44:25 2023 GMT
            Not After : Oct 18 20:44:25 2026 GMT
        Subject: CN=team280-client
        Subject Public Key Info:
            Public Key Algorithm: rsaEncryption
                Public-Key: (2048 bit)
                Modulus:
                    00:b0:d4:d2:e0:e1:ea:24:ab:e9:fc:9d:b3:b3:48:
                    82:dd:b6:67:7c:78:97:ec:e0:e0:d6:4c:e1:35:09:
                    f0:c9:cb:d2:f2:dd:17:9a:94:95:32:5a:81:98:90:
                    82:e6:e1:fa:44:85:f3:68:dd:b6:e4:b4:56:01:ab:
                    94:90:f2:99:00:e4:b6:e9:bb:4d:70:8b:18:eb:36:
                    91:89:20:2a:23:5f:f2:71:b3:1c:1f:59:43:36:c4:
                    05:07:2f:00:42:67:b8:1f:b9:4c:bb:61:a2:e4:3c:
                    1c:9d:31:39:1d:5a:5b:f7:9f:2c:d6:77:8e:f2:d4:
                    81:62:48:ba:d3:bb:49:92:5d:42:2a:15:ca:66:07:
                    14:38:b5:09:7f:29:eb:d4:30:d9:13:a0:9e:f8:9d:
                    4d:f2:ae:cc:86:61:89:1d:88:17:cd:b3:44:61:ca:
                    8e:67:26:5f:8b:a9:c7:14:7e:e0:b2:b9:f3:c5:3a:
                    35:dc:c2:4d:6e:c7:3a:6b:3c:01:1d:a5:39:d1:03:
                    e6:14:45:40:df:97:4e:95:ae:d5:42:4f:e5:ff:e6:
                    ae:61:a2:04:1a:55:46:56:58:25:a9:15:b8:6b:24:
                    b7:2f:22:fc:59:94:16:92:86:57:87:ce:a5:ff:1c:
                    91:d6:62:79:4e:e7:99:3b:f7:34:c8:8b:cf:a9:c6:
                    fa:7b
                Exponent: 65537 (0x10001)
        X509v3 extensions:
            X509v3 Basic Constraints: 
                CA:FALSE
            X509v3 Subject Key Identifier: 
                66:6F:21:52:7A:26:23:13:8E:60:23:14:84:8A:68:1A:10:43:7F:3E
            X509v3 Authority Key Identifier: 
                keyid:B3:9C:08:7D:F5:CD:27:DC:6F:9E:5A:F7:99:A8:B0:4A:39:5E:20:88
                DirName:/CN=team280-net
                serial:78:35:56:BE:34:49:DC:8B:E1:CB:33:5C:FA:C5:67:76:FA:FB:32:75
            X509v3 Extended Key Usage: 
                TLS Web Client Authentication
            X509v3 Key Usage: 
                Digital Signature
    Signature Algorithm: sha256WithRSAEncryption
    Signature Value:
        7e:26:ea:fb:33:f9:a5:b4:2f:55:6b:df:a8:de:26:e3:19:2c:
        9a:98:94:80:69:2f:c9:b2:5f:b6:be:df:bd:c4:a6:8d:c3:cc:
        6b:f7:54:6b:8b:4a:d6:78:e8:eb:e0:b4:94:a0:67:ec:3d:b3:
        83:d4:80:5f:5a:16:cf:0e:e0:2c:54:fb:b4:76:9b:11:0d:0b:
        95:66:0e:2e:14:00:26:81:f9:f7:a4:14:77:05:07:2e:c9:85:
        39:c2:18:03:c2:6a:69:68:98:38:ce:0b:f4:b0:7b:c2:cf:0a:
        f2:87:99:c7:d4:04:f3:1f:fe:3a:b1:6c:cc:5f:f5:e9:5e:c1:
        7b:bb:84:04:cd:94:57:c5:fe:89:43:c8:5e:26:fc:f6:33:80:
        57:9b:6b:6a:a7:b2:54:d3:5d:e8:44:4a:24:64:ad:12:6f:5a:
        a8:41:94:cf:28:20:ee:22:6d:8a:40:7c:bf:1c:59:a9:f8:d7:
        1e:ff:6a:0a:f1:be:7f:57:14:27:41:99:31:c2:27:37:ee:a3:
        b2:5f:e7:ac:3e:da:89:ee:5c:53:8c:08:57:62:b4:c5:dc:ae:
        f4:76:24:03:5d:d1:e2:0a:bc:c4:23:de:41:fe:03:37:f0:2b:
        01:36:e0:bb:d3:2a:01:4b:23:56:0b:71:48:6c:a5:32:db:45:
        96:7a:1c:ee
-----BEGIN CERTIFICATE-----
MIIDXTCCAkWgAwIBAgIRAINbV4Ourwyn9+TZq+/VUVowDQYJKoZIhvcNAQELBQAw
FjEUMBIGA1UEAwwLdGVhbTI4MC1uZXQwHhcNMjMxMTAzMjA0NDI1WhcNMjYxMDE4
MjA0NDI1WjAZMRcwFQYDVQQDDA50ZWFtMjgwLWNsaWVudDCCASIwDQYJKoZIhvcN
AQEBBQADggEPADCCAQoCggEBALDU0uDh6iSr6fyds7NIgt22Z3x4l+zg4NZM4TUJ
8MnL0vLdF5qUlTJagZiQgubh+kSF82jdtuS0VgGrlJDymQDktum7TXCLGOs2kYkg
KiNf8nGzHB9ZQzbEBQcvAEJnuB+5TLthouQ8HJ0xOR1aW/efLNZ3jvLUgWJIutO7
SZJdQioVymYHFDi1CX8p69Qw2ROgnvidTfKuzIZhiR2IF82zRGHKjmcmX4upxxR+
4LK588U6NdzCTW7HOms8AR2lOdED5hRFQN+XTpWu1UJP5f/mrmGiBBpVRlZYJakV
uGskty8i/FmUFpKGV4fOpf8ckdZieU7nmTv3NMiLz6nG+nsCAwEAAaOBojCBnzAJ
BgNVHRMEAjAAMB0GA1UdDgQWBBRmbyFSeiYjE45gIxSEimgaEEN/PjBRBgNVHSME
SjBIgBSznAh99c0n3G+eWveZqLBKOV4giKEapBgwFjEUMBIGA1UEAwwLdGVhbTI4
MC1uZXSCFHg1Vr40SdyL4cszXPrFZ3b6+zJ1MBMGA1UdJQQMMAoGCCsGAQUFBwMC
MAsGA1UdDwQEAwIHgDANBgkqhkiG9w0BAQsFAAOCAQEAfibq+zP5pbQvVWvfqN4m
4xksmpiUgGkvybJftr7fvcSmjcPMa/dUa4tK1njo6+C0lKBn7D2zg9SAX1oWzw7g
LFT7tHabEQ0LlWYOLhQAJoH596QUdwUHLsmFOcIYA8JqaWiYOM4L9LB7ws8K8oeZ
x9QE8x/+OrFszF/16V7Be7uEBM2UV8X+iUPIXib89jOAV5traqeyVNNd6ERKJGSt
Em9aqEGUzygg7iJtikB8vxxZqfjXHv9qCvG+f1cUJ0GZMcInN+6jsl/nrD7aie5c
U4wIV2K0xdyu9HYkA13R4gq8xCPeQf4DN/ArATbgu9MqAUsjVgtxSGylMttFlnoc
7g==
-----END CERTIFICATE-----
