Certificate:
    Data:
        Version: 3 (0x2)
        Serial Number:
            29:e5:87:a4:95:c7:34:09:e6:11:7d:80:89:ee:e4:33
        Signature Algorithm: sha256WithRSAEncryption
        Issuer: CN=team46-net
        Validity
            Not Before: Nov  3 20:40:03 2023 GMT
            Not After : Oct 18 20:40:03 2026 GMT
        Subject: CN=team46-client
        Subject Public Key Info:
            Public Key Algorithm: rsaEncryption
                Public-Key: (2048 bit)
                Modulus:
                    00:9f:88:e5:1d:72:88:76:e8:5a:48:7a:89:7f:ee:
                    a9:d2:f6:c2:04:6b:19:06:0e:63:6f:1f:fb:a8:43:
                    17:ea:d7:f2:06:f7:0c:9b:91:ed:8b:6b:ae:5a:d2:
                    52:df:5c:09:5b:ef:3b:81:5b:c9:a7:3f:e7:a2:39:
                    ae:a9:57:2b:d1:39:28:b7:f7:43:98:a6:93:15:b0:
                    0c:bb:37:60:0a:d9:91:4b:d2:38:a7:7e:e7:01:93:
                    8a:64:d9:13:57:e2:c5:1f:53:c0:52:fe:ad:d6:74:
                    8f:79:d8:b0:5d:fe:58:b8:d2:97:8e:68:2e:e3:a6:
                    99:ed:26:f0:30:c0:a2:10:05:e0:45:fb:c4:56:5d:
                    93:16:c1:6b:8a:a1:3b:94:99:16:f3:a7:1d:0b:c8:
                    73:70:ee:33:7d:28:41:a2:5d:7f:57:92:fa:24:9d:
                    c6:f0:b4:27:7c:21:91:41:60:9f:b8:c8:83:3f:ec:
                    2b:94:2e:10:d0:77:a6:d4:e2:53:08:e9:e3:45:93:
                    e2:c8:e3:f7:3e:e4:c1:38:8d:7a:4b:bd:34:d2:79:
                    1c:83:0d:ef:ae:15:6d:a1:15:ba:e9:a0:29:23:d2:
                    bd:5e:cd:c7:a0:b8:2b:f1:f9:ee:6d:48:0e:af:a5:
                    90:8a:0d:95:27:ed:07:4d:51:7f:08:9a:46:d8:1e:
                    72:1f
                Exponent: 65537 (0x10001)
        X509v3 extensions:
            X509v3 Basic Constraints: 
                CA:FALSE
            X509v3 Subject Key Identifier: 
                68:FD:23:04:3A:37:9F:A4:31:B4:B5:24:61:31:DD:FD:AB:74:23:47
            X509v3 Authority Key Identifier: 
                keyid:71:06:C0:DC:5B:81:D3:15:5C:95:79:E3:35:4D:AD:90:B0:51:94:DE
                DirName:/CN=team46-net
                serial:48:95:43:8F:73:2D:79:B6:95:7C:1C:D1:A7:C5:D8:7D:53:65:F4:07
            X509v3 Extended Key Usage: 
                TLS Web Client Authentication
            X509v3 Key Usage: 
                Digital Signature
    Signature Algorithm: sha256WithRSAEncryption
    Signature Value:
        05:f7:77:4d:8d:0f:15:46:4b:a3:46:8f:a5:04:10:31:7e:17:
        f9:27:be:8c:ce:cb:42:fd:5f:8b:7a:84:31:15:74:ce:2c:22:
        73:1a:c7:88:72:01:d1:fb:39:77:96:9a:b2:5e:3a:3e:51:da:
        f3:82:30:02:06:cc:6e:70:56:c4:b2:e2:d5:ac:d2:ca:68:fd:
        21:37:e6:02:a6:a8:7a:ce:74:a9:4a:16:a1:7f:74:98:74:1a:
        bc:63:cb:32:17:44:72:a8:28:7a:d6:b1:a9:30:94:c1:e3:00:
        44:0c:0c:60:10:6f:0c:b9:cd:d9:5c:f7:ba:36:33:b6:55:2a:
        05:7e:29:1e:63:a7:ac:91:c7:98:e5:79:7c:ad:99:ce:e5:56:
        c5:5d:0e:12:32:8f:9b:d5:27:dc:9e:a0:2a:cd:72:8c:f2:af:
        a1:bc:e9:53:a1:b6:94:5d:20:96:39:3e:91:ba:cb:33:81:2f:
        20:7f:35:dd:74:41:e0:93:30:ee:4f:1e:06:d0:aa:dd:5e:ff:
        16:55:9d:3b:69:24:1a:5f:15:22:25:e8:56:27:2b:41:57:94:
        07:63:0d:cc:56:8e:3b:81:1f:22:e0:f8:13:c6:f3:84:81:51:
        19:61:48:87:41:92:a1:6b:fa:5b:af:67:a0:15:2a:6e:f9:0c:
        78:f5:76:ac
-----BEGIN CERTIFICATE-----
MIIDWTCCAkGgAwIBAgIQKeWHpJXHNAnmEX2Aie7kMzANBgkqhkiG9w0BAQsFADAV
MRMwEQYDVQQDDAp0ZWFtNDYtbmV0MB4XDTIzMTEwMzIwNDAwM1oXDTI2MTAxODIw
NDAwM1owGDEWMBQGA1UEAwwNdGVhbTQ2LWNsaWVudDCCASIwDQYJKoZIhvcNAQEB
BQADggEPADCCAQoCggEBAJ+I5R1yiHboWkh6iX/uqdL2wgRrGQYOY28f+6hDF+rX
8gb3DJuR7YtrrlrSUt9cCVvvO4Fbyac/56I5rqlXK9E5KLf3Q5imkxWwDLs3YArZ
kUvSOKd+5wGTimTZE1fixR9TwFL+rdZ0j3nYsF3+WLjSl45oLuOmme0m8DDAohAF
4EX7xFZdkxbBa4qhO5SZFvOnHQvIc3DuM30oQaJdf1eS+iSdxvC0J3whkUFgn7jI
gz/sK5QuENB3ptTiUwjp40WT4sjj9z7kwTiNeku9NNJ5HIMN764VbaEVuumgKSPS
vV7Nx6C4K/H57m1IDq+lkIoNlSftB01RfwiaRtgech8CAwEAAaOBoTCBnjAJBgNV
HRMEAjAAMB0GA1UdDgQWBBRo/SMEOjefpDG0tSRhMd39q3QjRzBQBgNVHSMESTBH
gBRxBsDcW4HTFVyVeeM1Ta2QsFGU3qEZpBcwFTETMBEGA1UEAwwKdGVhbTQ2LW5l
dIIUSJVDj3MtebaVfBzRp8XYfVNl9AcwEwYDVR0lBAwwCgYIKwYBBQUHAwIwCwYD
VR0PBAQDAgeAMA0GCSqGSIb3DQEBCwUAA4IBAQAF93dNjQ8VRkujRo+lBBAxfhf5
J76MzstC/V+LeoQxFXTOLCJzGseIcgHR+zl3lpqyXjo+UdrzgjACBsxucFbEsuLV
rNLKaP0hN+YCpqh6znSpShahf3SYdBq8Y8syF0RyqCh61rGpMJTB4wBEDAxgEG8M
uc3ZXPe6NjO2VSoFfikeY6eskceY5Xl8rZnO5VbFXQ4SMo+b1SfcnqAqzXKM8q+h
vOlTobaUXSCWOT6RusszgS8gfzXddEHgkzDuTx4G0KrdXv8WVZ07aSQaXxUiJehW
JytBV5QHYw3MVo47gR8i4PgTxvOEgVEZYUiHQZKha/pbr2egFSpu+Qx49Xas
-----END CERTIFICATE-----
