Certificate:
    Data:
        Version: 3 (0x2)
        Serial Number:
            01:e9:70:02:1b:b1:b3:07:c7:2c:63:d5:0f:65:4c:47
        Signature Algorithm: sha256WithRSAEncryption
        Issuer: CN=team452-net
        Validity
            Not Before: Nov  4 10:48:41 2023 GMT
            Not After : Oct 19 10:48:41 2026 GMT
        Subject: CN=team452-client
        Subject Public Key Info:
            Public Key Algorithm: rsaEncryption
                Public-Key: (2048 bit)
                Modulus:
                    00:c7:52:7a:9b:8b:eb:7d:13:4e:23:5f:b2:68:b9:
                    a9:28:68:9e:e4:6d:0a:5c:42:ac:7a:86:c2:92:20:
                    d6:0c:3d:12:4b:c8:69:b3:eb:d5:4a:95:fc:60:81:
                    b3:66:ba:1c:0a:6c:12:b4:10:f1:df:dc:db:a2:2e:
                    6d:03:46:22:60:ac:b6:be:e5:2f:1f:90:d0:f7:da:
                    b8:8f:c0:5d:89:94:d7:44:e5:31:a9:6f:00:04:01:
                    39:fc:82:5b:dd:12:60:0e:00:8a:b6:ad:e1:1d:a9:
                    31:89:88:cf:3a:38:fd:98:3b:8b:0e:0a:5e:87:57:
                    75:ae:dc:0b:e2:08:c8:2c:50:4b:4f:63:78:f1:48:
                    d8:f8:6a:da:e1:14:6b:a7:3e:cf:2e:65:af:9e:56:
                    82:98:78:fa:a2:aa:82:06:cd:c1:5c:6c:47:fa:8d:
                    f2:f4:33:0b:88:bb:f6:48:80:6a:52:72:86:62:03:
                    ce:f6:c8:34:fb:7b:89:e5:e1:ff:26:3e:fa:41:d9:
                    ff:3b:43:ce:68:ec:be:96:f9:c4:b6:f9:00:06:b9:
                    13:82:ea:a3:69:a2:a6:b8:d9:42:e7:e0:c9:7b:29:
                    1d:bd:cb:60:89:5e:3d:da:9c:0c:20:d0:e7:9a:3c:
                    d6:09:8b:35:69:5a:3c:1e:85:3c:a9:bf:47:d4:6c:
                    65:07
                Exponent: 65537 (0x10001)
        X509v3 extensions:
            X509v3 Basic Constraints: 
                CA:FALSE
            X509v3 Subject Key Identifier: 
                64:8E:B0:57:01:13:BC:9C:B5:5C:04:35:15:DA:14:78:E1:A5:26:8E
            X509v3 Authority Key Identifier: 
                keyid:FC:52:37:EB:E0:BD:83:D7:CF:36:A4:9C:69:FF:5A:39:AF:16:2E:5A
                DirName:/CN=team452-net
                serial:40:8A:EE:9D:64:EC:15:9C:E3:85:21:40:1B:D8:7B:25:F6:2A:6E:9C
            X509v3 Extended Key Usage: 
                TLS Web Client Authentication
            X509v3 Key Usage: 
                Digital Signature
    Signature Algorithm: sha256WithRSAEncryption
    Signature Value:
        28:20:92:ac:a4:3a:cf:0b:15:76:b8:f4:21:fb:f0:ce:9c:50:
        4f:5c:db:e5:02:9c:80:d7:10:73:5e:1e:8c:a4:a5:b3:56:21:
        c3:8b:96:8c:d5:ea:44:64:04:df:cf:6b:56:c4:08:87:8c:9e:
        5d:4e:4e:4c:9a:7a:41:66:e7:37:ae:0d:35:06:be:3b:77:88:
        57:d2:0d:b5:3b:fa:d1:15:7b:a6:b0:be:14:85:40:a7:bd:5f:
        a3:b3:0f:c0:5e:c2:7f:bd:b4:12:e0:64:0c:ac:ee:41:85:78:
        ae:96:51:5e:43:94:38:a0:0d:28:a6:69:2a:6a:f3:19:ae:4a:
        51:a5:4f:ba:95:65:4c:81:6f:9d:0c:d6:df:48:51:d7:4b:51:
        03:ca:bb:5c:14:7a:b3:dc:6a:72:60:a9:cc:aa:5d:fd:6a:fc:
        ab:d0:eb:09:d2:ec:69:b7:6b:eb:0a:3d:0f:28:66:78:43:89:
        fd:86:fd:2f:d3:da:bb:37:ab:52:50:18:b2:50:62:f0:b7:72:
        d6:20:40:ea:6d:05:6b:f8:2f:f5:05:7f:1b:af:92:6e:32:5a:
        82:1e:8b:25:db:f4:31:92:ca:21:d2:07:fc:97:2b:2a:f5:29:
        9a:a0:a7:22:87:f8:f9:c2:45:49:89:93:57:ee:57:b4:da:76:
        5b:28:15:f0
-----BEGIN CERTIFICATE-----
MIIDXDCCAkSgAwIBAgIQAelwAhuxswfHLGPVD2VMRzANBgkqhkiG9w0BAQsFADAW
MRQwEgYDVQQDDAt0ZWFtNDUyLW5ldDAeFw0yMzExMDQxMDQ4NDFaFw0yNjEwMTkx
MDQ4NDFaMBkxFzAVBgNVBAMMDnRlYW00NTItY2xpZW50MIIBIjANBgkqhkiG9w0B
AQEFAAOCAQ8AMIIBCgKCAQEAx1J6m4vrfRNOI1+yaLmpKGie5G0KXEKseobCkiDW
DD0SS8hps+vVSpX8YIGzZrocCmwStBDx39zboi5tA0YiYKy2vuUvH5DQ99q4j8Bd
iZTXROUxqW8ABAE5/IJb3RJgDgCKtq3hHakxiYjPOjj9mDuLDgpeh1d1rtwL4gjI
LFBLT2N48UjY+Gra4RRrpz7PLmWvnlaCmHj6oqqCBs3BXGxH+o3y9DMLiLv2SIBq
UnKGYgPO9sg0+3uJ5eH/Jj76Qdn/O0POaOy+lvnEtvkABrkTguqjaaKmuNlC5+DJ
eykdvctgiV492pwMINDnmjzWCYs1aVo8HoU8qb9H1GxlBwIDAQABo4GiMIGfMAkG
A1UdEwQCMAAwHQYDVR0OBBYEFGSOsFcBE7yctVwENRXaFHjhpSaOMFEGA1UdIwRK
MEiAFPxSN+vgvYPXzzaknGn/WjmvFi5aoRqkGDAWMRQwEgYDVQQDDAt0ZWFtNDUy
LW5ldIIUQIrunWTsFZzjhSFAG9h7JfYqbpwwEwYDVR0lBAwwCgYIKwYBBQUHAwIw
CwYDVR0PBAQDAgeAMA0GCSqGSIb3DQEBCwUAA4IBAQAoIJKspDrPCxV2uPQh+/DO
nFBPXNvlApyA1xBzXh6MpKWzViHDi5aM1epEZATfz2tWxAiHjJ5dTk5MmnpBZuc3
rg01Br47d4hX0g21O/rRFXumsL4UhUCnvV+jsw/AXsJ/vbQS4GQMrO5BhXiullFe
Q5Q4oA0opmkqavMZrkpRpU+6lWVMgW+dDNbfSFHXS1EDyrtcFHqz3GpyYKnMql39
avyr0OsJ0uxpt2vrCj0PKGZ4Q4n9hv0v09q7N6tSUBiyUGLwt3LWIEDqbQVr+C/1
BX8br5JuMlqCHosl2/Qxksoh0gf8lysq9SmaoKcih/j5wkVJiZNX7le02nZbKBXw
-----END CERTIFICATE-----
