Certificate:
    Data:
        Version: 3 (0x2)
        Serial Number:
            33:f8:03:ed:89:17:00:17:bd:98:a0:a2:ef:86:12:9f
        Signature Algorithm: sha256WithRSAEncryption
        Issuer: CN=team452-net
        Validity
            Not Before: Nov  4 10:48:41 2023 GMT
            Not After : Oct 19 10:48:41 2026 GMT
        Subject: CN=team452-server
        Subject Public Key Info:
            Public Key Algorithm: rsaEncryption
                Public-Key: (2048 bit)
                Modulus:
                    00:bf:cc:51:84:82:22:9c:0f:8e:a0:92:66:10:22:
                    5d:7a:70:90:c0:0e:98:c6:1b:4e:9b:fe:64:8a:38:
                    20:76:05:7e:80:6b:51:92:30:53:86:1e:e7:e9:93:
                    7b:50:a1:6e:bc:88:66:19:a9:9f:8e:83:8d:db:ca:
                    d0:1b:c9:ab:0a:30:85:a4:ee:24:fe:d6:2a:8f:eb:
                    c3:24:10:b0:ce:c0:47:44:34:00:14:0e:22:f0:e3:
                    c4:a8:c7:79:b8:93:db:c7:2f:e9:80:c5:8f:35:46:
                    4b:70:32:13:f0:b7:a8:b5:2e:6d:c6:15:e5:6d:df:
                    ad:52:c5:33:b0:bd:e4:20:f9:79:ce:6c:ae:2d:c0:
                    62:50:92:4e:83:1b:5e:7e:82:a1:82:9d:f1:0e:21:
                    74:b5:9e:0a:a5:4e:2f:a8:04:69:45:36:f8:52:c1:
                    4a:fe:51:7e:2d:fa:de:32:e7:80:9e:b7:37:c2:18:
                    c4:d8:82:4b:a3:ed:08:62:9d:31:57:df:27:46:7a:
                    d2:00:d3:b8:08:7f:aa:25:d2:9e:73:fa:30:fc:8d:
                    20:d9:bb:a1:73:76:7f:59:a2:43:96:9d:53:5a:b2:
                    14:29:94:bc:2a:7b:d6:d1:68:86:19:f3:d8:be:ed:
                    94:cf:4a:d9:11:f6:19:a5:e5:e4:22:b2:30:c7:d9:
                    bc:a9
                Exponent: 65537 (0x10001)
        X509v3 extensions:
            X509v3 Basic Constraints: 
                CA:FALSE
            X509v3 Subject Key Identifier: 
                CF:57:94:7C:97:B7:69:BA:7B:78:8A:A6:05:E4:A8:88:83:3C:DE:16
            X509v3 Authority Key Identifier: 
                keyid:FC:52:37:EB:E0:BD:83:D7:CF:36:A4:9C:69:FF:5A:39:AF:16:2E:5A
                DirName:/CN=team452-net
                serial:40:8A:EE:9D:64:EC:15:9C:E3:85:21:40:1B:D8:7B:25:F6:2A:6E:9C
            X509v3 Extended Key Usage: 
                TLS Web Server Authentication
            X509v3 Key Usage: 
                Digital Signature, Key Encipherment
            X509v3 Subject Alternative Name: 
                DNS:team452-server
    Signature Algorithm: sha256WithRSAEncryption
    Signature Value:
        1e:ce:46:c0:54:de:de:e7:6a:00:19:30:6d:3e:b0:a1:6d:91:
        6c:f0:ee:dc:a6:93:df:95:96:e4:65:a0:4d:7a:14:ad:79:88:
        0e:e7:55:c3:e8:e0:ba:c2:8f:88:41:cf:e5:c0:89:a9:44:c1:
        0a:19:c6:5d:ba:59:0e:9f:81:ee:da:db:a9:46:67:22:1f:08:
        fb:5e:f7:49:59:52:17:75:36:1a:bd:2a:b1:30:32:66:c8:39:
        fc:ca:84:4e:63:9a:75:76:58:e4:91:b6:6b:76:34:bc:16:c5:
        c3:9b:b1:1c:73:85:61:77:6d:01:1e:76:21:c7:9a:cc:91:2b:
        a0:60:72:60:e3:31:09:cd:de:e5:0d:93:85:fd:3b:7c:a1:33:
        ba:6f:40:fd:89:17:d1:58:41:df:93:43:f5:31:45:0a:d6:42:
        6d:9a:da:80:42:4d:65:64:18:bf:e5:fb:2e:02:e0:04:0f:f1:
        9d:fc:43:be:d6:2f:d7:32:d2:f7:e7:53:86:7a:d6:98:93:37:
        c6:af:4e:32:1f:09:db:98:db:e2:b2:ad:12:70:26:c2:e2:f9:
        47:a9:2a:f4:51:9d:fd:9c:c1:7d:0e:88:af:a2:28:1f:07:1d:
        64:b4:10:5d:ec:7e:1b:bc:8b:51:32:8f:95:d9:2d:03:98:57:
        7f:69:81:35
-----BEGIN CERTIFICATE-----
MIIDdzCCAl+gAwIBAgIQM/gD7YkXABe9mKCi74YSnzANBgkqhkiG9w0BAQsFADAW
MRQwEgYDVQQDDAt0ZWFtNDUyLW5ldDAeFw0yMzExMDQxMDQ4NDFaFw0yNjEwMTkx
MDQ4NDFaMBkxFzAVBgNVBAMMDnRlYW00NTItc2VydmVyMIIBIjANBgkqhkiG9w0B
AQEFAAOCAQ8AMIIBCgKCAQEAv8xRhIIinA+OoJJmECJdenCQwA6YxhtOm/5kijgg
dgV+gGtRkjBThh7n6ZN7UKFuvIhmGamfjoON28rQG8mrCjCFpO4k/tYqj+vDJBCw
zsBHRDQAFA4i8OPEqMd5uJPbxy/pgMWPNUZLcDIT8LeotS5txhXlbd+tUsUzsL3k
IPl5zmyuLcBiUJJOgxtefoKhgp3xDiF0tZ4KpU4vqARpRTb4UsFK/lF+LfreMueA
nrc3whjE2IJLo+0IYp0xV98nRnrSANO4CH+qJdKec/ow/I0g2buhc3Z/WaJDlp1T
WrIUKZS8KnvW0WiGGfPYvu2Uz0rZEfYZpeXkIrIwx9m8qQIDAQABo4G9MIG6MAkG
A1UdEwQCMAAwHQYDVR0OBBYEFM9XlHyXt2m6e3iKpgXkqIiDPN4WMFEGA1UdIwRK
MEiAFPxSN+vgvYPXzzaknGn/WjmvFi5aoRqkGDAWMRQwEgYDVQQDDAt0ZWFtNDUy
LW5ldIIUQIrunWTsFZzjhSFAG9h7JfYqbpwwEwYDVR0lBAwwCgYIKwYBBQUHAwEw
CwYDVR0PBAQDAgWgMBkGA1UdEQQSMBCCDnRlYW00NTItc2VydmVyMA0GCSqGSIb3
DQEBCwUAA4IBAQAezkbAVN7e52oAGTBtPrChbZFs8O7cppPflZbkZaBNehSteYgO
51XD6OC6wo+IQc/lwImpRMEKGcZdulkOn4Hu2tupRmciHwj7XvdJWVIXdTYavSqx
MDJmyDn8yoROY5p1dljkkbZrdjS8FsXDm7Ecc4Vhd20BHnYhx5rMkSugYHJg4zEJ
zd7lDZOF/Tt8oTO6b0D9iRfRWEHfk0P1MUUK1kJtmtqAQk1lZBi/5fsuAuAED/Gd
/EO+1i/XMtL351OGetaYkzfGr04yHwnbmNvisq0ScCbC4vlHqSr0UZ39nMF9Doiv
oigfBx1ktBBd7H4bvItRMo+V2S0DmFd/aYE1
-----END CERTIFICATE-----
