Certificate:
    Data:
        Version: 3 (0x2)
        Serial Number:
            d6:a6:05:d9:6b:90:5c:58:d4:de:37:ed:e7:0f:a4:05
        Signature Algorithm: sha256WithRSAEncryption
        Issuer: CN=team452-net
        Validity
            Not Before: Nov  4 11:37:40 2023 GMT
            Not After : Oct 19 11:37:40 2026 GMT
        Subject: CN=team452-server
        Subject Public Key Info:
            Public Key Algorithm: rsaEncryption
                Public-Key: (2048 bit)
                Modulus:
                    00:ce:88:1e:e6:30:75:53:62:d6:83:68:7c:80:5b:
                    36:4e:fe:43:49:03:d9:25:bf:2c:a8:38:70:ee:43:
                    49:29:2b:b8:37:ee:89:6f:61:2f:8e:a8:3f:9f:58:
                    b4:53:63:72:0f:ff:e8:8b:98:74:f9:13:3d:d3:57:
                    d6:ba:3b:cd:59:69:9c:f4:83:bd:0b:9a:a2:3f:46:
                    80:9a:a6:c9:03:85:41:16:b5:d6:d2:cf:c4:64:21:
                    a4:97:b1:af:49:18:cf:84:4b:24:43:24:86:29:f6:
                    d6:eb:28:97:1e:00:7c:19:30:28:8d:79:e6:38:33:
                    ab:2b:2e:f9:4e:3b:64:27:62:c9:83:14:ea:c2:09:
                    99:b5:66:db:79:cf:fb:c1:c1:1a:8f:a2:9c:b8:5a:
                    7d:8e:2b:a1:47:07:05:91:53:a4:1c:fc:69:4b:80:
                    30:3f:1e:74:08:f0:bc:7b:2a:25:bd:3d:b1:5b:8b:
                    8c:11:32:59:7f:3e:5a:14:f4:90:df:f2:4d:df:0f:
                    57:38:35:72:34:cf:1e:47:14:e9:e0:fe:cb:c7:24:
                    52:d8:0b:63:73:db:1a:61:99:43:8d:b5:07:ac:b3:
                    94:68:08:25:f1:f2:ab:d5:d8:75:8a:39:b7:16:2f:
                    e5:4d:34:f0:d7:ac:58:d0:0e:0c:9f:af:42:68:ca:
                    e4:fb
                Exponent: 65537 (0x10001)
        X509v3 extensions:
            X509v3 Basic Constraints: 
                CA:FALSE
            X509v3 Subject Key Identifier: 
                58:65:F4:71:F0:6F:6F:D4:0A:06:54:27:D5:A6:A5:BA:A4:8A:41:71
            X509v3 Authority Key Identifier: 
                keyid:49:F8:0C:E2:50:8A:EE:A5:E1:07:84:5F:7E:80:09:1F:6C:06:37:16
                DirName:/CN=team452-net
                serial:5F:57:29:7F:93:78:4E:12:FD:36:4C:4A:AC:38:55:E5:06:96:53:C0
            X509v3 Extended Key Usage: 
                TLS Web Server Authentication
            X509v3 Key Usage: 
                Digital Signature, Key Encipherment
            X509v3 Subject Alternative Name: 
                DNS:team452-server
    Signature Algorithm: sha256WithRSAEncryption
    Signature Value:
        76:26:5f:89:e3:ea:08:e5:54:56:bb:07:8c:e1:0e:f0:c3:aa:
        a9:ad:a7:c8:8f:1a:e3:5b:26:ab:0d:61:b2:96:c5:09:11:5c:
        14:9c:e3:6f:3a:03:89:0a:d3:05:a6:03:fd:28:d2:a7:54:5b:
        37:e3:58:9b:f9:b4:8e:9b:3f:32:b8:97:63:2b:51:12:c7:02:
        b1:6c:be:7e:ae:8c:e0:84:7e:65:4e:b6:21:1c:0b:34:f9:93:
        19:17:39:fc:b8:06:1d:63:3f:ec:43:09:bf:00:4a:ff:cd:7b:
        ae:3c:bd:40:3a:9a:f9:c1:2c:07:af:78:69:e2:7e:9e:b6:d3:
        12:9a:07:03:1d:19:5e:e9:84:7d:29:bc:30:fb:f9:6d:da:8b:
        21:57:3b:1a:61:43:c3:b1:fe:65:79:8e:00:79:bb:0a:74:79:
        a8:fc:12:f6:88:70:a6:07:ed:65:8a:88:79:40:9a:a0:f8:cd:
        36:d0:e7:31:ee:c5:7a:00:72:dd:21:8a:cf:45:35:63:6f:f4:
        ee:ab:ba:ee:ee:f9:fe:b4:94:91:95:fb:22:18:92:8d:03:bc:
        d6:6f:2e:c7:f1:3f:66:3c:98:29:96:9d:10:68:f4:7c:e8:dd:
        5b:e3:76:4c:1b:f2:c5:65:69:b4:56:36:aa:f6:5f:40:ea:29:
        22:0f:1f:b8
-----BEGIN CERTIFICATE-----
MIIDeDCCAmCgAwIBAgIRANamBdlrkFxY1N437ecPpAUwDQYJKoZIhvcNAQELBQAw
FjEUMBIGA1UEAwwLdGVhbTQ1Mi1uZXQwHhcNMjMxMTA0MTEzNzQwWhcNMjYxMDE5
MTEzNzQwWjAZMRcwFQYDVQQDDA50ZWFtNDUyLXNlcnZlcjCCASIwDQYJKoZIhvcN
AQEBBQADggEPADCCAQoCggEBAM6IHuYwdVNi1oNofIBbNk7+Q0kD2SW/LKg4cO5D
SSkruDfuiW9hL46oP59YtFNjcg//6IuYdPkTPdNX1ro7zVlpnPSDvQuaoj9GgJqm
yQOFQRa11tLPxGQhpJexr0kYz4RLJEMkhin21usolx4AfBkwKI155jgzqysu+U47
ZCdiyYMU6sIJmbVm23nP+8HBGo+inLhafY4roUcHBZFTpBz8aUuAMD8edAjwvHsq
Jb09sVuLjBEyWX8+WhT0kN/yTd8PVzg1cjTPHkcU6eD+y8ckUtgLY3PbGmGZQ421
B6yzlGgIJfHyq9XYdYo5txYv5U008NesWNAODJ+vQmjK5PsCAwEAAaOBvTCBujAJ
BgNVHRMEAjAAMB0GA1UdDgQWBBRYZfRx8G9v1AoGVCfVpqW6pIpBcTBRBgNVHSME
SjBIgBRJ+AziUIrupeEHhF9+gAkfbAY3FqEapBgwFjEUMBIGA1UEAwwLdGVhbTQ1
Mi1uZXSCFF9XKX+TeE4S/TZMSqw4VeUGllPAMBMGA1UdJQQMMAoGCCsGAQUFBwMB
MAsGA1UdDwQEAwIFoDAZBgNVHREEEjAQgg50ZWFtNDUyLXNlcnZlcjANBgkqhkiG
9w0BAQsFAAOCAQEAdiZfiePqCOVUVrsHjOEO8MOqqa2nyI8a41smqw1hspbFCRFc
FJzjbzoDiQrTBaYD/SjSp1RbN+NYm/m0jps/MriXYytREscCsWy+fq6M4IR+ZU62
IRwLNPmTGRc5/LgGHWM/7EMJvwBK/817rjy9QDqa+cEsB694aeJ+nrbTEpoHAx0Z
XumEfSm8MPv5bdqLIVc7GmFDw7H+ZXmOAHm7CnR5qPwS9ohwpgftZYqIeUCaoPjN
NtDnMe7FegBy3SGKz0U1Y2/07qu67u75/rSUkZX7IhiSjQO81m8ux/E/ZjyYKZad
EGj0fOjdW+N2TBvyxWVptFY2qvZfQOopIg8fuA==
-----END CERTIFICATE-----
