Certificate:
    Data:
        Version: 3 (0x2)
        Serial Number:
            f7:ea:a0:77:23:0b:2d:d2:e0:55:ac:25:aa:20:27:d1
        Signature Algorithm: sha256WithRSAEncryption
        Issuer: CN=team452-net
        Validity
            Not Before: Nov  3 20:47:28 2023 GMT
            Not After : Oct 18 20:47:28 2026 GMT
        Subject: CN=team452-client
        Subject Public Key Info:
            Public Key Algorithm: rsaEncryption
                Public-Key: (2048 bit)
                Modulus:
                    00:e3:ef:70:4b:36:08:8a:93:57:aa:fe:77:ba:98:
                    68:50:17:b5:bd:91:92:dc:f8:67:47:b1:0d:5b:bc:
                    3f:8b:9a:8a:ee:37:d9:88:a0:12:4e:83:49:c6:2c:
                    d4:eb:38:e3:0c:72:1a:bb:01:69:4c:d7:08:c7:62:
                    7b:d8:16:c1:a1:2b:55:25:76:d1:a9:64:59:cd:04:
                    56:7d:81:e4:97:d3:c7:fa:45:27:77:b2:64:a7:c0:
                    fb:8b:a6:c9:20:0d:e8:e6:99:b8:a5:5b:7a:eb:39:
                    40:79:e3:e9:f2:d8:ec:85:91:41:16:ed:54:d1:15:
                    2a:a8:8c:84:df:ae:bf:61:ce:95:96:b7:cf:46:3d:
                    c5:57:df:0e:47:e2:af:6b:ca:e4:91:3d:d0:f7:bf:
                    60:16:1a:bd:e3:0d:40:a3:7b:93:0e:a4:5e:c8:26:
                    ab:8e:97:35:22:9d:1a:00:3c:f1:78:37:6b:4f:73:
                    af:39:8c:6c:cd:49:3f:c6:be:c8:cb:98:cc:59:8e:
                    65:08:3a:90:26:2c:d6:6a:4e:83:c7:3d:22:f7:35:
                    b1:b9:8f:b1:27:8b:d5:fb:29:20:b9:9a:44:eb:7b:
                    3b:b7:fc:01:cd:e7:10:bc:26:45:0e:15:67:ba:d4:
                    4a:a5:c5:e0:d9:b0:5c:bb:29:7e:b8:cb:72:b9:04:
                    da:49
                Exponent: 65537 (0x10001)
        X509v3 extensions:
            X509v3 Basic Constraints: 
                CA:FALSE
            X509v3 Subject Key Identifier: 
                6E:14:41:F6:7C:AF:D4:96:64:35:B8:8A:83:63:E2:6C:A4:4C:43:B8
            X509v3 Authority Key Identifier: 
                keyid:7D:C8:46:D3:11:EC:4C:17:6B:61:09:7E:B0:EF:43:AB:5A:41:C4:E5
                DirName:/CN=team452-net
                serial:09:53:0C:55:78:02:53:B1:A9:67:93:FE:85:15:15:0D:77:92:AB:06
            X509v3 Extended Key Usage: 
                TLS Web Client Authentication
            X509v3 Key Usage: 
                Digital Signature
    Signature Algorithm: sha256WithRSAEncryption
    Signature Value:
        28:f3:78:23:fa:cb:07:fb:ba:35:dd:57:cb:4e:d5:27:a5:31:
        b6:ca:e0:1f:16:05:93:eb:9b:43:c1:e1:e8:7a:ea:12:7d:50:
        e2:25:50:8f:3e:9f:5e:24:a5:57:1c:d9:61:c0:b8:93:2a:55:
        8b:d7:5c:f2:de:fd:a0:dc:d2:57:73:a7:81:f7:3a:ef:b9:bf:
        4f:4f:d5:a7:cd:72:e4:c5:e7:2d:80:df:11:58:df:93:c7:5c:
        e8:75:6a:10:e9:a4:83:f7:90:55:c4:60:da:31:e1:98:dd:44:
        1e:d4:57:2a:4d:35:1b:7b:b8:15:f0:be:36:c0:9b:4c:6e:78:
        85:ba:c7:e7:55:90:08:fc:38:8a:8e:ba:db:b4:7f:a8:08:81:
        6f:9d:ce:9a:64:46:75:91:72:9e:12:49:9d:be:e6:60:79:1d:
        be:9a:36:c8:ec:24:48:22:76:e9:d9:90:97:aa:08:8d:15:df:
        ad:14:21:04:4f:94:bf:08:6f:2c:b3:34:f2:8a:6f:37:da:02:
        1b:25:89:5d:75:3c:61:20:1d:f4:f5:b0:4b:c6:49:c3:70:51:
        46:00:9f:b0:21:1d:75:54:b8:8b:f7:8a:4f:2f:f1:de:1e:b8:
        09:9a:7b:27:6a:cd:b8:f2:ec:d6:12:52:b9:a2:96:dc:c4:d0:
        ad:21:ac:ef
-----BEGIN CERTIFICATE-----
MIIDXTCCAkWgAwIBAgIRAPfqoHcjCy3S4FWsJaogJ9EwDQYJKoZIhvcNAQELBQAw
FjEUMBIGA1UEAwwLdGVhbTQ1Mi1uZXQwHhcNMjMxMTAzMjA0NzI4WhcNMjYxMDE4
MjA0NzI4WjAZMRcwFQYDVQQDDA50ZWFtNDUyLWNsaWVudDCCASIwDQYJKoZIhvcN
AQEBBQADggEPADCCAQoCggEBAOPvcEs2CIqTV6r+d7qYaFAXtb2Rktz4Z0exDVu8
P4uaiu432YigEk6DScYs1Os44wxyGrsBaUzXCMdie9gWwaErVSV20alkWc0EVn2B
5JfTx/pFJ3eyZKfA+4umySAN6OaZuKVbeus5QHnj6fLY7IWRQRbtVNEVKqiMhN+u
v2HOlZa3z0Y9xVffDkfir2vK5JE90Pe/YBYaveMNQKN7kw6kXsgmq46XNSKdGgA8
8Xg3a09zrzmMbM1JP8a+yMuYzFmOZQg6kCYs1mpOg8c9Ivc1sbmPsSeL1fspILma
ROt7O7f8Ac3nELwmRQ4VZ7rUSqXF4NmwXLspfrjLcrkE2kkCAwEAAaOBojCBnzAJ
BgNVHRMEAjAAMB0GA1UdDgQWBBRuFEH2fK/UlmQ1uIqDY+JspExDuDBRBgNVHSME
SjBIgBR9yEbTEexMF2thCX6w70OrWkHE5aEapBgwFjEUMBIGA1UEAwwLdGVhbTQ1
Mi1uZXSCFAlTDFV4AlOxqWeT/oUVFQ13kqsGMBMGA1UdJQQMMAoGCCsGAQUFBwMC
MAsGA1UdDwQEAwIHgDANBgkqhkiG9w0BAQsFAAOCAQEAKPN4I/rLB/u6Nd1Xy07V
J6UxtsrgHxYFk+ubQ8Hh6HrqEn1Q4iVQjz6fXiSlVxzZYcC4kypVi9dc8t79oNzS
V3Ongfc677m/T0/Vp81y5MXnLYDfEVjfk8dc6HVqEOmkg/eQVcRg2jHhmN1EHtRX
Kk01G3u4FfC+NsCbTG54hbrH51WQCPw4io6627R/qAiBb53OmmRGdZFynhJJnb7m
YHkdvpo2yOwkSCJ26dmQl6oIjRXfrRQhBE+UvwhvLLM08opvN9oCGyWJXXU8YSAd
9PWwS8ZJw3BRRgCfsCEddVS4i/eKTy/x3h64CZp7J2rNuPLs1hJSuaKW3MTQrSGs
7w==
-----END CERTIFICATE-----
