Certificate:
    Data:
        Version: 3 (0x2)
        Serial Number:
            60:85:ba:4b:8c:69:d0:c3:f9:ac:41:52:6f:ee:13:cf
        Signature Algorithm: sha256WithRSAEncryption
        Issuer: CN=team284-net
        Validity
            Not Before: Nov  4 10:45:55 2023 GMT
            Not After : Oct 19 10:45:55 2026 GMT
        Subject: CN=team284-client
        Subject Public Key Info:
            Public Key Algorithm: rsaEncryption
                Public-Key: (2048 bit)
                Modulus:
                    00:af:ab:26:93:5d:1f:ff:df:bc:49:18:b8:a3:9a:
                    ff:c7:c2:20:fe:c3:06:44:32:f3:e2:5b:83:26:16:
                    02:4b:57:fe:87:86:e2:47:1c:82:02:d7:68:91:85:
                    d2:12:19:d0:3f:0e:9d:b7:20:80:45:76:cf:f0:64:
                    b9:ba:86:00:55:da:a5:1c:c8:fd:77:a5:26:48:c8:
                    de:68:6f:c3:70:44:ef:48:90:85:94:22:c2:3a:a6:
                    84:88:b2:55:b1:3e:44:b3:1d:f4:8e:90:42:88:a4:
                    5d:c5:9e:1c:8d:0c:4f:de:d0:31:2b:f8:6c:fd:57:
                    4c:3a:ca:fe:b7:92:04:71:97:fa:81:c6:87:64:0c:
                    bc:61:fc:f8:63:6b:95:34:57:a2:de:71:dd:34:39:
                    58:b8:02:04:13:c7:47:0c:67:6e:b4:c6:94:4b:da:
                    a1:76:ca:4a:ab:93:05:ac:be:f3:87:2c:d6:b6:69:
                    17:71:5b:c7:41:01:fa:7b:a4:e0:71:90:da:f2:52:
                    9c:c5:61:cd:9f:21:5a:f8:47:a7:92:f8:e8:ca:0e:
                    85:a0:88:01:2f:d5:4f:59:9f:ef:fe:aa:ed:d9:6b:
                    f8:1c:3a:ce:75:08:a9:4a:68:85:56:74:ab:8f:81:
                    e6:52:f7:b5:20:07:6f:35:94:72:db:38:a1:77:b4:
                    10:bb
                Exponent: 65537 (0x10001)
        X509v3 extensions:
            X509v3 Basic Constraints: 
                CA:FALSE
            X509v3 Subject Key Identifier: 
                46:AA:8E:32:84:0E:1B:E6:BB:59:43:DD:97:73:E4:71:BF:F6:89:58
            X509v3 Authority Key Identifier: 
                keyid:95:8A:36:D6:1A:7F:06:39:D3:C7:EB:E0:09:83:E6:2E:10:EE:A6:A7
                DirName:/CN=team284-net
                serial:5B:6D:96:F7:50:B6:D1:60:17:E6:E6:3F:79:CD:DC:42:F4:34:82:07
            X509v3 Extended Key Usage: 
                TLS Web Client Authentication
            X509v3 Key Usage: 
                Digital Signature
    Signature Algorithm: sha256WithRSAEncryption
    Signature Value:
        0b:63:6d:0d:db:ff:11:2d:82:19:5f:a2:35:ed:aa:5f:9f:74:
        32:e5:b7:df:a8:7c:fe:bf:e7:f2:64:6b:7a:0a:23:9b:e9:01:
        a7:d5:de:ec:9f:fd:f2:be:fb:9c:7c:d1:88:3f:74:ba:08:07:
        b0:8c:cb:fb:5f:fc:f5:55:89:2f:6d:35:55:cf:37:8b:7d:a0:
        e6:f8:91:fd:c1:bc:eb:d2:59:00:94:e1:3e:b5:95:ce:a6:1a:
        67:0a:4f:88:c3:a2:23:8d:b4:55:a9:14:bf:74:0e:e9:32:8d:
        54:f9:31:a1:83:10:f3:0b:9c:b9:ef:04:26:25:41:12:01:db:
        28:99:e2:f8:84:68:7d:81:db:d9:30:2d:ad:7d:ee:f8:e7:55:
        03:84:4a:d8:77:00:10:ab:84:a3:fb:34:b5:b2:76:d7:31:a6:
        6a:bb:d1:25:20:b2:9e:7f:f3:41:b0:9e:e9:4f:e5:33:88:9b:
        91:fd:5d:71:f7:17:ec:b7:4d:ed:24:b8:56:c3:52:5b:db:dd:
        68:85:9e:e1:52:8b:16:09:42:cb:06:1a:4a:55:9a:d8:32:94:
        c8:a2:b3:2f:de:5a:97:b2:37:2b:86:65:0e:5d:3f:3d:f1:26:
        66:bf:74:d8:8f:7a:bc:7c:37:50:94:d9:e9:9e:dc:27:08:ff:
        bd:af:b9:10
-----BEGIN CERTIFICATE-----
MIIDXDCCAkSgAwIBAgIQYIW6S4xp0MP5rEFSb+4TzzANBgkqhkiG9w0BAQsFADAW
MRQwEgYDVQQDDAt0ZWFtMjg0LW5ldDAeFw0yMzExMDQxMDQ1NTVaFw0yNjEwMTkx
MDQ1NTVaMBkxFzAVBgNVBAMMDnRlYW0yODQtY2xpZW50MIIBIjANBgkqhkiG9w0B
AQEFAAOCAQ8AMIIBCgKCAQEAr6smk10f/9+8SRi4o5r/x8Ig/sMGRDLz4luDJhYC
S1f+h4biRxyCAtdokYXSEhnQPw6dtyCARXbP8GS5uoYAVdqlHMj9d6UmSMjeaG/D
cETvSJCFlCLCOqaEiLJVsT5Esx30jpBCiKRdxZ4cjQxP3tAxK/hs/VdMOsr+t5IE
cZf6gcaHZAy8Yfz4Y2uVNFei3nHdNDlYuAIEE8dHDGdutMaUS9qhdspKq5MFrL7z
hyzWtmkXcVvHQQH6e6TgcZDa8lKcxWHNnyFa+Eenkvjoyg6FoIgBL9VPWZ/v/qrt
2Wv4HDrOdQipSmiFVnSrj4HmUve1IAdvNZRy2zihd7QQuwIDAQABo4GiMIGfMAkG
A1UdEwQCMAAwHQYDVR0OBBYEFEaqjjKEDhvmu1lD3Zdz5HG/9olYMFEGA1UdIwRK
MEiAFJWKNtYafwY508fr4AmD5i4Q7qanoRqkGDAWMRQwEgYDVQQDDAt0ZWFtMjg0
LW5ldIIUW22W91C20WAX5uY/ec3cQvQ0ggcwEwYDVR0lBAwwCgYIKwYBBQUHAwIw
CwYDVR0PBAQDAgeAMA0GCSqGSIb3DQEBCwUAA4IBAQALY20N2/8RLYIZX6I17apf
n3Qy5bffqHz+v+fyZGt6CiOb6QGn1d7sn/3yvvucfNGIP3S6CAewjMv7X/z1VYkv
bTVVzzeLfaDm+JH9wbzr0lkAlOE+tZXOphpnCk+Iw6IjjbRVqRS/dA7pMo1U+TGh
gxDzC5y57wQmJUESAdsomeL4hGh9gdvZMC2tfe7451UDhErYdwAQq4Sj+zS1snbX
MaZqu9ElILKef/NBsJ7pT+UziJuR/V1x9xfst03tJLhWw1Jb291ohZ7hUosWCULL
BhpKVZrYMpTIorMv3lqXsjcrhmUOXT898SZmv3TYj3q8fDdQlNnpntwnCP+9r7kQ
-----END CERTIFICATE-----
