Certificate:
    Data:
        Version: 3 (0x2)
        Serial Number:
            7c:16:68:01:d1:1f:b7:92:1f:40:02:ff:c6:cd:76:0b
        Signature Algorithm: sha256WithRSAEncryption
        Issuer: CN=team284-net
        Validity
            Not Before: Nov  4 11:33:27 2023 GMT
            Not After : Oct 19 11:33:27 2026 GMT
        Subject: CN=team284-server
        Subject Public Key Info:
            Public Key Algorithm: rsaEncryption
                Public-Key: (2048 bit)
                Modulus:
                    00:d8:50:09:67:69:6c:d4:f9:1f:f3:f2:5c:44:69:
                    93:84:da:97:32:c0:d8:d5:3c:a4:d4:8c:57:97:dc:
                    d3:02:fe:1c:7a:28:7b:cf:f2:6a:1d:93:a2:00:65:
                    8b:6b:26:79:a9:a1:d3:74:7f:d2:fa:75:8e:9d:d0:
                    4a:b1:c7:20:c0:cb:87:60:70:9d:66:a9:44:14:04:
                    ee:28:05:c3:80:d7:9a:3b:eb:af:0f:22:ad:85:b7:
                    67:f3:1a:c8:6a:0a:32:24:3c:64:e8:f7:68:d6:b3:
                    7c:29:10:a0:d4:60:b7:45:01:9d:5f:4f:52:14:37:
                    ba:8e:95:e3:f8:cc:0e:6c:c6:5b:5a:5f:d4:9b:2d:
                    3c:51:b4:67:d3:80:25:f5:17:0f:1e:08:c9:de:04:
                    f1:d8:5f:df:81:7a:1c:a7:7f:50:93:e9:44:ab:c5:
                    d9:f5:bf:d4:8f:3a:77:57:07:03:b2:6d:6b:5e:ae:
                    a8:ce:fd:f8:5f:d4:71:9b:d9:72:df:22:41:e2:33:
                    85:0f:8e:be:57:02:14:f5:0b:b1:96:31:be:bd:1a:
                    27:00:cc:02:97:9b:ae:6f:54:98:f3:3e:40:12:56:
                    8c:db:d2:f3:5d:a6:41:da:bd:64:86:ad:bf:fe:4b:
                    ef:85:c7:77:e5:b5:04:a7:d4:de:04:38:36:8e:f6:
                    80:eb
                Exponent: 65537 (0x10001)
        X509v3 extensions:
            X509v3 Basic Constraints: 
                CA:FALSE
            X509v3 Subject Key Identifier: 
                DB:75:DE:CB:31:E2:69:2A:45:D4:A5:C3:EA:BB:E3:ED:39:72:1B:CE
            X509v3 Authority Key Identifier: 
                keyid:F1:3D:7A:3E:4B:16:27:37:F4:49:39:E0:23:5B:DF:14:0D:00:3C:19
                DirName:/CN=team284-net
                serial:37:4E:22:34:9F:F7:FF:F6:6B:6C:19:4F:12:4E:34:BE:5B:3B:ED:98
            X509v3 Extended Key Usage: 
                TLS Web Server Authentication
            X509v3 Key Usage: 
                Digital Signature, Key Encipherment
            X509v3 Subject Alternative Name: 
                DNS:team284-server
    Signature Algorithm: sha256WithRSAEncryption
    Signature Value:
        4b:ac:bc:43:f5:d7:36:bb:be:91:22:2b:fd:8c:af:1a:99:76:
        34:c0:d7:f2:ae:87:8b:cf:47:d5:de:17:99:d9:62:3d:a5:f9:
        df:fa:13:56:61:16:f4:7b:d3:58:a4:db:f6:8a:a4:cd:65:d3:
        af:1a:9b:28:70:c8:5a:f9:e2:19:1b:ec:9b:09:53:e8:8b:22:
        1e:99:63:56:99:18:b4:e7:52:31:bb:fc:3d:a9:3a:da:21:f4:
        b8:0b:03:b5:59:de:ed:88:a4:a3:15:67:3f:6d:71:d7:11:30:
        49:bc:d4:00:b0:c8:0c:81:ac:aa:ba:8e:61:59:1b:32:05:a5:
        99:6a:92:a4:15:08:13:90:29:5c:ea:52:06:35:0c:9a:90:2c:
        de:7b:e8:bf:15:03:ea:43:f9:8c:95:b0:76:fb:b6:8d:17:5d:
        11:ed:9a:47:3b:b9:a5:9b:0b:c5:ee:33:d2:3f:e2:a5:32:c3:
        f4:33:29:27:90:5a:35:b5:44:7d:c8:20:2a:c2:17:77:85:a8:
        41:d7:f2:7a:b9:02:c7:3c:e1:f8:36:8a:7d:63:5d:34:55:ab:
        ca:1e:ee:00:b7:e1:dd:9a:58:96:01:f7:aa:e4:1d:d7:c4:38:
        0c:e4:1b:d4:f1:16:8f:25:ad:85:a9:9a:ec:7b:fa:69:ac:d9:
        b2:23:68:b4
-----BEGIN CERTIFICATE-----
MIIDdzCCAl+gAwIBAgIQfBZoAdEft5IfQAL/xs12CzANBgkqhkiG9w0BAQsFADAW
MRQwEgYDVQQDDAt0ZWFtMjg0LW5ldDAeFw0yMzExMDQxMTMzMjdaFw0yNjEwMTkx
MTMzMjdaMBkxFzAVBgNVBAMMDnRlYW0yODQtc2VydmVyMIIBIjANBgkqhkiG9w0B
AQEFAAOCAQ8AMIIBCgKCAQEA2FAJZ2ls1Pkf8/JcRGmThNqXMsDY1Tyk1IxXl9zT
Av4ceih7z/JqHZOiAGWLayZ5qaHTdH/S+nWOndBKsccgwMuHYHCdZqlEFATuKAXD
gNeaO+uvDyKthbdn8xrIagoyJDxk6Pdo1rN8KRCg1GC3RQGdX09SFDe6jpXj+MwO
bMZbWl/Umy08UbRn04Al9RcPHgjJ3gTx2F/fgXocp39Qk+lEq8XZ9b/Ujzp3VwcD
sm1rXq6ozv34X9Rxm9ly3yJB4jOFD46+VwIU9QuxljG+vRonAMwCl5uub1SY8z5A
ElaM29LzXaZB2r1khq2//kvvhcd35bUEp9TeBDg2jvaA6wIDAQABo4G9MIG6MAkG
A1UdEwQCMAAwHQYDVR0OBBYEFNt13ssx4mkqRdSlw+q74+05chvOMFEGA1UdIwRK
MEiAFPE9ej5LFic39Ek54CNb3xQNADwZoRqkGDAWMRQwEgYDVQQDDAt0ZWFtMjg0
LW5ldIIUN04iNJ/3//ZrbBlPEk40vls77ZgwEwYDVR0lBAwwCgYIKwYBBQUHAwEw
CwYDVR0PBAQDAgWgMBkGA1UdEQQSMBCCDnRlYW0yODQtc2VydmVyMA0GCSqGSIb3
DQEBCwUAA4IBAQBLrLxD9dc2u76RIiv9jK8amXY0wNfyroeLz0fV3heZ2WI9pfnf
+hNWYRb0e9NYpNv2iqTNZdOvGpsocMha+eIZG+ybCVPoiyIemWNWmRi051Ixu/w9
qTraIfS4CwO1Wd7tiKSjFWc/bXHXETBJvNQAsMgMgayquo5hWRsyBaWZapKkFQgT
kClc6lIGNQyakCzee+i/FQPqQ/mMlbB2+7aNF10R7ZpHO7mlmwvF7jPSP+KlMsP0
MyknkFo1tUR9yCAqwhd3hahB1/J6uQLHPOH4Nop9Y100VavKHu4At+HdmliWAfeq
5B3XxDgM5BvU8RaPJa2FqZrse/pprNmyI2i0
-----END CERTIFICATE-----
