Certificate:
    Data:
        Version: 3 (0x2)
        Serial Number:
            87:c4:d7:56:f3:1c:c0:4e:7b:06:2a:ba:c3:da:14:32
        Signature Algorithm: sha256WithRSAEncryption
        Issuer: CN=team284-net
        Validity
            Not Before: Nov  3 20:44:28 2023 GMT
            Not After : Oct 18 20:44:28 2026 GMT
        Subject: CN=team284-client
        Subject Public Key Info:
            Public Key Algorithm: rsaEncryption
                Public-Key: (2048 bit)
                Modulus:
                    00:da:4a:87:94:16:9e:52:3d:98:af:40:bd:cb:46:
                    39:e6:37:f1:36:fe:80:62:b3:53:b8:70:30:9f:a2:
                    39:0e:8c:b3:a0:b2:1a:65:f8:48:94:08:64:8f:a3:
                    a0:7c:7e:bc:48:92:00:39:61:85:75:5c:bd:22:9f:
                    d3:17:0d:95:96:2e:ea:4a:37:ca:de:2d:31:59:4b:
                    04:7c:84:36:21:4d:ab:2f:fd:1f:e8:d6:86:42:35:
                    8e:ef:d5:40:61:26:46:86:10:28:c2:e1:1f:10:54:
                    6e:98:43:1b:84:11:ed:8a:57:42:cc:f8:3a:27:05:
                    77:7e:b5:43:a9:21:0e:e0:67:0c:03:0d:19:8f:da:
                    7c:6b:ec:84:20:ff:d5:f1:55:a7:59:cb:2f:2d:80:
                    fb:39:1d:b5:ef:0d:49:96:88:78:22:5b:0b:30:4f:
                    86:97:24:29:1c:dc:3b:19:af:59:b0:76:c5:f9:60:
                    02:7e:b4:ae:b0:0e:2a:a1:f0:85:d5:6d:e9:e0:ed:
                    b7:88:27:66:74:a2:e5:af:e4:06:12:96:d4:fe:07:
                    40:73:40:f0:ea:16:7a:4f:4c:0f:56:e1:41:42:b5:
                    c0:3a:3b:9b:12:99:fb:58:5f:b9:19:2d:95:b4:66:
                    e9:e6:e8:5e:39:3f:99:88:85:bc:cc:e1:03:05:0a:
                    63:59
                Exponent: 65537 (0x10001)
        X509v3 extensions:
            X509v3 Basic Constraints: 
                CA:FALSE
            X509v3 Subject Key Identifier: 
                A2:A4:C8:4D:5B:3D:9E:DD:54:2E:03:64:76:4A:62:C3:AF:2E:60:ED
            X509v3 Authority Key Identifier: 
                keyid:23:2B:BD:24:B8:18:78:AA:5B:83:EF:A9:46:7F:F9:0C:20:C9:C7:71
                DirName:/CN=team284-net
                serial:02:3D:72:BD:AD:C9:A2:15:59:F7:BE:E7:FF:C0:67:4D:00:47:C7:AA
            X509v3 Extended Key Usage: 
                TLS Web Client Authentication
            X509v3 Key Usage: 
                Digital Signature
    Signature Algorithm: sha256WithRSAEncryption
    Signature Value:
        6b:41:31:4d:6d:4d:6c:21:3e:ab:6e:2f:98:1d:16:a3:7f:e4:
        14:03:d1:c3:ab:10:60:1e:d5:d8:ca:ae:ac:1e:ee:ff:39:eb:
        b4:f2:40:bb:33:82:b8:0d:28:60:db:74:58:0c:ea:19:d9:18:
        a2:4a:46:a9:88:39:f0:d2:a4:f3:c6:db:f6:14:8d:27:a9:ad:
        37:61:eb:d7:b1:fe:48:d1:bc:a0:07:c3:95:78:1f:67:5c:ff:
        d7:14:bb:58:10:25:09:e6:b8:82:af:04:45:be:e7:21:d2:d9:
        b6:6d:4f:85:a6:6e:0e:78:b3:c1:bd:3e:e4:f8:dc:a7:f4:98:
        99:bc:f5:1c:61:d8:3d:5a:18:18:82:0f:42:99:41:60:18:97:
        56:eb:d3:45:40:55:dc:da:d0:5b:00:dc:f5:1a:d1:0b:da:6b:
        36:90:d6:b2:65:d4:35:ed:21:ae:3b:44:65:e7:ca:45:76:50:
        13:9f:c1:d5:97:ed:3d:67:25:d6:3b:ea:b8:14:dd:b3:4a:7e:
        6c:5f:7b:50:f3:90:d7:54:e7:4e:08:fd:01:02:8d:2c:c8:f9:
        71:e5:c7:06:26:48:6f:f3:f6:47:2e:6a:2f:72:22:4d:7f:24:
        0a:6f:5c:22:7a:a5:ac:55:da:bb:91:fc:0c:e8:3f:b7:7f:6f:
        c1:5d:46:99
-----BEGIN CERTIFICATE-----
MIIDXTCCAkWgAwIBAgIRAIfE11bzHMBOewYqusPaFDIwDQYJKoZIhvcNAQELBQAw
FjEUMBIGA1UEAwwLdGVhbTI4NC1uZXQwHhcNMjMxMTAzMjA0NDI4WhcNMjYxMDE4
MjA0NDI4WjAZMRcwFQYDVQQDDA50ZWFtMjg0LWNsaWVudDCCASIwDQYJKoZIhvcN
AQEBBQADggEPADCCAQoCggEBANpKh5QWnlI9mK9AvctGOeY38Tb+gGKzU7hwMJ+i
OQ6Ms6CyGmX4SJQIZI+joHx+vEiSADlhhXVcvSKf0xcNlZYu6ko3yt4tMVlLBHyE
NiFNqy/9H+jWhkI1ju/VQGEmRoYQKMLhHxBUbphDG4QR7YpXQsz4OicFd361Q6kh
DuBnDAMNGY/afGvshCD/1fFVp1nLLy2A+zkdte8NSZaIeCJbCzBPhpckKRzcOxmv
WbB2xflgAn60rrAOKqHwhdVt6eDtt4gnZnSi5a/kBhKW1P4HQHNA8OoWek9MD1bh
QUK1wDo7mxKZ+1hfuRktlbRm6eboXjk/mYiFvMzhAwUKY1kCAwEAAaOBojCBnzAJ
BgNVHRMEAjAAMB0GA1UdDgQWBBSipMhNWz2e3VQuA2R2SmLDry5g7TBRBgNVHSME
SjBIgBQjK70kuBh4qluD76lGf/kMIMnHcaEapBgwFjEUMBIGA1UEAwwLdGVhbTI4
NC1uZXSCFAI9cr2tyaIVWfe+5//AZ00AR8eqMBMGA1UdJQQMMAoGCCsGAQUFBwMC
MAsGA1UdDwQEAwIHgDANBgkqhkiG9w0BAQsFAAOCAQEAa0ExTW1NbCE+q24vmB0W
o3/kFAPRw6sQYB7V2MqurB7u/znrtPJAuzOCuA0oYNt0WAzqGdkYokpGqYg58NKk
88bb9hSNJ6mtN2Hr17H+SNG8oAfDlXgfZ1z/1xS7WBAlCea4gq8ERb7nIdLZtm1P
haZuDnizwb0+5Pjcp/SYmbz1HGHYPVoYGIIPQplBYBiXVuvTRUBV3NrQWwDc9RrR
C9prNpDWsmXUNe0hrjtEZefKRXZQE5/B1ZftPWcl1jvquBTds0p+bF97UPOQ11Tn
Tgj9AQKNLMj5ceXHBiZIb/P2Ry5qL3IiTX8kCm9cInqlrFXau5H8DOg/t39vwV1G
mQ==
-----END CERTIFICATE-----
