Certificate:
    Data:
        Version: 3 (0x2)
        Serial Number:
            af:e5:01:57:e1:07:e6:ab:26:67:ae:70:b0:cd:56:86
        Signature Algorithm: sha256WithRSAEncryption
        Issuer: CN=team284-net
        Validity
            Not Before: Nov  4 11:33:27 2023 GMT
            Not After : Oct 19 11:33:27 2026 GMT
        Subject: CN=team284-client
        Subject Public Key Info:
            Public Key Algorithm: rsaEncryption
                Public-Key: (2048 bit)
                Modulus:
                    00:b5:7f:1b:1d:bb:66:c4:bd:16:e9:5a:d9:ea:ab:
                    63:9b:ac:73:fe:54:c1:db:93:d2:5a:79:ce:f4:13:
                    4c:1a:96:bd:19:2e:1a:5c:4f:f3:4d:49:31:de:1d:
                    ad:50:e6:37:ff:ed:d8:75:e1:8e:23:70:e6:9f:9c:
                    55:57:b3:48:6c:a8:66:47:d1:b0:fa:16:c4:9b:4a:
                    68:b8:39:38:eb:80:09:bb:91:f5:c2:eb:53:10:8c:
                    fc:ca:9e:0c:96:e3:7b:8e:6d:2f:01:ac:94:f6:cc:
                    36:7e:1a:14:9a:0a:cf:f8:5c:e6:48:32:62:3a:88:
                    04:34:c8:31:1d:8d:a3:13:f7:79:5b:2b:ae:1e:1c:
                    ce:17:56:da:c5:6f:97:b8:78:77:7f:59:ea:5d:51:
                    20:a4:4d:56:d0:e8:3c:b2:3e:c0:62:2a:68:3e:71:
                    15:38:e1:c9:d2:2c:7a:fd:f5:be:6a:b3:31:b1:9b:
                    75:bf:b2:f1:3b:d2:ec:d5:15:22:42:18:3c:05:b0:
                    79:5d:60:cf:be:2e:c2:a8:da:8f:d8:d0:e4:87:64:
                    54:fc:8a:ce:06:02:f5:f6:71:89:f1:76:60:55:44:
                    b2:be:f8:a8:29:16:cf:df:9d:ce:0b:b9:4b:e4:7d:
                    a4:19:60:bb:cf:51:b3:59:e7:88:b8:09:3f:0a:5b:
                    99:07
                Exponent: 65537 (0x10001)
        X509v3 extensions:
            X509v3 Basic Constraints: 
                CA:FALSE
            X509v3 Subject Key Identifier: 
                72:5D:3C:53:56:D6:0B:FA:66:76:4B:BB:DC:50:06:19:92:93:13:BF
            X509v3 Authority Key Identifier: 
                keyid:F1:3D:7A:3E:4B:16:27:37:F4:49:39:E0:23:5B:DF:14:0D:00:3C:19
                DirName:/CN=team284-net
                serial:37:4E:22:34:9F:F7:FF:F6:6B:6C:19:4F:12:4E:34:BE:5B:3B:ED:98
            X509v3 Extended Key Usage: 
                TLS Web Client Authentication
            X509v3 Key Usage: 
                Digital Signature
    Signature Algorithm: sha256WithRSAEncryption
    Signature Value:
        00:c8:79:77:2f:9b:46:fa:8f:7f:93:35:25:b6:c1:48:d3:d8:
        c8:b6:7d:2e:b4:fa:84:fe:f8:ed:de:dd:e5:27:6d:f6:3f:77:
        b9:69:7a:03:dd:83:d0:78:3e:ef:03:33:5c:d7:09:1e:b9:0b:
        34:84:a4:76:0f:19:85:c8:84:c7:72:d1:91:69:6f:f7:eb:6d:
        49:54:95:ad:d4:a3:f7:31:04:35:d3:df:03:fa:54:a8:7b:07:
        72:17:8c:14:9f:b2:e0:ba:6e:a4:01:6e:3b:00:0c:fd:96:fc:
        d5:4c:35:99:f8:db:89:e6:69:6d:d4:f7:67:c3:c9:c8:3d:1e:
        e0:5e:4d:61:a5:12:40:17:aa:68:6c:31:cd:c6:1d:88:4f:cb:
        4e:d1:01:f4:d3:bd:8f:52:fe:df:25:56:89:72:4f:e6:91:30:
        24:cf:1e:77:37:bb:06:e1:d1:f9:81:1a:d9:a0:d8:a6:8e:5e:
        b2:9c:bf:bf:7d:3b:5b:b4:19:75:34:8b:78:f7:d9:92:fe:ce:
        9d:c4:8b:29:0a:5f:d8:17:78:18:4c:51:7e:96:c4:ba:8b:fa:
        94:99:da:9c:8a:50:da:57:1f:b7:5e:88:75:d5:40:87:a8:0a:
        61:c5:6f:b4:b5:55:91:98:0f:f8:26:c9:04:3e:76:c4:36:df:
        2d:53:8b:b9
-----BEGIN CERTIFICATE-----
MIIDXTCCAkWgAwIBAgIRAK/lAVfhB+arJmeucLDNVoYwDQYJKoZIhvcNAQELBQAw
FjEUMBIGA1UEAwwLdGVhbTI4NC1uZXQwHhcNMjMxMTA0MTEzMzI3WhcNMjYxMDE5
MTEzMzI3WjAZMRcwFQYDVQQDDA50ZWFtMjg0LWNsaWVudDCCASIwDQYJKoZIhvcN
AQEBBQADggEPADCCAQoCggEBALV/Gx27ZsS9Fula2eqrY5usc/5UwduT0lp5zvQT
TBqWvRkuGlxP801JMd4drVDmN//t2HXhjiNw5p+cVVezSGyoZkfRsPoWxJtKaLg5
OOuACbuR9cLrUxCM/MqeDJbje45tLwGslPbMNn4aFJoKz/hc5kgyYjqIBDTIMR2N
oxP3eVsrrh4czhdW2sVvl7h4d39Z6l1RIKRNVtDoPLI+wGIqaD5xFTjhydIsev31
vmqzMbGbdb+y8TvS7NUVIkIYPAWweV1gz74uwqjaj9jQ5IdkVPyKzgYC9fZxifF2
YFVEsr74qCkWz9+dzgu5S+R9pBlgu89Rs1nniLgJPwpbmQcCAwEAAaOBojCBnzAJ
BgNVHRMEAjAAMB0GA1UdDgQWBBRyXTxTVtYL+mZ2S7vcUAYZkpMTvzBRBgNVHSME
SjBIgBTxPXo+SxYnN/RJOeAjW98UDQA8GaEapBgwFjEUMBIGA1UEAwwLdGVhbTI4
NC1uZXSCFDdOIjSf9//2a2wZTxJONL5bO+2YMBMGA1UdJQQMMAoGCCsGAQUFBwMC
MAsGA1UdDwQEAwIHgDANBgkqhkiG9w0BAQsFAAOCAQEAAMh5dy+bRvqPf5M1JbbB
SNPYyLZ9LrT6hP747d7d5Sdt9j93uWl6A92D0Hg+7wMzXNcJHrkLNISkdg8ZhciE
x3LRkWlv9+ttSVSVrdSj9zEENdPfA/pUqHsHcheMFJ+y4LpupAFuOwAM/Zb81Uw1
mfjbieZpbdT3Z8PJyD0e4F5NYaUSQBeqaGwxzcYdiE/LTtEB9NO9j1L+3yVWiXJP
5pEwJM8edze7BuHR+YEa2aDYpo5espy/v307W7QZdTSLePfZkv7OncSLKQpf2Bd4
GExRfpbEuov6lJnanIpQ2lcft16IddVAh6gKYcVvtLVVkZgP+CbJBD52xDbfLVOL
uQ==
-----END CERTIFICATE-----
