Certificate:
    Data:
        Version: 3 (0x2)
        Serial Number:
            da:f6:3e:68:74:89:62:ad:91:99:0e:61:af:0b:02:ab
        Signature Algorithm: sha256WithRSAEncryption
        Issuer: CN=team284-net
        Validity
            Not Before: Nov  4 10:45:55 2023 GMT
            Not After : Oct 19 10:45:55 2026 GMT
        Subject: CN=team284-server
        Subject Public Key Info:
            Public Key Algorithm: rsaEncryption
                Public-Key: (2048 bit)
                Modulus:
                    00:c5:73:53:bf:ed:71:5d:66:9a:3f:e9:d7:2f:11:
                    62:ea:69:87:e5:44:ef:5a:fc:46:7e:ca:36:ed:42:
                    92:a0:65:af:5f:c3:1b:12:4b:6e:f9:23:f0:63:a4:
                    52:d8:3d:f4:48:f0:54:8a:be:e0:92:ea:a3:10:45:
                    ff:27:4f:31:ef:33:cd:f5:e3:70:a7:3b:d4:1f:27:
                    ab:57:78:28:74:79:81:87:d1:a5:ad:9b:e7:c1:7b:
                    bb:ab:f4:79:20:80:a2:ab:b8:93:1c:1b:bb:26:50:
                    8f:36:6b:15:0d:41:21:83:52:89:d9:65:21:d0:02:
                    ca:47:8b:36:e6:70:83:7a:f8:b2:5a:bd:47:71:a9:
                    2c:18:68:8a:ff:d4:7f:fb:43:33:0f:32:ba:26:4f:
                    6f:c1:5a:01:f5:0f:96:de:8b:cc:24:fe:68:46:31:
                    09:84:10:3a:e1:2e:dd:3b:21:56:d6:c1:09:76:ce:
                    fe:94:c0:7e:66:fe:a6:95:8f:9a:57:45:39:2f:f9:
                    df:e6:0c:11:d3:85:c8:76:05:f1:cf:7b:84:79:e3:
                    2c:2b:47:f0:92:9b:97:f4:af:7b:44:63:3b:ed:74:
                    5a:ad:b0:ae:9e:f9:b4:c1:af:97:14:e0:1c:83:01:
                    d1:5d:ac:2b:82:d8:de:17:7f:6b:cd:24:33:2e:49:
                    cb:31
                Exponent: 65537 (0x10001)
        X509v3 extensions:
            X509v3 Basic Constraints: 
                CA:FALSE
            X509v3 Subject Key Identifier: 
                80:27:6B:EE:13:FC:80:C1:0E:20:B0:3C:77:F7:86:1C:37:B9:C7:74
            X509v3 Authority Key Identifier: 
                keyid:95:8A:36:D6:1A:7F:06:39:D3:C7:EB:E0:09:83:E6:2E:10:EE:A6:A7
                DirName:/CN=team284-net
                serial:5B:6D:96:F7:50:B6:D1:60:17:E6:E6:3F:79:CD:DC:42:F4:34:82:07
            X509v3 Extended Key Usage: 
                TLS Web Server Authentication
            X509v3 Key Usage: 
                Digital Signature, Key Encipherment
            X509v3 Subject Alternative Name: 
                DNS:team284-server
    Signature Algorithm: sha256WithRSAEncryption
    Signature Value:
        80:bc:0a:1a:29:69:1a:72:f1:16:c8:56:00:92:43:f7:4c:cb:
        7d:b3:15:2d:e5:1e:1e:a1:d9:5f:4e:51:23:47:41:20:af:ef:
        c1:91:03:cb:20:f9:ec:a2:86:8a:25:1b:23:3c:dd:42:6c:ed:
        58:59:88:83:c1:ee:e5:7e:0f:b8:9b:8f:0e:7f:0e:ac:1c:f4:
        c6:80:87:95:e7:9a:d7:16:8f:fc:fa:97:b7:5c:bf:45:d7:fd:
        4c:e9:7b:da:9e:13:4f:91:0e:10:27:6f:5c:ea:7c:cf:b3:00:
        78:cc:6d:b2:e0:28:9a:b8:c8:9d:cf:fc:eb:bd:f2:ef:61:56:
        89:1c:14:1a:bf:aa:c4:4a:3a:88:d7:64:c4:3c:a1:fb:22:93:
        2d:0d:36:fb:44:ef:4c:83:62:10:c5:58:71:08:1d:bd:99:fc:
        94:9f:68:73:78:8c:65:14:5d:d7:64:25:2e:19:32:47:0b:68:
        36:40:b5:5b:d1:cd:db:bd:90:75:87:39:02:67:d2:5d:76:9f:
        a7:07:26:2b:d4:fe:a6:47:08:07:70:89:81:75:06:cb:a7:06:
        c1:49:98:a2:98:97:51:9d:62:0c:c6:79:27:f9:98:27:68:db:
        28:cc:01:29:1c:b6:84:c3:9e:d8:62:31:34:da:78:c0:bd:ef:
        d5:24:7f:41
-----BEGIN CERTIFICATE-----
MIIDeDCCAmCgAwIBAgIRANr2Pmh0iWKtkZkOYa8LAqswDQYJKoZIhvcNAQELBQAw
FjEUMBIGA1UEAwwLdGVhbTI4NC1uZXQwHhcNMjMxMTA0MTA0NTU1WhcNMjYxMDE5
MTA0NTU1WjAZMRcwFQYDVQQDDA50ZWFtMjg0LXNlcnZlcjCCASIwDQYJKoZIhvcN
AQEBBQADggEPADCCAQoCggEBAMVzU7/tcV1mmj/p1y8RYupph+VE71r8Rn7KNu1C
kqBlr1/DGxJLbvkj8GOkUtg99EjwVIq+4JLqoxBF/ydPMe8zzfXjcKc71B8nq1d4
KHR5gYfRpa2b58F7u6v0eSCAoqu4kxwbuyZQjzZrFQ1BIYNSidllIdACykeLNuZw
g3r4slq9R3GpLBhoiv/Uf/tDMw8yuiZPb8FaAfUPlt6LzCT+aEYxCYQQOuEu3Tsh
VtbBCXbO/pTAfmb+ppWPmldFOS/53+YMEdOFyHYF8c97hHnjLCtH8JKbl/Sve0Rj
O+10Wq2wrp75tMGvlxTgHIMB0V2sK4LY3hd/a80kMy5JyzECAwEAAaOBvTCBujAJ
BgNVHRMEAjAAMB0GA1UdDgQWBBSAJ2vuE/yAwQ4gsDx394YcN7nHdDBRBgNVHSME
SjBIgBSVijbWGn8GOdPH6+AJg+YuEO6mp6EapBgwFjEUMBIGA1UEAwwLdGVhbTI4
NC1uZXSCFFttlvdQttFgF+bmP3nN3EL0NIIHMBMGA1UdJQQMMAoGCCsGAQUFBwMB
MAsGA1UdDwQEAwIFoDAZBgNVHREEEjAQgg50ZWFtMjg0LXNlcnZlcjANBgkqhkiG
9w0BAQsFAAOCAQEAgLwKGilpGnLxFshWAJJD90zLfbMVLeUeHqHZX05RI0dBIK/v
wZEDyyD57KKGiiUbIzzdQmztWFmIg8Hu5X4PuJuPDn8OrBz0xoCHleea1xaP/PqX
t1y/Rdf9TOl72p4TT5EOECdvXOp8z7MAeMxtsuAomrjInc/8673y72FWiRwUGr+q
xEo6iNdkxDyh+yKTLQ02+0TvTINiEMVYcQgdvZn8lJ9oc3iMZRRd12QlLhkyRwto
NkC1W9HN272QdYc5AmfSXXafpwcmK9T+pkcIB3CJgXUGy6cGwUmYopiXUZ1iDMZ5
J/mYJ2jbKMwBKRy2hMOe2GIxNNp4wL3v1SR/QQ==
-----END CERTIFICATE-----
