Certificate:
    Data:
        Version: 3 (0x2)
        Serial Number:
            34:5e:ce:22:4f:21:ce:fa:d4:83:0f:72:8a:8c:8b:38
        Signature Algorithm: sha256WithRSAEncryption
        Issuer: CN=team482-net
        Validity
            Not Before: Nov  4 10:49:07 2023 GMT
            Not After : Oct 19 10:49:07 2026 GMT
        Subject: CN=team482-server
        Subject Public Key Info:
            Public Key Algorithm: rsaEncryption
                Public-Key: (2048 bit)
                Modulus:
                    00:b2:77:16:a5:9d:b5:a4:45:ed:17:dd:9a:30:78:
                    46:b0:8a:24:ae:89:1e:e8:45:7a:7a:4e:e6:58:41:
                    78:ad:c9:e3:de:8c:6c:ea:b1:67:16:6d:b8:5c:13:
                    cf:09:67:e1:5f:3a:62:fa:9a:23:68:ef:e3:8a:be:
                    74:44:e5:db:d6:80:ff:c0:61:87:db:81:66:c3:2f:
                    6a:39:61:68:f5:e9:aa:fe:d4:74:98:0e:ed:64:b6:
                    72:7e:0f:2d:28:9b:54:6f:5f:33:03:c8:32:7b:0e:
                    23:a1:ff:07:5d:78:1d:a3:c0:14:3c:b9:bb:b3:bf:
                    e6:f9:35:67:fd:42:17:b9:71:23:34:c0:10:f5:b6:
                    d0:38:f1:3d:2f:3c:a4:3e:18:fa:c9:c4:e0:bb:9b:
                    b8:39:5e:b0:f8:65:a9:7c:16:3e:2a:aa:e2:d0:58:
                    db:40:d0:17:f4:5e:09:ef:30:3d:78:86:0e:e5:57:
                    93:ef:e3:8d:e7:a6:04:6c:24:84:78:13:23:af:85:
                    9e:b6:ad:70:fb:86:ce:00:c1:a6:8b:43:68:a3:e6:
                    58:ec:3a:dc:eb:df:38:fe:18:db:f8:82:e1:8f:6b:
                    3c:2b:b1:82:82:36:40:4d:43:9e:ab:ae:62:08:a5:
                    15:95:7d:e1:77:47:0f:24:7f:3d:3d:12:45:54:6f:
                    d2:9d
                Exponent: 65537 (0x10001)
        X509v3 extensions:
            X509v3 Basic Constraints: 
                CA:FALSE
            X509v3 Subject Key Identifier: 
                95:E5:C0:61:E3:5F:35:3C:10:81:F2:A8:BA:68:D3:34:9E:A3:63:B1
            X509v3 Authority Key Identifier: 
                keyid:7D:A8:8C:88:2F:6E:65:75:E6:AF:E1:A9:01:CA:93:25:9C:46:8E:FB
                DirName:/CN=team482-net
                serial:05:47:31:BE:21:3F:83:C0:A9:98:9F:97:DF:EB:DF:AD:F8:24:55:73
            X509v3 Extended Key Usage: 
                TLS Web Server Authentication
            X509v3 Key Usage: 
                Digital Signature, Key Encipherment
            X509v3 Subject Alternative Name: 
                DNS:team482-server
    Signature Algorithm: sha256WithRSAEncryption
    Signature Value:
        86:5b:66:4a:24:82:72:6e:0d:b7:aa:ca:cc:f4:22:2b:ea:62:
        f4:e3:1d:19:cb:46:c4:3f:e9:c7:f2:be:eb:50:ef:c1:dd:29:
        44:16:1a:07:6d:20:1c:d1:34:b0:47:e1:28:8d:26:12:a7:f9:
        0a:d9:a1:3d:46:b7:98:b9:2a:aa:7e:b6:eb:60:0c:3b:8e:20:
        b8:9f:7c:2c:fa:4e:e8:7b:a4:c0:4f:35:03:5b:fc:50:69:4f:
        1a:c7:5d:db:25:9f:54:74:92:0b:96:9e:b8:03:0f:cf:6d:a1:
        b3:6e:aa:41:57:87:6f:57:e1:53:9a:47:54:5f:0f:2d:09:46:
        dc:d2:78:37:03:bb:2b:65:f5:c7:ae:ea:14:ec:17:b2:23:19:
        ca:af:66:a8:e3:b2:18:88:06:d9:a5:45:9a:d3:60:b4:e4:be:
        1f:82:6f:8b:37:0d:78:43:d4:ca:2d:88:4b:42:f8:fb:88:d9:
        df:e2:a8:69:e7:26:02:71:e1:62:11:46:13:43:45:28:63:e0:
        6a:63:02:d7:ad:1c:d8:d4:d5:1b:67:5e:9b:39:2f:90:51:5e:
        45:f2:80:a7:6b:d7:31:ac:7d:14:8f:ec:7f:3d:31:7b:66:fb:
        14:53:57:22:81:90:f0:bc:f4:64:67:d9:59:4d:18:09:7a:41:
        a3:3c:c8:f4
-----BEGIN CERTIFICATE-----
MIIDdzCCAl+gAwIBAgIQNF7OIk8hzvrUgw9yioyLODANBgkqhkiG9w0BAQsFADAW
MRQwEgYDVQQDDAt0ZWFtNDgyLW5ldDAeFw0yMzExMDQxMDQ5MDdaFw0yNjEwMTkx
MDQ5MDdaMBkxFzAVBgNVBAMMDnRlYW00ODItc2VydmVyMIIBIjANBgkqhkiG9w0B
AQEFAAOCAQ8AMIIBCgKCAQEAsncWpZ21pEXtF92aMHhGsIokroke6EV6ek7mWEF4
rcnj3oxs6rFnFm24XBPPCWfhXzpi+pojaO/jir50ROXb1oD/wGGH24Fmwy9qOWFo
9emq/tR0mA7tZLZyfg8tKJtUb18zA8gyew4jof8HXXgdo8AUPLm7s7/m+TVn/UIX
uXEjNMAQ9bbQOPE9LzykPhj6ycTgu5u4OV6w+GWpfBY+Kqri0FjbQNAX9F4J7zA9
eIYO5VeT7+ON56YEbCSEeBMjr4Wetq1w+4bOAMGmi0Noo+ZY7Drc6984/hjb+ILh
j2s8K7GCgjZATUOeq65iCKUVlX3hd0cPJH89PRJFVG/SnQIDAQABo4G9MIG6MAkG
A1UdEwQCMAAwHQYDVR0OBBYEFJXlwGHjXzU8EIHyqLpo0zSeo2OxMFEGA1UdIwRK
MEiAFH2ojIgvbmV15q/hqQHKkyWcRo77oRqkGDAWMRQwEgYDVQQDDAt0ZWFtNDgy
LW5ldIIUBUcxviE/g8CpmJ+X3+vfrfgkVXMwEwYDVR0lBAwwCgYIKwYBBQUHAwEw
CwYDVR0PBAQDAgWgMBkGA1UdEQQSMBCCDnRlYW00ODItc2VydmVyMA0GCSqGSIb3
DQEBCwUAA4IBAQCGW2ZKJIJybg23qsrM9CIr6mL04x0Zy0bEP+nH8r7rUO/B3SlE
FhoHbSAc0TSwR+EojSYSp/kK2aE9RreYuSqqfrbrYAw7jiC4n3ws+k7oe6TATzUD
W/xQaU8ax13bJZ9UdJILlp64Aw/PbaGzbqpBV4dvV+FTmkdUXw8tCUbc0ng3A7sr
ZfXHruoU7BeyIxnKr2ao47IYiAbZpUWa02C05L4fgm+LNw14Q9TKLYhLQvj7iNnf
4qhp5yYCceFiEUYTQ0UoY+BqYwLXrRzY1NUbZ16bOS+QUV5F8oCna9cxrH0Uj+x/
PTF7ZvsUU1cigZDwvPRkZ9lZTRgJekGjPMj0
-----END CERTIFICATE-----
