Certificate:
    Data:
        Version: 3 (0x2)
        Serial Number:
            d4:ee:b9:bc:2f:65:6e:86:de:6c:ae:60:d1:8e:ec:ed
        Signature Algorithm: sha256WithRSAEncryption
        Issuer: CN=team482-net
        Validity
            Not Before: Nov  4 11:38:29 2023 GMT
            Not After : Oct 19 11:38:29 2026 GMT
        Subject: CN=team482-client
        Subject Public Key Info:
            Public Key Algorithm: rsaEncryption
                Public-Key: (2048 bit)
                Modulus:
                    00:a7:f3:59:1b:e1:df:4b:c3:f5:67:e7:35:1b:27:
                    c1:94:52:25:7d:28:ac:1d:8f:d7:04:91:a7:81:84:
                    84:e3:80:8f:92:6d:40:98:50:c2:95:4b:8e:0f:91:
                    68:b5:a4:9d:46:bf:6a:dc:55:35:72:02:98:21:e4:
                    a0:01:5f:a2:98:a5:82:72:ee:b6:04:46:33:ab:03:
                    77:df:2b:87:74:24:97:21:3f:31:d4:eb:56:91:a1:
                    26:50:30:e1:93:6c:d0:5d:d9:8e:7b:a0:ba:a5:88:
                    13:3b:1f:94:41:d3:36:a5:63:a7:c7:fe:a6:e6:f2:
                    3b:1e:7d:72:40:0a:68:5b:fc:74:1d:81:a3:4e:2c:
                    f0:20:ff:f3:5a:0f:09:8b:7a:10:b6:af:00:cf:1b:
                    8c:9a:31:73:2c:51:80:35:06:6a:4b:a4:24:e7:c1:
                    0c:1c:fb:e8:ba:61:d1:7b:8c:99:0e:82:06:1c:4d:
                    41:9b:0b:f3:94:70:84:5e:f1:30:85:be:06:bb:de:
                    39:e1:0a:dd:43:81:71:56:32:0f:20:39:fa:fc:29:
                    13:de:c3:0f:c7:c9:fc:fc:dc:53:77:dc:e8:1d:21:
                    24:f6:68:dc:9d:a0:50:3c:7d:84:5d:f6:1b:c5:f6:
                    a0:03:d8:43:b7:4e:01:74:79:fc:97:3e:d0:81:b3:
                    82:c9
                Exponent: 65537 (0x10001)
        X509v3 extensions:
            X509v3 Basic Constraints: 
                CA:FALSE
            X509v3 Subject Key Identifier: 
                E6:3B:BD:60:CB:DC:95:9A:72:38:2C:52:32:76:5A:69:2B:BC:EF:1D
            X509v3 Authority Key Identifier: 
                keyid:CB:58:E3:22:63:75:E2:E4:4A:BE:04:4B:D4:20:9E:AA:39:B9:0B:B0
                DirName:/CN=team482-net
                serial:3F:EF:AF:96:9A:53:36:F0:ED:EC:8C:AD:24:F9:E3:8C:25:5F:2D:E9
            X509v3 Extended Key Usage: 
                TLS Web Client Authentication
            X509v3 Key Usage: 
                Digital Signature
    Signature Algorithm: sha256WithRSAEncryption
    Signature Value:
        47:56:84:0c:23:70:00:22:54:29:69:fe:6f:52:09:57:99:2f:
        ce:d7:3e:63:bd:7f:03:3d:cc:20:27:43:b6:b8:d1:4c:49:16:
        23:46:de:45:4f:c9:c9:c0:6e:a4:fd:f5:89:7d:45:aa:de:56:
        fd:6a:98:35:6b:1b:ab:f2:3a:1e:4f:7d:cf:e1:ed:75:c0:bf:
        fc:4b:8f:b2:e4:cf:a9:8c:2f:a3:4f:4e:46:6c:95:3c:19:88:
        71:a4:6c:d5:22:0c:d4:9d:0d:0a:85:74:50:36:81:94:d5:9b:
        5b:a2:9c:7a:93:f8:18:f4:2d:60:5f:56:68:88:68:b0:77:a3:
        3b:90:d6:23:76:d5:c1:bd:ca:23:27:fc:fe:a5:6a:97:c1:79:
        38:03:d0:8d:b7:56:50:76:27:51:d1:3c:c7:47:5f:81:df:8e:
        02:e5:56:ee:85:62:aa:0a:dd:44:9a:db:8e:c3:c1:5a:bb:49:
        d9:4d:1d:7f:d5:c2:eb:09:f8:49:3f:bc:0d:66:f8:51:45:47:
        d8:a7:a9:5f:a0:e0:60:0c:a2:47:b8:f8:e5:31:d0:47:cd:7e:
        20:25:12:f3:08:5a:e1:a8:b7:08:f3:93:35:7a:c4:3e:82:af:
        70:22:b1:dc:f2:a4:cc:26:f7:12:2c:f6:70:5a:19:01:09:f9:
        4f:19:d4:06
-----BEGIN CERTIFICATE-----
MIIDXTCCAkWgAwIBAgIRANTuubwvZW6G3myuYNGO7O0wDQYJKoZIhvcNAQELBQAw
FjEUMBIGA1UEAwwLdGVhbTQ4Mi1uZXQwHhcNMjMxMTA0MTEzODI5WhcNMjYxMDE5
MTEzODI5WjAZMRcwFQYDVQQDDA50ZWFtNDgyLWNsaWVudDCCASIwDQYJKoZIhvcN
AQEBBQADggEPADCCAQoCggEBAKfzWRvh30vD9WfnNRsnwZRSJX0orB2P1wSRp4GE
hOOAj5JtQJhQwpVLjg+RaLWknUa/atxVNXICmCHkoAFfopilgnLutgRGM6sDd98r
h3QklyE/MdTrVpGhJlAw4ZNs0F3ZjnuguqWIEzsflEHTNqVjp8f+pubyOx59ckAK
aFv8dB2Bo04s8CD/81oPCYt6ELavAM8bjJoxcyxRgDUGakukJOfBDBz76Lph0XuM
mQ6CBhxNQZsL85RwhF7xMIW+BrveOeEK3UOBcVYyDyA5+vwpE97DD8fJ/PzcU3fc
6B0hJPZo3J2gUDx9hF32G8X2oAPYQ7dOAXR5/Jc+0IGzgskCAwEAAaOBojCBnzAJ
BgNVHRMEAjAAMB0GA1UdDgQWBBTmO71gy9yVmnI4LFIydlppK7zvHTBRBgNVHSME
SjBIgBTLWOMiY3Xi5Eq+BEvUIJ6qObkLsKEapBgwFjEUMBIGA1UEAwwLdGVhbTQ4
Mi1uZXSCFD/vr5aaUzbw7eyMrST544wlXy3pMBMGA1UdJQQMMAoGCCsGAQUFBwMC
MAsGA1UdDwQEAwIHgDANBgkqhkiG9w0BAQsFAAOCAQEAR1aEDCNwACJUKWn+b1IJ
V5kvztc+Y71/Az3MICdDtrjRTEkWI0beRU/JycBupP31iX1Fqt5W/WqYNWsbq/I6
Hk99z+HtdcC//EuPsuTPqYwvo09ORmyVPBmIcaRs1SIM1J0NCoV0UDaBlNWbW6Kc
epP4GPQtYF9WaIhosHejO5DWI3bVwb3KIyf8/qVql8F5OAPQjbdWUHYnUdE8x0df
gd+OAuVW7oViqgrdRJrbjsPBWrtJ2U0df9XC6wn4ST+8DWb4UUVH2KepX6DgYAyi
R7j45THQR81+ICUS8wha4ai3CPOTNXrEPoKvcCKx3PKkzCb3Eiz2cFoZAQn5TxnU
Bg==
-----END CERTIFICATE-----
