Certificate:
    Data:
        Version: 3 (0x2)
        Serial Number:
            f0:6a:e2:ce:93:4b:92:e9:52:f5:56:ea:95:b8:a7:a1
        Signature Algorithm: sha256WithRSAEncryption
        Issuer: CN=team482-net
        Validity
            Not Before: Nov  4 11:38:30 2023 GMT
            Not After : Oct 19 11:38:30 2026 GMT
        Subject: CN=team482-server
        Subject Public Key Info:
            Public Key Algorithm: rsaEncryption
                Public-Key: (2048 bit)
                Modulus:
                    00:cd:ed:5d:1b:c8:93:b4:7d:47:9a:66:5a:66:d0:
                    b3:ad:2c:57:78:99:10:dd:72:cb:de:36:4c:45:f0:
                    2e:2a:d7:77:02:67:f2:38:a1:e5:20:1d:e7:12:f6:
                    70:63:0b:67:d4:fc:f4:99:a0:ed:56:f6:9e:cd:97:
                    0b:6c:c2:39:12:e0:2f:d9:81:84:ec:73:ba:75:f2:
                    d6:36:37:3a:ee:cb:44:59:d9:f2:c3:90:33:dd:3b:
                    2a:8f:e9:c7:3d:13:a8:f9:45:08:b0:a4:7c:fa:61:
                    90:6d:72:4e:cb:0f:b7:c6:45:3f:54:1f:35:f8:69:
                    28:38:d1:d6:9b:86:8b:fd:62:97:59:92:ca:be:5d:
                    70:c9:58:bf:d3:f8:c8:eb:ab:dd:07:fb:9d:86:86:
                    59:ae:0e:d9:43:c7:26:03:89:6d:72:84:4b:3e:df:
                    df:23:1f:b6:35:32:1a:ed:bb:a2:2f:61:2f:c9:82:
                    41:8c:7e:a2:2f:d6:86:06:4c:08:72:77:26:ef:5b:
                    eb:0e:6f:6a:7b:d1:59:27:fe:d8:a2:4b:80:e1:ac:
                    df:3e:fd:1a:52:c6:14:ed:92:59:27:ea:3f:2e:85:
                    2f:83:af:97:0f:17:1b:cc:ec:a4:09:6c:63:28:a2:
                    44:5e:37:1d:1f:06:b5:41:d3:1b:db:ee:c1:0e:37:
                    22:07
                Exponent: 65537 (0x10001)
        X509v3 extensions:
            X509v3 Basic Constraints: 
                CA:FALSE
            X509v3 Subject Key Identifier: 
                50:1E:8E:1C:2A:94:5B:A8:51:89:BA:FD:4E:AC:28:62:CE:E4:F4:65
            X509v3 Authority Key Identifier: 
                keyid:CB:58:E3:22:63:75:E2:E4:4A:BE:04:4B:D4:20:9E:AA:39:B9:0B:B0
                DirName:/CN=team482-net
                serial:3F:EF:AF:96:9A:53:36:F0:ED:EC:8C:AD:24:F9:E3:8C:25:5F:2D:E9
            X509v3 Extended Key Usage: 
                TLS Web Server Authentication
            X509v3 Key Usage: 
                Digital Signature, Key Encipherment
            X509v3 Subject Alternative Name: 
                DNS:team482-server
    Signature Algorithm: sha256WithRSAEncryption
    Signature Value:
        3d:48:42:fe:7b:3e:66:07:05:51:b9:cd:2b:2c:77:4d:de:50:
        58:75:69:d1:47:bc:50:7f:2f:40:35:4e:ee:a3:cd:17:cd:8b:
        f5:39:78:24:24:c1:c2:d0:ff:d0:70:aa:06:f2:07:b9:8f:73:
        c8:62:20:de:65:72:8c:cb:00:8b:03:ee:e6:fd:be:8d:74:b5:
        9e:d6:17:3a:ea:46:a0:36:84:59:dd:ed:b5:cc:15:ee:43:16:
        50:f0:08:a5:0d:de:8e:1c:57:c0:36:24:f2:a4:e8:bd:15:d3:
        77:ed:ae:24:3b:f4:fc:f4:e3:c5:10:05:d7:f1:59:9d:a3:4d:
        d4:85:d1:ba:04:c3:94:1e:28:ae:d4:f6:c5:a3:44:5e:30:a6:
        4e:19:d8:93:87:a2:f2:a4:c4:f6:1e:47:8f:1f:33:13:61:63:
        cc:03:ab:40:ff:27:c3:35:7e:d1:20:7d:02:75:9a:99:08:fa:
        d2:78:0e:c7:a9:32:79:12:1b:9a:19:10:a1:29:9e:0c:c9:c8:
        51:68:76:06:64:73:d0:66:f2:c9:a4:d7:6c:6a:1a:5c:6f:d1:
        3b:a3:7c:1a:67:fa:e4:1d:d2:18:ca:84:3d:bc:9a:da:e6:8e:
        da:40:15:80:08:7b:55:3f:b2:dc:d1:6e:bd:c5:3f:45:28:da:
        58:d1:76:01
-----BEGIN CERTIFICATE-----
MIIDeDCCAmCgAwIBAgIRAPBq4s6TS5LpUvVW6pW4p6EwDQYJKoZIhvcNAQELBQAw
FjEUMBIGA1UEAwwLdGVhbTQ4Mi1uZXQwHhcNMjMxMTA0MTEzODMwWhcNMjYxMDE5
MTEzODMwWjAZMRcwFQYDVQQDDA50ZWFtNDgyLXNlcnZlcjCCASIwDQYJKoZIhvcN
AQEBBQADggEPADCCAQoCggEBAM3tXRvIk7R9R5pmWmbQs60sV3iZEN1yy942TEXw
LirXdwJn8jih5SAd5xL2cGMLZ9T89Jmg7Vb2ns2XC2zCORLgL9mBhOxzunXy1jY3
Ou7LRFnZ8sOQM907Ko/pxz0TqPlFCLCkfPphkG1yTssPt8ZFP1QfNfhpKDjR1puG
i/1il1mSyr5dcMlYv9P4yOur3Qf7nYaGWa4O2UPHJgOJbXKESz7f3yMftjUyGu27
oi9hL8mCQYx+oi/WhgZMCHJ3Ju9b6w5vanvRWSf+2KJLgOGs3z79GlLGFO2SWSfq
Py6FL4Ovlw8XG8zspAlsYyiiRF43HR8GtUHTG9vuwQ43IgcCAwEAAaOBvTCBujAJ
BgNVHRMEAjAAMB0GA1UdDgQWBBRQHo4cKpRbqFGJuv1OrChizuT0ZTBRBgNVHSME
SjBIgBTLWOMiY3Xi5Eq+BEvUIJ6qObkLsKEapBgwFjEUMBIGA1UEAwwLdGVhbTQ4
Mi1uZXSCFD/vr5aaUzbw7eyMrST544wlXy3pMBMGA1UdJQQMMAoGCCsGAQUFBwMB
MAsGA1UdDwQEAwIFoDAZBgNVHREEEjAQgg50ZWFtNDgyLXNlcnZlcjANBgkqhkiG
9w0BAQsFAAOCAQEAPUhC/ns+ZgcFUbnNKyx3Td5QWHVp0Ue8UH8vQDVO7qPNF82L
9Tl4JCTBwtD/0HCqBvIHuY9zyGIg3mVyjMsAiwPu5v2+jXS1ntYXOupGoDaEWd3t
tcwV7kMWUPAIpQ3ejhxXwDYk8qTovRXTd+2uJDv0/PTjxRAF1/FZnaNN1IXRugTD
lB4ortT2xaNEXjCmThnYk4ei8qTE9h5Hjx8zE2FjzAOrQP8nwzV+0SB9AnWamQj6
0ngOx6kyeRIbmhkQoSmeDMnIUWh2BmRz0GbyyaTXbGoaXG/RO6N8Gmf65B3SGMqE
Pbya2uaO2kAVgAh7VT+y3NFuvcU/RSjaWNF2AQ==
-----END CERTIFICATE-----
