Certificate:
    Data:
        Version: 3 (0x2)
        Serial Number:
            3a:31:d8:af:51:75:a1:ae:f1:88:2b:5a:15:f9:fb:5b
        Signature Algorithm: sha256WithRSAEncryption
        Issuer: CN=team90-net
        Validity
            Not Before: Nov  3 20:40:45 2023 GMT
            Not After : Oct 18 20:40:45 2026 GMT
        Subject: CN=team90-server
        Subject Public Key Info:
            Public Key Algorithm: rsaEncryption
                Public-Key: (2048 bit)
                Modulus:
                    00:ac:ff:a1:e5:5f:01:37:ed:dc:5f:b7:ed:b1:01:
                    1e:8b:39:e3:7f:06:4d:8d:23:d2:cd:1a:af:2c:11:
                    a4:96:92:f3:d9:ce:b3:29:ad:48:de:41:04:ac:d7:
                    7a:17:9f:ac:4d:3d:28:27:38:ce:d5:f5:a5:fa:f9:
                    67:12:70:f6:dc:cb:73:a8:74:aa:b5:a5:4e:0a:f8:
                    ed:bc:46:c0:ce:98:14:47:a2:18:b2:6d:d8:e0:51:
                    15:a4:b5:8f:da:83:d8:1b:ed:b2:9f:54:dc:ba:5d:
                    d2:c3:a9:c7:d5:79:72:e9:8f:c9:11:b2:61:1b:c0:
                    1c:5a:1b:a0:c8:9c:ce:12:77:7d:5c:9c:35:44:f9:
                    dc:6f:b3:e5:c7:93:95:96:d6:71:8a:2e:65:cc:4c:
                    08:cc:43:81:5a:c2:7b:b8:47:8d:f6:f9:69:9d:a3:
                    fb:1b:8a:da:ab:80:15:25:5d:48:56:b5:3c:0a:f0:
                    8d:f4:0a:8d:2e:90:4b:5c:8c:10:6e:46:28:65:44:
                    e5:05:60:bf:68:ae:76:27:63:ed:75:c1:f4:ee:c9:
                    19:44:36:0e:dd:75:3a:ad:34:b9:34:68:71:c7:df:
                    a3:13:86:58:c9:a3:db:c8:df:01:e7:8b:16:90:06:
                    21:73:13:cd:cf:82:81:88:6e:f1:35:68:3a:76:92:
                    22:63
                Exponent: 65537 (0x10001)
        X509v3 extensions:
            X509v3 Basic Constraints: 
                CA:FALSE
            X509v3 Subject Key Identifier: 
                B2:20:8D:C8:B6:A8:C9:32:7F:DF:1F:AE:04:F2:E4:3B:66:6C:71:AD
            X509v3 Authority Key Identifier: 
                keyid:5F:0A:7C:63:54:65:5E:BB:FD:11:9C:A6:7A:E8:8C:21:2D:F2:C6:81
                DirName:/CN=team90-net
                serial:07:33:57:EC:8D:79:1A:6A:D0:5A:F1:52:67:2D:A1:DB:93:7F:58:AE
            X509v3 Extended Key Usage: 
                TLS Web Server Authentication
            X509v3 Key Usage: 
                Digital Signature, Key Encipherment
            X509v3 Subject Alternative Name: 
                DNS:team90-server
    Signature Algorithm: sha256WithRSAEncryption
    Signature Value:
        8b:cd:ea:1c:62:7f:6d:9a:f5:05:a0:0d:5d:cf:9e:db:69:12:
        c7:15:b4:d6:dd:52:1c:f8:d0:b7:9b:7e:58:8f:9e:88:27:58:
        96:9e:57:11:4e:80:60:9e:52:3a:f8:4d:95:bb:83:c7:7c:e6:
        4c:d8:9d:14:0b:8d:83:2b:2c:92:7b:51:12:9f:f9:e1:a4:27:
        5b:74:e9:af:92:f3:0a:5a:5c:c2:13:03:23:a9:33:ee:66:ba:
        d9:8d:ae:06:d0:b4:38:55:98:09:4d:cb:41:8f:4e:32:0b:b1:
        af:83:89:db:a2:ed:eb:32:b6:18:90:a7:20:2b:26:bd:36:46:
        de:dd:08:4a:e2:a4:e4:34:80:52:82:74:5e:50:5b:5d:d2:a5:
        92:f6:eb:aa:eb:df:b3:16:a2:15:23:bc:88:3d:d6:5b:e5:fd:
        b7:07:97:92:3f:e1:a9:3f:80:df:0c:33:b7:c0:52:74:f0:76:
        54:85:93:48:b7:da:ae:8c:1d:60:ab:3b:7d:88:4a:9d:ba:ac:
        3b:55:23:fe:1c:e4:e0:c9:5c:8e:3c:63:4c:7a:d9:2b:35:3f:
        00:0d:8e:b1:48:67:a0:52:68:dd:2d:04:7b:52:0c:51:63:ec:
        09:47:52:80:56:37:cc:3e:d9:22:65:c9:a4:97:b5:78:71:69:
        7e:5c:d6:5f
-----BEGIN CERTIFICATE-----
MIIDczCCAlugAwIBAgIQOjHYr1F1oa7xiCtaFfn7WzANBgkqhkiG9w0BAQsFADAV
MRMwEQYDVQQDDAp0ZWFtOTAtbmV0MB4XDTIzMTEwMzIwNDA0NVoXDTI2MTAxODIw
NDA0NVowGDEWMBQGA1UEAwwNdGVhbTkwLXNlcnZlcjCCASIwDQYJKoZIhvcNAQEB
BQADggEPADCCAQoCggEBAKz/oeVfATft3F+37bEBHos5438GTY0j0s0arywRpJaS
89nOsymtSN5BBKzXehefrE09KCc4ztX1pfr5ZxJw9tzLc6h0qrWlTgr47bxGwM6Y
FEeiGLJt2OBRFaS1j9qD2Bvtsp9U3Lpd0sOpx9V5cumPyRGyYRvAHFoboMiczhJ3
fVycNUT53G+z5ceTlZbWcYouZcxMCMxDgVrCe7hHjfb5aZ2j+xuK2quAFSVdSFa1
PArwjfQKjS6QS1yMEG5GKGVE5QVgv2iudidj7XXB9O7JGUQ2Dt11Oq00uTRoccff
oxOGWMmj28jfAeeLFpAGIXMTzc+CgYhu8TVoOnaSImMCAwEAAaOBuzCBuDAJBgNV
HRMEAjAAMB0GA1UdDgQWBBSyII3ItqjJMn/fH64E8uQ7ZmxxrTBQBgNVHSMESTBH
gBRfCnxjVGVeu/0RnKZ66IwhLfLGgaEZpBcwFTETMBEGA1UEAwwKdGVhbTkwLW5l
dIIUBzNX7I15GmrQWvFSZy2h25N/WK4wEwYDVR0lBAwwCgYIKwYBBQUHAwEwCwYD
VR0PBAQDAgWgMBgGA1UdEQQRMA+CDXRlYW05MC1zZXJ2ZXIwDQYJKoZIhvcNAQEL
BQADggEBAIvN6hxif22a9QWgDV3PnttpEscVtNbdUhz40LebfliPnognWJaeVxFO
gGCeUjr4TZW7g8d85kzYnRQLjYMrLJJ7URKf+eGkJ1t06a+S8wpaXMITAyOpM+5m
utmNrgbQtDhVmAlNy0GPTjILsa+Didui7esythiQpyArJr02Rt7dCEripOQ0gFKC
dF5QW13SpZL266rr37MWohUjvIg91lvl/bcHl5I/4ak/gN8MM7fAUnTwdlSFk0i3
2q6MHWCrO32ISp26rDtVI/4c5ODJXI48Y0x62Ss1PwANjrFIZ6BSaN0tBHtSDFFj
7AlHUoBWN8w+2SJlyaSXtXhxaX5c1l8=
-----END CERTIFICATE-----
