Certificate:
    Data:
        Version: 3 (0x2)
        Serial Number:
            45:55:76:51:63:ce:9f:e0:1d:af:fc:cb:9b:37:89:62
        Signature Algorithm: sha256WithRSAEncryption
        Issuer: CN=team90-net
        Validity
            Not Before: Nov  4 11:29:08 2023 GMT
            Not After : Oct 19 11:29:08 2026 GMT
        Subject: CN=team90-server
        Subject Public Key Info:
            Public Key Algorithm: rsaEncryption
                Public-Key: (2048 bit)
                Modulus:
                    00:cb:07:68:a4:48:a3:76:de:4c:0f:c7:d8:83:6d:
                    2b:aa:04:39:e9:d6:86:f9:b3:91:d6:4b:e0:7c:dc:
                    6c:11:c3:67:a4:1a:04:d9:52:a8:9d:26:61:ee:01:
                    d3:71:c2:bf:4d:8d:76:ba:7e:18:99:94:bf:1e:a7:
                    43:ba:17:a2:24:2f:25:46:11:d3:f1:94:ab:0c:50:
                    10:28:bd:e0:f9:f5:0b:f3:3e:26:95:d9:6d:c3:6e:
                    59:17:a7:4f:96:36:20:8e:ae:ca:dc:30:b3:5b:50:
                    d8:e5:a8:1b:ee:14:dd:81:07:c5:c8:28:d5:62:64:
                    56:8a:a6:ea:fd:69:c8:20:8f:ae:04:87:01:ed:67:
                    6f:b0:3f:0b:b5:22:21:3b:5c:90:39:77:34:03:aa:
                    81:31:54:b2:ee:06:f0:89:e9:ba:a5:5e:4a:dd:79:
                    00:4f:25:1c:74:3b:c7:b9:e7:09:76:e8:16:b7:dd:
                    3a:5b:72:90:01:29:20:36:e4:1f:2c:47:1a:87:49:
                    bd:eb:97:a8:4a:e5:61:b5:7c:7a:f4:60:ba:5c:28:
                    9a:6b:9f:cb:3c:ad:af:71:05:84:09:5b:4c:1a:d8:
                    18:3f:73:95:f3:c4:5d:a8:a7:37:26:23:66:5d:91:
                    54:a8:7a:f7:a1:d6:94:7e:40:e8:65:84:60:fe:58:
                    11:8b
                Exponent: 65537 (0x10001)
        X509v3 extensions:
            X509v3 Basic Constraints: 
                CA:FALSE
            X509v3 Subject Key Identifier: 
                DA:B0:9D:C6:11:D3:6E:EE:B2:3D:F5:E8:75:42:25:00:20:B4:DF:E4
            X509v3 Authority Key Identifier: 
                keyid:61:FA:79:D2:E2:81:D0:22:1F:4B:54:AE:55:54:2F:20:3B:CE:09:93
                DirName:/CN=team90-net
                serial:63:FF:B8:E2:A7:D6:48:42:58:A5:64:D9:20:43:44:98:42:E5:49:D4
            X509v3 Extended Key Usage: 
                TLS Web Server Authentication
            X509v3 Key Usage: 
                Digital Signature, Key Encipherment
            X509v3 Subject Alternative Name: 
                DNS:team90-server
    Signature Algorithm: sha256WithRSAEncryption
    Signature Value:
        22:3f:83:75:fe:72:e9:27:55:2f:8c:88:3f:88:b0:9e:ae:2b:
        39:dd:36:69:66:a0:8e:28:c4:31:56:33:b2:36:94:5d:23:5f:
        52:33:a9:85:f4:91:2e:1d:c8:ce:e1:ed:d0:d7:02:c0:32:ae:
        38:3d:b1:f9:2b:97:da:96:25:75:35:75:b8:3a:77:5c:b0:89:
        ad:01:26:da:e2:92:c7:53:b7:74:40:17:95:89:67:20:19:c1:
        36:1a:1e:66:b3:55:c6:04:fd:72:8d:4d:71:de:49:cf:48:a6:
        3d:c7:07:b6:62:db:01:57:39:a1:0a:73:b0:45:af:db:e8:44:
        14:cc:9e:d9:c3:49:ea:1a:a8:78:a9:61:a2:85:a7:3f:47:7e:
        6d:08:54:f0:be:6f:71:00:09:a0:17:b1:50:66:54:de:5c:17:
        37:5f:e3:2c:41:a8:7c:4b:da:79:b5:13:cf:61:0e:ba:8b:ac:
        0a:10:2e:c3:57:7d:61:8f:03:cd:39:db:54:ad:c2:13:d3:4d:
        2a:e3:34:73:7d:35:05:9f:9b:bf:cc:50:c0:fa:44:b7:ac:73:
        a9:9d:47:13:07:0a:7f:c2:61:ab:21:95:e8:c1:30:68:d6:96:
        a6:42:2c:16:08:c3:0b:de:11:e1:36:6c:ed:87:ba:48:73:c3:
        c3:b9:41:61
-----BEGIN CERTIFICATE-----
MIIDczCCAlugAwIBAgIQRVV2UWPOn+Adr/zLmzeJYjANBgkqhkiG9w0BAQsFADAV
MRMwEQYDVQQDDAp0ZWFtOTAtbmV0MB4XDTIzMTEwNDExMjkwOFoXDTI2MTAxOTEx
MjkwOFowGDEWMBQGA1UEAwwNdGVhbTkwLXNlcnZlcjCCASIwDQYJKoZIhvcNAQEB
BQADggEPADCCAQoCggEBAMsHaKRIo3beTA/H2INtK6oEOenWhvmzkdZL4HzcbBHD
Z6QaBNlSqJ0mYe4B03HCv02Ndrp+GJmUvx6nQ7oXoiQvJUYR0/GUqwxQECi94Pn1
C/M+JpXZbcNuWRenT5Y2II6uytwws1tQ2OWoG+4U3YEHxcgo1WJkVoqm6v1pyCCP
rgSHAe1nb7A/C7UiITtckDl3NAOqgTFUsu4G8InpuqVeSt15AE8lHHQ7x7nnCXbo
FrfdOltykAEpIDbkHyxHGodJveuXqErlYbV8evRgulwommufyzytr3EFhAlbTBrY
GD9zlfPEXainNyYjZl2RVKh696HWlH5A6GWEYP5YEYsCAwEAAaOBuzCBuDAJBgNV
HRMEAjAAMB0GA1UdDgQWBBTasJ3GEdNu7rI99eh1QiUAILTf5DBQBgNVHSMESTBH
gBRh+nnS4oHQIh9LVK5VVC8gO84Jk6EZpBcwFTETMBEGA1UEAwwKdGVhbTkwLW5l
dIIUY/+44qfWSEJYpWTZIENEmELlSdQwEwYDVR0lBAwwCgYIKwYBBQUHAwEwCwYD
VR0PBAQDAgWgMBgGA1UdEQQRMA+CDXRlYW05MC1zZXJ2ZXIwDQYJKoZIhvcNAQEL
BQADggEBACI/g3X+cuknVS+MiD+IsJ6uKzndNmlmoI4oxDFWM7I2lF0jX1IzqYX0
kS4dyM7h7dDXAsAyrjg9sfkrl9qWJXU1dbg6d1ywia0BJtriksdTt3RAF5WJZyAZ
wTYaHmazVcYE/XKNTXHeSc9Ipj3HB7Zi2wFXOaEKc7BFr9voRBTMntnDSeoaqHip
YaKFpz9Hfm0IVPC+b3EACaAXsVBmVN5cFzdf4yxBqHxL2nm1E89hDrqLrAoQLsNX
fWGPA80521StwhPTTSrjNHN9NQWfm7/MUMD6RLesc6mdRxMHCn/CYashlejBMGjW
lqZCLBYIwwveEeE2bO2Hukhzw8O5QWE=
-----END CERTIFICATE-----
