Certificate:
    Data:
        Version: 3 (0x2)
        Serial Number:
            c4:14:23:ae:40:23:6a:66:b8:6c:f7:4f:2c:b0:96:fb
        Signature Algorithm: sha256WithRSAEncryption
        Issuer: CN=team90-net
        Validity
            Not Before: Nov  4 10:42:05 2023 GMT
            Not After : Oct 19 10:42:05 2026 GMT
        Subject: CN=team90-client
        Subject Public Key Info:
            Public Key Algorithm: rsaEncryption
                Public-Key: (2048 bit)
                Modulus:
                    00:ae:26:72:65:51:e7:7b:08:a3:3e:18:23:98:83:
                    3c:a1:3e:94:b7:a2:6c:b6:2d:0b:a0:46:6d:ab:8b:
                    7c:17:c9:33:af:5d:aa:41:e1:ab:a5:53:4d:89:24:
                    4f:eb:a6:b4:0f:45:79:92:64:d0:bb:e3:ef:d4:d9:
                    10:73:c3:37:89:22:cc:c2:ce:25:ec:97:21:33:5f:
                    63:72:57:1e:70:22:65:3b:90:6b:3e:a3:24:67:08:
                    81:6c:29:14:85:2f:46:3a:e2:e0:8f:31:8e:89:27:
                    74:05:fb:fd:a4:81:85:18:5b:cf:2b:b3:46:fa:90:
                    ab:51:01:52:dc:13:a1:cd:4c:ac:86:36:f4:9b:d9:
                    ea:ba:90:75:42:c0:65:9a:8a:cb:99:43:5b:43:a7:
                    85:08:5a:fb:98:a8:73:18:52:73:55:dc:98:18:b6:
                    37:0e:7a:ef:40:bd:47:c3:56:6c:55:bc:05:68:89:
                    2d:68:4c:d0:ab:60:52:b9:5e:7e:e2:df:cb:2d:b0:
                    47:93:45:26:6a:49:24:26:90:f2:90:46:e3:c3:f5:
                    4a:c1:92:19:43:95:89:fa:ee:3b:50:1f:03:67:fc:
                    72:10:d3:10:ab:11:d6:46:9e:95:34:f9:29:b5:5a:
                    a7:12:16:3f:ea:16:09:80:4b:12:c1:a9:69:93:c7:
                    17:07
                Exponent: 65537 (0x10001)
        X509v3 extensions:
            X509v3 Basic Constraints: 
                CA:FALSE
            X509v3 Subject Key Identifier: 
                99:15:3B:85:EC:B9:66:B1:AF:D0:A2:F1:6E:0F:6C:00:25:10:E9:33
            X509v3 Authority Key Identifier: 
                keyid:E1:83:DB:A2:65:1A:EA:53:CD:27:18:AB:A3:BA:26:09:24:03:4A:8E
                DirName:/CN=team90-net
                serial:4C:DF:19:46:08:9F:56:B8:0F:F3:7C:35:3A:0C:61:19:C9:41:9D:48
            X509v3 Extended Key Usage: 
                TLS Web Client Authentication
            X509v3 Key Usage: 
                Digital Signature
    Signature Algorithm: sha256WithRSAEncryption
    Signature Value:
        18:6f:bd:8f:12:19:d5:f8:49:d9:6e:d6:e3:4d:37:9e:89:e5:
        4c:8e:57:b2:ab:f9:ac:21:b1:ea:53:e4:02:2b:fa:5c:fd:3a:
        26:e4:65:d8:bc:66:f5:9d:a9:49:40:ce:49:2e:b4:2a:10:e6:
        2f:e5:91:d3:4d:8f:21:3f:4f:66:30:b3:12:6e:b0:59:c3:7a:
        32:17:fd:32:0a:ee:49:1e:9f:98:58:38:1c:e9:91:e7:c5:d4:
        54:35:dc:45:0d:da:48:69:54:e8:e1:aa:ce:49:97:59:e1:3d:
        a8:0c:9c:1e:69:7a:eb:a5:35:57:7d:ab:69:dd:18:77:4d:c0:
        72:5c:6c:ff:dc:3d:e1:d3:e5:60:97:9e:7f:bb:f9:cf:d4:a2:
        8c:0d:7a:e6:aa:94:f3:fd:76:f3:c4:8e:39:ea:3b:59:48:91:
        e9:4e:30:0a:a9:e2:08:74:f5:56:2a:bf:c6:05:1d:30:72:a7:
        1f:a0:41:c3:0a:d0:91:b3:38:bf:71:63:ed:cc:1f:38:3c:a7:
        c1:8a:f0:ea:e9:d8:ee:d5:e3:e7:72:da:c4:65:d7:3e:81:f3:
        0a:5f:a6:85:dc:39:83:86:de:fe:fc:98:7a:3e:c3:87:b3:e1:
        42:a0:f0:da:6c:37:3e:da:f5:be:44:4c:5f:01:7c:da:da:7e:
        2f:0e:be:f3
-----BEGIN CERTIFICATE-----
MIIDWjCCAkKgAwIBAgIRAMQUI65AI2pmuGz3TyywlvswDQYJKoZIhvcNAQELBQAw
FTETMBEGA1UEAwwKdGVhbTkwLW5ldDAeFw0yMzExMDQxMDQyMDVaFw0yNjEwMTkx
MDQyMDVaMBgxFjAUBgNVBAMMDXRlYW05MC1jbGllbnQwggEiMA0GCSqGSIb3DQEB
AQUAA4IBDwAwggEKAoIBAQCuJnJlUed7CKM+GCOYgzyhPpS3omy2LQugRm2ri3wX
yTOvXapB4aulU02JJE/rprQPRXmSZNC74+/U2RBzwzeJIszCziXslyEzX2NyVx5w
ImU7kGs+oyRnCIFsKRSFL0Y64uCPMY6JJ3QF+/2kgYUYW88rs0b6kKtRAVLcE6HN
TKyGNvSb2eq6kHVCwGWaisuZQ1tDp4UIWvuYqHMYUnNV3JgYtjcOeu9AvUfDVmxV
vAVoiS1oTNCrYFK5Xn7i38stsEeTRSZqSSQmkPKQRuPD9UrBkhlDlYn67jtQHwNn
/HIQ0xCrEdZGnpU0+Sm1WqcSFj/qFgmASxLBqWmTxxcHAgMBAAGjgaEwgZ4wCQYD
VR0TBAIwADAdBgNVHQ4EFgQUmRU7hey5ZrGv0KLxbg9sACUQ6TMwUAYDVR0jBEkw
R4AU4YPbomUa6lPNJxiro7omCSQDSo6hGaQXMBUxEzARBgNVBAMMCnRlYW05MC1u
ZXSCFEzfGUYIn1a4D/N8NToMYRnJQZ1IMBMGA1UdJQQMMAoGCCsGAQUFBwMCMAsG
A1UdDwQEAwIHgDANBgkqhkiG9w0BAQsFAAOCAQEAGG+9jxIZ1fhJ2W7W4003nonl
TI5Xsqv5rCGx6lPkAiv6XP06JuRl2Lxm9Z2pSUDOSS60KhDmL+WR002PIT9PZjCz
Em6wWcN6Mhf9MgruSR6fmFg4HOmR58XUVDXcRQ3aSGlU6OGqzkmXWeE9qAycHml6
66U1V32rad0Yd03Aclxs/9w94dPlYJeef7v5z9SijA165qqU8/1288SOOeo7WUiR
6U4wCqniCHT1Viq/xgUdMHKnH6BBwwrQkbM4v3Fj7cwfODynwYrw6unY7tXj53La
xGXXPoHzCl+mhdw5g4be/vyYej7Dh7PhQqDw2mw3Ptr1vkRMXwF82tp+Lw6+8w==
-----END CERTIFICATE-----
