Certificate:
    Data:
        Version: 3 (0x2)
        Serial Number:
            02:8c:d7:57:99:29:e5:5d:a2:eb:5d:d3:35:3c:63:dc
        Signature Algorithm: sha256WithRSAEncryption
        Issuer: CN=team246-net
        Validity
            Not Before: Nov  4 11:32:28 2023 GMT
            Not After : Oct 19 11:32:28 2026 GMT
        Subject: CN=team246-client
        Subject Public Key Info:
            Public Key Algorithm: rsaEncryption
                Public-Key: (2048 bit)
                Modulus:
                    00:d0:83:85:df:12:0d:11:a5:50:20:d5:71:cd:c7:
                    38:6d:65:7a:8a:91:dd:8f:2e:be:a2:97:f0:1a:67:
                    76:2d:7b:d0:c3:9f:d9:03:96:cd:46:4f:77:82:1d:
                    63:e9:b8:3f:95:6c:a0:be:2b:9d:ed:ad:d4:ef:36:
                    5c:91:1e:7d:2a:c0:6c:bc:e0:0d:96:53:6a:12:06:
                    9d:92:b7:24:1e:bd:3d:32:9e:c4:dc:36:8e:e6:7e:
                    45:c0:21:30:de:f2:28:bd:30:5a:cc:c7:ae:f4:e6:
                    63:c6:88:58:2d:ab:64:92:87:95:9b:b3:5b:7b:ec:
                    7a:ad:59:d0:55:b9:ae:a6:82:93:be:af:b3:9c:8c:
                    ca:57:20:4f:8a:66:b7:96:14:15:ad:c8:14:16:7e:
                    24:c5:24:2c:db:40:f6:8d:0d:44:d8:17:17:59:48:
                    1e:10:1f:f5:17:3d:98:e3:90:72:ee:a9:d5:bb:a6:
                    ad:8c:98:1d:ca:ca:2b:ff:94:f6:2f:71:9d:8e:f1:
                    86:2e:3c:bc:e3:f1:77:bf:08:4e:ba:54:60:a4:02:
                    0a:e8:68:e4:20:b4:fe:b9:f4:0b:62:de:0e:05:27:
                    59:05:be:32:ab:a1:d7:ee:88:55:2c:ff:5d:a2:36:
                    14:a8:fe:0f:ca:02:04:f8:45:1c:cd:77:2b:d8:0e:
                    3c:ff
                Exponent: 65537 (0x10001)
        X509v3 extensions:
            X509v3 Basic Constraints: 
                CA:FALSE
            X509v3 Subject Key Identifier: 
                81:90:BC:86:19:FA:6E:10:56:37:ED:56:97:02:6B:6F:45:A1:FF:23
            X509v3 Authority Key Identifier: 
                keyid:07:C5:61:EC:FD:56:EF:15:D8:81:5B:B5:68:37:C9:14:F8:7C:02:B7
                DirName:/CN=team246-net
                serial:03:9E:DF:2E:C8:B4:A0:AD:C7:F2:C5:9D:E2:C6:45:A6:F3:91:19:C3
            X509v3 Extended Key Usage: 
                TLS Web Client Authentication
            X509v3 Key Usage: 
                Digital Signature
    Signature Algorithm: sha256WithRSAEncryption
    Signature Value:
        a5:30:34:7b:e0:84:70:d8:56:4c:c8:84:2e:ee:05:b6:87:e0:
        d1:7d:b4:7d:50:17:93:14:85:76:68:4d:fd:a5:a5:2c:a3:51:
        9e:9b:9f:b0:1d:7f:ab:5f:65:9f:ea:f8:bd:24:a6:b2:88:72:
        c4:af:8a:66:97:86:9f:cb:e4:d0:84:d7:22:55:30:21:ab:21:
        32:07:85:ee:85:bc:92:76:b5:b3:fe:a3:4f:b0:f1:d7:e7:3f:
        8f:53:4e:ac:9e:ee:c9:d4:6d:d7:01:52:b3:4f:a6:de:17:3c:
        b8:0f:72:cf:1f:9d:2d:1f:cb:40:86:a8:6c:f3:82:bc:4f:83:
        73:37:99:17:56:32:6d:d3:ef:bb:45:87:a0:83:90:33:62:a2:
        58:9c:a5:3e:72:0f:da:0a:76:ef:52:5b:6b:9f:6f:38:1f:cb:
        7c:85:39:90:9f:eb:93:be:f9:6b:95:96:b9:13:f3:ef:26:b2:
        9c:6b:d0:96:f2:bf:a3:29:f7:ce:31:eb:d6:19:d8:33:64:76:
        b6:51:b0:7a:cf:95:c2:be:c9:67:1b:00:4e:9d:cf:21:24:01:
        38:e0:3d:47:70:f3:ff:6e:18:18:0b:1e:f7:d1:e4:ac:91:0b:
        ea:44:e5:7e:7d:b4:a2:fe:1e:b2:8c:38:44:55:a2:d5:47:c9:
        cb:c3:bd:99
-----BEGIN CERTIFICATE-----
MIIDXDCCAkSgAwIBAgIQAozXV5kp5V2i613TNTxj3DANBgkqhkiG9w0BAQsFADAW
MRQwEgYDVQQDDAt0ZWFtMjQ2LW5ldDAeFw0yMzExMDQxMTMyMjhaFw0yNjEwMTkx
MTMyMjhaMBkxFzAVBgNVBAMMDnRlYW0yNDYtY2xpZW50MIIBIjANBgkqhkiG9w0B
AQEFAAOCAQ8AMIIBCgKCAQEA0IOF3xINEaVQINVxzcc4bWV6ipHdjy6+opfwGmd2
LXvQw5/ZA5bNRk93gh1j6bg/lWygviud7a3U7zZckR59KsBsvOANllNqEgadkrck
Hr09Mp7E3DaO5n5FwCEw3vIovTBazMeu9OZjxohYLatkkoeVm7Nbe+x6rVnQVbmu
poKTvq+znIzKVyBPima3lhQVrcgUFn4kxSQs20D2jQ1E2BcXWUgeEB/1Fz2Y45By
7qnVu6atjJgdysor/5T2L3GdjvGGLjy84/F3vwhOulRgpAIK6GjkILT+ufQLYt4O
BSdZBb4yq6HX7ohVLP9dojYUqP4PygIE+EUczXcr2A48/wIDAQABo4GiMIGfMAkG
A1UdEwQCMAAwHQYDVR0OBBYEFIGQvIYZ+m4QVjftVpcCa29Fof8jMFEGA1UdIwRK
MEiAFAfFYez9Vu8V2IFbtWg3yRT4fAK3oRqkGDAWMRQwEgYDVQQDDAt0ZWFtMjQ2
LW5ldIIUA57fLsi0oK3H8sWd4sZFpvORGcMwEwYDVR0lBAwwCgYIKwYBBQUHAwIw
CwYDVR0PBAQDAgeAMA0GCSqGSIb3DQEBCwUAA4IBAQClMDR74IRw2FZMyIQu7gW2
h+DRfbR9UBeTFIV2aE39paUso1Gem5+wHX+rX2Wf6vi9JKayiHLEr4pml4afy+TQ
hNciVTAhqyEyB4XuhbySdrWz/qNPsPHX5z+PU06snu7J1G3XAVKzT6beFzy4D3LP
H50tH8tAhqhs84K8T4NzN5kXVjJt0++7RYegg5AzYqJYnKU+cg/aCnbvUltrn284
H8t8hTmQn+uTvvlrlZa5E/PvJrKca9CW8r+jKffOMevWGdgzZHa2UbB6z5XCvsln
GwBOnc8hJAE44D1HcPP/bhgYCx730eSskQvqROV+fbSi/h6yjDhEVaLVR8nLw72Z
-----END CERTIFICATE-----
