Certificate:
    Data:
        Version: 3 (0x2)
        Serial Number:
            6a:53:1a:5d:ac:8b:56:f1:56:75:32:c9:ce:e8:87:32
        Signature Algorithm: sha256WithRSAEncryption
        Issuer: CN=team246-net
        Validity
            Not Before: Nov  4 10:45:16 2023 GMT
            Not After : Oct 19 10:45:16 2026 GMT
        Subject: CN=team246-server
        Subject Public Key Info:
            Public Key Algorithm: rsaEncryption
                Public-Key: (2048 bit)
                Modulus:
                    00:ab:fb:9a:d2:3c:36:fc:20:ef:58:6d:25:3d:e4:
                    dc:34:8a:4a:44:a2:8d:99:3e:68:88:1e:cf:eb:c3:
                    51:3c:eb:d8:c2:40:38:88:ff:74:1a:2e:7a:47:88:
                    02:cd:a2:5f:e4:73:8b:bd:b2:56:4c:d3:a1:fc:da:
                    e5:1b:da:f4:fc:67:3c:68:e7:1d:e8:13:57:ce:3a:
                    8c:e4:51:16:6f:b4:ca:2e:5a:c4:7e:75:56:a7:e6:
                    f3:c4:64:b7:a1:c0:2d:cb:93:df:08:2d:a7:d4:7b:
                    10:09:f2:7a:c8:9f:82:9f:d3:f8:97:39:da:ce:45:
                    87:38:4d:04:af:4b:83:6c:be:93:60:d9:f5:68:e0:
                    10:4b:29:5e:e6:ba:56:80:b8:74:fc:bc:12:0d:9a:
                    b8:5f:a3:4c:6b:73:2c:ab:b1:30:18:18:4a:f7:84:
                    7f:de:df:5a:24:a7:f9:df:75:a1:fa:95:7d:85:2e:
                    3f:64:3e:e0:e5:0e:24:2a:1d:9d:e2:b3:c1:d0:c5:
                    7b:e7:2e:b6:f6:65:d1:1a:61:db:b1:cd:2f:44:0e:
                    a9:8a:28:d4:26:ad:38:76:19:d1:6b:6b:55:19:40:
                    de:65:c1:c5:f1:b0:e8:ae:e0:7a:4f:81:5a:3f:d3:
                    54:cd:9e:ca:ff:3b:f0:ea:5a:d5:ff:1a:5b:95:2c:
                    4f:c1
                Exponent: 65537 (0x10001)
        X509v3 extensions:
            X509v3 Basic Constraints: 
                CA:FALSE
            X509v3 Subject Key Identifier: 
                94:EC:A6:51:C0:28:3B:E2:29:68:59:45:8A:14:36:25:9A:DE:D1:4C
            X509v3 Authority Key Identifier: 
                keyid:2E:17:C2:FD:DF:C5:01:0D:A5:5F:7D:A2:F0:D9:F8:2B:05:22:8D:1E
                DirName:/CN=team246-net
                serial:51:23:32:EE:53:8E:A6:78:9E:F9:D1:89:AE:6E:33:BD:22:0C:AA:EA
            X509v3 Extended Key Usage: 
                TLS Web Server Authentication
            X509v3 Key Usage: 
                Digital Signature, Key Encipherment
            X509v3 Subject Alternative Name: 
                DNS:team246-server
    Signature Algorithm: sha256WithRSAEncryption
    Signature Value:
        23:0f:53:d7:30:18:b9:de:8d:c7:62:0d:e3:48:db:4b:02:53:
        71:46:d7:bd:eb:f6:a9:5a:59:eb:30:15:72:55:c3:d2:fa:32:
        cc:17:d3:76:a6:cf:0d:27:a5:06:ee:f9:c8:18:81:ae:8a:36:
        13:e3:d7:2f:f1:4b:62:b6:24:5c:9f:de:26:71:67:2c:98:bc:
        b4:50:b5:cf:d9:39:0c:4a:f2:e4:dd:4a:ec:b2:f5:2e:cb:83:
        e5:7b:e6:1d:cc:9b:2b:cf:9e:d1:ba:51:dc:77:04:d5:62:df:
        f4:3e:b4:a6:15:74:07:19:11:eb:ac:ba:2a:80:e4:f9:53:e2:
        5f:90:fb:84:6f:e0:4e:e4:77:9e:ce:62:29:00:1c:27:41:c3:
        8d:52:78:b2:b2:f9:63:1b:41:ac:42:6f:66:dc:ea:32:3c:05:
        f9:d9:2b:86:4b:91:d2:62:42:40:ae:f8:96:3f:7c:9d:2a:62:
        3c:72:65:ef:64:47:80:32:81:86:47:8f:e8:da:d4:16:c7:0c:
        f0:df:06:12:1b:ec:3d:2d:f9:b2:4f:d9:d0:23:17:eb:9b:49:
        22:4d:a4:14:aa:d0:07:4b:6f:cd:8e:34:01:a2:d2:d1:fc:68:
        8c:a1:96:48:b1:33:9c:d5:68:4e:78:19:96:dd:5c:35:e4:32:
        26:e1:76:d5
-----BEGIN CERTIFICATE-----
MIIDdzCCAl+gAwIBAgIQalMaXayLVvFWdTLJzuiHMjANBgkqhkiG9w0BAQsFADAW
MRQwEgYDVQQDDAt0ZWFtMjQ2LW5ldDAeFw0yMzExMDQxMDQ1MTZaFw0yNjEwMTkx
MDQ1MTZaMBkxFzAVBgNVBAMMDnRlYW0yNDYtc2VydmVyMIIBIjANBgkqhkiG9w0B
AQEFAAOCAQ8AMIIBCgKCAQEAq/ua0jw2/CDvWG0lPeTcNIpKRKKNmT5oiB7P68NR
POvYwkA4iP90Gi56R4gCzaJf5HOLvbJWTNOh/NrlG9r0/Gc8aOcd6BNXzjqM5FEW
b7TKLlrEfnVWp+bzxGS3ocAty5PfCC2n1HsQCfJ6yJ+Cn9P4lznazkWHOE0Er0uD
bL6TYNn1aOAQSyle5rpWgLh0/LwSDZq4X6NMa3Msq7EwGBhK94R/3t9aJKf533Wh
+pV9hS4/ZD7g5Q4kKh2d4rPB0MV75y629mXRGmHbsc0vRA6piijUJq04dhnRa2tV
GUDeZcHF8bDoruB6T4FaP9NUzZ7K/zvw6lrV/xpblSxPwQIDAQABo4G9MIG6MAkG
A1UdEwQCMAAwHQYDVR0OBBYEFJTsplHAKDviKWhZRYoUNiWa3tFMMFEGA1UdIwRK
MEiAFC4Xwv3fxQENpV99ovDZ+CsFIo0eoRqkGDAWMRQwEgYDVQQDDAt0ZWFtMjQ2
LW5ldIIUUSMy7lOOpnie+dGJrm4zvSIMquowEwYDVR0lBAwwCgYIKwYBBQUHAwEw
CwYDVR0PBAQDAgWgMBkGA1UdEQQSMBCCDnRlYW0yNDYtc2VydmVyMA0GCSqGSIb3
DQEBCwUAA4IBAQAjD1PXMBi53o3HYg3jSNtLAlNxRte96/apWlnrMBVyVcPS+jLM
F9N2ps8NJ6UG7vnIGIGuijYT49cv8UtitiRcn94mcWcsmLy0ULXP2TkMSvLk3Urs
svUuy4Ple+YdzJsrz57RulHcdwTVYt/0PrSmFXQHGRHrrLoqgOT5U+JfkPuEb+BO
5HeezmIpABwnQcONUniysvljG0GsQm9m3OoyPAX52SuGS5HSYkJArviWP3ydKmI8
cmXvZEeAMoGGR4/o2tQWxwzw3wYSG+w9LfmyT9nQIxfrm0kiTaQUqtAHS2/NjjQB
otLR/GiMoZZIsTOc1WhOeBmW3Vw15DIm4XbV
-----END CERTIFICATE-----
