Certificate:
    Data:
        Version: 3 (0x2)
        Serial Number:
            72:f2:bc:67:a9:6b:e8:40:bd:f9:cc:ad:62:37:27:e6
        Signature Algorithm: sha256WithRSAEncryption
        Issuer: CN=team246-net
        Validity
            Not Before: Nov  4 10:45:16 2023 GMT
            Not After : Oct 19 10:45:16 2026 GMT
        Subject: CN=team246-client
        Subject Public Key Info:
            Public Key Algorithm: rsaEncryption
                Public-Key: (2048 bit)
                Modulus:
                    00:da:42:a4:59:09:44:7a:56:f8:c9:08:6a:73:88:
                    02:cc:59:76:67:c3:e7:cf:e2:cd:86:62:a3:9b:28:
                    62:e3:14:4f:ab:42:3f:77:59:7f:d6:e0:b7:03:a1:
                    87:fa:73:b5:d7:70:1e:60:7b:90:07:2d:a4:24:6a:
                    02:db:d6:38:0d:65:d3:31:22:19:df:d1:b5:a1:fe:
                    5b:bd:5c:8f:cc:a0:eb:3c:29:31:df:5e:99:20:91:
                    89:b3:28:ef:90:fc:87:33:00:07:9b:81:51:dc:ef:
                    82:c0:75:22:6d:cd:bb:44:36:d9:0c:13:fe:db:fb:
                    40:0c:77:a3:e2:e7:d3:bc:7e:a4:93:c8:05:fc:45:
                    8d:2d:71:2c:b7:35:a0:68:5f:5c:dd:22:83:67:78:
                    c0:0f:89:e2:d1:06:36:fe:fe:ac:df:b6:4e:4a:23:
                    40:33:58:42:7b:a5:61:16:d1:af:f1:83:d3:65:8f:
                    4e:31:ad:fe:0b:2c:20:ad:ed:3a:e7:f3:40:9d:6f:
                    90:a4:26:42:98:fa:50:39:0d:be:84:0d:94:23:32:
                    5b:1e:b6:c7:4c:30:73:d5:de:f9:09:4e:c0:65:96:
                    48:fb:f9:a2:47:54:1b:59:c8:46:59:89:18:f2:a9:
                    0b:b8:2c:df:4f:14:67:46:f4:0f:5e:00:2c:fc:03:
                    53:d9
                Exponent: 65537 (0x10001)
        X509v3 extensions:
            X509v3 Basic Constraints: 
                CA:FALSE
            X509v3 Subject Key Identifier: 
                DB:D4:F8:C8:13:B7:27:C9:56:7B:9C:2C:B2:72:0B:66:4A:D1:B2:DE
            X509v3 Authority Key Identifier: 
                keyid:2E:17:C2:FD:DF:C5:01:0D:A5:5F:7D:A2:F0:D9:F8:2B:05:22:8D:1E
                DirName:/CN=team246-net
                serial:51:23:32:EE:53:8E:A6:78:9E:F9:D1:89:AE:6E:33:BD:22:0C:AA:EA
            X509v3 Extended Key Usage: 
                TLS Web Client Authentication
            X509v3 Key Usage: 
                Digital Signature
    Signature Algorithm: sha256WithRSAEncryption
    Signature Value:
        2b:25:85:21:46:9e:30:45:c9:2e:25:c1:a7:72:7e:31:f2:21:
        b2:7f:d1:7a:0a:3d:cf:fa:25:db:69:20:41:49:6d:7c:3e:79:
        aa:d3:9c:18:11:ce:40:8d:6a:af:b9:27:27:72:c4:e1:43:47:
        b5:ce:7d:10:16:c8:e7:54:f6:04:bf:cf:be:42:3e:a5:0d:b2:
        ae:be:57:d3:ff:21:5f:40:04:0e:71:78:2d:9b:17:00:92:96:
        cc:45:17:34:25:2d:cf:fc:91:9e:fe:02:05:8c:97:47:13:e2:
        49:88:97:8a:75:26:ce:90:ae:a2:a5:ae:17:e6:e6:0c:22:d4:
        7e:46:69:c6:df:ef:16:c4:ca:c8:32:f8:b0:42:88:c6:96:42:
        4d:1f:4c:1b:8a:e0:3a:b4:23:ee:73:78:59:3a:97:4f:d3:0a:
        05:14:d2:04:ad:5b:98:7c:cc:91:b8:eb:bc:87:e8:79:23:a2:
        79:c0:ee:41:fc:8d:bd:85:d1:00:41:6b:d7:c2:ec:aa:ee:cc:
        58:e3:b4:e4:b3:d6:4c:41:43:2b:ad:40:e5:98:d5:79:36:50:
        d6:3f:97:90:44:e3:06:b3:0e:50:df:8f:25:e5:a0:8b:3d:87:
        d3:67:46:d7:7c:a1:50:73:c6:dd:4c:5b:b1:4d:ed:d2:10:d0:
        ae:41:d3:30
-----BEGIN CERTIFICATE-----
MIIDXDCCAkSgAwIBAgIQcvK8Z6lr6EC9+cytYjcn5jANBgkqhkiG9w0BAQsFADAW
MRQwEgYDVQQDDAt0ZWFtMjQ2LW5ldDAeFw0yMzExMDQxMDQ1MTZaFw0yNjEwMTkx
MDQ1MTZaMBkxFzAVBgNVBAMMDnRlYW0yNDYtY2xpZW50MIIBIjANBgkqhkiG9w0B
AQEFAAOCAQ8AMIIBCgKCAQEA2kKkWQlEelb4yQhqc4gCzFl2Z8Pnz+LNhmKjmyhi
4xRPq0I/d1l/1uC3A6GH+nO113AeYHuQBy2kJGoC29Y4DWXTMSIZ39G1of5bvVyP
zKDrPCkx316ZIJGJsyjvkPyHMwAHm4FR3O+CwHUibc27RDbZDBP+2/tADHej4ufT
vH6kk8gF/EWNLXEstzWgaF9c3SKDZ3jAD4ni0QY2/v6s37ZOSiNAM1hCe6VhFtGv
8YPTZY9OMa3+Cywgre065/NAnW+QpCZCmPpQOQ2+hA2UIzJbHrbHTDBz1d75CU7A
ZZZI+/miR1QbWchGWYkY8qkLuCzfTxRnRvQPXgAs/ANT2QIDAQABo4GiMIGfMAkG
A1UdEwQCMAAwHQYDVR0OBBYEFNvU+MgTtyfJVnucLLJyC2ZK0bLeMFEGA1UdIwRK
MEiAFC4Xwv3fxQENpV99ovDZ+CsFIo0eoRqkGDAWMRQwEgYDVQQDDAt0ZWFtMjQ2
LW5ldIIUUSMy7lOOpnie+dGJrm4zvSIMquowEwYDVR0lBAwwCgYIKwYBBQUHAwIw
CwYDVR0PBAQDAgeAMA0GCSqGSIb3DQEBCwUAA4IBAQArJYUhRp4wRckuJcGncn4x
8iGyf9F6Cj3P+iXbaSBBSW18Pnmq05wYEc5AjWqvuScncsThQ0e1zn0QFsjnVPYE
v8++Qj6lDbKuvlfT/yFfQAQOcXgtmxcAkpbMRRc0JS3P/JGe/gIFjJdHE+JJiJeK
dSbOkK6ipa4X5uYMItR+RmnG3+8WxMrIMviwQojGlkJNH0wbiuA6tCPuc3hZOpdP
0woFFNIErVuYfMyRuOu8h+h5I6J5wO5B/I29hdEAQWvXwuyq7sxY47Tks9ZMQUMr
rUDlmNV5NlDWP5eQROMGsw5Q348l5aCLPYfTZ0bXfKFQc8bdTFuxTe3SENCuQdMw
-----END CERTIFICATE-----
