Certificate:
    Data:
        Version: 3 (0x2)
        Serial Number:
            bc:8c:21:b5:40:84:09:64:32:31:46:66:af:68:2b:b6
        Signature Algorithm: sha256WithRSAEncryption
        Issuer: CN=team246-net
        Validity
            Not Before: Nov  3 20:43:47 2023 GMT
            Not After : Oct 18 20:43:47 2026 GMT
        Subject: CN=team246-client
        Subject Public Key Info:
            Public Key Algorithm: rsaEncryption
                Public-Key: (2048 bit)
                Modulus:
                    00:a9:3a:fb:c7:4e:ee:87:3c:28:3a:7d:07:1f:1f:
                    03:04:3d:66:a4:80:7c:57:de:6b:33:56:12:24:fc:
                    ae:0a:ac:c9:78:b3:08:61:b1:67:9c:8d:4f:cb:b3:
                    7d:9f:9b:e2:ac:23:d3:7c:e5:51:ac:82:6f:15:1e:
                    d1:90:66:6c:2f:8c:96:a4:ff:8a:26:63:74:ea:18:
                    c9:cb:3e:f4:84:77:44:3d:c9:05:2e:c7:73:e7:89:
                    72:16:d2:b6:b3:de:6a:ae:cb:86:0a:ba:4e:7c:92:
                    7f:21:d0:be:d0:2a:8a:34:00:84:6c:c5:a0:c2:5f:
                    75:87:59:45:ab:8d:e6:ad:2c:97:59:08:42:cf:dc:
                    d0:42:c3:59:ca:cc:58:f9:94:6c:2e:ae:a5:89:d9:
                    d3:9d:9f:46:27:aa:7a:d4:93:ea:f7:2f:c3:e4:0e:
                    45:a9:51:5b:54:49:2d:c9:52:18:70:70:b8:b5:0e:
                    9f:9e:fa:44:59:d4:cc:98:d4:99:28:db:d4:e7:97:
                    98:25:23:fe:55:ec:89:10:a1:ae:40:fd:61:f8:03:
                    b8:dc:d6:d2:2a:b6:da:c6:59:d7:e1:51:e2:59:39:
                    5e:1d:04:0a:fb:6d:90:78:93:95:3d:d2:80:6a:4c:
                    c0:47:16:35:bd:9a:2c:ce:b9:9c:01:67:d9:09:ea:
                    d8:c1
                Exponent: 65537 (0x10001)
        X509v3 extensions:
            X509v3 Basic Constraints: 
                CA:FALSE
            X509v3 Subject Key Identifier: 
                20:2D:61:76:72:7A:B8:E6:A7:71:78:27:9A:34:72:79:B5:3A:E5:EF
            X509v3 Authority Key Identifier: 
                keyid:18:4A:BA:9A:B9:B1:10:4C:08:26:B2:C1:A4:72:A2:C2:10:96:F1:69
                DirName:/CN=team246-net
                serial:77:A4:24:E4:82:36:DA:54:CA:C2:F4:10:67:13:5F:87:EF:78:14:AC
            X509v3 Extended Key Usage: 
                TLS Web Client Authentication
            X509v3 Key Usage: 
                Digital Signature
    Signature Algorithm: sha256WithRSAEncryption
    Signature Value:
        04:33:29:c5:cd:62:90:ad:c5:c8:a1:89:3f:a6:1e:0d:ed:43:
        03:4b:d4:36:9a:8c:4d:32:1d:38:e6:05:b5:0a:d7:36:67:36:
        40:55:92:c8:d6:da:ff:e4:d1:63:df:5a:64:04:70:a1:46:cd:
        0a:d0:0b:25:83:eb:50:96:10:dd:56:6f:84:ca:b2:ca:97:7c:
        dc:20:e0:f3:55:2b:6d:d6:27:cb:db:87:53:1f:c9:f2:f8:cf:
        7f:35:f4:33:b8:63:94:cc:d0:8a:f4:b6:5f:45:ad:c7:b2:fd:
        e2:eb:9a:ba:4f:27:0f:c5:fa:d4:ad:ec:6a:23:f3:fa:f4:4b:
        4e:8b:b5:00:b5:47:3b:b3:22:81:6f:14:8c:9c:eb:f2:7a:dc:
        86:39:50:b3:1c:44:2f:a1:5f:bb:b5:03:16:d0:49:d0:2c:6e:
        14:a7:bd:0a:a2:f0:54:9c:d5:6a:89:8a:77:73:92:e8:90:e9:
        0a:0b:ca:c4:69:7d:91:c8:6f:23:27:94:e9:e5:4e:30:91:16:
        54:15:2e:e4:14:e0:50:95:8c:89:37:4c:d0:41:3e:f9:22:57:
        4a:24:fd:d4:89:f7:15:d4:57:38:d5:91:24:da:63:7a:f3:13:
        cb:08:04:39:be:56:d3:51:9a:1d:53:23:90:2f:cf:d9:86:d6:
        cf:61:b9:cc
-----BEGIN CERTIFICATE-----
MIIDXTCCAkWgAwIBAgIRALyMIbVAhAlkMjFGZq9oK7YwDQYJKoZIhvcNAQELBQAw
FjEUMBIGA1UEAwwLdGVhbTI0Ni1uZXQwHhcNMjMxMTAzMjA0MzQ3WhcNMjYxMDE4
MjA0MzQ3WjAZMRcwFQYDVQQDDA50ZWFtMjQ2LWNsaWVudDCCASIwDQYJKoZIhvcN
AQEBBQADggEPADCCAQoCggEBAKk6+8dO7oc8KDp9Bx8fAwQ9ZqSAfFfeazNWEiT8
rgqsyXizCGGxZ5yNT8uzfZ+b4qwj03zlUayCbxUe0ZBmbC+MlqT/iiZjdOoYycs+
9IR3RD3JBS7Hc+eJchbStrPeaq7Lhgq6TnySfyHQvtAqijQAhGzFoMJfdYdZRauN
5q0sl1kIQs/c0ELDWcrMWPmUbC6upYnZ052fRieqetST6vcvw+QORalRW1RJLclS
GHBwuLUOn576RFnUzJjUmSjb1OeXmCUj/lXsiRChrkD9YfgDuNzW0iq22sZZ1+FR
4lk5Xh0ECvttkHiTlT3SgGpMwEcWNb2aLM65nAFn2Qnq2MECAwEAAaOBojCBnzAJ
BgNVHRMEAjAAMB0GA1UdDgQWBBQgLWF2cnq45qdxeCeaNHJ5tTrl7zBRBgNVHSME
SjBIgBQYSrqaubEQTAgmssGkcqLCEJbxaaEapBgwFjEUMBIGA1UEAwwLdGVhbTI0
Ni1uZXSCFHekJOSCNtpUysL0EGcTX4fveBSsMBMGA1UdJQQMMAoGCCsGAQUFBwMC
MAsGA1UdDwQEAwIHgDANBgkqhkiG9w0BAQsFAAOCAQEABDMpxc1ikK3FyKGJP6Ye
De1DA0vUNpqMTTIdOOYFtQrXNmc2QFWSyNba/+TRY99aZARwoUbNCtALJYPrUJYQ
3VZvhMqyypd83CDg81UrbdYny9uHUx/J8vjPfzX0M7hjlMzQivS2X0Wtx7L94uua
uk8nD8X61K3saiPz+vRLTou1ALVHO7MigW8UjJzr8nrchjlQsxxEL6Ffu7UDFtBJ
0CxuFKe9CqLwVJzVaomKd3OS6JDpCgvKxGl9kchvIyeU6eVOMJEWVBUu5BTgUJWM
iTdM0EE++SJXSiT91In3FdRXONWRJNpjevMTywgEOb5W01GaHVMjkC/P2YbWz2G5
zA==
-----END CERTIFICATE-----
