Certificate:
    Data:
        Version: 3 (0x2)
        Serial Number:
            df:17:8d:f2:77:ac:1c:08:80:85:d8:91:b0:14:57:c3
        Signature Algorithm: sha256WithRSAEncryption
        Issuer: CN=team246-net
        Validity
            Not Before: Nov  4 11:32:28 2023 GMT
            Not After : Oct 19 11:32:28 2026 GMT
        Subject: CN=team246-server
        Subject Public Key Info:
            Public Key Algorithm: rsaEncryption
                Public-Key: (2048 bit)
                Modulus:
                    00:b0:e0:90:19:34:2c:69:35:fc:1a:05:8c:d4:5a:
                    4c:9e:ce:57:ad:47:2f:7b:ee:96:bc:8b:9d:52:90:
                    67:13:62:9e:71:08:c9:5f:5f:1a:d5:4f:10:be:af:
                    ff:7f:68:f2:0c:cb:47:d9:6e:bd:20:d1:76:f2:36:
                    e5:24:d9:87:44:80:b1:10:ba:d4:1c:ea:30:d8:92:
                    b1:5f:d3:60:e7:bb:22:dd:46:ea:31:e2:cb:0f:f8:
                    d8:4f:d7:d6:6a:11:90:23:b9:94:65:3f:dc:f1:68:
                    40:f9:be:66:ab:f5:0e:b4:0e:51:c6:0d:32:98:79:
                    c5:b8:3c:23:7a:ea:21:31:8f:8a:04:79:fb:53:df:
                    f0:fc:34:18:45:ac:51:2d:a5:3a:f1:46:d2:1d:e3:
                    25:6b:82:f8:9d:5f:f7:a3:ed:69:bf:c3:e6:f5:84:
                    ed:e6:be:cf:24:72:10:c5:f8:da:f1:7e:fc:11:de:
                    64:40:53:64:ac:23:c4:15:eb:f9:ce:7c:74:50:0f:
                    c1:36:3d:4f:ee:4a:8d:6e:5f:78:20:45:10:a0:50:
                    b9:6b:5d:13:2d:29:62:d1:58:f3:51:cb:6e:5c:0d:
                    af:48:9d:a1:63:e9:ea:39:63:b9:16:0e:1a:f3:f0:
                    c6:2e:bf:64:80:ce:59:d5:ce:6f:66:62:62:af:db:
                    94:ff
                Exponent: 65537 (0x10001)
        X509v3 extensions:
            X509v3 Basic Constraints: 
                CA:FALSE
            X509v3 Subject Key Identifier: 
                EA:E4:EF:C8:B5:AA:C8:B9:1D:AF:BE:15:E4:D2:8A:8B:79:7C:1D:68
            X509v3 Authority Key Identifier: 
                keyid:07:C5:61:EC:FD:56:EF:15:D8:81:5B:B5:68:37:C9:14:F8:7C:02:B7
                DirName:/CN=team246-net
                serial:03:9E:DF:2E:C8:B4:A0:AD:C7:F2:C5:9D:E2:C6:45:A6:F3:91:19:C3
            X509v3 Extended Key Usage: 
                TLS Web Server Authentication
            X509v3 Key Usage: 
                Digital Signature, Key Encipherment
            X509v3 Subject Alternative Name: 
                DNS:team246-server
    Signature Algorithm: sha256WithRSAEncryption
    Signature Value:
        88:fb:53:fa:5a:ee:57:77:a9:81:20:76:12:c9:26:ec:b4:2f:
        cb:7f:56:87:fa:a6:8b:e7:9c:c1:57:0f:18:b7:f7:f1:d2:b7:
        97:f1:01:c7:fb:4f:99:3f:c0:ff:aa:bf:31:2e:48:5d:3e:e6:
        fb:ce:a0:e0:27:4f:31:2d:93:d0:d8:40:a3:09:6e:5b:0a:11:
        57:cb:29:9d:f1:ca:f2:2d:42:10:0d:4e:36:03:1c:e5:94:06:
        75:42:87:cc:c5:b2:d2:28:c6:50:cb:ad:ca:88:e3:bc:23:77:
        2c:db:d7:79:d0:ad:9f:df:a5:6c:03:b3:01:d2:a4:48:11:6f:
        03:ad:d0:ec:0c:d7:31:1d:2a:61:16:16:aa:86:6b:f7:09:9b:
        82:c7:c3:9d:ab:42:3c:49:58:d0:e7:f2:c1:1d:82:e3:02:5f:
        cd:64:65:2c:d7:0a:de:65:6c:b5:ee:7c:21:2d:59:54:60:94:
        05:69:60:6a:f9:50:6a:64:34:3b:ee:ea:ad:98:ac:6f:21:86:
        98:e0:27:94:02:f2:cd:93:b8:1e:24:d2:54:08:86:ee:ec:37:
        3a:0f:0c:68:29:ae:6f:31:c2:96:2b:3d:e7:a5:63:92:b4:67:
        da:03:fa:44:f4:33:7b:00:85:27:5d:4d:3e:b7:0b:c0:65:7a:
        a4:37:83:60
-----BEGIN CERTIFICATE-----
MIIDeDCCAmCgAwIBAgIRAN8XjfJ3rBwIgIXYkbAUV8MwDQYJKoZIhvcNAQELBQAw
FjEUMBIGA1UEAwwLdGVhbTI0Ni1uZXQwHhcNMjMxMTA0MTEzMjI4WhcNMjYxMDE5
MTEzMjI4WjAZMRcwFQYDVQQDDA50ZWFtMjQ2LXNlcnZlcjCCASIwDQYJKoZIhvcN
AQEBBQADggEPADCCAQoCggEBALDgkBk0LGk1/BoFjNRaTJ7OV61HL3vulryLnVKQ
ZxNinnEIyV9fGtVPEL6v/39o8gzLR9luvSDRdvI25STZh0SAsRC61BzqMNiSsV/T
YOe7It1G6jHiyw/42E/X1moRkCO5lGU/3PFoQPm+Zqv1DrQOUcYNMph5xbg8I3rq
ITGPigR5+1Pf8Pw0GEWsUS2lOvFG0h3jJWuC+J1f96Ptab/D5vWE7ea+zyRyEMX4
2vF+/BHeZEBTZKwjxBXr+c58dFAPwTY9T+5KjW5feCBFEKBQuWtdEy0pYtFY81HL
blwNr0idoWPp6jljuRYOGvPwxi6/ZIDOWdXOb2ZiYq/blP8CAwEAAaOBvTCBujAJ
BgNVHRMEAjAAMB0GA1UdDgQWBBTq5O/ItarIuR2vvhXk0oqLeXwdaDBRBgNVHSME
SjBIgBQHxWHs/VbvFdiBW7VoN8kU+HwCt6EapBgwFjEUMBIGA1UEAwwLdGVhbTI0
Ni1uZXSCFAOe3y7ItKCtx/LFneLGRabzkRnDMBMGA1UdJQQMMAoGCCsGAQUFBwMB
MAsGA1UdDwQEAwIFoDAZBgNVHREEEjAQgg50ZWFtMjQ2LXNlcnZlcjANBgkqhkiG
9w0BAQsFAAOCAQEAiPtT+lruV3epgSB2Eskm7LQvy39Wh/qmi+ecwVcPGLf38dK3
l/EBx/tPmT/A/6q/MS5IXT7m+86g4CdPMS2T0NhAowluWwoRV8spnfHK8i1CEA1O
NgMc5ZQGdUKHzMWy0ijGUMutyojjvCN3LNvXedCtn9+lbAOzAdKkSBFvA63Q7AzX
MR0qYRYWqoZr9wmbgsfDnatCPElY0OfywR2C4wJfzWRlLNcK3mVste58IS1ZVGCU
BWlgavlQamQ0O+7qrZisbyGGmOAnlALyzZO4HiTSVAiG7uw3Og8MaCmubzHClis9
56VjkrRn2gP6RPQzewCFJ11NPrcLwGV6pDeDYA==
-----END CERTIFICATE-----
