Certificate:
    Data:
        Version: 3 (0x2)
        Serial Number:
            ea:a4:05:03:9c:ac:3f:79:c0:5a:e1:a7:41:37:fc:d1
        Signature Algorithm: sha256WithRSAEncryption
        Issuer: CN=team246-net
        Validity
            Not Before: Nov  3 20:43:47 2023 GMT
            Not After : Oct 18 20:43:47 2026 GMT
        Subject: CN=team246-server
        Subject Public Key Info:
            Public Key Algorithm: rsaEncryption
                Public-Key: (2048 bit)
                Modulus:
                    00:d5:cf:aa:ee:46:cc:fd:66:ff:f6:be:59:7a:88:
                    e8:5d:e4:d6:c7:3e:17:1e:2f:d6:e3:e6:db:40:b6:
                    3d:80:74:e9:e8:f5:35:93:e2:d8:d1:90:b3:7c:89:
                    b4:e0:62:62:57:2a:b6:3a:26:94:33:7b:62:15:39:
                    c9:e0:e2:5e:4e:d0:5a:96:ea:3a:b0:19:2b:ed:41:
                    23:85:f4:97:59:c0:de:7f:71:96:a2:c0:c4:47:6a:
                    90:e3:1e:4f:7f:16:a0:42:09:f1:f0:4b:ba:b2:e0:
                    05:ab:52:84:25:e9:42:47:63:0c:28:20:73:73:ae:
                    4d:22:c4:1c:ed:a7:66:d1:10:2f:64:27:01:16:e4:
                    26:12:5e:dd:36:f1:09:5b:ec:90:48:ad:70:2e:01:
                    0a:f1:f4:73:71:85:9c:0d:4a:7f:9f:d5:ed:f0:8c:
                    d6:59:2b:6d:4d:04:db:2c:a9:c3:e7:cd:98:29:0b:
                    e8:46:aa:a3:34:e4:04:3a:e4:c9:2f:62:87:7a:d6:
                    a2:e6:22:68:d1:b3:45:8d:d4:61:19:5d:6e:44:9d:
                    58:c6:30:4b:e7:c1:70:11:ae:e4:05:56:7b:56:d2:
                    77:4c:8d:c2:95:e7:e5:b0:80:fe:34:14:61:6e:7b:
                    b3:4f:08:9b:d9:6a:e8:1e:e2:21:d1:46:65:79:25:
                    91:6b
                Exponent: 65537 (0x10001)
        X509v3 extensions:
            X509v3 Basic Constraints: 
                CA:FALSE
            X509v3 Subject Key Identifier: 
                F1:2F:51:22:38:47:6D:85:FB:24:B1:5C:A1:7D:C7:0C:A7:51:4D:A4
            X509v3 Authority Key Identifier: 
                keyid:18:4A:BA:9A:B9:B1:10:4C:08:26:B2:C1:A4:72:A2:C2:10:96:F1:69
                DirName:/CN=team246-net
                serial:77:A4:24:E4:82:36:DA:54:CA:C2:F4:10:67:13:5F:87:EF:78:14:AC
            X509v3 Extended Key Usage: 
                TLS Web Server Authentication
            X509v3 Key Usage: 
                Digital Signature, Key Encipherment
            X509v3 Subject Alternative Name: 
                DNS:team246-server
    Signature Algorithm: sha256WithRSAEncryption
    Signature Value:
        63:b5:c1:95:b9:84:75:8d:5f:0a:ec:51:79:c7:2b:69:ef:3e:
        9c:a4:bb:ae:62:d0:7f:01:e7:80:ea:71:ad:76:b5:0b:16:71:
        05:44:6b:dd:b6:90:d1:f4:54:31:40:02:fe:a7:42:52:dc:75:
        bf:44:2e:9d:a7:0d:65:4b:80:15:08:92:3f:ee:f7:af:a2:bb:
        74:bd:7e:7f:24:9e:6e:e8:1a:90:6a:1a:e5:79:6b:d3:1e:4a:
        9d:05:3a:27:93:f9:68:d5:3e:20:68:c4:48:ab:6b:99:ad:92:
        21:1a:23:e5:17:98:07:50:d0:0b:86:dd:bd:97:df:12:1e:74:
        76:7a:32:8b:85:fe:e6:22:47:d6:ea:ff:c8:59:a3:a4:f0:a6:
        2f:e6:c5:66:e0:c5:a2:08:99:c6:be:5a:a6:b0:84:94:23:3d:
        9d:76:17:78:c6:df:de:80:92:35:c3:4f:47:b4:86:68:96:a1:
        98:c0:0d:8f:f1:a5:b3:fa:e6:95:bb:8b:77:36:d0:9f:59:e7:
        67:a6:55:e1:0d:27:cc:e0:b3:78:5e:8e:1f:8e:84:8b:9c:07:
        67:c6:44:ac:03:0e:07:30:48:de:54:9c:82:ad:3a:be:3b:0e:
        28:0b:db:31:e8:47:47:81:a0:03:3c:9e:92:86:cf:4f:2f:ac:
        f4:d8:83:29
-----BEGIN CERTIFICATE-----
MIIDeDCCAmCgAwIBAgIRAOqkBQOcrD95wFrhp0E3/NEwDQYJKoZIhvcNAQELBQAw
FjEUMBIGA1UEAwwLdGVhbTI0Ni1uZXQwHhcNMjMxMTAzMjA0MzQ3WhcNMjYxMDE4
MjA0MzQ3WjAZMRcwFQYDVQQDDA50ZWFtMjQ2LXNlcnZlcjCCASIwDQYJKoZIhvcN
AQEBBQADggEPADCCAQoCggEBANXPqu5GzP1m//a+WXqI6F3k1sc+Fx4v1uPm20C2
PYB06ej1NZPi2NGQs3yJtOBiYlcqtjomlDN7YhU5yeDiXk7QWpbqOrAZK+1BI4X0
l1nA3n9xlqLAxEdqkOMeT38WoEIJ8fBLurLgBatShCXpQkdjDCggc3OuTSLEHO2n
ZtEQL2QnARbkJhJe3TbxCVvskEitcC4BCvH0c3GFnA1Kf5/V7fCM1lkrbU0E2yyp
w+fNmCkL6EaqozTkBDrkyS9ih3rWouYiaNGzRY3UYRldbkSdWMYwS+fBcBGu5AVW
e1bSd0yNwpXn5bCA/jQUYW57s08Im9lq6B7iIdFGZXklkWsCAwEAAaOBvTCBujAJ
BgNVHRMEAjAAMB0GA1UdDgQWBBTxL1EiOEdthfsksVyhfccMp1FNpDBRBgNVHSME
SjBIgBQYSrqaubEQTAgmssGkcqLCEJbxaaEapBgwFjEUMBIGA1UEAwwLdGVhbTI0
Ni1uZXSCFHekJOSCNtpUysL0EGcTX4fveBSsMBMGA1UdJQQMMAoGCCsGAQUFBwMB
MAsGA1UdDwQEAwIFoDAZBgNVHREEEjAQgg50ZWFtMjQ2LXNlcnZlcjANBgkqhkiG
9w0BAQsFAAOCAQEAY7XBlbmEdY1fCuxReccrae8+nKS7rmLQfwHngOpxrXa1CxZx
BURr3baQ0fRUMUAC/qdCUtx1v0QunacNZUuAFQiSP+73r6K7dL1+fySebugakGoa
5Xlr0x5KnQU6J5P5aNU+IGjESKtrma2SIRoj5ReYB1DQC4bdvZffEh50dnoyi4X+
5iJH1ur/yFmjpPCmL+bFZuDFogiZxr5aprCElCM9nXYXeMbf3oCSNcNPR7SGaJah
mMANj/Gls/rmlbuLdzbQn1nnZ6ZV4Q0nzOCzeF6OH46Ei5wHZ8ZErAMOBzBI3lSc
gq06vjsOKAvbMehHR4GgAzyekobPTy+s9NiDKQ==
-----END CERTIFICATE-----
