Certificate:
    Data:
        Version: 3 (0x2)
        Serial Number:
            5c:2a:b0:17:14:aa:57:1b:5a:7b:2c:cb:fd:54:5e:1b
        Signature Algorithm: sha256WithRSAEncryption
        Issuer: CN=team80-net
        Validity
            Not Before: Nov  4 10:41:53 2023 GMT
            Not After : Oct 19 10:41:53 2026 GMT
        Subject: CN=team80-server
        Subject Public Key Info:
            Public Key Algorithm: rsaEncryption
                Public-Key: (2048 bit)
                Modulus:
                    00:b7:6f:26:76:19:9b:02:85:10:3b:bc:ac:79:65:
                    ed:14:67:7f:24:87:38:39:b7:9a:a7:6c:d0:86:29:
                    ba:42:e5:6d:27:0b:64:04:00:c2:ee:cc:67:a7:65:
                    90:6b:75:2a:50:50:84:cd:fd:41:e8:8d:d3:eb:fb:
                    a1:49:20:86:5c:59:85:cf:8b:cd:38:35:d2:00:84:
                    8f:cc:13:00:ed:56:3f:ac:04:98:09:9d:cf:d6:4d:
                    84:00:d9:65:3e:f7:54:e5:1d:83:b4:21:47:66:f5:
                    7c:bd:7d:e9:41:8a:bc:53:ea:ad:2f:1d:2f:63:60:
                    bb:fa:b8:ec:63:dd:7c:14:ac:42:0c:59:bb:14:cc:
                    0d:fa:e1:b1:5d:e0:d5:61:1c:c0:04:03:bd:47:a6:
                    09:ce:d4:12:8f:05:5f:5a:f6:ae:9c:4d:63:20:d4:
                    77:ef:e7:65:9a:f7:03:2d:f2:0d:09:8a:3c:a9:f4:
                    da:03:f1:bd:82:fa:45:68:31:53:b3:a6:b3:c5:25:
                    c3:92:22:54:c1:dc:80:e9:bf:92:17:39:71:5e:36:
                    25:18:20:97:a9:dd:cd:66:a1:4b:96:bd:38:6f:e5:
                    38:e7:75:7f:cd:29:4b:5a:2c:a5:d3:29:27:81:3f:
                    62:ca:cf:9a:34:3e:12:22:be:e5:30:bc:f6:44:da:
                    a1:eb
                Exponent: 65537 (0x10001)
        X509v3 extensions:
            X509v3 Basic Constraints: 
                CA:FALSE
            X509v3 Subject Key Identifier: 
                55:77:6E:A6:6B:6C:A7:67:6B:C2:0B:EC:29:F2:4E:18:97:A5:9F:B8
            X509v3 Authority Key Identifier: 
                keyid:84:F3:31:96:7C:12:20:AE:B6:6D:05:68:30:E0:A2:66:0E:1C:F9:B7
                DirName:/CN=team80-net
                serial:44:49:5C:54:CD:5F:7B:6B:CE:47:05:1E:37:60:22:28:CE:B1:2C:AB
            X509v3 Extended Key Usage: 
                TLS Web Server Authentication
            X509v3 Key Usage: 
                Digital Signature, Key Encipherment
            X509v3 Subject Alternative Name: 
                DNS:team80-server
    Signature Algorithm: sha256WithRSAEncryption
    Signature Value:
        69:f5:6b:62:49:f0:e0:b8:98:d7:ce:25:16:d4:58:4d:4a:78:
        a0:49:eb:34:b6:ef:8f:5a:77:11:f2:12:e2:92:9a:30:aa:c2:
        9d:a1:8e:42:0a:81:74:ff:cf:f5:1c:5b:ab:c1:3e:b5:c3:87:
        0d:d4:8c:1c:b0:0b:66:42:6c:ef:35:74:73:fe:4c:b5:ff:3c:
        42:9c:40:a7:be:c0:ae:9c:35:3c:6b:a9:b7:9a:82:72:94:67:
        5b:49:4f:34:a9:df:b2:1b:9b:5e:13:c2:b7:3f:76:f5:5a:40:
        19:dc:13:ec:af:df:76:d2:f1:b5:64:28:47:55:c6:fb:37:c2:
        fd:3d:02:6d:ff:cf:b8:fa:34:46:9f:c6:8e:21:fc:0d:75:8a:
        47:68:2f:89:08:0e:9a:c7:7a:9d:18:e0:9f:37:be:0d:e5:01:
        12:e0:da:84:bf:50:21:0a:ce:14:b6:9a:10:54:96:b6:f6:a9:
        11:45:19:8b:a7:a6:7a:e0:81:2b:ee:7a:dc:da:bc:12:21:0b:
        0d:1b:3f:e5:d1:8e:77:52:5a:a0:6c:3d:f6:82:6b:26:43:0a:
        de:43:b2:39:4f:72:e5:16:e6:4e:8c:d9:8c:a2:f3:5c:76:27:
        8d:c1:89:b3:21:51:56:4d:6e:3a:80:0c:3c:b4:63:88:5d:66:
        91:ae:61:cf
-----BEGIN CERTIFICATE-----
MIIDczCCAlugAwIBAgIQXCqwFxSqVxtaeyzL/VReGzANBgkqhkiG9w0BAQsFADAV
MRMwEQYDVQQDDAp0ZWFtODAtbmV0MB4XDTIzMTEwNDEwNDE1M1oXDTI2MTAxOTEw
NDE1M1owGDEWMBQGA1UEAwwNdGVhbTgwLXNlcnZlcjCCASIwDQYJKoZIhvcNAQEB
BQADggEPADCCAQoCggEBALdvJnYZmwKFEDu8rHll7RRnfySHODm3mqds0IYpukLl
bScLZAQAwu7MZ6dlkGt1KlBQhM39QeiN0+v7oUkghlxZhc+LzTg10gCEj8wTAO1W
P6wEmAmdz9ZNhADZZT73VOUdg7QhR2b1fL196UGKvFPqrS8dL2Ngu/q47GPdfBSs
QgxZuxTMDfrhsV3g1WEcwAQDvUemCc7UEo8FX1r2rpxNYyDUd+/nZZr3Ay3yDQmK
PKn02gPxvYL6RWgxU7Oms8Ulw5IiVMHcgOm/khc5cV42JRggl6ndzWahS5a9OG/l
OOd1f80pS1ospdMpJ4E/YsrPmjQ+EiK+5TC89kTaoesCAwEAAaOBuzCBuDAJBgNV
HRMEAjAAMB0GA1UdDgQWBBRVd26ma2ynZ2vCC+wp8k4Yl6WfuDBQBgNVHSMESTBH
gBSE8zGWfBIgrrZtBWgw4KJmDhz5t6EZpBcwFTETMBEGA1UEAwwKdGVhbTgwLW5l
dIIURElcVM1fe2vORwUeN2AiKM6xLKswEwYDVR0lBAwwCgYIKwYBBQUHAwEwCwYD
VR0PBAQDAgWgMBgGA1UdEQQRMA+CDXRlYW04MC1zZXJ2ZXIwDQYJKoZIhvcNAQEL
BQADggEBAGn1a2JJ8OC4mNfOJRbUWE1KeKBJ6zS2749adxHyEuKSmjCqwp2hjkIK
gXT/z/UcW6vBPrXDhw3UjBywC2ZCbO81dHP+TLX/PEKcQKe+wK6cNTxrqbeagnKU
Z1tJTzSp37Ibm14Twrc/dvVaQBncE+yv33bS8bVkKEdVxvs3wv09Am3/z7j6NEaf
xo4h/A11ikdoL4kIDprHep0Y4J83vg3lARLg2oS/UCEKzhS2mhBUlrb2qRFFGYun
pnrggSvuetzavBIhCw0bP+XRjndSWqBsPfaCayZDCt5DsjlPcuUW5k6M2Yyi81x2
J43BibMhUVZNbjqADDy0Y4hdZpGuYc8=
-----END CERTIFICATE-----
