Certificate:
    Data:
        Version: 3 (0x2)
        Serial Number:
            5c:e8:7e:e6:41:92:d3:0a:67:25:53:c7:8b:f3:bd:a6
        Signature Algorithm: sha256WithRSAEncryption
        Issuer: CN=team80-net
        Validity
            Not Before: Nov  4 11:28:56 2023 GMT
            Not After : Oct 19 11:28:56 2026 GMT
        Subject: CN=team80-server
        Subject Public Key Info:
            Public Key Algorithm: rsaEncryption
                Public-Key: (2048 bit)
                Modulus:
                    00:94:de:06:3c:44:cd:5b:52:d1:56:26:81:ed:b8:
                    5c:ac:b9:76:be:67:9d:75:85:d4:d7:07:28:2b:86:
                    24:67:e1:bc:9f:f2:de:9f:02:01:7b:04:a5:fd:39:
                    b3:62:31:d3:09:5d:bd:02:33:d6:43:0c:d0:81:8e:
                    db:cf:77:f2:8d:9d:a0:34:07:42:56:37:a5:a8:78:
                    b6:89:f3:47:e2:bb:37:d4:5b:38:84:8d:35:cf:33:
                    20:a1:f5:f0:9d:64:69:d5:35:be:1c:5a:70:6b:32:
                    f2:b1:b2:c7:46:5a:14:4e:e4:f8:bb:32:12:fb:1c:
                    5d:c5:58:c9:c6:59:8a:23:fe:6c:d4:96:06:84:09:
                    85:ba:73:a5:91:05:6d:97:7a:5d:6f:46:59:ef:b6:
                    37:90:f9:3e:e0:f9:4e:b0:80:b9:da:e9:f8:66:f8:
                    91:e9:b3:f8:4f:2a:09:fc:98:1c:e4:2b:90:58:c3:
                    d9:df:69:64:80:0a:a1:1d:d0:c8:aa:f0:56:4c:9b:
                    42:83:69:0c:55:16:f3:cf:ba:70:d0:8d:c8:df:c7:
                    3a:8d:d7:4a:10:76:31:a7:0e:64:b3:28:cc:17:8e:
                    c0:b5:00:c7:63:11:05:87:7f:1e:e3:49:79:37:3c:
                    82:bf:e0:dd:fd:0b:25:57:20:9a:2e:fe:37:35:37:
                    50:19
                Exponent: 65537 (0x10001)
        X509v3 extensions:
            X509v3 Basic Constraints: 
                CA:FALSE
            X509v3 Subject Key Identifier: 
                BC:22:25:13:EE:B9:A6:15:B3:54:B1:46:15:20:40:B2:04:29:4D:3E
            X509v3 Authority Key Identifier: 
                keyid:02:F8:25:CE:29:5D:A3:3A:A0:2E:36:E9:D1:CA:CC:C4:7D:79:E2:1C
                DirName:/CN=team80-net
                serial:02:3E:8B:C5:9B:18:0A:D9:CB:C9:4C:16:81:7A:FF:FD:AB:57:17:60
            X509v3 Extended Key Usage: 
                TLS Web Server Authentication
            X509v3 Key Usage: 
                Digital Signature, Key Encipherment
            X509v3 Subject Alternative Name: 
                DNS:team80-server
    Signature Algorithm: sha256WithRSAEncryption
    Signature Value:
        01:27:a3:56:bb:41:2b:b1:6f:94:89:af:54:92:85:01:5e:ef:
        69:1c:d0:73:9a:e4:e6:1e:2d:02:ff:54:0a:83:95:1f:1e:11:
        ba:a7:db:3f:46:bd:e6:de:9d:30:03:eb:1c:6f:b5:10:2f:90:
        59:f2:23:ae:19:c0:73:1a:6f:67:32:cc:59:15:81:47:e2:fa:
        32:2f:c4:82:1e:e5:6e:49:2b:27:fb:af:7b:95:6f:95:aa:e3:
        37:97:b2:77:ba:ba:66:31:be:b7:36:21:98:62:96:19:2a:c5:
        49:03:b3:4f:39:85:7e:95:23:b8:c8:12:4f:5a:ae:c8:52:89:
        b1:0a:f5:b2:bb:74:68:f5:6a:9c:cc:5f:5f:8f:ac:1d:2d:e4:
        89:03:39:95:56:2d:f1:98:04:4a:0a:87:a2:fe:9b:80:54:9d:
        b0:26:6d:9f:fc:48:90:cd:e7:e2:e2:3c:63:c9:5c:20:c6:49:
        7f:da:b6:c8:30:8e:23:1f:f5:a5:68:ed:53:6b:9f:e3:e4:68:
        47:38:df:8f:98:fa:8c:e5:22:52:1d:19:91:e3:f2:a3:31:46:
        6a:ed:bf:1f:c7:26:f8:4f:0d:6a:bc:ad:32:4a:4f:42:6d:c9:
        93:58:c8:db:20:42:0c:39:99:ce:1e:4a:e8:f9:07:b6:0f:87:
        66:a2:8f:0c
-----BEGIN CERTIFICATE-----
MIIDczCCAlugAwIBAgIQXOh+5kGS0wpnJVPHi/O9pjANBgkqhkiG9w0BAQsFADAV
MRMwEQYDVQQDDAp0ZWFtODAtbmV0MB4XDTIzMTEwNDExMjg1NloXDTI2MTAxOTEx
Mjg1NlowGDEWMBQGA1UEAwwNdGVhbTgwLXNlcnZlcjCCASIwDQYJKoZIhvcNAQEB
BQADggEPADCCAQoCggEBAJTeBjxEzVtS0VYmge24XKy5dr5nnXWF1NcHKCuGJGfh
vJ/y3p8CAXsEpf05s2Ix0wldvQIz1kMM0IGO28938o2doDQHQlY3pah4tonzR+K7
N9RbOISNNc8zIKH18J1kadU1vhxacGsy8rGyx0ZaFE7k+LsyEvscXcVYycZZiiP+
bNSWBoQJhbpzpZEFbZd6XW9GWe+2N5D5PuD5TrCAudrp+Gb4kemz+E8qCfyYHOQr
kFjD2d9pZIAKoR3QyKrwVkybQoNpDFUW88+6cNCNyN/HOo3XShB2MacOZLMozBeO
wLUAx2MRBYd/HuNJeTc8gr/g3f0LJVcgmi7+NzU3UBkCAwEAAaOBuzCBuDAJBgNV
HRMEAjAAMB0GA1UdDgQWBBS8IiUT7rmmFbNUsUYVIECyBClNPjBQBgNVHSMESTBH
gBQC+CXOKV2jOqAuNunRyszEfXniHKEZpBcwFTETMBEGA1UEAwwKdGVhbTgwLW5l
dIIUAj6LxZsYCtnLyUwWgXr//atXF2AwEwYDVR0lBAwwCgYIKwYBBQUHAwEwCwYD
VR0PBAQDAgWgMBgGA1UdEQQRMA+CDXRlYW04MC1zZXJ2ZXIwDQYJKoZIhvcNAQEL
BQADggEBAAEno1a7QSuxb5SJr1SShQFe72kc0HOa5OYeLQL/VAqDlR8eEbqn2z9G
vebenTAD6xxvtRAvkFnyI64ZwHMab2cyzFkVgUfi+jIvxIIe5W5JKyf7r3uVb5Wq
4zeXsne6umYxvrc2IZhilhkqxUkDs085hX6VI7jIEk9arshSibEK9bK7dGj1apzM
X1+PrB0t5IkDOZVWLfGYBEoKh6L+m4BUnbAmbZ/8SJDN5+LiPGPJXCDGSX/atsgw
jiMf9aVo7VNrn+PkaEc434+Y+ozlIlIdGZHj8qMxRmrtvx/HJvhPDWq8rTJKT0Jt
yZNYyNsgQgw5mc4eSuj5B7YPh2aijww=
-----END CERTIFICATE-----
