Certificate:
    Data:
        Version: 3 (0x2)
        Serial Number:
            de:37:5f:f7:bf:12:83:83:ed:eb:61:95:c8:56:47:fe
        Signature Algorithm: sha256WithRSAEncryption
        Issuer: CN=team80-net
        Validity
            Not Before: Nov  3 20:40:34 2023 GMT
            Not After : Oct 18 20:40:34 2026 GMT
        Subject: CN=team80-server
        Subject Public Key Info:
            Public Key Algorithm: rsaEncryption
                Public-Key: (2048 bit)
                Modulus:
                    00:e1:e0:2f:aa:5e:d2:57:03:0b:f1:40:58:00:75:
                    f8:aa:d7:dd:9c:2b:4d:39:cb:14:bf:62:80:58:a4:
                    92:07:92:b9:80:3c:13:79:3b:2d:30:a5:21:f3:6a:
                    c1:0c:7f:f7:c5:2d:a4:7f:0b:01:82:8a:a0:43:8c:
                    a2:ae:38:bd:11:82:4d:97:cb:e2:ef:05:af:1f:c4:
                    d5:a6:b2:8e:55:81:59:29:c5:79:e2:30:71:d8:bc:
                    e5:06:80:eb:50:8d:d9:e2:d1:e2:86:2f:4f:cc:a9:
                    e5:2a:8d:04:56:c5:fd:88:60:20:ad:4c:a7:b1:bb:
                    a4:86:71:70:aa:ee:02:7f:8a:b4:94:c8:a2:b9:7f:
                    de:8c:0b:3a:d0:f9:ac:08:68:96:92:58:33:43:c6:
                    1e:cb:61:e6:4c:f6:a5:7f:4c:f1:38:8e:49:9b:bc:
                    0e:09:1a:fa:da:88:4a:1b:3a:21:92:55:f7:c2:a3:
                    62:cd:dd:91:ac:fc:3e:9c:23:09:25:fc:27:0b:59:
                    04:69:0e:6b:84:dc:1d:13:ed:fb:10:56:be:9f:8c:
                    24:e1:13:bf:56:c9:dc:d8:11:d9:fe:67:1e:bc:21:
                    26:91:2d:68:c1:54:1a:25:5c:aa:89:3e:37:61:43:
                    f3:59:3b:ce:2e:71:c1:6b:3f:d3:89:a2:58:7b:60:
                    06:dd
                Exponent: 65537 (0x10001)
        X509v3 extensions:
            X509v3 Basic Constraints: 
                CA:FALSE
            X509v3 Subject Key Identifier: 
                53:A6:E4:EB:E6:0D:F3:38:1D:FF:2E:3B:FF:23:E1:7E:61:99:9C:AD
            X509v3 Authority Key Identifier: 
                keyid:9D:91:91:9F:78:D4:2A:FE:CF:CB:03:7D:11:91:A3:88:84:C7:72:CD
                DirName:/CN=team80-net
                serial:54:5F:16:21:43:BF:E9:92:85:FA:5C:F8:46:7E:AF:2F:9C:49:48:4B
            X509v3 Extended Key Usage: 
                TLS Web Server Authentication
            X509v3 Key Usage: 
                Digital Signature, Key Encipherment
            X509v3 Subject Alternative Name: 
                DNS:team80-server
    Signature Algorithm: sha256WithRSAEncryption
    Signature Value:
        69:28:11:79:92:77:15:4f:ec:61:e2:3f:f0:2b:80:05:22:27:
        ff:df:cb:e6:e7:d4:b8:60:90:a2:de:4d:63:99:50:da:5d:60:
        d4:91:3b:a8:4f:e1:74:06:ed:f1:85:bd:bb:12:15:a1:4c:bc:
        69:06:2c:32:ba:89:b2:d1:03:fa:68:44:70:08:2b:36:2f:d0:
        15:d8:ee:9e:7d:0d:fd:f3:f2:e6:67:10:ff:01:97:43:84:af:
        a3:a6:a2:5a:21:97:30:56:df:3e:6d:f4:c5:3d:2d:dc:6d:f7:
        d1:0f:ab:54:a6:b3:3d:65:41:b4:9c:7a:bf:2d:6e:ab:eb:0f:
        3a:06:dc:a7:5d:fb:d5:5d:f1:f1:9a:13:58:2b:5c:34:3e:dc:
        9f:5b:0b:f1:bc:17:a2:3e:d9:25:a2:1b:9b:41:6c:93:9d:32:
        e5:19:69:b0:97:37:04:04:af:d5:04:87:ba:c2:c3:fd:f0:34:
        06:1c:0e:70:07:bd:d1:f6:1a:57:1f:95:9e:06:2f:a7:00:8f:
        51:fd:83:8b:ab:bf:f8:ec:36:ec:c1:6a:24:b0:a8:f4:7a:86:
        e9:c7:bd:de:23:0e:bf:3b:9e:d1:b6:d0:e3:a7:f8:f9:18:2d:
        a3:32:bb:c8:0f:94:71:f3:d3:5e:dd:55:0b:36:2e:e9:fd:83:
        aa:48:b5:3d
-----BEGIN CERTIFICATE-----
MIIDdDCCAlygAwIBAgIRAN43X/e/EoOD7ethlchWR/4wDQYJKoZIhvcNAQELBQAw
FTETMBEGA1UEAwwKdGVhbTgwLW5ldDAeFw0yMzExMDMyMDQwMzRaFw0yNjEwMTgy
MDQwMzRaMBgxFjAUBgNVBAMMDXRlYW04MC1zZXJ2ZXIwggEiMA0GCSqGSIb3DQEB
AQUAA4IBDwAwggEKAoIBAQDh4C+qXtJXAwvxQFgAdfiq192cK005yxS/YoBYpJIH
krmAPBN5Oy0wpSHzasEMf/fFLaR/CwGCiqBDjKKuOL0Rgk2Xy+LvBa8fxNWmso5V
gVkpxXniMHHYvOUGgOtQjdni0eKGL0/MqeUqjQRWxf2IYCCtTKexu6SGcXCq7gJ/
irSUyKK5f96MCzrQ+awIaJaSWDNDxh7LYeZM9qV/TPE4jkmbvA4JGvraiEobOiGS
VffCo2LN3ZGs/D6cIwkl/CcLWQRpDmuE3B0T7fsQVr6fjCThE79WydzYEdn+Zx68
ISaRLWjBVBolXKqJPjdhQ/NZO84uccFrP9OJolh7YAbdAgMBAAGjgbswgbgwCQYD
VR0TBAIwADAdBgNVHQ4EFgQUU6bk6+YN8zgd/y47/yPhfmGZnK0wUAYDVR0jBEkw
R4AUnZGRn3jUKv7PywN9EZGjiITHcs2hGaQXMBUxEzARBgNVBAMMCnRlYW04MC1u
ZXSCFFRfFiFDv+mShfpc+EZ+ry+cSUhLMBMGA1UdJQQMMAoGCCsGAQUFBwMBMAsG
A1UdDwQEAwIFoDAYBgNVHREEETAPgg10ZWFtODAtc2VydmVyMA0GCSqGSIb3DQEB
CwUAA4IBAQBpKBF5kncVT+xh4j/wK4AFIif/38vm59S4YJCi3k1jmVDaXWDUkTuo
T+F0Bu3xhb27EhWhTLxpBiwyuomy0QP6aERwCCs2L9AV2O6efQ398/LmZxD/AZdD
hK+jpqJaIZcwVt8+bfTFPS3cbffRD6tUprM9ZUG0nHq/LW6r6w86BtynXfvVXfHx
mhNYK1w0PtyfWwvxvBeiPtklohubQWyTnTLlGWmwlzcEBK/VBIe6wsP98DQGHA5w
B73R9hpXH5WeBi+nAI9R/YOLq7/47DbswWoksKj0eobpx73eIw6/O57RttDjp/j5
GC2jMrvID5Rx89Ne3VULNi7p/YOqSLU9
-----END CERTIFICATE-----
