Certificate:
    Data:
        Version: 3 (0x2)
        Serial Number:
            25:46:95:64:06:d4:bc:3b:c5:b8:59:53:0e:0a:80:fc
        Signature Algorithm: sha256WithRSAEncryption
        Issuer: CN=team35-net
        Validity
            Not Before: Nov  4 11:28:02 2023 GMT
            Not After : Oct 19 11:28:02 2026 GMT
        Subject: CN=team35-client
        Subject Public Key Info:
            Public Key Algorithm: rsaEncryption
                Public-Key: (2048 bit)
                Modulus:
                    00:a0:49:6d:72:64:26:64:9d:89:49:cc:d4:1d:7d:
                    d9:d3:d3:d2:26:b0:10:4b:75:7f:1c:5f:c3:ef:17:
                    37:af:5b:8f:68:db:1d:dd:8d:a1:d4:f6:4b:09:99:
                    13:a7:e4:9d:0d:46:6b:5c:9b:90:45:4c:0f:20:21:
                    f7:8b:ca:2a:a8:c0:8c:cd:70:ce:d3:f2:28:3b:9e:
                    99:4e:44:2a:20:0d:53:f0:ec:33:53:e2:08:24:44:
                    02:f4:3b:05:21:3b:a9:29:52:63:f8:57:a0:fe:f6:
                    b9:c2:9e:f1:b7:19:03:47:be:fd:f9:87:c0:f0:c1:
                    2e:95:2f:dc:1f:1b:9d:60:6b:dd:4e:a8:16:5a:d0:
                    03:42:04:7e:1e:6b:e3:17:a0:a9:91:7e:da:ae:64:
                    cc:20:7e:ff:34:5f:71:3e:48:0b:b6:3a:1c:3d:7e:
                    1c:aa:4c:75:43:29:af:b6:67:3e:ae:69:de:6b:e0:
                    3f:f7:f5:60:02:0a:28:ff:73:db:26:10:3d:24:ec:
                    ef:41:d1:cc:bd:19:15:52:08:24:29:2d:4a:78:68:
                    1a:65:d5:d6:80:4a:7a:10:0b:ad:d2:98:66:40:91:
                    04:15:0d:b5:bd:9d:43:9a:74:ff:f1:ad:9a:62:69:
                    68:3d:09:9d:85:62:8f:51:24:48:b3:20:e6:be:bb:
                    05:1d
                Exponent: 65537 (0x10001)
        X509v3 extensions:
            X509v3 Basic Constraints: 
                CA:FALSE
            X509v3 Subject Key Identifier: 
                58:26:F2:E3:03:9A:2A:90:6D:2B:2E:31:BA:31:E6:1C:49:B2:DD:E9
            X509v3 Authority Key Identifier: 
                keyid:36:AB:DC:15:50:E4:1F:CE:24:E8:F3:F2:2C:40:4D:1F:AE:0E:1A:30
                DirName:/CN=team35-net
                serial:54:4D:50:92:FF:C5:41:64:F7:5F:8F:C7:0B:A3:83:8D:B0:78:80:3F
            X509v3 Extended Key Usage: 
                TLS Web Client Authentication
            X509v3 Key Usage: 
                Digital Signature
    Signature Algorithm: sha256WithRSAEncryption
    Signature Value:
        8a:1d:8a:69:95:46:6d:62:06:eb:f4:2d:0c:52:18:de:66:0f:
        4c:0b:16:8e:0f:94:a9:2c:da:3f:ed:5b:cc:59:46:fa:26:b0:
        b9:58:05:d1:7c:d0:93:95:de:7e:ed:c4:2a:c4:2e:4f:9e:55:
        9d:0f:fc:3b:37:89:2a:76:70:92:3a:af:24:fd:fb:10:18:9d:
        c0:c3:2c:39:7d:9d:ca:41:2c:63:fe:16:60:8a:8c:d9:44:60:
        90:cc:4c:7b:4a:70:13:1b:b2:5e:79:78:63:d0:04:fc:b5:3e:
        13:55:c1:0c:1c:7a:29:da:07:a8:1b:55:4b:dd:e6:b6:59:35:
        ac:0b:79:11:70:63:ca:45:92:8a:47:e4:b8:80:5a:86:75:f0:
        d9:99:25:7a:f7:a3:69:98:ee:f1:89:bf:9e:62:16:17:7b:33:
        54:be:d6:65:27:1e:9a:7c:09:9b:06:4d:e8:e6:fe:40:50:4e:
        3f:c9:58:2d:b7:f9:5d:13:40:4a:34:11:42:f2:65:8d:e2:c4:
        f1:99:0e:56:b7:20:52:71:b1:c7:db:4d:0e:dc:02:3d:ae:47:
        62:d7:a9:83:1d:36:ac:1e:6f:e1:19:ed:06:34:04:94:3d:c7:
        d7:f6:4c:39:d8:ae:f7:68:6e:5a:7b:b7:10:ea:d3:93:ed:17:
        96:e2:dd:27
-----BEGIN CERTIFICATE-----
MIIDWTCCAkGgAwIBAgIQJUaVZAbUvDvFuFlTDgqA/DANBgkqhkiG9w0BAQsFADAV
MRMwEQYDVQQDDAp0ZWFtMzUtbmV0MB4XDTIzMTEwNDExMjgwMloXDTI2MTAxOTEx
MjgwMlowGDEWMBQGA1UEAwwNdGVhbTM1LWNsaWVudDCCASIwDQYJKoZIhvcNAQEB
BQADggEPADCCAQoCggEBAKBJbXJkJmSdiUnM1B192dPT0iawEEt1fxxfw+8XN69b
j2jbHd2NodT2SwmZE6fknQ1Ga1ybkEVMDyAh94vKKqjAjM1wztPyKDuemU5EKiAN
U/DsM1PiCCREAvQ7BSE7qSlSY/hXoP72ucKe8bcZA0e+/fmHwPDBLpUv3B8bnWBr
3U6oFlrQA0IEfh5r4xegqZF+2q5kzCB+/zRfcT5IC7Y6HD1+HKpMdUMpr7ZnPq5p
3mvgP/f1YAIKKP9z2yYQPSTs70HRzL0ZFVIIJCktSnhoGmXV1oBKehALrdKYZkCR
BBUNtb2dQ5p0//GtmmJpaD0JnYVij1EkSLMg5r67BR0CAwEAAaOBoTCBnjAJBgNV
HRMEAjAAMB0GA1UdDgQWBBRYJvLjA5oqkG0rLjG6MeYcSbLd6TBQBgNVHSMESTBH
gBQ2q9wVUOQfziTo8/IsQE0frg4aMKEZpBcwFTETMBEGA1UEAwwKdGVhbTM1LW5l
dIIUVE1Qkv/FQWT3X4/HC6ODjbB4gD8wEwYDVR0lBAwwCgYIKwYBBQUHAwIwCwYD
VR0PBAQDAgeAMA0GCSqGSIb3DQEBCwUAA4IBAQCKHYpplUZtYgbr9C0MUhjeZg9M
CxaOD5SpLNo/7VvMWUb6JrC5WAXRfNCTld5+7cQqxC5PnlWdD/w7N4kqdnCSOq8k
/fsQGJ3Awyw5fZ3KQSxj/hZgiozZRGCQzEx7SnATG7JeeXhj0AT8tT4TVcEMHHop
2geoG1VL3ea2WTWsC3kRcGPKRZKKR+S4gFqGdfDZmSV696NpmO7xib+eYhYXezNU
vtZlJx6afAmbBk3o5v5AUE4/yVgtt/ldE0BKNBFC8mWN4sTxmQ5WtyBScbHH200O
3AI9rkdi16mDHTasHm/hGe0GNASUPcfX9kw52K73aG5ae7cQ6tOT7ReW4t0n
-----END CERTIFICATE-----
