Certificate:
    Data:
        Version: 3 (0x2)
        Serial Number:
            7b:3f:eb:4f:98:5d:32:13:af:e3:2c:81:6f:bc:de:c5
        Signature Algorithm: sha256WithRSAEncryption
        Issuer: CN=team488-net
        Validity
            Not Before: Nov  4 11:38:39 2023 GMT
            Not After : Oct 19 11:38:39 2026 GMT
        Subject: CN=team488-client
        Subject Public Key Info:
            Public Key Algorithm: rsaEncryption
                Public-Key: (2048 bit)
                Modulus:
                    00:c1:b4:7d:23:8f:d7:e5:86:bc:4c:76:62:1a:59:
                    aa:08:2e:f7:a3:47:dd:e5:b8:7f:eb:89:c3:c1:9b:
                    af:c6:ca:1d:7e:09:a6:94:4e:e7:79:ec:2a:ac:63:
                    e0:7c:21:69:c4:5b:52:29:f3:82:67:36:8c:fd:e5:
                    23:73:e0:6b:08:d1:fb:a8:f2:61:67:3d:c9:af:01:
                    f5:1b:c4:76:08:57:e9:1e:24:a6:36:a2:7e:34:e6:
                    e5:be:9b:b2:c8:d3:58:56:5f:63:1b:b9:62:d7:70:
                    a9:9f:f6:05:e4:d8:ec:15:8f:4c:fc:79:1c:18:55:
                    f5:0e:a1:da:e7:31:8d:03:0f:46:30:88:71:8a:c2:
                    ef:04:78:d4:36:84:94:a0:56:70:b6:f6:81:b2:8f:
                    07:47:b5:41:7b:10:69:a5:e2:2f:d5:e7:f9:bc:3b:
                    06:b3:10:9d:97:63:43:9f:95:05:0b:28:c0:7b:5c:
                    f8:5d:c1:0c:89:35:a2:08:f2:dc:e1:f6:46:5c:b9:
                    79:5b:6c:a6:d0:f8:e5:ac:09:7c:bf:4d:48:cf:fa:
                    3e:15:44:2c:f8:7d:dc:a0:5f:00:b3:54:6f:0b:48:
                    a4:77:a3:08:72:5a:bf:51:f7:46:40:90:d6:d6:68:
                    d6:57:6b:bf:22:89:e7:0e:24:bc:ec:e3:d5:46:30:
                    51:c7
                Exponent: 65537 (0x10001)
        X509v3 extensions:
            X509v3 Basic Constraints: 
                CA:FALSE
            X509v3 Subject Key Identifier: 
                2E:90:56:D0:D8:5F:89:47:A6:06:32:30:90:FD:20:30:8D:00:9C:6E
            X509v3 Authority Key Identifier: 
                keyid:93:65:0C:9D:34:F8:98:26:EA:AB:78:3F:49:99:32:6D:29:C3:EA:DC
                DirName:/CN=team488-net
                serial:0D:23:F7:49:F4:57:84:E5:50:CA:DB:0F:8F:C0:8C:AD:B1:3E:FE:5B
            X509v3 Extended Key Usage: 
                TLS Web Client Authentication
            X509v3 Key Usage: 
                Digital Signature
    Signature Algorithm: sha256WithRSAEncryption
    Signature Value:
        b9:fa:49:49:22:d4:cd:0d:f6:f4:ed:10:69:85:25:55:7d:40:
        c7:d1:b2:67:64:ec:dc:82:9d:4f:0d:44:e6:b9:3c:15:19:a2:
        98:33:bc:a4:87:f3:d9:6e:eb:3f:1e:69:5e:1c:8f:75:00:a4:
        32:7a:50:de:17:c2:ae:f9:9b:62:a2:e1:b6:c4:97:56:d6:f4:
        aa:f2:ac:7e:06:e3:1f:5d:8a:76:2a:8a:b6:4e:80:da:26:4a:
        00:3d:50:e4:f2:77:23:b7:10:79:5c:cb:e3:29:be:ee:44:8b:
        e8:47:5f:73:0a:da:47:ce:a5:a9:4d:f0:e2:37:65:0c:aa:25:
        41:1d:16:17:ac:56:52:17:35:da:4a:ed:39:ba:f6:43:39:71:
        0a:5d:f6:b1:d9:28:ac:d7:b6:73:f2:29:3b:d9:83:30:58:03:
        81:fa:62:b8:79:19:cf:2b:20:1c:24:bd:6e:7f:01:08:5b:a9:
        74:10:17:1e:0f:84:f4:65:57:fd:8d:f2:9e:c0:73:c4:6b:1f:
        5d:5f:5c:6c:2f:b6:81:f6:1c:4e:ea:e1:c0:49:93:a9:d0:83:
        b9:92:63:8a:c6:c8:23:8a:8d:eb:56:95:9b:6b:fe:18:52:70:
        24:20:05:79:7d:44:5a:23:7b:70:37:ba:44:94:d2:f6:d2:71:
        0a:e3:eb:7b
-----BEGIN CERTIFICATE-----
MIIDXDCCAkSgAwIBAgIQez/rT5hdMhOv4yyBb7zexTANBgkqhkiG9w0BAQsFADAW
MRQwEgYDVQQDDAt0ZWFtNDg4LW5ldDAeFw0yMzExMDQxMTM4MzlaFw0yNjEwMTkx
MTM4MzlaMBkxFzAVBgNVBAMMDnRlYW00ODgtY2xpZW50MIIBIjANBgkqhkiG9w0B
AQEFAAOCAQ8AMIIBCgKCAQEAwbR9I4/X5Ya8THZiGlmqCC73o0fd5bh/64nDwZuv
xsodfgmmlE7neewqrGPgfCFpxFtSKfOCZzaM/eUjc+BrCNH7qPJhZz3JrwH1G8R2
CFfpHiSmNqJ+NOblvpuyyNNYVl9jG7li13Cpn/YF5NjsFY9M/HkcGFX1DqHa5zGN
Aw9GMIhxisLvBHjUNoSUoFZwtvaBso8HR7VBexBppeIv1ef5vDsGsxCdl2NDn5UF
CyjAe1z4XcEMiTWiCPLc4fZGXLl5W2ym0PjlrAl8v01Iz/o+FUQs+H3coF8As1Rv
C0ikd6MIclq/UfdGQJDW1mjWV2u/IonnDiS87OPVRjBRxwIDAQABo4GiMIGfMAkG
A1UdEwQCMAAwHQYDVR0OBBYEFC6QVtDYX4lHpgYyMJD9IDCNAJxuMFEGA1UdIwRK
MEiAFJNlDJ00+Jgm6qt4P0mZMm0pw+rcoRqkGDAWMRQwEgYDVQQDDAt0ZWFtNDg4
LW5ldIIUDSP3SfRXhOVQytsPj8CMrbE+/lswEwYDVR0lBAwwCgYIKwYBBQUHAwIw
CwYDVR0PBAQDAgeAMA0GCSqGSIb3DQEBCwUAA4IBAQC5+klJItTNDfb07RBphSVV
fUDH0bJnZOzcgp1PDUTmuTwVGaKYM7ykh/PZbus/HmleHI91AKQyelDeF8Ku+Zti
ouG2xJdW1vSq8qx+BuMfXYp2Koq2ToDaJkoAPVDk8ncjtxB5XMvjKb7uRIvoR19z
CtpHzqWpTfDiN2UMqiVBHRYXrFZSFzXaSu05uvZDOXEKXfax2Sis17Zz8ik72YMw
WAOB+mK4eRnPKyAcJL1ufwEIW6l0EBceD4T0ZVf9jfKewHPEax9dX1xsL7aB9hxO
6uHASZOp0IO5kmOKxsgjio3rVpWba/4YUnAkIAV5fURaI3twN7pElNL20nEK4+t7
-----END CERTIFICATE-----
