Certificate:
    Data:
        Version: 3 (0x2)
        Serial Number:
            fd:3a:05:72:0d:d2:8e:db:ed:13:9f:d7:8d:21:89:b8
        Signature Algorithm: sha256WithRSAEncryption
        Issuer: CN=team488-net
        Validity
            Not Before: Nov  4 10:49:14 2023 GMT
            Not After : Oct 19 10:49:14 2026 GMT
        Subject: CN=team488-client
        Subject Public Key Info:
            Public Key Algorithm: rsaEncryption
                Public-Key: (2048 bit)
                Modulus:
                    00:a4:ef:19:c1:bb:fc:4f:60:62:ac:2c:0e:3d:05:
                    d8:96:f6:55:f2:f2:f8:a6:cb:54:39:2d:b9:d5:df:
                    fd:f6:da:31:30:22:82:54:e9:3f:d5:62:4a:a2:cd:
                    f7:b1:ce:20:65:5a:4e:1f:ab:71:7d:92:bf:97:67:
                    d2:a8:13:c4:75:9c:49:59:9b:1d:96:30:a2:ec:e2:
                    3a:e3:c9:40:b6:c5:b9:66:13:96:30:fb:3e:24:fe:
                    10:76:87:0d:61:8a:69:97:94:fd:fa:c0:cb:f3:8a:
                    b9:f7:fd:a5:19:2d:46:63:1f:11:e5:dc:79:d5:5f:
                    6c:9f:c7:ec:c1:ce:c4:90:d6:70:b3:7a:08:44:b5:
                    f2:4f:35:17:44:d6:e7:58:76:43:0f:5e:bb:f6:b4:
                    6d:85:9a:c9:81:c7:e8:5c:70:15:18:72:f7:6d:48:
                    94:6f:3a:a5:fa:12:1d:c3:f0:b5:ec:43:3f:04:41:
                    27:cb:e1:ec:60:4d:0e:b4:55:57:fd:38:e8:97:f0:
                    da:81:64:53:70:9b:9e:74:ac:da:ca:4d:fd:c1:e2:
                    25:d1:fd:dc:1f:f9:2e:ce:e3:e6:6a:17:03:ad:b4:
                    4b:26:98:72:a0:9e:81:71:7d:d0:c1:1d:e7:c7:6f:
                    0e:d0:02:9d:3a:9d:a2:22:9d:a6:54:6e:62:01:8e:
                    a9:59
                Exponent: 65537 (0x10001)
        X509v3 extensions:
            X509v3 Basic Constraints: 
                CA:FALSE
            X509v3 Subject Key Identifier: 
                7E:23:30:8E:80:47:4C:70:CF:CF:CA:24:DE:D3:6E:A3:BE:E1:6B:58
            X509v3 Authority Key Identifier: 
                keyid:21:45:B2:63:9F:55:CE:8D:6C:8D:82:EC:02:1A:71:47:82:C0:FB:B7
                DirName:/CN=team488-net
                serial:6F:A4:CD:F8:7F:52:43:FA:6C:3D:66:92:CD:87:BC:E5:3F:80:F9:72
            X509v3 Extended Key Usage: 
                TLS Web Client Authentication
            X509v3 Key Usage: 
                Digital Signature
    Signature Algorithm: sha256WithRSAEncryption
    Signature Value:
        16:67:59:83:06:06:38:cf:42:2a:ee:00:a8:fd:12:a8:e0:3f:
        5b:d8:f0:9a:ef:97:70:ff:e1:c0:25:6c:6f:fe:04:23:5d:86:
        56:c5:66:3e:6e:c4:35:ee:4e:50:d0:95:a0:fa:b1:69:ba:7a:
        0d:33:f0:e4:2d:6d:1c:6b:ec:22:e9:6f:39:e7:d7:bd:64:f2:
        76:e1:1c:f0:44:69:0e:8c:f8:fd:49:a9:e2:cd:58:ab:9f:44:
        c2:da:6c:e5:34:40:f3:36:c2:64:13:99:d4:76:b4:6a:6f:db:
        a7:4a:6d:ae:5b:27:87:da:b8:6a:c0:48:e6:ec:93:7a:67:19:
        46:23:c5:60:1d:d7:b2:8f:d9:68:4d:94:4d:cf:ef:13:4c:25:
        9d:68:29:69:94:81:cf:b5:fd:85:11:ef:48:76:11:a2:df:49:
        ff:d7:6b:58:e7:e1:a5:3d:ab:9c:1c:25:cb:a1:cb:cd:3f:b1:
        68:44:f8:8e:b1:46:be:95:e5:86:62:db:ef:11:ab:86:69:80:
        b0:09:cc:b3:e1:66:99:c1:9b:f2:56:c4:52:c9:e7:10:40:ee:
        b5:e2:73:73:72:5c:d9:74:94:c6:24:73:b6:91:64:e9:1d:e3:
        fe:fd:ab:f6:dc:3d:8a:0c:97:71:22:f6:9a:b8:35:61:ec:c2:
        3c:a6:f8:2b
-----BEGIN CERTIFICATE-----
MIIDXTCCAkWgAwIBAgIRAP06BXIN0o7b7ROf140hibgwDQYJKoZIhvcNAQELBQAw
FjEUMBIGA1UEAwwLdGVhbTQ4OC1uZXQwHhcNMjMxMTA0MTA0OTE0WhcNMjYxMDE5
MTA0OTE0WjAZMRcwFQYDVQQDDA50ZWFtNDg4LWNsaWVudDCCASIwDQYJKoZIhvcN
AQEBBQADggEPADCCAQoCggEBAKTvGcG7/E9gYqwsDj0F2Jb2VfLy+KbLVDktudXf
/fbaMTAiglTpP9ViSqLN97HOIGVaTh+rcX2Sv5dn0qgTxHWcSVmbHZYwouziOuPJ
QLbFuWYTljD7PiT+EHaHDWGKaZeU/frAy/OKuff9pRktRmMfEeXcedVfbJ/H7MHO
xJDWcLN6CES18k81F0TW51h2Qw9eu/a0bYWayYHH6FxwFRhy921IlG86pfoSHcPw
texDPwRBJ8vh7GBNDrRVV/046Jfw2oFkU3CbnnSs2spN/cHiJdH93B/5Ls7j5moX
A620SyaYcqCegXF90MEd58dvDtACnTqdoiKdplRuYgGOqVkCAwEAAaOBojCBnzAJ
BgNVHRMEAjAAMB0GA1UdDgQWBBR+IzCOgEdMcM/PyiTe026jvuFrWDBRBgNVHSME
SjBIgBQhRbJjn1XOjWyNguwCGnFHgsD7t6EapBgwFjEUMBIGA1UEAwwLdGVhbTQ4
OC1uZXSCFG+kzfh/UkP6bD1mks2HvOU/gPlyMBMGA1UdJQQMMAoGCCsGAQUFBwMC
MAsGA1UdDwQEAwIHgDANBgkqhkiG9w0BAQsFAAOCAQEAFmdZgwYGOM9CKu4AqP0S
qOA/W9jwmu+XcP/hwCVsb/4EI12GVsVmPm7ENe5OUNCVoPqxabp6DTPw5C1tHGvs
IulvOefXvWTyduEc8ERpDoz4/Ump4s1Yq59Ewtps5TRA8zbCZBOZ1Ha0am/bp0pt
rlsnh9q4asBI5uyTemcZRiPFYB3Xso/ZaE2UTc/vE0wlnWgpaZSBz7X9hRHvSHYR
ot9J/9drWOfhpT2rnBwly6HLzT+xaET4jrFGvpXlhmLb7xGrhmmAsAnMs+FmmcGb
8lbEUsnnEEDuteJzc3Jc2XSUxiRztpFk6R3j/v2r9tw9igyXcSL2mrg1YezCPKb4
Kw==
-----END CERTIFICATE-----
