Certificate:
    Data:
        Version: 3 (0x2)
        Serial Number:
            3c:1f:fa:bb:80:9f:8d:0f:7e:f8:02:a3:fd:46:cb:36
        Signature Algorithm: sha256WithRSAEncryption
        Issuer: CN=team224-net
        Validity
            Not Before: Nov  4 10:44:50 2023 GMT
            Not After : Oct 19 10:44:50 2026 GMT
        Subject: CN=team224-client
        Subject Public Key Info:
            Public Key Algorithm: rsaEncryption
                Public-Key: (2048 bit)
                Modulus:
                    00:b3:c0:15:10:ed:40:44:1c:18:1c:c3:03:36:54:
                    9a:f3:ee:72:a1:97:a4:07:12:4b:b7:e8:ae:81:83:
                    51:c9:bf:1d:42:f1:70:6d:94:1a:2d:c0:46:84:10:
                    0d:17:5c:12:0c:bb:01:8b:93:82:5f:18:0f:be:fb:
                    d1:24:4d:a4:10:d0:d5:b0:b1:1e:81:7d:f9:35:31:
                    00:e1:38:28:43:cd:ba:d8:59:57:9a:f4:27:3b:07:
                    87:cf:a8:6f:1a:6b:ca:1d:36:de:c8:d9:74:db:b4:
                    c0:e0:8d:c7:0b:b8:b2:6f:b5:1e:82:fa:32:a7:4c:
                    95:40:12:a7:92:2c:72:d0:df:ef:dc:ed:39:61:a0:
                    da:d8:75:44:fc:41:41:6d:00:99:d6:90:d1:90:f1:
                    dd:e6:2b:80:5c:45:8d:10:85:ab:9c:4b:70:11:b2:
                    ef:16:93:3f:9e:29:3c:1c:5e:a9:ee:7c:45:48:3d:
                    32:bf:d2:86:db:57:90:9c:90:54:08:b7:3d:c3:27:
                    26:06:1c:a0:88:e6:e1:94:6b:30:a7:d3:6b:21:e1:
                    21:4b:b2:66:ef:d3:73:52:6e:f2:d6:a1:29:66:cc:
                    fe:23:36:52:bb:af:87:01:a8:95:15:64:01:85:01:
                    e0:b6:f5:91:ce:81:bd:6e:13:cd:97:22:5a:f9:e3:
                    9b:e9
                Exponent: 65537 (0x10001)
        X509v3 extensions:
            X509v3 Basic Constraints: 
                CA:FALSE
            X509v3 Subject Key Identifier: 
                B0:13:64:03:84:40:84:20:65:0C:BE:41:40:77:28:E7:B1:F4:2A:C2
            X509v3 Authority Key Identifier: 
                keyid:0F:03:AA:4B:D7:AC:A2:5D:01:B6:05:6B:8B:57:3E:17:31:18:37:25
                DirName:/CN=team224-net
                serial:7F:BD:36:D0:8F:0E:3C:AC:5D:FC:3F:1D:AF:8D:24:98:70:D4:46:04
            X509v3 Extended Key Usage: 
                TLS Web Client Authentication
            X509v3 Key Usage: 
                Digital Signature
    Signature Algorithm: sha256WithRSAEncryption
    Signature Value:
        57:a1:c1:53:0b:92:52:59:3f:7c:9d:56:6f:6f:49:60:9f:7c:
        46:07:8e:d0:c8:b5:20:55:6a:32:f7:fc:ec:b9:f6:83:8b:94:
        15:ed:a8:fa:1c:41:5c:3c:93:65:31:c9:02:a0:37:74:45:73:
        b7:45:db:7e:4c:22:fe:11:d9:f3:fe:5d:43:0d:7a:e1:a8:b9:
        e0:58:df:90:5a:d8:a2:fa:db:7f:69:2e:1b:6f:0b:39:c9:45:
        13:de:75:cf:8e:d7:1c:b5:55:89:2a:b3:a0:48:30:15:cd:fd:
        2c:86:39:44:64:43:05:76:ef:86:ff:92:02:fc:4a:40:e5:e6:
        3b:7a:bd:cc:e2:ce:8c:55:6e:fa:67:53:b2:1e:72:c5:25:a1:
        42:7c:41:47:18:51:ad:7b:f7:2c:d6:7e:00:18:9c:56:9d:08:
        9d:a2:23:11:ff:ff:6f:95:6b:72:3c:df:9c:a6:cf:d3:51:aa:
        90:d2:15:12:a1:cb:28:1f:62:18:bc:d6:da:6f:2e:7e:d1:41:
        bf:79:3d:e5:5e:af:2d:33:e4:be:09:dc:df:97:a6:6e:1e:7d:
        83:c0:9e:55:ab:7b:c5:b1:f4:39:9d:2e:51:61:41:a1:83:3b:
        ee:57:ae:23:f0:0d:c7:90:2f:ea:cf:b1:56:cc:a3:c0:75:f2:
        9a:91:54:2f
-----BEGIN CERTIFICATE-----
MIIDXDCCAkSgAwIBAgIQPB/6u4CfjQ9++AKj/UbLNjANBgkqhkiG9w0BAQsFADAW
MRQwEgYDVQQDDAt0ZWFtMjI0LW5ldDAeFw0yMzExMDQxMDQ0NTBaFw0yNjEwMTkx
MDQ0NTBaMBkxFzAVBgNVBAMMDnRlYW0yMjQtY2xpZW50MIIBIjANBgkqhkiG9w0B
AQEFAAOCAQ8AMIIBCgKCAQEAs8AVEO1ARBwYHMMDNlSa8+5yoZekBxJLt+iugYNR
yb8dQvFwbZQaLcBGhBANF1wSDLsBi5OCXxgPvvvRJE2kENDVsLEegX35NTEA4Tgo
Q8262FlXmvQnOweHz6hvGmvKHTbeyNl027TA4I3HC7iyb7Uegvoyp0yVQBKnkixy
0N/v3O05YaDa2HVE/EFBbQCZ1pDRkPHd5iuAXEWNEIWrnEtwEbLvFpM/nik8HF6p
7nxFSD0yv9KG21eQnJBUCLc9wycmBhygiObhlGswp9NrIeEhS7Jm79NzUm7y1qEp
Zsz+IzZSu6+HAaiVFWQBhQHgtvWRzoG9bhPNlyJa+eOb6QIDAQABo4GiMIGfMAkG
A1UdEwQCMAAwHQYDVR0OBBYEFLATZAOEQIQgZQy+QUB3KOex9CrCMFEGA1UdIwRK
MEiAFA8DqkvXrKJdAbYFa4tXPhcxGDcloRqkGDAWMRQwEgYDVQQDDAt0ZWFtMjI0
LW5ldIIUf7020I8OPKxd/D8dr40kmHDURgQwEwYDVR0lBAwwCgYIKwYBBQUHAwIw
CwYDVR0PBAQDAgeAMA0GCSqGSIb3DQEBCwUAA4IBAQBXocFTC5JSWT98nVZvb0lg
n3xGB47QyLUgVWoy9/zsufaDi5QV7aj6HEFcPJNlMckCoDd0RXO3Rdt+TCL+Ednz
/l1DDXrhqLngWN+QWtii+tt/aS4bbws5yUUT3nXPjtcctVWJKrOgSDAVzf0shjlE
ZEMFdu+G/5IC/EpA5eY7er3M4s6MVW76Z1OyHnLFJaFCfEFHGFGte/cs1n4AGJxW
nQidoiMR//9vlWtyPN+cps/TUaqQ0hUSocsoH2IYvNbaby5+0UG/eT3lXq8tM+S+
Cdzfl6ZuHn2DwJ5Vq3vFsfQ5nS5RYUGhgzvuV64j8A3HkC/qz7FWzKPAdfKakVQv
-----END CERTIFICATE-----
