Certificate:
    Data:
        Version: 3 (0x2)
        Serial Number:
            42:c7:02:b2:5c:d5:27:54:8a:51:21:5f:88:04:ea:f6
        Signature Algorithm: sha256WithRSAEncryption
        Issuer: CN=team224-net
        Validity
            Not Before: Nov  3 20:43:25 2023 GMT
            Not After : Oct 18 20:43:25 2026 GMT
        Subject: CN=team224-client
        Subject Public Key Info:
            Public Key Algorithm: rsaEncryption
                Public-Key: (2048 bit)
                Modulus:
                    00:d2:43:42:75:d3:1d:77:77:95:2c:68:02:ea:89:
                    e2:88:65:5a:e7:8c:9f:75:36:88:2d:ff:5f:ac:43:
                    bc:c1:49:25:1a:1a:ae:a8:99:50:49:c9:3e:e5:bb:
                    3e:7b:91:bb:1b:d8:7c:62:39:77:6d:63:11:08:8a:
                    1a:bb:0e:2c:40:00:09:5a:f7:51:d3:11:a9:b5:b3:
                    80:75:a8:4f:4a:65:37:0d:68:46:78:07:dd:90:cc:
                    72:f5:85:7f:7e:6d:f2:16:d1:4b:7a:dc:4b:27:64:
                    58:02:c4:cb:1e:86:c0:3a:52:fe:f0:6b:01:4b:e0:
                    c7:be:ca:f3:19:5a:ae:97:1c:db:8a:37:6b:57:03:
                    57:97:e5:c0:d7:9e:64:5c:a3:45:72:b0:c2:b9:26:
                    48:45:fb:e4:6c:99:78:33:77:a5:95:c9:97:03:13:
                    8c:de:6d:31:5b:c4:4b:9f:fe:d1:52:79:65:38:16:
                    89:7b:ef:1c:d4:c9:8d:b0:d8:ce:d4:04:95:df:b4:
                    9d:d8:2f:b1:e6:f7:57:24:ee:63:ac:91:6b:b0:f0:
                    b7:76:5e:c6:44:e1:d4:13:13:c2:47:e2:d4:25:64:
                    cd:6e:03:e1:60:31:a5:3d:8e:b2:9f:12:67:43:12:
                    15:e7:27:0d:91:be:2f:3b:51:a2:91:4b:88:27:ca:
                    4c:67
                Exponent: 65537 (0x10001)
        X509v3 extensions:
            X509v3 Basic Constraints: 
                CA:FALSE
            X509v3 Subject Key Identifier: 
                20:91:01:5F:BA:86:90:76:91:BA:25:5A:5E:2B:F4:A3:84:97:FE:84
            X509v3 Authority Key Identifier: 
                keyid:76:06:C2:CA:17:20:0B:59:18:2E:78:9F:DC:49:B6:9F:4D:09:6A:C6
                DirName:/CN=team224-net
                serial:14:88:26:1E:F6:F2:CA:B3:10:04:BB:14:96:57:D0:51:95:8F:D1:4D
            X509v3 Extended Key Usage: 
                TLS Web Client Authentication
            X509v3 Key Usage: 
                Digital Signature
    Signature Algorithm: sha256WithRSAEncryption
    Signature Value:
        65:5e:ae:55:1b:e1:34:6b:7a:b8:de:c6:fb:b1:9d:ea:63:b9:
        88:d6:f9:36:76:55:34:83:f7:2a:a5:a1:dd:e5:a6:6f:86:a6:
        45:d9:d6:38:18:d2:19:c4:f4:3c:b9:3f:ec:c0:85:ea:14:2a:
        ca:f1:d5:63:18:00:bf:4d:59:12:35:04:6b:95:f7:4c:49:4e:
        45:79:b0:21:04:27:65:ca:d2:19:82:0d:bd:55:02:c7:2a:54:
        ab:ea:5a:8e:14:65:ef:68:61:f5:f6:32:e3:3c:e1:2d:86:94:
        75:38:05:ff:fb:7c:00:56:6e:8b:9f:01:ed:9f:66:4f:c0:c5:
        62:6c:92:e7:23:d6:df:ad:7d:86:6c:c3:10:76:74:71:c8:4b:
        78:12:33:82:a3:c9:d1:5f:41:bf:23:d1:32:18:2c:08:0c:de:
        c4:7f:63:ed:ee:2e:9c:9f:ef:78:3a:38:db:68:5d:c6:03:03:
        f2:5e:87:58:34:7c:35:8a:c7:cd:7d:26:17:be:12:28:75:c0:
        64:39:89:38:1a:4f:c6:dd:26:be:a2:e2:a5:00:30:a7:64:b9:
        22:4e:ed:8d:e9:f6:61:c1:fe:0a:10:62:9a:8e:48:dc:ce:aa:
        18:df:9c:bf:4d:b4:15:07:3d:76:4b:d2:db:d5:ae:68:f1:18:
        f7:74:44:e7
-----BEGIN CERTIFICATE-----
MIIDXDCCAkSgAwIBAgIQQscCslzVJ1SKUSFfiATq9jANBgkqhkiG9w0BAQsFADAW
MRQwEgYDVQQDDAt0ZWFtMjI0LW5ldDAeFw0yMzExMDMyMDQzMjVaFw0yNjEwMTgy
MDQzMjVaMBkxFzAVBgNVBAMMDnRlYW0yMjQtY2xpZW50MIIBIjANBgkqhkiG9w0B
AQEFAAOCAQ8AMIIBCgKCAQEA0kNCddMdd3eVLGgC6oniiGVa54yfdTaILf9frEO8
wUklGhquqJlQSck+5bs+e5G7G9h8Yjl3bWMRCIoauw4sQAAJWvdR0xGptbOAdahP
SmU3DWhGeAfdkMxy9YV/fm3yFtFLetxLJ2RYAsTLHobAOlL+8GsBS+DHvsrzGVqu
lxzbijdrVwNXl+XA155kXKNFcrDCuSZIRfvkbJl4M3ellcmXAxOM3m0xW8RLn/7R
UnllOBaJe+8c1MmNsNjO1ASV37Sd2C+x5vdXJO5jrJFrsPC3dl7GROHUExPCR+LU
JWTNbgPhYDGlPY6ynxJnQxIV5ycNkb4vO1GikUuIJ8pMZwIDAQABo4GiMIGfMAkG
A1UdEwQCMAAwHQYDVR0OBBYEFCCRAV+6hpB2kbolWl4r9KOEl/6EMFEGA1UdIwRK
MEiAFHYGwsoXIAtZGC54n9xJtp9NCWrGoRqkGDAWMRQwEgYDVQQDDAt0ZWFtMjI0
LW5ldIIUFIgmHvbyyrMQBLsUllfQUZWP0U0wEwYDVR0lBAwwCgYIKwYBBQUHAwIw
CwYDVR0PBAQDAgeAMA0GCSqGSIb3DQEBCwUAA4IBAQBlXq5VG+E0a3q43sb7sZ3q
Y7mI1vk2dlU0g/cqpaHd5aZvhqZF2dY4GNIZxPQ8uT/swIXqFCrK8dVjGAC/TVkS
NQRrlfdMSU5FebAhBCdlytIZgg29VQLHKlSr6lqOFGXvaGH19jLjPOEthpR1OAX/
+3wAVm6LnwHtn2ZPwMVibJLnI9bfrX2GbMMQdnRxyEt4EjOCo8nRX0G/I9EyGCwI
DN7Ef2Pt7i6cn+94OjjbaF3GAwPyXodYNHw1isfNfSYXvhIodcBkOYk4Gk/G3Sa+
ouKlADCnZLkiTu2N6fZhwf4KEGKajkjczqoY35y/TbQVBz12S9Lb1a5o8Rj3dETn
-----END CERTIFICATE-----
