Certificate:
    Data:
        Version: 3 (0x2)
        Serial Number:
            2e:75:f9:25:a2:fe:fe:b5:b2:1a:d0:e5:ed:b5:fd:41
        Signature Algorithm: sha256WithRSAEncryption
        Issuer: CN=team106-net
        Validity
            Not Before: Nov  4 11:29:32 2023 GMT
            Not After : Oct 19 11:29:32 2026 GMT
        Subject: CN=team106-client
        Subject Public Key Info:
            Public Key Algorithm: rsaEncryption
                Public-Key: (2048 bit)
                Modulus:
                    00:b4:20:b3:49:a0:0c:06:8f:28:31:65:52:b8:95:
                    7a:8c:85:cb:6e:09:26:45:e2:65:44:35:58:31:9c:
                    70:28:21:18:fe:46:e8:31:fb:97:aa:c3:a1:b0:dc:
                    c3:00:15:9f:46:48:90:39:6e:18:23:aa:5c:cf:4c:
                    49:ef:19:4a:b7:53:98:12:53:32:12:15:4a:e1:00:
                    09:c6:df:c7:29:da:1d:65:60:ec:78:ad:df:63:cb:
                    f5:27:37:ac:37:ec:44:d4:46:f7:90:8c:29:68:04:
                    f1:3f:bc:d8:29:fc:78:58:cb:5d:8d:c4:84:67:77:
                    85:81:5f:2d:2b:df:f3:2c:1e:95:bd:13:bc:38:44:
                    8f:d1:ff:a8:c9:c2:e4:39:c7:fc:19:42:72:5c:80:
                    ba:c1:67:fa:12:08:85:2a:9a:2e:44:3b:2f:fa:22:
                    f6:cb:91:c4:88:53:0a:c7:0e:25:b9:1b:4e:f3:30:
                    a7:b4:5d:bb:17:98:8c:04:ed:da:7d:da:0b:5f:73:
                    d1:8f:e1:91:55:f9:a5:9a:88:ad:fb:e4:b4:ee:a9:
                    40:69:56:2d:f5:27:fe:6a:39:ee:79:13:b7:d2:a4:
                    53:82:8b:2f:67:4c:45:58:d2:db:3c:d9:f1:19:42:
                    4e:be:b7:2d:56:87:57:4a:ad:82:df:bb:1f:82:1a:
                    06:8d
                Exponent: 65537 (0x10001)
        X509v3 extensions:
            X509v3 Basic Constraints: 
                CA:FALSE
            X509v3 Subject Key Identifier: 
                26:D6:38:94:05:02:41:8A:58:A2:EA:94:83:EF:3B:21:AA:FE:41:D8
            X509v3 Authority Key Identifier: 
                keyid:1B:B1:58:60:CB:98:8A:8F:F9:62:BA:58:09:53:DB:9A:8E:66:84:96
                DirName:/CN=team106-net
                serial:42:C1:26:86:92:C7:D1:5F:3D:95:DE:7A:25:A8:59:9F:D9:83:46:97
            X509v3 Extended Key Usage: 
                TLS Web Client Authentication
            X509v3 Key Usage: 
                Digital Signature
    Signature Algorithm: sha256WithRSAEncryption
    Signature Value:
        6d:a5:41:59:90:d5:59:19:6b:28:e7:7a:8e:f3:e4:f6:7f:a4:
        7f:38:31:07:3d:be:ea:3a:6a:69:45:a2:54:91:51:67:7a:13:
        9f:38:16:9a:56:ba:dc:f7:f0:7c:62:96:47:77:90:b1:ad:46:
        fe:1e:6f:0a:02:29:7e:74:58:54:e1:4b:5c:83:f8:d8:3c:52:
        d9:0a:90:b5:97:5c:bf:58:b0:7d:cb:98:85:a9:7a:36:44:0a:
        df:81:8e:7a:3a:46:d8:b7:2d:5a:cc:f9:41:8f:0e:21:05:7b:
        bb:4e:b3:4c:67:9f:b4:b9:b0:b2:a0:c3:dd:99:bd:98:57:11:
        4b:47:e8:bb:a6:41:d7:ac:cd:5f:21:fe:14:77:25:f8:1e:6a:
        e7:16:31:ac:41:85:70:d4:cc:3c:ea:f0:9d:a3:bb:36:20:cf:
        2d:3c:3f:c3:43:c0:0c:71:2c:a6:f2:46:17:b9:a8:8d:87:9f:
        a1:e9:47:ff:53:90:54:fe:df:66:59:85:15:d3:06:85:dd:20:
        f8:b5:12:4a:e7:cd:c6:9d:3d:4a:30:16:a1:7d:51:2c:03:b0:
        a6:84:96:b8:d7:92:76:cb:64:94:f0:a5:1d:11:3a:98:cd:95:
        a6:83:de:2b:5e:fc:d6:da:f3:35:25:63:2c:6a:c7:33:fd:95:
        dd:c4:55:31
-----BEGIN CERTIFICATE-----
MIIDXDCCAkSgAwIBAgIQLnX5JaL+/rWyGtDl7bX9QTANBgkqhkiG9w0BAQsFADAW
MRQwEgYDVQQDDAt0ZWFtMTA2LW5ldDAeFw0yMzExMDQxMTI5MzJaFw0yNjEwMTkx
MTI5MzJaMBkxFzAVBgNVBAMMDnRlYW0xMDYtY2xpZW50MIIBIjANBgkqhkiG9w0B
AQEFAAOCAQ8AMIIBCgKCAQEAtCCzSaAMBo8oMWVSuJV6jIXLbgkmReJlRDVYMZxw
KCEY/kboMfuXqsOhsNzDABWfRkiQOW4YI6pcz0xJ7xlKt1OYElMyEhVK4QAJxt/H
KdodZWDseK3fY8v1JzesN+xE1Eb3kIwpaATxP7zYKfx4WMtdjcSEZ3eFgV8tK9/z
LB6VvRO8OESP0f+oycLkOcf8GUJyXIC6wWf6EgiFKpouRDsv+iL2y5HEiFMKxw4l
uRtO8zCntF27F5iMBO3afdoLX3PRj+GRVfmlmoit++S07qlAaVYt9Sf+ajnueRO3
0qRTgosvZ0xFWNLbPNnxGUJOvrctVodXSq2C37sfghoGjQIDAQABo4GiMIGfMAkG
A1UdEwQCMAAwHQYDVR0OBBYEFCbWOJQFAkGKWKLqlIPvOyGq/kHYMFEGA1UdIwRK
MEiAFBuxWGDLmIqP+WK6WAlT25qOZoSWoRqkGDAWMRQwEgYDVQQDDAt0ZWFtMTA2
LW5ldIIUQsEmhpLH0V89ld56JahZn9mDRpcwEwYDVR0lBAwwCgYIKwYBBQUHAwIw
CwYDVR0PBAQDAgeAMA0GCSqGSIb3DQEBCwUAA4IBAQBtpUFZkNVZGWso53qO8+T2
f6R/ODEHPb7qOmppRaJUkVFnehOfOBaaVrrc9/B8YpZHd5CxrUb+Hm8KAil+dFhU
4Utcg/jYPFLZCpC1l1y/WLB9y5iFqXo2RArfgY56OkbYty1azPlBjw4hBXu7TrNM
Z5+0ubCyoMPdmb2YVxFLR+i7pkHXrM1fIf4UdyX4HmrnFjGsQYVw1Mw86vCdo7s2
IM8tPD/DQ8AMcSym8kYXuaiNh5+h6Uf/U5BU/t9mWYUV0waF3SD4tRJK583GnT1K
MBahfVEsA7CmhJa415J2y2SU8KUdETqYzZWmg94rXvzW2vM1JWMsascz/ZXdxFUx
-----END CERTIFICATE-----
