Certificate:
    Data:
        Version: 3 (0x2)
        Serial Number:
            24:77:00:bc:0f:fd:68:6e:6a:b0:85:39:70:df:ea:1c
        Signature Algorithm: sha256WithRSAEncryption
        Issuer: CN=team357-net
        Validity
            Not Before: Nov  4 10:47:07 2023 GMT
            Not After : Oct 19 10:47:07 2026 GMT
        Subject: CN=team357-client
        Subject Public Key Info:
            Public Key Algorithm: rsaEncryption
                Public-Key: (2048 bit)
                Modulus:
                    00:e9:bc:dc:7d:72:fc:b3:da:30:71:12:80:e6:f9:
                    f7:7c:97:a7:08:e8:61:61:09:6e:12:6c:f6:ee:e2:
                    c4:af:78:40:61:ca:0f:b2:bd:04:d4:c4:26:c0:e4:
                    19:c6:36:e0:75:db:40:8e:38:89:22:68:7f:62:43:
                    05:d6:50:1d:a9:ec:3f:ab:cc:78:fd:35:97:ac:c9:
                    a1:f9:ef:2a:93:09:40:f4:94:05:af:be:89:58:a0:
                    f0:fb:fe:a3:e0:eb:c5:ed:71:73:98:e6:34:63:a2:
                    06:32:b5:1c:85:b9:11:8a:e3:4e:34:53:a7:bf:a0:
                    4c:d2:40:18:79:fa:43:f7:d4:21:f4:f6:fc:06:b5:
                    14:4f:90:46:17:f5:45:f5:06:8a:49:78:ef:f8:ee:
                    cf:24:dc:07:5c:4a:4a:de:34:46:30:ab:b2:8c:f7:
                    57:00:1e:e9:b9:d3:b1:12:48:31:9f:b4:15:16:d6:
                    a7:7a:9e:85:61:34:cd:21:74:4e:c9:9c:f0:a5:43:
                    44:ab:e0:7d:df:bc:74:82:4e:6c:cd:28:3c:48:bc:
                    46:a4:99:ee:d7:c2:b1:a7:32:f3:d6:84:4e:c9:40:
                    19:c0:2d:05:8d:11:4b:a7:bf:74:06:7e:2e:bb:af:
                    3c:23:ee:f8:73:61:4c:20:41:be:11:9b:84:11:27:
                    de:6d
                Exponent: 65537 (0x10001)
        X509v3 extensions:
            X509v3 Basic Constraints: 
                CA:FALSE
            X509v3 Subject Key Identifier: 
                5F:86:28:E6:CF:CB:49:F6:88:EF:E1:B8:06:C4:61:6E:17:F1:D2:06
            X509v3 Authority Key Identifier: 
                keyid:89:E6:45:6D:02:DD:CE:FD:47:83:01:7C:F2:49:17:51:38:9C:33:D0
                DirName:/CN=team357-net
                serial:59:EE:7D:D0:18:20:B9:17:E6:7C:EE:53:81:7A:6A:EC:73:02:BA:ED
            X509v3 Extended Key Usage: 
                TLS Web Client Authentication
            X509v3 Key Usage: 
                Digital Signature
    Signature Algorithm: sha256WithRSAEncryption
    Signature Value:
        5e:30:81:ec:0d:cd:9a:e3:a7:99:c1:b3:be:91:02:80:df:b4:
        4f:66:ee:bc:ee:26:2b:a8:ad:4c:d2:b5:a0:6f:35:b3:18:b4:
        37:a4:77:6e:82:59:0b:d1:f0:15:01:20:2b:54:41:84:fe:12:
        b0:86:84:bb:77:55:f2:43:02:43:8e:25:bf:f4:d8:f7:d6:cd:
        71:b7:82:c0:d7:6d:94:c1:97:b4:6e:70:21:2d:93:ea:4f:b2:
        ce:63:1c:73:74:b3:a7:2a:61:27:3c:1c:d5:7e:8a:65:4b:cc:
        1c:a2:7f:92:76:b4:c8:b1:6f:2c:08:7a:83:90:fb:95:07:7c:
        c3:64:ec:fc:f7:24:7a:26:b9:59:8e:f4:68:71:df:d9:25:b6:
        72:6e:88:33:c9:59:8c:9c:1d:84:d4:0d:a9:08:f5:9b:b1:29:
        53:d5:d1:c3:ea:40:1f:cb:d7:25:74:f8:9a:22:69:f6:46:5e:
        40:cb:60:23:61:f6:a5:df:55:71:41:5e:49:0d:5c:a8:b3:ae:
        fe:14:3d:4b:81:4a:68:2b:b5:0f:5d:7e:cc:1c:dc:a8:56:21:
        a3:ce:e8:12:d8:29:6b:7d:83:f2:22:8a:d1:20:b1:8d:28:63:
        ae:43:7b:3d:1d:94:d2:70:11:e7:d6:93:8a:95:23:17:b9:61:
        02:3c:93:88
-----BEGIN CERTIFICATE-----
MIIDXDCCAkSgAwIBAgIQJHcAvA/9aG5qsIU5cN/qHDANBgkqhkiG9w0BAQsFADAW
MRQwEgYDVQQDDAt0ZWFtMzU3LW5ldDAeFw0yMzExMDQxMDQ3MDdaFw0yNjEwMTkx
MDQ3MDdaMBkxFzAVBgNVBAMMDnRlYW0zNTctY2xpZW50MIIBIjANBgkqhkiG9w0B
AQEFAAOCAQ8AMIIBCgKCAQEA6bzcfXL8s9owcRKA5vn3fJenCOhhYQluEmz27uLE
r3hAYcoPsr0E1MQmwOQZxjbgddtAjjiJImh/YkMF1lAdqew/q8x4/TWXrMmh+e8q
kwlA9JQFr76JWKDw+/6j4OvF7XFzmOY0Y6IGMrUchbkRiuNONFOnv6BM0kAYefpD
99Qh9Pb8BrUUT5BGF/VF9QaKSXjv+O7PJNwHXEpK3jRGMKuyjPdXAB7pudOxEkgx
n7QVFtanep6FYTTNIXROyZzwpUNEq+B937x0gk5szSg8SLxGpJnu18KxpzLz1oRO
yUAZwC0FjRFLp790Bn4uu688I+74c2FMIEG+EZuEESfebQIDAQABo4GiMIGfMAkG
A1UdEwQCMAAwHQYDVR0OBBYEFF+GKObPy0n2iO/huAbEYW4X8dIGMFEGA1UdIwRK
MEiAFInmRW0C3c79R4MBfPJJF1E4nDPQoRqkGDAWMRQwEgYDVQQDDAt0ZWFtMzU3
LW5ldIIUWe590BgguRfmfO5TgXpq7HMCuu0wEwYDVR0lBAwwCgYIKwYBBQUHAwIw
CwYDVR0PBAQDAgeAMA0GCSqGSIb3DQEBCwUAA4IBAQBeMIHsDc2a46eZwbO+kQKA
37RPZu687iYrqK1M0rWgbzWzGLQ3pHduglkL0fAVASArVEGE/hKwhoS7d1XyQwJD
jiW/9Nj31s1xt4LA122UwZe0bnAhLZPqT7LOYxxzdLOnKmEnPBzVfoplS8wcon+S
drTIsW8sCHqDkPuVB3zDZOz89yR6JrlZjvRocd/ZJbZybogzyVmMnB2E1A2pCPWb
sSlT1dHD6kAfy9cldPiaImn2Rl5Ay2AjYfal31VxQV5JDVyos67+FD1LgUpoK7UP
XX7MHNyoViGjzugS2ClrfYPyIorRILGNKGOuQ3s9HZTScBHn1pOKlSMXuWECPJOI
-----END CERTIFICATE-----
