Certificate:
    Data:
        Version: 3 (0x2)
        Serial Number:
            3f:75:7f:ae:68:62:f5:b3:be:b0:14:00:f8:4c:6b:61
        Signature Algorithm: sha256WithRSAEncryption
        Issuer: CN=team357-net
        Validity
            Not Before: Nov  4 11:35:23 2023 GMT
            Not After : Oct 19 11:35:23 2026 GMT
        Subject: CN=team357-server
        Subject Public Key Info:
            Public Key Algorithm: rsaEncryption
                Public-Key: (2048 bit)
                Modulus:
                    00:b9:7d:86:1c:06:cc:3e:0a:68:9c:3a:7e:2c:cf:
                    4c:1d:e6:78:f4:15:17:70:81:50:f1:75:8a:8f:9f:
                    1a:31:8a:49:dc:40:9a:a6:9e:90:1e:2e:0e:1a:67:
                    c6:ea:e4:77:8d:42:b1:b7:96:37:64:2a:4c:53:90:
                    42:c3:65:91:c5:60:af:75:eb:0e:21:ce:cc:14:36:
                    fd:8e:d9:71:39:64:f8:6e:85:03:ed:74:66:e1:2b:
                    1d:86:ae:e3:6d:56:e3:86:a7:fa:0e:51:d8:ff:53:
                    2b:77:b9:44:2d:3f:fd:ed:43:b4:44:1c:7c:94:11:
                    d0:60:2a:32:dd:2b:95:b2:7f:3e:0e:a5:76:09:0f:
                    15:c1:dd:97:9e:43:03:6a:79:c4:a4:fe:e8:02:5f:
                    bd:3c:e1:75:d0:03:0e:c3:62:fd:1c:9e:4d:d0:16:
                    82:da:c6:4b:f6:4c:62:35:96:c4:32:16:64:fd:a8:
                    92:c6:75:b5:b5:79:04:dd:b5:60:bb:95:fb:9a:8b:
                    19:09:23:db:40:80:01:96:14:39:69:83:52:ed:4c:
                    04:71:8f:92:4d:6e:17:7e:97:29:a6:19:19:c8:f6:
                    21:a8:c8:6d:bf:f7:ca:05:0a:18:74:31:9e:ea:f1:
                    5a:7d:2c:89:0e:2f:fc:c8:5a:9f:fa:58:2b:3f:40:
                    66:71
                Exponent: 65537 (0x10001)
        X509v3 extensions:
            X509v3 Basic Constraints: 
                CA:FALSE
            X509v3 Subject Key Identifier: 
                01:14:8F:09:A6:BF:6D:8B:B1:64:03:28:7A:1F:F3:92:F5:1D:FA:13
            X509v3 Authority Key Identifier: 
                keyid:9F:52:0E:55:C9:C3:61:55:BD:73:63:04:79:82:74:3C:11:2F:8B:C3
                DirName:/CN=team357-net
                serial:58:95:CC:0B:25:BD:F2:EA:0A:95:5B:D6:35:B7:D1:58:87:6B:54:1B
            X509v3 Extended Key Usage: 
                TLS Web Server Authentication
            X509v3 Key Usage: 
                Digital Signature, Key Encipherment
            X509v3 Subject Alternative Name: 
                DNS:team357-server
    Signature Algorithm: sha256WithRSAEncryption
    Signature Value:
        2a:b6:0f:06:71:06:f4:39:96:9e:3c:05:6a:6e:62:a7:8b:79:
        82:49:01:f9:22:46:4e:3e:c2:a1:79:fa:bd:2f:a3:f3:38:79:
        e4:e4:04:76:10:46:b8:fc:e9:03:10:00:37:f6:11:57:27:9a:
        19:cb:0e:f9:36:da:7e:fa:dc:d5:91:67:ec:61:f8:10:89:82:
        e3:52:f5:79:ea:87:7b:ec:8d:d9:63:96:dc:b5:6d:3a:27:7c:
        30:05:fd:aa:1c:af:83:38:df:fb:52:55:ed:12:52:b5:f0:5a:
        f7:bf:15:91:8e:02:45:e7:00:a3:0b:d4:ec:6f:8f:91:58:3f:
        e7:7a:e0:fe:d9:27:b2:a2:b7:57:b8:04:9d:70:1e:63:b5:da:
        db:37:fd:72:3b:9b:90:0f:5e:b1:12:6f:9e:7b:15:75:76:5a:
        24:fd:b3:ed:59:53:88:ed:b7:84:5d:e5:e4:a5:9e:6a:60:95:
        b9:c3:4f:b8:75:81:f6:5f:01:80:48:6c:b7:4e:2b:77:f4:4e:
        0e:31:15:1a:e6:98:9c:62:85:8d:d7:98:c5:d2:ab:48:fc:d3:
        f9:74:8f:d5:27:15:a1:69:1e:55:a1:5b:e1:71:73:23:2c:2c:
        00:0f:51:a7:e0:b8:32:72:03:e6:c4:d7:f7:b4:2a:21:5b:f6:
        c4:41:f9:50
-----BEGIN CERTIFICATE-----
MIIDdzCCAl+gAwIBAgIQP3V/rmhi9bO+sBQA+ExrYTANBgkqhkiG9w0BAQsFADAW
MRQwEgYDVQQDDAt0ZWFtMzU3LW5ldDAeFw0yMzExMDQxMTM1MjNaFw0yNjEwMTkx
MTM1MjNaMBkxFzAVBgNVBAMMDnRlYW0zNTctc2VydmVyMIIBIjANBgkqhkiG9w0B
AQEFAAOCAQ8AMIIBCgKCAQEAuX2GHAbMPgponDp+LM9MHeZ49BUXcIFQ8XWKj58a
MYpJ3ECapp6QHi4OGmfG6uR3jUKxt5Y3ZCpMU5BCw2WRxWCvdesOIc7MFDb9jtlx
OWT4boUD7XRm4Ssdhq7jbVbjhqf6DlHY/1Mrd7lELT/97UO0RBx8lBHQYCoy3SuV
sn8+DqV2CQ8Vwd2XnkMDannEpP7oAl+9POF10AMOw2L9HJ5N0BaC2sZL9kxiNZbE
MhZk/aiSxnW1tXkE3bVgu5X7mosZCSPbQIABlhQ5aYNS7UwEcY+STW4XfpcpphkZ
yPYhqMhtv/fKBQoYdDGe6vFafSyJDi/8yFqf+lgrP0BmcQIDAQABo4G9MIG6MAkG
A1UdEwQCMAAwHQYDVR0OBBYEFAEUjwmmv22LsWQDKHof85L1HfoTMFEGA1UdIwRK
MEiAFJ9SDlXJw2FVvXNjBHmCdDwRL4vDoRqkGDAWMRQwEgYDVQQDDAt0ZWFtMzU3
LW5ldIIUWJXMCyW98uoKlVvWNbfRWIdrVBswEwYDVR0lBAwwCgYIKwYBBQUHAwEw
CwYDVR0PBAQDAgWgMBkGA1UdEQQSMBCCDnRlYW0zNTctc2VydmVyMA0GCSqGSIb3
DQEBCwUAA4IBAQAqtg8GcQb0OZaePAVqbmKni3mCSQH5IkZOPsKhefq9L6PzOHnk
5AR2EEa4/OkDEAA39hFXJ5oZyw75Ntp++tzVkWfsYfgQiYLjUvV56od77I3ZY5bc
tW06J3wwBf2qHK+DON/7UlXtElK18Fr3vxWRjgJF5wCjC9Tsb4+RWD/neuD+2Sey
ordXuASdcB5jtdrbN/1yO5uQD16xEm+eexV1dlok/bPtWVOI7beEXeXkpZ5qYJW5
w0+4dYH2XwGASGy3Tit39E4OMRUa5picYoWN15jF0qtI/NP5dI/VJxWhaR5VoVvh
cXMjLCwAD1Gn4LgycgPmxNf3tCohW/bEQflQ
-----END CERTIFICATE-----
