Certificate:
    Data:
        Version: 3 (0x2)
        Serial Number:
            4c:bf:ff:59:cd:03:99:2d:bc:77:08:4a:ba:9c:7c:3d
        Signature Algorithm: sha256WithRSAEncryption
        Issuer: CN=team357-net
        Validity
            Not Before: Nov  4 11:35:23 2023 GMT
            Not After : Oct 19 11:35:23 2026 GMT
        Subject: CN=team357-client
        Subject Public Key Info:
            Public Key Algorithm: rsaEncryption
                Public-Key: (2048 bit)
                Modulus:
                    00:bc:e0:f5:f4:55:17:19:da:36:28:8f:70:ce:1d:
                    7d:c4:9c:d6:c2:88:13:53:1f:a6:51:49:f0:00:6e:
                    ff:6c:4b:25:d1:b7:ef:5f:53:42:a3:59:c1:5b:4c:
                    66:a4:3a:1e:f2:cb:94:04:45:f6:39:2d:a8:ac:85:
                    20:90:a2:24:aa:c9:5d:fa:94:17:37:76:6b:1c:de:
                    71:69:09:d4:95:9f:22:6e:4c:e1:6f:5f:31:b6:41:
                    dd:08:3f:17:7b:9e:55:4f:b5:27:78:9d:22:fc:53:
                    a9:59:42:25:db:98:e5:1c:9f:e3:f3:af:3b:a6:f9:
                    82:b4:6b:c9:7a:bb:22:21:61:2e:41:1c:31:84:c4:
                    37:c1:76:92:36:c1:c9:c8:d4:a5:8c:7a:46:d5:99:
                    6d:9b:2c:d1:ae:ae:79:64:b9:78:10:68:08:89:55:
                    c3:1d:1f:73:72:a2:c2:ca:75:1e:dd:b5:44:65:4e:
                    84:96:a6:1c:ef:b5:3c:f8:e3:56:07:e1:7a:e6:7a:
                    b3:3f:52:a0:62:e3:15:c0:e8:22:f7:79:55:89:09:
                    55:3f:fa:e1:95:85:9a:cf:d0:43:55:1b:d6:9e:bf:
                    ac:b6:8d:4b:1b:24:b5:70:55:4a:fe:46:2c:e0:a3:
                    cf:5e:7b:bd:a7:cf:c5:ea:7d:85:a0:b4:41:b4:b3:
                    17:5f
                Exponent: 65537 (0x10001)
        X509v3 extensions:
            X509v3 Basic Constraints: 
                CA:FALSE
            X509v3 Subject Key Identifier: 
                98:20:65:34:2C:1F:77:61:EA:75:A6:F8:29:A5:9E:16:C9:88:04:70
            X509v3 Authority Key Identifier: 
                keyid:9F:52:0E:55:C9:C3:61:55:BD:73:63:04:79:82:74:3C:11:2F:8B:C3
                DirName:/CN=team357-net
                serial:58:95:CC:0B:25:BD:F2:EA:0A:95:5B:D6:35:B7:D1:58:87:6B:54:1B
            X509v3 Extended Key Usage: 
                TLS Web Client Authentication
            X509v3 Key Usage: 
                Digital Signature
    Signature Algorithm: sha256WithRSAEncryption
    Signature Value:
        03:3a:2b:2d:9b:94:52:ea:ad:36:f5:17:59:f9:42:63:9f:6b:
        e1:cb:a8:fe:33:a1:61:d4:e0:0d:cb:a6:70:37:07:f2:5e:3d:
        3a:ca:19:28:dd:6a:1b:55:a8:f7:45:21:23:bc:e2:1c:30:6a:
        6f:8f:a8:5f:66:8b:ba:02:03:87:79:7c:f1:15:b7:6b:2a:e9:
        d0:03:eb:18:29:cf:51:42:ba:4d:06:ef:d7:57:04:78:e0:26:
        3d:36:d7:23:bd:38:bc:a0:75:12:40:98:53:7b:d3:bd:44:56:
        ec:6e:d9:63:36:1e:3b:fd:00:0c:a0:0c:00:32:f1:05:12:4a:
        23:10:98:00:31:6c:af:98:d8:a9:0c:98:d8:56:e1:b4:e1:a7:
        5d:fd:7a:4e:c3:8d:75:dd:7b:80:7d:26:f6:3c:4d:91:5a:45:
        9f:a9:d2:46:4c:72:d2:24:5f:0c:6b:fe:ea:c4:de:ee:00:26:
        78:5f:6d:7f:43:d7:50:85:a6:c6:93:68:06:d9:60:3a:9a:93:
        c0:47:23:a5:6c:0a:76:bd:18:74:ff:8b:6c:cb:5f:71:3d:69:
        13:3a:da:1f:ab:6e:01:a3:c8:ab:f6:40:9a:88:15:32:71:77:
        ed:3b:70:77:d2:00:90:58:76:11:78:a6:bf:f0:71:d6:df:f3:
        ae:0e:e6:28
-----BEGIN CERTIFICATE-----
MIIDXDCCAkSgAwIBAgIQTL//Wc0DmS28dwhKupx8PTANBgkqhkiG9w0BAQsFADAW
MRQwEgYDVQQDDAt0ZWFtMzU3LW5ldDAeFw0yMzExMDQxMTM1MjNaFw0yNjEwMTkx
MTM1MjNaMBkxFzAVBgNVBAMMDnRlYW0zNTctY2xpZW50MIIBIjANBgkqhkiG9w0B
AQEFAAOCAQ8AMIIBCgKCAQEAvOD19FUXGdo2KI9wzh19xJzWwogTUx+mUUnwAG7/
bEsl0bfvX1NCo1nBW0xmpDoe8suUBEX2OS2orIUgkKIkqsld+pQXN3ZrHN5xaQnU
lZ8ibkzhb18xtkHdCD8Xe55VT7UneJ0i/FOpWUIl25jlHJ/j8687pvmCtGvJersi
IWEuQRwxhMQ3wXaSNsHJyNSljHpG1ZltmyzRrq55ZLl4EGgIiVXDHR9zcqLCynUe
3bVEZU6ElqYc77U8+ONWB+F65nqzP1KgYuMVwOgi93lViQlVP/rhlYWaz9BDVRvW
nr+sto1LGyS1cFVK/kYs4KPPXnu9p8/F6n2FoLRBtLMXXwIDAQABo4GiMIGfMAkG
A1UdEwQCMAAwHQYDVR0OBBYEFJggZTQsH3dh6nWm+CmlnhbJiARwMFEGA1UdIwRK
MEiAFJ9SDlXJw2FVvXNjBHmCdDwRL4vDoRqkGDAWMRQwEgYDVQQDDAt0ZWFtMzU3
LW5ldIIUWJXMCyW98uoKlVvWNbfRWIdrVBswEwYDVR0lBAwwCgYIKwYBBQUHAwIw
CwYDVR0PBAQDAgeAMA0GCSqGSIb3DQEBCwUAA4IBAQADOistm5RS6q029RdZ+UJj
n2vhy6j+M6Fh1OANy6ZwNwfyXj06yhko3WobVaj3RSEjvOIcMGpvj6hfZou6AgOH
eXzxFbdrKunQA+sYKc9RQrpNBu/XVwR44CY9NtcjvTi8oHUSQJhTe9O9RFbsbtlj
Nh47/QAMoAwAMvEFEkojEJgAMWyvmNipDJjYVuG04add/XpOw4113XuAfSb2PE2R
WkWfqdJGTHLSJF8Ma/7qxN7uACZ4X21/Q9dQhabGk2gG2WA6mpPARyOlbAp2vRh0
/4tsy19xPWkTOtofq24Bo8ir9kCaiBUycXftO3B30gCQWHYReKa/8HHW3/OuDuYo
-----END CERTIFICATE-----
