Certificate:
    Data:
        Version: 3 (0x2)
        Serial Number:
            02:b0:25:6f:ba:19:7c:ee:ee:2c:1c:bf:32:07:52:04
        Signature Algorithm: sha256WithRSAEncryption
        Issuer: CN=team10-net
        Validity
            Not Before: Nov  3 20:39:27 2023 GMT
            Not After : Oct 18 20:39:27 2026 GMT
        Subject: CN=team10-server
        Subject Public Key Info:
            Public Key Algorithm: rsaEncryption
                Public-Key: (2048 bit)
                Modulus:
                    00:e7:e6:ae:c0:1c:f4:77:98:e4:cf:20:5b:9a:66:
                    4f:72:e0:f4:39:3e:9f:af:e1:99:b6:f2:8f:97:48:
                    78:48:f5:8b:a4:e5:76:42:24:e5:b1:2e:02:29:39:
                    c2:65:ce:c0:75:7b:7b:fd:af:2f:5f:a6:43:83:2e:
                    cf:df:7a:6a:81:0e:c6:7b:79:87:2d:69:20:8a:aa:
                    4b:75:ce:a6:ce:5b:d3:a1:50:d8:08:e6:53:b6:c7:
                    92:65:a6:6f:4d:77:9a:6c:ff:28:7d:78:40:29:49:
                    b9:04:77:e9:b0:16:bf:51:cc:bd:e3:5a:a2:fc:c3:
                    4e:6f:2d:fc:40:97:70:da:79:a6:f7:c2:44:7e:71:
                    77:a9:51:f2:0b:bb:f5:27:12:3f:c6:d1:13:c9:0c:
                    73:d1:5f:f5:1e:fd:15:0b:dc:aa:56:ff:67:46:74:
                    8a:35:03:e9:9a:69:7a:6d:d8:0a:0e:90:47:ef:2a:
                    21:82:84:aa:76:93:2a:a5:f7:0d:cf:9c:7a:5f:ec:
                    53:df:07:6c:4b:61:ae:a2:c2:94:46:a9:7f:d3:24:
                    ac:fb:ee:22:b6:01:a9:a7:41:66:e7:66:fa:28:2f:
                    1c:62:ee:67:03:4a:5f:0e:c7:b2:c4:f3:19:4d:3c:
                    97:c6:61:0f:cd:b3:05:11:a1:f6:97:e7:26:79:2c:
                    57:63
                Exponent: 65537 (0x10001)
        X509v3 extensions:
            X509v3 Basic Constraints: 
                CA:FALSE
            X509v3 Subject Key Identifier: 
                0B:D6:86:37:B1:B7:73:DE:75:BF:FF:B4:24:DA:50:5E:44:39:1D:57
            X509v3 Authority Key Identifier: 
                keyid:95:42:92:AE:62:A4:7A:9A:A3:3B:62:1C:6D:9E:4E:6D:A7:62:FD:0E
                DirName:/CN=team10-net
                serial:25:DA:8A:72:89:E3:40:E0:2B:44:F8:41:F3:01:D5:19:EC:2F:8D:F1
            X509v3 Extended Key Usage: 
                TLS Web Server Authentication
            X509v3 Key Usage: 
                Digital Signature, Key Encipherment
            X509v3 Subject Alternative Name: 
                DNS:team10-server
    Signature Algorithm: sha256WithRSAEncryption
    Signature Value:
        1a:48:ab:e1:3b:00:fa:65:7f:e1:42:17:01:62:f7:4c:58:7c:
        df:ea:cd:86:b6:af:af:aa:18:21:f6:cc:a3:66:af:1f:c1:81:
        59:79:e7:af:71:c3:17:64:8d:7d:6e:f9:cb:0d:2c:5c:f0:8f:
        2f:df:ad:1e:c4:66:2e:c3:1f:bf:5f:88:f5:bc:7c:84:c5:ec:
        2d:c3:a8:1a:93:3a:2b:2c:9b:a7:32:02:56:95:10:32:6f:19:
        d3:f0:21:a8:43:32:9b:b4:59:4e:12:4b:9c:73:80:42:18:64:
        35:85:22:6c:7d:f2:0e:5f:80:d1:9d:11:77:a8:8c:68:b5:9d:
        49:a5:c9:cb:76:43:3e:05:48:15:63:20:01:74:5e:d6:9e:1f:
        37:6d:d6:12:62:e1:9a:79:36:85:9c:d4:f4:85:19:e9:47:eb:
        02:b5:69:de:3a:72:be:8f:59:e1:1c:b4:d7:4d:70:b1:a6:82:
        67:2f:57:66:da:d5:5c:0d:3b:e4:d0:3f:2d:3f:62:d2:16:13:
        3a:fa:b0:8e:32:77:8d:42:23:96:9c:36:35:fa:d9:d2:df:5c:
        76:1d:39:e6:ae:84:45:7e:b2:28:be:0c:d5:ea:78:07:a4:a3:
        a2:2c:bd:a4:d6:99:07:bb:86:42:45:6a:37:81:c7:a1:0c:08:
        d9:7c:7c:f9
-----BEGIN CERTIFICATE-----
MIIDczCCAlugAwIBAgIQArAlb7oZfO7uLBy/MgdSBDANBgkqhkiG9w0BAQsFADAV
MRMwEQYDVQQDDAp0ZWFtMTAtbmV0MB4XDTIzMTEwMzIwMzkyN1oXDTI2MTAxODIw
MzkyN1owGDEWMBQGA1UEAwwNdGVhbTEwLXNlcnZlcjCCASIwDQYJKoZIhvcNAQEB
BQADggEPADCCAQoCggEBAOfmrsAc9HeY5M8gW5pmT3Lg9Dk+n6/hmbbyj5dIeEj1
i6TldkIk5bEuAik5wmXOwHV7e/2vL1+mQ4Muz996aoEOxnt5hy1pIIqqS3XOps5b
06FQ2AjmU7bHkmWmb013mmz/KH14QClJuQR36bAWv1HMveNaovzDTm8t/ECXcNp5
pvfCRH5xd6lR8gu79ScSP8bRE8kMc9Ff9R79FQvcqlb/Z0Z0ijUD6Zppem3YCg6Q
R+8qIYKEqnaTKqX3Dc+cel/sU98HbEthrqLClEapf9MkrPvuIrYBqadBZudm+igv
HGLuZwNKXw7HssTzGU08l8ZhD82zBRGh9pfnJnksV2MCAwEAAaOBuzCBuDAJBgNV
HRMEAjAAMB0GA1UdDgQWBBQL1oY3sbdz3nW//7Qk2lBeRDkdVzBQBgNVHSMESTBH
gBSVQpKuYqR6mqM7Yhxtnk5tp2L9DqEZpBcwFTETMBEGA1UEAwwKdGVhbTEwLW5l
dIIUJdqKconjQOArRPhB8wHVGewvjfEwEwYDVR0lBAwwCgYIKwYBBQUHAwEwCwYD
VR0PBAQDAgWgMBgGA1UdEQQRMA+CDXRlYW0xMC1zZXJ2ZXIwDQYJKoZIhvcNAQEL
BQADggEBABpIq+E7APplf+FCFwFi90xYfN/qzYa2r6+qGCH2zKNmrx/BgVl5569x
wxdkjX1u+csNLFzwjy/frR7EZi7DH79fiPW8fITF7C3DqBqTOissm6cyAlaVEDJv
GdPwIahDMpu0WU4SS5xzgEIYZDWFImx98g5fgNGdEXeojGi1nUmlyct2Qz4FSBVj
IAF0XtaeHzdt1hJi4Zp5NoWc1PSFGelH6wK1ad46cr6PWeEctNdNcLGmgmcvV2ba
1VwNO+TQPy0/YtIWEzr6sI4yd41CI5acNjX62dLfXHYdOeauhEV+sii+DNXqeAek
o6IsvaTWmQe7hkJFajeBx6EMCNl8fPk=
-----END CERTIFICATE-----
