Certificate:
    Data:
        Version: 3 (0x2)
        Serial Number:
            3b:69:5f:9a:6a:b4:5c:ad:8d:8e:45:a7:af:af:b3:cc
        Signature Algorithm: sha256WithRSAEncryption
        Issuer: CN=team10-net
        Validity
            Not Before: Nov  4 11:27:35 2023 GMT
            Not After : Oct 19 11:27:35 2026 GMT
        Subject: CN=team10-client
        Subject Public Key Info:
            Public Key Algorithm: rsaEncryption
                Public-Key: (2048 bit)
                Modulus:
                    00:c3:be:ef:f7:bf:69:32:0a:7c:2f:f9:b9:23:94:
                    78:8f:95:5a:73:86:1f:12:4b:7b:47:8d:bb:79:dc:
                    f6:cc:c5:1c:6f:0e:d6:54:5c:c1:24:7c:b8:2f:b9:
                    81:e0:35:2e:a2:09:64:c6:9d:cb:b1:7f:c8:54:f9:
                    c9:7b:9b:32:01:37:de:bb:18:de:f1:a4:c8:bf:72:
                    66:ec:42:86:03:93:08:6f:24:b3:25:d1:73:95:a0:
                    89:ea:e8:39:52:f5:8d:5e:18:0f:74:29:17:37:36:
                    06:ee:e5:00:a3:92:20:99:a3:83:c9:af:95:db:d7:
                    5b:26:4d:21:25:ae:ad:46:7b:ce:46:bc:15:47:3e:
                    66:fe:ca:6b:06:83:65:cc:18:ff:46:b1:a2:0a:bf:
                    92:c4:2d:9d:6e:0f:8e:8d:0d:68:a9:87:60:76:0f:
                    75:c0:e0:92:76:42:3e:9a:20:94:27:77:dc:04:f4:
                    63:64:6c:dc:b4:1d:60:c2:bd:61:2b:23:ee:2d:5d:
                    dd:97:75:3d:96:ec:18:7c:2c:75:8d:13:67:f6:68:
                    e2:48:26:45:e1:d8:12:ea:c3:28:4f:97:d3:ed:41:
                    ee:03:c7:63:c8:e2:08:e6:97:b0:90:6c:4b:b9:23:
                    50:2d:0e:60:dc:2d:ba:b4:07:aa:ad:e9:db:0d:d4:
                    c3:9f
                Exponent: 65537 (0x10001)
        X509v3 extensions:
            X509v3 Basic Constraints: 
                CA:FALSE
            X509v3 Subject Key Identifier: 
                08:B5:E8:26:2B:21:D8:1E:54:13:32:CB:5C:60:0D:6D:3A:F6:16:F9
            X509v3 Authority Key Identifier: 
                keyid:F5:E1:32:1C:03:7E:80:A0:B9:D5:49:C0:39:5E:C6:37:9F:2A:6A:7F
                DirName:/CN=team10-net
                serial:5D:61:CE:35:DB:49:78:11:D3:40:1C:A7:A5:CC:4C:EC:9D:0E:16:C0
            X509v3 Extended Key Usage: 
                TLS Web Client Authentication
            X509v3 Key Usage: 
                Digital Signature
    Signature Algorithm: sha256WithRSAEncryption
    Signature Value:
        43:0e:7b:58:ba:82:bc:76:ad:a0:fe:63:78:02:d1:4a:83:24:
        4b:0f:18:e6:28:29:03:a0:80:a2:c3:06:86:9a:44:e2:fa:05:
        22:a7:85:f6:06:35:af:37:7c:9f:45:d2:0b:ad:a4:b8:83:8d:
        47:8b:78:5a:6e:1c:a8:62:a4:0f:e5:ed:ca:d7:16:4c:e0:e0:
        7c:08:e1:df:10:f6:f2:7a:2b:fc:83:4c:6a:03:e3:cf:48:03:
        0e:6a:97:78:5c:b5:91:13:28:f6:8e:48:59:ad:43:50:b7:41:
        ff:1d:af:4d:bd:b0:dc:f2:c0:84:22:ab:1e:4a:93:7a:89:1a:
        6b:4f:b2:47:1b:b1:9c:84:3a:21:d3:fb:0b:ce:21:60:d6:68:
        b0:74:8a:5f:a6:e8:80:e1:f9:88:b9:46:9c:14:13:bc:1e:9d:
        f0:f9:af:7e:f1:02:0f:85:ef:47:1c:f4:c4:8d:fa:00:7c:99:
        af:97:18:eb:8c:9a:df:34:bf:52:e6:5a:8b:59:d6:c9:b1:a3:
        c4:79:2a:9e:12:fd:a9:38:5f:7a:10:2f:85:8a:b8:71:4b:39:
        4f:ec:35:27:6d:f7:f4:af:cf:97:a7:d0:75:e2:2a:a3:01:8a:
        a2:76:07:c2:84:68:76:08:56:1a:83:0b:88:41:96:db:34:3f:
        3d:f8:63:a4
-----BEGIN CERTIFICATE-----
MIIDWTCCAkGgAwIBAgIQO2lfmmq0XK2NjkWnr6+zzDANBgkqhkiG9w0BAQsFADAV
MRMwEQYDVQQDDAp0ZWFtMTAtbmV0MB4XDTIzMTEwNDExMjczNVoXDTI2MTAxOTEx
MjczNVowGDEWMBQGA1UEAwwNdGVhbTEwLWNsaWVudDCCASIwDQYJKoZIhvcNAQEB
BQADggEPADCCAQoCggEBAMO+7/e/aTIKfC/5uSOUeI+VWnOGHxJLe0eNu3nc9szF
HG8O1lRcwSR8uC+5geA1LqIJZMady7F/yFT5yXubMgE33rsY3vGkyL9yZuxChgOT
CG8ksyXRc5WgieroOVL1jV4YD3QpFzc2Bu7lAKOSIJmjg8mvldvXWyZNISWurUZ7
zka8FUc+Zv7KawaDZcwY/0axogq/ksQtnW4Pjo0NaKmHYHYPdcDgknZCPpoglCd3
3AT0Y2Rs3LQdYMK9YSsj7i1d3Zd1PZbsGHwsdY0TZ/Zo4kgmReHYEurDKE+X0+1B
7gPHY8jiCOaXsJBsS7kjUC0OYNwturQHqq3p2w3Uw58CAwEAAaOBoTCBnjAJBgNV
HRMEAjAAMB0GA1UdDgQWBBQItegmKyHYHlQTMstcYA1tOvYW+TBQBgNVHSMESTBH
gBT14TIcA36AoLnVScA5XsY3nypqf6EZpBcwFTETMBEGA1UEAwwKdGVhbTEwLW5l
dIIUXWHONdtJeBHTQBynpcxM7J0OFsAwEwYDVR0lBAwwCgYIKwYBBQUHAwIwCwYD
VR0PBAQDAgeAMA0GCSqGSIb3DQEBCwUAA4IBAQBDDntYuoK8dq2g/mN4AtFKgyRL
DxjmKCkDoICiwwaGmkTi+gUip4X2BjWvN3yfRdILraS4g41Hi3habhyoYqQP5e3K
1xZM4OB8COHfEPbyeiv8g0xqA+PPSAMOapd4XLWREyj2jkhZrUNQt0H/Ha9NvbDc
8sCEIqseSpN6iRprT7JHG7GchDoh0/sLziFg1miwdIpfpuiA4fmIuUacFBO8Hp3w
+a9+8QIPhe9HHPTEjfoAfJmvlxjrjJrfNL9S5lqLWdbJsaPEeSqeEv2pOF96EC+F
irhxSzlP7DUnbff0r8+Xp9B14iqjAYqidgfChGh2CFYagwuIQZbbND89+GOk
-----END CERTIFICATE-----
