Certificate:
    Data:
        Version: 3 (0x2)
        Serial Number:
            b0:ff:2f:ad:7f:48:00:62:9d:92:e5:aa:d3:22:91:17
        Signature Algorithm: sha256WithRSAEncryption
        Issuer: CN=team10-net
        Validity
            Not Before: Nov  4 10:40:23 2023 GMT
            Not After : Oct 19 10:40:23 2026 GMT
        Subject: CN=team10-client
        Subject Public Key Info:
            Public Key Algorithm: rsaEncryption
                Public-Key: (2048 bit)
                Modulus:
                    00:aa:fd:51:ca:ea:7f:7e:3e:b3:41:5a:c7:44:58:
                    7a:1d:af:66:37:6d:e8:d4:36:5a:24:2b:6b:a5:52:
                    7d:ba:f0:b4:de:d8:7b:4f:82:23:73:20:54:06:49:
                    a0:c8:f7:cb:a1:6a:86:1f:68:30:42:b9:4f:0f:59:
                    d4:95:5a:08:8f:57:89:db:50:58:65:bf:06:54:39:
                    c6:80:f3:84:14:34:1f:11:1c:ef:19:b1:e2:ea:07:
                    59:98:08:98:e4:9c:1b:93:a0:2c:df:91:b6:c3:0f:
                    76:15:37:60:21:6e:1d:fb:36:b7:4b:b0:67:2f:29:
                    98:1e:09:6e:16:a5:3a:f7:47:bd:35:7d:37:07:d0:
                    b9:1c:fd:6b:e9:98:93:70:cb:38:7b:ac:36:71:34:
                    a4:55:a9:51:70:7c:0e:33:4c:a2:22:d9:e1:d9:76:
                    4e:0b:2c:72:5a:12:fd:42:90:56:b8:0d:2b:26:53:
                    4d:ba:6e:33:c9:35:c7:6e:b5:12:06:19:c3:f3:12:
                    66:1a:cf:4d:2c:ee:5d:6c:9b:97:fb:9d:96:3b:7c:
                    32:e2:14:c0:6c:16:8f:a3:89:b3:45:34:c8:14:3d:
                    f8:30:b5:76:29:83:f6:d9:99:26:68:5d:a9:2c:21:
                    f5:e1:8e:43:b0:d5:53:e7:39:70:61:f1:bb:83:66:
                    e3:e1
                Exponent: 65537 (0x10001)
        X509v3 extensions:
            X509v3 Basic Constraints: 
                CA:FALSE
            X509v3 Subject Key Identifier: 
                B7:C9:F2:87:96:99:CB:FE:06:CE:2B:CE:D6:08:FD:93:8B:C7:7B:D7
            X509v3 Authority Key Identifier: 
                keyid:28:0A:72:1D:06:5B:97:B5:B8:04:2E:46:27:C8:7D:FA:0D:5C:5B:AA
                DirName:/CN=team10-net
                serial:19:AD:B8:24:A4:9E:05:52:97:81:60:DB:B9:A4:4E:55:21:E1:C1:12
            X509v3 Extended Key Usage: 
                TLS Web Client Authentication
            X509v3 Key Usage: 
                Digital Signature
    Signature Algorithm: sha256WithRSAEncryption
    Signature Value:
        b9:8f:17:ed:ee:56:ff:22:3b:b3:1b:fb:92:67:11:71:28:68:
        4c:eb:7c:7d:e3:31:64:40:f5:fd:0e:cd:be:c4:99:35:a3:7b:
        d5:e5:24:17:32:9f:4f:2d:a8:c0:e7:a4:f1:66:1c:1d:e3:fb:
        a0:69:36:b1:b3:36:b1:2c:f3:50:48:fb:19:ac:8c:2b:7e:26:
        cb:e9:ae:02:b0:99:a7:f3:ca:51:88:96:42:fc:11:68:87:ac:
        00:4a:70:59:c3:82:0f:16:02:43:dd:06:c8:0e:24:5b:66:d0:
        b5:06:0c:55:79:ea:7a:64:60:c2:4d:f5:cd:66:7c:a1:35:af:
        02:b9:4a:76:17:da:06:cd:ae:dc:5b:9a:68:41:5f:23:97:7d:
        dc:96:70:99:5e:53:2c:6e:a1:02:18:47:d7:fb:7b:7d:ca:8a:
        94:79:2a:74:5c:bf:8f:23:83:31:79:6d:c3:e7:61:d3:05:92:
        04:5f:d4:eb:70:20:b0:89:29:2f:a7:94:af:a4:fc:b7:4a:f7:
        08:90:f6:96:46:f3:a6:60:c0:86:95:65:b8:0e:98:b8:23:b9:
        76:57:3b:d3:30:13:97:f7:30:fd:d6:cd:60:7f:09:26:5f:35:
        b6:70:3d:10:18:32:48:76:65:68:37:e6:d7:d0:c2:16:2f:7e:
        85:5b:ef:93
-----BEGIN CERTIFICATE-----
MIIDWjCCAkKgAwIBAgIRALD/L61/SABinZLlqtMikRcwDQYJKoZIhvcNAQELBQAw
FTETMBEGA1UEAwwKdGVhbTEwLW5ldDAeFw0yMzExMDQxMDQwMjNaFw0yNjEwMTkx
MDQwMjNaMBgxFjAUBgNVBAMMDXRlYW0xMC1jbGllbnQwggEiMA0GCSqGSIb3DQEB
AQUAA4IBDwAwggEKAoIBAQCq/VHK6n9+PrNBWsdEWHodr2Y3bejUNlokK2ulUn26
8LTe2HtPgiNzIFQGSaDI98uhaoYfaDBCuU8PWdSVWgiPV4nbUFhlvwZUOcaA84QU
NB8RHO8ZseLqB1mYCJjknBuToCzfkbbDD3YVN2Ahbh37NrdLsGcvKZgeCW4WpTr3
R701fTcH0Lkc/WvpmJNwyzh7rDZxNKRVqVFwfA4zTKIi2eHZdk4LLHJaEv1CkFa4
DSsmU026bjPJNcdutRIGGcPzEmYaz00s7l1sm5f7nZY7fDLiFMBsFo+jibNFNMgU
PfgwtXYpg/bZmSZoXaksIfXhjkOw1VPnOXBh8buDZuPhAgMBAAGjgaEwgZ4wCQYD
VR0TBAIwADAdBgNVHQ4EFgQUt8nyh5aZy/4GzivO1gj9k4vHe9cwUAYDVR0jBEkw
R4AUKApyHQZbl7W4BC5GJ8h9+g1cW6qhGaQXMBUxEzARBgNVBAMMCnRlYW0xMC1u
ZXSCFBmtuCSkngVSl4Fg27mkTlUh4cESMBMGA1UdJQQMMAoGCCsGAQUFBwMCMAsG
A1UdDwQEAwIHgDANBgkqhkiG9w0BAQsFAAOCAQEAuY8X7e5W/yI7sxv7kmcRcSho
TOt8feMxZED1/Q7NvsSZNaN71eUkFzKfTy2owOek8WYcHeP7oGk2sbM2sSzzUEj7
GayMK34my+muArCZp/PKUYiWQvwRaIesAEpwWcOCDxYCQ90GyA4kW2bQtQYMVXnq
emRgwk31zWZ8oTWvArlKdhfaBs2u3FuaaEFfI5d93JZwmV5TLG6hAhhH1/t7fcqK
lHkqdFy/jyODMXltw+dh0wWSBF/U63AgsIkpL6eUr6T8t0r3CJD2lkbzpmDAhpVl
uA6YuCO5dlc70zATl/cw/dbNYH8JJl81tnA9EBgySHZlaDfm19DCFi9+hVvvkw==
-----END CERTIFICATE-----
