Certificate:
    Data:
        Version: 3 (0x2)
        Serial Number:
            b7:55:5a:dc:8f:75:ad:68:4a:81:28:94:29:a5:23:a2
        Signature Algorithm: sha256WithRSAEncryption
        Issuer: CN=team10-net
        Validity
            Not Before: Nov  3 20:39:26 2023 GMT
            Not After : Oct 18 20:39:26 2026 GMT
        Subject: CN=team10-client
        Subject Public Key Info:
            Public Key Algorithm: rsaEncryption
                Public-Key: (2048 bit)
                Modulus:
                    00:d5:71:82:af:d1:a6:03:12:07:bf:95:37:1c:f9:
                    e3:5f:2c:6a:04:40:f1:d0:ea:4b:ea:7f:da:65:91:
                    6e:c5:ea:77:ba:5f:8c:03:8b:80:20:4d:05:f9:bb:
                    5a:fd:3f:07:86:e0:f4:bd:5b:8a:2d:41:0f:46:23:
                    c0:25:f6:ed:c7:ca:39:f9:da:ad:c7:8a:dc:b0:94:
                    a3:20:9f:37:65:80:a1:0d:a7:a2:55:ea:a3:91:84:
                    82:9a:03:06:1d:ae:61:14:35:71:d4:07:74:f6:53:
                    4a:ac:50:9d:2b:c1:ed:61:2c:ad:67:c1:ef:f4:24:
                    f3:2c:c2:2a:d0:0d:f9:c3:fd:fb:f5:4b:a2:f4:70:
                    79:96:47:3d:6e:30:8b:7d:cf:92:81:ce:61:78:3d:
                    7f:fe:1d:ec:1b:3c:8d:f2:a2:5f:1a:b1:6e:9c:85:
                    2f:70:de:a9:0d:22:51:cd:f8:20:b5:33:fb:79:92:
                    17:e4:20:da:3e:fc:aa:97:3d:ae:91:c6:dc:3b:2d:
                    25:f4:f3:6a:26:cc:69:50:c7:81:6d:73:05:9c:68:
                    93:93:b4:a7:e9:f7:17:82:7f:f0:7a:ac:a6:c4:d3:
                    bb:d1:49:e2:38:da:18:79:f7:c2:d4:bc:66:83:a4:
                    3e:c0:da:1d:42:72:14:77:dd:9c:07:80:56:25:74:
                    9a:73
                Exponent: 65537 (0x10001)
        X509v3 extensions:
            X509v3 Basic Constraints: 
                CA:FALSE
            X509v3 Subject Key Identifier: 
                00:57:E6:BB:3D:ED:03:D3:A5:1D:00:07:4C:8F:B3:F0:BB:E3:92:E0
            X509v3 Authority Key Identifier: 
                keyid:95:42:92:AE:62:A4:7A:9A:A3:3B:62:1C:6D:9E:4E:6D:A7:62:FD:0E
                DirName:/CN=team10-net
                serial:25:DA:8A:72:89:E3:40:E0:2B:44:F8:41:F3:01:D5:19:EC:2F:8D:F1
            X509v3 Extended Key Usage: 
                TLS Web Client Authentication
            X509v3 Key Usage: 
                Digital Signature
    Signature Algorithm: sha256WithRSAEncryption
    Signature Value:
        2f:33:56:9d:eb:1e:78:2b:1b:88:1b:c0:b4:df:8b:f2:f0:08:
        b3:92:1e:bd:c5:15:48:63:ad:b7:41:a4:65:69:18:53:76:13:
        3d:e1:d3:5d:5b:bf:0f:32:de:04:6c:30:68:e7:14:8c:1c:a1:
        ba:9f:5d:ac:db:40:5a:03:c7:d8:2d:ae:e0:0e:03:a8:ca:4d:
        5a:48:46:e1:88:2c:71:2f:3d:90:c4:04:4d:9f:d6:73:fe:0e:
        db:71:a3:6b:6c:e1:e5:f0:5c:11:f5:eb:02:4d:40:04:2c:70:
        7f:82:e0:eb:e7:d1:a8:60:a4:18:e2:aa:59:69:f3:22:4b:6d:
        d6:58:e3:cc:ab:76:89:1a:90:ab:59:ce:d6:24:76:85:0f:bd:
        cf:c4:6f:30:1f:ed:35:83:bf:ee:13:0b:cf:2a:af:f3:f1:14:
        f2:49:8b:05:0e:09:aa:e7:e3:77:b5:0e:74:3d:97:3c:8d:a9:
        7d:a2:c6:25:36:ca:91:9a:d8:0f:6c:8d:9e:d7:48:0d:8c:ed:
        b3:7e:95:a1:f9:a8:a2:37:9e:2f:a2:42:a0:ff:30:a9:39:d6:
        da:1a:67:32:51:be:30:59:a3:4a:0b:6a:a7:ff:39:c1:c9:37:
        7f:93:90:05:24:aa:46:90:07:8e:52:5c:0f:b9:4a:10:db:ad:
        fc:45:72:62
-----BEGIN CERTIFICATE-----
MIIDWjCCAkKgAwIBAgIRALdVWtyPda1oSoEolCmlI6IwDQYJKoZIhvcNAQELBQAw
FTETMBEGA1UEAwwKdGVhbTEwLW5ldDAeFw0yMzExMDMyMDM5MjZaFw0yNjEwMTgy
MDM5MjZaMBgxFjAUBgNVBAMMDXRlYW0xMC1jbGllbnQwggEiMA0GCSqGSIb3DQEB
AQUAA4IBDwAwggEKAoIBAQDVcYKv0aYDEge/lTcc+eNfLGoEQPHQ6kvqf9plkW7F
6ne6X4wDi4AgTQX5u1r9PweG4PS9W4otQQ9GI8Al9u3Hyjn52q3HitywlKMgnzdl
gKENp6JV6qORhIKaAwYdrmEUNXHUB3T2U0qsUJ0rwe1hLK1nwe/0JPMswirQDfnD
/fv1S6L0cHmWRz1uMIt9z5KBzmF4PX/+HewbPI3yol8asW6chS9w3qkNIlHN+CC1
M/t5khfkINo+/KqXPa6Rxtw7LSX082omzGlQx4FtcwWcaJOTtKfp9xeCf/B6rKbE
07vRSeI42hh598LUvGaDpD7A2h1CchR33ZwHgFYldJpzAgMBAAGjgaEwgZ4wCQYD
VR0TBAIwADAdBgNVHQ4EFgQUAFfmuz3tA9OlHQAHTI+z8LvjkuAwUAYDVR0jBEkw
R4AUlUKSrmKkepqjO2IcbZ5Obadi/Q6hGaQXMBUxEzARBgNVBAMMCnRlYW0xMC1u
ZXSCFCXainKJ40DgK0T4QfMB1RnsL43xMBMGA1UdJQQMMAoGCCsGAQUFBwMCMAsG
A1UdDwQEAwIHgDANBgkqhkiG9w0BAQsFAAOCAQEALzNWneseeCsbiBvAtN+L8vAI
s5IevcUVSGOtt0GkZWkYU3YTPeHTXVu/DzLeBGwwaOcUjByhup9drNtAWgPH2C2u
4A4DqMpNWkhG4YgscS89kMQETZ/Wc/4O23Gja2zh5fBcEfXrAk1ABCxwf4Lg6+fR
qGCkGOKqWWnzIktt1ljjzKt2iRqQq1nO1iR2hQ+9z8RvMB/tNYO/7hMLzyqv8/EU
8kmLBQ4Jqufjd7UOdD2XPI2pfaLGJTbKkZrYD2yNntdIDYzts36VofmoojeeL6JC
oP8wqTnW2hpnMlG+MFmjSgtqp/85wck3f5OQBSSqRpAHjlJcD7lKENut/EVyYg==
-----END CERTIFICATE-----
