Certificate:
    Data:
        Version: 3 (0x2)
        Serial Number:
            8c:3e:84:aa:16:36:7b:e6:b3:de:f7:68:b5:da:cd:03
        Signature Algorithm: sha256WithRSAEncryption
        Issuer: CN=team252-net
        Validity
            Not Before: Nov  4 10:45:23 2023 GMT
            Not After : Oct 19 10:45:23 2026 GMT
        Subject: CN=team252-client
        Subject Public Key Info:
            Public Key Algorithm: rsaEncryption
                Public-Key: (2048 bit)
                Modulus:
                    00:df:0d:bb:ba:04:1b:74:e2:84:68:ab:71:8b:54:
                    9e:48:dc:e4:47:b3:79:2e:24:4c:aa:ee:ec:10:34:
                    75:a1:5d:ed:b5:f2:f2:9d:1f:25:7a:4e:63:95:68:
                    c5:b9:65:d9:99:b3:44:7c:2f:bc:36:66:0a:91:46:
                    10:ac:8d:17:0b:7c:a7:f7:2b:b6:9f:ac:6a:fa:ca:
                    12:10:54:3f:d0:e1:56:30:b8:d0:20:18:b2:71:fc:
                    da:18:c1:a8:06:e1:85:42:00:f3:7d:0b:05:60:5b:
                    9e:0f:d7:b6:17:11:a2:9c:5c:7a:0b:fe:69:5b:12:
                    9e:fd:e6:ff:90:5b:e7:29:8e:30:d4:30:06:2c:a5:
                    f6:de:c5:96:af:19:8f:7e:0d:f9:ec:df:da:be:a0:
                    2f:dd:7b:1b:b0:39:30:92:12:ac:16:86:7c:39:7b:
                    ef:23:c0:2e:10:f4:04:90:1e:b1:aa:26:6f:b3:de:
                    49:79:cd:90:14:2c:9c:2c:93:fe:a9:39:81:13:ed:
                    05:7b:91:e3:c4:2c:38:4b:e6:4b:31:ea:50:bd:7b:
                    5d:24:60:63:a3:ab:52:e3:e8:00:55:aa:b1:81:30:
                    4f:70:cd:17:5c:9d:37:37:8c:f3:c8:8d:0d:78:09:
                    54:19:04:ae:31:b5:69:f1:48:8c:e4:73:11:71:3c:
                    42:33
                Exponent: 65537 (0x10001)
        X509v3 extensions:
            X509v3 Basic Constraints: 
                CA:FALSE
            X509v3 Subject Key Identifier: 
                A6:B1:EC:9C:92:AE:12:7E:3B:D9:B1:99:99:92:F8:68:1E:18:0B:2B
            X509v3 Authority Key Identifier: 
                keyid:B6:71:53:8F:92:2F:68:1B:DA:64:10:39:A4:83:28:9A:1F:D6:6C:1C
                DirName:/CN=team252-net
                serial:28:03:60:27:68:DC:CB:07:4E:6A:5E:AD:93:B6:01:46:0A:80:33:83
            X509v3 Extended Key Usage: 
                TLS Web Client Authentication
            X509v3 Key Usage: 
                Digital Signature
    Signature Algorithm: sha256WithRSAEncryption
    Signature Value:
        9b:e1:7d:b0:37:35:09:2e:3c:7f:6a:5c:1e:8e:b1:08:5b:0f:
        aa:e1:33:46:53:e7:37:29:03:51:83:3c:c2:f7:35:5a:ca:2d:
        83:d1:e1:c2:1c:2a:32:a0:55:15:90:82:ea:30:8c:ce:40:bd:
        e0:65:20:e2:cc:f9:af:96:9f:1e:11:65:ad:40:17:8e:e5:4f:
        f9:48:e5:de:11:a1:c2:5b:ae:39:64:e8:4f:c3:dc:6b:36:a6:
        5a:9b:13:bb:2b:ba:18:0b:06:96:75:6c:89:27:8b:2d:f3:b1:
        55:b2:62:04:66:97:a0:4c:9f:8f:db:ef:3e:06:f2:d3:29:24:
        88:54:4a:b4:79:d2:62:ed:65:1f:64:07:77:f1:5f:e2:a0:0f:
        3b:c8:6d:95:cd:92:0d:91:5d:54:a7:30:b4:30:41:f7:9a:70:
        1f:5e:d5:cc:bc:73:2c:bb:45:4f:80:94:db:5e:e4:0e:9a:19:
        4b:72:05:5f:f1:a9:f4:24:d6:7a:ca:a0:73:32:1e:b2:33:b2:
        41:d7:29:86:8b:95:26:f6:8e:8b:d9:bb:2e:f9:35:53:53:93:
        13:08:c4:1c:ff:87:9d:79:12:59:15:02:1a:23:ec:1b:74:70:
        c5:7b:6f:82:94:9c:d4:53:49:8d:d1:89:c6:f0:01:2c:aa:79:
        e3:86:27:8a
-----BEGIN CERTIFICATE-----
MIIDXTCCAkWgAwIBAgIRAIw+hKoWNnvms973aLXazQMwDQYJKoZIhvcNAQELBQAw
FjEUMBIGA1UEAwwLdGVhbTI1Mi1uZXQwHhcNMjMxMTA0MTA0NTIzWhcNMjYxMDE5
MTA0NTIzWjAZMRcwFQYDVQQDDA50ZWFtMjUyLWNsaWVudDCCASIwDQYJKoZIhvcN
AQEBBQADggEPADCCAQoCggEBAN8Nu7oEG3TihGircYtUnkjc5EezeS4kTKru7BA0
daFd7bXy8p0fJXpOY5Voxbll2ZmzRHwvvDZmCpFGEKyNFwt8p/crtp+savrKEhBU
P9DhVjC40CAYsnH82hjBqAbhhUIA830LBWBbng/XthcRopxcegv+aVsSnv3m/5Bb
5ymOMNQwBiyl9t7Flq8Zj34N+ezf2r6gL917G7A5MJISrBaGfDl77yPALhD0BJAe
saomb7PeSXnNkBQsnCyT/qk5gRPtBXuR48QsOEvmSzHqUL17XSRgY6OrUuPoAFWq
sYEwT3DNF1ydNzeM88iNDXgJVBkErjG1afFIjORzEXE8QjMCAwEAAaOBojCBnzAJ
BgNVHRMEAjAAMB0GA1UdDgQWBBSmseyckq4SfjvZsZmZkvhoHhgLKzBRBgNVHSME
SjBIgBS2cVOPki9oG9pkEDmkgyiaH9ZsHKEapBgwFjEUMBIGA1UEAwwLdGVhbTI1
Mi1uZXSCFCgDYCdo3MsHTmperZO2AUYKgDODMBMGA1UdJQQMMAoGCCsGAQUFBwMC
MAsGA1UdDwQEAwIHgDANBgkqhkiG9w0BAQsFAAOCAQEAm+F9sDc1CS48f2pcHo6x
CFsPquEzRlPnNykDUYM8wvc1Wsotg9HhwhwqMqBVFZCC6jCMzkC94GUg4sz5r5af
HhFlrUAXjuVP+Ujl3hGhwluuOWToT8PcazamWpsTuyu6GAsGlnVsiSeLLfOxVbJi
BGaXoEyfj9vvPgby0ykkiFRKtHnSYu1lH2QHd/Ff4qAPO8htlc2SDZFdVKcwtDBB
95pwH17VzLxzLLtFT4CU217kDpoZS3IFX/Gp9CTWesqgczIesjOyQdcphouVJvaO
i9m7Lvk1U1OTEwjEHP+HnXkSWRUCGiPsG3RwxXtvgpSc1FNJjdGJxvABLKp544Yn
ig==
-----END CERTIFICATE-----
