Certificate:
    Data:
        Version: 3 (0x2)
        Serial Number:
            f1:54:1a:1d:7a:99:d3:fc:22:1a:6f:c3:7d:31:a0:cb
        Signature Algorithm: sha256WithRSAEncryption
        Issuer: CN=team252-net
        Validity
            Not Before: Nov  4 11:32:36 2023 GMT
            Not After : Oct 19 11:32:36 2026 GMT
        Subject: CN=team252-server
        Subject Public Key Info:
            Public Key Algorithm: rsaEncryption
                Public-Key: (2048 bit)
                Modulus:
                    00:d9:42:5d:e9:2d:48:53:ea:48:1a:29:8c:9b:f1:
                    c8:1e:02:20:f1:29:a4:15:43:1f:f1:9d:56:fa:62:
                    00:69:7c:95:fd:f2:57:f9:13:b0:08:3b:22:ca:ff:
                    7e:bc:4d:7d:5f:cc:95:f3:b9:0b:2e:99:a0:5f:18:
                    d8:1b:df:95:b6:ff:19:f6:8a:8b:a6:90:70:16:ed:
                    a3:90:e2:a8:4c:e1:51:4b:83:fb:d0:30:fa:1e:f9:
                    51:23:3a:16:f6:3a:e0:08:62:c7:67:cd:67:c6:31:
                    b9:cd:b0:1d:3e:b4:5f:ad:4f:b3:74:19:01:3b:ed:
                    5e:8d:63:2e:24:62:60:7c:60:c9:60:37:d5:61:35:
                    c9:be:4a:0d:35:e7:8e:25:c0:63:f4:06:04:c2:ba:
                    36:cd:70:2f:b3:41:f4:e3:fc:34:ad:03:36:1d:16:
                    98:a4:cb:9a:be:87:2e:de:3f:fb:20:9d:d4:cf:31:
                    7d:43:71:68:9f:72:b2:f1:ed:b3:60:cd:87:17:f4:
                    7f:3a:be:0c:42:ac:9e:7e:a4:72:4a:3c:2f:b5:0d:
                    d6:80:4a:7d:cd:7e:a4:a7:3b:c5:15:6d:6d:55:81:
                    a8:51:da:3f:97:a8:68:c4:df:91:01:f9:d6:9d:a4:
                    b9:04:fa:c6:75:c9:e6:0e:3a:c2:6e:38:84:b5:bf:
                    7c:45
                Exponent: 65537 (0x10001)
        X509v3 extensions:
            X509v3 Basic Constraints: 
                CA:FALSE
            X509v3 Subject Key Identifier: 
                A2:15:51:7E:2E:4B:9B:F5:F3:24:FF:67:A6:92:76:CB:22:EE:C8:6E
            X509v3 Authority Key Identifier: 
                keyid:EB:03:8C:AD:1C:31:B7:7F:CC:2A:AA:52:64:AF:2F:59:45:41:E4:5F
                DirName:/CN=team252-net
                serial:66:BF:B2:B9:66:3D:DF:DE:09:06:70:4C:DB:43:1F:5E:17:A6:6C:8C
            X509v3 Extended Key Usage: 
                TLS Web Server Authentication
            X509v3 Key Usage: 
                Digital Signature, Key Encipherment
            X509v3 Subject Alternative Name: 
                DNS:team252-server
    Signature Algorithm: sha256WithRSAEncryption
    Signature Value:
        2a:2a:27:ec:4f:1b:10:96:fd:a9:72:46:cd:99:e9:b1:7e:20:
        aa:95:a1:09:cb:0b:f7:b5:9b:3e:95:59:65:2f:55:b8:26:15:
        0a:ee:ce:fe:17:8d:d0:10:de:ae:ac:15:07:65:1b:a4:c9:6c:
        be:3a:90:30:5c:f9:0d:72:78:cc:a9:1a:11:9c:e3:0d:4f:b0:
        ac:d6:6d:64:1d:71:ef:0d:c1:b9:89:b4:c1:59:33:2b:e4:de:
        90:ce:1c:d3:d0:f4:25:b7:32:ed:08:39:be:7e:c7:93:01:90:
        9e:39:5e:9e:9e:e8:a5:84:8d:96:9a:c4:c5:25:9b:7a:3a:e4:
        94:2b:ca:82:de:0a:37:e1:44:b1:08:d0:15:4c:9a:f8:7c:48:
        70:65:c9:59:10:d5:0e:1a:d1:65:bb:d1:64:da:65:52:d4:0e:
        24:62:24:3d:98:0c:cc:81:cd:ce:45:94:61:b2:fa:e0:d7:3a:
        95:2b:94:c8:eb:ff:2e:7a:29:cf:ab:2d:53:7c:fd:6f:56:9d:
        aa:17:74:4c:fe:8e:2e:1b:37:db:e2:0b:47:8b:72:16:4d:c6:
        45:31:9d:a6:d7:4c:7f:e6:bc:13:b0:80:55:76:1d:ac:dd:cb:
        93:c0:4b:fa:eb:fa:06:b5:43:ec:1c:95:98:36:0e:07:e8:86:
        af:9d:bf:3c
-----BEGIN CERTIFICATE-----
MIIDeDCCAmCgAwIBAgIRAPFUGh16mdP8Ihpvw30xoMswDQYJKoZIhvcNAQELBQAw
FjEUMBIGA1UEAwwLdGVhbTI1Mi1uZXQwHhcNMjMxMTA0MTEzMjM2WhcNMjYxMDE5
MTEzMjM2WjAZMRcwFQYDVQQDDA50ZWFtMjUyLXNlcnZlcjCCASIwDQYJKoZIhvcN
AQEBBQADggEPADCCAQoCggEBANlCXektSFPqSBopjJvxyB4CIPEppBVDH/GdVvpi
AGl8lf3yV/kTsAg7Isr/frxNfV/MlfO5Cy6ZoF8Y2Bvflbb/GfaKi6aQcBbto5Di
qEzhUUuD+9Aw+h75USM6FvY64Ahix2fNZ8Yxuc2wHT60X61Ps3QZATvtXo1jLiRi
YHxgyWA31WE1yb5KDTXnjiXAY/QGBMK6Ns1wL7NB9OP8NK0DNh0WmKTLmr6HLt4/
+yCd1M8xfUNxaJ9ysvHts2DNhxf0fzq+DEKsnn6kcko8L7UN1oBKfc1+pKc7xRVt
bVWBqFHaP5eoaMTfkQH51p2kuQT6xnXJ5g46wm44hLW/fEUCAwEAAaOBvTCBujAJ
BgNVHRMEAjAAMB0GA1UdDgQWBBSiFVF+Lkub9fMk/2emknbLIu7IbjBRBgNVHSME
SjBIgBTrA4ytHDG3f8wqqlJkry9ZRUHkX6EapBgwFjEUMBIGA1UEAwwLdGVhbTI1
Mi1uZXSCFGa/srlmPd/eCQZwTNtDH14XpmyMMBMGA1UdJQQMMAoGCCsGAQUFBwMB
MAsGA1UdDwQEAwIFoDAZBgNVHREEEjAQgg50ZWFtMjUyLXNlcnZlcjANBgkqhkiG
9w0BAQsFAAOCAQEAKion7E8bEJb9qXJGzZnpsX4gqpWhCcsL97WbPpVZZS9VuCYV
Cu7O/heN0BDerqwVB2UbpMlsvjqQMFz5DXJ4zKkaEZzjDU+wrNZtZB1x7w3BuYm0
wVkzK+TekM4c09D0Jbcy7Qg5vn7HkwGQnjlenp7opYSNlprExSWbejrklCvKgt4K
N+FEsQjQFUya+HxIcGXJWRDVDhrRZbvRZNplUtQOJGIkPZgMzIHNzkWUYbL64Nc6
lSuUyOv/Lnopz6stU3z9b1adqhd0TP6OLhs32+ILR4tyFk3GRTGdptdMf+a8E7CA
VXYdrN3Lk8BL+uv6BrVD7ByVmDYOB+iGr52/PA==
-----END CERTIFICATE-----
