Certificate:
    Data:
        Version: 3 (0x2)
        Serial Number:
            ff:a4:04:c6:81:c5:39:6f:87:c0:d8:8b:04:cc:83:80
        Signature Algorithm: sha256WithRSAEncryption
        Issuer: CN=team252-net
        Validity
            Not Before: Nov  4 11:32:36 2023 GMT
            Not After : Oct 19 11:32:36 2026 GMT
        Subject: CN=team252-client
        Subject Public Key Info:
            Public Key Algorithm: rsaEncryption
                Public-Key: (2048 bit)
                Modulus:
                    00:a2:5b:71:a8:26:69:30:86:30:a0:99:0a:0f:ae:
                    db:ac:ea:df:f8:b7:7f:a4:71:38:12:59:22:19:d4:
                    42:f5:95:6f:57:52:72:f6:8e:7f:35:7a:12:e6:58:
                    9c:27:79:1d:12:ca:30:ad:9f:50:f6:be:4e:69:f2:
                    9b:27:45:ff:12:4e:3c:f4:d6:7b:79:01:5c:88:67:
                    da:2f:26:f6:ed:db:1f:3d:40:5c:15:f2:23:69:5c:
                    2f:e2:03:fe:9c:12:b0:31:18:b3:7b:73:fc:9b:13:
                    0d:51:ed:d6:4c:cc:ba:3a:9c:92:72:25:07:7b:96:
                    18:06:b8:9a:24:02:30:c4:b6:33:a6:11:17:07:b5:
                    fa:cd:55:1e:90:95:c8:77:08:45:2e:80:3c:c0:62:
                    c0:e4:7a:38:9f:47:dc:d6:89:cc:f6:56:21:7c:61:
                    34:9b:4b:02:4f:55:d7:51:45:7f:18:5d:b2:6a:82:
                    07:e2:0e:dd:af:0d:0e:d3:22:fc:51:a3:23:c1:cc:
                    ea:0f:eb:9f:d3:a0:09:3c:bd:82:75:89:72:73:be:
                    9e:a9:b6:bb:44:a7:8f:4d:0d:f8:38:0a:03:af:68:
                    03:cf:84:06:db:54:55:71:b5:f1:4e:53:2f:12:2c:
                    2d:dd:13:9b:58:de:09:6d:f0:fa:40:84:aa:94:59:
                    11:05
                Exponent: 65537 (0x10001)
        X509v3 extensions:
            X509v3 Basic Constraints: 
                CA:FALSE
            X509v3 Subject Key Identifier: 
                AF:A6:71:D3:85:D4:C6:49:3E:4D:6F:1B:B2:92:BF:C2:E3:4C:19:E4
            X509v3 Authority Key Identifier: 
                keyid:EB:03:8C:AD:1C:31:B7:7F:CC:2A:AA:52:64:AF:2F:59:45:41:E4:5F
                DirName:/CN=team252-net
                serial:66:BF:B2:B9:66:3D:DF:DE:09:06:70:4C:DB:43:1F:5E:17:A6:6C:8C
            X509v3 Extended Key Usage: 
                TLS Web Client Authentication
            X509v3 Key Usage: 
                Digital Signature
    Signature Algorithm: sha256WithRSAEncryption
    Signature Value:
        70:c3:84:e2:ca:e4:b1:fd:74:37:1c:ff:dd:6a:9d:ca:ea:46:
        f7:d9:fb:5a:fb:eb:1a:8d:6f:96:fc:37:0c:ae:2e:c9:38:37:
        61:fe:ce:6d:6f:f1:cc:6d:d9:4d:83:17:90:fe:2e:97:ad:dd:
        58:dd:30:a9:d9:88:c7:f1:2c:fb:28:94:bd:1f:08:cf:57:53:
        95:96:93:9e:a7:4d:5c:47:b8:41:54:3b:f5:ca:96:0d:51:35:
        e8:1b:8e:0f:c3:29:23:07:be:b4:b3:f5:86:f0:ce:a7:b4:48:
        be:db:f1:52:b2:53:ca:6c:3c:8d:8a:0b:f7:59:0c:ad:38:4a:
        e8:14:47:39:76:27:fc:a6:c2:fa:a9:c2:64:15:1e:74:56:d7:
        ae:93:1b:fb:40:66:60:40:68:3b:e3:60:62:3d:41:e3:ed:77:
        fa:35:a3:87:1a:52:21:fb:28:ff:f3:f3:1a:a8:af:7f:af:b5:
        da:91:c3:49:e0:0e:31:bd:6f:45:9a:b8:4b:85:5d:23:66:02:
        50:00:ea:81:d1:b7:93:1b:8b:cc:ef:ab:10:97:d4:6d:55:eb:
        fd:97:02:43:c0:4f:f4:b5:20:73:0a:3a:a1:ed:50:60:8a:b1:
        41:12:9f:4c:11:93:f4:f8:b8:e4:fc:1c:87:97:1f:63:2f:c7:
        b0:26:32:cf
-----BEGIN CERTIFICATE-----
MIIDXTCCAkWgAwIBAgIRAP+kBMaBxTlvh8DYiwTMg4AwDQYJKoZIhvcNAQELBQAw
FjEUMBIGA1UEAwwLdGVhbTI1Mi1uZXQwHhcNMjMxMTA0MTEzMjM2WhcNMjYxMDE5
MTEzMjM2WjAZMRcwFQYDVQQDDA50ZWFtMjUyLWNsaWVudDCCASIwDQYJKoZIhvcN
AQEBBQADggEPADCCAQoCggEBAKJbcagmaTCGMKCZCg+u26zq3/i3f6RxOBJZIhnU
QvWVb1dScvaOfzV6EuZYnCd5HRLKMK2fUPa+TmnymydF/xJOPPTWe3kBXIhn2i8m
9u3bHz1AXBXyI2lcL+ID/pwSsDEYs3tz/JsTDVHt1kzMujqcknIlB3uWGAa4miQC
MMS2M6YRFwe1+s1VHpCVyHcIRS6APMBiwOR6OJ9H3NaJzPZWIXxhNJtLAk9V11FF
fxhdsmqCB+IO3a8NDtMi/FGjI8HM6g/rn9OgCTy9gnWJcnO+nqm2u0Snj00N+DgK
A69oA8+EBttUVXG18U5TLxIsLd0Tm1jeCW3w+kCEqpRZEQUCAwEAAaOBojCBnzAJ
BgNVHRMEAjAAMB0GA1UdDgQWBBSvpnHThdTGST5Nbxuykr/C40wZ5DBRBgNVHSME
SjBIgBTrA4ytHDG3f8wqqlJkry9ZRUHkX6EapBgwFjEUMBIGA1UEAwwLdGVhbTI1
Mi1uZXSCFGa/srlmPd/eCQZwTNtDH14XpmyMMBMGA1UdJQQMMAoGCCsGAQUFBwMC
MAsGA1UdDwQEAwIHgDANBgkqhkiG9w0BAQsFAAOCAQEAcMOE4srksf10Nxz/3Wqd
yupG99n7WvvrGo1vlvw3DK4uyTg3Yf7ObW/xzG3ZTYMXkP4ul63dWN0wqdmIx/Es
+yiUvR8Iz1dTlZaTnqdNXEe4QVQ79cqWDVE16BuOD8MpIwe+tLP1hvDOp7RIvtvx
UrJTymw8jYoL91kMrThK6BRHOXYn/KbC+qnCZBUedFbXrpMb+0BmYEBoO+NgYj1B
4+13+jWjhxpSIfso//PzGqivf6+12pHDSeAOMb1vRZq4S4VdI2YCUADqgdG3kxuL
zO+rEJfUbVXr/ZcCQ8BP9LUgcwo6oe1QYIqxQRKfTBGT9Pi45Pwch5cfYy/HsCYy
zw==
-----END CERTIFICATE-----
