Certificate:
    Data:
        Version: 3 (0x2)
        Serial Number:
            7b:4b:3f:6f:f8:34:d6:3e:03:7a:d9:5e:57:1e:b5:93
        Signature Algorithm: sha256WithRSAEncryption
        Issuer: CN=team98-net
        Validity
            Not Before: Nov  4 11:29:19 2023 GMT
            Not After : Oct 19 11:29:19 2026 GMT
        Subject: CN=team98-server
        Subject Public Key Info:
            Public Key Algorithm: rsaEncryption
                Public-Key: (2048 bit)
                Modulus:
                    00:ae:0d:95:65:1d:50:93:f3:ac:d9:15:ea:5f:33:
                    0d:f3:d3:bc:17:a8:dd:8b:9e:09:04:9f:c0:d1:91:
                    39:3d:33:88:59:b4:6b:5d:3a:b9:76:84:9d:8e:5f:
                    8d:8b:58:8e:a3:e2:45:b7:78:e2:14:d0:4e:e5:8f:
                    54:04:4c:2f:36:29:65:fb:1b:69:b3:14:d3:2a:18:
                    17:a7:b9:93:19:ce:b9:01:b5:95:58:a3:71:4e:35:
                    e9:e2:09:ae:0e:b0:df:e4:1c:3b:2d:78:ba:51:cc:
                    35:0c:0a:f1:d0:bf:77:fa:26:06:16:bb:f9:43:fc:
                    84:ec:58:36:2a:ca:56:1e:d8:5d:a3:6f:c2:cf:ad:
                    29:66:49:c1:f7:72:c8:8f:dd:d5:34:e1:05:ef:33:
                    f8:06:a0:84:96:5a:69:c7:2f:09:d2:aa:64:f7:a7:
                    b1:b3:60:b2:fb:38:3f:11:1f:ff:c9:a3:f6:28:06:
                    c9:9d:d1:ca:e4:1f:b8:c3:68:d8:55:04:7e:f4:08:
                    20:65:7c:b9:b2:b5:88:15:f3:97:b9:ca:78:85:a3:
                    76:10:c2:d7:de:85:7a:7f:1b:8a:e4:de:7d:da:cc:
                    33:c2:7e:c2:ee:b4:37:ce:8d:38:c4:54:4c:84:ec:
                    fc:70:2d:83:73:a6:54:91:7e:06:d7:0f:e9:7f:cc:
                    ff:93
                Exponent: 65537 (0x10001)
        X509v3 extensions:
            X509v3 Basic Constraints: 
                CA:FALSE
            X509v3 Subject Key Identifier: 
                A3:83:1A:70:25:DC:26:0C:D7:B6:1A:A0:CA:D1:EB:03:C5:9B:8D:26
            X509v3 Authority Key Identifier: 
                keyid:76:2D:9A:49:0D:1F:5C:10:26:1E:D0:58:72:6E:3B:A7:00:C4:4C:9B
                DirName:/CN=team98-net
                serial:17:23:6D:44:8D:32:52:1D:D0:D4:2F:81:F5:31:71:EC:93:73:BC:B9
            X509v3 Extended Key Usage: 
                TLS Web Server Authentication
            X509v3 Key Usage: 
                Digital Signature, Key Encipherment
            X509v3 Subject Alternative Name: 
                DNS:team98-server
    Signature Algorithm: sha256WithRSAEncryption
    Signature Value:
        12:68:20:5a:51:b4:66:ee:46:f5:76:03:28:c7:8e:04:84:63:
        e6:e4:f7:0b:63:ac:44:f5:89:70:82:eb:f0:62:37:a3:4a:f4:
        24:b1:c3:81:69:c8:cb:6b:e9:36:f5:bf:23:24:8a:3c:df:b4:
        6c:e2:0c:1a:f3:d2:c0:bd:a9:81:c2:f3:9f:7d:cb:73:7f:16:
        db:e1:01:11:c3:2f:45:1f:83:f8:3e:cb:2a:fd:33:0e:86:c4:
        6d:39:73:80:e8:8c:4c:51:6a:d4:3f:f2:19:90:c4:b3:3d:98:
        4e:07:0c:ce:a3:12:bf:d2:43:ea:94:04:d2:45:e8:dc:21:20:
        db:1f:c2:e5:6c:ac:71:f8:09:a1:2c:50:d3:57:3d:14:a0:0d:
        27:5d:d4:9a:9c:f3:7f:76:82:db:7b:e0:73:f6:b5:5a:bf:16:
        af:72:2d:be:38:71:eb:47:e2:94:39:3f:61:b5:e9:34:6f:8a:
        1f:50:b7:4f:9d:57:a0:71:ea:44:24:8a:39:dd:c1:0f:9a:47:
        96:0f:df:0b:ed:9b:92:7e:08:ff:34:2b:02:fa:76:d3:65:0a:
        18:33:24:77:d9:dc:fd:22:d1:bc:bb:d2:8e:c0:e7:b0:fd:73:
        65:01:d4:e4:f7:4a:16:da:2f:d3:d7:ca:91:70:84:2d:c8:d8:
        44:9b:da:7e
-----BEGIN CERTIFICATE-----
MIIDczCCAlugAwIBAgIQe0s/b/g01j4DetleVx61kzANBgkqhkiG9w0BAQsFADAV
MRMwEQYDVQQDDAp0ZWFtOTgtbmV0MB4XDTIzMTEwNDExMjkxOVoXDTI2MTAxOTEx
MjkxOVowGDEWMBQGA1UEAwwNdGVhbTk4LXNlcnZlcjCCASIwDQYJKoZIhvcNAQEB
BQADggEPADCCAQoCggEBAK4NlWUdUJPzrNkV6l8zDfPTvBeo3YueCQSfwNGROT0z
iFm0a106uXaEnY5fjYtYjqPiRbd44hTQTuWPVARMLzYpZfsbabMU0yoYF6e5kxnO
uQG1lVijcU416eIJrg6w3+QcOy14ulHMNQwK8dC/d/omBha7+UP8hOxYNirKVh7Y
XaNvws+tKWZJwfdyyI/d1TThBe8z+AaghJZaaccvCdKqZPensbNgsvs4PxEf/8mj
9igGyZ3RyuQfuMNo2FUEfvQIIGV8ubK1iBXzl7nKeIWjdhDC196Fen8biuTefdrM
M8J+wu60N86NOMRUTITs/HAtg3OmVJF+BtcP6X/M/5MCAwEAAaOBuzCBuDAJBgNV
HRMEAjAAMB0GA1UdDgQWBBSjgxpwJdwmDNe2GqDK0esDxZuNJjBQBgNVHSMESTBH
gBR2LZpJDR9cECYe0FhybjunAMRMm6EZpBcwFTETMBEGA1UEAwwKdGVhbTk4LW5l
dIIUFyNtRI0yUh3Q1C+B9TFx7JNzvLkwEwYDVR0lBAwwCgYIKwYBBQUHAwEwCwYD
VR0PBAQDAgWgMBgGA1UdEQQRMA+CDXRlYW05OC1zZXJ2ZXIwDQYJKoZIhvcNAQEL
BQADggEBABJoIFpRtGbuRvV2AyjHjgSEY+bk9wtjrET1iXCC6/BiN6NK9CSxw4Fp
yMtr6Tb1vyMkijzftGziDBrz0sC9qYHC8599y3N/FtvhARHDL0Ufg/g+yyr9Mw6G
xG05c4DojExRatQ/8hmQxLM9mE4HDM6jEr/SQ+qUBNJF6NwhINsfwuVsrHH4CaEs
UNNXPRSgDSdd1Jqc8392gtt74HP2tVq/Fq9yLb44cetH4pQ5P2G16TRvih9Qt0+d
V6Bx6kQkijndwQ+aR5YP3wvtm5J+CP80KwL6dtNlChgzJHfZ3P0i0by70o7A57D9
c2UB1OT3ShbaL9PXypFwhC3I2ESb2n4=
-----END CERTIFICATE-----
