Certificate:
    Data:
        Version: 3 (0x2)
        Serial Number:
            8b:ba:d9:7d:4a:da:eb:6c:e4:e3:64:5c:f6:d8:c6:86
        Signature Algorithm: sha256WithRSAEncryption
        Issuer: CN=team98-net
        Validity
            Not Before: Nov  4 11:29:19 2023 GMT
            Not After : Oct 19 11:29:19 2026 GMT
        Subject: CN=team98-client
        Subject Public Key Info:
            Public Key Algorithm: rsaEncryption
                Public-Key: (2048 bit)
                Modulus:
                    00:b4:3b:fe:e1:f7:33:fb:73:b7:62:81:13:70:eb:
                    60:8a:68:2d:f7:89:0a:eb:8b:f3:f7:6a:a4:48:1c:
                    19:48:e8:ad:df:76:b4:db:3a:a6:55:18:6b:7f:4d:
                    71:72:d5:ab:cd:bb:8c:46:cf:bf:47:7d:0c:55:dd:
                    66:ef:23:57:d7:14:18:62:05:77:4b:dd:b2:8a:64:
                    d3:2f:70:dc:c8:e2:b4:0d:80:41:ca:46:6d:b9:f3:
                    cf:29:14:11:3e:e1:9f:f5:2e:a1:5e:49:18:59:35:
                    f0:84:98:03:6d:7d:c7:d4:63:e4:95:e8:1f:b6:d7:
                    ac:d2:60:c9:32:47:3e:0c:9d:30:78:2e:b3:eb:d6:
                    9a:68:a9:33:45:6b:6b:b2:2c:63:f2:09:91:08:c1:
                    0f:af:02:35:3e:b3:06:f2:85:ad:6d:d6:61:7f:ce:
                    36:92:b6:12:7e:12:0d:fd:79:0a:62:13:29:77:1e:
                    74:f5:b1:4c:f4:50:53:8e:2d:7d:2c:52:a6:f3:1d:
                    bd:47:86:c8:8a:31:0b:75:18:77:38:7e:17:da:8e:
                    3b:24:cd:04:1f:52:7a:8a:82:4f:3f:4a:65:aa:16:
                    ce:6d:4a:b9:74:07:c7:bb:20:2a:ba:93:04:14:4c:
                    c5:b5:4d:aa:17:43:e3:6f:e2:21:59:26:82:4b:5a:
                    2d:73
                Exponent: 65537 (0x10001)
        X509v3 extensions:
            X509v3 Basic Constraints: 
                CA:FALSE
            X509v3 Subject Key Identifier: 
                8C:A2:C6:D3:1D:6C:A1:E4:54:3D:DE:06:17:21:0A:0B:E7:65:82:6D
            X509v3 Authority Key Identifier: 
                keyid:76:2D:9A:49:0D:1F:5C:10:26:1E:D0:58:72:6E:3B:A7:00:C4:4C:9B
                DirName:/CN=team98-net
                serial:17:23:6D:44:8D:32:52:1D:D0:D4:2F:81:F5:31:71:EC:93:73:BC:B9
            X509v3 Extended Key Usage: 
                TLS Web Client Authentication
            X509v3 Key Usage: 
                Digital Signature
    Signature Algorithm: sha256WithRSAEncryption
    Signature Value:
        80:0e:88:46:50:20:91:d4:29:b0:2a:77:5a:c5:5a:4e:29:45:
        bb:64:77:ef:a0:38:74:74:8e:7a:de:3a:72:a5:9b:88:2f:3e:
        78:5f:61:f0:eb:9f:77:04:e5:19:20:82:01:f1:01:91:04:4a:
        93:18:f0:48:7d:62:b8:da:80:2e:c0:46:6b:ad:24:74:9a:21:
        71:40:db:14:46:de:e3:82:cf:fe:ea:a0:91:53:67:7c:e2:0d:
        de:8b:65:ab:04:51:30:ee:bb:c3:fa:16:dc:21:d9:f3:99:23:
        86:3a:b7:0d:0a:8c:61:56:8b:f5:ee:f3:cf:77:bb:ce:b2:28:
        16:0a:59:1a:7e:0b:d3:0d:88:8a:6e:a8:08:2b:00:db:a8:ff:
        8d:87:7c:83:ce:92:59:f3:45:56:2c:e0:53:b3:d3:5e:00:f6:
        70:7a:da:93:f4:70:71:02:dc:0e:d4:53:50:0d:43:d0:8d:63:
        b6:f2:f2:f6:c9:b9:bf:11:d0:86:85:8e:66:9b:b9:d2:fa:b0:
        7e:a5:ad:63:02:32:df:65:5b:9e:d8:66:8d:8e:e6:78:b3:cb:
        18:cb:03:35:ec:ea:b7:01:72:b8:d7:0a:89:42:d1:d8:c8:8d:
        6e:4e:79:6a:c9:7b:63:3c:e5:fe:9e:e0:dc:8a:5a:4a:61:80:
        e6:b7:87:8b
-----BEGIN CERTIFICATE-----
MIIDWjCCAkKgAwIBAgIRAIu62X1K2uts5ONkXPbYxoYwDQYJKoZIhvcNAQELBQAw
FTETMBEGA1UEAwwKdGVhbTk4LW5ldDAeFw0yMzExMDQxMTI5MTlaFw0yNjEwMTkx
MTI5MTlaMBgxFjAUBgNVBAMMDXRlYW05OC1jbGllbnQwggEiMA0GCSqGSIb3DQEB
AQUAA4IBDwAwggEKAoIBAQC0O/7h9zP7c7digRNw62CKaC33iQrri/P3aqRIHBlI
6K3fdrTbOqZVGGt/TXFy1avNu4xGz79HfQxV3WbvI1fXFBhiBXdL3bKKZNMvcNzI
4rQNgEHKRm25888pFBE+4Z/1LqFeSRhZNfCEmANtfcfUY+SV6B+216zSYMkyRz4M
nTB4LrPr1ppoqTNFa2uyLGPyCZEIwQ+vAjU+swbyha1t1mF/zjaSthJ+Eg39eQpi
Eyl3HnT1sUz0UFOOLX0sUqbzHb1HhsiKMQt1GHc4fhfajjskzQQfUnqKgk8/SmWq
Fs5tSrl0B8e7ICq6kwQUTMW1TaoXQ+Nv4iFZJoJLWi1zAgMBAAGjgaEwgZ4wCQYD
VR0TBAIwADAdBgNVHQ4EFgQUjKLG0x1soeRUPd4GFyEKC+dlgm0wUAYDVR0jBEkw
R4AUdi2aSQ0fXBAmHtBYcm47pwDETJuhGaQXMBUxEzARBgNVBAMMCnRlYW05OC1u
ZXSCFBcjbUSNMlId0NQvgfUxceyTc7y5MBMGA1UdJQQMMAoGCCsGAQUFBwMCMAsG
A1UdDwQEAwIHgDANBgkqhkiG9w0BAQsFAAOCAQEAgA6IRlAgkdQpsCp3WsVaTilF
u2R376A4dHSOet46cqWbiC8+eF9h8OufdwTlGSCCAfEBkQRKkxjwSH1iuNqALsBG
a60kdJohcUDbFEbe44LP/uqgkVNnfOIN3otlqwRRMO67w/oW3CHZ85kjhjq3DQqM
YVaL9e7zz3e7zrIoFgpZGn4L0w2Iim6oCCsA26j/jYd8g86SWfNFVizgU7PTXgD2
cHrak/RwcQLcDtRTUA1D0I1jtvLy9sm5vxHQhoWOZpu50vqwfqWtYwIy32Vbnthm
jY7meLPLGMsDNezqtwFyuNcKiULR2MiNbk55asl7Yzzl/p7g3IpaSmGA5reHiw==
-----END CERTIFICATE-----
