Certificate:
    Data:
        Version: 3 (0x2)
        Serial Number:
            e0:c8:ff:86:50:f5:4e:ba:c6:e3:00:c6:37:50:a0:12
        Signature Algorithm: sha256WithRSAEncryption
        Issuer: CN=team98-net
        Validity
            Not Before: Nov  4 10:42:15 2023 GMT
            Not After : Oct 19 10:42:15 2026 GMT
        Subject: CN=team98-client
        Subject Public Key Info:
            Public Key Algorithm: rsaEncryption
                Public-Key: (2048 bit)
                Modulus:
                    00:cf:b9:ca:49:b2:88:2b:be:36:70:6b:cb:13:dd:
                    69:2b:eb:0b:b6:7b:37:a0:b6:36:be:b2:78:2d:57:
                    4c:a0:bb:5d:94:1c:d3:0b:94:f9:0e:41:a9:86:c7:
                    ff:8f:7b:f5:f1:af:32:56:9c:a4:08:35:d3:52:b9:
                    65:a1:5a:a1:17:20:6b:1b:ed:15:e6:b6:d6:6b:f4:
                    45:8f:d6:e3:2c:fe:d9:36:d8:97:9a:d8:d5:fb:e5:
                    bb:8d:46:69:63:10:b1:8f:81:52:50:29:d5:40:15:
                    78:57:3d:d1:37:86:7f:f4:29:bd:f0:62:6c:2e:78:
                    06:5e:ae:e9:7e:05:f2:f7:af:7f:bd:c5:a1:84:ad:
                    01:2c:46:04:a0:21:b9:78:e9:b7:57:5a:02:c9:c0:
                    90:f0:01:77:f0:0b:be:cb:9b:98:17:76:47:c5:c5:
                    12:0a:79:e2:7e:10:60:c4:af:d5:cb:21:b7:90:3e:
                    e5:1b:0a:b4:c4:82:f1:8b:21:42:68:a0:3b:b0:ca:
                    a1:e2:9c:02:16:09:ac:3f:02:0f:5d:e9:0b:d5:ac:
                    fd:93:ae:d2:eb:07:d5:b7:d9:89:e7:5a:51:54:80:
                    92:cc:ac:42:a4:3d:54:d2:5e:d9:a0:1a:34:c1:c6:
                    57:6c:6a:6b:08:65:cd:82:6a:72:4d:70:a2:eb:e8:
                    14:85
                Exponent: 65537 (0x10001)
        X509v3 extensions:
            X509v3 Basic Constraints: 
                CA:FALSE
            X509v3 Subject Key Identifier: 
                EF:06:16:5A:C4:1C:94:2D:1A:FE:CF:0C:A5:CD:1B:16:15:84:1C:B9
            X509v3 Authority Key Identifier: 
                keyid:CF:57:A6:55:F2:63:FE:2C:4C:11:8E:20:4D:19:3F:F4:F7:65:CD:AA
                DirName:/CN=team98-net
                serial:73:9E:29:1E:D7:53:52:93:33:20:3C:9A:9E:4B:D0:B0:F6:2C:CF:F5
            X509v3 Extended Key Usage: 
                TLS Web Client Authentication
            X509v3 Key Usage: 
                Digital Signature
    Signature Algorithm: sha256WithRSAEncryption
    Signature Value:
        79:cc:b8:28:9d:33:37:28:d8:cc:3c:fa:78:d1:48:8b:18:1d:
        5f:72:ba:f2:fd:8b:bd:70:05:bd:b2:64:be:75:7d:ff:75:f4:
        a5:cd:24:01:ed:58:88:07:2f:f5:fc:4c:3a:75:b9:59:53:15:
        93:8b:3a:11:9d:9e:ce:13:9b:a2:0e:7a:d1:3c:2e:de:b1:d2:
        b0:c3:cd:ca:13:09:96:a8:d7:5f:42:04:70:1f:33:cf:68:35:
        3e:7c:dd:d8:74:0f:85:4a:7f:0f:2b:d5:41:e8:63:ae:46:e8:
        a5:1a:e8:e8:72:aa:b4:d6:34:28:27:a9:26:84:b3:4a:62:cc:
        1b:03:d5:33:a0:07:31:c1:74:36:8d:a5:ab:04:cf:e1:06:be:
        f4:f8:aa:5f:a2:21:42:41:98:05:45:6f:6c:86:31:49:2a:42:
        03:9e:4f:47:f3:b3:85:4c:fc:d6:cf:b7:a3:b6:dd:7e:ec:8d:
        42:f1:44:ba:c3:d5:b5:71:12:09:fb:65:cb:8c:0d:f9:c0:b6:
        4a:ff:6c:b5:e5:bc:d8:28:5e:f5:36:83:13:b6:db:9a:23:01:
        3e:5e:80:df:d4:a4:ba:33:07:e5:f2:03:83:9e:cc:fd:32:f6:
        0e:bb:56:8a:d6:5f:6c:a1:4f:a6:99:83:f0:51:15:46:cb:73:
        b6:67:df:5c
-----BEGIN CERTIFICATE-----
MIIDWjCCAkKgAwIBAgIRAODI/4ZQ9U66xuMAxjdQoBIwDQYJKoZIhvcNAQELBQAw
FTETMBEGA1UEAwwKdGVhbTk4LW5ldDAeFw0yMzExMDQxMDQyMTVaFw0yNjEwMTkx
MDQyMTVaMBgxFjAUBgNVBAMMDXRlYW05OC1jbGllbnQwggEiMA0GCSqGSIb3DQEB
AQUAA4IBDwAwggEKAoIBAQDPucpJsogrvjZwa8sT3Wkr6wu2ezegtja+sngtV0yg
u12UHNMLlPkOQamGx/+Pe/XxrzJWnKQINdNSuWWhWqEXIGsb7RXmttZr9EWP1uMs
/tk22Jea2NX75buNRmljELGPgVJQKdVAFXhXPdE3hn/0Kb3wYmwueAZerul+BfL3
r3+9xaGErQEsRgSgIbl46bdXWgLJwJDwAXfwC77Lm5gXdkfFxRIKeeJ+EGDEr9XL
IbeQPuUbCrTEgvGLIUJooDuwyqHinAIWCaw/Ag9d6QvVrP2TrtLrB9W32YnnWlFU
gJLMrEKkPVTSXtmgGjTBxldsamsIZc2CanJNcKLr6BSFAgMBAAGjgaEwgZ4wCQYD
VR0TBAIwADAdBgNVHQ4EFgQU7wYWWsQclC0a/s8Mpc0bFhWEHLkwUAYDVR0jBEkw
R4AUz1emVfJj/ixMEY4gTRk/9PdlzaqhGaQXMBUxEzARBgNVBAMMCnRlYW05OC1u
ZXSCFHOeKR7XU1KTMyA8mp5L0LD2LM/1MBMGA1UdJQQMMAoGCCsGAQUFBwMCMAsG
A1UdDwQEAwIHgDANBgkqhkiG9w0BAQsFAAOCAQEAecy4KJ0zNyjYzDz6eNFIixgd
X3K68v2LvXAFvbJkvnV9/3X0pc0kAe1YiAcv9fxMOnW5WVMVk4s6EZ2ezhObog56
0Twu3rHSsMPNyhMJlqjXX0IEcB8zz2g1Pnzd2HQPhUp/DyvVQehjrkbopRro6HKq
tNY0KCepJoSzSmLMGwPVM6AHMcF0No2lqwTP4Qa+9PiqX6IhQkGYBUVvbIYxSSpC
A55PR/OzhUz81s+3o7bdfuyNQvFEusPVtXESCftly4wN+cC2Sv9steW82Che9TaD
E7bbmiMBPl6A39SkujMH5fIDg57M/TL2DrtWitZfbKFPppmD8FEVRstztmffXA==
-----END CERTIFICATE-----
