Certificate:
    Data:
        Version: 3 (0x2)
        Serial Number:
            3e:00:4e:b0:1d:e9:5f:fa:78:5f:86:a5:64:91:ef:5a
        Signature Algorithm: sha256WithRSAEncryption
        Issuer: CN=team411-net
        Validity
            Not Before: Nov  4 10:48:02 2023 GMT
            Not After : Oct 19 10:48:02 2026 GMT
        Subject: CN=team411-server
        Subject Public Key Info:
            Public Key Algorithm: rsaEncryption
                Public-Key: (2048 bit)
                Modulus:
                    00:f8:33:49:91:50:84:65:66:b1:71:85:47:80:49:
                    a0:47:36:c0:41:c3:a6:71:0f:8a:d1:f9:2d:9c:c9:
                    eb:27:88:0a:e5:6a:6f:5c:eb:3b:1b:a7:26:e6:94:
                    cf:56:55:af:5d:0d:fa:48:b9:9f:d9:80:c6:6c:8b:
                    2b:8a:28:7e:8a:0b:7a:ec:8e:36:5f:38:57:8e:c6:
                    7e:2c:01:58:aa:e4:4b:11:8a:89:c4:a3:4c:d8:58:
                    57:ae:17:10:e3:d3:df:49:a8:e2:39:c7:3a:81:45:
                    a5:30:ff:4a:7c:15:30:cb:97:99:63:5b:15:e9:d6:
                    ce:08:6e:23:6b:d7:1a:82:76:97:88:34:9b:63:0a:
                    03:f2:e3:0f:16:85:b4:f8:3a:a6:bb:34:d7:ff:db:
                    ad:37:94:79:b6:af:d1:1b:91:5f:bb:a7:8c:2c:d8:
                    e5:93:1c:3f:83:fb:ea:8f:30:7c:97:e2:e6:6b:bc:
                    d3:bc:d0:e8:7a:ea:5d:5e:f6:c8:7f:41:8d:3b:c9:
                    25:01:83:4b:2c:a2:b2:b5:4c:4d:84:52:55:04:4d:
                    10:e1:66:86:ea:e1:63:12:c9:ef:11:38:47:5e:c5:
                    6e:2e:8d:1b:03:b9:6a:73:46:b5:4f:b6:f6:2f:62:
                    36:f9:fc:72:d2:d1:88:9a:6f:d8:21:0c:9c:1f:e4:
                    77:2d
                Exponent: 65537 (0x10001)
        X509v3 extensions:
            X509v3 Basic Constraints: 
                CA:FALSE
            X509v3 Subject Key Identifier: 
                E4:55:F9:9B:B3:E0:4C:FB:A7:1A:22:A8:4F:DC:93:D2:73:DA:10:51
            X509v3 Authority Key Identifier: 
                keyid:96:6F:93:18:4A:9E:8C:B6:04:9F:78:02:5D:88:11:B9:57:38:48:98
                DirName:/CN=team411-net
                serial:44:28:AA:E6:F2:50:4A:A1:C8:2F:1E:5C:C8:AA:13:75:83:6A:A4:22
            X509v3 Extended Key Usage: 
                TLS Web Server Authentication
            X509v3 Key Usage: 
                Digital Signature, Key Encipherment
            X509v3 Subject Alternative Name: 
                DNS:team411-server
    Signature Algorithm: sha256WithRSAEncryption
    Signature Value:
        2d:e8:12:ab:11:9c:92:25:4b:14:16:49:1a:43:1e:12:d5:f4:
        3e:35:b0:36:78:0b:6e:a1:eb:fb:fe:dc:ac:ed:8d:38:5b:92:
        2f:4c:94:20:85:54:10:4c:97:52:45:cb:72:0e:ca:e9:da:f3:
        3b:89:e9:30:fd:84:52:ca:67:2c:4b:4c:22:9c:05:36:ed:07:
        dd:b2:9d:83:ca:f1:12:18:64:01:78:fa:39:3c:6f:d8:dc:08:
        d5:4c:da:c6:d2:e5:03:2d:09:7e:e0:8a:d7:c0:15:8e:d8:71:
        07:c2:6f:ff:c2:59:6f:5b:48:cd:e3:cf:f9:41:09:02:9e:cd:
        e4:0b:28:ac:7f:c4:07:dd:0c:67:5b:96:11:2d:51:bb:b3:ff:
        43:6d:70:02:f7:c7:34:87:84:8c:7a:4b:dd:10:73:7a:3b:d1:
        6d:96:33:7b:2c:12:97:d5:63:14:e1:90:cf:d6:20:2c:fa:0b:
        f3:43:f2:e6:4c:bd:4d:ed:8d:68:5c:5d:d7:e5:99:3f:f2:65:
        5b:ff:4c:b9:55:86:86:5e:26:19:35:c7:e3:a6:e7:cd:0c:c8:
        ef:b0:7f:75:ae:7a:70:c4:20:42:21:29:8e:03:1a:26:c8:58:
        a9:6a:dc:b8:39:1e:a8:27:e7:03:9e:24:cd:f9:52:97:1a:ad:
        c7:bf:45:ea
-----BEGIN CERTIFICATE-----
MIIDdzCCAl+gAwIBAgIQPgBOsB3pX/p4X4alZJHvWjANBgkqhkiG9w0BAQsFADAW
MRQwEgYDVQQDDAt0ZWFtNDExLW5ldDAeFw0yMzExMDQxMDQ4MDJaFw0yNjEwMTkx
MDQ4MDJaMBkxFzAVBgNVBAMMDnRlYW00MTEtc2VydmVyMIIBIjANBgkqhkiG9w0B
AQEFAAOCAQ8AMIIBCgKCAQEA+DNJkVCEZWaxcYVHgEmgRzbAQcOmcQ+K0fktnMnr
J4gK5WpvXOs7G6cm5pTPVlWvXQ36SLmf2YDGbIsriih+igt67I42XzhXjsZ+LAFY
quRLEYqJxKNM2FhXrhcQ49PfSajiOcc6gUWlMP9KfBUwy5eZY1sV6dbOCG4ja9ca
gnaXiDSbYwoD8uMPFoW0+DqmuzTX/9utN5R5tq/RG5Ffu6eMLNjlkxw/g/vqjzB8
l+Lma7zTvNDoeupdXvbIf0GNO8klAYNLLKKytUxNhFJVBE0Q4WaG6uFjEsnvEThH
XsVuLo0bA7lqc0a1T7b2L2I2+fxy0tGImm/YIQycH+R3LQIDAQABo4G9MIG6MAkG
A1UdEwQCMAAwHQYDVR0OBBYEFORV+Zuz4Ez7pxoiqE/ck9Jz2hBRMFEGA1UdIwRK
MEiAFJZvkxhKnoy2BJ94Al2IEblXOEiYoRqkGDAWMRQwEgYDVQQDDAt0ZWFtNDEx
LW5ldIIURCiq5vJQSqHILx5cyKoTdYNqpCIwEwYDVR0lBAwwCgYIKwYBBQUHAwEw
CwYDVR0PBAQDAgWgMBkGA1UdEQQSMBCCDnRlYW00MTEtc2VydmVyMA0GCSqGSIb3
DQEBCwUAA4IBAQAt6BKrEZySJUsUFkkaQx4S1fQ+NbA2eAtuoev7/tys7Y04W5Iv
TJQghVQQTJdSRctyDsrp2vM7iekw/YRSymcsS0winAU27Qfdsp2DyvESGGQBePo5
PG/Y3AjVTNrG0uUDLQl+4IrXwBWO2HEHwm//wllvW0jN48/5QQkCns3kCyisf8QH
3QxnW5YRLVG7s/9DbXAC98c0h4SMekvdEHN6O9FtljN7LBKX1WMU4ZDP1iAs+gvz
Q/LmTL1N7Y1oXF3X5Zk/8mVb/0y5VYaGXiYZNcfjpufNDMjvsH91rnpwxCBCISmO
AxomyFipaty4OR6oJ+cDniTN+VKXGq3Hv0Xq
-----END CERTIFICATE-----
