Certificate:
    Data:
        Version: 3 (0x2)
        Serial Number:
            41:23:9c:01:63:ac:33:40:e7:cd:07:46:31:f3:12:2a
        Signature Algorithm: sha256WithRSAEncryption
        Issuer: CN=team411-net
        Validity
            Not Before: Nov  3 20:46:41 2023 GMT
            Not After : Oct 18 20:46:41 2026 GMT
        Subject: CN=team411-client
        Subject Public Key Info:
            Public Key Algorithm: rsaEncryption
                Public-Key: (2048 bit)
                Modulus:
                    00:d8:e0:db:e5:28:12:00:30:b5:9e:d2:64:91:84:
                    46:db:14:58:e5:6b:26:c3:09:e7:8e:f8:f5:66:a4:
                    4d:c2:64:cc:2f:76:d1:fa:b1:ce:1f:73:80:21:d9:
                    2e:d5:e6:d1:ca:31:9c:fd:36:58:b3:34:ff:ff:79:
                    6e:33:87:8e:b9:77:ce:7b:5b:6d:4a:f0:f4:3e:c2:
                    69:3c:e6:e2:79:5e:87:3d:47:06:5f:7e:54:12:c5:
                    b5:74:4a:e0:61:35:3c:1d:c2:68:4c:6f:58:16:32:
                    4b:07:ee:47:ab:66:e4:8b:d5:fc:77:4f:a8:9a:03:
                    bb:e9:4b:20:21:ea:ec:02:f5:11:0f:72:dd:77:12:
                    48:02:e0:03:4a:a4:7a:4c:74:83:ce:90:f6:1b:d5:
                    4e:6a:2c:ed:af:a4:e6:32:34:85:a8:e3:26:3b:8f:
                    aa:d0:4b:8a:36:cc:5a:27:8c:40:bd:2d:af:14:f9:
                    53:44:f0:1d:41:cc:0a:05:47:d3:d9:af:e3:18:a4:
                    94:7e:19:92:e4:db:32:b6:43:20:e0:7a:de:8d:37:
                    cb:3f:f2:c8:8f:d4:8d:82:18:12:bd:15:91:2d:6b:
                    21:74:34:de:2d:a5:b2:ed:54:18:97:8d:b8:c1:6f:
                    ec:8a:91:11:8b:05:80:08:52:ff:f8:54:dc:f4:71:
                    ba:0d
                Exponent: 65537 (0x10001)
        X509v3 extensions:
            X509v3 Basic Constraints: 
                CA:FALSE
            X509v3 Subject Key Identifier: 
                61:D5:4E:9D:D2:E5:0C:02:AD:C6:CD:E3:8F:AF:F5:E8:85:C7:25:A1
            X509v3 Authority Key Identifier: 
                keyid:14:4F:BB:A3:F4:01:01:71:6B:D9:C2:CE:E3:2E:1F:A3:61:41:41:46
                DirName:/CN=team411-net
                serial:2E:9B:F6:F2:B8:14:86:94:6F:0E:72:AA:6F:0D:17:15:1E:0C:49:37
            X509v3 Extended Key Usage: 
                TLS Web Client Authentication
            X509v3 Key Usage: 
                Digital Signature
    Signature Algorithm: sha256WithRSAEncryption
    Signature Value:
        5d:f8:97:6e:0b:2a:b3:c6:22:79:50:9d:1b:ab:d0:d6:3f:18:
        cb:f6:20:a0:10:83:68:91:3e:fe:ef:a3:95:e3:18:b2:28:d6:
        81:f2:a6:f0:bd:5b:28:74:aa:c4:d7:3c:04:3d:0e:e0:93:64:
        ef:c7:2b:ee:1a:3c:64:b6:5b:09:6d:41:dd:f7:0d:31:25:48:
        9e:87:c8:3f:64:68:6b:23:c7:22:7a:a8:53:69:e9:37:64:48:
        af:c0:35:3d:5b:2e:2b:bd:67:b5:93:3c:ce:29:8a:df:89:7b:
        e1:fb:67:3e:7b:7d:16:19:c4:69:2c:e3:7b:a7:3e:7b:60:29:
        7e:9b:88:bd:29:cf:4c:bc:0d:cd:93:d5:6c:7b:96:6a:af:90:
        04:18:fb:4d:3c:cb:23:be:a7:c4:b4:08:85:c6:43:2b:1e:6d:
        c4:1e:94:58:52:e0:cc:14:c2:b1:19:fc:00:b9:ea:c5:3b:2b:
        48:35:68:22:31:bc:92:2d:9e:d7:b2:ef:df:48:ac:a6:dd:4d:
        b1:af:00:51:21:b3:03:92:41:98:fe:41:63:8b:79:b9:dc:61:
        9b:48:62:61:98:9e:1f:5b:a0:3b:fe:2a:c2:46:c0:9c:a6:ce:
        42:7d:50:d2:c4:3a:e7:43:4b:d8:66:54:40:81:41:bb:d1:01:
        34:c7:e3:5e
-----BEGIN CERTIFICATE-----
MIIDXDCCAkSgAwIBAgIQQSOcAWOsM0DnzQdGMfMSKjANBgkqhkiG9w0BAQsFADAW
MRQwEgYDVQQDDAt0ZWFtNDExLW5ldDAeFw0yMzExMDMyMDQ2NDFaFw0yNjEwMTgy
MDQ2NDFaMBkxFzAVBgNVBAMMDnRlYW00MTEtY2xpZW50MIIBIjANBgkqhkiG9w0B
AQEFAAOCAQ8AMIIBCgKCAQEA2ODb5SgSADC1ntJkkYRG2xRY5Wsmwwnnjvj1ZqRN
wmTML3bR+rHOH3OAIdku1ebRyjGc/TZYszT//3luM4eOuXfOe1ttSvD0PsJpPObi
eV6HPUcGX35UEsW1dErgYTU8HcJoTG9YFjJLB+5Hq2bki9X8d0+omgO76UsgIers
AvURD3LddxJIAuADSqR6THSDzpD2G9VOaiztr6TmMjSFqOMmO4+q0EuKNsxaJ4xA
vS2vFPlTRPAdQcwKBUfT2a/jGKSUfhmS5NsytkMg4HrejTfLP/LIj9SNghgSvRWR
LWshdDTeLaWy7VQYl424wW/sipERiwWACFL/+FTc9HG6DQIDAQABo4GiMIGfMAkG
A1UdEwQCMAAwHQYDVR0OBBYEFGHVTp3S5QwCrcbN44+v9eiFxyWhMFEGA1UdIwRK
MEiAFBRPu6P0AQFxa9nCzuMuH6NhQUFGoRqkGDAWMRQwEgYDVQQDDAt0ZWFtNDEx
LW5ldIIULpv28rgUhpRvDnKqbw0XFR4MSTcwEwYDVR0lBAwwCgYIKwYBBQUHAwIw
CwYDVR0PBAQDAgeAMA0GCSqGSIb3DQEBCwUAA4IBAQBd+JduCyqzxiJ5UJ0bq9DW
PxjL9iCgEINokT7+76OV4xiyKNaB8qbwvVsodKrE1zwEPQ7gk2TvxyvuGjxktlsJ
bUHd9w0xJUieh8g/ZGhrI8cieqhTaek3ZEivwDU9Wy4rvWe1kzzOKYrfiXvh+2c+
e30WGcRpLON7pz57YCl+m4i9Kc9MvA3Nk9Vse5Zqr5AEGPtNPMsjvqfEtAiFxkMr
Hm3EHpRYUuDMFMKxGfwAuerFOytINWgiMbySLZ7Xsu/fSKym3U2xrwBRIbMDkkGY
/kFji3m53GGbSGJhmJ4fW6A7/irCRsCcps5CfVDSxDrnQ0vYZlRAgUG70QE0x+Ne
-----END CERTIFICATE-----
