Certificate:
    Data:
        Version: 3 (0x2)
        Serial Number:
            9a:e9:1f:30:f1:9d:69:96:ce:68:b6:65:38:f9:80:26
        Signature Algorithm: sha256WithRSAEncryption
        Issuer: CN=team411-net
        Validity
            Not Before: Nov  4 10:48:02 2023 GMT
            Not After : Oct 19 10:48:02 2026 GMT
        Subject: CN=team411-client
        Subject Public Key Info:
            Public Key Algorithm: rsaEncryption
                Public-Key: (2048 bit)
                Modulus:
                    00:9d:53:4a:eb:8f:69:97:44:62:ff:33:e5:3a:67:
                    48:80:cb:92:0e:02:89:15:0c:3a:a4:0e:16:11:2f:
                    36:35:51:a2:25:27:9c:dc:3d:8f:e5:ab:ff:44:0f:
                    36:ae:0b:46:af:f9:51:19:df:1e:cf:41:b2:2a:60:
                    55:2e:2d:ae:52:93:26:41:9e:09:a2:03:4b:c8:6b:
                    60:ec:91:ee:0d:e4:37:35:92:32:a2:8c:35:8c:53:
                    b6:13:f3:60:09:ed:ff:df:c5:4a:ad:25:ac:b5:d1:
                    f3:b5:4e:77:7f:b4:f9:28:18:49:06:9f:c8:53:3b:
                    97:48:85:6b:06:0b:72:c6:72:6f:64:a8:d7:33:04:
                    19:a4:ea:f0:d5:10:4d:ee:dc:2f:89:d0:39:22:31:
                    d8:d4:b1:ca:b4:77:e1:aa:82:96:61:58:be:c2:5e:
                    1b:e1:16:29:a4:d5:ac:87:64:cd:aa:2c:fe:16:0b:
                    4d:b6:85:1d:9b:8e:38:3d:56:a4:2e:96:3d:7b:94:
                    49:23:2d:8c:ab:29:6c:e0:b3:a4:74:21:70:d8:b1:
                    e4:64:81:48:a5:3f:08:cd:d5:0b:b8:c6:a2:eb:c6:
                    0f:84:10:91:7b:e9:55:61:75:64:6b:b5:cb:e3:b8:
                    2c:04:f5:32:60:d0:f8:9a:fa:6b:7f:9f:79:46:b7:
                    22:91
                Exponent: 65537 (0x10001)
        X509v3 extensions:
            X509v3 Basic Constraints: 
                CA:FALSE
            X509v3 Subject Key Identifier: 
                94:47:33:C4:CC:02:98:82:4C:86:77:3F:E3:BB:F8:D7:71:44:CD:2F
            X509v3 Authority Key Identifier: 
                keyid:96:6F:93:18:4A:9E:8C:B6:04:9F:78:02:5D:88:11:B9:57:38:48:98
                DirName:/CN=team411-net
                serial:44:28:AA:E6:F2:50:4A:A1:C8:2F:1E:5C:C8:AA:13:75:83:6A:A4:22
            X509v3 Extended Key Usage: 
                TLS Web Client Authentication
            X509v3 Key Usage: 
                Digital Signature
    Signature Algorithm: sha256WithRSAEncryption
    Signature Value:
        25:c3:67:07:80:70:e1:3b:bf:f6:0d:27:6b:08:da:f5:94:29:
        1d:2a:4f:f8:63:b1:4b:e3:ee:12:59:82:c6:85:b7:14:8b:10:
        13:d9:ba:51:30:e0:20:1e:49:35:f3:78:82:67:e1:b1:18:1a:
        80:9a:75:7b:e6:2d:6b:cb:87:67:4c:72:2f:45:da:25:d6:1b:
        c3:11:d2:cf:3e:36:d3:fa:f6:5d:aa:11:2a:59:a3:3d:bd:d9:
        0a:b4:51:a2:d8:e3:29:15:72:e9:f1:c6:ba:af:00:c7:3b:8d:
        ac:2c:1e:8a:17:f9:06:f1:5a:e5:8e:35:15:2c:cc:5b:b9:1b:
        d1:d7:56:3d:59:20:c4:55:b5:c8:24:90:85:68:96:79:56:7a:
        24:0e:48:ec:be:49:50:9c:4d:db:df:37:3c:cf:4c:8d:e9:a0:
        51:a1:e8:39:70:dc:3d:92:2f:d5:65:77:eb:6a:53:5b:48:db:
        dd:51:38:26:fd:6d:48:e1:0d:41:86:cc:d7:c2:dc:6f:3e:bd:
        36:e2:67:05:bd:d3:0b:58:e3:cc:48:4c:3a:97:0a:b8:47:62:
        88:0e:90:fa:d6:e6:db:c9:4b:bc:39:9f:bf:b9:8f:7c:4c:e4:
        58:93:0f:61:fb:3c:11:1c:99:b6:2a:a8:9d:ad:16:12:9f:88:
        1d:1f:f6:7f
-----BEGIN CERTIFICATE-----
MIIDXTCCAkWgAwIBAgIRAJrpHzDxnWmWzmi2ZTj5gCYwDQYJKoZIhvcNAQELBQAw
FjEUMBIGA1UEAwwLdGVhbTQxMS1uZXQwHhcNMjMxMTA0MTA0ODAyWhcNMjYxMDE5
MTA0ODAyWjAZMRcwFQYDVQQDDA50ZWFtNDExLWNsaWVudDCCASIwDQYJKoZIhvcN
AQEBBQADggEPADCCAQoCggEBAJ1TSuuPaZdEYv8z5TpnSIDLkg4CiRUMOqQOFhEv
NjVRoiUnnNw9j+Wr/0QPNq4LRq/5URnfHs9BsipgVS4trlKTJkGeCaIDS8hrYOyR
7g3kNzWSMqKMNYxTthPzYAnt/9/FSq0lrLXR87VOd3+0+SgYSQafyFM7l0iFawYL
csZyb2So1zMEGaTq8NUQTe7cL4nQOSIx2NSxyrR34aqClmFYvsJeG+EWKaTVrIdk
zaos/hYLTbaFHZuOOD1WpC6WPXuUSSMtjKspbOCzpHQhcNix5GSBSKU/CM3VC7jG
ouvGD4QQkXvpVWF1ZGu1y+O4LAT1MmDQ+Jr6a3+feUa3IpECAwEAAaOBojCBnzAJ
BgNVHRMEAjAAMB0GA1UdDgQWBBSURzPEzAKYgkyGdz/ju/jXcUTNLzBRBgNVHSME
SjBIgBSWb5MYSp6MtgSfeAJdiBG5VzhImKEapBgwFjEUMBIGA1UEAwwLdGVhbTQx
MS1uZXSCFEQoqubyUEqhyC8eXMiqE3WDaqQiMBMGA1UdJQQMMAoGCCsGAQUFBwMC
MAsGA1UdDwQEAwIHgDANBgkqhkiG9w0BAQsFAAOCAQEAJcNnB4Bw4Tu/9g0nawja
9ZQpHSpP+GOxS+PuElmCxoW3FIsQE9m6UTDgIB5JNfN4gmfhsRgagJp1e+Yta8uH
Z0xyL0XaJdYbwxHSzz420/r2XaoRKlmjPb3ZCrRRotjjKRVy6fHGuq8AxzuNrCwe
ihf5BvFa5Y41FSzMW7kb0ddWPVkgxFW1yCSQhWiWeVZ6JA5I7L5JUJxN2983PM9M
jemgUaHoOXDcPZIv1WV362pTW0jb3VE4Jv1tSOENQYbM18Lcbz69NuJnBb3TC1jj
zEhMOpcKuEdiiA6Q+tbm28lLvDmfv7mPfEzkWJMPYfs8ERyZtiqona0WEp+IHR/2
fw==
-----END CERTIFICATE-----
