Certificate:
    Data:
        Version: 3 (0x2)
        Serial Number:
            c1:a4:bd:b5:19:30:48:23:80:72:96:04:14:51:c1:aa
        Signature Algorithm: sha256WithRSAEncryption
        Issuer: CN=team411-net
        Validity
            Not Before: Nov  4 11:36:44 2023 GMT
            Not After : Oct 19 11:36:44 2026 GMT
        Subject: CN=team411-client
        Subject Public Key Info:
            Public Key Algorithm: rsaEncryption
                Public-Key: (2048 bit)
                Modulus:
                    00:af:33:c6:55:d3:7f:bf:a4:58:ac:b6:36:f9:fe:
                    d4:f2:bf:90:50:d7:32:f9:e9:9a:f4:a8:39:09:fd:
                    69:1c:5f:99:da:04:99:20:51:46:83:a0:b7:32:e3:
                    c4:54:e1:f1:18:2d:91:01:df:6e:08:28:4d:f2:ea:
                    9f:32:4e:82:6b:40:05:93:fc:cf:e7:e0:16:02:4e:
                    87:50:c1:1e:76:1b:c7:9f:b8:90:3e:b8:f9:16:4b:
                    aa:a8:29:24:c4:55:db:9a:3b:c0:dd:94:c1:fb:51:
                    fb:cf:65:4c:b7:8f:e1:90:e4:20:54:fc:f1:b8:4d:
                    7d:6c:b5:b2:bc:45:9b:af:61:cb:43:5c:c0:f6:db:
                    d9:dd:cd:db:45:62:7c:2c:0a:4b:a8:bd:d5:06:c3:
                    5f:9a:93:14:80:0f:ab:69:05:89:ac:c8:c3:60:76:
                    56:bd:a6:1a:38:ba:b0:09:7e:d8:20:d2:6e:fc:13:
                    7e:53:16:b9:5a:6f:93:54:89:8a:6c:f6:12:6d:b1:
                    45:d6:d0:98:02:3d:e0:c5:4a:a6:6e:2a:5b:4b:07:
                    36:92:3c:a1:db:d8:d7:fd:69:35:0f:12:ad:f1:20:
                    a1:7a:24:14:e2:94:ea:0d:b6:79:42:22:2a:a7:6c:
                    23:08:d6:c8:6c:25:ef:e6:1a:41:31:8c:6f:90:2c:
                    66:c9
                Exponent: 65537 (0x10001)
        X509v3 extensions:
            X509v3 Basic Constraints: 
                CA:FALSE
            X509v3 Subject Key Identifier: 
                4F:CB:87:46:6F:F5:1C:AD:18:00:1D:34:31:CD:F4:94:05:B2:FB:B1
            X509v3 Authority Key Identifier: 
                keyid:65:7B:C7:04:9E:D4:5D:DD:BF:27:4E:1D:CC:7C:70:12:D8:78:3F:77
                DirName:/CN=team411-net
                serial:46:E3:FD:CC:29:70:37:53:D4:1F:9C:B4:D5:79:A1:56:2F:89:26:0B
            X509v3 Extended Key Usage: 
                TLS Web Client Authentication
            X509v3 Key Usage: 
                Digital Signature
    Signature Algorithm: sha256WithRSAEncryption
    Signature Value:
        8b:86:88:02:c4:f6:f6:4a:a1:af:cb:68:e4:d6:ce:24:c7:69:
        62:22:a8:af:ac:03:e7:e9:76:66:8b:a5:d0:e1:4b:73:14:d9:
        4b:03:67:6c:43:7e:3b:94:09:0f:45:ba:f7:ec:a5:86:dd:52:
        8d:9a:31:cf:2b:35:e7:d7:ff:7c:59:73:d7:38:fb:e7:83:1f:
        3a:e1:36:b8:ac:24:59:a3:3c:8b:76:8d:e5:19:60:cc:d6:4c:
        22:f4:e0:86:d1:a8:52:3e:1d:be:58:9d:e7:2c:44:87:37:a0:
        8c:8a:fe:fa:5a:92:cd:d6:28:bb:84:c2:00:c0:2a:e7:cb:cd:
        d9:88:d2:e2:26:74:b9:5f:c2:ff:25:30:c3:cf:6e:50:d9:d9:
        70:c9:6e:b0:47:47:0e:52:02:d7:50:14:be:7d:d2:b3:67:d4:
        af:f8:a5:76:3b:f1:ad:7d:d4:36:a0:70:89:0f:f6:9c:b2:c1:
        8b:44:46:7b:a0:59:58:d8:6f:53:45:f4:08:81:bb:ce:61:fe:
        3a:64:72:e9:43:e0:f8:dc:b5:9e:de:ac:3f:b2:45:6d:85:e4:
        3c:bb:e3:8a:a8:a0:ec:c0:f0:e7:ca:4c:3c:56:36:89:51:a7:
        ed:de:45:99:68:01:f4:76:0b:56:1d:d1:47:79:1a:1d:f6:bd:
        49:49:a5:50
-----BEGIN CERTIFICATE-----
MIIDXTCCAkWgAwIBAgIRAMGkvbUZMEgjgHKWBBRRwaowDQYJKoZIhvcNAQELBQAw
FjEUMBIGA1UEAwwLdGVhbTQxMS1uZXQwHhcNMjMxMTA0MTEzNjQ0WhcNMjYxMDE5
MTEzNjQ0WjAZMRcwFQYDVQQDDA50ZWFtNDExLWNsaWVudDCCASIwDQYJKoZIhvcN
AQEBBQADggEPADCCAQoCggEBAK8zxlXTf7+kWKy2Nvn+1PK/kFDXMvnpmvSoOQn9
aRxfmdoEmSBRRoOgtzLjxFTh8RgtkQHfbggoTfLqnzJOgmtABZP8z+fgFgJOh1DB
HnYbx5+4kD64+RZLqqgpJMRV25o7wN2UwftR+89lTLeP4ZDkIFT88bhNfWy1srxF
m69hy0NcwPbb2d3N20VifCwKS6i91QbDX5qTFIAPq2kFiazIw2B2Vr2mGji6sAl+
2CDSbvwTflMWuVpvk1SJimz2Em2xRdbQmAI94MVKpm4qW0sHNpI8odvY1/1pNQ8S
rfEgoXokFOKU6g22eUIiKqdsIwjWyGwl7+YaQTGMb5AsZskCAwEAAaOBojCBnzAJ
BgNVHRMEAjAAMB0GA1UdDgQWBBRPy4dGb/UcrRgAHTQxzfSUBbL7sTBRBgNVHSME
SjBIgBRle8cEntRd3b8nTh3MfHAS2Hg/d6EapBgwFjEUMBIGA1UEAwwLdGVhbTQx
MS1uZXSCFEbj/cwpcDdT1B+ctNV5oVYviSYLMBMGA1UdJQQMMAoGCCsGAQUFBwMC
MAsGA1UdDwQEAwIHgDANBgkqhkiG9w0BAQsFAAOCAQEAi4aIAsT29kqhr8to5NbO
JMdpYiKor6wD5+l2Zoul0OFLcxTZSwNnbEN+O5QJD0W69+ylht1SjZoxzys159f/
fFlz1zj754MfOuE2uKwkWaM8i3aN5RlgzNZMIvTghtGoUj4dvlid5yxEhzegjIr+
+lqSzdYou4TCAMAq58vN2YjS4iZ0uV/C/yUww89uUNnZcMlusEdHDlIC11AUvn3S
s2fUr/ildjvxrX3UNqBwiQ/2nLLBi0RGe6BZWNhvU0X0CIG7zmH+OmRy6UPg+Ny1
nt6sP7JFbYXkPLvjiqig7MDw58pMPFY2iVGn7d5FmWgB9HYLVh3RR3kaHfa9SUml
UA==
-----END CERTIFICATE-----
