Certificate:
    Data:
        Version: 3 (0x2)
        Serial Number:
            ce:8c:38:27:2c:ea:21:e5:b7:81:4d:cc:51:2f:ef:d2
        Signature Algorithm: sha256WithRSAEncryption
        Issuer: CN=team411-net
        Validity
            Not Before: Nov  4 11:36:44 2023 GMT
            Not After : Oct 19 11:36:44 2026 GMT
        Subject: CN=team411-server
        Subject Public Key Info:
            Public Key Algorithm: rsaEncryption
                Public-Key: (2048 bit)
                Modulus:
                    00:8f:f2:b2:f3:ae:52:3c:e2:58:69:ca:3d:18:4e:
                    a7:87:6e:46:4e:2c:85:ca:52:e7:af:b0:3b:cb:86:
                    aa:d6:4d:f0:21:f6:ba:da:3e:c3:46:58:4c:82:73:
                    0a:67:89:cb:77:b3:0c:42:fb:20:75:5c:43:24:c8:
                    9d:64:4c:24:c6:81:f0:d7:99:35:16:6b:65:f6:4b:
                    4b:a0:49:93:fd:ea:31:1e:38:16:2c:b6:6c:74:3d:
                    59:f6:af:49:54:41:1f:38:f8:81:03:ae:42:35:df:
                    8b:5b:1d:2d:af:f2:f7:7a:b7:b2:67:c2:14:c0:2f:
                    53:de:de:fc:fe:b7:9b:c9:2d:c3:b9:63:b2:ad:fa:
                    00:fc:f0:fa:23:12:fc:0c:eb:b6:d2:67:42:7d:8e:
                    27:77:99:62:41:20:5c:98:c9:4f:d9:35:1c:6f:95:
                    21:b5:f2:c9:e5:30:24:41:0e:d1:d8:33:d8:36:b1:
                    02:7b:92:de:a1:19:75:21:b3:7f:83:95:2a:6d:8a:
                    26:2c:19:4b:2b:bb:0e:34:9f:7b:27:21:04:db:0b:
                    0a:a9:1a:55:66:e1:fc:38:06:b4:61:45:34:b4:dc:
                    44:cf:9f:82:af:d4:74:0e:3d:1b:e5:33:6a:dd:b3:
                    b9:c3:05:aa:46:d3:2f:8d:bc:ed:45:91:5a:ed:d8:
                    e4:4b
                Exponent: 65537 (0x10001)
        X509v3 extensions:
            X509v3 Basic Constraints: 
                CA:FALSE
            X509v3 Subject Key Identifier: 
                4A:6A:36:D3:3E:FD:72:EB:99:EA:4B:D5:52:4A:1F:7A:4C:93:81:90
            X509v3 Authority Key Identifier: 
                keyid:65:7B:C7:04:9E:D4:5D:DD:BF:27:4E:1D:CC:7C:70:12:D8:78:3F:77
                DirName:/CN=team411-net
                serial:46:E3:FD:CC:29:70:37:53:D4:1F:9C:B4:D5:79:A1:56:2F:89:26:0B
            X509v3 Extended Key Usage: 
                TLS Web Server Authentication
            X509v3 Key Usage: 
                Digital Signature, Key Encipherment
            X509v3 Subject Alternative Name: 
                DNS:team411-server
    Signature Algorithm: sha256WithRSAEncryption
    Signature Value:
        52:87:3e:04:09:b6:56:96:56:e6:19:45:73:bc:78:50:a9:a5:
        1d:53:a8:3b:9b:f4:36:f2:33:13:3e:d9:5d:53:40:5b:ab:da:
        02:56:0c:5b:93:45:32:d8:9d:35:31:7b:67:c0:e2:ec:e1:00:
        aa:8c:b9:d0:94:a8:ef:44:3a:13:48:d6:9d:a1:48:d3:e5:0b:
        2e:91:e8:de:63:6c:4e:9a:d1:b2:d2:d4:66:1a:c9:31:78:c9:
        38:12:d2:51:c8:61:1e:50:38:47:8a:df:26:2c:34:e4:06:9d:
        a8:c5:4b:24:ea:07:da:78:95:05:bc:10:e2:2e:a6:06:d2:a8:
        b9:38:0e:c4:56:ea:30:e5:77:9c:d3:70:9e:a8:c4:dd:45:c9:
        b6:1e:63:39:cd:18:85:45:f7:5b:1c:f8:e9:a7:06:7c:a5:0d:
        f3:48:ba:8c:07:6e:c7:0e:bc:b6:99:4f:64:15:65:07:a1:84:
        14:0f:f7:be:ce:13:ab:aa:12:84:e6:38:8e:cf:e9:42:fe:37:
        f8:91:55:3c:ef:a5:89:23:cb:3a:3c:ef:4d:06:89:a9:72:6a:
        40:79:02:1a:8b:6c:8c:74:7b:7f:d7:8b:90:aa:0a:2e:cb:3a:
        9d:ad:00:4e:fa:dc:4e:b7:05:8b:af:aa:49:6b:49:cb:33:83:
        bb:d9:b6:d5
-----BEGIN CERTIFICATE-----
MIIDeDCCAmCgAwIBAgIRAM6MOCcs6iHlt4FNzFEv79IwDQYJKoZIhvcNAQELBQAw
FjEUMBIGA1UEAwwLdGVhbTQxMS1uZXQwHhcNMjMxMTA0MTEzNjQ0WhcNMjYxMDE5
MTEzNjQ0WjAZMRcwFQYDVQQDDA50ZWFtNDExLXNlcnZlcjCCASIwDQYJKoZIhvcN
AQEBBQADggEPADCCAQoCggEBAI/ysvOuUjziWGnKPRhOp4duRk4shcpS56+wO8uG
qtZN8CH2uto+w0ZYTIJzCmeJy3ezDEL7IHVcQyTInWRMJMaB8NeZNRZrZfZLS6BJ
k/3qMR44Fiy2bHQ9WfavSVRBHzj4gQOuQjXfi1sdLa/y93q3smfCFMAvU97e/P63
m8ktw7ljsq36APzw+iMS/AzrttJnQn2OJ3eZYkEgXJjJT9k1HG+VIbXyyeUwJEEO
0dgz2DaxAnuS3qEZdSGzf4OVKm2KJiwZSyu7DjSfeychBNsLCqkaVWbh/DgGtGFF
NLTcRM+fgq/UdA49G+Uzat2zucMFqkbTL4287UWRWu3Y5EsCAwEAAaOBvTCBujAJ
BgNVHRMEAjAAMB0GA1UdDgQWBBRKajbTPv1y65nqS9VSSh96TJOBkDBRBgNVHSME
SjBIgBRle8cEntRd3b8nTh3MfHAS2Hg/d6EapBgwFjEUMBIGA1UEAwwLdGVhbTQx
MS1uZXSCFEbj/cwpcDdT1B+ctNV5oVYviSYLMBMGA1UdJQQMMAoGCCsGAQUFBwMB
MAsGA1UdDwQEAwIFoDAZBgNVHREEEjAQgg50ZWFtNDExLXNlcnZlcjANBgkqhkiG
9w0BAQsFAAOCAQEAUoc+BAm2VpZW5hlFc7x4UKmlHVOoO5v0NvIzEz7ZXVNAW6va
AlYMW5NFMtidNTF7Z8Di7OEAqoy50JSo70Q6E0jWnaFI0+ULLpHo3mNsTprRstLU
ZhrJMXjJOBLSUchhHlA4R4rfJiw05AadqMVLJOoH2niVBbwQ4i6mBtKouTgOxFbq
MOV3nNNwnqjE3UXJth5jOc0YhUX3Wxz46acGfKUN80i6jAduxw68tplPZBVlB6GE
FA/3vs4Tq6oShOY4js/pQv43+JFVPO+liSPLOjzvTQaJqXJqQHkCGotsjHR7f9eL
kKoKLss6na0ATvrcTrcFi6+qSWtJyzODu9m21Q==
-----END CERTIFICATE-----
