Certificate:
    Data:
        Version: 3 (0x2)
        Serial Number:
            36:94:dd:ea:27:2a:e1:49:9e:63:ab:a1:fd:d9:cf:26
        Signature Algorithm: sha256WithRSAEncryption
        Issuer: CN=team385-net
        Validity
            Not Before: Nov  4 10:47:36 2023 GMT
            Not After : Oct 19 10:47:36 2026 GMT
        Subject: CN=team385-client
        Subject Public Key Info:
            Public Key Algorithm: rsaEncryption
                Public-Key: (2048 bit)
                Modulus:
                    00:c0:d4:22:5e:ef:ac:ea:55:6e:a4:83:51:b0:f2:
                    44:6d:fd:6f:72:d0:f2:9f:0f:1e:e0:fe:ec:0c:7a:
                    01:e8:50:ce:21:0a:78:0c:35:de:0f:30:40:6e:a5:
                    72:ec:e6:ab:7c:5d:6e:db:d7:5c:be:97:fc:f2:dd:
                    aa:a0:23:ff:4f:49:f6:28:b1:64:25:45:43:96:50:
                    4b:6e:74:68:da:85:66:d0:6e:38:90:7c:42:2b:03:
                    46:d2:3e:ce:80:45:d5:58:a6:cd:c1:e7:5d:45:3a:
                    a3:73:9f:df:88:89:8e:23:d8:c3:12:75:3f:f8:a9:
                    97:7a:f9:bd:87:52:80:72:06:2e:af:50:05:1f:8b:
                    39:b2:f9:5e:01:32:1b:ed:34:7f:9b:0e:30:82:e7:
                    36:68:a3:f6:d6:1d:02:1b:12:53:4d:23:c6:de:65:
                    db:91:45:5a:aa:39:2e:b6:1b:c3:2c:be:36:e9:52:
                    c3:25:5a:4f:c8:23:6d:56:ff:00:fa:5f:59:29:4f:
                    fb:8a:c4:fc:dd:3d:85:96:01:e5:22:b6:4e:58:c6:
                    c0:a4:7d:6e:74:a4:9d:63:5b:3c:d7:87:e7:fc:72:
                    3b:0d:a3:d6:97:6f:22:41:0d:ad:01:80:10:b8:55:
                    3d:55:1d:fe:77:be:80:b1:43:be:00:ad:af:74:3d:
                    4d:6d
                Exponent: 65537 (0x10001)
        X509v3 extensions:
            X509v3 Basic Constraints: 
                CA:FALSE
            X509v3 Subject Key Identifier: 
                6C:93:58:49:7D:3D:11:51:17:63:EA:E3:99:E3:E1:9B:71:DB:92:19
            X509v3 Authority Key Identifier: 
                keyid:CB:B2:68:69:58:E1:68:D8:00:D9:51:1C:13:A6:A7:D4:CE:DB:C6:C4
                DirName:/CN=team385-net
                serial:27:07:AA:7C:F1:5C:98:E0:83:7F:4E:99:80:73:AB:69:14:9E:DD:2C
            X509v3 Extended Key Usage: 
                TLS Web Client Authentication
            X509v3 Key Usage: 
                Digital Signature
    Signature Algorithm: sha256WithRSAEncryption
    Signature Value:
        8c:6a:3b:1a:89:e7:47:58:ff:2d:95:ca:ea:0f:ad:31:ba:7e:
        94:86:4e:66:de:25:72:8c:fb:e4:88:a3:94:6d:9e:05:2a:32:
        bd:aa:3b:99:d8:20:72:4e:2d:8f:44:21:40:ab:8a:48:37:ff:
        43:7a:04:e5:ad:8c:46:00:77:1b:73:e9:62:1a:28:4c:cd:79:
        21:df:12:86:92:64:f9:85:89:cf:94:b3:1c:74:25:cf:fe:4e:
        05:4a:05:6c:49:dd:b8:25:08:d6:e7:81:76:6f:93:16:06:0a:
        79:cb:05:4b:12:ac:36:f6:78:6d:16:bd:34:7f:e5:34:d5:a0:
        df:c9:75:78:cc:87:d7:bc:cb:8c:5b:6e:d4:5b:0a:73:74:4b:
        34:d4:e5:92:9d:ed:98:42:1d:36:80:a2:02:02:15:ad:0d:75:
        c9:2b:89:86:03:f2:c7:75:c1:f0:2b:e8:00:bf:b4:37:35:cd:
        cd:0f:04:4a:9e:b4:98:34:9e:cc:8f:d4:79:7f:cd:03:0d:30:
        ac:eb:a6:b9:42:c4:87:37:df:e9:86:f0:49:f9:df:f1:c3:24:
        4d:80:04:7f:5b:84:fc:55:ea:4c:bc:bc:2a:7a:67:50:28:0d:
        a4:8b:2d:14:cd:f2:ab:c1:ad:48:c1:03:d7:ae:d5:ae:e7:e2:
        57:17:a0:46
-----BEGIN CERTIFICATE-----
MIIDXDCCAkSgAwIBAgIQNpTd6icq4UmeY6uh/dnPJjANBgkqhkiG9w0BAQsFADAW
MRQwEgYDVQQDDAt0ZWFtMzg1LW5ldDAeFw0yMzExMDQxMDQ3MzZaFw0yNjEwMTkx
MDQ3MzZaMBkxFzAVBgNVBAMMDnRlYW0zODUtY2xpZW50MIIBIjANBgkqhkiG9w0B
AQEFAAOCAQ8AMIIBCgKCAQEAwNQiXu+s6lVupINRsPJEbf1vctDynw8e4P7sDHoB
6FDOIQp4DDXeDzBAbqVy7OarfF1u29dcvpf88t2qoCP/T0n2KLFkJUVDllBLbnRo
2oVm0G44kHxCKwNG0j7OgEXVWKbNweddRTqjc5/fiImOI9jDEnU/+KmXevm9h1KA
cgYur1AFH4s5svleATIb7TR/mw4wguc2aKP21h0CGxJTTSPG3mXbkUVaqjkuthvD
LL426VLDJVpPyCNtVv8A+l9ZKU/7isT83T2FlgHlIrZOWMbApH1udKSdY1s814fn
/HI7DaPWl28iQQ2tAYAQuFU9VR3+d76AsUO+AK2vdD1NbQIDAQABo4GiMIGfMAkG
A1UdEwQCMAAwHQYDVR0OBBYEFGyTWEl9PRFRF2Pq45nj4Ztx25IZMFEGA1UdIwRK
MEiAFMuyaGlY4WjYANlRHBOmp9TO28bEoRqkGDAWMRQwEgYDVQQDDAt0ZWFtMzg1
LW5ldIIUJweqfPFcmOCDf06ZgHOraRSe3SwwEwYDVR0lBAwwCgYIKwYBBQUHAwIw
CwYDVR0PBAQDAgeAMA0GCSqGSIb3DQEBCwUAA4IBAQCMajsaiedHWP8tlcrqD60x
un6Uhk5m3iVyjPvkiKOUbZ4FKjK9qjuZ2CByTi2PRCFAq4pIN/9DegTlrYxGAHcb
c+liGihMzXkh3xKGkmT5hYnPlLMcdCXP/k4FSgVsSd24JQjW54F2b5MWBgp5ywVL
Eqw29nhtFr00f+U01aDfyXV4zIfXvMuMW27UWwpzdEs01OWSne2YQh02gKICAhWt
DXXJK4mGA/LHdcHwK+gAv7Q3Nc3NDwRKnrSYNJ7Mj9R5f80DDTCs66a5QsSHN9/p
hvBJ+d/xwyRNgAR/W4T8VepMvLwqemdQKA2kiy0UzfKrwa1IwQPXrtWu5+JXF6BG
-----END CERTIFICATE-----
