Certificate:
    Data:
        Version: 3 (0x2)
        Serial Number:
            87:4e:77:63:28:a4:90:26:87:52:be:8d:d2:17:fa:63
        Signature Algorithm: sha256WithRSAEncryption
        Issuer: CN=team385-net
        Validity
            Not Before: Nov  4 11:36:07 2023 GMT
            Not After : Oct 19 11:36:07 2026 GMT
        Subject: CN=team385-client
        Subject Public Key Info:
            Public Key Algorithm: rsaEncryption
                Public-Key: (2048 bit)
                Modulus:
                    00:a9:94:f1:dd:71:0a:c9:94:39:37:8d:8c:fc:9d:
                    85:ff:65:a7:7b:f2:62:59:e4:2c:94:45:0d:ed:95:
                    0b:f1:94:c1:13:ba:99:26:02:43:22:f6:4b:2d:61:
                    a8:3c:9b:b6:1d:70:35:21:28:fa:35:82:53:60:33:
                    fa:3f:ce:be:c8:0f:7a:35:bd:0d:0c:3e:b5:3f:ee:
                    cf:34:89:4d:5f:db:64:05:38:bd:f1:60:0a:63:9a:
                    07:94:76:f1:fe:a9:49:78:ef:be:7d:74:9d:01:a0:
                    9a:ce:75:9f:ba:cc:f6:2c:6f:62:ad:ee:f0:d5:f3:
                    9b:0b:44:1a:b6:43:12:74:86:ba:f2:6c:19:65:52:
                    1d:21:8a:07:c8:ad:99:46:53:a5:b1:0a:7d:29:1d:
                    7f:7d:56:80:a3:b7:f2:59:05:a4:e8:ed:2f:c6:89:
                    6b:2d:66:cd:b4:d6:c7:2e:26:10:07:52:cf:ba:46:
                    a9:ac:ae:07:43:02:d8:53:d7:b1:92:74:c4:30:37:
                    ae:50:71:a2:93:8b:79:b7:97:42:06:ea:4d:ba:90:
                    93:b7:c3:79:14:33:4d:06:bf:b1:98:0c:a7:71:ab:
                    3a:00:f9:aa:9d:5b:70:c3:61:a1:f7:b8:d2:b5:fc:
                    77:80:85:5b:82:48:5b:ac:c7:aa:27:33:72:c1:21:
                    2d:b1
                Exponent: 65537 (0x10001)
        X509v3 extensions:
            X509v3 Basic Constraints: 
                CA:FALSE
            X509v3 Subject Key Identifier: 
                A6:B5:F8:4E:88:EE:D6:2C:6D:43:3D:E0:36:81:70:FF:04:9C:93:F1
            X509v3 Authority Key Identifier: 
                keyid:9B:BA:4F:D7:3D:5C:95:B1:14:67:AD:ED:3C:A6:EF:6A:D4:2E:21:5D
                DirName:/CN=team385-net
                serial:27:19:20:BE:C7:15:A1:C3:D5:2A:41:E1:29:2A:69:A1:15:C1:DB:CC
            X509v3 Extended Key Usage: 
                TLS Web Client Authentication
            X509v3 Key Usage: 
                Digital Signature
    Signature Algorithm: sha256WithRSAEncryption
    Signature Value:
        7e:7e:d3:00:37:0f:85:5e:92:07:da:fc:01:cc:cb:05:8b:23:
        36:94:b7:9e:1b:c8:4b:6f:6a:d3:be:b4:0f:1e:e7:8d:b7:19:
        1c:82:71:33:fc:1d:3e:37:4b:79:74:7f:3f:84:47:bc:13:59:
        e1:0f:8e:07:d9:ec:98:99:43:48:bf:d4:25:6a:cc:a2:55:45:
        dd:ed:74:81:0e:50:9d:02:04:42:f1:51:c4:cd:a7:dc:90:e3:
        4a:2c:75:e2:25:bb:a5:39:b4:ba:fa:d7:a9:e6:26:a2:3b:84:
        67:ca:d4:68:7b:70:60:19:1a:46:b7:85:60:80:5c:54:33:39:
        55:ad:dd:1c:80:80:de:36:96:50:c5:ce:03:7c:28:82:14:54:
        69:3b:eb:ca:26:6d:9f:80:70:9b:af:e2:2b:57:52:dc:2c:d3:
        9c:ad:0b:80:72:5a:e1:fe:49:84:cf:a6:a3:2d:ef:ef:c7:a3:
        15:26:16:ea:14:d1:ab:2b:65:95:ea:bb:7f:4c:1a:56:f9:58:
        7d:8c:4f:fe:e5:a6:c1:d6:fc:8e:50:d8:d0:9d:c1:a0:fe:7d:
        e7:65:6d:ca:d3:3c:aa:92:da:e8:bc:3d:25:32:7d:6b:5f:4b:
        80:c9:f5:eb:a1:53:f5:31:5b:f4:15:0d:78:04:c6:f5:c0:43:
        87:a7:b6:dd
-----BEGIN CERTIFICATE-----
MIIDXTCCAkWgAwIBAgIRAIdOd2MopJAmh1K+jdIX+mMwDQYJKoZIhvcNAQELBQAw
FjEUMBIGA1UEAwwLdGVhbTM4NS1uZXQwHhcNMjMxMTA0MTEzNjA3WhcNMjYxMDE5
MTEzNjA3WjAZMRcwFQYDVQQDDA50ZWFtMzg1LWNsaWVudDCCASIwDQYJKoZIhvcN
AQEBBQADggEPADCCAQoCggEBAKmU8d1xCsmUOTeNjPydhf9lp3vyYlnkLJRFDe2V
C/GUwRO6mSYCQyL2Sy1hqDybth1wNSEo+jWCU2Az+j/OvsgPejW9DQw+tT/uzzSJ
TV/bZAU4vfFgCmOaB5R28f6pSXjvvn10nQGgms51n7rM9ixvYq3u8NXzmwtEGrZD
EnSGuvJsGWVSHSGKB8itmUZTpbEKfSkdf31WgKO38lkFpOjtL8aJay1mzbTWxy4m
EAdSz7pGqayuB0MC2FPXsZJ0xDA3rlBxopOLebeXQgbqTbqQk7fDeRQzTQa/sZgM
p3GrOgD5qp1bcMNhofe40rX8d4CFW4JIW6zHqiczcsEhLbECAwEAAaOBojCBnzAJ
BgNVHRMEAjAAMB0GA1UdDgQWBBSmtfhOiO7WLG1DPeA2gXD/BJyT8TBRBgNVHSME
SjBIgBSbuk/XPVyVsRRnre08pu9q1C4hXaEapBgwFjEUMBIGA1UEAwwLdGVhbTM4
NS1uZXSCFCcZIL7HFaHD1SpB4SkqaaEVwdvMMBMGA1UdJQQMMAoGCCsGAQUFBwMC
MAsGA1UdDwQEAwIHgDANBgkqhkiG9w0BAQsFAAOCAQEAfn7TADcPhV6SB9r8AczL
BYsjNpS3nhvIS29q0760Dx7njbcZHIJxM/wdPjdLeXR/P4RHvBNZ4Q+OB9nsmJlD
SL/UJWrMolVF3e10gQ5QnQIEQvFRxM2n3JDjSix14iW7pTm0uvrXqeYmojuEZ8rU
aHtwYBkaRreFYIBcVDM5Va3dHICA3jaWUMXOA3woghRUaTvryiZtn4Bwm6/iK1dS
3CzTnK0LgHJa4f5JhM+moy3v78ejFSYW6hTRqytlleq7f0waVvlYfYxP/uWmwdb8
jlDY0J3BoP5952VtytM8qpLa6Lw9JTJ9a19LgMn166FT9TFb9BUNeATG9cBDh6e2
3Q==
-----END CERTIFICATE-----
