Certificate:
    Data:
        Version: 3 (0x2)
        Serial Number:
            ee:de:6a:93:10:4e:48:48:ac:6b:2e:82:1b:81:b4:33
        Signature Algorithm: sha256WithRSAEncryption
        Issuer: CN=team385-net
        Validity
            Not Before: Nov  4 10:47:37 2023 GMT
            Not After : Oct 19 10:47:37 2026 GMT
        Subject: CN=team385-server
        Subject Public Key Info:
            Public Key Algorithm: rsaEncryption
                Public-Key: (2048 bit)
                Modulus:
                    00:e0:1a:89:77:d2:96:07:73:90:d0:1b:54:0f:1a:
                    a4:dc:56:7c:a3:e3:40:c1:16:6e:b3:5b:8a:8e:04:
                    fb:f8:31:15:7f:a1:68:49:62:0a:3a:91:4c:1b:fb:
                    e3:4a:eb:c1:13:07:05:e4:f5:38:90:e6:36:2a:fc:
                    64:16:e4:8b:b3:bd:69:59:07:5b:15:29:9e:70:0e:
                    25:ee:8b:c8:ce:7c:65:31:19:43:e7:63:a6:ab:00:
                    52:73:4c:2c:22:77:9b:ff:ab:55:a8:a6:e2:20:50:
                    76:5e:8f:04:9b:21:ac:8d:6b:b4:8a:ae:42:0f:3e:
                    46:35:39:43:f3:2e:1a:41:db:3e:68:63:da:a4:3e:
                    31:20:7d:d3:39:61:b4:8c:97:8b:c4:c0:fb:39:c6:
                    7a:30:68:6c:ce:3f:55:34:d6:0b:bb:48:c9:bd:d7:
                    05:d3:87:20:42:8e:b2:94:b8:81:c9:97:f3:4f:89:
                    4e:43:6e:0f:78:77:33:e0:b5:ec:a6:e3:21:e9:0d:
                    a7:7a:78:ee:64:df:ad:d2:3d:69:91:98:c0:23:f0:
                    2b:c3:e2:6b:e0:4a:0f:d8:7a:f5:f6:29:98:cd:24:
                    ab:bb:d1:5a:b5:16:43:f1:29:db:88:84:8a:78:f0:
                    66:6c:c0:7b:db:27:a0:10:b2:99:b1:31:f5:14:ad:
                    7a:5b
                Exponent: 65537 (0x10001)
        X509v3 extensions:
            X509v3 Basic Constraints: 
                CA:FALSE
            X509v3 Subject Key Identifier: 
                EE:51:9B:7B:D3:91:EA:75:F6:E5:58:22:06:59:85:AA:49:4D:5C:83
            X509v3 Authority Key Identifier: 
                keyid:CB:B2:68:69:58:E1:68:D8:00:D9:51:1C:13:A6:A7:D4:CE:DB:C6:C4
                DirName:/CN=team385-net
                serial:27:07:AA:7C:F1:5C:98:E0:83:7F:4E:99:80:73:AB:69:14:9E:DD:2C
            X509v3 Extended Key Usage: 
                TLS Web Server Authentication
            X509v3 Key Usage: 
                Digital Signature, Key Encipherment
            X509v3 Subject Alternative Name: 
                DNS:team385-server
    Signature Algorithm: sha256WithRSAEncryption
    Signature Value:
        34:87:65:b7:57:1d:20:42:54:1c:27:42:93:22:2e:99:64:4e:
        2d:a7:cf:08:ff:14:ac:3d:32:50:19:4d:31:70:47:c8:5e:e8:
        f6:5a:47:e7:d2:87:e0:be:0c:5f:c6:2a:b8:4b:d2:6c:a0:69:
        d8:be:2d:9c:ea:9a:0f:7a:70:38:57:6d:e4:6d:be:b6:ff:37:
        74:6f:41:ed:09:1c:6b:25:48:f7:dd:4d:4f:a5:9b:ed:f7:1d:
        58:7f:e0:c2:8d:08:b7:03:66:1b:74:c2:7c:14:be:00:11:eb:
        43:ab:5c:6a:8a:a7:42:85:52:08:60:e2:86:48:67:ff:3e:d2:
        5c:4d:5c:dd:93:d6:b8:b6:04:95:d9:cc:f2:07:49:17:fe:53:
        ee:63:dd:7e:7c:f5:1f:fa:c3:e5:40:96:14:b3:23:01:57:73:
        6d:b9:1b:10:9f:86:71:d5:ca:59:19:4a:53:ca:f8:69:f1:8a:
        c4:d5:d1:cf:eb:92:f4:86:45:d7:2e:05:2e:3b:38:16:53:93:
        89:e9:44:50:01:9e:56:79:00:9c:5e:02:8b:c4:da:7a:16:75:
        34:2d:f4:5f:c1:2f:dd:00:93:f9:36:e9:e3:63:2d:07:a0:72:
        56:e3:b7:1e:58:42:de:e9:57:ce:d3:cf:f4:ee:af:3a:c7:f9:
        ea:78:3f:ae
-----BEGIN CERTIFICATE-----
MIIDeDCCAmCgAwIBAgIRAO7eapMQTkhIrGsughuBtDMwDQYJKoZIhvcNAQELBQAw
FjEUMBIGA1UEAwwLdGVhbTM4NS1uZXQwHhcNMjMxMTA0MTA0NzM3WhcNMjYxMDE5
MTA0NzM3WjAZMRcwFQYDVQQDDA50ZWFtMzg1LXNlcnZlcjCCASIwDQYJKoZIhvcN
AQEBBQADggEPADCCAQoCggEBAOAaiXfSlgdzkNAbVA8apNxWfKPjQMEWbrNbio4E
+/gxFX+haEliCjqRTBv740rrwRMHBeT1OJDmNir8ZBbki7O9aVkHWxUpnnAOJe6L
yM58ZTEZQ+djpqsAUnNMLCJ3m/+rVaim4iBQdl6PBJshrI1rtIquQg8+RjU5Q/Mu
GkHbPmhj2qQ+MSB90zlhtIyXi8TA+znGejBobM4/VTTWC7tIyb3XBdOHIEKOspS4
gcmX80+JTkNuD3h3M+C17KbjIekNp3p47mTfrdI9aZGYwCPwK8Pia+BKD9h69fYp
mM0kq7vRWrUWQ/Ep24iEinjwZmzAe9snoBCymbEx9RStelsCAwEAAaOBvTCBujAJ
BgNVHRMEAjAAMB0GA1UdDgQWBBTuUZt705HqdfblWCIGWYWqSU1cgzBRBgNVHSME
SjBIgBTLsmhpWOFo2ADZURwTpqfUztvGxKEapBgwFjEUMBIGA1UEAwwLdGVhbTM4
NS1uZXSCFCcHqnzxXJjgg39OmYBzq2kUnt0sMBMGA1UdJQQMMAoGCCsGAQUFBwMB
MAsGA1UdDwQEAwIFoDAZBgNVHREEEjAQgg50ZWFtMzg1LXNlcnZlcjANBgkqhkiG
9w0BAQsFAAOCAQEANIdlt1cdIEJUHCdCkyIumWROLafPCP8UrD0yUBlNMXBHyF7o
9lpH59KH4L4MX8YquEvSbKBp2L4tnOqaD3pwOFdt5G2+tv83dG9B7QkcayVI991N
T6Wb7fcdWH/gwo0ItwNmG3TCfBS+ABHrQ6tcaoqnQoVSCGDihkhn/z7SXE1c3ZPW
uLYEldnM8gdJF/5T7mPdfnz1H/rD5UCWFLMjAVdzbbkbEJ+GcdXKWRlKU8r4afGK
xNXRz+uS9IZF1y4FLjs4FlOTielEUAGeVnkAnF4Ci8TaehZ1NC30X8Ev3QCT+Tbp
42MtB6ByVuO3HlhC3ulXztPP9O6vOsf56ng/rg==
-----END CERTIFICATE-----
