Certificate:
    Data:
        Version: 3 (0x2)
        Serial Number:
            15:c4:30:a5:1f:e4:d2:b3:46:08:5b:15:56:38:4a:dd
        Signature Algorithm: sha256WithRSAEncryption
        Issuer: CN=team13-net
        Validity
            Not Before: Nov  4 11:27:37 2023 GMT
            Not After : Oct 19 11:27:37 2026 GMT
        Subject: CN=team13-server
        Subject Public Key Info:
            Public Key Algorithm: rsaEncryption
                Public-Key: (2048 bit)
                Modulus:
                    00:84:e1:63:24:1c:48:83:05:30:4f:04:c9:50:1d:
                    d7:9b:e9:4c:41:d6:41:19:80:c4:35:38:50:b0:9a:
                    2f:9c:54:c6:e1:a4:a8:65:6d:00:72:2b:78:46:c3:
                    05:7e:d8:4f:d7:dc:17:32:0d:b0:fa:fc:cc:51:0d:
                    98:06:b9:d1:73:fa:e8:df:b9:e5:9d:f2:f2:99:67:
                    43:c2:4d:30:cf:2b:7e:26:da:6b:eb:1a:e3:ef:fb:
                    f5:7d:8a:d0:03:68:09:28:6c:0c:56:56:c2:9d:c2:
                    42:6a:4d:10:b8:60:32:aa:49:0f:9c:8f:7d:c4:cb:
                    ae:9e:f0:6d:ee:de:f2:97:41:d4:1f:58:e5:c6:d2:
                    11:40:a3:9f:2a:2b:0e:b6:f0:c5:b6:38:a3:78:1a:
                    10:5a:f1:34:43:4f:44:db:b7:e8:98:a3:ef:80:df:
                    fe:6e:cc:26:fa:c8:c3:ee:c9:da:a6:f2:81:8e:ce:
                    d0:7d:88:7d:43:3b:d7:d7:d6:79:5d:04:8d:fd:d6:
                    ed:a8:ca:98:5d:8d:03:a4:c0:8a:14:58:ab:9a:3b:
                    7c:f7:89:94:c8:a0:e7:a5:8e:92:97:44:94:4e:27:
                    45:9e:4c:d1:1e:51:0e:be:57:eb:14:13:db:00:db:
                    bb:a2:a9:16:d1:58:ef:ff:f1:80:09:87:b3:ad:4c:
                    9d:35
                Exponent: 65537 (0x10001)
        X509v3 extensions:
            X509v3 Basic Constraints: 
                CA:FALSE
            X509v3 Subject Key Identifier: 
                34:FA:3B:80:7B:D3:7E:70:8D:40:5A:7A:0A:CA:F4:9B:7A:83:8D:92
            X509v3 Authority Key Identifier: 
                keyid:CF:F0:1B:F9:32:59:29:0B:48:82:8F:1F:11:C7:BF:8D:64:F9:D3:29
                DirName:/CN=team13-net
                serial:0C:3A:62:F2:CF:83:90:EC:FD:CF:45:AE:20:F9:6C:2A:E2:BB:C5:2C
            X509v3 Extended Key Usage: 
                TLS Web Server Authentication
            X509v3 Key Usage: 
                Digital Signature, Key Encipherment
            X509v3 Subject Alternative Name: 
                DNS:team13-server
    Signature Algorithm: sha256WithRSAEncryption
    Signature Value:
        8e:98:57:c7:c3:6b:5a:84:4d:cf:61:f2:06:21:1c:0e:76:d5:
        05:b4:cc:c8:36:a3:34:80:e4:b6:ad:32:b6:88:1b:f1:bf:b5:
        85:63:8f:6c:50:1a:9b:5c:55:a1:90:db:07:45:d0:1e:fc:98:
        bb:08:0b:45:8f:59:94:92:35:0d:c1:6e:99:9b:94:46:3a:78:
        88:97:ad:30:8c:07:c1:e8:83:91:dd:a6:21:b5:95:1d:91:90:
        f8:d7:5f:ff:39:e1:e4:0e:6d:1e:26:93:90:f1:28:b1:63:0e:
        6c:e5:40:da:df:a6:11:65:d1:99:8e:6b:33:cf:33:47:de:5b:
        8a:58:0f:94:b4:60:1b:39:1b:c2:ff:c2:ee:ae:f6:77:61:02:
        d2:6e:36:f6:31:90:3d:6c:90:ee:07:67:65:76:4f:7e:51:a6:
        12:8d:45:cd:2f:fe:c1:4b:08:7b:48:f4:5f:97:38:9b:52:79:
        6b:96:02:f3:d3:fc:b5:cf:28:91:31:81:a1:f9:ab:11:c6:75:
        8f:04:f0:98:3e:78:7d:5c:65:48:4b:85:a0:08:2e:06:2d:3c:
        43:19:36:53:24:2d:80:41:22:0c:0c:44:2a:b4:cb:42:d8:87:
        78:1c:d2:19:ea:48:64:6e:2a:da:fc:50:ed:96:84:e7:1e:6e:
        60:58:89:15
-----BEGIN CERTIFICATE-----
MIIDczCCAlugAwIBAgIQFcQwpR/k0rNGCFsVVjhK3TANBgkqhkiG9w0BAQsFADAV
MRMwEQYDVQQDDAp0ZWFtMTMtbmV0MB4XDTIzMTEwNDExMjczN1oXDTI2MTAxOTEx
MjczN1owGDEWMBQGA1UEAwwNdGVhbTEzLXNlcnZlcjCCASIwDQYJKoZIhvcNAQEB
BQADggEPADCCAQoCggEBAIThYyQcSIMFME8EyVAd15vpTEHWQRmAxDU4ULCaL5xU
xuGkqGVtAHIreEbDBX7YT9fcFzINsPr8zFENmAa50XP66N+55Z3y8plnQ8JNMM8r
fibaa+sa4+/79X2K0ANoCShsDFZWwp3CQmpNELhgMqpJD5yPfcTLrp7wbe7e8pdB
1B9Y5cbSEUCjnyorDrbwxbY4o3gaEFrxNENPRNu36Jij74Df/m7MJvrIw+7J2qby
gY7O0H2IfUM719fWeV0Ejf3W7ajKmF2NA6TAihRYq5o7fPeJlMig56WOkpdElE4n
RZ5M0R5RDr5X6xQT2wDbu6KpFtFY7//xgAmHs61MnTUCAwEAAaOBuzCBuDAJBgNV
HRMEAjAAMB0GA1UdDgQWBBQ0+juAe9N+cI1AWnoKyvSbeoONkjBQBgNVHSMESTBH
gBTP8Bv5MlkpC0iCjx8Rx7+NZPnTKaEZpBcwFTETMBEGA1UEAwwKdGVhbTEzLW5l
dIIUDDpi8s+DkOz9z0WuIPlsKuK7xSwwEwYDVR0lBAwwCgYIKwYBBQUHAwEwCwYD
VR0PBAQDAgWgMBgGA1UdEQQRMA+CDXRlYW0xMy1zZXJ2ZXIwDQYJKoZIhvcNAQEL
BQADggEBAI6YV8fDa1qETc9h8gYhHA521QW0zMg2ozSA5LatMraIG/G/tYVjj2xQ
GptcVaGQ2wdF0B78mLsIC0WPWZSSNQ3BbpmblEY6eIiXrTCMB8Hog5HdpiG1lR2R
kPjXX/854eQObR4mk5DxKLFjDmzlQNrfphFl0ZmOazPPM0feW4pYD5S0YBs5G8L/
wu6u9ndhAtJuNvYxkD1skO4HZ2V2T35RphKNRc0v/sFLCHtI9F+XOJtSeWuWAvPT
/LXPKJExgaH5qxHGdY8E8Jg+eH1cZUhLhaAILgYtPEMZNlMkLYBBIgwMRCq0y0LY
h3gc0hnqSGRuKtr8UO2WhOcebmBYiRU=
-----END CERTIFICATE-----
