Certificate:
    Data:
        Version: 3 (0x2)
        Serial Number:
            c0:31:a7:e4:75:1b:f9:e9:fe:18:10:b9:3b:4a:2c:4f
        Signature Algorithm: sha256WithRSAEncryption
        Issuer: CN=team13-net
        Validity
            Not Before: Nov  3 20:39:31 2023 GMT
            Not After : Oct 18 20:39:31 2026 GMT
        Subject: CN=team13-client
        Subject Public Key Info:
            Public Key Algorithm: rsaEncryption
                Public-Key: (2048 bit)
                Modulus:
                    00:c4:b8:c7:f4:a1:6a:9f:01:0d:94:fb:d0:51:d8:
                    fd:24:16:d4:a9:fa:66:b7:c2:8f:f3:7a:0c:8c:d2:
                    5b:7f:4f:70:c1:c6:31:d8:15:92:87:17:d7:3d:f8:
                    ae:15:eb:07:b5:4c:8f:d7:46:b2:73:e7:6f:2f:09:
                    6a:50:2d:5f:85:2f:0f:1c:74:d4:0f:1a:da:30:e4:
                    31:da:07:ca:d6:61:73:6f:86:27:55:ca:05:40:f7:
                    5a:bd:f1:a1:6a:07:16:9c:c4:5d:d3:54:d6:bd:3a:
                    bf:96:d0:af:ca:02:6d:6f:42:f7:86:e3:02:8b:e6:
                    fe:ad:43:be:8e:f3:ca:55:50:94:d0:2f:d4:68:e4:
                    7a:f0:14:ad:15:5d:ab:4a:d5:83:40:fc:61:dc:06:
                    e6:ee:f9:b9:c6:38:82:32:d7:a5:24:46:4b:dd:87:
                    03:15:f3:e7:4e:4b:c3:e0:b6:8d:d4:60:e5:36:93:
                    d7:9c:b2:fe:8a:cf:34:42:a8:dd:51:65:2c:1c:1d:
                    0c:a6:02:ae:91:d4:26:8d:38:e7:37:ff:67:e6:ba:
                    07:62:c3:2f:39:53:eb:52:9d:66:fe:6a:11:a0:7f:
                    cd:ee:07:3e:19:ae:38:cc:f6:7d:7a:78:76:d2:7e:
                    af:3b:7b:3e:0c:d5:77:76:68:65:fb:80:0f:54:38:
                    ac:6f
                Exponent: 65537 (0x10001)
        X509v3 extensions:
            X509v3 Basic Constraints: 
                CA:FALSE
            X509v3 Subject Key Identifier: 
                20:79:9A:8C:26:49:74:B3:10:32:DF:13:D9:93:0A:89:8D:2F:BE:8B
            X509v3 Authority Key Identifier: 
                keyid:20:91:8A:A8:83:4F:7C:58:BE:AE:B9:EC:3F:71:9E:A2:92:2A:98:2D
                DirName:/CN=team13-net
                serial:24:BD:6B:3A:C2:B8:24:C2:88:BC:79:6F:5A:DF:76:60:B8:3E:DD:78
            X509v3 Extended Key Usage: 
                TLS Web Client Authentication
            X509v3 Key Usage: 
                Digital Signature
    Signature Algorithm: sha256WithRSAEncryption
    Signature Value:
        6e:59:36:76:93:dd:b4:67:6f:83:5a:c2:b2:31:c7:ed:7a:e7:
        e9:9b:44:cf:72:1b:37:0f:72:99:54:8e:9b:ed:f1:8c:72:eb:
        d9:ae:ed:f7:b9:ce:f1:cd:51:65:c7:85:78:0f:93:2e:eb:8d:
        ae:2b:f8:fb:21:22:15:ec:36:04:b6:d3:9e:14:07:17:c5:a7:
        eb:ea:45:30:e2:2e:a4:cd:ec:84:a8:25:21:56:6b:80:1e:de:
        2a:72:b3:a2:c3:0f:30:09:31:cf:a6:bf:05:3f:5a:94:13:8b:
        87:49:b1:7f:2c:25:df:69:69:e5:47:83:d6:8a:ad:6b:45:f7:
        48:da:b5:94:42:c8:38:7e:96:71:0d:3f:1d:06:94:b8:88:e4:
        f1:d7:59:e7:da:e2:72:6d:34:f3:4e:75:2f:45:3e:ae:21:10:
        13:0d:0d:63:82:09:67:58:c7:45:bb:af:89:44:fd:37:c4:d7:
        69:15:c2:56:9f:8e:ab:a7:c9:bb:5d:48:75:67:f6:15:33:c7:
        70:51:9f:5b:a0:c8:d4:c7:df:be:f2:19:8e:a6:34:56:12:e7:
        3c:7c:dc:e8:59:68:58:15:d0:8c:bf:a4:be:66:d7:0f:f1:31:
        c2:5a:c6:eb:7d:af:aa:0e:6a:f3:d4:7b:61:62:39:c9:95:75:
        41:f3:9d:b2
-----BEGIN CERTIFICATE-----
MIIDWjCCAkKgAwIBAgIRAMAxp+R1G/np/hgQuTtKLE8wDQYJKoZIhvcNAQELBQAw
FTETMBEGA1UEAwwKdGVhbTEzLW5ldDAeFw0yMzExMDMyMDM5MzFaFw0yNjEwMTgy
MDM5MzFaMBgxFjAUBgNVBAMMDXRlYW0xMy1jbGllbnQwggEiMA0GCSqGSIb3DQEB
AQUAA4IBDwAwggEKAoIBAQDEuMf0oWqfAQ2U+9BR2P0kFtSp+ma3wo/zegyM0lt/
T3DBxjHYFZKHF9c9+K4V6we1TI/XRrJz528vCWpQLV+FLw8cdNQPGtow5DHaB8rW
YXNvhidVygVA91q98aFqBxacxF3TVNa9Or+W0K/KAm1vQveG4wKL5v6tQ76O88pV
UJTQL9Ro5HrwFK0VXatK1YNA/GHcBubu+bnGOIIy16UkRkvdhwMV8+dOS8Pgto3U
YOU2k9ecsv6KzzRCqN1RZSwcHQymAq6R1CaNOOc3/2fmugdiwy85U+tSnWb+ahGg
f83uBz4ZrjjM9n16eHbSfq87ez4M1Xd2aGX7gA9UOKxvAgMBAAGjgaEwgZ4wCQYD
VR0TBAIwADAdBgNVHQ4EFgQUIHmajCZJdLMQMt8T2ZMKiY0vvoswUAYDVR0jBEkw
R4AUIJGKqINPfFi+rrnsP3GeopIqmC2hGaQXMBUxEzARBgNVBAMMCnRlYW0xMy1u
ZXSCFCS9azrCuCTCiLx5b1rfdmC4Pt14MBMGA1UdJQQMMAoGCCsGAQUFBwMCMAsG
A1UdDwQEAwIHgDANBgkqhkiG9w0BAQsFAAOCAQEAblk2dpPdtGdvg1rCsjHH7Xrn
6ZtEz3IbNw9ymVSOm+3xjHLr2a7t97nO8c1RZceFeA+TLuuNriv4+yEiFew2BLbT
nhQHF8Wn6+pFMOIupM3shKglIVZrgB7eKnKzosMPMAkxz6a/BT9alBOLh0mxfywl
32lp5UeD1oqta0X3SNq1lELIOH6WcQ0/HQaUuIjk8ddZ59ricm008051L0U+riEQ
Ew0NY4IJZ1jHRbuviUT9N8TXaRXCVp+Oq6fJu11IdWf2FTPHcFGfW6DI1MffvvIZ
jqY0VhLnPHzc6FloWBXQjL+kvmbXD/ExwlrG632vqg5q89R7YWI5yZV1QfOdsg==
-----END CERTIFICATE-----
