Certificate:
    Data:
        Version: 3 (0x2)
        Serial Number:
            ef:49:dc:ec:dd:17:f2:59:0a:dd:ef:bb:1f:bd:a7:8b
        Signature Algorithm: sha256WithRSAEncryption
        Issuer: CN=team13-net
        Validity
            Not Before: Nov  4 10:40:26 2023 GMT
            Not After : Oct 19 10:40:26 2026 GMT
        Subject: CN=team13-client
        Subject Public Key Info:
            Public Key Algorithm: rsaEncryption
                Public-Key: (2048 bit)
                Modulus:
                    00:a5:6f:fc:97:b4:b3:d0:d0:19:b4:66:02:9f:bc:
                    0f:54:bd:f1:8d:32:c5:6f:cb:4d:69:40:a2:88:d4:
                    f0:f9:f9:83:17:02:50:ce:07:6d:cc:b3:1f:10:45:
                    53:9a:80:dc:d2:e7:84:ad:1e:b9:d0:fe:4c:02:37:
                    f8:46:e9:c1:83:8c:c3:a2:b8:9f:90:dc:34:87:a5:
                    79:c9:03:ca:3b:c5:09:48:1e:a7:7a:a0:fc:91:6c:
                    d5:bf:2a:0a:70:32:b5:88:c9:5b:3c:49:09:11:6e:
                    09:29:e2:1d:24:13:8a:1e:ba:b7:b4:43:55:f7:ee:
                    d8:2e:7e:58:bd:08:d7:11:e3:36:ac:cf:f1:53:16:
                    0b:97:98:7e:c8:b4:99:2f:1b:b2:0e:42:e0:bb:1f:
                    e0:fa:19:05:3f:19:9a:63:3a:45:3b:30:8f:b1:3c:
                    1e:13:a3:b3:74:24:9f:d6:47:42:aa:68:e1:41:c0:
                    fd:04:f3:f3:69:30:14:70:bb:0f:47:f8:17:38:67:
                    eb:23:19:92:ed:26:7a:0a:c1:86:59:0a:82:14:82:
                    cd:eb:ba:c3:78:98:20:ed:cd:48:27:f8:93:2c:97:
                    8f:9b:7f:58:6a:6e:af:17:24:bd:ae:d1:7b:4e:b8:
                    43:2a:41:64:be:3e:6b:b7:5d:43:b3:90:40:e0:63:
                    43:13
                Exponent: 65537 (0x10001)
        X509v3 extensions:
            X509v3 Basic Constraints: 
                CA:FALSE
            X509v3 Subject Key Identifier: 
                E7:84:BF:E7:DE:62:91:29:22:EB:D5:46:D3:EE:F2:93:DA:19:9C:18
            X509v3 Authority Key Identifier: 
                keyid:B1:9F:9B:2C:78:1A:8A:D8:54:6B:D5:D4:33:1A:62:09:A8:37:77:01
                DirName:/CN=team13-net
                serial:34:00:7B:89:64:A8:7D:81:E5:7B:53:56:BF:E9:6D:C9:FC:7A:B1:1A
            X509v3 Extended Key Usage: 
                TLS Web Client Authentication
            X509v3 Key Usage: 
                Digital Signature
    Signature Algorithm: sha256WithRSAEncryption
    Signature Value:
        04:64:54:ce:97:30:a5:5c:66:c2:8c:92:6a:4d:73:9f:e3:4e:
        11:d0:88:be:c2:80:e3:64:27:c0:32:58:2e:2e:74:99:88:f1:
        9d:b4:5e:49:48:08:7e:e8:83:14:ef:1f:e4:ce:c8:3e:40:70:
        10:53:7c:eb:d0:1e:92:49:08:9a:80:4b:32:7c:8b:70:5c:13:
        c1:97:cb:c8:5a:e3:84:48:3a:1e:8b:4d:94:41:a9:01:e9:b6:
        19:66:c0:ba:59:a3:1a:dc:08:1e:f0:8d:79:c8:f3:57:1f:d6:
        6d:9a:6e:95:b0:48:8d:f5:17:36:54:24:9e:79:d4:f2:c9:4f:
        ad:5d:7c:f5:94:2e:ef:6f:3b:08:11:71:f8:9a:d3:b0:54:5e:
        dc:04:ab:de:1e:db:3e:21:6e:7e:32:0c:36:94:29:c4:2b:37:
        d6:92:b8:c5:a8:8f:d0:17:77:04:9b:1a:fb:41:fc:0f:f7:3a:
        ec:3d:2f:29:99:53:01:8a:24:2f:dc:fc:3f:69:e4:9c:ec:09:
        2c:28:d0:dc:2f:63:7e:bd:aa:da:1b:3b:8a:98:db:0d:98:80:
        7c:7d:81:79:7e:ef:3a:2c:8d:9c:e4:aa:c2:35:ce:d4:f1:d1:
        69:e8:4b:d5:12:29:52:ad:40:f2:53:9d:93:a7:93:ba:29:ba:
        78:fd:7c:b1
-----BEGIN CERTIFICATE-----
MIIDWjCCAkKgAwIBAgIRAO9J3OzdF/JZCt3vux+9p4swDQYJKoZIhvcNAQELBQAw
FTETMBEGA1UEAwwKdGVhbTEzLW5ldDAeFw0yMzExMDQxMDQwMjZaFw0yNjEwMTkx
MDQwMjZaMBgxFjAUBgNVBAMMDXRlYW0xMy1jbGllbnQwggEiMA0GCSqGSIb3DQEB
AQUAA4IBDwAwggEKAoIBAQClb/yXtLPQ0Bm0ZgKfvA9UvfGNMsVvy01pQKKI1PD5
+YMXAlDOB23Msx8QRVOagNzS54StHrnQ/kwCN/hG6cGDjMOiuJ+Q3DSHpXnJA8o7
xQlIHqd6oPyRbNW/KgpwMrWIyVs8SQkRbgkp4h0kE4oeure0Q1X37tgufli9CNcR
4zasz/FTFguXmH7ItJkvG7IOQuC7H+D6GQU/GZpjOkU7MI+xPB4To7N0JJ/WR0Kq
aOFBwP0E8/NpMBRwuw9H+Bc4Z+sjGZLtJnoKwYZZCoIUgs3rusN4mCDtzUgn+JMs
l4+bf1hqbq8XJL2u0XtOuEMqQWS+Pmu3XUOzkEDgY0MTAgMBAAGjgaEwgZ4wCQYD
VR0TBAIwADAdBgNVHQ4EFgQU54S/595ikSki69VG0+7yk9oZnBgwUAYDVR0jBEkw
R4AUsZ+bLHgaithUa9XUMxpiCag3dwGhGaQXMBUxEzARBgNVBAMMCnRlYW0xMy1u
ZXSCFDQAe4lkqH2B5XtTVr/pbcn8erEaMBMGA1UdJQQMMAoGCCsGAQUFBwMCMAsG
A1UdDwQEAwIHgDANBgkqhkiG9w0BAQsFAAOCAQEABGRUzpcwpVxmwoySak1zn+NO
EdCIvsKA42QnwDJYLi50mYjxnbReSUgIfuiDFO8f5M7IPkBwEFN869AekkkImoBL
MnyLcFwTwZfLyFrjhEg6HotNlEGpAem2GWbAulmjGtwIHvCNecjzVx/WbZpulbBI
jfUXNlQknnnU8slPrV189ZQu7287CBFx+JrTsFRe3ASr3h7bPiFufjIMNpQpxCs3
1pK4xaiP0Bd3BJsa+0H8D/c67D0vKZlTAYokL9z8P2nknOwJLCjQ3C9jfr2q2hs7
ipjbDZiAfH2BeX7vOiyNnOSqwjXO1PHRaehL1RIpUq1A8lOdk6eTuim6eP18sQ==
-----END CERTIFICATE-----
