Certificate:
    Data:
        Version: 3 (0x2)
        Serial Number:
            fa:5a:0a:f6:57:94:31:45:fc:79:2d:4f:24:ad:84:a3
        Signature Algorithm: sha256WithRSAEncryption
        Issuer: CN=team13-net
        Validity
            Not Before: Nov  4 11:27:37 2023 GMT
            Not After : Oct 19 11:27:37 2026 GMT
        Subject: CN=team13-client
        Subject Public Key Info:
            Public Key Algorithm: rsaEncryption
                Public-Key: (2048 bit)
                Modulus:
                    00:9e:ee:57:6e:4e:15:21:a0:77:c3:04:62:0c:74:
                    40:db:1e:74:28:15:ce:24:09:13:aa:ea:40:ad:c7:
                    24:54:1b:68:ae:b9:99:76:94:54:2d:04:ca:30:35:
                    33:63:9e:0e:6c:8c:80:30:40:31:37:1a:4b:13:b2:
                    70:bd:89:c2:23:83:9b:20:77:c5:ca:98:09:11:8f:
                    6b:f6:bc:11:f6:4d:b2:6a:75:21:4a:45:2b:40:d8:
                    de:f7:2b:ca:0d:28:b4:30:3b:81:e9:7f:35:4a:4a:
                    5e:4e:6e:4f:82:7a:b9:06:46:55:ea:cc:57:c1:db:
                    08:72:09:b7:5b:6f:d7:41:52:94:dc:be:7e:80:36:
                    21:d6:85:0e:fc:d6:fd:2f:38:62:8a:76:52:8d:b1:
                    64:ed:02:06:23:4f:a3:0d:0f:de:ed:80:00:ae:02:
                    41:b2:44:04:63:c5:e3:d4:51:95:05:d1:bf:74:5e:
                    5c:58:aa:c3:1f:4c:34:74:d3:e3:aa:7d:d2:9d:df:
                    65:ed:0a:c3:b2:03:00:83:3b:93:63:e2:54:11:9f:
                    8d:3c:ee:b0:b4:16:b9:84:cd:d3:3a:cc:f9:65:32:
                    6b:5d:e7:c2:15:11:af:cb:93:0c:7b:f7:79:6f:f6:
                    e0:1e:ed:76:77:74:ff:7c:7d:b0:71:fc:37:bb:31:
                    3b:d7
                Exponent: 65537 (0x10001)
        X509v3 extensions:
            X509v3 Basic Constraints: 
                CA:FALSE
            X509v3 Subject Key Identifier: 
                F6:58:C5:80:D1:FB:34:D8:07:31:28:56:1A:36:C8:EB:9F:CB:07:7D
            X509v3 Authority Key Identifier: 
                keyid:CF:F0:1B:F9:32:59:29:0B:48:82:8F:1F:11:C7:BF:8D:64:F9:D3:29
                DirName:/CN=team13-net
                serial:0C:3A:62:F2:CF:83:90:EC:FD:CF:45:AE:20:F9:6C:2A:E2:BB:C5:2C
            X509v3 Extended Key Usage: 
                TLS Web Client Authentication
            X509v3 Key Usage: 
                Digital Signature
    Signature Algorithm: sha256WithRSAEncryption
    Signature Value:
        71:a0:c9:0c:17:6e:0c:0e:ac:47:a8:06:14:fc:94:4c:2b:fb:
        ed:ae:98:6b:3b:fe:bd:4c:ba:ad:68:f4:dc:0a:70:84:2b:f4:
        bc:c8:51:ba:60:8f:53:fd:e4:90:ac:8b:33:03:78:26:03:84:
        9f:b4:a9:35:03:e2:44:9d:00:5a:b5:0b:31:52:c3:a0:14:c5:
        d0:ba:39:22:0b:b9:bc:d1:1f:0f:4f:7c:23:3b:a1:0d:8e:fe:
        1d:28:7c:8d:23:fd:09:25:4b:7d:ec:9c:16:9a:37:b0:63:d3:
        b1:dc:38:04:7f:f3:93:08:29:93:e8:09:57:f9:2f:d9:c0:c8:
        fc:e8:62:be:41:ba:ae:e6:7b:46:83:c4:6f:1a:25:79:a9:c4:
        0f:e3:bc:21:1b:5e:8e:c3:8b:70:20:64:4c:c9:af:76:c0:ce:
        0e:ce:aa:00:8a:d6:35:65:0a:73:22:18:ef:1f:f4:90:f4:aa:
        44:77:ca:a4:6b:56:b5:6a:ed:67:15:22:48:70:7c:55:e8:a9:
        df:6e:9e:61:09:c4:c1:e0:03:cd:9f:86:f9:42:5e:f0:0a:cf:
        4f:6f:26:fc:55:d9:ba:bb:70:39:97:77:5b:5e:59:f3:de:e8:
        e0:1e:26:1f:87:99:1a:5d:ce:ba:c6:e8:b2:0d:74:31:8f:2f:
        48:bd:0d:e7
-----BEGIN CERTIFICATE-----
MIIDWjCCAkKgAwIBAgIRAPpaCvZXlDFF/HktTySthKMwDQYJKoZIhvcNAQELBQAw
FTETMBEGA1UEAwwKdGVhbTEzLW5ldDAeFw0yMzExMDQxMTI3MzdaFw0yNjEwMTkx
MTI3MzdaMBgxFjAUBgNVBAMMDXRlYW0xMy1jbGllbnQwggEiMA0GCSqGSIb3DQEB
AQUAA4IBDwAwggEKAoIBAQCe7lduThUhoHfDBGIMdEDbHnQoFc4kCROq6kCtxyRU
G2iuuZl2lFQtBMowNTNjng5sjIAwQDE3GksTsnC9icIjg5sgd8XKmAkRj2v2vBH2
TbJqdSFKRStA2N73K8oNKLQwO4HpfzVKSl5Obk+CerkGRlXqzFfB2whyCbdbb9dB
UpTcvn6ANiHWhQ781v0vOGKKdlKNsWTtAgYjT6MND97tgACuAkGyRARjxePUUZUF
0b90XlxYqsMfTDR00+OqfdKd32XtCsOyAwCDO5Nj4lQRn4087rC0FrmEzdM6zPll
Mmtd58IVEa/Lkwx793lv9uAe7XZ3dP98fbBx/De7MTvXAgMBAAGjgaEwgZ4wCQYD
VR0TBAIwADAdBgNVHQ4EFgQU9ljFgNH7NNgHMShWGjbI65/LB30wUAYDVR0jBEkw
R4AUz/Ab+TJZKQtIgo8fEce/jWT50ymhGaQXMBUxEzARBgNVBAMMCnRlYW0xMy1u
ZXSCFAw6YvLPg5Ds/c9FriD5bCriu8UsMBMGA1UdJQQMMAoGCCsGAQUFBwMCMAsG
A1UdDwQEAwIHgDANBgkqhkiG9w0BAQsFAAOCAQEAcaDJDBduDA6sR6gGFPyUTCv7
7a6Yazv+vUy6rWj03ApwhCv0vMhRumCPU/3kkKyLMwN4JgOEn7SpNQPiRJ0AWrUL
MVLDoBTF0Lo5Igu5vNEfD098IzuhDY7+HSh8jSP9CSVLfeycFpo3sGPTsdw4BH/z
kwgpk+gJV/kv2cDI/OhivkG6ruZ7RoPEbxoleanED+O8IRtejsOLcCBkTMmvdsDO
Ds6qAIrWNWUKcyIY7x/0kPSqRHfKpGtWtWrtZxUiSHB8Veip326eYQnEweADzZ+G
+UJe8ArPT28m/FXZurtwOZd3W15Z897o4B4mH4eZGl3Ousbosg10MY8vSL0N5w==
-----END CERTIFICATE-----
