Certificate:
    Data:
        Version: 3 (0x2)
        Serial Number:
            fc:84:49:9d:aa:24:53:f5:e1:d7:89:d9:2c:e0:bc:c5
        Signature Algorithm: sha256WithRSAEncryption
        Issuer: CN=team13-net
        Validity
            Not Before: Nov  3 20:39:31 2023 GMT
            Not After : Oct 18 20:39:31 2026 GMT
        Subject: CN=team13-server
        Subject Public Key Info:
            Public Key Algorithm: rsaEncryption
                Public-Key: (2048 bit)
                Modulus:
                    00:ca:85:92:90:56:15:0a:26:d1:79:09:d3:1e:56:
                    3f:02:55:8e:4c:7c:de:b4:a7:c5:0b:66:ab:d1:dd:
                    bf:61:5f:f7:9a:d8:e9:ed:f0:f6:67:f1:25:70:14:
                    09:57:b6:7d:40:eb:24:4b:d8:78:6e:f7:97:30:da:
                    db:84:58:4a:81:2f:86:cc:79:e7:da:a7:34:c2:9b:
                    5a:5c:bc:0e:73:03:78:fb:c8:bb:cd:f7:85:c9:29:
                    d0:0e:6d:1f:d5:c5:69:84:0e:e3:ec:51:ea:e9:76:
                    1c:f8:5d:b8:2f:b4:02:13:48:1f:af:26:dc:e6:7a:
                    dd:b5:2a:7a:8b:98:3e:f2:75:1b:54:74:87:b2:29:
                    b2:10:75:e1:ad:5a:d3:d9:96:28:42:f1:87:b3:c4:
                    94:3b:ba:4c:35:49:ee:ae:9d:0c:bd:99:ae:30:d8:
                    41:d6:b4:b1:09:f5:17:b0:3b:f0:a1:7a:57:90:64:
                    74:d0:2e:48:0d:dd:d9:50:a1:fd:fd:57:56:3c:7f:
                    c7:c9:4b:b0:13:65:b2:32:fe:fe:dd:68:09:9d:35:
                    ca:a1:53:3e:5c:df:d7:6d:2f:fc:48:42:38:a6:7b:
                    ff:a5:94:9f:47:f9:e9:5e:53:2c:0a:f6:c3:0c:e5:
                    43:98:9a:fb:cc:50:c6:a5:9d:a9:74:c6:0d:bc:d3:
                    79:89
                Exponent: 65537 (0x10001)
        X509v3 extensions:
            X509v3 Basic Constraints: 
                CA:FALSE
            X509v3 Subject Key Identifier: 
                D2:99:6F:73:BB:0C:6C:49:9A:16:E6:FF:54:A4:E6:D9:44:4E:0B:7C
            X509v3 Authority Key Identifier: 
                keyid:20:91:8A:A8:83:4F:7C:58:BE:AE:B9:EC:3F:71:9E:A2:92:2A:98:2D
                DirName:/CN=team13-net
                serial:24:BD:6B:3A:C2:B8:24:C2:88:BC:79:6F:5A:DF:76:60:B8:3E:DD:78
            X509v3 Extended Key Usage: 
                TLS Web Server Authentication
            X509v3 Key Usage: 
                Digital Signature, Key Encipherment
            X509v3 Subject Alternative Name: 
                DNS:team13-server
    Signature Algorithm: sha256WithRSAEncryption
    Signature Value:
        bc:9d:54:06:b1:e1:29:a0:c8:9a:e5:dc:4d:53:d8:d7:18:11:
        c3:db:82:29:4a:5d:b5:e8:37:26:21:12:43:e8:3d:ec:a6:af:
        a6:cf:0f:cb:21:bb:fb:4e:93:bc:f7:8f:65:b7:b4:fd:4d:1c:
        02:a4:9d:f0:66:56:36:db:22:50:b4:27:db:7a:dc:88:12:1b:
        7f:4a:15:24:c8:91:d6:c4:6d:2e:60:a5:19:bd:a0:37:3c:84:
        81:2f:78:1f:6f:7f:fe:4a:c8:0e:54:70:a7:3c:45:f1:c5:42:
        e6:20:ee:0d:f2:88:18:67:8b:6b:c3:2e:01:b9:6d:d0:b7:0c:
        c7:75:dd:1d:58:f7:26:00:f9:2e:e1:e0:ad:f6:b8:7d:51:4d:
        13:fb:1f:e3:62:b8:fa:8f:e8:d5:cd:8f:98:33:31:8f:95:c5:
        df:1e:2a:5d:37:44:cd:ce:9f:2b:70:9d:62:94:2e:99:34:c2:
        e5:cb:8f:2b:dd:35:04:35:47:d9:a7:0f:d4:ba:17:96:56:e5:
        1a:82:74:8f:ce:43:a9:59:96:9a:6e:2f:ef:bf:40:e5:bb:7f:
        9a:33:88:e7:61:da:95:bf:b5:88:06:df:df:58:9f:d8:fc:ee:
        e7:87:50:78:f6:01:64:4a:7a:7c:64:b7:9f:33:ff:13:1f:6f:
        ff:ec:d2:d1
-----BEGIN CERTIFICATE-----
MIIDdDCCAlygAwIBAgIRAPyESZ2qJFP14deJ2SzgvMUwDQYJKoZIhvcNAQELBQAw
FTETMBEGA1UEAwwKdGVhbTEzLW5ldDAeFw0yMzExMDMyMDM5MzFaFw0yNjEwMTgy
MDM5MzFaMBgxFjAUBgNVBAMMDXRlYW0xMy1zZXJ2ZXIwggEiMA0GCSqGSIb3DQEB
AQUAA4IBDwAwggEKAoIBAQDKhZKQVhUKJtF5CdMeVj8CVY5MfN60p8ULZqvR3b9h
X/ea2Ont8PZn8SVwFAlXtn1A6yRL2Hhu95cw2tuEWEqBL4bMeefapzTCm1pcvA5z
A3j7yLvN94XJKdAObR/VxWmEDuPsUerpdhz4XbgvtAITSB+vJtzmet21KnqLmD7y
dRtUdIeyKbIQdeGtWtPZlihC8YezxJQ7ukw1Se6unQy9ma4w2EHWtLEJ9RewO/Ch
eleQZHTQLkgN3dlQof39V1Y8f8fJS7ATZbIy/v7daAmdNcqhUz5c39dtL/xIQjim
e/+llJ9H+eleUywK9sMM5UOYmvvMUMalnal0xg2803mJAgMBAAGjgbswgbgwCQYD
VR0TBAIwADAdBgNVHQ4EFgQU0plvc7sMbEmaFub/VKTm2UROC3wwUAYDVR0jBEkw
R4AUIJGKqINPfFi+rrnsP3GeopIqmC2hGaQXMBUxEzARBgNVBAMMCnRlYW0xMy1u
ZXSCFCS9azrCuCTCiLx5b1rfdmC4Pt14MBMGA1UdJQQMMAoGCCsGAQUFBwMBMAsG
A1UdDwQEAwIFoDAYBgNVHREEETAPgg10ZWFtMTMtc2VydmVyMA0GCSqGSIb3DQEB
CwUAA4IBAQC8nVQGseEpoMia5dxNU9jXGBHD24IpSl216DcmIRJD6D3spq+mzw/L
Ibv7TpO8949lt7T9TRwCpJ3wZlY22yJQtCfbetyIEht/ShUkyJHWxG0uYKUZvaA3
PISBL3gfb3/+SsgOVHCnPEXxxULmIO4N8ogYZ4trwy4BuW3QtwzHdd0dWPcmAPku
4eCt9rh9UU0T+x/jYrj6j+jVzY+YMzGPlcXfHipdN0TNzp8rcJ1ilC6ZNMLly48r
3TUENUfZpw/UuheWVuUagnSPzkOpWZaabi/vv0Dlu3+aM4jnYdqVv7WIBt/fWJ/Y
/O7nh1B49gFkSnp8ZLefM/8TH2//7NLR
-----END CERTIFICATE-----
