Certificate:
    Data:
        Version: 3 (0x2)
        Serial Number:
            4c:81:09:1d:c2:1e:af:f7:af:2c:14:58:23:1e:15:31
        Signature Algorithm: sha256WithRSAEncryption
        Issuer: CN=team31-net
        Validity
            Not Before: Nov  4 11:27:57 2023 GMT
            Not After : Oct 19 11:27:57 2026 GMT
        Subject: CN=team31-client
        Subject Public Key Info:
            Public Key Algorithm: rsaEncryption
                Public-Key: (2048 bit)
                Modulus:
                    00:a8:18:23:90:c2:9f:eb:16:87:51:9d:84:a4:3e:
                    62:92:e6:54:27:c8:85:43:d4:a2:d1:ff:a3:e7:d5:
                    34:da:14:35:f0:44:9f:b2:02:ce:d0:e1:d1:26:61:
                    ec:fe:69:19:a5:eb:82:c4:80:21:d6:cb:57:4c:5c:
                    f2:aa:1e:3a:2b:a2:75:9a:41:11:1a:19:cf:d3:ab:
                    28:96:8b:73:19:76:d3:0f:7f:36:94:29:ca:a9:f3:
                    57:e2:be:7c:ff:7a:4c:60:f1:28:69:30:05:73:a6:
                    01:10:d3:c4:8d:af:8e:20:30:9d:fa:9b:02:80:70:
                    53:b9:31:48:26:8f:0c:b6:60:e2:09:d6:cf:86:77:
                    4d:3d:b6:6f:4e:14:8d:4d:f7:af:96:86:01:d0:d4:
                    c4:6b:50:f4:3c:d3:67:01:03:de:95:d3:52:d6:eb:
                    7a:5e:89:2e:dd:6c:48:e2:f7:45:20:28:1d:e9:15:
                    2b:9e:b9:e7:46:84:18:72:34:de:60:62:b1:26:88:
                    35:a8:c7:e9:a4:14:d6:94:df:ea:70:cd:6e:f2:28:
                    d5:94:93:62:38:c7:fb:e2:dc:56:6a:c6:cb:51:4e:
                    3f:17:06:bc:55:0b:3b:44:d1:f2:e6:3c:4d:b3:9a:
                    29:d3:b1:4f:95:aa:b5:13:98:d6:ae:53:98:a5:9b:
                    a5:ff
                Exponent: 65537 (0x10001)
        X509v3 extensions:
            X509v3 Basic Constraints: 
                CA:FALSE
            X509v3 Subject Key Identifier: 
                34:79:EF:76:49:01:B0:A5:A4:59:16:D3:67:7C:2D:81:C3:24:A8:9B
            X509v3 Authority Key Identifier: 
                keyid:87:5F:96:79:7D:85:FA:A5:AC:D6:DF:47:B4:C7:5A:09:C2:6E:63:70
                DirName:/CN=team31-net
                serial:2E:C1:4B:8E:90:7B:CB:24:23:21:9F:D9:3B:CA:20:83:35:14:7A:98
            X509v3 Extended Key Usage: 
                TLS Web Client Authentication
            X509v3 Key Usage: 
                Digital Signature
    Signature Algorithm: sha256WithRSAEncryption
    Signature Value:
        15:a5:b3:d3:ce:29:3b:e7:2e:22:6b:cd:31:a3:f9:d4:b9:43:
        13:1b:a7:91:aa:0c:90:80:bd:3b:d5:73:94:c2:14:12:ed:3f:
        05:e5:f7:29:a0:b2:4f:a4:1f:43:ee:ea:6b:08:dc:2d:b3:d5:
        fd:3e:67:7b:01:3c:5e:26:a3:a5:bc:74:e0:2c:3f:3a:67:78:
        3f:22:6a:c4:ac:cc:89:e1:61:d0:3f:13:e8:27:16:c1:f3:05:
        1c:f5:fd:bd:61:37:d3:03:3a:04:56:83:a1:3d:a1:3f:af:53:
        51:3a:db:72:20:b5:4d:1b:db:2e:8c:22:11:ba:77:08:51:35:
        d7:ba:51:0c:6b:c6:78:c6:68:38:5b:c9:08:40:5a:dc:1f:69:
        ac:24:e9:e1:00:33:51:34:aa:1e:50:68:1b:93:34:02:91:01:
        e0:b0:2c:39:66:c0:1c:ba:c4:a8:2b:37:7b:1a:fd:94:27:e2:
        15:a7:a8:b8:8c:41:da:3f:27:67:f3:cc:f3:17:87:26:a7:2b:
        19:b4:7f:64:84:04:1b:8b:37:fc:d2:03:cd:82:53:f8:47:e5:
        73:3b:2b:a8:a8:33:5d:90:80:d9:c5:ef:bb:83:2f:3f:62:3d:
        56:3a:7f:c0:3b:27:51:28:9b:96:9a:82:d7:dd:b0:a9:e7:f1:
        13:ee:d2:ee
-----BEGIN CERTIFICATE-----
MIIDWTCCAkGgAwIBAgIQTIEJHcIer/evLBRYIx4VMTANBgkqhkiG9w0BAQsFADAV
MRMwEQYDVQQDDAp0ZWFtMzEtbmV0MB4XDTIzMTEwNDExMjc1N1oXDTI2MTAxOTEx
Mjc1N1owGDEWMBQGA1UEAwwNdGVhbTMxLWNsaWVudDCCASIwDQYJKoZIhvcNAQEB
BQADggEPADCCAQoCggEBAKgYI5DCn+sWh1GdhKQ+YpLmVCfIhUPUotH/o+fVNNoU
NfBEn7ICztDh0SZh7P5pGaXrgsSAIdbLV0xc8qoeOiuidZpBERoZz9OrKJaLcxl2
0w9/NpQpyqnzV+K+fP96TGDxKGkwBXOmARDTxI2vjiAwnfqbAoBwU7kxSCaPDLZg
4gnWz4Z3TT22b04UjU33r5aGAdDUxGtQ9DzTZwED3pXTUtbrel6JLt1sSOL3RSAo
HekVK56550aEGHI03mBisSaINajH6aQU1pTf6nDNbvIo1ZSTYjjH++LcVmrGy1FO
PxcGvFULO0TR8uY8TbOaKdOxT5WqtROY1q5TmKWbpf8CAwEAAaOBoTCBnjAJBgNV
HRMEAjAAMB0GA1UdDgQWBBQ0ee92SQGwpaRZFtNnfC2BwySomzBQBgNVHSMESTBH
gBSHX5Z5fYX6pazW30e0x1oJwm5jcKEZpBcwFTETMBEGA1UEAwwKdGVhbTMxLW5l
dIIULsFLjpB7yyQjIZ/ZO8oggzUUepgwEwYDVR0lBAwwCgYIKwYBBQUHAwIwCwYD
VR0PBAQDAgeAMA0GCSqGSIb3DQEBCwUAA4IBAQAVpbPTzik75y4ia80xo/nUuUMT
G6eRqgyQgL071XOUwhQS7T8F5fcpoLJPpB9D7uprCNwts9X9Pmd7ATxeJqOlvHTg
LD86Z3g/ImrErMyJ4WHQPxPoJxbB8wUc9f29YTfTAzoEVoOhPaE/r1NROttyILVN
G9sujCIRuncIUTXXulEMa8Z4xmg4W8kIQFrcH2msJOnhADNRNKoeUGgbkzQCkQHg
sCw5ZsAcusSoKzd7Gv2UJ+IVp6i4jEHaPydn88zzF4cmpysZtH9khAQbizf80gPN
glP4R+VzOyuoqDNdkIDZxe+7gy8/Yj1WOn/AOydRKJuWmoLX3bCp5/ET7tLu
-----END CERTIFICATE-----
