Certificate:
    Data:
        Version: 3 (0x2)
        Serial Number:
            98:3c:5c:1e:d8:83:fb:3c:25:70:e5:3b:44:8e:53:14
        Signature Algorithm: sha256WithRSAEncryption
        Issuer: CN=team31-net
        Validity
            Not Before: Nov  4 11:27:57 2023 GMT
            Not After : Oct 19 11:27:57 2026 GMT
        Subject: CN=team31-server
        Subject Public Key Info:
            Public Key Algorithm: rsaEncryption
                Public-Key: (2048 bit)
                Modulus:
                    00:af:c8:66:65:9a:9e:97:d2:1c:61:47:a3:9d:5f:
                    e9:4a:eb:24:3b:55:5d:76:2b:5e:bf:cf:ac:ec:df:
                    06:e2:9f:e4:d8:d3:35:26:cc:83:bc:a2:31:2f:24:
                    a5:a5:df:bb:68:b7:8a:68:81:c8:ce:fd:0c:3e:de:
                    d7:df:2e:03:47:34:87:8b:c3:ca:4a:c3:e9:80:7d:
                    56:57:70:0b:b2:69:50:01:36:e3:c6:8a:f4:80:fc:
                    2c:0c:fd:d4:26:23:b8:50:53:6a:a1:2c:55:77:3e:
                    62:8e:77:ac:88:8c:bb:48:ef:28:ee:34:2b:9f:ae:
                    97:8d:b0:bf:ef:e1:82:a8:91:18:52:73:38:dc:a1:
                    d3:06:9b:08:80:e0:08:67:89:65:54:6a:7d:32:bf:
                    7b:ad:d7:e9:cc:44:a2:2b:a3:7b:4d:7f:b3:9a:53:
                    11:e1:11:59:e2:2a:07:58:d9:7e:46:08:7f:62:96:
                    ca:cc:28:b2:9c:af:bf:d1:b0:1b:4d:c3:4c:39:c7:
                    82:9a:13:74:2c:aa:91:38:53:57:40:8d:81:b1:2c:
                    1c:1e:25:0f:19:1e:e6:36:25:2b:e8:c2:06:4e:5f:
                    d9:2f:12:47:34:a0:ee:65:df:e8:04:0a:af:9d:3f:
                    86:39:da:7a:c6:1f:df:1d:47:ef:52:0d:0a:2b:20:
                    bd:85
                Exponent: 65537 (0x10001)
        X509v3 extensions:
            X509v3 Basic Constraints: 
                CA:FALSE
            X509v3 Subject Key Identifier: 
                A2:5A:15:FE:6F:FF:37:E8:E6:5F:8E:75:22:16:43:A1:6C:21:6B:9F
            X509v3 Authority Key Identifier: 
                keyid:87:5F:96:79:7D:85:FA:A5:AC:D6:DF:47:B4:C7:5A:09:C2:6E:63:70
                DirName:/CN=team31-net
                serial:2E:C1:4B:8E:90:7B:CB:24:23:21:9F:D9:3B:CA:20:83:35:14:7A:98
            X509v3 Extended Key Usage: 
                TLS Web Server Authentication
            X509v3 Key Usage: 
                Digital Signature, Key Encipherment
            X509v3 Subject Alternative Name: 
                DNS:team31-server
    Signature Algorithm: sha256WithRSAEncryption
    Signature Value:
        6b:dc:ae:78:14:9c:6e:cc:ec:9b:d6:b3:e1:f0:cb:cc:c1:8d:
        cb:53:b7:ba:15:19:10:2c:84:fb:b2:e3:fd:57:b9:12:60:a3:
        5d:43:6c:85:a8:97:d3:71:88:61:f1:0d:dc:78:45:d0:f1:02:
        a3:a3:65:0d:ee:ed:ca:88:de:98:d9:70:9b:b8:5a:88:06:7d:
        5d:0e:97:9a:79:13:a1:b9:ba:b7:17:b5:97:07:b3:70:67:92:
        b3:4d:26:8a:f9:a8:06:81:e0:5a:7f:d3:57:9f:6c:c7:8f:43:
        c3:d5:2b:55:2b:2f:f7:e5:7d:9a:7e:2d:80:4c:59:c5:13:b3:
        40:cd:2d:ec:cf:ad:84:bc:ed:a3:ad:f8:7a:8f:0b:f1:0a:a7:
        6f:e6:f1:8c:63:b7:b1:f2:a4:1f:bd:34:59:f5:ab:cd:52:97:
        6e:70:52:11:ab:30:cf:d6:b5:79:3f:1c:c0:a0:23:a4:5e:d4:
        1c:12:7e:13:da:38:5d:3d:d3:54:bc:45:4e:ce:5a:d8:ae:10:
        0a:35:a6:1a:49:26:94:59:84:6e:fe:0b:c8:22:a2:21:d1:6b:
        40:32:83:93:15:5a:51:2f:15:f3:ab:9e:80:b0:52:cf:fd:e4:
        a2:bd:18:a0:9c:c7:2e:9b:17:15:6f:86:ad:65:32:26:4e:4e:
        e8:0f:e6:b5
-----BEGIN CERTIFICATE-----
MIIDdDCCAlygAwIBAgIRAJg8XB7Yg/s8JXDlO0SOUxQwDQYJKoZIhvcNAQELBQAw
FTETMBEGA1UEAwwKdGVhbTMxLW5ldDAeFw0yMzExMDQxMTI3NTdaFw0yNjEwMTkx
MTI3NTdaMBgxFjAUBgNVBAMMDXRlYW0zMS1zZXJ2ZXIwggEiMA0GCSqGSIb3DQEB
AQUAA4IBDwAwggEKAoIBAQCvyGZlmp6X0hxhR6OdX+lK6yQ7VV12K16/z6zs3wbi
n+TY0zUmzIO8ojEvJKWl37tot4pogcjO/Qw+3tffLgNHNIeLw8pKw+mAfVZXcAuy
aVABNuPGivSA/CwM/dQmI7hQU2qhLFV3PmKOd6yIjLtI7yjuNCufrpeNsL/v4YKo
kRhSczjcodMGmwiA4AhniWVUan0yv3ut1+nMRKIro3tNf7OaUxHhEVniKgdY2X5G
CH9ilsrMKLKcr7/RsBtNw0w5x4KaE3QsqpE4U1dAjYGxLBweJQ8ZHuY2JSvowgZO
X9kvEkc0oO5l3+gECq+dP4Y52nrGH98dR+9SDQorIL2FAgMBAAGjgbswgbgwCQYD
VR0TBAIwADAdBgNVHQ4EFgQUoloV/m//N+jmX451IhZDoWwha58wUAYDVR0jBEkw
R4AUh1+WeX2F+qWs1t9HtMdaCcJuY3ChGaQXMBUxEzARBgNVBAMMCnRlYW0zMS1u
ZXSCFC7BS46Qe8skIyGf2TvKIIM1FHqYMBMGA1UdJQQMMAoGCCsGAQUFBwMBMAsG
A1UdDwQEAwIFoDAYBgNVHREEETAPgg10ZWFtMzEtc2VydmVyMA0GCSqGSIb3DQEB
CwUAA4IBAQBr3K54FJxuzOyb1rPh8MvMwY3LU7e6FRkQLIT7suP9V7kSYKNdQ2yF
qJfTcYhh8Q3ceEXQ8QKjo2UN7u3KiN6Y2XCbuFqIBn1dDpeaeROhubq3F7WXB7Nw
Z5KzTSaK+agGgeBaf9NXn2zHj0PD1StVKy/35X2afi2ATFnFE7NAzS3sz62EvO2j
rfh6jwvxCqdv5vGMY7ex8qQfvTRZ9avNUpducFIRqzDP1rV5PxzAoCOkXtQcEn4T
2jhdPdNUvEVOzlrYrhAKNaYaSSaUWYRu/gvIIqIh0WtAMoOTFVpRLxXzq56AsFLP
/eSivRignMcumxcVb4atZTImTk7oD+a1
-----END CERTIFICATE-----
