Certificate:
    Data:
        Version: 3 (0x2)
        Serial Number:
            9d:ba:87:7b:d4:87:fe:30:ed:b5:ab:78:a6:ce:e3:07
        Signature Algorithm: sha256WithRSAEncryption
        Issuer: CN=team31-net
        Validity
            Not Before: Nov  3 20:39:47 2023 GMT
            Not After : Oct 18 20:39:47 2026 GMT
        Subject: CN=team31-client
        Subject Public Key Info:
            Public Key Algorithm: rsaEncryption
                Public-Key: (2048 bit)
                Modulus:
                    00:d2:76:16:d2:65:29:22:12:69:fc:b1:01:c7:66:
                    23:59:50:40:c7:13:f8:b4:df:5b:7a:a8:5a:e6:04:
                    b9:be:cf:16:28:b2:23:9f:d6:37:bb:2b:05:9f:d2:
                    7a:fa:81:af:66:39:27:1e:42:14:4c:df:3d:c1:6a:
                    61:ec:dc:e4:c3:c6:b3:2c:bc:78:2e:68:88:d3:ab:
                    f3:9c:ee:1d:9b:a5:80:93:23:4f:3b:0a:99:59:e0:
                    41:4f:99:6e:84:37:78:3e:ca:17:ec:db:ec:48:ae:
                    47:ab:3d:42:e9:a4:50:6c:9c:2a:4d:9d:ee:cd:d9:
                    d3:23:04:c1:2f:04:bc:19:32:c9:e9:77:f4:54:07:
                    83:0d:3e:e7:5b:9c:bc:07:55:fe:e4:29:39:ec:cf:
                    5a:cd:77:51:fa:4e:35:36:9d:3d:53:de:f9:a0:de:
                    21:cc:ef:85:e2:e1:63:ca:40:ef:5e:a2:f0:7b:75:
                    ee:20:89:b9:04:90:fd:eb:35:a7:93:ff:06:df:21:
                    e9:77:4f:a3:a2:64:8a:30:d9:97:b0:62:f3:1d:c9:
                    7b:94:dd:38:af:ec:50:34:19:7f:12:a3:98:09:45:
                    5d:86:e5:fb:24:f7:54:9e:cd:e3:d8:30:fc:87:d4:
                    40:28:2c:b4:e2:ed:93:24:af:e7:58:ed:77:25:9d:
                    29:69
                Exponent: 65537 (0x10001)
        X509v3 extensions:
            X509v3 Basic Constraints: 
                CA:FALSE
            X509v3 Subject Key Identifier: 
                1B:8C:FF:1D:AE:61:68:1D:E0:0D:58:3A:F5:B4:6E:57:5C:A2:11:E0
            X509v3 Authority Key Identifier: 
                keyid:85:AF:7C:29:55:F8:0E:CE:81:0D:21:55:EB:38:DF:19:7E:B5:69:FB
                DirName:/CN=team31-net
                serial:1C:97:04:0D:BC:5D:B4:D5:7A:6F:A4:A5:E4:B5:89:CA:6A:C0:F5:09
            X509v3 Extended Key Usage: 
                TLS Web Client Authentication
            X509v3 Key Usage: 
                Digital Signature
    Signature Algorithm: sha256WithRSAEncryption
    Signature Value:
        5b:68:ce:53:56:f4:38:ca:10:ba:db:95:0e:02:87:64:0f:66:
        18:45:22:38:e5:b3:07:1b:8e:79:f5:19:29:7f:d8:4b:7c:ea:
        a9:78:10:f4:4a:72:ec:4c:35:85:c5:d5:c2:43:9f:09:ce:4b:
        71:cb:0d:60:54:e6:ad:0b:7b:cc:27:01:56:7c:38:f9:e7:2a:
        ad:f5:40:41:c2:e8:1c:d2:de:f9:65:71:3b:75:6c:df:58:7a:
        03:be:23:fe:67:aa:c5:6d:81:30:9d:4f:34:35:60:9a:31:0c:
        f3:e7:db:97:41:93:5c:43:68:62:cf:97:53:6a:40:a4:b6:9a:
        8c:db:6b:b7:88:05:a4:a3:1c:ed:d2:b9:93:e9:6c:d8:68:ca:
        f7:c1:39:1e:f2:13:56:9c:0f:a9:61:79:5b:ce:28:29:3d:67:
        61:6d:09:a0:97:0e:28:0a:bb:c0:78:5a:e7:f9:37:a1:5b:36:
        3b:b8:f2:e8:7e:12:39:f9:2d:ea:3c:0e:2d:a9:55:17:aa:b1:
        49:21:07:45:f0:fc:e2:be:16:3b:dc:e5:fd:1a:4b:82:55:25:
        fd:44:c8:00:9a:1b:b0:59:bd:41:67:d1:3b:52:2a:02:46:7d:
        45:6b:c0:0b:1a:47:04:26:5f:c5:32:d2:96:5c:71:72:7b:85:
        26:0f:4a:89
-----BEGIN CERTIFICATE-----
MIIDWjCCAkKgAwIBAgIRAJ26h3vUh/4w7bWreKbO4wcwDQYJKoZIhvcNAQELBQAw
FTETMBEGA1UEAwwKdGVhbTMxLW5ldDAeFw0yMzExMDMyMDM5NDdaFw0yNjEwMTgy
MDM5NDdaMBgxFjAUBgNVBAMMDXRlYW0zMS1jbGllbnQwggEiMA0GCSqGSIb3DQEB
AQUAA4IBDwAwggEKAoIBAQDSdhbSZSkiEmn8sQHHZiNZUEDHE/i031t6qFrmBLm+
zxYosiOf1je7KwWf0nr6ga9mOSceQhRM3z3BamHs3OTDxrMsvHguaIjTq/Oc7h2b
pYCTI087CplZ4EFPmW6EN3g+yhfs2+xIrkerPULppFBsnCpNne7N2dMjBMEvBLwZ
Msnpd/RUB4MNPudbnLwHVf7kKTnsz1rNd1H6TjU2nT1T3vmg3iHM74Xi4WPKQO9e
ovB7de4gibkEkP3rNaeT/wbfIel3T6OiZIow2ZewYvMdyXuU3Tiv7FA0GX8So5gJ
RV2G5fsk91SezePYMPyH1EAoLLTi7ZMkr+dY7XclnSlpAgMBAAGjgaEwgZ4wCQYD
VR0TBAIwADAdBgNVHQ4EFgQUG4z/Ha5haB3gDVg69bRuV1yiEeAwUAYDVR0jBEkw
R4AUha98KVX4Ds6BDSFV6zjfGX61afuhGaQXMBUxEzARBgNVBAMMCnRlYW0zMS1u
ZXSCFByXBA28XbTVem+kpeS1icpqwPUJMBMGA1UdJQQMMAoGCCsGAQUFBwMCMAsG
A1UdDwQEAwIHgDANBgkqhkiG9w0BAQsFAAOCAQEAW2jOU1b0OMoQutuVDgKHZA9m
GEUiOOWzBxuOefUZKX/YS3zqqXgQ9Epy7Ew1hcXVwkOfCc5LccsNYFTmrQt7zCcB
Vnw4+ecqrfVAQcLoHNLe+WVxO3Vs31h6A74j/meqxW2BMJ1PNDVgmjEM8+fbl0GT
XENoYs+XU2pApLaajNtrt4gFpKMc7dK5k+ls2GjK98E5HvITVpwPqWF5W84oKT1n
YW0JoJcOKAq7wHha5/k3oVs2O7jy6H4SOfkt6jwOLalVF6qxSSEHRfD84r4WO9zl
/RpLglUl/UTIAJobsFm9QWfRO1IqAkZ9RWvACxpHBCZfxTLSllxxcnuFJg9KiQ==
-----END CERTIFICATE-----
