Certificate:
    Data:
        Version: 3 (0x2)
        Serial Number:
            bb:07:00:ac:5c:11:49:da:2b:a3:6b:b8:a1:57:6c:c7
        Signature Algorithm: sha256WithRSAEncryption
        Issuer: CN=team31-net
        Validity
            Not Before: Nov  4 10:40:48 2023 GMT
            Not After : Oct 19 10:40:48 2026 GMT
        Subject: CN=team31-client
        Subject Public Key Info:
            Public Key Algorithm: rsaEncryption
                Public-Key: (2048 bit)
                Modulus:
                    00:b6:35:ef:3a:dd:83:92:7f:2e:dc:bb:41:7b:b2:
                    e1:1e:a5:fd:51:03:50:d2:88:8b:88:9d:91:60:ce:
                    5e:30:4a:15:f7:1c:4a:fa:47:f5:e3:fd:74:5b:0d:
                    ec:83:94:fc:7d:df:ef:a4:01:73:c1:4d:72:09:ff:
                    9b:ac:f1:f2:08:63:09:41:37:82:d0:f9:b5:d0:a6:
                    2a:96:29:8b:fd:79:0a:f3:8c:89:f7:fb:ba:10:70:
                    a5:fb:ba:c3:b7:18:a2:10:5e:d0:b4:da:ff:80:0c:
                    40:cb:04:69:49:63:29:bc:10:41:5b:23:15:50:a2:
                    e6:d8:a3:c4:e2:ec:64:ba:7d:f0:78:2b:da:f2:17:
                    f4:0a:2b:76:9e:19:c0:48:6e:69:8b:ff:be:a0:2d:
                    36:aa:0e:16:52:9f:28:6a:52:4b:f3:42:06:75:51:
                    40:fe:38:c7:37:eb:56:4f:30:0a:7d:7f:56:30:ee:
                    66:64:0f:20:06:65:5b:4e:83:94:80:67:84:e2:f6:
                    3d:fc:c9:50:27:bd:c7:dd:08:2f:52:7f:f1:94:06:
                    81:30:b6:06:6b:91:b6:8e:1f:c9:aa:3f:1e:58:ba:
                    66:b8:93:c8:6e:ab:7e:cb:47:e8:c5:f0:1b:06:5f:
                    39:b4:3b:52:77:f4:29:58:7c:01:cf:59:b7:55:6b:
                    52:e5
                Exponent: 65537 (0x10001)
        X509v3 extensions:
            X509v3 Basic Constraints: 
                CA:FALSE
            X509v3 Subject Key Identifier: 
                90:71:A0:EB:13:14:6B:70:F3:B1:76:72:75:52:F5:9F:B7:C4:ED:40
            X509v3 Authority Key Identifier: 
                keyid:FA:24:91:9A:9B:F2:EF:FA:0C:F7:95:A7:14:B3:E9:89:DF:A2:2D:03
                DirName:/CN=team31-net
                serial:61:4F:04:11:E3:B2:83:5A:20:1F:E3:5F:6F:2D:BA:44:11:0B:6A:E2
            X509v3 Extended Key Usage: 
                TLS Web Client Authentication
            X509v3 Key Usage: 
                Digital Signature
    Signature Algorithm: sha256WithRSAEncryption
    Signature Value:
        7f:52:40:f4:85:75:9a:25:35:28:b5:e0:94:56:e8:85:4b:7e:
        78:15:67:66:d4:66:6e:5d:ce:bc:b0:46:d2:e4:63:fd:ed:15:
        29:e7:ff:39:f2:1a:87:f3:2a:ce:14:29:a3:39:82:e2:56:43:
        e3:c3:c8:3b:3b:42:ff:01:9c:62:b7:5c:23:be:93:80:44:21:
        fe:4b:37:85:6d:23:ce:40:5d:c4:73:f1:19:27:67:09:05:4d:
        0a:4e:89:95:f6:41:26:e8:6f:ec:c3:0b:90:57:71:d8:aa:d9:
        d0:15:0d:06:f5:87:28:19:d6:e3:6a:91:ab:8c:e3:00:d6:ed:
        49:04:32:1d:8b:3f:09:ed:80:5e:b5:9b:d2:d9:32:57:c2:da:
        35:06:1b:4a:63:f8:f2:45:46:65:42:f0:a4:4f:91:79:bf:e2:
        d2:16:29:db:98:05:4a:9d:6c:35:81:7b:12:0b:16:6c:0c:4b:
        0f:2d:40:a1:ca:97:b4:89:33:51:85:02:be:5a:56:8a:77:f0:
        6a:c8:3f:3a:b0:71:f4:a2:a5:f2:00:80:ca:fc:1f:24:11:8f:
        84:05:d0:8c:0e:4d:ba:00:5f:52:d1:2f:6b:f5:1e:60:82:2f:
        d8:05:b8:be:a8:dc:37:99:db:00:81:24:b8:28:54:66:89:ba:
        75:c5:85:79
-----BEGIN CERTIFICATE-----
MIIDWjCCAkKgAwIBAgIRALsHAKxcEUnaK6NruKFXbMcwDQYJKoZIhvcNAQELBQAw
FTETMBEGA1UEAwwKdGVhbTMxLW5ldDAeFw0yMzExMDQxMDQwNDhaFw0yNjEwMTkx
MDQwNDhaMBgxFjAUBgNVBAMMDXRlYW0zMS1jbGllbnQwggEiMA0GCSqGSIb3DQEB
AQUAA4IBDwAwggEKAoIBAQC2Ne863YOSfy7cu0F7suEepf1RA1DSiIuInZFgzl4w
ShX3HEr6R/Xj/XRbDeyDlPx93++kAXPBTXIJ/5us8fIIYwlBN4LQ+bXQpiqWKYv9
eQrzjIn3+7oQcKX7usO3GKIQXtC02v+ADEDLBGlJYym8EEFbIxVQoubYo8Ti7GS6
ffB4K9ryF/QKK3aeGcBIbmmL/76gLTaqDhZSnyhqUkvzQgZ1UUD+OMc361ZPMAp9
f1Yw7mZkDyAGZVtOg5SAZ4Ti9j38yVAnvcfdCC9Sf/GUBoEwtgZrkbaOH8mqPx5Y
uma4k8huq37LR+jF8BsGXzm0O1J39ClYfAHPWbdVa1LlAgMBAAGjgaEwgZ4wCQYD
VR0TBAIwADAdBgNVHQ4EFgQUkHGg6xMUa3DzsXZydVL1n7fE7UAwUAYDVR0jBEkw
R4AU+iSRmpvy7/oM95WnFLPpid+iLQOhGaQXMBUxEzARBgNVBAMMCnRlYW0zMS1u
ZXSCFGFPBBHjsoNaIB/jX28tukQRC2riMBMGA1UdJQQMMAoGCCsGAQUFBwMCMAsG
A1UdDwQEAwIHgDANBgkqhkiG9w0BAQsFAAOCAQEAf1JA9IV1miU1KLXglFbohUt+
eBVnZtRmbl3OvLBG0uRj/e0VKef/OfIah/MqzhQpozmC4lZD48PIOztC/wGcYrdc
I76TgEQh/ks3hW0jzkBdxHPxGSdnCQVNCk6JlfZBJuhv7MMLkFdx2KrZ0BUNBvWH
KBnW42qRq4zjANbtSQQyHYs/Ce2AXrWb0tkyV8LaNQYbSmP48kVGZULwpE+Reb/i
0hYp25gFSp1sNYF7EgsWbAxLDy1AocqXtIkzUYUCvlpWinfwasg/OrBx9KKl8gCA
yvwfJBGPhAXQjA5NugBfUtEva/UeYIIv2AW4vqjcN5nbAIEkuChUZom6dcWFeQ==
-----END CERTIFICATE-----
