Certificate:
    Data:
        Version: 3 (0x2)
        Serial Number:
            34:da:eb:b3:eb:c3:44:cc:4b:28:e5:b3:9f:d2:e0:fc
        Signature Algorithm: sha256WithRSAEncryption
        Issuer: CN=team457-net
        Validity
            Not Before: Nov  3 20:47:36 2023 GMT
            Not After : Oct 18 20:47:36 2026 GMT
        Subject: CN=team457-server
        Subject Public Key Info:
            Public Key Algorithm: rsaEncryption
                Public-Key: (2048 bit)
                Modulus:
                    00:d9:f3:22:36:31:d0:81:c5:8d:81:30:05:3e:39:
                    37:af:d6:6d:5b:cf:46:e6:db:5b:71:b6:73:74:5c:
                    8d:a3:1a:6c:15:7f:49:43:4a:9c:2b:0d:2f:fe:03:
                    0f:06:6a:0d:1a:62:5e:da:04:47:1e:29:28:0a:b8:
                    c9:92:a0:d3:11:b1:1e:32:98:dd:b2:b3:53:e2:18:
                    d5:fb:de:d7:86:e0:d3:b5:87:15:ed:20:50:c1:66:
                    95:56:71:81:28:c4:e0:cf:15:bc:0e:14:94:44:b0:
                    95:54:2e:6b:7b:a5:b3:c1:aa:05:c3:f8:5b:0d:49:
                    3d:5e:e4:73:4a:58:f9:e5:6d:3d:8b:09:7d:99:39:
                    ad:48:e3:7d:9e:11:3f:48:e0:6e:92:d8:4c:b1:46:
                    5a:5d:c1:c9:94:1e:4a:67:dd:bb:6f:c8:4c:6f:a9:
                    e4:c8:85:ca:0c:11:54:8b:5a:61:5b:3b:e7:72:88:
                    18:54:38:e4:69:03:d8:f3:ef:bf:72:46:64:a4:0d:
                    8d:59:2b:74:39:af:c8:c5:12:d1:e9:51:44:88:aa:
                    bf:8d:33:fe:64:6b:aa:20:e5:26:d6:72:3c:09:86:
                    a7:6e:d6:97:d1:87:5e:f6:61:8e:8b:10:9d:27:f9:
                    d3:ce:dd:45:f7:75:c8:26:cd:e8:76:e9:8f:b1:ce:
                    1c:67
                Exponent: 65537 (0x10001)
        X509v3 extensions:
            X509v3 Basic Constraints: 
                CA:FALSE
            X509v3 Subject Key Identifier: 
                15:B5:A6:2A:13:2E:29:37:1C:BD:E3:EA:72:90:91:06:46:95:16:77
            X509v3 Authority Key Identifier: 
                keyid:C1:41:99:64:10:AC:71:4F:5A:C5:DC:CE:19:50:93:96:DA:B0:91:4C
                DirName:/CN=team457-net
                serial:34:03:10:89:71:F6:E1:09:D0:26:14:67:B7:5E:85:43:20:68:92:27
            X509v3 Extended Key Usage: 
                TLS Web Server Authentication
            X509v3 Key Usage: 
                Digital Signature, Key Encipherment
            X509v3 Subject Alternative Name: 
                DNS:team457-server
    Signature Algorithm: sha256WithRSAEncryption
    Signature Value:
        85:67:41:28:39:83:10:0d:47:ff:08:97:97:6b:41:0a:c9:03:
        25:10:fc:39:de:f8:c2:cb:1a:a9:59:24:74:c0:a4:12:95:f8:
        2b:3c:c7:6b:e1:17:bc:6e:9d:13:ed:51:11:9a:e1:d5:35:3f:
        51:22:1f:67:d2:21:2e:2b:0c:c8:5f:7a:c7:68:9e:69:b8:81:
        49:ca:b1:a6:87:f4:1f:69:49:76:49:07:da:4c:c5:3a:4a:71:
        67:ad:91:8a:68:36:57:db:16:fb:30:ad:a4:95:bf:ca:14:3c:
        6f:63:02:a3:18:20:f1:79:c9:35:6a:aa:c8:e5:f4:29:67:4b:
        16:5b:85:4c:69:bc:76:ee:a7:17:20:d0:00:22:9f:31:5e:e5:
        46:cb:3f:0d:16:bc:16:91:fb:fa:5a:35:87:60:9c:49:a1:82:
        25:eb:d0:93:16:76:08:43:52:80:cf:70:08:ca:79:1a:0c:0b:
        51:bf:80:9c:eb:c1:73:28:a6:bc:37:a8:62:ea:10:3e:aa:1b:
        c4:5d:8e:4e:6c:ce:be:42:94:d0:97:a4:67:63:50:6f:57:2a:
        ad:ea:4f:71:2c:78:b4:57:a0:b7:72:e3:ea:dc:84:c3:a2:a1:
        5a:57:8d:f7:d0:16:53:96:8c:16:f9:87:72:11:99:d4:8e:d6:
        eb:71:6c:69
-----BEGIN CERTIFICATE-----
MIIDdzCCAl+gAwIBAgIQNNrrs+vDRMxLKOWzn9Lg/DANBgkqhkiG9w0BAQsFADAW
MRQwEgYDVQQDDAt0ZWFtNDU3LW5ldDAeFw0yMzExMDMyMDQ3MzZaFw0yNjEwMTgy
MDQ3MzZaMBkxFzAVBgNVBAMMDnRlYW00NTctc2VydmVyMIIBIjANBgkqhkiG9w0B
AQEFAAOCAQ8AMIIBCgKCAQEA2fMiNjHQgcWNgTAFPjk3r9ZtW89G5ttbcbZzdFyN
oxpsFX9JQ0qcKw0v/gMPBmoNGmJe2gRHHikoCrjJkqDTEbEeMpjdsrNT4hjV+97X
huDTtYcV7SBQwWaVVnGBKMTgzxW8DhSURLCVVC5re6WzwaoFw/hbDUk9XuRzSlj5
5W09iwl9mTmtSON9nhE/SOBukthMsUZaXcHJlB5KZ927b8hMb6nkyIXKDBFUi1ph
WzvncogYVDjkaQPY8++/ckZkpA2NWSt0Oa/IxRLR6VFEiKq/jTP+ZGuqIOUm1nI8
CYanbtaX0Yde9mGOixCdJ/nTzt1F93XIJs3odumPsc4cZwIDAQABo4G9MIG6MAkG
A1UdEwQCMAAwHQYDVR0OBBYEFBW1pioTLik3HL3j6nKQkQZGlRZ3MFEGA1UdIwRK
MEiAFMFBmWQQrHFPWsXczhlQk5basJFMoRqkGDAWMRQwEgYDVQQDDAt0ZWFtNDU3
LW5ldIIUNAMQiXH24QnQJhRnt16FQyBokicwEwYDVR0lBAwwCgYIKwYBBQUHAwEw
CwYDVR0PBAQDAgWgMBkGA1UdEQQSMBCCDnRlYW00NTctc2VydmVyMA0GCSqGSIb3
DQEBCwUAA4IBAQCFZ0EoOYMQDUf/CJeXa0EKyQMlEPw53vjCyxqpWSR0wKQSlfgr
PMdr4Re8bp0T7VERmuHVNT9RIh9n0iEuKwzIX3rHaJ5puIFJyrGmh/QfaUl2SQfa
TMU6SnFnrZGKaDZX2xb7MK2klb/KFDxvYwKjGCDxeck1aqrI5fQpZ0sWW4VMabx2
7qcXINAAIp8xXuVGyz8NFrwWkfv6WjWHYJxJoYIl69CTFnYIQ1KAz3AIynkaDAtR
v4Cc68FzKKa8N6hi6hA+qhvEXY5ObM6+QpTQl6RnY1BvVyqt6k9xLHi0V6C3cuPq
3ITDoqFaV4330BZTlowW+YdyEZnUjtbrcWxp
-----END CERTIFICATE-----
