Certificate:
    Data:
        Version: 3 (0x2)
        Serial Number:
            75:82:58:e6:95:94:f0:da:87:68:6e:cb:a5:91:4c:31
        Signature Algorithm: sha256WithRSAEncryption
        Issuer: CN=team457-net
        Validity
            Not Before: Nov  4 10:48:45 2023 GMT
            Not After : Oct 19 10:48:45 2026 GMT
        Subject: CN=team457-client
        Subject Public Key Info:
            Public Key Algorithm: rsaEncryption
                Public-Key: (2048 bit)
                Modulus:
                    00:d1:cc:71:9a:14:e8:05:2c:df:de:2b:32:9a:f4:
                    6a:14:05:a8:40:ae:ce:3c:57:69:e7:3d:0e:7c:33:
                    bd:43:33:01:91:40:36:35:f2:07:bd:2f:25:fb:94:
                    32:6a:ed:50:7e:8d:b7:a3:8e:1f:a7:96:2f:8b:d2:
                    44:d7:fe:4d:9e:0a:df:fc:d2:ad:18:2e:0c:1b:e3:
                    d6:15:04:f7:b4:35:79:91:7a:41:3f:b1:fa:77:e7:
                    67:fd:67:7a:6d:e5:03:9a:05:9f:ca:a8:f2:5b:50:
                    ad:af:3b:84:7f:87:c8:b1:fe:b2:c9:00:9e:69:99:
                    fc:e9:a8:a7:48:c6:34:35:92:7d:54:fe:bf:45:1f:
                    f2:e4:0a:8f:b4:f5:c0:bf:15:ea:bb:4f:ca:e2:93:
                    16:89:a8:22:27:43:c2:04:1e:3a:29:58:4c:da:84:
                    ca:3e:28:2c:73:71:ae:a9:10:9d:cc:e0:08:1d:ab:
                    5d:56:3d:18:90:90:40:01:ff:f9:67:2d:15:69:97:
                    5e:9a:ff:38:e1:d3:12:3b:df:98:c4:01:68:d1:68:
                    2d:f8:17:12:a2:49:51:e3:b2:27:2b:b1:22:5f:a9:
                    98:9c:9b:77:48:6e:ad:69:ef:4e:9c:4f:6d:0f:d7:
                    89:40:50:e9:f6:12:5b:90:a4:7d:84:be:e2:57:9f:
                    30:9f
                Exponent: 65537 (0x10001)
        X509v3 extensions:
            X509v3 Basic Constraints: 
                CA:FALSE
            X509v3 Subject Key Identifier: 
                B4:D5:51:FE:FE:73:99:BD:EE:5C:57:43:8D:97:A3:92:24:42:3E:38
            X509v3 Authority Key Identifier: 
                keyid:51:7E:35:42:BD:B5:F2:F8:ED:66:D0:D8:CA:F1:8F:E7:0B:03:38:73
                DirName:/CN=team457-net
                serial:4F:7D:4A:4C:DC:6D:24:F7:1E:13:95:06:4C:E6:4F:CC:70:6C:07:42
            X509v3 Extended Key Usage: 
                TLS Web Client Authentication
            X509v3 Key Usage: 
                Digital Signature
    Signature Algorithm: sha256WithRSAEncryption
    Signature Value:
        0f:f5:43:94:d6:ca:63:28:52:57:40:75:52:83:0d:89:2a:9f:
        86:74:0f:31:14:1c:6a:1d:6c:54:99:cc:14:ee:dc:6c:4a:80:
        68:b0:7a:f1:b2:b3:a4:b2:10:aa:d8:7c:54:f8:7a:7b:67:63:
        ea:86:b3:5f:ee:a7:80:3d:42:74:2f:4f:7d:a9:95:76:6b:1f:
        76:12:35:de:10:ab:19:47:67:7d:b8:f4:80:15:8e:a9:cc:20:
        f8:e9:35:50:e4:79:b6:ad:88:4f:66:a9:41:3c:b0:aa:10:bb:
        b5:c5:7f:58:81:98:c8:f0:d6:74:4e:ce:f2:fb:cd:4d:ef:9f:
        12:7c:cb:a6:9f:6a:ad:c2:e7:2f:bb:a9:3e:69:38:03:a0:4b:
        0c:97:87:6a:28:d9:8e:a7:89:e4:49:17:37:ca:02:ca:e5:a8:
        4c:3f:91:c4:23:59:46:92:b7:53:2c:0a:c6:d5:f5:1b:bf:10:
        74:ab:d7:ba:67:92:37:84:e4:d2:c9:7a:a8:9a:3c:f9:5b:e0:
        7c:e5:5c:0e:4e:17:06:2a:c6:81:a5:7e:96:d1:9f:23:e8:87:
        c5:c0:0c:be:a3:b8:31:3c:a9:59:78:ec:ee:73:2a:95:aa:56:
        c5:a0:7c:2e:50:4e:35:c5:d8:4d:45:3d:17:cf:af:6a:db:99:
        06:73:eb:f5
-----BEGIN CERTIFICATE-----
MIIDXDCCAkSgAwIBAgIQdYJY5pWU8NqHaG7LpZFMMTANBgkqhkiG9w0BAQsFADAW
MRQwEgYDVQQDDAt0ZWFtNDU3LW5ldDAeFw0yMzExMDQxMDQ4NDVaFw0yNjEwMTkx
MDQ4NDVaMBkxFzAVBgNVBAMMDnRlYW00NTctY2xpZW50MIIBIjANBgkqhkiG9w0B
AQEFAAOCAQ8AMIIBCgKCAQEA0cxxmhToBSzf3isymvRqFAWoQK7OPFdp5z0OfDO9
QzMBkUA2NfIHvS8l+5Qyau1Qfo23o44fp5Yvi9JE1/5Nngrf/NKtGC4MG+PWFQT3
tDV5kXpBP7H6d+dn/Wd6beUDmgWfyqjyW1CtrzuEf4fIsf6yyQCeaZn86ainSMY0
NZJ9VP6/RR/y5AqPtPXAvxXqu0/K4pMWiagiJ0PCBB46KVhM2oTKPigsc3GuqRCd
zOAIHatdVj0YkJBAAf/5Zy0VaZdemv844dMSO9+YxAFo0Wgt+BcSoklR47InK7Ei
X6mYnJt3SG6tae9OnE9tD9eJQFDp9hJbkKR9hL7iV58wnwIDAQABo4GiMIGfMAkG
A1UdEwQCMAAwHQYDVR0OBBYEFLTVUf7+c5m97lxXQ42Xo5IkQj44MFEGA1UdIwRK
MEiAFFF+NUK9tfL47WbQ2Mrxj+cLAzhzoRqkGDAWMRQwEgYDVQQDDAt0ZWFtNDU3
LW5ldIIUT31KTNxtJPceE5UGTOZPzHBsB0IwEwYDVR0lBAwwCgYIKwYBBQUHAwIw
CwYDVR0PBAQDAgeAMA0GCSqGSIb3DQEBCwUAA4IBAQAP9UOU1spjKFJXQHVSgw2J
Kp+GdA8xFBxqHWxUmcwU7txsSoBosHrxsrOkshCq2HxU+Hp7Z2PqhrNf7qeAPUJ0
L099qZV2ax92EjXeEKsZR2d9uPSAFY6pzCD46TVQ5Hm2rYhPZqlBPLCqELu1xX9Y
gZjI8NZ0Ts7y+81N758SfMumn2qtwucvu6k+aTgDoEsMl4dqKNmOp4nkSRc3ygLK
5ahMP5HEI1lGkrdTLArG1fUbvxB0q9e6Z5I3hOTSyXqomjz5W+B85VwOThcGKsaB
pX6W0Z8j6IfFwAy+o7gxPKlZeOzucyqVqlbFoHwuUE41xdhNRT0Xz69q25kGc+v1
-----END CERTIFICATE-----
