Certificate:
    Data:
        Version: 3 (0x2)
        Serial Number:
            af:42:20:7c:98:7a:8d:51:4a:38:37:0d:e0:1a:f5:1a
        Signature Algorithm: sha256WithRSAEncryption
        Issuer: CN=team457-net
        Validity
            Not Before: Nov  4 11:37:47 2023 GMT
            Not After : Oct 19 11:37:47 2026 GMT
        Subject: CN=team457-client
        Subject Public Key Info:
            Public Key Algorithm: rsaEncryption
                Public-Key: (2048 bit)
                Modulus:
                    00:ae:ac:9a:e5:69:64:ae:85:7e:c1:3b:64:5e:0a:
                    f4:bf:0e:69:01:be:e8:98:d5:a1:a8:27:06:de:a9:
                    e4:d3:36:80:c7:64:87:c8:9a:00:71:b5:60:9b:ad:
                    23:b2:20:fd:63:e3:84:24:43:1b:5e:ed:5f:e1:14:
                    f3:2c:b5:0a:db:79:28:e6:96:36:54:f7:fc:a4:65:
                    2e:c7:02:06:44:12:e9:d2:79:0c:90:e7:c3:ad:ad:
                    b7:db:7b:53:fc:d2:b3:b7:c2:6a:35:e4:95:0f:88:
                    5e:51:1b:65:e9:b6:81:a8:9c:34:09:6f:f3:67:84:
                    65:b6:3c:33:29:82:00:f1:55:68:55:dc:fe:1c:cd:
                    82:1f:24:f2:1d:3c:ab:a5:87:73:bd:b4:fa:e2:8c:
                    43:45:d3:dc:f0:4b:5a:36:ac:bb:d0:d8:22:a8:31:
                    62:6f:e5:61:5b:b1:f5:39:8c:6d:35:9e:4d:84:6a:
                    03:f4:bb:c0:57:7b:7c:b9:47:45:aa:42:a1:77:a9:
                    81:6c:01:64:25:da:3f:d1:0b:72:45:51:ce:3a:46:
                    05:81:0b:49:3b:33:2c:2b:6e:ef:0c:82:98:c2:86:
                    2b:20:f9:01:c3:a8:19:af:4a:fa:d1:b0:83:6a:19:
                    18:ce:cf:aa:c4:ff:9d:12:e5:03:2f:15:99:89:20:
                    95:f5
                Exponent: 65537 (0x10001)
        X509v3 extensions:
            X509v3 Basic Constraints: 
                CA:FALSE
            X509v3 Subject Key Identifier: 
                07:1B:90:BE:78:55:9C:FC:81:61:E0:27:B5:6B:12:B4:EE:25:E1:F2
            X509v3 Authority Key Identifier: 
                keyid:02:B2:AB:F5:C5:35:85:21:3D:B2:BA:68:79:5F:40:9B:3C:4D:BD:45
                DirName:/CN=team457-net
                serial:7C:09:D0:64:F6:20:BA:C2:1C:57:E4:93:04:44:DF:DE:CC:33:02:C0
            X509v3 Extended Key Usage: 
                TLS Web Client Authentication
            X509v3 Key Usage: 
                Digital Signature
    Signature Algorithm: sha256WithRSAEncryption
    Signature Value:
        3b:80:e8:e6:87:01:aa:21:51:88:35:08:2e:10:04:b6:93:06:
        87:ce:f6:79:a0:c3:6d:dc:da:6f:15:cb:bc:37:de:1b:a2:00:
        25:29:4f:a6:44:00:c3:49:1a:26:9b:ac:7a:4e:e6:62:5d:b6:
        40:03:e9:94:f2:63:f8:89:3e:40:26:12:96:af:eb:ee:1a:99:
        a3:8e:b2:8c:db:22:22:77:ac:82:92:25:1e:93:36:05:88:90:
        5f:65:98:47:2d:68:03:aa:dc:ee:24:fe:c8:6e:bd:fe:fd:66:
        80:07:36:bd:cc:ea:9f:d4:52:26:b0:80:13:6a:22:9f:da:76:
        7e:9c:a5:89:0a:bc:38:db:37:62:79:f4:bc:54:a8:77:70:7b:
        0c:86:af:bd:23:8a:76:43:75:03:75:26:aa:51:5c:1c:8f:0c:
        8a:96:80:94:cf:4f:25:1f:d3:0d:82:cc:7e:73:f5:da:e1:15:
        5c:2c:8e:ae:a0:28:6a:0b:02:a5:a0:1e:a2:55:d3:df:b3:1a:
        c5:f9:e4:08:41:01:14:8a:56:19:e7:63:d7:b3:de:31:ee:14:
        82:56:83:ee:ad:01:12:fa:50:8e:b4:db:43:0c:83:0f:34:ee:
        31:75:4b:96:06:01:fc:05:7f:3f:fe:29:07:56:c0:eb:62:cf:
        19:da:d7:40
-----BEGIN CERTIFICATE-----
MIIDXTCCAkWgAwIBAgIRAK9CIHyYeo1RSjg3DeAa9RowDQYJKoZIhvcNAQELBQAw
FjEUMBIGA1UEAwwLdGVhbTQ1Ny1uZXQwHhcNMjMxMTA0MTEzNzQ3WhcNMjYxMDE5
MTEzNzQ3WjAZMRcwFQYDVQQDDA50ZWFtNDU3LWNsaWVudDCCASIwDQYJKoZIhvcN
AQEBBQADggEPADCCAQoCggEBAK6smuVpZK6FfsE7ZF4K9L8OaQG+6JjVoagnBt6p
5NM2gMdkh8iaAHG1YJutI7Ig/WPjhCRDG17tX+EU8yy1Ctt5KOaWNlT3/KRlLscC
BkQS6dJ5DJDnw62tt9t7U/zSs7fCajXklQ+IXlEbZem2gaicNAlv82eEZbY8MymC
APFVaFXc/hzNgh8k8h08q6WHc720+uKMQ0XT3PBLWjasu9DYIqgxYm/lYVux9TmM
bTWeTYRqA/S7wFd7fLlHRapCoXepgWwBZCXaP9ELckVRzjpGBYELSTszLCtu7wyC
mMKGKyD5AcOoGa9K+tGwg2oZGM7PqsT/nRLlAy8VmYkglfUCAwEAAaOBojCBnzAJ
BgNVHRMEAjAAMB0GA1UdDgQWBBQHG5C+eFWc/IFh4Ce1axK07iXh8jBRBgNVHSME
SjBIgBQCsqv1xTWFIT2yumh5X0CbPE29RaEapBgwFjEUMBIGA1UEAwwLdGVhbTQ1
Ny1uZXSCFHwJ0GT2ILrCHFfkkwRE397MMwLAMBMGA1UdJQQMMAoGCCsGAQUFBwMC
MAsGA1UdDwQEAwIHgDANBgkqhkiG9w0BAQsFAAOCAQEAO4Do5ocBqiFRiDUILhAE
tpMGh872eaDDbdzabxXLvDfeG6IAJSlPpkQAw0kaJpusek7mYl22QAPplPJj+Ik+
QCYSlq/r7hqZo46yjNsiInesgpIlHpM2BYiQX2WYRy1oA6rc7iT+yG69/v1mgAc2
vczqn9RSJrCAE2oin9p2fpyliQq8ONs3Ynn0vFSod3B7DIavvSOKdkN1A3UmqlFc
HI8MipaAlM9PJR/TDYLMfnP12uEVXCyOrqAoagsCpaAeolXT37MaxfnkCEEBFIpW
Gedj17PeMe4UglaD7q0BEvpQjrTbQwyDDzTuMXVLlgYB/AV/P/4pB1bA62LPGdrX
QA==
-----END CERTIFICATE-----
