Certificate:
    Data:
        Version: 3 (0x2)
        Serial Number:
            12:b4:26:e0:d1:dd:30:7f:92:a9:39:16:24:49:68:e2
        Signature Algorithm: sha256WithRSAEncryption
        Issuer: CN=team456-net
        Validity
            Not Before: Nov  3 20:47:33 2023 GMT
            Not After : Oct 18 20:47:33 2026 GMT
        Subject: CN=team456-server
        Subject Public Key Info:
            Public Key Algorithm: rsaEncryption
                Public-Key: (2048 bit)
                Modulus:
                    00:ad:7d:0a:00:68:87:e5:b4:fd:56:86:86:e7:5b:
                    92:07:7a:46:6c:9b:87:d6:a6:63:52:1a:61:c2:8f:
                    00:0e:37:3c:fe:15:d7:89:08:fe:60:c5:0e:81:02:
                    6a:c9:ed:46:49:b5:49:e8:9c:37:4c:3b:4d:41:51:
                    36:34:45:2d:fd:5b:56:e9:26:ea:a6:23:0b:88:d5:
                    22:80:0a:40:d2:fc:0f:27:c2:2f:26:9a:55:d3:01:
                    05:78:3f:6b:9c:40:4b:56:0d:5f:86:24:f8:5b:83:
                    e4:26:25:ae:9e:09:9f:0a:25:e6:0c:41:62:0a:26:
                    f9:59:af:41:9b:ba:ac:64:67:f6:b5:7e:c2:65:94:
                    3d:ab:51:23:df:e1:de:7f:d9:37:c6:1f:27:1c:f7:
                    f0:20:7e:c0:6d:e3:94:f9:e8:be:ea:fe:de:73:ad:
                    62:22:bb:5d:7e:41:d9:fc:38:ea:ff:d7:91:cc:d7:
                    65:df:93:cd:34:56:80:a6:65:47:e4:7d:28:25:ae:
                    df:4d:4b:c0:5c:82:84:f1:ce:e8:12:5b:b1:ad:3a:
                    64:e7:8a:8b:2a:1f:22:ab:60:24:46:5c:2b:d3:e4:
                    33:11:ae:89:0f:19:74:a9:b7:0a:5e:f9:7a:17:d4:
                    79:58:fd:e7:98:e9:e3:7a:7b:15:f7:99:59:2f:21:
                    8c:79
                Exponent: 65537 (0x10001)
        X509v3 extensions:
            X509v3 Basic Constraints: 
                CA:FALSE
            X509v3 Subject Key Identifier: 
                08:BA:8B:8F:1E:EF:3A:D9:59:A9:BA:1F:E5:99:72:3B:19:79:BE:F3
            X509v3 Authority Key Identifier: 
                keyid:E5:9C:65:C9:16:AC:CC:9C:71:CD:BC:66:6A:E1:45:98:F2:C2:ED:8B
                DirName:/CN=team456-net
                serial:4B:C3:A7:06:15:AD:81:BB:64:6F:80:21:CC:C8:A7:BB:63:6C:8F:50
            X509v3 Extended Key Usage: 
                TLS Web Server Authentication
            X509v3 Key Usage: 
                Digital Signature, Key Encipherment
            X509v3 Subject Alternative Name: 
                DNS:team456-server
    Signature Algorithm: sha256WithRSAEncryption
    Signature Value:
        59:76:f4:0a:32:0f:16:a7:ca:0d:ae:a4:fc:a0:53:11:42:71:
        12:03:15:41:a6:c2:c7:93:b4:2e:87:bf:bf:26:31:d8:4f:f9:
        68:fc:b2:9d:ac:42:f3:3b:53:7b:90:ec:83:6c:0c:3a:8f:c8:
        41:9b:61:bf:6b:28:cc:0a:44:3b:93:fc:af:53:1a:6f:d2:6e:
        d3:b0:26:44:6c:dd:4a:2e:73:fa:1f:42:d2:c7:2e:18:e2:2c:
        7a:be:0c:b0:1c:2a:61:cd:dd:2c:90:32:33:21:71:26:96:be:
        48:db:ef:f3:6b:6c:fe:a8:d7:90:30:32:87:89:81:3c:25:90:
        db:a0:4e:17:2d:e0:8d:a6:c7:68:d9:63:02:ab:f8:ca:70:a8:
        e7:9a:6e:aa:49:e9:a0:1b:a4:01:55:10:1d:56:0c:e9:2e:e6:
        fc:01:14:b4:91:21:b7:14:04:93:35:88:34:f2:cd:25:94:2c:
        74:6d:23:3a:27:ac:8c:00:18:f1:4d:3b:e6:fb:26:cd:7b:a6:
        8f:e4:da:a8:99:54:b4:57:d6:e9:dd:e4:5b:8b:09:c7:f9:cb:
        48:a7:d3:85:21:8d:7c:14:a3:2b:32:41:e6:76:05:a0:a1:33:
        15:37:72:68:09:de:f7:4e:43:81:e0:ce:dc:f2:43:61:be:82:
        83:d6:bc:5a
-----BEGIN CERTIFICATE-----
MIIDdzCCAl+gAwIBAgIQErQm4NHdMH+SqTkWJElo4jANBgkqhkiG9w0BAQsFADAW
MRQwEgYDVQQDDAt0ZWFtNDU2LW5ldDAeFw0yMzExMDMyMDQ3MzNaFw0yNjEwMTgy
MDQ3MzNaMBkxFzAVBgNVBAMMDnRlYW00NTYtc2VydmVyMIIBIjANBgkqhkiG9w0B
AQEFAAOCAQ8AMIIBCgKCAQEArX0KAGiH5bT9VoaG51uSB3pGbJuH1qZjUhphwo8A
Djc8/hXXiQj+YMUOgQJqye1GSbVJ6Jw3TDtNQVE2NEUt/VtW6SbqpiMLiNUigApA
0vwPJ8IvJppV0wEFeD9rnEBLVg1fhiT4W4PkJiWungmfCiXmDEFiCib5Wa9Bm7qs
ZGf2tX7CZZQ9q1Ej3+Hef9k3xh8nHPfwIH7AbeOU+ei+6v7ec61iIrtdfkHZ/Djq
/9eRzNdl35PNNFaApmVH5H0oJa7fTUvAXIKE8c7oEluxrTpk54qLKh8iq2AkRlwr
0+QzEa6JDxl0qbcKXvl6F9R5WP3nmOnjensV95lZLyGMeQIDAQABo4G9MIG6MAkG
A1UdEwQCMAAwHQYDVR0OBBYEFAi6i48e7zrZWam6H+WZcjsZeb7zMFEGA1UdIwRK
MEiAFOWcZckWrMyccc28ZmrhRZjywu2LoRqkGDAWMRQwEgYDVQQDDAt0ZWFtNDU2
LW5ldIIUS8OnBhWtgbtkb4AhzMinu2Nsj1AwEwYDVR0lBAwwCgYIKwYBBQUHAwEw
CwYDVR0PBAQDAgWgMBkGA1UdEQQSMBCCDnRlYW00NTYtc2VydmVyMA0GCSqGSIb3
DQEBCwUAA4IBAQBZdvQKMg8Wp8oNrqT8oFMRQnESAxVBpsLHk7Quh7+/JjHYT/lo
/LKdrELzO1N7kOyDbAw6j8hBm2G/ayjMCkQ7k/yvUxpv0m7TsCZEbN1KLnP6H0LS
xy4Y4ix6vgywHCphzd0skDIzIXEmlr5I2+/za2z+qNeQMDKHiYE8JZDboE4XLeCN
psdo2WMCq/jKcKjnmm6qSemgG6QBVRAdVgzpLub8ARS0kSG3FASTNYg08s0llCx0
bSM6J6yMABjxTTvm+ybNe6aP5NqomVS0V9bp3eRbiwnH+ctIp9OFIY18FKMrMkHm
dgWgoTMVN3JoCd73TkOB4M7c8kNhvoKD1rxa
-----END CERTIFICATE-----
