Certificate:
    Data:
        Version: 3 (0x2)
        Serial Number:
            40:54:dd:ef:76:61:90:83:94:1c:78:ce:47:19:e8:de
        Signature Algorithm: sha256WithRSAEncryption
        Issuer: CN=team456-net
        Validity
            Not Before: Nov  3 20:47:32 2023 GMT
            Not After : Oct 18 20:47:32 2026 GMT
        Subject: CN=team456-client
        Subject Public Key Info:
            Public Key Algorithm: rsaEncryption
                Public-Key: (2048 bit)
                Modulus:
                    00:cb:ad:92:5b:50:2c:81:18:02:d9:6b:7f:29:16:
                    ae:c2:ce:ea:99:66:b2:36:42:6e:5d:55:63:7f:fc:
                    36:af:84:20:06:8c:e5:35:65:dd:5f:46:a7:d6:73:
                    8d:d5:5c:63:33:ed:6b:28:de:88:92:72:a7:b3:5e:
                    42:6a:eb:68:e5:9c:00:25:73:9e:92:b3:6e:3b:ba:
                    c4:77:e0:b3:2b:39:3a:bf:bf:7d:eb:a9:ab:f6:a6:
                    a0:3b:67:23:ce:b6:ab:64:37:8e:a1:32:58:01:63:
                    ef:07:e9:9d:72:e9:18:1e:4b:a4:33:f1:46:cb:a9:
                    eb:2c:63:88:31:fa:a5:29:91:05:73:42:f7:90:62:
                    c0:27:68:e3:cb:32:06:b2:6d:18:14:63:bb:46:07:
                    7b:a8:13:20:96:47:65:a0:1d:04:38:f1:ca:74:8e:
                    8c:50:6a:62:b2:d1:e7:82:74:75:c2:41:dd:0b:eb:
                    28:ad:60:89:a8:f0:83:62:dc:7f:9e:ac:a9:1b:f3:
                    86:cd:47:6e:f4:0d:06:45:a7:41:06:63:86:8c:6e:
                    73:db:9a:c9:1b:d8:42:8c:db:45:b9:28:46:b3:13:
                    63:cb:e1:43:09:8a:cb:f8:31:7f:a2:d6:2a:12:16:
                    cf:e5:1e:e0:a1:b9:03:69:7e:b1:e8:25:ed:26:b0:
                    e8:af
                Exponent: 65537 (0x10001)
        X509v3 extensions:
            X509v3 Basic Constraints: 
                CA:FALSE
            X509v3 Subject Key Identifier: 
                CF:F7:72:C7:8B:0A:BD:9C:11:E1:28:A5:9E:2A:93:6D:73:8E:11:5D
            X509v3 Authority Key Identifier: 
                keyid:E5:9C:65:C9:16:AC:CC:9C:71:CD:BC:66:6A:E1:45:98:F2:C2:ED:8B
                DirName:/CN=team456-net
                serial:4B:C3:A7:06:15:AD:81:BB:64:6F:80:21:CC:C8:A7:BB:63:6C:8F:50
            X509v3 Extended Key Usage: 
                TLS Web Client Authentication
            X509v3 Key Usage: 
                Digital Signature
    Signature Algorithm: sha256WithRSAEncryption
    Signature Value:
        24:af:a9:a6:c4:e0:c4:74:eb:21:d6:59:88:0a:e4:ff:ce:39:
        d2:91:3b:61:3d:b2:3e:b2:f9:77:e9:a4:dc:f6:0d:71:e6:a1:
        85:34:35:cd:27:0c:72:80:77:9d:41:2a:e6:e9:94:db:71:0a:
        e0:82:74:11:66:88:55:6c:e6:85:da:37:09:1b:5b:5f:81:88:
        ea:da:be:09:e1:6d:85:f3:f8:4c:44:8b:1d:3c:58:c8:d8:cd:
        8b:9e:85:c5:ae:bf:73:53:bc:7c:bc:66:7e:9b:64:2d:69:10:
        7a:9c:b8:a6:fb:93:79:bf:24:fb:ec:bf:4f:e5:8a:3c:8f:78:
        07:d6:50:5c:16:eb:89:8c:ec:a5:07:f9:d1:d4:2b:4b:3b:2b:
        0d:72:63:67:dc:d4:b6:8b:5a:b3:44:4d:a4:52:21:04:13:c8:
        3b:c1:fd:7a:ca:11:18:39:28:8f:bb:3e:b9:b1:69:97:37:42:
        48:ee:71:64:18:e6:d8:cb:5f:5d:9f:d0:73:2c:7b:a7:20:51:
        f2:0e:34:35:bf:96:0d:8e:af:de:41:cd:cc:63:8c:6e:6e:1a:
        5e:0c:04:a3:73:1b:dd:cd:df:c6:ef:fe:00:35:45:21:fe:a4:
        8c:32:93:ce:80:15:24:34:8e:5a:b8:bf:04:79:f0:6b:7b:06:
        a1:1d:de:3e
-----BEGIN CERTIFICATE-----
MIIDXDCCAkSgAwIBAgIQQFTd73ZhkIOUHHjORxno3jANBgkqhkiG9w0BAQsFADAW
MRQwEgYDVQQDDAt0ZWFtNDU2LW5ldDAeFw0yMzExMDMyMDQ3MzJaFw0yNjEwMTgy
MDQ3MzJaMBkxFzAVBgNVBAMMDnRlYW00NTYtY2xpZW50MIIBIjANBgkqhkiG9w0B
AQEFAAOCAQ8AMIIBCgKCAQEAy62SW1AsgRgC2Wt/KRauws7qmWayNkJuXVVjf/w2
r4QgBozlNWXdX0an1nON1VxjM+1rKN6IknKns15Cauto5ZwAJXOekrNuO7rEd+Cz
Kzk6v79966mr9qagO2cjzrarZDeOoTJYAWPvB+mdcukYHkukM/FGy6nrLGOIMfql
KZEFc0L3kGLAJ2jjyzIGsm0YFGO7Rgd7qBMglkdloB0EOPHKdI6MUGpistHngnR1
wkHdC+sorWCJqPCDYtx/nqypG/OGzUdu9A0GRadBBmOGjG5z25rJG9hCjNtFuShG
sxNjy+FDCYrL+DF/otYqEhbP5R7gobkDaX6x6CXtJrDorwIDAQABo4GiMIGfMAkG
A1UdEwQCMAAwHQYDVR0OBBYEFM/3cseLCr2cEeEopZ4qk21zjhFdMFEGA1UdIwRK
MEiAFOWcZckWrMyccc28ZmrhRZjywu2LoRqkGDAWMRQwEgYDVQQDDAt0ZWFtNDU2
LW5ldIIUS8OnBhWtgbtkb4AhzMinu2Nsj1AwEwYDVR0lBAwwCgYIKwYBBQUHAwIw
CwYDVR0PBAQDAgeAMA0GCSqGSIb3DQEBCwUAA4IBAQAkr6mmxODEdOsh1lmICuT/
zjnSkTthPbI+svl36aTc9g1x5qGFNDXNJwxygHedQSrm6ZTbcQrggnQRZohVbOaF
2jcJG1tfgYjq2r4J4W2F8/hMRIsdPFjI2M2LnoXFrr9zU7x8vGZ+m2QtaRB6nLim
+5N5vyT77L9P5Yo8j3gH1lBcFuuJjOylB/nR1CtLOysNcmNn3NS2i1qzRE2kUiEE
E8g7wf16yhEYOSiPuz65sWmXN0JI7nFkGObYy19dn9BzLHunIFHyDjQ1v5YNjq/e
Qc3MY4xubhpeDASjcxvdzd/G7/4ANUUh/qSMMpPOgBUkNI5auL8EefBrewahHd4+
-----END CERTIFICATE-----
