Certificate:
    Data:
        Version: 3 (0x2)
        Serial Number:
            6d:51:f0:7f:e0:0c:70:af:c1:6d:db:a7:43:a3:69:f3
        Signature Algorithm: sha256WithRSAEncryption
        Issuer: CN=team456-net
        Validity
            Not Before: Nov  4 10:48:45 2023 GMT
            Not After : Oct 19 10:48:45 2026 GMT
        Subject: CN=team456-server
        Subject Public Key Info:
            Public Key Algorithm: rsaEncryption
                Public-Key: (2048 bit)
                Modulus:
                    00:c6:9d:dc:da:6a:4b:4b:b5:e2:73:f4:e3:5f:28:
                    46:43:26:b9:82:85:68:1c:2f:a4:36:bd:75:15:48:
                    0c:b6:39:11:0c:f9:4a:21:1d:e1:3e:be:a8:2a:bd:
                    8f:67:d4:b5:af:10:2b:43:71:9a:d0:42:7e:57:cb:
                    2c:68:46:7e:53:0c:84:57:87:15:ea:f5:6d:c1:4b:
                    c1:34:d0:bf:60:b8:12:93:af:a2:ad:2d:02:6e:c1:
                    8d:2b:bc:aa:df:c5:20:51:2b:ab:8b:a9:fd:e3:bf:
                    e8:33:e3:e3:71:e5:30:15:98:43:e9:69:4b:e9:d6:
                    c5:26:96:2e:e9:ab:54:e6:b4:a9:a6:cd:68:44:e9:
                    f1:4f:a8:d2:39:bf:d2:d6:98:ec:b8:43:fd:2e:9d:
                    c2:ee:81:2f:45:e0:18:bf:a5:26:41:a5:01:07:ab:
                    67:28:9a:6a:e2:52:46:af:d1:71:5d:3e:12:76:93:
                    cc:a2:d3:0b:5b:33:78:24:93:3a:13:e2:8d:03:fd:
                    18:cd:e6:cf:d9:0e:4c:dd:8d:fb:8e:95:ad:d9:01:
                    9c:be:47:c7:6e:69:98:b5:c3:00:18:59:39:47:8e:
                    51:11:1e:97:17:e3:5a:0c:d9:d9:13:91:6e:f4:22:
                    8c:85:a3:55:d3:da:61:8a:a1:9c:4b:c2:b6:fc:5a:
                    35:9b
                Exponent: 65537 (0x10001)
        X509v3 extensions:
            X509v3 Basic Constraints: 
                CA:FALSE
            X509v3 Subject Key Identifier: 
                22:28:1F:11:9E:B6:79:DD:0E:21:0D:57:9C:4F:49:C5:6B:3F:D9:04
            X509v3 Authority Key Identifier: 
                keyid:B9:1C:F3:3A:10:25:D6:FA:44:2C:71:25:39:ED:B4:2A:B0:6F:B9:9F
                DirName:/CN=team456-net
                serial:44:4D:02:5A:6E:27:FB:63:EE:6D:03:E4:42:8F:E1:A3:80:A9:92:D0
            X509v3 Extended Key Usage: 
                TLS Web Server Authentication
            X509v3 Key Usage: 
                Digital Signature, Key Encipherment
            X509v3 Subject Alternative Name: 
                DNS:team456-server
    Signature Algorithm: sha256WithRSAEncryption
    Signature Value:
        78:aa:af:aa:c1:da:64:f8:d9:7e:56:ec:b1:d8:c7:cf:fb:f7:
        d8:a5:20:35:1c:4d:99:a9:0c:4b:3c:6b:9b:7b:08:7f:17:5b:
        ad:72:8f:64:3f:b3:aa:df:8b:c6:2e:03:d2:79:1b:5c:4f:b8:
        53:95:12:29:86:c5:2c:81:7c:0e:d9:f4:1e:f2:5e:b6:40:5e:
        10:58:4d:48:d2:2e:0c:0d:90:21:89:b7:a4:50:79:fa:08:2b:
        9f:af:1e:d7:11:58:db:ce:3c:bc:94:4e:db:1d:ac:7c:40:04:
        02:c0:0c:18:28:18:cb:21:8f:33:95:b7:20:04:4c:89:a7:6a:
        02:ef:30:d3:99:ae:7d:80:a9:c7:8f:57:a4:df:c6:34:85:db:
        16:3b:a1:70:aa:f9:37:f5:ce:85:88:42:59:b0:2b:f5:62:73:
        21:ac:39:da:7c:95:8d:7f:4b:b6:ac:c9:eb:46:0d:35:86:cc:
        4c:5c:ca:80:a6:c3:3e:61:88:a0:89:db:d4:aa:85:b1:3a:a5:
        b2:c3:f0:b4:38:2b:0c:fa:d0:7f:e7:4d:68:bc:f2:e6:0b:99:
        08:db:cd:2a:55:62:77:e1:e5:ff:2f:04:28:b6:f7:0b:a8:21:
        4c:e7:02:ee:95:7f:1f:0d:97:d2:92:5a:ed:19:55:7e:22:04:
        a1:cf:93:4e
-----BEGIN CERTIFICATE-----
MIIDdzCCAl+gAwIBAgIQbVHwf+AMcK/BbdunQ6Np8zANBgkqhkiG9w0BAQsFADAW
MRQwEgYDVQQDDAt0ZWFtNDU2LW5ldDAeFw0yMzExMDQxMDQ4NDVaFw0yNjEwMTkx
MDQ4NDVaMBkxFzAVBgNVBAMMDnRlYW00NTYtc2VydmVyMIIBIjANBgkqhkiG9w0B
AQEFAAOCAQ8AMIIBCgKCAQEAxp3c2mpLS7Xic/TjXyhGQya5goVoHC+kNr11FUgM
tjkRDPlKIR3hPr6oKr2PZ9S1rxArQ3Ga0EJ+V8ssaEZ+UwyEV4cV6vVtwUvBNNC/
YLgSk6+irS0CbsGNK7yq38UgUSuri6n947/oM+PjceUwFZhD6WlL6dbFJpYu6atU
5rSpps1oROnxT6jSOb/S1pjsuEP9Lp3C7oEvReAYv6UmQaUBB6tnKJpq4lJGr9Fx
XT4SdpPMotMLWzN4JJM6E+KNA/0YzebP2Q5M3Y37jpWt2QGcvkfHbmmYtcMAGFk5
R45RER6XF+NaDNnZE5Fu9CKMhaNV09phiqGcS8K2/Fo1mwIDAQABo4G9MIG6MAkG
A1UdEwQCMAAwHQYDVR0OBBYEFCIoHxGetnndDiENV5xPScVrP9kEMFEGA1UdIwRK
MEiAFLkc8zoQJdb6RCxxJTnttCqwb7mfoRqkGDAWMRQwEgYDVQQDDAt0ZWFtNDU2
LW5ldIIURE0CWm4n+2PubQPkQo/ho4CpktAwEwYDVR0lBAwwCgYIKwYBBQUHAwEw
CwYDVR0PBAQDAgWgMBkGA1UdEQQSMBCCDnRlYW00NTYtc2VydmVyMA0GCSqGSIb3
DQEBCwUAA4IBAQB4qq+qwdpk+Nl+Vuyx2MfP+/fYpSA1HE2ZqQxLPGubewh/F1ut
co9kP7Oq34vGLgPSeRtcT7hTlRIphsUsgXwO2fQe8l62QF4QWE1I0i4MDZAhibek
UHn6CCufrx7XEVjbzjy8lE7bHax8QAQCwAwYKBjLIY8zlbcgBEyJp2oC7zDTma59
gKnHj1ek38Y0hdsWO6Fwqvk39c6FiEJZsCv1YnMhrDnafJWNf0u2rMnrRg01hsxM
XMqApsM+YYigidvUqoWxOqWyw/C0OCsM+tB/501ovPLmC5kI280qVWJ34eX/LwQo
tvcLqCFM5wLulX8fDZfSklrtGVV+IgShz5NO
-----END CERTIFICATE-----
