Certificate:
    Data:
        Version: 3 (0x2)
        Serial Number:
            7f:7d:66:14:24:33:c3:60:01:5c:9d:c2:e9:d2:84:77
        Signature Algorithm: sha256WithRSAEncryption
        Issuer: CN=team456-net
        Validity
            Not Before: Nov  4 11:37:46 2023 GMT
            Not After : Oct 19 11:37:46 2026 GMT
        Subject: CN=team456-server
        Subject Public Key Info:
            Public Key Algorithm: rsaEncryption
                Public-Key: (2048 bit)
                Modulus:
                    00:cd:a2:7c:fe:f7:1f:fb:45:ff:21:63:1e:43:66:
                    13:33:2d:11:56:92:d0:5c:7e:b2:dc:91:ed:a8:f3:
                    c2:ec:a6:ba:12:ff:6a:a1:8c:64:8c:de:db:de:a0:
                    42:c1:1b:36:97:9d:86:f7:7b:b4:ae:83:b1:4c:05:
                    fb:c7:2b:c6:7c:1c:ad:01:a9:12:57:1b:f3:8e:42:
                    e4:4a:ee:71:7d:1d:e7:2e:d9:0d:63:ed:9e:ea:06:
                    ec:b6:3d:f4:69:08:80:8f:9d:4b:61:f1:79:fd:fc:
                    00:75:27:c5:6f:8b:e7:48:41:c2:ca:5e:0f:52:80:
                    bb:07:90:eb:67:ff:c4:63:f6:49:59:31:17:b8:f6:
                    22:9d:24:37:b9:11:e8:31:92:50:ce:cc:02:f2:be:
                    1b:ac:fe:3d:ef:8d:7f:73:e2:d6:18:87:7a:ee:24:
                    be:68:7e:da:b7:a4:08:92:6b:99:13:b3:3c:0a:32:
                    93:0c:e7:ac:68:f7:7f:cd:f5:dd:b3:9a:1b:c3:39:
                    10:d2:97:9a:a6:48:d9:fa:ce:e0:b2:35:d8:b4:1e:
                    e4:a7:0d:11:82:74:a0:2f:b3:ed:40:3d:aa:34:33:
                    c9:e5:6b:2b:c3:73:a9:c7:5f:7b:83:46:ce:22:24:
                    3a:cb:1e:62:16:4e:58:c9:e3:f3:23:a7:68:bb:bd:
                    e7:59
                Exponent: 65537 (0x10001)
        X509v3 extensions:
            X509v3 Basic Constraints: 
                CA:FALSE
            X509v3 Subject Key Identifier: 
                DE:CD:72:96:AF:8E:42:15:6A:86:40:E7:D6:5E:B5:24:C0:35:6D:91
            X509v3 Authority Key Identifier: 
                keyid:28:E5:3B:83:32:CC:AD:B2:32:B2:EB:C0:D6:7E:E2:DF:91:5D:26:23
                DirName:/CN=team456-net
                serial:2F:65:C3:E3:17:39:72:D4:B3:EE:1B:1B:16:28:3B:E2:BC:72:2D:2A
            X509v3 Extended Key Usage: 
                TLS Web Server Authentication
            X509v3 Key Usage: 
                Digital Signature, Key Encipherment
            X509v3 Subject Alternative Name: 
                DNS:team456-server
    Signature Algorithm: sha256WithRSAEncryption
    Signature Value:
        7b:60:bb:83:60:63:93:9c:a0:19:62:5c:57:1a:45:31:34:fc:
        bc:db:28:01:5a:6e:a6:70:cd:d5:e0:95:54:21:7a:19:9f:fe:
        4b:d2:45:2a:57:48:1b:b4:98:8d:09:39:ec:46:23:77:9a:31:
        a8:a9:07:a9:c5:ea:52:2b:2d:a9:47:53:cf:ba:e8:59:41:25:
        86:ba:2c:03:a0:62:b9:2b:6a:f6:f1:c4:d2:b6:70:c0:19:7c:
        04:d7:47:f3:9f:6a:70:e5:c9:11:81:0c:67:b9:c8:b7:be:32:
        4f:6c:c6:aa:b1:83:21:c1:1c:ff:23:1b:87:12:a8:3f:7c:33:
        29:88:52:26:94:db:52:1f:bb:bb:b5:4b:f3:f2:8f:b1:14:8d:
        02:ee:7f:e1:38:4b:95:f0:f0:90:44:9a:09:68:74:e8:bf:fd:
        ca:54:b9:a6:ef:4f:18:bf:00:16:2d:1a:12:c9:27:1f:f6:2e:
        6a:ec:4c:26:01:d3:c4:4f:0c:de:b4:27:70:04:2b:cb:f5:4d:
        86:0c:bf:a6:d2:d1:85:15:25:81:84:18:60:09:66:17:46:69:
        df:0b:cb:1b:21:d3:5e:6c:bf:4a:cf:de:13:58:f7:84:86:9b:
        5e:7f:c9:6a:0a:c3:ac:3a:4f:40:11:b9:c5:e3:df:63:25:d3:
        1e:b9:a2:1b
-----BEGIN CERTIFICATE-----
MIIDdzCCAl+gAwIBAgIQf31mFCQzw2ABXJ3C6dKEdzANBgkqhkiG9w0BAQsFADAW
MRQwEgYDVQQDDAt0ZWFtNDU2LW5ldDAeFw0yMzExMDQxMTM3NDZaFw0yNjEwMTkx
MTM3NDZaMBkxFzAVBgNVBAMMDnRlYW00NTYtc2VydmVyMIIBIjANBgkqhkiG9w0B
AQEFAAOCAQ8AMIIBCgKCAQEAzaJ8/vcf+0X/IWMeQ2YTMy0RVpLQXH6y3JHtqPPC
7Ka6Ev9qoYxkjN7b3qBCwRs2l52G93u0roOxTAX7xyvGfBytAakSVxvzjkLkSu5x
fR3nLtkNY+2e6gbstj30aQiAj51LYfF5/fwAdSfFb4vnSEHCyl4PUoC7B5DrZ//E
Y/ZJWTEXuPYinSQ3uRHoMZJQzswC8r4brP49741/c+LWGId67iS+aH7at6QIkmuZ
E7M8CjKTDOesaPd/zfXds5obwzkQ0peapkjZ+s7gsjXYtB7kpw0RgnSgL7PtQD2q
NDPJ5Wsrw3Opx197g0bOIiQ6yx5iFk5YyePzI6dou73nWQIDAQABo4G9MIG6MAkG
A1UdEwQCMAAwHQYDVR0OBBYEFN7NcpavjkIVaoZA59ZetSTANW2RMFEGA1UdIwRK
MEiAFCjlO4MyzK2yMrLrwNZ+4t+RXSYjoRqkGDAWMRQwEgYDVQQDDAt0ZWFtNDU2
LW5ldIIUL2XD4xc5ctSz7hsbFig74rxyLSowEwYDVR0lBAwwCgYIKwYBBQUHAwEw
CwYDVR0PBAQDAgWgMBkGA1UdEQQSMBCCDnRlYW00NTYtc2VydmVyMA0GCSqGSIb3
DQEBCwUAA4IBAQB7YLuDYGOTnKAZYlxXGkUxNPy82ygBWm6mcM3V4JVUIXoZn/5L
0kUqV0gbtJiNCTnsRiN3mjGoqQepxepSKy2pR1PPuuhZQSWGuiwDoGK5K2r28cTS
tnDAGXwE10fzn2pw5ckRgQxnuci3vjJPbMaqsYMhwRz/IxuHEqg/fDMpiFImlNtS
H7u7tUvz8o+xFI0C7n/hOEuV8PCQRJoJaHTov/3KVLmm708YvwAWLRoSyScf9i5q
7EwmAdPETwzetCdwBCvL9U2GDL+m0tGFFSWBhBhgCWYXRmnfC8sbIdNebL9Kz94T
WPeEhptef8lqCsOsOk9AEbnF499jJdMeuaIb
-----END CERTIFICATE-----
