Certificate:
    Data:
        Version: 3 (0x2)
        Serial Number:
            0d:b9:57:db:f8:a6:2b:38:eb:bc:3a:69:ea:48:e3:24
        Signature Algorithm: sha256WithRSAEncryption
        Issuer: CN=team138-net
        Validity
            Not Before: Nov  4 11:30:15 2023 GMT
            Not After : Oct 19 11:30:15 2026 GMT
        Subject: CN=team138-client
        Subject Public Key Info:
            Public Key Algorithm: rsaEncryption
                Public-Key: (2048 bit)
                Modulus:
                    00:c4:93:db:b7:e2:59:ae:c0:7a:ca:0b:eb:9a:da:
                    44:cf:1d:a3:60:8b:11:81:7b:d2:a1:84:a6:a7:76:
                    d2:3b:84:2c:a2:7f:ab:a7:94:f2:a8:4e:f0:c8:bc:
                    11:f7:fc:6e:10:9e:c8:e0:9e:95:83:53:48:ad:3d:
                    73:61:b4:66:f2:74:b0:f8:1a:31:bb:40:e4:b3:0c:
                    8e:15:f4:6a:0d:b8:31:dc:64:6b:c8:72:87:3b:62:
                    ed:fc:9c:c8:8d:af:37:88:2d:50:24:ad:d7:09:af:
                    ec:ea:af:6a:01:a3:7b:0c:d7:fb:50:13:e0:11:57:
                    31:64:48:a2:a1:6a:79:dc:25:32:c4:fe:57:70:ae:
                    0f:ee:7e:f6:a6:b1:d5:19:38:e5:f8:46:1e:f3:73:
                    e9:df:dd:a5:aa:65:93:b5:ad:97:a0:1d:92:0c:53:
                    cb:ba:62:12:4d:dd:c5:32:f3:2b:c2:9a:31:cd:fa:
                    7e:7b:b9:f0:ec:da:17:5c:6f:ee:98:0c:fa:48:ae:
                    fa:b1:68:3a:4e:76:f4:d8:02:ea:0d:57:8f:53:c7:
                    f7:e7:21:65:f0:7a:77:e3:07:b2:1c:5d:2a:67:68:
                    2f:fc:91:7a:ab:e2:e5:95:02:bd:2e:9e:67:4a:86:
                    66:fb:a9:88:59:32:c0:b7:73:4f:c1:24:87:08:6c:
                    c9:77
                Exponent: 65537 (0x10001)
        X509v3 extensions:
            X509v3 Basic Constraints: 
                CA:FALSE
            X509v3 Subject Key Identifier: 
                37:5B:15:15:12:64:22:BA:FD:80:44:E2:AC:CF:04:B1:A3:29:DA:29
            X509v3 Authority Key Identifier: 
                keyid:D0:BE:A5:99:63:05:54:93:48:B9:41:8C:93:06:8E:02:13:26:3D:F8
                DirName:/CN=team138-net
                serial:06:FD:8A:F4:A6:8E:44:6D:B1:67:95:6F:5B:7E:03:40:A6:EB:CB:1E
            X509v3 Extended Key Usage: 
                TLS Web Client Authentication
            X509v3 Key Usage: 
                Digital Signature
    Signature Algorithm: sha256WithRSAEncryption
    Signature Value:
        5f:5c:ab:40:e8:ca:66:cd:2e:3f:88:c2:c0:73:9a:e6:7e:d9:
        08:53:2f:99:78:23:d8:18:c2:c8:4e:3a:bf:d1:ab:fc:0f:81:
        87:82:a6:28:61:f5:8d:98:aa:55:6b:7d:b6:70:7c:cc:43:e6:
        d5:08:66:dd:ba:5a:4b:e1:b1:56:45:8d:b9:0d:f4:1f:e5:06:
        a0:9c:08:fb:e9:ac:42:06:ff:8f:4e:91:a7:97:40:60:32:bd:
        88:a4:5d:da:d2:0e:37:b2:af:89:b5:30:e9:12:4e:ef:02:27:
        d5:86:48:92:b3:66:18:4b:75:69:1d:9e:e4:3a:62:70:11:7f:
        9d:3c:43:97:52:aa:b0:77:7e:ce:7a:d7:cc:04:26:b7:16:f7:
        ff:1e:c5:d3:24:5f:c9:91:d8:1b:45:23:cb:fe:3d:12:5b:a5:
        64:7e:ff:ef:3b:7f:b0:03:c4:d9:c5:fa:d0:a1:88:70:08:41:
        af:64:79:b7:98:62:39:08:a1:02:83:41:cb:e6:3d:c3:23:1f:
        e4:55:1c:db:3a:de:27:3f:23:b7:11:82:82:b2:e3:f4:5c:66:
        a3:e0:ab:c1:82:e1:59:16:94:9c:e7:16:da:df:c9:ac:94:b0:
        ff:e1:f0:05:f6:f2:28:7d:d6:af:1a:fe:0f:53:ac:f3:55:fe:
        0e:ca:2e:96
-----BEGIN CERTIFICATE-----
MIIDXDCCAkSgAwIBAgIQDblX2/imKzjrvDpp6kjjJDANBgkqhkiG9w0BAQsFADAW
MRQwEgYDVQQDDAt0ZWFtMTM4LW5ldDAeFw0yMzExMDQxMTMwMTVaFw0yNjEwMTkx
MTMwMTVaMBkxFzAVBgNVBAMMDnRlYW0xMzgtY2xpZW50MIIBIjANBgkqhkiG9w0B
AQEFAAOCAQ8AMIIBCgKCAQEAxJPbt+JZrsB6ygvrmtpEzx2jYIsRgXvSoYSmp3bS
O4Qson+rp5TyqE7wyLwR9/xuEJ7I4J6Vg1NIrT1zYbRm8nSw+Boxu0DkswyOFfRq
Dbgx3GRryHKHO2Lt/JzIja83iC1QJK3XCa/s6q9qAaN7DNf7UBPgEVcxZEiioWp5
3CUyxP5XcK4P7n72prHVGTjl+EYe83Pp392lqmWTta2XoB2SDFPLumISTd3FMvMr
wpoxzfp+e7nw7NoXXG/umAz6SK76sWg6Tnb02ALqDVePU8f35yFl8Hp34weyHF0q
Z2gv/JF6q+LllQK9Lp5nSoZm+6mIWTLAt3NPwSSHCGzJdwIDAQABo4GiMIGfMAkG
A1UdEwQCMAAwHQYDVR0OBBYEFDdbFRUSZCK6/YBE4qzPBLGjKdopMFEGA1UdIwRK
MEiAFNC+pZljBVSTSLlBjJMGjgITJj34oRqkGDAWMRQwEgYDVQQDDAt0ZWFtMTM4
LW5ldIIUBv2K9KaORG2xZ5VvW34DQKbryx4wEwYDVR0lBAwwCgYIKwYBBQUHAwIw
CwYDVR0PBAQDAgeAMA0GCSqGSIb3DQEBCwUAA4IBAQBfXKtA6MpmzS4/iMLAc5rm
ftkIUy+ZeCPYGMLITjq/0av8D4GHgqYoYfWNmKpVa322cHzMQ+bVCGbdulpL4bFW
RY25DfQf5QagnAj76axCBv+PTpGnl0BgMr2IpF3a0g43sq+JtTDpEk7vAifVhkiS
s2YYS3VpHZ7kOmJwEX+dPEOXUqqwd37OetfMBCa3Fvf/HsXTJF/JkdgbRSPL/j0S
W6Vkfv/vO3+wA8TZxfrQoYhwCEGvZHm3mGI5CKECg0HL5j3DIx/kVRzbOt4nPyO3
EYKCsuP0XGaj4KvBguFZFpSc5xba38mslLD/4fAF9vIofdavGv4PU6zzVf4Oyi6W
-----END CERTIFICATE-----
