Certificate:
    Data:
        Version: 3 (0x2)
        Serial Number:
            fc:db:bd:9c:dc:2b:a7:a0:36:63:b6:36:41:d8:9d:61
        Signature Algorithm: sha256WithRSAEncryption
        Issuer: CN=team138-net
        Validity
            Not Before: Nov  4 10:43:05 2023 GMT
            Not After : Oct 19 10:43:05 2026 GMT
        Subject: CN=team138-server
        Subject Public Key Info:
            Public Key Algorithm: rsaEncryption
                Public-Key: (2048 bit)
                Modulus:
                    00:a3:75:cb:46:91:67:cf:74:f7:a4:cb:2f:53:67:
                    ad:95:24:a6:47:61:cd:29:88:9e:ba:df:e1:af:72:
                    f1:15:76:a8:ec:8e:26:80:a5:33:b9:5e:49:16:a0:
                    fd:6e:3d:69:cc:45:57:8b:94:d8:86:01:d7:ff:7f:
                    1d:54:fc:7a:dd:97:cc:60:d6:65:4d:79:c9:c9:15:
                    cc:8a:3e:f0:1b:70:34:4b:4a:f1:29:a3:e6:3c:76:
                    e8:ad:65:d6:44:c8:ff:ab:52:0f:14:86:e9:08:32:
                    71:47:ef:a9:ce:68:98:57:39:a4:c3:c2:63:26:10:
                    c6:80:ba:e8:cd:d5:bd:f4:02:b2:fb:c9:c5:62:17:
                    09:fc:00:98:88:e6:b2:c7:4d:92:ec:89:09:5a:aa:
                    cc:53:29:b3:3f:9a:ca:d0:52:01:01:cc:d8:fe:2a:
                    f1:52:20:c5:42:0a:18:f4:c7:8d:55:53:ed:5d:b1:
                    d3:b8:8f:12:66:e7:76:12:1c:b4:28:fb:f2:73:d9:
                    1e:f1:f0:77:56:c6:c1:f6:29:83:1f:18:6d:6d:8d:
                    97:1c:5b:c9:20:1d:d6:af:81:51:9a:9e:d6:95:34:
                    f2:20:e8:43:12:ee:a1:aa:3a:12:a9:ed:56:3d:ee:
                    83:31:5f:9b:e0:65:7a:33:f0:ec:d3:b9:28:1d:9c:
                    fd:13
                Exponent: 65537 (0x10001)
        X509v3 extensions:
            X509v3 Basic Constraints: 
                CA:FALSE
            X509v3 Subject Key Identifier: 
                DB:0D:73:EB:05:B6:28:84:9C:80:7C:19:68:11:1B:B3:5F:E0:08:C3
            X509v3 Authority Key Identifier: 
                keyid:19:5D:A2:FB:35:EF:32:0D:C6:C1:BF:2B:A2:98:DE:AE:F6:CB:E8:98
                DirName:/CN=team138-net
                serial:4E:C9:17:88:BA:61:E8:19:A9:A6:CE:FC:88:C1:12:E6:DC:4B:F6:DB
            X509v3 Extended Key Usage: 
                TLS Web Server Authentication
            X509v3 Key Usage: 
                Digital Signature, Key Encipherment
            X509v3 Subject Alternative Name: 
                DNS:team138-server
    Signature Algorithm: sha256WithRSAEncryption
    Signature Value:
        0f:5c:6a:8c:53:95:36:e5:b1:03:07:50:e8:4d:8b:ea:da:c7:
        45:b6:40:3a:8e:8d:ae:3b:e5:11:59:d8:b5:1d:83:39:4d:11:
        8e:36:b9:6a:fb:e8:f3:10:04:10:e7:01:ef:fe:d7:1e:75:10:
        4e:14:17:e6:ef:57:db:cd:65:4c:c5:22:d1:9f:c3:69:13:3a:
        4d:cc:84:49:e4:eb:4b:b4:b9:df:3a:54:6b:92:3f:ee:7f:25:
        14:9c:28:3c:e1:b2:2b:cb:3a:88:85:c8:cf:cb:96:55:da:14:
        44:cd:0f:fd:a1:7d:95:1d:2c:a4:fb:57:71:57:00:e2:01:f6:
        08:02:eb:53:74:29:89:9b:13:e8:bc:3f:d0:42:76:22:87:1e:
        9e:4d:6a:17:04:08:47:e6:12:45:63:77:65:3c:e5:63:87:6b:
        9c:dd:6f:4d:81:01:9c:4d:f5:35:23:91:69:7c:1b:a1:9a:2f:
        b9:a9:34:9a:f2:50:73:50:34:ff:4c:b5:0d:95:9c:c7:b9:99:
        05:09:2c:00:de:7f:44:ba:01:e8:7c:b3:f8:a6:2d:64:67:78:
        1e:e3:a1:38:31:3e:26:48:be:c1:ad:d0:a7:5f:48:a4:0f:83:
        3b:e2:f2:8a:d9:70:22:50:25:c4:1e:f7:43:9a:fa:e4:f9:d2:
        38:74:36:a5
-----BEGIN CERTIFICATE-----
MIIDeDCCAmCgAwIBAgIRAPzbvZzcK6egNmO2NkHYnWEwDQYJKoZIhvcNAQELBQAw
FjEUMBIGA1UEAwwLdGVhbTEzOC1uZXQwHhcNMjMxMTA0MTA0MzA1WhcNMjYxMDE5
MTA0MzA1WjAZMRcwFQYDVQQDDA50ZWFtMTM4LXNlcnZlcjCCASIwDQYJKoZIhvcN
AQEBBQADggEPADCCAQoCggEBAKN1y0aRZ89096TLL1NnrZUkpkdhzSmInrrf4a9y
8RV2qOyOJoClM7leSRag/W49acxFV4uU2IYB1/9/HVT8et2XzGDWZU15yckVzIo+
8BtwNEtK8Smj5jx26K1l1kTI/6tSDxSG6QgycUfvqc5omFc5pMPCYyYQxoC66M3V
vfQCsvvJxWIXCfwAmIjmssdNkuyJCVqqzFMpsz+aytBSAQHM2P4q8VIgxUIKGPTH
jVVT7V2x07iPEmbndhIctCj78nPZHvHwd1bGwfYpgx8YbW2NlxxbySAd1q+BUZqe
1pU08iDoQxLuoao6EqntVj3ugzFfm+BlejPw7NO5KB2c/RMCAwEAAaOBvTCBujAJ
BgNVHRMEAjAAMB0GA1UdDgQWBBTbDXPrBbYohJyAfBloERuzX+AIwzBRBgNVHSME
SjBIgBQZXaL7Ne8yDcbBvyuimN6u9svomKEapBgwFjEUMBIGA1UEAwwLdGVhbTEz
OC1uZXSCFE7JF4i6YegZqabO/IjBEubcS/bbMBMGA1UdJQQMMAoGCCsGAQUFBwMB
MAsGA1UdDwQEAwIFoDAZBgNVHREEEjAQgg50ZWFtMTM4LXNlcnZlcjANBgkqhkiG
9w0BAQsFAAOCAQEAD1xqjFOVNuWxAwdQ6E2L6trHRbZAOo6NrjvlEVnYtR2DOU0R
jja5avvo8xAEEOcB7/7XHnUQThQX5u9X281lTMUi0Z/DaRM6TcyESeTrS7S53zpU
a5I/7n8lFJwoPOGyK8s6iIXIz8uWVdoURM0P/aF9lR0spPtXcVcA4gH2CALrU3Qp
iZsT6Lw/0EJ2Iocenk1qFwQIR+YSRWN3ZTzlY4drnN1vTYEBnE31NSORaXwboZov
uak0mvJQc1A0/0y1DZWcx7mZBQksAN5/RLoB6Hyz+KYtZGd4HuOhODE+Jki+wa3Q
p19IpA+DO+LyitlwIlAlxB73Q5r65PnSOHQ2pQ==
-----END CERTIFICATE-----
