Certificate:
    Data:
        Version: 3 (0x2)
        Serial Number:
            45:f3:02:c7:9c:de:f5:5b:b8:6f:56:61:7b:bf:37:b5
        Signature Algorithm: sha256WithRSAEncryption
        Issuer: CN=team109-net
        Validity
            Not Before: Nov  4 11:29:36 2023 GMT
            Not After : Oct 19 11:29:36 2026 GMT
        Subject: CN=team109-server
        Subject Public Key Info:
            Public Key Algorithm: rsaEncryption
                Public-Key: (2048 bit)
                Modulus:
                    00:e0:4a:96:ea:79:4a:95:77:fe:a0:db:2e:25:f9:
                    93:f6:20:16:a0:29:8c:55:6a:dc:12:71:4b:32:d6:
                    e8:46:66:6d:9d:b2:7d:04:4b:51:87:cb:f3:9b:4d:
                    d9:f7:b5:3d:02:b6:ba:89:30:b6:6a:95:c8:9f:b6:
                    63:c9:fc:d0:82:91:be:17:24:b7:0e:7b:80:74:6e:
                    21:d8:4c:22:ba:b2:71:e1:be:af:38:3b:be:41:43:
                    b4:ca:52:e1:04:df:c0:3b:4d:19:82:0f:eb:3b:82:
                    c0:80:e0:bf:95:b8:1b:f9:3c:e3:fc:bb:3c:ad:04:
                    4f:62:34:4d:59:8a:e2:64:0c:d6:4b:b3:a1:59:1a:
                    17:4b:35:a1:71:45:b2:a4:ef:de:16:68:d1:4f:54:
                    68:d7:b0:0a:17:d7:04:18:a0:e8:84:1c:c2:9e:55:
                    05:0b:2f:3b:1a:b5:ce:3a:f0:86:07:64:ed:96:e8:
                    2f:d1:fe:31:b8:de:7e:82:12:81:c6:a4:17:df:d9:
                    2e:b8:b9:90:5b:80:57:9a:cd:a4:1c:57:40:42:55:
                    79:dd:cd:b7:77:c2:fc:c5:ab:23:25:72:76:d7:ba:
                    22:77:1d:b4:1c:18:51:ce:f8:3a:c7:57:d8:71:fc:
                    8b:95:f7:9d:cd:33:52:e0:7a:bb:68:71:0a:8f:b1:
                    63:53
                Exponent: 65537 (0x10001)
        X509v3 extensions:
            X509v3 Basic Constraints: 
                CA:FALSE
            X509v3 Subject Key Identifier: 
                24:A4:DD:8C:C5:EA:FD:12:A0:CE:06:1E:40:DD:D1:0F:65:F1:15:E8
            X509v3 Authority Key Identifier: 
                keyid:F3:9E:02:7C:4C:1F:BD:DF:D9:05:07:65:1B:8C:87:6B:36:A0:E9:01
                DirName:/CN=team109-net
                serial:33:C4:A2:A4:19:37:83:93:59:12:7E:ED:92:4A:97:FA:6A:61:44:53
            X509v3 Extended Key Usage: 
                TLS Web Server Authentication
            X509v3 Key Usage: 
                Digital Signature, Key Encipherment
            X509v3 Subject Alternative Name: 
                DNS:team109-server
    Signature Algorithm: sha256WithRSAEncryption
    Signature Value:
        b5:98:b4:42:b7:21:9f:e3:62:70:88:79:cb:b0:8b:19:2b:ab:
        9d:d2:40:f1:71:80:40:91:98:e3:73:56:a7:db:b7:97:ff:58:
        bb:5d:27:97:49:01:4e:ae:97:fb:56:4e:b4:b8:d3:ca:7d:40:
        c3:16:9d:84:8d:ab:54:69:39:39:bd:1f:d6:ad:5c:06:3d:e4:
        17:dc:82:6e:5f:3a:93:f9:53:8e:c6:20:75:37:7b:d2:bb:e6:
        3d:c9:ba:63:4d:0a:f4:af:32:8c:36:c1:aa:e4:7b:e1:2f:be:
        8a:42:c0:25:44:d0:2e:45:d3:05:1e:25:e9:ff:60:12:f4:6c:
        d3:56:3a:49:70:7a:35:7e:98:f6:84:c6:09:a7:8c:7e:ea:d4:
        1a:11:48:ca:48:57:bb:cd:a9:8e:fd:28:ff:a5:07:40:7e:3b:
        6c:7a:83:c5:e3:82:bb:62:d8:94:44:9e:f4:99:f5:7c:f5:4f:
        b4:65:56:be:88:7b:1d:9a:ea:35:51:a3:15:89:e5:3b:25:77:
        6a:8b:c4:a0:3e:23:c3:73:01:69:6d:2b:06:c6:e8:9f:45:b0:
        19:44:27:49:fa:39:2f:10:0f:ef:48:4e:77:87:46:7d:4e:7d:
        df:eb:18:44:f0:20:f7:be:aa:6d:f6:29:52:22:d0:f4:22:64:
        b0:a4:65:e4
-----BEGIN CERTIFICATE-----
MIIDdzCCAl+gAwIBAgIQRfMCx5ze9Vu4b1Zhe783tTANBgkqhkiG9w0BAQsFADAW
MRQwEgYDVQQDDAt0ZWFtMTA5LW5ldDAeFw0yMzExMDQxMTI5MzZaFw0yNjEwMTkx
MTI5MzZaMBkxFzAVBgNVBAMMDnRlYW0xMDktc2VydmVyMIIBIjANBgkqhkiG9w0B
AQEFAAOCAQ8AMIIBCgKCAQEA4EqW6nlKlXf+oNsuJfmT9iAWoCmMVWrcEnFLMtbo
RmZtnbJ9BEtRh8vzm03Z97U9Ara6iTC2apXIn7ZjyfzQgpG+FyS3DnuAdG4h2Ewi
urJx4b6vODu+QUO0ylLhBN/AO00Zgg/rO4LAgOC/lbgb+Tzj/Ls8rQRPYjRNWYri
ZAzWS7OhWRoXSzWhcUWypO/eFmjRT1Ro17AKF9cEGKDohBzCnlUFCy87GrXOOvCG
B2Ttlugv0f4xuN5+ghKBxqQX39kuuLmQW4BXms2kHFdAQlV53c23d8L8xasjJXJ2
17oidx20HBhRzvg6x1fYcfyLlfedzTNS4Hq7aHEKj7FjUwIDAQABo4G9MIG6MAkG
A1UdEwQCMAAwHQYDVR0OBBYEFCSk3YzF6v0SoM4GHkDd0Q9l8RXoMFEGA1UdIwRK
MEiAFPOeAnxMH73f2QUHZRuMh2s2oOkBoRqkGDAWMRQwEgYDVQQDDAt0ZWFtMTA5
LW5ldIIUM8SipBk3g5NZEn7tkkqX+mphRFMwEwYDVR0lBAwwCgYIKwYBBQUHAwEw
CwYDVR0PBAQDAgWgMBkGA1UdEQQSMBCCDnRlYW0xMDktc2VydmVyMA0GCSqGSIb3
DQEBCwUAA4IBAQC1mLRCtyGf42JwiHnLsIsZK6ud0kDxcYBAkZjjc1an27eX/1i7
XSeXSQFOrpf7Vk60uNPKfUDDFp2EjatUaTk5vR/WrVwGPeQX3IJuXzqT+VOOxiB1
N3vSu+Y9ybpjTQr0rzKMNsGq5HvhL76KQsAlRNAuRdMFHiXp/2AS9GzTVjpJcHo1
fpj2hMYJp4x+6tQaEUjKSFe7zamO/Sj/pQdAfjtseoPF44K7YtiURJ70mfV89U+0
ZVa+iHsdmuo1UaMVieU7JXdqi8SgPiPDcwFpbSsGxuifRbAZRCdJ+jkvEA/vSE53
h0Z9Tn3f6xhE8CD3vqpt9ilSItD0ImSwpGXk
-----END CERTIFICATE-----
