Certificate:
    Data:
        Version: 3 (0x2)
        Serial Number:
            99:81:08:bc:7d:02:a9:1b:7f:49:8c:bf:a4:3b:70:7e
        Signature Algorithm: sha256WithRSAEncryption
        Issuer: CN=team109-net
        Validity
            Not Before: Nov  3 20:41:05 2023 GMT
            Not After : Oct 18 20:41:05 2026 GMT
        Subject: CN=team109-client
        Subject Public Key Info:
            Public Key Algorithm: rsaEncryption
                Public-Key: (2048 bit)
                Modulus:
                    00:a8:fe:36:b3:01:4a:67:5b:8c:e6:55:50:35:3a:
                    48:bf:44:03:42:f8:47:c5:1c:07:f9:93:35:8a:1a:
                    ca:80:71:b3:6e:80:30:07:c6:c0:73:89:a2:05:c8:
                    0b:4b:67:e0:b4:27:f4:97:0a:35:01:46:59:22:3c:
                    e0:b4:ec:03:6d:2a:80:23:79:0f:ef:56:9e:fc:7f:
                    8b:ba:34:82:61:f9:fc:b9:59:db:7c:6f:3d:49:b1:
                    b0:49:7e:6c:e3:6d:22:2e:05:54:7d:ee:48:c0:8e:
                    4c:2b:65:c6:47:56:38:d2:ff:ba:2d:3e:1a:37:79:
                    f6:c6:fe:63:c6:79:93:7e:62:24:a8:39:0e:43:77:
                    14:49:c2:34:f3:4f:4c:3a:b4:ac:9f:75:b2:34:d7:
                    22:01:fb:16:3a:ec:ba:63:08:75:e1:27:7d:e8:76:
                    0d:b4:8a:85:79:71:0a:85:ac:f8:35:f2:a7:14:77:
                    82:d0:55:30:e3:db:1f:68:90:ad:6f:39:79:1d:01:
                    c8:1e:03:15:01:47:cc:44:8e:a5:85:9d:91:ae:a5:
                    ae:c5:0c:ee:4a:c2:d5:9f:18:18:51:34:7d:72:fd:
                    16:34:a2:0b:6b:cd:5e:e0:d9:f9:b4:cf:f0:fa:2c:
                    1c:d3:20:32:63:f4:0c:90:3b:7b:07:6d:f6:0a:56:
                    ba:73
                Exponent: 65537 (0x10001)
        X509v3 extensions:
            X509v3 Basic Constraints: 
                CA:FALSE
            X509v3 Subject Key Identifier: 
                6F:2A:35:72:00:A8:8B:93:7D:97:CF:6C:CA:C1:0E:CB:F8:6E:7A:D8
            X509v3 Authority Key Identifier: 
                keyid:A2:E0:CF:1B:1F:F3:20:AD:CB:78:2C:91:5A:2F:0B:CA:F1:14:E9:62
                DirName:/CN=team109-net
                serial:03:9D:91:D2:3D:34:08:F7:45:37:F4:48:81:DB:70:ED:DC:D8:BD:AE
            X509v3 Extended Key Usage: 
                TLS Web Client Authentication
            X509v3 Key Usage: 
                Digital Signature
    Signature Algorithm: sha256WithRSAEncryption
    Signature Value:
        c2:e1:91:13:b4:e7:36:54:05:c8:c0:f1:cd:14:db:29:6b:a5:
        27:0d:22:cc:a1:a7:7d:48:06:b9:84:d9:cb:70:98:02:90:ed:
        23:52:db:a1:2e:ac:a1:39:22:8b:e8:50:33:a9:1e:b9:86:f0:
        04:32:05:54:3b:04:07:45:45:fb:a6:ce:59:5b:de:3d:3e:b7:
        3b:31:da:0a:72:8b:d9:ce:53:dd:6f:69:2a:89:24:09:2c:fa:
        97:5d:da:20:0e:e8:af:e3:3e:c5:3d:84:5d:69:07:5f:e4:af:
        82:a2:87:e5:c8:af:ec:41:99:e3:f5:1c:34:ec:1e:63:35:98:
        aa:c2:98:39:66:89:06:8d:ec:7f:c5:ea:e8:90:99:f8:12:11:
        31:52:9f:31:1d:3d:66:ae:03:0b:3e:eb:c8:60:cf:5e:2c:cf:
        54:80:b4:43:43:35:35:ee:7a:f9:ef:f2:c0:ca:f0:10:c6:94:
        e1:12:c8:27:c9:78:c5:37:79:64:50:53:7c:49:0b:55:01:21:
        d7:ea:fc:fc:fb:92:e1:58:a7:28:50:64:1a:a2:0b:b6:8c:23:
        90:ad:1f:11:04:96:a6:2c:f1:01:67:f0:34:e3:d9:95:64:d4:
        65:9f:78:3c:df:d0:eb:e7:da:6f:72:e3:41:0a:be:6f:32:8c:
        21:56:d8:41
-----BEGIN CERTIFICATE-----
MIIDXTCCAkWgAwIBAgIRAJmBCLx9Aqkbf0mMv6Q7cH4wDQYJKoZIhvcNAQELBQAw
FjEUMBIGA1UEAwwLdGVhbTEwOS1uZXQwHhcNMjMxMTAzMjA0MTA1WhcNMjYxMDE4
MjA0MTA1WjAZMRcwFQYDVQQDDA50ZWFtMTA5LWNsaWVudDCCASIwDQYJKoZIhvcN
AQEBBQADggEPADCCAQoCggEBAKj+NrMBSmdbjOZVUDU6SL9EA0L4R8UcB/mTNYoa
yoBxs26AMAfGwHOJogXIC0tn4LQn9JcKNQFGWSI84LTsA20qgCN5D+9Wnvx/i7o0
gmH5/LlZ23xvPUmxsEl+bONtIi4FVH3uSMCOTCtlxkdWONL/ui0+Gjd59sb+Y8Z5
k35iJKg5DkN3FEnCNPNPTDq0rJ91sjTXIgH7FjrsumMIdeEnfeh2DbSKhXlxCoWs
+DXypxR3gtBVMOPbH2iQrW85eR0ByB4DFQFHzESOpYWdka6lrsUM7krC1Z8YGFE0
fXL9FjSiC2vNXuDZ+bTP8PosHNMgMmP0DJA7ewdt9gpWunMCAwEAAaOBojCBnzAJ
BgNVHRMEAjAAMB0GA1UdDgQWBBRvKjVyAKiLk32Xz2zKwQ7L+G562DBRBgNVHSME
SjBIgBSi4M8bH/Mgrct4LJFaLwvK8RTpYqEapBgwFjEUMBIGA1UEAwwLdGVhbTEw
OS1uZXSCFAOdkdI9NAj3RTf0SIHbcO3c2L2uMBMGA1UdJQQMMAoGCCsGAQUFBwMC
MAsGA1UdDwQEAwIHgDANBgkqhkiG9w0BAQsFAAOCAQEAwuGRE7TnNlQFyMDxzRTb
KWulJw0izKGnfUgGuYTZy3CYApDtI1LboS6soTkii+hQM6keuYbwBDIFVDsEB0VF
+6bOWVvePT63OzHaCnKL2c5T3W9pKokkCSz6l13aIA7or+M+xT2EXWkHX+SvgqKH
5civ7EGZ4/UcNOweYzWYqsKYOWaJBo3sf8Xq6JCZ+BIRMVKfMR09Zq4DCz7ryGDP
XizPVIC0Q0M1Ne56+e/ywMrwEMaU4RLIJ8l4xTd5ZFBTfEkLVQEh1+r8/PuS4Vin
KFBkGqILtowjkK0fEQSWpizxAWfwNOPZlWTUZZ94PN/Q6+fab3LjQQq+bzKMIVbY
QQ==
-----END CERTIFICATE-----
