Certificate:
    Data:
        Version: 3 (0x2)
        Serial Number:
            b8:5b:0d:b0:b9:ff:c3:7f:53:88:c0:13:a4:7c:a3:e5
        Signature Algorithm: sha256WithRSAEncryption
        Issuer: CN=team109-net
        Validity
            Not Before: Nov  4 11:29:36 2023 GMT
            Not After : Oct 19 11:29:36 2026 GMT
        Subject: CN=team109-client
        Subject Public Key Info:
            Public Key Algorithm: rsaEncryption
                Public-Key: (2048 bit)
                Modulus:
                    00:e8:d8:2d:66:86:f9:e1:73:56:5e:ed:23:5c:7b:
                    71:2d:c9:e0:3d:51:f2:f2:99:89:39:f1:3b:68:eb:
                    8b:4a:a9:4f:24:d2:18:ec:ee:66:c5:a1:d8:65:04:
                    3a:de:d0:ed:3a:01:90:90:04:2a:dd:a7:e5:e8:84:
                    2f:40:e2:bc:67:10:e7:14:e6:39:7b:29:32:00:19:
                    47:2b:bc:d3:48:a5:04:d5:da:b6:cf:18:38:18:0f:
                    6d:bd:a5:81:e7:3a:84:fe:9b:91:7c:9b:16:f3:de:
                    e8:8f:62:34:51:9d:19:97:12:87:59:80:ce:6f:4b:
                    16:c0:fc:4b:07:e4:88:7e:03:95:61:9e:23:c8:26:
                    ff:8d:33:4c:7c:b5:d0:d0:b4:bc:8a:05:0a:2f:71:
                    93:1c:96:2f:e6:77:19:02:a0:c7:3c:72:2b:64:3d:
                    61:b1:41:56:0f:6a:e4:fa:23:57:c6:a9:27:49:fb:
                    00:8a:86:c0:16:66:c8:86:2c:ef:0c:eb:89:49:a4:
                    56:43:7d:4e:c3:67:0a:f4:75:7b:ff:24:ea:13:3a:
                    48:83:8b:83:89:5f:aa:18:1b:4e:8f:c3:6c:21:03:
                    8f:05:11:e6:be:3a:e5:35:f5:ef:39:09:ab:62:33:
                    c9:bf:0d:27:28:96:e2:26:48:74:4e:06:68:0d:22:
                    40:1d
                Exponent: 65537 (0x10001)
        X509v3 extensions:
            X509v3 Basic Constraints: 
                CA:FALSE
            X509v3 Subject Key Identifier: 
                A9:1D:09:29:2E:13:4A:03:52:63:94:37:DC:AE:55:60:C2:14:5D:17
            X509v3 Authority Key Identifier: 
                keyid:F3:9E:02:7C:4C:1F:BD:DF:D9:05:07:65:1B:8C:87:6B:36:A0:E9:01
                DirName:/CN=team109-net
                serial:33:C4:A2:A4:19:37:83:93:59:12:7E:ED:92:4A:97:FA:6A:61:44:53
            X509v3 Extended Key Usage: 
                TLS Web Client Authentication
            X509v3 Key Usage: 
                Digital Signature
    Signature Algorithm: sha256WithRSAEncryption
    Signature Value:
        af:6b:ae:bb:aa:a2:94:a1:ed:5e:e7:99:e0:5b:fd:40:0e:df:
        44:c7:30:bf:e1:3d:a8:f7:b5:1b:6d:b1:ed:0b:b2:27:80:48:
        ac:2e:6d:2b:53:48:95:f3:57:88:72:1b:b0:b3:47:64:e2:b3:
        44:d3:5b:ca:51:18:b1:1c:f4:d5:85:ff:0e:e7:4f:06:5f:a2:
        ed:57:ca:8b:b8:3e:c1:e1:83:e1:ff:7f:cb:fd:d7:23:bd:a5:
        e0:95:5c:42:8e:bf:d2:5b:59:19:68:3d:f4:4a:b0:02:c9:c8:
        8d:40:c7:ee:e3:a4:b6:1f:25:d4:e0:23:a8:c6:a7:cf:4d:62:
        40:48:87:7e:eb:8e:53:5c:85:80:0b:b4:50:09:42:ce:83:10:
        71:6f:b2:a5:9d:f1:7f:28:82:8f:4f:f0:a6:8d:38:9e:61:3b:
        52:d5:9b:61:eb:f7:be:a7:44:3f:78:1a:e2:c9:ea:b0:d7:2e:
        7a:42:f0:c4:8d:26:b6:86:99:90:fe:e4:e4:62:b1:6a:52:48:
        9f:91:d7:8d:6f:1c:0c:cb:e5:dd:00:80:56:36:96:42:cc:4d:
        d7:45:be:2f:f6:5e:01:fa:7e:10:40:b9:c8:63:6b:35:72:43:
        4c:0b:64:c8:e1:e9:bf:71:bd:01:b8:33:d0:a9:5b:b2:62:1b:
        10:8b:ff:8d
-----BEGIN CERTIFICATE-----
MIIDXTCCAkWgAwIBAgIRALhbDbC5/8N/U4jAE6R8o+UwDQYJKoZIhvcNAQELBQAw
FjEUMBIGA1UEAwwLdGVhbTEwOS1uZXQwHhcNMjMxMTA0MTEyOTM2WhcNMjYxMDE5
MTEyOTM2WjAZMRcwFQYDVQQDDA50ZWFtMTA5LWNsaWVudDCCASIwDQYJKoZIhvcN
AQEBBQADggEPADCCAQoCggEBAOjYLWaG+eFzVl7tI1x7cS3J4D1R8vKZiTnxO2jr
i0qpTyTSGOzuZsWh2GUEOt7Q7ToBkJAEKt2n5eiEL0DivGcQ5xTmOXspMgAZRyu8
00ilBNXats8YOBgPbb2lgec6hP6bkXybFvPe6I9iNFGdGZcSh1mAzm9LFsD8Swfk
iH4DlWGeI8gm/40zTHy10NC0vIoFCi9xkxyWL+Z3GQKgxzxyK2Q9YbFBVg9q5Poj
V8apJ0n7AIqGwBZmyIYs7wzriUmkVkN9TsNnCvR1e/8k6hM6SIOLg4lfqhgbTo/D
bCEDjwUR5r465TX17zkJq2Izyb8NJyiW4iZIdE4GaA0iQB0CAwEAAaOBojCBnzAJ
BgNVHRMEAjAAMB0GA1UdDgQWBBSpHQkpLhNKA1JjlDfcrlVgwhRdFzBRBgNVHSME
SjBIgBTzngJ8TB+939kFB2UbjIdrNqDpAaEapBgwFjEUMBIGA1UEAwwLdGVhbTEw
OS1uZXSCFDPEoqQZN4OTWRJ+7ZJKl/pqYURTMBMGA1UdJQQMMAoGCCsGAQUFBwMC
MAsGA1UdDwQEAwIHgDANBgkqhkiG9w0BAQsFAAOCAQEAr2uuu6qilKHtXueZ4Fv9
QA7fRMcwv+E9qPe1G22x7QuyJ4BIrC5tK1NIlfNXiHIbsLNHZOKzRNNbylEYsRz0
1YX/DudPBl+i7VfKi7g+weGD4f9/y/3XI72l4JVcQo6/0ltZGWg99EqwAsnIjUDH
7uOkth8l1OAjqManz01iQEiHfuuOU1yFgAu0UAlCzoMQcW+ypZ3xfyiCj0/wpo04
nmE7UtWbYev3vqdEP3ga4snqsNcuekLwxI0mtoaZkP7k5GKxalJIn5HXjW8cDMvl
3QCAVjaWQsxN10W+L/ZeAfp+EEC5yGNrNXJDTAtkyOHpv3G9Abgz0KlbsmIbEIv/
jQ==
-----END CERTIFICATE-----
