Certificate:
    Data:
        Version: 3 (0x2)
        Serial Number:
            fe:69:81:ff:68:88:39:30:10:85:ed:a8:44:c6:b7:f1
        Signature Algorithm: sha256WithRSAEncryption
        Issuer: CN=team109-net
        Validity
            Not Before: Nov  3 20:41:06 2023 GMT
            Not After : Oct 18 20:41:06 2026 GMT
        Subject: CN=team109-server
        Subject Public Key Info:
            Public Key Algorithm: rsaEncryption
                Public-Key: (2048 bit)
                Modulus:
                    00:bd:fb:3c:8d:19:36:c2:ca:d9:f2:4d:84:93:b6:
                    c6:8d:1a:37:11:05:56:33:f4:dc:e6:d2:46:70:8e:
                    13:36:7d:65:a5:c1:ef:a2:5a:d8:d3:dc:10:e7:07:
                    a0:e2:ab:09:23:4d:06:11:da:85:ad:70:2d:43:8b:
                    b2:50:4b:88:d7:34:af:b5:81:71:ee:6b:7b:c1:0b:
                    63:a0:e2:2a:c4:b6:4e:95:a9:f9:18:58:b2:8b:70:
                    51:45:95:3d:eb:65:5e:0e:cd:04:19:ff:76:ea:d0:
                    a3:56:b9:aa:c8:f9:4b:0f:38:78:86:c2:b4:88:44:
                    16:2a:a8:08:61:31:11:76:42:26:32:91:56:b4:bd:
                    1f:44:e0:57:d8:72:7b:c0:85:43:e6:2f:87:f0:b9:
                    67:d3:fd:8e:57:7b:9a:a6:c5:1a:4c:2c:b3:79:a9:
                    c8:0d:55:a7:0e:0e:f1:12:ed:fa:7b:7e:22:5e:17:
                    ee:c5:6d:c4:fc:c1:46:1b:1c:e7:22:05:76:ad:92:
                    63:53:60:ff:c4:ea:0d:f5:c1:18:a7:e4:44:39:e2:
                    b3:40:6c:ae:25:a7:5e:32:ea:51:06:ff:47:4d:7c:
                    b1:9d:2b:da:fc:a9:ce:fc:ef:cb:89:5b:d9:af:be:
                    a1:e0:eb:bc:4e:dd:af:64:dc:7e:16:a1:4a:25:1f:
                    8c:a3
                Exponent: 65537 (0x10001)
        X509v3 extensions:
            X509v3 Basic Constraints: 
                CA:FALSE
            X509v3 Subject Key Identifier: 
                13:38:8A:BC:6D:58:09:2F:81:DD:33:61:69:7A:83:48:53:B0:44:6D
            X509v3 Authority Key Identifier: 
                keyid:A2:E0:CF:1B:1F:F3:20:AD:CB:78:2C:91:5A:2F:0B:CA:F1:14:E9:62
                DirName:/CN=team109-net
                serial:03:9D:91:D2:3D:34:08:F7:45:37:F4:48:81:DB:70:ED:DC:D8:BD:AE
            X509v3 Extended Key Usage: 
                TLS Web Server Authentication
            X509v3 Key Usage: 
                Digital Signature, Key Encipherment
            X509v3 Subject Alternative Name: 
                DNS:team109-server
    Signature Algorithm: sha256WithRSAEncryption
    Signature Value:
        71:29:bc:8d:49:ab:18:12:b7:13:ca:59:ae:fb:bf:84:a5:98:
        bd:f8:df:8f:75:90:bf:4b:93:49:42:c6:0d:77:dd:ff:af:44:
        c4:aa:d3:5d:87:48:ef:4f:36:1f:8a:09:83:c4:35:1a:37:19:
        96:37:cd:3f:a8:53:d2:f2:1a:29:75:07:f2:d5:45:3d:88:bb:
        94:f3:77:f5:c2:57:21:01:42:58:3b:fb:76:04:2a:91:71:b1:
        7f:b9:e3:00:a0:f5:43:d2:71:f7:6a:a6:6b:e5:69:41:2f:a8:
        e4:ae:56:f9:53:93:e5:46:2d:e3:b8:66:d2:3e:eb:c8:11:fa:
        4d:09:fd:29:ef:ba:1a:3c:ba:3e:de:5a:62:b3:2d:36:bb:ed:
        13:e9:99:b5:50:c3:db:e0:88:f3:6d:70:c1:01:6f:42:74:db:
        5b:d1:5f:14:99:8e:4c:bf:6f:57:6a:3d:30:c9:34:a2:f8:0b:
        29:cd:ee:2b:ff:56:b2:13:c0:83:15:f4:2f:16:ca:7c:84:8c:
        2b:bc:d8:eb:8d:f6:6f:56:de:e3:78:9b:8a:ec:80:c9:8b:93:
        5c:d3:4c:2e:66:b3:7d:6c:53:5a:c6:d7:27:f8:22:60:1b:04:
        00:74:47:51:7a:4d:3a:3e:6d:e8:bb:77:54:1c:23:80:12:60:
        55:2b:af:e8
-----BEGIN CERTIFICATE-----
MIIDeDCCAmCgAwIBAgIRAP5pgf9oiDkwEIXtqETGt/EwDQYJKoZIhvcNAQELBQAw
FjEUMBIGA1UEAwwLdGVhbTEwOS1uZXQwHhcNMjMxMTAzMjA0MTA2WhcNMjYxMDE4
MjA0MTA2WjAZMRcwFQYDVQQDDA50ZWFtMTA5LXNlcnZlcjCCASIwDQYJKoZIhvcN
AQEBBQADggEPADCCAQoCggEBAL37PI0ZNsLK2fJNhJO2xo0aNxEFVjP03ObSRnCO
EzZ9ZaXB76Ja2NPcEOcHoOKrCSNNBhHaha1wLUOLslBLiNc0r7WBce5re8ELY6Di
KsS2TpWp+RhYsotwUUWVPetlXg7NBBn/durQo1a5qsj5Sw84eIbCtIhEFiqoCGEx
EXZCJjKRVrS9H0TgV9hye8CFQ+Yvh/C5Z9P9jld7mqbFGkwss3mpyA1Vpw4O8RLt
+nt+Il4X7sVtxPzBRhsc5yIFdq2SY1Ng/8TqDfXBGKfkRDnis0BsriWnXjLqUQb/
R018sZ0r2vypzvzvy4lb2a++oeDrvE7dr2TcfhahSiUfjKMCAwEAAaOBvTCBujAJ
BgNVHRMEAjAAMB0GA1UdDgQWBBQTOIq8bVgJL4HdM2FpeoNIU7BEbTBRBgNVHSME
SjBIgBSi4M8bH/Mgrct4LJFaLwvK8RTpYqEapBgwFjEUMBIGA1UEAwwLdGVhbTEw
OS1uZXSCFAOdkdI9NAj3RTf0SIHbcO3c2L2uMBMGA1UdJQQMMAoGCCsGAQUFBwMB
MAsGA1UdDwQEAwIFoDAZBgNVHREEEjAQgg50ZWFtMTA5LXNlcnZlcjANBgkqhkiG
9w0BAQsFAAOCAQEAcSm8jUmrGBK3E8pZrvu/hKWYvfjfj3WQv0uTSULGDXfd/69E
xKrTXYdI7082H4oJg8Q1GjcZljfNP6hT0vIaKXUH8tVFPYi7lPN39cJXIQFCWDv7
dgQqkXGxf7njAKD1Q9Jx92qma+VpQS+o5K5W+VOT5UYt47hm0j7ryBH6TQn9Ke+6
Gjy6Pt5aYrMtNrvtE+mZtVDD2+CI821wwQFvQnTbW9FfFJmOTL9vV2o9MMk0ovgL
Kc3uK/9WshPAgxX0LxbKfISMK7zY6432b1be43ibiuyAyYuTXNNMLmazfWxTWsbX
J/giYBsEAHRHUXpNOj5t6Lt3VBwjgBJgVSuv6A==
-----END CERTIFICATE-----
