Certificate:
    Data:
        Version: 3 (0x2)
        Serial Number:
            47:b0:bd:83:44:69:88:af:52:09:0f:f2:c8:49:86:79
        Signature Algorithm: sha256WithRSAEncryption
        Issuer: CN=team211-net
        Validity
            Not Before: Nov  4 11:31:47 2023 GMT
            Not After : Oct 19 11:31:47 2026 GMT
        Subject: CN=team211-client
        Subject Public Key Info:
            Public Key Algorithm: rsaEncryption
                Public-Key: (2048 bit)
                Modulus:
                    00:d2:51:8e:16:4a:c6:8d:3a:a9:86:03:b3:65:cf:
                    c8:d8:d9:e3:06:30:fa:14:b5:ba:ef:ad:4d:33:28:
                    0c:8d:23:fc:aa:ee:62:90:ae:67:f1:1b:00:6e:05:
                    a1:5b:2d:1e:41:5c:8f:54:fc:5d:c9:80:5f:b3:4d:
                    66:ce:05:6f:a4:16:9a:08:aa:4c:0e:a6:3e:0a:f4:
                    bd:e5:f6:8a:b0:9a:f7:4d:74:87:67:ea:e9:a2:52:
                    e9:7b:21:52:d3:ed:75:21:88:9e:51:26:c8:35:b9:
                    a3:c3:a7:07:82:0f:ea:e5:6a:c9:a4:d2:ef:00:be:
                    ea:c8:e0:63:e1:6b:5f:00:65:b7:bb:33:d3:22:7c:
                    ef:fb:97:2f:be:4a:07:a0:cf:91:32:fc:c0:aa:ae:
                    ee:75:8f:9b:76:b1:bc:1e:f4:6c:59:26:3c:62:fe:
                    5e:4f:23:d1:ad:4c:b8:bf:3e:d9:d0:be:fc:c3:f2:
                    62:42:65:56:82:1f:74:d9:eb:e5:76:59:77:b1:a0:
                    22:5a:1e:21:03:38:af:53:fb:af:83:73:aa:f3:a8:
                    6f:2e:48:7e:bd:66:27:7b:84:45:d1:c4:db:c2:c3:
                    32:7f:c1:22:e7:53:a9:62:84:0d:6e:22:20:e7:b5:
                    83:b8:65:12:a3:06:97:6f:53:e6:7f:e5:b3:42:45:
                    2f:23
                Exponent: 65537 (0x10001)
        X509v3 extensions:
            X509v3 Basic Constraints: 
                CA:FALSE
            X509v3 Subject Key Identifier: 
                45:EC:61:3C:C8:0D:B7:46:D4:F4:71:3F:3B:9A:28:4D:2A:55:41:5A
            X509v3 Authority Key Identifier: 
                keyid:F6:07:5C:7F:08:78:D9:0B:C6:20:38:71:04:95:E9:29:F0:15:05:92
                DirName:/CN=team211-net
                serial:64:B9:9B:00:8E:33:91:1D:69:1E:F8:02:60:2D:99:34:FC:A2:4A:CB
            X509v3 Extended Key Usage: 
                TLS Web Client Authentication
            X509v3 Key Usage: 
                Digital Signature
    Signature Algorithm: sha256WithRSAEncryption
    Signature Value:
        59:b3:2a:2f:01:70:1f:f5:d6:cc:f6:90:c5:fb:d1:29:61:69:
        be:35:bb:58:0d:2b:ef:62:fd:37:bb:9d:df:4a:08:a5:ea:cd:
        f7:a1:58:fe:d4:68:a5:4e:71:59:b2:7a:d4:d1:1f:12:67:c7:
        0d:3a:54:7b:77:d0:2b:45:4f:db:8d:17:71:65:fc:7a:ac:07:
        e3:73:4b:86:6c:b2:24:1e:a6:21:6e:96:34:7b:fb:aa:4c:a5:
        07:5f:c1:76:88:cb:91:30:59:17:c1:de:cd:b9:05:d3:83:56:
        04:b8:f1:3d:96:87:bd:05:69:db:a4:13:89:26:b4:88:44:7a:
        94:8d:f6:93:fc:92:c9:76:70:53:0e:70:81:2c:1f:23:99:b9:
        a7:0e:e5:2c:ee:6d:a5:06:0f:e9:fd:0a:1c:9f:b9:7f:5e:eb:
        9b:ed:d6:da:2b:56:f5:e7:9d:65:fd:21:22:87:04:44:0a:dd:
        13:8a:6f:cc:98:6e:f4:2f:b4:31:91:de:1e:4e:96:32:90:1b:
        3f:21:c7:f6:c5:6b:b3:7d:20:94:5f:8b:49:35:f1:67:56:52:
        32:58:19:d7:5e:53:a9:b1:83:20:a9:e9:30:bb:d3:07:a5:34:
        32:4c:cf:50:30:4c:5d:29:60:13:d0:f4:66:64:f5:f5:10:f0:
        04:bc:06:2d
-----BEGIN CERTIFICATE-----
MIIDXDCCAkSgAwIBAgIQR7C9g0RpiK9SCQ/yyEmGeTANBgkqhkiG9w0BAQsFADAW
MRQwEgYDVQQDDAt0ZWFtMjExLW5ldDAeFw0yMzExMDQxMTMxNDdaFw0yNjEwMTkx
MTMxNDdaMBkxFzAVBgNVBAMMDnRlYW0yMTEtY2xpZW50MIIBIjANBgkqhkiG9w0B
AQEFAAOCAQ8AMIIBCgKCAQEA0lGOFkrGjTqphgOzZc/I2NnjBjD6FLW6761NMygM
jSP8qu5ikK5n8RsAbgWhWy0eQVyPVPxdyYBfs01mzgVvpBaaCKpMDqY+CvS95faK
sJr3TXSHZ+rpolLpeyFS0+11IYieUSbINbmjw6cHgg/q5WrJpNLvAL7qyOBj4Wtf
AGW3uzPTInzv+5cvvkoHoM+RMvzAqq7udY+bdrG8HvRsWSY8Yv5eTyPRrUy4vz7Z
0L78w/JiQmVWgh902evldll3saAiWh4hAzivU/uvg3Oq86hvLkh+vWYne4RF0cTb
wsMyf8Ei51OpYoQNbiIg57WDuGUSowaXb1Pmf+WzQkUvIwIDAQABo4GiMIGfMAkG
A1UdEwQCMAAwHQYDVR0OBBYEFEXsYTzIDbdG1PRxPzuaKE0qVUFaMFEGA1UdIwRK
MEiAFPYHXH8IeNkLxiA4cQSV6SnwFQWSoRqkGDAWMRQwEgYDVQQDDAt0ZWFtMjEx
LW5ldIIUZLmbAI4zkR1pHvgCYC2ZNPyiSsswEwYDVR0lBAwwCgYIKwYBBQUHAwIw
CwYDVR0PBAQDAgeAMA0GCSqGSIb3DQEBCwUAA4IBAQBZsyovAXAf9dbM9pDF+9Ep
YWm+NbtYDSvvYv03u53fSgil6s33oVj+1GilTnFZsnrU0R8SZ8cNOlR7d9ArRU/b
jRdxZfx6rAfjc0uGbLIkHqYhbpY0e/uqTKUHX8F2iMuRMFkXwd7NuQXTg1YEuPE9
loe9BWnbpBOJJrSIRHqUjfaT/JLJdnBTDnCBLB8jmbmnDuUs7m2lBg/p/Qocn7l/
Xuub7dbaK1b1551l/SEihwRECt0Tim/MmG70L7Qxkd4eTpYykBs/Icf2xWuzfSCU
X4tJNfFnVlIyWBnXXlOpsYMgqekwu9MHpTQyTM9QMExdKWAT0PRmZPX1EPAEvAYt
-----END CERTIFICATE-----
