Certificate:
    Data:
        Version: 3 (0x2)
        Serial Number:
            71:63:f5:db:62:b9:62:d9:64:3a:91:c1:1e:45:64:89
        Signature Algorithm: sha256WithRSAEncryption
        Issuer: CN=team211-net
        Validity
            Not Before: Nov  4 11:31:47 2023 GMT
            Not After : Oct 19 11:31:47 2026 GMT
        Subject: CN=team211-server
        Subject Public Key Info:
            Public Key Algorithm: rsaEncryption
                Public-Key: (2048 bit)
                Modulus:
                    00:b0:1a:ae:b4:e1:50:15:b7:5c:f7:04:83:96:4d:
                    43:8d:cd:1f:fe:64:ae:80:0f:c2:37:1c:a0:0c:7b:
                    a0:28:3d:15:a0:41:88:7b:50:de:23:62:19:8c:f5:
                    97:82:c6:41:8e:77:9d:a4:db:a2:88:3e:f6:47:48:
                    76:82:17:21:61:98:49:26:0c:c9:b3:3f:8c:7b:53:
                    11:81:c3:36:e8:eb:85:61:ea:34:a5:a9:68:be:93:
                    7b:86:78:47:db:81:0e:d1:a7:59:4e:aa:2f:d7:53:
                    bb:73:80:d7:80:a5:5f:ae:72:3b:6d:83:e5:58:8b:
                    b3:77:85:35:a0:72:18:2a:fd:1d:c7:a9:db:1a:c5:
                    ce:79:48:af:47:df:61:73:1a:33:aa:84:82:f9:04:
                    03:fb:1b:f9:50:3d:49:ca:ee:51:85:3b:59:ad:11:
                    71:f1:68:f6:d1:ea:b7:e4:e1:06:d6:a5:2e:92:a6:
                    06:a9:a8:a4:8a:7d:c2:de:ee:b5:10:43:1a:6f:ed:
                    cc:98:fa:a4:c8:b6:18:35:a0:55:b5:44:bc:69:fa:
                    80:84:c9:42:32:9b:08:60:a7:0b:3d:36:f8:cf:71:
                    d0:fb:8e:16:32:97:1f:d3:db:6b:d9:3c:0b:26:eb:
                    13:c0:96:eb:ed:e2:ff:49:ac:86:b4:be:78:8b:a9:
                    2f:bb
                Exponent: 65537 (0x10001)
        X509v3 extensions:
            X509v3 Basic Constraints: 
                CA:FALSE
            X509v3 Subject Key Identifier: 
                E7:8A:15:A7:97:0B:B0:18:E6:DA:C0:7C:D8:3A:CD:5C:6C:A3:79:2D
            X509v3 Authority Key Identifier: 
                keyid:F6:07:5C:7F:08:78:D9:0B:C6:20:38:71:04:95:E9:29:F0:15:05:92
                DirName:/CN=team211-net
                serial:64:B9:9B:00:8E:33:91:1D:69:1E:F8:02:60:2D:99:34:FC:A2:4A:CB
            X509v3 Extended Key Usage: 
                TLS Web Server Authentication
            X509v3 Key Usage: 
                Digital Signature, Key Encipherment
            X509v3 Subject Alternative Name: 
                DNS:team211-server
    Signature Algorithm: sha256WithRSAEncryption
    Signature Value:
        53:38:be:02:e7:75:1f:4b:86:ac:c9:91:3e:91:7e:7d:7e:27:
        a7:b4:4a:99:a2:31:3e:80:d7:7b:3b:b4:bf:4d:be:b3:ec:03:
        d9:e5:26:b1:02:7d:d7:07:2d:cc:d8:af:dc:b6:0a:26:e0:e9:
        f0:28:d5:31:07:2c:91:9f:dc:82:ad:c7:db:43:3a:4f:dc:43:
        a5:73:3e:9d:a4:7c:f9:1f:a1:39:b8:6a:ae:c5:c0:5e:8b:39:
        7b:76:4f:50:cd:de:d8:c7:ad:45:81:8a:75:50:1b:24:14:fc:
        37:ad:33:42:64:07:1b:7a:c2:45:de:2b:3a:fc:ec:d9:c0:e1:
        ac:79:60:c0:00:0e:5d:3c:8b:cd:da:9b:e1:b5:45:91:a1:69:
        41:83:55:73:f4:fd:23:64:fa:e9:f2:6a:bf:47:57:5d:ba:2e:
        a1:03:6c:b6:6b:1c:a1:9e:fb:3b:ae:a5:46:62:e6:fe:7d:4a:
        a7:65:d2:71:3a:b9:fc:c6:b2:37:ff:7a:ff:1c:b7:36:72:52:
        29:5b:83:8a:8a:1a:64:5a:af:f1:71:b2:30:dd:b5:97:2e:42:
        1a:78:6c:6f:eb:1c:e2:61:07:14:85:62:f3:e7:8a:5a:a9:98:
        f5:bc:e5:60:6b:93:84:64:5a:22:b8:c3:1a:52:20:04:27:08:
        a1:21:a7:5e
-----BEGIN CERTIFICATE-----
MIIDdzCCAl+gAwIBAgIQcWP122K5YtlkOpHBHkVkiTANBgkqhkiG9w0BAQsFADAW
MRQwEgYDVQQDDAt0ZWFtMjExLW5ldDAeFw0yMzExMDQxMTMxNDdaFw0yNjEwMTkx
MTMxNDdaMBkxFzAVBgNVBAMMDnRlYW0yMTEtc2VydmVyMIIBIjANBgkqhkiG9w0B
AQEFAAOCAQ8AMIIBCgKCAQEAsBqutOFQFbdc9wSDlk1Djc0f/mSugA/CNxygDHug
KD0VoEGIe1DeI2IZjPWXgsZBjnedpNuiiD72R0h2ghchYZhJJgzJsz+Me1MRgcM2
6OuFYeo0palovpN7hnhH24EO0adZTqov11O7c4DXgKVfrnI7bYPlWIuzd4U1oHIY
Kv0dx6nbGsXOeUivR99hcxozqoSC+QQD+xv5UD1Jyu5RhTtZrRFx8Wj20eq35OEG
1qUukqYGqaikin3C3u61EEMab+3MmPqkyLYYNaBVtUS8afqAhMlCMpsIYKcLPTb4
z3HQ+44WMpcf09tr2TwLJusTwJbr7eL/SayGtL54i6kvuwIDAQABo4G9MIG6MAkG
A1UdEwQCMAAwHQYDVR0OBBYEFOeKFaeXC7AY5trAfNg6zVxso3ktMFEGA1UdIwRK
MEiAFPYHXH8IeNkLxiA4cQSV6SnwFQWSoRqkGDAWMRQwEgYDVQQDDAt0ZWFtMjEx
LW5ldIIUZLmbAI4zkR1pHvgCYC2ZNPyiSsswEwYDVR0lBAwwCgYIKwYBBQUHAwEw
CwYDVR0PBAQDAgWgMBkGA1UdEQQSMBCCDnRlYW0yMTEtc2VydmVyMA0GCSqGSIb3
DQEBCwUAA4IBAQBTOL4C53UfS4asyZE+kX59fientEqZojE+gNd7O7S/Tb6z7APZ
5SaxAn3XBy3M2K/ctgom4OnwKNUxByyRn9yCrcfbQzpP3EOlcz6dpHz5H6E5uGqu
xcBeizl7dk9Qzd7Yx61FgYp1UBskFPw3rTNCZAcbesJF3is6/OzZwOGseWDAAA5d
PIvN2pvhtUWRoWlBg1Vz9P0jZPrp8mq/R1ddui6hA2y2axyhnvs7rqVGYub+fUqn
ZdJxOrn8xrI3/3r/HLc2clIpW4OKihpkWq/xcbIw3bWXLkIaeGxv6xziYQcUhWLz
54paqZj1vOVga5OEZFoiuMMaUiAEJwihIade
-----END CERTIFICATE-----
