Certificate:
    Data:
        Version: 3 (0x2)
        Serial Number:
            ba:53:8f:81:e6:13:96:b9:d9:2a:20:19:bb:0c:0f:62
        Signature Algorithm: sha256WithRSAEncryption
        Issuer: CN=team211-net
        Validity
            Not Before: Nov  4 10:44:34 2023 GMT
            Not After : Oct 19 10:44:34 2026 GMT
        Subject: CN=team211-server
        Subject Public Key Info:
            Public Key Algorithm: rsaEncryption
                Public-Key: (2048 bit)
                Modulus:
                    00:d5:4b:1b:f1:08:3e:36:11:9f:de:47:2d:ae:dc:
                    23:81:f3:f1:18:fa:ce:01:1b:0c:8d:98:e5:44:da:
                    58:3a:99:8e:b3:a4:1d:a1:bb:0b:82:9d:fd:62:8a:
                    d9:27:62:8c:af:a9:a5:fb:a3:d7:db:a7:dd:00:7e:
                    9a:d0:d7:6d:99:e3:36:53:07:e2:c9:a0:79:4b:07:
                    a0:4a:77:b0:a0:dc:1a:2a:5a:1c:76:fe:94:aa:ed:
                    ea:77:df:69:aa:98:ee:b4:4d:fc:0c:ea:8f:8b:a8:
                    e5:93:7a:93:2c:78:9c:d2:6f:1f:e1:fa:37:8a:35:
                    7a:81:54:17:95:96:88:29:c4:43:c9:fe:c9:62:2d:
                    b6:66:96:90:ab:35:fa:14:0d:51:36:7b:c0:ff:a1:
                    8c:e5:79:6a:9b:dc:8c:a5:ce:e3:61:4e:f9:44:1c:
                    9e:bf:3c:51:e9:84:07:df:4f:ff:4e:df:71:df:f6:
                    b2:3f:49:8a:85:12:3c:19:e9:ee:ac:1f:23:00:27:
                    52:fa:48:9c:0f:2a:11:c9:e1:06:33:3b:28:40:f9:
                    56:29:da:90:8b:e3:26:14:cd:19:65:8c:46:1c:00:
                    b3:e1:21:bd:fa:ea:92:3f:b7:1b:e1:f6:e7:95:13:
                    ad:cd:a9:7d:8d:29:e2:92:52:73:ff:82:50:d6:59:
                    c0:71
                Exponent: 65537 (0x10001)
        X509v3 extensions:
            X509v3 Basic Constraints: 
                CA:FALSE
            X509v3 Subject Key Identifier: 
                E3:CE:B3:8E:8D:4A:10:62:3D:18:85:6B:F4:19:37:B7:68:21:C4:B7
            X509v3 Authority Key Identifier: 
                keyid:69:0E:30:F0:4E:BC:52:38:97:A8:01:2B:A5:D7:35:11:A6:E9:2F:7D
                DirName:/CN=team211-net
                serial:25:63:45:EA:5D:88:73:09:34:9A:6B:4C:36:72:B3:17:6D:BF:35:06
            X509v3 Extended Key Usage: 
                TLS Web Server Authentication
            X509v3 Key Usage: 
                Digital Signature, Key Encipherment
            X509v3 Subject Alternative Name: 
                DNS:team211-server
    Signature Algorithm: sha256WithRSAEncryption
    Signature Value:
        51:be:28:28:a0:23:f3:b0:d4:08:0a:a1:22:d7:b9:3f:56:df:
        56:61:6d:98:d4:9b:27:cc:7f:ed:9b:b2:71:d3:d3:3a:08:ef:
        29:d9:ca:2d:b3:3e:57:6a:ee:2f:7f:86:1b:63:00:e4:a5:d3:
        25:6c:59:d7:de:bc:b3:d1:96:7d:71:a6:3e:c3:6f:78:09:89:
        57:d5:1f:47:bd:cf:0c:a4:69:12:ba:14:69:db:15:16:6e:3f:
        32:38:e5:94:76:8e:33:fe:80:fb:f6:6c:11:28:4f:f9:17:bb:
        1a:ea:d4:6b:04:86:38:32:d4:bf:34:90:41:a8:4f:74:a1:1a:
        8f:17:3e:be:ce:15:5f:23:ea:13:fb:b3:66:1e:0f:51:42:01:
        66:a5:d0:49:68:34:ef:cb:fb:47:58:62:06:75:7f:4f:11:15:
        ee:8e:7a:30:5f:59:91:f9:71:92:7b:fa:aa:f6:fe:3f:3a:15:
        13:05:3d:89:ab:fd:ad:29:3b:fc:78:98:7f:11:88:03:9a:7e:
        74:6d:69:7a:a0:6c:0f:e2:2b:f6:57:78:9b:31:2e:13:d0:91:
        be:46:4c:d9:3b:93:f4:28:33:42:5e:67:c0:25:23:2b:fe:90:
        47:1f:3d:14:ec:12:cc:c7:ba:7a:41:f8:4f:5a:9c:0c:eb:fd:
        ec:58:4b:8e
-----BEGIN CERTIFICATE-----
MIIDeDCCAmCgAwIBAgIRALpTj4HmE5a52SogGbsMD2IwDQYJKoZIhvcNAQELBQAw
FjEUMBIGA1UEAwwLdGVhbTIxMS1uZXQwHhcNMjMxMTA0MTA0NDM0WhcNMjYxMDE5
MTA0NDM0WjAZMRcwFQYDVQQDDA50ZWFtMjExLXNlcnZlcjCCASIwDQYJKoZIhvcN
AQEBBQADggEPADCCAQoCggEBANVLG/EIPjYRn95HLa7cI4Hz8Rj6zgEbDI2Y5UTa
WDqZjrOkHaG7C4Kd/WKK2SdijK+ppfuj19un3QB+mtDXbZnjNlMH4smgeUsHoEp3
sKDcGipaHHb+lKrt6nffaaqY7rRN/Azqj4uo5ZN6kyx4nNJvH+H6N4o1eoFUF5WW
iCnEQ8n+yWIttmaWkKs1+hQNUTZ7wP+hjOV5apvcjKXO42FO+UQcnr88UemEB99P
/07fcd/2sj9JioUSPBnp7qwfIwAnUvpInA8qEcnhBjM7KED5VinakIvjJhTNGWWM
RhwAs+Ehvfrqkj+3G+H255UTrc2pfY0p4pJSc/+CUNZZwHECAwEAAaOBvTCBujAJ
BgNVHRMEAjAAMB0GA1UdDgQWBBTjzrOOjUoQYj0YhWv0GTe3aCHEtzBRBgNVHSME
SjBIgBRpDjDwTrxSOJeoASul1zURpukvfaEapBgwFjEUMBIGA1UEAwwLdGVhbTIx
MS1uZXSCFCVjRepdiHMJNJprTDZysxdtvzUGMBMGA1UdJQQMMAoGCCsGAQUFBwMB
MAsGA1UdDwQEAwIFoDAZBgNVHREEEjAQgg50ZWFtMjExLXNlcnZlcjANBgkqhkiG
9w0BAQsFAAOCAQEAUb4oKKAj87DUCAqhIte5P1bfVmFtmNSbJ8x/7ZuycdPTOgjv
KdnKLbM+V2ruL3+GG2MA5KXTJWxZ1968s9GWfXGmPsNveAmJV9UfR73PDKRpEroU
adsVFm4/MjjllHaOM/6A+/ZsEShP+Re7GurUawSGODLUvzSQQahPdKEajxc+vs4V
XyPqE/uzZh4PUUIBZqXQSWg078v7R1hiBnV/TxEV7o56MF9Zkflxknv6qvb+PzoV
EwU9iav9rSk7/HiYfxGIA5p+dG1peqBsD+Ir9ld4mzEuE9CRvkZM2TuT9CgzQl5n
wCUjK/6QRx89FOwSzMe6ekH4T1qcDOv97FhLjg==
-----END CERTIFICATE-----
