Certificate:
    Data:
        Version: 3 (0x2)
        Serial Number:
            ee:60:41:6d:13:34:bf:c7:30:c4:82:7c:6e:c7:a6:6b
        Signature Algorithm: sha256WithRSAEncryption
        Issuer: CN=team211-net
        Validity
            Not Before: Nov  4 10:44:34 2023 GMT
            Not After : Oct 19 10:44:34 2026 GMT
        Subject: CN=team211-client
        Subject Public Key Info:
            Public Key Algorithm: rsaEncryption
                Public-Key: (2048 bit)
                Modulus:
                    00:a5:4f:29:ac:b6:ac:a1:e8:b5:bd:ee:72:a9:ab:
                    1b:3b:83:62:e5:a3:89:b9:7a:83:e5:60:5b:97:1c:
                    33:39:a1:03:4b:99:21:9c:d8:64:d1:c2:9f:1f:57:
                    0a:31:ca:41:c5:97:72:37:7d:e9:07:4d:f4:a7:92:
                    d4:a0:b1:90:76:de:41:dc:7a:1f:21:66:56:63:3d:
                    0e:a6:0d:64:57:79:83:ef:61:5a:a5:e3:0e:a5:7e:
                    3d:ce:d2:30:72:77:7e:72:8d:ed:e0:b4:06:8f:06:
                    b1:f3:b5:62:f3:20:3e:60:9d:2d:93:aa:63:1f:7e:
                    50:c3:02:f6:dc:0e:17:91:dc:ed:59:03:c6:38:49:
                    d7:d2:91:ba:38:cd:d4:a3:5e:c1:c4:8f:c6:40:5a:
                    c1:b4:2b:36:95:b4:03:65:59:b8:94:3d:99:02:a0:
                    38:04:2d:e1:8a:e3:36:8d:d2:9b:2c:a0:40:ad:9f:
                    f0:7d:4e:b0:46:60:d3:cf:d7:ef:58:94:b3:d9:1b:
                    1b:0d:63:69:c9:25:6b:08:2f:20:80:96:08:e9:d3:
                    f7:02:29:02:3c:65:49:5b:6a:59:ae:73:80:8e:dd:
                    45:fe:e1:27:52:95:6e:0d:c0:c4:fa:74:a7:11:f2:
                    83:0e:e1:36:7a:01:7b:66:ce:20:62:12:0a:f1:34:
                    44:f1
                Exponent: 65537 (0x10001)
        X509v3 extensions:
            X509v3 Basic Constraints: 
                CA:FALSE
            X509v3 Subject Key Identifier: 
                D7:45:58:5D:6A:4C:F2:B8:E4:BD:31:B6:D5:37:71:4C:CF:52:76:F9
            X509v3 Authority Key Identifier: 
                keyid:69:0E:30:F0:4E:BC:52:38:97:A8:01:2B:A5:D7:35:11:A6:E9:2F:7D
                DirName:/CN=team211-net
                serial:25:63:45:EA:5D:88:73:09:34:9A:6B:4C:36:72:B3:17:6D:BF:35:06
            X509v3 Extended Key Usage: 
                TLS Web Client Authentication
            X509v3 Key Usage: 
                Digital Signature
    Signature Algorithm: sha256WithRSAEncryption
    Signature Value:
        2a:c3:7c:e8:fe:a8:fe:13:e9:4d:5c:2a:88:1f:58:50:63:6b:
        f6:25:0c:f7:87:e6:1d:89:1f:da:55:53:12:cc:4b:9d:9e:e1:
        fe:22:69:39:39:88:cb:89:b9:9c:14:bd:1f:95:78:41:47:f5:
        c5:c6:de:ae:96:71:a6:4e:b2:8e:3c:57:78:5a:e9:43:51:e6:
        08:94:8a:ed:df:8a:85:df:ec:44:32:e6:44:e6:43:73:1a:c2:
        c5:be:83:68:1f:04:9a:98:d2:6b:1f:ca:b4:1f:ae:62:da:6a:
        d4:3f:99:6c:2c:2b:5c:01:83:66:50:10:9c:1b:77:12:53:03:
        fd:18:9c:cd:21:33:b8:6f:84:49:80:cc:96:43:f8:ef:71:c7:
        e6:0f:cc:e4:91:ad:08:7c:5e:09:76:88:e3:b1:33:d0:55:60:
        f3:e4:aa:97:0e:a7:7f:0f:c6:e8:16:9d:08:20:be:54:04:82:
        6f:8a:d2:45:0f:08:fd:ad:7f:52:39:43:cf:78:97:e8:07:34:
        c4:54:ae:6c:6f:ba:ca:4f:64:f9:3c:a7:47:60:aa:ff:ed:65:
        05:64:e1:eb:94:3d:c5:26:4b:02:71:ca:93:03:8b:9b:d5:b1:
        1f:14:12:a2:ce:24:a2:17:e6:af:b6:c7:55:39:db:79:c2:36:
        70:85:9a:9e
-----BEGIN CERTIFICATE-----
MIIDXTCCAkWgAwIBAgIRAO5gQW0TNL/HMMSCfG7HpmswDQYJKoZIhvcNAQELBQAw
FjEUMBIGA1UEAwwLdGVhbTIxMS1uZXQwHhcNMjMxMTA0MTA0NDM0WhcNMjYxMDE5
MTA0NDM0WjAZMRcwFQYDVQQDDA50ZWFtMjExLWNsaWVudDCCASIwDQYJKoZIhvcN
AQEBBQADggEPADCCAQoCggEBAKVPKay2rKHotb3ucqmrGzuDYuWjibl6g+VgW5cc
MzmhA0uZIZzYZNHCnx9XCjHKQcWXcjd96QdN9KeS1KCxkHbeQdx6HyFmVmM9DqYN
ZFd5g+9hWqXjDqV+Pc7SMHJ3fnKN7eC0Bo8GsfO1YvMgPmCdLZOqYx9+UMMC9twO
F5Hc7VkDxjhJ19KRujjN1KNewcSPxkBawbQrNpW0A2VZuJQ9mQKgOAQt4YrjNo3S
myygQK2f8H1OsEZg08/X71iUs9kbGw1jacklawgvIICWCOnT9wIpAjxlSVtqWa5z
gI7dRf7hJ1KVbg3AxPp0pxHygw7hNnoBe2bOIGISCvE0RPECAwEAAaOBojCBnzAJ
BgNVHRMEAjAAMB0GA1UdDgQWBBTXRVhdakzyuOS9MbbVN3FMz1J2+TBRBgNVHSME
SjBIgBRpDjDwTrxSOJeoASul1zURpukvfaEapBgwFjEUMBIGA1UEAwwLdGVhbTIx
MS1uZXSCFCVjRepdiHMJNJprTDZysxdtvzUGMBMGA1UdJQQMMAoGCCsGAQUFBwMC
MAsGA1UdDwQEAwIHgDANBgkqhkiG9w0BAQsFAAOCAQEAKsN86P6o/hPpTVwqiB9Y
UGNr9iUM94fmHYkf2lVTEsxLnZ7h/iJpOTmIy4m5nBS9H5V4QUf1xcberpZxpk6y
jjxXeFrpQ1HmCJSK7d+Khd/sRDLmROZDcxrCxb6DaB8EmpjSax/KtB+uYtpq1D+Z
bCwrXAGDZlAQnBt3ElMD/RiczSEzuG+ESYDMlkP473HH5g/M5JGtCHxeCXaI47Ez
0FVg8+Sqlw6nfw/G6BadCCC+VASCb4rSRQ8I/a1/UjlDz3iX6Ac0xFSubG+6yk9k
+TynR2Cq/+1lBWTh65Q9xSZLAnHKkwOLm9WxHxQSos4kohfmr7bHVTnbecI2cIWa
ng==
-----END CERTIFICATE-----
