Certificate:
    Data:
        Version: 3 (0x2)
        Serial Number:
            16:c7:89:eb:6d:b4:0d:72:4b:1b:d9:b9:8a:e6:95:9c
        Signature Algorithm: sha256WithRSAEncryption
        Issuer: CN=team236-net
        Validity
            Not Before: Nov  4 11:32:13 2023 GMT
            Not After : Oct 19 11:32:13 2026 GMT
        Subject: CN=team236-client
        Subject Public Key Info:
            Public Key Algorithm: rsaEncryption
                Public-Key: (2048 bit)
                Modulus:
                    00:d9:16:4b:29:f7:c0:d9:78:b4:6b:1e:41:f4:d0:
                    ee:ad:8b:33:87:ec:31:93:7e:fa:8a:95:51:17:c1:
                    d5:1f:2e:f8:c1:f4:5b:0a:e1:6f:1e:c9:d8:64:bc:
                    e3:74:d2:33:e5:d7:8a:0e:ba:eb:0b:3d:7e:8c:7c:
                    7f:ce:bb:a4:f2:00:9e:dd:b2:7d:64:8c:f2:b7:98:
                    ed:67:3a:4d:a3:a0:65:7b:9f:0c:2a:d6:dc:79:63:
                    7e:ef:35:5b:b9:9c:34:ef:4b:71:ed:f4:31:0d:a5:
                    df:81:cb:2f:bb:af:fa:da:59:20:f2:51:6e:0d:5b:
                    b2:db:70:f9:f9:f8:59:60:c1:c9:32:52:e6:2a:2e:
                    bb:40:b1:99:af:7c:30:27:d3:68:b4:45:1a:ef:44:
                    3c:68:a4:98:06:a9:c7:03:0e:dc:77:5f:4b:98:1c:
                    72:cb:42:89:64:41:d4:7c:65:82:a7:2c:13:d4:ec:
                    c4:2e:f4:e7:98:2a:22:3b:2b:59:ae:a4:db:41:da:
                    3c:41:4f:ce:ef:a7:54:1f:36:12:2d:f8:c5:d1:98:
                    10:af:dc:ab:e6:13:bb:de:35:13:b3:0c:3e:e6:f0:
                    b8:c5:c1:2d:da:51:58:85:1f:9c:f0:4e:01:af:29:
                    16:db:35:2c:a3:4f:d1:69:37:49:a3:94:53:b9:c3:
                    9d:a5
                Exponent: 65537 (0x10001)
        X509v3 extensions:
            X509v3 Basic Constraints: 
                CA:FALSE
            X509v3 Subject Key Identifier: 
                8C:C9:5D:50:EA:2C:F9:C7:3B:17:1D:2E:21:2F:A3:FD:E7:9C:15:04
            X509v3 Authority Key Identifier: 
                keyid:98:43:67:31:E1:0F:B9:D9:F7:DC:B4:15:8E:6F:0F:0B:DC:08:49:F6
                DirName:/CN=team236-net
                serial:0D:3A:29:38:F7:55:83:7E:78:B1:A1:13:6E:A9:76:D6:56:9F:FD:EF
            X509v3 Extended Key Usage: 
                TLS Web Client Authentication
            X509v3 Key Usage: 
                Digital Signature
    Signature Algorithm: sha256WithRSAEncryption
    Signature Value:
        4b:a1:ba:ff:b2:e8:53:c9:81:76:16:3c:07:ad:f6:4c:24:12:
        5d:95:00:5f:33:81:9b:2b:a4:e4:f4:de:dd:89:05:30:1c:e3:
        ef:73:3b:2f:06:3f:2c:5b:c3:a3:6d:85:2a:43:0b:2b:53:f8:
        be:a7:5a:fb:12:e4:b8:25:a1:bd:8a:ef:17:bd:13:3d:fd:2f:
        05:da:13:d3:5a:9e:c8:cb:42:5e:0d:3d:2f:f5:44:00:2c:0d:
        5a:76:8a:cd:b7:d5:a2:4c:e5:a3:21:cf:c5:14:99:ee:70:b8:
        a2:ed:d7:62:12:bc:27:91:8c:d0:e1:ab:37:03:ed:8a:78:44:
        17:20:a3:ad:a9:01:a8:1c:13:f1:6b:89:86:6f:81:21:a8:cf:
        fc:e3:a3:df:83:d3:8f:c2:af:4c:1a:a7:e3:ea:4e:3d:49:dc:
        29:0e:f5:44:25:61:31:47:1c:b6:11:99:60:53:e6:6c:de:a9:
        e8:62:62:16:70:13:9d:bc:c8:86:47:e4:d5:c1:73:62:e4:ca:
        8a:ec:74:c0:54:5d:65:80:f5:3c:22:e5:72:d8:5c:6d:42:e4:
        4b:ff:86:8c:c0:87:52:8d:7c:46:59:12:7f:17:8b:35:a0:6e:
        26:4a:0e:64:96:df:5b:c7:32:24:09:21:5a:1a:20:a4:80:89:
        03:04:a7:9c
-----BEGIN CERTIFICATE-----
MIIDXDCCAkSgAwIBAgIQFseJ6220DXJLG9m5iuaVnDANBgkqhkiG9w0BAQsFADAW
MRQwEgYDVQQDDAt0ZWFtMjM2LW5ldDAeFw0yMzExMDQxMTMyMTNaFw0yNjEwMTkx
MTMyMTNaMBkxFzAVBgNVBAMMDnRlYW0yMzYtY2xpZW50MIIBIjANBgkqhkiG9w0B
AQEFAAOCAQ8AMIIBCgKCAQEA2RZLKffA2Xi0ax5B9NDurYszh+wxk376ipVRF8HV
Hy74wfRbCuFvHsnYZLzjdNIz5deKDrrrCz1+jHx/zruk8gCe3bJ9ZIzyt5jtZzpN
o6Ble58MKtbceWN+7zVbuZw070tx7fQxDaXfgcsvu6/62lkg8lFuDVuy23D5+fhZ
YMHJMlLmKi67QLGZr3wwJ9NotEUa70Q8aKSYBqnHAw7cd19LmBxyy0KJZEHUfGWC
pywT1OzELvTnmCoiOytZrqTbQdo8QU/O76dUHzYSLfjF0ZgQr9yr5hO73jUTsww+
5vC4xcEt2lFYhR+c8E4BrykW2zUso0/RaTdJo5RTucOdpQIDAQABo4GiMIGfMAkG
A1UdEwQCMAAwHQYDVR0OBBYEFIzJXVDqLPnHOxcdLiEvo/3nnBUEMFEGA1UdIwRK
MEiAFJhDZzHhD7nZ99y0FY5vDwvcCEn2oRqkGDAWMRQwEgYDVQQDDAt0ZWFtMjM2
LW5ldIIUDTopOPdVg354saETbql21laf/e8wEwYDVR0lBAwwCgYIKwYBBQUHAwIw
CwYDVR0PBAQDAgeAMA0GCSqGSIb3DQEBCwUAA4IBAQBLobr/suhTyYF2FjwHrfZM
JBJdlQBfM4GbK6Tk9N7diQUwHOPvczsvBj8sW8OjbYUqQwsrU/i+p1r7EuS4JaG9
iu8XvRM9/S8F2hPTWp7Iy0JeDT0v9UQALA1adorNt9WiTOWjIc/FFJnucLii7ddi
ErwnkYzQ4as3A+2KeEQXIKOtqQGoHBPxa4mGb4EhqM/846Pfg9OPwq9MGqfj6k49
SdwpDvVEJWExRxy2EZlgU+Zs3qnoYmIWcBOdvMiGR+TVwXNi5MqK7HTAVF1lgPU8
IuVy2FxtQuRL/4aMwIdSjXxGWRJ/F4s1oG4mSg5klt9bxzIkCSFaGiCkgIkDBKec
-----END CERTIFICATE-----
