Certificate:
    Data:
        Version: 3 (0x2)
        Serial Number:
            60:7a:55:f3:69:5f:72:a0:87:f5:99:24:dd:4b:20:20
        Signature Algorithm: sha256WithRSAEncryption
        Issuer: CN=team236-net
        Validity
            Not Before: Nov  4 11:32:14 2023 GMT
            Not After : Oct 19 11:32:14 2026 GMT
        Subject: CN=team236-server
        Subject Public Key Info:
            Public Key Algorithm: rsaEncryption
                Public-Key: (2048 bit)
                Modulus:
                    00:96:c8:4a:ee:e7:8d:a1:98:51:04:02:ca:d4:28:
                    03:7b:c3:58:1e:34:d1:fa:42:69:3d:a8:d1:ec:31:
                    3c:fc:39:8a:8f:b2:36:a6:fb:68:3d:11:82:73:1a:
                    0f:0e:d4:e9:ee:60:17:9d:75:4b:38:95:c9:c8:9e:
                    e7:6b:b2:97:a1:82:2b:a7:e2:16:bb:2e:65:43:5c:
                    95:ca:91:2c:05:f0:7e:5f:03:63:2a:ae:8e:0a:f7:
                    e9:f6:04:18:5a:f2:4d:e6:d9:fb:57:6a:e3:71:3f:
                    72:c0:67:80:5f:8b:6f:18:93:e8:58:17:8b:f3:ac:
                    02:42:22:2a:f3:5b:93:51:1b:14:f3:9f:79:29:d6:
                    a3:58:60:4c:7c:a7:58:b3:f0:93:10:69:6f:74:05:
                    e3:cc:da:ad:12:99:70:d0:72:68:bb:2f:00:01:c9:
                    3f:be:94:67:60:9a:d5:97:ab:f9:ee:01:45:66:b7:
                    f4:47:d7:51:09:56:67:66:dc:1f:8c:20:62:fc:b3:
                    c3:7e:bd:d8:30:c6:3a:83:c0:2a:b6:01:55:d0:04:
                    71:7f:10:23:10:06:56:f1:e1:54:45:5c:c3:4d:9f:
                    92:b3:d9:6c:31:f8:b1:87:73:dc:24:19:fd:b1:ce:
                    5d:05:93:cf:cd:2b:91:6b:66:d8:c9:62:ff:b7:35:
                    79:7b
                Exponent: 65537 (0x10001)
        X509v3 extensions:
            X509v3 Basic Constraints: 
                CA:FALSE
            X509v3 Subject Key Identifier: 
                00:4D:E8:DA:03:76:97:74:81:23:EC:90:E6:A0:92:D7:93:00:71:71
            X509v3 Authority Key Identifier: 
                keyid:98:43:67:31:E1:0F:B9:D9:F7:DC:B4:15:8E:6F:0F:0B:DC:08:49:F6
                DirName:/CN=team236-net
                serial:0D:3A:29:38:F7:55:83:7E:78:B1:A1:13:6E:A9:76:D6:56:9F:FD:EF
            X509v3 Extended Key Usage: 
                TLS Web Server Authentication
            X509v3 Key Usage: 
                Digital Signature, Key Encipherment
            X509v3 Subject Alternative Name: 
                DNS:team236-server
    Signature Algorithm: sha256WithRSAEncryption
    Signature Value:
        92:f2:e8:ef:2f:cc:98:49:08:0d:ae:57:5b:04:1f:e6:f5:f6:
        2d:b3:cd:01:df:4e:8b:f7:cf:ec:f0:a5:10:00:80:89:03:56:
        8f:5d:77:31:c6:fc:99:65:91:a3:2d:db:46:26:c2:64:24:ad:
        f5:3f:62:10:79:67:79:ba:57:2f:5b:e9:ed:19:6c:c7:f3:97:
        09:5e:3c:d1:11:a1:8f:88:2d:27:9e:e6:de:25:07:04:bb:1b:
        92:f9:92:71:38:6a:f7:1c:18:23:eb:13:05:89:1b:18:13:35:
        8b:a5:b5:c6:c4:65:42:8a:40:b2:39:7c:0d:7b:4b:2e:b1:46:
        ee:a2:72:09:1b:1c:e0:69:86:3c:c7:4f:fb:08:11:b5:33:1a:
        d6:1a:24:19:85:c1:08:b4:f8:2e:19:62:e0:e7:94:59:01:f8:
        f3:78:ea:cb:0e:21:32:3c:6b:86:8b:83:aa:89:7a:2a:2d:3c:
        39:f9:e2:ca:0e:3d:0d:18:4b:06:cc:2e:86:32:d9:08:de:02:
        d9:2a:d4:9d:a3:7c:c5:86:9e:dc:b8:c5:f3:c2:a8:51:cd:5b:
        1c:18:53:19:02:f8:8a:f1:0a:74:c2:48:a4:ef:aa:9c:23:db:
        1f:35:b5:d7:50:b3:11:b9:6c:32:f1:9f:8f:f9:b2:77:ca:78:
        19:d1:ea:17
-----BEGIN CERTIFICATE-----
MIIDdzCCAl+gAwIBAgIQYHpV82lfcqCH9Zkk3UsgIDANBgkqhkiG9w0BAQsFADAW
MRQwEgYDVQQDDAt0ZWFtMjM2LW5ldDAeFw0yMzExMDQxMTMyMTRaFw0yNjEwMTkx
MTMyMTRaMBkxFzAVBgNVBAMMDnRlYW0yMzYtc2VydmVyMIIBIjANBgkqhkiG9w0B
AQEFAAOCAQ8AMIIBCgKCAQEAlshK7ueNoZhRBALK1CgDe8NYHjTR+kJpPajR7DE8
/DmKj7I2pvtoPRGCcxoPDtTp7mAXnXVLOJXJyJ7na7KXoYIrp+IWuy5lQ1yVypEs
BfB+XwNjKq6OCvfp9gQYWvJN5tn7V2rjcT9ywGeAX4tvGJPoWBeL86wCQiIq81uT
URsU8595KdajWGBMfKdYs/CTEGlvdAXjzNqtEplw0HJouy8AAck/vpRnYJrVl6v5
7gFFZrf0R9dRCVZnZtwfjCBi/LPDfr3YMMY6g8AqtgFV0ARxfxAjEAZW8eFURVzD
TZ+Ss9lsMfixh3PcJBn9sc5dBZPPzSuRa2bYyWL/tzV5ewIDAQABo4G9MIG6MAkG
A1UdEwQCMAAwHQYDVR0OBBYEFABN6NoDdpd0gSPskOagkteTAHFxMFEGA1UdIwRK
MEiAFJhDZzHhD7nZ99y0FY5vDwvcCEn2oRqkGDAWMRQwEgYDVQQDDAt0ZWFtMjM2
LW5ldIIUDTopOPdVg354saETbql21laf/e8wEwYDVR0lBAwwCgYIKwYBBQUHAwEw
CwYDVR0PBAQDAgWgMBkGA1UdEQQSMBCCDnRlYW0yMzYtc2VydmVyMA0GCSqGSIb3
DQEBCwUAA4IBAQCS8ujvL8yYSQgNrldbBB/m9fYts80B306L98/s8KUQAICJA1aP
XXcxxvyZZZGjLdtGJsJkJK31P2IQeWd5ulcvW+ntGWzH85cJXjzREaGPiC0nnube
JQcEuxuS+ZJxOGr3HBgj6xMFiRsYEzWLpbXGxGVCikCyOXwNe0susUbuonIJGxzg
aYY8x0/7CBG1MxrWGiQZhcEItPguGWLg55RZAfjzeOrLDiEyPGuGi4OqiXoqLTw5
+eLKDj0NGEsGzC6GMtkI3gLZKtSdo3zFhp7cuMXzwqhRzVscGFMZAviK8Qp0wkik
76qcI9sfNbXXULMRuWwy8Z+P+bJ3yngZ0eoX
-----END CERTIFICATE-----
