Certificate:
    Data:
        Version: 3 (0x2)
        Serial Number:
            ca:cf:88:d3:e0:ed:92:aa:9e:ed:2f:ca:ba:21:af:6b
        Signature Algorithm: sha256WithRSAEncryption
        Issuer: CN=team236-net
        Validity
            Not Before: Nov  4 10:45:03 2023 GMT
            Not After : Oct 19 10:45:03 2026 GMT
        Subject: CN=team236-client
        Subject Public Key Info:
            Public Key Algorithm: rsaEncryption
                Public-Key: (2048 bit)
                Modulus:
                    00:ca:78:7d:b9:7b:f7:14:eb:f7:61:20:cc:b1:78:
                    34:bc:20:c6:d7:fa:67:3f:18:54:76:06:65:d1:e5:
                    9f:e2:56:1f:75:7a:88:70:c7:1c:04:b6:08:8f:d3:
                    ad:71:8c:39:c1:ea:9a:50:5a:68:a6:2c:d6:7f:17:
                    37:21:8b:eb:71:3b:9a:39:76:11:23:d1:ce:d4:06:
                    2b:66:f6:80:db:43:3c:bf:65:17:e5:0a:ed:92:2e:
                    44:ae:b1:38:e8:f3:cb:a5:c6:3c:d3:f6:3f:a0:dd:
                    33:c7:fa:8c:67:ff:33:e1:96:99:74:34:f9:81:c8:
                    2d:b4:aa:aa:15:87:17:e0:db:74:12:02:1e:6d:23:
                    90:8d:5a:61:bc:79:58:22:54:b1:8f:f5:73:59:63:
                    89:fd:fe:e1:9c:e7:af:a8:3a:93:46:a6:14:c4:72:
                    6f:6f:36:22:70:ee:08:8d:ca:5d:e8:94:e6:5b:8d:
                    e3:ec:a7:4c:ad:20:4d:34:81:dc:1c:63:1a:17:fa:
                    93:b4:ef:51:a1:33:f0:75:06:45:09:48:3a:02:f8:
                    44:33:3a:cc:ab:e6:54:53:92:87:eb:89:4d:f7:db:
                    c8:5f:49:73:16:1b:b2:ec:a8:1f:e0:bc:bc:39:64:
                    cd:57:07:2b:94:b9:ff:21:47:19:ac:a3:97:28:73:
                    48:a1
                Exponent: 65537 (0x10001)
        X509v3 extensions:
            X509v3 Basic Constraints: 
                CA:FALSE
            X509v3 Subject Key Identifier: 
                66:D2:97:E3:95:F6:79:A5:26:A9:F6:B3:A7:A2:81:BE:8C:7B:C0:C4
            X509v3 Authority Key Identifier: 
                keyid:DB:5F:4F:7D:7C:DE:FE:DE:52:74:BC:79:82:AF:A0:CD:AC:88:0A:93
                DirName:/CN=team236-net
                serial:2C:B6:F4:86:DE:39:B7:D0:32:16:14:62:8E:EB:51:EF:E1:28:69:8E
            X509v3 Extended Key Usage: 
                TLS Web Client Authentication
            X509v3 Key Usage: 
                Digital Signature
    Signature Algorithm: sha256WithRSAEncryption
    Signature Value:
        17:26:f6:72:23:86:90:a3:b8:2a:ba:c4:36:e3:62:f0:0c:d4:
        61:42:de:b7:ed:01:f6:91:06:94:ce:fc:11:16:04:ef:7f:d7:
        4c:dd:65:65:7a:63:b6:1e:54:f8:31:21:fa:8a:e8:f8:23:62:
        a1:8d:01:7a:03:4b:bc:89:22:30:35:8f:0e:f3:f6:c1:4c:56:
        52:c5:b9:21:bb:8a:4f:84:99:ff:5e:33:b5:a4:96:d2:77:b7:
        c8:5c:39:43:8d:39:85:f5:f5:54:43:b6:59:b8:ea:26:b1:b0:
        98:51:01:51:cd:ab:9e:b3:fe:7d:13:95:b5:8c:95:3a:af:fb:
        69:12:02:e5:f3:3b:da:e3:aa:34:ab:0e:8f:ed:cd:24:0f:af:
        7e:a2:22:cf:80:79:89:d3:d3:47:1c:be:e4:f3:6d:6b:68:7e:
        f0:42:1c:de:88:c5:7c:30:7a:23:67:c0:e3:f6:1a:1b:b1:ec:
        4a:03:52:b1:88:c2:16:44:50:34:77:72:47:bb:b5:7a:58:04:
        13:47:c6:b9:56:04:df:32:5d:f8:76:ef:72:c4:b1:c2:bf:aa:
        61:86:06:33:1d:97:f6:69:31:48:7a:d4:e7:88:cb:c6:27:4b:
        bf:c2:c8:a2:86:10:ca:eb:66:4c:41:62:6f:4d:8a:a5:7a:5f:
        16:7f:fa:cd
-----BEGIN CERTIFICATE-----
MIIDXTCCAkWgAwIBAgIRAMrPiNPg7ZKqnu0vyrohr2swDQYJKoZIhvcNAQELBQAw
FjEUMBIGA1UEAwwLdGVhbTIzNi1uZXQwHhcNMjMxMTA0MTA0NTAzWhcNMjYxMDE5
MTA0NTAzWjAZMRcwFQYDVQQDDA50ZWFtMjM2LWNsaWVudDCCASIwDQYJKoZIhvcN
AQEBBQADggEPADCCAQoCggEBAMp4fbl79xTr92EgzLF4NLwgxtf6Zz8YVHYGZdHl
n+JWH3V6iHDHHAS2CI/TrXGMOcHqmlBaaKYs1n8XNyGL63E7mjl2ESPRztQGK2b2
gNtDPL9lF+UK7ZIuRK6xOOjzy6XGPNP2P6DdM8f6jGf/M+GWmXQ0+YHILbSqqhWH
F+DbdBICHm0jkI1aYbx5WCJUsY/1c1ljif3+4Zznr6g6k0amFMRyb282InDuCI3K
XeiU5luN4+ynTK0gTTSB3BxjGhf6k7TvUaEz8HUGRQlIOgL4RDM6zKvmVFOSh+uJ
TffbyF9JcxYbsuyoH+C8vDlkzVcHK5S5/yFHGayjlyhzSKECAwEAAaOBojCBnzAJ
BgNVHRMEAjAAMB0GA1UdDgQWBBRm0pfjlfZ5pSap9rOnooG+jHvAxDBRBgNVHSME
SjBIgBTbX099fN7+3lJ0vHmCr6DNrIgKk6EapBgwFjEUMBIGA1UEAwwLdGVhbTIz
Ni1uZXSCFCy29IbeObfQMhYUYo7rUe/hKGmOMBMGA1UdJQQMMAoGCCsGAQUFBwMC
MAsGA1UdDwQEAwIHgDANBgkqhkiG9w0BAQsFAAOCAQEAFyb2ciOGkKO4KrrENuNi
8AzUYULet+0B9pEGlM78ERYE73/XTN1lZXpjth5U+DEh+oro+CNioY0BegNLvIki
MDWPDvP2wUxWUsW5IbuKT4SZ/14ztaSW0ne3yFw5Q405hfX1VEO2WbjqJrGwmFEB
Uc2rnrP+fROVtYyVOq/7aRIC5fM72uOqNKsOj+3NJA+vfqIiz4B5idPTRxy+5PNt
a2h+8EIc3ojFfDB6I2fA4/YaG7HsSgNSsYjCFkRQNHdyR7u1elgEE0fGuVYE3zJd
+HbvcsSxwr+qYYYGMx2X9mkxSHrU54jLxidLv8LIooYQyutmTEFib02KpXpfFn/6
zQ==
-----END CERTIFICATE-----
