Certificate:
    Data:
        Version: 3 (0x2)
        Serial Number:
            79:86:f0:cb:4b:21:a3:f2:c9:20:41:0e:2c:1d:39:65
        Signature Algorithm: sha256WithRSAEncryption
        Issuer: CN=team145-net
        Validity
            Not Before: Nov  3 20:41:49 2023 GMT
            Not After : Oct 18 20:41:49 2026 GMT
        Subject: CN=team145-client
        Subject Public Key Info:
            Public Key Algorithm: rsaEncryption
                Public-Key: (2048 bit)
                Modulus:
                    00:ac:95:30:c4:17:0e:23:f7:57:eb:66:ce:e0:e1:
                    a8:a1:e8:4f:27:41:71:0c:4e:92:82:55:2f:64:3c:
                    57:2f:61:09:1e:64:b4:a9:3c:91:91:f0:29:37:cd:
                    a9:fb:00:ae:55:16:ef:92:17:f0:59:65:53:9f:19:
                    b0:8f:09:bf:8d:74:82:cc:0c:15:85:d8:32:31:85:
                    43:d9:c6:dc:78:7d:d6:c7:78:8f:a3:33:9c:c4:dd:
                    40:95:7b:de:1b:80:3d:01:57:b0:c4:13:21:b1:8f:
                    20:cc:52:70:b5:00:fb:dc:4e:5d:92:65:71:a0:6b:
                    25:0a:8a:87:36:36:90:ac:3a:81:66:e8:75:7f:e5:
                    8c:71:4a:4e:b9:17:1a:dd:6a:c0:af:44:c0:86:cb:
                    df:2a:59:85:e0:6f:42:e1:3c:9a:c3:37:43:2a:89:
                    98:c3:a3:f0:41:a0:3e:d8:5f:b7:e1:8b:99:d2:24:
                    05:6c:0d:1a:af:16:b8:ef:31:e3:51:83:a0:16:92:
                    c3:cb:6a:59:b5:71:43:cf:f1:4c:f0:0b:82:a9:d4:
                    31:8c:01:5d:01:30:9c:9a:e1:f7:88:c6:ae:55:5e:
                    9c:df:31:93:c2:40:c3:ea:6d:4b:97:51:7f:27:e9:
                    a6:79:af:ad:c0:ca:e3:0c:ff:8d:23:a2:ee:5e:11:
                    43:cf
                Exponent: 65537 (0x10001)
        X509v3 extensions:
            X509v3 Basic Constraints: 
                CA:FALSE
            X509v3 Subject Key Identifier: 
                BA:E9:5D:BE:FB:6C:DE:A1:BC:38:FF:E9:8F:A4:DA:9C:74:85:2D:11
            X509v3 Authority Key Identifier: 
                keyid:AF:A9:38:DF:3F:21:27:21:70:45:E0:79:C5:19:1C:03:7B:7B:AD:88
                DirName:/CN=team145-net
                serial:47:5A:44:F2:EE:F6:10:49:A4:9E:4A:BB:0D:58:4B:B8:9A:3C:57:2C
            X509v3 Extended Key Usage: 
                TLS Web Client Authentication
            X509v3 Key Usage: 
                Digital Signature
    Signature Algorithm: sha256WithRSAEncryption
    Signature Value:
        27:e5:1c:da:da:8b:e6:5e:c3:6d:a1:d2:94:a2:e0:3d:8b:6d:
        b8:b6:34:48:0f:9d:51:1a:a0:ee:e1:d1:fe:ad:17:e9:2f:6c:
        e2:b3:9e:f4:8d:cb:0a:f4:30:f2:06:f1:bc:5e:70:a4:35:8e:
        76:13:42:cf:af:89:35:9b:47:2f:81:e2:b3:8c:d0:f0:3f:f2:
        77:70:19:2c:ba:ca:db:1a:4b:ee:c4:0c:e9:fd:47:4d:6b:ef:
        4e:87:bc:d5:5a:9d:a2:ac:7b:97:99:0f:a8:2c:d3:53:11:52:
        e8:c5:78:5b:e5:37:15:30:2b:87:45:33:5e:46:8f:f4:d7:18:
        dc:ba:67:d3:35:c9:54:2c:f1:ad:82:a7:49:bc:8f:ec:5d:11:
        b6:48:de:d5:cb:8f:b8:1b:1d:c7:05:36:c6:8f:60:28:a8:92:
        05:fc:61:ed:1a:3d:4b:8f:a1:96:96:b3:22:4a:56:f5:29:b9:
        5d:8d:d3:7f:8b:86:b5:ab:ee:2f:2c:42:12:e4:12:fe:d9:dc:
        30:09:84:94:f5:b9:df:aa:e9:6f:59:23:37:37:f3:cd:d7:4e:
        ee:6b:16:dc:66:7f:85:22:35:3d:97:be:3b:ae:e7:76:0f:71:
        03:7f:45:79:1e:5b:45:72:4b:dd:c3:dc:d5:2f:69:f2:ea:2c:
        7f:2a:6f:47
-----BEGIN CERTIFICATE-----
MIIDXDCCAkSgAwIBAgIQeYbwy0sho/LJIEEOLB05ZTANBgkqhkiG9w0BAQsFADAW
MRQwEgYDVQQDDAt0ZWFtMTQ1LW5ldDAeFw0yMzExMDMyMDQxNDlaFw0yNjEwMTgy
MDQxNDlaMBkxFzAVBgNVBAMMDnRlYW0xNDUtY2xpZW50MIIBIjANBgkqhkiG9w0B
AQEFAAOCAQ8AMIIBCgKCAQEArJUwxBcOI/dX62bO4OGooehPJ0FxDE6SglUvZDxX
L2EJHmS0qTyRkfApN82p+wCuVRbvkhfwWWVTnxmwjwm/jXSCzAwVhdgyMYVD2cbc
eH3Wx3iPozOcxN1AlXveG4A9AVewxBMhsY8gzFJwtQD73E5dkmVxoGslCoqHNjaQ
rDqBZuh1f+WMcUpOuRca3WrAr0TAhsvfKlmF4G9C4TyawzdDKomYw6PwQaA+2F+3
4YuZ0iQFbA0arxa47zHjUYOgFpLDy2pZtXFDz/FM8AuCqdQxjAFdATCcmuH3iMau
VV6c3zGTwkDD6m1Ll1F/J+mmea+twMrjDP+NI6LuXhFDzwIDAQABo4GiMIGfMAkG
A1UdEwQCMAAwHQYDVR0OBBYEFLrpXb77bN6hvDj/6Y+k2px0hS0RMFEGA1UdIwRK
MEiAFK+pON8/ISchcEXgecUZHAN7e62IoRqkGDAWMRQwEgYDVQQDDAt0ZWFtMTQ1
LW5ldIIUR1pE8u72EEmknkq7DVhLuJo8VywwEwYDVR0lBAwwCgYIKwYBBQUHAwIw
CwYDVR0PBAQDAgeAMA0GCSqGSIb3DQEBCwUAA4IBAQAn5Rza2ovmXsNtodKUouA9
i224tjRID51RGqDu4dH+rRfpL2zis570jcsK9DDyBvG8XnCkNY52E0LPr4k1m0cv
geKzjNDwP/J3cBksusrbGkvuxAzp/UdNa+9Oh7zVWp2irHuXmQ+oLNNTEVLoxXhb
5TcVMCuHRTNeRo/01xjcumfTNclULPGtgqdJvI/sXRG2SN7Vy4+4Gx3HBTbGj2Ao
qJIF/GHtGj1Lj6GWlrMiSlb1KbldjdN/i4a1q+4vLEIS5BL+2dwwCYSU9bnfqulv
WSM3N/PN107uaxbcZn+FIjU9l747rud2D3EDf0V5HltFckvdw9zVL2ny6ix/Km9H
-----END CERTIFICATE-----
