Certificate:
    Data:
        Version: 3 (0x2)
        Serial Number:
            12:c0:73:99:95:8b:c3:ec:a7:9f:80:33:2c:f6:67:6c
        Signature Algorithm: sha256WithRSAEncryption
        Issuer: CN=team332-net
        Validity
            Not Before: Nov  3 20:45:21 2023 GMT
            Not After : Oct 18 20:45:21 2026 GMT
        Subject: CN=team332-client
        Subject Public Key Info:
            Public Key Algorithm: rsaEncryption
                Public-Key: (2048 bit)
                Modulus:
                    00:a4:4d:b1:a5:69:2b:2a:99:84:f4:cb:e2:98:8b:
                    18:53:97:2a:8f:81:e1:1a:e0:51:92:c7:31:46:19:
                    fb:14:6b:fe:15:f1:64:65:51:58:5b:04:8d:ad:59:
                    6a:81:0a:d3:19:31:f2:15:ca:08:35:1f:ab:5c:7d:
                    ba:f8:cb:73:97:ca:eb:04:d7:bd:8a:b5:38:de:62:
                    62:f8:ba:21:5a:2f:e2:3b:9a:c7:ba:98:05:10:92:
                    11:17:fb:e5:1a:6a:5e:69:3f:18:68:66:b8:a7:27:
                    b7:59:58:10:a2:3c:d2:06:c4:d7:9d:e5:ab:6d:99:
                    6b:b9:f4:2c:ba:0a:23:b9:9f:67:34:c6:b1:dd:ab:
                    df:4e:45:a8:a3:4f:19:ac:36:f6:02:74:d0:5a:b6:
                    de:30:3d:5e:7d:dc:6f:27:df:3d:8b:77:ca:82:b3:
                    d1:73:02:73:b9:30:73:a8:fc:fd:18:bb:2f:25:ed:
                    70:dc:90:c4:a2:66:2d:71:65:7c:68:ac:58:54:2e:
                    48:ff:75:3e:a7:ca:c1:29:b5:61:93:f8:66:54:75:
                    6f:a2:75:a7:3b:4f:13:7f:0c:27:9f:a9:91:a7:0c:
                    0c:9e:9e:37:45:f8:34:22:92:7d:ce:2c:99:52:8a:
                    c3:6f:86:04:f9:1a:4d:5f:01:77:7b:a4:10:4a:49:
                    06:bd
                Exponent: 65537 (0x10001)
        X509v3 extensions:
            X509v3 Basic Constraints: 
                CA:FALSE
            X509v3 Subject Key Identifier: 
                B6:B1:45:E4:70:4F:4E:86:B7:CE:61:15:6F:BC:5D:D2:36:D1:8B:92
            X509v3 Authority Key Identifier: 
                keyid:F8:45:72:26:99:C1:03:63:52:6D:53:E5:97:7D:5B:52:1B:ED:EA:DA
                DirName:/CN=team332-net
                serial:03:70:77:C9:66:99:8F:5A:77:3A:40:D2:96:D7:03:78:38:F9:DA:A5
            X509v3 Extended Key Usage: 
                TLS Web Client Authentication
            X509v3 Key Usage: 
                Digital Signature
    Signature Algorithm: sha256WithRSAEncryption
    Signature Value:
        ad:0d:02:62:14:1e:60:c0:27:96:cd:1c:8a:4a:f1:7e:3d:d9:
        1b:67:25:b4:8f:d8:7d:e3:de:a7:7f:b7:4d:9e:f6:77:a0:3d:
        84:53:0f:23:61:c7:99:74:b8:d8:ee:41:92:bd:fb:94:63:77:
        07:45:3b:2b:8d:47:a6:77:68:90:61:df:e0:b5:a6:83:9a:dc:
        76:46:7d:7a:29:ee:b0:c5:de:a2:3f:6e:34:40:03:7f:83:c5:
        29:01:44:1f:92:72:b5:93:95:79:7a:c6:22:22:9f:f1:4f:64:
        64:d9:04:99:e3:42:f4:3a:55:d0:cf:db:7a:f0:82:68:37:89:
        13:25:86:c4:88:30:50:0b:98:19:a1:2b:45:9d:6d:b1:31:e2:
        b9:ff:21:9d:9c:01:6c:30:dd:4d:e1:22:d5:de:c3:e3:1c:be:
        db:f3:d3:13:e1:c0:42:28:02:46:59:ac:d7:6c:0e:51:3f:e8:
        d2:bf:2d:81:21:3d:88:47:d4:a5:bf:ad:75:e2:dc:50:7b:38:
        3a:45:e0:db:11:25:f7:b1:6f:f2:6e:3e:85:91:67:4f:2c:f9:
        82:2a:95:13:75:02:f2:88:01:bf:39:ce:83:cd:71:a4:e1:76:
        6f:e7:8b:31:d9:96:fb:b2:52:e1:ed:cf:c0:2e:dc:c3:fe:2b:
        fa:f6:2e:85
-----BEGIN CERTIFICATE-----
MIIDXDCCAkSgAwIBAgIQEsBzmZWLw+ynn4AzLPZnbDANBgkqhkiG9w0BAQsFADAW
MRQwEgYDVQQDDAt0ZWFtMzMyLW5ldDAeFw0yMzExMDMyMDQ1MjFaFw0yNjEwMTgy
MDQ1MjFaMBkxFzAVBgNVBAMMDnRlYW0zMzItY2xpZW50MIIBIjANBgkqhkiG9w0B
AQEFAAOCAQ8AMIIBCgKCAQEApE2xpWkrKpmE9MvimIsYU5cqj4HhGuBRkscxRhn7
FGv+FfFkZVFYWwSNrVlqgQrTGTHyFcoINR+rXH26+Mtzl8rrBNe9irU43mJi+Loh
Wi/iO5rHupgFEJIRF/vlGmpeaT8YaGa4pye3WVgQojzSBsTXneWrbZlrufQsugoj
uZ9nNMax3avfTkWoo08ZrDb2AnTQWrbeMD1efdxvJ989i3fKgrPRcwJzuTBzqPz9
GLsvJe1w3JDEomYtcWV8aKxYVC5I/3U+p8rBKbVhk/hmVHVvonWnO08Tfwwnn6mR
pwwMnp43Rfg0IpJ9ziyZUorDb4YE+RpNXwF3e6QQSkkGvQIDAQABo4GiMIGfMAkG
A1UdEwQCMAAwHQYDVR0OBBYEFLaxReRwT06Gt85hFW+8XdI20YuSMFEGA1UdIwRK
MEiAFPhFciaZwQNjUm1T5Zd9W1Ib7eraoRqkGDAWMRQwEgYDVQQDDAt0ZWFtMzMy
LW5ldIIUA3B3yWaZj1p3OkDSltcDeDj52qUwEwYDVR0lBAwwCgYIKwYBBQUHAwIw
CwYDVR0PBAQDAgeAMA0GCSqGSIb3DQEBCwUAA4IBAQCtDQJiFB5gwCeWzRyKSvF+
PdkbZyW0j9h9496nf7dNnvZ3oD2EUw8jYceZdLjY7kGSvfuUY3cHRTsrjUemd2iQ
Yd/gtaaDmtx2Rn16Ke6wxd6iP240QAN/g8UpAUQfknK1k5V5esYiIp/xT2Rk2QSZ
40L0OlXQz9t68IJoN4kTJYbEiDBQC5gZoStFnW2xMeK5/yGdnAFsMN1N4SLV3sPj
HL7b89MT4cBCKAJGWazXbA5RP+jSvy2BIT2IR9Slv6114txQezg6ReDbESX3sW/y
bj6FkWdPLPmCKpUTdQLyiAG/Oc6DzXGk4XZv54sx2Zb7slLh7c/ALtzD/iv69i6F
-----END CERTIFICATE-----
