Certificate:
    Data:
        Version: 3 (0x2)
        Serial Number:
            4b:f9:68:e6:c1:2a:60:e0:1c:cb:ea:ce:f5:88:ce:87
        Signature Algorithm: sha256WithRSAEncryption
        Issuer: CN=team278-net
        Validity
            Not Before: Nov  3 20:44:23 2023 GMT
            Not After : Oct 18 20:44:23 2026 GMT
        Subject: CN=team278-client
        Subject Public Key Info:
            Public Key Algorithm: rsaEncryption
                Public-Key: (2048 bit)
                Modulus:
                    00:95:68:cb:e2:21:ad:f2:87:7e:89:07:7f:0d:03:
                    ee:15:8f:3a:7a:60:13:67:da:9c:49:86:d5:36:ae:
                    02:29:83:2e:d1:e9:1d:8c:c9:1b:df:e3:4c:f8:05:
                    91:c4:7a:7d:d6:01:cc:ad:40:07:66:dc:59:f8:2b:
                    89:8d:6e:9f:4c:9f:87:fb:61:fc:95:db:87:35:d0:
                    0d:4b:a0:dc:06:3b:00:0c:2b:3d:61:ab:47:06:5d:
                    ab:48:7b:ab:4b:85:99:15:72:cc:2c:2a:9f:97:f0:
                    b7:3c:93:14:77:de:83:46:be:39:93:11:d5:b5:e8:
                    1a:99:bb:b9:2f:52:8e:ab:af:ae:02:9c:aa:fe:d8:
                    2c:68:25:47:f8:ce:88:25:cb:62:3d:31:da:f3:98:
                    d6:1d:c5:78:02:a8:dd:73:d5:4a:f1:1e:a1:6e:20:
                    7d:d8:5e:93:a5:4c:43:ca:c0:33:46:f1:78:d0:2a:
                    de:48:6d:78:de:6c:1c:40:ea:d3:cf:c0:5b:bb:d0:
                    ea:c9:4f:16:29:9d:87:47:71:ed:53:3c:10:e7:25:
                    11:b0:a4:ee:ca:38:f7:26:a1:77:28:e2:f0:f6:a9:
                    e5:49:96:84:fe:e3:fe:3f:c9:3a:d5:44:c7:94:ea:
                    c4:25:25:2d:ca:2d:63:2e:bb:09:eb:1f:50:47:74:
                    e5:97
                Exponent: 65537 (0x10001)
        X509v3 extensions:
            X509v3 Basic Constraints: 
                CA:FALSE
            X509v3 Subject Key Identifier: 
                03:77:48:5D:29:5F:B1:04:3E:E4:23:CD:9F:AA:7F:4A:5B:FF:C5:8F
            X509v3 Authority Key Identifier: 
                keyid:11:4E:F5:39:94:9E:1F:B4:F6:06:0A:57:41:F1:56:B2:AD:19:F7:A0
                DirName:/CN=team278-net
                serial:6A:4B:E1:86:B0:4D:AF:CF:18:FA:D7:51:C9:83:C5:FE:01:68:F3:2B
            X509v3 Extended Key Usage: 
                TLS Web Client Authentication
            X509v3 Key Usage: 
                Digital Signature
    Signature Algorithm: sha256WithRSAEncryption
    Signature Value:
        2d:d8:22:84:f8:9a:9d:c5:47:00:12:f7:80:3a:3a:8a:6a:24:
        25:35:8d:c5:2c:b8:27:29:46:21:76:12:84:df:a9:d4:b4:10:
        dd:56:f8:5e:5e:02:1e:eb:73:df:2d:8b:54:cc:84:5b:63:36:
        41:ca:99:b0:2f:74:81:69:63:35:16:d6:48:c8:e2:21:85:7c:
        df:21:01:cb:9a:d1:93:26:5a:15:87:96:9f:e6:3a:2d:5c:b5:
        70:e4:0e:a9:ad:65:09:5a:14:cf:20:64:44:f2:7f:01:15:be:
        0a:ba:e7:a5:e9:54:8a:e1:18:85:34:5e:00:e9:e8:79:bf:7c:
        9e:4a:43:ae:40:3a:1e:f2:18:7c:0c:3d:78:07:d6:fd:70:9c:
        16:fd:f8:6d:45:51:b2:1e:ed:33:be:8c:58:d5:a6:ef:ce:a8:
        32:da:75:21:ec:af:f1:04:c8:fd:cf:22:9c:7f:c0:c5:fd:17:
        26:9c:f6:93:ce:d5:89:6b:96:59:55:94:f1:ef:4c:14:dd:4b:
        05:d9:ac:f7:9a:fe:58:bf:cc:9f:d8:44:3b:22:9e:60:fb:0d:
        35:35:f7:74:cb:28:e4:5a:28:3a:0d:01:27:62:05:87:f5:6c:
        8a:44:34:76:52:2d:3f:d8:bb:b7:31:6a:6f:98:53:18:f5:43:
        b0:b4:1e:58
-----BEGIN CERTIFICATE-----
MIIDXDCCAkSgAwIBAgIQS/lo5sEqYOAcy+rO9YjOhzANBgkqhkiG9w0BAQsFADAW
MRQwEgYDVQQDDAt0ZWFtMjc4LW5ldDAeFw0yMzExMDMyMDQ0MjNaFw0yNjEwMTgy
MDQ0MjNaMBkxFzAVBgNVBAMMDnRlYW0yNzgtY2xpZW50MIIBIjANBgkqhkiG9w0B
AQEFAAOCAQ8AMIIBCgKCAQEAlWjL4iGt8od+iQd/DQPuFY86emATZ9qcSYbVNq4C
KYMu0ekdjMkb3+NM+AWRxHp91gHMrUAHZtxZ+CuJjW6fTJ+H+2H8lduHNdANS6Dc
BjsADCs9YatHBl2rSHurS4WZFXLMLCqfl/C3PJMUd96DRr45kxHVtegambu5L1KO
q6+uApyq/tgsaCVH+M6IJctiPTHa85jWHcV4Aqjdc9VK8R6hbiB92F6TpUxDysAz
RvF40CreSG143mwcQOrTz8Bbu9DqyU8WKZ2HR3HtUzwQ5yURsKTuyjj3JqF3KOLw
9qnlSZaE/uP+P8k61UTHlOrEJSUtyi1jLrsJ6x9QR3TllwIDAQABo4GiMIGfMAkG
A1UdEwQCMAAwHQYDVR0OBBYEFAN3SF0pX7EEPuQjzZ+qf0pb/8WPMFEGA1UdIwRK
MEiAFBFO9TmUnh+09gYKV0HxVrKtGfegoRqkGDAWMRQwEgYDVQQDDAt0ZWFtMjc4
LW5ldIIUakvhhrBNr88Y+tdRyYPF/gFo8yswEwYDVR0lBAwwCgYIKwYBBQUHAwIw
CwYDVR0PBAQDAgeAMA0GCSqGSIb3DQEBCwUAA4IBAQAt2CKE+JqdxUcAEveAOjqK
aiQlNY3FLLgnKUYhdhKE36nUtBDdVvheXgIe63PfLYtUzIRbYzZBypmwL3SBaWM1
FtZIyOIhhXzfIQHLmtGTJloVh5af5jotXLVw5A6prWUJWhTPIGRE8n8BFb4Kuuel
6VSK4RiFNF4A6eh5v3yeSkOuQDoe8hh8DD14B9b9cJwW/fhtRVGyHu0zvoxY1abv
zqgy2nUh7K/xBMj9zyKcf8DF/RcmnPaTztWJa5ZZVZTx70wU3UsF2az3mv5Yv8yf
2EQ7Ip5g+w01Nfd0yyjkWig6DQEnYgWH9WyKRDR2Ui0/2Lu3MWpvmFMY9UOwtB5Y
-----END CERTIFICATE-----
