Certificate:
    Data:
        Version: 3 (0x2)
        Serial Number:
            0b:c3:e7:42:f3:3d:f8:3d:62:30:6e:4e:ca:b5:f4:e4
        Signature Algorithm: sha256WithRSAEncryption
        Issuer: CN=team272-net
        Validity
            Not Before: Nov  4 10:45:43 2023 GMT
            Not After : Oct 19 10:45:43 2026 GMT
        Subject: CN=team272-server
        Subject Public Key Info:
            Public Key Algorithm: rsaEncryption
                Public-Key: (2048 bit)
                Modulus:
                    00:9e:2d:56:e5:d2:0e:1f:15:e6:8c:83:ea:4e:ed:
                    e9:f4:61:27:c6:db:8f:f2:d5:4e:02:2c:53:c8:c9:
                    56:81:6d:91:7a:3d:9c:d8:ed:0d:e6:5d:27:d3:80:
                    59:dc:8a:96:a1:60:27:a2:b7:d0:c0:ea:53:25:c0:
                    db:ba:bd:4c:ab:82:69:26:91:96:ec:88:3e:47:f5:
                    98:47:f3:85:34:fe:60:6f:87:58:95:1d:4f:a5:e8:
                    c0:66:b7:79:d6:5b:3b:24:a9:c6:76:e0:95:35:f9:
                    e3:4b:06:06:11:16:d1:cf:8b:8a:c8:52:9e:a0:f9:
                    b4:6c:48:f2:b0:05:71:e6:e8:a6:06:ed:53:0f:c5:
                    c9:83:7c:c4:62:0b:1c:b3:7e:5e:09:10:6e:d1:04:
                    0b:82:14:98:10:92:20:90:40:80:42:06:2b:3d:ca:
                    08:e7:fb:5e:d2:5a:c6:c9:58:ee:cd:bb:75:7a:b4:
                    da:8e:27:fd:14:23:2b:f9:2d:bc:6f:dc:f5:89:ce:
                    ac:1e:eb:38:df:b8:5f:5c:58:78:c0:f6:52:39:f8:
                    34:74:5e:d2:05:44:8b:76:48:0d:1a:25:4c:81:c8:
                    8d:9b:ef:7e:7d:f2:3e:19:0d:c6:b9:ff:86:e8:8f:
                    f1:26:94:20:65:e0:ce:ee:4c:13:6f:d5:94:5f:dd:
                    a9:ad
                Exponent: 65537 (0x10001)
        X509v3 extensions:
            X509v3 Basic Constraints: 
                CA:FALSE
            X509v3 Subject Key Identifier: 
                E4:B4:DC:70:9E:53:24:6F:21:41:CD:DE:6A:2D:98:65:AD:35:9F:C5
            X509v3 Authority Key Identifier: 
                keyid:22:F7:D6:7E:50:51:03:66:C8:AF:EF:BC:FD:11:88:4F:74:4B:71:CC
                DirName:/CN=team272-net
                serial:26:BB:BD:9C:A6:93:22:42:10:44:31:D8:9B:50:F4:20:83:32:8B:62
            X509v3 Extended Key Usage: 
                TLS Web Server Authentication
            X509v3 Key Usage: 
                Digital Signature, Key Encipherment
            X509v3 Subject Alternative Name: 
                DNS:team272-server
    Signature Algorithm: sha256WithRSAEncryption
    Signature Value:
        3c:f4:6a:db:c7:c1:f2:f0:eb:c3:48:00:3f:6e:8e:04:81:b8:
        86:56:01:6f:d0:0d:10:e8:e9:a6:69:ec:ad:59:12:54:ae:d6:
        ec:72:02:83:1f:e2:67:47:b9:08:ce:bf:56:ae:d0:a7:35:bc:
        47:12:de:04:47:ac:58:f0:1b:65:dd:6c:9a:e3:89:8f:97:45:
        7e:77:bb:5b:9f:86:92:fd:58:0c:06:d9:5f:b3:8d:e0:4c:f1:
        f9:d8:f8:d0:12:b5:45:01:da:97:10:fd:97:b0:2a:c9:c8:ed:
        26:e5:94:69:cb:ae:e7:c6:e0:92:54:f9:d5:84:17:5c:d0:9f:
        35:74:6e:39:fb:82:d4:87:dc:02:05:a9:37:58:75:6d:57:ce:
        70:a1:15:13:bd:02:fc:fe:60:5d:0a:60:e4:cf:ef:be:02:3a:
        5c:2a:e1:ac:13:18:1d:6b:49:61:4a:e8:9d:e4:f6:d1:60:b9:
        2b:5f:0c:39:a3:1f:fb:a1:34:9e:79:eb:bf:e5:a2:9b:b8:f7:
        73:84:ca:b6:a8:e1:ba:18:80:cd:e7:4b:06:5f:47:30:00:d5:
        42:a9:b3:9b:b8:a1:88:e4:61:a2:ef:ca:2d:82:00:73:05:0e:
        d9:ed:44:5b:33:1e:9e:fa:d1:ab:98:7e:79:e3:9b:27:90:c7:
        c2:a1:e3:a3
-----BEGIN CERTIFICATE-----
MIIDdzCCAl+gAwIBAgIQC8PnQvM9+D1iMG5OyrX05DANBgkqhkiG9w0BAQsFADAW
MRQwEgYDVQQDDAt0ZWFtMjcyLW5ldDAeFw0yMzExMDQxMDQ1NDNaFw0yNjEwMTkx
MDQ1NDNaMBkxFzAVBgNVBAMMDnRlYW0yNzItc2VydmVyMIIBIjANBgkqhkiG9w0B
AQEFAAOCAQ8AMIIBCgKCAQEAni1W5dIOHxXmjIPqTu3p9GEnxtuP8tVOAixTyMlW
gW2Rej2c2O0N5l0n04BZ3IqWoWAnorfQwOpTJcDbur1Mq4JpJpGW7Ig+R/WYR/OF
NP5gb4dYlR1PpejAZrd51ls7JKnGduCVNfnjSwYGERbRz4uKyFKeoPm0bEjysAVx
5uimBu1TD8XJg3zEYgscs35eCRBu0QQLghSYEJIgkECAQgYrPcoI5/te0lrGyVju
zbt1erTajif9FCMr+S28b9z1ic6sHus437hfXFh4wPZSOfg0dF7SBUSLdkgNGiVM
gciNm+9+ffI+GQ3Guf+G6I/xJpQgZeDO7kwTb9WUX92prQIDAQABo4G9MIG6MAkG
A1UdEwQCMAAwHQYDVR0OBBYEFOS03HCeUyRvIUHN3motmGWtNZ/FMFEGA1UdIwRK
MEiAFCL31n5QUQNmyK/vvP0RiE90S3HMoRqkGDAWMRQwEgYDVQQDDAt0ZWFtMjcy
LW5ldIIUJru9nKaTIkIQRDHYm1D0IIMyi2IwEwYDVR0lBAwwCgYIKwYBBQUHAwEw
CwYDVR0PBAQDAgWgMBkGA1UdEQQSMBCCDnRlYW0yNzItc2VydmVyMA0GCSqGSIb3
DQEBCwUAA4IBAQA89Grbx8Hy8OvDSAA/bo4EgbiGVgFv0A0Q6OmmaeytWRJUrtbs
cgKDH+JnR7kIzr9WrtCnNbxHEt4ER6xY8Btl3Wya44mPl0V+d7tbn4aS/VgMBtlf
s43gTPH52PjQErVFAdqXEP2XsCrJyO0m5ZRpy67nxuCSVPnVhBdc0J81dG45+4LU
h9wCBak3WHVtV85woRUTvQL8/mBdCmDkz+++AjpcKuGsExgda0lhSuid5PbRYLkr
Xww5ox/7oTSeeeu/5aKbuPdzhMq2qOG6GIDN50sGX0cwANVCqbObuKGI5GGi78ot
ggBzBQ7Z7URbMx6e+tGrmH5545snkMfCoeOj
-----END CERTIFICATE-----
