Certificate:
    Data:
        Version: 3 (0x2)
        Serial Number:
            a9:01:4a:a8:60:8e:98:8b:bc:26:7d:f4:dd:9a:08:7f
        Signature Algorithm: sha256WithRSAEncryption
        Issuer: CN=team272-net
        Validity
            Not Before: Nov  4 10:45:42 2023 GMT
            Not After : Oct 19 10:45:42 2026 GMT
        Subject: CN=team272-client
        Subject Public Key Info:
            Public Key Algorithm: rsaEncryption
                Public-Key: (2048 bit)
                Modulus:
                    00:c9:27:cd:90:65:21:e6:30:c4:04:1c:3a:b8:7d:
                    de:d5:85:03:71:62:b3:9d:14:34:32:3e:61:d3:d9:
                    d0:78:60:08:8f:7c:8c:1f:46:12:14:56:1e:9e:3a:
                    66:77:b4:ac:46:0f:33:70:37:c1:c2:63:0c:1d:a1:
                    b0:cb:68:b1:1d:cb:18:40:c2:ff:25:d3:6a:53:27:
                    5a:42:91:c5:ce:58:b8:3e:05:c9:95:1f:8c:bb:ee:
                    18:52:bf:fe:21:2c:dd:3c:b7:63:db:f7:be:4b:14:
                    09:7d:d0:47:f6:89:d3:84:8b:2e:d4:8a:24:95:19:
                    99:0b:d2:f5:98:c0:0b:14:0e:84:2b:3c:f0:6a:cc:
                    a6:28:85:8d:f4:2f:5e:51:93:e8:e7:11:7b:07:82:
                    a6:96:15:32:75:39:76:41:5a:c5:f7:f8:02:e7:79:
                    a3:af:ee:21:59:84:3a:d3:2d:2a:f2:fa:2c:55:31:
                    85:dd:6b:f5:0f:3b:6e:c7:c1:70:d1:63:3a:b9:27:
                    aa:cb:52:1a:71:d3:ac:7a:a4:6c:44:6e:ea:d8:1a:
                    8f:a4:76:b1:dc:fb:b3:59:42:8b:89:7b:16:5a:dc:
                    8c:05:65:39:0a:e6:ee:bd:53:28:7b:69:92:af:c5:
                    e8:5a:55:94:23:97:93:c0:6e:34:7c:0f:d5:3f:b5:
                    42:8f
                Exponent: 65537 (0x10001)
        X509v3 extensions:
            X509v3 Basic Constraints: 
                CA:FALSE
            X509v3 Subject Key Identifier: 
                93:9E:1F:4B:D4:AF:F3:A5:DA:16:A2:7B:B7:E4:92:0E:4F:9A:B0:14
            X509v3 Authority Key Identifier: 
                keyid:22:F7:D6:7E:50:51:03:66:C8:AF:EF:BC:FD:11:88:4F:74:4B:71:CC
                DirName:/CN=team272-net
                serial:26:BB:BD:9C:A6:93:22:42:10:44:31:D8:9B:50:F4:20:83:32:8B:62
            X509v3 Extended Key Usage: 
                TLS Web Client Authentication
            X509v3 Key Usage: 
                Digital Signature
    Signature Algorithm: sha256WithRSAEncryption
    Signature Value:
        3d:68:2e:4f:dc:6b:5a:7c:5c:3e:8a:79:00:83:fe:2c:57:8f:
        af:36:42:29:95:d7:81:e0:e5:8b:5a:84:79:2b:ed:f1:6e:9f:
        3f:82:10:83:2a:4f:b3:52:1a:42:fc:d8:43:0d:58:34:a7:3e:
        5e:eb:96:3f:21:82:d7:a9:d6:a6:4b:9a:38:ad:fa:ef:01:ed:
        62:e4:65:db:b2:43:4c:f7:89:aa:f4:7f:f8:64:76:fc:f9:54:
        b9:ea:c2:06:33:2e:18:50:9e:e0:c0:f4:a8:eb:aa:87:d2:c9:
        23:d2:be:ba:2f:bf:92:6b:94:3d:15:e6:9e:c2:11:c3:d6:6a:
        0b:ca:ab:d3:e5:fa:f9:05:d1:da:7c:7a:87:a8:e4:8b:aa:55:
        04:33:13:3d:e7:44:04:3f:83:18:0a:f5:c1:a7:78:6c:54:1c:
        3f:21:57:1b:75:42:b2:8e:df:f1:44:80:42:ba:e6:62:97:52:
        53:95:8b:2c:2b:2d:a5:95:5a:42:8a:7a:39:d2:f6:eb:36:be:
        be:ee:d8:02:1a:b9:a1:11:f5:1f:8a:da:53:79:68:67:5c:b0:
        c1:f9:0a:de:9e:2d:88:33:af:ff:f1:ee:ec:44:de:f2:81:8a:
        4e:5d:86:82:a8:ec:0a:91:d5:7e:17:1f:a3:5f:d7:fd:fc:dc:
        27:b8:47:36
-----BEGIN CERTIFICATE-----
MIIDXTCCAkWgAwIBAgIRAKkBSqhgjpiLvCZ99N2aCH8wDQYJKoZIhvcNAQELBQAw
FjEUMBIGA1UEAwwLdGVhbTI3Mi1uZXQwHhcNMjMxMTA0MTA0NTQyWhcNMjYxMDE5
MTA0NTQyWjAZMRcwFQYDVQQDDA50ZWFtMjcyLWNsaWVudDCCASIwDQYJKoZIhvcN
AQEBBQADggEPADCCAQoCggEBAMknzZBlIeYwxAQcOrh93tWFA3Fis50UNDI+YdPZ
0HhgCI98jB9GEhRWHp46Zne0rEYPM3A3wcJjDB2hsMtosR3LGEDC/yXTalMnWkKR
xc5YuD4FyZUfjLvuGFK//iEs3Ty3Y9v3vksUCX3QR/aJ04SLLtSKJJUZmQvS9ZjA
CxQOhCs88GrMpiiFjfQvXlGT6OcReweCppYVMnU5dkFaxff4Aud5o6/uIVmEOtMt
KvL6LFUxhd1r9Q87bsfBcNFjOrknqstSGnHTrHqkbERu6tgaj6R2sdz7s1lCi4l7
FlrcjAVlOQrm7r1TKHtpkq/F6FpVlCOXk8BuNHwP1T+1Qo8CAwEAAaOBojCBnzAJ
BgNVHRMEAjAAMB0GA1UdDgQWBBSTnh9L1K/zpdoWonu35JIOT5qwFDBRBgNVHSME
SjBIgBQi99Z+UFEDZsiv77z9EYhPdEtxzKEapBgwFjEUMBIGA1UEAwwLdGVhbTI3
Mi1uZXSCFCa7vZymkyJCEEQx2JtQ9CCDMotiMBMGA1UdJQQMMAoGCCsGAQUFBwMC
MAsGA1UdDwQEAwIHgDANBgkqhkiG9w0BAQsFAAOCAQEAPWguT9xrWnxcPop5AIP+
LFePrzZCKZXXgeDli1qEeSvt8W6fP4IQgypPs1IaQvzYQw1YNKc+XuuWPyGC16nW
pkuaOK367wHtYuRl27JDTPeJqvR/+GR2/PlUuerCBjMuGFCe4MD0qOuqh9LJI9K+
ui+/kmuUPRXmnsIRw9ZqC8qr0+X6+QXR2nx6h6jki6pVBDMTPedEBD+DGAr1wad4
bFQcPyFXG3VCso7f8USAQrrmYpdSU5WLLCstpZVaQop6OdL26za+vu7YAhq5oRH1
H4raU3loZ1ywwfkK3p4tiDOv//Hu7ETe8oGKTl2GgqjsCpHVfhcfo1/X/fzcJ7hH
Ng==
-----END CERTIFICATE-----
