Certificate:
    Data:
        Version: 3 (0x2)
        Serial Number:
            eb:3c:1f:22:7f:2c:6f:4b:c7:08:5f:30:7a:54:4f:a2
        Signature Algorithm: sha256WithRSAEncryption
        Issuer: CN=team272-net
        Validity
            Not Before: Nov  3 20:44:16 2023 GMT
            Not After : Oct 18 20:44:16 2026 GMT
        Subject: CN=team272-client
        Subject Public Key Info:
            Public Key Algorithm: rsaEncryption
                Public-Key: (2048 bit)
                Modulus:
                    00:a9:a5:50:3a:19:4e:3b:d9:47:7c:3c:f1:8a:75:
                    70:66:56:8b:99:ae:b1:7c:17:ec:ed:8f:10:57:0f:
                    ac:2e:38:24:37:25:bc:2f:94:3e:ba:9b:35:b6:b3:
                    8d:a0:71:10:4f:ed:1c:9e:d2:ef:e1:bf:11:e9:54:
                    15:fe:58:c0:05:8b:f8:69:7a:fd:9e:e7:1d:26:c0:
                    d1:da:0d:9d:de:b4:5e:cd:46:2c:60:8e:a0:11:fc:
                    1a:24:8f:f4:c3:43:80:3d:32:17:f2:ad:40:42:dd:
                    da:60:6e:e6:6d:08:73:5f:d4:a8:d7:ab:c0:81:64:
                    cd:f7:61:eb:0f:d5:e9:13:7b:cd:02:f3:6c:05:32:
                    6c:25:cc:16:05:06:ba:c0:3c:76:6a:d8:90:b9:7d:
                    13:21:0b:bc:14:71:31:eb:88:70:a1:f4:ba:35:b9:
                    12:e1:8e:3f:68:f7:62:0b:2f:7f:56:f5:57:6a:78:
                    d3:98:9d:f5:8b:9e:6f:85:f3:12:e7:b4:f5:6f:8e:
                    cb:21:0b:6d:7a:10:74:17:75:e9:91:c7:55:1b:02:
                    d3:bc:7c:47:d6:e6:ca:8f:7a:90:f8:13:cb:ea:16:
                    de:31:77:f4:5e:a5:d6:69:73:28:a6:05:10:6c:02:
                    c4:4f:11:ac:7b:ec:10:ce:0d:1c:01:13:f2:cd:15:
                    1b:37
                Exponent: 65537 (0x10001)
        X509v3 extensions:
            X509v3 Basic Constraints: 
                CA:FALSE
            X509v3 Subject Key Identifier: 
                8F:5C:42:9F:52:45:80:2E:1B:76:FE:8C:FF:CF:55:1E:34:35:A2:BC
            X509v3 Authority Key Identifier: 
                keyid:5D:AA:2A:09:5C:E3:3B:F1:50:0B:EC:1E:FB:51:BF:81:35:98:4E:D7
                DirName:/CN=team272-net
                serial:74:D1:AE:03:92:61:37:6A:1F:1D:F2:CC:38:68:B6:3A:A8:B6:9C
            X509v3 Extended Key Usage: 
                TLS Web Client Authentication
            X509v3 Key Usage: 
                Digital Signature
    Signature Algorithm: sha256WithRSAEncryption
    Signature Value:
        97:f0:59:ee:09:a9:6c:e7:8d:74:b1:27:5d:72:23:09:74:37:
        0c:31:be:43:ee:03:66:44:b4:f4:15:27:1e:e5:05:31:c9:30:
        91:3b:f9:16:54:28:b9:f7:e8:cf:61:b5:67:7c:54:2d:cb:8d:
        f9:02:35:00:3c:a8:62:c5:f9:c8:30:6f:e4:78:f2:47:c9:e2:
        67:b1:e0:9d:3b:33:d0:1d:91:78:d1:41:6b:a0:b1:c2:d1:9d:
        a1:67:b0:90:2c:f7:39:b5:b9:d4:33:a4:1b:f0:23:22:af:76:
        17:78:b5:b9:d2:9a:83:36:a1:df:05:aa:6b:cc:13:f4:fb:ad:
        c3:d4:89:5b:a4:5b:06:49:e5:ce:6b:9f:ae:67:10:e6:3d:4d:
        ec:7d:8f:23:ac:75:27:d1:3b:ff:e5:d5:a3:f9:41:90:64:46:
        ab:e4:0d:dd:55:91:b1:18:14:95:30:10:8f:51:1b:07:a6:66:
        87:70:0a:f4:b6:57:f0:da:c2:0e:17:df:a1:56:b8:dc:8d:75:
        7c:ec:16:98:9e:7f:45:5e:9f:b4:93:db:8e:54:35:24:7f:77:
        cc:7a:e4:f6:e2:05:ca:a2:5c:b8:11:8b:18:49:34:06:11:e0:
        c3:32:36:91:1c:d7:4e:30:a5:77:f7:7b:cf:cf:7e:ac:37:65:
        a7:87:d6:31
-----BEGIN CERTIFICATE-----
MIIDXDCCAkSgAwIBAgIRAOs8HyJ/LG9LxwhfMHpUT6IwDQYJKoZIhvcNAQELBQAw
FjEUMBIGA1UEAwwLdGVhbTI3Mi1uZXQwHhcNMjMxMTAzMjA0NDE2WhcNMjYxMDE4
MjA0NDE2WjAZMRcwFQYDVQQDDA50ZWFtMjcyLWNsaWVudDCCASIwDQYJKoZIhvcN
AQEBBQADggEPADCCAQoCggEBAKmlUDoZTjvZR3w88Yp1cGZWi5musXwX7O2PEFcP
rC44JDclvC+UPrqbNbazjaBxEE/tHJ7S7+G/EelUFf5YwAWL+Gl6/Z7nHSbA0doN
nd60Xs1GLGCOoBH8GiSP9MNDgD0yF/KtQELd2mBu5m0Ic1/UqNerwIFkzfdh6w/V
6RN7zQLzbAUybCXMFgUGusA8dmrYkLl9EyELvBRxMeuIcKH0ujW5EuGOP2j3Ygsv
f1b1V2p405id9Yueb4XzEue09W+OyyELbXoQdBd16ZHHVRsC07x8R9bmyo96kPgT
y+oW3jF39F6l1mlzKKYFEGwCxE8RrHvsEM4NHAET8s0VGzcCAwEAAaOBoTCBnjAJ
BgNVHRMEAjAAMB0GA1UdDgQWBBSPXEKfUkWALht2/oz/z1UeNDWivDBQBgNVHSME
STBHgBRdqioJXOM78VAL7B77Ub+BNZhO16EapBgwFjEUMBIGA1UEAwwLdGVhbTI3
Mi1uZXSCE3TRrgOSYTdqHx3yzDhotjqotpwwEwYDVR0lBAwwCgYIKwYBBQUHAwIw
CwYDVR0PBAQDAgeAMA0GCSqGSIb3DQEBCwUAA4IBAQCX8FnuCals5410sSddciMJ
dDcMMb5D7gNmRLT0FSce5QUxyTCRO/kWVCi59+jPYbVnfFQty435AjUAPKhixfnI
MG/kePJHyeJnseCdOzPQHZF40UFroLHC0Z2hZ7CQLPc5tbnUM6Qb8CMir3YXeLW5
0pqDNqHfBaprzBP0+63D1IlbpFsGSeXOa5+uZxDmPU3sfY8jrHUn0Tv/5dWj+UGQ
ZEar5A3dVZGxGBSVMBCPURsHpmaHcAr0tlfw2sIOF9+hVrjcjXV87BaYnn9FXp+0
k9uOVDUkf3fMeuT24gXKoly4EYsYSTQGEeDDMjaRHNdOMKV393vPz36sN2Wnh9Yx
-----END CERTIFICATE-----
