Certificate:
    Data:
        Version: 3 (0x2)
        Serial Number:
            e9:62:da:e7:28:05:5a:c4:22:fd:dd:ba:6b:12:8b:ca
        Signature Algorithm: sha256WithRSAEncryption
        Issuer: CN=team79-net
        Validity
            Not Before: Nov  3 20:40:33 2023 GMT
            Not After : Oct 18 20:40:33 2026 GMT
        Subject: CN=team79-client
        Subject Public Key Info:
            Public Key Algorithm: rsaEncryption
                Public-Key: (2048 bit)
                Modulus:
                    00:c6:f8:20:fb:00:83:46:42:21:45:4c:89:5c:35:
                    77:8e:cd:38:0b:3f:92:54:a3:a8:e3:c1:e2:81:45:
                    ee:c9:d5:c2:01:58:e0:3b:72:f3:5f:32:9a:e7:05:
                    5a:f7:59:0d:9d:5c:a9:90:69:d8:ec:9f:98:c3:df:
                    47:7f:05:01:15:f5:ff:f7:78:dc:5c:11:72:68:04:
                    7f:d6:ad:2f:41:d4:b0:cc:ab:6e:82:a5:7c:f7:18:
                    20:5f:0a:b4:14:e6:fb:4e:ed:cd:74:dc:48:eb:bb:
                    fc:b7:82:fc:78:06:40:43:b1:b7:d9:2b:67:ee:41:
                    1b:ee:38:aa:24:56:86:2e:83:3f:0e:b9:b2:1d:b7:
                    f5:d7:7f:82:c7:16:93:f2:b4:31:82:fe:86:a8:92:
                    b2:a4:38:a6:7b:e7:fd:cc:74:1c:d3:d3:f6:e2:4b:
                    a1:43:ad:7e:e1:90:f8:69:8a:ba:5e:76:40:7c:14:
                    c7:21:b9:d4:8a:16:45:79:97:26:25:a4:d3:c0:94:
                    09:d2:e7:d1:53:1c:ed:ed:00:82:5d:44:4f:f3:5f:
                    70:e0:36:2f:b9:a9:54:41:0a:ce:ed:25:fd:ef:91:
                    7a:dc:c8:b2:0a:b1:8b:08:71:bf:d7:b5:a4:f1:e2:
                    32:f0:6b:a0:e6:ff:ce:d9:13:5d:e6:e2:13:b7:d6:
                    97:f9
                Exponent: 65537 (0x10001)
        X509v3 extensions:
            X509v3 Basic Constraints: 
                CA:FALSE
            X509v3 Subject Key Identifier: 
                DF:AA:73:01:DC:01:66:44:94:FC:58:57:EC:22:A6:26:36:9D:B1:07
            X509v3 Authority Key Identifier: 
                keyid:DF:5C:C1:A5:A1:70:0E:32:A8:8E:E0:BF:06:C1:EE:D1:9F:E8:1A:57
                DirName:/CN=team79-net
                serial:7A:9B:34:B8:8D:51:34:F3:76:20:1F:75:11:0F:61:32:97:5F:82:E2
            X509v3 Extended Key Usage: 
                TLS Web Client Authentication
            X509v3 Key Usage: 
                Digital Signature
    Signature Algorithm: sha256WithRSAEncryption
    Signature Value:
        25:a4:cf:a7:e3:03:3e:34:18:22:a6:65:30:cb:8d:3a:9b:1d:
        14:6e:22:7f:63:0d:f7:67:e0:d6:6a:e8:49:74:d5:70:d8:df:
        02:4b:5a:1a:53:2c:81:13:b8:06:93:35:c2:6c:5a:31:5a:f0:
        1e:0f:80:53:0b:e2:45:0d:f9:92:fb:1f:b1:cb:9f:9e:f7:3a:
        38:b8:fd:e5:c2:c8:cb:d5:48:25:8b:eb:b1:d3:08:f7:4c:3f:
        d5:13:ea:73:fc:96:35:30:10:9d:b6:19:55:b5:4d:a0:09:cb:
        50:5b:b1:00:3f:0d:79:6a:34:ca:42:e7:27:9e:c9:7b:c9:b0:
        a7:91:27:df:2b:7a:c9:27:bf:85:e1:cc:b1:01:c4:91:5d:4c:
        5c:28:b2:1b:dd:d7:0f:22:5c:84:fb:e0:13:da:15:97:5c:82:
        47:1d:40:c7:88:09:6c:86:0c:10:30:0f:52:57:ff:31:c9:00:
        27:48:df:cf:c5:26:fc:f6:95:77:a5:11:0d:25:e8:ac:b2:db:
        b2:9c:9d:a4:9e:0e:b4:2a:a9:b0:55:25:08:30:f0:f1:40:a9:
        74:30:eb:72:51:b3:04:9a:f9:da:e6:4b:fd:3b:8a:c9:b5:86:
        9f:20:18:b4:7f:5f:8c:6e:a0:af:4a:65:c1:a5:dc:17:36:be:
        5c:80:5f:f6
-----BEGIN CERTIFICATE-----
MIIDWjCCAkKgAwIBAgIRAOli2ucoBVrEIv3dumsSi8owDQYJKoZIhvcNAQELBQAw
FTETMBEGA1UEAwwKdGVhbTc5LW5ldDAeFw0yMzExMDMyMDQwMzNaFw0yNjEwMTgy
MDQwMzNaMBgxFjAUBgNVBAMMDXRlYW03OS1jbGllbnQwggEiMA0GCSqGSIb3DQEB
AQUAA4IBDwAwggEKAoIBAQDG+CD7AINGQiFFTIlcNXeOzTgLP5JUo6jjweKBRe7J
1cIBWOA7cvNfMprnBVr3WQ2dXKmQadjsn5jD30d/BQEV9f/3eNxcEXJoBH/WrS9B
1LDMq26CpXz3GCBfCrQU5vtO7c103Ejru/y3gvx4BkBDsbfZK2fuQRvuOKokVoYu
gz8OubIdt/XXf4LHFpPytDGC/oaokrKkOKZ75/3MdBzT0/biS6FDrX7hkPhpirpe
dkB8FMchudSKFkV5lyYlpNPAlAnS59FTHO3tAIJdRE/zX3DgNi+5qVRBCs7tJf3v
kXrcyLIKsYsIcb/XtaTx4jLwa6Dm/87ZE13m4hO31pf5AgMBAAGjgaEwgZ4wCQYD
VR0TBAIwADAdBgNVHQ4EFgQU36pzAdwBZkSU/FhX7CKmJjadsQcwUAYDVR0jBEkw
R4AU31zBpaFwDjKojuC/BsHu0Z/oGlehGaQXMBUxEzARBgNVBAMMCnRlYW03OS1u
ZXSCFHqbNLiNUTTzdiAfdREPYTKXX4LiMBMGA1UdJQQMMAoGCCsGAQUFBwMCMAsG
A1UdDwQEAwIHgDANBgkqhkiG9w0BAQsFAAOCAQEAJaTPp+MDPjQYIqZlMMuNOpsd
FG4if2MN92fg1mroSXTVcNjfAktaGlMsgRO4BpM1wmxaMVrwHg+AUwviRQ35kvsf
scufnvc6OLj95cLIy9VIJYvrsdMI90w/1RPqc/yWNTAQnbYZVbVNoAnLUFuxAD8N
eWo0ykLnJ57Je8mwp5En3yt6ySe/heHMsQHEkV1MXCiyG93XDyJchPvgE9oVl1yC
Rx1Ax4gJbIYMEDAPUlf/MckAJ0jfz8Um/PaVd6URDSXorLLbspydpJ4OtCqpsFUl
CDDw8UCpdDDrclGzBJr52uZL/TuKybWGnyAYtH9fjG6gr0plwaXcFza+XIBf9g==
-----END CERTIFICATE-----
