Certificate:
    Data:
        Version: 3 (0x2)
        Serial Number:
            ce:5a:a7:13:e4:e6:cd:69:4a:fd:e2:0a:91:62:c1:95
        Signature Algorithm: sha256WithRSAEncryption
        Issuer: CN=team115-net
        Validity
            Not Before: Nov  3 20:41:12 2023 GMT
            Not After : Oct 18 20:41:12 2026 GMT
        Subject: CN=team115-client
        Subject Public Key Info:
            Public Key Algorithm: rsaEncryption
                Public-Key: (2048 bit)
                Modulus:
                    00:b3:fe:8d:30:43:76:54:fb:61:b8:27:3d:a9:ae:
                    3a:e5:2b:c8:25:2b:bb:14:a6:14:ab:ab:aa:6e:47:
                    45:13:24:93:ff:98:d7:1a:b3:c1:10:8c:8d:60:76:
                    b9:9a:6f:da:9d:73:d1:43:0e:46:d0:b4:46:3e:7b:
                    2d:b9:ac:8a:6d:1b:37:62:32:71:0a:b2:43:ca:50:
                    0b:34:89:4c:15:f5:0a:16:61:2f:da:34:bc:1b:6d:
                    85:e2:19:a5:61:6e:9b:03:3a:47:50:37:55:eb:d3:
                    80:22:a0:45:c0:b4:6c:9d:95:35:cf:3d:1f:34:38:
                    51:c3:6a:f1:3c:15:7f:83:d5:b6:75:18:a5:0d:26:
                    5a:c7:d7:30:c1:15:5c:0f:73:8a:46:10:75:d0:e1:
                    70:b3:0d:09:38:47:9b:0e:0a:38:c4:e9:66:39:bf:
                    b5:a1:ab:3f:18:2f:78:61:e6:5a:67:6d:a1:08:4c:
                    0a:79:26:44:d9:bc:12:b4:c5:f1:be:f0:c3:2b:bc:
                    97:dc:11:0e:d8:88:10:1c:78:72:e6:ee:b0:09:27:
                    f5:fb:9f:70:9d:2a:d5:de:f9:53:76:f0:51:b0:f3:
                    76:92:30:9f:1a:5f:f7:27:15:95:0e:00:f9:85:97:
                    17:87:0f:dd:4d:4e:da:e9:35:86:af:49:76:fd:e4:
                    b0:4f
                Exponent: 65537 (0x10001)
        X509v3 extensions:
            X509v3 Basic Constraints: 
                CA:FALSE
            X509v3 Subject Key Identifier: 
                3F:A2:6C:80:57:41:62:6E:21:7F:C2:9E:1A:FE:A6:80:F8:BE:5A:1B
            X509v3 Authority Key Identifier: 
                keyid:98:90:9F:38:BB:62:9F:F3:C6:9E:C9:EC:22:19:4C:D7:C1:FB:38:1D
                DirName:/CN=team115-net
                serial:79:49:D5:2C:49:BA:67:68:B9:68:72:95:FA:AF:15:D4:EA:D1:DE:CC
            X509v3 Extended Key Usage: 
                TLS Web Client Authentication
            X509v3 Key Usage: 
                Digital Signature
    Signature Algorithm: sha256WithRSAEncryption
    Signature Value:
        3d:8c:75:5e:65:fb:75:8f:54:7b:16:bd:a8:09:90:d0:8d:78:
        fa:99:e6:12:e3:9e:0f:45:d5:cc:83:a5:9b:c7:26:10:34:ef:
        b1:ff:bc:bc:23:ed:ae:91:5c:e1:1b:4c:b8:a1:16:e1:39:9b:
        aa:53:a1:4b:26:e4:fd:d4:e5:1c:ae:74:ba:09:59:57:91:2e:
        6c:9c:bf:1b:92:81:7d:13:9b:8f:2c:20:99:e0:f2:f2:6d:7a:
        30:9a:1c:ad:2f:01:0c:17:0b:d0:f2:f2:58:64:4b:51:ff:f1:
        7c:f3:26:b6:31:5c:42:51:f2:cd:e8:6c:eb:14:14:34:a2:7f:
        86:fa:db:d3:45:59:e4:bd:69:f9:b7:ad:45:c7:5b:d8:9b:6c:
        dd:e8:9c:44:f7:a4:e0:21:5d:e7:fb:4f:ea:1f:e0:c9:a8:f6:
        dc:71:f8:71:e2:50:83:6c:64:ff:0b:fe:02:44:2b:dc:2a:d5:
        a8:03:44:e7:1b:5d:a9:59:f9:ca:26:f6:9e:98:5b:ca:b7:04:
        9b:eb:30:21:c4:0f:94:4b:27:75:9c:95:41:ac:0f:aa:9a:b2:
        cf:e6:6d:b0:93:6f:c3:9f:1a:a0:13:2d:1d:80:18:e2:60:2e:
        ba:e2:22:af:f1:f0:13:4b:7f:82:a2:c0:d3:44:ce:49:c1:92:
        be:75:03:f3
-----BEGIN CERTIFICATE-----
MIIDXTCCAkWgAwIBAgIRAM5apxPk5s1pSv3iCpFiwZUwDQYJKoZIhvcNAQELBQAw
FjEUMBIGA1UEAwwLdGVhbTExNS1uZXQwHhcNMjMxMTAzMjA0MTEyWhcNMjYxMDE4
MjA0MTEyWjAZMRcwFQYDVQQDDA50ZWFtMTE1LWNsaWVudDCCASIwDQYJKoZIhvcN
AQEBBQADggEPADCCAQoCggEBALP+jTBDdlT7YbgnPamuOuUryCUruxSmFKurqm5H
RRMkk/+Y1xqzwRCMjWB2uZpv2p1z0UMORtC0Rj57Lbmsim0bN2IycQqyQ8pQCzSJ
TBX1ChZhL9o0vBttheIZpWFumwM6R1A3VevTgCKgRcC0bJ2VNc89HzQ4UcNq8TwV
f4PVtnUYpQ0mWsfXMMEVXA9zikYQddDhcLMNCThHmw4KOMTpZjm/taGrPxgveGHm
WmdtoQhMCnkmRNm8ErTF8b7wwyu8l9wRDtiIEBx4cubusAkn9fufcJ0q1d75U3bw
UbDzdpIwnxpf9ycVlQ4A+YWXF4cP3U1O2uk1hq9Jdv3ksE8CAwEAAaOBojCBnzAJ
BgNVHRMEAjAAMB0GA1UdDgQWBBQ/omyAV0FibiF/wp4a/qaA+L5aGzBRBgNVHSME
SjBIgBSYkJ84u2Kf88aeyewiGUzXwfs4HaEapBgwFjEUMBIGA1UEAwwLdGVhbTEx
NS1uZXSCFHlJ1SxJumdouWhylfqvFdTq0d7MMBMGA1UdJQQMMAoGCCsGAQUFBwMC
MAsGA1UdDwQEAwIHgDANBgkqhkiG9w0BAQsFAAOCAQEAPYx1XmX7dY9Uexa9qAmQ
0I14+pnmEuOeD0XVzIOlm8cmEDTvsf+8vCPtrpFc4RtMuKEW4TmbqlOhSybk/dTl
HK50uglZV5EubJy/G5KBfRObjywgmeDy8m16MJocrS8BDBcL0PLyWGRLUf/xfPMm
tjFcQlHyzehs6xQUNKJ/hvrb00VZ5L1p+betRcdb2Jts3eicRPek4CFd5/tP6h/g
yaj23HH4ceJQg2xk/wv+AkQr3CrVqANE5xtdqVn5yib2nphbyrcEm+swIcQPlEsn
dZyVQawPqpqyz+ZtsJNvw58aoBMtHYAY4mAuuuIir/HwE0t/gqLA00TOScGSvnUD
8w==
-----END CERTIFICATE-----
