Certificate:
    Data:
        Version: 3 (0x2)
        Serial Number:
            35:06:ce:eb:a1:70:f8:6e:fb:08:d2:48:53:8d:eb:f8
        Signature Algorithm: sha256WithRSAEncryption
        Issuer: CN=team433-net
        Validity
            Not Before: Nov  4 10:48:25 2023 GMT
            Not After : Oct 19 10:48:25 2026 GMT
        Subject: CN=team433-client
        Subject Public Key Info:
            Public Key Algorithm: rsaEncryption
                Public-Key: (2048 bit)
                Modulus:
                    00:a7:8f:98:64:60:17:ba:a9:3b:b9:f6:d7:e9:8f:
                    08:e3:97:09:d1:35:23:53:db:97:9d:cf:24:68:03:
                    f8:cc:91:76:aa:5d:50:df:53:96:3a:b3:9b:bb:58:
                    8e:88:fc:51:5e:90:7e:46:55:dc:9a:a0:fd:1b:7a:
                    82:86:02:5f:ac:cf:a1:cd:65:02:b3:c2:7a:3b:fa:
                    37:df:f1:e1:66:88:82:9d:d0:ba:c5:0f:6d:46:24:
                    94:51:ab:ff:af:64:ce:09:48:6f:45:0d:73:3a:3f:
                    d5:f1:eb:40:93:7b:10:49:2b:03:d4:ca:54:ff:b8:
                    74:9a:13:e3:4b:aa:93:b0:35:0c:1a:05:37:8a:45:
                    89:5f:ee:f6:b5:e1:75:7a:1d:8b:66:13:77:7b:77:
                    5b:16:d8:95:aa:3e:c0:6b:5a:1f:3e:f4:2a:b4:f9:
                    6c:d4:b8:3f:e0:8c:74:48:2e:c3:33:ba:1a:1a:ee:
                    21:0d:bb:28:8b:36:83:f2:33:2f:b4:44:a3:76:f1:
                    c7:b5:7b:5f:1e:e0:be:60:c6:7e:de:a1:46:ff:93:
                    e9:91:4d:00:b7:cc:ca:cf:57:34:22:87:33:1d:7b:
                    85:fe:42:10:a2:ff:e8:85:71:6a:f8:a7:49:15:88:
                    85:5b:64:39:aa:7b:fe:82:aa:e2:25:47:2a:1e:e2:
                    cc:af
                Exponent: 65537 (0x10001)
        X509v3 extensions:
            X509v3 Basic Constraints: 
                CA:FALSE
            X509v3 Subject Key Identifier: 
                71:1A:E5:51:DC:37:B7:21:03:10:CF:2F:B1:B0:E7:26:00:45:DA:73
            X509v3 Authority Key Identifier: 
                keyid:DD:F0:30:89:C5:5C:84:45:05:3C:EB:9B:56:7F:F3:F8:1C:F4:86:C0
                DirName:/CN=team433-net
                serial:59:2B:B9:2D:B7:37:C9:8B:DE:FC:F1:1F:A5:85:FE:9E:AE:03:D4:CA
            X509v3 Extended Key Usage: 
                TLS Web Client Authentication
            X509v3 Key Usage: 
                Digital Signature
    Signature Algorithm: sha256WithRSAEncryption
    Signature Value:
        27:33:3b:a1:7a:02:a1:e4:1c:f7:87:94:9e:09:ed:67:e3:31:
        56:9d:46:ea:cd:9c:d5:59:cb:f2:67:1a:db:9a:23:95:63:53:
        c6:f1:a4:d2:f8:23:cd:91:a9:9c:dd:e0:55:3f:8a:ea:a3:2f:
        07:7b:d2:ba:de:d0:a1:15:4e:5c:8d:7c:cb:60:51:67:5c:6b:
        e7:53:8f:52:7a:38:34:87:8d:e9:31:88:95:b7:c8:e3:65:95:
        48:5e:77:0b:ef:b9:80:2d:21:6e:2a:07:d8:17:e6:5a:7e:32:
        35:b7:bb:bd:5a:22:55:ab:d9:c0:65:ee:0c:44:94:a3:34:e5:
        6f:50:7d:33:7d:38:08:d1:90:7a:84:85:0d:71:43:5a:4c:cf:
        2d:d8:ca:7b:b5:33:58:ba:8d:97:47:d9:ed:bb:9d:17:94:5f:
        2f:f2:ee:f8:51:e7:f2:64:26:7d:f0:3a:75:0b:90:91:6a:52:
        28:b7:b8:02:4a:24:03:61:6c:f7:61:1b:01:1d:cb:e5:03:ce:
        e5:25:6d:c7:f1:03:c0:1d:83:5a:17:39:ca:d2:f6:f7:4c:a0:
        d0:0e:c4:b0:e2:da:e2:bf:6e:ac:27:8b:73:87:b6:de:69:d6:
        66:2b:99:64:a1:ad:78:91:c8:50:c3:b8:6c:a9:7f:9f:f1:db:
        cd:b8:19:2c
-----BEGIN CERTIFICATE-----
MIIDXDCCAkSgAwIBAgIQNQbO66Fw+G77CNJIU43r+DANBgkqhkiG9w0BAQsFADAW
MRQwEgYDVQQDDAt0ZWFtNDMzLW5ldDAeFw0yMzExMDQxMDQ4MjVaFw0yNjEwMTkx
MDQ4MjVaMBkxFzAVBgNVBAMMDnRlYW00MzMtY2xpZW50MIIBIjANBgkqhkiG9w0B
AQEFAAOCAQ8AMIIBCgKCAQEAp4+YZGAXuqk7ufbX6Y8I45cJ0TUjU9uXnc8kaAP4
zJF2ql1Q31OWOrObu1iOiPxRXpB+RlXcmqD9G3qChgJfrM+hzWUCs8J6O/o33/Hh
ZoiCndC6xQ9tRiSUUav/r2TOCUhvRQ1zOj/V8etAk3sQSSsD1MpU/7h0mhPjS6qT
sDUMGgU3ikWJX+72teF1eh2LZhN3e3dbFtiVqj7Aa1ofPvQqtPls1Lg/4Ix0SC7D
M7oaGu4hDbsoizaD8jMvtESjdvHHtXtfHuC+YMZ+3qFG/5PpkU0At8zKz1c0Iocz
HXuF/kIQov/ohXFq+KdJFYiFW2Q5qnv+gqriJUcqHuLMrwIDAQABo4GiMIGfMAkG
A1UdEwQCMAAwHQYDVR0OBBYEFHEa5VHcN7chAxDPL7Gw5yYARdpzMFEGA1UdIwRK
MEiAFN3wMInFXIRFBTzrm1Z/8/gc9IbAoRqkGDAWMRQwEgYDVQQDDAt0ZWFtNDMz
LW5ldIIUWSu5Lbc3yYve/PEfpYX+nq4D1MowEwYDVR0lBAwwCgYIKwYBBQUHAwIw
CwYDVR0PBAQDAgeAMA0GCSqGSIb3DQEBCwUAA4IBAQAnMzuhegKh5Bz3h5SeCe1n
4zFWnUbqzZzVWcvyZxrbmiOVY1PG8aTS+CPNkamc3eBVP4rqoy8He9K63tChFU5c
jXzLYFFnXGvnU49Sejg0h43pMYiVt8jjZZVIXncL77mALSFuKgfYF+ZafjI1t7u9
WiJVq9nAZe4MRJSjNOVvUH0zfTgI0ZB6hIUNcUNaTM8t2Mp7tTNYuo2XR9ntu50X
lF8v8u74UefyZCZ98Dp1C5CRalIot7gCSiQDYWz3YRsBHcvlA87lJW3H8QPAHYNa
FznK0vb3TKDQDsSw4triv26sJ4tzh7beadZmK5lkoa14kchQw7hsqX+f8dvNuBks
-----END CERTIFICATE-----
