Certificate:
    Data:
        Version: 3 (0x2)
        Serial Number:
            73:94:da:8e:18:a2:8e:a1:d2:7d:f6:c6:71:f9:2c:7b
        Signature Algorithm: sha256WithRSAEncryption
        Issuer: CN=team433-net
        Validity
            Not Before: Nov  3 20:47:07 2023 GMT
            Not After : Oct 18 20:47:07 2026 GMT
        Subject: CN=team433-server
        Subject Public Key Info:
            Public Key Algorithm: rsaEncryption
                Public-Key: (2048 bit)
                Modulus:
                    00:a7:12:71:83:b1:6b:3c:73:47:51:1c:c6:9b:be:
                    e7:fd:a5:94:df:02:e9:7f:55:81:44:01:6c:9f:ac:
                    52:d0:de:74:db:ca:a2:08:ac:81:c9:0e:2a:9d:ef:
                    6c:81:02:71:0a:af:55:31:b9:59:7e:eb:5c:17:2e:
                    d5:8a:3d:31:33:18:d4:9d:22:82:de:49:3e:46:af:
                    83:25:aa:99:eb:9c:b4:de:cd:56:d7:ea:a9:4d:e3:
                    66:c2:83:01:a8:d8:ee:2c:67:dc:ea:b0:76:8f:87:
                    ac:e5:4b:a0:c9:82:63:da:aa:e6:09:be:02:0f:ce:
                    d1:7d:ed:05:2f:85:ac:1c:c2:ef:c5:cd:07:64:26:
                    d0:4a:2e:10:02:b9:e5:f2:78:e0:af:1c:44:e6:ec:
                    d8:eb:25:31:84:25:6b:4e:45:a0:e2:2c:4a:de:c5:
                    f4:72:91:56:be:63:f9:bd:cc:12:0b:a1:7e:71:b9:
                    b7:5e:44:b9:a9:3d:d6:05:13:d0:af:31:e4:2d:27:
                    0e:eb:3b:27:8f:57:da:6b:f4:41:2a:17:be:d3:98:
                    07:1b:a9:38:0b:9a:f4:0e:98:03:11:44:67:4b:9b:
                    1a:35:e3:3b:d8:c2:6a:94:08:78:91:fb:37:a2:b4:
                    35:6a:74:53:fe:54:4e:f5:78:49:7e:e3:f7:7a:d7:
                    2b:65
                Exponent: 65537 (0x10001)
        X509v3 extensions:
            X509v3 Basic Constraints: 
                CA:FALSE
            X509v3 Subject Key Identifier: 
                A2:3B:47:81:6B:C7:51:67:5D:57:8A:CB:E4:73:15:26:B3:BE:DD:A1
            X509v3 Authority Key Identifier: 
                keyid:4B:6D:DD:8A:73:8C:62:A9:EE:E7:94:C9:6D:52:3C:E7:72:A5:64:43
                DirName:/CN=team433-net
                serial:18:3D:29:22:C4:10:E2:E8:B1:36:49:3E:37:5A:B5:99:1F:96:8E:8D
            X509v3 Extended Key Usage: 
                TLS Web Server Authentication
            X509v3 Key Usage: 
                Digital Signature, Key Encipherment
            X509v3 Subject Alternative Name: 
                DNS:team433-server
    Signature Algorithm: sha256WithRSAEncryption
    Signature Value:
        4d:ac:89:d7:57:e3:fa:de:99:42:be:f8:73:7f:c3:34:e4:f3:
        b8:d6:b5:99:6b:e8:e4:f0:83:c6:d6:fb:be:7c:fe:b4:f4:23:
        ed:1b:39:12:4c:1e:c5:cd:71:df:01:22:a7:cc:4b:85:7d:44:
        32:bd:21:96:40:3b:2f:1c:3f:93:e8:0b:2a:dc:b0:66:3f:8c:
        05:bc:56:e2:9c:4e:24:0d:d2:68:b1:06:3e:f8:65:5c:c2:fe:
        03:ee:1e:38:f5:db:ae:0f:db:bf:3d:be:bd:e3:99:9c:ab:8a:
        9a:4f:27:e4:7b:2c:c8:9c:e0:e1:44:da:13:61:aa:7c:97:0e:
        34:29:85:4a:77:7c:15:70:e4:93:18:d8:75:8e:19:83:40:40:
        a0:f8:47:db:77:c9:8f:59:da:70:46:00:b4:63:ed:98:74:65:
        e7:79:a9:41:d4:b1:ee:14:d3:65:f2:d5:8c:03:01:3c:af:3c:
        b9:b4:52:5b:76:81:4a:c1:57:c0:20:bc:a7:c6:e9:d2:82:db:
        22:29:21:2f:7d:69:e7:13:03:ef:2c:60:cd:47:17:95:e1:46:
        7c:35:87:0c:a8:cf:f0:c3:bc:e0:d9:3f:cd:a9:54:92:4f:8b:
        f7:62:78:50:e6:4c:59:46:8a:5e:be:29:36:71:a1:cf:5a:5e:
        8c:0e:26:79
-----BEGIN CERTIFICATE-----
MIIDdzCCAl+gAwIBAgIQc5TajhiijqHSffbGcfksezANBgkqhkiG9w0BAQsFADAW
MRQwEgYDVQQDDAt0ZWFtNDMzLW5ldDAeFw0yMzExMDMyMDQ3MDdaFw0yNjEwMTgy
MDQ3MDdaMBkxFzAVBgNVBAMMDnRlYW00MzMtc2VydmVyMIIBIjANBgkqhkiG9w0B
AQEFAAOCAQ8AMIIBCgKCAQEApxJxg7FrPHNHURzGm77n/aWU3wLpf1WBRAFsn6xS
0N5028qiCKyByQ4qne9sgQJxCq9VMblZfutcFy7Vij0xMxjUnSKC3kk+Rq+DJaqZ
65y03s1W1+qpTeNmwoMBqNjuLGfc6rB2j4es5UugyYJj2qrmCb4CD87Rfe0FL4Ws
HMLvxc0HZCbQSi4QArnl8njgrxxE5uzY6yUxhCVrTkWg4ixK3sX0cpFWvmP5vcwS
C6F+cbm3XkS5qT3WBRPQrzHkLScO6zsnj1faa/RBKhe+05gHG6k4C5r0DpgDEURn
S5saNeM72MJqlAh4kfs3orQ1anRT/lRO9XhJfuP3etcrZQIDAQABo4G9MIG6MAkG
A1UdEwQCMAAwHQYDVR0OBBYEFKI7R4Frx1FnXVeKy+RzFSazvt2hMFEGA1UdIwRK
MEiAFEtt3YpzjGKp7ueUyW1SPOdypWRDoRqkGDAWMRQwEgYDVQQDDAt0ZWFtNDMz
LW5ldIIUGD0pIsQQ4uixNkk+N1q1mR+Wjo0wEwYDVR0lBAwwCgYIKwYBBQUHAwEw
CwYDVR0PBAQDAgWgMBkGA1UdEQQSMBCCDnRlYW00MzMtc2VydmVyMA0GCSqGSIb3
DQEBCwUAA4IBAQBNrInXV+P63plCvvhzf8M05PO41rWZa+jk8IPG1vu+fP609CPt
GzkSTB7FzXHfASKnzEuFfUQyvSGWQDsvHD+T6Asq3LBmP4wFvFbinE4kDdJosQY+
+GVcwv4D7h449duuD9u/Pb6945mcq4qaTyfkeyzInODhRNoTYap8lw40KYVKd3wV
cOSTGNh1jhmDQECg+Efbd8mPWdpwRgC0Y+2YdGXnealB1LHuFNNl8tWMAwE8rzy5
tFJbdoFKwVfAILynxunSgtsiKSEvfWnnEwPvLGDNRxeV4UZ8NYcMqM/ww7zg2T/N
qVSST4v3YnhQ5kxZRopevik2caHPWl6MDiZ5
-----END CERTIFICATE-----
