Certificate:
    Data:
        Version: 3 (0x2)
        Serial Number:
            86:f8:a1:43:31:39:b5:a8:af:29:53:ce:ba:b9:78:66
        Signature Algorithm: sha256WithRSAEncryption
        Issuer: CN=team433-net
        Validity
            Not Before: Nov  4 11:37:10 2023 GMT
            Not After : Oct 19 11:37:10 2026 GMT
        Subject: CN=team433-client
        Subject Public Key Info:
            Public Key Algorithm: rsaEncryption
                Public-Key: (2048 bit)
                Modulus:
                    00:a8:fa:2e:e9:9e:af:e6:3a:a5:dc:cf:52:2e:42:
                    9f:9c:e8:01:b7:6f:f5:97:76:ac:ed:13:b6:ab:57:
                    0f:62:a0:02:8f:3c:a2:6d:c0:f1:ea:cf:f0:fa:0d:
                    dc:a8:0c:cf:87:45:4b:87:e6:91:6a:d4:05:56:5a:
                    b0:2c:9a:de:a8:22:b4:6d:7b:e9:4f:71:a7:fe:a0:
                    f2:69:21:a6:91:c0:77:33:0d:20:b1:53:0b:01:68:
                    96:56:e5:d9:3f:f5:66:95:10:98:02:eb:d5:af:ef:
                    b4:7c:ed:e0:79:f1:25:7b:d7:e5:38:c7:32:cf:d1:
                    c0:e9:21:00:bc:6e:76:05:aa:19:67:d6:7a:4c:80:
                    d3:e8:44:86:8e:79:b9:21:48:d3:a4:9c:02:1b:a3:
                    a7:77:10:b7:95:be:45:ab:7d:e7:77:52:cd:9a:9a:
                    43:f6:64:59:a6:99:c1:63:7a:47:69:b8:58:a6:1f:
                    2b:85:fe:2a:34:ac:00:68:e1:fe:20:99:28:21:82:
                    49:aa:dc:9e:5d:89:46:c3:9f:75:60:28:a9:79:60:
                    ac:8d:fe:07:0e:af:91:1b:23:cc:72:46:f1:73:83:
                    04:e4:00:a6:2d:74:38:76:d9:74:60:3a:2f:90:8b:
                    2e:72:08:77:0a:06:89:7c:79:b5:fd:0f:ce:b4:6b:
                    53:dd
                Exponent: 65537 (0x10001)
        X509v3 extensions:
            X509v3 Basic Constraints: 
                CA:FALSE
            X509v3 Subject Key Identifier: 
                FC:41:30:77:C7:4E:D9:55:A4:44:6B:D3:8C:FA:D2:06:33:B9:57:47
            X509v3 Authority Key Identifier: 
                keyid:41:8F:F8:6C:D0:51:3C:09:53:F2:DC:2D:BC:28:B7:AC:24:15:5F:8A
                DirName:/CN=team433-net
                serial:2F:FC:42:C9:3B:56:B0:53:D5:C1:CC:68:99:EB:A0:1A:8B:05:9C:A5
            X509v3 Extended Key Usage: 
                TLS Web Client Authentication
            X509v3 Key Usage: 
                Digital Signature
    Signature Algorithm: sha256WithRSAEncryption
    Signature Value:
        84:a5:9f:7e:7b:27:3e:ea:88:f8:ec:ff:5d:7e:02:7f:54:09:
        44:6b:1e:97:40:3f:9e:a2:a9:3a:50:5f:82:a5:cd:6b:e4:bf:
        47:52:53:36:b8:41:d9:ee:af:38:ab:30:d0:9e:3c:d3:57:a0:
        3c:3b:5a:8c:d9:8f:2c:f5:eb:2d:d8:d9:e1:de:b9:1e:74:ae:
        ec:34:02:f2:b6:be:74:31:be:23:68:1d:bc:f9:75:52:38:ad:
        39:34:d1:3c:26:ea:40:a8:11:e8:bc:22:cd:30:e3:81:df:31:
        65:c4:3a:c8:98:73:ad:4c:46:e9:ff:a6:59:79:2b:3a:53:41:
        16:85:3f:94:c2:ec:83:15:fe:f7:66:85:2a:24:15:03:3d:df:
        44:82:17:4f:b0:4e:01:8e:dd:21:3d:49:c3:59:1e:8f:41:7b:
        57:7d:b6:85:e8:27:94:02:0e:0d:dc:93:f6:03:07:54:af:5e:
        2a:42:f8:13:1c:a5:6e:d4:3c:47:88:38:9c:c4:ce:35:d1:29:
        00:22:ad:bb:db:32:86:a8:98:47:38:d0:92:8e:ea:3f:c2:d2:
        c2:0d:ba:01:2d:89:2b:b0:62:fd:15:97:3d:d9:44:c0:8c:cb:
        84:56:ee:02:d9:3a:1a:81:01:bb:08:f5:23:e3:b5:fc:1e:ee:
        bb:e0:19:4c
-----BEGIN CERTIFICATE-----
MIIDXTCCAkWgAwIBAgIRAIb4oUMxObWorylTzrq5eGYwDQYJKoZIhvcNAQELBQAw
FjEUMBIGA1UEAwwLdGVhbTQzMy1uZXQwHhcNMjMxMTA0MTEzNzEwWhcNMjYxMDE5
MTEzNzEwWjAZMRcwFQYDVQQDDA50ZWFtNDMzLWNsaWVudDCCASIwDQYJKoZIhvcN
AQEBBQADggEPADCCAQoCggEBAKj6Lumer+Y6pdzPUi5Cn5zoAbdv9Zd2rO0TtqtX
D2KgAo88om3A8erP8PoN3KgMz4dFS4fmkWrUBVZasCya3qgitG176U9xp/6g8mkh
ppHAdzMNILFTCwFollbl2T/1ZpUQmALr1a/vtHzt4HnxJXvX5TjHMs/RwOkhALxu
dgWqGWfWekyA0+hEho55uSFI06ScAhujp3cQt5W+Rat953dSzZqaQ/ZkWaaZwWN6
R2m4WKYfK4X+KjSsAGjh/iCZKCGCSarcnl2JRsOfdWAoqXlgrI3+Bw6vkRsjzHJG
8XODBOQApi10OHbZdGA6L5CLLnIIdwoGiXx5tf0PzrRrU90CAwEAAaOBojCBnzAJ
BgNVHRMEAjAAMB0GA1UdDgQWBBT8QTB3x07ZVaREa9OM+tIGM7lXRzBRBgNVHSME
SjBIgBRBj/hs0FE8CVPy3C28KLesJBVfiqEapBgwFjEUMBIGA1UEAwwLdGVhbTQz
My1uZXSCFC/8Qsk7VrBT1cHMaJnroBqLBZylMBMGA1UdJQQMMAoGCCsGAQUFBwMC
MAsGA1UdDwQEAwIHgDANBgkqhkiG9w0BAQsFAAOCAQEAhKWffnsnPuqI+Oz/XX4C
f1QJRGsel0A/nqKpOlBfgqXNa+S/R1JTNrhB2e6vOKsw0J4801egPDtajNmPLPXr
LdjZ4d65HnSu7DQC8ra+dDG+I2gdvPl1UjitOTTRPCbqQKgR6LwizTDjgd8xZcQ6
yJhzrUxG6f+mWXkrOlNBFoU/lMLsgxX+92aFKiQVAz3fRIIXT7BOAY7dIT1Jw1ke
j0F7V322hegnlAIODdyT9gMHVK9eKkL4ExylbtQ8R4g4nMTONdEpACKtu9syhqiY
RzjQko7qP8LSwg26AS2JK7Bi/RWXPdlEwIzLhFbuAtk6GoEBuwj1I+O1/B7uu+AZ
TA==
-----END CERTIFICATE-----
