Certificate:
    Data:
        Version: 3 (0x2)
        Serial Number:
            95:ae:61:c8:94:d6:55:72:f6:d2:1c:d8:79:d1:27:86
        Signature Algorithm: sha256WithRSAEncryption
        Issuer: CN=team433-net
        Validity
            Not Before: Nov  4 11:37:11 2023 GMT
            Not After : Oct 19 11:37:11 2026 GMT
        Subject: CN=team433-server
        Subject Public Key Info:
            Public Key Algorithm: rsaEncryption
                Public-Key: (2048 bit)
                Modulus:
                    00:db:e4:b9:29:49:4a:16:61:73:b5:a7:9d:a5:6d:
                    a5:95:69:98:79:8e:c7:7e:0c:e2:eb:87:04:2b:ff:
                    66:10:5e:35:e8:d7:c2:43:b7:b6:1d:ae:91:3c:50:
                    8e:b2:eb:e1:0c:9f:71:77:7a:ea:0c:ed:5c:cb:d0:
                    a4:c8:35:be:06:c6:65:ae:b5:39:8a:ae:07:67:89:
                    df:6e:a8:e8:20:81:49:5c:a8:63:0c:69:fe:88:10:
                    7a:4d:e1:f9:f8:f3:a1:30:57:f3:6e:2f:9c:ef:a8:
                    4e:e2:af:33:0e:75:90:cd:70:46:84:b6:21:32:da:
                    21:a6:d7:09:88:56:a5:fd:84:11:6c:14:9d:12:e8:
                    c4:f5:fe:54:79:b8:3a:6b:8f:09:f2:e3:98:0b:33:
                    71:ca:c4:3e:ce:67:55:f6:b6:7c:c7:01:4b:0f:72:
                    49:63:76:dd:1e:bd:4a:4a:f8:f9:28:4d:8a:d7:08:
                    00:78:b3:31:16:05:0c:a5:23:a5:de:2f:d6:46:cc:
                    19:ac:d1:1f:b5:c6:81:c3:8f:4c:5d:a6:b1:52:34:
                    3f:04:b0:db:6d:34:a4:f7:a6:bd:78:ea:78:0b:ee:
                    57:84:50:9d:1b:f0:c9:74:cb:89:c9:90:02:3a:8c:
                    5b:80:6d:81:58:3a:1f:41:d2:13:9b:bd:b5:e2:4a:
                    b9:bb
                Exponent: 65537 (0x10001)
        X509v3 extensions:
            X509v3 Basic Constraints: 
                CA:FALSE
            X509v3 Subject Key Identifier: 
                45:B3:F8:29:A2:5A:B9:19:61:63:59:5D:E2:99:1C:4C:B8:28:69:49
            X509v3 Authority Key Identifier: 
                keyid:41:8F:F8:6C:D0:51:3C:09:53:F2:DC:2D:BC:28:B7:AC:24:15:5F:8A
                DirName:/CN=team433-net
                serial:2F:FC:42:C9:3B:56:B0:53:D5:C1:CC:68:99:EB:A0:1A:8B:05:9C:A5
            X509v3 Extended Key Usage: 
                TLS Web Server Authentication
            X509v3 Key Usage: 
                Digital Signature, Key Encipherment
            X509v3 Subject Alternative Name: 
                DNS:team433-server
    Signature Algorithm: sha256WithRSAEncryption
    Signature Value:
        74:45:8d:90:2b:56:e0:f7:49:a0:e7:1c:4d:b3:82:f1:ee:a0:
        f7:8d:7b:4f:d6:11:3f:52:c3:0f:fc:a3:7d:c7:77:ce:9d:3c:
        68:6c:10:87:ad:46:2b:90:62:0b:48:99:72:21:15:63:92:b2:
        c2:bc:f6:20:14:ec:ea:45:56:d6:cb:de:28:7c:67:fa:f5:d6:
        51:d3:66:e4:af:f0:b8:d5:ee:3b:46:67:3a:e7:10:2b:fe:1d:
        43:86:17:aa:2f:9d:bf:f9:5f:a9:ae:be:33:8e:8a:c4:fc:73:
        fd:ca:c8:c8:8b:55:3e:b0:c8:40:72:20:37:89:ae:85:4d:5b:
        5b:33:02:93:5d:52:cb:4a:d1:4c:09:ff:5e:c8:81:4a:a9:9c:
        00:02:80:80:3f:2d:58:20:26:03:e5:38:75:26:40:dd:35:e6:
        49:6f:bc:3e:c9:2c:2f:0e:5d:b0:2c:0b:ae:18:ad:80:b6:69:
        33:96:11:de:86:33:eb:d1:02:59:f8:25:ad:01:0d:a7:84:92:
        2a:d4:28:07:a5:2f:b2:49:f2:19:ed:1a:90:be:98:9d:ec:c7:
        01:3e:67:60:27:0f:3b:06:f4:2b:97:27:9b:02:37:35:b8:7f:
        f9:dc:17:80:01:91:8c:ab:5e:c2:3a:55:7c:65:ca:97:fe:45:
        20:5f:69:77
-----BEGIN CERTIFICATE-----
MIIDeDCCAmCgAwIBAgIRAJWuYciU1lVy9tIc2HnRJ4YwDQYJKoZIhvcNAQELBQAw
FjEUMBIGA1UEAwwLdGVhbTQzMy1uZXQwHhcNMjMxMTA0MTEzNzExWhcNMjYxMDE5
MTEzNzExWjAZMRcwFQYDVQQDDA50ZWFtNDMzLXNlcnZlcjCCASIwDQYJKoZIhvcN
AQEBBQADggEPADCCAQoCggEBANvkuSlJShZhc7WnnaVtpZVpmHmOx34M4uuHBCv/
ZhBeNejXwkO3th2ukTxQjrLr4QyfcXd66gztXMvQpMg1vgbGZa61OYquB2eJ326o
6CCBSVyoYwxp/ogQek3h+fjzoTBX824vnO+oTuKvMw51kM1wRoS2ITLaIabXCYhW
pf2EEWwUnRLoxPX+VHm4OmuPCfLjmAszccrEPs5nVfa2fMcBSw9ySWN23R69Skr4
+ShNitcIAHizMRYFDKUjpd4v1kbMGazRH7XGgcOPTF2msVI0PwSw2200pPemvXjq
eAvuV4RQnRvwyXTLicmQAjqMW4BtgVg6H0HSE5u9teJKubsCAwEAAaOBvTCBujAJ
BgNVHRMEAjAAMB0GA1UdDgQWBBRFs/gpolq5GWFjWV3imRxMuChpSTBRBgNVHSME
SjBIgBRBj/hs0FE8CVPy3C28KLesJBVfiqEapBgwFjEUMBIGA1UEAwwLdGVhbTQz
My1uZXSCFC/8Qsk7VrBT1cHMaJnroBqLBZylMBMGA1UdJQQMMAoGCCsGAQUFBwMB
MAsGA1UdDwQEAwIFoDAZBgNVHREEEjAQgg50ZWFtNDMzLXNlcnZlcjANBgkqhkiG
9w0BAQsFAAOCAQEAdEWNkCtW4PdJoOccTbOC8e6g9417T9YRP1LDD/yjfcd3zp08
aGwQh61GK5BiC0iZciEVY5Kywrz2IBTs6kVW1sveKHxn+vXWUdNm5K/wuNXuO0Zn
OucQK/4dQ4YXqi+dv/lfqa6+M46KxPxz/crIyItVPrDIQHIgN4muhU1bWzMCk11S
y0rRTAn/XsiBSqmcAAKAgD8tWCAmA+U4dSZA3TXmSW+8PsksLw5dsCwLrhitgLZp
M5YR3oYz69ECWfglrQENp4SSKtQoB6UvsknyGe0akL6YnezHAT5nYCcPOwb0K5cn
mwI3Nbh/+dwXgAGRjKtewjpVfGXKl/5FIF9pdw==
-----END CERTIFICATE-----
