Certificate:
    Data:
        Version: 3 (0x2)
        Serial Number:
            9b:e4:cb:1b:0c:5a:db:e9:b8:f1:78:72:ac:7b:9d:a4
        Signature Algorithm: sha256WithRSAEncryption
        Issuer: CN=team433-net
        Validity
            Not Before: Nov  4 10:48:25 2023 GMT
            Not After : Oct 19 10:48:25 2026 GMT
        Subject: CN=team433-server
        Subject Public Key Info:
            Public Key Algorithm: rsaEncryption
                Public-Key: (2048 bit)
                Modulus:
                    00:9e:07:c5:7f:6f:f4:34:81:88:e4:df:5c:dc:86:
                    0d:65:41:97:51:a7:d7:e5:f7:31:1b:74:16:5e:52:
                    ab:a8:7d:39:8a:02:aa:7e:13:8a:53:a3:eb:b3:45:
                    74:0a:a6:c0:1b:d2:76:79:3d:04:b7:0a:77:be:03:
                    cd:c1:c6:fb:f4:13:d9:b9:1b:64:c9:fc:cf:93:4c:
                    83:32:8f:c1:7e:98:bd:62:83:57:c3:71:3f:47:d5:
                    21:6f:52:a7:62:7a:5a:de:08:48:c7:37:b0:04:3a:
                    3b:f2:de:de:d6:e7:76:b9:85:0c:0e:39:b2:3a:62:
                    46:33:f0:91:fd:91:4a:42:6c:71:2a:af:9d:51:f8:
                    97:fc:7d:2d:c4:67:6e:b5:91:4c:22:9f:e1:8a:99:
                    3b:58:5a:29:d8:e7:a3:10:6b:e7:25:5e:0e:60:3c:
                    ab:11:06:6f:ad:f5:3e:58:86:54:c3:54:9b:36:b7:
                    96:99:82:ea:63:dc:d6:a4:87:1c:a6:7d:e6:a0:2a:
                    b1:e7:60:e9:db:60:97:53:c6:62:54:d4:74:ce:e9:
                    31:27:3f:70:ba:91:7d:06:07:40:a5:94:3f:26:a0:
                    a8:21:5f:7e:7f:97:a6:28:09:f5:c5:a7:85:c5:22:
                    fe:fa:0d:8c:c8:ea:de:64:53:c4:c3:31:87:6f:01:
                    8f:d5
                Exponent: 65537 (0x10001)
        X509v3 extensions:
            X509v3 Basic Constraints: 
                CA:FALSE
            X509v3 Subject Key Identifier: 
                13:48:55:6E:D1:07:76:70:DA:4B:B3:5B:E4:3A:E1:F9:2D:A1:8F:5D
            X509v3 Authority Key Identifier: 
                keyid:DD:F0:30:89:C5:5C:84:45:05:3C:EB:9B:56:7F:F3:F8:1C:F4:86:C0
                DirName:/CN=team433-net
                serial:59:2B:B9:2D:B7:37:C9:8B:DE:FC:F1:1F:A5:85:FE:9E:AE:03:D4:CA
            X509v3 Extended Key Usage: 
                TLS Web Server Authentication
            X509v3 Key Usage: 
                Digital Signature, Key Encipherment
            X509v3 Subject Alternative Name: 
                DNS:team433-server
    Signature Algorithm: sha256WithRSAEncryption
    Signature Value:
        8b:2f:ce:cb:8e:e2:1c:7c:27:c7:eb:c5:b4:2a:b3:6e:1b:a1:
        3f:8c:2e:a6:30:40:09:2c:91:90:fa:64:55:4d:68:07:4b:db:
        2c:8b:16:e0:b0:f0:ae:54:b3:28:2e:92:ab:9b:dc:03:34:c3:
        81:2e:d2:3d:b7:ce:0b:3a:ed:99:36:56:16:e3:e2:9f:b6:fd:
        d0:3c:c4:9a:18:c2:95:10:0c:15:ba:e3:fe:0d:56:4f:a9:46:
        ac:2d:0b:f7:e7:e8:fe:8a:b0:a3:f0:af:f4:8b:98:1b:9d:50:
        fd:ae:18:d4:15:e7:20:a8:a8:c5:0c:98:b6:11:30:5f:1e:09:
        d5:b3:43:ba:ab:53:42:c0:3e:83:e5:8f:18:b5:8e:ea:4f:d2:
        52:98:16:0d:1d:82:04:8f:da:cf:61:79:3f:45:91:fb:5a:1c:
        71:bd:de:a1:10:cb:9e:50:71:51:63:f4:6b:b6:47:6a:55:53:
        d2:4a:9d:92:c4:98:4d:0f:18:ab:6c:cf:17:ae:35:6b:1f:ec:
        32:55:00:c9:19:ed:ae:36:ca:1b:aa:d8:09:96:ce:67:de:fe:
        10:c0:0c:a8:a6:2c:53:a7:63:ad:7a:e1:68:9f:c2:6d:55:76:
        2d:26:68:14:8a:d3:26:a2:67:60:f6:44:72:b4:32:6f:84:d6:
        50:fd:de:50
-----BEGIN CERTIFICATE-----
MIIDeDCCAmCgAwIBAgIRAJvkyxsMWtvpuPF4cqx7naQwDQYJKoZIhvcNAQELBQAw
FjEUMBIGA1UEAwwLdGVhbTQzMy1uZXQwHhcNMjMxMTA0MTA0ODI1WhcNMjYxMDE5
MTA0ODI1WjAZMRcwFQYDVQQDDA50ZWFtNDMzLXNlcnZlcjCCASIwDQYJKoZIhvcN
AQEBBQADggEPADCCAQoCggEBAJ4HxX9v9DSBiOTfXNyGDWVBl1Gn1+X3MRt0Fl5S
q6h9OYoCqn4TilOj67NFdAqmwBvSdnk9BLcKd74DzcHG+/QT2bkbZMn8z5NMgzKP
wX6YvWKDV8NxP0fVIW9Sp2J6Wt4ISMc3sAQ6O/Le3tbndrmFDA45sjpiRjPwkf2R
SkJscSqvnVH4l/x9LcRnbrWRTCKf4YqZO1haKdjnoxBr5yVeDmA8qxEGb631PliG
VMNUmza3lpmC6mPc1qSHHKZ95qAqsedg6dtgl1PGYlTUdM7pMSc/cLqRfQYHQKWU
PyagqCFffn+XpigJ9cWnhcUi/voNjMjq3mRTxMMxh28Bj9UCAwEAAaOBvTCBujAJ
BgNVHRMEAjAAMB0GA1UdDgQWBBQTSFVu0Qd2cNpLs1vkOuH5LaGPXTBRBgNVHSME
SjBIgBTd8DCJxVyERQU865tWf/P4HPSGwKEapBgwFjEUMBIGA1UEAwwLdGVhbTQz
My1uZXSCFFkruS23N8mL3vzxH6WF/p6uA9TKMBMGA1UdJQQMMAoGCCsGAQUFBwMB
MAsGA1UdDwQEAwIFoDAZBgNVHREEEjAQgg50ZWFtNDMzLXNlcnZlcjANBgkqhkiG
9w0BAQsFAAOCAQEAiy/Oy47iHHwnx+vFtCqzbhuhP4wupjBACSyRkPpkVU1oB0vb
LIsW4LDwrlSzKC6Sq5vcAzTDgS7SPbfOCzrtmTZWFuPin7b90DzEmhjClRAMFbrj
/g1WT6lGrC0L9+fo/oqwo/Cv9IuYG51Q/a4Y1BXnIKioxQyYthEwXx4J1bNDuqtT
QsA+g+WPGLWO6k/SUpgWDR2CBI/az2F5P0WR+1occb3eoRDLnlBxUWP0a7ZHalVT
0kqdksSYTQ8Yq2zPF641ax/sMlUAyRntrjbKG6rYCZbOZ97+EMAMqKYsU6djrXrh
aJ/CbVV2LSZoFIrTJqJnYPZEcrQyb4TWUP3eUA==
-----END CERTIFICATE-----
