Certificate:
    Data:
        Version: 3 (0x2)
        Serial Number:
            44:3d:8a:ee:f6:d0:8f:5f:ac:af:30:17:fe:61:a6:c4
        Signature Algorithm: sha256WithRSAEncryption
        Issuer: CN=team488-net
        Validity
            Not Before: Nov  3 20:48:09 2023 GMT
            Not After : Oct 18 20:48:09 2026 GMT
        Subject: CN=team488-server
        Subject Public Key Info:
            Public Key Algorithm: rsaEncryption
                Public-Key: (2048 bit)
                Modulus:
                    00:b1:a9:03:ab:0e:8e:15:93:db:b6:fc:76:b6:95:
                    70:2d:c5:3c:ce:86:b2:8b:42:e1:f1:25:3d:ff:f0:
                    e2:49:d4:5c:d5:03:c9:25:8d:e0:18:85:e3:58:f5:
                    f6:20:94:89:18:38:ab:38:6a:5e:2f:dc:43:16:aa:
                    2a:86:8b:25:d4:37:91:3a:a2:5d:c7:21:aa:98:a8:
                    53:87:cf:f9:ed:ce:c7:95:60:2e:a9:6e:19:a1:ad:
                    cc:6f:07:26:8d:e1:f0:b6:51:d8:db:4d:7c:d4:85:
                    a2:62:49:5e:2f:d7:34:fd:d9:be:11:bf:d7:ae:83:
                    59:51:e4:6f:84:0c:a3:4c:cd:fe:6a:2d:48:a9:1f:
                    81:36:2d:c7:f6:db:88:9b:ee:a5:92:a9:20:3c:22:
                    a4:98:8e:95:60:8b:a9:95:48:88:06:1e:b5:70:ce:
                    f0:a9:28:51:56:48:d3:2c:73:01:4f:73:72:71:08:
                    22:0b:31:87:31:ce:f8:57:0e:db:54:4b:0f:10:b4:
                    57:9c:e9:88:12:7a:01:5a:59:92:b2:af:6c:eb:b9:
                    c3:14:50:4d:7c:31:7b:c1:3f:52:81:8f:dd:42:17:
                    09:24:a8:3f:e2:ee:08:09:e5:72:73:d7:2d:30:70:
                    aa:7d:66:f7:0b:2c:ff:d5:98:97:5f:80:b7:4f:9c:
                    89:6b
                Exponent: 65537 (0x10001)
        X509v3 extensions:
            X509v3 Basic Constraints: 
                CA:FALSE
            X509v3 Subject Key Identifier: 
                E4:87:50:B3:97:DD:97:B5:BE:6C:8F:EA:9B:B9:4F:85:1C:75:80:B6
            X509v3 Authority Key Identifier: 
                keyid:72:1A:99:40:D0:47:63:60:A0:6C:88:BE:65:09:24:72:36:3B:00:12
                DirName:/CN=team488-net
                serial:4E:E6:E3:07:7C:8E:FF:FB:CC:8D:D0:32:0C:3B:59:FF:9F:45:D9:30
            X509v3 Extended Key Usage: 
                TLS Web Server Authentication
            X509v3 Key Usage: 
                Digital Signature, Key Encipherment
            X509v3 Subject Alternative Name: 
                DNS:team488-server
    Signature Algorithm: sha256WithRSAEncryption
    Signature Value:
        13:6f:1d:5f:0b:a4:50:1c:ad:e4:f5:79:44:f2:d3:e4:66:ef:
        b7:a1:a0:d7:32:62:34:12:4f:9c:ab:29:a3:63:f8:7b:02:31:
        80:07:31:da:91:ed:75:09:4e:e9:c9:ae:42:81:11:43:c2:4b:
        ed:0f:4f:dc:b9:80:54:7c:0a:2c:c8:09:47:97:be:f5:cd:b1:
        36:be:3d:56:f3:53:00:db:8d:ca:95:d1:37:82:ad:44:09:eb:
        43:8c:48:40:bb:15:e0:de:ac:78:f9:37:7d:62:ef:78:f8:10:
        37:25:9f:ec:17:e6:ae:32:4c:4a:78:40:ef:03:d3:6a:0c:67:
        28:2e:ba:d0:72:28:16:c4:4f:aa:b1:be:f8:88:2a:2b:e2:df:
        9b:8a:02:38:9d:59:ed:ee:65:b4:c7:46:1d:8f:25:41:dd:39:
        f9:90:a9:77:b5:06:6e:8a:26:8c:a3:db:f0:16:ff:ff:5f:dd:
        bc:0a:58:7c:34:d8:ad:d4:9d:95:a5:75:08:f7:e8:3e:3d:57:
        39:da:a4:89:56:04:b8:05:c6:f7:06:53:0c:68:0b:ae:a8:93:
        90:66:c0:e5:66:27:71:70:f0:b0:80:b2:9a:ed:86:a4:43:c4:
        75:9e:2e:e0:84:49:af:79:c1:93:5a:f5:f1:5f:0d:d6:19:f0:
        a5:19:2a:5e
-----BEGIN CERTIFICATE-----
MIIDdzCCAl+gAwIBAgIQRD2K7vbQj1+srzAX/mGmxDANBgkqhkiG9w0BAQsFADAW
MRQwEgYDVQQDDAt0ZWFtNDg4LW5ldDAeFw0yMzExMDMyMDQ4MDlaFw0yNjEwMTgy
MDQ4MDlaMBkxFzAVBgNVBAMMDnRlYW00ODgtc2VydmVyMIIBIjANBgkqhkiG9w0B
AQEFAAOCAQ8AMIIBCgKCAQEAsakDqw6OFZPbtvx2tpVwLcU8zoayi0Lh8SU9//Di
SdRc1QPJJY3gGIXjWPX2IJSJGDirOGpeL9xDFqoqhosl1DeROqJdxyGqmKhTh8/5
7c7HlWAuqW4Zoa3MbwcmjeHwtlHY20181IWiYkleL9c0/dm+Eb/XroNZUeRvhAyj
TM3+ai1IqR+BNi3H9tuIm+6lkqkgPCKkmI6VYIuplUiIBh61cM7wqShRVkjTLHMB
T3NycQgiCzGHMc74Vw7bVEsPELRXnOmIEnoBWlmSsq9s67nDFFBNfDF7wT9SgY/d
QhcJJKg/4u4ICeVyc9ctMHCqfWb3Cyz/1ZiXX4C3T5yJawIDAQABo4G9MIG6MAkG
A1UdEwQCMAAwHQYDVR0OBBYEFOSHULOX3Ze1vmyP6pu5T4UcdYC2MFEGA1UdIwRK
MEiAFHIamUDQR2NgoGyIvmUJJHI2OwASoRqkGDAWMRQwEgYDVQQDDAt0ZWFtNDg4
LW5ldIIUTubjB3yO//vMjdAyDDtZ/59F2TAwEwYDVR0lBAwwCgYIKwYBBQUHAwEw
CwYDVR0PBAQDAgWgMBkGA1UdEQQSMBCCDnRlYW00ODgtc2VydmVyMA0GCSqGSIb3
DQEBCwUAA4IBAQATbx1fC6RQHK3k9XlE8tPkZu+3oaDXMmI0Ek+cqymjY/h7AjGA
BzHake11CU7pya5CgRFDwkvtD0/cuYBUfAosyAlHl771zbE2vj1W81MA243KldE3
gq1ECetDjEhAuxXg3qx4+Td9Yu94+BA3JZ/sF+auMkxKeEDvA9NqDGcoLrrQcigW
xE+qsb74iCor4t+bigI4nVnt7mW0x0YdjyVB3Tn5kKl3tQZuiiaMo9vwFv//X928
Clh8NNit1J2VpXUI9+g+PVc52qSJVgS4Bcb3BlMMaAuuqJOQZsDlZidxcPCwgLKa
7YakQ8R1ni7ghEmvecGTWvXxXw3WGfClGSpe
-----END CERTIFICATE-----
