Certificate:
    Data:
        Version: 3 (0x2)
        Serial Number:
            15:ae:ab:97:76:6b:57:52:84:e6:6b:f2:c8:54:d7:02
        Signature Algorithm: sha256WithRSAEncryption
        Issuer: CN=team82-net
        Validity
            Not Before: Nov  4 11:28:58 2023 GMT
            Not After : Oct 19 11:28:58 2026 GMT
        Subject: CN=team82-server
        Subject Public Key Info:
            Public Key Algorithm: rsaEncryption
                Public-Key: (2048 bit)
                Modulus:
                    00:cb:72:0b:c5:0f:97:d9:a4:36:80:1f:b3:7e:34:
                    af:1d:e8:d9:55:98:dd:0f:0b:65:2d:6b:e0:8d:52:
                    da:4e:45:d6:75:f2:28:e2:1f:a2:0c:e5:77:2f:c1:
                    7a:42:89:b7:42:84:47:c2:44:cd:2c:68:03:ff:e4:
                    7c:b3:4a:bc:4d:96:4d:2a:d3:69:03:e2:d8:41:95:
                    0e:df:a5:e5:09:82:5d:e0:fc:f3:7b:15:09:00:88:
                    a5:e8:df:16:74:57:2a:45:29:98:35:39:6d:04:d2:
                    42:09:ca:c9:44:b3:49:25:b8:59:d3:65:b0:cb:98:
                    1c:43:21:84:72:4f:ef:31:6b:91:df:03:d2:1a:aa:
                    d9:08:1b:1e:d6:d9:33:9a:ee:39:3c:cd:04:2b:cd:
                    23:46:1c:51:46:d8:9a:4c:ad:e5:79:13:d0:d6:1d:
                    07:d3:e0:31:92:2c:04:65:7c:0d:33:3e:dc:57:51:
                    9c:a9:51:ee:d0:34:d1:a2:91:c8:d5:56:4e:e8:e2:
                    7c:43:9c:e5:b8:7d:78:44:bb:a4:ba:92:2f:b9:6d:
                    f3:43:97:88:0c:83:e8:41:1b:ee:92:56:fc:5d:0f:
                    40:0a:8e:19:f5:9a:7e:bc:5a:1c:cd:c8:7e:af:f4:
                    04:17:b3:61:54:9d:6d:3b:8f:b4:6a:0c:90:c1:db:
                    2d:13
                Exponent: 65537 (0x10001)
        X509v3 extensions:
            X509v3 Basic Constraints: 
                CA:FALSE
            X509v3 Subject Key Identifier: 
                58:8D:62:C7:C4:1C:8D:E2:A0:85:56:C3:97:94:61:41:B2:8B:D9:29
            X509v3 Authority Key Identifier: 
                keyid:C1:2F:41:C2:64:24:3D:28:D9:88:FD:E9:FC:54:6B:E4:D3:CC:75:6B
                DirName:/CN=team82-net
                serial:46:96:40:81:53:F9:25:80:F8:D8:F4:D9:2D:B2:60:E5:06:F0:72:9D
            X509v3 Extended Key Usage: 
                TLS Web Server Authentication
            X509v3 Key Usage: 
                Digital Signature, Key Encipherment
            X509v3 Subject Alternative Name: 
                DNS:team82-server
    Signature Algorithm: sha256WithRSAEncryption
    Signature Value:
        72:37:a2:84:99:81:e5:08:e2:54:d1:2d:dc:a2:6d:51:c3:d0:
        9d:9b:40:41:76:00:9b:1f:b7:b8:dd:f4:bd:e2:44:7a:09:9a:
        4b:1c:71:ac:b6:48:6e:d8:75:28:55:14:69:0b:02:50:6c:2d:
        41:43:02:85:80:cb:71:79:c8:13:1a:49:8a:64:b8:15:ba:ed:
        7b:67:87:6d:87:c3:a4:42:2c:49:7f:da:8f:61:3d:f0:14:52:
        1c:3e:af:72:57:9c:02:17:bf:5b:e1:bf:8d:18:05:16:c6:34:
        65:b0:a7:c4:7e:c1:ff:4b:c8:a7:a3:73:e1:39:cf:45:cb:6a:
        97:f7:fd:33:0f:25:0c:d7:be:a9:0f:23:1c:f5:30:49:52:cf:
        5c:bf:dc:16:12:0f:58:d4:11:78:be:e4:53:82:68:5b:22:76:
        3f:d2:c0:e8:3f:84:d3:e2:53:31:ce:6f:31:dc:25:c7:59:4b:
        ba:54:c1:ed:23:bf:ea:c9:1c:f0:82:ff:40:f7:86:73:b9:7c:
        d7:94:30:c0:17:bf:59:ff:00:10:4b:c1:20:07:84:e6:80:e3:
        d4:de:4b:79:fd:53:e4:13:4f:4c:95:26:ae:96:4c:02:a4:34:
        6c:38:b1:9a:83:8e:62:0c:cb:9d:17:c9:e5:6a:bc:ac:63:55:
        d7:68:c6:80
-----BEGIN CERTIFICATE-----
MIIDczCCAlugAwIBAgIQFa6rl3ZrV1KE5mvyyFTXAjANBgkqhkiG9w0BAQsFADAV
MRMwEQYDVQQDDAp0ZWFtODItbmV0MB4XDTIzMTEwNDExMjg1OFoXDTI2MTAxOTEx
Mjg1OFowGDEWMBQGA1UEAwwNdGVhbTgyLXNlcnZlcjCCASIwDQYJKoZIhvcNAQEB
BQADggEPADCCAQoCggEBAMtyC8UPl9mkNoAfs340rx3o2VWY3Q8LZS1r4I1S2k5F
1nXyKOIfogzldy/BekKJt0KER8JEzSxoA//kfLNKvE2WTSrTaQPi2EGVDt+l5QmC
XeD883sVCQCIpejfFnRXKkUpmDU5bQTSQgnKyUSzSSW4WdNlsMuYHEMhhHJP7zFr
kd8D0hqq2QgbHtbZM5ruOTzNBCvNI0YcUUbYmkyt5XkT0NYdB9PgMZIsBGV8DTM+
3FdRnKlR7tA00aKRyNVWTujifEOc5bh9eES7pLqSL7lt80OXiAyD6EEb7pJW/F0P
QAqOGfWafrxaHM3Ifq/0BBezYVSdbTuPtGoMkMHbLRMCAwEAAaOBuzCBuDAJBgNV
HRMEAjAAMB0GA1UdDgQWBBRYjWLHxByN4qCFVsOXlGFBsovZKTBQBgNVHSMESTBH
gBTBL0HCZCQ9KNmI/en8VGvk08x1a6EZpBcwFTETMBEGA1UEAwwKdGVhbTgyLW5l
dIIURpZAgVP5JYD42PTZLbJg5Qbwcp0wEwYDVR0lBAwwCgYIKwYBBQUHAwEwCwYD
VR0PBAQDAgWgMBgGA1UdEQQRMA+CDXRlYW04Mi1zZXJ2ZXIwDQYJKoZIhvcNAQEL
BQADggEBAHI3ooSZgeUI4lTRLdyibVHD0J2bQEF2AJsft7jd9L3iRHoJmksccay2
SG7YdShVFGkLAlBsLUFDAoWAy3F5yBMaSYpkuBW67Xtnh22Hw6RCLEl/2o9hPfAU
Uhw+r3JXnAIXv1vhv40YBRbGNGWwp8R+wf9LyKejc+E5z0XLapf3/TMPJQzXvqkP
Ixz1MElSz1y/3BYSD1jUEXi+5FOCaFsidj/SwOg/hNPiUzHObzHcJcdZS7pUwe0j
v+rJHPCC/0D3hnO5fNeUMMAXv1n/ABBLwSAHhOaA49TeS3n9U+QTT0yVJq6WTAKk
NGw4sZqDjmIMy50XyeVqvKxjVddoxoA=
-----END CERTIFICATE-----
