Certificate:
    Data:
        Version: 3 (0x2)
        Serial Number:
            38:2a:21:4f:43:58:a6:03:9c:a5:d4:31:db:99:63:43
        Signature Algorithm: sha256WithRSAEncryption
        Issuer: CN=team82-net
        Validity
            Not Before: Nov  4 10:41:56 2023 GMT
            Not After : Oct 19 10:41:56 2026 GMT
        Subject: CN=team82-server
        Subject Public Key Info:
            Public Key Algorithm: rsaEncryption
                Public-Key: (2048 bit)
                Modulus:
                    00:b9:6a:91:a5:56:87:32:01:75:1d:06:cd:9a:4c:
                    8a:8c:61:f6:78:d8:b5:5e:7a:1f:7f:31:c2:22:fb:
                    a8:af:f4:4a:57:06:9f:10:a3:a9:02:31:6a:89:6f:
                    ee:13:23:cd:fd:0d:aa:f0:4b:d0:85:65:06:d6:9b:
                    e4:b4:7c:fc:24:cf:85:20:4e:9c:a2:d4:e6:61:35:
                    16:7e:bd:cc:9a:07:9b:95:92:07:99:99:58:5e:6a:
                    51:f4:6c:86:94:94:6f:04:03:ac:74:74:ec:7f:0c:
                    57:d4:33:f2:8c:fd:48:38:b5:45:67:ad:9c:1d:d0:
                    37:01:f9:e6:46:b7:80:aa:c4:ae:b2:53:ed:d9:4f:
                    88:59:03:f7:c8:f5:a3:d1:d4:52:62:c8:29:f7:69:
                    6b:4f:ee:36:e9:3b:73:7f:89:51:f6:8a:10:d0:61:
                    d2:de:73:cc:40:24:de:2c:56:b2:84:87:43:c2:d3:
                    28:7e:2f:43:e3:32:06:a0:28:7c:f3:63:b6:a4:d2:
                    b6:f2:10:65:dc:24:34:1f:26:a6:c6:34:50:f1:12:
                    ab:65:5f:7f:e0:1a:b7:85:3c:55:65:5c:d9:76:86:
                    c7:9d:c2:b6:91:4f:f7:88:fa:9e:bb:70:5d:9d:88:
                    86:99:dd:f2:d3:a9:06:7e:77:3c:0f:a5:57:76:8f:
                    f8:f5
                Exponent: 65537 (0x10001)
        X509v3 extensions:
            X509v3 Basic Constraints: 
                CA:FALSE
            X509v3 Subject Key Identifier: 
                5B:BC:31:2A:98:AB:BE:F1:0D:FB:36:94:11:11:13:F9:BB:CC:E3:72
            X509v3 Authority Key Identifier: 
                keyid:5A:EA:0A:5F:76:D4:61:56:B8:43:31:7E:00:8D:E1:43:A5:66:F5:77
                DirName:/CN=team82-net
                serial:73:4D:E0:26:7A:76:61:2D:29:0F:ED:A1:C3:E0:7D:11:D8:C3:6D:D9
            X509v3 Extended Key Usage: 
                TLS Web Server Authentication
            X509v3 Key Usage: 
                Digital Signature, Key Encipherment
            X509v3 Subject Alternative Name: 
                DNS:team82-server
    Signature Algorithm: sha256WithRSAEncryption
    Signature Value:
        6c:4d:e0:5a:70:51:20:50:60:16:5b:65:8b:0c:36:f2:fa:06:
        be:42:22:d2:74:0b:74:7a:a3:ee:a4:cc:3d:18:6c:93:6c:85:
        c0:e0:49:c1:69:b0:61:27:ff:c0:45:f5:dc:43:25:a9:d7:67:
        8f:48:a3:93:38:0f:0a:14:f7:15:b0:a6:c1:dd:f1:0c:11:a8:
        f9:16:d3:d2:43:2c:7a:f5:74:2c:34:2f:7a:66:7a:63:c9:7a:
        04:a9:6d:ac:d6:55:98:9f:97:57:14:66:1e:e6:1f:65:15:cd:
        c7:ed:61:61:e1:f5:fd:b5:d1:78:7b:ce:01:37:f6:78:61:34:
        79:07:eb:29:4d:90:45:13:00:03:98:df:b5:4f:c6:2f:10:8a:
        a9:30:58:23:1a:65:31:17:6f:30:4f:5b:98:f8:3d:90:4f:bf:
        5a:67:d7:40:86:9e:a2:66:8f:06:41:fc:4f:b7:2f:e9:a3:55:
        3c:0b:0d:26:dc:b9:07:fc:f8:56:b2:1a:23:d5:db:de:4f:3a:
        29:93:e0:72:2c:f3:02:15:53:6d:81:f4:72:26:7e:31:de:ae:
        7f:2a:43:96:09:20:6b:c2:53:f1:9a:47:9b:6b:e5:13:3d:fc:
        2b:e8:7a:72:db:80:e5:97:66:94:7c:85:b2:37:ad:2b:b1:04:
        3f:76:ee:ea
-----BEGIN CERTIFICATE-----
MIIDczCCAlugAwIBAgIQOCohT0NYpgOcpdQx25ljQzANBgkqhkiG9w0BAQsFADAV
MRMwEQYDVQQDDAp0ZWFtODItbmV0MB4XDTIzMTEwNDEwNDE1NloXDTI2MTAxOTEw
NDE1NlowGDEWMBQGA1UEAwwNdGVhbTgyLXNlcnZlcjCCASIwDQYJKoZIhvcNAQEB
BQADggEPADCCAQoCggEBALlqkaVWhzIBdR0GzZpMioxh9njYtV56H38xwiL7qK/0
SlcGnxCjqQIxaolv7hMjzf0NqvBL0IVlBtab5LR8/CTPhSBOnKLU5mE1Fn69zJoH
m5WSB5mZWF5qUfRshpSUbwQDrHR07H8MV9Qz8oz9SDi1RWetnB3QNwH55ka3gKrE
rrJT7dlPiFkD98j1o9HUUmLIKfdpa0/uNuk7c3+JUfaKENBh0t5zzEAk3ixWsoSH
Q8LTKH4vQ+MyBqAofPNjtqTStvIQZdwkNB8mpsY0UPESq2Vff+Aat4U8VWVc2XaG
x53CtpFP94j6nrtwXZ2Ihpnd8tOpBn53PA+lV3aP+PUCAwEAAaOBuzCBuDAJBgNV
HRMEAjAAMB0GA1UdDgQWBBRbvDEqmKu+8Q37NpQRERP5u8zjcjBQBgNVHSMESTBH
gBRa6gpfdtRhVrhDMX4AjeFDpWb1d6EZpBcwFTETMBEGA1UEAwwKdGVhbTgyLW5l
dIIUc03gJnp2YS0pD+2hw+B9EdjDbdkwEwYDVR0lBAwwCgYIKwYBBQUHAwEwCwYD
VR0PBAQDAgWgMBgGA1UdEQQRMA+CDXRlYW04Mi1zZXJ2ZXIwDQYJKoZIhvcNAQEL
BQADggEBAGxN4FpwUSBQYBZbZYsMNvL6Br5CItJ0C3R6o+6kzD0YbJNshcDgScFp
sGEn/8BF9dxDJanXZ49Io5M4DwoU9xWwpsHd8QwRqPkW09JDLHr1dCw0L3pmemPJ
egSpbazWVZifl1cUZh7mH2UVzcftYWHh9f210Xh7zgE39nhhNHkH6ylNkEUTAAOY
37VPxi8QiqkwWCMaZTEXbzBPW5j4PZBPv1pn10CGnqJmjwZB/E+3L+mjVTwLDSbc
uQf8+FayGiPV295POimT4HIs8wIVU22B9HImfjHern8qQ5YJIGvCU/GaR5tr5RM9
/CvoenLbgOWXZpR8hbI3rSuxBD927uo=
-----END CERTIFICATE-----
