Certificate:
    Data:
        Version: 3 (0x2)
        Serial Number:
            5b:80:74:f1:75:c3:10:2f:b2:2f:a9:7e:28:79:2e:f2
        Signature Algorithm: sha256WithRSAEncryption
        Issuer: CN=team82-net
        Validity
            Not Before: Nov  4 10:41:56 2023 GMT
            Not After : Oct 19 10:41:56 2026 GMT
        Subject: CN=team82-client
        Subject Public Key Info:
            Public Key Algorithm: rsaEncryption
                Public-Key: (2048 bit)
                Modulus:
                    00:b9:f7:a5:f5:a4:19:ac:db:12:db:47:b5:c7:8a:
                    92:57:4e:f1:e4:44:2a:48:fb:68:98:c3:56:8b:10:
                    cd:ee:6b:38:15:08:68:59:3d:9a:4c:e2:85:bb:a2:
                    35:89:7a:c8:8f:0f:64:10:b0:a5:01:26:7d:6f:ba:
                    bc:bb:22:d5:96:75:41:d9:75:21:72:84:f1:80:f6:
                    e1:9e:c9:e8:42:f5:92:0e:1f:f1:1b:ce:36:2a:e0:
                    93:53:cc:92:b5:e3:02:07:be:85:fb:78:c1:f5:42:
                    52:c5:5d:2e:3c:39:16:4f:44:e6:83:ee:81:32:ea:
                    0d:c4:bc:8c:d1:80:f8:25:55:71:b0:3b:f6:3e:b5:
                    fb:97:76:e9:da:3e:21:37:92:1f:d9:08:ec:57:8c:
                    36:f5:30:bc:47:03:e7:c4:ec:ca:79:24:fd:91:99:
                    39:04:9b:d7:9a:b4:01:e8:bd:82:28:3c:f0:8b:76:
                    20:25:3b:d0:e3:6b:57:68:47:ec:30:f5:8f:01:66:
                    fb:7b:d9:67:8a:22:de:62:26:53:18:74:08:ff:c0:
                    bf:19:48:15:bd:ef:9c:bb:1d:58:89:21:36:ec:fa:
                    9c:a7:30:04:28:95:49:03:1a:5e:4c:d4:65:82:4b:
                    31:2f:ae:6c:ff:3c:cd:6c:bd:94:f4:58:b7:5b:73:
                    37:3d
                Exponent: 65537 (0x10001)
        X509v3 extensions:
            X509v3 Basic Constraints: 
                CA:FALSE
            X509v3 Subject Key Identifier: 
                A3:14:E6:A2:0D:9E:DF:39:98:E6:71:79:39:D3:AC:83:8B:50:8A:B4
            X509v3 Authority Key Identifier: 
                keyid:5A:EA:0A:5F:76:D4:61:56:B8:43:31:7E:00:8D:E1:43:A5:66:F5:77
                DirName:/CN=team82-net
                serial:73:4D:E0:26:7A:76:61:2D:29:0F:ED:A1:C3:E0:7D:11:D8:C3:6D:D9
            X509v3 Extended Key Usage: 
                TLS Web Client Authentication
            X509v3 Key Usage: 
                Digital Signature
    Signature Algorithm: sha256WithRSAEncryption
    Signature Value:
        53:04:b6:24:27:29:32:27:0b:75:b3:ec:47:fb:96:65:fb:a5:
        80:20:cf:92:ce:2c:9d:49:5f:26:3d:ee:cb:70:54:0d:f9:ab:
        b7:c2:db:7c:e0:1d:af:1c:a1:b6:1d:13:3c:53:19:82:63:5f:
        71:41:f1:cc:bd:68:c8:83:f8:8c:47:4f:4e:62:a0:3a:bf:18:
        57:25:60:1c:ff:40:f2:fb:b4:db:53:be:9b:db:37:d1:84:17:
        0d:e4:2f:56:46:6c:e9:2a:6b:43:7a:13:00:48:3b:fc:cc:e6:
        bf:c6:05:b1:4b:3a:1b:1b:90:7d:6b:12:db:2d:ac:aa:b0:4b:
        89:3b:6b:e4:b8:39:54:c4:63:87:03:d1:c1:50:21:be:9b:29:
        8b:9e:36:b6:17:ec:bb:a6:90:a0:be:2d:81:9a:3e:25:5b:e0:
        9f:2d:f4:a1:28:9a:9e:0f:75:d9:87:4a:24:ac:59:90:c9:a2:
        b4:b0:0f:06:a3:09:0b:b1:bb:4d:b7:b0:90:35:11:7c:97:bf:
        1a:3a:8b:80:32:e6:e0:af:cd:43:e1:e3:f9:64:0b:22:23:43:
        04:21:03:da:e2:64:16:90:4c:68:b9:78:87:a9:56:34:4d:a4:
        43:7b:7b:57:97:e5:f1:87:e7:5f:ce:54:cf:cb:48:77:d7:0c:
        ea:14:80:81
-----BEGIN CERTIFICATE-----
MIIDWTCCAkGgAwIBAgIQW4B08XXDEC+yL6l+KHku8jANBgkqhkiG9w0BAQsFADAV
MRMwEQYDVQQDDAp0ZWFtODItbmV0MB4XDTIzMTEwNDEwNDE1NloXDTI2MTAxOTEw
NDE1NlowGDEWMBQGA1UEAwwNdGVhbTgyLWNsaWVudDCCASIwDQYJKoZIhvcNAQEB
BQADggEPADCCAQoCggEBALn3pfWkGazbEttHtceKkldO8eREKkj7aJjDVosQze5r
OBUIaFk9mkzihbuiNYl6yI8PZBCwpQEmfW+6vLsi1ZZ1Qdl1IXKE8YD24Z7J6EL1
kg4f8RvONirgk1PMkrXjAge+hft4wfVCUsVdLjw5Fk9E5oPugTLqDcS8jNGA+CVV
cbA79j61+5d26do+ITeSH9kI7FeMNvUwvEcD58Tsynkk/ZGZOQSb15q0Aei9gig8
8It2ICU70ONrV2hH7DD1jwFm+3vZZ4oi3mImUxh0CP/AvxlIFb3vnLsdWIkhNuz6
nKcwBCiVSQMaXkzUZYJLMS+ubP88zWy9lPRYt1tzNz0CAwEAAaOBoTCBnjAJBgNV
HRMEAjAAMB0GA1UdDgQWBBSjFOaiDZ7fOZjmcXk506yDi1CKtDBQBgNVHSMESTBH
gBRa6gpfdtRhVrhDMX4AjeFDpWb1d6EZpBcwFTETMBEGA1UEAwwKdGVhbTgyLW5l
dIIUc03gJnp2YS0pD+2hw+B9EdjDbdkwEwYDVR0lBAwwCgYIKwYBBQUHAwIwCwYD
VR0PBAQDAgeAMA0GCSqGSIb3DQEBCwUAA4IBAQBTBLYkJykyJwt1s+xH+5Zl+6WA
IM+SziydSV8mPe7LcFQN+au3wtt84B2vHKG2HRM8UxmCY19xQfHMvWjIg/iMR09O
YqA6vxhXJWAc/0Dy+7TbU76b2zfRhBcN5C9WRmzpKmtDehMASDv8zOa/xgWxSzob
G5B9axLbLayqsEuJO2vkuDlUxGOHA9HBUCG+mymLnja2F+y7ppCgvi2Bmj4lW+Cf
LfShKJqeD3XZh0okrFmQyaK0sA8GowkLsbtNt7CQNRF8l78aOouAMubgr81D4eP5
ZAsiI0MEIQPa4mQWkExouXiHqVY0TaRDe3tXl+Xxh+dfzlTPy0h31wzqFICB
-----END CERTIFICATE-----
