Certificate:
    Data:
        Version: 3 (0x2)
        Serial Number:
            bf:23:2f:f2:e1:48:32:30:d8:f0:e7:6b:a4:bf:f6:47
        Signature Algorithm: sha256WithRSAEncryption
        Issuer: CN=team82-net
        Validity
            Not Before: Nov  3 20:40:36 2023 GMT
            Not After : Oct 18 20:40:36 2026 GMT
        Subject: CN=team82-server
        Subject Public Key Info:
            Public Key Algorithm: rsaEncryption
                Public-Key: (2048 bit)
                Modulus:
                    00:e3:ed:ac:0c:e3:05:09:96:d6:b9:26:06:c2:af:
                    2e:ce:ad:20:fa:7b:f8:59:0e:8a:ab:77:08:97:4f:
                    b6:4c:33:69:9c:5c:57:c2:67:ad:0d:8b:13:bf:59:
                    63:9d:5e:d6:1a:45:6d:1c:be:82:64:2d:71:cc:48:
                    a4:b6:3d:c2:42:a2:19:77:38:18:82:82:fd:8d:01:
                    ed:33:35:6a:50:9a:f2:19:0d:05:30:b2:73:70:53:
                    b0:cf:ac:c6:5c:04:b5:c0:48:b5:34:fd:20:f9:49:
                    07:60:93:4c:6c:3a:ae:9c:8f:0a:cc:52:f6:aa:83:
                    95:aa:09:80:46:eb:33:e5:3f:48:c2:67:b7:3a:03:
                    31:77:6d:51:25:76:92:12:94:11:2e:ef:94:2a:86:
                    e0:f6:c5:b3:c8:92:01:d3:8a:8f:4c:f7:6a:e3:d0:
                    1f:1b:65:58:25:c4:75:4a:75:08:28:0e:34:64:83:
                    ca:be:41:0d:9f:6b:1e:e1:60:4e:66:e3:e7:6a:28:
                    1f:de:31:5a:f9:77:ff:1a:6a:27:61:50:b3:e2:e6:
                    bd:9b:c9:11:16:29:3a:88:d1:f2:29:87:93:b4:95:
                    b5:3b:20:82:94:20:83:a7:f8:18:6a:63:4c:bd:b5:
                    3a:41:d5:1a:07:c7:15:b8:38:5b:9c:f7:18:e7:d5:
                    32:1b
                Exponent: 65537 (0x10001)
        X509v3 extensions:
            X509v3 Basic Constraints: 
                CA:FALSE
            X509v3 Subject Key Identifier: 
                D0:D1:64:AA:BC:59:72:23:2D:6C:E8:D4:DF:37:58:D9:0F:13:35:16
            X509v3 Authority Key Identifier: 
                keyid:C8:76:F8:14:F1:5B:2E:39:0B:01:A4:BA:C9:EA:21:20:26:32:B5:43
                DirName:/CN=team82-net
                serial:52:F2:77:7E:6F:89:E2:D8:08:2A:F2:9B:05:CC:6F:3E:A4:83:57:08
            X509v3 Extended Key Usage: 
                TLS Web Server Authentication
            X509v3 Key Usage: 
                Digital Signature, Key Encipherment
            X509v3 Subject Alternative Name: 
                DNS:team82-server
    Signature Algorithm: sha256WithRSAEncryption
    Signature Value:
        20:77:15:25:37:f7:5e:12:b6:d0:0e:91:38:94:40:c4:05:9d:
        e8:d6:2a:8b:5b:6c:55:fc:65:7a:70:13:ff:ae:41:ea:f2:b6:
        f7:4e:a9:7b:2e:ba:a1:a8:e8:1c:8d:f7:13:02:6c:45:29:3e:
        76:ae:1a:80:35:b4:1d:ae:e5:9b:e7:6a:bf:48:21:1b:3e:b6:
        c6:1f:00:49:6a:ca:43:c5:bf:53:df:74:6a:b8:93:d0:c1:62:
        fc:34:d2:a6:30:72:00:ca:09:3a:55:64:5f:4a:1c:21:25:38:
        3b:81:f4:a7:b0:73:7a:f3:31:3a:69:c6:63:e7:a4:f2:93:65:
        dc:1c:51:2d:46:43:05:fd:80:6d:4a:c9:7c:0f:aa:29:46:89:
        35:2f:11:09:0f:6b:50:2a:ed:ba:c1:7e:53:ed:6e:73:29:60:
        bb:18:ad:d0:b0:59:f7:91:2f:13:10:38:e4:ba:32:23:4f:9d:
        3e:70:4a:7e:d5:3c:07:65:4f:7c:7e:54:b8:42:fd:ea:94:49:
        b6:3b:17:4b:93:9f:67:24:d9:2e:0d:db:9e:50:4f:fe:29:16:
        43:9a:0e:72:15:9b:97:8b:f1:be:f5:cb:96:85:19:bb:71:ef:
        05:a0:7b:dc:32:80:0b:b2:f8:12:0f:61:2e:bd:09:b3:ea:1c:
        85:0a:be:b5
-----BEGIN CERTIFICATE-----
MIIDdDCCAlygAwIBAgIRAL8jL/LhSDIw2PDna6S/9kcwDQYJKoZIhvcNAQELBQAw
FTETMBEGA1UEAwwKdGVhbTgyLW5ldDAeFw0yMzExMDMyMDQwMzZaFw0yNjEwMTgy
MDQwMzZaMBgxFjAUBgNVBAMMDXRlYW04Mi1zZXJ2ZXIwggEiMA0GCSqGSIb3DQEB
AQUAA4IBDwAwggEKAoIBAQDj7awM4wUJlta5JgbCry7OrSD6e/hZDoqrdwiXT7ZM
M2mcXFfCZ60NixO/WWOdXtYaRW0cvoJkLXHMSKS2PcJCohl3OBiCgv2NAe0zNWpQ
mvIZDQUwsnNwU7DPrMZcBLXASLU0/SD5SQdgk0xsOq6cjwrMUvaqg5WqCYBG6zPl
P0jCZ7c6AzF3bVEldpISlBEu75QqhuD2xbPIkgHTio9M92rj0B8bZVglxHVKdQgo
DjRkg8q+QQ2fax7hYE5m4+dqKB/eMVr5d/8aaidhULPi5r2byREWKTqI0fIph5O0
lbU7IIKUIIOn+BhqY0y9tTpB1RoHxxW4OFuc9xjn1TIbAgMBAAGjgbswgbgwCQYD
VR0TBAIwADAdBgNVHQ4EFgQU0NFkqrxZciMtbOjU3zdY2Q8TNRYwUAYDVR0jBEkw
R4AUyHb4FPFbLjkLAaS6yeohICYytUOhGaQXMBUxEzARBgNVBAMMCnRlYW04Mi1u
ZXSCFFLyd35vieLYCCrymwXMbz6kg1cIMBMGA1UdJQQMMAoGCCsGAQUFBwMBMAsG
A1UdDwQEAwIFoDAYBgNVHREEETAPgg10ZWFtODItc2VydmVyMA0GCSqGSIb3DQEB
CwUAA4IBAQAgdxUlN/deErbQDpE4lEDEBZ3o1iqLW2xV/GV6cBP/rkHq8rb3Tql7
LrqhqOgcjfcTAmxFKT52rhqANbQdruWb52q/SCEbPrbGHwBJaspDxb9T33RquJPQ
wWL8NNKmMHIAygk6VWRfShwhJTg7gfSnsHN68zE6acZj56Tyk2XcHFEtRkMF/YBt
Ssl8D6opRok1LxEJD2tQKu26wX5T7W5zKWC7GK3QsFn3kS8TEDjkujIjT50+cEp+
1TwHZU98flS4Qv3qlEm2OxdLk59nJNkuDdueUE/+KRZDmg5yFZuXi/G+9cuWhRm7
ce8FoHvcMoALsvgSD2EuvQmz6hyFCr61
-----END CERTIFICATE-----
