Certificate:
    Data:
        Version: 3 (0x2)
        Serial Number:
            01:d4:84:fb:f2:d5:e6:a6:11:f7:4e:dd:77:8a:55:4c
        Signature Algorithm: sha256WithRSAEncryption
        Issuer: CN=team121-net
        Validity
            Not Before: Nov  4 10:42:43 2023 GMT
            Not After : Oct 19 10:42:43 2026 GMT
        Subject: CN=team121-client
        Subject Public Key Info:
            Public Key Algorithm: rsaEncryption
                Public-Key: (2048 bit)
                Modulus:
                    00:c0:5d:e1:ae:25:c1:2d:f2:91:b0:af:9c:ec:89:
                    cb:72:f0:bf:87:a8:de:bc:e7:0c:df:1a:15:64:dc:
                    eb:61:20:f2:0d:2c:24:10:1b:43:49:23:0c:f0:65:
                    f5:f3:2e:30:aa:ef:3b:e4:e7:45:61:64:a8:a1:7f:
                    4e:0c:1a:7a:88:8d:4a:fb:8d:23:a9:93:bf:e6:5d:
                    fc:45:1a:1a:ab:56:fb:35:de:14:1e:8a:a1:92:78:
                    9c:b8:1b:a2:4b:e0:7d:93:47:37:50:70:22:ae:cc:
                    70:a3:b9:a3:af:d9:2e:ce:cf:dd:ba:37:65:a3:cd:
                    5d:7b:1a:93:24:c9:5e:35:12:7b:e0:7c:a0:af:e1:
                    9c:e4:a9:d1:8d:7f:4d:2a:42:c2:fc:bc:54:3f:aa:
                    7e:d9:a6:bf:90:12:d3:9e:fa:60:db:44:a2:bc:a3:
                    a9:6b:80:4d:80:95:d4:69:d0:f0:c7:15:f1:ba:9b:
                    5a:69:2b:93:5a:17:14:56:d0:b1:e5:b6:56:dd:0e:
                    b0:e1:6c:62:7e:fb:97:7b:05:b8:ec:d9:ec:8b:ff:
                    5c:0c:f0:b9:33:b8:40:bd:dc:e7:5f:36:b4:dc:32:
                    c9:1f:5f:98:0a:05:40:2a:5f:99:63:e2:62:e5:da:
                    57:da:75:d6:f8:0b:50:49:c8:9d:b3:cd:0a:d4:52:
                    8c:ed
                Exponent: 65537 (0x10001)
        X509v3 extensions:
            X509v3 Basic Constraints: 
                CA:FALSE
            X509v3 Subject Key Identifier: 
                93:2A:07:C7:2B:28:75:48:41:3A:29:90:E0:71:66:C6:35:D5:F4:F5
            X509v3 Authority Key Identifier: 
                keyid:FC:6A:8D:A4:7F:E2:F5:92:B2:4A:F4:29:D4:CE:E4:2F:13:56:C2:54
                DirName:/CN=team121-net
                serial:70:F1:62:F4:2F:9A:59:CC:07:E0:D9:EC:15:D2:BA:A7:E5:3F:37:6D
            X509v3 Extended Key Usage: 
                TLS Web Client Authentication
            X509v3 Key Usage: 
                Digital Signature
    Signature Algorithm: sha256WithRSAEncryption
    Signature Value:
        53:6f:b4:aa:a2:65:50:6d:1a:c8:06:f1:40:b8:45:c9:46:92:
        ab:cc:f0:4b:e5:d6:7f:58:7c:43:aa:a1:a6:36:54:9e:bf:73:
        ef:46:6d:7c:93:b3:c6:ad:07:d3:14:e6:bd:8a:e8:7b:06:2d:
        9d:00:98:2c:b8:c5:ed:90:07:3c:44:f3:48:10:1f:ee:20:6c:
        4a:8b:9a:78:b5:3d:f3:1b:f7:16:8a:75:45:3d:52:7e:94:bd:
        62:70:ff:6b:3c:3c:a7:9d:10:83:72:ba:cc:9c:38:9a:56:0c:
        07:c0:26:59:68:bc:2f:4e:63:57:f6:7f:81:1f:dd:bb:84:f9:
        5f:27:89:9f:c4:cf:74:ba:75:c5:27:ce:19:40:a5:c6:14:14:
        be:38:1c:4c:cd:40:9a:1f:f6:2b:3a:59:6d:1e:95:19:a4:b8:
        2d:1f:f5:46:08:f7:aa:7d:12:1e:d3:87:7a:f0:83:c1:a8:e3:
        3c:b4:b4:22:bc:29:c2:62:89:fd:2d:67:31:9c:c9:97:41:56:
        2c:cb:4e:0b:fa:24:ae:b7:84:4f:18:5e:9f:4f:38:a4:b5:e6:
        cf:b2:ae:60:44:83:75:bf:4b:a2:f6:01:d9:3c:76:1d:92:1c:
        f4:7e:cd:76:7f:2d:c0:c3:90:88:9d:32:85:96:e5:d0:65:df:
        72:be:45:a0
-----BEGIN CERTIFICATE-----
MIIDXDCCAkSgAwIBAgIQAdSE+/LV5qYR907dd4pVTDANBgkqhkiG9w0BAQsFADAW
MRQwEgYDVQQDDAt0ZWFtMTIxLW5ldDAeFw0yMzExMDQxMDQyNDNaFw0yNjEwMTkx
MDQyNDNaMBkxFzAVBgNVBAMMDnRlYW0xMjEtY2xpZW50MIIBIjANBgkqhkiG9w0B
AQEFAAOCAQ8AMIIBCgKCAQEAwF3hriXBLfKRsK+c7InLcvC/h6jevOcM3xoVZNzr
YSDyDSwkEBtDSSMM8GX18y4wqu875OdFYWSooX9ODBp6iI1K+40jqZO/5l38RRoa
q1b7Nd4UHoqhknicuBuiS+B9k0c3UHAirsxwo7mjr9kuzs/dujdlo81dexqTJMle
NRJ74Hygr+Gc5KnRjX9NKkLC/LxUP6p+2aa/kBLTnvpg20SivKOpa4BNgJXUadDw
xxXxuptaaSuTWhcUVtCx5bZW3Q6w4WxifvuXewW47Nnsi/9cDPC5M7hAvdznXza0
3DLJH1+YCgVAKl+ZY+Ji5dpX2nXW+AtQScids80K1FKM7QIDAQABo4GiMIGfMAkG
A1UdEwQCMAAwHQYDVR0OBBYEFJMqB8crKHVIQTopkOBxZsY11fT1MFEGA1UdIwRK
MEiAFPxqjaR/4vWSskr0KdTO5C8TVsJUoRqkGDAWMRQwEgYDVQQDDAt0ZWFtMTIx
LW5ldIIUcPFi9C+aWcwH4NnsFdK6p+U/N20wEwYDVR0lBAwwCgYIKwYBBQUHAwIw
CwYDVR0PBAQDAgeAMA0GCSqGSIb3DQEBCwUAA4IBAQBTb7SqomVQbRrIBvFAuEXJ
RpKrzPBL5dZ/WHxDqqGmNlSev3PvRm18k7PGrQfTFOa9iuh7Bi2dAJgsuMXtkAc8
RPNIEB/uIGxKi5p4tT3zG/cWinVFPVJ+lL1icP9rPDynnRCDcrrMnDiaVgwHwCZZ
aLwvTmNX9n+BH927hPlfJ4mfxM90unXFJ84ZQKXGFBS+OBxMzUCaH/YrOlltHpUZ
pLgtH/VGCPeqfRIe04d68IPBqOM8tLQivCnCYon9LWcxnMmXQVYsy04L+iSut4RP
GF6fTziktebPsq5gRIN1v0ui9gHZPHYdkhz0fs12fy3Aw5CInTKFluXQZd9yvkWg
-----END CERTIFICATE-----
