Certificate:
    Data:
        Version: 3 (0x2)
        Serial Number:
            0c:23:eb:fd:2f:3b:db:1c:b1:f9:f6:1e:26:e8:03:63
        Signature Algorithm: sha256WithRSAEncryption
        Issuer: CN=team121-net
        Validity
            Not Before: Nov  4 10:42:43 2023 GMT
            Not After : Oct 19 10:42:43 2026 GMT
        Subject: CN=team121-server
        Subject Public Key Info:
            Public Key Algorithm: rsaEncryption
                Public-Key: (2048 bit)
                Modulus:
                    00:a7:8a:a8:8d:02:f0:02:49:97:52:03:c8:e0:3a:
                    ec:0c:fe:44:23:d3:54:f5:ff:7b:6b:0e:e0:74:97:
                    e1:55:32:a8:5e:13:0f:bf:3b:7f:58:e5:0c:ca:f1:
                    5f:10:8a:e2:21:80:97:8a:e2:fb:26:f6:56:8f:18:
                    9f:2d:ea:23:ee:2c:37:4f:5e:c4:f9:9d:a7:b4:fd:
                    c4:69:99:f1:84:7b:2e:c5:eb:6d:ca:8c:fb:cb:94:
                    c0:64:26:e3:b4:b7:ac:32:87:8d:dd:f3:1a:75:c3:
                    18:4d:76:b6:68:99:db:fd:f4:39:47:c9:dd:9b:83:
                    fe:4f:13:b6:55:6c:e4:8e:76:83:92:2e:e3:50:2a:
                    b5:de:56:f0:70:72:83:6b:48:b1:89:4f:2f:60:1d:
                    5e:3e:27:25:79:d7:b7:30:6d:ca:8a:b9:1d:fe:a9:
                    fe:61:57:08:53:20:17:f3:df:c2:33:e8:63:33:67:
                    95:c1:53:0c:77:e5:e7:b8:8d:1a:70:7f:36:69:27:
                    ee:5a:5d:ce:dc:4d:02:41:dd:f1:14:e6:ba:58:49:
                    4b:77:ab:f7:1d:87:df:3d:b6:53:2a:a7:61:15:46:
                    b5:19:42:a7:ad:be:c6:98:d0:88:86:9a:b2:ec:b9:
                    a5:cf:a9:5b:f1:45:b0:7b:61:c0:a3:fa:d0:95:2c:
                    11:2b
                Exponent: 65537 (0x10001)
        X509v3 extensions:
            X509v3 Basic Constraints: 
                CA:FALSE
            X509v3 Subject Key Identifier: 
                70:9E:77:E5:20:11:4C:4D:C4:D8:E5:45:F0:6A:8C:A3:55:A2:77:EF
            X509v3 Authority Key Identifier: 
                keyid:FC:6A:8D:A4:7F:E2:F5:92:B2:4A:F4:29:D4:CE:E4:2F:13:56:C2:54
                DirName:/CN=team121-net
                serial:70:F1:62:F4:2F:9A:59:CC:07:E0:D9:EC:15:D2:BA:A7:E5:3F:37:6D
            X509v3 Extended Key Usage: 
                TLS Web Server Authentication
            X509v3 Key Usage: 
                Digital Signature, Key Encipherment
            X509v3 Subject Alternative Name: 
                DNS:team121-server
    Signature Algorithm: sha256WithRSAEncryption
    Signature Value:
        7b:2a:e1:cb:fe:b1:4b:52:c3:0e:13:48:32:44:5c:f6:d8:16:
        0a:9d:cb:39:cb:88:05:f7:8b:f2:0c:e9:24:51:a4:d2:2e:ac:
        f3:63:39:9e:54:99:95:cb:91:27:b6:a6:6b:1e:5a:6f:38:6c:
        17:db:c1:43:08:d5:c3:cd:ed:6d:a1:a8:4a:4f:2d:a0:f8:c9:
        9f:a7:75:a5:b1:ef:38:8d:10:de:8c:57:95:5b:ea:58:2f:6e:
        0b:33:8f:5a:2c:81:0e:b4:f0:7c:8d:02:3d:a5:05:6d:81:6e:
        88:2c:fd:e4:b8:2d:57:ae:0e:db:0b:9c:ba:dd:7f:e9:56:11:
        07:d8:47:dd:8f:6e:31:73:a8:46:54:b0:02:56:5f:8d:fc:34:
        fc:1c:c1:47:77:dd:26:57:3f:56:03:cc:34:c5:49:c5:99:4f:
        04:b9:e5:9c:bc:d7:3b:c6:31:8a:b3:81:bf:d7:66:8f:1d:75:
        a4:18:5e:73:ec:14:f1:bf:d0:16:7e:43:87:e3:5b:fd:30:a9:
        0a:dc:d5:9b:40:8b:c3:60:69:9e:51:ee:3c:20:d6:97:44:6b:
        04:6d:1f:7e:d0:f1:aa:e7:b6:fa:5f:5a:7b:83:a1:f1:5c:aa:
        48:2c:96:f1:f0:e7:ef:d6:0a:a8:61:f9:20:0a:6b:d0:c2:48:
        ac:ac:1d:3c
-----BEGIN CERTIFICATE-----
MIIDdzCCAl+gAwIBAgIQDCPr/S872xyx+fYeJugDYzANBgkqhkiG9w0BAQsFADAW
MRQwEgYDVQQDDAt0ZWFtMTIxLW5ldDAeFw0yMzExMDQxMDQyNDNaFw0yNjEwMTkx
MDQyNDNaMBkxFzAVBgNVBAMMDnRlYW0xMjEtc2VydmVyMIIBIjANBgkqhkiG9w0B
AQEFAAOCAQ8AMIIBCgKCAQEAp4qojQLwAkmXUgPI4DrsDP5EI9NU9f97aw7gdJfh
VTKoXhMPvzt/WOUMyvFfEIriIYCXiuL7JvZWjxifLeoj7iw3T17E+Z2ntP3EaZnx
hHsuxettyoz7y5TAZCbjtLesMoeN3fMadcMYTXa2aJnb/fQ5R8ndm4P+TxO2VWzk
jnaDki7jUCq13lbwcHKDa0ixiU8vYB1ePiclede3MG3Kirkd/qn+YVcIUyAX89/C
M+hjM2eVwVMMd+XnuI0acH82aSfuWl3O3E0CQd3xFOa6WElLd6v3HYffPbZTKqdh
FUa1GUKnrb7GmNCIhpqy7Lmlz6lb8UWwe2HAo/rQlSwRKwIDAQABo4G9MIG6MAkG
A1UdEwQCMAAwHQYDVR0OBBYEFHCed+UgEUxNxNjlRfBqjKNVonfvMFEGA1UdIwRK
MEiAFPxqjaR/4vWSskr0KdTO5C8TVsJUoRqkGDAWMRQwEgYDVQQDDAt0ZWFtMTIx
LW5ldIIUcPFi9C+aWcwH4NnsFdK6p+U/N20wEwYDVR0lBAwwCgYIKwYBBQUHAwEw
CwYDVR0PBAQDAgWgMBkGA1UdEQQSMBCCDnRlYW0xMjEtc2VydmVyMA0GCSqGSIb3
DQEBCwUAA4IBAQB7KuHL/rFLUsMOE0gyRFz22BYKncs5y4gF94vyDOkkUaTSLqzz
YzmeVJmVy5EntqZrHlpvOGwX28FDCNXDze1toahKTy2g+Mmfp3Wlse84jRDejFeV
W+pYL24LM49aLIEOtPB8jQI9pQVtgW6ILP3kuC1Xrg7bC5y63X/pVhEH2Efdj24x
c6hGVLACVl+N/DT8HMFHd90mVz9WA8w0xUnFmU8EueWcvNc7xjGKs4G/12aPHXWk
GF5z7BTxv9AWfkOH41v9MKkK3NWbQIvDYGmeUe48INaXRGsEbR9+0PGq57b6X1p7
g6HxXKpILJbx8Ofv1gqoYfkgCmvQwkisrB08
-----END CERTIFICATE-----
