Certificate:
    Data:
        Version: 3 (0x2)
        Serial Number:
            88:cf:c8:91:f3:cb:70:86:eb:06:e7:2e:17:47:d1:72
        Signature Algorithm: sha256WithRSAEncryption
        Issuer: CN=team121-net
        Validity
            Not Before: Nov  3 20:41:19 2023 GMT
            Not After : Oct 18 20:41:19 2026 GMT
        Subject: CN=team121-client
        Subject Public Key Info:
            Public Key Algorithm: rsaEncryption
                Public-Key: (2048 bit)
                Modulus:
                    00:cd:4d:3f:e2:92:0c:f8:db:2c:4d:35:40:2f:2c:
                    6c:84:74:cc:06:9f:44:11:c2:02:e2:3d:e8:69:89:
                    4a:eb:73:1e:1c:72:1a:86:6f:80:ca:b3:40:b1:68:
                    47:5c:87:66:c0:03:53:ca:2c:38:4c:61:de:7d:3d:
                    bc:78:fe:bf:73:6f:ce:91:92:3d:3d:8f:21:fb:81:
                    c2:88:7f:e3:41:53:e0:f3:c6:a0:58:35:51:1d:e5:
                    52:a0:de:dd:bd:de:39:c5:1c:14:3e:d2:33:93:9d:
                    6a:ec:91:51:8f:d8:c8:e7:d1:7c:ec:69:33:50:ed:
                    db:eb:ad:03:05:c2:3d:a9:48:9c:d8:97:99:ad:2c:
                    e2:7d:4c:b4:4e:a8:1a:f5:7f:fa:9d:d4:06:35:f2:
                    74:db:65:55:47:c9:a3:a4:95:be:c0:f3:03:7f:55:
                    be:ec:6c:fe:f4:c0:82:a1:da:bb:9a:b5:dc:d7:f2:
                    3f:64:b5:5e:88:c7:93:64:ea:02:8f:3c:68:f9:67:
                    e9:49:b0:89:ad:94:b2:32:ad:70:69:ff:fe:e3:fd:
                    cd:ce:44:e5:f8:28:fa:71:ad:f3:df:d1:4f:4c:45:
                    ad:86:84:c2:c9:5c:fc:ab:fa:2f:07:53:13:7b:66:
                    e6:58:be:6c:6c:9b:a8:f9:b2:9f:c5:a1:e2:bf:1d:
                    6d:59
                Exponent: 65537 (0x10001)
        X509v3 extensions:
            X509v3 Basic Constraints: 
                CA:FALSE
            X509v3 Subject Key Identifier: 
                3A:17:5F:90:3A:5F:E0:BD:52:5A:94:E3:42:FC:D9:78:94:90:2A:D7
            X509v3 Authority Key Identifier: 
                keyid:9F:AC:E4:ED:F4:07:C4:53:B7:18:4B:34:69:81:5B:AA:48:23:DB:AE
                DirName:/CN=team121-net
                serial:19:25:5B:5D:D0:37:15:31:E0:6D:3D:EF:7A:89:B2:0D:31:AF:F7:EB
            X509v3 Extended Key Usage: 
                TLS Web Client Authentication
            X509v3 Key Usage: 
                Digital Signature
    Signature Algorithm: sha256WithRSAEncryption
    Signature Value:
        dc:7c:7f:da:88:25:78:94:c1:6e:7d:03:01:8c:0a:16:f7:2e:
        cb:f7:e3:17:ba:6c:1a:da:8c:75:dc:ce:e7:e6:32:49:88:0a:
        53:af:ca:08:35:64:13:2d:54:1c:f0:13:bb:47:a8:7a:8e:ef:
        4c:e7:a4:ca:61:10:48:15:bf:f4:47:a8:d0:45:00:a6:95:e0:
        2f:81:3b:88:c6:88:0f:80:12:35:c3:9b:d9:08:a8:99:28:31:
        70:c1:23:f9:66:3f:f8:49:46:dc:96:d9:5a:63:ed:92:05:34:
        fe:1c:99:01:ce:0c:b2:14:ba:cf:15:08:38:19:84:ab:97:d3:
        bb:49:07:e0:09:54:b0:21:fe:e5:2b:d8:80:00:52:67:16:c1:
        07:b5:dc:49:4e:f3:48:42:ab:62:07:e1:5c:be:08:41:de:92:
        93:b4:5c:c1:fa:49:92:b4:43:3b:48:94:6f:86:27:be:e3:90:
        3c:60:48:5a:74:58:9d:23:93:7b:ee:39:3c:be:88:cb:a4:37:
        d8:84:fe:d0:ea:b3:c1:f2:88:54:77:aa:8f:2b:ae:3f:26:04:
        61:b7:84:d3:a4:05:8c:96:2d:f4:86:12:7a:42:43:ac:69:0a:
        56:33:77:ef:ea:98:85:50:89:b8:76:ab:51:5f:27:68:dc:b4:
        38:47:db:73
-----BEGIN CERTIFICATE-----
MIIDXTCCAkWgAwIBAgIRAIjPyJHzy3CG6wbnLhdH0XIwDQYJKoZIhvcNAQELBQAw
FjEUMBIGA1UEAwwLdGVhbTEyMS1uZXQwHhcNMjMxMTAzMjA0MTE5WhcNMjYxMDE4
MjA0MTE5WjAZMRcwFQYDVQQDDA50ZWFtMTIxLWNsaWVudDCCASIwDQYJKoZIhvcN
AQEBBQADggEPADCCAQoCggEBAM1NP+KSDPjbLE01QC8sbIR0zAafRBHCAuI96GmJ
SutzHhxyGoZvgMqzQLFoR1yHZsADU8osOExh3n09vHj+v3NvzpGSPT2PIfuBwoh/
40FT4PPGoFg1UR3lUqDe3b3eOcUcFD7SM5OdauyRUY/YyOfRfOxpM1Dt2+utAwXC
PalInNiXma0s4n1MtE6oGvV/+p3UBjXydNtlVUfJo6SVvsDzA39Vvuxs/vTAgqHa
u5q13NfyP2S1XojHk2TqAo88aPln6Umwia2UsjKtcGn//uP9zc5E5fgo+nGt89/R
T0xFrYaEwslc/Kv6LwdTE3tm5li+bGybqPmyn8Wh4r8dbVkCAwEAAaOBojCBnzAJ
BgNVHRMEAjAAMB0GA1UdDgQWBBQ6F1+QOl/gvVJalONC/Nl4lJAq1zBRBgNVHSME
SjBIgBSfrOTt9AfEU7cYSzRpgVuqSCPbrqEapBgwFjEUMBIGA1UEAwwLdGVhbTEy
MS1uZXSCFBklW13QNxUx4G0973qJsg0xr/frMBMGA1UdJQQMMAoGCCsGAQUFBwMC
MAsGA1UdDwQEAwIHgDANBgkqhkiG9w0BAQsFAAOCAQEA3Hx/2ogleJTBbn0DAYwK
Fvcuy/fjF7psGtqMddzO5+YySYgKU6/KCDVkEy1UHPATu0eoeo7vTOekymEQSBW/
9Eeo0EUAppXgL4E7iMaID4ASNcOb2QiomSgxcMEj+WY/+ElG3JbZWmPtkgU0/hyZ
Ac4MshS6zxUIOBmEq5fTu0kH4AlUsCH+5SvYgABSZxbBB7XcSU7zSEKrYgfhXL4I
Qd6Sk7RcwfpJkrRDO0iUb4YnvuOQPGBIWnRYnSOTe+45PL6Iy6Q32IT+0OqzwfKI
VHeqjyuuPyYEYbeE06QFjJYt9IYSekJDrGkKVjN37+qYhVCJuHarUV8naNy0OEfb
cw==
-----END CERTIFICATE-----
