Certificate:
    Data:
        Version: 3 (0x2)
        Serial Number:
            a2:36:58:f2:a5:23:0f:11:48:cb:04:69:60:db:96:5c
        Signature Algorithm: sha256WithRSAEncryption
        Issuer: CN=team121-net
        Validity
            Not Before: Nov  4 11:29:52 2023 GMT
            Not After : Oct 19 11:29:52 2026 GMT
        Subject: CN=team121-client
        Subject Public Key Info:
            Public Key Algorithm: rsaEncryption
                Public-Key: (2048 bit)
                Modulus:
                    00:d0:ab:70:ca:d3:77:8b:3b:cd:b0:6b:d4:d7:c0:
                    b5:26:ca:59:08:c7:2b:74:1f:8f:71:d4:7a:19:24:
                    d7:80:9f:0d:44:0b:f7:6f:d9:20:27:c9:af:2a:e7:
                    35:43:b0:61:74:4d:3e:d0:2b:68:b8:98:00:f2:76:
                    ca:62:a4:1d:33:c4:67:28:79:94:77:d9:fc:46:be:
                    f3:6a:ee:93:b0:d7:55:f7:71:14:7e:29:c7:28:e0:
                    29:f9:1c:8e:31:f9:58:36:0e:30:ee:d1:6c:c0:64:
                    16:01:3c:28:a0:5a:b1:60:77:b9:9e:97:03:f7:3c:
                    8a:0c:1c:ad:b5:a5:2f:56:b0:02:57:e9:8c:9e:65:
                    40:3b:a6:26:f4:ef:8b:e6:4d:86:23:70:09:53:6d:
                    f6:92:b0:37:2c:d9:ba:8d:80:dc:3d:33:3f:89:cb:
                    fd:a8:5f:b9:7f:ed:b3:35:a6:c8:76:3c:4e:7a:7b:
                    75:6f:98:4d:34:6c:fa:e4:1e:9f:ed:5e:e0:84:17:
                    60:e4:b6:5e:f8:45:b1:90:90:6f:e0:c2:03:2b:19:
                    70:1b:73:6b:b7:42:14:e2:8b:06:a5:ab:8a:5d:52:
                    da:86:77:70:51:f6:25:2d:b8:70:28:d7:e2:bd:49:
                    ca:5c:b6:a5:5b:75:99:3b:ab:22:56:0a:b7:bb:23:
                    1d:09
                Exponent: 65537 (0x10001)
        X509v3 extensions:
            X509v3 Basic Constraints: 
                CA:FALSE
            X509v3 Subject Key Identifier: 
                C0:04:7B:80:FB:C6:6A:78:A6:E7:92:89:9E:B5:DE:A3:54:B0:0A:6C
            X509v3 Authority Key Identifier: 
                keyid:BF:2F:DC:3E:53:02:68:46:D6:0E:63:61:8A:26:7D:8C:E4:41:50:A7
                DirName:/CN=team121-net
                serial:50:66:16:25:C6:D0:B7:DF:94:D6:DA:C3:B6:1B:34:30:5D:9C:99:02
            X509v3 Extended Key Usage: 
                TLS Web Client Authentication
            X509v3 Key Usage: 
                Digital Signature
    Signature Algorithm: sha256WithRSAEncryption
    Signature Value:
        23:18:35:ee:d9:4a:bf:98:dc:1e:4a:ce:be:ff:7d:ec:3f:a6:
        40:67:e9:d3:d4:92:51:58:82:ed:0f:e2:12:35:c6:6a:0b:79:
        c7:57:15:21:8d:3b:62:75:46:93:d3:b8:9c:43:85:a2:a1:65:
        d9:1f:de:b2:40:13:c9:20:93:78:3b:cb:87:6d:90:2a:cb:91:
        4a:87:5c:5c:fb:f5:5b:97:25:5a:1c:1f:2b:5e:5f:5b:bf:d2:
        24:ee:49:f9:2c:5f:7f:b0:2a:bc:cb:e1:50:a1:ba:b3:de:03:
        db:a9:1a:75:2c:78:b3:54:09:7d:d1:16:87:f7:5f:2d:56:ee:
        d2:8f:97:7b:c0:fb:b0:9e:d2:a1:96:41:73:15:d5:6e:d0:5e:
        25:0a:42:58:4d:d8:9e:eb:62:5b:23:d5:0f:b6:30:84:3a:73:
        99:61:1c:a7:6d:63:fd:4c:d5:b4:06:f7:14:44:4f:d6:9c:6d:
        9b:c6:cf:3c:56:76:29:d3:67:47:1a:4a:c7:c2:7d:5d:9e:ca:
        79:85:fe:b9:11:b7:c9:ed:5c:55:83:fc:98:4c:cf:3a:c4:a9:
        c8:db:f0:ae:45:f0:fe:0e:8b:ab:6c:b8:1f:9e:d5:d8:d1:e7:
        b3:e8:0e:eb:a1:0d:0d:8c:02:90:b1:fb:e6:b7:59:9d:c3:91:
        2d:df:5c:4d
-----BEGIN CERTIFICATE-----
MIIDXTCCAkWgAwIBAgIRAKI2WPKlIw8RSMsEaWDbllwwDQYJKoZIhvcNAQELBQAw
FjEUMBIGA1UEAwwLdGVhbTEyMS1uZXQwHhcNMjMxMTA0MTEyOTUyWhcNMjYxMDE5
MTEyOTUyWjAZMRcwFQYDVQQDDA50ZWFtMTIxLWNsaWVudDCCASIwDQYJKoZIhvcN
AQEBBQADggEPADCCAQoCggEBANCrcMrTd4s7zbBr1NfAtSbKWQjHK3Qfj3HUehkk
14CfDUQL92/ZICfJryrnNUOwYXRNPtAraLiYAPJ2ymKkHTPEZyh5lHfZ/Ea+82ru
k7DXVfdxFH4pxyjgKfkcjjH5WDYOMO7RbMBkFgE8KKBasWB3uZ6XA/c8igwcrbWl
L1awAlfpjJ5lQDumJvTvi+ZNhiNwCVNt9pKwNyzZuo2A3D0zP4nL/ahfuX/tszWm
yHY8Tnp7dW+YTTRs+uQen+1e4IQXYOS2XvhFsZCQb+DCAysZcBtza7dCFOKLBqWr
il1S2oZ3cFH2JS24cCjX4r1Jyly2pVt1mTurIlYKt7sjHQkCAwEAAaOBojCBnzAJ
BgNVHRMEAjAAMB0GA1UdDgQWBBTABHuA+8ZqeKbnkometd6jVLAKbDBRBgNVHSME
SjBIgBS/L9w+UwJoRtYOY2GKJn2M5EFQp6EapBgwFjEUMBIGA1UEAwwLdGVhbTEy
MS1uZXSCFFBmFiXG0LfflNbaw7YbNDBdnJkCMBMGA1UdJQQMMAoGCCsGAQUFBwMC
MAsGA1UdDwQEAwIHgDANBgkqhkiG9w0BAQsFAAOCAQEAIxg17tlKv5jcHkrOvv99
7D+mQGfp09SSUViC7Q/iEjXGagt5x1cVIY07YnVGk9O4nEOFoqFl2R/eskATySCT
eDvLh22QKsuRSodcXPv1W5clWhwfK15fW7/SJO5J+Sxff7AqvMvhUKG6s94D26ka
dSx4s1QJfdEWh/dfLVbu0o+Xe8D7sJ7SoZZBcxXVbtBeJQpCWE3YnutiWyPVD7Yw
hDpzmWEcp21j/UzVtAb3FERP1pxtm8bPPFZ2KdNnRxpKx8J9XZ7KeYX+uRG3ye1c
VYP8mEzPOsSpyNvwrkXw/g6Lq2y4H57V2NHns+gO66ENDYwCkLH75rdZncORLd9c
TQ==
-----END CERTIFICATE-----
