Certificate:
    Data:
        Version: 3 (0x2)
        Serial Number:
            b7:a8:6d:ab:94:f8:51:22:43:83:42:d9:bd:b6:4c:42
        Signature Algorithm: sha256WithRSAEncryption
        Issuer: CN=team121-net
        Validity
            Not Before: Nov  4 11:29:53 2023 GMT
            Not After : Oct 19 11:29:53 2026 GMT
        Subject: CN=team121-server
        Subject Public Key Info:
            Public Key Algorithm: rsaEncryption
                Public-Key: (2048 bit)
                Modulus:
                    00:d3:6f:08:6e:26:25:7c:3f:98:29:01:f4:65:e0:
                    0d:40:c6:3c:0b:5b:16:69:4c:6d:19:8e:3e:dd:81:
                    13:5c:34:33:f8:28:11:dc:57:54:bc:c9:2a:63:da:
                    b7:d1:49:c2:47:a7:ce:9c:d3:3b:25:32:be:05:46:
                    18:a0:26:f5:6b:19:87:1e:c7:09:ea:31:b1:6a:40:
                    fb:58:3b:a5:97:fe:90:86:aa:74:cb:33:d8:ac:9a:
                    33:55:2d:9e:3d:d0:78:4f:ff:b1:92:18:94:cb:0f:
                    2c:98:39:6d:e4:7a:f4:c8:40:29:17:bb:64:a9:9a:
                    b4:bc:21:67:7e:84:74:13:01:47:73:29:c6:28:97:
                    d7:af:26:7a:f6:31:7d:6d:ad:06:0f:e1:b8:ca:b9:
                    e8:40:72:ee:9d:b0:dc:5b:90:a8:8d:df:05:f4:80:
                    12:2f:4f:c8:d8:2a:bb:8e:7c:c2:94:bf:a0:a9:a1:
                    47:76:fd:c7:f6:22:34:21:06:00:f9:82:ee:44:71:
                    ed:01:97:f8:47:3e:3e:74:55:b6:6b:cc:e6:2d:08:
                    37:8c:e2:f7:a0:28:fc:0a:20:80:70:4e:dd:c0:30:
                    e1:c1:3d:07:80:d6:7c:30:4a:d6:70:21:a0:82:39:
                    7b:8b:71:9e:03:9a:95:65:84:d5:8d:52:2d:90:e7:
                    63:db
                Exponent: 65537 (0x10001)
        X509v3 extensions:
            X509v3 Basic Constraints: 
                CA:FALSE
            X509v3 Subject Key Identifier: 
                0A:1E:F6:39:3D:3F:37:97:F2:E2:DC:16:72:DB:D0:4D:CA:95:06:01
            X509v3 Authority Key Identifier: 
                keyid:BF:2F:DC:3E:53:02:68:46:D6:0E:63:61:8A:26:7D:8C:E4:41:50:A7
                DirName:/CN=team121-net
                serial:50:66:16:25:C6:D0:B7:DF:94:D6:DA:C3:B6:1B:34:30:5D:9C:99:02
            X509v3 Extended Key Usage: 
                TLS Web Server Authentication
            X509v3 Key Usage: 
                Digital Signature, Key Encipherment
            X509v3 Subject Alternative Name: 
                DNS:team121-server
    Signature Algorithm: sha256WithRSAEncryption
    Signature Value:
        5a:3e:b7:1f:fa:db:94:12:85:11:ed:3e:ee:f1:7d:c1:b2:4c:
        4f:78:15:8e:38:09:61:f5:b1:02:99:d1:6a:dc:c2:f5:ce:e4:
        7f:90:83:cd:1d:6d:f2:6a:ce:82:90:93:96:b6:48:49:0a:e2:
        34:20:8a:19:9b:10:81:71:d6:7a:d2:ac:22:4f:09:ef:b7:98:
        d3:72:71:09:22:53:c7:c5:15:94:ae:79:1f:c0:be:45:4b:c6:
        e9:cf:cf:22:38:36:0b:9b:26:44:2f:66:32:50:64:21:f3:c6:
        54:46:cd:c9:d4:51:06:12:63:b0:8b:ed:3a:6f:1d:37:c4:06:
        b0:12:ef:d6:fb:c5:77:0d:c9:d9:a5:6f:4c:85:df:aa:eb:13:
        26:e1:f2:0c:a5:80:69:ac:bd:f5:44:24:c4:ab:93:a5:80:a5:
        78:6f:cd:b8:dc:ce:cd:99:08:73:63:a2:fd:a8:34:c6:aa:f9:
        8f:52:6a:e0:61:eb:51:fd:aa:0c:0a:8d:3e:bb:ce:7c:a7:69:
        26:d0:d9:c8:2b:69:d0:52:7c:b2:27:70:41:be:76:d2:71:3a:
        b4:f3:49:09:ec:ca:ed:41:55:da:6a:8e:09:99:ba:36:64:fb:
        51:a7:bc:72:09:89:2a:45:8b:6a:86:21:24:80:8e:ec:95:79:
        30:59:6f:66
-----BEGIN CERTIFICATE-----
MIIDeDCCAmCgAwIBAgIRALeobauU+FEiQ4NC2b22TEIwDQYJKoZIhvcNAQELBQAw
FjEUMBIGA1UEAwwLdGVhbTEyMS1uZXQwHhcNMjMxMTA0MTEyOTUzWhcNMjYxMDE5
MTEyOTUzWjAZMRcwFQYDVQQDDA50ZWFtMTIxLXNlcnZlcjCCASIwDQYJKoZIhvcN
AQEBBQADggEPADCCAQoCggEBANNvCG4mJXw/mCkB9GXgDUDGPAtbFmlMbRmOPt2B
E1w0M/goEdxXVLzJKmPat9FJwkenzpzTOyUyvgVGGKAm9WsZhx7HCeoxsWpA+1g7
pZf+kIaqdMsz2KyaM1Utnj3QeE//sZIYlMsPLJg5beR69MhAKRe7ZKmatLwhZ36E
dBMBR3MpxiiX168mevYxfW2tBg/huMq56EBy7p2w3FuQqI3fBfSAEi9PyNgqu458
wpS/oKmhR3b9x/YiNCEGAPmC7kRx7QGX+Ec+PnRVtmvM5i0IN4zi96Ao/AoggHBO
3cAw4cE9B4DWfDBK1nAhoII5e4txngOalWWE1Y1SLZDnY9sCAwEAAaOBvTCBujAJ
BgNVHRMEAjAAMB0GA1UdDgQWBBQKHvY5PT83l/Li3BZy29BNypUGATBRBgNVHSME
SjBIgBS/L9w+UwJoRtYOY2GKJn2M5EFQp6EapBgwFjEUMBIGA1UEAwwLdGVhbTEy
MS1uZXSCFFBmFiXG0LfflNbaw7YbNDBdnJkCMBMGA1UdJQQMMAoGCCsGAQUFBwMB
MAsGA1UdDwQEAwIFoDAZBgNVHREEEjAQgg50ZWFtMTIxLXNlcnZlcjANBgkqhkiG
9w0BAQsFAAOCAQEAWj63H/rblBKFEe0+7vF9wbJMT3gVjjgJYfWxApnRatzC9c7k
f5CDzR1t8mrOgpCTlrZISQriNCCKGZsQgXHWetKsIk8J77eY03JxCSJTx8UVlK55
H8C+RUvG6c/PIjg2C5smRC9mMlBkIfPGVEbNydRRBhJjsIvtOm8dN8QGsBLv1vvF
dw3J2aVvTIXfqusTJuHyDKWAaay99UQkxKuTpYCleG/NuNzOzZkIc2Oi/ag0xqr5
j1Jq4GHrUf2qDAqNPrvOfKdpJtDZyCtp0FJ8sidwQb520nE6tPNJCezK7UFV2mqO
CZm6NmT7Uae8cgmJKkWLaoYhJICO7JV5MFlvZg==
-----END CERTIFICATE-----
