Certificate:
    Data:
        Version: 3 (0x2)
        Serial Number:
            c0:14:94:42:87:52:c7:eb:49:67:9c:ff:5b:62:c1:39
        Signature Algorithm: sha256WithRSAEncryption
        Issuer: CN=team121-net
        Validity
            Not Before: Nov  3 20:41:19 2023 GMT
            Not After : Oct 18 20:41:19 2026 GMT
        Subject: CN=team121-server
        Subject Public Key Info:
            Public Key Algorithm: rsaEncryption
                Public-Key: (2048 bit)
                Modulus:
                    00:ad:15:99:c5:86:82:1d:31:8c:89:d1:0f:f8:08:
                    b9:e1:ba:db:8e:49:e3:ce:ba:3d:65:c4:fc:d2:b9:
                    c8:fe:6c:c6:4c:cf:e2:93:90:a3:19:8f:4a:b9:b7:
                    0b:56:9c:59:49:9c:c8:c5:01:21:32:f4:96:54:4a:
                    03:2d:ad:3e:78:b0:93:ac:ee:d6:6a:a6:f3:49:55:
                    0c:7f:6b:cb:d7:5d:46:10:09:42:23:45:a8:da:b0:
                    20:ae:e4:6f:66:a1:b3:2f:be:ca:4a:7b:b5:f0:ea:
                    08:28:01:35:1a:f5:94:13:16:8f:4a:da:7b:77:07:
                    10:1c:c4:46:88:20:2d:04:f2:2c:2d:68:b2:dc:25:
                    35:22:80:e8:9f:2b:41:89:24:e9:34:f2:00:7d:d3:
                    62:27:73:c8:9d:17:27:cb:c1:cb:16:63:2b:a3:23:
                    ce:fd:33:40:7e:b4:3b:ed:d6:97:8c:12:45:c7:5f:
                    60:e1:2f:ad:dd:34:37:5e:50:82:cf:2f:e5:b7:f7:
                    8b:1e:47:cc:d3:1e:0c:4e:da:29:c6:26:0a:aa:29:
                    e8:d8:58:63:0c:28:c8:ca:e3:dd:20:59:23:a5:8f:
                    75:9a:c6:ea:ec:34:21:95:de:c7:a8:e1:47:c3:41:
                    14:12:c6:4f:a4:4c:d0:4e:6c:3d:40:09:4f:da:9f:
                    42:07
                Exponent: 65537 (0x10001)
        X509v3 extensions:
            X509v3 Basic Constraints: 
                CA:FALSE
            X509v3 Subject Key Identifier: 
                9A:83:6B:75:E9:71:D9:D2:AE:9D:9C:1C:32:C4:3F:8A:C7:55:4B:8C
            X509v3 Authority Key Identifier: 
                keyid:9F:AC:E4:ED:F4:07:C4:53:B7:18:4B:34:69:81:5B:AA:48:23:DB:AE
                DirName:/CN=team121-net
                serial:19:25:5B:5D:D0:37:15:31:E0:6D:3D:EF:7A:89:B2:0D:31:AF:F7:EB
            X509v3 Extended Key Usage: 
                TLS Web Server Authentication
            X509v3 Key Usage: 
                Digital Signature, Key Encipherment
            X509v3 Subject Alternative Name: 
                DNS:team121-server
    Signature Algorithm: sha256WithRSAEncryption
    Signature Value:
        63:2c:4c:28:16:79:06:ce:ce:83:55:0f:ce:a6:9a:af:65:ce:
        61:aa:21:f9:0a:7d:15:9f:83:96:60:47:ed:cc:f6:ce:20:b8:
        65:fd:42:e3:ed:4b:55:c5:dd:01:3e:49:16:76:1b:c4:e6:4f:
        af:d8:f9:21:59:32:74:33:c4:2d:c1:35:35:1d:4d:45:5f:47:
        31:1e:9f:99:34:9c:50:98:26:cd:94:70:85:cc:ae:58:c5:70:
        ee:cc:61:e6:e4:65:0c:a3:5d:ae:f4:80:35:51:54:2b:1d:9f:
        70:aa:1d:ea:1e:34:ad:ad:a7:2b:43:95:c3:3d:2a:27:d0:1e:
        89:b0:a3:6b:b0:5b:e7:fe:80:b8:e4:f2:2f:5c:01:77:f4:48:
        fb:5d:c0:f9:bd:83:35:9b:42:e5:85:cc:6d:b4:60:84:e4:78:
        56:c2:4e:b1:e8:dc:fc:ef:f5:a1:b7:1f:39:7b:ed:f2:96:f4:
        f5:3e:48:f0:59:62:5d:56:93:ea:fb:70:9c:4e:c1:61:cd:e4:
        b7:75:5c:31:86:00:04:3d:2f:7e:a8:0b:1f:0d:fb:14:c1:26:
        b5:10:49:6b:b6:76:08:5e:b2:97:d1:12:28:3f:62:69:85:30:
        2d:5a:82:b0:b4:81:f3:6d:d7:6b:53:7c:f4:54:26:85:e9:b5:
        9c:c0:e2:7d
-----BEGIN CERTIFICATE-----
MIIDeDCCAmCgAwIBAgIRAMAUlEKHUsfrSWec/1tiwTkwDQYJKoZIhvcNAQELBQAw
FjEUMBIGA1UEAwwLdGVhbTEyMS1uZXQwHhcNMjMxMTAzMjA0MTE5WhcNMjYxMDE4
MjA0MTE5WjAZMRcwFQYDVQQDDA50ZWFtMTIxLXNlcnZlcjCCASIwDQYJKoZIhvcN
AQEBBQADggEPADCCAQoCggEBAK0VmcWGgh0xjInRD/gIueG6245J4866PWXE/NK5
yP5sxkzP4pOQoxmPSrm3C1acWUmcyMUBITL0llRKAy2tPniwk6zu1mqm80lVDH9r
y9ddRhAJQiNFqNqwIK7kb2ahsy++ykp7tfDqCCgBNRr1lBMWj0rae3cHEBzERogg
LQTyLC1ostwlNSKA6J8rQYkk6TTyAH3TYidzyJ0XJ8vByxZjK6Mjzv0zQH60O+3W
l4wSRcdfYOEvrd00N15Qgs8v5bf3ix5HzNMeDE7aKcYmCqop6NhYYwwoyMrj3SBZ
I6WPdZrG6uw0IZXex6jhR8NBFBLGT6RM0E5sPUAJT9qfQgcCAwEAAaOBvTCBujAJ
BgNVHRMEAjAAMB0GA1UdDgQWBBSag2t16XHZ0q6dnBwyxD+Kx1VLjDBRBgNVHSME
SjBIgBSfrOTt9AfEU7cYSzRpgVuqSCPbrqEapBgwFjEUMBIGA1UEAwwLdGVhbTEy
MS1uZXSCFBklW13QNxUx4G0973qJsg0xr/frMBMGA1UdJQQMMAoGCCsGAQUFBwMB
MAsGA1UdDwQEAwIFoDAZBgNVHREEEjAQgg50ZWFtMTIxLXNlcnZlcjANBgkqhkiG
9w0BAQsFAAOCAQEAYyxMKBZ5Bs7Og1UPzqaar2XOYaoh+Qp9FZ+DlmBH7cz2ziC4
Zf1C4+1LVcXdAT5JFnYbxOZPr9j5IVkydDPELcE1NR1NRV9HMR6fmTScUJgmzZRw
hcyuWMVw7sxh5uRlDKNdrvSANVFUKx2fcKod6h40ra2nK0OVwz0qJ9AeibCja7Bb
5/6AuOTyL1wBd/RI+13A+b2DNZtC5YXMbbRghOR4VsJOsejc/O/1obcfOXvt8pb0
9T5I8FliXVaT6vtwnE7BYc3kt3VcMYYABD0vfqgLHw37FMEmtRBJa7Z2CF6yl9ES
KD9iaYUwLVqCsLSB823Xa1N89FQmhem1nMDifQ==
-----END CERTIFICATE-----
