Certificate:
    Data:
        Version: 3 (0x2)
        Serial Number:
            26:68:66:c7:5c:53:41:97:02:9a:78:be:da:5c:c8:15
        Signature Algorithm: sha256WithRSAEncryption
        Issuer: CN=team196-net
        Validity
            Not Before: Nov  3 20:42:50 2023 GMT
            Not After : Oct 18 20:42:50 2026 GMT
        Subject: CN=team196-client
        Subject Public Key Info:
            Public Key Algorithm: rsaEncryption
                Public-Key: (2048 bit)
                Modulus:
                    00:9a:b3:95:6f:bd:8f:39:35:90:ae:ca:10:df:e1:
                    4b:82:71:8c:2c:7a:e5:27:16:6f:a1:24:05:0d:cb:
                    cf:8f:0d:5a:d7:bb:86:d4:d2:32:2a:3d:4d:21:e6:
                    28:48:3e:ca:44:54:da:4b:5a:77:35:a5:d4:e7:b0:
                    7e:d2:61:46:ac:f0:8b:fd:94:76:6a:54:87:46:c5:
                    0d:83:31:af:5b:5d:25:47:fe:9e:45:12:f9:75:02:
                    2b:7b:9c:45:66:94:5f:70:7b:87:9b:c7:0b:10:ce:
                    6d:ac:37:bb:f5:21:3e:4c:3f:6a:d6:10:70:e5:5e:
                    82:0f:30:bb:4c:9b:79:56:a1:32:ab:2e:fd:51:12:
                    58:55:21:96:15:d3:44:1d:05:73:67:63:99:93:56:
                    7e:f5:c4:9d:37:b3:00:f4:fa:2f:ec:93:2d:fb:75:
                    4b:db:ee:41:f1:8b:5a:9d:c5:10:db:9d:d6:14:6e:
                    3a:75:b0:82:67:cb:e7:2c:6a:30:cb:41:e7:3b:c5:
                    d8:02:01:4e:fc:e0:5b:11:97:cb:74:35:9a:d3:d2:
                    fd:ef:62:bf:59:cd:af:84:03:4b:bc:4d:79:68:14:
                    b7:7d:7f:61:90:01:22:80:37:c8:38:3a:39:b7:c7:
                    cb:c5:d3:ad:04:fc:5b:13:15:ce:bf:60:98:e2:fb:
                    74:27
                Exponent: 65537 (0x10001)
        X509v3 extensions:
            X509v3 Basic Constraints: 
                CA:FALSE
            X509v3 Subject Key Identifier: 
                A6:F0:FB:CA:F1:80:FD:6A:53:57:C7:21:3F:B6:BE:8E:5C:F3:B9:E5
            X509v3 Authority Key Identifier: 
                keyid:7C:1C:14:53:73:AE:56:70:B2:83:68:66:67:4A:6E:A5:F8:68:03:07
                DirName:/CN=team196-net
                serial:3A:31:13:76:BC:7D:E6:30:07:DC:6C:C5:73:CA:21:43:64:57:79:BC
            X509v3 Extended Key Usage: 
                TLS Web Client Authentication
            X509v3 Key Usage: 
                Digital Signature
    Signature Algorithm: sha256WithRSAEncryption
    Signature Value:
        01:8d:84:c5:40:21:08:43:b5:a7:e0:4b:a0:72:c5:07:12:5b:
        af:4b:ee:21:e9:08:f0:4d:e5:81:11:71:76:6b:14:c6:98:df:
        77:69:0c:43:93:11:ea:fc:98:14:09:63:48:ce:7f:72:73:45:
        85:fd:b0:07:55:5a:20:f4:01:db:26:d3:f3:68:e5:bb:f2:4a:
        d6:6f:be:a1:71:b0:a7:31:5d:2e:f9:7e:48:e7:36:29:0d:8f:
        ef:53:3f:44:f4:93:8d:44:d1:a4:e5:d8:3f:47:4e:d5:68:87:
        e7:ca:35:4b:11:22:7e:84:cb:bd:64:5d:a8:f6:bf:f1:04:08:
        29:63:bf:b9:0a:1e:a5:7c:2c:2d:2f:4d:56:9e:fd:81:c1:b1:
        9a:b0:c0:90:8f:e2:00:05:0f:19:cc:ae:23:da:c1:61:1b:80:
        65:b2:c3:13:2b:c2:ca:fc:3b:a4:71:6d:c0:5b:72:bf:5c:f1:
        ee:93:27:1d:7b:19:67:76:90:42:5c:19:1f:1d:de:75:89:63:
        e1:21:e4:b8:70:c3:23:89:d7:0f:d1:73:7b:8f:2d:5b:c9:b8:
        21:5e:a4:23:82:68:4e:34:64:c3:b0:d3:08:29:0e:3b:8b:87:
        02:ef:35:c1:dc:a5:d0:f4:31:9e:88:69:13:e4:66:b7:2e:83:
        90:10:9e:c4
-----BEGIN CERTIFICATE-----
MIIDXDCCAkSgAwIBAgIQJmhmx1xTQZcCmni+2lzIFTANBgkqhkiG9w0BAQsFADAW
MRQwEgYDVQQDDAt0ZWFtMTk2LW5ldDAeFw0yMzExMDMyMDQyNTBaFw0yNjEwMTgy
MDQyNTBaMBkxFzAVBgNVBAMMDnRlYW0xOTYtY2xpZW50MIIBIjANBgkqhkiG9w0B
AQEFAAOCAQ8AMIIBCgKCAQEAmrOVb72POTWQrsoQ3+FLgnGMLHrlJxZvoSQFDcvP
jw1a17uG1NIyKj1NIeYoSD7KRFTaS1p3NaXU57B+0mFGrPCL/ZR2alSHRsUNgzGv
W10lR/6eRRL5dQIre5xFZpRfcHuHm8cLEM5trDe79SE+TD9q1hBw5V6CDzC7TJt5
VqEyqy79URJYVSGWFdNEHQVzZ2OZk1Z+9cSdN7MA9Pov7JMt+3VL2+5B8YtancUQ
253WFG46dbCCZ8vnLGowy0HnO8XYAgFO/OBbEZfLdDWa09L972K/Wc2vhANLvE15
aBS3fX9hkAEigDfIODo5t8fLxdOtBPxbExXOv2CY4vt0JwIDAQABo4GiMIGfMAkG
A1UdEwQCMAAwHQYDVR0OBBYEFKbw+8rxgP1qU1fHIT+2vo5c87nlMFEGA1UdIwRK
MEiAFHwcFFNzrlZwsoNoZmdKbqX4aAMHoRqkGDAWMRQwEgYDVQQDDAt0ZWFtMTk2
LW5ldIIUOjETdrx95jAH3GzFc8ohQ2RXebwwEwYDVR0lBAwwCgYIKwYBBQUHAwIw
CwYDVR0PBAQDAgeAMA0GCSqGSIb3DQEBCwUAA4IBAQABjYTFQCEIQ7Wn4EugcsUH
EluvS+4h6QjwTeWBEXF2axTGmN93aQxDkxHq/JgUCWNIzn9yc0WF/bAHVVog9AHb
JtPzaOW78krWb76hcbCnMV0u+X5I5zYpDY/vUz9E9JONRNGk5dg/R07VaIfnyjVL
ESJ+hMu9ZF2o9r/xBAgpY7+5Ch6lfCwtL01Wnv2BwbGasMCQj+IABQ8ZzK4j2sFh
G4BlssMTK8LK/DukcW3AW3K/XPHukycdexlndpBCXBkfHd51iWPhIeS4cMMjidcP
0XN7jy1bybghXqQjgmhONGTDsNMIKQ47i4cC7zXB3KXQ9DGeiGkT5Ga3LoOQEJ7E
-----END CERTIFICATE-----
