Certificate:
    Data:
        Version: 3 (0x2)
        Serial Number:
            6c:89:54:cf:aa:d1:24:5f:86:09:2c:77:0f:7e:52:f6
        Signature Algorithm: sha256WithRSAEncryption
        Issuer: CN=team382-net
        Validity
            Not Before: Nov  3 20:46:09 2023 GMT
            Not After : Oct 18 20:46:09 2026 GMT
        Subject: CN=team382-server
        Subject Public Key Info:
            Public Key Algorithm: rsaEncryption
                Public-Key: (2048 bit)
                Modulus:
                    00:97:ad:f3:9c:1d:d8:58:39:85:44:ef:59:73:fa:
                    ed:09:7a:99:85:55:f3:90:f4:ec:b4:6e:b5:2a:90:
                    52:d0:36:9a:e3:3a:55:70:14:e3:63:43:e0:ad:c7:
                    41:ae:25:8a:fb:ce:49:32:8c:cb:5c:61:c9:4e:0f:
                    9d:49:37:5d:e1:f8:60:91:ce:7b:13:07:44:d1:ea:
                    13:e4:be:ca:39:12:93:0b:4c:f8:9f:08:f7:ff:8e:
                    aa:08:c5:cc:08:55:18:ec:71:9c:55:2a:ba:71:7a:
                    0b:f1:da:37:cc:bc:20:19:56:fa:aa:95:7d:cb:65:
                    0b:e7:24:ef:8d:d4:6a:45:53:f1:74:6c:eb:50:4f:
                    4f:3b:c3:56:67:c8:d3:4d:4e:ad:39:f4:f6:10:86:
                    c8:a3:7f:29:03:43:54:90:40:c5:45:68:60:9b:f5:
                    37:c1:7b:d4:e9:c6:7d:3e:44:8c:a9:5a:83:39:01:
                    a9:de:5e:02:eb:87:7c:fb:f4:60:b3:d1:d1:80:29:
                    ab:fa:3b:26:7c:5c:cf:61:5d:27:4c:08:18:2c:b6:
                    a7:bd:f8:32:9e:5b:7e:65:5f:db:93:cd:a7:f1:3f:
                    d1:fa:f1:a0:de:4d:ca:f0:99:83:f1:3e:e6:ef:ae:
                    7d:88:d4:fb:c3:f5:13:d3:26:36:c7:ae:7f:a9:f5:
                    12:79
                Exponent: 65537 (0x10001)
        X509v3 extensions:
            X509v3 Basic Constraints: 
                CA:FALSE
            X509v3 Subject Key Identifier: 
                01:5C:6B:FE:C0:B9:41:EA:AC:1C:48:F4:DA:A6:AF:F6:0C:C4:63:AE
            X509v3 Authority Key Identifier: 
                keyid:22:61:44:F0:77:8D:37:08:3F:BA:BD:B5:9E:16:C1:E6:98:9E:9F:99
                DirName:/CN=team382-net
                serial:37:F0:9B:3A:C2:BF:EB:ED:E1:A1:8F:B0:59:84:A0:84:52:20:A2:22
            X509v3 Extended Key Usage: 
                TLS Web Server Authentication
            X509v3 Key Usage: 
                Digital Signature, Key Encipherment
            X509v3 Subject Alternative Name: 
                DNS:team382-server
    Signature Algorithm: sha256WithRSAEncryption
    Signature Value:
        30:09:0a:9d:45:e5:16:69:e7:58:2d:d6:dc:54:23:78:a4:df:
        a9:0c:1b:7d:0a:fd:0d:90:ae:92:2e:a1:e5:e2:81:d2:0d:ca:
        2e:0d:15:0e:b1:e9:9f:b7:10:e2:f0:2b:38:8f:4b:ef:cb:cc:
        99:b0:24:63:bf:94:ed:c2:67:3d:45:a8:c7:fc:86:05:84:e0:
        b8:2c:b5:d7:81:9d:cf:54:2c:c1:22:e4:f6:91:27:69:80:3f:
        e1:ef:33:0b:c1:fc:97:c0:85:6b:1e:ce:22:19:57:16:29:ca:
        2a:8c:c8:0c:16:2e:7b:01:de:4c:46:85:71:36:cd:60:15:b6:
        18:9b:ef:b9:0a:d7:2f:97:36:08:ee:ce:52:c3:64:ec:39:87:
        da:00:c6:f1:7a:91:c0:d6:f7:06:08:8d:c1:74:99:fa:69:24:
        a2:9c:5a:e2:e6:ec:53:b2:9f:af:60:13:1d:20:ad:fd:ca:e4:
        45:d8:78:d4:c2:43:57:96:2e:a4:34:79:29:7f:c6:a6:39:7c:
        b7:1d:cf:48:2f:b4:b4:d8:2a:e8:e1:13:88:d8:2d:ed:c6:aa:
        f5:22:8e:6e:ef:50:fb:85:47:ab:58:0a:79:c7:38:6a:42:d6:
        a8:86:c3:d5:2a:fc:96:b0:f0:57:ed:7e:14:47:8f:fa:fb:90:
        a7:7e:5a:89
-----BEGIN CERTIFICATE-----
MIIDdzCCAl+gAwIBAgIQbIlUz6rRJF+GCSx3D35S9jANBgkqhkiG9w0BAQsFADAW
MRQwEgYDVQQDDAt0ZWFtMzgyLW5ldDAeFw0yMzExMDMyMDQ2MDlaFw0yNjEwMTgy
MDQ2MDlaMBkxFzAVBgNVBAMMDnRlYW0zODItc2VydmVyMIIBIjANBgkqhkiG9w0B
AQEFAAOCAQ8AMIIBCgKCAQEAl63znB3YWDmFRO9Zc/rtCXqZhVXzkPTstG61KpBS
0Daa4zpVcBTjY0PgrcdBriWK+85JMozLXGHJTg+dSTdd4fhgkc57EwdE0eoT5L7K
ORKTC0z4nwj3/46qCMXMCFUY7HGcVSq6cXoL8do3zLwgGVb6qpV9y2UL5yTvjdRq
RVPxdGzrUE9PO8NWZ8jTTU6tOfT2EIbIo38pA0NUkEDFRWhgm/U3wXvU6cZ9PkSM
qVqDOQGp3l4C64d8+/Rgs9HRgCmr+jsmfFzPYV0nTAgYLLanvfgynlt+ZV/bk82n
8T/R+vGg3k3K8JmD8T7m7659iNT7w/UT0yY2x65/qfUSeQIDAQABo4G9MIG6MAkG
A1UdEwQCMAAwHQYDVR0OBBYEFAFca/7AuUHqrBxI9Nqmr/YMxGOuMFEGA1UdIwRK
MEiAFCJhRPB3jTcIP7q9tZ4WweaYnp+ZoRqkGDAWMRQwEgYDVQQDDAt0ZWFtMzgy
LW5ldIIUN/CbOsK/6+3hoY+wWYSghFIgoiIwEwYDVR0lBAwwCgYIKwYBBQUHAwEw
CwYDVR0PBAQDAgWgMBkGA1UdEQQSMBCCDnRlYW0zODItc2VydmVyMA0GCSqGSIb3
DQEBCwUAA4IBAQAwCQqdReUWaedYLdbcVCN4pN+pDBt9Cv0NkK6SLqHl4oHSDcou
DRUOsemftxDi8Cs4j0vvy8yZsCRjv5Ttwmc9RajH/IYFhOC4LLXXgZ3PVCzBIuT2
kSdpgD/h7zMLwfyXwIVrHs4iGVcWKcoqjMgMFi57Ad5MRoVxNs1gFbYYm++5Ctcv
lzYI7s5Sw2TsOYfaAMbxepHA1vcGCI3BdJn6aSSinFri5uxTsp+vYBMdIK39yuRF
2HjUwkNXli6kNHkpf8amOXy3Hc9IL7S02Cro4ROI2C3txqr1Io5u71D7hUerWAp5
xzhqQtaohsPVKvyWsPBX7X4UR4/6+5CnflqJ
-----END CERTIFICATE-----
