Certificate:
    Data:
        Version: 3 (0x2)
        Serial Number:
            5f:32:dd:9b:28:21:a1:02:a1:c1:a4:99:e5:ec:d9:3f
        Signature Algorithm: sha256WithRSAEncryption
        Issuer: CN=team396-net
        Validity
            Not Before: Nov  4 10:47:47 2023 GMT
            Not After : Oct 19 10:47:47 2026 GMT
        Subject: CN=team396-client
        Subject Public Key Info:
            Public Key Algorithm: rsaEncryption
                Public-Key: (2048 bit)
                Modulus:
                    00:96:a8:c4:b6:a8:35:c2:b8:b9:ef:c5:8b:5a:db:
                    68:b0:9e:01:06:15:a8:dd:ef:1a:fb:31:87:cf:79:
                    11:38:e4:6f:ab:0d:66:f3:78:08:21:5a:db:56:99:
                    46:81:65:0c:d9:4b:f3:dc:e3:cc:7e:60:37:30:c3:
                    bf:c2:c5:d9:37:27:10:ae:51:2b:44:29:dd:5e:a4:
                    90:2b:fb:cd:45:9c:01:4a:95:02:35:f9:c4:a9:b5:
                    10:c4:d2:a3:54:99:a6:85:15:5f:79:29:9d:b8:b0:
                    e8:df:7b:9d:48:45:31:5d:c9:7f:fb:f9:16:d0:bd:
                    f7:ac:57:c6:6b:87:45:3a:a6:72:3f:02:bc:15:02:
                    33:30:56:19:ab:53:35:5d:3e:7b:b4:8e:cb:08:5c:
                    47:fe:91:00:c2:63:9e:79:cf:30:6c:4b:b3:4d:db:
                    31:1b:85:6d:6b:0d:a3:3c:b1:87:b9:a9:56:51:42:
                    7b:73:aa:c9:c0:a0:ae:0c:e3:b2:9e:8c:e0:6b:28:
                    23:05:50:c5:7a:4b:88:25:fc:0d:59:39:70:78:62:
                    11:e3:4b:64:af:a0:ee:14:69:b4:bc:29:e4:37:5e:
                    97:d6:34:81:96:9d:fc:53:53:f5:55:ea:84:dd:78:
                    29:59:da:30:93:9f:fc:a0:68:dc:63:94:15:9b:59:
                    db:15
                Exponent: 65537 (0x10001)
        X509v3 extensions:
            X509v3 Basic Constraints: 
                CA:FALSE
            X509v3 Subject Key Identifier: 
                90:D0:C5:20:36:12:76:61:66:D2:AA:1D:3B:92:B0:62:A7:0C:7A:78
            X509v3 Authority Key Identifier: 
                keyid:A5:6E:06:4F:0F:4C:90:70:C6:2A:A8:44:E3:A5:62:3B:C3:8A:4D:57
                DirName:/CN=team396-net
                serial:39:4F:1F:04:D8:8D:BE:D7:D6:19:78:56:26:54:83:84:7A:0C:58:2B
            X509v3 Extended Key Usage: 
                TLS Web Client Authentication
            X509v3 Key Usage: 
                Digital Signature
    Signature Algorithm: sha256WithRSAEncryption
    Signature Value:
        8d:e2:34:4c:10:20:1d:49:26:7b:70:97:de:9a:46:b3:cb:c2:
        26:85:8f:29:17:17:51:09:31:b9:99:71:52:9f:c8:70:5e:38:
        7a:84:ac:ff:81:5d:d8:92:3e:ff:3a:bb:31:66:91:08:ea:8d:
        26:c3:6b:b3:02:cd:02:8c:8a:62:38:32:f6:32:76:05:a6:3d:
        48:25:1d:c0:a5:02:14:fa:1f:5f:cf:e3:76:59:21:ed:09:dc:
        9b:00:95:02:86:3c:4a:07:2b:ac:68:81:a2:c6:26:b9:09:d1:
        c4:54:19:3d:4a:86:12:1e:90:73:6d:08:21:29:1f:6a:68:30:
        75:a3:82:58:ff:c5:99:3c:59:df:90:be:e9:56:80:f2:c7:4c:
        c2:33:f3:4e:af:ec:82:bb:1f:05:37:77:05:b3:01:d9:47:99:
        3e:3b:a9:02:2d:52:71:5e:1c:22:e1:ed:ba:90:71:62:5c:2f:
        49:b5:38:0a:ee:0c:25:5c:32:f6:02:ff:48:b8:04:9d:14:ed:
        71:15:a0:6d:f0:cf:f1:48:7b:3a:81:a3:e2:51:48:9b:56:6d:
        cc:0e:2c:0d:55:9e:1f:c3:56:e0:7a:da:55:f6:02:aa:94:51:
        90:60:e1:cf:86:94:0e:c7:a1:8e:01:39:6b:96:d1:c5:fa:43:
        15:1b:72:f3
-----BEGIN CERTIFICATE-----
MIIDXDCCAkSgAwIBAgIQXzLdmyghoQKhwaSZ5ezZPzANBgkqhkiG9w0BAQsFADAW
MRQwEgYDVQQDDAt0ZWFtMzk2LW5ldDAeFw0yMzExMDQxMDQ3NDdaFw0yNjEwMTkx
MDQ3NDdaMBkxFzAVBgNVBAMMDnRlYW0zOTYtY2xpZW50MIIBIjANBgkqhkiG9w0B
AQEFAAOCAQ8AMIIBCgKCAQEAlqjEtqg1wri578WLWttosJ4BBhWo3e8a+zGHz3kR
OORvqw1m83gIIVrbVplGgWUM2Uvz3OPMfmA3MMO/wsXZNycQrlErRCndXqSQK/vN
RZwBSpUCNfnEqbUQxNKjVJmmhRVfeSmduLDo33udSEUxXcl/+/kW0L33rFfGa4dF
OqZyPwK8FQIzMFYZq1M1XT57tI7LCFxH/pEAwmOeec8wbEuzTdsxG4Vtaw2jPLGH
ualWUUJ7c6rJwKCuDOOynozgaygjBVDFekuIJfwNWTlweGIR40tkr6DuFGm0vCnk
N16X1jSBlp38U1P1VeqE3XgpWdowk5/8oGjcY5QVm1nbFQIDAQABo4GiMIGfMAkG
A1UdEwQCMAAwHQYDVR0OBBYEFJDQxSA2EnZhZtKqHTuSsGKnDHp4MFEGA1UdIwRK
MEiAFKVuBk8PTJBwxiqoROOlYjvDik1XoRqkGDAWMRQwEgYDVQQDDAt0ZWFtMzk2
LW5ldIIUOU8fBNiNvtfWGXhWJlSDhHoMWCswEwYDVR0lBAwwCgYIKwYBBQUHAwIw
CwYDVR0PBAQDAgeAMA0GCSqGSIb3DQEBCwUAA4IBAQCN4jRMECAdSSZ7cJfemkaz
y8ImhY8pFxdRCTG5mXFSn8hwXjh6hKz/gV3Ykj7/OrsxZpEI6o0mw2uzAs0CjIpi
ODL2MnYFpj1IJR3ApQIU+h9fz+N2WSHtCdybAJUChjxKByusaIGixia5CdHEVBk9
SoYSHpBzbQghKR9qaDB1o4JY/8WZPFnfkL7pVoDyx0zCM/NOr+yCux8FN3cFswHZ
R5k+O6kCLVJxXhwi4e26kHFiXC9JtTgK7gwlXDL2Av9IuASdFO1xFaBt8M/xSHs6
gaPiUUibVm3MDiwNVZ4fw1bgetpV9gKqlFGQYOHPhpQOx6GOATlrltHF+kMVG3Lz
-----END CERTIFICATE-----
