Certificate:
    Data:
        Version: 3 (0x2)
        Serial Number:
            62:87:30:da:03:40:bf:8a:59:21:c8:b0:19:45:65:ca
        Signature Algorithm: sha256WithRSAEncryption
        Issuer: CN=team396-net
        Validity
            Not Before: Nov  4 11:36:25 2023 GMT
            Not After : Oct 19 11:36:25 2026 GMT
        Subject: CN=team396-server
        Subject Public Key Info:
            Public Key Algorithm: rsaEncryption
                Public-Key: (2048 bit)
                Modulus:
                    00:a4:40:cd:36:22:aa:1d:66:e9:6b:b1:97:38:92:
                    c4:e4:0d:1b:6f:20:21:b7:97:ea:46:81:15:61:f2:
                    3a:fe:98:5e:10:8d:7b:5a:47:3f:5b:77:5f:d5:90:
                    08:dc:82:70:29:6e:78:78:6d:64:84:ed:a8:bd:46:
                    24:02:62:d4:c5:cc:53:bf:13:75:79:04:cc:46:eb:
                    6e:6b:f4:6d:9c:23:57:10:22:97:f7:97:63:28:3b:
                    42:14:1f:38:f0:d6:93:1e:fa:7e:36:35:30:75:c1:
                    fd:87:5c:be:e0:ed:dc:ba:46:8d:86:68:4d:45:06:
                    49:b9:65:6b:7d:30:76:f8:fe:b5:bc:26:7b:84:d9:
                    f6:a7:4d:96:a8:78:69:0f:0c:a3:18:2a:f5:95:76:
                    fd:84:3c:42:fc:7e:75:f5:57:bd:37:c2:20:36:a1:
                    cf:d4:35:b9:54:bb:af:36:2a:a1:19:7e:49:e3:25:
                    9d:4e:30:d7:00:8a:44:e1:ec:c9:32:5d:39:c6:bd:
                    45:96:a5:85:ee:c8:4e:a3:3c:c5:6f:44:13:7f:be:
                    fc:7a:7b:23:00:c6:14:83:28:96:70:61:fc:ef:f2:
                    16:1d:de:05:3e:8e:e9:96:67:60:fc:5a:6e:0e:55:
                    6a:73:49:27:13:07:2f:5e:51:55:e4:43:91:af:fd:
                    71:97
                Exponent: 65537 (0x10001)
        X509v3 extensions:
            X509v3 Basic Constraints: 
                CA:FALSE
            X509v3 Subject Key Identifier: 
                81:44:1D:2F:9A:03:BA:AA:CA:FF:B1:0E:8C:7D:BD:52:4C:72:86:E0
            X509v3 Authority Key Identifier: 
                keyid:C8:61:7E:49:6D:B0:CE:C6:C6:4C:43:1C:B3:AC:D6:38:85:05:67:78
                DirName:/CN=team396-net
                serial:55:E8:A2:B5:11:C7:F2:1D:07:5B:AE:3B:20:F6:0F:66:55:16:3A:58
            X509v3 Extended Key Usage: 
                TLS Web Server Authentication
            X509v3 Key Usage: 
                Digital Signature, Key Encipherment
            X509v3 Subject Alternative Name: 
                DNS:team396-server
    Signature Algorithm: sha256WithRSAEncryption
    Signature Value:
        29:32:59:08:21:3a:82:5a:bb:76:57:3b:76:76:eb:f3:9a:f6:
        a4:83:a8:fa:ef:01:6b:41:6b:1d:21:05:ab:fb:1c:5b:83:4a:
        a7:3e:e4:15:a0:4f:10:f3:e7:40:c7:7a:2b:42:12:e1:aa:94:
        b9:ae:3f:c4:f7:85:5c:20:88:6a:5a:bc:5b:fb:eb:7a:8e:e9:
        09:87:70:5c:e7:5b:48:42:d0:b7:94:fa:79:04:27:92:30:29:
        17:4a:17:32:22:d1:96:24:20:35:66:29:3a:31:d7:bb:dc:27:
        f2:40:8c:b7:d0:18:d6:84:4c:2a:3d:b8:8c:52:c4:e1:6d:06:
        5b:89:ce:90:fc:c4:3d:99:98:8d:81:db:de:eb:00:97:a3:62:
        09:60:29:dd:fe:f3:47:7d:50:a6:91:3e:28:f9:7a:64:f0:48:
        e5:0b:d5:d7:1c:8e:f6:a9:9b:a4:39:23:7c:13:4a:3a:b6:d2:
        b1:2a:d2:b2:19:7c:ed:a2:1a:e9:de:ba:eb:7d:72:9b:0d:9f:
        90:da:94:2b:ee:62:33:34:31:21:03:3a:d8:05:ff:2c:89:da:
        61:4d:2e:16:e8:0e:c2:6c:e9:92:70:4f:1b:f9:e2:ce:d1:0e:
        cb:24:35:6b:12:66:66:f9:65:36:41:d5:8f:a4:46:81:6a:7d:
        d6:2e:48:83
-----BEGIN CERTIFICATE-----
MIIDdzCCAl+gAwIBAgIQYocw2gNAv4pZIciwGUVlyjANBgkqhkiG9w0BAQsFADAW
MRQwEgYDVQQDDAt0ZWFtMzk2LW5ldDAeFw0yMzExMDQxMTM2MjVaFw0yNjEwMTkx
MTM2MjVaMBkxFzAVBgNVBAMMDnRlYW0zOTYtc2VydmVyMIIBIjANBgkqhkiG9w0B
AQEFAAOCAQ8AMIIBCgKCAQEApEDNNiKqHWbpa7GXOJLE5A0bbyAht5fqRoEVYfI6
/pheEI17Wkc/W3df1ZAI3IJwKW54eG1khO2ovUYkAmLUxcxTvxN1eQTMRutua/Rt
nCNXECKX95djKDtCFB848NaTHvp+NjUwdcH9h1y+4O3cukaNhmhNRQZJuWVrfTB2
+P61vCZ7hNn2p02WqHhpDwyjGCr1lXb9hDxC/H519Ve9N8IgNqHP1DW5VLuvNiqh
GX5J4yWdTjDXAIpE4ezJMl05xr1FlqWF7shOozzFb0QTf778ensjAMYUgyiWcGH8
7/IWHd4FPo7plmdg/FpuDlVqc0knEwcvXlFV5EORr/1xlwIDAQABo4G9MIG6MAkG
A1UdEwQCMAAwHQYDVR0OBBYEFIFEHS+aA7qqyv+xDox9vVJMcobgMFEGA1UdIwRK
MEiAFMhhfkltsM7GxkxDHLOs1jiFBWd4oRqkGDAWMRQwEgYDVQQDDAt0ZWFtMzk2
LW5ldIIUVeiitRHH8h0HW647IPYPZlUWOlgwEwYDVR0lBAwwCgYIKwYBBQUHAwEw
CwYDVR0PBAQDAgWgMBkGA1UdEQQSMBCCDnRlYW0zOTYtc2VydmVyMA0GCSqGSIb3
DQEBCwUAA4IBAQApMlkIITqCWrt2Vzt2duvzmvakg6j67wFrQWsdIQWr+xxbg0qn
PuQVoE8Q8+dAx3orQhLhqpS5rj/E94VcIIhqWrxb++t6jukJh3Bc51tIQtC3lPp5
BCeSMCkXShcyItGWJCA1Zik6Mde73CfyQIy30BjWhEwqPbiMUsThbQZbic6Q/MQ9
mZiNgdve6wCXo2IJYCnd/vNHfVCmkT4o+Xpk8EjlC9XXHI72qZukOSN8E0o6ttKx
KtKyGXztohrp3rrrfXKbDZ+Q2pQr7mIzNDEhAzrYBf8sidphTS4W6A7CbOmScE8b
+eLO0Q7LJDVrEmZm+WU2QdWPpEaBan3WLkiD
-----END CERTIFICATE-----
