Certificate:
    Data:
        Version: 3 (0x2)
        Serial Number:
            dd:a9:70:cb:72:5b:7d:d5:d3:2f:b1:f9:ab:16:2b:a9
        Signature Algorithm: sha256WithRSAEncryption
        Issuer: CN=team396-net
        Validity
            Not Before: Nov  4 10:47:47 2023 GMT
            Not After : Oct 19 10:47:47 2026 GMT
        Subject: CN=team396-server
        Subject Public Key Info:
            Public Key Algorithm: rsaEncryption
                Public-Key: (2048 bit)
                Modulus:
                    00:a1:00:4a:4e:96:ac:19:95:de:3e:44:b2:b2:89:
                    d0:89:82:da:27:bf:e4:4d:97:d7:f0:a0:91:85:17:
                    e4:d1:5c:56:95:1c:88:39:29:77:06:10:bd:e0:e8:
                    19:15:d1:71:94:f5:12:0d:32:10:47:d5:d7:1b:a0:
                    df:4b:51:73:79:b9:58:09:4b:fa:70:c3:03:2a:e2:
                    13:24:4e:89:06:ed:b0:b3:7b:c1:7f:cc:8e:b1:e2:
                    35:a1:c0:0f:b8:55:b3:61:61:af:0b:c0:dd:96:8e:
                    1d:79:91:0f:e6:ab:02:56:56:af:eb:fd:a5:ee:97:
                    2f:45:61:f2:c2:15:a9:dc:ef:65:82:95:4a:a0:f3:
                    05:06:7e:39:23:d1:56:e4:d1:d2:bd:96:17:99:9d:
                    cf:33:69:07:ea:01:4d:e3:85:83:63:ce:2b:dd:2c:
                    13:42:82:78:27:a6:84:55:0a:0d:ec:7e:37:b2:fa:
                    04:a8:51:3f:8d:01:8b:60:1b:a5:36:0e:5d:8c:7d:
                    41:3c:1e:6f:a2:88:69:d3:57:c1:8b:ea:75:c3:56:
                    96:92:91:77:a7:42:db:7a:95:55:be:2c:e8:2c:e6:
                    3b:a5:5a:cb:06:af:01:31:80:34:33:5c:53:3a:c2:
                    1c:9c:2e:7e:58:5c:cc:30:7b:b3:9a:50:b2:e3:9f:
                    29:27
                Exponent: 65537 (0x10001)
        X509v3 extensions:
            X509v3 Basic Constraints: 
                CA:FALSE
            X509v3 Subject Key Identifier: 
                65:0B:DC:55:B0:00:72:A9:10:9A:D9:6E:B8:23:3A:09:C4:F5:57:2F
            X509v3 Authority Key Identifier: 
                keyid:A5:6E:06:4F:0F:4C:90:70:C6:2A:A8:44:E3:A5:62:3B:C3:8A:4D:57
                DirName:/CN=team396-net
                serial:39:4F:1F:04:D8:8D:BE:D7:D6:19:78:56:26:54:83:84:7A:0C:58:2B
            X509v3 Extended Key Usage: 
                TLS Web Server Authentication
            X509v3 Key Usage: 
                Digital Signature, Key Encipherment
            X509v3 Subject Alternative Name: 
                DNS:team396-server
    Signature Algorithm: sha256WithRSAEncryption
    Signature Value:
        55:ac:68:77:4c:02:3f:09:1c:eb:ff:2c:5e:ca:e7:ed:54:52:
        c3:ea:fb:f3:1e:d9:b7:5f:c2:de:b3:47:f3:32:37:bf:13:c6:
        b1:46:95:f7:ed:bd:64:c7:66:53:04:05:6b:0c:42:6c:d2:85:
        b2:90:47:4b:af:56:85:c9:75:fe:c9:47:f8:13:ba:23:b7:5c:
        0b:b9:0e:57:66:35:5f:92:c2:e7:d7:87:59:58:c2:4c:e4:52:
        60:30:35:7c:98:66:ea:85:c4:82:c4:c2:f3:be:d6:c9:5e:c9:
        e1:db:ec:22:de:ed:30:76:ee:ad:73:fd:a1:ec:a0:05:46:e7:
        b4:cf:0e:b7:0a:1a:c0:bf:d3:25:0c:af:6f:4c:3b:cd:de:e3:
        45:fc:cb:c6:37:64:ae:30:63:54:28:30:7e:e9:01:80:b3:1e:
        64:48:c6:b8:96:23:91:a1:c6:32:07:68:1d:25:94:b2:81:20:
        ea:86:0c:9d:9b:04:fb:da:75:6d:d9:28:d9:b4:ee:49:db:bd:
        b9:84:0a:9e:35:1f:d8:8e:f0:7b:2f:f3:48:f2:b7:b6:5a:00:
        9b:cf:14:09:f8:66:26:cb:8a:11:5f:d1:36:d1:ad:39:16:e0:
        b1:8e:4f:17:61:91:12:b5:c7:04:de:98:a7:d7:6f:dd:08:70:
        54:24:c5:7a
-----BEGIN CERTIFICATE-----
MIIDeDCCAmCgAwIBAgIRAN2pcMtyW33V0y+x+asWK6kwDQYJKoZIhvcNAQELBQAw
FjEUMBIGA1UEAwwLdGVhbTM5Ni1uZXQwHhcNMjMxMTA0MTA0NzQ3WhcNMjYxMDE5
MTA0NzQ3WjAZMRcwFQYDVQQDDA50ZWFtMzk2LXNlcnZlcjCCASIwDQYJKoZIhvcN
AQEBBQADggEPADCCAQoCggEBAKEASk6WrBmV3j5EsrKJ0ImC2ie/5E2X1/CgkYUX
5NFcVpUciDkpdwYQveDoGRXRcZT1Eg0yEEfV1xug30tRc3m5WAlL+nDDAyriEyRO
iQbtsLN7wX/MjrHiNaHAD7hVs2FhrwvA3ZaOHXmRD+arAlZWr+v9pe6XL0Vh8sIV
qdzvZYKVSqDzBQZ+OSPRVuTR0r2WF5mdzzNpB+oBTeOFg2POK90sE0KCeCemhFUK
Dex+N7L6BKhRP40Bi2AbpTYOXYx9QTweb6KIadNXwYvqdcNWlpKRd6dC23qVVb4s
6CzmO6VaywavATGANDNcUzrCHJwuflhczDB7s5pQsuOfKScCAwEAAaOBvTCBujAJ
BgNVHRMEAjAAMB0GA1UdDgQWBBRlC9xVsAByqRCa2W64IzoJxPVXLzBRBgNVHSME
SjBIgBSlbgZPD0yQcMYqqETjpWI7w4pNV6EapBgwFjEUMBIGA1UEAwwLdGVhbTM5
Ni1uZXSCFDlPHwTYjb7X1hl4ViZUg4R6DFgrMBMGA1UdJQQMMAoGCCsGAQUFBwMB
MAsGA1UdDwQEAwIFoDAZBgNVHREEEjAQgg50ZWFtMzk2LXNlcnZlcjANBgkqhkiG
9w0BAQsFAAOCAQEAVaxod0wCPwkc6/8sXsrn7VRSw+r78x7Zt1/C3rNH8zI3vxPG
sUaV9+29ZMdmUwQFawxCbNKFspBHS69Whcl1/slH+BO6I7dcC7kOV2Y1X5LC59eH
WVjCTORSYDA1fJhm6oXEgsTC877WyV7J4dvsIt7tMHburXP9oeygBUbntM8Otwoa
wL/TJQyvb0w7zd7jRfzLxjdkrjBjVCgwfukBgLMeZEjGuJYjkaHGMgdoHSWUsoEg
6oYMnZsE+9p1bdko2bTuSdu9uYQKnjUf2I7wey/zSPK3tloAm88UCfhmJsuKEV/R
NtGtORbgsY5PF2GRErXHBN6Yp9dv3QhwVCTFeg==
-----END CERTIFICATE-----
