Certificate:
    Data:
        Version: 3 (0x2)
        Serial Number:
            6f:1f:23:3e:88:c5:5c:85:6c:24:81:2e:7c:5f:8f:7f
        Signature Algorithm: sha256WithRSAEncryption
        Issuer: CN=team268-net
        Validity
            Not Before: Nov  3 20:44:13 2023 GMT
            Not After : Oct 18 20:44:13 2026 GMT
        Subject: CN=team268-client
        Subject Public Key Info:
            Public Key Algorithm: rsaEncryption
                Public-Key: (2048 bit)
                Modulus:
                    00:de:8b:f2:17:5b:70:94:9e:18:ee:b4:87:7d:12:
                    15:70:2e:aa:03:3d:e3:fc:d6:19:0e:f1:d3:07:29:
                    f2:b9:ea:f6:8b:ce:63:76:94:30:35:94:10:2e:21:
                    d1:e2:43:59:33:3f:58:28:18:72:ff:15:1b:8c:bf:
                    ea:bc:9a:11:3f:cf:80:5b:01:67:ad:ea:47:f3:af:
                    f8:17:42:ca:93:bd:0b:d6:2b:f1:e1:e9:12:1a:f4:
                    86:f9:96:de:f9:a2:1d:57:a1:64:14:b3:d0:68:85:
                    80:f3:ea:a8:ec:53:34:59:51:e8:15:7f:26:15:67:
                    55:e2:81:46:48:ef:d2:d8:f3:3c:d7:9a:04:d7:c7:
                    b3:a1:8b:1f:25:69:0b:b6:fc:df:b6:d5:c7:dd:c6:
                    24:d9:5b:37:87:df:45:72:9d:57:da:bf:fa:26:0f:
                    82:e4:93:ba:b7:78:e0:57:f2:b6:73:a3:a9:65:fb:
                    e6:f0:29:d7:03:21:a9:d2:df:c6:8c:38:77:1c:8b:
                    65:de:20:2d:fc:1f:61:91:f6:a3:14:e2:69:25:39:
                    e4:1d:d5:03:1b:11:90:9d:42:0f:da:10:8b:b0:b2:
                    95:fa:bb:1a:74:c8:63:30:db:ad:ff:39:88:3b:36:
                    57:d6:45:01:85:7e:54:03:d7:fe:94:96:1a:df:43:
                    1f:a1
                Exponent: 65537 (0x10001)
        X509v3 extensions:
            X509v3 Basic Constraints: 
                CA:FALSE
            X509v3 Subject Key Identifier: 
                8C:13:76:D0:EE:14:EA:38:05:23:C0:5F:E0:F5:84:88:C9:B2:9F:07
            X509v3 Authority Key Identifier: 
                keyid:BD:15:7B:3B:14:DF:F5:4E:FA:56:A1:1F:ED:B0:5A:4E:39:2B:4F:2D
                DirName:/CN=team268-net
                serial:2C:17:8E:66:6C:D0:C8:7C:A1:3A:84:C3:0C:55:DF:F9:D2:76:9A:9D
            X509v3 Extended Key Usage: 
                TLS Web Client Authentication
            X509v3 Key Usage: 
                Digital Signature
    Signature Algorithm: sha256WithRSAEncryption
    Signature Value:
        60:57:db:bf:41:e2:11:cc:3f:9a:84:ab:44:e0:45:5b:10:30:
        fc:a0:a7:dc:c1:f0:00:c3:d6:6e:fc:76:6c:f8:33:8c:81:cb:
        c8:0b:0b:f2:92:01:11:71:22:6c:20:42:b5:e8:9b:dc:8d:a8:
        f7:b1:37:2f:08:05:04:56:c9:06:c4:b3:25:2b:c9:75:fe:a1:
        26:f3:5a:99:a8:7e:1b:8b:98:08:d4:ec:09:86:aa:56:27:19:
        5f:0c:3c:6e:bd:12:fd:73:5f:9f:a3:c3:7d:ed:ab:05:dd:43:
        80:88:ea:79:09:96:06:ec:d4:dc:7a:48:90:7f:e0:bd:46:e6:
        12:e6:44:11:40:b8:27:73:8e:2f:57:56:4e:7e:73:48:7f:6d:
        ff:fe:0c:38:ef:82:24:89:a9:dd:a6:6b:01:10:15:eb:5c:8f:
        6a:5c:54:c0:ec:ff:a1:99:52:39:43:a6:de:c7:0b:75:84:a9:
        dc:13:75:55:7d:c7:de:7f:94:6f:b6:0c:11:b2:e9:4f:c8:49:
        5e:1a:6b:20:ea:fb:37:68:02:9b:28:15:05:01:77:7b:70:99:
        84:77:ed:1e:8b:ba:8b:57:06:e0:57:d7:00:63:76:86:10:a6:
        57:fd:69:1f:dc:c5:82:74:54:46:e1:b6:4d:e9:a4:a7:38:19:
        9e:0d:d2:c3
-----BEGIN CERTIFICATE-----
MIIDXDCCAkSgAwIBAgIQbx8jPojFXIVsJIEufF+PfzANBgkqhkiG9w0BAQsFADAW
MRQwEgYDVQQDDAt0ZWFtMjY4LW5ldDAeFw0yMzExMDMyMDQ0MTNaFw0yNjEwMTgy
MDQ0MTNaMBkxFzAVBgNVBAMMDnRlYW0yNjgtY2xpZW50MIIBIjANBgkqhkiG9w0B
AQEFAAOCAQ8AMIIBCgKCAQEA3ovyF1twlJ4Y7rSHfRIVcC6qAz3j/NYZDvHTByny
uer2i85jdpQwNZQQLiHR4kNZMz9YKBhy/xUbjL/qvJoRP8+AWwFnrepH86/4F0LK
k70L1ivx4ekSGvSG+Zbe+aIdV6FkFLPQaIWA8+qo7FM0WVHoFX8mFWdV4oFGSO/S
2PM815oE18ezoYsfJWkLtvzfttXH3cYk2Vs3h99Fcp1X2r/6Jg+C5JO6t3jgV/K2
c6OpZfvm8CnXAyGp0t/GjDh3HItl3iAt/B9hkfajFOJpJTnkHdUDGxGQnUIP2hCL
sLKV+rsadMhjMNut/zmIOzZX1kUBhX5UA9f+lJYa30MfoQIDAQABo4GiMIGfMAkG
A1UdEwQCMAAwHQYDVR0OBBYEFIwTdtDuFOo4BSPAX+D1hIjJsp8HMFEGA1UdIwRK
MEiAFL0VezsU3/VO+lahH+2wWk45K08toRqkGDAWMRQwEgYDVQQDDAt0ZWFtMjY4
LW5ldIIULBeOZmzQyHyhOoTDDFXf+dJ2mp0wEwYDVR0lBAwwCgYIKwYBBQUHAwIw
CwYDVR0PBAQDAgeAMA0GCSqGSIb3DQEBCwUAA4IBAQBgV9u/QeIRzD+ahKtE4EVb
EDD8oKfcwfAAw9Zu/HZs+DOMgcvICwvykgERcSJsIEK16Jvcjaj3sTcvCAUEVskG
xLMlK8l1/qEm81qZqH4bi5gI1OwJhqpWJxlfDDxuvRL9c1+fo8N97asF3UOAiOp5
CZYG7NTcekiQf+C9RuYS5kQRQLgnc44vV1ZOfnNIf23//gw474IkiandpmsBEBXr
XI9qXFTA7P+hmVI5Q6bexwt1hKncE3VVfcfef5RvtgwRsulPyEleGmsg6vs3aAKb
KBUFAXd7cJmEd+0ei7qLVwbgV9cAY3aGEKZX/Wkf3MWCdFRG4bZN6aSnOBmeDdLD
-----END CERTIFICATE-----
