Certificate:
    Data:
        Version: 3 (0x2)
        Serial Number:
            92:1b:fc:e1:eb:b8:29:22:0a:e5:ab:7c:34:d5:a2:8c
        Signature Algorithm: sha256WithRSAEncryption
        Issuer: CN=team5-net
        Validity
            Not Before: Oct 31 16:30:14 2023 GMT
            Not After : Oct 15 16:30:14 2026 GMT
        Subject: CN=team5-server
        Subject Public Key Info:
            Public Key Algorithm: rsaEncryption
                Public-Key: (2048 bit)
                Modulus:
                    00:91:e3:c7:81:e8:82:d9:9e:9e:73:1f:00:ea:0b:
                    55:41:c2:0e:4b:96:01:88:86:86:be:e8:b3:8e:bb:
                    57:e1:71:6b:38:5b:da:1f:f8:22:4d:82:5d:b5:29:
                    ac:7a:56:de:56:ca:09:5c:1b:3a:0a:94:b3:ea:65:
                    ee:9c:a3:cc:f0:d6:f1:21:23:87:00:69:cb:2d:ca:
                    3c:bb:0b:fb:cb:90:88:78:6b:e9:a6:35:f0:a9:11:
                    58:90:cd:ab:b0:6e:8d:8a:7f:7c:ba:c2:c4:9c:c1:
                    47:e9:70:f5:26:04:be:82:f5:41:f7:46:49:2f:df:
                    88:38:09:48:76:ee:2d:89:9d:cc:a7:6e:d0:4a:37:
                    f7:79:32:e8:f4:a0:f7:93:c3:63:d7:0c:30:b6:93:
                    1a:80:c2:2c:e6:de:a7:2d:dd:8a:19:64:a6:e7:e2:
                    75:03:55:91:6f:f5:d8:0f:d9:7e:70:02:a2:87:b4:
                    50:71:2d:24:38:b1:22:c6:3b:32:19:26:21:49:ef:
                    d7:9a:45:a3:47:43:be:c8:20:ae:53:c0:b7:99:94:
                    fb:8b:78:a9:5f:ea:1a:71:c1:fe:6f:bd:a9:83:9b:
                    9a:35:a7:5f:66:46:c5:72:55:34:b8:72:e8:f4:75:
                    7f:22:df:a3:b7:cd:6f:c9:9b:b7:bc:03:1d:50:c1:
                    28:6f
                Exponent: 65537 (0x10001)
        X509v3 extensions:
            X509v3 Basic Constraints: 
                CA:FALSE
            X509v3 Subject Key Identifier: 
                4B:BF:5F:F0:50:05:AE:C7:5D:3B:78:04:00:1F:8F:A1:00:B6:FE:8E
            X509v3 Authority Key Identifier: 
                keyid:81:5D:6B:B6:CA:CE:54:F4:A6:76:FA:30:32:4F:CC:1F:D9:09:18:F9
                DirName:/CN=team5-net
                serial:5A:AC:36:CF:1A:6D:4B:4F:CA:72:25:86:99:4F:F3:C9:0C:FC:6E:03
            X509v3 Extended Key Usage: 
                TLS Web Server Authentication
            X509v3 Key Usage: 
                Digital Signature, Key Encipherment
            X509v3 Subject Alternative Name: 
                DNS:team5-server
    Signature Algorithm: sha256WithRSAEncryption
    Signature Value:
        9d:07:46:c9:7b:c8:8b:be:cc:83:dd:cc:32:e7:26:bb:93:47:
        b6:72:88:28:9b:d5:aa:dc:8a:e1:2d:67:f2:90:b5:b3:83:63:
        77:f8:fd:e0:78:cf:0e:e3:e5:b3:cd:9a:8a:44:67:e4:56:53:
        ce:a1:0d:8f:15:b9:0a:a0:49:67:60:f3:ba:d1:96:a2:a3:dd:
        6f:58:dc:62:9f:7f:4d:40:3a:91:0e:a8:0a:6f:9e:4d:11:4a:
        14:8d:2f:53:43:60:b7:38:72:7f:21:de:70:f5:94:6a:01:07:
        3a:97:bd:fd:19:2e:13:88:62:80:a9:62:f7:77:51:07:a3:f6:
        56:7e:5c:38:21:61:77:a5:0b:d0:17:2e:5d:97:d7:63:7e:82:
        5b:11:a2:c5:7a:87:5b:5a:57:85:14:89:56:38:8c:a3:d6:47:
        20:4f:24:89:04:5e:a2:b1:d3:d5:66:25:80:79:87:29:63:d3:
        95:ee:fe:b7:69:e7:90:c2:f1:d4:55:23:ef:82:93:a9:2b:68:
        39:d0:2a:d1:21:e0:71:b0:af:e4:4b:f9:97:04:c0:cf:ed:f8:
        de:ae:79:69:7f:29:ee:b6:65:72:66:7d:53:16:8f:1a:ad:0c:
        ed:a0:ce:6b:f2:39:fd:60:48:fb:8b:6a:d5:74:b8:e7:1a:6a:
        82:78:45:40
-----BEGIN CERTIFICATE-----
MIIDcDCCAligAwIBAgIRAJIb/OHruCkiCuWrfDTVoowwDQYJKoZIhvcNAQELBQAw
FDESMBAGA1UEAwwJdGVhbTUtbmV0MB4XDTIzMTAzMTE2MzAxNFoXDTI2MTAxNTE2
MzAxNFowFzEVMBMGA1UEAwwMdGVhbTUtc2VydmVyMIIBIjANBgkqhkiG9w0BAQEF
AAOCAQ8AMIIBCgKCAQEAkePHgeiC2Z6ecx8A6gtVQcIOS5YBiIaGvuizjrtX4XFr
OFvaH/giTYJdtSmselbeVsoJXBs6CpSz6mXunKPM8NbxISOHAGnLLco8uwv7y5CI
eGvppjXwqRFYkM2rsG6Nin98usLEnMFH6XD1JgS+gvVB90ZJL9+IOAlIdu4tiZ3M
p27QSjf3eTLo9KD3k8Nj1wwwtpMagMIs5t6nLd2KGWSm5+J1A1WRb/XYD9l+cAKi
h7RQcS0kOLEixjsyGSYhSe/XmkWjR0O+yCCuU8C3mZT7i3ipX+oaccH+b72pg5ua
NadfZkbFclU0uHLo9HV/It+jt81vyZu3vAMdUMEobwIDAQABo4G5MIG2MAkGA1Ud
EwQCMAAwHQYDVR0OBBYEFEu/X/BQBa7HXTt4BAAfj6EAtv6OME8GA1UdIwRIMEaA
FIFda7bKzlT0pnb6MDJPzB/ZCRj5oRikFjAUMRIwEAYDVQQDDAl0ZWFtNS1uZXSC
FFqsNs8abUtPynIlhplP88kM/G4DMBMGA1UdJQQMMAoGCCsGAQUFBwMBMAsGA1Ud
DwQEAwIFoDAXBgNVHREEEDAOggx0ZWFtNS1zZXJ2ZXIwDQYJKoZIhvcNAQELBQAD
ggEBAJ0HRsl7yIu+zIPdzDLnJruTR7ZyiCib1arciuEtZ/KQtbODY3f4/eB4zw7j
5bPNmopEZ+RWU86hDY8VuQqgSWdg87rRlqKj3W9Y3GKff01AOpEOqApvnk0RShSN
L1NDYLc4cn8h3nD1lGoBBzqXvf0ZLhOIYoCpYvd3UQej9lZ+XDghYXelC9AXLl2X
12N+glsRosV6h1taV4UUiVY4jKPWRyBPJIkEXqKx09VmJYB5hylj05Xu/rdp55DC
8dRVI++Ck6kraDnQKtEh4HGwr+RL+ZcEwM/t+N6ueWl/Ke62ZXJmfVMWjxqtDO2g
zmvyOf1gSPuLatV0uOcaaoJ4RUA=
-----END CERTIFICATE-----
