Certificate:
    Data:
        Version: 3 (0x2)
        Serial Number:
            82:db:07:c7:27:02:94:60:51:4d:20:dd:70:5f:36:c3
        Signature Algorithm: sha256WithRSAEncryption
        Issuer: CN=team402-net
        Validity
            Not Before: Nov  4 11:36:33 2023 GMT
            Not After : Oct 19 11:36:33 2026 GMT
        Subject: CN=team402-client
        Subject Public Key Info:
            Public Key Algorithm: rsaEncryption
                Public-Key: (2048 bit)
                Modulus:
                    00:c3:0b:98:d7:7d:71:d5:ea:8b:50:ec:a1:d2:7c:
                    f9:f3:d0:d0:49:de:6f:f7:ab:b7:ca:14:eb:b2:30:
                    7a:04:90:e8:99:fb:9f:ea:33:0f:a8:c1:02:9d:fb:
                    3c:fb:f2:51:57:c9:b7:e8:c9:e6:49:88:d7:e7:13:
                    75:be:ac:5a:5b:f2:ac:0c:07:6e:2c:26:11:a9:8d:
                    a0:97:8c:33:4a:f0:7f:51:e8:9b:52:69:88:df:d9:
                    9a:44:b8:d4:07:1e:3e:c5:11:91:cb:11:1a:43:41:
                    9d:3f:51:2a:61:7a:fe:45:9c:4b:7c:db:23:49:1f:
                    41:a0:1b:ff:3e:04:10:c0:3b:ec:83:5f:df:6e:47:
                    6e:95:44:ee:67:a6:b5:6d:45:47:01:e4:55:a7:50:
                    2e:66:4a:98:82:d9:99:3c:94:06:70:06:e5:a8:9b:
                    7d:8f:08:97:12:9b:12:be:47:dd:da:59:9d:83:d4:
                    6c:60:24:82:a2:da:77:68:74:ab:7e:c4:4e:fe:66:
                    65:c6:fb:3d:c3:13:74:0f:5d:b3:a7:29:f8:4e:7e:
                    b3:6f:9b:dc:92:83:48:77:72:79:84:df:d1:05:3f:
                    60:aa:a7:61:93:c2:26:60:9c:c7:94:96:8d:6f:37:
                    c2:c6:48:7e:24:d0:4c:1f:5b:83:27:ab:bf:1e:ca:
                    35:f3
                Exponent: 65537 (0x10001)
        X509v3 extensions:
            X509v3 Basic Constraints: 
                CA:FALSE
            X509v3 Subject Key Identifier: 
                B3:01:87:BB:AD:85:32:CD:50:C1:01:B2:20:35:75:22:EA:E0:FE:5A
            X509v3 Authority Key Identifier: 
                keyid:E3:95:62:9E:16:F4:20:89:52:09:90:7E:E3:ED:F6:45:E2:9C:79:33
                DirName:/CN=team402-net
                serial:42:39:B4:9F:DF:60:F3:06:2F:BC:7C:32:AA:B0:47:07:C7:B1:33:DB
            X509v3 Extended Key Usage: 
                TLS Web Client Authentication
            X509v3 Key Usage: 
                Digital Signature
    Signature Algorithm: sha256WithRSAEncryption
    Signature Value:
        30:46:5b:ed:fb:9d:a0:8e:ba:e9:89:e7:64:00:19:55:c2:c4:
        78:06:8d:19:a2:c3:d9:e0:c0:0e:b4:f6:6c:50:18:da:95:59:
        80:77:f8:97:cb:5a:fe:bd:16:a0:f8:f5:e5:87:f6:bc:d1:a4:
        cc:4e:4e:4e:93:d4:a7:59:81:a0:7d:5e:6a:1e:c1:3f:f2:84:
        15:5c:d0:d9:71:1a:d0:07:e8:12:07:93:d5:6c:87:dd:b8:4f:
        a3:4d:e0:f1:2a:2a:14:ed:65:f0:77:5c:17:b9:64:e8:27:01:
        0d:02:7f:18:a8:67:f8:63:e5:b4:96:84:4c:fc:ef:68:82:da:
        8e:7b:c9:d1:fc:cd:7b:36:88:cd:e4:77:88:1c:9f:7a:5a:d4:
        c6:60:43:52:44:f1:5f:b9:8b:eb:d9:da:ce:d0:61:d2:29:4e:
        e1:66:39:24:ac:a4:20:aa:c7:eb:0c:97:b4:d5:85:a5:77:ec:
        75:25:42:38:73:75:9a:1e:8f:85:21:e6:d8:67:2d:70:20:39:
        24:ca:67:03:cb:22:2e:a9:59:fe:49:c3:b6:06:6d:cd:40:9d:
        32:92:13:0e:4a:b0:e6:b0:ea:3d:fd:6b:fa:ff:2e:40:74:be:
        2e:84:c9:02:c2:e5:9a:f1:5a:79:72:cd:3c:86:2d:10:23:33:
        0d:61:4f:08
-----BEGIN CERTIFICATE-----
MIIDXTCCAkWgAwIBAgIRAILbB8cnApRgUU0g3XBfNsMwDQYJKoZIhvcNAQELBQAw
FjEUMBIGA1UEAwwLdGVhbTQwMi1uZXQwHhcNMjMxMTA0MTEzNjMzWhcNMjYxMDE5
MTEzNjMzWjAZMRcwFQYDVQQDDA50ZWFtNDAyLWNsaWVudDCCASIwDQYJKoZIhvcN
AQEBBQADggEPADCCAQoCggEBAMMLmNd9cdXqi1DsodJ8+fPQ0Eneb/ert8oU67Iw
egSQ6Jn7n+ozD6jBAp37PPvyUVfJt+jJ5kmI1+cTdb6sWlvyrAwHbiwmEamNoJeM
M0rwf1Hom1JpiN/ZmkS41AcePsURkcsRGkNBnT9RKmF6/kWcS3zbI0kfQaAb/z4E
EMA77INf325HbpVE7memtW1FRwHkVadQLmZKmILZmTyUBnAG5aibfY8IlxKbEr5H
3dpZnYPUbGAkgqLad2h0q37ETv5mZcb7PcMTdA9ds6cp+E5+s2+b3JKDSHdyeYTf
0QU/YKqnYZPCJmCcx5SWjW83wsZIfiTQTB9bgyervx7KNfMCAwEAAaOBojCBnzAJ
BgNVHRMEAjAAMB0GA1UdDgQWBBSzAYe7rYUyzVDBAbIgNXUi6uD+WjBRBgNVHSME
SjBIgBTjlWKeFvQgiVIJkH7j7fZF4px5M6EapBgwFjEUMBIGA1UEAwwLdGVhbTQw
Mi1uZXSCFEI5tJ/fYPMGL7x8MqqwRwfHsTPbMBMGA1UdJQQMMAoGCCsGAQUFBwMC
MAsGA1UdDwQEAwIHgDANBgkqhkiG9w0BAQsFAAOCAQEAMEZb7fudoI666YnnZAAZ
VcLEeAaNGaLD2eDADrT2bFAY2pVZgHf4l8ta/r0WoPj15Yf2vNGkzE5OTpPUp1mB
oH1eah7BP/KEFVzQ2XEa0AfoEgeT1WyH3bhPo03g8SoqFO1l8HdcF7lk6CcBDQJ/
GKhn+GPltJaETPzvaILajnvJ0fzNezaIzeR3iByfelrUxmBDUkTxX7mL69naztBh
0ilO4WY5JKykIKrH6wyXtNWFpXfsdSVCOHN1mh6PhSHm2GctcCA5JMpnA8siLqlZ
/knDtgZtzUCdMpITDkqw5rDqPf1r+v8uQHS+LoTJAsLlmvFaeXLNPIYtECMzDWFP
CA==
-----END CERTIFICATE-----
