Certificate:
    Data:
        Version: 3 (0x2)
        Serial Number:
            89:7c:97:30:f0:50:95:48:62:38:55:04:f1:b4:be:bc
        Signature Algorithm: sha256WithRSAEncryption
        Issuer: CN=team402-net
        Validity
            Not Before: Nov  4 11:36:34 2023 GMT
            Not After : Oct 19 11:36:34 2026 GMT
        Subject: CN=team402-server
        Subject Public Key Info:
            Public Key Algorithm: rsaEncryption
                Public-Key: (2048 bit)
                Modulus:
                    00:fa:3c:59:03:fc:ea:64:c2:db:41:ad:6d:12:a0:
                    82:1f:40:ce:3d:a2:f6:60:00:75:27:6f:4b:b0:15:
                    07:56:17:bd:f0:c3:44:77:64:18:65:ab:0e:0f:89:
                    d7:94:2d:48:cb:ab:09:ad:8e:08:61:5d:46:50:1d:
                    d0:d6:dd:9d:66:69:d8:62:49:f9:2f:01:4f:7c:0c:
                    7b:3e:91:0d:a4:11:df:c8:de:3e:48:00:b1:b0:8e:
                    fc:34:b8:17:a9:2c:d6:89:d8:16:74:cb:de:35:ee:
                    d3:e0:08:96:cc:9f:fe:84:e7:01:d1:88:d7:4d:ba:
                    31:02:70:3e:40:19:a4:28:7a:77:a4:25:aa:eb:0e:
                    71:ab:5e:d8:7f:a9:60:86:8d:60:cf:d2:e5:0e:c0:
                    52:e9:1e:da:e3:cd:d5:83:64:a2:1a:ee:45:35:30:
                    78:6e:d2:8e:10:a4:6e:61:05:e2:24:85:3a:2c:38:
                    d5:c5:50:ac:5c:45:53:22:ee:fd:82:2f:fc:f0:c5:
                    00:56:7e:71:68:84:06:a5:c8:08:fb:a9:da:05:66:
                    1f:c8:ff:8e:38:3f:35:e3:80:25:34:f1:1a:0a:87:
                    86:3b:1a:d9:40:c3:bd:f8:55:ed:1a:05:2d:b5:61:
                    9e:be:c3:9f:0b:2d:f8:47:87:ac:80:54:db:b1:0d:
                    3f:3f
                Exponent: 65537 (0x10001)
        X509v3 extensions:
            X509v3 Basic Constraints: 
                CA:FALSE
            X509v3 Subject Key Identifier: 
                6E:64:4E:01:E7:BF:A8:6D:12:CC:10:74:F1:E5:11:5C:E8:A3:00:51
            X509v3 Authority Key Identifier: 
                keyid:E3:95:62:9E:16:F4:20:89:52:09:90:7E:E3:ED:F6:45:E2:9C:79:33
                DirName:/CN=team402-net
                serial:42:39:B4:9F:DF:60:F3:06:2F:BC:7C:32:AA:B0:47:07:C7:B1:33:DB
            X509v3 Extended Key Usage: 
                TLS Web Server Authentication
            X509v3 Key Usage: 
                Digital Signature, Key Encipherment
            X509v3 Subject Alternative Name: 
                DNS:team402-server
    Signature Algorithm: sha256WithRSAEncryption
    Signature Value:
        05:28:f2:5e:a5:5e:e5:35:88:17:97:85:26:d5:99:b8:3a:6b:
        b2:6d:25:f8:a2:cd:81:0a:f0:f6:09:a4:63:4e:36:4c:5c:92:
        b4:d5:d9:11:6f:92:11:11:87:b2:8a:ed:94:ae:2f:06:f6:48:
        e4:21:d2:1a:7c:d7:0d:af:cd:ce:cf:68:f6:b2:78:f1:8e:d8:
        e5:db:b9:85:4b:de:c1:54:91:a2:46:bc:19:d1:ff:34:25:70:
        ff:8e:11:0f:ee:b8:93:ef:d5:da:1e:d9:f6:71:8b:d8:e2:1a:
        ae:b8:6d:21:0d:21:3f:ce:97:b7:9d:d1:74:cd:2c:88:5f:d9:
        1a:7f:07:41:88:b7:c8:3f:3c:66:3c:6f:9b:73:8e:2f:ad:1e:
        08:6a:57:1d:9a:78:ba:eb:da:66:ad:ce:97:19:56:45:5e:ba:
        37:fd:ca:14:55:00:df:95:8c:c3:84:48:ef:59:03:fd:b2:25:
        4a:ca:c1:74:bd:c1:23:69:38:cf:4d:33:d3:3b:89:06:c7:50:
        ef:e0:4a:af:9f:e7:c4:a1:79:a8:27:70:8c:2b:ec:86:af:43:
        cb:71:94:9e:85:fb:cb:7f:4c:58:b7:e1:e2:5f:1b:c4:f5:7f:
        35:fc:78:9d:fa:ee:67:28:12:e6:f7:4d:0a:a7:65:28:b8:94:
        53:87:81:8f
-----BEGIN CERTIFICATE-----
MIIDeDCCAmCgAwIBAgIRAIl8lzDwUJVIYjhVBPG0vrwwDQYJKoZIhvcNAQELBQAw
FjEUMBIGA1UEAwwLdGVhbTQwMi1uZXQwHhcNMjMxMTA0MTEzNjM0WhcNMjYxMDE5
MTEzNjM0WjAZMRcwFQYDVQQDDA50ZWFtNDAyLXNlcnZlcjCCASIwDQYJKoZIhvcN
AQEBBQADggEPADCCAQoCggEBAPo8WQP86mTC20GtbRKggh9Azj2i9mAAdSdvS7AV
B1YXvfDDRHdkGGWrDg+J15QtSMurCa2OCGFdRlAd0NbdnWZp2GJJ+S8BT3wMez6R
DaQR38jePkgAsbCO/DS4F6ks1onYFnTL3jXu0+AIlsyf/oTnAdGI1026MQJwPkAZ
pCh6d6QlqusOcate2H+pYIaNYM/S5Q7AUuke2uPN1YNkohruRTUweG7SjhCkbmEF
4iSFOiw41cVQrFxFUyLu/YIv/PDFAFZ+cWiEBqXICPup2gVmH8j/jjg/NeOAJTTx
GgqHhjsa2UDDvfhV7RoFLbVhnr7Dnwst+EeHrIBU27ENPz8CAwEAAaOBvTCBujAJ
BgNVHRMEAjAAMB0GA1UdDgQWBBRuZE4B57+obRLMEHTx5RFc6KMAUTBRBgNVHSME
SjBIgBTjlWKeFvQgiVIJkH7j7fZF4px5M6EapBgwFjEUMBIGA1UEAwwLdGVhbTQw
Mi1uZXSCFEI5tJ/fYPMGL7x8MqqwRwfHsTPbMBMGA1UdJQQMMAoGCCsGAQUFBwMB
MAsGA1UdDwQEAwIFoDAZBgNVHREEEjAQgg50ZWFtNDAyLXNlcnZlcjANBgkqhkiG
9w0BAQsFAAOCAQEABSjyXqVe5TWIF5eFJtWZuDprsm0l+KLNgQrw9gmkY042TFyS
tNXZEW+SERGHsortlK4vBvZI5CHSGnzXDa/Nzs9o9rJ48Y7Y5du5hUvewVSRoka8
GdH/NCVw/44RD+64k+/V2h7Z9nGL2OIarrhtIQ0hP86Xt53RdM0siF/ZGn8HQYi3
yD88Zjxvm3OOL60eCGpXHZp4uuvaZq3OlxlWRV66N/3KFFUA35WMw4RI71kD/bIl
SsrBdL3BI2k4z00z0zuJBsdQ7+BKr5/nxKF5qCdwjCvshq9Dy3GUnoX7y39MWLfh
4l8bxPV/Nfx4nfruZygS5vdNCqdlKLiUU4eBjw==
-----END CERTIFICATE-----
