Certificate:
    Data:
        Version: 3 (0x2)
        Serial Number:
            91:70:ca:29:61:5e:9b:12:ba:70:c5:d1:fc:15:be
        Signature Algorithm: sha256WithRSAEncryption
        Issuer: CN=team402-net
        Validity
            Not Before: Nov  4 10:47:53 2023 GMT
            Not After : Oct 19 10:47:53 2026 GMT
        Subject: CN=team402-server
        Subject Public Key Info:
            Public Key Algorithm: rsaEncryption
                Public-Key: (2048 bit)
                Modulus:
                    00:b0:b0:a5:54:2a:f4:6e:cb:36:d8:62:7a:82:95:
                    bf:78:7b:46:6c:81:b0:24:95:98:ca:9b:92:76:8e:
                    cb:7b:ad:72:0d:a9:d1:03:21:88:26:c5:73:d5:23:
                    bc:11:22:bf:2f:18:36:80:80:84:e9:20:f6:80:6a:
                    b6:ea:13:c9:73:fd:b2:75:fe:59:49:ff:a4:44:bd:
                    b2:b5:3e:b5:a6:b0:9d:39:09:d8:77:4d:a0:c5:74:
                    9b:10:a6:57:2c:ca:b3:61:c9:df:bc:0b:c3:48:0b:
                    02:eb:c3:39:a8:1d:90:26:88:1e:d3:fb:91:6d:bc:
                    59:62:e3:f7:49:17:cf:a2:da:b4:7e:ff:2f:33:b1:
                    71:57:29:50:dc:b4:f8:ae:0c:44:9f:7b:bf:56:7b:
                    50:14:79:60:c3:ae:fc:eb:f5:08:e6:5c:26:ef:bf:
                    b9:22:09:e9:53:19:58:20:6a:0e:54:f3:78:3e:a9:
                    47:43:bf:e1:b9:8c:05:88:92:cc:d7:b8:8f:84:04:
                    4f:cf:43:c0:68:46:9e:5a:c4:c6:9a:36:9d:2b:bb:
                    86:03:ba:93:32:f2:ac:e2:0f:4e:df:2a:2e:ff:2b:
                    f0:cb:7d:d3:74:50:49:8b:c5:70:38:bf:4e:bb:06:
                    fc:3f:f2:85:d7:ed:50:59:25:b8:19:38:49:0b:02:
                    72:61
                Exponent: 65537 (0x10001)
        X509v3 extensions:
            X509v3 Basic Constraints: 
                CA:FALSE
            X509v3 Subject Key Identifier: 
                62:2D:FA:ED:A3:DA:3B:A6:70:96:FB:31:64:35:EF:67:1C:EB:72:BB
            X509v3 Authority Key Identifier: 
                keyid:42:A5:F2:8B:D6:0C:88:6E:F8:F9:10:40:53:1F:5D:0F:1B:A1:66:52
                DirName:/CN=team402-net
                serial:30:11:E8:6B:D9:0D:80:34:84:6B:54:ED:26:92:DD:B5:A2:29:E2:F5
            X509v3 Extended Key Usage: 
                TLS Web Server Authentication
            X509v3 Key Usage: 
                Digital Signature, Key Encipherment
            X509v3 Subject Alternative Name: 
                DNS:team402-server
    Signature Algorithm: sha256WithRSAEncryption
    Signature Value:
        5d:76:07:7e:63:71:10:40:c4:34:ae:87:d9:03:aa:be:d9:32:
        c7:28:61:8a:72:fb:e7:1c:7b:5d:0f:ed:7f:61:0f:41:72:c0:
        21:16:95:c0:08:f4:fd:61:ed:81:c0:bd:25:da:27:34:d0:4f:
        29:d7:9d:3f:85:82:db:67:b2:64:dd:64:12:04:1b:4f:30:8b:
        9b:07:93:f4:95:ab:66:ed:a1:44:75:37:25:0e:98:82:ef:46:
        5c:4b:b9:7d:0e:22:d3:5c:23:7f:82:0a:54:28:b9:3d:e8:f0:
        6a:9b:a5:1c:88:3a:ca:62:4a:5e:80:b5:19:2c:2b:eb:19:ec:
        46:fe:58:c9:03:30:93:b2:84:b6:f1:84:4b:1f:d3:54:34:ba:
        5f:fd:b8:f7:7f:17:98:c6:b9:97:f8:db:97:71:1c:1c:62:87:
        05:3d:82:84:72:e8:03:26:26:4f:de:5a:f6:ea:1c:16:9f:a8:
        9e:5d:b5:f3:12:a5:6a:99:f4:a7:1b:28:8c:9e:fe:98:ed:cc:
        73:0e:6f:f3:0f:73:c2:0f:38:02:05:41:89:a6:c7:34:48:cc:
        4c:71:38:46:ac:d9:d5:f1:ce:a8:db:90:63:67:1d:cf:f2:5e:
        4a:f3:f3:18:e6:66:bd:b6:86:1e:9c:76:b5:22:0f:04:48:1c:
        c4:68:ae:85
-----BEGIN CERTIFICATE-----
MIIDdzCCAl+gAwIBAgIQAJFwyilhXpsSunDF0fwVvjANBgkqhkiG9w0BAQsFADAW
MRQwEgYDVQQDDAt0ZWFtNDAyLW5ldDAeFw0yMzExMDQxMDQ3NTNaFw0yNjEwMTkx
MDQ3NTNaMBkxFzAVBgNVBAMMDnRlYW00MDItc2VydmVyMIIBIjANBgkqhkiG9w0B
AQEFAAOCAQ8AMIIBCgKCAQEAsLClVCr0bss22GJ6gpW/eHtGbIGwJJWYypuSdo7L
e61yDanRAyGIJsVz1SO8ESK/Lxg2gICE6SD2gGq26hPJc/2ydf5ZSf+kRL2ytT61
prCdOQnYd02gxXSbEKZXLMqzYcnfvAvDSAsC68M5qB2QJoge0/uRbbxZYuP3SRfP
otq0fv8vM7FxVylQ3LT4rgxEn3u/VntQFHlgw6786/UI5lwm77+5IgnpUxlYIGoO
VPN4PqlHQ7/huYwFiJLM17iPhARPz0PAaEaeWsTGmjadK7uGA7qTMvKs4g9O3you
/yvwy33TdFBJi8VwOL9Ouwb8P/KF1+1QWSW4GThJCwJyYQIDAQABo4G9MIG6MAkG
A1UdEwQCMAAwHQYDVR0OBBYEFGIt+u2j2jumcJb7MWQ172cc63K7MFEGA1UdIwRK
MEiAFEKl8ovWDIhu+PkQQFMfXQ8boWZSoRqkGDAWMRQwEgYDVQQDDAt0ZWFtNDAy
LW5ldIIUMBHoa9kNgDSEa1TtJpLdtaIp4vUwEwYDVR0lBAwwCgYIKwYBBQUHAwEw
CwYDVR0PBAQDAgWgMBkGA1UdEQQSMBCCDnRlYW00MDItc2VydmVyMA0GCSqGSIb3
DQEBCwUAA4IBAQBddgd+Y3EQQMQ0rofZA6q+2TLHKGGKcvvnHHtdD+1/YQ9BcsAh
FpXACPT9Ye2BwL0l2ic00E8p150/hYLbZ7Jk3WQSBBtPMIubB5P0latm7aFEdTcl
DpiC70ZcS7l9DiLTXCN/ggpUKLk96PBqm6UciDrKYkpegLUZLCvrGexG/ljJAzCT
soS28YRLH9NUNLpf/bj3fxeYxrmX+NuXcRwcYocFPYKEcugDJiZP3lr26hwWn6ie
XbXzEqVqmfSnGyiMnv6Y7cxzDm/zD3PCDzgCBUGJpsc0SMxMcThGrNnV8c6o25Bj
Zx3P8l5K8/MY5ma9toYenHa1Ig8ESBzEaK6F
-----END CERTIFICATE-----
