Certificate:
    Data:
        Version: 3 (0x2)
        Serial Number:
            b5:1c:2a:ae:32:0d:90:6c:b5:4a:36:20:1d:d7:30:9c
        Signature Algorithm: sha256WithRSAEncryption
        Issuer: CN=team402-net
        Validity
            Not Before: Nov  4 10:47:53 2023 GMT
            Not After : Oct 19 10:47:53 2026 GMT
        Subject: CN=team402-client
        Subject Public Key Info:
            Public Key Algorithm: rsaEncryption
                Public-Key: (2048 bit)
                Modulus:
                    00:8d:a7:d1:c5:81:11:04:60:c4:24:71:45:aa:15:
                    af:cc:79:11:d7:d5:3d:bf:67:b1:db:40:7f:29:28:
                    88:01:5b:63:78:c8:fc:72:7c:09:f9:d9:f6:8a:3f:
                    e2:e3:4a:31:92:4e:be:51:44:cb:29:84:84:45:54:
                    d1:0c:1a:b0:e1:23:ce:80:d9:cc:86:41:76:c0:04:
                    be:57:84:58:a2:6d:73:6b:91:b6:e7:a7:ca:4d:02:
                    5f:f5:4d:f2:9a:6b:cb:34:1c:d1:b6:13:ab:c4:b0:
                    b8:ab:7e:07:19:5f:a5:5c:d1:17:ef:df:5e:21:0e:
                    df:e9:11:61:d4:53:f3:ac:4c:3f:b4:42:6d:5b:70:
                    1d:22:09:19:aa:9d:33:99:31:75:10:a6:e9:d2:64:
                    36:8b:65:45:68:4f:95:5f:c5:50:cb:a2:2d:94:02:
                    42:ff:06:78:51:43:bf:cb:c3:f1:b9:bd:75:9a:ac:
                    2b:65:18:a6:fa:89:db:52:cc:12:31:8d:b9:5f:5d:
                    2e:3e:8d:43:01:6f:72:40:38:78:57:7e:22:f0:3a:
                    81:e7:91:19:2d:ab:66:ec:91:6a:f3:62:4a:81:fb:
                    2d:f5:d7:cb:e0:8e:83:8b:79:f8:9f:dc:a0:58:ff:
                    8d:a8:c6:88:45:25:6a:b4:15:37:0f:58:6b:de:88:
                    22:c5
                Exponent: 65537 (0x10001)
        X509v3 extensions:
            X509v3 Basic Constraints: 
                CA:FALSE
            X509v3 Subject Key Identifier: 
                2B:7A:EF:E3:52:1E:94:DA:F1:70:D1:DE:3F:2F:06:2D:4E:27:EA:1E
            X509v3 Authority Key Identifier: 
                keyid:42:A5:F2:8B:D6:0C:88:6E:F8:F9:10:40:53:1F:5D:0F:1B:A1:66:52
                DirName:/CN=team402-net
                serial:30:11:E8:6B:D9:0D:80:34:84:6B:54:ED:26:92:DD:B5:A2:29:E2:F5
            X509v3 Extended Key Usage: 
                TLS Web Client Authentication
            X509v3 Key Usage: 
                Digital Signature
    Signature Algorithm: sha256WithRSAEncryption
    Signature Value:
        81:42:23:70:8f:8e:90:ae:97:7b:c7:8e:c1:14:b9:64:95:22:
        8b:8b:a9:6d:83:76:8d:fc:45:d4:2f:f1:a6:ef:a7:dd:35:b3:
        fc:d5:bc:45:63:3a:5b:3d:84:fa:25:01:18:90:2f:e9:d8:cc:
        55:8e:20:8d:d2:3b:87:ec:1e:f1:55:d4:6b:e7:86:fe:06:f5:
        ae:b3:f7:ed:e3:3e:51:18:b5:49:97:cb:94:b5:13:a5:8a:01:
        96:dd:ae:33:e2:40:53:71:46:5c:87:9f:1e:8e:34:d4:e8:04:
        e1:0a:ec:03:93:c4:e2:11:f3:00:91:cc:84:2d:4b:09:d5:bd:
        37:fd:01:a4:b1:2c:c6:47:b7:c0:cd:30:85:ab:93:b2:30:08:
        f7:b8:bd:6f:df:47:f1:da:82:7c:ea:c8:8f:1c:25:b7:de:54:
        1c:cf:54:d6:d4:93:01:e7:64:10:5f:2f:1b:67:bf:c6:4a:b2:
        be:0d:21:96:8a:e8:28:c5:5b:61:93:9e:04:52:9d:50:04:bc:
        9f:40:ed:ee:1b:97:9e:b5:ae:40:e8:e9:de:37:40:81:4c:20:
        a0:38:c9:0d:fb:8c:11:fd:19:c8:5c:8b:a4:3a:bf:be:b4:67:
        ef:81:ac:b7:11:43:44:b6:e2:19:c6:31:4a:47:8e:6e:0d:02:
        b9:2a:63:1e
-----BEGIN CERTIFICATE-----
MIIDXTCCAkWgAwIBAgIRALUcKq4yDZBstUo2IB3XMJwwDQYJKoZIhvcNAQELBQAw
FjEUMBIGA1UEAwwLdGVhbTQwMi1uZXQwHhcNMjMxMTA0MTA0NzUzWhcNMjYxMDE5
MTA0NzUzWjAZMRcwFQYDVQQDDA50ZWFtNDAyLWNsaWVudDCCASIwDQYJKoZIhvcN
AQEBBQADggEPADCCAQoCggEBAI2n0cWBEQRgxCRxRaoVr8x5EdfVPb9nsdtAfyko
iAFbY3jI/HJ8CfnZ9oo/4uNKMZJOvlFEyymEhEVU0QwasOEjzoDZzIZBdsAEvleE
WKJtc2uRtuenyk0CX/VN8ppryzQc0bYTq8SwuKt+BxlfpVzRF+/fXiEO3+kRYdRT
86xMP7RCbVtwHSIJGaqdM5kxdRCm6dJkNotlRWhPlV/FUMuiLZQCQv8GeFFDv8vD
8bm9dZqsK2UYpvqJ21LMEjGNuV9dLj6NQwFvckA4eFd+IvA6geeRGS2rZuyRavNi
SoH7LfXXy+COg4t5+J/coFj/jajGiEUlarQVNw9Ya96IIsUCAwEAAaOBojCBnzAJ
BgNVHRMEAjAAMB0GA1UdDgQWBBQreu/jUh6U2vFw0d4/LwYtTifqHjBRBgNVHSME
SjBIgBRCpfKL1gyIbvj5EEBTH10PG6FmUqEapBgwFjEUMBIGA1UEAwwLdGVhbTQw
Mi1uZXSCFDAR6GvZDYA0hGtU7SaS3bWiKeL1MBMGA1UdJQQMMAoGCCsGAQUFBwMC
MAsGA1UdDwQEAwIHgDANBgkqhkiG9w0BAQsFAAOCAQEAgUIjcI+OkK6Xe8eOwRS5
ZJUii4upbYN2jfxF1C/xpu+n3TWz/NW8RWM6Wz2E+iUBGJAv6djMVY4gjdI7h+we
8VXUa+eG/gb1rrP37eM+URi1SZfLlLUTpYoBlt2uM+JAU3FGXIefHo401OgE4Qrs
A5PE4hHzAJHMhC1LCdW9N/0BpLEsxke3wM0whauTsjAI97i9b99H8dqCfOrIjxwl
t95UHM9U1tSTAedkEF8vG2e/xkqyvg0hloroKMVbYZOeBFKdUAS8n0Dt7huXnrWu
QOjp3jdAgUwgoDjJDfuMEf0ZyFyLpDq/vrRn74GstxFDRLbiGcYxSkeObg0CuSpj
Hg==
-----END CERTIFICATE-----
