Certificate:
    Data:
        Version: 3 (0x2)
        Serial Number:
            9e:88:5f:ae:e0:c7:67:cf:33:20:09:ae:27:ad:f0:3f
        Signature Algorithm: sha256WithRSAEncryption
        Issuer: CN=team273-net
        Validity
            Not Before: Nov  3 20:44:17 2023 GMT
            Not After : Oct 18 20:44:17 2026 GMT
        Subject: CN=team273-server
        Subject Public Key Info:
            Public Key Algorithm: rsaEncryption
                Public-Key: (2048 bit)
                Modulus:
                    00:ba:bf:67:be:66:2f:8a:77:45:b1:7c:4f:dd:ad:
                    83:0e:2a:04:88:62:c8:6f:c7:e2:62:2d:9e:6c:4a:
                    86:8c:ce:7f:a7:6e:18:ce:b1:d6:09:3f:b3:ef:19:
                    37:5b:52:90:9e:c4:0c:e7:02:c0:a9:a6:a8:66:c8:
                    31:11:d1:c8:94:0d:da:76:9b:b4:2f:51:1a:2d:e6:
                    12:7e:65:fd:65:ea:61:db:a7:37:19:e1:7d:c5:db:
                    c5:c6:10:99:d2:b6:fc:e6:a9:85:86:27:3e:a8:9c:
                    fc:95:21:83:4a:b5:db:7c:3a:e2:09:08:74:c5:a8:
                    61:c1:f3:c5:bb:68:7b:c5:86:4d:08:f3:6f:a9:11:
                    16:13:e4:8e:92:4a:0b:dd:f7:7d:11:7e:b3:c2:dd:
                    64:f8:74:6a:4e:4a:76:30:c5:1a:4d:5c:4b:ca:21:
                    52:86:cb:ee:d9:d9:7e:bf:3d:31:3f:7f:ab:c2:09:
                    b8:7b:d4:02:ce:70:60:b7:b2:21:2e:dd:58:bd:6d:
                    3f:91:61:ae:61:d7:7e:0e:b9:04:b2:6d:dc:d9:6d:
                    e5:27:78:57:c3:10:52:02:ab:e9:6d:32:82:c8:b9:
                    ce:21:d5:cd:49:0e:d1:72:ea:52:8b:01:70:b3:81:
                    02:dd:e1:21:f2:fd:c7:05:f5:ad:91:d6:91:91:4f:
                    d9:a5
                Exponent: 65537 (0x10001)
        X509v3 extensions:
            X509v3 Basic Constraints: 
                CA:FALSE
            X509v3 Subject Key Identifier: 
                C9:8C:73:E4:52:CE:40:D7:DB:ED:9E:88:45:0F:D1:21:79:E2:2B:E6
            X509v3 Authority Key Identifier: 
                keyid:AD:29:5B:7A:57:06:DD:06:81:C3:56:EA:1B:F3:AC:22:71:70:11:0F
                DirName:/CN=team273-net
                serial:29:7D:93:5F:D6:76:C2:99:FE:A1:4E:7A:5E:EC:DC:3F:93:C7:D6:00
            X509v3 Extended Key Usage: 
                TLS Web Server Authentication
            X509v3 Key Usage: 
                Digital Signature, Key Encipherment
            X509v3 Subject Alternative Name: 
                DNS:team273-server
    Signature Algorithm: sha256WithRSAEncryption
    Signature Value:
        09:dd:5a:9f:f3:d9:f9:c1:a9:2d:f8:0c:87:0f:73:f5:5c:a0:
        c5:ae:4f:bb:6c:64:4c:6d:25:dd:1e:81:15:7a:41:70:b7:76:
        42:33:37:70:2c:0c:9e:d5:91:54:f0:9e:89:79:7a:c8:bb:9d:
        68:d5:a5:79:ad:2d:fe:da:4f:a9:f6:f7:61:38:3d:17:a4:87:
        84:27:74:f8:a3:2f:b5:d1:11:d0:d2:4f:3e:b0:43:a7:56:23:
        d3:c8:23:c2:47:0d:ff:89:67:12:6c:48:ac:65:9c:a3:51:01:
        d8:d8:f6:01:bc:f1:94:44:f3:d1:42:14:63:c2:30:2c:e4:41:
        1a:5b:e8:2d:76:97:92:e6:cc:c5:e8:54:85:02:e8:2f:7d:6e:
        5b:6c:8b:c6:15:a8:3b:16:09:18:23:4c:cf:b7:25:97:93:34:
        37:03:6b:37:0b:6c:97:a8:89:ca:8a:7c:15:12:b7:33:9c:63:
        c6:30:5c:7e:5b:d2:86:e7:61:f3:28:1f:2a:59:e7:8b:d8:27:
        7b:10:3b:55:2c:b1:ef:19:b7:6f:93:65:1f:12:28:87:bf:c1:
        6d:56:d9:a1:66:cc:0d:5f:2c:ed:ed:5f:ed:dd:78:ff:96:2b:
        9b:68:f9:f9:12:89:8d:9c:2c:03:fd:98:01:68:6e:8b:a0:5c:
        96:89:31:0f
-----BEGIN CERTIFICATE-----
MIIDeDCCAmCgAwIBAgIRAJ6IX67gx2fPMyAJriet8D8wDQYJKoZIhvcNAQELBQAw
FjEUMBIGA1UEAwwLdGVhbTI3My1uZXQwHhcNMjMxMTAzMjA0NDE3WhcNMjYxMDE4
MjA0NDE3WjAZMRcwFQYDVQQDDA50ZWFtMjczLXNlcnZlcjCCASIwDQYJKoZIhvcN
AQEBBQADggEPADCCAQoCggEBALq/Z75mL4p3RbF8T92tgw4qBIhiyG/H4mItnmxK
hozOf6duGM6x1gk/s+8ZN1tSkJ7EDOcCwKmmqGbIMRHRyJQN2nabtC9RGi3mEn5l
/WXqYdunNxnhfcXbxcYQmdK2/OaphYYnPqic/JUhg0q123w64gkIdMWoYcHzxbto
e8WGTQjzb6kRFhPkjpJKC933fRF+s8LdZPh0ak5KdjDFGk1cS8ohUobL7tnZfr89
MT9/q8IJuHvUAs5wYLeyIS7dWL1tP5FhrmHXfg65BLJt3Nlt5Sd4V8MQUgKr6W0y
gsi5ziHVzUkO0XLqUosBcLOBAt3hIfL9xwX1rZHWkZFP2aUCAwEAAaOBvTCBujAJ
BgNVHRMEAjAAMB0GA1UdDgQWBBTJjHPkUs5A19vtnohFD9EheeIr5jBRBgNVHSME
SjBIgBStKVt6VwbdBoHDVuob86wicXARD6EapBgwFjEUMBIGA1UEAwwLdGVhbTI3
My1uZXSCFCl9k1/WdsKZ/qFOel7s3D+Tx9YAMBMGA1UdJQQMMAoGCCsGAQUFBwMB
MAsGA1UdDwQEAwIFoDAZBgNVHREEEjAQgg50ZWFtMjczLXNlcnZlcjANBgkqhkiG
9w0BAQsFAAOCAQEACd1an/PZ+cGpLfgMhw9z9Vygxa5Pu2xkTG0l3R6BFXpBcLd2
QjM3cCwMntWRVPCeiXl6yLudaNWlea0t/tpPqfb3YTg9F6SHhCd0+KMvtdER0NJP
PrBDp1Yj08gjwkcN/4lnEmxIrGWco1EB2Nj2AbzxlETz0UIUY8IwLORBGlvoLXaX
kubMxehUhQLoL31uW2yLxhWoOxYJGCNMz7cll5M0NwNrNwtsl6iJyop8FRK3M5xj
xjBcflvShudh8ygfKlnni9gnexA7VSyx7xm3b5NlHxIoh7/BbVbZoWbMDV8s7e1f
7d14/5Yrm2j5+RKJjZwsA/2YAWhui6BclokxDw==
-----END CERTIFICATE-----
