Certificate:
    Data:
        Version: 3 (0x2)
        Serial Number:
            40:9d:46:f9:d1:70:a0:16:d4:5e:d2:e7:2a:d7:14:06
        Signature Algorithm: sha256WithRSAEncryption
        Issuer: CN=team445-net
        Validity
            Not Before: Nov  4 10:48:35 2023 GMT
            Not After : Oct 19 10:48:35 2026 GMT
        Subject: CN=team445-client
        Subject Public Key Info:
            Public Key Algorithm: rsaEncryption
                Public-Key: (2048 bit)
                Modulus:
                    00:db:cd:7d:ed:a9:28:93:41:d7:5c:14:85:23:bd:
                    0f:4b:ef:7f:53:9c:3d:1e:2a:91:99:18:5d:d0:00:
                    55:50:e0:ed:63:c2:7d:f5:d3:90:e1:77:83:bb:ea:
                    90:9e:ac:35:5d:df:21:fd:50:84:7d:00:d2:f4:57:
                    ca:6c:74:88:b0:17:ce:14:7a:21:f2:24:20:1f:53:
                    48:83:f7:a4:e0:02:8e:ef:3b:fc:2a:9e:4f:0a:ce:
                    fb:12:9d:61:cc:79:f0:86:70:e7:1c:4b:fb:90:be:
                    09:79:9c:4b:fe:8c:64:ac:1f:3e:94:02:bc:f5:fc:
                    85:6d:e1:78:59:80:5b:fd:80:5e:51:3a:87:5e:f5:
                    32:dd:ae:ac:78:cf:40:32:f7:9f:4b:b3:76:ee:50:
                    76:f5:a9:e3:ab:6a:80:32:10:0c:e0:01:8e:33:ca:
                    13:fa:be:3a:b3:14:65:3c:58:b9:8c:32:ef:f4:82:
                    c5:15:78:bd:44:16:88:32:b4:95:ef:40:93:fe:4a:
                    7f:a8:64:fe:14:94:f4:95:f0:80:1c:d3:c1:32:57:
                    e8:f6:50:fe:d0:85:45:47:cd:08:87:51:18:50:1e:
                    d6:f6:c6:60:3a:b0:41:6f:5f:1b:02:e6:2c:98:08:
                    a2:a4:68:fd:fa:f3:68:e2:25:25:b1:52:85:79:81:
                    f5:e3
                Exponent: 65537 (0x10001)
        X509v3 extensions:
            X509v3 Basic Constraints: 
                CA:FALSE
            X509v3 Subject Key Identifier: 
                EB:3C:09:30:B8:52:95:46:F4:22:36:3B:AA:52:EF:91:2F:BC:3C:AB
            X509v3 Authority Key Identifier: 
                keyid:CA:23:B2:CC:1C:96:4D:D7:9A:06:35:5B:BD:9A:A0:AC:47:5D:20:C2
                DirName:/CN=team445-net
                serial:3D:54:91:4E:D5:57:0F:28:FD:67:A9:E1:32:EE:8B:C8:19:6D:B4:99
            X509v3 Extended Key Usage: 
                TLS Web Client Authentication
            X509v3 Key Usage: 
                Digital Signature
    Signature Algorithm: sha256WithRSAEncryption
    Signature Value:
        9c:45:a0:93:3c:dc:aa:eb:27:66:76:5c:3f:fe:09:27:e8:21:
        6b:b5:ed:c6:91:89:28:c7:19:52:75:66:d3:7d:8f:6e:3b:39:
        d4:03:d9:1c:a8:4e:c6:87:5c:35:14:41:c8:62:81:e3:74:45:
        eb:ce:55:c3:cc:47:0e:24:0c:67:de:f5:e2:b1:ff:a5:1c:d9:
        8a:dc:d4:11:fa:d8:57:6c:9e:fa:ea:45:eb:de:99:59:8d:78:
        dc:fe:4f:ae:82:4d:b1:42:51:04:01:9f:bc:54:b2:80:be:f6:
        41:88:d7:6a:48:6e:03:77:ce:10:79:07:c1:89:69:de:6e:44:
        4e:43:7d:ff:2e:07:18:bb:91:72:d7:6f:52:6e:9b:5b:28:cb:
        97:38:14:2f:fd:40:e8:93:48:01:8a:c0:58:12:bd:e5:ca:7f:
        26:81:e3:13:3c:44:e7:04:b4:99:f8:71:d9:0f:cf:b3:00:12:
        12:88:db:ac:ac:ce:0d:bc:c3:e9:34:8d:20:89:2a:56:0b:d5:
        18:8d:c2:d7:44:27:2b:de:ac:6c:62:5b:e3:37:3f:0e:67:03:
        fc:d3:65:39:90:70:a8:45:a9:dd:e7:45:13:f0:0a:cd:a6:38:
        a4:64:8e:e6:8e:2e:6a:4b:20:32:65:22:6e:a5:2e:a1:ff:fd:
        e8:ea:d1:39
-----BEGIN CERTIFICATE-----
MIIDXDCCAkSgAwIBAgIQQJ1G+dFwoBbUXtLnKtcUBjANBgkqhkiG9w0BAQsFADAW
MRQwEgYDVQQDDAt0ZWFtNDQ1LW5ldDAeFw0yMzExMDQxMDQ4MzVaFw0yNjEwMTkx
MDQ4MzVaMBkxFzAVBgNVBAMMDnRlYW00NDUtY2xpZW50MIIBIjANBgkqhkiG9w0B
AQEFAAOCAQ8AMIIBCgKCAQEA28197akok0HXXBSFI70PS+9/U5w9HiqRmRhd0ABV
UODtY8J99dOQ4XeDu+qQnqw1Xd8h/VCEfQDS9FfKbHSIsBfOFHoh8iQgH1NIg/ek
4AKO7zv8Kp5PCs77Ep1hzHnwhnDnHEv7kL4JeZxL/oxkrB8+lAK89fyFbeF4WYBb
/YBeUTqHXvUy3a6seM9AMvefS7N27lB29anjq2qAMhAM4AGOM8oT+r46sxRlPFi5
jDLv9ILFFXi9RBaIMrSV70CT/kp/qGT+FJT0lfCAHNPBMlfo9lD+0IVFR80Ih1EY
UB7W9sZgOrBBb18bAuYsmAiipGj9+vNo4iUlsVKFeYH14wIDAQABo4GiMIGfMAkG
A1UdEwQCMAAwHQYDVR0OBBYEFOs8CTC4UpVG9CI2O6pS75EvvDyrMFEGA1UdIwRK
MEiAFMojsswclk3XmgY1W72aoKxHXSDCoRqkGDAWMRQwEgYDVQQDDAt0ZWFtNDQ1
LW5ldIIUPVSRTtVXDyj9Z6nhMu6LyBlttJkwEwYDVR0lBAwwCgYIKwYBBQUHAwIw
CwYDVR0PBAQDAgeAMA0GCSqGSIb3DQEBCwUAA4IBAQCcRaCTPNyq6ydmdlw//gkn
6CFrte3GkYkoxxlSdWbTfY9uOznUA9kcqE7Gh1w1FEHIYoHjdEXrzlXDzEcOJAxn
3vXisf+lHNmK3NQR+thXbJ766kXr3plZjXjc/k+ugk2xQlEEAZ+8VLKAvvZBiNdq
SG4Dd84QeQfBiWnebkROQ33/LgcYu5Fy129SbptbKMuXOBQv/UDok0gBisBYEr3l
yn8mgeMTPETnBLSZ+HHZD8+zABISiNusrM4NvMPpNI0giSpWC9UYjcLXRCcr3qxs
YlvjNz8OZwP802U5kHCoRand50UT8ArNpjikZI7mji5qSyAyZSJupS6h//3o6tE5
-----END CERTIFICATE-----
