Certificate:
    Data:
        Version: 3 (0x2)
        Serial Number:
            56:d1:54:3b:e2:70:ac:9f:dd:0b:f7:37:0c:78:99:d4
        Signature Algorithm: sha256WithRSAEncryption
        Issuer: CN=team445-net
        Validity
            Not Before: Nov  4 10:48:36 2023 GMT
            Not After : Oct 19 10:48:36 2026 GMT
        Subject: CN=team445-server
        Subject Public Key Info:
            Public Key Algorithm: rsaEncryption
                Public-Key: (2048 bit)
                Modulus:
                    00:c4:9c:16:aa:5a:0b:da:f9:19:41:43:e8:0e:7a:
                    2b:cd:b2:74:a1:70:c0:7a:09:d4:51:d2:01:d0:a9:
                    5a:a9:98:01:b7:d7:65:99:8a:e8:0e:c3:43:6a:ce:
                    b2:e3:e5:75:89:89:a2:9e:e6:42:57:f6:aa:9f:0c:
                    ec:83:7f:a5:7b:e6:a1:f2:f3:8a:a5:d9:f7:3f:d1:
                    ff:45:d9:7a:15:cc:2b:78:99:a4:5f:82:a5:47:e4:
                    02:e8:d5:de:d9:c0:fd:22:0b:ea:e4:95:52:7c:71:
                    31:26:cc:ce:87:27:fa:26:68:ee:6e:b9:87:71:d3:
                    65:fd:d4:a0:76:37:69:5a:6e:36:ad:fd:15:6a:18:
                    16:9a:1d:65:06:e0:0b:20:6b:a6:2a:46:39:55:88:
                    18:6e:d9:7b:7f:09:3f:1d:2b:5f:2e:da:54:24:4c:
                    77:e7:46:3f:38:ef:b0:10:cd:58:37:26:ee:1a:99:
                    7a:e1:7c:8c:43:f9:0b:47:18:7d:c5:40:5d:36:2c:
                    79:ce:71:2f:cd:f6:ff:94:18:1d:5c:58:e1:8a:2c:
                    58:e1:9d:84:31:8f:35:b0:69:b5:32:e6:33:f2:bb:
                    10:df:73:c9:e7:f5:7b:55:04:99:b9:e9:3e:9d:5a:
                    f0:a4:24:0e:59:bc:85:4b:72:a6:9e:25:11:66:8f:
                    31:91
                Exponent: 65537 (0x10001)
        X509v3 extensions:
            X509v3 Basic Constraints: 
                CA:FALSE
            X509v3 Subject Key Identifier: 
                D5:0C:CA:F1:65:01:D1:A8:AC:D9:5B:F5:2B:27:1F:5D:81:64:82:AE
            X509v3 Authority Key Identifier: 
                keyid:CA:23:B2:CC:1C:96:4D:D7:9A:06:35:5B:BD:9A:A0:AC:47:5D:20:C2
                DirName:/CN=team445-net
                serial:3D:54:91:4E:D5:57:0F:28:FD:67:A9:E1:32:EE:8B:C8:19:6D:B4:99
            X509v3 Extended Key Usage: 
                TLS Web Server Authentication
            X509v3 Key Usage: 
                Digital Signature, Key Encipherment
            X509v3 Subject Alternative Name: 
                DNS:team445-server
    Signature Algorithm: sha256WithRSAEncryption
    Signature Value:
        44:7d:44:46:c6:2d:ca:12:32:83:f9:25:7b:0f:e1:0d:ea:e8:
        ce:88:15:13:9c:1e:3b:bf:b5:c2:f4:2e:78:56:52:16:11:3f:
        a5:f3:f4:ff:6a:d4:52:5a:73:a9:dd:6e:2d:d7:48:db:f6:71:
        e0:2c:d5:13:a3:a5:6e:b7:e4:b3:c5:a9:c9:41:7d:c4:e6:44:
        a5:46:96:94:2f:62:32:e7:67:b0:3d:71:f3:33:df:83:ba:86:
        0f:8e:a6:16:e4:66:9f:ba:83:1b:36:13:98:5a:69:4f:9d:f0:
        e6:bc:53:dc:df:d8:26:a6:13:fe:2c:04:22:ba:d6:33:b6:91:
        ca:8b:26:5d:c0:6f:7b:59:50:91:4a:84:75:c6:30:d9:e9:62:
        0b:5c:a6:50:99:6b:b3:93:db:18:31:80:4f:69:d8:82:d0:70:
        27:26:ab:f3:e1:ab:1a:b1:80:49:ed:7d:02:8c:ab:fa:06:19:
        9d:3b:d6:12:09:a8:ee:18:5e:97:97:f8:6c:43:cc:21:e1:93:
        85:9c:8e:ae:ce:03:91:2f:15:d8:7f:ba:76:53:e6:3c:5a:0b:
        f6:95:2f:ce:7a:5d:29:25:b4:f7:8c:ca:47:22:e1:68:43:6b:
        67:2a:bc:31:22:92:2c:ed:59:10:e2:98:84:26:f4:3f:66:73:
        a5:4b:5d:df
-----BEGIN CERTIFICATE-----
MIIDdzCCAl+gAwIBAgIQVtFUO+JwrJ/dC/c3DHiZ1DANBgkqhkiG9w0BAQsFADAW
MRQwEgYDVQQDDAt0ZWFtNDQ1LW5ldDAeFw0yMzExMDQxMDQ4MzZaFw0yNjEwMTkx
MDQ4MzZaMBkxFzAVBgNVBAMMDnRlYW00NDUtc2VydmVyMIIBIjANBgkqhkiG9w0B
AQEFAAOCAQ8AMIIBCgKCAQEAxJwWqloL2vkZQUPoDnorzbJ0oXDAegnUUdIB0Kla
qZgBt9dlmYroDsNDas6y4+V1iYminuZCV/aqnwzsg3+le+ah8vOKpdn3P9H/Rdl6
FcwreJmkX4KlR+QC6NXe2cD9Igvq5JVSfHExJszOhyf6JmjubrmHcdNl/dSgdjdp
Wm42rf0VahgWmh1lBuALIGumKkY5VYgYbtl7fwk/HStfLtpUJEx350Y/OO+wEM1Y
NybuGpl64XyMQ/kLRxh9xUBdNix5znEvzfb/lBgdXFjhiixY4Z2EMY81sGm1MuYz
8rsQ33PJ5/V7VQSZuek+nVrwpCQOWbyFS3KmniURZo8xkQIDAQABo4G9MIG6MAkG
A1UdEwQCMAAwHQYDVR0OBBYEFNUMyvFlAdGorNlb9SsnH12BZIKuMFEGA1UdIwRK
MEiAFMojsswclk3XmgY1W72aoKxHXSDCoRqkGDAWMRQwEgYDVQQDDAt0ZWFtNDQ1
LW5ldIIUPVSRTtVXDyj9Z6nhMu6LyBlttJkwEwYDVR0lBAwwCgYIKwYBBQUHAwEw
CwYDVR0PBAQDAgWgMBkGA1UdEQQSMBCCDnRlYW00NDUtc2VydmVyMA0GCSqGSIb3
DQEBCwUAA4IBAQBEfURGxi3KEjKD+SV7D+EN6ujOiBUTnB47v7XC9C54VlIWET+l
8/T/atRSWnOp3W4t10jb9nHgLNUTo6Vut+SzxanJQX3E5kSlRpaUL2Iy52ewPXHz
M9+DuoYPjqYW5GafuoMbNhOYWmlPnfDmvFPc39gmphP+LAQiutYztpHKiyZdwG97
WVCRSoR1xjDZ6WILXKZQmWuzk9sYMYBPadiC0HAnJqvz4asasYBJ7X0CjKv6Bhmd
O9YSCajuGF6Xl/hsQ8wh4ZOFnI6uzgORLxXYf7p2U+Y8Wgv2lS/Oel0pJbT3jMpH
IuFoQ2tnKrwxIpIs7VkQ4piEJvQ/ZnOlS13f
-----END CERTIFICATE-----
