Certificate:
    Data:
        Version: 3 (0x2)
        Serial Number:
            ca:7f:bb:f2:1d:f9:6d:54:88:27:fd:ff:ea:93:bb:3b
        Signature Algorithm: sha256WithRSAEncryption
        Issuer: CN=team445-net
        Validity
            Not Before: Nov  4 11:37:29 2023 GMT
            Not After : Oct 19 11:37:29 2026 GMT
        Subject: CN=team445-server
        Subject Public Key Info:
            Public Key Algorithm: rsaEncryption
                Public-Key: (2048 bit)
                Modulus:
                    00:bf:31:cc:e3:a7:f5:dd:7f:dc:a3:b0:a8:98:e3:
                    04:7a:18:4c:a5:52:6c:4b:35:7d:70:44:85:60:8b:
                    cf:24:bb:ca:d2:91:f2:c7:f0:04:c1:23:36:87:6d:
                    9b:c3:af:e6:73:e1:02:32:9b:6b:ad:47:9b:e8:13:
                    fd:b6:3c:d5:bd:b5:72:23:4c:8d:6f:2e:6f:1e:7d:
                    3a:f7:08:c8:88:b6:d8:2b:50:f6:8f:d7:a8:b3:d3:
                    06:63:84:7d:e6:a4:0d:dc:8f:dc:b8:f4:18:4f:03:
                    ca:b1:99:34:41:a3:cb:4a:65:b6:cc:ff:80:c6:1b:
                    57:3c:17:3b:c2:95:89:91:bb:24:49:bd:f5:20:de:
                    d0:45:d6:c2:cf:9a:ac:aa:29:9a:79:f5:d5:56:3d:
                    a2:9e:f4:f8:ea:fc:52:86:a3:66:ff:d1:aa:e6:38:
                    d2:36:94:6f:74:ea:44:d9:44:5c:a9:2f:df:12:c1:
                    e5:74:11:73:b9:20:e4:f8:94:7b:81:71:34:ad:f5:
                    7f:c6:e4:a2:6f:00:e5:79:20:08:26:df:fb:e7:e1:
                    76:03:43:5c:6e:b0:18:0e:fb:50:23:db:38:28:9f:
                    da:b0:d7:5b:59:f3:7f:a3:6b:78:7a:79:a0:ec:22:
                    fb:32:b9:38:a2:d2:fe:c5:5e:d5:5a:63:da:2e:4c:
                    e2:21
                Exponent: 65537 (0x10001)
        X509v3 extensions:
            X509v3 Basic Constraints: 
                CA:FALSE
            X509v3 Subject Key Identifier: 
                BA:4E:50:1A:8A:5A:AA:E5:71:C0:A0:60:50:DD:94:5D:F1:CE:26:04
            X509v3 Authority Key Identifier: 
                keyid:BE:F1:1B:FA:8D:47:31:F6:F0:09:A2:5C:17:54:39:74:33:C6:2D:98
                DirName:/CN=team445-net
                serial:3D:89:A0:3A:75:EC:CC:C7:05:B0:38:F1:E8:60:49:27:A9:61:44:4A
            X509v3 Extended Key Usage: 
                TLS Web Server Authentication
            X509v3 Key Usage: 
                Digital Signature, Key Encipherment
            X509v3 Subject Alternative Name: 
                DNS:team445-server
    Signature Algorithm: sha256WithRSAEncryption
    Signature Value:
        16:85:7c:f0:3a:85:89:9d:35:41:d4:26:12:5a:86:90:43:4e:
        93:5d:46:f7:43:71:04:d3:5a:a1:95:02:91:21:d6:86:76:c6:
        11:9a:4d:82:1e:04:4a:da:6b:f7:fb:5c:8e:f1:a6:2f:1f:a3:
        6c:2f:e7:bf:40:30:46:18:de:a0:75:e9:c1:a9:98:ac:cd:57:
        08:89:0e:e7:27:70:35:6a:d6:21:5c:10:06:0d:fe:fb:b8:6f:
        19:f3:3d:4c:3b:a3:30:37:ca:a5:11:dc:70:e5:5a:ae:d3:6b:
        0c:46:90:a7:77:a5:90:5c:f0:d7:02:ad:b0:fc:ed:e0:29:20:
        1e:0a:32:cc:3d:56:58:5a:b9:f0:83:65:b6:a6:4f:6b:66:fd:
        e5:59:15:61:40:73:33:f9:3e:da:d0:33:cc:63:47:b1:92:2f:
        a1:b6:a0:11:d7:2a:11:65:75:c4:d2:13:c3:dd:4d:ea:aa:d5:
        0d:19:13:ac:44:75:e8:01:27:55:11:bb:fa:93:bd:34:64:4d:
        ef:47:b4:b4:47:c2:e2:bd:08:91:c1:19:a9:f9:34:cd:e0:c3:
        9f:ff:a0:9e:b3:63:7f:d9:1c:0d:e4:3c:ce:83:0a:9e:6f:7a:
        ff:ab:0c:fb:42:ac:b9:d2:4d:96:de:cf:59:5b:48:88:ae:7a:
        fd:7f:d4:a9
-----BEGIN CERTIFICATE-----
MIIDeDCCAmCgAwIBAgIRAMp/u/Id+W1UiCf9/+qTuzswDQYJKoZIhvcNAQELBQAw
FjEUMBIGA1UEAwwLdGVhbTQ0NS1uZXQwHhcNMjMxMTA0MTEzNzI5WhcNMjYxMDE5
MTEzNzI5WjAZMRcwFQYDVQQDDA50ZWFtNDQ1LXNlcnZlcjCCASIwDQYJKoZIhvcN
AQEBBQADggEPADCCAQoCggEBAL8xzOOn9d1/3KOwqJjjBHoYTKVSbEs1fXBEhWCL
zyS7ytKR8sfwBMEjNodtm8Ov5nPhAjKba61Hm+gT/bY81b21ciNMjW8ubx59OvcI
yIi22CtQ9o/XqLPTBmOEfeakDdyP3Lj0GE8DyrGZNEGjy0pltsz/gMYbVzwXO8KV
iZG7JEm99SDe0EXWws+arKopmnn11VY9op70+Or8UoajZv/RquY40jaUb3TqRNlE
XKkv3xLB5XQRc7kg5PiUe4FxNK31f8bkom8A5XkgCCbf++fhdgNDXG6wGA77UCPb
OCif2rDXW1nzf6NreHp5oOwi+zK5OKLS/sVe1Vpj2i5M4iECAwEAAaOBvTCBujAJ
BgNVHRMEAjAAMB0GA1UdDgQWBBS6TlAailqq5XHAoGBQ3ZRd8c4mBDBRBgNVHSME
SjBIgBS+8Rv6jUcx9vAJolwXVDl0M8YtmKEapBgwFjEUMBIGA1UEAwwLdGVhbTQ0
NS1uZXSCFD2JoDp17MzHBbA48ehgSSepYURKMBMGA1UdJQQMMAoGCCsGAQUFBwMB
MAsGA1UdDwQEAwIFoDAZBgNVHREEEjAQgg50ZWFtNDQ1LXNlcnZlcjANBgkqhkiG
9w0BAQsFAAOCAQEAFoV88DqFiZ01QdQmElqGkENOk11G90NxBNNaoZUCkSHWhnbG
EZpNgh4EStpr9/tcjvGmLx+jbC/nv0AwRhjeoHXpwamYrM1XCIkO5ydwNWrWIVwQ
Bg3++7hvGfM9TDujMDfKpRHccOVartNrDEaQp3elkFzw1wKtsPzt4CkgHgoyzD1W
WFq58INltqZPa2b95VkVYUBzM/k+2tAzzGNHsZIvobagEdcqEWV1xNITw91N6qrV
DRkTrER16AEnVRG7+pO9NGRN70e0tEfC4r0IkcEZqfk0zeDDn/+gnrNjf9kcDeQ8
zoMKnm96/6sM+0KsudJNlt7PWVtIiK56/X/UqQ==
-----END CERTIFICATE-----
