Certificate:
    Data:
        Version: 3 (0x2)
        Serial Number:
            62:b7:61:58:93:67:42:9a:29:54:81:c4:3d:64:3b:1e
        Signature Algorithm: sha256WithRSAEncryption
        Issuer: CN=team343-net
        Validity
            Not Before: Nov  3 20:45:33 2023 GMT
            Not After : Oct 18 20:45:33 2026 GMT
        Subject: CN=team343-server
        Subject Public Key Info:
            Public Key Algorithm: rsaEncryption
                Public-Key: (2048 bit)
                Modulus:
                    00:bf:ee:a9:be:72:1d:b3:a4:77:f9:25:fb:5d:79:
                    06:19:f4:08:ff:6d:40:d7:6b:f8:3a:30:02:3e:8b:
                    8f:23:91:8d:88:bc:57:68:ee:24:a5:ca:4b:91:3a:
                    62:ed:82:1d:cd:37:1c:e7:c6:9a:23:64:f4:25:ed:
                    8d:74:64:49:84:56:fd:28:6d:7d:81:c5:1f:23:cb:
                    42:29:a3:cd:f3:6a:db:04:b7:7d:1e:aa:f9:74:25:
                    83:66:de:29:a0:6c:dd:b5:0e:df:54:10:30:9b:19:
                    9c:12:d2:1f:d6:7b:f5:02:17:64:5e:dd:cf:3f:d4:
                    ec:cb:08:0b:73:9a:93:03:98:f9:48:0f:78:ae:6b:
                    0c:ea:a4:3a:41:b2:bd:11:5e:d7:8d:4d:4a:4f:66:
                    7f:83:8d:b8:1a:bc:34:5f:7b:c7:9d:77:04:65:f3:
                    84:82:3b:fe:49:bd:4a:d4:2f:3b:8d:58:20:24:97:
                    f8:8a:95:d0:46:84:b5:34:59:9b:89:10:83:36:1f:
                    69:9a:a4:a2:51:f9:7d:47:b3:0b:88:ec:23:9e:08:
                    30:0d:82:8a:76:ec:24:5e:f4:87:2b:13:b2:21:f3:
                    d2:fa:44:cb:66:2b:7d:6d:41:ca:ce:25:66:cc:2f:
                    2e:8f:b4:b9:6a:fc:06:ee:cc:cc:43:21:55:8a:49:
                    c5:d7
                Exponent: 65537 (0x10001)
        X509v3 extensions:
            X509v3 Basic Constraints: 
                CA:FALSE
            X509v3 Subject Key Identifier: 
                4A:40:90:F4:55:FE:D4:B8:FC:83:B6:70:95:17:AE:D1:0A:90:41:41
            X509v3 Authority Key Identifier: 
                keyid:A6:CE:8E:76:2B:F7:47:EA:3A:46:C0:38:96:C2:B8:B2:1C:25:B5:12
                DirName:/CN=team343-net
                serial:3D:8E:13:8B:81:1F:91:CD:BA:24:4F:BA:DE:9E:F7:3D:04:E4:AD:F0
            X509v3 Extended Key Usage: 
                TLS Web Server Authentication
            X509v3 Key Usage: 
                Digital Signature, Key Encipherment
            X509v3 Subject Alternative Name: 
                DNS:team343-server
    Signature Algorithm: sha256WithRSAEncryption
    Signature Value:
        47:33:b5:39:a7:65:e5:52:60:8b:8e:e8:35:34:23:25:41:30:
        bf:b6:3e:9f:ef:dc:a6:6a:28:f4:8a:b3:25:08:ef:24:38:7b:
        16:a1:11:26:5a:00:16:86:6f:fa:c4:66:f5:e5:a3:57:91:9b:
        b9:b4:70:bb:b1:a9:6b:c6:a0:ea:b2:d4:7b:5b:ba:64:82:61:
        ed:63:19:a6:4f:2d:3f:56:1a:c6:9d:9e:9b:f5:31:19:0f:15:
        fb:c0:fb:e2:c4:dc:e9:cb:a7:05:ae:12:88:0e:14:d8:42:2c:
        2e:ab:da:c4:e4:8a:5f:d0:9c:b6:6c:98:57:72:79:eb:d5:24:
        2c:bf:b6:68:5c:64:fb:d8:49:af:8c:ad:40:5c:e1:fa:1d:32:
        74:a6:b6:61:bc:5b:06:29:d4:a0:56:67:95:3e:89:95:30:7c:
        ef:9a:88:59:01:f5:3a:fc:7e:b4:26:ce:8a:09:78:47:50:5a:
        cf:bc:5c:47:4a:f8:31:48:c8:0d:4c:1a:33:0b:09:44:f1:84:
        d1:d6:b7:90:33:40:2b:07:76:f5:26:2d:9c:c9:57:e1:87:d2:
        3b:dd:94:1a:03:f4:c8:93:d6:72:b1:1e:e9:c1:33:9c:db:da:
        32:66:74:eb:7d:52:f6:54:0f:e5:96:4c:42:3c:91:bb:1f:2c:
        ef:8f:01:09
-----BEGIN CERTIFICATE-----
MIIDdzCCAl+gAwIBAgIQYrdhWJNnQpopVIHEPWQ7HjANBgkqhkiG9w0BAQsFADAW
MRQwEgYDVQQDDAt0ZWFtMzQzLW5ldDAeFw0yMzExMDMyMDQ1MzNaFw0yNjEwMTgy
MDQ1MzNaMBkxFzAVBgNVBAMMDnRlYW0zNDMtc2VydmVyMIIBIjANBgkqhkiG9w0B
AQEFAAOCAQ8AMIIBCgKCAQEAv+6pvnIds6R3+SX7XXkGGfQI/21A12v4OjACPouP
I5GNiLxXaO4kpcpLkTpi7YIdzTcc58aaI2T0Je2NdGRJhFb9KG19gcUfI8tCKaPN
82rbBLd9Hqr5dCWDZt4poGzdtQ7fVBAwmxmcEtIf1nv1AhdkXt3PP9TsywgLc5qT
A5j5SA94rmsM6qQ6QbK9EV7XjU1KT2Z/g424Grw0X3vHnXcEZfOEgjv+Sb1K1C87
jVggJJf4ipXQRoS1NFmbiRCDNh9pmqSiUfl9R7MLiOwjnggwDYKKduwkXvSHKxOy
IfPS+kTLZit9bUHKziVmzC8uj7S5avwG7szMQyFViknF1wIDAQABo4G9MIG6MAkG
A1UdEwQCMAAwHQYDVR0OBBYEFEpAkPRV/tS4/IO2cJUXrtEKkEFBMFEGA1UdIwRK
MEiAFKbOjnYr90fqOkbAOJbCuLIcJbUSoRqkGDAWMRQwEgYDVQQDDAt0ZWFtMzQz
LW5ldIIUPY4Ti4Efkc26JE+63p73PQTkrfAwEwYDVR0lBAwwCgYIKwYBBQUHAwEw
CwYDVR0PBAQDAgWgMBkGA1UdEQQSMBCCDnRlYW0zNDMtc2VydmVyMA0GCSqGSIb3
DQEBCwUAA4IBAQBHM7U5p2XlUmCLjug1NCMlQTC/tj6f79ymaij0irMlCO8kOHsW
oREmWgAWhm/6xGb15aNXkZu5tHC7salrxqDqstR7W7pkgmHtYxmmTy0/VhrGnZ6b
9TEZDxX7wPvixNzpy6cFrhKIDhTYQiwuq9rE5Ipf0Jy2bJhXcnnr1SQsv7ZoXGT7
2EmvjK1AXOH6HTJ0prZhvFsGKdSgVmeVPomVMHzvmohZAfU6/H60Js6KCXhHUFrP
vFxHSvgxSMgNTBozCwlE8YTR1reQM0ArB3b1Ji2cyVfhh9I73ZQaA/TIk9ZysR7p
wTOc29oyZnTrfVL2VA/llkxCPJG7HyzvjwEJ
-----END CERTIFICATE-----
