Certificate:
    Data:
        Version: 3 (0x2)
        Serial Number:
            02:1c:f3:11:ad:89:de:b4:70:1d:68:9a:ac:bd:22:52
        Signature Algorithm: sha256WithRSAEncryption
        Issuer: CN=team146-net
        Validity
            Not Before: Nov  4 11:30:27 2023 GMT
            Not After : Oct 19 11:30:27 2026 GMT
        Subject: CN=team146-client
        Subject Public Key Info:
            Public Key Algorithm: rsaEncryption
                Public-Key: (2048 bit)
                Modulus:
                    00:bc:84:17:1f:7b:a7:28:eb:b8:b9:d2:19:7c:58:
                    a1:a5:8a:0a:7a:3c:3a:20:e7:50:2a:4e:f6:88:99:
                    d7:8a:35:0e:5b:20:db:c8:d7:3e:27:fb:bf:6e:f6:
                    eb:4a:93:13:7f:f6:79:44:d2:3f:99:7e:bb:02:30:
                    86:69:13:20:d1:10:aa:de:94:e5:bb:f9:9d:f9:0f:
                    65:ab:89:ee:c7:b8:5f:2a:6d:f8:72:07:1c:e8:49:
                    2b:cf:f6:f7:ac:ef:4c:47:3a:70:62:cc:36:5a:93:
                    e1:fb:95:28:fb:d0:0b:a0:87:b5:63:95:c9:20:3e:
                    ef:7d:0a:c8:0d:39:d5:cd:67:9e:b2:6b:21:b0:d3:
                    29:fb:af:86:20:23:6c:3d:88:20:2a:af:3b:7f:d1:
                    b7:c7:16:34:61:0d:41:a0:48:49:de:78:8d:9f:40:
                    1c:15:cc:cd:02:6f:83:49:22:d7:d6:05:43:37:b4:
                    7e:9f:fa:7d:3e:96:03:65:f9:d9:c5:eb:ce:83:c6:
                    25:1b:3a:60:d7:0d:05:0d:79:44:f4:ca:3a:b4:c7:
                    8e:05:0c:72:9d:99:f1:69:a5:b5:55:74:01:66:19:
                    14:fe:74:8c:82:b0:e1:33:93:b9:f0:bf:66:c2:71:
                    88:93:36:dd:9e:b1:b8:e1:d0:27:e8:09:d8:f2:a9:
                    4b:e1
                Exponent: 65537 (0x10001)
        X509v3 extensions:
            X509v3 Basic Constraints: 
                CA:FALSE
            X509v3 Subject Key Identifier: 
                75:F2:BD:56:EC:64:46:1F:5B:87:98:2B:31:6A:F4:E1:96:2B:1B:4A
            X509v3 Authority Key Identifier: 
                keyid:0C:13:B3:22:F3:60:D6:BE:6F:A0:13:07:F6:56:6D:FF:D0:D9:05:75
                DirName:/CN=team146-net
                serial:48:26:04:46:39:77:56:E8:B8:A0:57:41:12:18:ED:AA:A7:AC:C4:92
            X509v3 Extended Key Usage: 
                TLS Web Client Authentication
            X509v3 Key Usage: 
                Digital Signature
    Signature Algorithm: sha256WithRSAEncryption
    Signature Value:
        72:b5:d9:cc:d9:1b:86:83:cf:18:73:5c:2a:91:40:e6:21:6b:
        96:93:5b:21:d7:90:ff:0d:8f:d3:3d:0d:89:6d:9c:1a:1d:6a:
        e0:6a:37:d2:3c:8c:70:ba:00:41:55:d3:12:70:64:04:61:44:
        bc:b7:38:bd:00:0c:14:e1:5e:8e:d5:b9:54:f8:0f:40:1f:9c:
        59:c3:f3:eb:a0:d6:c9:bb:a6:cc:c8:eb:73:06:ea:3f:bd:67:
        ca:96:4b:0a:11:c4:43:e7:4c:87:bd:b1:dd:bc:d4:e1:06:22:
        5b:b3:a6:8a:0b:ef:ea:1b:7b:15:23:f9:a7:b5:06:2b:a0:a9:
        66:50:5d:5c:94:45:d7:5d:a3:8d:45:95:0b:6a:f2:f7:e9:e9:
        83:0d:0a:3b:be:9b:f4:00:fa:6a:25:91:9c:2f:97:cd:50:5a:
        8f:75:d5:42:45:0e:97:1b:c9:b4:f9:47:4a:c1:c6:19:b0:5c:
        00:06:c8:99:df:87:4e:2c:34:3b:b1:a8:c0:4c:38:f0:67:0a:
        ea:b1:50:18:6e:77:a5:d8:a9:00:ee:d0:c0:60:4c:0d:84:e3:
        7e:85:0d:c3:57:62:c5:9a:97:20:5f:0d:fe:38:3a:b9:e5:e6:
        e9:19:99:2e:d9:b4:e2:e1:8c:ef:33:df:49:00:fc:13:d7:24:
        2d:f2:93:55
-----BEGIN CERTIFICATE-----
MIIDXDCCAkSgAwIBAgIQAhzzEa2J3rRwHWiarL0iUjANBgkqhkiG9w0BAQsFADAW
MRQwEgYDVQQDDAt0ZWFtMTQ2LW5ldDAeFw0yMzExMDQxMTMwMjdaFw0yNjEwMTkx
MTMwMjdaMBkxFzAVBgNVBAMMDnRlYW0xNDYtY2xpZW50MIIBIjANBgkqhkiG9w0B
AQEFAAOCAQ8AMIIBCgKCAQEAvIQXH3unKOu4udIZfFihpYoKejw6IOdQKk72iJnX
ijUOWyDbyNc+J/u/bvbrSpMTf/Z5RNI/mX67AjCGaRMg0RCq3pTlu/md+Q9lq4nu
x7hfKm34cgcc6Ekrz/b3rO9MRzpwYsw2WpPh+5Uo+9ALoIe1Y5XJID7vfQrIDTnV
zWeesmshsNMp+6+GICNsPYggKq87f9G3xxY0YQ1BoEhJ3niNn0AcFczNAm+DSSLX
1gVDN7R+n/p9PpYDZfnZxevOg8YlGzpg1w0FDXlE9Mo6tMeOBQxynZnxaaW1VXQB
ZhkU/nSMgrDhM5O58L9mwnGIkzbdnrG44dAn6AnY8qlL4QIDAQABo4GiMIGfMAkG
A1UdEwQCMAAwHQYDVR0OBBYEFHXyvVbsZEYfW4eYKzFq9OGWKxtKMFEGA1UdIwRK
MEiAFAwTsyLzYNa+b6ATB/ZWbf/Q2QV1oRqkGDAWMRQwEgYDVQQDDAt0ZWFtMTQ2
LW5ldIIUSCYERjl3Vui4oFdBEhjtqqesxJIwEwYDVR0lBAwwCgYIKwYBBQUHAwIw
CwYDVR0PBAQDAgeAMA0GCSqGSIb3DQEBCwUAA4IBAQBytdnM2RuGg88Yc1wqkUDm
IWuWk1sh15D/DY/TPQ2JbZwaHWrgajfSPIxwugBBVdMScGQEYUS8tzi9AAwU4V6O
1blU+A9AH5xZw/ProNbJu6bMyOtzBuo/vWfKlksKEcRD50yHvbHdvNThBiJbs6aK
C+/qG3sVI/mntQYroKlmUF1clEXXXaONRZULavL36emDDQo7vpv0APpqJZGcL5fN
UFqPddVCRQ6XG8m0+UdKwcYZsFwABsiZ34dOLDQ7sajATDjwZwrqsVAYbnel2KkA
7tDAYEwNhON+hQ3DV2LFmpcgXw3+ODq55ebpGZku2bTi4YzvM99JAPwT1yQt8pNV
-----END CERTIFICATE-----
