Certificate:
    Data:
        Version: 3 (0x2)
        Serial Number:
            13:fe:34:94:a3:95:c2:53:44:15:3a:b5:a3:46:a3:1c
        Signature Algorithm: sha256WithRSAEncryption
        Issuer: CN=team146-net
        Validity
            Not Before: Nov  4 10:43:15 2023 GMT
            Not After : Oct 19 10:43:15 2026 GMT
        Subject: CN=team146-client
        Subject Public Key Info:
            Public Key Algorithm: rsaEncryption
                Public-Key: (2048 bit)
                Modulus:
                    00:a9:4e:bd:10:7c:58:a4:71:e9:67:95:dd:ee:de:
                    9b:c8:b4:94:fc:8d:ac:a1:97:e8:14:a2:75:b0:bd:
                    0b:99:61:22:c0:a2:61:48:fa:3e:d5:5a:39:09:51:
                    37:58:82:9a:33:4a:bb:b0:c8:80:be:5e:98:c2:97:
                    5f:b5:81:0a:1f:21:72:a0:f9:78:76:cd:7b:d3:b0:
                    1e:a4:82:35:d5:91:fc:60:4a:e0:10:0f:66:08:f0:
                    75:78:f1:95:5a:61:70:11:20:b2:6c:15:c4:19:75:
                    94:d8:45:69:9c:4e:b8:c0:e1:3d:fb:37:fd:91:1b:
                    0c:45:c9:1c:a3:31:1e:73:2a:8c:16:8d:e3:71:b4:
                    47:89:98:55:6c:55:f6:22:dc:94:6d:93:e5:64:17:
                    d5:bc:d5:23:79:c6:f5:79:42:6c:46:19:73:0f:9e:
                    0b:ee:6f:c0:06:5b:5f:e3:3a:c1:74:1e:40:6d:83:
                    2f:3b:b0:49:7d:bc:71:7e:34:ae:f7:64:f4:06:94:
                    23:c9:7e:36:97:38:d3:f0:89:b8:a6:08:d9:5b:3e:
                    cc:3b:47:19:c7:b0:a9:4d:a9:5c:ac:63:f9:85:26:
                    46:92:a9:ee:59:1e:58:23:3d:05:c0:71:49:88:1c:
                    8a:7f:69:f7:f8:bd:b8:90:ce:22:20:b1:ac:38:a7:
                    9b:65
                Exponent: 65537 (0x10001)
        X509v3 extensions:
            X509v3 Basic Constraints: 
                CA:FALSE
            X509v3 Subject Key Identifier: 
                22:67:54:87:71:EB:40:6C:72:93:C6:06:94:C3:6B:21:8D:7F:AE:15
            X509v3 Authority Key Identifier: 
                keyid:30:23:93:DC:A4:92:F7:75:EB:D9:F3:03:8A:48:EC:32:0D:3E:20:BC
                DirName:/CN=team146-net
                serial:77:9A:28:10:C6:65:B6:D3:A7:77:E3:B4:FF:5A:0F:5A:AF:DB:6E:FB
            X509v3 Extended Key Usage: 
                TLS Web Client Authentication
            X509v3 Key Usage: 
                Digital Signature
    Signature Algorithm: sha256WithRSAEncryption
    Signature Value:
        51:fc:23:f5:86:87:40:d5:37:37:32:96:1f:6e:3d:b8:5c:f4:
        70:d2:01:d2:38:10:bc:d8:42:6c:8a:16:ec:1a:be:c8:d9:45:
        f4:b0:62:52:2a:e6:83:b9:20:20:d9:ce:af:78:82:d4:2d:c7:
        3e:41:db:52:c9:d6:fd:3c:83:26:4c:d9:92:12:ca:9d:a7:27:
        46:55:20:dd:12:9a:0c:8c:53:6a:3a:79:c2:2f:26:cb:51:7b:
        9e:76:82:72:29:10:20:93:47:d6:21:a5:bb:38:49:1b:4d:8f:
        b6:15:b3:52:51:c8:f5:24:9e:f2:2e:a2:c2:69:7d:6e:9d:99:
        88:3c:37:8c:23:d9:88:ea:df:b6:e4:05:03:b7:ac:20:8e:0d:
        4c:e1:69:96:ed:10:76:5c:3e:46:18:04:6f:cc:5a:36:89:01:
        ee:19:03:93:27:e8:07:dd:4d:5c:dc:9f:5c:33:1f:c3:e8:32:
        7b:ec:95:c2:df:6f:e2:ed:68:52:68:c3:d6:42:6f:f5:81:91:
        8d:89:fc:4a:bc:6e:dc:20:c5:e6:0e:a8:99:c8:ac:11:4b:77:
        78:f8:b4:fe:89:da:5d:36:f6:94:67:ba:53:37:e9:1e:85:62:
        5b:8c:33:1f:b1:87:df:00:26:6c:1d:cf:b8:64:77:2a:9b:66:
        12:58:a9:03
-----BEGIN CERTIFICATE-----
MIIDXDCCAkSgAwIBAgIQE/40lKOVwlNEFTq1o0ajHDANBgkqhkiG9w0BAQsFADAW
MRQwEgYDVQQDDAt0ZWFtMTQ2LW5ldDAeFw0yMzExMDQxMDQzMTVaFw0yNjEwMTkx
MDQzMTVaMBkxFzAVBgNVBAMMDnRlYW0xNDYtY2xpZW50MIIBIjANBgkqhkiG9w0B
AQEFAAOCAQ8AMIIBCgKCAQEAqU69EHxYpHHpZ5Xd7t6byLSU/I2soZfoFKJ1sL0L
mWEiwKJhSPo+1Vo5CVE3WIKaM0q7sMiAvl6YwpdftYEKHyFyoPl4ds1707AepII1
1ZH8YErgEA9mCPB1ePGVWmFwESCybBXEGXWU2EVpnE64wOE9+zf9kRsMRckcozEe
cyqMFo3jcbRHiZhVbFX2ItyUbZPlZBfVvNUjecb1eUJsRhlzD54L7m/ABltf4zrB
dB5AbYMvO7BJfbxxfjSu92T0BpQjyX42lzjT8Im4pgjZWz7MO0cZx7CpTalcrGP5
hSZGkqnuWR5YIz0FwHFJiByKf2n3+L24kM4iILGsOKebZQIDAQABo4GiMIGfMAkG
A1UdEwQCMAAwHQYDVR0OBBYEFCJnVIdx60BscpPGBpTDayGNf64VMFEGA1UdIwRK
MEiAFDAjk9ykkvd169nzA4pI7DINPiC8oRqkGDAWMRQwEgYDVQQDDAt0ZWFtMTQ2
LW5ldIIUd5ooEMZlttOnd+O0/1oPWq/bbvswEwYDVR0lBAwwCgYIKwYBBQUHAwIw
CwYDVR0PBAQDAgeAMA0GCSqGSIb3DQEBCwUAA4IBAQBR/CP1hodA1Tc3MpYfbj24
XPRw0gHSOBC82EJsihbsGr7I2UX0sGJSKuaDuSAg2c6veILULcc+QdtSydb9PIMm
TNmSEsqdpydGVSDdEpoMjFNqOnnCLybLUXuedoJyKRAgk0fWIaW7OEkbTY+2FbNS
Ucj1JJ7yLqLCaX1unZmIPDeMI9mI6t+25AUDt6wgjg1M4WmW7RB2XD5GGARvzFo2
iQHuGQOTJ+gH3U1c3J9cMx/D6DJ77JXC32/i7WhSaMPWQm/1gZGNifxKvG7cIMXm
DqiZyKwRS3d4+LT+idpdNvaUZ7pTN+kehWJbjDMfsYffACZsHc+4ZHcqm2YSWKkD
-----END CERTIFICATE-----
