Certificate:
    Data:
        Version: 3 (0x2)
        Serial Number:
            a7:76:5f:b9:13:79:28:00:e5:3e:c5:4f:ea:71:a5:1e
        Signature Algorithm: sha256WithRSAEncryption
        Issuer: CN=team146-net
        Validity
            Not Before: Nov  4 11:30:27 2023 GMT
            Not After : Oct 19 11:30:27 2026 GMT
        Subject: CN=team146-server
        Subject Public Key Info:
            Public Key Algorithm: rsaEncryption
                Public-Key: (2048 bit)
                Modulus:
                    00:ee:e6:1b:78:a0:29:74:9a:a0:82:71:93:90:5a:
                    86:b8:3c:39:39:fa:5a:48:65:a6:ed:58:a9:4e:df:
                    bc:95:6d:be:c4:ed:65:92:60:a1:b4:10:90:12:76:
                    3f:0c:11:97:6d:b2:ac:a7:b2:38:e3:fa:7a:e2:96:
                    54:8d:1e:97:02:68:fb:c7:f7:b0:af:c7:67:fd:f7:
                    62:05:4c:fe:f7:ad:2b:e8:de:75:b9:e6:16:ad:4c:
                    c9:87:8d:de:ed:78:d3:d6:ec:a3:1b:12:07:d1:7a:
                    c8:7b:9b:d4:d4:45:c0:ce:95:e8:cc:2c:cd:90:a2:
                    69:54:09:97:6d:c0:c2:81:35:81:a9:15:74:1d:7c:
                    2b:f2:fb:5c:ef:c3:f4:a5:22:be:4a:87:32:7a:a5:
                    0e:1c:48:42:05:48:72:35:9b:48:db:1b:ab:94:f1:
                    0e:a5:ea:bb:8c:b9:f8:3f:af:a4:58:6b:40:8b:5c:
                    7d:a8:45:b2:c7:4f:a5:d2:29:6d:b3:21:f3:4f:99:
                    85:23:25:12:28:34:b4:0f:67:9e:a0:aa:b2:80:2a:
                    64:ed:40:1a:5a:91:a7:f7:ef:fd:9a:71:0c:fa:15:
                    54:24:fa:1a:93:e3:e2:2e:62:b8:1f:5b:82:8d:58:
                    f3:06:98:88:1d:33:7d:de:4b:14:8e:16:a1:8c:94:
                    89:1f
                Exponent: 65537 (0x10001)
        X509v3 extensions:
            X509v3 Basic Constraints: 
                CA:FALSE
            X509v3 Subject Key Identifier: 
                A4:28:90:DD:59:27:D1:84:E4:E4:26:E0:95:42:00:FE:65:5B:AD:35
            X509v3 Authority Key Identifier: 
                keyid:0C:13:B3:22:F3:60:D6:BE:6F:A0:13:07:F6:56:6D:FF:D0:D9:05:75
                DirName:/CN=team146-net
                serial:48:26:04:46:39:77:56:E8:B8:A0:57:41:12:18:ED:AA:A7:AC:C4:92
            X509v3 Extended Key Usage: 
                TLS Web Server Authentication
            X509v3 Key Usage: 
                Digital Signature, Key Encipherment
            X509v3 Subject Alternative Name: 
                DNS:team146-server
    Signature Algorithm: sha256WithRSAEncryption
    Signature Value:
        54:63:1f:25:74:55:40:2c:78:2d:ef:69:c3:bf:04:12:c6:ba:
        2f:bc:82:11:b0:52:75:e7:3e:49:3c:e5:9e:0b:38:7c:6e:f4:
        cd:d8:a4:e3:64:9e:03:5b:f6:74:3f:02:26:ba:d4:90:8e:f6:
        a7:8f:8a:a8:d8:7a:51:58:be:a5:eb:b4:8c:18:11:ad:81:82:
        d8:16:1d:7d:1d:5d:c0:97:28:40:1e:a6:54:90:44:8c:5e:b0:
        41:c6:8b:13:ae:25:ce:9a:96:39:a6:7e:3a:fe:bb:b9:a1:c1:
        f8:6b:77:89:e1:4f:eb:ba:87:1e:2b:6d:c6:4e:c9:ba:da:f5:
        e1:0a:2c:70:90:0c:1f:75:4b:90:e8:c2:c4:ec:4c:a0:37:8c:
        bf:e0:20:51:56:61:cb:4d:80:b4:d4:2c:54:98:66:31:a9:0e:
        a3:fe:2d:0a:d4:23:05:08:44:d4:95:a5:05:de:73:f4:c9:c3:
        47:e5:2d:6a:29:10:3c:d1:43:76:77:a5:97:9a:5c:5c:16:e3:
        24:f9:3e:68:89:ee:d3:2e:ea:60:7a:dc:ec:f3:b7:8c:e9:7c:
        79:44:fb:2b:76:10:4a:a9:f6:ed:99:94:49:a2:df:a3:4b:6a:
        e6:29:84:61:7c:b6:c5:29:39:30:2e:28:97:de:8e:3c:09:7d:
        35:2b:65:b4
-----BEGIN CERTIFICATE-----
MIIDeDCCAmCgAwIBAgIRAKd2X7kTeSgA5T7FT+pxpR4wDQYJKoZIhvcNAQELBQAw
FjEUMBIGA1UEAwwLdGVhbTE0Ni1uZXQwHhcNMjMxMTA0MTEzMDI3WhcNMjYxMDE5
MTEzMDI3WjAZMRcwFQYDVQQDDA50ZWFtMTQ2LXNlcnZlcjCCASIwDQYJKoZIhvcN
AQEBBQADggEPADCCAQoCggEBAO7mG3igKXSaoIJxk5Bahrg8OTn6Wkhlpu1YqU7f
vJVtvsTtZZJgobQQkBJ2PwwRl22yrKeyOOP6euKWVI0elwJo+8f3sK/HZ/33YgVM
/vetK+jedbnmFq1MyYeN3u1409bsoxsSB9F6yHub1NRFwM6V6MwszZCiaVQJl23A
woE1gakVdB18K/L7XO/D9KUivkqHMnqlDhxIQgVIcjWbSNsbq5TxDqXqu4y5+D+v
pFhrQItcfahFssdPpdIpbbMh80+ZhSMlEig0tA9nnqCqsoAqZO1AGlqRp/fv/Zpx
DPoVVCT6GpPj4i5iuB9bgo1Y8waYiB0zfd5LFI4WoYyUiR8CAwEAAaOBvTCBujAJ
BgNVHRMEAjAAMB0GA1UdDgQWBBSkKJDdWSfRhOTkJuCVQgD+ZVutNTBRBgNVHSME
SjBIgBQME7Mi82DWvm+gEwf2Vm3/0NkFdaEapBgwFjEUMBIGA1UEAwwLdGVhbTE0
Ni1uZXSCFEgmBEY5d1bouKBXQRIY7aqnrMSSMBMGA1UdJQQMMAoGCCsGAQUFBwMB
MAsGA1UdDwQEAwIFoDAZBgNVHREEEjAQgg50ZWFtMTQ2LXNlcnZlcjANBgkqhkiG
9w0BAQsFAAOCAQEAVGMfJXRVQCx4Le9pw78EEsa6L7yCEbBSdec+STzlngs4fG70
zdik42SeA1v2dD8CJrrUkI72p4+KqNh6UVi+peu0jBgRrYGC2BYdfR1dwJcoQB6m
VJBEjF6wQcaLE64lzpqWOaZ+Ov67uaHB+Gt3ieFP67qHHittxk7Jutr14QoscJAM
H3VLkOjCxOxMoDeMv+AgUVZhy02AtNQsVJhmMakOo/4tCtQjBQhE1JWlBd5z9MnD
R+UtaikQPNFDdnell5pcXBbjJPk+aInu0y7qYHrc7PO3jOl8eUT7K3YQSqn27ZmU
SaLfo0tq5imEYXy2xSk5MC4ol96OPAl9NStltA==
-----END CERTIFICATE-----
