Certificate:
    Data:
        Version: 3 (0x2)
        Serial Number:
            17:14:16:fb:0d:29:c8:bf:5d:7d:15:70:73:0c:0b:ab
        Signature Algorithm: sha256WithRSAEncryption
        Issuer: CN=team22-net
        Validity
            Not Before: Nov  4 11:27:47 2023 GMT
            Not After : Oct 19 11:27:47 2026 GMT
        Subject: CN=team22-server
        Subject Public Key Info:
            Public Key Algorithm: rsaEncryption
                Public-Key: (2048 bit)
                Modulus:
                    00:a3:af:47:fb:d9:2c:98:bb:3c:7d:c4:ed:e1:37:
                    62:22:be:6c:2c:18:41:02:84:82:db:42:57:20:60:
                    cd:99:1f:a1:b1:d7:a9:cb:bd:f6:7d:fb:cb:4f:4c:
                    15:f5:d7:30:79:1a:a5:a7:2b:e4:c5:63:be:18:c6:
                    b4:13:98:a7:ec:6d:07:88:1d:e7:1b:40:c5:71:fe:
                    44:c9:93:fe:4e:f3:61:e0:6b:e4:dc:e1:44:56:84:
                    70:fa:7a:c3:b5:82:1b:3f:ab:22:90:f8:3e:89:69:
                    27:1d:d9:df:6e:ac:fc:ae:ca:8b:4b:a0:e7:65:51:
                    3d:0f:e4:c4:c3:9c:81:11:20:c0:6a:d1:9f:f3:35:
                    1a:51:67:c8:c5:33:86:ea:a0:81:cc:ae:fd:79:19:
                    22:f3:83:c6:e8:f0:93:b5:c8:99:4f:cb:92:53:7c:
                    ea:57:fe:bf:db:8f:62:0f:3a:14:d4:7b:06:b6:3d:
                    ff:a8:ee:49:e9:f5:6d:fa:eb:d1:cb:38:6a:e5:ed:
                    c1:b9:53:73:f5:ef:d1:ef:b3:7b:38:e0:a3:3c:3f:
                    db:9b:5d:78:13:3f:62:b4:90:f7:54:fd:2d:9e:f1:
                    c0:08:c9:4c:5a:66:20:f9:e7:92:37:e2:33:ff:63:
                    e4:16:b2:cb:91:cb:85:8a:40:2c:68:b1:83:95:4b:
                    c6:bf
                Exponent: 65537 (0x10001)
        X509v3 extensions:
            X509v3 Basic Constraints: 
                CA:FALSE
            X509v3 Subject Key Identifier: 
                06:FE:59:46:C8:02:4F:09:30:9E:1F:C1:BA:C4:4C:5D:0E:4F:2A:C4
            X509v3 Authority Key Identifier: 
                keyid:EF:A0:F6:01:BA:1E:62:6E:66:75:2D:C6:E7:83:CA:65:3E:B1:1E:98
                DirName:/CN=team22-net
                serial:46:E0:2E:B8:0C:D9:0F:1D:FC:3C:0A:60:F6:49:66:99:32:4C:A2:F3
            X509v3 Extended Key Usage: 
                TLS Web Server Authentication
            X509v3 Key Usage: 
                Digital Signature, Key Encipherment
            X509v3 Subject Alternative Name: 
                DNS:team22-server
    Signature Algorithm: sha256WithRSAEncryption
    Signature Value:
        26:99:32:d9:21:62:b5:f9:9d:46:b5:86:d1:c8:50:50:77:e2:
        af:7c:50:01:8e:a7:ec:94:0e:14:f5:47:ec:26:7c:d3:5c:a9:
        1f:ec:54:d5:25:5e:fd:5a:9c:18:2a:8b:16:fb:81:04:de:48:
        a9:b2:e0:fd:23:ba:26:8b:9d:e4:fc:6e:80:bb:8e:eb:b1:24:
        8c:bb:ab:d5:ad:d7:3d:6a:e5:05:63:5e:27:10:39:77:dc:6a:
        08:3d:f5:c1:64:4e:18:fb:3c:cb:e7:f8:fd:c3:5a:01:8f:22:
        ad:b8:0c:da:4e:0d:50:fa:d5:25:de:f4:f3:20:db:f4:78:12:
        9d:89:29:1d:a0:86:3b:cf:4d:9d:97:ee:28:45:55:fb:ae:3e:
        fb:f5:5f:c4:fb:45:ba:13:e6:82:c6:93:ac:50:c8:7a:8d:d9:
        84:8e:df:47:a1:8f:99:2d:4e:1e:92:e8:52:f6:38:a7:18:89:
        5a:d7:9f:00:08:60:c9:d2:88:9d:9c:3f:ea:c7:d1:86:6e:b4:
        59:40:09:b9:52:90:c8:a5:cb:4c:17:9e:34:49:07:8a:a1:ee:
        2d:69:ce:9a:f2:b8:56:8a:73:0e:78:4c:08:55:a5:57:39:1d:
        e9:be:cf:40:90:12:5f:81:dd:72:72:8d:0c:84:82:40:f8:26:
        de:02:dd:38
-----BEGIN CERTIFICATE-----
MIIDczCCAlugAwIBAgIQFxQW+w0pyL9dfRVwcwwLqzANBgkqhkiG9w0BAQsFADAV
MRMwEQYDVQQDDAp0ZWFtMjItbmV0MB4XDTIzMTEwNDExMjc0N1oXDTI2MTAxOTEx
Mjc0N1owGDEWMBQGA1UEAwwNdGVhbTIyLXNlcnZlcjCCASIwDQYJKoZIhvcNAQEB
BQADggEPADCCAQoCggEBAKOvR/vZLJi7PH3E7eE3YiK+bCwYQQKEgttCVyBgzZkf
obHXqcu99n37y09MFfXXMHkapacr5MVjvhjGtBOYp+xtB4gd5xtAxXH+RMmT/k7z
YeBr5NzhRFaEcPp6w7WCGz+rIpD4PolpJx3Z326s/K7Ki0ug52VRPQ/kxMOcgREg
wGrRn/M1GlFnyMUzhuqggcyu/XkZIvODxujwk7XImU/LklN86lf+v9uPYg86FNR7
BrY9/6juSen1bfrr0cs4auXtwblTc/Xv0e+zezjgozw/25tdeBM/YrSQ91T9LZ7x
wAjJTFpmIPnnkjfiM/9j5Bayy5HLhYpALGixg5VLxr8CAwEAAaOBuzCBuDAJBgNV
HRMEAjAAMB0GA1UdDgQWBBQG/llGyAJPCTCeH8G6xExdDk8qxDBQBgNVHSMESTBH
gBTvoPYBuh5ibmZ1Lcbng8plPrEemKEZpBcwFTETMBEGA1UEAwwKdGVhbTIyLW5l
dIIURuAuuAzZDx38PApg9klmmTJMovMwEwYDVR0lBAwwCgYIKwYBBQUHAwEwCwYD
VR0PBAQDAgWgMBgGA1UdEQQRMA+CDXRlYW0yMi1zZXJ2ZXIwDQYJKoZIhvcNAQEL
BQADggEBACaZMtkhYrX5nUa1htHIUFB34q98UAGOp+yUDhT1R+wmfNNcqR/sVNUl
Xv1anBgqixb7gQTeSKmy4P0juiaLneT8boC7juuxJIy7q9Wt1z1q5QVjXicQOXfc
agg99cFkThj7PMvn+P3DWgGPIq24DNpODVD61SXe9PMg2/R4Ep2JKR2ghjvPTZ2X
7ihFVfuuPvv1X8T7RboT5oLGk6xQyHqN2YSO30ehj5ktTh6S6FL2OKcYiVrXnwAI
YMnSiJ2cP+rH0YZutFlACblSkMily0wXnjRJB4qh7i1pzpryuFaKcw54TAhVpVc5
Hem+z0CQEl+B3XJyjQyEgkD4Jt4C3Tg=
-----END CERTIFICATE-----
