Certificate:
    Data:
        Version: 3 (0x2)
        Serial Number:
            8b:09:47:d7:fc:fa:77:f8:cd:38:4a:18:33:ba:9f:62
        Signature Algorithm: sha256WithRSAEncryption
        Issuer: CN=team22-net
        Validity
            Not Before: Nov  4 10:40:38 2023 GMT
            Not After : Oct 19 10:40:38 2026 GMT
        Subject: CN=team22-server
        Subject Public Key Info:
            Public Key Algorithm: rsaEncryption
                Public-Key: (2048 bit)
                Modulus:
                    00:c9:7d:99:c0:5f:d8:3e:4f:68:42:92:13:9c:11:
                    bb:22:eb:61:1b:78:2a:64:e4:6e:62:7d:a9:c3:0f:
                    5d:9b:1a:1d:e0:91:19:4e:0c:b0:70:2d:4a:fa:50:
                    19:a5:f9:29:56:a3:96:24:06:6c:cd:1a:b4:61:0d:
                    76:f6:69:f2:d8:66:d4:55:87:61:67:68:8f:1c:db:
                    62:c3:5d:12:85:8d:65:54:51:7f:c9:f0:03:4c:ca:
                    7b:0f:97:68:cd:c8:cc:d6:0f:37:cb:4c:8d:3d:73:
                    ee:54:b8:c7:e1:33:2f:49:ce:40:9e:f3:8c:c1:07:
                    16:22:5e:52:81:e7:95:b8:80:25:08:a8:3d:e8:e1:
                    3a:df:b8:b4:ed:ef:45:3b:e8:f2:28:de:c5:c6:c2:
                    72:7b:82:d7:04:18:13:a0:a9:20:e3:01:fd:cf:4f:
                    71:79:b2:f7:21:dc:cf:d9:e0:31:6b:c0:7b:e8:89:
                    89:e6:90:ca:85:ac:b5:2e:64:e1:bf:d1:1a:67:82:
                    80:1b:f9:c7:c4:46:f9:0f:e5:77:9d:7c:cd:80:3c:
                    dd:f0:a5:5c:f1:78:fe:de:7e:7f:dd:c0:4e:dc:33:
                    cd:d1:1e:19:d8:da:b3:43:d2:f9:c6:d0:b1:9a:2b:
                    1e:0a:a6:f2:4b:8a:46:2a:d8:05:5a:85:a7:e2:e4:
                    e7:6f
                Exponent: 65537 (0x10001)
        X509v3 extensions:
            X509v3 Basic Constraints: 
                CA:FALSE
            X509v3 Subject Key Identifier: 
                1A:11:5E:E8:50:CE:0C:69:39:4B:22:78:4B:5A:95:C2:61:F3:21:19
            X509v3 Authority Key Identifier: 
                keyid:78:8D:61:20:27:41:8D:BF:8F:02:58:6D:61:2F:09:5D:80:36:9E:55
                DirName:/CN=team22-net
                serial:17:CA:68:A7:CC:CF:95:DA:20:3B:7A:11:1C:B5:E1:6D:0A:81:CD:CB
            X509v3 Extended Key Usage: 
                TLS Web Server Authentication
            X509v3 Key Usage: 
                Digital Signature, Key Encipherment
            X509v3 Subject Alternative Name: 
                DNS:team22-server
    Signature Algorithm: sha256WithRSAEncryption
    Signature Value:
        4f:0b:de:81:06:5f:a1:48:26:8d:c6:9f:b4:f6:76:63:51:bc:
        a4:8e:6d:b0:26:7c:77:28:6a:46:ad:a9:c0:52:a6:4a:81:eb:
        72:c8:9a:6d:57:cc:99:bf:73:1c:c1:b5:c1:e7:e5:67:a6:4b:
        49:36:a1:d3:b9:ec:a8:fa:c4:62:fc:1d:ca:3d:90:60:04:68:
        93:74:46:0d:50:3c:ac:78:11:e9:28:b0:1d:12:17:9e:40:4a:
        c4:ba:bd:6e:1b:ad:f5:51:7b:0d:ab:0b:e8:8c:a9:93:ed:34:
        d2:34:ca:50:a2:6c:5c:f5:8e:fc:ee:4a:a8:29:09:55:e9:d2:
        b1:ff:35:66:7b:23:10:cc:b1:07:9c:73:f1:3a:6f:95:a4:ae:
        38:23:0f:d2:fd:ba:e7:e7:bc:cf:15:5f:8c:43:08:d7:64:37:
        38:41:62:64:bf:c9:07:50:72:20:73:ef:97:1b:1c:8d:7f:90:
        07:37:b1:dd:8a:d3:69:e3:35:ce:fb:a0:c0:4f:96:f3:5e:b0:
        ed:a2:29:3b:22:a0:5f:d3:10:95:68:4a:98:c9:fc:2f:ad:e0:
        72:10:10:44:24:9e:85:38:ad:d6:b9:4a:bf:b6:8a:c8:fd:48:
        52:9c:b9:3f:23:f1:06:20:3f:34:71:e7:12:ec:57:0d:f8:ea:
        ba:f2:c0:e4
-----BEGIN CERTIFICATE-----
MIIDdDCCAlygAwIBAgIRAIsJR9f8+nf4zThKGDO6n2IwDQYJKoZIhvcNAQELBQAw
FTETMBEGA1UEAwwKdGVhbTIyLW5ldDAeFw0yMzExMDQxMDQwMzhaFw0yNjEwMTkx
MDQwMzhaMBgxFjAUBgNVBAMMDXRlYW0yMi1zZXJ2ZXIwggEiMA0GCSqGSIb3DQEB
AQUAA4IBDwAwggEKAoIBAQDJfZnAX9g+T2hCkhOcEbsi62EbeCpk5G5ifanDD12b
Gh3gkRlODLBwLUr6UBml+SlWo5YkBmzNGrRhDXb2afLYZtRVh2FnaI8c22LDXRKF
jWVUUX/J8ANMynsPl2jNyMzWDzfLTI09c+5UuMfhMy9JzkCe84zBBxYiXlKB55W4
gCUIqD3o4TrfuLTt70U76PIo3sXGwnJ7gtcEGBOgqSDjAf3PT3F5svch3M/Z4DFr
wHvoiYnmkMqFrLUuZOG/0RpngoAb+cfERvkP5XedfM2APN3wpVzxeP7efn/dwE7c
M83RHhnY2rND0vnG0LGaKx4KpvJLikYq2AVahafi5OdvAgMBAAGjgbswgbgwCQYD
VR0TBAIwADAdBgNVHQ4EFgQUGhFe6FDODGk5SyJ4S1qVwmHzIRkwUAYDVR0jBEkw
R4AUeI1hICdBjb+PAlhtYS8JXYA2nlWhGaQXMBUxEzARBgNVBAMMCnRlYW0yMi1u
ZXSCFBfKaKfMz5XaIDt6ERy14W0Kgc3LMBMGA1UdJQQMMAoGCCsGAQUFBwMBMAsG
A1UdDwQEAwIFoDAYBgNVHREEETAPgg10ZWFtMjItc2VydmVyMA0GCSqGSIb3DQEB
CwUAA4IBAQBPC96BBl+hSCaNxp+09nZjUbykjm2wJnx3KGpGranAUqZKgetyyJpt
V8yZv3McwbXB5+VnpktJNqHTueyo+sRi/B3KPZBgBGiTdEYNUDyseBHpKLAdEhee
QErEur1uG631UXsNqwvojKmT7TTSNMpQomxc9Y787kqoKQlV6dKx/zVmeyMQzLEH
nHPxOm+VpK44Iw/S/brn57zPFV+MQwjXZDc4QWJkv8kHUHIgc++XGxyNf5AHN7Hd
itNp4zXO+6DAT5bzXrDtoik7IqBf0xCVaEqYyfwvreByEBBEJJ6FOK3WuUq/torI
/UhSnLk/I/EGID80cecS7FcN+Oq68sDk
-----END CERTIFICATE-----
