Certificate:
    Data:
        Version: 3 (0x2)
        Serial Number:
            33:5f:12:e8:29:ea:22:6c:ec:5a:4f:b8:15:c0:50:76
        Signature Algorithm: sha256WithRSAEncryption
        Issuer: CN=team399-net
        Validity
            Not Before: Nov  4 11:36:29 2023 GMT
            Not After : Oct 19 11:36:29 2026 GMT
        Subject: CN=team399-client
        Subject Public Key Info:
            Public Key Algorithm: rsaEncryption
                Public-Key: (2048 bit)
                Modulus:
                    00:8c:cc:f9:c7:33:8b:74:a0:50:e8:be:2c:5e:f9:
                    e4:09:ae:50:48:b1:46:bd:fc:26:a1:ff:95:4b:05:
                    17:a9:0d:bd:6e:67:90:62:92:9f:07:1f:61:cb:b3:
                    59:4c:49:e6:be:16:76:1a:4e:42:e1:b7:02:17:58:
                    5d:7f:34:e8:81:8e:ec:4b:de:2d:4e:c4:ed:1e:8d:
                    aa:bf:5c:3f:bb:fb:a9:ef:6b:df:8a:e1:7d:9d:72:
                    2b:eb:af:87:b7:63:ba:09:f2:42:e8:d0:96:60:bb:
                    7b:ba:4e:b6:2a:c5:58:40:b9:f7:30:0e:03:ed:db:
                    f2:2e:9a:17:da:6f:75:0c:63:2f:db:9e:92:1c:ca:
                    cd:f3:16:80:98:be:c9:a4:be:80:e5:fa:90:4d:72:
                    a6:98:6c:35:52:e5:9e:6b:69:48:9e:ff:90:cb:9d:
                    68:8a:0a:ba:88:07:c6:48:2b:ce:13:dc:b4:5b:96:
                    82:fa:88:58:ac:ee:5d:99:de:af:c0:13:a6:c5:f2:
                    82:4c:08:c3:85:d0:32:81:9d:bc:99:76:fc:6b:e4:
                    17:08:87:0f:9f:40:f2:3b:0a:32:05:ef:c2:20:43:
                    0f:d7:53:bc:56:16:38:1c:7e:17:73:6b:ec:2b:8d:
                    65:59:14:0e:e4:c0:3d:6f:ca:e8:f7:84:c0:1b:c3:
                    57:47
                Exponent: 65537 (0x10001)
        X509v3 extensions:
            X509v3 Basic Constraints: 
                CA:FALSE
            X509v3 Subject Key Identifier: 
                62:F1:85:D3:61:CC:93:1E:52:FE:3F:0D:A3:94:57:0E:85:59:C7:40
            X509v3 Authority Key Identifier: 
                keyid:96:44:E1:CC:66:E7:DB:78:EA:54:78:00:38:A8:1D:2B:9A:54:0E:D8
                DirName:/CN=team399-net
                serial:46:24:71:DD:24:8E:C4:F7:BF:CA:F1:66:F6:3A:3D:32:4D:E1:3C:AA
            X509v3 Extended Key Usage: 
                TLS Web Client Authentication
            X509v3 Key Usage: 
                Digital Signature
    Signature Algorithm: sha256WithRSAEncryption
    Signature Value:
        1b:3c:3b:55:1c:70:ea:60:bb:1f:d6:38:2c:e5:fe:5c:6d:8b:
        51:91:74:d2:00:a0:9b:b6:d9:10:40:73:59:07:1b:1b:5b:b1:
        58:0a:ae:6a:16:83:e4:7a:50:ef:43:25:57:34:e6:47:95:98:
        e9:81:bf:57:0e:f7:a0:f8:04:14:24:96:49:68:94:9b:5e:82:
        2c:8e:b9:8e:ce:a7:b9:32:67:4b:d6:0a:a6:f9:04:1e:06:83:
        5b:0c:8f:e6:f8:98:37:ca:0e:bc:65:4b:70:e5:42:c1:a1:f1:
        f3:94:37:75:c0:e1:8e:ee:a6:d6:41:ff:fd:96:cb:79:b3:fa:
        dc:78:3e:1a:ba:1f:00:81:ee:1c:c3:31:86:f6:e2:9a:a0:f9:
        db:d8:fe:82:76:19:dc:1b:43:e3:bb:dd:30:78:78:e0:87:3e:
        b9:31:d2:41:62:10:60:0a:36:96:d3:ca:e9:74:58:e4:de:e8:
        42:c0:23:29:09:a5:de:9d:4c:fb:c5:33:df:0c:e8:7d:e1:30:
        25:52:ac:9d:27:15:82:38:6d:b7:5a:64:03:01:da:87:49:a9:
        f7:c0:24:89:f4:10:0f:87:27:5c:c0:9b:83:c5:78:e7:6e:f4:
        7c:a5:1a:c8:1f:fb:10:62:d1:fd:4f:bc:9e:ec:da:cd:bb:06:
        08:5b:6a:9f
-----BEGIN CERTIFICATE-----
MIIDXDCCAkSgAwIBAgIQM18S6CnqImzsWk+4FcBQdjANBgkqhkiG9w0BAQsFADAW
MRQwEgYDVQQDDAt0ZWFtMzk5LW5ldDAeFw0yMzExMDQxMTM2MjlaFw0yNjEwMTkx
MTM2MjlaMBkxFzAVBgNVBAMMDnRlYW0zOTktY2xpZW50MIIBIjANBgkqhkiG9w0B
AQEFAAOCAQ8AMIIBCgKCAQEAjMz5xzOLdKBQ6L4sXvnkCa5QSLFGvfwmof+VSwUX
qQ29bmeQYpKfBx9hy7NZTEnmvhZ2Gk5C4bcCF1hdfzTogY7sS94tTsTtHo2qv1w/
u/up72vfiuF9nXIr66+Ht2O6CfJC6NCWYLt7uk62KsVYQLn3MA4D7dvyLpoX2m91
DGMv256SHMrN8xaAmL7JpL6A5fqQTXKmmGw1UuWea2lInv+Qy51oigq6iAfGSCvO
E9y0W5aC+ohYrO5dmd6vwBOmxfKCTAjDhdAygZ28mXb8a+QXCIcPn0DyOwoyBe/C
IEMP11O8VhY4HH4Xc2vsK41lWRQO5MA9b8ro94TAG8NXRwIDAQABo4GiMIGfMAkG
A1UdEwQCMAAwHQYDVR0OBBYEFGLxhdNhzJMeUv4/DaOUVw6FWcdAMFEGA1UdIwRK
MEiAFJZE4cxm59t46lR4ADioHSuaVA7YoRqkGDAWMRQwEgYDVQQDDAt0ZWFtMzk5
LW5ldIIURiRx3SSOxPe/yvFm9jo9Mk3hPKowEwYDVR0lBAwwCgYIKwYBBQUHAwIw
CwYDVR0PBAQDAgeAMA0GCSqGSIb3DQEBCwUAA4IBAQAbPDtVHHDqYLsf1jgs5f5c
bYtRkXTSAKCbttkQQHNZBxsbW7FYCq5qFoPkelDvQyVXNOZHlZjpgb9XDveg+AQU
JJZJaJSbXoIsjrmOzqe5MmdL1gqm+QQeBoNbDI/m+Jg3yg68ZUtw5ULBofHzlDd1
wOGO7qbWQf/9lst5s/rceD4auh8Age4cwzGG9uKaoPnb2P6CdhncG0Pju90weHjg
hz65MdJBYhBgCjaW08rpdFjk3uhCwCMpCaXenUz7xTPfDOh94TAlUqydJxWCOG23
WmQDAdqHSan3wCSJ9BAPhydcwJuDxXjnbvR8pRrIH/sQYtH9T7ye7NrNuwYIW2qf
-----END CERTIFICATE-----
