Certificate:
    Data:
        Version: 3 (0x2)
        Serial Number:
            a5:85:54:23:4c:10:ba:01:71:49:bf:ae:e0:e5:aa:a3
        Signature Algorithm: sha256WithRSAEncryption
        Issuer: CN=team399-net
        Validity
            Not Before: Nov  4 11:36:29 2023 GMT
            Not After : Oct 19 11:36:29 2026 GMT
        Subject: CN=team399-server
        Subject Public Key Info:
            Public Key Algorithm: rsaEncryption
                Public-Key: (2048 bit)
                Modulus:
                    00:d7:7f:9f:75:55:da:28:f1:5e:29:ec:cc:2b:76:
                    51:52:42:b3:95:16:4a:6b:84:18:34:49:a5:6d:14:
                    ba:ff:70:1a:05:e8:41:d9:53:d9:56:ac:3f:0a:e3:
                    b7:05:f4:ef:f6:9f:fd:33:90:b5:ab:83:b1:f1:f0:
                    3c:d5:94:dd:b7:f5:1a:2e:de:7c:fb:ec:02:fb:0f:
                    2d:f4:27:5b:98:88:61:a4:85:6e:07:df:f9:86:3c:
                    20:08:99:1f:b0:86:b1:65:ed:a1:94:71:75:34:a8:
                    e1:ec:58:8a:31:b8:4c:c3:ff:0b:8a:fb:6c:bf:c5:
                    eb:cf:48:92:99:40:d7:2b:ef:7d:8a:f6:48:6e:56:
                    79:39:55:15:48:11:60:6a:a6:16:43:f2:0e:85:3d:
                    b4:b2:e1:a4:7c:97:f0:08:bb:4e:21:16:18:b1:11:
                    a2:5c:77:fb:4f:20:7a:f3:e1:24:23:c6:a2:09:f8:
                    15:52:56:04:10:07:82:2a:cb:64:a3:d1:80:8c:14:
                    d1:47:61:75:db:a5:90:b3:63:b8:8d:4e:34:29:0c:
                    09:73:19:9c:77:9e:43:9b:41:21:a9:6f:d6:1e:9c:
                    97:de:61:37:e4:5f:f7:ea:73:ee:30:87:d6:71:3c:
                    eb:07:49:d9:1d:9a:06:8f:99:f2:16:66:4d:c5:d0:
                    ed:45
                Exponent: 65537 (0x10001)
        X509v3 extensions:
            X509v3 Basic Constraints: 
                CA:FALSE
            X509v3 Subject Key Identifier: 
                15:60:E1:24:26:CB:F2:7C:7D:56:B9:60:2B:F0:ED:5C:DD:AA:DF:36
            X509v3 Authority Key Identifier: 
                keyid:96:44:E1:CC:66:E7:DB:78:EA:54:78:00:38:A8:1D:2B:9A:54:0E:D8
                DirName:/CN=team399-net
                serial:46:24:71:DD:24:8E:C4:F7:BF:CA:F1:66:F6:3A:3D:32:4D:E1:3C:AA
            X509v3 Extended Key Usage: 
                TLS Web Server Authentication
            X509v3 Key Usage: 
                Digital Signature, Key Encipherment
            X509v3 Subject Alternative Name: 
                DNS:team399-server
    Signature Algorithm: sha256WithRSAEncryption
    Signature Value:
        75:97:3e:14:68:53:b5:04:1b:c0:fd:92:02:40:ff:d5:77:67:
        7a:bc:1b:a7:64:2a:34:2c:49:28:0d:a4:14:a0:d7:cc:57:ed:
        7c:09:76:06:05:8d:70:76:c5:ed:c8:28:ad:8b:c0:67:a9:ff:
        d9:80:1f:84:70:20:69:ab:e1:80:c8:f2:66:cb:36:59:1e:78:
        61:a2:c6:90:83:f4:99:60:d9:5e:58:a2:90:8a:8f:bf:60:24:
        a5:d9:e0:af:5b:24:4f:07:47:7c:c3:f0:34:74:8a:66:90:fb:
        fc:6d:19:8f:11:92:6a:fc:e4:6f:51:54:db:82:f0:d2:20:b1:
        49:0f:99:22:4b:e3:92:d9:05:f5:bc:d3:a6:ab:bb:01:a8:44:
        42:8c:a8:b6:1c:db:96:b0:66:3c:f3:5e:d5:e0:bd:48:ae:af:
        86:dd:2e:c6:e1:b8:33:71:1b:2e:84:1b:ed:9d:78:4f:ef:56:
        1f:09:79:57:89:7a:5d:52:f8:e6:aa:36:95:f3:db:e6:b7:43:
        b3:73:ed:f0:1d:91:a6:95:d0:81:df:8b:33:ec:3e:25:d1:69:
        0b:38:1a:1b:a9:0f:e4:19:69:0a:e0:4e:64:f1:f9:2f:9b:21:
        2d:91:4e:58:32:e7:01:4f:bc:4c:f4:00:c0:51:8c:9d:fc:28:
        9b:9c:9d:6d
-----BEGIN CERTIFICATE-----
MIIDeDCCAmCgAwIBAgIRAKWFVCNMELoBcUm/ruDlqqMwDQYJKoZIhvcNAQELBQAw
FjEUMBIGA1UEAwwLdGVhbTM5OS1uZXQwHhcNMjMxMTA0MTEzNjI5WhcNMjYxMDE5
MTEzNjI5WjAZMRcwFQYDVQQDDA50ZWFtMzk5LXNlcnZlcjCCASIwDQYJKoZIhvcN
AQEBBQADggEPADCCAQoCggEBANd/n3VV2ijxXinszCt2UVJCs5UWSmuEGDRJpW0U
uv9wGgXoQdlT2VasPwrjtwX07/af/TOQtauDsfHwPNWU3bf1Gi7efPvsAvsPLfQn
W5iIYaSFbgff+YY8IAiZH7CGsWXtoZRxdTSo4exYijG4TMP/C4r7bL/F689IkplA
1yvvfYr2SG5WeTlVFUgRYGqmFkPyDoU9tLLhpHyX8Ai7TiEWGLERolx3+08gevPh
JCPGogn4FVJWBBAHgirLZKPRgIwU0UdhddulkLNjuI1ONCkMCXMZnHeeQ5tBIalv
1h6cl95hN+Rf9+pz7jCH1nE86wdJ2R2aBo+Z8hZmTcXQ7UUCAwEAAaOBvTCBujAJ
BgNVHRMEAjAAMB0GA1UdDgQWBBQVYOEkJsvyfH1WuWAr8O1c3arfNjBRBgNVHSME
SjBIgBSWROHMZufbeOpUeAA4qB0rmlQO2KEapBgwFjEUMBIGA1UEAwwLdGVhbTM5
OS1uZXSCFEYkcd0kjsT3v8rxZvY6PTJN4TyqMBMGA1UdJQQMMAoGCCsGAQUFBwMB
MAsGA1UdDwQEAwIFoDAZBgNVHREEEjAQgg50ZWFtMzk5LXNlcnZlcjANBgkqhkiG
9w0BAQsFAAOCAQEAdZc+FGhTtQQbwP2SAkD/1Xdnerwbp2QqNCxJKA2kFKDXzFft
fAl2BgWNcHbF7cgorYvAZ6n/2YAfhHAgaavhgMjyZss2WR54YaLGkIP0mWDZXlii
kIqPv2Akpdngr1skTwdHfMPwNHSKZpD7/G0ZjxGSavzkb1FU24Lw0iCxSQ+ZIkvj
ktkF9bzTpqu7AahEQoyothzblrBmPPNe1eC9SK6vht0uxuG4M3EbLoQb7Z14T+9W
Hwl5V4l6XVL45qo2lfPb5rdDs3Pt8B2RppXQgd+LM+w+JdFpCzgaG6kP5BlpCuBO
ZPH5L5shLZFOWDLnAU+8TPQAwFGMnfwom5ydbQ==
-----END CERTIFICATE-----
