Certificate:
    Data:
        Version: 3 (0x2)
        Serial Number:
            34:9d:db:e6:26:c5:7a:b8:b6:c2:81:e6:33:1e:63:2e
        Signature Algorithm: sha256WithRSAEncryption
        Issuer: CN=team122-net
        Validity
            Not Before: Nov  4 10:42:44 2023 GMT
            Not After : Oct 19 10:42:44 2026 GMT
        Subject: CN=team122-client
        Subject Public Key Info:
            Public Key Algorithm: rsaEncryption
                Public-Key: (2048 bit)
                Modulus:
                    00:b3:bb:03:50:da:b6:9d:d3:08:83:23:f4:ae:b1:
                    ab:e6:71:4b:46:ff:cc:e5:af:7e:3e:a1:91:d2:9c:
                    65:06:9e:3f:83:6e:f6:57:ef:05:5d:37:6c:20:26:
                    b1:8a:0d:9d:78:ea:f2:9b:52:e5:47:e2:9f:a2:58:
                    97:bf:48:10:b3:6f:7c:b0:e7:11:27:65:71:b7:3f:
                    76:ba:e8:93:48:79:fb:b0:8c:0d:56:57:6f:6a:71:
                    a9:ab:e1:fd:57:3f:a8:63:fd:95:dd:98:4b:fb:13:
                    2c:66:16:f7:3e:fb:98:99:d2:b7:53:f2:c8:8a:dc:
                    0c:ae:84:9c:26:08:75:a6:f5:ef:e2:e3:82:d8:36:
                    46:47:32:7a:a4:00:16:90:28:45:9b:de:a7:2a:2e:
                    ab:2b:23:4e:41:04:c0:4a:e8:16:18:6f:d8:8b:eb:
                    1c:66:ca:36:fd:25:42:aa:14:19:78:68:fd:0f:37:
                    ba:81:18:20:f8:ba:19:e8:c5:b8:91:68:bd:60:12:
                    49:7a:27:22:ea:e4:20:c7:73:bc:72:2b:86:90:10:
                    56:f6:68:2d:f2:7b:d0:6f:a0:c0:02:b4:e3:3d:a8:
                    0d:23:0a:a7:ee:8d:03:cb:46:7c:e8:66:b6:59:de:
                    88:de:5d:c8:27:10:6b:e2:65:20:10:76:05:00:fe:
                    b3:47
                Exponent: 65537 (0x10001)
        X509v3 extensions:
            X509v3 Basic Constraints: 
                CA:FALSE
            X509v3 Subject Key Identifier: 
                A7:89:4D:FE:35:DF:6D:0C:EF:8A:8A:A5:F9:77:9E:3A:50:1E:4F:D2
            X509v3 Authority Key Identifier: 
                keyid:CA:0A:84:D4:06:FC:81:B7:79:9E:F2:11:36:2D:28:36:23:91:C3:03
                DirName:/CN=team122-net
                serial:7C:E3:9E:B9:64:AE:EA:7C:72:22:00:AE:D9:03:EB:0A:EC:8F:A1:13
            X509v3 Extended Key Usage: 
                TLS Web Client Authentication
            X509v3 Key Usage: 
                Digital Signature
    Signature Algorithm: sha256WithRSAEncryption
    Signature Value:
        01:47:b6:4f:e7:58:58:4c:d9:48:12:85:e7:63:a5:cc:29:cb:
        5e:24:ec:ee:25:a4:0d:3c:e6:26:0a:69:c0:72:12:61:56:b3:
        84:cc:37:7e:3e:45:af:ba:6b:5f:82:b0:ea:93:8a:54:8f:29:
        f6:59:bc:4a:b5:78:42:5f:31:fe:60:1d:af:0b:5c:ee:e1:04:
        c6:49:78:f7:b7:bb:4c:3f:f4:11:3d:e8:43:dd:6f:43:c6:5c:
        64:d5:6d:93:15:35:a0:a6:dc:81:2f:d7:75:20:d1:1b:ab:99:
        34:fd:5d:a6:11:00:93:d0:16:a6:86:fc:ec:05:28:ba:d2:f3:
        f8:e6:91:f2:86:b1:cd:41:b9:50:b6:6e:d7:d2:47:7d:c3:2f:
        e0:cb:fc:d9:a9:cb:d3:f4:fa:29:74:aa:4f:c6:31:94:af:72:
        97:df:78:58:92:f2:c9:c2:95:3c:0c:b5:e8:b9:92:d3:1c:81:
        c1:90:42:bc:eb:c1:f3:27:12:7d:e0:d5:4e:b5:69:d9:91:89:
        9e:ac:22:3e:28:9f:f3:a7:29:a0:ce:3f:74:27:22:a6:c6:1b:
        d1:d0:31:18:99:28:17:2a:6b:ad:b1:cc:da:49:e7:7b:0c:32:
        0e:01:ba:1c:41:92:a6:de:02:62:b1:2d:ba:40:25:03:9a:7a:
        d4:bc:f6:5d
-----BEGIN CERTIFICATE-----
MIIDXDCCAkSgAwIBAgIQNJ3b5ibFeri2woHmMx5jLjANBgkqhkiG9w0BAQsFADAW
MRQwEgYDVQQDDAt0ZWFtMTIyLW5ldDAeFw0yMzExMDQxMDQyNDRaFw0yNjEwMTkx
MDQyNDRaMBkxFzAVBgNVBAMMDnRlYW0xMjItY2xpZW50MIIBIjANBgkqhkiG9w0B
AQEFAAOCAQ8AMIIBCgKCAQEAs7sDUNq2ndMIgyP0rrGr5nFLRv/M5a9+PqGR0pxl
Bp4/g272V+8FXTdsICaxig2deOrym1LlR+KfoliXv0gQs298sOcRJ2Vxtz92uuiT
SHn7sIwNVldvanGpq+H9Vz+oY/2V3ZhL+xMsZhb3PvuYmdK3U/LIitwMroScJgh1
pvXv4uOC2DZGRzJ6pAAWkChFm96nKi6rKyNOQQTASugWGG/Yi+scZso2/SVCqhQZ
eGj9Dze6gRgg+LoZ6MW4kWi9YBJJeici6uQgx3O8ciuGkBBW9mgt8nvQb6DAArTj
PagNIwqn7o0Dy0Z86Ga2Wd6I3l3IJxBr4mUgEHYFAP6zRwIDAQABo4GiMIGfMAkG
A1UdEwQCMAAwHQYDVR0OBBYEFKeJTf41320M74qKpfl3njpQHk/SMFEGA1UdIwRK
MEiAFMoKhNQG/IG3eZ7yETYtKDYjkcMDoRqkGDAWMRQwEgYDVQQDDAt0ZWFtMTIy
LW5ldIIUfOOeuWSu6nxyIgCu2QPrCuyPoRMwEwYDVR0lBAwwCgYIKwYBBQUHAwIw
CwYDVR0PBAQDAgeAMA0GCSqGSIb3DQEBCwUAA4IBAQABR7ZP51hYTNlIEoXnY6XM
KcteJOzuJaQNPOYmCmnAchJhVrOEzDd+PkWvumtfgrDqk4pUjyn2WbxKtXhCXzH+
YB2vC1zu4QTGSXj3t7tMP/QRPehD3W9Dxlxk1W2TFTWgptyBL9d1INEbq5k0/V2m
EQCT0BamhvzsBSi60vP45pHyhrHNQblQtm7X0kd9wy/gy/zZqcvT9PopdKpPxjGU
r3KX33hYkvLJwpU8DLXouZLTHIHBkEK868HzJxJ94NVOtWnZkYmerCI+KJ/zpymg
zj90JyKmxhvR0DEYmSgXKmutsczaSed7DDIOAbocQZKm3gJisS26QCUDmnrUvPZd
-----END CERTIFICATE-----
