Certificate:
    Data:
        Version: 3 (0x2)
        Serial Number:
            ab:bc:32:49:1b:ba:ed:c8:c1:b2:61:7d:72:e2:d8:9b
        Signature Algorithm: sha256WithRSAEncryption
        Issuer: CN=team122-net
        Validity
            Not Before: Nov  3 20:41:20 2023 GMT
            Not After : Oct 18 20:41:20 2026 GMT
        Subject: CN=team122-client
        Subject Public Key Info:
            Public Key Algorithm: rsaEncryption
                Public-Key: (2048 bit)
                Modulus:
                    00:cc:3f:f4:c4:6b:84:80:f0:dd:0a:45:c1:9b:cf:
                    94:52:a5:2f:82:ad:02:50:0a:e6:e5:2c:da:62:7b:
                    61:89:87:c4:bd:b1:fb:2d:3d:bb:f3:bf:1b:de:b7:
                    9f:91:07:b1:ef:ce:a8:a1:22:eb:3e:b9:bd:b0:66:
                    4c:82:fe:c1:4c:e5:2e:10:97:a4:49:36:5a:fa:c3:
                    2f:8e:0d:96:e1:25:21:1e:74:01:b6:ed:9c:21:27:
                    64:86:39:4b:d5:9c:96:66:10:c8:50:97:62:d0:ee:
                    40:c3:ee:4e:f3:0e:76:6c:91:65:7e:67:04:f4:13:
                    2c:84:07:c4:6c:a1:8d:99:bf:aa:cd:fb:65:d2:8c:
                    fb:bd:64:1c:7c:74:21:45:fa:7e:47:7b:76:5a:9b:
                    4f:9e:42:40:64:27:6a:f3:ed:4f:ff:dc:d3:19:a0:
                    ad:89:d7:3c:6f:97:77:45:45:34:9c:1e:8d:05:f0:
                    e8:cf:d9:e2:ed:b2:37:1d:c2:90:5f:cd:11:f6:c9:
                    0f:93:52:cc:a4:6b:ba:0a:59:c9:35:6f:04:4d:d5:
                    16:4c:7c:e0:19:bc:82:dc:f5:d4:44:40:e0:b5:fe:
                    8a:2f:13:92:98:67:e7:67:42:ec:82:ee:6f:fa:b7:
                    e3:23:82:76:cb:01:9e:0e:93:32:e4:34:fc:27:ed:
                    1c:e1
                Exponent: 65537 (0x10001)
        X509v3 extensions:
            X509v3 Basic Constraints: 
                CA:FALSE
            X509v3 Subject Key Identifier: 
                A4:ED:4E:79:EA:B5:B4:89:54:B1:0D:53:B1:71:C1:55:6E:E3:99:24
            X509v3 Authority Key Identifier: 
                keyid:28:00:D6:6C:ED:FE:0E:61:EE:71:DD:0E:71:13:DE:2E:69:18:50:83
                DirName:/CN=team122-net
                serial:5A:CD:F6:77:BF:AB:D1:D4:59:AD:C3:E7:EE:0A:6D:FA:F7:E0:BE:1E
            X509v3 Extended Key Usage: 
                TLS Web Client Authentication
            X509v3 Key Usage: 
                Digital Signature
    Signature Algorithm: sha256WithRSAEncryption
    Signature Value:
        32:16:61:03:81:78:ff:2d:3f:bb:82:ad:75:c7:db:31:94:73:
        f2:3e:c4:b8:38:79:32:48:db:13:af:8d:45:cc:65:2a:3f:dd:
        45:91:9f:10:75:12:b0:ef:24:3b:47:da:c2:fe:7a:fc:75:9d:
        f9:92:85:d8:75:ac:7b:5c:00:36:8b:a5:78:47:9a:4e:b5:35:
        c8:cc:66:72:2b:12:19:53:cd:46:35:af:6e:8b:5d:d7:fc:ff:
        3d:41:53:91:9d:6a:43:e6:39:26:f8:84:12:0e:7a:38:88:91:
        bc:98:7f:f0:81:fe:3a:22:45:8b:62:98:ac:69:5e:26:58:1f:
        84:a2:11:44:3d:98:6c:3c:db:d2:e2:89:c6:27:9e:13:b2:46:
        04:54:15:7c:08:08:c9:5f:84:54:77:a5:17:9b:2f:6b:d8:d1:
        b7:d2:fc:22:2e:55:77:f2:3c:00:26:fa:9c:6c:31:21:27:6d:
        35:5f:c4:fc:26:47:5f:04:85:07:e2:c6:b5:eb:f1:21:eb:27:
        2d:3f:f7:6e:43:f2:b8:c0:49:55:cf:42:17:6c:13:d2:9d:93:
        27:f9:bc:8b:39:b8:76:b9:67:aa:6d:d3:bd:b6:20:35:34:27:
        d1:16:b2:04:d9:f7:c0:81:b9:ae:b1:41:cb:11:a8:dd:90:f7:
        dd:55:4f:80
-----BEGIN CERTIFICATE-----
MIIDXTCCAkWgAwIBAgIRAKu8Mkkbuu3IwbJhfXLi2JswDQYJKoZIhvcNAQELBQAw
FjEUMBIGA1UEAwwLdGVhbTEyMi1uZXQwHhcNMjMxMTAzMjA0MTIwWhcNMjYxMDE4
MjA0MTIwWjAZMRcwFQYDVQQDDA50ZWFtMTIyLWNsaWVudDCCASIwDQYJKoZIhvcN
AQEBBQADggEPADCCAQoCggEBAMw/9MRrhIDw3QpFwZvPlFKlL4KtAlAK5uUs2mJ7
YYmHxL2x+y09u/O/G963n5EHse/OqKEi6z65vbBmTIL+wUzlLhCXpEk2WvrDL44N
luElIR50AbbtnCEnZIY5S9WclmYQyFCXYtDuQMPuTvMOdmyRZX5nBPQTLIQHxGyh
jZm/qs37ZdKM+71kHHx0IUX6fkd7dlqbT55CQGQnavPtT//c0xmgrYnXPG+Xd0VF
NJwejQXw6M/Z4u2yNx3CkF/NEfbJD5NSzKRrugpZyTVvBE3VFkx84Bm8gtz11ERA
4LX+ii8Tkphn52dC7ILub/q34yOCdssBng6TMuQ0/CftHOECAwEAAaOBojCBnzAJ
BgNVHRMEAjAAMB0GA1UdDgQWBBSk7U556rW0iVSxDVOxccFVbuOZJDBRBgNVHSME
SjBIgBQoANZs7f4OYe5x3Q5xE94uaRhQg6EapBgwFjEUMBIGA1UEAwwLdGVhbTEy
Mi1uZXSCFFrN9ne/q9HUWa3D5+4Kbfr34L4eMBMGA1UdJQQMMAoGCCsGAQUFBwMC
MAsGA1UdDwQEAwIHgDANBgkqhkiG9w0BAQsFAAOCAQEAMhZhA4F4/y0/u4Ktdcfb
MZRz8j7EuDh5MkjbE6+NRcxlKj/dRZGfEHUSsO8kO0fawv56/HWd+ZKF2HWse1wA
NouleEeaTrU1yMxmcisSGVPNRjWvbotd1/z/PUFTkZ1qQ+Y5JviEEg56OIiRvJh/
8IH+OiJFi2KYrGleJlgfhKIRRD2YbDzb0uKJxieeE7JGBFQVfAgIyV+EVHelF5sv
a9jRt9L8Ii5Vd/I8ACb6nGwxISdtNV/E/CZHXwSFB+LGtevxIesnLT/3bkPyuMBJ
Vc9CF2wT0p2TJ/m8izm4drlnqm3TvbYgNTQn0RayBNn3wIG5rrFByxGo3ZD33VVP
gA==
-----END CERTIFICATE-----
