Certificate:
    Data:
        Version: 3 (0x2)
        Serial Number:
            07:20:67:ff:a2:3a:aa:fa:cc:51:e9:e2:06:17:4a:88
        Signature Algorithm: sha256WithRSAEncryption
        Issuer: CN=team379-net
        Validity
            Not Before: Nov  3 20:46:05 2023 GMT
            Not After : Oct 18 20:46:05 2026 GMT
        Subject: CN=team379-client
        Subject Public Key Info:
            Public Key Algorithm: rsaEncryption
                Public-Key: (2048 bit)
                Modulus:
                    00:c5:ec:47:97:26:6c:e7:35:84:18:55:f5:db:cd:
                    2c:64:43:e0:62:a0:82:e3:61:d2:3a:b9:01:f1:67:
                    60:94:1b:e5:ea:82:f9:09:4e:4d:85:fe:c7:e7:0e:
                    fb:9b:4e:7a:8c:19:e2:eb:3b:ab:f3:b4:0f:1b:d9:
                    74:f7:e4:4f:b1:9f:46:15:57:ec:e6:00:82:c6:6e:
                    3c:c3:3e:61:93:ec:f3:d9:6b:ab:6b:6f:b4:31:1a:
                    06:50:a5:22:66:eb:80:dd:99:23:2c:4a:bc:6b:03:
                    25:bc:82:e7:52:bf:c4:b2:66:b3:4f:15:6a:25:41:
                    42:44:c5:a7:ea:bd:fc:b9:4f:22:64:5f:7c:69:ab:
                    a6:05:db:4a:09:96:eb:ac:bf:9a:33:48:cf:d0:97:
                    a4:c1:d4:c6:e3:f4:6a:39:bd:fa:0b:be:03:35:55:
                    fe:95:56:bc:ee:5c:40:f2:bf:3e:5b:3d:9c:20:81:
                    eb:ef:1c:6c:f4:18:4d:1b:a7:f5:fe:1f:ad:23:c6:
                    9a:61:e1:0a:31:08:7e:97:be:5e:73:e5:9c:72:51:
                    5b:b7:b1:e4:61:eb:60:c9:d1:50:c3:cf:73:75:f8:
                    3b:42:ac:a1:91:38:bd:53:f5:6f:c7:40:c3:f4:58:
                    30:c8:7a:1b:c3:3f:1c:48:89:8d:7c:a9:65:84:91:
                    36:59
                Exponent: 65537 (0x10001)
        X509v3 extensions:
            X509v3 Basic Constraints: 
                CA:FALSE
            X509v3 Subject Key Identifier: 
                FC:82:1C:B2:98:93:53:71:5A:58:83:AC:8F:8C:02:04:36:75:2E:8E
            X509v3 Authority Key Identifier: 
                keyid:3A:4C:A9:72:82:A2:C0:2D:28:00:46:7C:24:18:68:BB:E2:58:92:DE
                DirName:/CN=team379-net
                serial:18:03:36:E1:50:5A:3E:8E:11:07:6A:B2:8A:23:08:FC:BC:FE:FE:FB
            X509v3 Extended Key Usage: 
                TLS Web Client Authentication
            X509v3 Key Usage: 
                Digital Signature
    Signature Algorithm: sha256WithRSAEncryption
    Signature Value:
        44:92:68:51:3e:03:82:8b:c2:ca:db:39:0f:4e:f7:81:2d:89:
        8d:a5:1d:b9:f8:ef:c6:e6:a6:9a:10:7c:16:5b:13:eb:5e:5b:
        1a:20:2e:a6:b0:6c:c3:5e:02:51:e7:9b:76:06:ba:35:ec:6d:
        5a:67:fc:ae:aa:98:20:98:fc:66:f1:05:59:85:d6:97:19:84:
        15:99:4f:89:23:75:16:3d:ef:cb:bf:0b:4e:9e:06:24:5e:ed:
        e5:7f:3f:f0:92:39:76:b6:e2:f6:8c:9e:c3:3b:d7:40:96:d9:
        3d:22:f6:30:c7:ef:9d:45:04:b4:4f:d3:1b:61:dd:f2:ea:e2:
        54:8a:9a:33:09:12:77:6e:c1:45:c8:9c:1a:d6:d1:d2:a0:41:
        29:0c:3b:9f:ec:26:06:30:ae:3f:89:c0:77:ac:7a:a5:02:d1:
        b1:3d:e2:23:79:3c:c7:55:96:41:d5:b8:63:ad:8d:6c:97:13:
        ab:6c:cf:da:be:f3:e0:1d:f3:b0:c3:92:18:92:ea:2d:9e:a1:
        ed:3e:5e:cf:13:ea:88:17:e5:67:98:99:b9:de:fb:ac:36:ad:
        e0:b2:6d:87:13:62:70:8b:5f:cc:00:25:b9:53:40:96:f1:ed:
        5c:70:20:91:b0:a1:bd:aa:ad:a2:46:53:a0:57:2c:e9:79:8f:
        4c:6d:4d:3a
-----BEGIN CERTIFICATE-----
MIIDXDCCAkSgAwIBAgIQByBn/6I6qvrMUeniBhdKiDANBgkqhkiG9w0BAQsFADAW
MRQwEgYDVQQDDAt0ZWFtMzc5LW5ldDAeFw0yMzExMDMyMDQ2MDVaFw0yNjEwMTgy
MDQ2MDVaMBkxFzAVBgNVBAMMDnRlYW0zNzktY2xpZW50MIIBIjANBgkqhkiG9w0B
AQEFAAOCAQ8AMIIBCgKCAQEAxexHlyZs5zWEGFX1280sZEPgYqCC42HSOrkB8Wdg
lBvl6oL5CU5Nhf7H5w77m056jBni6zur87QPG9l09+RPsZ9GFVfs5gCCxm48wz5h
k+zz2Wura2+0MRoGUKUiZuuA3ZkjLEq8awMlvILnUr/EsmazTxVqJUFCRMWn6r38
uU8iZF98aaumBdtKCZbrrL+aM0jP0JekwdTG4/RqOb36C74DNVX+lVa87lxA8r8+
Wz2cIIHr7xxs9BhNG6f1/h+tI8aaYeEKMQh+l75ec+WcclFbt7HkYetgydFQw89z
dfg7QqyhkTi9U/Vvx0DD9FgwyHobwz8cSImNfKllhJE2WQIDAQABo4GiMIGfMAkG
A1UdEwQCMAAwHQYDVR0OBBYEFPyCHLKYk1NxWliDrI+MAgQ2dS6OMFEGA1UdIwRK
MEiAFDpMqXKCosAtKABGfCQYaLviWJLeoRqkGDAWMRQwEgYDVQQDDAt0ZWFtMzc5
LW5ldIIUGAM24VBaPo4RB2qyiiMI/Lz+/vswEwYDVR0lBAwwCgYIKwYBBQUHAwIw
CwYDVR0PBAQDAgeAMA0GCSqGSIb3DQEBCwUAA4IBAQBEkmhRPgOCi8LK2zkPTveB
LYmNpR25+O/G5qaaEHwWWxPrXlsaIC6msGzDXgJR55t2Bro17G1aZ/yuqpggmPxm
8QVZhdaXGYQVmU+JI3UWPe/LvwtOngYkXu3lfz/wkjl2tuL2jJ7DO9dAltk9IvYw
x++dRQS0T9MbYd3y6uJUipozCRJ3bsFFyJwa1tHSoEEpDDuf7CYGMK4/icB3rHql
AtGxPeIjeTzHVZZB1bhjrY1slxOrbM/avvPgHfOww5IYkuotnqHtPl7PE+qIF+Vn
mJm53vusNq3gsm2HE2Jwi1/MACW5U0CW8e1ccCCRsKG9qq2iRlOgVyzpeY9MbU06
-----END CERTIFICATE-----
