Certificate:
    Data:
        Version: 3 (0x2)
        Serial Number:
            5f:3c:89:64:68:a0:5e:62:57:ff:a1:3f:92:1f:7a:a3
        Signature Algorithm: sha256WithRSAEncryption
        Issuer: CN=team30-net
        Validity
            Not Before: Nov  4 10:40:47 2023 GMT
            Not After : Oct 19 10:40:47 2026 GMT
        Subject: CN=team30-server
        Subject Public Key Info:
            Public Key Algorithm: rsaEncryption
                Public-Key: (2048 bit)
                Modulus:
                    00:9d:23:bc:7f:83:fd:a1:c9:f4:0d:14:62:b2:7d:
                    3d:77:01:65:b8:6d:4a:51:06:dd:1d:55:f1:fa:80:
                    25:38:a7:cf:32:f0:74:b4:a5:b5:cf:eb:c3:98:5e:
                    d9:7d:eb:be:50:17:52:1c:fd:26:88:91:44:fb:45:
                    1d:31:ba:39:2d:21:aa:09:a0:34:55:e8:8b:f1:73:
                    ed:e7:c0:61:a9:51:5d:d7:e0:e4:6a:b2:68:af:ee:
                    04:b2:31:80:07:e1:fa:70:c7:04:b6:72:d2:7e:7d:
                    bb:28:99:fd:bf:49:15:f3:44:79:7c:c0:c4:b0:4e:
                    b7:de:00:7c:e4:41:8e:df:49:1d:a2:5d:27:bc:ea:
                    fd:53:dc:9d:9a:fb:fc:ca:38:69:fe:e7:e5:23:81:
                    18:f8:d7:bf:80:f5:b2:93:aa:d1:f4:5c:20:ff:3a:
                    f7:6a:7e:0d:d8:ea:b9:7e:c5:5f:6b:52:d4:37:2d:
                    21:e0:52:58:bf:9f:de:fa:03:4e:86:27:04:e9:24:
                    0a:56:ca:26:37:48:34:34:cf:95:73:4f:2c:0b:5c:
                    eb:ae:d4:20:22:95:20:c3:66:7d:29:dd:dc:33:20:
                    a0:c9:bf:f5:7f:d7:0e:b6:9a:97:06:cc:93:1c:c8:
                    c9:93:cf:a3:c8:70:1f:96:0f:c6:0d:2d:9d:d4:51:
                    ad:a7
                Exponent: 65537 (0x10001)
        X509v3 extensions:
            X509v3 Basic Constraints: 
                CA:FALSE
            X509v3 Subject Key Identifier: 
                36:7D:C1:BC:5B:5F:63:46:5E:C2:AA:D7:C1:08:32:D5:95:31:16:2B
            X509v3 Authority Key Identifier: 
                keyid:A0:C2:DE:54:B9:53:0F:55:EA:9D:22:0F:C4:AD:37:AE:DE:F7:06:69
                DirName:/CN=team30-net
                serial:5F:02:5D:83:6B:31:8C:A1:80:5F:28:97:3B:8D:A0:EE:F9:48:48:B1
            X509v3 Extended Key Usage: 
                TLS Web Server Authentication
            X509v3 Key Usage: 
                Digital Signature, Key Encipherment
            X509v3 Subject Alternative Name: 
                DNS:team30-server
    Signature Algorithm: sha256WithRSAEncryption
    Signature Value:
        22:95:5d:f1:1a:ea:0a:5f:02:72:ae:0d:ca:67:1f:db:42:e2:
        fc:07:2b:7f:51:c0:fc:2c:79:cf:4b:18:8e:f0:a3:96:ed:ac:
        ee:84:52:57:84:69:2f:9e:8a:41:fe:38:71:0c:0b:d4:9c:d3:
        bd:a4:47:05:43:7b:2e:00:de:06:a6:4f:61:78:9c:5e:66:66:
        03:2e:2a:81:25:88:b6:78:d5:d9:50:dd:36:73:67:ad:45:7c:
        2b:2a:69:a0:0d:c3:3a:09:cd:21:06:8b:a9:22:61:29:94:d8:
        f1:35:01:48:68:4c:f7:55:7b:fa:81:bd:67:05:ea:e9:7a:47:
        24:d3:1a:02:a6:16:0d:2a:b9:31:6e:d2:25:cb:43:45:e4:93:
        b6:9f:a1:02:8a:2d:ba:64:97:72:d6:4d:13:84:88:80:6e:e3:
        60:7d:8a:21:02:47:32:04:be:86:58:f7:48:74:46:b2:dc:8f:
        72:2a:1d:dc:58:eb:24:42:8c:df:f0:d8:fd:8e:9b:67:92:8c:
        f5:b7:4c:de:60:8c:b7:65:95:df:a1:c9:42:b9:24:4a:6d:13:
        ac:dc:4c:2a:fa:ed:80:52:4e:77:e6:8c:35:fe:b8:7a:73:9b:
        a3:d9:cc:25:6e:87:71:dc:a3:41:eb:71:0a:7c:ea:01:cf:98:
        e2:e2:24:f1
-----BEGIN CERTIFICATE-----
MIIDczCCAlugAwIBAgIQXzyJZGigXmJX/6E/kh96ozANBgkqhkiG9w0BAQsFADAV
MRMwEQYDVQQDDAp0ZWFtMzAtbmV0MB4XDTIzMTEwNDEwNDA0N1oXDTI2MTAxOTEw
NDA0N1owGDEWMBQGA1UEAwwNdGVhbTMwLXNlcnZlcjCCASIwDQYJKoZIhvcNAQEB
BQADggEPADCCAQoCggEBAJ0jvH+D/aHJ9A0UYrJ9PXcBZbhtSlEG3R1V8fqAJTin
zzLwdLSltc/rw5he2X3rvlAXUhz9JoiRRPtFHTG6OS0hqgmgNFXoi/Fz7efAYalR
Xdfg5GqyaK/uBLIxgAfh+nDHBLZy0n59uyiZ/b9JFfNEeXzAxLBOt94AfORBjt9J
HaJdJ7zq/VPcnZr7/Mo4af7n5SOBGPjXv4D1spOq0fRcIP8692p+DdjquX7FX2tS
1DctIeBSWL+f3voDToYnBOkkClbKJjdINDTPlXNPLAtc667UICKVIMNmfSnd3DMg
oMm/9X/XDraalwbMkxzIyZPPo8hwH5YPxg0tndRRracCAwEAAaOBuzCBuDAJBgNV
HRMEAjAAMB0GA1UdDgQWBBQ2fcG8W19jRl7CqtfBCDLVlTEWKzBQBgNVHSMESTBH
gBSgwt5UuVMPVeqdIg/ErTeu3vcGaaEZpBcwFTETMBEGA1UEAwwKdGVhbTMwLW5l
dIIUXwJdg2sxjKGAXyiXO42g7vlISLEwEwYDVR0lBAwwCgYIKwYBBQUHAwEwCwYD
VR0PBAQDAgWgMBgGA1UdEQQRMA+CDXRlYW0zMC1zZXJ2ZXIwDQYJKoZIhvcNAQEL
BQADggEBACKVXfEa6gpfAnKuDcpnH9tC4vwHK39RwPwsec9LGI7wo5btrO6EUleE
aS+eikH+OHEMC9Sc072kRwVDey4A3gamT2F4nF5mZgMuKoEliLZ41dlQ3TZzZ61F
fCsqaaANwzoJzSEGi6kiYSmU2PE1AUhoTPdVe/qBvWcF6ul6RyTTGgKmFg0quTFu
0iXLQ0Xkk7afoQKKLbpkl3LWTROEiIBu42B9iiECRzIEvoZY90h0RrLcj3IqHdxY
6yRCjN/w2P2Om2eSjPW3TN5gjLdlld+hyUK5JEptE6zcTCr67YBSTnfmjDX+uHpz
m6PZzCVuh3Hco0HrcQp86gHPmOLiJPE=
-----END CERTIFICATE-----
