Certificate:
    Data:
        Version: 3 (0x2)
        Serial Number:
            b2:05:33:b5:9f:4b:25:2d:66:5c:b8:02:94:bb:85:83
        Signature Algorithm: sha256WithRSAEncryption
        Issuer: CN=team30-net
        Validity
            Not Before: Nov  3 20:39:46 2023 GMT
            Not After : Oct 18 20:39:46 2026 GMT
        Subject: CN=team30-client
        Subject Public Key Info:
            Public Key Algorithm: rsaEncryption
                Public-Key: (2048 bit)
                Modulus:
                    00:b8:cb:65:eb:fc:44:b4:aa:a9:19:1f:db:6d:07:
                    0f:1c:b2:19:96:76:44:64:4b:93:5a:a2:e7:aa:bf:
                    0e:e0:3d:d7:d5:e8:52:33:4d:d9:e0:cd:66:45:47:
                    05:25:18:be:00:f7:64:c9:d6:ec:c5:3e:e4:39:09:
                    ba:d3:26:33:f4:fc:b9:a5:d6:60:f9:7a:0f:8c:fa:
                    b6:62:b5:37:b8:0e:7e:d9:4a:19:ec:be:e4:73:3c:
                    2e:f2:1c:b2:65:c5:8d:f2:e8:b5:2d:99:0c:9a:bc:
                    c9:d3:64:32:61:a0:80:9a:92:0d:aa:5b:55:c4:ca:
                    01:11:31:b1:bd:f1:8e:7b:86:1f:d2:7c:91:60:3d:
                    38:80:97:94:8d:30:e5:f0:4e:aa:5f:8c:31:d3:f1:
                    40:fe:d2:c1:95:85:71:12:51:fc:40:b9:86:72:41:
                    53:28:74:d1:f9:ef:6a:f2:9c:9f:16:91:a0:a2:a8:
                    5a:4e:10:fa:f3:47:73:50:6b:5d:5f:3b:bb:3b:cb:
                    3c:1e:0e:6e:50:ce:60:80:2a:03:05:41:76:f7:f3:
                    a7:8f:25:da:ef:ab:a2:ee:9c:b3:d6:a9:9f:62:08:
                    eb:4a:40:ca:f4:6c:ea:e6:90:95:2a:9e:24:56:f2:
                    04:94:7b:98:ba:7d:37:55:74:e6:f9:59:5a:df:30:
                    f4:d3
                Exponent: 65537 (0x10001)
        X509v3 extensions:
            X509v3 Basic Constraints: 
                CA:FALSE
            X509v3 Subject Key Identifier: 
                13:D3:56:DC:EB:66:C7:04:34:1B:CE:1D:9A:00:7D:81:4A:79:B8:7C
            X509v3 Authority Key Identifier: 
                keyid:93:D8:0C:E9:17:48:88:DD:95:64:DF:99:C3:05:F7:0E:3E:32:2D:39
                DirName:/CN=team30-net
                serial:4D:17:39:29:72:4C:6E:2B:2D:04:EA:0E:A3:20:54:BC:53:DD:F4:77
            X509v3 Extended Key Usage: 
                TLS Web Client Authentication
            X509v3 Key Usage: 
                Digital Signature
    Signature Algorithm: sha256WithRSAEncryption
    Signature Value:
        31:fe:7c:a8:62:aa:0a:65:53:24:c0:91:3b:6a:47:3a:6d:1a:
        0e:6b:49:a5:42:e6:08:2e:39:6f:7d:6f:73:4d:a1:23:27:c9:
        d8:59:b0:e4:fb:7d:e4:38:ed:41:9e:7f:9c:1b:e6:28:73:bb:
        b2:54:7d:32:22:58:cd:ff:1e:60:e6:ae:e6:e7:7c:77:26:34:
        62:73:07:f2:83:fa:3b:0b:c4:0f:91:da:d6:d7:84:ec:34:de:
        4f:9d:8b:dc:2e:64:f5:98:86:3f:58:84:f3:41:a0:03:27:75:
        33:6f:1f:44:f7:93:79:0b:7d:45:06:61:61:1c:31:09:4c:2e:
        05:51:bd:c7:20:06:f5:3e:48:62:b6:cd:51:9d:9b:7c:40:c0:
        05:5b:f0:d9:0c:04:9a:38:e1:19:f8:93:b9:f0:cc:e5:56:56:
        13:62:a8:75:ca:ba:86:04:0c:9c:c8:90:8c:d0:22:35:ce:90:
        1a:bf:3e:fb:84:b6:10:4b:fb:e2:10:bb:9d:3d:89:c0:81:0a:
        23:d9:07:cd:53:05:f1:63:ef:c7:6c:e8:60:89:11:ec:46:9b:
        cf:6d:a3:28:47:2e:a3:8a:50:58:85:9e:ca:2a:bd:c9:d1:5a:
        ac:d4:02:54:f5:98:29:cc:66:04:70:ed:84:ff:19:bf:86:aa:
        52:96:5a:4f
-----BEGIN CERTIFICATE-----
MIIDWjCCAkKgAwIBAgIRALIFM7WfSyUtZly4ApS7hYMwDQYJKoZIhvcNAQELBQAw
FTETMBEGA1UEAwwKdGVhbTMwLW5ldDAeFw0yMzExMDMyMDM5NDZaFw0yNjEwMTgy
MDM5NDZaMBgxFjAUBgNVBAMMDXRlYW0zMC1jbGllbnQwggEiMA0GCSqGSIb3DQEB
AQUAA4IBDwAwggEKAoIBAQC4y2Xr/ES0qqkZH9ttBw8cshmWdkRkS5Naoueqvw7g
PdfV6FIzTdngzWZFRwUlGL4A92TJ1uzFPuQ5CbrTJjP0/Lml1mD5eg+M+rZitTe4
Dn7ZShnsvuRzPC7yHLJlxY3y6LUtmQyavMnTZDJhoICakg2qW1XEygERMbG98Y57
hh/SfJFgPTiAl5SNMOXwTqpfjDHT8UD+0sGVhXESUfxAuYZyQVModNH572rynJ8W
kaCiqFpOEPrzR3NQa11fO7s7yzweDm5QzmCAKgMFQXb386ePJdrvq6LunLPWqZ9i
COtKQMr0bOrmkJUqniRW8gSUe5i6fTdVdOb5WVrfMPTTAgMBAAGjgaEwgZ4wCQYD
VR0TBAIwADAdBgNVHQ4EFgQUE9NW3OtmxwQ0G84dmgB9gUp5uHwwUAYDVR0jBEkw
R4AUk9gM6RdIiN2VZN+ZwwX3Dj4yLTmhGaQXMBUxEzARBgNVBAMMCnRlYW0zMC1u
ZXSCFE0XOSlyTG4rLQTqDqMgVLxT3fR3MBMGA1UdJQQMMAoGCCsGAQUFBwMCMAsG
A1UdDwQEAwIHgDANBgkqhkiG9w0BAQsFAAOCAQEAMf58qGKqCmVTJMCRO2pHOm0a
DmtJpULmCC45b31vc02hIyfJ2Fmw5Pt95DjtQZ5/nBvmKHO7slR9MiJYzf8eYOau
5ud8dyY0YnMH8oP6OwvED5Ha1teE7DTeT52L3C5k9ZiGP1iE80GgAyd1M28fRPeT
eQt9RQZhYRwxCUwuBVG9xyAG9T5IYrbNUZ2bfEDABVvw2QwEmjjhGfiTufDM5VZW
E2Kodcq6hgQMnMiQjNAiNc6QGr8++4S2EEv74hC7nT2JwIEKI9kHzVMF8WPvx2zo
YIkR7Eabz22jKEcuo4pQWIWeyiq9ydFarNQCVPWYKcxmBHDthP8Zv4aqUpZaTw==
-----END CERTIFICATE-----
