Certificate:
    Data:
        Version: 3 (0x2)
        Serial Number:
            cb:78:ec:d5:6f:78:14:54:df:93:49:b3:43:c9:bb:03
        Signature Algorithm: sha256WithRSAEncryption
        Issuer: CN=team30-net
        Validity
            Not Before: Nov  4 11:27:56 2023 GMT
            Not After : Oct 19 11:27:56 2026 GMT
        Subject: CN=team30-server
        Subject Public Key Info:
            Public Key Algorithm: rsaEncryption
                Public-Key: (2048 bit)
                Modulus:
                    00:ba:e2:ec:48:48:5c:76:eb:9a:a4:92:e4:0c:34:
                    8b:b5:b6:5e:87:dc:b8:38:1f:2d:48:91:17:e4:10:
                    d2:da:3c:a1:4f:af:3e:f1:74:b7:92:c7:66:d3:9a:
                    70:47:16:a0:73:c3:e4:20:9b:96:ae:f7:de:d9:57:
                    57:3f:a5:99:bd:f1:15:49:fa:d4:27:49:3c:e5:0b:
                    87:43:0b:79:4d:3e:f5:63:5b:c5:fa:72:d2:13:26:
                    9d:df:b8:8f:cb:ed:dd:52:91:99:27:83:6d:8a:42:
                    8a:e3:e0:c7:9d:18:68:56:1c:64:3b:75:71:0c:0d:
                    e5:a9:47:b8:c3:eb:a7:60:b4:1e:6f:15:cf:30:c3:
                    84:65:3f:52:d9:ff:bf:95:b3:70:56:2c:e4:ee:6d:
                    3e:da:15:78:6d:0c:93:98:ba:fd:a4:6b:1f:06:2e:
                    f0:1d:02:1e:aa:36:13:e2:68:39:56:0b:08:ea:a5:
                    76:e8:ed:8e:fc:88:a9:42:83:e9:82:35:70:a9:87:
                    ad:78:64:24:ed:31:a0:88:24:6d:b8:47:0d:bd:29:
                    d9:b9:8f:51:cf:ea:84:6e:49:76:f2:63:9a:0a:58:
                    23:ee:e4:2f:8b:9a:5e:5b:2a:e8:61:70:95:58:61:
                    bd:31:af:bb:5f:58:1a:e3:f0:63:cf:67:04:f7:76:
                    86:01
                Exponent: 65537 (0x10001)
        X509v3 extensions:
            X509v3 Basic Constraints: 
                CA:FALSE
            X509v3 Subject Key Identifier: 
                F3:B1:AC:5F:14:84:BC:88:A5:EC:EC:BD:90:73:96:BD:84:91:85:F7
            X509v3 Authority Key Identifier: 
                keyid:20:78:72:6F:A3:66:09:B0:47:10:CD:EB:DD:C0:54:B7:CC:33:65:33
                DirName:/CN=team30-net
                serial:4A:58:F0:B6:CE:A6:15:CE:3E:30:C3:98:4D:F3:07:A4:4F:BC:9B:3B
            X509v3 Extended Key Usage: 
                TLS Web Server Authentication
            X509v3 Key Usage: 
                Digital Signature, Key Encipherment
            X509v3 Subject Alternative Name: 
                DNS:team30-server
    Signature Algorithm: sha256WithRSAEncryption
    Signature Value:
        6d:a3:7e:ee:4b:4a:3f:b4:18:c1:ca:bc:c9:cc:84:b5:ff:59:
        4a:61:2c:b8:0b:b6:2c:26:dd:84:c9:b4:39:b4:ac:13:cf:d6:
        e5:03:24:dd:09:55:7e:ae:30:fd:61:e1:7d:93:a4:c8:45:13:
        eb:be:28:72:ea:1b:cf:eb:f5:97:b9:93:dd:a7:8e:28:46:0c:
        8f:c0:b8:4e:6a:9d:99:9d:66:72:ab:da:b8:42:76:3d:92:72:
        6a:e4:15:8a:2e:b8:fa:f6:c1:66:72:06:38:56:47:e8:df:93:
        70:78:f5:b5:a0:70:40:c2:27:b4:4a:25:6f:90:08:e9:c4:da:
        8d:b8:be:18:4d:0d:54:fe:93:52:7f:07:79:83:c0:45:1d:81:
        8b:15:dc:60:23:82:7d:cd:91:8e:f1:11:53:8a:41:91:7c:e1:
        41:77:52:87:0c:ef:eb:13:bf:c6:ce:e2:20:d5:db:e3:9e:22:
        c2:a7:b0:81:8e:51:26:79:96:e9:c7:81:49:87:d7:50:f4:f0:
        2a:cc:92:7a:5f:43:a1:38:04:a5:db:a9:ea:88:46:fc:e4:d6:
        ba:0e:76:53:95:d1:d9:1a:b9:8a:ef:21:cd:03:8c:e5:0f:62:
        d9:83:4b:e4:b8:77:5c:9d:cc:bc:11:58:06:01:16:16:c7:9f:
        2b:82:6a:ed
-----BEGIN CERTIFICATE-----
MIIDdDCCAlygAwIBAgIRAMt47NVveBRU35NJs0PJuwMwDQYJKoZIhvcNAQELBQAw
FTETMBEGA1UEAwwKdGVhbTMwLW5ldDAeFw0yMzExMDQxMTI3NTZaFw0yNjEwMTkx
MTI3NTZaMBgxFjAUBgNVBAMMDXRlYW0zMC1zZXJ2ZXIwggEiMA0GCSqGSIb3DQEB
AQUAA4IBDwAwggEKAoIBAQC64uxISFx265qkkuQMNIu1tl6H3Lg4Hy1IkRfkENLa
PKFPrz7xdLeSx2bTmnBHFqBzw+Qgm5au997ZV1c/pZm98RVJ+tQnSTzlC4dDC3lN
PvVjW8X6ctITJp3fuI/L7d1SkZkng22KQorj4MedGGhWHGQ7dXEMDeWpR7jD66dg
tB5vFc8ww4RlP1LZ/7+Vs3BWLOTubT7aFXhtDJOYuv2kax8GLvAdAh6qNhPiaDlW
CwjqpXbo7Y78iKlCg+mCNXCph614ZCTtMaCIJG24Rw29Kdm5j1HP6oRuSXbyY5oK
WCPu5C+Lml5bKuhhcJVYYb0xr7tfWBrj8GPPZwT3doYBAgMBAAGjgbswgbgwCQYD
VR0TBAIwADAdBgNVHQ4EFgQU87GsXxSEvIil7Oy9kHOWvYSRhfcwUAYDVR0jBEkw
R4AUIHhyb6NmCbBHEM3r3cBUt8wzZTOhGaQXMBUxEzARBgNVBAMMCnRlYW0zMC1u
ZXSCFEpY8LbOphXOPjDDmE3zB6RPvJs7MBMGA1UdJQQMMAoGCCsGAQUFBwMBMAsG
A1UdDwQEAwIFoDAYBgNVHREEETAPgg10ZWFtMzAtc2VydmVyMA0GCSqGSIb3DQEB
CwUAA4IBAQBto37uS0o/tBjByrzJzIS1/1lKYSy4C7YsJt2EybQ5tKwTz9blAyTd
CVV+rjD9YeF9k6TIRRPrvihy6hvP6/WXuZPdp44oRgyPwLhOap2ZnWZyq9q4QnY9
knJq5BWKLrj69sFmcgY4Vkfo35NwePW1oHBAwie0SiVvkAjpxNqNuL4YTQ1U/pNS
fwd5g8BFHYGLFdxgI4J9zZGO8RFTikGRfOFBd1KHDO/rE7/GzuIg1dvjniLCp7CB
jlEmeZbpx4FJh9dQ9PAqzJJ6X0OhOASl26nqiEb85Na6DnZTldHZGrmK7yHNA4zl
D2LZg0vkuHdcncy8EVgGARYWx58rgmrt
-----END CERTIFICATE-----
