Certificate:
    Data:
        Version: 3 (0x2)
        Serial Number:
            e8:ef:41:3f:88:54:ae:18:78:58:71:86:aa:f9:b3:5f
        Signature Algorithm: sha256WithRSAEncryption
        Issuer: CN=team30-net
        Validity
            Not Before: Nov  3 20:39:46 2023 GMT
            Not After : Oct 18 20:39:46 2026 GMT
        Subject: CN=team30-server
        Subject Public Key Info:
            Public Key Algorithm: rsaEncryption
                Public-Key: (2048 bit)
                Modulus:
                    00:ca:15:21:9e:40:a4:0a:28:50:41:cd:63:5f:b6:
                    58:a6:9c:fb:d8:d5:4e:47:a4:91:54:60:7f:87:6a:
                    45:cd:f4:1f:e0:1f:c1:76:b9:c4:f4:4e:47:30:24:
                    1b:fc:22:55:37:77:58:57:48:34:92:23:7e:46:99:
                    8a:1f:fd:de:5d:86:5f:58:b0:44:e7:d5:b7:69:24:
                    0e:12:04:c6:d9:16:47:c2:a4:f4:1d:d0:9d:bf:84:
                    38:1e:1f:18:56:cf:9f:ac:19:5f:23:ca:c6:57:d6:
                    49:6f:e0:58:e3:4d:e6:8d:5f:6d:ff:84:3a:82:ca:
                    9a:2e:9d:66:17:29:e4:f0:7d:50:5c:25:3b:61:e7:
                    ce:8c:bf:fb:3b:85:29:88:18:13:a1:21:da:ca:64:
                    f1:0f:64:88:02:e4:e1:7d:79:4d:ee:0e:75:e4:43:
                    34:fb:1d:fa:db:92:85:50:c4:78:32:3c:0d:f0:83:
                    4c:45:40:ea:29:eb:47:fd:2e:48:67:5e:dc:80:6a:
                    38:65:5a:ad:8d:b8:fc:ec:07:ef:18:c1:6c:87:85:
                    f7:ef:4b:51:b2:50:c6:47:9e:08:33:06:42:4f:56:
                    87:2a:51:c9:36:9d:8d:32:85:06:91:6e:22:46:bb:
                    8f:15:ba:d4:99:ba:19:a3:69:5c:3a:01:4e:55:7e:
                    3c:95
                Exponent: 65537 (0x10001)
        X509v3 extensions:
            X509v3 Basic Constraints: 
                CA:FALSE
            X509v3 Subject Key Identifier: 
                CB:9A:B2:43:3A:DF:7A:A0:61:23:1F:B4:00:7C:9E:54:C7:C7:6E:12
            X509v3 Authority Key Identifier: 
                keyid:93:D8:0C:E9:17:48:88:DD:95:64:DF:99:C3:05:F7:0E:3E:32:2D:39
                DirName:/CN=team30-net
                serial:4D:17:39:29:72:4C:6E:2B:2D:04:EA:0E:A3:20:54:BC:53:DD:F4:77
            X509v3 Extended Key Usage: 
                TLS Web Server Authentication
            X509v3 Key Usage: 
                Digital Signature, Key Encipherment
            X509v3 Subject Alternative Name: 
                DNS:team30-server
    Signature Algorithm: sha256WithRSAEncryption
    Signature Value:
        6a:4a:c0:4b:79:7b:6a:24:37:4d:c9:68:95:52:28:c2:46:de:
        ec:44:bc:03:cd:f8:4f:81:78:07:fa:84:ae:97:dd:57:1e:1f:
        0d:b1:93:8a:18:bf:39:24:77:a6:bc:99:52:4a:29:85:b8:61:
        49:88:3c:ea:28:ae:e2:38:7f:a7:9f:53:1a:60:cb:25:96:76:
        4b:ff:f2:33:71:b0:54:03:37:e5:e0:5c:35:d9:d0:14:d7:51:
        d4:b4:5b:6b:6c:03:98:ad:3e:5a:05:06:2e:53:dd:9c:75:8e:
        a9:2f:4d:5e:d3:e5:85:da:65:41:e7:dd:b3:fd:92:05:22:15:
        40:6e:b9:1e:4c:a5:04:fb:23:f7:37:c5:6b:e3:c6:b8:10:21:
        cf:5d:2f:59:6a:c5:a3:e4:dc:39:ed:a6:3b:44:0b:91:99:af:
        17:61:e3:29:a8:ea:d4:fe:a2:6d:53:4c:28:5d:57:75:f9:5f:
        0a:3f:08:1a:33:68:27:80:6c:35:3d:fc:47:f0:0a:04:50:43:
        ff:fa:61:13:c7:f8:93:02:b5:7e:34:20:1e:c3:9a:ee:16:c9:
        6d:70:76:ea:b4:26:a8:83:b1:75:86:0d:f2:3a:a8:f0:03:64:
        fa:81:17:cc:86:91:67:de:d9:e4:93:19:f0:61:c8:5e:fb:a8:
        16:81:08:18
-----BEGIN CERTIFICATE-----
MIIDdDCCAlygAwIBAgIRAOjvQT+IVK4YeFhxhqr5s18wDQYJKoZIhvcNAQELBQAw
FTETMBEGA1UEAwwKdGVhbTMwLW5ldDAeFw0yMzExMDMyMDM5NDZaFw0yNjEwMTgy
MDM5NDZaMBgxFjAUBgNVBAMMDXRlYW0zMC1zZXJ2ZXIwggEiMA0GCSqGSIb3DQEB
AQUAA4IBDwAwggEKAoIBAQDKFSGeQKQKKFBBzWNftlimnPvY1U5HpJFUYH+HakXN
9B/gH8F2ucT0TkcwJBv8IlU3d1hXSDSSI35GmYof/d5dhl9YsETn1bdpJA4SBMbZ
FkfCpPQd0J2/hDgeHxhWz5+sGV8jysZX1klv4FjjTeaNX23/hDqCypounWYXKeTw
fVBcJTth586Mv/s7hSmIGBOhIdrKZPEPZIgC5OF9eU3uDnXkQzT7HfrbkoVQxHgy
PA3wg0xFQOop60f9LkhnXtyAajhlWq2NuPzsB+8YwWyHhffvS1GyUMZHnggzBkJP
VocqUck2nY0yhQaRbiJGu48VutSZuhmjaVw6AU5VfjyVAgMBAAGjgbswgbgwCQYD
VR0TBAIwADAdBgNVHQ4EFgQUy5qyQzrfeqBhIx+0AHyeVMfHbhIwUAYDVR0jBEkw
R4AUk9gM6RdIiN2VZN+ZwwX3Dj4yLTmhGaQXMBUxEzARBgNVBAMMCnRlYW0zMC1u
ZXSCFE0XOSlyTG4rLQTqDqMgVLxT3fR3MBMGA1UdJQQMMAoGCCsGAQUFBwMBMAsG
A1UdDwQEAwIFoDAYBgNVHREEETAPgg10ZWFtMzAtc2VydmVyMA0GCSqGSIb3DQEB
CwUAA4IBAQBqSsBLeXtqJDdNyWiVUijCRt7sRLwDzfhPgXgH+oSul91XHh8NsZOK
GL85JHemvJlSSimFuGFJiDzqKK7iOH+nn1MaYMsllnZL//IzcbBUAzfl4Fw12dAU
11HUtFtrbAOYrT5aBQYuU92cdY6pL01e0+WF2mVB592z/ZIFIhVAbrkeTKUE+yP3
N8Vr48a4ECHPXS9ZasWj5Nw57aY7RAuRma8XYeMpqOrU/qJtU0woXVd1+V8KPwga
M2gngGw1PfxH8AoEUEP/+mETx/iTArV+NCAew5ruFsltcHbqtCaog7F1hg3yOqjw
A2T6gRfMhpFn3tnkkxnwYche+6gWgQgY
-----END CERTIFICATE-----
