Certificate:
    Data:
        Version: 3 (0x2)
        Serial Number:
            36:e4:76:25:eb:00:f9:fb:9d:a0:58:98:4e:cb:26:d4
        Signature Algorithm: sha256WithRSAEncryption
        Issuer: CN=team400-net
        Validity
            Not Before: Nov  4 11:36:30 2023 GMT
            Not After : Oct 19 11:36:30 2026 GMT
        Subject: CN=team400-client
        Subject Public Key Info:
            Public Key Algorithm: rsaEncryption
                Public-Key: (2048 bit)
                Modulus:
                    00:b2:a5:91:ea:31:85:ee:f1:e1:b3:21:15:6c:9c:
                    00:e0:ba:2a:0f:f0:68:c6:ea:2f:2b:03:fe:c4:82:
                    1c:67:04:32:10:33:ec:c6:93:ad:0a:d2:16:89:8c:
                    d9:e5:dc:93:d0:58:88:83:01:ff:77:de:65:25:e7:
                    f4:4c:ed:c4:21:07:bf:75:e8:57:92:81:b8:24:1b:
                    1a:b2:cd:9f:bd:fc:d5:ca:41:90:54:b7:9a:2f:74:
                    73:23:dd:60:4a:a6:02:fa:a2:4c:82:fa:d6:be:72:
                    cb:f5:4a:5f:ea:48:8b:79:35:62:f5:80:e2:6f:dd:
                    0a:85:43:b2:83:7a:c0:05:2d:df:82:82:47:d6:32:
                    1b:55:b3:b2:52:14:03:96:d1:c9:39:01:a1:ab:e9:
                    62:c7:d0:fd:49:0a:b3:f6:5b:72:37:bf:92:bc:d0:
                    07:f1:29:d5:14:7d:f6:73:32:a5:98:af:a2:a4:78:
                    c2:fe:cb:4e:d7:15:3a:86:a3:b4:6d:cf:04:d8:81:
                    f9:a4:86:29:10:ba:59:a8:a4:bf:40:bd:9b:ec:46:
                    8e:4a:e0:82:84:71:d3:83:3a:fe:a8:a4:94:ea:b7:
                    b1:96:fb:10:65:02:c8:d2:1c:ef:5f:cf:c6:64:d9:
                    b3:55:9e:ad:bb:40:48:1d:73:1f:c8:6a:13:5b:09:
                    01:97
                Exponent: 65537 (0x10001)
        X509v3 extensions:
            X509v3 Basic Constraints: 
                CA:FALSE
            X509v3 Subject Key Identifier: 
                C6:94:7C:5D:51:9E:D4:16:94:23:13:85:7D:32:91:DC:41:36:85:44
            X509v3 Authority Key Identifier: 
                keyid:1C:A6:9F:7D:D1:8E:84:F4:DB:34:34:03:DD:10:C0:B8:84:96:A2:C9
                DirName:/CN=team400-net
                serial:47:CD:E0:1A:77:3A:10:8F:B9:26:8B:8B:40:82:FF:CF:3B:58:AA:AB
            X509v3 Extended Key Usage: 
                TLS Web Client Authentication
            X509v3 Key Usage: 
                Digital Signature
    Signature Algorithm: sha256WithRSAEncryption
    Signature Value:
        3e:6e:a4:4f:e8:7e:ff:12:18:48:fd:8d:19:98:df:18:85:7b:
        fd:a6:6b:7e:60:58:77:38:7e:d8:90:c5:d1:30:0b:55:6a:44:
        24:43:61:3d:f1:03:4c:9d:19:93:42:f8:7c:14:fc:ec:e0:bb:
        09:6d:a9:e4:ee:a8:f0:08:d1:da:bc:c9:b3:49:77:68:28:12:
        44:3b:82:de:0e:1e:89:4d:0c:ff:0f:7a:e5:7e:62:f0:14:58:
        24:56:06:e2:ac:87:19:20:8e:97:b9:c2:00:7a:b0:5c:61:30:
        f8:65:08:46:48:de:c9:5e:93:c1:ac:21:30:0f:f6:b5:38:31:
        cf:06:f1:dc:38:b8:f1:f2:45:1f:d9:d9:1a:cd:a7:e5:f5:27:
        68:30:be:1f:9b:93:70:19:33:d5:98:14:47:98:33:88:b2:03:
        05:8b:c7:18:e9:9f:8f:fb:88:21:26:14:d3:f5:29:df:9a:0f:
        ae:69:f8:fc:de:86:4c:a2:41:f2:d1:7a:b3:e6:91:a5:47:65:
        72:0e:58:85:19:73:23:68:b6:87:cb:39:4b:5d:42:f8:0d:7e:
        92:89:22:d2:1c:5b:d7:39:af:4e:ea:19:78:19:56:85:2c:4d:
        68:2c:0b:69:2e:16:0f:85:0f:36:05:ce:a6:af:85:24:63:c8:
        d9:17:72:c8
-----BEGIN CERTIFICATE-----
MIIDXDCCAkSgAwIBAgIQNuR2JesA+fudoFiYTssm1DANBgkqhkiG9w0BAQsFADAW
MRQwEgYDVQQDDAt0ZWFtNDAwLW5ldDAeFw0yMzExMDQxMTM2MzBaFw0yNjEwMTkx
MTM2MzBaMBkxFzAVBgNVBAMMDnRlYW00MDAtY2xpZW50MIIBIjANBgkqhkiG9w0B
AQEFAAOCAQ8AMIIBCgKCAQEAsqWR6jGF7vHhsyEVbJwA4LoqD/BoxuovKwP+xIIc
ZwQyEDPsxpOtCtIWiYzZ5dyT0FiIgwH/d95lJef0TO3EIQe/dehXkoG4JBsass2f
vfzVykGQVLeaL3RzI91gSqYC+qJMgvrWvnLL9Upf6kiLeTVi9YDib90KhUOyg3rA
BS3fgoJH1jIbVbOyUhQDltHJOQGhq+lix9D9SQqz9ltyN7+SvNAH8SnVFH32czKl
mK+ipHjC/stO1xU6hqO0bc8E2IH5pIYpELpZqKS/QL2b7EaOSuCChHHTgzr+qKSU
6rexlvsQZQLI0hzvX8/GZNmzVZ6tu0BIHXMfyGoTWwkBlwIDAQABo4GiMIGfMAkG
A1UdEwQCMAAwHQYDVR0OBBYEFMaUfF1RntQWlCMThX0ykdxBNoVEMFEGA1UdIwRK
MEiAFBymn33RjoT02zQ0A90QwLiElqLJoRqkGDAWMRQwEgYDVQQDDAt0ZWFtNDAw
LW5ldIIUR83gGnc6EI+5JouLQIL/zztYqqswEwYDVR0lBAwwCgYIKwYBBQUHAwIw
CwYDVR0PBAQDAgeAMA0GCSqGSIb3DQEBCwUAA4IBAQA+bqRP6H7/EhhI/Y0ZmN8Y
hXv9pmt+YFh3OH7YkMXRMAtVakQkQ2E98QNMnRmTQvh8FPzs4LsJbank7qjwCNHa
vMmzSXdoKBJEO4LeDh6JTQz/D3rlfmLwFFgkVgbirIcZII6XucIAerBcYTD4ZQhG
SN7JXpPBrCEwD/a1ODHPBvHcOLjx8kUf2dkazafl9SdoML4fm5NwGTPVmBRHmDOI
sgMFi8cY6Z+P+4ghJhTT9Snfmg+uafj83oZMokHy0Xqz5pGlR2VyDliFGXMjaLaH
yzlLXUL4DX6SiSLSHFvXOa9O6hl4GVaFLE1oLAtpLhYPhQ82Bc6mr4UkY8jZF3LI
-----END CERTIFICATE-----
