Certificate:
    Data:
        Version: 3 (0x2)
        Serial Number:
            aa:df:45:30:2d:1e:5c:a1:3e:81:8e:08:4e:27:93:83
        Signature Algorithm: sha256WithRSAEncryption
        Issuer: CN=team400-net
        Validity
            Not Before: Nov  4 10:47:52 2023 GMT
            Not After : Oct 19 10:47:52 2026 GMT
        Subject: CN=team400-server
        Subject Public Key Info:
            Public Key Algorithm: rsaEncryption
                Public-Key: (2048 bit)
                Modulus:
                    00:ab:b7:47:ca:f2:a8:50:cf:78:3f:0c:3b:d5:89:
                    1d:ef:0c:53:9c:c1:9c:f9:49:e8:0d:bb:40:d8:86:
                    fd:5b:00:0a:55:82:e9:69:d6:e1:a8:66:a1:90:c7:
                    7d:7e:b9:d7:18:f8:9c:b1:8e:bc:a5:55:ac:78:19:
                    06:58:52:6c:25:28:80:d2:8f:74:90:b9:eb:2e:fa:
                    94:4e:6e:f8:41:a6:d4:fd:54:b1:e3:0f:58:02:6e:
                    b8:c4:b2:70:07:71:cf:0d:cc:7a:c2:92:03:11:f9:
                    11:da:11:d5:05:85:87:1a:c0:a6:d0:8e:9c:38:b8:
                    b1:b9:65:be:60:7f:e2:2c:06:8b:65:51:fe:e9:9d:
                    70:f3:c1:d5:dd:46:a9:ef:a6:0d:4b:77:3c:c4:b6:
                    cd:b2:9f:ce:8a:4e:f5:f0:19:ae:f6:4c:a8:e1:7e:
                    9b:1e:c7:d8:27:54:80:2f:20:f4:ce:47:6f:12:c3:
                    a0:6b:b2:f0:1b:f2:f9:15:63:df:75:26:37:14:b4:
                    9a:aa:a3:c3:76:fb:36:a1:f8:a1:94:f9:70:0a:dd:
                    2a:0e:7d:a1:3b:35:2a:90:97:34:e1:ef:7d:b0:33:
                    41:83:16:5c:6e:e2:f3:d1:62:97:d0:8d:b4:e3:3e:
                    f7:23:ce:07:94:05:0f:91:6f:d3:0c:13:a5:99:96:
                    d9:2d
                Exponent: 65537 (0x10001)
        X509v3 extensions:
            X509v3 Basic Constraints: 
                CA:FALSE
            X509v3 Subject Key Identifier: 
                AC:3F:5E:E4:2E:23:6E:19:9D:9C:5A:CC:3E:A2:2C:CF:D6:1F:B7:27
            X509v3 Authority Key Identifier: 
                keyid:7B:45:ED:13:18:D0:8B:AB:A3:64:98:4A:0A:6F:A6:9E:89:77:EF:4C
                DirName:/CN=team400-net
                serial:67:7D:3F:E3:80:87:A6:46:4A:D1:7A:6A:B1:D7:C4:53:C3:60:E2:F3
            X509v3 Extended Key Usage: 
                TLS Web Server Authentication
            X509v3 Key Usage: 
                Digital Signature, Key Encipherment
            X509v3 Subject Alternative Name: 
                DNS:team400-server
    Signature Algorithm: sha256WithRSAEncryption
    Signature Value:
        4b:92:14:31:90:42:a2:8f:0d:1a:87:39:c3:79:66:aa:dd:59:
        56:33:d8:78:11:6a:91:36:bb:55:4b:79:bd:66:10:59:1b:c4:
        e9:27:a4:81:51:2d:b8:61:22:e4:2f:1d:d6:d2:ff:9f:e8:b6:
        44:e9:40:19:59:1f:88:16:67:17:60:b7:40:0b:66:96:b5:c3:
        9e:ff:49:1d:80:45:2b:fc:41:29:0c:59:3a:7f:a3:46:b4:6d:
        47:74:22:d4:3f:4c:83:10:4a:07:9c:b2:84:ad:60:73:3e:af:
        ba:8f:b1:a1:a6:86:23:85:cb:f9:69:38:c9:69:0c:c4:fe:5d:
        d8:16:2c:52:76:a6:d1:6b:42:64:a5:42:70:a9:c1:0e:00:77:
        f8:01:e6:f5:58:47:94:3c:e6:c6:ef:ed:40:9f:87:8c:46:25:
        f1:84:21:65:c2:db:07:28:ef:66:e7:a5:18:f2:fd:e9:c2:87:
        ad:7a:d1:9c:f7:9f:45:1e:14:5a:30:ee:93:b5:ec:f7:ee:50:
        f5:9c:a9:ea:87:3c:5f:0f:5f:31:57:61:6c:df:af:b7:d7:36:
        db:d1:c6:1b:ad:15:10:5c:f6:14:f6:4d:7a:8f:82:bb:0c:f2:
        6d:c9:39:d2:e5:23:a8:c6:26:34:68:0b:40:c9:c9:f3:91:6f:
        0f:b1:c2:9c
-----BEGIN CERTIFICATE-----
MIIDeDCCAmCgAwIBAgIRAKrfRTAtHlyhPoGOCE4nk4MwDQYJKoZIhvcNAQELBQAw
FjEUMBIGA1UEAwwLdGVhbTQwMC1uZXQwHhcNMjMxMTA0MTA0NzUyWhcNMjYxMDE5
MTA0NzUyWjAZMRcwFQYDVQQDDA50ZWFtNDAwLXNlcnZlcjCCASIwDQYJKoZIhvcN
AQEBBQADggEPADCCAQoCggEBAKu3R8ryqFDPeD8MO9WJHe8MU5zBnPlJ6A27QNiG
/VsAClWC6WnW4ahmoZDHfX651xj4nLGOvKVVrHgZBlhSbCUogNKPdJC56y76lE5u
+EGm1P1UseMPWAJuuMSycAdxzw3MesKSAxH5EdoR1QWFhxrAptCOnDi4sbllvmB/
4iwGi2VR/umdcPPB1d1Gqe+mDUt3PMS2zbKfzopO9fAZrvZMqOF+mx7H2CdUgC8g
9M5HbxLDoGuy8Bvy+RVj33UmNxS0mqqjw3b7NqH4oZT5cArdKg59oTs1KpCXNOHv
fbAzQYMWXG7i89Fil9CNtOM+9yPOB5QFD5Fv0wwTpZmW2S0CAwEAAaOBvTCBujAJ
BgNVHRMEAjAAMB0GA1UdDgQWBBSsP17kLiNuGZ2cWsw+oizP1h+3JzBRBgNVHSME
SjBIgBR7Re0TGNCLq6NkmEoKb6aeiXfvTKEapBgwFjEUMBIGA1UEAwwLdGVhbTQw
MC1uZXSCFGd9P+OAh6ZGStF6arHXxFPDYOLzMBMGA1UdJQQMMAoGCCsGAQUFBwMB
MAsGA1UdDwQEAwIFoDAZBgNVHREEEjAQgg50ZWFtNDAwLXNlcnZlcjANBgkqhkiG
9w0BAQsFAAOCAQEAS5IUMZBCoo8NGoc5w3lmqt1ZVjPYeBFqkTa7VUt5vWYQWRvE
6SekgVEtuGEi5C8d1tL/n+i2ROlAGVkfiBZnF2C3QAtmlrXDnv9JHYBFK/xBKQxZ
On+jRrRtR3Qi1D9MgxBKB5yyhK1gcz6vuo+xoaaGI4XL+Wk4yWkMxP5d2BYsUnam
0WtCZKVCcKnBDgB3+AHm9VhHlDzmxu/tQJ+HjEYl8YQhZcLbByjvZuelGPL96cKH
rXrRnPefRR4UWjDuk7Xs9+5Q9Zyp6oc8Xw9fMVdhbN+vt9c229HGG60VEFz2FPZN
eo+Cuwzybck50uUjqMYmNGgLQMnJ85FvD7HCnA==
-----END CERTIFICATE-----
