Certificate:
    Data:
        Version: 3 (0x2)
        Serial Number:
            ab:6b:fb:00:2e:e8:d3:51:aa:d5:0c:36:d8:f5:5d:53
        Signature Algorithm: sha256WithRSAEncryption
        Issuer: CN=team400-net
        Validity
            Not Before: Nov  4 11:36:31 2023 GMT
            Not After : Oct 19 11:36:31 2026 GMT
        Subject: CN=team400-server
        Subject Public Key Info:
            Public Key Algorithm: rsaEncryption
                Public-Key: (2048 bit)
                Modulus:
                    00:ab:f5:ca:16:ac:57:e7:f0:48:f2:d3:fd:7a:a7:
                    1d:49:42:c9:58:06:99:db:0b:3b:ab:4f:a2:a5:bb:
                    a1:90:a2:29:2c:43:41:9d:6c:90:7d:3b:58:ad:e5:
                    b4:8d:d0:c1:3f:e8:8b:90:26:3d:f9:d1:cd:b6:42:
                    21:bc:d0:cd:41:70:e9:12:7c:b0:d5:b8:4b:59:3f:
                    f3:1a:68:d8:e3:2c:c8:98:04:e4:8c:09:2e:eb:ef:
                    f3:c8:ce:e8:7d:d9:f6:91:9c:63:37:c2:9c:cb:32:
                    7e:dc:db:ee:29:40:3a:20:1b:bc:7e:f3:c3:fa:03:
                    2e:ae:7e:74:ea:da:67:8f:80:48:95:a4:a9:6b:45:
                    0e:57:b0:ee:5a:b8:13:a7:e8:43:ec:c2:6f:81:69:
                    db:e3:20:55:35:94:5b:14:45:75:11:0b:ce:bc:04:
                    f5:73:8d:d7:e7:61:18:38:f6:87:dd:f4:72:8f:c1:
                    7c:ca:61:60:dc:2c:38:4c:d2:6d:90:2e:08:37:12:
                    d4:9a:cb:99:6e:03:d3:9d:24:e6:be:7f:1b:1b:a4:
                    e6:3b:4a:d3:6d:89:4b:37:d8:91:f7:ba:ba:28:f5:
                    7b:a3:92:a5:47:6f:c1:50:fd:e2:da:8a:2e:6f:57:
                    7e:2c:f1:7e:5d:68:cb:97:64:1d:82:56:4a:d3:95:
                    16:b9
                Exponent: 65537 (0x10001)
        X509v3 extensions:
            X509v3 Basic Constraints: 
                CA:FALSE
            X509v3 Subject Key Identifier: 
                57:89:F1:B5:3A:65:57:CD:36:5A:B5:48:52:7C:68:5E:2D:AE:26:32
            X509v3 Authority Key Identifier: 
                keyid:1C:A6:9F:7D:D1:8E:84:F4:DB:34:34:03:DD:10:C0:B8:84:96:A2:C9
                DirName:/CN=team400-net
                serial:47:CD:E0:1A:77:3A:10:8F:B9:26:8B:8B:40:82:FF:CF:3B:58:AA:AB
            X509v3 Extended Key Usage: 
                TLS Web Server Authentication
            X509v3 Key Usage: 
                Digital Signature, Key Encipherment
            X509v3 Subject Alternative Name: 
                DNS:team400-server
    Signature Algorithm: sha256WithRSAEncryption
    Signature Value:
        55:56:3a:38:56:a5:83:32:9f:a9:f4:3e:38:de:f1:b3:5f:97:
        59:30:a9:f8:8d:a1:b8:a3:61:a5:68:e1:c7:7e:99:c5:b2:2e:
        6b:71:ff:25:31:63:78:0a:c7:34:16:7b:a3:68:20:ee:28:f0:
        20:62:53:f6:5b:1b:70:84:61:b3:b9:a5:cc:91:8f:14:93:16:
        41:e8:1c:55:e1:09:66:b3:fe:8e:32:b3:6c:23:ad:84:7f:07:
        5b:d1:5e:ac:23:ed:98:27:c9:9d:c2:71:c3:b2:f2:3b:3c:a8:
        25:a6:3d:ba:34:c5:50:97:20:1d:0c:1e:e6:b0:1c:e8:2e:18:
        f6:19:06:eb:0f:13:22:61:20:bb:b7:02:08:80:72:47:cc:d2:
        fd:2c:a0:58:c0:05:d2:33:b0:23:d8:67:0c:d7:9e:11:b6:2a:
        89:06:57:8a:c5:cb:52:42:b9:d1:ab:ba:f0:f1:da:48:d6:98:
        5a:16:ae:ff:5b:33:9d:da:78:26:33:ea:4f:81:2c:b3:11:f7:
        58:9a:f0:93:07:2a:66:37:57:8a:1b:09:0b:0d:14:fa:18:52:
        25:7d:83:62:d6:23:8d:3f:4b:0c:54:75:2d:fb:b8:c2:ba:f3:
        a2:37:3e:25:71:be:75:74:d2:c9:50:74:d8:31:f9:2c:36:3e:
        ee:8f:b1:8a
-----BEGIN CERTIFICATE-----
MIIDeDCCAmCgAwIBAgIRAKtr+wAu6NNRqtUMNtj1XVMwDQYJKoZIhvcNAQELBQAw
FjEUMBIGA1UEAwwLdGVhbTQwMC1uZXQwHhcNMjMxMTA0MTEzNjMxWhcNMjYxMDE5
MTEzNjMxWjAZMRcwFQYDVQQDDA50ZWFtNDAwLXNlcnZlcjCCASIwDQYJKoZIhvcN
AQEBBQADggEPADCCAQoCggEBAKv1yhasV+fwSPLT/XqnHUlCyVgGmdsLO6tPoqW7
oZCiKSxDQZ1skH07WK3ltI3QwT/oi5AmPfnRzbZCIbzQzUFw6RJ8sNW4S1k/8xpo
2OMsyJgE5IwJLuvv88jO6H3Z9pGcYzfCnMsyftzb7ilAOiAbvH7zw/oDLq5+dOra
Z4+ASJWkqWtFDlew7lq4E6foQ+zCb4Fp2+MgVTWUWxRFdRELzrwE9XON1+dhGDj2
h930co/BfMphYNwsOEzSbZAuCDcS1JrLmW4D050k5r5/Gxuk5jtK022JSzfYkfe6
uij1e6OSpUdvwVD94tqKLm9Xfizxfl1oy5dkHYJWStOVFrkCAwEAAaOBvTCBujAJ
BgNVHRMEAjAAMB0GA1UdDgQWBBRXifG1OmVXzTZatUhSfGheLa4mMjBRBgNVHSME
SjBIgBQcpp990Y6E9Ns0NAPdEMC4hJaiyaEapBgwFjEUMBIGA1UEAwwLdGVhbTQw
MC1uZXSCFEfN4Bp3OhCPuSaLi0CC/887WKqrMBMGA1UdJQQMMAoGCCsGAQUFBwMB
MAsGA1UdDwQEAwIFoDAZBgNVHREEEjAQgg50ZWFtNDAwLXNlcnZlcjANBgkqhkiG
9w0BAQsFAAOCAQEAVVY6OFalgzKfqfQ+ON7xs1+XWTCp+I2huKNhpWjhx36ZxbIu
a3H/JTFjeArHNBZ7o2gg7ijwIGJT9lsbcIRhs7mlzJGPFJMWQegcVeEJZrP+jjKz
bCOthH8HW9FerCPtmCfJncJxw7LyOzyoJaY9ujTFUJcgHQwe5rAc6C4Y9hkG6w8T
ImEgu7cCCIByR8zS/SygWMAF0jOwI9hnDNeeEbYqiQZXisXLUkK50au68PHaSNaY
Whau/1szndp4JjPqT4EssxH3WJrwkwcqZjdXihsJCw0U+hhSJX2DYtYjjT9LDFR1
Lfu4wrrzojc+JXG+dXTSyVB02DH5LDY+7o+xig==
-----END CERTIFICATE-----
