Certificate:
    Data:
        Version: 3 (0x2)
        Serial Number:
            08:fd:73:96:6a:2c:d6:8e:ef:6f:d6:c9:1b:a1:34:20
        Signature Algorithm: sha256WithRSAEncryption
        Issuer: CN=team391-net
        Validity
            Not Before: Nov  4 11:36:17 2023 GMT
            Not After : Oct 19 11:36:17 2026 GMT
        Subject: CN=team391-server
        Subject Public Key Info:
            Public Key Algorithm: rsaEncryption
                Public-Key: (2048 bit)
                Modulus:
                    00:d0:ee:7a:0f:e5:2e:9d:23:15:d9:d2:85:94:69:
                    d5:63:78:46:1e:0a:c9:4f:e7:80:4d:54:56:54:d5:
                    80:4a:1c:0c:04:b9:64:f2:70:c3:c8:25:dc:4f:7f:
                    ef:2c:b0:c1:2b:67:05:81:2a:d7:05:3e:56:39:0c:
                    eb:26:d9:ad:6e:cf:f9:52:1e:db:37:64:68:fc:43:
                    dc:0b:63:10:8c:af:a0:70:cf:2f:c0:ea:11:6c:98:
                    db:04:c3:43:86:b6:6b:c6:5e:51:62:d8:47:e8:44:
                    62:00:df:78:44:00:73:a2:cf:d9:e5:e1:d0:19:77:
                    75:aa:36:59:5d:33:ca:f3:90:a1:cf:c0:f9:92:cb:
                    e0:64:f4:19:b2:44:2c:31:38:1c:d9:d8:0a:f6:0f:
                    9c:37:a7:3e:52:93:85:4b:88:c5:04:3d:bc:16:ab:
                    6f:d6:ed:0f:54:14:47:7c:d9:14:7f:ae:bb:69:89:
                    39:f1:f0:1b:d3:b6:05:51:43:fd:85:33:fa:c5:bb:
                    4f:2a:bc:31:e5:17:04:94:0b:05:ba:a9:58:90:1e:
                    9e:57:f6:27:ff:a2:95:b2:80:25:9e:65:ff:38:a4:
                    6a:1e:18:dd:35:c3:ad:ca:22:aa:d2:3d:b0:17:25:
                    27:4d:4e:e5:b9:57:c6:0a:85:f7:e9:3f:44:02:00:
                    d0:7f
                Exponent: 65537 (0x10001)
        X509v3 extensions:
            X509v3 Basic Constraints: 
                CA:FALSE
            X509v3 Subject Key Identifier: 
                06:F5:E0:73:FD:B7:82:66:1A:C3:67:C7:BC:5E:7B:7E:8C:7F:08:28
            X509v3 Authority Key Identifier: 
                keyid:A4:D8:20:4E:C3:98:C3:80:A8:09:1F:BE:AC:1A:D2:62:03:DC:02:64
                DirName:/CN=team391-net
                serial:39:1E:1B:BE:C5:EF:80:F1:25:71:B2:B8:E0:C4:C3:13:84:F4:42:38
            X509v3 Extended Key Usage: 
                TLS Web Server Authentication
            X509v3 Key Usage: 
                Digital Signature, Key Encipherment
            X509v3 Subject Alternative Name: 
                DNS:team391-server
    Signature Algorithm: sha256WithRSAEncryption
    Signature Value:
        8e:c3:48:db:51:0e:16:6c:fd:a3:6b:23:df:10:93:97:9b:53:
        a4:e4:11:f5:e3:8a:fb:ad:f1:b6:6f:4f:48:c9:35:5b:5e:57:
        23:ca:0f:73:3a:f5:44:e8:90:48:dd:79:76:2c:5f:e2:ca:e6:
        fd:b6:bb:9f:8d:3a:5c:0a:80:3d:c9:cc:f4:0f:52:14:53:e2:
        b5:e1:67:ce:02:bc:4c:3f:e5:d0:47:15:4a:30:76:60:fb:4f:
        26:f5:61:13:d9:f9:38:65:30:55:d8:be:cf:95:e9:28:5c:4e:
        b9:4c:4b:99:94:39:8f:a6:ea:f3:9e:8a:67:f8:dd:3b:65:2c:
        15:2d:be:ad:02:c2:96:f6:d5:f8:81:9d:43:90:3e:38:42:d1:
        d1:b6:0c:2f:4a:ae:6e:1a:5a:7e:eb:7c:3c:72:7c:9c:5b:14:
        2c:4d:95:e9:e5:24:d2:f8:42:c6:5f:2a:cf:77:8e:5c:0c:7e:
        74:85:71:47:3c:43:1c:cc:fb:f8:e2:2f:e3:28:05:ff:86:e5:
        de:83:9f:49:50:68:1b:76:2b:80:a8:fc:d2:bf:fa:25:71:c4:
        60:02:44:ca:65:5d:de:ad:ec:96:f4:ab:c1:6d:81:ce:83:81:
        d3:9a:b5:b4:1b:ae:c9:f2:9e:e8:e1:e6:58:51:0e:c3:76:10:
        77:fe:af:da
-----BEGIN CERTIFICATE-----
MIIDdzCCAl+gAwIBAgIQCP1zlmos1o7vb9bJG6E0IDANBgkqhkiG9w0BAQsFADAW
MRQwEgYDVQQDDAt0ZWFtMzkxLW5ldDAeFw0yMzExMDQxMTM2MTdaFw0yNjEwMTkx
MTM2MTdaMBkxFzAVBgNVBAMMDnRlYW0zOTEtc2VydmVyMIIBIjANBgkqhkiG9w0B
AQEFAAOCAQ8AMIIBCgKCAQEA0O56D+UunSMV2dKFlGnVY3hGHgrJT+eATVRWVNWA
ShwMBLlk8nDDyCXcT3/vLLDBK2cFgSrXBT5WOQzrJtmtbs/5Uh7bN2Ro/EPcC2MQ
jK+gcM8vwOoRbJjbBMNDhrZrxl5RYthH6ERiAN94RABzos/Z5eHQGXd1qjZZXTPK
85Chz8D5ksvgZPQZskQsMTgc2dgK9g+cN6c+UpOFS4jFBD28Fqtv1u0PVBRHfNkU
f667aYk58fAb07YFUUP9hTP6xbtPKrwx5RcElAsFuqlYkB6eV/Yn/6KVsoAlnmX/
OKRqHhjdNcOtyiKq0j2wFyUnTU7luVfGCoX36T9EAgDQfwIDAQABo4G9MIG6MAkG
A1UdEwQCMAAwHQYDVR0OBBYEFAb14HP9t4JmGsNnx7xee36MfwgoMFEGA1UdIwRK
MEiAFKTYIE7DmMOAqAkfvqwa0mID3AJkoRqkGDAWMRQwEgYDVQQDDAt0ZWFtMzkx
LW5ldIIUOR4bvsXvgPElcbK44MTDE4T0QjgwEwYDVR0lBAwwCgYIKwYBBQUHAwEw
CwYDVR0PBAQDAgWgMBkGA1UdEQQSMBCCDnRlYW0zOTEtc2VydmVyMA0GCSqGSIb3
DQEBCwUAA4IBAQCOw0jbUQ4WbP2jayPfEJOXm1Ok5BH144r7rfG2b09IyTVbXlcj
yg9zOvVE6JBI3Xl2LF/iyub9trufjTpcCoA9ycz0D1IUU+K14WfOArxMP+XQRxVK
MHZg+08m9WET2fk4ZTBV2L7PlekoXE65TEuZlDmPpurznopn+N07ZSwVLb6tAsKW
9tX4gZ1DkD44QtHRtgwvSq5uGlp+63w8cnycWxQsTZXp5STS+ELGXyrPd45cDH50
hXFHPEMczPv44i/jKAX/huXeg59JUGgbdiuAqPzSv/olccRgAkTKZV3ereyW9KvB
bYHOg4HTmrW0G67J8p7o4eZYUQ7DdhB3/q/a
-----END CERTIFICATE-----
