Certificate:
    Data:
        Version: 3 (0x2)
        Serial Number:
            1b:54:7e:88:ee:8a:6f:e3:e4:5b:90:01:9a:2a:01:e0
        Signature Algorithm: sha256WithRSAEncryption
        Issuer: CN=team391-net
        Validity
            Not Before: Nov  4 11:36:17 2023 GMT
            Not After : Oct 19 11:36:17 2026 GMT
        Subject: CN=team391-client
        Subject Public Key Info:
            Public Key Algorithm: rsaEncryption
                Public-Key: (2048 bit)
                Modulus:
                    00:b1:1a:af:3f:68:24:5a:62:50:02:95:02:b1:a7:
                    a8:fb:92:0e:34:13:ee:b7:66:84:36:44:63:b3:6b:
                    24:36:62:ce:83:58:d2:30:3d:ad:21:b5:aa:40:56:
                    b0:de:12:f4:03:e5:54:6f:e0:11:3f:2d:b6:6f:60:
                    e3:78:b5:48:a3:ac:92:4e:9e:cb:cd:b8:2f:2b:94:
                    82:89:bb:47:e2:fc:59:c1:ec:d5:58:0f:14:09:8d:
                    4f:f5:48:65:68:1c:dd:7f:57:3b:86:17:57:63:50:
                    fe:a3:8f:41:38:6c:ff:60:79:c4:d9:04:10:fe:b0:
                    22:80:d2:50:8c:99:11:b7:73:22:f8:e0:bb:07:7b:
                    75:3b:df:bf:d3:0c:4d:82:96:2c:70:d8:93:aa:d3:
                    09:e7:13:02:77:c8:66:a9:81:ef:cf:52:0e:95:d1:
                    66:cc:64:40:42:a1:2e:28:2a:71:5d:1f:de:3d:bc:
                    7f:95:71:53:a3:f2:8b:e1:0a:40:14:1a:d2:56:94:
                    a0:bf:d8:43:e1:b5:dc:d2:7a:d0:41:84:d4:5d:77:
                    8d:66:a4:00:0f:b3:3b:a6:0f:10:04:a6:6c:56:ef:
                    8b:49:80:72:31:bf:ae:15:31:4c:65:d9:f5:41:64:
                    d7:b1:15:d9:34:7b:99:76:c8:05:11:48:af:54:89:
                    ae:63
                Exponent: 65537 (0x10001)
        X509v3 extensions:
            X509v3 Basic Constraints: 
                CA:FALSE
            X509v3 Subject Key Identifier: 
                CC:1C:FA:36:E6:75:81:DF:BD:57:74:C6:10:E4:8C:27:31:6A:FD:53
            X509v3 Authority Key Identifier: 
                keyid:A4:D8:20:4E:C3:98:C3:80:A8:09:1F:BE:AC:1A:D2:62:03:DC:02:64
                DirName:/CN=team391-net
                serial:39:1E:1B:BE:C5:EF:80:F1:25:71:B2:B8:E0:C4:C3:13:84:F4:42:38
            X509v3 Extended Key Usage: 
                TLS Web Client Authentication
            X509v3 Key Usage: 
                Digital Signature
    Signature Algorithm: sha256WithRSAEncryption
    Signature Value:
        4f:1c:f5:c6:1e:cf:35:65:f0:bc:82:18:d9:0c:39:eb:d9:55:
        34:ad:f8:34:7c:7b:36:99:1c:3b:44:b9:e3:1b:b5:b3:67:40:
        37:ba:62:70:b9:85:3b:9a:b8:2c:08:3a:9f:dc:9c:df:5d:50:
        f3:9f:07:04:e5:7b:64:37:ac:a2:91:97:ef:da:ce:2e:0a:8a:
        d6:cc:81:73:7b:25:46:b0:b3:cc:2d:f9:78:c6:94:10:60:fa:
        3b:4a:46:a2:69:17:d2:b4:93:dc:e9:60:56:fb:c7:1c:b9:29:
        73:26:cd:ad:da:4d:0e:dd:b0:f3:c0:85:4c:63:65:a6:d2:1e:
        18:21:9f:81:d5:16:fd:75:29:5d:fd:70:ce:b7:b1:eb:d2:3f:
        3e:60:73:21:35:2e:07:e2:7e:e6:c0:12:26:d6:29:dd:aa:ce:
        29:a9:c8:63:37:5d:0f:33:ec:5d:5a:6b:b8:b0:05:40:28:c7:
        0f:86:97:12:36:c3:f7:5a:ef:eb:37:2c:d0:21:77:da:21:df:
        a2:33:6e:02:b2:86:79:4a:59:fb:2a:1c:ba:28:a8:fd:36:45:
        8c:6b:57:34:70:66:de:00:05:eb:39:78:a1:1b:bf:bb:f3:f4:
        9c:e0:1f:ea:0b:f8:98:ed:eb:88:66:b6:d5:88:27:6b:48:f8:
        c7:7f:c3:02
-----BEGIN CERTIFICATE-----
MIIDXDCCAkSgAwIBAgIQG1R+iO6Kb+PkW5ABmioB4DANBgkqhkiG9w0BAQsFADAW
MRQwEgYDVQQDDAt0ZWFtMzkxLW5ldDAeFw0yMzExMDQxMTM2MTdaFw0yNjEwMTkx
MTM2MTdaMBkxFzAVBgNVBAMMDnRlYW0zOTEtY2xpZW50MIIBIjANBgkqhkiG9w0B
AQEFAAOCAQ8AMIIBCgKCAQEAsRqvP2gkWmJQApUCsaeo+5IONBPut2aENkRjs2sk
NmLOg1jSMD2tIbWqQFaw3hL0A+VUb+ARPy22b2DjeLVIo6ySTp7LzbgvK5SCibtH
4vxZwezVWA8UCY1P9UhlaBzdf1c7hhdXY1D+o49BOGz/YHnE2QQQ/rAigNJQjJkR
t3Mi+OC7B3t1O9+/0wxNgpYscNiTqtMJ5xMCd8hmqYHvz1IOldFmzGRAQqEuKCpx
XR/ePbx/lXFTo/KL4QpAFBrSVpSgv9hD4bXc0nrQQYTUXXeNZqQAD7M7pg8QBKZs
Vu+LSYByMb+uFTFMZdn1QWTXsRXZNHuZdsgFEUivVImuYwIDAQABo4GiMIGfMAkG
A1UdEwQCMAAwHQYDVR0OBBYEFMwc+jbmdYHfvVd0xhDkjCcxav1TMFEGA1UdIwRK
MEiAFKTYIE7DmMOAqAkfvqwa0mID3AJkoRqkGDAWMRQwEgYDVQQDDAt0ZWFtMzkx
LW5ldIIUOR4bvsXvgPElcbK44MTDE4T0QjgwEwYDVR0lBAwwCgYIKwYBBQUHAwIw
CwYDVR0PBAQDAgeAMA0GCSqGSIb3DQEBCwUAA4IBAQBPHPXGHs81ZfC8ghjZDDnr
2VU0rfg0fHs2mRw7RLnjG7WzZ0A3umJwuYU7mrgsCDqf3JzfXVDznwcE5XtkN6yi
kZfv2s4uCorWzIFzeyVGsLPMLfl4xpQQYPo7SkaiaRfStJPc6WBW+8ccuSlzJs2t
2k0O3bDzwIVMY2Wm0h4YIZ+B1Rb9dSld/XDOt7Hr0j8+YHMhNS4H4n7mwBIm1ind
qs4pqchjN10PM+xdWmu4sAVAKMcPhpcSNsP3Wu/rNyzQIXfaId+iM24CsoZ5Sln7
Khy6KKj9NkWMa1c0cGbeAAXrOXihG7+78/Sc4B/qC/iY7euIZrbViCdrSPjHf8MC
-----END CERTIFICATE-----
