Certificate:
    Data:
        Version: 3 (0x2)
        Serial Number:
            8a:91:99:25:e5:ef:fc:a4:b1:ad:05:fb:8f:48:75:ce
        Signature Algorithm: sha256WithRSAEncryption
        Issuer: CN=team391-net
        Validity
            Not Before: Nov  4 10:47:42 2023 GMT
            Not After : Oct 19 10:47:42 2026 GMT
        Subject: CN=team391-client
        Subject Public Key Info:
            Public Key Algorithm: rsaEncryption
                Public-Key: (2048 bit)
                Modulus:
                    00:b2:4d:38:63:bd:ed:83:89:ac:98:ca:38:59:46:
                    24:22:37:79:cc:44:13:d9:d6:e8:1a:dc:a3:a2:df:
                    98:57:8a:c8:f5:7b:6f:9f:35:06:94:34:2d:3f:b4:
                    1f:15:a7:64:d6:7d:85:50:1d:2e:22:6a:de:12:0d:
                    90:3b:7f:7f:49:fe:67:d5:73:1d:30:50:f2:f2:aa:
                    c4:72:2f:26:0f:20:44:35:1d:14:a0:ed:fb:9f:cf:
                    99:84:4d:6e:3e:84:d4:35:70:ed:47:01:c8:3c:bd:
                    6e:44:7a:22:66:31:2c:1f:1b:1c:ee:72:f3:37:65:
                    ff:ad:92:5c:d2:3f:d5:c7:ac:0d:60:93:9a:b0:3e:
                    9b:73:a2:89:cb:60:a7:4d:0c:99:94:ff:24:4c:31:
                    d5:ac:ce:54:50:ad:de:73:ce:eb:4f:10:c4:47:2e:
                    7c:24:d7:46:3b:06:4a:50:3e:eb:9d:0f:ae:95:9b:
                    6d:96:a1:e8:cd:6b:b6:60:c5:92:82:39:e4:60:55:
                    b9:c5:5e:6e:0d:09:aa:52:a8:b0:38:2d:63:9c:fe:
                    e8:e5:24:29:93:8f:ae:88:06:17:2f:20:59:f2:81:
                    10:02:03:71:d2:f7:ee:19:c5:0f:88:03:98:3b:9a:
                    fa:67:21:0d:c8:b1:fd:04:96:09:62:7f:5a:85:f0:
                    81:17
                Exponent: 65537 (0x10001)
        X509v3 extensions:
            X509v3 Basic Constraints: 
                CA:FALSE
            X509v3 Subject Key Identifier: 
                DE:B8:F4:82:34:8F:18:03:88:ED:FE:8F:A5:98:19:E2:14:CC:6F:BC
            X509v3 Authority Key Identifier: 
                keyid:A7:9B:1B:0D:6A:8F:F8:BE:8A:F1:D3:10:24:41:CE:F0:3F:F6:91:BA
                DirName:/CN=team391-net
                serial:12:CE:B9:76:D7:06:96:3E:FA:3E:43:38:5C:98:9C:DA:21:B6:24:B1
            X509v3 Extended Key Usage: 
                TLS Web Client Authentication
            X509v3 Key Usage: 
                Digital Signature
    Signature Algorithm: sha256WithRSAEncryption
    Signature Value:
        3a:d8:58:ff:ce:41:cb:73:f9:8d:27:11:8d:b5:92:3a:65:74:
        48:c5:d9:d6:90:55:05:50:7b:f3:49:09:50:ea:96:4f:ec:43:
        9c:49:8c:42:97:9e:49:01:9a:cf:4f:99:f0:4c:2e:fb:29:e9:
        84:31:77:6e:26:d3:bb:55:66:86:73:1d:ac:2e:3a:96:be:91:
        5d:fb:78:80:21:7e:49:41:0d:88:3f:b4:a6:30:d7:14:5e:b1:
        1e:77:98:2f:70:a2:49:34:b4:90:3c:2b:70:4e:cd:0f:e8:2d:
        f6:c9:d9:1c:46:ce:0b:fe:eb:b8:75:b9:1c:49:3c:07:88:d0:
        6a:39:32:30:95:45:ef:68:97:05:61:92:96:bd:98:84:23:49:
        94:05:d7:b5:37:66:3c:ff:af:a0:0b:0e:fe:50:df:fd:59:6c:
        84:1b:79:f9:5d:7d:12:4a:2e:28:03:04:c6:a1:c6:4d:89:d3:
        14:cf:cf:c5:93:03:1b:bd:85:06:53:c3:39:b1:68:f8:e6:ba:
        cb:5e:25:fe:78:2e:ec:62:ab:c3:26:57:0b:14:92:18:2b:5d:
        aa:52:e8:6d:bb:07:9e:89:5a:eb:20:43:da:9f:7a:84:16:46:
        65:29:24:35:99:c5:f4:be:c4:af:97:c2:dc:72:8a:78:21:fe:
        34:9e:46:41
-----BEGIN CERTIFICATE-----
MIIDXTCCAkWgAwIBAgIRAIqRmSXl7/yksa0F+49Idc4wDQYJKoZIhvcNAQELBQAw
FjEUMBIGA1UEAwwLdGVhbTM5MS1uZXQwHhcNMjMxMTA0MTA0NzQyWhcNMjYxMDE5
MTA0NzQyWjAZMRcwFQYDVQQDDA50ZWFtMzkxLWNsaWVudDCCASIwDQYJKoZIhvcN
AQEBBQADggEPADCCAQoCggEBALJNOGO97YOJrJjKOFlGJCI3ecxEE9nW6Brco6Lf
mFeKyPV7b581BpQ0LT+0HxWnZNZ9hVAdLiJq3hINkDt/f0n+Z9VzHTBQ8vKqxHIv
Jg8gRDUdFKDt+5/PmYRNbj6E1DVw7UcByDy9bkR6ImYxLB8bHO5y8zdl/62SXNI/
1cesDWCTmrA+m3Oiictgp00MmZT/JEwx1azOVFCt3nPO608QxEcufCTXRjsGSlA+
650PrpWbbZah6M1rtmDFkoI55GBVucVebg0JqlKosDgtY5z+6OUkKZOProgGFy8g
WfKBEAIDcdL37hnFD4gDmDua+mchDcix/QSWCWJ/WoXwgRcCAwEAAaOBojCBnzAJ
BgNVHRMEAjAAMB0GA1UdDgQWBBTeuPSCNI8YA4jt/o+lmBniFMxvvDBRBgNVHSME
SjBIgBSnmxsNao/4vorx0xAkQc7wP/aRuqEapBgwFjEUMBIGA1UEAwwLdGVhbTM5
MS1uZXSCFBLOuXbXBpY++j5DOFyYnNohtiSxMBMGA1UdJQQMMAoGCCsGAQUFBwMC
MAsGA1UdDwQEAwIHgDANBgkqhkiG9w0BAQsFAAOCAQEAOthY/85By3P5jScRjbWS
OmV0SMXZ1pBVBVB780kJUOqWT+xDnEmMQpeeSQGaz0+Z8Ewu+ynphDF3bibTu1Vm
hnMdrC46lr6RXft4gCF+SUENiD+0pjDXFF6xHneYL3CiSTS0kDwrcE7ND+gt9snZ
HEbOC/7ruHW5HEk8B4jQajkyMJVF72iXBWGSlr2YhCNJlAXXtTdmPP+voAsO/lDf
/VlshBt5+V19EkouKAMExqHGTYnTFM/PxZMDG72FBlPDObFo+Oa6y14l/ngu7GKr
wyZXCxSSGCtdqlLobbsHnola6yBD2p96hBZGZSkkNZnF9L7Er5fC3HKKeCH+NJ5G
QQ==
-----END CERTIFICATE-----
