Certificate:
    Data:
        Version: 3 (0x2)
        Serial Number:
            9b:00:55:65:48:8f:68:ac:8d:2a:76:5e:00:2e:0f:4b
        Signature Algorithm: sha256WithRSAEncryption
        Issuer: CN=team391-net
        Validity
            Not Before: Nov  3 20:46:18 2023 GMT
            Not After : Oct 18 20:46:18 2026 GMT
        Subject: CN=team391-client
        Subject Public Key Info:
            Public Key Algorithm: rsaEncryption
                Public-Key: (2048 bit)
                Modulus:
                    00:d5:c5:6b:42:2c:9f:e4:c3:ca:52:dc:ef:f6:1a:
                    9d:e4:68:c5:3d:49:fb:6e:98:a7:7c:9b:02:33:00:
                    9d:c4:e1:55:72:ff:c3:81:07:f9:92:ed:eb:9a:d0:
                    7d:8e:ba:31:5a:4d:b9:3a:44:9d:36:61:35:21:07:
                    3b:e7:da:d5:fa:79:96:1b:9c:43:4f:3a:d1:ee:28:
                    5d:38:02:40:35:72:09:44:eb:c9:5c:b6:c4:1c:c8:
                    aa:0a:c4:6d:15:6e:98:71:e3:2c:80:08:d8:1b:b5:
                    fe:58:25:0e:f0:44:77:56:08:93:4b:ba:a3:a5:06:
                    4c:f6:14:06:ad:2f:61:db:02:e0:b3:07:c3:73:66:
                    7e:ff:b6:49:db:fe:fa:5d:6d:11:20:f6:52:3d:b8:
                    f8:fb:d8:cc:fe:a8:8a:c1:a8:81:d9:7d:7a:11:46:
                    ca:b9:7c:08:11:ac:60:a4:56:c3:a1:ca:0a:a1:d4:
                    26:a4:98:7c:4b:12:66:87:a6:c1:cd:e4:e0:ee:ad:
                    0c:8b:47:28:68:b2:17:ad:e1:7c:ba:74:c5:f8:59:
                    35:21:1b:4c:88:f5:a4:34:2a:10:4a:a0:5d:62:a2:
                    4b:eb:c1:d3:9a:95:d5:9b:e8:a8:81:ab:a4:1a:04:
                    e3:a8:cf:df:d0:a9:ee:ef:04:f0:ce:3f:14:13:ec:
                    20:a1
                Exponent: 65537 (0x10001)
        X509v3 extensions:
            X509v3 Basic Constraints: 
                CA:FALSE
            X509v3 Subject Key Identifier: 
                8F:D6:74:74:91:89:FE:EA:A6:EA:6D:C7:F5:86:FF:FD:B7:BE:59:78
            X509v3 Authority Key Identifier: 
                keyid:3F:A0:42:64:77:C4:6F:F2:B1:7B:50:80:56:08:17:56:47:ED:60:AC
                DirName:/CN=team391-net
                serial:6E:E0:6B:7F:C9:A3:A5:BE:71:70:88:95:22:F0:C2:7D:5A:00:EB:68
            X509v3 Extended Key Usage: 
                TLS Web Client Authentication
            X509v3 Key Usage: 
                Digital Signature
    Signature Algorithm: sha256WithRSAEncryption
    Signature Value:
        16:e8:ff:28:bf:97:50:33:45:c2:a0:07:f3:d4:0a:4a:51:45:
        0d:a5:51:0d:07:58:24:70:52:07:cf:84:52:ca:64:3c:95:38:
        59:2b:f7:ad:48:34:96:3c:ca:0c:11:cd:f8:5e:ce:2a:61:08:
        98:25:53:5c:71:4a:ae:9f:c4:f0:d5:61:6e:3c:7b:87:7f:18:
        d3:a0:e6:ac:18:40:ff:ca:57:50:22:18:d8:b6:97:68:2a:83:
        45:9e:71:6c:26:d2:1d:30:03:9a:36:54:26:61:42:b1:20:8e:
        00:92:cc:f3:78:eb:3e:69:47:96:13:ef:a0:f2:d0:5e:81:1d:
        9a:91:8a:53:e3:a5:26:d2:be:35:33:9c:2e:9f:fc:3c:01:75:
        b5:c2:8e:35:6c:b2:51:9a:af:2b:ff:b6:f1:8f:d5:cc:f8:68:
        9c:7b:61:1a:0e:9d:44:5b:21:79:31:01:9b:45:84:42:a7:a8:
        f2:82:e2:aa:30:73:43:8c:48:ea:0e:11:4e:17:c3:39:50:3e:
        7c:0c:d9:d3:f0:da:73:2b:31:31:0a:43:01:e4:e9:24:b2:d9:
        33:3a:ac:d2:43:39:0a:b3:53:8a:e9:d4:48:43:cb:b3:78:d3:
        f2:96:96:25:89:84:d6:cf:dd:94:15:cd:29:8b:4c:e4:c6:48:
        e8:92:a0:25
-----BEGIN CERTIFICATE-----
MIIDXTCCAkWgAwIBAgIRAJsAVWVIj2isjSp2XgAuD0swDQYJKoZIhvcNAQELBQAw
FjEUMBIGA1UEAwwLdGVhbTM5MS1uZXQwHhcNMjMxMTAzMjA0NjE4WhcNMjYxMDE4
MjA0NjE4WjAZMRcwFQYDVQQDDA50ZWFtMzkxLWNsaWVudDCCASIwDQYJKoZIhvcN
AQEBBQADggEPADCCAQoCggEBANXFa0Isn+TDylLc7/YaneRoxT1J+26Yp3ybAjMA
ncThVXL/w4EH+ZLt65rQfY66MVpNuTpEnTZhNSEHO+fa1fp5lhucQ0860e4oXTgC
QDVyCUTryVy2xBzIqgrEbRVumHHjLIAI2Bu1/lglDvBEd1YIk0u6o6UGTPYUBq0v
YdsC4LMHw3Nmfv+2Sdv++l1tESD2Uj24+PvYzP6oisGogdl9ehFGyrl8CBGsYKRW
w6HKCqHUJqSYfEsSZoemwc3k4O6tDItHKGiyF63hfLp0xfhZNSEbTIj1pDQqEEqg
XWKiS+vB05qV1ZvoqIGrpBoE46jP39Cp7u8E8M4/FBPsIKECAwEAAaOBojCBnzAJ
BgNVHRMEAjAAMB0GA1UdDgQWBBSP1nR0kYn+6qbqbcf1hv/9t75ZeDBRBgNVHSME
SjBIgBQ/oEJkd8Rv8rF7UIBWCBdWR+1grKEapBgwFjEUMBIGA1UEAwwLdGVhbTM5
MS1uZXSCFG7ga3/Jo6W+cXCIlSLwwn1aAOtoMBMGA1UdJQQMMAoGCCsGAQUFBwMC
MAsGA1UdDwQEAwIHgDANBgkqhkiG9w0BAQsFAAOCAQEAFuj/KL+XUDNFwqAH89QK
SlFFDaVRDQdYJHBSB8+EUspkPJU4WSv3rUg0ljzKDBHN+F7OKmEImCVTXHFKrp/E
8NVhbjx7h38Y06DmrBhA/8pXUCIY2LaXaCqDRZ5xbCbSHTADmjZUJmFCsSCOAJLM
83jrPmlHlhPvoPLQXoEdmpGKU+OlJtK+NTOcLp/8PAF1tcKONWyyUZqvK/+28Y/V
zPhonHthGg6dRFsheTEBm0WEQqeo8oLiqjBzQ4xI6g4RThfDOVA+fAzZ0/Dacysx
MQpDAeTpJLLZMzqs0kM5CrNTiunUSEPLs3jT8paWJYmE1s/dlBXNKYtM5MZI6JKg
JQ==
-----END CERTIFICATE-----
