Certificate:
    Data:
        Version: 3 (0x2)
        Serial Number:
            9e:c2:76:43:3d:a3:74:1e:2c:fc:13:67:5a:75:49:d7
        Signature Algorithm: sha256WithRSAEncryption
        Issuer: CN=team391-net
        Validity
            Not Before: Nov  4 10:47:42 2023 GMT
            Not After : Oct 19 10:47:42 2026 GMT
        Subject: CN=team391-server
        Subject Public Key Info:
            Public Key Algorithm: rsaEncryption
                Public-Key: (2048 bit)
                Modulus:
                    00:be:39:21:2b:dd:e4:62:7a:04:61:2b:e5:6f:c7:
                    36:30:b0:c8:b3:e8:bf:f1:82:8a:1c:1c:bc:fc:7b:
                    2d:f9:b8:58:d6:f6:a0:02:c5:b9:4e:45:f7:ae:01:
                    3d:93:46:5e:8e:8f:ef:68:24:25:4c:2c:be:ee:d4:
                    d4:49:07:20:c5:d6:aa:51:cb:2c:7a:a8:f5:23:bd:
                    44:eb:2a:b0:38:2a:b3:0c:68:15:2f:e5:1b:7b:03:
                    b8:ac:51:58:81:98:4a:76:55:99:3e:ba:89:7b:c4:
                    15:60:64:c3:ac:de:d9:a4:0f:a6:14:be:aa:51:72:
                    b8:4d:b3:9a:95:aa:a8:12:ce:53:2f:7c:93:04:cd:
                    e4:d2:6d:b3:45:64:84:62:3b:6b:89:78:54:41:e3:
                    44:d6:e7:f4:58:de:9b:dd:e1:0e:c6:10:cf:24:6e:
                    77:5f:d8:bf:e7:4e:32:bf:6d:18:be:b7:26:d3:af:
                    06:75:4a:5b:82:1b:53:43:61:23:05:20:62:6c:4a:
                    51:b5:f1:0c:14:e7:d8:fe:11:ed:f9:d6:e4:65:a3:
                    f2:ae:3b:7d:40:c6:4b:c6:66:6b:66:6f:3f:65:e4:
                    27:d9:90:b9:36:7d:cb:8c:34:50:9f:3f:90:da:7f:
                    dd:20:c7:6f:e0:9e:da:29:69:cf:8d:30:af:01:be:
                    d6:19
                Exponent: 65537 (0x10001)
        X509v3 extensions:
            X509v3 Basic Constraints: 
                CA:FALSE
            X509v3 Subject Key Identifier: 
                00:E7:3A:9E:1F:19:47:BB:0E:A3:2B:58:63:F6:77:41:13:D6:31:C4
            X509v3 Authority Key Identifier: 
                keyid:A7:9B:1B:0D:6A:8F:F8:BE:8A:F1:D3:10:24:41:CE:F0:3F:F6:91:BA
                DirName:/CN=team391-net
                serial:12:CE:B9:76:D7:06:96:3E:FA:3E:43:38:5C:98:9C:DA:21:B6:24:B1
            X509v3 Extended Key Usage: 
                TLS Web Server Authentication
            X509v3 Key Usage: 
                Digital Signature, Key Encipherment
            X509v3 Subject Alternative Name: 
                DNS:team391-server
    Signature Algorithm: sha256WithRSAEncryption
    Signature Value:
        ba:47:0a:be:14:2b:2a:54:16:37:1c:b3:1e:7f:b9:f9:56:d2:
        4a:a5:92:2a:62:56:56:42:d8:f5:4e:df:ac:4d:d8:9a:d8:d3:
        e2:4c:9e:cb:3b:91:28:e7:91:e6:c0:8c:2b:50:c7:e9:83:77:
        8d:28:e6:1b:95:30:21:70:0f:17:7b:14:0f:74:18:78:50:fb:
        b3:d2:ca:39:f4:49:be:46:d6:9e:8b:16:d7:d4:6c:f0:53:7a:
        0c:82:6c:3e:bd:39:2f:22:78:13:63:63:60:43:86:bf:2e:91:
        57:22:95:78:c2:76:a9:92:d2:d0:d7:9e:ed:5d:a6:1e:ce:a3:
        49:e4:ee:f1:14:71:dd:b6:54:9e:7f:26:12:38:5f:14:2a:26:
        e0:72:b3:62:e9:ec:0a:78:ae:f2:fd:d8:2c:b8:49:0f:3a:46:
        cb:b4:22:33:82:ca:90:99:c4:83:22:01:13:3a:f9:40:74:b8:
        25:5b:d0:20:85:73:f6:a3:b7:37:86:c1:31:07:ec:b2:fd:55:
        90:8b:22:24:46:42:d0:f2:0f:a4:4d:a6:bf:d9:d6:36:1b:e2:
        49:61:7f:e7:55:4a:83:4c:9a:29:1f:4f:e2:43:22:99:4d:60:
        5c:8f:c3:8e:88:35:d2:46:16:ea:e7:c8:bf:4d:35:ce:df:be:
        a1:0e:da:81
-----BEGIN CERTIFICATE-----
MIIDeDCCAmCgAwIBAgIRAJ7CdkM9o3QeLPwTZ1p1SdcwDQYJKoZIhvcNAQELBQAw
FjEUMBIGA1UEAwwLdGVhbTM5MS1uZXQwHhcNMjMxMTA0MTA0NzQyWhcNMjYxMDE5
MTA0NzQyWjAZMRcwFQYDVQQDDA50ZWFtMzkxLXNlcnZlcjCCASIwDQYJKoZIhvcN
AQEBBQADggEPADCCAQoCggEBAL45ISvd5GJ6BGEr5W/HNjCwyLPov/GCihwcvPx7
Lfm4WNb2oALFuU5F964BPZNGXo6P72gkJUwsvu7U1EkHIMXWqlHLLHqo9SO9ROsq
sDgqswxoFS/lG3sDuKxRWIGYSnZVmT66iXvEFWBkw6ze2aQPphS+qlFyuE2zmpWq
qBLOUy98kwTN5NJts0VkhGI7a4l4VEHjRNbn9Fjem93hDsYQzyRud1/Yv+dOMr9t
GL63JtOvBnVKW4IbU0NhIwUgYmxKUbXxDBTn2P4R7fnW5GWj8q47fUDGS8Zma2Zv
P2XkJ9mQuTZ9y4w0UJ8/kNp/3SDHb+Ce2ilpz40wrwG+1hkCAwEAAaOBvTCBujAJ
BgNVHRMEAjAAMB0GA1UdDgQWBBQA5zqeHxlHuw6jK1hj9ndBE9YxxDBRBgNVHSME
SjBIgBSnmxsNao/4vorx0xAkQc7wP/aRuqEapBgwFjEUMBIGA1UEAwwLdGVhbTM5
MS1uZXSCFBLOuXbXBpY++j5DOFyYnNohtiSxMBMGA1UdJQQMMAoGCCsGAQUFBwMB
MAsGA1UdDwQEAwIFoDAZBgNVHREEEjAQgg50ZWFtMzkxLXNlcnZlcjANBgkqhkiG
9w0BAQsFAAOCAQEAukcKvhQrKlQWNxyzHn+5+VbSSqWSKmJWVkLY9U7frE3YmtjT
4kyeyzuRKOeR5sCMK1DH6YN3jSjmG5UwIXAPF3sUD3QYeFD7s9LKOfRJvkbWnosW
19Rs8FN6DIJsPr05LyJ4E2NjYEOGvy6RVyKVeMJ2qZLS0Nee7V2mHs6jSeTu8RRx
3bZUnn8mEjhfFCom4HKzYunsCniu8v3YLLhJDzpGy7QiM4LKkJnEgyIBEzr5QHS4
JVvQIIVz9qO3N4bBMQfssv1VkIsiJEZC0PIPpE2mv9nWNhviSWF/51VKg0yaKR9P
4kMimU1gXI/Djog10kYW6ufIv001zt++oQ7agQ==
-----END CERTIFICATE-----
