Certificate:
    Data:
        Version: 3 (0x2)
        Serial Number:
            d1:2c:a1:fe:fb:d7:24:67:5c:de:45:f0:5f:47:1c:d6
        Signature Algorithm: sha256WithRSAEncryption
        Issuer: CN=team391-net
        Validity
            Not Before: Nov  3 20:46:18 2023 GMT
            Not After : Oct 18 20:46:18 2026 GMT
        Subject: CN=team391-server
        Subject Public Key Info:
            Public Key Algorithm: rsaEncryption
                Public-Key: (2048 bit)
                Modulus:
                    00:91:ba:e4:e6:2b:7b:cf:ed:50:d7:1f:48:16:53:
                    39:7f:f7:66:47:a5:c6:27:a4:28:17:40:4e:d2:e3:
                    c0:8e:75:75:96:e8:98:94:54:8e:1e:6d:90:dc:49:
                    38:ef:39:3e:c2:fa:fe:3f:97:a9:dc:cd:e7:7e:39:
                    43:be:d0:8e:e9:0d:28:db:1a:86:32:6a:eb:8f:1a:
                    51:73:9a:e3:cf:3d:fb:58:1d:d2:3e:7a:44:0f:ec:
                    7b:73:89:03:c2:61:24:b7:d9:6e:db:9e:b0:2e:fe:
                    8a:a1:4d:34:55:f0:47:f1:74:f3:a5:06:20:50:cb:
                    9e:25:ae:a4:4a:1b:f3:e1:49:80:5c:8e:74:8b:ec:
                    02:04:f8:c0:51:8e:8c:6a:ea:ba:ad:e6:96:5f:63:
                    b3:90:e2:5f:9f:d8:a5:c9:58:e3:14:e5:05:05:13:
                    34:e2:c4:0d:9b:9f:b2:9b:1e:77:75:63:d2:9c:58:
                    2b:21:af:ef:b2:5d:c0:87:69:9f:06:c5:6c:9c:75:
                    a9:ef:27:3b:3f:4c:05:e2:fa:f4:b2:9d:86:b7:97:
                    ff:da:a1:a0:0f:25:90:2b:a1:3e:3c:16:bb:a6:e2:
                    fb:b7:6b:96:89:f3:6c:ec:61:27:94:41:c1:fc:00:
                    d1:65:49:0c:22:43:ff:ef:5e:d3:37:51:e4:4d:16:
                    24:79
                Exponent: 65537 (0x10001)
        X509v3 extensions:
            X509v3 Basic Constraints: 
                CA:FALSE
            X509v3 Subject Key Identifier: 
                85:12:7D:DB:B2:65:41:3C:6B:AA:35:F3:95:10:39:11:0E:12:BE:08
            X509v3 Authority Key Identifier: 
                keyid:3F:A0:42:64:77:C4:6F:F2:B1:7B:50:80:56:08:17:56:47:ED:60:AC
                DirName:/CN=team391-net
                serial:6E:E0:6B:7F:C9:A3:A5:BE:71:70:88:95:22:F0:C2:7D:5A:00:EB:68
            X509v3 Extended Key Usage: 
                TLS Web Server Authentication
            X509v3 Key Usage: 
                Digital Signature, Key Encipherment
            X509v3 Subject Alternative Name: 
                DNS:team391-server
    Signature Algorithm: sha256WithRSAEncryption
    Signature Value:
        1f:10:7e:0d:de:95:db:53:57:51:08:ce:c7:c9:88:b2:b3:52:
        f0:17:13:be:87:48:a4:45:d3:52:af:72:b3:3c:f4:b9:bc:89:
        6d:79:68:d2:7f:88:02:5a:78:a9:e1:97:d4:a6:7c:a0:bd:2c:
        96:24:57:cb:4c:2e:c9:ea:ad:57:61:34:5a:88:50:9f:08:a1:
        b4:b4:7c:96:5d:e0:38:f8:8c:67:77:a9:26:cb:e1:ca:7e:88:
        0e:c1:36:73:3a:a4:c7:a0:0f:9f:20:38:10:86:e0:40:d1:7a:
        f7:3c:ef:ff:a9:7f:01:71:f6:ca:e6:eb:8f:24:ff:29:cd:59:
        50:0a:1d:d4:b4:a7:44:f6:b5:fb:2f:a5:a0:29:c0:4c:ba:f9:
        c1:83:61:23:75:ce:c9:e4:5c:dd:7e:b8:f8:16:61:16:b6:fb:
        f9:e7:e6:b0:0a:96:fc:bf:e5:74:fa:43:bf:4f:7f:6b:ac:7f:
        4c:82:fb:ca:d0:59:56:13:9f:58:5a:f5:c2:48:f2:6c:7b:30:
        e5:a3:f9:6d:8f:50:01:26:36:0d:0c:e7:f7:7c:c4:0c:a4:d9:
        2b:f9:17:92:9b:af:19:f8:97:42:be:e3:29:75:c1:61:fd:c2:
        4b:67:15:b2:d7:de:db:35:fb:8c:1a:f5:12:bb:75:06:e5:0c:
        c8:a5:86:47
-----BEGIN CERTIFICATE-----
MIIDeDCCAmCgAwIBAgIRANEsof771yRnXN5F8F9HHNYwDQYJKoZIhvcNAQELBQAw
FjEUMBIGA1UEAwwLdGVhbTM5MS1uZXQwHhcNMjMxMTAzMjA0NjE4WhcNMjYxMDE4
MjA0NjE4WjAZMRcwFQYDVQQDDA50ZWFtMzkxLXNlcnZlcjCCASIwDQYJKoZIhvcN
AQEBBQADggEPADCCAQoCggEBAJG65OYre8/tUNcfSBZTOX/3ZkelxiekKBdATtLj
wI51dZbomJRUjh5tkNxJOO85PsL6/j+XqdzN5345Q77QjukNKNsahjJq648aUXOa
4889+1gd0j56RA/se3OJA8JhJLfZbtuesC7+iqFNNFXwR/F086UGIFDLniWupEob
8+FJgFyOdIvsAgT4wFGOjGrquq3mll9js5DiX5/YpclY4xTlBQUTNOLEDZufspse
d3Vj0pxYKyGv77JdwIdpnwbFbJx1qe8nOz9MBeL69LKdhreX/9qhoA8lkCuhPjwW
u6bi+7drlonzbOxhJ5RBwfwA0WVJDCJD/+9e0zdR5E0WJHkCAwEAAaOBvTCBujAJ
BgNVHRMEAjAAMB0GA1UdDgQWBBSFEn3bsmVBPGuqNfOVEDkRDhK+CDBRBgNVHSME
SjBIgBQ/oEJkd8Rv8rF7UIBWCBdWR+1grKEapBgwFjEUMBIGA1UEAwwLdGVhbTM5
MS1uZXSCFG7ga3/Jo6W+cXCIlSLwwn1aAOtoMBMGA1UdJQQMMAoGCCsGAQUFBwMB
MAsGA1UdDwQEAwIFoDAZBgNVHREEEjAQgg50ZWFtMzkxLXNlcnZlcjANBgkqhkiG
9w0BAQsFAAOCAQEAHxB+Dd6V21NXUQjOx8mIsrNS8BcTvodIpEXTUq9yszz0ubyJ
bXlo0n+IAlp4qeGX1KZ8oL0sliRXy0wuyeqtV2E0WohQnwihtLR8ll3gOPiMZ3ep
Jsvhyn6IDsE2czqkx6APnyA4EIbgQNF69zzv/6l/AXH2yubrjyT/Kc1ZUAod1LSn
RPa1+y+loCnATLr5wYNhI3XOyeRc3X64+BZhFrb7+efmsAqW/L/ldPpDv09/a6x/
TIL7ytBZVhOfWFr1wkjybHsw5aP5bY9QASY2DQzn93zEDKTZK/kXkpuvGfiXQr7j
KXXBYf3CS2cVstfe2zX7jBr1Ert1BuUMyKWGRw==
-----END CERTIFICATE-----
