Certificate:
    Data:
        Version: 3 (0x2)
        Serial Number:
            49:df:c7:56:1c:57:11:7e:a8:33:8f:96:78:3c:a3:36
        Signature Algorithm: sha256WithRSAEncryption
        Issuer: CN=team298-net
        Validity
            Not Before: Nov  3 20:44:41 2023 GMT
            Not After : Oct 18 20:44:41 2026 GMT
        Subject: CN=team298-server
        Subject Public Key Info:
            Public Key Algorithm: rsaEncryption
                Public-Key: (2048 bit)
                Modulus:
                    00:d6:80:49:f6:92:58:45:09:35:82:25:a7:b6:22:
                    f7:d2:38:e2:70:f7:3b:78:4a:54:44:d5:ad:fa:7b:
                    bc:5c:34:b1:fc:d5:c4:30:23:9a:53:06:91:dd:c1:
                    ba:86:e9:1b:eb:eb:6f:8f:aa:50:66:a2:54:65:82:
                    56:43:10:80:0d:78:f9:9c:12:f0:aa:7d:ed:c3:ec:
                    10:f2:8c:4c:58:b8:dd:f8:1c:fe:22:62:c2:24:45:
                    40:21:88:02:09:c3:40:28:41:a7:19:37:97:85:a3:
                    26:e9:28:ea:38:0c:9c:23:09:9e:f3:55:48:bc:fb:
                    c3:79:ba:5c:58:3a:25:83:ba:c1:bb:4b:1a:cf:df:
                    66:52:ab:89:b7:31:46:df:ec:bd:91:41:e0:a8:c9:
                    11:9a:95:dd:f4:26:2d:83:b2:33:57:1a:1b:58:70:
                    8f:0d:0c:50:2f:c9:6c:32:7e:4f:13:1a:34:ad:86:
                    9f:42:0c:1b:f8:93:36:2f:3a:50:69:40:c9:8d:46:
                    4a:69:1b:d9:aa:b5:fe:db:df:d2:fe:54:6a:88:98:
                    36:13:2c:be:3e:da:45:38:0c:56:2f:e2:e3:78:14:
                    d4:99:f4:d2:05:e8:1a:72:cd:19:71:ff:c8:3d:80:
                    49:04:2c:24:12:42:75:ef:ff:d1:4a:47:86:7c:20:
                    58:b9
                Exponent: 65537 (0x10001)
        X509v3 extensions:
            X509v3 Basic Constraints: 
                CA:FALSE
            X509v3 Subject Key Identifier: 
                C3:F8:D4:CF:0A:76:6D:0C:CC:2C:D6:2A:DA:54:05:93:B7:77:2F:4F
            X509v3 Authority Key Identifier: 
                keyid:F6:AE:1C:0F:BC:7C:20:89:C0:23:CA:11:31:4F:DB:EF:CC:B2:EF:F8
                DirName:/CN=team298-net
                serial:37:46:5E:85:86:8E:78:BF:77:AB:C1:A6:14:50:7E:24:9C:41:36:08
            X509v3 Extended Key Usage: 
                TLS Web Server Authentication
            X509v3 Key Usage: 
                Digital Signature, Key Encipherment
            X509v3 Subject Alternative Name: 
                DNS:team298-server
    Signature Algorithm: sha256WithRSAEncryption
    Signature Value:
        47:a3:95:fa:80:0c:cd:05:a9:7a:ca:2d:1d:f6:e4:e3:f1:b2:
        36:ff:d3:72:99:e3:bd:4d:4c:3b:a5:d2:10:cb:04:1f:81:c1:
        4f:b2:84:92:ee:c1:cd:d3:fb:fa:c7:1e:e3:9d:ef:c6:87:b4:
        3e:12:c7:3e:34:40:7f:6a:7c:c0:e6:9e:c0:76:c0:12:be:ed:
        05:47:c1:95:04:64:5a:fa:d9:0b:e2:5c:40:50:c2:a5:86:81:
        65:3e:d2:79:9a:4a:9e:65:8a:7d:1c:b1:3b:2e:cf:15:48:56:
        bb:67:b6:53:38:fe:bd:93:cc:27:64:6c:17:a3:b2:23:ab:6e:
        78:68:72:7e:27:54:9c:7d:03:49:da:d4:a4:00:9a:2b:46:1f:
        aa:9a:72:cb:4a:e7:ca:bb:f9:4b:a9:88:ef:49:57:da:be:b4:
        a8:7b:ad:75:dc:78:14:b0:c0:b2:be:e0:6e:cc:c4:ac:96:6d:
        b3:ab:bb:f7:be:c2:4e:6c:51:8a:22:e3:8d:3e:f5:22:65:06:
        b0:49:a8:ad:75:2c:92:f6:a1:23:e2:6d:67:86:0b:59:24:24:
        09:2e:55:55:dd:b6:c2:83:6d:3f:52:0d:d1:77:67:c1:f0:d5:
        24:09:23:86:dc:78:77:21:6f:aa:6c:6f:b0:75:40:f2:82:0d:
        0d:70:6c:a0
-----BEGIN CERTIFICATE-----
MIIDdzCCAl+gAwIBAgIQSd/HVhxXEX6oM4+WeDyjNjANBgkqhkiG9w0BAQsFADAW
MRQwEgYDVQQDDAt0ZWFtMjk4LW5ldDAeFw0yMzExMDMyMDQ0NDFaFw0yNjEwMTgy
MDQ0NDFaMBkxFzAVBgNVBAMMDnRlYW0yOTgtc2VydmVyMIIBIjANBgkqhkiG9w0B
AQEFAAOCAQ8AMIIBCgKCAQEA1oBJ9pJYRQk1giWntiL30jjicPc7eEpURNWt+nu8
XDSx/NXEMCOaUwaR3cG6hukb6+tvj6pQZqJUZYJWQxCADXj5nBLwqn3tw+wQ8oxM
WLjd+Bz+ImLCJEVAIYgCCcNAKEGnGTeXhaMm6SjqOAycIwme81VIvPvDebpcWDol
g7rBu0saz99mUquJtzFG3+y9kUHgqMkRmpXd9CYtg7IzVxobWHCPDQxQL8lsMn5P
Exo0rYafQgwb+JM2LzpQaUDJjUZKaRvZqrX+29/S/lRqiJg2Eyy+PtpFOAxWL+Lj
eBTUmfTSBegacs0Zcf/IPYBJBCwkEkJ17//RSkeGfCBYuQIDAQABo4G9MIG6MAkG
A1UdEwQCMAAwHQYDVR0OBBYEFMP41M8Kdm0MzCzWKtpUBZO3dy9PMFEGA1UdIwRK
MEiAFPauHA+8fCCJwCPKETFP2+/Msu/4oRqkGDAWMRQwEgYDVQQDDAt0ZWFtMjk4
LW5ldIIUN0ZehYaOeL93q8GmFFB+JJxBNggwEwYDVR0lBAwwCgYIKwYBBQUHAwEw
CwYDVR0PBAQDAgWgMBkGA1UdEQQSMBCCDnRlYW0yOTgtc2VydmVyMA0GCSqGSIb3
DQEBCwUAA4IBAQBHo5X6gAzNBal6yi0d9uTj8bI2/9NymeO9TUw7pdIQywQfgcFP
soSS7sHN0/v6xx7jne/Gh7Q+Esc+NEB/anzA5p7AdsASvu0FR8GVBGRa+tkL4lxA
UMKlhoFlPtJ5mkqeZYp9HLE7Ls8VSFa7Z7ZTOP69k8wnZGwXo7Ijq254aHJ+J1Sc
fQNJ2tSkAJorRh+qmnLLSufKu/lLqYjvSVfavrSoe6113HgUsMCyvuBuzMSslm2z
q7v3vsJObFGKIuONPvUiZQawSaitdSyS9qEj4m1nhgtZJCQJLlVV3bbCg20/Ug3R
d2fB8NUkCSOG3Hh3IW+qbG+wdUDygg0NcGyg
-----END CERTIFICATE-----
