Certificate:
    Data:
        Version: 3 (0x2)
        Serial Number:
            06:3e:cf:d3:b1:19:01:6d:31:66:f0:b3:de:44:01:96
        Signature Algorithm: sha256WithRSAEncryption
        Issuer: CN=team43-net
        Validity
            Not Before: Nov  3 20:40:00 2023 GMT
            Not After : Oct 18 20:40:00 2026 GMT
        Subject: CN=team43-client
        Subject Public Key Info:
            Public Key Algorithm: rsaEncryption
                Public-Key: (2048 bit)
                Modulus:
                    00:c1:93:eb:2d:49:bf:c5:f2:29:a5:42:e4:b4:ad:
                    f5:26:66:3a:35:03:b2:1f:95:49:cf:8e:29:59:7f:
                    73:af:fd:3f:e1:c8:16:62:4b:ac:81:cf:69:83:ff:
                    72:86:ea:43:41:82:cf:db:3c:bb:42:9e:68:26:70:
                    93:71:b8:b4:00:3f:c3:ad:80:68:2a:36:54:23:49:
                    ad:c0:d4:6e:a5:8a:e5:07:e7:b5:81:6d:23:b7:58:
                    0c:d5:f1:2c:91:24:eb:e5:f1:d1:a5:b2:4c:d4:6b:
                    62:15:90:45:77:f9:b6:c0:13:e6:45:ea:a8:7f:5f:
                    9b:6c:98:f2:1d:b5:fd:e6:b0:7b:fc:6e:c1:9d:d2:
                    9a:13:93:12:fb:0c:0a:b7:72:da:74:77:d4:ab:44:
                    b8:88:34:2f:57:f5:8d:9e:53:f3:13:4c:17:cd:7f:
                    d1:12:db:05:fb:92:62:b6:48:b2:d1:17:c0:6d:c6:
                    e4:fe:76:cd:df:77:2a:70:63:e9:65:3f:38:ab:a7:
                    01:e1:88:6b:02:56:c7:3b:69:d8:76:15:ae:6f:90:
                    16:d9:4d:ce:34:03:d0:20:c8:50:b7:25:50:09:85:
                    98:1d:43:a2:c0:5b:b0:ac:f2:96:cf:84:27:34:e8:
                    c3:34:67:17:f7:b0:b4:0c:c2:fe:2f:81:33:90:01:
                    73:eb
                Exponent: 65537 (0x10001)
        X509v3 extensions:
            X509v3 Basic Constraints: 
                CA:FALSE
            X509v3 Subject Key Identifier: 
                84:6A:89:47:C9:87:9D:2B:C9:C8:19:01:24:75:41:5A:F6:AD:83:0B
            X509v3 Authority Key Identifier: 
                keyid:B8:3C:41:04:4F:84:32:A6:88:80:E8:30:C0:18:C7:0E:DE:BC:30:C6
                DirName:/CN=team43-net
                serial:2C:C8:12:16:00:4E:E3:4F:77:0C:78:1D:26:04:DB:C2:12:DD:BF:C7
            X509v3 Extended Key Usage: 
                TLS Web Client Authentication
            X509v3 Key Usage: 
                Digital Signature
    Signature Algorithm: sha256WithRSAEncryption
    Signature Value:
        60:2b:71:4c:01:44:df:86:d2:d4:2a:20:8b:1a:52:c4:91:ce:
        fc:d8:18:e9:b5:7c:d8:83:c6:ee:2b:cd:de:ff:65:66:02:58:
        47:90:1f:66:8f:4d:15:b1:cb:aa:57:d0:9d:08:37:1b:d7:47:
        88:6f:11:8a:70:b7:51:4f:7a:49:f9:7e:77:31:13:db:15:57:
        f3:36:e6:1b:43:c7:39:f6:9a:2d:64:73:19:b0:64:3c:aa:04:
        3e:9d:91:e4:9a:02:d7:9a:a7:cb:19:30:3c:9f:12:65:86:f8:
        aa:b2:dd:19:9f:8a:e9:3a:7a:ba:e8:a4:53:d2:3e:e2:f2:c0:
        96:9d:b9:27:2f:13:1e:00:ed:03:4e:b9:1a:23:51:98:5d:be:
        c5:99:29:a6:37:bf:66:35:a9:c0:93:f8:4e:8f:0b:0f:7a:ec:
        7b:3b:bd:c0:55:21:a7:cc:65:e1:16:5c:d6:19:70:20:45:a8:
        3d:8e:43:75:3c:03:00:c4:5b:cb:c1:11:71:c0:6a:ab:0f:bf:
        b1:1c:a2:f9:d4:9c:a8:89:52:9e:ab:73:31:5d:e9:5e:36:ec:
        e1:7b:5b:ba:36:04:6f:3f:45:89:95:7c:5e:44:57:22:49:d7:
        aa:de:e9:0e:2d:05:8f:40:39:d3:e1:3e:e3:6e:8f:b7:ff:ef:
        56:90:7e:e6
-----BEGIN CERTIFICATE-----
MIIDWTCCAkGgAwIBAgIQBj7P07EZAW0xZvCz3kQBljANBgkqhkiG9w0BAQsFADAV
MRMwEQYDVQQDDAp0ZWFtNDMtbmV0MB4XDTIzMTEwMzIwNDAwMFoXDTI2MTAxODIw
NDAwMFowGDEWMBQGA1UEAwwNdGVhbTQzLWNsaWVudDCCASIwDQYJKoZIhvcNAQEB
BQADggEPADCCAQoCggEBAMGT6y1Jv8XyKaVC5LSt9SZmOjUDsh+VSc+OKVl/c6/9
P+HIFmJLrIHPaYP/cobqQ0GCz9s8u0KeaCZwk3G4tAA/w62AaCo2VCNJrcDUbqWK
5QfntYFtI7dYDNXxLJEk6+Xx0aWyTNRrYhWQRXf5tsAT5kXqqH9fm2yY8h21/eaw
e/xuwZ3SmhOTEvsMCrdy2nR31KtEuIg0L1f1jZ5T8xNMF81/0RLbBfuSYrZIstEX
wG3G5P52zd93KnBj6WU/OKunAeGIawJWxztp2HYVrm+QFtlNzjQD0CDIULclUAmF
mB1DosBbsKzyls+EJzTowzRnF/ewtAzC/i+BM5ABc+sCAwEAAaOBoTCBnjAJBgNV
HRMEAjAAMB0GA1UdDgQWBBSEaolHyYedK8nIGQEkdUFa9q2DCzBQBgNVHSMESTBH
gBS4PEEET4QypoiA6DDAGMcO3rwwxqEZpBcwFTETMBEGA1UEAwwKdGVhbTQzLW5l
dIIULMgSFgBO4093DHgdJgTbwhLdv8cwEwYDVR0lBAwwCgYIKwYBBQUHAwIwCwYD
VR0PBAQDAgeAMA0GCSqGSIb3DQEBCwUAA4IBAQBgK3FMAUTfhtLUKiCLGlLEkc78
2BjptXzYg8buK83e/2VmAlhHkB9mj00VscuqV9CdCDcb10eIbxGKcLdRT3pJ+X53
MRPbFVfzNuYbQ8c59potZHMZsGQ8qgQ+nZHkmgLXmqfLGTA8nxJlhviqst0Zn4rp
Onq66KRT0j7i8sCWnbknLxMeAO0DTrkaI1GYXb7FmSmmN79mNanAk/hOjwsPeux7
O73AVSGnzGXhFlzWGXAgRag9jkN1PAMAxFvLwRFxwGqrD7+xHKL51JyoiVKeq3Mx
XeleNuzhe1u6NgRvP0WJlXxeRFciSdeq3ukOLQWPQDnT4T7jbo+3/+9WkH7m
-----END CERTIFICATE-----
