Certificate:
    Data:
        Version: 3 (0x2)
        Serial Number:
            05:48:c2:98:32:50:c9:0e:81:51:f8:e5:27:e4:2e:03
        Signature Algorithm: sha256WithRSAEncryption
        Issuer: CN=team196-net
        Validity
            Not Before: Nov  4 11:31:29 2023 GMT
            Not After : Oct 19 11:31:29 2026 GMT
        Subject: CN=team196-client
        Subject Public Key Info:
            Public Key Algorithm: rsaEncryption
                Public-Key: (2048 bit)
                Modulus:
                    00:b1:f4:7b:60:fc:cb:d8:21:87:19:c6:6a:ed:60:
                    a7:d5:b6:f3:0b:36:46:fa:0c:50:f5:5c:3f:11:5f:
                    c9:af:0c:c2:9d:6d:f5:51:50:3c:79:b6:c1:d9:c4:
                    ed:29:1f:60:69:9b:f6:f1:d1:1d:32:c0:cc:79:2d:
                    d9:bc:c3:6b:35:c2:90:d9:9e:36:45:c1:58:ec:23:
                    90:63:a1:dc:b9:49:a2:f1:bf:41:26:e4:af:45:13:
                    f4:d2:d0:d7:92:bc:70:a6:e0:f3:d3:bc:e2:13:64:
                    8b:25:e2:ff:fb:51:9c:d9:2c:00:51:11:77:f4:aa:
                    7c:57:3c:90:c7:83:1c:0a:f2:ec:6a:f2:2e:11:6a:
                    e7:be:4b:d8:df:83:7a:7a:ff:36:b4:0a:ee:47:59:
                    10:2a:ae:53:80:81:88:00:2e:d5:42:dc:d5:ae:4c:
                    7c:d0:7c:77:90:9b:c7:59:d1:f0:5c:6d:85:6c:ad:
                    a7:49:5f:4c:86:0f:f0:98:62:9c:5c:92:3f:44:25:
                    4b:a0:8e:d9:8e:6c:fb:b1:06:21:4c:56:f2:77:a3:
                    71:6e:a3:ca:0d:3a:0e:f3:84:e1:74:16:4e:fa:55:
                    1a:2c:90:e2:4d:c0:cd:7a:55:9a:76:b4:4c:ce:6a:
                    75:4f:08:a6:eb:f9:23:01:48:d2:7f:03:64:1a:62:
                    7b:a7
                Exponent: 65537 (0x10001)
        X509v3 extensions:
            X509v3 Basic Constraints: 
                CA:FALSE
            X509v3 Subject Key Identifier: 
                95:15:0F:C5:ED:96:18:3D:CB:46:71:85:2C:C3:8C:77:53:C4:28:7C
            X509v3 Authority Key Identifier: 
                keyid:00:26:18:54:57:88:C2:9F:7C:C6:D0:AC:C7:79:89:AE:45:E6:01:BF
                DirName:/CN=team196-net
                serial:47:88:03:D8:CF:D0:95:34:C4:B5:CF:F7:CD:1B:B8:1E:81:86:82:38
            X509v3 Extended Key Usage: 
                TLS Web Client Authentication
            X509v3 Key Usage: 
                Digital Signature
    Signature Algorithm: sha256WithRSAEncryption
    Signature Value:
        00:3f:a8:40:d8:55:98:0b:95:5c:ac:e0:67:48:52:c3:b5:90:
        9b:b0:83:9c:0a:fa:13:12:0e:d1:0f:82:e9:d1:e8:07:c8:a1:
        25:7f:e4:ee:47:c9:8a:9c:f3:c5:55:03:96:d3:d2:17:df:9c:
        07:ba:51:c8:b9:da:bb:5c:23:fa:08:27:7a:17:96:3d:35:c1:
        ef:9f:46:a6:bc:57:4f:e1:11:51:08:99:1e:ad:af:f7:88:3b:
        67:c0:1e:73:b4:42:91:1a:cc:37:08:5a:03:48:2c:67:37:41:
        71:84:52:a1:8e:f8:04:53:40:9d:dd:f1:10:be:7f:69:10:14:
        aa:f6:11:d2:9c:ca:d1:41:d6:91:b0:16:62:9e:65:d4:f7:52:
        fc:1a:53:12:ee:56:a0:88:f6:2e:30:8c:bd:b3:6f:48:d4:12:
        c4:13:e4:37:d3:a3:f2:a6:31:32:f9:90:f5:02:a5:32:9e:de:
        5c:af:42:00:36:8b:ff:30:80:bf:f3:36:df:2c:40:33:01:c9:
        cc:39:a4:b3:6e:67:44:e2:71:42:fc:e0:bc:fc:74:e8:8e:f5:
        a5:3f:34:07:3c:aa:6f:3a:8b:36:13:22:3c:c1:54:15:97:dc:
        68:d8:ef:a1:1b:a2:10:39:18:ac:7a:52:d5:89:66:a6:6f:bf:
        92:69:59:43
-----BEGIN CERTIFICATE-----
MIIDXDCCAkSgAwIBAgIQBUjCmDJQyQ6BUfjlJ+QuAzANBgkqhkiG9w0BAQsFADAW
MRQwEgYDVQQDDAt0ZWFtMTk2LW5ldDAeFw0yMzExMDQxMTMxMjlaFw0yNjEwMTkx
MTMxMjlaMBkxFzAVBgNVBAMMDnRlYW0xOTYtY2xpZW50MIIBIjANBgkqhkiG9w0B
AQEFAAOCAQ8AMIIBCgKCAQEAsfR7YPzL2CGHGcZq7WCn1bbzCzZG+gxQ9Vw/EV/J
rwzCnW31UVA8ebbB2cTtKR9gaZv28dEdMsDMeS3ZvMNrNcKQ2Z42RcFY7COQY6Hc
uUmi8b9BJuSvRRP00tDXkrxwpuDz07ziE2SLJeL/+1Gc2SwAURF39Kp8VzyQx4Mc
CvLsavIuEWrnvkvY34N6ev82tAruR1kQKq5TgIGIAC7VQtzVrkx80Hx3kJvHWdHw
XG2FbK2nSV9Mhg/wmGKcXJI/RCVLoI7Zjmz7sQYhTFbyd6NxbqPKDToO84ThdBZO
+lUaLJDiTcDNelWadrRMzmp1Twim6/kjAUjSfwNkGmJ7pwIDAQABo4GiMIGfMAkG
A1UdEwQCMAAwHQYDVR0OBBYEFJUVD8Xtlhg9y0ZxhSzDjHdTxCh8MFEGA1UdIwRK
MEiAFAAmGFRXiMKffMbQrMd5ia5F5gG/oRqkGDAWMRQwEgYDVQQDDAt0ZWFtMTk2
LW5ldIIUR4gD2M/QlTTEtc/3zRu4HoGGgjgwEwYDVR0lBAwwCgYIKwYBBQUHAwIw
CwYDVR0PBAQDAgeAMA0GCSqGSIb3DQEBCwUAA4IBAQAAP6hA2FWYC5VcrOBnSFLD
tZCbsIOcCvoTEg7RD4Lp0egHyKElf+TuR8mKnPPFVQOW09IX35wHulHIudq7XCP6
CCd6F5Y9NcHvn0amvFdP4RFRCJkera/3iDtnwB5ztEKRGsw3CFoDSCxnN0FxhFKh
jvgEU0Cd3fEQvn9pEBSq9hHSnMrRQdaRsBZinmXU91L8GlMS7lagiPYuMIy9s29I
1BLEE+Q306PypjEy+ZD1AqUynt5cr0IANov/MIC/8zbfLEAzAcnMOaSzbmdE4nFC
/OC8/HTojvWlPzQHPKpvOos2EyI8wVQVl9xo2O+hG6IQORiselLViWamb7+SaVlD
-----END CERTIFICATE-----
