Certificate:
    Data:
        Version: 3 (0x2)
        Serial Number:
            3b:7f:62:35:ce:26:47:ed:d6:b0:3f:91:05:30:7f:7a
        Signature Algorithm: sha256WithRSAEncryption
        Issuer: CN=team196-net
        Validity
            Not Before: Nov  4 11:31:30 2023 GMT
            Not After : Oct 19 11:31:30 2026 GMT
        Subject: CN=team196-server
        Subject Public Key Info:
            Public Key Algorithm: rsaEncryption
                Public-Key: (2048 bit)
                Modulus:
                    00:af:b1:35:8e:9a:f8:fe:aa:1e:3f:37:3d:25:49:
                    86:77:f4:c9:22:ec:e6:da:14:cb:69:05:43:80:bc:
                    fc:07:94:fd:18:61:5d:27:ec:e3:59:e8:d9:21:94:
                    13:e8:1b:e5:e4:a8:cd:f2:8f:4a:fb:76:23:76:97:
                    0b:55:cb:1f:a9:21:bb:51:cb:1d:b5:98:d0:43:73:
                    66:1f:55:4e:7f:3c:1a:8d:96:a9:0b:a6:20:47:6a:
                    a9:29:09:16:3b:f4:eb:02:0c:e7:d4:8c:14:14:c8:
                    ef:5d:ae:8d:86:ed:5f:8d:03:91:85:13:7e:68:6b:
                    30:95:59:9b:30:71:4d:d5:11:01:c7:da:eb:47:1c:
                    3f:37:11:5f:6d:e7:f7:93:85:f1:e3:c4:82:b7:da:
                    c6:f5:f9:8e:07:9b:92:cd:ca:e6:02:1d:7a:f5:81:
                    42:12:f2:a5:29:18:34:0e:c8:e3:2f:e6:68:e9:39:
                    6d:26:bd:02:05:58:c3:df:e2:0d:05:61:50:91:63:
                    89:a9:34:7c:0c:db:ad:d7:ea:5a:38:e8:9b:73:2f:
                    43:da:cb:36:bb:16:fb:bf:a7:57:3d:63:b8:20:46:
                    ed:52:02:cb:0d:67:09:41:83:eb:92:d6:95:c2:08:
                    a1:f3:17:5c:ef:72:33:62:7a:51:aa:f2:cf:8d:46:
                    72:cb
                Exponent: 65537 (0x10001)
        X509v3 extensions:
            X509v3 Basic Constraints: 
                CA:FALSE
            X509v3 Subject Key Identifier: 
                C1:4D:65:20:9D:2F:79:7E:C4:69:8D:1A:60:DC:7B:10:0D:28:B3:61
            X509v3 Authority Key Identifier: 
                keyid:00:26:18:54:57:88:C2:9F:7C:C6:D0:AC:C7:79:89:AE:45:E6:01:BF
                DirName:/CN=team196-net
                serial:47:88:03:D8:CF:D0:95:34:C4:B5:CF:F7:CD:1B:B8:1E:81:86:82:38
            X509v3 Extended Key Usage: 
                TLS Web Server Authentication
            X509v3 Key Usage: 
                Digital Signature, Key Encipherment
            X509v3 Subject Alternative Name: 
                DNS:team196-server
    Signature Algorithm: sha256WithRSAEncryption
    Signature Value:
        4e:2f:86:cb:c7:c0:2d:17:39:ea:7c:4d:35:20:9e:b4:66:36:
        25:da:37:dd:4f:89:cd:b8:b4:46:b6:5e:d0:43:64:68:7c:65:
        82:36:b4:94:86:f9:c2:5a:97:8c:3c:89:68:d5:eb:ef:f1:a8:
        75:40:f6:e8:32:a6:b9:51:c6:f7:e8:6c:6a:41:3c:ef:b0:82:
        e9:f1:b1:ef:fb:87:36:04:da:da:2d:99:c2:42:67:8a:fd:0d:
        da:0c:51:45:6e:e7:7a:80:33:1f:fe:49:4b:81:c7:e5:68:e4:
        49:e5:a8:b8:54:5f:7a:94:d7:8b:d2:80:ba:d8:74:0a:ce:f4:
        0f:63:14:6e:29:42:28:37:df:66:04:12:b1:e8:c2:52:d0:3f:
        0d:82:65:eb:5c:c9:31:ea:ee:19:73:08:82:94:e6:fe:73:bb:
        14:56:ec:12:c6:6b:09:d1:2f:1d:c6:e7:0a:34:ab:16:db:67:
        8d:6f:82:ae:8c:df:37:74:ac:f1:47:58:c6:3c:6a:56:ad:3d:
        88:e6:c0:2e:6f:c3:a4:d4:5f:06:5b:a7:45:29:b0:8a:04:ed:
        bd:ba:12:d8:f8:3e:e6:e6:03:05:13:10:9e:40:b6:38:02:fb:
        64:49:fe:c8:2e:93:b8:75:c5:9b:6b:36:02:ce:9a:a2:ed:a3:
        24:f8:b7:14
-----BEGIN CERTIFICATE-----
MIIDdzCCAl+gAwIBAgIQO39iNc4mR+3WsD+RBTB/ejANBgkqhkiG9w0BAQsFADAW
MRQwEgYDVQQDDAt0ZWFtMTk2LW5ldDAeFw0yMzExMDQxMTMxMzBaFw0yNjEwMTkx
MTMxMzBaMBkxFzAVBgNVBAMMDnRlYW0xOTYtc2VydmVyMIIBIjANBgkqhkiG9w0B
AQEFAAOCAQ8AMIIBCgKCAQEAr7E1jpr4/qoePzc9JUmGd/TJIuzm2hTLaQVDgLz8
B5T9GGFdJ+zjWejZIZQT6Bvl5KjN8o9K+3YjdpcLVcsfqSG7UcsdtZjQQ3NmH1VO
fzwajZapC6YgR2qpKQkWO/TrAgzn1IwUFMjvXa6Nhu1fjQORhRN+aGswlVmbMHFN
1REBx9rrRxw/NxFfbef3k4Xx48SCt9rG9fmOB5uSzcrmAh169YFCEvKlKRg0Dsjj
L+Zo6TltJr0CBVjD3+INBWFQkWOJqTR8DNut1+paOOibcy9D2ss2uxb7v6dXPWO4
IEbtUgLLDWcJQYPrktaVwgih8xdc73IzYnpRqvLPjUZyywIDAQABo4G9MIG6MAkG
A1UdEwQCMAAwHQYDVR0OBBYEFMFNZSCdL3l+xGmNGmDcexANKLNhMFEGA1UdIwRK
MEiAFAAmGFRXiMKffMbQrMd5ia5F5gG/oRqkGDAWMRQwEgYDVQQDDAt0ZWFtMTk2
LW5ldIIUR4gD2M/QlTTEtc/3zRu4HoGGgjgwEwYDVR0lBAwwCgYIKwYBBQUHAwEw
CwYDVR0PBAQDAgWgMBkGA1UdEQQSMBCCDnRlYW0xOTYtc2VydmVyMA0GCSqGSIb3
DQEBCwUAA4IBAQBOL4bLx8AtFznqfE01IJ60ZjYl2jfdT4nNuLRGtl7QQ2RofGWC
NrSUhvnCWpeMPIlo1evv8ah1QPboMqa5Ucb36GxqQTzvsILp8bHv+4c2BNraLZnC
QmeK/Q3aDFFFbud6gDMf/klLgcflaORJ5ai4VF96lNeL0oC62HQKzvQPYxRuKUIo
N99mBBKx6MJS0D8NgmXrXMkx6u4ZcwiClOb+c7sUVuwSxmsJ0S8dxucKNKsW22eN
b4KujN83dKzxR1jGPGpWrT2I5sAub8Ok1F8GW6dFKbCKBO29uhLY+D7m5gMFExCe
QLY4AvtkSf7ILpO4dcWbazYCzpqi7aMk+LcU
-----END CERTIFICATE-----
