Certificate:
    Data:
        Version: 3 (0x2)
        Serial Number:
            a3:7d:7b:27:22:7d:bc:25:65:cc:d7:c4:5d:87:35:b3
        Signature Algorithm: sha256WithRSAEncryption
        Issuer: CN=team196-net
        Validity
            Not Before: Nov  4 10:44:13 2023 GMT
            Not After : Oct 19 10:44:13 2026 GMT
        Subject: CN=team196-client
        Subject Public Key Info:
            Public Key Algorithm: rsaEncryption
                Public-Key: (2048 bit)
                Modulus:
                    00:cf:cf:a2:9e:1d:d3:ba:ff:11:57:9f:dd:bb:4d:
                    bd:dd:ee:14:76:1f:92:87:86:e2:21:52:79:01:c9:
                    52:b9:aa:d7:89:ac:1b:a9:34:99:b1:27:ea:a5:a0:
                    73:d7:e8:a4:07:e6:15:ee:4b:e8:51:f2:93:66:9e:
                    a6:2f:18:b0:c2:a5:6a:6f:01:ed:93:2e:a3:09:30:
                    23:35:52:1a:41:09:51:6a:55:63:90:39:67:e8:bc:
                    b9:7c:fc:2f:08:7a:46:1e:c4:ec:f0:52:53:99:b2:
                    e8:50:aa:df:15:75:13:02:22:82:c6:f6:a8:53:cd:
                    73:f0:05:b2:5d:7a:78:85:f8:a2:23:df:eb:61:86:
                    a9:bd:46:23:d1:f2:55:cd:55:56:1e:4a:07:e2:f2:
                    ad:b3:92:03:a0:c7:38:a0:bb:d2:ca:d6:da:23:9f:
                    2c:af:85:ca:24:85:dd:84:ff:e7:53:fc:05:87:da:
                    58:1a:34:24:6e:35:88:50:e8:f4:ca:30:0c:70:49:
                    58:1a:59:ec:b3:0a:02:ad:99:ff:ae:60:bf:99:a8:
                    60:a7:f9:0b:0c:de:e0:9a:8b:b1:ca:f8:de:4c:ed:
                    64:8e:77:d0:89:71:9e:de:02:a4:42:94:b6:dd:1c:
                    4f:ff:3a:71:c6:11:6d:85:5b:49:e9:c2:70:bd:94:
                    9b:37
                Exponent: 65537 (0x10001)
        X509v3 extensions:
            X509v3 Basic Constraints: 
                CA:FALSE
            X509v3 Subject Key Identifier: 
                F1:35:B8:90:83:7C:92:A0:5E:C8:2B:82:17:58:BA:EF:63:01:06:49
            X509v3 Authority Key Identifier: 
                keyid:CC:26:70:AC:F7:FE:A2:69:61:46:E9:9D:16:FA:07:F8:15:BC:5D:78
                DirName:/CN=team196-net
                serial:09:84:74:30:15:9C:D8:CC:15:12:66:2A:86:D5:A9:FB:37:C1:60:71
            X509v3 Extended Key Usage: 
                TLS Web Client Authentication
            X509v3 Key Usage: 
                Digital Signature
    Signature Algorithm: sha256WithRSAEncryption
    Signature Value:
        47:35:3e:68:36:b4:33:90:0d:08:4a:e7:a5:98:3e:d8:94:83:
        3e:45:a4:30:c6:12:48:f5:5e:12:6d:bc:b3:e7:74:8c:b8:44:
        9b:59:7e:75:b7:fa:63:35:40:68:e1:98:e0:fd:c5:8c:37:12:
        d1:4b:5a:ef:0b:00:1c:50:06:eb:57:b9:c7:64:c6:dc:6e:f2:
        b6:2d:92:e0:96:d7:a9:b9:93:e5:c8:58:3f:62:8d:19:f6:72:
        d2:31:5f:ac:9f:0c:9b:a6:4a:0f:08:65:e5:ce:eb:fc:39:be:
        13:b9:a1:fc:70:1a:c9:f2:bc:df:08:02:66:06:20:df:eb:47:
        d6:d8:1c:c3:04:34:17:a0:89:66:db:e6:86:4d:c8:57:51:68:
        35:1f:91:32:c2:4e:6b:54:fe:eb:c0:fd:4e:6c:27:60:18:2c:
        13:13:4e:cd:02:fd:89:24:0f:5b:e4:19:71:61:d5:46:e1:a3:
        9e:59:68:3d:ce:5a:d1:6c:c8:d7:3b:40:8e:a4:08:9a:4b:7b:
        ab:15:29:8a:3d:91:84:7b:66:a0:07:8b:1a:6e:e0:17:9c:ce:
        ff:6a:ef:30:ef:84:4a:5f:44:0b:d8:37:33:7f:64:70:90:0d:
        4b:dd:41:3d:29:56:05:c0:ed:14:ec:ae:26:d1:77:a6:53:6a:
        2e:02:9b:80
-----BEGIN CERTIFICATE-----
MIIDXTCCAkWgAwIBAgIRAKN9eycifbwlZczXxF2HNbMwDQYJKoZIhvcNAQELBQAw
FjEUMBIGA1UEAwwLdGVhbTE5Ni1uZXQwHhcNMjMxMTA0MTA0NDEzWhcNMjYxMDE5
MTA0NDEzWjAZMRcwFQYDVQQDDA50ZWFtMTk2LWNsaWVudDCCASIwDQYJKoZIhvcN
AQEBBQADggEPADCCAQoCggEBAM/Pop4d07r/EVef3btNvd3uFHYfkoeG4iFSeQHJ
Urmq14msG6k0mbEn6qWgc9fopAfmFe5L6FHyk2aepi8YsMKlam8B7ZMuowkwIzVS
GkEJUWpVY5A5Z+i8uXz8Lwh6Rh7E7PBSU5my6FCq3xV1EwIigsb2qFPNc/AFsl16
eIX4oiPf62GGqb1GI9HyVc1VVh5KB+LyrbOSA6DHOKC70srW2iOfLK+FyiSF3YT/
51P8BYfaWBo0JG41iFDo9MowDHBJWBpZ7LMKAq2Z/65gv5moYKf5Cwze4JqLscr4
3kztZI530Ilxnt4CpEKUtt0cT/86ccYRbYVbSenCcL2UmzcCAwEAAaOBojCBnzAJ
BgNVHRMEAjAAMB0GA1UdDgQWBBTxNbiQg3ySoF7IK4IXWLrvYwEGSTBRBgNVHSME
SjBIgBTMJnCs9/6iaWFG6Z0W+gf4FbxdeKEapBgwFjEUMBIGA1UEAwwLdGVhbTE5
Ni1uZXSCFAmEdDAVnNjMFRJmKobVqfs3wWBxMBMGA1UdJQQMMAoGCCsGAQUFBwMC
MAsGA1UdDwQEAwIHgDANBgkqhkiG9w0BAQsFAAOCAQEARzU+aDa0M5ANCErnpZg+
2JSDPkWkMMYSSPVeEm28s+d0jLhEm1l+dbf6YzVAaOGY4P3FjDcS0Uta7wsAHFAG
61e5x2TG3G7yti2S4JbXqbmT5chYP2KNGfZy0jFfrJ8Mm6ZKDwhl5c7r/Dm+E7mh
/HAayfK83wgCZgYg3+tH1tgcwwQ0F6CJZtvmhk3IV1FoNR+RMsJOa1T+68D9Tmwn
YBgsExNOzQL9iSQPW+QZcWHVRuGjnlloPc5a0WzI1ztAjqQImkt7qxUpij2RhHtm
oAeLGm7gF5zO/2rvMO+ESl9EC9g3M39kcJANS91BPSlWBcDtFOyuJtF3plNqLgKb
gA==
-----END CERTIFICATE-----
