Certificate:
    Data:
        Version: 3 (0x2)
        Serial Number:
            f8:94:40:a5:50:3f:a4:8c:44:58:b6:36:35:a3:69:41
        Signature Algorithm: sha256WithRSAEncryption
        Issuer: CN=team441-net
        Validity
            Not Before: Nov  3 20:47:15 2023 GMT
            Not After : Oct 18 20:47:15 2026 GMT
        Subject: CN=team441-client
        Subject Public Key Info:
            Public Key Algorithm: rsaEncryption
                Public-Key: (2048 bit)
                Modulus:
                    00:bc:c6:fe:8d:b3:fb:c8:74:60:fb:ce:ae:ad:fb:
                    a3:12:a7:cb:1a:e1:48:35:7f:14:f3:1c:46:78:4b:
                    9e:72:5b:8d:d0:88:73:21:25:9f:c3:30:b6:36:10:
                    42:38:b3:c5:25:8f:dd:56:94:25:46:5f:a4:3a:dd:
                    b5:3c:f1:b7:93:09:83:2c:54:f8:58:bc:20:b2:ee:
                    6a:92:fd:68:ca:7b:f1:63:b9:23:6c:26:85:88:ba:
                    03:05:9e:0a:b3:cc:e1:c7:e0:68:68:63:86:b2:71:
                    ee:7b:13:70:2a:02:2b:16:38:6e:67:9d:9a:97:91:
                    32:55:ed:7b:3f:43:4b:b8:a8:a3:ba:c5:09:30:cc:
                    cb:69:e2:da:68:f9:e6:c1:f7:ba:41:99:07:b4:e9:
                    c3:dd:0f:fe:80:d9:3d:87:ec:c2:32:7b:79:88:f5:
                    41:3a:33:71:13:e4:37:e8:fc:9f:5b:0f:0c:bf:b7:
                    57:4f:31:14:23:96:f2:59:88:a8:57:7b:7e:31:98:
                    f7:e0:56:02:59:6f:2d:5f:19:9a:76:22:b0:48:dc:
                    11:7f:c5:b5:b7:9d:b0:db:a9:43:47:8f:bc:f3:2d:
                    13:4f:3c:03:7f:53:9d:4c:55:af:07:ee:a8:4e:3a:
                    05:4d:07:43:3a:a9:59:6f:0f:1a:97:91:c2:64:7e:
                    e1:4d
                Exponent: 65537 (0x10001)
        X509v3 extensions:
            X509v3 Basic Constraints: 
                CA:FALSE
            X509v3 Subject Key Identifier: 
                1D:BA:BB:35:73:6A:20:44:AE:FE:A5:CC:A8:8C:36:25:8C:FE:3F:EF
            X509v3 Authority Key Identifier: 
                keyid:75:72:3F:E3:68:BF:AA:A8:7D:AB:D4:16:B1:2F:0A:36:D2:96:7B:9A
                DirName:/CN=team441-net
                serial:30:7C:88:63:50:8B:66:56:CF:C7:15:A7:02:9C:7C:36:AA:EB:32:23
            X509v3 Extended Key Usage: 
                TLS Web Client Authentication
            X509v3 Key Usage: 
                Digital Signature
    Signature Algorithm: sha256WithRSAEncryption
    Signature Value:
        34:a6:c9:a9:b7:75:49:8c:43:8f:fd:9c:18:b0:86:27:ca:98:
        78:72:1b:02:e6:5a:9c:75:df:af:32:f5:87:c4:17:0a:e5:ba:
        98:48:6b:f8:ec:c2:bd:42:fb:f8:68:f9:bf:68:3a:14:48:fb:
        a1:06:de:2d:1b:5e:c6:a7:f3:1c:e8:c3:0b:81:81:1a:1b:85:
        e0:5b:8e:c9:9b:88:3d:ea:0a:73:1b:0a:53:23:91:c0:3f:ac:
        9f:fb:78:62:be:38:2f:89:f2:81:77:cd:d5:cd:45:0c:27:f5:
        cf:45:fb:87:40:a2:13:e3:64:4f:d7:a1:75:b9:83:93:de:2b:
        1f:ea:51:b8:31:0c:ec:8c:94:e9:c4:ba:3b:51:33:d8:5c:f0:
        2c:42:7e:4c:f1:fe:a3:9b:45:21:d8:be:40:7d:c6:40:1c:b9:
        52:7d:e3:8b:bb:69:42:62:2c:18:c9:11:27:65:32:fb:4f:a2:
        23:b7:2d:47:77:c0:86:c0:64:d4:5d:2c:df:19:d5:cd:d2:c8:
        44:68:a8:15:bc:b2:81:07:1c:59:5d:cb:2a:48:ab:c7:78:0a:
        dd:b7:d0:13:41:20:1b:b7:92:e8:21:5a:ec:0d:7b:4a:2f:37:
        4c:12:2d:c0:16:3f:98:f3:a8:37:57:8f:d6:9e:11:23:b8:b2:
        09:14:dd:d8
-----BEGIN CERTIFICATE-----
MIIDXTCCAkWgAwIBAgIRAPiUQKVQP6SMRFi2NjWjaUEwDQYJKoZIhvcNAQELBQAw
FjEUMBIGA1UEAwwLdGVhbTQ0MS1uZXQwHhcNMjMxMTAzMjA0NzE1WhcNMjYxMDE4
MjA0NzE1WjAZMRcwFQYDVQQDDA50ZWFtNDQxLWNsaWVudDCCASIwDQYJKoZIhvcN
AQEBBQADggEPADCCAQoCggEBALzG/o2z+8h0YPvOrq37oxKnyxrhSDV/FPMcRnhL
nnJbjdCIcyEln8MwtjYQQjizxSWP3VaUJUZfpDrdtTzxt5MJgyxU+Fi8ILLuapL9
aMp78WO5I2wmhYi6AwWeCrPM4cfgaGhjhrJx7nsTcCoCKxY4bmedmpeRMlXtez9D
S7ioo7rFCTDMy2ni2mj55sH3ukGZB7Tpw90P/oDZPYfswjJ7eYj1QTozcRPkN+j8
n1sPDL+3V08xFCOW8lmIqFd7fjGY9+BWAllvLV8ZmnYisEjcEX/FtbedsNupQ0eP
vPMtE088A39TnUxVrwfuqE46BU0HQzqpWW8PGpeRwmR+4U0CAwEAAaOBojCBnzAJ
BgNVHRMEAjAAMB0GA1UdDgQWBBQdurs1c2ogRK7+pcyojDYljP4/7zBRBgNVHSME
SjBIgBR1cj/jaL+qqH2r1BaxLwo20pZ7mqEapBgwFjEUMBIGA1UEAwwLdGVhbTQ0
MS1uZXSCFDB8iGNQi2ZWz8cVpwKcfDaq6zIjMBMGA1UdJQQMMAoGCCsGAQUFBwMC
MAsGA1UdDwQEAwIHgDANBgkqhkiG9w0BAQsFAAOCAQEANKbJqbd1SYxDj/2cGLCG
J8qYeHIbAuZanHXfrzL1h8QXCuW6mEhr+OzCvUL7+Gj5v2g6FEj7oQbeLRtexqfz
HOjDC4GBGhuF4FuOyZuIPeoKcxsKUyORwD+sn/t4Yr44L4nygXfN1c1FDCf1z0X7
h0CiE+NkT9ehdbmDk94rH+pRuDEM7IyU6cS6O1Ez2FzwLEJ+TPH+o5tFIdi+QH3G
QBy5Un3ji7tpQmIsGMkRJ2Uy+0+iI7ctR3fAhsBk1F0s3xnVzdLIRGioFbyygQcc
WV3LKkirx3gK3bfQE0EgG7eS6CFa7A17Si83TBItwBY/mPOoN1eP1p4RI7iyCRTd
2A==
-----END CERTIFICATE-----
