Certificate:
    Data:
        Version: 3 (0x2)
        Serial Number:
            6c:b7:c3:3a:a5:cf:83:eb:fc:c1:95:04:af:fa:d1:7b
        Signature Algorithm: sha256WithRSAEncryption
        Issuer: CN=team218-net
        Validity
            Not Before: Nov  3 20:43:18 2023 GMT
            Not After : Oct 18 20:43:18 2026 GMT
        Subject: CN=team218-server
        Subject Public Key Info:
            Public Key Algorithm: rsaEncryption
                Public-Key: (2048 bit)
                Modulus:
                    00:b9:14:58:0e:b2:1c:06:84:fb:91:99:6b:4e:47:
                    05:99:b4:31:d6:95:fc:f1:12:8d:71:24:1b:c6:a0:
                    58:a6:1c:a5:91:27:a5:78:66:56:6c:99:88:aa:78:
                    43:1a:0d:53:47:ef:e5:39:ab:4b:19:7c:d7:dd:a0:
                    43:aa:e6:42:fd:15:ee:6e:a1:f4:2f:fa:b0:76:7f:
                    ab:5c:43:d8:7e:8a:75:6b:c4:f1:ce:ad:12:d6:dd:
                    94:97:96:de:30:71:86:fb:7a:b3:d8:72:9d:8b:55:
                    ef:1a:95:f5:57:f1:73:9e:0f:6c:fb:08:09:13:53:
                    34:63:0f:43:6d:c5:ad:7e:79:a7:52:1b:48:b0:6b:
                    05:13:83:cf:5c:96:7e:16:93:72:18:ac:ec:dd:00:
                    bd:59:6b:4d:1c:80:91:3f:f4:3e:1b:6f:b3:ed:75:
                    f5:57:f8:ed:44:d8:69:46:f4:2b:d4:5a:b9:94:42:
                    47:9d:33:37:ab:06:84:98:ab:21:57:e1:7a:1c:60:
                    c4:74:86:fe:98:e2:91:d2:88:fd:69:34:f2:bd:b0:
                    ce:30:3f:4f:26:3e:3c:49:2e:df:3b:1d:fc:ed:be:
                    a0:75:fd:ab:4b:08:01:43:2b:59:c4:2e:c3:62:8b:
                    13:be:d5:d5:4c:a5:6b:dd:04:53:59:36:ea:b2:98:
                    c6:05
                Exponent: 65537 (0x10001)
        X509v3 extensions:
            X509v3 Basic Constraints: 
                CA:FALSE
            X509v3 Subject Key Identifier: 
                1A:FB:EB:EF:AF:D5:D6:5A:5B:20:DD:9B:43:F7:EF:7B:0A:08:95:F8
            X509v3 Authority Key Identifier: 
                keyid:91:4F:90:AC:F1:BC:77:50:8D:CD:18:50:5F:24:59:2A:DA:2B:01:1B
                DirName:/CN=team218-net
                serial:21:8E:34:D2:92:71:AC:11:E3:E0:3C:35:CE:F1:75:7A:E5:44:0D:1A
            X509v3 Extended Key Usage: 
                TLS Web Server Authentication
            X509v3 Key Usage: 
                Digital Signature, Key Encipherment
            X509v3 Subject Alternative Name: 
                DNS:team218-server
    Signature Algorithm: sha256WithRSAEncryption
    Signature Value:
        31:6e:ce:41:84:55:0d:aa:28:35:f0:76:b4:57:f1:9c:6d:35:
        22:0f:34:36:d1:65:e1:63:2a:a5:15:1d:12:b0:a9:0e:c2:a4:
        89:ac:f7:c0:87:84:9a:99:0e:01:fe:48:fc:fe:c7:bf:c2:3a:
        e7:0b:d8:45:1e:8f:8d:be:25:aa:81:2d:fa:31:8d:a1:76:71:
        03:3f:31:d2:94:ee:7f:32:48:0a:0f:b8:9d:61:dd:07:e2:e9:
        10:a3:bd:1c:88:25:5c:b8:d5:6f:d5:61:71:9c:48:f3:17:bf:
        ae:c5:d0:a2:59:e7:be:0f:84:fb:20:fb:77:fd:a8:df:50:31:
        68:92:3b:cd:85:19:ea:a4:6a:44:8c:20:1d:f7:97:0f:40:42:
        8d:f5:de:3f:a7:7e:90:7e:ff:ff:ba:e9:03:03:2e:0a:09:db:
        b0:96:2e:dc:25:13:b3:9b:cb:75:31:81:19:b4:5d:01:21:7f:
        a1:45:fc:5a:a1:d9:d2:14:28:63:3b:5b:16:04:c2:8c:62:61:
        01:32:ed:0e:55:bf:f8:ed:90:5c:ab:b4:09:10:a5:01:19:d8:
        b3:d5:2e:55:8a:c2:c1:8b:d3:88:a8:a0:55:3b:99:58:6d:e1:
        9c:e9:b2:cf:81:ca:47:5f:fc:d9:04:fe:76:22:1a:ee:6f:91:
        bb:b7:2d:cf
-----BEGIN CERTIFICATE-----
MIIDdzCCAl+gAwIBAgIQbLfDOqXPg+v8wZUEr/rRezANBgkqhkiG9w0BAQsFADAW
MRQwEgYDVQQDDAt0ZWFtMjE4LW5ldDAeFw0yMzExMDMyMDQzMThaFw0yNjEwMTgy
MDQzMThaMBkxFzAVBgNVBAMMDnRlYW0yMTgtc2VydmVyMIIBIjANBgkqhkiG9w0B
AQEFAAOCAQ8AMIIBCgKCAQEAuRRYDrIcBoT7kZlrTkcFmbQx1pX88RKNcSQbxqBY
phylkSeleGZWbJmIqnhDGg1TR+/lOatLGXzX3aBDquZC/RXubqH0L/qwdn+rXEPY
fop1a8Txzq0S1t2Ul5beMHGG+3qz2HKdi1XvGpX1V/Fzng9s+wgJE1M0Yw9DbcWt
fnmnUhtIsGsFE4PPXJZ+FpNyGKzs3QC9WWtNHICRP/Q+G2+z7XX1V/jtRNhpRvQr
1Fq5lEJHnTM3qwaEmKshV+F6HGDEdIb+mOKR0oj9aTTyvbDOMD9PJj48SS7fOx38
7b6gdf2rSwgBQytZxC7DYosTvtXVTKVr3QRTWTbqspjGBQIDAQABo4G9MIG6MAkG
A1UdEwQCMAAwHQYDVR0OBBYEFBr76++v1dZaWyDdm0P373sKCJX4MFEGA1UdIwRK
MEiAFJFPkKzxvHdQjc0YUF8kWSraKwEboRqkGDAWMRQwEgYDVQQDDAt0ZWFtMjE4
LW5ldIIUIY400pJxrBHj4Dw1zvF1euVEDRowEwYDVR0lBAwwCgYIKwYBBQUHAwEw
CwYDVR0PBAQDAgWgMBkGA1UdEQQSMBCCDnRlYW0yMTgtc2VydmVyMA0GCSqGSIb3
DQEBCwUAA4IBAQAxbs5BhFUNqig18Ha0V/GcbTUiDzQ20WXhYyqlFR0SsKkOwqSJ
rPfAh4SamQ4B/kj8/se/wjrnC9hFHo+NviWqgS36MY2hdnEDPzHSlO5/MkgKD7id
Yd0H4ukQo70ciCVcuNVv1WFxnEjzF7+uxdCiWee+D4T7IPt3/ajfUDFokjvNhRnq
pGpEjCAd95cPQEKN9d4/p36Qfv//uukDAy4KCduwli7cJROzm8t1MYEZtF0BIX+h
RfxaodnSFChjO1sWBMKMYmEBMu0OVb/47ZBcq7QJEKUBGdiz1S5VisLBi9OIqKBV
O5lYbeGc6bLPgcpHX/zZBP52Ihrub5G7ty3P
-----END CERTIFICATE-----
