Certificate:
    Data:
        Version: 3 (0x2)
        Serial Number:
            6b:bd:24:90:9b:7d:a1:5c:04:61:83:36:f5:24:cb:39
        Signature Algorithm: sha256WithRSAEncryption
        Issuer: CN=team237-net
        Validity
            Not Before: Nov  4 11:32:15 2023 GMT
            Not After : Oct 19 11:32:15 2026 GMT
        Subject: CN=team237-server
        Subject Public Key Info:
            Public Key Algorithm: rsaEncryption
                Public-Key: (2048 bit)
                Modulus:
                    00:ba:ff:db:85:5e:68:68:1a:14:2f:77:f6:5f:41:
                    36:d5:df:e5:cc:c0:39:95:40:f1:7b:55:53:45:29:
                    ca:21:68:82:38:6e:71:43:b9:c7:11:76:e3:08:20:
                    7c:08:c8:9b:a4:ee:f1:5b:d5:aa:b0:d9:0b:37:ba:
                    de:5c:12:83:2f:61:33:2c:34:43:d5:90:76:60:27:
                    14:78:b1:2f:53:69:5d:37:ef:2a:6f:e1:5b:2d:f5:
                    9b:4b:b8:61:d7:f8:f4:60:8a:ee:e2:23:d1:af:3f:
                    b3:f2:6f:24:43:b8:78:a0:7c:94:7d:09:28:fe:c0:
                    5c:c3:e8:c9:29:c3:45:f1:33:c5:87:49:8e:58:4c:
                    db:16:c3:2a:ea:12:fc:37:11:bb:43:fe:b1:0d:93:
                    02:a1:d1:fe:e2:fd:0e:5c:7a:68:bf:11:e5:94:38:
                    91:de:f5:4d:22:61:77:af:27:f1:7c:a8:6d:f8:a2:
                    2c:e7:97:65:2c:9a:b2:da:ed:72:51:e7:15:89:0a:
                    6e:91:1d:d2:f9:d2:7e:6e:72:27:3f:0b:75:55:16:
                    74:a4:e1:83:c8:fc:30:22:35:a9:57:43:45:a6:8b:
                    49:bf:e2:12:d0:b8:72:25:df:c5:6d:9a:1d:5a:d9:
                    90:59:0f:a4:96:96:ae:2f:fe:9e:0e:e5:17:86:45:
                    3a:61
                Exponent: 65537 (0x10001)
        X509v3 extensions:
            X509v3 Basic Constraints: 
                CA:FALSE
            X509v3 Subject Key Identifier: 
                70:4D:B5:95:65:D0:B0:09:C2:83:42:BC:A1:1F:07:26:27:16:B7:37
            X509v3 Authority Key Identifier: 
                keyid:30:33:A2:79:99:A1:E0:9F:0F:AD:29:16:04:E6:7E:7D:F2:EF:43:E5
                DirName:/CN=team237-net
                serial:50:F7:B6:48:B0:24:97:58:4B:A8:09:91:ED:94:01:14:E9:44:69:C2
            X509v3 Extended Key Usage: 
                TLS Web Server Authentication
            X509v3 Key Usage: 
                Digital Signature, Key Encipherment
            X509v3 Subject Alternative Name: 
                DNS:team237-server
    Signature Algorithm: sha256WithRSAEncryption
    Signature Value:
        16:4f:bd:7d:ce:0a:01:0e:85:7f:d5:93:3b:42:14:6f:14:42:
        e6:e3:29:1d:fd:da:df:69:f2:45:7c:7d:e3:b1:7d:4d:65:16:
        51:14:56:ef:28:d9:32:e7:33:6f:ea:13:f8:c0:cf:f5:d9:b6:
        5b:60:36:fb:d6:a3:be:2b:21:0e:40:48:6a:de:3d:17:0d:fa:
        49:30:e7:6c:70:56:42:90:a3:fe:87:61:52:f1:48:ab:97:57:
        0a:83:7f:86:ad:3c:d5:9a:74:59:7c:76:b7:49:dd:3f:8b:ba:
        82:2a:18:3e:33:25:4b:c4:08:ff:b8:e7:48:0f:cc:f1:47:33:
        90:5b:9f:a3:29:2f:db:1b:36:6f:2a:15:9d:9f:8a:42:88:fa:
        7c:25:ff:fe:7e:96:03:27:91:f3:eb:d3:f4:39:50:a2:1c:34:
        be:05:db:95:79:4c:d1:f5:e2:65:d2:98:85:05:ce:ee:d0:d7:
        f5:b0:b6:85:5b:f8:b9:06:bf:d7:aa:0e:5e:0c:da:10:ff:c0:
        8d:93:89:d3:2f:a7:ef:0f:af:6d:b9:80:79:8b:c4:01:ca:09:
        56:d6:4f:c9:7e:23:71:5f:6e:4b:73:de:d7:59:c0:55:89:72:
        76:8d:f7:0a:2b:f2:47:31:6c:05:de:cf:ee:68:56:4f:36:b5:
        f6:6f:5e:43
-----BEGIN CERTIFICATE-----
MIIDdzCCAl+gAwIBAgIQa70kkJt9oVwEYYM29STLOTANBgkqhkiG9w0BAQsFADAW
MRQwEgYDVQQDDAt0ZWFtMjM3LW5ldDAeFw0yMzExMDQxMTMyMTVaFw0yNjEwMTkx
MTMyMTVaMBkxFzAVBgNVBAMMDnRlYW0yMzctc2VydmVyMIIBIjANBgkqhkiG9w0B
AQEFAAOCAQ8AMIIBCgKCAQEAuv/bhV5oaBoUL3f2X0E21d/lzMA5lUDxe1VTRSnK
IWiCOG5xQ7nHEXbjCCB8CMibpO7xW9WqsNkLN7reXBKDL2EzLDRD1ZB2YCcUeLEv
U2ldN+8qb+FbLfWbS7hh1/j0YIru4iPRrz+z8m8kQ7h4oHyUfQko/sBcw+jJKcNF
8TPFh0mOWEzbFsMq6hL8NxG7Q/6xDZMCodH+4v0OXHpovxHllDiR3vVNImF3ryfx
fKht+KIs55dlLJqy2u1yUecViQpukR3S+dJ+bnInPwt1VRZ0pOGDyPwwIjWpV0NF
potJv+IS0LhyJd/FbZodWtmQWQ+klpauL/6eDuUXhkU6YQIDAQABo4G9MIG6MAkG
A1UdEwQCMAAwHQYDVR0OBBYEFHBNtZVl0LAJwoNCvKEfByYnFrc3MFEGA1UdIwRK
MEiAFDAzonmZoeCfD60pFgTmfn3y70PloRqkGDAWMRQwEgYDVQQDDAt0ZWFtMjM3
LW5ldIIUUPe2SLAkl1hLqAmR7ZQBFOlEacIwEwYDVR0lBAwwCgYIKwYBBQUHAwEw
CwYDVR0PBAQDAgWgMBkGA1UdEQQSMBCCDnRlYW0yMzctc2VydmVyMA0GCSqGSIb3
DQEBCwUAA4IBAQAWT719zgoBDoV/1ZM7QhRvFELm4ykd/drfafJFfH3jsX1NZRZR
FFbvKNky5zNv6hP4wM/12bZbYDb71qO+KyEOQEhq3j0XDfpJMOdscFZCkKP+h2FS
8Uirl1cKg3+GrTzVmnRZfHa3Sd0/i7qCKhg+MyVLxAj/uOdID8zxRzOQW5+jKS/b
GzZvKhWdn4pCiPp8Jf/+fpYDJ5Hz69P0OVCiHDS+BduVeUzR9eJl0piFBc7u0Nf1
sLaFW/i5Br/Xqg5eDNoQ/8CNk4nTL6fvD69tuYB5i8QByglW1k/JfiNxX25Lc97X
WcBViXJ2jfcKK/JHMWwF3s/uaFZPNrX2b15D
-----END CERTIFICATE-----
