Certificate:
    Data:
        Version: 3 (0x2)
        Serial Number:
            85:5e:36:f7:27:80:59:d5:77:6d:fc:2b:d3:91:4f:3d
        Signature Algorithm: sha256WithRSAEncryption
        Issuer: CN=team237-net
        Validity
            Not Before: Nov  4 10:45:04 2023 GMT
            Not After : Oct 19 10:45:04 2026 GMT
        Subject: CN=team237-client
        Subject Public Key Info:
            Public Key Algorithm: rsaEncryption
                Public-Key: (2048 bit)
                Modulus:
                    00:a8:19:b7:2b:71:5a:c4:04:61:ea:3f:bc:be:bb:
                    e3:f7:79:2d:d3:e7:bd:76:56:c5:05:3e:8a:f9:46:
                    c6:2e:12:42:19:11:ce:93:aa:e2:ee:45:5e:74:fb:
                    30:8e:91:03:df:88:c3:ef:2e:67:2b:9c:18:6f:f5:
                    84:90:50:13:c2:68:88:1a:7e:c0:cf:e0:f2:a0:03:
                    d8:1c:34:ab:cb:24:5d:c2:f7:2d:31:2e:b9:50:86:
                    98:19:a0:9f:53:18:55:0b:02:9b:ad:41:25:74:59:
                    1e:b3:97:4b:8b:e9:8b:30:b3:63:0b:11:82:2f:7b:
                    55:97:82:fc:66:f9:e6:4f:fb:7a:70:91:df:77:02:
                    9f:ce:c4:ea:14:7d:5f:66:d6:b8:b7:6b:5c:4b:be:
                    83:96:4c:98:8a:23:6b:fe:f5:d1:6e:78:04:99:6e:
                    75:76:3a:fd:73:ea:31:9c:4a:58:96:27:dc:e8:24:
                    a2:2d:a1:cd:03:88:52:1d:32:6b:0a:49:ec:b1:83:
                    37:59:9b:51:1f:e1:18:ee:a2:5a:8e:3a:79:65:4c:
                    a3:0f:0c:ee:fb:85:04:97:a0:f4:be:d9:7c:87:49:
                    65:f6:0f:18:db:1e:71:34:f7:d8:55:48:8d:78:5f:
                    50:0e:a0:04:36:c3:8d:7d:41:29:a4:5b:0f:97:0f:
                    05:31
                Exponent: 65537 (0x10001)
        X509v3 extensions:
            X509v3 Basic Constraints: 
                CA:FALSE
            X509v3 Subject Key Identifier: 
                4E:48:30:74:F0:8F:78:93:93:14:4E:83:48:FA:A0:82:BB:FA:2C:61
            X509v3 Authority Key Identifier: 
                keyid:9F:C2:E9:8D:3C:D6:36:6A:77:66:9C:7C:49:7F:2E:4B:37:E5:56:B7
                DirName:/CN=team237-net
                serial:24:12:72:9A:10:94:B8:1F:33:6C:C1:68:06:BC:02:70:E6:3B:AE:81
            X509v3 Extended Key Usage: 
                TLS Web Client Authentication
            X509v3 Key Usage: 
                Digital Signature
    Signature Algorithm: sha256WithRSAEncryption
    Signature Value:
        0c:42:3a:71:60:79:01:16:0b:48:e2:bd:5c:a3:ed:2c:25:03:
        30:7b:50:dd:ba:45:9a:14:90:08:80:f7:1c:12:eb:f3:14:15:
        e5:52:1e:08:e1:d3:5d:14:d9:ac:c1:58:47:27:55:7e:c8:f8:
        8a:6a:d5:50:d4:e7:b5:00:54:eb:bb:ce:ec:41:80:32:d8:32:
        fa:9d:84:f5:da:21:de:af:d9:d4:62:8a:7d:83:0c:7e:1e:76:
        3d:27:c5:98:8e:19:73:a3:93:10:b3:15:65:41:e6:50:87:ce:
        47:95:7f:a8:1d:03:2e:d3:1c:14:86:11:a5:0f:ac:2d:3d:e4:
        b3:8b:17:73:fd:ab:b3:1a:6e:fa:23:6c:a8:97:a9:6d:19:52:
        4e:f2:6c:78:f5:38:2c:bf:0b:a9:81:a6:ec:f9:e6:d9:9c:e3:
        79:14:16:f4:1d:1d:f9:2a:56:5c:b0:c2:5b:27:bf:7c:3d:33:
        03:a0:e5:e1:7e:9a:ac:95:00:09:60:7c:53:9f:a6:94:8f:09:
        df:aa:5c:51:9a:66:2c:cb:92:ef:5b:89:4d:3b:fb:aa:7b:e9:
        21:d2:0d:70:e2:73:c8:c5:da:98:87:a4:eb:7d:b7:2f:b0:84:
        e3:d6:1d:61:be:f8:bf:6b:80:83:bc:57:5a:db:da:c6:86:1f:
        7a:08:bc:c7
-----BEGIN CERTIFICATE-----
MIIDXTCCAkWgAwIBAgIRAIVeNvcngFnVd238K9ORTz0wDQYJKoZIhvcNAQELBQAw
FjEUMBIGA1UEAwwLdGVhbTIzNy1uZXQwHhcNMjMxMTA0MTA0NTA0WhcNMjYxMDE5
MTA0NTA0WjAZMRcwFQYDVQQDDA50ZWFtMjM3LWNsaWVudDCCASIwDQYJKoZIhvcN
AQEBBQADggEPADCCAQoCggEBAKgZtytxWsQEYeo/vL674/d5LdPnvXZWxQU+ivlG
xi4SQhkRzpOq4u5FXnT7MI6RA9+Iw+8uZyucGG/1hJBQE8JoiBp+wM/g8qAD2Bw0
q8skXcL3LTEuuVCGmBmgn1MYVQsCm61BJXRZHrOXS4vpizCzYwsRgi97VZeC/Gb5
5k/7enCR33cCn87E6hR9X2bWuLdrXEu+g5ZMmIoja/710W54BJludXY6/XPqMZxK
WJYn3Ogkoi2hzQOIUh0yawpJ7LGDN1mbUR/hGO6iWo46eWVMow8M7vuFBJeg9L7Z
fIdJZfYPGNsecTT32FVIjXhfUA6gBDbDjX1BKaRbD5cPBTECAwEAAaOBojCBnzAJ
BgNVHRMEAjAAMB0GA1UdDgQWBBROSDB08I94k5MUToNI+qCCu/osYTBRBgNVHSME
SjBIgBSfwumNPNY2andmnHxJfy5LN+VWt6EapBgwFjEUMBIGA1UEAwwLdGVhbTIz
Ny1uZXSCFCQScpoQlLgfM2zBaAa8AnDmO66BMBMGA1UdJQQMMAoGCCsGAQUFBwMC
MAsGA1UdDwQEAwIHgDANBgkqhkiG9w0BAQsFAAOCAQEADEI6cWB5ARYLSOK9XKPt
LCUDMHtQ3bpFmhSQCID3HBLr8xQV5VIeCOHTXRTZrMFYRydVfsj4imrVUNTntQBU
67vO7EGAMtgy+p2E9doh3q/Z1GKKfYMMfh52PSfFmI4Zc6OTELMVZUHmUIfOR5V/
qB0DLtMcFIYRpQ+sLT3ks4sXc/2rsxpu+iNsqJepbRlSTvJsePU4LL8LqYGm7Pnm
2ZzjeRQW9B0d+SpWXLDCWye/fD0zA6Dl4X6arJUACWB8U5+mlI8J36pcUZpmLMuS
71uJTTv7qnvpIdINcOJzyMXamIek6323L7CE49YdYb74v2uAg7xXWtvaxoYfegi8
xw==
-----END CERTIFICATE-----
