Certificate:
    Data:
        Version: 3 (0x2)
        Serial Number:
            b8:7d:01:f4:dd:48:7f:4f:dc:5c:41:d6:0a:82:39:6b
        Signature Algorithm: sha256WithRSAEncryption
        Issuer: CN=team237-net
        Validity
            Not Before: Nov  3 20:43:38 2023 GMT
            Not After : Oct 18 20:43:38 2026 GMT
        Subject: CN=team237-server
        Subject Public Key Info:
            Public Key Algorithm: rsaEncryption
                Public-Key: (2048 bit)
                Modulus:
                    00:aa:17:c9:71:6e:06:a8:db:84:0b:45:9c:6d:07:
                    85:eb:b2:a9:c7:95:1b:46:c7:60:bb:ea:9c:ff:86:
                    62:19:5d:63:99:f4:9b:35:22:09:f0:c3:21:5b:11:
                    ae:b6:ec:31:c9:a6:5b:04:a9:f0:c1:fc:8a:2f:77:
                    33:0a:5c:a1:47:49:81:fd:4c:80:c0:5e:24:37:6a:
                    36:fe:d7:bf:85:8c:e1:7e:eb:28:7c:31:68:83:8d:
                    05:bd:f0:af:6d:56:90:78:ce:ee:5c:2c:a1:13:57:
                    55:89:33:49:85:ba:ef:38:ca:a8:96:c1:c4:cc:16:
                    da:ed:2b:df:e2:e2:08:1c:3d:ad:39:5d:c8:1c:7c:
                    6a:1e:fc:f4:f4:a2:cf:09:e1:26:42:9e:e3:21:44:
                    55:32:f5:39:f5:e4:f2:8b:8b:c6:1c:e3:99:f4:fb:
                    f9:16:0a:6e:2e:68:74:3c:bd:92:3a:26:2e:52:31:
                    e6:7e:1e:3e:bc:4a:05:ae:23:bb:0c:43:be:bb:a0:
                    d1:ee:f0:51:ab:93:4d:4d:30:7a:cf:ad:d5:8b:33:
                    f4:c1:f6:bf:3c:e9:62:20:c7:dc:b7:68:cf:6f:c7:
                    c6:c1:3b:a6:fc:5a:16:9e:a0:79:3e:e8:6e:ec:8c:
                    ce:fd:51:82:96:c1:f5:1f:62:11:5b:bb:ca:f6:9b:
                    75:6b
                Exponent: 65537 (0x10001)
        X509v3 extensions:
            X509v3 Basic Constraints: 
                CA:FALSE
            X509v3 Subject Key Identifier: 
                A4:19:26:79:88:C0:F9:22:DF:81:8B:20:00:F1:04:E1:E4:17:8E:3B
            X509v3 Authority Key Identifier: 
                keyid:A3:85:A1:8C:60:EE:AB:54:00:80:1A:5A:BC:E7:27:D4:4A:B5:02:8C
                DirName:/CN=team237-net
                serial:14:B0:D5:48:32:45:76:5C:16:6D:A1:4E:D4:91:2A:19:C3:15:E6:91
            X509v3 Extended Key Usage: 
                TLS Web Server Authentication
            X509v3 Key Usage: 
                Digital Signature, Key Encipherment
            X509v3 Subject Alternative Name: 
                DNS:team237-server
    Signature Algorithm: sha256WithRSAEncryption
    Signature Value:
        56:0a:a3:d4:5f:57:5e:54:66:92:c3:76:f5:4b:8c:be:6a:9a:
        04:42:38:9e:8c:be:63:ef:5b:76:ad:12:4d:0a:a9:86:ce:36:
        7b:e4:60:a0:41:29:17:e4:b4:82:a2:5b:51:c6:c5:c3:df:e9:
        a2:8e:af:19:2a:0d:88:af:fd:89:48:fd:85:f0:5b:f3:a5:22:
        0d:15:ca:f4:1c:05:50:91:aa:cc:4c:a1:49:6a:75:26:ae:57:
        c9:f4:e4:81:3d:e1:a8:c8:76:54:ec:ee:cd:16:cd:4e:69:b6:
        5d:71:7a:be:88:5e:88:5c:8a:71:af:1c:31:7c:5f:d2:2a:f7:
        ea:25:e0:45:c0:7b:a3:3b:3d:cc:45:9c:b7:80:32:a0:2e:b5:
        d7:26:e5:8c:b2:bb:26:95:59:37:8d:23:32:b5:4b:62:18:ac:
        94:79:8b:d3:d3:e2:66:f4:4e:18:54:75:0c:09:70:bd:a1:eb:
        f9:95:3b:22:fd:d5:3d:5f:7f:e8:f9:11:3d:1a:53:2c:bb:5d:
        9d:58:4d:33:11:3b:a5:90:a0:a6:1c:d5:17:0a:f6:3c:b7:bd:
        5b:8b:bb:85:b7:4d:ec:b4:9b:a0:62:d1:68:c8:bf:65:c7:87:
        d9:9a:b4:d4:45:11:34:bf:16:a2:70:2b:06:9a:0e:11:5c:b6:
        ea:fc:52:fa
-----BEGIN CERTIFICATE-----
MIIDeDCCAmCgAwIBAgIRALh9AfTdSH9P3FxB1gqCOWswDQYJKoZIhvcNAQELBQAw
FjEUMBIGA1UEAwwLdGVhbTIzNy1uZXQwHhcNMjMxMTAzMjA0MzM4WhcNMjYxMDE4
MjA0MzM4WjAZMRcwFQYDVQQDDA50ZWFtMjM3LXNlcnZlcjCCASIwDQYJKoZIhvcN
AQEBBQADggEPADCCAQoCggEBAKoXyXFuBqjbhAtFnG0HheuyqceVG0bHYLvqnP+G
YhldY5n0mzUiCfDDIVsRrrbsMcmmWwSp8MH8ii93MwpcoUdJgf1MgMBeJDdqNv7X
v4WM4X7rKHwxaIONBb3wr21WkHjO7lwsoRNXVYkzSYW67zjKqJbBxMwW2u0r3+Li
CBw9rTldyBx8ah789PSizwnhJkKe4yFEVTL1OfXk8ouLxhzjmfT7+RYKbi5odDy9
kjomLlIx5n4ePrxKBa4juwxDvrug0e7wUauTTU0wes+t1Ysz9MH2vzzpYiDH3Ldo
z2/HxsE7pvxaFp6geT7obuyMzv1RgpbB9R9iEVu7yvabdWsCAwEAAaOBvTCBujAJ
BgNVHRMEAjAAMB0GA1UdDgQWBBSkGSZ5iMD5It+BiyAA8QTh5BeOOzBRBgNVHSME
SjBIgBSjhaGMYO6rVACAGlq85yfUSrUCjKEapBgwFjEUMBIGA1UEAwwLdGVhbTIz
Ny1uZXSCFBSw1UgyRXZcFm2hTtSRKhnDFeaRMBMGA1UdJQQMMAoGCCsGAQUFBwMB
MAsGA1UdDwQEAwIFoDAZBgNVHREEEjAQgg50ZWFtMjM3LXNlcnZlcjANBgkqhkiG
9w0BAQsFAAOCAQEAVgqj1F9XXlRmksN29UuMvmqaBEI4noy+Y+9bdq0STQqphs42
e+RgoEEpF+S0gqJbUcbFw9/poo6vGSoNiK/9iUj9hfBb86UiDRXK9BwFUJGqzEyh
SWp1Jq5XyfTkgT3hqMh2VOzuzRbNTmm2XXF6voheiFyKca8cMXxf0ir36iXgRcB7
ozs9zEWct4AyoC611ybljLK7JpVZN40jMrVLYhislHmL09PiZvROGFR1DAlwvaHr
+ZU7Iv3VPV9/6PkRPRpTLLtdnVhNMxE7pZCgphzVFwr2PLe9W4u7hbdN7LSboGLR
aMi/ZceH2Zq01EURNL8WonArBpoOEVy26vxS+g==
-----END CERTIFICATE-----
