Certificate:
    Data:
        Version: 3 (0x2)
        Serial Number:
            ba:d8:41:bd:e1:35:67:d5:20:58:da:fe:3d:25:b5:bb
        Signature Algorithm: sha256WithRSAEncryption
        Issuer: CN=team237-net
        Validity
            Not Before: Nov  4 10:45:04 2023 GMT
            Not After : Oct 19 10:45:04 2026 GMT
        Subject: CN=team237-server
        Subject Public Key Info:
            Public Key Algorithm: rsaEncryption
                Public-Key: (2048 bit)
                Modulus:
                    00:ac:d8:77:20:cf:82:c2:b2:e0:d7:d7:70:dd:cc:
                    db:2a:5a:1c:0f:1e:e2:2e:44:8c:04:2c:e7:b6:e1:
                    96:f3:02:72:41:33:c7:3c:44:fe:dd:52:41:db:ca:
                    21:d7:b1:7c:b8:df:0e:88:90:d1:57:21:de:49:ca:
                    d9:fb:15:59:57:1b:53:e3:b4:c6:b8:0b:67:2f:13:
                    50:dc:21:86:d1:63:48:e8:6c:1b:31:52:ca:db:23:
                    9e:a9:1d:37:73:a1:67:b4:2b:e7:72:44:85:0d:f3:
                    8f:fc:06:83:a0:d0:de:89:60:99:ad:f4:a5:cc:a4:
                    dc:7d:e9:2c:fc:1f:4c:d8:92:9b:a2:63:10:4d:a3:
                    22:2c:92:8b:db:7f:56:66:e2:fc:bd:65:70:19:a9:
                    30:01:33:6f:5e:ce:c1:99:c0:38:02:c0:88:bf:0c:
                    bb:03:c3:4d:a6:12:f8:6c:7e:94:b6:0e:1d:91:4d:
                    44:06:35:da:b8:ea:36:20:05:74:39:8b:82:65:81:
                    74:6c:06:ff:c4:49:ca:00:e6:a5:87:c8:5e:48:92:
                    1a:64:e5:04:b8:2d:34:85:e8:84:16:79:2d:fd:1c:
                    ab:7c:0d:2c:45:19:b3:6d:fa:52:42:e1:43:a6:6b:
                    3c:29:47:3a:ed:9f:71:0b:cb:b9:74:1f:a9:e7:27:
                    e3:5b
                Exponent: 65537 (0x10001)
        X509v3 extensions:
            X509v3 Basic Constraints: 
                CA:FALSE
            X509v3 Subject Key Identifier: 
                0C:F3:A3:D4:C9:8D:01:F6:76:D3:B5:37:EC:A9:FB:C4:13:BA:79:CB
            X509v3 Authority Key Identifier: 
                keyid:9F:C2:E9:8D:3C:D6:36:6A:77:66:9C:7C:49:7F:2E:4B:37:E5:56:B7
                DirName:/CN=team237-net
                serial:24:12:72:9A:10:94:B8:1F:33:6C:C1:68:06:BC:02:70:E6:3B:AE:81
            X509v3 Extended Key Usage: 
                TLS Web Server Authentication
            X509v3 Key Usage: 
                Digital Signature, Key Encipherment
            X509v3 Subject Alternative Name: 
                DNS:team237-server
    Signature Algorithm: sha256WithRSAEncryption
    Signature Value:
        78:74:a7:aa:13:2a:4e:05:c0:9f:62:75:c0:e2:d8:89:d4:7f:
        2a:de:68:24:e8:b4:a0:8c:6b:ab:81:c8:c1:d5:55:bb:ff:b6:
        2f:62:91:47:6a:fa:e7:34:39:bd:d4:cc:a6:8c:99:61:a3:99:
        a3:3f:d1:8e:4d:6a:7c:25:12:f7:1e:3a:23:b3:7f:cf:4d:30:
        01:7e:e3:e5:f8:8d:2a:18:92:2b:b7:cc:fe:47:e2:e3:f5:d0:
        61:29:b4:15:24:75:a4:0c:7d:c2:4b:da:fe:7d:ad:7d:b9:66:
        73:ea:68:cb:c7:d4:2c:cf:a0:9b:b8:0e:d0:26:46:bc:46:60:
        95:86:9c:1f:57:9d:3e:71:85:9a:48:ff:71:ee:0f:e9:fe:15:
        a2:cc:1b:60:9a:85:ba:b9:8f:6b:c9:18:78:ed:09:8b:a0:a6:
        f5:a6:b2:9c:12:9b:28:85:e1:b9:08:d4:d6:88:cf:37:a9:0a:
        fa:b2:45:ed:7b:f0:81:a9:d2:49:5c:57:02:a5:a7:39:d1:7c:
        d3:6b:e3:d6:89:86:98:5d:5d:6c:43:55:9d:d0:57:67:a6:97:
        cd:17:ab:a3:63:cd:23:dd:34:a1:71:94:ae:45:c3:bc:63:3e:
        b5:19:5c:87:99:3c:ff:97:7e:bf:51:a0:fb:78:f3:e5:06:aa:
        78:69:b7:ae
-----BEGIN CERTIFICATE-----
MIIDeDCCAmCgAwIBAgIRALrYQb3hNWfVIFja/j0ltbswDQYJKoZIhvcNAQELBQAw
FjEUMBIGA1UEAwwLdGVhbTIzNy1uZXQwHhcNMjMxMTA0MTA0NTA0WhcNMjYxMDE5
MTA0NTA0WjAZMRcwFQYDVQQDDA50ZWFtMjM3LXNlcnZlcjCCASIwDQYJKoZIhvcN
AQEBBQADggEPADCCAQoCggEBAKzYdyDPgsKy4NfXcN3M2ypaHA8e4i5EjAQs57bh
lvMCckEzxzxE/t1SQdvKIdexfLjfDoiQ0Vch3knK2fsVWVcbU+O0xrgLZy8TUNwh
htFjSOhsGzFSytsjnqkdN3OhZ7Qr53JEhQ3zj/wGg6DQ3olgma30pcyk3H3pLPwf
TNiSm6JjEE2jIiySi9t/Vmbi/L1lcBmpMAEzb17OwZnAOALAiL8MuwPDTaYS+Gx+
lLYOHZFNRAY12rjqNiAFdDmLgmWBdGwG/8RJygDmpYfIXkiSGmTlBLgtNIXohBZ5
Lf0cq3wNLEUZs236UkLhQ6ZrPClHOu2fcQvLuXQfqecn41sCAwEAAaOBvTCBujAJ
BgNVHRMEAjAAMB0GA1UdDgQWBBQM86PUyY0B9nbTtTfsqfvEE7p5yzBRBgNVHSME
SjBIgBSfwumNPNY2andmnHxJfy5LN+VWt6EapBgwFjEUMBIGA1UEAwwLdGVhbTIz
Ny1uZXSCFCQScpoQlLgfM2zBaAa8AnDmO66BMBMGA1UdJQQMMAoGCCsGAQUFBwMB
MAsGA1UdDwQEAwIFoDAZBgNVHREEEjAQgg50ZWFtMjM3LXNlcnZlcjANBgkqhkiG
9w0BAQsFAAOCAQEAeHSnqhMqTgXAn2J1wOLYidR/Kt5oJOi0oIxrq4HIwdVVu/+2
L2KRR2r65zQ5vdTMpoyZYaOZoz/Rjk1qfCUS9x46I7N/z00wAX7j5fiNKhiSK7fM
/kfi4/XQYSm0FSR1pAx9wkva/n2tfblmc+poy8fULM+gm7gO0CZGvEZglYacH1ed
PnGFmkj/ce4P6f4VoswbYJqFurmPa8kYeO0Ji6Cm9aaynBKbKIXhuQjU1ojPN6kK
+rJF7XvwganSSVxXAqWnOdF802vj1omGmF1dbENVndBXZ6aXzRero2PNI900oXGU
rkXDvGM+tRlch5k8/5d+v1Gg+3jz5QaqeGm3rg==
-----END CERTIFICATE-----
