Certificate:
    Data:
        Version: 3 (0x2)
        Serial Number:
            d2:69:92:c5:3f:82:a5:d7:ba:e1:76:60:1b:37:4c:86
        Signature Algorithm: sha256WithRSAEncryption
        Issuer: CN=team237-net
        Validity
            Not Before: Nov  4 11:32:15 2023 GMT
            Not After : Oct 19 11:32:15 2026 GMT
        Subject: CN=team237-client
        Subject Public Key Info:
            Public Key Algorithm: rsaEncryption
                Public-Key: (2048 bit)
                Modulus:
                    00:a7:55:40:4f:05:52:d0:56:78:f0:9d:31:1b:d1:
                    17:92:be:1f:6e:4d:35:c4:ef:9a:e2:76:60:57:92:
                    3a:e2:af:7d:b5:8a:6c:59:1e:49:eb:67:00:a6:cb:
                    5a:a6:99:f1:a1:8e:03:0d:78:f7:28:3c:f1:35:cd:
                    92:da:c9:79:db:77:07:d2:6e:89:eb:cd:92:12:fb:
                    bb:ea:fb:09:2f:61:6f:4b:85:96:23:f9:53:ed:1d:
                    54:f1:cb:fb:c5:69:ae:17:e2:8f:f1:ad:3e:8f:4c:
                    09:c6:17:21:a0:cb:61:1c:57:ec:4c:73:ea:54:a1:
                    98:6e:0c:a8:98:46:7b:66:81:e6:17:b7:a2:53:2f:
                    15:8b:d4:be:8d:4c:ea:9f:3c:84:e3:9b:4b:5a:71:
                    3c:8d:87:d8:dc:07:0b:20:23:20:f1:61:b1:7d:28:
                    b0:67:bb:9f:16:85:55:88:69:0c:5c:5f:5c:23:03:
                    17:97:67:14:da:b4:c7:70:f5:db:a7:39:6c:59:ee:
                    d0:ed:95:05:65:84:2b:0d:df:5c:03:4f:c5:14:b6:
                    73:2c:37:2a:71:c4:a3:b1:bc:92:c0:dd:6c:92:e6:
                    9d:bb:66:bc:25:e2:45:f0:af:bd:9e:c2:eb:04:d8:
                    9c:42:ff:9d:3e:e9:61:cc:e9:f6:d4:30:7b:3b:1d:
                    2a:4b
                Exponent: 65537 (0x10001)
        X509v3 extensions:
            X509v3 Basic Constraints: 
                CA:FALSE
            X509v3 Subject Key Identifier: 
                5B:1E:83:EB:0D:1D:2B:72:D7:9A:EA:82:9B:C2:88:E5:3F:81:62:77
            X509v3 Authority Key Identifier: 
                keyid:30:33:A2:79:99:A1:E0:9F:0F:AD:29:16:04:E6:7E:7D:F2:EF:43:E5
                DirName:/CN=team237-net
                serial:50:F7:B6:48:B0:24:97:58:4B:A8:09:91:ED:94:01:14:E9:44:69:C2
            X509v3 Extended Key Usage: 
                TLS Web Client Authentication
            X509v3 Key Usage: 
                Digital Signature
    Signature Algorithm: sha256WithRSAEncryption
    Signature Value:
        0d:0d:58:d6:d7:5d:e8:b8:83:ae:a6:e1:2c:bd:43:3b:26:91:
        d2:54:4b:89:be:ec:e4:d2:b7:2a:ba:75:b7:f4:d7:23:cb:e3:
        26:4e:11:10:46:a4:2a:8d:42:e1:40:c0:1a:63:0b:f8:71:1b:
        7e:83:d6:f2:c4:d0:e9:0b:f2:93:9d:e0:e2:c4:14:fa:68:e5:
        7a:99:e6:92:d2:e1:24:00:b2:9d:78:22:66:36:95:d9:e9:9b:
        7a:96:74:71:c5:8a:a5:06:dc:22:9d:f2:69:f9:61:02:c3:c6:
        b6:da:fa:7a:3f:07:ee:e8:e1:c8:c4:a2:e2:71:20:fe:6e:55:
        2f:fc:a8:74:b0:ac:e6:2b:4f:20:1a:f2:80:aa:5e:99:0d:92:
        e6:ec:86:67:b1:e6:e6:d5:79:f5:81:e6:a2:59:35:e1:8e:98:
        d1:0e:3b:1f:4c:9e:b0:dd:cd:d5:ad:24:95:49:76:b6:68:b8:
        91:b7:25:bb:d0:ba:77:d3:a7:cd:9d:36:f1:b3:6c:52:83:9f:
        b9:a7:c1:46:5f:53:3a:ec:9a:d4:83:94:6f:55:de:44:5d:df:
        40:47:55:00:42:91:eb:d0:75:ec:ac:ee:24:c1:fb:a0:22:60:
        b5:85:79:f7:b8:1b:72:48:02:27:6b:e1:4a:85:a6:c5:67:e5:
        3f:ab:50:f3
-----BEGIN CERTIFICATE-----
MIIDXTCCAkWgAwIBAgIRANJpksU/gqXXuuF2YBs3TIYwDQYJKoZIhvcNAQELBQAw
FjEUMBIGA1UEAwwLdGVhbTIzNy1uZXQwHhcNMjMxMTA0MTEzMjE1WhcNMjYxMDE5
MTEzMjE1WjAZMRcwFQYDVQQDDA50ZWFtMjM3LWNsaWVudDCCASIwDQYJKoZIhvcN
AQEBBQADggEPADCCAQoCggEBAKdVQE8FUtBWePCdMRvRF5K+H25NNcTvmuJ2YFeS
OuKvfbWKbFkeSetnAKbLWqaZ8aGOAw149yg88TXNktrJedt3B9JuievNkhL7u+r7
CS9hb0uFliP5U+0dVPHL+8Vprhfij/GtPo9MCcYXIaDLYRxX7Exz6lShmG4MqJhG
e2aB5he3olMvFYvUvo1M6p88hOObS1pxPI2H2NwHCyAjIPFhsX0osGe7nxaFVYhp
DFxfXCMDF5dnFNq0x3D126c5bFnu0O2VBWWEKw3fXANPxRS2cyw3KnHEo7G8ksDd
bJLmnbtmvCXiRfCvvZ7C6wTYnEL/nT7pYczp9tQwezsdKksCAwEAAaOBojCBnzAJ
BgNVHRMEAjAAMB0GA1UdDgQWBBRbHoPrDR0rctea6oKbwojlP4FidzBRBgNVHSME
SjBIgBQwM6J5maHgnw+tKRYE5n598u9D5aEapBgwFjEUMBIGA1UEAwwLdGVhbTIz
Ny1uZXSCFFD3tkiwJJdYS6gJke2UARTpRGnCMBMGA1UdJQQMMAoGCCsGAQUFBwMC
MAsGA1UdDwQEAwIHgDANBgkqhkiG9w0BAQsFAAOCAQEADQ1Y1tdd6LiDrqbhLL1D
OyaR0lRLib7s5NK3Krp1t/TXI8vjJk4REEakKo1C4UDAGmML+HEbfoPW8sTQ6Qvy
k53g4sQU+mjlepnmktLhJACynXgiZjaV2embepZ0ccWKpQbcIp3yaflhAsPGttr6
ej8H7ujhyMSi4nEg/m5VL/yodLCs5itPIBrygKpemQ2S5uyGZ7Hm5tV59YHmolk1
4Y6Y0Q47H0yesN3N1a0klUl2tmi4kbclu9C6d9OnzZ028bNsUoOfuafBRl9TOuya
1IOUb1XeRF3fQEdVAEKR69B17KzuJMH7oCJgtYV597gbckgCJ2vhSoWmxWflP6tQ
8w==
-----END CERTIFICATE-----
