Certificate:
    Data:
        Version: 3 (0x2)
        Serial Number:
            08:e9:ce:39:f3:b2:26:f3:dd:fd:e8:b5:6f:e9:d3:24
        Signature Algorithm: sha256WithRSAEncryption
        Issuer: CN=team339-net
        Validity
            Not Before: Nov  4 10:46:49 2023 GMT
            Not After : Oct 19 10:46:49 2026 GMT
        Subject: CN=team339-client
        Subject Public Key Info:
            Public Key Algorithm: rsaEncryption
                Public-Key: (2048 bit)
                Modulus:
                    00:9f:cb:08:43:09:f6:1a:c8:5d:fd:40:5a:e2:14:
                    f5:84:1c:77:77:b4:45:bc:d6:06:04:7b:98:b3:36:
                    ec:4b:cb:6c:7e:34:95:f5:c3:13:ef:56:9c:c9:dc:
                    9d:62:27:34:16:a0:b0:2a:80:69:be:06:0c:84:61:
                    81:ec:61:4f:4e:fd:fd:20:a1:8a:6a:97:51:f2:b5:
                    e1:41:11:67:fd:32:aa:f8:30:85:88:18:e2:0b:91:
                    50:67:40:0c:60:a6:33:71:c7:6d:27:74:f8:45:a8:
                    bb:0f:7b:24:6d:68:be:67:90:26:1a:6f:aa:8e:5b:
                    bb:9e:a2:a0:02:16:c9:fb:2f:9c:a0:0a:60:26:60:
                    fa:dd:a2:24:3a:87:46:cd:8d:2e:33:40:bf:e1:0c:
                    74:b6:af:1d:b1:57:3e:0a:92:f8:84:37:a3:c6:7b:
                    90:db:e9:33:ba:e4:74:16:11:d7:b9:68:97:87:a6:
                    18:21:c7:99:56:33:c5:56:11:6f:7a:df:c1:67:d8:
                    b0:7f:0d:61:57:f9:69:d4:0c:9c:dc:11:a2:7e:29:
                    61:37:d9:fc:9b:68:43:7b:fe:f9:32:4e:b0:ab:84:
                    9f:b6:44:85:e4:8b:7e:21:c6:d2:a7:fd:37:07:ab:
                    6e:d5:70:82:fc:2a:21:f3:5f:de:92:7c:8b:13:21:
                    78:ad
                Exponent: 65537 (0x10001)
        X509v3 extensions:
            X509v3 Basic Constraints: 
                CA:FALSE
            X509v3 Subject Key Identifier: 
                9E:EB:5F:27:2E:C5:A8:13:78:1A:DF:29:1B:24:BD:CE:CF:1B:27:E6
            X509v3 Authority Key Identifier: 
                keyid:88:87:B6:FA:18:D0:FE:27:1E:BB:17:CF:CD:A5:08:D7:56:AE:C9:AF
                DirName:/CN=team339-net
                serial:4E:1C:0F:3C:C4:6B:D2:AF:B5:94:1D:BF:1E:04:F6:5F:C9:B2:64:EE
            X509v3 Extended Key Usage: 
                TLS Web Client Authentication
            X509v3 Key Usage: 
                Digital Signature
    Signature Algorithm: sha256WithRSAEncryption
    Signature Value:
        98:41:be:9f:d5:9e:fd:7c:ba:96:14:fc:96:67:2c:64:91:c1:
        ca:f5:c9:e3:21:10:7c:f8:89:fa:ec:07:09:b2:2c:68:fc:e0:
        f9:f3:3c:97:06:3a:7e:d5:60:a4:3b:11:a9:26:8d:d8:1a:f9:
        fd:d5:85:11:af:4b:aa:98:a2:6b:b5:2d:e5:bb:b8:28:ef:97:
        ef:a9:f7:8f:dc:96:56:1b:ef:bb:34:92:4b:02:5d:83:1c:fa:
        dc:90:33:55:9d:a0:f3:df:1b:3c:32:db:e1:76:9b:92:93:53:
        1b:48:71:76:bf:0f:34:ea:33:84:07:c0:15:b9:be:f3:19:b4:
        d9:6e:ca:ba:6f:4b:54:87:6f:c8:a0:4d:de:31:78:90:ce:10:
        50:1f:18:11:da:21:a6:f7:0a:cd:59:f5:ee:11:01:c1:96:dc:
        d6:f8:4d:13:d4:eb:4d:f6:36:dc:cf:66:2c:6c:b7:af:73:a1:
        78:ff:ed:21:79:68:0f:f7:6b:40:ec:31:4f:7c:8c:93:b2:1a:
        8e:a3:23:49:bb:85:b7:76:6c:9b:9c:41:fa:63:c2:a0:15:b2:
        c3:1e:55:7a:84:0a:42:61:99:36:57:29:4a:f3:62:43:2c:5c:
        56:2e:46:a0:c7:fa:7c:f9:fc:7d:2b:39:64:cb:c3:ba:3c:40:
        0e:23:0d:c6
-----BEGIN CERTIFICATE-----
MIIDXDCCAkSgAwIBAgIQCOnOOfOyJvPd/ei1b+nTJDANBgkqhkiG9w0BAQsFADAW
MRQwEgYDVQQDDAt0ZWFtMzM5LW5ldDAeFw0yMzExMDQxMDQ2NDlaFw0yNjEwMTkx
MDQ2NDlaMBkxFzAVBgNVBAMMDnRlYW0zMzktY2xpZW50MIIBIjANBgkqhkiG9w0B
AQEFAAOCAQ8AMIIBCgKCAQEAn8sIQwn2Gshd/UBa4hT1hBx3d7RFvNYGBHuYszbs
S8tsfjSV9cMT71acydydYic0FqCwKoBpvgYMhGGB7GFPTv39IKGKapdR8rXhQRFn
/TKq+DCFiBjiC5FQZ0AMYKYzccdtJ3T4Rai7D3skbWi+Z5AmGm+qjlu7nqKgAhbJ
+y+coApgJmD63aIkOodGzY0uM0C/4Qx0tq8dsVc+CpL4hDejxnuQ2+kzuuR0FhHX
uWiXh6YYIceZVjPFVhFvet/BZ9iwfw1hV/lp1Ayc3BGifilhN9n8m2hDe/75Mk6w
q4SftkSF5It+IcbSp/03B6tu1XCC/Coh81/eknyLEyF4rQIDAQABo4GiMIGfMAkG
A1UdEwQCMAAwHQYDVR0OBBYEFJ7rXycuxagTeBrfKRskvc7PGyfmMFEGA1UdIwRK
MEiAFIiHtvoY0P4nHrsXz82lCNdWrsmvoRqkGDAWMRQwEgYDVQQDDAt0ZWFtMzM5
LW5ldIIUThwPPMRr0q+1lB2/HgT2X8myZO4wEwYDVR0lBAwwCgYIKwYBBQUHAwIw
CwYDVR0PBAQDAgeAMA0GCSqGSIb3DQEBCwUAA4IBAQCYQb6f1Z79fLqWFPyWZyxk
kcHK9cnjIRB8+In67AcJsixo/OD58zyXBjp+1WCkOxGpJo3YGvn91YURr0uqmKJr
tS3lu7go75fvqfeP3JZWG++7NJJLAl2DHPrckDNVnaDz3xs8MtvhdpuSk1MbSHF2
vw806jOEB8AVub7zGbTZbsq6b0tUh2/IoE3eMXiQzhBQHxgR2iGm9wrNWfXuEQHB
ltzW+E0T1OtN9jbcz2YsbLevc6F4/+0heWgP92tA7DFPfIyTshqOoyNJu4W3dmyb
nEH6Y8KgFbLDHlV6hApCYZk2VylK82JDLFxWLkagx/p8+fx9Kzlky8O6PEAOIw3G
-----END CERTIFICATE-----
