Certificate:
    Data:
        Version: 3 (0x2)
        Serial Number:
            3f:2a:53:41:47:03:99:19:19:cb:ee:db:5b:e9:3e:e1
        Signature Algorithm: sha256WithRSAEncryption
        Issuer: CN=team339-net
        Validity
            Not Before: Nov  4 11:34:56 2023 GMT
            Not After : Oct 19 11:34:56 2026 GMT
        Subject: CN=team339-client
        Subject Public Key Info:
            Public Key Algorithm: rsaEncryption
                Public-Key: (2048 bit)
                Modulus:
                    00:d4:27:8d:04:30:c2:e9:a5:a2:f8:c1:2b:45:5d:
                    e7:f0:de:2e:b4:1f:5a:15:37:4b:b0:d9:85:e6:fb:
                    bd:73:ec:b5:e4:f1:dd:99:75:8a:ee:47:59:e9:a2:
                    a2:e7:0b:f8:34:2d:0e:3a:b5:51:ba:de:eb:c4:ad:
                    08:c9:73:c2:64:01:09:a2:84:c6:fa:3f:59:a2:1d:
                    cc:75:2c:22:00:2e:3c:78:37:77:fa:e2:f2:bf:cd:
                    5f:5a:b1:06:31:89:98:de:5b:cb:55:dc:c0:ed:a2:
                    4d:6d:c7:25:29:c2:88:12:bc:78:cb:39:79:40:90:
                    8f:98:74:b3:b3:82:d6:d9:41:4d:5a:7e:6e:33:a5:
                    95:ed:f6:16:79:87:bc:74:59:28:b2:5f:6f:50:22:
                    47:20:20:85:a7:3b:61:2c:51:e9:fa:a2:2a:cc:e0:
                    c5:80:60:2f:69:e7:08:47:eb:89:62:76:1b:50:31:
                    54:07:d1:7d:69:e1:c0:b7:14:f2:e6:f3:37:2e:c5:
                    b5:6c:6a:56:1c:54:7d:da:8e:d7:57:ab:e9:f6:d9:
                    d0:e6:27:3e:12:af:ad:b9:e9:5f:bd:85:5b:59:b1:
                    a3:5b:03:06:fa:b1:6c:10:73:bb:40:3b:a1:e4:ce:
                    b6:08:86:22:8f:72:e0:1b:8b:8c:e3:b8:a9:4f:51:
                    fc:65
                Exponent: 65537 (0x10001)
        X509v3 extensions:
            X509v3 Basic Constraints: 
                CA:FALSE
            X509v3 Subject Key Identifier: 
                1C:3A:B7:90:CB:B2:39:27:B9:E4:8E:97:E4:16:0E:1C:99:27:83:E2
            X509v3 Authority Key Identifier: 
                keyid:7A:92:00:3E:5F:22:94:0C:AB:6F:23:DA:78:DA:91:81:31:B0:6C:62
                DirName:/CN=team339-net
                serial:36:88:69:97:DB:13:94:84:9E:87:AF:34:19:B9:9E:33:A0:BA:B0:31
            X509v3 Extended Key Usage: 
                TLS Web Client Authentication
            X509v3 Key Usage: 
                Digital Signature
    Signature Algorithm: sha256WithRSAEncryption
    Signature Value:
        a4:a3:c9:17:0a:ee:53:1c:ea:e7:87:e9:80:46:6b:2c:bd:aa:
        05:25:d1:6b:be:6c:f8:93:de:ff:c7:f6:10:c0:65:44:c3:ed:
        e6:9b:db:d0:43:e3:83:67:ad:91:5a:db:48:b5:93:ce:c9:f3:
        6f:fa:67:d7:25:f6:64:3c:21:3d:ed:14:f9:68:2a:a1:27:16:
        63:19:8d:95:08:4d:8a:71:98:20:0e:ce:e2:56:30:2a:fb:a9:
        e2:59:51:00:94:c2:0e:4a:a9:6c:24:57:09:7b:24:83:e0:fb:
        67:20:b7:17:2c:34:eb:0e:ac:1d:01:4b:3e:34:b9:37:6c:aa:
        0d:cc:a6:30:e1:6b:a6:38:15:0f:62:24:d4:e1:52:a5:c7:ad:
        96:6d:ad:18:8e:ee:28:26:f7:a1:4f:c3:15:f6:8c:74:ad:5c:
        d0:fc:4e:b7:2e:8c:65:a7:cd:43:10:65:a2:f4:59:da:8f:af:
        c2:b8:d0:52:3a:bc:ea:5a:ff:85:18:71:7e:23:cf:0e:78:dd:
        56:0c:ff:33:b0:13:76:42:57:28:20:13:bb:22:a8:a9:2b:bf:
        61:40:46:d2:92:d8:3a:51:54:7a:0e:53:1e:f9:d9:16:93:0c:
        4d:67:c2:7c:89:81:28:ae:84:99:99:fa:68:92:cf:82:1f:3b:
        a7:e9:82:a3
-----BEGIN CERTIFICATE-----
MIIDXDCCAkSgAwIBAgIQPypTQUcDmRkZy+7bW+k+4TANBgkqhkiG9w0BAQsFADAW
MRQwEgYDVQQDDAt0ZWFtMzM5LW5ldDAeFw0yMzExMDQxMTM0NTZaFw0yNjEwMTkx
MTM0NTZaMBkxFzAVBgNVBAMMDnRlYW0zMzktY2xpZW50MIIBIjANBgkqhkiG9w0B
AQEFAAOCAQ8AMIIBCgKCAQEA1CeNBDDC6aWi+MErRV3n8N4utB9aFTdLsNmF5vu9
c+y15PHdmXWK7kdZ6aKi5wv4NC0OOrVRut7rxK0IyXPCZAEJooTG+j9Zoh3MdSwi
AC48eDd3+uLyv81fWrEGMYmY3lvLVdzA7aJNbcclKcKIErx4yzl5QJCPmHSzs4LW
2UFNWn5uM6WV7fYWeYe8dFkosl9vUCJHICCFpzthLFHp+qIqzODFgGAvaecIR+uJ
YnYbUDFUB9F9aeHAtxTy5vM3LsW1bGpWHFR92o7XV6vp9tnQ5ic+Eq+tuelfvYVb
WbGjWwMG+rFsEHO7QDuh5M62CIYij3LgG4uM47ipT1H8ZQIDAQABo4GiMIGfMAkG
A1UdEwQCMAAwHQYDVR0OBBYEFBw6t5DLsjknueSOl+QWDhyZJ4PiMFEGA1UdIwRK
MEiAFHqSAD5fIpQMq28j2njakYExsGxioRqkGDAWMRQwEgYDVQQDDAt0ZWFtMzM5
LW5ldIIUNohpl9sTlISeh680GbmeM6C6sDEwEwYDVR0lBAwwCgYIKwYBBQUHAwIw
CwYDVR0PBAQDAgeAMA0GCSqGSIb3DQEBCwUAA4IBAQCko8kXCu5THOrnh+mARmss
vaoFJdFrvmz4k97/x/YQwGVEw+3mm9vQQ+ODZ62RWttItZPOyfNv+mfXJfZkPCE9
7RT5aCqhJxZjGY2VCE2KcZggDs7iVjAq+6niWVEAlMIOSqlsJFcJeySD4PtnILcX
LDTrDqwdAUs+NLk3bKoNzKYw4WumOBUPYiTU4VKlx62Wba0Yju4oJvehT8MV9ox0
rVzQ/E63Loxlp81DEGWi9Fnaj6/CuNBSOrzqWv+FGHF+I88OeN1WDP8zsBN2Qlco
IBO7IqipK79hQEbSktg6UVR6DlMe+dkWkwxNZ8J8iYEoroSZmfpoks+CHzun6YKj
-----END CERTIFICATE-----
