Certificate:
    Data:
        Version: 3 (0x2)
        Serial Number:
            a3:8a:41:63:77:d9:24:0e:a7:4d:39:ae:56:89:04:fd
        Signature Algorithm: sha256WithRSAEncryption
        Issuer: CN=team339-net
        Validity
            Not Before: Nov  4 11:34:56 2023 GMT
            Not After : Oct 19 11:34:56 2026 GMT
        Subject: CN=team339-server
        Subject Public Key Info:
            Public Key Algorithm: rsaEncryption
                Public-Key: (2048 bit)
                Modulus:
                    00:c6:fb:6e:4b:2c:ea:68:80:56:59:e0:1a:de:c8:
                    32:5a:bb:e0:d0:3b:42:6d:68:ae:81:8a:28:c6:61:
                    cc:6c:43:9c:6a:ff:68:15:a1:c9:43:39:55:b3:96:
                    a5:ae:bf:75:a2:96:5b:09:01:50:b8:ef:22:ab:a2:
                    00:2f:3d:9f:2b:46:26:a4:b5:c6:9f:1e:b9:6b:5b:
                    25:78:a9:ad:69:d2:c9:10:00:3f:41:c3:5f:bb:0a:
                    d8:c6:3c:08:cc:f7:3a:30:84:54:91:b6:02:34:f3:
                    8d:1c:10:94:65:04:25:34:e0:7f:e9:cc:c5:12:3c:
                    88:83:62:ec:dc:f8:e2:d4:f9:37:3e:59:7f:20:08:
                    5c:e8:f9:c4:66:e0:f3:c7:df:9a:fd:3f:9e:ee:1d:
                    1d:1b:37:24:90:51:69:79:71:05:a5:d8:c6:dc:5b:
                    9b:b0:45:01:4e:28:99:29:57:ef:8f:e0:bf:fc:0d:
                    7c:88:13:e2:28:c6:0e:aa:a8:de:18:ba:47:3f:14:
                    63:da:ba:d8:85:bd:11:ef:7a:3c:41:54:f8:0d:bb:
                    25:28:d9:d6:13:af:e7:2c:d3:8c:67:ca:9c:c4:9a:
                    63:0f:e9:9a:d6:d0:bb:b2:3b:e9:1f:c6:e9:4e:57:
                    7a:55:89:cd:e8:5b:35:a4:d5:ea:6f:c3:47:25:ff:
                    e1:c9
                Exponent: 65537 (0x10001)
        X509v3 extensions:
            X509v3 Basic Constraints: 
                CA:FALSE
            X509v3 Subject Key Identifier: 
                FE:D1:B3:1F:7D:98:2A:83:1B:4F:31:39:1E:EB:0D:27:ED:9B:DE:ED
            X509v3 Authority Key Identifier: 
                keyid:7A:92:00:3E:5F:22:94:0C:AB:6F:23:DA:78:DA:91:81:31:B0:6C:62
                DirName:/CN=team339-net
                serial:36:88:69:97:DB:13:94:84:9E:87:AF:34:19:B9:9E:33:A0:BA:B0:31
            X509v3 Extended Key Usage: 
                TLS Web Server Authentication
            X509v3 Key Usage: 
                Digital Signature, Key Encipherment
            X509v3 Subject Alternative Name: 
                DNS:team339-server
    Signature Algorithm: sha256WithRSAEncryption
    Signature Value:
        8e:f0:1a:25:b1:e6:5a:a9:78:8b:42:96:e5:2e:36:64:25:81:
        a5:85:99:3e:19:a5:60:95:67:29:87:bb:a4:5e:6f:4f:5b:5e:
        aa:ed:02:7e:07:62:c2:96:05:60:5e:dc:24:f7:e5:c5:65:d3:
        b9:82:18:3f:c1:26:74:66:43:b9:9e:c6:3f:84:df:0a:4e:f0:
        50:a5:9e:1d:ee:25:01:d7:8a:2a:16:d1:f7:4f:4b:bb:e8:2a:
        0f:9d:65:a8:6a:86:33:5d:87:be:c0:2c:b0:44:df:83:40:09:
        25:1f:a3:b7:3a:9d:e4:36:5d:ab:b7:ae:de:82:53:9b:54:76:
        53:c3:ce:dd:1d:db:7d:d8:3d:c0:d3:05:d7:e7:1a:9d:cb:fc:
        7c:75:bd:18:7b:c0:7c:f9:fd:03:ee:f4:28:b3:6f:48:c2:b5:
        84:dd:1a:71:74:79:5f:bf:c5:f5:a7:d8:4e:45:0c:44:dd:c5:
        ab:f5:8a:61:6a:7f:cb:ea:9f:bb:50:9b:6b:e4:b8:42:1a:f3:
        e9:d2:aa:83:5a:e3:6c:c0:bf:73:a0:f3:46:12:41:cc:59:7d:
        80:32:e8:ae:9f:8e:3c:45:c5:6f:dd:06:c0:77:c6:47:f0:62:
        ce:8e:15:f6:01:ce:77:5c:35:85:a0:1b:8a:9c:7a:a9:2b:c7:
        a5:38:96:6d
-----BEGIN CERTIFICATE-----
MIIDeDCCAmCgAwIBAgIRAKOKQWN32SQOp005rlaJBP0wDQYJKoZIhvcNAQELBQAw
FjEUMBIGA1UEAwwLdGVhbTMzOS1uZXQwHhcNMjMxMTA0MTEzNDU2WhcNMjYxMDE5
MTEzNDU2WjAZMRcwFQYDVQQDDA50ZWFtMzM5LXNlcnZlcjCCASIwDQYJKoZIhvcN
AQEBBQADggEPADCCAQoCggEBAMb7bkss6miAVlngGt7IMlq74NA7Qm1oroGKKMZh
zGxDnGr/aBWhyUM5VbOWpa6/daKWWwkBULjvIquiAC89nytGJqS1xp8euWtbJXip
rWnSyRAAP0HDX7sK2MY8CMz3OjCEVJG2AjTzjRwQlGUEJTTgf+nMxRI8iINi7Nz4
4tT5Nz5ZfyAIXOj5xGbg88ffmv0/nu4dHRs3JJBRaXlxBaXYxtxbm7BFAU4omSlX
74/gv/wNfIgT4ijGDqqo3hi6Rz8UY9q62IW9Ee96PEFU+A27JSjZ1hOv5yzTjGfK
nMSaYw/pmtbQu7I76R/G6U5XelWJzehbNaTV6m/DRyX/4ckCAwEAAaOBvTCBujAJ
BgNVHRMEAjAAMB0GA1UdDgQWBBT+0bMffZgqgxtPMTke6w0n7Zve7TBRBgNVHSME
SjBIgBR6kgA+XyKUDKtvI9p42pGBMbBsYqEapBgwFjEUMBIGA1UEAwwLdGVhbTMz
OS1uZXSCFDaIaZfbE5SEnoevNBm5njOgurAxMBMGA1UdJQQMMAoGCCsGAQUFBwMB
MAsGA1UdDwQEAwIFoDAZBgNVHREEEjAQgg50ZWFtMzM5LXNlcnZlcjANBgkqhkiG
9w0BAQsFAAOCAQEAjvAaJbHmWql4i0KW5S42ZCWBpYWZPhmlYJVnKYe7pF5vT1te
qu0CfgdiwpYFYF7cJPflxWXTuYIYP8EmdGZDuZ7GP4TfCk7wUKWeHe4lAdeKKhbR
909Lu+gqD51lqGqGM12HvsAssETfg0AJJR+jtzqd5DZdq7eu3oJTm1R2U8PO3R3b
fdg9wNMF1+cancv8fHW9GHvAfPn9A+70KLNvSMK1hN0acXR5X7/F9afYTkUMRN3F
q/WKYWp/y+qfu1Cba+S4Qhrz6dKqg1rjbMC/c6DzRhJBzFl9gDLorp+OPEXFb90G
wHfGR/Bizo4V9gHOd1w1haAbipx6qSvHpTiWbQ==
-----END CERTIFICATE-----
