Certificate:
    Data:
        Version: 3 (0x2)
        Serial Number:
            c3:60:2d:9b:a0:d0:ac:ec:71:9b:9c:7e:69:72:8f:29
        Signature Algorithm: sha256WithRSAEncryption
        Issuer: CN=team339-net
        Validity
            Not Before: Nov  4 10:46:49 2023 GMT
            Not After : Oct 19 10:46:49 2026 GMT
        Subject: CN=team339-server
        Subject Public Key Info:
            Public Key Algorithm: rsaEncryption
                Public-Key: (2048 bit)
                Modulus:
                    00:ca:6d:81:33:30:49:d6:9d:eb:ef:24:37:f4:ea:
                    f4:c4:30:54:f5:8d:b6:10:b6:7c:d7:17:be:1d:71:
                    75:18:cf:05:09:32:71:5b:0c:ff:e2:5c:8d:aa:fc:
                    34:94:93:70:fa:16:9e:87:1e:07:65:53:fd:ee:59:
                    cf:4c:41:e9:57:5d:9d:04:35:05:fd:91:f0:ba:67:
                    d5:71:2f:53:f6:a5:24:e8:3d:ad:ce:34:1a:cd:a1:
                    c3:9b:2d:0e:1b:17:01:77:6e:68:22:3e:81:d1:6b:
                    f4:aa:ed:4c:14:55:87:70:a2:fa:50:7b:6e:df:8f:
                    31:16:e1:80:7a:06:b5:00:31:fd:13:c5:be:db:24:
                    e1:6e:10:cc:e7:92:3c:a5:49:89:f2:49:bd:e1:0a:
                    bd:e6:68:17:e7:da:9f:16:fb:38:db:53:8b:f6:87:
                    b9:04:bf:e2:0b:14:9d:dd:e3:e9:42:b0:48:1d:1d:
                    4c:bf:f2:15:2b:7c:c2:12:c9:0a:ba:95:63:0b:3f:
                    11:36:2e:48:b5:a0:09:d6:83:be:f5:52:21:54:76:
                    dc:6b:22:df:4e:5a:22:13:2b:0d:64:05:84:4a:c3:
                    8d:8d:42:4c:bc:ba:ba:68:9e:aa:88:39:4e:d1:21:
                    b3:bf:a1:65:d5:32:f2:5c:60:cb:a1:ad:82:4f:78:
                    2b:27
                Exponent: 65537 (0x10001)
        X509v3 extensions:
            X509v3 Basic Constraints: 
                CA:FALSE
            X509v3 Subject Key Identifier: 
                F7:F3:DE:0B:06:C7:B5:2A:12:A2:13:09:F3:5B:87:7A:A0:0E:AF:3C
            X509v3 Authority Key Identifier: 
                keyid:88:87:B6:FA:18:D0:FE:27:1E:BB:17:CF:CD:A5:08:D7:56:AE:C9:AF
                DirName:/CN=team339-net
                serial:4E:1C:0F:3C:C4:6B:D2:AF:B5:94:1D:BF:1E:04:F6:5F:C9:B2:64:EE
            X509v3 Extended Key Usage: 
                TLS Web Server Authentication
            X509v3 Key Usage: 
                Digital Signature, Key Encipherment
            X509v3 Subject Alternative Name: 
                DNS:team339-server
    Signature Algorithm: sha256WithRSAEncryption
    Signature Value:
        86:72:e5:6c:6f:a2:64:8e:3d:45:1a:e4:3d:11:a4:a7:23:68:
        06:cd:dc:2e:e1:62:88:5a:66:25:c9:f5:85:36:97:69:be:f5:
        e7:dc:07:ee:1a:78:0c:04:03:a9:d6:b2:16:8a:8f:ed:c2:e5:
        ae:3c:59:36:1d:c0:b6:72:65:1f:0f:76:d8:de:a6:d6:37:fd:
        c9:bc:13:34:fa:62:08:d9:a0:0d:af:93:20:7d:d2:57:5d:9d:
        e0:7c:7a:11:46:d6:53:3e:5a:04:56:d2:ed:57:3f:ad:d3:1d:
        eb:cd:17:03:01:59:9f:77:d3:85:b1:d7:78:df:36:e6:22:6c:
        ea:a3:96:ba:c3:f0:57:53:01:1d:04:0f:7d:ba:7d:6b:be:f6:
        e5:f1:0e:8b:3f:d9:0f:97:d3:c7:89:bf:96:49:ef:36:b4:8c:
        6b:01:2a:51:c4:8d:0d:9f:fc:09:4b:e2:85:8d:29:94:6e:ec:
        9d:36:1b:3a:bf:71:4c:5b:51:5f:1e:e2:1b:13:71:32:09:c8:
        ce:a4:84:60:82:56:b5:3a:2d:d2:00:7d:c2:43:05:10:3c:d2:
        0f:d3:0a:00:7d:19:45:7a:60:ce:69:03:6c:37:cd:78:29:06:
        00:fe:2f:52:0d:e1:f1:53:96:a7:02:ec:a3:e8:a9:7a:44:ef:
        2b:40:7b:1e
-----BEGIN CERTIFICATE-----
MIIDeDCCAmCgAwIBAgIRAMNgLZug0KzscZucfmlyjykwDQYJKoZIhvcNAQELBQAw
FjEUMBIGA1UEAwwLdGVhbTMzOS1uZXQwHhcNMjMxMTA0MTA0NjQ5WhcNMjYxMDE5
MTA0NjQ5WjAZMRcwFQYDVQQDDA50ZWFtMzM5LXNlcnZlcjCCASIwDQYJKoZIhvcN
AQEBBQADggEPADCCAQoCggEBAMptgTMwSdad6+8kN/Tq9MQwVPWNthC2fNcXvh1x
dRjPBQkycVsM/+Jcjar8NJSTcPoWnoceB2VT/e5Zz0xB6VddnQQ1Bf2R8Lpn1XEv
U/alJOg9rc40Gs2hw5stDhsXAXduaCI+gdFr9KrtTBRVh3Ci+lB7bt+PMRbhgHoG
tQAx/RPFvtsk4W4QzOeSPKVJifJJveEKveZoF+fanxb7ONtTi/aHuQS/4gsUnd3j
6UKwSB0dTL/yFSt8whLJCrqVYws/ETYuSLWgCdaDvvVSIVR23Gsi305aIhMrDWQF
hErDjY1CTLy6umieqog5TtEhs7+hZdUy8lxgy6Gtgk94KycCAwEAAaOBvTCBujAJ
BgNVHRMEAjAAMB0GA1UdDgQWBBT3894LBse1KhKiEwnzW4d6oA6vPDBRBgNVHSME
SjBIgBSIh7b6GND+Jx67F8/NpQjXVq7Jr6EapBgwFjEUMBIGA1UEAwwLdGVhbTMz
OS1uZXSCFE4cDzzEa9KvtZQdvx4E9l/JsmTuMBMGA1UdJQQMMAoGCCsGAQUFBwMB
MAsGA1UdDwQEAwIFoDAZBgNVHREEEjAQgg50ZWFtMzM5LXNlcnZlcjANBgkqhkiG
9w0BAQsFAAOCAQEAhnLlbG+iZI49RRrkPRGkpyNoBs3cLuFiiFpmJcn1hTaXab71
59wH7hp4DAQDqdayFoqP7cLlrjxZNh3AtnJlHw922N6m1jf9ybwTNPpiCNmgDa+T
IH3SV12d4Hx6EUbWUz5aBFbS7Vc/rdMd680XAwFZn3fThbHXeN825iJs6qOWusPw
V1MBHQQPfbp9a7725fEOiz/ZD5fTx4m/lknvNrSMawEqUcSNDZ/8CUvihY0plG7s
nTYbOr9xTFtRXx7iGxNxMgnIzqSEYIJWtTot0gB9wkMFEDzSD9MKAH0ZRXpgzmkD
bDfNeCkGAP4vUg3h8VOWpwLso+ipekTvK0B7Hg==
-----END CERTIFICATE-----
