Certificate:
    Data:
        Version: 3 (0x2)
        Serial Number:
            43:13:1f:d3:c5:51:38:3f:da:36:37:69:97:fb:80:1f
        Signature Algorithm: sha256WithRSAEncryption
        Issuer: CN=team436-net
        Validity
            Not Before: Nov  4 11:37:15 2023 GMT
            Not After : Oct 19 11:37:15 2026 GMT
        Subject: CN=team436-server
        Subject Public Key Info:
            Public Key Algorithm: rsaEncryption
                Public-Key: (2048 bit)
                Modulus:
                    00:95:0a:6a:26:eb:80:71:19:a6:d7:17:da:e2:d7:
                    3a:63:27:9a:6a:6d:af:39:cd:0d:1a:cf:fb:6e:34:
                    bb:f9:46:a0:46:be:5e:e8:db:30:6e:f1:00:0c:31:
                    99:68:fe:a0:03:9e:6b:81:c0:22:d0:dd:6f:eb:44:
                    a0:27:69:62:a7:5b:3c:1b:2d:71:c2:4c:dd:60:95:
                    c8:a6:0d:4c:4f:01:4a:ed:cb:c0:9c:81:f5:63:91:
                    d4:6b:0b:91:c0:f3:53:d5:6b:ec:76:03:85:7f:cf:
                    1e:9a:b9:8f:ad:3a:8b:7e:b9:dd:9c:bd:3e:73:2e:
                    44:8a:e4:38:70:d1:8d:1b:9c:5c:0f:58:fc:43:b5:
                    ed:ce:04:4c:09:4a:64:c9:a2:9d:95:42:17:ef:d9:
                    61:d1:18:ab:38:d8:de:a4:ce:9a:c4:41:76:59:2f:
                    b0:e3:e2:c5:24:19:98:39:cc:ed:51:ef:fb:22:a7:
                    01:fe:45:f4:df:b9:2a:c5:71:34:a7:b1:fe:28:68:
                    01:57:36:e2:a7:36:70:b1:fd:0b:b2:ff:cc:d5:9f:
                    c8:2a:63:bd:00:1d:99:fd:45:c5:f5:be:2c:61:e5:
                    89:fa:da:fc:5e:e0:3e:18:18:cb:07:59:0f:5b:b1:
                    eb:3b:d3:1f:c0:a4:43:1f:03:6d:1f:57:6a:43:16:
                    62:b9
                Exponent: 65537 (0x10001)
        X509v3 extensions:
            X509v3 Basic Constraints: 
                CA:FALSE
            X509v3 Subject Key Identifier: 
                08:70:0A:98:9D:4C:98:82:16:37:09:96:CC:3F:FB:FE:24:F6:9F:73
            X509v3 Authority Key Identifier: 
                keyid:B8:D3:15:DE:92:27:B1:E5:D0:78:D7:BE:50:B7:EC:26:46:94:E7:DC
                DirName:/CN=team436-net
                serial:0C:CA:B9:98:47:89:7E:CB:5A:A4:9D:F4:5D:88:F4:9A:D7:2C:CC:D8
            X509v3 Extended Key Usage: 
                TLS Web Server Authentication
            X509v3 Key Usage: 
                Digital Signature, Key Encipherment
            X509v3 Subject Alternative Name: 
                DNS:team436-server
    Signature Algorithm: sha256WithRSAEncryption
    Signature Value:
        28:48:53:9e:7b:73:48:29:a1:b4:6b:23:8f:ec:b3:37:b4:7f:
        22:17:eb:51:3f:00:d8:b7:c9:1f:a9:1d:e5:ae:94:33:be:fb:
        2d:17:ed:7a:a3:03:b2:f3:46:79:dd:f2:1f:6d:a4:7d:c7:d8:
        28:2e:f0:25:20:2b:15:c1:8d:11:ee:9f:30:61:8e:a5:44:12:
        64:be:99:a7:dc:24:76:e6:7b:10:d6:87:67:85:84:65:19:fc:
        cd:45:28:38:a4:16:f3:b5:c2:60:4a:58:4c:ab:e2:7d:2f:00:
        0a:00:74:d6:f4:8b:5c:b0:b8:05:99:cc:07:92:40:3e:54:ca:
        68:e6:88:9a:6d:ab:83:dc:7f:ff:85:a3:5f:9a:4c:d1:17:0c:
        69:03:a2:ab:20:2f:b7:72:dd:1c:ab:94:ba:22:f2:6b:d4:b3:
        3e:f6:b7:69:2c:dc:72:6e:49:fc:3d:f1:51:a5:b7:c3:d8:77:
        9a:3b:e1:f1:f1:5c:1d:e2:07:51:01:3f:f5:29:c5:2e:9e:88:
        0f:e9:39:9e:3d:37:e1:e0:9a:3e:b5:1a:db:25:9b:f7:30:76:
        4d:41:72:09:98:a4:f5:0c:37:33:ae:55:34:23:ba:fb:01:6d:
        4f:3d:a4:5d:1c:f7:39:51:e9:26:a8:31:2b:93:c2:96:be:f1:
        ee:76:fc:73
-----BEGIN CERTIFICATE-----
MIIDdzCCAl+gAwIBAgIQQxMf08VROD/aNjdpl/uAHzANBgkqhkiG9w0BAQsFADAW
MRQwEgYDVQQDDAt0ZWFtNDM2LW5ldDAeFw0yMzExMDQxMTM3MTVaFw0yNjEwMTkx
MTM3MTVaMBkxFzAVBgNVBAMMDnRlYW00MzYtc2VydmVyMIIBIjANBgkqhkiG9w0B
AQEFAAOCAQ8AMIIBCgKCAQEAlQpqJuuAcRmm1xfa4tc6Yyeaam2vOc0NGs/7bjS7
+UagRr5e6NswbvEADDGZaP6gA55rgcAi0N1v60SgJ2lip1s8Gy1xwkzdYJXIpg1M
TwFK7cvAnIH1Y5HUawuRwPNT1WvsdgOFf88emrmPrTqLfrndnL0+cy5EiuQ4cNGN
G5xcD1j8Q7XtzgRMCUpkyaKdlUIX79lh0RirONjepM6axEF2WS+w4+LFJBmYOczt
Ue/7IqcB/kX037kqxXE0p7H+KGgBVzbipzZwsf0Lsv/M1Z/IKmO9AB2Z/UXF9b4s
YeWJ+tr8XuA+GBjLB1kPW7HrO9MfwKRDHwNtH1dqQxZiuQIDAQABo4G9MIG6MAkG
A1UdEwQCMAAwHQYDVR0OBBYEFAhwCpidTJiCFjcJlsw/+/4k9p9zMFEGA1UdIwRK
MEiAFLjTFd6SJ7Hl0HjXvlC37CZGlOfcoRqkGDAWMRQwEgYDVQQDDAt0ZWFtNDM2
LW5ldIIUDMq5mEeJfstapJ30XYj0mtcszNgwEwYDVR0lBAwwCgYIKwYBBQUHAwEw
CwYDVR0PBAQDAgWgMBkGA1UdEQQSMBCCDnRlYW00MzYtc2VydmVyMA0GCSqGSIb3
DQEBCwUAA4IBAQAoSFOee3NIKaG0ayOP7LM3tH8iF+tRPwDYt8kfqR3lrpQzvvst
F+16owOy80Z53fIfbaR9x9goLvAlICsVwY0R7p8wYY6lRBJkvpmn3CR25nsQ1odn
hYRlGfzNRSg4pBbztcJgSlhMq+J9LwAKAHTW9ItcsLgFmcwHkkA+VMpo5oiabauD
3H//haNfmkzRFwxpA6KrIC+3ct0cq5S6IvJr1LM+9rdpLNxybkn8PfFRpbfD2Hea
O+Hx8Vwd4gdRAT/1KcUunogP6TmePTfh4Jo+tRrbJZv3MHZNQXIJmKT1DDczrlU0
I7r7AW1PPaRdHPc5UekmqDErk8KWvvHudvxz
-----END CERTIFICATE-----
