Certificate:
    Data:
        Version: 3 (0x2)
        Serial Number:
            6a:13:a7:d0:e9:90:9b:2f:df:3e:77:03:07:51:8e:75
        Signature Algorithm: sha256WithRSAEncryption
        Issuer: CN=team436-net
        Validity
            Not Before: Nov  3 20:47:10 2023 GMT
            Not After : Oct 18 20:47:10 2026 GMT
        Subject: CN=team436-client
        Subject Public Key Info:
            Public Key Algorithm: rsaEncryption
                Public-Key: (2048 bit)
                Modulus:
                    00:a8:bd:7a:cb:9e:ab:10:1c:6b:07:90:c4:77:ae:
                    f6:9f:3b:e8:e0:47:3f:5a:82:95:c9:9b:f9:41:bf:
                    64:7c:47:20:c5:e8:79:7e:7c:c7:7f:f4:c8:ea:7a:
                    e1:cd:ac:48:f5:8d:bd:59:b1:7e:d1:1f:c9:ef:9f:
                    b2:f2:a1:90:a1:a1:fe:11:46:5a:f1:c0:48:a8:a4:
                    fd:ec:62:33:a9:a6:83:94:64:9a:62:5b:e5:83:6a:
                    95:60:03:2a:a2:95:98:ee:b1:b3:65:9b:b9:6f:40:
                    d2:66:f2:30:3f:8e:73:7e:e3:11:ed:60:44:a0:61:
                    69:68:2f:46:91:6d:10:ff:11:68:de:a8:e8:10:13:
                    80:12:9f:24:77:d9:7c:19:f9:0d:96:ef:a3:a3:b5:
                    c5:ae:d5:1c:fb:10:0c:f6:73:ec:44:98:a0:5b:16:
                    aa:bf:79:c6:11:c4:59:44:5b:4c:96:c7:33:57:3a:
                    0e:86:fe:db:f9:ba:31:cf:cc:ff:f3:29:8f:5f:c0:
                    66:9c:be:7c:ec:84:5d:47:6e:51:70:6e:a5:ff:60:
                    09:31:49:c9:ca:38:6f:03:15:0f:30:1c:61:fa:03:
                    1c:bf:4a:3b:25:15:e4:25:92:29:98:a4:0d:b3:e1:
                    a9:a4:62:da:31:af:99:70:1b:8c:f6:7e:0a:02:b9:
                    19:31
                Exponent: 65537 (0x10001)
        X509v3 extensions:
            X509v3 Basic Constraints: 
                CA:FALSE
            X509v3 Subject Key Identifier: 
                45:15:DF:D6:EB:7F:74:53:01:A4:6B:7B:81:B4:64:7C:BA:EF:0F:BF
            X509v3 Authority Key Identifier: 
                keyid:7E:03:94:02:2B:39:08:87:6D:04:BB:91:05:3D:C9:1C:FE:85:6D:BD
                DirName:/CN=team436-net
                serial:0A:86:79:6B:F9:0D:6B:15:DE:FE:62:94:B4:58:B2:B6:7C:6B:CB:13
            X509v3 Extended Key Usage: 
                TLS Web Client Authentication
            X509v3 Key Usage: 
                Digital Signature
    Signature Algorithm: sha256WithRSAEncryption
    Signature Value:
        ad:ef:f4:ad:34:9a:19:b1:9c:e6:28:5b:1a:15:43:52:16:17:
        85:ad:91:40:50:00:85:8e:fa:cc:7a:ab:8b:6c:cc:fc:b9:36:
        80:5b:b2:5c:cd:38:c9:59:a6:13:12:d4:3a:82:67:28:4d:b4:
        1d:fc:5d:37:19:9f:c3:13:c3:ea:d6:da:b3:ba:0f:f4:8f:20:
        70:25:e9:08:54:45:42:48:0c:85:94:ac:73:7c:10:cc:7e:e5:
        ef:9b:e1:c2:46:01:fb:58:c1:71:4e:39:9f:b5:77:2f:3f:95:
        a3:42:6e:92:ed:99:0f:8d:c9:05:49:a8:df:93:03:9a:57:e1:
        ce:c7:99:ee:b5:3f:0b:a6:49:6e:ad:9d:e5:03:75:31:d4:73:
        ca:e1:31:c3:37:40:fd:80:93:0c:94:0d:9e:e3:18:94:82:6c:
        b1:9c:e2:c2:d1:3c:f4:9d:9f:ad:95:45:41:69:cf:55:8b:ca:
        25:b2:15:79:c0:7e:32:c1:c2:be:80:bf:88:e6:c2:06:8d:09:
        e1:c7:c2:87:e5:4b:b3:4c:e6:9f:ce:99:0b:35:83:69:c2:45:
        d7:dd:1c:f9:4a:5c:fd:9e:8d:80:58:c0:a0:5c:7b:27:2b:ed:
        d8:e9:ef:55:ee:72:0d:e3:96:a2:b7:e6:24:ae:b2:8b:99:57:
        9c:bc:6a:d7
-----BEGIN CERTIFICATE-----
MIIDXDCCAkSgAwIBAgIQahOn0OmQmy/fPncDB1GOdTANBgkqhkiG9w0BAQsFADAW
MRQwEgYDVQQDDAt0ZWFtNDM2LW5ldDAeFw0yMzExMDMyMDQ3MTBaFw0yNjEwMTgy
MDQ3MTBaMBkxFzAVBgNVBAMMDnRlYW00MzYtY2xpZW50MIIBIjANBgkqhkiG9w0B
AQEFAAOCAQ8AMIIBCgKCAQEAqL16y56rEBxrB5DEd672nzvo4Ec/WoKVyZv5Qb9k
fEcgxeh5fnzHf/TI6nrhzaxI9Y29WbF+0R/J75+y8qGQoaH+EUZa8cBIqKT97GIz
qaaDlGSaYlvlg2qVYAMqopWY7rGzZZu5b0DSZvIwP45zfuMR7WBEoGFpaC9GkW0Q
/xFo3qjoEBOAEp8kd9l8GfkNlu+jo7XFrtUc+xAM9nPsRJigWxaqv3nGEcRZRFtM
lsczVzoOhv7b+boxz8z/8ymPX8BmnL587IRdR25RcG6l/2AJMUnJyjhvAxUPMBxh
+gMcv0o7JRXkJZIpmKQNs+GppGLaMa+ZcBuM9n4KArkZMQIDAQABo4GiMIGfMAkG
A1UdEwQCMAAwHQYDVR0OBBYEFEUV39brf3RTAaRre4G0ZHy67w+/MFEGA1UdIwRK
MEiAFH4DlAIrOQiHbQS7kQU9yRz+hW29oRqkGDAWMRQwEgYDVQQDDAt0ZWFtNDM2
LW5ldIIUCoZ5a/kNaxXe/mKUtFiytnxryxMwEwYDVR0lBAwwCgYIKwYBBQUHAwIw
CwYDVR0PBAQDAgeAMA0GCSqGSIb3DQEBCwUAA4IBAQCt7/StNJoZsZzmKFsaFUNS
FheFrZFAUACFjvrMequLbMz8uTaAW7JczTjJWaYTEtQ6gmcoTbQd/F03GZ/DE8Pq
1tqzug/0jyBwJekIVEVCSAyFlKxzfBDMfuXvm+HCRgH7WMFxTjmftXcvP5WjQm6S
7ZkPjckFSajfkwOaV+HOx5nutT8LpklurZ3lA3Ux1HPK4THDN0D9gJMMlA2e4xiU
gmyxnOLC0Tz0nZ+tlUVBac9Vi8olshV5wH4ywcK+gL+I5sIGjQnhx8KH5UuzTOaf
zpkLNYNpwkXX3Rz5Slz9no2AWMCgXHsnK+3Y6e9V7nIN45ait+YkrrKLmVecvGrX
-----END CERTIFICATE-----
