Certificate:
    Data:
        Version: 3 (0x2)
        Serial Number:
            6d:5b:04:57:eb:7e:66:bb:fe:88:4b:7d:00:04:b2:0c
        Signature Algorithm: sha256WithRSAEncryption
        Issuer: CN=team436-net
        Validity
            Not Before: Nov  4 10:48:28 2023 GMT
            Not After : Oct 19 10:48:28 2026 GMT
        Subject: CN=team436-server
        Subject Public Key Info:
            Public Key Algorithm: rsaEncryption
                Public-Key: (2048 bit)
                Modulus:
                    00:c7:f1:07:bd:fe:62:68:08:8f:a6:fc:de:82:7a:
                    d5:da:c4:20:1d:dc:16:40:a6:50:62:c2:3a:d1:8e:
                    ac:df:fa:e6:e8:2e:c1:c5:0e:0b:72:1f:b9:3e:1e:
                    4e:7a:20:25:91:7c:6d:bf:08:ae:bf:62:22:ef:e1:
                    c3:d6:60:86:0c:9a:f1:27:0c:07:06:3b:ef:3c:d0:
                    04:8a:26:54:8e:6e:82:52:a6:6c:b5:b0:da:91:00:
                    1f:c7:d9:d2:48:3d:2e:fd:a1:d1:ba:1d:98:55:88:
                    10:20:5f:a5:50:e9:0d:7f:3d:29:e0:fc:03:f9:a3:
                    8f:c7:f7:ab:67:e1:1a:98:a7:92:1e:b3:aa:91:09:
                    d7:be:5f:d3:9b:85:3a:83:f5:75:2e:4f:e3:57:38:
                    24:7c:64:f6:f6:28:14:56:fc:ee:ed:b8:fd:f5:60:
                    7a:37:30:dc:4e:4b:a1:54:e8:4a:95:9f:24:f9:ae:
                    66:68:4a:7e:34:5b:73:c9:e4:42:1d:e1:03:90:ff:
                    a0:f8:53:f6:ba:81:b0:84:8f:f3:74:d7:3b:5e:e6:
                    fe:2f:d2:9c:a0:56:b2:54:d1:b6:9b:3b:c3:fe:62:
                    73:6a:d7:24:c0:66:97:74:31:89:31:89:90:9f:f8:
                    17:18:8a:2a:79:04:91:c7:8f:5f:ff:de:fd:04:9e:
                    27:ed
                Exponent: 65537 (0x10001)
        X509v3 extensions:
            X509v3 Basic Constraints: 
                CA:FALSE
            X509v3 Subject Key Identifier: 
                98:89:E8:52:0C:03:D3:95:78:48:F7:B0:04:7F:72:5A:03:2C:11:98
            X509v3 Authority Key Identifier: 
                keyid:34:EB:9F:DD:FE:E4:3B:D3:E6:EB:5D:CF:FC:FF:D6:5F:79:4F:A0:BA
                DirName:/CN=team436-net
                serial:32:31:21:FE:F8:38:E0:F7:3F:52:7B:F4:68:C9:24:1C:F3:45:F2:BC
            X509v3 Extended Key Usage: 
                TLS Web Server Authentication
            X509v3 Key Usage: 
                Digital Signature, Key Encipherment
            X509v3 Subject Alternative Name: 
                DNS:team436-server
    Signature Algorithm: sha256WithRSAEncryption
    Signature Value:
        4f:15:a4:aa:0b:5b:45:f5:78:b9:0e:b9:7f:51:71:4b:da:d7:
        c0:9c:73:18:e9:89:88:7c:56:0a:14:1d:df:ce:87:3c:36:5d:
        00:2e:a8:dd:73:d0:54:42:94:f1:fc:fb:7c:81:fe:eb:29:8c:
        01:e5:7e:a8:e9:a4:1c:6b:e6:7e:71:81:56:03:ba:31:8f:86:
        3a:d0:64:1c:2d:72:a2:7f:55:bf:79:71:b7:84:ad:51:bf:38:
        13:9b:d6:7d:3f:77:eb:b6:56:86:74:3f:6e:a3:48:4b:54:97:
        9e:d7:3d:9f:99:c6:0d:7e:77:fc:49:8d:a6:3e:65:b5:fc:1c:
        91:7f:3d:67:3e:ae:48:fe:a5:9e:7e:a0:70:00:d5:6f:2c:c7:
        6a:3b:19:6f:66:c7:2b:76:87:9f:97:d0:4e:c7:ff:26:32:69:
        e4:54:85:20:98:f6:c6:c4:2a:b8:d3:39:c4:48:f7:32:be:5c:
        20:35:8d:46:b5:13:9b:73:54:d4:5a:c3:5d:a2:84:5b:a0:73:
        7f:7b:9a:07:d0:1d:ef:e3:9e:68:17:df:b6:c6:84:3d:03:3e:
        60:b1:17:bd:4e:de:9f:7e:b5:5a:e6:bc:c3:e2:ee:e5:b5:1e:
        14:de:e5:5c:9a:ac:af:82:01:74:44:ce:af:07:dc:97:05:74:
        39:62:5a:6f
-----BEGIN CERTIFICATE-----
MIIDdzCCAl+gAwIBAgIQbVsEV+t+Zrv+iEt9AASyDDANBgkqhkiG9w0BAQsFADAW
MRQwEgYDVQQDDAt0ZWFtNDM2LW5ldDAeFw0yMzExMDQxMDQ4MjhaFw0yNjEwMTkx
MDQ4MjhaMBkxFzAVBgNVBAMMDnRlYW00MzYtc2VydmVyMIIBIjANBgkqhkiG9w0B
AQEFAAOCAQ8AMIIBCgKCAQEAx/EHvf5iaAiPpvzegnrV2sQgHdwWQKZQYsI60Y6s
3/rm6C7BxQ4Lch+5Ph5OeiAlkXxtvwiuv2Ii7+HD1mCGDJrxJwwHBjvvPNAEiiZU
jm6CUqZstbDakQAfx9nSSD0u/aHRuh2YVYgQIF+lUOkNfz0p4PwD+aOPx/erZ+Ea
mKeSHrOqkQnXvl/Tm4U6g/V1Lk/jVzgkfGT29igUVvzu7bj99WB6NzDcTkuhVOhK
lZ8k+a5maEp+NFtzyeRCHeEDkP+g+FP2uoGwhI/zdNc7Xub+L9KcoFayVNG2mzvD
/mJzatckwGaXdDGJMYmQn/gXGIoqeQSRx49f/979BJ4n7QIDAQABo4G9MIG6MAkG
A1UdEwQCMAAwHQYDVR0OBBYEFJiJ6FIMA9OVeEj3sAR/cloDLBGYMFEGA1UdIwRK
MEiAFDTrn93+5DvT5utdz/z/1l95T6C6oRqkGDAWMRQwEgYDVQQDDAt0ZWFtNDM2
LW5ldIIUMjEh/vg44Pc/Unv0aMkkHPNF8rwwEwYDVR0lBAwwCgYIKwYBBQUHAwEw
CwYDVR0PBAQDAgWgMBkGA1UdEQQSMBCCDnRlYW00MzYtc2VydmVyMA0GCSqGSIb3
DQEBCwUAA4IBAQBPFaSqC1tF9Xi5Drl/UXFL2tfAnHMY6YmIfFYKFB3fzoc8Nl0A
Lqjdc9BUQpTx/Pt8gf7rKYwB5X6o6aQca+Z+cYFWA7oxj4Y60GQcLXKif1W/eXG3
hK1RvzgTm9Z9P3frtlaGdD9uo0hLVJee1z2fmcYNfnf8SY2mPmW1/ByRfz1nPq5I
/qWefqBwANVvLMdqOxlvZscrdoefl9BOx/8mMmnkVIUgmPbGxCq40znESPcyvlwg
NY1GtRObc1TUWsNdooRboHN/e5oH0B3v455oF9+2xoQ9Az5gsRe9Tt6ffrVa5rzD
4u7ltR4U3uVcmqyvggF0RM6vB9yXBXQ5Ylpv
-----END CERTIFICATE-----
