Certificate:
    Data:
        Version: 3 (0x2)
        Serial Number:
            8c:cd:4a:1f:f9:a1:f3:bf:bd:49:fc:55:db:e1:c5:12
        Signature Algorithm: sha256WithRSAEncryption
        Issuer: CN=team436-net
        Validity
            Not Before: Nov  4 11:37:14 2023 GMT
            Not After : Oct 19 11:37:14 2026 GMT
        Subject: CN=team436-client
        Subject Public Key Info:
            Public Key Algorithm: rsaEncryption
                Public-Key: (2048 bit)
                Modulus:
                    00:c2:42:f4:3a:dd:20:c5:a8:74:2a:fa:c5:17:a7:
                    9b:d5:a7:af:ed:e2:da:a5:24:68:13:c4:6c:65:d6:
                    85:3e:9e:fe:31:a4:97:71:94:c5:81:bf:41:f5:26:
                    10:3e:eb:e3:45:33:05:d5:34:3a:63:32:f6:89:1d:
                    06:03:ef:f1:5a:90:40:d0:d6:70:73:b0:fc:d8:44:
                    c6:c5:6b:af:90:a2:1b:2b:ff:17:73:a4:26:f6:f1:
                    48:a6:3c:cb:22:a2:13:c0:25:5c:25:7a:89:89:71:
                    0d:15:ae:f0:0f:e9:b4:e8:7a:21:23:9f:62:c0:ec:
                    1d:6d:83:9d:55:c9:70:19:0c:d2:c8:33:d4:1f:a6:
                    60:e8:59:cc:90:91:c5:9f:36:a6:2b:38:d2:5b:a0:
                    55:85:c1:44:ea:0a:eb:bb:93:f0:59:f7:3c:d1:2c:
                    a5:3e:bc:31:79:4d:ce:58:4a:b4:67:7e:e2:7c:24:
                    4b:49:58:2b:72:33:99:26:a0:73:64:a3:7e:d1:0a:
                    ae:9b:76:45:bf:9e:bd:26:4f:2e:0b:9c:28:ec:53:
                    dd:8b:97:48:14:39:72:14:7d:ed:13:f2:83:f2:c9:
                    fb:fb:03:5a:6c:a9:57:39:20:bd:5b:56:c3:d2:cc:
                    c2:19:43:b6:3a:b9:13:d6:be:e0:ae:1c:12:5c:94:
                    d2:15
                Exponent: 65537 (0x10001)
        X509v3 extensions:
            X509v3 Basic Constraints: 
                CA:FALSE
            X509v3 Subject Key Identifier: 
                15:CC:AD:9F:DE:98:D0:24:C0:F5:06:39:02:89:58:E2:6C:AF:29:22
            X509v3 Authority Key Identifier: 
                keyid:B8:D3:15:DE:92:27:B1:E5:D0:78:D7:BE:50:B7:EC:26:46:94:E7:DC
                DirName:/CN=team436-net
                serial:0C:CA:B9:98:47:89:7E:CB:5A:A4:9D:F4:5D:88:F4:9A:D7:2C:CC:D8
            X509v3 Extended Key Usage: 
                TLS Web Client Authentication
            X509v3 Key Usage: 
                Digital Signature
    Signature Algorithm: sha256WithRSAEncryption
    Signature Value:
        65:80:45:6d:fe:c5:0b:c1:4c:a0:dd:9a:ba:ba:6e:33:95:a7:
        fd:69:e3:ff:8d:9c:a9:27:11:73:15:17:ae:ef:9c:a7:e3:04:
        bc:46:8a:1a:18:8e:0f:f9:43:f8:98:27:1a:27:cd:38:0c:c5:
        14:1e:61:dc:b7:ac:14:8f:64:c6:4b:49:39:1a:99:07:9d:4e:
        af:19:c4:00:33:24:59:53:63:2b:f2:0a:73:b5:d6:08:ac:44:
        0c:dc:2a:bd:26:ae:1b:45:dd:56:52:df:e4:5b:85:be:c9:a0:
        e2:66:54:a7:36:60:54:d8:27:16:15:60:e2:5d:1c:fe:45:0c:
        84:ea:b7:16:c2:24:a2:55:41:80:af:35:9b:0d:38:4b:b0:96:
        e8:d0:1b:ea:a1:8c:35:d8:30:4b:0b:89:9e:e9:70:a6:c5:e9:
        23:e9:fd:fb:86:5e:a0:62:35:1b:91:ca:ae:40:d4:4a:73:36:
        8c:2e:29:fb:02:cd:93:20:54:1b:1f:ba:5b:81:47:90:b6:97:
        96:82:06:38:55:00:0e:48:2b:49:31:69:40:88:3d:2d:71:f6:
        03:e9:b7:ce:a0:6d:e5:41:f2:36:e8:98:a0:bd:f5:d6:7a:c7:
        3a:14:b9:fd:5a:f9:e7:f2:6d:d1:e6:a1:42:d5:19:82:52:e6:
        3c:8e:6d:ae
-----BEGIN CERTIFICATE-----
MIIDXTCCAkWgAwIBAgIRAIzNSh/5ofO/vUn8VdvhxRIwDQYJKoZIhvcNAQELBQAw
FjEUMBIGA1UEAwwLdGVhbTQzNi1uZXQwHhcNMjMxMTA0MTEzNzE0WhcNMjYxMDE5
MTEzNzE0WjAZMRcwFQYDVQQDDA50ZWFtNDM2LWNsaWVudDCCASIwDQYJKoZIhvcN
AQEBBQADggEPADCCAQoCggEBAMJC9DrdIMWodCr6xRenm9Wnr+3i2qUkaBPEbGXW
hT6e/jGkl3GUxYG/QfUmED7r40UzBdU0OmMy9okdBgPv8VqQQNDWcHOw/NhExsVr
r5CiGyv/F3OkJvbxSKY8yyKiE8AlXCV6iYlxDRWu8A/ptOh6ISOfYsDsHW2DnVXJ
cBkM0sgz1B+mYOhZzJCRxZ82pis40lugVYXBROoK67uT8Fn3PNEspT68MXlNzlhK
tGd+4nwkS0lYK3IzmSagc2SjftEKrpt2Rb+evSZPLgucKOxT3YuXSBQ5chR97RPy
g/LJ+/sDWmypVzkgvVtWw9LMwhlDtjq5E9a+4K4cElyU0hUCAwEAAaOBojCBnzAJ
BgNVHRMEAjAAMB0GA1UdDgQWBBQVzK2f3pjQJMD1BjkCiVjibK8pIjBRBgNVHSME
SjBIgBS40xXekiex5dB4175Qt+wmRpTn3KEapBgwFjEUMBIGA1UEAwwLdGVhbTQz
Ni1uZXSCFAzKuZhHiX7LWqSd9F2I9JrXLMzYMBMGA1UdJQQMMAoGCCsGAQUFBwMC
MAsGA1UdDwQEAwIHgDANBgkqhkiG9w0BAQsFAAOCAQEAZYBFbf7FC8FMoN2aurpu
M5Wn/Wnj/42cqScRcxUXru+cp+MEvEaKGhiOD/lD+JgnGifNOAzFFB5h3LesFI9k
xktJORqZB51OrxnEADMkWVNjK/IKc7XWCKxEDNwqvSauG0XdVlLf5FuFvsmg4mZU
pzZgVNgnFhVg4l0c/kUMhOq3FsIkolVBgK81mw04S7CW6NAb6qGMNdgwSwuJnulw
psXpI+n9+4ZeoGI1G5HKrkDUSnM2jC4p+wLNkyBUGx+6W4FHkLaXloIGOFUADkgr
STFpQIg9LXH2A+m3zqBt5UHyNuiYoL311nrHOhS5/Vr55/Jt0eahQtUZglLmPI5t
rg==
-----END CERTIFICATE-----
