Certificate:
    Data:
        Version: 3 (0x2)
        Serial Number:
            dc:e9:86:09:10:a8:c6:6c:55:da:a2:bd:ee:80:54:b9
        Signature Algorithm: sha256WithRSAEncryption
        Issuer: CN=team436-net
        Validity
            Not Before: Nov  4 10:48:28 2023 GMT
            Not After : Oct 19 10:48:28 2026 GMT
        Subject: CN=team436-client
        Subject Public Key Info:
            Public Key Algorithm: rsaEncryption
                Public-Key: (2048 bit)
                Modulus:
                    00:99:f5:94:a7:b2:7e:35:c8:ff:d9:b7:b4:f5:9d:
                    69:11:47:b1:ff:93:b9:37:42:ea:f0:b5:07:69:29:
                    fe:4c:a8:c3:c4:f0:33:cb:f7:4c:47:c3:87:f5:9a:
                    11:74:67:62:24:8b:fa:c2:a0:6a:cf:19:39:74:61:
                    22:94:c4:3f:1f:b2:c5:03:44:9a:76:5a:0d:95:ea:
                    2e:05:b3:40:07:fe:bb:62:3b:a6:68:44:67:ae:05:
                    97:3b:50:b2:51:1d:ab:cf:f4:19:82:c4:2e:0e:a0:
                    f2:0d:05:7d:3f:3f:40:64:16:60:a9:ab:4d:68:50:
                    e3:02:58:26:b5:fd:bc:97:57:71:17:bb:d5:1e:fb:
                    8f:9a:ec:b8:94:ee:d7:5e:2c:3f:84:5c:ad:76:a9:
                    cc:22:65:09:3a:b5:01:da:55:07:9a:38:4f:65:ca:
                    5f:13:01:82:4a:33:fd:b3:f3:a8:b1:31:7d:8d:ae:
                    bf:14:04:ff:cc:1f:32:5b:52:d8:1f:f7:aa:5d:d7:
                    b4:be:87:67:9f:5c:03:45:18:54:41:65:3b:93:a3:
                    33:82:9a:d1:06:f6:a0:df:39:75:82:7f:7d:4e:19:
                    69:1a:b6:57:17:b3:93:05:af:28:96:36:3f:54:35:
                    da:a8:8f:73:3d:fe:52:14:74:01:57:8a:b0:2b:f0:
                    d6:21
                Exponent: 65537 (0x10001)
        X509v3 extensions:
            X509v3 Basic Constraints: 
                CA:FALSE
            X509v3 Subject Key Identifier: 
                D5:9F:38:61:33:71:42:7C:D3:26:95:42:49:CF:DE:54:BB:06:6D:D6
            X509v3 Authority Key Identifier: 
                keyid:34:EB:9F:DD:FE:E4:3B:D3:E6:EB:5D:CF:FC:FF:D6:5F:79:4F:A0:BA
                DirName:/CN=team436-net
                serial:32:31:21:FE:F8:38:E0:F7:3F:52:7B:F4:68:C9:24:1C:F3:45:F2:BC
            X509v3 Extended Key Usage: 
                TLS Web Client Authentication
            X509v3 Key Usage: 
                Digital Signature
    Signature Algorithm: sha256WithRSAEncryption
    Signature Value:
        0f:b7:50:56:b2:be:29:56:8e:43:f8:54:54:0b:eb:57:25:9f:
        59:6f:ea:eb:e1:a6:e0:46:08:e1:f8:27:67:7b:b9:bc:8b:48:
        4a:09:c3:0f:cb:4d:80:0f:8d:a1:87:28:f8:cd:79:6a:9f:e8:
        b2:39:bc:d7:36:66:f6:26:ae:f7:c2:82:49:0d:8f:f6:a1:d4:
        8e:2b:63:f8:aa:6a:5d:a0:2a:7e:3f:e1:89:9a:ca:f7:eb:ec:
        4b:f5:8f:ff:d8:a5:56:f7:da:55:dd:59:dc:41:87:36:09:45:
        54:17:57:6c:a6:ad:f6:34:19:be:6c:55:66:07:14:d7:28:9c:
        e1:10:a6:3c:11:7b:3c:c9:44:c4:79:36:06:2e:51:90:47:e3:
        e5:38:76:a2:ea:cb:42:d2:b3:65:b7:40:dc:ec:6c:a4:4c:e6:
        14:63:5e:4b:04:d7:9c:4b:9c:c1:2a:a7:cf:63:b2:cf:24:35:
        12:8d:43:7a:42:58:d3:ad:91:3f:c1:ab:6e:57:c0:42:d8:e1:
        d2:a4:4e:05:30:9b:bb:6d:c4:08:50:c8:d8:12:88:c1:e1:d7:
        07:9c:99:83:1b:51:3c:9b:ef:29:57:66:83:dc:1a:e4:ca:62:
        ec:90:bd:9a:a0:1b:4a:cf:b8:34:98:3e:0a:2a:70:c3:17:65:
        24:17:ca:36
-----BEGIN CERTIFICATE-----
MIIDXTCCAkWgAwIBAgIRANzphgkQqMZsVdqive6AVLkwDQYJKoZIhvcNAQELBQAw
FjEUMBIGA1UEAwwLdGVhbTQzNi1uZXQwHhcNMjMxMTA0MTA0ODI4WhcNMjYxMDE5
MTA0ODI4WjAZMRcwFQYDVQQDDA50ZWFtNDM2LWNsaWVudDCCASIwDQYJKoZIhvcN
AQEBBQADggEPADCCAQoCggEBAJn1lKeyfjXI/9m3tPWdaRFHsf+TuTdC6vC1B2kp
/kyow8TwM8v3TEfDh/WaEXRnYiSL+sKgas8ZOXRhIpTEPx+yxQNEmnZaDZXqLgWz
QAf+u2I7pmhEZ64FlztQslEdq8/0GYLELg6g8g0FfT8/QGQWYKmrTWhQ4wJYJrX9
vJdXcRe71R77j5rsuJTu114sP4RcrXapzCJlCTq1AdpVB5o4T2XKXxMBgkoz/bPz
qLExfY2uvxQE/8wfMltS2B/3ql3XtL6HZ59cA0UYVEFlO5OjM4Ka0Qb2oN85dYJ/
fU4ZaRq2VxezkwWvKJY2P1Q12qiPcz3+UhR0AVeKsCvw1iECAwEAAaOBojCBnzAJ
BgNVHRMEAjAAMB0GA1UdDgQWBBTVnzhhM3FCfNMmlUJJz95UuwZt1jBRBgNVHSME
SjBIgBQ065/d/uQ70+brXc/8/9ZfeU+guqEapBgwFjEUMBIGA1UEAwwLdGVhbTQz
Ni1uZXSCFDIxIf74OOD3P1J79GjJJBzzRfK8MBMGA1UdJQQMMAoGCCsGAQUFBwMC
MAsGA1UdDwQEAwIHgDANBgkqhkiG9w0BAQsFAAOCAQEAD7dQVrK+KVaOQ/hUVAvr
VyWfWW/q6+Gm4EYI4fgnZ3u5vItISgnDD8tNgA+NoYco+M15ap/osjm81zZm9iau
98KCSQ2P9qHUjitj+KpqXaAqfj/hiZrK9+vsS/WP/9ilVvfaVd1Z3EGHNglFVBdX
bKat9jQZvmxVZgcU1yic4RCmPBF7PMlExHk2Bi5RkEfj5Th2ourLQtKzZbdA3Oxs
pEzmFGNeSwTXnEucwSqnz2OyzyQ1Eo1DekJY062RP8GrblfAQtjh0qROBTCbu23E
CFDI2BKIweHXB5yZgxtRPJvvKVdmg9wa5Mpi7JC9mqAbSs+4NJg+CipwwxdlJBfK
Ng==
-----END CERTIFICATE-----
