Certificate:
    Data:
        Version: 3 (0x2)
        Serial Number:
            bd:73:06:3f:35:0f:ee:85:eb:5c:10:0f:4d:80:90:46
        Signature Algorithm: sha256WithRSAEncryption
        Issuer: CN=team4-net
        Validity
            Not Before: Oct 31 16:30:13 2023 GMT
            Not After : Oct 15 16:30:13 2026 GMT
        Subject: CN=team4-server
        Subject Public Key Info:
            Public Key Algorithm: rsaEncryption
                Public-Key: (2048 bit)
                Modulus:
                    00:e2:09:12:74:9c:df:ec:37:28:3f:5f:b0:09:a8:
                    18:a2:08:3c:69:0d:c1:64:4c:b5:71:69:28:b7:71:
                    87:b6:bd:5d:45:37:7c:ee:1a:38:83:1a:ab:b0:b8:
                    08:79:43:50:56:34:8f:b8:c5:4c:27:40:ae:a1:26:
                    5e:72:67:3e:56:89:9c:fd:76:18:5e:02:39:5c:d5:
                    66:bc:8a:76:a9:56:5c:12:d4:e7:a5:1f:47:c5:51:
                    80:82:79:14:db:38:13:8a:56:13:0d:80:2b:94:2f:
                    22:41:b2:fb:97:57:1f:01:30:42:61:16:22:68:c9:
                    e5:f4:53:20:c7:a9:43:db:d7:8b:9d:15:33:f1:21:
                    b6:5a:1c:09:10:de:e0:9b:a4:3f:e8:00:68:83:9f:
                    46:a6:3a:61:4b:12:67:db:fa:3a:43:c0:f0:71:08:
                    3c:1d:8f:b8:8c:d5:ab:ae:cc:54:a9:52:1f:d3:f3:
                    27:97:38:61:61:2d:df:83:14:37:ef:33:86:86:8c:
                    02:ca:fb:b2:75:dc:63:64:29:62:49:43:5f:34:59:
                    09:3c:d1:58:56:b3:ab:39:32:6a:f6:8e:69:f3:c6:
                    5e:3d:b9:5b:0a:45:4a:ea:a9:12:64:b1:ba:b0:87:
                    a6:b9:63:34:eb:ec:ce:aa:4b:97:f3:4f:09:b6:6b:
                    84:87
                Exponent: 65537 (0x10001)
        X509v3 extensions:
            X509v3 Basic Constraints: 
                CA:FALSE
            X509v3 Subject Key Identifier: 
                5A:2E:AC:8D:B5:30:46:5A:9C:B0:EE:A5:4A:B4:7A:A0:01:6F:D3:D8
            X509v3 Authority Key Identifier: 
                keyid:15:AC:1A:60:03:DF:66:8D:B6:C3:45:2A:9A:25:96:26:A2:08:06:B4
                DirName:/CN=team4-net
                serial:7A:40:25:35:3D:1E:C5:DD:30:B9:57:68:EB:43:12:DF:74:E3:57:05
            X509v3 Extended Key Usage: 
                TLS Web Server Authentication
            X509v3 Key Usage: 
                Digital Signature, Key Encipherment
            X509v3 Subject Alternative Name: 
                DNS:team4-server
    Signature Algorithm: sha256WithRSAEncryption
    Signature Value:
        74:6a:27:75:16:ab:98:53:f4:ed:07:8a:a3:71:1c:df:15:4a:
        86:8b:13:b1:03:a6:88:92:1e:48:b4:24:b7:7e:b3:18:41:8f:
        c3:8b:ad:9a:ae:99:93:21:a8:be:48:8b:16:0a:67:94:95:02:
        3b:10:b3:2c:a5:7b:07:33:e8:ec:92:26:61:b3:5d:77:c8:8e:
        6c:af:25:c5:8c:54:db:76:b9:30:1c:cf:08:b1:de:2a:73:6b:
        de:29:e2:15:95:1d:8a:13:ba:2a:2c:1e:9c:23:d5:03:7e:43:
        61:03:70:ec:d2:81:f9:fe:6a:a1:94:03:0c:0b:e9:05:c9:a9:
        d0:43:a1:1e:68:80:f7:5a:d9:7c:85:f5:b2:04:f1:8c:ed:9a:
        90:3d:32:e3:c6:5a:b1:c8:be:cb:ab:7e:4e:92:88:d9:2a:3e:
        17:f9:b9:5f:04:02:77:92:2a:ce:f9:89:52:e5:9a:2f:9e:5f:
        2c:45:1c:54:45:31:f4:e8:81:9e:ab:14:e1:7e:95:e6:25:01:
        4c:d0:ce:93:6d:21:47:f0:7c:64:ec:58:84:a7:b4:1d:0e:50:
        e6:09:23:e8:09:f7:52:b1:56:8e:f8:14:9a:09:21:f8:b2:42:
        6f:60:6d:56:fd:53:ae:d1:3c:01:b0:ef:47:a2:38:78:d4:92:
        e4:80:85:78
-----BEGIN CERTIFICATE-----
MIIDcDCCAligAwIBAgIRAL1zBj81D+6F61wQD02AkEYwDQYJKoZIhvcNAQELBQAw
FDESMBAGA1UEAwwJdGVhbTQtbmV0MB4XDTIzMTAzMTE2MzAxM1oXDTI2MTAxNTE2
MzAxM1owFzEVMBMGA1UEAwwMdGVhbTQtc2VydmVyMIIBIjANBgkqhkiG9w0BAQEF
AAOCAQ8AMIIBCgKCAQEA4gkSdJzf7DcoP1+wCagYogg8aQ3BZEy1cWkot3GHtr1d
RTd87ho4gxqrsLgIeUNQVjSPuMVMJ0CuoSZecmc+Vomc/XYYXgI5XNVmvIp2qVZc
EtTnpR9HxVGAgnkU2zgTilYTDYArlC8iQbL7l1cfATBCYRYiaMnl9FMgx6lD29eL
nRUz8SG2WhwJEN7gm6Q/6ABog59GpjphSxJn2/o6Q8DwcQg8HY+4jNWrrsxUqVIf
0/MnlzhhYS3fgxQ37zOGhowCyvuyddxjZCliSUNfNFkJPNFYVrOrOTJq9o5p88Ze
PblbCkVK6qkSZLG6sIemuWM06+zOqkuX808JtmuEhwIDAQABo4G5MIG2MAkGA1Ud
EwQCMAAwHQYDVR0OBBYEFFourI21MEZanLDupUq0eqABb9PYME8GA1UdIwRIMEaA
FBWsGmAD32aNtsNFKpolliaiCAa0oRikFjAUMRIwEAYDVQQDDAl0ZWFtNC1uZXSC
FHpAJTU9HsXdMLlXaOtDEt9041cFMBMGA1UdJQQMMAoGCCsGAQUFBwMBMAsGA1Ud
DwQEAwIFoDAXBgNVHREEEDAOggx0ZWFtNC1zZXJ2ZXIwDQYJKoZIhvcNAQELBQAD
ggEBAHRqJ3UWq5hT9O0HiqNxHN8VSoaLE7EDpoiSHki0JLd+sxhBj8OLrZqumZMh
qL5IixYKZ5SVAjsQsyylewcz6OySJmGzXXfIjmyvJcWMVNt2uTAczwix3ipza94p
4hWVHYoTuiosHpwj1QN+Q2EDcOzSgfn+aqGUAwwL6QXJqdBDoR5ogPda2XyF9bIE
8YztmpA9MuPGWrHIvsurfk6SiNkqPhf5uV8EAneSKs75iVLlmi+eXyxFHFRFMfTo
gZ6rFOF+leYlAUzQzpNtIUfwfGTsWISntB0OUOYJI+gJ91KxVo74FJoJIfiyQm9g
bVb9U67RPAGw70eiOHjUkuSAhXg=
-----END CERTIFICATE-----
