Certificate:
    Data:
        Version: 3 (0x2)
        Serial Number:
            48:d6:ec:06:4b:2f:68:83:ba:14:cd:0f:3f:29:60:ca
        Signature Algorithm: sha256WithRSAEncryption
        Issuer: CN=team105-net
        Validity
            Not Before: Nov  4 11:29:31 2023 GMT
            Not After : Oct 19 11:29:31 2026 GMT
        Subject: CN=team105-server
        Subject Public Key Info:
            Public Key Algorithm: rsaEncryption
                Public-Key: (2048 bit)
                Modulus:
                    00:a4:ad:b9:ff:08:b6:50:b9:75:47:00:29:e0:b7:
                    77:32:ff:b4:7e:7d:f2:22:45:97:7f:d0:23:b2:cf:
                    d2:e0:6f:8a:a9:80:a5:a4:28:c9:aa:a3:52:b3:36:
                    6a:41:a2:72:ac:af:e2:58:3e:e4:1c:fa:1c:75:08:
                    3a:64:d3:04:59:0f:a0:99:3a:5c:76:39:c7:24:3f:
                    64:d1:ef:17:a5:a2:73:b1:8f:72:9f:1f:73:c5:da:
                    6c:14:38:70:b6:f3:9a:2d:6f:46:a6:2f:d1:47:96:
                    8d:6f:bc:48:fc:c0:84:6a:7b:fd:c2:11:75:b4:a2:
                    f6:81:9a:7d:8c:52:ed:91:7c:82:a4:86:cd:a0:d5:
                    e7:1d:f9:5d:c5:ca:5f:57:bc:07:de:e8:b2:df:84:
                    5e:4f:4d:0b:bb:87:21:aa:af:5a:c9:19:14:79:1d:
                    6f:29:27:8e:ff:60:9d:f8:7d:fd:83:1b:57:41:e8:
                    fc:0f:6b:42:07:24:8d:ee:7a:95:78:33:2c:06:f5:
                    50:bc:a8:7b:c6:9c:1a:f7:3c:9c:c2:e1:cc:74:d9:
                    c6:b0:ea:c0:7f:03:74:ad:09:cd:b7:1c:59:17:60:
                    15:53:23:3f:5e:6b:fe:b5:d1:ee:07:50:bf:d3:a8:
                    de:8a:35:07:b6:bd:35:82:ed:2a:47:75:05:4f:30:
                    53:3f
                Exponent: 65537 (0x10001)
        X509v3 extensions:
            X509v3 Basic Constraints: 
                CA:FALSE
            X509v3 Subject Key Identifier: 
                E8:55:EA:1C:B2:9F:8D:A9:67:B7:B0:4D:F8:CF:C6:1B:DF:1D:67:5F
            X509v3 Authority Key Identifier: 
                keyid:9E:CE:95:B1:0D:9C:D5:38:1F:0C:7A:41:DD:F5:E9:26:02:23:8D:78
                DirName:/CN=team105-net
                serial:74:04:3E:00:6F:D3:3E:94:38:E7:A9:FB:DA:A5:79:2E:C8:10:14:82
            X509v3 Extended Key Usage: 
                TLS Web Server Authentication
            X509v3 Key Usage: 
                Digital Signature, Key Encipherment
            X509v3 Subject Alternative Name: 
                DNS:team105-server
    Signature Algorithm: sha256WithRSAEncryption
    Signature Value:
        09:07:21:44:f3:1c:f6:cb:97:c7:87:d0:f6:f3:5f:43:ac:fd:
        1c:8c:32:fb:7b:e4:96:b5:7e:d9:4d:9b:d8:16:1a:89:86:ba:
        20:82:ce:28:e9:c7:e6:ef:60:86:cb:00:93:78:60:33:f1:b7:
        15:a8:76:38:7c:b4:f5:c3:e6:bf:ae:db:21:90:eb:b4:be:f6:
        b1:92:00:d4:53:53:5d:16:c5:92:f9:e7:1d:10:7a:4b:78:6a:
        6e:71:97:ab:49:f0:a2:2b:72:66:06:05:e6:33:10:7d:80:6b:
        00:56:e2:73:12:7e:64:ee:be:4d:45:f0:84:3a:27:c8:98:83:
        64:f6:f2:7e:2d:f4:f4:42:1e:88:94:9c:10:36:f5:38:4c:b1:
        e5:4e:26:bf:0e:f6:8d:5e:09:c2:5f:60:72:b8:ce:ad:55:fe:
        f0:76:9c:4b:1d:76:79:bf:5a:80:b9:7c:3a:4b:d7:27:b8:ce:
        c8:78:e5:79:b3:8e:1e:3b:a5:f8:84:f4:ce:2f:dd:be:c7:97:
        b3:b1:b0:16:a0:54:e2:7b:c2:af:3a:e8:0c:25:be:1f:8a:d9:
        9e:30:bc:e9:cf:b0:d4:ad:b5:2f:c9:76:36:09:c9:7d:66:6b:
        fa:d8:0d:af:a4:ee:06:d7:6e:01:f7:01:91:a4:aa:13:97:a7:
        d9:d8:43:aa
-----BEGIN CERTIFICATE-----
MIIDdzCCAl+gAwIBAgIQSNbsBksvaIO6FM0PPylgyjANBgkqhkiG9w0BAQsFADAW
MRQwEgYDVQQDDAt0ZWFtMTA1LW5ldDAeFw0yMzExMDQxMTI5MzFaFw0yNjEwMTkx
MTI5MzFaMBkxFzAVBgNVBAMMDnRlYW0xMDUtc2VydmVyMIIBIjANBgkqhkiG9w0B
AQEFAAOCAQ8AMIIBCgKCAQEApK25/wi2ULl1RwAp4Ld3Mv+0fn3yIkWXf9Ajss/S
4G+KqYClpCjJqqNSszZqQaJyrK/iWD7kHPocdQg6ZNMEWQ+gmTpcdjnHJD9k0e8X
paJzsY9ynx9zxdpsFDhwtvOaLW9Gpi/RR5aNb7xI/MCEanv9whF1tKL2gZp9jFLt
kXyCpIbNoNXnHfldxcpfV7wH3uiy34ReT00Lu4chqq9ayRkUeR1vKSeO/2Cd+H39
gxtXQej8D2tCBySN7nqVeDMsBvVQvKh7xpwa9zycwuHMdNnGsOrAfwN0rQnNtxxZ
F2AVUyM/Xmv+tdHuB1C/06jeijUHtr01gu0qR3UFTzBTPwIDAQABo4G9MIG6MAkG
A1UdEwQCMAAwHQYDVR0OBBYEFOhV6hyyn42pZ7ewTfjPxhvfHWdfMFEGA1UdIwRK
MEiAFJ7OlbENnNU4Hwx6Qd316SYCI414oRqkGDAWMRQwEgYDVQQDDAt0ZWFtMTA1
LW5ldIIUdAQ+AG/TPpQ456n72qV5LsgQFIIwEwYDVR0lBAwwCgYIKwYBBQUHAwEw
CwYDVR0PBAQDAgWgMBkGA1UdEQQSMBCCDnRlYW0xMDUtc2VydmVyMA0GCSqGSIb3
DQEBCwUAA4IBAQAJByFE8xz2y5fHh9D2819DrP0cjDL7e+SWtX7ZTZvYFhqJhrog
gs4o6cfm72CGywCTeGAz8bcVqHY4fLT1w+a/rtshkOu0vvaxkgDUU1NdFsWS+ecd
EHpLeGpucZerSfCiK3JmBgXmMxB9gGsAVuJzEn5k7r5NRfCEOifImINk9vJ+LfT0
Qh6IlJwQNvU4TLHlTia/DvaNXgnCX2ByuM6tVf7wdpxLHXZ5v1qAuXw6S9cnuM7I
eOV5s44eO6X4hPTOL92+x5ezsbAWoFTie8KvOugMJb4fitmeMLzpz7DUrbUvyXY2
Ccl9Zmv62A2vpO4G124B9wGRpKoTl6fZ2EOq
-----END CERTIFICATE-----
