Certificate:
    Data:
        Version: 3 (0x2)
        Serial Number:
            8c:ca:9f:e8:55:93:e0:6e:44:3b:93:a0:ea:b1:a1:dd
        Signature Algorithm: sha256WithRSAEncryption
        Issuer: CN=team105-net
        Validity
            Not Before: Nov  4 10:42:22 2023 GMT
            Not After : Oct 19 10:42:22 2026 GMT
        Subject: CN=team105-client
        Subject Public Key Info:
            Public Key Algorithm: rsaEncryption
                Public-Key: (2048 bit)
                Modulus:
                    00:cf:48:d6:b3:e0:ee:2c:c5:4f:6b:17:af:90:17:
                    e4:b1:2c:f1:15:a2:19:e1:34:81:d8:33:82:f0:63:
                    c6:67:47:e9:18:05:74:67:1a:d5:53:17:76:00:8d:
                    74:85:01:90:a8:b6:23:28:85:00:44:35:d2:ba:d5:
                    b4:5e:cf:20:fd:3d:0c:ca:32:55:37:f1:f4:14:b2:
                    da:b9:16:46:46:5d:9f:c6:f5:55:46:af:bb:11:f6:
                    cb:32:21:ff:79:74:81:12:7f:01:92:d6:32:c0:69:
                    39:e4:ac:6a:d2:6b:9b:65:dc:a7:a2:0c:64:8e:b3:
                    9a:e7:7e:af:3a:36:d9:53:da:16:ad:51:4e:f5:a5:
                    c4:11:84:c8:ae:78:1b:6b:b9:75:b1:75:59:4c:a7:
                    ab:90:98:86:c4:d6:a9:5f:61:33:b3:53:b0:cb:f6:
                    d7:70:70:5c:86:fc:31:cc:b5:01:b9:09:c3:cc:43:
                    40:9a:04:47:8a:62:ed:af:c2:52:75:49:14:04:91:
                    35:1a:f2:04:12:70:86:8c:85:5a:e3:89:1a:29:8b:
                    41:3e:84:07:7a:a6:de:90:5f:a5:bd:b3:28:64:a9:
                    b6:b1:3b:d3:01:68:7c:95:ae:b6:b5:8c:c5:af:ed:
                    1a:6c:63:3d:d1:59:80:08:61:7d:97:e3:3a:7f:04:
                    f6:a3
                Exponent: 65537 (0x10001)
        X509v3 extensions:
            X509v3 Basic Constraints: 
                CA:FALSE
            X509v3 Subject Key Identifier: 
                60:61:B8:01:CB:07:03:2F:EC:CE:6D:84:87:D5:A4:DC:F6:F3:50:60
            X509v3 Authority Key Identifier: 
                keyid:B7:E6:FA:1B:8E:D9:F7:87:72:66:BB:83:9A:E5:92:4F:6E:C6:1C:F3
                DirName:/CN=team105-net
                serial:4D:85:0A:05:47:77:EE:AA:F5:09:E5:38:FE:B3:C4:B6:8A:27:C8:C9
            X509v3 Extended Key Usage: 
                TLS Web Client Authentication
            X509v3 Key Usage: 
                Digital Signature
    Signature Algorithm: sha256WithRSAEncryption
    Signature Value:
        82:b7:8c:8b:3e:16:08:4b:9c:6d:bf:ec:e1:4f:55:68:b3:a7:
        51:30:13:5b:20:bb:4d:b7:b5:31:56:8b:6a:67:03:f5:93:6c:
        3c:67:98:e6:a9:ec:af:30:90:7d:38:d9:29:57:55:9a:26:65:
        95:82:e7:04:00:a6:da:ef:8a:fa:fa:8e:e8:17:d4:fc:dd:5d:
        24:e4:a1:cd:ad:b9:02:ea:06:20:ce:bd:0c:ad:f5:9a:12:9a:
        fb:a9:fc:ae:fe:52:72:cc:b7:82:13:00:23:bc:97:0d:21:90:
        7c:af:11:c5:e4:e9:36:bf:bf:11:45:93:c2:6b:06:10:53:3a:
        21:6d:79:7b:9b:11:64:77:39:37:b5:54:d1:4e:b7:55:4b:35:
        b1:39:75:a7:eb:cc:3b:d7:67:42:e2:f7:23:e3:10:8e:e7:88:
        08:30:00:23:da:8e:fa:6b:56:76:57:42:8b:9f:ba:33:4d:e8:
        8d:70:a4:18:fc:9d:b2:21:28:20:71:aa:78:d5:bc:1a:eb:e3:
        87:f3:cb:3b:b8:cb:da:6f:0f:06:c8:2d:3a:d8:ba:b6:f6:95:
        00:37:64:2f:77:61:f4:59:e1:fc:20:eb:dd:31:80:d9:ec:89:
        5c:3e:62:ab:16:e8:e5:b6:01:4b:7b:21:03:eb:0f:7d:ae:a3:
        d5:5e:0a:5f
-----BEGIN CERTIFICATE-----
MIIDXTCCAkWgAwIBAgIRAIzKn+hVk+BuRDuToOqxod0wDQYJKoZIhvcNAQELBQAw
FjEUMBIGA1UEAwwLdGVhbTEwNS1uZXQwHhcNMjMxMTA0MTA0MjIyWhcNMjYxMDE5
MTA0MjIyWjAZMRcwFQYDVQQDDA50ZWFtMTA1LWNsaWVudDCCASIwDQYJKoZIhvcN
AQEBBQADggEPADCCAQoCggEBAM9I1rPg7izFT2sXr5AX5LEs8RWiGeE0gdgzgvBj
xmdH6RgFdGca1VMXdgCNdIUBkKi2IyiFAEQ10rrVtF7PIP09DMoyVTfx9BSy2rkW
RkZdn8b1VUavuxH2yzIh/3l0gRJ/AZLWMsBpOeSsatJrm2Xcp6IMZI6zmud+rzo2
2VPaFq1RTvWlxBGEyK54G2u5dbF1WUynq5CYhsTWqV9hM7NTsMv213BwXIb8Mcy1
AbkJw8xDQJoER4pi7a/CUnVJFASRNRryBBJwhoyFWuOJGimLQT6EB3qm3pBfpb2z
KGSptrE70wFofJWutrWMxa/tGmxjPdFZgAhhfZfjOn8E9qMCAwEAAaOBojCBnzAJ
BgNVHRMEAjAAMB0GA1UdDgQWBBRgYbgBywcDL+zObYSH1aTc9vNQYDBRBgNVHSME
SjBIgBS35vobjtn3h3Jmu4Oa5ZJPbsYc86EapBgwFjEUMBIGA1UEAwwLdGVhbTEw
NS1uZXSCFE2FCgVHd+6q9QnlOP6zxLaKJ8jJMBMGA1UdJQQMMAoGCCsGAQUFBwMC
MAsGA1UdDwQEAwIHgDANBgkqhkiG9w0BAQsFAAOCAQEAgreMiz4WCEucbb/s4U9V
aLOnUTATWyC7Tbe1MVaLamcD9ZNsPGeY5qnsrzCQfTjZKVdVmiZllYLnBACm2u+K
+vqO6BfU/N1dJOShza25AuoGIM69DK31mhKa+6n8rv5Scsy3ghMAI7yXDSGQfK8R
xeTpNr+/EUWTwmsGEFM6IW15e5sRZHc5N7VU0U63VUs1sTl1p+vMO9dnQuL3I+MQ
jueICDAAI9qO+mtWdldCi5+6M03ojXCkGPydsiEoIHGqeNW8Guvjh/PLO7jL2m8P
BsgtOti6tvaVADdkL3dh9Fnh/CDr3TGA2eyJXD5iqxbo5bYBS3shA+sPfa6j1V4K
Xw==
-----END CERTIFICATE-----
