Certificate:
    Data:
        Version: 3 (0x2)
        Serial Number:
            ad:a0:ab:dd:b6:7c:51:28:18:c5:a5:2c:97:72:fa:e6
        Signature Algorithm: sha256WithRSAEncryption
        Issuer: CN=team105-net
        Validity
            Not Before: Nov  4 10:42:22 2023 GMT
            Not After : Oct 19 10:42:22 2026 GMT
        Subject: CN=team105-server
        Subject Public Key Info:
            Public Key Algorithm: rsaEncryption
                Public-Key: (2048 bit)
                Modulus:
                    00:92:a2:49:4a:c8:ff:23:06:a2:5a:2c:e6:3f:92:
                    60:09:3d:06:6d:e3:8e:85:3a:95:b7:18:f8:44:dd:
                    39:dc:26:ce:20:40:bd:f1:26:ff:56:28:2e:11:a0:
                    f0:bc:9d:df:b9:ed:89:33:59:6d:5f:66:38:de:6a:
                    ac:f8:e6:c8:d5:f1:80:ce:b8:8d:38:d5:a7:72:d9:
                    ce:f1:ee:7c:54:86:15:ac:84:a8:e7:0c:c8:18:ac:
                    9b:fb:34:a2:0b:f6:f5:43:4c:ec:78:e2:23:42:5a:
                    bf:ac:77:e6:7a:5f:f4:68:96:98:b2:fd:d0:f8:d2:
                    8a:8f:e6:61:ff:58:f0:06:5c:3b:2f:12:9d:8c:7a:
                    72:9f:82:3b:a1:d1:1f:46:f3:f0:46:71:ac:5e:f1:
                    61:4b:da:ab:64:e1:7f:2c:48:0e:68:bc:e3:32:16:
                    35:11:bf:a9:12:32:d5:cf:a1:4a:89:80:66:06:c6:
                    2a:ff:7c:7a:ea:1a:df:46:16:f8:92:b2:e4:71:ec:
                    4a:e1:cc:27:cd:04:87:05:7b:2f:f8:d3:6c:e1:35:
                    83:84:d1:71:1f:64:1d:9d:bf:51:dc:96:f7:32:47:
                    2d:6b:7e:68:9d:87:63:d6:52:1a:79:3a:40:9c:80:
                    0e:5e:63:36:26:9b:3b:95:a4:d1:bc:65:6e:56:24:
                    9e:fb
                Exponent: 65537 (0x10001)
        X509v3 extensions:
            X509v3 Basic Constraints: 
                CA:FALSE
            X509v3 Subject Key Identifier: 
                5A:30:DE:BA:A2:19:0A:D1:E2:35:E7:20:DD:B7:5F:31:65:F3:CB:76
            X509v3 Authority Key Identifier: 
                keyid:B7:E6:FA:1B:8E:D9:F7:87:72:66:BB:83:9A:E5:92:4F:6E:C6:1C:F3
                DirName:/CN=team105-net
                serial:4D:85:0A:05:47:77:EE:AA:F5:09:E5:38:FE:B3:C4:B6:8A:27:C8:C9
            X509v3 Extended Key Usage: 
                TLS Web Server Authentication
            X509v3 Key Usage: 
                Digital Signature, Key Encipherment
            X509v3 Subject Alternative Name: 
                DNS:team105-server
    Signature Algorithm: sha256WithRSAEncryption
    Signature Value:
        2d:75:03:4b:e6:79:ba:24:b7:8b:15:ad:c3:af:b6:f0:76:f6:
        96:a9:e3:25:cb:d4:45:d7:10:ea:82:f7:ec:fa:32:4f:c1:42:
        b9:6d:fc:70:87:72:77:2e:de:1e:f2:33:49:67:ac:9b:d1:75:
        17:a5:89:2b:fd:93:c7:8e:33:af:7e:18:86:36:8b:5f:de:0f:
        1f:ba:46:5b:85:1a:8e:29:cf:b1:b2:90:a5:e5:55:3c:e0:6b:
        d0:4f:8e:52:19:55:3a:3e:bf:30:ab:8f:29:5c:31:5c:b4:a5:
        2a:a7:fe:ed:ab:b4:94:db:a8:e3:55:c3:bc:28:39:3c:1f:02:
        3f:b2:e7:f0:48:8d:1a:72:04:84:6d:10:4a:3e:ea:12:db:4e:
        8e:8f:43:9d:0e:1a:93:ea:7d:83:0c:7b:64:f9:34:97:eb:be:
        d2:34:26:f5:6b:08:30:96:88:2d:f8:b2:12:9a:67:24:bd:e6:
        2a:ca:a1:8c:e6:af:40:0f:6c:e3:15:55:d6:75:87:c6:d0:00:
        e6:62:61:78:59:42:46:80:c2:a4:fd:9f:ff:26:4f:3c:ae:ac:
        12:8c:15:03:6c:69:7d:70:30:a1:ce:1d:77:e9:7a:8f:ce:af:
        75:39:2e:fa:07:8b:eb:66:e2:9a:13:5e:0f:99:2a:1e:51:f0:
        09:92:8a:f9
-----BEGIN CERTIFICATE-----
MIIDeDCCAmCgAwIBAgIRAK2gq922fFEoGMWlLJdy+uYwDQYJKoZIhvcNAQELBQAw
FjEUMBIGA1UEAwwLdGVhbTEwNS1uZXQwHhcNMjMxMTA0MTA0MjIyWhcNMjYxMDE5
MTA0MjIyWjAZMRcwFQYDVQQDDA50ZWFtMTA1LXNlcnZlcjCCASIwDQYJKoZIhvcN
AQEBBQADggEPADCCAQoCggEBAJKiSUrI/yMGolos5j+SYAk9Bm3jjoU6lbcY+ETd
OdwmziBAvfEm/1YoLhGg8Lyd37ntiTNZbV9mON5qrPjmyNXxgM64jTjVp3LZzvHu
fFSGFayEqOcMyBism/s0ogv29UNM7HjiI0Jav6x35npf9GiWmLL90PjSio/mYf9Y
8AZcOy8SnYx6cp+CO6HRH0bz8EZxrF7xYUvaq2ThfyxIDmi84zIWNRG/qRIy1c+h
SomAZgbGKv98euoa30YW+JKy5HHsSuHMJ80EhwV7L/jTbOE1g4TRcR9kHZ2/UdyW
9zJHLWt+aJ2HY9ZSGnk6QJyADl5jNiabO5Wk0bxlblYknvsCAwEAAaOBvTCBujAJ
BgNVHRMEAjAAMB0GA1UdDgQWBBRaMN66ohkK0eI15yDdt18xZfPLdjBRBgNVHSME
SjBIgBS35vobjtn3h3Jmu4Oa5ZJPbsYc86EapBgwFjEUMBIGA1UEAwwLdGVhbTEw
NS1uZXSCFE2FCgVHd+6q9QnlOP6zxLaKJ8jJMBMGA1UdJQQMMAoGCCsGAQUFBwMB
MAsGA1UdDwQEAwIFoDAZBgNVHREEEjAQgg50ZWFtMTA1LXNlcnZlcjANBgkqhkiG
9w0BAQsFAAOCAQEALXUDS+Z5uiS3ixWtw6+28Hb2lqnjJcvURdcQ6oL37PoyT8FC
uW38cIdydy7eHvIzSWesm9F1F6WJK/2Tx44zr34YhjaLX94PH7pGW4UajinPsbKQ
peVVPOBr0E+OUhlVOj6/MKuPKVwxXLSlKqf+7au0lNuo41XDvCg5PB8CP7Ln8EiN
GnIEhG0QSj7qEttOjo9DnQ4ak+p9gwx7ZPk0l+u+0jQm9WsIMJaILfiyEppnJL3m
KsqhjOavQA9s4xVV1nWHxtAA5mJheFlCRoDCpP2f/yZPPK6sEowVA2xpfXAwoc4d
d+l6j86vdTku+geL62bimhNeD5kqHlHwCZKK+Q==
-----END CERTIFICATE-----
