Certificate:
    Data:
        Version: 3 (0x2)
        Serial Number:
            3c:ed:e8:31:be:be:3a:f3:3b:c7:d3:ad:02:f1:e1:3e
        Signature Algorithm: sha256WithRSAEncryption
        Issuer: CN=team478-net
        Validity
            Not Before: Nov  4 10:49:03 2023 GMT
            Not After : Oct 19 10:49:03 2026 GMT
        Subject: CN=team478-client
        Subject Public Key Info:
            Public Key Algorithm: rsaEncryption
                Public-Key: (2048 bit)
                Modulus:
                    00:e5:a0:84:7a:86:38:1b:54:10:74:9b:6f:61:77:
                    66:b0:68:f7:b9:a8:f2:2d:5c:1a:f4:9d:cc:3f:c3:
                    fa:e9:3b:33:a8:79:9e:49:cb:37:a6:a0:f0:1f:ca:
                    5f:06:39:3c:53:a1:0b:a8:8f:4a:37:ed:6d:c6:1d:
                    eb:83:50:82:2c:a7:b7:c8:f2:d4:bc:8a:a9:df:3b:
                    fd:fc:c8:3b:05:76:11:36:a4:10:97:68:7f:2c:f1:
                    90:c7:47:3a:e0:ef:4a:2b:42:c0:5c:bb:5a:36:6e:
                    f8:7c:0e:46:bb:54:b4:45:76:52:a3:63:38:ad:34:
                    e1:60:82:af:4c:7a:c0:ff:97:48:55:f2:b7:d0:40:
                    1b:57:36:48:a6:8b:3e:69:3e:77:66:af:e2:2b:bd:
                    86:3a:96:07:38:15:08:04:be:6c:5e:55:98:56:01:
                    0a:53:43:f2:e9:ab:ef:50:07:f7:ac:7c:12:e6:e7:
                    e9:15:1a:00:7d:e3:d4:59:cd:3c:e6:d2:ab:87:12:
                    d3:74:c4:e4:f8:ce:b8:eb:b0:8f:25:7f:7d:34:88:
                    9d:31:49:e9:d7:d4:c2:54:d5:35:32:f8:8a:58:f6:
                    35:38:c7:74:5e:b1:78:0c:0b:c7:03:60:6f:1f:86:
                    da:7f:a6:e9:bd:82:b2:d4:9a:29:57:a2:95:79:2d:
                    b7:29
                Exponent: 65537 (0x10001)
        X509v3 extensions:
            X509v3 Basic Constraints: 
                CA:FALSE
            X509v3 Subject Key Identifier: 
                7F:ED:29:1B:CF:A3:F8:91:DE:17:14:73:83:3B:94:BD:D0:9E:EC:0A
            X509v3 Authority Key Identifier: 
                keyid:B7:5E:37:93:B9:15:4E:38:62:7F:CC:05:68:EC:B8:88:7C:24:51:3F
                DirName:/CN=team478-net
                serial:32:5D:D7:E4:A0:71:46:E3:9C:34:6F:AE:98:35:C9:EF:05:5F:BF:1A
            X509v3 Extended Key Usage: 
                TLS Web Client Authentication
            X509v3 Key Usage: 
                Digital Signature
    Signature Algorithm: sha256WithRSAEncryption
    Signature Value:
        4d:4e:e4:71:e9:4e:51:31:07:16:ad:77:ee:59:97:6f:56:ba:
        52:65:bb:9a:6d:af:76:6f:d8:2e:53:05:dc:a3:0e:d1:ad:f3:
        a3:2f:f0:f1:bc:4e:ec:b3:8c:70:95:6e:2d:8d:85:c9:d4:8a:
        b1:ea:cf:18:ee:0f:84:c6:43:53:aa:b0:91:5c:fc:f0:0e:73:
        56:a4:17:2e:31:87:cf:81:ac:3a:77:49:79:ca:a6:7e:73:c2:
        74:a3:1a:db:73:88:b3:c4:cd:8b:70:80:a9:cf:22:2d:61:b8:
        1c:eb:67:2d:40:08:2c:3c:0e:c1:5b:c8:82:49:f4:e5:cf:bd:
        6c:8f:ce:46:67:82:e2:b8:8d:5c:e7:78:74:ef:82:dc:8a:25:
        28:cc:71:29:6d:88:b4:b8:eb:99:96:df:0d:59:b8:ff:8c:b9:
        5a:7f:05:63:f3:0c:19:68:f3:3a:62:74:af:18:1f:70:64:36:
        39:1e:5e:9e:1d:dd:46:39:8a:58:96:38:7c:ed:ea:f2:27:aa:
        89:b0:c3:f7:e8:32:52:03:a9:2b:d6:2b:cb:c8:76:a0:a6:3c:
        44:8f:8a:5a:3f:47:97:f5:66:8d:db:0d:d6:d1:a9:d6:39:67:
        8d:14:2a:b1:5d:f4:f7:cb:5f:fd:b0:4b:ec:17:8c:34:59:69:
        f0:85:1d:dc
-----BEGIN CERTIFICATE-----
MIIDXDCCAkSgAwIBAgIQPO3oMb6+OvM7x9OtAvHhPjANBgkqhkiG9w0BAQsFADAW
MRQwEgYDVQQDDAt0ZWFtNDc4LW5ldDAeFw0yMzExMDQxMDQ5MDNaFw0yNjEwMTkx
MDQ5MDNaMBkxFzAVBgNVBAMMDnRlYW00NzgtY2xpZW50MIIBIjANBgkqhkiG9w0B
AQEFAAOCAQ8AMIIBCgKCAQEA5aCEeoY4G1QQdJtvYXdmsGj3uajyLVwa9J3MP8P6
6TszqHmeScs3pqDwH8pfBjk8U6ELqI9KN+1txh3rg1CCLKe3yPLUvIqp3zv9/Mg7
BXYRNqQQl2h/LPGQx0c64O9KK0LAXLtaNm74fA5Gu1S0RXZSo2M4rTThYIKvTHrA
/5dIVfK30EAbVzZIpos+aT53Zq/iK72GOpYHOBUIBL5sXlWYVgEKU0Py6avvUAf3
rHwS5ufpFRoAfePUWc085tKrhxLTdMTk+M6467CPJX99NIidMUnp19TCVNU1MviK
WPY1OMd0XrF4DAvHA2BvH4baf6bpvYKy1JopV6KVeS23KQIDAQABo4GiMIGfMAkG
A1UdEwQCMAAwHQYDVR0OBBYEFH/tKRvPo/iR3hcUc4M7lL3QnuwKMFEGA1UdIwRK
MEiAFLdeN5O5FU44Yn/MBWjsuIh8JFE/oRqkGDAWMRQwEgYDVQQDDAt0ZWFtNDc4
LW5ldIIUMl3X5KBxRuOcNG+umDXJ7wVfvxowEwYDVR0lBAwwCgYIKwYBBQUHAwIw
CwYDVR0PBAQDAgeAMA0GCSqGSIb3DQEBCwUAA4IBAQBNTuRx6U5RMQcWrXfuWZdv
VrpSZbuaba92b9guUwXcow7RrfOjL/DxvE7ss4xwlW4tjYXJ1Iqx6s8Y7g+ExkNT
qrCRXPzwDnNWpBcuMYfPgaw6d0l5yqZ+c8J0oxrbc4izxM2LcICpzyItYbgc62ct
QAgsPA7BW8iCSfTlz71sj85GZ4LiuI1c53h074LciiUozHEpbYi0uOuZlt8NWbj/
jLlafwVj8wwZaPM6YnSvGB9wZDY5Hl6eHd1GOYpYljh87eryJ6qJsMP36DJSA6kr
1ivLyHagpjxEj4paP0eX9WaN2w3W0anWOWeNFCqxXfT3y1/9sEvsF4w0WWnwhR3c
-----END CERTIFICATE-----
