Certificate:
    Data:
        Version: 3 (0x2)
        Serial Number:
            5d:80:89:b6:35:a6:49:b5:58:d2:34:da:fc:d2:a0:de
        Signature Algorithm: sha256WithRSAEncryption
        Issuer: CN=team478-net
        Validity
            Not Before: Nov  3 20:47:59 2023 GMT
            Not After : Oct 18 20:47:59 2026 GMT
        Subject: CN=team478-server
        Subject Public Key Info:
            Public Key Algorithm: rsaEncryption
                Public-Key: (2048 bit)
                Modulus:
                    00:9c:3f:00:1c:5d:30:78:12:ef:c3:a2:f1:be:af:
                    09:8b:a2:b0:63:e5:fe:33:01:77:df:3f:d9:22:cf:
                    5e:e1:5e:6e:64:b2:13:7f:27:a0:3f:4b:b1:40:85:
                    dc:8f:5a:b1:c7:38:d2:4d:e0:9a:73:75:8b:f3:a4:
                    1f:ee:dc:16:4f:57:13:89:82:09:08:a0:e3:b1:4b:
                    de:37:7b:b7:2b:5d:7a:45:87:b5:f1:14:38:47:ab:
                    df:ea:c1:eb:4d:41:e6:2f:31:fd:73:b9:a1:f5:c1:
                    89:db:d5:73:07:ba:72:fc:61:f3:67:8a:66:92:92:
                    0e:fb:b9:06:d7:22:2a:6d:ae:bd:b2:85:1a:e3:17:
                    9c:ec:d4:06:1a:ea:6c:79:fa:53:9d:c8:06:69:fe:
                    f9:9a:ae:f8:37:6a:52:58:5f:01:09:90:78:30:9b:
                    af:53:44:54:c7:82:9c:0e:83:49:a7:c5:22:8f:60:
                    6e:24:53:98:a3:9d:04:22:f2:96:0e:d8:e0:2e:c1:
                    04:c8:bd:92:7e:2b:75:41:bc:8a:66:8f:3f:5e:04:
                    c4:9f:5b:d8:d1:39:ce:9a:8e:e0:4c:f3:9f:8e:27:
                    40:27:c2:5a:fa:cc:41:7a:d3:e1:2d:2f:93:ea:8d:
                    a1:49:17:9e:97:b2:a0:b7:79:03:7f:6b:d8:c2:fc:
                    01:f5
                Exponent: 65537 (0x10001)
        X509v3 extensions:
            X509v3 Basic Constraints: 
                CA:FALSE
            X509v3 Subject Key Identifier: 
                05:10:76:6D:D8:00:58:96:E9:A7:DD:BD:94:8D:C4:86:2C:F0:1C:A5
            X509v3 Authority Key Identifier: 
                keyid:86:D4:FC:F9:D8:98:53:F5:8D:97:E5:76:B2:AA:6B:2C:99:53:67:49
                DirName:/CN=team478-net
                serial:68:3C:C6:4D:08:C2:E6:CB:8C:E6:BB:4F:03:2A:55:D1:D5:56:4D:76
            X509v3 Extended Key Usage: 
                TLS Web Server Authentication
            X509v3 Key Usage: 
                Digital Signature, Key Encipherment
            X509v3 Subject Alternative Name: 
                DNS:team478-server
    Signature Algorithm: sha256WithRSAEncryption
    Signature Value:
        0d:b3:0c:01:fe:c8:dd:2b:d1:a4:d5:b0:cc:f8:79:8b:3b:89:
        64:0f:cd:1d:e8:24:c4:8e:1a:a7:ce:eb:d5:3e:09:96:30:46:
        c8:eb:6b:06:ec:87:a2:96:b1:1b:77:fc:81:67:7b:ec:0c:87:
        a3:c4:b1:a6:0d:c6:0f:9a:81:f8:86:13:1c:7e:10:fb:de:77:
        6f:ff:e6:1f:e3:c6:e8:96:77:f8:21:1c:96:ee:4d:9a:4d:49:
        92:f0:b3:d1:b7:5e:9f:01:32:0e:e6:6c:2c:dc:a2:b4:64:b1:
        57:40:ee:9a:ee:76:3f:f5:0a:30:ac:5f:83:84:ae:96:0c:31:
        e1:4d:1c:04:d0:26:3d:78:83:0f:57:d5:aa:d6:84:4e:e2:29:
        13:47:87:9a:ea:22:69:16:4b:78:ff:3f:8e:48:10:de:c8:a6:
        23:6f:e2:0d:36:9b:b0:00:7f:dc:0a:21:43:aa:e7:01:42:65:
        9a:0e:36:5a:10:bb:57:c3:46:4e:6a:3e:11:75:71:f5:94:07:
        9d:ad:63:55:1b:88:3c:72:43:6c:37:66:29:54:59:cf:8a:0d:
        20:6e:db:1d:54:9b:33:3a:3a:98:c3:44:9d:f8:bb:95:0a:45:
        6a:c0:da:a4:0d:a0:33:c4:bd:e8:79:97:5d:55:a2:fd:90:43:
        da:32:24:30
-----BEGIN CERTIFICATE-----
MIIDdzCCAl+gAwIBAgIQXYCJtjWmSbVY0jTa/NKg3jANBgkqhkiG9w0BAQsFADAW
MRQwEgYDVQQDDAt0ZWFtNDc4LW5ldDAeFw0yMzExMDMyMDQ3NTlaFw0yNjEwMTgy
MDQ3NTlaMBkxFzAVBgNVBAMMDnRlYW00Nzgtc2VydmVyMIIBIjANBgkqhkiG9w0B
AQEFAAOCAQ8AMIIBCgKCAQEAnD8AHF0weBLvw6Lxvq8Ji6KwY+X+MwF33z/ZIs9e
4V5uZLITfyegP0uxQIXcj1qxxzjSTeCac3WL86Qf7twWT1cTiYIJCKDjsUveN3u3
K116RYe18RQ4R6vf6sHrTUHmLzH9c7mh9cGJ29VzB7py/GHzZ4pmkpIO+7kG1yIq
ba69soUa4xec7NQGGupsefpTncgGaf75mq74N2pSWF8BCZB4MJuvU0RUx4KcDoNJ
p8Uij2BuJFOYo50EIvKWDtjgLsEEyL2Sfit1QbyKZo8/XgTEn1vY0TnOmo7gTPOf
jidAJ8Ja+sxBetPhLS+T6o2hSReel7Kgt3kDf2vYwvwB9QIDAQABo4G9MIG6MAkG
A1UdEwQCMAAwHQYDVR0OBBYEFAUQdm3YAFiW6afdvZSNxIYs8BylMFEGA1UdIwRK
MEiAFIbU/PnYmFP1jZfldrKqayyZU2dJoRqkGDAWMRQwEgYDVQQDDAt0ZWFtNDc4
LW5ldIIUaDzGTQjC5suM5rtPAypV0dVWTXYwEwYDVR0lBAwwCgYIKwYBBQUHAwEw
CwYDVR0PBAQDAgWgMBkGA1UdEQQSMBCCDnRlYW00Nzgtc2VydmVyMA0GCSqGSIb3
DQEBCwUAA4IBAQANswwB/sjdK9Gk1bDM+HmLO4lkD80d6CTEjhqnzuvVPgmWMEbI
62sG7IeilrEbd/yBZ3vsDIejxLGmDcYPmoH4hhMcfhD73ndv/+Yf48bolnf4IRyW
7k2aTUmS8LPRt16fATIO5mws3KK0ZLFXQO6a7nY/9QowrF+DhK6WDDHhTRwE0CY9
eIMPV9Wq1oRO4ikTR4ea6iJpFkt4/z+OSBDeyKYjb+INNpuwAH/cCiFDqucBQmWa
DjZaELtXw0ZOaj4RdXH1lAedrWNVG4g8ckNsN2YpVFnPig0gbtsdVJszOjqYw0Sd
+LuVCkVqwNqkDaAzxL3oeZddVaL9kEPaMiQw
-----END CERTIFICATE-----
