Certificate:
    Data:
        Version: 3 (0x2)
        Serial Number:
            ac:9f:e7:0c:1f:0e:d0:9a:09:35:f2:3d:c0:09:d3:78
        Signature Algorithm: sha256WithRSAEncryption
        Issuer: CN=team478-net
        Validity
            Not Before: Nov  4 10:49:03 2023 GMT
            Not After : Oct 19 10:49:03 2026 GMT
        Subject: CN=team478-server
        Subject Public Key Info:
            Public Key Algorithm: rsaEncryption
                Public-Key: (2048 bit)
                Modulus:
                    00:89:ee:49:13:cd:dc:14:58:84:50:a0:14:3e:ad:
                    2c:94:d1:31:3b:ca:47:1d:c2:77:49:69:cc:86:68:
                    44:5c:a0:5a:2e:75:39:55:78:d5:c3:70:eb:f6:e8:
                    22:d0:bc:3a:c0:74:22:82:dc:58:34:f1:42:b8:d3:
                    6c:99:b3:c2:8c:df:22:b8:dc:62:d8:1a:d8:ae:7e:
                    6f:c2:46:bb:d0:66:55:87:1e:e4:d5:f4:1f:a2:82:
                    f2:71:4a:0a:ff:b1:bf:dc:a0:ce:d6:25:67:72:ab:
                    6e:7a:3a:7a:72:d0:6c:b8:7b:df:f2:4e:58:72:8c:
                    f6:d6:1d:31:8b:2f:3e:8f:52:ec:de:72:57:2c:45:
                    95:08:c9:3e:27:f2:d5:67:48:66:4e:c7:27:d2:d4:
                    80:41:ea:3c:f0:e9:a9:bb:38:f7:72:1c:f8:e2:2b:
                    36:3a:95:8a:34:d8:65:24:08:cf:73:97:23:d2:87:
                    e7:88:da:e8:2d:60:ca:73:84:a4:51:e1:d2:ba:08:
                    4d:83:f4:f4:aa:be:0b:4a:71:9c:6b:92:35:24:f6:
                    8a:83:35:eb:41:0a:81:a9:55:22:22:19:44:32:5e:
                    ae:cf:ee:cf:a4:4e:aa:bd:d8:24:a0:82:5b:f9:ec:
                    33:ec:bf:33:11:4a:fd:2d:1c:41:e6:52:c7:3b:9c:
                    40:bd
                Exponent: 65537 (0x10001)
        X509v3 extensions:
            X509v3 Basic Constraints: 
                CA:FALSE
            X509v3 Subject Key Identifier: 
                B2:DC:22:67:63:FD:AA:5C:0B:7A:DF:F8:6D:7D:9A:8C:7B:12:37:68
            X509v3 Authority Key Identifier: 
                keyid:B7:5E:37:93:B9:15:4E:38:62:7F:CC:05:68:EC:B8:88:7C:24:51:3F
                DirName:/CN=team478-net
                serial:32:5D:D7:E4:A0:71:46:E3:9C:34:6F:AE:98:35:C9:EF:05:5F:BF:1A
            X509v3 Extended Key Usage: 
                TLS Web Server Authentication
            X509v3 Key Usage: 
                Digital Signature, Key Encipherment
            X509v3 Subject Alternative Name: 
                DNS:team478-server
    Signature Algorithm: sha256WithRSAEncryption
    Signature Value:
        31:4c:f8:72:d1:a6:0d:8c:21:ea:71:c1:6a:83:0f:b2:90:dc:
        c2:d7:c2:f7:09:25:6e:10:90:2b:d5:ad:1d:ff:53:63:ac:ce:
        1e:2f:a0:97:91:fa:cd:e0:ea:3e:13:a9:cc:5e:0b:60:f4:e3:
        b9:f9:2a:06:89:1e:d3:e7:97:07:12:a1:5c:78:55:f6:7f:8e:
        4e:39:5f:dc:d9:5d:2f:01:09:74:4b:8b:b7:53:63:57:8a:34:
        0b:4d:46:b1:70:5c:45:e7:fa:83:57:aa:bf:e6:ee:32:44:ec:
        2f:b9:a0:95:75:7d:09:8b:60:76:b3:9c:9d:5e:36:4d:43:74:
        92:52:db:b2:71:01:49:da:b4:a0:0f:09:b0:74:99:9e:44:79:
        2d:b0:ba:86:0e:f9:c1:33:07:43:4e:1b:37:2d:8e:9f:32:48:
        f1:9b:27:ac:55:06:9a:51:26:0a:59:45:9d:4c:7b:6b:11:d1:
        e3:a4:5a:18:c3:42:de:38:a9:5f:fe:a0:db:3f:e6:82:1c:f1:
        99:c4:12:ec:0f:a5:48:6a:16:13:08:3f:1a:d3:fd:50:37:6b:
        20:f4:02:f4:4f:71:60:77:f1:e3:c0:f6:c5:cf:4d:56:52:e1:
        01:e0:3b:af:80:5e:61:a0:00:e8:44:97:8a:e6:ef:1a:19:9b:
        e2:90:51:77
-----BEGIN CERTIFICATE-----
MIIDeDCCAmCgAwIBAgIRAKyf5wwfDtCaCTXyPcAJ03gwDQYJKoZIhvcNAQELBQAw
FjEUMBIGA1UEAwwLdGVhbTQ3OC1uZXQwHhcNMjMxMTA0MTA0OTAzWhcNMjYxMDE5
MTA0OTAzWjAZMRcwFQYDVQQDDA50ZWFtNDc4LXNlcnZlcjCCASIwDQYJKoZIhvcN
AQEBBQADggEPADCCAQoCggEBAInuSRPN3BRYhFCgFD6tLJTRMTvKRx3Cd0lpzIZo
RFygWi51OVV41cNw6/boItC8OsB0IoLcWDTxQrjTbJmzwozfIrjcYtga2K5+b8JG
u9BmVYce5NX0H6KC8nFKCv+xv9ygztYlZ3Krbno6enLQbLh73/JOWHKM9tYdMYsv
Po9S7N5yVyxFlQjJPify1WdIZk7HJ9LUgEHqPPDpqbs493Ic+OIrNjqVijTYZSQI
z3OXI9KH54ja6C1gynOEpFHh0roITYP09Kq+C0pxnGuSNST2ioM160EKgalVIiIZ
RDJers/uz6ROqr3YJKCCW/nsM+y/MxFK/S0cQeZSxzucQL0CAwEAAaOBvTCBujAJ
BgNVHRMEAjAAMB0GA1UdDgQWBBSy3CJnY/2qXAt63/htfZqMexI3aDBRBgNVHSME
SjBIgBS3XjeTuRVOOGJ/zAVo7LiIfCRRP6EapBgwFjEUMBIGA1UEAwwLdGVhbTQ3
OC1uZXSCFDJd1+SgcUbjnDRvrpg1ye8FX78aMBMGA1UdJQQMMAoGCCsGAQUFBwMB
MAsGA1UdDwQEAwIFoDAZBgNVHREEEjAQgg50ZWFtNDc4LXNlcnZlcjANBgkqhkiG
9w0BAQsFAAOCAQEAMUz4ctGmDYwh6nHBaoMPspDcwtfC9wklbhCQK9WtHf9TY6zO
Hi+gl5H6zeDqPhOpzF4LYPTjufkqBoke0+eXBxKhXHhV9n+OTjlf3NldLwEJdEuL
t1NjV4o0C01GsXBcRef6g1eqv+buMkTsL7mglXV9CYtgdrOcnV42TUN0klLbsnEB
Sdq0oA8JsHSZnkR5LbC6hg75wTMHQ04bNy2OnzJI8ZsnrFUGmlEmCllFnUx7axHR
46RaGMNC3jipX/6g2z/mghzxmcQS7A+lSGoWEwg/GtP9UDdrIPQC9E9xYHfx48D2
xc9NVlLhAeA7r4BeYaAA6ESXiubvGhmb4pBRdw==
-----END CERTIFICATE-----
