Certificate:
    Data:
        Version: 3 (0x2)
        Serial Number:
            df:06:e8:ed:7b:fa:c9:5c:61:9f:b5:51:ac:9f:00:ca
        Signature Algorithm: sha256WithRSAEncryption
        Issuer: CN=team478-net
        Validity
            Not Before: Nov  4 11:38:23 2023 GMT
            Not After : Oct 19 11:38:23 2026 GMT
        Subject: CN=team478-client
        Subject Public Key Info:
            Public Key Algorithm: rsaEncryption
                Public-Key: (2048 bit)
                Modulus:
                    00:cb:dd:87:e3:28:36:86:ab:d0:7c:84:7c:bc:37:
                    1e:1c:89:7f:06:ae:95:37:b0:4f:6d:40:6d:80:67:
                    55:42:5d:5c:93:75:0f:0e:74:29:e8:a1:ca:19:84:
                    d5:3b:bd:c0:b4:f9:f5:a5:42:6c:f7:eb:ef:1e:cd:
                    47:b4:66:07:1f:ff:34:3a:4c:50:5f:c6:60:a9:92:
                    a4:8d:df:19:31:88:92:0c:53:af:a7:2b:6c:26:da:
                    36:e9:cd:71:b7:b4:c8:fa:c7:a6:ef:af:bc:03:48:
                    a9:c2:23:38:c5:27:89:33:05:0d:16:9e:79:82:36:
                    98:34:88:32:14:b2:24:23:5c:b5:4c:3d:1e:52:5d:
                    51:7c:eb:c0:fd:fc:51:2b:c3:b6:6c:ea:1d:2c:16:
                    24:74:de:e1:31:4d:9d:ab:bb:88:e3:eb:e4:18:4c:
                    69:d7:92:ad:05:84:9d:7c:3c:48:04:60:b6:77:1d:
                    59:a7:e6:df:76:82:89:c2:f5:aa:fe:ce:3c:09:a6:
                    a5:07:e1:c4:e7:3b:2b:84:44:fc:e8:f1:b1:19:84:
                    49:56:ad:bf:20:f9:94:71:fb:bb:12:81:41:14:a7:
                    57:1e:b0:df:fb:6b:29:cd:a2:27:ff:11:fb:e2:00:
                    b2:7e:9f:c1:11:9f:ec:cf:70:8b:72:b4:49:6e:7c:
                    be:bb
                Exponent: 65537 (0x10001)
        X509v3 extensions:
            X509v3 Basic Constraints: 
                CA:FALSE
            X509v3 Subject Key Identifier: 
                B1:92:A9:05:65:BE:A0:F2:8B:EB:79:B5:32:22:24:F3:5C:56:5E:C9
            X509v3 Authority Key Identifier: 
                keyid:B0:94:F1:8E:E5:50:1A:68:77:08:DE:04:37:58:B7:53:27:5F:15:FE
                DirName:/CN=team478-net
                serial:07:A2:DE:83:09:1D:F7:12:7E:32:FF:54:94:39:7A:05:3E:DE:DC:24
            X509v3 Extended Key Usage: 
                TLS Web Client Authentication
            X509v3 Key Usage: 
                Digital Signature
    Signature Algorithm: sha256WithRSAEncryption
    Signature Value:
        01:53:26:e1:68:57:d8:df:bc:7a:0d:7e:94:1c:3c:ad:1e:28:
        17:19:7b:d4:e3:b1:8f:cb:02:d4:3b:cd:f3:0c:5a:4d:0e:41:
        bb:83:eb:93:b3:c4:64:7a:89:94:b9:c8:17:1e:4e:fb:7a:8a:
        f7:1d:47:bb:80:b0:ec:2a:df:77:43:41:f6:12:e6:a4:a2:64:
        0c:27:b8:2d:dd:6c:42:33:39:15:3a:ad:e0:ec:43:90:88:b4:
        fd:b1:1c:d0:ae:31:a8:88:74:8a:2c:cd:fb:73:4d:2f:88:5c:
        87:98:56:bb:7c:76:ea:33:06:79:c9:f8:83:c1:79:ab:b2:5d:
        25:fb:e8:e0:85:a3:cd:39:3d:28:f2:89:3d:47:79:d1:ec:80:
        6a:1c:1b:35:b3:49:fb:5d:47:f4:3f:d2:79:5b:66:4d:ef:fa:
        32:d5:ad:88:a5:8b:51:8d:13:07:b6:84:5e:c7:55:99:a8:30:
        fa:59:99:b0:fc:62:6d:ac:e3:85:02:e2:49:95:c4:e1:28:2c:
        fb:d5:6f:8e:f5:d9:a9:d6:6d:42:d8:fc:32:4c:83:5d:41:56:
        d7:61:80:e2:08:cf:13:c7:cd:c3:63:27:08:d1:75:0d:b4:ef:
        2f:b5:0d:2b:fd:ff:90:d0:04:f1:eb:91:d9:94:33:dd:8d:d3:
        af:f2:26:08
-----BEGIN CERTIFICATE-----
MIIDXTCCAkWgAwIBAgIRAN8G6O17+slcYZ+1UayfAMowDQYJKoZIhvcNAQELBQAw
FjEUMBIGA1UEAwwLdGVhbTQ3OC1uZXQwHhcNMjMxMTA0MTEzODIzWhcNMjYxMDE5
MTEzODIzWjAZMRcwFQYDVQQDDA50ZWFtNDc4LWNsaWVudDCCASIwDQYJKoZIhvcN
AQEBBQADggEPADCCAQoCggEBAMvdh+MoNoar0HyEfLw3HhyJfwaulTewT21AbYBn
VUJdXJN1Dw50KeihyhmE1Tu9wLT59aVCbPfr7x7NR7RmBx//NDpMUF/GYKmSpI3f
GTGIkgxTr6crbCbaNunNcbe0yPrHpu+vvANIqcIjOMUniTMFDRaeeYI2mDSIMhSy
JCNctUw9HlJdUXzrwP38USvDtmzqHSwWJHTe4TFNnau7iOPr5BhMadeSrQWEnXw8
SARgtncdWafm33aCicL1qv7OPAmmpQfhxOc7K4RE/OjxsRmESVatvyD5lHH7uxKB
QRSnVx6w3/trKc2iJ/8R++IAsn6fwRGf7M9wi3K0SW58vrsCAwEAAaOBojCBnzAJ
BgNVHRMEAjAAMB0GA1UdDgQWBBSxkqkFZb6g8ovrebUyIiTzXFZeyTBRBgNVHSME
SjBIgBSwlPGO5VAaaHcI3gQ3WLdTJ18V/qEapBgwFjEUMBIGA1UEAwwLdGVhbTQ3
OC1uZXSCFAei3oMJHfcSfjL/VJQ5egU+3twkMBMGA1UdJQQMMAoGCCsGAQUFBwMC
MAsGA1UdDwQEAwIHgDANBgkqhkiG9w0BAQsFAAOCAQEAAVMm4WhX2N+8eg1+lBw8
rR4oFxl71OOxj8sC1DvN8wxaTQ5Bu4Prk7PEZHqJlLnIFx5O+3qK9x1Hu4Cw7Crf
d0NB9hLmpKJkDCe4Ld1sQjM5FTqt4OxDkIi0/bEc0K4xqIh0iizN+3NNL4hch5hW
u3x26jMGecn4g8F5q7JdJfvo4IWjzTk9KPKJPUd50eyAahwbNbNJ+11H9D/SeVtm
Te/6MtWtiKWLUY0TB7aEXsdVmagw+lmZsPxibazjhQLiSZXE4Sgs+9VvjvXZqdZt
Qtj8MkyDXUFW12GA4gjPE8fNw2MnCNF1DbTvL7UNK/3/kNAE8euR2ZQz3Y3Tr/Im
CA==
-----END CERTIFICATE-----
