Certificate:
    Data:
        Version: 3 (0x2)
        Serial Number:
            e3:b0:26:4f:43:b3:be:cb:8b:1d:78:7b:cb:95:e1:f9
        Signature Algorithm: sha256WithRSAEncryption
        Issuer: CN=team478-net
        Validity
            Not Before: Nov  4 11:38:23 2023 GMT
            Not After : Oct 19 11:38:23 2026 GMT
        Subject: CN=team478-server
        Subject Public Key Info:
            Public Key Algorithm: rsaEncryption
                Public-Key: (2048 bit)
                Modulus:
                    00:de:eb:e7:8b:11:f6:82:f2:49:9c:e3:62:ef:cf:
                    7f:48:cf:f2:cb:d7:3a:b7:ca:b2:07:fd:9e:33:aa:
                    4c:08:ff:db:29:14:86:fd:0d:b1:77:db:ec:f5:e1:
                    4a:6f:56:31:ef:24:5b:09:9e:66:fb:53:69:30:46:
                    c5:81:4e:d3:d4:f7:15:4c:83:91:68:c6:fc:56:67:
                    a0:aa:68:cb:78:c2:99:d2:f0:3a:7d:e9:7c:fe:a4:
                    7b:10:a7:e8:58:2e:ea:d9:07:ca:91:38:3e:12:85:
                    02:00:f9:62:b1:c5:ca:a0:62:29:93:82:0c:ee:d1:
                    4b:ca:8a:3b:b1:e8:c8:d5:4e:ef:4f:7d:b5:ce:a9:
                    81:a6:e9:e5:25:a5:e6:b5:e6:9a:d1:3b:c2:bc:a4:
                    9b:5a:08:71:82:b0:d2:4f:40:ad:62:ad:c3:75:4f:
                    f3:3f:66:b6:c7:55:21:af:ec:bc:d1:7f:b9:cb:d7:
                    04:17:a0:0e:16:d5:f2:4b:2c:1c:0c:bd:11:f4:db:
                    6c:56:f0:6e:1a:50:16:c0:e4:8a:fb:4c:57:10:a7:
                    4a:00:78:a2:c3:fd:0a:6f:35:f1:31:c8:29:40:58:
                    e7:e4:27:2e:21:c9:18:a6:e3:e6:2d:18:2c:fc:00:
                    d7:a8:13:75:e9:10:03:b1:44:5d:d5:4a:69:dc:ab:
                    db:99
                Exponent: 65537 (0x10001)
        X509v3 extensions:
            X509v3 Basic Constraints: 
                CA:FALSE
            X509v3 Subject Key Identifier: 
                FC:BC:91:DE:97:D7:3A:F4:DE:4D:39:5E:6A:94:51:BE:11:61:E1:E5
            X509v3 Authority Key Identifier: 
                keyid:B0:94:F1:8E:E5:50:1A:68:77:08:DE:04:37:58:B7:53:27:5F:15:FE
                DirName:/CN=team478-net
                serial:07:A2:DE:83:09:1D:F7:12:7E:32:FF:54:94:39:7A:05:3E:DE:DC:24
            X509v3 Extended Key Usage: 
                TLS Web Server Authentication
            X509v3 Key Usage: 
                Digital Signature, Key Encipherment
            X509v3 Subject Alternative Name: 
                DNS:team478-server
    Signature Algorithm: sha256WithRSAEncryption
    Signature Value:
        bc:95:01:0a:6c:e9:ec:e9:aa:4d:73:10:72:8b:41:f0:e8:30:
        99:3f:ac:87:a2:59:41:8c:ae:12:47:01:3c:0f:f8:75:83:b5:
        01:05:5c:ec:f9:b6:b8:1e:ab:3f:96:0f:b1:f8:49:ba:05:6b:
        9b:64:19:73:45:d2:ad:da:7e:80:0e:3c:14:7e:63:69:12:59:
        43:ef:d4:7e:a7:df:54:b5:ea:e9:1b:b3:cf:54:b1:cc:b2:20:
        4e:f5:d7:33:9d:29:8b:1b:63:31:e8:d4:00:ac:16:39:c2:8d:
        b6:89:c8:fb:49:90:c3:ec:02:91:a7:5d:aa:89:0a:f6:67:27:
        50:6c:51:d4:1c:28:de:68:36:89:7f:54:bd:c5:5f:43:64:e5:
        ba:a0:b7:06:57:bb:d2:e0:f9:4f:d2:e2:82:d8:38:84:3c:15:
        4c:6b:25:4a:f6:74:82:3e:58:f2:cf:48:30:73:d1:e6:1f:73:
        79:b2:cb:85:53:6a:b6:be:cd:c0:33:b5:04:76:1d:ca:88:f3:
        a7:8e:99:ab:6a:5d:ea:ae:62:a1:72:07:a2:d4:40:ae:e4:15:
        00:b3:4b:d8:32:26:52:0b:c6:e6:12:e1:14:51:77:10:18:78:
        6c:d5:c5:35:09:bd:e4:5e:bb:41:91:a1:63:b8:dd:0d:80:91:
        e9:69:a5:19
-----BEGIN CERTIFICATE-----
MIIDeDCCAmCgAwIBAgIRAOOwJk9Ds77Lix14e8uV4fkwDQYJKoZIhvcNAQELBQAw
FjEUMBIGA1UEAwwLdGVhbTQ3OC1uZXQwHhcNMjMxMTA0MTEzODIzWhcNMjYxMDE5
MTEzODIzWjAZMRcwFQYDVQQDDA50ZWFtNDc4LXNlcnZlcjCCASIwDQYJKoZIhvcN
AQEBBQADggEPADCCAQoCggEBAN7r54sR9oLySZzjYu/Pf0jP8svXOrfKsgf9njOq
TAj/2ykUhv0NsXfb7PXhSm9WMe8kWwmeZvtTaTBGxYFO09T3FUyDkWjG/FZnoKpo
y3jCmdLwOn3pfP6kexCn6Fgu6tkHypE4PhKFAgD5YrHFyqBiKZOCDO7RS8qKO7Ho
yNVO7099tc6pgabp5SWl5rXmmtE7wrykm1oIcYKw0k9ArWKtw3VP8z9mtsdVIa/s
vNF/ucvXBBegDhbV8kssHAy9EfTbbFbwbhpQFsDkivtMVxCnSgB4osP9Cm818THI
KUBY5+QnLiHJGKbj5i0YLPwA16gTdekQA7FEXdVKadyr25kCAwEAAaOBvTCBujAJ
BgNVHRMEAjAAMB0GA1UdDgQWBBT8vJHel9c69N5NOV5qlFG+EWHh5TBRBgNVHSME
SjBIgBSwlPGO5VAaaHcI3gQ3WLdTJ18V/qEapBgwFjEUMBIGA1UEAwwLdGVhbTQ3
OC1uZXSCFAei3oMJHfcSfjL/VJQ5egU+3twkMBMGA1UdJQQMMAoGCCsGAQUFBwMB
MAsGA1UdDwQEAwIFoDAZBgNVHREEEjAQgg50ZWFtNDc4LXNlcnZlcjANBgkqhkiG
9w0BAQsFAAOCAQEAvJUBCmzp7OmqTXMQcotB8OgwmT+sh6JZQYyuEkcBPA/4dYO1
AQVc7Pm2uB6rP5YPsfhJugVrm2QZc0XSrdp+gA48FH5jaRJZQ+/UfqffVLXq6Ruz
z1SxzLIgTvXXM50pixtjMejUAKwWOcKNtonI+0mQw+wCkaddqokK9mcnUGxR1Bwo
3mg2iX9UvcVfQ2TluqC3Ble70uD5T9Ligtg4hDwVTGslSvZ0gj5Y8s9IMHPR5h9z
ebLLhVNqtr7NwDO1BHYdyojzp46Zq2pd6q5ioXIHotRAruQVALNL2DImUgvG5hLh
FFF3EBh4bNXFNQm95F67QZGhY7jdDYCR6WmlGQ==
-----END CERTIFICATE-----
