Certificate:
    Data:
        Version: 3 (0x2)
        Serial Number:
            bd:28:9e:28:f9:05:7d:e6:35:3d:50:be:31:8c:0f:74
        Signature Algorithm: sha256WithRSAEncryption
        Issuer: CN=team410-net
        Validity
            Not Before: Nov  3 20:46:41 2023 GMT
            Not After : Oct 18 20:46:41 2026 GMT
        Subject: CN=team410-client
        Subject Public Key Info:
            Public Key Algorithm: rsaEncryption
                Public-Key: (2048 bit)
                Modulus:
                    00:e3:bb:53:a5:33:b6:c8:3f:8d:d4:9e:f2:42:ec:
                    eb:7c:f1:42:72:f5:cb:2a:4b:f8:3e:2a:4f:cb:97:
                    31:2b:ce:57:24:50:ae:c4:f0:d5:20:cd:41:00:1b:
                    77:e2:a6:b2:86:27:e2:b7:ff:ae:52:cd:ee:94:01:
                    27:64:88:b1:55:ab:02:38:de:77:5e:6c:85:78:dc:
                    ab:a5:c1:8c:49:02:c5:34:82:70:41:ad:f0:1e:83:
                    53:b1:a1:57:f2:6d:c1:d5:3a:38:34:09:bc:dc:ef:
                    b2:98:c8:fa:b7:7a:90:a4:ac:2f:97:46:9d:c2:06:
                    61:3d:e3:23:1e:ef:25:d2:37:64:74:ee:58:f1:40:
                    1f:6a:31:18:27:1c:85:2a:bf:a8:1d:76:1f:3a:d1:
                    ef:b0:80:bc:1e:82:6a:c0:16:a1:2c:fc:60:54:d5:
                    c9:5f:77:8d:7e:68:a2:0f:a2:9e:cc:21:15:8e:e6:
                    45:e4:d1:37:26:d8:e8:88:67:16:1c:9b:4f:1c:21:
                    0d:f0:2c:cb:30:7d:36:d9:45:2e:c1:d8:20:fd:0e:
                    62:9e:d5:45:87:b3:2e:cb:82:b3:e1:c6:eb:6b:bd:
                    fa:7b:d9:66:52:fc:bb:33:5d:dc:e8:44:a8:05:3e:
                    15:68:79:5c:87:d0:13:0f:bd:e9:75:01:3c:6a:2c:
                    a3:e7
                Exponent: 65537 (0x10001)
        X509v3 extensions:
            X509v3 Basic Constraints: 
                CA:FALSE
            X509v3 Subject Key Identifier: 
                80:C5:49:2F:DB:49:11:CE:1D:A8:08:91:F0:32:49:31:8A:EF:19:F5
            X509v3 Authority Key Identifier: 
                keyid:86:8A:23:ED:5E:A9:DC:90:A5:4B:01:3F:03:19:6F:B2:21:4E:EF:95
                DirName:/CN=team410-net
                serial:0E:51:54:C3:11:98:E3:A2:0C:CB:12:B4:5E:00:32:E9:D2:02:20:C6
            X509v3 Extended Key Usage: 
                TLS Web Client Authentication
            X509v3 Key Usage: 
                Digital Signature
    Signature Algorithm: sha256WithRSAEncryption
    Signature Value:
        60:63:2f:37:10:23:dc:a7:ad:71:0c:1e:ce:40:59:9b:a5:89:
        e6:a9:ca:e2:df:9b:76:83:5e:d9:46:01:23:01:f1:ff:69:dd:
        a3:fb:76:76:40:67:96:b7:eb:65:0e:4b:18:47:cc:93:d3:19:
        d9:8e:9d:2f:e0:0d:62:f9:2f:27:eb:23:2d:66:d5:11:5c:26:
        fe:7f:aa:8a:51:09:41:9d:9a:4e:36:f9:2c:fc:61:01:62:34:
        9b:27:1c:17:a3:6d:e2:5f:84:6a:d1:81:2a:71:88:ad:c0:19:
        30:d2:e1:14:cb:dd:ec:9f:77:4f:71:08:d8:af:6d:70:8c:f5:
        02:bf:9f:96:97:58:70:f5:9b:67:96:5c:7c:d4:03:e6:f7:13:
        67:62:e3:00:a9:c2:e4:86:95:5a:0d:98:30:84:65:1d:a1:ae:
        ea:ec:9b:76:06:16:95:06:76:44:b6:45:20:67:9b:40:8f:27:
        45:42:5f:3e:4f:52:8e:52:11:aa:3b:80:c2:ef:3d:8e:68:c4:
        61:04:75:92:21:e4:35:59:8e:18:09:11:3c:32:de:3c:16:b4:
        d3:42:38:33:88:c6:10:d0:0d:c1:fd:cc:e1:68:46:4c:5e:82:
        a6:f3:51:7f:08:78:a2:8b:c0:0f:37:90:29:8b:2b:a2:db:f1:
        85:e8:92:1b
-----BEGIN CERTIFICATE-----
MIIDXTCCAkWgAwIBAgIRAL0onij5BX3mNT1QvjGMD3QwDQYJKoZIhvcNAQELBQAw
FjEUMBIGA1UEAwwLdGVhbTQxMC1uZXQwHhcNMjMxMTAzMjA0NjQxWhcNMjYxMDE4
MjA0NjQxWjAZMRcwFQYDVQQDDA50ZWFtNDEwLWNsaWVudDCCASIwDQYJKoZIhvcN
AQEBBQADggEPADCCAQoCggEBAOO7U6Uztsg/jdSe8kLs63zxQnL1yypL+D4qT8uX
MSvOVyRQrsTw1SDNQQAbd+KmsoYn4rf/rlLN7pQBJ2SIsVWrAjjed15shXjcq6XB
jEkCxTSCcEGt8B6DU7GhV/JtwdU6ODQJvNzvspjI+rd6kKSsL5dGncIGYT3jIx7v
JdI3ZHTuWPFAH2oxGCcchSq/qB12HzrR77CAvB6CasAWoSz8YFTVyV93jX5oog+i
nswhFY7mReTRNybY6IhnFhybTxwhDfAsyzB9NtlFLsHYIP0OYp7VRYezLsuCs+HG
62u9+nvZZlL8uzNd3OhEqAU+FWh5XIfQEw+96XUBPGoso+cCAwEAAaOBojCBnzAJ
BgNVHRMEAjAAMB0GA1UdDgQWBBSAxUkv20kRzh2oCJHwMkkxiu8Z9TBRBgNVHSME
SjBIgBSGiiPtXqnckKVLAT8DGW+yIU7vlaEapBgwFjEUMBIGA1UEAwwLdGVhbTQx
MC1uZXSCFA5RVMMRmOOiDMsStF4AMunSAiDGMBMGA1UdJQQMMAoGCCsGAQUFBwMC
MAsGA1UdDwQEAwIHgDANBgkqhkiG9w0BAQsFAAOCAQEAYGMvNxAj3KetcQwezkBZ
m6WJ5qnK4t+bdoNe2UYBIwHx/2ndo/t2dkBnlrfrZQ5LGEfMk9MZ2Y6dL+ANYvkv
J+sjLWbVEVwm/n+qilEJQZ2aTjb5LPxhAWI0myccF6Nt4l+EatGBKnGIrcAZMNLh
FMvd7J93T3EI2K9tcIz1Ar+flpdYcPWbZ5ZcfNQD5vcTZ2LjAKnC5IaVWg2YMIRl
HaGu6uybdgYWlQZ2RLZFIGebQI8nRUJfPk9SjlIRqjuAwu89jmjEYQR1kiHkNVmO
GAkRPDLePBa000I4M4jGENANwf3M4WhGTF6CpvNRfwh4oovADzeQKYsrotvxheiS
Gw==
-----END CERTIFICATE-----
