Certificate:
    Data:
        Version: 3 (0x2)
        Serial Number:
            58:7f:6b:88:41:e8:5a:9e:ba:d5:9e:23:db:3c:5f:8f
        Signature Algorithm: sha256WithRSAEncryption
        Issuer: CN=team348-net
        Validity
            Not Before: Nov  3 20:45:37 2023 GMT
            Not After : Oct 18 20:45:37 2026 GMT
        Subject: CN=team348-client
        Subject Public Key Info:
            Public Key Algorithm: rsaEncryption
                Public-Key: (2048 bit)
                Modulus:
                    00:e4:4c:5d:63:b7:f6:3f:79:7c:7d:f0:3d:04:bb:
                    84:ec:3f:37:9a:27:3a:ae:2e:67:c0:fe:26:54:35:
                    b4:04:27:7b:54:58:15:fd:cf:3a:68:8d:26:d4:96:
                    06:f9:4d:7e:91:95:bd:b7:f3:5b:cd:ac:a3:f1:72:
                    00:19:c0:4f:54:e8:c3:66:2b:37:aa:76:a1:ba:ba:
                    2a:7f:cb:97:40:03:43:a1:90:7d:92:c0:fe:cf:fb:
                    1f:cb:b6:2f:6d:63:cf:90:d2:35:65:9c:b9:02:bf:
                    10:c9:26:0e:73:6f:68:3d:02:3b:83:2a:9b:d2:4c:
                    bc:51:50:6c:94:dc:18:3a:99:eb:88:64:d6:fc:c0:
                    1a:cc:b6:74:85:20:10:da:f1:1f:d1:83:61:a8:18:
                    03:c7:e5:fa:19:a9:37:ed:f5:2d:f1:d7:fa:1e:20:
                    3c:d8:01:dd:0e:5f:db:0c:61:3c:1a:ad:df:dd:fd:
                    76:79:8d:16:bf:3e:2b:50:14:1b:89:d5:34:74:3a:
                    df:fc:12:c6:b8:c9:85:7c:b9:98:48:84:38:6a:ce:
                    48:7a:ea:cb:db:90:65:c7:86:94:7d:57:b6:53:83:
                    e2:60:62:43:8a:f4:1d:c9:69:6d:fc:e7:6b:d6:7c:
                    c4:27:a0:05:2e:7c:d1:a3:6e:73:b3:3d:07:42:22:
                    56:19
                Exponent: 65537 (0x10001)
        X509v3 extensions:
            X509v3 Basic Constraints: 
                CA:FALSE
            X509v3 Subject Key Identifier: 
                44:9E:CA:49:4E:44:22:F3:7E:1F:2B:85:08:08:DA:EA:47:7C:59:83
            X509v3 Authority Key Identifier: 
                keyid:91:BF:C8:17:DC:B7:2D:59:B5:C4:C5:C7:FE:92:8E:FD:19:16:F1:2C
                DirName:/CN=team348-net
                serial:52:54:94:F6:6A:07:CD:0A:D1:01:9D:E4:B4:85:61:65:29:47:86:58
            X509v3 Extended Key Usage: 
                TLS Web Client Authentication
            X509v3 Key Usage: 
                Digital Signature
    Signature Algorithm: sha256WithRSAEncryption
    Signature Value:
        47:69:fb:da:e8:49:86:cf:3f:a8:b7:f9:d9:dc:3e:85:69:a1:
        6b:5c:d6:1b:dd:c6:b9:a9:8d:18:25:0f:b8:b0:2a:f6:c6:c2:
        64:43:74:8d:92:ee:7d:cf:db:2d:5e:1c:c0:ce:9b:00:5c:b8:
        2d:af:05:a6:77:7a:60:bc:9a:67:f4:0c:8e:28:bc:f1:8a:30:
        a5:55:f7:c5:aa:6e:88:a0:0b:5a:15:e5:2b:7b:e9:c4:4b:0e:
        f4:02:b4:98:35:e6:7d:34:76:dc:59:a4:ee:f9:c7:ef:67:d6:
        24:73:20:28:0d:2d:4f:89:26:6a:8f:40:c6:46:90:ed:d2:20:
        1c:fe:2b:8b:b0:f1:f2:6c:97:5d:7e:fc:b8:6d:31:a8:1f:6c:
        8c:4b:41:28:61:1f:1b:cd:3a:5b:6e:19:05:ec:79:57:40:2b:
        f2:76:a7:53:7f:dc:9d:f7:e6:e4:63:23:c9:c1:ac:3c:84:df:
        c0:c2:10:fa:fb:54:fd:2f:96:b3:c1:46:f1:77:dd:19:49:f3:
        38:82:33:a3:17:27:5f:71:ce:94:34:53:1f:af:77:e3:9e:fd:
        76:8e:e6:3b:8a:9d:7b:6b:1a:0b:92:34:96:08:82:0b:6c:47:
        af:f0:0a:99:10:22:c0:1b:56:61:fc:3a:ab:5b:67:c2:8a:69:
        85:3e:73:09
-----BEGIN CERTIFICATE-----
MIIDXDCCAkSgAwIBAgIQWH9riEHoWp661Z4j2zxfjzANBgkqhkiG9w0BAQsFADAW
MRQwEgYDVQQDDAt0ZWFtMzQ4LW5ldDAeFw0yMzExMDMyMDQ1MzdaFw0yNjEwMTgy
MDQ1MzdaMBkxFzAVBgNVBAMMDnRlYW0zNDgtY2xpZW50MIIBIjANBgkqhkiG9w0B
AQEFAAOCAQ8AMIIBCgKCAQEA5ExdY7f2P3l8ffA9BLuE7D83mic6ri5nwP4mVDW0
BCd7VFgV/c86aI0m1JYG+U1+kZW9t/Nbzayj8XIAGcBPVOjDZis3qnahuroqf8uX
QANDoZB9ksD+z/sfy7YvbWPPkNI1ZZy5Ar8QySYOc29oPQI7gyqb0ky8UVBslNwY
OpnriGTW/MAazLZ0hSAQ2vEf0YNhqBgDx+X6Gak37fUt8df6HiA82AHdDl/bDGE8
Gq3f3f12eY0Wvz4rUBQbidU0dDrf/BLGuMmFfLmYSIQ4as5IeurL25Blx4aUfVe2
U4PiYGJDivQdyWlt/Odr1nzEJ6AFLnzRo25zsz0HQiJWGQIDAQABo4GiMIGfMAkG
A1UdEwQCMAAwHQYDVR0OBBYEFESeyklORCLzfh8rhQgI2upHfFmDMFEGA1UdIwRK
MEiAFJG/yBfcty1ZtcTFx/6Sjv0ZFvEsoRqkGDAWMRQwEgYDVQQDDAt0ZWFtMzQ4
LW5ldIIUUlSU9moHzQrRAZ3ktIVhZSlHhlgwEwYDVR0lBAwwCgYIKwYBBQUHAwIw
CwYDVR0PBAQDAgeAMA0GCSqGSIb3DQEBCwUAA4IBAQBHafva6EmGzz+ot/nZ3D6F
aaFrXNYb3ca5qY0YJQ+4sCr2xsJkQ3SNku59z9stXhzAzpsAXLgtrwWmd3pgvJpn
9AyOKLzxijClVffFqm6IoAtaFeUre+nESw70ArSYNeZ9NHbcWaTu+cfvZ9YkcyAo
DS1PiSZqj0DGRpDt0iAc/iuLsPHybJddfvy4bTGoH2yMS0EoYR8bzTpbbhkF7HlX
QCvydqdTf9yd9+bkYyPJwaw8hN/AwhD6+1T9L5azwUbxd90ZSfM4gjOjFydfcc6U
NFMfr3fjnv12juY7ip17axoLkjSWCIILbEev8AqZECLAG1Zh/DqrW2fCimmFPnMJ
-----END CERTIFICATE-----
