Certificate:
    Data:
        Version: 3 (0x2)
        Serial Number:
            60:f2:6a:3e:d5:d3:50:96:dd:b4:c2:79:c5:61:5b:b8
        Signature Algorithm: sha256WithRSAEncryption
        Issuer: CN=team348-net
        Validity
            Not Before: Nov  4 11:35:09 2023 GMT
            Not After : Oct 19 11:35:09 2026 GMT
        Subject: CN=team348-server
        Subject Public Key Info:
            Public Key Algorithm: rsaEncryption
                Public-Key: (2048 bit)
                Modulus:
                    00:98:f4:34:f7:5a:6d:ed:ab:58:34:26:0d:f6:a0:
                    94:c3:bc:f3:db:25:1a:a3:73:82:89:d3:d4:81:a5:
                    45:05:93:00:a7:74:30:ee:ca:58:6a:43:f7:ed:22:
                    a8:04:be:00:6b:c0:ce:b4:16:ca:b6:a8:7f:12:fe:
                    3d:c3:96:80:39:9d:83:3e:ba:da:a1:aa:64:d0:60:
                    ac:5f:87:fb:9d:e1:63:8c:e4:af:0f:9f:72:30:39:
                    35:6c:e6:4e:c8:3e:a8:20:0f:52:c7:8f:9a:7f:d6:
                    bd:5e:75:4c:e4:ae:a4:0f:ea:4c:0a:d7:fe:6a:85:
                    88:5c:63:0d:59:af:60:98:9b:9f:c3:78:1f:e0:a6:
                    42:0d:1e:cc:d6:58:60:dc:33:af:74:7d:3e:87:e9:
                    8e:5f:39:15:2f:45:f7:e0:42:df:c4:5e:f5:54:a9:
                    0f:8f:d3:e0:db:ad:4d:e8:18:d1:82:45:12:96:16:
                    36:d0:3b:12:87:d9:29:86:12:47:77:3d:f9:6b:aa:
                    df:2e:a3:0f:eb:97:60:40:07:d6:ae:ce:31:e4:7c:
                    28:8f:38:31:a2:78:96:e1:31:78:db:c5:6e:ea:0e:
                    9b:4a:88:e4:b2:6e:28:ab:e8:6b:3f:79:31:27:03:
                    f2:2a:60:c3:d6:36:eb:4c:57:3f:1d:75:4c:c0:35:
                    c8:17
                Exponent: 65537 (0x10001)
        X509v3 extensions:
            X509v3 Basic Constraints: 
                CA:FALSE
            X509v3 Subject Key Identifier: 
                71:FC:1D:5B:CB:4B:39:D7:A1:72:3F:94:3B:CC:46:A4:94:7A:7B:EC
            X509v3 Authority Key Identifier: 
                keyid:3C:0A:49:78:D1:E8:A9:46:05:8A:09:2A:59:FE:76:4A:D7:9B:32:7C
                DirName:/CN=team348-net
                serial:6E:74:8F:BF:3D:0A:F0:EC:17:7C:87:09:B3:F0:4C:6F:6D:25:7B:87
            X509v3 Extended Key Usage: 
                TLS Web Server Authentication
            X509v3 Key Usage: 
                Digital Signature, Key Encipherment
            X509v3 Subject Alternative Name: 
                DNS:team348-server
    Signature Algorithm: sha256WithRSAEncryption
    Signature Value:
        8b:42:be:8b:01:01:a8:62:fa:99:dd:c7:35:70:55:fa:af:91:
        ca:13:dc:94:84:5f:92:a9:fc:2c:1f:62:40:ab:79:67:5d:51:
        f0:b0:c3:9e:f5:be:2d:82:d8:06:67:b2:c9:a8:12:80:45:66:
        1a:78:7f:95:51:ed:0e:79:82:b9:e2:35:62:19:ef:58:47:29:
        3e:83:60:4d:81:54:7b:ed:8a:cd:ca:29:62:aa:66:99:bd:21:
        0b:bf:60:e4:0b:61:5f:01:11:b5:11:d9:da:f7:27:38:4d:e6:
        5e:5d:1b:92:3f:76:b2:ca:29:11:e6:eb:14:f2:62:42:60:0b:
        e1:71:a3:54:fb:23:20:08:0d:19:84:19:55:86:e2:41:08:22:
        73:e3:9e:46:4e:d8:3c:2e:f4:a9:34:0e:f3:ab:62:50:bc:2b:
        44:ec:ce:83:af:9e:6d:29:ae:0a:d6:f8:9b:1d:c3:68:7a:b2:
        00:5e:cf:39:d4:38:d6:6e:c9:7e:e9:a1:2e:96:8d:ca:68:0f:
        e0:04:eb:ab:45:b7:65:75:86:1d:e4:8c:d4:05:5e:b9:03:e0:
        0f:56:19:90:44:31:2d:e2:ea:f9:98:0d:20:24:6b:dd:a6:f2:
        ce:9d:a3:fe:a6:42:f1:9c:d2:d7:a3:3e:55:b0:93:b4:51:d4:
        86:b2:6a:d5
-----BEGIN CERTIFICATE-----
MIIDdzCCAl+gAwIBAgIQYPJqPtXTUJbdtMJ5xWFbuDANBgkqhkiG9w0BAQsFADAW
MRQwEgYDVQQDDAt0ZWFtMzQ4LW5ldDAeFw0yMzExMDQxMTM1MDlaFw0yNjEwMTkx
MTM1MDlaMBkxFzAVBgNVBAMMDnRlYW0zNDgtc2VydmVyMIIBIjANBgkqhkiG9w0B
AQEFAAOCAQ8AMIIBCgKCAQEAmPQ091pt7atYNCYN9qCUw7zz2yUao3OCidPUgaVF
BZMAp3Qw7spYakP37SKoBL4Aa8DOtBbKtqh/Ev49w5aAOZ2DPrraoapk0GCsX4f7
neFjjOSvD59yMDk1bOZOyD6oIA9Sx4+af9a9XnVM5K6kD+pMCtf+aoWIXGMNWa9g
mJufw3gf4KZCDR7M1lhg3DOvdH0+h+mOXzkVL0X34ELfxF71VKkPj9Pg261N6BjR
gkUSlhY20DsSh9kphhJHdz35a6rfLqMP65dgQAfWrs4x5HwojzgxoniW4TF428Vu
6g6bSojksm4oq+hrP3kxJwPyKmDD1jbrTFc/HXVMwDXIFwIDAQABo4G9MIG6MAkG
A1UdEwQCMAAwHQYDVR0OBBYEFHH8HVvLSznXoXI/lDvMRqSUenvsMFEGA1UdIwRK
MEiAFDwKSXjR6KlGBYoJKln+dkrXmzJ8oRqkGDAWMRQwEgYDVQQDDAt0ZWFtMzQ4
LW5ldIIUbnSPvz0K8OwXfIcJs/BMb20le4cwEwYDVR0lBAwwCgYIKwYBBQUHAwEw
CwYDVR0PBAQDAgWgMBkGA1UdEQQSMBCCDnRlYW0zNDgtc2VydmVyMA0GCSqGSIb3
DQEBCwUAA4IBAQCLQr6LAQGoYvqZ3cc1cFX6r5HKE9yUhF+SqfwsH2JAq3lnXVHw
sMOe9b4tgtgGZ7LJqBKARWYaeH+VUe0OeYK54jViGe9YRyk+g2BNgVR77YrNyili
qmaZvSELv2DkC2FfARG1Edna9yc4TeZeXRuSP3ayyikR5usU8mJCYAvhcaNU+yMg
CA0ZhBlVhuJBCCJz455GTtg8LvSpNA7zq2JQvCtE7M6Dr55tKa4K1vibHcNoerIA
Xs851DjWbsl+6aEulo3KaA/gBOurRbdldYYd5IzUBV65A+APVhmQRDEt4ur5mA0g
JGvdpvLOnaP+pkLxnNLXoz5VsJO0UdSGsmrV
-----END CERTIFICATE-----
