Certificate:
    Data:
        Version: 3 (0x2)
        Serial Number:
            7a:81:86:6c:e6:3d:73:db:fb:31:f6:08:38:ee:a4:d4
        Signature Algorithm: sha256WithRSAEncryption
        Issuer: CN=team348-net
        Validity
            Not Before: Nov  4 11:35:09 2023 GMT
            Not After : Oct 19 11:35:09 2026 GMT
        Subject: CN=team348-client
        Subject Public Key Info:
            Public Key Algorithm: rsaEncryption
                Public-Key: (2048 bit)
                Modulus:
                    00:c1:26:1e:d3:87:c3:c3:e9:a3:2d:e3:8a:ea:da:
                    f2:f6:20:4a:2f:0e:4e:b0:ab:49:f8:0e:62:85:e3:
                    75:22:02:f3:0e:fd:3b:be:da:fa:d1:5e:0d:75:33:
                    ef:5a:e3:1b:e2:81:4b:57:27:ff:43:52:df:4d:35:
                    cb:72:db:3c:38:e0:ad:04:0e:0d:fa:10:e7:55:0e:
                    5a:36:25:69:45:b5:1e:f2:95:bb:0e:67:63:00:9e:
                    62:ea:13:6c:48:35:54:39:06:d2:9b:b7:d1:61:ca:
                    84:c9:87:30:07:c1:b6:3b:03:9b:84:d7:53:72:19:
                    7d:d6:fb:6a:c7:73:46:ad:0a:95:35:10:c9:d4:73:
                    d5:45:90:95:99:ae:db:71:32:6b:70:1f:07:86:73:
                    0d:47:31:4d:e4:86:3f:2f:25:ce:56:76:c0:0f:74:
                    9a:38:e3:10:88:43:84:93:ee:ae:bd:de:24:06:47:
                    9f:26:09:57:a6:58:26:7e:e6:b3:81:6c:ad:0c:6b:
                    31:2a:8d:40:f5:46:35:3a:29:03:af:4a:9f:af:7c:
                    97:98:c3:b8:2c:eb:a8:ef:1a:c0:85:39:a2:43:fa:
                    b1:b0:ec:a6:cd:9c:7a:07:67:8d:c6:7e:63:66:f8:
                    a1:1f:94:ef:e9:a3:2c:40:cb:bc:03:e6:49:e8:32:
                    2f:37
                Exponent: 65537 (0x10001)
        X509v3 extensions:
            X509v3 Basic Constraints: 
                CA:FALSE
            X509v3 Subject Key Identifier: 
                8F:2F:40:3C:E2:24:D4:A5:5E:F7:4C:B9:1E:CC:C2:9D:06:F3:C0:61
            X509v3 Authority Key Identifier: 
                keyid:3C:0A:49:78:D1:E8:A9:46:05:8A:09:2A:59:FE:76:4A:D7:9B:32:7C
                DirName:/CN=team348-net
                serial:6E:74:8F:BF:3D:0A:F0:EC:17:7C:87:09:B3:F0:4C:6F:6D:25:7B:87
            X509v3 Extended Key Usage: 
                TLS Web Client Authentication
            X509v3 Key Usage: 
                Digital Signature
    Signature Algorithm: sha256WithRSAEncryption
    Signature Value:
        ab:8e:ea:1f:79:cc:b4:81:97:de:25:ab:72:f8:1e:e3:ce:52:
        bc:20:95:bf:02:f1:16:73:84:84:9c:71:33:40:46:2d:ca:bf:
        76:d3:53:1b:ad:73:93:2a:12:73:fb:57:35:ae:91:00:89:52:
        34:ec:51:e1:bd:27:c5:8f:6a:05:e2:a4:80:84:80:5e:55:13:
        84:95:e4:fd:2f:a8:12:17:db:f7:32:88:d6:ba:1c:c7:ef:70:
        bc:82:15:e3:db:63:dc:64:2d:d1:b9:4f:e4:60:81:16:3a:b0:
        d4:8c:7f:36:54:8f:41:70:5f:da:06:7e:36:43:38:b5:b3:14:
        9f:25:d5:d7:07:be:f1:ba:f2:b4:50:d1:00:f8:ae:45:e2:c3:
        b3:e8:63:9d:7b:75:02:43:5f:1e:90:2c:3b:8c:47:56:3d:45:
        ef:1f:37:cb:6d:9e:62:61:67:71:ae:8f:46:32:bc:58:05:a5:
        d7:45:6a:61:a9:17:85:38:0a:c5:9e:a4:3f:ba:1c:c6:f2:9e:
        f6:13:39:c2:3e:86:8b:1a:ee:d8:5c:03:66:58:8c:1b:6f:dc:
        f3:9a:46:39:1d:12:44:a9:4a:c9:42:96:31:06:e1:62:66:a4:
        0e:c5:eb:1e:e4:15:4e:b3:e0:4b:ec:8d:fe:1d:fa:20:21:9a:
        b1:6e:fa:9c
-----BEGIN CERTIFICATE-----
MIIDXDCCAkSgAwIBAgIQeoGGbOY9c9v7MfYIOO6k1DANBgkqhkiG9w0BAQsFADAW
MRQwEgYDVQQDDAt0ZWFtMzQ4LW5ldDAeFw0yMzExMDQxMTM1MDlaFw0yNjEwMTkx
MTM1MDlaMBkxFzAVBgNVBAMMDnRlYW0zNDgtY2xpZW50MIIBIjANBgkqhkiG9w0B
AQEFAAOCAQ8AMIIBCgKCAQEAwSYe04fDw+mjLeOK6try9iBKLw5OsKtJ+A5iheN1
IgLzDv07vtr60V4NdTPvWuMb4oFLVyf/Q1LfTTXLcts8OOCtBA4N+hDnVQ5aNiVp
RbUe8pW7DmdjAJ5i6hNsSDVUOQbSm7fRYcqEyYcwB8G2OwObhNdTchl91vtqx3NG
rQqVNRDJ1HPVRZCVma7bcTJrcB8HhnMNRzFN5IY/LyXOVnbAD3SaOOMQiEOEk+6u
vd4kBkefJglXplgmfuazgWytDGsxKo1A9UY1OikDr0qfr3yXmMO4LOuo7xrAhTmi
Q/qxsOymzZx6B2eNxn5jZvihH5Tv6aMsQMu8A+ZJ6DIvNwIDAQABo4GiMIGfMAkG
A1UdEwQCMAAwHQYDVR0OBBYEFI8vQDziJNSlXvdMuR7Mwp0G88BhMFEGA1UdIwRK
MEiAFDwKSXjR6KlGBYoJKln+dkrXmzJ8oRqkGDAWMRQwEgYDVQQDDAt0ZWFtMzQ4
LW5ldIIUbnSPvz0K8OwXfIcJs/BMb20le4cwEwYDVR0lBAwwCgYIKwYBBQUHAwIw
CwYDVR0PBAQDAgeAMA0GCSqGSIb3DQEBCwUAA4IBAQCrjuofecy0gZfeJaty+B7j
zlK8IJW/AvEWc4SEnHEzQEYtyr9201MbrXOTKhJz+1c1rpEAiVI07FHhvSfFj2oF
4qSAhIBeVROEleT9L6gSF9v3MojWuhzH73C8ghXj22PcZC3RuU/kYIEWOrDUjH82
VI9BcF/aBn42Qzi1sxSfJdXXB77xuvK0UNEA+K5F4sOz6GOde3UCQ18ekCw7jEdW
PUXvHzfLbZ5iYWdxro9GMrxYBaXXRWphqReFOArFnqQ/uhzG8p72EznCPoaLGu7Y
XANmWIwbb9zzmkY5HRJEqUrJQpYxBuFiZqQOxese5BVOs+BL7I3+HfogIZqxbvqc
-----END CERTIFICATE-----
