Certificate:
    Data:
        Version: 3 (0x2)
        Serial Number:
            88:1c:4b:2c:4d:47:54:7d:d0:a7:73:f5:4d:aa:73:cd
        Signature Algorithm: sha256WithRSAEncryption
        Issuer: CN=team348-net
        Validity
            Not Before: Nov  4 10:46:58 2023 GMT
            Not After : Oct 19 10:46:58 2026 GMT
        Subject: CN=team348-server
        Subject Public Key Info:
            Public Key Algorithm: rsaEncryption
                Public-Key: (2048 bit)
                Modulus:
                    00:e5:f4:9e:e7:10:9b:c5:82:18:10:78:75:c0:22:
                    ee:9a:44:6a:ab:43:a4:cf:b1:16:d8:af:e4:0d:40:
                    e3:d1:0c:1e:fd:54:bd:c2:35:99:00:56:c4:9d:45:
                    68:06:81:fc:2b:42:53:b3:55:8d:ad:6c:1b:55:85:
                    e4:02:63:11:ac:22:ec:6e:8f:6e:66:b3:e7:72:99:
                    3c:3b:a4:39:ef:82:17:54:06:8d:9a:dd:f9:2b:21:
                    e2:dd:44:15:5a:77:d9:52:97:87:89:29:56:8c:57:
                    84:f7:b2:a4:34:fc:5f:5b:b8:52:47:2e:25:3f:77:
                    44:f1:9e:a7:3a:87:30:04:44:43:58:56:7c:3e:c2:
                    1b:3c:40:e6:6b:b5:f6:f8:e5:b3:d2:0e:5c:05:e4:
                    3e:b7:a3:c6:98:4d:d5:fe:0b:af:b2:6c:98:af:67:
                    e2:fd:5d:f6:c1:f2:62:d5:59:b7:ff:4e:9c:8e:52:
                    a5:4a:8b:6e:2f:fe:ab:5a:56:df:de:c1:18:b1:da:
                    a0:b3:6c:74:be:2a:68:72:00:13:07:1e:d9:ce:26:
                    89:fc:4b:86:d0:c1:61:f8:a7:9c:68:71:f9:52:64:
                    33:c1:11:f3:26:f8:c0:53:e9:e7:5c:cc:e1:ee:85:
                    1c:17:32:35:a3:f9:10:26:1f:28:07:d6:37:36:6f:
                    a8:6b
                Exponent: 65537 (0x10001)
        X509v3 extensions:
            X509v3 Basic Constraints: 
                CA:FALSE
            X509v3 Subject Key Identifier: 
                0E:5E:D7:03:AD:1E:44:63:04:A5:D2:44:63:A1:29:20:32:AC:33:7B
            X509v3 Authority Key Identifier: 
                keyid:1C:72:FF:65:7C:10:5A:F0:61:39:87:B5:B6:09:3A:26:D9:EB:16:FA
                DirName:/CN=team348-net
                serial:63:2A:40:11:FC:83:40:A8:21:59:90:FE:34:5D:E0:52:B7:2E:BC:83
            X509v3 Extended Key Usage: 
                TLS Web Server Authentication
            X509v3 Key Usage: 
                Digital Signature, Key Encipherment
            X509v3 Subject Alternative Name: 
                DNS:team348-server
    Signature Algorithm: sha256WithRSAEncryption
    Signature Value:
        7c:1a:e4:69:0e:34:b4:1f:a0:73:1e:64:69:eb:fd:26:77:7e:
        19:f3:27:7d:a3:ec:54:b4:3c:b6:81:c2:75:5a:f8:d5:66:cc:
        34:78:c3:31:5d:62:8b:3c:97:96:24:27:2d:dc:c6:dc:ab:d9:
        fa:70:07:02:b2:0c:70:67:70:db:e8:42:b7:e6:af:fe:95:f1:
        7b:ac:6d:6e:7e:c4:61:89:89:b8:b7:5d:35:5a:2f:aa:4c:4a:
        bd:e5:65:ae:49:87:9a:98:18:51:a9:f1:e4:d8:99:dc:db:44:
        bc:d6:34:e1:a1:3d:c2:6b:fa:a1:9c:69:5f:d8:d6:c9:6f:e7:
        0d:33:da:a1:e0:0b:c5:9f:eb:ae:65:13:d1:47:a9:a3:5c:e5:
        f8:59:d9:82:f0:a0:02:0b:2d:58:ac:4c:14:00:44:63:d1:94:
        57:c9:5e:6b:a4:c5:a6:64:db:d3:91:fc:5b:2f:b3:47:be:3d:
        62:fc:d7:91:f2:7f:0d:ce:64:83:5f:74:ab:e7:b7:4e:3d:9f:
        24:91:55:10:27:23:e5:99:30:18:97:66:bc:9d:49:7d:5b:44:
        8b:2b:0a:1d:9b:cf:8c:2f:d0:79:8f:8b:d0:34:7a:68:03:3f:
        8e:35:44:c2:55:b5:f5:17:98:09:0f:80:6d:4d:3a:c5:db:1f:
        75:a7:d4:7c
-----BEGIN CERTIFICATE-----
MIIDeDCCAmCgAwIBAgIRAIgcSyxNR1R90Kdz9U2qc80wDQYJKoZIhvcNAQELBQAw
FjEUMBIGA1UEAwwLdGVhbTM0OC1uZXQwHhcNMjMxMTA0MTA0NjU4WhcNMjYxMDE5
MTA0NjU4WjAZMRcwFQYDVQQDDA50ZWFtMzQ4LXNlcnZlcjCCASIwDQYJKoZIhvcN
AQEBBQADggEPADCCAQoCggEBAOX0nucQm8WCGBB4dcAi7ppEaqtDpM+xFtiv5A1A
49EMHv1UvcI1mQBWxJ1FaAaB/CtCU7NVja1sG1WF5AJjEawi7G6Pbmaz53KZPDuk
Oe+CF1QGjZrd+Ssh4t1EFVp32VKXh4kpVoxXhPeypDT8X1u4UkcuJT93RPGepzqH
MAREQ1hWfD7CGzxA5mu19vjls9IOXAXkPrejxphN1f4Lr7JsmK9n4v1d9sHyYtVZ
t/9OnI5SpUqLbi/+q1pW397BGLHaoLNsdL4qaHIAEwce2c4mifxLhtDBYfinnGhx
+VJkM8ER8yb4wFPp51zM4e6FHBcyNaP5ECYfKAfWNzZvqGsCAwEAAaOBvTCBujAJ
BgNVHRMEAjAAMB0GA1UdDgQWBBQOXtcDrR5EYwSl0kRjoSkgMqwzezBRBgNVHSME
SjBIgBQccv9lfBBa8GE5h7W2CTom2esW+qEapBgwFjEUMBIGA1UEAwwLdGVhbTM0
OC1uZXSCFGMqQBH8g0CoIVmQ/jRd4FK3LryDMBMGA1UdJQQMMAoGCCsGAQUFBwMB
MAsGA1UdDwQEAwIFoDAZBgNVHREEEjAQgg50ZWFtMzQ4LXNlcnZlcjANBgkqhkiG
9w0BAQsFAAOCAQEAfBrkaQ40tB+gcx5kaev9Jnd+GfMnfaPsVLQ8toHCdVr41WbM
NHjDMV1iizyXliQnLdzG3KvZ+nAHArIMcGdw2+hCt+av/pXxe6xtbn7EYYmJuLdd
NVovqkxKveVlrkmHmpgYUanx5NiZ3NtEvNY04aE9wmv6oZxpX9jWyW/nDTPaoeAL
xZ/rrmUT0Uepo1zl+FnZgvCgAgstWKxMFABEY9GUV8lea6TFpmTb05H8Wy+zR749
YvzXkfJ/Dc5kg190q+e3Tj2fJJFVECcj5ZkwGJdmvJ1JfVtEiysKHZvPjC/QeY+L
0DR6aAM/jjVEwlW19ReYCQ+AbU06xdsfdafUfA==
-----END CERTIFICATE-----
