Certificate:
    Data:
        Version: 3 (0x2)
        Serial Number:
            45:62:10:1f:2a:8b:0a:d8:db:83:24:1e:f9:dc:29:9f
        Signature Algorithm: sha256WithRSAEncryption
        Issuer: CN=team499-net
        Validity
            Not Before: Nov  3 20:48:25 2023 GMT
            Not After : Oct 18 20:48:25 2026 GMT
        Subject: CN=team499-client
        Subject Public Key Info:
            Public Key Algorithm: rsaEncryption
                Public-Key: (2048 bit)
                Modulus:
                    00:b9:e1:5e:9b:67:70:db:5b:3d:fa:04:ee:99:07:
                    e0:dd:20:1c:9e:92:ef:42:88:73:9f:ca:27:e9:82:
                    ba:f3:1e:a0:18:05:47:fc:f6:91:8e:09:e0:46:05:
                    95:e0:3d:cf:f2:a6:d9:b7:a1:ca:9b:66:41:65:02:
                    41:06:01:29:a1:a1:d5:50:ba:38:29:0a:4f:6b:0c:
                    59:28:55:3b:ee:1f:3b:ed:20:d2:3e:d7:0f:c8:88:
                    ef:44:c3:2e:f8:43:18:15:3e:cf:22:04:09:39:af:
                    2b:ba:71:55:1b:46:b1:d1:a8:51:ba:a5:54:0d:33:
                    2d:07:20:e0:61:0d:1e:3a:09:6e:1b:45:0c:15:f1:
                    19:f1:93:d9:c4:be:68:a8:e2:03:79:da:8c:02:d5:
                    21:24:4a:e1:c4:db:bc:f1:2d:e3:e3:2a:63:f2:75:
                    b1:91:e6:e8:f4:f5:20:9e:eb:61:a6:5a:52:10:0f:
                    05:91:d0:b3:d5:7d:cb:2c:ac:73:cc:ce:20:e3:a6:
                    54:11:81:d4:90:82:d0:fb:ff:33:c9:0d:2f:fd:b7:
                    80:b0:38:8d:60:77:cf:95:69:80:e2:32:02:72:fb:
                    da:8f:1b:6a:a6:65:1b:bb:1f:69:50:b7:64:a4:0d:
                    86:b5:75:19:a7:c3:2b:79:e2:bb:c4:83:85:57:1e:
                    d8:2d
                Exponent: 65537 (0x10001)
        X509v3 extensions:
            X509v3 Basic Constraints: 
                CA:FALSE
            X509v3 Subject Key Identifier: 
                61:84:D9:06:D8:7A:60:7A:54:7A:FD:EA:7E:38:B2:05:6C:DD:3F:72
            X509v3 Authority Key Identifier: 
                keyid:2B:22:4D:27:84:2C:F7:5F:BB:D6:CF:D4:77:A0:8C:4A:FF:98:D3:58
                DirName:/CN=team499-net
                serial:71:43:44:A9:96:01:BA:A8:F0:71:89:78:C6:CF:D9:65:08:9E:30:39
            X509v3 Extended Key Usage: 
                TLS Web Client Authentication
            X509v3 Key Usage: 
                Digital Signature
    Signature Algorithm: sha256WithRSAEncryption
    Signature Value:
        64:20:34:bc:e7:7c:d2:7d:5c:e3:b9:6f:3b:b5:fc:0a:12:53:
        3e:e1:96:c9:76:ad:6b:42:25:37:35:bc:75:27:25:c0:08:11:
        16:b9:1a:32:60:6b:10:4b:6c:1b:18:5f:f9:fd:1a:69:cf:ab:
        0b:d9:13:e0:cf:ac:a1:3c:e9:2a:de:10:89:fd:5f:ee:5d:ea:
        2c:bc:69:74:7e:0b:ca:53:dc:35:b6:65:0b:7f:6b:80:5b:4d:
        f1:0f:a8:f7:eb:c5:0d:ce:85:93:ed:fc:02:c6:50:a4:8a:3f:
        64:0e:bd:96:58:df:8d:c2:40:dd:6d:38:f3:27:bb:cb:b6:a8:
        57:32:0a:8a:32:20:69:58:5e:db:c7:93:77:db:9c:37:eb:70:
        0b:fd:8f:9d:06:29:50:c9:f1:35:ec:29:8c:ff:8c:54:bc:8b:
        e2:3b:f6:b4:56:1d:8c:6d:36:09:24:25:3b:dc:bf:c7:20:ba:
        98:40:db:c3:e6:21:ad:d9:f9:02:cb:20:c6:4f:15:98:a2:0f:
        ce:65:f5:4d:cd:02:4b:b1:0e:bd:04:a6:9c:36:91:28:41:9d:
        fd:0b:74:dc:15:c7:f2:f2:21:76:19:31:7c:d7:9c:cd:4d:54:
        59:a4:47:48:22:c2:df:f9:34:2e:38:37:e2:97:4a:5e:33:0b:
        28:d3:57:64
-----BEGIN CERTIFICATE-----
MIIDXDCCAkSgAwIBAgIQRWIQHyqLCtjbgyQe+dwpnzANBgkqhkiG9w0BAQsFADAW
MRQwEgYDVQQDDAt0ZWFtNDk5LW5ldDAeFw0yMzExMDMyMDQ4MjVaFw0yNjEwMTgy
MDQ4MjVaMBkxFzAVBgNVBAMMDnRlYW00OTktY2xpZW50MIIBIjANBgkqhkiG9w0B
AQEFAAOCAQ8AMIIBCgKCAQEAueFem2dw21s9+gTumQfg3SAcnpLvQohzn8on6YK6
8x6gGAVH/PaRjgngRgWV4D3P8qbZt6HKm2ZBZQJBBgEpoaHVULo4KQpPawxZKFU7
7h877SDSPtcPyIjvRMMu+EMYFT7PIgQJOa8runFVG0ax0ahRuqVUDTMtByDgYQ0e
OgluG0UMFfEZ8ZPZxL5oqOIDedqMAtUhJErhxNu88S3j4ypj8nWxkebo9PUgnuth
plpSEA8FkdCz1X3LLKxzzM4g46ZUEYHUkILQ+/8zyQ0v/beAsDiNYHfPlWmA4jIC
cvvajxtqpmUbux9pULdkpA2GtXUZp8MreeK7xIOFVx7YLQIDAQABo4GiMIGfMAkG
A1UdEwQCMAAwHQYDVR0OBBYEFGGE2QbYemB6VHr96n44sgVs3T9yMFEGA1UdIwRK
MEiAFCsiTSeELPdfu9bP1HegjEr/mNNYoRqkGDAWMRQwEgYDVQQDDAt0ZWFtNDk5
LW5ldIIUcUNEqZYBuqjwcYl4xs/ZZQieMDkwEwYDVR0lBAwwCgYIKwYBBQUHAwIw
CwYDVR0PBAQDAgeAMA0GCSqGSIb3DQEBCwUAA4IBAQBkIDS853zSfVzjuW87tfwK
ElM+4ZbJdq1rQiU3Nbx1JyXACBEWuRoyYGsQS2wbGF/5/Rppz6sL2RPgz6yhPOkq
3hCJ/V/uXeosvGl0fgvKU9w1tmULf2uAW03xD6j368UNzoWT7fwCxlCkij9kDr2W
WN+NwkDdbTjzJ7vLtqhXMgqKMiBpWF7bx5N325w363AL/Y+dBilQyfE17CmM/4xU
vIviO/a0Vh2MbTYJJCU73L/HILqYQNvD5iGt2fkCyyDGTxWYog/OZfVNzQJLsQ69
BKacNpEoQZ39C3TcFcfy8iF2GTF815zNTVRZpEdIIsLf+TQuODfil0peMwso01dk
-----END CERTIFICATE-----
