Certificate:
    Data:
        Version: 3 (0x2)
        Serial Number:
            86:f0:ce:d7:26:60:39:58:f7:7f:aa:34:f3:92:0f:47
        Signature Algorithm: sha256WithRSAEncryption
        Issuer: CN=team396-net
        Validity
            Not Before: Nov  3 20:46:23 2023 GMT
            Not After : Oct 18 20:46:23 2026 GMT
        Subject: CN=team396-client
        Subject Public Key Info:
            Public Key Algorithm: rsaEncryption
                Public-Key: (2048 bit)
                Modulus:
                    00:a8:6c:9e:f7:6d:c7:91:6b:75:20:56:13:54:ed:
                    60:22:d8:b0:88:29:1c:0b:03:93:4f:ec:96:b3:1d:
                    4a:3d:99:09:42:67:95:6c:0b:52:6b:3e:01:3c:8e:
                    51:6f:f8:2f:7f:68:6a:6a:8c:73:b3:cd:dc:73:81:
                    b2:0d:41:27:74:e4:73:b4:a6:46:e3:6b:62:eb:35:
                    7f:82:94:2e:71:9b:f3:72:bc:1c:54:88:a0:26:11:
                    3d:02:2c:9c:cb:73:f5:29:7e:fe:ac:39:1a:ee:96:
                    61:a8:36:c2:01:06:e3:28:37:a7:19:d3:6e:3d:5e:
                    dd:4b:76:fe:4e:eb:4d:94:f0:af:80:0e:8e:d1:ff:
                    e5:6d:a6:ae:8c:fd:59:99:a0:2b:e7:2a:a1:00:ca:
                    d7:5d:87:2d:f0:06:da:64:30:89:fd:32:67:68:b6:
                    a0:e4:db:30:21:2b:89:9a:b0:6f:fd:fe:2b:b0:56:
                    e1:70:0e:5f:80:04:47:94:81:92:1c:9c:fc:60:47:
                    d4:bb:f0:46:60:d2:65:d0:b6:ca:64:7b:60:01:a1:
                    63:f2:29:53:6a:c3:40:74:e3:84:9d:99:2f:81:ce:
                    bd:6a:6e:ab:e4:df:60:4a:9a:d4:8e:29:c9:2e:9c:
                    6c:41:5b:24:4f:ef:51:3b:ea:ae:c8:0c:96:a0:ce:
                    33:ed
                Exponent: 65537 (0x10001)
        X509v3 extensions:
            X509v3 Basic Constraints: 
                CA:FALSE
            X509v3 Subject Key Identifier: 
                78:5A:62:75:5D:C4:9B:93:1A:FD:67:B1:4A:1A:EE:27:82:5B:04:F6
            X509v3 Authority Key Identifier: 
                keyid:9F:C8:98:2F:C4:E6:E0:C3:19:E3:C1:7A:0F:2D:46:06:CA:B9:B4:B5
                DirName:/CN=team396-net
                serial:6C:C5:78:7E:F7:3D:10:2E:63:F9:4A:C0:08:12:1A:BC:EE:FE:F4:D6
            X509v3 Extended Key Usage: 
                TLS Web Client Authentication
            X509v3 Key Usage: 
                Digital Signature
    Signature Algorithm: sha256WithRSAEncryption
    Signature Value:
        60:c0:f4:bd:ea:83:ec:f6:14:bf:db:36:c0:a1:86:95:a9:24:
        bf:6c:12:f9:91:bc:6f:32:b9:ab:ac:28:36:71:8a:4a:de:58:
        cf:77:4e:4a:f6:e8:2e:af:c3:78:0d:ea:ac:85:66:67:f1:88:
        f8:9b:6e:5b:13:21:05:97:53:29:43:25:e2:aa:05:98:4d:73:
        47:1d:39:da:67:0b:ad:d5:6a:7e:c9:28:91:17:c8:6a:b4:19:
        26:db:72:e6:06:bd:45:db:83:de:4d:86:b0:0a:cd:6d:42:35:
        8f:6b:78:f8:c3:01:34:a7:52:7d:e4:24:d2:f4:5b:ba:82:28:
        86:f9:80:c2:84:fd:50:72:06:36:9d:e7:9f:75:03:18:a1:f8:
        44:43:ad:f2:f7:03:1a:0c:68:85:e8:8c:05:e7:29:79:4e:cf:
        32:03:66:43:20:f9:6a:af:5d:2a:99:74:2b:71:02:8c:47:a8:
        cb:aa:a8:d3:f6:08:19:90:9b:91:c2:1e:36:d1:e3:62:65:ef:
        bd:56:c2:cf:28:68:91:dd:cd:b5:00:7e:ce:a6:03:be:56:03:
        7b:14:f2:f2:a4:01:34:e6:9b:0d:e1:2b:ff:bc:6a:f2:65:78:
        bc:2e:da:72:b9:61:3a:08:8b:20:ec:f1:45:48:11:95:93:53:
        72:a4:d4:d6
-----BEGIN CERTIFICATE-----
MIIDXTCCAkWgAwIBAgIRAIbwztcmYDlY93+qNPOSD0cwDQYJKoZIhvcNAQELBQAw
FjEUMBIGA1UEAwwLdGVhbTM5Ni1uZXQwHhcNMjMxMTAzMjA0NjIzWhcNMjYxMDE4
MjA0NjIzWjAZMRcwFQYDVQQDDA50ZWFtMzk2LWNsaWVudDCCASIwDQYJKoZIhvcN
AQEBBQADggEPADCCAQoCggEBAKhsnvdtx5FrdSBWE1TtYCLYsIgpHAsDk0/slrMd
Sj2ZCUJnlWwLUms+ATyOUW/4L39oamqMc7PN3HOBsg1BJ3Tkc7SmRuNrYus1f4KU
LnGb83K8HFSIoCYRPQIsnMtz9Sl+/qw5Gu6WYag2wgEG4yg3pxnTbj1e3Ut2/k7r
TZTwr4AOjtH/5W2mroz9WZmgK+cqoQDK112HLfAG2mQwif0yZ2i2oOTbMCEriZqw
b/3+K7BW4XAOX4AER5SBkhyc/GBH1LvwRmDSZdC2ymR7YAGhY/IpU2rDQHTjhJ2Z
L4HOvWpuq+TfYEqa1I4pyS6cbEFbJE/vUTvqrsgMlqDOM+0CAwEAAaOBojCBnzAJ
BgNVHRMEAjAAMB0GA1UdDgQWBBR4WmJ1XcSbkxr9Z7FKGu4nglsE9jBRBgNVHSME
SjBIgBSfyJgvxObgwxnjwXoPLUYGyrm0taEapBgwFjEUMBIGA1UEAwwLdGVhbTM5
Ni1uZXSCFGzFeH73PRAuY/lKwAgSGrzu/vTWMBMGA1UdJQQMMAoGCCsGAQUFBwMC
MAsGA1UdDwQEAwIHgDANBgkqhkiG9w0BAQsFAAOCAQEAYMD0veqD7PYUv9s2wKGG
lakkv2wS+ZG8bzK5q6woNnGKSt5Yz3dOSvboLq/DeA3qrIVmZ/GI+JtuWxMhBZdT
KUMl4qoFmE1zRx052mcLrdVqfskokRfIarQZJtty5ga9RduD3k2GsArNbUI1j2t4
+MMBNKdSfeQk0vRbuoIohvmAwoT9UHIGNp3nn3UDGKH4REOt8vcDGgxoheiMBecp
eU7PMgNmQyD5aq9dKpl0K3ECjEeoy6qo0/YIGZCbkcIeNtHjYmXvvVbCzyhokd3N
tQB+zqYDvlYDexTy8qQBNOabDeEr/7xq8mV4vC7acrlhOgiLIOzxRUgRlZNTcqTU
1g==
-----END CERTIFICATE-----
