Certificate:
    Data:
        Version: 3 (0x2)
        Serial Number:
            0d:00:df:8c:2a:6c:40:a5:3e:19:60:b2:f0:5d:7d:c8
        Signature Algorithm: sha256WithRSAEncryption
        Issuer: CN=team210-net
        Validity
            Not Before: Nov  4 11:31:47 2023 GMT
            Not After : Oct 19 11:31:47 2026 GMT
        Subject: CN=team210-server
        Subject Public Key Info:
            Public Key Algorithm: rsaEncryption
                Public-Key: (2048 bit)
                Modulus:
                    00:fc:61:56:4c:d1:eb:b9:a5:f7:35:28:c8:e1:62:
                    b1:6a:a0:67:74:dc:01:1d:ba:dd:26:c4:75:94:f4:
                    d8:03:51:66:7d:ac:c9:23:7d:97:b2:10:bf:cf:d5:
                    29:0f:1b:21:16:84:7e:76:70:d5:6b:bd:51:42:3b:
                    9a:19:2b:0f:4e:42:d6:a7:fd:40:60:33:8a:f4:c8:
                    f8:74:05:80:2b:0d:ff:cb:d5:4b:3a:fd:c2:eb:83:
                    b4:61:66:1d:3b:03:01:c2:49:02:4e:f1:8a:4f:16:
                    5d:9d:d2:91:17:fc:61:bf:74:ef:b9:5b:1b:df:64:
                    7e:c2:93:07:e5:b4:11:91:91:25:58:7d:04:bd:24:
                    b6:96:0c:26:a6:7a:d5:a3:62:3c:b7:cc:90:a8:48:
                    39:c7:da:b5:ba:6e:7f:5e:fa:50:d4:99:d0:92:fa:
                    eb:e8:4d:f2:01:d4:2c:b5:4e:75:dc:3d:eb:80:7b:
                    5f:07:2c:b1:b9:17:7a:a4:ea:fb:95:1d:9c:9c:35:
                    c1:2f:47:63:42:9c:4e:e0:33:dc:aa:8d:cf:6d:20:
                    ce:58:8d:85:f5:35:e6:b9:d0:36:47:13:bc:65:5c:
                    c7:14:fd:12:38:07:d4:77:82:9f:68:64:1f:1b:31:
                    3b:71:11:73:13:09:09:9b:88:4a:72:d7:54:33:bd:
                    0f:b1
                Exponent: 65537 (0x10001)
        X509v3 extensions:
            X509v3 Basic Constraints: 
                CA:FALSE
            X509v3 Subject Key Identifier: 
                3F:52:2E:AB:C1:97:70:C7:1A:62:2E:02:E7:19:2D:75:7E:25:DE:F2
            X509v3 Authority Key Identifier: 
                keyid:42:1B:1A:29:53:E1:2D:D1:1D:79:C4:CF:E1:69:C1:54:4F:DA:B0:AD
                DirName:/CN=team210-net
                serial:1B:0A:BA:61:55:67:EB:BE:26:DF:9E:6A:C4:1B:FB:79:7E:41:C5:DB
            X509v3 Extended Key Usage: 
                TLS Web Server Authentication
            X509v3 Key Usage: 
                Digital Signature, Key Encipherment
            X509v3 Subject Alternative Name: 
                DNS:team210-server
    Signature Algorithm: sha256WithRSAEncryption
    Signature Value:
        5b:ee:ef:59:80:f3:1f:63:23:1b:20:29:d9:b2:51:31:05:df:
        56:1e:33:a3:88:cb:b3:8a:d7:fd:7e:55:f5:64:86:09:24:c7:
        bc:d0:20:30:cb:28:55:fa:57:f8:75:b7:4d:87:4e:ea:aa:fa:
        bf:62:1b:88:cb:e9:c5:6d:2f:97:2e:d6:80:e1:35:71:3e:f1:
        f2:ff:96:1d:b7:0e:53:b8:a8:45:b2:34:da:1d:58:cd:99:1b:
        97:43:b9:60:63:38:42:5a:86:12:08:e1:38:c4:d6:16:75:e0:
        6b:08:36:d5:6c:0d:be:31:2b:d5:da:69:55:de:9b:7b:4f:e2:
        aa:61:8d:96:63:17:f7:72:df:51:5f:c6:a2:48:29:91:3a:c7:
        00:c5:4f:d7:63:78:55:26:1f:f7:d8:9e:77:01:94:30:a8:6e:
        b8:39:1e:f1:ef:4d:40:e5:04:0a:2d:ca:fe:7b:46:53:88:5a:
        bb:8f:2a:a8:08:4b:0b:ba:14:cc:a8:89:94:20:3c:3c:79:82:
        41:72:97:03:5b:1c:cf:d0:2a:97:ff:b7:c5:93:03:1f:48:b8:
        7e:0f:e0:8c:90:33:f8:6b:be:03:e7:91:80:b0:4e:68:54:86:
        85:9f:57:0a:a9:13:b9:49:7a:0b:cb:e8:32:36:0e:f2:58:4f:
        3c:df:0e:d6
-----BEGIN CERTIFICATE-----
MIIDdzCCAl+gAwIBAgIQDQDfjCpsQKU+GWCy8F19yDANBgkqhkiG9w0BAQsFADAW
MRQwEgYDVQQDDAt0ZWFtMjEwLW5ldDAeFw0yMzExMDQxMTMxNDdaFw0yNjEwMTkx
MTMxNDdaMBkxFzAVBgNVBAMMDnRlYW0yMTAtc2VydmVyMIIBIjANBgkqhkiG9w0B
AQEFAAOCAQ8AMIIBCgKCAQEA/GFWTNHruaX3NSjI4WKxaqBndNwBHbrdJsR1lPTY
A1FmfazJI32XshC/z9UpDxshFoR+dnDVa71RQjuaGSsPTkLWp/1AYDOK9Mj4dAWA
Kw3/y9VLOv3C64O0YWYdOwMBwkkCTvGKTxZdndKRF/xhv3TvuVsb32R+wpMH5bQR
kZElWH0EvSS2lgwmpnrVo2I8t8yQqEg5x9q1um5/XvpQ1JnQkvrr6E3yAdQstU51
3D3rgHtfByyxuRd6pOr7lR2cnDXBL0djQpxO4DPcqo3PbSDOWI2F9TXmudA2RxO8
ZVzHFP0SOAfUd4KfaGQfGzE7cRFzEwkJm4hKctdUM70PsQIDAQABo4G9MIG6MAkG
A1UdEwQCMAAwHQYDVR0OBBYEFD9SLqvBl3DHGmIuAucZLXV+Jd7yMFEGA1UdIwRK
MEiAFEIbGilT4S3RHXnEz+FpwVRP2rCtoRqkGDAWMRQwEgYDVQQDDAt0ZWFtMjEw
LW5ldIIUGwq6YVVn674m355qxBv7eX5BxdswEwYDVR0lBAwwCgYIKwYBBQUHAwEw
CwYDVR0PBAQDAgWgMBkGA1UdEQQSMBCCDnRlYW0yMTAtc2VydmVyMA0GCSqGSIb3
DQEBCwUAA4IBAQBb7u9ZgPMfYyMbICnZslExBd9WHjOjiMuzitf9flX1ZIYJJMe8
0CAwyyhV+lf4dbdNh07qqvq/YhuIy+nFbS+XLtaA4TVxPvHy/5Ydtw5TuKhFsjTa
HVjNmRuXQ7lgYzhCWoYSCOE4xNYWdeBrCDbVbA2+MSvV2mlV3pt7T+KqYY2WYxf3
ct9RX8aiSCmROscAxU/XY3hVJh/32J53AZQwqG64OR7x701A5QQKLcr+e0ZTiFq7
jyqoCEsLuhTMqImUIDw8eYJBcpcDWxzP0CqX/7fFkwMfSLh+D+CMkDP4a74D55GA
sE5oVIaFn1cKqRO5SXoLy+gyNg7yWE883w7W
-----END CERTIFICATE-----
