Certificate:
    Data:
        Version: 3 (0x2)
        Serial Number:
            38:35:b0:96:e9:c3:cf:d6:d1:64:69:24:ef:66:16:7a
        Signature Algorithm: sha256WithRSAEncryption
        Issuer: CN=team210-net
        Validity
            Not Before: Nov  4 10:44:33 2023 GMT
            Not After : Oct 19 10:44:33 2026 GMT
        Subject: CN=team210-server
        Subject Public Key Info:
            Public Key Algorithm: rsaEncryption
                Public-Key: (2048 bit)
                Modulus:
                    00:82:c3:06:71:32:30:2e:fd:8b:d0:0b:37:ab:33:
                    e7:c8:4c:22:da:e8:9f:c7:a9:1d:04:7e:7f:e3:c3:
                    b5:78:52:f9:2c:8b:9b:a9:8d:d5:fa:0e:f5:8a:0e:
                    31:c3:fc:62:e0:0c:46:8c:70:51:fe:24:75:14:12:
                    13:f3:19:27:d5:80:be:2c:b7:82:72:77:62:6c:a4:
                    41:37:5f:ee:2b:7d:f7:ab:ba:85:12:45:40:38:68:
                    f7:2d:2d:91:0b:c2:49:6a:89:58:3e:63:99:93:1b:
                    f5:5e:3b:8d:b2:75:d9:4e:28:84:16:a6:d2:0a:c5:
                    86:0b:02:78:bb:10:ee:e2:00:a0:55:cf:ce:69:8c:
                    62:84:2b:36:db:11:b4:97:5d:22:56:89:71:a3:15:
                    3c:04:16:e3:30:32:20:df:0f:55:8e:16:82:83:e0:
                    6d:88:92:d3:b7:ef:43:3b:06:39:70:04:7b:c2:2f:
                    b0:e9:ce:04:a7:23:c6:fb:c2:6c:94:7e:f8:8d:17:
                    4c:3f:58:34:46:e9:a5:37:85:5c:37:4f:27:7a:14:
                    73:db:c6:47:2b:6a:39:20:71:c7:66:06:83:ae:7d:
                    66:b0:27:57:85:a8:21:06:0f:7c:8b:3e:85:92:10:
                    ea:0e:72:a4:6a:03:c1:22:cb:75:39:32:88:2d:3b:
                    ad:35
                Exponent: 65537 (0x10001)
        X509v3 extensions:
            X509v3 Basic Constraints: 
                CA:FALSE
            X509v3 Subject Key Identifier: 
                0B:9B:1C:CA:5B:1E:42:38:A0:C9:0B:0D:25:FD:E2:24:21:57:F5:D3
            X509v3 Authority Key Identifier: 
                keyid:89:14:00:F4:98:F8:E8:6C:11:D6:E1:45:0A:AF:6E:A2:D4:37:29:E3
                DirName:/CN=team210-net
                serial:72:DF:21:1F:4E:2F:1D:38:2B:DA:34:25:32:88:74:2F:4E:1A:6C:EA
            X509v3 Extended Key Usage: 
                TLS Web Server Authentication
            X509v3 Key Usage: 
                Digital Signature, Key Encipherment
            X509v3 Subject Alternative Name: 
                DNS:team210-server
    Signature Algorithm: sha256WithRSAEncryption
    Signature Value:
        03:e2:2d:e3:b2:d5:98:be:ea:fa:7e:fa:22:ad:8f:02:3b:de:
        29:67:a0:d9:86:bd:8e:b9:5a:ea:98:9a:72:dc:ae:ff:2c:07:
        51:e1:da:a8:dd:15:b3:a7:61:2e:e7:d0:72:f7:f2:d0:22:fe:
        d0:d1:7c:d0:94:d7:78:c6:fd:14:48:b3:11:6b:5a:42:00:0a:
        ce:6d:e0:88:e9:87:1b:e8:39:49:ab:4e:b0:5b:68:4a:fa:9c:
        96:ab:d0:14:ad:44:ec:06:6e:a8:7d:86:12:5a:e3:0e:ae:15:
        44:66:2d:fc:e1:2a:f7:15:34:3d:d0:59:fd:2b:8e:36:a6:5d:
        8f:5d:73:f9:43:c0:43:7d:77:55:48:54:13:15:99:db:ac:aa:
        be:a2:0f:66:39:c9:7e:a4:bb:04:21:2b:f1:dc:00:2e:c6:8b:
        7a:61:b9:40:7d:a1:79:08:87:ec:60:c9:2e:4c:ee:9b:20:f2:
        f9:cc:fb:dc:da:32:7f:8c:bc:60:e8:cf:d2:11:8f:50:43:71:
        46:7f:a1:5e:ca:ea:a3:63:77:69:91:06:7c:b9:50:09:be:4b:
        a3:1c:f1:03:a1:58:77:8b:5f:a1:2c:00:dd:86:84:af:96:a9:
        c3:88:42:09:b7:26:3c:68:18:98:43:b1:24:84:33:27:84:7c:
        8f:d2:f9:2c
-----BEGIN CERTIFICATE-----
MIIDdzCCAl+gAwIBAgIQODWwlunDz9bRZGkk72YWejANBgkqhkiG9w0BAQsFADAW
MRQwEgYDVQQDDAt0ZWFtMjEwLW5ldDAeFw0yMzExMDQxMDQ0MzNaFw0yNjEwMTkx
MDQ0MzNaMBkxFzAVBgNVBAMMDnRlYW0yMTAtc2VydmVyMIIBIjANBgkqhkiG9w0B
AQEFAAOCAQ8AMIIBCgKCAQEAgsMGcTIwLv2L0As3qzPnyEwi2uifx6kdBH5/48O1
eFL5LIubqY3V+g71ig4xw/xi4AxGjHBR/iR1FBIT8xkn1YC+LLeCcndibKRBN1/u
K333q7qFEkVAOGj3LS2RC8JJaolYPmOZkxv1XjuNsnXZTiiEFqbSCsWGCwJ4uxDu
4gCgVc/OaYxihCs22xG0l10iVolxoxU8BBbjMDIg3w9VjhaCg+BtiJLTt+9DOwY5
cAR7wi+w6c4EpyPG+8JslH74jRdMP1g0RumlN4VcN08nehRz28ZHK2o5IHHHZgaD
rn1msCdXhaghBg98iz6FkhDqDnKkagPBIst1OTKILTutNQIDAQABo4G9MIG6MAkG
A1UdEwQCMAAwHQYDVR0OBBYEFAubHMpbHkI4oMkLDSX94iQhV/XTMFEGA1UdIwRK
MEiAFIkUAPSY+OhsEdbhRQqvbqLUNynjoRqkGDAWMRQwEgYDVQQDDAt0ZWFtMjEw
LW5ldIIUct8hH04vHTgr2jQlMoh0L04abOowEwYDVR0lBAwwCgYIKwYBBQUHAwEw
CwYDVR0PBAQDAgWgMBkGA1UdEQQSMBCCDnRlYW0yMTAtc2VydmVyMA0GCSqGSIb3
DQEBCwUAA4IBAQAD4i3jstWYvur6fvoirY8CO94pZ6DZhr2OuVrqmJpy3K7/LAdR
4dqo3RWzp2Eu59By9/LQIv7Q0XzQlNd4xv0USLMRa1pCAArObeCI6Ycb6DlJq06w
W2hK+pyWq9AUrUTsBm6ofYYSWuMOrhVEZi384Sr3FTQ90Fn9K442pl2PXXP5Q8BD
fXdVSFQTFZnbrKq+og9mOcl+pLsEISvx3AAuxot6YblAfaF5CIfsYMkuTO6bIPL5
zPvc2jJ/jLxg6M/SEY9QQ3FGf6FeyuqjY3dpkQZ8uVAJvkujHPEDoVh3i1+hLADd
hoSvlqnDiEIJtyY8aBiYQ7EkhDMnhHyP0vks
-----END CERTIFICATE-----
