Certificate:
    Data:
        Version: 3 (0x2)
        Serial Number:
            89:66:0e:76:eb:b5:78:69:1b:85:da:da:e9:98:e9:4c
        Signature Algorithm: sha256WithRSAEncryption
        Issuer: CN=team210-net
        Validity
            Not Before: Nov  4 10:44:33 2023 GMT
            Not After : Oct 19 10:44:33 2026 GMT
        Subject: CN=team210-client
        Subject Public Key Info:
            Public Key Algorithm: rsaEncryption
                Public-Key: (2048 bit)
                Modulus:
                    00:ae:7b:b8:b7:be:ad:a3:8e:ff:8d:21:96:fe:2f:
                    24:18:12:7c:1a:f3:8b:c9:28:33:e9:91:e6:62:a1:
                    58:39:6f:c2:2c:95:b2:3d:11:e0:25:9a:9b:b4:dd:
                    d0:a4:49:30:51:70:a0:61:82:0d:d2:89:49:bf:ab:
                    11:53:d1:94:23:ea:b6:27:ff:d5:cb:c5:03:cf:17:
                    a3:35:3b:2d:c8:b3:a3:0a:0c:be:32:22:79:5a:73:
                    be:22:1d:66:46:09:3a:88:38:89:ab:d9:98:22:19:
                    09:7a:1f:51:84:1d:97:80:ce:8c:c8:54:da:fd:9e:
                    4c:d9:15:14:a5:bd:19:ff:1a:77:30:55:e9:87:93:
                    22:da:79:1e:22:bf:5a:bf:31:2d:e7:d7:2b:a7:e2:
                    4b:d5:fa:36:46:7b:5c:fe:bd:7f:52:a4:c0:0e:ca:
                    83:d5:42:83:d4:67:ec:30:c9:6b:bd:66:ba:77:a0:
                    16:af:d0:a7:1c:b8:ee:00:ce:e2:23:ac:35:86:a0:
                    72:5c:0d:0b:c5:25:a9:58:3a:39:8e:21:d9:36:27:
                    57:d1:fe:bd:76:79:f6:55:d6:f0:94:9e:ef:5f:d6:
                    55:ce:ec:53:99:d0:00:e4:b8:55:46:09:48:2d:e8:
                    11:52:70:6f:06:5b:e3:61:72:0f:57:50:20:a4:45:
                    d0:5b
                Exponent: 65537 (0x10001)
        X509v3 extensions:
            X509v3 Basic Constraints: 
                CA:FALSE
            X509v3 Subject Key Identifier: 
                C5:FE:87:24:76:BB:92:89:7B:42:74:22:D9:29:DA:56:59:BB:2F:37
            X509v3 Authority Key Identifier: 
                keyid:89:14:00:F4:98:F8:E8:6C:11:D6:E1:45:0A:AF:6E:A2:D4:37:29:E3
                DirName:/CN=team210-net
                serial:72:DF:21:1F:4E:2F:1D:38:2B:DA:34:25:32:88:74:2F:4E:1A:6C:EA
            X509v3 Extended Key Usage: 
                TLS Web Client Authentication
            X509v3 Key Usage: 
                Digital Signature
    Signature Algorithm: sha256WithRSAEncryption
    Signature Value:
        a2:c7:55:2a:f1:39:02:96:dd:33:1d:8c:ba:1e:4c:2e:b3:5a:
        92:1f:e5:5a:3c:2e:05:5d:49:94:b7:79:4c:6c:44:aa:6b:47:
        5b:62:40:30:89:90:28:76:c2:b4:88:49:c4:7d:c4:b6:a8:14:
        90:03:07:36:11:79:c7:f1:a3:a7:a5:fe:0b:6f:4a:5c:b8:2d:
        c9:eb:b6:d7:b1:ce:be:62:ac:19:3a:22:da:c5:92:47:d9:12:
        4f:eb:87:e5:84:1e:86:7f:d4:f2:d1:a8:c9:9a:5f:69:12:ce:
        db:a1:0f:1b:56:7f:b2:d3:38:52:54:9f:02:c6:5e:21:23:7a:
        8c:44:03:79:08:b2:2e:e9:47:d2:ec:9a:b6:ab:ee:18:5f:1c:
        9e:dc:f2:ce:fe:b8:f7:97:e8:58:06:29:37:63:83:d8:57:a9:
        ee:99:49:17:6a:74:16:4c:c1:7e:8e:af:c4:45:68:b1:b7:1f:
        ad:47:f5:a1:75:ba:8b:66:96:3b:0a:be:86:4e:b0:d0:ab:95:
        f7:7f:1c:2f:06:b1:59:9b:ce:99:35:6b:e1:85:d1:f4:4d:db:
        fd:44:88:32:8f:d1:65:14:a5:fc:7b:bb:d4:b0:84:09:fd:43:
        9c:f7:6a:f0:f6:1c:0a:b1:97:2f:5e:3a:37:d2:e1:cc:a6:64:
        f1:1c:8d:ba
-----BEGIN CERTIFICATE-----
MIIDXTCCAkWgAwIBAgIRAIlmDnbrtXhpG4Xa2umY6UwwDQYJKoZIhvcNAQELBQAw
FjEUMBIGA1UEAwwLdGVhbTIxMC1uZXQwHhcNMjMxMTA0MTA0NDMzWhcNMjYxMDE5
MTA0NDMzWjAZMRcwFQYDVQQDDA50ZWFtMjEwLWNsaWVudDCCASIwDQYJKoZIhvcN
AQEBBQADggEPADCCAQoCggEBAK57uLe+raOO/40hlv4vJBgSfBrzi8koM+mR5mKh
WDlvwiyVsj0R4CWam7Td0KRJMFFwoGGCDdKJSb+rEVPRlCPqtif/1cvFA88XozU7
LcizowoMvjIieVpzviIdZkYJOog4iavZmCIZCXofUYQdl4DOjMhU2v2eTNkVFKW9
Gf8adzBV6YeTItp5HiK/Wr8xLefXK6fiS9X6NkZ7XP69f1KkwA7Kg9VCg9Rn7DDJ
a71munegFq/Qpxy47gDO4iOsNYagclwNC8UlqVg6OY4h2TYnV9H+vXZ59lXW8JSe
71/WVc7sU5nQAOS4VUYJSC3oEVJwbwZb42FyD1dQIKRF0FsCAwEAAaOBojCBnzAJ
BgNVHRMEAjAAMB0GA1UdDgQWBBTF/ockdruSiXtCdCLZKdpWWbsvNzBRBgNVHSME
SjBIgBSJFAD0mPjobBHW4UUKr26i1Dcp46EapBgwFjEUMBIGA1UEAwwLdGVhbTIx
MC1uZXSCFHLfIR9OLx04K9o0JTKIdC9OGmzqMBMGA1UdJQQMMAoGCCsGAQUFBwMC
MAsGA1UdDwQEAwIHgDANBgkqhkiG9w0BAQsFAAOCAQEAosdVKvE5ApbdMx2Muh5M
LrNakh/lWjwuBV1JlLd5TGxEqmtHW2JAMImQKHbCtIhJxH3EtqgUkAMHNhF5x/Gj
p6X+C29KXLgtyeu217HOvmKsGToi2sWSR9kST+uH5YQehn/U8tGoyZpfaRLO26EP
G1Z/stM4UlSfAsZeISN6jEQDeQiyLulH0uyatqvuGF8cntzyzv6495foWAYpN2OD
2Fep7plJF2p0FkzBfo6vxEVosbcfrUf1oXW6i2aWOwq+hk6w0KuV938cLwaxWZvO
mTVr4YXR9E3b/USIMo/RZRSl/Hu71LCECf1DnPdq8PYcCrGXL146N9LhzKZk8RyN
ug==
-----END CERTIFICATE-----
