Certificate:
    Data:
        Version: 3 (0x2)
        Serial Number:
            c3:7d:a8:12:ae:eb:66:30:50:8b:ad:54:c1:2c:ee:d1
        Signature Algorithm: sha256WithRSAEncryption
        Issuer: CN=team210-net
        Validity
            Not Before: Nov  4 11:31:46 2023 GMT
            Not After : Oct 19 11:31:46 2026 GMT
        Subject: CN=team210-client
        Subject Public Key Info:
            Public Key Algorithm: rsaEncryption
                Public-Key: (2048 bit)
                Modulus:
                    00:ba:3b:21:7c:92:f4:07:61:36:b2:16:fe:b0:de:
                    71:b0:c0:d5:34:41:c8:b9:30:c6:82:fc:9e:f7:2e:
                    78:3b:05:2c:b9:9b:9c:c4:cb:af:27:8c:68:2b:a2:
                    7e:98:f8:6a:76:26:b8:94:77:2c:2c:de:fc:1a:5c:
                    45:da:66:4b:24:80:09:eb:4c:89:6f:7d:76:41:d8:
                    2d:5a:d3:a1:56:c7:b8:46:38:00:f7:fb:00:56:ec:
                    65:da:db:3a:37:e1:89:fa:ac:0b:f9:84:ea:ae:50:
                    b2:6b:e2:68:ea:c5:06:fb:58:ef:44:73:8a:7b:a2:
                    3e:64:9a:c4:15:56:fb:bc:0b:c5:b4:14:d0:df:7a:
                    18:12:2d:82:bd:75:ec:0d:63:62:f8:77:ff:09:71:
                    72:87:b1:ff:f3:fc:b9:6b:73:1d:12:35:26:f7:e3:
                    eb:5a:94:fd:8b:1a:75:59:10:1e:3c:f5:b4:73:d0:
                    6e:a1:46:04:45:54:40:29:0d:ab:9f:6e:18:1c:df:
                    5e:6d:00:1f:16:a4:46:4c:ee:e6:25:2e:f2:68:f5:
                    a7:37:a8:86:5f:a9:61:30:9a:c3:b4:8d:c8:39:47:
                    4f:54:ca:6a:77:75:77:f4:53:db:04:be:9a:16:05:
                    90:89:b3:5b:ad:ab:9f:a5:4e:c6:1f:08:7c:bd:28:
                    15:b9
                Exponent: 65537 (0x10001)
        X509v3 extensions:
            X509v3 Basic Constraints: 
                CA:FALSE
            X509v3 Subject Key Identifier: 
                71:E7:FF:54:37:DE:EC:3E:FC:8F:82:FF:62:6B:EA:43:33:6C:34:80
            X509v3 Authority Key Identifier: 
                keyid:42:1B:1A:29:53:E1:2D:D1:1D:79:C4:CF:E1:69:C1:54:4F:DA:B0:AD
                DirName:/CN=team210-net
                serial:1B:0A:BA:61:55:67:EB:BE:26:DF:9E:6A:C4:1B:FB:79:7E:41:C5:DB
            X509v3 Extended Key Usage: 
                TLS Web Client Authentication
            X509v3 Key Usage: 
                Digital Signature
    Signature Algorithm: sha256WithRSAEncryption
    Signature Value:
        aa:4d:52:b9:ee:cb:97:14:01:ca:3a:06:07:45:4b:ab:48:6b:
        94:44:a3:3b:cd:93:e1:30:64:3f:4f:4b:b4:74:41:01:1e:82:
        0a:2a:60:d6:e2:59:1b:a3:c8:04:53:e1:a6:13:cb:2f:91:4f:
        e2:eb:ab:82:40:68:4f:04:4a:db:e2:75:d1:03:31:11:87:b0:
        76:82:f8:a1:c4:55:af:79:ba:90:a6:f3:10:38:8f:1e:b3:c5:
        9e:32:2f:31:7d:fc:b5:b4:d4:d3:48:ae:44:30:c7:b2:46:bf:
        80:66:83:aa:f9:80:d6:d8:64:7f:01:76:8c:10:99:b6:11:e3:
        48:16:77:7f:58:08:be:e7:45:0f:a4:24:0c:c4:85:8d:38:16:
        99:9e:7b:96:11:45:29:1a:69:9b:df:fb:2a:cf:64:e5:31:d2:
        47:a3:db:be:e4:ad:88:2c:63:8f:3e:d7:b2:63:38:f9:95:af:
        de:8a:b1:c1:25:eb:c7:c4:ec:8e:9b:dd:9d:cd:5f:13:26:bf:
        73:f9:9a:15:da:e3:bd:1f:7e:bc:bf:f5:20:69:9a:46:b2:b6:
        0b:73:7a:8c:d3:7e:73:2f:cb:7e:7c:a7:74:f3:09:6c:5f:ea:
        32:64:93:e4:56:95:40:d5:7b:52:41:0a:63:5e:d4:d4:1f:f8:
        8f:fc:14:7a
-----BEGIN CERTIFICATE-----
MIIDXTCCAkWgAwIBAgIRAMN9qBKu62YwUIutVMEs7tEwDQYJKoZIhvcNAQELBQAw
FjEUMBIGA1UEAwwLdGVhbTIxMC1uZXQwHhcNMjMxMTA0MTEzMTQ2WhcNMjYxMDE5
MTEzMTQ2WjAZMRcwFQYDVQQDDA50ZWFtMjEwLWNsaWVudDCCASIwDQYJKoZIhvcN
AQEBBQADggEPADCCAQoCggEBALo7IXyS9AdhNrIW/rDecbDA1TRByLkwxoL8nvcu
eDsFLLmbnMTLryeMaCuifpj4anYmuJR3LCze/BpcRdpmSySACetMiW99dkHYLVrT
oVbHuEY4APf7AFbsZdrbOjfhifqsC/mE6q5QsmviaOrFBvtY70RzinuiPmSaxBVW
+7wLxbQU0N96GBItgr117A1jYvh3/wlxcoex//P8uWtzHRI1Jvfj61qU/YsadVkQ
Hjz1tHPQbqFGBEVUQCkNq59uGBzfXm0AHxakRkzu5iUu8mj1pzeohl+pYTCaw7SN
yDlHT1TKand1d/RT2wS+mhYFkImzW62rn6VOxh8IfL0oFbkCAwEAAaOBojCBnzAJ
BgNVHRMEAjAAMB0GA1UdDgQWBBRx5/9UN97sPvyPgv9ia+pDM2w0gDBRBgNVHSME
SjBIgBRCGxopU+Et0R15xM/hacFUT9qwraEapBgwFjEUMBIGA1UEAwwLdGVhbTIx
MC1uZXSCFBsKumFVZ+u+Jt+easQb+3l+QcXbMBMGA1UdJQQMMAoGCCsGAQUFBwMC
MAsGA1UdDwQEAwIHgDANBgkqhkiG9w0BAQsFAAOCAQEAqk1Sue7LlxQByjoGB0VL
q0hrlESjO82T4TBkP09LtHRBAR6CCipg1uJZG6PIBFPhphPLL5FP4uurgkBoTwRK
2+J10QMxEYewdoL4ocRVr3m6kKbzEDiPHrPFnjIvMX38tbTU00iuRDDHska/gGaD
qvmA1thkfwF2jBCZthHjSBZ3f1gIvudFD6QkDMSFjTgWmZ57lhFFKRppm9/7Ks9k
5THSR6PbvuStiCxjjz7XsmM4+ZWv3oqxwSXrx8Tsjpvdnc1fEya/c/maFdrjvR9+
vL/1IGmaRrK2C3N6jNN+cy/LfnyndPMJbF/qMmST5FaVQNV7UkEKY17U1B/4j/wU
eg==
-----END CERTIFICATE-----
