Certificate:
    Data:
        Version: 3 (0x2)
        Serial Number:
            32:b0:fb:86:f1:6d:bd:e5:8b:b7:02:99:17:d7:72:aa
        Signature Algorithm: sha256WithRSAEncryption
        Issuer: CN=team66-net
        Validity
            Not Before: Nov  4 10:41:33 2023 GMT
            Not After : Oct 19 10:41:33 2026 GMT
        Subject: CN=team66-client
        Subject Public Key Info:
            Public Key Algorithm: rsaEncryption
                Public-Key: (2048 bit)
                Modulus:
                    00:b3:7f:82:18:3e:68:4b:44:30:ae:68:13:8a:40:
                    0e:ea:f0:3c:16:ae:35:32:28:d4:bd:f0:b2:3c:1d:
                    88:2d:f9:02:21:19:d3:b2:e1:05:16:72:8b:3e:59:
                    a6:2d:25:88:91:60:f9:57:32:b7:59:a8:f5:65:3f:
                    e6:63:3b:e4:25:91:55:33:41:f4:e6:17:42:44:3c:
                    b1:40:8a:18:8a:07:0b:fe:4f:cf:a7:67:0b:6b:5a:
                    ab:96:6c:65:d7:0e:f2:8e:95:1a:50:f3:1c:0b:7a:
                    97:ef:94:b2:6d:61:9e:9d:a3:b3:1b:2c:82:75:c2:
                    ab:3b:5e:72:3f:de:aa:43:be:31:7c:43:d4:6c:25:
                    9a:eb:c1:43:a3:65:b6:f3:d2:b2:50:7f:be:6c:79:
                    50:84:52:4c:68:9d:2d:33:7a:4a:67:21:01:dc:6b:
                    4b:3e:96:86:bd:58:2b:dd:a4:6c:72:2c:f1:22:6e:
                    fd:80:36:10:f1:36:4b:a2:0b:4a:00:4d:a3:01:0f:
                    36:4d:4d:c5:ba:5b:db:02:3d:c4:b5:6a:2c:9d:9e:
                    4d:77:a1:8e:40:66:ff:94:45:bf:69:b6:86:2f:8a:
                    f2:a7:75:9c:7f:3f:5c:32:cf:4c:ea:79:4d:99:ba:
                    d0:d1:8d:7c:d0:f2:01:9c:5e:31:81:17:cd:7d:eb:
                    f4:c1
                Exponent: 65537 (0x10001)
        X509v3 extensions:
            X509v3 Basic Constraints: 
                CA:FALSE
            X509v3 Subject Key Identifier: 
                23:DA:77:82:C5:5C:91:35:DC:CE:CB:1A:D4:04:55:E7:F0:C6:46:3A
            X509v3 Authority Key Identifier: 
                keyid:36:80:A9:BA:8B:26:85:98:6F:EF:4B:54:43:D4:8A:71:9F:CC:AF:38
                DirName:/CN=team66-net
                serial:75:3C:33:C4:F6:E3:09:A6:47:22:26:3E:7C:AD:2E:A0:04:5F:33:12
            X509v3 Extended Key Usage: 
                TLS Web Client Authentication
            X509v3 Key Usage: 
                Digital Signature
    Signature Algorithm: sha256WithRSAEncryption
    Signature Value:
        6a:ca:f0:59:9c:66:ad:15:95:cd:27:9f:3f:cd:42:82:0f:30:
        de:59:74:25:b4:5e:8c:98:1d:8f:a9:7e:8f:ca:0a:8a:2b:4d:
        c1:f5:25:6f:78:90:c2:47:52:4d:a2:f6:79:91:d0:e7:d8:12:
        e1:4b:fb:ae:18:a7:8a:12:ea:c8:1b:03:85:30:98:68:1d:a6:
        32:23:68:5b:3a:16:7a:e8:6b:99:70:8b:da:81:42:4a:68:a4:
        3b:7a:be:9b:0c:44:87:7c:d1:aa:36:c8:9a:62:36:5f:6d:c5:
        7c:82:b8:aa:e7:5a:2c:1b:0a:74:a2:33:89:cc:1a:5f:1c:68:
        63:90:2a:74:0f:db:db:07:02:92:c6:06:b7:60:f6:d9:e7:9e:
        37:57:a3:2e:d4:c7:bc:85:ed:3f:03:35:bc:a4:fb:ee:e1:96:
        e8:eb:f9:03:9a:53:f8:40:af:e5:86:b7:1b:ea:9c:a1:61:74:
        61:1d:9f:32:1b:60:47:e2:47:21:bf:73:5f:f2:af:72:35:8e:
        27:e2:b1:46:0d:89:da:4f:a6:e1:17:95:3f:ec:31:98:70:72:
        81:e6:7e:f5:3a:a1:12:2e:0a:62:d4:15:7f:86:94:c3:a0:7e:
        f8:ca:c3:65:c2:ac:0a:11:4c:e3:f1:5e:d5:78:04:a1:8b:22:
        a9:73:73:56
-----BEGIN CERTIFICATE-----
MIIDWTCCAkGgAwIBAgIQMrD7hvFtveWLtwKZF9dyqjANBgkqhkiG9w0BAQsFADAV
MRMwEQYDVQQDDAp0ZWFtNjYtbmV0MB4XDTIzMTEwNDEwNDEzM1oXDTI2MTAxOTEw
NDEzM1owGDEWMBQGA1UEAwwNdGVhbTY2LWNsaWVudDCCASIwDQYJKoZIhvcNAQEB
BQADggEPADCCAQoCggEBALN/ghg+aEtEMK5oE4pADurwPBauNTIo1L3wsjwdiC35
AiEZ07LhBRZyiz5Zpi0liJFg+Vcyt1mo9WU/5mM75CWRVTNB9OYXQkQ8sUCKGIoH
C/5Pz6dnC2taq5ZsZdcO8o6VGlDzHAt6l++Usm1hnp2jsxssgnXCqztecj/eqkO+
MXxD1GwlmuvBQ6NltvPSslB/vmx5UIRSTGidLTN6SmchAdxrSz6Whr1YK92kbHIs
8SJu/YA2EPE2S6ILSgBNowEPNk1Nxbpb2wI9xLVqLJ2eTXehjkBm/5RFv2m2hi+K
8qd1nH8/XDLPTOp5TZm60NGNfNDyAZxeMYEXzX3r9MECAwEAAaOBoTCBnjAJBgNV
HRMEAjAAMB0GA1UdDgQWBBQj2neCxVyRNdzOyxrUBFXn8MZGOjBQBgNVHSMESTBH
gBQ2gKm6iyaFmG/vS1RD1Ipxn8yvOKEZpBcwFTETMBEGA1UEAwwKdGVhbTY2LW5l
dIIUdTwzxPbjCaZHIiY+fK0uoARfMxIwEwYDVR0lBAwwCgYIKwYBBQUHAwIwCwYD
VR0PBAQDAgeAMA0GCSqGSIb3DQEBCwUAA4IBAQBqyvBZnGatFZXNJ58/zUKCDzDe
WXQltF6MmB2PqX6PygqKK03B9SVveJDCR1JNovZ5kdDn2BLhS/uuGKeKEurIGwOF
MJhoHaYyI2hbOhZ66GuZcIvagUJKaKQ7er6bDESHfNGqNsiaYjZfbcV8griq51os
Gwp0ojOJzBpfHGhjkCp0D9vbBwKSxga3YPbZ5543V6Mu1Me8he0/AzW8pPvu4Zbo
6/kDmlP4QK/lhrcb6pyhYXRhHZ8yG2BH4kchv3Nf8q9yNY4n4rFGDYnaT6bhF5U/
7DGYcHKB5n71OqESLgpi1BV/hpTDoH74ysNlwqwKEUzj8V7VeAShiyKpc3NW
-----END CERTIFICATE-----
