Certificate:
    Data:
        Version: 3 (0x2)
        Serial Number:
            73:9c:3d:9a:e6:1f:f4:1f:7c:19:6c:4e:52:71:e1:71
        Signature Algorithm: sha256WithRSAEncryption
        Issuer: CN=team66-net
        Validity
            Not Before: Nov  4 11:28:36 2023 GMT
            Not After : Oct 19 11:28:36 2026 GMT
        Subject: CN=team66-client
        Subject Public Key Info:
            Public Key Algorithm: rsaEncryption
                Public-Key: (2048 bit)
                Modulus:
                    00:98:93:15:92:d1:67:29:1f:22:15:24:65:90:53:
                    d8:2d:78:11:7f:58:21:ae:28:84:bd:48:6e:53:6a:
                    ff:73:7c:3d:bb:bb:04:2a:8d:b9:82:0c:55:e0:0d:
                    91:19:13:8b:20:ac:c3:2b:d7:d3:7e:a7:30:14:a4:
                    89:4e:62:e9:5d:48:79:92:89:92:97:81:c1:bc:17:
                    07:e5:94:dc:ba:58:b4:8c:cf:30:62:8c:e1:e9:dc:
                    4d:0f:a8:24:8c:7c:7e:ff:58:66:37:30:11:c1:82:
                    8f:80:b4:d4:12:54:aa:90:27:f3:84:05:87:bd:e8:
                    9b:23:db:b8:54:99:c3:52:70:7e:3b:f2:ef:3e:fd:
                    00:7f:2a:c8:38:91:62:b1:4b:df:ed:63:92:16:e9:
                    ea:3d:fe:3c:30:d3:2a:f0:cc:7c:0a:c7:e2:e6:67:
                    69:6d:47:e3:8b:99:15:6f:04:eb:2a:af:b2:10:39:
                    ae:15:03:5c:e5:75:b4:6e:ef:4a:6a:f4:7a:a1:e2:
                    7d:fb:95:68:a6:0d:7d:bb:66:d4:7b:61:14:ee:44:
                    26:aa:8c:1b:c8:2d:4a:23:cf:d3:ec:a3:eb:a2:ab:
                    34:36:96:62:84:f0:f5:bb:f5:d8:d3:0f:ce:91:c3:
                    45:80:c6:35:5c:3e:5a:42:90:e3:45:27:49:e1:88:
                    9e:cf
                Exponent: 65537 (0x10001)
        X509v3 extensions:
            X509v3 Basic Constraints: 
                CA:FALSE
            X509v3 Subject Key Identifier: 
                CC:35:DB:A1:A2:B8:1A:E0:D0:CA:4A:39:B8:10:90:53:2D:BC:55:F2
            X509v3 Authority Key Identifier: 
                keyid:B9:29:FB:17:B2:E1:52:97:41:79:0F:53:B6:4D:82:51:67:3A:60:39
                DirName:/CN=team66-net
                serial:11:30:09:7F:FD:DA:DA:48:9B:2B:0A:1E:53:FA:11:D7:A0:08:3A:14
            X509v3 Extended Key Usage: 
                TLS Web Client Authentication
            X509v3 Key Usage: 
                Digital Signature
    Signature Algorithm: sha256WithRSAEncryption
    Signature Value:
        ad:54:8c:64:6a:5e:83:3f:1a:25:a3:9a:cb:86:41:08:48:14:
        27:e1:05:9a:f1:23:6e:0b:00:5f:fa:3d:2c:87:34:bc:55:d8:
        af:1b:cb:ac:f1:57:39:15:ef:c2:77:d2:73:ad:7d:02:fb:0a:
        92:47:6e:ad:bf:10:7f:8f:20:59:2c:6b:05:9f:df:14:c6:ba:
        78:1e:24:f5:61:39:b2:86:ca:83:6e:6b:3d:80:6c:85:77:79:
        42:25:65:23:f7:d6:33:9f:98:e5:1d:db:ab:c9:e1:49:3e:ee:
        e8:12:e3:61:07:0c:fc:69:33:54:1c:af:f2:7c:d9:bb:56:ea:
        03:66:d1:94:ce:78:e9:5f:f9:47:15:03:e0:4a:66:b2:40:48:
        40:28:2f:57:1b:75:30:75:79:50:37:ae:0b:3d:5d:bc:45:9a:
        73:f6:32:54:66:fc:65:5c:a9:16:01:ce:63:83:20:2c:32:4b:
        e1:00:a8:51:0d:0d:58:2c:97:15:33:ca:77:1b:3a:c4:19:38:
        16:c8:18:20:66:af:b5:4d:f2:a1:f7:2c:28:cc:96:48:80:94:
        d0:37:fa:f1:6f:91:07:25:be:e5:31:25:10:84:f9:1c:22:d7:
        95:66:1a:c1:30:08:c9:1c:71:54:c3:eb:c4:d4:2e:a8:a1:6d:
        b2:cc:b0:0a
-----BEGIN CERTIFICATE-----
MIIDWTCCAkGgAwIBAgIQc5w9muYf9B98GWxOUnHhcTANBgkqhkiG9w0BAQsFADAV
MRMwEQYDVQQDDAp0ZWFtNjYtbmV0MB4XDTIzMTEwNDExMjgzNloXDTI2MTAxOTEx
MjgzNlowGDEWMBQGA1UEAwwNdGVhbTY2LWNsaWVudDCCASIwDQYJKoZIhvcNAQEB
BQADggEPADCCAQoCggEBAJiTFZLRZykfIhUkZZBT2C14EX9YIa4ohL1IblNq/3N8
Pbu7BCqNuYIMVeANkRkTiyCswyvX036nMBSkiU5i6V1IeZKJkpeBwbwXB+WU3LpY
tIzPMGKM4encTQ+oJIx8fv9YZjcwEcGCj4C01BJUqpAn84QFh73omyPbuFSZw1Jw
fjvy7z79AH8qyDiRYrFL3+1jkhbp6j3+PDDTKvDMfArH4uZnaW1H44uZFW8E6yqv
shA5rhUDXOV1tG7vSmr0eqHiffuVaKYNfbtm1HthFO5EJqqMG8gtSiPP0+yj66Kr
NDaWYoTw9bv12NMPzpHDRYDGNVw+WkKQ40UnSeGIns8CAwEAAaOBoTCBnjAJBgNV
HRMEAjAAMB0GA1UdDgQWBBTMNduhorga4NDKSjm4EJBTLbxV8jBQBgNVHSMESTBH
gBS5KfsXsuFSl0F5D1O2TYJRZzpgOaEZpBcwFTETMBEGA1UEAwwKdGVhbTY2LW5l
dIIUETAJf/3a2kibKwoeU/oR16AIOhQwEwYDVR0lBAwwCgYIKwYBBQUHAwIwCwYD
VR0PBAQDAgeAMA0GCSqGSIb3DQEBCwUAA4IBAQCtVIxkal6DPxolo5rLhkEISBQn
4QWa8SNuCwBf+j0shzS8VdivG8us8Vc5Fe/Cd9JzrX0C+wqSR26tvxB/jyBZLGsF
n98Uxrp4HiT1YTmyhsqDbms9gGyFd3lCJWUj99Yzn5jlHduryeFJPu7oEuNhBwz8
aTNUHK/yfNm7VuoDZtGUznjpX/lHFQPgSmayQEhAKC9XG3UwdXlQN64LPV28RZpz
9jJUZvxlXKkWAc5jgyAsMkvhAKhRDQ1YLJcVM8p3GzrEGTgWyBggZq+1TfKh9ywo
zJZIgJTQN/rxb5EHJb7lMSUQhPkcIteVZhrBMAjJHHFUw+vE1C6ooW2yzLAK
-----END CERTIFICATE-----
