Certificate:
    Data:
        Version: 3 (0x2)
        Serial Number:
            d4:09:3b:10:5e:81:ec:a5:bc:d2:a1:65:97:a1:d8:bf
        Signature Algorithm: sha256WithRSAEncryption
        Issuer: CN=team66-net
        Validity
            Not Before: Nov  4 10:41:33 2023 GMT
            Not After : Oct 19 10:41:33 2026 GMT
        Subject: CN=team66-server
        Subject Public Key Info:
            Public Key Algorithm: rsaEncryption
                Public-Key: (2048 bit)
                Modulus:
                    00:b3:48:25:7b:bb:ad:56:4b:8b:ed:48:1d:e8:d4:
                    50:d1:57:4c:23:27:97:98:d7:5f:ed:76:ab:1d:45:
                    fd:ed:59:9a:5f:5f:34:39:9b:a7:7f:f7:65:d7:08:
                    ad:65:73:2e:85:63:3e:0e:e2:29:36:3f:12:6a:b5:
                    6c:2e:99:48:2c:6f:30:10:b5:b5:d0:59:37:25:80:
                    93:32:3b:cc:da:fc:89:c6:e0:9d:fa:a0:a6:b9:96:
                    ed:f8:65:7c:05:b4:3e:8a:5a:65:0a:25:ab:01:5a:
                    a3:6b:de:c3:cd:46:77:82:a9:19:ec:8c:4d:bf:15:
                    0d:6d:8f:13:86:7b:84:ac:53:ac:bb:13:65:ab:e0:
                    31:69:4e:16:44:e8:1c:aa:07:00:18:db:e0:92:41:
                    6c:8c:4e:3a:b5:69:7f:ec:88:34:c5:0c:41:7d:7f:
                    0e:33:04:41:cf:a7:85:2f:bb:4b:80:88:fb:4a:d9:
                    f7:36:d8:b5:a2:3f:d7:71:b5:86:fd:be:08:36:07:
                    f2:9e:1d:b8:9d:61:66:16:75:93:6c:3f:62:c1:c8:
                    0c:d7:64:fd:e4:ef:a3:f6:93:b7:3f:ac:b3:74:2c:
                    e3:17:42:5f:f7:de:5f:33:dd:1f:1e:e5:10:7c:b3:
                    7f:78:14:0a:a4:da:71:95:7c:17:60:c2:d0:28:2c:
                    b0:eb
                Exponent: 65537 (0x10001)
        X509v3 extensions:
            X509v3 Basic Constraints: 
                CA:FALSE
            X509v3 Subject Key Identifier: 
                9E:61:06:93:15:53:21:19:49:A9:FE:60:0D:97:37:A3:94:1E:24:49
            X509v3 Authority Key Identifier: 
                keyid:36:80:A9:BA:8B:26:85:98:6F:EF:4B:54:43:D4:8A:71:9F:CC:AF:38
                DirName:/CN=team66-net
                serial:75:3C:33:C4:F6:E3:09:A6:47:22:26:3E:7C:AD:2E:A0:04:5F:33:12
            X509v3 Extended Key Usage: 
                TLS Web Server Authentication
            X509v3 Key Usage: 
                Digital Signature, Key Encipherment
            X509v3 Subject Alternative Name: 
                DNS:team66-server
    Signature Algorithm: sha256WithRSAEncryption
    Signature Value:
        5a:92:45:65:cf:1a:06:5e:7a:18:75:3c:d5:5a:92:a5:4e:be:
        d7:11:95:0f:ba:f3:1d:fc:05:25:55:7b:8f:e4:cb:83:fa:b8:
        59:7c:39:f1:61:cf:b9:b6:14:0b:78:14:49:95:38:c3:36:68:
        01:ec:e5:de:22:e2:02:41:4c:8d:64:4d:37:97:8c:42:e4:ca:
        65:f1:fa:69:e4:ce:00:63:3d:44:b5:b5:1b:72:03:b6:84:f6:
        01:c0:fb:97:c4:29:9d:2a:e7:9f:30:04:4e:96:fd:5d:32:b3:
        87:05:2b:90:80:76:4d:d1:7f:96:4b:60:b6:a3:22:75:4a:e8:
        eb:7c:c8:97:37:4a:a8:01:d0:1a:af:bf:3a:8a:21:c6:b9:e1:
        7c:9f:02:a5:80:2c:e7:43:ca:e2:8d:64:1b:b0:95:0e:71:60:
        c3:f2:af:d1:58:a9:eb:47:02:a3:9d:ce:3d:9c:05:6b:77:fd:
        6b:2d:74:2e:37:78:12:e4:39:37:42:46:27:78:cf:b4:0e:3c:
        47:56:78:be:df:aa:16:f0:da:b1:0e:8d:f1:e3:c1:99:66:60:
        3c:de:f9:81:88:3c:03:28:86:12:5f:d0:57:19:00:37:c1:01:
        ec:f4:96:2e:fd:16:a9:b2:8e:d1:6b:47:9a:03:2a:c0:9f:ba:
        21:2b:9e:5a
-----BEGIN CERTIFICATE-----
MIIDdDCCAlygAwIBAgIRANQJOxBegeylvNKhZZeh2L8wDQYJKoZIhvcNAQELBQAw
FTETMBEGA1UEAwwKdGVhbTY2LW5ldDAeFw0yMzExMDQxMDQxMzNaFw0yNjEwMTkx
MDQxMzNaMBgxFjAUBgNVBAMMDXRlYW02Ni1zZXJ2ZXIwggEiMA0GCSqGSIb3DQEB
AQUAA4IBDwAwggEKAoIBAQCzSCV7u61WS4vtSB3o1FDRV0wjJ5eY11/tdqsdRf3t
WZpfXzQ5m6d/92XXCK1lcy6FYz4O4ik2PxJqtWwumUgsbzAQtbXQWTclgJMyO8za
/InG4J36oKa5lu34ZXwFtD6KWmUKJasBWqNr3sPNRneCqRnsjE2/FQ1tjxOGe4Ss
U6y7E2Wr4DFpThZE6ByqBwAY2+CSQWyMTjq1aX/siDTFDEF9fw4zBEHPp4Uvu0uA
iPtK2fc22LWiP9dxtYb9vgg2B/KeHbidYWYWdZNsP2LByAzXZP3k76P2k7c/rLN0
LOMXQl/33l8z3R8e5RB8s394FAqk2nGVfBdgwtAoLLDrAgMBAAGjgbswgbgwCQYD
VR0TBAIwADAdBgNVHQ4EFgQUnmEGkxVTIRlJqf5gDZc3o5QeJEkwUAYDVR0jBEkw
R4AUNoCpuosmhZhv70tUQ9SKcZ/MrzihGaQXMBUxEzARBgNVBAMMCnRlYW02Ni1u
ZXSCFHU8M8T24wmmRyImPnytLqAEXzMSMBMGA1UdJQQMMAoGCCsGAQUFBwMBMAsG
A1UdDwQEAwIFoDAYBgNVHREEETAPgg10ZWFtNjYtc2VydmVyMA0GCSqGSIb3DQEB
CwUAA4IBAQBakkVlzxoGXnoYdTzVWpKlTr7XEZUPuvMd/AUlVXuP5MuD+rhZfDnx
Yc+5thQLeBRJlTjDNmgB7OXeIuICQUyNZE03l4xC5Mpl8fpp5M4AYz1EtbUbcgO2
hPYBwPuXxCmdKuefMAROlv1dMrOHBSuQgHZN0X+WS2C2oyJ1SujrfMiXN0qoAdAa
r786iiHGueF8nwKlgCznQ8rijWQbsJUOcWDD8q/RWKnrRwKjnc49nAVrd/1rLXQu
N3gS5Dk3QkYneM+0DjxHVni+36oW8NqxDo3x48GZZmA83vmBiDwDKIYSX9BXGQA3
wQHs9JYu/Rapso7Ra0eaAyrAn7ohK55a
-----END CERTIFICATE-----
