Certificate:
    Data:
        Version: 3 (0x2)
        Serial Number:
            c0:9d:29:97:86:2c:dd:bc:12:5b:69:80:72:f3:bb:52
        Signature Algorithm: sha256WithRSAEncryption
        Issuer: CN=team321-net
        Validity
            Not Before: Nov  4 10:46:29 2023 GMT
            Not After : Oct 19 10:46:29 2026 GMT
        Subject: CN=team321-client
        Subject Public Key Info:
            Public Key Algorithm: rsaEncryption
                Public-Key: (2048 bit)
                Modulus:
                    00:bf:62:7d:05:6e:3a:f3:00:c7:46:74:de:f9:bb:
                    f7:3d:96:17:3d:d9:72:fe:af:b9:99:47:d0:39:ae:
                    ad:4b:fe:b6:8d:3b:09:97:ef:9c:97:e5:19:35:fd:
                    90:97:22:0c:7c:38:d7:24:e5:9b:2b:1b:97:20:5e:
                    5e:fb:59:37:ab:1a:ba:0e:98:33:5b:08:08:7c:52:
                    2d:7c:08:5b:ff:92:99:99:81:8e:fc:14:14:25:44:
                    f1:91:46:b9:71:ed:3c:f5:c2:1a:35:7a:7b:2f:34:
                    11:41:69:38:a4:ff:6f:d7:1e:5a:7f:9c:5f:1d:8b:
                    af:25:64:9d:5c:38:11:67:bc:44:e1:df:89:e8:6d:
                    4c:f3:c2:b2:2a:b7:d1:d1:de:35:25:2b:fd:b2:e9:
                    4c:ec:69:63:f7:2d:f2:1a:6e:e8:54:26:dc:43:a9:
                    b6:a6:2b:2b:f1:1a:27:69:74:9d:6c:93:18:40:2d:
                    d4:4e:fc:b9:2f:e6:0e:06:ed:42:c2:d1:0e:b6:3c:
                    3a:0b:37:1e:4f:88:23:fd:b7:4d:46:c5:4d:2e:8c:
                    1a:e0:d4:e4:da:3d:8d:f8:81:73:bd:0e:b6:c9:77:
                    99:ca:02:d5:cf:86:f7:4c:15:b3:ab:8c:91:f7:fa:
                    1b:4d:7f:60:2f:1a:a4:6c:41:f6:e1:3a:1f:c4:ab:
                    90:bd
                Exponent: 65537 (0x10001)
        X509v3 extensions:
            X509v3 Basic Constraints: 
                CA:FALSE
            X509v3 Subject Key Identifier: 
                02:63:AB:03:D5:2F:55:4E:12:CD:BE:58:FF:96:70:B4:AC:5B:7A:F2
            X509v3 Authority Key Identifier: 
                keyid:09:8A:EB:A1:DB:98:8A:FC:70:D4:72:4F:2A:8C:54:59:1D:39:69:B5
                DirName:/CN=team321-net
                serial:75:4F:C4:F4:11:2C:09:33:08:30:6E:5A:16:B3:50:11:09:44:8E:FE
            X509v3 Extended Key Usage: 
                TLS Web Client Authentication
            X509v3 Key Usage: 
                Digital Signature
    Signature Algorithm: sha256WithRSAEncryption
    Signature Value:
        89:6f:80:7b:03:e9:51:29:72:ca:10:8a:d7:be:7f:76:64:25:
        c6:96:0c:b2:07:62:75:eb:7f:0d:a2:c9:0e:36:d5:16:a5:f0:
        74:85:10:f7:28:e1:40:ba:4f:e1:a2:4c:ec:a5:af:45:b5:32:
        7c:ac:91:d2:34:7f:26:32:81:c2:20:60:74:39:fa:d4:22:d7:
        f4:75:91:ee:63:e2:37:5d:1e:b9:b8:59:ce:7d:5c:ab:03:01:
        34:18:d8:b2:77:61:4a:92:36:6c:3e:9b:d0:ff:48:c2:34:19:
        0a:5b:6a:5a:fc:90:9e:14:83:b7:b2:e1:61:44:9d:64:d5:2a:
        02:61:a3:75:1d:0f:dc:62:75:04:1b:45:cb:3f:f6:68:41:9c:
        72:10:2b:34:97:d6:53:7f:13:f2:73:b7:ac:6c:21:01:8c:98:
        f8:d4:b7:5c:05:5c:19:89:85:e9:30:19:a4:bf:d7:a0:3a:58:
        84:36:af:22:b1:18:f3:33:54:de:85:c2:3a:30:a4:6f:a4:c0:
        2c:90:59:a7:26:5d:7a:6f:0c:cd:7a:79:58:d3:01:63:2b:66:
        4a:dc:fb:75:56:5d:d0:85:7c:59:21:ff:1b:62:a5:e6:84:10:
        b3:01:1e:78:df:3b:28:1d:1a:6f:05:42:ac:12:cb:46:ba:89:
        89:89:75:d1
-----BEGIN CERTIFICATE-----
MIIDXTCCAkWgAwIBAgIRAMCdKZeGLN28EltpgHLzu1IwDQYJKoZIhvcNAQELBQAw
FjEUMBIGA1UEAwwLdGVhbTMyMS1uZXQwHhcNMjMxMTA0MTA0NjI5WhcNMjYxMDE5
MTA0NjI5WjAZMRcwFQYDVQQDDA50ZWFtMzIxLWNsaWVudDCCASIwDQYJKoZIhvcN
AQEBBQADggEPADCCAQoCggEBAL9ifQVuOvMAx0Z03vm79z2WFz3Zcv6vuZlH0Dmu
rUv+to07CZfvnJflGTX9kJciDHw41yTlmysblyBeXvtZN6saug6YM1sICHxSLXwI
W/+SmZmBjvwUFCVE8ZFGuXHtPPXCGjV6ey80EUFpOKT/b9ceWn+cXx2LryVknVw4
EWe8ROHfiehtTPPCsiq30dHeNSUr/bLpTOxpY/ct8hpu6FQm3EOptqYrK/EaJ2l0
nWyTGEAt1E78uS/mDgbtQsLRDrY8Ogs3Hk+II/23TUbFTS6MGuDU5No9jfiBc70O
tsl3mcoC1c+G90wVs6uMkff6G01/YC8apGxB9uE6H8SrkL0CAwEAAaOBojCBnzAJ
BgNVHRMEAjAAMB0GA1UdDgQWBBQCY6sD1S9VThLNvlj/lnC0rFt68jBRBgNVHSME
SjBIgBQJiuuh25iK/HDUck8qjFRZHTlptaEapBgwFjEUMBIGA1UEAwwLdGVhbTMy
MS1uZXSCFHVPxPQRLAkzCDBuWhazUBEJRI7+MBMGA1UdJQQMMAoGCCsGAQUFBwMC
MAsGA1UdDwQEAwIHgDANBgkqhkiG9w0BAQsFAAOCAQEAiW+AewPpUSlyyhCK175/
dmQlxpYMsgdidet/DaLJDjbVFqXwdIUQ9yjhQLpP4aJM7KWvRbUyfKyR0jR/JjKB
wiBgdDn61CLX9HWR7mPiN10eubhZzn1cqwMBNBjYsndhSpI2bD6b0P9IwjQZCltq
WvyQnhSDt7LhYUSdZNUqAmGjdR0P3GJ1BBtFyz/2aEGcchArNJfWU38T8nO3rGwh
AYyY+NS3XAVcGYmF6TAZpL/XoDpYhDavIrEY8zNU3oXCOjCkb6TALJBZpyZdem8M
zXp5WNMBYytmStz7dVZd0IV8WSH/G2Kl5oQQswEeeN87KB0abwVCrBLLRrqJiYl1
0Q==
-----END CERTIFICATE-----
