Certificate:
    Data:
        Version: 3 (0x2)
        Serial Number:
            af:aa:b3:bb:79:5d:08:66:6f:45:d8:8a:f4:68:a4:db
        Signature Algorithm: sha256WithRSAEncryption
        Issuer: CN=team412-net
        Validity
            Not Before: Nov  3 20:46:42 2023 GMT
            Not After : Oct 18 20:46:42 2026 GMT
        Subject: CN=team412-client
        Subject Public Key Info:
            Public Key Algorithm: rsaEncryption
                Public-Key: (2048 bit)
                Modulus:
                    00:95:04:32:26:a8:dd:f2:e9:72:d6:85:f6:c6:a8:
                    f3:1d:3a:c0:4b:d0:cb:a7:b1:5a:11:c5:1d:14:09:
                    d3:ef:d3:67:14:2e:c2:07:21:24:62:c5:ee:05:5a:
                    47:03:a6:14:2f:70:77:de:ce:1f:03:8f:eb:e7:c1:
                    70:4b:bb:8f:54:44:71:c5:63:61:ca:bf:8e:a1:0b:
                    df:68:a0:4e:18:69:3e:f1:4f:2f:4c:93:eb:40:b6:
                    5f:af:16:11:4a:73:d5:c7:73:4b:18:2e:10:df:61:
                    b0:5b:1f:f0:e6:31:13:2c:c0:17:17:fd:3e:28:44:
                    8a:a2:a7:c9:bd:84:55:59:c8:55:f4:04:b4:ce:4c:
                    ea:c1:99:d6:c0:ef:a7:d9:9d:63:9b:8d:f9:14:4e:
                    f0:e0:01:3b:60:3d:e9:52:7b:8c:3a:45:96:de:7f:
                    49:30:2c:7e:b0:64:c5:0c:3d:ce:9f:d8:bb:27:54:
                    19:31:4d:24:d9:aa:32:0e:00:d7:2f:3e:56:fd:8e:
                    9a:86:2a:fd:22:7a:f3:b9:3e:31:28:a9:29:c5:aa:
                    12:c9:bd:ca:dd:d6:71:16:5d:59:a7:0c:b0:d4:87:
                    94:da:64:3b:f6:33:1f:d8:7e:a7:6d:b7:b5:ec:08:
                    0f:2d:a7:63:17:b1:e0:b9:a0:0d:23:37:94:e5:39:
                    7e:f1
                Exponent: 65537 (0x10001)
        X509v3 extensions:
            X509v3 Basic Constraints: 
                CA:FALSE
            X509v3 Subject Key Identifier: 
                E7:73:9E:D8:F3:BF:FB:82:14:51:65:2D:51:FF:A0:44:82:AE:99:71
            X509v3 Authority Key Identifier: 
                keyid:02:7D:76:B6:2D:3D:21:A6:68:A0:AA:4A:70:AC:1F:8B:4F:A0:68:D7
                DirName:/CN=team412-net
                serial:6A:7E:47:1A:F8:A6:0E:7C:A4:8E:2E:AC:0E:9C:95:2E:BC:1C:66:C8
            X509v3 Extended Key Usage: 
                TLS Web Client Authentication
            X509v3 Key Usage: 
                Digital Signature
    Signature Algorithm: sha256WithRSAEncryption
    Signature Value:
        46:82:13:2d:ab:d6:4f:55:99:c2:8e:42:1b:ff:ab:63:f6:06:
        58:ea:05:05:bd:08:f1:cb:30:4c:05:0a:fd:2d:df:60:20:35:
        52:bc:2d:3b:4e:ae:1a:80:5e:60:1d:8b:6b:bc:0f:d2:77:92:
        0c:cb:00:78:b8:cf:fa:31:17:4e:f0:03:9a:6a:75:b6:90:37:
        40:96:32:f9:ee:55:46:b1:4a:61:5c:aa:88:3a:b8:ff:a5:f5:
        f5:09:91:08:4b:4c:3c:3d:63:1f:5c:c7:97:a8:12:24:e6:72:
        32:bc:ae:b7:9c:dc:24:ec:ec:32:49:ad:32:d9:5d:53:87:d3:
        62:48:70:39:5a:8f:7c:26:20:96:f9:6f:c1:05:26:3d:51:36:
        2f:8d:7a:f9:c6:f3:b3:3d:6b:5f:55:67:44:06:06:28:cc:e6:
        05:07:06:a4:ad:74:72:de:78:ae:e5:86:d6:3f:fe:42:fb:2f:
        4d:b7:e2:6b:11:61:21:b0:c8:99:ce:c6:55:29:91:50:81:c0:
        bf:46:15:2c:70:3e:67:13:98:8c:cd:b1:2a:dd:fd:5f:cb:f1:
        45:93:5c:19:96:7e:94:3b:4a:7b:a7:ed:28:fc:38:90:25:95:
        b7:a9:6f:b2:65:06:f2:0c:27:73:ce:99:99:5d:e7:3c:19:44:
        1f:d0:bd:63
-----BEGIN CERTIFICATE-----
MIIDXTCCAkWgAwIBAgIRAK+qs7t5XQhmb0XYivRopNswDQYJKoZIhvcNAQELBQAw
FjEUMBIGA1UEAwwLdGVhbTQxMi1uZXQwHhcNMjMxMTAzMjA0NjQyWhcNMjYxMDE4
MjA0NjQyWjAZMRcwFQYDVQQDDA50ZWFtNDEyLWNsaWVudDCCASIwDQYJKoZIhvcN
AQEBBQADggEPADCCAQoCggEBAJUEMiao3fLpctaF9sao8x06wEvQy6exWhHFHRQJ
0+/TZxQuwgchJGLF7gVaRwOmFC9wd97OHwOP6+fBcEu7j1REccVjYcq/jqEL32ig
ThhpPvFPL0yT60C2X68WEUpz1cdzSxguEN9hsFsf8OYxEyzAFxf9PihEiqKnyb2E
VVnIVfQEtM5M6sGZ1sDvp9mdY5uN+RRO8OABO2A96VJ7jDpFlt5/STAsfrBkxQw9
zp/YuydUGTFNJNmqMg4A1y8+Vv2OmoYq/SJ687k+MSipKcWqEsm9yt3WcRZdWacM
sNSHlNpkO/YzH9h+p223tewIDy2nYxex4LmgDSM3lOU5fvECAwEAAaOBojCBnzAJ
BgNVHRMEAjAAMB0GA1UdDgQWBBTnc57Y87/7ghRRZS1R/6BEgq6ZcTBRBgNVHSME
SjBIgBQCfXa2LT0hpmigqkpwrB+LT6Bo16EapBgwFjEUMBIGA1UEAwwLdGVhbTQx
Mi1uZXSCFGp+Rxr4pg58pI4urA6clS68HGbIMBMGA1UdJQQMMAoGCCsGAQUFBwMC
MAsGA1UdDwQEAwIHgDANBgkqhkiG9w0BAQsFAAOCAQEARoITLavWT1WZwo5CG/+r
Y/YGWOoFBb0I8cswTAUK/S3fYCA1UrwtO06uGoBeYB2La7wP0neSDMsAeLjP+jEX
TvADmmp1tpA3QJYy+e5VRrFKYVyqiDq4/6X19QmRCEtMPD1jH1zHl6gSJOZyMryu
t5zcJOzsMkmtMtldU4fTYkhwOVqPfCYglvlvwQUmPVE2L416+cbzsz1rX1VnRAYG
KMzmBQcGpK10ct54ruWG1j/+QvsvTbfiaxFhIbDImc7GVSmRUIHAv0YVLHA+ZxOY
jM2xKt39X8vxRZNcGZZ+lDtKe6ftKPw4kCWVt6lvsmUG8gwnc86ZmV3nPBlEH9C9
Yw==
-----END CERTIFICATE-----
