Certificate:
    Data:
        Version: 3 (0x2)
        Serial Number:
            3f:66:04:91:ef:90:09:56:f3:54:cb:51:98:57:9d:bb
        Signature Algorithm: sha256WithRSAEncryption
        Issuer: CN=team245-net
        Validity
            Not Before: Nov  4 11:32:26 2023 GMT
            Not After : Oct 19 11:32:26 2026 GMT
        Subject: CN=team245-client
        Subject Public Key Info:
            Public Key Algorithm: rsaEncryption
                Public-Key: (2048 bit)
                Modulus:
                    00:bd:4f:c7:2c:a3:7f:f9:fa:6d:60:fe:b1:20:ea:
                    c6:8c:c6:bc:8a:3c:ef:5e:b8:13:be:4a:54:bf:0d:
                    74:0d:31:b4:0f:93:7d:d6:26:45:09:b3:8c:6f:58:
                    c0:57:11:b6:4a:7d:24:51:b4:87:39:a1:1d:10:f4:
                    d3:73:e1:8a:6f:26:d2:af:44:bc:e9:45:73:05:3b:
                    71:b7:47:cf:42:b6:b2:e6:1a:d1:1c:af:78:bd:bb:
                    ff:fa:3e:e7:d6:a9:54:51:bb:66:61:2f:87:15:66:
                    47:e5:8c:a2:48:19:09:62:b8:7b:f2:f9:04:4e:77:
                    de:54:43:76:65:bd:53:77:3c:fe:f3:43:fd:1f:fd:
                    3e:2b:1d:1b:8f:9d:0b:e9:94:3f:55:57:9e:63:41:
                    be:32:d7:d5:0b:44:2f:f5:73:29:31:dd:a8:61:d8:
                    43:d5:fc:e8:bb:f0:bb:4c:80:37:d3:5c:93:45:44:
                    a4:ca:f9:46:72:f1:06:30:84:2f:8f:f0:59:b8:fc:
                    54:5e:55:c8:49:67:b3:31:2e:65:8c:1d:e7:1b:61:
                    a7:7d:d5:a7:d8:8b:e5:7f:f4:ab:11:10:ea:df:15:
                    64:43:f2:4e:55:df:ca:a5:73:30:22:f8:eb:51:60:
                    6b:49:33:5e:77:2b:1a:13:21:fc:17:50:6a:69:f2:
                    b2:27
                Exponent: 65537 (0x10001)
        X509v3 extensions:
            X509v3 Basic Constraints: 
                CA:FALSE
            X509v3 Subject Key Identifier: 
                66:1C:C1:0F:9E:AD:B4:0F:1B:9A:45:A1:2C:38:9F:6B:BC:72:9C:69
            X509v3 Authority Key Identifier: 
                keyid:A2:D0:D0:17:29:CA:DF:50:2F:B1:96:CD:B1:0A:74:F3:7C:82:A2:10
                DirName:/CN=team245-net
                serial:17:B4:D5:08:BD:6F:DF:11:2A:90:98:6E:09:2B:D2:ED:48:5E:93:F1
            X509v3 Extended Key Usage: 
                TLS Web Client Authentication
            X509v3 Key Usage: 
                Digital Signature
    Signature Algorithm: sha256WithRSAEncryption
    Signature Value:
        0a:7b:fd:84:4a:93:eb:f6:95:81:49:35:48:b4:73:17:59:3a:
        cb:cb:88:23:ed:29:4c:7c:a4:c1:34:8d:dd:6c:e0:e2:6e:bc:
        e9:2b:cd:ea:a5:f5:a8:02:a1:0a:2c:1c:5b:a7:21:62:e8:fb:
        67:22:60:71:54:bf:c8:c1:5d:73:43:6d:a2:aa:53:27:8f:93:
        c9:70:3b:79:08:04:c0:14:db:40:d3:61:9b:ac:20:7f:73:b6:
        b4:5c:ad:bd:f6:23:60:e7:76:5e:37:04:4e:14:d6:c1:80:15:
        c7:fd:0a:ce:de:cf:04:64:d5:4b:66:da:ba:b2:66:bd:62:7a:
        28:b0:07:85:72:4c:c2:c2:86:5b:d3:09:33:e6:c8:21:91:e0:
        59:4c:83:11:3e:be:d2:fb:62:41:1b:c9:d3:8b:c3:0e:6d:55:
        36:13:ff:eb:d1:14:3d:4c:3b:3e:7f:76:03:42:b1:26:70:de:
        aa:69:81:a1:56:98:a9:2a:69:0d:25:f3:9c:82:45:cb:76:26:
        e7:9a:54:a0:5b:1e:71:ac:4c:ac:05:76:42:7d:2c:82:4d:fa:
        1f:e9:fe:7d:b5:41:80:8c:45:bb:c1:30:43:7e:04:1f:c2:51:
        45:cf:52:35:49:e5:54:46:03:31:60:40:ec:d5:d3:01:97:57:
        1e:d4:f7:90
-----BEGIN CERTIFICATE-----
MIIDXDCCAkSgAwIBAgIQP2YEke+QCVbzVMtRmFeduzANBgkqhkiG9w0BAQsFADAW
MRQwEgYDVQQDDAt0ZWFtMjQ1LW5ldDAeFw0yMzExMDQxMTMyMjZaFw0yNjEwMTkx
MTMyMjZaMBkxFzAVBgNVBAMMDnRlYW0yNDUtY2xpZW50MIIBIjANBgkqhkiG9w0B
AQEFAAOCAQ8AMIIBCgKCAQEAvU/HLKN/+fptYP6xIOrGjMa8ijzvXrgTvkpUvw10
DTG0D5N91iZFCbOMb1jAVxG2Sn0kUbSHOaEdEPTTc+GKbybSr0S86UVzBTtxt0fP
Qray5hrRHK94vbv/+j7n1qlUUbtmYS+HFWZH5YyiSBkJYrh78vkETnfeVEN2Zb1T
dzz+80P9H/0+Kx0bj50L6ZQ/VVeeY0G+MtfVC0Qv9XMpMd2oYdhD1fzou/C7TIA3
01yTRUSkyvlGcvEGMIQvj/BZuPxUXlXISWezMS5ljB3nG2GnfdWn2Ivlf/SrERDq
3xVkQ/JOVd/KpXMwIvjrUWBrSTNedysaEyH8F1BqafKyJwIDAQABo4GiMIGfMAkG
A1UdEwQCMAAwHQYDVR0OBBYEFGYcwQ+erbQPG5pFoSw4n2u8cpxpMFEGA1UdIwRK
MEiAFKLQ0Bcpyt9QL7GWzbEKdPN8gqIQoRqkGDAWMRQwEgYDVQQDDAt0ZWFtMjQ1
LW5ldIIUF7TVCL1v3xEqkJhuCSvS7Uhek/EwEwYDVR0lBAwwCgYIKwYBBQUHAwIw
CwYDVR0PBAQDAgeAMA0GCSqGSIb3DQEBCwUAA4IBAQAKe/2ESpPr9pWBSTVItHMX
WTrLy4gj7SlMfKTBNI3dbODibrzpK83qpfWoAqEKLBxbpyFi6PtnImBxVL/IwV1z
Q22iqlMnj5PJcDt5CATAFNtA02GbrCB/c7a0XK299iNg53ZeNwROFNbBgBXH/QrO
3s8EZNVLZtq6sma9YnoosAeFckzCwoZb0wkz5sghkeBZTIMRPr7S+2JBG8nTi8MO
bVU2E//r0RQ9TDs+f3YDQrEmcN6qaYGhVpipKmkNJfOcgkXLdibnmlSgWx5xrEys
BXZCfSyCTfof6f59tUGAjEW7wTBDfgQfwlFFz1I1SeVURgMxYEDs1dMBl1ce1PeQ
-----END CERTIFICATE-----
