Certificate:
    Data:
        Version: 3 (0x2)
        Serial Number:
            a5:6c:10:f9:2f:d5:6c:6a:56:74:34:8c:a7:7e:e7:64
        Signature Algorithm: sha256WithRSAEncryption
        Issuer: CN=team245-net
        Validity
            Not Before: Nov  4 10:45:13 2023 GMT
            Not After : Oct 19 10:45:13 2026 GMT
        Subject: CN=team245-server
        Subject Public Key Info:
            Public Key Algorithm: rsaEncryption
                Public-Key: (2048 bit)
                Modulus:
                    00:c6:96:da:a8:f3:72:ff:dc:ee:82:07:ed:e0:b9:
                    ef:8b:9f:82:fd:87:1e:bf:9b:f3:a3:c5:ea:95:f4:
                    e1:b0:a1:32:85:fa:56:76:6e:f2:13:03:45:62:3a:
                    4f:5d:d6:08:93:aa:4e:bd:2d:14:0e:d3:10:2b:a1:
                    3d:a3:12:a3:0e:7b:7f:2c:0e:16:b4:67:8c:c5:0f:
                    3d:3e:cd:43:86:a9:48:84:c4:a2:6e:0a:2a:f9:c5:
                    a5:02:ba:9d:2e:18:b5:45:9c:4a:4f:7f:28:55:43:
                    b5:50:7f:19:b5:25:f1:69:34:ee:6f:97:79:a0:f8:
                    90:5a:dc:2d:77:00:7a:2d:43:41:f2:93:9f:af:09:
                    cb:84:db:7b:b6:fa:ee:05:73:ea:cd:c9:05:45:fd:
                    ba:a8:de:a9:a0:5f:0a:3f:a0:17:b4:0f:93:34:9a:
                    6c:20:90:b9:d4:bc:70:a3:57:b6:a6:e7:75:e1:87:
                    5a:9d:20:0a:41:b3:db:5e:4a:8d:9a:f4:e0:73:6e:
                    2f:ee:e7:87:8e:e3:28:90:b0:91:07:f6:79:77:8e:
                    b2:f0:05:1e:cc:b6:65:5f:44:d5:83:75:87:8e:6c:
                    61:c4:10:2d:06:78:97:de:1c:59:7e:73:48:1d:b0:
                    06:b0:ea:55:83:10:bc:3b:a7:81:07:52:5f:12:4d:
                    f8:89
                Exponent: 65537 (0x10001)
        X509v3 extensions:
            X509v3 Basic Constraints: 
                CA:FALSE
            X509v3 Subject Key Identifier: 
                0D:1B:6F:38:82:1A:D3:D2:AE:9F:9C:D1:9B:45:62:3A:21:1A:6B:16
            X509v3 Authority Key Identifier: 
                keyid:82:76:71:08:20:D6:E5:A7:4D:4B:06:4E:08:39:CE:57:F9:00:F8:9A
                DirName:/CN=team245-net
                serial:17:DD:CC:BC:91:BC:AC:6F:24:1D:9C:03:98:4F:93:4A:39:7A:CE:E6
            X509v3 Extended Key Usage: 
                TLS Web Server Authentication
            X509v3 Key Usage: 
                Digital Signature, Key Encipherment
            X509v3 Subject Alternative Name: 
                DNS:team245-server
    Signature Algorithm: sha256WithRSAEncryption
    Signature Value:
        85:62:27:20:6d:32:55:e8:b2:a1:c7:8c:6f:5a:31:d6:41:39:
        43:0a:91:3d:08:d3:0c:63:16:b9:42:83:ca:17:44:db:f5:56:
        57:3c:70:a5:af:a5:18:05:e7:3c:db:28:b5:63:11:d4:2e:b1:
        15:a8:80:dd:49:7b:26:ac:3d:7c:68:33:a7:44:88:bf:a8:d9:
        44:48:1f:de:26:92:44:20:61:bc:cb:2a:fe:63:7d:22:5b:26:
        2e:a2:60:c4:49:0b:30:37:2b:1f:21:83:b2:12:e7:50:1f:e5:
        01:00:63:f0:b2:96:7f:ab:73:32:a6:6a:e9:3d:f3:cb:34:ba:
        cc:f0:04:ea:18:91:bf:03:2f:6d:35:15:94:19:c5:17:d5:37:
        66:3c:89:fd:33:e1:2c:67:0a:39:df:69:bc:95:27:d2:f1:a3:
        ab:fd:17:f4:ab:86:d4:cf:db:39:ec:4f:e6:92:12:8b:8d:65:
        56:ca:e2:e3:96:7e:78:30:37:6a:f1:60:68:ea:0b:2e:54:08:
        3b:65:00:bb:20:79:93:17:33:70:0c:b3:55:d0:3d:6a:69:28:
        41:41:24:c2:fd:bd:96:27:89:c4:d5:45:04:ef:f5:64:ed:05:
        c4:5f:0b:20:3b:4d:aa:61:b8:f6:a5:de:83:06:41:15:26:be:
        f4:46:1b:19
-----BEGIN CERTIFICATE-----
MIIDeDCCAmCgAwIBAgIRAKVsEPkv1WxqVnQ0jKd+52QwDQYJKoZIhvcNAQELBQAw
FjEUMBIGA1UEAwwLdGVhbTI0NS1uZXQwHhcNMjMxMTA0MTA0NTEzWhcNMjYxMDE5
MTA0NTEzWjAZMRcwFQYDVQQDDA50ZWFtMjQ1LXNlcnZlcjCCASIwDQYJKoZIhvcN
AQEBBQADggEPADCCAQoCggEBAMaW2qjzcv/c7oIH7eC574ufgv2HHr+b86PF6pX0
4bChMoX6VnZu8hMDRWI6T13WCJOqTr0tFA7TECuhPaMSow57fywOFrRnjMUPPT7N
Q4apSITEom4KKvnFpQK6nS4YtUWcSk9/KFVDtVB/GbUl8Wk07m+XeaD4kFrcLXcA
ei1DQfKTn68Jy4Tbe7b67gVz6s3JBUX9uqjeqaBfCj+gF7QPkzSabCCQudS8cKNX
tqbndeGHWp0gCkGz215KjZr04HNuL+7nh47jKJCwkQf2eXeOsvAFHsy2ZV9E1YN1
h45sYcQQLQZ4l94cWX5zSB2wBrDqVYMQvDungQdSXxJN+IkCAwEAAaOBvTCBujAJ
BgNVHRMEAjAAMB0GA1UdDgQWBBQNG284ghrT0q6fnNGbRWI6IRprFjBRBgNVHSME
SjBIgBSCdnEIINblp01LBk4IOc5X+QD4mqEapBgwFjEUMBIGA1UEAwwLdGVhbTI0
NS1uZXSCFBfdzLyRvKxvJB2cA5hPk0o5es7mMBMGA1UdJQQMMAoGCCsGAQUFBwMB
MAsGA1UdDwQEAwIFoDAZBgNVHREEEjAQgg50ZWFtMjQ1LXNlcnZlcjANBgkqhkiG
9w0BAQsFAAOCAQEAhWInIG0yVeiyoceMb1ox1kE5QwqRPQjTDGMWuUKDyhdE2/VW
Vzxwpa+lGAXnPNsotWMR1C6xFaiA3Ul7Jqw9fGgzp0SIv6jZREgf3iaSRCBhvMsq
/mN9IlsmLqJgxEkLMDcrHyGDshLnUB/lAQBj8LKWf6tzMqZq6T3zyzS6zPAE6hiR
vwMvbTUVlBnFF9U3ZjyJ/TPhLGcKOd9pvJUn0vGjq/0X9KuG1M/bOexP5pISi41l
Vsri45Z+eDA3avFgaOoLLlQIO2UAuyB5kxczcAyzVdA9amkoQUEkwv29lieJxNVF
BO/1ZO0FxF8LIDtNqmG49qXegwZBFSa+9EYbGQ==
-----END CERTIFICATE-----
