Certificate:
    Data:
        Version: 3 (0x2)
        Serial Number:
            fb:1d:c4:3b:8c:bd:a4:b8:df:11:d0:18:53:e5:b3:e4
        Signature Algorithm: sha256WithRSAEncryption
        Issuer: CN=team245-net
        Validity
            Not Before: Nov  4 11:32:26 2023 GMT
            Not After : Oct 19 11:32:26 2026 GMT
        Subject: CN=team245-server
        Subject Public Key Info:
            Public Key Algorithm: rsaEncryption
                Public-Key: (2048 bit)
                Modulus:
                    00:f7:e2:b1:cb:98:f2:02:91:c4:5e:45:52:ad:13:
                    f2:2f:f7:4d:ad:3a:f6:59:8f:cc:cd:0d:0b:99:89:
                    ea:5d:78:24:ec:65:30:15:79:a5:02:c5:15:c4:b8:
                    ee:71:46:02:36:b7:3f:45:fd:ed:59:e7:1b:5c:75:
                    ae:33:75:61:6f:5f:59:85:b9:f3:b5:30:de:0b:d7:
                    58:c8:37:41:47:ba:f4:cb:3f:8c:8e:e1:a1:af:85:
                    37:36:ad:99:44:02:6a:8a:8c:9b:29:aa:d8:63:55:
                    00:fc:d4:c8:ae:1a:89:04:39:9e:3b:d8:5a:eb:89:
                    d3:20:4d:bb:ae:15:2a:56:82:bb:cd:e8:24:78:6f:
                    5c:9a:c9:44:29:bf:ed:36:82:1d:16:18:ed:b3:68:
                    81:1b:ee:e3:ef:09:18:c7:00:72:56:fa:fe:ea:71:
                    ba:db:9b:e9:96:89:36:f4:c0:f9:64:0d:ee:16:59:
                    44:88:94:72:38:c9:fa:9c:96:fb:ef:b6:8e:91:fe:
                    6b:68:98:61:00:94:9d:71:87:24:cf:7a:8c:56:a8:
                    90:aa:17:a5:37:03:50:c2:74:a7:7f:8a:b2:1e:70:
                    ca:16:d2:6e:f5:d9:02:04:52:e9:22:d5:1a:f6:a6:
                    3d:89:e8:df:02:5b:26:d4:8e:37:f7:56:0d:04:10:
                    3f:d5
                Exponent: 65537 (0x10001)
        X509v3 extensions:
            X509v3 Basic Constraints: 
                CA:FALSE
            X509v3 Subject Key Identifier: 
                85:02:5F:9F:65:6C:49:9D:52:78:5D:55:1E:F9:8B:6E:B3:6F:F5:58
            X509v3 Authority Key Identifier: 
                keyid:A2:D0:D0:17:29:CA:DF:50:2F:B1:96:CD:B1:0A:74:F3:7C:82:A2:10
                DirName:/CN=team245-net
                serial:17:B4:D5:08:BD:6F:DF:11:2A:90:98:6E:09:2B:D2:ED:48:5E:93:F1
            X509v3 Extended Key Usage: 
                TLS Web Server Authentication
            X509v3 Key Usage: 
                Digital Signature, Key Encipherment
            X509v3 Subject Alternative Name: 
                DNS:team245-server
    Signature Algorithm: sha256WithRSAEncryption
    Signature Value:
        a9:8b:8c:73:1b:3e:3a:37:22:88:c8:43:87:86:a8:76:9b:a1:
        6b:84:47:c8:6d:85:ec:c1:1b:dc:71:0d:3f:fa:ae:9f:fb:b9:
        14:b2:67:a3:35:d2:04:26:78:cc:1b:c6:c9:fd:c2:c4:ea:b1:
        10:e2:c5:c0:25:03:69:54:d9:b8:fd:2e:1b:6b:6b:46:fc:16:
        86:90:cf:2e:e6:d9:f1:50:36:73:5c:fb:fa:f8:79:0b:da:6c:
        e6:5a:d9:79:b0:42:08:2b:47:7d:b6:24:36:20:01:3e:1a:7c:
        cc:35:ed:bc:56:29:f1:07:88:24:dd:18:07:7b:6b:f4:64:5c:
        1a:05:e9:0a:65:1c:fa:54:cb:e0:70:3d:e2:1a:b4:40:07:8c:
        50:1c:ad:c3:19:d4:fd:ab:16:7d:bd:5b:0c:7b:5e:a3:7f:fa:
        2e:0f:dc:c0:ff:07:46:05:d6:5a:52:b7:51:98:ea:cf:af:40:
        3d:d4:fb:65:bf:ce:30:a9:c1:fa:d1:43:63:cd:87:42:3e:1b:
        80:ea:f7:a5:73:88:9e:9c:e4:56:e5:8b:89:5d:e9:7b:be:86:
        17:9f:e7:78:c3:7d:67:36:7d:71:e8:49:00:77:b7:d6:a4:19:
        a5:6f:32:3c:6c:6c:5f:03:2a:a0:19:a6:09:57:9d:cd:20:e1:
        ee:d7:6e:b0
-----BEGIN CERTIFICATE-----
MIIDeDCCAmCgAwIBAgIRAPsdxDuMvaS43xHQGFPls+QwDQYJKoZIhvcNAQELBQAw
FjEUMBIGA1UEAwwLdGVhbTI0NS1uZXQwHhcNMjMxMTA0MTEzMjI2WhcNMjYxMDE5
MTEzMjI2WjAZMRcwFQYDVQQDDA50ZWFtMjQ1LXNlcnZlcjCCASIwDQYJKoZIhvcN
AQEBBQADggEPADCCAQoCggEBAPfiscuY8gKRxF5FUq0T8i/3Ta069lmPzM0NC5mJ
6l14JOxlMBV5pQLFFcS47nFGAja3P0X97VnnG1x1rjN1YW9fWYW587Uw3gvXWMg3
QUe69Ms/jI7hoa+FNzatmUQCaoqMmymq2GNVAPzUyK4aiQQ5njvYWuuJ0yBNu64V
KlaCu83oJHhvXJrJRCm/7TaCHRYY7bNogRvu4+8JGMcAclb6/upxutub6ZaJNvTA
+WQN7hZZRIiUcjjJ+pyW+++2jpH+a2iYYQCUnXGHJM96jFaokKoXpTcDUMJ0p3+K
sh5wyhbSbvXZAgRS6SLVGvamPYno3wJbJtSON/dWDQQQP9UCAwEAAaOBvTCBujAJ
BgNVHRMEAjAAMB0GA1UdDgQWBBSFAl+fZWxJnVJ4XVUe+Ytus2/1WDBRBgNVHSME
SjBIgBSi0NAXKcrfUC+xls2xCnTzfIKiEKEapBgwFjEUMBIGA1UEAwwLdGVhbTI0
NS1uZXSCFBe01Qi9b98RKpCYbgkr0u1IXpPxMBMGA1UdJQQMMAoGCCsGAQUFBwMB
MAsGA1UdDwQEAwIFoDAZBgNVHREEEjAQgg50ZWFtMjQ1LXNlcnZlcjANBgkqhkiG
9w0BAQsFAAOCAQEAqYuMcxs+OjciiMhDh4aodpuha4RHyG2F7MEb3HENP/qun/u5
FLJnozXSBCZ4zBvGyf3CxOqxEOLFwCUDaVTZuP0uG2trRvwWhpDPLubZ8VA2c1z7
+vh5C9ps5lrZebBCCCtHfbYkNiABPhp8zDXtvFYp8QeIJN0YB3tr9GRcGgXpCmUc
+lTL4HA94hq0QAeMUBytwxnU/asWfb1bDHteo3/6Lg/cwP8HRgXWWlK3UZjqz69A
PdT7Zb/OMKnB+tFDY82HQj4bgOr3pXOInpzkVuWLiV3pe76GF5/neMN9ZzZ9cehJ
AHe31qQZpW8yPGxsXwMqoBmmCVedzSDh7tdusA==
-----END CERTIFICATE-----
