Certificate:
    Data:
        Version: 3 (0x2)
        Serial Number:
            51:1a:35:28:c9:15:3d:f0:74:65:dd:33:79:a0:b5:20
        Signature Algorithm: sha256WithRSAEncryption
        Issuer: CN=team206-net
        Validity
            Not Before: Nov  3 20:43:02 2023 GMT
            Not After : Oct 18 20:43:02 2026 GMT
        Subject: CN=team206-server
        Subject Public Key Info:
            Public Key Algorithm: rsaEncryption
                Public-Key: (2048 bit)
                Modulus:
                    00:a8:0e:c8:c0:fe:cd:33:ed:24:3c:51:61:e1:56:
                    84:29:c4:4a:6b:d2:dd:da:e2:06:c5:1f:ab:c0:07:
                    e5:1a:ca:a3:f1:10:63:4f:41:5d:ac:cd:22:c6:05:
                    e6:62:4b:3b:07:88:dc:f8:6e:17:64:44:47:9f:a7:
                    b9:ac:1e:db:15:10:8b:a1:ab:30:16:59:81:03:21:
                    f2:25:ef:af:0a:a5:11:28:92:94:e1:0f:e4:79:be:
                    ba:3e:a3:84:cb:80:22:08:2a:13:1b:8d:43:e6:af:
                    9a:27:a5:9f:29:17:60:9b:2d:1e:28:32:4b:6c:49:
                    4b:b5:0c:40:9d:a8:5f:88:c7:2b:48:cd:f3:d1:47:
                    e1:ff:80:33:fa:d6:08:40:5c:31:94:f8:08:80:33:
                    ae:cd:a5:7f:9e:22:57:68:08:03:09:0e:3f:81:b1:
                    00:74:05:e2:fb:8c:36:90:df:1a:e4:9e:f4:ca:f2:
                    00:f9:b2:6f:fe:e3:cb:0b:b4:d8:cd:c4:b3:20:fa:
                    40:b5:64:d5:d9:1e:d2:d2:61:ee:b9:7b:d9:95:12:
                    de:34:d9:ac:ff:e2:9a:e6:25:3e:9b:36:3c:c9:44:
                    c9:04:22:89:34:d8:56:d4:db:d5:d5:fd:39:90:93:
                    dc:c0:61:92:a9:c5:a6:a4:24:0c:7c:29:44:a0:e9:
                    d3:ad
                Exponent: 65537 (0x10001)
        X509v3 extensions:
            X509v3 Basic Constraints: 
                CA:FALSE
            X509v3 Subject Key Identifier: 
                6D:41:15:ED:94:C6:96:A8:CE:AA:B0:FB:1A:F9:E9:F4:73:54:17:82
            X509v3 Authority Key Identifier: 
                keyid:7B:75:E9:82:3F:2B:5F:1F:E7:15:8A:71:D4:7E:14:43:B1:AE:EF:68
                DirName:/CN=team206-net
                serial:32:E1:A2:0E:6C:16:37:99:21:F8:67:7F:84:3C:54:EE:FA:BC:52:BA
            X509v3 Extended Key Usage: 
                TLS Web Server Authentication
            X509v3 Key Usage: 
                Digital Signature, Key Encipherment
            X509v3 Subject Alternative Name: 
                DNS:team206-server
    Signature Algorithm: sha256WithRSAEncryption
    Signature Value:
        59:44:c7:20:29:b0:d5:ef:0c:15:c5:cb:c9:da:0e:26:2c:3d:
        32:79:17:16:e4:13:d3:70:d6:88:84:9d:e6:43:2c:77:f1:6c:
        96:94:1a:b2:c1:c6:ee:61:a5:9d:28:fb:e2:b5:d3:40:fb:b8:
        9a:fa:28:10:aa:9a:55:9c:91:f4:2d:31:1d:0a:5a:ab:96:ba:
        74:f8:a8:9d:79:c0:d8:7e:ed:89:a0:ec:80:e2:2e:42:ea:5e:
        32:3a:b4:0f:dc:4e:7e:b1:39:20:c2:1b:45:2e:cc:a3:be:20:
        a4:0c:df:0b:5e:38:11:bb:07:c3:2e:10:c5:39:89:5e:1f:39:
        bd:80:b5:75:21:1c:1b:d7:a2:7e:4b:92:ad:b2:dc:30:bf:33:
        63:3a:90:6e:31:91:81:f4:d1:39:91:47:b7:86:72:00:7f:4f:
        c8:23:e6:5b:81:5c:63:b3:08:5a:87:ed:96:51:c7:93:2a:e3:
        d6:5a:07:f5:dc:91:d4:6a:0d:b9:ab:9a:0e:9e:35:3d:96:7e:
        dc:5c:f2:ed:2e:e9:06:12:a1:89:d1:e1:2c:2b:0b:ec:15:b6:
        d2:5e:ac:bd:96:93:18:7f:e3:48:81:d1:52:3d:0c:af:91:48:
        b2:5c:36:52:33:53:ac:73:f3:76:f9:4c:3e:64:eb:92:28:52:
        78:fb:87:6e
-----BEGIN CERTIFICATE-----
MIIDdzCCAl+gAwIBAgIQURo1KMkVPfB0Zd0zeaC1IDANBgkqhkiG9w0BAQsFADAW
MRQwEgYDVQQDDAt0ZWFtMjA2LW5ldDAeFw0yMzExMDMyMDQzMDJaFw0yNjEwMTgy
MDQzMDJaMBkxFzAVBgNVBAMMDnRlYW0yMDYtc2VydmVyMIIBIjANBgkqhkiG9w0B
AQEFAAOCAQ8AMIIBCgKCAQEAqA7IwP7NM+0kPFFh4VaEKcRKa9Ld2uIGxR+rwAfl
Gsqj8RBjT0FdrM0ixgXmYks7B4jc+G4XZERHn6e5rB7bFRCLoaswFlmBAyHyJe+v
CqURKJKU4Q/keb66PqOEy4AiCCoTG41D5q+aJ6WfKRdgmy0eKDJLbElLtQxAnahf
iMcrSM3z0Ufh/4Az+tYIQFwxlPgIgDOuzaV/niJXaAgDCQ4/gbEAdAXi+4w2kN8a
5J70yvIA+bJv/uPLC7TYzcSzIPpAtWTV2R7S0mHuuXvZlRLeNNms/+Ka5iU+mzY8
yUTJBCKJNNhW1NvV1f05kJPcwGGSqcWmpCQMfClEoOnTrQIDAQABo4G9MIG6MAkG
A1UdEwQCMAAwHQYDVR0OBBYEFG1BFe2Uxpaozqqw+xr56fRzVBeCMFEGA1UdIwRK
MEiAFHt16YI/K18f5xWKcdR+FEOxru9ooRqkGDAWMRQwEgYDVQQDDAt0ZWFtMjA2
LW5ldIIUMuGiDmwWN5kh+Gd/hDxU7vq8UrowEwYDVR0lBAwwCgYIKwYBBQUHAwEw
CwYDVR0PBAQDAgWgMBkGA1UdEQQSMBCCDnRlYW0yMDYtc2VydmVyMA0GCSqGSIb3
DQEBCwUAA4IBAQBZRMcgKbDV7wwVxcvJ2g4mLD0yeRcW5BPTcNaIhJ3mQyx38WyW
lBqywcbuYaWdKPvitdNA+7ia+igQqppVnJH0LTEdClqrlrp0+KidecDYfu2JoOyA
4i5C6l4yOrQP3E5+sTkgwhtFLsyjviCkDN8LXjgRuwfDLhDFOYleHzm9gLV1IRwb
16J+S5KtstwwvzNjOpBuMZGB9NE5kUe3hnIAf0/II+ZbgVxjswhah+2WUceTKuPW
Wgf13JHUag25q5oOnjU9ln7cXPLtLukGEqGJ0eEsKwvsFbbSXqy9lpMYf+NIgdFS
PQyvkUiyXDZSM1Osc/N2+Uw+ZOuSKFJ4+4du
-----END CERTIFICATE-----
