Certificate:
    Data:
        Version: 3 (0x2)
        Serial Number:
            74:79:3f:4f:40:d0:57:2d:48:fa:81:64:b6:26:61:10
        Signature Algorithm: sha256WithRSAEncryption
        Issuer: CN=team206-net
        Validity
            Not Before: Nov  4 11:31:41 2023 GMT
            Not After : Oct 19 11:31:41 2026 GMT
        Subject: CN=team206-server
        Subject Public Key Info:
            Public Key Algorithm: rsaEncryption
                Public-Key: (2048 bit)
                Modulus:
                    00:c0:73:3b:d8:1e:53:a7:20:6c:e4:c3:86:a3:0d:
                    39:dd:5c:99:d6:d0:f0:88:33:d1:d0:16:0d:0e:53:
                    be:ef:22:64:c2:e2:f8:3e:30:a3:47:45:a7:f8:82:
                    59:9c:ff:ca:9f:03:52:a6:3b:22:40:43:aa:30:8e:
                    cb:9e:19:b6:e2:5b:7e:40:b2:da:15:58:2a:6a:58:
                    62:4c:ec:08:f2:d1:90:64:d2:c2:fc:e5:02:00:e2:
                    5b:53:d5:7e:ae:03:e6:d0:0c:8d:cc:95:4d:e9:d3:
                    62:a7:28:c4:c9:31:d1:7d:11:90:74:f7:c5:3e:dd:
                    e8:1b:1f:7d:fe:e7:8e:ab:13:ba:65:65:b5:a0:4f:
                    92:21:a2:75:2e:13:64:bc:7b:4a:a6:62:87:65:01:
                    f7:78:2a:d3:1e:78:89:85:cc:33:9c:dd:a6:51:90:
                    68:57:0d:28:08:ad:12:2a:4e:79:dc:a0:67:c6:5f:
                    cc:6b:9b:97:77:b1:94:ce:cc:4c:91:2d:4e:4d:f5:
                    6b:e6:05:30:50:cf:23:08:88:c0:5c:e3:f8:70:0c:
                    ab:1b:97:db:12:f2:a5:4d:e0:6b:16:22:d1:e6:d9:
                    8a:44:88:03:f3:75:2c:14:28:5c:f9:da:ea:8b:8e:
                    51:01:ab:f7:83:eb:8d:c2:de:43:85:46:f9:90:54:
                    b6:49
                Exponent: 65537 (0x10001)
        X509v3 extensions:
            X509v3 Basic Constraints: 
                CA:FALSE
            X509v3 Subject Key Identifier: 
                61:E6:18:4C:9E:23:DD:C6:0C:90:8C:74:99:96:D9:2B:41:C3:C2:EC
            X509v3 Authority Key Identifier: 
                keyid:A8:2E:FF:35:A7:88:2F:FB:A7:72:EF:62:B3:F8:5B:72:9D:F4:63:D8
                DirName:/CN=team206-net
                serial:2F:CB:B7:1B:86:4C:43:98:A2:32:8A:D1:14:72:24:9C:BD:B5:63:D8
            X509v3 Extended Key Usage: 
                TLS Web Server Authentication
            X509v3 Key Usage: 
                Digital Signature, Key Encipherment
            X509v3 Subject Alternative Name: 
                DNS:team206-server
    Signature Algorithm: sha256WithRSAEncryption
    Signature Value:
        1b:ca:6b:22:c5:d8:a0:96:57:bb:3d:b6:46:94:a9:22:69:ca:
        5e:31:a4:6b:33:27:51:95:3b:a6:22:5d:eb:69:df:fa:f1:c5:
        6c:00:fe:73:d1:b6:e9:30:6e:13:e1:a0:88:d9:db:b4:cc:06:
        6c:5f:84:ef:6c:6b:5b:ef:ff:4d:16:e1:ff:a2:e2:bb:f2:04:
        73:22:e5:74:75:73:ae:9c:d5:db:a2:a8:69:2b:8d:c2:cb:f0:
        2b:46:ad:06:2a:91:a7:9a:ea:0e:89:1e:88:ed:db:8f:08:38:
        ce:00:fb:b5:6a:6d:5f:18:e0:c7:c0:5c:65:f0:5e:5b:3f:07:
        03:af:f2:e3:dd:c8:d0:18:c3:6e:1f:b6:a5:aa:7a:66:8f:f4:
        7a:2d:82:b4:c6:bb:66:e3:76:31:ac:e8:bf:9a:5b:0d:a2:2b:
        8d:84:a4:92:60:46:dd:87:39:35:3c:91:18:87:76:a9:f8:1b:
        e1:8b:39:1b:5f:cf:8b:9c:e2:31:95:fe:c5:94:99:c0:05:24:
        fb:d4:c7:15:51:67:dc:1b:70:d0:26:56:3f:01:c5:f1:f6:5c:
        11:b3:57:44:d5:d8:6e:d0:40:80:66:85:93:b0:57:b1:12:ca:
        ca:5d:43:c4:70:8f:19:89:12:28:19:73:ef:92:31:f5:2f:fd:
        35:f3:db:b5
-----BEGIN CERTIFICATE-----
MIIDdzCCAl+gAwIBAgIQdHk/T0DQVy1I+oFktiZhEDANBgkqhkiG9w0BAQsFADAW
MRQwEgYDVQQDDAt0ZWFtMjA2LW5ldDAeFw0yMzExMDQxMTMxNDFaFw0yNjEwMTkx
MTMxNDFaMBkxFzAVBgNVBAMMDnRlYW0yMDYtc2VydmVyMIIBIjANBgkqhkiG9w0B
AQEFAAOCAQ8AMIIBCgKCAQEAwHM72B5TpyBs5MOGow053VyZ1tDwiDPR0BYNDlO+
7yJkwuL4PjCjR0Wn+IJZnP/KnwNSpjsiQEOqMI7Lnhm24lt+QLLaFVgqalhiTOwI
8tGQZNLC/OUCAOJbU9V+rgPm0AyNzJVN6dNipyjEyTHRfRGQdPfFPt3oGx99/ueO
qxO6ZWW1oE+SIaJ1LhNkvHtKpmKHZQH3eCrTHniJhcwznN2mUZBoVw0oCK0SKk55
3KBnxl/Ma5uXd7GUzsxMkS1OTfVr5gUwUM8jCIjAXOP4cAyrG5fbEvKlTeBrFiLR
5tmKRIgD83UsFChc+drqi45RAav3g+uNwt5DhUb5kFS2SQIDAQABo4G9MIG6MAkG
A1UdEwQCMAAwHQYDVR0OBBYEFGHmGEyeI93GDJCMdJmW2StBw8LsMFEGA1UdIwRK
MEiAFKgu/zWniC/7p3LvYrP4W3Kd9GPYoRqkGDAWMRQwEgYDVQQDDAt0ZWFtMjA2
LW5ldIIUL8u3G4ZMQ5iiMorRFHIknL21Y9gwEwYDVR0lBAwwCgYIKwYBBQUHAwEw
CwYDVR0PBAQDAgWgMBkGA1UdEQQSMBCCDnRlYW0yMDYtc2VydmVyMA0GCSqGSIb3
DQEBCwUAA4IBAQAbymsixdiglle7PbZGlKkiacpeMaRrMydRlTumIl3rad/68cVs
AP5z0bbpMG4T4aCI2du0zAZsX4TvbGtb7/9NFuH/ouK78gRzIuV0dXOunNXboqhp
K43Cy/ArRq0GKpGnmuoOiR6I7duPCDjOAPu1am1fGODHwFxl8F5bPwcDr/Lj3cjQ
GMNuH7alqnpmj/R6LYK0xrtm43YxrOi/mlsNoiuNhKSSYEbdhzk1PJEYh3ap+Bvh
izkbX8+LnOIxlf7FlJnABST71McVUWfcG3DQJlY/AcXx9lwRs1dE1dhu0ECAZoWT
sFexEsrKXUPEcI8ZiRIoGXPvkjH1L/0189u1
-----END CERTIFICATE-----
