Certificate:
    Data:
        Version: 3 (0x2)
        Serial Number:
            d1:9d:82:fb:b1:7e:ef:c6:94:f9:42:c7:db:2d:56:11
        Signature Algorithm: sha256WithRSAEncryption
        Issuer: CN=team495-net
        Validity
            Not Before: Nov  3 20:48:19 2023 GMT
            Not After : Oct 18 20:48:19 2026 GMT
        Subject: CN=team495-server
        Subject Public Key Info:
            Public Key Algorithm: rsaEncryption
                Public-Key: (2048 bit)
                Modulus:
                    00:e7:49:04:82:cf:b5:86:98:76:c2:e3:f5:9d:cd:
                    9f:0c:be:56:74:4c:2f:9c:9e:c3:81:7a:2d:e9:eb:
                    9f:d4:93:06:38:f0:7e:77:a0:7d:83:11:07:57:f9:
                    cc:62:e1:35:14:7b:81:ba:c7:7e:ad:74:33:86:aa:
                    1a:6b:01:7c:2d:86:80:a5:60:6b:ac:f1:03:99:c0:
                    8c:e7:c2:a4:f1:04:7f:68:7b:b0:16:be:fe:26:fc:
                    33:e3:95:30:12:1a:2a:24:3c:39:ad:81:f8:b9:6b:
                    a3:40:46:7f:ba:b6:e7:e7:f0:a2:9f:a4:8b:f6:24:
                    19:9e:7f:48:bf:bc:13:ce:7e:1a:81:a1:ad:e0:29:
                    6a:4c:b0:2f:ad:32:ff:a8:7a:22:e7:d7:e8:58:1e:
                    ab:65:2b:ae:ba:a5:de:22:32:04:6d:a8:d2:df:eb:
                    24:37:70:7f:60:8a:57:38:75:0a:e3:6e:ff:b5:8f:
                    5d:e0:b3:71:21:4b:2f:69:1a:bc:9b:83:49:5e:b5:
                    d1:f6:0f:f0:2a:55:58:f4:aa:b6:51:18:3e:90:24:
                    1b:bf:39:a6:ad:05:36:e2:42:ea:a2:a3:eb:97:c0:
                    a5:08:36:2c:0f:94:99:ff:85:ea:51:b6:1d:6e:aa:
                    c8:49:1d:9d:4d:2b:9f:f2:ac:60:d3:e0:3f:3f:6e:
                    21:55
                Exponent: 65537 (0x10001)
        X509v3 extensions:
            X509v3 Basic Constraints: 
                CA:FALSE
            X509v3 Subject Key Identifier: 
                2F:64:B9:5F:9D:F7:8F:2E:25:82:6B:0D:F7:CB:EE:A0:D8:B6:1C:38
            X509v3 Authority Key Identifier: 
                keyid:2D:56:51:CD:8B:7A:63:35:4A:5F:C0:78:DD:F5:8E:5A:76:4C:5D:65
                DirName:/CN=team495-net
                serial:7C:45:C9:88:74:C3:F2:2C:39:1A:AE:42:CF:8D:53:28:C9:83:0B:54
            X509v3 Extended Key Usage: 
                TLS Web Server Authentication
            X509v3 Key Usage: 
                Digital Signature, Key Encipherment
            X509v3 Subject Alternative Name: 
                DNS:team495-server
    Signature Algorithm: sha256WithRSAEncryption
    Signature Value:
        a2:25:7a:4c:11:1a:26:be:8a:99:79:3e:c5:ab:b6:a0:e9:ff:
        f8:3c:6c:c8:4c:d7:7d:4c:48:87:b8:bb:91:56:3f:9d:ba:dc:
        56:d6:5e:4d:0d:eb:7d:9c:25:6d:9e:3a:9f:b3:95:9a:7a:86:
        07:c6:b4:b2:17:78:52:2d:a4:ea:ad:4d:89:3a:fb:3d:a8:67:
        fe:b5:4f:ad:94:24:dd:71:09:1f:17:f5:ed:88:73:10:15:c0:
        ef:a3:d7:4d:09:7b:a9:cc:49:ff:40:4d:8c:a9:40:f8:f9:77:
        d4:f7:cb:f4:08:dd:2a:c2:83:eb:11:8e:a5:bd:b8:cf:05:59:
        c8:9e:25:28:a1:b6:56:2a:a9:22:6e:8a:9f:f6:c8:70:91:69:
        04:ea:cc:de:95:44:d6:d7:b0:cc:fa:3a:4b:13:d4:cb:d5:07:
        e7:f9:2d:ad:cc:d5:5f:c5:a4:5f:35:cd:c6:cb:6c:15:be:73:
        01:76:16:9f:e9:19:24:dc:14:a9:de:d1:72:65:27:b8:88:04:
        d6:34:67:8f:87:2a:68:a4:8f:15:af:74:49:e5:f0:40:d5:1d:
        a0:19:f1:d6:ad:f5:17:e1:c1:f2:df:ef:8b:2e:38:4b:73:f2:
        37:f2:af:ea:38:f5:66:0d:dc:04:5a:32:64:e1:1b:c0:91:48:
        51:e4:13:68
-----BEGIN CERTIFICATE-----
MIIDeDCCAmCgAwIBAgIRANGdgvuxfu/GlPlCx9stVhEwDQYJKoZIhvcNAQELBQAw
FjEUMBIGA1UEAwwLdGVhbTQ5NS1uZXQwHhcNMjMxMTAzMjA0ODE5WhcNMjYxMDE4
MjA0ODE5WjAZMRcwFQYDVQQDDA50ZWFtNDk1LXNlcnZlcjCCASIwDQYJKoZIhvcN
AQEBBQADggEPADCCAQoCggEBAOdJBILPtYaYdsLj9Z3Nnwy+VnRML5yew4F6Lenr
n9STBjjwfnegfYMRB1f5zGLhNRR7gbrHfq10M4aqGmsBfC2GgKVga6zxA5nAjOfC
pPEEf2h7sBa+/ib8M+OVMBIaKiQ8Oa2B+Llro0BGf7q25+fwop+ki/YkGZ5/SL+8
E85+GoGhreApakywL60y/6h6IufX6Fgeq2Urrrql3iIyBG2o0t/rJDdwf2CKVzh1
CuNu/7WPXeCzcSFLL2kavJuDSV610fYP8CpVWPSqtlEYPpAkG785pq0FNuJC6qKj
65fApQg2LA+Umf+F6lG2HW6qyEkdnU0rn/KsYNPgPz9uIVUCAwEAAaOBvTCBujAJ
BgNVHRMEAjAAMB0GA1UdDgQWBBQvZLlfnfePLiWCaw33y+6g2LYcODBRBgNVHSME
SjBIgBQtVlHNi3pjNUpfwHjd9Y5adkxdZaEapBgwFjEUMBIGA1UEAwwLdGVhbTQ5
NS1uZXSCFHxFyYh0w/IsORquQs+NUyjJgwtUMBMGA1UdJQQMMAoGCCsGAQUFBwMB
MAsGA1UdDwQEAwIFoDAZBgNVHREEEjAQgg50ZWFtNDk1LXNlcnZlcjANBgkqhkiG
9w0BAQsFAAOCAQEAoiV6TBEaJr6KmXk+xau2oOn/+DxsyEzXfUxIh7i7kVY/nbrc
VtZeTQ3rfZwlbZ46n7OVmnqGB8a0shd4Ui2k6q1NiTr7Pahn/rVPrZQk3XEJHxf1
7YhzEBXA76PXTQl7qcxJ/0BNjKlA+Pl31PfL9AjdKsKD6xGOpb24zwVZyJ4lKKG2
ViqpIm6Kn/bIcJFpBOrM3pVE1tewzPo6SxPUy9UH5/ktrczVX8WkXzXNxstsFb5z
AXYWn+kZJNwUqd7RcmUnuIgE1jRnj4cqaKSPFa90SeXwQNUdoBnx1q31F+HB8t/v
iy44S3PyN/Kv6jj1Zg3cBFoyZOEbwJFIUeQTaA==
-----END CERTIFICATE-----
