Certificate:
    Data:
        Version: 3 (0x2)
        Serial Number:
            90:c2:50:0d:e3:3a:d5:57:9f:2d:58:b7:6a:eb:1d:6c
        Signature Algorithm: sha256WithRSAEncryption
        Issuer: CN=team70-net
        Validity
            Not Before: Nov  4 10:41:39 2023 GMT
            Not After : Oct 19 10:41:39 2026 GMT
        Subject: CN=team70-server
        Subject Public Key Info:
            Public Key Algorithm: rsaEncryption
                Public-Key: (2048 bit)
                Modulus:
                    00:b5:e1:f6:d7:96:ac:f4:80:ff:1b:d9:b4:f7:4b:
                    33:be:af:6d:df:c2:c5:ab:04:20:d3:0e:bc:02:d8:
                    3b:e7:31:9b:60:21:a1:60:b1:29:66:88:33:a5:84:
                    c6:7b:d2:52:f7:5f:b2:45:a9:a5:1c:3c:9b:67:93:
                    10:9c:c9:28:ce:78:db:99:ef:c9:fe:e9:2a:cf:f2:
                    be:ca:31:e6:cb:27:f4:6b:6f:26:f0:34:57:24:a9:
                    93:f5:ef:1f:5c:a2:4f:28:1a:82:db:98:da:06:61:
                    a8:b9:63:11:34:22:e8:0c:e7:7e:3c:39:0d:1c:35:
                    64:e5:4b:b4:12:ca:fb:10:c8:35:b1:31:aa:56:70:
                    96:98:7c:57:b7:a7:07:da:8e:aa:33:32:00:37:49:
                    0f:f2:a1:bb:f3:9d:6b:48:14:b9:20:f5:4f:1d:4b:
                    bd:44:ae:73:55:a0:a3:f6:c7:53:31:74:2e:f8:29:
                    fa:af:c7:70:00:f9:79:bd:01:ba:2c:3e:4a:48:f9:
                    e2:94:c7:9a:eb:cb:be:45:10:b2:f7:e4:cb:31:79:
                    b2:34:06:6a:d0:77:80:fa:74:2a:65:68:0a:11:a5:
                    49:49:f3:bc:53:43:7c:95:f3:3e:52:b4:5d:69:f1:
                    b5:c9:87:89:62:fe:9f:fd:c7:f3:13:26:56:88:75:
                    81:99
                Exponent: 65537 (0x10001)
        X509v3 extensions:
            X509v3 Basic Constraints: 
                CA:FALSE
            X509v3 Subject Key Identifier: 
                31:22:7F:DD:F0:82:E3:C9:81:10:BB:DD:7B:10:A6:60:95:87:52:FF
            X509v3 Authority Key Identifier: 
                keyid:FA:7D:D6:D1:70:0A:1A:48:50:52:52:0F:45:5F:1F:4E:F2:68:66:DF
                DirName:/CN=team70-net
                serial:44:15:7E:5B:1C:8B:3E:6D:17:37:9C:81:86:5E:CE:E3:47:2A:05:20
            X509v3 Extended Key Usage: 
                TLS Web Server Authentication
            X509v3 Key Usage: 
                Digital Signature, Key Encipherment
            X509v3 Subject Alternative Name: 
                DNS:team70-server
    Signature Algorithm: sha256WithRSAEncryption
    Signature Value:
        46:ed:b4:d7:90:42:ea:e3:46:17:24:8d:94:5e:bb:82:6b:c5:
        28:79:bd:53:1c:e1:d6:63:f6:29:77:c7:09:ca:08:55:98:c8:
        72:88:03:c6:25:3a:3d:a2:4b:ac:4a:f3:66:7c:15:42:2b:ed:
        8d:2b:99:30:4d:ad:5d:c9:1b:6b:50:9c:5c:a7:33:81:3f:3e:
        38:f8:31:5b:e3:1b:70:33:44:eb:6c:66:85:67:16:cb:a4:d3:
        fe:20:86:35:4f:99:4f:4a:96:98:8f:c1:6f:42:a3:7b:8f:30:
        eb:22:52:6b:2a:d2:30:17:68:c0:21:b9:a5:86:3b:be:c8:c2:
        81:24:8a:06:41:a1:dc:fb:72:94:17:f8:47:bc:fd:88:39:a2:
        0c:2d:91:20:06:b7:0e:b6:27:46:ed:63:33:1c:15:6c:20:75:
        71:cf:d9:19:0e:da:31:24:09:d8:cd:5e:79:c0:b5:91:ee:90:
        f3:34:6b:b8:a1:70:c3:c6:cc:dc:6c:31:67:e8:84:d9:1f:37:
        b7:f0:5c:7d:ef:5a:82:0c:49:32:fa:11:90:1c:ab:e5:1a:25:
        a6:67:21:46:eb:87:91:47:4f:3f:9d:cc:f3:2b:89:02:01:fc:
        24:c3:75:15:95:a3:c7:2e:dd:2f:36:17:8e:57:30:3b:da:c1:
        cc:af:f9:ce
-----BEGIN CERTIFICATE-----
MIIDdDCCAlygAwIBAgIRAJDCUA3jOtVXny1Yt2rrHWwwDQYJKoZIhvcNAQELBQAw
FTETMBEGA1UEAwwKdGVhbTcwLW5ldDAeFw0yMzExMDQxMDQxMzlaFw0yNjEwMTkx
MDQxMzlaMBgxFjAUBgNVBAMMDXRlYW03MC1zZXJ2ZXIwggEiMA0GCSqGSIb3DQEB
AQUAA4IBDwAwggEKAoIBAQC14fbXlqz0gP8b2bT3SzO+r23fwsWrBCDTDrwC2Dvn
MZtgIaFgsSlmiDOlhMZ70lL3X7JFqaUcPJtnkxCcySjOeNuZ78n+6SrP8r7KMebL
J/RrbybwNFckqZP17x9cok8oGoLbmNoGYai5YxE0IugM5348OQ0cNWTlS7QSyvsQ
yDWxMapWcJaYfFe3pwfajqozMgA3SQ/yobvznWtIFLkg9U8dS71ErnNVoKP2x1Mx
dC74Kfqvx3AA+Xm9AbosPkpI+eKUx5rry75FELL35MsxebI0BmrQd4D6dCplaAoR
pUlJ87xTQ3yV8z5StF1p8bXJh4li/p/9x/MTJlaIdYGZAgMBAAGjgbswgbgwCQYD
VR0TBAIwADAdBgNVHQ4EFgQUMSJ/3fCC48mBELvdexCmYJWHUv8wUAYDVR0jBEkw
R4AU+n3W0XAKGkhQUlIPRV8fTvJoZt+hGaQXMBUxEzARBgNVBAMMCnRlYW03MC1u
ZXSCFEQVflsciz5tFzecgYZezuNHKgUgMBMGA1UdJQQMMAoGCCsGAQUFBwMBMAsG
A1UdDwQEAwIFoDAYBgNVHREEETAPgg10ZWFtNzAtc2VydmVyMA0GCSqGSIb3DQEB
CwUAA4IBAQBG7bTXkELq40YXJI2UXruCa8Uoeb1THOHWY/Ypd8cJyghVmMhyiAPG
JTo9okusSvNmfBVCK+2NK5kwTa1dyRtrUJxcpzOBPz44+DFb4xtwM0TrbGaFZxbL
pNP+IIY1T5lPSpaYj8FvQqN7jzDrIlJrKtIwF2jAIbmlhju+yMKBJIoGQaHc+3KU
F/hHvP2IOaIMLZEgBrcOtidG7WMzHBVsIHVxz9kZDtoxJAnYzV55wLWR7pDzNGu4
oXDDxszcbDFn6ITZHze38Fx971qCDEky+hGQHKvlGiWmZyFG64eRR08/nczzK4kC
Afwkw3UVlaPHLt0vNheOVzA72sHMr/nO
-----END CERTIFICATE-----
