Certificate:
    Data:
        Version: 3 (0x2)
        Serial Number:
            c4:8d:05:7e:66:5e:6d:89:44:24:0c:88:1b:d2:7e:dc
        Signature Algorithm: sha256WithRSAEncryption
        Issuer: CN=team70-net
        Validity
            Not Before: Nov  3 20:40:26 2023 GMT
            Not After : Oct 18 20:40:26 2026 GMT
        Subject: CN=team70-client
        Subject Public Key Info:
            Public Key Algorithm: rsaEncryption
                Public-Key: (2048 bit)
                Modulus:
                    00:af:9a:d0:d7:31:de:49:90:05:66:de:18:4a:0c:
                    b7:27:4c:a4:38:fd:2a:22:65:2a:37:07:88:e4:6c:
                    b5:2b:e4:03:8d:10:e8:b7:c4:88:27:1c:af:a7:f1:
                    7b:af:34:9b:92:46:46:d9:c3:6b:89:48:1c:dd:94:
                    0e:4a:a7:9b:de:62:50:e9:3a:b7:95:99:21:11:0c:
                    8f:e4:be:38:22:93:33:cf:4a:6b:d5:d3:92:75:42:
                    72:2e:86:a4:28:cc:96:26:b3:ae:ea:e7:e2:a6:88:
                    df:3c:72:eb:5a:d7:13:18:9c:2f:36:1a:5a:9d:cb:
                    3f:70:73:a6:c9:f5:a8:31:94:8c:21:2c:f4:7d:bc:
                    8c:6d:83:36:d6:90:ab:d4:e1:39:44:24:e1:6a:03:
                    82:4e:08:20:a8:b1:24:60:33:7c:f4:f1:1a:58:df:
                    35:72:55:4c:10:e4:78:f2:45:57:26:8f:a9:00:c5:
                    43:4f:66:81:e3:a0:38:a9:20:e8:77:01:8c:a2:9f:
                    6a:7c:e2:04:3e:36:fb:19:62:df:12:94:72:20:f4:
                    83:db:0a:93:1b:9f:9b:e9:41:e0:8c:b6:2e:82:f5:
                    ce:c6:ec:14:bf:de:76:ce:b3:0b:c5:bd:1c:68:cd:
                    78:c9:9f:ab:e0:26:91:7d:8f:66:8d:34:43:ee:c8:
                    98:cd
                Exponent: 65537 (0x10001)
        X509v3 extensions:
            X509v3 Basic Constraints: 
                CA:FALSE
            X509v3 Subject Key Identifier: 
                4D:22:B4:4D:D9:E6:D3:89:5F:B9:4D:EB:F9:D2:33:CA:E5:F7:3C:F0
            X509v3 Authority Key Identifier: 
                keyid:4C:09:F3:97:DD:52:91:91:1A:6B:54:F3:91:8F:4B:8D:71:6E:7A:60
                DirName:/CN=team70-net
                serial:2F:5D:40:DB:0A:CA:62:ED:7F:54:B5:9B:17:DC:FB:5E:EA:36:AE:CB
            X509v3 Extended Key Usage: 
                TLS Web Client Authentication
            X509v3 Key Usage: 
                Digital Signature
    Signature Algorithm: sha256WithRSAEncryption
    Signature Value:
        40:6d:9e:c0:20:2c:14:f3:e0:84:b9:cc:5c:31:b4:f5:07:84:
        f6:bc:64:b1:42:77:8a:ca:6e:4e:d7:3f:17:89:29:bb:2c:a6:
        e5:aa:52:35:28:81:49:f1:bb:33:69:30:c1:ae:4a:3f:71:c3:
        78:6b:16:0f:d0:f6:f2:6f:c3:17:22:f9:4f:db:57:c0:ff:95:
        57:91:f9:ec:ae:7c:4f:ab:b7:0e:f3:8d:1d:9f:53:64:28:b2:
        e6:cc:6e:a0:df:97:ae:ce:d8:ef:1c:e2:8e:98:04:92:aa:83:
        98:7b:43:e5:58:02:a6:1f:16:6b:cd:ba:47:21:c7:f5:1a:f5:
        ac:6a:4b:cd:b4:fe:4c:64:8a:f6:f4:03:0c:1e:46:c5:b5:6e:
        7c:fd:40:85:3c:81:38:40:5b:35:b5:1b:64:86:4a:a8:03:eb:
        e0:cc:63:86:17:83:d2:6b:1c:df:28:09:65:4f:10:93:a2:cc:
        60:a2:2f:d9:5b:10:b3:a5:9f:a0:93:a6:af:87:17:70:b7:ac:
        8c:9c:0a:1c:81:15:10:2d:b2:3b:20:17:54:07:66:59:73:f9:
        8d:07:d1:be:48:c6:ca:48:80:86:85:99:58:47:ba:df:cd:08:
        e6:b2:95:ec:9f:63:fb:0f:e4:2f:fb:52:ab:dc:33:9c:5c:3b:
        c6:6f:ab:70
-----BEGIN CERTIFICATE-----
MIIDWjCCAkKgAwIBAgIRAMSNBX5mXm2JRCQMiBvSftwwDQYJKoZIhvcNAQELBQAw
FTETMBEGA1UEAwwKdGVhbTcwLW5ldDAeFw0yMzExMDMyMDQwMjZaFw0yNjEwMTgy
MDQwMjZaMBgxFjAUBgNVBAMMDXRlYW03MC1jbGllbnQwggEiMA0GCSqGSIb3DQEB
AQUAA4IBDwAwggEKAoIBAQCvmtDXMd5JkAVm3hhKDLcnTKQ4/SoiZSo3B4jkbLUr
5AONEOi3xIgnHK+n8XuvNJuSRkbZw2uJSBzdlA5Kp5veYlDpOreVmSERDI/kvjgi
kzPPSmvV05J1QnIuhqQozJYms67q5+KmiN88cuta1xMYnC82Glqdyz9wc6bJ9agx
lIwhLPR9vIxtgzbWkKvU4TlEJOFqA4JOCCCosSRgM3z08RpY3zVyVUwQ5HjyRVcm
j6kAxUNPZoHjoDipIOh3AYyin2p84gQ+NvsZYt8SlHIg9IPbCpMbn5vpQeCMti6C
9c7G7BS/3nbOswvFvRxozXjJn6vgJpF9j2aNNEPuyJjNAgMBAAGjgaEwgZ4wCQYD
VR0TBAIwADAdBgNVHQ4EFgQUTSK0Tdnm04lfuU3r+dIzyuX3PPAwUAYDVR0jBEkw
R4AUTAnzl91SkZEaa1TzkY9LjXFuemChGaQXMBUxEzARBgNVBAMMCnRlYW03MC1u
ZXSCFC9dQNsKymLtf1S1mxfc+17qNq7LMBMGA1UdJQQMMAoGCCsGAQUFBwMCMAsG
A1UdDwQEAwIHgDANBgkqhkiG9w0BAQsFAAOCAQEAQG2ewCAsFPPghLnMXDG09QeE
9rxksUJ3ispuTtc/F4kpuyym5apSNSiBSfG7M2kwwa5KP3HDeGsWD9D28m/DFyL5
T9tXwP+VV5H57K58T6u3DvONHZ9TZCiy5sxuoN+Xrs7Y7xzijpgEkqqDmHtD5VgC
ph8Wa826RyHH9Rr1rGpLzbT+TGSK9vQDDB5GxbVufP1AhTyBOEBbNbUbZIZKqAPr
4MxjhheD0msc3ygJZU8Qk6LMYKIv2VsQs6WfoJOmr4cXcLesjJwKHIEVEC2yOyAX
VAdmWXP5jQfRvkjGykiAhoWZWEe6380I5rKV7J9j+w/kL/tSq9wznFw7xm+rcA==
-----END CERTIFICATE-----
