Certificate:
    Data:
        Version: 3 (0x2)
        Serial Number:
            29:a8:bc:09:6c:41:2b:e0:2f:a5:43:39:e6:3a:bc:ec
        Signature Algorithm: sha256WithRSAEncryption
        Issuer: CN=team158-net
        Validity
            Not Before: Nov  4 10:43:28 2023 GMT
            Not After : Oct 19 10:43:28 2026 GMT
        Subject: CN=team158-server
        Subject Public Key Info:
            Public Key Algorithm: rsaEncryption
                Public-Key: (2048 bit)
                Modulus:
                    00:92:0a:0c:94:6b:3c:5c:96:2f:fc:97:be:72:70:
                    ba:05:af:2d:40:7b:38:2f:5e:89:db:72:73:0f:42:
                    29:94:20:2f:db:a4:f5:68:fd:e6:cf:2f:b7:1f:d0:
                    b3:ba:b1:23:44:45:00:45:c7:c3:c9:19:eb:4f:a3:
                    68:63:5c:f3:b2:02:fc:26:26:07:5e:22:37:13:62:
                    90:9c:6d:38:f6:37:e4:31:12:ef:3d:19:6f:4c:29:
                    7f:67:5c:d6:86:9a:04:b0:f2:e1:28:63:08:21:c3:
                    cf:e3:06:9d:2f:98:74:03:9a:59:d5:6e:68:0b:ca:
                    26:c1:2f:08:d5:be:7c:85:ae:7f:d5:81:98:50:73:
                    ca:17:e2:24:fe:39:e5:7a:11:d4:8b:42:f5:e5:b0:
                    42:24:73:0e:30:39:df:61:23:ea:5a:a7:62:4d:dc:
                    16:35:7a:4b:ce:70:ec:12:e0:f7:fc:97:b8:3c:30:
                    a3:2f:80:0b:b7:50:e6:65:77:16:ff:f8:0a:b1:50:
                    10:95:87:b9:f6:c9:59:e3:81:d2:5c:d6:d8:c8:69:
                    ec:88:a6:15:ec:47:34:1b:64:cf:20:a5:9e:54:f2:
                    54:a7:ff:84:c7:b1:e0:11:2c:f5:06:43:07:8a:9f:
                    78:27:02:72:6b:04:0f:1d:77:1b:80:cf:f7:b7:c0:
                    2e:1b
                Exponent: 65537 (0x10001)
        X509v3 extensions:
            X509v3 Basic Constraints: 
                CA:FALSE
            X509v3 Subject Key Identifier: 
                09:EC:7E:F5:03:27:C3:DE:C2:E0:39:AC:50:91:7A:6A:FC:BE:DB:7D
            X509v3 Authority Key Identifier: 
                keyid:1F:71:17:C8:E1:83:9C:47:63:13:E4:83:55:EB:A9:E5:84:75:79:D8
                DirName:/CN=team158-net
                serial:73:77:70:C4:E8:9D:EB:83:7E:17:1E:B0:4C:52:D1:29:B5:99:63:B9
            X509v3 Extended Key Usage: 
                TLS Web Server Authentication
            X509v3 Key Usage: 
                Digital Signature, Key Encipherment
            X509v3 Subject Alternative Name: 
                DNS:team158-server
    Signature Algorithm: sha256WithRSAEncryption
    Signature Value:
        31:7c:44:b7:78:82:e9:4d:f8:83:6d:b2:e6:61:fb:6e:4f:9f:
        59:8c:db:3a:87:e5:fe:26:28:03:58:ec:b6:aa:8d:2b:2f:8d:
        d9:74:8c:dc:08:a4:f0:11:05:34:95:3a:0c:58:2a:7b:b5:d5:
        c6:8d:93:ca:d9:4f:30:10:e0:d3:b7:c7:9a:12:02:c4:30:a2:
        b9:62:79:62:2b:d8:7b:5e:bf:aa:e0:f3:2f:b5:1c:88:c9:dc:
        5f:7a:7a:6e:dc:e1:33:60:9c:b8:87:8c:86:61:77:da:94:01:
        a7:01:ac:a2:fb:c9:06:ab:f2:9a:dd:0f:09:18:ff:2b:be:aa:
        79:45:b0:d3:cd:34:13:c6:2b:91:8a:87:64:b8:44:47:da:26:
        a6:d7:64:55:43:0d:15:2b:97:d2:e8:e9:c1:7f:65:6c:93:ea:
        38:3f:82:6a:31:19:63:46:dc:55:86:0f:4a:68:81:62:87:6b:
        84:52:44:08:f2:0b:24:45:00:c8:f6:7b:d0:44:f7:b7:3a:93:
        fb:20:ec:76:41:c4:82:03:84:bf:90:eb:61:7a:ad:e2:99:2d:
        36:9b:5c:80:ca:af:15:6e:15:74:1a:44:62:47:ae:11:e3:07:
        39:da:7f:39:c3:4c:f8:54:d5:fa:6d:77:6e:2a:e0:b4:19:9d:
        d3:22:c0:d2
-----BEGIN CERTIFICATE-----
MIIDdzCCAl+gAwIBAgIQKai8CWxBK+AvpUM55jq87DANBgkqhkiG9w0BAQsFADAW
MRQwEgYDVQQDDAt0ZWFtMTU4LW5ldDAeFw0yMzExMDQxMDQzMjhaFw0yNjEwMTkx
MDQzMjhaMBkxFzAVBgNVBAMMDnRlYW0xNTgtc2VydmVyMIIBIjANBgkqhkiG9w0B
AQEFAAOCAQ8AMIIBCgKCAQEAkgoMlGs8XJYv/Je+cnC6Ba8tQHs4L16J23JzD0Ip
lCAv26T1aP3mzy+3H9CzurEjREUARcfDyRnrT6NoY1zzsgL8JiYHXiI3E2KQnG04
9jfkMRLvPRlvTCl/Z1zWhpoEsPLhKGMIIcPP4wadL5h0A5pZ1W5oC8omwS8I1b58
ha5/1YGYUHPKF+Ik/jnlehHUi0L15bBCJHMOMDnfYSPqWqdiTdwWNXpLznDsEuD3
/Je4PDCjL4ALt1DmZXcW//gKsVAQlYe59slZ44HSXNbYyGnsiKYV7Ec0G2TPIKWe
VPJUp/+Ex7HgESz1BkMHip94JwJyawQPHXcbgM/3t8AuGwIDAQABo4G9MIG6MAkG
A1UdEwQCMAAwHQYDVR0OBBYEFAnsfvUDJ8PewuA5rFCRemr8vtt9MFEGA1UdIwRK
MEiAFB9xF8jhg5xHYxPkg1XrqeWEdXnYoRqkGDAWMRQwEgYDVQQDDAt0ZWFtMTU4
LW5ldIIUc3dwxOid64N+Fx6wTFLRKbWZY7kwEwYDVR0lBAwwCgYIKwYBBQUHAwEw
CwYDVR0PBAQDAgWgMBkGA1UdEQQSMBCCDnRlYW0xNTgtc2VydmVyMA0GCSqGSIb3
DQEBCwUAA4IBAQAxfES3eILpTfiDbbLmYftuT59ZjNs6h+X+JigDWOy2qo0rL43Z
dIzcCKTwEQU0lToMWCp7tdXGjZPK2U8wEODTt8eaEgLEMKK5YnliK9h7Xr+q4PMv
tRyIydxfenpu3OEzYJy4h4yGYXfalAGnAayi+8kGq/Ka3Q8JGP8rvqp5RbDTzTQT
xiuRiodkuERH2iam12RVQw0VK5fS6OnBf2Vsk+o4P4JqMRljRtxVhg9KaIFih2uE
UkQI8gskRQDI9nvQRPe3OpP7IOx2QcSCA4S/kOtheq3imS02m1yAyq8VbhV0GkRi
R64R4wc52n85w0z4VNX6bXduKuC0GZ3TIsDS
-----END CERTIFICATE-----
