Certificate:
    Data:
        Version: 3 (0x2)
        Serial Number:
            38:7e:87:70:05:ce:5a:85:82:c4:45:05:ee:ce:78:74
        Signature Algorithm: sha256WithRSAEncryption
        Issuer: CN=team158-net
        Validity
            Not Before: Nov  4 11:30:44 2023 GMT
            Not After : Oct 19 11:30:44 2026 GMT
        Subject: CN=team158-server
        Subject Public Key Info:
            Public Key Algorithm: rsaEncryption
                Public-Key: (2048 bit)
                Modulus:
                    00:e4:ef:ff:be:90:70:2b:9f:97:e6:77:58:95:f1:
                    06:4a:04:d6:6a:ac:29:a1:c9:ea:33:a6:1d:71:ee:
                    48:4c:5b:b7:b7:03:0c:2f:34:eb:38:46:a7:fb:44:
                    8e:1a:7c:30:b2:4e:a5:e0:b1:66:cf:59:b7:9e:89:
                    eb:3b:9e:43:09:44:05:d8:7e:4c:bb:0d:c2:29:bf:
                    d3:03:52:04:a0:ad:ef:61:06:c8:cf:47:54:72:06:
                    73:a8:12:70:90:84:c7:9f:c8:42:1a:1a:7e:b0:0b:
                    0f:7b:99:7c:cc:f9:4d:47:53:86:f5:99:13:1e:82:
                    70:37:b9:d5:1a:dc:9a:e9:08:f0:97:41:c0:77:a5:
                    63:12:3e:47:15:fe:a3:e2:41:04:16:21:bd:d9:d6:
                    ea:bb:9f:4e:ec:5e:55:c6:31:dc:3e:63:aa:a8:d5:
                    e7:d0:72:7b:5c:cf:a5:d4:ed:b1:19:42:10:45:e1:
                    5f:f6:8a:e6:2b:74:2b:e4:14:bb:ea:73:b8:2f:a4:
                    06:91:d8:d9:2b:a0:fd:8a:35:07:05:86:84:7c:2c:
                    43:39:95:eb:09:be:a5:70:b7:12:59:a9:f9:29:10:
                    93:6b:94:e7:e9:b0:8a:4b:be:d0:5e:a6:3d:fe:f4:
                    e0:30:83:86:ea:a8:c7:90:89:fb:5d:b1:07:b5:e8:
                    4f:ef
                Exponent: 65537 (0x10001)
        X509v3 extensions:
            X509v3 Basic Constraints: 
                CA:FALSE
            X509v3 Subject Key Identifier: 
                92:0B:CB:B8:7D:76:EA:75:BA:E4:ED:88:96:90:59:AA:47:D4:BF:27
            X509v3 Authority Key Identifier: 
                keyid:69:4B:C1:AE:4D:31:77:9F:A1:FB:40:AE:2B:A6:EF:E9:38:BF:37:5F
                DirName:/CN=team158-net
                serial:5F:07:6D:61:27:5A:51:6B:1F:36:F0:E7:64:09:99:84:EB:0B:FD:01
            X509v3 Extended Key Usage: 
                TLS Web Server Authentication
            X509v3 Key Usage: 
                Digital Signature, Key Encipherment
            X509v3 Subject Alternative Name: 
                DNS:team158-server
    Signature Algorithm: sha256WithRSAEncryption
    Signature Value:
        6b:a8:aa:74:04:f5:da:c6:eb:87:6b:37:f2:c2:34:f8:3d:24:
        01:a5:e9:a6:7d:b7:bf:bc:4f:1d:99:12:a1:64:20:34:2e:8b:
        d1:3b:c3:65:9e:71:7b:4f:3c:f2:c0:85:47:b1:0d:04:bb:05:
        2f:f6:ce:f8:b5:ec:5f:0e:d4:9c:38:6c:85:5d:93:5d:3a:44:
        8a:d7:7b:c1:9f:88:c3:4a:8b:0c:37:3f:43:b0:2a:43:b1:94:
        e9:fb:3b:8e:b5:bd:af:75:9e:6a:46:1e:c9:c9:88:e2:e1:85:
        ce:fa:dd:44:f4:b4:65:ed:b6:cf:65:5e:70:e8:80:0e:be:f1:
        56:df:13:95:92:db:b9:6d:fd:e8:0f:09:a3:61:0c:7d:2d:92:
        45:23:bb:52:aa:37:8c:8d:00:35:11:10:29:68:a8:8b:20:be:
        df:fa:ae:d8:9c:a9:14:b2:37:30:41:c9:cd:2c:e8:3b:3d:8c:
        2f:dd:f1:b0:a4:02:24:a1:5d:98:28:d2:b9:f9:a9:69:84:e2:
        eb:61:13:aa:aa:aa:6e:51:61:82:ae:41:10:a1:30:f7:99:b7:
        88:fc:54:8f:84:33:e9:68:96:36:17:87:d7:77:58:68:0b:59:
        9a:55:ca:94:98:b6:f4:6b:ac:bf:5a:cb:b5:ff:95:16:5c:f1:
        25:fc:63:b3
-----BEGIN CERTIFICATE-----
MIIDdzCCAl+gAwIBAgIQOH6HcAXOWoWCxEUF7s54dDANBgkqhkiG9w0BAQsFADAW
MRQwEgYDVQQDDAt0ZWFtMTU4LW5ldDAeFw0yMzExMDQxMTMwNDRaFw0yNjEwMTkx
MTMwNDRaMBkxFzAVBgNVBAMMDnRlYW0xNTgtc2VydmVyMIIBIjANBgkqhkiG9w0B
AQEFAAOCAQ8AMIIBCgKCAQEA5O//vpBwK5+X5ndYlfEGSgTWaqwpocnqM6Ydce5I
TFu3twMMLzTrOEan+0SOGnwwsk6l4LFmz1m3nonrO55DCUQF2H5Muw3CKb/TA1IE
oK3vYQbIz0dUcgZzqBJwkITHn8hCGhp+sAsPe5l8zPlNR1OG9ZkTHoJwN7nVGtya
6Qjwl0HAd6VjEj5HFf6j4kEEFiG92dbqu59O7F5VxjHcPmOqqNXn0HJ7XM+l1O2x
GUIQReFf9ormK3Qr5BS76nO4L6QGkdjZK6D9ijUHBYaEfCxDOZXrCb6lcLcSWan5
KRCTa5Tn6bCKS77QXqY9/vTgMIOG6qjHkIn7XbEHtehP7wIDAQABo4G9MIG6MAkG
A1UdEwQCMAAwHQYDVR0OBBYEFJILy7h9dup1uuTtiJaQWapH1L8nMFEGA1UdIwRK
MEiAFGlLwa5NMXefoftArium7+k4vzdfoRqkGDAWMRQwEgYDVQQDDAt0ZWFtMTU4
LW5ldIIUXwdtYSdaUWsfNvDnZAmZhOsL/QEwEwYDVR0lBAwwCgYIKwYBBQUHAwEw
CwYDVR0PBAQDAgWgMBkGA1UdEQQSMBCCDnRlYW0xNTgtc2VydmVyMA0GCSqGSIb3
DQEBCwUAA4IBAQBrqKp0BPXaxuuHazfywjT4PSQBpemmfbe/vE8dmRKhZCA0LovR
O8NlnnF7TzzywIVHsQ0EuwUv9s74texfDtScOGyFXZNdOkSK13vBn4jDSosMNz9D
sCpDsZTp+zuOtb2vdZ5qRh7JyYji4YXO+t1E9LRl7bbPZV5w6IAOvvFW3xOVktu5
bf3oDwmjYQx9LZJFI7tSqjeMjQA1ERApaKiLIL7f+q7YnKkUsjcwQcnNLOg7PYwv
3fGwpAIkoV2YKNK5+alphOLrYROqqqpuUWGCrkEQoTD3mbeI/FSPhDPpaJY2F4fX
d1hoC1maVcqUmLb0a6y/Wsu1/5UWXPEl/GOz
-----END CERTIFICATE-----
