Certificate:
    Data:
        Version: 3 (0x2)
        Serial Number:
            5b:50:f1:73:eb:85:a0:0b:dc:97:c7:12:0f:98:75:67
        Signature Algorithm: sha256WithRSAEncryption
        Issuer: CN=team158-net
        Validity
            Not Before: Nov  3 20:42:04 2023 GMT
            Not After : Oct 18 20:42:04 2026 GMT
        Subject: CN=team158-client
        Subject Public Key Info:
            Public Key Algorithm: rsaEncryption
                Public-Key: (2048 bit)
                Modulus:
                    00:b7:65:78:a0:16:2e:15:74:79:0d:53:b9:39:45:
                    25:e9:f3:24:a0:97:2b:c4:56:cb:03:85:18:87:d8:
                    78:55:b0:0f:e0:87:9a:5a:48:ae:a6:4d:4f:ef:3b:
                    9b:dd:9c:74:e4:d3:54:92:d9:fb:71:3a:bf:2e:87:
                    84:75:c7:7b:16:92:32:f5:f7:d3:86:e7:88:f8:ff:
                    2c:41:14:48:3d:b2:1d:46:3a:15:3e:e3:d2:3b:b2:
                    d3:99:9a:06:15:51:bc:6d:1b:bb:79:7a:99:7e:58:
                    06:e2:94:d7:e5:7f:bd:7f:c5:a5:15:4b:c1:7c:8a:
                    fc:b8:50:09:08:88:9e:b4:73:33:ae:d9:76:8e:c9:
                    7a:c8:a9:6e:88:4c:bd:f2:12:58:7f:85:ad:61:f7:
                    67:e9:23:72:bb:6b:c5:fa:76:97:fd:60:3d:28:fc:
                    b9:70:a8:b4:73:df:e0:50:61:88:ed:1c:be:cc:41:
                    5f:b2:2e:e3:36:2c:89:3e:35:40:81:b5:ad:fe:1a:
                    68:a9:a5:2a:45:96:37:9c:f4:b1:7a:1d:b3:81:c3:
                    fb:d9:2a:8f:75:ac:64:4d:b2:9a:30:61:12:75:52:
                    cb:7b:fa:54:d8:06:66:3d:8c:7d:c4:c4:07:be:b6:
                    20:56:04:c5:5e:76:ef:4a:d1:d0:c2:e5:bb:18:ca:
                    5a:e9
                Exponent: 65537 (0x10001)
        X509v3 extensions:
            X509v3 Basic Constraints: 
                CA:FALSE
            X509v3 Subject Key Identifier: 
                33:7F:BD:7F:64:84:B1:A6:CE:72:A9:C4:57:AB:03:E9:F7:29:44:22
            X509v3 Authority Key Identifier: 
                keyid:BA:CB:AD:8A:2A:0F:11:D4:B0:B2:F1:33:C2:8C:4E:70:AA:30:DB:2D
                DirName:/CN=team158-net
                serial:64:ED:9C:65:1D:C8:83:37:BB:0A:5C:09:FA:D6:47:72:8C:57:C7:2F
            X509v3 Extended Key Usage: 
                TLS Web Client Authentication
            X509v3 Key Usage: 
                Digital Signature
    Signature Algorithm: sha256WithRSAEncryption
    Signature Value:
        8d:90:6a:e0:ec:fd:48:fe:c1:9c:03:8f:37:4a:2f:4d:e2:03:
        c5:f1:5b:0f:d7:f4:6e:80:cc:15:04:4e:54:cd:fa:10:a1:87:
        ce:42:f7:cf:7e:3d:2d:89:78:49:ba:d8:b6:a4:49:a1:83:a1:
        b2:5a:87:e0:e2:42:b4:ae:c7:df:90:96:fd:12:44:17:3d:16:
        77:10:02:78:b9:90:aa:b9:0c:56:8b:f5:65:f3:68:ed:f0:0a:
        61:fa:9d:9d:8a:71:76:b9:8b:96:d2:85:5a:54:d0:18:ff:9f:
        bf:a4:46:dc:42:1b:29:84:f9:17:1b:75:90:3b:33:3c:78:36:
        04:ed:f2:94:e1:fe:3c:1c:b5:8d:70:71:d8:d7:75:38:59:76:
        e3:f7:d4:8f:c4:2e:3e:b2:af:30:da:23:6f:13:31:68:63:99:
        d5:01:3e:ed:d1:95:c2:4c:ce:19:8f:f2:86:ea:70:ad:89:dd:
        d9:2f:fd:a1:26:89:d9:78:88:53:ea:bc:76:d1:b3:08:80:e3:
        7d:0c:f1:e8:57:85:f4:bd:90:c0:94:4b:09:14:ca:47:7b:9e:
        b7:d5:f5:9d:e1:a7:66:95:61:c5:3b:a8:46:70:6b:8a:fd:77:
        1a:45:01:fe:51:29:ab:46:1a:26:c2:be:22:e9:7d:f4:e8:29:
        03:75:26:b3
-----BEGIN CERTIFICATE-----
MIIDXDCCAkSgAwIBAgIQW1Dxc+uFoAvcl8cSD5h1ZzANBgkqhkiG9w0BAQsFADAW
MRQwEgYDVQQDDAt0ZWFtMTU4LW5ldDAeFw0yMzExMDMyMDQyMDRaFw0yNjEwMTgy
MDQyMDRaMBkxFzAVBgNVBAMMDnRlYW0xNTgtY2xpZW50MIIBIjANBgkqhkiG9w0B
AQEFAAOCAQ8AMIIBCgKCAQEAt2V4oBYuFXR5DVO5OUUl6fMkoJcrxFbLA4UYh9h4
VbAP4IeaWkiupk1P7zub3Zx05NNUktn7cTq/LoeEdcd7FpIy9ffThueI+P8sQRRI
PbIdRjoVPuPSO7LTmZoGFVG8bRu7eXqZflgG4pTX5X+9f8WlFUvBfIr8uFAJCIie
tHMzrtl2jsl6yKluiEy98hJYf4WtYfdn6SNyu2vF+naX/WA9KPy5cKi0c9/gUGGI
7Ry+zEFfsi7jNiyJPjVAgbWt/hpoqaUqRZY3nPSxeh2zgcP72SqPdaxkTbKaMGES
dVLLe/pU2AZmPYx9xMQHvrYgVgTFXnbvStHQwuW7GMpa6QIDAQABo4GiMIGfMAkG
A1UdEwQCMAAwHQYDVR0OBBYEFDN/vX9khLGmznKpxFerA+n3KUQiMFEGA1UdIwRK
MEiAFLrLrYoqDxHUsLLxM8KMTnCqMNstoRqkGDAWMRQwEgYDVQQDDAt0ZWFtMTU4
LW5ldIIUZO2cZR3Igze7ClwJ+tZHcoxXxy8wEwYDVR0lBAwwCgYIKwYBBQUHAwIw
CwYDVR0PBAQDAgeAMA0GCSqGSIb3DQEBCwUAA4IBAQCNkGrg7P1I/sGcA483Si9N
4gPF8VsP1/RugMwVBE5UzfoQoYfOQvfPfj0tiXhJuti2pEmhg6GyWofg4kK0rsff
kJb9EkQXPRZ3EAJ4uZCquQxWi/Vl82jt8Aph+p2dinF2uYuW0oVaVNAY/5+/pEbc
QhsphPkXG3WQOzM8eDYE7fKU4f48HLWNcHHY13U4WXbj99SPxC4+sq8w2iNvEzFo
Y5nVAT7t0ZXCTM4Zj/KG6nCtid3ZL/2hJonZeIhT6rx20bMIgON9DPHoV4X0vZDA
lEsJFMpHe5631fWd4admlWHFO6hGcGuK/XcaRQH+USmrRhomwr4i6X306CkDdSaz
-----END CERTIFICATE-----
