Certificate:
    Data:
        Version: 3 (0x2)
        Serial Number:
            df:c1:0d:10:65:d6:a5:74:f2:36:77:3c:63:7a:d5:ac
        Signature Algorithm: sha256WithRSAEncryption
        Issuer: CN=team158-net
        Validity
            Not Before: Nov  4 10:43:28 2023 GMT
            Not After : Oct 19 10:43:28 2026 GMT
        Subject: CN=team158-client
        Subject Public Key Info:
            Public Key Algorithm: rsaEncryption
                Public-Key: (2048 bit)
                Modulus:
                    00:c5:08:9f:8d:2a:e3:d5:03:20:b0:65:98:e0:fe:
                    1a:c0:93:0c:0d:46:8d:9b:47:e7:16:7c:e0:23:4d:
                    b0:60:5c:33:aa:41:59:a3:46:da:cd:90:59:c0:50:
                    0d:c7:ad:cf:72:96:7d:eb:ea:7e:e0:b3:77:dc:dc:
                    35:7e:50:3a:a8:79:c4:03:6c:29:b4:df:32:31:98:
                    50:46:19:8b:75:7e:fc:8b:da:05:2a:7d:b3:93:ef:
                    3e:da:85:13:7a:a6:b0:a1:5f:5c:9e:de:57:c8:2b:
                    3e:9d:34:68:fa:0c:65:03:f6:dd:da:e7:18:5b:e2:
                    75:10:f2:e3:f8:1b:68:54:58:73:cb:5c:a8:46:42:
                    35:19:d4:17:fa:60:07:29:e0:a6:ba:90:45:73:59:
                    b0:19:dd:02:26:5e:ab:6b:9d:09:00:b4:f5:8f:94:
                    ef:b4:a6:40:0e:cd:94:21:00:a1:6b:aa:a8:97:c4:
                    10:fb:3e:a1:42:f9:04:be:bf:ae:a5:9c:3c:4d:24:
                    74:fa:cd:a3:57:66:34:2c:27:bf:d1:ce:f3:0d:82:
                    d3:61:98:38:f0:72:08:b8:96:d0:c0:ae:b3:0d:5d:
                    6d:10:97:3c:a2:1b:cc:2b:f3:af:b4:86:95:61:2c:
                    8e:ad:1b:0a:cd:56:f4:ef:b4:a1:2d:b4:2a:55:af:
                    d9:17
                Exponent: 65537 (0x10001)
        X509v3 extensions:
            X509v3 Basic Constraints: 
                CA:FALSE
            X509v3 Subject Key Identifier: 
                A7:38:62:2C:CC:D4:18:9A:FF:11:76:15:9C:CA:75:9D:C8:90:23:8A
            X509v3 Authority Key Identifier: 
                keyid:1F:71:17:C8:E1:83:9C:47:63:13:E4:83:55:EB:A9:E5:84:75:79:D8
                DirName:/CN=team158-net
                serial:73:77:70:C4:E8:9D:EB:83:7E:17:1E:B0:4C:52:D1:29:B5:99:63:B9
            X509v3 Extended Key Usage: 
                TLS Web Client Authentication
            X509v3 Key Usage: 
                Digital Signature
    Signature Algorithm: sha256WithRSAEncryption
    Signature Value:
        71:d3:d3:34:7e:3f:8e:70:42:7a:93:15:b7:38:aa:73:2e:f1:
        01:8a:86:24:7d:a5:2c:a9:46:75:2f:ce:f5:94:d2:9e:49:ac:
        7c:ab:30:2f:ae:69:8d:fc:0f:9c:39:a7:d8:10:d2:5e:ac:b3:
        0c:2f:a4:89:2f:35:7c:b1:e5:d6:5a:0e:5e:ed:f3:7b:5f:d3:
        9c:ae:94:3c:65:53:f8:43:b1:09:a8:a8:0a:e7:e3:3e:3d:42:
        9c:a7:15:1f:a2:d8:06:ce:2a:d3:ee:7d:1e:66:01:c4:f5:4b:
        d1:2f:64:b4:c3:4a:f7:82:0d:08:76:a1:56:ba:a8:a1:4b:30:
        67:af:ff:72:74:c3:99:c8:4c:d1:9b:bd:ae:84:ca:1c:2b:d4:
        08:ab:89:45:77:a9:cf:75:61:81:1a:af:d7:a5:4a:82:99:8f:
        38:80:ef:cb:9a:f2:a1:81:c0:1e:68:07:64:12:d5:ed:1d:28:
        d7:f0:28:46:5e:ab:ac:ee:e7:7c:3b:b7:e7:f2:ca:d1:05:75:
        15:48:52:1e:4c:63:db:bb:2a:c9:e7:e7:4a:de:66:91:2e:d1:
        38:99:b7:59:53:a9:08:aa:d2:9c:84:60:44:7b:da:91:eb:c8:
        3b:90:10:36:d8:ee:a1:79:f8:94:0f:d2:80:bb:72:d2:59:b3:
        26:39:7f:1a
-----BEGIN CERTIFICATE-----
MIIDXTCCAkWgAwIBAgIRAN/BDRBl1qV08jZ3PGN61awwDQYJKoZIhvcNAQELBQAw
FjEUMBIGA1UEAwwLdGVhbTE1OC1uZXQwHhcNMjMxMTA0MTA0MzI4WhcNMjYxMDE5
MTA0MzI4WjAZMRcwFQYDVQQDDA50ZWFtMTU4LWNsaWVudDCCASIwDQYJKoZIhvcN
AQEBBQADggEPADCCAQoCggEBAMUIn40q49UDILBlmOD+GsCTDA1GjZtH5xZ84CNN
sGBcM6pBWaNG2s2QWcBQDcetz3KWfevqfuCzd9zcNX5QOqh5xANsKbTfMjGYUEYZ
i3V+/IvaBSp9s5PvPtqFE3qmsKFfXJ7eV8grPp00aPoMZQP23drnGFvidRDy4/gb
aFRYc8tcqEZCNRnUF/pgByngprqQRXNZsBndAiZeq2udCQC09Y+U77SmQA7NlCEA
oWuqqJfEEPs+oUL5BL6/rqWcPE0kdPrNo1dmNCwnv9HO8w2C02GYOPByCLiW0MCu
sw1dbRCXPKIbzCvzr7SGlWEsjq0bCs1W9O+0oS20KlWv2RcCAwEAAaOBojCBnzAJ
BgNVHRMEAjAAMB0GA1UdDgQWBBSnOGIszNQYmv8RdhWcynWdyJAjijBRBgNVHSME
SjBIgBQfcRfI4YOcR2MT5INV66nlhHV52KEapBgwFjEUMBIGA1UEAwwLdGVhbTE1
OC1uZXSCFHN3cMToneuDfhcesExS0Sm1mWO5MBMGA1UdJQQMMAoGCCsGAQUFBwMC
MAsGA1UdDwQEAwIHgDANBgkqhkiG9w0BAQsFAAOCAQEAcdPTNH4/jnBCepMVtziq
cy7xAYqGJH2lLKlGdS/O9ZTSnkmsfKswL65pjfwPnDmn2BDSXqyzDC+kiS81fLHl
1loOXu3ze1/TnK6UPGVT+EOxCaioCufjPj1CnKcVH6LYBs4q0+59HmYBxPVL0S9k
tMNK94INCHahVrqooUswZ6//cnTDmchM0Zu9roTKHCvUCKuJRXepz3VhgRqv16VK
gpmPOIDvy5ryoYHAHmgHZBLV7R0o1/AoRl6rrO7nfDu35/LK0QV1FUhSHkxj27sq
yefnSt5mkS7ROJm3WVOpCKrSnIRgRHvakevIO5AQNtjuoXn4lA/SgLty0lmzJjl/
Gg==
-----END CERTIFICATE-----
