Certificate:
    Data:
        Version: 3 (0x2)
        Serial Number:
            41:62:e4:0a:83:b2:2c:e5:3e:e0:cc:46:da:02:cc:3d
        Signature Algorithm: sha256WithRSAEncryption
        Issuer: CN=team79-net
        Validity
            Not Before: Nov  4 10:41:52 2023 GMT
            Not After : Oct 19 10:41:52 2026 GMT
        Subject: CN=team79-server
        Subject Public Key Info:
            Public Key Algorithm: rsaEncryption
                Public-Key: (2048 bit)
                Modulus:
                    00:b3:9f:f6:34:bc:ed:8f:92:6b:d7:c0:43:5b:8b:
                    91:c2:44:c6:e5:69:82:46:75:b3:9e:30:e6:11:ae:
                    97:6d:fd:df:e7:72:24:8a:66:7d:70:39:a7:ce:29:
                    0c:bf:a1:86:6b:87:b3:46:f2:ec:23:2f:5f:ec:fb:
                    1f:35:a4:d9:08:3d:a4:83:8c:f3:9a:1e:71:27:23:
                    3f:60:56:54:6c:36:6d:27:47:c1:f3:a8:08:ee:38:
                    e3:ec:7c:05:95:61:22:3a:ba:7c:53:05:5b:03:fa:
                    23:35:23:ba:16:86:b2:64:c8:09:9f:20:85:64:34:
                    53:2b:4b:17:63:8b:04:1c:1e:9d:ba:8b:95:0f:48:
                    bb:b1:4c:c9:ae:77:7f:63:0f:23:90:8f:6a:b4:05:
                    38:62:ea:7e:f7:5a:f3:1e:c1:97:83:52:80:e7:3a:
                    46:be:66:47:55:ac:fb:1f:a4:a2:62:f2:77:29:0a:
                    cb:c6:c8:19:5a:d3:9a:6d:c1:b7:e8:a1:c7:2e:ba:
                    95:64:5a:c8:17:bf:1b:f3:16:20:78:6f:27:f0:49:
                    f9:9a:49:33:49:43:4b:78:db:71:a8:bf:53:0d:3e:
                    c5:c5:3e:98:89:d6:93:79:26:68:56:16:6b:13:e8:
                    c3:ca:4b:c2:8e:7c:08:8d:c2:9e:34:7c:45:7d:f1:
                    d3:ed
                Exponent: 65537 (0x10001)
        X509v3 extensions:
            X509v3 Basic Constraints: 
                CA:FALSE
            X509v3 Subject Key Identifier: 
                6E:24:5C:94:7F:55:3F:CC:60:75:85:D8:46:C7:C1:5C:DA:C4:11:CD
            X509v3 Authority Key Identifier: 
                keyid:EE:44:EB:7C:18:81:0D:6F:68:8A:19:1C:6F:96:EB:62:86:BD:2E:30
                DirName:/CN=team79-net
                serial:4C:8A:70:BF:30:EC:C9:14:71:02:BB:25:21:08:1C:7D:81:90:61:CF
            X509v3 Extended Key Usage: 
                TLS Web Server Authentication
            X509v3 Key Usage: 
                Digital Signature, Key Encipherment
            X509v3 Subject Alternative Name: 
                DNS:team79-server
    Signature Algorithm: sha256WithRSAEncryption
    Signature Value:
        0a:d9:89:da:dd:b9:52:71:46:1a:93:b2:d0:e5:e9:1d:21:73:
        df:32:53:99:b7:f9:4c:7d:86:6c:8a:f0:8b:59:28:3f:ee:a2:
        f2:7b:da:dd:0d:af:1b:10:d7:a2:08:89:6f:10:35:88:58:19:
        b7:32:29:33:29:5e:54:e7:20:78:6c:64:a2:31:e8:ff:90:00:
        ca:5c:25:d7:2a:a2:78:a1:bc:c2:d7:78:44:93:95:54:68:9f:
        6c:a5:19:ca:03:b8:57:58:a4:19:e3:9f:f7:ff:34:6c:a3:5d:
        6f:e4:8e:f8:05:5e:14:c8:b7:dd:fd:d9:aa:77:a1:c7:e4:d2:
        8d:7b:f5:9d:db:4e:e0:ce:c3:d2:af:e4:66:ff:30:b4:c9:db:
        8b:d7:3b:ca:18:fe:16:8d:2a:24:ca:80:8b:1d:71:d9:c3:d7:
        f5:4a:7d:3c:2d:20:09:27:74:9e:e5:8a:14:3c:e5:d7:e5:c0:
        a6:5e:0d:61:d9:8d:a0:57:ed:9b:d7:ba:70:c6:45:94:dc:e6:
        e4:6a:ec:cb:90:b7:5a:c4:f7:a0:43:96:7e:78:b4:7c:30:12:
        de:45:1f:92:c3:57:14:13:7b:9d:14:d5:b3:87:09:96:0a:ef:
        0b:09:b6:1c:6c:e6:81:a2:90:66:e4:1a:ae:25:f7:e5:f5:19:
        1c:e3:81:4d
-----BEGIN CERTIFICATE-----
MIIDczCCAlugAwIBAgIQQWLkCoOyLOU+4MxG2gLMPTANBgkqhkiG9w0BAQsFADAV
MRMwEQYDVQQDDAp0ZWFtNzktbmV0MB4XDTIzMTEwNDEwNDE1MloXDTI2MTAxOTEw
NDE1MlowGDEWMBQGA1UEAwwNdGVhbTc5LXNlcnZlcjCCASIwDQYJKoZIhvcNAQEB
BQADggEPADCCAQoCggEBALOf9jS87Y+Sa9fAQ1uLkcJExuVpgkZ1s54w5hGul239
3+dyJIpmfXA5p84pDL+hhmuHs0by7CMvX+z7HzWk2Qg9pIOM85oecScjP2BWVGw2
bSdHwfOoCO444+x8BZVhIjq6fFMFWwP6IzUjuhaGsmTICZ8ghWQ0UytLF2OLBBwe
nbqLlQ9Iu7FMya53f2MPI5CParQFOGLqfvda8x7Bl4NSgOc6Rr5mR1Ws+x+komLy
dykKy8bIGVrTmm3Bt+ihxy66lWRayBe/G/MWIHhvJ/BJ+ZpJM0lDS3jbcai/Uw0+
xcU+mInWk3kmaFYWaxPow8pLwo58CI3CnjR8RX3x0+0CAwEAAaOBuzCBuDAJBgNV
HRMEAjAAMB0GA1UdDgQWBBRuJFyUf1U/zGB1hdhGx8Fc2sQRzTBQBgNVHSMESTBH
gBTuROt8GIENb2iKGRxvlutihr0uMKEZpBcwFTETMBEGA1UEAwwKdGVhbTc5LW5l
dIIUTIpwvzDsyRRxArslIQgcfYGQYc8wEwYDVR0lBAwwCgYIKwYBBQUHAwEwCwYD
VR0PBAQDAgWgMBgGA1UdEQQRMA+CDXRlYW03OS1zZXJ2ZXIwDQYJKoZIhvcNAQEL
BQADggEBAArZidrduVJxRhqTstDl6R0hc98yU5m3+Ux9hmyK8ItZKD/uovJ72t0N
rxsQ16IIiW8QNYhYGbcyKTMpXlTnIHhsZKIx6P+QAMpcJdcqonihvMLXeESTlVRo
n2ylGcoDuFdYpBnjn/f/NGyjXW/kjvgFXhTIt9392ap3ocfk0o179Z3bTuDOw9Kv
5Gb/MLTJ24vXO8oY/haNKiTKgIsdcdnD1/VKfTwtIAkndJ7lihQ85dflwKZeDWHZ
jaBX7ZvXunDGRZTc5uRq7MuQt1rE96BDln54tHwwEt5FH5LDVxQTe50U1bOHCZYK
7wsJthxs5oGikGbkGq4l9+X1GRzjgU0=
-----END CERTIFICATE-----
