Certificate:
    Data:
        Version: 3 (0x2)
        Serial Number:
            62:d8:d7:33:ef:c8:96:11:f0:ac:93:10:ce:23:9d:ee
        Signature Algorithm: sha256WithRSAEncryption
        Issuer: CN=team79-net
        Validity
            Not Before: Nov  4 11:28:54 2023 GMT
            Not After : Oct 19 11:28:54 2026 GMT
        Subject: CN=team79-client
        Subject Public Key Info:
            Public Key Algorithm: rsaEncryption
                Public-Key: (2048 bit)
                Modulus:
                    00:f0:66:e5:33:c8:ba:7c:6c:73:3e:d8:38:98:db:
                    d5:00:f5:31:8a:20:de:6a:db:8d:eb:8c:d6:53:52:
                    6e:0a:44:b9:e8:da:b8:e0:fc:73:da:f5:46:eb:2e:
                    46:fa:af:c7:8d:1c:bb:a6:a9:18:45:a6:86:87:a9:
                    fd:6b:b0:46:37:f8:5c:87:23:4c:be:8d:4f:9f:19:
                    ca:fb:23:32:82:6f:5a:c0:fb:07:53:d3:c2:a2:58:
                    ae:10:a3:3a:05:86:10:11:13:ae:c3:a1:e5:70:39:
                    e7:bb:78:96:3e:75:c8:19:a6:4a:98:39:1c:52:9e:
                    ea:de:51:b6:3a:6a:9f:21:ef:0c:15:d7:10:24:e4:
                    7b:3c:5c:cc:92:34:ae:b5:51:75:a8:6e:64:17:8e:
                    34:ee:2d:3b:8d:6a:a8:08:f9:e5:df:ff:45:f9:84:
                    30:a1:a9:42:5d:e2:e7:9b:96:f1:60:d5:9b:b6:c0:
                    b7:5f:8b:63:2c:47:98:c6:41:d9:b9:76:4f:4b:31:
                    ff:36:f9:c1:c9:75:e9:a4:ca:09:12:23:ed:36:22:
                    00:6f:19:a0:63:53:30:74:eb:a5:fa:fc:f6:bf:45:
                    68:d1:d5:68:b6:64:2c:64:a8:d7:77:11:05:80:62:
                    72:2f:08:26:81:b6:ea:be:a6:b1:29:c9:a1:f9:5c:
                    56:c5
                Exponent: 65537 (0x10001)
        X509v3 extensions:
            X509v3 Basic Constraints: 
                CA:FALSE
            X509v3 Subject Key Identifier: 
                98:7E:F7:DE:A6:F8:39:26:4C:7A:D7:BD:B5:DC:F9:E1:16:56:DE:75
            X509v3 Authority Key Identifier: 
                keyid:7A:D4:24:1E:C6:A8:FD:79:AA:AD:E8:BF:63:3C:4B:2A:D8:6A:11:27
                DirName:/CN=team79-net
                serial:28:6E:71:7C:47:DA:3B:E1:2C:42:42:26:7A:95:13:85:84:BB:8D:D6
            X509v3 Extended Key Usage: 
                TLS Web Client Authentication
            X509v3 Key Usage: 
                Digital Signature
    Signature Algorithm: sha256WithRSAEncryption
    Signature Value:
        bf:b0:4a:90:b4:3a:e9:de:78:22:0c:aa:8e:9b:63:bb:f0:fd:
        59:90:a1:d6:a4:bc:5c:99:97:04:f9:ae:4a:d7:23:3f:19:94:
        f7:01:f2:cd:fe:89:b1:91:54:85:72:10:2e:f5:f2:77:bc:dd:
        17:fc:ce:0c:b7:f6:63:f1:a8:1d:0f:10:20:b0:8f:cd:9a:b7:
        c6:73:78:69:1e:e9:34:b5:64:5e:b8:82:80:ef:51:ec:8e:50:
        78:ff:5f:30:e4:28:91:73:b1:8b:e7:48:93:cb:84:6b:be:fc:
        79:0c:52:ac:93:10:e5:b9:f4:af:44:e7:df:df:70:82:8c:08:
        a9:01:af:2b:87:f1:9a:04:d6:73:d9:8b:8b:22:f6:f5:e3:6c:
        f8:31:1f:af:b1:f5:f9:9d:1a:b6:e8:d7:b3:1e:c6:fd:1f:5e:
        1d:33:1e:24:9a:f8:54:83:00:92:a8:5a:31:ca:f7:52:d4:38:
        a2:97:eb:07:fb:60:2a:8b:d1:5e:77:e3:c5:aa:f6:3c:b4:0c:
        23:fa:b8:78:7b:8f:c8:90:56:99:98:65:ec:76:fb:2b:e5:e9:
        32:09:46:8d:c4:18:1a:99:31:16:01:2c:41:41:9e:17:1a:0c:
        6c:bc:15:0c:a8:0a:b9:36:ce:f0:cb:f2:67:83:76:80:fe:cc:
        c2:99:66:7f
-----BEGIN CERTIFICATE-----
MIIDWTCCAkGgAwIBAgIQYtjXM+/IlhHwrJMQziOd7jANBgkqhkiG9w0BAQsFADAV
MRMwEQYDVQQDDAp0ZWFtNzktbmV0MB4XDTIzMTEwNDExMjg1NFoXDTI2MTAxOTEx
Mjg1NFowGDEWMBQGA1UEAwwNdGVhbTc5LWNsaWVudDCCASIwDQYJKoZIhvcNAQEB
BQADggEPADCCAQoCggEBAPBm5TPIunxscz7YOJjb1QD1MYog3mrbjeuM1lNSbgpE
uejauOD8c9r1RusuRvqvx40cu6apGEWmhoep/WuwRjf4XIcjTL6NT58ZyvsjMoJv
WsD7B1PTwqJYrhCjOgWGEBETrsOh5XA557t4lj51yBmmSpg5HFKe6t5RtjpqnyHv
DBXXECTkezxczJI0rrVRdahuZBeONO4tO41qqAj55d//RfmEMKGpQl3i55uW8WDV
m7bAt1+LYyxHmMZB2bl2T0sx/zb5wcl16aTKCRIj7TYiAG8ZoGNTMHTrpfr89r9F
aNHVaLZkLGSo13cRBYBici8IJoG26r6msSnJoflcVsUCAwEAAaOBoTCBnjAJBgNV
HRMEAjAAMB0GA1UdDgQWBBSYfvfepvg5Jkx617213PnhFlbedTBQBgNVHSMESTBH
gBR61CQexqj9eaqt6L9jPEsq2GoRJ6EZpBcwFTETMBEGA1UEAwwKdGVhbTc5LW5l
dIIUKG5xfEfaO+EsQkImepUThYS7jdYwEwYDVR0lBAwwCgYIKwYBBQUHAwIwCwYD
VR0PBAQDAgeAMA0GCSqGSIb3DQEBCwUAA4IBAQC/sEqQtDrp3ngiDKqOm2O78P1Z
kKHWpLxcmZcE+a5K1yM/GZT3AfLN/omxkVSFchAu9fJ3vN0X/M4Mt/Zj8agdDxAg
sI/NmrfGc3hpHuk0tWReuIKA71HsjlB4/18w5CiRc7GL50iTy4Rrvvx5DFKskxDl
ufSvROff33CCjAipAa8rh/GaBNZz2YuLIvb142z4MR+vsfX5nRq26NezHsb9H14d
Mx4kmvhUgwCSqFoxyvdS1Diil+sH+2Aqi9Fed+PFqvY8tAwj+rh4e4/IkFaZmGXs
dvsr5ekyCUaNxBgamTEWASxBQZ4XGgxsvBUMqAq5Ns7wy/Jng3aA/szCmWZ/
-----END CERTIFICATE-----
