Certificate:
    Data:
        Version: 3 (0x2)
        Serial Number:
            71:23:c8:70:36:f5:38:9f:4e:11:33:05:63:fc:05:3c
        Signature Algorithm: sha256WithRSAEncryption
        Issuer: CN=team79-net
        Validity
            Not Before: Nov  4 11:28:55 2023 GMT
            Not After : Oct 19 11:28:55 2026 GMT
        Subject: CN=team79-server
        Subject Public Key Info:
            Public Key Algorithm: rsaEncryption
                Public-Key: (2048 bit)
                Modulus:
                    00:ad:3d:9f:cf:b4:cf:0a:6b:de:9d:cb:86:f0:44:
                    d5:81:46:13:4e:54:6a:d2:ce:7d:04:75:23:5b:6a:
                    a2:e0:38:ce:6b:f5:f3:73:52:c5:e3:20:5b:02:2c:
                    fb:8f:1b:bf:11:fe:a9:bb:66:55:91:51:3c:4e:33:
                    00:8a:93:d2:5a:f3:3e:32:7d:c2:66:3e:16:34:f3:
                    b6:dd:32:7a:e9:25:5a:70:3c:63:04:cc:b2:09:9f:
                    cf:74:fe:70:81:19:3f:4a:67:c2:c2:80:1a:5d:c2:
                    06:3d:36:67:89:20:62:6a:53:bb:c0:43:13:2f:cd:
                    58:48:8f:f6:3a:61:7e:2e:af:02:55:94:3f:28:38:
                    6b:00:8e:d1:e1:6b:4b:9a:fa:84:38:69:ef:4c:1a:
                    c3:d1:05:0d:8c:ff:87:2f:b6:eb:66:01:75:40:d6:
                    0a:b5:ce:4f:2c:23:cb:ef:4e:df:52:e9:67:bf:4c:
                    02:78:d8:32:b2:0a:31:ce:17:bd:2c:17:22:ef:bf:
                    cf:78:d2:72:6b:f9:b8:c8:1a:8a:c6:79:ac:1c:f0:
                    26:85:b3:74:39:84:24:46:b9:92:78:7c:01:21:ce:
                    89:7e:99:29:1d:ce:08:9b:8a:4e:d0:b0:27:5e:52:
                    cc:8f:52:a3:27:90:9f:8d:1e:eb:92:e3:f5:9f:43:
                    12:1b
                Exponent: 65537 (0x10001)
        X509v3 extensions:
            X509v3 Basic Constraints: 
                CA:FALSE
            X509v3 Subject Key Identifier: 
                52:EB:B0:88:C5:2F:40:33:96:F9:D7:9A:93:54:78:A5:36:FA:E8:06
            X509v3 Authority Key Identifier: 
                keyid:7A:D4:24:1E:C6:A8:FD:79:AA:AD:E8:BF:63:3C:4B:2A:D8:6A:11:27
                DirName:/CN=team79-net
                serial:28:6E:71:7C:47:DA:3B:E1:2C:42:42:26:7A:95:13:85:84:BB:8D:D6
            X509v3 Extended Key Usage: 
                TLS Web Server Authentication
            X509v3 Key Usage: 
                Digital Signature, Key Encipherment
            X509v3 Subject Alternative Name: 
                DNS:team79-server
    Signature Algorithm: sha256WithRSAEncryption
    Signature Value:
        2b:bb:2f:85:29:83:fc:54:6b:9a:79:58:13:e2:af:32:e6:4a:
        9c:d6:17:cf:bd:ef:5a:e0:31:88:27:ab:93:eb:87:4f:49:35:
        36:02:0e:25:e9:40:46:b1:cc:c9:27:b0:06:c4:e4:d0:37:e8:
        9f:4f:69:a6:bf:19:4c:3a:fd:24:18:f2:0d:7e:be:67:5e:fa:
        26:63:2c:b0:f0:2e:bf:58:2a:52:01:75:1c:9f:28:19:59:fe:
        fc:78:af:e7:11:85:09:39:3f:21:88:f7:43:ac:62:96:87:b2:
        aa:ce:93:76:62:79:08:f7:9e:50:dc:f8:c9:82:aa:20:6c:d1:
        b1:f8:14:15:52:ae:d9:19:a5:dd:0e:7e:0e:27:10:8f:68:0f:
        9b:7b:d0:1c:e5:c6:0d:de:df:15:ff:dd:90:88:21:68:82:bd:
        27:cf:31:7b:78:eb:5c:b8:e7:8c:9d:58:37:70:9e:3a:7e:c3:
        15:9b:57:f2:c9:e1:ae:a1:e2:43:01:fe:24:4e:d1:77:f4:9a:
        3d:a4:41:a8:8b:f0:32:25:d7:cb:7b:c3:57:db:cb:1d:43:c3:
        13:5e:38:03:53:c9:da:17:70:4f:db:f9:01:d9:76:e9:ae:fd:
        ef:ff:86:44:06:97:46:ec:d5:f2:34:30:50:2a:c5:63:07:2f:
        87:49:a1:6e
-----BEGIN CERTIFICATE-----
MIIDczCCAlugAwIBAgIQcSPIcDb1OJ9OETMFY/wFPDANBgkqhkiG9w0BAQsFADAV
MRMwEQYDVQQDDAp0ZWFtNzktbmV0MB4XDTIzMTEwNDExMjg1NVoXDTI2MTAxOTEx
Mjg1NVowGDEWMBQGA1UEAwwNdGVhbTc5LXNlcnZlcjCCASIwDQYJKoZIhvcNAQEB
BQADggEPADCCAQoCggEBAK09n8+0zwpr3p3LhvBE1YFGE05UatLOfQR1I1tqouA4
zmv183NSxeMgWwIs+48bvxH+qbtmVZFRPE4zAIqT0lrzPjJ9wmY+FjTztt0yeukl
WnA8YwTMsgmfz3T+cIEZP0pnwsKAGl3CBj02Z4kgYmpTu8BDEy/NWEiP9jphfi6v
AlWUPyg4awCO0eFrS5r6hDhp70waw9EFDYz/hy+262YBdUDWCrXOTywjy+9O31Lp
Z79MAnjYMrIKMc4XvSwXIu+/z3jScmv5uMgaisZ5rBzwJoWzdDmEJEa5knh8ASHO
iX6ZKR3OCJuKTtCwJ15SzI9SoyeQn40e65Lj9Z9DEhsCAwEAAaOBuzCBuDAJBgNV
HRMEAjAAMB0GA1UdDgQWBBRS67CIxS9AM5b515qTVHilNvroBjBQBgNVHSMESTBH
gBR61CQexqj9eaqt6L9jPEsq2GoRJ6EZpBcwFTETMBEGA1UEAwwKdGVhbTc5LW5l
dIIUKG5xfEfaO+EsQkImepUThYS7jdYwEwYDVR0lBAwwCgYIKwYBBQUHAwEwCwYD
VR0PBAQDAgWgMBgGA1UdEQQRMA+CDXRlYW03OS1zZXJ2ZXIwDQYJKoZIhvcNAQEL
BQADggEBACu7L4Upg/xUa5p5WBPirzLmSpzWF8+971rgMYgnq5Prh09JNTYCDiXp
QEaxzMknsAbE5NA36J9Paaa/GUw6/SQY8g1+vmde+iZjLLDwLr9YKlIBdRyfKBlZ
/vx4r+cRhQk5PyGI90OsYpaHsqrOk3ZieQj3nlDc+MmCqiBs0bH4FBVSrtkZpd0O
fg4nEI9oD5t70Bzlxg3e3xX/3ZCIIWiCvSfPMXt461y454ydWDdwnjp+wxWbV/LJ
4a6h4kMB/iRO0Xf0mj2kQaiL8DIl18t7w1fbyx1DwxNeOANTydoXcE/b+QHZdumu
/e//hkQGl0bs1fI0MFAqxWMHL4dJoW4=
-----END CERTIFICATE-----
