Certificate:
    Data:
        Version: 3 (0x2)
        Serial Number:
            e1:06:82:b5:9f:fa:e7:04:4d:ed:ff:dc:2c:d2:65:f3
        Signature Algorithm: sha256WithRSAEncryption
        Issuer: CN=team79-net
        Validity
            Not Before: Nov  4 10:41:51 2023 GMT
            Not After : Oct 19 10:41:51 2026 GMT
        Subject: CN=team79-client
        Subject Public Key Info:
            Public Key Algorithm: rsaEncryption
                Public-Key: (2048 bit)
                Modulus:
                    00:bf:1f:84:84:75:fa:53:c8:a9:30:42:92:71:40:
                    d3:69:d8:4f:8d:5c:f0:ea:a2:e6:a6:bc:1a:2d:25:
                    26:c4:78:84:e9:09:40:81:0a:0d:cc:0a:a7:2c:cf:
                    90:46:d5:75:9f:07:35:3f:5a:b4:f1:6c:e0:84:6e:
                    41:f6:eb:0c:9b:5a:5d:74:79:f2:46:96:98:b1:1d:
                    13:64:c9:36:bc:1e:ce:c9:88:22:75:7c:fa:91:74:
                    0a:a5:13:f9:61:f2:1f:de:25:2e:2c:2c:41:9e:28:
                    23:7e:c9:c4:d7:44:98:56:52:0c:3d:24:d7:1e:68:
                    11:6c:2b:d4:6a:d7:2c:95:53:b2:71:76:ed:12:c8:
                    25:76:81:9d:38:54:52:6d:eb:95:e9:64:0d:39:af:
                    a1:19:f9:e1:32:07:6f:d7:5e:f4:86:d9:c2:5f:d5:
                    a1:01:90:c2:1a:1c:ae:86:95:e2:1f:bc:34:ec:10:
                    ec:62:9d:d3:52:09:61:74:02:e0:0f:87:c3:8e:a0:
                    0b:92:6f:5d:89:98:37:90:be:7a:b3:12:3e:02:29:
                    f2:2e:98:6c:ea:a1:16:72:dd:90:02:39:e9:0f:ab:
                    f9:64:97:43:1a:03:ac:95:c7:f2:40:e9:43:c9:5f:
                    b6:43:d1:98:c0:c1:bb:f7:22:ea:f9:bb:44:7b:b0:
                    f8:37
                Exponent: 65537 (0x10001)
        X509v3 extensions:
            X509v3 Basic Constraints: 
                CA:FALSE
            X509v3 Subject Key Identifier: 
                33:87:0B:8C:1C:DA:71:9E:83:98:6E:EC:98:B1:52:05:6F:CC:E9:9E
            X509v3 Authority Key Identifier: 
                keyid:EE:44:EB:7C:18:81:0D:6F:68:8A:19:1C:6F:96:EB:62:86:BD:2E:30
                DirName:/CN=team79-net
                serial:4C:8A:70:BF:30:EC:C9:14:71:02:BB:25:21:08:1C:7D:81:90:61:CF
            X509v3 Extended Key Usage: 
                TLS Web Client Authentication
            X509v3 Key Usage: 
                Digital Signature
    Signature Algorithm: sha256WithRSAEncryption
    Signature Value:
        22:b9:ca:a1:5a:10:38:8b:3a:f0:a9:ad:82:35:56:38:59:76:
        28:39:76:39:15:e2:c7:39:b4:9a:00:6c:3b:36:fe:64:cc:23:
        b0:90:8f:61:ed:15:6f:06:4a:82:f0:37:2c:fb:15:a4:8c:34:
        fa:05:eb:24:5f:22:c1:a3:89:ee:0f:36:2d:da:9c:dd:e1:d5:
        ce:26:6c:39:22:b7:99:11:e4:58:3f:45:d4:53:0b:cf:76:50:
        d6:87:2b:84:04:d0:32:d1:09:d5:6b:b3:70:59:61:3e:56:36:
        a9:3c:30:bf:e3:c1:fd:52:19:b0:a8:f1:8c:5f:4b:a2:3a:0c:
        ca:41:d1:0f:7b:91:62:4e:4f:6a:83:81:cb:79:d7:c3:46:3f:
        98:bf:8b:58:73:30:f1:1d:a0:4e:d3:37:75:ee:78:92:48:db:
        55:a5:dd:78:ab:a5:78:e0:e4:3a:ba:9a:f4:f8:ca:99:7a:b0:
        d9:ad:d4:26:d5:f9:28:78:c3:64:3e:4f:d0:4f:2e:8a:97:f7:
        6b:55:a0:fa:70:0c:1b:dd:aa:0c:7d:45:2b:09:ad:bc:72:2e:
        a4:5b:35:26:16:d7:ac:c9:b4:3d:ce:c2:c5:64:65:37:b5:f3:
        1a:c7:33:cf:74:aa:ea:1f:12:f1:c9:4e:6c:8a:18:b9:d8:fd:
        9d:15:9b:ec
-----BEGIN CERTIFICATE-----
MIIDWjCCAkKgAwIBAgIRAOEGgrWf+ucETe3/3CzSZfMwDQYJKoZIhvcNAQELBQAw
FTETMBEGA1UEAwwKdGVhbTc5LW5ldDAeFw0yMzExMDQxMDQxNTFaFw0yNjEwMTkx
MDQxNTFaMBgxFjAUBgNVBAMMDXRlYW03OS1jbGllbnQwggEiMA0GCSqGSIb3DQEB
AQUAA4IBDwAwggEKAoIBAQC/H4SEdfpTyKkwQpJxQNNp2E+NXPDqouamvBotJSbE
eITpCUCBCg3MCqcsz5BG1XWfBzU/WrTxbOCEbkH26wybWl10efJGlpixHRNkyTa8
Hs7JiCJ1fPqRdAqlE/lh8h/eJS4sLEGeKCN+ycTXRJhWUgw9JNceaBFsK9Rq1yyV
U7Jxdu0SyCV2gZ04VFJt65XpZA05r6EZ+eEyB2/XXvSG2cJf1aEBkMIaHK6GleIf
vDTsEOxindNSCWF0AuAPh8OOoAuSb12JmDeQvnqzEj4CKfIumGzqoRZy3ZACOekP
q/lkl0MaA6yVx/JA6UPJX7ZD0ZjAwbv3Iur5u0R7sPg3AgMBAAGjgaEwgZ4wCQYD
VR0TBAIwADAdBgNVHQ4EFgQUM4cLjBzacZ6DmG7smLFSBW/M6Z4wUAYDVR0jBEkw
R4AU7kTrfBiBDW9oihkcb5brYoa9LjChGaQXMBUxEzARBgNVBAMMCnRlYW03OS1u
ZXSCFEyKcL8w7MkUcQK7JSEIHH2BkGHPMBMGA1UdJQQMMAoGCCsGAQUFBwMCMAsG
A1UdDwQEAwIHgDANBgkqhkiG9w0BAQsFAAOCAQEAIrnKoVoQOIs68KmtgjVWOFl2
KDl2ORXixzm0mgBsOzb+ZMwjsJCPYe0VbwZKgvA3LPsVpIw0+gXrJF8iwaOJ7g82
Ldqc3eHVziZsOSK3mRHkWD9F1FMLz3ZQ1ocrhATQMtEJ1WuzcFlhPlY2qTwwv+PB
/VIZsKjxjF9LojoMykHRD3uRYk5PaoOBy3nXw0Y/mL+LWHMw8R2gTtM3de54kkjb
VaXdeKuleODkOrqa9PjKmXqw2a3UJtX5KHjDZD5P0E8uipf3a1Wg+nAMG92qDH1F
KwmtvHIupFs1JhbXrMm0Pc7CxWRlN7XzGsczz3Sq6h8S8clObIoYudj9nRWb7A==
-----END CERTIFICATE-----
