Certificate:
    Data:
        Version: 3 (0x2)
        Serial Number:
            0d:92:07:77:fc:f9:b5:ab:25:04:3b:3b:15:13:2d:fc
        Signature Algorithm: sha256WithRSAEncryption
        Issuer: CN=team146-net
        Validity
            Not Before: Nov  3 20:41:50 2023 GMT
            Not After : Oct 18 20:41:50 2026 GMT
        Subject: CN=team146-client
        Subject Public Key Info:
            Public Key Algorithm: rsaEncryption
                Public-Key: (2048 bit)
                Modulus:
                    00:c2:7f:be:b1:2f:1b:60:da:89:d2:ff:b3:be:a2:
                    02:03:da:7e:fc:c2:2a:c8:26:01:32:d7:b3:22:17:
                    4a:bc:15:e4:d4:da:7f:85:d2:9b:3c:da:36:be:77:
                    ee:25:2c:26:5b:2b:f7:60:78:59:48:2a:44:fb:7a:
                    ef:3c:15:93:c0:d4:a8:50:5e:c5:56:a3:27:e9:6b:
                    ca:52:48:bd:fa:cc:76:9e:3a:05:dc:45:1f:32:9a:
                    4e:50:a5:59:a5:ef:cc:db:71:b6:7f:bb:a2:d8:cb:
                    80:b2:2c:d7:bd:b3:b9:62:63:c5:0f:86:83:8a:b3:
                    3a:53:5d:3a:31:ee:df:20:48:c6:70:1b:8e:96:7e:
                    61:bc:43:5f:df:60:66:65:06:bf:12:df:a1:87:13:
                    e0:a5:52:5a:a9:14:d1:a9:89:34:4b:91:ac:5f:f4:
                    c3:63:68:bc:72:85:29:1b:fc:13:1a:bf:d5:78:6d:
                    59:1c:f3:13:e0:f0:80:c0:79:b2:6d:74:48:96:0f:
                    9a:76:5b:82:ad:7c:8f:84:a8:a8:13:d7:ca:72:b1:
                    96:4e:bf:13:64:c0:b6:d5:83:dc:78:3c:10:df:e8:
                    d6:17:b8:81:b5:ee:03:b5:2d:cd:18:68:80:ae:0c:
                    ba:f7:fd:6c:5a:68:24:e2:5f:97:6e:bb:a0:6d:26:
                    7d:97
                Exponent: 65537 (0x10001)
        X509v3 extensions:
            X509v3 Basic Constraints: 
                CA:FALSE
            X509v3 Subject Key Identifier: 
                92:F0:20:B9:10:61:8F:95:E3:B7:58:C1:1E:BB:50:DE:6F:64:FB:A7
            X509v3 Authority Key Identifier: 
                keyid:A8:7B:26:55:1F:E2:87:28:4E:73:68:0F:4E:75:C1:6B:4F:A3:ED:43
                DirName:/CN=team146-net
                serial:68:56:A5:5F:EB:6C:F3:10:26:46:B3:79:FE:9D:41:15:BB:3C:F2:E4
            X509v3 Extended Key Usage: 
                TLS Web Client Authentication
            X509v3 Key Usage: 
                Digital Signature
    Signature Algorithm: sha256WithRSAEncryption
    Signature Value:
        74:6a:ae:56:65:9c:9e:eb:b3:ae:da:0a:dd:3c:4d:e3:b1:9d:
        c2:3b:31:06:c4:7f:26:7a:36:0d:f9:49:3f:fb:ad:1d:ff:ce:
        3e:c9:a5:f4:93:b1:10:fd:52:74:46:98:04:42:7a:79:94:86:
        93:61:00:21:9e:c0:f9:97:33:b4:55:ac:2b:09:3e:ba:e2:90:
        67:c4:86:68:e1:e6:99:2c:5f:3c:f6:86:ee:98:6d:ec:26:f3:
        db:01:1d:04:79:41:fc:c2:f2:fb:ec:13:6e:36:2f:cd:72:1e:
        19:6b:15:85:26:7d:ee:af:13:b3:59:fa:ff:7f:e5:22:bb:92:
        a0:e3:be:7f:f7:aa:b8:51:1b:e7:e4:e2:83:29:3a:49:15:53:
        16:d0:49:7b:62:b3:cf:e0:b1:dd:c3:cf:f4:85:c5:f7:8b:bc:
        77:9d:ad:d9:6e:f8:2a:75:4c:e1:1c:d6:98:ee:79:99:bd:73:
        23:02:58:1e:0a:86:bf:45:7a:3d:45:37:13:d3:e7:29:2d:ac:
        ae:a2:98:61:e2:11:4b:ca:46:c7:de:fe:f3:ce:56:67:2e:ad:
        de:1e:22:6e:6e:32:29:68:9b:ff:2d:a4:96:7a:75:e0:58:9c:
        c5:79:a1:68:6e:dc:93:fe:a4:20:8a:76:b1:ad:ed:5e:db:08:
        5f:03:93:1f
-----BEGIN CERTIFICATE-----
MIIDXDCCAkSgAwIBAgIQDZIHd/z5taslBDs7FRMt/DANBgkqhkiG9w0BAQsFADAW
MRQwEgYDVQQDDAt0ZWFtMTQ2LW5ldDAeFw0yMzExMDMyMDQxNTBaFw0yNjEwMTgy
MDQxNTBaMBkxFzAVBgNVBAMMDnRlYW0xNDYtY2xpZW50MIIBIjANBgkqhkiG9w0B
AQEFAAOCAQ8AMIIBCgKCAQEAwn++sS8bYNqJ0v+zvqICA9p+/MIqyCYBMtezIhdK
vBXk1Np/hdKbPNo2vnfuJSwmWyv3YHhZSCpE+3rvPBWTwNSoUF7FVqMn6WvKUki9
+sx2njoF3EUfMppOUKVZpe/M23G2f7ui2MuAsizXvbO5YmPFD4aDirM6U106Me7f
IEjGcBuOln5hvENf32BmZQa/Et+hhxPgpVJaqRTRqYk0S5GsX/TDY2i8coUpG/wT
Gr/VeG1ZHPMT4PCAwHmybXRIlg+adluCrXyPhKioE9fKcrGWTr8TZMC21YPceDwQ
3+jWF7iBte4DtS3NGGiArgy69/1sWmgk4l+XbrugbSZ9lwIDAQABo4GiMIGfMAkG
A1UdEwQCMAAwHQYDVR0OBBYEFJLwILkQYY+V47dYwR67UN5vZPunMFEGA1UdIwRK
MEiAFKh7JlUf4ocoTnNoD051wWtPo+1DoRqkGDAWMRQwEgYDVQQDDAt0ZWFtMTQ2
LW5ldIIUaFalX+ts8xAmRrN5/p1BFbs88uQwEwYDVR0lBAwwCgYIKwYBBQUHAwIw
CwYDVR0PBAQDAgeAMA0GCSqGSIb3DQEBCwUAA4IBAQB0aq5WZZye67Ou2grdPE3j
sZ3COzEGxH8mejYN+Uk/+60d/84+yaX0k7EQ/VJ0RpgEQnp5lIaTYQAhnsD5lzO0
VawrCT664pBnxIZo4eaZLF889obumG3sJvPbAR0EeUH8wvL77BNuNi/Nch4ZaxWF
Jn3urxOzWfr/f+Uiu5Kg475/96q4URvn5OKDKTpJFVMW0El7YrPP4LHdw8/0hcX3
i7x3na3ZbvgqdUzhHNaY7nmZvXMjAlgeCoa/RXo9RTcT0+cpLayuophh4hFLykbH
3v7zzlZnLq3eHiJubjIpaJv/LaSWenXgWJzFeaFobtyT/qQginaxre1e2whfA5Mf
-----END CERTIFICATE-----
