Certificate:
    Data:
        Version: 3 (0x2)
        Serial Number:
            c1:3b:67:22:33:e4:f4:45:08:32:e3:27:ff:2c:9e:dc
        Signature Algorithm: sha256WithRSAEncryption
        Issuer: CN=team146-net
        Validity
            Not Before: Nov  3 20:41:51 2023 GMT
            Not After : Oct 18 20:41:51 2026 GMT
        Subject: CN=team146-server
        Subject Public Key Info:
            Public Key Algorithm: rsaEncryption
                Public-Key: (2048 bit)
                Modulus:
                    00:a0:a4:04:fe:ad:0b:59:1b:a8:4e:17:e8:91:1b:
                    ca:cc:1a:aa:a8:49:cc:d8:e8:d9:2d:0f:7c:20:bc:
                    c8:e7:a3:ce:e2:12:5d:d9:71:50:b5:94:c8:32:e7:
                    9d:f4:aa:be:8e:85:01:5f:03:9f:42:01:54:27:f6:
                    0f:90:d6:17:42:11:16:d1:f3:7d:57:6a:a1:ab:a9:
                    f4:2e:79:18:c9:e7:e5:35:5a:d9:47:bb:ba:b1:0d:
                    9e:3f:ce:f8:42:6a:d0:b7:67:68:73:b4:1f:a1:85:
                    6b:d1:aa:82:2b:da:1c:29:08:db:89:5b:19:f3:20:
                    dd:a1:3e:96:17:43:1e:65:7e:a4:62:4a:58:4f:cf:
                    a9:2b:73:b3:78:3a:a6:be:52:04:a4:a5:ce:a4:33:
                    d6:2c:9a:84:6c:17:33:bf:63:fa:2d:b4:35:15:4b:
                    e9:67:24:e7:ee:bd:ff:20:d8:90:b0:7f:72:c0:c5:
                    3b:7f:5a:39:b3:ec:4c:ac:fe:15:7a:a5:5f:7c:b1:
                    07:41:b5:d2:cd:47:29:65:eb:2a:a2:39:b3:4a:f3:
                    c1:a1:a6:4f:39:fd:3a:4c:a5:14:d4:19:88:d6:8b:
                    17:11:f4:11:a7:ec:c4:b8:cc:6d:0f:18:c2:9e:ae:
                    35:e6:6b:40:06:05:d9:6c:78:44:96:f2:a1:8e:62:
                    d1:ad
                Exponent: 65537 (0x10001)
        X509v3 extensions:
            X509v3 Basic Constraints: 
                CA:FALSE
            X509v3 Subject Key Identifier: 
                7E:7D:E6:37:37:E1:0F:66:89:80:F3:A1:16:71:14:8B:4E:D3:1C:51
            X509v3 Authority Key Identifier: 
                keyid:A8:7B:26:55:1F:E2:87:28:4E:73:68:0F:4E:75:C1:6B:4F:A3:ED:43
                DirName:/CN=team146-net
                serial:68:56:A5:5F:EB:6C:F3:10:26:46:B3:79:FE:9D:41:15:BB:3C:F2:E4
            X509v3 Extended Key Usage: 
                TLS Web Server Authentication
            X509v3 Key Usage: 
                Digital Signature, Key Encipherment
            X509v3 Subject Alternative Name: 
                DNS:team146-server
    Signature Algorithm: sha256WithRSAEncryption
    Signature Value:
        52:46:fa:b7:f8:46:01:2f:2a:56:58:63:d2:12:c5:27:45:32:
        f1:02:1d:b4:f5:24:2c:29:5d:1b:cb:3e:a6:71:a1:f4:8c:d4:
        27:0a:e6:59:33:b8:82:c4:fe:a1:1d:7e:e3:cb:6f:0c:b3:6f:
        a2:60:62:12:8e:07:f9:cb:b2:9d:1a:41:7a:9b:0d:06:cb:24:
        ab:bb:b6:0d:bf:fc:20:f7:9c:70:fa:c3:68:12:0e:c1:26:90:
        49:59:b0:e8:a2:a2:1c:1d:b8:04:4b:0b:85:bf:f7:35:cc:bd:
        dc:de:93:12:12:3e:d3:f5:90:fc:4b:96:a9:27:6e:d4:11:9f:
        20:ed:ee:0b:e9:07:f1:65:7f:1e:74:7d:4d:19:78:da:cc:d2:
        20:6a:92:0f:97:5f:5b:0c:c2:fe:dd:80:3a:0b:64:92:dd:5c:
        ff:92:49:59:89:a7:16:1d:e4:7c:54:64:49:3e:43:95:3d:1b:
        85:95:11:d7:56:f9:da:b9:6a:2b:88:c8:60:74:86:f8:93:7d:
        2a:2e:8f:69:86:a1:12:fc:91:a1:a8:b0:0a:96:f0:2a:76:7e:
        1d:9d:27:59:8b:a8:05:cb:d4:b7:c6:65:ab:f7:36:e5:e5:4d:
        8f:53:ca:c6:23:fc:78:39:2d:d2:35:9c:cc:58:77:54:ef:50:
        21:a1:e8:f1
-----BEGIN CERTIFICATE-----
MIIDeDCCAmCgAwIBAgIRAME7ZyIz5PRFCDLjJ/8sntwwDQYJKoZIhvcNAQELBQAw
FjEUMBIGA1UEAwwLdGVhbTE0Ni1uZXQwHhcNMjMxMTAzMjA0MTUxWhcNMjYxMDE4
MjA0MTUxWjAZMRcwFQYDVQQDDA50ZWFtMTQ2LXNlcnZlcjCCASIwDQYJKoZIhvcN
AQEBBQADggEPADCCAQoCggEBAKCkBP6tC1kbqE4X6JEbyswaqqhJzNjo2S0PfCC8
yOejzuISXdlxULWUyDLnnfSqvo6FAV8Dn0IBVCf2D5DWF0IRFtHzfVdqoaup9C55
GMnn5TVa2Ue7urENnj/O+EJq0LdnaHO0H6GFa9GqgivaHCkI24lbGfMg3aE+lhdD
HmV+pGJKWE/PqStzs3g6pr5SBKSlzqQz1iyahGwXM79j+i20NRVL6Wck5+69/yDY
kLB/csDFO39aObPsTKz+FXqlX3yxB0G10s1HKWXrKqI5s0rzwaGmTzn9OkylFNQZ
iNaLFxH0EafsxLjMbQ8Ywp6uNeZrQAYF2Wx4RJbyoY5i0a0CAwEAAaOBvTCBujAJ
BgNVHRMEAjAAMB0GA1UdDgQWBBR+feY3N+EPZomA86EWcRSLTtMcUTBRBgNVHSME
SjBIgBSoeyZVH+KHKE5zaA9OdcFrT6PtQ6EapBgwFjEUMBIGA1UEAwwLdGVhbTE0
Ni1uZXSCFGhWpV/rbPMQJkazef6dQRW7PPLkMBMGA1UdJQQMMAoGCCsGAQUFBwMB
MAsGA1UdDwQEAwIFoDAZBgNVHREEEjAQgg50ZWFtMTQ2LXNlcnZlcjANBgkqhkiG
9w0BAQsFAAOCAQEAUkb6t/hGAS8qVlhj0hLFJ0Uy8QIdtPUkLCldG8s+pnGh9IzU
JwrmWTO4gsT+oR1+48tvDLNvomBiEo4H+cuynRpBepsNBsskq7u2Db/8IPeccPrD
aBIOwSaQSVmw6KKiHB24BEsLhb/3Ncy93N6TEhI+0/WQ/EuWqSdu1BGfIO3uC+kH
8WV/HnR9TRl42szSIGqSD5dfWwzC/t2AOgtkkt1c/5JJWYmnFh3kfFRkST5DlT0b
hZUR11b52rlqK4jIYHSG+JN9Ki6PaYahEvyRoaiwCpbwKnZ+HZ0nWYuoBcvUt8Zl
q/c25eVNj1PKxiP8eDkt0jWczFh3VO9QIaHo8Q==
-----END CERTIFICATE-----
