Certificate:
    Data:
        Version: 3 (0x2)
        Serial Number:
            2a:be:95:ec:52:75:8f:6f:c6:16:11:0c:d1:0a:fd:de
        Signature Algorithm: sha256WithRSAEncryption
        Issuer: CN=team447-net
        Validity
            Not Before: Nov  4 11:37:32 2023 GMT
            Not After : Oct 19 11:37:32 2026 GMT
        Subject: CN=team447-client
        Subject Public Key Info:
            Public Key Algorithm: rsaEncryption
                Public-Key: (2048 bit)
                Modulus:
                    00:9b:f1:20:d6:e7:3a:69:de:eb:ab:bc:db:ef:a0:
                    f7:c2:73:86:d0:3f:6c:fe:12:23:c8:70:7c:ec:f3:
                    dd:f0:6f:a3:14:8b:70:42:56:4b:08:e8:bb:4c:7c:
                    12:b8:e9:87:eb:89:d7:04:fe:f5:e0:23:c2:bf:5e:
                    1c:18:1a:58:8d:2f:34:a4:fa:81:75:f0:7e:ff:38:
                    28:20:f6:d9:ae:10:ff:75:3f:95:a8:a9:92:66:b2:
                    98:d6:0b:8d:36:50:86:72:3b:e5:59:1a:ad:62:20:
                    d7:ed:d5:6d:f1:b0:4b:82:61:11:f6:4f:c5:29:ca:
                    bd:c0:15:94:73:6b:e9:42:b5:78:a4:92:5d:74:76:
                    c1:71:b9:b2:72:97:4b:6c:60:e1:11:04:ca:15:8b:
                    ea:cb:93:94:07:d8:a9:00:9d:9b:51:ae:87:1f:dd:
                    72:69:ea:cc:56:91:6a:1e:70:53:14:eb:93:e8:f1:
                    3f:54:ec:85:2b:53:40:23:93:d4:41:e1:30:ef:f0:
                    53:33:44:fc:7e:0c:90:39:eb:4f:65:71:53:f9:8a:
                    da:3d:c8:04:93:04:58:52:8b:b2:c6:01:14:9d:5c:
                    00:c2:d1:f7:42:4f:bf:10:f6:d8:42:12:57:f1:3e:
                    a1:62:12:ef:4e:5a:8f:6a:03:63:e9:a7:5c:18:9c:
                    73:b3
                Exponent: 65537 (0x10001)
        X509v3 extensions:
            X509v3 Basic Constraints: 
                CA:FALSE
            X509v3 Subject Key Identifier: 
                82:50:BD:67:21:78:3E:2E:2D:88:F5:DF:15:37:FB:CD:42:CA:51:31
            X509v3 Authority Key Identifier: 
                keyid:5C:EA:4D:57:03:BE:91:E4:87:ED:F2:08:78:A0:39:A8:D2:2E:28:D4
                DirName:/CN=team447-net
                serial:7B:C6:7A:76:E0:6D:EA:A3:3C:26:1D:78:52:62:82:5D:1E:04:12:1B
            X509v3 Extended Key Usage: 
                TLS Web Client Authentication
            X509v3 Key Usage: 
                Digital Signature
    Signature Algorithm: sha256WithRSAEncryption
    Signature Value:
        10:a2:d9:55:10:ed:1b:e6:17:17:00:6c:b0:0f:96:06:0f:9e:
        d4:55:39:ae:42:1d:67:49:9f:29:06:dd:cf:58:59:21:c6:64:
        a7:86:58:c9:3d:8e:5b:e9:a5:e4:a3:40:20:10:83:8c:05:b6:
        55:fa:94:39:08:a0:3f:5c:26:5e:b8:61:fa:db:6f:18:e6:60:
        5b:04:2c:60:e3:4e:f0:04:d9:d7:e1:5b:d7:f4:b6:4a:b3:30:
        85:4d:59:35:f8:c5:40:e5:66:a2:cc:95:e2:a4:ad:66:d8:08:
        7a:9f:69:4a:f7:44:68:93:28:62:01:7e:8e:4f:dd:e9:7d:5e:
        19:be:bf:9e:cf:82:bf:f0:9c:b7:25:dd:2d:56:4a:c1:e4:d6:
        85:03:75:75:cf:cd:27:9c:50:77:48:6f:cb:01:77:10:c8:da:
        28:8d:60:55:7b:92:92:95:58:88:83:ca:f4:9f:03:df:42:54:
        c7:81:85:28:b8:9f:4b:aa:96:9b:00:91:a8:31:d9:07:ae:0f:
        da:08:82:47:7d:b6:cb:17:af:9a:be:66:cf:0f:7f:e6:5d:20:
        ef:65:55:29:57:46:c5:bc:ea:fa:22:1a:8c:64:bc:ab:24:a2:
        5b:94:00:3d:50:f8:5f:f8:3f:eb:2f:7a:be:ff:be:7a:6c:f3:
        98:16:e3:a3
-----BEGIN CERTIFICATE-----
MIIDXDCCAkSgAwIBAgIQKr6V7FJ1j2/GFhEM0Qr93jANBgkqhkiG9w0BAQsFADAW
MRQwEgYDVQQDDAt0ZWFtNDQ3LW5ldDAeFw0yMzExMDQxMTM3MzJaFw0yNjEwMTkx
MTM3MzJaMBkxFzAVBgNVBAMMDnRlYW00NDctY2xpZW50MIIBIjANBgkqhkiG9w0B
AQEFAAOCAQ8AMIIBCgKCAQEAm/Eg1uc6ad7rq7zb76D3wnOG0D9s/hIjyHB87PPd
8G+jFItwQlZLCOi7THwSuOmH64nXBP714CPCv14cGBpYjS80pPqBdfB+/zgoIPbZ
rhD/dT+VqKmSZrKY1guNNlCGcjvlWRqtYiDX7dVt8bBLgmER9k/FKcq9wBWUc2vp
QrV4pJJddHbBcbmycpdLbGDhEQTKFYvqy5OUB9ipAJ2bUa6HH91yaerMVpFqHnBT
FOuT6PE/VOyFK1NAI5PUQeEw7/BTM0T8fgyQOetPZXFT+YraPcgEkwRYUouyxgEU
nVwAwtH3Qk+/EPbYQhJX8T6hYhLvTlqPagNj6adcGJxzswIDAQABo4GiMIGfMAkG
A1UdEwQCMAAwHQYDVR0OBBYEFIJQvWcheD4uLYj13xU3+81CylExMFEGA1UdIwRK
MEiAFFzqTVcDvpHkh+3yCHigOajSLijUoRqkGDAWMRQwEgYDVQQDDAt0ZWFtNDQ3
LW5ldIIUe8Z6duBt6qM8Jh14UmKCXR4EEhswEwYDVR0lBAwwCgYIKwYBBQUHAwIw
CwYDVR0PBAQDAgeAMA0GCSqGSIb3DQEBCwUAA4IBAQAQotlVEO0b5hcXAGywD5YG
D57UVTmuQh1nSZ8pBt3PWFkhxmSnhljJPY5b6aXko0AgEIOMBbZV+pQ5CKA/XCZe
uGH6228Y5mBbBCxg407wBNnX4VvX9LZKszCFTVk1+MVA5WaizJXipK1m2Ah6n2lK
90RokyhiAX6OT93pfV4Zvr+ez4K/8Jy3Jd0tVkrB5NaFA3V1z80nnFB3SG/LAXcQ
yNoojWBVe5KSlViIg8r0nwPfQlTHgYUouJ9LqpabAJGoMdkHrg/aCIJHfbbLF6+a
vmbPD3/mXSDvZVUpV0bFvOr6IhqMZLyrJKJblAA9UPhf+D/rL3q+/756bPOYFuOj
-----END CERTIFICATE-----
