Certificate:
    Data:
        Version: 3 (0x2)
        Serial Number:
            2d:40:ac:6c:bc:25:ab:a3:d2:76:e5:d6:f1:ef:6f:f2
        Signature Algorithm: sha256WithRSAEncryption
        Issuer: CN=team447-net
        Validity
            Not Before: Nov  4 11:37:33 2023 GMT
            Not After : Oct 19 11:37:33 2026 GMT
        Subject: CN=team447-server
        Subject Public Key Info:
            Public Key Algorithm: rsaEncryption
                Public-Key: (2048 bit)
                Modulus:
                    00:a4:51:18:b9:ae:5a:09:e2:ac:4d:64:f8:98:45:
                    66:c1:74:ab:6e:28:da:41:49:7b:42:61:ce:ba:66:
                    f5:73:04:aa:16:a5:f8:ce:7e:c0:e9:27:93:b6:e4:
                    5a:45:02:c9:5b:cc:f8:58:bd:70:dd:4d:1e:53:bf:
                    88:1c:f9:af:ed:de:eb:4f:d3:d4:86:36:09:6d:7b:
                    e6:18:cf:0f:b4:b9:7f:be:58:af:b8:4b:7d:c1:63:
                    03:42:ea:6e:00:fb:55:a8:10:4b:7a:6a:d6:cc:9d:
                    05:f1:f0:69:b4:de:e3:e1:75:33:7a:6b:84:7d:fa:
                    d0:be:84:95:91:bd:12:6b:58:62:fd:53:f5:9d:2b:
                    9d:03:c5:1a:89:d2:3a:07:c4:d3:c2:d7:38:0e:fa:
                    e1:05:f1:b3:ca:56:09:3c:04:a6:d2:81:b6:3f:d0:
                    20:7f:1a:60:32:f9:dd:bf:d8:84:e7:d2:d3:ee:e2:
                    1c:9a:d8:52:8b:af:68:79:08:d2:8a:ce:fb:6b:7c:
                    cf:5e:38:fe:75:7a:a1:94:b7:bf:0b:b6:05:30:ce:
                    0e:48:f5:84:c7:7d:d5:2a:68:15:73:85:29:2f:74:
                    a7:74:b9:d2:81:36:81:5c:10:15:15:31:ec:94:b6:
                    86:0d:53:e0:84:54:0f:31:6e:d4:d9:da:91:46:0b:
                    61:d9
                Exponent: 65537 (0x10001)
        X509v3 extensions:
            X509v3 Basic Constraints: 
                CA:FALSE
            X509v3 Subject Key Identifier: 
                D5:7A:79:C9:34:44:44:A3:BE:B6:3B:D2:F6:DA:09:E3:47:B6:B9:18
            X509v3 Authority Key Identifier: 
                keyid:5C:EA:4D:57:03:BE:91:E4:87:ED:F2:08:78:A0:39:A8:D2:2E:28:D4
                DirName:/CN=team447-net
                serial:7B:C6:7A:76:E0:6D:EA:A3:3C:26:1D:78:52:62:82:5D:1E:04:12:1B
            X509v3 Extended Key Usage: 
                TLS Web Server Authentication
            X509v3 Key Usage: 
                Digital Signature, Key Encipherment
            X509v3 Subject Alternative Name: 
                DNS:team447-server
    Signature Algorithm: sha256WithRSAEncryption
    Signature Value:
        17:55:0f:03:56:2a:86:0c:18:8a:b5:3d:ca:08:f0:dd:d8:3d:
        23:84:ac:75:a9:39:ea:e9:d6:e3:56:4f:5f:47:63:6c:76:25:
        91:b4:f1:a2:90:11:4c:33:bf:d9:8f:52:db:25:7a:16:6e:3c:
        df:73:d3:eb:1d:16:37:16:75:82:62:2e:16:db:29:92:12:e8:
        c8:1b:05:73:8e:7d:59:59:1c:6d:16:b0:7e:69:a2:22:21:28:
        3f:c6:ee:17:80:72:ed:04:97:ec:06:29:a6:24:02:03:3c:82:
        0a:d9:bf:f9:05:56:2a:33:c6:c9:7b:95:3a:9e:a1:39:70:12:
        bc:45:21:da:a8:d1:3d:42:8b:1a:68:b1:c5:f6:05:7c:c6:23:
        74:02:d5:ee:30:d6:76:a6:2a:49:8f:b8:2a:19:b4:33:42:28:
        68:a8:bf:14:76:31:ad:f9:81:04:62:8c:e9:55:af:c9:6d:bb:
        b0:55:b4:47:32:c7:c8:e3:b7:b0:fe:a0:6f:48:91:10:d5:66:
        e7:e0:70:14:ea:1d:86:35:67:66:88:49:26:99:22:ce:fc:5b:
        a8:9c:48:22:6e:b1:3a:84:5a:bc:88:a6:e0:0f:65:d4:b9:92:
        0f:f7:8b:12:cf:86:d3:58:89:ab:fc:c7:b7:f5:8e:ca:d4:a5:
        2e:ae:5f:19
-----BEGIN CERTIFICATE-----
MIIDdzCCAl+gAwIBAgIQLUCsbLwlq6PSduXW8e9v8jANBgkqhkiG9w0BAQsFADAW
MRQwEgYDVQQDDAt0ZWFtNDQ3LW5ldDAeFw0yMzExMDQxMTM3MzNaFw0yNjEwMTkx
MTM3MzNaMBkxFzAVBgNVBAMMDnRlYW00NDctc2VydmVyMIIBIjANBgkqhkiG9w0B
AQEFAAOCAQ8AMIIBCgKCAQEApFEYua5aCeKsTWT4mEVmwXSrbijaQUl7QmHOumb1
cwSqFqX4zn7A6SeTtuRaRQLJW8z4WL1w3U0eU7+IHPmv7d7rT9PUhjYJbXvmGM8P
tLl/vlivuEt9wWMDQupuAPtVqBBLemrWzJ0F8fBptN7j4XUzemuEffrQvoSVkb0S
a1hi/VP1nSudA8UaidI6B8TTwtc4DvrhBfGzylYJPASm0oG2P9AgfxpgMvndv9iE
59LT7uIcmthSi69oeQjSis77a3zPXjj+dXqhlLe/C7YFMM4OSPWEx33VKmgVc4Up
L3SndLnSgTaBXBAVFTHslLaGDVPghFQPMW7U2dqRRgth2QIDAQABo4G9MIG6MAkG
A1UdEwQCMAAwHQYDVR0OBBYEFNV6eck0RESjvrY70vbaCeNHtrkYMFEGA1UdIwRK
MEiAFFzqTVcDvpHkh+3yCHigOajSLijUoRqkGDAWMRQwEgYDVQQDDAt0ZWFtNDQ3
LW5ldIIUe8Z6duBt6qM8Jh14UmKCXR4EEhswEwYDVR0lBAwwCgYIKwYBBQUHAwEw
CwYDVR0PBAQDAgWgMBkGA1UdEQQSMBCCDnRlYW00NDctc2VydmVyMA0GCSqGSIb3
DQEBCwUAA4IBAQAXVQ8DViqGDBiKtT3KCPDd2D0jhKx1qTnq6dbjVk9fR2NsdiWR
tPGikBFMM7/Zj1LbJXoWbjzfc9PrHRY3FnWCYi4W2ymSEujIGwVzjn1ZWRxtFrB+
aaIiISg/xu4XgHLtBJfsBimmJAIDPIIK2b/5BVYqM8bJe5U6nqE5cBK8RSHaqNE9
QosaaLHF9gV8xiN0AtXuMNZ2pipJj7gqGbQzQihoqL8UdjGt+YEEYozpVa/Jbbuw
VbRHMsfI47ew/qBvSJEQ1Wbn4HAU6h2GNWdmiEkmmSLO/FuonEgibrE6hFq8iKbg
D2XUuZIP94sSz4bTWImr/Me39Y7K1KUurl8Z
-----END CERTIFICATE-----
