Certificate:
    Data:
        Version: 3 (0x2)
        Serial Number:
            2d:75:5c:e3:3b:04:e8:7b:18:69:1d:f5:85:44:63:19
        Signature Algorithm: sha256WithRSAEncryption
        Issuer: CN=team127-net
        Validity
            Not Before: Nov  4 11:29:59 2023 GMT
            Not After : Oct 19 11:29:59 2026 GMT
        Subject: CN=team127-server
        Subject Public Key Info:
            Public Key Algorithm: rsaEncryption
                Public-Key: (2048 bit)
                Modulus:
                    00:b8:31:20:ef:08:0b:6d:66:9c:20:b6:15:95:ab:
                    ab:06:ac:b0:cb:cc:fb:1d:4b:18:7d:49:52:07:01:
                    7e:87:e7:9a:d9:36:47:61:f4:25:c7:08:a7:84:30:
                    86:8c:46:57:d6:89:4f:8e:1f:10:7a:20:a1:bb:c3:
                    71:67:51:1d:00:d7:66:4f:4c:ec:c3:f3:94:37:4e:
                    48:86:47:40:84:39:6a:f2:b8:f7:4e:ff:67:87:84:
                    2c:75:08:78:bd:24:c2:9c:b5:27:45:01:7e:c5:4e:
                    70:60:28:ba:15:0a:94:f7:63:df:c4:4e:c9:5c:66:
                    0a:fe:a3:e5:9a:7c:94:23:a6:6a:ff:da:b8:14:ef:
                    98:9e:7a:fa:32:9d:b5:d1:8e:79:8c:39:ac:89:80:
                    68:c6:2f:08:fb:cf:a1:8d:27:77:54:94:88:20:74:
                    0c:81:58:de:1d:10:73:8e:a4:55:7c:16:c1:8d:b5:
                    9d:5e:0f:b1:ac:a5:1a:2d:a7:3e:04:14:52:50:56:
                    0a:4e:5e:bc:e9:dd:da:e6:45:7e:2e:15:9d:04:e2:
                    52:76:42:88:4d:27:02:9c:8b:2c:64:17:be:c6:88:
                    0e:13:52:e9:08:35:ab:84:1e:52:2b:5a:24:2c:15:
                    6f:93:ad:36:c5:40:c3:c1:c4:d3:da:d3:2c:f5:18:
                    e7:97
                Exponent: 65537 (0x10001)
        X509v3 extensions:
            X509v3 Basic Constraints: 
                CA:FALSE
            X509v3 Subject Key Identifier: 
                CA:3C:B8:3A:00:69:90:2D:27:85:7A:D7:32:C6:89:97:C1:AD:63:AE
            X509v3 Authority Key Identifier: 
                keyid:4E:B2:F0:58:F4:09:D6:41:97:85:13:AF:5A:DA:66:CE:B8:9B:2A:D2
                DirName:/CN=team127-net
                serial:62:5E:28:53:BE:60:06:63:0E:FD:1A:F8:BF:94:EE:17:9A:13:27:0F
            X509v3 Extended Key Usage: 
                TLS Web Server Authentication
            X509v3 Key Usage: 
                Digital Signature, Key Encipherment
            X509v3 Subject Alternative Name: 
                DNS:team127-server
    Signature Algorithm: sha256WithRSAEncryption
    Signature Value:
        23:fb:8a:dd:b6:d7:1a:bd:b2:39:7e:85:18:08:20:a8:50:fd:
        85:97:56:fc:6d:18:f2:c9:f9:0d:bd:54:5b:66:2d:0b:c8:ed:
        2b:31:d4:75:2c:92:9b:d7:b2:29:81:7a:02:14:e7:7d:eb:e4:
        76:e8:cd:6f:13:7b:76:58:ae:01:2c:3a:bf:4d:98:f5:8d:27:
        b9:16:3e:6e:eb:6f:bf:e8:18:c5:cf:8e:b6:d7:af:0f:e3:b3:
        0b:34:41:4a:09:32:02:63:0e:77:84:af:b4:d7:48:ce:e1:6b:
        03:9a:52:fe:d0:fd:7a:6d:cb:ba:77:2f:d7:f7:7c:33:01:32:
        ab:a3:81:12:de:ea:af:29:e6:b1:cb:87:93:e4:d4:02:47:11:
        94:0a:54:9b:b4:18:7a:02:18:cc:29:20:2e:f7:66:cc:90:85:
        94:f9:bc:42:72:fe:07:64:db:6a:f3:ef:33:f4:a5:f8:4c:c1:
        5b:1e:a2:d5:c4:84:82:31:ed:1b:6e:be:cf:9f:1e:bc:98:c5:
        3b:90:19:43:2b:2d:ce:97:67:d9:01:d3:19:c8:a3:2c:ef:7d:
        e8:6c:53:df:f7:3c:3c:78:37:f7:28:87:c6:94:4f:c6:c5:81:
        82:58:1f:1f:72:0b:04:e1:76:f9:f9:6a:9f:bb:6a:fc:ae:71:
        01:42:f2:28
-----BEGIN CERTIFICATE-----
MIIDdzCCAl+gAwIBAgIQLXVc4zsE6HsYaR31hURjGTANBgkqhkiG9w0BAQsFADAW
MRQwEgYDVQQDDAt0ZWFtMTI3LW5ldDAeFw0yMzExMDQxMTI5NTlaFw0yNjEwMTkx
MTI5NTlaMBkxFzAVBgNVBAMMDnRlYW0xMjctc2VydmVyMIIBIjANBgkqhkiG9w0B
AQEFAAOCAQ8AMIIBCgKCAQEAuDEg7wgLbWacILYVlaurBqywy8z7HUsYfUlSBwF+
h+ea2TZHYfQlxwinhDCGjEZX1olPjh8QeiChu8NxZ1EdANdmT0zsw/OUN05IhkdA
hDlq8rj3Tv9nh4QsdQh4vSTCnLUnRQF+xU5wYCi6FQqU92PfxE7JXGYK/qPlmnyU
I6Zq/9q4FO+Ynnr6Mp210Y55jDmsiYBoxi8I+8+hjSd3VJSIIHQMgVjeHRBzjqRV
fBbBjbWdXg+xrKUaLac+BBRSUFYKTl686d3a5kV+LhWdBOJSdkKITScCnIssZBe+
xogOE1LpCDWrhB5SK1okLBVvk602xUDDwcTT2tMs9RjnlwIDAQABo4G9MIG6MAkG
A1UdEwQCMAAwHQYDVR0OBBYEFMo8uDoAaZAtJ4V61zLGiZfBrWOuMFEGA1UdIwRK
MEiAFE6y8Fj0CdZBl4UTr1raZs64myrSoRqkGDAWMRQwEgYDVQQDDAt0ZWFtMTI3
LW5ldIIUYl4oU75gBmMO/Rr4v5TuF5oTJw8wEwYDVR0lBAwwCgYIKwYBBQUHAwEw
CwYDVR0PBAQDAgWgMBkGA1UdEQQSMBCCDnRlYW0xMjctc2VydmVyMA0GCSqGSIb3
DQEBCwUAA4IBAQAj+4rdttcavbI5foUYCCCoUP2Fl1b8bRjyyfkNvVRbZi0LyO0r
MdR1LJKb17IpgXoCFOd96+R26M1vE3t2WK4BLDq/TZj1jSe5Fj5u62+/6BjFz462
168P47MLNEFKCTICYw53hK+010jO4WsDmlL+0P16bcu6dy/X93wzATKro4ES3uqv
Keaxy4eT5NQCRxGUClSbtBh6AhjMKSAu92bMkIWU+bxCcv4HZNtq8+8z9KX4TMFb
HqLVxISCMe0bbr7Pnx68mMU7kBlDKy3Ol2fZAdMZyKMs733obFPf9zw8eDf3KIfG
lE/GxYGCWB8fcgsE4Xb5+Wqfu2r8rnEBQvIo
-----END CERTIFICATE-----
