Certificate:
    Data:
        Version: 3 (0x2)
        Serial Number:
            3c:fe:91:05:05:2f:2c:e3:0f:dd:7b:9a:65:cf:70:1e
        Signature Algorithm: sha256WithRSAEncryption
        Issuer: CN=team127-net
        Validity
            Not Before: Nov  3 20:41:28 2023 GMT
            Not After : Oct 18 20:41:28 2026 GMT
        Subject: CN=team127-server
        Subject Public Key Info:
            Public Key Algorithm: rsaEncryption
                Public-Key: (2048 bit)
                Modulus:
                    00:b0:8d:9a:c3:b0:93:32:2b:9d:20:71:6b:f0:44:
                    53:9a:7f:65:c1:b7:ef:26:8b:75:5e:f8:df:17:37:
                    a9:58:18:9b:6a:80:bc:fc:28:9d:85:d0:a2:20:47:
                    9e:82:6f:ee:4b:8a:8a:cc:c0:68:b8:f9:06:47:90:
                    ca:69:16:c6:0f:0f:42:0a:32:21:cf:78:25:03:9a:
                    3f:71:8d:2e:4e:3d:89:c6:73:1c:48:ba:37:b2:e3:
                    d2:24:72:41:a6:bf:5e:19:c9:7a:16:55:b0:e7:aa:
                    92:6d:74:ff:5f:96:b2:94:23:67:f9:a8:c4:dd:0c:
                    ed:52:43:48:55:14:f7:e1:b8:b0:84:5f:df:e7:c8:
                    da:29:53:eb:f4:ea:5c:f4:a8:1c:01:3c:7a:4b:e3:
                    4c:ef:de:bf:ac:32:55:0c:31:3d:20:5f:ab:2a:e7:
                    fe:a5:24:31:e0:96:c1:f3:9c:b5:94:9f:0a:a9:b9:
                    f1:24:5c:e1:d3:0b:db:e2:e7:2b:6b:e2:2c:c5:db:
                    91:54:f0:76:92:41:17:ae:1d:93:16:d5:9f:88:96:
                    50:cf:b7:bc:d1:b0:fa:a7:29:1a:c8:de:b9:ac:71:
                    7b:bb:28:91:81:bf:e6:fb:26:55:db:37:75:9c:04:
                    bf:49:64:5a:2d:60:6c:c2:13:d0:94:5f:0d:7f:9d:
                    a0:61
                Exponent: 65537 (0x10001)
        X509v3 extensions:
            X509v3 Basic Constraints: 
                CA:FALSE
            X509v3 Subject Key Identifier: 
                1E:B2:C7:41:23:D2:3A:B4:50:7F:C5:5F:1B:D8:B2:B9:80:DC:86:60
            X509v3 Authority Key Identifier: 
                keyid:9F:11:AE:B6:35:A2:45:5F:4E:92:E2:74:29:E9:81:82:22:C1:77:E8
                DirName:/CN=team127-net
                serial:51:18:F7:2D:CF:4A:AF:1B:40:35:79:4C:21:FA:48:3F:75:E2:3B:A5
            X509v3 Extended Key Usage: 
                TLS Web Server Authentication
            X509v3 Key Usage: 
                Digital Signature, Key Encipherment
            X509v3 Subject Alternative Name: 
                DNS:team127-server
    Signature Algorithm: sha256WithRSAEncryption
    Signature Value:
        8f:5e:0b:fc:e0:dd:a9:00:7e:a9:d1:8e:a1:0c:00:8c:01:96:
        ae:25:d1:e4:97:52:b0:68:5a:0a:23:38:71:40:f1:2a:9f:e7:
        d7:4c:51:49:9a:c3:77:c0:5c:ed:f2:0f:52:61:bc:2e:3e:24:
        f5:70:27:1c:ef:99:f5:ae:7b:1f:34:c5:13:ea:f4:c0:23:24:
        25:8a:95:59:e9:13:c1:fc:cf:9b:9a:0a:2f:8d:3e:14:0d:e4:
        f5:1d:7a:d8:2d:37:69:de:25:ff:1e:a1:06:7d:91:5e:ff:6a:
        b0:f2:a3:fe:bd:ff:58:09:63:29:aa:c8:7e:f6:5b:0c:ad:68:
        e6:ae:54:88:3c:25:d5:a5:cb:27:30:46:a8:46:31:1f:7e:2b:
        8e:9e:42:fb:8d:a6:87:05:95:f0:e5:8d:90:ae:0a:da:66:fb:
        98:72:84:50:77:24:3d:47:c0:a1:bb:c4:1c:97:4e:b4:4e:20:
        a3:59:f9:60:15:79:6e:f9:84:61:14:ef:3a:50:7c:f0:ad:60:
        33:0b:8b:2d:22:e3:e4:e8:23:ba:3e:12:b1:1e:e0:93:c7:c1:
        f7:8a:ff:dd:2e:50:e7:e0:0c:66:6a:b5:20:48:0e:6b:ed:d3:
        5e:ca:34:ca:95:9c:48:a4:ac:0f:ff:f4:a6:90:6e:31:9b:c8:
        f2:4a:f6:97
-----BEGIN CERTIFICATE-----
MIIDdzCCAl+gAwIBAgIQPP6RBQUvLOMP3XuaZc9wHjANBgkqhkiG9w0BAQsFADAW
MRQwEgYDVQQDDAt0ZWFtMTI3LW5ldDAeFw0yMzExMDMyMDQxMjhaFw0yNjEwMTgy
MDQxMjhaMBkxFzAVBgNVBAMMDnRlYW0xMjctc2VydmVyMIIBIjANBgkqhkiG9w0B
AQEFAAOCAQ8AMIIBCgKCAQEAsI2aw7CTMiudIHFr8ERTmn9lwbfvJot1XvjfFzep
WBibaoC8/CidhdCiIEeegm/uS4qKzMBouPkGR5DKaRbGDw9CCjIhz3glA5o/cY0u
Tj2JxnMcSLo3suPSJHJBpr9eGcl6FlWw56qSbXT/X5aylCNn+ajE3QztUkNIVRT3
4biwhF/f58jaKVPr9Opc9KgcATx6S+NM796/rDJVDDE9IF+rKuf+pSQx4JbB85y1
lJ8KqbnxJFzh0wvb4ucra+IsxduRVPB2kkEXrh2TFtWfiJZQz7e80bD6pykayN65
rHF7uyiRgb/m+yZV2zd1nAS/SWRaLWBswhPQlF8Nf52gYQIDAQABo4G9MIG6MAkG
A1UdEwQCMAAwHQYDVR0OBBYEFB6yx0Ej0jq0UH/FXxvYsrmA3IZgMFEGA1UdIwRK
MEiAFJ8RrrY1okVfTpLidCnpgYIiwXfooRqkGDAWMRQwEgYDVQQDDAt0ZWFtMTI3
LW5ldIIUURj3Lc9KrxtANXlMIfpIP3XiO6UwEwYDVR0lBAwwCgYIKwYBBQUHAwEw
CwYDVR0PBAQDAgWgMBkGA1UdEQQSMBCCDnRlYW0xMjctc2VydmVyMA0GCSqGSIb3
DQEBCwUAA4IBAQCPXgv84N2pAH6p0Y6hDACMAZauJdHkl1KwaFoKIzhxQPEqn+fX
TFFJmsN3wFzt8g9SYbwuPiT1cCcc75n1rnsfNMUT6vTAIyQlipVZ6RPB/M+bmgov
jT4UDeT1HXrYLTdp3iX/HqEGfZFe/2qw8qP+vf9YCWMpqsh+9lsMrWjmrlSIPCXV
pcsnMEaoRjEffiuOnkL7jaaHBZXw5Y2QrgraZvuYcoRQdyQ9R8Chu8Qcl060TiCj
WflgFXlu+YRhFO86UHzwrWAzC4stIuPk6CO6PhKxHuCTx8H3iv/dLlDn4AxmarUg
SA5r7dNeyjTKlZxIpKwP//SmkG4xm8jySvaX
-----END CERTIFICATE-----
