Certificate:
    Data:
        Version: 3 (0x2)
        Serial Number:
            7a:d7:04:ab:5b:7a:34:12:95:bc:e7:2a:94:f2:3a:90
        Signature Algorithm: sha256WithRSAEncryption
        Issuer: CN=team127-net
        Validity
            Not Before: Nov  3 20:41:28 2023 GMT
            Not After : Oct 18 20:41:28 2026 GMT
        Subject: CN=team127-client
        Subject Public Key Info:
            Public Key Algorithm: rsaEncryption
                Public-Key: (2048 bit)
                Modulus:
                    00:b3:2f:d8:29:fc:ea:82:0a:21:76:74:30:c3:8d:
                    c6:70:ea:cd:d9:d1:56:c1:df:05:b7:4b:a9:6f:a5:
                    4e:af:34:8d:6e:09:0b:ef:39:70:fa:de:8a:5c:27:
                    30:4d:06:b4:b9:5d:5c:76:83:b1:2d:41:7d:e6:49:
                    0d:0a:f0:73:69:b1:b0:79:6c:ce:a9:7d:b0:eb:d5:
                    92:60:22:a4:ca:c3:f5:83:35:cd:b8:46:6c:3a:69:
                    c6:77:6f:cb:66:41:ac:9d:1e:bc:6a:60:0b:b8:9b:
                    cc:b8:14:81:fc:0c:27:de:db:e7:8b:bb:17:74:46:
                    57:67:22:b3:d8:6d:c5:4e:00:d7:f2:0d:93:f3:54:
                    06:e7:2a:78:f8:75:db:25:d5:61:fe:96:2d:d7:9f:
                    be:7e:2d:0f:5f:4c:44:e1:9e:83:cb:ae:91:23:09:
                    04:0f:e1:c1:a6:40:df:a7:96:95:c8:9d:cd:93:e8:
                    70:78:53:c8:8b:04:f1:7e:d7:e1:a9:4a:d0:ca:20:
                    ef:31:6f:d3:c9:3a:bf:80:42:a3:41:40:66:ac:ec:
                    99:b7:d8:8e:14:1e:f6:02:02:64:5c:ff:c1:7c:33:
                    79:dc:97:14:6a:83:24:0e:ff:44:79:07:c6:ce:69:
                    3c:7c:8b:4c:45:d2:fd:5b:6c:1c:5d:61:78:28:4f:
                    86:53
                Exponent: 65537 (0x10001)
        X509v3 extensions:
            X509v3 Basic Constraints: 
                CA:FALSE
            X509v3 Subject Key Identifier: 
                41:37:36:35:BC:E9:1C:93:20:7C:D3:1D:8B:88:5A:C3:E4:F6:8E:24
            X509v3 Authority Key Identifier: 
                keyid:9F:11:AE:B6:35:A2:45:5F:4E:92:E2:74:29:E9:81:82:22:C1:77:E8
                DirName:/CN=team127-net
                serial:51:18:F7:2D:CF:4A:AF:1B:40:35:79:4C:21:FA:48:3F:75:E2:3B:A5
            X509v3 Extended Key Usage: 
                TLS Web Client Authentication
            X509v3 Key Usage: 
                Digital Signature
    Signature Algorithm: sha256WithRSAEncryption
    Signature Value:
        1a:4e:20:c4:a0:13:46:04:54:e3:03:90:3c:a1:50:dd:e0:28:
        6a:2b:91:ca:64:41:66:ed:37:fb:5c:66:74:2f:5d:f3:ea:a2:
        20:6f:2c:50:de:45:b2:91:32:ed:38:50:f5:53:d4:03:0c:2e:
        05:46:3f:63:e7:e6:1b:70:b7:61:8f:31:41:aa:c4:a2:70:e6:
        17:ae:86:22:bd:da:60:66:a4:79:ff:ac:96:ea:4d:1e:47:96:
        8f:97:d7:45:79:5c:92:61:01:9e:92:8b:b8:6c:9a:7c:e9:f1:
        ef:e1:c8:95:47:51:9a:6d:ae:3f:3b:d4:6f:3e:d5:d9:f3:30:
        af:01:f0:0b:e5:5d:6d:d4:f3:0f:eb:65:77:da:81:6c:ea:07:
        61:ba:01:b4:b8:4e:1b:2f:e8:8e:61:06:90:5d:a1:5b:02:51:
        ff:ea:5c:5a:4f:f2:37:4b:ee:2c:02:83:8a:41:f9:7f:c9:86:
        a0:be:2e:f3:57:79:56:62:e7:42:a0:db:fd:0a:6c:bb:a8:83:
        d8:20:db:82:db:7a:87:7e:d8:bb:7a:84:fd:01:fe:09:2b:62:
        a3:9b:dd:fa:4b:a7:15:f1:48:03:cc:1e:13:75:43:87:0d:37:
        73:3d:1e:d0:5e:0a:3a:b1:81:65:32:ba:42:93:a4:61:70:b9:
        aa:ed:55:58
-----BEGIN CERTIFICATE-----
MIIDXDCCAkSgAwIBAgIQetcEq1t6NBKVvOcqlPI6kDANBgkqhkiG9w0BAQsFADAW
MRQwEgYDVQQDDAt0ZWFtMTI3LW5ldDAeFw0yMzExMDMyMDQxMjhaFw0yNjEwMTgy
MDQxMjhaMBkxFzAVBgNVBAMMDnRlYW0xMjctY2xpZW50MIIBIjANBgkqhkiG9w0B
AQEFAAOCAQ8AMIIBCgKCAQEAsy/YKfzqggohdnQww43GcOrN2dFWwd8Ft0upb6VO
rzSNbgkL7zlw+t6KXCcwTQa0uV1cdoOxLUF95kkNCvBzabGweWzOqX2w69WSYCKk
ysP1gzXNuEZsOmnGd2/LZkGsnR68amALuJvMuBSB/Awn3tvni7sXdEZXZyKz2G3F
TgDX8g2T81QG5yp4+HXbJdVh/pYt15++fi0PX0xE4Z6Dy66RIwkED+HBpkDfp5aV
yJ3Nk+hweFPIiwTxftfhqUrQyiDvMW/TyTq/gEKjQUBmrOyZt9iOFB72AgJkXP/B
fDN53JcUaoMkDv9EeQfGzmk8fItMRdL9W2wcXWF4KE+GUwIDAQABo4GiMIGfMAkG
A1UdEwQCMAAwHQYDVR0OBBYEFEE3NjW86RyTIHzTHYuIWsPk9o4kMFEGA1UdIwRK
MEiAFJ8RrrY1okVfTpLidCnpgYIiwXfooRqkGDAWMRQwEgYDVQQDDAt0ZWFtMTI3
LW5ldIIUURj3Lc9KrxtANXlMIfpIP3XiO6UwEwYDVR0lBAwwCgYIKwYBBQUHAwIw
CwYDVR0PBAQDAgeAMA0GCSqGSIb3DQEBCwUAA4IBAQAaTiDEoBNGBFTjA5A8oVDd
4ChqK5HKZEFm7Tf7XGZ0L13z6qIgbyxQ3kWykTLtOFD1U9QDDC4FRj9j5+YbcLdh
jzFBqsSicOYXroYivdpgZqR5/6yW6k0eR5aPl9dFeVySYQGekou4bJp86fHv4ciV
R1Gaba4/O9RvPtXZ8zCvAfAL5V1t1PMP62V32oFs6gdhugG0uE4bL+iOYQaQXaFb
AlH/6lxaT/I3S+4sAoOKQfl/yYagvi7zV3lWYudCoNv9Cmy7qIPYINuC23qHfti7
eoT9Af4JK2Kjm936S6cV8UgDzB4TdUOHDTdzPR7QXgo6sYFlMrpCk6RhcLmq7VVY
-----END CERTIFICATE-----
