Certificate:
    Data:
        Version: 3 (0x2)
        Serial Number:
            8e:3b:2f:34:c9:44:75:27:f6:29:8b:db:11:79:24:cb
        Signature Algorithm: sha256WithRSAEncryption
        Issuer: CN=team127-net
        Validity
            Not Before: Nov  4 10:42:51 2023 GMT
            Not After : Oct 19 10:42:51 2026 GMT
        Subject: CN=team127-server
        Subject Public Key Info:
            Public Key Algorithm: rsaEncryption
                Public-Key: (2048 bit)
                Modulus:
                    00:b0:6e:2f:fe:95:72:94:df:e7:d2:ed:7d:79:2c:
                    35:1e:11:2f:92:6f:a6:c3:ed:4b:42:4f:8c:84:6d:
                    81:4b:9b:72:12:c2:2d:7f:c5:f1:fb:97:ea:25:f0:
                    59:01:ae:31:d8:6f:01:85:94:72:4b:22:68:3e:d1:
                    bb:a7:fa:8a:00:a1:1b:79:02:68:da:7f:3c:77:65:
                    69:28:e3:7d:ec:c8:54:01:a2:23:21:ad:3a:3e:bb:
                    4a:1d:12:cb:2d:ad:88:88:9c:70:54:44:12:38:9d:
                    c5:ff:c5:33:4d:b3:fa:6b:41:d4:96:d8:54:11:e8:
                    d3:5f:fa:a3:0b:b4:68:2f:a4:5c:87:3b:b1:ad:02:
                    70:f2:57:f0:dc:ba:cd:e5:b4:e7:ba:8f:f1:49:44:
                    6c:f7:ec:77:53:09:9c:e3:3b:0e:1c:85:e0:9b:37:
                    6e:2d:6b:74:2a:9d:56:5a:10:77:d5:5d:39:f5:a7:
                    88:1c:3b:a0:4c:48:f4:4a:7c:ac:d9:ef:70:fd:57:
                    52:35:39:cf:a3:e1:57:3f:63:72:9a:e6:14:4e:82:
                    f5:f2:ab:f9:25:08:64:4d:14:9c:c5:bf:d2:1c:4c:
                    ce:a5:05:84:25:a9:5c:73:40:22:e8:ee:5d:87:7f:
                    a4:7d:c1:b6:e2:fe:ad:3b:94:af:04:fc:59:ca:64:
                    93:df
                Exponent: 65537 (0x10001)
        X509v3 extensions:
            X509v3 Basic Constraints: 
                CA:FALSE
            X509v3 Subject Key Identifier: 
                E6:B9:6E:52:11:B6:F5:19:25:A6:58:38:7E:2C:5A:98:C7:23:17:8B
            X509v3 Authority Key Identifier: 
                keyid:23:DA:82:ED:C4:53:3B:1D:83:87:F3:B8:89:25:79:EA:C0:5F:06:AA
                DirName:/CN=team127-net
                serial:10:FD:85:DA:E1:79:3F:0D:1E:B7:EA:20:6D:2B:2A:BC:FE:4A:5C:35
            X509v3 Extended Key Usage: 
                TLS Web Server Authentication
            X509v3 Key Usage: 
                Digital Signature, Key Encipherment
            X509v3 Subject Alternative Name: 
                DNS:team127-server
    Signature Algorithm: sha256WithRSAEncryption
    Signature Value:
        24:21:c2:1f:99:23:a1:a9:17:07:86:79:d1:aa:38:ee:5d:51:
        14:c2:a2:8e:64:bd:65:ad:ec:13:8f:fe:b4:6c:24:2f:a1:fa:
        42:5f:c0:21:2b:c3:3b:09:c4:1d:6e:54:5a:a5:aa:3d:3c:cc:
        58:83:d3:03:90:25:6e:ac:16:fd:ea:ad:ab:40:ed:3f:02:9a:
        ac:64:80:65:1c:63:58:d1:e0:97:9b:43:ac:51:7c:71:2b:63:
        0b:bf:ce:fa:5d:08:31:45:0d:ff:75:d6:ad:52:50:76:96:a8:
        65:67:21:f7:b0:1d:ea:4a:b2:9b:14:e1:f3:ae:7b:e4:7a:4b:
        ec:a2:2d:a3:f0:31:4d:4f:f8:42:92:b7:db:30:7f:db:cf:e9:
        0a:4e:0c:65:1b:46:67:22:74:19:9b:38:79:04:ae:a3:03:cb:
        7d:72:f6:ab:a0:56:97:52:c7:99:33:37:21:ca:fa:5d:71:ad:
        7f:b0:dc:5b:bf:5b:d5:7b:07:a7:69:e7:d9:5e:5d:42:5e:ab:
        f7:79:0a:a3:75:47:d2:8b:68:44:fb:ef:f9:4d:28:54:22:35:
        d9:a9:2e:d8:a9:36:91:11:b6:23:d6:e9:70:21:5d:d5:f4:d0:
        0a:b6:6a:15:fe:ec:40:f9:58:74:e0:02:15:db:87:0d:66:8e:
        c1:3c:5a:3b
-----BEGIN CERTIFICATE-----
MIIDeDCCAmCgAwIBAgIRAI47LzTJRHUn9imL2xF5JMswDQYJKoZIhvcNAQELBQAw
FjEUMBIGA1UEAwwLdGVhbTEyNy1uZXQwHhcNMjMxMTA0MTA0MjUxWhcNMjYxMDE5
MTA0MjUxWjAZMRcwFQYDVQQDDA50ZWFtMTI3LXNlcnZlcjCCASIwDQYJKoZIhvcN
AQEBBQADggEPADCCAQoCggEBALBuL/6VcpTf59LtfXksNR4RL5JvpsPtS0JPjIRt
gUubchLCLX/F8fuX6iXwWQGuMdhvAYWUcksiaD7Ru6f6igChG3kCaNp/PHdlaSjj
fezIVAGiIyGtOj67Sh0Syy2tiIiccFREEjidxf/FM02z+mtB1JbYVBHo01/6owu0
aC+kXIc7sa0CcPJX8Ny6zeW057qP8UlEbPfsd1MJnOM7DhyF4Js3bi1rdCqdVloQ
d9VdOfWniBw7oExI9Ep8rNnvcP1XUjU5z6PhVz9jcprmFE6C9fKr+SUIZE0UnMW/
0hxMzqUFhCWpXHNAIujuXYd/pH3BtuL+rTuUrwT8Wcpkk98CAwEAAaOBvTCBujAJ
BgNVHRMEAjAAMB0GA1UdDgQWBBTmuW5SEbb1GSWmWDh+LFqYxyMXizBRBgNVHSME
SjBIgBQj2oLtxFM7HYOH87iJJXnqwF8GqqEapBgwFjEUMBIGA1UEAwwLdGVhbTEy
Ny1uZXSCFBD9hdrheT8NHrfqIG0rKrz+Slw1MBMGA1UdJQQMMAoGCCsGAQUFBwMB
MAsGA1UdDwQEAwIFoDAZBgNVHREEEjAQgg50ZWFtMTI3LXNlcnZlcjANBgkqhkiG
9w0BAQsFAAOCAQEAJCHCH5kjoakXB4Z50ao47l1RFMKijmS9Za3sE4/+tGwkL6H6
Ql/AISvDOwnEHW5UWqWqPTzMWIPTA5AlbqwW/eqtq0DtPwKarGSAZRxjWNHgl5tD
rFF8cStjC7/O+l0IMUUN/3XWrVJQdpaoZWch97Ad6kqymxTh86575HpL7KIto/Ax
TU/4QpK32zB/28/pCk4MZRtGZyJ0GZs4eQSuowPLfXL2q6BWl1LHmTM3Icr6XXGt
f7DcW79b1XsHp2nn2V5dQl6r93kKo3VH0otoRPvv+U0oVCI12aku2Kk2kRG2I9bp
cCFd1fTQCrZqFf7sQPlYdOACFduHDWaOwTxaOw==
-----END CERTIFICATE-----
