Certificate:
    Data:
        Version: 3 (0x2)
        Serial Number:
            ce:a8:c1:4d:ef:76:b3:73:00:18:e9:6b:cd:46:a6:26
        Signature Algorithm: sha256WithRSAEncryption
        Issuer: CN=team127-net
        Validity
            Not Before: Nov  4 10:42:51 2023 GMT
            Not After : Oct 19 10:42:51 2026 GMT
        Subject: CN=team127-client
        Subject Public Key Info:
            Public Key Algorithm: rsaEncryption
                Public-Key: (2048 bit)
                Modulus:
                    00:a4:60:d1:c9:0a:cc:db:74:89:cb:6b:3f:de:b9:
                    03:85:59:26:c5:f4:61:81:8d:a9:b7:7c:36:b3:15:
                    b9:b9:34:a0:7b:24:a1:79:7e:54:85:f3:12:91:6f:
                    8d:bd:56:0f:10:44:5a:57:cb:c2:d5:17:f3:ac:e0:
                    77:be:f5:9d:d9:fd:8c:a8:f5:26:0f:af:7b:4a:70:
                    c3:9e:32:d4:a7:4b:c7:68:bf:f8:31:42:9b:6f:94:
                    e5:cd:ff:d5:79:7b:c2:7e:c3:e6:07:3f:d6:51:2c:
                    60:9b:53:09:03:95:a2:e7:d2:4a:36:38:fd:73:32:
                    57:0a:ea:73:64:e0:bc:43:e1:51:e3:60:5b:e4:04:
                    ef:29:c0:b8:93:96:57:43:26:ea:7f:d2:9c:e9:71:
                    3e:40:ff:1f:db:a4:5a:a1:19:e0:14:07:11:74:c8:
                    9e:e9:7a:65:7f:44:27:d8:64:7a:4e:33:65:f3:f5:
                    6d:f2:7b:67:e0:14:1a:bb:31:4f:31:9a:e4:57:13:
                    ef:f4:44:1c:12:30:e7:66:ed:73:ed:8e:a3:31:4a:
                    95:db:0a:3a:62:75:27:bb:71:96:ce:47:24:00:11:
                    a1:a5:5e:b8:86:fe:cf:2b:cc:20:4d:6d:45:f5:68:
                    77:5c:bf:08:d6:eb:46:6c:92:30:66:86:ad:28:84:
                    b1:45
                Exponent: 65537 (0x10001)
        X509v3 extensions:
            X509v3 Basic Constraints: 
                CA:FALSE
            X509v3 Subject Key Identifier: 
                0A:9D:36:33:25:BB:0D:68:9A:50:37:FF:68:24:A8:9F:DF:42:10:43
            X509v3 Authority Key Identifier: 
                keyid:23:DA:82:ED:C4:53:3B:1D:83:87:F3:B8:89:25:79:EA:C0:5F:06:AA
                DirName:/CN=team127-net
                serial:10:FD:85:DA:E1:79:3F:0D:1E:B7:EA:20:6D:2B:2A:BC:FE:4A:5C:35
            X509v3 Extended Key Usage: 
                TLS Web Client Authentication
            X509v3 Key Usage: 
                Digital Signature
    Signature Algorithm: sha256WithRSAEncryption
    Signature Value:
        0b:f8:b4:f6:cb:fa:7e:21:10:e1:80:8a:d1:ce:b5:5f:c0:ff:
        ed:82:e7:26:38:fc:da:7b:3f:85:c4:ed:0a:27:cb:90:9c:b0:
        16:eb:af:6f:27:d5:f9:ce:05:7f:20:23:4d:57:01:35:7e:03:
        5a:5a:24:80:6c:0c:34:4b:da:11:a1:2f:42:eb:9b:24:b6:03:
        1e:ed:7a:f1:d6:5e:4c:bb:ca:29:ce:43:50:98:57:6a:14:af:
        7c:74:82:24:f9:c5:60:08:77:86:d9:10:1d:a2:b2:5f:5a:29:
        4f:50:94:0c:ae:e3:04:5a:3c:82:64:5d:3f:26:d9:91:62:11:
        4d:52:e9:42:33:d7:87:6e:43:c4:e5:88:52:5f:84:94:b5:57:
        88:45:b6:b3:b0:d1:ff:8f:95:1e:cb:54:d6:49:3a:48:50:5a:
        47:46:4f:73:20:01:47:d5:1c:3f:2c:ee:cc:4c:f2:07:e1:bc:
        5f:7c:8d:fe:2f:0e:f0:be:0d:af:61:bd:fb:df:4a:de:80:87:
        cf:e3:3f:e1:f9:79:c6:4c:ad:97:db:b8:01:52:30:c3:41:b4:
        97:dd:59:08:75:65:79:d4:fc:a4:ef:57:27:1f:2e:7f:dd:3c:
        77:87:5a:00:56:1e:39:43:8b:bd:7d:e9:08:60:81:be:9d:81:
        64:70:2d:b7
-----BEGIN CERTIFICATE-----
MIIDXTCCAkWgAwIBAgIRAM6owU3vdrNzABjpa81GpiYwDQYJKoZIhvcNAQELBQAw
FjEUMBIGA1UEAwwLdGVhbTEyNy1uZXQwHhcNMjMxMTA0MTA0MjUxWhcNMjYxMDE5
MTA0MjUxWjAZMRcwFQYDVQQDDA50ZWFtMTI3LWNsaWVudDCCASIwDQYJKoZIhvcN
AQEBBQADggEPADCCAQoCggEBAKRg0ckKzNt0ictrP965A4VZJsX0YYGNqbd8NrMV
ubk0oHskoXl+VIXzEpFvjb1WDxBEWlfLwtUX86zgd771ndn9jKj1Jg+ve0pww54y
1KdLx2i/+DFCm2+U5c3/1Xl7wn7D5gc/1lEsYJtTCQOVoufSSjY4/XMyVwrqc2Tg
vEPhUeNgW+QE7ynAuJOWV0Mm6n/SnOlxPkD/H9ukWqEZ4BQHEXTInul6ZX9EJ9hk
ek4zZfP1bfJ7Z+AUGrsxTzGa5FcT7/REHBIw52btc+2OozFKldsKOmJ1J7txls5H
JAARoaVeuIb+zyvMIE1tRfVod1y/CNbrRmySMGaGrSiEsUUCAwEAAaOBojCBnzAJ
BgNVHRMEAjAAMB0GA1UdDgQWBBQKnTYzJbsNaJpQN/9oJKif30IQQzBRBgNVHSME
SjBIgBQj2oLtxFM7HYOH87iJJXnqwF8GqqEapBgwFjEUMBIGA1UEAwwLdGVhbTEy
Ny1uZXSCFBD9hdrheT8NHrfqIG0rKrz+Slw1MBMGA1UdJQQMMAoGCCsGAQUFBwMC
MAsGA1UdDwQEAwIHgDANBgkqhkiG9w0BAQsFAAOCAQEAC/i09sv6fiEQ4YCK0c61
X8D/7YLnJjj82ns/hcTtCifLkJywFuuvbyfV+c4FfyAjTVcBNX4DWlokgGwMNEva
EaEvQuubJLYDHu168dZeTLvKKc5DUJhXahSvfHSCJPnFYAh3htkQHaKyX1opT1CU
DK7jBFo8gmRdPybZkWIRTVLpQjPXh25DxOWIUl+ElLVXiEW2s7DR/4+VHstU1kk6
SFBaR0ZPcyABR9UcPyzuzEzyB+G8X3yN/i8O8L4Nr2G9+99K3oCHz+M/4fl5xkyt
l9u4AVIww0G0l91ZCHVledT8pO9XJx8uf908d4daAFYeOUOLvX3pCGCBvp2BZHAt
tw==
-----END CERTIFICATE-----
