Certificate:
    Data:
        Version: 3 (0x2)
        Serial Number:
            dc:3b:80:48:dd:99:0c:27:6e:b0:f1:e3:c1:2c:58:c7
        Signature Algorithm: sha256WithRSAEncryption
        Issuer: CN=team127-net
        Validity
            Not Before: Nov  4 11:29:59 2023 GMT
            Not After : Oct 19 11:29:59 2026 GMT
        Subject: CN=team127-client
        Subject Public Key Info:
            Public Key Algorithm: rsaEncryption
                Public-Key: (2048 bit)
                Modulus:
                    00:d5:c3:3a:f3:ea:2b:ce:bb:8d:1a:05:75:0a:6a:
                    7c:5f:84:15:af:d5:e1:b8:66:dc:c4:58:bf:c2:e6:
                    c0:d3:5c:67:dd:f9:02:49:90:dd:74:d9:f8:6f:09:
                    7a:ef:a5:f2:26:2a:9c:0d:cd:61:e2:49:a1:07:3f:
                    5c:0d:d1:a3:68:67:fe:7a:d3:54:01:fa:74:96:b0:
                    25:82:90:02:04:db:4f:23:17:74:73:54:b3:ae:5b:
                    69:b6:1d:10:94:68:81:7d:0d:7a:69:d6:e7:ac:08:
                    15:d1:31:0c:0a:d2:cd:f4:cc:6b:32:85:f3:3c:b6:
                    e5:83:25:af:28:3b:36:8b:63:87:8d:44:22:9e:3d:
                    8e:78:5e:43:5b:cf:bc:3e:ae:86:9f:3e:6a:a8:8b:
                    a7:78:e7:00:f5:52:6e:1d:09:89:f9:93:c7:51:0e:
                    26:1d:af:15:45:1c:4e:18:34:85:9e:28:e3:b0:3d:
                    55:3a:8d:b5:e5:82:ca:10:fa:b9:80:17:a1:ff:fb:
                    57:95:e8:1f:4d:14:73:d3:ca:76:ad:fc:5a:7e:b3:
                    ae:9c:a7:6b:61:3c:18:c4:77:10:d4:4b:c3:bc:70:
                    14:53:30:08:db:42:78:60:c2:0f:63:5b:ec:28:58:
                    d5:b3:21:da:34:be:3e:27:98:f0:62:39:3c:f2:f6:
                    32:df
                Exponent: 65537 (0x10001)
        X509v3 extensions:
            X509v3 Basic Constraints: 
                CA:FALSE
            X509v3 Subject Key Identifier: 
                19:F3:BD:48:AE:99:B0:52:2D:DE:68:C8:1C:D9:C5:16:18:64:B9:0C
            X509v3 Authority Key Identifier: 
                keyid:4E:B2:F0:58:F4:09:D6:41:97:85:13:AF:5A:DA:66:CE:B8:9B:2A:D2
                DirName:/CN=team127-net
                serial:62:5E:28:53:BE:60:06:63:0E:FD:1A:F8:BF:94:EE:17:9A:13:27:0F
            X509v3 Extended Key Usage: 
                TLS Web Client Authentication
            X509v3 Key Usage: 
                Digital Signature
    Signature Algorithm: sha256WithRSAEncryption
    Signature Value:
        a9:db:3b:f1:82:7a:82:1f:d8:10:f8:bc:20:4f:90:4e:f0:28:
        08:92:3e:86:44:59:df:cd:bb:c7:bf:65:7f:c6:75:17:24:27:
        48:20:18:46:e9:02:2b:af:56:ad:bf:12:1a:6a:c5:8c:7a:ec:
        2a:59:6b:62:a8:31:a9:77:6d:01:57:62:37:3c:d2:86:22:a0:
        ce:04:74:d3:92:e0:c9:8e:85:c2:f7:c9:aa:13:b7:27:d5:16:
        8f:48:e3:25:3a:8b:52:08:cd:03:81:0d:cc:2e:8f:fc:9b:80:
        df:57:39:5b:54:2d:f5:29:0f:aa:cb:1b:43:64:3e:25:49:f2:
        ad:e7:ad:d7:b0:ee:25:51:c8:cc:d7:b0:96:8a:71:2e:66:b8:
        60:51:90:1e:39:9d:50:79:87:a9:b0:bd:3f:52:57:b2:7a:57:
        72:18:72:0c:7a:71:0d:2c:9e:93:7d:21:c5:87:3d:e2:b2:bf:
        6f:56:0a:cd:49:bc:74:51:8d:a7:47:e7:fc:33:ad:ce:4b:a4:
        6e:f0:bb:b7:db:de:fa:6d:5b:0f:39:ea:a8:98:d8:ef:d7:7f:
        f5:f8:1e:d9:e4:52:4d:d9:79:59:c5:0a:36:80:b6:9a:39:88:
        46:a0:89:ba:51:de:86:67:6d:a7:f5:08:c4:c8:ce:7b:e7:42:
        f2:44:de:49
-----BEGIN CERTIFICATE-----
MIIDXTCCAkWgAwIBAgIRANw7gEjdmQwnbrDx48EsWMcwDQYJKoZIhvcNAQELBQAw
FjEUMBIGA1UEAwwLdGVhbTEyNy1uZXQwHhcNMjMxMTA0MTEyOTU5WhcNMjYxMDE5
MTEyOTU5WjAZMRcwFQYDVQQDDA50ZWFtMTI3LWNsaWVudDCCASIwDQYJKoZIhvcN
AQEBBQADggEPADCCAQoCggEBANXDOvPqK867jRoFdQpqfF+EFa/V4bhm3MRYv8Lm
wNNcZ935AkmQ3XTZ+G8Jeu+l8iYqnA3NYeJJoQc/XA3Ro2hn/nrTVAH6dJawJYKQ
AgTbTyMXdHNUs65babYdEJRogX0NemnW56wIFdExDArSzfTMazKF8zy25YMlryg7
Notjh41EIp49jnheQ1vPvD6uhp8+aqiLp3jnAPVSbh0JifmTx1EOJh2vFUUcThg0
hZ4o47A9VTqNteWCyhD6uYAXof/7V5XoH00Uc9PKdq38Wn6zrpyna2E8GMR3ENRL
w7xwFFMwCNtCeGDCD2Nb7ChY1bMh2jS+PieY8GI5PPL2Mt8CAwEAAaOBojCBnzAJ
BgNVHRMEAjAAMB0GA1UdDgQWBBQZ871IrpmwUi3eaMgc2cUWGGS5DDBRBgNVHSME
SjBIgBROsvBY9AnWQZeFE69a2mbOuJsq0qEapBgwFjEUMBIGA1UEAwwLdGVhbTEy
Ny1uZXSCFGJeKFO+YAZjDv0a+L+U7heaEycPMBMGA1UdJQQMMAoGCCsGAQUFBwMC
MAsGA1UdDwQEAwIHgDANBgkqhkiG9w0BAQsFAAOCAQEAqds78YJ6gh/YEPi8IE+Q
TvAoCJI+hkRZ3827x79lf8Z1FyQnSCAYRukCK69Wrb8SGmrFjHrsKllrYqgxqXdt
AVdiNzzShiKgzgR005LgyY6FwvfJqhO3J9UWj0jjJTqLUgjNA4ENzC6P/JuA31c5
W1Qt9SkPqssbQ2Q+JUnyreet17DuJVHIzNewlopxLma4YFGQHjmdUHmHqbC9P1JX
snpXchhyDHpxDSyek30hxYc94rK/b1YKzUm8dFGNp0fn/DOtzkukbvC7t9ve+m1b
DznqqJjY79d/9fge2eRSTdl5WcUKNoC2mjmIRqCJulHehmdtp/UIxMjOe+dC8kTe
SQ==
-----END CERTIFICATE-----
