Certificate:
    Data:
        Version: 3 (0x2)
        Serial Number:
            2d:eb:a1:2d:df:f7:79:ee:fb:13:ff:65:68:0a:cb:a8
        Signature Algorithm: sha256WithRSAEncryption
        Issuer: CN=team89-net
        Validity
            Not Before: Nov  4 10:42:04 2023 GMT
            Not After : Oct 19 10:42:04 2026 GMT
        Subject: CN=team89-client
        Subject Public Key Info:
            Public Key Algorithm: rsaEncryption
                Public-Key: (2048 bit)
                Modulus:
                    00:ce:ba:98:b0:9b:24:f4:99:f5:59:59:85:62:c6:
                    f4:9c:9d:24:31:9c:3e:9a:68:e4:27:43:e8:7e:d4:
                    44:33:91:0e:67:f4:99:d7:85:6f:42:84:6b:72:0b:
                    0c:2a:7e:79:de:e2:57:9c:9c:57:59:c4:f3:57:e3:
                    7e:cd:e6:17:8e:8f:35:0b:da:7e:13:67:fe:18:39:
                    1d:be:44:aa:95:ee:72:4d:8a:c9:19:d9:05:10:14:
                    08:e1:ce:d6:02:18:e1:14:ec:67:c7:01:9f:1d:07:
                    d8:a9:ba:13:d5:40:29:15:a5:c7:3d:96:57:bf:2d:
                    d2:b8:84:3a:93:ca:c0:06:b6:3f:15:7c:dc:52:11:
                    7d:e9:98:d4:50:5d:93:8c:0f:ea:cd:5d:da:08:c0:
                    b1:37:dc:0a:83:55:e9:24:6c:3c:1f:10:46:7b:cf:
                    19:54:91:23:3c:48:3f:41:7f:c4:95:86:3e:75:e0:
                    1b:3e:26:a5:67:3f:b2:1f:dc:24:b4:81:38:72:52:
                    3f:48:85:bf:69:41:99:26:32:38:f9:ef:12:0b:0d:
                    40:57:b7:06:55:48:8a:f1:43:bc:f1:81:c1:fb:d1:
                    13:79:03:27:08:7e:43:d5:26:01:53:78:44:3f:d1:
                    1b:94:4e:f9:10:ba:c4:80:e9:4f:39:df:8c:90:e9:
                    f6:7d
                Exponent: 65537 (0x10001)
        X509v3 extensions:
            X509v3 Basic Constraints: 
                CA:FALSE
            X509v3 Subject Key Identifier: 
                EF:48:7F:BE:9C:95:4C:EE:4D:F2:34:B8:7E:81:3F:F9:33:CB:17:59
            X509v3 Authority Key Identifier: 
                keyid:23:E6:F4:2F:E8:3F:1C:D2:A2:28:71:21:A0:AF:46:11:E4:79:64:A0
                DirName:/CN=team89-net
                serial:37:B4:07:57:1F:8B:82:70:90:72:C6:82:A7:53:9F:45:A2:6E:49:6B
            X509v3 Extended Key Usage: 
                TLS Web Client Authentication
            X509v3 Key Usage: 
                Digital Signature
    Signature Algorithm: sha256WithRSAEncryption
    Signature Value:
        9e:bc:dc:ca:ff:b3:ca:56:7d:5c:0f:2f:8c:72:bf:2a:27:87:
        86:b1:a2:68:be:76:55:b4:3b:ef:2e:3f:dc:34:da:b0:2d:59:
        89:39:8f:08:ea:91:66:db:0b:c0:a2:bc:86:6e:e7:a0:d8:39:
        3e:24:cc:39:34:73:d8:c9:47:c5:4e:36:63:64:cf:92:43:f2:
        e5:50:fb:a8:06:d3:90:20:32:b6:4c:58:cc:50:01:45:ec:29:
        a5:f1:7b:a4:27:54:99:5c:2a:6c:b8:7b:4a:56:f8:1a:2d:ef:
        0b:ae:b0:c0:0e:cc:4a:ca:32:5e:c0:ec:bd:ae:e7:5a:1a:de:
        80:70:32:da:47:7a:38:15:a8:95:b9:f3:10:3a:28:dd:5a:19:
        85:b6:3f:9f:19:39:da:a6:07:59:85:65:81:79:f4:81:ce:f0:
        44:5b:0d:6b:ed:34:ea:da:d6:3a:9a:7d:1d:9e:fe:63:5c:08:
        63:3a:4d:0a:98:7e:e8:d2:a9:69:44:f7:06:59:21:11:d5:8d:
        2a:e7:0f:54:59:96:d6:cb:c2:78:85:ce:45:8a:24:8b:03:3e:
        67:06:4e:53:ec:f9:fd:22:ca:ad:18:b1:ad:6e:0b:58:a1:91:
        f6:91:c4:fb:9f:b5:fd:5f:14:11:70:b2:c5:b1:54:5e:9e:54:
        7b:1a:24:08
-----BEGIN CERTIFICATE-----
MIIDWTCCAkGgAwIBAgIQLeuhLd/3ee77E/9laArLqDANBgkqhkiG9w0BAQsFADAV
MRMwEQYDVQQDDAp0ZWFtODktbmV0MB4XDTIzMTEwNDEwNDIwNFoXDTI2MTAxOTEw
NDIwNFowGDEWMBQGA1UEAwwNdGVhbTg5LWNsaWVudDCCASIwDQYJKoZIhvcNAQEB
BQADggEPADCCAQoCggEBAM66mLCbJPSZ9VlZhWLG9JydJDGcPppo5CdD6H7URDOR
Dmf0mdeFb0KEa3ILDCp+ed7iV5ycV1nE81fjfs3mF46PNQvafhNn/hg5Hb5EqpXu
ck2KyRnZBRAUCOHO1gIY4RTsZ8cBnx0H2Km6E9VAKRWlxz2WV78t0riEOpPKwAa2
PxV83FIRfemY1FBdk4wP6s1d2gjAsTfcCoNV6SRsPB8QRnvPGVSRIzxIP0F/xJWG
PnXgGz4mpWc/sh/cJLSBOHJSP0iFv2lBmSYyOPnvEgsNQFe3BlVIivFDvPGBwfvR
E3kDJwh+Q9UmAVN4RD/RG5RO+RC6xIDpTznfjJDp9n0CAwEAAaOBoTCBnjAJBgNV
HRMEAjAAMB0GA1UdDgQWBBTvSH++nJVM7k3yNLh+gT/5M8sXWTBQBgNVHSMESTBH
gBQj5vQv6D8c0qIocSGgr0YR5HlkoKEZpBcwFTETMBEGA1UEAwwKdGVhbTg5LW5l
dIIUN7QHVx+LgnCQcsaCp1OfRaJuSWswEwYDVR0lBAwwCgYIKwYBBQUHAwIwCwYD
VR0PBAQDAgeAMA0GCSqGSIb3DQEBCwUAA4IBAQCevNzK/7PKVn1cDy+Mcr8qJ4eG
saJovnZVtDvvLj/cNNqwLVmJOY8I6pFm2wvAoryGbueg2Dk+JMw5NHPYyUfFTjZj
ZM+SQ/LlUPuoBtOQIDK2TFjMUAFF7Cml8XukJ1SZXCpsuHtKVvgaLe8LrrDADsxK
yjJewOy9rudaGt6AcDLaR3o4FaiVufMQOijdWhmFtj+fGTnapgdZhWWBefSBzvBE
Ww1r7TTq2tY6mn0dnv5jXAhjOk0KmH7o0qlpRPcGWSER1Y0q5w9UWZbWy8J4hc5F
iiSLAz5nBk5T7Pn9IsqtGLGtbgtYoZH2kcT7n7X9XxQRcLLFsVRenlR7GiQI
-----END CERTIFICATE-----
