Certificate:
    Data:
        Version: 3 (0x2)
        Serial Number:
            75:16:b8:21:e4:28:1b:56:02:17:cc:96:31:29:e4:3e
        Signature Algorithm: sha256WithRSAEncryption
        Issuer: CN=team89-net
        Validity
            Not Before: Nov  4 10:42:04 2023 GMT
            Not After : Oct 19 10:42:04 2026 GMT
        Subject: CN=team89-server
        Subject Public Key Info:
            Public Key Algorithm: rsaEncryption
                Public-Key: (2048 bit)
                Modulus:
                    00:b0:78:a2:bf:f8:5b:63:02:17:56:7a:81:41:cb:
                    42:8f:f6:34:5e:88:56:60:c7:4c:b4:47:34:09:2e:
                    10:44:ec:22:b4:65:5a:b8:3f:1b:b9:b2:84:03:15:
                    54:d5:c1:d8:f0:82:fa:b5:34:34:c2:d6:69:3f:00:
                    a7:e0:af:ab:d8:6d:47:2c:52:4a:71:e6:0a:a2:e3:
                    85:8c:b5:90:1f:83:a4:b5:e8:1d:18:f7:f0:f4:c2:
                    e7:7a:1a:52:26:f8:54:31:89:d5:ce:af:ca:24:ec:
                    c6:70:ec:5f:aa:66:e5:61:16:06:e1:05:12:20:99:
                    55:ef:fc:de:d5:9b:2a:40:70:9c:b4:a7:be:7a:0d:
                    b1:de:b2:ea:2e:d4:1a:d6:e7:37:fe:9f:12:da:1e:
                    63:22:dc:45:a1:1b:0d:98:d4:2d:38:6d:51:d5:7a:
                    8d:d2:87:3e:19:2a:83:d5:44:64:b9:48:1c:94:d6:
                    5f:14:94:ae:12:8d:ee:e5:b4:c2:ec:eb:be:46:14:
                    77:61:bb:09:5c:61:db:60:59:76:9e:51:f0:81:65:
                    33:29:7e:cc:c1:c5:bb:02:0c:a3:d2:49:e0:d2:f1:
                    7d:d3:d8:4e:6a:7a:2c:59:ae:7d:99:86:2b:15:90:
                    78:d7:3a:02:0a:fa:cd:ec:05:ef:58:e3:fa:f3:06:
                    a5:1f
                Exponent: 65537 (0x10001)
        X509v3 extensions:
            X509v3 Basic Constraints: 
                CA:FALSE
            X509v3 Subject Key Identifier: 
                F7:BB:81:AE:13:1D:6A:4B:45:9B:39:15:5D:4C:33:DB:32:6A:0B:94
            X509v3 Authority Key Identifier: 
                keyid:23:E6:F4:2F:E8:3F:1C:D2:A2:28:71:21:A0:AF:46:11:E4:79:64:A0
                DirName:/CN=team89-net
                serial:37:B4:07:57:1F:8B:82:70:90:72:C6:82:A7:53:9F:45:A2:6E:49:6B
            X509v3 Extended Key Usage: 
                TLS Web Server Authentication
            X509v3 Key Usage: 
                Digital Signature, Key Encipherment
            X509v3 Subject Alternative Name: 
                DNS:team89-server
    Signature Algorithm: sha256WithRSAEncryption
    Signature Value:
        6a:72:61:d8:02:28:df:36:8b:a1:ea:dc:fa:b6:9e:9e:94:dc:
        42:48:48:46:29:43:70:c2:f7:4f:6f:e5:9b:fa:37:aa:75:d3:
        f9:dd:3d:d0:8a:bb:2c:d0:87:c7:d6:45:42:e0:3a:d0:89:71:
        44:5b:6b:b1:85:56:f6:0e:66:62:9c:3a:2d:0c:b1:7d:a9:59:
        93:0e:32:ab:6d:27:d6:b5:cf:f9:1a:f3:9a:19:ec:a0:b2:47:
        b6:92:9e:91:1d:66:17:81:25:3b:73:e3:32:4e:97:a3:11:b2:
        fe:cf:92:76:70:4f:59:3d:67:66:cf:ce:31:a2:31:0c:6f:e2:
        c1:02:17:74:7a:11:4e:8b:e7:21:8e:88:d6:a4:f9:c3:1a:3f:
        3e:3a:8f:79:2b:91:e6:71:2c:42:3c:dc:e4:f9:d8:a7:1f:32:
        f4:e3:b2:46:72:9c:ea:09:1b:35:e4:ca:8c:2d:67:22:ee:7f:
        d5:07:fc:a3:60:0f:9e:04:ac:ac:ee:20:35:ef:07:f4:32:31:
        2e:93:13:59:f0:87:1a:1c:c9:d2:6b:29:27:21:b7:8b:3d:94:
        c5:28:50:be:f7:6b:90:b1:6a:ab:d5:e7:04:63:e5:6a:78:51:
        cb:49:58:6c:03:ca:32:ba:7b:79:e7:d1:30:f8:4d:c7:ad:d5:
        a6:2b:84:1f
-----BEGIN CERTIFICATE-----
MIIDczCCAlugAwIBAgIQdRa4IeQoG1YCF8yWMSnkPjANBgkqhkiG9w0BAQsFADAV
MRMwEQYDVQQDDAp0ZWFtODktbmV0MB4XDTIzMTEwNDEwNDIwNFoXDTI2MTAxOTEw
NDIwNFowGDEWMBQGA1UEAwwNdGVhbTg5LXNlcnZlcjCCASIwDQYJKoZIhvcNAQEB
BQADggEPADCCAQoCggEBALB4or/4W2MCF1Z6gUHLQo/2NF6IVmDHTLRHNAkuEETs
IrRlWrg/G7myhAMVVNXB2PCC+rU0NMLWaT8Ap+Cvq9htRyxSSnHmCqLjhYy1kB+D
pLXoHRj38PTC53oaUib4VDGJ1c6vyiTsxnDsX6pm5WEWBuEFEiCZVe/83tWbKkBw
nLSnvnoNsd6y6i7UGtbnN/6fEtoeYyLcRaEbDZjULThtUdV6jdKHPhkqg9VEZLlI
HJTWXxSUrhKN7uW0wuzrvkYUd2G7CVxh22BZdp5R8IFlMyl+zMHFuwIMo9JJ4NLx
fdPYTmp6LFmufZmGKxWQeNc6Agr6zewF71jj+vMGpR8CAwEAAaOBuzCBuDAJBgNV
HRMEAjAAMB0GA1UdDgQWBBT3u4GuEx1qS0WbORVdTDPbMmoLlDBQBgNVHSMESTBH
gBQj5vQv6D8c0qIocSGgr0YR5HlkoKEZpBcwFTETMBEGA1UEAwwKdGVhbTg5LW5l
dIIUN7QHVx+LgnCQcsaCp1OfRaJuSWswEwYDVR0lBAwwCgYIKwYBBQUHAwEwCwYD
VR0PBAQDAgWgMBgGA1UdEQQRMA+CDXRlYW04OS1zZXJ2ZXIwDQYJKoZIhvcNAQEL
BQADggEBAGpyYdgCKN82i6Hq3Pq2np6U3EJISEYpQ3DC909v5Zv6N6p10/ndPdCK
uyzQh8fWRULgOtCJcURba7GFVvYOZmKcOi0MsX2pWZMOMqttJ9a1z/ka85oZ7KCy
R7aSnpEdZheBJTtz4zJOl6MRsv7PknZwT1k9Z2bPzjGiMQxv4sECF3R6EU6L5yGO
iNak+cMaPz46j3krkeZxLEI83OT52KcfMvTjskZynOoJGzXkyowtZyLuf9UH/KNg
D54ErKzuIDXvB/QyMS6TE1nwhxocydJrKScht4s9lMUoUL73a5CxaqvV5wRj5Wp4
UctJWGwDyjK6e3nn0TD4Tcet1aYrhB8=
-----END CERTIFICATE-----
