Certificate:
    Data:
        Version: 3 (0x2)
        Serial Number:
            79:b7:8d:25:49:eb:9b:4a:b1:6d:d3:7f:bf:02:e3:be
        Signature Algorithm: sha256WithRSAEncryption
        Issuer: CN=team89-net
        Validity
            Not Before: Nov  3 20:40:43 2023 GMT
            Not After : Oct 18 20:40:43 2026 GMT
        Subject: CN=team89-client
        Subject Public Key Info:
            Public Key Algorithm: rsaEncryption
                Public-Key: (2048 bit)
                Modulus:
                    00:ca:dc:b7:10:09:89:9c:33:ff:b7:2f:e4:24:a6:
                    44:bf:fd:64:a3:28:e0:b1:fb:4f:8a:e7:6c:5c:25:
                    2c:aa:77:48:73:2d:bc:1e:80:3a:34:bb:b8:0b:43:
                    20:5f:04:b0:b3:06:b8:e0:fe:b3:39:af:d1:57:09:
                    6a:a4:6f:8d:ba:7a:f1:b9:18:c1:f4:0e:41:08:2d:
                    4d:a8:04:82:e7:04:36:1b:2d:ed:67:7c:ed:7c:74:
                    75:28:ca:c9:66:56:7e:51:30:20:37:8b:15:af:68:
                    20:19:b9:78:72:91:b8:08:36:87:e2:50:69:cf:3b:
                    30:a9:a2:2d:53:5a:d3:28:a9:3b:5b:9b:8f:fd:0c:
                    a0:ee:ed:4e:ce:10:ef:06:96:5d:db:57:3e:6c:bf:
                    71:e6:3b:42:87:4e:45:ed:16:89:f0:34:76:f2:a7:
                    19:7c:2a:99:d4:06:12:05:8c:09:4e:87:a7:6f:2d:
                    43:56:36:ad:50:1e:c5:28:f5:ac:e5:64:09:ed:d3:
                    38:d6:e4:0a:38:ce:3e:07:c0:db:9f:68:19:bb:c0:
                    fd:2c:45:2c:1a:c4:2b:34:ac:85:21:90:4e:2b:b2:
                    40:26:2a:80:7d:c6:de:3f:70:1c:35:dd:4c:c6:1d:
                    d7:1d:ac:ea:48:60:c1:25:ea:cf:67:79:a1:80:90:
                    fa:01
                Exponent: 65537 (0x10001)
        X509v3 extensions:
            X509v3 Basic Constraints: 
                CA:FALSE
            X509v3 Subject Key Identifier: 
                0D:3F:57:20:E8:AB:0F:FF:1C:1E:50:97:C2:F1:6E:30:68:5E:7D:97
            X509v3 Authority Key Identifier: 
                keyid:22:12:19:A1:2F:12:D0:A8:37:47:6C:F8:62:18:9B:4E:6D:39:73:42
                DirName:/CN=team89-net
                serial:16:AA:84:BE:3E:6D:BC:EC:BD:05:EA:8B:FC:2F:2E:13:C4:FE:BF:88
            X509v3 Extended Key Usage: 
                TLS Web Client Authentication
            X509v3 Key Usage: 
                Digital Signature
    Signature Algorithm: sha256WithRSAEncryption
    Signature Value:
        55:aa:ca:e7:8d:e4:e8:c1:f3:1d:03:98:6c:26:a1:c2:ad:39:
        40:d5:0d:48:1b:71:22:03:df:5f:54:9d:45:66:53:f9:63:b9:
        bf:60:e9:d6:49:3e:95:23:9f:e5:4b:b8:cf:63:5d:14:df:d8:
        d2:45:8a:b4:e0:6a:bd:e3:49:33:3c:08:39:45:01:74:77:63:
        e6:3b:ee:ea:2a:dd:05:9d:db:23:b8:22:2a:9a:fa:73:92:fc:
        50:cc:c8:8d:15:ca:b4:55:82:74:b2:73:1c:21:5f:6b:95:3a:
        a1:6f:e8:e0:89:ff:4c:73:3c:92:61:b4:df:f0:77:87:25:51:
        31:36:51:39:53:5b:ac:24:08:21:db:17:8e:02:fb:de:d0:2b:
        87:98:51:b5:7d:0e:f8:a3:e2:ff:19:d6:c2:96:fa:c1:cd:15:
        6e:9d:71:d2:5b:c1:c0:43:cc:30:68:b6:e3:c6:18:2a:ad:17:
        07:72:ef:37:5e:0a:2a:b8:dd:42:69:5d:b2:ca:f8:a9:54:40:
        2c:ba:45:c1:55:c5:a7:0a:6f:ff:6a:e0:85:5e:a7:8a:a3:b3:
        19:8d:6d:e5:9e:59:37:89:7f:93:3c:90:17:87:02:16:8f:3f:
        ad:d5:1d:eb:eb:20:56:f0:3b:2f:3b:6b:4b:20:19:c5:89:e0:
        2d:06:fe:97
-----BEGIN CERTIFICATE-----
MIIDWTCCAkGgAwIBAgIQebeNJUnrm0qxbdN/vwLjvjANBgkqhkiG9w0BAQsFADAV
MRMwEQYDVQQDDAp0ZWFtODktbmV0MB4XDTIzMTEwMzIwNDA0M1oXDTI2MTAxODIw
NDA0M1owGDEWMBQGA1UEAwwNdGVhbTg5LWNsaWVudDCCASIwDQYJKoZIhvcNAQEB
BQADggEPADCCAQoCggEBAMrctxAJiZwz/7cv5CSmRL/9ZKMo4LH7T4rnbFwlLKp3
SHMtvB6AOjS7uAtDIF8EsLMGuOD+szmv0VcJaqRvjbp68bkYwfQOQQgtTagEgucE
Nhst7Wd87Xx0dSjKyWZWflEwIDeLFa9oIBm5eHKRuAg2h+JQac87MKmiLVNa0yip
O1ubj/0MoO7tTs4Q7waWXdtXPmy/ceY7QodORe0WifA0dvKnGXwqmdQGEgWMCU6H
p28tQ1Y2rVAexSj1rOVkCe3TONbkCjjOPgfA259oGbvA/SxFLBrEKzSshSGQTiuy
QCYqgH3G3j9wHDXdTMYd1x2s6khgwSXqz2d5oYCQ+gECAwEAAaOBoTCBnjAJBgNV
HRMEAjAAMB0GA1UdDgQWBBQNP1cg6KsP/xweUJfC8W4waF59lzBQBgNVHSMESTBH
gBQiEhmhLxLQqDdHbPhiGJtObTlzQqEZpBcwFTETMBEGA1UEAwwKdGVhbTg5LW5l
dIIUFqqEvj5tvOy9BeqL/C8uE8T+v4gwEwYDVR0lBAwwCgYIKwYBBQUHAwIwCwYD
VR0PBAQDAgeAMA0GCSqGSIb3DQEBCwUAA4IBAQBVqsrnjeTowfMdA5hsJqHCrTlA
1Q1IG3EiA99fVJ1FZlP5Y7m/YOnWST6VI5/lS7jPY10U39jSRYq04Gq940kzPAg5
RQF0d2PmO+7qKt0FndsjuCIqmvpzkvxQzMiNFcq0VYJ0snMcIV9rlTqhb+jgif9M
czySYbTf8HeHJVExNlE5U1usJAgh2xeOAvve0CuHmFG1fQ74o+L/GdbClvrBzRVu
nXHSW8HAQ8wwaLbjxhgqrRcHcu83XgoquN1CaV2yyvipVEAsukXBVcWnCm//auCF
XqeKo7MZjW3lnlk3iX+TPJAXhwIWjz+t1R3r6yBW8DsvO2tLIBnFieAtBv6X
-----END CERTIFICATE-----
