Certificate:
    Data:
        Version: 3 (0x2)
        Serial Number:
            45:6c:ba:30:e0:0e:1b:94:f9:be:cf:18:7a:95:c0:25
        Signature Algorithm: sha256WithRSAEncryption
        Issuer: CN=team239-net
        Validity
            Not Before: Nov  4 10:45:06 2023 GMT
            Not After : Oct 19 10:45:06 2026 GMT
        Subject: CN=team239-server
        Subject Public Key Info:
            Public Key Algorithm: rsaEncryption
                Public-Key: (2048 bit)
                Modulus:
                    00:af:46:1d:6b:0a:d6:de:4d:1b:88:76:1e:40:64:
                    a8:f7:1c:bb:f9:70:46:69:b5:79:b8:2f:79:59:13:
                    83:9b:f7:55:ba:22:54:6d:dd:c2:86:d8:5e:46:b8:
                    cc:ed:04:c8:98:83:06:5b:41:eb:d5:b3:04:8d:7c:
                    a1:b7:4e:10:11:4b:d1:42:cf:51:86:fe:86:f0:ef:
                    ac:42:49:39:f5:47:81:17:73:aa:ae:b0:fc:36:01:
                    04:2a:d7:45:33:7c:b8:e6:33:63:3e:8f:f9:76:c0:
                    82:3f:2b:cf:42:03:c4:b4:e3:52:21:50:93:d8:a2:
                    93:4e:90:a8:bd:58:71:86:91:44:3a:79:0b:90:3f:
                    ac:0d:44:22:e2:36:f3:f9:1d:76:52:ff:9a:22:b4:
                    ca:c1:8f:1a:2f:15:f4:c7:90:51:22:47:33:79:03:
                    7c:b9:25:23:d3:1e:7a:5a:36:8d:91:94:56:b4:b4:
                    c4:d8:b4:8f:c6:ea:33:4c:7e:fd:7c:9a:29:56:14:
                    a2:4e:e8:92:9c:02:2b:bd:09:f1:54:5d:d3:0a:2d:
                    a0:06:b6:ac:f5:6f:5b:e0:5a:73:2e:7e:b7:ee:90:
                    90:8f:51:0b:c9:9c:e3:66:ff:44:f5:94:2c:47:b1:
                    91:5e:95:25:8c:e6:b1:f1:84:d3:97:aa:80:a6:71:
                    7e:79
                Exponent: 65537 (0x10001)
        X509v3 extensions:
            X509v3 Basic Constraints: 
                CA:FALSE
            X509v3 Subject Key Identifier: 
                46:C1:29:07:E4:F2:F4:85:24:A0:AD:AA:C0:85:E5:BB:72:0E:83:39
            X509v3 Authority Key Identifier: 
                keyid:51:9A:8F:19:4E:6D:8E:38:3E:26:6E:04:27:65:A4:6B:DA:33:95:C6
                DirName:/CN=team239-net
                serial:75:59:0F:CA:A1:51:8A:8C:D6:74:5C:30:63:A8:20:80:32:D7:B8:7A
            X509v3 Extended Key Usage: 
                TLS Web Server Authentication
            X509v3 Key Usage: 
                Digital Signature, Key Encipherment
            X509v3 Subject Alternative Name: 
                DNS:team239-server
    Signature Algorithm: sha256WithRSAEncryption
    Signature Value:
        89:ad:07:6e:e2:0b:15:19:a0:15:e9:76:0f:fe:86:69:9b:ba:
        d7:1b:0c:fd:c7:5d:be:d0:60:d7:c8:de:2e:37:23:d9:f0:cd:
        26:fe:b8:d8:bf:5f:9f:1e:bd:2c:9b:4a:8b:0f:57:87:14:2e:
        25:fe:57:d6:90:3d:50:66:44:65:6a:b9:90:24:dd:d3:66:28:
        cc:f8:89:5b:ff:0c:52:50:72:51:0b:7c:18:2c:eb:00:1b:49:
        42:04:73:34:a0:98:45:bf:06:02:7e:1b:84:3c:be:e0:04:44:
        a6:3e:46:36:d2:9d:a2:59:52:a3:33:db:59:7b:f7:ce:57:1b:
        65:6a:d3:80:26:e8:d4:cf:b8:0e:6c:c2:fb:b7:6b:46:a1:0f:
        42:1f:2e:ed:0f:7d:2d:f0:e6:99:d0:24:37:dd:fe:bb:ee:35:
        0f:36:42:e3:ac:8e:cb:f0:ea:d0:07:d8:73:c2:b7:3d:97:18:
        b9:79:20:73:32:84:37:e7:34:cc:77:b4:fe:be:22:61:bf:fa:
        25:b0:41:e4:c7:84:da:ec:8c:c7:36:46:49:33:6c:5d:a2:6e:
        89:63:c3:76:ca:af:44:0d:c0:52:a9:7d:78:fa:4d:51:36:c8:
        25:9f:94:5e:cd:fa:ae:87:0f:a1:8a:84:af:f8:a6:09:6f:76:
        89:78:2d:4b
-----BEGIN CERTIFICATE-----
MIIDdzCCAl+gAwIBAgIQRWy6MOAOG5T5vs8YepXAJTANBgkqhkiG9w0BAQsFADAW
MRQwEgYDVQQDDAt0ZWFtMjM5LW5ldDAeFw0yMzExMDQxMDQ1MDZaFw0yNjEwMTkx
MDQ1MDZaMBkxFzAVBgNVBAMMDnRlYW0yMzktc2VydmVyMIIBIjANBgkqhkiG9w0B
AQEFAAOCAQ8AMIIBCgKCAQEAr0YdawrW3k0biHYeQGSo9xy7+XBGabV5uC95WROD
m/dVuiJUbd3ChtheRrjM7QTImIMGW0Hr1bMEjXyht04QEUvRQs9Rhv6G8O+sQkk5
9UeBF3OqrrD8NgEEKtdFM3y45jNjPo/5dsCCPyvPQgPEtONSIVCT2KKTTpCovVhx
hpFEOnkLkD+sDUQi4jbz+R12Uv+aIrTKwY8aLxX0x5BRIkczeQN8uSUj0x56WjaN
kZRWtLTE2LSPxuozTH79fJopVhSiTuiSnAIrvQnxVF3TCi2gBras9W9b4FpzLn63
7pCQj1ELyZzjZv9E9ZQsR7GRXpUljOax8YTTl6qApnF+eQIDAQABo4G9MIG6MAkG
A1UdEwQCMAAwHQYDVR0OBBYEFEbBKQfk8vSFJKCtqsCF5btyDoM5MFEGA1UdIwRK
MEiAFFGajxlObY44PiZuBCdlpGvaM5XGoRqkGDAWMRQwEgYDVQQDDAt0ZWFtMjM5
LW5ldIIUdVkPyqFRiozWdFwwY6gggDLXuHowEwYDVR0lBAwwCgYIKwYBBQUHAwEw
CwYDVR0PBAQDAgWgMBkGA1UdEQQSMBCCDnRlYW0yMzktc2VydmVyMA0GCSqGSIb3
DQEBCwUAA4IBAQCJrQdu4gsVGaAV6XYP/oZpm7rXGwz9x12+0GDXyN4uNyPZ8M0m
/rjYv1+fHr0sm0qLD1eHFC4l/lfWkD1QZkRlarmQJN3TZijM+Ilb/wxSUHJRC3wY
LOsAG0lCBHM0oJhFvwYCfhuEPL7gBESmPkY20p2iWVKjM9tZe/fOVxtlatOAJujU
z7gObML7t2tGoQ9CHy7tD30t8OaZ0CQ33f677jUPNkLjrI7L8OrQB9hzwrc9lxi5
eSBzMoQ35zTMd7T+viJhv/olsEHkx4Ta7IzHNkZJM2xdom6JY8N2yq9EDcBSqX14
+k1RNsgln5Rezfquhw+hioSv+KYJb3aJeC1L
-----END CERTIFICATE-----
