Certificate:
    Data:
        Version: 3 (0x2)
        Serial Number:
            51:eb:50:05:93:03:96:3c:7a:ca:32:1c:97:72:24:d6
        Signature Algorithm: sha256WithRSAEncryption
        Issuer: CN=team239-net
        Validity
            Not Before: Nov  3 20:43:40 2023 GMT
            Not After : Oct 18 20:43:40 2026 GMT
        Subject: CN=team239-client
        Subject Public Key Info:
            Public Key Algorithm: rsaEncryption
                Public-Key: (2048 bit)
                Modulus:
                    00:af:c1:4d:d8:4f:8f:7a:7b:f9:62:b7:5c:8c:d8:
                    03:8b:93:6d:42:3c:72:f8:87:4e:af:a5:bd:5f:df:
                    c3:c8:be:83:61:c2:be:2d:b7:ba:cc:67:ec:f6:f9:
                    d4:0d:83:cf:a2:b1:69:d4:6f:2b:77:0e:ab:54:9f:
                    c6:79:a2:b0:ac:c2:41:9c:71:4f:95:48:df:97:47:
                    69:22:81:c4:0b:d4:32:3b:c7:48:88:d5:5f:72:47:
                    7c:8a:98:1d:48:77:8a:8f:20:38:4f:20:22:d9:78:
                    06:3e:6a:fd:c8:ce:3b:c8:64:13:34:ae:20:58:d6:
                    19:1d:1d:2d:b7:27:27:8a:38:71:4a:40:d1:01:fb:
                    d4:09:db:43:5c:c2:9c:2b:66:68:c5:96:65:87:b0:
                    72:1b:e8:17:bd:4c:32:b7:80:9a:da:56:3d:fb:85:
                    20:42:34:59:58:52:3f:03:9f:57:58:1a:7b:e4:93:
                    dc:be:59:e0:0d:33:89:56:77:57:4a:46:28:71:6a:
                    14:a6:17:3a:ff:5f:b9:35:3e:c6:ca:4b:3d:1b:cf:
                    b3:a7:34:44:04:cb:5a:53:31:0d:3b:4b:7b:4c:c0:
                    eb:a6:04:a7:35:f8:ab:19:26:7f:fc:f6:f9:e0:96:
                    b4:60:41:6e:7a:09:26:8d:11:99:f9:aa:31:57:e9:
                    b4:23
                Exponent: 65537 (0x10001)
        X509v3 extensions:
            X509v3 Basic Constraints: 
                CA:FALSE
            X509v3 Subject Key Identifier: 
                2F:63:8F:F5:2F:CA:F8:41:8F:26:44:95:EB:CD:1D:FD:2C:22:F8:E2
            X509v3 Authority Key Identifier: 
                keyid:38:80:60:02:A3:B1:54:BF:A6:AF:65:FE:9D:14:53:8B:2F:EB:DA:A7
                DirName:/CN=team239-net
                serial:08:AF:F8:57:63:47:5D:81:03:DF:8C:35:87:75:AE:59:E0:96:8C:CB
            X509v3 Extended Key Usage: 
                TLS Web Client Authentication
            X509v3 Key Usage: 
                Digital Signature
    Signature Algorithm: sha256WithRSAEncryption
    Signature Value:
        bf:94:ab:9c:7d:cb:84:c4:e0:94:54:75:a8:6a:5a:e7:c7:fb:
        09:1e:53:ab:69:21:1a:5e:43:53:e9:89:cc:5d:59:f3:0f:f6:
        4a:2a:6b:0f:60:3f:2b:32:b4:8a:dd:2b:e6:9d:22:79:35:70:
        a4:f4:a0:06:fd:ee:fd:f8:ac:f6:67:83:8d:ff:32:0a:7c:07:
        43:58:51:d9:c8:93:cd:1d:c5:25:ae:b3:22:0d:dc:e9:a1:67:
        65:cf:f6:15:d1:b9:38:e7:2f:65:43:c2:d3:d2:3d:46:a8:26:
        ba:d9:e9:34:1e:08:34:37:19:3b:a3:ae:e3:72:76:33:36:32:
        89:96:de:24:e6:38:c8:24:33:33:66:8b:e2:fb:f8:82:5d:4b:
        c7:19:b7:a1:52:6c:6a:8e:6f:9d:e2:0d:53:5b:00:ae:a4:c6:
        d2:ab:8c:2f:bc:48:cd:c5:82:03:f8:63:1c:21:c9:49:e5:7c:
        f5:b2:ea:d2:74:c2:f9:5e:ab:4b:f3:ed:83:56:aa:f2:21:e5:
        f4:27:cf:08:13:52:32:fe:71:4d:b8:4c:85:4c:a4:7a:8b:b6:
        40:7c:53:0c:9e:bf:73:da:34:1e:27:94:02:9c:7a:56:1c:d0:
        93:fa:0f:6b:7b:c6:5a:2c:ed:b0:97:1a:fb:c8:72:80:91:b7:
        8f:20:75:48
-----BEGIN CERTIFICATE-----
MIIDXDCCAkSgAwIBAgIQUetQBZMDljx6yjIcl3Ik1jANBgkqhkiG9w0BAQsFADAW
MRQwEgYDVQQDDAt0ZWFtMjM5LW5ldDAeFw0yMzExMDMyMDQzNDBaFw0yNjEwMTgy
MDQzNDBaMBkxFzAVBgNVBAMMDnRlYW0yMzktY2xpZW50MIIBIjANBgkqhkiG9w0B
AQEFAAOCAQ8AMIIBCgKCAQEAr8FN2E+Penv5YrdcjNgDi5NtQjxy+IdOr6W9X9/D
yL6DYcK+Lbe6zGfs9vnUDYPPorFp1G8rdw6rVJ/GeaKwrMJBnHFPlUjfl0dpIoHE
C9QyO8dIiNVfckd8ipgdSHeKjyA4TyAi2XgGPmr9yM47yGQTNK4gWNYZHR0ttycn
ijhxSkDRAfvUCdtDXMKcK2ZoxZZlh7ByG+gXvUwyt4Ca2lY9+4UgQjRZWFI/A59X
WBp75JPcvlngDTOJVndXSkYocWoUphc6/1+5NT7Gyks9G8+zpzREBMtaUzENO0t7
TMDrpgSnNfirGSZ//Pb54Ja0YEFuegkmjRGZ+aoxV+m0IwIDAQABo4GiMIGfMAkG
A1UdEwQCMAAwHQYDVR0OBBYEFC9jj/UvyvhBjyZElevNHf0sIvjiMFEGA1UdIwRK
MEiAFDiAYAKjsVS/pq9l/p0UU4sv69qnoRqkGDAWMRQwEgYDVQQDDAt0ZWFtMjM5
LW5ldIIUCK/4V2NHXYED34w1h3WuWeCWjMswEwYDVR0lBAwwCgYIKwYBBQUHAwIw
CwYDVR0PBAQDAgeAMA0GCSqGSIb3DQEBCwUAA4IBAQC/lKucfcuExOCUVHWoalrn
x/sJHlOraSEaXkNT6YnMXVnzD/ZKKmsPYD8rMrSK3SvmnSJ5NXCk9KAG/e79+Kz2
Z4ON/zIKfAdDWFHZyJPNHcUlrrMiDdzpoWdlz/YV0bk45y9lQ8LT0j1GqCa62ek0
Hgg0Nxk7o67jcnYzNjKJlt4k5jjIJDMzZovi+/iCXUvHGbehUmxqjm+d4g1TWwCu
pMbSq4wvvEjNxYID+GMcIclJ5Xz1surSdML5XqtL8+2DVqryIeX0J88IE1Iy/nFN
uEyFTKR6i7ZAfFMMnr9z2jQeJ5QCnHpWHNCT+g9re8ZaLO2wlxr7yHKAkbePIHVI
-----END CERTIFICATE-----
