Certificate:
    Data:
        Version: 3 (0x2)
        Serial Number:
            64:9b:8a:a3:74:0e:96:ab:9b:4a:44:05:04:5a:9d:70
        Signature Algorithm: sha256WithRSAEncryption
        Issuer: CN=team239-net
        Validity
            Not Before: Nov  4 10:45:06 2023 GMT
            Not After : Oct 19 10:45:06 2026 GMT
        Subject: CN=team239-client
        Subject Public Key Info:
            Public Key Algorithm: rsaEncryption
                Public-Key: (2048 bit)
                Modulus:
                    00:9b:93:68:a9:21:07:ed:a2:f5:a7:99:8b:70:24:
                    1b:43:45:38:5b:80:2f:a7:a2:e0:cb:c9:e9:af:0b:
                    81:db:38:d4:f8:1f:51:e9:74:43:e1:09:8c:9f:02:
                    1f:62:10:e1:7f:99:64:67:12:e6:b3:12:db:ad:9a:
                    21:49:63:12:c1:50:63:cf:8b:dc:84:23:60:43:5c:
                    ee:f5:64:0a:61:38:d2:78:8a:5d:24:02:d5:76:77:
                    5e:af:5f:d9:1c:68:08:32:1a:9b:8a:63:84:1a:fc:
                    db:79:4b:ec:b6:11:5e:c7:9c:0b:bd:3b:00:d0:60:
                    e4:97:f9:66:ef:83:06:60:76:a9:af:9d:6f:01:f3:
                    50:04:a6:4f:9f:4b:82:8e:ef:f6:7b:17:2b:80:33:
                    76:93:46:fd:24:ff:fb:64:f0:2d:d6:03:07:6c:20:
                    30:58:0f:dc:7c:35:c0:5d:c3:43:65:5f:29:70:6b:
                    40:40:4d:21:af:8a:fb:07:26:f2:d4:92:d5:01:89:
                    82:03:d9:61:74:e5:1f:4c:2c:64:c8:67:49:38:49:
                    11:62:04:a0:0c:58:78:2b:a4:65:22:d0:b2:0d:61:
                    50:13:33:57:b0:92:8e:b2:96:60:bd:5b:e4:56:70:
                    e7:2b:a6:ad:b2:e5:30:7c:e6:35:b0:a5:23:c3:f2:
                    b6:95
                Exponent: 65537 (0x10001)
        X509v3 extensions:
            X509v3 Basic Constraints: 
                CA:FALSE
            X509v3 Subject Key Identifier: 
                B0:48:AE:69:12:25:02:5E:84:8C:F9:5C:3E:1F:28:35:26:68:7A:22
            X509v3 Authority Key Identifier: 
                keyid:51:9A:8F:19:4E:6D:8E:38:3E:26:6E:04:27:65:A4:6B:DA:33:95:C6
                DirName:/CN=team239-net
                serial:75:59:0F:CA:A1:51:8A:8C:D6:74:5C:30:63:A8:20:80:32:D7:B8:7A
            X509v3 Extended Key Usage: 
                TLS Web Client Authentication
            X509v3 Key Usage: 
                Digital Signature
    Signature Algorithm: sha256WithRSAEncryption
    Signature Value:
        0e:95:e7:56:14:52:15:b3:70:b9:13:ef:ee:02:ac:44:91:39:
        8c:f6:17:3e:3d:5e:ba:03:e2:0d:c4:2e:13:71:93:c3:8c:94:
        20:f6:e5:d2:a5:e5:79:89:5e:b9:5e:d2:c5:11:06:e1:5d:90:
        72:54:cd:81:ca:53:13:2c:90:75:14:e9:dd:6a:5c:4b:f1:31:
        32:39:3c:6a:c8:4c:b4:71:a6:9d:02:e4:6b:cf:a3:af:0f:97:
        cc:a4:81:75:c4:f0:4b:f9:8c:5f:20:39:82:5b:6d:56:6f:70:
        c2:9f:66:98:93:7f:6a:29:aa:cf:76:c4:86:3b:81:6b:ed:5c:
        4e:c2:f7:8d:ea:e7:53:1f:ed:6e:13:33:14:6e:a6:56:d6:1b:
        88:4b:03:01:40:b0:c7:96:b5:cf:a2:ed:7c:10:4c:6a:fe:5a:
        71:9a:72:57:3c:78:0c:b3:f8:07:55:08:64:c6:82:9d:4c:65:
        2b:5f:68:78:2d:e5:c1:98:40:f0:93:6a:cc:ba:c0:80:da:44:
        06:27:7e:41:ce:14:02:9a:cc:9c:60:b9:1b:de:75:b5:12:a8:
        e6:46:23:d6:f9:c2:02:d2:71:8e:00:31:44:de:cf:db:c5:57:
        c7:a1:83:f9:10:60:4f:96:43:b8:87:08:93:09:7a:74:22:49:
        3c:02:81:22
-----BEGIN CERTIFICATE-----
MIIDXDCCAkSgAwIBAgIQZJuKo3QOlqubSkQFBFqdcDANBgkqhkiG9w0BAQsFADAW
MRQwEgYDVQQDDAt0ZWFtMjM5LW5ldDAeFw0yMzExMDQxMDQ1MDZaFw0yNjEwMTkx
MDQ1MDZaMBkxFzAVBgNVBAMMDnRlYW0yMzktY2xpZW50MIIBIjANBgkqhkiG9w0B
AQEFAAOCAQ8AMIIBCgKCAQEAm5NoqSEH7aL1p5mLcCQbQ0U4W4Avp6Lgy8nprwuB
2zjU+B9R6XRD4QmMnwIfYhDhf5lkZxLmsxLbrZohSWMSwVBjz4vchCNgQ1zu9WQK
YTjSeIpdJALVdnder1/ZHGgIMhqbimOEGvzbeUvsthFex5wLvTsA0GDkl/lm74MG
YHapr51vAfNQBKZPn0uCju/2excrgDN2k0b9JP/7ZPAt1gMHbCAwWA/cfDXAXcND
ZV8pcGtAQE0hr4r7Byby1JLVAYmCA9lhdOUfTCxkyGdJOEkRYgSgDFh4K6RlItCy
DWFQEzNXsJKOspZgvVvkVnDnK6atsuUwfOY1sKUjw/K2lQIDAQABo4GiMIGfMAkG
A1UdEwQCMAAwHQYDVR0OBBYEFLBIrmkSJQJehIz5XD4fKDUmaHoiMFEGA1UdIwRK
MEiAFFGajxlObY44PiZuBCdlpGvaM5XGoRqkGDAWMRQwEgYDVQQDDAt0ZWFtMjM5
LW5ldIIUdVkPyqFRiozWdFwwY6gggDLXuHowEwYDVR0lBAwwCgYIKwYBBQUHAwIw
CwYDVR0PBAQDAgeAMA0GCSqGSIb3DQEBCwUAA4IBAQAOledWFFIVs3C5E+/uAqxE
kTmM9hc+PV66A+INxC4TcZPDjJQg9uXSpeV5iV65XtLFEQbhXZByVM2BylMTLJB1
FOndalxL8TEyOTxqyEy0caadAuRrz6OvD5fMpIF1xPBL+YxfIDmCW21Wb3DCn2aY
k39qKarPdsSGO4Fr7VxOwveN6udTH+1uEzMUbqZW1huISwMBQLDHlrXPou18EExq
/lpxmnJXPHgMs/gHVQhkxoKdTGUrX2h4LeXBmEDwk2rMusCA2kQGJ35BzhQCmsyc
YLkb3nW1EqjmRiPW+cIC0nGOADFE3s/bxVfHoYP5EGBPlkO4hwiTCXp0Ikk8AoEi
-----END CERTIFICATE-----
