Certificate:
    Data:
        Version: 3 (0x2)
        Serial Number:
            e6:b1:bb:e1:4d:d3:17:fa:65:d6:8d:3f:33:43:e0:de
        Signature Algorithm: sha256WithRSAEncryption
        Issuer: CN=team239-net
        Validity
            Not Before: Nov  4 11:32:18 2023 GMT
            Not After : Oct 19 11:32:18 2026 GMT
        Subject: CN=team239-server
        Subject Public Key Info:
            Public Key Algorithm: rsaEncryption
                Public-Key: (2048 bit)
                Modulus:
                    00:ad:07:b3:0f:e0:80:70:3f:f7:1e:a1:1a:2f:af:
                    a0:e5:0e:92:5f:3a:89:02:d3:44:a8:14:ae:68:ee:
                    6a:72:4b:e6:12:a2:02:b6:ce:15:3a:e2:53:d3:02:
                    67:4b:43:88:d1:3a:64:96:40:bb:ec:eb:ca:57:7f:
                    2a:1c:d0:3a:7b:17:ab:35:23:cc:e4:a6:b7:6d:43:
                    0e:a9:58:a0:5e:f7:99:ee:d6:7a:5c:02:79:22:dc:
                    72:9c:23:b5:7b:17:08:56:3e:c2:95:2a:f3:b4:19:
                    93:07:ee:ca:9e:02:a4:87:40:83:a6:5c:ce:65:13:
                    4e:3d:39:b2:3a:57:68:1d:46:e8:be:49:58:ce:d8:
                    4a:00:f4:4e:d0:02:64:24:e0:10:ef:7b:6f:56:85:
                    16:ea:6c:04:3c:c7:c0:7f:e2:55:51:a4:64:69:d8:
                    76:09:9b:00:38:6f:1a:bb:ba:ad:8d:01:fc:db:73:
                    cc:2f:2f:5a:a4:bb:bb:db:d6:73:bf:07:ab:bf:2f:
                    09:e9:38:d2:58:84:75:1d:e2:2c:1d:fc:47:7b:fd:
                    54:9c:33:02:3b:20:0a:0a:43:2c:d7:ab:d8:bd:86:
                    47:b0:88:88:06:0e:39:86:d8:d0:4d:14:01:1a:37:
                    47:f0:1f:55:e0:ac:d6:57:90:52:bd:5a:d8:91:06:
                    e6:e3
                Exponent: 65537 (0x10001)
        X509v3 extensions:
            X509v3 Basic Constraints: 
                CA:FALSE
            X509v3 Subject Key Identifier: 
                29:11:DA:B1:DB:AC:06:3B:49:E5:6C:3B:75:E8:43:C2:9C:BC:AA:AA
            X509v3 Authority Key Identifier: 
                keyid:2D:6A:B3:DF:C1:1E:D7:DE:C7:70:7B:26:A0:AE:0A:B1:4B:97:75:52
                DirName:/CN=team239-net
                serial:2D:04:8B:AF:50:D9:3D:24:C1:3A:AE:24:FE:7A:72:00:6F:1A:1E:22
            X509v3 Extended Key Usage: 
                TLS Web Server Authentication
            X509v3 Key Usage: 
                Digital Signature, Key Encipherment
            X509v3 Subject Alternative Name: 
                DNS:team239-server
    Signature Algorithm: sha256WithRSAEncryption
    Signature Value:
        11:75:39:60:38:04:4d:3b:38:73:65:43:45:8a:c3:6c:48:b2:
        41:79:5f:f9:49:c4:d5:17:3e:fe:d0:32:65:2d:39:cb:5a:12:
        fe:2d:0e:11:a0:2b:b6:36:74:ef:e0:dd:03:aa:3d:93:f7:77:
        33:64:5f:d8:62:2f:42:9b:f6:55:ca:15:ef:71:e2:4f:36:b1:
        94:06:a9:a1:fd:7a:62:23:43:cf:18:b8:c7:9a:b4:ac:c9:ea:
        f2:1d:b0:f3:8a:2d:ff:f1:e1:c8:4a:7e:42:26:06:aa:2c:ca:
        c6:76:5c:7c:f4:b5:57:75:59:0f:36:79:19:9a:28:6c:02:9b:
        af:0b:64:03:fa:a4:ba:86:96:8b:17:5e:5d:79:84:ea:ff:28:
        57:56:6d:d6:89:61:c8:bc:54:9d:95:a8:be:4f:95:c3:cf:e4:
        48:a5:a2:1e:69:da:b1:26:89:72:81:cf:e9:0e:26:2d:08:36:
        f2:61:75:54:b1:7a:4c:8e:72:17:7b:68:fc:9a:03:89:a3:27:
        6d:d8:a9:8a:8e:14:18:2d:46:ef:f1:ba:91:14:4d:2e:ed:2b:
        83:4e:4b:7a:cc:cd:8c:12:3b:11:fc:04:da:91:ad:9a:a8:00:
        7a:98:96:e6:07:f2:4a:02:4e:89:92:53:d5:1b:cb:37:43:b5:
        ff:fc:34:df
-----BEGIN CERTIFICATE-----
MIIDeDCCAmCgAwIBAgIRAOaxu+FN0xf6ZdaNPzND4N4wDQYJKoZIhvcNAQELBQAw
FjEUMBIGA1UEAwwLdGVhbTIzOS1uZXQwHhcNMjMxMTA0MTEzMjE4WhcNMjYxMDE5
MTEzMjE4WjAZMRcwFQYDVQQDDA50ZWFtMjM5LXNlcnZlcjCCASIwDQYJKoZIhvcN
AQEBBQADggEPADCCAQoCggEBAK0Hsw/ggHA/9x6hGi+voOUOkl86iQLTRKgUrmju
anJL5hKiArbOFTriU9MCZ0tDiNE6ZJZAu+zryld/KhzQOnsXqzUjzOSmt21DDqlY
oF73me7WelwCeSLccpwjtXsXCFY+wpUq87QZkwfuyp4CpIdAg6ZczmUTTj05sjpX
aB1G6L5JWM7YSgD0TtACZCTgEO97b1aFFupsBDzHwH/iVVGkZGnYdgmbADhvGru6
rY0B/NtzzC8vWqS7u9vWc78Hq78vCek40liEdR3iLB38R3v9VJwzAjsgCgpDLNer
2L2GR7CIiAYOOYbY0E0UARo3R/AfVeCs1leQUr1a2JEG5uMCAwEAAaOBvTCBujAJ
BgNVHRMEAjAAMB0GA1UdDgQWBBQpEdqx26wGO0nlbDt16EPCnLyqqjBRBgNVHSME
SjBIgBQtarPfwR7X3sdweyagrgqxS5d1UqEapBgwFjEUMBIGA1UEAwwLdGVhbTIz
OS1uZXSCFC0Ei69Q2T0kwTquJP56cgBvGh4iMBMGA1UdJQQMMAoGCCsGAQUFBwMB
MAsGA1UdDwQEAwIFoDAZBgNVHREEEjAQgg50ZWFtMjM5LXNlcnZlcjANBgkqhkiG
9w0BAQsFAAOCAQEAEXU5YDgETTs4c2VDRYrDbEiyQXlf+UnE1Rc+/tAyZS05y1oS
/i0OEaArtjZ07+DdA6o9k/d3M2Rf2GIvQpv2VcoV73HiTzaxlAapof16YiNDzxi4
x5q0rMnq8h2w84ot//HhyEp+QiYGqizKxnZcfPS1V3VZDzZ5GZoobAKbrwtkA/qk
uoaWixdeXXmE6v8oV1Zt1olhyLxUnZWovk+Vw8/kSKWiHmnasSaJcoHP6Q4mLQg2
8mF1VLF6TI5yF3to/JoDiaMnbdipio4UGC1G7/G6kRRNLu0rg05LeszNjBI7EfwE
2pGtmqgAepiW5gfySgJOiZJT1RvLN0O1//w03w==
-----END CERTIFICATE-----
