Certificate:
    Data:
        Version: 3 (0x2)
        Serial Number:
            2e:fb:cb:11:ae:c4:36:6a:1f:66:af:8d:c8:9f:cd:51
        Signature Algorithm: sha256WithRSAEncryption
        Issuer: CN=team16-net
        Validity
            Not Before: Nov  4 11:27:40 2023 GMT
            Not After : Oct 19 11:27:40 2026 GMT
        Subject: CN=team16-server
        Subject Public Key Info:
            Public Key Algorithm: rsaEncryption
                Public-Key: (2048 bit)
                Modulus:
                    00:cf:c2:1c:24:12:90:f9:bf:dc:8f:0e:0e:08:29:
                    0c:16:c7:87:1a:1e:99:53:11:c8:34:94:37:37:27:
                    42:d8:dc:4f:fc:b8:55:ab:b5:d7:c3:f7:49:de:f0:
                    3a:d4:28:48:f8:b0:df:12:87:45:7f:5c:59:7d:ec:
                    47:8c:89:d6:c4:83:a3:60:9d:89:ff:9b:60:ea:b8:
                    60:d7:c3:92:41:8a:b9:34:33:c3:d1:c1:6e:e5:d9:
                    85:82:89:e7:85:b3:23:0f:55:cb:ee:c4:36:50:5c:
                    bb:b3:83:a3:ed:86:27:28:60:15:f8:cc:8a:81:c8:
                    16:85:e5:58:45:9f:7d:ff:ce:83:3e:51:43:bf:d7:
                    ab:49:2b:7f:fa:e9:82:29:e9:3a:29:e2:31:41:1d:
                    f7:0c:3d:7d:16:cd:79:ef:13:7e:ff:b4:e1:c1:71:
                    ee:5b:72:71:05:11:dd:84:0d:e8:bf:e7:d9:bd:c0:
                    33:a5:5b:96:0b:25:18:5a:36:3d:ea:45:00:12:f4:
                    4c:e7:93:1c:d8:35:d0:14:48:59:f7:c3:af:8e:06:
                    97:1c:3f:37:a2:97:e9:72:87:ca:6e:28:67:21:60:
                    64:66:e8:8d:d4:20:aa:3d:a5:42:3f:db:97:5f:ff:
                    86:ce:50:8b:29:7b:1a:ee:0f:41:b0:c1:a9:6f:7c:
                    5f:f5
                Exponent: 65537 (0x10001)
        X509v3 extensions:
            X509v3 Basic Constraints: 
                CA:FALSE
            X509v3 Subject Key Identifier: 
                6B:F6:D3:68:63:7A:ED:3C:5C:1C:CE:7A:E5:33:54:02:27:C2:A8:DA
            X509v3 Authority Key Identifier: 
                keyid:55:6E:21:72:86:0E:79:98:29:90:52:99:EA:48:26:8A:F7:70:26:F4
                DirName:/CN=team16-net
                serial:7A:60:FC:F9:19:B2:F2:CE:3A:9A:8D:D9:2F:2B:53:01:43:3C:78:D0
            X509v3 Extended Key Usage: 
                TLS Web Server Authentication
            X509v3 Key Usage: 
                Digital Signature, Key Encipherment
            X509v3 Subject Alternative Name: 
                DNS:team16-server
    Signature Algorithm: sha256WithRSAEncryption
    Signature Value:
        04:bc:50:6b:f5:3a:4f:2b:91:49:a8:82:8a:be:9d:23:2a:05:
        0f:69:3c:2d:85:21:07:14:c7:07:a0:02:24:98:2d:6a:44:db:
        d2:14:85:3e:87:6e:8e:20:43:54:15:85:0e:a8:0d:95:41:f7:
        a8:e0:01:f2:ce:80:e2:cc:48:78:09:42:b9:d0:2a:ba:a6:e3:
        4f:b0:81:d3:21:36:03:c2:a4:0a:28:b6:30:3f:9c:6e:5a:f1:
        22:01:d4:ef:4d:67:6c:7b:30:09:6b:b7:25:b0:cb:f4:0b:57:
        f2:c9:d1:88:46:da:3b:5c:a9:c1:c7:52:97:10:2c:fd:8c:69:
        ad:21:8d:5d:0f:e0:4f:b3:4e:68:cb:8b:5b:7c:32:78:28:7e:
        ed:b2:ca:6a:5d:6f:5a:a0:1a:99:b0:03:55:8e:55:2f:f6:0d:
        91:6b:ed:d6:ee:62:4c:a2:ff:ed:de:1d:fc:d6:11:6d:72:d3:
        e0:3b:ca:fd:62:06:80:d5:46:2d:bd:0d:68:c5:e6:47:b4:7e:
        4b:dd:8e:4b:ee:27:3d:e7:30:63:9f:4d:0d:24:0f:30:71:06:
        82:d3:9c:21:7c:0a:d7:23:80:f9:4a:0c:de:72:44:bd:50:90:
        41:69:b2:4b:f5:17:e1:49:33:ef:b9:90:4a:b7:73:18:d0:de:
        75:53:35:b5
-----BEGIN CERTIFICATE-----
MIIDczCCAlugAwIBAgIQLvvLEa7ENmofZq+NyJ/NUTANBgkqhkiG9w0BAQsFADAV
MRMwEQYDVQQDDAp0ZWFtMTYtbmV0MB4XDTIzMTEwNDExMjc0MFoXDTI2MTAxOTEx
Mjc0MFowGDEWMBQGA1UEAwwNdGVhbTE2LXNlcnZlcjCCASIwDQYJKoZIhvcNAQEB
BQADggEPADCCAQoCggEBAM/CHCQSkPm/3I8ODggpDBbHhxoemVMRyDSUNzcnQtjc
T/y4Vau118P3Sd7wOtQoSPiw3xKHRX9cWX3sR4yJ1sSDo2Cdif+bYOq4YNfDkkGK
uTQzw9HBbuXZhYKJ54WzIw9Vy+7ENlBcu7ODo+2GJyhgFfjMioHIFoXlWEWfff/O
gz5RQ7/Xq0krf/rpginpOiniMUEd9ww9fRbNee8Tfv+04cFx7ltycQUR3YQN6L/n
2b3AM6VblgslGFo2PepFABL0TOeTHNg10BRIWffDr44Glxw/N6KX6XKHym4oZyFg
ZGbojdQgqj2lQj/bl1//hs5Qiyl7Gu4PQbDBqW98X/UCAwEAAaOBuzCBuDAJBgNV
HRMEAjAAMB0GA1UdDgQWBBRr9tNoY3rtPFwcznrlM1QCJ8Ko2jBQBgNVHSMESTBH
gBRVbiFyhg55mCmQUpnqSCaK93Am9KEZpBcwFTETMBEGA1UEAwwKdGVhbTE2LW5l
dIIUemD8+Rmy8s46mo3ZLytTAUM8eNAwEwYDVR0lBAwwCgYIKwYBBQUHAwEwCwYD
VR0PBAQDAgWgMBgGA1UdEQQRMA+CDXRlYW0xNi1zZXJ2ZXIwDQYJKoZIhvcNAQEL
BQADggEBAAS8UGv1Ok8rkUmogoq+nSMqBQ9pPC2FIQcUxwegAiSYLWpE29IUhT6H
bo4gQ1QVhQ6oDZVB96jgAfLOgOLMSHgJQrnQKrqm40+wgdMhNgPCpAootjA/nG5a
8SIB1O9NZ2x7MAlrtyWwy/QLV/LJ0YhG2jtcqcHHUpcQLP2Maa0hjV0P4E+zTmjL
i1t8Mngofu2yympdb1qgGpmwA1WOVS/2DZFr7dbuYkyi/+3eHfzWEW1y0+A7yv1i
BoDVRi29DWjF5ke0fkvdjkvuJz3nMGOfTQ0kDzBxBoLTnCF8CtcjgPlKDN5yRL1Q
kEFpskv1F+FJM++5kEq3cxjQ3nVTNbU=
-----END CERTIFICATE-----
