Certificate:
    Data:
        Version: 3 (0x2)
        Serial Number:
            3d:e1:ef:29:dc:8c:f9:27:db:cf:f9:06:f9:a7:91:d9
        Signature Algorithm: sha256WithRSAEncryption
        Issuer: CN=team16-net
        Validity
            Not Before: Nov  3 20:39:33 2023 GMT
            Not After : Oct 18 20:39:33 2026 GMT
        Subject: CN=team16-client
        Subject Public Key Info:
            Public Key Algorithm: rsaEncryption
                Public-Key: (2048 bit)
                Modulus:
                    00:8e:29:ab:62:3b:d7:9e:52:11:a1:1e:61:e9:52:
                    87:e9:62:c3:d1:14:27:bf:fd:e1:67:62:f7:56:4b:
                    d5:7e:38:60:ab:0c:81:2d:4e:50:b7:32:3c:9d:dd:
                    92:33:d6:d2:65:33:4e:37:a1:19:70:8d:fe:89:25:
                    3e:01:98:bc:06:0c:b1:9f:ea:a8:bd:ea:fb:e3:26:
                    92:f8:10:93:13:7b:71:b4:5e:0d:bd:5e:52:41:a8:
                    e7:34:74:b7:f6:65:29:6f:bd:da:50:5d:a1:46:5f:
                    dc:2c:86:ea:6c:07:16:d2:10:3d:fa:92:eb:f1:e9:
                    93:87:0e:11:b6:b1:16:1b:9a:a0:0f:ce:a0:f9:cb:
                    55:78:79:da:9f:a7:ba:6f:cc:c3:ef:b5:99:58:36:
                    f0:db:e3:7c:44:95:75:24:ca:34:61:3e:9c:64:de:
                    38:43:ed:b2:7f:fe:8d:b9:39:32:a5:cc:a6:21:21:
                    19:f3:93:d2:4a:02:1f:9d:38:8f:d7:45:14:44:e2:
                    69:36:60:30:17:5f:13:72:82:f1:ca:4d:20:d5:a3:
                    d0:72:84:fd:d1:f8:c4:52:67:7b:fb:87:5a:41:fe:
                    d3:81:18:2b:ea:97:c6:ef:cb:83:3b:fc:52:73:23:
                    8f:3b:85:9d:f9:ae:93:da:f3:b9:be:de:1a:0a:2c:
                    e6:f3
                Exponent: 65537 (0x10001)
        X509v3 extensions:
            X509v3 Basic Constraints: 
                CA:FALSE
            X509v3 Subject Key Identifier: 
                76:02:83:3D:67:5B:E1:9D:28:FE:8A:4B:CB:C0:10:9A:DD:22:5C:83
            X509v3 Authority Key Identifier: 
                keyid:D4:FD:67:1D:45:2F:C3:75:CC:CE:33:B0:D3:3A:C4:68:A2:55:AE:F1
                DirName:/CN=team16-net
                serial:3A:F9:F3:1C:A8:66:BC:24:3F:BC:5F:2A:68:2A:45:61:C5:36:55:E2
            X509v3 Extended Key Usage: 
                TLS Web Client Authentication
            X509v3 Key Usage: 
                Digital Signature
    Signature Algorithm: sha256WithRSAEncryption
    Signature Value:
        c1:4e:d8:4a:0d:ee:d7:7a:a2:d0:30:22:3b:67:99:29:87:4b:
        1b:ad:7e:1d:b1:61:ed:00:d4:6c:24:a0:be:00:81:03:93:95:
        92:a8:fc:e3:8a:80:06:c5:52:71:ca:e3:5b:e2:d4:15:16:8c:
        2a:c2:9c:f9:dd:f5:66:8d:be:1f:60:ab:40:0e:62:d4:ac:17:
        bb:32:65:f5:3a:1c:f6:e7:99:8a:60:b5:cc:92:7b:3f:28:5e:
        9a:87:8f:ce:c8:53:f0:03:90:e2:7f:da:e8:a5:96:8c:38:a7:
        38:88:7a:63:67:2c:be:c3:6e:9f:82:44:7d:e7:27:c4:64:5d:
        b6:08:b0:c2:00:7f:78:42:ef:f2:ef:c8:d8:39:56:79:a9:42:
        57:9e:eb:d8:0c:ee:aa:87:26:39:50:03:ab:2b:1f:18:94:ae:
        af:b9:4b:fc:fb:ba:a9:7f:93:30:6e:3b:84:d6:90:07:4c:70:
        e9:27:dd:e8:15:5f:3c:9c:e8:9c:9a:5a:77:75:46:c1:41:d9:
        dc:d2:70:22:21:f1:22:a6:be:92:15:38:86:67:2c:66:3b:9e:
        58:f5:cf:11:37:3d:f0:0a:86:7f:dc:63:83:58:b6:40:8f:43:
        2b:3e:1f:d6:b9:a2:15:f6:9e:20:04:a1:52:b4:ca:1b:57:2e:
        a3:83:c2:05
-----BEGIN CERTIFICATE-----
MIIDWTCCAkGgAwIBAgIQPeHvKdyM+Sfbz/kG+aeR2TANBgkqhkiG9w0BAQsFADAV
MRMwEQYDVQQDDAp0ZWFtMTYtbmV0MB4XDTIzMTEwMzIwMzkzM1oXDTI2MTAxODIw
MzkzM1owGDEWMBQGA1UEAwwNdGVhbTE2LWNsaWVudDCCASIwDQYJKoZIhvcNAQEB
BQADggEPADCCAQoCggEBAI4pq2I7155SEaEeYelSh+liw9EUJ7/94Wdi91ZL1X44
YKsMgS1OULcyPJ3dkjPW0mUzTjehGXCN/oklPgGYvAYMsZ/qqL3q++MmkvgQkxN7
cbReDb1eUkGo5zR0t/ZlKW+92lBdoUZf3CyG6mwHFtIQPfqS6/Hpk4cOEbaxFhua
oA/OoPnLVXh52p+num/Mw++1mVg28NvjfESVdSTKNGE+nGTeOEPtsn/+jbk5MqXM
piEhGfOT0koCH504j9dFFETiaTZgMBdfE3KC8cpNINWj0HKE/dH4xFJne/uHWkH+
04EYK+qXxu/Lgzv8UnMjjzuFnfmuk9rzub7eGgos5vMCAwEAAaOBoTCBnjAJBgNV
HRMEAjAAMB0GA1UdDgQWBBR2AoM9Z1vhnSj+ikvLwBCa3SJcgzBQBgNVHSMESTBH
gBTU/WcdRS/DdczOM7DTOsRoolWu8aEZpBcwFTETMBEGA1UEAwwKdGVhbTE2LW5l
dIIUOvnzHKhmvCQ/vF8qaCpFYcU2VeIwEwYDVR0lBAwwCgYIKwYBBQUHAwIwCwYD
VR0PBAQDAgeAMA0GCSqGSIb3DQEBCwUAA4IBAQDBTthKDe7XeqLQMCI7Z5kph0sb
rX4dsWHtANRsJKC+AIEDk5WSqPzjioAGxVJxyuNb4tQVFowqwpz53fVmjb4fYKtA
DmLUrBe7MmX1Ohz255mKYLXMkns/KF6ah4/OyFPwA5Dif9ropZaMOKc4iHpjZyy+
w26fgkR95yfEZF22CLDCAH94Qu/y78jYOVZ5qUJXnuvYDO6qhyY5UAOrKx8YlK6v
uUv8+7qpf5MwbjuE1pAHTHDpJ93oFV88nOicmlp3dUbBQdnc0nAiIfEipr6SFTiG
ZyxmO55Y9c8RNz3wCoZ/3GODWLZAj0MrPh/WuaIV9p4gBKFStMobVy6jg8IF
-----END CERTIFICATE-----
