Certificate:
    Data:
        Version: 3 (0x2)
        Serial Number:
            af:f2:1c:cc:5b:c4:4f:82:74:d9:55:c7:2e:56:70:10
        Signature Algorithm: sha256WithRSAEncryption
        Issuer: CN=team16-net
        Validity
            Not Before: Nov  3 20:39:34 2023 GMT
            Not After : Oct 18 20:39:34 2026 GMT
        Subject: CN=team16-server
        Subject Public Key Info:
            Public Key Algorithm: rsaEncryption
                Public-Key: (2048 bit)
                Modulus:
                    00:8c:41:cd:5d:7b:1d:3b:70:b7:b7:a1:d4:18:21:
                    7b:ea:2a:fb:22:8a:cb:49:35:7d:76:cf:c1:5b:51:
                    e5:88:c9:d2:07:e6:c6:6b:4f:07:83:50:40:f2:9a:
                    d7:e5:ec:01:5c:73:33:88:64:36:06:9a:87:d8:3b:
                    d6:d4:df:1c:f1:9f:fd:cb:36:fb:3f:21:f4:2e:c6:
                    f7:05:a9:f3:c9:b7:31:60:72:ac:09:a9:d9:42:82:
                    5b:21:b7:23:6f:8d:4d:34:ce:36:99:eb:de:19:63:
                    fd:f1:7c:41:0d:62:5f:6e:b5:e4:4e:35:90:fb:bc:
                    44:48:d0:63:00:59:02:5f:26:eb:a2:19:61:1a:5e:
                    c3:1c:88:b9:84:06:05:23:60:1d:14:a2:dc:df:d3:
                    ce:29:f8:12:b5:5f:f7:da:ef:4f:b2:cb:69:fa:61:
                    62:01:a1:03:e1:ae:db:a7:d5:3f:a0:e3:e9:f3:74:
                    e9:15:5c:f0:0e:6f:9c:8e:a5:79:36:09:19:c2:c0:
                    dd:f0:eb:c3:e5:a2:8c:d5:ff:df:78:8b:22:d9:f2:
                    ce:86:36:52:d9:26:46:26:fc:de:2a:ee:b6:2d:e5:
                    79:fe:a8:e5:18:bb:31:14:f8:28:a8:c7:d4:3d:6d:
                    37:4c:75:e2:52:ba:37:f6:45:4f:1f:1b:24:a9:04:
                    fb:d3
                Exponent: 65537 (0x10001)
        X509v3 extensions:
            X509v3 Basic Constraints: 
                CA:FALSE
            X509v3 Subject Key Identifier: 
                11:1D:4F:FF:48:FE:E3:2D:50:03:36:EB:96:D1:20:95:B9:E8:84:97
            X509v3 Authority Key Identifier: 
                keyid:D4:FD:67:1D:45:2F:C3:75:CC:CE:33:B0:D3:3A:C4:68:A2:55:AE:F1
                DirName:/CN=team16-net
                serial:3A:F9:F3:1C:A8:66:BC:24:3F:BC:5F:2A:68:2A:45:61:C5:36:55:E2
            X509v3 Extended Key Usage: 
                TLS Web Server Authentication
            X509v3 Key Usage: 
                Digital Signature, Key Encipherment
            X509v3 Subject Alternative Name: 
                DNS:team16-server
    Signature Algorithm: sha256WithRSAEncryption
    Signature Value:
        c9:72:e6:72:02:23:c8:e5:55:c4:5a:02:16:fd:bd:ed:21:80:
        02:39:00:4b:99:43:a8:26:1b:64:9c:89:ad:37:2d:aa:e1:de:
        3c:f6:e7:3c:9e:ea:49:c2:6b:bd:c4:8d:17:80:cf:6e:9d:72:
        1b:52:89:61:aa:4f:17:83:8b:13:8a:e6:16:89:17:c7:63:50:
        c0:eb:1e:d4:00:a6:e8:71:35:c5:44:ec:f2:17:7c:f1:a5:58:
        83:ba:2a:f6:79:0f:5a:85:c9:57:64:25:08:56:a7:d1:07:4f:
        0a:3d:e5:e7:ea:9a:21:8d:76:71:21:60:a1:b2:59:4e:5d:3a:
        b1:5f:11:b1:a1:8b:79:b8:91:1d:29:7c:1d:97:b0:18:fb:d9:
        10:a8:5c:5d:27:7b:3b:ac:5e:4b:7e:7d:6b:cf:cb:72:41:8b:
        5b:78:ca:54:85:59:f9:bd:bd:95:15:f3:1c:2c:4b:27:78:39:
        83:29:6d:fe:dc:01:5f:f1:b7:f7:48:a6:77:b7:19:65:10:89:
        65:1f:5b:57:e4:c7:d5:4a:de:18:d5:1a:bc:95:8f:7f:32:3f:
        43:fa:e1:b5:2b:12:35:a2:5e:c6:a1:f9:40:4d:e3:a5:60:e6:
        32:73:af:8c:e6:b2:5c:35:79:a2:ec:b3:c7:95:e9:51:c0:13:
        54:bd:ba:c8
-----BEGIN CERTIFICATE-----
MIIDdDCCAlygAwIBAgIRAK/yHMxbxE+CdNlVxy5WcBAwDQYJKoZIhvcNAQELBQAw
FTETMBEGA1UEAwwKdGVhbTE2LW5ldDAeFw0yMzExMDMyMDM5MzRaFw0yNjEwMTgy
MDM5MzRaMBgxFjAUBgNVBAMMDXRlYW0xNi1zZXJ2ZXIwggEiMA0GCSqGSIb3DQEB
AQUAA4IBDwAwggEKAoIBAQCMQc1dex07cLe3odQYIXvqKvsiistJNX12z8FbUeWI
ydIH5sZrTweDUEDymtfl7AFcczOIZDYGmofYO9bU3xzxn/3LNvs/IfQuxvcFqfPJ
tzFgcqwJqdlCglshtyNvjU00zjaZ694ZY/3xfEENYl9uteRONZD7vERI0GMAWQJf
JuuiGWEaXsMciLmEBgUjYB0Uotzf084p+BK1X/fa70+yy2n6YWIBoQPhrtun1T+g
4+nzdOkVXPAOb5yOpXk2CRnCwN3w68PloozV/994iyLZ8s6GNlLZJkYm/N4q7rYt
5Xn+qOUYuzEU+Ciox9Q9bTdMdeJSujf2RU8fGySpBPvTAgMBAAGjgbswgbgwCQYD
VR0TBAIwADAdBgNVHQ4EFgQUER1P/0j+4y1QAzbrltEglbnohJcwUAYDVR0jBEkw
R4AU1P1nHUUvw3XMzjOw0zrEaKJVrvGhGaQXMBUxEzARBgNVBAMMCnRlYW0xNi1u
ZXSCFDr58xyoZrwkP7xfKmgqRWHFNlXiMBMGA1UdJQQMMAoGCCsGAQUFBwMBMAsG
A1UdDwQEAwIFoDAYBgNVHREEETAPgg10ZWFtMTYtc2VydmVyMA0GCSqGSIb3DQEB
CwUAA4IBAQDJcuZyAiPI5VXEWgIW/b3tIYACOQBLmUOoJhtknImtNy2q4d489uc8
nupJwmu9xI0XgM9unXIbUolhqk8Xg4sTiuYWiRfHY1DA6x7UAKbocTXFROzyF3zx
pViDuir2eQ9ahclXZCUIVqfRB08KPeXn6pohjXZxIWChsllOXTqxXxGxoYt5uJEd
KXwdl7AY+9kQqFxdJ3s7rF5Lfn1rz8tyQYtbeMpUhVn5vb2VFfMcLEsneDmDKW3+
3AFf8bf3SKZ3txllEIllH1tX5MfVSt4Y1Rq8lY9/Mj9D+uG1KxI1ol7GoflATeOl
YOYyc6+M5rJcNXmi7LPHlelRwBNUvbrI
-----END CERTIFICATE-----
