Certificate:
    Data:
        Version: 3 (0x2)
        Serial Number:
            c9:7a:d0:e4:6c:aa:7f:54:c5:8a:45:b1:44:02:3f:f3
        Signature Algorithm: sha256WithRSAEncryption
        Issuer: CN=team16-net
        Validity
            Not Before: Nov  4 10:40:31 2023 GMT
            Not After : Oct 19 10:40:31 2026 GMT
        Subject: CN=team16-server
        Subject Public Key Info:
            Public Key Algorithm: rsaEncryption
                Public-Key: (2048 bit)
                Modulus:
                    00:b0:b5:4d:68:50:e0:47:eb:7a:db:6d:f0:cf:ea:
                    ef:ed:d6:d1:9b:11:01:fc:f5:be:4d:a7:28:6f:8b:
                    a5:33:be:41:2f:3d:24:b6:f6:b8:38:3f:8b:08:89:
                    67:2f:36:74:2c:ab:62:de:7f:16:1d:32:51:81:c7:
                    dc:6a:76:4f:2f:f1:a1:f6:ad:69:c7:32:b5:96:60:
                    47:3e:6d:65:0d:ae:16:13:16:04:74:03:ee:ec:c6:
                    90:24:8f:67:a3:27:1a:31:e4:b9:bd:13:91:f4:be:
                    a8:e5:ae:24:ea:fb:21:61:4a:c1:95:1c:f7:dd:c5:
                    28:c5:88:24:bd:c4:9a:2f:45:5e:d7:40:18:1a:7c:
                    89:7e:f6:01:f7:59:73:d2:ba:31:ea:e3:9a:4d:ce:
                    ee:dc:c3:49:68:15:61:d7:f3:f7:36:71:28:e3:a4:
                    1f:c5:c0:a4:e7:65:81:37:9a:26:1a:ba:ce:24:e1:
                    04:3b:4a:33:c1:8e:8c:b0:3c:7d:ee:52:b0:69:e8:
                    e7:b6:83:d0:1e:cb:7c:d5:de:8f:e1:79:ad:4f:8c:
                    13:fb:49:ed:a9:07:63:34:29:11:5c:bb:6b:a1:1c:
                    c9:9c:7b:89:23:2d:52:25:7d:a2:6b:ad:07:81:8f:
                    91:c4:19:c6:39:44:cf:14:2a:aa:41:d5:d0:2c:07:
                    2a:f3
                Exponent: 65537 (0x10001)
        X509v3 extensions:
            X509v3 Basic Constraints: 
                CA:FALSE
            X509v3 Subject Key Identifier: 
                A3:E0:7D:DC:E6:CA:07:D8:34:8F:62:97:7C:DA:7F:32:C9:C4:51:41
            X509v3 Authority Key Identifier: 
                keyid:3D:1C:2A:29:15:A6:1C:17:00:8B:0B:74:0E:14:3F:53:85:C3:E6:D3
                DirName:/CN=team16-net
                serial:12:75:C2:CB:F0:55:C2:0C:F2:3B:A9:85:03:F1:B5:80:46:3C:22:F3
            X509v3 Extended Key Usage: 
                TLS Web Server Authentication
            X509v3 Key Usage: 
                Digital Signature, Key Encipherment
            X509v3 Subject Alternative Name: 
                DNS:team16-server
    Signature Algorithm: sha256WithRSAEncryption
    Signature Value:
        3a:9c:19:62:8f:98:8d:75:00:95:83:14:d5:a8:82:e8:a0:2d:
        75:7c:48:ba:e8:a8:97:ca:56:03:ec:6c:67:1d:67:43:af:1c:
        f3:3b:71:84:33:81:da:f0:2d:74:7b:e7:d1:fc:f9:90:bd:0d:
        74:bb:e3:31:44:5d:bd:62:00:31:d0:37:8e:cc:31:aa:20:ca:
        9f:62:b3:f9:69:9d:84:8e:d8:0d:30:8a:53:bf:c2:86:0a:55:
        1b:59:65:25:33:69:90:28:64:ed:50:53:23:b7:0e:cc:fb:29:
        5c:f5:ac:05:48:29:76:a1:fe:0a:9c:ec:ee:2e:ae:b4:ca:57:
        9d:74:e7:c0:8b:ef:9e:a5:42:65:02:18:24:02:4e:9d:28:16:
        ab:78:d3:1c:8d:80:0d:e6:a5:74:ad:b8:11:8f:eb:4a:a6:0f:
        25:9b:ed:17:8b:fe:e2:b7:85:44:bd:b2:26:99:0f:d0:f7:5a:
        9d:b6:df:bb:32:09:64:02:77:fb:37:c7:5a:43:53:25:f9:49:
        82:ab:c5:be:7a:61:90:6f:ed:d4:35:bc:e3:5d:75:87:7c:40:
        6b:b1:5a:b4:3d:ce:95:f9:14:cf:d4:22:27:a4:c7:66:61:8c:
        88:c6:cc:dd:eb:67:21:81:a3:c3:cd:c8:0c:3e:2f:bb:c7:4f:
        52:28:af:4d
-----BEGIN CERTIFICATE-----
MIIDdDCCAlygAwIBAgIRAMl60ORsqn9UxYpFsUQCP/MwDQYJKoZIhvcNAQELBQAw
FTETMBEGA1UEAwwKdGVhbTE2LW5ldDAeFw0yMzExMDQxMDQwMzFaFw0yNjEwMTkx
MDQwMzFaMBgxFjAUBgNVBAMMDXRlYW0xNi1zZXJ2ZXIwggEiMA0GCSqGSIb3DQEB
AQUAA4IBDwAwggEKAoIBAQCwtU1oUOBH63rbbfDP6u/t1tGbEQH89b5Npyhvi6Uz
vkEvPSS29rg4P4sIiWcvNnQsq2LefxYdMlGBx9xqdk8v8aH2rWnHMrWWYEc+bWUN
rhYTFgR0A+7sxpAkj2ejJxox5Lm9E5H0vqjlriTq+yFhSsGVHPfdxSjFiCS9xJov
RV7XQBgafIl+9gH3WXPSujHq45pNzu7cw0loFWHX8/c2cSjjpB/FwKTnZYE3miYa
us4k4QQ7SjPBjoywPH3uUrBp6Oe2g9Aey3zV3o/hea1PjBP7Se2pB2M0KRFcu2uh
HMmce4kjLVIlfaJrrQeBj5HEGcY5RM8UKqpB1dAsByrzAgMBAAGjgbswgbgwCQYD
VR0TBAIwADAdBgNVHQ4EFgQUo+B93ObKB9g0j2KXfNp/MsnEUUEwUAYDVR0jBEkw
R4AUPRwqKRWmHBcAiwt0DhQ/U4XD5tOhGaQXMBUxEzARBgNVBAMMCnRlYW0xNi1u
ZXSCFBJ1wsvwVcIM8juphQPxtYBGPCLzMBMGA1UdJQQMMAoGCCsGAQUFBwMBMAsG
A1UdDwQEAwIFoDAYBgNVHREEETAPgg10ZWFtMTYtc2VydmVyMA0GCSqGSIb3DQEB
CwUAA4IBAQA6nBlij5iNdQCVgxTVqILooC11fEi66KiXylYD7GxnHWdDrxzzO3GE
M4Ha8C10e+fR/PmQvQ10u+MxRF29YgAx0DeOzDGqIMqfYrP5aZ2EjtgNMIpTv8KG
ClUbWWUlM2mQKGTtUFMjtw7M+ylc9awFSCl2of4KnOzuLq60yleddOfAi++epUJl
AhgkAk6dKBareNMcjYAN5qV0rbgRj+tKpg8lm+0Xi/7it4VEvbImmQ/Q91qdtt+7
MglkAnf7N8daQ1Ml+UmCq8W+emGQb+3UNbzjXXWHfEBrsVq0Pc6V+RTP1CInpMdm
YYyIxszd62chgaPDzcgMPi+7x09SKK9N
-----END CERTIFICATE-----
