Certificate:
    Data:
        Version: 3 (0x2)
        Serial Number:
            e9:68:df:1e:e2:e9:0f:b2:e8:c5:f6:ff:31:14:f9:36
        Signature Algorithm: sha256WithRSAEncryption
        Issuer: CN=team16-net
        Validity
            Not Before: Oct 31 16:30:28 2023 GMT
            Not After : Oct 15 16:30:28 2026 GMT
        Subject: CN=team16-server
        Subject Public Key Info:
            Public Key Algorithm: rsaEncryption
                Public-Key: (2048 bit)
                Modulus:
                    00:af:88:4a:df:37:5c:6c:da:1d:50:18:e9:00:f1:
                    cd:57:3b:d1:f3:0a:55:26:e9:3f:72:df:6d:48:50:
                    f7:97:87:ae:91:75:b4:50:f3:4c:dc:42:7a:29:c7:
                    c3:dd:a0:c4:7b:59:78:ac:68:d3:f4:07:5a:06:34:
                    9a:b8:e7:3c:5b:da:48:82:e1:df:2c:50:8f:f5:9d:
                    5d:7b:c6:ba:99:69:60:3c:37:0d:d5:74:0c:0d:06:
                    03:26:67:4a:5a:ab:9b:1f:1d:cf:87:e2:c1:28:88:
                    73:ba:61:05:44:7d:15:13:d2:d0:f9:9d:a8:5c:4d:
                    a0:a7:e4:61:73:37:01:ee:68:74:9a:8d:3f:82:7b:
                    c2:09:d6:6e:a4:c0:30:55:3a:bd:c8:aa:c3:98:3d:
                    4f:9a:dd:a2:eb:36:14:3a:3b:ae:0b:f0:69:c8:7b:
                    41:9c:19:92:84:18:af:58:62:5d:f4:db:fb:36:80:
                    22:19:96:2f:81:d6:dc:15:a6:9b:e0:c8:26:87:9a:
                    03:6f:eb:20:45:cf:dd:cc:1d:13:cf:53:9f:2a:53:
                    4a:de:c6:f9:aa:1e:4e:44:c9:6e:e2:22:b8:a0:7c:
                    19:3d:5c:80:70:28:d9:48:89:ae:65:f7:83:0a:aa:
                    46:4b:8d:10:9c:20:fb:fb:7d:de:02:8f:6f:23:5b:
                    62:e7
                Exponent: 65537 (0x10001)
        X509v3 extensions:
            X509v3 Basic Constraints: 
                CA:FALSE
            X509v3 Subject Key Identifier: 
                86:7A:A8:1D:C8:A6:13:8D:48:32:6C:54:18:A4:D2:CB:27:69:98:C5
            X509v3 Authority Key Identifier: 
                keyid:E0:3E:50:8A:DE:31:E4:2A:DA:DC:1A:CD:31:DA:02:8C:36:78:5B:90
                DirName:/CN=team16-net
                serial:69:BD:BC:E0:80:22:3E:75:F2:BF:15:BA:5F:E0:77:C7:94:04:2B:E0
            X509v3 Extended Key Usage: 
                TLS Web Server Authentication
            X509v3 Key Usage: 
                Digital Signature, Key Encipherment
            X509v3 Subject Alternative Name: 
                DNS:team16-server
    Signature Algorithm: sha256WithRSAEncryption
    Signature Value:
        71:01:bc:89:65:8f:37:d6:6d:f4:79:1e:51:61:16:3e:23:45:
        a9:69:5b:70:9e:92:6b:7b:cf:d5:f9:f5:00:a3:ad:0c:9a:e1:
        28:c4:7e:33:c0:78:f0:aa:f0:99:24:b0:e5:64:d8:81:3b:cf:
        10:e9:f4:34:ed:db:f0:bb:ee:4a:c5:bd:10:3f:01:0c:a8:69:
        ce:cd:69:5f:a9:21:d4:a0:7b:1e:95:8f:63:6b:09:ce:08:0c:
        84:70:f0:95:e3:f2:b1:9c:d1:08:7b:01:c0:d7:b4:fd:31:ee:
        79:24:e6:67:7e:a2:d7:b2:dc:41:15:2c:0d:f1:18:c2:61:91:
        d8:57:65:8c:fe:0d:bb:d3:e9:9e:b3:a2:dc:de:0a:fd:08:97:
        2b:ba:23:0d:e9:d5:68:f7:c4:3a:f3:fd:16:35:d6:88:6b:73:
        fa:c5:c2:7e:81:6b:ca:30:dd:eb:e8:73:57:24:3f:69:1a:de:
        5e:a2:8a:55:07:3c:1a:19:eb:e9:a0:90:f9:0c:e6:54:9b:44:
        dd:34:3e:9f:d3:72:a9:76:b3:88:42:e8:43:17:0a:27:04:12:
        04:4f:72:26:eb:12:30:ac:f1:7f:47:b3:9c:94:1b:85:ad:48:
        08:46:a9:1a:d6:90:46:f2:3a:7a:44:18:f5:7e:22:4c:83:30:
        d2:75:26:9d
-----BEGIN CERTIFICATE-----
MIIDdDCCAlygAwIBAgIRAOlo3x7i6Q+y6MX2/zEU+TYwDQYJKoZIhvcNAQELBQAw
FTETMBEGA1UEAwwKdGVhbTE2LW5ldDAeFw0yMzEwMzExNjMwMjhaFw0yNjEwMTUx
NjMwMjhaMBgxFjAUBgNVBAMMDXRlYW0xNi1zZXJ2ZXIwggEiMA0GCSqGSIb3DQEB
AQUAA4IBDwAwggEKAoIBAQCviErfN1xs2h1QGOkA8c1XO9HzClUm6T9y321IUPeX
h66RdbRQ80zcQnopx8PdoMR7WXisaNP0B1oGNJq45zxb2kiC4d8sUI/1nV17xrqZ
aWA8Nw3VdAwNBgMmZ0paq5sfHc+H4sEoiHO6YQVEfRUT0tD5nahcTaCn5GFzNwHu
aHSajT+Ce8IJ1m6kwDBVOr3IqsOYPU+a3aLrNhQ6O64L8GnIe0GcGZKEGK9YYl30
2/s2gCIZli+B1twVppvgyCaHmgNv6yBFz93MHRPPU58qU0rexvmqHk5EyW7iIrig
fBk9XIBwKNlIia5l94MKqkZLjRCcIPv7fd4Cj28jW2LnAgMBAAGjgbswgbgwCQYD
VR0TBAIwADAdBgNVHQ4EFgQUhnqoHcimE41IMmxUGKTSyydpmMUwUAYDVR0jBEkw
R4AU4D5Qit4x5Cra3BrNMdoCjDZ4W5ChGaQXMBUxEzARBgNVBAMMCnRlYW0xNi1u
ZXSCFGm9vOCAIj518r8Vul/gd8eUBCvgMBMGA1UdJQQMMAoGCCsGAQUFBwMBMAsG
A1UdDwQEAwIFoDAYBgNVHREEETAPgg10ZWFtMTYtc2VydmVyMA0GCSqGSIb3DQEB
CwUAA4IBAQBxAbyJZY831m30eR5RYRY+I0WpaVtwnpJre8/V+fUAo60MmuEoxH4z
wHjwqvCZJLDlZNiBO88Q6fQ07dvwu+5Kxb0QPwEMqGnOzWlfqSHUoHselY9jawnO
CAyEcPCV4/KxnNEIewHA17T9Me55JOZnfqLXstxBFSwN8RjCYZHYV2WM/g270+me
s6Lc3gr9CJcruiMN6dVo98Q68/0WNdaIa3P6xcJ+gWvKMN3r6HNXJD9pGt5eoopV
BzwaGevpoJD5DOZUm0TdND6f03KpdrOIQuhDFwonBBIET3Im6xIwrPF/R7OclBuF
rUgIRqka1pBG8jp6RBj1fiJMgzDSdSad
-----END CERTIFICATE-----
