Certificate:
    Data:
        Version: 3 (0x2)
        Serial Number:
            29:50:c6:06:21:ab:70:70:b2:88:c4:cb:e1:61:bd:8c
        Signature Algorithm: sha256WithRSAEncryption
        Issuer: CN=team441-net
        Validity
            Not Before: Nov  4 11:37:23 2023 GMT
            Not After : Oct 19 11:37:23 2026 GMT
        Subject: CN=team441-server
        Subject Public Key Info:
            Public Key Algorithm: rsaEncryption
                Public-Key: (2048 bit)
                Modulus:
                    00:99:6f:cb:d5:e5:01:bd:15:3e:5c:46:ef:67:b2:
                    d6:df:7b:6e:9c:32:63:f0:46:ed:0a:4a:4b:8e:74:
                    e7:69:e1:2a:ad:1c:d1:a4:40:e4:64:91:72:c8:54:
                    f0:02:d3:99:39:a9:a9:34:d8:f8:90:b7:69:9f:26:
                    d0:fd:f8:7e:5a:0a:7a:2a:6d:de:bb:5c:0a:e1:13:
                    5f:84:75:d0:11:67:65:48:2a:a2:e0:72:ee:74:f9:
                    d1:a2:05:f9:4d:0b:34:44:b5:ec:3b:b8:23:76:b3:
                    b8:e6:29:c8:82:02:9e:71:66:26:fc:73:0c:e7:68:
                    a7:15:bd:e4:9d:72:ec:89:de:e8:55:78:28:e9:61:
                    8e:21:61:5e:a2:87:f6:fc:aa:65:ef:09:14:28:45:
                    9f:9e:b9:a4:c8:fb:5d:0b:5d:8b:db:db:01:60:7b:
                    5e:a8:ea:09:ee:2e:e8:4d:76:98:bb:2b:a9:a1:58:
                    54:a7:14:76:b2:b8:51:a4:df:6a:5f:70:72:91:d8:
                    87:5a:7f:95:ba:ee:23:e1:62:b2:35:f0:1c:39:90:
                    e2:b7:47:5a:91:f0:5b:46:2a:1a:00:f9:0b:93:be:
                    45:43:ae:c7:2f:35:1b:3a:29:3b:0c:c0:f5:f3:32:
                    d8:8a:ed:9a:07:89:3a:64:14:70:c3:90:2d:2b:27:
                    e2:7b
                Exponent: 65537 (0x10001)
        X509v3 extensions:
            X509v3 Basic Constraints: 
                CA:FALSE
            X509v3 Subject Key Identifier: 
                BB:D2:90:66:C8:20:D7:75:81:A6:C6:6C:BC:C5:BB:77:85:18:4B:5F
            X509v3 Authority Key Identifier: 
                keyid:7D:1C:10:9E:9D:B9:76:B9:BE:2A:44:5B:8C:32:F6:84:A2:50:A1:22
                DirName:/CN=team441-net
                serial:13:5D:E8:DC:EA:CD:83:69:30:65:9A:3F:FB:4D:5D:00:79:EF:DA:52
            X509v3 Extended Key Usage: 
                TLS Web Server Authentication
            X509v3 Key Usage: 
                Digital Signature, Key Encipherment
            X509v3 Subject Alternative Name: 
                DNS:team441-server
    Signature Algorithm: sha256WithRSAEncryption
    Signature Value:
        3a:06:1e:13:41:89:bc:76:17:0e:8b:cf:7b:d1:19:a9:42:d4:
        c2:c9:42:57:f8:79:2c:00:63:b7:1f:29:de:69:ab:6c:ca:ba:
        9b:e5:ac:01:9b:b8:0d:f2:10:72:81:70:df:a8:38:a4:93:89:
        80:22:81:5e:f0:98:f3:fb:d9:3b:9d:f7:c9:bf:ba:c3:ba:b1:
        73:c6:a1:11:98:7e:c6:01:2e:99:dc:a7:5c:50:32:3e:ae:c9:
        ad:b5:4f:f7:10:47:0a:00:08:4a:4a:f6:34:e9:77:41:fa:b3:
        ef:f3:59:a0:ba:3c:08:88:1f:7a:da:16:13:6d:5f:05:06:2c:
        4c:f7:78:67:13:67:03:8a:cf:6b:4b:6b:cf:2d:46:7d:a1:44:
        a2:aa:f9:4f:7c:57:94:ca:1f:c4:38:bb:42:98:fa:9b:2e:7a:
        cd:2f:ec:7f:cf:80:e5:58:28:e9:3a:f5:e7:62:a9:1c:95:42:
        fa:e5:43:88:f4:9a:eb:32:4c:52:e3:c4:b3:12:93:8a:fc:e5:
        df:9f:8a:5a:c6:f9:ff:28:65:4a:14:5d:54:6d:86:d3:a4:44:
        17:5e:b7:57:2e:01:e8:30:2d:b6:ec:29:73:18:61:99:f5:45:
        8f:bd:68:f4:6a:da:48:df:ea:4d:aa:f0:90:60:6c:dd:37:93:
        92:d0:aa:b2
-----BEGIN CERTIFICATE-----
MIIDdzCCAl+gAwIBAgIQKVDGBiGrcHCyiMTL4WG9jDANBgkqhkiG9w0BAQsFADAW
MRQwEgYDVQQDDAt0ZWFtNDQxLW5ldDAeFw0yMzExMDQxMTM3MjNaFw0yNjEwMTkx
MTM3MjNaMBkxFzAVBgNVBAMMDnRlYW00NDEtc2VydmVyMIIBIjANBgkqhkiG9w0B
AQEFAAOCAQ8AMIIBCgKCAQEAmW/L1eUBvRU+XEbvZ7LW33tunDJj8EbtCkpLjnTn
aeEqrRzRpEDkZJFyyFTwAtOZOampNNj4kLdpnybQ/fh+Wgp6Km3eu1wK4RNfhHXQ
EWdlSCqi4HLudPnRogX5TQs0RLXsO7gjdrO45inIggKecWYm/HMM52inFb3knXLs
id7oVXgo6WGOIWFeoof2/Kpl7wkUKEWfnrmkyPtdC12L29sBYHteqOoJ7i7oTXaY
uyupoVhUpxR2srhRpN9qX3BykdiHWn+Vuu4j4WKyNfAcOZDit0dakfBbRioaAPkL
k75FQ67HLzUbOik7DMD18zLYiu2aB4k6ZBRww5AtKyfiewIDAQABo4G9MIG6MAkG
A1UdEwQCMAAwHQYDVR0OBBYEFLvSkGbIINd1gabGbLzFu3eFGEtfMFEGA1UdIwRK
MEiAFH0cEJ6duXa5vipEW4wy9oSiUKEioRqkGDAWMRQwEgYDVQQDDAt0ZWFtNDQx
LW5ldIIUE13o3OrNg2kwZZo/+01dAHnv2lIwEwYDVR0lBAwwCgYIKwYBBQUHAwEw
CwYDVR0PBAQDAgWgMBkGA1UdEQQSMBCCDnRlYW00NDEtc2VydmVyMA0GCSqGSIb3
DQEBCwUAA4IBAQA6Bh4TQYm8dhcOi8970RmpQtTCyUJX+HksAGO3Hyneaatsyrqb
5awBm7gN8hBygXDfqDikk4mAIoFe8Jjz+9k7nffJv7rDurFzxqERmH7GAS6Z3Kdc
UDI+rsmttU/3EEcKAAhKSvY06XdB+rPv81mgujwIiB962hYTbV8FBixM93hnE2cD
is9rS2vPLUZ9oUSiqvlPfFeUyh/EOLtCmPqbLnrNL+x/z4DlWCjpOvXnYqkclUL6
5UOI9JrrMkxS48SzEpOK/OXfn4paxvn/KGVKFF1UbYbTpEQXXrdXLgHoMC227Clz
GGGZ9UWPvWj0atpI3+pNqvCQYGzdN5OS0Kqy
-----END CERTIFICATE-----
