Certificate:
    Data:
        Version: 3 (0x2)
        Serial Number:
            53:6c:72:cc:d4:6b:b0:5d:13:4f:4f:3d:68:d5:5f:cd
        Signature Algorithm: sha256WithRSAEncryption
        Issuer: CN=team441-net
        Validity
            Not Before: Nov  4 10:48:32 2023 GMT
            Not After : Oct 19 10:48:32 2026 GMT
        Subject: CN=team441-client
        Subject Public Key Info:
            Public Key Algorithm: rsaEncryption
                Public-Key: (2048 bit)
                Modulus:
                    00:a8:52:74:15:a8:0f:1e:b9:2d:dc:6a:08:8b:ca:
                    1b:de:54:35:81:8f:6e:d2:7c:ea:17:16:76:f6:87:
                    a4:ac:24:2b:0f:25:5b:9b:7a:4b:bd:22:11:b0:5d:
                    8c:05:3c:90:0b:75:48:78:39:b1:01:c7:3e:33:fb:
                    97:97:2b:c5:9e:92:f2:33:ba:be:75:ec:5a:c1:84:
                    99:bb:f1:0a:20:ad:29:4b:5a:ea:75:4e:97:37:0b:
                    a9:6b:6c:d1:66:8a:d0:8d:ad:6a:90:f0:94:5b:13:
                    8b:70:f9:25:46:62:57:55:81:56:71:5b:30:f0:b6:
                    47:4d:28:5e:4d:47:c0:19:0f:b3:ff:2c:88:dd:6b:
                    6a:3d:bf:a0:96:8c:84:9d:23:3a:4b:bb:1f:54:5b:
                    24:46:a9:c5:4c:e8:16:bc:88:ba:ea:b6:51:99:72:
                    28:e8:1e:74:7d:cc:b4:5b:39:2d:91:46:ae:7a:d7:
                    ee:58:d4:ba:fb:1b:ec:64:51:bd:bf:7e:57:70:4f:
                    c1:b7:41:df:f4:e2:3a:75:e7:be:54:c5:6b:97:02:
                    43:4b:c6:29:3e:58:bd:5d:41:e8:09:8b:54:fa:ae:
                    ac:43:aa:8b:17:f3:df:04:66:63:4f:fd:62:52:b3:
                    15:6b:b2:44:c4:e2:fa:f7:d0:21:eb:a5:10:aa:ae:
                    24:a3
                Exponent: 65537 (0x10001)
        X509v3 extensions:
            X509v3 Basic Constraints: 
                CA:FALSE
            X509v3 Subject Key Identifier: 
                17:28:02:5C:42:61:D5:A2:D2:15:EC:20:04:B4:00:4C:76:6F:07:4F
            X509v3 Authority Key Identifier: 
                keyid:48:CE:50:B3:08:F1:A7:B0:25:55:1C:56:3A:63:0B:D4:7C:7D:F5:5A
                DirName:/CN=team441-net
                serial:35:61:FD:E6:72:26:70:C9:25:80:56:B5:C1:13:D7:35:10:5D:0A:94
            X509v3 Extended Key Usage: 
                TLS Web Client Authentication
            X509v3 Key Usage: 
                Digital Signature
    Signature Algorithm: sha256WithRSAEncryption
    Signature Value:
        bf:e3:f3:f9:40:e1:1d:e3:49:ac:62:48:66:25:39:c5:2e:6c:
        6f:79:fc:77:9f:07:5a:b6:43:d4:7d:00:a0:5d:a1:44:d6:c9:
        78:39:28:9b:77:9c:a6:56:f1:d1:3c:fa:22:3c:e6:f8:c8:21:
        02:e9:90:e3:4b:ef:45:33:f4:00:10:a3:34:a8:a1:5e:92:95:
        cb:62:b5:fc:08:55:fa:52:5e:4d:90:e7:41:90:36:61:a8:b9:
        b6:54:ca:0d:b5:28:83:3b:ce:dd:e1:b4:76:a2:c1:ea:21:d0:
        8f:30:ef:b3:0d:2f:99:5b:1e:3a:bc:c6:39:86:af:36:32:c6:
        4b:60:b5:ca:42:49:df:69:bd:9d:f6:e1:25:36:a2:80:2b:a5:
        64:b3:3b:ab:01:77:a3:65:76:e2:19:04:c3:56:6d:b4:8f:19:
        ae:80:10:77:2d:20:b6:8b:9c:8a:c8:65:4e:37:eb:f7:ff:7f:
        89:c7:7e:3e:7f:b3:e1:5d:03:31:a7:51:52:11:b1:85:5a:5b:
        e5:de:27:5c:2a:d0:45:68:d3:98:4f:ed:8b:50:c2:6e:21:75:
        7c:d1:a6:a1:c3:b7:2c:c6:a9:e6:d2:6d:7b:b3:df:a8:21:db:
        b0:d6:c8:57:f1:50:c6:95:07:3c:ed:1e:4e:4e:40:74:46:73:
        a6:bc:14:f2
-----BEGIN CERTIFICATE-----
MIIDXDCCAkSgAwIBAgIQU2xyzNRrsF0TT089aNVfzTANBgkqhkiG9w0BAQsFADAW
MRQwEgYDVQQDDAt0ZWFtNDQxLW5ldDAeFw0yMzExMDQxMDQ4MzJaFw0yNjEwMTkx
MDQ4MzJaMBkxFzAVBgNVBAMMDnRlYW00NDEtY2xpZW50MIIBIjANBgkqhkiG9w0B
AQEFAAOCAQ8AMIIBCgKCAQEAqFJ0FagPHrkt3GoIi8ob3lQ1gY9u0nzqFxZ29oek
rCQrDyVbm3pLvSIRsF2MBTyQC3VIeDmxAcc+M/uXlyvFnpLyM7q+dexawYSZu/EK
IK0pS1rqdU6XNwupa2zRZorQja1qkPCUWxOLcPklRmJXVYFWcVsw8LZHTSheTUfA
GQ+z/yyI3WtqPb+gloyEnSM6S7sfVFskRqnFTOgWvIi66rZRmXIo6B50fcy0Wzkt
kUauetfuWNS6+xvsZFG9v35XcE/Bt0Hf9OI6dee+VMVrlwJDS8YpPli9XUHoCYtU
+q6sQ6qLF/PfBGZjT/1iUrMVa7JExOL699Ah66UQqq4kowIDAQABo4GiMIGfMAkG
A1UdEwQCMAAwHQYDVR0OBBYEFBcoAlxCYdWi0hXsIAS0AEx2bwdPMFEGA1UdIwRK
MEiAFEjOULMI8aewJVUcVjpjC9R8ffVaoRqkGDAWMRQwEgYDVQQDDAt0ZWFtNDQx
LW5ldIIUNWH95nImcMklgFa1wRPXNRBdCpQwEwYDVR0lBAwwCgYIKwYBBQUHAwIw
CwYDVR0PBAQDAgeAMA0GCSqGSIb3DQEBCwUAA4IBAQC/4/P5QOEd40msYkhmJTnF
Lmxvefx3nwdatkPUfQCgXaFE1sl4OSibd5ymVvHRPPoiPOb4yCEC6ZDjS+9FM/QA
EKM0qKFekpXLYrX8CFX6Ul5NkOdBkDZhqLm2VMoNtSiDO87d4bR2osHqIdCPMO+z
DS+ZWx46vMY5hq82MsZLYLXKQknfab2d9uElNqKAK6VkszurAXejZXbiGQTDVm20
jxmugBB3LSC2i5yKyGVON+v3/3+Jx34+f7PhXQMxp1FSEbGFWlvl3idcKtBFaNOY
T+2LUMJuIXV80aahw7csxqnm0m17s9+oIduw1shX8VDGlQc87R5OTkB0RnOmvBTy
-----END CERTIFICATE-----
