Certificate:
    Data:
        Version: 3 (0x2)
        Serial Number:
            ff:31:cc:c3:8e:6e:79:51:9a:4d:0c:53:47:5f:45:47
        Signature Algorithm: sha256WithRSAEncryption
        Issuer: CN=team494-net
        Validity
            Not Before: Nov  3 20:48:18 2023 GMT
            Not After : Oct 18 20:48:18 2026 GMT
        Subject: CN=team494-server
        Subject Public Key Info:
            Public Key Algorithm: rsaEncryption
                Public-Key: (2048 bit)
                Modulus:
                    00:a9:43:49:45:9f:b5:66:c0:c9:ad:f2:52:e5:b1:
                    1e:dd:69:09:16:f5:05:b2:fa:71:4a:2c:96:95:0f:
                    a5:af:eb:a2:66:90:30:a7:b2:88:66:ef:36:54:e4:
                    9f:36:e5:56:32:1f:2c:c7:2c:80:fe:6a:4c:39:c5:
                    2a:d9:9e:ba:c6:98:69:1f:0d:2d:f3:da:69:90:bf:
                    7a:6e:35:54:8c:da:bc:51:6f:02:93:15:4c:58:a2:
                    82:99:8d:0d:cf:72:ee:66:e5:86:a5:38:d2:d0:ef:
                    62:af:0d:25:92:98:e9:36:0c:f4:f4:21:9c:d7:72:
                    ff:2d:15:bb:0d:c4:55:9c:a8:d8:32:7b:a6:eb:b2:
                    a4:87:85:53:b6:e1:80:84:dc:fe:2e:da:e9:b2:b2:
                    00:48:c6:bc:10:2b:72:8a:ec:0e:0d:54:4f:5d:25:
                    c9:0e:ef:0d:d3:1c:1b:4d:35:f6:81:98:b8:b4:1b:
                    36:d1:4d:c7:67:c7:b4:62:2e:cf:fb:16:5d:41:d0:
                    4b:a5:2d:23:a9:0d:33:78:88:c1:b8:2a:37:41:ab:
                    0e:36:42:77:d3:92:75:57:4f:62:05:93:4b:6b:17:
                    58:13:f3:f1:b0:4b:67:c1:fd:4b:7a:34:a2:63:de:
                    25:bc:66:ae:b9:eb:38:69:15:1f:ed:1f:de:3e:4d:
                    4c:71
                Exponent: 65537 (0x10001)
        X509v3 extensions:
            X509v3 Basic Constraints: 
                CA:FALSE
            X509v3 Subject Key Identifier: 
                6E:64:BA:40:41:31:19:C3:38:75:CC:C7:97:ED:3C:7D:44:72:A5:FD
            X509v3 Authority Key Identifier: 
                keyid:A1:70:92:80:5A:D5:4D:93:60:30:37:A8:A8:54:4F:78:43:EA:82:C3
                DirName:/CN=team494-net
                serial:24:F1:A5:3A:04:47:E9:A4:BD:33:4C:3E:B5:64:44:03:D7:95:25:80
            X509v3 Extended Key Usage: 
                TLS Web Server Authentication
            X509v3 Key Usage: 
                Digital Signature, Key Encipherment
            X509v3 Subject Alternative Name: 
                DNS:team494-server
    Signature Algorithm: sha256WithRSAEncryption
    Signature Value:
        00:61:04:36:a1:65:24:4e:c3:6f:3a:fd:d5:ca:33:88:98:6c:
        d5:94:a9:3a:d8:48:a7:13:18:e6:78:37:8f:77:4a:ee:ae:c3:
        9f:c9:dd:f6:bc:bc:ae:00:dc:62:22:ff:46:e5:4c:5a:15:c9:
        a3:c1:bf:4d:ba:1c:c8:2a:c8:5d:29:d2:65:82:84:1f:40:5f:
        01:22:c6:28:3c:19:d9:b3:60:de:24:21:0e:79:18:c8:7b:61:
        b1:67:b1:67:42:2c:be:28:12:69:e4:ef:b2:a2:12:e1:05:f9:
        67:92:b3:39:f2:b4:3e:cd:ae:76:29:29:6d:0f:21:91:63:99:
        7a:f6:d9:cb:60:ec:ff:4d:70:1f:d7:9b:6a:55:65:3f:72:1d:
        cb:7f:7a:d3:1b:c9:98:e9:65:0b:02:70:f3:b1:ef:0f:a6:3f:
        de:55:ac:72:32:9f:5b:7f:1e:b4:21:f0:2e:bf:95:dd:b3:fc:
        e8:cc:55:ef:04:0f:dd:80:a5:09:de:6d:95:42:e1:43:46:0a:
        40:ab:76:88:6b:e3:33:2d:61:4d:b8:b4:38:cd:e4:82:a0:21:
        d7:f6:fc:f7:ab:53:76:53:f6:32:0a:59:ea:20:e1:a1:e4:83:
        37:3b:9e:40:b9:2f:eb:8f:78:a9:a4:1c:f3:9d:72:11:a0:43:
        db:9f:75:63
-----BEGIN CERTIFICATE-----
MIIDeDCCAmCgAwIBAgIRAP8xzMOObnlRmk0MU0dfRUcwDQYJKoZIhvcNAQELBQAw
FjEUMBIGA1UEAwwLdGVhbTQ5NC1uZXQwHhcNMjMxMTAzMjA0ODE4WhcNMjYxMDE4
MjA0ODE4WjAZMRcwFQYDVQQDDA50ZWFtNDk0LXNlcnZlcjCCASIwDQYJKoZIhvcN
AQEBBQADggEPADCCAQoCggEBAKlDSUWftWbAya3yUuWxHt1pCRb1BbL6cUoslpUP
pa/romaQMKeyiGbvNlTknzblVjIfLMcsgP5qTDnFKtmeusaYaR8NLfPaaZC/em41
VIzavFFvApMVTFiigpmNDc9y7mblhqU40tDvYq8NJZKY6TYM9PQhnNdy/y0Vuw3E
VZyo2DJ7puuypIeFU7bhgITc/i7a6bKyAEjGvBArcorsDg1UT10lyQ7vDdMcG001
9oGYuLQbNtFNx2fHtGIuz/sWXUHQS6UtI6kNM3iIwbgqN0GrDjZCd9OSdVdPYgWT
S2sXWBPz8bBLZ8H9S3o0omPeJbxmrrnrOGkVH+0f3j5NTHECAwEAAaOBvTCBujAJ
BgNVHRMEAjAAMB0GA1UdDgQWBBRuZLpAQTEZwzh1zMeX7Tx9RHKl/TBRBgNVHSME
SjBIgBShcJKAWtVNk2AwN6ioVE94Q+qCw6EapBgwFjEUMBIGA1UEAwwLdGVhbTQ5
NC1uZXSCFCTxpToER+mkvTNMPrVkRAPXlSWAMBMGA1UdJQQMMAoGCCsGAQUFBwMB
MAsGA1UdDwQEAwIFoDAZBgNVHREEEjAQgg50ZWFtNDk0LXNlcnZlcjANBgkqhkiG
9w0BAQsFAAOCAQEAAGEENqFlJE7Dbzr91coziJhs1ZSpOthIpxMY5ng3j3dK7q7D
n8nd9ry8rgDcYiL/RuVMWhXJo8G/TbocyCrIXSnSZYKEH0BfASLGKDwZ2bNg3iQh
DnkYyHthsWexZ0IsvigSaeTvsqIS4QX5Z5KzOfK0Ps2udikpbQ8hkWOZevbZy2Ds
/01wH9ebalVlP3Idy3960xvJmOllCwJw87HvD6Y/3lWscjKfW38etCHwLr+V3bP8
6MxV7wQP3YClCd5tlULhQ0YKQKt2iGvjMy1hTbi0OM3kgqAh1/b896tTdlP2MgpZ
6iDhoeSDNzueQLkv6494qaQc851yEaBD2591Yw==
-----END CERTIFICATE-----
