Certificate:
    Data:
        Version: 3 (0x2)
        Serial Number:
            17:10:64:d4:3d:e8:5a:c7:b2:ce:87:05:a0:47:32:3d
        Signature Algorithm: sha256WithRSAEncryption
        Issuer: CN=team286-net
        Validity
            Not Before: Nov  4 10:45:57 2023 GMT
            Not After : Oct 19 10:45:57 2026 GMT
        Subject: CN=team286-server
        Subject Public Key Info:
            Public Key Algorithm: rsaEncryption
                Public-Key: (2048 bit)
                Modulus:
                    00:b2:01:f8:0f:be:b4:1b:3c:0e:4f:ab:a3:2e:96:
                    90:88:14:db:6f:4e:25:1b:a5:75:96:9a:9b:35:61:
                    67:14:0e:e9:4d:78:b6:d5:a1:87:c9:36:31:99:0b:
                    0f:12:4e:2f:1d:03:e9:5e:dc:e4:c9:2d:04:50:52:
                    81:f6:bb:3c:94:41:09:a9:8b:a4:3c:70:21:08:94:
                    53:f3:ab:a3:ea:75:ef:e0:a2:32:32:b1:e7:c9:5c:
                    7e:11:7c:b8:45:d8:28:9d:90:2d:cd:22:86:5f:e5:
                    c5:5f:cf:f3:ec:2c:a1:2d:bd:89:70:4f:3e:c4:4d:
                    8b:04:a8:cb:cf:c6:4e:93:05:ca:26:a2:93:6d:a4:
                    63:61:e0:71:9b:ce:2d:4a:e7:f9:ba:91:30:6c:e8:
                    7a:2e:23:d0:08:c7:7c:77:61:e4:35:1c:ef:4f:77:
                    0d:cc:53:33:ce:d4:d4:1b:a7:ec:6a:60:90:cf:07:
                    00:5f:3c:04:be:f2:d0:96:82:ec:f3:e1:c9:27:b3:
                    da:40:7a:47:cc:74:b3:c6:6b:c8:80:69:e3:ba:88:
                    12:4c:ab:79:c2:cd:9d:42:69:20:8f:6e:e0:e4:05:
                    02:0c:f6:82:71:e5:14:62:99:d8:f2:fb:a1:7d:85:
                    84:d9:b4:8c:46:be:dc:90:c6:b7:2f:d3:04:09:68:
                    fd:e3
                Exponent: 65537 (0x10001)
        X509v3 extensions:
            X509v3 Basic Constraints: 
                CA:FALSE
            X509v3 Subject Key Identifier: 
                C1:15:E4:23:A5:EB:34:48:A3:CA:BB:D5:06:1E:48:DD:D2:9B:0B:6B
            X509v3 Authority Key Identifier: 
                keyid:36:0B:D9:F1:62:13:D3:19:78:A4:94:8C:43:72:AF:92:9B:1B:AD:A4
                DirName:/CN=team286-net
                serial:02:2B:32:B7:F5:3F:6E:EB:32:2A:CE:4F:07:28:6E:31:5A:51:4F:56
            X509v3 Extended Key Usage: 
                TLS Web Server Authentication
            X509v3 Key Usage: 
                Digital Signature, Key Encipherment
            X509v3 Subject Alternative Name: 
                DNS:team286-server
    Signature Algorithm: sha256WithRSAEncryption
    Signature Value:
        0e:0c:ab:09:2a:ab:68:aa:c3:11:c6:e4:44:ab:2e:3a:90:13:
        3b:3c:96:91:ef:9b:4f:64:d4:e8:19:8f:40:2e:4d:9b:5a:3e:
        1d:e1:37:87:18:8d:ae:f2:9b:06:78:25:85:c1:8e:0f:57:58:
        78:1b:80:cc:c3:56:cb:03:77:d9:d7:f7:f5:34:4a:29:7d:c1:
        57:9c:23:6f:4d:fa:8e:e6:40:14:d7:89:b3:be:64:05:9d:9f:
        3c:9a:9f:a4:fe:d4:4b:4f:49:e1:dd:82:21:0e:59:b0:28:75:
        51:4c:36:61:19:69:f7:0a:2a:cf:0d:af:2b:22:4b:8c:ce:44:
        d0:bf:d9:43:37:0a:10:80:fb:56:0c:3f:74:5c:26:cd:80:0b:
        b6:35:12:ac:3b:e2:b8:67:31:07:df:58:5c:28:0a:1a:dd:78:
        06:12:d2:1c:ef:c1:1d:8c:63:9c:a1:36:3a:09:5f:60:02:02:
        83:4b:b5:8f:d3:b6:58:d4:b7:78:02:f5:03:f0:30:5f:c9:77:
        eb:0b:9b:ce:10:11:5c:f2:a3:fd:1a:ed:37:aa:8c:d3:33:ea:
        c5:10:7f:8b:68:1e:18:b0:ca:e3:65:d2:9e:a8:a7:8d:1b:19:
        10:2c:d1:c5:76:2c:da:6c:f6:0b:73:11:77:30:af:ae:e1:0c:
        77:26:d1:f8
-----BEGIN CERTIFICATE-----
MIIDdzCCAl+gAwIBAgIQFxBk1D3oWseyzocFoEcyPTANBgkqhkiG9w0BAQsFADAW
MRQwEgYDVQQDDAt0ZWFtMjg2LW5ldDAeFw0yMzExMDQxMDQ1NTdaFw0yNjEwMTkx
MDQ1NTdaMBkxFzAVBgNVBAMMDnRlYW0yODYtc2VydmVyMIIBIjANBgkqhkiG9w0B
AQEFAAOCAQ8AMIIBCgKCAQEAsgH4D760GzwOT6ujLpaQiBTbb04lG6V1lpqbNWFn
FA7pTXi21aGHyTYxmQsPEk4vHQPpXtzkyS0EUFKB9rs8lEEJqYukPHAhCJRT86uj
6nXv4KIyMrHnyVx+EXy4RdgonZAtzSKGX+XFX8/z7CyhLb2JcE8+xE2LBKjLz8ZO
kwXKJqKTbaRjYeBxm84tSuf5upEwbOh6LiPQCMd8d2HkNRzvT3cNzFMzztTUG6fs
amCQzwcAXzwEvvLQloLs8+HJJ7PaQHpHzHSzxmvIgGnjuogSTKt5ws2dQmkgj27g
5AUCDPaCceUUYpnY8vuhfYWE2bSMRr7ckMa3L9MECWj94wIDAQABo4G9MIG6MAkG
A1UdEwQCMAAwHQYDVR0OBBYEFMEV5COl6zRIo8q71QYeSN3SmwtrMFEGA1UdIwRK
MEiAFDYL2fFiE9MZeKSUjENyr5KbG62koRqkGDAWMRQwEgYDVQQDDAt0ZWFtMjg2
LW5ldIIUAisyt/U/busyKs5PByhuMVpRT1YwEwYDVR0lBAwwCgYIKwYBBQUHAwEw
CwYDVR0PBAQDAgWgMBkGA1UdEQQSMBCCDnRlYW0yODYtc2VydmVyMA0GCSqGSIb3
DQEBCwUAA4IBAQAODKsJKqtoqsMRxuREqy46kBM7PJaR75tPZNToGY9ALk2bWj4d
4TeHGI2u8psGeCWFwY4PV1h4G4DMw1bLA3fZ1/f1NEopfcFXnCNvTfqO5kAU14mz
vmQFnZ88mp+k/tRLT0nh3YIhDlmwKHVRTDZhGWn3CirPDa8rIkuMzkTQv9lDNwoQ
gPtWDD90XCbNgAu2NRKsO+K4ZzEH31hcKAoa3XgGEtIc78EdjGOcoTY6CV9gAgKD
S7WP07ZY1Ld4AvUD8DBfyXfrC5vOEBFc8qP9Gu03qozTM+rFEH+LaB4YsMrjZdKe
qKeNGxkQLNHFdizabPYLcxF3MK+u4Qx3JtH4
-----END CERTIFICATE-----
