Certificate:
    Data:
        Version: 3 (0x2)
        Serial Number:
            b4:5b:9b:c5:e2:a1:b3:79:68:7f:0a:e9:c1:7b:b1:f9
        Signature Algorithm: sha256WithRSAEncryption
        Issuer: CN=team286-net
        Validity
            Not Before: Nov  4 11:33:31 2023 GMT
            Not After : Oct 19 11:33:31 2026 GMT
        Subject: CN=team286-server
        Subject Public Key Info:
            Public Key Algorithm: rsaEncryption
                Public-Key: (2048 bit)
                Modulus:
                    00:a5:8d:61:35:b3:62:0b:23:a3:b6:10:ab:e0:46:
                    c1:82:53:82:0e:f3:d6:13:cd:47:83:db:a5:04:d2:
                    f4:92:2e:2e:62:71:f9:61:30:11:98:c0:78:d5:dc:
                    18:12:03:0c:93:4c:9d:aa:97:33:90:b5:23:c9:35:
                    83:fb:bb:86:d0:89:94:3a:e3:c3:a3:54:b7:5f:9f:
                    db:2c:de:1d:5d:e0:50:15:cc:84:22:27:63:a8:3f:
                    07:79:12:11:db:b8:00:ba:44:0d:85:93:ee:1a:3a:
                    5c:64:3f:42:0c:19:1e:c2:5e:17:9f:3c:cd:35:59:
                    e0:c6:94:0a:57:29:e6:6c:3d:a4:28:93:5d:d6:ca:
                    13:7a:5a:e8:59:60:8d:bc:92:b4:81:94:9a:f3:1c:
                    0e:9c:75:ad:31:2b:7c:bd:fc:58:d9:a5:a5:bb:ea:
                    a6:19:28:a6:fc:fb:ef:83:6f:d3:2c:f5:6d:7e:89:
                    74:e5:b9:24:25:a9:95:6a:2d:e2:10:a4:f0:cc:d5:
                    fa:b2:d3:e8:92:1b:b2:69:17:8a:7c:16:71:88:5b:
                    4a:ac:ce:24:7e:69:3b:78:29:58:84:55:9f:cf:c2:
                    7a:10:36:38:9c:07:48:d8:05:be:6e:9f:8f:cf:7f:
                    5b:8f:79:c4:04:bb:35:61:91:44:f8:08:6a:b2:15:
                    1f:9b
                Exponent: 65537 (0x10001)
        X509v3 extensions:
            X509v3 Basic Constraints: 
                CA:FALSE
            X509v3 Subject Key Identifier: 
                DB:59:0A:EB:4F:FC:D0:54:24:00:A0:AE:7D:8D:62:4F:1E:11:EC:7A
            X509v3 Authority Key Identifier: 
                keyid:E3:24:43:19:FF:FA:1A:21:07:6E:26:6C:91:D8:49:7B:5A:CE:75:B0
                DirName:/CN=team286-net
                serial:16:BF:70:03:9C:B0:77:60:CB:3E:B3:DC:CC:78:14:E1:E6:27:94:41
            X509v3 Extended Key Usage: 
                TLS Web Server Authentication
            X509v3 Key Usage: 
                Digital Signature, Key Encipherment
            X509v3 Subject Alternative Name: 
                DNS:team286-server
    Signature Algorithm: sha256WithRSAEncryption
    Signature Value:
        0b:16:9e:54:e8:8f:6b:af:b8:b8:33:8d:b6:c2:ed:d3:d1:db:
        6e:f0:89:8b:c9:c6:ee:52:8a:d1:ea:7a:11:d9:63:6a:eb:03:
        23:76:a5:9d:35:30:e4:0a:0f:71:f3:4e:fc:be:58:36:4d:4e:
        a5:a0:d3:c2:47:de:d2:79:3c:df:f2:4c:90:8c:9a:0a:56:c9:
        8f:14:bd:00:13:01:aa:0e:be:7b:e6:35:db:86:14:24:6d:ae:
        79:f4:d5:47:e4:88:78:3f:75:9f:31:19:78:6f:8f:d6:6a:0e:
        3f:4b:71:ee:10:11:ab:69:b6:62:75:c6:d7:fa:c6:af:e6:88:
        43:a6:d6:ee:cf:ac:ff:ab:4f:48:a1:75:d2:36:13:a6:2e:d3:
        71:73:ca:4e:3a:7c:65:6c:ee:d8:0c:50:d6:07:fa:70:7b:83:
        fa:c7:a3:81:c1:d2:58:67:ce:f3:96:30:b4:8b:cf:bc:57:a3:
        f7:33:52:04:c3:dc:c5:8a:a9:f3:73:31:0b:ba:be:47:d0:ea:
        63:6e:55:d1:97:89:9c:c5:af:4a:82:04:d5:70:c3:11:9f:a8:
        5a:1b:97:10:e6:f1:61:1f:5d:72:e9:fd:3b:b2:5c:62:1e:a4:
        99:31:42:f1:57:6d:bc:dc:bd:db:a5:5f:8d:39:87:73:64:29:
        77:ee:25:4a
-----BEGIN CERTIFICATE-----
MIIDeDCCAmCgAwIBAgIRALRbm8XiobN5aH8K6cF7sfkwDQYJKoZIhvcNAQELBQAw
FjEUMBIGA1UEAwwLdGVhbTI4Ni1uZXQwHhcNMjMxMTA0MTEzMzMxWhcNMjYxMDE5
MTEzMzMxWjAZMRcwFQYDVQQDDA50ZWFtMjg2LXNlcnZlcjCCASIwDQYJKoZIhvcN
AQEBBQADggEPADCCAQoCggEBAKWNYTWzYgsjo7YQq+BGwYJTgg7z1hPNR4PbpQTS
9JIuLmJx+WEwEZjAeNXcGBIDDJNMnaqXM5C1I8k1g/u7htCJlDrjw6NUt1+f2yze
HV3gUBXMhCInY6g/B3kSEdu4ALpEDYWT7ho6XGQ/QgwZHsJeF588zTVZ4MaUClcp
5mw9pCiTXdbKE3pa6FlgjbyStIGUmvMcDpx1rTErfL38WNmlpbvqphkopvz774Nv
0yz1bX6JdOW5JCWplWot4hCk8MzV+rLT6JIbsmkXinwWcYhbSqzOJH5pO3gpWIRV
n8/CehA2OJwHSNgFvm6fj89/W495xAS7NWGRRPgIarIVH5sCAwEAAaOBvTCBujAJ
BgNVHRMEAjAAMB0GA1UdDgQWBBTbWQrrT/zQVCQAoK59jWJPHhHsejBRBgNVHSME
SjBIgBTjJEMZ//oaIQduJmyR2El7Ws51sKEapBgwFjEUMBIGA1UEAwwLdGVhbTI4
Ni1uZXSCFBa/cAOcsHdgyz6z3Mx4FOHmJ5RBMBMGA1UdJQQMMAoGCCsGAQUFBwMB
MAsGA1UdDwQEAwIFoDAZBgNVHREEEjAQgg50ZWFtMjg2LXNlcnZlcjANBgkqhkiG
9w0BAQsFAAOCAQEACxaeVOiPa6+4uDONtsLt09HbbvCJi8nG7lKK0ep6EdljausD
I3alnTUw5AoPcfNO/L5YNk1OpaDTwkfe0nk83/JMkIyaClbJjxS9ABMBqg6+e+Y1
24YUJG2uefTVR+SIeD91nzEZeG+P1moOP0tx7hARq2m2YnXG1/rGr+aIQ6bW7s+s
/6tPSKF10jYTpi7TcXPKTjp8ZWzu2AxQ1gf6cHuD+sejgcHSWGfO85YwtIvPvFej
9zNSBMPcxYqp83MxC7q+R9DqY25V0ZeJnMWvSoIE1XDDEZ+oWhuXEObxYR9dcun9
O7JcYh6kmTFC8VdtvNy926VfjTmHc2Qpd+4lSg==
-----END CERTIFICATE-----
