Certificate:
    Data:
        Version: 3 (0x2)
        Serial Number:
            4b:c7:c0:72:5a:f1:6a:eb:0f:9e:05:38:3b:73:ff:00
        Signature Algorithm: sha256WithRSAEncryption
        Issuer: CN=team219-net
        Validity
            Not Before: Nov  4 10:44:44 2023 GMT
            Not After : Oct 19 10:44:44 2026 GMT
        Subject: CN=team219-server
        Subject Public Key Info:
            Public Key Algorithm: rsaEncryption
                Public-Key: (2048 bit)
                Modulus:
                    00:e7:4a:38:81:be:7c:1b:66:95:a1:ae:a3:e4:be:
                    e9:1d:aa:91:bb:c4:35:7e:f4:de:e5:1e:5c:23:eb:
                    41:67:7d:47:5c:b5:20:22:1d:9e:47:a1:de:98:f9:
                    97:4b:ec:9c:ac:b1:a1:d7:ed:da:a5:69:37:0a:eb:
                    89:bb:66:32:f8:03:9c:5e:23:bd:d1:11:56:f5:6f:
                    a2:c2:a7:b3:c8:ce:cd:da:85:b1:fd:1b:f7:50:03:
                    fc:58:5f:f0:5c:7c:dd:b5:5c:65:85:b3:df:90:b1:
                    fb:7c:5a:c0:14:2d:cd:45:a9:3f:77:69:65:9f:49:
                    66:bd:55:7d:a9:04:cc:d0:e2:aa:93:1e:af:11:c9:
                    63:94:56:93:a6:cf:3b:b8:32:92:6e:ae:39:2c:42:
                    20:b6:63:53:bd:00:d3:2b:b6:a6:77:f2:a5:a5:5a:
                    b1:4d:05:04:4b:70:de:20:74:21:2f:bd:4e:70:ba:
                    fb:9a:7e:f4:76:ac:9c:bb:0a:42:d6:7f:05:26:94:
                    d9:cc:94:a0:a3:51:96:43:05:a8:0d:6e:e7:4f:6c:
                    c7:30:73:bb:00:ac:6a:1d:3e:a6:73:68:85:fa:31:
                    fe:05:b9:ab:5e:40:1e:96:ef:4a:5d:2f:83:f1:b2:
                    83:80:a9:48:4d:5b:19:7d:31:c1:a0:be:91:e4:a4:
                    96:89
                Exponent: 65537 (0x10001)
        X509v3 extensions:
            X509v3 Basic Constraints: 
                CA:FALSE
            X509v3 Subject Key Identifier: 
                36:FF:8F:69:5F:3C:A8:3C:CB:76:76:64:33:DC:0F:6D:5F:DC:FB:7E
            X509v3 Authority Key Identifier: 
                keyid:F0:E4:1D:79:7F:10:3E:BF:CB:B7:DC:93:96:67:3A:09:43:CD:60:AB
                DirName:/CN=team219-net
                serial:36:F3:2A:52:3F:F8:79:E9:69:2D:97:CE:79:2B:CD:35:FC:8E:63:C6
            X509v3 Extended Key Usage: 
                TLS Web Server Authentication
            X509v3 Key Usage: 
                Digital Signature, Key Encipherment
            X509v3 Subject Alternative Name: 
                DNS:team219-server
    Signature Algorithm: sha256WithRSAEncryption
    Signature Value:
        7a:d1:06:f2:a3:6f:50:c5:99:0d:2c:e3:c1:cc:1e:a6:0e:94:
        78:57:7b:4d:93:0c:81:28:36:d2:57:53:9f:b6:69:65:7e:13:
        48:ca:50:3c:49:11:83:c1:d9:48:fc:66:d8:63:e8:8c:0c:c4:
        b0:49:38:16:e3:5f:63:43:38:e0:cf:a8:e0:14:9e:8f:0a:bb:
        e3:f2:47:b7:cb:f3:70:eb:d4:7e:f4:0c:ab:f1:ed:c1:b9:66:
        57:87:df:40:df:f5:85:fa:89:ed:e8:8e:fc:21:d7:a4:b4:02:
        ab:ad:7c:72:08:a2:b3:41:33:7d:27:f6:e2:ae:4f:b4:13:03:
        bd:75:9e:a3:bc:33:10:b4:95:3d:4e:7e:e2:2d:67:78:f4:1f:
        9e:bd:69:af:6d:d3:16:ac:06:b7:54:b4:08:4b:f9:0c:ee:c9:
        76:3c:2d:97:91:e8:10:5a:e4:d7:a9:5f:57:aa:ff:d4:e5:80:
        44:96:e9:b6:2b:51:85:f9:57:25:e4:7c:f1:cc:94:00:56:82:
        44:78:b0:c2:4e:fc:fd:d2:6a:14:b4:91:9e:92:30:8e:e3:55:
        83:a5:94:b7:05:cb:c5:c8:32:9f:d1:f5:6d:4d:32:83:0c:42:
        66:67:01:db:a0:c2:14:a9:8b:1a:ec:89:5e:0d:cb:ff:29:6b:
        ab:b4:48:99
-----BEGIN CERTIFICATE-----
MIIDdzCCAl+gAwIBAgIQS8fAclrxausPngU4O3P/ADANBgkqhkiG9w0BAQsFADAW
MRQwEgYDVQQDDAt0ZWFtMjE5LW5ldDAeFw0yMzExMDQxMDQ0NDRaFw0yNjEwMTkx
MDQ0NDRaMBkxFzAVBgNVBAMMDnRlYW0yMTktc2VydmVyMIIBIjANBgkqhkiG9w0B
AQEFAAOCAQ8AMIIBCgKCAQEA50o4gb58G2aVoa6j5L7pHaqRu8Q1fvTe5R5cI+tB
Z31HXLUgIh2eR6HemPmXS+ycrLGh1+3apWk3CuuJu2Yy+AOcXiO90RFW9W+iwqez
yM7N2oWx/Rv3UAP8WF/wXHzdtVxlhbPfkLH7fFrAFC3NRak/d2lln0lmvVV9qQTM
0OKqkx6vEcljlFaTps87uDKSbq45LEIgtmNTvQDTK7amd/KlpVqxTQUES3DeIHQh
L71OcLr7mn70dqycuwpC1n8FJpTZzJSgo1GWQwWoDW7nT2zHMHO7AKxqHT6mc2iF
+jH+BbmrXkAelu9KXS+D8bKDgKlITVsZfTHBoL6R5KSWiQIDAQABo4G9MIG6MAkG
A1UdEwQCMAAwHQYDVR0OBBYEFDb/j2lfPKg8y3Z2ZDPcD21f3Pt+MFEGA1UdIwRK
MEiAFPDkHXl/ED6/y7fck5ZnOglDzWCroRqkGDAWMRQwEgYDVQQDDAt0ZWFtMjE5
LW5ldIIUNvMqUj/4eelpLZfOeSvNNfyOY8YwEwYDVR0lBAwwCgYIKwYBBQUHAwEw
CwYDVR0PBAQDAgWgMBkGA1UdEQQSMBCCDnRlYW0yMTktc2VydmVyMA0GCSqGSIb3
DQEBCwUAA4IBAQB60Qbyo29QxZkNLOPBzB6mDpR4V3tNkwyBKDbSV1OftmllfhNI
ylA8SRGDwdlI/GbYY+iMDMSwSTgW419jQzjgz6jgFJ6PCrvj8ke3y/Nw69R+9Ayr
8e3BuWZXh99A3/WF+ont6I78IdektAKrrXxyCKKzQTN9J/birk+0EwO9dZ6jvDMQ
tJU9Tn7iLWd49B+evWmvbdMWrAa3VLQIS/kM7sl2PC2XkegQWuTXqV9Xqv/U5YBE
lum2K1GF+Vcl5HzxzJQAVoJEeLDCTvz90moUtJGekjCO41WDpZS3BcvFyDKf0fVt
TTKDDEJmZwHboMIUqYsa7IleDcv/KWurtEiZ
-----END CERTIFICATE-----
