Certificate:
    Data:
        Version: 3 (0x2)
        Serial Number:
            5d:9c:f9:fa:5f:43:02:61:ff:44:33:d3:5a:7b:de:62
        Signature Algorithm: sha256WithRSAEncryption
        Issuer: CN=team219-net
        Validity
            Not Before: Nov  3 20:43:18 2023 GMT
            Not After : Oct 18 20:43:18 2026 GMT
        Subject: CN=team219-client
        Subject Public Key Info:
            Public Key Algorithm: rsaEncryption
                Public-Key: (2048 bit)
                Modulus:
                    00:e6:d6:cc:8f:55:04:2d:e1:41:75:1f:20:aa:ba:
                    ed:e7:0e:bd:d6:a0:aa:55:55:5e:aa:cd:23:91:3a:
                    57:0f:d4:a0:c7:db:04:4d:eb:53:c8:48:76:bb:2e:
                    f1:75:24:cb:2f:81:aa:be:74:84:1e:27:9a:e2:f5:
                    a3:27:23:50:30:85:c7:54:8b:3e:c8:f2:84:fe:a5:
                    94:f6:45:c7:44:02:dd:e0:96:a7:77:35:45:93:69:
                    05:4a:e0:fc:08:b1:4e:82:16:82:7d:69:37:13:e8:
                    53:72:3c:c9:fc:98:4f:0f:47:7b:29:21:fb:fe:2a:
                    3e:20:50:a4:98:e4:8e:2d:56:63:44:4a:0d:44:a5:
                    a7:91:22:3d:62:af:39:19:90:38:62:4f:d2:6d:45:
                    eb:6e:e8:7a:be:b7:ca:7e:0f:1b:78:e5:cc:16:d0:
                    b6:46:b6:bd:c7:fb:32:ff:f5:36:ff:5b:b5:f1:46:
                    34:9d:72:84:c6:27:b6:ac:8a:8e:bb:ed:a9:f8:ee:
                    4a:a8:e9:b2:bc:ee:7e:f0:a3:38:45:d7:01:13:be:
                    56:59:e7:ba:20:59:43:87:ab:ba:8e:19:b3:a1:f2:
                    3a:ac:6e:34:a5:1e:c1:0a:9d:7b:51:7a:22:99:34:
                    69:55:83:7e:b9:90:40:69:c9:ad:a0:e2:8c:9c:6c:
                    4a:97
                Exponent: 65537 (0x10001)
        X509v3 extensions:
            X509v3 Basic Constraints: 
                CA:FALSE
            X509v3 Subject Key Identifier: 
                B0:20:13:F3:AF:88:D4:75:FA:3B:7D:BB:15:67:89:65:A0:2E:05:B7
            X509v3 Authority Key Identifier: 
                keyid:9C:D6:1E:C3:D4:B0:46:E2:AC:CE:8F:8C:29:9D:B6:DF:EF:E6:A1:84
                DirName:/CN=team219-net
                serial:20:58:30:F1:E1:20:6F:73:67:50:FF:EC:85:88:3F:50:DE:5C:CF:77
            X509v3 Extended Key Usage: 
                TLS Web Client Authentication
            X509v3 Key Usage: 
                Digital Signature
    Signature Algorithm: sha256WithRSAEncryption
    Signature Value:
        33:9a:e7:7f:f7:46:f6:2c:c8:58:44:0d:ce:d1:8f:af:63:de:
        92:b2:9f:a0:6a:40:23:be:01:4b:d1:60:13:d1:41:29:0b:63:
        6e:ec:1d:df:f6:26:25:2b:6b:93:7a:3a:c4:18:6b:54:c4:44:
        e0:ed:ba:ed:8a:31:f1:3b:d8:03:f7:79:47:3a:48:1f:e5:25:
        b0:cb:46:af:c4:cf:d9:3e:3a:ee:1b:24:41:23:ef:dc:c3:cc:
        15:cc:b4:ca:7e:de:17:bc:87:00:9f:c3:e6:7c:db:ab:6b:68:
        43:37:46:27:f5:4d:8b:d8:c2:d7:26:b6:64:dd:6c:5c:8e:5b:
        d5:62:49:91:b2:a6:42:89:d4:8f:59:0f:98:83:9f:87:b6:dc:
        a4:80:93:41:f8:c5:db:31:b6:a7:30:3a:f7:96:89:dd:f6:d5:
        8d:e5:87:6a:5d:07:c9:46:56:10:70:aa:2c:bc:a3:79:79:e9:
        49:2a:9e:c3:07:02:0d:70:24:f7:d9:da:94:86:3c:7d:ab:5d:
        2b:15:fb:25:22:0d:75:f3:60:f1:73:b1:75:3a:e6:ea:db:54:
        92:0b:b5:43:e5:d1:f4:a3:ab:3c:d6:e8:3e:f9:03:6c:8a:bc:
        d4:97:fd:f9:90:29:87:9e:50:df:33:11:5e:1d:4b:d0:e8:06:
        69:4a:7a:84
-----BEGIN CERTIFICATE-----
MIIDXDCCAkSgAwIBAgIQXZz5+l9DAmH/RDPTWnveYjANBgkqhkiG9w0BAQsFADAW
MRQwEgYDVQQDDAt0ZWFtMjE5LW5ldDAeFw0yMzExMDMyMDQzMThaFw0yNjEwMTgy
MDQzMThaMBkxFzAVBgNVBAMMDnRlYW0yMTktY2xpZW50MIIBIjANBgkqhkiG9w0B
AQEFAAOCAQ8AMIIBCgKCAQEA5tbMj1UELeFBdR8gqrrt5w691qCqVVVeqs0jkTpX
D9Sgx9sETetTyEh2uy7xdSTLL4GqvnSEHiea4vWjJyNQMIXHVIs+yPKE/qWU9kXH
RALd4JandzVFk2kFSuD8CLFOghaCfWk3E+hTcjzJ/JhPD0d7KSH7/io+IFCkmOSO
LVZjREoNRKWnkSI9Yq85GZA4Yk/SbUXrbuh6vrfKfg8beOXMFtC2Rra9x/sy//U2
/1u18UY0nXKExie2rIqOu+2p+O5KqOmyvO5+8KM4RdcBE75WWee6IFlDh6u6jhmz
ofI6rG40pR7BCp17UXoimTRpVYN+uZBAacmtoOKMnGxKlwIDAQABo4GiMIGfMAkG
A1UdEwQCMAAwHQYDVR0OBBYEFLAgE/OviNR1+jt9uxVniWWgLgW3MFEGA1UdIwRK
MEiAFJzWHsPUsEbirM6PjCmdtt/v5qGEoRqkGDAWMRQwEgYDVQQDDAt0ZWFtMjE5
LW5ldIIUIFgw8eEgb3NnUP/shYg/UN5cz3cwEwYDVR0lBAwwCgYIKwYBBQUHAwIw
CwYDVR0PBAQDAgeAMA0GCSqGSIb3DQEBCwUAA4IBAQAzmud/90b2LMhYRA3O0Y+v
Y96Ssp+gakAjvgFL0WAT0UEpC2Nu7B3f9iYlK2uTejrEGGtUxETg7brtijHxO9gD
93lHOkgf5SWwy0avxM/ZPjruGyRBI+/cw8wVzLTKft4XvIcAn8PmfNura2hDN0Yn
9U2L2MLXJrZk3WxcjlvVYkmRsqZCidSPWQ+Yg5+HttykgJNB+MXbMbanMDr3lond
9tWN5YdqXQfJRlYQcKosvKN5eelJKp7DBwINcCT32dqUhjx9q10rFfslIg1182Dx
c7F1Oubq21SSC7VD5dH0o6s81ug++QNsirzUl/35kCmHnlDfMxFeHUvQ6AZpSnqE
-----END CERTIFICATE-----
