Certificate:
    Data:
        Version: 3 (0x2)
        Serial Number:
            6d:9b:8e:a2:67:8b:ee:21:52:6b:1a:b3:f7:48:b1:2f
        Signature Algorithm: sha256WithRSAEncryption
        Issuer: CN=team219-net
        Validity
            Not Before: Nov  4 11:31:56 2023 GMT
            Not After : Oct 19 11:31:56 2026 GMT
        Subject: CN=team219-server
        Subject Public Key Info:
            Public Key Algorithm: rsaEncryption
                Public-Key: (2048 bit)
                Modulus:
                    00:c0:a0:60:10:54:d7:c2:47:1b:0b:a2:09:14:34:
                    e6:fd:cd:2e:b2:a9:b6:45:37:16:d1:d5:99:9e:20:
                    6f:6c:00:92:e2:73:1b:83:2b:a0:c3:f4:d5:e0:ef:
                    2c:9c:5e:ec:8f:36:d2:b0:d8:7a:7d:63:02:5c:ec:
                    cd:11:d6:b4:ae:3f:f0:fb:7b:18:d6:41:18:f6:95:
                    93:f9:c9:c9:3d:40:1d:78:2e:fb:87:0e:a8:29:51:
                    49:74:88:a0:ab:93:19:b5:01:61:93:83:42:c3:7f:
                    9b:fe:6f:7c:59:e7:37:b1:f9:07:3e:37:f0:32:fb:
                    ee:ad:c2:55:b9:d4:14:02:4e:c4:5f:82:f0:08:94:
                    e2:17:2b:8a:9b:46:07:3e:12:d6:53:87:03:89:4e:
                    5c:3a:11:60:86:76:a5:51:d1:97:bc:10:75:c4:1e:
                    6f:3d:7e:bb:98:e9:c2:f6:8e:e4:ff:a6:08:4f:4f:
                    49:fb:21:6f:b8:22:58:dc:a4:bd:6e:6b:12:0f:52:
                    c3:04:f5:97:aa:43:7a:c9:64:d3:10:f8:e7:57:67:
                    ef:89:1c:a6:f5:74:15:52:a2:22:a6:12:9b:09:d3:
                    1e:77:75:70:c2:ce:2c:bd:97:c4:44:04:76:cd:1d:
                    46:9f:14:f7:c9:6b:6c:79:85:9d:1b:45:51:d6:05:
                    09:ad
                Exponent: 65537 (0x10001)
        X509v3 extensions:
            X509v3 Basic Constraints: 
                CA:FALSE
            X509v3 Subject Key Identifier: 
                BB:81:C3:05:6C:9D:24:F6:B4:06:C8:1E:C9:F8:2A:B8:D5:6E:3B:E8
            X509v3 Authority Key Identifier: 
                keyid:41:80:EC:0D:8C:AB:E4:D5:2C:7D:07:88:46:8D:FD:24:78:0D:E0:01
                DirName:/CN=team219-net
                serial:05:31:07:02:B5:16:5C:65:52:46:7C:72:F7:95:D6:25:64:A4:69:B4
            X509v3 Extended Key Usage: 
                TLS Web Server Authentication
            X509v3 Key Usage: 
                Digital Signature, Key Encipherment
            X509v3 Subject Alternative Name: 
                DNS:team219-server
    Signature Algorithm: sha256WithRSAEncryption
    Signature Value:
        23:f2:83:5a:25:c6:7e:ad:51:f6:e0:6d:51:d9:37:5b:12:66:
        38:2d:82:1e:7f:0d:4f:e7:57:ae:1e:ef:98:3a:19:73:79:b0:
        fa:40:27:4a:01:e6:56:3e:5a:bd:d8:f0:6e:8f:8e:a5:d7:dc:
        12:f0:0e:dd:5c:66:36:26:f1:41:96:2f:e8:86:ff:45:a6:cc:
        7d:d5:20:49:a4:be:43:76:cd:ee:94:34:fc:25:b8:9f:06:b5:
        11:04:3b:66:c4:f5:57:ca:08:7d:32:98:65:8b:b8:60:71:19:
        7d:ef:3d:af:ff:a5:ab:9b:40:9d:2a:f1:7f:28:9a:3a:9b:fc:
        ee:86:e0:04:2e:bc:df:4a:9d:93:ce:20:ea:0c:c9:f8:1a:3c:
        ca:74:db:b8:01:9e:95:15:f5:98:8b:9b:95:be:80:9d:02:8e:
        01:b9:1d:e2:7a:30:a7:83:ed:2f:f3:aa:5f:ef:bd:c0:45:51:
        24:29:43:69:ca:ba:09:9b:8b:5b:7e:ac:ea:18:a8:bb:8d:a7:
        d3:80:5c:23:9a:e5:f0:52:d7:37:43:42:bd:13:0b:70:11:78:
        9a:cc:9c:b3:5e:48:d5:96:17:a2:d9:18:60:85:23:04:2f:79:
        ac:50:63:c1:dd:82:ac:fe:d9:04:7d:46:12:2e:af:62:0c:71:
        9b:ff:12:44
-----BEGIN CERTIFICATE-----
MIIDdzCCAl+gAwIBAgIQbZuOomeL7iFSaxqz90ixLzANBgkqhkiG9w0BAQsFADAW
MRQwEgYDVQQDDAt0ZWFtMjE5LW5ldDAeFw0yMzExMDQxMTMxNTZaFw0yNjEwMTkx
MTMxNTZaMBkxFzAVBgNVBAMMDnRlYW0yMTktc2VydmVyMIIBIjANBgkqhkiG9w0B
AQEFAAOCAQ8AMIIBCgKCAQEAwKBgEFTXwkcbC6IJFDTm/c0usqm2RTcW0dWZniBv
bACS4nMbgyugw/TV4O8snF7sjzbSsNh6fWMCXOzNEda0rj/w+3sY1kEY9pWT+cnJ
PUAdeC77hw6oKVFJdIigq5MZtQFhk4NCw3+b/m98Wec3sfkHPjfwMvvurcJVudQU
Ak7EX4LwCJTiFyuKm0YHPhLWU4cDiU5cOhFghnalUdGXvBB1xB5vPX67mOnC9o7k
/6YIT09J+yFvuCJY3KS9bmsSD1LDBPWXqkN6yWTTEPjnV2fviRym9XQVUqIiphKb
CdMed3Vwws4svZfERAR2zR1GnxT3yWtseYWdG0VR1gUJrQIDAQABo4G9MIG6MAkG
A1UdEwQCMAAwHQYDVR0OBBYEFLuBwwVsnST2tAbIHsn4KrjVbjvoMFEGA1UdIwRK
MEiAFEGA7A2Mq+TVLH0HiEaN/SR4DeABoRqkGDAWMRQwEgYDVQQDDAt0ZWFtMjE5
LW5ldIIUBTEHArUWXGVSRnxy95XWJWSkabQwEwYDVR0lBAwwCgYIKwYBBQUHAwEw
CwYDVR0PBAQDAgWgMBkGA1UdEQQSMBCCDnRlYW0yMTktc2VydmVyMA0GCSqGSIb3
DQEBCwUAA4IBAQAj8oNaJcZ+rVH24G1R2TdbEmY4LYIefw1P51euHu+YOhlzebD6
QCdKAeZWPlq92PBuj46l19wS8A7dXGY2JvFBli/ohv9Fpsx91SBJpL5Dds3ulDT8
JbifBrURBDtmxPVXygh9Mphli7hgcRl97z2v/6Wrm0CdKvF/KJo6m/zuhuAELrzf
Sp2TziDqDMn4GjzKdNu4AZ6VFfWYi5uVvoCdAo4BuR3iejCng+0v86pf773ARVEk
KUNpyroJm4tbfqzqGKi7jafTgFwjmuXwUtc3Q0K9EwtwEXiazJyzXkjVlhei2Rhg
hSMEL3msUGPB3YKs/tkEfUYSLq9iDHGb/xJE
-----END CERTIFICATE-----
