Certificate:
    Data:
        Version: 3 (0x2)
        Serial Number:
            ff:fa:2b:3e:c3:d6:04:67:a9:f1:49:dd:fc:70:d5:60
        Signature Algorithm: sha256WithRSAEncryption
        Issuer: CN=team219-net
        Validity
            Not Before: Nov  4 10:44:44 2023 GMT
            Not After : Oct 19 10:44:44 2026 GMT
        Subject: CN=team219-client
        Subject Public Key Info:
            Public Key Algorithm: rsaEncryption
                Public-Key: (2048 bit)
                Modulus:
                    00:b6:67:f9:65:c2:47:fc:a7:f8:5d:2d:16:c0:47:
                    20:bb:70:ac:54:e1:ec:45:35:18:cd:da:eb:75:32:
                    2f:82:6b:e6:36:15:ba:7b:3d:3d:e1:ab:11:a5:a9:
                    c7:e4:b7:c0:a2:09:77:ab:50:66:d6:27:9e:4f:f8:
                    bd:04:20:8a:ac:28:1c:24:8c:3c:89:0c:f9:07:3b:
                    09:81:ef:93:30:4c:e9:f4:df:0e:ed:b4:f1:d4:75:
                    b6:84:12:0f:63:d6:4b:38:11:7a:fa:6b:76:b6:95:
                    b8:0d:d6:d8:c7:e8:50:f3:d5:b8:8e:a0:8b:90:4f:
                    de:88:32:90:92:de:a6:14:8f:82:f0:0e:12:73:8f:
                    b2:e7:7d:10:40:48:99:bb:11:b6:eb:9a:23:10:cd:
                    fe:64:dd:aa:0a:30:c0:b3:a1:fd:14:cc:b6:a7:12:
                    36:c7:bf:4d:20:86:0e:79:40:15:ae:eb:7e:48:6d:
                    0f:cf:80:34:65:4e:0d:5c:0c:f1:88:65:f4:5b:60:
                    cf:e9:3c:8c:de:a4:fc:cd:27:45:1c:11:49:5f:1b:
                    86:04:8b:bc:98:0e:15:50:75:8b:ee:35:bb:41:6c:
                    e6:be:b2:a0:23:03:10:47:08:6d:76:35:af:e2:b6:
                    a2:3a:53:89:2c:f7:01:d8:7c:d2:13:e5:d4:32:37:
                    76:35
                Exponent: 65537 (0x10001)
        X509v3 extensions:
            X509v3 Basic Constraints: 
                CA:FALSE
            X509v3 Subject Key Identifier: 
                9A:2F:EF:75:AF:CF:36:41:D1:F9:9F:3A:68:32:52:4E:63:35:33:D8
            X509v3 Authority Key Identifier: 
                keyid:F0:E4:1D:79:7F:10:3E:BF:CB:B7:DC:93:96:67:3A:09:43:CD:60:AB
                DirName:/CN=team219-net
                serial:36:F3:2A:52:3F:F8:79:E9:69:2D:97:CE:79:2B:CD:35:FC:8E:63:C6
            X509v3 Extended Key Usage: 
                TLS Web Client Authentication
            X509v3 Key Usage: 
                Digital Signature
    Signature Algorithm: sha256WithRSAEncryption
    Signature Value:
        b6:00:66:3c:f9:a6:00:df:ed:2f:27:21:86:e8:8a:a2:b4:cb:
        36:87:ad:7f:e0:f7:07:ff:47:bf:93:d5:87:4d:0f:19:1d:c1:
        af:75:fe:96:33:b4:2e:ba:63:22:7d:8c:48:b3:b1:f0:fb:f0:
        88:d8:73:30:78:b3:e9:98:41:b6:5a:6e:3f:fc:ef:07:5a:66:
        50:b9:6d:2c:37:1d:bc:c4:3d:2e:9e:ab:54:b5:6b:4a:96:18:
        f1:3e:77:ab:6a:e4:2d:de:a4:91:05:a6:71:33:da:15:93:c8:
        2a:30:ae:c2:53:32:e4:69:60:c6:bf:c9:99:ac:44:91:10:f4:
        14:b8:b0:54:75:19:5f:4c:b6:8c:28:4a:4e:c3:b9:2f:35:12:
        9e:fe:c0:8f:c8:17:c8:67:45:4c:f0:a8:c3:15:89:f5:31:5c:
        77:fd:d5:2d:ec:59:c4:0e:96:f1:4a:0b:02:20:d2:6f:91:a9:
        b0:1e:d8:e0:de:16:8c:e1:85:2b:a1:d4:93:e9:5e:ec:33:a7:
        30:12:00:6c:f8:28:f5:cc:19:b1:ed:e8:54:d0:c3:89:28:60:
        65:5f:75:ba:66:33:4b:f1:e0:d4:02:a7:4a:78:3f:68:2c:ca:
        e4:23:00:d0:5e:48:80:e0:d0:62:85:77:c0:e2:24:e8:58:c7:
        69:52:40:f0
-----BEGIN CERTIFICATE-----
MIIDXTCCAkWgAwIBAgIRAP/6Kz7D1gRnqfFJ3fxw1WAwDQYJKoZIhvcNAQELBQAw
FjEUMBIGA1UEAwwLdGVhbTIxOS1uZXQwHhcNMjMxMTA0MTA0NDQ0WhcNMjYxMDE5
MTA0NDQ0WjAZMRcwFQYDVQQDDA50ZWFtMjE5LWNsaWVudDCCASIwDQYJKoZIhvcN
AQEBBQADggEPADCCAQoCggEBALZn+WXCR/yn+F0tFsBHILtwrFTh7EU1GM3a63Uy
L4Jr5jYVuns9PeGrEaWpx+S3wKIJd6tQZtYnnk/4vQQgiqwoHCSMPIkM+Qc7CYHv
kzBM6fTfDu208dR1toQSD2PWSzgRevprdraVuA3W2MfoUPPVuI6gi5BP3ogykJLe
phSPgvAOEnOPsud9EEBImbsRtuuaIxDN/mTdqgowwLOh/RTMtqcSNse/TSCGDnlA
Fa7rfkhtD8+ANGVODVwM8Yhl9Ftgz+k8jN6k/M0nRRwRSV8bhgSLvJgOFVB1i+41
u0Fs5r6yoCMDEEcIbXY1r+K2ojpTiSz3Adh80hPl1DI3djUCAwEAAaOBojCBnzAJ
BgNVHRMEAjAAMB0GA1UdDgQWBBSaL+91r882QdH5nzpoMlJOYzUz2DBRBgNVHSME
SjBIgBTw5B15fxA+v8u33JOWZzoJQ81gq6EapBgwFjEUMBIGA1UEAwwLdGVhbTIx
OS1uZXSCFDbzKlI/+HnpaS2XznkrzTX8jmPGMBMGA1UdJQQMMAoGCCsGAQUFBwMC
MAsGA1UdDwQEAwIHgDANBgkqhkiG9w0BAQsFAAOCAQEAtgBmPPmmAN/tLychhuiK
orTLNoetf+D3B/9Hv5PVh00PGR3Br3X+ljO0LrpjIn2MSLOx8PvwiNhzMHiz6ZhB
tlpuP/zvB1pmULltLDcdvMQ9Lp6rVLVrSpYY8T53q2rkLd6kkQWmcTPaFZPIKjCu
wlMy5Glgxr/JmaxEkRD0FLiwVHUZX0y2jChKTsO5LzUSnv7Aj8gXyGdFTPCowxWJ
9TFcd/3VLexZxA6W8UoLAiDSb5GpsB7Y4N4WjOGFK6HUk+le7DOnMBIAbPgo9cwZ
se3oVNDDiShgZV91umYzS/Hg1AKnSng/aCzK5CMA0F5IgODQYoV3wOIk6FjHaVJA
8A==
-----END CERTIFICATE-----
