Certificate:
    Data:
        Version: 3 (0x2)
        Serial Number:
            16:00:2c:06:c2:e0:5f:de:e2:41:23:0f:f7:bc:7e:08
        Signature Algorithm: sha256WithRSAEncryption
        Issuer: CN=team373-net
        Validity
            Not Before: Nov  4 10:47:24 2023 GMT
            Not After : Oct 19 10:47:24 2026 GMT
        Subject: CN=team373-server
        Subject Public Key Info:
            Public Key Algorithm: rsaEncryption
                Public-Key: (2048 bit)
                Modulus:
                    00:bf:1c:a4:d8:2d:c0:77:b0:f3:20:cf:3a:b8:99:
                    e6:b0:ed:ae:f3:8a:99:32:86:43:69:4c:3c:2b:24:
                    45:bc:48:fe:4e:27:87:9b:58:ff:6f:97:69:1d:5e:
                    c8:1a:ab:25:20:04:b3:6f:75:50:a3:dd:82:d9:10:
                    81:88:66:aa:08:d2:57:6d:52:bb:9f:74:0c:a0:e0:
                    ed:b5:96:4c:5b:54:5e:25:61:ef:cd:5f:88:2c:de:
                    a2:e5:36:3a:13:dd:b7:cf:5c:fe:d7:e2:68:7b:84:
                    91:2f:69:66:78:d2:42:09:72:f1:8f:4c:64:da:b0:
                    24:37:e0:58:bb:c9:ce:dc:be:5d:67:b5:b1:65:37:
                    4f:70:fb:fa:2a:0b:d0:f0:29:85:91:3e:9c:d9:ed:
                    6c:71:63:41:ae:71:9d:f3:62:19:11:d7:b2:03:34:
                    ef:15:c0:89:c5:db:04:37:35:83:8f:3f:5b:b0:0e:
                    f7:e7:8e:4c:8e:f1:3a:4b:61:37:3a:80:63:24:0f:
                    e0:81:83:d0:06:32:0d:2f:a7:37:24:b9:4a:01:26:
                    1f:84:12:f3:be:18:99:cc:4f:92:98:56:68:8b:a6:
                    00:8b:f0:f5:a6:eb:0e:5c:2d:e5:79:37:04:fa:9e:
                    1b:be:76:3e:e8:81:01:65:03:58:bf:54:09:63:89:
                    df:8d
                Exponent: 65537 (0x10001)
        X509v3 extensions:
            X509v3 Basic Constraints: 
                CA:FALSE
            X509v3 Subject Key Identifier: 
                A8:3C:61:F1:FE:AF:F7:26:DA:3E:C7:34:02:57:06:86:27:B0:0C:02
            X509v3 Authority Key Identifier: 
                keyid:64:CD:82:6F:34:3D:CD:87:4F:F7:BA:9E:D2:34:CC:9C:DE:16:51:F0
                DirName:/CN=team373-net
                serial:1F:2A:3E:EF:E2:5D:7D:A0:11:A0:55:73:CE:F4:79:D3:2F:A7:21:F7
            X509v3 Extended Key Usage: 
                TLS Web Server Authentication
            X509v3 Key Usage: 
                Digital Signature, Key Encipherment
            X509v3 Subject Alternative Name: 
                DNS:team373-server
    Signature Algorithm: sha256WithRSAEncryption
    Signature Value:
        01:da:7d:7d:83:65:1a:01:36:65:4f:21:cb:e8:ff:12:87:96:
        ed:d7:b6:10:6b:de:d1:68:14:e7:ab:03:eb:70:f9:ee:01:8d:
        44:1b:d7:40:b9:04:b2:03:08:c0:ce:f7:a9:7b:e1:9f:4b:25:
        19:86:5e:5b:01:6b:06:18:25:90:f0:f7:cd:b6:97:c7:b5:1f:
        98:f0:19:9f:65:59:64:ed:ce:a5:8d:f3:bd:a0:7c:ff:7a:c3:
        c6:9e:4d:a2:38:0d:25:ab:53:b8:bb:c5:56:aa:b6:fa:30:32:
        03:93:43:ea:87:47:dd:f3:f2:8f:bc:46:8f:d6:21:fa:51:ba:
        d5:e9:18:a3:0e:b5:34:ea:3d:15:9f:39:9f:fe:5d:35:51:d0:
        39:ae:59:ad:23:7a:b6:65:fd:fa:68:3c:19:48:d2:06:80:ec:
        b0:fe:4b:bc:59:82:ac:a9:e1:a3:eb:23:b9:6b:2e:d2:43:3b:
        f1:47:5f:50:b5:25:29:29:49:b7:92:8c:61:51:56:3e:52:51:
        c4:ef:5f:06:77:71:fe:d1:c8:37:82:c9:42:82:a7:d0:69:fa:
        b4:6b:42:b2:01:1b:36:5e:e4:98:fb:36:b6:6c:26:55:d1:08:
        39:66:cb:0b:b9:25:39:e2:e6:4c:45:e0:75:98:5f:b8:ea:ef:
        8b:89:94:10
-----BEGIN CERTIFICATE-----
MIIDdzCCAl+gAwIBAgIQFgAsBsLgX97iQSMP97x+CDANBgkqhkiG9w0BAQsFADAW
MRQwEgYDVQQDDAt0ZWFtMzczLW5ldDAeFw0yMzExMDQxMDQ3MjRaFw0yNjEwMTkx
MDQ3MjRaMBkxFzAVBgNVBAMMDnRlYW0zNzMtc2VydmVyMIIBIjANBgkqhkiG9w0B
AQEFAAOCAQ8AMIIBCgKCAQEAvxyk2C3Ad7DzIM86uJnmsO2u84qZMoZDaUw8KyRF
vEj+TieHm1j/b5dpHV7IGqslIASzb3VQo92C2RCBiGaqCNJXbVK7n3QMoODttZZM
W1ReJWHvzV+ILN6i5TY6E923z1z+1+Joe4SRL2lmeNJCCXLxj0xk2rAkN+BYu8nO
3L5dZ7WxZTdPcPv6KgvQ8CmFkT6c2e1scWNBrnGd82IZEdeyAzTvFcCJxdsENzWD
jz9bsA73545MjvE6S2E3OoBjJA/ggYPQBjINL6c3JLlKASYfhBLzvhiZzE+SmFZo
i6YAi/D1pusOXC3leTcE+p4bvnY+6IEBZQNYv1QJY4nfjQIDAQABo4G9MIG6MAkG
A1UdEwQCMAAwHQYDVR0OBBYEFKg8YfH+r/cm2j7HNAJXBoYnsAwCMFEGA1UdIwRK
MEiAFGTNgm80Pc2HT/e6ntI0zJzeFlHwoRqkGDAWMRQwEgYDVQQDDAt0ZWFtMzcz
LW5ldIIUHyo+7+JdfaARoFVzzvR50y+nIfcwEwYDVR0lBAwwCgYIKwYBBQUHAwEw
CwYDVR0PBAQDAgWgMBkGA1UdEQQSMBCCDnRlYW0zNzMtc2VydmVyMA0GCSqGSIb3
DQEBCwUAA4IBAQAB2n19g2UaATZlTyHL6P8Sh5bt17YQa97RaBTnqwPrcPnuAY1E
G9dAuQSyAwjAzvepe+GfSyUZhl5bAWsGGCWQ8PfNtpfHtR+Y8BmfZVlk7c6ljfO9
oHz/esPGnk2iOA0lq1O4u8VWqrb6MDIDk0Pqh0fd8/KPvEaP1iH6UbrV6RijDrU0
6j0Vnzmf/l01UdA5rlmtI3q2Zf36aDwZSNIGgOyw/ku8WYKsqeGj6yO5ay7SQzvx
R19QtSUpKUm3koxhUVY+UlHE718Gd3H+0cg3gslCgqfQafq0a0KyARs2XuSY+za2
bCZV0Qg5ZssLuSU54uZMReB1mF+46u+LiZQQ
-----END CERTIFICATE-----
