Certificate:
    Data:
        Version: 3 (0x2)
        Serial Number:
            bf:6a:a3:8c:a8:eb:c3:2a:ad:9c:b2:59:b6:46:ea:60
        Signature Algorithm: sha256WithRSAEncryption
        Issuer: CN=team373-net
        Validity
            Not Before: Nov  4 11:35:49 2023 GMT
            Not After : Oct 19 11:35:49 2026 GMT
        Subject: CN=team373-client
        Subject Public Key Info:
            Public Key Algorithm: rsaEncryption
                Public-Key: (2048 bit)
                Modulus:
                    00:9b:db:bb:b8:a2:f2:87:05:c8:a3:f7:f8:17:27:
                    d9:a8:2a:f2:2c:b0:32:bf:b6:bb:38:83:bd:0e:fc:
                    d7:a9:46:a0:c4:fb:8e:b1:30:d4:7d:6b:65:e3:a3:
                    a9:0e:8a:e1:06:45:00:ae:a5:92:28:d9:79:e3:6c:
                    8e:7e:a2:04:7f:67:62:be:4f:69:53:57:53:21:c7:
                    a0:3b:e6:36:17:62:62:c1:41:9d:30:22:35:e4:e1:
                    a0:ef:b3:d3:5d:8a:49:a8:7c:4d:32:ea:bf:c3:64:
                    81:f4:c7:3a:38:7e:96:46:47:60:1e:01:d3:54:aa:
                    3a:39:8e:b3:bd:b3:9f:53:b7:7c:c7:2f:68:1f:aa:
                    b6:7c:96:0d:4d:27:ec:ec:97:6e:1a:a8:3b:80:74:
                    bd:92:58:93:bb:a4:eb:b1:76:c3:80:46:ff:b0:13:
                    a5:d8:48:35:3e:8e:a6:0c:f8:46:71:99:5e:e0:43:
                    8e:e7:28:c4:e3:78:7d:d4:62:8c:1f:0f:ce:3d:be:
                    7c:82:d4:be:63:d6:3c:a3:10:70:4f:10:c1:61:d0:
                    e8:9a:a7:c5:f4:45:d0:b4:cd:f4:22:8e:c2:53:1a:
                    ad:80:b5:e9:bf:ed:8c:56:9e:a3:0f:86:40:89:d0:
                    81:2a:de:f6:1f:5a:a4:1e:ff:82:88:88:56:1b:b4:
                    08:fd
                Exponent: 65537 (0x10001)
        X509v3 extensions:
            X509v3 Basic Constraints: 
                CA:FALSE
            X509v3 Subject Key Identifier: 
                96:3D:B0:D1:A2:B8:1D:AE:E9:80:2A:95:B8:E0:01:86:62:62:C1:FD
            X509v3 Authority Key Identifier: 
                keyid:E2:D4:F0:1C:CF:EC:AA:92:68:DB:31:F9:C8:FC:69:85:11:8A:1B:EA
                DirName:/CN=team373-net
                serial:7A:96:4A:13:FF:1A:9C:EA:F3:AB:32:3B:8A:7D:9C:48:EE:43:75:ED
            X509v3 Extended Key Usage: 
                TLS Web Client Authentication
            X509v3 Key Usage: 
                Digital Signature
    Signature Algorithm: sha256WithRSAEncryption
    Signature Value:
        97:61:6c:79:a6:21:83:ff:d7:e4:20:b6:ea:d9:ec:52:b0:19:
        1d:8e:11:d7:eb:51:a5:4c:85:c3:0b:db:53:8b:7f:e8:36:c0:
        63:60:d7:da:b3:3a:82:09:5d:71:c0:dc:3e:94:89:88:3e:13:
        69:fe:3d:31:ac:f5:62:42:62:a0:e2:d0:dd:97:93:fc:d9:c2:
        e2:30:ca:9d:62:5e:18:52:d6:be:09:a5:8c:4c:4b:86:b2:da:
        8e:28:2b:86:14:db:fe:5f:12:c7:0d:7a:2a:ee:9c:58:b1:c4:
        6a:03:38:ef:2e:f3:d4:4c:56:7c:30:58:e7:13:74:27:9f:02:
        3f:17:4d:46:6c:16:cb:f1:25:52:8d:7d:97:28:26:ab:44:e7:
        7e:8d:d1:c5:09:7f:6b:79:19:6f:f5:3e:51:6a:30:dd:0a:70:
        d2:4c:4b:35:57:b5:a7:63:2f:59:87:81:8c:95:b1:ca:16:0a:
        85:de:3e:44:e1:c1:db:6e:a9:96:da:35:da:7c:b8:e4:ec:57:
        67:39:bb:bf:3a:48:d8:2e:e6:05:59:ae:69:34:78:98:4c:dd:
        b4:4f:73:65:b6:3e:fe:67:39:4b:fa:d9:4a:63:8f:79:6c:b4:
        85:ba:30:15:d4:1c:2b:84:f6:0d:ea:e0:06:3f:e9:06:aa:51:
        a8:4b:78:d9
-----BEGIN CERTIFICATE-----
MIIDXTCCAkWgAwIBAgIRAL9qo4yo68MqrZyyWbZG6mAwDQYJKoZIhvcNAQELBQAw
FjEUMBIGA1UEAwwLdGVhbTM3My1uZXQwHhcNMjMxMTA0MTEzNTQ5WhcNMjYxMDE5
MTEzNTQ5WjAZMRcwFQYDVQQDDA50ZWFtMzczLWNsaWVudDCCASIwDQYJKoZIhvcN
AQEBBQADggEPADCCAQoCggEBAJvbu7ii8ocFyKP3+Bcn2agq8iywMr+2uziDvQ78
16lGoMT7jrEw1H1rZeOjqQ6K4QZFAK6lkijZeeNsjn6iBH9nYr5PaVNXUyHHoDvm
NhdiYsFBnTAiNeThoO+z012KSah8TTLqv8NkgfTHOjh+lkZHYB4B01SqOjmOs72z
n1O3fMcvaB+qtnyWDU0n7OyXbhqoO4B0vZJYk7uk67F2w4BG/7ATpdhINT6Opgz4
RnGZXuBDjucoxON4fdRijB8Pzj2+fILUvmPWPKMQcE8QwWHQ6JqnxfRF0LTN9CKO
wlMarYC16b/tjFaeow+GQInQgSre9h9apB7/goiIVhu0CP0CAwEAAaOBojCBnzAJ
BgNVHRMEAjAAMB0GA1UdDgQWBBSWPbDRorgdrumAKpW44AGGYmLB/TBRBgNVHSME
SjBIgBTi1PAcz+yqkmjbMfnI/GmFEYob6qEapBgwFjEUMBIGA1UEAwwLdGVhbTM3
My1uZXSCFHqWShP/Gpzq86syO4p9nEjuQ3XtMBMGA1UdJQQMMAoGCCsGAQUFBwMC
MAsGA1UdDwQEAwIHgDANBgkqhkiG9w0BAQsFAAOCAQEAl2FseaYhg//X5CC26tns
UrAZHY4R1+tRpUyFwwvbU4t/6DbAY2DX2rM6ggldccDcPpSJiD4Taf49Maz1YkJi
oOLQ3ZeT/NnC4jDKnWJeGFLWvgmljExLhrLajigrhhTb/l8Sxw16Ku6cWLHEagM4
7y7z1ExWfDBY5xN0J58CPxdNRmwWy/ElUo19lygmq0Tnfo3RxQl/a3kZb/U+UWow
3Qpw0kxLNVe1p2MvWYeBjJWxyhYKhd4+ROHB226plto12ny45OxXZzm7vzpI2C7m
BVmuaTR4mEzdtE9zZbY+/mc5S/rZSmOPeWy0hbowFdQcK4T2DergBj/pBqpRqEt4
2Q==
-----END CERTIFICATE-----
