Certificate:
    Data:
        Version: 3 (0x2)
        Serial Number:
            fb:55:81:e4:c2:1b:18:03:f8:fc:7a:6b:8c:c1:28:2d
        Signature Algorithm: sha256WithRSAEncryption
        Issuer: CN=team373-net
        Validity
            Not Before: Nov  4 11:35:49 2023 GMT
            Not After : Oct 19 11:35:49 2026 GMT
        Subject: CN=team373-server
        Subject Public Key Info:
            Public Key Algorithm: rsaEncryption
                Public-Key: (2048 bit)
                Modulus:
                    00:91:f7:55:b1:73:de:70:98:4d:0a:60:96:fd:21:
                    ee:4b:f0:33:13:78:dc:57:be:69:6b:3c:63:9f:37:
                    6c:a3:8d:34:da:37:95:5f:33:6c:6b:93:4c:89:ce:
                    06:f7:e7:5e:75:58:7c:2c:18:be:33:4d:79:d5:18:
                    1f:44:65:c6:31:c9:05:22:08:70:b2:d3:48:31:6d:
                    ed:ad:4a:6d:02:14:f5:27:a1:b9:bb:b5:1e:44:fd:
                    b5:66:30:7e:a4:d7:4d:da:80:f7:58:7d:2f:0a:83:
                    2b:e6:6b:43:d6:56:d9:1d:54:55:6c:f7:b1:f7:72:
                    e7:4b:cc:59:bd:da:16:65:6f:69:63:c0:ef:e9:97:
                    6b:73:da:19:ef:e3:85:6f:c1:a5:87:39:a7:71:54:
                    3b:38:f3:da:ff:b2:93:18:66:52:52:62:6f:41:36:
                    31:1e:4f:73:af:3f:a9:76:f6:82:18:4c:c5:04:e8:
                    c7:9c:06:84:ee:e1:b0:b6:10:50:ed:ef:66:7d:3a:
                    20:d3:4c:ae:7f:8f:0c:ee:46:59:5f:13:17:49:48:
                    cc:0c:20:60:c8:db:d1:cd:81:05:1d:d0:13:89:89:
                    92:fc:4c:d1:59:1e:d8:90:ff:2c:73:13:48:aa:02:
                    2c:8c:36:56:f0:95:58:c4:83:07:8a:cb:83:b3:a8:
                    f0:b5
                Exponent: 65537 (0x10001)
        X509v3 extensions:
            X509v3 Basic Constraints: 
                CA:FALSE
            X509v3 Subject Key Identifier: 
                87:97:51:F4:60:3C:20:6D:22:D9:83:36:B8:2B:90:C2:5B:39:6B:2E
            X509v3 Authority Key Identifier: 
                keyid:E2:D4:F0:1C:CF:EC:AA:92:68:DB:31:F9:C8:FC:69:85:11:8A:1B:EA
                DirName:/CN=team373-net
                serial:7A:96:4A:13:FF:1A:9C:EA:F3:AB:32:3B:8A:7D:9C:48:EE:43:75:ED
            X509v3 Extended Key Usage: 
                TLS Web Server Authentication
            X509v3 Key Usage: 
                Digital Signature, Key Encipherment
            X509v3 Subject Alternative Name: 
                DNS:team373-server
    Signature Algorithm: sha256WithRSAEncryption
    Signature Value:
        a7:22:40:f3:2f:00:e0:d7:e5:c9:6b:58:5a:b1:5c:b2:15:ff:
        d4:f3:0e:74:69:90:68:e4:0a:8a:b2:56:b6:69:ce:47:1b:25:
        96:ca:c6:1c:c7:30:ae:6a:2c:1b:0b:57:87:47:f0:b2:f2:37:
        8a:35:3e:ca:6f:87:a3:4a:07:e8:c1:6e:50:48:97:e3:38:f2:
        1e:5d:62:0f:74:4e:63:0b:47:f4:ce:ea:20:86:6f:c7:d0:54:
        a9:cb:01:93:12:3f:95:c3:4e:5c:63:1c:17:1c:b8:27:24:00:
        be:ca:c4:e6:ad:56:35:0b:ed:1b:17:e6:88:5a:ed:cc:e6:12:
        dc:60:22:68:fd:58:0a:d8:94:f2:e0:37:51:7e:04:43:1a:0d:
        24:ac:81:01:b7:2d:65:8f:c3:13:ae:19:b7:d9:0b:b5:1b:5a:
        3e:46:d3:1e:f5:52:2b:b4:e6:2d:a6:60:97:5b:e5:e4:5c:10:
        ad:21:99:58:4d:2a:35:99:ed:bc:93:66:4c:0b:a8:6c:09:7a:
        3f:27:17:b6:6b:48:13:91:29:f2:c7:2c:a9:7b:aa:f9:e0:03:
        48:34:1b:c5:f8:f8:17:98:fa:d1:67:ac:b9:48:5b:3c:95:d6:
        38:bd:ce:a5:61:0f:91:34:07:bb:5a:71:77:5c:f3:49:8a:c0:
        dd:5a:c0:ef
-----BEGIN CERTIFICATE-----
MIIDeDCCAmCgAwIBAgIRAPtVgeTCGxgD+Px6a4zBKC0wDQYJKoZIhvcNAQELBQAw
FjEUMBIGA1UEAwwLdGVhbTM3My1uZXQwHhcNMjMxMTA0MTEzNTQ5WhcNMjYxMDE5
MTEzNTQ5WjAZMRcwFQYDVQQDDA50ZWFtMzczLXNlcnZlcjCCASIwDQYJKoZIhvcN
AQEBBQADggEPADCCAQoCggEBAJH3VbFz3nCYTQpglv0h7kvwMxN43Fe+aWs8Y583
bKONNNo3lV8zbGuTTInOBvfnXnVYfCwYvjNNedUYH0RlxjHJBSIIcLLTSDFt7a1K
bQIU9Sehubu1HkT9tWYwfqTXTdqA91h9LwqDK+ZrQ9ZW2R1UVWz3sfdy50vMWb3a
FmVvaWPA7+mXa3PaGe/jhW/BpYc5p3FUOzjz2v+ykxhmUlJib0E2MR5Pc68/qXb2
ghhMxQTox5wGhO7hsLYQUO3vZn06INNMrn+PDO5GWV8TF0lIzAwgYMjb0c2BBR3Q
E4mJkvxM0Vke2JD/LHMTSKoCLIw2VvCVWMSDB4rLg7Oo8LUCAwEAAaOBvTCBujAJ
BgNVHRMEAjAAMB0GA1UdDgQWBBSHl1H0YDwgbSLZgza4K5DCWzlrLjBRBgNVHSME
SjBIgBTi1PAcz+yqkmjbMfnI/GmFEYob6qEapBgwFjEUMBIGA1UEAwwLdGVhbTM3
My1uZXSCFHqWShP/Gpzq86syO4p9nEjuQ3XtMBMGA1UdJQQMMAoGCCsGAQUFBwMB
MAsGA1UdDwQEAwIFoDAZBgNVHREEEjAQgg50ZWFtMzczLXNlcnZlcjANBgkqhkiG
9w0BAQsFAAOCAQEApyJA8y8A4NflyWtYWrFcshX/1PMOdGmQaOQKirJWtmnORxsl
lsrGHMcwrmosGwtXh0fwsvI3ijU+ym+Ho0oH6MFuUEiX4zjyHl1iD3ROYwtH9M7q
IIZvx9BUqcsBkxI/lcNOXGMcFxy4JyQAvsrE5q1WNQvtGxfmiFrtzOYS3GAiaP1Y
CtiU8uA3UX4EQxoNJKyBAbctZY/DE64Zt9kLtRtaPkbTHvVSK7TmLaZgl1vl5FwQ
rSGZWE0qNZntvJNmTAuobAl6PycXtmtIE5Ep8scsqXuq+eADSDQbxfj4F5j60Wes
uUhbPJXWOL3OpWEPkTQHu1pxd1zzSYrA3VrA7w==
-----END CERTIFICATE-----
