Certificate:
    Data:
        Version: 3 (0x2)
        Serial Number:
            de:3a:0e:32:1a:aa:9d:af:ce:bc:dd:42:f7:c3:ab:39
        Signature Algorithm: sha256WithRSAEncryption
        Issuer: CN=team219-net
        Validity
            Not Before: Nov  3 20:43:19 2023 GMT
            Not After : Oct 18 20:43:19 2026 GMT
        Subject: CN=team219-server
        Subject Public Key Info:
            Public Key Algorithm: rsaEncryption
                Public-Key: (2048 bit)
                Modulus:
                    00:9d:59:57:8c:f2:44:53:91:0d:ef:d6:eb:22:fa:
                    a6:21:b7:a2:15:8c:7b:98:f4:4d:09:e8:09:b8:d4:
                    96:ce:fb:6c:f5:b0:2a:a8:40:4a:bc:ba:7a:e2:de:
                    4e:01:55:fb:1b:a6:2c:3a:62:64:3b:92:99:a4:e7:
                    f5:28:b1:c2:41:cf:7b:2e:63:39:2e:04:84:3c:8b:
                    4b:dc:fc:34:82:b9:1b:8e:9c:ce:ec:d8:7c:4e:ba:
                    13:58:c9:ca:3c:46:c2:12:c6:70:66:61:54:40:62:
                    7a:cc:16:eb:ef:21:ea:60:fc:54:8d:ca:3f:56:6b:
                    30:9d:e4:7a:1a:15:0d:97:95:4e:8c:aa:60:ba:60:
                    87:48:02:5b:2b:58:0d:5a:60:af:1b:1b:4e:22:1e:
                    2a:0d:c5:32:23:38:77:3a:1f:be:b9:36:50:e8:35:
                    95:c2:ec:90:6f:30:b3:98:52:06:6f:45:71:00:09:
                    90:57:d2:7e:72:4e:cf:4b:d8:16:cc:31:4f:07:1b:
                    7b:23:6e:4e:a5:00:45:99:ca:69:8b:79:60:b7:39:
                    7d:39:c2:e9:86:fe:d9:fc:8b:14:e2:41:4c:a2:08:
                    a0:e5:a9:ca:4a:30:19:7d:2d:38:db:78:38:89:41:
                    73:f1:03:dd:c0:60:4e:66:10:b2:db:66:3f:6d:67:
                    19:d9
                Exponent: 65537 (0x10001)
        X509v3 extensions:
            X509v3 Basic Constraints: 
                CA:FALSE
            X509v3 Subject Key Identifier: 
                2B:FC:F5:AB:89:84:C6:96:D6:E6:23:C7:42:53:89:05:72:FA:F5:B8
            X509v3 Authority Key Identifier: 
                keyid:9C:D6:1E:C3:D4:B0:46:E2:AC:CE:8F:8C:29:9D:B6:DF:EF:E6:A1:84
                DirName:/CN=team219-net
                serial:20:58:30:F1:E1:20:6F:73:67:50:FF:EC:85:88:3F:50:DE:5C:CF:77
            X509v3 Extended Key Usage: 
                TLS Web Server Authentication
            X509v3 Key Usage: 
                Digital Signature, Key Encipherment
            X509v3 Subject Alternative Name: 
                DNS:team219-server
    Signature Algorithm: sha256WithRSAEncryption
    Signature Value:
        cc:e4:8f:4b:ab:7b:d2:2a:fc:99:eb:d2:75:3d:a4:7f:2c:80:
        87:4d:e5:e4:49:47:12:85:ca:99:42:26:db:fd:16:f0:dc:83:
        3d:06:c7:85:f1:1f:c1:7c:be:81:12:41:6a:b9:0e:2a:a2:cd:
        87:d0:bc:6d:7e:73:16:7a:4d:91:70:d7:19:c1:90:0d:f4:17:
        72:14:36:59:a6:90:f5:be:1e:01:16:af:e6:4d:d4:1b:eb:43:
        bf:f3:e0:d1:70:6c:12:fa:70:43:01:ac:90:c9:57:0c:93:04:
        d8:ed:e9:6b:c2:b8:56:5b:93:6a:af:82:6d:26:76:2e:c4:5e:
        87:9a:02:ce:01:e0:0e:81:8b:8b:6f:8b:7e:4d:2b:e0:ec:f8:
        fc:f3:e7:b0:85:39:4e:37:2c:0e:30:fd:af:dd:26:d4:db:9b:
        cf:c3:fc:35:66:4b:0c:c2:34:a8:06:9b:e3:9d:6d:cb:28:46:
        ad:59:f3:e8:4a:9e:f8:c2:f0:51:ac:04:b3:cb:40:69:cf:60:
        60:42:90:26:44:08:1e:17:14:76:07:d3:ae:fd:79:e7:04:29:
        1e:d0:37:08:08:08:ea:5d:ef:d8:d3:7b:e0:06:1a:aa:99:c7:
        27:79:1b:2c:90:4e:11:ab:99:17:be:c0:53:53:7a:15:05:ae:
        c3:0e:4e:e4
-----BEGIN CERTIFICATE-----
MIIDeDCCAmCgAwIBAgIRAN46DjIaqp2vzrzdQvfDqzkwDQYJKoZIhvcNAQELBQAw
FjEUMBIGA1UEAwwLdGVhbTIxOS1uZXQwHhcNMjMxMTAzMjA0MzE5WhcNMjYxMDE4
MjA0MzE5WjAZMRcwFQYDVQQDDA50ZWFtMjE5LXNlcnZlcjCCASIwDQYJKoZIhvcN
AQEBBQADggEPADCCAQoCggEBAJ1ZV4zyRFORDe/W6yL6piG3ohWMe5j0TQnoCbjU
ls77bPWwKqhASry6euLeTgFV+xumLDpiZDuSmaTn9SixwkHPey5jOS4EhDyLS9z8
NIK5G46czuzYfE66E1jJyjxGwhLGcGZhVEBieswW6+8h6mD8VI3KP1ZrMJ3kehoV
DZeVToyqYLpgh0gCWytYDVpgrxsbTiIeKg3FMiM4dzofvrk2UOg1lcLskG8ws5hS
Bm9FcQAJkFfSfnJOz0vYFswxTwcbeyNuTqUARZnKaYt5YLc5fTnC6Yb+2fyLFOJB
TKIIoOWpykowGX0tONt4OIlBc/ED3cBgTmYQsttmP21nGdkCAwEAAaOBvTCBujAJ
BgNVHRMEAjAAMB0GA1UdDgQWBBQr/PWriYTGltbmI8dCU4kFcvr1uDBRBgNVHSME
SjBIgBSc1h7D1LBG4qzOj4wpnbbf7+ahhKEapBgwFjEUMBIGA1UEAwwLdGVhbTIx
OS1uZXSCFCBYMPHhIG9zZ1D/7IWIP1DeXM93MBMGA1UdJQQMMAoGCCsGAQUFBwMB
MAsGA1UdDwQEAwIFoDAZBgNVHREEEjAQgg50ZWFtMjE5LXNlcnZlcjANBgkqhkiG
9w0BAQsFAAOCAQEAzOSPS6t70ir8mevSdT2kfyyAh03l5ElHEoXKmUIm2/0W8NyD
PQbHhfEfwXy+gRJBarkOKqLNh9C8bX5zFnpNkXDXGcGQDfQXchQ2WaaQ9b4eARav
5k3UG+tDv/Pg0XBsEvpwQwGskMlXDJME2O3pa8K4VluTaq+CbSZ2LsReh5oCzgHg
DoGLi2+Lfk0r4Oz4/PPnsIU5TjcsDjD9r90m1Nubz8P8NWZLDMI0qAab451tyyhG
rVnz6Eqe+MLwUawEs8tAac9gYEKQJkQIHhcUdgfTrv155wQpHtA3CAgI6l3v2NN7
4AYaqpnHJ3kbLJBOEauZF77AU1N6FQWuww5O5A==
-----END CERTIFICATE-----
