Certificate:
    Data:
        Version: 3 (0x2)
        Serial Number:
            22:58:94:6a:28:06:45:8c:ae:87:7e:b4:0c:e1:a7:2c
        Signature Algorithm: sha256WithRSAEncryption
        Issuer: CN=team171-net
        Validity
            Not Before: Nov  3 20:42:18 2023 GMT
            Not After : Oct 18 20:42:18 2026 GMT
        Subject: CN=team171-client
        Subject Public Key Info:
            Public Key Algorithm: rsaEncryption
                Public-Key: (2048 bit)
                Modulus:
                    00:d3:af:2e:63:c9:42:5e:55:0b:74:68:72:0d:bf:
                    25:a2:98:6e:28:76:01:05:e9:88:00:2b:df:a3:25:
                    1c:23:50:4c:1c:71:73:36:16:ef:fc:ab:f9:ef:cd:
                    c0:8f:09:2e:16:70:a0:33:19:94:5e:79:ef:04:15:
                    be:8c:90:90:60:a8:0f:05:60:b0:a1:76:ed:3d:59:
                    77:84:a4:79:63:ec:04:12:69:19:20:d7:ca:07:d6:
                    48:14:09:63:a6:5b:bf:73:89:ff:17:fd:0d:ee:78:
                    a2:46:69:e0:e5:d3:09:62:ad:2f:6c:23:c6:e2:d6:
                    66:0b:70:cf:b7:d9:07:11:0b:c4:e1:4c:fd:28:8e:
                    d8:95:a3:58:5a:11:b5:81:6f:83:a1:de:28:c0:d2:
                    af:4d:9b:4d:af:aa:c6:2c:d3:1a:06:c2:af:25:e6:
                    41:f4:09:3f:b3:84:79:4c:69:d8:d0:85:4d:4c:53:
                    e8:58:06:8d:96:cc:e5:53:5b:44:59:91:17:33:d4:
                    c7:cb:3f:29:1f:49:48:57:6f:7e:06:ce:bc:ab:67:
                    67:c9:7a:c7:3a:a3:b7:8a:12:ce:b0:29:de:ba:99:
                    8b:b4:cc:98:ed:d6:96:cb:0a:8c:81:c0:cc:ae:0f:
                    dc:24:17:e9:5e:77:ee:8e:1d:6b:c4:36:9d:e2:a7:
                    14:7d
                Exponent: 65537 (0x10001)
        X509v3 extensions:
            X509v3 Basic Constraints: 
                CA:FALSE
            X509v3 Subject Key Identifier: 
                CA:BB:BF:C9:83:A8:1B:A3:40:54:E0:39:E3:60:EC:C3:87:80:CD:B6
            X509v3 Authority Key Identifier: 
                keyid:19:D2:82:9B:1E:FD:26:EC:69:E5:8A:C6:E9:5C:CA:51:36:99:83:34
                DirName:/CN=team171-net
                serial:0C:9A:99:22:52:51:28:2D:AE:2D:78:8E:8C:A9:C1:62:11:53:16:40
            X509v3 Extended Key Usage: 
                TLS Web Client Authentication
            X509v3 Key Usage: 
                Digital Signature
    Signature Algorithm: sha256WithRSAEncryption
    Signature Value:
        66:cc:71:86:80:84:68:fe:85:89:a3:e6:de:75:58:14:f0:96:
        2b:a2:2f:68:2f:4a:da:11:26:66:c5:a0:32:7e:aa:b7:f4:cb:
        2f:10:79:7b:07:b9:0f:05:2f:d9:32:a1:02:e7:07:e1:aa:8a:
        70:3b:96:2c:fb:62:47:41:98:e7:04:1f:1b:e3:4d:57:7d:b8:
        13:33:e7:bf:a3:a9:14:6a:5e:1e:25:17:8b:27:fa:39:a6:ac:
        81:58:5c:b9:90:93:40:da:00:6a:02:37:67:a2:25:4a:00:97:
        5d:65:97:4d:78:32:cd:5f:bd:fc:16:fa:6b:a7:6e:0d:e4:ba:
        04:98:e2:97:fa:56:54:3b:fd:87:ca:b7:04:7d:6e:47:82:53:
        de:84:7f:11:86:a3:f2:a8:14:9e:27:68:e6:01:e1:ec:a3:9c:
        03:d3:d9:53:80:02:29:ed:50:36:1b:05:d5:2c:e3:02:de:e2:
        63:8f:c7:f7:da:0f:ae:b4:7e:00:dd:82:13:ac:17:79:9c:91:
        bc:1b:42:c2:26:5c:66:cc:51:63:30:b4:0b:59:97:e4:b6:8b:
        39:43:7b:fa:7b:13:e0:2c:95:a3:5f:cc:65:9c:8c:bf:7f:41:
        cc:f0:26:ef:39:67:16:d2:b1:8a:fe:b9:7c:f2:b0:f4:95:f9:
        f0:fb:65:78
-----BEGIN CERTIFICATE-----
MIIDXDCCAkSgAwIBAgIQIliUaigGRYyuh360DOGnLDANBgkqhkiG9w0BAQsFADAW
MRQwEgYDVQQDDAt0ZWFtMTcxLW5ldDAeFw0yMzExMDMyMDQyMThaFw0yNjEwMTgy
MDQyMThaMBkxFzAVBgNVBAMMDnRlYW0xNzEtY2xpZW50MIIBIjANBgkqhkiG9w0B
AQEFAAOCAQ8AMIIBCgKCAQEA068uY8lCXlULdGhyDb8lophuKHYBBemIACvfoyUc
I1BMHHFzNhbv/Kv5783AjwkuFnCgMxmUXnnvBBW+jJCQYKgPBWCwoXbtPVl3hKR5
Y+wEEmkZINfKB9ZIFAljplu/c4n/F/0N7niiRmng5dMJYq0vbCPG4tZmC3DPt9kH
EQvE4Uz9KI7YlaNYWhG1gW+Dod4owNKvTZtNr6rGLNMaBsKvJeZB9Ak/s4R5TGnY
0IVNTFPoWAaNlszlU1tEWZEXM9THyz8pH0lIV29+Bs68q2dnyXrHOqO3ihLOsCne
upmLtMyY7daWywqMgcDMrg/cJBfpXnfujh1rxDad4qcUfQIDAQABo4GiMIGfMAkG
A1UdEwQCMAAwHQYDVR0OBBYEFMq7v8mDqBujQFTgOeNg7MOHgM22MFEGA1UdIwRK
MEiAFBnSgpse/SbsaeWKxulcylE2mYM0oRqkGDAWMRQwEgYDVQQDDAt0ZWFtMTcx
LW5ldIIUDJqZIlJRKC2uLXiOjKnBYhFTFkAwEwYDVR0lBAwwCgYIKwYBBQUHAwIw
CwYDVR0PBAQDAgeAMA0GCSqGSIb3DQEBCwUAA4IBAQBmzHGGgIRo/oWJo+bedVgU
8JYroi9oL0raESZmxaAyfqq39MsvEHl7B7kPBS/ZMqEC5wfhqopwO5Ys+2JHQZjn
BB8b401XfbgTM+e/o6kUal4eJReLJ/o5pqyBWFy5kJNA2gBqAjdnoiVKAJddZZdN
eDLNX738Fvprp24N5LoEmOKX+lZUO/2HyrcEfW5HglPehH8RhqPyqBSeJ2jmAeHs
o5wD09lTgAIp7VA2GwXVLOMC3uJjj8f32g+utH4A3YITrBd5nJG8G0LCJlxmzFFj
MLQLWZfktos5Q3v6exPgLJWjX8xlnIy/f0HM8CbvOWcW0rGK/rl88rD0lfnw+2V4
-----END CERTIFICATE-----
