Certificate:
    Data:
        Version: 3 (0x2)
        Serial Number:
            45:fb:02:f2:f4:09:e7:5e:d7:c4:ff:44:16:41:c2:bb
        Signature Algorithm: sha256WithRSAEncryption
        Issuer: CN=team108-net
        Validity
            Not Before: Nov  4 10:42:24 2023 GMT
            Not After : Oct 19 10:42:24 2026 GMT
        Subject: CN=team108-client
        Subject Public Key Info:
            Public Key Algorithm: rsaEncryption
                Public-Key: (2048 bit)
                Modulus:
                    00:ed:08:a1:33:71:cf:41:db:1b:e6:1b:44:e3:6d:
                    63:d8:05:0c:22:ee:77:77:35:82:27:1e:35:da:cf:
                    c6:bc:e5:83:46:53:cf:41:e5:86:6f:22:36:ca:fe:
                    ea:b5:b6:cf:8f:f2:54:fc:5a:1e:82:d4:ef:59:3a:
                    11:46:85:c2:33:5a:de:18:bb:b9:a7:11:f8:60:7c:
                    1a:be:d4:54:25:fd:0d:c5:bc:ca:c2:7e:f8:32:1d:
                    bd:43:03:07:8e:8a:cb:24:70:d5:82:e8:4a:26:64:
                    05:ed:32:e6:2a:be:7d:e5:ce:ed:cc:a1:2a:11:3b:
                    2c:40:01:cf:9d:23:75:86:69:29:86:90:ad:2b:c2:
                    fd:4a:9d:d2:45:bc:d5:fc:d8:d7:39:52:ec:bc:b2:
                    ec:77:2d:5a:07:f9:7f:9e:d5:29:f0:56:52:51:cf:
                    96:a0:f6:b9:d1:90:fa:e4:94:40:83:ea:6b:56:fd:
                    f5:e5:a9:ec:3d:c2:ce:9a:7b:ef:45:23:e8:ac:52:
                    7f:3a:da:d5:4a:82:26:00:d3:d5:28:0f:4a:c7:23:
                    20:6d:ee:c4:2a:27:7f:e2:f0:32:37:6a:2b:05:6c:
                    30:80:32:6b:d1:b0:0c:13:7d:e4:15:65:56:12:14:
                    56:2e:4f:93:90:fb:79:db:68:12:dc:68:64:92:66:
                    3c:cb
                Exponent: 65537 (0x10001)
        X509v3 extensions:
            X509v3 Basic Constraints: 
                CA:FALSE
            X509v3 Subject Key Identifier: 
                92:7E:2A:52:ED:AA:96:13:BE:CE:69:5B:90:DC:AE:13:C9:A1:B8:BE
            X509v3 Authority Key Identifier: 
                keyid:BC:3A:33:C3:99:E1:08:5D:A2:43:60:DF:7C:CC:BA:33:2B:0F:AF:99
                DirName:/CN=team108-net
                serial:0F:61:F0:28:E9:9E:83:AA:CB:55:04:02:DA:59:4B:BC:D2:22:C5:A0
            X509v3 Extended Key Usage: 
                TLS Web Client Authentication
            X509v3 Key Usage: 
                Digital Signature
    Signature Algorithm: sha256WithRSAEncryption
    Signature Value:
        5c:22:50:7e:c1:b5:6c:18:a2:55:ee:a5:da:3d:42:ac:a3:28:
        f4:95:bf:19:f3:2d:08:1a:73:d4:71:44:d6:04:ff:2b:da:fa:
        e9:f9:e9:aa:47:41:f9:56:92:67:ff:f6:23:43:99:5c:de:e5:
        ce:34:73:6f:bd:fc:53:6f:0f:9b:dd:f2:bf:2a:58:54:4a:28:
        cd:73:96:fd:c8:c1:fd:5e:80:7f:46:24:e2:75:03:5f:c5:f3:
        da:78:2a:0e:8d:fd:f4:8d:7c:57:6d:7f:bb:e9:69:24:14:2c:
        85:0d:bd:b1:94:c0:24:27:cc:ff:af:73:36:9a:c5:76:53:b9:
        2f:08:de:34:2b:e9:a8:d9:ce:99:42:11:a2:85:14:c1:1f:87:
        4d:72:cb:bd:64:ae:fa:97:8d:24:30:65:13:e1:b9:99:e7:33:
        fa:e4:6e:89:57:cc:0c:d2:63:bd:53:e8:ac:4b:a8:53:36:97:
        6e:1d:56:5a:bb:fb:c4:b3:82:07:b9:46:e1:67:c2:f7:28:54:
        02:05:b5:51:3a:23:b1:92:00:08:73:db:f4:75:fc:a2:64:23:
        0f:f8:3e:a7:c8:63:df:ab:59:9f:19:39:5a:8c:29:85:3c:21:
        a4:6d:33:a2:95:a0:ae:98:9f:af:ba:06:6d:fe:11:5d:bc:20:
        da:7a:76:da
-----BEGIN CERTIFICATE-----
MIIDXDCCAkSgAwIBAgIQRfsC8vQJ517XxP9EFkHCuzANBgkqhkiG9w0BAQsFADAW
MRQwEgYDVQQDDAt0ZWFtMTA4LW5ldDAeFw0yMzExMDQxMDQyMjRaFw0yNjEwMTkx
MDQyMjRaMBkxFzAVBgNVBAMMDnRlYW0xMDgtY2xpZW50MIIBIjANBgkqhkiG9w0B
AQEFAAOCAQ8AMIIBCgKCAQEA7QihM3HPQdsb5htE421j2AUMIu53dzWCJx412s/G
vOWDRlPPQeWGbyI2yv7qtbbPj/JU/FoegtTvWToRRoXCM1reGLu5pxH4YHwavtRU
Jf0NxbzKwn74Mh29QwMHjorLJHDVguhKJmQF7TLmKr595c7tzKEqETssQAHPnSN1
hmkphpCtK8L9Sp3SRbzV/NjXOVLsvLLsdy1aB/l/ntUp8FZSUc+WoPa50ZD65JRA
g+prVv315ansPcLOmnvvRSPorFJ/OtrVSoImANPVKA9KxyMgbe7EKid/4vAyN2or
BWwwgDJr0bAME33kFWVWEhRWLk+TkPt522gS3GhkkmY8ywIDAQABo4GiMIGfMAkG
A1UdEwQCMAAwHQYDVR0OBBYEFJJ+KlLtqpYTvs5pW5DcrhPJobi+MFEGA1UdIwRK
MEiAFLw6M8OZ4QhdokNg33zMujMrD6+ZoRqkGDAWMRQwEgYDVQQDDAt0ZWFtMTA4
LW5ldIIUD2HwKOmeg6rLVQQC2llLvNIixaAwEwYDVR0lBAwwCgYIKwYBBQUHAwIw
CwYDVR0PBAQDAgeAMA0GCSqGSIb3DQEBCwUAA4IBAQBcIlB+wbVsGKJV7qXaPUKs
oyj0lb8Z8y0IGnPUcUTWBP8r2vrp+emqR0H5VpJn//YjQ5lc3uXONHNvvfxTbw+b
3fK/KlhUSijNc5b9yMH9XoB/RiTidQNfxfPaeCoOjf30jXxXbX+76WkkFCyFDb2x
lMAkJ8z/r3M2msV2U7kvCN40K+mo2c6ZQhGihRTBH4dNcsu9ZK76l40kMGUT4bmZ
5zP65G6JV8wM0mO9U+isS6hTNpduHVZau/vEs4IHuUbhZ8L3KFQCBbVROiOxkgAI
c9v0dfyiZCMP+D6nyGPfq1mfGTlajCmFPCGkbTOilaCumJ+vugZt/hFdvCDaenba
-----END CERTIFICATE-----
