Certificate:
    Data:
        Version: 3 (0x2)
        Serial Number:
            78:0e:75:dd:bf:32:ce:ca:e2:b9:1f:f0:4c:13:3f:e0
        Signature Algorithm: sha256WithRSAEncryption
        Issuer: CN=team108-net
        Validity
            Not Before: Nov  4 10:42:25 2023 GMT
            Not After : Oct 19 10:42:25 2026 GMT
        Subject: CN=team108-server
        Subject Public Key Info:
            Public Key Algorithm: rsaEncryption
                Public-Key: (2048 bit)
                Modulus:
                    00:c9:2b:b1:c9:4a:f8:26:4f:3f:0e:bf:18:ee:ad:
                    65:63:6d:de:9a:d8:64:02:ec:97:71:f8:d2:0b:f3:
                    ff:cd:3f:74:f4:3e:2d:22:e0:72:57:9d:c6:85:85:
                    b5:83:43:b0:b7:ad:87:28:d1:d3:45:49:59:f3:bf:
                    e3:fe:b9:fc:d4:7e:65:37:df:a4:08:b0:2c:71:95:
                    a2:19:b6:80:ea:ed:05:cc:f2:a3:6a:8f:a2:ee:d4:
                    36:69:15:67:b5:8c:8b:42:68:35:b9:2c:04:cc:b4:
                    18:5f:3f:5a:8c:e5:5d:31:aa:78:5a:3b:93:7e:16:
                    53:9c:bd:f5:0d:92:84:55:8a:7b:bf:98:35:a1:d2:
                    36:51:20:dc:18:1e:f9:32:c3:84:c0:29:2b:fc:f9:
                    ab:4d:18:b4:89:29:e4:ad:fb:c2:d4:9d:61:e7:3c:
                    40:83:0b:4d:66:49:78:7a:6a:b6:f4:60:f7:24:2f:
                    d3:f6:b6:00:0f:65:dc:4d:43:3c:62:ce:bd:0b:2e:
                    83:43:53:e6:43:b0:5e:61:fc:ba:7c:ec:f4:57:ea:
                    ef:ee:12:c3:4a:83:09:99:b7:85:d7:40:f1:26:28:
                    0c:2e:f3:ff:0f:21:f5:6e:09:ff:5f:48:f5:22:19:
                    1b:25:c5:c8:73:4e:cf:e6:30:d1:00:94:a6:7f:cf:
                    68:67
                Exponent: 65537 (0x10001)
        X509v3 extensions:
            X509v3 Basic Constraints: 
                CA:FALSE
            X509v3 Subject Key Identifier: 
                CC:0B:1D:00:29:5B:8F:48:F7:88:E0:FD:B4:CE:92:70:4F:34:FF:CA
            X509v3 Authority Key Identifier: 
                keyid:BC:3A:33:C3:99:E1:08:5D:A2:43:60:DF:7C:CC:BA:33:2B:0F:AF:99
                DirName:/CN=team108-net
                serial:0F:61:F0:28:E9:9E:83:AA:CB:55:04:02:DA:59:4B:BC:D2:22:C5:A0
            X509v3 Extended Key Usage: 
                TLS Web Server Authentication
            X509v3 Key Usage: 
                Digital Signature, Key Encipherment
            X509v3 Subject Alternative Name: 
                DNS:team108-server
    Signature Algorithm: sha256WithRSAEncryption
    Signature Value:
        29:b2:e7:71:80:0b:d9:bc:12:d7:fe:6f:ba:84:8a:28:d3:56:
        c0:92:75:4b:6b:f4:84:3f:d4:ce:10:b4:ae:41:21:12:cf:10:
        a3:e1:56:97:02:3d:bb:5a:16:f2:5e:c4:30:e1:56:76:63:5d:
        1d:8e:dd:51:19:a7:a3:06:a2:00:42:d5:8b:b8:3d:56:ab:b5:
        68:3f:86:ed:60:d5:b5:43:51:76:b7:14:9a:60:5d:47:0e:95:
        d4:69:b1:51:f7:39:c4:ab:14:4d:08:e7:2a:1b:c3:ac:34:c4:
        39:57:4f:cc:ab:be:3f:0f:88:6f:b3:69:0f:77:14:2f:a8:8a:
        ed:a8:d8:b7:5f:9a:4d:9c:eb:78:1e:3a:8b:9f:65:46:71:9c:
        94:c5:ff:cd:62:a0:c7:a3:73:06:a9:0c:ce:a6:cc:b0:81:1a:
        15:e8:bb:18:e3:6b:35:20:06:de:fd:4b:e8:69:86:21:f2:79:
        b9:99:0e:bd:39:a0:9c:66:91:d1:79:cd:74:de:9c:7a:7f:ba:
        27:7a:bf:f8:75:ac:c5:2b:97:67:c6:d1:81:61:bd:a4:aa:13:
        a2:a3:34:bd:a8:96:a2:7c:8d:a6:d2:16:ba:b4:af:94:76:87:
        7c:4e:48:ab:a5:e5:49:e9:7f:50:5f:87:d4:e2:73:d0:51:0b:
        c0:50:4b:a8
-----BEGIN CERTIFICATE-----
MIIDdzCCAl+gAwIBAgIQeA513b8yzsriuR/wTBM/4DANBgkqhkiG9w0BAQsFADAW
MRQwEgYDVQQDDAt0ZWFtMTA4LW5ldDAeFw0yMzExMDQxMDQyMjVaFw0yNjEwMTkx
MDQyMjVaMBkxFzAVBgNVBAMMDnRlYW0xMDgtc2VydmVyMIIBIjANBgkqhkiG9w0B
AQEFAAOCAQ8AMIIBCgKCAQEAySuxyUr4Jk8/Dr8Y7q1lY23emthkAuyXcfjSC/P/
zT909D4tIuByV53GhYW1g0Owt62HKNHTRUlZ87/j/rn81H5lN9+kCLAscZWiGbaA
6u0FzPKjao+i7tQ2aRVntYyLQmg1uSwEzLQYXz9ajOVdMap4WjuTfhZTnL31DZKE
VYp7v5g1odI2USDcGB75MsOEwCkr/PmrTRi0iSnkrfvC1J1h5zxAgwtNZkl4emq2
9GD3JC/T9rYAD2XcTUM8Ys69Cy6DQ1PmQ7BeYfy6fOz0V+rv7hLDSoMJmbeF10Dx
JigMLvP/DyH1bgn/X0j1IhkbJcXIc07P5jDRAJSmf89oZwIDAQABo4G9MIG6MAkG
A1UdEwQCMAAwHQYDVR0OBBYEFMwLHQApW49I94jg/bTOknBPNP/KMFEGA1UdIwRK
MEiAFLw6M8OZ4QhdokNg33zMujMrD6+ZoRqkGDAWMRQwEgYDVQQDDAt0ZWFtMTA4
LW5ldIIUD2HwKOmeg6rLVQQC2llLvNIixaAwEwYDVR0lBAwwCgYIKwYBBQUHAwEw
CwYDVR0PBAQDAgWgMBkGA1UdEQQSMBCCDnRlYW0xMDgtc2VydmVyMA0GCSqGSIb3
DQEBCwUAA4IBAQApsudxgAvZvBLX/m+6hIoo01bAknVLa/SEP9TOELSuQSESzxCj
4VaXAj27WhbyXsQw4VZ2Y10djt1RGaejBqIAQtWLuD1Wq7VoP4btYNW1Q1F2txSa
YF1HDpXUabFR9znEqxRNCOcqG8OsNMQ5V0/Mq74/D4hvs2kPdxQvqIrtqNi3X5pN
nOt4HjqLn2VGcZyUxf/NYqDHo3MGqQzOpsywgRoV6LsY42s1IAbe/UvoaYYh8nm5
mQ69OaCcZpHRec103px6f7oner/4dazFK5dnxtGBYb2kqhOiozS9qJaifI2m0ha6
tK+Udod8TkirpeVJ6X9QX4fU4nPQUQvAUEuo
-----END CERTIFICATE-----
