Certificate:
    Data:
        Version: 3 (0x2)
        Serial Number:
            83:99:26:c7:1a:e1:e4:c0:43:0b:bf:c2:a6:e0:f6:44
        Signature Algorithm: sha256WithRSAEncryption
        Issuer: CN=team108-net
        Validity
            Not Before: Nov  4 11:29:35 2023 GMT
            Not After : Oct 19 11:29:35 2026 GMT
        Subject: CN=team108-client
        Subject Public Key Info:
            Public Key Algorithm: rsaEncryption
                Public-Key: (2048 bit)
                Modulus:
                    00:e9:02:54:40:72:25:61:53:95:1a:10:c0:30:e7:
                    8d:9d:ef:9f:b5:cf:78:48:91:aa:f6:0d:ef:39:31:
                    9b:73:48:0d:18:6c:c2:44:2d:ac:d7:b4:4d:49:b8:
                    5d:f9:2c:63:22:6a:ca:dc:fe:e9:94:cb:03:f8:c4:
                    cf:12:3b:7e:a7:57:12:1d:99:85:b3:bf:1c:c0:10:
                    52:8a:9e:c4:e2:e9:00:a6:f1:78:4d:6e:31:ce:5e:
                    70:36:41:51:34:17:99:54:e7:15:2f:72:7f:4e:95:
                    82:d7:45:6c:76:2a:2e:eb:f6:66:6c:9d:f0:a5:51:
                    47:55:87:27:08:ff:44:bf:72:52:6f:44:39:25:13:
                    43:fc:87:e6:3a:3f:b5:ee:90:4e:9a:25:7a:c9:d4:
                    93:e5:39:0d:c0:44:11:21:ab:b5:cf:a6:7a:cc:5d:
                    34:83:6c:48:26:65:4e:39:a0:b9:d3:f7:bc:fa:e0:
                    ac:05:84:04:c6:b8:68:5e:f6:70:af:1e:53:51:4b:
                    a4:7d:58:0d:9e:ca:b7:05:ee:78:64:e3:f8:3a:d3:
                    15:02:52:9c:d6:88:af:55:6d:d9:8b:e7:37:d2:10:
                    c4:5a:fb:fa:b2:41:c4:48:56:46:9c:75:64:fd:2b:
                    12:6c:39:85:d9:ae:06:ae:1b:2f:c8:2c:b2:ec:fc:
                    67:a5
                Exponent: 65537 (0x10001)
        X509v3 extensions:
            X509v3 Basic Constraints: 
                CA:FALSE
            X509v3 Subject Key Identifier: 
                94:91:4B:E1:7B:A2:8A:BC:96:82:9F:FA:0E:6A:FC:2C:DA:4C:EB:0D
            X509v3 Authority Key Identifier: 
                keyid:78:BF:6A:A2:AA:69:A1:D1:FB:A8:07:D1:09:48:D1:50:4E:B4:2F:A2
                DirName:/CN=team108-net
                serial:37:FB:75:84:3B:BF:37:9E:8A:BD:52:1A:47:68:61:0C:11:22:1C:84
            X509v3 Extended Key Usage: 
                TLS Web Client Authentication
            X509v3 Key Usage: 
                Digital Signature
    Signature Algorithm: sha256WithRSAEncryption
    Signature Value:
        19:a7:47:32:da:7b:53:0d:21:83:f4:cf:80:b1:aa:82:3a:25:
        bf:13:a1:11:f1:5c:d7:64:22:14:da:2d:33:12:58:7d:2b:c4:
        bc:f8:2a:48:0b:26:bf:f0:95:a9:6b:42:fd:70:a9:51:0a:2d:
        20:b0:dc:fa:b9:46:29:56:2c:36:0e:b3:a8:19:42:26:92:8e:
        fe:21:b8:93:f0:19:03:65:ac:47:dc:93:19:e5:fb:5c:7f:b8:
        e9:a2:66:ff:98:6f:c0:22:16:f7:46:ec:27:d5:1f:85:f8:d4:
        b7:21:23:73:68:42:1e:fe:92:cc:31:af:2c:1f:ea:96:a6:28:
        01:32:a2:41:f2:ba:9f:1e:7a:16:26:5e:9d:8e:d7:65:c9:23:
        9a:da:f5:cb:9b:35:df:94:a9:ac:d3:19:e3:7b:6d:98:5c:e6:
        c9:fa:76:fb:5d:ab:d0:5f:34:be:7e:b2:2a:4d:49:27:cd:81:
        4d:b8:62:ee:c0:b3:c3:e4:f5:35:5a:69:25:c5:1f:49:80:4d:
        f9:16:fd:63:11:27:f6:10:30:7a:57:84:53:75:ff:25:59:49:
        10:50:e0:c0:fb:5e:1d:d4:f2:81:c9:a1:d2:33:74:4f:69:39:
        9b:5b:66:48:50:7e:b6:c5:9a:80:16:76:2b:75:11:10:25:86:
        30:57:8b:9d
-----BEGIN CERTIFICATE-----
MIIDXTCCAkWgAwIBAgIRAIOZJsca4eTAQwu/wqbg9kQwDQYJKoZIhvcNAQELBQAw
FjEUMBIGA1UEAwwLdGVhbTEwOC1uZXQwHhcNMjMxMTA0MTEyOTM1WhcNMjYxMDE5
MTEyOTM1WjAZMRcwFQYDVQQDDA50ZWFtMTA4LWNsaWVudDCCASIwDQYJKoZIhvcN
AQEBBQADggEPADCCAQoCggEBAOkCVEByJWFTlRoQwDDnjZ3vn7XPeEiRqvYN7zkx
m3NIDRhswkQtrNe0TUm4XfksYyJqytz+6ZTLA/jEzxI7fqdXEh2ZhbO/HMAQUoqe
xOLpAKbxeE1uMc5ecDZBUTQXmVTnFS9yf06VgtdFbHYqLuv2Zmyd8KVRR1WHJwj/
RL9yUm9EOSUTQ/yH5jo/te6QTpolesnUk+U5DcBEESGrtc+mesxdNINsSCZlTjmg
udP3vPrgrAWEBMa4aF72cK8eU1FLpH1YDZ7KtwXueGTj+DrTFQJSnNaIr1Vt2Yvn
N9IQxFr7+rJBxEhWRpx1ZP0rEmw5hdmuBq4bL8gssuz8Z6UCAwEAAaOBojCBnzAJ
BgNVHRMEAjAAMB0GA1UdDgQWBBSUkUvhe6KKvJaCn/oOavws2kzrDTBRBgNVHSME
SjBIgBR4v2qiqmmh0fuoB9EJSNFQTrQvoqEapBgwFjEUMBIGA1UEAwwLdGVhbTEw
OC1uZXSCFDf7dYQ7vzeeir1SGkdoYQwRIhyEMBMGA1UdJQQMMAoGCCsGAQUFBwMC
MAsGA1UdDwQEAwIHgDANBgkqhkiG9w0BAQsFAAOCAQEAGadHMtp7Uw0hg/TPgLGq
gjolvxOhEfFc12QiFNotMxJYfSvEvPgqSAsmv/CVqWtC/XCpUQotILDc+rlGKVYs
Ng6zqBlCJpKO/iG4k/AZA2WsR9yTGeX7XH+46aJm/5hvwCIW90bsJ9UfhfjUtyEj
c2hCHv6SzDGvLB/qlqYoATKiQfK6nx56FiZenY7XZckjmtr1y5s135SprNMZ43tt
mFzmyfp2+12r0F80vn6yKk1JJ82BTbhi7sCzw+T1NVppJcUfSYBN+Rb9YxEn9hAw
eleEU3X/JVlJEFDgwPteHdTygcmh0jN0T2k5m1tmSFB+tsWagBZ2K3URECWGMFeL
nQ==
-----END CERTIFICATE-----
