Certificate:
    Data:
        Version: 3 (0x2)
        Serial Number:
            c0:fa:dc:2b:5f:db:2d:99:da:24:d1:2c:25:4e:fa:eb
        Signature Algorithm: sha256WithRSAEncryption
        Issuer: CN=team108-net
        Validity
            Not Before: Nov  4 11:29:35 2023 GMT
            Not After : Oct 19 11:29:35 2026 GMT
        Subject: CN=team108-server
        Subject Public Key Info:
            Public Key Algorithm: rsaEncryption
                Public-Key: (2048 bit)
                Modulus:
                    00:8c:99:0d:cd:2b:a3:13:74:60:f2:19:19:be:b1:
                    07:24:3e:41:fb:87:89:df:cb:0c:e6:45:7c:a2:6f:
                    0a:1b:4e:1a:7d:5d:9f:b6:75:06:30:cd:57:d3:6f:
                    42:61:28:c9:e7:7f:26:4f:8f:5a:0f:4b:b1:20:49:
                    55:29:cb:95:b5:e2:ba:06:04:27:1c:7e:df:9b:f5:
                    35:c9:b1:81:44:e4:21:a3:26:66:a0:c3:c6:ac:87:
                    22:71:c8:26:10:fb:45:4b:ec:8c:2f:e3:27:10:68:
                    56:cf:1d:b0:ee:eb:dc:7f:a8:95:a9:e1:e8:5d:e4:
                    f0:a6:ec:0f:b6:c1:0f:d4:2f:0d:cc:12:db:2b:46:
                    ee:d3:24:ec:ce:7e:83:49:d6:66:7c:01:77:cb:ec:
                    ba:74:45:64:21:93:a8:29:76:ae:88:c3:28:b0:1d:
                    de:3a:95:8c:25:81:9d:5a:f8:de:09:c4:85:b0:be:
                    a0:65:37:ea:5f:fb:c1:db:05:07:0f:64:b0:5b:94:
                    cb:87:4a:bf:9b:80:0e:50:21:33:ea:7d:57:a0:e3:
                    30:31:15:b9:9d:7c:1d:78:31:c8:fe:77:a4:a6:3a:
                    0f:fd:a8:76:a2:df:6c:6c:67:f3:ae:56:b8:13:b8:
                    1d:fc:bc:5f:c6:79:c0:4b:97:b7:a3:b4:6e:e1:a5:
                    9c:19
                Exponent: 65537 (0x10001)
        X509v3 extensions:
            X509v3 Basic Constraints: 
                CA:FALSE
            X509v3 Subject Key Identifier: 
                60:58:A5:09:FD:44:24:DB:66:3B:7D:87:EA:0E:7E:AF:48:FB:A6:CF
            X509v3 Authority Key Identifier: 
                keyid:78:BF:6A:A2:AA:69:A1:D1:FB:A8:07:D1:09:48:D1:50:4E:B4:2F:A2
                DirName:/CN=team108-net
                serial:37:FB:75:84:3B:BF:37:9E:8A:BD:52:1A:47:68:61:0C:11:22:1C:84
            X509v3 Extended Key Usage: 
                TLS Web Server Authentication
            X509v3 Key Usage: 
                Digital Signature, Key Encipherment
            X509v3 Subject Alternative Name: 
                DNS:team108-server
    Signature Algorithm: sha256WithRSAEncryption
    Signature Value:
        5f:5e:93:31:f9:a2:94:b0:c3:76:c0:ae:af:b2:1a:eb:3f:c1:
        b4:f4:a7:1b:2a:57:7a:4d:13:39:2a:74:71:3c:56:1f:1f:73:
        e9:58:3c:bd:9b:1b:e4:4c:da:20:55:9c:ce:95:df:d6:a8:4b:
        2e:db:72:8b:5b:ce:53:be:65:f6:c1:88:8e:54:98:b3:8c:b0:
        18:35:49:02:c1:f9:ce:06:d6:bb:9f:fa:0b:77:b6:54:57:94:
        df:f1:31:14:cb:24:f9:fa:d1:b2:d8:ba:3e:be:ac:00:2d:be:
        1f:d6:52:13:ba:4b:04:36:b7:ce:60:32:f1:12:2a:bc:5e:96:
        65:d5:b6:a9:81:76:ff:1f:64:7c:a2:51:2d:90:64:61:69:90:
        6d:7d:29:d4:f0:f3:38:ea:5f:5c:28:9c:65:11:0e:0e:84:07:
        76:0f:b7:b7:b4:96:42:9f:75:ba:b8:4d:17:e6:60:8c:3a:60:
        5d:f1:d6:47:09:75:d8:bb:53:de:d0:12:07:78:9a:93:e0:fa:
        e1:7d:91:29:91:49:bc:32:1c:22:79:99:a0:3a:2b:80:c1:2e:
        29:8e:29:0a:fe:5d:87:a3:c9:e7:25:e4:1b:53:c3:32:a3:b4:
        c7:97:ee:13:24:95:e8:9e:b4:a2:a1:fd:27:3b:ab:21:a8:65:
        4f:d6:ba:52
-----BEGIN CERTIFICATE-----
MIIDeDCCAmCgAwIBAgIRAMD63Ctf2y2Z2iTRLCVO+uswDQYJKoZIhvcNAQELBQAw
FjEUMBIGA1UEAwwLdGVhbTEwOC1uZXQwHhcNMjMxMTA0MTEyOTM1WhcNMjYxMDE5
MTEyOTM1WjAZMRcwFQYDVQQDDA50ZWFtMTA4LXNlcnZlcjCCASIwDQYJKoZIhvcN
AQEBBQADggEPADCCAQoCggEBAIyZDc0roxN0YPIZGb6xByQ+QfuHid/LDOZFfKJv
ChtOGn1dn7Z1BjDNV9NvQmEoyed/Jk+PWg9LsSBJVSnLlbXiugYEJxx+35v1Ncmx
gUTkIaMmZqDDxqyHInHIJhD7RUvsjC/jJxBoVs8dsO7r3H+olanh6F3k8KbsD7bB
D9QvDcwS2ytG7tMk7M5+g0nWZnwBd8vsunRFZCGTqCl2rojDKLAd3jqVjCWBnVr4
3gnEhbC+oGU36l/7wdsFBw9ksFuUy4dKv5uADlAhM+p9V6DjMDEVuZ18HXgxyP53
pKY6D/2odqLfbGxn865WuBO4Hfy8X8Z5wEuXt6O0buGlnBkCAwEAAaOBvTCBujAJ
BgNVHRMEAjAAMB0GA1UdDgQWBBRgWKUJ/UQk22Y7fYfqDn6vSPumzzBRBgNVHSME
SjBIgBR4v2qiqmmh0fuoB9EJSNFQTrQvoqEapBgwFjEUMBIGA1UEAwwLdGVhbTEw
OC1uZXSCFDf7dYQ7vzeeir1SGkdoYQwRIhyEMBMGA1UdJQQMMAoGCCsGAQUFBwMB
MAsGA1UdDwQEAwIFoDAZBgNVHREEEjAQgg50ZWFtMTA4LXNlcnZlcjANBgkqhkiG
9w0BAQsFAAOCAQEAX16TMfmilLDDdsCur7Ia6z/BtPSnGypXek0TOSp0cTxWHx9z
6Vg8vZsb5EzaIFWczpXf1qhLLttyi1vOU75l9sGIjlSYs4ywGDVJAsH5zgbWu5/6
C3e2VFeU3/ExFMsk+frRsti6Pr6sAC2+H9ZSE7pLBDa3zmAy8RIqvF6WZdW2qYF2
/x9kfKJRLZBkYWmQbX0p1PDzOOpfXCicZREODoQHdg+3t7SWQp91urhNF+ZgjDpg
XfHWRwl12LtT3tASB3iak+D64X2RKZFJvDIcInmZoDorgMEuKY4pCv5dh6PJ5yXk
G1PDMqO0x5fuEySV6J60oqH9JzurIahlT9a6Ug==
-----END CERTIFICATE-----
