Certificate:
    Data:
        Version: 3 (0x2)
        Serial Number:
            ae:7e:65:e8:a4:62:f1:1b:48:22:09:bf:85:2e:5f:19
        Signature Algorithm: sha256WithRSAEncryption
        Issuer: CN=team406-net
        Validity
            Not Before: Nov  3 20:46:35 2023 GMT
            Not After : Oct 18 20:46:35 2026 GMT
        Subject: CN=team406-server
        Subject Public Key Info:
            Public Key Algorithm: rsaEncryption
                Public-Key: (2048 bit)
                Modulus:
                    00:fa:de:db:57:ee:41:61:e7:65:1f:03:aa:53:08:
                    72:f4:7b:1c:08:be:30:82:f8:4f:61:89:61:9b:df:
                    b7:32:45:c1:b2:00:6f:84:b6:b2:2b:06:87:e8:af:
                    a0:61:7f:dc:d7:90:1c:9f:a9:2a:6f:1b:8a:97:98:
                    c9:23:3c:06:3b:51:65:74:d8:41:60:76:a4:66:da:
                    4e:7c:10:39:f5:11:4a:f7:e0:96:b3:8e:fd:f6:85:
                    28:05:d7:77:fc:0f:39:63:11:d1:2f:5c:1b:c8:f0:
                    00:a9:1f:ca:33:13:0f:7d:4d:c4:ae:f6:8f:23:bc:
                    ff:cf:7c:f8:8f:d6:7d:98:71:f9:1c:7a:a2:9b:70:
                    b5:e0:35:ae:2e:e5:04:68:dd:54:04:a3:c7:2d:52:
                    e4:5d:1b:62:a0:65:e2:5f:5e:58:d6:95:65:d6:6e:
                    e6:44:3a:0c:b7:40:d3:79:7e:b0:29:30:02:f6:68:
                    b1:b8:88:43:26:a4:c8:0b:01:c8:8c:ea:74:e9:aa:
                    ce:8f:4e:51:09:09:7c:4a:9c:3a:88:c4:0d:97:2a:
                    d0:ec:1f:f3:60:44:7d:2c:9a:73:58:f0:26:d5:3d:
                    08:cb:2b:35:40:82:7c:8c:34:02:2c:73:81:78:7e:
                    04:e4:89:81:b0:63:c1:bb:7f:43:33:a3:65:dd:20:
                    2f:1f
                Exponent: 65537 (0x10001)
        X509v3 extensions:
            X509v3 Basic Constraints: 
                CA:FALSE
            X509v3 Subject Key Identifier: 
                98:EB:CF:E4:10:22:E4:83:2F:59:B1:4F:B1:80:2D:4A:15:DE:72:95
            X509v3 Authority Key Identifier: 
                keyid:8B:DF:C8:6B:10:5C:6C:35:F7:15:B4:D2:FD:94:BB:95:5A:22:1C:14
                DirName:/CN=team406-net
                serial:73:62:68:1C:8D:60:DE:DC:AC:B1:20:92:F3:24:9C:57:9C:FE:E5:05
            X509v3 Extended Key Usage: 
                TLS Web Server Authentication
            X509v3 Key Usage: 
                Digital Signature, Key Encipherment
            X509v3 Subject Alternative Name: 
                DNS:team406-server
    Signature Algorithm: sha256WithRSAEncryption
    Signature Value:
        9c:96:78:7c:2d:01:b4:df:44:48:a3:cb:22:4c:e9:4a:a7:7a:
        ab:fc:58:71:b2:f3:e0:7c:3b:5d:1d:38:73:74:49:9c:c2:9f:
        25:2c:9f:f1:2a:97:53:0d:3f:22:41:ba:e8:c9:a7:57:eb:fe:
        3c:32:51:f7:b4:74:2e:51:18:bc:50:16:57:d0:69:11:e0:45:
        3d:ab:a3:16:93:b6:6e:2d:ce:68:f9:8e:b7:9f:50:5e:12:1e:
        32:04:93:6e:0e:e4:62:ae:34:6e:63:7b:93:65:18:1c:34:dd:
        9a:0c:89:e7:9a:8c:61:7d:03:33:cb:fb:ed:10:81:5a:af:9e:
        b7:dc:c6:c5:45:c3:58:a2:38:a5:64:17:50:bd:9c:6a:25:e7:
        35:1a:8b:7a:14:ce:8a:90:d7:fe:3b:a1:66:6c:c1:fb:27:83:
        7c:0c:9f:36:09:2c:b5:0a:5a:bc:78:35:89:e7:d6:b3:d3:27:
        cc:b7:06:20:6b:71:ff:a3:07:2b:7d:47:97:18:5c:b4:f7:b8:
        32:a1:2a:91:d0:de:60:54:29:7e:2c:2a:44:24:9c:96:29:56:
        85:42:7c:0b:3a:a0:88:1a:a0:ec:df:94:a7:d7:40:d1:c2:d8:
        ef:1a:8a:df:71:1f:82:b5:28:2f:9a:ae:77:0b:e1:46:d9:65:
        c3:ca:91:b1
-----BEGIN CERTIFICATE-----
MIIDeDCCAmCgAwIBAgIRAK5+ZeikYvEbSCIJv4UuXxkwDQYJKoZIhvcNAQELBQAw
FjEUMBIGA1UEAwwLdGVhbTQwNi1uZXQwHhcNMjMxMTAzMjA0NjM1WhcNMjYxMDE4
MjA0NjM1WjAZMRcwFQYDVQQDDA50ZWFtNDA2LXNlcnZlcjCCASIwDQYJKoZIhvcN
AQEBBQADggEPADCCAQoCggEBAPre21fuQWHnZR8DqlMIcvR7HAi+MIL4T2GJYZvf
tzJFwbIAb4S2sisGh+ivoGF/3NeQHJ+pKm8bipeYySM8BjtRZXTYQWB2pGbaTnwQ
OfURSvfglrOO/faFKAXXd/wPOWMR0S9cG8jwAKkfyjMTD31NxK72jyO8/898+I/W
fZhx+Rx6optwteA1ri7lBGjdVASjxy1S5F0bYqBl4l9eWNaVZdZu5kQ6DLdA03l+
sCkwAvZosbiIQyakyAsByIzqdOmqzo9OUQkJfEqcOojEDZcq0Owf82BEfSyac1jw
JtU9CMsrNUCCfIw0AixzgXh+BOSJgbBjwbt/QzOjZd0gLx8CAwEAAaOBvTCBujAJ
BgNVHRMEAjAAMB0GA1UdDgQWBBSY68/kECLkgy9ZsU+xgC1KFd5ylTBRBgNVHSME
SjBIgBSL38hrEFxsNfcVtNL9lLuVWiIcFKEapBgwFjEUMBIGA1UEAwwLdGVhbTQw
Ni1uZXSCFHNiaByNYN7crLEgkvMknFec/uUFMBMGA1UdJQQMMAoGCCsGAQUFBwMB
MAsGA1UdDwQEAwIFoDAZBgNVHREEEjAQgg50ZWFtNDA2LXNlcnZlcjANBgkqhkiG
9w0BAQsFAAOCAQEAnJZ4fC0BtN9ESKPLIkzpSqd6q/xYcbLz4Hw7XR04c3RJnMKf
JSyf8SqXUw0/IkG66MmnV+v+PDJR97R0LlEYvFAWV9BpEeBFPaujFpO2bi3OaPmO
t59QXhIeMgSTbg7kYq40bmN7k2UYHDTdmgyJ55qMYX0DM8v77RCBWq+et9zGxUXD
WKI4pWQXUL2caiXnNRqLehTOipDX/juhZmzB+yeDfAyfNgkstQpavHg1iefWs9Mn
zLcGIGtx/6MHK31HlxhctPe4MqEqkdDeYFQpfiwqRCSclilWhUJ8CzqgiBqg7N+U
p9dA0cLY7xqK33EfgrUoL5qudwvhRtllw8qRsQ==
-----END CERTIFICATE-----
