Certificate:
    Data:
        Version: 3 (0x2)
        Serial Number:
            c1:b9:df:44:d1:ec:8b:66:ca:65:6f:3a:26:81:47:1c
        Signature Algorithm: sha256WithRSAEncryption
        Issuer: CN=team406-net
        Validity
            Not Before: Nov  4 11:36:38 2023 GMT
            Not After : Oct 19 11:36:38 2026 GMT
        Subject: CN=team406-server
        Subject Public Key Info:
            Public Key Algorithm: rsaEncryption
                Public-Key: (2048 bit)
                Modulus:
                    00:bd:bb:ee:1c:8f:05:c9:4f:0d:ce:f2:6c:ef:e7:
                    c7:d7:8e:5b:ea:77:b4:e3:a8:a8:00:b9:0d:b1:80:
                    53:a7:74:53:94:12:ca:fe:a1:0a:df:43:ea:39:aa:
                    ad:5c:22:6a:23:b4:fa:6a:29:14:36:bc:c5:c8:f4:
                    ac:22:f4:dd:1b:e5:17:85:b3:09:36:aa:bf:e1:da:
                    66:00:f9:55:90:23:27:56:8a:71:22:37:4f:ed:62:
                    2b:e4:ce:b4:b5:26:75:c0:4d:e0:38:08:3c:31:f1:
                    84:09:18:55:51:cd:bc:33:5e:00:88:94:42:06:8b:
                    0a:9e:e9:7e:9e:34:ed:8e:b2:48:da:3a:e3:50:48:
                    31:cf:d4:0c:8b:04:00:82:d1:75:a5:e1:34:39:75:
                    ce:b9:32:71:1a:f5:79:57:14:1f:9f:d0:cd:59:aa:
                    b3:3d:a9:7c:6f:5f:77:a5:42:06:b1:f5:97:83:98:
                    d7:2a:a8:f7:18:52:4c:41:2a:6c:54:dc:f9:3b:49:
                    36:18:22:6c:ef:5f:cc:c7:af:1b:64:4d:08:b7:4c:
                    d1:34:ce:e2:b3:da:b5:0c:78:8b:b2:31:3e:e9:f2:
                    10:63:19:f6:d6:07:1f:51:ad:c8:85:e4:81:63:eb:
                    2c:66:07:6c:e9:da:d5:d9:34:31:cd:61:90:87:fe:
                    6c:31
                Exponent: 65537 (0x10001)
        X509v3 extensions:
            X509v3 Basic Constraints: 
                CA:FALSE
            X509v3 Subject Key Identifier: 
                B2:FE:8D:0C:45:AA:50:F3:F1:DD:58:28:22:2B:4E:AC:FC:D6:13:99
            X509v3 Authority Key Identifier: 
                keyid:32:5F:6E:03:53:CB:41:C2:17:48:6A:6D:CF:21:40:C9:42:D0:CD:CC
                DirName:/CN=team406-net
                serial:7B:8B:33:97:F1:29:27:84:DF:22:44:AD:0D:20:0F:4D:00:D3:FA:D1
            X509v3 Extended Key Usage: 
                TLS Web Server Authentication
            X509v3 Key Usage: 
                Digital Signature, Key Encipherment
            X509v3 Subject Alternative Name: 
                DNS:team406-server
    Signature Algorithm: sha256WithRSAEncryption
    Signature Value:
        60:19:89:82:ca:5f:b0:0d:17:3e:83:13:4f:46:fa:c1:ff:5c:
        93:1a:ba:ef:80:54:5e:3a:2d:8a:b3:28:56:14:a6:8d:8e:2d:
        ca:7d:96:12:d6:ac:6d:48:5d:a2:02:2d:f9:6c:b7:0d:0a:20:
        b2:40:93:7e:a8:08:70:5f:7d:6c:0b:ef:6c:49:97:0e:ab:4e:
        e6:13:f5:11:37:a0:80:cf:ad:cd:dd:01:b0:22:80:08:cc:03:
        ef:00:cc:ad:2e:1c:c7:83:f0:45:03:d8:e1:05:ef:78:3b:89:
        50:be:ee:dd:2e:9d:d7:93:fd:57:11:b7:a9:0c:00:19:71:b7:
        b1:6d:47:88:63:71:22:c3:e0:a8:a3:d5:81:1f:89:a6:31:43:
        2e:51:93:d8:5b:bb:64:60:ce:a3:99:ae:87:a8:88:33:22:31:
        d8:55:f9:cd:7d:cc:ab:c2:90:c9:0b:68:6d:62:f8:2f:ae:d8:
        33:03:62:8b:d5:f3:60:2c:67:77:8f:5d:a9:42:32:a9:51:51:
        24:38:bc:18:7e:f4:6d:e9:f1:bb:f3:09:38:c3:4d:87:c4:3d:
        25:99:bf:6f:ec:8d:94:55:7c:26:57:7e:bc:b9:29:8a:5a:5d:
        f4:89:3d:c4:77:8d:fd:8d:2c:4e:c6:1e:84:3c:68:f3:05:c2:
        cc:60:43:2c
-----BEGIN CERTIFICATE-----
MIIDeDCCAmCgAwIBAgIRAMG530TR7ItmymVvOiaBRxwwDQYJKoZIhvcNAQELBQAw
FjEUMBIGA1UEAwwLdGVhbTQwNi1uZXQwHhcNMjMxMTA0MTEzNjM4WhcNMjYxMDE5
MTEzNjM4WjAZMRcwFQYDVQQDDA50ZWFtNDA2LXNlcnZlcjCCASIwDQYJKoZIhvcN
AQEBBQADggEPADCCAQoCggEBAL277hyPBclPDc7ybO/nx9eOW+p3tOOoqAC5DbGA
U6d0U5QSyv6hCt9D6jmqrVwiaiO0+mopFDa8xcj0rCL03RvlF4WzCTaqv+HaZgD5
VZAjJ1aKcSI3T+1iK+TOtLUmdcBN4DgIPDHxhAkYVVHNvDNeAIiUQgaLCp7pfp40
7Y6ySNo641BIMc/UDIsEAILRdaXhNDl1zrkycRr1eVcUH5/QzVmqsz2pfG9fd6VC
BrH1l4OY1yqo9xhSTEEqbFTc+TtJNhgibO9fzMevG2RNCLdM0TTO4rPatQx4i7Ix
PunyEGMZ9tYHH1GtyIXkgWPrLGYHbOna1dk0Mc1hkIf+bDECAwEAAaOBvTCBujAJ
BgNVHRMEAjAAMB0GA1UdDgQWBBSy/o0MRapQ8/HdWCgiK06s/NYTmTBRBgNVHSME
SjBIgBQyX24DU8tBwhdIam3PIUDJQtDNzKEapBgwFjEUMBIGA1UEAwwLdGVhbTQw
Ni1uZXSCFHuLM5fxKSeE3yJErQ0gD00A0/rRMBMGA1UdJQQMMAoGCCsGAQUFBwMB
MAsGA1UdDwQEAwIFoDAZBgNVHREEEjAQgg50ZWFtNDA2LXNlcnZlcjANBgkqhkiG
9w0BAQsFAAOCAQEAYBmJgspfsA0XPoMTT0b6wf9ckxq674BUXjotirMoVhSmjY4t
yn2WEtasbUhdogIt+Wy3DQogskCTfqgIcF99bAvvbEmXDqtO5hP1ETeggM+tzd0B
sCKACMwD7wDMrS4cx4PwRQPY4QXveDuJUL7u3S6d15P9VxG3qQwAGXG3sW1HiGNx
IsPgqKPVgR+JpjFDLlGT2Fu7ZGDOo5muh6iIMyIx2FX5zX3Mq8KQyQtobWL4L67Y
MwNii9XzYCxnd49dqUIyqVFRJDi8GH70benxu/MJOMNNh8Q9JZm/b+yNlFV8Jld+
vLkpilpd9Ik9xHeN/Y0sTsYehDxo8wXCzGBDLA==
-----END CERTIFICATE-----
