Certificate:
    Data:
        Version: 3 (0x2)
        Serial Number:
            dc:22:69:cd:e3:2c:9a:2d:28:29:ee:a8:67:2c:45:db
        Signature Algorithm: sha256WithRSAEncryption
        Issuer: CN=team406-net
        Validity
            Not Before: Nov  4 11:36:37 2023 GMT
            Not After : Oct 19 11:36:37 2026 GMT
        Subject: CN=team406-client
        Subject Public Key Info:
            Public Key Algorithm: rsaEncryption
                Public-Key: (2048 bit)
                Modulus:
                    00:c6:25:5f:ae:85:70:d0:03:d2:88:18:37:88:f0:
                    cf:e2:f0:d9:53:cf:bd:36:55:1a:ed:86:40:e0:4b:
                    b9:03:74:d2:2d:6b:35:2d:5a:01:db:db:63:69:c1:
                    48:da:f9:ea:a8:9a:4b:b5:76:a5:39:da:4e:82:57:
                    46:93:20:7f:3a:c4:eb:ac:17:a4:8c:87:69:0c:94:
                    47:93:05:ef:cb:c0:a7:31:74:9c:3b:e8:a6:4e:b9:
                    6b:18:42:e3:03:33:a7:8e:77:29:ec:37:e3:fa:71:
                    fe:64:5f:1c:77:83:0f:59:ad:11:09:8c:79:23:5c:
                    bf:9e:63:ab:e8:67:05:61:fc:c0:ff:6d:59:5a:1e:
                    b5:08:a9:70:9c:c3:51:c8:4d:f6:36:ce:a4:d2:99:
                    60:63:33:5c:1f:37:4c:15:e6:09:f0:c2:58:49:1f:
                    b0:34:fc:d3:5e:e9:25:3b:89:5c:fd:f9:d4:28:9e:
                    80:71:7d:5d:38:36:99:55:19:02:08:6e:55:c6:ff:
                    18:a5:88:cf:75:0e:76:66:d0:6d:fd:f6:79:d7:03:
                    f6:e5:a8:6b:b4:0a:8a:73:fe:7c:e2:d1:f2:12:b6:
                    42:99:3b:76:62:e1:e7:3b:33:ae:fb:a9:89:3f:d8:
                    6b:4a:6a:a0:c9:d2:87:e6:fe:e4:64:13:76:2b:36:
                    73:99
                Exponent: 65537 (0x10001)
        X509v3 extensions:
            X509v3 Basic Constraints: 
                CA:FALSE
            X509v3 Subject Key Identifier: 
                EE:C9:43:DD:1A:43:C9:D4:8F:55:E1:EF:40:C6:0B:BD:EF:27:AF:05
            X509v3 Authority Key Identifier: 
                keyid:32:5F:6E:03:53:CB:41:C2:17:48:6A:6D:CF:21:40:C9:42:D0:CD:CC
                DirName:/CN=team406-net
                serial:7B:8B:33:97:F1:29:27:84:DF:22:44:AD:0D:20:0F:4D:00:D3:FA:D1
            X509v3 Extended Key Usage: 
                TLS Web Client Authentication
            X509v3 Key Usage: 
                Digital Signature
    Signature Algorithm: sha256WithRSAEncryption
    Signature Value:
        51:19:7e:ae:06:c8:38:2b:12:60:7c:4f:a8:3f:92:85:b8:9d:
        6b:40:24:42:53:5e:8b:66:1c:6b:cc:24:d6:f7:a6:61:9c:74:
        97:71:75:b4:fb:7e:ee:98:4f:17:8e:70:b2:fb:92:a9:fc:ed:
        df:cf:72:60:14:9a:7d:0b:54:ac:7b:44:da:4d:db:c2:42:f9:
        5b:0f:af:89:82:ec:e4:2c:25:4a:e3:8b:c6:90:64:c0:ac:81:
        15:97:2f:3b:3e:54:aa:14:63:2b:77:f1:21:66:9e:bc:f1:96:
        d9:95:ca:eb:c8:04:5e:c1:e4:c2:2d:7e:29:9d:3b:5d:07:f1:
        b7:53:f1:52:a8:42:ae:08:0e:67:e2:f2:35:91:29:b6:04:0d:
        2a:b9:cf:63:c7:3e:63:47:fe:47:21:06:84:71:ae:63:68:62:
        c7:0a:fa:c7:eb:47:c0:89:ba:5e:d1:6d:cc:e9:6a:d0:8b:7e:
        0b:e3:59:d9:c3:b5:06:3a:23:9b:df:43:15:1c:cc:70:52:56:
        e9:49:2a:6b:29:8f:71:3a:22:81:73:83:b3:c7:9b:ac:5f:08:
        15:c4:33:35:92:b6:d9:75:92:86:0c:22:90:b1:b5:8f:5d:62:
        17:bb:36:6e:e4:a9:e5:66:6b:8e:38:88:b1:1c:8b:d4:ca:47:
        2e:03:61:be
-----BEGIN CERTIFICATE-----
MIIDXTCCAkWgAwIBAgIRANwiac3jLJotKCnuqGcsRdswDQYJKoZIhvcNAQELBQAw
FjEUMBIGA1UEAwwLdGVhbTQwNi1uZXQwHhcNMjMxMTA0MTEzNjM3WhcNMjYxMDE5
MTEzNjM3WjAZMRcwFQYDVQQDDA50ZWFtNDA2LWNsaWVudDCCASIwDQYJKoZIhvcN
AQEBBQADggEPADCCAQoCggEBAMYlX66FcNAD0ogYN4jwz+Lw2VPPvTZVGu2GQOBL
uQN00i1rNS1aAdvbY2nBSNr56qiaS7V2pTnaToJXRpMgfzrE66wXpIyHaQyUR5MF
78vApzF0nDvopk65axhC4wMzp453Kew34/px/mRfHHeDD1mtEQmMeSNcv55jq+hn
BWH8wP9tWVoetQipcJzDUchN9jbOpNKZYGMzXB83TBXmCfDCWEkfsDT8017pJTuJ
XP351CiegHF9XTg2mVUZAghuVcb/GKWIz3UOdmbQbf32edcD9uWoa7QKinP+fOLR
8hK2Qpk7dmLh5zszrvupiT/Ya0pqoMnSh+b+5GQTdis2c5kCAwEAAaOBojCBnzAJ
BgNVHRMEAjAAMB0GA1UdDgQWBBTuyUPdGkPJ1I9V4e9Axgu97yevBTBRBgNVHSME
SjBIgBQyX24DU8tBwhdIam3PIUDJQtDNzKEapBgwFjEUMBIGA1UEAwwLdGVhbTQw
Ni1uZXSCFHuLM5fxKSeE3yJErQ0gD00A0/rRMBMGA1UdJQQMMAoGCCsGAQUFBwMC
MAsGA1UdDwQEAwIHgDANBgkqhkiG9w0BAQsFAAOCAQEAURl+rgbIOCsSYHxPqD+S
hbida0AkQlNei2Yca8wk1vemYZx0l3F1tPt+7phPF45wsvuSqfzt389yYBSafQtU
rHtE2k3bwkL5Ww+viYLs5CwlSuOLxpBkwKyBFZcvOz5UqhRjK3fxIWaevPGW2ZXK
68gEXsHkwi1+KZ07XQfxt1PxUqhCrggOZ+LyNZEptgQNKrnPY8c+Y0f+RyEGhHGu
Y2hixwr6x+tHwIm6XtFtzOlq0It+C+NZ2cO1Bjojm99DFRzMcFJW6UkqaymPcToi
gXODs8ebrF8IFcQzNZK22XWShgwikLG1j11iF7s2buSp5WZrjjiIsRyL1MpHLgNh
vg==
-----END CERTIFICATE-----
