Certificate:
    Data:
        Version: 3 (0x2)
        Serial Number:
            03:62:aa:6d:7e:06:21:d1:bc:12:36:b8:31:09:f2:b3
        Signature Algorithm: sha256WithRSAEncryption
        Issuer: CN=team208-net
        Validity
            Not Before: Nov  4 11:31:43 2023 GMT
            Not After : Oct 19 11:31:43 2026 GMT
        Subject: CN=team208-server
        Subject Public Key Info:
            Public Key Algorithm: rsaEncryption
                Public-Key: (2048 bit)
                Modulus:
                    00:e3:15:bd:20:ac:d4:e7:e3:84:a6:b3:d1:56:a2:
                    d7:2d:3b:4a:fe:91:bb:ac:45:f6:80:75:7d:2b:46:
                    1a:13:03:e5:06:c9:bb:7e:64:26:45:54:e9:1c:7c:
                    9d:39:b1:8d:3b:a9:d0:88:56:54:bb:d2:0f:cc:f9:
                    8e:69:72:13:8e:4e:a3:f9:a6:f0:be:dc:c0:25:4d:
                    8a:02:51:1e:95:de:55:2a:63:ba:fc:4d:ea:4e:6f:
                    c6:9e:f0:80:f9:61:8a:23:f0:3c:87:ee:8d:6d:66:
                    1b:07:ff:a0:33:f9:cb:c2:88:7d:30:a5:f0:4e:5f:
                    24:52:a8:fc:1d:a7:b5:35:6e:0c:da:32:5d:81:70:
                    30:07:9c:7c:56:cb:fa:bb:18:0c:50:8a:2f:46:22:
                    a1:ee:2b:52:da:c4:0b:de:ca:53:d6:71:6c:e3:46:
                    b0:f2:ac:a3:56:7a:4a:58:9e:cf:be:24:01:1e:38:
                    6e:87:ab:d7:54:45:1f:d9:50:ec:90:bf:de:9d:33:
                    8d:fc:d1:70:c3:20:2f:06:cd:4f:2c:f4:67:ac:ba:
                    ee:b2:a7:ff:f9:52:2a:be:97:14:21:08:c5:f7:7d:
                    13:7c:43:d4:cf:1f:a8:a5:04:38:e2:58:dd:5c:5c:
                    98:d5:7f:c4:08:d7:ea:10:a9:9d:09:ab:a9:77:e4:
                    31:81
                Exponent: 65537 (0x10001)
        X509v3 extensions:
            X509v3 Basic Constraints: 
                CA:FALSE
            X509v3 Subject Key Identifier: 
                27:DA:43:9E:DE:4D:E2:D0:94:9F:B7:49:80:83:32:A9:77:C4:F7:74
            X509v3 Authority Key Identifier: 
                keyid:2B:83:BE:F9:E4:83:0F:F3:5A:95:DD:85:FA:8B:EF:71:C5:88:DE:7C
                DirName:/CN=team208-net
                serial:0D:2D:CC:D4:0B:1F:7E:D6:6D:A8:9E:78:AC:F8:55:68:74:55:03:BD
            X509v3 Extended Key Usage: 
                TLS Web Server Authentication
            X509v3 Key Usage: 
                Digital Signature, Key Encipherment
            X509v3 Subject Alternative Name: 
                DNS:team208-server
    Signature Algorithm: sha256WithRSAEncryption
    Signature Value:
        0c:4c:c9:2a:94:b7:22:aa:2b:dd:b2:97:6e:4b:75:ee:d6:46:
        4b:d9:33:04:48:c1:02:ea:e7:de:b6:c3:e5:f6:3a:1d:81:15:
        df:b3:b7:99:53:a4:25:4a:f2:f4:21:ec:d1:ed:7f:ba:36:2a:
        ab:dc:ff:7c:f6:ea:9a:75:7f:34:1d:41:e5:4c:76:b9:51:a1:
        74:72:13:ca:eb:da:b0:a5:12:3b:92:5a:2d:bf:b8:eb:18:7d:
        7f:e1:29:6a:14:41:e5:21:2c:b7:58:5a:6a:d5:2f:7c:f7:9b:
        88:b8:7e:d9:8c:de:73:8e:86:d6:19:a9:7b:2c:b2:98:de:96:
        c2:d5:1a:97:ab:d8:7c:78:31:07:e1:6c:7b:c9:0a:9a:d4:e1:
        e2:f5:9d:42:bb:d5:03:57:a7:0b:a3:94:8b:ef:99:5e:30:86:
        cf:c1:96:18:cb:88:e1:3f:4c:97:71:66:de:83:49:ab:2f:d5:
        c8:72:ce:aa:ee:8e:6d:6c:b0:92:91:36:a9:04:c6:bb:b3:46:
        67:84:f7:4b:63:c1:5e:ee:b8:8f:2d:84:31:a9:ce:4a:9e:1c:
        9d:9f:88:76:6a:d9:27:08:4c:7f:29:3d:60:ad:83:81:46:10:
        3a:e3:b3:4b:12:5b:fc:d3:75:21:ae:5a:ee:79:31:16:55:f7:
        fa:49:ec:db
-----BEGIN CERTIFICATE-----
MIIDdzCCAl+gAwIBAgIQA2KqbX4GIdG8Eja4MQnyszANBgkqhkiG9w0BAQsFADAW
MRQwEgYDVQQDDAt0ZWFtMjA4LW5ldDAeFw0yMzExMDQxMTMxNDNaFw0yNjEwMTkx
MTMxNDNaMBkxFzAVBgNVBAMMDnRlYW0yMDgtc2VydmVyMIIBIjANBgkqhkiG9w0B
AQEFAAOCAQ8AMIIBCgKCAQEA4xW9IKzU5+OEprPRVqLXLTtK/pG7rEX2gHV9K0Ya
EwPlBsm7fmQmRVTpHHydObGNO6nQiFZUu9IPzPmOaXITjk6j+abwvtzAJU2KAlEe
ld5VKmO6/E3qTm/GnvCA+WGKI/A8h+6NbWYbB/+gM/nLwoh9MKXwTl8kUqj8Hae1
NW4M2jJdgXAwB5x8Vsv6uxgMUIovRiKh7itS2sQL3spT1nFs40aw8qyjVnpKWJ7P
viQBHjhuh6vXVEUf2VDskL/enTON/NFwwyAvBs1PLPRnrLrusqf/+VIqvpcUIQjF
930TfEPUzx+opQQ44ljdXFyY1X/ECNfqEKmdCaupd+QxgQIDAQABo4G9MIG6MAkG
A1UdEwQCMAAwHQYDVR0OBBYEFCfaQ57eTeLQlJ+3SYCDMql3xPd0MFEGA1UdIwRK
MEiAFCuDvvnkgw/zWpXdhfqL73HFiN58oRqkGDAWMRQwEgYDVQQDDAt0ZWFtMjA4
LW5ldIIUDS3M1AsfftZtqJ54rPhVaHRVA70wEwYDVR0lBAwwCgYIKwYBBQUHAwEw
CwYDVR0PBAQDAgWgMBkGA1UdEQQSMBCCDnRlYW0yMDgtc2VydmVyMA0GCSqGSIb3
DQEBCwUAA4IBAQAMTMkqlLciqivdspduS3Xu1kZL2TMESMEC6ufetsPl9jodgRXf
s7eZU6QlSvL0IezR7X+6Niqr3P989uqadX80HUHlTHa5UaF0chPK69qwpRI7klot
v7jrGH1/4SlqFEHlISy3WFpq1S9895uIuH7ZjN5zjobWGal7LLKY3pbC1RqXq9h8
eDEH4Wx7yQqa1OHi9Z1Cu9UDV6cLo5SL75leMIbPwZYYy4jhP0yXcWbeg0mrL9XI
cs6q7o5tbLCSkTapBMa7s0ZnhPdLY8Fe7riPLYQxqc5Knhydn4h2atknCEx/KT1g
rYOBRhA647NLElv803UhrlrueTEWVff6Sezb
-----END CERTIFICATE-----
