Certificate:
    Data:
        Version: 3 (0x2)
        Serial Number:
            87:84:ce:27:44:8a:72:2a:f8:b0:31:77:26:bc:59:9e
        Signature Algorithm: sha256WithRSAEncryption
        Issuer: CN=team208-net
        Validity
            Not Before: Nov  4 10:44:30 2023 GMT
            Not After : Oct 19 10:44:30 2026 GMT
        Subject: CN=team208-server
        Subject Public Key Info:
            Public Key Algorithm: rsaEncryption
                Public-Key: (2048 bit)
                Modulus:
                    00:b2:a0:54:00:00:a7:31:f5:b3:ee:40:66:21:f8:
                    85:e5:4c:c3:1d:88:46:20:b0:6c:28:cf:70:c6:5b:
                    a3:0f:c5:17:0e:7d:02:d2:70:77:a1:bb:84:14:1d:
                    d9:ad:e3:79:ca:f7:42:9f:35:20:2a:f4:3b:04:a6:
                    75:ae:e8:61:6e:9a:bb:65:35:9f:02:bf:6d:3a:9b:
                    7b:11:1a:65:aa:9d:42:39:f0:b7:3d:c8:28:86:9d:
                    c5:bc:62:37:30:be:e1:d3:08:bd:ad:f6:1f:55:74:
                    d0:d8:88:d9:5d:f3:32:e8:30:8f:5a:31:1e:fc:7c:
                    09:f2:73:b8:0e:eb:5b:f5:c3:c6:a5:4c:9d:6d:c9:
                    ae:09:4f:9f:ad:5c:8e:4a:a4:ce:23:86:ef:d0:ab:
                    b2:12:c7:40:3a:bd:14:36:82:40:a8:6d:01:f6:49:
                    b7:7c:ab:23:03:ce:dd:a1:c3:1f:ac:be:4a:33:b1:
                    6d:3c:4f:f0:0b:d9:ea:ea:74:4a:80:f4:05:c4:4e:
                    88:7b:2a:49:81:33:43:39:9a:cd:22:68:bf:6f:99:
                    0d:71:fa:89:9a:07:38:2b:29:ce:7b:79:5f:d2:be:
                    a8:b8:0a:7e:fb:75:fe:45:6d:cd:d0:f8:2a:36:13:
                    04:e5:55:ae:f7:9d:3a:58:71:e8:e3:5e:96:3d:ae:
                    5e:75
                Exponent: 65537 (0x10001)
        X509v3 extensions:
            X509v3 Basic Constraints: 
                CA:FALSE
            X509v3 Subject Key Identifier: 
                D9:87:22:0C:B1:71:B9:BC:C2:70:98:B9:63:88:C6:66:96:42:3A:B0
            X509v3 Authority Key Identifier: 
                keyid:7B:E1:57:55:86:96:B7:6C:7B:C3:8B:64:D0:A4:B0:BA:7A:D0:82:C6
                DirName:/CN=team208-net
                serial:6E:16:69:0C:1D:B4:06:C0:7F:FE:4E:B4:EB:D2:F0:62:B1:0A:B8:DC
            X509v3 Extended Key Usage: 
                TLS Web Server Authentication
            X509v3 Key Usage: 
                Digital Signature, Key Encipherment
            X509v3 Subject Alternative Name: 
                DNS:team208-server
    Signature Algorithm: sha256WithRSAEncryption
    Signature Value:
        50:99:86:49:1d:b9:54:5b:08:b0:34:92:c4:c5:1d:76:0b:c0:
        25:23:e7:77:a8:48:97:8a:61:e9:e8:b6:e5:77:48:71:0c:2c:
        e3:29:f5:03:6c:9a:d4:3b:c2:4e:3e:6a:c4:14:b8:aa:2d:d2:
        30:e7:15:de:ea:a8:d6:1f:f6:63:d5:78:12:07:bf:88:22:2c:
        4a:b5:e2:34:6d:4f:86:65:18:08:43:53:51:f7:51:a8:ce:93:
        79:5d:f9:94:6c:96:ca:fd:ec:f4:c1:a2:2b:8a:3b:db:2d:23:
        d1:e3:d3:30:8c:69:97:46:c7:ab:d4:6c:ed:20:e2:0b:dc:18:
        25:d2:77:28:0a:ec:73:b5:d7:4d:c7:3d:d7:44:a1:52:2a:9f:
        e4:c3:38:c3:d7:12:70:ba:7f:d7:01:68:0c:82:7b:db:24:d1:
        ff:51:78:f0:9b:09:d8:5d:72:2f:f1:b4:3d:9d:f4:bb:9f:b8:
        ca:33:3f:0e:b9:5b:45:9c:46:76:a2:7a:1e:6f:87:47:72:13:
        22:f2:97:b6:bf:fc:c2:29:83:26:b8:b5:0b:13:3c:c2:13:ae:
        3f:77:7e:bc:88:a7:d1:55:28:43:c9:08:5f:4e:87:3a:37:93:
        b7:be:2b:2c:03:c5:3d:a7:32:cc:ed:32:d0:a9:4b:9c:c7:fa:
        ee:9d:3d:bc
-----BEGIN CERTIFICATE-----
MIIDeDCCAmCgAwIBAgIRAIeEzidEinIq+LAxdya8WZ4wDQYJKoZIhvcNAQELBQAw
FjEUMBIGA1UEAwwLdGVhbTIwOC1uZXQwHhcNMjMxMTA0MTA0NDMwWhcNMjYxMDE5
MTA0NDMwWjAZMRcwFQYDVQQDDA50ZWFtMjA4LXNlcnZlcjCCASIwDQYJKoZIhvcN
AQEBBQADggEPADCCAQoCggEBALKgVAAApzH1s+5AZiH4heVMwx2IRiCwbCjPcMZb
ow/FFw59AtJwd6G7hBQd2a3jecr3Qp81ICr0OwSmda7oYW6au2U1nwK/bTqbexEa
ZaqdQjnwtz3IKIadxbxiNzC+4dMIva32H1V00NiI2V3zMugwj1oxHvx8CfJzuA7r
W/XDxqVMnW3JrglPn61cjkqkziOG79CrshLHQDq9FDaCQKhtAfZJt3yrIwPO3aHD
H6y+SjOxbTxP8AvZ6up0SoD0BcROiHsqSYEzQzmazSJov2+ZDXH6iZoHOCspznt5
X9K+qLgKfvt1/kVtzdD4KjYTBOVVrvedOlhx6ONelj2uXnUCAwEAAaOBvTCBujAJ
BgNVHRMEAjAAMB0GA1UdDgQWBBTZhyIMsXG5vMJwmLljiMZmlkI6sDBRBgNVHSME
SjBIgBR74VdVhpa3bHvDi2TQpLC6etCCxqEapBgwFjEUMBIGA1UEAwwLdGVhbTIw
OC1uZXSCFG4WaQwdtAbAf/5OtOvS8GKxCrjcMBMGA1UdJQQMMAoGCCsGAQUFBwMB
MAsGA1UdDwQEAwIFoDAZBgNVHREEEjAQgg50ZWFtMjA4LXNlcnZlcjANBgkqhkiG
9w0BAQsFAAOCAQEAUJmGSR25VFsIsDSSxMUddgvAJSPnd6hIl4ph6ei25XdIcQws
4yn1A2ya1DvCTj5qxBS4qi3SMOcV3uqo1h/2Y9V4Ege/iCIsSrXiNG1PhmUYCENT
UfdRqM6TeV35lGyWyv3s9MGiK4o72y0j0ePTMIxpl0bHq9Rs7SDiC9wYJdJ3KArs
c7XXTcc910ShUiqf5MM4w9cScLp/1wFoDIJ72yTR/1F48JsJ2F1yL/G0PZ30u5+4
yjM/DrlbRZxGdqJ6Hm+HR3ITIvKXtr/8wimDJri1CxM8whOuP3d+vIin0VUoQ8kI
X06HOjeTt74rLAPFPacyzO0y0KlLnMf67p09vA==
-----END CERTIFICATE-----
