Certificate:
    Data:
        Version: 3 (0x2)
        Serial Number:
            cd:03:0a:91:53:e9:39:00:f9:85:fd:63:2e:55:b5:16
        Signature Algorithm: sha256WithRSAEncryption
        Issuer: CN=team208-net
        Validity
            Not Before: Nov  4 11:31:43 2023 GMT
            Not After : Oct 19 11:31:43 2026 GMT
        Subject: CN=team208-client
        Subject Public Key Info:
            Public Key Algorithm: rsaEncryption
                Public-Key: (2048 bit)
                Modulus:
                    00:a2:03:69:2b:be:7a:48:15:84:70:c4:7e:ce:c5:
                    6d:99:b2:aa:e2:7b:fb:75:46:8f:26:04:7a:de:83:
                    0f:83:4d:9b:22:6d:87:31:f3:64:6d:2a:aa:01:c8:
                    fc:88:09:0f:c5:11:17:b5:b9:9e:62:86:df:08:39:
                    94:6d:83:e6:e6:b1:e3:41:1b:c0:89:e9:14:aa:95:
                    5a:e9:b4:94:6a:d7:d4:37:61:ef:fb:ae:55:61:22:
                    5a:4c:90:72:35:c7:96:2e:e2:f4:08:ef:19:9e:48:
                    8e:35:46:6c:45:f1:83:75:c9:a7:f0:78:a1:b9:01:
                    7f:1b:05:1c:66:9f:08:75:f6:4b:2a:53:85:94:ce:
                    a5:90:1f:9f:72:6b:6f:2b:7a:46:a0:ec:17:5d:31:
                    88:d0:d3:d4:2b:1d:22:d2:98:a8:ab:2b:f2:71:9a:
                    63:97:51:91:26:59:8c:6c:bb:13:c2:74:42:b6:95:
                    6b:63:a5:d0:06:f9:7f:29:1f:f6:64:5d:03:46:3a:
                    44:42:9f:a3:34:ad:cf:ef:5e:2a:51:ac:37:8a:85:
                    71:a3:aa:95:04:b2:f0:6d:15:ea:5c:de:06:54:2e:
                    cf:c9:2d:a8:ae:c4:66:1d:84:f9:6b:51:a2:43:38:
                    a0:6b:bf:68:fa:ad:e3:28:5d:ae:07:fe:75:d4:30:
                    b5:47
                Exponent: 65537 (0x10001)
        X509v3 extensions:
            X509v3 Basic Constraints: 
                CA:FALSE
            X509v3 Subject Key Identifier: 
                8D:86:C7:CE:3D:0C:36:B8:0E:7A:B8:8E:7A:F6:10:8E:E6:EF:0F:76
            X509v3 Authority Key Identifier: 
                keyid:2B:83:BE:F9:E4:83:0F:F3:5A:95:DD:85:FA:8B:EF:71:C5:88:DE:7C
                DirName:/CN=team208-net
                serial:0D:2D:CC:D4:0B:1F:7E:D6:6D:A8:9E:78:AC:F8:55:68:74:55:03:BD
            X509v3 Extended Key Usage: 
                TLS Web Client Authentication
            X509v3 Key Usage: 
                Digital Signature
    Signature Algorithm: sha256WithRSAEncryption
    Signature Value:
        1f:af:0d:2b:7e:d0:d4:33:92:10:2b:a9:91:0d:1c:4a:24:4e:
        39:05:7e:a1:0e:d4:55:56:09:95:b0:6c:fe:5d:be:7b:f7:ab:
        14:2c:c5:66:05:0e:90:82:13:13:d3:ed:e5:ed:c3:b6:78:75:
        24:31:d1:cb:92:b2:bc:f7:49:6f:26:8e:22:7d:38:3d:2e:26:
        ef:48:6d:43:8f:c5:7b:c8:bb:e0:ad:26:24:9e:aa:70:5e:52:
        b4:19:9f:ba:f5:91:5b:90:19:57:c2:9c:79:45:33:c4:4e:8d:
        f7:b3:8d:3b:91:f0:87:f7:06:b0:ef:41:34:30:7d:e0:71:57:
        e7:63:e8:e6:e7:53:00:44:26:74:7b:46:c4:35:90:a7:50:3a:
        37:0c:05:7d:28:08:36:e3:0a:32:99:77:b0:dc:52:4f:67:1e:
        39:2b:ab:41:35:ec:f4:d9:15:6c:df:18:be:4a:57:33:14:f2:
        d5:bc:c2:be:ac:39:d0:c8:bf:c3:d9:eb:5d:43:1d:37:81:3d:
        78:52:99:08:dc:5d:eb:9e:46:6f:d4:fe:3d:5f:07:bd:0b:e7:
        69:4e:8a:93:a3:bf:8a:b6:77:c6:9e:9f:ef:d3:10:de:b0:f0:
        58:5e:82:09:08:27:45:d9:32:0d:c2:d2:e7:01:50:5b:11:68:
        72:d9:37:1e
-----BEGIN CERTIFICATE-----
MIIDXTCCAkWgAwIBAgIRAM0DCpFT6TkA+YX9Yy5VtRYwDQYJKoZIhvcNAQELBQAw
FjEUMBIGA1UEAwwLdGVhbTIwOC1uZXQwHhcNMjMxMTA0MTEzMTQzWhcNMjYxMDE5
MTEzMTQzWjAZMRcwFQYDVQQDDA50ZWFtMjA4LWNsaWVudDCCASIwDQYJKoZIhvcN
AQEBBQADggEPADCCAQoCggEBAKIDaSu+ekgVhHDEfs7FbZmyquJ7+3VGjyYEet6D
D4NNmyJthzHzZG0qqgHI/IgJD8URF7W5nmKG3wg5lG2D5uax40EbwInpFKqVWum0
lGrX1Ddh7/uuVWEiWkyQcjXHli7i9AjvGZ5IjjVGbEXxg3XJp/B4obkBfxsFHGaf
CHX2SypThZTOpZAfn3Jrbyt6RqDsF10xiNDT1CsdItKYqKsr8nGaY5dRkSZZjGy7
E8J0QraVa2Ol0Ab5fykf9mRdA0Y6REKfozStz+9eKlGsN4qFcaOqlQSy8G0V6lze
BlQuz8ktqK7EZh2E+WtRokM4oGu/aPqt4yhdrgf+ddQwtUcCAwEAAaOBojCBnzAJ
BgNVHRMEAjAAMB0GA1UdDgQWBBSNhsfOPQw2uA56uI569hCO5u8PdjBRBgNVHSME
SjBIgBQrg7755IMP81qV3YX6i+9xxYjefKEapBgwFjEUMBIGA1UEAwwLdGVhbTIw
OC1uZXSCFA0tzNQLH37WbaieeKz4VWh0VQO9MBMGA1UdJQQMMAoGCCsGAQUFBwMC
MAsGA1UdDwQEAwIHgDANBgkqhkiG9w0BAQsFAAOCAQEAH68NK37Q1DOSECupkQ0c
SiROOQV+oQ7UVVYJlbBs/l2+e/erFCzFZgUOkIITE9Pt5e3Dtnh1JDHRy5KyvPdJ
byaOIn04PS4m70htQ4/Fe8i74K0mJJ6qcF5StBmfuvWRW5AZV8KceUUzxE6N97ON
O5Hwh/cGsO9BNDB94HFX52Po5udTAEQmdHtGxDWQp1A6NwwFfSgINuMKMpl3sNxS
T2ceOSurQTXs9NkVbN8YvkpXMxTy1bzCvqw50Mi/w9nrXUMdN4E9eFKZCNxd655G
b9T+PV8HvQvnaU6Kk6O/irZ3xp6f79MQ3rDwWF6CCQgnRdkyDcLS5wFQWxFoctk3
Hg==
-----END CERTIFICATE-----
