Certificate:
    Data:
        Version: 3 (0x2)
        Serial Number:
            3a:83:e5:80:ba:c8:db:87:e0:3d:aa:dd:20:e9:a4:ce
        Signature Algorithm: sha256WithRSAEncryption
        Issuer: CN=team435-net
        Validity
            Not Before: Nov  3 20:47:09 2023 GMT
            Not After : Oct 18 20:47:09 2026 GMT
        Subject: CN=team435-server
        Subject Public Key Info:
            Public Key Algorithm: rsaEncryption
                Public-Key: (2048 bit)
                Modulus:
                    00:9e:2e:03:5c:95:b9:60:63:c5:c0:ab:a7:cc:c9:
                    00:86:a8:3d:17:a0:64:8c:ba:e7:36:e5:bf:3b:9c:
                    0a:4f:57:4e:91:6b:49:fc:47:b0:ac:ac:69:33:1e:
                    83:59:cb:8a:78:d3:52:40:0b:a2:69:ce:53:87:d7:
                    d8:df:33:e3:b9:36:e7:2a:6c:30:86:96:02:7f:73:
                    70:75:32:df:42:9d:9a:4e:ce:7a:8b:ab:7c:ca:8d:
                    27:38:44:48:b1:74:b2:8e:19:7f:c7:fb:de:07:a5:
                    be:43:7e:48:87:f2:62:9b:55:27:74:f2:43:df:73:
                    dc:bc:47:ff:50:79:b0:5f:07:de:4c:09:fb:d7:0b:
                    2c:a1:0e:33:9b:d2:45:7a:a0:7c:0d:4f:93:de:0b:
                    f5:d7:d4:a9:47:14:48:54:f3:c7:f1:f0:46:30:83:
                    7f:8d:41:cf:71:40:de:54:e5:56:26:11:b0:6b:96:
                    c0:1f:ec:e5:24:64:ed:12:a7:cb:56:71:5a:c9:99:
                    83:0d:fb:db:0a:52:66:e3:7c:af:08:ac:12:41:ab:
                    73:c0:e4:af:64:99:ee:6f:15:e9:e3:51:cd:4f:58:
                    69:0a:21:14:13:81:60:13:ec:30:43:c8:a3:81:d2:
                    4a:1d:29:0a:bf:68:db:76:c1:d1:10:8b:cd:9a:44:
                    c6:ff
                Exponent: 65537 (0x10001)
        X509v3 extensions:
            X509v3 Basic Constraints: 
                CA:FALSE
            X509v3 Subject Key Identifier: 
                FC:1F:D8:5C:BD:B2:D8:BB:62:EF:F3:49:F9:92:C8:CA:73:3A:FF:D5
            X509v3 Authority Key Identifier: 
                keyid:88:E5:A9:6A:84:64:B1:7B:1B:10:5C:31:BB:01:EB:C0:89:13:AC:07
                DirName:/CN=team435-net
                serial:77:B4:F9:23:B8:00:7D:60:5F:D6:6F:B4:8F:96:40:F2:FB:57:6E:5E
            X509v3 Extended Key Usage: 
                TLS Web Server Authentication
            X509v3 Key Usage: 
                Digital Signature, Key Encipherment
            X509v3 Subject Alternative Name: 
                DNS:team435-server
    Signature Algorithm: sha256WithRSAEncryption
    Signature Value:
        0e:bb:1e:98:4a:0c:f9:6d:7a:01:8c:e9:7c:5f:47:04:8b:9c:
        a8:f3:70:9a:0c:bd:7a:eb:26:b0:2e:33:9b:57:4b:bc:1d:12:
        98:dc:cf:2f:22:d1:2a:8c:83:ca:ed:84:45:8d:a7:c8:be:79:
        53:85:d1:58:3f:48:a0:cd:63:a7:90:ff:1f:a0:31:1c:1c:c8:
        8a:33:ee:1e:65:af:b0:97:b2:b7:64:a6:01:02:69:cc:41:f2:
        dc:1f:2b:76:46:39:53:55:1d:df:62:86:41:3a:02:04:47:3f:
        9e:65:d7:35:4c:cc:30:d2:4b:10:3a:f4:a9:82:86:e2:e6:2a:
        be:59:e5:1a:2d:ee:2b:c4:4c:f0:db:f6:2f:0f:d1:0f:10:41:
        26:24:97:bd:87:56:40:85:d0:11:89:54:a5:9a:bd:de:44:99:
        94:ec:b0:c3:a1:23:04:db:6f:51:00:88:2a:f7:24:9b:35:25:
        ed:d8:c7:cb:f8:18:75:1b:18:b0:c9:de:16:74:60:ca:43:39:
        6d:f8:81:e4:57:70:bd:87:b0:a0:c5:24:8a:b3:10:6b:42:cf:
        b2:95:40:e6:ba:fe:61:c2:6a:f5:cc:be:7a:fb:36:b7:9f:53:
        66:3f:d0:28:6e:33:5b:8a:b0:b9:75:3d:32:5d:8f:be:ed:e6:
        f2:c8:97:85
-----BEGIN CERTIFICATE-----
MIIDdzCCAl+gAwIBAgIQOoPlgLrI24fgPardIOmkzjANBgkqhkiG9w0BAQsFADAW
MRQwEgYDVQQDDAt0ZWFtNDM1LW5ldDAeFw0yMzExMDMyMDQ3MDlaFw0yNjEwMTgy
MDQ3MDlaMBkxFzAVBgNVBAMMDnRlYW00MzUtc2VydmVyMIIBIjANBgkqhkiG9w0B
AQEFAAOCAQ8AMIIBCgKCAQEAni4DXJW5YGPFwKunzMkAhqg9F6BkjLrnNuW/O5wK
T1dOkWtJ/EewrKxpMx6DWcuKeNNSQAuiac5Th9fY3zPjuTbnKmwwhpYCf3NwdTLf
Qp2aTs56i6t8yo0nOERIsXSyjhl/x/veB6W+Q35Ih/Jim1UndPJD33PcvEf/UHmw
XwfeTAn71wssoQ4zm9JFeqB8DU+T3gv119SpRxRIVPPH8fBGMIN/jUHPcUDeVOVW
JhGwa5bAH+zlJGTtEqfLVnFayZmDDfvbClJm43yvCKwSQatzwOSvZJnubxXp41HN
T1hpCiEUE4FgE+wwQ8ijgdJKHSkKv2jbdsHREIvNmkTG/wIDAQABo4G9MIG6MAkG
A1UdEwQCMAAwHQYDVR0OBBYEFPwf2Fy9sti7Yu/zSfmSyMpzOv/VMFEGA1UdIwRK
MEiAFIjlqWqEZLF7GxBcMbsB68CJE6wHoRqkGDAWMRQwEgYDVQQDDAt0ZWFtNDM1
LW5ldIIUd7T5I7gAfWBf1m+0j5ZA8vtXbl4wEwYDVR0lBAwwCgYIKwYBBQUHAwEw
CwYDVR0PBAQDAgWgMBkGA1UdEQQSMBCCDnRlYW00MzUtc2VydmVyMA0GCSqGSIb3
DQEBCwUAA4IBAQAOux6YSgz5bXoBjOl8X0cEi5yo83CaDL166yawLjObV0u8HRKY
3M8vItEqjIPK7YRFjafIvnlThdFYP0igzWOnkP8foDEcHMiKM+4eZa+wl7K3ZKYB
AmnMQfLcHyt2RjlTVR3fYoZBOgIERz+eZdc1TMww0ksQOvSpgobi5iq+WeUaLe4r
xEzw2/YvD9EPEEEmJJe9h1ZAhdARiVSlmr3eRJmU7LDDoSME229RAIgq9ySbNSXt
2MfL+Bh1Gxiwyd4WdGDKQzlt+IHkV3C9h7CgxSSKsxBrQs+ylUDmuv5hwmr1zL56
+za3n1NmP9AobjNbirC5dT0yXY++7ebyyJeF
-----END CERTIFICATE-----
