Certificate:
    Data:
        Version: 3 (0x2)
        Serial Number:
            48:b4:46:b5:87:94:22:7d:56:0a:48:17:92:51:62:65
        Signature Algorithm: sha256WithRSAEncryption
        Issuer: CN=team435-net
        Validity
            Not Before: Nov  4 10:48:27 2023 GMT
            Not After : Oct 19 10:48:27 2026 GMT
        Subject: CN=team435-server
        Subject Public Key Info:
            Public Key Algorithm: rsaEncryption
                Public-Key: (2048 bit)
                Modulus:
                    00:ad:bc:18:bc:c1:b2:e4:21:2f:50:53:4d:f4:58:
                    f4:29:16:b6:e0:88:47:f7:0c:ee:e3:58:4e:30:94:
                    f5:a7:89:cc:9f:d2:58:17:13:13:92:c0:da:c8:eb:
                    2a:62:8e:ff:e9:6e:20:a8:37:05:27:2e:bf:d8:4a:
                    b9:e4:be:bf:bd:47:7b:91:54:e3:e9:60:1e:74:a2:
                    b0:2e:fd:6a:99:ad:85:42:83:2d:1c:4e:95:27:db:
                    02:25:63:c2:5f:62:c9:02:11:a4:b6:b5:5a:1c:d7:
                    b5:c1:a4:34:dd:7f:43:ef:d1:10:bd:fc:72:71:9f:
                    66:b3:70:b4:9a:79:d6:01:57:e2:99:dd:46:56:b3:
                    ee:31:65:1c:53:be:63:dd:fe:8c:7b:15:a1:77:35:
                    5c:62:be:27:67:47:76:10:de:b6:dc:7a:80:62:c1:
                    2d:b2:30:01:7d:2b:f8:50:0d:94:b7:9c:2a:9c:21:
                    c2:5a:20:5e:87:68:33:e4:a1:5f:e8:62:bf:7d:92:
                    d8:d9:05:9d:6e:87:d6:a4:47:44:ce:67:39:1e:3e:
                    c5:fa:cb:99:bf:e7:53:37:9a:0d:73:4e:11:f8:51:
                    a7:4e:44:f4:96:be:e5:f8:99:3a:08:2c:84:22:97:
                    c0:66:cb:31:9f:68:43:b1:81:a8:78:ae:c0:d9:ce:
                    0e:23
                Exponent: 65537 (0x10001)
        X509v3 extensions:
            X509v3 Basic Constraints: 
                CA:FALSE
            X509v3 Subject Key Identifier: 
                E0:E5:BE:90:60:91:03:E5:A4:77:F0:61:10:D9:EC:12:8A:AC:83:0C
            X509v3 Authority Key Identifier: 
                keyid:28:B4:35:5F:AA:E3:1C:5D:26:F0:C7:56:09:DC:7A:56:64:E2:70:FA
                DirName:/CN=team435-net
                serial:3F:05:E4:C9:41:C0:4E:14:7D:D0:BC:76:DA:CD:6B:13:C2:5F:7B:87
            X509v3 Extended Key Usage: 
                TLS Web Server Authentication
            X509v3 Key Usage: 
                Digital Signature, Key Encipherment
            X509v3 Subject Alternative Name: 
                DNS:team435-server
    Signature Algorithm: sha256WithRSAEncryption
    Signature Value:
        08:20:ee:8a:9a:92:74:0a:cd:7b:f5:98:64:d6:1a:de:86:80:
        f1:2f:d2:48:84:97:b5:53:b8:03:b3:23:1e:66:0e:eb:e5:2a:
        67:44:9c:bf:59:fb:00:bf:61:8d:54:50:f0:5a:0d:b2:0d:d7:
        75:22:15:9d:11:35:46:73:f3:ad:ca:dc:f3:ee:3c:c4:5c:f7:
        61:3f:01:2f:56:57:e2:58:83:7d:59:3e:af:b7:63:82:f2:4e:
        32:f4:16:60:60:58:b0:5c:e5:8b:b9:c9:be:99:bc:f8:78:fd:
        d5:65:78:26:36:1d:09:69:16:4f:cd:40:11:1a:c6:81:44:37:
        7e:a1:15:7b:fb:ed:ce:7f:a9:8f:a5:94:3c:19:62:1b:0e:3a:
        64:6c:53:4b:c4:d0:63:c8:f1:b0:24:9d:94:02:a9:6d:08:68:
        3c:fb:74:36:fb:53:56:8a:39:e8:3f:78:e2:2b:8d:c1:58:7b:
        0f:24:d3:90:52:fa:5d:89:c5:1f:87:11:6c:9d:13:b8:ea:ca:
        b3:52:07:bf:6c:1d:67:93:d4:d9:1c:68:ac:d3:63:2e:07:37:
        27:e4:c2:65:e7:37:fb:72:3c:f2:81:b3:e2:22:6d:3d:1a:e9:
        80:f0:30:82:47:56:74:23:54:2c:48:b2:85:1d:17:fc:69:16:
        5f:36:30:c1
-----BEGIN CERTIFICATE-----
MIIDdzCCAl+gAwIBAgIQSLRGtYeUIn1WCkgXklFiZTANBgkqhkiG9w0BAQsFADAW
MRQwEgYDVQQDDAt0ZWFtNDM1LW5ldDAeFw0yMzExMDQxMDQ4MjdaFw0yNjEwMTkx
MDQ4MjdaMBkxFzAVBgNVBAMMDnRlYW00MzUtc2VydmVyMIIBIjANBgkqhkiG9w0B
AQEFAAOCAQ8AMIIBCgKCAQEArbwYvMGy5CEvUFNN9Fj0KRa24IhH9wzu41hOMJT1
p4nMn9JYFxMTksDayOsqYo7/6W4gqDcFJy6/2Eq55L6/vUd7kVTj6WAedKKwLv1q
ma2FQoMtHE6VJ9sCJWPCX2LJAhGktrVaHNe1waQ03X9D79EQvfxycZ9ms3C0mnnW
AVfimd1GVrPuMWUcU75j3f6MexWhdzVcYr4nZ0d2EN623HqAYsEtsjABfSv4UA2U
t5wqnCHCWiBeh2gz5KFf6GK/fZLY2QWdbofWpEdEzmc5Hj7F+suZv+dTN5oNc04R
+FGnTkT0lr7l+Jk6CCyEIpfAZssxn2hDsYGoeK7A2c4OIwIDAQABo4G9MIG6MAkG
A1UdEwQCMAAwHQYDVR0OBBYEFODlvpBgkQPlpHfwYRDZ7BKKrIMMMFEGA1UdIwRK
MEiAFCi0NV+q4xxdJvDHVgncelZk4nD6oRqkGDAWMRQwEgYDVQQDDAt0ZWFtNDM1
LW5ldIIUPwXkyUHAThR90Lx22s1rE8Jfe4cwEwYDVR0lBAwwCgYIKwYBBQUHAwEw
CwYDVR0PBAQDAgWgMBkGA1UdEQQSMBCCDnRlYW00MzUtc2VydmVyMA0GCSqGSIb3
DQEBCwUAA4IBAQAIIO6KmpJ0Cs179Zhk1hrehoDxL9JIhJe1U7gDsyMeZg7r5Spn
RJy/WfsAv2GNVFDwWg2yDdd1IhWdETVGc/Otytzz7jzEXPdhPwEvVlfiWIN9WT6v
t2OC8k4y9BZgYFiwXOWLucm+mbz4eP3VZXgmNh0JaRZPzUARGsaBRDd+oRV7++3O
f6mPpZQ8GWIbDjpkbFNLxNBjyPGwJJ2UAqltCGg8+3Q2+1NWijnoP3jiK43BWHsP
JNOQUvpdicUfhxFsnRO46sqzUge/bB1nk9TZHGis02MuBzcn5MJl5zf7cjzygbPi
Im09GumA8DCCR1Z0I1QsSLKFHRf8aRZfNjDB
-----END CERTIFICATE-----
