Certificate:
    Data:
        Version: 3 (0x2)
        Serial Number:
            9a:b9:5e:68:49:45:0b:a8:15:dd:c4:76:c7:04:32:1b
        Signature Algorithm: sha256WithRSAEncryption
        Issuer: CN=team435-net
        Validity
            Not Before: Nov  4 10:48:27 2023 GMT
            Not After : Oct 19 10:48:27 2026 GMT
        Subject: CN=team435-client
        Subject Public Key Info:
            Public Key Algorithm: rsaEncryption
                Public-Key: (2048 bit)
                Modulus:
                    00:a1:53:9f:c7:d2:ed:ed:f2:d9:2e:b9:76:25:ab:
                    8a:a9:13:46:4f:3e:82:1e:8b:28:c3:14:f6:f3:72:
                    48:f4:07:88:60:79:d7:f1:eb:12:51:f4:6b:1a:1e:
                    ab:d7:ce:c3:f5:5e:b7:81:c1:64:b5:18:53:f4:45:
                    83:28:70:90:f6:a3:a7:fc:34:f2:d5:d8:60:d2:ec:
                    c2:22:48:f7:a5:1b:a7:a3:1a:4d:f1:b6:f1:b0:07:
                    85:ef:d4:86:fd:d0:51:47:87:fc:a1:09:e0:0b:25:
                    8d:00:53:1e:73:8b:32:28:25:2c:1b:40:fc:d0:3a:
                    45:70:b4:af:33:58:04:9f:c4:de:45:8c:f0:a5:be:
                    2a:86:b8:13:21:a7:3b:f8:1a:1f:b8:bd:a5:ef:96:
                    98:be:1f:a5:cc:1c:77:3c:b9:a9:3d:9d:9d:56:69:
                    09:58:ad:bb:ed:07:63:7d:95:0d:66:ea:a8:e1:09:
                    6f:4b:f8:74:ff:63:3a:ff:78:53:b6:73:09:c1:90:
                    42:00:d2:46:86:2b:fd:77:af:ad:44:ba:2c:d1:cd:
                    3f:f8:90:1c:27:d6:d0:5f:d4:22:4b:42:b5:bd:4d:
                    1a:3d:21:c2:80:91:3b:90:ee:d2:b4:bb:79:f9:f2:
                    72:5b:cd:7e:ba:d9:47:95:dd:06:21:f4:92:90:84:
                    b8:c3
                Exponent: 65537 (0x10001)
        X509v3 extensions:
            X509v3 Basic Constraints: 
                CA:FALSE
            X509v3 Subject Key Identifier: 
                16:9F:83:B8:17:AE:8F:33:CC:03:4D:C9:86:FD:35:F7:F3:D5:EA:6D
            X509v3 Authority Key Identifier: 
                keyid:28:B4:35:5F:AA:E3:1C:5D:26:F0:C7:56:09:DC:7A:56:64:E2:70:FA
                DirName:/CN=team435-net
                serial:3F:05:E4:C9:41:C0:4E:14:7D:D0:BC:76:DA:CD:6B:13:C2:5F:7B:87
            X509v3 Extended Key Usage: 
                TLS Web Client Authentication
            X509v3 Key Usage: 
                Digital Signature
    Signature Algorithm: sha256WithRSAEncryption
    Signature Value:
        b5:64:bf:d8:38:a1:3f:90:22:6a:68:a3:04:8e:6d:a5:cc:55:
        ac:8f:7c:67:34:3e:69:9b:7d:61:ed:89:f0:59:c1:1d:bc:19:
        9a:3e:0f:38:af:72:e0:bd:8e:2e:16:9c:34:e8:18:ca:b3:a6:
        d3:3b:30:74:74:db:95:fb:40:49:80:89:3b:c1:ce:88:f8:90:
        4a:4d:2b:67:6b:a6:a2:de:b0:96:3c:d8:4f:ad:78:60:32:bc:
        41:49:b7:d6:2b:17:75:6c:56:22:11:92:a4:14:0e:53:ae:ce:
        2a:e2:4f:c2:df:ae:de:ac:97:b9:28:0c:03:17:9a:b2:33:d3:
        42:f8:09:fb:d3:1b:20:54:ad:51:72:40:86:2e:d8:19:f6:d3:
        1b:16:ba:03:59:9e:5c:2e:f8:79:77:86:59:01:17:f3:23:fb:
        81:09:f5:dd:4e:45:97:58:a5:69:c0:f8:37:d2:f5:dc:3f:57:
        5e:f4:f9:e9:96:2b:74:9c:39:6d:3e:16:6f:02:9d:d3:40:f1:
        98:8f:49:0a:cd:62:3d:de:39:11:5c:23:55:26:a4:6c:b9:63:
        aa:09:bb:7b:5d:a5:7b:35:b4:41:5c:7b:43:f2:41:27:d1:71:
        ad:23:e4:3c:d8:5a:81:9f:26:a1:32:0f:e7:a3:15:f2:75:ac:
        81:46:8f:11
-----BEGIN CERTIFICATE-----
MIIDXTCCAkWgAwIBAgIRAJq5XmhJRQuoFd3EdscEMhswDQYJKoZIhvcNAQELBQAw
FjEUMBIGA1UEAwwLdGVhbTQzNS1uZXQwHhcNMjMxMTA0MTA0ODI3WhcNMjYxMDE5
MTA0ODI3WjAZMRcwFQYDVQQDDA50ZWFtNDM1LWNsaWVudDCCASIwDQYJKoZIhvcN
AQEBBQADggEPADCCAQoCggEBAKFTn8fS7e3y2S65diWriqkTRk8+gh6LKMMU9vNy
SPQHiGB51/HrElH0axoeq9fOw/Vet4HBZLUYU/RFgyhwkPajp/w08tXYYNLswiJI
96Ubp6MaTfG28bAHhe/Uhv3QUUeH/KEJ4AsljQBTHnOLMiglLBtA/NA6RXC0rzNY
BJ/E3kWM8KW+Koa4EyGnO/gaH7i9pe+WmL4fpcwcdzy5qT2dnVZpCVitu+0HY32V
DWbqqOEJb0v4dP9jOv94U7ZzCcGQQgDSRoYr/XevrUS6LNHNP/iQHCfW0F/UIktC
tb1NGj0hwoCRO5Du0rS7efnyclvNfrrZR5XdBiH0kpCEuMMCAwEAAaOBojCBnzAJ
BgNVHRMEAjAAMB0GA1UdDgQWBBQWn4O4F66PM8wDTcmG/TX389XqbTBRBgNVHSME
SjBIgBQotDVfquMcXSbwx1YJ3HpWZOJw+qEapBgwFjEUMBIGA1UEAwwLdGVhbTQz
NS1uZXSCFD8F5MlBwE4UfdC8dtrNaxPCX3uHMBMGA1UdJQQMMAoGCCsGAQUFBwMC
MAsGA1UdDwQEAwIHgDANBgkqhkiG9w0BAQsFAAOCAQEAtWS/2DihP5AiamijBI5t
pcxVrI98ZzQ+aZt9Ye2J8FnBHbwZmj4POK9y4L2OLhacNOgYyrOm0zswdHTblftA
SYCJO8HOiPiQSk0rZ2umot6wljzYT614YDK8QUm31isXdWxWIhGSpBQOU67OKuJP
wt+u3qyXuSgMAxeasjPTQvgJ+9MbIFStUXJAhi7YGfbTGxa6A1meXC74eXeGWQEX
8yP7gQn13U5Fl1ilacD4N9L13D9XXvT56ZYrdJw5bT4WbwKd00DxmI9JCs1iPd45
EVwjVSakbLljqgm7e12lezW0QVx7Q/JBJ9FxrSPkPNhagZ8moTIP56MV8nWsgUaP
EQ==
-----END CERTIFICATE-----
