Certificate:
    Data:
        Version: 3 (0x2)
        Serial Number:
            d9:9f:3c:84:ac:08:20:76:84:bc:dd:39:a9:1f:d7
        Signature Algorithm: sha256WithRSAEncryption
        Issuer: CN=team435-net
        Validity
            Not Before: Nov  4 11:37:13 2023 GMT
            Not After : Oct 19 11:37:13 2026 GMT
        Subject: CN=team435-server
        Subject Public Key Info:
            Public Key Algorithm: rsaEncryption
                Public-Key: (2048 bit)
                Modulus:
                    00:a2:c0:eb:38:ed:ce:bc:b4:26:e0:a4:ac:05:9e:
                    de:5e:04:a5:6b:4c:fa:d3:9c:c7:d4:b4:28:81:c7:
                    90:75:16:00:4a:09:94:fe:f1:b1:a8:a4:ae:70:ac:
                    67:2f:64:a1:60:a2:91:6f:2d:0d:ec:b5:e4:68:6b:
                    6f:46:3f:32:31:c1:03:8e:f1:b2:4c:02:b3:5b:86:
                    a5:81:10:04:75:26:32:07:44:71:fa:ae:8a:c2:4d:
                    df:94:74:4a:12:74:23:e2:49:91:c6:82:df:42:69:
                    1d:32:4b:17:08:53:a5:42:48:ed:4f:97:7d:f3:1a:
                    c3:7f:e9:1c:77:4a:40:77:bf:78:7a:26:1f:b9:fd:
                    06:f1:d0:ac:09:36:af:a2:78:fa:dd:bd:2f:f2:3c:
                    a0:e0:d6:54:5f:a6:9e:5f:86:5a:56:cc:71:9b:a3:
                    b1:68:8f:e9:d0:10:ce:47:51:3b:4c:5e:94:db:1c:
                    99:de:ea:d8:37:a8:94:b6:3c:2c:0f:67:8f:b8:fb:
                    28:44:1a:6a:d2:a4:69:31:4d:4b:41:10:55:c9:7a:
                    51:2b:f5:14:99:7f:38:bd:71:21:9f:3c:03:cb:d8:
                    a2:e4:ce:43:67:aa:f4:f4:20:cd:33:a4:30:82:b3:
                    10:41:55:7e:f0:a5:c6:9c:fe:b3:7b:66:66:fd:97:
                    ae:d3
                Exponent: 65537 (0x10001)
        X509v3 extensions:
            X509v3 Basic Constraints: 
                CA:FALSE
            X509v3 Subject Key Identifier: 
                13:4C:E1:C7:C4:0A:0F:9A:91:C3:98:7C:D1:F8:15:0C:66:D6:E9:CD
            X509v3 Authority Key Identifier: 
                keyid:C0:D3:25:31:17:43:0B:B8:A5:E1:E0:53:2C:2A:53:EB:20:55:67:B3
                DirName:/CN=team435-net
                serial:6B:DF:0C:E2:7A:EA:0F:6F:A3:38:8C:A0:C7:B6:E7:1D:89:0C:F7:B2
            X509v3 Extended Key Usage: 
                TLS Web Server Authentication
            X509v3 Key Usage: 
                Digital Signature, Key Encipherment
            X509v3 Subject Alternative Name: 
                DNS:team435-server
    Signature Algorithm: sha256WithRSAEncryption
    Signature Value:
        0d:bf:e9:f2:69:a3:4f:8f:67:5e:e1:c5:38:02:d1:3f:fa:00:
        e5:3a:09:9b:6e:3f:dd:35:b9:99:f1:bc:9b:60:2f:30:27:cb:
        bd:f3:97:da:26:6f:c2:86:66:1d:d3:01:29:76:5e:24:57:aa:
        9a:d0:1e:0e:2a:3f:84:9c:26:fa:cd:ae:be:8d:b9:13:1d:d8:
        6b:4b:66:a0:7b:77:ed:c1:6d:df:7f:d6:79:b8:0d:5d:7b:ec:
        14:96:04:fb:3d:76:42:40:06:28:60:09:35:d5:d8:9d:dd:c5:
        55:e2:66:a7:9c:a4:49:7d:e9:05:5f:8c:90:2e:6e:ec:9d:0b:
        a4:db:a4:a4:4a:60:e3:a9:ca:3f:a6:cf:27:78:59:05:f0:da:
        11:6c:29:55:3b:7b:2a:17:27:4b:72:e3:2a:13:1e:82:2d:e3:
        38:81:34:76:c3:bd:9f:0a:01:9a:fe:17:b9:8e:56:00:1c:47:
        35:01:db:db:78:02:7c:09:a9:84:ae:0c:23:af:bb:6a:db:b8:
        f0:0d:c2:5a:6c:5f:8f:9d:fd:cb:fd:89:ed:f7:05:f5:96:32:
        93:92:92:10:6d:22:4e:72:21:01:d7:8c:83:cc:8f:a0:5a:5b:
        ef:a3:5b:cc:b4:f3:77:82:9c:3a:5d:a5:6f:1b:10:3f:ad:78:
        5a:b6:8e:f6
-----BEGIN CERTIFICATE-----
MIIDdzCCAl+gAwIBAgIQANmfPISsCCB2hLzdOakf1zANBgkqhkiG9w0BAQsFADAW
MRQwEgYDVQQDDAt0ZWFtNDM1LW5ldDAeFw0yMzExMDQxMTM3MTNaFw0yNjEwMTkx
MTM3MTNaMBkxFzAVBgNVBAMMDnRlYW00MzUtc2VydmVyMIIBIjANBgkqhkiG9w0B
AQEFAAOCAQ8AMIIBCgKCAQEAosDrOO3OvLQm4KSsBZ7eXgSla0z605zH1LQogceQ
dRYASgmU/vGxqKSucKxnL2ShYKKRby0N7LXkaGtvRj8yMcEDjvGyTAKzW4algRAE
dSYyB0Rx+q6Kwk3flHRKEnQj4kmRxoLfQmkdMksXCFOlQkjtT5d98xrDf+kcd0pA
d794eiYfuf0G8dCsCTavonj63b0v8jyg4NZUX6aeX4ZaVsxxm6OxaI/p0BDOR1E7
TF6U2xyZ3urYN6iUtjwsD2ePuPsoRBpq0qRpMU1LQRBVyXpRK/UUmX84vXEhnzwD
y9ii5M5DZ6r09CDNM6QwgrMQQVV+8KXGnP6ze2Zm/Zeu0wIDAQABo4G9MIG6MAkG
A1UdEwQCMAAwHQYDVR0OBBYEFBNM4cfECg+akcOYfNH4FQxm1unNMFEGA1UdIwRK
MEiAFMDTJTEXQwu4peHgUywqU+sgVWezoRqkGDAWMRQwEgYDVQQDDAt0ZWFtNDM1
LW5ldIIUa98M4nrqD2+jOIygx7bnHYkM97IwEwYDVR0lBAwwCgYIKwYBBQUHAwEw
CwYDVR0PBAQDAgWgMBkGA1UdEQQSMBCCDnRlYW00MzUtc2VydmVyMA0GCSqGSIb3
DQEBCwUAA4IBAQANv+nyaaNPj2de4cU4AtE/+gDlOgmbbj/dNbmZ8bybYC8wJ8u9
85faJm/ChmYd0wEpdl4kV6qa0B4OKj+EnCb6za6+jbkTHdhrS2age3ftwW3ff9Z5
uA1de+wUlgT7PXZCQAYoYAk11did3cVV4mannKRJfekFX4yQLm7snQuk26SkSmDj
qco/ps8neFkF8NoRbClVO3sqFydLcuMqEx6CLeM4gTR2w72fCgGa/he5jlYAHEc1
AdvbeAJ8CamErgwjr7tq27jwDcJabF+Pnf3L/Ynt9wX1ljKTkpIQbSJOciEB14yD
zI+gWlvvo1vMtPN3gpw6XaVvGxA/rXhato72
-----END CERTIFICATE-----
