Certificate:
    Data:
        Version: 3 (0x2)
        Serial Number:
            0a:ad:22:cb:e2:5b:fd:07:08:f8:c5:45:26:0f:79:b1
        Signature Algorithm: sha256WithRSAEncryption
        Issuer: CN=team401-net
        Validity
            Not Before: Nov  4 10:47:52 2023 GMT
            Not After : Oct 19 10:47:52 2026 GMT
        Subject: CN=team401-server
        Subject Public Key Info:
            Public Key Algorithm: rsaEncryption
                Public-Key: (2048 bit)
                Modulus:
                    00:a3:6b:cc:a8:56:4e:cc:cf:cf:d6:e0:fc:ab:2d:
                    88:c7:ea:ed:42:72:d6:ba:8a:64:d6:25:dc:46:2d:
                    35:f8:70:c6:56:22:9a:2d:19:6c:3c:2f:5e:e3:5d:
                    1a:15:be:f1:23:89:31:e0:b8:c0:5f:37:8b:81:38:
                    1b:36:6a:8d:60:32:46:59:68:da:34:70:b0:50:f1:
                    00:9e:fb:a3:7e:e8:3a:87:b7:85:81:d0:1d:db:d9:
                    34:d2:7a:95:43:29:42:ea:88:0b:28:39:75:e0:57:
                    3e:13:f3:a5:ec:40:90:a1:d3:f8:c5:6b:ee:09:13:
                    37:3d:30:d4:0f:14:1a:e6:13:3f:e5:b5:83:8b:cc:
                    e3:3f:24:ce:cd:f8:45:57:61:12:84:91:43:0b:59:
                    50:c5:71:34:6e:7e:a9:72:68:6b:2e:51:3f:7d:90:
                    57:4a:5b:5b:e2:12:a4:d7:a3:4d:b2:fe:f8:57:03:
                    34:9d:55:e1:e9:4d:ba:4b:5c:a4:49:79:84:f3:c9:
                    80:1f:30:96:42:44:14:0e:df:e0:e2:83:09:07:f2:
                    ad:68:41:42:e9:02:ba:c1:4d:60:57:16:3f:1a:a7:
                    92:4f:fb:13:de:ee:e0:7c:c6:7b:72:7c:af:59:83:
                    82:b0:13:52:8f:e7:41:d7:2c:ad:26:9d:47:80:e6:
                    2b:71
                Exponent: 65537 (0x10001)
        X509v3 extensions:
            X509v3 Basic Constraints: 
                CA:FALSE
            X509v3 Subject Key Identifier: 
                88:85:41:11:A1:19:10:8A:47:0F:BF:A5:CB:4B:F9:B5:6E:A5:B3:7F
            X509v3 Authority Key Identifier: 
                keyid:CB:CD:7A:43:9D:77:5E:87:DB:0E:EC:4B:FA:27:52:86:B5:2D:A7:FD
                DirName:/CN=team401-net
                serial:01:07:AB:F8:91:E9:42:B6:39:0D:72:14:74:37:10:D7:5B:71:D1:53
            X509v3 Extended Key Usage: 
                TLS Web Server Authentication
            X509v3 Key Usage: 
                Digital Signature, Key Encipherment
            X509v3 Subject Alternative Name: 
                DNS:team401-server
    Signature Algorithm: sha256WithRSAEncryption
    Signature Value:
        87:af:2f:f6:17:ba:ee:84:ba:5f:02:ea:bf:ee:37:63:b1:ea:
        33:27:55:23:d8:86:73:b7:cf:8a:1f:e9:4d:d8:4e:39:88:b9:
        5d:7f:60:9f:75:0d:bb:22:db:b6:ed:64:17:a8:f1:78:fa:7e:
        9e:e8:e1:b3:25:22:5f:73:37:5f:a2:b8:7a:69:56:32:8d:39:
        60:c8:7f:6e:c1:11:3b:6e:ca:fe:7b:af:35:15:84:ca:b5:84:
        9a:67:3b:9c:34:05:8e:91:6f:d4:aa:0a:67:e9:52:e5:d3:aa:
        2e:2e:b7:e2:58:e2:22:9a:04:3a:84:c2:be:58:40:7b:e1:99:
        0b:f3:f8:72:61:68:4e:82:a4:ed:53:f0:e9:08:ec:9f:88:44:
        90:ea:d9:95:db:71:6c:8c:30:17:5d:e0:b1:97:e2:66:94:d5:
        8d:ad:32:1b:e5:a1:35:5e:ba:18:0a:12:e4:e9:3e:83:15:aa:
        e1:74:dd:04:6b:cb:19:2e:b7:8d:85:72:1b:a3:00:28:7d:72:
        64:d5:d7:54:3f:e8:cf:8f:bd:2b:00:52:9a:53:f3:93:29:f2:
        38:47:fb:51:87:c9:ed:3f:63:5d:c3:c8:ef:07:b1:ab:69:fc:
        38:ee:cf:d6:6c:a1:78:55:c5:e7:f4:92:76:f9:07:ff:0a:d8:
        1d:1c:b8:21
-----BEGIN CERTIFICATE-----
MIIDdzCCAl+gAwIBAgIQCq0iy+Jb/QcI+MVFJg95sTANBgkqhkiG9w0BAQsFADAW
MRQwEgYDVQQDDAt0ZWFtNDAxLW5ldDAeFw0yMzExMDQxMDQ3NTJaFw0yNjEwMTkx
MDQ3NTJaMBkxFzAVBgNVBAMMDnRlYW00MDEtc2VydmVyMIIBIjANBgkqhkiG9w0B
AQEFAAOCAQ8AMIIBCgKCAQEAo2vMqFZOzM/P1uD8qy2Ix+rtQnLWuopk1iXcRi01
+HDGViKaLRlsPC9e410aFb7xI4kx4LjAXzeLgTgbNmqNYDJGWWjaNHCwUPEAnvuj
fug6h7eFgdAd29k00nqVQylC6ogLKDl14Fc+E/Ol7ECQodP4xWvuCRM3PTDUDxQa
5hM/5bWDi8zjPyTOzfhFV2EShJFDC1lQxXE0bn6pcmhrLlE/fZBXSltb4hKk16NN
sv74VwM0nVXh6U26S1ykSXmE88mAHzCWQkQUDt/g4oMJB/KtaEFC6QK6wU1gVxY/
GqeST/sT3u7gfMZ7cnyvWYOCsBNSj+dB1yytJp1HgOYrcQIDAQABo4G9MIG6MAkG
A1UdEwQCMAAwHQYDVR0OBBYEFIiFQRGhGRCKRw+/pctL+bVupbN/MFEGA1UdIwRK
MEiAFMvNekOdd16H2w7sS/onUoa1Laf9oRqkGDAWMRQwEgYDVQQDDAt0ZWFtNDAx
LW5ldIIUAQer+JHpQrY5DXIUdDcQ11tx0VMwEwYDVR0lBAwwCgYIKwYBBQUHAwEw
CwYDVR0PBAQDAgWgMBkGA1UdEQQSMBCCDnRlYW00MDEtc2VydmVyMA0GCSqGSIb3
DQEBCwUAA4IBAQCHry/2F7ruhLpfAuq/7jdjseozJ1Uj2IZzt8+KH+lN2E45iLld
f2CfdQ27Itu27WQXqPF4+n6e6OGzJSJfczdforh6aVYyjTlgyH9uwRE7bsr+e681
FYTKtYSaZzucNAWOkW/Uqgpn6VLl06ouLrfiWOIimgQ6hMK+WEB74ZkL8/hyYWhO
gqTtU/DpCOyfiESQ6tmV23FsjDAXXeCxl+JmlNWNrTIb5aE1XroYChLk6T6DFarh
dN0Ea8sZLreNhXIbowAofXJk1ddUP+jPj70rAFKaU/OTKfI4R/tRh8ntP2Ndw8jv
B7Grafw47s/WbKF4VcXn9JJ2+Qf/CtgdHLgh
-----END CERTIFICATE-----
