Certificate:
    Data:
        Version: 3 (0x2)
        Serial Number:
            2a:31:db:b6:35:86:53:e1:ba:c5:6c:a2:ff:c2:87:fa
        Signature Algorithm: sha256WithRSAEncryption
        Issuer: CN=team401-net
        Validity
            Not Before: Nov  4 11:36:32 2023 GMT
            Not After : Oct 19 11:36:32 2026 GMT
        Subject: CN=team401-client
        Subject Public Key Info:
            Public Key Algorithm: rsaEncryption
                Public-Key: (2048 bit)
                Modulus:
                    00:b0:98:e8:b8:eb:49:c9:0b:a4:54:97:9f:fd:f9:
                    c7:d5:76:db:f0:d2:66:4b:76:0f:97:df:8b:b4:1a:
                    f9:bb:ff:24:7c:06:49:44:97:23:a6:77:d5:0c:a3:
                    c4:f7:fc:91:5f:05:32:52:38:c5:15:8a:43:65:56:
                    4e:00:8f:1a:2e:a9:2e:75:31:00:19:c4:76:a7:d5:
                    c3:d6:cf:de:00:bb:82:29:7b:9b:2d:0d:6c:d8:d3:
                    9e:6b:a0:38:4c:13:ee:61:bf:1f:50:09:0d:a5:7a:
                    75:45:4f:19:82:cd:96:a7:9c:72:08:99:f5:b6:15:
                    e4:99:15:66:c3:cd:fc:10:72:85:d4:c7:e6:79:9e:
                    84:da:6a:52:36:b2:e1:e9:30:c2:c9:b5:79:ba:18:
                    29:7e:04:81:10:09:68:62:ba:c3:bd:c3:ca:a5:d2:
                    9e:f8:12:80:89:9e:29:64:c3:63:4b:5b:16:63:d8:
                    36:e5:dc:b2:a0:d9:7c:9a:d3:ed:9b:02:b7:40:97:
                    64:c5:be:89:88:f6:45:e4:b3:be:ea:69:c1:35:87:
                    1a:e9:07:a2:63:70:10:3c:7e:1f:23:27:9e:b8:75:
                    33:33:b2:d3:a2:d4:6c:5f:c9:14:cc:a7:ac:7d:ad:
                    e3:4f:24:7b:3e:be:ab:39:09:ec:1f:9c:9d:68:c1:
                    7a:8b
                Exponent: 65537 (0x10001)
        X509v3 extensions:
            X509v3 Basic Constraints: 
                CA:FALSE
            X509v3 Subject Key Identifier: 
                06:5B:70:A7:D3:B6:76:A4:0F:26:FE:63:F4:45:EE:8B:13:F5:CC:28
            X509v3 Authority Key Identifier: 
                keyid:D7:13:2D:D2:AC:BF:46:2C:25:38:46:20:31:74:F0:C5:62:AF:43:67
                DirName:/CN=team401-net
                serial:08:25:7A:C2:ED:1E:E9:33:3F:E6:3D:99:34:30:02:D9:60:71:22:08
            X509v3 Extended Key Usage: 
                TLS Web Client Authentication
            X509v3 Key Usage: 
                Digital Signature
    Signature Algorithm: sha256WithRSAEncryption
    Signature Value:
        53:33:35:e1:88:7d:51:15:10:aa:6e:99:2b:ba:e5:ce:0d:3f:
        08:d4:1b:86:00:03:64:b5:31:44:22:98:ee:d5:7d:88:6c:3c:
        af:57:f8:c0:83:dc:f3:21:12:f0:ca:04:15:30:fd:82:7f:f7:
        a7:9d:bd:66:92:ad:91:dd:c1:76:70:66:dd:13:92:8b:b5:e9:
        35:fe:e0:60:18:c9:a4:32:4c:95:2a:90:03:9f:a3:ce:2e:13:
        be:7a:25:56:7d:45:96:2f:6b:5a:d9:71:11:18:9e:f5:9e:37:
        5b:89:84:a9:a9:45:67:db:af:27:32:70:c9:6e:be:d0:46:e2:
        76:6c:18:66:39:a4:fa:1c:58:25:72:8c:21:86:5a:ff:87:98:
        d7:a3:84:08:2b:e7:00:1c:a1:8f:a6:bb:40:14:89:c0:c8:c5:
        41:1d:af:a6:e2:e8:c1:7e:6c:fe:c2:7d:2c:33:cf:94:c1:fa:
        a2:15:0a:fa:a1:0b:ff:e1:44:fa:b6:7e:92:90:42:02:a1:6f:
        de:81:ad:7c:ca:f3:6b:86:44:68:8b:1e:f6:f0:e3:1c:14:80:
        87:b0:ae:14:54:e4:48:d9:46:d6:ae:4b:2e:00:f5:97:64:46:
        cf:ad:d2:73:22:73:44:a9:d5:ac:7c:f4:2e:e1:4a:ef:ce:b0:
        92:22:83:6b
-----BEGIN CERTIFICATE-----
MIIDXDCCAkSgAwIBAgIQKjHbtjWGU+G6xWyi/8KH+jANBgkqhkiG9w0BAQsFADAW
MRQwEgYDVQQDDAt0ZWFtNDAxLW5ldDAeFw0yMzExMDQxMTM2MzJaFw0yNjEwMTkx
MTM2MzJaMBkxFzAVBgNVBAMMDnRlYW00MDEtY2xpZW50MIIBIjANBgkqhkiG9w0B
AQEFAAOCAQ8AMIIBCgKCAQEAsJjouOtJyQukVJef/fnH1Xbb8NJmS3YPl9+LtBr5
u/8kfAZJRJcjpnfVDKPE9/yRXwUyUjjFFYpDZVZOAI8aLqkudTEAGcR2p9XD1s/e
ALuCKXubLQ1s2NOea6A4TBPuYb8fUAkNpXp1RU8Zgs2Wp5xyCJn1thXkmRVmw838
EHKF1MfmeZ6E2mpSNrLh6TDCybV5uhgpfgSBEAloYrrDvcPKpdKe+BKAiZ4pZMNj
S1sWY9g25dyyoNl8mtPtmwK3QJdkxb6JiPZF5LO+6mnBNYca6QeiY3AQPH4fIyee
uHUzM7LTotRsX8kUzKesfa3jTyR7Pr6rOQnsH5ydaMF6iwIDAQABo4GiMIGfMAkG
A1UdEwQCMAAwHQYDVR0OBBYEFAZbcKfTtnakDyb+Y/RF7osT9cwoMFEGA1UdIwRK
MEiAFNcTLdKsv0YsJThGIDF08MVir0NnoRqkGDAWMRQwEgYDVQQDDAt0ZWFtNDAx
LW5ldIIUCCV6wu0e6TM/5j2ZNDAC2WBxIggwEwYDVR0lBAwwCgYIKwYBBQUHAwIw
CwYDVR0PBAQDAgeAMA0GCSqGSIb3DQEBCwUAA4IBAQBTMzXhiH1RFRCqbpkruuXO
DT8I1BuGAANktTFEIpju1X2IbDyvV/jAg9zzIRLwygQVMP2Cf/ennb1mkq2R3cF2
cGbdE5KLtek1/uBgGMmkMkyVKpADn6POLhO+eiVWfUWWL2ta2XERGJ71njdbiYSp
qUVn268nMnDJbr7QRuJ2bBhmOaT6HFglcowhhlr/h5jXo4QIK+cAHKGPprtAFInA
yMVBHa+m4ujBfmz+wn0sM8+UwfqiFQr6oQv/4UT6tn6SkEICoW/ega18yvNrhkRo
ix728OMcFICHsK4UVORI2UbWrksuAPWXZEbPrdJzInNEqdWsfPQu4UrvzrCSIoNr
-----END CERTIFICATE-----
