Certificate:
    Data:
        Version: 3 (0x2)
        Serial Number:
            9e:c6:ea:c5:1d:a4:cc:5c:0b:f4:36:db:66:66:d3:b6
        Signature Algorithm: sha256WithRSAEncryption
        Issuer: CN=team401-net
        Validity
            Not Before: Nov  4 10:47:52 2023 GMT
            Not After : Oct 19 10:47:52 2026 GMT
        Subject: CN=team401-client
        Subject Public Key Info:
            Public Key Algorithm: rsaEncryption
                Public-Key: (2048 bit)
                Modulus:
                    00:b2:5b:8a:6b:ca:26:a3:74:7a:9a:50:b7:cf:ae:
                    b2:cf:d8:a2:28:34:70:ac:58:a7:a7:7d:42:53:fc:
                    3a:47:f3:1a:85:66:ef:cc:cf:2c:51:52:2f:c7:2f:
                    3d:c6:35:8b:d6:6b:e7:82:55:ff:e3:82:b2:d6:3c:
                    35:8b:01:7f:65:d4:c9:47:d9:ab:1c:f0:bb:f0:9c:
                    b2:2d:d9:9c:84:1e:65:6e:51:dd:00:5b:e4:d9:8e:
                    0b:24:b7:4d:35:1e:e6:2d:e4:b2:08:6a:ce:d8:b2:
                    35:a0:9a:52:50:0c:58:01:69:26:5a:6c:2f:34:02:
                    6d:06:dd:55:63:fd:3c:b3:b3:02:37:9d:64:cc:c5:
                    51:ba:eb:e8:9e:78:d9:0f:1c:17:6d:a4:37:c5:2d:
                    2b:ec:c2:32:78:a1:a0:0d:72:cb:09:cc:5c:42:96:
                    2d:b2:59:d0:ff:4e:4c:45:1e:f4:44:9b:a8:18:74:
                    9a:f7:43:f2:0a:59:af:4d:5e:30:1b:10:28:fb:5b:
                    1e:36:6e:ba:de:82:cc:38:8c:e7:69:86:5f:23:47:
                    77:2a:3c:01:96:e2:16:38:fc:b6:b6:67:bf:f8:15:
                    9b:87:26:db:24:2a:f5:04:64:6f:50:7f:2b:a4:9e:
                    df:99:2d:59:ef:3e:71:ee:23:3a:54:21:49:11:ff:
                    ca:25
                Exponent: 65537 (0x10001)
        X509v3 extensions:
            X509v3 Basic Constraints: 
                CA:FALSE
            X509v3 Subject Key Identifier: 
                94:00:41:7F:49:A8:C4:01:0C:79:90:04:A8:E2:31:BA:B5:DB:76:43
            X509v3 Authority Key Identifier: 
                keyid:CB:CD:7A:43:9D:77:5E:87:DB:0E:EC:4B:FA:27:52:86:B5:2D:A7:FD
                DirName:/CN=team401-net
                serial:01:07:AB:F8:91:E9:42:B6:39:0D:72:14:74:37:10:D7:5B:71:D1:53
            X509v3 Extended Key Usage: 
                TLS Web Client Authentication
            X509v3 Key Usage: 
                Digital Signature
    Signature Algorithm: sha256WithRSAEncryption
    Signature Value:
        7a:31:6d:8f:66:e5:38:e2:82:02:58:53:fb:88:79:4d:2d:5a:
        15:21:81:3a:3e:35:a2:8c:a0:ed:65:2d:95:06:dd:43:79:2e:
        88:54:f3:6b:79:fd:76:bb:37:4b:a5:e4:b4:3b:95:75:2b:dd:
        36:c8:94:ea:73:de:31:b4:31:9a:5b:f7:c4:c1:2d:09:c1:0a:
        ae:57:83:6b:8b:43:4f:22:8e:80:f9:6e:d4:1b:d4:5f:07:3e:
        58:30:aa:bf:c7:ed:0f:42:fa:bc:b5:49:23:c8:5e:bf:d0:5f:
        79:e6:b2:a2:d6:ac:73:4b:ae:ce:d6:5e:43:dc:43:1a:4c:f9:
        77:1b:59:17:8e:a0:93:5d:b1:00:f1:9b:2e:b6:a1:9f:20:51:
        28:9b:12:31:b7:83:4c:84:b8:28:0d:69:25:21:70:c2:c5:da:
        a8:a5:08:56:61:a9:b4:7e:f8:04:6b:00:02:d9:b5:0a:2b:e4:
        4d:ab:58:e5:ec:af:af:1d:79:e7:c1:96:bc:09:c1:c8:e2:8a:
        25:f2:99:16:e8:0a:26:c1:ba:cc:72:61:b9:d8:4b:9f:1e:d6:
        13:fb:9d:58:46:cf:64:95:f3:a5:25:cc:26:33:d6:11:f6:bf:
        bb:43:82:d2:75:9f:ae:46:0d:50:0e:72:a5:47:d5:bd:b1:64:
        7c:a1:4f:a9
-----BEGIN CERTIFICATE-----
MIIDXTCCAkWgAwIBAgIRAJ7G6sUdpMxcC/Q222Zm07YwDQYJKoZIhvcNAQELBQAw
FjEUMBIGA1UEAwwLdGVhbTQwMS1uZXQwHhcNMjMxMTA0MTA0NzUyWhcNMjYxMDE5
MTA0NzUyWjAZMRcwFQYDVQQDDA50ZWFtNDAxLWNsaWVudDCCASIwDQYJKoZIhvcN
AQEBBQADggEPADCCAQoCggEBALJbimvKJqN0eppQt8+uss/Yoig0cKxYp6d9QlP8
OkfzGoVm78zPLFFSL8cvPcY1i9Zr54JV/+OCstY8NYsBf2XUyUfZqxzwu/Ccsi3Z
nIQeZW5R3QBb5NmOCyS3TTUe5i3ksghqztiyNaCaUlAMWAFpJlpsLzQCbQbdVWP9
PLOzAjedZMzFUbrr6J542Q8cF22kN8UtK+zCMnihoA1yywnMXEKWLbJZ0P9OTEUe
9ESbqBh0mvdD8gpZr01eMBsQKPtbHjZuut6CzDiM52mGXyNHdyo8AZbiFjj8trZn
v/gVm4cm2yQq9QRkb1B/K6Se35ktWe8+ce4jOlQhSRH/yiUCAwEAAaOBojCBnzAJ
BgNVHRMEAjAAMB0GA1UdDgQWBBSUAEF/SajEAQx5kASo4jG6tdt2QzBRBgNVHSME
SjBIgBTLzXpDnXdeh9sO7Ev6J1KGtS2n/aEapBgwFjEUMBIGA1UEAwwLdGVhbTQw
MS1uZXSCFAEHq/iR6UK2OQ1yFHQ3ENdbcdFTMBMGA1UdJQQMMAoGCCsGAQUFBwMC
MAsGA1UdDwQEAwIHgDANBgkqhkiG9w0BAQsFAAOCAQEAejFtj2blOOKCAlhT+4h5
TS1aFSGBOj41ooyg7WUtlQbdQ3kuiFTza3n9drs3S6XktDuVdSvdNsiU6nPeMbQx
mlv3xMEtCcEKrleDa4tDTyKOgPlu1BvUXwc+WDCqv8ftD0L6vLVJI8hev9Bfeeay
otasc0uuztZeQ9xDGkz5dxtZF46gk12xAPGbLrahnyBRKJsSMbeDTIS4KA1pJSFw
wsXaqKUIVmGptH74BGsAAtm1CivkTatY5eyvrx1558GWvAnByOKKJfKZFugKJsG6
zHJhudhLnx7WE/udWEbPZJXzpSXMJjPWEfa/u0OC0nWfrkYNUA5ypUfVvbFkfKFP
qQ==
-----END CERTIFICATE-----
