Certificate:
    Data:
        Version: 3 (0x2)
        Serial Number:
            bc:8c:90:0d:e4:21:92:bf:6c:90:6c:11:f3:72:46:a5
        Signature Algorithm: sha256WithRSAEncryption
        Issuer: CN=team401-net
        Validity
            Not Before: Nov  4 11:36:32 2023 GMT
            Not After : Oct 19 11:36:32 2026 GMT
        Subject: CN=team401-server
        Subject Public Key Info:
            Public Key Algorithm: rsaEncryption
                Public-Key: (2048 bit)
                Modulus:
                    00:96:70:9b:d3:7d:59:a1:fa:43:08:38:e3:4d:a2:
                    72:ab:d0:54:3e:d3:87:6f:92:08:42:4e:bc:cc:ac:
                    23:4f:d3:ef:84:79:65:a2:9b:a6:3b:d2:27:10:59:
                    ff:11:e6:67:b8:d7:48:85:03:cd:b2:a4:f3:30:bd:
                    70:f3:cf:0b:38:c9:d6:19:d8:00:a1:4e:50:6f:3b:
                    b5:01:ff:09:8f:3c:e5:0e:cc:ae:45:5c:24:c8:2e:
                    f9:82:3e:56:93:d1:a4:b1:75:28:bf:61:2a:db:4f:
                    29:c2:2c:8a:17:1d:f5:97:7f:cf:b1:1b:b4:53:d7:
                    67:d3:bb:0f:5a:c7:23:17:c2:ce:3a:c0:00:2d:62:
                    17:7b:e4:71:f3:0e:3e:f1:a6:c9:75:e6:7e:de:a9:
                    61:c7:5d:44:da:9a:17:52:43:4f:c6:ac:d2:88:f6:
                    b2:2b:d1:f0:68:bd:c7:b4:7e:d1:ac:36:53:4e:53:
                    59:80:ae:19:98:ee:e8:9e:0a:7b:ea:35:e0:19:30:
                    89:76:62:a5:02:f5:78:0c:1d:11:2d:2d:3b:09:36:
                    43:69:04:05:25:31:f6:f7:5c:d0:8e:23:19:48:f0:
                    6f:99:0e:b0:1f:97:0d:57:f3:b2:1e:4f:3c:3f:aa:
                    cd:c8:cf:d3:1b:a0:13:70:51:00:93:65:a4:a5:c7:
                    55:61
                Exponent: 65537 (0x10001)
        X509v3 extensions:
            X509v3 Basic Constraints: 
                CA:FALSE
            X509v3 Subject Key Identifier: 
                B0:C2:1F:CD:FD:C4:AE:CF:75:EA:64:1C:9C:1E:EE:ED:20:CE:A8:8D
            X509v3 Authority Key Identifier: 
                keyid:D7:13:2D:D2:AC:BF:46:2C:25:38:46:20:31:74:F0:C5:62:AF:43:67
                DirName:/CN=team401-net
                serial:08:25:7A:C2:ED:1E:E9:33:3F:E6:3D:99:34:30:02:D9:60:71:22:08
            X509v3 Extended Key Usage: 
                TLS Web Server Authentication
            X509v3 Key Usage: 
                Digital Signature, Key Encipherment
            X509v3 Subject Alternative Name: 
                DNS:team401-server
    Signature Algorithm: sha256WithRSAEncryption
    Signature Value:
        4d:76:82:b1:88:95:42:22:a4:e1:86:f9:ec:38:fc:ec:69:c8:
        b3:6e:77:f6:3d:c7:90:1a:f3:db:9a:bb:fa:93:42:ba:a8:aa:
        0e:29:84:89:72:b8:07:47:39:86:72:54:7e:bd:f7:32:57:a2:
        98:b7:33:87:ba:d2:4f:e2:05:f8:66:2f:2d:70:8d:5a:f2:ca:
        0f:00:be:6b:fd:94:b5:2e:43:34:03:9e:1d:97:62:fc:34:f5:
        b8:f8:8c:93:9a:4c:02:4e:28:58:95:bd:ab:d6:98:d6:8f:13:
        b6:1a:b1:41:46:ad:c8:3f:cf:21:d7:86:90:ba:b4:2a:51:97:
        f7:39:00:c6:46:c0:29:aa:9b:23:8d:21:3a:d3:4f:25:7e:44:
        70:f1:a6:d1:67:ad:d6:c9:4c:88:89:c6:6f:78:e2:13:f5:7f:
        96:1b:8c:8a:ce:a9:63:21:22:2c:f7:0c:78:93:77:b9:f9:a5:
        76:45:ec:7a:ec:ed:9c:61:e6:0d:02:99:5d:1a:50:b6:b7:d0:
        72:96:bc:9e:ce:0c:5a:49:53:aa:51:21:08:28:71:99:1a:d1:
        b4:e0:2f:61:af:e1:d8:72:39:a4:7e:6c:29:59:9a:d1:0f:d8:
        d6:03:35:4c:60:1e:ec:df:68:45:48:14:96:b3:09:69:f8:b3:
        5c:23:89:b9
-----BEGIN CERTIFICATE-----
MIIDeDCCAmCgAwIBAgIRALyMkA3kIZK/bJBsEfNyRqUwDQYJKoZIhvcNAQELBQAw
FjEUMBIGA1UEAwwLdGVhbTQwMS1uZXQwHhcNMjMxMTA0MTEzNjMyWhcNMjYxMDE5
MTEzNjMyWjAZMRcwFQYDVQQDDA50ZWFtNDAxLXNlcnZlcjCCASIwDQYJKoZIhvcN
AQEBBQADggEPADCCAQoCggEBAJZwm9N9WaH6Qwg4402icqvQVD7Th2+SCEJOvMys
I0/T74R5ZaKbpjvSJxBZ/xHmZ7jXSIUDzbKk8zC9cPPPCzjJ1hnYAKFOUG87tQH/
CY885Q7MrkVcJMgu+YI+VpPRpLF1KL9hKttPKcIsihcd9Zd/z7EbtFPXZ9O7D1rH
IxfCzjrAAC1iF3vkcfMOPvGmyXXmft6pYcddRNqaF1JDT8as0oj2sivR8Gi9x7R+
0aw2U05TWYCuGZju6J4Ke+o14BkwiXZipQL1eAwdES0tOwk2Q2kEBSUx9vdc0I4j
GUjwb5kOsB+XDVfzsh5PPD+qzcjP0xugE3BRAJNlpKXHVWECAwEAAaOBvTCBujAJ
BgNVHRMEAjAAMB0GA1UdDgQWBBSwwh/N/cSuz3XqZBycHu7tIM6ojTBRBgNVHSME
SjBIgBTXEy3SrL9GLCU4RiAxdPDFYq9DZ6EapBgwFjEUMBIGA1UEAwwLdGVhbTQw
MS1uZXSCFAglesLtHukzP+Y9mTQwAtlgcSIIMBMGA1UdJQQMMAoGCCsGAQUFBwMB
MAsGA1UdDwQEAwIFoDAZBgNVHREEEjAQgg50ZWFtNDAxLXNlcnZlcjANBgkqhkiG
9w0BAQsFAAOCAQEATXaCsYiVQiKk4Yb57Dj87GnIs2539j3HkBrz25q7+pNCuqiq
DimEiXK4B0c5hnJUfr33MleimLczh7rST+IF+GYvLXCNWvLKDwC+a/2UtS5DNAOe
HZdi/DT1uPiMk5pMAk4oWJW9q9aY1o8TthqxQUatyD/PIdeGkLq0KlGX9zkAxkbA
KaqbI40hOtNPJX5EcPGm0Wet1slMiInGb3jiE/V/lhuMis6pYyEiLPcMeJN3ufml
dkXseuztnGHmDQKZXRpQtrfQcpa8ns4MWklTqlEhCChxmRrRtOAvYa/h2HI5pH5s
KVma0Q/Y1gM1TGAe7N9oRUgUlrMJafizXCOJuQ==
-----END CERTIFICATE-----
