Certificate:
    Data:
        Version: 3 (0x2)
        Serial Number:
            80:90:fe:e6:10:95:0e:eb:88:de:8b:ab:34:dd:7d:44
        Signature Algorithm: sha256WithRSAEncryption
        Issuer: CN=team489-net
        Validity
            Not Before: Nov  3 20:48:11 2023 GMT
            Not After : Oct 18 20:48:11 2026 GMT
        Subject: CN=team489-server
        Subject Public Key Info:
            Public Key Algorithm: rsaEncryption
                Public-Key: (2048 bit)
                Modulus:
                    00:cc:1a:2b:ff:57:bd:fa:b4:09:b3:b1:88:8c:3a:
                    99:58:2d:49:93:2f:7b:db:b6:da:df:0c:76:d1:45:
                    f1:19:ac:ce:6b:dd:0d:30:c4:e3:e9:d8:43:40:97:
                    c0:90:38:b4:10:f2:93:e0:c8:a5:0b:fb:24:6f:86:
                    07:67:01:c3:0b:9c:c4:07:46:68:5b:2e:a3:d5:04:
                    f0:0b:a9:65:46:80:a5:8f:7a:ae:d8:8b:eb:a3:6d:
                    b3:fd:db:9a:db:8d:51:a5:23:91:28:32:50:9b:63:
                    f7:d1:dc:18:11:1e:25:96:d3:7f:1d:f6:ef:ff:27:
                    5e:0a:81:00:69:a6:8d:5a:f8:23:d6:ef:95:4f:f9:
                    3d:34:2d:81:fb:92:88:40:21:23:82:01:6b:7b:25:
                    21:b9:29:d4:20:8e:2e:fc:32:e3:25:08:7c:b6:93:
                    d0:ec:80:ee:20:eb:45:1f:60:11:f8:5b:d7:8b:43:
                    13:05:d4:ee:c4:50:e0:b2:26:b3:89:ce:68:e9:e2:
                    4f:e4:ea:3d:5b:86:c4:7b:e8:50:08:6e:97:5a:e7:
                    2b:88:0f:47:af:80:11:95:be:b0:ba:fc:b3:44:0c:
                    f5:c5:1f:94:f6:b7:b4:77:ad:1a:92:0a:08:07:4b:
                    2f:88:5b:48:f2:7f:6c:2a:7f:95:26:6b:cf:37:38:
                    8e:7d
                Exponent: 65537 (0x10001)
        X509v3 extensions:
            X509v3 Basic Constraints: 
                CA:FALSE
            X509v3 Subject Key Identifier: 
                FE:7E:49:77:5C:E0:C8:EC:51:C1:AD:92:F3:BF:6B:49:8B:24:6B:0E
            X509v3 Authority Key Identifier: 
                keyid:03:D6:3B:6A:1B:9F:E5:48:10:0F:79:A2:6E:17:E5:C1:F7:86:BE:70
                DirName:/CN=team489-net
                serial:41:56:34:FA:A1:EF:0C:E4:91:0C:1E:A4:81:B2:99:F8:E1:7B:E8:FD
            X509v3 Extended Key Usage: 
                TLS Web Server Authentication
            X509v3 Key Usage: 
                Digital Signature, Key Encipherment
            X509v3 Subject Alternative Name: 
                DNS:team489-server
    Signature Algorithm: sha256WithRSAEncryption
    Signature Value:
        95:a3:4c:db:b4:cb:ab:a9:6a:b0:02:c7:a6:de:76:bd:e2:b9:
        a1:cc:40:40:fb:31:c8:b0:d6:2f:3f:e8:35:ad:3c:c1:18:09:
        5c:c2:d6:ba:1b:82:53:83:35:a3:d6:87:31:fd:13:85:e5:07:
        ca:44:56:a6:c8:f7:65:ee:49:f9:af:9d:7f:d7:ae:55:b1:60:
        83:1e:54:50:27:ae:ab:a7:a9:d9:8e:35:b8:5e:bc:0d:31:60:
        10:64:c2:e2:0e:1a:d1:df:86:82:bd:1f:f9:d5:e0:9e:ff:a0:
        41:31:c6:23:52:78:97:3e:c9:33:af:1d:d2:40:21:ff:c5:15:
        7c:b6:8a:e4:af:0f:43:f7:22:0f:12:b3:d9:f2:f5:16:f7:34:
        08:c1:75:a0:9d:e8:58:d6:1a:37:13:13:c9:3c:a9:d6:37:60:
        8a:34:68:dc:f5:16:30:82:63:b5:7d:03:09:e5:37:53:15:8e:
        7d:c4:b5:f3:7e:89:be:f5:a6:a1:46:4b:da:0f:e5:d8:37:ff:
        aa:c3:0b:9b:63:4b:8e:f0:96:ce:2b:9a:5a:43:81:06:79:c9:
        57:13:f7:5a:6e:71:51:0b:f3:86:e5:d3:8a:71:8d:a8:55:da:
        ac:0e:6e:ba:35:73:db:e7:b7:15:67:51:1b:bf:ad:5a:6d:1a:
        80:72:60:04
-----BEGIN CERTIFICATE-----
MIIDeDCCAmCgAwIBAgIRAICQ/uYQlQ7riN6LqzTdfUQwDQYJKoZIhvcNAQELBQAw
FjEUMBIGA1UEAwwLdGVhbTQ4OS1uZXQwHhcNMjMxMTAzMjA0ODExWhcNMjYxMDE4
MjA0ODExWjAZMRcwFQYDVQQDDA50ZWFtNDg5LXNlcnZlcjCCASIwDQYJKoZIhvcN
AQEBBQADggEPADCCAQoCggEBAMwaK/9Xvfq0CbOxiIw6mVgtSZMve9u22t8MdtFF
8RmszmvdDTDE4+nYQ0CXwJA4tBDyk+DIpQv7JG+GB2cBwwucxAdGaFsuo9UE8Aup
ZUaApY96rtiL66Nts/3bmtuNUaUjkSgyUJtj99HcGBEeJZbTfx327/8nXgqBAGmm
jVr4I9bvlU/5PTQtgfuSiEAhI4IBa3slIbkp1CCOLvwy4yUIfLaT0OyA7iDrRR9g
Efhb14tDEwXU7sRQ4LIms4nOaOniT+TqPVuGxHvoUAhul1rnK4gPR6+AEZW+sLr8
s0QM9cUflPa3tHetGpIKCAdLL4hbSPJ/bCp/lSZrzzc4jn0CAwEAAaOBvTCBujAJ
BgNVHRMEAjAAMB0GA1UdDgQWBBT+fkl3XODI7FHBrZLzv2tJiyRrDjBRBgNVHSME
SjBIgBQD1jtqG5/lSBAPeaJuF+XB94a+cKEapBgwFjEUMBIGA1UEAwwLdGVhbTQ4
OS1uZXSCFEFWNPqh7wzkkQwepIGymfjhe+j9MBMGA1UdJQQMMAoGCCsGAQUFBwMB
MAsGA1UdDwQEAwIFoDAZBgNVHREEEjAQgg50ZWFtNDg5LXNlcnZlcjANBgkqhkiG
9w0BAQsFAAOCAQEAlaNM27TLq6lqsALHpt52veK5ocxAQPsxyLDWLz/oNa08wRgJ
XMLWuhuCU4M1o9aHMf0TheUHykRWpsj3Ze5J+a+df9euVbFggx5UUCeuq6ep2Y41
uF68DTFgEGTC4g4a0d+Ggr0f+dXgnv+gQTHGI1J4lz7JM68d0kAh/8UVfLaK5K8P
Q/ciDxKz2fL1Fvc0CMF1oJ3oWNYaNxMTyTyp1jdgijRo3PUWMIJjtX0DCeU3UxWO
fcS1836JvvWmoUZL2g/l2Df/qsMLm2NLjvCWziuaWkOBBnnJVxP3Wm5xUQvzhuXT
inGNqFXarA5uujVz2+e3FWdRG7+tWm0agHJgBA==
-----END CERTIFICATE-----
