Certificate:
    Data:
        Version: 3 (0x2)
        Serial Number:
            a1:37:ee:51:28:2c:91:14:a1:8f:f1:37:c9:07:7d:e3
        Signature Algorithm: sha256WithRSAEncryption
        Issuer: CN=team217-net
        Validity
            Not Before: Nov  4 10:44:43 2023 GMT
            Not After : Oct 19 10:44:43 2026 GMT
        Subject: CN=team217-server
        Subject Public Key Info:
            Public Key Algorithm: rsaEncryption
                Public-Key: (2048 bit)
                Modulus:
                    00:b1:39:42:35:fa:d0:41:f2:5b:d2:e9:8a:4c:ef:
                    c5:7e:aa:d7:2a:13:c4:cf:98:fb:4c:cc:5b:fa:8a:
                    2b:f3:79:17:00:f2:1e:ad:af:42:68:8a:95:57:49:
                    4c:a8:be:5d:4d:b8:75:85:34:06:87:0b:3a:6f:4e:
                    02:09:2c:cd:02:4f:32:f4:cd:ec:d2:0d:2a:40:50:
                    30:fe:d5:1d:d7:91:b3:35:6e:a2:ad:0a:7c:45:28:
                    6d:77:10:e9:b1:24:ac:4b:28:6b:b3:b9:1b:45:19:
                    cb:4f:5c:89:86:28:04:21:fe:d8:ff:22:0b:d3:06:
                    8b:df:88:c3:38:90:4f:4a:5c:7a:3f:7c:f9:13:c3:
                    7c:35:40:a2:1c:ff:62:68:a7:f0:2f:7b:7a:cd:c0:
                    8d:c1:dc:73:f7:f5:6a:73:71:91:a3:fc:fe:cd:eb:
                    41:0d:22:80:5f:66:9e:8a:ff:af:90:e1:10:89:1e:
                    5a:b3:4c:50:a0:97:23:0c:fa:7b:2d:75:ad:33:94:
                    0d:47:44:a4:36:6a:5b:b7:36:d8:5c:6c:c3:7b:49:
                    ea:03:30:ad:f4:ed:b2:0a:16:a3:1f:ef:4b:68:8e:
                    4d:30:75:00:f1:ab:78:81:aa:fc:b2:94:98:6f:1d:
                    74:f3:cf:a9:4c:b5:48:a0:71:49:0b:7b:b3:b2:29:
                    05:41
                Exponent: 65537 (0x10001)
        X509v3 extensions:
            X509v3 Basic Constraints: 
                CA:FALSE
            X509v3 Subject Key Identifier: 
                6D:95:8B:EC:1D:EA:15:83:D3:9E:8A:E2:23:D8:84:F6:6E:2A:AA:E6
            X509v3 Authority Key Identifier: 
                keyid:6C:59:87:C7:DA:3D:A9:CA:3E:D3:E8:74:E1:AB:FE:EB:F4:73:46:28
                DirName:/CN=team217-net
                serial:56:D4:2F:77:E6:84:0B:69:77:F0:FA:2C:8C:DF:97:94:6F:B5:8C:01
            X509v3 Extended Key Usage: 
                TLS Web Server Authentication
            X509v3 Key Usage: 
                Digital Signature, Key Encipherment
            X509v3 Subject Alternative Name: 
                DNS:team217-server
    Signature Algorithm: sha256WithRSAEncryption
    Signature Value:
        8c:f6:5c:8f:53:d1:a0:80:ea:8b:03:85:97:e9:1b:ea:09:9f:
        00:47:dc:a5:ad:d1:aa:a1:40:ae:d6:99:e3:70:53:16:5c:95:
        9c:2a:21:01:13:e1:11:35:40:e6:6b:78:be:67:63:49:88:e6:
        c3:b3:3a:bd:7a:e5:14:d0:74:86:5f:60:7e:fa:fe:ec:7e:69:
        d4:39:62:09:9f:7e:c5:ab:d4:3b:82:49:2a:21:90:5a:59:70:
        b6:a9:98:a5:d3:67:f5:df:f2:8c:29:85:5e:4f:e4:95:51:54:
        c2:3f:0a:2d:0f:8c:18:fb:5c:c7:59:fb:ff:24:3f:c3:04:8b:
        64:3e:2a:fb:d1:3e:39:b6:89:5b:2c:c0:21:7a:d7:d4:3f:21:
        08:8b:d0:ad:11:be:20:3b:ba:e9:1e:69:fc:1d:97:39:eb:fc:
        34:e5:ec:2b:b9:84:d4:6a:8f:e5:81:86:cd:1d:f2:30:79:c3:
        61:c6:50:25:6c:cb:51:a6:f0:26:23:12:5c:f2:c9:64:0c:d7:
        b9:61:b6:40:82:df:61:9b:40:5b:bc:da:24:b5:03:65:8e:5f:
        78:42:54:8a:15:a2:62:a1:97:27:d8:5d:34:ca:cf:23:67:df:
        1a:5a:c7:95:80:63:11:f2:9d:59:a9:78:ce:0b:1d:38:05:ec:
        09:17:46:5a
-----BEGIN CERTIFICATE-----
MIIDeDCCAmCgAwIBAgIRAKE37lEoLJEUoY/xN8kHfeMwDQYJKoZIhvcNAQELBQAw
FjEUMBIGA1UEAwwLdGVhbTIxNy1uZXQwHhcNMjMxMTA0MTA0NDQzWhcNMjYxMDE5
MTA0NDQzWjAZMRcwFQYDVQQDDA50ZWFtMjE3LXNlcnZlcjCCASIwDQYJKoZIhvcN
AQEBBQADggEPADCCAQoCggEBALE5QjX60EHyW9LpikzvxX6q1yoTxM+Y+0zMW/qK
K/N5FwDyHq2vQmiKlVdJTKi+XU24dYU0BocLOm9OAgkszQJPMvTN7NINKkBQMP7V
HdeRszVuoq0KfEUobXcQ6bEkrEsoa7O5G0UZy09ciYYoBCH+2P8iC9MGi9+IwziQ
T0pcej98+RPDfDVAohz/Ymin8C97es3AjcHcc/f1anNxkaP8/s3rQQ0igF9mnor/
r5DhEIkeWrNMUKCXIwz6ey11rTOUDUdEpDZqW7c22Fxsw3tJ6gMwrfTtsgoWox/v
S2iOTTB1APGreIGq/LKUmG8ddPPPqUy1SKBxSQt7s7IpBUECAwEAAaOBvTCBujAJ
BgNVHRMEAjAAMB0GA1UdDgQWBBRtlYvsHeoVg9OeiuIj2IT2biqq5jBRBgNVHSME
SjBIgBRsWYfH2j2pyj7T6HThq/7r9HNGKKEapBgwFjEUMBIGA1UEAwwLdGVhbTIx
Ny1uZXSCFFbUL3fmhAtpd/D6LIzfl5RvtYwBMBMGA1UdJQQMMAoGCCsGAQUFBwMB
MAsGA1UdDwQEAwIFoDAZBgNVHREEEjAQgg50ZWFtMjE3LXNlcnZlcjANBgkqhkiG
9w0BAQsFAAOCAQEAjPZcj1PRoIDqiwOFl+kb6gmfAEfcpa3RqqFArtaZ43BTFlyV
nCohARPhETVA5mt4vmdjSYjmw7M6vXrlFNB0hl9gfvr+7H5p1DliCZ9+xavUO4JJ
KiGQWllwtqmYpdNn9d/yjCmFXk/klVFUwj8KLQ+MGPtcx1n7/yQ/wwSLZD4q+9E+
ObaJWyzAIXrX1D8hCIvQrRG+IDu66R5p/B2XOev8NOXsK7mE1GqP5YGGzR3yMHnD
YcZQJWzLUabwJiMSXPLJZAzXuWG2QILfYZtAW7zaJLUDZY5feEJUihWiYqGXJ9hd
NMrPI2ffGlrHlYBjEfKdWal4zgsdOAXsCRdGWg==
-----END CERTIFICATE-----
