Certificate:
    Data:
        Version: 3 (0x2)
        Serial Number:
            c9:97:56:42:28:b6:5b:4c:ce:15:c9:3c:be:37:ae:42
        Signature Algorithm: sha256WithRSAEncryption
        Issuer: CN=team217-net
        Validity
            Not Before: Nov  4 11:31:53 2023 GMT
            Not After : Oct 19 11:31:53 2026 GMT
        Subject: CN=team217-client
        Subject Public Key Info:
            Public Key Algorithm: rsaEncryption
                Public-Key: (2048 bit)
                Modulus:
                    00:bb:e6:44:32:bb:00:7b:5c:1e:4f:2b:c3:14:c8:
                    65:7c:3b:18:3e:e0:90:a6:20:e6:2f:7d:be:af:82:
                    88:09:2f:0b:83:cd:01:80:07:9e:06:d1:4e:a7:18:
                    a5:34:01:fc:90:61:28:a2:00:b5:f0:dd:dc:05:96:
                    78:24:f6:f4:f1:e7:fa:17:c7:b5:d0:1d:2f:a3:12:
                    55:53:2d:52:97:51:71:0c:0e:9d:42:12:51:71:b1:
                    5b:a1:5b:8c:4c:9d:6d:7b:54:c4:aa:d6:be:9c:5b:
                    10:6b:8b:12:37:42:21:e0:89:74:4d:98:32:e7:e1:
                    f1:3a:79:8c:be:0e:92:a1:f4:5f:de:27:bb:54:26:
                    89:b4:e2:42:43:3b:86:04:0b:f6:03:a6:ef:21:54:
                    94:0e:bc:ef:92:fe:07:40:1e:6c:bd:97:7b:5f:c0:
                    9e:7a:30:15:a2:2f:0d:b0:c7:ee:b3:e3:66:1a:b6:
                    7c:2c:3b:19:32:c3:69:17:3c:ec:a8:3c:a6:b7:92:
                    20:92:3f:39:8c:da:38:f4:40:08:72:df:4d:e1:6c:
                    b3:12:e7:11:ba:28:5e:df:09:19:d4:44:29:be:30:
                    52:a8:8e:cc:f5:cc:b1:ff:4f:47:d5:04:6f:f3:1f:
                    f8:fa:e8:03:de:0b:62:e4:43:e0:9a:fd:22:48:e3:
                    f8:69
                Exponent: 65537 (0x10001)
        X509v3 extensions:
            X509v3 Basic Constraints: 
                CA:FALSE
            X509v3 Subject Key Identifier: 
                EA:AB:E3:92:08:DA:75:B7:E7:F3:E3:E8:11:09:EB:A3:11:53:5E:E9
            X509v3 Authority Key Identifier: 
                keyid:65:FF:F7:36:A0:73:D3:74:C5:32:4D:1F:65:06:EB:E8:6B:32:BB:75
                DirName:/CN=team217-net
                serial:3F:3B:1F:39:64:E2:5B:45:4C:7B:C4:BC:5C:AE:B1:7D:EC:BB:C7:DE
            X509v3 Extended Key Usage: 
                TLS Web Client Authentication
            X509v3 Key Usage: 
                Digital Signature
    Signature Algorithm: sha256WithRSAEncryption
    Signature Value:
        b9:34:34:a4:dc:86:38:71:10:b7:08:22:ac:89:b0:1b:7b:55:
        5a:10:55:9b:61:a8:91:91:34:11:c5:c6:63:ce:52:38:83:66:
        2c:a2:09:15:ae:09:2c:8d:49:63:d6:66:dd:ec:ee:e0:bf:d8:
        98:38:79:51:b4:44:d0:0c:1d:c5:06:96:9b:1f:8f:4f:a6:18:
        2e:d6:3f:e0:d8:68:7f:4b:d5:fb:cf:68:fb:8b:4d:8c:e4:60:
        db:91:63:0c:6b:cf:12:f5:d1:d2:c4:59:e4:2a:de:7f:45:f0:
        63:8a:64:c0:28:dd:1c:95:7f:47:26:9e:ef:d5:21:7b:ca:d2:
        aa:c3:8a:24:e6:80:5c:17:79:dd:63:27:b4:d2:43:d5:58:9e:
        4e:e2:40:f5:d1:a5:bd:60:d2:02:81:f6:0e:29:ca:f0:a8:d9:
        d1:bf:04:a1:23:dc:7d:13:bd:45:00:d9:6b:d6:64:5e:f8:05:
        18:47:ea:08:fa:7c:93:18:f0:6d:57:6f:ca:98:f2:a3:0d:d9:
        8f:f1:0d:8d:10:6a:de:7c:56:d8:89:3d:08:b9:d0:31:60:d3:
        52:eb:1e:92:83:19:7e:b8:a6:16:4a:af:c8:f0:84:4f:0b:7d:
        f1:91:fd:d3:57:3c:27:00:24:3d:56:bc:f9:c7:82:6b:68:0f:
        fd:61:b9:a9
-----BEGIN CERTIFICATE-----
MIIDXTCCAkWgAwIBAgIRAMmXVkIotltMzhXJPL43rkIwDQYJKoZIhvcNAQELBQAw
FjEUMBIGA1UEAwwLdGVhbTIxNy1uZXQwHhcNMjMxMTA0MTEzMTUzWhcNMjYxMDE5
MTEzMTUzWjAZMRcwFQYDVQQDDA50ZWFtMjE3LWNsaWVudDCCASIwDQYJKoZIhvcN
AQEBBQADggEPADCCAQoCggEBALvmRDK7AHtcHk8rwxTIZXw7GD7gkKYg5i99vq+C
iAkvC4PNAYAHngbRTqcYpTQB/JBhKKIAtfDd3AWWeCT29PHn+hfHtdAdL6MSVVMt
UpdRcQwOnUISUXGxW6FbjEydbXtUxKrWvpxbEGuLEjdCIeCJdE2YMufh8Tp5jL4O
kqH0X94nu1QmibTiQkM7hgQL9gOm7yFUlA6875L+B0AebL2Xe1/AnnowFaIvDbDH
7rPjZhq2fCw7GTLDaRc87Kg8preSIJI/OYzaOPRACHLfTeFssxLnEbooXt8JGdRE
Kb4wUqiOzPXMsf9PR9UEb/Mf+ProA94LYuRD4Jr9Ikjj+GkCAwEAAaOBojCBnzAJ
BgNVHRMEAjAAMB0GA1UdDgQWBBTqq+OSCNp1t+fz4+gRCeujEVNe6TBRBgNVHSME
SjBIgBRl//c2oHPTdMUyTR9lBuvoazK7daEapBgwFjEUMBIGA1UEAwwLdGVhbTIx
Ny1uZXSCFD87Hzlk4ltFTHvEvFyusX3su8feMBMGA1UdJQQMMAoGCCsGAQUFBwMC
MAsGA1UdDwQEAwIHgDANBgkqhkiG9w0BAQsFAAOCAQEAuTQ0pNyGOHEQtwgirImw
G3tVWhBVm2GokZE0EcXGY85SOINmLKIJFa4JLI1JY9Zm3ezu4L/YmDh5UbRE0Awd
xQaWmx+PT6YYLtY/4Nhof0vV+89o+4tNjORg25FjDGvPEvXR0sRZ5Cref0XwY4pk
wCjdHJV/Ryae79Uhe8rSqsOKJOaAXBd53WMntNJD1VieTuJA9dGlvWDSAoH2DinK
8KjZ0b8EoSPcfRO9RQDZa9ZkXvgFGEfqCPp8kxjwbVdvypjyow3Zj/ENjRBq3nxW
2Ik9CLnQMWDTUusekoMZfrimFkqvyPCETwt98ZH901c8JwAkPVa8+ceCa2gP/WG5
qQ==
-----END CERTIFICATE-----
