Certificate:
    Data:
        Version: 3 (0x2)
        Serial Number:
            ca:b7:9c:93:3b:32:67:44:9f:a9:93:ea:d4:89:3c:7f
        Signature Algorithm: sha256WithRSAEncryption
        Issuer: CN=team217-net
        Validity
            Not Before: Nov  4 11:31:53 2023 GMT
            Not After : Oct 19 11:31:53 2026 GMT
        Subject: CN=team217-server
        Subject Public Key Info:
            Public Key Algorithm: rsaEncryption
                Public-Key: (2048 bit)
                Modulus:
                    00:c4:78:c4:10:bc:91:41:25:48:15:6f:c6:59:71:
                    8f:b8:cd:af:d9:95:be:6d:8a:45:d1:4d:91:be:0d:
                    c3:5e:f8:10:17:71:b0:4e:6b:d5:3a:3b:95:b0:f7:
                    8f:0e:f4:d4:cf:d3:2b:67:c4:d0:4d:2f:71:ac:f6:
                    00:35:d4:8c:31:ea:1c:69:63:13:e2:9c:62:9a:78:
                    e9:80:5d:fd:5b:02:cd:7f:5c:2b:53:2a:e7:65:02:
                    c3:54:60:e9:e2:55:d6:1b:af:ad:0a:25:9d:a9:cf:
                    6a:1a:19:e9:e8:4d:25:10:ef:99:02:0c:b0:be:85:
                    60:4c:dd:14:d5:b2:31:96:46:ca:e4:3f:ff:00:26:
                    e9:1b:27:06:4d:a1:a8:9c:34:26:c3:73:ca:33:5a:
                    a1:98:33:97:7f:c7:df:25:90:6d:ea:c5:18:02:19:
                    b6:46:30:09:71:b8:42:3f:98:39:61:92:62:cf:8a:
                    84:e6:6b:4d:77:96:45:c2:e1:c4:cc:75:00:c9:69:
                    18:f4:32:2b:82:a8:a7:ac:93:40:0e:e5:df:0c:c3:
                    44:d3:25:29:e2:e2:09:71:d8:82:eb:da:8d:98:3c:
                    a4:d2:84:ab:f9:55:a2:e4:df:ec:75:c4:9f:76:64:
                    f1:f3:3b:05:16:da:d8:79:96:a1:34:b6:07:9f:a8:
                    1a:99
                Exponent: 65537 (0x10001)
        X509v3 extensions:
            X509v3 Basic Constraints: 
                CA:FALSE
            X509v3 Subject Key Identifier: 
                46:52:19:98:80:45:1D:A0:50:06:34:4A:37:DA:DB:FE:2A:87:E2:86
            X509v3 Authority Key Identifier: 
                keyid:65:FF:F7:36:A0:73:D3:74:C5:32:4D:1F:65:06:EB:E8:6B:32:BB:75
                DirName:/CN=team217-net
                serial:3F:3B:1F:39:64:E2:5B:45:4C:7B:C4:BC:5C:AE:B1:7D:EC:BB:C7:DE
            X509v3 Extended Key Usage: 
                TLS Web Server Authentication
            X509v3 Key Usage: 
                Digital Signature, Key Encipherment
            X509v3 Subject Alternative Name: 
                DNS:team217-server
    Signature Algorithm: sha256WithRSAEncryption
    Signature Value:
        b9:a0:7a:52:e8:40:e7:72:29:b0:f8:44:40:30:96:a4:d0:fa:
        df:1a:02:76:85:96:8b:2d:be:42:ee:81:f3:ed:cc:81:bd:8b:
        2b:d7:4a:33:25:04:37:df:56:e2:e3:d4:3b:fb:8d:ef:8a:b2:
        e0:c8:95:6c:19:1d:fe:04:2c:04:cc:99:f8:a7:34:6e:9c:f5:
        d5:f2:61:3f:fe:10:15:57:dd:1a:96:ca:85:18:85:9f:aa:d6:
        52:e8:9a:83:1c:15:78:db:69:5c:4a:a5:03:e4:12:cb:00:82:
        24:aa:47:8e:1f:b5:45:56:21:83:99:3c:5e:85:ee:bc:89:e9:
        68:42:b9:3e:57:d3:60:0c:8e:55:45:0a:a9:b5:c8:cc:1c:3b:
        d7:b9:f5:c3:c3:3b:d9:66:0d:33:11:45:2b:01:e8:f2:11:77:
        52:b7:bd:db:d4:8f:3b:20:1e:a8:8a:6d:86:43:8f:03:73:05:
        7e:06:80:70:b6:e8:e6:21:72:96:84:b5:ba:2b:3b:51:f9:40:
        0b:ef:3f:25:19:0a:f8:94:06:65:5a:6a:1f:b4:61:a9:f9:33:
        c3:98:72:9f:ae:d6:4d:b5:99:20:29:b5:df:12:e9:6e:0e:eb:
        64:bb:84:e4:94:53:5b:12:83:38:54:e3:89:93:55:d7:e7:7a:
        15:d2:4f:0c
-----BEGIN CERTIFICATE-----
MIIDeDCCAmCgAwIBAgIRAMq3nJM7MmdEn6mT6tSJPH8wDQYJKoZIhvcNAQELBQAw
FjEUMBIGA1UEAwwLdGVhbTIxNy1uZXQwHhcNMjMxMTA0MTEzMTUzWhcNMjYxMDE5
MTEzMTUzWjAZMRcwFQYDVQQDDA50ZWFtMjE3LXNlcnZlcjCCASIwDQYJKoZIhvcN
AQEBBQADggEPADCCAQoCggEBAMR4xBC8kUElSBVvxllxj7jNr9mVvm2KRdFNkb4N
w174EBdxsE5r1To7lbD3jw701M/TK2fE0E0vcaz2ADXUjDHqHGljE+KcYpp46YBd
/VsCzX9cK1Mq52UCw1Rg6eJV1huvrQolnanPahoZ6ehNJRDvmQIMsL6FYEzdFNWy
MZZGyuQ//wAm6RsnBk2hqJw0JsNzyjNaoZgzl3/H3yWQberFGAIZtkYwCXG4Qj+Y
OWGSYs+KhOZrTXeWRcLhxMx1AMlpGPQyK4Kop6yTQA7l3wzDRNMlKeLiCXHYguva
jZg8pNKEq/lVouTf7HXEn3Zk8fM7BRba2HmWoTS2B5+oGpkCAwEAAaOBvTCBujAJ
BgNVHRMEAjAAMB0GA1UdDgQWBBRGUhmYgEUdoFAGNEo32tv+KofihjBRBgNVHSME
SjBIgBRl//c2oHPTdMUyTR9lBuvoazK7daEapBgwFjEUMBIGA1UEAwwLdGVhbTIx
Ny1uZXSCFD87Hzlk4ltFTHvEvFyusX3su8feMBMGA1UdJQQMMAoGCCsGAQUFBwMB
MAsGA1UdDwQEAwIFoDAZBgNVHREEEjAQgg50ZWFtMjE3LXNlcnZlcjANBgkqhkiG
9w0BAQsFAAOCAQEAuaB6UuhA53IpsPhEQDCWpND63xoCdoWWiy2+Qu6B8+3Mgb2L
K9dKMyUEN99W4uPUO/uN74qy4MiVbBkd/gQsBMyZ+Kc0bpz11fJhP/4QFVfdGpbK
hRiFn6rWUuiagxwVeNtpXEqlA+QSywCCJKpHjh+1RVYhg5k8XoXuvInpaEK5PlfT
YAyOVUUKqbXIzBw717n1w8M72WYNMxFFKwHo8hF3Ure929SPOyAeqIpthkOPA3MF
fgaAcLbo5iFyloS1uis7UflAC+8/JRkK+JQGZVpqH7Rhqfkzw5hyn67WTbWZICm1
3xLpbg7rZLuE5JRTWxKDOFTjiZNV1+d6FdJPDA==
-----END CERTIFICATE-----
