Certificate:
    Data:
        Version: 3 (0x2)
        Serial Number:
            27:46:8e:93:72:f3:89:cb:b7:05:e5:7e:8d:33:4a:fa
        Signature Algorithm: sha256WithRSAEncryption
        Issuer: CN=team172-net
        Validity
            Not Before: Nov  4 10:43:44 2023 GMT
            Not After : Oct 19 10:43:44 2026 GMT
        Subject: CN=team172-client
        Subject Public Key Info:
            Public Key Algorithm: rsaEncryption
                Public-Key: (2048 bit)
                Modulus:
                    00:b8:9b:fc:c0:3a:a3:0a:15:9a:f7:b6:26:ed:83:
                    6c:88:d6:8f:f6:0c:e6:24:41:ba:30:bd:35:e4:1b:
                    ef:9d:1b:1e:56:ad:38:6b:88:af:d7:f6:ed:c9:20:
                    8a:44:20:01:7c:ee:c2:e5:f6:c0:83:ec:c9:c1:93:
                    2c:9d:07:bd:42:dc:c1:45:47:0e:e0:d0:6e:ca:79:
                    34:70:7e:fa:03:c4:88:3b:1d:b9:0a:df:f9:9b:f2:
                    cd:13:60:c7:a7:38:cb:c9:9d:97:02:0d:a1:04:5a:
                    3c:ec:68:73:bf:3c:e5:e6:0e:4c:fe:df:39:f6:20:
                    58:ef:41:a9:c1:ee:04:97:a9:67:b4:00:f1:54:54:
                    5a:5a:84:d5:1d:cb:d1:c6:ec:8c:0e:c1:49:0c:74:
                    18:e1:7d:ba:a2:16:4e:fb:0e:73:0d:35:71:67:f4:
                    fc:d0:02:de:a5:35:39:8e:93:2e:2e:fe:1c:f8:9b:
                    06:43:7b:77:18:e0:ab:f1:05:2a:00:7f:0f:f5:0a:
                    8e:23:19:45:1b:c5:91:91:d1:77:4b:0b:f2:be:61:
                    61:fd:b9:b0:dd:9e:4e:4a:cb:06:a4:c4:22:d5:79:
                    d3:4f:a1:37:d8:92:ab:5b:99:b9:37:8f:47:2e:c9:
                    a5:67:5b:85:d3:da:a6:64:98:58:4d:4b:2a:45:81:
                    90:e5
                Exponent: 65537 (0x10001)
        X509v3 extensions:
            X509v3 Basic Constraints: 
                CA:FALSE
            X509v3 Subject Key Identifier: 
                89:60:4E:0D:AB:46:77:19:C1:A0:F0:16:95:9B:39:A4:7E:DA:45:3D
            X509v3 Authority Key Identifier: 
                keyid:D3:9A:9A:8B:CC:4E:23:D9:7F:1C:C0:4B:D7:3E:B0:5D:7C:19:12:8C
                DirName:/CN=team172-net
                serial:55:7B:B1:16:C0:FE:A5:5A:1E:0A:6E:33:60:34:6F:F5:70:FB:05:AE
            X509v3 Extended Key Usage: 
                TLS Web Client Authentication
            X509v3 Key Usage: 
                Digital Signature
    Signature Algorithm: sha256WithRSAEncryption
    Signature Value:
        5c:9e:6c:3f:6a:14:57:da:7c:10:af:13:3b:e7:47:95:5a:91:
        c9:1d:f4:33:6d:fd:c6:ab:bc:5f:ee:00:6f:1c:d5:07:eb:1d:
        e8:56:99:1d:00:db:29:5b:66:fb:b1:cc:38:8c:b7:a8:33:be:
        a1:01:24:f6:b9:12:07:6e:ec:51:49:73:41:45:e9:a3:1a:6c:
        ab:66:51:4b:9a:7a:fb:ba:b7:24:a4:fb:4a:a8:34:d5:56:c6:
        14:93:db:db:6e:a2:45:d0:dd:28:7e:90:d1:7c:44:45:e6:f1:
        79:08:af:b8:3f:ba:95:84:f0:8f:46:89:fd:96:cf:90:80:e1:
        61:20:65:d2:de:14:4a:58:fe:98:63:99:1b:b3:38:0b:a8:fe:
        4e:1d:9a:ed:20:02:e8:3d:c4:c8:72:63:24:78:ac:e0:75:63:
        b8:fb:8f:c3:53:7e:1c:32:58:4c:83:03:fe:c4:3c:8f:6a:c1:
        f9:54:71:d0:73:c6:79:4c:92:ac:38:cc:11:6a:1c:07:8c:f2:
        d7:c9:6c:01:9d:d8:9d:0a:c5:88:77:f3:be:93:f0:77:91:1f:
        d5:61:63:c4:10:b9:95:04:ad:6d:e6:2e:5f:26:7f:62:e7:00:
        88:78:4d:c6:d6:69:a2:0d:c4:9f:ac:35:3d:ee:96:4d:ad:f7:
        e5:10:45:d6
-----BEGIN CERTIFICATE-----
MIIDXDCCAkSgAwIBAgIQJ0aOk3Lzicu3BeV+jTNK+jANBgkqhkiG9w0BAQsFADAW
MRQwEgYDVQQDDAt0ZWFtMTcyLW5ldDAeFw0yMzExMDQxMDQzNDRaFw0yNjEwMTkx
MDQzNDRaMBkxFzAVBgNVBAMMDnRlYW0xNzItY2xpZW50MIIBIjANBgkqhkiG9w0B
AQEFAAOCAQ8AMIIBCgKCAQEAuJv8wDqjChWa97Ym7YNsiNaP9gzmJEG6ML015Bvv
nRseVq04a4iv1/btySCKRCABfO7C5fbAg+zJwZMsnQe9QtzBRUcO4NBuynk0cH76
A8SIOx25Ct/5m/LNE2DHpzjLyZ2XAg2hBFo87Ghzvzzl5g5M/t859iBY70Gpwe4E
l6lntADxVFRaWoTVHcvRxuyMDsFJDHQY4X26ohZO+w5zDTVxZ/T80ALepTU5jpMu
Lv4c+JsGQ3t3GOCr8QUqAH8P9QqOIxlFG8WRkdF3SwvyvmFh/bmw3Z5OSssGpMQi
1XnTT6E32JKrW5m5N49HLsmlZ1uF09qmZJhYTUsqRYGQ5QIDAQABo4GiMIGfMAkG
A1UdEwQCMAAwHQYDVR0OBBYEFIlgTg2rRncZwaDwFpWbOaR+2kU9MFEGA1UdIwRK
MEiAFNOamovMTiPZfxzAS9c+sF18GRKMoRqkGDAWMRQwEgYDVQQDDAt0ZWFtMTcy
LW5ldIIUVXuxFsD+pVoeCm4zYDRv9XD7Ba4wEwYDVR0lBAwwCgYIKwYBBQUHAwIw
CwYDVR0PBAQDAgeAMA0GCSqGSIb3DQEBCwUAA4IBAQBcnmw/ahRX2nwQrxM750eV
WpHJHfQzbf3Gq7xf7gBvHNUH6x3oVpkdANspW2b7scw4jLeoM76hAST2uRIHbuxR
SXNBRemjGmyrZlFLmnr7urckpPtKqDTVVsYUk9vbbqJF0N0ofpDRfERF5vF5CK+4
P7qVhPCPRon9ls+QgOFhIGXS3hRKWP6YY5kbszgLqP5OHZrtIALoPcTIcmMkeKzg
dWO4+4/DU34cMlhMgwP+xDyPasH5VHHQc8Z5TJKsOMwRahwHjPLXyWwBndidCsWI
d/O+k/B3kR/VYWPEELmVBK1t5i5fJn9i5wCIeE3G1mmiDcSfrDU97pZNrfflEEXW
-----END CERTIFICATE-----
