Certificate:
    Data:
        Version: 3 (0x2)
        Serial Number:
            8d:9d:0c:65:27:5e:aa:6a:57:e6:b7:51:e8:ee:60:a1
        Signature Algorithm: sha256WithRSAEncryption
        Issuer: CN=team172-net
        Validity
            Not Before: Nov  3 20:42:20 2023 GMT
            Not After : Oct 18 20:42:20 2026 GMT
        Subject: CN=team172-client
        Subject Public Key Info:
            Public Key Algorithm: rsaEncryption
                Public-Key: (2048 bit)
                Modulus:
                    00:e0:36:bb:e8:bb:36:77:20:95:f4:b6:b9:d1:8a:
                    0f:11:da:dd:02:41:82:25:70:d8:31:58:b2:33:06:
                    5c:be:83:e7:f6:4d:87:fb:40:12:13:7b:6f:53:d6:
                    65:23:10:c2:c5:34:d1:e5:bd:01:f5:b1:4d:b5:28:
                    56:2b:60:94:c2:96:04:fe:18:91:61:d0:86:cb:66:
                    97:d2:57:1b:fd:d8:bd:8d:02:af:6f:b1:ee:35:f0:
                    d5:d3:f9:a4:87:62:95:45:68:41:dc:94:2b:fa:34:
                    81:f9:4e:c0:c5:3d:bc:62:ad:ee:37:36:0b:cc:c7:
                    c3:4a:95:cd:61:76:e1:21:e8:7d:ea:63:71:07:45:
                    9a:ed:14:f0:ce:56:f7:89:5b:79:70:66:74:5b:21:
                    a1:54:6c:0a:2d:d5:85:52:48:46:61:4e:ed:35:c1:
                    c2:fd:c9:90:be:a4:c6:2d:1c:ef:4c:cf:a8:6a:c6:
                    3f:ed:2e:bc:de:cd:79:bf:7b:97:76:b7:64:b0:e2:
                    84:b7:6d:60:f5:36:5a:9b:1a:7a:90:3d:2d:a4:da:
                    27:34:6e:5f:d9:45:fc:47:f0:01:b6:ca:b1:01:88:
                    8f:4e:f2:7c:cf:c8:ca:f1:63:20:f4:d2:9b:16:b4:
                    88:1a:9c:d1:b4:86:b5:0e:aa:76:7c:da:e7:8b:b0:
                    f0:9d
                Exponent: 65537 (0x10001)
        X509v3 extensions:
            X509v3 Basic Constraints: 
                CA:FALSE
            X509v3 Subject Key Identifier: 
                E3:89:E8:CB:AE:1B:F1:53:B5:16:C3:F0:D9:AB:2A:F0:29:BB:66:B5
            X509v3 Authority Key Identifier: 
                keyid:F3:79:20:83:C9:8A:E8:86:40:3E:E2:4B:04:8F:BE:3C:6C:BE:81:7E
                DirName:/CN=team172-net
                serial:4B:98:7A:FC:BD:2A:10:EA:24:62:D9:24:7E:C0:B8:25:0E:60:7F:31
            X509v3 Extended Key Usage: 
                TLS Web Client Authentication
            X509v3 Key Usage: 
                Digital Signature
    Signature Algorithm: sha256WithRSAEncryption
    Signature Value:
        4e:e4:48:80:d4:f1:1b:9a:6a:8b:0a:19:fc:91:e7:c1:87:d3:
        37:a2:c7:b1:0d:89:73:f2:15:dd:fb:72:41:00:4e:00:71:2e:
        b0:6d:d9:cf:d9:13:de:43:1a:43:54:ed:ef:f6:e6:8d:6c:e6:
        02:2e:ec:11:5e:ee:e7:e7:83:4b:b0:10:11:be:a6:61:c5:7a:
        86:95:25:72:11:c7:1a:51:8f:f1:18:e4:99:b9:f6:7d:67:61:
        a1:d2:97:7a:10:ca:06:23:86:d6:c5:97:5b:33:4a:16:e7:6d:
        3e:ae:ba:0f:56:b3:76:41:76:d8:0e:ef:2c:65:9c:33:2a:80:
        e7:51:6a:19:68:92:02:0d:4d:8f:44:79:db:0b:af:c9:08:a7:
        de:f0:c6:da:00:88:6a:5b:56:d4:30:18:6a:ea:f2:5f:06:06:
        49:54:1f:1f:9a:9d:71:ad:ed:7e:d8:d1:fe:78:b5:17:10:aa:
        b4:e7:e4:11:73:7a:90:59:80:90:4c:84:b0:b2:1d:72:8b:d6:
        ba:ee:bb:30:63:11:8c:0d:a3:f3:20:4f:9c:1c:7c:9f:83:ad:
        29:d3:a9:f6:28:e8:54:8f:b8:f5:bd:a7:68:01:13:4f:f4:12:
        b0:bd:22:14:77:07:e0:0d:9e:ee:f7:93:43:a1:40:3c:f2:c4:
        ab:6f:f4:9e
-----BEGIN CERTIFICATE-----
MIIDXTCCAkWgAwIBAgIRAI2dDGUnXqpqV+a3UejuYKEwDQYJKoZIhvcNAQELBQAw
FjEUMBIGA1UEAwwLdGVhbTE3Mi1uZXQwHhcNMjMxMTAzMjA0MjIwWhcNMjYxMDE4
MjA0MjIwWjAZMRcwFQYDVQQDDA50ZWFtMTcyLWNsaWVudDCCASIwDQYJKoZIhvcN
AQEBBQADggEPADCCAQoCggEBAOA2u+i7NncglfS2udGKDxHa3QJBgiVw2DFYsjMG
XL6D5/ZNh/tAEhN7b1PWZSMQwsU00eW9AfWxTbUoVitglMKWBP4YkWHQhstml9JX
G/3YvY0Cr2+x7jXw1dP5pIdilUVoQdyUK/o0gflOwMU9vGKt7jc2C8zHw0qVzWF2
4SHofepjcQdFmu0U8M5W94lbeXBmdFshoVRsCi3VhVJIRmFO7TXBwv3JkL6kxi0c
70zPqGrGP+0uvN7Neb97l3a3ZLDihLdtYPU2WpsaepA9LaTaJzRuX9lF/EfwAbbK
sQGIj07yfM/IyvFjIPTSmxa0iBqc0bSGtQ6qdnza54uw8J0CAwEAAaOBojCBnzAJ
BgNVHRMEAjAAMB0GA1UdDgQWBBTjiejLrhvxU7UWw/DZqyrwKbtmtTBRBgNVHSME
SjBIgBTzeSCDyYrohkA+4ksEj748bL6BfqEapBgwFjEUMBIGA1UEAwwLdGVhbTE3
Mi1uZXSCFEuYevy9KhDqJGLZJH7AuCUOYH8xMBMGA1UdJQQMMAoGCCsGAQUFBwMC
MAsGA1UdDwQEAwIHgDANBgkqhkiG9w0BAQsFAAOCAQEATuRIgNTxG5pqiwoZ/JHn
wYfTN6LHsQ2Jc/IV3ftyQQBOAHEusG3Zz9kT3kMaQ1Tt7/bmjWzmAi7sEV7u5+eD
S7AQEb6mYcV6hpUlchHHGlGP8Rjkmbn2fWdhodKXehDKBiOG1sWXWzNKFudtPq66
D1azdkF22A7vLGWcMyqA51FqGWiSAg1Nj0R52wuvyQin3vDG2gCIaltW1DAYaury
XwYGSVQfH5qdca3tftjR/ni1FxCqtOfkEXN6kFmAkEyEsLIdcovWuu67MGMRjA2j
8yBPnBx8n4OtKdOp9ijoVI+49b2naAETT/QSsL0iFHcH4A2e7veTQ6FAPPLEq2/0
ng==
-----END CERTIFICATE-----
