Certificate:
    Data:
        Version: 3 (0x2)
        Serial Number:
            98:29:9c:3e:5e:f4:ff:e9:2a:c0:6d:97:52:00:27:0a
        Signature Algorithm: sha256WithRSAEncryption
        Issuer: CN=team172-net
        Validity
            Not Before: Nov  4 10:43:45 2023 GMT
            Not After : Oct 19 10:43:45 2026 GMT
        Subject: CN=team172-server
        Subject Public Key Info:
            Public Key Algorithm: rsaEncryption
                Public-Key: (2048 bit)
                Modulus:
                    00:a9:79:5b:f0:b3:fe:3a:ed:e0:cd:b7:96:26:d1:
                    f7:f4:8b:23:c0:36:c3:7d:c2:4b:6b:26:d6:77:29:
                    26:4b:ad:40:2d:3e:d9:d2:bf:5d:8c:e5:07:6d:a3:
                    2d:81:37:33:53:f6:8d:33:85:f5:cb:d1:fd:19:4a:
                    6b:e1:71:e1:bf:59:83:c3:b6:dd:66:26:bf:6f:d1:
                    ff:7c:73:16:8e:49:bf:8a:e6:35:8d:13:68:ca:4b:
                    4f:49:4a:b3:e6:d8:bb:de:9d:27:9e:29:e3:6e:43:
                    d5:06:1e:c1:75:93:a3:03:65:12:96:ab:1a:e7:dc:
                    76:ef:d8:d3:c7:0f:64:f1:e9:d8:ea:19:39:5f:6d:
                    ef:d8:70:cd:e0:a4:c0:1d:23:93:6a:e0:9d:99:86:
                    0a:cb:f2:5a:54:dd:60:cb:41:04:45:94:ac:38:31:
                    fe:d8:e3:97:13:69:ed:aa:2e:32:fc:f6:23:20:93:
                    5a:ca:93:b2:bc:d4:9b:ed:f3:6b:ae:6e:f0:02:a7:
                    6a:9e:d4:be:8f:c2:8d:d0:87:0e:84:f1:a8:ff:e4:
                    3c:6e:3c:32:29:1b:ff:a9:76:27:e0:12:b6:7f:1c:
                    4d:9d:1d:8c:2a:58:88:2c:b3:71:a6:44:04:d4:8f:
                    6d:24:f3:11:dd:60:47:e5:d0:1c:32:bb:e3:0b:b9:
                    08:e7
                Exponent: 65537 (0x10001)
        X509v3 extensions:
            X509v3 Basic Constraints: 
                CA:FALSE
            X509v3 Subject Key Identifier: 
                1C:E0:CE:0A:12:71:62:9A:6A:5D:B6:65:B5:98:3E:3D:B0:0F:20:32
            X509v3 Authority Key Identifier: 
                keyid:D3:9A:9A:8B:CC:4E:23:D9:7F:1C:C0:4B:D7:3E:B0:5D:7C:19:12:8C
                DirName:/CN=team172-net
                serial:55:7B:B1:16:C0:FE:A5:5A:1E:0A:6E:33:60:34:6F:F5:70:FB:05:AE
            X509v3 Extended Key Usage: 
                TLS Web Server Authentication
            X509v3 Key Usage: 
                Digital Signature, Key Encipherment
            X509v3 Subject Alternative Name: 
                DNS:team172-server
    Signature Algorithm: sha256WithRSAEncryption
    Signature Value:
        36:33:3d:6c:c7:4d:83:62:d5:44:51:5b:4c:24:ff:6b:c8:31:
        f4:b7:92:a6:2f:14:03:1e:81:16:1f:28:59:d1:20:0e:be:df:
        50:1d:2f:a8:44:03:c1:bc:d1:b1:6b:12:06:c9:d4:6a:ba:6d:
        61:6f:6f:65:1a:49:dd:e7:30:d3:f8:06:08:b6:95:f3:2c:6b:
        c0:67:5c:2f:27:5a:dc:34:e3:9b:1c:00:a2:19:2c:cd:51:bf:
        07:76:5d:a6:d2:36:97:ea:26:cc:48:cd:b9:63:2b:4c:f1:35:
        d8:ef:c8:ad:fd:e6:e4:ea:6c:8d:d9:f4:cf:f7:6f:cf:7f:13:
        5c:86:b6:d8:12:c3:2a:dd:5f:cb:84:91:a8:d0:bb:bd:c9:19:
        e9:28:57:86:4d:c7:b1:9f:30:46:8f:77:35:b4:10:9c:e2:1c:
        e9:ba:09:87:48:0c:8c:71:6e:ba:0a:52:a7:bc:fc:1c:52:d5:
        3a:d8:e9:e3:de:32:96:5b:eb:b3:e6:5d:95:5c:cd:78:d1:0d:
        10:f1:76:45:36:94:03:56:c5:85:c5:8b:71:cc:a5:d6:ac:94:
        2f:ec:44:8b:3d:81:a8:4a:33:0b:78:e9:6d:4d:1f:96:fa:d5:
        ed:f2:3a:87:0d:c2:e6:a5:ea:d3:dd:54:d9:21:70:a6:f3:97:
        dd:41:e4:0e
-----BEGIN CERTIFICATE-----
MIIDeDCCAmCgAwIBAgIRAJgpnD5e9P/pKsBtl1IAJwowDQYJKoZIhvcNAQELBQAw
FjEUMBIGA1UEAwwLdGVhbTE3Mi1uZXQwHhcNMjMxMTA0MTA0MzQ1WhcNMjYxMDE5
MTA0MzQ1WjAZMRcwFQYDVQQDDA50ZWFtMTcyLXNlcnZlcjCCASIwDQYJKoZIhvcN
AQEBBQADggEPADCCAQoCggEBAKl5W/Cz/jrt4M23libR9/SLI8A2w33CS2sm1ncp
JkutQC0+2dK/XYzlB22jLYE3M1P2jTOF9cvR/RlKa+Fx4b9Zg8O23WYmv2/R/3xz
Fo5Jv4rmNY0TaMpLT0lKs+bYu96dJ54p425D1QYewXWTowNlEparGufcdu/Y08cP
ZPHp2OoZOV9t79hwzeCkwB0jk2rgnZmGCsvyWlTdYMtBBEWUrDgx/tjjlxNp7aou
Mvz2IyCTWsqTsrzUm+3za65u8AKnap7Uvo/CjdCHDoTxqP/kPG48Mikb/6l2J+AS
tn8cTZ0djCpYiCyzcaZEBNSPbSTzEd1gR+XQHDK74wu5COcCAwEAAaOBvTCBujAJ
BgNVHRMEAjAAMB0GA1UdDgQWBBQc4M4KEnFimmpdtmW1mD49sA8gMjBRBgNVHSME
SjBIgBTTmpqLzE4j2X8cwEvXPrBdfBkSjKEapBgwFjEUMBIGA1UEAwwLdGVhbTE3
Mi1uZXSCFFV7sRbA/qVaHgpuM2A0b/Vw+wWuMBMGA1UdJQQMMAoGCCsGAQUFBwMB
MAsGA1UdDwQEAwIFoDAZBgNVHREEEjAQgg50ZWFtMTcyLXNlcnZlcjANBgkqhkiG
9w0BAQsFAAOCAQEANjM9bMdNg2LVRFFbTCT/a8gx9LeSpi8UAx6BFh8oWdEgDr7f
UB0vqEQDwbzRsWsSBsnUarptYW9vZRpJ3ecw0/gGCLaV8yxrwGdcLyda3DTjmxwA
ohkszVG/B3ZdptI2l+omzEjNuWMrTPE12O/Irf3m5Opsjdn0z/dvz38TXIa22BLD
Kt1fy4SRqNC7vckZ6ShXhk3HsZ8wRo93NbQQnOIc6boJh0gMjHFuugpSp7z8HFLV
Otjp494yllvrs+ZdlVzNeNENEPF2RTaUA1bFhcWLccyl1qyUL+xEiz2BqEozC3jp
bU0flvrV7fI6hw3C5qXq091U2SFwpvOX3UHkDg==
-----END CERTIFICATE-----
