Certificate:
    Data:
        Version: 3 (0x2)
        Serial Number:
            97:bd:db:75:de:ba:71:d0:0e:60:91:b3:ae:39:af:b9
        Signature Algorithm: sha256WithRSAEncryption
        Issuer: CN=team386-net
        Validity
            Not Before: Nov  4 10:47:38 2023 GMT
            Not After : Oct 19 10:47:38 2026 GMT
        Subject: CN=team386-server
        Subject Public Key Info:
            Public Key Algorithm: rsaEncryption
                Public-Key: (2048 bit)
                Modulus:
                    00:ac:01:f8:8a:67:40:22:dc:88:b7:b6:02:ee:d6:
                    dc:02:de:bd:e4:ea:3d:9e:80:5f:8c:47:a6:1c:26:
                    d6:05:68:4e:09:6a:27:09:f0:ac:8c:fd:26:c9:13:
                    2b:f6:9c:8a:69:a9:9a:8d:f4:30:b5:d3:3b:77:95:
                    3a:aa:3d:a0:9c:b6:95:3e:1a:c7:dd:36:11:c2:e6:
                    5d:0c:51:b7:a1:04:48:ea:ab:7b:83:9e:a4:da:a1:
                    d4:d0:03:90:25:ce:c1:2f:de:35:60:8a:3a:d7:e1:
                    47:7c:11:1a:c1:01:4c:76:b9:aa:e8:90:0a:2e:2d:
                    31:6f:c3:74:62:30:b5:56:9a:fb:7a:b1:bd:8b:4c:
                    e0:fa:37:a4:7f:e0:28:cf:6b:46:b8:7e:08:14:a9:
                    87:ed:aa:b1:cb:27:52:97:14:17:92:d8:87:23:c0:
                    cb:96:45:3c:d7:61:14:9f:0c:89:a1:a3:12:da:72:
                    b4:45:8d:86:f4:50:0d:a6:6a:69:71:f3:7d:1c:5f:
                    9c:16:61:97:54:04:be:33:1b:05:e6:ff:54:91:78:
                    92:39:3e:fb:66:a9:a9:7d:a4:0c:35:a3:b8:85:77:
                    7a:c4:52:ca:fb:c6:87:9f:5f:f0:72:13:88:85:bd:
                    23:85:06:1b:a4:20:70:59:d8:d0:b7:30:11:d7:09:
                    95:8f
                Exponent: 65537 (0x10001)
        X509v3 extensions:
            X509v3 Basic Constraints: 
                CA:FALSE
            X509v3 Subject Key Identifier: 
                DF:5B:F3:E2:DC:D3:59:01:ED:62:0B:1B:B1:2E:4D:FD:15:66:A0:35
            X509v3 Authority Key Identifier: 
                keyid:F7:0D:DA:E3:B5:28:DE:80:A7:0F:0C:64:3F:C3:EA:0E:71:B8:90:90
                DirName:/CN=team386-net
                serial:71:B2:B6:02:91:8E:09:D4:29:15:7C:62:60:05:91:65:D9:21:65:E0
            X509v3 Extended Key Usage: 
                TLS Web Server Authentication
            X509v3 Key Usage: 
                Digital Signature, Key Encipherment
            X509v3 Subject Alternative Name: 
                DNS:team386-server
    Signature Algorithm: sha256WithRSAEncryption
    Signature Value:
        81:c0:85:f5:17:2b:43:ab:83:a8:2a:9c:1b:13:79:de:65:30:
        78:85:cf:a6:68:3f:fb:6f:8f:8a:30:60:09:74:1b:01:d4:1d:
        02:34:b9:9d:75:03:ae:e4:f4:ee:fd:0b:73:46:9f:e8:86:b0:
        94:e0:f5:61:cf:82:0e:7f:e6:58:21:0c:ed:f8:44:d8:2b:53:
        a0:4a:f7:45:15:e6:20:f1:2f:1d:79:61:ae:b5:45:17:f7:80:
        7c:af:90:83:b9:d2:e7:45:d6:99:11:44:95:95:6a:2a:36:d1:
        a9:aa:67:14:27:d4:c2:16:f5:a8:74:c8:fb:56:32:c1:62:f0:
        38:82:52:64:50:90:00:4b:55:63:07:f8:fb:08:a1:39:2e:99:
        2d:01:aa:7e:75:58:40:8e:83:2a:6d:06:59:c7:5f:9b:63:66:
        b9:82:25:e3:a4:ae:d8:2a:41:e2:19:2e:80:9c:58:bc:00:80:
        f3:f7:1e:0a:37:14:98:5f:33:7b:75:1e:ca:ae:84:bf:d8:14:
        55:22:03:92:ba:62:9e:fd:77:67:01:02:48:3f:f8:f9:e6:a3:
        4a:12:6c:d7:ec:d5:ac:45:e0:92:32:d8:6e:ac:69:1a:7b:37:
        75:e3:8e:69:3b:55:2b:f0:e6:c4:01:a4:e0:8a:7a:74:82:7f:
        41:c9:95:0e
-----BEGIN CERTIFICATE-----
MIIDeDCCAmCgAwIBAgIRAJe923XeunHQDmCRs645r7kwDQYJKoZIhvcNAQELBQAw
FjEUMBIGA1UEAwwLdGVhbTM4Ni1uZXQwHhcNMjMxMTA0MTA0NzM4WhcNMjYxMDE5
MTA0NzM4WjAZMRcwFQYDVQQDDA50ZWFtMzg2LXNlcnZlcjCCASIwDQYJKoZIhvcN
AQEBBQADggEPADCCAQoCggEBAKwB+IpnQCLciLe2Au7W3ALeveTqPZ6AX4xHphwm
1gVoTglqJwnwrIz9JskTK/acimmpmo30MLXTO3eVOqo9oJy2lT4ax902EcLmXQxR
t6EESOqre4OepNqh1NADkCXOwS/eNWCKOtfhR3wRGsEBTHa5quiQCi4tMW/DdGIw
tVaa+3qxvYtM4Po3pH/gKM9rRrh+CBSph+2qscsnUpcUF5LYhyPAy5ZFPNdhFJ8M
iaGjEtpytEWNhvRQDaZqaXHzfRxfnBZhl1QEvjMbBeb/VJF4kjk++2apqX2kDDWj
uIV3esRSyvvGh59f8HITiIW9I4UGG6QgcFnY0LcwEdcJlY8CAwEAAaOBvTCBujAJ
BgNVHRMEAjAAMB0GA1UdDgQWBBTfW/Pi3NNZAe1iCxuxLk39FWagNTBRBgNVHSME
SjBIgBT3DdrjtSjegKcPDGQ/w+oOcbiQkKEapBgwFjEUMBIGA1UEAwwLdGVhbTM4
Ni1uZXSCFHGytgKRjgnUKRV8YmAFkWXZIWXgMBMGA1UdJQQMMAoGCCsGAQUFBwMB
MAsGA1UdDwQEAwIFoDAZBgNVHREEEjAQgg50ZWFtMzg2LXNlcnZlcjANBgkqhkiG
9w0BAQsFAAOCAQEAgcCF9RcrQ6uDqCqcGxN53mUweIXPpmg/+2+PijBgCXQbAdQd
AjS5nXUDruT07v0Lc0af6IawlOD1Yc+CDn/mWCEM7fhE2CtToEr3RRXmIPEvHXlh
rrVFF/eAfK+Qg7nS50XWmRFElZVqKjbRqapnFCfUwhb1qHTI+1YywWLwOIJSZFCQ
AEtVYwf4+wihOS6ZLQGqfnVYQI6DKm0GWcdfm2NmuYIl46Su2CpB4hkugJxYvACA
8/ceCjcUmF8ze3Ueyq6Ev9gUVSIDkrpinv13ZwECSD/4+eajShJs1+zVrEXgkjLY
bqxpGns3deOOaTtVK/DmxAGk4Ip6dIJ/QcmVDg==
-----END CERTIFICATE-----
