Certificate:
    Data:
        Version: 3 (0x2)
        Serial Number:
            ee:57:ed:8c:5b:a9:8e:d1:fc:4c:19:23:b6:0d:aa:2d
        Signature Algorithm: sha256WithRSAEncryption
        Issuer: CN=team386-net
        Validity
            Not Before: Nov  4 11:36:09 2023 GMT
            Not After : Oct 19 11:36:09 2026 GMT
        Subject: CN=team386-server
        Subject Public Key Info:
            Public Key Algorithm: rsaEncryption
                Public-Key: (2048 bit)
                Modulus:
                    00:b8:73:88:61:31:f7:d4:f8:dc:30:90:1e:73:21:
                    5a:df:36:b4:55:75:7c:6f:4e:08:50:87:9a:89:40:
                    66:f1:36:ee:56:d4:25:29:ef:64:a7:46:a1:c6:9e:
                    26:25:77:73:25:4a:ce:d6:0a:47:7e:cc:a8:54:49:
                    cf:92:a6:49:8f:53:ef:84:3e:4a:88:63:7d:48:8f:
                    c0:b0:7a:b9:b7:50:53:8f:8e:81:45:31:27:5f:8f:
                    26:7b:ee:f8:96:d2:a1:9f:2a:d3:7c:06:f6:d9:23:
                    a6:f3:45:65:6e:54:34:4e:1b:85:ec:48:c1:63:ad:
                    c8:66:6c:39:a8:41:e4:1f:fe:76:4e:a1:ae:fe:52:
                    3f:1b:96:0a:fc:8d:a8:6f:eb:e6:6a:ca:b0:63:ad:
                    b2:9e:0f:22:5e:04:2d:c0:0a:9f:da:2b:de:7c:fc:
                    79:1e:2e:12:1d:bb:48:8a:3b:40:c7:48:0e:27:f5:
                    1a:28:1c:33:dc:10:e6:b8:38:7d:dc:78:e9:44:10:
                    24:5e:5b:18:2c:f2:da:e5:04:76:98:07:8e:9d:bd:
                    04:81:34:d6:0b:f1:da:56:00:27:b3:c6:e5:f7:1f:
                    c7:5c:d5:a9:c4:56:8a:bf:3c:2c:89:d0:bb:02:eb:
                    d2:af:f7:20:ca:2c:0a:8c:59:d2:2f:35:14:aa:8c:
                    52:65
                Exponent: 65537 (0x10001)
        X509v3 extensions:
            X509v3 Basic Constraints: 
                CA:FALSE
            X509v3 Subject Key Identifier: 
                C1:FF:30:9B:7D:33:70:20:EE:C9:62:B3:A5:F8:2A:E4:83:CF:26:AA
            X509v3 Authority Key Identifier: 
                keyid:D5:EE:24:9B:A5:F2:85:50:8F:67:7D:76:B1:99:B7:4C:89:9D:4A:CF
                DirName:/CN=team386-net
                serial:71:2C:5D:F2:7D:52:30:1E:A6:C9:AD:19:C3:82:C8:D8:60:73:30:CE
            X509v3 Extended Key Usage: 
                TLS Web Server Authentication
            X509v3 Key Usage: 
                Digital Signature, Key Encipherment
            X509v3 Subject Alternative Name: 
                DNS:team386-server
    Signature Algorithm: sha256WithRSAEncryption
    Signature Value:
        78:af:0f:87:36:d8:5a:2f:2a:04:f6:c8:bc:de:50:90:07:4a:
        b5:3f:49:62:a5:2a:4b:73:14:4e:56:2a:7f:be:0c:08:2e:98:
        41:16:f9:78:cb:70:18:bc:ca:f4:d5:9d:07:0a:6d:67:c6:e2:
        c9:17:34:ac:cc:3f:f6:fa:35:5a:a5:11:81:9b:90:73:e0:a7:
        5c:3e:c6:03:e6:50:10:e7:e3:c3:c0:e0:89:00:cc:78:8e:c5:
        16:4f:b6:bd:9d:1b:e9:a6:ab:9e:0b:1a:02:c8:45:57:2a:60:
        18:15:d5:36:6b:9a:8e:8f:5c:6b:24:0c:ee:b3:44:a2:89:e3:
        74:6a:b1:b8:8e:48:96:9c:59:b2:2c:c6:41:3e:76:b2:29:ed:
        3c:a5:63:3d:27:43:b7:7a:b7:7b:9c:04:42:42:68:d3:d6:ef:
        77:3f:17:90:27:08:97:7d:49:2f:aa:3e:72:5a:bd:1c:a5:82:
        0c:2d:1a:87:6f:11:16:ca:e3:72:55:a6:63:a7:9e:d9:21:8c:
        54:8b:62:38:1e:84:c9:3d:a7:6e:10:13:a4:00:b1:7a:df:b6:
        4b:39:60:d9:4e:16:1a:e0:c2:8e:f1:b0:3c:d7:78:54:e1:e4:
        59:53:55:31:e4:cb:8a:22:36:ee:dd:b9:e5:08:ba:87:99:19:
        c6:71:0a:2a
-----BEGIN CERTIFICATE-----
MIIDeDCCAmCgAwIBAgIRAO5X7YxbqY7R/EwZI7YNqi0wDQYJKoZIhvcNAQELBQAw
FjEUMBIGA1UEAwwLdGVhbTM4Ni1uZXQwHhcNMjMxMTA0MTEzNjA5WhcNMjYxMDE5
MTEzNjA5WjAZMRcwFQYDVQQDDA50ZWFtMzg2LXNlcnZlcjCCASIwDQYJKoZIhvcN
AQEBBQADggEPADCCAQoCggEBALhziGEx99T43DCQHnMhWt82tFV1fG9OCFCHmolA
ZvE27lbUJSnvZKdGocaeJiV3cyVKztYKR37MqFRJz5KmSY9T74Q+SohjfUiPwLB6
ubdQU4+OgUUxJ1+PJnvu+JbSoZ8q03wG9tkjpvNFZW5UNE4bhexIwWOtyGZsOahB
5B/+dk6hrv5SPxuWCvyNqG/r5mrKsGOtsp4PIl4ELcAKn9or3nz8eR4uEh27SIo7
QMdIDif1GigcM9wQ5rg4fdx46UQQJF5bGCzy2uUEdpgHjp29BIE01gvx2lYAJ7PG
5fcfx1zVqcRWir88LInQuwLr0q/3IMosCoxZ0i81FKqMUmUCAwEAAaOBvTCBujAJ
BgNVHRMEAjAAMB0GA1UdDgQWBBTB/zCbfTNwIO7JYrOl+Crkg88mqjBRBgNVHSME
SjBIgBTV7iSbpfKFUI9nfXaxmbdMiZ1Kz6EapBgwFjEUMBIGA1UEAwwLdGVhbTM4
Ni1uZXSCFHEsXfJ9UjAepsmtGcOCyNhgczDOMBMGA1UdJQQMMAoGCCsGAQUFBwMB
MAsGA1UdDwQEAwIFoDAZBgNVHREEEjAQgg50ZWFtMzg2LXNlcnZlcjANBgkqhkiG
9w0BAQsFAAOCAQEAeK8PhzbYWi8qBPbIvN5QkAdKtT9JYqUqS3MUTlYqf74MCC6Y
QRb5eMtwGLzK9NWdBwptZ8biyRc0rMw/9vo1WqURgZuQc+CnXD7GA+ZQEOfjw8Dg
iQDMeI7FFk+2vZ0b6aarngsaAshFVypgGBXVNmuajo9cayQM7rNEoonjdGqxuI5I
lpxZsizGQT52sintPKVjPSdDt3q3e5wEQkJo09bvdz8XkCcIl31JL6o+clq9HKWC
DC0ah28RFsrjclWmY6ee2SGMVItiOB6EyT2nbhATpACxet+2Szlg2U4WGuDCjvGw
PNd4VOHkWVNVMeTLiiI27t255Qi6h5kZxnEKKg==
-----END CERTIFICATE-----
