Certificate:
    Data:
        Version: 3 (0x2)
        Serial Number:
            6a:8e:fc:97:09:f5:67:56:93:e7:f3:b0:f0:37:14:04
        Signature Algorithm: sha256WithRSAEncryption
        Issuer: CN=team374-net
        Validity
            Not Before: Nov  4 10:47:25 2023 GMT
            Not After : Oct 19 10:47:25 2026 GMT
        Subject: CN=team374-server
        Subject Public Key Info:
            Public Key Algorithm: rsaEncryption
                Public-Key: (2048 bit)
                Modulus:
                    00:ba:d7:47:71:7b:9a:18:2c:41:18:07:6f:b4:db:
                    25:b9:22:5a:c1:64:79:f8:78:2d:3a:cb:a0:2d:9b:
                    74:3e:5b:a3:b1:2c:10:be:ec:47:7c:49:dd:44:2d:
                    89:e1:42:05:b1:8c:30:20:40:11:c1:45:e7:2c:dc:
                    0f:3d:7c:05:61:b0:4f:1a:88:cc:72:93:f3:b8:e8:
                    ca:0a:c3:25:83:ec:c6:cd:b5:1e:ae:01:74:89:38:
                    0a:8a:9e:9a:9d:e1:9f:39:5f:6b:34:c1:b2:be:e2:
                    03:bd:ce:9a:b1:f1:a1:2a:fe:bc:2e:da:e7:b5:89:
                    55:f4:85:22:b7:19:6f:8a:f5:9e:58:06:2d:2c:43:
                    0a:d1:01:63:5a:2f:98:5d:e9:b2:18:c8:f2:d8:e9:
                    01:ce:0e:9a:96:9c:ed:93:e9:2b:77:82:b6:55:e6:
                    29:00:35:29:3c:cf:4d:e8:4c:e8:bf:fb:24:d9:ca:
                    91:ce:f5:30:43:e5:de:bc:cb:45:03:88:25:d2:d0:
                    e2:96:12:ba:3b:11:a8:38:66:55:43:c2:76:2f:d3:
                    80:ba:af:2b:9e:46:85:f6:86:75:61:1c:ac:23:40:
                    1f:ef:13:0c:87:f0:b7:dc:5a:9b:6d:31:a6:53:6a:
                    80:c6:7e:bf:4e:44:64:41:12:2a:c8:c7:3c:ed:83:
                    34:85
                Exponent: 65537 (0x10001)
        X509v3 extensions:
            X509v3 Basic Constraints: 
                CA:FALSE
            X509v3 Subject Key Identifier: 
                47:5E:A2:6F:23:90:00:60:A9:AA:21:CC:8F:D8:39:18:D3:B9:2C:FB
            X509v3 Authority Key Identifier: 
                keyid:35:AC:C5:06:13:32:BC:15:BE:2C:FF:12:C4:E0:01:AA:44:9F:D7:20
                DirName:/CN=team374-net
                serial:67:5B:F5:98:BD:5F:93:4A:03:D1:B9:0C:27:D0:5F:0A:38:F8:9A:CD
            X509v3 Extended Key Usage: 
                TLS Web Server Authentication
            X509v3 Key Usage: 
                Digital Signature, Key Encipherment
            X509v3 Subject Alternative Name: 
                DNS:team374-server
    Signature Algorithm: sha256WithRSAEncryption
    Signature Value:
        0e:f1:a4:81:0d:93:0e:20:df:4a:46:27:3e:36:0a:c8:e2:cd:
        82:b2:74:44:50:d0:4e:1a:69:19:1d:3b:e7:9c:fd:53:0c:ad:
        6c:f0:7c:7d:66:ed:84:32:ad:00:de:8c:fd:a8:cf:af:85:42:
        aa:1e:af:72:3b:9c:77:dd:d2:67:1f:87:94:b5:6c:75:e1:60:
        6b:7d:d9:75:eb:82:38:0b:3e:6b:97:e8:bb:75:6e:b1:f1:a9:
        29:d1:f0:98:5a:20:0c:21:08:dd:a0:0e:c1:9c:6a:1f:18:3f:
        74:12:35:c7:f5:7a:35:dc:d5:e0:57:93:e7:10:d1:47:a8:19:
        e3:d4:98:27:f7:e5:a9:2e:59:fc:9b:af:9f:1b:7e:f6:29:7b:
        83:c4:37:a0:1b:ce:a2:5b:15:5d:50:1f:c6:47:98:f7:8a:95:
        b2:7c:a3:3a:a6:ac:7b:d4:08:13:41:8f:39:2f:2f:a5:3a:5a:
        60:4f:b4:e1:72:dc:e1:a2:81:79:7c:ca:f5:b6:04:bc:79:92:
        82:c5:d0:c6:ba:a7:f0:3c:31:3f:26:2a:f8:8f:8a:32:6e:de:
        a1:0f:9f:ca:51:8a:09:de:5d:35:f0:37:a3:d4:6d:c0:dd:84:
        37:35:75:71:d8:d5:3f:46:18:f6:df:be:9f:3e:f2:65:da:0e:
        5f:c6:ed:ff
-----BEGIN CERTIFICATE-----
MIIDdzCCAl+gAwIBAgIQao78lwn1Z1aT5/Ow8DcUBDANBgkqhkiG9w0BAQsFADAW
MRQwEgYDVQQDDAt0ZWFtMzc0LW5ldDAeFw0yMzExMDQxMDQ3MjVaFw0yNjEwMTkx
MDQ3MjVaMBkxFzAVBgNVBAMMDnRlYW0zNzQtc2VydmVyMIIBIjANBgkqhkiG9w0B
AQEFAAOCAQ8AMIIBCgKCAQEAutdHcXuaGCxBGAdvtNsluSJawWR5+HgtOsugLZt0
PlujsSwQvuxHfEndRC2J4UIFsYwwIEARwUXnLNwPPXwFYbBPGojMcpPzuOjKCsMl
g+zGzbUergF0iTgKip6aneGfOV9rNMGyvuIDvc6asfGhKv68LtrntYlV9IUitxlv
ivWeWAYtLEMK0QFjWi+YXemyGMjy2OkBzg6alpztk+krd4K2VeYpADUpPM9N6Ezo
v/sk2cqRzvUwQ+XevMtFA4gl0tDilhK6OxGoOGZVQ8J2L9OAuq8rnkaF9oZ1YRys
I0Af7xMMh/C33FqbbTGmU2qAxn6/TkRkQRIqyMc87YM0hQIDAQABo4G9MIG6MAkG
A1UdEwQCMAAwHQYDVR0OBBYEFEdeom8jkABgqaohzI/YORjTuSz7MFEGA1UdIwRK
MEiAFDWsxQYTMrwVviz/EsTgAapEn9cgoRqkGDAWMRQwEgYDVQQDDAt0ZWFtMzc0
LW5ldIIUZ1v1mL1fk0oD0bkMJ9BfCjj4ms0wEwYDVR0lBAwwCgYIKwYBBQUHAwEw
CwYDVR0PBAQDAgWgMBkGA1UdEQQSMBCCDnRlYW0zNzQtc2VydmVyMA0GCSqGSIb3
DQEBCwUAA4IBAQAO8aSBDZMOIN9KRic+NgrI4s2CsnREUNBOGmkZHTvnnP1TDK1s
8Hx9Zu2EMq0A3oz9qM+vhUKqHq9yO5x33dJnH4eUtWx14WBrfdl164I4Cz5rl+i7
dW6x8akp0fCYWiAMIQjdoA7BnGofGD90EjXH9Xo13NXgV5PnENFHqBnj1Jgn9+Wp
Lln8m6+fG372KXuDxDegG86iWxVdUB/GR5j3ipWyfKM6pqx71AgTQY85Ly+lOlpg
T7ThctzhooF5fMr1tgS8eZKCxdDGuqfwPDE/Jir4j4oybt6hD5/KUYoJ3l018Dej
1G3A3YQ3NXVx2NU/Rhj2376fPvJl2g5fxu3/
-----END CERTIFICATE-----
