Certificate:
    Data:
        Version: 3 (0x2)
        Serial Number:
            d4:d2:a0:40:56:68:8a:bc:96:2f:62:0b:7f:32:e3:52
        Signature Algorithm: sha256WithRSAEncryption
        Issuer: CN=team374-net
        Validity
            Not Before: Nov  4 10:47:25 2023 GMT
            Not After : Oct 19 10:47:25 2026 GMT
        Subject: CN=team374-client
        Subject Public Key Info:
            Public Key Algorithm: rsaEncryption
                Public-Key: (2048 bit)
                Modulus:
                    00:bb:4a:42:a0:62:13:fe:e2:aa:02:96:cb:af:9e:
                    31:62:ff:38:7c:54:2b:88:5a:4a:b0:c1:03:15:4c:
                    b0:ad:84:91:ae:fe:83:5d:06:68:0d:78:8b:64:77:
                    7f:66:8c:5e:ec:14:b4:9b:c8:77:7d:2b:dd:41:4b:
                    ba:97:c3:ce:3c:a6:6c:7a:13:ac:8a:f6:85:4f:73:
                    00:ff:5f:47:c6:e9:0f:ab:8a:9d:e4:2b:9b:10:6e:
                    7e:34:68:a5:c3:f8:e5:60:7b:51:b9:4b:62:a3:58:
                    ef:59:ec:06:c6:9d:0a:1b:9a:77:d6:d2:d2:81:f2:
                    c0:e6:9b:45:48:04:54:7b:a3:eb:7e:3a:3c:42:17:
                    b6:fb:f4:64:48:bf:7e:6f:5f:42:b7:74:49:ac:38:
                    77:50:8d:2f:9e:66:41:d9:f5:1c:da:ba:e4:92:c2:
                    87:a9:3a:9f:cb:b9:be:c8:59:39:8f:2b:31:47:bf:
                    8e:30:7e:2d:3c:ef:64:d5:f6:01:5c:92:7c:93:95:
                    df:3f:52:da:7e:ca:cb:ab:bc:a6:51:ce:d2:2f:9e:
                    5b:20:1a:57:aa:25:6b:b0:d8:0e:d2:ca:07:56:30:
                    d7:72:f3:b1:1b:d2:4e:6a:cc:da:2f:92:78:db:a4:
                    85:59:1e:e2:9c:14:0d:d6:a4:b0:9a:e9:e4:2e:0b:
                    3b:09
                Exponent: 65537 (0x10001)
        X509v3 extensions:
            X509v3 Basic Constraints: 
                CA:FALSE
            X509v3 Subject Key Identifier: 
                25:27:F2:50:E4:37:EE:44:D8:64:39:AB:69:A8:56:6E:73:DB:C2:A2
            X509v3 Authority Key Identifier: 
                keyid:35:AC:C5:06:13:32:BC:15:BE:2C:FF:12:C4:E0:01:AA:44:9F:D7:20
                DirName:/CN=team374-net
                serial:67:5B:F5:98:BD:5F:93:4A:03:D1:B9:0C:27:D0:5F:0A:38:F8:9A:CD
            X509v3 Extended Key Usage: 
                TLS Web Client Authentication
            X509v3 Key Usage: 
                Digital Signature
    Signature Algorithm: sha256WithRSAEncryption
    Signature Value:
        1f:c5:4a:64:f4:f0:20:c9:85:54:8b:bc:b7:5c:86:27:25:7f:
        25:49:e8:5c:08:ae:db:c3:6f:2a:69:67:07:ec:31:b8:b3:d5:
        4f:da:19:60:1e:2c:ef:83:80:53:a1:f3:e2:be:02:36:66:1b:
        5d:db:7e:33:73:fc:02:39:36:f0:a6:1b:31:96:72:96:a8:c6:
        68:1e:c6:35:d7:eb:93:69:11:d2:2a:4b:27:09:71:a9:d6:f8:
        80:e3:d3:f5:2b:83:59:f6:32:d5:f6:95:0b:74:ef:d9:33:ea:
        47:24:0d:90:00:76:7b:20:7b:23:e4:00:bf:e8:b5:53:61:fa:
        b6:c1:3e:f7:e7:fa:d0:52:45:d0:11:b7:56:b9:53:96:45:71:
        7b:f0:68:1d:1f:49:ad:37:9f:be:70:ba:86:cd:3a:4a:ef:bd:
        ce:6b:06:ac:f1:1e:1b:cc:19:e5:40:72:f8:4c:e9:26:05:3c:
        d8:5d:67:c2:08:9d:8c:1c:66:6d:4b:93:4b:19:7e:49:ca:ec:
        8e:3b:04:36:6d:83:08:0f:6d:98:54:f6:6f:d2:9c:36:21:63:
        75:18:1c:5e:76:04:33:6b:6c:7a:d1:73:7f:27:00:a9:91:a2:
        e0:97:3d:64:3e:27:9a:23:a3:3f:74:29:26:13:51:ea:2a:00:
        61:f5:f6:54
-----BEGIN CERTIFICATE-----
MIIDXTCCAkWgAwIBAgIRANTSoEBWaIq8li9iC38y41IwDQYJKoZIhvcNAQELBQAw
FjEUMBIGA1UEAwwLdGVhbTM3NC1uZXQwHhcNMjMxMTA0MTA0NzI1WhcNMjYxMDE5
MTA0NzI1WjAZMRcwFQYDVQQDDA50ZWFtMzc0LWNsaWVudDCCASIwDQYJKoZIhvcN
AQEBBQADggEPADCCAQoCggEBALtKQqBiE/7iqgKWy6+eMWL/OHxUK4haSrDBAxVM
sK2Eka7+g10GaA14i2R3f2aMXuwUtJvId30r3UFLupfDzjymbHoTrIr2hU9zAP9f
R8bpD6uKneQrmxBufjRopcP45WB7UblLYqNY71nsBsadChuad9bS0oHywOabRUgE
VHuj6346PEIXtvv0ZEi/fm9fQrd0Saw4d1CNL55mQdn1HNq65JLCh6k6n8u5vshZ
OY8rMUe/jjB+LTzvZNX2AVySfJOV3z9S2n7Ky6u8plHO0i+eWyAaV6ola7DYDtLK
B1Yw13LzsRvSTmrM2i+SeNukhVke4pwUDdaksJrp5C4LOwkCAwEAAaOBojCBnzAJ
BgNVHRMEAjAAMB0GA1UdDgQWBBQlJ/JQ5DfuRNhkOatpqFZuc9vCojBRBgNVHSME
SjBIgBQ1rMUGEzK8Fb4s/xLE4AGqRJ/XIKEapBgwFjEUMBIGA1UEAwwLdGVhbTM3
NC1uZXSCFGdb9Zi9X5NKA9G5DCfQXwo4+JrNMBMGA1UdJQQMMAoGCCsGAQUFBwMC
MAsGA1UdDwQEAwIHgDANBgkqhkiG9w0BAQsFAAOCAQEAH8VKZPTwIMmFVIu8t1yG
JyV/JUnoXAiu28NvKmlnB+wxuLPVT9oZYB4s74OAU6Hz4r4CNmYbXdt+M3P8Ajk2
8KYbMZZylqjGaB7GNdfrk2kR0ipLJwlxqdb4gOPT9SuDWfYy1faVC3Tv2TPqRyQN
kAB2eyB7I+QAv+i1U2H6tsE+9+f60FJF0BG3VrlTlkVxe/BoHR9JrTefvnC6hs06
Su+9zmsGrPEeG8wZ5UBy+EzpJgU82F1nwgidjBxmbUuTSxl+ScrsjjsENm2DCA9t
mFT2b9KcNiFjdRgcXnYEM2tsetFzfycAqZGi4Jc9ZD4nmiOjP3QpJhNR6ioAYfX2
VA==
-----END CERTIFICATE-----
