Certificate:
    Data:
        Version: 3 (0x2)
        Serial Number:
            f4:43:6d:1a:73:02:35:e0:89:54:41:ae:78:a7:c4:91
        Signature Algorithm: sha256WithRSAEncryption
        Issuer: CN=team374-net
        Validity
            Not Before: Nov  4 11:35:50 2023 GMT
            Not After : Oct 19 11:35:50 2026 GMT
        Subject: CN=team374-client
        Subject Public Key Info:
            Public Key Algorithm: rsaEncryption
                Public-Key: (2048 bit)
                Modulus:
                    00:c5:21:5d:5c:eb:60:bd:6c:df:8b:ad:f8:15:ce:
                    7b:9c:69:96:e9:d0:aa:61:7e:56:2e:9b:a8:4f:9c:
                    c8:72:ab:c7:46:3d:b6:ad:aa:da:1c:4a:5f:50:9b:
                    d8:71:a5:30:b5:f9:c3:e4:ca:59:0a:0f:13:ce:29:
                    81:4b:ce:c6:8a:bd:a8:31:0d:8f:8e:6c:76:3d:fe:
                    bd:f2:b0:79:85:c4:b1:3c:ee:fa:7a:fb:1c:a2:e6:
                    97:d7:96:90:39:98:fb:b5:87:58:0b:74:f3:d8:41:
                    28:54:8d:2a:86:14:b6:d0:80:ba:71:6b:19:8f:0f:
                    60:d5:79:fa:2d:75:70:45:29:3a:82:71:3d:1b:44:
                    c8:a0:dd:c6:b1:6b:d6:1b:c1:39:76:18:f0:46:98:
                    23:b4:51:45:3c:3c:00:da:e4:80:fa:00:8f:c8:ed:
                    e3:45:ff:d7:3a:8c:ed:f8:28:f3:5c:09:d1:13:7e:
                    24:e5:69:af:a0:91:94:2e:83:1d:38:53:ee:17:9a:
                    bb:37:26:b1:05:6b:f4:23:be:2e:dd:c3:31:0e:df:
                    db:f8:9f:22:5d:6f:64:ed:e7:31:42:3d:8b:63:53:
                    0b:e6:0a:d7:25:0a:c5:a7:9b:ef:a1:ed:80:fe:c2:
                    43:59:8a:af:b0:31:dc:ff:82:d0:2a:83:e2:da:20:
                    ac:3b
                Exponent: 65537 (0x10001)
        X509v3 extensions:
            X509v3 Basic Constraints: 
                CA:FALSE
            X509v3 Subject Key Identifier: 
                61:7F:40:2F:90:45:4E:C5:29:1C:9B:C5:2A:DE:2C:0F:00:63:D7:6B
            X509v3 Authority Key Identifier: 
                keyid:0B:D3:5D:37:D6:F7:F7:55:38:92:7B:10:07:51:24:83:DD:D8:E2:EC
                DirName:/CN=team374-net
                serial:0B:36:AC:96:84:75:52:44:5C:F1:22:EC:1A:2F:4C:70:06:73:5B:3F
            X509v3 Extended Key Usage: 
                TLS Web Client Authentication
            X509v3 Key Usage: 
                Digital Signature
    Signature Algorithm: sha256WithRSAEncryption
    Signature Value:
        57:2c:8b:ca:8a:a7:1d:bf:5c:3e:83:22:4b:2a:6b:25:c2:e3:
        be:ae:ed:33:17:00:c2:90:15:83:a7:4b:0a:ce:e2:80:9e:88:
        25:6e:a2:a1:f7:9a:42:8b:f0:ea:19:3f:47:80:d9:86:32:b9:
        2c:ef:90:90:46:fc:5d:0c:f7:b8:b1:ce:35:ae:b6:d0:a2:f6:
        0b:a4:00:b0:ee:d2:08:59:59:cb:9a:ee:43:ed:52:c0:d8:f9:
        0d:81:a8:68:31:57:3a:62:59:a7:b5:00:8c:e2:3a:b5:8b:1e:
        7e:83:27:7c:38:87:3f:ce:47:36:34:8f:8f:95:cf:35:ab:ef:
        78:69:79:a7:66:56:2b:db:b1:17:e1:33:87:f5:f0:b1:f9:37:
        d8:69:26:19:ab:dd:33:4b:8a:32:5e:82:bb:47:9f:5a:15:38:
        ed:bb:fe:30:29:b5:32:8f:eb:12:37:1a:56:c8:72:f8:c0:cb:
        17:a3:be:6e:48:6c:bd:5d:62:32:9b:ec:15:ca:1d:69:75:91:
        38:b2:04:0a:ec:5d:5f:51:88:d5:ba:39:e9:9b:fc:df:38:f6:
        e3:84:7c:2c:59:9b:6c:75:40:93:dd:d5:81:78:02:ec:13:76:
        0f:7c:fa:d6:8e:90:db:a5:82:f4:01:01:78:2e:d0:fe:bb:e0:
        ac:6d:ca:e0
-----BEGIN CERTIFICATE-----
MIIDXTCCAkWgAwIBAgIRAPRDbRpzAjXgiVRBrninxJEwDQYJKoZIhvcNAQELBQAw
FjEUMBIGA1UEAwwLdGVhbTM3NC1uZXQwHhcNMjMxMTA0MTEzNTUwWhcNMjYxMDE5
MTEzNTUwWjAZMRcwFQYDVQQDDA50ZWFtMzc0LWNsaWVudDCCASIwDQYJKoZIhvcN
AQEBBQADggEPADCCAQoCggEBAMUhXVzrYL1s34ut+BXOe5xplunQqmF+Vi6bqE+c
yHKrx0Y9tq2q2hxKX1Cb2HGlMLX5w+TKWQoPE84pgUvOxoq9qDENj45sdj3+vfKw
eYXEsTzu+nr7HKLml9eWkDmY+7WHWAt089hBKFSNKoYUttCAunFrGY8PYNV5+i11
cEUpOoJxPRtEyKDdxrFr1hvBOXYY8EaYI7RRRTw8ANrkgPoAj8jt40X/1zqM7fgo
81wJ0RN+JOVpr6CRlC6DHThT7heauzcmsQVr9CO+Lt3DMQ7f2/ifIl1vZO3nMUI9
i2NTC+YK1yUKxaeb76HtgP7CQ1mKr7Ax3P+C0CqD4togrDsCAwEAAaOBojCBnzAJ
BgNVHRMEAjAAMB0GA1UdDgQWBBRhf0AvkEVOxSkcm8Uq3iwPAGPXazBRBgNVHSME
SjBIgBQL01031vf3VTiSexAHUSSD3dji7KEapBgwFjEUMBIGA1UEAwwLdGVhbTM3
NC1uZXSCFAs2rJaEdVJEXPEi7BovTHAGc1s/MBMGA1UdJQQMMAoGCCsGAQUFBwMC
MAsGA1UdDwQEAwIHgDANBgkqhkiG9w0BAQsFAAOCAQEAVyyLyoqnHb9cPoMiSypr
JcLjvq7tMxcAwpAVg6dLCs7igJ6IJW6iofeaQovw6hk/R4DZhjK5LO+QkEb8XQz3
uLHONa620KL2C6QAsO7SCFlZy5ruQ+1SwNj5DYGoaDFXOmJZp7UAjOI6tYsefoMn
fDiHP85HNjSPj5XPNavveGl5p2ZWK9uxF+Ezh/Xwsfk32GkmGavdM0uKMl6Cu0ef
WhU47bv+MCm1Mo/rEjcaVshy+MDLF6O+bkhsvV1iMpvsFcodaXWROLIECuxdX1GI
1bo56Zv83zj244R8LFmbbHVAk93VgXgC7BN2D3z61o6Q26WC9AEBeC7Q/rvgrG3K
4A==
-----END CERTIFICATE-----
