Certificate:
    Data:
        Version: 3 (0x2)
        Serial Number:
            3d:e7:3a:6e:02:73:d5:c0:d1:b3:3c:b5:1c:ef:30:d7
        Signature Algorithm: sha256WithRSAEncryption
        Issuer: CN=team390-net
        Validity
            Not Before: Nov  3 20:46:17 2023 GMT
            Not After : Oct 18 20:46:17 2026 GMT
        Subject: CN=team390-client
        Subject Public Key Info:
            Public Key Algorithm: rsaEncryption
                Public-Key: (2048 bit)
                Modulus:
                    00:b7:b5:02:a5:bc:5d:2a:4d:14:77:50:4d:27:29:
                    09:93:ca:f2:87:66:79:2d:41:b8:ce:73:30:29:ec:
                    42:84:f1:fc:fb:e0:dc:31:20:a7:38:3b:59:b7:b9:
                    a5:62:a5:be:5a:17:1f:77:e3:f1:0b:ad:45:17:97:
                    cc:9f:5f:74:03:2c:59:5e:e5:44:82:47:0d:f2:b7:
                    91:22:0c:86:4d:50:e5:2e:7b:97:e7:5b:83:40:f1:
                    d1:28:68:ac:68:90:ea:62:18:53:9e:dc:41:98:54:
                    ab:0d:a6:bc:33:11:03:88:fc:41:59:e3:f3:14:de:
                    6c:d6:ee:c7:33:b5:12:e4:a7:6b:df:2f:21:3e:da:
                    0e:1c:06:d3:28:dc:ed:81:35:f6:21:53:77:6e:75:
                    4e:02:4f:be:f6:cb:ab:f9:79:91:ad:7f:50:b0:5c:
                    4e:12:f5:8c:d9:5b:8e:6c:41:ca:1a:be:eb:7e:75:
                    e6:e9:8e:c2:40:cb:cc:6c:99:30:76:b0:18:ab:2a:
                    e1:16:5a:00:5c:e6:1b:9d:c5:de:3a:2a:96:54:83:
                    c0:55:86:01:6e:6f:ec:05:d8:f1:25:2d:0d:52:f9:
                    9f:cb:8c:b9:d9:25:6d:5d:bc:94:ae:17:fa:84:df:
                    86:7d:4f:b4:9e:22:ec:62:91:1a:6e:30:4d:de:60:
                    79:11
                Exponent: 65537 (0x10001)
        X509v3 extensions:
            X509v3 Basic Constraints: 
                CA:FALSE
            X509v3 Subject Key Identifier: 
                60:A9:DE:99:3D:80:68:E7:9C:EE:46:83:5A:01:44:94:D8:4A:17:68
            X509v3 Authority Key Identifier: 
                keyid:A8:0D:9A:D9:7B:F6:75:51:67:68:56:D0:17:50:15:A2:C9:B9:47:65
                DirName:/CN=team390-net
                serial:79:29:C4:4E:A2:78:25:89:C3:7E:F0:B3:DF:5D:F2:8D:35:EA:02:D4
            X509v3 Extended Key Usage: 
                TLS Web Client Authentication
            X509v3 Key Usage: 
                Digital Signature
    Signature Algorithm: sha256WithRSAEncryption
    Signature Value:
        21:47:44:e5:d4:2b:8d:c2:62:11:dc:1d:83:e2:23:eb:ff:9f:
        f6:2e:77:26:ef:50:5f:70:0f:ea:22:b3:6a:6c:91:b0:a6:2a:
        91:ad:ef:1d:22:a4:04:14:0c:c2:0e:a8:92:32:31:bd:9c:eb:
        9a:ec:2d:29:35:ab:ad:54:48:b6:75:f1:24:cf:b1:58:c9:aa:
        bc:7b:26:bb:85:98:ba:31:ef:19:3d:10:6f:f2:bf:95:c4:e1:
        92:8f:91:88:7a:1d:3f:9f:94:2a:a7:5b:17:94:b4:02:5b:80:
        93:6d:12:1c:06:65:81:55:3d:ab:35:82:35:24:95:2f:1b:cd:
        5a:f5:32:89:2a:be:14:d2:9b:26:50:02:32:00:ce:a4:29:38:
        49:51:27:a5:5c:f5:06:ea:33:e1:22:c4:e9:fc:c2:71:80:a0:
        c3:0f:10:a2:38:90:56:0d:10:32:3c:1b:4c:01:d2:25:32:02:
        f5:7b:bc:cb:10:46:04:8b:d6:d2:28:02:9b:95:61:3b:37:b6:
        62:a1:4e:04:99:4c:f8:d2:d3:8a:76:90:c5:0e:f3:96:ab:ae:
        30:a3:c5:68:6d:62:0f:c3:6b:ef:2b:ff:46:dc:8a:9c:90:8e:
        f6:ed:7d:f8:33:2b:ae:fa:c7:67:8b:71:38:6c:c1:10:8e:a5:
        56:e8:9e:21
-----BEGIN CERTIFICATE-----
MIIDXDCCAkSgAwIBAgIQPec6bgJz1cDRszy1HO8w1zANBgkqhkiG9w0BAQsFADAW
MRQwEgYDVQQDDAt0ZWFtMzkwLW5ldDAeFw0yMzExMDMyMDQ2MTdaFw0yNjEwMTgy
MDQ2MTdaMBkxFzAVBgNVBAMMDnRlYW0zOTAtY2xpZW50MIIBIjANBgkqhkiG9w0B
AQEFAAOCAQ8AMIIBCgKCAQEAt7UCpbxdKk0Ud1BNJykJk8ryh2Z5LUG4znMwKexC
hPH8++DcMSCnODtZt7mlYqW+Whcfd+PxC61FF5fMn190AyxZXuVEgkcN8reRIgyG
TVDlLnuX51uDQPHRKGisaJDqYhhTntxBmFSrDaa8MxEDiPxBWePzFN5s1u7HM7US
5Kdr3y8hPtoOHAbTKNztgTX2IVN3bnVOAk++9sur+XmRrX9QsFxOEvWM2VuObEHK
Gr7rfnXm6Y7CQMvMbJkwdrAYqyrhFloAXOYbncXeOiqWVIPAVYYBbm/sBdjxJS0N
Uvmfy4y52SVtXbyUrhf6hN+GfU+0niLsYpEabjBN3mB5EQIDAQABo4GiMIGfMAkG
A1UdEwQCMAAwHQYDVR0OBBYEFGCp3pk9gGjnnO5Gg1oBRJTYShdoMFEGA1UdIwRK
MEiAFKgNmtl79nVRZ2hW0BdQFaLJuUdloRqkGDAWMRQwEgYDVQQDDAt0ZWFtMzkw
LW5ldIIUeSnETqJ4JYnDfvCz313yjTXqAtQwEwYDVR0lBAwwCgYIKwYBBQUHAwIw
CwYDVR0PBAQDAgeAMA0GCSqGSIb3DQEBCwUAA4IBAQAhR0Tl1CuNwmIR3B2D4iPr
/5/2Lncm71BfcA/qIrNqbJGwpiqRre8dIqQEFAzCDqiSMjG9nOua7C0pNautVEi2
dfEkz7FYyaq8eya7hZi6Me8ZPRBv8r+VxOGSj5GIeh0/n5Qqp1sXlLQCW4CTbRIc
BmWBVT2rNYI1JJUvG81a9TKJKr4U0psmUAIyAM6kKThJUSelXPUG6jPhIsTp/MJx
gKDDDxCiOJBWDRAyPBtMAdIlMgL1e7zLEEYEi9bSKAKblWE7N7ZioU4EmUz40tOK
dpDFDvOWq64wo8VobWIPw2vvK/9G3IqckI727X34Myuu+sdni3E4bMEQjqVW6J4h
-----END CERTIFICATE-----
