Certificate:
    Data:
        Version: 3 (0x2)
        Serial Number:
            76:a5:a3:7d:13:86:32:bb:0c:b4:09:5b:83:7f:66:a2
        Signature Algorithm: sha256WithRSAEncryption
        Issuer: CN=team305-net
        Validity
            Not Before: Nov  3 20:44:49 2023 GMT
            Not After : Oct 18 20:44:49 2026 GMT
        Subject: CN=team305-client
        Subject Public Key Info:
            Public Key Algorithm: rsaEncryption
                Public-Key: (2048 bit)
                Modulus:
                    00:b5:81:a4:fb:c6:8c:f3:95:06:55:22:bc:73:e7:
                    bc:e7:87:a2:fd:ca:6f:ea:41:d6:4b:04:1b:f1:70:
                    54:89:69:83:16:c3:83:d4:e6:94:0f:38:4f:10:31:
                    0c:eb:14:95:d1:ec:2f:06:6d:63:2c:79:01:f8:42:
                    ba:6c:04:af:b1:a4:31:02:a3:45:37:71:5b:dd:d6:
                    a5:9e:c7:42:68:0d:90:fd:4d:3d:cd:3c:01:99:df:
                    6c:c5:77:af:ff:a9:8f:bf:9c:f2:96:f2:14:8d:8f:
                    25:f1:b3:b7:15:bf:5e:5e:bf:86:20:47:80:04:05:
                    aa:e4:a2:97:14:f9:6b:21:11:7b:a6:d1:f0:4a:c0:
                    ee:c2:f6:0c:96:63:7a:fe:cc:e0:e8:ac:0c:1e:2a:
                    ea:5e:c3:e3:8f:fd:fe:cc:fc:c7:01:8d:6d:6a:a5:
                    58:e1:16:71:b4:bf:6e:d0:8b:52:a9:f1:ce:2e:5d:
                    64:26:67:32:06:0e:c6:42:71:f2:ed:71:7a:11:58:
                    86:3b:ab:99:87:0f:cc:93:89:41:36:2a:a0:af:17:
                    68:05:64:e0:01:0a:9b:c1:58:df:8b:e7:99:b9:ba:
                    a2:22:a2:ef:b9:82:82:62:9c:43:a3:0e:95:2d:be:
                    20:b5:eb:63:5e:01:f1:40:f7:5b:e5:6c:11:72:86:
                    65:39
                Exponent: 65537 (0x10001)
        X509v3 extensions:
            X509v3 Basic Constraints: 
                CA:FALSE
            X509v3 Subject Key Identifier: 
                0C:50:94:D5:E8:44:90:B0:27:DD:DC:F1:AB:34:BE:18:76:12:05:D0
            X509v3 Authority Key Identifier: 
                keyid:24:34:2C:9F:B7:46:9E:66:D9:88:F7:F4:16:B4:96:7D:97:87:DE:32
                DirName:/CN=team305-net
                serial:06:2C:D0:C0:C9:48:FD:9B:C7:98:98:17:86:AF:E7:07:97:04:30:B4
            X509v3 Extended Key Usage: 
                TLS Web Client Authentication
            X509v3 Key Usage: 
                Digital Signature
    Signature Algorithm: sha256WithRSAEncryption
    Signature Value:
        1c:0a:1d:49:a3:35:11:40:dd:16:8c:24:95:f8:f3:86:96:f1:
        30:95:13:62:0e:d0:70:50:92:01:d0:b5:84:88:fb:62:02:c6:
        7b:ee:80:18:55:56:2b:09:05:95:c0:ea:50:bf:2a:be:4d:bc:
        8d:50:a5:4a:7c:50:dc:c0:88:dd:86:d7:7c:cb:db:2f:ff:83:
        fd:32:fe:af:29:83:86:bf:fd:d0:5e:2f:a4:1b:31:0f:f4:67:
        ab:9e:14:01:3a:00:a9:94:02:23:f5:82:e7:37:02:6a:66:11:
        60:2f:6a:d7:27:ff:fb:c9:78:8e:f4:1a:4e:e1:9e:2d:0a:bd:
        ee:44:9d:69:57:9b:a9:79:40:95:70:7b:d6:af:d1:5f:6a:2b:
        d1:45:2c:64:3b:9c:50:b5:63:7a:a2:5f:a2:2d:e1:bb:45:02:
        4a:db:10:ce:4f:1b:90:37:bd:23:eb:a9:1a:02:73:4d:a2:47:
        d7:e7:6b:67:85:7d:8e:b9:f3:f2:5a:3a:5f:85:fc:69:21:21:
        d4:a1:43:7a:4c:62:e4:a2:5e:9d:b6:6a:ff:70:e4:8f:aa:f2:
        38:ec:22:84:f1:83:fa:72:bf:0e:69:05:57:c0:45:5f:c6:06:
        f8:f3:16:63:25:fa:b9:58:ce:ba:f9:a5:9b:19:f5:1a:07:af:
        f7:e8:af:e9
-----BEGIN CERTIFICATE-----
MIIDXDCCAkSgAwIBAgIQdqWjfROGMrsMtAlbg39mojANBgkqhkiG9w0BAQsFADAW
MRQwEgYDVQQDDAt0ZWFtMzA1LW5ldDAeFw0yMzExMDMyMDQ0NDlaFw0yNjEwMTgy
MDQ0NDlaMBkxFzAVBgNVBAMMDnRlYW0zMDUtY2xpZW50MIIBIjANBgkqhkiG9w0B
AQEFAAOCAQ8AMIIBCgKCAQEAtYGk+8aM85UGVSK8c+e854ei/cpv6kHWSwQb8XBU
iWmDFsOD1OaUDzhPEDEM6xSV0ewvBm1jLHkB+EK6bASvsaQxAqNFN3Fb3dalnsdC
aA2Q/U09zTwBmd9sxXev/6mPv5zylvIUjY8l8bO3Fb9eXr+GIEeABAWq5KKXFPlr
IRF7ptHwSsDuwvYMlmN6/szg6KwMHirqXsPjj/3+zPzHAY1taqVY4RZxtL9u0ItS
qfHOLl1kJmcyBg7GQnHy7XF6EViGO6uZhw/Mk4lBNiqgrxdoBWTgAQqbwVjfi+eZ
ubqiIqLvuYKCYpxDow6VLb4gtetjXgHxQPdb5WwRcoZlOQIDAQABo4GiMIGfMAkG
A1UdEwQCMAAwHQYDVR0OBBYEFAxQlNXoRJCwJ93c8as0vhh2EgXQMFEGA1UdIwRK
MEiAFCQ0LJ+3Rp5m2Yj39Ba0ln2Xh94yoRqkGDAWMRQwEgYDVQQDDAt0ZWFtMzA1
LW5ldIIUBizQwMlI/ZvHmJgXhq/nB5cEMLQwEwYDVR0lBAwwCgYIKwYBBQUHAwIw
CwYDVR0PBAQDAgeAMA0GCSqGSIb3DQEBCwUAA4IBAQAcCh1JozURQN0WjCSV+POG
lvEwlRNiDtBwUJIB0LWEiPtiAsZ77oAYVVYrCQWVwOpQvyq+TbyNUKVKfFDcwIjd
htd8y9sv/4P9Mv6vKYOGv/3QXi+kGzEP9GernhQBOgCplAIj9YLnNwJqZhFgL2rX
J//7yXiO9BpO4Z4tCr3uRJ1pV5upeUCVcHvWr9FfaivRRSxkO5xQtWN6ol+iLeG7
RQJK2xDOTxuQN70j66kaAnNNokfX52tnhX2OufPyWjpfhfxpISHUoUN6TGLkol6d
tmr/cOSPqvI47CKE8YP6cr8OaQVXwEVfxgb48xZjJfq5WM66+aWbGfUaB6/36K/p
-----END CERTIFICATE-----
