Certificate:
    Data:
        Version: 3 (0x2)
        Serial Number:
            38:18:4b:f2:59:bb:91:ef:2e:86:b2:a3:ca:3b:f6:7d
        Signature Algorithm: sha256WithRSAEncryption
        Issuer: CN=team283-net
        Validity
            Not Before: Nov  4 10:45:54 2023 GMT
            Not After : Oct 19 10:45:54 2026 GMT
        Subject: CN=team283-client
        Subject Public Key Info:
            Public Key Algorithm: rsaEncryption
                Public-Key: (2048 bit)
                Modulus:
                    00:c5:6d:ee:5f:db:ed:1b:c9:33:e9:02:6d:21:00:
                    2e:d0:3b:5b:b0:9d:31:64:17:86:7b:a7:5b:f4:a1:
                    58:c3:b0:59:36:24:4d:06:d3:fc:ec:e1:1b:61:04:
                    e8:a5:da:88:46:ce:7d:91:2b:25:bd:47:8b:b7:ec:
                    c7:95:ad:52:5b:b5:3f:94:c6:6b:e2:aa:0c:73:73:
                    fb:a2:39:e8:c7:59:f0:5c:35:f1:0a:37:d9:0f:11:
                    06:98:5c:ef:ec:dd:1d:a4:ea:fb:b6:20:78:dd:c9:
                    a3:16:26:a3:5a:45:fd:a2:bb:37:4a:01:3a:59:ba:
                    8f:3d:bd:01:6d:25:d1:30:3c:2f:ba:34:bf:d7:0f:
                    87:80:78:1b:a2:cf:c1:fe:82:47:aa:65:50:15:83:
                    e3:43:b1:63:f9:9b:f4:29:06:9e:d6:93:69:5a:f9:
                    93:cc:b5:11:56:56:3e:aa:0a:41:1f:50:a6:ae:d1:
                    f2:d4:0f:25:7e:d6:c7:ef:83:2f:dc:a4:56:29:8b:
                    0a:1b:e5:11:e0:95:83:ee:85:4e:7e:6f:2a:e3:fa:
                    49:f3:14:5a:9f:e6:69:9e:ee:02:75:8c:a8:0d:9d:
                    22:ed:c1:78:2f:bb:40:5f:6c:13:59:aa:7f:0f:71:
                    af:1e:cd:c3:17:84:f2:04:70:07:db:29:2b:fe:a2:
                    74:05
                Exponent: 65537 (0x10001)
        X509v3 extensions:
            X509v3 Basic Constraints: 
                CA:FALSE
            X509v3 Subject Key Identifier: 
                8F:E5:6A:67:BC:03:0C:C1:CB:8D:6D:0A:49:E5:37:69:B8:E9:8B:20
            X509v3 Authority Key Identifier: 
                keyid:4B:E5:56:AE:FE:64:96:8D:7F:BF:BC:BB:2D:AA:BE:F1:22:6D:CF:B3
                DirName:/CN=team283-net
                serial:4A:2D:1F:B4:85:66:06:98:59:6D:E6:F1:51:A5:3B:60:78:B7:60:5F
            X509v3 Extended Key Usage: 
                TLS Web Client Authentication
            X509v3 Key Usage: 
                Digital Signature
    Signature Algorithm: sha256WithRSAEncryption
    Signature Value:
        52:d1:6d:f3:37:08:04:68:50:31:6a:b7:c3:65:b6:e7:3b:95:
        ec:0c:c4:25:3e:ca:35:94:e4:fa:50:97:45:6a:09:dc:f7:7a:
        85:f4:e2:00:de:a7:c5:69:a7:26:b0:e2:ba:fa:d0:94:1f:f5:
        ce:ef:01:6f:a4:92:74:33:16:08:5f:b3:b7:7b:b3:c9:11:c1:
        fe:b2:00:24:63:61:e5:48:ce:78:89:7d:b0:99:d3:c0:23:3a:
        32:5b:65:30:20:45:0d:b5:55:16:84:84:43:ff:b3:80:96:ff:
        6a:41:f7:14:bf:25:41:bb:6a:18:10:9b:bd:b8:af:72:3a:c4:
        4b:ab:0e:47:0e:ad:32:23:e6:61:71:ad:65:6d:15:f9:68:92:
        87:aa:6a:f4:be:81:48:0b:8e:a1:b1:12:07:1b:db:fc:aa:c7:
        f5:17:64:95:b6:d4:3c:57:64:fd:cb:de:1d:fb:21:fa:1f:3c:
        91:1d:43:7e:c9:95:ad:d6:6a:15:2c:48:ee:cf:94:2b:68:c3:
        19:ab:36:13:df:50:27:a7:27:9c:28:76:60:f7:82:92:09:91:
        13:c3:fc:22:16:b9:2d:6e:00:d5:f2:aa:7c:1b:eb:48:d3:14:
        84:ff:fe:36:59:bd:59:0a:e1:34:59:c4:fb:37:7a:79:07:a7:
        6f:dd:35:bc
-----BEGIN CERTIFICATE-----
MIIDXDCCAkSgAwIBAgIQOBhL8lm7ke8uhrKjyjv2fTANBgkqhkiG9w0BAQsFADAW
MRQwEgYDVQQDDAt0ZWFtMjgzLW5ldDAeFw0yMzExMDQxMDQ1NTRaFw0yNjEwMTkx
MDQ1NTRaMBkxFzAVBgNVBAMMDnRlYW0yODMtY2xpZW50MIIBIjANBgkqhkiG9w0B
AQEFAAOCAQ8AMIIBCgKCAQEAxW3uX9vtG8kz6QJtIQAu0DtbsJ0xZBeGe6db9KFY
w7BZNiRNBtP87OEbYQTopdqIRs59kSslvUeLt+zHla1SW7U/lMZr4qoMc3P7ojno
x1nwXDXxCjfZDxEGmFzv7N0dpOr7tiB43cmjFiajWkX9ors3SgE6WbqPPb0BbSXR
MDwvujS/1w+HgHgbos/B/oJHqmVQFYPjQ7Fj+Zv0KQae1pNpWvmTzLURVlY+qgpB
H1CmrtHy1A8lftbH74Mv3KRWKYsKG+UR4JWD7oVOfm8q4/pJ8xRan+Zpnu4CdYyo
DZ0i7cF4L7tAX2wTWap/D3GvHs3DF4TyBHAH2ykr/qJ0BQIDAQABo4GiMIGfMAkG
A1UdEwQCMAAwHQYDVR0OBBYEFI/lame8AwzBy41tCknlN2m46YsgMFEGA1UdIwRK
MEiAFEvlVq7+ZJaNf7+8uy2qvvEibc+zoRqkGDAWMRQwEgYDVQQDDAt0ZWFtMjgz
LW5ldIIUSi0ftIVmBphZbebxUaU7YHi3YF8wEwYDVR0lBAwwCgYIKwYBBQUHAwIw
CwYDVR0PBAQDAgeAMA0GCSqGSIb3DQEBCwUAA4IBAQBS0W3zNwgEaFAxarfDZbbn
O5XsDMQlPso1lOT6UJdFagnc93qF9OIA3qfFaacmsOK6+tCUH/XO7wFvpJJ0MxYI
X7O3e7PJEcH+sgAkY2HlSM54iX2wmdPAIzoyW2UwIEUNtVUWhIRD/7OAlv9qQfcU
vyVBu2oYEJu9uK9yOsRLqw5HDq0yI+Zhca1lbRX5aJKHqmr0voFIC46hsRIHG9v8
qsf1F2SVttQ8V2T9y94d+yH6HzyRHUN+yZWt1moVLEjuz5QraMMZqzYT31Anpyec
KHZg94KSCZETw/wiFrktbgDV8qp8G+tI0xSE//42Wb1ZCuE0WcT7N3p5B6dv3TW8
-----END CERTIFICATE-----
