Certificate:
    Data:
        Version: 3 (0x2)
        Serial Number:
            46:7d:c6:bc:26:80:7e:54:a4:e5:3f:4f:1a:be:f1:06
        Signature Algorithm: sha256WithRSAEncryption
        Issuer: CN=team283-net
        Validity
            Not Before: Nov  4 11:33:24 2023 GMT
            Not After : Oct 19 11:33:24 2026 GMT
        Subject: CN=team283-server
        Subject Public Key Info:
            Public Key Algorithm: rsaEncryption
                Public-Key: (2048 bit)
                Modulus:
                    00:ef:d9:0c:ef:82:6a:fc:ca:e6:32:62:80:9f:7a:
                    4a:4f:a6:9f:2b:57:1c:a3:48:5b:88:e4:a3:94:76:
                    74:6c:38:1e:43:bb:fc:f8:53:38:cb:53:69:ab:67:
                    11:ec:5b:50:1e:49:28:24:85:ec:8b:2e:a5:14:0e:
                    8c:11:ce:5b:c1:99:7e:df:a2:83:dd:d0:7d:33:51:
                    b2:3b:cc:5d:a6:5f:26:ad:9b:5c:50:c9:01:7b:9d:
                    50:a6:2a:3d:cd:f9:25:e6:75:c1:d3:13:62:2c:55:
                    3b:e3:41:48:e6:64:86:ce:0d:3b:29:8b:1f:2f:ee:
                    ec:34:49:f3:47:f0:76:d4:d3:74:9b:8b:2d:42:e2:
                    57:97:7c:a2:38:be:17:e4:a1:68:9a:96:65:2d:cd:
                    b4:26:cc:7a:6a:36:38:ee:f2:b5:04:cf:3f:95:eb:
                    a1:68:8e:ac:8d:a7:dd:6d:a5:d3:ba:ae:7c:fd:1e:
                    11:e7:4c:32:43:53:bf:88:bb:cb:58:72:18:a4:f6:
                    40:e4:26:18:dd:f4:fc:48:ee:89:db:de:e7:50:7d:
                    da:0b:e1:73:f0:b5:94:b9:ee:7b:e0:97:f3:5d:d8:
                    5a:f1:2d:4a:fe:61:cc:3a:63:a2:61:06:3e:40:e6:
                    b8:10:ba:68:c2:68:cb:50:a6:9d:5f:da:e8:6c:9a:
                    11:bf
                Exponent: 65537 (0x10001)
        X509v3 extensions:
            X509v3 Basic Constraints: 
                CA:FALSE
            X509v3 Subject Key Identifier: 
                E9:67:FF:C6:FB:98:C1:5A:12:3A:0B:8F:F5:7E:D9:9A:AB:27:D1:A4
            X509v3 Authority Key Identifier: 
                keyid:06:AE:BA:60:69:46:C4:7F:C7:DE:14:66:16:60:A7:60:E2:21:06:94
                DirName:/CN=team283-net
                serial:05:0D:4A:C2:01:C9:CE:2E:05:85:3B:44:34:0C:07:E4:F7:47:8D:78
            X509v3 Extended Key Usage: 
                TLS Web Server Authentication
            X509v3 Key Usage: 
                Digital Signature, Key Encipherment
            X509v3 Subject Alternative Name: 
                DNS:team283-server
    Signature Algorithm: sha256WithRSAEncryption
    Signature Value:
        02:8b:17:17:3f:00:78:0c:b5:29:b8:42:b6:56:00:47:c6:e6:
        66:47:04:ad:f9:f3:1a:60:91:76:f2:9a:3a:4d:a3:d6:5c:ee:
        2e:c1:16:ad:a7:b3:87:a2:22:53:f4:5a:f2:22:f3:05:3a:e4:
        f4:d6:04:7f:6a:7c:57:fc:df:c9:24:4c:31:4e:7b:f2:8a:64:
        07:fa:5a:8e:87:39:46:32:e4:46:4c:e0:bf:89:86:60:aa:3f:
        03:a5:9c:20:67:78:eb:57:4d:24:fb:1a:6f:8e:a2:f5:16:62:
        06:40:ee:a6:65:8d:ee:dc:82:09:05:26:df:ca:06:5f:ed:e5:
        24:e9:4c:d7:d4:f0:53:05:81:13:73:dc:49:11:72:34:f1:13:
        89:93:82:a7:34:46:72:32:80:c5:a0:21:54:90:99:ef:97:cc:
        0a:dc:00:26:77:7f:b1:d3:ee:67:73:56:76:a9:bf:e8:3d:6d:
        a2:66:8a:76:aa:6e:8d:6f:65:f4:7c:40:59:9b:03:00:9a:6a:
        47:57:28:ae:6e:70:2c:b2:eb:68:72:24:92:67:f7:4e:cb:68:
        e8:f2:b8:c2:d0:51:ab:9c:df:cf:4c:b9:4c:fe:03:29:31:81:
        fb:ee:6d:d1:fa:61:d5:fc:8a:13:8a:57:ce:3b:c2:b7:2d:92:
        72:66:40:2d
-----BEGIN CERTIFICATE-----
MIIDdzCCAl+gAwIBAgIQRn3GvCaAflSk5T9PGr7xBjANBgkqhkiG9w0BAQsFADAW
MRQwEgYDVQQDDAt0ZWFtMjgzLW5ldDAeFw0yMzExMDQxMTMzMjRaFw0yNjEwMTkx
MTMzMjRaMBkxFzAVBgNVBAMMDnRlYW0yODMtc2VydmVyMIIBIjANBgkqhkiG9w0B
AQEFAAOCAQ8AMIIBCgKCAQEA79kM74Jq/MrmMmKAn3pKT6afK1cco0hbiOSjlHZ0
bDgeQ7v8+FM4y1Npq2cR7FtQHkkoJIXsiy6lFA6MEc5bwZl+36KD3dB9M1GyO8xd
pl8mrZtcUMkBe51Qpio9zfkl5nXB0xNiLFU740FI5mSGzg07KYsfL+7sNEnzR/B2
1NN0m4stQuJXl3yiOL4X5KFompZlLc20Jsx6ajY47vK1BM8/leuhaI6sjafdbaXT
uq58/R4R50wyQ1O/iLvLWHIYpPZA5CYY3fT8SO6J297nUH3aC+Fz8LWUue574Jfz
Xdha8S1K/mHMOmOiYQY+QOa4ELpowmjLUKadX9robJoRvwIDAQABo4G9MIG6MAkG
A1UdEwQCMAAwHQYDVR0OBBYEFOln/8b7mMFaEjoLj/V+2ZqrJ9GkMFEGA1UdIwRK
MEiAFAauumBpRsR/x94UZhZgp2DiIQaUoRqkGDAWMRQwEgYDVQQDDAt0ZWFtMjgz
LW5ldIIUBQ1KwgHJzi4FhTtENAwH5PdHjXgwEwYDVR0lBAwwCgYIKwYBBQUHAwEw
CwYDVR0PBAQDAgWgMBkGA1UdEQQSMBCCDnRlYW0yODMtc2VydmVyMA0GCSqGSIb3
DQEBCwUAA4IBAQACixcXPwB4DLUpuEK2VgBHxuZmRwSt+fMaYJF28po6TaPWXO4u
wRatp7OHoiJT9FryIvMFOuT01gR/anxX/N/JJEwxTnvyimQH+lqOhzlGMuRGTOC/
iYZgqj8DpZwgZ3jrV00k+xpvjqL1FmIGQO6mZY3u3IIJBSbfygZf7eUk6UzX1PBT
BYETc9xJEXI08ROJk4KnNEZyMoDFoCFUkJnvl8wK3AAmd3+x0+5nc1Z2qb/oPW2i
Zop2qm6Nb2X0fEBZmwMAmmpHVyiubnAssutociSSZ/dOy2jo8rjC0FGrnN/PTLlM
/gMpMYH77m3R+mHV/IoTilfOO8K3LZJyZkAt
-----END CERTIFICATE-----
