Certificate:
    Data:
        Version: 3 (0x2)
        Serial Number:
            64:9a:27:49:24:37:ec:b5:d5:6e:b8:bb:5d:5f:67:dc
        Signature Algorithm: sha256WithRSAEncryption
        Issuer: CN=team283-net
        Validity
            Not Before: Nov  4 10:45:54 2023 GMT
            Not After : Oct 19 10:45:54 2026 GMT
        Subject: CN=team283-server
        Subject Public Key Info:
            Public Key Algorithm: rsaEncryption
                Public-Key: (2048 bit)
                Modulus:
                    00:aa:b0:55:17:83:92:a5:6e:c2:8d:ca:90:bd:c1:
                    f4:e9:64:b9:05:a0:7d:a7:3c:ff:f5:a2:54:5a:80:
                    ab:79:48:9d:fb:bf:f8:df:9c:3a:b6:5d:f0:42:9f:
                    42:8e:55:f9:42:45:64:a1:7d:0a:12:53:fb:a3:4d:
                    6e:66:4e:48:01:8e:36:21:49:b9:f1:2b:ca:c8:c0:
                    9f:a4:b1:77:f2:cd:14:4b:44:65:65:5b:f3:b8:7f:
                    90:ad:5b:6a:11:ef:06:ed:b9:05:a5:24:a4:10:fc:
                    af:7d:a3:88:67:aa:b3:e5:03:49:4b:78:7f:e8:66:
                    2f:5f:b6:2c:25:7a:ac:b4:e4:de:1a:18:0b:c1:8b:
                    72:13:3e:f6:5d:ab:97:f6:45:9b:ff:31:4b:88:51:
                    66:a9:b3:0f:69:be:31:ce:15:1e:19:bf:9c:46:9b:
                    b7:b7:16:b3:8e:a3:34:cf:60:fc:73:94:97:21:cb:
                    ac:86:b3:92:e2:8f:10:2b:38:54:bb:66:64:a8:02:
                    35:9b:c9:db:94:ee:26:ba:be:e6:b6:43:ce:1f:24:
                    eb:4f:2b:0f:12:97:06:9c:88:c4:02:ec:89:7f:26:
                    cd:86:32:ac:d8:50:37:ba:de:06:1f:58:8e:9c:ad:
                    50:aa:f7:1e:b3:42:ff:5e:2b:06:47:49:dc:6c:78:
                    30:91
                Exponent: 65537 (0x10001)
        X509v3 extensions:
            X509v3 Basic Constraints: 
                CA:FALSE
            X509v3 Subject Key Identifier: 
                43:F5:D7:C1:8D:F2:30:18:36:78:DC:5F:F8:32:6F:90:5D:98:6D:8E
            X509v3 Authority Key Identifier: 
                keyid:4B:E5:56:AE:FE:64:96:8D:7F:BF:BC:BB:2D:AA:BE:F1:22:6D:CF:B3
                DirName:/CN=team283-net
                serial:4A:2D:1F:B4:85:66:06:98:59:6D:E6:F1:51:A5:3B:60:78:B7:60:5F
            X509v3 Extended Key Usage: 
                TLS Web Server Authentication
            X509v3 Key Usage: 
                Digital Signature, Key Encipherment
            X509v3 Subject Alternative Name: 
                DNS:team283-server
    Signature Algorithm: sha256WithRSAEncryption
    Signature Value:
        98:f3:03:95:52:84:57:d6:7a:10:d9:36:27:1b:b0:24:b0:ec:
        ee:05:ea:4b:4a:4c:8e:9d:1d:5f:f0:ec:2b:a6:af:e6:bc:fe:
        69:a5:fc:ff:5a:26:6e:4b:d2:6c:cd:e0:2f:3f:21:35:d6:15:
        11:14:a1:9e:67:3c:1d:1c:33:d7:c5:68:8a:30:76:96:00:84:
        86:29:3b:cf:bc:cd:4d:6a:c4:37:c6:0d:a3:ea:16:e4:8e:19:
        08:5a:71:6e:ec:1f:64:dc:88:b5:5c:de:26:33:7d:c1:ab:88:
        29:e7:09:8e:23:57:e1:27:8a:32:ff:28:36:77:fc:c6:cb:98:
        33:0e:64:bc:bc:53:c2:5f:7c:49:a2:81:2b:a7:a9:67:32:b9:
        f9:5e:31:60:69:22:52:75:81:17:98:22:68:fe:de:55:41:31:
        c5:35:93:01:1e:06:02:90:32:8c:ac:ca:33:f6:99:16:c1:81:
        45:3a:72:14:cc:05:71:1e:ef:7b:06:f1:4e:73:7e:c6:47:70:
        9d:9c:bc:0f:eb:35:6f:b8:17:a2:7a:41:25:2d:3f:f3:c7:3a:
        1c:c5:d9:70:79:f6:a9:42:7b:37:af:37:1d:33:32:f3:79:fa:
        f9:0f:fd:e6:27:74:04:9a:4b:51:f6:e6:c3:af:0b:a8:f9:3a:
        91:7d:b0:58
-----BEGIN CERTIFICATE-----
MIIDdzCCAl+gAwIBAgIQZJonSSQ37LXVbri7XV9n3DANBgkqhkiG9w0BAQsFADAW
MRQwEgYDVQQDDAt0ZWFtMjgzLW5ldDAeFw0yMzExMDQxMDQ1NTRaFw0yNjEwMTkx
MDQ1NTRaMBkxFzAVBgNVBAMMDnRlYW0yODMtc2VydmVyMIIBIjANBgkqhkiG9w0B
AQEFAAOCAQ8AMIIBCgKCAQEAqrBVF4OSpW7CjcqQvcH06WS5BaB9pzz/9aJUWoCr
eUid+7/435w6tl3wQp9CjlX5QkVkoX0KElP7o01uZk5IAY42IUm58SvKyMCfpLF3
8s0US0RlZVvzuH+QrVtqEe8G7bkFpSSkEPyvfaOIZ6qz5QNJS3h/6GYvX7YsJXqs
tOTeGhgLwYtyEz72XauX9kWb/zFLiFFmqbMPab4xzhUeGb+cRpu3txazjqM0z2D8
c5SXIcushrOS4o8QKzhUu2ZkqAI1m8nblO4mur7mtkPOHyTrTysPEpcGnIjEAuyJ
fybNhjKs2FA3ut4GH1iOnK1Qqvces0L/XisGR0ncbHgwkQIDAQABo4G9MIG6MAkG
A1UdEwQCMAAwHQYDVR0OBBYEFEP118GN8jAYNnjcX/gyb5BdmG2OMFEGA1UdIwRK
MEiAFEvlVq7+ZJaNf7+8uy2qvvEibc+zoRqkGDAWMRQwEgYDVQQDDAt0ZWFtMjgz
LW5ldIIUSi0ftIVmBphZbebxUaU7YHi3YF8wEwYDVR0lBAwwCgYIKwYBBQUHAwEw
CwYDVR0PBAQDAgWgMBkGA1UdEQQSMBCCDnRlYW0yODMtc2VydmVyMA0GCSqGSIb3
DQEBCwUAA4IBAQCY8wOVUoRX1noQ2TYnG7AksOzuBepLSkyOnR1f8Owrpq/mvP5p
pfz/WiZuS9JszeAvPyE11hURFKGeZzwdHDPXxWiKMHaWAISGKTvPvM1NasQ3xg2j
6hbkjhkIWnFu7B9k3Ii1XN4mM33Bq4gp5wmOI1fhJ4oy/yg2d/zGy5gzDmS8vFPC
X3xJooErp6lnMrn5XjFgaSJSdYEXmCJo/t5VQTHFNZMBHgYCkDKMrMoz9pkWwYFF
OnIUzAVxHu97BvFOc37GR3CdnLwP6zVvuBeiekElLT/zxzocxdlwefapQns3rzcd
MzLzefr5D/3mJ3QEmktR9ubDrwuo+TqRfbBY
-----END CERTIFICATE-----
