Certificate:
    Data:
        Version: 3 (0x2)
        Serial Number:
            a9:bc:dc:66:19:27:45:d6:57:7b:3e:fe:e3:64:71:4f
        Signature Algorithm: sha256WithRSAEncryption
        Issuer: CN=team283-net
        Validity
            Not Before: Nov  3 20:44:28 2023 GMT
            Not After : Oct 18 20:44:28 2026 GMT
        Subject: CN=team283-client
        Subject Public Key Info:
            Public Key Algorithm: rsaEncryption
                Public-Key: (2048 bit)
                Modulus:
                    00:ba:3b:a0:4b:26:26:93:41:bf:58:2d:05:4b:1e:
                    22:1a:39:fc:a6:64:a7:77:e3:71:7d:ec:a6:97:f6:
                    ab:aa:b0:f4:3f:87:a4:63:7b:af:28:1a:48:f4:02:
                    89:5e:c0:e3:77:da:2a:25:cd:1c:06:a1:10:32:07:
                    55:d5:57:4b:d8:07:7e:b9:3d:e7:69:7d:af:cd:0d:
                    bf:c1:16:3e:66:c1:32:31:e4:a7:aa:b8:9d:25:ee:
                    75:7b:3e:5f:3f:26:9b:e9:9b:32:1f:b9:e1:a4:57:
                    f8:e3:e6:1e:a7:8f:e1:8f:cf:31:3f:e0:ab:20:c5:
                    4c:c5:8c:13:2e:93:68:98:8e:4f:98:e7:59:23:6c:
                    4e:85:5e:61:11:cd:e4:65:60:07:7c:b4:f1:ac:23:
                    d8:b3:6f:31:61:22:b5:15:c4:9b:10:0e:8f:fa:ff:
                    3a:5e:3b:4e:f8:dd:f2:f4:d1:80:bc:a6:76:4a:bd:
                    59:2b:9f:72:5f:e8:02:38:19:4d:97:cd:2f:99:b4:
                    ca:03:01:26:17:13:1f:c4:e0:f9:18:9b:e6:9d:73:
                    79:f2:c2:53:61:79:fc:2c:06:2f:20:dc:82:49:10:
                    e2:fe:63:bc:72:3d:ad:7d:d7:47:da:78:ec:2e:98:
                    82:0d:dd:ee:f7:a4:5d:83:99:d2:f3:a7:25:ec:46:
                    fb:b7
                Exponent: 65537 (0x10001)
        X509v3 extensions:
            X509v3 Basic Constraints: 
                CA:FALSE
            X509v3 Subject Key Identifier: 
                A2:FA:FF:20:FE:09:AA:67:58:D4:DD:7A:A4:F9:20:02:78:27:93:EF
            X509v3 Authority Key Identifier: 
                keyid:20:78:FB:4B:04:90:85:7D:77:B6:E7:AB:48:56:FA:53:85:3A:81:2C
                DirName:/CN=team283-net
                serial:57:78:DA:65:62:19:7F:02:8D:2F:07:46:D9:51:5B:9E:68:60:CA:DF
            X509v3 Extended Key Usage: 
                TLS Web Client Authentication
            X509v3 Key Usage: 
                Digital Signature
    Signature Algorithm: sha256WithRSAEncryption
    Signature Value:
        00:d5:e1:d4:ac:50:c6:99:41:eb:94:ed:0f:a0:bb:17:34:fc:
        f5:a1:c3:ee:a6:33:6a:44:90:a5:ce:c4:c2:c5:c1:38:57:d6:
        e3:cf:67:a9:7c:bc:0f:e3:b1:94:05:21:5e:34:d7:ab:4b:67:
        42:fc:92:2b:8f:2f:29:46:b5:0d:14:93:f6:7b:ad:a7:58:08:
        62:81:38:fe:70:de:14:70:53:83:23:77:97:b4:f9:46:33:1d:
        e2:b1:cd:7f:a0:39:6d:66:44:0b:3c:eb:a4:21:01:40:83:7b:
        c8:6b:17:17:8e:b2:24:64:1b:91:8c:79:c7:0e:18:b9:51:d7:
        d3:93:81:f2:6b:d6:17:69:bf:e4:fb:ee:48:b0:59:23:9b:aa:
        18:5d:23:3e:d5:0b:d9:b9:0c:52:70:77:c0:9a:49:4f:56:ae:
        6a:2c:f8:50:e7:08:65:13:32:d5:0b:f8:f7:86:ad:f0:28:64:
        1b:1a:66:0b:72:74:23:8c:f8:7e:09:8f:1d:c2:8b:ab:8e:3e:
        5b:f7:57:e2:fd:e2:79:8e:2e:17:75:f5:d1:e0:e9:ff:21:73:
        ea:c0:c3:68:76:f8:66:34:4d:8e:2d:ff:54:16:ca:f5:ca:ed:
        02:88:f3:9e:4a:20:da:f7:4a:4b:9d:9e:da:0f:c9:ef:d4:59:
        81:79:97:10
-----BEGIN CERTIFICATE-----
MIIDXTCCAkWgAwIBAgIRAKm83GYZJ0XWV3s+/uNkcU8wDQYJKoZIhvcNAQELBQAw
FjEUMBIGA1UEAwwLdGVhbTI4My1uZXQwHhcNMjMxMTAzMjA0NDI4WhcNMjYxMDE4
MjA0NDI4WjAZMRcwFQYDVQQDDA50ZWFtMjgzLWNsaWVudDCCASIwDQYJKoZIhvcN
AQEBBQADggEPADCCAQoCggEBALo7oEsmJpNBv1gtBUseIho5/KZkp3fjcX3sppf2
q6qw9D+HpGN7rygaSPQCiV7A43faKiXNHAahEDIHVdVXS9gHfrk952l9r80Nv8EW
PmbBMjHkp6q4nSXudXs+Xz8mm+mbMh+54aRX+OPmHqeP4Y/PMT/gqyDFTMWMEy6T
aJiOT5jnWSNsToVeYRHN5GVgB3y08awj2LNvMWEitRXEmxAOj/r/Ol47Tvjd8vTR
gLymdkq9WSufcl/oAjgZTZfNL5m0ygMBJhcTH8Tg+Rib5p1zefLCU2F5/CwGLyDc
gkkQ4v5jvHI9rX3XR9p47C6Ygg3d7vekXYOZ0vOnJexG+7cCAwEAAaOBojCBnzAJ
BgNVHRMEAjAAMB0GA1UdDgQWBBSi+v8g/gmqZ1jU3Xqk+SACeCeT7zBRBgNVHSME
SjBIgBQgePtLBJCFfXe256tIVvpThTqBLKEapBgwFjEUMBIGA1UEAwwLdGVhbTI4
My1uZXSCFFd42mViGX8CjS8HRtlRW55oYMrfMBMGA1UdJQQMMAoGCCsGAQUFBwMC
MAsGA1UdDwQEAwIHgDANBgkqhkiG9w0BAQsFAAOCAQEAANXh1KxQxplB65TtD6C7
FzT89aHD7qYzakSQpc7EwsXBOFfW489nqXy8D+OxlAUhXjTXq0tnQvySK48vKUa1
DRST9nutp1gIYoE4/nDeFHBTgyN3l7T5RjMd4rHNf6A5bWZECzzrpCEBQIN7yGsX
F46yJGQbkYx5xw4YuVHX05OB8mvWF2m/5PvuSLBZI5uqGF0jPtUL2bkMUnB3wJpJ
T1auaiz4UOcIZRMy1Qv494at8ChkGxpmC3J0I4z4fgmPHcKLq44+W/dX4v3ieY4u
F3X10eDp/yFz6sDDaHb4ZjRNji3/VBbK9crtAojznkog2vdKS52e2g/J79RZgXmX
EA==
-----END CERTIFICATE-----
