Certificate:
    Data:
        Version: 3 (0x2)
        Serial Number:
            34:ed:cf:40:8e:7d:b4:cd:34:a3:8d:16:5a:23:a8:07
        Signature Algorithm: sha256WithRSAEncryption
        Issuer: CN=team359-net
        Validity
            Not Before: Nov  4 11:35:27 2023 GMT
            Not After : Oct 19 11:35:27 2026 GMT
        Subject: CN=team359-server
        Subject Public Key Info:
            Public Key Algorithm: rsaEncryption
                Public-Key: (2048 bit)
                Modulus:
                    00:d1:e3:3b:a1:17:bd:07:19:be:d5:59:18:82:37:
                    45:64:d3:e7:05:cd:6d:f5:91:be:10:33:c4:b1:7e:
                    00:72:42:0e:f3:1b:eb:f2:96:3f:b7:05:fe:36:94:
                    8a:ec:8d:3a:d3:b4:2d:64:de:0c:07:9b:41:17:f1:
                    11:39:f0:ea:18:9b:28:ca:70:6e:a9:99:96:2a:12:
                    c6:ec:04:f8:d3:e2:0d:58:89:27:4d:cd:a1:49:88:
                    4a:f0:d8:70:bc:88:3d:ee:a6:6f:e9:05:76:6a:86:
                    44:7b:18:ed:c0:f1:c3:09:de:18:bf:ad:3f:02:c8:
                    57:dc:bc:d5:6f:7c:51:4d:6f:be:50:e1:f7:38:e7:
                    63:80:bc:a3:6f:c3:0a:89:5a:19:02:5f:28:b1:5b:
                    1f:ba:4b:67:e5:a5:33:73:5f:59:1a:1f:5e:5b:2a:
                    e7:de:fc:96:b5:29:e6:ca:6f:ad:d1:60:23:0a:e9:
                    ab:08:b0:e6:5a:03:ea:79:72:b1:9d:b6:00:1a:27:
                    a2:9a:62:c0:9a:f9:be:a9:cc:ed:46:30:d5:ed:f4:
                    fc:aa:ee:4d:f0:bb:f7:5b:e0:66:56:ea:94:d0:9e:
                    1b:3f:52:89:e6:56:37:fe:22:71:13:f9:93:dd:e6:
                    59:69:01:1a:c6:32:30:06:2b:7e:9e:72:4c:84:fd:
                    5f:fb
                Exponent: 65537 (0x10001)
        X509v3 extensions:
            X509v3 Basic Constraints: 
                CA:FALSE
            X509v3 Subject Key Identifier: 
                1E:29:C3:8D:A1:AA:8F:C2:5F:32:CC:9A:98:2A:26:A1:8F:CF:33:63
            X509v3 Authority Key Identifier: 
                keyid:36:8B:E0:37:17:5E:75:9E:77:03:66:65:F9:C6:16:D8:2E:E0:95:DF
                DirName:/CN=team359-net
                serial:40:B4:6C:3D:0F:BD:8D:FC:FA:33:98:06:70:1C:B2:67:E0:D2:47:08
            X509v3 Extended Key Usage: 
                TLS Web Server Authentication
            X509v3 Key Usage: 
                Digital Signature, Key Encipherment
            X509v3 Subject Alternative Name: 
                DNS:team359-server
    Signature Algorithm: sha256WithRSAEncryption
    Signature Value:
        03:fb:6d:c5:05:ca:ff:13:c6:a7:7d:fe:d7:27:5e:65:1d:ea:
        d1:c3:1b:d0:87:68:a6:06:7f:96:90:6e:01:69:d1:6b:75:3b:
        25:6d:4b:f2:85:96:61:4e:2a:d9:0c:77:47:bf:eb:08:d5:61:
        8a:72:49:4d:60:e5:91:7a:0c:1e:2d:4a:25:4e:30:56:71:e5:
        72:f1:23:84:24:40:85:bc:48:20:29:62:7e:65:f8:8c:d7:ec:
        a1:c4:24:6f:3f:82:ae:3c:0b:b0:f4:19:67:7f:49:06:a1:ae:
        b0:b9:d4:f1:ac:be:e1:9f:19:97:5c:3b:1e:63:7c:3c:ca:94:
        ff:bd:29:66:55:b7:1f:68:71:fc:0f:4a:24:2c:02:12:68:94:
        54:d6:cb:71:e3:ef:00:01:44:3d:bd:2e:15:68:33:b6:8c:81:
        fc:9a:97:ac:f0:0b:30:f9:f0:23:d3:e8:a8:f1:7d:11:5d:c8:
        37:4c:8a:d7:7f:40:97:c1:65:91:c1:7d:e5:e9:08:df:b7:b8:
        3c:d0:63:e1:09:6c:9a:58:06:c8:9a:26:f5:21:c5:f3:86:68:
        60:4d:fe:5c:55:5a:6a:1e:c0:3d:93:be:f6:07:f4:e4:1c:c4:
        a0:62:46:9c:7f:49:66:5c:82:c9:a7:e2:4a:b6:70:d2:7d:a2:
        e2:54:e8:3f
-----BEGIN CERTIFICATE-----
MIIDdzCCAl+gAwIBAgIQNO3PQI59tM00o40WWiOoBzANBgkqhkiG9w0BAQsFADAW
MRQwEgYDVQQDDAt0ZWFtMzU5LW5ldDAeFw0yMzExMDQxMTM1MjdaFw0yNjEwMTkx
MTM1MjdaMBkxFzAVBgNVBAMMDnRlYW0zNTktc2VydmVyMIIBIjANBgkqhkiG9w0B
AQEFAAOCAQ8AMIIBCgKCAQEA0eM7oRe9Bxm+1VkYgjdFZNPnBc1t9ZG+EDPEsX4A
ckIO8xvr8pY/twX+NpSK7I0607QtZN4MB5tBF/EROfDqGJsoynBuqZmWKhLG7AT4
0+INWIknTc2hSYhK8NhwvIg97qZv6QV2aoZEexjtwPHDCd4Yv60/AshX3LzVb3xR
TW++UOH3OOdjgLyjb8MKiVoZAl8osVsfuktn5aUzc19ZGh9eWyrn3vyWtSnmym+t
0WAjCumrCLDmWgPqeXKxnbYAGieimmLAmvm+qcztRjDV7fT8qu5N8Lv3W+BmVuqU
0J4bP1KJ5lY3/iJxE/mT3eZZaQEaxjIwBit+nnJMhP1f+wIDAQABo4G9MIG6MAkG
A1UdEwQCMAAwHQYDVR0OBBYEFB4pw42hqo/CXzLMmpgqJqGPzzNjMFEGA1UdIwRK
MEiAFDaL4DcXXnWedwNmZfnGFtgu4JXfoRqkGDAWMRQwEgYDVQQDDAt0ZWFtMzU5
LW5ldIIUQLRsPQ+9jfz6M5gGcByyZ+DSRwgwEwYDVR0lBAwwCgYIKwYBBQUHAwEw
CwYDVR0PBAQDAgWgMBkGA1UdEQQSMBCCDnRlYW0zNTktc2VydmVyMA0GCSqGSIb3
DQEBCwUAA4IBAQAD+23FBcr/E8anff7XJ15lHerRwxvQh2imBn+WkG4BadFrdTsl
bUvyhZZhTirZDHdHv+sI1WGKcklNYOWRegweLUolTjBWceVy8SOEJECFvEggKWJ+
ZfiM1+yhxCRvP4KuPAuw9Blnf0kGoa6wudTxrL7hnxmXXDseY3w8ypT/vSlmVbcf
aHH8D0okLAISaJRU1stx4+8AAUQ9vS4VaDO2jIH8mpes8Asw+fAj0+io8X0RXcg3
TIrXf0CXwWWRwX3l6Qjft7g80GPhCWyaWAbImib1IcXzhmhgTf5cVVpqHsA9k772
B/TkHMSgYkacf0lmXILJp+JKtnDSfaLiVOg/
-----END CERTIFICATE-----
