Certificate:
    Data:
        Version: 3 (0x2)
        Serial Number:
            3d:7a:c4:4d:4c:2c:6a:3b:f7:81:c4:23:12:ca:ef:ad
        Signature Algorithm: sha256WithRSAEncryption
        Issuer: CN=team359-net
        Validity
            Not Before: Nov  4 11:35:27 2023 GMT
            Not After : Oct 19 11:35:27 2026 GMT
        Subject: CN=team359-client
        Subject Public Key Info:
            Public Key Algorithm: rsaEncryption
                Public-Key: (2048 bit)
                Modulus:
                    00:d0:e5:c4:aa:33:1f:25:e7:ae:6c:ff:b8:93:f6:
                    dd:cc:45:aa:a6:5f:a6:88:0d:28:a6:00:0e:36:2d:
                    ce:ea:fc:2f:f9:b2:9f:b7:49:42:5a:cc:4a:37:96:
                    b1:4d:b9:f4:0f:b2:54:78:44:31:b1:4f:d9:26:41:
                    1c:da:3a:70:1c:55:26:38:54:ee:fc:91:49:b5:18:
                    f3:8f:8b:1e:0e:61:ba:83:4f:fc:64:61:99:96:75:
                    ef:fc:4b:46:1f:d7:cf:0d:fc:62:ca:0a:9e:1c:91:
                    6b:36:66:e7:d2:a5:ce:f1:d5:67:c6:39:f7:02:f2:
                    04:54:6a:26:60:43:69:10:2e:50:8b:7b:0b:15:be:
                    d9:7b:d9:22:c3:0f:77:2e:af:7e:60:93:c6:8d:d2:
                    f7:91:df:f3:8d:28:76:19:b3:21:d8:8c:2d:4b:bb:
                    bf:f4:b1:a2:c5:19:64:a8:ec:b0:9a:da:21:ff:9d:
                    50:ec:94:3c:b4:7b:92:b8:74:9b:7a:71:35:19:87:
                    ed:fa:f4:f5:20:89:b0:97:01:04:3b:83:fa:c3:e3:
                    a0:fe:fb:10:14:2f:24:cf:15:6d:3e:82:1a:26:3a:
                    c6:0a:00:af:cc:a1:2b:7a:22:e0:cc:be:14:cf:17:
                    61:fb:0a:b4:aa:ad:c0:be:1d:cc:7c:e5:85:24:c4:
                    53:49
                Exponent: 65537 (0x10001)
        X509v3 extensions:
            X509v3 Basic Constraints: 
                CA:FALSE
            X509v3 Subject Key Identifier: 
                81:38:F8:27:66:EC:E7:8F:7D:7D:DA:75:AD:B8:93:1C:BC:98:A6:E6
            X509v3 Authority Key Identifier: 
                keyid:36:8B:E0:37:17:5E:75:9E:77:03:66:65:F9:C6:16:D8:2E:E0:95:DF
                DirName:/CN=team359-net
                serial:40:B4:6C:3D:0F:BD:8D:FC:FA:33:98:06:70:1C:B2:67:E0:D2:47:08
            X509v3 Extended Key Usage: 
                TLS Web Client Authentication
            X509v3 Key Usage: 
                Digital Signature
    Signature Algorithm: sha256WithRSAEncryption
    Signature Value:
        a3:eb:63:ec:12:f2:76:14:a4:be:39:7f:74:4a:26:ff:16:02:
        b4:39:c0:46:8b:dd:e2:c7:ca:d5:cb:6a:bd:65:c2:99:6c:7e:
        98:e2:4a:35:91:b6:b6:9d:8b:9b:27:02:84:30:20:ad:6c:05:
        07:03:b3:98:98:31:1b:e4:4f:51:83:91:ad:fe:45:8c:12:1f:
        86:3e:fb:29:c9:8c:49:98:82:a0:47:dc:7e:5e:08:93:2f:0a:
        63:14:fe:ee:58:d5:e5:b5:1c:be:d9:5c:36:a4:74:27:89:b9:
        b6:9b:0e:4e:98:97:b5:99:8e:f8:2b:ac:46:fa:3e:f0:2d:6d:
        0f:2d:44:6a:be:51:ab:69:51:c6:80:5d:7f:a3:b3:04:ad:be:
        a5:e2:48:a5:bb:d7:26:4e:92:e5:6a:5d:63:bc:a2:3f:31:7e:
        46:42:de:6a:5f:87:c9:fe:88:eb:65:cd:79:a8:b4:b4:da:96:
        6d:00:fc:98:93:5b:41:16:7a:3b:0e:7c:f8:5a:b9:e9:e4:7c:
        70:55:44:63:09:40:42:c3:fe:8c:8b:4b:11:7e:38:45:36:01:
        04:43:4e:16:28:c0:ff:16:99:a8:b8:2b:09:ff:11:0f:a0:22:
        46:ff:01:eb:38:b1:2a:a4:07:2a:ce:be:d5:16:1f:85:b3:46:
        76:a8:99:2a
-----BEGIN CERTIFICATE-----
MIIDXDCCAkSgAwIBAgIQPXrETUwsajv3gcQjEsrvrTANBgkqhkiG9w0BAQsFADAW
MRQwEgYDVQQDDAt0ZWFtMzU5LW5ldDAeFw0yMzExMDQxMTM1MjdaFw0yNjEwMTkx
MTM1MjdaMBkxFzAVBgNVBAMMDnRlYW0zNTktY2xpZW50MIIBIjANBgkqhkiG9w0B
AQEFAAOCAQ8AMIIBCgKCAQEA0OXEqjMfJeeubP+4k/bdzEWqpl+miA0opgAONi3O
6vwv+bKft0lCWsxKN5axTbn0D7JUeEQxsU/ZJkEc2jpwHFUmOFTu/JFJtRjzj4se
DmG6g0/8ZGGZlnXv/EtGH9fPDfxiygqeHJFrNmbn0qXO8dVnxjn3AvIEVGomYENp
EC5Qi3sLFb7Ze9kiww93Lq9+YJPGjdL3kd/zjSh2GbMh2IwtS7u/9LGixRlkqOyw
mtoh/51Q7JQ8tHuSuHSbenE1GYft+vT1IImwlwEEO4P6w+Og/vsQFC8kzxVtPoIa
JjrGCgCvzKEreiLgzL4Uzxdh+wq0qq3Avh3MfOWFJMRTSQIDAQABo4GiMIGfMAkG
A1UdEwQCMAAwHQYDVR0OBBYEFIE4+Cdm7OePfX3ada24kxy8mKbmMFEGA1UdIwRK
MEiAFDaL4DcXXnWedwNmZfnGFtgu4JXfoRqkGDAWMRQwEgYDVQQDDAt0ZWFtMzU5
LW5ldIIUQLRsPQ+9jfz6M5gGcByyZ+DSRwgwEwYDVR0lBAwwCgYIKwYBBQUHAwIw
CwYDVR0PBAQDAgeAMA0GCSqGSIb3DQEBCwUAA4IBAQCj62PsEvJ2FKS+OX90Sib/
FgK0OcBGi93ix8rVy2q9ZcKZbH6Y4ko1kba2nYubJwKEMCCtbAUHA7OYmDEb5E9R
g5Gt/kWMEh+GPvspyYxJmIKgR9x+XgiTLwpjFP7uWNXltRy+2Vw2pHQnibm2mw5O
mJe1mY74K6xG+j7wLW0PLURqvlGraVHGgF1/o7MErb6l4kilu9cmTpLlal1jvKI/
MX5GQt5qX4fJ/ojrZc15qLS02pZtAPyYk1tBFno7Dnz4Wrnp5HxwVURjCUBCw/6M
i0sRfjhFNgEEQ04WKMD/FpmouCsJ/xEPoCJG/wHrOLEqpAcqzr7VFh+Fs0Z2qJkq
-----END CERTIFICATE-----
