Certificate:
    Data:
        Version: 3 (0x2)
        Serial Number:
            b6:ca:89:c6:15:17:44:14:3d:e6:2a:c2:ba:04:2d:61
        Signature Algorithm: sha256WithRSAEncryption
        Issuer: CN=team359-net
        Validity
            Not Before: Nov  4 10:47:09 2023 GMT
            Not After : Oct 19 10:47:09 2026 GMT
        Subject: CN=team359-server
        Subject Public Key Info:
            Public Key Algorithm: rsaEncryption
                Public-Key: (2048 bit)
                Modulus:
                    00:e5:82:38:29:6a:95:d1:c4:c9:da:30:46:9e:d6:
                    45:ef:fc:c3:b5:33:62:2e:4f:d5:b6:0c:94:ff:90:
                    9d:1b:51:77:0d:10:b1:c9:33:bd:e8:04:20:c9:12:
                    44:25:57:7b:0d:d3:6a:39:5b:c0:d7:4b:a4:28:73:
                    14:67:ab:27:b0:c7:9a:f4:8f:86:83:47:21:c3:dd:
                    43:23:07:aa:be:93:40:c5:71:4b:2d:14:b3:10:6a:
                    1b:50:ad:6a:eb:14:be:97:1e:58:e9:b0:47:a1:b5:
                    c5:ce:5a:d5:94:5c:f8:0c:f6:f5:63:14:79:cd:af:
                    98:a3:07:7e:ea:7a:a5:cd:8c:b4:1d:94:05:eb:b9:
                    39:7e:cd:4b:fe:f2:73:2e:92:1c:2d:8c:8c:a7:96:
                    19:0f:7e:c7:68:00:a4:62:18:fc:5f:e7:57:ec:77:
                    eb:42:bc:b2:97:3a:f3:94:60:4f:a4:e2:eb:78:59:
                    14:f5:91:81:1f:7c:b0:49:01:a5:81:0a:d1:f2:d7:
                    ed:e2:b0:e8:2d:0d:6f:29:81:3d:bf:78:4a:64:19:
                    39:3c:ba:34:e4:3c:d9:07:e7:f4:98:66:c4:4c:7f:
                    3c:86:1c:63:24:bf:e6:ab:e7:a5:2b:6f:77:f1:79:
                    62:af:0a:f1:2d:47:de:a4:a3:78:10:c8:fe:29:5b:
                    ff:d7
                Exponent: 65537 (0x10001)
        X509v3 extensions:
            X509v3 Basic Constraints: 
                CA:FALSE
            X509v3 Subject Key Identifier: 
                74:14:4F:9F:02:7D:09:59:B2:95:DB:24:AA:E4:1F:89:6F:B7:90:D5
            X509v3 Authority Key Identifier: 
                keyid:AC:80:EE:8A:C2:18:54:F9:65:6E:19:D2:72:B5:99:44:90:E8:99:63
                DirName:/CN=team359-net
                serial:2B:40:3D:9B:1E:58:C1:4B:B8:F9:79:58:58:7B:D5:3F:C0:C6:35:29
            X509v3 Extended Key Usage: 
                TLS Web Server Authentication
            X509v3 Key Usage: 
                Digital Signature, Key Encipherment
            X509v3 Subject Alternative Name: 
                DNS:team359-server
    Signature Algorithm: sha256WithRSAEncryption
    Signature Value:
        29:8f:e3:7e:64:7d:e5:18:61:97:db:1b:ae:71:03:f5:3f:14:
        0f:ce:ab:71:2b:d3:50:4a:2b:e2:00:55:aa:21:a4:93:08:4a:
        dd:41:18:18:98:0b:a2:fa:06:de:ab:68:61:ad:8b:f1:6c:1b:
        71:fc:85:49:a3:16:c6:89:db:7d:6f:21:64:27:e1:0b:92:e4:
        0e:3f:c0:70:55:ad:6b:ea:80:2b:b4:b3:3a:db:f4:de:cb:1a:
        39:a6:4a:9d:da:ca:7a:ea:8d:aa:32:99:ca:be:45:7b:3c:c6:
        fa:61:64:28:57:4d:b4:44:a4:f8:03:89:87:12:40:a0:cb:e8:
        e8:a9:74:aa:7a:0b:b7:b1:30:e8:28:91:63:07:7b:fa:c0:f2:
        30:81:1b:ca:4d:2e:04:5f:6f:8c:b9:54:ed:31:55:3f:84:45:
        64:83:0a:fa:10:3b:e8:70:f0:bd:97:17:13:3c:0b:3f:0f:6d:
        1e:ec:3b:b8:72:65:b1:af:66:8f:04:5b:28:13:64:4f:c8:fb:
        e1:d8:fc:4d:da:bd:87:84:48:19:59:2a:89:1c:74:65:32:92:
        30:43:38:56:0c:86:51:dc:ed:4c:84:99:cf:52:3d:b8:f3:8d:
        20:cd:71:1a:22:4f:3a:09:ec:96:a3:f0:de:15:a7:36:e6:b5:
        ac:6f:35:f3
-----BEGIN CERTIFICATE-----
MIIDeDCCAmCgAwIBAgIRALbKicYVF0QUPeYqwroELWEwDQYJKoZIhvcNAQELBQAw
FjEUMBIGA1UEAwwLdGVhbTM1OS1uZXQwHhcNMjMxMTA0MTA0NzA5WhcNMjYxMDE5
MTA0NzA5WjAZMRcwFQYDVQQDDA50ZWFtMzU5LXNlcnZlcjCCASIwDQYJKoZIhvcN
AQEBBQADggEPADCCAQoCggEBAOWCOClqldHEydowRp7WRe/8w7UzYi5P1bYMlP+Q
nRtRdw0QsckzvegEIMkSRCVXew3TajlbwNdLpChzFGerJ7DHmvSPhoNHIcPdQyMH
qr6TQMVxSy0UsxBqG1CtausUvpceWOmwR6G1xc5a1ZRc+Az29WMUec2vmKMHfup6
pc2MtB2UBeu5OX7NS/7ycy6SHC2MjKeWGQ9+x2gApGIY/F/nV+x360K8spc685Rg
T6Ti63hZFPWRgR98sEkBpYEK0fLX7eKw6C0NbymBPb94SmQZOTy6NOQ82Qfn9Jhm
xEx/PIYcYyS/5qvnpStvd/F5Yq8K8S1H3qSjeBDI/ilb/9cCAwEAAaOBvTCBujAJ
BgNVHRMEAjAAMB0GA1UdDgQWBBR0FE+fAn0JWbKV2ySq5B+Jb7eQ1TBRBgNVHSME
SjBIgBSsgO6KwhhU+WVuGdJytZlEkOiZY6EapBgwFjEUMBIGA1UEAwwLdGVhbTM1
OS1uZXSCFCtAPZseWMFLuPl5WFh71T/AxjUpMBMGA1UdJQQMMAoGCCsGAQUFBwMB
MAsGA1UdDwQEAwIFoDAZBgNVHREEEjAQgg50ZWFtMzU5LXNlcnZlcjANBgkqhkiG
9w0BAQsFAAOCAQEAKY/jfmR95Rhhl9sbrnED9T8UD86rcSvTUEor4gBVqiGkkwhK
3UEYGJgLovoG3qtoYa2L8WwbcfyFSaMWxonbfW8hZCfhC5LkDj/AcFWta+qAK7Sz
Otv03ssaOaZKndrKeuqNqjKZyr5FezzG+mFkKFdNtESk+AOJhxJAoMvo6Kl0qnoL
t7Ew6CiRYwd7+sDyMIEbyk0uBF9vjLlU7TFVP4RFZIMK+hA76HDwvZcXEzwLPw9t
Huw7uHJlsa9mjwRbKBNkT8j74dj8Tdq9h4RIGVkqiRx0ZTKSMEM4VgyGUdztTISZ
z1I9uPONIM1xGiJPOgnslqPw3hWnNua1rG818w==
-----END CERTIFICATE-----
