Certificate:
    Data:
        Version: 3 (0x2)
        Serial Number:
            e4:d0:fc:ca:02:96:ef:b7:c9:10:3d:2c:67:9d:08:f0
        Signature Algorithm: sha256WithRSAEncryption
        Issuer: CN=team359-net
        Validity
            Not Before: Nov  3 20:45:49 2023 GMT
            Not After : Oct 18 20:45:49 2026 GMT
        Subject: CN=team359-server
        Subject Public Key Info:
            Public Key Algorithm: rsaEncryption
                Public-Key: (2048 bit)
                Modulus:
                    00:cc:e2:b2:3e:9e:e7:34:67:22:d4:7e:68:80:f3:
                    96:1b:5c:16:93:d5:09:d2:43:00:ce:b2:d4:71:0f:
                    b2:ef:6c:02:02:62:5b:67:d9:bf:c8:0d:a9:30:a0:
                    51:cf:3a:a4:29:47:66:e6:a4:f5:83:57:e0:0a:75:
                    90:a3:9d:5d:65:be:e9:e2:33:ad:3b:3f:2c:3c:b7:
                    b2:39:d9:41:7b:a4:e4:9f:3f:b1:2e:9a:cb:80:3b:
                    6b:64:f5:52:8c:c9:b9:c2:a1:ae:40:19:8a:04:b1:
                    08:63:80:20:07:69:fc:73:9a:4e:1f:19:67:04:c5:
                    3c:3a:f8:a6:26:4a:9b:90:bc:7c:0f:0f:d1:68:47:
                    c1:64:96:b9:3b:a9:43:e9:3c:b4:a1:37:28:71:ed:
                    f1:2c:2c:79:b6:e1:2d:e3:a7:c1:0e:fe:ef:5d:41:
                    26:3e:0c:84:4a:2e:28:df:37:7e:d3:d1:32:1e:fb:
                    b2:26:dc:dd:d3:84:ff:38:aa:86:e8:c6:07:06:1d:
                    94:9e:fe:97:48:a2:8b:c9:d4:78:e7:61:30:c3:13:
                    a2:8a:41:d5:5a:5b:24:eb:ed:12:02:9e:13:61:6e:
                    3d:8e:cb:44:32:17:38:83:3a:47:e3:05:f1:f5:10:
                    12:9c:e8:d3:4d:56:1c:f8:86:d6:aa:26:f8:b6:60:
                    85:fd
                Exponent: 65537 (0x10001)
        X509v3 extensions:
            X509v3 Basic Constraints: 
                CA:FALSE
            X509v3 Subject Key Identifier: 
                2B:72:90:3F:0D:A9:77:EB:68:9F:9E:BD:4A:5C:5F:15:11:80:92:68
            X509v3 Authority Key Identifier: 
                keyid:00:A7:0E:7E:53:0F:91:52:89:B0:2F:5F:15:6F:D2:66:E2:FB:79:78
                DirName:/CN=team359-net
                serial:03:9A:FF:B5:FA:CC:73:55:41:A1:8E:9D:59:FE:A3:AA:18:4C:23:A8
            X509v3 Extended Key Usage: 
                TLS Web Server Authentication
            X509v3 Key Usage: 
                Digital Signature, Key Encipherment
            X509v3 Subject Alternative Name: 
                DNS:team359-server
    Signature Algorithm: sha256WithRSAEncryption
    Signature Value:
        1f:19:14:00:ee:dc:80:cb:f0:e6:2f:3a:91:5f:a7:a4:d0:0e:
        85:79:d9:01:95:e2:6c:9b:56:f0:35:4c:87:4b:ec:a1:91:50:
        46:7c:9c:e2:23:e8:11:22:4e:c7:53:af:44:18:96:a6:99:25:
        a0:ed:b6:89:ec:a6:d1:4d:3c:fa:2f:ce:2b:c1:8a:19:dc:34:
        9b:d1:6b:96:28:20:95:bb:07:3b:a5:26:85:ca:71:26:4d:db:
        aa:ea:d1:25:27:b6:fb:fe:c2:7c:32:99:d5:79:bd:7d:03:46:
        15:32:22:97:38:40:50:a7:20:f8:9c:00:73:45:8b:1c:ce:9f:
        5b:67:29:e6:23:35:e6:0d:60:98:d0:d7:95:44:b3:87:b2:97:
        99:8e:d9:30:70:65:96:3c:42:3d:9f:58:7a:e3:cf:15:ba:e7:
        1f:5a:89:c9:bd:53:ca:01:d2:ac:33:be:c5:30:ee:17:d2:c2:
        eb:38:84:ae:50:38:7c:d0:15:6b:e0:77:cd:3f:c9:91:cd:34:
        53:97:f9:b7:ee:d8:21:44:e5:4c:2f:58:4f:00:1d:ad:22:4d:
        50:c5:e3:93:0c:3e:f2:79:68:45:b7:77:f8:1c:a1:b7:23:cf:
        a6:57:12:e7:44:31:fa:f3:ee:17:f2:d7:b3:b5:88:25:e9:18:
        02:c1:c0:52
-----BEGIN CERTIFICATE-----
MIIDeDCCAmCgAwIBAgIRAOTQ/MoClu+3yRA9LGedCPAwDQYJKoZIhvcNAQELBQAw
FjEUMBIGA1UEAwwLdGVhbTM1OS1uZXQwHhcNMjMxMTAzMjA0NTQ5WhcNMjYxMDE4
MjA0NTQ5WjAZMRcwFQYDVQQDDA50ZWFtMzU5LXNlcnZlcjCCASIwDQYJKoZIhvcN
AQEBBQADggEPADCCAQoCggEBAMzisj6e5zRnItR+aIDzlhtcFpPVCdJDAM6y1HEP
su9sAgJiW2fZv8gNqTCgUc86pClHZuak9YNX4Ap1kKOdXWW+6eIzrTs/LDy3sjnZ
QXuk5J8/sS6ay4A7a2T1UozJucKhrkAZigSxCGOAIAdp/HOaTh8ZZwTFPDr4piZK
m5C8fA8P0WhHwWSWuTupQ+k8tKE3KHHt8SwsebbhLeOnwQ7+711BJj4MhEouKN83
ftPRMh77sibc3dOE/ziqhujGBwYdlJ7+l0iii8nUeOdhMMMToopB1VpbJOvtEgKe
E2FuPY7LRDIXOIM6R+MF8fUQEpzo001WHPiG1qom+LZghf0CAwEAAaOBvTCBujAJ
BgNVHRMEAjAAMB0GA1UdDgQWBBQrcpA/Dal362ifnr1KXF8VEYCSaDBRBgNVHSME
SjBIgBQApw5+Uw+RUomwL18Vb9Jm4vt5eKEapBgwFjEUMBIGA1UEAwwLdGVhbTM1
OS1uZXSCFAOa/7X6zHNVQaGOnVn+o6oYTCOoMBMGA1UdJQQMMAoGCCsGAQUFBwMB
MAsGA1UdDwQEAwIFoDAZBgNVHREEEjAQgg50ZWFtMzU5LXNlcnZlcjANBgkqhkiG
9w0BAQsFAAOCAQEAHxkUAO7cgMvw5i86kV+npNAOhXnZAZXibJtW8DVMh0vsoZFQ
Rnyc4iPoESJOx1OvRBiWppkloO22ieym0U08+i/OK8GKGdw0m9FrligglbsHO6Um
hcpxJk3bqurRJSe2+/7CfDKZ1Xm9fQNGFTIilzhAUKcg+JwAc0WLHM6fW2cp5iM1
5g1gmNDXlUSzh7KXmY7ZMHBlljxCPZ9YeuPPFbrnH1qJyb1TygHSrDO+xTDuF9LC
6ziErlA4fNAVa+B3zT/Jkc00U5f5t+7YIUTlTC9YTwAdrSJNUMXjkww+8nloRbd3
+ByhtyPPplcS50Qx+vPuF/LXs7WIJekYAsHAUg==
-----END CERTIFICATE-----
