Certificate:
    Data:
        Version: 3 (0x2)
        Serial Number:
            10:f3:4e:a9:31:01:a6:a1:9f:cd:8d:2a:5a:ad:7e:d6
        Signature Algorithm: sha256WithRSAEncryption
        Issuer: CN=team428-net
        Validity
            Not Before: Nov  3 20:47:01 2023 GMT
            Not After : Oct 18 20:47:01 2026 GMT
        Subject: CN=team428-client
        Subject Public Key Info:
            Public Key Algorithm: rsaEncryption
                Public-Key: (2048 bit)
                Modulus:
                    00:b1:43:dd:33:a5:ca:77:ba:51:7c:e3:52:43:0c:
                    ec:81:f2:08:d3:da:aa:c4:02:c3:69:bd:27:e6:ac:
                    71:70:97:ab:66:c6:27:a0:9c:e4:9f:40:ac:17:8b:
                    40:55:c9:e2:ae:79:e6:53:84:59:94:a6:27:71:82:
                    93:9e:56:df:12:99:f8:b8:ed:48:17:63:f3:c7:0d:
                    e0:51:dd:21:9c:64:21:7d:90:7c:3b:58:d2:1e:f0:
                    90:23:6c:8a:19:87:6b:ad:5c:b9:2f:d7:91:21:5e:
                    2b:5c:8e:42:47:6c:a7:60:ba:3d:26:26:db:f8:69:
                    49:8a:91:fa:8b:76:13:33:32:67:5a:cf:9d:54:dd:
                    bd:dc:65:d1:25:ac:dd:d3:94:8a:3e:2e:a9:33:05:
                    a4:67:eb:0f:4e:f9:87:3e:e7:f9:3d:ea:7a:cb:07:
                    ed:83:25:1c:2e:7a:15:eb:fe:3e:67:a0:a1:93:d7:
                    91:d8:1e:8e:6b:9a:d2:25:2a:12:8f:09:15:ab:2e:
                    93:b1:1f:6e:df:b0:33:52:4a:de:f0:57:21:b3:fa:
                    f9:4b:0e:6f:89:46:a9:ab:9a:58:94:0a:44:d7:0f:
                    ce:48:5a:0a:3a:a3:8a:0f:a1:54:a9:ba:ff:f8:04:
                    06:a7:83:bd:9e:76:55:1b:cd:38:9b:55:32:56:a8:
                    76:07
                Exponent: 65537 (0x10001)
        X509v3 extensions:
            X509v3 Basic Constraints: 
                CA:FALSE
            X509v3 Subject Key Identifier: 
                CE:27:7E:2C:2D:9E:38:66:91:FF:44:85:93:F8:A7:C6:87:D1:0D:52
            X509v3 Authority Key Identifier: 
                keyid:AF:89:63:18:11:83:13:CC:75:37:3C:4D:BF:18:20:B0:29:30:11:C6
                DirName:/CN=team428-net
                serial:4D:70:42:70:CB:14:D5:25:90:A4:F2:FE:18:A5:AD:F0:9A:52:61:FD
            X509v3 Extended Key Usage: 
                TLS Web Client Authentication
            X509v3 Key Usage: 
                Digital Signature
    Signature Algorithm: sha256WithRSAEncryption
    Signature Value:
        05:e4:70:ae:fa:64:61:37:b1:53:bf:12:5a:be:c1:7f:89:55:
        41:09:e2:b4:a7:e5:eb:27:47:8b:30:61:44:8e:fb:7f:4c:b0:
        c4:87:29:ed:1e:d5:c8:68:1d:4b:7d:72:d9:b7:ed:7e:54:e1:
        00:03:6f:12:79:a0:8c:f8:28:ac:ce:05:0d:e8:a8:be:70:79:
        3a:15:b0:be:16:f5:59:4b:4d:03:52:4a:8c:4c:10:f6:31:7d:
        cd:a7:a9:8e:4e:ea:37:a8:39:f7:42:25:41:03:c8:35:05:47:
        a9:24:79:c6:17:08:c7:b4:2e:7d:9f:c5:a6:3a:c5:b2:55:a3:
        84:b4:1d:14:94:d2:fe:78:65:28:e2:d5:63:63:c2:f5:18:b8:
        b6:9b:ff:5b:8c:78:f4:61:ab:de:4a:8c:60:ea:2f:38:a1:53:
        89:4c:48:51:63:ad:77:45:3a:9c:bc:df:6b:c3:cc:b1:cb:1f:
        33:e9:5a:17:87:0d:41:eb:68:56:3c:ee:ef:5e:c1:5e:8a:4a:
        dc:00:64:c3:11:87:5f:73:c0:fc:67:9d:19:65:fc:3f:98:e1:
        41:92:11:ed:41:80:9b:fa:42:18:1a:05:a3:46:e7:de:f7:87:
        5d:19:04:e6:f1:b8:97:9b:be:c8:98:22:f4:73:8d:b2:fb:d7:
        8b:53:fc:37
-----BEGIN CERTIFICATE-----
MIIDXDCCAkSgAwIBAgIQEPNOqTEBpqGfzY0qWq1+1jANBgkqhkiG9w0BAQsFADAW
MRQwEgYDVQQDDAt0ZWFtNDI4LW5ldDAeFw0yMzExMDMyMDQ3MDFaFw0yNjEwMTgy
MDQ3MDFaMBkxFzAVBgNVBAMMDnRlYW00MjgtY2xpZW50MIIBIjANBgkqhkiG9w0B
AQEFAAOCAQ8AMIIBCgKCAQEAsUPdM6XKd7pRfONSQwzsgfII09qqxALDab0n5qxx
cJerZsYnoJzkn0CsF4tAVcnirnnmU4RZlKYncYKTnlbfEpn4uO1IF2Pzxw3gUd0h
nGQhfZB8O1jSHvCQI2yKGYdrrVy5L9eRIV4rXI5CR2ynYLo9Jibb+GlJipH6i3YT
MzJnWs+dVN293GXRJazd05SKPi6pMwWkZ+sPTvmHPuf5Pep6ywftgyUcLnoV6/4+
Z6Chk9eR2B6Oa5rSJSoSjwkVqy6TsR9u37AzUkre8Fchs/r5Sw5viUapq5pYlApE
1w/OSFoKOqOKD6FUqbr/+AQGp4O9nnZVG804m1UyVqh2BwIDAQABo4GiMIGfMAkG
A1UdEwQCMAAwHQYDVR0OBBYEFM4nfiwtnjhmkf9EhZP4p8aH0Q1SMFEGA1UdIwRK
MEiAFK+JYxgRgxPMdTc8Tb8YILApMBHGoRqkGDAWMRQwEgYDVQQDDAt0ZWFtNDI4
LW5ldIIUTXBCcMsU1SWQpPL+GKWt8JpSYf0wEwYDVR0lBAwwCgYIKwYBBQUHAwIw
CwYDVR0PBAQDAgeAMA0GCSqGSIb3DQEBCwUAA4IBAQAF5HCu+mRhN7FTvxJavsF/
iVVBCeK0p+XrJ0eLMGFEjvt/TLDEhyntHtXIaB1LfXLZt+1+VOEAA28SeaCM+Cis
zgUN6Ki+cHk6FbC+FvVZS00DUkqMTBD2MX3Np6mOTuo3qDn3QiVBA8g1BUepJHnG
FwjHtC59n8WmOsWyVaOEtB0UlNL+eGUo4tVjY8L1GLi2m/9bjHj0YaveSoxg6i84
oVOJTEhRY613RTqcvN9rw8yxyx8z6VoXhw1B62hWPO7vXsFeikrcAGTDEYdfc8D8
Z50ZZfw/mOFBkhHtQYCb+kIYGgWjRufe94ddGQTm8biXm77ImCL0c42y+9eLU/w3
-----END CERTIFICATE-----
