Certificate:
    Data:
        Version: 3 (0x2)
        Serial Number:
            e5:17:ce:15:c2:26:aa:88:ba:aa:27:7d:14:78:34:78
        Signature Algorithm: sha256WithRSAEncryption
        Issuer: CN=team428-net
        Validity
            Not Before: Nov  3 20:47:01 2023 GMT
            Not After : Oct 18 20:47:01 2026 GMT
        Subject: CN=team428-server
        Subject Public Key Info:
            Public Key Algorithm: rsaEncryption
                Public-Key: (2048 bit)
                Modulus:
                    00:b0:e7:70:cf:f2:da:dd:46:d3:cf:dd:be:7a:ee:
                    bb:de:d6:3e:ee:46:91:a4:ba:28:14:95:4c:7e:91:
                    a8:11:d1:4a:23:42:d9:46:e1:62:c8:31:69:ce:08:
                    23:3c:55:62:e5:39:82:65:ae:a3:33:a6:df:3c:be:
                    99:cd:43:65:ca:46:9c:9a:16:96:c8:46:02:a2:aa:
                    ef:6e:8b:73:80:b4:51:fa:1e:33:78:22:5e:44:c6:
                    e4:48:bd:61:c9:05:70:95:6f:c7:db:7a:66:93:72:
                    d3:e4:9c:5b:88:25:e6:88:26:76:c5:ed:60:a3:d0:
                    9f:fb:d9:27:3d:75:41:68:54:ff:fb:67:17:50:8e:
                    40:8d:e5:d4:9f:08:f7:f3:b2:ee:4c:eb:da:4c:96:
                    8f:76:43:6c:c6:b6:27:c1:13:39:5d:04:33:af:09:
                    bc:f3:1b:6c:e5:38:8a:2a:a8:5c:a0:83:c4:6f:15:
                    b2:b2:0b:dc:b6:6c:11:57:ff:e5:98:8e:aa:2b:a2:
                    ad:bc:79:c2:c2:0c:2c:00:3e:fc:99:83:13:0a:88:
                    f3:94:14:68:ae:11:32:d0:3f:ce:51:32:05:33:c8:
                    fa:9b:37:f0:78:fa:ef:99:76:75:22:25:c7:46:9d:
                    01:5b:eb:ba:db:9e:d5:e5:ab:51:45:7d:fa:05:4d:
                    10:df
                Exponent: 65537 (0x10001)
        X509v3 extensions:
            X509v3 Basic Constraints: 
                CA:FALSE
            X509v3 Subject Key Identifier: 
                C9:88:DA:4B:5C:3D:6F:FC:D1:A0:5B:AB:4A:4B:32:6F:7F:D2:95:45
            X509v3 Authority Key Identifier: 
                keyid:AF:89:63:18:11:83:13:CC:75:37:3C:4D:BF:18:20:B0:29:30:11:C6
                DirName:/CN=team428-net
                serial:4D:70:42:70:CB:14:D5:25:90:A4:F2:FE:18:A5:AD:F0:9A:52:61:FD
            X509v3 Extended Key Usage: 
                TLS Web Server Authentication
            X509v3 Key Usage: 
                Digital Signature, Key Encipherment
            X509v3 Subject Alternative Name: 
                DNS:team428-server
    Signature Algorithm: sha256WithRSAEncryption
    Signature Value:
        36:f7:f1:46:47:e7:9a:50:56:19:f3:90:fe:5f:03:d0:de:88:
        9e:0f:b3:3d:95:c5:f4:17:90:e6:8c:49:91:d0:42:f0:de:f6:
        ce:4e:47:c2:a6:fe:1f:ce:1a:d9:50:93:15:33:86:ac:b1:11:
        a9:0e:e0:44:70:9a:47:fb:49:7f:bb:a4:66:f1:cb:2a:d8:67:
        98:a4:7c:1f:e4:2b:63:74:38:83:aa:d0:ad:88:72:11:77:ec:
        a1:b2:17:48:17:78:c1:97:fe:ab:63:b6:d9:33:b9:73:aa:56:
        24:95:f4:b0:1a:0d:ed:22:73:46:a1:ce:1b:85:f8:de:c1:c7:
        b9:62:e9:7b:87:42:f6:de:6c:45:56:15:30:51:d9:b8:66:cb:
        64:69:6b:71:7d:3d:52:ec:94:e2:c6:84:56:3e:84:36:85:35:
        0d:89:6a:83:0e:0f:8d:de:01:d2:a8:17:71:4b:52:60:f7:52:
        ff:74:95:4f:49:4b:5d:af:24:75:df:b2:57:77:2e:87:e1:99:
        df:22:f3:25:7e:ef:82:63:08:6a:d4:19:e7:62:6f:bb:16:79:
        08:d0:eb:cc:e8:da:9f:f7:18:91:b8:3e:9e:ec:b2:61:a2:1c:
        65:e6:e1:d5:bb:3e:95:50:c8:c8:bb:b3:3c:31:76:a5:70:5f:
        10:d2:cf:68
-----BEGIN CERTIFICATE-----
MIIDeDCCAmCgAwIBAgIRAOUXzhXCJqqIuqonfRR4NHgwDQYJKoZIhvcNAQELBQAw
FjEUMBIGA1UEAwwLdGVhbTQyOC1uZXQwHhcNMjMxMTAzMjA0NzAxWhcNMjYxMDE4
MjA0NzAxWjAZMRcwFQYDVQQDDA50ZWFtNDI4LXNlcnZlcjCCASIwDQYJKoZIhvcN
AQEBBQADggEPADCCAQoCggEBALDncM/y2t1G08/dvnruu97WPu5GkaS6KBSVTH6R
qBHRSiNC2UbhYsgxac4IIzxVYuU5gmWuozOm3zy+mc1DZcpGnJoWlshGAqKq726L
c4C0UfoeM3giXkTG5Ei9YckFcJVvx9t6ZpNy0+ScW4gl5ogmdsXtYKPQn/vZJz11
QWhU//tnF1COQI3l1J8I9/Oy7kzr2kyWj3ZDbMa2J8ETOV0EM68JvPMbbOU4iiqo
XKCDxG8VsrIL3LZsEVf/5ZiOqiuirbx5wsIMLAA+/JmDEwqI85QUaK4RMtA/zlEy
BTPI+ps38Hj675l2dSIlx0adAVvrutue1eWrUUV9+gVNEN8CAwEAAaOBvTCBujAJ
BgNVHRMEAjAAMB0GA1UdDgQWBBTJiNpLXD1v/NGgW6tKSzJvf9KVRTBRBgNVHSME
SjBIgBSviWMYEYMTzHU3PE2/GCCwKTARxqEapBgwFjEUMBIGA1UEAwwLdGVhbTQy
OC1uZXSCFE1wQnDLFNUlkKTy/hilrfCaUmH9MBMGA1UdJQQMMAoGCCsGAQUFBwMB
MAsGA1UdDwQEAwIFoDAZBgNVHREEEjAQgg50ZWFtNDI4LXNlcnZlcjANBgkqhkiG
9w0BAQsFAAOCAQEANvfxRkfnmlBWGfOQ/l8D0N6Ing+zPZXF9BeQ5oxJkdBC8N72
zk5Hwqb+H84a2VCTFTOGrLERqQ7gRHCaR/tJf7ukZvHLKthnmKR8H+QrY3Q4g6rQ
rYhyEXfsobIXSBd4wZf+q2O22TO5c6pWJJX0sBoN7SJzRqHOG4X43sHHuWLpe4dC
9t5sRVYVMFHZuGbLZGlrcX09UuyU4saEVj6ENoU1DYlqgw4Pjd4B0qgXcUtSYPdS
/3SVT0lLXa8kdd+yV3cuh+GZ3yLzJX7vgmMIatQZ52JvuxZ5CNDrzOjan/cYkbg+
nuyyYaIcZebh1bs+lVDIyLuzPDF2pXBfENLPaA==
-----END CERTIFICATE-----
