Certificate:
    Data:
        Version: 3 (0x2)
        Serial Number:
            c0:f9:cb:04:31:89:28:a5:7a:82:30:ec:19:fd:b3:a6
        Signature Algorithm: sha256WithRSAEncryption
        Issuer: CN=team256-net
        Validity
            Not Before: Nov  3 20:44:00 2023 GMT
            Not After : Oct 18 20:44:00 2026 GMT
        Subject: CN=team256-client
        Subject Public Key Info:
            Public Key Algorithm: rsaEncryption
                Public-Key: (2048 bit)
                Modulus:
                    00:b4:6f:e5:a6:91:de:be:5e:0d:de:c6:de:3c:2b:
                    9a:66:3a:7f:5e:63:8f:44:cb:5f:ea:d1:da:88:b5:
                    df:c6:c3:86:60:b0:27:73:ac:d5:96:08:fc:a7:04:
                    b8:15:1b:ae:e2:15:e8:b5:42:26:ce:5d:ab:0e:e7:
                    14:5d:f0:df:03:22:25:62:d2:4b:57:4a:ea:58:4e:
                    39:72:80:53:88:29:16:bc:9a:69:d0:8e:d0:06:d0:
                    6e:e7:67:b0:36:f8:e8:71:7c:08:35:1b:58:c0:bd:
                    d8:a7:e2:be:45:ab:04:c8:67:e0:87:62:96:3b:b1:
                    9e:b8:23:c0:b1:b0:39:00:fe:64:13:0d:28:f1:6a:
                    86:e5:1a:c4:f2:f3:e3:ad:fc:1b:19:6b:0c:d1:89:
                    8c:d5:0d:94:62:fa:9c:8d:5a:44:17:12:ed:f5:ed:
                    97:65:3a:73:a0:7b:90:29:5d:40:d6:fe:06:4a:83:
                    57:1c:ea:b8:01:74:31:3c:11:3d:97:77:70:83:1e:
                    91:80:ce:cf:47:9c:d8:e8:be:48:6c:c3:20:08:c4:
                    e3:9e:88:08:b1:9a:70:5f:4e:b8:5c:2f:2a:c8:48:
                    51:46:2b:72:e1:a6:9a:f9:d2:cc:ba:fc:1f:09:e4:
                    98:a5:b9:8c:0d:27:3c:d8:04:80:d8:4d:d6:e8:4e:
                    af:5b
                Exponent: 65537 (0x10001)
        X509v3 extensions:
            X509v3 Basic Constraints: 
                CA:FALSE
            X509v3 Subject Key Identifier: 
                C1:EB:67:53:B8:5A:A1:09:66:43:43:7A:0A:B5:E6:CA:FA:5C:59:DB
            X509v3 Authority Key Identifier: 
                keyid:24:B1:E2:D8:50:0C:D2:B6:F0:59:F6:74:EF:14:2E:E2:CB:55:D5:75
                DirName:/CN=team256-net
                serial:79:96:DD:39:48:BB:F5:E5:A0:F3:AE:3A:0D:A7:8A:D1:65:C1:31:2F
            X509v3 Extended Key Usage: 
                TLS Web Client Authentication
            X509v3 Key Usage: 
                Digital Signature
    Signature Algorithm: sha256WithRSAEncryption
    Signature Value:
        5b:17:be:80:30:8f:67:5f:46:74:dd:d1:a0:13:10:9f:6f:29:
        bb:28:c9:7e:83:2b:e9:fd:fc:7d:b4:81:09:43:7b:61:7f:67:
        26:c6:39:9a:6a:42:b8:27:06:88:70:67:73:5e:ba:ed:18:6c:
        19:e6:41:bd:c3:06:c7:26:a4:6a:50:3d:fa:bf:ad:52:19:11:
        5e:0c:65:4d:b1:27:c1:3c:d9:32:68:78:b6:a9:57:16:69:5a:
        c8:5b:f7:69:15:5c:b7:fd:b2:bc:54:ae:a9:00:64:28:14:d9:
        e7:d4:3c:1f:0c:62:a8:09:15:4b:0c:be:c4:9f:ec:13:b7:b0:
        4c:e2:f0:5d:06:4d:a1:d4:7f:75:25:2a:91:d8:bf:36:79:d1:
        9d:5e:4b:3b:f1:c1:3d:58:44:3e:34:49:9f:e3:83:69:13:2b:
        35:f1:3a:bf:c7:d1:87:ad:b7:68:46:9b:37:da:97:c2:05:70:
        ef:32:32:0b:6a:83:d9:d0:94:9c:61:63:aa:16:08:29:2b:ee:
        0d:d3:e6:80:db:87:c5:b5:c2:9d:b7:ec:43:ac:66:00:c0:0c:
        2b:16:6e:fd:25:00:07:b1:53:7c:8f:4c:37:49:4e:d5:f2:53:
        f1:e5:83:4a:bd:db:1e:67:c2:61:3b:8b:b7:3f:f3:8d:b1:71:
        d1:c7:7f:8e
-----BEGIN CERTIFICATE-----
MIIDXTCCAkWgAwIBAgIRAMD5ywQxiSileoIw7Bn9s6YwDQYJKoZIhvcNAQELBQAw
FjEUMBIGA1UEAwwLdGVhbTI1Ni1uZXQwHhcNMjMxMTAzMjA0NDAwWhcNMjYxMDE4
MjA0NDAwWjAZMRcwFQYDVQQDDA50ZWFtMjU2LWNsaWVudDCCASIwDQYJKoZIhvcN
AQEBBQADggEPADCCAQoCggEBALRv5aaR3r5eDd7G3jwrmmY6f15jj0TLX+rR2oi1
38bDhmCwJ3Os1ZYI/KcEuBUbruIV6LVCJs5dqw7nFF3w3wMiJWLSS1dK6lhOOXKA
U4gpFryaadCO0AbQbudnsDb46HF8CDUbWMC92KfivkWrBMhn4IdiljuxnrgjwLGw
OQD+ZBMNKPFqhuUaxPLz4638GxlrDNGJjNUNlGL6nI1aRBcS7fXtl2U6c6B7kCld
QNb+BkqDVxzquAF0MTwRPZd3cIMekYDOz0ec2Oi+SGzDIAjE456ICLGacF9OuFwv
KshIUUYrcuGmmvnSzLr8HwnkmKW5jA0nPNgEgNhN1uhOr1sCAwEAAaOBojCBnzAJ
BgNVHRMEAjAAMB0GA1UdDgQWBBTB62dTuFqhCWZDQ3oKtebK+lxZ2zBRBgNVHSME
SjBIgBQkseLYUAzStvBZ9nTvFC7iy1XVdaEapBgwFjEUMBIGA1UEAwwLdGVhbTI1
Ni1uZXSCFHmW3TlIu/XloPOuOg2nitFlwTEvMBMGA1UdJQQMMAoGCCsGAQUFBwMC
MAsGA1UdDwQEAwIHgDANBgkqhkiG9w0BAQsFAAOCAQEAWxe+gDCPZ19GdN3RoBMQ
n28puyjJfoMr6f38fbSBCUN7YX9nJsY5mmpCuCcGiHBnc1667RhsGeZBvcMGxyak
alA9+r+tUhkRXgxlTbEnwTzZMmh4tqlXFmlayFv3aRVct/2yvFSuqQBkKBTZ59Q8
HwxiqAkVSwy+xJ/sE7ewTOLwXQZNodR/dSUqkdi/NnnRnV5LO/HBPVhEPjRJn+OD
aRMrNfE6v8fRh623aEabN9qXwgVw7zIyC2qD2dCUnGFjqhYIKSvuDdPmgNuHxbXC
nbfsQ6xmAMAMKxZu/SUAB7FTfI9MN0lO1fJT8eWDSr3bHmfCYTuLtz/zjbFx0cd/
jg==
-----END CERTIFICATE-----
