Certificate:
    Data:
        Version: 3 (0x2)
        Serial Number:
            7e:76:59:6b:ae:b5:a4:52:fb:35:be:85:79:7e:fe:12
        Signature Algorithm: sha256WithRSAEncryption
        Issuer: CN=team236-net
        Validity
            Not Before: Nov  3 20:43:37 2023 GMT
            Not After : Oct 18 20:43:37 2026 GMT
        Subject: CN=team236-client
        Subject Public Key Info:
            Public Key Algorithm: rsaEncryption
                Public-Key: (2048 bit)
                Modulus:
                    00:d9:2e:d7:f6:e8:83:ed:d7:3b:d4:31:c9:4c:46:
                    7c:4d:5f:0a:f2:65:f1:67:51:a6:fc:e8:33:3f:9d:
                    0a:86:bb:ee:8f:87:34:64:ad:f1:9f:e0:d9:23:b9:
                    77:68:68:cb:9a:9e:68:b7:eb:64:42:d2:4a:4f:e3:
                    5a:ba:ea:23:c8:59:b3:5d:bc:31:a9:f4:ff:a8:54:
                    8b:8a:ef:b2:57:e0:ac:ac:16:10:1f:95:d9:4d:28:
                    fa:a8:43:1c:28:40:bb:c5:a8:dd:36:91:ed:0a:ef:
                    5d:0c:81:3b:b6:78:76:a5:50:9c:f4:5d:c2:a0:6d:
                    9b:aa:e7:bc:80:55:7a:c1:31:96:9c:7e:dc:fc:72:
                    c1:1d:09:aa:72:73:0e:22:62:be:58:36:cd:d8:95:
                    e1:dd:bf:d7:ea:e4:88:69:6f:f4:a4:6b:62:46:c3:
                    37:70:0e:10:ad:e9:b1:39:2f:33:83:a7:7a:3d:8d:
                    be:b1:9c:c6:22:03:fa:24:c8:5c:99:5a:d4:fa:65:
                    f8:37:eb:9a:5c:a2:24:ce:64:9f:af:cf:0c:11:5d:
                    55:27:4f:23:2a:8d:cd:f6:ed:02:fc:3b:3e:59:28:
                    1b:1a:ac:07:6c:a5:f3:bd:80:b2:eb:4b:0e:37:d7:
                    b4:b8:36:88:f8:f6:36:ab:ec:09:a2:d1:2c:40:8d:
                    96:05
                Exponent: 65537 (0x10001)
        X509v3 extensions:
            X509v3 Basic Constraints: 
                CA:FALSE
            X509v3 Subject Key Identifier: 
                6C:62:B7:11:FD:A6:94:30:6F:A5:DB:2D:68:2D:BD:FE:99:99:D7:70
            X509v3 Authority Key Identifier: 
                keyid:AC:A3:79:EF:65:59:7D:77:12:96:79:0E:08:32:52:DD:BD:73:53:32
                DirName:/CN=team236-net
                serial:3D:80:BD:BD:FC:55:81:E5:4E:D3:92:DB:D6:C6:AE:B1:A3:75:72:50
            X509v3 Extended Key Usage: 
                TLS Web Client Authentication
            X509v3 Key Usage: 
                Digital Signature
    Signature Algorithm: sha256WithRSAEncryption
    Signature Value:
        79:24:4d:fe:4c:34:25:af:51:b4:70:28:6a:49:02:b0:07:f7:
        c8:c1:cd:93:16:4a:48:74:10:41:72:6a:e5:13:36:14:f1:77:
        c3:3f:16:b5:6f:cf:ce:01:2d:42:dc:6a:15:7d:71:c1:42:b4:
        20:67:e3:c8:0f:d9:6d:45:e9:9e:6a:cb:96:50:c1:96:66:ea:
        35:1a:ce:9a:c1:4b:1d:eb:98:5c:67:60:a9:4b:05:10:57:20:
        75:0e:76:c5:ad:09:8b:dd:02:da:11:6c:e1:6f:42:6b:b1:79:
        37:78:0a:89:ec:f8:fd:73:e5:19:3b:b2:9a:1b:af:2d:f3:b9:
        a7:6d:a7:36:ca:d2:22:33:d2:60:f7:6a:66:68:4d:d0:c7:6f:
        95:42:1c:78:7c:d6:fb:d0:6c:87:9f:24:53:c6:de:32:48:6d:
        3c:51:4f:2a:c9:cf:d7:e8:27:a0:94:6d:24:42:d5:e3:20:70:
        96:58:26:a0:88:15:f8:80:02:ff:32:ee:52:d3:dc:59:3d:35:
        53:a9:f5:22:21:1f:7e:7d:32:71:77:7c:b4:91:66:f8:89:ae:
        a5:2d:61:d2:60:55:ef:45:93:a0:0b:26:79:91:e8:ac:95:8e:
        31:6b:5b:7f:93:54:84:55:1b:1b:5b:6b:e2:b9:3c:59:db:d7:
        81:d9:db:b6
-----BEGIN CERTIFICATE-----
MIIDXDCCAkSgAwIBAgIQfnZZa661pFL7Nb6FeX7+EjANBgkqhkiG9w0BAQsFADAW
MRQwEgYDVQQDDAt0ZWFtMjM2LW5ldDAeFw0yMzExMDMyMDQzMzdaFw0yNjEwMTgy
MDQzMzdaMBkxFzAVBgNVBAMMDnRlYW0yMzYtY2xpZW50MIIBIjANBgkqhkiG9w0B
AQEFAAOCAQ8AMIIBCgKCAQEA2S7X9uiD7dc71DHJTEZ8TV8K8mXxZ1Gm/OgzP50K
hrvuj4c0ZK3xn+DZI7l3aGjLmp5ot+tkQtJKT+NauuojyFmzXbwxqfT/qFSLiu+y
V+CsrBYQH5XZTSj6qEMcKEC7xajdNpHtCu9dDIE7tnh2pVCc9F3CoG2bque8gFV6
wTGWnH7c/HLBHQmqcnMOImK+WDbN2JXh3b/X6uSIaW/0pGtiRsM3cA4QremxOS8z
g6d6PY2+sZzGIgP6JMhcmVrU+mX4N+uaXKIkzmSfr88MEV1VJ08jKo3N9u0C/Ds+
WSgbGqwHbKXzvYCy60sON9e0uDaI+PY2q+wJotEsQI2WBQIDAQABo4GiMIGfMAkG
A1UdEwQCMAAwHQYDVR0OBBYEFGxitxH9ppQwb6XbLWgtvf6ZmddwMFEGA1UdIwRK
MEiAFKyjee9lWX13EpZ5DggyUt29c1MyoRqkGDAWMRQwEgYDVQQDDAt0ZWFtMjM2
LW5ldIIUPYC9vfxVgeVO05Lb1sausaN1clAwEwYDVR0lBAwwCgYIKwYBBQUHAwIw
CwYDVR0PBAQDAgeAMA0GCSqGSIb3DQEBCwUAA4IBAQB5JE3+TDQlr1G0cChqSQKw
B/fIwc2TFkpIdBBBcmrlEzYU8XfDPxa1b8/OAS1C3GoVfXHBQrQgZ+PID9ltReme
asuWUMGWZuo1Gs6awUsd65hcZ2CpSwUQVyB1DnbFrQmL3QLaEWzhb0JrsXk3eAqJ
7Pj9c+UZO7KaG68t87mnbac2ytIiM9Jg92pmaE3Qx2+VQhx4fNb70GyHnyRTxt4y
SG08UU8qyc/X6CeglG0kQtXjIHCWWCagiBX4gAL/Mu5S09xZPTVTqfUiIR9+fTJx
d3y0kWb4ia6lLWHSYFXvRZOgCyZ5keislY4xa1t/k1SEVRsbW2viuTxZ29eB2du2
-----END CERTIFICATE-----
