Certificate:
    Data:
        Version: 3 (0x2)
        Serial Number:
            08:ee:ac:8e:59:50:df:7a:1e:42:66:15:22:54:e8:5c
        Signature Algorithm: sha256WithRSAEncryption
        Issuer: CN=team140-net
        Validity
            Not Before: Nov  4 10:43:08 2023 GMT
            Not After : Oct 19 10:43:08 2026 GMT
        Subject: CN=team140-client
        Subject Public Key Info:
            Public Key Algorithm: rsaEncryption
                Public-Key: (2048 bit)
                Modulus:
                    00:eb:c1:fc:10:e9:d7:55:0f:cb:f7:61:cb:5f:3d:
                    c0:41:b6:b2:00:8e:67:5c:19:b0:12:bf:71:d1:8f:
                    6a:29:46:74:67:b6:21:85:d5:2f:aa:95:b9:58:06:
                    91:f4:eb:79:98:78:48:28:77:30:bf:53:76:96:db:
                    60:ae:66:5f:3d:f1:9c:a1:26:ff:c4:ae:48:5c:eb:
                    fd:f6:65:e8:63:a6:bd:0f:96:ca:22:3a:71:a0:2a:
                    c6:79:37:d3:2a:25:23:0a:28:72:dd:aa:1b:32:a9:
                    b1:de:77:d9:8a:3c:68:d1:31:ac:b9:67:7d:32:84:
                    b4:2f:88:55:4b:00:6b:d5:3a:2e:e7:c8:50:7b:ac:
                    b2:7a:2f:27:c6:c9:51:f8:db:d2:2b:38:11:e6:75:
                    db:de:71:c2:f7:27:cf:2b:a2:6e:69:d0:61:0d:7f:
                    3c:e1:24:56:9d:93:96:44:eb:6f:a4:44:3d:3b:63:
                    cf:2b:46:e7:71:ae:53:41:19:66:fa:8a:df:ce:cc:
                    ab:5a:3d:35:d4:6d:df:dc:a0:be:37:ef:9e:62:3e:
                    fe:09:59:0d:65:ef:b8:cc:91:44:11:b7:2d:ba:74:
                    62:ea:1f:bf:fa:d9:58:95:7e:42:91:57:28:5a:a3:
                    92:cc:98:1c:e6:0e:94:b9:21:d4:ac:f8:91:99:30:
                    9e:df
                Exponent: 65537 (0x10001)
        X509v3 extensions:
            X509v3 Basic Constraints: 
                CA:FALSE
            X509v3 Subject Key Identifier: 
                4E:CE:35:49:FD:06:94:03:4D:5D:13:6A:A9:0A:D5:57:53:18:6B:1C
            X509v3 Authority Key Identifier: 
                keyid:8A:00:0C:74:6E:6C:48:FB:96:B4:6D:2F:CA:C9:53:D1:A3:F5:91:0A
                DirName:/CN=team140-net
                serial:7A:0A:7F:FB:0A:E5:9C:73:F7:F2:75:7A:51:13:31:42:BD:67:B9:1B
            X509v3 Extended Key Usage: 
                TLS Web Client Authentication
            X509v3 Key Usage: 
                Digital Signature
    Signature Algorithm: sha256WithRSAEncryption
    Signature Value:
        90:6b:b6:4d:91:4b:29:69:e4:c5:c8:7e:fc:61:54:16:1e:7d:
        88:b9:84:79:32:6e:37:34:e4:a2:4e:b2:f4:d9:75:e7:22:7f:
        c6:c2:41:82:0c:3e:6f:93:9b:99:cb:f4:49:fe:9a:4d:67:75:
        84:e7:03:31:98:39:07:1b:97:32:7d:0f:d5:f0:61:a0:ce:88:
        9c:96:29:84:d7:cd:b5:cf:88:ec:86:f7:25:a7:96:69:2f:49:
        71:cd:ba:d7:a6:41:4a:d6:29:76:dc:3e:8a:bc:27:8d:a0:8e:
        34:e1:94:69:71:ff:03:89:40:1b:61:11:74:00:f3:b1:76:9b:
        7d:a7:3f:ff:c7:0a:9e:c8:24:0c:09:14:4c:5c:58:7b:b2:0f:
        ed:f4:0a:c7:fc:2f:3a:a0:85:b5:69:c5:75:bd:5c:c2:b5:b0:
        75:69:5e:0f:a4:05:f0:cd:eb:d1:aa:ca:e5:02:72:1a:c3:69:
        6f:e8:08:47:da:57:77:4d:85:17:1d:27:a1:d7:84:bc:1d:42:
        69:ba:ec:34:67:b5:b6:9b:ea:24:2e:d2:8e:00:e9:41:d7:27:
        1e:8d:72:09:a6:52:15:f5:43:f6:98:8a:58:9b:f5:35:8f:6c:
        09:78:24:82:13:43:5f:75:fa:ac:ea:e7:6f:e0:9b:27:52:49:
        e6:23:0f:ae
-----BEGIN CERTIFICATE-----
MIIDXDCCAkSgAwIBAgIQCO6sjllQ33oeQmYVIlToXDANBgkqhkiG9w0BAQsFADAW
MRQwEgYDVQQDDAt0ZWFtMTQwLW5ldDAeFw0yMzExMDQxMDQzMDhaFw0yNjEwMTkx
MDQzMDhaMBkxFzAVBgNVBAMMDnRlYW0xNDAtY2xpZW50MIIBIjANBgkqhkiG9w0B
AQEFAAOCAQ8AMIIBCgKCAQEA68H8EOnXVQ/L92HLXz3AQbayAI5nXBmwEr9x0Y9q
KUZ0Z7YhhdUvqpW5WAaR9Ot5mHhIKHcwv1N2lttgrmZfPfGcoSb/xK5IXOv99mXo
Y6a9D5bKIjpxoCrGeTfTKiUjCihy3aobMqmx3nfZijxo0TGsuWd9MoS0L4hVSwBr
1Tou58hQe6yyei8nxslR+NvSKzgR5nXb3nHC9yfPK6JuadBhDX884SRWnZOWROtv
pEQ9O2PPK0bnca5TQRlm+orfzsyrWj011G3f3KC+N++eYj7+CVkNZe+4zJFEEbct
unRi6h+/+tlYlX5CkVcoWqOSzJgc5g6UuSHUrPiRmTCe3wIDAQABo4GiMIGfMAkG
A1UdEwQCMAAwHQYDVR0OBBYEFE7ONUn9BpQDTV0TaqkK1VdTGGscMFEGA1UdIwRK
MEiAFIoADHRubEj7lrRtL8rJU9Gj9ZEKoRqkGDAWMRQwEgYDVQQDDAt0ZWFtMTQw
LW5ldIIUegp/+wrlnHP38nV6URMxQr1nuRswEwYDVR0lBAwwCgYIKwYBBQUHAwIw
CwYDVR0PBAQDAgeAMA0GCSqGSIb3DQEBCwUAA4IBAQCQa7ZNkUspaeTFyH78YVQW
Hn2IuYR5Mm43NOSiTrL02XXnIn/GwkGCDD5vk5uZy/RJ/ppNZ3WE5wMxmDkHG5cy
fQ/V8GGgzoiclimE1821z4jshvclp5ZpL0lxzbrXpkFK1il23D6KvCeNoI404ZRp
cf8DiUAbYRF0APOxdpt9pz//xwqeyCQMCRRMXFh7sg/t9ArH/C86oIW1acV1vVzC
tbB1aV4PpAXwzevRqsrlAnIaw2lv6AhH2ld3TYUXHSeh14S8HUJpuuw0Z7W2m+ok
LtKOAOlB1ycejXIJplIV9UP2mIpYm/U1j2wJeCSCE0Nfdfqs6udv4JsnUknmIw+u
-----END CERTIFICATE-----
