Certificate:
    Data:
        Version: 3 (0x2)
        Serial Number:
            16:3a:d5:02:72:19:e2:8f:9c:c9:f3:a5:1e:c7:b6:6e
        Signature Algorithm: sha256WithRSAEncryption
        Issuer: CN=team140-net
        Validity
            Not Before: Nov  3 20:41:43 2023 GMT
            Not After : Oct 18 20:41:43 2026 GMT
        Subject: CN=team140-client
        Subject Public Key Info:
            Public Key Algorithm: rsaEncryption
                Public-Key: (2048 bit)
                Modulus:
                    00:e1:59:64:85:99:6e:d2:41:05:3c:d4:6a:ce:21:
                    df:a7:78:c5:b2:76:3d:c7:80:51:13:c0:b2:30:0a:
                    19:1a:b8:0c:19:2e:57:5e:9e:b1:58:93:49:92:b6:
                    0f:f4:23:f5:46:e4:51:0c:32:ee:4b:05:6e:ec:98:
                    e0:80:21:93:61:b0:a5:50:eb:b1:c1:55:2a:8d:5f:
                    39:29:d3:cd:8a:6e:e8:6f:de:88:b9:83:66:f8:50:
                    56:26:f2:ed:0d:f5:82:77:36:aa:03:d7:b6:e7:3f:
                    7d:bb:c0:39:2b:24:c1:6a:da:dd:40:e2:ca:d4:53:
                    36:2c:17:58:50:ff:ea:27:42:51:4c:da:cb:fc:7f:
                    87:6a:66:0e:f2:a9:12:ee:c5:df:07:84:3a:22:de:
                    76:b2:91:06:58:0b:55:3f:76:ae:33:77:5a:b3:09:
                    07:03:65:82:6c:2c:e4:54:06:e1:b7:82:f4:12:58:
                    bc:d4:ff:16:1c:58:98:32:7f:dc:a8:a6:02:14:79:
                    a1:1b:36:46:a9:e8:5b:c7:65:7b:e1:12:99:b0:65:
                    29:07:92:99:5b:98:8d:d8:fb:b6:73:d2:34:00:d4:
                    54:0c:52:dc:11:4d:bf:8a:43:ac:30:9b:79:9f:cd:
                    c0:0e:d9:f6:a9:47:cb:83:c3:2e:5f:51:58:88:35:
                    9c:bb
                Exponent: 65537 (0x10001)
        X509v3 extensions:
            X509v3 Basic Constraints: 
                CA:FALSE
            X509v3 Subject Key Identifier: 
                DA:32:D4:25:CC:17:57:64:EE:72:EB:5E:67:91:BC:49:0D:4D:6C:B2
            X509v3 Authority Key Identifier: 
                keyid:60:41:D3:8B:99:44:DE:FD:56:12:28:9A:77:E0:B4:63:09:21:6E:DE
                DirName:/CN=team140-net
                serial:6D:56:7C:E0:90:84:1C:D7:B8:9A:33:1E:F2:07:88:EA:62:D3:2D:DB
            X509v3 Extended Key Usage: 
                TLS Web Client Authentication
            X509v3 Key Usage: 
                Digital Signature
    Signature Algorithm: sha256WithRSAEncryption
    Signature Value:
        63:5d:94:18:7b:93:aa:54:14:cc:61:59:02:d8:d5:0e:da:81:
        77:89:73:ce:8c:fb:cd:1d:6d:ca:56:11:7e:55:51:66:8c:6f:
        cb:e1:3b:c0:01:36:94:c7:41:99:ba:53:61:e7:a1:13:14:76:
        70:40:21:4c:c3:24:a1:75:53:a6:f8:2a:61:ca:40:83:e0:08:
        54:9e:6c:7c:72:ee:f1:84:61:e3:83:79:c6:44:b1:03:8d:fd:
        17:88:5e:e3:4e:2c:40:69:07:21:fc:97:ed:83:1c:48:05:bb:
        71:35:30:f5:3b:00:aa:15:b8:ef:91:33:ca:9d:d5:ec:2a:46:
        cd:a0:78:e0:c2:fc:8d:08:64:30:91:b6:ca:c5:10:45:e9:30:
        da:95:c7:6f:92:6a:80:bd:d1:3c:c1:74:a1:60:4e:d6:c8:31:
        c9:78:82:81:8d:4f:41:a8:29:d3:7d:ee:04:f1:09:56:d5:49:
        ff:46:b0:05:45:b4:81:7f:82:4f:5e:2d:ba:36:af:36:25:0f:
        2f:f4:dd:ca:12:7c:50:72:2c:65:e7:e8:c9:20:8c:4d:51:35:
        39:06:bd:20:13:bf:57:93:1e:91:d2:2d:a6:82:a6:ef:6b:f3:
        69:f5:af:b0:b2:a6:d9:97:e1:c9:2e:27:d9:b7:0b:9f:84:fb:
        4d:c0:1a:79
-----BEGIN CERTIFICATE-----
MIIDXDCCAkSgAwIBAgIQFjrVAnIZ4o+cyfOlHse2bjANBgkqhkiG9w0BAQsFADAW
MRQwEgYDVQQDDAt0ZWFtMTQwLW5ldDAeFw0yMzExMDMyMDQxNDNaFw0yNjEwMTgy
MDQxNDNaMBkxFzAVBgNVBAMMDnRlYW0xNDAtY2xpZW50MIIBIjANBgkqhkiG9w0B
AQEFAAOCAQ8AMIIBCgKCAQEA4VlkhZlu0kEFPNRqziHfp3jFsnY9x4BRE8CyMAoZ
GrgMGS5XXp6xWJNJkrYP9CP1RuRRDDLuSwVu7JjggCGTYbClUOuxwVUqjV85KdPN
im7ob96IuYNm+FBWJvLtDfWCdzaqA9e25z99u8A5KyTBatrdQOLK1FM2LBdYUP/q
J0JRTNrL/H+HamYO8qkS7sXfB4Q6It52spEGWAtVP3auM3daswkHA2WCbCzkVAbh
t4L0Eli81P8WHFiYMn/cqKYCFHmhGzZGqehbx2V74RKZsGUpB5KZW5iN2Pu2c9I0
ANRUDFLcEU2/ikOsMJt5n83ADtn2qUfLg8MuX1FYiDWcuwIDAQABo4GiMIGfMAkG
A1UdEwQCMAAwHQYDVR0OBBYEFNoy1CXMF1dk7nLrXmeRvEkNTWyyMFEGA1UdIwRK
MEiAFGBB04uZRN79VhIomnfgtGMJIW7eoRqkGDAWMRQwEgYDVQQDDAt0ZWFtMTQw
LW5ldIIUbVZ84JCEHNe4mjMe8geI6mLTLdswEwYDVR0lBAwwCgYIKwYBBQUHAwIw
CwYDVR0PBAQDAgeAMA0GCSqGSIb3DQEBCwUAA4IBAQBjXZQYe5OqVBTMYVkC2NUO
2oF3iXPOjPvNHW3KVhF+VVFmjG/L4TvAATaUx0GZulNh56ETFHZwQCFMwyShdVOm
+CphykCD4AhUnmx8cu7xhGHjg3nGRLEDjf0XiF7jTixAaQch/JftgxxIBbtxNTD1
OwCqFbjvkTPKndXsKkbNoHjgwvyNCGQwkbbKxRBF6TDalcdvkmqAvdE8wXShYE7W
yDHJeIKBjU9BqCnTfe4E8QlW1Un/RrAFRbSBf4JPXi26Nq82JQ8v9N3KEnxQcixl
5+jJIIxNUTU5Br0gE79Xkx6R0i2mgqbva/Np9a+wsqbZl+HJLifZtwufhPtNwBp5
-----END CERTIFICATE-----
