Certificate:
    Data:
        Version: 3 (0x2)
        Serial Number:
            63:3b:84:ec:e5:7e:f3:08:29:82:c9:15:59:82:a8:68
        Signature Algorithm: sha256WithRSAEncryption
        Issuer: CN=team140-net
        Validity
            Not Before: Nov  4 11:30:19 2023 GMT
            Not After : Oct 19 11:30:19 2026 GMT
        Subject: CN=team140-server
        Subject Public Key Info:
            Public Key Algorithm: rsaEncryption
                Public-Key: (2048 bit)
                Modulus:
                    00:c9:90:48:6a:82:65:96:84:e6:72:54:07:18:02:
                    07:bc:bf:b6:8b:62:20:56:b4:45:e5:dc:5f:c3:f3:
                    44:8f:e6:83:0c:ee:19:df:d6:0f:4b:36:df:38:9b:
                    7d:29:7a:4a:e8:17:71:4f:71:67:0d:7f:ec:d9:e8:
                    74:d4:a1:d7:76:c2:07:ca:f4:17:1e:94:93:0d:0c:
                    b5:b4:34:ae:c1:9c:46:db:35:be:0d:eb:a0:c2:33:
                    41:62:86:54:ce:3b:38:9f:eb:1d:21:af:26:65:3f:
                    34:3a:bb:13:f3:ef:a4:3f:fe:eb:fe:36:1c:62:40:
                    d6:85:34:b8:46:60:14:c3:84:09:87:94:b4:5a:f9:
                    49:4c:21:0f:3d:c0:da:f3:cc:74:00:56:ee:ee:0c:
                    4b:26:2d:20:c2:22:ac:f1:76:bf:2f:19:15:9c:07:
                    5a:03:28:67:7a:c5:8f:62:e8:c9:45:8a:d7:6f:39:
                    98:87:9e:1b:91:14:85:84:b4:52:4f:84:d6:e0:b4:
                    16:21:98:2d:b1:d9:0c:f7:cd:02:47:f8:47:24:f7:
                    63:dc:45:82:3a:33:55:83:7a:88:34:0e:e9:5f:a4:
                    1f:92:de:ad:fa:b7:65:68:d4:be:26:e9:2f:fe:92:
                    00:08:b4:c9:4e:b4:81:40:56:94:55:47:fa:04:d2:
                    de:ff
                Exponent: 65537 (0x10001)
        X509v3 extensions:
            X509v3 Basic Constraints: 
                CA:FALSE
            X509v3 Subject Key Identifier: 
                4C:88:55:0B:67:DD:80:0F:01:F5:D8:58:6A:D8:F5:13:AA:36:30:1E
            X509v3 Authority Key Identifier: 
                keyid:63:82:26:99:62:58:99:0B:2D:B5:BE:52:8E:11:34:1F:EF:54:45:A1
                DirName:/CN=team140-net
                serial:2A:BA:86:ED:03:34:58:A1:86:F5:26:C8:19:47:D1:5D:91:13:F3:37
            X509v3 Extended Key Usage: 
                TLS Web Server Authentication
            X509v3 Key Usage: 
                Digital Signature, Key Encipherment
            X509v3 Subject Alternative Name: 
                DNS:team140-server
    Signature Algorithm: sha256WithRSAEncryption
    Signature Value:
        18:00:93:f2:aa:72:7a:6c:2d:c6:d0:8b:54:ca:43:1d:74:bd:
        5c:17:c5:5e:72:79:a4:6e:c6:e6:54:42:45:9a:d6:60:fa:de:
        f1:26:1e:61:af:61:87:60:a9:3f:64:25:48:b0:eb:77:e8:82:
        84:32:78:e5:ed:04:f1:7c:8a:2f:4c:ca:f8:c0:5f:ea:4f:6d:
        c7:4a:27:97:b8:a5:1d:0c:1a:20:f9:1b:61:53:38:cd:24:65:
        ef:ae:f2:00:37:eb:9c:2f:76:28:ee:a4:5d:ab:a6:79:51:15:
        5c:ff:ff:ac:a0:15:6e:48:d3:8c:c8:a9:58:4e:56:3c:91:f4:
        49:99:15:c1:af:52:5f:cd:67:fa:a0:ae:4e:38:73:f2:e4:3f:
        f3:40:ea:85:dc:ad:bc:81:2d:7b:05:a2:c6:95:12:e9:a5:ef:
        15:d3:77:6b:3a:1c:5c:f5:1e:1a:f0:46:2c:a9:5e:9d:13:3e:
        ad:40:36:8f:1d:a0:66:7f:9a:a5:c3:d3:5c:20:2d:11:89:c9:
        3e:9b:b0:7b:cc:43:4b:16:94:2e:87:5c:cc:69:70:ab:da:ea:
        04:38:3b:0d:0f:dc:eb:46:82:b2:50:79:08:ab:15:de:b4:f0:
        ff:06:ab:6b:24:6b:b7:e0:85:10:27:9d:00:c1:b0:6d:1f:b7:
        2b:f2:40:6d
-----BEGIN CERTIFICATE-----
MIIDdzCCAl+gAwIBAgIQYzuE7OV+8wgpgskVWYKoaDANBgkqhkiG9w0BAQsFADAW
MRQwEgYDVQQDDAt0ZWFtMTQwLW5ldDAeFw0yMzExMDQxMTMwMTlaFw0yNjEwMTkx
MTMwMTlaMBkxFzAVBgNVBAMMDnRlYW0xNDAtc2VydmVyMIIBIjANBgkqhkiG9w0B
AQEFAAOCAQ8AMIIBCgKCAQEAyZBIaoJlloTmclQHGAIHvL+2i2IgVrRF5dxfw/NE
j+aDDO4Z39YPSzbfOJt9KXpK6BdxT3FnDX/s2eh01KHXdsIHyvQXHpSTDQy1tDSu
wZxG2zW+DeugwjNBYoZUzjs4n+sdIa8mZT80OrsT8++kP/7r/jYcYkDWhTS4RmAU
w4QJh5S0WvlJTCEPPcDa88x0AFbu7gxLJi0gwiKs8Xa/LxkVnAdaAyhnesWPYujJ
RYrXbzmYh54bkRSFhLRST4TW4LQWIZgtsdkM980CR/hHJPdj3EWCOjNVg3qINA7p
X6Qfkt6t+rdlaNS+Jukv/pIACLTJTrSBQFaUVUf6BNLe/wIDAQABo4G9MIG6MAkG
A1UdEwQCMAAwHQYDVR0OBBYEFEyIVQtn3YAPAfXYWGrY9ROqNjAeMFEGA1UdIwRK
MEiAFGOCJpliWJkLLbW+Uo4RNB/vVEWhoRqkGDAWMRQwEgYDVQQDDAt0ZWFtMTQw
LW5ldIIUKrqG7QM0WKGG9SbIGUfRXZET8zcwEwYDVR0lBAwwCgYIKwYBBQUHAwEw
CwYDVR0PBAQDAgWgMBkGA1UdEQQSMBCCDnRlYW0xNDAtc2VydmVyMA0GCSqGSIb3
DQEBCwUAA4IBAQAYAJPyqnJ6bC3G0ItUykMddL1cF8VecnmkbsbmVEJFmtZg+t7x
Jh5hr2GHYKk/ZCVIsOt36IKEMnjl7QTxfIovTMr4wF/qT23HSieXuKUdDBog+Rth
UzjNJGXvrvIAN+ucL3Yo7qRdq6Z5URVc//+soBVuSNOMyKlYTlY8kfRJmRXBr1Jf
zWf6oK5OOHPy5D/zQOqF3K28gS17BaLGlRLppe8V03drOhxc9R4a8EYsqV6dEz6t
QDaPHaBmf5qlw9NcIC0Rick+m7B7zENLFpQuh1zMaXCr2uoEODsND9zrRoKyUHkI
qxXetPD/BqtrJGu34IUQJ50AwbBtH7cr8kBt
-----END CERTIFICATE-----
