Certificate:
    Data:
        Version: 3 (0x2)
        Serial Number:
            71:3d:c8:5a:00:4e:da:4f:18:e3:aa:11:ea:5e:1a:50
        Signature Algorithm: sha256WithRSAEncryption
        Issuer: CN=team140-net
        Validity
            Not Before: Nov  4 10:43:08 2023 GMT
            Not After : Oct 19 10:43:08 2026 GMT
        Subject: CN=team140-server
        Subject Public Key Info:
            Public Key Algorithm: rsaEncryption
                Public-Key: (2048 bit)
                Modulus:
                    00:b1:fb:64:71:4a:02:8b:42:91:c2:35:29:0a:01:
                    5d:c8:71:36:db:11:bc:5d:27:a5:53:5e:e8:22:36:
                    c8:0f:6d:c6:49:6e:75:49:79:73:6e:2a:65:cb:aa:
                    ca:56:7f:7d:c6:52:96:aa:b8:84:98:88:b9:22:61:
                    2c:36:6c:5c:4c:bb:61:ef:f0:6b:80:c1:69:6d:13:
                    12:c1:d0:d2:16:db:67:85:f4:a6:c8:0f:66:6c:a8:
                    6b:07:50:72:f5:49:2c:50:06:d2:c3:5f:b3:03:b1:
                    42:c3:c9:6b:2c:18:ee:ba:8b:af:65:83:53:85:a2:
                    4a:42:6b:8f:a9:c5:b2:e6:25:19:eb:26:57:ad:c9:
                    fb:10:97:1a:47:ed:59:03:ef:25:0d:6c:58:b5:c6:
                    8d:c4:b8:c1:9e:fd:5b:fa:ad:2e:f1:24:ad:73:30:
                    0f:5f:ed:0a:6e:21:c4:b5:16:e1:e0:b4:ba:9c:8b:
                    ad:cc:ed:8f:fe:31:e4:f2:67:44:74:33:91:14:b6:
                    20:51:3a:46:79:11:dd:a0:e9:38:f6:09:31:9c:8f:
                    3a:7d:db:be:6f:6a:40:b7:e0:cf:b7:16:1c:32:7e:
                    55:58:63:b7:9d:32:c6:e2:c0:e2:c6:fc:ba:44:b4:
                    d2:b9:08:2e:10:86:4f:48:6d:09:f5:1c:f3:b1:0b:
                    6b:49
                Exponent: 65537 (0x10001)
        X509v3 extensions:
            X509v3 Basic Constraints: 
                CA:FALSE
            X509v3 Subject Key Identifier: 
                DF:AE:CF:7E:CA:21:07:61:80:0B:E1:F1:5E:D9:9C:CB:46:6B:4C:A4
            X509v3 Authority Key Identifier: 
                keyid:8A:00:0C:74:6E:6C:48:FB:96:B4:6D:2F:CA:C9:53:D1:A3:F5:91:0A
                DirName:/CN=team140-net
                serial:7A:0A:7F:FB:0A:E5:9C:73:F7:F2:75:7A:51:13:31:42:BD:67:B9:1B
            X509v3 Extended Key Usage: 
                TLS Web Server Authentication
            X509v3 Key Usage: 
                Digital Signature, Key Encipherment
            X509v3 Subject Alternative Name: 
                DNS:team140-server
    Signature Algorithm: sha256WithRSAEncryption
    Signature Value:
        59:57:56:b7:49:41:bd:5c:3a:02:24:53:bd:66:a8:f4:15:e0:
        20:67:92:e8:de:37:73:de:9b:32:26:fc:c9:40:ca:88:55:5d:
        f6:26:3a:23:79:da:3c:54:ae:d7:b3:d5:7e:c1:fd:8b:e0:12:
        72:c2:4a:55:37:a8:9f:ed:56:11:c5:06:31:44:e9:b9:3a:1b:
        50:e5:67:10:8f:9b:52:78:da:df:d8:68:19:4f:ac:a5:fe:6d:
        74:9c:e7:91:6b:8e:42:af:67:eb:8c:05:d1:83:fe:17:1e:0f:
        04:e9:13:c2:dd:8b:2d:ee:b7:9c:21:94:ec:bb:04:42:88:5c:
        55:71:1c:de:a3:57:ff:fa:ee:92:b1:a9:f5:f0:5c:d9:a9:3b:
        e0:d3:18:f5:04:ff:fe:a6:51:a3:ec:d0:2c:fd:c1:c1:ed:b4:
        03:4a:15:7f:5f:31:5e:6e:29:87:aa:1b:29:97:df:99:31:94:
        ad:d4:80:21:31:14:54:f0:90:86:e7:16:16:e4:ff:5f:46:fc:
        db:44:59:7d:e0:0a:a9:ee:25:20:52:e6:63:f1:ff:9c:24:b1:
        6d:e4:87:df:99:50:82:35:54:d6:02:8f:b0:85:f2:82:40:e1:
        e7:38:e5:70:36:d4:39:df:68:8f:8e:fa:31:65:81:ef:5a:56:
        74:55:cc:4b
-----BEGIN CERTIFICATE-----
MIIDdzCCAl+gAwIBAgIQcT3IWgBO2k8Y46oR6l4aUDANBgkqhkiG9w0BAQsFADAW
MRQwEgYDVQQDDAt0ZWFtMTQwLW5ldDAeFw0yMzExMDQxMDQzMDhaFw0yNjEwMTkx
MDQzMDhaMBkxFzAVBgNVBAMMDnRlYW0xNDAtc2VydmVyMIIBIjANBgkqhkiG9w0B
AQEFAAOCAQ8AMIIBCgKCAQEAsftkcUoCi0KRwjUpCgFdyHE22xG8XSelU17oIjbI
D23GSW51SXlzbiply6rKVn99xlKWqriEmIi5ImEsNmxcTLth7/BrgMFpbRMSwdDS
FttnhfSmyA9mbKhrB1By9UksUAbSw1+zA7FCw8lrLBjuuouvZYNThaJKQmuPqcWy
5iUZ6yZXrcn7EJcaR+1ZA+8lDWxYtcaNxLjBnv1b+q0u8SStczAPX+0KbiHEtRbh
4LS6nIutzO2P/jHk8mdEdDORFLYgUTpGeRHdoOk49gkxnI86fdu+b2pAt+DPtxYc
Mn5VWGO3nTLG4sDixvy6RLTSuQguEIZPSG0J9RzzsQtrSQIDAQABo4G9MIG6MAkG
A1UdEwQCMAAwHQYDVR0OBBYEFN+uz37KIQdhgAvh8V7ZnMtGa0ykMFEGA1UdIwRK
MEiAFIoADHRubEj7lrRtL8rJU9Gj9ZEKoRqkGDAWMRQwEgYDVQQDDAt0ZWFtMTQw
LW5ldIIUegp/+wrlnHP38nV6URMxQr1nuRswEwYDVR0lBAwwCgYIKwYBBQUHAwEw
CwYDVR0PBAQDAgWgMBkGA1UdEQQSMBCCDnRlYW0xNDAtc2VydmVyMA0GCSqGSIb3
DQEBCwUAA4IBAQBZV1a3SUG9XDoCJFO9Zqj0FeAgZ5Lo3jdz3psyJvzJQMqIVV32
Jjojedo8VK7Xs9V+wf2L4BJywkpVN6if7VYRxQYxROm5OhtQ5WcQj5tSeNrf2GgZ
T6yl/m10nOeRa45Cr2frjAXRg/4XHg8E6RPC3Yst7recIZTsuwRCiFxVcRzeo1f/
+u6Ssan18FzZqTvg0xj1BP/+plGj7NAs/cHB7bQDShV/XzFebimHqhspl9+ZMZSt
1IAhMRRU8JCG5xYW5P9fRvzbRFl94Aqp7iUgUuZj8f+cJLFt5IffmVCCNVTWAo+w
hfKCQOHnOOVwNtQ532iPjvoxZYHvWlZ0VcxL
-----END CERTIFICATE-----
