Certificate:
    Data:
        Version: 3 (0x2)
        Serial Number:
            7f:81:e8:02:76:4f:9d:87:11:8b:88:ed:52:a9:39:78
        Signature Algorithm: sha256WithRSAEncryption
        Issuer: CN=team140-net
        Validity
            Not Before: Nov  4 11:30:18 2023 GMT
            Not After : Oct 19 11:30:18 2026 GMT
        Subject: CN=team140-client
        Subject Public Key Info:
            Public Key Algorithm: rsaEncryption
                Public-Key: (2048 bit)
                Modulus:
                    00:b4:04:7c:0d:a6:e8:9a:0b:fb:ff:ce:d5:36:e4:
                    9d:82:7c:d9:42:22:58:13:8c:87:4d:c1:b3:6b:de:
                    25:4b:3b:da:c4:f4:48:c6:0d:04:29:71:45:b8:b9:
                    bb:de:ce:90:dd:cd:01:44:4b:20:d2:2f:fc:6b:52:
                    5e:41:44:01:1a:7a:73:a3:1c:76:0b:e3:0d:9d:ab:
                    b7:52:a7:4a:b6:15:84:2e:b6:e9:38:bb:03:d6:cd:
                    23:64:cb:6b:58:9a:a9:7d:80:88:ad:7e:f8:4f:de:
                    15:63:d7:30:55:64:df:f3:78:ba:7a:2c:3b:1c:d5:
                    51:a5:95:cc:fc:9d:63:17:b9:21:c1:ae:72:ea:a0:
                    60:bd:bb:e8:5f:fd:ee:40:0e:2b:c9:73:91:3f:74:
                    75:a1:bc:51:9a:54:36:23:d8:6d:c5:05:11:c6:75:
                    00:53:00:7a:9d:81:60:eb:da:0d:48:0f:65:32:cd:
                    0a:36:88:df:4f:17:e7:ca:f7:82:0a:0d:9d:4f:06:
                    2b:1e:33:6b:be:ab:4f:c1:85:0d:62:56:a1:18:a0:
                    4c:8e:9c:78:e9:1c:3f:8f:d7:b9:cc:c4:48:2f:d7:
                    07:fc:8f:11:78:f4:04:22:54:95:36:fe:dd:71:2c:
                    7d:8a:3e:8a:d8:39:a0:a8:8e:fa:07:81:8a:f3:3c:
                    e6:f1
                Exponent: 65537 (0x10001)
        X509v3 extensions:
            X509v3 Basic Constraints: 
                CA:FALSE
            X509v3 Subject Key Identifier: 
                F4:BC:D0:36:01:2C:56:E7:34:1D:9B:14:1F:C2:82:1D:0C:77:9B:84
            X509v3 Authority Key Identifier: 
                keyid:63:82:26:99:62:58:99:0B:2D:B5:BE:52:8E:11:34:1F:EF:54:45:A1
                DirName:/CN=team140-net
                serial:2A:BA:86:ED:03:34:58:A1:86:F5:26:C8:19:47:D1:5D:91:13:F3:37
            X509v3 Extended Key Usage: 
                TLS Web Client Authentication
            X509v3 Key Usage: 
                Digital Signature
    Signature Algorithm: sha256WithRSAEncryption
    Signature Value:
        a2:b6:30:5e:f6:39:31:39:d8:f8:78:26:8f:7f:65:33:7e:fc:
        f8:c7:ae:fd:99:ba:75:53:a4:22:54:5c:b5:1e:1e:09:e8:72:
        59:70:5b:72:25:1a:e5:8d:f0:21:c9:70:a9:98:8b:3e:ab:c0:
        7d:47:7c:ce:d7:4b:d9:d0:2f:f4:0d:57:fd:fe:2e:73:35:09:
        18:e7:4c:b4:72:12:13:a5:59:dd:ef:83:2b:fe:71:44:11:ce:
        85:e1:d7:7a:f0:5d:95:bf:a7:2c:dc:c3:68:ad:ba:24:01:07:
        95:60:60:e2:4d:b8:b9:fb:f4:62:4e:ae:50:e8:32:10:77:b6:
        09:fd:14:3b:44:38:11:0d:70:c1:1a:79:4d:a4:7a:83:26:8a:
        89:8e:17:60:39:49:07:d4:7e:b9:eb:64:f7:1a:72:72:98:f3:
        c8:62:8e:f9:21:87:38:74:98:41:b3:ef:cf:9c:1c:05:c9:8f:
        5c:e7:6b:f9:f2:6d:f0:be:5a:d9:bc:31:f8:51:b6:05:a8:e9:
        72:55:59:79:52:9f:0b:25:be:8a:cc:8a:81:cb:c0:29:a7:bd:
        de:e1:75:d8:c8:40:9f:40:6f:51:64:66:38:ce:9e:d0:26:93:
        73:d8:c1:53:6e:1d:14:e3:80:e5:d1:b9:87:99:b5:4d:11:f8:
        1b:68:cc:c3
-----BEGIN CERTIFICATE-----
MIIDXDCCAkSgAwIBAgIQf4HoAnZPnYcRi4jtUqk5eDANBgkqhkiG9w0BAQsFADAW
MRQwEgYDVQQDDAt0ZWFtMTQwLW5ldDAeFw0yMzExMDQxMTMwMThaFw0yNjEwMTkx
MTMwMThaMBkxFzAVBgNVBAMMDnRlYW0xNDAtY2xpZW50MIIBIjANBgkqhkiG9w0B
AQEFAAOCAQ8AMIIBCgKCAQEAtAR8Dabomgv7/87VNuSdgnzZQiJYE4yHTcGza94l
SzvaxPRIxg0EKXFFuLm73s6Q3c0BREsg0i/8a1JeQUQBGnpzoxx2C+MNnau3UqdK
thWELrbpOLsD1s0jZMtrWJqpfYCIrX74T94VY9cwVWTf83i6eiw7HNVRpZXM/J1j
F7khwa5y6qBgvbvoX/3uQA4ryXORP3R1obxRmlQ2I9htxQURxnUAUwB6nYFg69oN
SA9lMs0KNojfTxfnyveCCg2dTwYrHjNrvqtPwYUNYlahGKBMjpx46Rw/j9e5zMRI
L9cH/I8RePQEIlSVNv7dcSx9ij6K2DmgqI76B4GK8zzm8QIDAQABo4GiMIGfMAkG
A1UdEwQCMAAwHQYDVR0OBBYEFPS80DYBLFbnNB2bFB/Cgh0Md5uEMFEGA1UdIwRK
MEiAFGOCJpliWJkLLbW+Uo4RNB/vVEWhoRqkGDAWMRQwEgYDVQQDDAt0ZWFtMTQw
LW5ldIIUKrqG7QM0WKGG9SbIGUfRXZET8zcwEwYDVR0lBAwwCgYIKwYBBQUHAwIw
CwYDVR0PBAQDAgeAMA0GCSqGSIb3DQEBCwUAA4IBAQCitjBe9jkxOdj4eCaPf2Uz
fvz4x679mbp1U6QiVFy1Hh4J6HJZcFtyJRrljfAhyXCpmIs+q8B9R3zO10vZ0C/0
DVf9/i5zNQkY50y0chITpVnd74Mr/nFEEc6F4dd68F2Vv6cs3MNorbokAQeVYGDi
Tbi5+/RiTq5Q6DIQd7YJ/RQ7RDgRDXDBGnlNpHqDJoqJjhdgOUkH1H6562T3GnJy
mPPIYo75IYc4dJhBs+/PnBwFyY9c52v58m3wvlrZvDH4UbYFqOlyVVl5Up8LJb6K
zIqBy8App73e4XXYyECfQG9RZGY4zp7QJpNz2MFTbh0U44Dl0bmHmbVNEfgbaMzD
-----END CERTIFICATE-----
