Certificate:
    Data:
        Version: 3 (0x2)
        Serial Number:
            09:04:77:65:ff:59:7b:65:16:f0:e8:a9:53:55:d0:e1
        Signature Algorithm: sha256WithRSAEncryption
        Issuer: CN=team134-net
        Validity
            Not Before: Nov  4 11:30:08 2023 GMT
            Not After : Oct 19 11:30:08 2026 GMT
        Subject: CN=team134-client
        Subject Public Key Info:
            Public Key Algorithm: rsaEncryption
                Public-Key: (2048 bit)
                Modulus:
                    00:a5:5d:48:8d:8c:5c:15:f8:de:76:59:93:df:98:
                    97:18:2b:4e:0e:fb:0d:76:9d:8c:b8:15:c6:e8:f9:
                    09:96:52:70:ae:f1:3a:60:f4:0f:95:c8:bd:64:90:
                    74:4c:e2:43:f9:d4:00:28:70:d4:54:4d:46:20:e8:
                    4e:69:53:b0:18:ef:3c:a2:5b:dc:7d:5c:06:5a:93:
                    8e:10:ce:45:fe:91:cd:24:22:28:80:cf:96:f4:68:
                    ff:0f:83:3b:2b:3a:93:16:1e:2d:6d:91:f4:93:1a:
                    b5:4c:70:17:ce:e4:2e:1b:58:93:67:58:83:68:e0:
                    8b:96:e3:68:66:5e:8e:0c:66:9e:f5:65:2b:02:6e:
                    98:18:0c:e2:1e:3b:80:f5:3a:c9:ca:ad:4a:ea:2a:
                    48:b6:21:4c:ae:17:0f:4b:a9:d9:53:55:23:6d:74:
                    a9:39:90:69:a4:29:5e:0b:7e:b8:7c:9f:04:fc:5e:
                    00:53:03:3d:80:d1:38:71:8d:60:40:a9:2a:f3:97:
                    87:f8:75:ae:ab:43:8b:a2:3f:5e:45:fd:a0:c5:8b:
                    0d:8c:d3:33:56:c0:f5:9a:12:99:e4:18:c9:3c:1b:
                    99:5b:07:e0:74:7a:00:a6:6a:fe:4f:69:73:8c:22:
                    e1:e7:5e:3b:1b:b5:74:12:a6:aa:ae:40:41:f5:dd:
                    6d:d9
                Exponent: 65537 (0x10001)
        X509v3 extensions:
            X509v3 Basic Constraints: 
                CA:FALSE
            X509v3 Subject Key Identifier: 
                AF:BD:C3:6E:C0:A8:A0:83:88:42:17:89:9A:02:66:65:52:C8:35:07
            X509v3 Authority Key Identifier: 
                keyid:D4:CC:08:20:07:4A:66:2C:2B:47:3D:76:FA:0F:F3:01:D5:58:8D:C0
                DirName:/CN=team134-net
                serial:54:9E:C4:DD:B8:75:02:99:22:52:5F:66:81:AC:3A:0E:25:8B:02:9E
            X509v3 Extended Key Usage: 
                TLS Web Client Authentication
            X509v3 Key Usage: 
                Digital Signature
    Signature Algorithm: sha256WithRSAEncryption
    Signature Value:
        50:61:33:37:69:53:f5:41:4a:8a:45:40:d6:73:39:29:69:1e:
        54:51:92:b5:da:63:ee:26:ea:2e:aa:55:dd:d0:6b:73:10:86:
        0b:14:c1:2b:6d:c3:ac:6c:39:6b:44:53:59:47:41:12:2c:00:
        bf:b1:62:1f:81:70:3b:5e:f2:05:56:67:90:34:1d:fa:c3:84:
        41:93:51:d4:dd:0e:ed:26:03:3d:11:4a:40:1c:cd:7c:40:85:
        13:df:33:ab:75:93:4c:2f:53:52:23:c6:f8:5a:c9:e5:12:a9:
        f8:ed:87:68:d1:8b:6b:0f:51:1b:5f:f1:6e:74:86:c0:33:f7:
        53:84:38:23:8e:18:49:e9:54:20:63:e3:87:47:f6:69:0a:d8:
        6b:30:a1:63:ea:7e:77:ca:37:9d:25:48:c1:e3:bd:0b:a8:df:
        ba:e0:aa:94:de:41:7f:85:fc:f1:85:69:05:94:10:8f:c8:09:
        d3:63:59:02:d5:2c:fa:9d:ec:93:06:e5:b6:e0:89:8d:9e:1d:
        d2:1f:1d:a6:1e:aa:a0:a0:06:11:cb:cb:52:2c:3c:ea:f8:de:
        2d:e0:13:97:63:c1:cb:fe:90:7a:6f:c3:72:75:26:56:71:4e:
        b2:d9:77:b5:22:38:17:0a:eb:f8:cb:86:cc:36:b0:65:78:17:
        7e:be:40:ae
-----BEGIN CERTIFICATE-----
MIIDXDCCAkSgAwIBAgIQCQR3Zf9Ze2UW8OipU1XQ4TANBgkqhkiG9w0BAQsFADAW
MRQwEgYDVQQDDAt0ZWFtMTM0LW5ldDAeFw0yMzExMDQxMTMwMDhaFw0yNjEwMTkx
MTMwMDhaMBkxFzAVBgNVBAMMDnRlYW0xMzQtY2xpZW50MIIBIjANBgkqhkiG9w0B
AQEFAAOCAQ8AMIIBCgKCAQEApV1IjYxcFfjedlmT35iXGCtODvsNdp2MuBXG6PkJ
llJwrvE6YPQPlci9ZJB0TOJD+dQAKHDUVE1GIOhOaVOwGO88olvcfVwGWpOOEM5F
/pHNJCIogM+W9Gj/D4M7KzqTFh4tbZH0kxq1THAXzuQuG1iTZ1iDaOCLluNoZl6O
DGae9WUrAm6YGAziHjuA9TrJyq1K6ipItiFMrhcPS6nZU1UjbXSpOZBppCleC364
fJ8E/F4AUwM9gNE4cY1gQKkq85eH+HWuq0OLoj9eRf2gxYsNjNMzVsD1mhKZ5BjJ
PBuZWwfgdHoApmr+T2lzjCLh5147G7V0EqaqrkBB9d1t2QIDAQABo4GiMIGfMAkG
A1UdEwQCMAAwHQYDVR0OBBYEFK+9w27AqKCDiEIXiZoCZmVSyDUHMFEGA1UdIwRK
MEiAFNTMCCAHSmYsK0c9dvoP8wHVWI3AoRqkGDAWMRQwEgYDVQQDDAt0ZWFtMTM0
LW5ldIIUVJ7E3bh1ApkiUl9mgaw6DiWLAp4wEwYDVR0lBAwwCgYIKwYBBQUHAwIw
CwYDVR0PBAQDAgeAMA0GCSqGSIb3DQEBCwUAA4IBAQBQYTM3aVP1QUqKRUDWczkp
aR5UUZK12mPuJuouqlXd0GtzEIYLFMErbcOsbDlrRFNZR0ESLAC/sWIfgXA7XvIF
VmeQNB36w4RBk1HU3Q7tJgM9EUpAHM18QIUT3zOrdZNML1NSI8b4WsnlEqn47Ydo
0YtrD1EbX/FudIbAM/dThDgjjhhJ6VQgY+OHR/ZpCthrMKFj6n53yjedJUjB470L
qN+64KqU3kF/hfzxhWkFlBCPyAnTY1kC1Sz6neyTBuW24ImNnh3SHx2mHqqgoAYR
y8tSLDzq+N4t4BOXY8HL/pB6b8NydSZWcU6y2Xe1IjgXCuv4y4bMNrBleBd+vkCu
-----END CERTIFICATE-----
