Certificate:
    Data:
        Version: 3 (0x2)
        Serial Number:
            20:0d:13:94:1a:0a:f7:75:cd:de:e9:9a:62:94:68:63
        Signature Algorithm: sha256WithRSAEncryption
        Issuer: CN=team134-net
        Validity
            Not Before: Nov  4 10:43:00 2023 GMT
            Not After : Oct 19 10:43:00 2026 GMT
        Subject: CN=team134-client
        Subject Public Key Info:
            Public Key Algorithm: rsaEncryption
                Public-Key: (2048 bit)
                Modulus:
                    00:d6:23:90:fc:1d:a9:45:27:af:e3:f3:c5:d1:98:
                    b6:fd:19:e1:13:5a:44:c1:b8:e6:94:cf:97:2c:7c:
                    2b:2b:6e:c8:4f:a2:b7:81:a2:62:d6:80:09:3d:e9:
                    77:37:57:cf:fd:77:9c:a2:e1:a9:88:90:a1:a0:d3:
                    4e:5e:6c:f3:85:ce:f3:fb:d7:fd:45:6e:bc:6d:54:
                    d6:5e:99:c8:23:ae:9f:71:62:2b:9c:7a:a1:a5:24:
                    96:75:62:c9:6f:77:f5:86:25:89:91:51:df:ca:0d:
                    cc:78:23:df:1f:4e:c6:5b:81:8f:29:f9:00:77:18:
                    7d:77:b5:7c:0f:c7:75:8e:c0:78:15:47:50:54:5b:
                    ac:05:1e:0d:63:ef:77:41:1a:c8:07:cb:a4:18:cd:
                    a3:3a:b5:c3:96:08:a2:2b:aa:da:a1:19:58:1f:50:
                    fb:f5:01:6d:36:ae:0c:a1:f7:ed:b7:f7:00:d3:a5:
                    51:d9:9d:a4:8e:31:65:98:5b:7b:35:93:f4:88:55:
                    02:b4:26:3d:88:41:21:48:85:b7:7b:cb:3a:a5:1c:
                    a7:5c:4c:60:c8:de:d1:34:87:6d:92:a8:d4:a3:4e:
                    bb:72:11:d5:f5:97:5d:65:21:19:40:9b:de:f8:bf:
                    d8:2d:45:e1:15:c9:fa:36:71:49:82:c9:b0:85:b4:
                    91:d9
                Exponent: 65537 (0x10001)
        X509v3 extensions:
            X509v3 Basic Constraints: 
                CA:FALSE
            X509v3 Subject Key Identifier: 
                AE:EE:89:63:A4:C0:BC:8D:EB:78:F5:66:59:43:5D:69:9B:80:3D:59
            X509v3 Authority Key Identifier: 
                keyid:35:9D:9C:FB:1C:8D:BC:C5:5F:05:8D:CD:CE:4B:8C:7C:F7:9A:1F:CE
                DirName:/CN=team134-net
                serial:0E:B6:EB:2B:F5:6D:50:4E:C5:77:B6:A4:F7:9D:4A:68:00:27:FC:E2
            X509v3 Extended Key Usage: 
                TLS Web Client Authentication
            X509v3 Key Usage: 
                Digital Signature
    Signature Algorithm: sha256WithRSAEncryption
    Signature Value:
        00:0d:66:0d:06:d1:2c:b3:78:24:f1:59:5a:fb:60:71:a0:5e:
        25:36:31:ec:22:d0:7e:52:24:f2:78:f3:b1:ce:29:5a:d9:9f:
        a1:d3:84:05:6f:b7:19:41:ac:ad:e0:ea:bb:76:b0:ed:71:99:
        a4:6c:cf:48:f1:20:54:9f:f2:fe:44:d6:7c:cf:0e:d5:48:9c:
        db:d1:8d:c4:f0:27:9c:39:a2:7d:d6:91:ed:49:d8:7e:30:72:
        20:16:c0:cc:82:db:5a:8f:52:c4:ed:52:6f:a6:7c:32:e2:f0:
        fb:cc:48:3e:2b:bf:6c:8a:d9:7b:b5:91:fc:78:24:46:f8:5a:
        e6:25:e9:ef:c6:be:80:5f:64:d3:f2:49:d2:da:a6:5f:53:cc:
        9a:79:b8:09:3e:77:f0:4d:07:e7:f5:08:96:89:6e:e9:25:21:
        82:70:6c:e3:69:c2:08:13:55:59:02:1f:e3:e8:27:49:4f:65:
        1d:c2:5a:09:8c:75:9c:51:aa:5a:c3:46:78:13:0e:1c:46:40:
        5d:5e:78:91:d2:0a:a2:36:98:a4:84:e9:93:5a:ed:e8:68:16:
        86:62:71:9c:88:96:f4:85:fb:75:52:d0:3f:05:62:e3:99:a2:
        f1:65:7c:32:98:ee:0c:60:da:0f:1f:c1:ca:ac:77:b6:93:a5:
        ef:85:c7:c7
-----BEGIN CERTIFICATE-----
MIIDXDCCAkSgAwIBAgIQIA0TlBoK93XN3umaYpRoYzANBgkqhkiG9w0BAQsFADAW
MRQwEgYDVQQDDAt0ZWFtMTM0LW5ldDAeFw0yMzExMDQxMDQzMDBaFw0yNjEwMTkx
MDQzMDBaMBkxFzAVBgNVBAMMDnRlYW0xMzQtY2xpZW50MIIBIjANBgkqhkiG9w0B
AQEFAAOCAQ8AMIIBCgKCAQEA1iOQ/B2pRSev4/PF0Zi2/RnhE1pEwbjmlM+XLHwr
K27IT6K3gaJi1oAJPel3N1fP/XecouGpiJChoNNOXmzzhc7z+9f9RW68bVTWXpnI
I66fcWIrnHqhpSSWdWLJb3f1hiWJkVHfyg3MeCPfH07GW4GPKfkAdxh9d7V8D8d1
jsB4FUdQVFusBR4NY+93QRrIB8ukGM2jOrXDlgiiK6raoRlYH1D79QFtNq4Mofft
t/cA06VR2Z2kjjFlmFt7NZP0iFUCtCY9iEEhSIW3e8s6pRynXExgyN7RNIdtkqjU
o067chHV9ZddZSEZQJve+L/YLUXhFcn6NnFJgsmwhbSR2QIDAQABo4GiMIGfMAkG
A1UdEwQCMAAwHQYDVR0OBBYEFK7uiWOkwLyN63j1ZllDXWmbgD1ZMFEGA1UdIwRK
MEiAFDWdnPscjbzFXwWNzc5LjHz3mh/OoRqkGDAWMRQwEgYDVQQDDAt0ZWFtMTM0
LW5ldIIUDrbrK/VtUE7Fd7ak951KaAAn/OIwEwYDVR0lBAwwCgYIKwYBBQUHAwIw
CwYDVR0PBAQDAgeAMA0GCSqGSIb3DQEBCwUAA4IBAQAADWYNBtEss3gk8Vla+2Bx
oF4lNjHsItB+UiTyePOxzila2Z+h04QFb7cZQayt4Oq7drDtcZmkbM9I8SBUn/L+
RNZ8zw7VSJzb0Y3E8CecOaJ91pHtSdh+MHIgFsDMgttaj1LE7VJvpnwy4vD7zEg+
K79sitl7tZH8eCRG+FrmJenvxr6AX2TT8knS2qZfU8yaebgJPnfwTQfn9QiWiW7p
JSGCcGzjacIIE1VZAh/j6CdJT2UdwloJjHWcUapaw0Z4Ew4cRkBdXniR0gqiNpik
hOmTWu3oaBaGYnGciJb0hft1UtA/BWLjmaLxZXwymO4MYNoPH8HKrHe2k6XvhcfH
-----END CERTIFICATE-----
