Certificate:
    Data:
        Version: 3 (0x2)
        Serial Number:
            84:00:29:07:75:d5:96:8a:13:2e:7c:08:34:7b:8a:cf
        Signature Algorithm: sha256WithRSAEncryption
        Issuer: CN=team134-net
        Validity
            Not Before: Nov  4 11:30:08 2023 GMT
            Not After : Oct 19 11:30:08 2026 GMT
        Subject: CN=team134-server
        Subject Public Key Info:
            Public Key Algorithm: rsaEncryption
                Public-Key: (2048 bit)
                Modulus:
                    00:8b:25:7b:4e:21:1f:f3:5a:a1:9c:e4:bc:5d:8d:
                    30:6a:c6:c2:4c:64:9d:87:84:c2:cb:7d:00:3a:a5:
                    48:e0:04:8a:65:35:e5:a3:14:58:94:25:a2:70:7d:
                    40:3a:72:c9:ed:d2:b7:10:92:91:08:c0:4c:42:f2:
                    e4:33:d1:8c:dc:63:da:e6:53:dd:be:34:25:2e:5c:
                    0f:93:eb:65:a7:d4:d2:67:0d:a8:46:b7:9d:23:ad:
                    ee:9e:fb:be:ae:42:bd:01:e9:fa:c8:32:8c:b7:41:
                    28:cf:44:d9:18:16:20:d6:d8:47:d9:b6:77:69:e5:
                    cf:85:43:82:21:7a:48:3c:21:70:55:42:eb:57:f0:
                    66:be:2d:1f:18:26:44:37:52:96:e5:aa:29:76:cf:
                    c1:5f:8a:39:68:94:75:38:95:04:f7:e6:3a:e4:d8:
                    2b:5d:49:cb:b3:83:80:dc:c0:ea:12:26:97:54:61:
                    9e:25:83:9a:02:2a:0c:8e:7b:81:24:28:0c:c3:53:
                    9e:0e:7a:13:c4:af:35:ac:4c:1c:87:4e:2f:01:1f:
                    ef:54:69:6b:ae:f9:9c:02:30:3d:f4:89:c5:58:e3:
                    5e:0f:ba:d0:d1:40:6b:c7:8a:ec:2e:b8:c2:bb:af:
                    0d:13:35:98:2d:7b:18:3b:2b:a9:ae:23:c2:7e:60:
                    6f:9d
                Exponent: 65537 (0x10001)
        X509v3 extensions:
            X509v3 Basic Constraints: 
                CA:FALSE
            X509v3 Subject Key Identifier: 
                73:08:8C:BB:6B:8D:A4:47:91:0D:BF:CB:13:1B:1C:49:EE:EF:FF:EA
            X509v3 Authority Key Identifier: 
                keyid:D4:CC:08:20:07:4A:66:2C:2B:47:3D:76:FA:0F:F3:01:D5:58:8D:C0
                DirName:/CN=team134-net
                serial:54:9E:C4:DD:B8:75:02:99:22:52:5F:66:81:AC:3A:0E:25:8B:02:9E
            X509v3 Extended Key Usage: 
                TLS Web Server Authentication
            X509v3 Key Usage: 
                Digital Signature, Key Encipherment
            X509v3 Subject Alternative Name: 
                DNS:team134-server
    Signature Algorithm: sha256WithRSAEncryption
    Signature Value:
        2d:3a:6c:d0:a0:3d:db:4e:b5:ca:bc:f9:64:60:42:b9:dd:e6:
        5a:07:1e:dc:86:55:d9:29:d0:a6:20:84:e0:80:48:91:fa:99:
        51:72:a1:a9:fc:08:ad:82:51:db:9b:f9:31:db:4c:42:8d:68:
        a7:84:43:16:c2:83:4e:3a:12:f2:a3:a3:d9:a4:b4:c2:00:8c:
        08:25:bb:9a:b3:dd:51:27:24:65:59:be:61:d4:bc:3e:79:64:
        8a:99:19:24:e6:e9:b9:21:99:a0:7b:be:02:f3:82:ef:3f:26:
        63:01:bb:62:ca:9a:21:5e:55:8c:e0:f8:1c:ae:00:33:07:e2:
        6b:0c:2b:6f:4a:96:89:31:12:21:cc:03:cc:c0:9d:8d:a9:a6:
        14:05:82:06:93:91:4f:e9:73:6f:60:16:94:d2:92:38:4f:06:
        44:03:fc:0d:d7:ec:f6:8e:fa:91:f0:50:82:18:bd:4c:97:16:
        03:04:5a:7b:da:ad:b1:8f:95:c1:2b:62:5f:6c:24:31:4c:ad:
        04:85:de:59:a6:18:2b:81:14:c3:83:99:09:4f:ea:2d:9b:d8:
        ca:c8:97:eb:65:00:4a:4d:a8:38:7f:16:26:42:c5:8a:ee:a8:
        f6:17:fc:a1:13:6e:12:36:16:7e:3f:02:85:1a:32:d8:f5:b9:
        a8:9f:6b:3e
-----BEGIN CERTIFICATE-----
MIIDeDCCAmCgAwIBAgIRAIQAKQd11ZaKEy58CDR7is8wDQYJKoZIhvcNAQELBQAw
FjEUMBIGA1UEAwwLdGVhbTEzNC1uZXQwHhcNMjMxMTA0MTEzMDA4WhcNMjYxMDE5
MTEzMDA4WjAZMRcwFQYDVQQDDA50ZWFtMTM0LXNlcnZlcjCCASIwDQYJKoZIhvcN
AQEBBQADggEPADCCAQoCggEBAIsle04hH/NaoZzkvF2NMGrGwkxknYeEwst9ADql
SOAEimU15aMUWJQlonB9QDpyye3StxCSkQjATELy5DPRjNxj2uZT3b40JS5cD5Pr
ZafU0mcNqEa3nSOt7p77vq5CvQHp+sgyjLdBKM9E2RgWINbYR9m2d2nlz4VDgiF6
SDwhcFVC61fwZr4tHxgmRDdSluWqKXbPwV+KOWiUdTiVBPfmOuTYK11Jy7ODgNzA
6hIml1RhniWDmgIqDI57gSQoDMNTng56E8SvNaxMHIdOLwEf71Rpa675nAIwPfSJ
xVjjXg+60NFAa8eK7C64wruvDRM1mC17GDsrqa4jwn5gb50CAwEAAaOBvTCBujAJ
BgNVHRMEAjAAMB0GA1UdDgQWBBRzCIy7a42kR5ENv8sTGxxJ7u//6jBRBgNVHSME
SjBIgBTUzAggB0pmLCtHPXb6D/MB1ViNwKEapBgwFjEUMBIGA1UEAwwLdGVhbTEz
NC1uZXSCFFSexN24dQKZIlJfZoGsOg4liwKeMBMGA1UdJQQMMAoGCCsGAQUFBwMB
MAsGA1UdDwQEAwIFoDAZBgNVHREEEjAQgg50ZWFtMTM0LXNlcnZlcjANBgkqhkiG
9w0BAQsFAAOCAQEALTps0KA92061yrz5ZGBCud3mWgce3IZV2SnQpiCE4IBIkfqZ
UXKhqfwIrYJR25v5MdtMQo1op4RDFsKDTjoS8qOj2aS0wgCMCCW7mrPdUSckZVm+
YdS8PnlkipkZJObpuSGZoHu+AvOC7z8mYwG7YsqaIV5VjOD4HK4AMwfiawwrb0qW
iTESIcwDzMCdjammFAWCBpORT+lzb2AWlNKSOE8GRAP8Ddfs9o76kfBQghi9TJcW
AwRae9qtsY+VwStiX2wkMUytBIXeWaYYK4EUw4OZCU/qLZvYysiX62UASk2oOH8W
JkLFiu6o9hf8oRNuEjYWfj8ChRoy2PW5qJ9rPg==
-----END CERTIFICATE-----
