Certificate:
    Data:
        Version: 3 (0x2)
        Serial Number:
            d9:8d:64:12:f3:5d:23:60:07:9f:bf:5e:5d:cd:e5:92
        Signature Algorithm: sha256WithRSAEncryption
        Issuer: CN=team134-net
        Validity
            Not Before: Nov  3 20:41:36 2023 GMT
            Not After : Oct 18 20:41:36 2026 GMT
        Subject: CN=team134-client
        Subject Public Key Info:
            Public Key Algorithm: rsaEncryption
                Public-Key: (2048 bit)
                Modulus:
                    00:a5:6f:51:d2:13:9a:56:bf:22:77:99:a5:2d:b4:
                    a2:96:b2:2c:76:4a:34:71:1e:45:73:de:03:fc:78:
                    08:23:1c:09:85:ba:cd:5d:e6:4b:eb:15:88:21:67:
                    ce:75:66:14:83:b5:d1:5d:ab:19:85:9d:d0:3b:10:
                    70:0e:45:3f:ba:b0:aa:cf:35:b0:22:61:95:8f:30:
                    e0:46:e8:3a:db:d8:a8:31:ef:a1:2d:97:a3:b1:ae:
                    2a:a2:7c:be:13:b9:00:dc:6d:9c:c1:73:20:65:16:
                    3a:1b:c9:4d:ad:3c:a3:2b:f5:c5:96:5c:df:fb:52:
                    ff:7f:d1:ff:6d:1b:52:94:42:dc:2c:1b:e4:0d:d5:
                    58:5c:91:25:80:d5:f3:d7:68:9f:6f:82:43:5e:c8:
                    d0:dd:d5:af:39:16:c8:22:b6:f8:e4:66:2c:69:f7:
                    b7:ae:60:64:c1:ff:5f:27:e4:03:85:ce:07:9e:be:
                    b7:a1:52:1d:86:ea:cc:f0:81:62:1c:b8:b1:b2:6e:
                    55:c5:41:e2:0d:5a:a2:60:b0:44:5f:71:b7:f7:9b:
                    97:8b:bb:e3:f8:12:3a:22:84:ae:aa:73:5c:55:d9:
                    63:4a:3b:fd:92:a1:29:90:34:12:af:ad:85:6d:84:
                    9b:2c:bf:10:e1:8d:44:4c:bd:54:dd:2b:cd:27:81:
                    8e:d1
                Exponent: 65537 (0x10001)
        X509v3 extensions:
            X509v3 Basic Constraints: 
                CA:FALSE
            X509v3 Subject Key Identifier: 
                23:C4:F8:23:28:7C:2E:F8:EC:90:59:FF:92:B9:D0:7E:7D:36:FB:F1
            X509v3 Authority Key Identifier: 
                keyid:BD:D2:CA:6F:3E:EA:44:2F:35:8A:11:6A:A8:EA:96:AD:83:60:78:DD
                DirName:/CN=team134-net
                serial:30:E8:63:FA:BF:47:57:88:41:2A:33:07:AB:F8:C8:2C:2F:B0:2C:24
            X509v3 Extended Key Usage: 
                TLS Web Client Authentication
            X509v3 Key Usage: 
                Digital Signature
    Signature Algorithm: sha256WithRSAEncryption
    Signature Value:
        c7:62:cf:a6:e7:14:16:dc:c2:6a:db:64:82:33:d8:a5:2a:27:
        4a:3e:e3:42:9e:b4:3e:f9:05:fc:92:6a:6a:7a:f6:cd:0d:07:
        9f:f5:b1:00:78:ef:f3:56:7e:34:d3:6e:33:f2:1d:51:b2:f5:
        81:19:1a:21:50:a2:a2:6c:9e:9f:9f:e8:c7:06:13:c0:1f:67:
        9f:38:16:56:c3:44:0d:5d:8a:50:e1:a9:b2:1f:fd:bb:13:66:
        e7:04:db:ab:07:93:80:82:ec:46:dd:1e:a1:c6:5c:4c:e9:3b:
        9a:9b:c3:04:1e:44:ae:b7:f9:8b:aa:59:5b:4c:cf:b6:91:9b:
        01:1c:b8:41:f5:4c:97:a9:0e:3d:76:65:37:74:e1:c0:18:31:
        63:c5:c8:7c:7e:33:2c:f3:e7:18:df:d3:b4:97:72:8c:25:11:
        08:a0:e6:7c:df:50:0f:79:53:f6:49:b1:dc:97:1b:e5:c6:18:
        cd:71:43:0a:27:85:c7:5a:12:c7:91:2f:0f:b4:18:13:37:b9:
        d0:0d:1d:0b:46:e3:7b:5b:70:c1:02:ce:56:2a:53:a9:ef:37:
        61:9e:0a:0b:b5:f0:ef:c8:8e:0c:df:ac:a7:ab:7f:c8:9b:58:
        dc:66:ee:83:17:5a:a3:5f:76:18:b8:c8:51:f2:d6:42:ce:16:
        e0:b1:d6:a7
-----BEGIN CERTIFICATE-----
MIIDXTCCAkWgAwIBAgIRANmNZBLzXSNgB5+/Xl3N5ZIwDQYJKoZIhvcNAQELBQAw
FjEUMBIGA1UEAwwLdGVhbTEzNC1uZXQwHhcNMjMxMTAzMjA0MTM2WhcNMjYxMDE4
MjA0MTM2WjAZMRcwFQYDVQQDDA50ZWFtMTM0LWNsaWVudDCCASIwDQYJKoZIhvcN
AQEBBQADggEPADCCAQoCggEBAKVvUdITmla/IneZpS20opayLHZKNHEeRXPeA/x4
CCMcCYW6zV3mS+sViCFnznVmFIO10V2rGYWd0DsQcA5FP7qwqs81sCJhlY8w4Ebo
OtvYqDHvoS2Xo7GuKqJ8vhO5ANxtnMFzIGUWOhvJTa08oyv1xZZc3/tS/3/R/20b
UpRC3Cwb5A3VWFyRJYDV89don2+CQ17I0N3VrzkWyCK2+ORmLGn3t65gZMH/Xyfk
A4XOB56+t6FSHYbqzPCBYhy4sbJuVcVB4g1aomCwRF9xt/ebl4u74/gSOiKErqpz
XFXZY0o7/ZKhKZA0Eq+thW2Emyy/EOGNREy9VN0rzSeBjtECAwEAAaOBojCBnzAJ
BgNVHRMEAjAAMB0GA1UdDgQWBBQjxPgjKHwu+OyQWf+SudB+fTb78TBRBgNVHSME
SjBIgBS90spvPupELzWKEWqo6patg2B43aEapBgwFjEUMBIGA1UEAwwLdGVhbTEz
NC1uZXSCFDDoY/q/R1eIQSozB6v4yCwvsCwkMBMGA1UdJQQMMAoGCCsGAQUFBwMC
MAsGA1UdDwQEAwIHgDANBgkqhkiG9w0BAQsFAAOCAQEAx2LPpucUFtzCattkgjPY
pSonSj7jQp60PvkF/JJqanr2zQ0Hn/WxAHjv81Z+NNNuM/IdUbL1gRkaIVCiomye
n5/oxwYTwB9nnzgWVsNEDV2KUOGpsh/9uxNm5wTbqweTgILsRt0eocZcTOk7mpvD
BB5Errf5i6pZW0zPtpGbARy4QfVMl6kOPXZlN3ThwBgxY8XIfH4zLPPnGN/TtJdy
jCURCKDmfN9QD3lT9kmx3Jcb5cYYzXFDCieFx1oSx5EvD7QYEze50A0dC0bje1tw
wQLOVipTqe83YZ4KC7Xw78iODN+sp6t/yJtY3Gbugxdao192GLjIUfLWQs4W4LHW
pw==
-----END CERTIFICATE-----
