Certificate:
    Data:
        Version: 3 (0x2)
        Serial Number:
            78:ad:03:7c:8f:ef:f9:d9:a4:76:de:7b:c2:cf:ba:e6
        Signature Algorithm: sha256WithRSAEncryption
        Issuer: CN=team469-net
        Validity
            Not Before: Nov  3 20:47:48 2023 GMT
            Not After : Oct 18 20:47:48 2026 GMT
        Subject: CN=team469-server
        Subject Public Key Info:
            Public Key Algorithm: rsaEncryption
                Public-Key: (2048 bit)
                Modulus:
                    00:bf:f7:41:47:c7:db:6c:51:bb:4f:4b:bb:76:09:
                    f0:6c:0a:d9:fb:02:e5:db:16:03:f3:fe:05:8f:db:
                    89:6d:3e:64:8d:eb:f4:a6:10:1e:a7:3b:c3:e2:0f:
                    68:e9:0f:ad:1c:20:7c:65:aa:0a:35:60:1d:9d:a8:
                    fd:88:72:8e:f1:15:28:ab:b3:a0:0c:d0:eb:54:1e:
                    d9:b8:de:77:c2:97:a0:81:ea:3f:c8:3b:45:e3:9d:
                    2c:ee:da:74:c2:c7:41:ee:77:77:8e:74:29:a1:7d:
                    65:48:9d:59:42:9f:37:92:84:f7:44:5e:d2:17:d7:
                    37:ca:6c:b5:f4:62:db:84:ba:41:4e:27:34:e4:7e:
                    47:29:61:de:14:4d:9a:e3:12:84:be:6a:df:01:f2:
                    f3:58:94:25:75:80:0c:92:1f:d5:d1:3a:57:6d:80:
                    7c:c6:bd:b0:54:69:71:32:04:7f:75:fd:52:1a:a6:
                    b5:08:10:13:ea:4f:41:ad:69:67:57:46:6c:8e:f0:
                    0f:71:aa:4d:54:ac:5e:cf:cb:fb:75:cc:bc:68:66:
                    f9:52:12:22:b6:78:33:8c:4f:d4:b0:77:17:10:de:
                    ff:ab:fa:5c:ec:ec:14:2f:e8:b5:0a:61:58:7a:2e:
                    9c:a8:9f:09:ef:e5:a9:34:68:5a:49:bb:89:a2:8c:
                    42:53
                Exponent: 65537 (0x10001)
        X509v3 extensions:
            X509v3 Basic Constraints: 
                CA:FALSE
            X509v3 Subject Key Identifier: 
                63:EC:1B:53:EF:5B:6D:B8:DF:47:FD:1F:8B:9F:E8:BC:B7:06:A4:37
            X509v3 Authority Key Identifier: 
                keyid:18:46:D8:EA:BD:C1:C4:6B:09:03:47:80:42:F2:ED:8C:FB:E7:13:45
                DirName:/CN=team469-net
                serial:77:4B:C8:DC:05:B5:35:64:2E:0B:2C:6E:C3:52:12:AF:F4:2D:B6:F5
            X509v3 Extended Key Usage: 
                TLS Web Server Authentication
            X509v3 Key Usage: 
                Digital Signature, Key Encipherment
            X509v3 Subject Alternative Name: 
                DNS:team469-server
    Signature Algorithm: sha256WithRSAEncryption
    Signature Value:
        6c:22:ba:98:2d:32:30:18:67:d6:d9:22:af:41:b8:46:ac:77:
        20:29:85:e8:9b:79:2f:88:da:be:26:e6:40:d2:32:8f:d9:9c:
        ec:bd:8c:38:34:12:4b:b3:d0:c0:14:c2:56:7b:58:af:8b:30:
        85:d8:8b:13:71:2b:a1:d8:89:91:20:d6:63:40:40:bb:57:3b:
        8c:2c:fd:c4:c1:f6:b5:7f:d8:b4:12:48:5b:5f:91:bb:7f:44:
        ed:cb:fc:27:4c:3c:79:ee:3d:65:ad:10:9a:65:4e:af:10:61:
        dc:89:8a:14:3e:58:37:c7:64:b7:27:c1:67:c7:44:58:44:64:
        28:77:83:96:98:0f:2d:9f:78:98:16:7e:00:72:61:da:45:32:
        b4:df:c3:e6:c6:77:51:53:a8:23:c0:f7:4b:47:0d:90:4c:33:
        4a:7e:af:19:ea:9b:b6:bf:7d:00:db:f2:b3:fd:c4:8b:d6:2e:
        8d:8d:0e:d3:9a:fd:51:dd:49:4c:63:c5:db:32:01:ca:85:f5:
        53:03:c5:9c:e8:fd:6a:68:1b:7b:06:68:3b:ce:db:a8:5e:22:
        48:c4:9b:c5:e0:bf:0b:27:f9:ae:3f:f2:e5:9d:68:de:61:93:
        59:e5:39:a7:79:4a:80:7e:ff:72:13:da:ce:7c:77:ba:cb:99:
        d9:d1:d2:b9
-----BEGIN CERTIFICATE-----
MIIDdzCCAl+gAwIBAgIQeK0DfI/v+dmkdt57ws+65jANBgkqhkiG9w0BAQsFADAW
MRQwEgYDVQQDDAt0ZWFtNDY5LW5ldDAeFw0yMzExMDMyMDQ3NDhaFw0yNjEwMTgy
MDQ3NDhaMBkxFzAVBgNVBAMMDnRlYW00Njktc2VydmVyMIIBIjANBgkqhkiG9w0B
AQEFAAOCAQ8AMIIBCgKCAQEAv/dBR8fbbFG7T0u7dgnwbArZ+wLl2xYD8/4Fj9uJ
bT5kjev0phAepzvD4g9o6Q+tHCB8ZaoKNWAdnaj9iHKO8RUoq7OgDNDrVB7ZuN53
wpeggeo/yDtF450s7tp0wsdB7nd3jnQpoX1lSJ1ZQp83koT3RF7SF9c3ymy19GLb
hLpBTic05H5HKWHeFE2a4xKEvmrfAfLzWJQldYAMkh/V0TpXbYB8xr2wVGlxMgR/
df1SGqa1CBAT6k9BrWlnV0ZsjvAPcapNVKxez8v7dcy8aGb5UhIitngzjE/UsHcX
EN7/q/pc7OwUL+i1CmFYei6cqJ8J7+WpNGhaSbuJooxCUwIDAQABo4G9MIG6MAkG
A1UdEwQCMAAwHQYDVR0OBBYEFGPsG1PvW22430f9H4uf6Ly3BqQ3MFEGA1UdIwRK
MEiAFBhG2Oq9wcRrCQNHgELy7Yz75xNFoRqkGDAWMRQwEgYDVQQDDAt0ZWFtNDY5
LW5ldIIUd0vI3AW1NWQuCyxuw1ISr/QttvUwEwYDVR0lBAwwCgYIKwYBBQUHAwEw
CwYDVR0PBAQDAgWgMBkGA1UdEQQSMBCCDnRlYW00Njktc2VydmVyMA0GCSqGSIb3
DQEBCwUAA4IBAQBsIrqYLTIwGGfW2SKvQbhGrHcgKYXom3kviNq+JuZA0jKP2Zzs
vYw4NBJLs9DAFMJWe1ivizCF2IsTcSuh2ImRINZjQEC7VzuMLP3Ewfa1f9i0Ekhb
X5G7f0Tty/wnTDx57j1lrRCaZU6vEGHciYoUPlg3x2S3J8Fnx0RYRGQod4OWmA8t
n3iYFn4AcmHaRTK038PmxndRU6gjwPdLRw2QTDNKfq8Z6pu2v30A2/Kz/cSL1i6N
jQ7Tmv1R3UlMY8XbMgHKhfVTA8Wc6P1qaBt7Bmg7ztuoXiJIxJvF4L8LJ/muP/Ll
nWjeYZNZ5TmneUqAfv9yE9rOfHe6y5nZ0dK5
-----END CERTIFICATE-----
