Certificate:
    Data:
        Version: 3 (0x2)
        Serial Number:
            3d:59:00:d4:1d:8a:3a:66:86:4c:cf:87:ee:8c:64:14
        Signature Algorithm: sha256WithRSAEncryption
        Issuer: CN=team264-net
        Validity
            Not Before: Nov  4 11:32:54 2023 GMT
            Not After : Oct 19 11:32:54 2026 GMT
        Subject: CN=team264-client
        Subject Public Key Info:
            Public Key Algorithm: rsaEncryption
                Public-Key: (2048 bit)
                Modulus:
                    00:de:84:a9:1f:65:5d:1f:89:76:3d:10:83:e8:26:
                    9e:db:3c:ed:2c:28:40:a3:44:7d:51:71:66:43:26:
                    8d:99:4e:eb:e8:e8:87:19:06:c3:34:19:3a:0b:0b:
                    43:af:12:38:2c:28:2a:79:e0:f8:86:20:2f:6d:14:
                    9c:e7:65:70:32:37:cf:02:61:76:5d:cb:8d:7a:a0:
                    30:61:bd:6d:1b:8d:0d:3d:07:ed:e4:3c:29:8b:56:
                    c1:50:e3:6f:2c:fa:8c:36:4b:41:57:d2:6b:de:b4:
                    4e:bd:bb:40:f9:ae:7f:20:3b:c2:d7:33:82:e9:3c:
                    b9:ef:f5:2f:b5:8c:04:14:f3:e2:5d:57:a3:6b:76:
                    a8:a6:54:eb:c1:d0:de:ff:07:e4:fc:83:28:2a:90:
                    6f:c9:21:5a:7e:5c:86:5d:dc:7f:1b:ff:37:ba:8b:
                    8f:23:37:80:bc:ab:c1:01:85:f3:e4:81:31:4b:9e:
                    ba:ca:96:6d:c5:05:cb:07:da:49:6d:af:c7:f5:c3:
                    96:1a:8c:f3:52:d4:98:c2:9a:a5:dd:89:67:96:4d:
                    80:9e:76:7b:ce:c5:97:51:d3:73:c3:5f:df:63:74:
                    49:35:28:ee:32:d3:df:52:95:8f:5b:e8:b1:bf:0c:
                    ea:39:b1:0d:69:a6:d4:fd:40:8c:b3:03:2f:1a:36:
                    c9:87
                Exponent: 65537 (0x10001)
        X509v3 extensions:
            X509v3 Basic Constraints: 
                CA:FALSE
            X509v3 Subject Key Identifier: 
                AE:62:E6:24:5F:2F:9C:4E:D9:C6:54:6B:94:F2:9F:47:F9:A2:21:09
            X509v3 Authority Key Identifier: 
                keyid:8B:4F:A3:39:C0:BB:A7:9B:5F:A1:A4:A2:49:A5:CA:EB:1E:2D:11:2E
                DirName:/CN=team264-net
                serial:39:5D:C8:E0:40:C0:E6:3C:DD:5A:EB:72:6D:AE:48:36:39:82:B4:0A
            X509v3 Extended Key Usage: 
                TLS Web Client Authentication
            X509v3 Key Usage: 
                Digital Signature
    Signature Algorithm: sha256WithRSAEncryption
    Signature Value:
        35:00:3d:69:ce:97:7d:f3:74:7c:72:55:a6:99:cb:01:df:5c:
        8b:b4:58:99:e0:52:40:3f:7c:9c:b1:fc:8c:b0:60:44:dc:9b:
        89:d2:9e:0e:5c:9f:ca:33:32:42:fd:c5:99:23:59:b2:16:1c:
        e5:f9:e1:4b:f0:b4:72:e4:8b:26:f1:78:eb:a7:34:50:b7:16:
        f5:55:d9:ea:20:ea:68:a4:ec:ea:ff:8d:b2:06:72:b4:80:a0:
        9b:1a:62:d8:59:0d:d0:1b:74:92:8a:90:89:dd:ed:fc:22:4f:
        ae:2d:89:e7:ca:4a:21:3f:8e:df:e8:ef:53:4b:fa:48:8a:6f:
        8c:a0:49:20:83:47:38:11:d6:54:29:7f:29:86:1d:19:d9:26:
        7a:20:17:c6:63:aa:2c:2d:95:6d:a3:d6:5b:56:b8:46:43:73:
        0e:18:43:57:df:17:a3:38:b6:b7:d2:1b:58:51:c2:a0:b9:31:
        53:4a:ff:9f:bf:4d:75:e3:bd:3a:60:95:27:39:a9:73:3c:93:
        1c:79:9e:ec:14:6f:39:59:b0:95:ca:67:99:42:59:16:8c:2e:
        e6:10:40:96:4a:53:37:c4:d7:e1:25:78:05:13:35:02:3e:6c:
        48:b0:e8:f8:25:0d:39:cc:00:0d:8d:9e:65:62:49:c5:3b:62:
        09:e1:08:ba
-----BEGIN CERTIFICATE-----
MIIDXDCCAkSgAwIBAgIQPVkA1B2KOmaGTM+H7oxkFDANBgkqhkiG9w0BAQsFADAW
MRQwEgYDVQQDDAt0ZWFtMjY0LW5ldDAeFw0yMzExMDQxMTMyNTRaFw0yNjEwMTkx
MTMyNTRaMBkxFzAVBgNVBAMMDnRlYW0yNjQtY2xpZW50MIIBIjANBgkqhkiG9w0B
AQEFAAOCAQ8AMIIBCgKCAQEA3oSpH2VdH4l2PRCD6Cae2zztLChAo0R9UXFmQyaN
mU7r6OiHGQbDNBk6CwtDrxI4LCgqeeD4hiAvbRSc52VwMjfPAmF2XcuNeqAwYb1t
G40NPQft5Dwpi1bBUONvLPqMNktBV9Jr3rROvbtA+a5/IDvC1zOC6Ty57/UvtYwE
FPPiXVeja3aoplTrwdDe/wfk/IMoKpBvySFaflyGXdx/G/83uouPIzeAvKvBAYXz
5IExS566ypZtxQXLB9pJba/H9cOWGozzUtSYwpql3Ylnlk2AnnZ7zsWXUdNzw1/f
Y3RJNSjuMtPfUpWPW+ixvwzqObENaabU/UCMswMvGjbJhwIDAQABo4GiMIGfMAkG
A1UdEwQCMAAwHQYDVR0OBBYEFK5i5iRfL5xO2cZUa5Tyn0f5oiEJMFEGA1UdIwRK
MEiAFItPoznAu6ebX6GkokmlyuseLREuoRqkGDAWMRQwEgYDVQQDDAt0ZWFtMjY0
LW5ldIIUOV3I4EDA5jzdWutyba5INjmCtAowEwYDVR0lBAwwCgYIKwYBBQUHAwIw
CwYDVR0PBAQDAgeAMA0GCSqGSIb3DQEBCwUAA4IBAQA1AD1pzpd983R8clWmmcsB
31yLtFiZ4FJAP3ycsfyMsGBE3JuJ0p4OXJ/KMzJC/cWZI1myFhzl+eFL8LRy5Ism
8XjrpzRQtxb1VdnqIOpopOzq/42yBnK0gKCbGmLYWQ3QG3SSipCJ3e38Ik+uLYnn
ykohP47f6O9TS/pIim+MoEkgg0c4EdZUKX8phh0Z2SZ6IBfGY6osLZVto9ZbVrhG
Q3MOGENX3xejOLa30htYUcKguTFTSv+fv0114706YJUnOalzPJMceZ7sFG85WbCV
ymeZQlkWjC7mEECWSlM3xNfhJXgFEzUCPmxIsOj4JQ05zAANjZ5lYknFO2IJ4Qi6
-----END CERTIFICATE-----
