Certificate:
    Data:
        Version: 3 (0x2)
        Serial Number:
            43:f4:09:e8:1e:5c:5e:04:6f:00:68:a4:e5:2a:94:ff
        Signature Algorithm: sha256WithRSAEncryption
        Issuer: CN=team264-net
        Validity
            Not Before: Nov  3 20:44:08 2023 GMT
            Not After : Oct 18 20:44:08 2026 GMT
        Subject: CN=team264-client
        Subject Public Key Info:
            Public Key Algorithm: rsaEncryption
                Public-Key: (2048 bit)
                Modulus:
                    00:d0:ce:4d:84:3f:05:d1:97:96:ee:86:43:1d:91:
                    69:a9:60:4a:da:15:ea:fc:23:73:15:21:1f:36:2d:
                    2c:a8:ce:20:4a:0d:d7:cc:58:52:de:2b:f3:7c:7b:
                    a7:a2:8e:58:cf:09:3c:bb:5e:fa:e2:3a:ba:8e:04:
                    f4:b7:e2:7d:1a:cf:cd:df:c5:05:2e:77:aa:ff:28:
                    3b:72:75:c2:d3:a2:0b:ef:c8:ea:b7:88:fe:0a:8c:
                    58:f7:db:80:8a:2b:cf:bd:0b:bc:dc:28:65:46:7e:
                    a0:2e:73:fe:88:82:ad:84:a4:c9:94:fc:52:dc:7c:
                    6f:56:60:af:a3:57:75:d3:5d:ee:f0:8c:f8:63:f1:
                    99:c8:65:bb:78:dc:d4:44:df:ec:32:fb:46:b8:60:
                    9f:6f:2c:39:86:1f:8e:9b:22:9e:b5:c6:32:91:53:
                    41:73:b8:7a:69:11:8c:e8:56:55:29:d1:4e:90:70:
                    d0:4e:93:49:a9:6d:ac:d4:aa:a8:77:33:ee:e5:f8:
                    9c:be:6d:1c:1e:5f:ae:9a:9d:78:df:b1:2e:e0:64:
                    1b:cb:6e:f0:0a:32:31:37:80:1c:c1:75:06:1d:4b:
                    69:e5:cd:15:c7:df:37:93:bc:4f:a7:0e:2e:63:c4:
                    38:c7:b8:6e:c2:5b:d7:e8:aa:1a:62:7a:18:9d:e8:
                    a2:21
                Exponent: 65537 (0x10001)
        X509v3 extensions:
            X509v3 Basic Constraints: 
                CA:FALSE
            X509v3 Subject Key Identifier: 
                64:1B:B2:64:EF:4B:BB:84:F1:66:13:E1:82:94:29:2E:23:F4:FE:D1
            X509v3 Authority Key Identifier: 
                keyid:33:75:C0:F0:A9:E4:2E:5A:38:CE:28:1D:65:ED:B8:B1:FF:F7:C5:9A
                DirName:/CN=team264-net
                serial:10:FD:FE:18:CA:07:65:04:93:6C:25:7E:89:F6:DE:7E:0E:7E:A9:16
            X509v3 Extended Key Usage: 
                TLS Web Client Authentication
            X509v3 Key Usage: 
                Digital Signature
    Signature Algorithm: sha256WithRSAEncryption
    Signature Value:
        29:27:55:18:fb:de:3c:f7:10:cd:30:0c:d6:96:95:5d:fb:ba:
        a5:20:23:aa:9b:6c:45:8c:34:ce:7f:26:5b:6d:14:2b:50:ac:
        f6:46:f9:0c:d1:17:06:77:91:c7:d5:46:ed:43:e3:fe:7d:7a:
        d3:4c:07:cc:08:3a:7d:42:62:e5:6d:c4:e4:1a:ca:d4:62:25:
        59:26:12:2a:90:3e:88:27:ee:f8:9b:6b:a3:97:cb:15:3b:b4:
        31:7a:72:c7:a4:52:d2:62:25:36:27:fd:e6:bc:92:53:6c:59:
        e1:4b:38:6b:38:8b:ed:c4:6f:d1:f3:71:a8:7c:00:de:43:f1:
        f9:aa:99:31:e1:47:47:c9:fc:a4:ca:45:4f:cd:35:98:36:61:
        c6:c5:63:98:f5:7d:57:71:b9:c7:64:d4:bb:d5:53:f0:c2:b3:
        26:c9:7a:64:c5:af:f0:ca:3b:2f:31:7d:3f:05:0d:a5:cf:8a:
        b2:57:f1:90:08:98:c7:c0:5d:d7:6a:1b:a5:30:7f:27:44:01:
        69:6e:03:55:16:db:26:9d:73:39:57:94:82:94:7b:c1:8c:ee:
        52:98:d2:ed:4f:a2:ed:68:4d:79:8e:6e:dd:14:94:36:74:39:
        b2:5d:e9:17:6d:79:3d:92:74:17:da:54:25:51:ba:44:c3:d8:
        d5:82:05:ca
-----BEGIN CERTIFICATE-----
MIIDXDCCAkSgAwIBAgIQQ/QJ6B5cXgRvAGik5SqU/zANBgkqhkiG9w0BAQsFADAW
MRQwEgYDVQQDDAt0ZWFtMjY0LW5ldDAeFw0yMzExMDMyMDQ0MDhaFw0yNjEwMTgy
MDQ0MDhaMBkxFzAVBgNVBAMMDnRlYW0yNjQtY2xpZW50MIIBIjANBgkqhkiG9w0B
AQEFAAOCAQ8AMIIBCgKCAQEA0M5NhD8F0ZeW7oZDHZFpqWBK2hXq/CNzFSEfNi0s
qM4gSg3XzFhS3ivzfHunoo5Yzwk8u1764jq6jgT0t+J9Gs/N38UFLneq/yg7cnXC
06IL78jqt4j+CoxY99uAiivPvQu83ChlRn6gLnP+iIKthKTJlPxS3HxvVmCvo1d1
013u8Iz4Y/GZyGW7eNzURN/sMvtGuGCfbyw5hh+OmyKetcYykVNBc7h6aRGM6FZV
KdFOkHDQTpNJqW2s1KqodzPu5ficvm0cHl+ump1437Eu4GQby27wCjIxN4AcwXUG
HUtp5c0Vx983k7xPpw4uY8Q4x7huwlvX6KoaYnoYneiiIQIDAQABo4GiMIGfMAkG
A1UdEwQCMAAwHQYDVR0OBBYEFGQbsmTvS7uE8WYT4YKUKS4j9P7RMFEGA1UdIwRK
MEiAFDN1wPCp5C5aOM4oHWXtuLH/98WaoRqkGDAWMRQwEgYDVQQDDAt0ZWFtMjY0
LW5ldIIUEP3+GMoHZQSTbCV+ifbefg5+qRYwEwYDVR0lBAwwCgYIKwYBBQUHAwIw
CwYDVR0PBAQDAgeAMA0GCSqGSIb3DQEBCwUAA4IBAQApJ1UY+9489xDNMAzWlpVd
+7qlICOqm2xFjDTOfyZbbRQrUKz2RvkM0RcGd5HH1UbtQ+P+fXrTTAfMCDp9QmLl
bcTkGsrUYiVZJhIqkD6IJ+74m2ujl8sVO7QxenLHpFLSYiU2J/3mvJJTbFnhSzhr
OIvtxG/R83GofADeQ/H5qpkx4UdHyfykykVPzTWYNmHGxWOY9X1XcbnHZNS71VPw
wrMmyXpkxa/wyjsvMX0/BQ2lz4qyV/GQCJjHwF3XahulMH8nRAFpbgNVFtsmnXM5
V5SClHvBjO5SmNLtT6LtaE15jm7dFJQ2dDmyXekXbXk9knQX2lQlUbpEw9jVggXK
-----END CERTIFICATE-----
