Certificate:
    Data:
        Version: 3 (0x2)
        Serial Number:
            a7:f1:23:8e:60:45:36:74:23:43:ec:1c:8a:1a:4d:70
        Signature Algorithm: sha256WithRSAEncryption
        Issuer: CN=team264-net
        Validity
            Not Before: Nov  4 11:32:54 2023 GMT
            Not After : Oct 19 11:32:54 2026 GMT
        Subject: CN=team264-server
        Subject Public Key Info:
            Public Key Algorithm: rsaEncryption
                Public-Key: (2048 bit)
                Modulus:
                    00:89:40:b7:4b:d6:c6:13:32:f2:85:6b:91:c8:d6:
                    99:ea:b6:54:fc:aa:9f:86:7a:22:31:1e:da:8c:23:
                    3e:4c:c8:1e:91:de:82:c8:8b:d4:fa:8f:a7:a5:e0:
                    ae:6c:ff:da:ff:4e:a8:8e:1a:98:66:68:a1:79:0f:
                    cd:a8:ce:5e:6f:5b:2c:42:76:9f:88:60:7c:26:11:
                    55:20:e1:0e:2e:f9:56:91:df:3f:e7:bf:80:81:fe:
                    f9:ed:20:73:43:90:1c:fc:97:4d:9c:d9:56:61:af:
                    5e:71:5f:1e:cb:72:3f:a6:5d:d9:b0:c2:21:f6:1f:
                    f6:98:06:1c:27:0a:71:2d:c4:b2:4a:11:3e:fb:32:
                    66:41:8a:cc:21:d9:1c:b9:c6:81:57:a4:3a:95:8c:
                    34:f1:1d:cc:0a:e6:b1:db:c6:6a:62:8c:17:a2:dc:
                    a5:8c:9f:73:57:f5:3c:26:4b:53:33:72:18:15:0d:
                    19:9c:12:4c:2e:79:25:eb:ec:9b:5e:5f:3e:02:bf:
                    3e:db:98:18:70:1e:8b:3a:da:85:ce:fd:8b:01:ae:
                    59:20:50:84:b6:e0:6d:e0:66:54:d0:92:cc:9b:21:
                    b5:58:d0:26:28:77:77:ce:d2:54:fa:ed:e3:3f:dd:
                    da:5c:ee:db:ba:cb:4c:4d:66:b4:40:98:49:52:6d:
                    21:1d
                Exponent: 65537 (0x10001)
        X509v3 extensions:
            X509v3 Basic Constraints: 
                CA:FALSE
            X509v3 Subject Key Identifier: 
                70:9F:28:93:D5:83:BE:38:64:4B:5D:1E:05:8B:D4:B1:B4:8A:FD:EB
            X509v3 Authority Key Identifier: 
                keyid:8B:4F:A3:39:C0:BB:A7:9B:5F:A1:A4:A2:49:A5:CA:EB:1E:2D:11:2E
                DirName:/CN=team264-net
                serial:39:5D:C8:E0:40:C0:E6:3C:DD:5A:EB:72:6D:AE:48:36:39:82:B4:0A
            X509v3 Extended Key Usage: 
                TLS Web Server Authentication
            X509v3 Key Usage: 
                Digital Signature, Key Encipherment
            X509v3 Subject Alternative Name: 
                DNS:team264-server
    Signature Algorithm: sha256WithRSAEncryption
    Signature Value:
        86:53:72:78:ab:46:e3:41:2c:18:c4:09:10:50:a2:8f:23:d2:
        63:cf:ed:fe:26:1b:84:7d:74:fc:b7:1e:04:f9:3f:6f:a7:7c:
        e1:24:15:c4:57:56:f5:8a:b1:50:8f:2b:c9:bb:d7:03:f3:56:
        47:8f:90:e7:04:1d:1a:bc:17:32:30:0e:11:66:f3:3c:88:8a:
        2f:8e:44:de:98:9f:47:fe:e4:b1:e4:7a:1c:ac:a5:e2:6f:d7:
        17:6f:11:c5:c0:3d:a6:ad:2b:0b:8d:10:4c:b8:1e:d7:56:bc:
        c3:19:af:ae:fd:1f:07:9e:14:9d:ad:c0:9c:0e:73:1a:74:81:
        64:15:65:89:f8:d4:70:60:08:b3:7f:8f:37:2a:3a:04:ca:62:
        53:30:a5:f0:a5:7d:08:95:f0:df:8a:97:15:c3:51:72:42:07:
        4a:db:d6:b3:42:52:66:fb:87:99:92:68:db:1e:48:00:27:77:
        c9:70:77:71:c2:86:24:54:05:2a:78:85:9d:7e:b8:8a:a1:17:
        a0:97:4a:28:d5:f5:8f:81:ff:f5:5e:ca:c1:f3:b4:b8:0f:23:
        40:79:a2:84:a8:89:cc:b8:6a:7d:0a:5c:23:c0:7b:2b:87:f9:
        60:0a:a7:b4:ae:01:4c:8e:88:eb:f8:e9:07:d5:76:be:f7:2c:
        a6:df:3c:d3
-----BEGIN CERTIFICATE-----
MIIDeDCCAmCgAwIBAgIRAKfxI45gRTZ0I0PsHIoaTXAwDQYJKoZIhvcNAQELBQAw
FjEUMBIGA1UEAwwLdGVhbTI2NC1uZXQwHhcNMjMxMTA0MTEzMjU0WhcNMjYxMDE5
MTEzMjU0WjAZMRcwFQYDVQQDDA50ZWFtMjY0LXNlcnZlcjCCASIwDQYJKoZIhvcN
AQEBBQADggEPADCCAQoCggEBAIlAt0vWxhMy8oVrkcjWmeq2VPyqn4Z6IjEe2owj
PkzIHpHegsiL1PqPp6Xgrmz/2v9OqI4amGZooXkPzajOXm9bLEJ2n4hgfCYRVSDh
Di75VpHfP+e/gIH++e0gc0OQHPyXTZzZVmGvXnFfHstyP6Zd2bDCIfYf9pgGHCcK
cS3EskoRPvsyZkGKzCHZHLnGgVekOpWMNPEdzArmsdvGamKMF6LcpYyfc1f1PCZL
UzNyGBUNGZwSTC55Jevsm15fPgK/PtuYGHAeizrahc79iwGuWSBQhLbgbeBmVNCS
zJshtVjQJih3d87SVPrt4z/d2lzu27rLTE1mtECYSVJtIR0CAwEAAaOBvTCBujAJ
BgNVHRMEAjAAMB0GA1UdDgQWBBRwnyiT1YO+OGRLXR4Fi9SxtIr96zBRBgNVHSME
SjBIgBSLT6M5wLunm1+hpKJJpcrrHi0RLqEapBgwFjEUMBIGA1UEAwwLdGVhbTI2
NC1uZXSCFDldyOBAwOY83Vrrcm2uSDY5grQKMBMGA1UdJQQMMAoGCCsGAQUFBwMB
MAsGA1UdDwQEAwIFoDAZBgNVHREEEjAQgg50ZWFtMjY0LXNlcnZlcjANBgkqhkiG
9w0BAQsFAAOCAQEAhlNyeKtG40EsGMQJEFCijyPSY8/t/iYbhH10/LceBPk/b6d8
4SQVxFdW9YqxUI8rybvXA/NWR4+Q5wQdGrwXMjAOEWbzPIiKL45E3pifR/7kseR6
HKyl4m/XF28RxcA9pq0rC40QTLge11a8wxmvrv0fB54Una3AnA5zGnSBZBVlifjU
cGAIs3+PNyo6BMpiUzCl8KV9CJXw34qXFcNRckIHStvWs0JSZvuHmZJo2x5IACd3
yXB3ccKGJFQFKniFnX64iqEXoJdKKNX1j4H/9V7KwfO0uA8jQHmihKiJzLhqfQpc
I8B7K4f5YAqntK4BTI6I6/jpB9V2vvcspt880w==
-----END CERTIFICATE-----
