Certificate:
    Data:
        Version: 3 (0x2)
        Serial Number:
            bf:bc:ee:75:34:f6:15:c8:2b:b2:89:a2:f1:02:e5:66
        Signature Algorithm: sha256WithRSAEncryption
        Issuer: CN=team264-net
        Validity
            Not Before: Nov  4 10:45:35 2023 GMT
            Not After : Oct 19 10:45:35 2026 GMT
        Subject: CN=team264-client
        Subject Public Key Info:
            Public Key Algorithm: rsaEncryption
                Public-Key: (2048 bit)
                Modulus:
                    00:c7:67:6c:ba:e5:cd:5b:51:af:55:82:a9:28:e8:
                    ff:e8:11:21:3f:6d:83:42:8a:cc:cc:4f:f1:c3:1a:
                    65:6b:11:63:27:e6:07:af:c0:2a:99:28:3c:e3:56:
                    5c:23:05:9e:20:58:1f:59:ab:34:aa:af:de:82:e4:
                    cd:fa:a2:6d:d5:f7:95:7d:3d:0c:08:ee:8d:b9:97:
                    a4:e1:ec:b9:ec:48:26:34:16:2e:38:55:de:27:a6:
                    34:ed:bb:04:bf:67:2f:e3:15:45:c9:f3:51:6b:3f:
                    88:a6:cb:79:52:64:5e:22:c8:82:72:8e:46:80:1e:
                    7a:14:f7:b6:fe:ac:5d:02:23:a4:dd:a6:0d:05:69:
                    50:fc:08:5a:9a:35:12:b8:5d:f2:12:be:e4:11:f1:
                    d6:c5:4f:db:fd:3e:d5:65:fa:da:5f:2f:4e:ad:f7:
                    07:b8:b8:d3:f6:66:ab:dd:9d:b1:8d:ca:44:e6:0b:
                    bf:89:49:b8:62:89:bc:67:e0:12:a8:92:78:43:6c:
                    4a:c1:0d:81:48:20:c0:3f:3c:dc:f5:f4:28:10:b8:
                    90:90:16:e2:3f:51:cd:7f:ed:3c:89:52:13:62:64:
                    f4:d0:39:f2:aa:33:18:1b:2c:76:38:28:7e:41:dd:
                    3d:ff:48:b8:7b:00:36:fc:e7:98:40:ad:6b:06:86:
                    c3:0d
                Exponent: 65537 (0x10001)
        X509v3 extensions:
            X509v3 Basic Constraints: 
                CA:FALSE
            X509v3 Subject Key Identifier: 
                FC:99:04:E3:63:6D:0D:4D:43:AD:02:56:4A:E8:35:64:1A:6E:88:22
            X509v3 Authority Key Identifier: 
                keyid:73:7F:30:5F:50:46:E7:EC:20:CA:3E:8F:D3:DD:2C:74:30:E0:EB:EF
                DirName:/CN=team264-net
                serial:04:75:8C:F5:FA:F1:59:40:99:F2:F2:BC:1D:9D:04:7B:7E:3D:16:9B
            X509v3 Extended Key Usage: 
                TLS Web Client Authentication
            X509v3 Key Usage: 
                Digital Signature
    Signature Algorithm: sha256WithRSAEncryption
    Signature Value:
        5b:f8:00:a9:75:dc:c6:e7:06:8c:98:59:05:97:e3:ec:c0:6d:
        f6:42:e9:1a:d5:63:5d:df:d3:08:42:9b:1c:0a:18:66:fe:79:
        e2:e1:81:82:d0:a4:73:c8:2e:b3:d7:42:90:47:20:8d:ee:f9:
        e0:42:73:3c:74:96:15:12:32:a6:f8:d5:66:7d:a4:8b:df:ff:
        6c:dd:4d:6c:82:91:f1:a0:a1:7d:a8:8f:a1:6b:9c:9f:7f:d9:
        68:56:c2:ba:ea:90:ea:04:23:72:32:38:87:0f:94:31:90:a7:
        2c:be:87:1e:06:ab:b0:72:a4:75:84:0f:7d:f9:cd:68:bf:a9:
        12:8d:c5:a8:a5:0d:02:02:a7:08:6c:91:01:75:c0:8a:dd:9f:
        a5:13:50:2b:e1:da:35:60:55:2b:bf:c3:ff:b6:83:81:8a:c7:
        ed:f8:21:10:75:68:80:42:1c:ea:25:99:da:c8:82:4b:1f:8e:
        fa:91:09:da:9e:fa:90:17:8b:71:e8:89:d4:d0:47:e3:18:2d:
        ad:fd:91:e3:c1:dc:f9:7d:d9:13:b9:70:40:ec:b6:4b:e6:a3:
        18:6c:27:40:91:14:40:5f:14:76:a4:7a:c2:8e:cb:32:8f:95:
        9e:61:96:07:0a:94:7a:89:7b:d6:84:78:fa:a7:a6:13:bb:d2:
        d4:a9:87:0a
-----BEGIN CERTIFICATE-----
MIIDXTCCAkWgAwIBAgIRAL+87nU09hXIK7KJovEC5WYwDQYJKoZIhvcNAQELBQAw
FjEUMBIGA1UEAwwLdGVhbTI2NC1uZXQwHhcNMjMxMTA0MTA0NTM1WhcNMjYxMDE5
MTA0NTM1WjAZMRcwFQYDVQQDDA50ZWFtMjY0LWNsaWVudDCCASIwDQYJKoZIhvcN
AQEBBQADggEPADCCAQoCggEBAMdnbLrlzVtRr1WCqSjo/+gRIT9tg0KKzMxP8cMa
ZWsRYyfmB6/AKpkoPONWXCMFniBYH1mrNKqv3oLkzfqibdX3lX09DAjujbmXpOHs
uexIJjQWLjhV3iemNO27BL9nL+MVRcnzUWs/iKbLeVJkXiLIgnKORoAeehT3tv6s
XQIjpN2mDQVpUPwIWpo1Erhd8hK+5BHx1sVP2/0+1WX62l8vTq33B7i40/Zmq92d
sY3KROYLv4lJuGKJvGfgEqiSeENsSsENgUggwD883PX0KBC4kJAW4j9RzX/tPIlS
E2Jk9NA58qozGBssdjgofkHdPf9IuHsANvznmECtawaGww0CAwEAAaOBojCBnzAJ
BgNVHRMEAjAAMB0GA1UdDgQWBBT8mQTjY20NTUOtAlZK6DVkGm6IIjBRBgNVHSME
SjBIgBRzfzBfUEbn7CDKPo/T3Sx0MODr76EapBgwFjEUMBIGA1UEAwwLdGVhbTI2
NC1uZXSCFAR1jPX68VlAmfLyvB2dBHt+PRabMBMGA1UdJQQMMAoGCCsGAQUFBwMC
MAsGA1UdDwQEAwIHgDANBgkqhkiG9w0BAQsFAAOCAQEAW/gAqXXcxucGjJhZBZfj
7MBt9kLpGtVjXd/TCEKbHAoYZv554uGBgtCkc8gus9dCkEcgje754EJzPHSWFRIy
pvjVZn2ki9//bN1NbIKR8aChfaiPoWucn3/ZaFbCuuqQ6gQjcjI4hw+UMZCnLL6H
HgarsHKkdYQPffnNaL+pEo3FqKUNAgKnCGyRAXXAit2fpRNQK+HaNWBVK7/D/7aD
gYrH7fghEHVogEIc6iWZ2siCSx+O+pEJ2p76kBeLceiJ1NBH4xgtrf2R48Hc+X3Z
E7lwQOy2S+ajGGwnQJEUQF8UdqR6wo7LMo+VnmGWBwqUeol71oR4+qemE7vS1KmH
Cg==
-----END CERTIFICATE-----
