Certificate:
    Data:
        Version: 3 (0x2)
        Serial Number:
            4c:a7:d6:09:99:25:9e:13:77:8a:2d:79:92:c5:5f:67
        Signature Algorithm: sha256WithRSAEncryption
        Issuer: CN=team44-net
        Validity
            Not Before: Nov  3 20:40:01 2023 GMT
            Not After : Oct 18 20:40:01 2026 GMT
        Subject: CN=team44-server
        Subject Public Key Info:
            Public Key Algorithm: rsaEncryption
                Public-Key: (2048 bit)
                Modulus:
                    00:ca:05:87:e3:b6:69:65:88:39:91:6f:9f:18:45:
                    42:cf:8c:55:a3:b7:53:59:3f:28:9b:f9:61:82:ed:
                    2f:8e:ed:55:a3:75:6c:b9:ba:b1:de:f3:9e:27:3e:
                    b9:01:1b:17:19:96:ad:6b:54:b2:76:0c:f8:b1:d9:
                    b8:3b:f9:8c:e7:0f:3e:91:f6:d7:0d:35:33:ba:fd:
                    8b:29:97:3b:a3:c1:41:78:95:a8:1b:1a:a2:75:08:
                    ce:7c:6d:45:80:dd:9d:93:eb:a6:7f:95:3e:6f:94:
                    81:75:b8:22:db:7a:9c:c8:1e:61:af:9a:61:65:cd:
                    51:85:4b:75:b9:87:cf:a9:50:0d:fd:b4:5b:7f:10:
                    3c:5d:23:ae:2a:0d:a0:1a:73:d0:2f:20:cb:13:54:
                    79:a3:1f:aa:3f:84:52:4d:7a:a4:e6:6f:11:e5:cd:
                    6f:1b:4a:3e:51:0c:15:ab:72:69:e1:11:f7:4b:7e:
                    35:ca:35:3a:8f:c1:85:8c:5b:62:e4:4e:4a:59:32:
                    9b:37:be:c5:6d:68:0f:b1:7b:42:df:6f:c8:2a:46:
                    90:1e:49:e8:fb:42:c7:ef:a6:84:3f:5f:7d:ab:4c:
                    e4:3c:35:f1:98:a0:3c:f6:5c:61:c8:36:44:a6:99:
                    24:0e:12:a4:22:36:d1:ab:a9:ba:ee:52:2d:d2:a7:
                    74:05
                Exponent: 65537 (0x10001)
        X509v3 extensions:
            X509v3 Basic Constraints: 
                CA:FALSE
            X509v3 Subject Key Identifier: 
                B5:9C:DF:03:0A:1B:95:BF:F6:95:63:CA:50:0D:76:7A:F2:74:FE:70
            X509v3 Authority Key Identifier: 
                keyid:15:1E:57:B9:5D:22:6B:C2:DE:DB:8E:81:66:DA:D4:BE:B7:88:6F:78
                DirName:/CN=team44-net
                serial:4A:74:A3:DA:82:63:0F:28:2D:31:BF:BC:7F:59:3C:73:8A:EC:91:FD
            X509v3 Extended Key Usage: 
                TLS Web Server Authentication
            X509v3 Key Usage: 
                Digital Signature, Key Encipherment
            X509v3 Subject Alternative Name: 
                DNS:team44-server
    Signature Algorithm: sha256WithRSAEncryption
    Signature Value:
        49:03:fd:ea:9e:a8:8a:55:6e:23:67:de:ea:37:eb:e6:95:87:
        d5:7f:ed:97:3f:f4:48:7d:26:2b:cb:08:45:ee:db:43:60:15:
        37:be:df:53:c6:aa:8d:bf:9c:54:11:92:ad:29:c3:0d:58:65:
        b5:e2:af:71:fc:38:39:d2:bb:a5:8e:24:06:88:14:76:6e:e7:
        57:c6:54:6d:87:f2:80:f1:fc:3c:84:78:44:ce:ce:ab:30:d3:
        ee:0e:92:22:e5:b9:21:4a:c2:65:32:8e:eb:16:13:9a:e0:91:
        f5:56:c4:33:77:d3:88:8e:d4:6c:3a:57:ee:4d:b9:e9:a5:41:
        57:c0:9b:b9:8f:8e:b1:24:71:0e:ae:ab:09:80:37:2b:77:61:
        f5:f6:74:c4:a4:b1:89:00:6b:7f:e8:4c:f4:83:1a:d8:4a:c3:
        8c:cd:31:f8:f9:e9:78:c6:7e:92:b6:a8:66:c1:31:5f:99:80:
        a9:cd:0c:21:20:4a:3c:7f:a1:9a:a9:52:3c:57:63:a5:0b:fb:
        d9:01:24:5d:b9:28:5e:da:be:13:6c:a4:d4:e4:0c:94:74:09:
        c3:8e:64:c7:0a:a0:c5:08:5e:4c:8b:6e:a1:e8:32:18:06:6c:
        0e:13:e4:82:48:ce:b6:70:09:b8:3d:b3:48:9b:cf:c9:6c:8c:
        a7:f2:a4:fb
-----BEGIN CERTIFICATE-----
MIIDczCCAlugAwIBAgIQTKfWCZklnhN3ii15ksVfZzANBgkqhkiG9w0BAQsFADAV
MRMwEQYDVQQDDAp0ZWFtNDQtbmV0MB4XDTIzMTEwMzIwNDAwMVoXDTI2MTAxODIw
NDAwMVowGDEWMBQGA1UEAwwNdGVhbTQ0LXNlcnZlcjCCASIwDQYJKoZIhvcNAQEB
BQADggEPADCCAQoCggEBAMoFh+O2aWWIOZFvnxhFQs+MVaO3U1k/KJv5YYLtL47t
VaN1bLm6sd7znic+uQEbFxmWrWtUsnYM+LHZuDv5jOcPPpH21w01M7r9iymXO6PB
QXiVqBsaonUIznxtRYDdnZPrpn+VPm+UgXW4Itt6nMgeYa+aYWXNUYVLdbmHz6lQ
Df20W38QPF0jrioNoBpz0C8gyxNUeaMfqj+EUk16pOZvEeXNbxtKPlEMFatyaeER
90t+Nco1Oo/BhYxbYuROSlkymze+xW1oD7F7Qt9vyCpGkB5J6PtCx++mhD9ffatM
5Dw18ZigPPZcYcg2RKaZJA4SpCI20aupuu5SLdKndAUCAwEAAaOBuzCBuDAJBgNV
HRMEAjAAMB0GA1UdDgQWBBS1nN8DChuVv/aVY8pQDXZ68nT+cDBQBgNVHSMESTBH
gBQVHle5XSJrwt7bjoFm2tS+t4hveKEZpBcwFTETMBEGA1UEAwwKdGVhbTQ0LW5l
dIIUSnSj2oJjDygtMb+8f1k8c4rskf0wEwYDVR0lBAwwCgYIKwYBBQUHAwEwCwYD
VR0PBAQDAgWgMBgGA1UdEQQRMA+CDXRlYW00NC1zZXJ2ZXIwDQYJKoZIhvcNAQEL
BQADggEBAEkD/eqeqIpVbiNn3uo36+aVh9V/7Zc/9Eh9JivLCEXu20NgFTe+31PG
qo2/nFQRkq0pww1YZbXir3H8ODnSu6WOJAaIFHZu51fGVG2H8oDx/DyEeETOzqsw
0+4OkiLluSFKwmUyjusWE5rgkfVWxDN304iO1Gw6V+5NuemlQVfAm7mPjrEkcQ6u
qwmANyt3YfX2dMSksYkAa3/oTPSDGthKw4zNMfj56XjGfpK2qGbBMV+ZgKnNDCEg
Sjx/oZqpUjxXY6UL+9kBJF25KF7avhNspNTkDJR0CcOOZMcKoMUIXkyLbqHoMhgG
bA4T5IJIzrZwCbg9s0ibz8lsjKfypPs=
-----END CERTIFICATE-----
