Certificate:
    Data:
        Version: 3 (0x2)
        Serial Number:
            9d:02:bc:78:22:45:5f:a3:f4:b5:0c:2f:38:5e:3f:7d
        Signature Algorithm: sha256WithRSAEncryption
        Issuer: CN=team44-net
        Validity
            Not Before: Nov  4 11:28:13 2023 GMT
            Not After : Oct 19 11:28:13 2026 GMT
        Subject: CN=team44-server
        Subject Public Key Info:
            Public Key Algorithm: rsaEncryption
                Public-Key: (2048 bit)
                Modulus:
                    00:c0:76:5c:c7:6c:70:61:75:bd:2a:65:bb:c5:df:
                    11:dd:00:1a:39:56:67:ab:b9:d9:26:ab:50:f6:4b:
                    20:73:4f:19:35:00:05:eb:7a:95:d2:73:d3:5e:5b:
                    5f:ce:19:7c:df:76:17:74:80:fa:25:2e:a8:fb:cc:
                    43:9c:40:97:84:a3:a4:e8:68:21:3a:3b:84:79:a9:
                    9f:f5:83:6e:44:84:7b:2a:d6:7f:51:b9:2b:25:14:
                    e3:44:e7:d7:ac:0f:ee:02:cb:8f:5e:b6:3c:63:97:
                    0e:a2:50:af:7c:95:98:c3:41:6d:12:e3:71:d8:3b:
                    d4:b6:e8:d4:3e:e1:f5:72:5b:11:1c:67:57:91:51:
                    5e:9a:38:b8:25:fe:81:75:a9:46:22:37:3a:ce:2a:
                    09:d2:e8:8e:6b:95:6a:4f:cc:16:49:52:c8:0f:77:
                    be:e5:b7:66:35:8f:db:09:eb:e6:56:3b:de:b7:dd:
                    3e:03:c9:71:64:d2:e7:ba:50:d1:08:97:92:21:03:
                    a6:55:99:63:82:6d:13:3e:af:ab:28:7b:7a:b7:8a:
                    fe:00:14:1c:34:07:93:ad:68:d7:14:df:40:7a:1f:
                    d8:5b:5c:8e:cd:1a:d7:88:ee:f4:13:11:a6:75:5c:
                    90:94:e2:14:c3:10:54:e8:24:1c:21:09:9b:d7:5e:
                    cd:c5
                Exponent: 65537 (0x10001)
        X509v3 extensions:
            X509v3 Basic Constraints: 
                CA:FALSE
            X509v3 Subject Key Identifier: 
                82:AA:7C:30:D3:21:4B:2D:A5:52:D9:8F:D8:E6:85:F2:BC:19:09:D8
            X509v3 Authority Key Identifier: 
                keyid:78:D0:11:0A:28:20:61:A9:9F:69:ED:D2:C7:37:33:9D:A1:46:E6:64
                DirName:/CN=team44-net
                serial:47:D8:18:E8:9B:0D:92:B9:E5:85:36:3F:48:01:85:09:AB:3E:A0:08
            X509v3 Extended Key Usage: 
                TLS Web Server Authentication
            X509v3 Key Usage: 
                Digital Signature, Key Encipherment
            X509v3 Subject Alternative Name: 
                DNS:team44-server
    Signature Algorithm: sha256WithRSAEncryption
    Signature Value:
        40:8c:10:08:10:5c:a8:84:65:d1:35:f2:0f:9e:37:54:ff:7a:
        38:4c:3e:29:20:8c:99:b1:3d:bf:0b:d3:16:38:21:c9:71:15:
        43:5b:32:03:43:07:e4:83:c0:67:05:a9:a5:d0:af:a6:b5:e4:
        e8:0d:89:8c:e4:88:49:37:5e:2b:9b:c3:28:22:77:ea:3b:5c:
        f0:6a:f0:2a:6e:3f:c6:f3:53:51:17:c1:06:73:87:57:b2:27:
        ba:30:e1:e1:a7:57:f7:fd:57:43:01:68:e9:26:03:b3:d1:bd:
        51:6d:6e:db:00:0e:c9:83:a5:c8:f6:91:6f:d3:be:ef:96:5b:
        95:0a:5d:00:41:a3:4b:45:98:33:8b:1f:91:5f:d3:b4:4b:9b:
        7e:cc:3f:a7:09:70:ff:1a:9e:67:67:49:a5:25:a3:b1:29:58:
        af:85:c0:f2:13:ed:b7:1e:3b:87:3b:9b:15:31:cf:90:a6:01:
        da:af:4d:7d:a4:56:c1:ed:35:34:bf:88:6e:07:90:a4:52:e3:
        27:04:6c:d0:95:88:10:bd:9d:3f:bb:3b:62:ec:af:99:77:53:
        b3:db:64:83:78:2f:2a:ae:15:8a:be:94:d6:49:04:5a:5a:57:
        41:d4:62:1f:bd:be:69:98:64:0a:fd:08:3a:52:ad:3b:49:3a:
        38:52:b1:a1
-----BEGIN CERTIFICATE-----
MIIDdDCCAlygAwIBAgIRAJ0CvHgiRV+j9LUMLzheP30wDQYJKoZIhvcNAQELBQAw
FTETMBEGA1UEAwwKdGVhbTQ0LW5ldDAeFw0yMzExMDQxMTI4MTNaFw0yNjEwMTkx
MTI4MTNaMBgxFjAUBgNVBAMMDXRlYW00NC1zZXJ2ZXIwggEiMA0GCSqGSIb3DQEB
AQUAA4IBDwAwggEKAoIBAQDAdlzHbHBhdb0qZbvF3xHdABo5Vmerudkmq1D2SyBz
Txk1AAXrepXSc9NeW1/OGXzfdhd0gPolLqj7zEOcQJeEo6ToaCE6O4R5qZ/1g25E
hHsq1n9RuSslFONE59esD+4Cy49etjxjlw6iUK98lZjDQW0S43HYO9S26NQ+4fVy
WxEcZ1eRUV6aOLgl/oF1qUYiNzrOKgnS6I5rlWpPzBZJUsgPd77lt2Y1j9sJ6+ZW
O9633T4DyXFk0ue6UNEIl5IhA6ZVmWOCbRM+r6soe3q3iv4AFBw0B5OtaNcU30B6
H9hbXI7NGteI7vQTEaZ1XJCU4hTDEFToJBwhCZvXXs3FAgMBAAGjgbswgbgwCQYD
VR0TBAIwADAdBgNVHQ4EFgQUgqp8MNMhSy2lUtmP2OaF8rwZCdgwUAYDVR0jBEkw
R4AUeNARCiggYamfae3SxzcznaFG5mShGaQXMBUxEzARBgNVBAMMCnRlYW00NC1u
ZXSCFEfYGOibDZK55YU2P0gBhQmrPqAIMBMGA1UdJQQMMAoGCCsGAQUFBwMBMAsG
A1UdDwQEAwIFoDAYBgNVHREEETAPgg10ZWFtNDQtc2VydmVyMA0GCSqGSIb3DQEB
CwUAA4IBAQBAjBAIEFyohGXRNfIPnjdU/3o4TD4pIIyZsT2/C9MWOCHJcRVDWzID
Qwfkg8BnBaml0K+mteToDYmM5IhJN14rm8MoInfqO1zwavAqbj/G81NRF8EGc4dX
sie6MOHhp1f3/VdDAWjpJgOz0b1RbW7bAA7Jg6XI9pFv077vlluVCl0AQaNLRZgz
ix+RX9O0S5t+zD+nCXD/Gp5nZ0mlJaOxKVivhcDyE+23HjuHO5sVMc+QpgHar019
pFbB7TU0v4huB5CkUuMnBGzQlYgQvZ0/uzti7K+Zd1Oz22SDeC8qrhWKvpTWSQRa
WldB1GIfvb5pmGQK/Qg6Uq07STo4UrGh
-----END CERTIFICATE-----
