Certificate:
    Data:
        Version: 3 (0x2)
        Serial Number:
            c6:72:70:c1:40:b9:2a:cf:be:ec:1c:f5:0f:b1:00:37
        Signature Algorithm: sha256WithRSAEncryption
        Issuer: CN=team44-net
        Validity
            Not Before: Nov  4 11:28:13 2023 GMT
            Not After : Oct 19 11:28:13 2026 GMT
        Subject: CN=team44-client
        Subject Public Key Info:
            Public Key Algorithm: rsaEncryption
                Public-Key: (2048 bit)
                Modulus:
                    00:a6:06:75:61:fe:02:2a:f3:d7:63:b3:ab:19:83:
                    96:7c:56:1c:b4:88:f1:c9:c7:b0:df:10:8f:ed:84:
                    3e:27:db:79:72:34:e3:a6:d8:a7:4c:e4:3b:ce:32:
                    9b:5b:73:93:0b:a5:54:6f:aa:84:40:3a:d7:a1:59:
                    46:f8:69:46:17:64:b9:a3:56:2c:90:07:9c:b0:65:
                    f5:92:e0:20:b7:1a:6d:04:59:1d:13:d9:49:bf:b2:
                    c4:c6:e8:7e:c1:fc:4d:47:85:6d:cf:3f:d2:4b:1b:
                    d8:89:41:4d:7f:0f:83:98:bf:88:2e:a8:b9:99:73:
                    7c:85:ff:d6:75:2b:1a:3f:e8:af:41:e6:6b:2f:1e:
                    1c:51:58:3c:e7:ec:68:d0:00:12:2a:9b:08:6f:48:
                    f7:33:36:88:e6:dd:2e:ee:72:01:58:21:ed:ec:d7:
                    65:c2:b6:5d:9c:c9:e8:ac:a2:6c:3b:4f:94:fb:ae:
                    4a:bb:a0:7b:e3:ad:82:a1:48:ed:60:61:7a:00:f6:
                    b5:a1:d5:6f:61:43:18:1d:a4:8b:41:42:74:ea:39:
                    cd:7c:d1:44:31:ea:15:d2:e5:57:52:54:a5:5f:fd:
                    18:51:28:33:62:b6:5e:a7:f9:c3:ba:a3:f5:d6:92:
                    c2:d2:ad:49:1b:ce:05:fd:c9:98:d9:d9:b4:9b:c1:
                    4d:1d
                Exponent: 65537 (0x10001)
        X509v3 extensions:
            X509v3 Basic Constraints: 
                CA:FALSE
            X509v3 Subject Key Identifier: 
                F3:BD:22:04:4D:60:A7:06:25:27:A8:1E:3E:8B:FC:AD:7C:01:78:15
            X509v3 Authority Key Identifier: 
                keyid:78:D0:11:0A:28:20:61:A9:9F:69:ED:D2:C7:37:33:9D:A1:46:E6:64
                DirName:/CN=team44-net
                serial:47:D8:18:E8:9B:0D:92:B9:E5:85:36:3F:48:01:85:09:AB:3E:A0:08
            X509v3 Extended Key Usage: 
                TLS Web Client Authentication
            X509v3 Key Usage: 
                Digital Signature
    Signature Algorithm: sha256WithRSAEncryption
    Signature Value:
        42:c5:10:5f:41:f2:35:a6:44:16:94:e1:bd:22:6c:13:bf:7c:
        c0:a0:3a:e2:29:ef:a4:dd:35:18:ce:3c:4b:74:6f:6b:33:2e:
        45:7e:c4:79:73:7f:4e:05:8d:8c:29:0f:5a:a8:e7:7b:29:07:
        9e:55:b8:26:35:ae:f7:0c:43:7c:79:54:2a:8d:b1:8f:2a:40:
        f0:37:69:57:fd:87:b5:28:7e:b5:a5:d6:92:d6:ca:dd:49:80:
        15:1e:6c:d1:b8:b5:d4:39:70:48:14:8d:c5:38:b0:cc:2a:08:
        14:d8:3a:ac:46:f1:44:1b:c6:9f:0b:87:72:aa:1b:f1:95:ce:
        c9:3a:89:4a:bd:c1:b9:86:09:db:f0:d8:79:6d:2a:f8:59:c6:
        75:1a:d9:a1:d4:e5:32:f6:1c:e5:19:ca:16:45:14:b6:71:d0:
        c0:d3:95:e3:dd:42:02:09:99:d2:93:81:1f:05:d8:1a:c3:1f:
        ae:37:5a:6c:e3:0a:84:b4:c8:98:92:41:02:c7:fb:55:7d:d0:
        b0:37:2f:ab:3f:85:80:b7:e6:ad:79:0f:29:0c:8a:4c:3d:2b:
        b0:08:46:b8:14:67:fe:91:d7:89:d5:cc:05:f4:42:d4:d8:8d:
        32:1f:ec:b6:ac:37:11:3b:b1:56:12:c5:40:5f:31:16:69:20:
        2f:a1:a2:5e
-----BEGIN CERTIFICATE-----
MIIDWjCCAkKgAwIBAgIRAMZycMFAuSrPvuwc9Q+xADcwDQYJKoZIhvcNAQELBQAw
FTETMBEGA1UEAwwKdGVhbTQ0LW5ldDAeFw0yMzExMDQxMTI4MTNaFw0yNjEwMTkx
MTI4MTNaMBgxFjAUBgNVBAMMDXRlYW00NC1jbGllbnQwggEiMA0GCSqGSIb3DQEB
AQUAA4IBDwAwggEKAoIBAQCmBnVh/gIq89djs6sZg5Z8Vhy0iPHJx7DfEI/thD4n
23lyNOOm2KdM5DvOMptbc5MLpVRvqoRAOtehWUb4aUYXZLmjViyQB5ywZfWS4CC3
Gm0EWR0T2Um/ssTG6H7B/E1HhW3PP9JLG9iJQU1/D4OYv4guqLmZc3yF/9Z1Kxo/
6K9B5msvHhxRWDzn7GjQABIqmwhvSPczNojm3S7ucgFYIe3s12XCtl2cyeisomw7
T5T7rkq7oHvjrYKhSO1gYXoA9rWh1W9hQxgdpItBQnTqOc180UQx6hXS5VdSVKVf
/RhRKDNitl6n+cO6o/XWksLSrUkbzgX9yZjZ2bSbwU0dAgMBAAGjgaEwgZ4wCQYD
VR0TBAIwADAdBgNVHQ4EFgQU870iBE1gpwYlJ6gePov8rXwBeBUwUAYDVR0jBEkw
R4AUeNARCiggYamfae3SxzcznaFG5mShGaQXMBUxEzARBgNVBAMMCnRlYW00NC1u
ZXSCFEfYGOibDZK55YU2P0gBhQmrPqAIMBMGA1UdJQQMMAoGCCsGAQUFBwMCMAsG
A1UdDwQEAwIHgDANBgkqhkiG9w0BAQsFAAOCAQEAQsUQX0HyNaZEFpThvSJsE798
wKA64invpN01GM48S3RvazMuRX7EeXN/TgWNjCkPWqjneykHnlW4JjWu9wxDfHlU
Ko2xjypA8DdpV/2HtSh+taXWktbK3UmAFR5s0bi11DlwSBSNxTiwzCoIFNg6rEbx
RBvGnwuHcqob8ZXOyTqJSr3BuYYJ2/DYeW0q+FnGdRrZodTlMvYc5RnKFkUUtnHQ
wNOV491CAgmZ0pOBHwXYGsMfrjdabOMKhLTImJJBAsf7VX3QsDcvqz+FgLfmrXkP
KQyKTD0rsAhGuBRn/pHXidXMBfRC1NiNMh/stqw3ETuxVhLFQF8xFmkgL6GiXg==
-----END CERTIFICATE-----
