Certificate:
    Data:
        Version: 3 (0x2)
        Serial Number:
            e3:c1:bb:b4:8c:ac:77:21:1f:66:cd:00:4d:44:b6:0f
        Signature Algorithm: sha256WithRSAEncryption
        Issuer: CN=team44-net
        Validity
            Not Before: Nov  4 10:41:03 2023 GMT
            Not After : Oct 19 10:41:03 2026 GMT
        Subject: CN=team44-client
        Subject Public Key Info:
            Public Key Algorithm: rsaEncryption
                Public-Key: (2048 bit)
                Modulus:
                    00:a5:a8:36:e7:53:90:dc:13:7a:36:4d:88:65:4e:
                    a4:b7:f9:a3:b5:43:d8:df:ba:2f:16:e4:04:6a:95:
                    7a:09:3b:bb:5b:8b:5e:85:00:26:54:15:aa:dd:bc:
                    93:b4:6c:c2:06:e5:bb:b1:78:7d:26:bf:5f:83:d5:
                    00:ae:1f:f1:9f:13:a8:cb:be:5e:18:1d:54:cc:2e:
                    eb:07:f2:99:fe:d3:14:6a:28:08:65:23:ab:37:66:
                    d3:c5:31:b7:23:da:6f:5d:93:47:64:b2:8b:91:ad:
                    4f:85:d2:22:d2:86:dd:26:e5:7e:ff:1d:c1:26:bc:
                    85:1f:7a:f9:77:10:a5:3f:42:b3:24:0b:1f:9f:41:
                    cf:b6:ec:d6:84:16:20:34:9a:ee:d0:94:c6:46:27:
                    b1:09:8e:9e:88:dd:c6:a4:2b:0f:43:4d:a6:8b:e9:
                    47:26:75:17:03:40:71:28:81:00:3b:8c:ba:19:80:
                    4b:b9:d4:da:ec:0c:43:2a:f7:11:fa:4d:07:07:18:
                    b2:47:76:f6:6a:54:23:eb:44:de:71:9b:aa:58:d4:
                    a3:52:e1:1a:fe:3d:52:21:0e:13:a3:50:be:98:18:
                    10:ec:19:1d:f8:3e:c9:46:ec:0b:b2:23:0e:4a:05:
                    ae:37:52:e2:99:b8:cf:29:38:e5:89:6b:18:e2:65:
                    44:53
                Exponent: 65537 (0x10001)
        X509v3 extensions:
            X509v3 Basic Constraints: 
                CA:FALSE
            X509v3 Subject Key Identifier: 
                AB:9D:FF:45:B6:C1:22:1E:5C:18:38:E4:C8:C6:B2:34:69:64:0B:E7
            X509v3 Authority Key Identifier: 
                keyid:76:65:FC:FE:F3:25:F5:33:F7:63:E0:CE:0A:DA:64:90:E0:27:2F:3F
                DirName:/CN=team44-net
                serial:42:87:57:15:1C:06:B3:CE:E8:F8:29:A3:B4:DB:D5:51:CD:61:D9:F3
            X509v3 Extended Key Usage: 
                TLS Web Client Authentication
            X509v3 Key Usage: 
                Digital Signature
    Signature Algorithm: sha256WithRSAEncryption
    Signature Value:
        89:0f:a1:eb:9b:b2:58:81:ca:1c:8b:54:a0:8f:e5:33:04:72:
        4c:6a:b6:86:32:75:70:be:44:dd:7c:46:1c:9d:fd:de:38:17:
        23:b9:19:5d:d3:35:4a:2d:8d:56:f2:2d:9b:33:7a:d1:1c:49:
        42:07:9f:a6:83:ca:f2:cd:2d:09:35:a8:7d:5a:85:a8:5e:8c:
        b7:20:52:91:71:c0:0c:6b:c1:70:16:9e:db:c9:7d:8e:5c:0a:
        1d:1e:2b:23:de:74:eb:10:87:ce:a8:e4:ba:7d:a2:19:af:b4:
        ff:9a:94:29:c3:5a:39:b1:3c:cb:75:fe:09:d1:cb:31:2e:a2:
        15:86:65:1c:ed:ae:66:44:27:1e:ac:e9:a1:b5:90:ce:c5:4e:
        21:2b:14:a1:2c:ee:5d:a7:e3:4f:94:53:c8:5b:c9:20:4d:8f:
        ea:39:fe:4f:9f:f3:04:ca:5f:34:eb:1c:f7:5c:10:29:95:fa:
        0f:39:54:bb:b0:6b:6b:53:6c:bf:da:30:da:50:24:11:83:ba:
        77:50:5a:e3:62:98:99:c3:84:d3:67:88:7e:b5:88:49:81:2a:
        e6:6e:3a:04:70:99:4b:2f:c7:a2:7c:09:82:f1:e5:98:fc:50:
        4a:70:95:d8:62:e7:6f:5f:b4:af:9d:5f:43:41:c3:c6:2b:84:
        72:5a:21:94
-----BEGIN CERTIFICATE-----
MIIDWjCCAkKgAwIBAgIRAOPBu7SMrHchH2bNAE1Etg8wDQYJKoZIhvcNAQELBQAw
FTETMBEGA1UEAwwKdGVhbTQ0LW5ldDAeFw0yMzExMDQxMDQxMDNaFw0yNjEwMTkx
MDQxMDNaMBgxFjAUBgNVBAMMDXRlYW00NC1jbGllbnQwggEiMA0GCSqGSIb3DQEB
AQUAA4IBDwAwggEKAoIBAQClqDbnU5DcE3o2TYhlTqS3+aO1Q9jfui8W5ARqlXoJ
O7tbi16FACZUFardvJO0bMIG5buxeH0mv1+D1QCuH/GfE6jLvl4YHVTMLusH8pn+
0xRqKAhlI6s3ZtPFMbcj2m9dk0dksouRrU+F0iLSht0m5X7/HcEmvIUfevl3EKU/
QrMkCx+fQc+27NaEFiA0mu7QlMZGJ7EJjp6I3cakKw9DTaaL6UcmdRcDQHEogQA7
jLoZgEu51NrsDEMq9xH6TQcHGLJHdvZqVCPrRN5xm6pY1KNS4Rr+PVIhDhOjUL6Y
GBDsGR34PslG7AuyIw5KBa43UuKZuM8pOOWJaxjiZURTAgMBAAGjgaEwgZ4wCQYD
VR0TBAIwADAdBgNVHQ4EFgQUq53/RbbBIh5cGDjkyMayNGlkC+cwUAYDVR0jBEkw
R4AUdmX8/vMl9TP3Y+DOCtpkkOAnLz+hGaQXMBUxEzARBgNVBAMMCnRlYW00NC1u
ZXSCFEKHVxUcBrPO6Pgpo7Tb1VHNYdnzMBMGA1UdJQQMMAoGCCsGAQUFBwMCMAsG
A1UdDwQEAwIHgDANBgkqhkiG9w0BAQsFAAOCAQEAiQ+h65uyWIHKHItUoI/lMwRy
TGq2hjJ1cL5E3XxGHJ393jgXI7kZXdM1Si2NVvItmzN60RxJQgefpoPK8s0tCTWo
fVqFqF6MtyBSkXHADGvBcBae28l9jlwKHR4rI9506xCHzqjkun2iGa+0/5qUKcNa
ObE8y3X+CdHLMS6iFYZlHO2uZkQnHqzpobWQzsVOISsUoSzuXafjT5RTyFvJIE2P
6jn+T5/zBMpfNOsc91wQKZX6DzlUu7Bra1Nsv9ow2lAkEYO6d1Ba42KYmcOE02eI
frWISYEq5m46BHCZSy/HonwJgvHlmPxQSnCV2GLnb1+0r51fQ0HDxiuEclohlA==
-----END CERTIFICATE-----
