Certificate:
    Data:
        Version: 3 (0x2)
        Serial Number:
            eb:e3:53:56:11:21:45:47:a3:cc:67:67:09:9f:dd:fc
        Signature Algorithm: sha256WithRSAEncryption
        Issuer: CN=team184-net
        Validity
            Not Before: Nov  4 10:43:57 2023 GMT
            Not After : Oct 19 10:43:57 2026 GMT
        Subject: CN=team184-client
        Subject Public Key Info:
            Public Key Algorithm: rsaEncryption
                Public-Key: (2048 bit)
                Modulus:
                    00:8d:d7:c9:77:a3:d0:91:5e:31:f9:c9:39:d7:94:
                    d3:fb:aa:64:8b:7b:ab:9a:3b:4d:8a:a1:9b:1c:cc:
                    c6:cb:f2:e2:9b:fe:5a:13:3d:8e:11:82:57:61:8b:
                    4b:e9:b9:14:c3:10:bc:f5:44:f6:ff:c5:4a:9b:a1:
                    8c:8e:ec:7d:78:b4:92:de:bf:3c:85:74:df:71:72:
                    22:ab:06:9c:56:02:be:c9:68:41:84:a4:69:6c:88:
                    e0:78:d0:e4:fc:b6:72:21:0e:5d:6e:fa:53:73:0a:
                    dd:de:bc:84:a8:f9:4a:75:3a:77:ae:e8:e3:10:10:
                    c8:84:74:4e:ce:08:7b:ac:a4:c2:db:c4:64:63:ff:
                    c0:f9:81:98:bc:2b:a5:b1:31:d6:67:e3:77:71:5b:
                    ed:86:af:bd:50:64:0b:54:5a:12:c9:af:da:88:ad:
                    4e:bd:e6:86:16:91:0b:09:87:ea:b3:cc:25:4c:32:
                    52:c5:ef:fb:ca:a9:67:c2:46:c4:44:72:93:92:d6:
                    a5:55:eb:b7:f0:c9:cc:9f:f2:dd:6e:fa:55:2f:38:
                    69:54:a5:6d:49:45:53:70:cb:08:8d:9c:89:66:26:
                    e2:55:3b:05:37:e0:14:ed:45:80:c0:bf:c8:d4:ab:
                    07:64:af:67:2d:3f:a8:4d:ba:c9:aa:8f:60:b4:04:
                    91:fb
                Exponent: 65537 (0x10001)
        X509v3 extensions:
            X509v3 Basic Constraints: 
                CA:FALSE
            X509v3 Subject Key Identifier: 
                5F:38:43:97:E8:B8:0C:19:D5:FF:A2:95:71:2F:4E:D8:D7:7D:58:3C
            X509v3 Authority Key Identifier: 
                keyid:EB:DC:8E:4D:BC:32:D0:BA:EA:B7:CD:BF:6B:2A:08:A2:11:B1:4D:C1
                DirName:/CN=team184-net
                serial:24:3A:D7:1A:5F:95:3E:43:D2:3C:30:A6:5E:FE:32:43:D1:04:7F:24
            X509v3 Extended Key Usage: 
                TLS Web Client Authentication
            X509v3 Key Usage: 
                Digital Signature
    Signature Algorithm: sha256WithRSAEncryption
    Signature Value:
        14:4a:d6:f5:05:68:0a:43:8b:25:1f:d2:4e:d9:44:3e:83:fc:
        af:96:42:ad:00:67:37:7e:9d:7b:73:1a:a4:92:87:42:03:fb:
        87:bc:59:a8:9b:bc:b4:87:74:72:0a:0a:4d:ef:ae:eb:e1:44:
        26:c2:2e:51:98:f6:97:02:80:53:3f:8a:da:c5:18:90:a5:84:
        b6:c1:be:62:3c:00:39:79:08:c5:88:d2:6f:30:b4:2b:d0:86:
        57:5b:e5:c9:60:c4:31:f1:3c:da:a8:6e:ab:ec:9c:96:88:b9:
        13:fd:ad:ed:ef:79:cf:0d:2b:f8:23:48:33:6f:a6:ff:c5:ac:
        f6:5d:9a:cc:ef:f3:13:00:b1:fc:7d:fe:1b:ab:bc:1e:ad:3d:
        5d:e0:ec:11:f7:df:b3:23:c1:8e:94:3e:cd:27:82:3d:29:a1:
        36:14:f4:3d:17:b2:8e:28:b6:d8:c6:d1:ec:7b:20:bb:f1:98:
        77:7c:e1:fe:7b:27:94:c5:86:43:ee:a8:7c:f1:13:c6:b6:c1:
        5f:a2:47:fe:d0:90:8a:c2:58:ab:04:14:91:87:cf:ef:48:0d:
        ae:46:8c:eb:11:e5:8e:ef:18:c7:f3:82:46:90:e6:86:67:55:
        71:8c:e4:74:b5:6b:12:a7:07:e5:12:e5:59:ee:50:0d:5e:a2:
        60:66:34:55
-----BEGIN CERTIFICATE-----
MIIDXTCCAkWgAwIBAgIRAOvjU1YRIUVHo8xnZwmf3fwwDQYJKoZIhvcNAQELBQAw
FjEUMBIGA1UEAwwLdGVhbTE4NC1uZXQwHhcNMjMxMTA0MTA0MzU3WhcNMjYxMDE5
MTA0MzU3WjAZMRcwFQYDVQQDDA50ZWFtMTg0LWNsaWVudDCCASIwDQYJKoZIhvcN
AQEBBQADggEPADCCAQoCggEBAI3XyXej0JFeMfnJOdeU0/uqZIt7q5o7TYqhmxzM
xsvy4pv+WhM9jhGCV2GLS+m5FMMQvPVE9v/FSpuhjI7sfXi0kt6/PIV033FyIqsG
nFYCvsloQYSkaWyI4HjQ5Py2ciEOXW76U3MK3d68hKj5SnU6d67o4xAQyIR0Ts4I
e6ykwtvEZGP/wPmBmLwrpbEx1mfjd3Fb7YavvVBkC1RaEsmv2oitTr3mhhaRCwmH
6rPMJUwyUsXv+8qpZ8JGxERyk5LWpVXrt/DJzJ/y3W76VS84aVSlbUlFU3DLCI2c
iWYm4lU7BTfgFO1FgMC/yNSrB2SvZy0/qE26yaqPYLQEkfsCAwEAAaOBojCBnzAJ
BgNVHRMEAjAAMB0GA1UdDgQWBBRfOEOX6LgMGdX/opVxL07Y131YPDBRBgNVHSME
SjBIgBTr3I5NvDLQuuq3zb9rKgiiEbFNwaEapBgwFjEUMBIGA1UEAwwLdGVhbTE4
NC1uZXSCFCQ61xpflT5D0jwwpl7+MkPRBH8kMBMGA1UdJQQMMAoGCCsGAQUFBwMC
MAsGA1UdDwQEAwIHgDANBgkqhkiG9w0BAQsFAAOCAQEAFErW9QVoCkOLJR/STtlE
PoP8r5ZCrQBnN36de3MapJKHQgP7h7xZqJu8tId0cgoKTe+u6+FEJsIuUZj2lwKA
Uz+K2sUYkKWEtsG+YjwAOXkIxYjSbzC0K9CGV1vlyWDEMfE82qhuq+ycloi5E/2t
7e95zw0r+CNIM2+m/8Ws9l2azO/zEwCx/H3+G6u8Hq09XeDsEfffsyPBjpQ+zSeC
PSmhNhT0PReyjii22MbR7Hsgu/GYd3zh/nsnlMWGQ+6ofPETxrbBX6JH/tCQisJY
qwQUkYfP70gNrkaM6xHlju8Yx/OCRpDmhmdVcYzkdLVrEqcH5RLlWe5QDV6iYGY0
VQ==
-----END CERTIFICATE-----
