Certificate:
    Data:
        Version: 3 (0x2)
        Serial Number:
            fc:17:58:2a:06:c1:74:33:9f:aa:67:0f:f4:6c:70:e3
        Signature Algorithm: sha256WithRSAEncryption
        Issuer: CN=team184-net
        Validity
            Not Before: Nov  4 11:31:16 2023 GMT
            Not After : Oct 19 11:31:16 2026 GMT
        Subject: CN=team184-server
        Subject Public Key Info:
            Public Key Algorithm: rsaEncryption
                Public-Key: (2048 bit)
                Modulus:
                    00:8c:b4:2a:ec:8d:e3:15:1f:a2:af:a3:70:e6:1d:
                    0a:fd:99:5d:15:d0:5d:ec:e0:5e:4f:26:29:4e:0f:
                    5c:2e:54:88:f9:cb:5d:59:ca:20:e5:f8:b9:4d:2a:
                    80:59:16:fc:64:9a:e0:86:73:9a:0e:04:46:e0:da:
                    a1:5b:ff:ad:15:87:df:28:53:40:23:e8:d1:23:15:
                    b6:ec:6e:fc:9e:0f:08:bc:18:fd:14:ac:91:6a:a3:
                    55:fa:81:b2:37:55:18:60:18:c2:f1:9b:12:e7:b5:
                    ac:7d:1b:96:bc:c6:1e:79:d1:a7:be:74:89:a6:f0:
                    31:31:55:b1:cb:1a:c8:0a:42:f3:1f:9b:f8:b8:bc:
                    d2:de:ae:94:eb:56:83:49:53:09:7f:52:c6:b7:22:
                    d3:77:af:09:b0:5a:5a:eb:d6:0a:b2:f8:e1:bb:3a:
                    67:26:0b:06:ad:e4:71:31:b9:98:30:5d:d7:34:72:
                    a9:f7:2c:c6:f1:88:f4:e2:02:23:31:e9:ee:05:1d:
                    b2:93:04:b5:2c:cf:5a:28:1a:c3:98:9a:5e:86:f4:
                    57:dd:5d:4b:b7:39:df:d7:9f:73:31:15:4e:ed:2b:
                    64:65:f9:78:f3:02:35:87:5e:43:d1:db:cf:af:78:
                    04:3c:dd:34:72:0c:e8:f8:27:3d:d0:69:29:a1:b7:
                    81:0b
                Exponent: 65537 (0x10001)
        X509v3 extensions:
            X509v3 Basic Constraints: 
                CA:FALSE
            X509v3 Subject Key Identifier: 
                F5:82:AC:22:4C:29:FD:B7:8D:02:9D:23:9F:5E:8C:62:58:26:39:6D
            X509v3 Authority Key Identifier: 
                keyid:A8:60:8B:5D:4E:E6:24:15:25:AA:51:A6:BE:8A:12:D7:6A:09:66:F9
                DirName:/CN=team184-net
                serial:18:D5:98:C4:0C:24:5D:DB:A6:8E:83:8A:C8:01:C3:1E:5C:F1:8F:61
            X509v3 Extended Key Usage: 
                TLS Web Server Authentication
            X509v3 Key Usage: 
                Digital Signature, Key Encipherment
            X509v3 Subject Alternative Name: 
                DNS:team184-server
    Signature Algorithm: sha256WithRSAEncryption
    Signature Value:
        a1:0e:90:5c:28:bd:d0:01:d4:bf:42:60:76:55:ab:94:23:b6:
        46:63:dd:55:8f:f6:45:06:90:e9:9a:00:a2:e1:0a:2e:30:f4:
        66:9b:8e:37:f7:d7:40:3e:2c:bc:44:df:27:08:2d:9f:56:d7:
        cc:6e:d5:56:d6:6e:07:95:d3:3d:a7:59:ce:17:7f:e1:79:ff:
        97:99:c3:9f:3f:b3:96:9a:34:56:99:76:ee:be:b0:3c:66:55:
        71:af:15:be:66:8e:73:c8:01:1c:5f:05:c0:59:ed:40:0d:b9:
        4e:12:35:33:ae:9d:9f:9b:78:fa:d7:63:09:91:bb:56:95:24:
        ad:74:4f:cb:ad:34:b3:c4:2b:94:2c:fa:d9:22:f7:c0:46:b2:
        71:91:75:62:93:16:b7:e0:21:71:2d:b9:2b:f8:c0:00:b9:dc:
        7b:06:6a:58:86:66:50:17:46:90:81:19:66:10:1d:93:e7:92:
        25:68:c8:73:56:88:58:28:61:ec:77:0d:bc:ec:40:44:17:c0:
        e8:17:d9:23:33:11:71:fb:ee:fc:26:5d:e4:2b:eb:50:4c:ea:
        4a:3c:81:1c:71:e6:78:f7:28:36:33:80:00:93:08:ec:b3:55:
        64:4d:39:de:86:8d:6d:13:f3:72:ef:71:87:e6:32:d4:b0:7a:
        19:4c:ab:09
-----BEGIN CERTIFICATE-----
MIIDeDCCAmCgAwIBAgIRAPwXWCoGwXQzn6pnD/RscOMwDQYJKoZIhvcNAQELBQAw
FjEUMBIGA1UEAwwLdGVhbTE4NC1uZXQwHhcNMjMxMTA0MTEzMTE2WhcNMjYxMDE5
MTEzMTE2WjAZMRcwFQYDVQQDDA50ZWFtMTg0LXNlcnZlcjCCASIwDQYJKoZIhvcN
AQEBBQADggEPADCCAQoCggEBAIy0KuyN4xUfoq+jcOYdCv2ZXRXQXezgXk8mKU4P
XC5UiPnLXVnKIOX4uU0qgFkW/GSa4IZzmg4ERuDaoVv/rRWH3yhTQCPo0SMVtuxu
/J4PCLwY/RSskWqjVfqBsjdVGGAYwvGbEue1rH0blrzGHnnRp750iabwMTFVscsa
yApC8x+b+Li80t6ulOtWg0lTCX9Sxrci03evCbBaWuvWCrL44bs6ZyYLBq3kcTG5
mDBd1zRyqfcsxvGI9OICIzHp7gUdspMEtSzPWigaw5iaXob0V91dS7c539efczEV
Tu0rZGX5ePMCNYdeQ9Hbz694BDzdNHIM6PgnPdBpKaG3gQsCAwEAAaOBvTCBujAJ
BgNVHRMEAjAAMB0GA1UdDgQWBBT1gqwiTCn9t40CnSOfXoxiWCY5bTBRBgNVHSME
SjBIgBSoYItdTuYkFSWqUaa+ihLXaglm+aEapBgwFjEUMBIGA1UEAwwLdGVhbTE4
NC1uZXSCFBjVmMQMJF3bpo6DisgBwx5c8Y9hMBMGA1UdJQQMMAoGCCsGAQUFBwMB
MAsGA1UdDwQEAwIFoDAZBgNVHREEEjAQgg50ZWFtMTg0LXNlcnZlcjANBgkqhkiG
9w0BAQsFAAOCAQEAoQ6QXCi90AHUv0JgdlWrlCO2RmPdVY/2RQaQ6ZoAouEKLjD0
ZpuON/fXQD4svETfJwgtn1bXzG7VVtZuB5XTPadZzhd/4Xn/l5nDnz+zlpo0Vpl2
7r6wPGZVca8VvmaOc8gBHF8FwFntQA25ThI1M66dn5t4+tdjCZG7VpUkrXRPy600
s8QrlCz62SL3wEaycZF1YpMWt+AhcS25K/jAALncewZqWIZmUBdGkIEZZhAdk+eS
JWjIc1aIWChh7HcNvOxARBfA6BfZIzMRcfvu/CZd5CvrUEzqSjyBHHHmePcoNjOA
AJMI7LNVZE053oaNbRPzcu9xh+Yy1LB6GUyrCQ==
-----END CERTIFICATE-----
