Certificate:
    Data:
        Version: 3 (0x2)
        Serial Number:
            96:9d:63:1f:15:63:d2:36:ee:97:bb:c2:66:38:89:38
        Signature Algorithm: sha256WithRSAEncryption
        Issuer: CN=team119-net
        Validity
            Not Before: Nov  3 20:41:16 2023 GMT
            Not After : Oct 18 20:41:16 2026 GMT
        Subject: CN=team119-server
        Subject Public Key Info:
            Public Key Algorithm: rsaEncryption
                Public-Key: (2048 bit)
                Modulus:
                    00:9c:6e:b6:77:96:0f:02:4f:a7:01:7d:4f:25:b3:
                    f8:4d:ff:a4:e5:c5:91:43:ce:0e:c4:99:2e:c5:9a:
                    3a:74:bb:99:42:10:2b:a8:3c:2f:b6:8e:86:7f:e4:
                    07:4f:c1:da:8b:7b:48:80:3e:0b:0d:71:d7:8a:85:
                    7c:03:ca:f4:e8:4f:5e:5a:c7:bc:4e:b9:2e:03:d1:
                    f7:e8:db:e4:a2:2c:bd:7e:e0:25:57:a3:49:2a:3d:
                    8f:d3:c7:9c:2f:66:2f:8f:90:03:c0:4c:85:7d:dd:
                    87:9c:5e:f4:2a:68:16:6c:66:87:9c:1a:55:46:c2:
                    c3:18:30:15:90:55:39:38:6e:9c:b9:5e:0e:37:31:
                    8a:35:c1:69:8f:27:fc:7e:4d:fe:da:7c:57:de:33:
                    43:7b:28:80:a1:d0:00:76:d0:59:54:10:45:a8:2d:
                    59:49:0a:ae:f3:4d:c7:ee:c0:56:ad:9f:27:d4:cf:
                    91:23:12:e5:6d:ad:3d:55:35:22:27:ee:c6:7b:54:
                    9e:c1:f3:e4:58:d9:87:4e:8f:64:04:de:87:58:e5:
                    b2:0e:66:6a:8a:0b:b2:d9:9d:56:be:18:52:6b:95:
                    e9:d2:d2:be:98:94:e1:04:f9:47:75:46:88:e0:9e:
                    70:3e:74:28:30:0d:cf:6d:4f:e6:3c:23:b6:c7:5b:
                    04:f5
                Exponent: 65537 (0x10001)
        X509v3 extensions:
            X509v3 Basic Constraints: 
                CA:FALSE
            X509v3 Subject Key Identifier: 
                FE:34:AC:3D:EE:68:9B:3B:AF:FE:2D:E7:39:03:86:66:F7:C3:30:4C
            X509v3 Authority Key Identifier: 
                keyid:B9:4B:BC:0D:5D:BA:66:5F:5A:08:61:F3:B2:FC:25:DD:DA:0F:D8:B5
                DirName:/CN=team119-net
                serial:6B:75:A1:CE:0C:A1:D7:09:DC:96:16:04:98:02:29:FA:E3:42:18:43
            X509v3 Extended Key Usage: 
                TLS Web Server Authentication
            X509v3 Key Usage: 
                Digital Signature, Key Encipherment
            X509v3 Subject Alternative Name: 
                DNS:team119-server
    Signature Algorithm: sha256WithRSAEncryption
    Signature Value:
        9d:31:2f:31:e8:b8:65:e0:98:85:82:a1:f1:e9:a0:dd:ee:34:
        2b:1b:16:eb:fa:99:09:ad:9a:74:43:dc:35:0a:67:fb:5f:76:
        e9:c8:d6:d0:93:31:d2:b8:de:3c:f8:08:72:8a:35:f7:2f:9d:
        be:be:d6:13:f4:ae:88:5d:5e:d0:bd:5f:fb:d8:35:1c:f0:eb:
        4d:f7:88:be:b6:6f:57:43:cf:dc:09:ba:7f:9b:2d:89:06:d0:
        7b:8c:36:8f:a4:e7:7a:03:a6:99:86:41:44:42:b8:13:91:e5:
        86:a3:b9:c3:b3:2d:6b:4c:1e:49:e6:21:28:b5:5f:96:71:a8:
        31:68:1a:61:fa:3b:93:64:60:6e:ab:a4:ea:1f:4d:eb:75:ad:
        6f:02:53:35:98:6e:8b:c1:e6:4b:6c:07:dd:a5:85:57:0a:8a:
        52:35:ed:79:4e:51:fc:28:95:8b:c9:60:5d:a7:dd:08:35:d2:
        c0:c5:ae:51:fc:f3:e6:74:ba:62:a0:6b:3c:17:17:24:a2:1c:
        a6:39:34:99:6b:e0:9a:2d:7b:36:d0:6f:c3:5f:08:92:13:2c:
        1a:74:b8:77:f1:fe:63:6f:49:b1:87:2f:d1:2d:18:e7:f5:85:
        a5:b2:6f:d9:08:c2:55:c4:45:8c:f3:10:68:4e:12:8d:83:cd:
        8c:c0:2d:c4
-----BEGIN CERTIFICATE-----
MIIDeDCCAmCgAwIBAgIRAJadYx8VY9I27pe7wmY4iTgwDQYJKoZIhvcNAQELBQAw
FjEUMBIGA1UEAwwLdGVhbTExOS1uZXQwHhcNMjMxMTAzMjA0MTE2WhcNMjYxMDE4
MjA0MTE2WjAZMRcwFQYDVQQDDA50ZWFtMTE5LXNlcnZlcjCCASIwDQYJKoZIhvcN
AQEBBQADggEPADCCAQoCggEBAJxutneWDwJPpwF9TyWz+E3/pOXFkUPODsSZLsWa
OnS7mUIQK6g8L7aOhn/kB0/B2ot7SIA+Cw1x14qFfAPK9OhPXlrHvE65LgPR9+jb
5KIsvX7gJVejSSo9j9PHnC9mL4+QA8BMhX3dh5xe9CpoFmxmh5waVUbCwxgwFZBV
OThunLleDjcxijXBaY8n/H5N/tp8V94zQ3sogKHQAHbQWVQQRagtWUkKrvNNx+7A
Vq2fJ9TPkSMS5W2tPVU1IifuxntUnsHz5FjZh06PZATeh1jlsg5maooLstmdVr4Y
UmuV6dLSvpiU4QT5R3VGiOCecD50KDANz21P5jwjtsdbBPUCAwEAAaOBvTCBujAJ
BgNVHRMEAjAAMB0GA1UdDgQWBBT+NKw97mibO6/+Lec5A4Zm98MwTDBRBgNVHSME
SjBIgBS5S7wNXbpmX1oIYfOy/CXd2g/YtaEapBgwFjEUMBIGA1UEAwwLdGVhbTEx
OS1uZXSCFGt1oc4ModcJ3JYWBJgCKfrjQhhDMBMGA1UdJQQMMAoGCCsGAQUFBwMB
MAsGA1UdDwQEAwIFoDAZBgNVHREEEjAQgg50ZWFtMTE5LXNlcnZlcjANBgkqhkiG
9w0BAQsFAAOCAQEAnTEvMei4ZeCYhYKh8emg3e40KxsW6/qZCa2adEPcNQpn+192
6cjW0JMx0rjePPgIcoo19y+dvr7WE/SuiF1e0L1f+9g1HPDrTfeIvrZvV0PP3Am6
f5stiQbQe4w2j6TnegOmmYZBREK4E5HlhqO5w7Mta0weSeYhKLVflnGoMWgaYfo7
k2Rgbquk6h9N63WtbwJTNZhui8HmS2wH3aWFVwqKUjXteU5R/CiVi8lgXafdCDXS
wMWuUfzz5nS6YqBrPBcXJKIcpjk0mWvgmi17NtBvw18IkhMsGnS4d/H+Y29JsYcv
0S0Y5/WFpbJv2QjCVcRFjPMQaE4SjYPNjMAtxA==
-----END CERTIFICATE-----
