Certificate:
    Data:
        Version: 3 (0x2)
        Serial Number:
            3d:c6:cd:4c:c6:36:46:c2:fe:30:88:73:fd:51:db:4d
        Signature Algorithm: sha256WithRSAEncryption
        Issuer: CN=team379-net
        Validity
            Not Before: Nov  4 10:47:30 2023 GMT
            Not After : Oct 19 10:47:30 2026 GMT
        Subject: CN=team379-server
        Subject Public Key Info:
            Public Key Algorithm: rsaEncryption
                Public-Key: (2048 bit)
                Modulus:
                    00:85:f9:7a:f4:05:1f:13:2c:ce:52:81:4d:90:1e:
                    36:ab:12:01:1a:1e:1f:86:f3:bc:a3:cd:51:9b:c3:
                    92:7f:b6:bc:d4:d9:b6:0c:ba:6b:d1:fd:6f:9e:6c:
                    6b:b0:e6:7e:c7:8b:a5:c2:da:11:ad:1a:0c:a2:3d:
                    04:5a:14:4c:a3:a8:89:98:8c:d1:f1:20:82:d9:f6:
                    2d:9f:6e:8c:c0:44:35:47:dd:10:de:99:c9:3b:ee:
                    a0:fb:a9:00:fc:15:fc:37:dd:55:26:53:45:b6:f2:
                    47:5b:54:9d:9b:e6:fc:a6:93:00:0c:2c:2b:c1:a6:
                    37:10:4c:3b:e3:b6:06:fd:f0:d2:0d:65:42:a0:5a:
                    3a:e8:d3:fa:f7:17:06:a9:db:12:d8:ae:a4:e9:37:
                    3f:f5:cf:0b:56:4c:f6:87:50:b7:64:4b:ce:69:60:
                    e1:e2:6e:07:ec:0a:c6:c0:1c:2e:4c:fe:3a:4d:fa:
                    58:7c:df:01:1b:a4:46:70:64:47:c2:97:3b:fc:e1:
                    b5:b8:2d:fd:47:ed:86:13:f4:63:f0:3d:8b:a8:26:
                    a4:fd:19:85:66:44:e9:78:2d:ae:4e:9f:bc:8b:7c:
                    f6:35:38:17:6d:9a:93:d1:7a:69:ca:7e:08:09:7f:
                    85:7a:fa:b1:be:bd:6c:57:a9:18:04:16:43:02:df:
                    35:c7
                Exponent: 65537 (0x10001)
        X509v3 extensions:
            X509v3 Basic Constraints: 
                CA:FALSE
            X509v3 Subject Key Identifier: 
                CE:9C:80:CF:2A:11:E6:37:C9:86:91:78:72:9E:59:05:DC:19:0B:2D
            X509v3 Authority Key Identifier: 
                keyid:5B:85:9F:4E:98:B0:3A:90:EC:72:7F:88:25:91:19:62:F4:4B:62:65
                DirName:/CN=team379-net
                serial:79:4F:43:F7:18:3D:46:FA:18:90:6C:7D:A6:F0:73:28:81:75:70:D4
            X509v3 Extended Key Usage: 
                TLS Web Server Authentication
            X509v3 Key Usage: 
                Digital Signature, Key Encipherment
            X509v3 Subject Alternative Name: 
                DNS:team379-server
    Signature Algorithm: sha256WithRSAEncryption
    Signature Value:
        2d:4a:8a:e4:a1:78:44:a2:fd:59:77:42:5c:2e:10:86:94:f8:
        31:03:4f:43:f4:18:88:9c:c4:f1:a7:e2:b9:23:2b:29:19:26:
        21:6a:05:5b:e3:84:95:62:07:b5:f9:01:55:c5:6d:da:32:c4:
        7d:5b:0b:66:e6:c6:99:35:4a:16:1c:20:f7:47:5d:56:04:eb:
        0a:ee:d5:cf:8e:13:4d:7f:07:70:8d:e9:5e:91:4a:88:7c:a2:
        b3:0a:ef:7c:24:6d:6e:c5:ff:a5:5a:58:3f:8d:99:c1:f8:76:
        7e:0e:01:36:cf:ee:25:e2:1c:33:06:3d:3c:13:93:a4:4a:05:
        e7:b8:a7:d9:4c:50:0d:74:f5:78:03:1b:a0:39:5e:40:57:87:
        0b:1e:d7:44:b6:b6:a8:be:b5:3f:f7:7f:7c:b8:b1:da:92:7d:
        1d:a0:51:4e:97:d3:5f:3b:af:fe:6e:7d:b7:ee:ce:2e:85:e8:
        25:c3:71:9b:ec:ea:22:2d:79:84:c4:86:b8:3b:7a:cd:ff:c4:
        fb:5e:28:c8:5e:0a:a9:20:71:b4:d9:c9:e3:5c:26:9c:9b:4e:
        4e:8d:29:7b:f3:c0:84:8d:55:ca:59:fa:3e:d9:a1:05:9f:ce:
        92:e1:bb:ae:96:e1:5c:0d:97:0c:00:b1:a7:9e:e7:91:e3:db:
        30:38:ff:89
-----BEGIN CERTIFICATE-----
MIIDdzCCAl+gAwIBAgIQPcbNTMY2RsL+MIhz/VHbTTANBgkqhkiG9w0BAQsFADAW
MRQwEgYDVQQDDAt0ZWFtMzc5LW5ldDAeFw0yMzExMDQxMDQ3MzBaFw0yNjEwMTkx
MDQ3MzBaMBkxFzAVBgNVBAMMDnRlYW0zNzktc2VydmVyMIIBIjANBgkqhkiG9w0B
AQEFAAOCAQ8AMIIBCgKCAQEAhfl69AUfEyzOUoFNkB42qxIBGh4fhvO8o81Rm8OS
f7a81Nm2DLpr0f1vnmxrsOZ+x4ulwtoRrRoMoj0EWhRMo6iJmIzR8SCC2fYtn26M
wEQ1R90Q3pnJO+6g+6kA/BX8N91VJlNFtvJHW1Sdm+b8ppMADCwrwaY3EEw747YG
/fDSDWVCoFo66NP69xcGqdsS2K6k6Tc/9c8LVkz2h1C3ZEvOaWDh4m4H7ArGwBwu
TP46TfpYfN8BG6RGcGRHwpc7/OG1uC39R+2GE/Rj8D2LqCak/RmFZkTpeC2uTp+8
i3z2NTgXbZqT0Xppyn4ICX+Fevqxvr1sV6kYBBZDAt81xwIDAQABo4G9MIG6MAkG
A1UdEwQCMAAwHQYDVR0OBBYEFM6cgM8qEeY3yYaReHKeWQXcGQstMFEGA1UdIwRK
MEiAFFuFn06YsDqQ7HJ/iCWRGWL0S2JloRqkGDAWMRQwEgYDVQQDDAt0ZWFtMzc5
LW5ldIIUeU9D9xg9RvoYkGx9pvBzKIF1cNQwEwYDVR0lBAwwCgYIKwYBBQUHAwEw
CwYDVR0PBAQDAgWgMBkGA1UdEQQSMBCCDnRlYW0zNzktc2VydmVyMA0GCSqGSIb3
DQEBCwUAA4IBAQAtSorkoXhEov1Zd0JcLhCGlPgxA09D9BiInMTxp+K5IyspGSYh
agVb44SVYge1+QFVxW3aMsR9Wwtm5saZNUoWHCD3R11WBOsK7tXPjhNNfwdwjele
kUqIfKKzCu98JG1uxf+lWlg/jZnB+HZ+DgE2z+4l4hwzBj08E5OkSgXnuKfZTFAN
dPV4AxugOV5AV4cLHtdEtraovrU/9398uLHakn0doFFOl9NfO6/+bn237s4uhegl
w3Gb7OoiLXmExIa4O3rN/8T7XijIXgqpIHG02cnjXCacm05OjSl788CEjVXKWfo+
2aEFn86S4buuluFcDZcMALGnnueR49swOP+J
-----END CERTIFICATE-----
