Certificate:
    Data:
        Version: 3 (0x2)
        Serial Number:
            db:da:2f:8b:64:ca:4f:d8:36:c5:a3:40:32:e6:a0:2d
        Signature Algorithm: sha256WithRSAEncryption
        Issuer: CN=team379-net
        Validity
            Not Before: Nov  4 11:36:00 2023 GMT
            Not After : Oct 19 11:36:00 2026 GMT
        Subject: CN=team379-client
        Subject Public Key Info:
            Public Key Algorithm: rsaEncryption
                Public-Key: (2048 bit)
                Modulus:
                    00:cd:d1:ef:99:31:a0:9f:e4:8d:37:9e:ae:c9:b3:
                    84:a9:6c:79:0b:e0:97:62:ec:4d:30:56:d2:23:41:
                    9c:3a:22:4a:ec:41:9a:fa:62:1f:6c:03:2a:81:91:
                    6a:17:9f:b5:45:06:79:89:7e:06:8f:4e:fe:76:f5:
                    7c:49:21:d2:fd:56:48:6c:85:39:0b:a1:c0:27:22:
                    1e:ea:65:e3:d2:2c:7c:a2:da:9d:c3:89:f3:4a:f1:
                    96:92:a3:42:c3:2a:c5:0e:0a:d1:c4:b7:ab:d2:a4:
                    c4:b0:b2:ff:2d:eb:79:60:99:29:aa:56:c7:a4:cf:
                    b0:70:74:c6:a3:97:80:6c:59:f8:0d:6d:8a:6c:e0:
                    a1:86:29:d3:e6:9a:7e:aa:cc:ed:38:52:7d:c7:a2:
                    68:a6:58:ae:d5:e9:a8:a1:98:a2:97:3f:ce:8b:c4:
                    d9:47:fd:9e:b4:dc:60:d8:3f:19:ee:8a:97:74:a9:
                    d2:3e:bc:00:c1:64:82:0c:cd:7e:92:94:43:43:c5:
                    fd:4f:0a:50:f9:8c:0e:84:15:7d:07:1e:5e:98:c8:
                    51:dd:7f:c3:a6:dd:13:24:c6:43:47:ee:ec:f4:f2:
                    32:76:52:34:b1:95:51:81:09:ab:fd:46:85:96:2b:
                    b2:fb:21:0d:e3:60:5a:87:ec:ee:fe:f0:57:bd:96:
                    86:93
                Exponent: 65537 (0x10001)
        X509v3 extensions:
            X509v3 Basic Constraints: 
                CA:FALSE
            X509v3 Subject Key Identifier: 
                A5:85:17:33:11:29:77:84:49:A5:92:2A:18:65:75:99:6D:3F:35:C9
            X509v3 Authority Key Identifier: 
                keyid:9C:D0:0C:20:BD:26:BC:C9:5A:07:D3:01:53:21:F7:24:3E:94:4D:40
                DirName:/CN=team379-net
                serial:7F:76:17:9C:39:68:FA:F1:FF:7E:06:71:A0:38:44:4F:AB:37:34:FF
            X509v3 Extended Key Usage: 
                TLS Web Client Authentication
            X509v3 Key Usage: 
                Digital Signature
    Signature Algorithm: sha256WithRSAEncryption
    Signature Value:
        81:e5:3e:94:5d:46:c5:95:db:47:a1:95:24:17:1c:cb:95:9c:
        66:98:43:60:46:6b:7c:b9:6e:18:e2:77:70:79:a5:f5:be:d7:
        d5:29:86:d6:43:7d:e9:94:60:6b:2c:d3:78:a3:93:21:f6:c8:
        b5:94:3b:d2:10:df:a6:cd:d5:76:14:6c:57:bd:ec:1b:81:4f:
        11:c8:58:8a:c8:1d:d0:cd:da:ca:5b:d6:ce:c5:a4:0b:fa:a7:
        ca:fa:5d:17:66:a3:4d:2e:5b:5d:43:ef:22:82:c5:52:06:8f:
        7a:51:cd:35:f5:b7:dc:10:70:c4:03:8e:41:56:f6:64:ac:f5:
        14:0d:2c:10:13:03:68:db:1b:c7:0d:6f:e7:9e:4e:f9:01:98:
        96:30:aa:73:69:5e:21:5a:8c:df:11:9b:23:96:13:a9:73:95:
        c5:de:a7:88:b9:44:08:ab:f2:8d:d8:e8:d7:db:5e:02:67:7a:
        bc:1c:0c:6a:fe:e1:61:97:0f:62:74:5b:de:7b:24:01:ab:83:
        f3:8d:69:4d:b5:fe:01:d8:9b:06:11:7f:4a:bf:b2:5a:b1:dc:
        ef:23:e0:f8:e5:e0:d8:4e:eb:b7:44:cf:99:44:e2:29:ea:b5:
        a6:24:61:d2:49:3a:96:2d:7f:b5:53:ec:4f:15:34:b0:e4:1b:
        96:f5:2a:d1
-----BEGIN CERTIFICATE-----
MIIDXTCCAkWgAwIBAgIRANvaL4tkyk/YNsWjQDLmoC0wDQYJKoZIhvcNAQELBQAw
FjEUMBIGA1UEAwwLdGVhbTM3OS1uZXQwHhcNMjMxMTA0MTEzNjAwWhcNMjYxMDE5
MTEzNjAwWjAZMRcwFQYDVQQDDA50ZWFtMzc5LWNsaWVudDCCASIwDQYJKoZIhvcN
AQEBBQADggEPADCCAQoCggEBAM3R75kxoJ/kjTeersmzhKlseQvgl2LsTTBW0iNB
nDoiSuxBmvpiH2wDKoGRaheftUUGeYl+Bo9O/nb1fEkh0v1WSGyFOQuhwCciHupl
49IsfKLancOJ80rxlpKjQsMqxQ4K0cS3q9KkxLCy/y3reWCZKapWx6TPsHB0xqOX
gGxZ+A1timzgoYYp0+aafqrM7ThSfceiaKZYrtXpqKGYopc/zovE2Uf9nrTcYNg/
Ge6Kl3Sp0j68AMFkggzNfpKUQ0PF/U8KUPmMDoQVfQceXpjIUd1/w6bdEyTGQ0fu
7PTyMnZSNLGVUYEJq/1GhZYrsvshDeNgWofs7v7wV72WhpMCAwEAAaOBojCBnzAJ
BgNVHRMEAjAAMB0GA1UdDgQWBBSlhRczESl3hEmlkioYZXWZbT81yTBRBgNVHSME
SjBIgBSc0AwgvSa8yVoH0wFTIfckPpRNQKEapBgwFjEUMBIGA1UEAwwLdGVhbTM3
OS1uZXSCFH92F5w5aPrx/34GcaA4RE+rNzT/MBMGA1UdJQQMMAoGCCsGAQUFBwMC
MAsGA1UdDwQEAwIHgDANBgkqhkiG9w0BAQsFAAOCAQEAgeU+lF1GxZXbR6GVJBcc
y5WcZphDYEZrfLluGOJ3cHml9b7X1SmG1kN96ZRgayzTeKOTIfbItZQ70hDfps3V
dhRsV73sG4FPEchYisgd0M3aylvWzsWkC/qnyvpdF2ajTS5bXUPvIoLFUgaPelHN
NfW33BBwxAOOQVb2ZKz1FA0sEBMDaNsbxw1v555O+QGYljCqc2leIVqM3xGbI5YT
qXOVxd6niLlECKvyjdjo19teAmd6vBwMav7hYZcPYnRb3nskAauD841pTbX+Adib
BhF/Sr+yWrHc7yPg+OXg2E7rt0TPmUTiKeq1piRh0kk6li1/tVPsTxU0sOQblvUq
0Q==
-----END CERTIFICATE-----
