Certificate:
    Data:
        Version: 3 (0x2)
        Serial Number:
            46:33:b2:90:98:4e:e6:49:0f:a6:eb:a5:fa:be:dc:68
        Signature Algorithm: sha256WithRSAEncryption
        Issuer: CN=team12-net
        Validity
            Not Before: Nov  3 20:39:29 2023 GMT
            Not After : Oct 18 20:39:29 2026 GMT
        Subject: CN=team12-server
        Subject Public Key Info:
            Public Key Algorithm: rsaEncryption
                Public-Key: (2048 bit)
                Modulus:
                    00:d4:17:10:f3:23:41:6a:38:3a:7b:33:75:b1:f1:
                    39:73:4d:73:02:94:62:1a:c5:39:34:0a:c5:dc:d6:
                    a1:a5:67:70:1b:80:70:15:26:30:7c:7e:ae:2d:de:
                    6c:11:d5:9b:74:d0:6e:f8:24:78:2f:a6:1f:e7:4d:
                    bb:ff:78:b6:17:44:4a:35:ae:08:ff:da:66:bc:21:
                    80:bd:d3:73:12:8f:d6:31:ac:11:b4:5c:9b:15:27:
                    71:e3:53:18:21:9b:58:cf:02:e9:27:b5:8a:b1:6e:
                    3a:41:7a:2f:27:be:d0:71:6a:a8:9b:47:4c:33:f7:
                    f7:87:cd:27:0d:fb:f4:7c:60:5a:cc:3d:29:36:c7:
                    53:1e:cd:82:64:4b:a0:3d:c4:a6:5b:15:4b:c0:da:
                    be:cc:84:32:a3:9b:90:74:f6:7b:19:9a:6f:7f:1d:
                    86:2e:59:64:18:73:66:32:84:87:ad:ce:5a:29:e6:
                    62:11:a9:ac:e1:19:89:fd:be:ca:4a:a7:59:a0:b5:
                    84:e5:7b:b2:2f:93:9d:27:3f:07:07:65:bb:c5:78:
                    9c:2a:34:fa:71:df:1f:55:f1:fa:c8:75:53:07:b8:
                    22:9e:97:7c:2b:9a:68:c7:1f:e6:69:06:7f:e9:83:
                    43:fe:f5:1e:23:f4:a6:81:28:b0:c1:41:a0:95:65:
                    49:37
                Exponent: 65537 (0x10001)
        X509v3 extensions:
            X509v3 Basic Constraints: 
                CA:FALSE
            X509v3 Subject Key Identifier: 
                C9:3A:05:52:00:DB:15:D6:9B:AA:95:FE:6F:36:79:C6:28:6B:25:86
            X509v3 Authority Key Identifier: 
                keyid:4B:80:E5:EA:B1:F2:97:6C:52:26:05:29:14:CB:90:56:F8:79:F0:17
                DirName:/CN=team12-net
                serial:61:17:4D:81:41:12:7E:23:30:01:7A:2D:36:19:C0:F9:AA:C8:1D:74
            X509v3 Extended Key Usage: 
                TLS Web Server Authentication
            X509v3 Key Usage: 
                Digital Signature, Key Encipherment
            X509v3 Subject Alternative Name: 
                DNS:team12-server
    Signature Algorithm: sha256WithRSAEncryption
    Signature Value:
        1f:1d:21:60:b5:ab:62:0b:cb:4d:33:ac:26:c0:e4:27:47:e0:
        1b:d7:56:31:e5:6d:3b:0f:87:d2:ba:e0:4f:c2:20:03:45:8b:
        1a:7d:ee:5e:64:56:2d:2a:f8:00:d8:4e:c3:d6:90:c5:4a:73:
        76:b9:70:a4:76:c6:91:72:ae:04:8d:f5:94:59:46:61:46:2b:
        70:bb:9a:93:d9:d3:c3:e9:34:ee:41:5c:94:78:07:a1:0d:15:
        61:e6:21:e2:80:14:9e:36:ea:7b:50:5c:f8:c3:d8:bd:12:99:
        34:98:e2:c3:cb:69:31:03:dd:9d:40:19:d8:7d:79:5c:4e:69:
        db:94:c0:54:b8:eb:9e:4e:b6:c0:71:ff:e5:5a:44:61:57:f2:
        70:de:53:b5:36:d9:eb:2a:3a:4b:8c:aa:80:2d:18:96:da:85:
        df:47:90:6f:e2:b9:93:ab:b1:39:0f:df:a3:34:76:6a:7c:a6:
        17:d8:80:69:a8:c6:c1:1d:3e:33:5d:2d:a9:4d:26:41:04:0f:
        80:09:b5:83:bd:d0:f1:d2:28:47:cd:6a:95:40:f3:1e:a0:12:
        dd:8f:6a:3f:49:7e:97:29:b1:73:34:bf:4d:c6:e3:51:9b:20:
        e2:4a:a7:92:03:33:c8:cb:98:ad:0f:87:c1:38:70:45:63:03:
        cc:d6:36:f1
-----BEGIN CERTIFICATE-----
MIIDczCCAlugAwIBAgIQRjOykJhO5kkPpuul+r7caDANBgkqhkiG9w0BAQsFADAV
MRMwEQYDVQQDDAp0ZWFtMTItbmV0MB4XDTIzMTEwMzIwMzkyOVoXDTI2MTAxODIw
MzkyOVowGDEWMBQGA1UEAwwNdGVhbTEyLXNlcnZlcjCCASIwDQYJKoZIhvcNAQEB
BQADggEPADCCAQoCggEBANQXEPMjQWo4OnszdbHxOXNNcwKUYhrFOTQKxdzWoaVn
cBuAcBUmMHx+ri3ebBHVm3TQbvgkeC+mH+dNu/94thdESjWuCP/aZrwhgL3TcxKP
1jGsEbRcmxUnceNTGCGbWM8C6Se1irFuOkF6Lye+0HFqqJtHTDP394fNJw379Hxg
Wsw9KTbHUx7NgmRLoD3EplsVS8DavsyEMqObkHT2exmab38dhi5ZZBhzZjKEh63O
WinmYhGprOEZif2+ykqnWaC1hOV7si+TnSc/Bwdlu8V4nCo0+nHfH1Xx+sh1Uwe4
Ip6XfCuaaMcf5mkGf+mDQ/71HiP0poEosMFBoJVlSTcCAwEAAaOBuzCBuDAJBgNV
HRMEAjAAMB0GA1UdDgQWBBTJOgVSANsV1puqlf5vNnnGKGslhjBQBgNVHSMESTBH
gBRLgOXqsfKXbFImBSkUy5BW+HnwF6EZpBcwFTETMBEGA1UEAwwKdGVhbTEyLW5l
dIIUYRdNgUESfiMwAXotNhnA+arIHXQwEwYDVR0lBAwwCgYIKwYBBQUHAwEwCwYD
VR0PBAQDAgWgMBgGA1UdEQQRMA+CDXRlYW0xMi1zZXJ2ZXIwDQYJKoZIhvcNAQEL
BQADggEBAB8dIWC1q2ILy00zrCbA5CdH4BvXVjHlbTsPh9K64E/CIANFixp97l5k
Vi0q+ADYTsPWkMVKc3a5cKR2xpFyrgSN9ZRZRmFGK3C7mpPZ08PpNO5BXJR4B6EN
FWHmIeKAFJ426ntQXPjD2L0SmTSY4sPLaTED3Z1AGdh9eVxOaduUwFS4655OtsBx
/+VaRGFX8nDeU7U22esqOkuMqoAtGJbahd9HkG/iuZOrsTkP36M0dmp8phfYgGmo
xsEdPjNdLalNJkEED4AJtYO90PHSKEfNapVA8x6gEt2Paj9JfpcpsXM0v03G41Gb
IOJKp5IDM8jLmK0Ph8E4cEVjA8zWNvE=
-----END CERTIFICATE-----
