Certificate:
    Data:
        Version: 3 (0x2)
        Serial Number:
            78:87:b3:3b:50:20:89:5a:ce:70:e5:e0:80:f9:1c:38
        Signature Algorithm: sha256WithRSAEncryption
        Issuer: CN=team12-net
        Validity
            Not Before: Nov  4 11:27:36 2023 GMT
            Not After : Oct 19 11:27:36 2026 GMT
        Subject: CN=team12-client
        Subject Public Key Info:
            Public Key Algorithm: rsaEncryption
                Public-Key: (2048 bit)
                Modulus:
                    00:87:07:be:a5:df:35:c1:ae:0b:41:6f:43:d1:0f:
                    f7:2d:31:ba:5e:3b:9d:44:0c:93:96:40:3b:33:60:
                    4a:68:ec:ba:28:0d:47:d3:df:8c:b5:74:86:0c:aa:
                    cd:15:96:8b:a1:cb:aa:db:de:c0:c5:f7:3c:85:5d:
                    eb:57:dc:d0:cb:3d:ed:ad:84:82:5d:87:5f:5c:1b:
                    cf:83:35:45:4d:81:54:25:61:78:51:dc:d6:61:d9:
                    33:c7:67:d1:27:f9:1c:cb:3c:31:a4:f7:50:93:77:
                    75:f9:97:bf:ae:ec:dd:5a:93:07:3f:c9:ab:e7:c3:
                    bc:7a:cc:6b:05:7e:bb:e2:d8:1c:d1:dc:d4:81:61:
                    97:30:8f:90:0e:9d:95:03:7c:bd:c1:c8:5b:46:6f:
                    1d:4b:7a:c3:24:53:e4:12:df:15:7a:23:bc:0b:a7:
                    79:7c:f7:5e:8b:2e:25:b1:81:70:66:a6:4e:fd:a1:
                    d7:0a:18:07:86:e5:da:7f:42:c5:dc:85:ac:ae:2b:
                    50:85:ea:b2:92:51:eb:3c:74:ff:82:87:45:c4:4d:
                    ca:ef:a9:27:f5:81:d5:97:41:28:4f:63:0b:fa:e2:
                    49:83:22:2a:04:c3:7a:f7:36:ee:83:04:07:ec:60:
                    47:e7:84:8f:cc:01:58:0f:eb:a6:bf:1d:23:4e:d3:
                    2b:01
                Exponent: 65537 (0x10001)
        X509v3 extensions:
            X509v3 Basic Constraints: 
                CA:FALSE
            X509v3 Subject Key Identifier: 
                15:8E:60:6D:CF:B5:C2:ED:E2:52:C3:ED:70:4C:55:A9:DB:A0:04:7C
            X509v3 Authority Key Identifier: 
                keyid:72:A7:CC:7E:C8:60:19:D8:C3:51:BA:57:48:70:3E:38:B4:B8:35:E3
                DirName:/CN=team12-net
                serial:5D:14:56:42:88:B3:F6:03:A5:E3:74:8A:45:71:10:26:E3:C0:95:03
            X509v3 Extended Key Usage: 
                TLS Web Client Authentication
            X509v3 Key Usage: 
                Digital Signature
    Signature Algorithm: sha256WithRSAEncryption
    Signature Value:
        58:f0:fb:a3:0a:18:61:bd:b9:0c:02:4f:df:e3:f4:22:b6:da:
        b6:d9:65:4a:90:8a:70:43:03:95:e8:aa:05:30:1f:2c:44:ee:
        6a:b2:10:0a:23:c1:f1:f0:d4:78:ad:1c:c3:5f:d0:15:17:62:
        95:af:99:52:7e:fb:eb:1b:33:af:fc:a0:d8:b1:fc:76:63:b6:
        d3:db:63:7a:59:f1:1a:e6:56:6b:da:5c:7b:52:4f:dc:45:33:
        1a:58:0e:89:f7:f0:0b:5b:2e:f1:8f:f7:e4:1b:dc:d5:5b:7f:
        be:8c:fa:35:2b:ca:d6:76:bd:bb:6d:90:ce:c8:f4:28:33:4d:
        2c:e4:57:5e:ce:27:26:ba:e3:70:d0:26:71:d0:40:55:4e:bb:
        13:f0:b2:5b:45:f9:60:8e:c6:bf:79:f4:e2:82:09:1d:b7:f6:
        bd:70:be:03:26:e8:72:4e:ad:a1:d4:e7:31:a5:26:78:80:11:
        ea:99:cf:ab:dc:cb:63:39:a7:23:3f:96:e0:f1:94:12:8d:7a:
        e7:5f:f7:82:40:26:f2:c1:99:ab:12:45:48:57:2c:c2:c1:36:
        a9:56:fd:09:9f:82:92:1f:c3:d5:aa:2b:09:4a:3d:72:aa:bc:
        a0:0f:3b:ba:94:bd:c2:3b:37:48:7b:cd:7f:9e:43:90:1e:f0:
        ee:7b:f4:9d
-----BEGIN CERTIFICATE-----
MIIDWTCCAkGgAwIBAgIQeIezO1AgiVrOcOXggPkcODANBgkqhkiG9w0BAQsFADAV
MRMwEQYDVQQDDAp0ZWFtMTItbmV0MB4XDTIzMTEwNDExMjczNloXDTI2MTAxOTEx
MjczNlowGDEWMBQGA1UEAwwNdGVhbTEyLWNsaWVudDCCASIwDQYJKoZIhvcNAQEB
BQADggEPADCCAQoCggEBAIcHvqXfNcGuC0FvQ9EP9y0xul47nUQMk5ZAOzNgSmjs
uigNR9PfjLV0hgyqzRWWi6HLqtvewMX3PIVd61fc0Ms97a2Egl2HX1wbz4M1RU2B
VCVheFHc1mHZM8dn0Sf5HMs8MaT3UJN3dfmXv67s3VqTBz/Jq+fDvHrMawV+u+LY
HNHc1IFhlzCPkA6dlQN8vcHIW0ZvHUt6wyRT5BLfFXojvAuneXz3XosuJbGBcGam
Tv2h1woYB4bl2n9CxdyFrK4rUIXqspJR6zx0/4KHRcRNyu+pJ/WB1ZdBKE9jC/ri
SYMiKgTDevc27oMEB+xgR+eEj8wBWA/rpr8dI07TKwECAwEAAaOBoTCBnjAJBgNV
HRMEAjAAMB0GA1UdDgQWBBQVjmBtz7XC7eJSw+1wTFWp26AEfDBQBgNVHSMESTBH
gBRyp8x+yGAZ2MNRuldIcD44tLg146EZpBcwFTETMBEGA1UEAwwKdGVhbTEyLW5l
dIIUXRRWQoiz9gOl43SKRXEQJuPAlQMwEwYDVR0lBAwwCgYIKwYBBQUHAwIwCwYD
VR0PBAQDAgeAMA0GCSqGSIb3DQEBCwUAA4IBAQBY8PujChhhvbkMAk/f4/Qittq2
2WVKkIpwQwOV6KoFMB8sRO5qshAKI8Hx8NR4rRzDX9AVF2KVr5lSfvvrGzOv/KDY
sfx2Y7bT22N6WfEa5lZr2lx7Uk/cRTMaWA6J9/ALWy7xj/fkG9zVW3++jPo1K8rW
dr27bZDOyPQoM00s5FdezicmuuNw0CZx0EBVTrsT8LJbRflgjsa/efTiggkdt/a9
cL4DJuhyTq2h1OcxpSZ4gBHqmc+r3MtjOacjP5bg8ZQSjXrnX/eCQCbywZmrEkVI
VyzCwTapVv0Jn4KSH8PVqisJSj1yqrygDzu6lL3COzdIe81/nkOQHvDue/Sd
-----END CERTIFICATE-----
