Certificate:
    Data:
        Version: 3 (0x2)
        Serial Number:
            b3:61:c1:81:21:47:5f:81:65:3a:25:82:59:0e:75:7a
        Signature Algorithm: sha256WithRSAEncryption
        Issuer: CN=team12-net
        Validity
            Not Before: Nov  3 20:39:29 2023 GMT
            Not After : Oct 18 20:39:29 2026 GMT
        Subject: CN=team12-client
        Subject Public Key Info:
            Public Key Algorithm: rsaEncryption
                Public-Key: (2048 bit)
                Modulus:
                    00:ac:49:ea:36:30:7f:f1:f4:81:e5:de:d5:a4:55:
                    94:28:49:90:84:f6:7e:47:4c:b1:43:bc:e0:55:d4:
                    b1:d5:9c:e6:31:a4:80:79:6b:20:8f:02:52:87:ca:
                    20:f0:22:80:b3:20:3d:2a:4e:ee:39:0a:32:3c:87:
                    5e:df:e7:e5:1f:88:66:9c:84:d9:be:d9:3e:a8:41:
                    d0:09:dc:21:4c:7c:91:0a:38:c8:18:a5:24:b1:40:
                    72:28:e6:49:5e:89:c5:f1:bc:4a:d3:a7:80:bf:c1:
                    e1:87:23:5c:a2:e1:4a:d3:17:49:49:5b:bc:19:f7:
                    28:80:2d:b6:1a:6f:c0:7e:d3:ff:75:f4:93:bd:a3:
                    77:8e:51:b4:33:22:62:be:74:50:bc:57:97:1e:32:
                    04:a9:d8:f7:ff:ac:d8:cf:23:43:83:4c:d8:0c:06:
                    af:0a:7a:68:bd:56:92:e4:db:4e:1e:04:73:c2:dc:
                    a1:6f:86:29:91:e3:78:9e:82:54:a1:b4:68:78:b0:
                    61:48:4f:51:4a:e1:3d:25:c2:ee:d9:79:a7:aa:01:
                    42:04:63:44:81:b2:d2:3a:73:fc:20:cb:1d:6a:f7:
                    3c:11:eb:92:a8:c4:87:0a:7f:94:f4:32:e4:74:88:
                    40:57:96:b8:8f:67:7b:7f:68:0c:34:24:2d:07:e7:
                    32:d7
                Exponent: 65537 (0x10001)
        X509v3 extensions:
            X509v3 Basic Constraints: 
                CA:FALSE
            X509v3 Subject Key Identifier: 
                8C:E8:02:35:CE:83:80:CD:84:66:A1:F4:8D:FF:DA:F6:29:78:9E:7E
            X509v3 Authority Key Identifier: 
                keyid:4B:80:E5:EA:B1:F2:97:6C:52:26:05:29:14:CB:90:56:F8:79:F0:17
                DirName:/CN=team12-net
                serial:61:17:4D:81:41:12:7E:23:30:01:7A:2D:36:19:C0:F9:AA:C8:1D:74
            X509v3 Extended Key Usage: 
                TLS Web Client Authentication
            X509v3 Key Usage: 
                Digital Signature
    Signature Algorithm: sha256WithRSAEncryption
    Signature Value:
        56:1f:a2:77:2b:f7:a8:6b:b4:1a:b8:b6:70:d4:5a:2d:1d:2b:
        49:a4:a0:26:7f:c7:cf:e3:a5:4d:5f:d2:64:fc:6a:8d:4a:8c:
        1a:d2:4e:dc:22:ff:99:1d:f9:fa:fa:df:73:2a:3a:43:ff:a7:
        78:91:d1:b0:4d:69:45:3b:fc:c3:6e:38:97:33:78:25:cf:c9:
        2f:d9:29:a5:0d:20:5d:b2:98:99:ee:95:93:7f:e8:93:81:2d:
        60:cc:fc:49:a3:ea:90:cd:bc:78:8c:e5:26:6a:82:54:af:76:
        ad:3f:7f:60:2b:99:0c:67:c5:1d:b4:c3:1c:0b:d8:dd:7d:cb:
        d0:8b:e5:74:46:b6:9d:a4:25:8e:97:f2:6f:ea:9a:40:a5:10:
        ec:7e:6a:73:36:f6:79:99:61:de:c2:72:9e:6d:4a:66:03:43:
        16:a7:e6:d4:c9:16:f6:79:b5:0c:df:bc:33:9c:13:06:f3:c2:
        72:bd:b4:0a:b0:35:e2:52:0a:3a:22:6d:e8:9a:23:0c:d8:29:
        cd:22:4a:2d:55:e5:eb:e6:2c:b7:49:1b:4a:47:3f:2d:d8:35:
        2a:25:77:c6:b8:d1:93:60:e8:5c:a5:1e:b0:f1:eb:80:7a:23:
        2d:3e:b0:90:50:09:e6:3c:be:53:40:97:89:56:05:7f:18:96:
        8b:e2:cd:66
-----BEGIN CERTIFICATE-----
MIIDWjCCAkKgAwIBAgIRALNhwYEhR1+BZTolglkOdXowDQYJKoZIhvcNAQELBQAw
FTETMBEGA1UEAwwKdGVhbTEyLW5ldDAeFw0yMzExMDMyMDM5MjlaFw0yNjEwMTgy
MDM5MjlaMBgxFjAUBgNVBAMMDXRlYW0xMi1jbGllbnQwggEiMA0GCSqGSIb3DQEB
AQUAA4IBDwAwggEKAoIBAQCsSeo2MH/x9IHl3tWkVZQoSZCE9n5HTLFDvOBV1LHV
nOYxpIB5ayCPAlKHyiDwIoCzID0qTu45CjI8h17f5+UfiGachNm+2T6oQdAJ3CFM
fJEKOMgYpSSxQHIo5kleicXxvErTp4C/weGHI1yi4UrTF0lJW7wZ9yiALbYab8B+
0/919JO9o3eOUbQzImK+dFC8V5ceMgSp2Pf/rNjPI0ODTNgMBq8Kemi9VpLk204e
BHPC3KFvhimR43ieglShtGh4sGFIT1FK4T0lwu7ZeaeqAUIEY0SBstI6c/wgyx1q
9zwR65KoxIcKf5T0MuR0iEBXlriPZ3t/aAw0JC0H5zLXAgMBAAGjgaEwgZ4wCQYD
VR0TBAIwADAdBgNVHQ4EFgQUjOgCNc6DgM2EZqH0jf/a9il4nn4wUAYDVR0jBEkw
R4AUS4Dl6rHyl2xSJgUpFMuQVvh58BehGaQXMBUxEzARBgNVBAMMCnRlYW0xMi1u
ZXSCFGEXTYFBEn4jMAF6LTYZwPmqyB10MBMGA1UdJQQMMAoGCCsGAQUFBwMCMAsG
A1UdDwQEAwIHgDANBgkqhkiG9w0BAQsFAAOCAQEAVh+idyv3qGu0Gri2cNRaLR0r
SaSgJn/Hz+OlTV/SZPxqjUqMGtJO3CL/mR35+vrfcyo6Q/+neJHRsE1pRTv8w244
lzN4Jc/JL9kppQ0gXbKYme6Vk3/ok4EtYMz8SaPqkM28eIzlJmqCVK92rT9/YCuZ
DGfFHbTDHAvY3X3L0IvldEa2naQljpfyb+qaQKUQ7H5qczb2eZlh3sJynm1KZgND
Fqfm1MkW9nm1DN+8M5wTBvPCcr20CrA14lIKOiJt6JojDNgpzSJKLVXl6+Yst0kb
Skc/Ldg1KiV3xrjRk2DoXKUesPHrgHojLT6wkFAJ5jy+U0CXiVYFfxiWi+LNZg==
-----END CERTIFICATE-----
