Certificate:
    Data:
        Version: 3 (0x2)
        Serial Number:
            e4:86:70:23:31:df:fc:e9:fc:1a:c9:cf:3d:c7:bd:b2
        Signature Algorithm: sha256WithRSAEncryption
        Issuer: CN=team12-net
        Validity
            Not Before: Nov  4 10:40:25 2023 GMT
            Not After : Oct 19 10:40:25 2026 GMT
        Subject: CN=team12-server
        Subject Public Key Info:
            Public Key Algorithm: rsaEncryption
                Public-Key: (2048 bit)
                Modulus:
                    00:90:e1:99:26:ac:56:75:65:a6:c8:82:c1:21:80:
                    e8:28:9f:3c:10:e9:30:1e:22:54:f4:37:e7:6a:4a:
                    24:43:b4:a4:fe:06:00:e5:1a:d3:cd:f2:8a:7d:1d:
                    e7:91:ba:69:e3:a3:5d:6c:ba:29:da:07:33:72:d4:
                    47:a8:76:fd:38:02:bc:b5:7f:6b:4f:e5:9a:83:1a:
                    08:75:f1:61:b0:f9:5c:7e:f9:89:81:6b:82:d7:c7:
                    55:16:bd:56:32:99:e3:4c:77:69:5a:30:c7:37:42:
                    c7:de:e4:51:77:da:c0:6d:83:c5:d1:c6:11:30:45:
                    ad:3a:6d:2e:18:e0:10:58:91:f2:49:9c:0c:b5:92:
                    7b:31:bb:e3:f1:ec:18:9a:ed:a8:c8:9b:ca:ef:75:
                    bd:8a:e3:80:f9:b3:56:16:24:c6:8c:ae:54:19:57:
                    e3:aa:08:aa:8b:db:1f:96:74:1c:ba:f2:d5:84:99:
                    a2:d1:b4:29:5c:3a:ed:47:20:fb:ac:12:05:0c:e3:
                    28:8e:05:de:94:0b:9f:a4:52:d8:f4:f7:c2:38:e1:
                    4c:95:64:c7:75:b6:4e:c9:22:67:99:c2:64:c7:c1:
                    d9:a9:f7:f0:ae:69:7b:d9:56:ad:77:54:62:03:ec:
                    b3:d8:0f:52:3a:e2:86:35:7a:93:8c:03:c8:a6:c0:
                    98:7b
                Exponent: 65537 (0x10001)
        X509v3 extensions:
            X509v3 Basic Constraints: 
                CA:FALSE
            X509v3 Subject Key Identifier: 
                F4:CA:7D:F2:78:31:25:A4:67:4E:76:20:A3:E4:06:E5:E6:27:B9:71
            X509v3 Authority Key Identifier: 
                keyid:98:D4:C3:FC:F3:59:C6:60:1B:E0:2B:37:64:41:DB:44:9B:44:A0:71
                DirName:/CN=team12-net
                serial:7B:C3:4A:48:D7:93:AF:08:BC:5D:1C:99:AE:E3:07:46:8E:5A:ED:EA
            X509v3 Extended Key Usage: 
                TLS Web Server Authentication
            X509v3 Key Usage: 
                Digital Signature, Key Encipherment
            X509v3 Subject Alternative Name: 
                DNS:team12-server
    Signature Algorithm: sha256WithRSAEncryption
    Signature Value:
        9f:b4:1f:61:2d:9e:6d:cd:79:56:b3:8e:4b:4b:83:6a:7c:8b:
        a2:1b:0b:2b:a8:79:58:b4:c0:07:ee:93:0e:6c:db:5d:e1:80:
        a5:c2:e6:6d:71:dc:7a:9c:d5:a6:b2:a6:1f:8d:8e:55:a4:62:
        56:49:2c:b2:50:04:f4:d2:67:d7:da:ec:34:d4:bd:ed:02:37:
        40:c6:3b:b8:93:6e:5b:d3:6e:5f:aa:ca:f3:a1:31:75:46:3e:
        31:23:e2:04:dc:9b:b4:42:0c:6f:fd:4f:c1:1f:4a:47:7c:e9:
        99:d9:35:91:55:4d:32:be:5a:a1:ff:65:4b:11:73:73:e9:ef:
        85:0c:0f:77:87:f4:7c:94:83:fb:f8:9e:b0:e5:5e:de:4c:7d:
        72:72:c4:df:15:16:12:8d:e5:46:c8:07:87:79:5c:ad:f8:01:
        0c:c7:7c:82:93:1b:b3:22:70:69:ad:e1:7d:c8:08:7f:77:18:
        2a:d5:bc:43:43:c7:27:2c:c1:10:c1:2b:c0:5c:6e:0f:47:fe:
        b6:a3:42:0b:52:95:f1:8f:a1:5f:b8:ee:b2:aa:a7:3f:da:d8:
        c0:2d:7b:74:e0:d6:7e:4f:ae:57:3e:3c:33:b1:c8:f5:67:1e:
        15:3d:4f:3f:4e:07:74:0d:89:2b:82:c9:9c:b7:b0:c0:61:6d:
        1b:c4:f1:ae
-----BEGIN CERTIFICATE-----
MIIDdDCCAlygAwIBAgIRAOSGcCMx3/zp/BrJzz3HvbIwDQYJKoZIhvcNAQELBQAw
FTETMBEGA1UEAwwKdGVhbTEyLW5ldDAeFw0yMzExMDQxMDQwMjVaFw0yNjEwMTkx
MDQwMjVaMBgxFjAUBgNVBAMMDXRlYW0xMi1zZXJ2ZXIwggEiMA0GCSqGSIb3DQEB
AQUAA4IBDwAwggEKAoIBAQCQ4ZkmrFZ1ZabIgsEhgOgonzwQ6TAeIlT0N+dqSiRD
tKT+BgDlGtPN8op9HeeRumnjo11suinaBzNy1Eeodv04Ary1f2tP5ZqDGgh18WGw
+Vx++YmBa4LXx1UWvVYymeNMd2laMMc3Qsfe5FF32sBtg8XRxhEwRa06bS4Y4BBY
kfJJnAy1knsxu+Px7Bia7ajIm8rvdb2K44D5s1YWJMaMrlQZV+OqCKqL2x+WdBy6
8tWEmaLRtClcOu1HIPusEgUM4yiOBd6UC5+kUtj098I44UyVZMd1tk7JImeZwmTH
wdmp9/CuaXvZVq13VGID7LPYD1I64oY1epOMA8imwJh7AgMBAAGjgbswgbgwCQYD
VR0TBAIwADAdBgNVHQ4EFgQU9Mp98ngxJaRnTnYgo+QG5eYnuXEwUAYDVR0jBEkw
R4AUmNTD/PNZxmAb4Cs3ZEHbRJtEoHGhGaQXMBUxEzARBgNVBAMMCnRlYW0xMi1u
ZXSCFHvDSkjXk68IvF0cma7jB0aOWu3qMBMGA1UdJQQMMAoGCCsGAQUFBwMBMAsG
A1UdDwQEAwIFoDAYBgNVHREEETAPgg10ZWFtMTItc2VydmVyMA0GCSqGSIb3DQEB
CwUAA4IBAQCftB9hLZ5tzXlWs45LS4NqfIuiGwsrqHlYtMAH7pMObNtd4YClwuZt
cdx6nNWmsqYfjY5VpGJWSSyyUAT00mfX2uw01L3tAjdAxju4k25b025fqsrzoTF1
Rj4xI+IE3Ju0Qgxv/U/BH0pHfOmZ2TWRVU0yvlqh/2VLEXNz6e+FDA93h/R8lIP7
+J6w5V7eTH1ycsTfFRYSjeVGyAeHeVyt+AEMx3yCkxuzInBpreF9yAh/dxgq1bxD
Q8cnLMEQwSvAXG4PR/62o0ILUpXxj6FfuO6yqqc/2tjALXt04NZ+T65XPjwzscj1
Zx4VPU8/Tgd0DYkrgsmct7DAYW0bxPGu
-----END CERTIFICATE-----
