Certificate:
    Data:
        Version: 3 (0x2)
        Serial Number:
            1a:59:59:54:d2:82:9e:cc:db:13:86:1e:dc:e1:fe:3b
        Signature Algorithm: sha256WithRSAEncryption
        Issuer: CN=team101-net
        Validity
            Not Before: Nov  3 20:40:55 2023 GMT
            Not After : Oct 18 20:40:55 2026 GMT
        Subject: CN=team101-client
        Subject Public Key Info:
            Public Key Algorithm: rsaEncryption
                Public-Key: (2048 bit)
                Modulus:
                    00:b8:3c:a5:35:47:3b:cc:69:d7:4d:b3:2b:f8:05:
                    19:64:5f:ce:15:06:35:f5:82:6f:e4:60:9f:e9:e4:
                    8a:33:55:5b:cc:94:65:6a:ca:c2:a2:8d:7f:f7:98:
                    8d:9d:f9:35:7a:54:b8:1b:cc:db:83:c0:43:42:a8:
                    fd:67:46:23:0f:70:dd:bd:f7:ec:a6:2b:0f:9a:53:
                    df:23:2a:76:df:67:f7:45:d1:79:83:f0:bd:a3:2c:
                    d2:f1:5e:15:ea:b4:30:f6:8e:91:51:95:71:56:ba:
                    f5:53:fc:b9:98:38:2a:b2:61:47:92:0b:be:e8:5f:
                    6b:e2:5e:c3:80:8d:9f:1e:7b:e2:05:c7:64:83:13:
                    94:54:1e:cd:65:02:83:02:3a:85:92:1f:82:e8:c4:
                    02:a1:d1:c9:ec:0b:e5:e8:04:80:99:c9:92:e7:72:
                    e4:77:05:a9:2e:b1:b4:5d:fa:48:75:2d:dd:37:37:
                    f1:15:4f:3a:49:18:9e:37:da:79:26:2e:41:7f:73:
                    03:40:45:73:0e:fa:be:0b:bc:12:2b:49:d4:0f:70:
                    30:2e:40:84:bc:69:8b:a4:07:7d:4c:1b:c4:d0:2f:
                    ef:73:ff:f2:0a:aa:53:53:6f:2a:57:0d:a2:c7:7f:
                    c3:a4:1b:76:cd:69:8a:d3:c5:0d:0e:2b:cb:25:9e:
                    da:d5
                Exponent: 65537 (0x10001)
        X509v3 extensions:
            X509v3 Basic Constraints: 
                CA:FALSE
            X509v3 Subject Key Identifier: 
                28:E1:3D:2E:AD:DE:11:9C:E1:ED:E2:6D:5A:AA:4D:81:04:06:9C:95
            X509v3 Authority Key Identifier: 
                keyid:05:D0:01:C1:8A:C9:DA:79:DC:00:56:E3:C9:F9:03:F5:5B:08:B4:13
                DirName:/CN=team101-net
                serial:02:9D:5D:90:44:40:37:8F:0E:F9:AA:AD:43:52:6D:A2:04:44:D8:4B
            X509v3 Extended Key Usage: 
                TLS Web Client Authentication
            X509v3 Key Usage: 
                Digital Signature
    Signature Algorithm: sha256WithRSAEncryption
    Signature Value:
        49:1c:11:d7:63:d2:9d:5a:9b:87:3b:c5:a4:f5:35:63:2b:df:
        2f:0b:ce:f0:f7:5a:dc:eb:00:aa:44:d8:cc:85:e3:49:de:dc:
        4f:61:a9:31:7a:b7:10:ed:9f:95:88:79:d1:f3:9b:be:b5:a5:
        76:20:2a:44:76:56:3c:2c:91:4b:d0:85:1a:89:53:d0:1b:76:
        18:96:12:6e:de:fc:47:3e:bf:30:d6:5c:6e:3a:89:6e:5d:e0:
        59:5a:9b:a3:01:dc:65:f0:e8:ed:9f:1f:65:3e:f8:0b:11:bf:
        6a:77:55:d6:78:a2:ca:c7:34:88:91:18:e1:04:24:53:1f:8c:
        f7:91:f3:32:fb:9a:00:6f:11:cb:41:a0:7d:b6:d2:e7:98:2f:
        e2:46:9a:d6:7e:83:be:66:da:34:36:56:12:2a:80:a0:58:07:
        b4:4e:14:55:c4:e4:ce:7b:91:43:10:78:6f:4e:c0:b1:8b:00:
        d2:cc:75:d5:0d:1f:51:7a:b5:0f:1a:4e:ef:fc:9d:00:79:f3:
        1f:0d:63:9f:18:3b:ca:f3:7f:a4:95:04:5e:73:fc:95:f5:ce:
        bf:e1:3f:73:b0:f9:44:7b:21:42:94:9a:c9:62:e9:8b:c9:c4:
        ec:86:88:d6:ed:66:fa:46:b3:81:e7:c1:5f:19:74:8f:0f:f9:
        3b:87:fa:4f
-----BEGIN CERTIFICATE-----
MIIDXDCCAkSgAwIBAgIQGllZVNKCnszbE4Ye3OH+OzANBgkqhkiG9w0BAQsFADAW
MRQwEgYDVQQDDAt0ZWFtMTAxLW5ldDAeFw0yMzExMDMyMDQwNTVaFw0yNjEwMTgy
MDQwNTVaMBkxFzAVBgNVBAMMDnRlYW0xMDEtY2xpZW50MIIBIjANBgkqhkiG9w0B
AQEFAAOCAQ8AMIIBCgKCAQEAuDylNUc7zGnXTbMr+AUZZF/OFQY19YJv5GCf6eSK
M1VbzJRlasrCoo1/95iNnfk1elS4G8zbg8BDQqj9Z0YjD3DdvffspisPmlPfIyp2
32f3RdF5g/C9oyzS8V4V6rQw9o6RUZVxVrr1U/y5mDgqsmFHkgu+6F9r4l7DgI2f
HnviBcdkgxOUVB7NZQKDAjqFkh+C6MQCodHJ7Avl6ASAmcmS53LkdwWpLrG0XfpI
dS3dNzfxFU86SRieN9p5Ji5Bf3MDQEVzDvq+C7wSK0nUD3AwLkCEvGmLpAd9TBvE
0C/vc//yCqpTU28qVw2ix3/DpBt2zWmK08UNDivLJZ7a1QIDAQABo4GiMIGfMAkG
A1UdEwQCMAAwHQYDVR0OBBYEFCjhPS6t3hGc4e3ibVqqTYEEBpyVMFEGA1UdIwRK
MEiAFAXQAcGKydp53ABW48n5A/VbCLQToRqkGDAWMRQwEgYDVQQDDAt0ZWFtMTAx
LW5ldIIUAp1dkERAN48O+aqtQ1JtogRE2EswEwYDVR0lBAwwCgYIKwYBBQUHAwIw
CwYDVR0PBAQDAgeAMA0GCSqGSIb3DQEBCwUAA4IBAQBJHBHXY9KdWpuHO8Wk9TVj
K98vC87w91rc6wCqRNjMheNJ3txPYakxercQ7Z+ViHnR85u+taV2ICpEdlY8LJFL
0IUaiVPQG3YYlhJu3vxHPr8w1lxuOoluXeBZWpujAdxl8Ojtnx9lPvgLEb9qd1XW
eKLKxzSIkRjhBCRTH4z3kfMy+5oAbxHLQaB9ttLnmC/iRprWfoO+Zto0NlYSKoCg
WAe0ThRVxOTOe5FDEHhvTsCxiwDSzHXVDR9RerUPGk7v/J0AefMfDWOfGDvK83+k
lQRec/yV9c6/4T9zsPlEeyFClJrJYumLycTshojW7Wb6RrOB58FfGXSPD/k7h/pP
-----END CERTIFICATE-----
