Certificate:
    Data:
        Version: 3 (0x2)
        Serial Number:
            97:27:b2:90:30:ea:e9:37:18:19:bb:f2:e1:7e:28:9e
        Signature Algorithm: sha256WithRSAEncryption
        Issuer: CN=team101-net
        Validity
            Not Before: Nov  4 10:42:18 2023 GMT
            Not After : Oct 19 10:42:18 2026 GMT
        Subject: CN=team101-client
        Subject Public Key Info:
            Public Key Algorithm: rsaEncryption
                Public-Key: (2048 bit)
                Modulus:
                    00:bf:27:f7:40:36:26:99:24:12:dc:dd:b2:30:98:
                    37:92:2b:61:fb:bc:f0:b6:48:79:5d:2d:ad:5c:0e:
                    5e:d2:bd:cd:60:9c:f1:7b:75:bc:6d:b4:34:04:60:
                    a9:3a:7c:58:3a:24:9f:84:8c:8e:0c:4c:e0:df:52:
                    7f:ef:dd:81:fb:0f:8a:b5:8b:8d:e3:35:5a:af:3e:
                    33:d8:c6:19:94:f4:4b:eb:c9:69:74:08:cc:9a:56:
                    c3:00:30:98:00:36:d0:cb:81:5b:f8:09:1e:6e:98:
                    64:a5:80:f3:cf:45:a8:5f:a0:5c:5c:66:5d:2f:ed:
                    ee:0e:74:26:60:45:c6:31:5b:6c:a2:c5:c2:c4:52:
                    9f:2d:93:08:41:a4:61:fe:aa:02:ed:d0:03:cc:d6:
                    7d:ac:4f:98:4f:d3:a3:99:7c:73:54:b0:32:2c:4e:
                    4d:14:a9:20:f0:6f:3a:61:21:6b:43:a2:42:0b:b3:
                    ed:60:da:a7:1d:a7:90:38:af:35:be:a3:ca:92:3e:
                    ff:7e:53:8d:03:eb:3f:be:cf:7b:5c:2f:23:25:5b:
                    2e:d1:dd:70:d4:e8:7c:53:c7:ed:29:d4:46:45:9c:
                    18:df:89:3c:c5:23:bf:bb:6d:cf:0b:1b:77:a3:c2:
                    d9:77:27:c7:6c:07:02:82:69:bd:1f:68:ae:c9:22:
                    4b:d5
                Exponent: 65537 (0x10001)
        X509v3 extensions:
            X509v3 Basic Constraints: 
                CA:FALSE
            X509v3 Subject Key Identifier: 
                DC:56:37:C7:31:EE:AA:73:7E:0C:61:8F:E1:CA:E1:74:31:10:14:84
            X509v3 Authority Key Identifier: 
                keyid:CA:07:BC:60:68:39:9B:15:53:2E:F4:D3:29:94:80:4E:B0:60:1A:FD
                DirName:/CN=team101-net
                serial:4E:5B:F8:F1:9F:70:B3:42:70:44:CB:50:B6:54:80:66:20:B8:AD:A3
            X509v3 Extended Key Usage: 
                TLS Web Client Authentication
            X509v3 Key Usage: 
                Digital Signature
    Signature Algorithm: sha256WithRSAEncryption
    Signature Value:
        9c:15:e0:6a:38:12:01:5a:ce:28:35:26:5c:1b:a4:c2:cd:02:
        5f:92:ec:ee:53:c1:4f:3c:0e:08:f8:90:69:45:e1:70:38:cd:
        c5:77:7d:99:a9:9b:a7:ad:7c:ba:e4:71:7e:11:3f:8e:4c:e3:
        f0:2d:ad:09:02:ca:18:b3:74:f9:eb:c6:80:d2:b0:50:9d:08:
        33:f8:6c:a9:98:ea:9f:78:12:32:96:2f:54:32:30:c3:47:95:
        61:44:61:02:fe:9b:21:ac:7d:d4:3a:c1:36:dd:5e:d5:68:cb:
        ea:6d:c3:26:cd:72:98:15:51:83:b3:64:4a:27:b3:fe:42:5c:
        3e:4e:2f:c3:3a:7d:48:e4:03:f6:97:cc:9f:7e:38:e5:db:a4:
        97:01:9d:a4:18:67:bf:05:66:25:5f:db:b7:ca:0d:e9:04:24:
        e6:b0:6f:6f:bd:6d:e7:1a:a3:2f:38:d6:36:d4:ba:87:28:95:
        49:05:01:ce:85:79:27:99:ab:52:06:b9:78:e4:72:fc:00:fe:
        81:5a:a7:42:9d:e1:3e:8e:f6:50:25:26:cd:0f:64:bc:a5:e9:
        49:66:44:15:87:a6:32:bf:17:17:9e:d7:2c:74:28:23:ef:ec:
        a0:a8:2b:15:c3:ac:97:56:d1:ce:b2:f2:5e:cc:f1:06:a6:cf:
        42:d0:49:f7
-----BEGIN CERTIFICATE-----
MIIDXTCCAkWgAwIBAgIRAJcnspAw6uk3GBm78uF+KJ4wDQYJKoZIhvcNAQELBQAw
FjEUMBIGA1UEAwwLdGVhbTEwMS1uZXQwHhcNMjMxMTA0MTA0MjE4WhcNMjYxMDE5
MTA0MjE4WjAZMRcwFQYDVQQDDA50ZWFtMTAxLWNsaWVudDCCASIwDQYJKoZIhvcN
AQEBBQADggEPADCCAQoCggEBAL8n90A2JpkkEtzdsjCYN5IrYfu88LZIeV0trVwO
XtK9zWCc8Xt1vG20NARgqTp8WDokn4SMjgxM4N9Sf+/dgfsPirWLjeM1Wq8+M9jG
GZT0S+vJaXQIzJpWwwAwmAA20MuBW/gJHm6YZKWA889FqF+gXFxmXS/t7g50JmBF
xjFbbKLFwsRSny2TCEGkYf6qAu3QA8zWfaxPmE/To5l8c1SwMixOTRSpIPBvOmEh
a0OiQguz7WDapx2nkDivNb6jypI+/35TjQPrP77Pe1wvIyVbLtHdcNTofFPH7SnU
RkWcGN+JPMUjv7ttzwsbd6PC2Xcnx2wHAoJpvR9orskiS9UCAwEAAaOBojCBnzAJ
BgNVHRMEAjAAMB0GA1UdDgQWBBTcVjfHMe6qc34MYY/hyuF0MRAUhDBRBgNVHSME
SjBIgBTKB7xgaDmbFVMu9NMplIBOsGAa/aEapBgwFjEUMBIGA1UEAwwLdGVhbTEw
MS1uZXSCFE5b+PGfcLNCcETLULZUgGYguK2jMBMGA1UdJQQMMAoGCCsGAQUFBwMC
MAsGA1UdDwQEAwIHgDANBgkqhkiG9w0BAQsFAAOCAQEAnBXgajgSAVrOKDUmXBuk
ws0CX5Ls7lPBTzwOCPiQaUXhcDjNxXd9mambp618uuRxfhE/jkzj8C2tCQLKGLN0
+evGgNKwUJ0IM/hsqZjqn3gSMpYvVDIww0eVYURhAv6bIax91DrBNt1e1WjL6m3D
Js1ymBVRg7NkSiez/kJcPk4vwzp9SOQD9pfMn3445duklwGdpBhnvwVmJV/bt8oN
6QQk5rBvb71t5xqjLzjWNtS6hyiVSQUBzoV5J5mrUga5eORy/AD+gVqnQp3hPo72
UCUmzQ9kvKXpSWZEFYemMr8XF57XLHQoI+/soKgrFcOsl1bRzrLyXszxBqbPQtBJ
9w==
-----END CERTIFICATE-----
