Certificate:
    Data:
        Version: 3 (0x2)
        Serial Number:
            d9:a0:55:23:c6:c9:f0:a7:64:53:58:e1:97:f5:9e:0c
        Signature Algorithm: sha256WithRSAEncryption
        Issuer: CN=team101-net
        Validity
            Not Before: Nov  4 10:42:18 2023 GMT
            Not After : Oct 19 10:42:18 2026 GMT
        Subject: CN=team101-server
        Subject Public Key Info:
            Public Key Algorithm: rsaEncryption
                Public-Key: (2048 bit)
                Modulus:
                    00:b5:bb:89:8c:54:b9:42:1a:43:cc:74:16:24:1c:
                    5f:b4:4e:00:84:0f:05:9c:9c:ec:c5:b4:0d:51:c3:
                    a8:78:7f:24:66:29:a5:97:b4:4b:dc:bc:64:15:32:
                    a2:8d:11:ee:24:dc:c9:fb:6f:9f:c2:12:1b:d2:11:
                    47:b8:bd:51:ad:cc:14:5f:29:1f:d8:d2:49:3c:c0:
                    49:a7:9f:4b:54:83:59:e9:b9:20:5d:a0:9b:e9:82:
                    ee:72:46:87:f4:9a:c3:b0:66:b0:af:72:e7:0e:de:
                    7d:86:da:a9:41:88:63:44:ca:46:f6:f9:d5:00:f4:
                    bd:12:93:94:a3:ef:66:3e:52:d1:d0:6b:d1:0f:c2:
                    10:5f:e4:fd:7c:6c:0b:11:d0:5d:3c:19:da:4c:cb:
                    9a:d3:5c:fd:5b:30:d4:e7:9c:bd:1a:9c:32:42:2a:
                    25:df:c5:87:fe:69:56:77:a7:fd:c4:56:a8:60:84:
                    c6:19:15:d8:41:8b:61:95:72:41:c5:a3:fa:a5:80:
                    c1:1b:e8:39:3d:32:5b:cb:35:44:78:b7:b0:0f:ae:
                    d9:6e:60:c2:1e:d3:86:b1:98:9d:71:72:77:b4:e2:
                    0a:66:62:a0:8f:83:03:55:0a:fb:8f:39:f6:8e:56:
                    fa:0e:6c:b1:93:4f:c3:1a:6a:5e:e2:6b:30:54:72:
                    51:81
                Exponent: 65537 (0x10001)
        X509v3 extensions:
            X509v3 Basic Constraints: 
                CA:FALSE
            X509v3 Subject Key Identifier: 
                3D:E1:CD:AD:4E:B6:CF:94:95:5B:83:85:3F:77:E5:9A:42:BF:13:79
            X509v3 Authority Key Identifier: 
                keyid:CA:07:BC:60:68:39:9B:15:53:2E:F4:D3:29:94:80:4E:B0:60:1A:FD
                DirName:/CN=team101-net
                serial:4E:5B:F8:F1:9F:70:B3:42:70:44:CB:50:B6:54:80:66:20:B8:AD:A3
            X509v3 Extended Key Usage: 
                TLS Web Server Authentication
            X509v3 Key Usage: 
                Digital Signature, Key Encipherment
            X509v3 Subject Alternative Name: 
                DNS:team101-server
    Signature Algorithm: sha256WithRSAEncryption
    Signature Value:
        37:9b:f3:3e:7c:33:48:08:3f:fc:88:c5:9c:84:a5:a0:13:75:
        37:70:43:c3:ae:9d:5f:48:cb:dc:bd:47:78:d1:fd:f0:a7:f2:
        a7:bc:d8:fa:ad:85:a3:f1:2d:76:15:39:8e:2d:cd:e0:80:30:
        4b:ca:9d:3f:95:0b:fd:9f:77:de:08:07:41:06:27:75:eb:ac:
        de:1f:5d:e6:dd:b3:6f:5c:35:08:fd:e0:8c:dc:cd:ee:e4:85:
        23:d8:d9:e0:57:cb:96:62:71:a9:98:fa:e0:7b:6a:00:a8:d6:
        2e:0d:bb:be:a8:a0:bb:49:c0:69:6b:a6:a4:a2:3e:fe:e2:8a:
        34:43:58:4c:80:eb:0e:67:be:38:f5:8d:b3:a2:dd:99:e1:9d:
        db:c8:7a:4a:8f:a3:b5:fb:5f:ae:74:11:36:81:ff:4f:d9:a1:
        fc:37:ec:56:5f:78:5d:a0:61:42:23:38:33:84:01:09:25:55:
        f4:0b:c4:3b:fb:5d:4c:b5:ad:66:d6:03:0c:d9:43:6f:37:73:
        09:19:ce:db:68:9c:ce:55:78:db:74:1e:ae:f5:6c:c2:62:7a:
        00:22:06:40:38:c6:16:a1:02:90:1c:6f:5e:89:10:fb:8a:3e:
        89:8e:7f:42:66:47:f1:92:33:58:83:6e:9d:63:f6:10:75:f9:
        e5:6b:3b:d2
-----BEGIN CERTIFICATE-----
MIIDeDCCAmCgAwIBAgIRANmgVSPGyfCnZFNY4Zf1ngwwDQYJKoZIhvcNAQELBQAw
FjEUMBIGA1UEAwwLdGVhbTEwMS1uZXQwHhcNMjMxMTA0MTA0MjE4WhcNMjYxMDE5
MTA0MjE4WjAZMRcwFQYDVQQDDA50ZWFtMTAxLXNlcnZlcjCCASIwDQYJKoZIhvcN
AQEBBQADggEPADCCAQoCggEBALW7iYxUuUIaQ8x0FiQcX7ROAIQPBZyc7MW0DVHD
qHh/JGYppZe0S9y8ZBUyoo0R7iTcyftvn8ISG9IRR7i9Ua3MFF8pH9jSSTzASaef
S1SDWem5IF2gm+mC7nJGh/Saw7BmsK9y5w7efYbaqUGIY0TKRvb51QD0vRKTlKPv
Zj5S0dBr0Q/CEF/k/XxsCxHQXTwZ2kzLmtNc/Vsw1OecvRqcMkIqJd/Fh/5pVnen
/cRWqGCExhkV2EGLYZVyQcWj+qWAwRvoOT0yW8s1RHi3sA+u2W5gwh7ThrGYnXFy
d7TiCmZioI+DA1UK+4859o5W+g5ssZNPwxpqXuJrMFRyUYECAwEAAaOBvTCBujAJ
BgNVHRMEAjAAMB0GA1UdDgQWBBQ94c2tTrbPlJVbg4U/d+WaQr8TeTBRBgNVHSME
SjBIgBTKB7xgaDmbFVMu9NMplIBOsGAa/aEapBgwFjEUMBIGA1UEAwwLdGVhbTEw
MS1uZXSCFE5b+PGfcLNCcETLULZUgGYguK2jMBMGA1UdJQQMMAoGCCsGAQUFBwMB
MAsGA1UdDwQEAwIFoDAZBgNVHREEEjAQgg50ZWFtMTAxLXNlcnZlcjANBgkqhkiG
9w0BAQsFAAOCAQEAN5vzPnwzSAg//IjFnISloBN1N3BDw66dX0jL3L1HeNH98Kfy
p7zY+q2Fo/EtdhU5ji3N4IAwS8qdP5UL/Z933ggHQQYndeus3h9d5t2zb1w1CP3g
jNzN7uSFI9jZ4FfLlmJxqZj64HtqAKjWLg27vqigu0nAaWumpKI+/uKKNENYTIDr
Dme+OPWNs6LdmeGd28h6So+jtftfrnQRNoH/T9mh/DfsVl94XaBhQiM4M4QBCSVV
9AvEO/tdTLWtZtYDDNlDbzdzCRnO22iczlV423QervVswmJ6ACIGQDjGFqECkBxv
XokQ+4o+iY5/QmZH8ZIzWINunWP2EHX55Ws70g==
-----END CERTIFICATE-----
