Certificate:
    Data:
        Version: 3 (0x2)
        Serial Number:
            2d:b0:e1:18:cf:d1:cc:a1:86:5f:8f:a3:43:61:c0:62
        Signature Algorithm: sha256WithRSAEncryption
        Issuer: CN=team11-net
        Validity
            Not Before: Nov  3 20:39:28 2023 GMT
            Not After : Oct 18 20:39:28 2026 GMT
        Subject: CN=team11-client
        Subject Public Key Info:
            Public Key Algorithm: rsaEncryption
                Public-Key: (2048 bit)
                Modulus:
                    00:d2:d9:dd:80:9e:60:9a:5f:e9:12:ba:48:40:d5:
                    82:ad:6a:2a:8c:0b:44:3c:48:34:fc:d3:36:ff:b5:
                    64:57:2e:57:12:09:36:22:75:f7:47:30:e8:3d:10:
                    32:ce:28:94:72:d0:49:55:46:16:ed:0d:b4:75:12:
                    4a:82:5c:c5:c8:45:29:ad:13:75:8a:9d:65:36:a1:
                    3c:6b:0c:6b:55:4d:33:50:b0:42:3f:03:66:11:15:
                    e2:c1:a8:ad:23:32:16:31:eb:65:9d:1c:e4:0c:f7:
                    64:74:01:c3:b8:08:51:71:65:5c:9e:df:81:3f:63:
                    a1:75:2c:d0:02:9c:e3:3b:02:26:f2:14:09:1b:e2:
                    98:09:bd:d9:4c:7a:84:6d:63:93:81:b6:26:3f:bb:
                    f5:ad:24:06:f7:1c:ea:08:a5:7e:12:d4:11:e7:9d:
                    38:f4:d1:cb:7c:36:f4:ad:03:65:3c:64:ad:a7:31:
                    fc:4c:f5:f6:7a:4a:31:b2:f1:dc:8a:9b:57:2d:87:
                    ee:45:cc:61:56:83:0b:45:8d:ea:a4:51:64:30:8f:
                    69:0a:1a:01:b3:6b:1d:81:e7:b9:01:97:41:ea:2f:
                    e3:9d:86:84:19:6b:d4:1f:f1:de:25:d5:42:94:e9:
                    d6:de:fe:a2:0e:ac:e0:9b:91:96:ae:9a:d2:75:27:
                    53:d7
                Exponent: 65537 (0x10001)
        X509v3 extensions:
            X509v3 Basic Constraints: 
                CA:FALSE
            X509v3 Subject Key Identifier: 
                C1:F8:9D:A4:E5:07:F6:0F:B4:D8:DF:D4:4B:2B:EF:F0:F6:FC:2A:8A
            X509v3 Authority Key Identifier: 
                keyid:67:77:01:BC:4A:13:3F:E5:FE:F0:49:C0:CB:8E:FC:8B:0C:92:33:C1
                DirName:/CN=team11-net
                serial:52:D2:EB:5A:1B:21:36:C4:FC:01:11:95:06:7C:73:70:F4:6B:6C:9D
            X509v3 Extended Key Usage: 
                TLS Web Client Authentication
            X509v3 Key Usage: 
                Digital Signature
    Signature Algorithm: sha256WithRSAEncryption
    Signature Value:
        a1:d5:a2:c2:34:10:37:63:00:61:f4:54:44:f3:d9:6f:bc:b8:
        4e:6e:40:21:41:ba:0d:8e:58:fd:2c:62:da:68:d5:ee:67:e0:
        36:9b:b5:49:9e:de:05:0c:34:eb:98:c0:d9:d5:7e:4e:fd:da:
        2a:b5:95:2b:fb:7c:8c:bf:5e:5c:c8:1c:d7:a6:1d:fb:ba:7b:
        62:f2:74:90:23:12:44:0f:0d:0c:5b:8d:ca:7f:ef:b6:c6:8c:
        69:0f:d4:fd:57:10:7d:2c:5f:7e:91:b4:21:16:e4:31:e8:73:
        1e:29:72:0c:cb:18:19:48:c3:84:3b:0a:5a:ac:b6:5c:bc:b3:
        99:32:b9:b5:9a:3c:dc:23:3c:74:02:f5:26:da:f5:6c:82:fd:
        ec:52:3e:63:b8:14:34:33:f2:18:b8:05:21:50:e6:6c:d1:64:
        32:d2:d3:93:5f:bf:19:c4:af:1b:07:c6:69:76:4b:62:11:ff:
        bc:83:07:87:e9:81:85:e1:a6:9d:c0:e4:58:90:4c:15:cb:89:
        15:84:02:36:bc:b7:e2:5d:04:fb:73:be:05:4c:6b:38:ad:c6:
        85:e5:a0:52:8d:81:0b:8d:30:0e:be:40:fb:ea:7b:0d:13:85:
        c3:bb:19:51:06:6c:81:06:c4:21:23:81:08:11:d4:3d:27:ee:
        e7:f6:25:bd
-----BEGIN CERTIFICATE-----
MIIDWTCCAkGgAwIBAgIQLbDhGM/RzKGGX4+jQ2HAYjANBgkqhkiG9w0BAQsFADAV
MRMwEQYDVQQDDAp0ZWFtMTEtbmV0MB4XDTIzMTEwMzIwMzkyOFoXDTI2MTAxODIw
MzkyOFowGDEWMBQGA1UEAwwNdGVhbTExLWNsaWVudDCCASIwDQYJKoZIhvcNAQEB
BQADggEPADCCAQoCggEBANLZ3YCeYJpf6RK6SEDVgq1qKowLRDxINPzTNv+1ZFcu
VxIJNiJ190cw6D0QMs4olHLQSVVGFu0NtHUSSoJcxchFKa0TdYqdZTahPGsMa1VN
M1CwQj8DZhEV4sGorSMyFjHrZZ0c5Az3ZHQBw7gIUXFlXJ7fgT9joXUs0AKc4zsC
JvIUCRvimAm92Ux6hG1jk4G2Jj+79a0kBvcc6gilfhLUEeedOPTRy3w29K0DZTxk
racx/Ez19npKMbLx3IqbVy2H7kXMYVaDC0WN6qRRZDCPaQoaAbNrHYHnuQGXQeov
452GhBlr1B/x3iXVQpTp1t7+og6s4JuRlq6a0nUnU9cCAwEAAaOBoTCBnjAJBgNV
HRMEAjAAMB0GA1UdDgQWBBTB+J2k5Qf2D7TY39RLK+/w9vwqijBQBgNVHSMESTBH
gBRndwG8ShM/5f7wScDLjvyLDJIzwaEZpBcwFTETMBEGA1UEAwwKdGVhbTExLW5l
dIIUUtLrWhshNsT8ARGVBnxzcPRrbJ0wEwYDVR0lBAwwCgYIKwYBBQUHAwIwCwYD
VR0PBAQDAgeAMA0GCSqGSIb3DQEBCwUAA4IBAQCh1aLCNBA3YwBh9FRE89lvvLhO
bkAhQboNjlj9LGLaaNXuZ+A2m7VJnt4FDDTrmMDZ1X5O/doqtZUr+3yMv15cyBzX
ph37unti8nSQIxJEDw0MW43Kf++2xoxpD9T9VxB9LF9+kbQhFuQx6HMeKXIMyxgZ
SMOEOwparLZcvLOZMrm1mjzcIzx0AvUm2vVsgv3sUj5juBQ0M/IYuAUhUOZs0WQy
0tOTX78ZxK8bB8ZpdktiEf+8gweH6YGF4aadwORYkEwVy4kVhAI2vLfiXQT7c74F
TGs4rcaF5aBSjYELjTAOvkD76nsNE4XDuxlRBmyBBsQhI4EIEdQ9J+7n9iW9
-----END CERTIFICATE-----
