Certificate:
    Data:
        Version: 3 (0x2)
        Serial Number:
            4d:0c:3c:d7:e5:04:72:2b:04:cf:f8:7d:ed:28:4d:d9
        Signature Algorithm: sha256WithRSAEncryption
        Issuer: CN=team11-net
        Validity
            Not Before: Nov  3 20:39:28 2023 GMT
            Not After : Oct 18 20:39:28 2026 GMT
        Subject: CN=team11-server
        Subject Public Key Info:
            Public Key Algorithm: rsaEncryption
                Public-Key: (2048 bit)
                Modulus:
                    00:e6:41:65:2e:3a:6d:f9:bd:a7:23:bb:3a:f7:01:
                    4b:b9:99:bd:fa:98:52:1f:88:91:4c:73:d8:9e:1f:
                    83:89:95:af:e5:85:5c:b6:78:f7:69:18:e9:96:94:
                    50:9d:f9:5d:54:bd:06:76:6a:00:02:8b:22:50:67:
                    5d:a2:90:54:c5:6f:be:55:49:10:7c:7f:b6:54:11:
                    90:38:33:8e:a3:33:d1:d7:37:79:fd:cd:e0:8e:17:
                    32:d6:b9:68:2c:8d:4b:a4:ce:18:d8:b8:bd:7a:7c:
                    33:76:d4:75:43:54:e6:96:ce:9f:91:4c:82:e3:ad:
                    0a:d5:a9:bc:40:41:46:33:ca:4e:27:1f:18:42:ae:
                    9c:6b:1b:28:73:bc:2f:2e:ab:e9:ed:f0:e8:50:34:
                    05:30:cf:d9:b5:fb:a4:96:cd:30:aa:4a:0b:fa:fd:
                    b2:cb:97:41:d3:de:3d:d2:19:0f:70:ae:d9:07:3b:
                    c6:25:65:34:f9:e9:0f:e8:cb:7b:50:bb:70:2e:7a:
                    d6:91:8b:13:23:a1:ee:d4:98:58:5d:86:5e:ca:2d:
                    cb:89:f1:dc:f6:f2:a8:6e:50:74:86:ae:b0:f1:48:
                    d7:fb:2d:f6:17:a8:97:c8:6b:7b:36:c8:a9:44:74:
                    e5:05:64:c8:af:ab:fd:74:57:6f:ea:73:fd:82:6a:
                    ca:09
                Exponent: 65537 (0x10001)
        X509v3 extensions:
            X509v3 Basic Constraints: 
                CA:FALSE
            X509v3 Subject Key Identifier: 
                C1:AA:96:9D:BB:89:39:B3:51:60:96:93:87:40:F0:49:E4:0E:B8:C3
            X509v3 Authority Key Identifier: 
                keyid:67:77:01:BC:4A:13:3F:E5:FE:F0:49:C0:CB:8E:FC:8B:0C:92:33:C1
                DirName:/CN=team11-net
                serial:52:D2:EB:5A:1B:21:36:C4:FC:01:11:95:06:7C:73:70:F4:6B:6C:9D
            X509v3 Extended Key Usage: 
                TLS Web Server Authentication
            X509v3 Key Usage: 
                Digital Signature, Key Encipherment
            X509v3 Subject Alternative Name: 
                DNS:team11-server
    Signature Algorithm: sha256WithRSAEncryption
    Signature Value:
        2e:55:da:27:3b:53:0b:82:ce:6c:17:b8:1d:b1:07:05:c7:f2:
        63:c3:8a:a7:1f:d2:16:40:0f:6c:e9:42:48:e1:b8:ce:a1:ea:
        ab:1d:d3:4a:79:00:b6:7d:47:79:45:c7:c2:ff:56:0a:36:6b:
        35:83:eb:3c:18:77:27:31:e9:1b:56:c0:67:30:be:ec:c8:71:
        fc:15:cc:0e:4c:2d:a2:96:c2:b4:45:12:16:2f:8e:30:af:cb:
        24:5e:d7:b2:e8:35:c9:a2:63:32:21:3b:ea:28:fa:c4:da:7a:
        7b:f4:57:f7:67:5b:c5:e6:a6:fc:c6:37:b9:3f:d4:38:8c:22:
        31:48:49:ee:86:f3:3e:f9:e6:61:5c:98:49:6a:de:1e:c5:85:
        b6:12:ae:94:0d:be:ea:79:7d:81:d9:2f:70:7b:ed:b2:4f:3e:
        12:1c:8f:27:13:48:14:be:0f:9d:3d:3a:ee:92:3a:7b:dd:8d:
        32:3b:cf:b0:c5:4f:7a:b7:c4:ad:30:76:89:ab:95:14:d6:40:
        8b:08:93:34:4c:5e:88:27:3b:96:53:2e:69:d0:b0:42:23:61:
        64:5f:ab:a1:6f:a1:2b:26:47:27:21:d9:92:c1:09:f0:27:47:
        95:63:4b:67:80:36:c7:4e:c3:3d:8e:a0:87:ba:9e:fc:43:61:
        50:bb:2a:29
-----BEGIN CERTIFICATE-----
MIIDczCCAlugAwIBAgIQTQw81+UEcisEz/h97ShN2TANBgkqhkiG9w0BAQsFADAV
MRMwEQYDVQQDDAp0ZWFtMTEtbmV0MB4XDTIzMTEwMzIwMzkyOFoXDTI2MTAxODIw
MzkyOFowGDEWMBQGA1UEAwwNdGVhbTExLXNlcnZlcjCCASIwDQYJKoZIhvcNAQEB
BQADggEPADCCAQoCggEBAOZBZS46bfm9pyO7OvcBS7mZvfqYUh+IkUxz2J4fg4mV
r+WFXLZ492kY6ZaUUJ35XVS9BnZqAAKLIlBnXaKQVMVvvlVJEHx/tlQRkDgzjqMz
0dc3ef3N4I4XMta5aCyNS6TOGNi4vXp8M3bUdUNU5pbOn5FMguOtCtWpvEBBRjPK
TicfGEKunGsbKHO8Ly6r6e3w6FA0BTDP2bX7pJbNMKpKC/r9ssuXQdPePdIZD3Cu
2Qc7xiVlNPnpD+jLe1C7cC561pGLEyOh7tSYWF2GXsoty4nx3PbyqG5QdIausPFI
1/st9heol8hrezbIqUR05QVkyK+r/XRXb+pz/YJqygkCAwEAAaOBuzCBuDAJBgNV
HRMEAjAAMB0GA1UdDgQWBBTBqpadu4k5s1FglpOHQPBJ5A64wzBQBgNVHSMESTBH
gBRndwG8ShM/5f7wScDLjvyLDJIzwaEZpBcwFTETMBEGA1UEAwwKdGVhbTExLW5l
dIIUUtLrWhshNsT8ARGVBnxzcPRrbJ0wEwYDVR0lBAwwCgYIKwYBBQUHAwEwCwYD
VR0PBAQDAgWgMBgGA1UdEQQRMA+CDXRlYW0xMS1zZXJ2ZXIwDQYJKoZIhvcNAQEL
BQADggEBAC5V2ic7UwuCzmwXuB2xBwXH8mPDiqcf0hZAD2zpQkjhuM6h6qsd00p5
ALZ9R3lFx8L/Vgo2azWD6zwYdycx6RtWwGcwvuzIcfwVzA5MLaKWwrRFEhYvjjCv
yyRe17LoNcmiYzIhO+oo+sTaenv0V/dnW8XmpvzGN7k/1DiMIjFISe6G8z755mFc
mElq3h7FhbYSrpQNvup5fYHZL3B77bJPPhIcjycTSBS+D509Ou6SOnvdjTI7z7DF
T3q3xK0wdomrlRTWQIsIkzRMXognO5ZTLmnQsEIjYWRfq6FvoSsmRych2ZLBCfAn
R5VjS2eANsdOwz2OoIe6nvxDYVC7Kik=
-----END CERTIFICATE-----
