Certificate:
    Data:
        Version: 3 (0x2)
        Serial Number:
            61:83:99:cc:e3:a4:0b:4b:f1:54:d0:67:46:ba:5c:a5
        Signature Algorithm: sha256WithRSAEncryption
        Issuer: CN=team11-net
        Validity
            Not Before: Nov  4 10:40:24 2023 GMT
            Not After : Oct 19 10:40:24 2026 GMT
        Subject: CN=team11-client
        Subject Public Key Info:
            Public Key Algorithm: rsaEncryption
                Public-Key: (2048 bit)
                Modulus:
                    00:83:f5:c2:9e:db:b5:70:57:35:a3:a1:be:52:18:
                    20:8a:cc:c7:b6:01:c2:86:ff:44:46:1d:ad:28:34:
                    d5:8e:5b:03:72:ea:d8:26:e6:13:06:9b:97:f9:35:
                    9f:c3:c4:f2:97:51:e4:31:fa:d5:97:3c:96:92:d2:
                    32:69:40:70:d2:65:84:a0:57:79:80:54:df:0c:f1:
                    bb:6e:31:a5:8d:e6:9a:bb:52:b1:de:b9:7a:af:91:
                    66:ec:11:35:3b:72:3f:c3:e6:eb:08:2d:d8:45:32:
                    27:bd:a4:b1:be:71:10:03:df:32:a6:e8:a0:53:39:
                    9a:c8:97:9e:a7:30:79:ea:25:9a:26:cd:80:86:5c:
                    4b:62:8f:06:85:53:88:d1:d6:8c:f1:f1:9a:0d:e6:
                    76:3a:a9:c7:15:4e:5b:91:e4:30:7c:00:5f:c5:4e:
                    0d:9d:d1:11:c9:c8:b0:ec:21:f0:ba:ea:cb:f5:5b:
                    86:db:6d:5f:6c:09:ad:ce:c1:0a:a0:18:d8:5d:b0:
                    28:5e:14:8c:d5:b3:f5:44:cb:3b:46:23:63:17:04:
                    0b:b1:85:71:8c:d6:78:10:6e:d7:8d:80:05:45:3f:
                    f0:87:d4:25:60:ec:1e:6c:08:31:d2:5f:21:2a:e4:
                    a8:89:5a:45:42:32:0f:31:55:4c:65:14:60:64:5d:
                    f9:3b
                Exponent: 65537 (0x10001)
        X509v3 extensions:
            X509v3 Basic Constraints: 
                CA:FALSE
            X509v3 Subject Key Identifier: 
                BD:ED:E4:29:11:06:5E:02:9D:BE:AC:52:86:C0:86:2E:F0:7A:39:28
            X509v3 Authority Key Identifier: 
                keyid:FD:17:E7:C2:98:AF:33:90:66:3C:28:16:BD:1B:25:08:0D:FD:B2:41
                DirName:/CN=team11-net
                serial:7D:0D:D2:B3:AA:6E:7B:FB:1B:29:DA:E5:71:42:D8:41:F3:05:30:FC
            X509v3 Extended Key Usage: 
                TLS Web Client Authentication
            X509v3 Key Usage: 
                Digital Signature
    Signature Algorithm: sha256WithRSAEncryption
    Signature Value:
        39:57:64:9d:41:ad:35:ab:b5:9a:d2:ab:ad:39:16:41:76:26:
        fd:13:60:39:aa:ca:59:53:d2:6f:29:d8:1c:58:9d:6f:a0:8a:
        8c:51:48:d3:28:4c:3f:f9:74:89:12:4c:70:a0:10:6d:ce:68:
        66:bb:d3:17:11:b4:3e:e5:b4:bd:7c:3d:11:20:8e:9c:55:54:
        bc:ed:0b:ec:16:bb:9c:29:16:71:8e:cf:58:a5:ec:8e:43:d0:
        5b:18:27:e9:f4:3d:50:fa:f3:31:ba:94:0e:de:e5:a3:98:53:
        3c:94:02:c2:8a:90:92:d0:a0:2d:d5:e4:40:34:80:e0:2f:99:
        a5:30:dd:59:28:f9:1e:ea:96:39:cd:0c:ab:de:2d:0b:9b:ac:
        30:b8:dd:a3:84:83:14:52:51:dd:c6:06:32:87:85:8c:d1:dd:
        4c:62:42:e5:83:90:19:97:3c:0b:ff:aa:42:51:04:1f:e1:64:
        79:8f:de:a6:99:8d:95:1f:c0:0e:c9:08:4b:22:c9:8d:85:70:
        d7:be:e8:22:ce:e6:e0:23:88:de:ab:47:af:a8:2f:77:46:ed:
        a2:2f:b5:fa:4d:06:fd:b4:bc:79:f1:28:2d:03:37:36:b9:0e:
        1f:88:7f:a1:40:c3:74:7b:25:3a:61:4b:1a:9e:04:78:a8:9a:
        1c:0e:b0:0d
-----BEGIN CERTIFICATE-----
MIIDWTCCAkGgAwIBAgIQYYOZzOOkC0vxVNBnRrpcpTANBgkqhkiG9w0BAQsFADAV
MRMwEQYDVQQDDAp0ZWFtMTEtbmV0MB4XDTIzMTEwNDEwNDAyNFoXDTI2MTAxOTEw
NDAyNFowGDEWMBQGA1UEAwwNdGVhbTExLWNsaWVudDCCASIwDQYJKoZIhvcNAQEB
BQADggEPADCCAQoCggEBAIP1wp7btXBXNaOhvlIYIIrMx7YBwob/REYdrSg01Y5b
A3Lq2CbmEwabl/k1n8PE8pdR5DH61Zc8lpLSMmlAcNJlhKBXeYBU3wzxu24xpY3m
mrtSsd65eq+RZuwRNTtyP8Pm6wgt2EUyJ72ksb5xEAPfMqbooFM5msiXnqcweeol
mibNgIZcS2KPBoVTiNHWjPHxmg3mdjqpxxVOW5HkMHwAX8VODZ3REcnIsOwh8Lrq
y/VbhtttX2wJrc7BCqAY2F2wKF4UjNWz9UTLO0YjYxcEC7GFcYzWeBBu142ABUU/
8IfUJWDsHmwIMdJfISrkqIlaRUIyDzFVTGUUYGRd+TsCAwEAAaOBoTCBnjAJBgNV
HRMEAjAAMB0GA1UdDgQWBBS97eQpEQZeAp2+rFKGwIYu8Ho5KDBQBgNVHSMESTBH
gBT9F+fCmK8zkGY8KBa9GyUIDf2yQaEZpBcwFTETMBEGA1UEAwwKdGVhbTExLW5l
dIIUfQ3Ss6pue/sbKdrlcULYQfMFMPwwEwYDVR0lBAwwCgYIKwYBBQUHAwIwCwYD
VR0PBAQDAgeAMA0GCSqGSIb3DQEBCwUAA4IBAQA5V2SdQa01q7Wa0qutORZBdib9
E2A5qspZU9JvKdgcWJ1voIqMUUjTKEw/+XSJEkxwoBBtzmhmu9MXEbQ+5bS9fD0R
II6cVVS87QvsFrucKRZxjs9YpeyOQ9BbGCfp9D1Q+vMxupQO3uWjmFM8lALCipCS
0KAt1eRANIDgL5mlMN1ZKPke6pY5zQyr3i0Lm6wwuN2jhIMUUlHdxgYyh4WM0d1M
YkLlg5AZlzwL/6pCUQQf4WR5j96mmY2VH8AOyQhLIsmNhXDXvugizubgI4jeq0ev
qC93Ru2iL7X6TQb9tLx58SgtAzc2uQ4fiH+hQMN0eyU6YUsangR4qJocDrAN
-----END CERTIFICATE-----
