Certificate:
    Data:
        Version: 3 (0x2)
        Serial Number:
            6b:1b:a4:3d:71:0c:23:7c:58:2f:16:96:96:8c:8f:80
        Signature Algorithm: sha256WithRSAEncryption
        Issuer: CN=team11-net
        Validity
            Not Before: Oct 31 16:30:21 2023 GMT
            Not After : Oct 15 16:30:21 2026 GMT
        Subject: CN=team11-client
        Subject Public Key Info:
            Public Key Algorithm: rsaEncryption
                Public-Key: (2048 bit)
                Modulus:
                    00:bd:a4:74:43:64:49:e3:83:33:8c:bd:32:57:e4:
                    bb:89:47:86:a7:7b:a2:5f:d9:69:57:de:96:ad:72:
                    cb:3a:85:df:d8:62:05:66:9f:af:ad:fa:c1:a3:cd:
                    68:58:f3:6d:aa:81:4d:6d:cc:fb:62:1d:44:3b:d5:
                    fc:ef:9b:c4:46:83:6b:36:64:e7:91:34:7e:82:40:
                    6d:99:70:b5:2d:ff:82:ec:38:50:1d:06:c8:0d:e0:
                    fb:83:cf:e9:a7:b8:07:14:49:13:a0:c2:5a:2e:17:
                    0b:ff:1b:bb:92:14:a1:ee:b9:79:73:c6:f6:59:3d:
                    18:17:ac:28:88:85:c6:7c:76:51:db:4b:2c:2d:72:
                    e2:ae:7c:00:82:4c:34:a3:86:aa:2b:8c:b3:e1:8e:
                    7c:c4:c4:99:c5:e5:8a:e1:1a:0d:8f:7e:c6:ff:6e:
                    3b:77:0b:a4:5f:d8:28:be:db:34:07:30:b0:cc:f2:
                    74:68:a9:22:a5:41:fe:71:ee:cf:e4:8c:ea:fa:f4:
                    48:92:8c:63:21:50:52:5d:e9:87:83:90:81:6f:9a:
                    34:aa:41:44:ed:5c:2c:6c:92:42:ea:1d:d8:42:bc:
                    f0:7d:7e:0f:ab:39:77:c5:00:53:4c:45:76:dc:76:
                    f9:68:13:20:4d:da:a8:09:36:d6:c8:b6:70:ee:85:
                    7b:45
                Exponent: 65537 (0x10001)
        X509v3 extensions:
            X509v3 Basic Constraints: 
                CA:FALSE
            X509v3 Subject Key Identifier: 
                DA:AE:47:10:E2:72:58:6A:05:BD:05:16:89:A3:9B:31:42:E8:E2:06
            X509v3 Authority Key Identifier: 
                keyid:9A:D0:C0:F1:F2:D0:9A:0C:B1:7A:9D:08:C8:B4:67:FB:D2:4C:9D:FD
                DirName:/CN=team11-net
                serial:3F:86:66:A3:33:B5:0F:94:15:11:B2:4F:E7:B6:16:7E:0D:8F:6A:F9
            X509v3 Extended Key Usage: 
                TLS Web Client Authentication
            X509v3 Key Usage: 
                Digital Signature
    Signature Algorithm: sha256WithRSAEncryption
    Signature Value:
        d3:fa:f8:ef:78:8b:de:4f:e0:04:d1:91:02:17:25:72:a0:f9:
        b3:54:75:ee:b8:fd:e9:1c:d8:f4:c8:2b:ad:2d:1d:f3:b9:03:
        39:12:e1:e2:ba:71:52:06:e2:90:7a:ad:be:b5:18:3f:6e:4b:
        70:1a:fa:77:e6:4f:1b:f3:fd:51:3f:2d:76:d1:a9:4e:0e:a6:
        c0:c7:f5:88:82:53:55:7e:7f:28:e4:a0:58:0a:69:6f:42:f3:
        1d:44:14:3e:c3:41:fe:45:48:37:45:14:b8:b7:36:e4:c7:80:
        d0:11:5d:72:e5:9f:fc:29:a3:90:da:f0:18:7c:17:8c:ee:67:
        1d:39:76:9a:50:b8:dc:2c:a6:9e:32:77:68:91:e8:35:d3:7b:
        81:31:ee:09:c0:aa:10:b8:ac:2c:74:07:68:0c:28:02:0a:b2:
        80:21:7f:ad:c5:70:94:73:b9:f3:ff:24:16:de:ad:67:fb:bc:
        00:2d:c7:58:64:f5:28:56:5f:eb:8c:b2:65:68:b5:52:96:b0:
        50:82:78:95:c8:a4:34:89:8a:15:b5:8e:16:3b:00:0d:6a:bc:
        e1:12:b3:e4:ce:58:58:be:3a:1f:e1:f8:b7:9f:fb:fe:da:4b:
        9a:1d:e8:c7:b4:21:3c:7c:02:9a:ca:9f:a9:bd:3a:44:08:a6:
        d5:a6:f0:32
-----BEGIN CERTIFICATE-----
MIIDWTCCAkGgAwIBAgIQaxukPXEMI3xYLxaWloyPgDANBgkqhkiG9w0BAQsFADAV
MRMwEQYDVQQDDAp0ZWFtMTEtbmV0MB4XDTIzMTAzMTE2MzAyMVoXDTI2MTAxNTE2
MzAyMVowGDEWMBQGA1UEAwwNdGVhbTExLWNsaWVudDCCASIwDQYJKoZIhvcNAQEB
BQADggEPADCCAQoCggEBAL2kdENkSeODM4y9Mlfku4lHhqd7ol/ZaVfelq1yyzqF
39hiBWafr636waPNaFjzbaqBTW3M+2IdRDvV/O+bxEaDazZk55E0foJAbZlwtS3/
guw4UB0GyA3g+4PP6ae4BxRJE6DCWi4XC/8bu5IUoe65eXPG9lk9GBesKIiFxnx2
UdtLLC1y4q58AIJMNKOGqiuMs+GOfMTEmcXliuEaDY9+xv9uO3cLpF/YKL7bNAcw
sMzydGipIqVB/nHuz+SM6vr0SJKMYyFQUl3ph4OQgW+aNKpBRO1cLGySQuod2EK8
8H1+D6s5d8UAU0xFdtx2+WgTIE3aqAk21si2cO6Fe0UCAwEAAaOBoTCBnjAJBgNV
HRMEAjAAMB0GA1UdDgQWBBTarkcQ4nJYagW9BRaJo5sxQujiBjBQBgNVHSMESTBH
gBSa0MDx8tCaDLF6nQjItGf70kyd/aEZpBcwFTETMBEGA1UEAwwKdGVhbTExLW5l
dIIUP4ZmozO1D5QVEbJP57YWfg2PavkwEwYDVR0lBAwwCgYIKwYBBQUHAwIwCwYD
VR0PBAQDAgeAMA0GCSqGSIb3DQEBCwUAA4IBAQDT+vjveIveT+AE0ZECFyVyoPmz
VHXuuP3pHNj0yCutLR3zuQM5EuHiunFSBuKQeq2+tRg/bktwGvp35k8b8/1RPy12
0alODqbAx/WIglNVfn8o5KBYCmlvQvMdRBQ+w0H+RUg3RRS4tzbkx4DQEV1y5Z/8
KaOQ2vAYfBeM7mcdOXaaULjcLKaeMndokeg103uBMe4JwKoQuKwsdAdoDCgCCrKA
IX+txXCUc7nz/yQW3q1n+7wALcdYZPUoVl/rjLJlaLVSlrBQgniVyKQ0iYoVtY4W
OwANarzhErPkzlhYvjof4fi3n/v+2kuaHejHtCE8fAKayp+pvTpECKbVpvAy
-----END CERTIFICATE-----
