Certificate:
    Data:
        Version: 3 (0x2)
        Serial Number:
            72:3f:09:ea:e7:8e:71:95:21:e1:7a:be:bc:bf:a6:49
        Signature Algorithm: sha256WithRSAEncryption
        Issuer: CN=team11-net
        Validity
            Not Before: Nov  4 10:40:24 2023 GMT
            Not After : Oct 19 10:40:24 2026 GMT
        Subject: CN=team11-server
        Subject Public Key Info:
            Public Key Algorithm: rsaEncryption
                Public-Key: (2048 bit)
                Modulus:
                    00:bf:4b:25:ff:62:50:ac:4f:12:23:62:5b:8a:1c:
                    16:92:2b:8e:07:6c:33:4a:41:a7:da:9e:fb:af:3c:
                    d9:70:ab:f2:49:e5:a6:61:04:01:84:2a:36:d9:fb:
                    30:0d:4e:9c:b2:c0:6d:5a:cb:0c:78:3f:fb:48:a9:
                    bc:25:6c:72:e9:b1:04:2c:84:56:91:f6:10:00:9f:
                    c0:a3:29:99:d9:b3:55:8f:e7:d8:8b:52:96:32:6a:
                    03:b1:ae:db:b7:09:df:72:f6:1d:c5:3e:c1:80:f0:
                    7a:00:ff:bc:b7:d1:1e:9f:23:32:72:3d:37:7d:fd:
                    70:03:81:7d:0c:00:f8:c4:48:98:53:21:d9:42:00:
                    37:7a:4a:1e:da:91:14:0a:79:f1:d3:8c:eb:ce:91:
                    eb:14:48:2a:a7:c8:4c:94:4c:cb:f7:14:bc:e4:63:
                    6d:12:4e:54:cd:7d:d0:d6:84:e3:28:52:fe:99:d5:
                    5b:da:10:f6:6a:6f:34:33:bb:74:30:bd:a9:80:ce:
                    7c:80:07:10:eb:ad:2a:e3:18:02:03:36:6c:f1:0d:
                    4b:d8:e5:ec:28:0d:d9:d3:40:6d:de:06:b1:32:13:
                    c0:bd:22:c4:33:f5:f6:31:22:ef:a8:43:fc:20:b1:
                    7e:bc:7b:a6:6d:b8:d9:eb:ae:4c:64:64:1b:72:b3:
                    a2:f3
                Exponent: 65537 (0x10001)
        X509v3 extensions:
            X509v3 Basic Constraints: 
                CA:FALSE
            X509v3 Subject Key Identifier: 
                73:E2:B3:0A:C0:CC:29:13:65:F2:21:EF:C5:5D:9E:B6:46:2E:F5:74
            X509v3 Authority Key Identifier: 
                keyid:FD:17:E7:C2:98:AF:33:90:66:3C:28:16:BD:1B:25:08:0D:FD:B2:41
                DirName:/CN=team11-net
                serial:7D:0D:D2:B3:AA:6E:7B:FB:1B:29:DA:E5:71:42:D8:41:F3:05:30:FC
            X509v3 Extended Key Usage: 
                TLS Web Server Authentication
            X509v3 Key Usage: 
                Digital Signature, Key Encipherment
            X509v3 Subject Alternative Name: 
                DNS:team11-server
    Signature Algorithm: sha256WithRSAEncryption
    Signature Value:
        0d:d7:be:87:66:fe:aa:60:f9:30:b2:6c:cb:eb:af:56:5d:81:
        05:57:5c:43:87:b2:fe:c3:bf:94:82:74:f0:e4:2e:1e:81:b2:
        5c:4e:e2:c8:33:01:dd:cd:14:92:df:ae:71:d5:0f:2c:db:2a:
        f4:ed:bc:89:de:c9:97:c9:94:f9:c7:a9:8d:18:39:1e:cd:dd:
        88:3f:4e:8f:20:66:12:e5:e3:bc:81:a5:49:34:f8:8e:e6:5f:
        0a:5c:e2:28:4f:c0:6e:8e:7e:ec:f7:d9:1f:da:2a:6c:2b:77:
        89:fd:23:b5:93:b8:eb:04:8e:ea:4d:74:fd:5e:f1:fa:cb:29:
        61:d5:62:b6:ee:b8:d2:a6:64:55:e0:cd:03:ad:f8:95:86:db:
        18:5f:62:1c:0b:18:45:88:f4:29:b2:2e:12:ca:2c:75:83:71:
        5b:f1:af:23:7d:e4:43:6e:f0:87:66:30:82:e7:c5:8f:5a:2b:
        99:08:cf:7e:cb:82:89:5c:6c:02:fd:9e:1b:f0:69:c3:33:9f:
        8a:33:16:3f:c8:a8:4a:fa:67:f6:26:b2:0f:91:60:a8:08:81:
        14:c3:f1:0e:20:d1:d8:7e:92:2b:73:e7:aa:8a:d9:8a:8f:f7:
        04:10:2e:a5:d0:b0:98:b1:fc:64:88:88:98:0f:af:25:91:b0:
        f6:3d:5d:1f
-----BEGIN CERTIFICATE-----
MIIDczCCAlugAwIBAgIQcj8J6ueOcZUh4Xq+vL+mSTANBgkqhkiG9w0BAQsFADAV
MRMwEQYDVQQDDAp0ZWFtMTEtbmV0MB4XDTIzMTEwNDEwNDAyNFoXDTI2MTAxOTEw
NDAyNFowGDEWMBQGA1UEAwwNdGVhbTExLXNlcnZlcjCCASIwDQYJKoZIhvcNAQEB
BQADggEPADCCAQoCggEBAL9LJf9iUKxPEiNiW4ocFpIrjgdsM0pBp9qe+6882XCr
8knlpmEEAYQqNtn7MA1OnLLAbVrLDHg/+0ipvCVscumxBCyEVpH2EACfwKMpmdmz
VY/n2ItSljJqA7Gu27cJ33L2HcU+wYDwegD/vLfRHp8jMnI9N339cAOBfQwA+MRI
mFMh2UIAN3pKHtqRFAp58dOM686R6xRIKqfITJRMy/cUvORjbRJOVM190NaE4yhS
/pnVW9oQ9mpvNDO7dDC9qYDOfIAHEOutKuMYAgM2bPENS9jl7CgN2dNAbd4GsTIT
wL0ixDP19jEi76hD/CCxfrx7pm242euuTGRkG3KzovMCAwEAAaOBuzCBuDAJBgNV
HRMEAjAAMB0GA1UdDgQWBBRz4rMKwMwpE2XyIe/FXZ62Ri71dDBQBgNVHSMESTBH
gBT9F+fCmK8zkGY8KBa9GyUIDf2yQaEZpBcwFTETMBEGA1UEAwwKdGVhbTExLW5l
dIIUfQ3Ss6pue/sbKdrlcULYQfMFMPwwEwYDVR0lBAwwCgYIKwYBBQUHAwEwCwYD
VR0PBAQDAgWgMBgGA1UdEQQRMA+CDXRlYW0xMS1zZXJ2ZXIwDQYJKoZIhvcNAQEL
BQADggEBAA3Xvodm/qpg+TCybMvrr1ZdgQVXXEOHsv7Dv5SCdPDkLh6BslxO4sgz
Ad3NFJLfrnHVDyzbKvTtvIneyZfJlPnHqY0YOR7N3Yg/To8gZhLl47yBpUk0+I7m
Xwpc4ihPwG6Ofuz32R/aKmwrd4n9I7WTuOsEjupNdP1e8frLKWHVYrbuuNKmZFXg
zQOt+JWG2xhfYhwLGEWI9CmyLhLKLHWDcVvxryN95ENu8IdmMILnxY9aK5kIz37L
golcbAL9nhvwacMzn4ozFj/IqEr6Z/Ymsg+RYKgIgRTD8Q4g0dh+kitz56qK2YqP
9wQQLqXQsJix/GSIiJgPryWRsPY9XR8=
-----END CERTIFICATE-----
