Certificate:
    Data:
        Version: 3 (0x2)
        Serial Number:
            90:0f:94:fb:ff:f7:8a:95:14:82:2d:14:bc:b1:62:6d
        Signature Algorithm: sha256WithRSAEncryption
        Issuer: CN=team11-net
        Validity
            Not Before: Oct 31 16:30:22 2023 GMT
            Not After : Oct 15 16:30:22 2026 GMT
        Subject: CN=team11-server
        Subject Public Key Info:
            Public Key Algorithm: rsaEncryption
                Public-Key: (2048 bit)
                Modulus:
                    00:b8:71:cb:77:ee:e5:3e:d3:33:9f:8a:c1:f6:91:
                    6b:25:84:75:85:87:26:dd:90:6a:9f:b5:1b:f4:f8:
                    54:2e:c8:65:e2:cf:10:a8:ed:c4:9f:00:75:d9:93:
                    09:53:a3:c7:ee:8c:fb:a8:62:a4:3b:0a:f7:70:a2:
                    ec:ea:07:e9:19:48:e3:71:94:b6:09:e7:33:79:c7:
                    a8:ae:01:7b:1c:0b:ba:d4:51:bd:96:ac:90:66:23:
                    25:d0:e3:fc:f9:91:e4:df:08:7a:22:9e:7e:66:b8:
                    3b:bc:91:44:4c:1a:1f:44:aa:aa:af:06:11:94:05:
                    67:1a:66:5b:63:88:6a:6c:85:1e:21:c0:e3:b1:cf:
                    96:90:f6:9f:e6:4d:39:8b:ee:7d:53:76:c1:94:2d:
                    31:37:dc:5f:bb:00:35:8d:36:02:4e:8e:08:94:4b:
                    81:45:7d:f1:32:13:80:d1:85:15:19:b3:89:5c:03:
                    69:24:92:67:05:62:9d:62:f6:3a:e3:aa:cc:fe:6f:
                    6c:48:46:91:5c:fc:cd:64:d0:df:a2:92:dc:a6:42:
                    45:28:25:6a:df:13:5d:21:73:2d:c2:3f:8d:14:9a:
                    bf:a3:29:98:e5:48:1c:f4:d1:8c:c1:a8:6b:d5:3d:
                    3b:21:16:02:c2:31:a8:6a:7d:07:f8:93:68:14:13:
                    99:77
                Exponent: 65537 (0x10001)
        X509v3 extensions:
            X509v3 Basic Constraints: 
                CA:FALSE
            X509v3 Subject Key Identifier: 
                D1:13:E8:62:4F:CA:3C:29:88:7B:3C:10:C3:30:7C:3B:DD:DD:A2:C4
            X509v3 Authority Key Identifier: 
                keyid:9A:D0:C0:F1:F2:D0:9A:0C:B1:7A:9D:08:C8:B4:67:FB:D2:4C:9D:FD
                DirName:/CN=team11-net
                serial:3F:86:66:A3:33:B5:0F:94:15:11:B2:4F:E7:B6:16:7E:0D:8F:6A:F9
            X509v3 Extended Key Usage: 
                TLS Web Server Authentication
            X509v3 Key Usage: 
                Digital Signature, Key Encipherment
            X509v3 Subject Alternative Name: 
                DNS:team11-server
    Signature Algorithm: sha256WithRSAEncryption
    Signature Value:
        5f:ac:c6:aa:2c:fd:22:b9:da:01:2d:b1:36:d3:57:f7:53:0b:
        dd:49:65:d5:40:19:18:88:50:f1:9a:b9:6e:5c:a1:bb:e9:9d:
        8f:af:d4:63:37:80:d2:5c:d2:4e:09:e3:a1:7c:30:59:6d:3b:
        e1:61:74:eb:13:20:a4:bd:8f:d9:89:d4:14:48:b5:de:82:47:
        33:15:a2:9b:13:64:d5:87:a2:b0:a7:bd:a5:ce:bf:94:5b:e3:
        de:61:cf:c2:b9:c2:eb:f0:63:c3:af:7e:2d:3b:c0:99:f8:22:
        b6:de:35:9e:dc:f8:d8:03:3a:af:ca:08:4f:c2:91:b3:2a:2a:
        b8:12:f2:7f:00:cd:85:9e:3d:55:7d:8a:ae:26:c1:b1:f3:88:
        7b:1e:4f:4b:8f:e2:99:79:3d:f6:d1:0c:fe:70:ad:de:35:e1:
        67:99:e7:d5:ba:f3:f2:ef:2d:e4:7d:e9:cd:37:fe:9c:3a:2a:
        ee:dd:e0:ee:51:ac:78:61:d5:da:79:e2:44:84:d6:6d:42:81:
        63:a5:e8:fc:f2:64:2d:b9:f0:e2:ab:25:5d:b2:c6:e3:25:7b:
        81:d9:d3:fb:0e:a6:61:a2:23:76:1b:b3:a1:e9:79:3e:eb:fd:
        02:ab:2d:31:39:8a:99:45:36:f5:70:82:56:8a:cf:81:66:1f:
        95:39:ad:e2
-----BEGIN CERTIFICATE-----
MIIDdDCCAlygAwIBAgIRAJAPlPv/94qVFIItFLyxYm0wDQYJKoZIhvcNAQELBQAw
FTETMBEGA1UEAwwKdGVhbTExLW5ldDAeFw0yMzEwMzExNjMwMjJaFw0yNjEwMTUx
NjMwMjJaMBgxFjAUBgNVBAMMDXRlYW0xMS1zZXJ2ZXIwggEiMA0GCSqGSIb3DQEB
AQUAA4IBDwAwggEKAoIBAQC4cct37uU+0zOfisH2kWslhHWFhybdkGqftRv0+FQu
yGXizxCo7cSfAHXZkwlTo8fujPuoYqQ7CvdwouzqB+kZSONxlLYJ5zN5x6iuAXsc
C7rUUb2WrJBmIyXQ4/z5keTfCHoinn5muDu8kURMGh9EqqqvBhGUBWcaZltjiGps
hR4hwOOxz5aQ9p/mTTmL7n1TdsGULTE33F+7ADWNNgJOjgiUS4FFffEyE4DRhRUZ
s4lcA2kkkmcFYp1i9jrjqsz+b2xIRpFc/M1k0N+iktymQkUoJWrfE10hcy3CP40U
mr+jKZjlSBz00YzBqGvVPTshFgLCMahqfQf4k2gUE5l3AgMBAAGjgbswgbgwCQYD
VR0TBAIwADAdBgNVHQ4EFgQU0RPoYk/KPCmIezwQwzB8O93dosQwUAYDVR0jBEkw
R4AUmtDA8fLQmgyxep0IyLRn+9JMnf2hGaQXMBUxEzARBgNVBAMMCnRlYW0xMS1u
ZXSCFD+GZqMztQ+UFRGyT+e2Fn4Nj2r5MBMGA1UdJQQMMAoGCCsGAQUFBwMBMAsG
A1UdDwQEAwIFoDAYBgNVHREEETAPgg10ZWFtMTEtc2VydmVyMA0GCSqGSIb3DQEB
CwUAA4IBAQBfrMaqLP0iudoBLbE201f3UwvdSWXVQBkYiFDxmrluXKG76Z2Pr9Rj
N4DSXNJOCeOhfDBZbTvhYXTrEyCkvY/ZidQUSLXegkczFaKbE2TVh6Kwp72lzr+U
W+PeYc/CucLr8GPDr34tO8CZ+CK23jWe3PjYAzqvyghPwpGzKiq4EvJ/AM2Fnj1V
fYquJsGx84h7Hk9Lj+KZeT320Qz+cK3eNeFnmefVuvPy7y3kfenNN/6cOiru3eDu
Uax4YdXaeeJEhNZtQoFjpej88mQtufDiqyVdssbjJXuB2dP7DqZhoiN2G7Oh6Xk+
6/0Cqy0xOYqZRTb1cIJWis+BZh+VOa3i
-----END CERTIFICATE-----
