Certificate:
    Data:
        Version: 3 (0x2)
        Serial Number:
            50:29:dd:bf:bc:94:42:33:13:5e:83:93:bc:fc:28:38
        Signature Algorithm: sha256WithRSAEncryption
        Issuer: CN=team296-net
        Validity
            Not Before: Nov  4 11:33:47 2023 GMT
            Not After : Oct 19 11:33:47 2026 GMT
        Subject: CN=team296-server
        Subject Public Key Info:
            Public Key Algorithm: rsaEncryption
                Public-Key: (2048 bit)
                Modulus:
                    00:b6:82:d5:bc:24:52:82:d0:38:02:c6:1d:84:e3:
                    44:27:cc:c0:af:be:87:06:d6:64:7b:ce:4e:26:b6:
                    ca:32:57:de:45:91:8b:18:08:6e:ae:3c:d6:2b:13:
                    53:37:33:13:4f:d5:34:24:f7:02:58:b8:68:1a:49:
                    6a:e5:c5:8f:ea:20:f9:ca:eb:0c:b3:82:41:7c:3b:
                    e9:7e:67:d2:45:81:b1:33:46:2a:e9:c5:f8:17:e1:
                    b9:82:01:cd:bb:de:cd:64:05:ee:12:2b:a8:41:e3:
                    ba:d7:36:16:ee:32:95:c4:65:21:4b:ed:7c:ab:c2:
                    09:98:58:56:8d:14:27:91:61:e0:c7:ce:c6:17:67:
                    15:c3:39:42:a7:90:c0:7c:84:f5:eb:d0:4d:1c:e4:
                    76:fb:c2:df:53:f9:82:19:48:35:28:e7:01:da:95:
                    28:16:28:8e:2c:8c:12:50:e6:84:ed:66:10:ba:ad:
                    9d:72:c1:e8:de:e9:37:c7:ea:d0:01:f6:1f:03:91:
                    3d:85:ec:e5:eb:f0:d2:90:0e:bc:2b:a9:9d:22:19:
                    eb:eb:52:30:90:a6:35:ca:3a:73:a9:73:dc:1f:2d:
                    fb:39:31:46:30:d1:d9:4f:72:20:e6:4f:6f:c7:97:
                    08:30:d8:04:7b:76:c8:46:80:fd:aa:79:9e:d5:83:
                    b4:39
                Exponent: 65537 (0x10001)
        X509v3 extensions:
            X509v3 Basic Constraints: 
                CA:FALSE
            X509v3 Subject Key Identifier: 
                46:74:FD:72:07:F7:16:6A:16:70:A6:24:70:25:DF:0D:41:04:B9:9E
            X509v3 Authority Key Identifier: 
                keyid:05:86:A4:C1:AE:7F:6E:BA:94:E5:24:EE:B8:08:11:B4:2F:66:14:AE
                DirName:/CN=team296-net
                serial:6F:4D:0A:A1:9A:B2:11:16:EE:17:CD:DA:A8:CF:E0:70:69:70:C8:24
            X509v3 Extended Key Usage: 
                TLS Web Server Authentication
            X509v3 Key Usage: 
                Digital Signature, Key Encipherment
            X509v3 Subject Alternative Name: 
                DNS:team296-server
    Signature Algorithm: sha256WithRSAEncryption
    Signature Value:
        3e:67:34:5c:56:c7:67:e5:6c:ea:fd:5c:8f:ec:ec:6e:f7:cd:
        33:81:79:e5:fe:a9:d7:0c:a1:42:44:80:13:e9:6c:22:ac:35:
        2a:27:4e:0b:44:b0:e0:b4:6a:ab:9e:b1:9f:63:46:14:22:f2:
        7a:47:37:9e:cf:b0:58:67:aa:28:5f:88:ad:a1:bb:ad:9d:37:
        50:73:13:39:ce:5d:36:32:bd:e9:58:eb:4b:26:91:d9:07:32:
        01:96:4a:78:40:cc:03:fd:a0:c7:72:5e:6e:d9:c4:5a:50:8a:
        0d:b9:c3:59:97:ed:e5:aa:23:3d:d0:61:d3:71:4c:c6:ae:3c:
        3e:5c:5b:ab:99:27:8b:e0:c7:46:74:69:be:6e:68:3f:b4:aa:
        27:87:8a:16:0b:79:45:8d:56:03:47:53:4b:61:a1:f1:58:18:
        62:70:b4:63:64:03:18:b6:f0:05:86:42:b6:3d:a1:8e:3c:6f:
        4f:7c:f0:ee:5a:ef:49:04:64:73:ac:73:63:d7:f9:62:00:f9:
        0c:a8:32:15:83:d8:31:9a:fd:9e:ed:6d:3c:ec:ff:e7:93:a3:
        74:6e:a5:50:44:6c:fe:f4:44:94:0f:9c:ec:d3:fd:c2:d2:1f:
        cd:67:05:29:f4:cd:d6:5c:c2:76:0e:ad:be:ba:e6:1b:ae:5c:
        8a:a6:24:20
-----BEGIN CERTIFICATE-----
MIIDdzCCAl+gAwIBAgIQUCndv7yUQjMTXoOTvPwoODANBgkqhkiG9w0BAQsFADAW
MRQwEgYDVQQDDAt0ZWFtMjk2LW5ldDAeFw0yMzExMDQxMTMzNDdaFw0yNjEwMTkx
MTMzNDdaMBkxFzAVBgNVBAMMDnRlYW0yOTYtc2VydmVyMIIBIjANBgkqhkiG9w0B
AQEFAAOCAQ8AMIIBCgKCAQEAtoLVvCRSgtA4AsYdhONEJ8zAr76HBtZke85OJrbK
MlfeRZGLGAhurjzWKxNTNzMTT9U0JPcCWLhoGklq5cWP6iD5yusMs4JBfDvpfmfS
RYGxM0Yq6cX4F+G5ggHNu97NZAXuEiuoQeO61zYW7jKVxGUhS+18q8IJmFhWjRQn
kWHgx87GF2cVwzlCp5DAfIT169BNHOR2+8LfU/mCGUg1KOcB2pUoFiiOLIwSUOaE
7WYQuq2dcsHo3uk3x+rQAfYfA5E9hezl6/DSkA68K6mdIhnr61IwkKY1yjpzqXPc
Hy37OTFGMNHZT3Ig5k9vx5cIMNgEe3bIRoD9qnme1YO0OQIDAQABo4G9MIG6MAkG
A1UdEwQCMAAwHQYDVR0OBBYEFEZ0/XIH9xZqFnCmJHAl3w1BBLmeMFEGA1UdIwRK
MEiAFAWGpMGuf266lOUk7rgIEbQvZhSuoRqkGDAWMRQwEgYDVQQDDAt0ZWFtMjk2
LW5ldIIUb00KoZqyERbuF83aqM/gcGlwyCQwEwYDVR0lBAwwCgYIKwYBBQUHAwEw
CwYDVR0PBAQDAgWgMBkGA1UdEQQSMBCCDnRlYW0yOTYtc2VydmVyMA0GCSqGSIb3
DQEBCwUAA4IBAQA+ZzRcVsdn5Wzq/VyP7Oxu980zgXnl/qnXDKFCRIAT6WwirDUq
J04LRLDgtGqrnrGfY0YUIvJ6Rzeez7BYZ6ooX4itobutnTdQcxM5zl02Mr3pWOtL
JpHZBzIBlkp4QMwD/aDHcl5u2cRaUIoNucNZl+3lqiM90GHTcUzGrjw+XFurmSeL
4MdGdGm+bmg/tKonh4oWC3lFjVYDR1NLYaHxWBhicLRjZAMYtvAFhkK2PaGOPG9P
fPDuWu9JBGRzrHNj1/liAPkMqDIVg9gxmv2e7W087P/nk6N0bqVQRGz+9ESUD5zs
0/3C0h/NZwUp9M3WXMJ2Dq2+uuYbrlyKpiQg
-----END CERTIFICATE-----
