Certificate:
    Data:
        Version: 3 (0x2)
        Serial Number:
            67:22:96:3a:20:86:1f:a5:12:ec:41:1e:26:6c:ea:74
        Signature Algorithm: sha256WithRSAEncryption
        Issuer: CN=team296-net
        Validity
            Not Before: Nov  4 11:33:47 2023 GMT
            Not After : Oct 19 11:33:47 2026 GMT
        Subject: CN=team296-client
        Subject Public Key Info:
            Public Key Algorithm: rsaEncryption
                Public-Key: (2048 bit)
                Modulus:
                    00:ac:ee:6b:48:76:4d:6d:32:81:30:b6:b3:e0:32:
                    73:65:01:ae:7e:2c:fb:e9:b3:51:c9:6f:b5:6c:76:
                    50:7c:ea:f9:72:fd:5a:ff:13:f9:09:ef:48:e4:89:
                    a0:ba:d8:4d:bf:e1:06:d2:75:94:04:56:a9:50:58:
                    d4:55:2f:7d:bb:43:d9:78:b8:52:f7:6c:08:92:49:
                    e2:04:1b:9d:27:4c:97:9e:9d:15:a8:d7:42:41:39:
                    72:09:b8:11:6f:3f:b2:4c:fb:8c:4e:7a:65:46:20:
                    06:c0:07:44:a4:86:46:55:80:9b:14:d9:b5:dc:d6:
                    b3:e1:34:31:83:01:b5:d6:5d:3c:0c:2d:83:31:47:
                    47:56:44:db:5c:14:80:d8:fc:f7:6d:03:6d:12:21:
                    db:4d:67:79:76:14:42:c8:2e:a5:e3:e3:5d:38:a6:
                    4d:f9:1e:8e:f7:1a:a5:bf:33:1e:b0:3f:c2:f1:a2:
                    ce:5a:d8:ca:23:a6:20:ac:fc:44:e7:69:16:c7:f3:
                    a3:88:03:86:9b:88:eb:21:f2:34:dc:86:54:96:04:
                    b1:b7:57:2a:4b:4b:ae:24:a0:ea:33:f8:12:81:ae:
                    06:61:97:d2:49:d4:3b:95:e0:70:30:0a:71:d8:12:
                    b1:8c:ff:b8:a2:74:f9:1e:02:d0:28:72:d7:c6:db:
                    c5:25
                Exponent: 65537 (0x10001)
        X509v3 extensions:
            X509v3 Basic Constraints: 
                CA:FALSE
            X509v3 Subject Key Identifier: 
                5D:47:84:60:C9:57:EA:C4:FC:AB:3A:51:14:B6:90:B1:D5:6F:B7:D8
            X509v3 Authority Key Identifier: 
                keyid:05:86:A4:C1:AE:7F:6E:BA:94:E5:24:EE:B8:08:11:B4:2F:66:14:AE
                DirName:/CN=team296-net
                serial:6F:4D:0A:A1:9A:B2:11:16:EE:17:CD:DA:A8:CF:E0:70:69:70:C8:24
            X509v3 Extended Key Usage: 
                TLS Web Client Authentication
            X509v3 Key Usage: 
                Digital Signature
    Signature Algorithm: sha256WithRSAEncryption
    Signature Value:
        83:a7:de:26:e0:a0:94:9d:26:0f:b8:a7:fa:c7:ea:7d:36:67:
        cf:05:63:f6:94:75:4d:d3:34:1e:d7:0a:cf:83:d7:59:56:37:
        12:3e:bf:f8:0c:74:ec:00:ad:b9:53:a0:f6:f8:66:38:16:a6:
        61:0f:92:f3:cb:c0:b1:df:ee:68:b8:59:45:83:75:f6:f3:b1:
        e1:f3:c8:e0:1d:78:82:75:93:3d:f3:c9:75:b4:04:c5:2f:c4:
        e2:a0:b9:7c:1e:f6:f5:2f:e8:af:2a:5c:ab:53:57:f9:ff:f4:
        8e:cb:94:7b:fc:82:23:f7:91:94:65:a6:f1:02:dc:95:7a:1e:
        4c:31:c0:b2:d2:bc:01:50:7b:1e:73:fb:e8:d7:b6:cb:99:da:
        a9:20:a5:a0:41:20:1f:4c:6f:77:84:c6:f1:58:5b:f0:af:da:
        6a:fa:9a:98:62:bd:79:41:96:62:e0:dc:7c:ce:e3:33:69:76:
        b2:9e:99:c9:19:15:f3:6a:fa:e3:a4:5a:cd:b8:3d:6a:0c:79:
        eb:72:31:b2:46:20:f8:f2:32:67:67:82:78:da:9a:7a:82:a6:
        04:5b:d8:1e:4e:0d:ca:80:3e:3c:ab:a4:94:ee:d7:d0:79:68:
        68:9f:08:ae:b0:80:e7:29:56:fc:36:99:e4:9a:4a:9a:0c:cd:
        c8:53:bc:b1
-----BEGIN CERTIFICATE-----
MIIDXDCCAkSgAwIBAgIQZyKWOiCGH6US7EEeJmzqdDANBgkqhkiG9w0BAQsFADAW
MRQwEgYDVQQDDAt0ZWFtMjk2LW5ldDAeFw0yMzExMDQxMTMzNDdaFw0yNjEwMTkx
MTMzNDdaMBkxFzAVBgNVBAMMDnRlYW0yOTYtY2xpZW50MIIBIjANBgkqhkiG9w0B
AQEFAAOCAQ8AMIIBCgKCAQEArO5rSHZNbTKBMLaz4DJzZQGufiz76bNRyW+1bHZQ
fOr5cv1a/xP5Ce9I5ImguthNv+EG0nWUBFapUFjUVS99u0PZeLhS92wIkkniBBud
J0yXnp0VqNdCQTlyCbgRbz+yTPuMTnplRiAGwAdEpIZGVYCbFNm13Naz4TQxgwG1
1l08DC2DMUdHVkTbXBSA2Pz3bQNtEiHbTWd5dhRCyC6l4+NdOKZN+R6O9xqlvzMe
sD/C8aLOWtjKI6YgrPxE52kWx/OjiAOGm4jrIfI03IZUlgSxt1cqS0uuJKDqM/gS
ga4GYZfSSdQ7leBwMApx2BKxjP+4onT5HgLQKHLXxtvFJQIDAQABo4GiMIGfMAkG
A1UdEwQCMAAwHQYDVR0OBBYEFF1HhGDJV+rE/Ks6URS2kLHVb7fYMFEGA1UdIwRK
MEiAFAWGpMGuf266lOUk7rgIEbQvZhSuoRqkGDAWMRQwEgYDVQQDDAt0ZWFtMjk2
LW5ldIIUb00KoZqyERbuF83aqM/gcGlwyCQwEwYDVR0lBAwwCgYIKwYBBQUHAwIw
CwYDVR0PBAQDAgeAMA0GCSqGSIb3DQEBCwUAA4IBAQCDp94m4KCUnSYPuKf6x+p9
NmfPBWP2lHVN0zQe1wrPg9dZVjcSPr/4DHTsAK25U6D2+GY4FqZhD5Lzy8Cx3+5o
uFlFg3X287Hh88jgHXiCdZM988l1tATFL8TioLl8Hvb1L+ivKlyrU1f5//SOy5R7
/IIj95GUZabxAtyVeh5MMcCy0rwBUHsec/vo17bLmdqpIKWgQSAfTG93hMbxWFvw
r9pq+pqYYr15QZZi4Nx8zuMzaXaynpnJGRXzavrjpFrNuD1qDHnrcjGyRiD48jJn
Z4J42pp6gqYEW9geTg3KgD48q6SU7tfQeWhonwiusIDnKVb8NpnkmkqaDM3IU7yx
-----END CERTIFICATE-----
