Certificate:
    Data:
        Version: 3 (0x2)
        Serial Number:
            ec:45:49:16:25:3e:f0:23:3b:1b:95:0e:cf:df:d6:4f
        Signature Algorithm: sha256WithRSAEncryption
        Issuer: CN=team296-net
        Validity
            Not Before: Nov  4 10:46:06 2023 GMT
            Not After : Oct 19 10:46:06 2026 GMT
        Subject: CN=team296-client
        Subject Public Key Info:
            Public Key Algorithm: rsaEncryption
                Public-Key: (2048 bit)
                Modulus:
                    00:f3:ce:93:b0:45:1b:76:9b:e9:dc:90:14:a0:84:
                    95:45:b8:c9:17:47:cf:f0:1e:0b:4c:fe:ff:26:af:
                    f1:db:8b:4b:24:f8:2b:f5:1c:41:a9:e3:0a:21:bf:
                    a4:8b:6f:c1:56:a6:af:62:2b:a0:c8:f1:61:45:eb:
                    25:2f:26:66:08:63:fa:e1:b5:49:b6:ce:c1:4a:f8:
                    ac:db:4b:f0:a2:a9:85:12:65:26:00:3f:af:33:9d:
                    31:42:e5:bd:ac:2e:4d:99:34:77:9d:37:e8:8a:a7:
                    61:06:b8:36:7d:35:15:98:c1:ba:bf:af:58:04:22:
                    36:6d:49:b4:4c:b1:51:bc:04:38:6e:92:51:d8:16:
                    8d:84:8c:19:25:cd:7f:35:6b:9e:49:d0:49:4f:52:
                    30:eb:08:2c:ab:73:67:72:c3:1a:32:b4:8e:cb:32:
                    8c:48:f9:ab:d8:db:f7:1f:48:2a:d5:ec:eb:89:69:
                    a7:2f:0e:c5:2c:41:39:26:e7:1c:c2:56:40:f3:70:
                    4f:7f:c6:66:79:19:40:07:5e:b6:4f:b7:2c:cf:0d:
                    e6:45:bd:b9:49:8a:eb:ed:76:5d:f5:f9:e2:5f:39:
                    57:53:b6:76:5d:48:c4:78:63:ce:66:6d:40:f7:c0:
                    38:d1:8a:4b:2a:75:23:1d:7c:4e:49:4f:5d:37:1b:
                    26:45
                Exponent: 65537 (0x10001)
        X509v3 extensions:
            X509v3 Basic Constraints: 
                CA:FALSE
            X509v3 Subject Key Identifier: 
                79:8B:F3:EB:1F:C4:26:43:B5:CC:F7:14:25:5A:C8:1F:13:D4:F7:AA
            X509v3 Authority Key Identifier: 
                keyid:A6:69:B1:F4:70:11:B7:16:ED:4C:80:6A:78:69:2C:4E:D4:90:37:5F
                DirName:/CN=team296-net
                serial:12:18:3D:42:12:E5:FF:2D:D0:4C:57:12:90:76:CD:EC:51:49:87:CE
            X509v3 Extended Key Usage: 
                TLS Web Client Authentication
            X509v3 Key Usage: 
                Digital Signature
    Signature Algorithm: sha256WithRSAEncryption
    Signature Value:
        51:0b:e1:bd:5f:38:e9:cc:73:b4:93:df:5d:44:7a:bd:57:8c:
        e2:75:23:1a:b8:05:cb:68:e7:e5:97:7c:c3:54:fb:21:11:7f:
        ba:ba:1a:a2:41:49:89:08:6b:45:58:07:bf:9a:2e:ca:e9:0f:
        a8:86:53:ef:b0:cf:bf:d8:53:21:1a:0f:44:de:40:c9:29:fd:
        d4:b1:a8:51:be:7e:fe:7d:46:c4:b1:a4:dc:5d:b5:c9:cb:8d:
        d3:1e:fa:b7:df:a7:5f:ee:d5:ce:a7:a1:9f:d7:f3:83:c6:bd:
        02:52:8d:fb:7b:0e:98:46:fc:c9:2b:bb:14:35:8b:f3:7b:8a:
        2d:5b:76:91:52:56:5e:f3:e6:7f:8c:81:c1:5d:57:ef:ce:1a:
        01:e2:b8:35:d3:99:6a:9f:a8:68:42:52:d4:30:e6:2a:be:13:
        be:48:4f:40:27:0f:f1:56:4f:e0:35:e3:bf:a7:e9:e0:80:de:
        7c:5b:4d:41:ad:fd:8a:cb:87:bb:5d:7e:db:b9:f1:31:5a:19:
        bc:ee:5c:f1:08:30:8a:e7:ee:4b:6b:ab:13:f7:f2:39:02:2d:
        9c:3a:1d:0c:66:65:26:e3:cd:f5:47:6d:fb:f5:e9:ab:e5:32:
        4a:d8:a4:d4:f9:23:a1:41:6e:54:f0:49:fe:a7:b5:e4:73:7a:
        f0:44:aa:6a
-----BEGIN CERTIFICATE-----
MIIDXTCCAkWgAwIBAgIRAOxFSRYlPvAjOxuVDs/f1k8wDQYJKoZIhvcNAQELBQAw
FjEUMBIGA1UEAwwLdGVhbTI5Ni1uZXQwHhcNMjMxMTA0MTA0NjA2WhcNMjYxMDE5
MTA0NjA2WjAZMRcwFQYDVQQDDA50ZWFtMjk2LWNsaWVudDCCASIwDQYJKoZIhvcN
AQEBBQADggEPADCCAQoCggEBAPPOk7BFG3ab6dyQFKCElUW4yRdHz/AeC0z+/yav
8duLSyT4K/UcQanjCiG/pItvwVamr2IroMjxYUXrJS8mZghj+uG1SbbOwUr4rNtL
8KKphRJlJgA/rzOdMULlvawuTZk0d5036IqnYQa4Nn01FZjBur+vWAQiNm1JtEyx
UbwEOG6SUdgWjYSMGSXNfzVrnknQSU9SMOsILKtzZ3LDGjK0jssyjEj5q9jb9x9I
KtXs64lppy8OxSxBOSbnHMJWQPNwT3/GZnkZQAdetk+3LM8N5kW9uUmK6+12XfX5
4l85V1O2dl1IxHhjzmZtQPfAONGKSyp1Ix18TklPXTcbJkUCAwEAAaOBojCBnzAJ
BgNVHRMEAjAAMB0GA1UdDgQWBBR5i/PrH8QmQ7XM9xQlWsgfE9T3qjBRBgNVHSME
SjBIgBSmabH0cBG3Fu1MgGp4aSxO1JA3X6EapBgwFjEUMBIGA1UEAwwLdGVhbTI5
Ni1uZXSCFBIYPUIS5f8t0ExXEpB2zexRSYfOMBMGA1UdJQQMMAoGCCsGAQUFBwMC
MAsGA1UdDwQEAwIHgDANBgkqhkiG9w0BAQsFAAOCAQEAUQvhvV846cxztJPfXUR6
vVeM4nUjGrgFy2jn5Zd8w1T7IRF/uroaokFJiQhrRVgHv5ouyukPqIZT77DPv9hT
IRoPRN5AySn91LGoUb5+/n1GxLGk3F21ycuN0x76t9+nX+7Vzqehn9fzg8a9AlKN
+3sOmEb8ySu7FDWL83uKLVt2kVJWXvPmf4yBwV1X784aAeK4NdOZap+oaEJS1DDm
Kr4TvkhPQCcP8VZP4DXjv6fp4IDefFtNQa39isuHu11+27nxMVoZvO5c8Qgwiufu
S2urE/fyOQItnDodDGZlJuPN9Udt+/Xpq+UyStik1PkjoUFuVPBJ/qe15HN68ESq
ag==
-----END CERTIFICATE-----
