Certificate:
    Data:
        Version: 3 (0x2)
        Serial Number:
            09:3c:7c:cc:80:c0:dd:bf:0e:b6:5c:3f:1d:5d:7e:c4
        Signature Algorithm: sha256WithRSAEncryption
        Issuer: CN=team474-net
        Validity
            Not Before: Nov  4 11:38:15 2023 GMT
            Not After : Oct 19 11:38:15 2026 GMT
        Subject: CN=team474-client
        Subject Public Key Info:
            Public Key Algorithm: rsaEncryption
                Public-Key: (2048 bit)
                Modulus:
                    00:be:d9:d5:37:2e:ca:b8:ea:85:65:d5:d2:d1:82:
                    04:ac:bc:c5:7c:40:3a:d9:24:3f:75:af:52:b6:51:
                    97:7d:40:25:a0:8f:a5:66:b2:92:b8:b8:d7:02:fc:
                    95:bd:81:8e:eb:85:70:34:95:fd:17:91:b2:2a:7d:
                    30:a3:e0:f4:69:ef:e6:cb:72:d8:20:e8:cc:c2:ac:
                    a6:f2:9d:da:c1:97:81:39:9b:12:9a:f6:30:bd:22:
                    a3:4c:58:b4:f6:89:60:79:a1:5f:ae:84:ab:da:07:
                    68:64:21:e9:d9:f3:0d:ba:66:d5:05:ef:d7:97:43:
                    01:91:11:b1:62:23:f1:3b:10:4c:74:32:c3:aa:36:
                    e9:85:c6:98:0e:ee:cb:19:bd:39:8b:00:26:15:a1:
                    08:d2:a1:10:40:6a:81:33:89:8d:24:69:e7:74:85:
                    e5:ad:01:bc:62:3c:20:f7:24:33:33:fe:ff:95:4f:
                    47:ee:d4:2e:99:26:8b:6c:96:ef:9f:a3:2d:ac:25:
                    46:78:39:e0:ab:75:d4:e7:1d:f8:b3:5c:4c:e0:d1:
                    71:b4:a6:18:e4:e4:7d:a0:c4:73:cf:10:e6:67:2d:
                    c3:d5:f5:4f:bf:d0:2d:a7:12:b9:ec:d3:39:9f:40:
                    13:ba:03:e9:2f:1c:59:7b:8c:78:91:74:04:93:66:
                    ef:9d
                Exponent: 65537 (0x10001)
        X509v3 extensions:
            X509v3 Basic Constraints: 
                CA:FALSE
            X509v3 Subject Key Identifier: 
                3D:E6:5A:31:08:60:DD:BF:68:7C:E1:47:CF:E2:18:01:60:D9:0E:BF
            X509v3 Authority Key Identifier: 
                keyid:03:92:9E:5A:A5:66:CA:8D:06:BF:22:7C:2E:6D:AD:FD:E1:EE:34:E4
                DirName:/CN=team474-net
                serial:03:2B:41:8D:61:2B:00:97:D6:0C:1F:7E:65:75:8A:33:5F:5A:A9:9B
            X509v3 Extended Key Usage: 
                TLS Web Client Authentication
            X509v3 Key Usage: 
                Digital Signature
    Signature Algorithm: sha256WithRSAEncryption
    Signature Value:
        b4:f8:e2:27:72:fb:7f:45:e0:92:d9:e0:ec:7b:c6:80:87:42:
        c1:7c:8d:58:26:a9:aa:33:81:f8:00:9a:da:23:6f:93:80:59:
        b1:7a:6d:e4:0e:21:88:4f:b4:16:7d:a5:bc:94:73:df:53:83:
        0a:89:31:aa:d3:a3:cf:8d:e3:8f:a8:72:26:d2:d5:d7:f2:29:
        78:fe:fb:0d:1d:02:a7:31:03:08:a8:6f:1c:c6:1e:7e:bf:34:
        76:d0:3b:6d:38:1a:20:29:95:85:80:0a:60:57:92:10:6b:44:
        bc:3c:cc:45:fd:11:57:e3:9c:70:67:9e:42:94:06:5f:fd:39:
        41:78:0a:06:d3:55:cd:ec:00:13:38:5f:af:b6:f5:0f:c8:2e:
        59:5f:1d:d2:96:de:60:d9:f7:35:7f:82:23:98:c3:a4:d3:02:
        4e:87:4e:d4:8a:04:29:b2:37:e4:13:4e:82:21:bd:1b:6d:ed:
        39:7c:6c:03:fb:58:d9:49:a4:ca:7c:fa:4f:e9:79:db:09:6f:
        f6:93:76:a6:35:37:fb:1e:ab:56:fd:0a:fa:e9:5d:83:65:97:
        9e:26:11:47:b9:4d:99:21:c8:9a:87:9a:fb:7a:a2:15:e1:2c:
        53:1a:c4:48:d2:7a:64:b8:eb:34:bc:38:b1:b8:27:82:3f:c9:
        8e:77:6a:2a
-----BEGIN CERTIFICATE-----
MIIDXDCCAkSgAwIBAgIQCTx8zIDA3b8Otlw/HV1+xDANBgkqhkiG9w0BAQsFADAW
MRQwEgYDVQQDDAt0ZWFtNDc0LW5ldDAeFw0yMzExMDQxMTM4MTVaFw0yNjEwMTkx
MTM4MTVaMBkxFzAVBgNVBAMMDnRlYW00NzQtY2xpZW50MIIBIjANBgkqhkiG9w0B
AQEFAAOCAQ8AMIIBCgKCAQEAvtnVNy7KuOqFZdXS0YIErLzFfEA62SQ/da9StlGX
fUAloI+lZrKSuLjXAvyVvYGO64VwNJX9F5GyKn0wo+D0ae/my3LYIOjMwqym8p3a
wZeBOZsSmvYwvSKjTFi09olgeaFfroSr2gdoZCHp2fMNumbVBe/Xl0MBkRGxYiPx
OxBMdDLDqjbphcaYDu7LGb05iwAmFaEI0qEQQGqBM4mNJGnndIXlrQG8Yjwg9yQz
M/7/lU9H7tQumSaLbJbvn6MtrCVGeDngq3XU5x34s1xM4NFxtKYY5OR9oMRzzxDm
Zy3D1fVPv9AtpxK57NM5n0ATugPpLxxZe4x4kXQEk2bvnQIDAQABo4GiMIGfMAkG
A1UdEwQCMAAwHQYDVR0OBBYEFD3mWjEIYN2/aHzhR8/iGAFg2Q6/MFEGA1UdIwRK
MEiAFAOSnlqlZsqNBr8ifC5trf3h7jTkoRqkGDAWMRQwEgYDVQQDDAt0ZWFtNDc0
LW5ldIIUAytBjWErAJfWDB9+ZXWKM19aqZswEwYDVR0lBAwwCgYIKwYBBQUHAwIw
CwYDVR0PBAQDAgeAMA0GCSqGSIb3DQEBCwUAA4IBAQC0+OIncvt/ReCS2eDse8aA
h0LBfI1YJqmqM4H4AJraI2+TgFmxem3kDiGIT7QWfaW8lHPfU4MKiTGq06PPjeOP
qHIm0tXX8il4/vsNHQKnMQMIqG8cxh5+vzR20DttOBogKZWFgApgV5IQa0S8PMxF
/RFX45xwZ55ClAZf/TlBeAoG01XN7AATOF+vtvUPyC5ZXx3Slt5g2fc1f4IjmMOk
0wJOh07UigQpsjfkE06CIb0bbe05fGwD+1jZSaTKfPpP6XnbCW/2k3amNTf7HqtW
/Qr66V2DZZeeJhFHuU2ZIciah5r7eqIV4SxTGsRI0npkuOs0vDixuCeCP8mOd2oq
-----END CERTIFICATE-----
