Certificate:
    Data:
        Version: 3 (0x2)
        Serial Number:
            24:45:c6:c0:2e:2f:4c:45:a5:70:26:53:46:c3:ae:6c
        Signature Algorithm: sha256WithRSAEncryption
        Issuer: CN=team474-net
        Validity
            Not Before: Nov  4 11:38:15 2023 GMT
            Not After : Oct 19 11:38:15 2026 GMT
        Subject: CN=team474-server
        Subject Public Key Info:
            Public Key Algorithm: rsaEncryption
                Public-Key: (2048 bit)
                Modulus:
                    00:90:7f:e4:c8:63:5b:65:5e:80:a6:2b:2d:05:f3:
                    fb:35:6c:36:ab:f3:d2:cf:b9:e6:83:c7:30:98:17:
                    a1:3d:9d:05:d7:5e:61:a0:50:7b:46:01:11:63:59:
                    b6:52:6f:e7:aa:eb:32:43:c9:19:a2:cf:3a:0d:23:
                    38:f4:36:20:94:4e:1b:90:66:f9:4e:f2:27:65:d3:
                    89:bf:aa:ac:48:36:89:1c:95:95:86:d4:8d:9e:38:
                    87:b0:ae:3d:a4:bf:a8:69:06:a9:4d:37:f9:e6:bf:
                    bc:e4:e7:d9:b3:8d:64:38:aa:e3:43:98:12:65:ae:
                    d3:e8:80:6a:02:36:28:af:96:d3:0e:0a:be:c9:bc:
                    08:1a:96:80:83:ec:21:68:a3:4c:a9:de:0e:5d:d5:
                    f8:25:89:49:e5:bb:ee:5f:c9:58:54:17:69:a6:38:
                    be:af:88:d5:55:1d:94:bf:e9:cc:62:71:ea:09:42:
                    73:c5:00:40:7b:9b:d8:52:ce:ab:ac:4f:61:d9:96:
                    26:dc:de:75:35:19:63:d5:c2:60:e0:c1:42:74:b2:
                    e4:42:64:45:46:ac:87:3b:7d:3b:38:14:67:35:e6:
                    90:db:64:76:c7:9a:ce:2b:09:13:64:05:5c:98:cc:
                    bf:17:de:b4:2d:20:d4:48:24:0d:48:3c:43:06:cc:
                    93:a9
                Exponent: 65537 (0x10001)
        X509v3 extensions:
            X509v3 Basic Constraints: 
                CA:FALSE
            X509v3 Subject Key Identifier: 
                2F:62:CD:48:DB:0A:95:0D:7C:DD:3C:73:72:D4:AB:D3:6C:18:9A:50
            X509v3 Authority Key Identifier: 
                keyid:03:92:9E:5A:A5:66:CA:8D:06:BF:22:7C:2E:6D:AD:FD:E1:EE:34:E4
                DirName:/CN=team474-net
                serial:03:2B:41:8D:61:2B:00:97:D6:0C:1F:7E:65:75:8A:33:5F:5A:A9:9B
            X509v3 Extended Key Usage: 
                TLS Web Server Authentication
            X509v3 Key Usage: 
                Digital Signature, Key Encipherment
            X509v3 Subject Alternative Name: 
                DNS:team474-server
    Signature Algorithm: sha256WithRSAEncryption
    Signature Value:
        52:ef:21:7d:e7:3f:de:fc:6b:97:12:05:b0:58:c5:ef:a8:54:
        96:31:49:7b:b5:f7:fc:63:1e:4c:95:55:be:99:da:4a:d9:8e:
        24:9a:39:dc:0c:ea:d2:01:31:bf:f0:7d:89:67:29:21:00:65:
        d3:68:12:0e:bf:22:c1:17:9b:88:2d:6e:72:92:09:70:37:41:
        28:33:43:0c:87:72:cc:68:04:08:3c:cd:78:a1:b1:90:cb:fb:
        9d:7a:c7:06:d7:18:71:c1:94:38:27:e5:97:00:cc:32:fa:62:
        cd:b0:03:66:ac:08:05:47:8b:93:a0:33:96:ad:6a:24:9b:1b:
        62:23:92:76:99:0a:24:19:ed:92:b4:6a:8c:4d:46:c8:88:dc:
        86:9c:a0:32:5f:24:c1:c3:a3:b4:91:21:6e:a6:e4:e5:8c:63:
        7c:f9:7e:91:a4:46:b7:f3:63:69:dc:64:89:6d:88:d0:78:a1:
        f3:43:41:10:92:a3:3c:e0:b9:bc:30:05:de:76:42:dd:b1:87:
        01:96:3d:4f:5b:69:14:b0:67:de:06:7a:8d:8f:ce:2b:b2:9c:
        99:34:56:e7:71:5f:55:0e:3c:cf:d5:1d:25:fe:3b:d1:cf:9c:
        28:fd:41:f0:e8:8d:bf:e2:de:15:9d:ed:5f:3f:80:9c:fc:6a:
        ce:8b:31:72
-----BEGIN CERTIFICATE-----
MIIDdzCCAl+gAwIBAgIQJEXGwC4vTEWlcCZTRsOubDANBgkqhkiG9w0BAQsFADAW
MRQwEgYDVQQDDAt0ZWFtNDc0LW5ldDAeFw0yMzExMDQxMTM4MTVaFw0yNjEwMTkx
MTM4MTVaMBkxFzAVBgNVBAMMDnRlYW00NzQtc2VydmVyMIIBIjANBgkqhkiG9w0B
AQEFAAOCAQ8AMIIBCgKCAQEAkH/kyGNbZV6ApistBfP7NWw2q/PSz7nmg8cwmBeh
PZ0F115hoFB7RgERY1m2Um/nqusyQ8kZos86DSM49DYglE4bkGb5TvInZdOJv6qs
SDaJHJWVhtSNnjiHsK49pL+oaQapTTf55r+85OfZs41kOKrjQ5gSZa7T6IBqAjYo
r5bTDgq+ybwIGpaAg+whaKNMqd4OXdX4JYlJ5bvuX8lYVBdppji+r4jVVR2Uv+nM
YnHqCUJzxQBAe5vYUs6rrE9h2ZYm3N51NRlj1cJg4MFCdLLkQmRFRqyHO307OBRn
NeaQ22R2x5rOKwkTZAVcmMy/F960LSDUSCQNSDxDBsyTqQIDAQABo4G9MIG6MAkG
A1UdEwQCMAAwHQYDVR0OBBYEFC9izUjbCpUNfN08c3LUq9NsGJpQMFEGA1UdIwRK
MEiAFAOSnlqlZsqNBr8ifC5trf3h7jTkoRqkGDAWMRQwEgYDVQQDDAt0ZWFtNDc0
LW5ldIIUAytBjWErAJfWDB9+ZXWKM19aqZswEwYDVR0lBAwwCgYIKwYBBQUHAwEw
CwYDVR0PBAQDAgWgMBkGA1UdEQQSMBCCDnRlYW00NzQtc2VydmVyMA0GCSqGSIb3
DQEBCwUAA4IBAQBS7yF95z/e/GuXEgWwWMXvqFSWMUl7tff8Yx5MlVW+mdpK2Y4k
mjncDOrSATG/8H2JZykhAGXTaBIOvyLBF5uILW5ykglwN0EoM0MMh3LMaAQIPM14
obGQy/udescG1xhxwZQ4J+WXAMwy+mLNsANmrAgFR4uToDOWrWokmxtiI5J2mQok
Ge2StGqMTUbIiNyGnKAyXyTBw6O0kSFupuTljGN8+X6RpEa382Np3GSJbYjQeKHz
Q0EQkqM84Lm8MAXedkLdsYcBlj1PW2kUsGfeBnqNj84rspyZNFbncV9VDjzP1R0l
/jvRz5wo/UHw6I2/4t4Vne1fP4Cc/GrOizFy
-----END CERTIFICATE-----
