Certificate:
    Data:
        Version: 3 (0x2)
        Serial Number:
            3a:3f:e3:2d:fb:41:0c:35:b0:bb:64:a2:6d:1f:3a:ff
        Signature Algorithm: sha256WithRSAEncryption
        Issuer: CN=team474-net
        Validity
            Not Before: Nov  3 20:47:55 2023 GMT
            Not After : Oct 18 20:47:55 2026 GMT
        Subject: CN=team474-client
        Subject Public Key Info:
            Public Key Algorithm: rsaEncryption
                Public-Key: (2048 bit)
                Modulus:
                    00:c5:fd:0a:d5:07:1b:90:86:ec:b7:cb:87:13:d9:
                    3e:ea:5a:3c:18:47:78:c7:ad:2c:ea:b6:3c:60:8a:
                    a7:a0:31:c7:93:db:3c:7d:2c:b6:34:3d:50:23:e6:
                    b2:19:0b:97:47:7f:2b:35:dc:22:03:81:5d:b7:ed:
                    7f:05:c9:f0:de:56:b2:3f:05:fb:34:f4:c7:f5:86:
                    17:8a:9f:ec:55:28:03:14:15:7e:18:f2:46:69:9e:
                    f7:1d:0e:61:65:90:40:fb:f2:46:5d:c7:69:5e:42:
                    e9:01:e9:d0:98:b2:73:04:8b:e7:7a:83:63:2e:5c:
                    e0:09:f2:af:bb:c5:9c:36:81:86:9f:e2:66:de:74:
                    32:9b:44:fe:c3:b3:07:0d:41:a1:9a:7c:1c:83:85:
                    a1:7b:18:7e:a5:ff:5f:7d:76:ed:b7:1f:f7:bb:33:
                    b5:a5:b4:84:99:2a:99:ee:4f:c2:d6:c3:34:8d:f1:
                    9b:e1:52:fe:2c:c1:9a:7e:dd:53:f9:45:cd:d2:c5:
                    1f:46:78:b1:f9:94:d7:2e:7c:f9:88:d4:cc:52:f1:
                    6f:91:88:cb:2f:60:49:d0:5f:31:6b:8d:1c:d7:76:
                    e6:be:56:05:87:ac:05:2f:5a:ca:b7:cc:89:c3:49:
                    41:64:32:e7:ff:2f:e8:54:0d:9f:a7:37:28:ed:b3:
                    bc:a3
                Exponent: 65537 (0x10001)
        X509v3 extensions:
            X509v3 Basic Constraints: 
                CA:FALSE
            X509v3 Subject Key Identifier: 
                22:5C:6B:D0:35:FB:B1:DF:B9:C6:3D:37:F8:48:3C:C9:B0:FE:B6:58
            X509v3 Authority Key Identifier: 
                keyid:68:6F:B0:51:A1:51:41:CF:11:6E:DC:71:9C:60:90:54:DD:BA:11:0E
                DirName:/CN=team474-net
                serial:19:B3:F9:76:3B:A2:10:3C:0B:ED:80:F7:17:2E:D3:9E:3B:D0:F2:78
            X509v3 Extended Key Usage: 
                TLS Web Client Authentication
            X509v3 Key Usage: 
                Digital Signature
    Signature Algorithm: sha256WithRSAEncryption
    Signature Value:
        44:ab:c7:0c:26:b5:ac:95:4f:b5:56:33:7f:23:21:77:2f:d4:
        b9:d9:36:53:75:51:7d:02:97:7d:8d:e3:ac:37:e3:2f:95:84:
        c4:12:a7:ab:23:8b:e3:c0:4c:b2:c9:8f:3c:53:92:e5:69:9a:
        1a:29:24:7b:67:8d:62:2f:b8:bb:88:21:a9:55:1d:2a:6f:6a:
        3d:8b:de:0b:61:77:1d:99:78:2a:09:c9:d6:f4:fc:39:7b:4f:
        0b:dd:2e:b7:c9:4e:e3:cf:87:9c:c2:78:55:6e:9f:f0:93:65:
        87:ca:84:30:92:aa:9e:48:50:01:6d:7f:7d:33:fe:4c:e3:2d:
        31:4c:24:24:1b:39:96:80:45:d6:b0:94:c2:bf:3d:77:e8:01:
        99:e9:fd:71:f3:10:99:40:30:16:49:d4:5c:4b:20:31:c2:09:
        45:e5:97:38:23:90:fb:3c:8e:7b:06:13:55:6b:02:6c:77:2e:
        17:50:cc:2c:d9:85:85:fc:86:0d:1a:a0:4f:3b:a1:06:45:8e:
        c8:21:8b:ce:f5:27:23:bb:50:5a:4b:43:5c:21:e2:a5:e9:27:
        7e:ed:d9:23:34:fb:5f:5f:c0:c3:57:a6:3e:13:ee:fd:1c:82:
        00:27:87:84:fa:74:1d:a5:fb:02:bb:25:f3:b8:d9:8b:87:b6:
        c0:97:d0:8d
-----BEGIN CERTIFICATE-----
MIIDXDCCAkSgAwIBAgIQOj/jLftBDDWwu2SibR86/zANBgkqhkiG9w0BAQsFADAW
MRQwEgYDVQQDDAt0ZWFtNDc0LW5ldDAeFw0yMzExMDMyMDQ3NTVaFw0yNjEwMTgy
MDQ3NTVaMBkxFzAVBgNVBAMMDnRlYW00NzQtY2xpZW50MIIBIjANBgkqhkiG9w0B
AQEFAAOCAQ8AMIIBCgKCAQEAxf0K1QcbkIbst8uHE9k+6lo8GEd4x60s6rY8YIqn
oDHHk9s8fSy2ND1QI+ayGQuXR38rNdwiA4Fdt+1/Bcnw3layPwX7NPTH9YYXip/s
VSgDFBV+GPJGaZ73HQ5hZZBA+/JGXcdpXkLpAenQmLJzBIvneoNjLlzgCfKvu8Wc
NoGGn+Jm3nQym0T+w7MHDUGhmnwcg4Whexh+pf9ffXbttx/3uzO1pbSEmSqZ7k/C
1sM0jfGb4VL+LMGaft1T+UXN0sUfRnix+ZTXLnz5iNTMUvFvkYjLL2BJ0F8xa40c
13bmvlYFh6wFL1rKt8yJw0lBZDLn/y/oVA2fpzco7bO8owIDAQABo4GiMIGfMAkG
A1UdEwQCMAAwHQYDVR0OBBYEFCJca9A1+7HfucY9N/hIPMmw/rZYMFEGA1UdIwRK
MEiAFGhvsFGhUUHPEW7ccZxgkFTduhEOoRqkGDAWMRQwEgYDVQQDDAt0ZWFtNDc0
LW5ldIIUGbP5djuiEDwL7YD3Fy7TnjvQ8ngwEwYDVR0lBAwwCgYIKwYBBQUHAwIw
CwYDVR0PBAQDAgeAMA0GCSqGSIb3DQEBCwUAA4IBAQBEq8cMJrWslU+1VjN/IyF3
L9S52TZTdVF9Apd9jeOsN+MvlYTEEqerI4vjwEyyyY88U5LlaZoaKSR7Z41iL7i7
iCGpVR0qb2o9i94LYXcdmXgqCcnW9Pw5e08L3S63yU7jz4ecwnhVbp/wk2WHyoQw
kqqeSFABbX99M/5M4y0xTCQkGzmWgEXWsJTCvz136AGZ6f1x8xCZQDAWSdRcSyAx
wglF5Zc4I5D7PI57BhNVawJsdy4XUMws2YWF/IYNGqBPO6EGRY7IIYvO9Scju1Ba
S0NcIeKl6Sd+7dkjNPtfX8DDV6Y+E+79HIIAJ4eE+nQdpfsCuyXzuNmLh7bAl9CN
-----END CERTIFICATE-----
