Certificate:
    Data:
        Version: 3 (0x2)
        Serial Number:
            a5:8f:9c:07:e1:53:29:69:22:c0:ac:1b:dd:20:db:d1
        Signature Algorithm: sha256WithRSAEncryption
        Issuer: CN=team474-net
        Validity
            Not Before: Nov  4 10:48:59 2023 GMT
            Not After : Oct 19 10:48:59 2026 GMT
        Subject: CN=team474-server
        Subject Public Key Info:
            Public Key Algorithm: rsaEncryption
                Public-Key: (2048 bit)
                Modulus:
                    00:d3:46:ef:fa:7e:fb:e5:76:f0:35:05:96:09:0f:
                    47:82:1b:e9:ec:0f:2c:51:8b:d3:aa:76:4b:59:64:
                    21:83:c5:f6:48:c0:38:01:9e:17:f8:f5:22:12:7e:
                    45:5e:a1:0b:2b:f3:02:3a:99:7e:05:e4:d3:5e:94:
                    03:90:ab:dc:19:38:93:98:b1:25:82:cf:21:cb:be:
                    e6:60:66:53:1d:ec:2d:f2:ff:47:81:8a:c1:80:b5:
                    7a:4c:49:46:5f:de:d2:d3:4b:c3:39:92:ca:6b:21:
                    18:e8:fc:87:d0:43:17:85:e6:48:66:6f:24:12:6e:
                    4a:27:05:76:3a:1f:02:0c:2c:e6:60:8b:3c:27:a1:
                    47:bd:1a:99:34:cf:03:0d:70:4e:35:26:90:4d:f8:
                    56:9e:81:51:ae:0c:8e:18:77:bf:b7:43:6b:ee:56:
                    a3:23:f3:52:d6:3a:6d:c4:e1:93:24:97:84:d0:dd:
                    4c:08:51:dc:c9:eb:87:37:bf:8d:4d:b1:3e:ff:10:
                    84:f7:99:2b:0d:13:07:e4:b1:82:47:63:84:b2:69:
                    3b:39:b1:3c:1b:99:2c:0d:2f:45:3b:ca:7f:88:7e:
                    46:d6:76:fa:dd:66:98:3d:30:f3:9c:d9:8b:ab:a5:
                    99:f8:ee:fd:21:28:42:25:bf:12:78:fd:21:63:20:
                    0b:87
                Exponent: 65537 (0x10001)
        X509v3 extensions:
            X509v3 Basic Constraints: 
                CA:FALSE
            X509v3 Subject Key Identifier: 
                31:B9:3F:14:19:FE:3F:47:AF:C9:AE:8C:E1:61:85:3B:21:24:4E:C3
            X509v3 Authority Key Identifier: 
                keyid:FE:BE:76:5C:B5:DC:43:7B:16:02:F1:5D:10:52:FE:D2:C2:AE:5A:C3
                DirName:/CN=team474-net
                serial:49:9D:17:A9:20:87:62:51:15:C8:8D:3A:64:09:63:BA:7B:A6:F9:6C
            X509v3 Extended Key Usage: 
                TLS Web Server Authentication
            X509v3 Key Usage: 
                Digital Signature, Key Encipherment
            X509v3 Subject Alternative Name: 
                DNS:team474-server
    Signature Algorithm: sha256WithRSAEncryption
    Signature Value:
        a2:b6:0d:66:35:26:3b:12:e2:2d:cb:06:a6:be:a9:c4:b2:02:
        aa:ac:81:ec:db:e7:ad:09:bf:66:a1:b7:87:59:ae:48:51:68:
        46:24:b9:f3:e9:9b:45:bd:68:38:e2:20:c7:c4:a3:c9:2e:ab:
        db:c4:6b:60:bd:f8:1f:78:9d:69:8f:8a:39:0f:a6:36:a6:3b:
        46:11:3a:a8:c7:e3:49:1f:eb:51:55:b3:26:27:42:d4:47:37:
        88:10:ac:ba:8b:05:97:b3:e2:b1:f5:da:a1:f6:20:3c:fa:d8:
        e0:ca:7b:4f:9b:38:6b:b4:49:74:7f:95:3a:3a:ef:0e:d9:bb:
        6f:21:58:bd:e4:99:19:33:c0:90:fd:65:98:68:a7:75:5a:4d:
        df:b1:f2:6b:a0:19:de:64:61:0f:97:9b:da:58:c0:ef:ee:98:
        75:cc:96:02:a1:c7:27:6d:e7:b5:1f:12:f0:f6:5a:21:8f:d6:
        17:80:9b:d8:20:e5:9f:1c:cf:ac:0a:be:32:cc:f6:b0:d0:f9:
        29:00:07:40:5b:dd:fc:6b:6e:1a:ce:b0:f1:33:f3:4f:c9:c6:
        cf:dc:10:c7:a7:ca:04:21:54:bc:6a:49:48:0d:b6:45:9a:da:
        95:f1:88:a0:f0:a9:5f:5d:7a:25:ec:6f:c8:30:0d:f0:0e:6e:
        78:ad:d1:7f
-----BEGIN CERTIFICATE-----
MIIDeDCCAmCgAwIBAgIRAKWPnAfhUylpIsCsG90g29EwDQYJKoZIhvcNAQELBQAw
FjEUMBIGA1UEAwwLdGVhbTQ3NC1uZXQwHhcNMjMxMTA0MTA0ODU5WhcNMjYxMDE5
MTA0ODU5WjAZMRcwFQYDVQQDDA50ZWFtNDc0LXNlcnZlcjCCASIwDQYJKoZIhvcN
AQEBBQADggEPADCCAQoCggEBANNG7/p+++V28DUFlgkPR4Ib6ewPLFGL06p2S1lk
IYPF9kjAOAGeF/j1IhJ+RV6hCyvzAjqZfgXk016UA5Cr3Bk4k5ixJYLPIcu+5mBm
Ux3sLfL/R4GKwYC1ekxJRl/e0tNLwzmSymshGOj8h9BDF4XmSGZvJBJuSicFdjof
Agws5mCLPCehR70amTTPAw1wTjUmkE34Vp6BUa4Mjhh3v7dDa+5WoyPzUtY6bcTh
kySXhNDdTAhR3Mnrhze/jU2xPv8QhPeZKw0TB+SxgkdjhLJpOzmxPBuZLA0vRTvK
f4h+RtZ2+t1mmD0w85zZi6ulmfju/SEoQiW/Enj9IWMgC4cCAwEAAaOBvTCBujAJ
BgNVHRMEAjAAMB0GA1UdDgQWBBQxuT8UGf4/R6/JrozhYYU7ISROwzBRBgNVHSME
SjBIgBT+vnZctdxDexYC8V0QUv7Swq5aw6EapBgwFjEUMBIGA1UEAwwLdGVhbTQ3
NC1uZXSCFEmdF6kgh2JRFciNOmQJY7p7pvlsMBMGA1UdJQQMMAoGCCsGAQUFBwMB
MAsGA1UdDwQEAwIFoDAZBgNVHREEEjAQgg50ZWFtNDc0LXNlcnZlcjANBgkqhkiG
9w0BAQsFAAOCAQEAorYNZjUmOxLiLcsGpr6pxLICqqyB7NvnrQm/ZqG3h1muSFFo
RiS58+mbRb1oOOIgx8SjyS6r28RrYL34H3idaY+KOQ+mNqY7RhE6qMfjSR/rUVWz
JidC1Ec3iBCsuosFl7PisfXaofYgPPrY4Mp7T5s4a7RJdH+VOjrvDtm7byFYveSZ
GTPAkP1lmGindVpN37Hya6AZ3mRhD5eb2ljA7+6YdcyWAqHHJ23ntR8S8PZaIY/W
F4Cb2CDlnxzPrAq+Msz2sND5KQAHQFvd/GtuGs6w8TPzT8nGz9wQx6fKBCFUvGpJ
SA22RZralfGIoPCpX116JexvyDAN8A5ueK3Rfw==
-----END CERTIFICATE-----
