Certificate:
    Data:
        Version: 3 (0x2)
        Serial Number:
            14:53:89:71:89:3c:a6:d1:a0:d3:8e:57:24:21:75:d0
        Signature Algorithm: sha256WithRSAEncryption
        Issuer: CN=team389-net
        Validity
            Not Before: Nov  4 10:47:40 2023 GMT
            Not After : Oct 19 10:47:40 2026 GMT
        Subject: CN=team389-server
        Subject Public Key Info:
            Public Key Algorithm: rsaEncryption
                Public-Key: (2048 bit)
                Modulus:
                    00:89:74:e1:4d:f0:1e:11:78:67:c5:d9:70:b1:a5:
                    2e:1d:b0:e4:b5:c5:68:fc:6f:75:fa:c2:66:87:d5:
                    93:f9:b4:98:60:34:b5:34:ca:ec:36:65:ec:d4:85:
                    0e:51:a9:1d:0c:46:e3:20:bc:78:66:2f:bd:ec:76:
                    8a:d6:8a:b3:de:0d:e0:9d:ff:7a:3c:cd:7f:46:6a:
                    09:db:79:f7:c2:95:9a:03:f1:a7:15:59:0b:b6:c0:
                    aa:2c:4e:a5:4e:ff:fc:01:d2:54:f0:65:54:ff:d8:
                    50:2b:19:86:93:28:0b:ab:73:bf:80:9e:8d:e4:80:
                    fe:8f:5b:d9:8f:52:db:28:95:59:64:62:17:03:7c:
                    db:34:84:a1:31:87:d4:f8:c0:e6:79:c1:37:77:60:
                    8f:da:21:f2:09:29:69:3e:df:7a:d9:5c:26:93:56:
                    b8:cf:56:44:1f:f5:7f:73:62:f3:27:a0:fe:24:e3:
                    dc:d1:0a:c7:44:7b:68:25:82:b0:35:04:3b:dc:b9:
                    73:b2:2b:e4:67:fe:92:c8:82:a1:d5:05:e5:d6:55:
                    3c:62:18:49:6c:9e:0a:41:23:1a:18:af:5b:22:32:
                    93:41:bf:2c:63:b2:40:4b:5d:d3:3d:ec:39:8c:7d:
                    f5:9c:d7:bd:7d:06:11:03:91:00:e6:3e:f4:9a:3c:
                    f4:fb
                Exponent: 65537 (0x10001)
        X509v3 extensions:
            X509v3 Basic Constraints: 
                CA:FALSE
            X509v3 Subject Key Identifier: 
                29:EB:C0:DF:B9:10:5F:13:64:58:94:B7:73:E8:AF:3E:5B:B2:61:29
            X509v3 Authority Key Identifier: 
                keyid:2D:12:E5:E2:E6:EB:9E:5E:2E:E2:4A:78:41:A0:94:BB:23:5C:7A:E6
                DirName:/CN=team389-net
                serial:77:38:37:37:0E:DA:0C:00:00:16:8A:84:9F:32:16:F9:B1:23:06:50
            X509v3 Extended Key Usage: 
                TLS Web Server Authentication
            X509v3 Key Usage: 
                Digital Signature, Key Encipherment
            X509v3 Subject Alternative Name: 
                DNS:team389-server
    Signature Algorithm: sha256WithRSAEncryption
    Signature Value:
        48:1d:e5:28:57:11:62:29:f8:75:41:9f:f5:eb:10:c7:5a:7c:
        fe:a0:32:39:64:6e:ba:e1:7c:f8:10:7c:c5:b6:50:f5:b3:05:
        a9:22:27:12:dc:90:d0:09:4e:0d:a4:73:3c:6e:6e:ea:68:99:
        23:3d:b5:1b:15:22:26:70:a3:f7:75:36:6f:ee:c7:ec:0d:20:
        63:cb:05:e1:64:f3:91:34:b2:bf:1d:46:f6:65:87:b6:7d:f0:
        d2:2d:3f:a9:5e:1b:c1:a9:63:a9:e9:35:fd:3b:4d:fc:2d:77:
        5f:7c:23:77:4e:b5:f4:62:1c:aa:75:c9:dd:72:6b:16:7f:db:
        0a:db:6d:40:53:4e:ff:3f:f9:0c:e2:4c:3a:ea:15:b3:77:ca:
        55:44:63:23:39:04:0b:f5:3e:50:a7:ff:f7:2b:db:9c:64:3b:
        67:b7:7f:97:31:50:82:e0:10:d4:01:0f:b1:57:63:58:d5:10:
        56:43:b8:4a:03:45:cc:d1:ef:f5:a6:db:a3:56:7f:e2:a3:8f:
        06:b9:b9:cf:99:0f:a3:d6:a8:34:9e:ea:59:5f:19:65:15:46:
        59:fb:f1:2c:0e:f3:14:cd:3e:43:e7:0b:95:74:a4:9e:a1:ea:
        74:f7:d7:57:f9:40:01:7a:7b:15:da:c9:3d:6f:6c:1e:f4:3a:
        18:5c:5d:5a
-----BEGIN CERTIFICATE-----
MIIDdzCCAl+gAwIBAgIQFFOJcYk8ptGg045XJCF10DANBgkqhkiG9w0BAQsFADAW
MRQwEgYDVQQDDAt0ZWFtMzg5LW5ldDAeFw0yMzExMDQxMDQ3NDBaFw0yNjEwMTkx
MDQ3NDBaMBkxFzAVBgNVBAMMDnRlYW0zODktc2VydmVyMIIBIjANBgkqhkiG9w0B
AQEFAAOCAQ8AMIIBCgKCAQEAiXThTfAeEXhnxdlwsaUuHbDktcVo/G91+sJmh9WT
+bSYYDS1NMrsNmXs1IUOUakdDEbjILx4Zi+97HaK1oqz3g3gnf96PM1/RmoJ23n3
wpWaA/GnFVkLtsCqLE6lTv/8AdJU8GVU/9hQKxmGkygLq3O/gJ6N5ID+j1vZj1Lb
KJVZZGIXA3zbNIShMYfU+MDmecE3d2CP2iHyCSlpPt962Vwmk1a4z1ZEH/V/c2Lz
J6D+JOPc0QrHRHtoJYKwNQQ73LlzsivkZ/6SyIKh1QXl1lU8YhhJbJ4KQSMaGK9b
IjKTQb8sY7JAS13TPew5jH31nNe9fQYRA5EA5j70mjz0+wIDAQABo4G9MIG6MAkG
A1UdEwQCMAAwHQYDVR0OBBYEFCnrwN+5EF8TZFiUt3Porz5bsmEpMFEGA1UdIwRK
MEiAFC0S5eLm655eLuJKeEGglLsjXHrmoRqkGDAWMRQwEgYDVQQDDAt0ZWFtMzg5
LW5ldIIUdzg3Nw7aDAAAFoqEnzIW+bEjBlAwEwYDVR0lBAwwCgYIKwYBBQUHAwEw
CwYDVR0PBAQDAgWgMBkGA1UdEQQSMBCCDnRlYW0zODktc2VydmVyMA0GCSqGSIb3
DQEBCwUAA4IBAQBIHeUoVxFiKfh1QZ/16xDHWnz+oDI5ZG664Xz4EHzFtlD1swWp
IicS3JDQCU4NpHM8bm7qaJkjPbUbFSImcKP3dTZv7sfsDSBjywXhZPORNLK/HUb2
ZYe2ffDSLT+pXhvBqWOp6TX9O038LXdffCN3TrX0YhyqdcndcmsWf9sK221AU07/
P/kM4kw66hWzd8pVRGMjOQQL9T5Qp//3K9ucZDtnt3+XMVCC4BDUAQ+xV2NY1RBW
Q7hKA0XM0e/1ptujVn/io48GubnPmQ+j1qg0nupZXxllFUZZ+/EsDvMUzT5D5wuV
dKSeoep099dX+UABensV2sk9b2we9DoYXF1a
-----END CERTIFICATE-----
