Certificate:
    Data:
        Version: 3 (0x2)
        Serial Number:
            86:eb:61:6b:b4:50:26:80:3b:94:45:a7:0c:15:36:d5
        Signature Algorithm: sha256WithRSAEncryption
        Issuer: CN=team389-net
        Validity
            Not Before: Nov  4 11:36:14 2023 GMT
            Not After : Oct 19 11:36:14 2026 GMT
        Subject: CN=team389-client
        Subject Public Key Info:
            Public Key Algorithm: rsaEncryption
                Public-Key: (2048 bit)
                Modulus:
                    00:b1:c1:0e:c1:ab:a4:e9:c4:65:51:d0:7b:f9:37:
                    68:36:00:15:80:1e:64:68:f0:d0:da:72:f6:46:75:
                    24:80:b7:c4:ed:ab:8b:b4:f5:9d:9b:23:e1:95:97:
                    79:e8:99:39:66:97:dc:ed:2c:db:7e:a8:14:ec:a6:
                    5f:75:9d:dd:63:73:02:1e:0f:c6:5e:ca:0f:7e:a2:
                    d7:39:f2:63:ec:56:6f:fe:b0:a8:5c:c3:c3:78:f2:
                    85:23:e2:87:97:e0:3d:f3:65:5c:8a:61:ed:52:91:
                    88:d4:d3:48:e4:99:a8:36:9f:3d:ea:38:25:4f:28:
                    13:b8:4b:cb:61:a7:8f:09:2a:20:bc:59:dd:a2:36:
                    9c:d3:ab:ef:53:a8:d1:fb:be:c4:98:ce:cd:af:cc:
                    76:3e:12:fa:82:27:7f:02:7c:47:8f:61:44:d8:75:
                    09:f3:46:03:c3:0a:6c:51:1d:db:55:76:a1:70:06:
                    d4:9d:e0:41:8a:d1:87:f8:10:0a:7e:6d:8e:3c:fb:
                    31:e6:cb:75:c4:75:2b:d6:68:aa:ab:49:a5:c7:dd:
                    50:f1:2a:25:f9:2e:1f:62:9a:fc:48:c2:6c:64:02:
                    02:89:c7:55:36:4a:c6:70:26:f4:6c:8b:1c:b0:d3:
                    d2:1a:c6:1b:40:99:a1:d3:8d:d3:30:d9:e5:44:8e:
                    b4:33
                Exponent: 65537 (0x10001)
        X509v3 extensions:
            X509v3 Basic Constraints: 
                CA:FALSE
            X509v3 Subject Key Identifier: 
                27:41:15:5C:B7:B3:09:85:A6:DF:92:80:96:70:37:1D:E6:BB:E2:43
            X509v3 Authority Key Identifier: 
                keyid:7F:F7:7A:70:E0:18:A1:D4:53:60:A3:19:64:5C:13:D7:96:02:8E:69
                DirName:/CN=team389-net
                serial:3E:34:42:D9:BF:8C:FE:EA:05:BE:7C:4C:CC:DC:79:3A:BB:81:44:B8
            X509v3 Extended Key Usage: 
                TLS Web Client Authentication
            X509v3 Key Usage: 
                Digital Signature
    Signature Algorithm: sha256WithRSAEncryption
    Signature Value:
        6a:da:ca:23:b2:66:02:5c:d0:35:49:89:36:67:8c:9a:43:68:
        4b:61:3f:80:35:08:6b:72:de:80:7c:ac:de:0b:68:6d:7d:6f:
        d6:fe:22:81:7f:a1:0b:d6:d5:f6:82:e9:76:07:6e:a2:eb:34:
        14:8e:17:d5:33:26:0e:04:a6:1c:28:69:c3:ee:aa:18:94:32:
        38:19:b4:44:3e:27:9d:85:9b:d2:17:43:c2:8e:51:4c:85:ca:
        94:03:64:b5:92:a5:b9:49:fa:90:e7:73:40:70:90:1d:8e:e7:
        4a:b2:2b:cd:74:e8:28:97:07:53:df:a4:3a:8f:1a:5c:40:1a:
        d1:c8:48:66:38:c5:eb:46:64:d0:61:3a:3e:95:3b:af:44:6b:
        8c:db:06:3e:ec:4d:df:fe:8c:a1:4a:a4:a1:d7:d2:91:62:25:
        03:63:94:9f:86:cf:26:e7:8e:f7:7d:88:f9:73:f4:be:8e:93:
        17:f1:73:9c:7d:33:b9:2c:ee:85:07:83:6a:92:67:63:5b:48:
        c9:e0:a6:f6:af:f3:32:0b:87:b0:19:a3:ed:f3:aa:19:ab:64:
        ed:ae:e9:4b:45:d8:9b:18:38:56:da:40:e3:d1:02:9d:6d:23:
        7a:ad:60:07:18:7e:ed:32:c3:cb:06:e9:92:62:21:28:ea:15:
        ea:bb:d1:03
-----BEGIN CERTIFICATE-----
MIIDXTCCAkWgAwIBAgIRAIbrYWu0UCaAO5RFpwwVNtUwDQYJKoZIhvcNAQELBQAw
FjEUMBIGA1UEAwwLdGVhbTM4OS1uZXQwHhcNMjMxMTA0MTEzNjE0WhcNMjYxMDE5
MTEzNjE0WjAZMRcwFQYDVQQDDA50ZWFtMzg5LWNsaWVudDCCASIwDQYJKoZIhvcN
AQEBBQADggEPADCCAQoCggEBALHBDsGrpOnEZVHQe/k3aDYAFYAeZGjw0Npy9kZ1
JIC3xO2ri7T1nZsj4ZWXeeiZOWaX3O0s236oFOymX3Wd3WNzAh4Pxl7KD36i1zny
Y+xWb/6wqFzDw3jyhSPih5fgPfNlXIph7VKRiNTTSOSZqDafPeo4JU8oE7hLy2Gn
jwkqILxZ3aI2nNOr71Oo0fu+xJjOza/Mdj4S+oInfwJ8R49hRNh1CfNGA8MKbFEd
21V2oXAG1J3gQYrRh/gQCn5tjjz7MebLdcR1K9ZoqqtJpcfdUPEqJfkuH2Ka/EjC
bGQCAonHVTZKxnAm9GyLHLDT0hrGG0CZodON0zDZ5USOtDMCAwEAAaOBojCBnzAJ
BgNVHRMEAjAAMB0GA1UdDgQWBBQnQRVct7MJhabfkoCWcDcd5rviQzBRBgNVHSME
SjBIgBR/93pw4Bih1FNgoxlkXBPXlgKOaaEapBgwFjEUMBIGA1UEAwwLdGVhbTM4
OS1uZXSCFD40Qtm/jP7qBb58TMzceTq7gUS4MBMGA1UdJQQMMAoGCCsGAQUFBwMC
MAsGA1UdDwQEAwIHgDANBgkqhkiG9w0BAQsFAAOCAQEAatrKI7JmAlzQNUmJNmeM
mkNoS2E/gDUIa3LegHys3gtobX1v1v4igX+hC9bV9oLpdgduous0FI4X1TMmDgSm
HChpw+6qGJQyOBm0RD4nnYWb0hdDwo5RTIXKlANktZKluUn6kOdzQHCQHY7nSrIr
zXToKJcHU9+kOo8aXEAa0chIZjjF60Zk0GE6PpU7r0RrjNsGPuxN3/6MoUqkodfS
kWIlA2OUn4bPJueO932I+XP0vo6TF/FznH0zuSzuhQeDapJnY1tIyeCm9q/zMguH
sBmj7fOqGatk7a7pS0XYmxg4VtpA49ECnW0jeq1gBxh+7TLDywbpkmIhKOoV6rvR
Aw==
-----END CERTIFICATE-----
