Certificate:
    Data:
        Version: 3 (0x2)
        Serial Number:
            a3:93:bf:69:a1:92:0b:f1:30:d6:9f:50:5c:d5:9f:5f
        Signature Algorithm: sha256WithRSAEncryption
        Issuer: CN=team389-net
        Validity
            Not Before: Nov  3 20:46:16 2023 GMT
            Not After : Oct 18 20:46:16 2026 GMT
        Subject: CN=team389-client
        Subject Public Key Info:
            Public Key Algorithm: rsaEncryption
                Public-Key: (2048 bit)
                Modulus:
                    00:fb:30:85:1c:58:7e:dd:55:ee:ba:99:9d:78:4c:
                    26:39:91:86:ce:4b:c3:df:27:dc:bb:0a:49:34:1b:
                    bf:7c:d6:90:9a:a0:86:0b:82:5f:50:47:db:a1:d9:
                    c4:23:e4:7c:46:a6:6f:16:01:07:94:3e:63:2d:88:
                    90:73:fb:bc:80:24:b4:a0:0e:9b:2e:55:d3:a6:55:
                    94:17:bc:d7:f7:90:b3:e4:bf:52:6d:cd:31:69:f4:
                    d9:1b:81:bb:19:5a:98:af:01:ee:b1:69:c6:d8:51:
                    49:9b:5d:43:1d:d4:ca:11:7a:d7:14:1d:09:32:35:
                    90:88:e3:05:9d:81:dd:e1:31:06:f1:60:d1:fe:af:
                    7a:c1:84:dd:39:a6:e2:09:69:14:0a:96:a9:db:db:
                    d3:93:24:11:b0:05:e6:59:da:9c:b5:64:53:97:17:
                    22:83:15:13:a0:6d:ae:31:60:aa:f7:b4:2e:1d:ab:
                    82:0f:f0:04:0d:b0:6f:09:c6:db:75:88:70:cf:3d:
                    d5:ec:07:ae:a9:fe:1d:85:d8:f9:25:71:0d:1f:5a:
                    6f:aa:85:8b:ee:a3:a6:12:38:de:c7:1d:b8:7e:e7:
                    03:19:6c:5e:24:04:84:18:a8:1a:1d:ba:cc:6d:f2:
                    df:86:f6:cf:08:cd:5d:90:ed:8d:c4:ad:06:74:07:
                    62:05
                Exponent: 65537 (0x10001)
        X509v3 extensions:
            X509v3 Basic Constraints: 
                CA:FALSE
            X509v3 Subject Key Identifier: 
                82:DA:29:3B:40:0F:9C:0A:D4:47:4F:45:85:6F:6F:3F:4D:5A:6B:F6
            X509v3 Authority Key Identifier: 
                keyid:B6:2E:4C:5D:E8:3E:B5:1C:BA:7E:29:DE:E0:2A:75:CD:21:6E:64:61
                DirName:/CN=team389-net
                serial:7C:B3:E2:26:36:8D:17:E6:6A:B4:6B:09:EC:5E:F0:00:05:AC:D5:19
            X509v3 Extended Key Usage: 
                TLS Web Client Authentication
            X509v3 Key Usage: 
                Digital Signature
    Signature Algorithm: sha256WithRSAEncryption
    Signature Value:
        09:36:56:45:c5:b3:ed:6c:c2:a6:b0:aa:3c:2f:cd:20:8d:a2:
        c4:65:ef:d2:d7:16:1c:f2:3a:55:7a:5a:88:91:96:6a:09:34:
        e8:7d:b1:1e:56:25:1f:70:87:53:d1:19:ac:7a:05:a4:a1:a7:
        10:2e:cb:13:02:6f:b4:cd:17:78:f2:66:99:e1:f1:f7:21:79:
        5e:e1:53:46:cd:ca:c1:84:fd:d7:e2:35:1b:1d:a5:bb:1a:65:
        1f:3a:05:3a:d5:fc:f9:4d:80:b2:76:55:41:77:9d:78:31:66:
        ef:29:f3:d9:20:53:35:b2:5e:ad:a6:6a:a7:65:f1:d6:78:bd:
        65:4d:b2:0f:b2:24:61:bf:ea:41:8d:d1:f3:31:a4:b1:a0:6e:
        63:4d:ed:d4:34:72:d5:f6:f3:c9:8a:98:d5:56:70:1a:b3:81:
        53:44:9a:c8:d6:d7:7b:ad:c1:23:40:0e:80:db:41:4f:62:25:
        04:25:7c:e7:f0:66:43:88:ad:98:f5:cb:11:58:6c:10:5f:15:
        d6:28:e5:29:31:be:b7:7a:26:41:c0:ec:89:3c:16:8c:63:bd:
        11:37:1d:42:52:a3:4a:72:b7:b7:4c:2e:6a:e0:2e:01:5f:26:
        b0:95:9c:13:fd:11:4c:33:40:3b:e6:96:9b:32:c6:1f:08:61:
        7d:3a:f0:be
-----BEGIN CERTIFICATE-----
MIIDXTCCAkWgAwIBAgIRAKOTv2mhkgvxMNafUFzVn18wDQYJKoZIhvcNAQELBQAw
FjEUMBIGA1UEAwwLdGVhbTM4OS1uZXQwHhcNMjMxMTAzMjA0NjE2WhcNMjYxMDE4
MjA0NjE2WjAZMRcwFQYDVQQDDA50ZWFtMzg5LWNsaWVudDCCASIwDQYJKoZIhvcN
AQEBBQADggEPADCCAQoCggEBAPswhRxYft1V7rqZnXhMJjmRhs5Lw98n3LsKSTQb
v3zWkJqghguCX1BH26HZxCPkfEambxYBB5Q+Yy2IkHP7vIAktKAOmy5V06ZVlBe8
1/eQs+S/Um3NMWn02RuBuxlamK8B7rFpxthRSZtdQx3UyhF61xQdCTI1kIjjBZ2B
3eExBvFg0f6vesGE3Tmm4glpFAqWqdvb05MkEbAF5lnanLVkU5cXIoMVE6BtrjFg
qve0Lh2rgg/wBA2wbwnG23WIcM891ewHrqn+HYXY+SVxDR9ab6qFi+6jphI43scd
uH7nAxlsXiQEhBioGh26zG3y34b2zwjNXZDtjcStBnQHYgUCAwEAAaOBojCBnzAJ
BgNVHRMEAjAAMB0GA1UdDgQWBBSC2ik7QA+cCtRHT0WFb28/TVpr9jBRBgNVHSME
SjBIgBS2Lkxd6D61HLp+Kd7gKnXNIW5kYaEapBgwFjEUMBIGA1UEAwwLdGVhbTM4
OS1uZXSCFHyz4iY2jRfmarRrCexe8AAFrNUZMBMGA1UdJQQMMAoGCCsGAQUFBwMC
MAsGA1UdDwQEAwIHgDANBgkqhkiG9w0BAQsFAAOCAQEACTZWRcWz7WzCprCqPC/N
II2ixGXv0tcWHPI6VXpaiJGWagk06H2xHlYlH3CHU9EZrHoFpKGnEC7LEwJvtM0X
ePJmmeHx9yF5XuFTRs3KwYT91+I1Gx2luxplHzoFOtX8+U2AsnZVQXedeDFm7ynz
2SBTNbJeraZqp2Xx1ni9ZU2yD7IkYb/qQY3R8zGksaBuY03t1DRy1fbzyYqY1VZw
GrOBU0SayNbXe63BI0AOgNtBT2IlBCV85/BmQ4itmPXLEVhsEF8V1ijlKTG+t3om
QcDsiTwWjGO9ETcdQlKjSnK3t0wuauAuAV8msJWcE/0RTDNAO+aWmzLGHwhhfTrw
vg==
-----END CERTIFICATE-----
