Certificate:
    Data:
        Version: 3 (0x2)
        Serial Number:
            d7:8d:32:ed:99:a9:98:37:36:a8:0a:f2:b1:b8:ec:ef
        Signature Algorithm: sha256WithRSAEncryption
        Issuer: CN=team389-net
        Validity
            Not Before: Nov  3 20:46:16 2023 GMT
            Not After : Oct 18 20:46:16 2026 GMT
        Subject: CN=team389-server
        Subject Public Key Info:
            Public Key Algorithm: rsaEncryption
                Public-Key: (2048 bit)
                Modulus:
                    00:d5:87:61:ed:79:7a:ae:56:ef:d9:57:09:2b:86:
                    ca:4d:19:9a:ae:e6:92:8c:ff:14:42:f7:9d:35:b9:
                    d6:c1:88:93:e6:55:7c:80:ba:1f:07:4c:e5:60:03:
                    4b:b0:9a:6c:d6:3b:21:02:88:85:4d:a2:28:6a:a4:
                    d9:99:33:99:11:df:af:9e:6e:63:6b:e7:db:7c:dc:
                    5f:d7:57:00:81:72:d5:32:27:9f:2b:0e:78:87:a2:
                    9c:c6:33:08:a8:94:a8:35:45:d4:53:af:d4:44:6c:
                    ea:2b:92:0a:13:41:15:f6:de:e4:8a:1c:ba:dd:07:
                    ea:75:5c:dc:d6:1e:9b:c7:85:10:6f:02:6c:a8:7b:
                    6c:ae:bb:b1:32:c7:a4:9d:e5:75:72:40:65:cd:83:
                    c2:9b:45:4a:4e:98:e6:85:4b:1a:d3:fd:d7:b8:9a:
                    a3:6f:32:75:fd:ad:54:7c:f3:59:70:d0:33:de:a1:
                    f7:1a:da:36:ca:a0:1c:a3:7e:5a:a6:26:66:85:5c:
                    e5:75:28:ee:b6:f8:0a:de:47:ec:7e:b3:eb:e6:0a:
                    cb:7b:60:d2:84:b9:86:31:2e:5a:6e:c8:af:33:d5:
                    99:f9:05:05:a8:e1:72:a3:42:2a:13:ab:e2:67:11:
                    49:17:91:7e:ab:ce:47:08:29:cc:d9:84:45:af:aa:
                    dc:c7
                Exponent: 65537 (0x10001)
        X509v3 extensions:
            X509v3 Basic Constraints: 
                CA:FALSE
            X509v3 Subject Key Identifier: 
                0D:C5:28:F6:C1:1E:8D:AD:FE:A8:76:EE:B7:EF:8D:26:07:F6:70:8B
            X509v3 Authority Key Identifier: 
                keyid:B6:2E:4C:5D:E8:3E:B5:1C:BA:7E:29:DE:E0:2A:75:CD:21:6E:64:61
                DirName:/CN=team389-net
                serial:7C:B3:E2:26:36:8D:17:E6:6A:B4:6B:09:EC:5E:F0:00:05:AC:D5:19
            X509v3 Extended Key Usage: 
                TLS Web Server Authentication
            X509v3 Key Usage: 
                Digital Signature, Key Encipherment
            X509v3 Subject Alternative Name: 
                DNS:team389-server
    Signature Algorithm: sha256WithRSAEncryption
    Signature Value:
        6f:70:6f:8a:d4:4b:ef:83:63:33:97:84:3b:01:74:44:03:dd:
        76:9f:a7:a7:15:24:09:03:d6:65:a5:7e:38:2b:05:ff:fd:06:
        ef:23:9a:88:19:07:02:ef:c0:d1:af:05:55:0e:5b:5a:a8:2c:
        eb:50:6f:9f:11:99:56:35:af:59:04:a0:ee:0d:c0:59:8f:89:
        bc:fd:2f:14:2f:21:34:ec:8d:a5:ce:f2:bc:90:06:e3:a6:8c:
        ca:04:12:41:08:62:45:82:e3:f9:d1:22:33:2b:ce:79:05:46:
        e2:11:b0:5f:f8:50:5e:53:96:94:8d:30:2c:d3:69:bb:a0:76:
        6c:d6:fd:ef:e5:fd:c9:51:9f:b9:f9:df:f6:a5:12:42:a0:59:
        92:5d:16:06:fd:e2:a7:c8:08:bc:3b:8a:04:b5:05:1a:59:f2:
        41:7f:a9:96:69:e9:c0:aa:e2:54:45:03:05:6e:c4:fc:ca:31:
        2f:1f:d1:d9:66:74:c4:fb:80:ed:60:9e:38:53:d1:0f:f1:ab:
        6d:13:ed:d9:c1:8f:cc:40:cd:56:1e:ca:bd:48:0f:ff:4f:97:
        af:f9:3d:21:9b:ac:0c:ef:7c:6a:3c:c6:93:f5:08:09:87:ac:
        87:51:63:d9:e3:25:60:87:48:ff:b3:0b:35:f7:9c:d5:9e:5c:
        00:a9:36:8c
-----BEGIN CERTIFICATE-----
MIIDeDCCAmCgAwIBAgIRANeNMu2ZqZg3NqgK8rG47O8wDQYJKoZIhvcNAQELBQAw
FjEUMBIGA1UEAwwLdGVhbTM4OS1uZXQwHhcNMjMxMTAzMjA0NjE2WhcNMjYxMDE4
MjA0NjE2WjAZMRcwFQYDVQQDDA50ZWFtMzg5LXNlcnZlcjCCASIwDQYJKoZIhvcN
AQEBBQADggEPADCCAQoCggEBANWHYe15eq5W79lXCSuGyk0Zmq7mkoz/FEL3nTW5
1sGIk+ZVfIC6HwdM5WADS7CabNY7IQKIhU2iKGqk2ZkzmRHfr55uY2vn23zcX9dX
AIFy1TInnysOeIeinMYzCKiUqDVF1FOv1ERs6iuSChNBFfbe5Iocut0H6nVc3NYe
m8eFEG8CbKh7bK67sTLHpJ3ldXJAZc2DwptFSk6Y5oVLGtP917iao28ydf2tVHzz
WXDQM96h9xraNsqgHKN+WqYmZoVc5XUo7rb4Ct5H7H6z6+YKy3tg0oS5hjEuWm7I
rzPVmfkFBajhcqNCKhOr4mcRSReRfqvORwgpzNmERa+q3McCAwEAAaOBvTCBujAJ
BgNVHRMEAjAAMB0GA1UdDgQWBBQNxSj2wR6Nrf6odu63740mB/ZwizBRBgNVHSME
SjBIgBS2Lkxd6D61HLp+Kd7gKnXNIW5kYaEapBgwFjEUMBIGA1UEAwwLdGVhbTM4
OS1uZXSCFHyz4iY2jRfmarRrCexe8AAFrNUZMBMGA1UdJQQMMAoGCCsGAQUFBwMB
MAsGA1UdDwQEAwIFoDAZBgNVHREEEjAQgg50ZWFtMzg5LXNlcnZlcjANBgkqhkiG
9w0BAQsFAAOCAQEAb3BvitRL74NjM5eEOwF0RAPddp+npxUkCQPWZaV+OCsF//0G
7yOaiBkHAu/A0a8FVQ5bWqgs61BvnxGZVjWvWQSg7g3AWY+JvP0vFC8hNOyNpc7y
vJAG46aMygQSQQhiRYLj+dEiMyvOeQVG4hGwX/hQXlOWlI0wLNNpu6B2bNb97+X9
yVGfufnf9qUSQqBZkl0WBv3ip8gIvDuKBLUFGlnyQX+plmnpwKriVEUDBW7E/Mox
Lx/R2WZ0xPuA7WCeOFPRD/GrbRPt2cGPzEDNVh7KvUgP/0+Xr/k9IZusDO98ajzG
k/UICYesh1Fj2eMlYIdI/7MLNfec1Z5cAKk2jA==
-----END CERTIFICATE-----
