Certificate:
    Data:
        Version: 3 (0x2)
        Serial Number:
            73:57:9b:eb:a5:24:54:41:eb:a6:b5:47:7e:33:00:cb
        Signature Algorithm: sha256WithRSAEncryption
        Issuer: CN=team423-net
        Validity
            Not Before: Nov  4 10:48:14 2023 GMT
            Not After : Oct 19 10:48:14 2026 GMT
        Subject: CN=team423-client
        Subject Public Key Info:
            Public Key Algorithm: rsaEncryption
                Public-Key: (2048 bit)
                Modulus:
                    00:af:c7:34:b5:70:7c:3c:47:1d:50:81:9c:04:54:
                    a6:95:0c:b6:e9:6a:cb:ea:97:1c:ec:4f:82:ff:54:
                    e6:15:86:c2:34:c3:3d:03:2c:40:de:6f:ca:b7:da:
                    13:f3:ce:0a:66:41:da:de:e2:31:c0:e5:cd:73:a3:
                    b7:53:32:3c:ce:b4:77:82:4a:e7:04:e9:e0:bc:ca:
                    80:43:0e:d2:dc:64:5c:f3:a7:fb:9f:fa:1b:0b:e8:
                    96:f0:51:e0:86:de:7a:6a:c1:60:84:0e:84:d0:4c:
                    36:5e:a0:ee:f4:00:bc:5b:3a:3d:4d:07:a3:20:d2:
                    86:7e:85:56:02:3d:2e:20:75:b5:8e:f1:c2:a9:f8:
                    f0:5f:a3:46:d1:3a:27:58:af:c5:94:74:7e:f0:06:
                    67:89:be:cb:eb:7a:14:bb:90:58:91:0c:4b:b6:6f:
                    6c:b1:17:30:95:59:1b:a4:30:83:9f:e9:80:f0:92:
                    f5:96:60:cf:4f:cf:0d:41:9a:ee:39:ef:dd:e4:5f:
                    8e:7d:1b:5d:bd:d4:1d:4d:3a:34:ef:dc:eb:5f:f2:
                    1a:91:f6:41:6e:c1:db:24:41:2d:d6:91:2a:75:82:
                    cb:b8:3a:61:9e:b1:82:dd:9e:6b:5c:45:a4:48:d9:
                    e2:04:e3:bc:7e:0d:f8:79:53:b7:85:04:48:12:61:
                    fc:f7
                Exponent: 65537 (0x10001)
        X509v3 extensions:
            X509v3 Basic Constraints: 
                CA:FALSE
            X509v3 Subject Key Identifier: 
                12:DB:9D:A5:07:6D:D1:C8:EA:E9:CE:91:27:1C:07:6C:96:AF:8F:C2
            X509v3 Authority Key Identifier: 
                keyid:1A:F8:90:26:B4:37:82:0A:25:71:A7:6E:1F:27:30:FF:38:3C:9A:E0
                DirName:/CN=team423-net
                serial:6B:51:68:9A:4B:CF:BB:72:FD:A6:BF:BE:BB:90:49:EC:FC:DE:54:69
            X509v3 Extended Key Usage: 
                TLS Web Client Authentication
            X509v3 Key Usage: 
                Digital Signature
    Signature Algorithm: sha256WithRSAEncryption
    Signature Value:
        a1:99:6e:f2:d4:d5:d9:24:0d:9b:c0:99:f9:3b:d6:6b:1d:a6:
        bb:0c:7c:8a:a8:1a:5c:4c:67:22:98:f0:29:8a:f5:7e:f5:cf:
        cd:95:a9:7c:b1:64:87:a3:db:70:ec:5d:e6:5b:3a:ff:3d:53:
        ce:39:20:f8:7a:25:ac:de:c5:96:d7:57:76:92:e2:cf:c9:83:
        ea:e6:1a:8d:49:fd:4a:28:a7:a1:bd:dd:32:9d:55:83:49:f1:
        05:04:53:96:35:5c:7f:57:ca:a2:57:f1:cd:50:9a:75:c2:f3:
        12:84:e4:8f:78:9b:40:05:cc:2a:c4:66:f7:d6:81:62:ac:05:
        30:2e:01:b2:fa:90:a2:e5:14:b5:cf:8e:b3:6b:64:8c:14:e4:
        0d:f7:53:90:2b:71:61:83:5c:44:a0:af:3d:67:36:11:90:de:
        e6:75:c7:cc:b2:4a:20:79:9a:80:9a:5a:51:b7:52:c4:bd:d9:
        15:0e:68:f5:ca:99:ec:e5:18:2d:49:aa:07:dd:eb:f5:44:26:
        3a:a6:93:e3:d9:98:dc:f8:10:5a:46:64:96:3a:dd:ee:0e:c2:
        72:b7:10:49:72:3b:4f:53:68:ac:67:05:89:b8:d4:c9:92:12:
        9f:6f:7c:ad:fb:69:04:50:98:23:cf:16:07:8b:4c:07:07:1b:
        5c:43:8d:3d
-----BEGIN CERTIFICATE-----
MIIDXDCCAkSgAwIBAgIQc1eb66UkVEHrprVHfjMAyzANBgkqhkiG9w0BAQsFADAW
MRQwEgYDVQQDDAt0ZWFtNDIzLW5ldDAeFw0yMzExMDQxMDQ4MTRaFw0yNjEwMTkx
MDQ4MTRaMBkxFzAVBgNVBAMMDnRlYW00MjMtY2xpZW50MIIBIjANBgkqhkiG9w0B
AQEFAAOCAQ8AMIIBCgKCAQEAr8c0tXB8PEcdUIGcBFSmlQy26WrL6pcc7E+C/1Tm
FYbCNMM9AyxA3m/Kt9oT884KZkHa3uIxwOXNc6O3UzI8zrR3gkrnBOngvMqAQw7S
3GRc86f7n/obC+iW8FHght56asFghA6E0Ew2XqDu9AC8Wzo9TQejINKGfoVWAj0u
IHW1jvHCqfjwX6NG0TonWK/FlHR+8AZnib7L63oUu5BYkQxLtm9ssRcwlVkbpDCD
n+mA8JL1lmDPT88NQZruOe/d5F+OfRtdvdQdTTo079zrX/IakfZBbsHbJEEt1pEq
dYLLuDphnrGC3Z5rXEWkSNniBOO8fg34eVO3hQRIEmH89wIDAQABo4GiMIGfMAkG
A1UdEwQCMAAwHQYDVR0OBBYEFBLbnaUHbdHI6unOkSccB2yWr4/CMFEGA1UdIwRK
MEiAFBr4kCa0N4IKJXGnbh8nMP84PJrgoRqkGDAWMRQwEgYDVQQDDAt0ZWFtNDIz
LW5ldIIUa1FomkvPu3L9pr++u5BJ7PzeVGkwEwYDVR0lBAwwCgYIKwYBBQUHAwIw
CwYDVR0PBAQDAgeAMA0GCSqGSIb3DQEBCwUAA4IBAQChmW7y1NXZJA2bwJn5O9Zr
Haa7DHyKqBpcTGcimPApivV+9c/Nlal8sWSHo9tw7F3mWzr/PVPOOSD4eiWs3sWW
11d2kuLPyYPq5hqNSf1KKKehvd0ynVWDSfEFBFOWNVx/V8qiV/HNUJp1wvMShOSP
eJtABcwqxGb31oFirAUwLgGy+pCi5RS1z46za2SMFOQN91OQK3Fhg1xEoK89ZzYR
kN7mdcfMskogeZqAmlpRt1LEvdkVDmj1ypns5RgtSaoH3ev1RCY6ppPj2Zjc+BBa
RmSWOt3uDsJytxBJcjtPU2isZwWJuNTJkhKfb3yt+2kEUJgjzxYHi0wHBxtcQ409
-----END CERTIFICATE-----
