Certificate:
    Data:
        Version: 3 (0x2)
        Serial Number:
            42:9a:43:07:9d:0a:0b:9d:56:7f:e1:53:cf:91:c7:41
        Signature Algorithm: sha256WithRSAEncryption
        Issuer: CN=team83-net
        Validity
            Not Before: Nov  4 11:28:59 2023 GMT
            Not After : Oct 19 11:28:59 2026 GMT
        Subject: CN=team83-server
        Subject Public Key Info:
            Public Key Algorithm: rsaEncryption
                Public-Key: (2048 bit)
                Modulus:
                    00:b8:9d:ac:f4:8d:58:97:f9:c2:ed:9f:d9:18:9d:
                    48:29:1e:a7:00:ae:9c:4e:bb:89:d6:14:56:a2:c2:
                    14:78:f0:f2:a3:96:f0:96:16:e2:59:35:a0:b4:eb:
                    1f:dd:da:ba:87:92:36:17:41:23:d0:3f:b3:05:f6:
                    0c:2f:17:96:77:f4:48:9d:50:3f:7f:55:39:7f:16:
                    67:71:2c:ad:8e:69:13:6d:6a:17:6e:4e:da:bb:95:
                    dc:69:fe:53:75:82:5a:4b:b7:16:08:88:76:2b:e7:
                    7e:d0:a8:f1:46:f2:02:0c:bf:d2:cd:15:32:b1:1f:
                    4e:4e:d2:16:2b:5b:3f:50:4d:60:4a:81:49:03:45:
                    66:ce:d9:27:9e:38:b4:9b:aa:ad:a9:bc:33:39:97:
                    ee:be:c8:11:13:db:7e:c1:ab:d9:d1:9c:85:7e:fd:
                    c5:9d:1b:cf:d9:92:8e:f3:65:9b:fe:b1:cd:98:40:
                    2f:cc:e8:d4:ef:a5:6f:0c:e1:3c:c8:bf:5d:6b:f5:
                    73:63:eb:c4:4e:5b:e5:1e:ef:02:19:4d:d2:b8:93:
                    a5:22:3b:cd:cd:29:e3:44:d2:d6:4b:23:49:50:55:
                    f4:18:4f:19:a8:b6:8e:57:92:65:48:2c:44:6c:15:
                    a4:c2:17:bb:7f:d6:c7:0c:e0:8d:2f:f5:41:1e:19:
                    f2:35
                Exponent: 65537 (0x10001)
        X509v3 extensions:
            X509v3 Basic Constraints: 
                CA:FALSE
            X509v3 Subject Key Identifier: 
                E7:1B:50:12:D3:DB:71:25:52:46:3B:F0:16:ED:28:31:8C:62:91:FA
            X509v3 Authority Key Identifier: 
                keyid:A3:1E:5B:B7:DA:1E:97:CD:A2:A1:80:08:B2:0D:9F:9A:6C:DC:F3:9B
                DirName:/CN=team83-net
                serial:7A:16:4D:04:D4:FE:1B:39:57:82:20:F6:C1:E7:03:BB:07:F2:60:3A
            X509v3 Extended Key Usage: 
                TLS Web Server Authentication
            X509v3 Key Usage: 
                Digital Signature, Key Encipherment
            X509v3 Subject Alternative Name: 
                DNS:team83-server
    Signature Algorithm: sha256WithRSAEncryption
    Signature Value:
        88:c0:c6:2e:23:7a:d6:e7:bf:e4:ee:16:5a:00:02:7a:6c:9b:
        f6:b7:69:53:7f:e8:0f:8f:59:88:98:f8:08:a2:17:e9:35:e9:
        fe:c3:80:87:66:de:ea:5c:ae:c5:ba:e0:b3:d2:b6:2f:c5:ab:
        a2:3c:06:bf:6f:56:c9:10:94:96:88:41:0c:75:c4:24:2a:fe:
        29:27:13:a1:41:ad:f5:3e:b4:17:4d:b9:2d:ee:07:ad:7b:e4:
        29:16:87:22:63:e7:e4:84:2a:96:0b:0c:58:78:43:ae:f2:85:
        82:9f:f8:2f:07:b4:51:a5:56:15:8a:46:73:78:27:9b:d3:d4:
        5a:31:3e:e9:51:78:9c:48:6f:26:9c:db:be:c6:80:32:c7:70:
        73:2d:5c:cb:ec:ed:a6:68:37:25:9b:0a:33:27:28:fe:4d:2a:
        f1:70:d1:d5:18:9a:67:d0:57:81:4d:45:3b:b7:7a:28:bd:b6:
        79:fd:99:fa:f9:a9:37:57:81:82:5d:14:f0:98:8d:76:cb:5b:
        69:ca:bc:62:40:c4:64:5e:58:7c:60:d1:55:ea:93:9a:96:20:
        e1:ca:e4:32:ce:dc:ab:41:b8:94:6b:b4:24:aa:5f:36:9b:32:
        b9:2e:9d:10:97:d2:b7:ae:3e:b4:c9:67:27:53:10:3a:b8:2a:
        a9:12:a8:0e
-----BEGIN CERTIFICATE-----
MIIDczCCAlugAwIBAgIQQppDB50KC51Wf+FTz5HHQTANBgkqhkiG9w0BAQsFADAV
MRMwEQYDVQQDDAp0ZWFtODMtbmV0MB4XDTIzMTEwNDExMjg1OVoXDTI2MTAxOTEx
Mjg1OVowGDEWMBQGA1UEAwwNdGVhbTgzLXNlcnZlcjCCASIwDQYJKoZIhvcNAQEB
BQADggEPADCCAQoCggEBALidrPSNWJf5wu2f2RidSCkepwCunE67idYUVqLCFHjw
8qOW8JYW4lk1oLTrH93auoeSNhdBI9A/swX2DC8Xlnf0SJ1QP39VOX8WZ3EsrY5p
E21qF25O2ruV3Gn+U3WCWku3FgiIdivnftCo8UbyAgy/0s0VMrEfTk7SFitbP1BN
YEqBSQNFZs7ZJ544tJuqram8MzmX7r7IERPbfsGr2dGchX79xZ0bz9mSjvNlm/6x
zZhAL8zo1O+lbwzhPMi/XWv1c2PrxE5b5R7vAhlN0riTpSI7zc0p40TS1ksjSVBV
9BhPGai2jleSZUgsRGwVpMIXu3/WxwzgjS/1QR4Z8jUCAwEAAaOBuzCBuDAJBgNV
HRMEAjAAMB0GA1UdDgQWBBTnG1AS09txJVJGO/AW7SgxjGKR+jBQBgNVHSMESTBH
gBSjHlu32h6XzaKhgAiyDZ+abNzzm6EZpBcwFTETMBEGA1UEAwwKdGVhbTgzLW5l
dIIUehZNBNT+GzlXgiD2wecDuwfyYDowEwYDVR0lBAwwCgYIKwYBBQUHAwEwCwYD
VR0PBAQDAgWgMBgGA1UdEQQRMA+CDXRlYW04My1zZXJ2ZXIwDQYJKoZIhvcNAQEL
BQADggEBAIjAxi4jetbnv+TuFloAAnpsm/a3aVN/6A+PWYiY+AiiF+k16f7DgIdm
3upcrsW64LPSti/Fq6I8Br9vVskQlJaIQQx1xCQq/iknE6FBrfU+tBdNuS3uB617
5CkWhyJj5+SEKpYLDFh4Q67yhYKf+C8HtFGlVhWKRnN4J5vT1FoxPulReJxIbyac
277GgDLHcHMtXMvs7aZoNyWbCjMnKP5NKvFw0dUYmmfQV4FNRTu3eii9tnn9mfr5
qTdXgYJdFPCYjXbLW2nKvGJAxGReWHxg0VXqk5qWIOHK5DLO3KtBuJRrtCSqXzab
MrkunRCX0reuPrTJZydTEDq4KqkSqA4=
-----END CERTIFICATE-----
