Certificate:
    Data:
        Version: 3 (0x2)
        Serial Number:
            6c:c5:09:31:d1:2e:fc:a9:bc:c5:6a:78:ae:76:e4:1f
        Signature Algorithm: sha256WithRSAEncryption
        Issuer: CN=team83-net
        Validity
            Not Before: Nov  4 10:41:57 2023 GMT
            Not After : Oct 19 10:41:57 2026 GMT
        Subject: CN=team83-client
        Subject Public Key Info:
            Public Key Algorithm: rsaEncryption
                Public-Key: (2048 bit)
                Modulus:
                    00:8d:0c:2e:7e:36:77:1c:9b:6a:90:b2:e3:c3:95:
                    b2:1e:bd:a3:f9:4b:af:3b:44:dd:7c:07:34:98:95:
                    10:2c:ad:f1:08:d5:15:19:c7:8f:30:8e:46:25:fc:
                    3c:32:47:34:fb:10:16:95:5b:9d:89:bb:9d:99:86:
                    4e:7e:cd:43:93:cd:87:08:b5:3b:dd:da:98:59:d6:
                    3f:0c:69:f3:9d:d1:23:d0:b1:e8:90:69:e2:46:c4:
                    5f:9f:8d:79:a6:c3:33:4b:dd:8b:6d:eb:b2:ff:9a:
                    a8:55:52:6c:7a:de:34:05:5b:57:83:1d:bb:4b:db:
                    e7:a5:20:dc:b6:bf:82:db:cb:0d:d0:db:f7:9c:f4:
                    47:6e:55:aa:33:4e:13:71:f5:8e:4d:4f:01:3e:87:
                    c3:5e:f1:c8:25:37:e8:3a:7d:38:07:f7:fd:ef:25:
                    d3:02:b9:23:97:b6:4f:c0:f2:86:ae:60:c7:86:33:
                    0c:4c:4b:8c:be:8e:e3:6e:cc:0f:c1:43:22:3e:64:
                    64:ea:c9:05:2f:96:be:88:c7:6e:55:5a:97:20:93:
                    8f:b9:17:20:6f:9b:31:f9:69:33:b4:ce:34:d7:90:
                    e0:9a:f9:4c:a8:e4:d1:2b:6b:36:bb:2d:ac:75:dd:
                    56:50:22:d2:77:e4:70:9e:5b:40:c1:29:26:ee:f3:
                    22:d3
                Exponent: 65537 (0x10001)
        X509v3 extensions:
            X509v3 Basic Constraints: 
                CA:FALSE
            X509v3 Subject Key Identifier: 
                45:DF:25:81:71:24:E1:3B:76:60:19:D3:5C:6F:92:98:91:03:96:F4
            X509v3 Authority Key Identifier: 
                keyid:5B:20:4C:50:AB:26:71:C7:24:42:8B:45:22:40:DF:CE:68:80:11:49
                DirName:/CN=team83-net
                serial:5E:F9:1E:73:A8:FA:49:06:13:9A:3A:91:B8:28:E6:ED:D5:82:E8:78
            X509v3 Extended Key Usage: 
                TLS Web Client Authentication
            X509v3 Key Usage: 
                Digital Signature
    Signature Algorithm: sha256WithRSAEncryption
    Signature Value:
        0e:de:91:9b:c7:42:3c:91:fa:f4:be:d9:91:51:cb:35:3d:d1:
        06:6a:a4:63:52:c2:f2:ea:c1:ca:37:ba:3d:e4:5f:8e:22:76:
        83:2a:1b:f1:c3:88:00:93:88:51:0e:df:18:a9:fe:e0:a8:41:
        94:9f:8a:48:b2:13:8d:25:99:d4:7f:fb:dc:eb:62:c2:b2:1d:
        8a:dc:86:3c:fb:12:c9:c9:2d:e6:99:b4:8f:78:01:a8:de:f3:
        ad:00:5e:23:01:97:46:55:49:96:4d:8d:8f:7e:9c:68:a2:c8:
        a7:c9:ce:1d:fb:7a:40:aa:68:29:70:66:a3:45:36:c2:f8:46:
        56:c6:9a:c5:af:f7:0c:28:a7:c1:3d:fe:5f:ea:cd:c7:1f:8b:
        e8:f1:33:a8:d5:b5:70:84:91:d8:ae:da:23:ef:f7:88:18:99:
        6a:bb:be:db:4b:11:4c:84:d7:0f:fc:5e:81:78:21:35:4e:a3:
        99:d3:9d:6b:de:fe:c0:c7:bb:c9:d6:e0:a4:58:fa:49:7d:8d:
        ab:a5:8e:ee:ca:fd:69:a9:11:5a:8b:30:c0:f6:a6:51:33:d4:
        5d:f9:73:53:d5:1a:ae:46:7b:11:3e:1a:3c:3d:d2:60:d9:e2:
        12:f6:d1:80:04:14:cf:13:e5:c0:aa:58:61:e7:ee:58:5a:4d:
        cf:53:a6:c0
-----BEGIN CERTIFICATE-----
MIIDWTCCAkGgAwIBAgIQbMUJMdEu/Km8xWp4rnbkHzANBgkqhkiG9w0BAQsFADAV
MRMwEQYDVQQDDAp0ZWFtODMtbmV0MB4XDTIzMTEwNDEwNDE1N1oXDTI2MTAxOTEw
NDE1N1owGDEWMBQGA1UEAwwNdGVhbTgzLWNsaWVudDCCASIwDQYJKoZIhvcNAQEB
BQADggEPADCCAQoCggEBAI0MLn42dxybapCy48OVsh69o/lLrztE3XwHNJiVECyt
8QjVFRnHjzCORiX8PDJHNPsQFpVbnYm7nZmGTn7NQ5PNhwi1O93amFnWPwxp853R
I9Cx6JBp4kbEX5+NeabDM0vdi23rsv+aqFVSbHreNAVbV4Mdu0vb56Ug3La/gtvL
DdDb95z0R25VqjNOE3H1jk1PAT6Hw17xyCU36Dp9OAf3/e8l0wK5I5e2T8Dyhq5g
x4YzDExLjL6O427MD8FDIj5kZOrJBS+WvojHblValyCTj7kXIG+bMflpM7TONNeQ
4Jr5TKjk0StrNrstrHXdVlAi0nfkcJ5bQMEpJu7zItMCAwEAAaOBoTCBnjAJBgNV
HRMEAjAAMB0GA1UdDgQWBBRF3yWBcSThO3ZgGdNcb5KYkQOW9DBQBgNVHSMESTBH
gBRbIExQqyZxxyRCi0UiQN/OaIARSaEZpBcwFTETMBEGA1UEAwwKdGVhbTgzLW5l
dIIUXvkec6j6SQYTmjqRuCjm7dWC6HgwEwYDVR0lBAwwCgYIKwYBBQUHAwIwCwYD
VR0PBAQDAgeAMA0GCSqGSIb3DQEBCwUAA4IBAQAO3pGbx0I8kfr0vtmRUcs1PdEG
aqRjUsLy6sHKN7o95F+OInaDKhvxw4gAk4hRDt8Yqf7gqEGUn4pIshONJZnUf/vc
62LCsh2K3IY8+xLJyS3mmbSPeAGo3vOtAF4jAZdGVUmWTY2Pfpxoosinyc4d+3pA
qmgpcGajRTbC+EZWxprFr/cMKKfBPf5f6s3HH4vo8TOo1bVwhJHYrtoj7/eIGJlq
u77bSxFMhNcP/F6BeCE1TqOZ051r3v7Ax7vJ1uCkWPpJfY2rpY7uyv1pqRFaizDA
9qZRM9Rd+XNT1RquRnsRPho8PdJg2eIS9tGABBTPE+XAqlhh5+5YWk3PU6bA
-----END CERTIFICATE-----
