Certificate:
    Data:
        Version: 3 (0x2)
        Serial Number:
            72:f8:c4:f2:1b:ca:ba:9d:25:a9:15:7e:58:34:52:96
        Signature Algorithm: sha256WithRSAEncryption
        Issuer: CN=team83-net
        Validity
            Not Before: Nov  3 20:40:37 2023 GMT
            Not After : Oct 18 20:40:37 2026 GMT
        Subject: CN=team83-client
        Subject Public Key Info:
            Public Key Algorithm: rsaEncryption
                Public-Key: (2048 bit)
                Modulus:
                    00:cf:ce:a3:63:ef:aa:1d:0a:ed:df:d4:64:89:dd:
                    28:55:88:c5:ac:77:7b:a3:e5:b8:46:14:f9:4f:4c:
                    fb:21:e2:7c:8f:56:62:c8:e4:d7:c5:9a:4c:d6:40:
                    bf:86:91:b4:b3:65:93:f5:d8:c1:43:37:37:43:97:
                    ae:ba:d9:e7:ad:c8:ff:7a:e7:ac:b2:2c:8f:11:d2:
                    c2:2e:07:75:f8:ed:c7:50:b5:b0:07:29:8e:d1:ab:
                    3d:8f:1c:bb:e3:ab:86:3d:32:67:08:e8:56:99:48:
                    fb:01:a1:4e:ee:5c:39:6d:e0:05:62:cb:8d:ce:9f:
                    b5:88:22:e7:3c:1d:36:d7:06:f4:f0:f5:83:a6:ad:
                    73:95:12:a8:5f:9d:87:d6:23:a3:ea:22:d2:4e:7a:
                    30:cf:79:27:20:d5:0a:38:03:c8:17:50:5f:24:84:
                    a1:d2:af:df:91:36:d9:6d:4b:6b:d2:8d:8b:0a:b9:
                    88:f2:1e:e8:5d:11:e6:bb:d2:eb:f0:b2:09:d9:43:
                    65:79:f6:27:45:9c:aa:17:1b:ce:4e:1d:4a:31:7d:
                    35:7c:89:31:12:a6:22:f8:77:cb:64:10:b7:c8:bf:
                    7b:c0:81:a4:ab:93:ec:5e:2a:39:3f:76:0b:9a:60:
                    c8:ca:1d:26:0b:36:d6:1c:3a:d6:3c:44:ba:48:2b:
                    4d:95
                Exponent: 65537 (0x10001)
        X509v3 extensions:
            X509v3 Basic Constraints: 
                CA:FALSE
            X509v3 Subject Key Identifier: 
                3F:07:B2:0B:50:42:73:F1:C5:2B:83:C0:CF:B0:1A:F5:DA:7C:AA:07
            X509v3 Authority Key Identifier: 
                keyid:89:42:A1:32:21:51:80:66:F8:68:5F:86:C8:A1:B2:B7:37:04:22:4C
                DirName:/CN=team83-net
                serial:61:A0:2B:3E:76:EF:48:9C:B8:E9:07:EB:43:A9:3C:88:AB:C3:FB:15
            X509v3 Extended Key Usage: 
                TLS Web Client Authentication
            X509v3 Key Usage: 
                Digital Signature
    Signature Algorithm: sha256WithRSAEncryption
    Signature Value:
        6d:34:f0:b1:9c:0d:62:fc:2d:b2:25:d4:1d:c0:81:9e:3c:40:
        a7:15:44:73:5b:1c:9d:1c:2c:58:18:9c:1f:94:21:93:ce:29:
        58:df:2e:a3:ef:41:c5:58:f1:63:27:87:b6:93:48:f2:71:01:
        3a:4d:94:9e:91:6f:16:b4:63:5c:10:16:eb:0f:1e:4a:83:19:
        f6:07:2b:bd:56:68:f2:8c:50:83:e8:16:15:67:fa:83:b5:7e:
        6c:d8:cb:76:ba:b9:f1:c4:ed:81:bf:fb:0d:4e:e9:40:79:5c:
        09:e7:65:59:5b:57:7f:71:df:41:73:63:20:c4:eb:e9:ad:d9:
        c1:ef:85:67:53:be:b4:d9:43:33:a1:38:e2:b0:7a:a7:a7:47:
        18:ea:2a:5a:90:85:d4:de:bb:e7:37:0f:75:60:24:66:f7:9c:
        2e:e8:b8:ad:ac:92:4a:88:1c:ea:fc:83:68:d5:df:90:17:d3:
        8d:d5:05:c6:c6:62:5c:4d:bf:bb:2a:e0:36:2d:04:f0:bc:c7:
        fa:02:bd:ec:f7:ea:30:97:9b:7b:09:c8:2a:45:21:de:dc:b8:
        de:06:1e:fe:e5:0c:ad:14:cd:84:a2:8c:a6:34:02:16:3e:64:
        85:05:e0:f8:7c:e8:bd:6b:cf:50:96:ca:85:57:0b:b3:c6:56:
        e1:5b:ad:e0
-----BEGIN CERTIFICATE-----
MIIDWTCCAkGgAwIBAgIQcvjE8hvKup0lqRV+WDRSljANBgkqhkiG9w0BAQsFADAV
MRMwEQYDVQQDDAp0ZWFtODMtbmV0MB4XDTIzMTEwMzIwNDAzN1oXDTI2MTAxODIw
NDAzN1owGDEWMBQGA1UEAwwNdGVhbTgzLWNsaWVudDCCASIwDQYJKoZIhvcNAQEB
BQADggEPADCCAQoCggEBAM/Oo2Pvqh0K7d/UZIndKFWIxax3e6PluEYU+U9M+yHi
fI9WYsjk18WaTNZAv4aRtLNlk/XYwUM3N0OXrrrZ563I/3rnrLIsjxHSwi4Hdfjt
x1C1sAcpjtGrPY8cu+Orhj0yZwjoVplI+wGhTu5cOW3gBWLLjc6ftYgi5zwdNtcG
9PD1g6atc5USqF+dh9Yjo+oi0k56MM95JyDVCjgDyBdQXySEodKv35E22W1La9KN
iwq5iPIe6F0R5rvS6/CyCdlDZXn2J0Wcqhcbzk4dSjF9NXyJMRKmIvh3y2QQt8i/
e8CBpKuT7F4qOT92C5pgyModJgs21hw61jxEukgrTZUCAwEAAaOBoTCBnjAJBgNV
HRMEAjAAMB0GA1UdDgQWBBQ/B7ILUEJz8cUrg8DPsBr12nyqBzBQBgNVHSMESTBH
gBSJQqEyIVGAZvhoX4bIobK3NwQiTKEZpBcwFTETMBEGA1UEAwwKdGVhbTgzLW5l
dIIUYaArPnbvSJy46QfrQ6k8iKvD+xUwEwYDVR0lBAwwCgYIKwYBBQUHAwIwCwYD
VR0PBAQDAgeAMA0GCSqGSIb3DQEBCwUAA4IBAQBtNPCxnA1i/C2yJdQdwIGePECn
FURzWxydHCxYGJwflCGTzilY3y6j70HFWPFjJ4e2k0jycQE6TZSekW8WtGNcEBbr
Dx5Kgxn2Byu9VmjyjFCD6BYVZ/qDtX5s2Mt2urnxxO2Bv/sNTulAeVwJ52VZW1d/
cd9Bc2MgxOvprdnB74VnU7602UMzoTjisHqnp0cY6ipakIXU3rvnNw91YCRm95wu
6LitrJJKiBzq/INo1d+QF9ON1QXGxmJcTb+7KuA2LQTwvMf6Ar3s9+owl5t7Ccgq
RSHe3LjeBh7+5QytFM2EooymNAIWPmSFBeD4fOi9a89QlsqFVwuzxlbhW63g
-----END CERTIFICATE-----
