Certificate:
    Data:
        Version: 3 (0x2)
        Serial Number:
            9c:b4:66:fb:a5:3b:f1:8c:38:d6:15:ed:b0:c4:a1:3d
        Signature Algorithm: sha256WithRSAEncryption
        Issuer: CN=team83-net
        Validity
            Not Before: Nov  4 11:28:59 2023 GMT
            Not After : Oct 19 11:28:59 2026 GMT
        Subject: CN=team83-client
        Subject Public Key Info:
            Public Key Algorithm: rsaEncryption
                Public-Key: (2048 bit)
                Modulus:
                    00:ae:a3:78:61:22:04:3d:16:03:eb:64:dd:91:64:
                    d1:7b:2c:21:d0:9d:68:b4:41:98:5f:10:ff:01:5a:
                    06:d6:bf:bc:77:35:1e:81:01:cc:7c:21:56:8f:44:
                    3e:e8:78:d4:61:32:81:43:55:fe:34:09:97:97:08:
                    8f:8c:8b:1c:2e:bc:a8:db:39:ad:69:f2:dd:6b:d3:
                    08:d5:b1:a8:fc:1c:f3:94:b3:07:83:86:90:20:b9:
                    f4:9b:5d:fe:48:d1:ed:b2:aa:4b:e5:02:82:34:d2:
                    e7:b7:f9:e5:5b:39:d6:a6:79:ca:ff:02:d5:61:87:
                    70:d1:49:bb:f9:39:4c:d0:95:cc:0c:fc:82:f9:0a:
                    46:10:d1:97:a8:0f:e0:5e:84:94:cf:ed:06:bb:86:
                    27:02:1b:81:43:cd:b9:44:9d:1e:a7:2c:0d:e9:50:
                    b7:a6:d3:22:0d:0d:e6:83:fa:ff:45:b0:3d:7c:d3:
                    d7:2c:5c:cd:db:2e:da:23:bf:10:09:e7:1a:06:2f:
                    f1:6a:d6:80:29:58:6b:43:c8:21:b8:35:7d:fd:2e:
                    37:f1:67:31:de:44:49:31:4f:d7:00:ae:69:61:58:
                    6e:0e:0f:fe:a0:90:03:06:c9:85:8a:33:59:06:61:
                    68:f1:8c:df:ba:81:fb:9d:a0:0d:c9:79:69:41:7f:
                    11:91
                Exponent: 65537 (0x10001)
        X509v3 extensions:
            X509v3 Basic Constraints: 
                CA:FALSE
            X509v3 Subject Key Identifier: 
                BF:AF:EB:D3:D6:64:34:0C:2A:0A:9C:24:72:68:15:A1:71:F4:88:92
            X509v3 Authority Key Identifier: 
                keyid:A3:1E:5B:B7:DA:1E:97:CD:A2:A1:80:08:B2:0D:9F:9A:6C:DC:F3:9B
                DirName:/CN=team83-net
                serial:7A:16:4D:04:D4:FE:1B:39:57:82:20:F6:C1:E7:03:BB:07:F2:60:3A
            X509v3 Extended Key Usage: 
                TLS Web Client Authentication
            X509v3 Key Usage: 
                Digital Signature
    Signature Algorithm: sha256WithRSAEncryption
    Signature Value:
        13:15:62:a4:1e:08:91:cf:8a:9a:91:db:af:31:e2:0b:d2:08:
        3a:84:48:1c:94:14:fc:b8:97:89:94:3e:91:7c:c3:cb:b6:fc:
        04:c1:5d:ff:2c:b2:56:aa:05:15:6d:4c:56:1c:d0:d8:f0:8a:
        e9:e5:c7:75:8c:60:35:d7:01:fe:49:9b:5f:00:e4:c5:92:1a:
        9f:e5:b7:b1:04:e1:63:c2:25:dd:e4:79:fb:cd:cf:d0:50:d7:
        22:0b:bc:be:ee:9a:a3:c1:26:18:ab:40:d7:70:59:92:e5:86:
        81:c6:dd:e4:89:c2:ae:69:32:54:b2:02:27:91:54:fc:af:0a:
        5b:0e:a3:ee:9d:20:5a:c1:7d:57:b9:24:48:e4:1f:ce:f2:32:
        14:1b:ca:00:77:c2:fb:ea:ed:9a:6f:5e:69:e6:cc:74:9b:92:
        fa:39:e5:cc:53:f6:c2:cc:40:8f:df:6b:24:12:97:eb:52:87:
        fb:8a:42:87:1c:a9:41:ee:d8:0e:51:8c:4e:a3:2c:62:93:47:
        3e:85:4d:87:46:38:4a:fa:70:cc:0f:ce:60:78:2e:db:f3:59:
        60:24:60:9a:92:9a:6a:8d:94:7c:bb:4e:27:ce:8a:97:9c:fb:
        28:0c:cf:e6:88:25:a8:dc:f0:a2:b9:ad:f7:18:e1:6e:ef:d1:
        ca:dd:c9:4a
-----BEGIN CERTIFICATE-----
MIIDWjCCAkKgAwIBAgIRAJy0ZvulO/GMONYV7bDEoT0wDQYJKoZIhvcNAQELBQAw
FTETMBEGA1UEAwwKdGVhbTgzLW5ldDAeFw0yMzExMDQxMTI4NTlaFw0yNjEwMTkx
MTI4NTlaMBgxFjAUBgNVBAMMDXRlYW04My1jbGllbnQwggEiMA0GCSqGSIb3DQEB
AQUAA4IBDwAwggEKAoIBAQCuo3hhIgQ9FgPrZN2RZNF7LCHQnWi0QZhfEP8BWgbW
v7x3NR6BAcx8IVaPRD7oeNRhMoFDVf40CZeXCI+MixwuvKjbOa1p8t1r0wjVsaj8
HPOUsweDhpAgufSbXf5I0e2yqkvlAoI00ue3+eVbOdamecr/AtVhh3DRSbv5OUzQ
lcwM/IL5CkYQ0ZeoD+BehJTP7Qa7hicCG4FDzblEnR6nLA3pULem0yINDeaD+v9F
sD1809csXM3bLtojvxAJ5xoGL/Fq1oApWGtDyCG4NX39LjfxZzHeREkxT9cArmlh
WG4OD/6gkAMGyYWKM1kGYWjxjN+6gfudoA3JeWlBfxGRAgMBAAGjgaEwgZ4wCQYD
VR0TBAIwADAdBgNVHQ4EFgQUv6/r09ZkNAwqCpwkcmgVoXH0iJIwUAYDVR0jBEkw
R4AUox5bt9oel82ioYAIsg2fmmzc85uhGaQXMBUxEzARBgNVBAMMCnRlYW04My1u
ZXSCFHoWTQTU/hs5V4Ig9sHnA7sH8mA6MBMGA1UdJQQMMAoGCCsGAQUFBwMCMAsG
A1UdDwQEAwIHgDANBgkqhkiG9w0BAQsFAAOCAQEAExVipB4Ikc+KmpHbrzHiC9II
OoRIHJQU/LiXiZQ+kXzDy7b8BMFd/yyyVqoFFW1MVhzQ2PCK6eXHdYxgNdcB/kmb
XwDkxZIan+W3sQThY8Il3eR5+83P0FDXIgu8vu6ao8EmGKtA13BZkuWGgcbd5InC
rmkyVLICJ5FU/K8KWw6j7p0gWsF9V7kkSOQfzvIyFBvKAHfC++rtmm9eaebMdJuS
+jnlzFP2wsxAj99rJBKX61KH+4pChxypQe7YDlGMTqMsYpNHPoVNh0Y4SvpwzA/O
YHgu2/NZYCRgmpKaao2UfLtOJ86Kl5z7KAzP5oglqNzwormt9xjhbu/Ryt3JSg==
-----END CERTIFICATE-----
