Certificate:
    Data:
        Version: 3 (0x2)
        Serial Number:
            c3:63:c2:58:b1:57:d0:39:d6:74:ba:32:7f:50:9a:31
        Signature Algorithm: sha256WithRSAEncryption
        Issuer: CN=team58-net
        Validity
            Not Before: Nov  4 10:41:22 2023 GMT
            Not After : Oct 19 10:41:22 2026 GMT
        Subject: CN=team58-server
        Subject Public Key Info:
            Public Key Algorithm: rsaEncryption
                Public-Key: (2048 bit)
                Modulus:
                    00:cb:68:b6:96:91:75:8e:10:cd:62:7b:45:02:9a:
                    67:a1:c0:04:a1:26:7b:a8:62:03:62:7b:e2:54:46:
                    5e:35:a6:1f:fb:6e:98:0b:b1:1e:12:fb:ae:88:93:
                    92:92:f3:9a:27:80:14:fa:d1:ec:d6:f9:ff:51:a1:
                    8b:b5:01:41:40:b8:07:9a:ca:12:9b:bc:e2:a0:bf:
                    db:f5:ce:a6:38:49:95:f7:e0:31:a3:31:6b:18:22:
                    cb:c8:79:9f:90:84:b1:71:eb:a3:0b:48:62:dc:61:
                    5f:13:ea:b9:57:81:84:9b:20:f8:f2:d6:05:6a:5a:
                    e3:6a:59:a6:a7:62:0a:c8:2e:9b:43:b0:3e:80:d0:
                    82:6c:21:74:39:12:12:93:4a:a1:38:89:ae:9b:39:
                    29:b8:d5:e5:29:84:27:7f:15:dd:10:bd:18:8e:1e:
                    75:a6:8b:d7:87:8f:64:33:3b:8e:26:5b:83:6b:6c:
                    28:4f:bb:f8:8c:b8:cc:51:d2:54:71:04:48:70:5a:
                    ec:8e:16:2f:78:2c:dd:ba:34:36:03:79:a9:45:30:
                    21:45:8c:0a:00:c3:39:75:b4:64:eb:21:d2:f3:1d:
                    f2:94:e8:2b:b4:94:a9:1b:ed:97:df:47:2e:98:14:
                    b7:36:d3:77:81:92:df:75:78:9b:09:2b:6c:ea:a1:
                    52:cf
                Exponent: 65537 (0x10001)
        X509v3 extensions:
            X509v3 Basic Constraints: 
                CA:FALSE
            X509v3 Subject Key Identifier: 
                CC:7C:A8:44:17:7F:98:C7:A6:40:F0:36:50:D5:80:78:4B:7D:42:01
            X509v3 Authority Key Identifier: 
                keyid:B2:75:6D:22:27:0D:9D:9F:52:09:6F:D2:37:73:30:87:63:20:0C:97
                DirName:/CN=team58-net
                serial:44:91:F7:E2:63:2B:56:8F:D1:31:66:11:F5:64:CA:B5:F9:64:F7:34
            X509v3 Extended Key Usage: 
                TLS Web Server Authentication
            X509v3 Key Usage: 
                Digital Signature, Key Encipherment
            X509v3 Subject Alternative Name: 
                DNS:team58-server
    Signature Algorithm: sha256WithRSAEncryption
    Signature Value:
        4e:72:3d:b8:db:05:e2:28:a4:e9:8a:f6:fc:22:a6:17:46:2f:
        95:f7:40:30:10:54:f5:6d:26:91:9a:c5:ca:47:b5:e4:66:c6:
        44:db:84:b1:d6:21:68:f9:2a:56:70:af:f8:2f:90:22:84:29:
        10:5b:77:bb:d6:7d:89:ca:38:8a:f2:00:d5:19:30:99:73:3d:
        f7:6c:c3:8d:24:24:6a:4d:ee:d2:2f:4d:80:43:87:b4:26:b7:
        47:0e:12:24:7b:a1:dd:7f:14:1d:a9:66:05:8a:12:53:08:99:
        2a:8a:44:c3:32:20:e2:c9:13:f3:d4:93:a9:ab:e6:9e:31:70:
        e0:4a:11:99:e8:50:8b:f8:66:c2:b1:23:3d:c4:ce:5c:6d:33:
        50:79:48:85:e6:5f:37:16:5b:f6:30:79:a6:e1:73:ed:e8:66:
        75:d3:a2:ec:17:ea:9f:17:12:a2:fa:cd:b1:a4:64:e4:6d:5d:
        28:a3:b3:9d:ff:27:91:f4:43:85:32:97:77:5d:f0:c3:ef:63:
        ac:60:9c:38:ac:9c:2f:ec:82:92:53:cb:8d:c6:ca:0a:f6:bf:
        d4:1c:4c:d6:98:94:18:b3:28:4d:f2:47:75:b4:98:5d:1a:82:
        d4:26:2e:08:78:a4:a7:0a:2c:39:a4:45:65:7f:d2:69:60:7c:
        33:f9:77:ce
-----BEGIN CERTIFICATE-----
MIIDdDCCAlygAwIBAgIRAMNjwlixV9A51nS6Mn9QmjEwDQYJKoZIhvcNAQELBQAw
FTETMBEGA1UEAwwKdGVhbTU4LW5ldDAeFw0yMzExMDQxMDQxMjJaFw0yNjEwMTkx
MDQxMjJaMBgxFjAUBgNVBAMMDXRlYW01OC1zZXJ2ZXIwggEiMA0GCSqGSIb3DQEB
AQUAA4IBDwAwggEKAoIBAQDLaLaWkXWOEM1ie0UCmmehwAShJnuoYgNie+JURl41
ph/7bpgLsR4S+66Ik5KS85ongBT60ezW+f9RoYu1AUFAuAeayhKbvOKgv9v1zqY4
SZX34DGjMWsYIsvIeZ+QhLFx66MLSGLcYV8T6rlXgYSbIPjy1gVqWuNqWaanYgrI
LptDsD6A0IJsIXQ5EhKTSqE4ia6bOSm41eUphCd/Fd0QvRiOHnWmi9eHj2QzO44m
W4NrbChPu/iMuMxR0lRxBEhwWuyOFi94LN26NDYDealFMCFFjAoAwzl1tGTrIdLz
HfKU6Cu0lKkb7ZffRy6YFLc203eBkt91eJsJK2zqoVLPAgMBAAGjgbswgbgwCQYD
VR0TBAIwADAdBgNVHQ4EFgQUzHyoRBd/mMemQPA2UNWAeEt9QgEwUAYDVR0jBEkw
R4AUsnVtIicNnZ9SCW/SN3Mwh2MgDJehGaQXMBUxEzARBgNVBAMMCnRlYW01OC1u
ZXSCFESR9+JjK1aP0TFmEfVkyrX5ZPc0MBMGA1UdJQQMMAoGCCsGAQUFBwMBMAsG
A1UdDwQEAwIFoDAYBgNVHREEETAPgg10ZWFtNTgtc2VydmVyMA0GCSqGSIb3DQEB
CwUAA4IBAQBOcj242wXiKKTpivb8IqYXRi+V90AwEFT1bSaRmsXKR7XkZsZE24Sx
1iFo+SpWcK/4L5AihCkQW3e71n2JyjiK8gDVGTCZcz33bMONJCRqTe7SL02AQ4e0
JrdHDhIke6HdfxQdqWYFihJTCJkqikTDMiDiyRPz1JOpq+aeMXDgShGZ6FCL+GbC
sSM9xM5cbTNQeUiF5l83Flv2MHmm4XPt6GZ106LsF+qfFxKi+s2xpGTkbV0oo7Od
/yeR9EOFMpd3XfDD72OsYJw4rJwv7IKSU8uNxsoK9r/UHEzWmJQYsyhN8kd1tJhd
GoLUJi4IeKSnCiw5pEVlf9JpYHwz+XfO
-----END CERTIFICATE-----
