Certificate:
    Data:
        Version: 3 (0x2)
        Serial Number:
            59:9c:b1:ee:fb:a7:67:16:f8:25:25:cd:62:b3:42:c9
        Signature Algorithm: sha256WithRSAEncryption
        Issuer: CN=team222-net
        Validity
            Not Before: Nov  4 10:44:47 2023 GMT
            Not After : Oct 19 10:44:47 2026 GMT
        Subject: CN=team222-client
        Subject Public Key Info:
            Public Key Algorithm: rsaEncryption
                Public-Key: (2048 bit)
                Modulus:
                    00:b9:b8:67:ec:90:c4:eb:dc:2c:aa:27:8d:6b:9f:
                    fc:1c:82:c6:96:56:1e:f5:f9:dc:62:1d:b8:20:d1:
                    35:b4:d0:ce:45:c6:b2:4e:d0:1f:77:3a:b6:a1:c0:
                    4a:68:1f:ed:b3:ee:a0:d1:de:6d:86:51:44:6b:f0:
                    f5:85:39:0e:79:81:32:5c:de:97:bf:e2:ae:1e:97:
                    e8:77:10:3f:b6:f0:b6:82:14:d5:32:57:c2:ae:bb:
                    79:e8:a4:83:f5:da:ef:ca:f3:52:46:0b:63:37:6a:
                    09:c1:28:18:9a:81:94:dd:82:02:ef:8b:e5:1b:fb:
                    49:30:ed:90:83:d6:7a:b2:5f:22:12:71:87:6e:8d:
                    49:05:62:84:78:34:5f:b5:90:ad:5c:e4:42:91:25:
                    ba:1c:92:02:12:7d:46:72:64:13:23:07:ce:92:cb:
                    a2:55:d3:66:ae:20:27:54:99:ab:f2:5a:c5:f1:6a:
                    0d:94:08:a6:76:39:e4:ba:b7:40:4a:78:60:82:f9:
                    60:cc:df:aa:6d:67:13:7a:12:b5:0b:58:26:83:74:
                    4c:33:2c:cd:27:ec:5e:44:97:41:7a:ca:2f:97:97:
                    e0:7c:cd:a3:00:5a:bd:c3:4b:72:6c:ff:4e:6b:84:
                    b7:22:b0:7f:b3:17:32:53:49:dd:68:ca:c2:c0:33:
                    e7:3d
                Exponent: 65537 (0x10001)
        X509v3 extensions:
            X509v3 Basic Constraints: 
                CA:FALSE
            X509v3 Subject Key Identifier: 
                DA:A6:50:5C:20:F1:40:CA:02:91:3F:30:CF:FB:1B:07:E0:5A:04:A2
            X509v3 Authority Key Identifier: 
                keyid:D1:A8:E5:57:F3:FB:6B:D7:F8:E5:89:AD:F4:4D:A6:16:4B:25:F9:08
                DirName:/CN=team222-net
                serial:63:A2:7E:94:D5:2A:32:08:4F:CD:F5:77:A8:3E:CA:70:65:1F:95:0E
            X509v3 Extended Key Usage: 
                TLS Web Client Authentication
            X509v3 Key Usage: 
                Digital Signature
    Signature Algorithm: sha256WithRSAEncryption
    Signature Value:
        ca:8c:ac:97:20:59:dc:a0:93:1c:b3:4a:9e:8e:2e:fc:f7:30:
        e6:9a:1c:38:56:56:d9:93:55:50:19:d8:4c:83:ba:bd:63:06:
        11:70:51:20:95:43:d2:93:34:33:f2:a3:6c:3b:b0:9e:bd:98:
        78:b1:5e:97:3f:e0:b0:7a:47:00:e0:e0:bc:2b:c5:23:a6:c1:
        32:13:d2:a4:f4:58:e7:68:1c:04:35:58:30:48:79:23:88:15:
        58:f7:32:29:4e:27:97:6e:49:40:bd:3e:b8:fc:71:ad:49:1c:
        c9:03:c4:8b:ae:1e:35:8e:a1:9c:2b:43:69:0a:b5:d6:4a:2d:
        15:d0:3d:26:f6:1b:24:80:a1:e5:72:f4:a2:b8:c8:ad:4a:f2:
        98:28:6b:c7:cf:28:9c:da:2d:bd:a1:1f:8f:c6:7f:8a:cf:c6:
        0d:86:27:68:8b:12:73:7f:f3:c5:ba:11:df:9f:8e:28:36:96:
        c9:56:c2:0e:1e:24:d0:7b:e5:cf:8c:93:66:bc:e8:da:66:23:
        f9:30:df:74:06:b9:82:20:50:dd:25:27:04:38:4d:5e:b0:b1:
        5b:d2:4b:67:5c:7d:e2:a1:e6:e9:78:1e:cb:7e:c2:a4:15:6c:
        97:29:67:64:f4:f9:ef:c4:f6:4c:bd:16:d6:aa:ca:45:18:90:
        f7:c7:c9:8e
-----BEGIN CERTIFICATE-----
MIIDXDCCAkSgAwIBAgIQWZyx7vunZxb4JSXNYrNCyTANBgkqhkiG9w0BAQsFADAW
MRQwEgYDVQQDDAt0ZWFtMjIyLW5ldDAeFw0yMzExMDQxMDQ0NDdaFw0yNjEwMTkx
MDQ0NDdaMBkxFzAVBgNVBAMMDnRlYW0yMjItY2xpZW50MIIBIjANBgkqhkiG9w0B
AQEFAAOCAQ8AMIIBCgKCAQEAubhn7JDE69wsqieNa5/8HILGllYe9fncYh24INE1
tNDORcayTtAfdzq2ocBKaB/ts+6g0d5thlFEa/D1hTkOeYEyXN6Xv+KuHpfodxA/
tvC2ghTVMlfCrrt56KSD9drvyvNSRgtjN2oJwSgYmoGU3YIC74vlG/tJMO2Qg9Z6
sl8iEnGHbo1JBWKEeDRftZCtXORCkSW6HJICEn1GcmQTIwfOksuiVdNmriAnVJmr
8lrF8WoNlAimdjnkurdASnhggvlgzN+qbWcTehK1C1gmg3RMMyzNJ+xeRJdBesov
l5fgfM2jAFq9w0tybP9Oa4S3IrB/sxcyU0ndaMrCwDPnPQIDAQABo4GiMIGfMAkG
A1UdEwQCMAAwHQYDVR0OBBYEFNqmUFwg8UDKApE/MM/7GwfgWgSiMFEGA1UdIwRK
MEiAFNGo5Vfz+2vX+OWJrfRNphZLJfkIoRqkGDAWMRQwEgYDVQQDDAt0ZWFtMjIy
LW5ldIIUY6J+lNUqMghPzfV3qD7KcGUflQ4wEwYDVR0lBAwwCgYIKwYBBQUHAwIw
CwYDVR0PBAQDAgeAMA0GCSqGSIb3DQEBCwUAA4IBAQDKjKyXIFncoJMcs0qeji78
9zDmmhw4VlbZk1VQGdhMg7q9YwYRcFEglUPSkzQz8qNsO7CevZh4sV6XP+CwekcA
4OC8K8UjpsEyE9Kk9FjnaBwENVgwSHkjiBVY9zIpTieXbklAvT64/HGtSRzJA8SL
rh41jqGcK0NpCrXWSi0V0D0m9hskgKHlcvSiuMitSvKYKGvHzyic2i29oR+Pxn+K
z8YNhidoixJzf/PFuhHfn44oNpbJVsIOHiTQe+XPjJNmvOjaZiP5MN90BrmCIFDd
JScEOE1esLFb0ktnXH3ioebpeB7LfsKkFWyXKWdk9PnvxPZMvRbWqspFGJD3x8mO
-----END CERTIFICATE-----
