Certificate:
    Data:
        Version: 3 (0x2)
        Serial Number:
            5a:ed:1f:3a:74:7a:0b:7d:4b:f3:cb:c4:0c:a2:04:57
        Signature Algorithm: sha256WithRSAEncryption
        Issuer: CN=team222-net
        Validity
            Not Before: Nov  4 11:31:59 2023 GMT
            Not After : Oct 19 11:31:59 2026 GMT
        Subject: CN=team222-client
        Subject Public Key Info:
            Public Key Algorithm: rsaEncryption
                Public-Key: (2048 bit)
                Modulus:
                    00:c1:a3:53:50:55:43:6e:ee:a8:4e:0a:d8:15:2a:
                    70:35:00:6b:79:aa:50:1b:e6:75:93:13:3d:73:42:
                    58:a0:64:5d:2c:64:a3:68:a8:38:84:3a:74:37:4b:
                    c2:0b:a9:72:60:a4:55:dd:22:45:c1:65:fc:5d:70:
                    5b:ff:f5:6a:9c:f4:e6:b5:56:7d:14:d4:a5:c3:d4:
                    8f:f4:42:18:fd:0d:4f:6a:55:34:c5:69:76:45:0d:
                    68:6c:00:bb:54:8c:71:0b:84:21:34:18:5e:01:99:
                    26:90:50:ab:1e:b3:8a:16:d1:c7:78:78:e1:8e:dd:
                    d2:8a:3d:ca:28:20:96:f5:50:8a:9f:35:11:0e:bb:
                    fc:95:d1:f7:92:52:0e:68:df:95:a4:91:de:57:bf:
                    bf:be:bf:38:51:60:56:4d:15:d8:6a:a3:09:e6:2d:
                    8f:f1:ac:0a:a3:09:41:12:e6:87:07:df:f7:d6:61:
                    90:d2:ce:f6:81:6f:49:47:3a:6f:84:b7:9b:4c:2c:
                    05:2d:ac:5b:cc:c2:2f:cd:9a:c5:ab:8a:06:13:5f:
                    bb:75:7d:70:5b:cb:fb:58:a1:96:91:8d:bd:15:13:
                    6b:f4:da:15:1f:77:23:b4:a6:44:b8:c3:90:45:dd:
                    b9:26:cf:d1:6e:15:7a:98:f8:6f:cc:57:f7:31:ba:
                    cb:0d
                Exponent: 65537 (0x10001)
        X509v3 extensions:
            X509v3 Basic Constraints: 
                CA:FALSE
            X509v3 Subject Key Identifier: 
                E8:D5:5C:F1:E0:EB:25:CC:3F:09:BA:46:B5:32:12:41:53:9F:EC:18
            X509v3 Authority Key Identifier: 
                keyid:ED:3A:E1:33:3F:79:8A:45:89:B5:21:69:36:EC:85:DB:AA:20:36:1F
                DirName:/CN=team222-net
                serial:46:33:F6:5E:E5:BC:F5:70:A2:FF:E5:A3:01:6A:29:5C:79:01:A5:0A
            X509v3 Extended Key Usage: 
                TLS Web Client Authentication
            X509v3 Key Usage: 
                Digital Signature
    Signature Algorithm: sha256WithRSAEncryption
    Signature Value:
        a1:29:2c:d3:ad:ba:21:22:e1:55:ef:d5:2a:3c:da:5e:2a:c4:
        68:4a:ee:7c:31:2f:77:c6:a0:29:03:f7:16:a5:be:0f:0a:43:
        82:af:f9:8c:4b:2f:bf:c9:77:07:59:81:35:26:41:e2:9f:c5:
        f9:d9:ee:14:51:34:dc:90:8b:f7:3c:ff:99:e9:b3:59:d5:d4:
        78:db:0b:f3:9f:d6:51:17:49:0f:8a:d0:85:27:dd:cd:f2:90:
        d2:f0:aa:41:fc:5e:8c:cb:21:8e:02:c5:6b:2a:9a:22:5c:68:
        17:af:e7:5e:a4:8f:db:af:6d:3c:07:da:75:6e:32:05:f9:5e:
        ef:10:f2:f6:28:e1:4d:e5:fe:55:ad:28:53:b0:c7:96:1c:a1:
        e4:47:a9:6b:b9:08:6d:e8:59:55:11:42:b9:68:ba:9f:e9:1a:
        07:c2:cc:45:3e:37:d1:82:46:16:03:b3:22:36:00:a5:61:01:
        d0:f4:61:4a:c6:ce:86:23:20:03:99:aa:47:e2:4d:de:f6:3f:
        c1:20:e9:40:16:70:3b:4e:6c:8f:bc:ec:80:57:90:f1:42:25:
        89:ca:6b:6c:c4:27:ee:70:ab:ad:29:3c:aa:52:35:36:ba:c2:
        a8:84:22:79:cb:34:b4:78:fa:5f:9e:b0:2d:db:93:d6:de:2a:
        3f:f2:84:bc
-----BEGIN CERTIFICATE-----
MIIDXDCCAkSgAwIBAgIQWu0fOnR6C31L88vEDKIEVzANBgkqhkiG9w0BAQsFADAW
MRQwEgYDVQQDDAt0ZWFtMjIyLW5ldDAeFw0yMzExMDQxMTMxNTlaFw0yNjEwMTkx
MTMxNTlaMBkxFzAVBgNVBAMMDnRlYW0yMjItY2xpZW50MIIBIjANBgkqhkiG9w0B
AQEFAAOCAQ8AMIIBCgKCAQEAwaNTUFVDbu6oTgrYFSpwNQBreapQG+Z1kxM9c0JY
oGRdLGSjaKg4hDp0N0vCC6lyYKRV3SJFwWX8XXBb//VqnPTmtVZ9FNSlw9SP9EIY
/Q1PalU0xWl2RQ1obAC7VIxxC4QhNBheAZkmkFCrHrOKFtHHeHjhjt3Sij3KKCCW
9VCKnzURDrv8ldH3klIOaN+VpJHeV7+/vr84UWBWTRXYaqMJ5i2P8awKowlBEuaH
B9/31mGQ0s72gW9JRzpvhLebTCwFLaxbzMIvzZrFq4oGE1+7dX1wW8v7WKGWkY29
FRNr9NoVH3cjtKZEuMOQRd25Js/RbhV6mPhvzFf3MbrLDQIDAQABo4GiMIGfMAkG
A1UdEwQCMAAwHQYDVR0OBBYEFOjVXPHg6yXMPwm6RrUyEkFTn+wYMFEGA1UdIwRK
MEiAFO064TM/eYpFibUhaTbshduqIDYfoRqkGDAWMRQwEgYDVQQDDAt0ZWFtMjIy
LW5ldIIURjP2XuW89XCi/+WjAWopXHkBpQowEwYDVR0lBAwwCgYIKwYBBQUHAwIw
CwYDVR0PBAQDAgeAMA0GCSqGSIb3DQEBCwUAA4IBAQChKSzTrbohIuFV79UqPNpe
KsRoSu58MS93xqApA/cWpb4PCkOCr/mMSy+/yXcHWYE1JkHin8X52e4UUTTckIv3
PP+Z6bNZ1dR42wvzn9ZRF0kPitCFJ93N8pDS8KpB/F6MyyGOAsVrKpoiXGgXr+de
pI/br208B9p1bjIF+V7vEPL2KOFN5f5VrShTsMeWHKHkR6lruQht6FlVEUK5aLqf
6RoHwsxFPjfRgkYWA7MiNgClYQHQ9GFKxs6GIyADmapH4k3e9j/BIOlAFnA7TmyP
vOyAV5DxQiWJymtsxCfucKutKTyqUjU2usKohCJ5yzS0ePpfnrAt25PW3io/8oS8
-----END CERTIFICATE-----
