Certificate:
    Data:
        Version: 3 (0x2)
        Serial Number:
            9f:ee:11:37:53:b9:69:3b:20:65:ff:f9:d1:44:a1:a0
        Signature Algorithm: sha256WithRSAEncryption
        Issuer: CN=team222-net
        Validity
            Not Before: Nov  4 11:31:59 2023 GMT
            Not After : Oct 19 11:31:59 2026 GMT
        Subject: CN=team222-server
        Subject Public Key Info:
            Public Key Algorithm: rsaEncryption
                Public-Key: (2048 bit)
                Modulus:
                    00:90:16:6b:4c:22:d4:9a:cb:60:a9:22:5e:cb:a0:
                    95:36:92:c3:b5:67:f5:a0:fa:f7:ff:0c:a0:0a:6e:
                    a8:5a:2e:70:94:40:09:92:1f:8b:c2:57:67:38:ed:
                    9a:8c:e0:5d:f3:6d:68:b2:c3:d7:a4:10:97:a5:1a:
                    6a:08:6c:f7:f2:64:47:27:f3:bd:2e:2f:df:f0:f6:
                    33:dc:de:c0:eb:66:36:87:e9:62:75:c0:c7:3b:8d:
                    18:44:ef:f7:83:99:82:e7:fa:fe:49:c3:46:4c:3d:
                    8a:57:01:19:5a:d8:05:a7:c0:43:08:fd:c8:87:a1:
                    2d:4f:82:8a:f3:1a:92:e1:54:78:cf:16:fe:ec:38:
                    44:03:31:10:55:c6:63:4e:94:0c:d5:5c:53:fa:1e:
                    dd:06:d1:90:6a:fd:de:8a:fe:38:26:6d:54:e0:7c:
                    eb:11:17:54:d7:10:24:49:f0:a3:28:97:1d:43:17:
                    99:34:3b:e1:6c:d0:7a:a3:a3:b8:2b:2a:01:46:a3:
                    b6:89:5f:bd:84:9f:ee:5f:d6:62:98:9b:1e:13:17:
                    c4:a1:53:1b:de:06:83:30:cd:58:0e:d5:08:0b:ba:
                    5c:90:18:3d:6b:6e:2e:31:9b:9e:8a:64:6a:3e:00:
                    77:76:c2:05:a8:b5:20:a6:a1:4b:2d:3d:cf:6c:b0:
                    c6:55
                Exponent: 65537 (0x10001)
        X509v3 extensions:
            X509v3 Basic Constraints: 
                CA:FALSE
            X509v3 Subject Key Identifier: 
                E8:62:79:12:43:0B:2B:8C:D4:91:DC:8D:C6:82:D4:42:57:CA:A4:48
            X509v3 Authority Key Identifier: 
                keyid:ED:3A:E1:33:3F:79:8A:45:89:B5:21:69:36:EC:85:DB:AA:20:36:1F
                DirName:/CN=team222-net
                serial:46:33:F6:5E:E5:BC:F5:70:A2:FF:E5:A3:01:6A:29:5C:79:01:A5:0A
            X509v3 Extended Key Usage: 
                TLS Web Server Authentication
            X509v3 Key Usage: 
                Digital Signature, Key Encipherment
            X509v3 Subject Alternative Name: 
                DNS:team222-server
    Signature Algorithm: sha256WithRSAEncryption
    Signature Value:
        81:10:91:97:82:9d:b0:db:55:9a:02:69:33:72:cf:41:8c:c0:
        e2:53:37:b6:9b:dd:86:ed:0a:c4:f7:3b:14:9b:ff:4f:b7:0c:
        e0:3c:eb:53:ec:f8:70:fb:d7:38:58:70:74:a5:cb:90:52:2e:
        97:d8:a3:99:bf:d1:77:37:19:78:dc:d8:29:e5:cd:b0:11:a7:
        fd:4e:ed:f5:c3:e1:cc:6c:72:bf:18:78:38:16:31:54:5d:3e:
        16:44:bb:89:23:fd:5d:ce:95:1e:71:eb:8f:12:00:8f:35:56:
        3c:25:61:10:9f:47:da:49:3a:f0:9d:31:47:a2:4a:b3:aa:6f:
        45:ce:60:c5:8e:71:eb:70:76:a3:be:43:2c:8e:35:5b:21:b2:
        d7:2f:b9:c1:63:08:d6:4f:c2:75:08:c4:6f:8e:da:23:22:a9:
        55:ab:c1:0c:61:25:94:3a:e0:01:21:a8:a5:e3:b0:87:a0:b4:
        d5:15:a5:fe:a8:ac:37:3d:13:8b:99:a6:e3:29:59:f7:18:2c:
        97:a1:fa:41:46:a4:d2:4c:46:ac:f8:1b:36:a7:0b:36:71:2d:
        65:a8:d7:18:ac:97:fb:d3:97:5b:c5:cb:63:3e:9e:d6:ff:58:
        82:67:62:56:af:0b:9b:75:6c:cb:83:16:4f:76:ee:88:4f:0a:
        9d:20:cb:2f
-----BEGIN CERTIFICATE-----
MIIDeDCCAmCgAwIBAgIRAJ/uETdTuWk7IGX/+dFEoaAwDQYJKoZIhvcNAQELBQAw
FjEUMBIGA1UEAwwLdGVhbTIyMi1uZXQwHhcNMjMxMTA0MTEzMTU5WhcNMjYxMDE5
MTEzMTU5WjAZMRcwFQYDVQQDDA50ZWFtMjIyLXNlcnZlcjCCASIwDQYJKoZIhvcN
AQEBBQADggEPADCCAQoCggEBAJAWa0wi1JrLYKkiXsuglTaSw7Vn9aD69/8MoApu
qFoucJRACZIfi8JXZzjtmozgXfNtaLLD16QQl6Uaaghs9/JkRyfzvS4v3/D2M9ze
wOtmNofpYnXAxzuNGETv94OZguf6/knDRkw9ilcBGVrYBafAQwj9yIehLU+CivMa
kuFUeM8W/uw4RAMxEFXGY06UDNVcU/oe3QbRkGr93or+OCZtVOB86xEXVNcQJEnw
oyiXHUMXmTQ74WzQeqOjuCsqAUajtolfvYSf7l/WYpibHhMXxKFTG94GgzDNWA7V
CAu6XJAYPWtuLjGbnopkaj4Ad3bCBai1IKahSy09z2ywxlUCAwEAAaOBvTCBujAJ
BgNVHRMEAjAAMB0GA1UdDgQWBBToYnkSQwsrjNSR3I3GgtRCV8qkSDBRBgNVHSME
SjBIgBTtOuEzP3mKRYm1IWk27IXbqiA2H6EapBgwFjEUMBIGA1UEAwwLdGVhbTIy
Mi1uZXSCFEYz9l7lvPVwov/lowFqKVx5AaUKMBMGA1UdJQQMMAoGCCsGAQUFBwMB
MAsGA1UdDwQEAwIFoDAZBgNVHREEEjAQgg50ZWFtMjIyLXNlcnZlcjANBgkqhkiG
9w0BAQsFAAOCAQEAgRCRl4KdsNtVmgJpM3LPQYzA4lM3tpvdhu0KxPc7FJv/T7cM
4DzrU+z4cPvXOFhwdKXLkFIul9ijmb/RdzcZeNzYKeXNsBGn/U7t9cPhzGxyvxh4
OBYxVF0+FkS7iSP9Xc6VHnHrjxIAjzVWPCVhEJ9H2kk68J0xR6JKs6pvRc5gxY5x
63B2o75DLI41WyGy1y+5wWMI1k/CdQjEb47aIyKpVavBDGEllDrgASGopeOwh6C0
1RWl/qisNz0Ti5mm4ylZ9xgsl6H6QUak0kxGrPgbNqcLNnEtZajXGKyX+9OXW8XL
Yz6e1v9YgmdiVq8Lm3Vsy4MWT3buiE8KnSDLLw==
-----END CERTIFICATE-----
