Certificate:
    Data:
        Version: 3 (0x2)
        Serial Number:
            6b:0e:fc:79:67:91:54:49:69:0e:67:1d:51:81:b0:da
        Signature Algorithm: sha256WithRSAEncryption
        Issuer: CN=team320-net
        Validity
            Not Before: Nov  3 20:45:05 2023 GMT
            Not After : Oct 18 20:45:05 2026 GMT
        Subject: CN=team320-client
        Subject Public Key Info:
            Public Key Algorithm: rsaEncryption
                Public-Key: (2048 bit)
                Modulus:
                    00:aa:66:3b:59:4c:77:ba:e5:6a:7f:23:12:e0:dc:
                    ab:9f:d2:6d:55:f0:9f:19:83:b5:58:ab:2f:46:b6:
                    59:0f:71:d9:00:14:0d:cc:34:23:f8:82:93:dc:8d:
                    de:b7:c1:58:15:29:40:c6:3f:ed:c9:be:7f:cc:23:
                    11:73:93:43:b0:8f:69:6a:00:47:2a:4c:6b:6a:2d:
                    eb:ef:f2:8f:ef:b5:8a:91:40:32:be:87:2b:94:17:
                    0e:ac:aa:56:b0:d5:72:49:a5:49:58:6f:45:77:20:
                    bb:9d:3c:dd:ba:05:ac:21:dd:57:f4:ef:52:e8:d8:
                    0c:3e:2c:7e:50:8a:d1:20:52:f8:e3:16:14:26:cd:
                    64:04:8a:8d:bb:4c:81:e6:73:9a:12:fa:fb:fc:7e:
                    4d:ea:fa:9f:34:af:6c:47:0e:fa:b0:f9:be:7a:75:
                    c4:d5:33:88:be:45:bc:5f:98:ca:9b:f2:ee:4a:10:
                    e1:da:55:c9:68:37:55:20:44:f4:c4:f8:e5:5c:49:
                    7b:df:fa:cf:0d:0e:0e:0e:5d:30:ed:9c:f3:85:6f:
                    0e:eb:11:92:93:ee:73:af:0b:25:85:39:12:70:60:
                    91:35:32:b8:c8:59:aa:37:b4:25:de:ea:fd:33:c8:
                    25:2d:0f:3a:ee:50:73:83:fd:3d:e2:62:e5:c9:bb:
                    81:19
                Exponent: 65537 (0x10001)
        X509v3 extensions:
            X509v3 Basic Constraints: 
                CA:FALSE
            X509v3 Subject Key Identifier: 
                EE:47:4C:E7:21:16:2F:5F:77:87:1C:34:37:92:12:9C:A5:7F:CB:40
            X509v3 Authority Key Identifier: 
                keyid:7A:9D:A1:7F:CF:5D:2A:32:51:39:6A:E2:73:85:48:80:A8:49:2F:78
                DirName:/CN=team320-net
                serial:27:5C:40:7E:4C:F3:77:12:AE:79:C8:0C:D8:F2:44:41:5E:CB:F9:27
            X509v3 Extended Key Usage: 
                TLS Web Client Authentication
            X509v3 Key Usage: 
                Digital Signature
    Signature Algorithm: sha256WithRSAEncryption
    Signature Value:
        75:76:d6:bd:cb:3b:96:23:b2:7f:9d:86:01:9c:cd:67:6c:96:
        f7:df:81:ac:c8:e2:97:66:c3:eb:a8:a6:e3:10:97:0c:bb:b6:
        b7:0d:c6:24:a7:8c:3b:7f:8e:38:67:04:fe:14:63:2c:38:ce:
        b0:28:7a:1a:96:17:96:d1:2e:b8:8a:ab:16:cb:89:2c:79:ed:
        91:61:ab:df:40:ea:1c:7b:77:ba:7d:b2:7c:d0:2f:2f:30:33:
        3b:0d:a7:4c:a6:3a:1f:db:bf:d9:d7:30:74:93:49:a8:a4:51:
        e2:ad:62:0b:e2:f3:12:4b:d5:fb:a3:b1:f3:c7:9b:24:01:bd:
        3f:e8:4e:2b:26:22:fa:e0:fc:8f:1e:4d:50:fd:00:ee:5b:37:
        38:6f:9c:14:c3:a7:f6:42:cb:78:2b:a0:39:59:1f:4d:d6:ae:
        02:72:3d:15:dc:d1:b9:2b:3b:f0:c1:db:09:54:5b:b2:38:d8:
        40:3a:82:7e:be:fa:32:8a:cb:9b:0c:f8:00:56:e3:74:a9:52:
        a2:77:b0:2e:df:87:32:0e:cb:7f:0c:59:3f:71:64:1d:0f:37:
        04:4d:38:99:d0:bb:b8:32:3d:19:2b:c1:f8:a4:34:3f:88:3c:
        6b:76:a7:28:dd:1d:8d:68:e2:3c:79:7b:8d:d9:75:42:0a:3f:
        76:44:38:88
-----BEGIN CERTIFICATE-----
MIIDXDCCAkSgAwIBAgIQaw78eWeRVElpDmcdUYGw2jANBgkqhkiG9w0BAQsFADAW
MRQwEgYDVQQDDAt0ZWFtMzIwLW5ldDAeFw0yMzExMDMyMDQ1MDVaFw0yNjEwMTgy
MDQ1MDVaMBkxFzAVBgNVBAMMDnRlYW0zMjAtY2xpZW50MIIBIjANBgkqhkiG9w0B
AQEFAAOCAQ8AMIIBCgKCAQEAqmY7WUx3uuVqfyMS4Nyrn9JtVfCfGYO1WKsvRrZZ
D3HZABQNzDQj+IKT3I3et8FYFSlAxj/tyb5/zCMRc5NDsI9pagBHKkxrai3r7/KP
77WKkUAyvocrlBcOrKpWsNVySaVJWG9FdyC7nTzdugWsId1X9O9S6NgMPix+UIrR
IFL44xYUJs1kBIqNu0yB5nOaEvr7/H5N6vqfNK9sRw76sPm+enXE1TOIvkW8X5jK
m/LuShDh2lXJaDdVIET0xPjlXEl73/rPDQ4ODl0w7ZzzhW8O6xGSk+5zrwslhTkS
cGCRNTK4yFmqN7Ql3ur9M8glLQ867lBzg/094mLlybuBGQIDAQABo4GiMIGfMAkG
A1UdEwQCMAAwHQYDVR0OBBYEFO5HTOchFi9fd4ccNDeSEpylf8tAMFEGA1UdIwRK
MEiAFHqdoX/PXSoyUTlq4nOFSICoSS94oRqkGDAWMRQwEgYDVQQDDAt0ZWFtMzIw
LW5ldIIUJ1xAfkzzdxKuecgM2PJEQV7L+ScwEwYDVR0lBAwwCgYIKwYBBQUHAwIw
CwYDVR0PBAQDAgeAMA0GCSqGSIb3DQEBCwUAA4IBAQB1dta9yzuWI7J/nYYBnM1n
bJb334GsyOKXZsPrqKbjEJcMu7a3DcYkp4w7f444ZwT+FGMsOM6wKHoalheW0S64
iqsWy4ksee2RYavfQOoce3e6fbJ80C8vMDM7DadMpjof27/Z1zB0k0mopFHirWIL
4vMSS9X7o7Hzx5skAb0/6E4rJiL64PyPHk1Q/QDuWzc4b5wUw6f2Qst4K6A5WR9N
1q4Ccj0V3NG5KzvwwdsJVFuyONhAOoJ+vvoyisubDPgAVuN0qVKid7Au34cyDst/
DFk/cWQdDzcETTiZ0Lu4Mj0ZK8H4pDQ/iDxrdqco3R2NaOI8eXuN2XVCCj92RDiI
-----END CERTIFICATE-----
