Certificate:
    Data:
        Version: 3 (0x2)
        Serial Number:
            c7:3d:94:df:95:dc:76:55:56:d7:6d:04:dc:b7:f8:b2
        Signature Algorithm: sha256WithRSAEncryption
        Issuer: CN=team320-net
        Validity
            Not Before: Nov  3 20:45:05 2023 GMT
            Not After : Oct 18 20:45:05 2026 GMT
        Subject: CN=team320-server
        Subject Public Key Info:
            Public Key Algorithm: rsaEncryption
                Public-Key: (2048 bit)
                Modulus:
                    00:91:d9:90:d6:89:57:e0:fb:2e:b6:7c:6d:f4:e8:
                    08:b9:7e:d7:24:00:b5:8a:d2:ad:46:62:e9:ab:51:
                    2b:8f:fb:38:3c:0c:73:8a:af:b1:78:68:08:12:1b:
                    a3:33:6d:87:98:6f:32:db:9d:9b:a2:ca:3c:82:98:
                    e1:05:34:0c:c3:f7:bc:2d:01:d9:0a:17:52:72:37:
                    9d:6b:7f:6c:5d:18:38:40:71:ce:b8:94:90:49:60:
                    c6:a5:03:17:67:de:ca:04:25:64:b7:0b:4e:17:3f:
                    b5:73:b0:d4:06:89:8e:3d:54:92:e3:39:e1:f8:ad:
                    79:8a:64:b4:f7:d0:d3:29:e5:7b:e8:f6:e4:66:95:
                    63:cd:de:0a:80:40:96:ea:3e:70:e4:e4:40:cb:d8:
                    be:06:2e:13:c9:2d:ec:a1:c8:3f:09:4d:62:7b:0d:
                    eb:88:35:99:70:c0:b4:3b:17:09:76:04:10:83:3e:
                    67:55:0f:4e:ca:6b:8c:63:4a:64:be:9f:93:44:46:
                    01:23:15:90:d9:f7:a8:10:66:d6:55:ae:94:db:3e:
                    4c:02:dc:ef:3e:ab:77:35:cd:cc:b9:d6:42:19:64:
                    f5:b4:e5:ff:66:ee:0f:57:21:da:09:a4:86:1f:11:
                    2c:bf:f0:4c:60:34:85:98:e8:9b:aa:99:3b:b9:ac:
                    0f:83
                Exponent: 65537 (0x10001)
        X509v3 extensions:
            X509v3 Basic Constraints: 
                CA:FALSE
            X509v3 Subject Key Identifier: 
                B5:4C:EC:BF:E4:DD:AB:AC:77:2D:11:CF:AA:BF:1E:4A:05:A3:10:AD
            X509v3 Authority Key Identifier: 
                keyid:7A:9D:A1:7F:CF:5D:2A:32:51:39:6A:E2:73:85:48:80:A8:49:2F:78
                DirName:/CN=team320-net
                serial:27:5C:40:7E:4C:F3:77:12:AE:79:C8:0C:D8:F2:44:41:5E:CB:F9:27
            X509v3 Extended Key Usage: 
                TLS Web Server Authentication
            X509v3 Key Usage: 
                Digital Signature, Key Encipherment
            X509v3 Subject Alternative Name: 
                DNS:team320-server
    Signature Algorithm: sha256WithRSAEncryption
    Signature Value:
        59:c1:0e:f2:09:f7:1b:c0:9b:52:01:3b:af:63:0e:4b:16:6e:
        c9:b1:81:e4:34:a1:4f:3d:81:0e:f9:d2:7f:f1:3a:fa:99:5a:
        17:16:03:00:73:ce:ba:b3:55:0b:3a:43:b0:40:77:36:d9:8a:
        60:92:05:92:2a:e7:3f:81:15:81:29:77:b9:53:de:c9:bf:07:
        db:74:8a:bc:bd:01:c4:ca:31:11:ce:2a:26:15:a2:e6:3d:e6:
        ac:71:55:1b:50:71:80:6a:e2:8e:b1:38:ea:b7:78:91:f3:90:
        92:ea:2f:e6:7d:72:0b:8a:54:7c:87:a0:a6:75:d2:7d:1a:69:
        5c:b6:3f:bc:06:82:c2:96:34:a2:60:1c:88:b9:f5:29:f8:fd:
        73:07:7a:ce:e3:60:49:44:2d:71:1c:ef:6e:6c:09:ff:48:b5:
        7d:d9:6b:df:4c:82:76:e1:9e:ca:0c:7f:60:9b:66:1f:dd:06:
        39:81:09:f5:9f:c2:6e:24:2c:f8:85:13:23:06:ff:af:91:0a:
        87:a2:fd:97:06:63:21:98:fb:f3:3e:4f:a5:6a:cf:1f:1f:ef:
        3c:2b:99:ed:72:a3:ab:c7:74:28:b0:bb:62:d1:55:4a:69:a3:
        49:97:95:06:50:37:91:e2:e3:0d:a8:06:e9:cc:b1:7a:31:96:
        ae:2f:f9:32
-----BEGIN CERTIFICATE-----
MIIDeDCCAmCgAwIBAgIRAMc9lN+V3HZVVtdtBNy3+LIwDQYJKoZIhvcNAQELBQAw
FjEUMBIGA1UEAwwLdGVhbTMyMC1uZXQwHhcNMjMxMTAzMjA0NTA1WhcNMjYxMDE4
MjA0NTA1WjAZMRcwFQYDVQQDDA50ZWFtMzIwLXNlcnZlcjCCASIwDQYJKoZIhvcN
AQEBBQADggEPADCCAQoCggEBAJHZkNaJV+D7LrZ8bfToCLl+1yQAtYrSrUZi6atR
K4/7ODwMc4qvsXhoCBIbozNth5hvMtudm6LKPIKY4QU0DMP3vC0B2QoXUnI3nWt/
bF0YOEBxzriUkElgxqUDF2feygQlZLcLThc/tXOw1AaJjj1UkuM54fiteYpktPfQ
0ynle+j25GaVY83eCoBAluo+cOTkQMvYvgYuE8kt7KHIPwlNYnsN64g1mXDAtDsX
CXYEEIM+Z1UPTsprjGNKZL6fk0RGASMVkNn3qBBm1lWulNs+TALc7z6rdzXNzLnW
Qhlk9bTl/2buD1ch2gmkhh8RLL/wTGA0hZjom6qZO7msD4MCAwEAAaOBvTCBujAJ
BgNVHRMEAjAAMB0GA1UdDgQWBBS1TOy/5N2rrHctEc+qvx5KBaMQrTBRBgNVHSME
SjBIgBR6naF/z10qMlE5auJzhUiAqEkveKEapBgwFjEUMBIGA1UEAwwLdGVhbTMy
MC1uZXSCFCdcQH5M83cSrnnIDNjyREFey/knMBMGA1UdJQQMMAoGCCsGAQUFBwMB
MAsGA1UdDwQEAwIFoDAZBgNVHREEEjAQgg50ZWFtMzIwLXNlcnZlcjANBgkqhkiG
9w0BAQsFAAOCAQEAWcEO8gn3G8CbUgE7r2MOSxZuybGB5DShTz2BDvnSf/E6+pla
FxYDAHPOurNVCzpDsEB3NtmKYJIFkirnP4EVgSl3uVPeyb8H23SKvL0BxMoxEc4q
JhWi5j3mrHFVG1BxgGrijrE46rd4kfOQkuov5n1yC4pUfIegpnXSfRppXLY/vAaC
wpY0omAciLn1Kfj9cwd6zuNgSUQtcRzvbmwJ/0i1fdlr30yCduGeygx/YJtmH90G
OYEJ9Z/CbiQs+IUTIwb/r5EKh6L9lwZjIZj78z5PpWrPHx/vPCuZ7XKjq8d0KLC7
YtFVSmmjSZeVBlA3keLjDagG6cyxejGWri/5Mg==
-----END CERTIFICATE-----
