Certificate:
    Data:
        Version: 3 (0x2)
        Serial Number:
            5c:f4:1e:d9:88:58:b6:63:ba:79:05:4e:a4:75:f3:85
        Signature Algorithm: sha256WithRSAEncryption
        Issuer: CN=team252-net
        Validity
            Not Before: Nov  3 20:43:54 2023 GMT
            Not After : Oct 18 20:43:54 2026 GMT
        Subject: CN=team252-server
        Subject Public Key Info:
            Public Key Algorithm: rsaEncryption
                Public-Key: (2048 bit)
                Modulus:
                    00:d1:f8:5e:7b:18:ac:50:ce:90:10:19:93:a0:ad:
                    a6:57:32:5e:89:9b:92:ce:9a:a9:b6:d1:82:b5:70:
                    a0:73:94:9d:14:9b:2a:92:aa:6e:84:73:e0:19:6c:
                    b2:50:7f:f4:0b:57:a3:7c:ba:0f:9e:cb:52:f8:72:
                    ef:d5:88:05:6c:7e:20:c8:aa:0b:94:74:55:70:38:
                    c8:26:17:fb:f1:fb:5f:e0:d9:42:fb:46:4b:1b:b9:
                    0d:c3:6f:0d:fd:2f:de:8f:2f:38:0f:61:d0:4e:5e:
                    ff:05:e6:01:2f:a3:b6:ae:fb:4d:89:d4:62:1f:0b:
                    8b:87:1a:1f:bc:c7:41:ec:4c:ee:1e:f1:4c:58:6b:
                    b2:3f:16:fd:5d:8f:74:23:c4:0b:90:3d:51:83:36:
                    89:0f:8f:05:4e:66:62:00:e2:7b:89:57:d4:2c:62:
                    66:a9:88:78:c6:b7:d1:9b:55:95:62:50:2d:05:18:
                    e8:21:47:65:bf:be:ea:ab:9d:27:dd:6d:9c:78:88:
                    7a:8e:48:b3:77:09:17:af:f6:75:5e:b4:0c:43:5b:
                    3c:73:f4:c2:d6:ad:f3:36:d6:2f:de:a8:a1:bd:b5:
                    d2:1b:5b:4f:ae:eb:aa:52:c4:c8:e5:7c:10:8a:94:
                    01:ae:4c:19:b8:8d:db:3d:a6:43:7d:4b:ca:01:4a:
                    e6:63
                Exponent: 65537 (0x10001)
        X509v3 extensions:
            X509v3 Basic Constraints: 
                CA:FALSE
            X509v3 Subject Key Identifier: 
                B4:F2:7F:2D:40:46:CE:C0:3E:34:B4:FB:0F:D2:4D:4E:C6:7A:50:44
            X509v3 Authority Key Identifier: 
                keyid:FF:73:CB:3E:8B:49:C5:C6:7B:1F:83:71:40:1E:4A:14:61:C1:12:3A
                DirName:/CN=team252-net
                serial:07:46:A6:9C:D5:85:BC:FD:BA:B1:75:5B:2E:08:D3:FD:F1:59:74:E7
            X509v3 Extended Key Usage: 
                TLS Web Server Authentication
            X509v3 Key Usage: 
                Digital Signature, Key Encipherment
            X509v3 Subject Alternative Name: 
                DNS:team252-server
    Signature Algorithm: sha256WithRSAEncryption
    Signature Value:
        44:88:89:7c:b6:55:92:0e:22:0a:e2:ad:a3:8d:e2:07:53:8d:
        75:e2:49:5e:11:1c:f1:87:41:0a:df:89:ec:34:c9:ef:4b:e6:
        63:80:d4:61:e9:27:0a:07:6f:9f:c8:75:cd:f1:3a:10:64:1b:
        ab:9e:be:13:d3:5e:78:1c:61:a3:fb:88:9d:54:f1:57:b7:80:
        19:27:56:0e:83:96:ef:96:2f:84:7c:c1:d8:a5:47:78:f6:40:
        a7:8c:6b:0c:0e:44:b0:73:fa:f7:18:e8:a6:f6:2c:41:64:e8:
        3e:10:36:30:4a:a7:53:b8:a6:55:e7:be:d2:70:43:d8:ee:1f:
        d0:9c:6d:99:26:dc:35:b1:d2:62:b2:6b:cc:b2:ff:f9:d6:18:
        04:87:bf:c1:09:25:04:75:08:dc:d5:12:fc:e4:02:0b:f1:c6:
        05:70:07:09:06:bf:d5:06:62:e8:c6:b5:0a:1e:10:26:fe:66:
        23:ce:41:bb:92:4a:0e:58:61:8d:e4:d5:af:e2:c4:f7:5a:b5:
        de:8d:5c:a5:ef:3f:ac:2c:2e:42:67:1f:b9:0f:56:c6:a7:b3:
        ec:85:67:5f:dd:47:2f:9f:65:59:e0:49:47:7b:cd:3f:55:7b:
        aa:35:a2:46:48:29:4d:01:1e:75:d5:77:b3:9e:2b:3a:3f:d9:
        2d:9a:fa:f8
-----BEGIN CERTIFICATE-----
MIIDdzCCAl+gAwIBAgIQXPQe2YhYtmO6eQVOpHXzhTANBgkqhkiG9w0BAQsFADAW
MRQwEgYDVQQDDAt0ZWFtMjUyLW5ldDAeFw0yMzExMDMyMDQzNTRaFw0yNjEwMTgy
MDQzNTRaMBkxFzAVBgNVBAMMDnRlYW0yNTItc2VydmVyMIIBIjANBgkqhkiG9w0B
AQEFAAOCAQ8AMIIBCgKCAQEA0fheexisUM6QEBmToK2mVzJeiZuSzpqpttGCtXCg
c5SdFJsqkqpuhHPgGWyyUH/0C1ejfLoPnstS+HLv1YgFbH4gyKoLlHRVcDjIJhf7
8ftf4NlC+0ZLG7kNw28N/S/ejy84D2HQTl7/BeYBL6O2rvtNidRiHwuLhxofvMdB
7EzuHvFMWGuyPxb9XY90I8QLkD1RgzaJD48FTmZiAOJ7iVfULGJmqYh4xrfRm1WV
YlAtBRjoIUdlv77qq50n3W2ceIh6jkizdwkXr/Z1XrQMQ1s8c/TC1q3zNtYv3qih
vbXSG1tPruuqUsTI5XwQipQBrkwZuI3bPaZDfUvKAUrmYwIDAQABo4G9MIG6MAkG
A1UdEwQCMAAwHQYDVR0OBBYEFLTyfy1ARs7APjS0+w/STU7GelBEMFEGA1UdIwRK
MEiAFP9zyz6LScXGex+DcUAeShRhwRI6oRqkGDAWMRQwEgYDVQQDDAt0ZWFtMjUy
LW5ldIIUB0amnNWFvP26sXVbLgjT/fFZdOcwEwYDVR0lBAwwCgYIKwYBBQUHAwEw
CwYDVR0PBAQDAgWgMBkGA1UdEQQSMBCCDnRlYW0yNTItc2VydmVyMA0GCSqGSIb3
DQEBCwUAA4IBAQBEiIl8tlWSDiIK4q2jjeIHU4114kleERzxh0EK34nsNMnvS+Zj
gNRh6ScKB2+fyHXN8ToQZBurnr4T0154HGGj+4idVPFXt4AZJ1YOg5bvli+EfMHY
pUd49kCnjGsMDkSwc/r3GOim9ixBZOg+EDYwSqdTuKZV577ScEPY7h/QnG2ZJtw1
sdJismvMsv/51hgEh7/BCSUEdQjc1RL85AIL8cYFcAcJBr/VBmLoxrUKHhAm/mYj
zkG7kkoOWGGN5NWv4sT3WrXejVyl7z+sLC5CZx+5D1bGp7PshWdf3Ucvn2VZ4ElH
e80/VXuqNaJGSClNAR511Xeznis6P9ktmvr4
-----END CERTIFICATE-----
