Certificate:
    Data:
        Version: 3 (0x2)
        Serial Number:
            44:40:07:b7:2e:f9:ec:fc:f8:76:de:b9:01:98:b8:04
        Signature Algorithm: sha256WithRSAEncryption
        Issuer: CN=team254-net
        Validity
            Not Before: Nov  3 20:43:57 2023 GMT
            Not After : Oct 18 20:43:57 2026 GMT
        Subject: CN=team254-client
        Subject Public Key Info:
            Public Key Algorithm: rsaEncryption
                Public-Key: (2048 bit)
                Modulus:
                    00:8a:6f:a0:76:66:fd:24:a8:3f:d2:7a:cf:f5:34:
                    3d:c8:e2:b1:47:af:22:74:fd:f9:06:86:5c:09:77:
                    9d:36:2e:2c:a1:e4:fa:20:68:4f:cc:f3:0c:26:98:
                    3b:c5:74:08:6b:55:7e:6f:25:7c:53:7b:89:f2:bf:
                    93:49:02:02:ed:0f:f1:83:ec:e7:17:3b:4d:8d:00:
                    a8:9c:98:1a:1f:b1:12:a7:d6:9b:17:0a:a0:1f:9e:
                    e3:ea:c7:ff:56:69:19:a5:41:97:f3:23:7d:46:15:
                    92:98:44:88:0b:e8:7d:ec:f5:62:df:dc:08:a5:51:
                    8a:c0:cb:3a:d3:4e:2a:d0:16:f6:14:50:2b:72:21:
                    83:ee:10:74:d5:80:59:16:78:4a:f1:d1:36:f1:c7:
                    75:e4:e5:9c:5d:56:a8:8f:35:37:17:3a:b2:11:18:
                    98:ee:cd:71:45:19:08:32:f7:72:84:4e:7c:34:3c:
                    21:9b:cc:93:ec:da:69:62:b6:e9:f1:30:12:d6:e4:
                    cd:80:8f:27:64:86:0a:10:92:da:8c:6d:52:92:d9:
                    e2:35:67:c1:5d:9c:51:31:15:22:66:59:1a:04:30:
                    14:c7:89:5d:8c:23:0e:16:4e:bd:61:30:80:81:7a:
                    3d:89:9a:15:e5:b3:06:c5:bc:11:a9:a6:d4:34:0f:
                    94:55
                Exponent: 65537 (0x10001)
        X509v3 extensions:
            X509v3 Basic Constraints: 
                CA:FALSE
            X509v3 Subject Key Identifier: 
                B1:0B:55:9D:8A:EF:A2:50:56:CD:62:8F:E2:FA:32:0E:0A:1C:84:4A
            X509v3 Authority Key Identifier: 
                keyid:52:77:5F:15:E0:CC:C7:B6:94:86:72:74:65:83:E7:DB:EC:A0:6A:8C
                DirName:/CN=team254-net
                serial:72:BF:05:9F:8C:49:4B:7B:AE:6E:B4:C1:3C:E7:C6:D9:E1:92:AA:F9
            X509v3 Extended Key Usage: 
                TLS Web Client Authentication
            X509v3 Key Usage: 
                Digital Signature
    Signature Algorithm: sha256WithRSAEncryption
    Signature Value:
        36:89:78:ac:0d:fc:89:82:0d:5b:83:f3:ca:41:30:e7:78:67:
        ed:ff:53:0f:04:f3:61:9c:55:de:9d:62:7c:ed:b0:1d:d1:e3:
        c0:1a:ae:8a:45:c1:e6:da:b1:df:78:1d:12:25:d4:2e:67:1e:
        f2:55:c1:e5:26:38:d2:ab:94:04:9c:aa:84:0d:fc:27:0a:f8:
        ea:c7:5e:c6:2f:e2:cd:98:f3:4b:5e:3c:b0:5e:f5:01:df:0a:
        30:5b:ae:32:e3:cb:15:ae:f6:e5:d1:93:e2:26:a9:3c:8d:d7:
        44:c3:bc:83:b8:9c:2c:52:0d:d2:1c:31:59:2c:df:22:ae:47:
        16:d6:a8:a6:1d:71:2e:08:c0:25:89:2f:5b:b5:ef:7c:0a:94:
        29:5d:1f:99:81:2f:d3:49:2f:b4:c7:ac:ed:ae:f1:28:73:16:
        e6:06:93:4b:f2:6f:a5:32:8f:02:85:7e:85:21:35:4b:65:34:
        c7:f8:a0:c5:77:d1:02:98:21:d3:92:18:31:d1:43:56:f4:8e:
        0d:2b:fa:d0:4c:8b:8b:7a:86:51:31:29:ed:56:1a:e7:53:55:
        b9:e0:c0:4c:39:5a:7a:21:8a:e8:c0:a7:97:6c:f6:50:de:b3:
        b7:16:79:a8:35:8c:03:e3:c0:e3:d1:27:c2:a2:ab:78:8f:89:
        b2:a5:84:9f
-----BEGIN CERTIFICATE-----
MIIDXDCCAkSgAwIBAgIQREAHty757Pz4dt65AZi4BDANBgkqhkiG9w0BAQsFADAW
MRQwEgYDVQQDDAt0ZWFtMjU0LW5ldDAeFw0yMzExMDMyMDQzNTdaFw0yNjEwMTgy
MDQzNTdaMBkxFzAVBgNVBAMMDnRlYW0yNTQtY2xpZW50MIIBIjANBgkqhkiG9w0B
AQEFAAOCAQ8AMIIBCgKCAQEAim+gdmb9JKg/0nrP9TQ9yOKxR68idP35BoZcCXed
Ni4soeT6IGhPzPMMJpg7xXQIa1V+byV8U3uJ8r+TSQIC7Q/xg+znFztNjQConJga
H7ESp9abFwqgH57j6sf/VmkZpUGX8yN9RhWSmESIC+h97PVi39wIpVGKwMs6004q
0Bb2FFArciGD7hB01YBZFnhK8dE28cd15OWcXVaojzU3FzqyERiY7s1xRRkIMvdy
hE58NDwhm8yT7NppYrbp8TAS1uTNgI8nZIYKEJLajG1SktniNWfBXZxRMRUiZlka
BDAUx4ldjCMOFk69YTCAgXo9iZoV5bMGxbwRqabUNA+UVQIDAQABo4GiMIGfMAkG
A1UdEwQCMAAwHQYDVR0OBBYEFLELVZ2K76JQVs1ij+L6Mg4KHIRKMFEGA1UdIwRK
MEiAFFJ3XxXgzMe2lIZydGWD59vsoGqMoRqkGDAWMRQwEgYDVQQDDAt0ZWFtMjU0
LW5ldIIUcr8Fn4xJS3uubrTBPOfG2eGSqvkwEwYDVR0lBAwwCgYIKwYBBQUHAwIw
CwYDVR0PBAQDAgeAMA0GCSqGSIb3DQEBCwUAA4IBAQA2iXisDfyJgg1bg/PKQTDn
eGft/1MPBPNhnFXenWJ87bAd0ePAGq6KRcHm2rHfeB0SJdQuZx7yVcHlJjjSq5QE
nKqEDfwnCvjqx17GL+LNmPNLXjywXvUB3wowW64y48sVrvbl0ZPiJqk8jddEw7yD
uJwsUg3SHDFZLN8irkcW1qimHXEuCMAliS9bte98CpQpXR+ZgS/TSS+0x6ztrvEo
cxbmBpNL8m+lMo8ChX6FITVLZTTH+KDFd9ECmCHTkhgx0UNW9I4NK/rQTIuLeoZR
MSntVhrnU1W54MBMOVp6IYrowKeXbPZQ3rO3FnmoNYwD48Dj0SfCoqt4j4mypYSf
-----END CERTIFICATE-----
