Certificate:
    Data:
        Version: 3 (0x2)
        Serial Number:
            77:46:9d:99:eb:15:3b:9a:5a:3c:7b:8a:4b:75:9e:b4
        Signature Algorithm: sha256WithRSAEncryption
        Issuer: CN=team254-net
        Validity
            Not Before: Nov  3 20:43:57 2023 GMT
            Not After : Oct 18 20:43:57 2026 GMT
        Subject: CN=team254-server
        Subject Public Key Info:
            Public Key Algorithm: rsaEncryption
                Public-Key: (2048 bit)
                Modulus:
                    00:b0:fe:a9:a1:be:a2:22:f0:7c:ac:db:0a:96:ca:
                    e6:56:1f:c5:29:9e:93:50:39:92:eb:01:ff:9f:8f:
                    8a:5b:31:b8:28:3c:0d:be:cc:92:e1:b9:bc:af:44:
                    7a:19:c7:1c:04:2f:9e:6f:16:61:13:09:28:4d:51:
                    26:2a:18:29:3d:47:2b:17:a2:c9:6e:f5:7f:1e:7a:
                    d4:c0:89:ce:5f:bf:10:66:01:0e:74:df:f0:87:cc:
                    a8:83:60:a1:f1:c4:12:4d:f8:52:4d:38:54:b3:f7:
                    a3:8a:e0:a9:3d:f7:ba:1d:43:f1:2b:da:a4:15:be:
                    9b:46:d6:63:8f:e6:0c:07:50:3b:d6:54:0d:c5:d5:
                    d5:83:21:89:7b:53:bc:31:9f:a8:0a:f5:ec:e2:8b:
                    2d:c5:a1:19:1a:2a:2c:e7:4f:15:5a:ba:4f:92:d9:
                    72:cd:57:83:56:ae:b3:92:64:e9:42:95:04:58:0b:
                    89:77:15:cc:55:a1:d4:5b:1d:3a:ef:10:59:ac:91:
                    b1:e0:54:2e:82:d3:37:d0:5e:87:7b:1b:06:b1:c7:
                    39:ef:a3:93:1e:c5:7d:df:36:0f:18:61:a8:0f:52:
                    4a:50:17:30:66:3c:85:fa:69:22:8e:72:12:73:52:
                    de:fd:ba:69:06:e3:b0:dd:53:0b:00:df:1b:8f:81:
                    1d:f9
                Exponent: 65537 (0x10001)
        X509v3 extensions:
            X509v3 Basic Constraints: 
                CA:FALSE
            X509v3 Subject Key Identifier: 
                14:BB:E0:96:0A:33:CE:69:A7:D5:76:19:F1:67:19:EC:4D:4A:DC:41
            X509v3 Authority Key Identifier: 
                keyid:52:77:5F:15:E0:CC:C7:B6:94:86:72:74:65:83:E7:DB:EC:A0:6A:8C
                DirName:/CN=team254-net
                serial:72:BF:05:9F:8C:49:4B:7B:AE:6E:B4:C1:3C:E7:C6:D9:E1:92:AA:F9
            X509v3 Extended Key Usage: 
                TLS Web Server Authentication
            X509v3 Key Usage: 
                Digital Signature, Key Encipherment
            X509v3 Subject Alternative Name: 
                DNS:team254-server
    Signature Algorithm: sha256WithRSAEncryption
    Signature Value:
        bd:63:a6:3b:7f:c7:27:f4:25:56:c3:43:ff:3e:a5:49:97:e9:
        42:77:3c:2d:a6:5d:32:56:ee:ce:63:3c:d0:46:ba:5a:6b:53:
        cb:a7:3c:4b:ba:73:e6:79:17:95:5b:9b:aa:84:83:c5:8a:be:
        81:21:39:31:c8:97:7f:4f:3c:dc:3e:98:a8:04:43:07:2c:24:
        78:50:86:69:28:14:01:d7:9b:79:72:f5:26:d7:db:0d:67:7e:
        c2:ce:0a:b2:6c:18:40:2b:9e:7b:d0:d7:ff:75:7e:db:54:84:
        4e:57:4c:2b:15:59:2f:b8:fb:51:fc:0f:46:52:9f:33:c4:fa:
        4b:30:66:a6:06:a9:70:40:3d:3a:ba:f0:e0:e6:4e:05:d3:8a:
        bd:cb:40:5f:6d:b5:e6:a9:59:6c:fc:97:43:9b:a9:82:c3:dd:
        9b:c7:bf:9b:37:3b:5b:0e:5c:87:52:04:26:2d:61:f8:f2:9b:
        b0:6d:e1:32:9b:76:51:56:12:18:b9:db:78:58:57:67:5c:43:
        b0:c4:69:ea:37:73:2d:d9:2c:1f:82:cc:d0:29:1d:78:b8:6c:
        3f:88:88:6b:14:b6:55:e3:16:83:dd:8a:ef:a4:06:eb:e4:80:
        2c:0c:5c:ab:60:3d:c9:94:6a:98:94:20:23:16:e8:6e:30:8f:
        92:db:85:e4
-----BEGIN CERTIFICATE-----
MIIDdzCCAl+gAwIBAgIQd0admesVO5paPHuKS3WetDANBgkqhkiG9w0BAQsFADAW
MRQwEgYDVQQDDAt0ZWFtMjU0LW5ldDAeFw0yMzExMDMyMDQzNTdaFw0yNjEwMTgy
MDQzNTdaMBkxFzAVBgNVBAMMDnRlYW0yNTQtc2VydmVyMIIBIjANBgkqhkiG9w0B
AQEFAAOCAQ8AMIIBCgKCAQEAsP6pob6iIvB8rNsKlsrmVh/FKZ6TUDmS6wH/n4+K
WzG4KDwNvsyS4bm8r0R6GcccBC+ebxZhEwkoTVEmKhgpPUcrF6LJbvV/HnrUwInO
X78QZgEOdN/wh8yog2Ch8cQSTfhSTThUs/ejiuCpPfe6HUPxK9qkFb6bRtZjj+YM
B1A71lQNxdXVgyGJe1O8MZ+oCvXs4ostxaEZGios508VWrpPktlyzVeDVq6zkmTp
QpUEWAuJdxXMVaHUWx067xBZrJGx4FQugtM30F6HexsGscc576OTHsV93zYPGGGo
D1JKUBcwZjyF+mkijnISc1Le/bppBuOw3VMLAN8bj4Ed+QIDAQABo4G9MIG6MAkG
A1UdEwQCMAAwHQYDVR0OBBYEFBS74JYKM85pp9V2GfFnGexNStxBMFEGA1UdIwRK
MEiAFFJ3XxXgzMe2lIZydGWD59vsoGqMoRqkGDAWMRQwEgYDVQQDDAt0ZWFtMjU0
LW5ldIIUcr8Fn4xJS3uubrTBPOfG2eGSqvkwEwYDVR0lBAwwCgYIKwYBBQUHAwEw
CwYDVR0PBAQDAgWgMBkGA1UdEQQSMBCCDnRlYW0yNTQtc2VydmVyMA0GCSqGSIb3
DQEBCwUAA4IBAQC9Y6Y7f8cn9CVWw0P/PqVJl+lCdzwtpl0yVu7OYzzQRrpaa1PL
pzxLunPmeReVW5uqhIPFir6BITkxyJd/TzzcPpioBEMHLCR4UIZpKBQB15t5cvUm
19sNZ37CzgqybBhAK5570Nf/dX7bVIROV0wrFVkvuPtR/A9GUp8zxPpLMGamBqlw
QD06uvDg5k4F04q9y0BfbbXmqVls/JdDm6mCw92bx7+bNztbDlyHUgQmLWH48puw
beEym3ZRVhIYudt4WFdnXEOwxGnqN3Mt2SwfgszQKR14uGw/iIhrFLZV4xaD3Yrv
pAbr5IAsDFyrYD3JlGqYlCAjFuhuMI+S24Xk
-----END CERTIFICATE-----
