Certificate:
    Data:
        Version: 3 (0x2)
        Serial Number:
            38:f0:e4:b6:f7:e7:08:7a:1c:b6:a3:4e:6f:10:f7:81
        Signature Algorithm: sha256WithRSAEncryption
        Issuer: CN=team434-net
        Validity
            Not Before: Nov  4 11:37:12 2023 GMT
            Not After : Oct 19 11:37:12 2026 GMT
        Subject: CN=team434-server
        Subject Public Key Info:
            Public Key Algorithm: rsaEncryption
                Public-Key: (2048 bit)
                Modulus:
                    00:bc:f4:34:7b:a5:bb:45:dc:f5:8d:4a:91:2e:da:
                    1a:6a:24:24:52:2e:cf:70:8e:53:f2:0f:d9:68:73:
                    0e:86:8c:65:15:1d:70:fc:08:aa:98:23:8d:58:7d:
                    42:e7:57:47:0f:0a:8f:b5:79:7a:02:83:45:96:68:
                    b3:e0:b0:c3:2d:b6:51:3a:95:c3:72:50:a2:3f:b5:
                    23:f8:a6:80:c4:01:f3:25:7f:c1:2a:de:e0:8a:e4:
                    23:25:d3:e8:58:02:ee:08:e7:cd:e1:7e:06:bb:f6:
                    81:45:93:6f:e3:7b:34:1c:b0:1d:ad:c1:7d:2c:10:
                    02:e5:47:3e:72:c2:b4:e3:36:c5:10:dd:d1:b2:44:
                    a4:4b:43:cf:50:17:2c:43:2b:16:a1:ac:0e:74:b5:
                    02:ad:7d:93:87:ea:b7:fe:55:ff:b7:81:92:7b:bb:
                    17:68:7c:78:2f:d0:18:fe:3d:e9:e0:e3:0e:64:03:
                    3e:e0:77:47:19:3a:e7:eb:14:bb:0b:a2:70:28:65:
                    86:48:cc:d8:ef:04:71:36:8d:ca:1b:aa:2b:d9:a7:
                    c8:44:86:86:65:6f:ea:a5:08:fd:14:0c:7b:ec:e3:
                    8f:c4:5a:c0:b9:2e:48:44:6a:0e:d3:47:50:98:46:
                    07:73:97:2d:ff:8b:55:29:22:cb:ca:44:82:be:1e:
                    52:bf
                Exponent: 65537 (0x10001)
        X509v3 extensions:
            X509v3 Basic Constraints: 
                CA:FALSE
            X509v3 Subject Key Identifier: 
                20:22:C4:DC:18:A2:60:72:7B:93:57:7D:EA:44:18:3F:AA:78:5C:90
            X509v3 Authority Key Identifier: 
                keyid:1F:93:49:C5:D3:3A:65:96:4D:FC:2E:D6:5D:04:5E:E5:09:44:33:49
                DirName:/CN=team434-net
                serial:69:6A:7F:DA:9A:F6:51:AC:CE:7D:87:9A:00:D2:4C:3C:0F:49:60:44
            X509v3 Extended Key Usage: 
                TLS Web Server Authentication
            X509v3 Key Usage: 
                Digital Signature, Key Encipherment
            X509v3 Subject Alternative Name: 
                DNS:team434-server
    Signature Algorithm: sha256WithRSAEncryption
    Signature Value:
        0a:04:a7:c4:0e:e8:66:ac:36:a5:80:b7:c3:8f:d0:3a:de:75:
        e3:e5:c2:73:b5:fe:03:84:bd:cf:46:67:db:f0:88:c2:e2:f3:
        28:5a:78:2f:83:4c:ac:80:14:ca:7b:cf:86:c3:05:c6:d3:92:
        eb:f7:a7:73:df:e0:c2:1e:5c:d0:8b:2e:70:d9:b8:f5:6d:1e:
        a4:86:75:ca:3e:82:8e:97:47:1d:9c:67:62:de:9a:18:ce:3f:
        b2:6b:10:12:53:92:ea:72:c8:70:51:ed:80:78:d8:13:f7:4b:
        36:3c:32:8a:0e:20:d5:70:78:27:1d:d9:e2:ac:9f:4d:57:f6:
        67:ac:9b:7c:ab:ab:35:97:17:ce:17:18:e7:3e:b4:ea:9e:9d:
        9d:c4:37:d9:df:35:b0:30:fa:71:39:55:58:a2:97:98:24:78:
        66:e9:b2:94:8b:92:67:da:84:ef:2f:30:1b:ed:61:e2:15:98:
        6f:9b:86:fe:34:a5:6e:f3:fa:19:f3:a8:5f:82:d7:6f:95:e2:
        53:ce:54:49:ce:12:0e:32:27:29:3b:f2:f3:5e:d6:39:52:72:
        e5:1a:04:0e:b9:20:1d:2b:a2:60:40:07:45:7b:16:8c:f4:2b:
        a0:22:87:b0:3f:35:ab:d6:62:9e:46:10:8c:e1:0e:3c:f5:02:
        c8:46:a7:50
-----BEGIN CERTIFICATE-----
MIIDdzCCAl+gAwIBAgIQOPDktvfnCHoctqNObxD3gTANBgkqhkiG9w0BAQsFADAW
MRQwEgYDVQQDDAt0ZWFtNDM0LW5ldDAeFw0yMzExMDQxMTM3MTJaFw0yNjEwMTkx
MTM3MTJaMBkxFzAVBgNVBAMMDnRlYW00MzQtc2VydmVyMIIBIjANBgkqhkiG9w0B
AQEFAAOCAQ8AMIIBCgKCAQEAvPQ0e6W7Rdz1jUqRLtoaaiQkUi7PcI5T8g/ZaHMO
hoxlFR1w/AiqmCONWH1C51dHDwqPtXl6AoNFlmiz4LDDLbZROpXDclCiP7Uj+KaA
xAHzJX/BKt7giuQjJdPoWALuCOfN4X4Gu/aBRZNv43s0HLAdrcF9LBAC5Uc+csK0
4zbFEN3RskSkS0PPUBcsQysWoawOdLUCrX2Th+q3/lX/t4GSe7sXaHx4L9AY/j3p
4OMOZAM+4HdHGTrn6xS7C6JwKGWGSMzY7wRxNo3KG6or2afIRIaGZW/qpQj9FAx7
7OOPxFrAuS5IRGoO00dQmEYHc5ct/4tVKSLLykSCvh5SvwIDAQABo4G9MIG6MAkG
A1UdEwQCMAAwHQYDVR0OBBYEFCAixNwYomBye5NXfepEGD+qeFyQMFEGA1UdIwRK
MEiAFB+TScXTOmWWTfwu1l0EXuUJRDNJoRqkGDAWMRQwEgYDVQQDDAt0ZWFtNDM0
LW5ldIIUaWp/2pr2UazOfYeaANJMPA9JYEQwEwYDVR0lBAwwCgYIKwYBBQUHAwEw
CwYDVR0PBAQDAgWgMBkGA1UdEQQSMBCCDnRlYW00MzQtc2VydmVyMA0GCSqGSIb3
DQEBCwUAA4IBAQAKBKfEDuhmrDalgLfDj9A63nXj5cJztf4DhL3PRmfb8IjC4vMo
Wngvg0ysgBTKe8+GwwXG05Lr96dz3+DCHlzQiy5w2bj1bR6khnXKPoKOl0cdnGdi
3poYzj+yaxASU5LqcshwUe2AeNgT90s2PDKKDiDVcHgnHdnirJ9NV/ZnrJt8q6s1
lxfOFxjnPrTqnp2dxDfZ3zWwMPpxOVVYopeYJHhm6bKUi5Jn2oTvLzAb7WHiFZhv
m4b+NKVu8/oZ86hfgtdvleJTzlRJzhIOMicpO/LzXtY5UnLlGgQOuSAdK6JgQAdF
exaM9CugIoewPzWr1mKeRhCM4Q489QLIRqdQ
-----END CERTIFICATE-----
