Certificate:
    Data:
        Version: 3 (0x2)
        Serial Number:
            98:6b:de:de:6c:cb:cb:26:8c:74:e4:a0:72:0b:bd:e3
        Signature Algorithm: sha256WithRSAEncryption
        Issuer: CN=team434-net
        Validity
            Not Before: Nov  4 10:48:26 2023 GMT
            Not After : Oct 19 10:48:26 2026 GMT
        Subject: CN=team434-client
        Subject Public Key Info:
            Public Key Algorithm: rsaEncryption
                Public-Key: (2048 bit)
                Modulus:
                    00:dc:68:9c:c4:e1:7e:2e:47:8f:3a:99:82:66:4b:
                    66:c9:d8:d2:58:11:de:2b:0c:c2:8b:74:87:27:f8:
                    1d:26:ff:58:3a:5d:e7:a9:de:59:9b:3c:9a:ba:a6:
                    18:2e:e7:90:f8:c2:7d:53:78:30:4f:73:2f:dd:c7:
                    f7:33:79:04:0b:0d:2e:02:d0:30:bc:67:e5:d1:b0:
                    b2:f9:27:38:da:13:b6:90:3c:8c:5f:f9:35:ac:4e:
                    49:f0:2d:0d:d0:2e:bf:e1:f3:4b:50:bf:c0:76:78:
                    cb:8a:52:db:6e:94:a9:be:0b:9b:1f:77:eb:3b:5b:
                    4f:8e:eb:ad:33:05:60:95:eb:a8:c9:14:99:08:99:
                    bc:2b:89:ca:9d:17:03:93:43:b8:54:5d:f5:0f:64:
                    0f:8f:e6:9b:53:21:d5:15:06:61:e7:53:49:55:7e:
                    40:cd:7b:50:02:39:c6:9b:64:3d:c2:12:ad:55:81:
                    7b:c0:3d:16:88:be:b6:0b:e9:32:ca:1b:a4:93:32:
                    32:90:d2:57:d1:81:01:57:88:3e:6a:09:1c:03:5b:
                    fe:fe:5d:bf:95:82:7c:60:70:e8:f5:5f:cb:6e:e8:
                    b9:c2:8e:4c:a0:f1:93:4e:9f:6d:fa:72:4f:c9:26:
                    05:c0:fa:41:60:c7:75:90:52:45:79:12:0b:f8:49:
                    e9:c7
                Exponent: 65537 (0x10001)
        X509v3 extensions:
            X509v3 Basic Constraints: 
                CA:FALSE
            X509v3 Subject Key Identifier: 
                7E:D7:60:70:82:D6:F5:6E:6C:97:B2:A6:F3:F1:F7:47:89:C7:B8:02
            X509v3 Authority Key Identifier: 
                keyid:1A:7A:F6:93:7A:C8:AF:A3:81:2E:18:43:14:84:13:EE:DA:F7:32:AA
                DirName:/CN=team434-net
                serial:04:69:4A:96:AD:D8:9A:7D:C8:27:7B:CF:6F:E1:88:D0:DD:BB:86:F6
            X509v3 Extended Key Usage: 
                TLS Web Client Authentication
            X509v3 Key Usage: 
                Digital Signature
    Signature Algorithm: sha256WithRSAEncryption
    Signature Value:
        d0:88:a6:17:6a:2f:df:fb:21:e3:a0:28:25:4c:cd:54:2f:36:
        a4:02:53:98:9a:70:42:50:1f:96:26:7c:67:13:15:67:9b:55:
        30:bd:f0:ba:41:5c:53:5e:cb:ee:7a:88:4d:03:4a:e8:ab:e2:
        ea:6c:32:18:87:78:90:15:ca:05:d3:4d:26:4b:22:a4:a0:6c:
        08:6b:1f:b0:02:d6:b1:09:17:91:4e:79:be:1e:b1:1e:a6:81:
        63:fc:40:30:08:f8:c6:8f:ec:53:2b:4f:94:c2:2d:e5:42:14:
        ff:58:dc:b1:96:14:cf:53:e6:77:be:cc:5c:50:b7:67:b2:6d:
        3c:3b:aa:f6:a9:e6:6c:9c:c1:1b:ac:de:ad:dd:94:ff:29:05:
        eb:4f:4e:1c:a1:97:f2:7e:15:77:9a:2d:c4:ff:93:22:67:10:
        10:1e:0d:28:4e:45:85:10:8d:a6:b9:97:61:05:05:98:1b:16:
        3b:b1:63:a3:f6:6f:17:4e:91:c6:46:6f:f4:49:73:10:3b:10:
        8d:b9:ee:bc:67:0d:9f:9b:fb:9c:17:18:db:33:be:45:ec:98:
        33:89:23:9d:2a:1d:82:dc:7c:26:e4:ef:57:d5:54:38:c2:2a:
        84:a9:03:14:f7:44:e8:2b:e2:e8:2d:83:e8:0b:24:c6:d3:fb:
        45:64:7e:2a
-----BEGIN CERTIFICATE-----
MIIDXTCCAkWgAwIBAgIRAJhr3t5sy8smjHTkoHILveMwDQYJKoZIhvcNAQELBQAw
FjEUMBIGA1UEAwwLdGVhbTQzNC1uZXQwHhcNMjMxMTA0MTA0ODI2WhcNMjYxMDE5
MTA0ODI2WjAZMRcwFQYDVQQDDA50ZWFtNDM0LWNsaWVudDCCASIwDQYJKoZIhvcN
AQEBBQADggEPADCCAQoCggEBANxonMThfi5HjzqZgmZLZsnY0lgR3isMwot0hyf4
HSb/WDpd56neWZs8mrqmGC7nkPjCfVN4ME9zL93H9zN5BAsNLgLQMLxn5dGwsvkn
ONoTtpA8jF/5NaxOSfAtDdAuv+HzS1C/wHZ4y4pS226Uqb4Lmx936ztbT47rrTMF
YJXrqMkUmQiZvCuJyp0XA5NDuFRd9Q9kD4/mm1Mh1RUGYedTSVV+QM17UAI5xptk
PcISrVWBe8A9Foi+tgvpMsobpJMyMpDSV9GBAVeIPmoJHANb/v5dv5WCfGBw6PVf
y27oucKOTKDxk06fbfpyT8kmBcD6QWDHdZBSRXkSC/hJ6ccCAwEAAaOBojCBnzAJ
BgNVHRMEAjAAMB0GA1UdDgQWBBR+12Bwgtb1bmyXsqbz8fdHice4AjBRBgNVHSME
SjBIgBQaevaTesivo4EuGEMUhBPu2vcyqqEapBgwFjEUMBIGA1UEAwwLdGVhbTQz
NC1uZXSCFARpSpat2Jp9yCd7z2/hiNDdu4b2MBMGA1UdJQQMMAoGCCsGAQUFBwMC
MAsGA1UdDwQEAwIHgDANBgkqhkiG9w0BAQsFAAOCAQEA0IimF2ov3/sh46AoJUzN
VC82pAJTmJpwQlAfliZ8ZxMVZ5tVML3wukFcU17L7nqITQNK6Kvi6mwyGId4kBXK
BdNNJksipKBsCGsfsALWsQkXkU55vh6xHqaBY/xAMAj4xo/sUytPlMIt5UIU/1jc
sZYUz1Pmd77MXFC3Z7JtPDuq9qnmbJzBG6zerd2U/ykF609OHKGX8n4Vd5otxP+T
ImcQEB4NKE5FhRCNprmXYQUFmBsWO7Fjo/ZvF06RxkZv9ElzEDsQjbnuvGcNn5v7
nBcY2zO+ReyYM4kjnSodgtx8JuTvV9VUOMIqhKkDFPdE6Cvi6C2D6AskxtP7RWR+
Kg==
-----END CERTIFICATE-----
