Certificate:
    Data:
        Version: 3 (0x2)
        Serial Number:
            fb:54:55:c3:66:3e:b1:ec:28:75:81:a6:15:de:12:38
        Signature Algorithm: sha256WithRSAEncryption
        Issuer: CN=team434-net
        Validity
            Not Before: Nov  4 11:37:12 2023 GMT
            Not After : Oct 19 11:37:12 2026 GMT
        Subject: CN=team434-client
        Subject Public Key Info:
            Public Key Algorithm: rsaEncryption
                Public-Key: (2048 bit)
                Modulus:
                    00:bd:e0:2c:17:8b:c3:04:fc:91:4d:e0:ac:da:ca:
                    9c:8e:15:52:b6:11:b7:4c:13:da:b6:f0:b5:6e:11:
                    7e:ab:9a:41:fe:d0:25:c8:9a:23:4a:c9:69:19:db:
                    66:b2:ca:fb:94:78:e7:be:66:b5:8f:10:5b:36:a0:
                    f2:a1:48:f6:ae:c4:e9:32:36:ba:be:ea:7e:ed:b5:
                    b5:0b:96:cd:8d:26:54:19:37:3d:d2:50:84:09:27:
                    d0:31:27:05:8a:91:48:64:96:92:3e:49:29:b9:ba:
                    14:5b:45:f0:9e:72:1f:8f:88:7e:e0:3e:df:da:44:
                    fb:b2:39:49:55:35:e9:78:88:65:d5:d9:24:29:ef:
                    e9:f7:66:6d:2c:e2:fe:37:4e:17:bf:1b:c4:93:f7:
                    bd:fb:54:f1:8d:a6:b2:ad:6e:f7:80:82:a4:1e:25:
                    57:92:8b:43:10:21:8c:c0:4d:e1:00:91:df:f2:51:
                    92:38:3b:43:d7:44:e3:2f:45:16:a6:45:4a:94:bc:
                    a4:46:67:98:0f:a6:b7:e2:ea:9c:72:72:e4:35:27:
                    43:68:c4:81:6b:ec:c6:e0:f0:d2:60:13:25:79:bd:
                    9c:80:66:1f:96:fa:db:5a:b8:0a:84:dd:19:cc:61:
                    a0:73:4f:82:62:f5:0f:75:81:61:b0:d4:e8:0a:ad:
                    53:41
                Exponent: 65537 (0x10001)
        X509v3 extensions:
            X509v3 Basic Constraints: 
                CA:FALSE
            X509v3 Subject Key Identifier: 
                6C:D6:8A:CE:38:F0:2F:4C:F7:E7:1C:1C:41:4F:1B:3B:FF:C1:95:04
            X509v3 Authority Key Identifier: 
                keyid:1F:93:49:C5:D3:3A:65:96:4D:FC:2E:D6:5D:04:5E:E5:09:44:33:49
                DirName:/CN=team434-net
                serial:69:6A:7F:DA:9A:F6:51:AC:CE:7D:87:9A:00:D2:4C:3C:0F:49:60:44
            X509v3 Extended Key Usage: 
                TLS Web Client Authentication
            X509v3 Key Usage: 
                Digital Signature
    Signature Algorithm: sha256WithRSAEncryption
    Signature Value:
        9d:75:98:22:e3:d0:f1:25:24:28:d9:df:ae:16:0e:ad:aa:46:
        d8:33:33:fb:77:c2:cc:e7:c4:94:83:0c:be:f5:b0:43:0f:84:
        c4:f0:8c:b4:2c:63:1e:bc:ad:52:a2:61:90:b5:a0:58:bd:12:
        53:49:7d:a6:fc:89:6f:b1:8d:61:99:3a:7f:45:f1:16:42:c5:
        92:e0:dc:7a:0e:5c:c7:21:d4:cd:f1:36:b4:a9:4a:b8:67:9a:
        56:7d:07:46:73:30:7e:fb:aa:2f:b2:c5:49:11:e9:6f:bc:7b:
        f3:d6:21:08:13:c2:f4:af:fe:7d:25:1c:d4:c5:2c:7d:fb:9c:
        0c:c3:28:b7:d0:95:62:d1:36:8e:1e:21:12:3b:70:c7:4b:a4:
        aa:2f:c9:2c:b9:72:a4:88:3d:5c:51:05:1b:4b:5a:cc:c4:16:
        8c:07:6d:2b:f4:8d:5e:dc:cf:f5:6d:30:57:c7:39:37:02:99:
        b7:eb:a1:21:8e:12:9c:15:9e:27:78:2f:fd:f2:40:3d:d5:b9:
        7f:d7:43:38:61:04:d1:dc:d0:e4:94:09:bb:29:9f:72:09:24:
        30:20:b3:2a:50:36:93:fe:56:de:31:47:12:d1:64:d7:33:40:
        cd:b0:15:66:71:33:c1:98:95:82:42:11:44:fe:e1:9f:61:15:
        c8:6f:75:67
-----BEGIN CERTIFICATE-----
MIIDXTCCAkWgAwIBAgIRAPtUVcNmPrHsKHWBphXeEjgwDQYJKoZIhvcNAQELBQAw
FjEUMBIGA1UEAwwLdGVhbTQzNC1uZXQwHhcNMjMxMTA0MTEzNzEyWhcNMjYxMDE5
MTEzNzEyWjAZMRcwFQYDVQQDDA50ZWFtNDM0LWNsaWVudDCCASIwDQYJKoZIhvcN
AQEBBQADggEPADCCAQoCggEBAL3gLBeLwwT8kU3grNrKnI4VUrYRt0wT2rbwtW4R
fquaQf7QJciaI0rJaRnbZrLK+5R4575mtY8QWzag8qFI9q7E6TI2ur7qfu21tQuW
zY0mVBk3PdJQhAkn0DEnBYqRSGSWkj5JKbm6FFtF8J5yH4+IfuA+39pE+7I5SVU1
6XiIZdXZJCnv6fdmbSzi/jdOF78bxJP3vftU8Y2msq1u94CCpB4lV5KLQxAhjMBN
4QCR3/JRkjg7Q9dE4y9FFqZFSpS8pEZnmA+mt+LqnHJy5DUnQ2jEgWvsxuDw0mAT
JXm9nIBmH5b621q4CoTdGcxhoHNPgmL1D3WBYbDU6AqtU0ECAwEAAaOBojCBnzAJ
BgNVHRMEAjAAMB0GA1UdDgQWBBRs1orOOPAvTPfnHBxBTxs7/8GVBDBRBgNVHSME
SjBIgBQfk0nF0zpllk38LtZdBF7lCUQzSaEapBgwFjEUMBIGA1UEAwwLdGVhbTQz
NC1uZXSCFGlqf9qa9lGszn2HmgDSTDwPSWBEMBMGA1UdJQQMMAoGCCsGAQUFBwMC
MAsGA1UdDwQEAwIHgDANBgkqhkiG9w0BAQsFAAOCAQEAnXWYIuPQ8SUkKNnfrhYO
rapG2DMz+3fCzOfElIMMvvWwQw+ExPCMtCxjHrytUqJhkLWgWL0SU0l9pvyJb7GN
YZk6f0XxFkLFkuDceg5cxyHUzfE2tKlKuGeaVn0HRnMwfvuqL7LFSRHpb7x789Yh
CBPC9K/+fSUc1MUsffucDMMot9CVYtE2jh4hEjtwx0ukqi/JLLlypIg9XFEFG0ta
zMQWjAdtK/SNXtzP9W0wV8c5NwKZt+uhIY4SnBWeJ3gv/fJAPdW5f9dDOGEE0dzQ
5JQJuymfcgkkMCCzKlA2k/5W3jFHEtFk1zNAzbAVZnEzwZiVgkIRRP7hn2EVyG91
Zw==
-----END CERTIFICATE-----
