Certificate:
    Data:
        Version: 3 (0x2)
        Serial Number:
            20:cc:7e:4c:b5:68:83:1f:c1:19:be:30:ce:04:65:96
        Signature Algorithm: sha256WithRSAEncryption
        Issuer: CN=team350-net
        Validity
            Not Before: Nov  3 20:45:39 2023 GMT
            Not After : Oct 18 20:45:39 2026 GMT
        Subject: CN=team350-client
        Subject Public Key Info:
            Public Key Algorithm: rsaEncryption
                Public-Key: (2048 bit)
                Modulus:
                    00:b5:b6:85:f8:6f:9d:7b:05:a4:68:c2:80:37:1c:
                    07:f7:4c:9e:1a:62:ab:c3:ee:14:05:af:97:9e:b4:
                    ef:e0:f9:eb:22:d9:08:d8:4c:43:fd:3b:16:73:bc:
                    b8:71:4c:78:40:fd:fa:a5:0e:a6:a9:0b:b9:e2:66:
                    44:3b:bf:4a:46:75:f2:8d:68:94:b9:19:e8:73:bb:
                    58:b9:49:49:97:50:7d:b3:55:c2:8d:92:56:15:21:
                    b7:d1:96:7c:fa:db:25:e9:63:03:3b:85:78:84:c8:
                    af:91:61:6e:ad:54:6b:e4:01:c3:bc:05:b5:b8:e4:
                    db:4a:28:00:0b:1a:2a:4b:6a:c9:8d:ad:a8:10:65:
                    c8:22:dd:f5:ec:e1:59:46:5f:8b:65:3a:df:82:be:
                    97:03:34:ac:19:14:44:47:fe:37:6f:80:58:36:44:
                    06:f3:4b:15:f5:34:a0:2b:57:e4:d3:f8:72:8a:99:
                    82:90:57:3a:9b:d2:bb:f1:0a:25:f5:49:e2:08:21:
                    d1:ec:9e:bc:36:cf:55:b6:74:42:d1:30:c3:bd:10:
                    49:ce:83:b9:17:c6:eb:1d:d9:c7:63:23:c3:16:4b:
                    40:c0:35:f4:22:80:be:37:f6:ef:fa:19:4e:ca:c5:
                    1c:17:88:75:00:07:a2:a6:3e:58:8e:7b:c2:c6:6a:
                    a8:91
                Exponent: 65537 (0x10001)
        X509v3 extensions:
            X509v3 Basic Constraints: 
                CA:FALSE
            X509v3 Subject Key Identifier: 
                82:E9:0A:6F:34:8B:B9:4E:DD:BA:1C:1C:FA:CF:A2:74:9E:BE:65:87
            X509v3 Authority Key Identifier: 
                keyid:3B:4B:4D:77:1B:94:3A:77:63:F1:03:F5:CE:2C:43:29:08:2F:54:2B
                DirName:/CN=team350-net
                serial:0B:16:60:83:F7:87:09:30:C1:CA:F0:96:4E:2A:A2:AF:D1:E2:C5:8E
            X509v3 Extended Key Usage: 
                TLS Web Client Authentication
            X509v3 Key Usage: 
                Digital Signature
    Signature Algorithm: sha256WithRSAEncryption
    Signature Value:
        51:f8:ac:fb:53:c2:21:78:34:0e:6c:41:a2:5e:8d:39:7b:17:
        f6:99:64:48:9b:ab:0e:47:ff:13:10:53:c8:2e:58:20:ca:9a:
        e3:ec:09:0a:f4:e8:6a:d3:a3:cf:18:70:13:bd:24:4f:66:da:
        7f:a0:27:53:2d:10:4b:68:46:ad:db:a5:85:3c:24:8e:ca:8c:
        b9:09:95:e7:0d:fa:ae:d8:85:78:f9:02:ab:d1:e5:1b:e2:8e:
        d1:15:3d:08:ff:ac:7f:97:d2:4e:8b:9a:dd:84:c5:fa:9c:69:
        07:f8:a0:3a:db:88:d3:c2:07:6c:22:0f:15:54:d3:5b:36:ed:
        f5:14:b3:38:82:55:a4:c9:8c:50:19:8b:de:5e:29:2b:5d:0d:
        5d:67:7d:ec:f7:75:59:05:c8:0a:d0:e9:33:74:bf:93:d1:e3:
        df:0e:e1:d3:76:cd:db:15:6b:db:15:25:bd:dc:76:dc:57:d3:
        0b:47:ba:86:04:6c:8a:0a:ec:6e:8b:17:89:1a:17:7c:59:ed:
        8c:79:59:96:04:1a:a3:02:7b:fb:b4:e9:73:ad:c3:45:cb:78:
        0b:1a:38:94:b6:0e:8e:fa:bd:3d:79:5b:66:43:d1:c8:40:00:
        d9:7d:f5:fe:c2:e0:75:5a:d1:2d:f2:bd:eb:fe:b1:59:58:b2:
        5f:23:44:22
-----BEGIN CERTIFICATE-----
MIIDXDCCAkSgAwIBAgIQIMx+TLVogx/BGb4wzgRlljANBgkqhkiG9w0BAQsFADAW
MRQwEgYDVQQDDAt0ZWFtMzUwLW5ldDAeFw0yMzExMDMyMDQ1MzlaFw0yNjEwMTgy
MDQ1MzlaMBkxFzAVBgNVBAMMDnRlYW0zNTAtY2xpZW50MIIBIjANBgkqhkiG9w0B
AQEFAAOCAQ8AMIIBCgKCAQEAtbaF+G+dewWkaMKANxwH90yeGmKrw+4UBa+XnrTv
4PnrItkI2ExD/TsWc7y4cUx4QP36pQ6mqQu54mZEO79KRnXyjWiUuRnoc7tYuUlJ
l1B9s1XCjZJWFSG30ZZ8+tsl6WMDO4V4hMivkWFurVRr5AHDvAW1uOTbSigACxoq
S2rJja2oEGXIIt317OFZRl+LZTrfgr6XAzSsGRRER/43b4BYNkQG80sV9TSgK1fk
0/hyipmCkFc6m9K78Qol9UniCCHR7J68Ns9VtnRC0TDDvRBJzoO5F8brHdnHYyPD
FktAwDX0IoC+N/bv+hlOysUcF4h1AAeipj5YjnvCxmqokQIDAQABo4GiMIGfMAkG
A1UdEwQCMAAwHQYDVR0OBBYEFILpCm80i7lO3bocHPrPonSevmWHMFEGA1UdIwRK
MEiAFDtLTXcblDp3Y/ED9c4sQykIL1QroRqkGDAWMRQwEgYDVQQDDAt0ZWFtMzUw
LW5ldIIUCxZgg/eHCTDByvCWTiqir9HixY4wEwYDVR0lBAwwCgYIKwYBBQUHAwIw
CwYDVR0PBAQDAgeAMA0GCSqGSIb3DQEBCwUAA4IBAQBR+Kz7U8IheDQObEGiXo05
exf2mWRIm6sOR/8TEFPILlggyprj7AkK9Ohq06PPGHATvSRPZtp/oCdTLRBLaEat
26WFPCSOyoy5CZXnDfqu2IV4+QKr0eUb4o7RFT0I/6x/l9JOi5rdhMX6nGkH+KA6
24jTwgdsIg8VVNNbNu31FLM4glWkyYxQGYveXikrXQ1dZ33s93VZBcgK0OkzdL+T
0ePfDuHTds3bFWvbFSW93HbcV9MLR7qGBGyKCuxuixeJGhd8We2MeVmWBBqjAnv7
tOlzrcNFy3gLGjiUtg6O+r09eVtmQ9HIQADZffX+wuB1WtEt8r3r/rFZWLJfI0Qi
-----END CERTIFICATE-----
