Certificate:
    Data:
        Version: 3 (0x2)
        Serial Number:
            c4:14:d7:1d:fd:53:fc:31:23:1d:15:33:57:1a:46:0d
        Signature Algorithm: sha256WithRSAEncryption
        Issuer: CN=team293-net
        Validity
            Not Before: Nov  3 20:44:37 2023 GMT
            Not After : Oct 18 20:44:37 2026 GMT
        Subject: CN=team293-server
        Subject Public Key Info:
            Public Key Algorithm: rsaEncryption
                Public-Key: (2048 bit)
                Modulus:
                    00:e5:5d:4e:a9:1d:7a:10:5f:b6:39:41:6a:b6:0e:
                    02:01:76:e3:be:bf:1e:1e:87:68:e9:d0:dd:69:7b:
                    9a:0f:f3:35:71:0b:c1:e6:25:34:04:e6:bf:cd:76:
                    aa:64:3a:7d:86:f3:a8:aa:6f:d8:49:e4:05:57:49:
                    ac:d9:e8:cd:2c:99:c7:ef:48:a6:0c:c7:f4:b9:90:
                    e3:78:3d:9f:88:6f:81:08:02:74:b9:ae:2c:90:77:
                    47:ea:c9:a0:5c:54:9d:12:34:c0:c8:e2:aa:8a:87:
                    eb:78:5e:89:f7:0f:c4:a0:f6:1d:7f:67:42:86:71:
                    9d:21:73:bb:bc:03:3c:3a:a2:2d:a4:9d:9a:64:fa:
                    7d:8a:45:ad:31:f5:6a:84:e7:01:97:56:54:32:8b:
                    7e:1d:e2:49:b8:f3:03:53:fb:16:08:9a:ad:d1:d1:
                    e9:ec:72:b8:91:76:67:c0:a4:5d:ce:11:f9:36:91:
                    ba:43:19:02:77:00:7a:d3:e3:13:31:ec:81:0c:6e:
                    ee:fa:2b:13:2b:ce:ef:07:f7:e1:47:2b:db:5e:b2:
                    4d:8d:ea:7e:10:eb:72:f1:f9:51:04:33:cf:70:8d:
                    6f:93:cb:c7:b2:40:e4:1a:01:d9:13:63:82:ee:33:
                    c1:cb:1a:53:65:8b:ef:a8:59:11:05:9b:ab:64:c5:
                    ea:db
                Exponent: 65537 (0x10001)
        X509v3 extensions:
            X509v3 Basic Constraints: 
                CA:FALSE
            X509v3 Subject Key Identifier: 
                D6:9E:37:09:6C:EF:7E:40:3E:52:26:B0:35:82:A2:8F:6B:8E:3F:3D
            X509v3 Authority Key Identifier: 
                keyid:05:F8:0D:57:CF:54:2A:BE:CC:CD:A9:43:05:AC:1E:D4:8C:48:E5:BB
                DirName:/CN=team293-net
                serial:45:55:E8:76:80:83:56:33:46:5E:D1:F2:A3:CE:25:54:C1:AD:99:9B
            X509v3 Extended Key Usage: 
                TLS Web Server Authentication
            X509v3 Key Usage: 
                Digital Signature, Key Encipherment
            X509v3 Subject Alternative Name: 
                DNS:team293-server
    Signature Algorithm: sha256WithRSAEncryption
    Signature Value:
        c8:42:54:98:81:76:00:18:43:60:24:f5:58:8d:21:1c:36:a0:
        67:5b:e0:ca:0c:47:7e:f5:c9:65:9c:36:5d:78:ce:39:00:4e:
        33:a8:26:ba:91:43:5b:47:ca:a1:86:97:74:17:28:86:98:d1:
        48:f7:59:60:65:44:26:90:81:10:5c:d2:51:d5:2b:64:6b:dc:
        bd:1c:6a:a1:1d:82:9d:de:79:37:80:cf:a2:66:b4:92:4d:b8:
        77:96:ab:3c:1e:7e:64:6c:69:35:e7:d6:6c:68:15:ff:06:09:
        e0:7b:45:96:0e:aa:e6:82:30:d1:ef:24:9c:4c:72:34:06:90:
        31:ae:27:00:b3:5b:65:e3:94:30:69:df:57:75:c0:a5:e6:b5:
        63:fe:b3:68:11:f2:10:2e:9e:41:68:42:2d:d0:4e:80:f6:f8:
        ed:ab:e9:87:d8:a5:51:aa:d6:19:22:6c:34:b6:cf:f0:bd:3f:
        a2:1f:3d:80:1c:8e:35:7f:0d:60:71:be:19:90:e6:4b:4f:5d:
        5d:5e:b9:e4:25:5f:5a:28:cc:35:4e:b2:57:18:1d:71:60:84:
        93:64:a9:cc:b4:d4:8e:34:40:69:6b:8c:c7:29:3a:f2:f6:4d:
        67:0b:c6:19:db:9f:d5:48:ce:48:e5:ee:d9:0a:b9:82:9c:c3:
        64:58:1b:95
-----BEGIN CERTIFICATE-----
MIIDeDCCAmCgAwIBAgIRAMQU1x39U/wxIx0VM1caRg0wDQYJKoZIhvcNAQELBQAw
FjEUMBIGA1UEAwwLdGVhbTI5My1uZXQwHhcNMjMxMTAzMjA0NDM3WhcNMjYxMDE4
MjA0NDM3WjAZMRcwFQYDVQQDDA50ZWFtMjkzLXNlcnZlcjCCASIwDQYJKoZIhvcN
AQEBBQADggEPADCCAQoCggEBAOVdTqkdehBftjlBarYOAgF2476/Hh6HaOnQ3Wl7
mg/zNXELweYlNATmv812qmQ6fYbzqKpv2EnkBVdJrNnozSyZx+9IpgzH9LmQ43g9
n4hvgQgCdLmuLJB3R+rJoFxUnRI0wMjiqoqH63heifcPxKD2HX9nQoZxnSFzu7wD
PDqiLaSdmmT6fYpFrTH1aoTnAZdWVDKLfh3iSbjzA1P7FgiardHR6exyuJF2Z8Ck
Xc4R+TaRukMZAncAetPjEzHsgQxu7vorEyvO7wf34Ucr216yTY3qfhDrcvH5UQQz
z3CNb5PLx7JA5BoB2RNjgu4zwcsaU2WL76hZEQWbq2TF6tsCAwEAAaOBvTCBujAJ
BgNVHRMEAjAAMB0GA1UdDgQWBBTWnjcJbO9+QD5SJrA1gqKPa44/PTBRBgNVHSME
SjBIgBQF+A1Xz1QqvszNqUMFrB7UjEjlu6EapBgwFjEUMBIGA1UEAwwLdGVhbTI5
My1uZXSCFEVV6HaAg1YzRl7R8qPOJVTBrZmbMBMGA1UdJQQMMAoGCCsGAQUFBwMB
MAsGA1UdDwQEAwIFoDAZBgNVHREEEjAQgg50ZWFtMjkzLXNlcnZlcjANBgkqhkiG
9w0BAQsFAAOCAQEAyEJUmIF2ABhDYCT1WI0hHDagZ1vgygxHfvXJZZw2XXjOOQBO
M6gmupFDW0fKoYaXdBcohpjRSPdZYGVEJpCBEFzSUdUrZGvcvRxqoR2Cnd55N4DP
oma0kk24d5arPB5+ZGxpNefWbGgV/wYJ4HtFlg6q5oIw0e8knExyNAaQMa4nALNb
ZeOUMGnfV3XApea1Y/6zaBHyEC6eQWhCLdBOgPb47avph9ilUarWGSJsNLbP8L0/
oh89gByONX8NYHG+GZDmS09dXV655CVfWijMNU6yVxgdcWCEk2SpzLTUjjRAaWuM
xyk68vZNZwvGGduf1UjOSOXu2Qq5gpzDZFgblQ==
-----END CERTIFICATE-----
