Certificate:
    Data:
        Version: 3 (0x2)
        Serial Number:
            97:fa:8b:34:bd:33:17:e7:75:35:dd:2c:f4:f0:e4:23
        Signature Algorithm: sha256WithRSAEncryption
        Issuer: CN=team395-net
        Validity
            Not Before: Nov  4 10:47:46 2023 GMT
            Not After : Oct 19 10:47:46 2026 GMT
        Subject: CN=team395-server
        Subject Public Key Info:
            Public Key Algorithm: rsaEncryption
                Public-Key: (2048 bit)
                Modulus:
                    00:d0:75:04:55:15:61:bd:60:8c:c2:8a:06:22:d1:
                    5b:8b:a0:d8:82:17:2d:fa:27:1a:00:79:d5:88:fb:
                    2b:7d:55:a3:31:6a:23:67:a3:b3:b6:18:1f:e0:c7:
                    bb:a2:e4:11:31:cb:c5:0e:54:c7:9f:e2:60:a1:85:
                    0d:2e:df:51:d0:fd:74:f7:48:e9:7c:e0:24:39:9c:
                    7d:05:ab:a6:43:38:1c:6d:c4:23:03:61:6a:72:25:
                    5e:c4:ec:ab:14:77:c0:66:e1:c2:10:bb:16:b5:9e:
                    e4:41:ee:b9:87:d8:38:9a:97:a1:18:28:fe:69:7f:
                    8c:1b:ce:28:a9:9a:e1:11:3f:0d:4a:8a:64:ad:e7:
                    86:4e:86:db:5b:8b:cc:e5:9a:a2:6e:5f:96:33:a2:
                    bd:39:a6:db:ec:15:29:d6:6c:51:c6:9e:95:26:51:
                    64:60:97:ea:fd:4b:df:cb:fe:9a:a9:ae:6a:56:3d:
                    99:bd:6e:b6:9f:4e:ab:af:82:30:da:f3:4e:2d:c9:
                    c9:b2:83:12:71:27:f5:47:47:c7:40:ee:91:44:4d:
                    d6:38:f6:ce:80:d5:f3:c5:33:54:54:88:9e:93:76:
                    9c:ae:53:4b:09:d9:46:c1:17:78:fd:44:85:47:26:
                    64:41:b9:26:47:c5:56:97:4d:fb:0b:46:df:8a:42:
                    13:41
                Exponent: 65537 (0x10001)
        X509v3 extensions:
            X509v3 Basic Constraints: 
                CA:FALSE
            X509v3 Subject Key Identifier: 
                AD:A0:02:C1:3E:6D:D6:81:BE:F9:E5:AD:6C:34:A7:2B:89:B8:70:4D
            X509v3 Authority Key Identifier: 
                keyid:57:E6:27:FC:E8:1F:F6:60:B3:66:33:B6:7E:3A:A2:9B:A4:79:1A:75
                DirName:/CN=team395-net
                serial:29:F8:DE:8F:A5:0D:FA:35:DB:04:3E:56:EA:6E:53:DC:B8:3F:1E:68
            X509v3 Extended Key Usage: 
                TLS Web Server Authentication
            X509v3 Key Usage: 
                Digital Signature, Key Encipherment
            X509v3 Subject Alternative Name: 
                DNS:team395-server
    Signature Algorithm: sha256WithRSAEncryption
    Signature Value:
        24:3a:46:2a:71:dd:8e:52:4e:10:52:f0:04:89:2d:6c:14:16:
        7e:07:c9:f9:50:1f:12:f3:c6:db:61:4d:0b:22:f7:0a:d5:82:
        36:6e:02:3c:d3:c1:55:4b:05:ab:98:86:36:3e:c4:0e:aa:d0:
        8f:2a:34:09:41:c8:53:bb:ed:34:5a:39:90:8c:dd:07:c1:72:
        a5:be:3c:47:a2:fe:56:91:81:bb:04:e4:5a:e7:77:36:7e:4e:
        a3:02:74:67:af:ee:0e:4e:e1:39:39:0f:68:9b:b6:80:6f:86:
        7e:ab:13:c0:88:50:9c:b4:c3:f6:35:aa:b1:49:37:96:42:09:
        f4:6c:8b:b9:0c:27:36:e9:b5:5e:41:f2:b8:f0:f9:9d:4d:8a:
        cf:be:93:07:fe:4d:52:0e:c6:7d:97:66:b9:7b:35:d6:53:62:
        54:9e:4c:bc:7d:a6:1d:46:f0:75:94:10:db:ac:1e:c5:be:d0:
        9e:3f:20:0f:06:cc:74:7c:62:42:e2:ef:0f:17:59:8f:b5:0e:
        5b:d1:d8:26:f6:cc:1b:0a:f4:b1:f5:22:96:9e:f3:c6:36:e6:
        c2:5e:f6:64:d9:9f:fe:57:f4:7e:3d:84:35:85:35:62:33:fc:
        90:b3:24:07:91:b4:e4:2c:60:d0:a2:6e:78:d2:d0:86:82:a3:
        61:20:39:65
-----BEGIN CERTIFICATE-----
MIIDeDCCAmCgAwIBAgIRAJf6izS9MxfndTXdLPTw5CMwDQYJKoZIhvcNAQELBQAw
FjEUMBIGA1UEAwwLdGVhbTM5NS1uZXQwHhcNMjMxMTA0MTA0NzQ2WhcNMjYxMDE5
MTA0NzQ2WjAZMRcwFQYDVQQDDA50ZWFtMzk1LXNlcnZlcjCCASIwDQYJKoZIhvcN
AQEBBQADggEPADCCAQoCggEBANB1BFUVYb1gjMKKBiLRW4ug2IIXLfonGgB51Yj7
K31VozFqI2ejs7YYH+DHu6LkETHLxQ5Ux5/iYKGFDS7fUdD9dPdI6XzgJDmcfQWr
pkM4HG3EIwNhanIlXsTsqxR3wGbhwhC7FrWe5EHuuYfYOJqXoRgo/ml/jBvOKKma
4RE/DUqKZK3nhk6G21uLzOWaom5fljOivTmm2+wVKdZsUcaelSZRZGCX6v1L38v+
mqmualY9mb1utp9Oq6+CMNrzTi3JybKDEnEn9UdHx0DukURN1jj2zoDV88UzVFSI
npN2nK5TSwnZRsEXeP1EhUcmZEG5JkfFVpdN+wtG34pCE0ECAwEAAaOBvTCBujAJ
BgNVHRMEAjAAMB0GA1UdDgQWBBStoALBPm3Wgb755a1sNKcribhwTTBRBgNVHSME
SjBIgBRX5if86B/2YLNmM7Z+OqKbpHkadaEapBgwFjEUMBIGA1UEAwwLdGVhbTM5
NS1uZXSCFCn43o+lDfo12wQ+VupuU9y4Px5oMBMGA1UdJQQMMAoGCCsGAQUFBwMB
MAsGA1UdDwQEAwIFoDAZBgNVHREEEjAQgg50ZWFtMzk1LXNlcnZlcjANBgkqhkiG
9w0BAQsFAAOCAQEAJDpGKnHdjlJOEFLwBIktbBQWfgfJ+VAfEvPG22FNCyL3CtWC
Nm4CPNPBVUsFq5iGNj7EDqrQjyo0CUHIU7vtNFo5kIzdB8Fypb48R6L+VpGBuwTk
Wud3Nn5OowJ0Z6/uDk7hOTkPaJu2gG+GfqsTwIhQnLTD9jWqsUk3lkIJ9GyLuQwn
Num1XkHyuPD5nU2Kz76TB/5NUg7GfZdmuXs11lNiVJ5MvH2mHUbwdZQQ26wexb7Q
nj8gDwbMdHxiQuLvDxdZj7UOW9HYJvbMGwr0sfUilp7zxjbmwl72ZNmf/lf0fj2E
NYU1YjP8kLMkB5G05Cxg0KJueNLQhoKjYSA5ZQ==
-----END CERTIFICATE-----
