Certificate:
    Data:
        Version: 3 (0x2)
        Serial Number:
            b0:bf:df:ff:10:e4:d7:2d:70:d6:af:fa:c1:ca:b8:f7
        Signature Algorithm: sha256WithRSAEncryption
        Issuer: CN=team395-net
        Validity
            Not Before: Nov  3 20:46:22 2023 GMT
            Not After : Oct 18 20:46:22 2026 GMT
        Subject: CN=team395-client
        Subject Public Key Info:
            Public Key Algorithm: rsaEncryption
                Public-Key: (2048 bit)
                Modulus:
                    00:b9:13:a8:4b:5e:cd:0f:99:aa:52:40:b4:d9:b4:
                    21:5e:b4:24:8a:de:e6:92:28:a3:21:09:2c:fe:7b:
                    ae:77:a4:9d:59:a9:e1:d3:cf:a6:98:89:be:16:c6:
                    92:82:25:07:d7:22:66:9e:a5:de:9f:57:76:ac:ac:
                    f8:fd:da:f8:59:6e:1c:5b:f3:14:2e:d0:4c:e1:9b:
                    95:c9:03:97:ab:f7:e8:c3:4b:8a:e1:31:bb:c1:b4:
                    54:b3:1b:1d:bc:53:ae:ff:45:c8:41:c2:d2:b6:d9:
                    c4:cd:88:a5:51:98:6b:26:0b:c6:44:65:2b:87:85:
                    43:e3:bd:23:ef:4a:bb:a9:db:5b:bb:59:58:db:c8:
                    d2:64:b8:62:8b:87:8e:a1:5e:b8:3b:76:9d:c5:87:
                    7c:09:33:aa:ef:5e:7f:87:b2:11:6d:9e:b2:07:e5:
                    83:d6:ae:54:16:46:ec:42:93:ad:55:9b:05:7e:c5:
                    b3:13:05:04:20:48:ff:8c:1d:f1:be:3e:78:ce:ea:
                    a3:f5:ee:12:76:93:64:54:c8:0e:4c:34:1d:05:bf:
                    5a:80:69:f3:ba:55:9a:16:7b:25:17:75:89:69:b2:
                    ce:ad:85:20:bc:fb:a2:7a:c1:f8:dc:d1:b8:fa:f6:
                    b3:a8:59:be:4f:82:4a:eb:5e:b8:fa:7c:61:1a:ea:
                    56:2b
                Exponent: 65537 (0x10001)
        X509v3 extensions:
            X509v3 Basic Constraints: 
                CA:FALSE
            X509v3 Subject Key Identifier: 
                B5:21:82:D8:ED:1C:48:4A:11:48:FF:68:0F:54:99:A0:FA:74:A5:22
            X509v3 Authority Key Identifier: 
                keyid:8B:B6:72:71:A9:DF:69:D3:2A:E4:43:2D:B1:5D:50:8C:7C:A3:A3:40
                DirName:/CN=team395-net
                serial:6A:B2:49:63:2E:CC:09:08:FB:19:78:F9:1B:40:EA:40:EF:E9:BC:2C
            X509v3 Extended Key Usage: 
                TLS Web Client Authentication
            X509v3 Key Usage: 
                Digital Signature
    Signature Algorithm: sha256WithRSAEncryption
    Signature Value:
        97:0f:6a:55:31:f1:0c:4c:8e:f8:5b:e1:58:02:8d:f0:91:ce:
        fc:26:76:47:90:7e:bc:ff:b7:15:25:fc:8a:b4:b4:d4:bb:cf:
        03:51:2b:ca:90:1f:b4:67:66:da:ca:49:ed:03:36:f2:7b:4c:
        b9:67:5b:de:c2:b7:a5:2b:93:7d:e9:4a:3c:d2:1a:2b:a7:27:
        08:cf:b3:1f:a7:82:21:f4:fb:a1:f3:c6:0f:6d:da:1a:19:0f:
        e9:23:d6:ef:5b:c0:b9:93:55:95:88:56:5d:f3:62:16:5e:7b:
        f9:92:8b:b2:89:3c:79:96:71:e5:0d:de:fa:c6:74:56:c3:8d:
        b1:86:39:a7:67:e8:8a:e8:05:2a:6a:b2:22:21:33:4d:bc:34:
        48:ef:b5:6a:75:d0:cd:0f:29:06:90:7d:6c:97:95:c2:95:b9:
        ee:82:8d:e5:f6:36:dc:55:80:4b:25:fa:66:e9:d9:5d:39:b2:
        2a:23:65:0d:36:22:2f:f1:ec:04:92:00:6c:49:d6:f0:22:44:
        44:7c:00:78:19:ea:9f:9f:54:97:ec:79:31:44:82:8d:32:c7:
        a1:c2:78:ef:97:a0:59:93:c5:5a:d3:ab:25:af:31:68:d9:ef:
        cd:2a:a3:5b:b8:65:3e:11:5f:d7:cc:cf:fb:b3:cc:c4:31:3d:
        b1:5b:20:42
-----BEGIN CERTIFICATE-----
MIIDXTCCAkWgAwIBAgIRALC/3/8Q5NctcNav+sHKuPcwDQYJKoZIhvcNAQELBQAw
FjEUMBIGA1UEAwwLdGVhbTM5NS1uZXQwHhcNMjMxMTAzMjA0NjIyWhcNMjYxMDE4
MjA0NjIyWjAZMRcwFQYDVQQDDA50ZWFtMzk1LWNsaWVudDCCASIwDQYJKoZIhvcN
AQEBBQADggEPADCCAQoCggEBALkTqEtezQ+ZqlJAtNm0IV60JIre5pIooyEJLP57
rneknVmp4dPPppiJvhbGkoIlB9ciZp6l3p9Xdqys+P3a+FluHFvzFC7QTOGblckD
l6v36MNLiuExu8G0VLMbHbxTrv9FyEHC0rbZxM2IpVGYayYLxkRlK4eFQ+O9I+9K
u6nbW7tZWNvI0mS4YouHjqFeuDt2ncWHfAkzqu9ef4eyEW2esgflg9auVBZG7EKT
rVWbBX7FsxMFBCBI/4wd8b4+eM7qo/XuEnaTZFTIDkw0HQW/WoBp87pVmhZ7JRd1
iWmyzq2FILz7onrB+NzRuPr2s6hZvk+CSuteuPp8YRrqVisCAwEAAaOBojCBnzAJ
BgNVHRMEAjAAMB0GA1UdDgQWBBS1IYLY7RxIShFI/2gPVJmg+nSlIjBRBgNVHSME
SjBIgBSLtnJxqd9p0yrkQy2xXVCMfKOjQKEapBgwFjEUMBIGA1UEAwwLdGVhbTM5
NS1uZXSCFGqySWMuzAkI+xl4+RtA6kDv6bwsMBMGA1UdJQQMMAoGCCsGAQUFBwMC
MAsGA1UdDwQEAwIHgDANBgkqhkiG9w0BAQsFAAOCAQEAlw9qVTHxDEyO+FvhWAKN
8JHO/CZ2R5B+vP+3FSX8irS01LvPA1ErypAftGdm2spJ7QM28ntMuWdb3sK3pSuT
felKPNIaK6cnCM+zH6eCIfT7ofPGD23aGhkP6SPW71vAuZNVlYhWXfNiFl57+ZKL
sok8eZZx5Q3e+sZ0VsONsYY5p2foiugFKmqyIiEzTbw0SO+1anXQzQ8pBpB9bJeV
wpW57oKN5fY23FWASyX6ZunZXTmyKiNlDTYiL/HsBJIAbEnW8CJERHwAeBnqn59U
l+x5MUSCjTLHocJ475egWZPFWtOrJa8xaNnvzSqjW7hlPhFf18zP+7PMxDE9sVsg
Qg==
-----END CERTIFICATE-----
