Certificate:
    Data:
        Version: 3 (0x2)
        Serial Number:
            0e:e5:b4:1a:57:e7:86:38:68:bf:31:2b:a5:66:2b:45
        Signature Algorithm: sha256WithRSAEncryption
        Issuer: CN=team193-net
        Validity
            Not Before: Nov  3 20:42:47 2023 GMT
            Not After : Oct 18 20:42:47 2026 GMT
        Subject: CN=team193-server
        Subject Public Key Info:
            Public Key Algorithm: rsaEncryption
                Public-Key: (2048 bit)
                Modulus:
                    00:93:13:ca:42:57:c3:40:28:b5:11:4c:4e:fe:a7:
                    bd:9e:4d:a9:6d:d1:be:34:a4:d2:cb:8d:6c:02:d4:
                    4a:47:7a:6d:3e:7e:06:48:5d:57:ab:df:ab:0e:93:
                    f1:02:c9:e3:db:e7:8d:c0:99:9b:11:06:b3:c2:8f:
                    47:76:63:25:b3:3a:fc:6b:f4:de:c7:b0:5c:1a:0a:
                    8c:a0:92:40:a2:e7:92:63:b5:74:27:b1:da:37:7b:
                    2b:e0:ed:4e:2c:69:74:00:b6:72:5c:da:88:be:c7:
                    df:85:8a:0b:ce:0f:e6:89:4c:af:b0:3a:e7:fa:8a:
                    e8:6c:1e:e8:f6:0a:1b:fc:2a:94:bc:1b:f5:e2:b2:
                    dd:78:b2:7f:2e:6f:64:43:58:53:b8:25:93:c8:4b:
                    6d:4c:ee:fb:a2:99:b7:b8:f8:f6:23:da:11:4f:c1:
                    e7:04:0d:6c:5e:47:20:b5:23:56:89:ab:38:02:21:
                    57:26:67:e2:69:1e:d3:57:b1:8e:f9:7d:61:13:43:
                    05:2f:54:ad:2f:30:8f:9a:b0:e1:41:db:64:d4:9a:
                    2b:18:c4:00:b9:c4:e4:47:97:df:5a:05:75:10:f8:
                    4e:17:59:06:c2:bb:a5:e8:23:10:2f:a9:15:59:f2:
                    f9:51:53:90:2e:54:69:2c:53:06:c7:71:e3:b7:c3:
                    20:41
                Exponent: 65537 (0x10001)
        X509v3 extensions:
            X509v3 Basic Constraints: 
                CA:FALSE
            X509v3 Subject Key Identifier: 
                1F:9F:57:3D:26:D8:12:C2:62:1C:85:AC:5A:A0:3B:CE:18:BD:4D:F9
            X509v3 Authority Key Identifier: 
                keyid:EC:59:CB:6E:49:BB:A9:A5:05:FC:E7:EF:CA:32:B3:9C:70:74:6A:91
                DirName:/CN=team193-net
                serial:22:A7:50:69:FB:E0:9D:9B:54:18:03:59:2D:F5:1D:CA:23:F4:0F:9D
            X509v3 Extended Key Usage: 
                TLS Web Server Authentication
            X509v3 Key Usage: 
                Digital Signature, Key Encipherment
            X509v3 Subject Alternative Name: 
                DNS:team193-server
    Signature Algorithm: sha256WithRSAEncryption
    Signature Value:
        88:53:ca:31:00:24:55:50:20:ea:99:b9:cf:71:c6:d4:8d:ca:
        fd:82:a9:ce:4c:20:8e:4b:16:05:9e:db:92:fd:67:9b:70:f6:
        e2:22:2e:51:d6:aa:2a:e6:92:1d:84:49:75:39:f4:10:0e:da:
        6d:a7:4b:22:cd:58:fb:a8:b4:a2:cd:80:ad:bd:09:71:f4:8a:
        21:8a:f2:51:c2:32:2a:df:5c:c0:d9:d1:ca:d4:7a:d4:61:09:
        29:01:ef:9b:65:cb:68:b1:f7:40:a2:ba:0f:3c:09:86:ce:0f:
        f1:d6:7b:c2:bf:c4:7b:b0:f8:d4:bf:c1:fc:23:90:8d:e8:71:
        5b:d4:37:05:51:d8:8d:9e:c0:13:35:f1:75:91:a4:9f:5b:cb:
        28:fb:8e:f9:99:cc:40:be:fa:5f:48:af:b9:a6:47:11:2b:b5:
        0d:74:3c:03:a1:29:f0:da:00:a2:fc:73:fb:20:41:a0:a8:92:
        9a:e4:16:92:bc:42:55:c0:3c:05:74:6a:6f:b8:01:9d:26:a3:
        aa:99:84:6f:b5:93:60:1d:98:74:a6:7d:d4:d1:1a:d1:0b:cf:
        25:66:5e:d0:e6:2d:79:4e:69:75:9a:49:d7:9b:bb:4f:4f:34:
        c9:b8:2f:a9:9c:5d:d9:24:2c:2b:06:26:d5:9f:91:4d:ea:85:
        2f:7e:f6:ab
-----BEGIN CERTIFICATE-----
MIIDdzCCAl+gAwIBAgIQDuW0GlfnhjhovzErpWYrRTANBgkqhkiG9w0BAQsFADAW
MRQwEgYDVQQDDAt0ZWFtMTkzLW5ldDAeFw0yMzExMDMyMDQyNDdaFw0yNjEwMTgy
MDQyNDdaMBkxFzAVBgNVBAMMDnRlYW0xOTMtc2VydmVyMIIBIjANBgkqhkiG9w0B
AQEFAAOCAQ8AMIIBCgKCAQEAkxPKQlfDQCi1EUxO/qe9nk2pbdG+NKTSy41sAtRK
R3ptPn4GSF1Xq9+rDpPxAsnj2+eNwJmbEQazwo9HdmMlszr8a/Tex7BcGgqMoJJA
oueSY7V0J7HaN3sr4O1OLGl0ALZyXNqIvsffhYoLzg/miUyvsDrn+orobB7o9gob
/CqUvBv14rLdeLJ/Lm9kQ1hTuCWTyEttTO77opm3uPj2I9oRT8HnBA1sXkcgtSNW
ias4AiFXJmfiaR7TV7GO+X1hE0MFL1StLzCPmrDhQdtk1JorGMQAucTkR5ffWgV1
EPhOF1kGwrul6CMQL6kVWfL5UVOQLlRpLFMGx3Hjt8MgQQIDAQABo4G9MIG6MAkG
A1UdEwQCMAAwHQYDVR0OBBYEFB+fVz0m2BLCYhyFrFqgO84YvU35MFEGA1UdIwRK
MEiAFOxZy25Ju6mlBfzn78oys5xwdGqRoRqkGDAWMRQwEgYDVQQDDAt0ZWFtMTkz
LW5ldIIUIqdQafvgnZtUGANZLfUdyiP0D50wEwYDVR0lBAwwCgYIKwYBBQUHAwEw
CwYDVR0PBAQDAgWgMBkGA1UdEQQSMBCCDnRlYW0xOTMtc2VydmVyMA0GCSqGSIb3
DQEBCwUAA4IBAQCIU8oxACRVUCDqmbnPccbUjcr9gqnOTCCOSxYFntuS/WebcPbi
Ii5R1qoq5pIdhEl1OfQQDtptp0sizVj7qLSizYCtvQlx9IohivJRwjIq31zA2dHK
1HrUYQkpAe+bZctosfdAoroPPAmGzg/x1nvCv8R7sPjUv8H8I5CN6HFb1DcFUdiN
nsATNfF1kaSfW8so+475mcxAvvpfSK+5pkcRK7UNdDwDoSnw2gCi/HP7IEGgqJKa
5BaSvEJVwDwFdGpvuAGdJqOqmYRvtZNgHZh0pn3U0RrRC88lZl7Q5i15Tml1mknX
m7tPTzTJuC+pnF3ZJCwrBibVn5FN6oUvfvar
-----END CERTIFICATE-----
