Certificate:
    Data:
        Version: 3 (0x2)
        Serial Number:
            28:3d:28:8a:65:23:d4:33:1f:63:34:18:8e:fb:05:df
        Signature Algorithm: sha256WithRSAEncryption
        Issuer: CN=team193-net
        Validity
            Not Before: Nov  4 11:31:26 2023 GMT
            Not After : Oct 19 11:31:26 2026 GMT
        Subject: CN=team193-server
        Subject Public Key Info:
            Public Key Algorithm: rsaEncryption
                Public-Key: (2048 bit)
                Modulus:
                    00:b1:00:2f:8b:1f:81:d1:3f:84:23:35:c9:75:4c:
                    99:98:7f:fe:7f:81:bb:cb:86:e9:df:c9:e2:17:1a:
                    62:7b:28:ba:2f:01:1d:9b:92:3f:30:27:46:5e:a9:
                    b0:c7:a5:e6:de:28:42:49:d5:70:a2:7b:7f:7f:7d:
                    ff:d6:79:5a:0f:03:11:f0:9b:f4:96:fb:4f:d8:a5:
                    f7:af:f0:f0:4a:82:8d:e8:45:fd:74:74:37:42:a1:
                    44:d4:e3:cf:55:17:10:48:8e:f6:f1:5a:60:56:0b:
                    73:d8:01:9b:e1:a7:19:44:dc:98:2e:e8:9f:c1:18:
                    dc:aa:62:51:60:b1:73:7f:83:eb:3b:1c:c0:f2:52:
                    7d:da:8f:55:ea:9c:92:49:1b:38:39:1e:7a:3e:fe:
                    fd:dc:72:ca:db:a5:ef:36:2c:d3:bc:6f:74:fe:e8:
                    a7:4a:ff:ef:f5:0e:bb:19:45:e8:93:a3:02:2b:aa:
                    f5:ab:a2:08:78:6f:f1:0a:67:03:fb:5b:04:9c:f7:
                    0d:87:c6:25:2c:53:13:c7:5f:4a:ff:bd:79:35:63:
                    1d:bd:e2:6c:eb:a0:f1:40:2f:05:26:4e:18:15:94:
                    64:f9:f0:ff:10:cf:cd:eb:1e:a8:af:6c:95:ee:62:
                    cd:82:7a:a9:6d:59:b2:b5:ab:bb:01:8f:6d:ea:d1:
                    e7:83
                Exponent: 65537 (0x10001)
        X509v3 extensions:
            X509v3 Basic Constraints: 
                CA:FALSE
            X509v3 Subject Key Identifier: 
                10:E3:D4:B1:6A:04:CC:18:70:4D:0A:C3:93:B2:C8:2C:6E:CD:E8:99
            X509v3 Authority Key Identifier: 
                keyid:96:F7:FE:E8:AB:27:4B:B8:16:2B:8E:05:B4:2B:A5:68:AF:B2:19:7F
                DirName:/CN=team193-net
                serial:26:96:4E:F1:D0:5C:2D:3E:68:FB:65:52:B9:E0:AC:58:75:16:26:F6
            X509v3 Extended Key Usage: 
                TLS Web Server Authentication
            X509v3 Key Usage: 
                Digital Signature, Key Encipherment
            X509v3 Subject Alternative Name: 
                DNS:team193-server
    Signature Algorithm: sha256WithRSAEncryption
    Signature Value:
        5d:24:fb:f2:d9:77:1c:44:31:04:7d:c0:7e:80:00:b9:7a:07:
        8e:68:af:08:74:5e:7c:c9:b2:75:34:c6:7f:38:87:07:b1:ac:
        83:cf:74:fa:19:a4:ca:98:7a:9a:d5:69:cd:75:34:d6:c7:2d:
        e9:08:82:ac:a1:97:62:63:f9:27:15:60:84:c8:66:a7:01:27:
        28:41:04:d1:e1:d5:2d:3b:21:28:7d:2f:d7:ab:d5:d1:ba:3c:
        f0:76:aa:37:a3:43:0b:84:05:fd:de:c5:30:40:0a:40:94:1e:
        3b:29:f7:fd:14:b1:be:a9:ec:40:11:e9:81:30:83:cb:6d:ca:
        d3:47:d6:8f:f3:c1:fb:29:8e:01:27:76:58:db:e1:90:17:28:
        24:41:a5:fb:ad:36:75:16:af:34:04:a5:c1:29:33:6e:ae:63:
        c0:0d:35:a1:90:ab:0e:a9:0a:a5:c8:b8:4f:01:1f:b9:72:e4:
        6e:24:28:06:52:36:6a:8a:04:41:51:60:4c:fd:c0:1e:62:e2:
        39:57:2d:94:c8:09:54:a3:68:0c:c1:6d:12:34:a2:c9:21:f3:
        0b:62:bf:d4:22:9f:4c:48:63:9b:53:9d:ec:0e:48:5e:76:d8:
        a1:f5:c3:91:f7:88:c1:25:f3:96:d4:5c:1f:9d:01:d3:ed:a3:
        fb:05:37:b6
-----BEGIN CERTIFICATE-----
MIIDdzCCAl+gAwIBAgIQKD0oimUj1DMfYzQYjvsF3zANBgkqhkiG9w0BAQsFADAW
MRQwEgYDVQQDDAt0ZWFtMTkzLW5ldDAeFw0yMzExMDQxMTMxMjZaFw0yNjEwMTkx
MTMxMjZaMBkxFzAVBgNVBAMMDnRlYW0xOTMtc2VydmVyMIIBIjANBgkqhkiG9w0B
AQEFAAOCAQ8AMIIBCgKCAQEAsQAvix+B0T+EIzXJdUyZmH/+f4G7y4bp38niFxpi
eyi6LwEdm5I/MCdGXqmwx6Xm3ihCSdVwont/f33/1nlaDwMR8Jv0lvtP2KX3r/Dw
SoKN6EX9dHQ3QqFE1OPPVRcQSI728VpgVgtz2AGb4acZRNyYLuifwRjcqmJRYLFz
f4PrOxzA8lJ92o9V6pySSRs4OR56Pv793HLK26XvNizTvG90/uinSv/v9Q67GUXo
k6MCK6r1q6IIeG/xCmcD+1sEnPcNh8YlLFMTx19K/715NWMdveJs66DxQC8FJk4Y
FZRk+fD/EM/N6x6or2yV7mLNgnqpbVmytau7AY9t6tHngwIDAQABo4G9MIG6MAkG
A1UdEwQCMAAwHQYDVR0OBBYEFBDj1LFqBMwYcE0Kw5OyyCxuzeiZMFEGA1UdIwRK
MEiAFJb3/uirJ0u4FiuOBbQrpWivshl/oRqkGDAWMRQwEgYDVQQDDAt0ZWFtMTkz
LW5ldIIUJpZO8dBcLT5o+2VSueCsWHUWJvYwEwYDVR0lBAwwCgYIKwYBBQUHAwEw
CwYDVR0PBAQDAgWgMBkGA1UdEQQSMBCCDnRlYW0xOTMtc2VydmVyMA0GCSqGSIb3
DQEBCwUAA4IBAQBdJPvy2XccRDEEfcB+gAC5egeOaK8IdF58ybJ1NMZ/OIcHsayD
z3T6GaTKmHqa1WnNdTTWxy3pCIKsoZdiY/knFWCEyGanAScoQQTR4dUtOyEofS/X
q9XRujzwdqo3o0MLhAX93sUwQApAlB47Kff9FLG+qexAEemBMIPLbcrTR9aP88H7
KY4BJ3ZY2+GQFygkQaX7rTZ1Fq80BKXBKTNurmPADTWhkKsOqQqlyLhPAR+5cuRu
JCgGUjZqigRBUWBM/cAeYuI5Vy2UyAlUo2gMwW0SNKLJIfMLYr/UIp9MSGObU53s
Dkhedtih9cOR94jBJfOW1FwfnQHT7aP7BTe2
-----END CERTIFICATE-----
