Certificate:
    Data:
        Version: 3 (0x2)
        Serial Number:
            52:70:34:27:c7:f7:35:36:f4:e4:91:df:72:e0:b7:83
        Signature Algorithm: sha256WithRSAEncryption
        Issuer: CN=team193-net
        Validity
            Not Before: Nov  3 20:42:46 2023 GMT
            Not After : Oct 18 20:42:46 2026 GMT
        Subject: CN=team193-client
        Subject Public Key Info:
            Public Key Algorithm: rsaEncryption
                Public-Key: (2048 bit)
                Modulus:
                    00:f5:93:15:9a:c1:56:6d:a3:b6:1f:98:01:9c:6b:
                    9c:0c:e5:83:51:ab:6f:c1:db:e6:63:46:4d:f3:0c:
                    cc:10:4a:78:94:0b:c3:19:96:4f:58:49:df:22:b3:
                    28:ad:c3:6e:fb:6e:32:bb:10:40:5e:90:4a:c8:14:
                    0f:5f:70:ef:4f:67:23:29:67:a8:e5:f6:d5:df:d1:
                    48:6b:d1:68:3a:12:bb:80:7e:cd:3c:57:92:4c:29:
                    d0:e2:84:6f:5a:92:d9:a2:b2:81:14:24:01:ce:40:
                    6b:64:28:01:9b:b0:3c:d6:50:8c:e3:6d:c6:a3:8c:
                    de:07:fe:c9:d6:a3:05:60:2b:df:8d:c4:b4:90:ae:
                    d8:5f:4c:e4:aa:fe:b0:78:56:86:b8:42:75:82:1d:
                    71:ea:63:4e:b8:33:4d:e7:55:af:ab:da:f4:49:77:
                    08:56:fa:f2:0c:da:d9:b0:77:15:d9:cd:fa:ea:0f:
                    c1:1f:50:a5:28:27:bc:e4:58:f1:e2:c8:e3:d3:d9:
                    b0:7e:a5:bf:78:b8:da:36:e1:d3:c6:24:d5:19:04:
                    04:8d:35:76:95:10:39:c8:24:d0:36:8e:b3:c5:03:
                    b3:32:d5:63:cc:0f:ba:cf:ba:0b:bd:03:57:2e:3d:
                    48:50:3d:5d:c3:53:07:60:7b:76:61:97:27:5d:9c:
                    1b:47
                Exponent: 65537 (0x10001)
        X509v3 extensions:
            X509v3 Basic Constraints: 
                CA:FALSE
            X509v3 Subject Key Identifier: 
                4F:36:F1:93:FE:59:F5:43:7F:FA:76:77:0C:7D:C7:DC:6B:C3:DF:C7
            X509v3 Authority Key Identifier: 
                keyid:EC:59:CB:6E:49:BB:A9:A5:05:FC:E7:EF:CA:32:B3:9C:70:74:6A:91
                DirName:/CN=team193-net
                serial:22:A7:50:69:FB:E0:9D:9B:54:18:03:59:2D:F5:1D:CA:23:F4:0F:9D
            X509v3 Extended Key Usage: 
                TLS Web Client Authentication
            X509v3 Key Usage: 
                Digital Signature
    Signature Algorithm: sha256WithRSAEncryption
    Signature Value:
        65:25:e0:9e:3d:24:89:6a:09:5b:10:bf:71:98:f8:87:cc:6e:
        a2:d7:78:a6:62:7d:af:3a:42:8d:00:f9:66:ed:5c:af:0e:b1:
        60:9f:ea:14:6f:46:1b:a3:66:11:7d:24:79:df:82:ef:2a:69:
        af:9f:86:9b:20:4e:5b:c1:27:cf:cc:87:3f:6e:2d:31:c2:09:
        ab:b7:c2:5c:a1:10:a0:96:34:20:c3:b5:ed:ca:37:74:45:20:
        6e:96:ca:34:88:cf:42:16:bf:39:d2:31:0f:fb:a4:06:6f:4f:
        24:f1:ba:4c:96:1f:fc:d6:26:36:1b:30:99:45:c4:76:9e:9b:
        ac:45:fa:8c:13:8e:79:7a:8e:10:df:46:19:7a:a6:cd:96:da:
        9f:09:78:c9:35:e1:6e:98:59:b5:bc:dc:05:9a:7b:95:5e:9c:
        dc:3b:c9:ab:2a:27:3b:e2:b7:f7:79:4e:ba:52:bb:04:f7:9b:
        31:3e:95:b5:41:d5:5a:ad:0f:58:18:7b:11:33:89:89:71:1b:
        1a:1a:67:f4:98:6e:ca:2e:b8:5f:c6:dc:2c:bc:cb:3b:1d:12:
        9d:a1:9c:a1:f4:53:00:d5:ec:ed:69:b9:c1:54:0f:7e:a8:d9:
        d8:81:cf:9b:31:02:09:02:86:27:fd:ed:3e:29:84:7c:4e:3f:
        88:07:d0:eb
-----BEGIN CERTIFICATE-----
MIIDXDCCAkSgAwIBAgIQUnA0J8f3NTb05JHfcuC3gzANBgkqhkiG9w0BAQsFADAW
MRQwEgYDVQQDDAt0ZWFtMTkzLW5ldDAeFw0yMzExMDMyMDQyNDZaFw0yNjEwMTgy
MDQyNDZaMBkxFzAVBgNVBAMMDnRlYW0xOTMtY2xpZW50MIIBIjANBgkqhkiG9w0B
AQEFAAOCAQ8AMIIBCgKCAQEA9ZMVmsFWbaO2H5gBnGucDOWDUatvwdvmY0ZN8wzM
EEp4lAvDGZZPWEnfIrMorcNu+24yuxBAXpBKyBQPX3DvT2cjKWeo5fbV39FIa9Fo
OhK7gH7NPFeSTCnQ4oRvWpLZorKBFCQBzkBrZCgBm7A81lCM423Go4zeB/7J1qMF
YCvfjcS0kK7YX0zkqv6weFaGuEJ1gh1x6mNOuDNN51Wvq9r0SXcIVvryDNrZsHcV
2c366g/BH1ClKCe85Fjx4sjj09mwfqW/eLjaNuHTxiTVGQQEjTV2lRA5yCTQNo6z
xQOzMtVjzA+6z7oLvQNXLj1IUD1dw1MHYHt2YZcnXZwbRwIDAQABo4GiMIGfMAkG
A1UdEwQCMAAwHQYDVR0OBBYEFE828ZP+WfVDf/p2dwx9x9xrw9/HMFEGA1UdIwRK
MEiAFOxZy25Ju6mlBfzn78oys5xwdGqRoRqkGDAWMRQwEgYDVQQDDAt0ZWFtMTkz
LW5ldIIUIqdQafvgnZtUGANZLfUdyiP0D50wEwYDVR0lBAwwCgYIKwYBBQUHAwIw
CwYDVR0PBAQDAgeAMA0GCSqGSIb3DQEBCwUAA4IBAQBlJeCePSSJaglbEL9xmPiH
zG6i13imYn2vOkKNAPlm7VyvDrFgn+oUb0Ybo2YRfSR534LvKmmvn4abIE5bwSfP
zIc/bi0xwgmrt8JcoRCgljQgw7Xtyjd0RSBulso0iM9CFr850jEP+6QGb08k8bpM
lh/81iY2GzCZRcR2npusRfqME455eo4Q30YZeqbNltqfCXjJNeFumFm1vNwFmnuV
XpzcO8mrKic74rf3eU66UrsE95sxPpW1QdVarQ9YGHsRM4mJcRsaGmf0mG7KLrhf
xtwsvMs7HRKdoZyh9FMA1eztabnBVA9+qNnYgc+bMQIJAoYn/e0+KYR8Tj+IB9Dr
-----END CERTIFICATE-----
