Certificate:
    Data:
        Version: 3 (0x2)
        Serial Number:
            c1:ec:56:50:95:fb:16:60:17:32:a9:2f:04:2a:d4:0c
        Signature Algorithm: sha256WithRSAEncryption
        Issuer: CN=team193-net
        Validity
            Not Before: Nov  4 10:44:09 2023 GMT
            Not After : Oct 19 10:44:09 2026 GMT
        Subject: CN=team193-server
        Subject Public Key Info:
            Public Key Algorithm: rsaEncryption
                Public-Key: (2048 bit)
                Modulus:
                    00:95:25:d1:98:9f:fc:be:23:cc:b4:05:1b:87:88:
                    53:cb:40:20:d9:8a:69:0d:65:77:f9:fb:d4:33:63:
                    72:b1:26:57:94:f2:d7:e2:d2:43:2d:4b:ab:aa:cf:
                    28:8e:8b:76:3b:8b:88:b2:85:d4:61:20:40:61:56:
                    fd:57:0a:e0:f4:07:80:ca:70:c9:2b:78:c8:09:b6:
                    ff:f1:e4:ae:87:76:8a:35:d4:81:51:b8:0e:84:24:
                    0d:8c:b5:64:0a:2e:9f:95:58:92:09:fd:0f:9f:72:
                    9b:86:ec:29:e4:98:6d:21:71:f8:46:d3:7d:bf:c1:
                    27:08:06:45:a0:16:f1:f3:70:bb:00:64:38:3b:89:
                    cf:f0:e9:a9:e4:b3:50:03:96:f6:b0:39:07:91:7e:
                    c7:b5:88:14:7a:15:d0:b9:33:20:27:c4:2f:7e:ce:
                    b1:a6:b9:53:b4:e6:1e:cf:36:07:d9:ed:62:2e:e5:
                    ba:31:e9:87:7d:56:4d:8a:ec:45:1d:8d:a2:70:f2:
                    cc:24:97:ff:94:af:b0:1f:3e:67:e9:c8:91:22:2a:
                    cd:3d:d0:9c:f5:74:f3:82:e0:ff:82:93:19:1d:79:
                    0d:8b:1c:74:75:e8:5a:1d:a8:7b:26:4a:73:5a:e4:
                    55:85:2a:09:6d:59:6f:8b:11:b6:77:33:4e:4f:95:
                    d2:f5
                Exponent: 65537 (0x10001)
        X509v3 extensions:
            X509v3 Basic Constraints: 
                CA:FALSE
            X509v3 Subject Key Identifier: 
                80:98:78:45:18:C4:23:A1:BF:F8:06:7A:2D:9A:70:9C:45:C1:1A:61
            X509v3 Authority Key Identifier: 
                keyid:9E:F5:4E:62:F1:99:C0:46:60:C8:6E:43:65:73:4C:43:45:83:2E:C3
                DirName:/CN=team193-net
                serial:3C:B1:AC:FF:A2:B0:F2:2D:57:2B:C3:53:19:C3:91:05:AF:50:28:1A
            X509v3 Extended Key Usage: 
                TLS Web Server Authentication
            X509v3 Key Usage: 
                Digital Signature, Key Encipherment
            X509v3 Subject Alternative Name: 
                DNS:team193-server
    Signature Algorithm: sha256WithRSAEncryption
    Signature Value:
        34:af:ee:bc:27:b1:8a:77:30:25:bc:17:a5:21:2a:40:14:f2:
        17:05:41:f1:96:e6:82:e4:44:82:0a:d0:d9:b7:dd:94:b2:7c:
        a6:6e:45:2b:79:b9:73:b3:0c:88:c5:e2:be:92:f4:1b:6a:9a:
        22:65:a0:91:2c:6f:78:ca:7f:b2:ea:d3:f1:15:49:fe:48:ed:
        e1:1d:57:a4:2d:53:30:ea:38:35:e2:22:e8:6a:d7:c3:62:1e:
        44:86:41:20:33:da:ba:e5:5e:80:d8:fb:9a:ba:73:df:0e:b0:
        42:f6:51:16:e2:9d:c5:4e:01:69:81:4a:52:c4:ad:10:c7:46:
        5f:6c:b6:99:a3:a7:89:93:0b:68:21:6d:17:4a:ac:22:ea:2d:
        2a:15:3a:aa:89:a6:05:c6:59:46:89:70:2b:3d:3e:c0:6a:23:
        61:94:96:ec:9c:5d:cb:dd:7f:a9:ac:37:f8:02:13:97:20:b9:
        32:ef:64:55:95:6f:aa:18:e3:a9:e0:28:40:d9:c3:66:c2:a8:
        25:6c:7d:cb:ec:25:28:25:9b:2c:01:c6:76:a1:7f:0d:b3:0f:
        1d:14:c4:c9:01:61:cc:f1:a4:a5:97:e1:81:96:0b:d9:1a:f8:
        45:1c:52:7a:82:28:f1:9f:43:d5:54:3c:0c:e4:36:4e:d1:40:
        6b:b3:42:b8
-----BEGIN CERTIFICATE-----
MIIDeDCCAmCgAwIBAgIRAMHsVlCV+xZgFzKpLwQq1AwwDQYJKoZIhvcNAQELBQAw
FjEUMBIGA1UEAwwLdGVhbTE5My1uZXQwHhcNMjMxMTA0MTA0NDA5WhcNMjYxMDE5
MTA0NDA5WjAZMRcwFQYDVQQDDA50ZWFtMTkzLXNlcnZlcjCCASIwDQYJKoZIhvcN
AQEBBQADggEPADCCAQoCggEBAJUl0Zif/L4jzLQFG4eIU8tAINmKaQ1ld/n71DNj
crEmV5Ty1+LSQy1Lq6rPKI6LdjuLiLKF1GEgQGFW/VcK4PQHgMpwySt4yAm2//Hk
rod2ijXUgVG4DoQkDYy1ZAoun5VYkgn9D59ym4bsKeSYbSFx+EbTfb/BJwgGRaAW
8fNwuwBkODuJz/DpqeSzUAOW9rA5B5F+x7WIFHoV0LkzICfEL37Osaa5U7TmHs82
B9ntYi7lujHph31WTYrsRR2NonDyzCSX/5SvsB8+Z+nIkSIqzT3QnPV084Lg/4KT
GR15DYscdHXoWh2oeyZKc1rkVYUqCW1Zb4sRtnczTk+V0vUCAwEAAaOBvTCBujAJ
BgNVHRMEAjAAMB0GA1UdDgQWBBSAmHhFGMQjob/4BnotmnCcRcEaYTBRBgNVHSME
SjBIgBSe9U5i8ZnARmDIbkNlc0xDRYMuw6EapBgwFjEUMBIGA1UEAwwLdGVhbTE5
My1uZXSCFDyxrP+isPItVyvDUxnDkQWvUCgaMBMGA1UdJQQMMAoGCCsGAQUFBwMB
MAsGA1UdDwQEAwIFoDAZBgNVHREEEjAQgg50ZWFtMTkzLXNlcnZlcjANBgkqhkiG
9w0BAQsFAAOCAQEANK/uvCexincwJbwXpSEqQBTyFwVB8ZbmguREggrQ2bfdlLJ8
pm5FK3m5c7MMiMXivpL0G2qaImWgkSxveMp/surT8RVJ/kjt4R1XpC1TMOo4NeIi
6GrXw2IeRIZBIDPauuVegNj7mrpz3w6wQvZRFuKdxU4BaYFKUsStEMdGX2y2maOn
iZMLaCFtF0qsIuotKhU6qommBcZZRolwKz0+wGojYZSW7Jxdy91/qaw3+AITlyC5
Mu9kVZVvqhjjqeAoQNnDZsKoJWx9y+wlKCWbLAHGdqF/DbMPHRTEyQFhzPGkpZfh
gZYL2Rr4RRxSeoIo8Z9D1VQ8DOQ2TtFAa7NCuA==
-----END CERTIFICATE-----
