Certificate:
    Data:
        Version: 3 (0x2)
        Serial Number:
            c7:1a:16:ae:34:c2:82:df:cd:31:88:c6:cb:34:d8:f4
        Signature Algorithm: sha256WithRSAEncryption
        Issuer: CN=team193-net
        Validity
            Not Before: Nov  4 10:44:09 2023 GMT
            Not After : Oct 19 10:44:09 2026 GMT
        Subject: CN=team193-client
        Subject Public Key Info:
            Public Key Algorithm: rsaEncryption
                Public-Key: (2048 bit)
                Modulus:
                    00:c4:8b:28:92:58:cf:42:e2:d3:f9:6b:08:e3:b3:
                    f9:ba:7b:54:8c:8b:f5:75:df:c0:a1:aa:8a:54:09:
                    85:3b:b1:3e:79:69:39:0e:df:83:dd:a6:53:79:22:
                    1d:4f:ad:7d:96:3e:7c:be:fb:be:7d:2d:30:9a:48:
                    22:83:08:47:22:53:e3:72:a2:fa:36:be:5d:14:48:
                    47:71:e9:35:8e:07:45:16:f4:09:1c:e6:53:11:d0:
                    01:23:13:9f:e6:c0:be:b4:8b:a6:d2:01:a1:61:e8:
                    a8:a5:dd:e7:d9:0b:c0:f7:82:82:8a:c8:a8:5b:77:
                    fa:26:e5:b0:01:aa:f6:ae:9e:b8:ea:0f:f1:dc:f6:
                    8b:00:c6:86:e5:be:83:80:a7:85:cb:74:27:e3:76:
                    b9:81:5a:95:f1:f3:c7:07:fe:77:ab:f7:97:c4:28:
                    aa:55:13:e0:79:ed:25:c2:81:bb:31:6a:e1:c2:41:
                    23:93:25:4b:57:32:75:b1:1f:b5:93:c1:4f:5a:ec:
                    cb:18:9c:42:2d:65:37:3a:4f:5b:e5:c7:7d:92:43:
                    ae:6b:16:c1:e2:72:bd:45:84:be:a4:1e:0f:07:0f:
                    6a:94:2b:c6:f6:82:2b:91:1c:9d:b4:26:b9:41:e6:
                    ce:85:bb:ea:07:2c:f4:ea:c0:e6:af:cd:2c:06:74:
                    4f:77
                Exponent: 65537 (0x10001)
        X509v3 extensions:
            X509v3 Basic Constraints: 
                CA:FALSE
            X509v3 Subject Key Identifier: 
                EF:5B:70:2B:80:D6:0A:98:38:EB:61:2D:44:4B:6B:C6:66:40:A9:90
            X509v3 Authority Key Identifier: 
                keyid:9E:F5:4E:62:F1:99:C0:46:60:C8:6E:43:65:73:4C:43:45:83:2E:C3
                DirName:/CN=team193-net
                serial:3C:B1:AC:FF:A2:B0:F2:2D:57:2B:C3:53:19:C3:91:05:AF:50:28:1A
            X509v3 Extended Key Usage: 
                TLS Web Client Authentication
            X509v3 Key Usage: 
                Digital Signature
    Signature Algorithm: sha256WithRSAEncryption
    Signature Value:
        30:cf:fe:d4:87:07:3f:e5:42:a1:b3:d2:fe:25:30:76:a3:ff:
        b5:e3:6f:b8:ca:e6:8e:8b:67:b3:a6:26:61:ba:86:12:91:3c:
        20:f7:cc:f2:6f:5c:03:67:58:94:f2:7f:0a:a5:e4:33:03:4a:
        fd:75:ae:42:21:9a:41:3c:23:36:f8:20:1b:36:80:dd:e7:87:
        7b:05:1d:df:8d:bf:84:cb:ed:44:1d:e3:5a:d3:84:32:4a:57:
        83:c9:66:81:d7:9b:d5:da:a1:62:ff:59:29:17:0c:80:bf:85:
        c2:81:5f:3d:de:a1:75:fa:b5:8f:e9:1e:8d:b9:16:61:09:51:
        d5:b3:ca:e0:94:9d:bb:bf:fe:65:4d:61:ff:20:b6:8f:dc:3d:
        26:9d:44:08:4b:24:a6:14:d4:2c:3c:55:c8:d4:32:51:94:af:
        f4:25:45:01:cf:a4:a2:17:e4:17:ce:d6:71:c3:78:71:3a:1a:
        73:cb:9c:f6:79:60:3b:f3:90:64:24:39:c9:5a:ab:44:57:42:
        08:ac:14:65:69:ba:f5:35:ae:f2:47:72:db:c3:f8:c6:da:1d:
        4b:ab:d4:ba:49:e3:09:01:67:65:b3:03:f5:e1:59:9e:0b:03:
        6b:74:ab:86:39:9e:43:88:ef:68:47:e1:7c:48:ec:37:a5:62:
        e4:c1:b2:33
-----BEGIN CERTIFICATE-----
MIIDXTCCAkWgAwIBAgIRAMcaFq40woLfzTGIxss02PQwDQYJKoZIhvcNAQELBQAw
FjEUMBIGA1UEAwwLdGVhbTE5My1uZXQwHhcNMjMxMTA0MTA0NDA5WhcNMjYxMDE5
MTA0NDA5WjAZMRcwFQYDVQQDDA50ZWFtMTkzLWNsaWVudDCCASIwDQYJKoZIhvcN
AQEBBQADggEPADCCAQoCggEBAMSLKJJYz0Li0/lrCOOz+bp7VIyL9XXfwKGqilQJ
hTuxPnlpOQ7fg92mU3kiHU+tfZY+fL77vn0tMJpIIoMIRyJT43Ki+ja+XRRIR3Hp
NY4HRRb0CRzmUxHQASMTn+bAvrSLptIBoWHoqKXd59kLwPeCgorIqFt3+iblsAGq
9q6euOoP8dz2iwDGhuW+g4Cnhct0J+N2uYFalfHzxwf+d6v3l8QoqlUT4HntJcKB
uzFq4cJBI5MlS1cydbEftZPBT1rsyxicQi1lNzpPW+XHfZJDrmsWweJyvUWEvqQe
DwcPapQrxvaCK5EcnbQmuUHmzoW76gcs9OrA5q/NLAZ0T3cCAwEAAaOBojCBnzAJ
BgNVHRMEAjAAMB0GA1UdDgQWBBTvW3ArgNYKmDjrYS1ES2vGZkCpkDBRBgNVHSME
SjBIgBSe9U5i8ZnARmDIbkNlc0xDRYMuw6EapBgwFjEUMBIGA1UEAwwLdGVhbTE5
My1uZXSCFDyxrP+isPItVyvDUxnDkQWvUCgaMBMGA1UdJQQMMAoGCCsGAQUFBwMC
MAsGA1UdDwQEAwIHgDANBgkqhkiG9w0BAQsFAAOCAQEAMM/+1IcHP+VCobPS/iUw
dqP/teNvuMrmjotns6YmYbqGEpE8IPfM8m9cA2dYlPJ/CqXkMwNK/XWuQiGaQTwj
NvggGzaA3eeHewUd342/hMvtRB3jWtOEMkpXg8lmgdeb1dqhYv9ZKRcMgL+FwoFf
Pd6hdfq1j+kejbkWYQlR1bPK4JSdu7/+ZU1h/yC2j9w9Jp1ECEskphTULDxVyNQy
UZSv9CVFAc+kohfkF87WccN4cToac8uc9nlgO/OQZCQ5yVqrRFdCCKwUZWm69TWu
8kdy28P4xtodS6vUuknjCQFnZbMD9eFZngsDa3SrhjmeQ4jvaEfhfEjsN6Vi5MGy
Mw==
-----END CERTIFICATE-----
