Certificate:
    Data:
        Version: 3 (0x2)
        Serial Number:
            1a:53:d4:38:f5:58:73:86:68:45:31:9a:e5:e0:e8:c8
        Signature Algorithm: sha256WithRSAEncryption
        Issuer: CN=team17-net
        Validity
            Not Before: Nov  4 11:27:41 2023 GMT
            Not After : Oct 19 11:27:41 2026 GMT
        Subject: CN=team17-client
        Subject Public Key Info:
            Public Key Algorithm: rsaEncryption
                Public-Key: (2048 bit)
                Modulus:
                    00:84:29:53:10:7c:4b:be:0f:37:07:bb:ec:43:92:
                    54:9a:e7:5d:34:cc:7e:71:f9:58:fe:85:3a:77:af:
                    76:5c:e5:9f:89:5a:58:6a:02:79:8c:76:15:22:97:
                    aa:08:81:72:70:e4:90:ee:6a:f6:f3:1e:94:ef:23:
                    77:31:e1:86:aa:21:e8:79:7e:7f:6a:d6:d4:4c:cf:
                    25:fb:a7:c6:18:64:4a:66:0b:2b:b5:68:c8:32:5c:
                    28:5b:aa:b7:7d:e9:3f:35:b5:b6:a8:61:1c:69:44:
                    a3:c3:76:cd:99:05:ef:e2:fb:bb:7c:3b:58:3b:5c:
                    20:57:fb:3d:30:d9:98:13:67:a7:1b:04:39:9a:35:
                    b3:f7:cd:24:4e:5e:91:78:b9:21:ce:5d:98:b1:e3:
                    f4:b7:6b:06:99:eb:64:e9:cf:c5:8f:4c:de:2e:21:
                    0e:d1:bd:b0:15:68:3f:48:f6:52:81:3a:a2:24:29:
                    a2:e4:3d:21:9e:35:34:ec:5d:34:c1:42:d1:f3:91:
                    3c:94:0c:91:00:e6:d3:69:70:f8:11:a9:0f:19:6e:
                    4f:1e:00:88:cc:ea:02:09:25:f1:ed:4a:52:2a:5f:
                    c0:ef:68:00:1b:4c:d8:b7:01:b4:f4:1b:1e:f1:37:
                    d5:74:e9:79:e6:74:26:c3:78:5e:c6:c9:3e:e3:6a:
                    69:7d
                Exponent: 65537 (0x10001)
        X509v3 extensions:
            X509v3 Basic Constraints: 
                CA:FALSE
            X509v3 Subject Key Identifier: 
                C3:1F:9D:9C:75:F3:1F:C6:35:0C:FB:B6:CC:B6:B7:EC:B7:6D:CA:2F
            X509v3 Authority Key Identifier: 
                keyid:B1:A0:1B:D5:0F:DE:A7:33:51:E5:9B:8A:94:64:6E:58:6A:7B:DA:4A
                DirName:/CN=team17-net
                serial:05:55:B5:BC:29:86:3B:69:2C:30:CA:15:1D:7F:55:E0:F0:8B:1C:71
            X509v3 Extended Key Usage: 
                TLS Web Client Authentication
            X509v3 Key Usage: 
                Digital Signature
    Signature Algorithm: sha256WithRSAEncryption
    Signature Value:
        31:fb:34:f8:59:5e:8f:7c:86:5b:87:82:89:5c:15:fc:6e:fe:
        a8:59:43:ad:15:45:7d:da:50:10:ae:94:61:f2:5a:45:01:d3:
        2b:ca:7d:1e:88:c6:de:21:0a:1b:02:53:d3:91:67:1e:7f:00:
        73:46:5b:b2:58:f0:32:1b:1d:15:b5:f0:9b:31:70:60:77:e9:
        1b:41:8f:d9:1b:d2:42:e9:cb:c5:4f:fc:65:a1:6d:26:71:22:
        15:a2:ad:02:16:3e:de:5b:4f:b6:ad:e9:43:b1:77:7a:04:6f:
        44:44:65:e3:da:f7:8a:b6:96:00:a0:d1:45:17:45:99:00:33:
        ff:0f:05:f0:ea:6d:de:13:00:9d:07:ac:bc:f1:d1:8a:c8:3f:
        35:d5:88:bf:1c:54:52:96:23:28:3f:08:6f:8c:48:4f:46:92:
        1e:ce:0e:9a:28:87:a0:46:cc:0d:0b:25:d1:03:43:28:d4:d4:
        d2:51:e3:96:3e:da:30:e3:4c:d8:0d:14:02:22:8b:e8:12:aa:
        10:69:69:9d:36:ff:41:68:85:e4:be:2b:0e:5e:95:ee:17:48:
        29:42:8e:d4:a1:d5:d8:84:6b:9f:e8:c7:ac:1b:f2:bb:f2:b8:
        d7:c9:a0:29:ba:3b:04:9a:f7:ab:2e:a1:af:1c:34:a6:17:04:
        7e:36:12:b7
-----BEGIN CERTIFICATE-----
MIIDWTCCAkGgAwIBAgIQGlPUOPVYc4ZoRTGa5eDoyDANBgkqhkiG9w0BAQsFADAV
MRMwEQYDVQQDDAp0ZWFtMTctbmV0MB4XDTIzMTEwNDExMjc0MVoXDTI2MTAxOTEx
Mjc0MVowGDEWMBQGA1UEAwwNdGVhbTE3LWNsaWVudDCCASIwDQYJKoZIhvcNAQEB
BQADggEPADCCAQoCggEBAIQpUxB8S74PNwe77EOSVJrnXTTMfnH5WP6FOnevdlzl
n4laWGoCeYx2FSKXqgiBcnDkkO5q9vMelO8jdzHhhqoh6Hl+f2rW1EzPJfunxhhk
SmYLK7VoyDJcKFuqt33pPzW1tqhhHGlEo8N2zZkF7+L7u3w7WDtcIFf7PTDZmBNn
pxsEOZo1s/fNJE5ekXi5Ic5dmLHj9LdrBpnrZOnPxY9M3i4hDtG9sBVoP0j2UoE6
oiQpouQ9IZ41NOxdNMFC0fORPJQMkQDm02lw+BGpDxluTx4AiMzqAgkl8e1KUipf
wO9oABtM2LcBtPQbHvE31XTpeeZ0JsN4XsbJPuNqaX0CAwEAAaOBoTCBnjAJBgNV
HRMEAjAAMB0GA1UdDgQWBBTDH52cdfMfxjUM+7bMtrfst23KLzBQBgNVHSMESTBH
gBSxoBvVD96nM1Hlm4qUZG5YanvaSqEZpBcwFTETMBEGA1UEAwwKdGVhbTE3LW5l
dIIUBVW1vCmGO2ksMMoVHX9V4PCLHHEwEwYDVR0lBAwwCgYIKwYBBQUHAwIwCwYD
VR0PBAQDAgeAMA0GCSqGSIb3DQEBCwUAA4IBAQAx+zT4WV6PfIZbh4KJXBX8bv6o
WUOtFUV92lAQrpRh8lpFAdMryn0eiMbeIQobAlPTkWcefwBzRluyWPAyGx0VtfCb
MXBgd+kbQY/ZG9JC6cvFT/xloW0mcSIVoq0CFj7eW0+2relDsXd6BG9ERGXj2veK
tpYAoNFFF0WZADP/DwXw6m3eEwCdB6y88dGKyD811Yi/HFRSliMoPwhvjEhPRpIe
zg6aKIegRswNCyXRA0Mo1NTSUeOWPtow40zYDRQCIovoEqoQaWmdNv9BaIXkvisO
XpXuF0gpQo7UodXYhGuf6MesG/K78rjXyaApujsEmverLqGvHDSmFwR+NhK3
-----END CERTIFICATE-----
