Certificate:
    Data:
        Version: 3 (0x2)
        Serial Number:
            29:13:23:e3:c5:02:6e:f4:85:6a:5a:00:e2:1e:0b:ed
        Signature Algorithm: sha256WithRSAEncryption
        Issuer: CN=team17-net
        Validity
            Not Before: Nov  4 10:40:32 2023 GMT
            Not After : Oct 19 10:40:32 2026 GMT
        Subject: CN=team17-server
        Subject Public Key Info:
            Public Key Algorithm: rsaEncryption
                Public-Key: (2048 bit)
                Modulus:
                    00:df:fb:38:ff:30:c0:a7:11:b1:91:39:07:a7:93:
                    11:34:a0:a2:61:b8:94:78:cf:86:00:4b:f2:95:be:
                    2b:58:9f:65:b7:72:cf:bd:20:bb:a4:83:ba:39:30:
                    37:15:59:f8:f9:0b:d5:f9:68:c2:59:00:c9:c9:ef:
                    4d:4c:14:d5:45:12:43:93:12:69:0b:cc:f8:d8:00:
                    e6:59:83:ac:63:00:18:3b:9d:1e:6f:bf:44:48:2c:
                    c7:53:0c:c5:66:db:d4:ed:e4:f4:ac:a4:bc:10:95:
                    60:1a:5c:b7:66:c9:71:c4:1b:21:37:53:44:eb:a5:
                    c7:36:d9:db:a9:b3:b0:08:cb:6d:d8:37:fa:63:0a:
                    be:62:ce:ea:46:76:d3:a4:40:c6:af:35:24:ca:9f:
                    52:86:c4:6e:69:bc:c3:c0:ce:7b:5b:f8:71:2e:1c:
                    c0:d3:d3:ea:3c:e2:33:1b:59:2f:a1:f0:60:57:7d:
                    86:73:eb:46:74:d8:54:4c:99:0c:25:04:81:21:57:
                    2c:4c:e5:68:4d:7f:15:c8:07:2e:50:ce:6a:84:95:
                    fd:05:83:00:c3:94:dd:1b:1b:b7:c7:58:f1:8f:9f:
                    e2:77:dd:fe:35:2e:95:e7:76:5f:b8:1b:e9:a1:e7:
                    b5:51:19:30:e2:c8:5e:7a:fc:98:79:ad:ff:eb:9a:
                    9e:79
                Exponent: 65537 (0x10001)
        X509v3 extensions:
            X509v3 Basic Constraints: 
                CA:FALSE
            X509v3 Subject Key Identifier: 
                03:47:DE:55:24:0C:34:7D:16:29:C6:AD:CE:1A:43:80:28:41:C3:79
            X509v3 Authority Key Identifier: 
                keyid:1E:83:FE:C6:73:89:DD:E8:4C:CC:9D:15:E9:3F:DE:A9:3D:29:43:89
                DirName:/CN=team17-net
                serial:70:4D:FE:1A:48:01:B7:F8:57:2D:04:8E:7C:8A:68:7D:53:E2:36:D1
            X509v3 Extended Key Usage: 
                TLS Web Server Authentication
            X509v3 Key Usage: 
                Digital Signature, Key Encipherment
            X509v3 Subject Alternative Name: 
                DNS:team17-server
    Signature Algorithm: sha256WithRSAEncryption
    Signature Value:
        79:2e:b5:aa:aa:8e:09:a8:fc:9c:dd:cb:fb:ea:4b:6e:d1:22:
        d7:0b:78:2c:85:b6:20:80:80:50:8b:8d:82:91:f1:0f:f5:b8:
        23:c3:84:2f:b5:ee:9e:a5:a2:7a:33:fc:c5:7f:e2:b5:3f:56:
        59:fb:b1:90:15:00:47:00:9e:3f:e8:1e:97:00:78:01:fb:b2:
        9e:f6:b4:e7:6b:51:3a:54:f4:e3:36:ac:c0:d5:0b:58:f0:9d:
        8f:fd:6b:c7:65:27:02:50:2e:06:09:14:2c:ee:2d:f9:9d:15:
        7f:f2:7f:70:f8:4c:c5:54:25:9f:5c:6c:c8:34:b6:6c:4c:97:
        35:53:0f:8f:e8:eb:6f:c9:cf:b9:f4:e1:63:7e:ff:36:18:88:
        aa:0e:f6:cd:64:2b:c1:dc:85:c2:b2:b7:49:eb:13:4d:72:77:
        e3:ed:47:1b:c9:08:44:0e:3a:1f:fc:68:dc:de:d6:43:5c:b3:
        49:7c:8e:9a:ff:1f:29:07:60:84:ac:d4:68:4a:71:1f:3f:7f:
        70:09:00:98:a6:80:da:0c:ae:18:12:d5:3b:2c:0a:fb:4e:5a:
        16:ec:40:27:0c:71:01:a5:22:70:c0:b5:8b:d9:d2:8b:e4:54:
        f8:61:f3:93:2d:0d:25:71:d3:b0:f8:b8:1f:6a:83:16:d5:3e:
        6f:00:bb:20
-----BEGIN CERTIFICATE-----
MIIDczCCAlugAwIBAgIQKRMj48UCbvSFaloA4h4L7TANBgkqhkiG9w0BAQsFADAV
MRMwEQYDVQQDDAp0ZWFtMTctbmV0MB4XDTIzMTEwNDEwNDAzMloXDTI2MTAxOTEw
NDAzMlowGDEWMBQGA1UEAwwNdGVhbTE3LXNlcnZlcjCCASIwDQYJKoZIhvcNAQEB
BQADggEPADCCAQoCggEBAN/7OP8wwKcRsZE5B6eTETSgomG4lHjPhgBL8pW+K1if
Zbdyz70gu6SDujkwNxVZ+PkL1flowlkAycnvTUwU1UUSQ5MSaQvM+NgA5lmDrGMA
GDudHm+/REgsx1MMxWbb1O3k9KykvBCVYBpct2bJccQbITdTROulxzbZ26mzsAjL
bdg3+mMKvmLO6kZ206RAxq81JMqfUobEbmm8w8DOe1v4cS4cwNPT6jziMxtZL6Hw
YFd9hnPrRnTYVEyZDCUEgSFXLEzlaE1/FcgHLlDOaoSV/QWDAMOU3Rsbt8dY8Y+f
4nfd/jUuled2X7gb6aHntVEZMOLIXnr8mHmt/+uannkCAwEAAaOBuzCBuDAJBgNV
HRMEAjAAMB0GA1UdDgQWBBQDR95VJAw0fRYpxq3OGkOAKEHDeTBQBgNVHSMESTBH
gBQeg/7Gc4nd6EzMnRXpP96pPSlDiaEZpBcwFTETMBEGA1UEAwwKdGVhbTE3LW5l
dIIUcE3+GkgBt/hXLQSOfIpofVPiNtEwEwYDVR0lBAwwCgYIKwYBBQUHAwEwCwYD
VR0PBAQDAgWgMBgGA1UdEQQRMA+CDXRlYW0xNy1zZXJ2ZXIwDQYJKoZIhvcNAQEL
BQADggEBAHkutaqqjgmo/Jzdy/vqS27RItcLeCyFtiCAgFCLjYKR8Q/1uCPDhC+1
7p6lonoz/MV/4rU/Vln7sZAVAEcAnj/oHpcAeAH7sp72tOdrUTpU9OM2rMDVC1jw
nY/9a8dlJwJQLgYJFCzuLfmdFX/yf3D4TMVUJZ9cbMg0tmxMlzVTD4/o62/Jz7n0
4WN+/zYYiKoO9s1kK8HchcKyt0nrE01yd+PtRxvJCEQOOh/8aNze1kNcs0l8jpr/
HykHYISs1GhKcR8/f3AJAJimgNoMrhgS1TssCvtOWhbsQCcMcQGlInDAtYvZ0ovk
VPhh85MtDSVx07D4uB9qgxbVPm8AuyA=
-----END CERTIFICATE-----
