Certificate:
    Data:
        Version: 3 (0x2)
        Serial Number:
            49:b9:a1:2e:7f:5e:a8:53:15:ee:44:ba:1c:06:33:50
        Signature Algorithm: sha256WithRSAEncryption
        Issuer: CN=team17-net
        Validity
            Not Before: Nov  4 11:27:41 2023 GMT
            Not After : Oct 19 11:27:41 2026 GMT
        Subject: CN=team17-server
        Subject Public Key Info:
            Public Key Algorithm: rsaEncryption
                Public-Key: (2048 bit)
                Modulus:
                    00:ac:86:fe:8f:7a:d5:cd:96:94:93:d3:56:0c:37:
                    1e:65:af:8b:47:1d:b9:12:9e:85:d2:06:04:e3:4e:
                    be:ab:9f:c3:ce:7a:ef:39:2f:cb:09:5c:7d:f1:c5:
                    63:05:38:48:6c:44:67:f6:0f:00:ee:f5:87:2d:8d:
                    a5:5c:d5:d4:bf:b9:9d:2c:47:8f:22:f9:6b:32:52:
                    5f:ca:80:82:89:37:64:5b:83:24:45:2f:47:68:e0:
                    46:c9:81:96:5a:b6:07:66:d8:70:de:da:68:82:0c:
                    09:79:f6:fd:74:f7:f8:7d:7b:17:eb:e0:66:95:67:
                    4d:ee:ca:87:8d:10:2a:2b:0c:5d:f3:18:c7:39:6d:
                    37:68:fe:35:3a:bc:09:4b:3b:5c:22:0e:a4:f6:bf:
                    51:ff:2c:72:30:98:aa:a5:20:06:b1:fc:1c:43:9f:
                    95:93:6b:00:8f:46:86:60:40:aa:5e:b1:80:df:63:
                    f7:bc:b3:42:3c:2e:18:7b:bf:25:28:9b:2c:ec:c1:
                    13:d4:32:9c:5a:cd:c1:2f:9b:6c:60:29:5a:16:a8:
                    5a:f8:6d:71:56:44:23:8e:4e:51:e8:b4:ea:6a:6c:
                    fb:bc:f4:6b:04:56:6f:cb:a9:ae:83:f1:b4:de:2f:
                    89:33:7e:3f:5d:68:69:25:ea:da:ba:dc:2b:a5:78:
                    a5:19
                Exponent: 65537 (0x10001)
        X509v3 extensions:
            X509v3 Basic Constraints: 
                CA:FALSE
            X509v3 Subject Key Identifier: 
                01:22:4F:18:6B:F0:8E:E9:FE:75:40:95:9F:92:64:05:49:5A:D7:F2
            X509v3 Authority Key Identifier: 
                keyid:B1:A0:1B:D5:0F:DE:A7:33:51:E5:9B:8A:94:64:6E:58:6A:7B:DA:4A
                DirName:/CN=team17-net
                serial:05:55:B5:BC:29:86:3B:69:2C:30:CA:15:1D:7F:55:E0:F0:8B:1C:71
            X509v3 Extended Key Usage: 
                TLS Web Server Authentication
            X509v3 Key Usage: 
                Digital Signature, Key Encipherment
            X509v3 Subject Alternative Name: 
                DNS:team17-server
    Signature Algorithm: sha256WithRSAEncryption
    Signature Value:
        87:ba:d3:c4:f3:43:8c:5d:d7:f3:a6:85:27:28:ae:ce:11:06:
        35:fb:73:cb:26:74:e7:fa:e7:c4:43:53:e3:18:6d:9d:89:a2:
        c6:e8:67:5c:e9:24:9d:f1:fe:0d:c0:1e:ab:d3:c4:d4:1b:20:
        5f:c3:c8:af:9e:db:fe:e0:77:ff:36:0f:0e:af:99:1e:06:13:
        16:0d:99:a2:b2:a0:c3:ae:a2:2d:51:e4:c2:0e:ac:47:9e:61:
        14:ba:99:fb:48:65:ab:28:66:e1:3b:18:f9:2f:c5:4a:0c:1e:
        42:9c:19:c2:86:cc:64:f3:6e:a9:c9:3e:52:2e:aa:d0:7e:68:
        96:94:d1:d1:1d:28:a0:55:ec:87:3a:4a:32:a5:6f:60:33:c3:
        0b:b5:f0:70:9e:80:1e:c1:d0:2e:3d:95:69:9e:88:99:ae:ce:
        9f:2a:87:ca:af:c9:67:9a:54:f5:76:a6:14:3f:48:05:c9:88:
        6b:a8:7c:ef:1c:e2:87:2f:01:a8:fb:cc:d5:d5:6c:99:7e:1e:
        06:2b:eb:57:05:83:dd:58:14:0b:ba:56:08:1a:08:aa:68:40:
        7c:25:de:90:a9:94:f8:78:53:77:26:a7:e3:b1:bc:0a:aa:20:
        eb:be:da:4f:0a:31:31:0c:aa:e7:f8:98:07:f2:13:c0:05:38:
        34:3f:b1:fe
-----BEGIN CERTIFICATE-----
MIIDczCCAlugAwIBAgIQSbmhLn9eqFMV7kS6HAYzUDANBgkqhkiG9w0BAQsFADAV
MRMwEQYDVQQDDAp0ZWFtMTctbmV0MB4XDTIzMTEwNDExMjc0MVoXDTI2MTAxOTEx
Mjc0MVowGDEWMBQGA1UEAwwNdGVhbTE3LXNlcnZlcjCCASIwDQYJKoZIhvcNAQEB
BQADggEPADCCAQoCggEBAKyG/o961c2WlJPTVgw3HmWvi0cduRKehdIGBONOvquf
w8567zkvywlcffHFYwU4SGxEZ/YPAO71hy2NpVzV1L+5nSxHjyL5azJSX8qAgok3
ZFuDJEUvR2jgRsmBllq2B2bYcN7aaIIMCXn2/XT3+H17F+vgZpVnTe7Kh40QKisM
XfMYxzltN2j+NTq8CUs7XCIOpPa/Uf8scjCYqqUgBrH8HEOflZNrAI9GhmBAql6x
gN9j97yzQjwuGHu/JSibLOzBE9QynFrNwS+bbGApWhaoWvhtcVZEI45OUei06mps
+7z0awRWb8uproPxtN4viTN+P11oaSXq2rrcK6V4pRkCAwEAAaOBuzCBuDAJBgNV
HRMEAjAAMB0GA1UdDgQWBBQBIk8Ya/CO6f51QJWfkmQFSVrX8jBQBgNVHSMESTBH
gBSxoBvVD96nM1Hlm4qUZG5YanvaSqEZpBcwFTETMBEGA1UEAwwKdGVhbTE3LW5l
dIIUBVW1vCmGO2ksMMoVHX9V4PCLHHEwEwYDVR0lBAwwCgYIKwYBBQUHAwEwCwYD
VR0PBAQDAgWgMBgGA1UdEQQRMA+CDXRlYW0xNy1zZXJ2ZXIwDQYJKoZIhvcNAQEL
BQADggEBAIe608TzQ4xd1/OmhScors4RBjX7c8smdOf658RDU+MYbZ2JosboZ1zp
JJ3x/g3AHqvTxNQbIF/DyK+e2/7gd/82Dw6vmR4GExYNmaKyoMOuoi1R5MIOrEee
YRS6mftIZasoZuE7GPkvxUoMHkKcGcKGzGTzbqnJPlIuqtB+aJaU0dEdKKBV7Ic6
SjKlb2Azwwu18HCegB7B0C49lWmeiJmuzp8qh8qvyWeaVPV2phQ/SAXJiGuofO8c
4ocvAaj7zNXVbJl+HgYr61cFg91YFAu6VggaCKpoQHwl3pCplPh4U3cmp+OxvAqq
IOu+2k8KMTEMquf4mAfyE8AFODQ/sf4=
-----END CERTIFICATE-----
