Certificate:
    Data:
        Version: 3 (0x2)
        Serial Number:
            b6:c2:ce:9f:55:d2:d7:26:eb:40:b7:a9:2f:80:4c:6f
        Signature Algorithm: sha256WithRSAEncryption
        Issuer: CN=team17-net
        Validity
            Not Before: Nov  3 20:39:34 2023 GMT
            Not After : Oct 18 20:39:34 2026 GMT
        Subject: CN=team17-client
        Subject Public Key Info:
            Public Key Algorithm: rsaEncryption
                Public-Key: (2048 bit)
                Modulus:
                    00:b7:4c:48:98:62:57:98:a0:43:39:04:46:81:67:
                    c3:04:a4:ea:42:81:27:e5:24:71:17:8d:88:ec:44:
                    d0:28:2a:71:a3:3c:46:45:0a:82:b2:9e:e4:ce:e9:
                    ed:6d:db:64:ff:5a:41:cc:62:68:a6:16:8a:a4:60:
                    5d:6d:6b:08:44:95:86:03:8c:b8:bc:d1:80:5d:20:
                    fb:2b:f1:2b:a9:4c:56:be:a3:29:32:f8:c7:5b:5c:
                    5c:a6:3a:bf:08:73:9f:e6:fd:1f:ee:ea:d8:40:34:
                    f1:c9:63:b1:72:7c:3f:e9:0c:b2:63:77:08:0f:88:
                    1c:b5:65:a9:9a:bb:6f:18:8a:9a:60:a4:de:3a:63:
                    29:41:5a:1e:7f:dd:af:85:fa:01:6f:4b:e3:f8:db:
                    fd:c5:03:7c:dd:69:ca:66:64:10:91:e7:20:9f:41:
                    8e:dd:ea:1d:fb:d3:59:89:7f:c1:83:7d:e4:90:a6:
                    b8:84:e7:06:8a:0e:5f:e2:a7:45:e7:22:c9:5b:12:
                    a2:2c:b9:6d:7f:4d:58:69:71:58:a8:0e:f9:d5:1c:
                    2c:84:66:68:b2:19:85:1e:93:c6:1e:c9:74:af:90:
                    e8:b4:6e:4e:50:8b:68:4b:02:63:61:fb:e3:92:48:
                    96:0f:0a:3f:66:85:29:74:2d:9d:54:86:5f:06:3c:
                    0e:d7
                Exponent: 65537 (0x10001)
        X509v3 extensions:
            X509v3 Basic Constraints: 
                CA:FALSE
            X509v3 Subject Key Identifier: 
                CF:62:C7:33:BA:91:19:07:E5:63:D5:94:2E:90:64:2B:93:47:3F:3E
            X509v3 Authority Key Identifier: 
                keyid:2B:74:B8:F6:96:87:82:D8:E4:EA:6D:6C:E9:1F:4C:8B:82:C5:10:AD
                DirName:/CN=team17-net
                serial:08:ED:1E:02:64:80:49:A1:31:CF:5D:F2:AA:E1:51:77:B3:42:4F:32
            X509v3 Extended Key Usage: 
                TLS Web Client Authentication
            X509v3 Key Usage: 
                Digital Signature
    Signature Algorithm: sha256WithRSAEncryption
    Signature Value:
        4b:95:6b:90:6f:9b:8a:46:64:7a:e0:2b:d5:97:d1:32:c3:59:
        30:ad:3b:4c:e9:83:94:99:72:4d:11:26:88:91:ae:0e:25:67:
        4d:31:e8:d5:a4:6a:af:11:62:cc:fb:ff:f5:55:7b:d9:40:26:
        65:f0:80:55:d8:0a:d8:cd:d0:41:97:9d:f2:53:79:35:ab:8a:
        4b:19:b9:ed:78:d3:36:66:01:32:a4:37:6b:ef:fe:41:bc:0a:
        cc:de:7c:57:d1:79:2a:03:43:79:0e:fd:74:96:3c:54:33:60:
        70:30:11:5c:33:8d:ab:e2:b9:2d:32:fd:dc:5c:2b:70:fb:18:
        ce:50:72:f1:c1:8c:61:c8:83:f2:f5:54:44:33:47:1a:e3:a2:
        51:78:04:8b:1f:eb:6c:c6:bd:6e:5f:9b:e7:fa:b5:ea:e2:c4:
        b7:d9:6a:35:89:8d:c4:16:a3:df:7b:4c:17:a7:5a:cf:44:da:
        88:52:b1:70:dd:ff:a5:cb:7b:3a:be:92:5c:8b:fc:2b:9d:e1:
        a4:11:4c:cd:94:3a:89:fe:90:18:b7:8f:4b:0b:6d:8c:20:e2:
        95:00:e7:50:95:37:1c:52:bc:ff:b1:e4:5e:a6:30:61:83:35:
        71:e7:44:a4:ad:62:3e:1e:4f:9f:2d:c6:5b:bd:e1:21:83:09:
        30:df:4d:2b
-----BEGIN CERTIFICATE-----
MIIDWjCCAkKgAwIBAgIRALbCzp9V0tcm60C3qS+ATG8wDQYJKoZIhvcNAQELBQAw
FTETMBEGA1UEAwwKdGVhbTE3LW5ldDAeFw0yMzExMDMyMDM5MzRaFw0yNjEwMTgy
MDM5MzRaMBgxFjAUBgNVBAMMDXRlYW0xNy1jbGllbnQwggEiMA0GCSqGSIb3DQEB
AQUAA4IBDwAwggEKAoIBAQC3TEiYYleYoEM5BEaBZ8MEpOpCgSflJHEXjYjsRNAo
KnGjPEZFCoKynuTO6e1t22T/WkHMYmimFoqkYF1tawhElYYDjLi80YBdIPsr8Sup
TFa+oyky+MdbXFymOr8Ic5/m/R/u6thANPHJY7FyfD/pDLJjdwgPiBy1Zamau28Y
ippgpN46YylBWh5/3a+F+gFvS+P42/3FA3zdacpmZBCR5yCfQY7d6h3701mJf8GD
feSQpriE5waKDl/ip0XnIslbEqIsuW1/TVhpcVioDvnVHCyEZmiyGYUek8YeyXSv
kOi0bk5Qi2hLAmNh++OSSJYPCj9mhSl0LZ1Uhl8GPA7XAgMBAAGjgaEwgZ4wCQYD
VR0TBAIwADAdBgNVHQ4EFgQUz2LHM7qRGQflY9WULpBkK5NHPz4wUAYDVR0jBEkw
R4AUK3S49paHgtjk6m1s6R9Mi4LFEK2hGaQXMBUxEzARBgNVBAMMCnRlYW0xNy1u
ZXSCFAjtHgJkgEmhMc9d8qrhUXezQk8yMBMGA1UdJQQMMAoGCCsGAQUFBwMCMAsG
A1UdDwQEAwIHgDANBgkqhkiG9w0BAQsFAAOCAQEAS5VrkG+bikZkeuAr1ZfRMsNZ
MK07TOmDlJlyTREmiJGuDiVnTTHo1aRqrxFizPv/9VV72UAmZfCAVdgK2M3QQZed
8lN5NauKSxm57XjTNmYBMqQ3a+/+QbwKzN58V9F5KgNDeQ79dJY8VDNgcDARXDON
q+K5LTL93FwrcPsYzlBy8cGMYciD8vVURDNHGuOiUXgEix/rbMa9bl+b5/q16uLE
t9lqNYmNxBaj33tMF6daz0TaiFKxcN3/pct7Or6SXIv8K53hpBFMzZQ6if6QGLeP
SwttjCDilQDnUJU3HFK8/7HkXqYwYYM1cedEpK1iPh5Pny3GW73hIYMJMN9NKw==
-----END CERTIFICATE-----
