Certificate:
    Data:
        Version: 3 (0x2)
        Serial Number:
            b7:2e:df:6a:3b:3e:d4:c8:be:ea:ba:64:07:46:9a:db
        Signature Algorithm: sha256WithRSAEncryption
        Issuer: CN=team17-net
        Validity
            Not Before: Oct 31 16:30:28 2023 GMT
            Not After : Oct 15 16:30:28 2026 GMT
        Subject: CN=team17-client
        Subject Public Key Info:
            Public Key Algorithm: rsaEncryption
                Public-Key: (2048 bit)
                Modulus:
                    00:b4:f3:e4:31:f2:40:7c:9f:ae:07:20:f1:1c:5c:
                    e7:a8:e3:a1:ab:70:2e:52:dc:0a:e9:b9:c0:41:21:
                    12:79:3a:f4:78:15:6d:1e:70:b2:d9:77:85:0b:63:
                    04:e3:0b:d3:9b:19:ec:37:49:95:44:87:6e:af:1d:
                    b9:5a:86:dc:63:8a:37:04:a8:ab:b7:0d:0b:2d:15:
                    bb:61:cb:15:02:cd:1a:61:cc:e7:8a:90:fa:63:56:
                    08:71:e1:9e:26:e5:84:36:46:ad:88:d8:59:e1:06:
                    12:49:ca:4a:37:b9:18:e1:e7:a5:69:bf:d7:7e:e9:
                    cc:70:8c:7e:d7:5c:55:87:3b:6a:66:29:5c:bf:66:
                    25:4b:dc:88:3c:2c:f3:2b:7a:45:97:fc:c3:ff:7a:
                    8e:8e:8c:bc:2a:a1:dc:c9:32:96:d9:e5:17:56:2f:
                    23:c8:4c:b0:2a:68:a7:35:5c:49:4e:3d:22:93:1e:
                    ec:46:22:24:40:8d:3d:c1:64:42:a2:50:16:29:87:
                    6a:84:e0:62:aa:58:fd:6b:af:e3:61:d6:31:0f:cb:
                    56:92:4b:14:4c:44:7a:83:c1:db:46:8e:78:a2:73:
                    6e:0c:50:c0:1b:fe:00:15:b6:a6:98:a3:64:1c:b9:
                    96:d3:57:41:19:89:35:b9:dc:f9:29:0d:f8:b4:79:
                    7b:25
                Exponent: 65537 (0x10001)
        X509v3 extensions:
            X509v3 Basic Constraints: 
                CA:FALSE
            X509v3 Subject Key Identifier: 
                5B:1B:7D:DF:B5:2F:DD:B0:9B:02:A2:71:B4:24:BF:02:55:F9:CA:08
            X509v3 Authority Key Identifier: 
                keyid:EE:03:0E:C0:17:99:9D:DC:60:65:B3:E2:1F:C5:E9:86:9A:BF:9A:86
                DirName:/CN=team17-net
                serial:79:5D:7A:0E:05:5E:77:D0:93:95:DA:A1:5E:F8:35:67:41:C2:F5:46
            X509v3 Extended Key Usage: 
                TLS Web Client Authentication
            X509v3 Key Usage: 
                Digital Signature
    Signature Algorithm: sha256WithRSAEncryption
    Signature Value:
        54:aa:99:91:71:dc:1e:c9:ab:72:b9:b8:2e:32:3e:25:bc:a5:
        04:39:68:d6:e6:a1:04:eb:ba:31:c9:51:96:3b:19:5a:f7:82:
        28:3f:3a:b1:12:b3:d3:e5:cb:cb:6f:84:7b:92:23:8d:d2:3a:
        ae:50:78:8a:00:c3:f4:87:0f:2b:ad:80:56:27:86:4b:25:63:
        59:ff:27:8d:4d:cf:31:50:26:40:b7:66:5c:0d:35:ac:26:1a:
        24:29:65:9d:6d:0a:8f:7d:68:a6:68:2a:d6:36:15:d1:c4:6c:
        92:86:5c:34:aa:56:0a:25:54:0b:14:2c:76:71:64:5c:70:0a:
        df:39:b2:de:ab:f6:d6:79:c1:44:af:0f:22:c0:ad:eb:c8:60:
        fb:fa:42:1f:08:90:4e:30:1b:d7:90:64:ad:27:aa:d5:4f:8e:
        d1:36:8e:04:cb:1f:04:a2:05:a6:ee:31:8f:ab:c1:e2:c7:1b:
        63:38:e9:d1:e7:1c:53:8f:48:04:0e:8a:12:6a:ff:c4:a5:3e:
        9d:6e:d4:09:5b:77:08:be:e0:af:b1:d1:e2:e0:4d:7e:27:c7:
        20:06:63:8b:02:75:7a:5c:e9:13:9e:c6:46:8c:f2:b5:31:de:
        7d:d6:1a:51:eb:2f:5b:de:51:3a:95:08:fa:d6:59:c9:33:3a:
        bb:24:35:c7
-----BEGIN CERTIFICATE-----
MIIDWjCCAkKgAwIBAgIRALcu32o7PtTIvuq6ZAdGmtswDQYJKoZIhvcNAQELBQAw
FTETMBEGA1UEAwwKdGVhbTE3LW5ldDAeFw0yMzEwMzExNjMwMjhaFw0yNjEwMTUx
NjMwMjhaMBgxFjAUBgNVBAMMDXRlYW0xNy1jbGllbnQwggEiMA0GCSqGSIb3DQEB
AQUAA4IBDwAwggEKAoIBAQC08+Qx8kB8n64HIPEcXOeo46GrcC5S3ArpucBBIRJ5
OvR4FW0ecLLZd4ULYwTjC9ObGew3SZVEh26vHblahtxjijcEqKu3DQstFbthyxUC
zRphzOeKkPpjVghx4Z4m5YQ2Rq2I2FnhBhJJyko3uRjh56Vpv9d+6cxwjH7XXFWH
O2pmKVy/ZiVL3Ig8LPMrekWX/MP/eo6OjLwqodzJMpbZ5RdWLyPITLAqaKc1XElO
PSKTHuxGIiRAjT3BZEKiUBYph2qE4GKqWP1rr+Nh1jEPy1aSSxRMRHqDwdtGjnii
c24MUMAb/gAVtqaYo2QcuZbTV0EZiTW53PkpDfi0eXslAgMBAAGjgaEwgZ4wCQYD
VR0TBAIwADAdBgNVHQ4EFgQUWxt937Uv3bCbAqJxtCS/AlX5yggwUAYDVR0jBEkw
R4AU7gMOwBeZndxgZbPiH8Xphpq/moahGaQXMBUxEzARBgNVBAMMCnRlYW0xNy1u
ZXSCFHldeg4FXnfQk5XaoV74NWdBwvVGMBMGA1UdJQQMMAoGCCsGAQUFBwMCMAsG
A1UdDwQEAwIHgDANBgkqhkiG9w0BAQsFAAOCAQEAVKqZkXHcHsmrcrm4LjI+Jbyl
BDlo1uahBOu6MclRljsZWveCKD86sRKz0+XLy2+Ee5IjjdI6rlB4igDD9IcPK62A
VieGSyVjWf8njU3PMVAmQLdmXA01rCYaJCllnW0Kj31opmgq1jYV0cRskoZcNKpW
CiVUCxQsdnFkXHAK3zmy3qv21nnBRK8PIsCt68hg+/pCHwiQTjAb15BkrSeq1U+O
0TaOBMsfBKIFpu4xj6vB4scbYzjp0eccU49IBA6KEmr/xKU+nW7UCVt3CL7gr7HR
4uBNfifHIAZjiwJ1elzpE57GRozytTHefdYaUesvW95ROpUI+tZZyTM6uyQ1xw==
-----END CERTIFICATE-----
