Certificate:
    Data:
        Version: 3 (0x2)
        Serial Number:
            d3:32:04:3f:a8:41:99:e3:e0:30:32:76:2d:48:9f:ca
        Signature Algorithm: sha256WithRSAEncryption
        Issuer: CN=team17-net
        Validity
            Not Before: Nov  4 10:40:32 2023 GMT
            Not After : Oct 19 10:40:32 2026 GMT
        Subject: CN=team17-client
        Subject Public Key Info:
            Public Key Algorithm: rsaEncryption
                Public-Key: (2048 bit)
                Modulus:
                    00:f0:63:1b:b6:c5:f3:d2:70:0c:34:c5:5f:7a:44:
                    e3:87:51:3b:49:d4:cf:16:15:7b:ae:02:3a:f8:d9:
                    a1:ad:43:f2:be:ed:72:9e:b9:79:8e:42:58:f4:89:
                    ee:47:a8:d2:25:4c:04:8f:82:a7:a1:c0:bd:ca:88:
                    c0:d0:b2:3b:c8:ae:dd:c3:e6:45:4f:51:11:7d:23:
                    6d:00:d1:25:8c:31:7b:97:12:81:fe:a3:ff:7e:83:
                    ac:74:7a:d8:82:fa:41:85:b4:62:f9:01:af:84:13:
                    de:9a:b4:fb:cb:f2:a2:b6:f4:4f:26:cc:dc:c8:78:
                    e2:6e:ff:bf:96:55:b7:4b:98:22:a8:7b:1b:98:9b:
                    98:51:71:ed:33:7b:47:e5:9b:9d:cd:11:75:d5:b1:
                    68:13:8d:fe:a7:38:7d:a9:ae:8c:3e:f7:a8:52:a6:
                    0f:e1:f5:f7:2c:dc:e1:e6:ea:b9:c4:d5:03:2c:cd:
                    ba:58:76:af:98:cf:cc:72:a0:6d:cd:b2:bf:2e:51:
                    75:20:76:f6:b7:b7:0e:a3:1e:ee:dc:70:a5:bf:3c:
                    39:1d:c0:d5:c6:f9:d6:75:28:ee:2c:a3:2f:3c:64:
                    60:6b:dc:df:c2:b7:c0:19:d2:45:ab:a1:7e:fe:6e:
                    61:71:b0:d1:65:ab:dc:ae:1b:94:65:84:bc:85:43:
                    2d:f9
                Exponent: 65537 (0x10001)
        X509v3 extensions:
            X509v3 Basic Constraints: 
                CA:FALSE
            X509v3 Subject Key Identifier: 
                29:5A:38:0B:55:2F:92:18:08:A0:F0:07:85:AF:B3:52:65:D9:FE:C8
            X509v3 Authority Key Identifier: 
                keyid:1E:83:FE:C6:73:89:DD:E8:4C:CC:9D:15:E9:3F:DE:A9:3D:29:43:89
                DirName:/CN=team17-net
                serial:70:4D:FE:1A:48:01:B7:F8:57:2D:04:8E:7C:8A:68:7D:53:E2:36:D1
            X509v3 Extended Key Usage: 
                TLS Web Client Authentication
            X509v3 Key Usage: 
                Digital Signature
    Signature Algorithm: sha256WithRSAEncryption
    Signature Value:
        55:01:98:06:cb:ed:f1:1f:00:08:ec:fe:83:96:71:61:62:7b:
        f1:0f:ab:42:f0:e0:a8:2f:10:1e:0b:b3:92:0d:6a:ec:7c:9b:
        03:c5:31:27:62:9a:cf:a4:eb:bc:1f:67:91:5d:3d:96:3a:db:
        84:7f:cb:c2:ad:5e:2e:a6:33:f6:d1:7a:0a:96:4d:e2:75:9b:
        62:2f:10:01:f7:c7:8f:d6:3e:d1:76:64:c5:88:1c:39:fb:3f:
        0b:62:6d:1f:82:43:fd:f4:e8:53:0d:ce:2e:57:58:e0:29:2c:
        04:ac:1e:0e:1e:c2:96:47:aa:5b:6c:41:ae:6a:ec:33:db:54:
        d5:f4:ca:35:62:a0:50:48:db:8c:b3:6e:d8:5d:9a:26:c1:06:
        76:bb:de:6c:c2:c7:d4:70:66:f8:25:b0:dd:17:ba:2d:b1:67:
        89:77:93:ec:53:35:3d:56:cc:93:18:f6:0a:4a:cc:85:9a:cd:
        31:07:4c:61:9c:86:3f:5a:00:b8:36:05:1c:ff:d6:75:e2:f9:
        a0:5d:f3:16:e6:70:29:ba:ab:f9:d7:49:02:43:12:30:d6:e5:
        4d:82:13:0a:f6:ba:2e:92:13:38:b5:6a:a6:bb:32:e5:8a:10:
        09:d0:cc:24:5e:0a:43:e0:88:f7:47:c9:a0:56:a6:c9:fe:b3:
        8d:f6:70:5e
-----BEGIN CERTIFICATE-----
MIIDWjCCAkKgAwIBAgIRANMyBD+oQZnj4DAydi1In8owDQYJKoZIhvcNAQELBQAw
FTETMBEGA1UEAwwKdGVhbTE3LW5ldDAeFw0yMzExMDQxMDQwMzJaFw0yNjEwMTkx
MDQwMzJaMBgxFjAUBgNVBAMMDXRlYW0xNy1jbGllbnQwggEiMA0GCSqGSIb3DQEB
AQUAA4IBDwAwggEKAoIBAQDwYxu2xfPScAw0xV96ROOHUTtJ1M8WFXuuAjr42aGt
Q/K+7XKeuXmOQlj0ie5HqNIlTASPgqehwL3KiMDQsjvIrt3D5kVPURF9I20A0SWM
MXuXEoH+o/9+g6x0etiC+kGFtGL5Aa+EE96atPvL8qK29E8mzNzIeOJu/7+WVbdL
mCKoexuYm5hRce0ze0flm53NEXXVsWgTjf6nOH2prow+96hSpg/h9fcs3OHm6rnE
1QMszbpYdq+Yz8xyoG3Nsr8uUXUgdva3tw6jHu7ccKW/PDkdwNXG+dZ1KO4soy88
ZGBr3N/Ct8AZ0kWroX7+bmFxsNFlq9yuG5RlhLyFQy35AgMBAAGjgaEwgZ4wCQYD
VR0TBAIwADAdBgNVHQ4EFgQUKVo4C1UvkhgIoPAHha+zUmXZ/sgwUAYDVR0jBEkw
R4AUHoP+xnOJ3ehMzJ0V6T/eqT0pQ4mhGaQXMBUxEzARBgNVBAMMCnRlYW0xNy1u
ZXSCFHBN/hpIAbf4Vy0EjnyKaH1T4jbRMBMGA1UdJQQMMAoGCCsGAQUFBwMCMAsG
A1UdDwQEAwIHgDANBgkqhkiG9w0BAQsFAAOCAQEAVQGYBsvt8R8ACOz+g5ZxYWJ7
8Q+rQvDgqC8QHguzkg1q7HybA8UxJ2Kaz6TrvB9nkV09ljrbhH/Lwq1eLqYz9tF6
CpZN4nWbYi8QAffHj9Y+0XZkxYgcOfs/C2JtH4JD/fToUw3OLldY4CksBKweDh7C
lkeqW2xBrmrsM9tU1fTKNWKgUEjbjLNu2F2aJsEGdrvebMLH1HBm+CWw3Re6LbFn
iXeT7FM1PVbMkxj2CkrMhZrNMQdMYZyGP1oAuDYFHP/WdeL5oF3zFuZwKbqr+ddJ
AkMSMNblTYITCva6LpITOLVqprsy5YoQCdDMJF4KQ+CI90fJoFamyf6zjfZwXg==
-----END CERTIFICATE-----
