Certificate:
    Data:
        Version: 3 (0x2)
        Serial Number:
            eb:29:e6:01:97:d9:16:7a:ef:c4:df:83:aa:43:4d:d6
        Signature Algorithm: sha256WithRSAEncryption
        Issuer: CN=team485-net
        Validity
            Not Before: Nov  3 20:48:06 2023 GMT
            Not After : Oct 18 20:48:06 2026 GMT
        Subject: CN=team485-client
        Subject Public Key Info:
            Public Key Algorithm: rsaEncryption
                Public-Key: (2048 bit)
                Modulus:
                    00:e3:c4:6b:cd:44:0d:27:6d:74:22:a3:de:e6:7d:
                    6f:8e:e4:14:81:18:98:75:c8:3e:d2:9e:6e:f7:f9:
                    bd:8f:d5:f0:3a:8f:a0:86:5e:1c:6b:ef:54:3e:79:
                    c4:95:81:b7:f2:4b:e5:ca:53:9b:98:3a:7f:dd:5a:
                    15:b4:6c:0f:17:71:0f:c0:e4:b0:44:e5:49:2f:40:
                    66:b7:70:49:ac:79:7e:82:fd:2e:37:8a:ec:08:7d:
                    05:db:18:20:cd:00:f5:18:b8:63:00:ad:91:d4:20:
                    f8:d7:d3:60:90:17:fb:37:e0:cc:e2:fa:81:57:ae:
                    44:4a:bf:eb:1b:64:39:2c:51:e1:3f:c9:ae:8a:bb:
                    52:b7:72:de:df:50:df:7d:b9:c5:d4:65:9e:0d:7e:
                    c0:03:f9:2c:d0:67:44:65:8e:1a:5b:ab:82:1c:92:
                    2d:6e:d5:63:29:72:f5:da:e7:f6:f7:06:96:e6:41:
                    e1:86:33:3b:0b:51:47:5c:fb:5f:7d:ea:f3:35:c6:
                    b7:4e:b1:05:0a:46:33:15:65:c3:79:c7:da:7e:c2:
                    e5:e9:be:04:e4:7c:90:e7:d0:01:14:fa:15:e6:8b:
                    84:33:8f:9a:f4:cb:d8:6b:21:3c:89:2c:db:60:fc:
                    7c:d3:d1:67:39:de:24:9c:7b:30:ee:33:e5:20:77:
                    76:f3
                Exponent: 65537 (0x10001)
        X509v3 extensions:
            X509v3 Basic Constraints: 
                CA:FALSE
            X509v3 Subject Key Identifier: 
                89:B7:CA:8A:48:9B:61:45:C7:5F:67:49:AD:90:03:0A:34:C3:CB:08
            X509v3 Authority Key Identifier: 
                keyid:8E:42:AB:D6:D8:D0:8E:79:BB:E2:7E:6D:90:E3:6A:C9:03:70:5F:1F
                DirName:/CN=team485-net
                serial:2D:94:D0:95:52:E0:44:52:C7:CA:C0:77:2D:87:73:0E:1A:63:7E:8A
            X509v3 Extended Key Usage: 
                TLS Web Client Authentication
            X509v3 Key Usage: 
                Digital Signature
    Signature Algorithm: sha256WithRSAEncryption
    Signature Value:
        00:f3:01:f9:c9:fa:a9:b4:f5:89:03:03:8e:e0:39:44:ff:bf:
        a6:32:e3:06:b4:12:a7:d7:af:31:b6:e6:8c:fb:0c:f6:1d:5e:
        05:c9:7a:2d:c0:ad:50:9c:66:b1:22:96:1e:50:c7:25:69:73:
        70:22:44:d0:48:a2:66:37:31:c4:22:92:fe:89:4a:f7:4f:f8:
        57:51:ef:b4:e9:db:d3:ce:c5:da:2d:79:27:b3:ee:64:b3:c9:
        4c:fe:00:b6:a7:74:7e:48:4a:dd:ad:5b:20:7b:a8:ea:39:4f:
        9d:d0:bb:58:fb:94:60:a3:04:54:fe:e5:e9:07:3d:84:95:86:
        1a:63:2b:10:b0:ee:14:38:70:e8:5b:94:7c:73:49:4d:f0:5d:
        33:70:e1:e4:29:a3:d4:c0:dd:75:83:65:45:ec:e0:d6:e0:72:
        06:75:d4:eb:3a:fa:6d:7b:05:95:ec:48:76:d1:f4:22:47:77:
        34:c7:31:ea:94:67:7f:15:1a:b3:5b:32:b9:9c:19:d9:f4:f0:
        95:21:ac:30:f5:d0:29:6a:cd:82:b4:c9:20:ab:6e:4a:7e:9b:
        7e:8f:02:41:7b:1d:a3:3c:f7:cc:ad:fa:bc:c5:04:a4:de:cb:
        b8:63:cd:a6:ed:b8:f0:fc:08:f8:28:54:4b:e8:9e:4d:93:3d:
        29:5c:b4:a5
-----BEGIN CERTIFICATE-----
MIIDXTCCAkWgAwIBAgIRAOsp5gGX2RZ678Tfg6pDTdYwDQYJKoZIhvcNAQELBQAw
FjEUMBIGA1UEAwwLdGVhbTQ4NS1uZXQwHhcNMjMxMTAzMjA0ODA2WhcNMjYxMDE4
MjA0ODA2WjAZMRcwFQYDVQQDDA50ZWFtNDg1LWNsaWVudDCCASIwDQYJKoZIhvcN
AQEBBQADggEPADCCAQoCggEBAOPEa81EDSdtdCKj3uZ9b47kFIEYmHXIPtKebvf5
vY/V8DqPoIZeHGvvVD55xJWBt/JL5cpTm5g6f91aFbRsDxdxD8DksETlSS9AZrdw
Sax5foL9LjeK7Ah9BdsYIM0A9Ri4YwCtkdQg+NfTYJAX+zfgzOL6gVeuREq/6xtk
OSxR4T/Jroq7Urdy3t9Q3325xdRlng1+wAP5LNBnRGWOGlurghySLW7VYyly9drn
9vcGluZB4YYzOwtRR1z7X33q8zXGt06xBQpGMxVlw3nH2n7C5em+BOR8kOfQART6
FeaLhDOPmvTL2GshPIks22D8fNPRZzneJJx7MO4z5SB3dvMCAwEAAaOBojCBnzAJ
BgNVHRMEAjAAMB0GA1UdDgQWBBSJt8qKSJthRcdfZ0mtkAMKNMPLCDBRBgNVHSME
SjBIgBSOQqvW2NCOebvifm2Q42rJA3BfH6EapBgwFjEUMBIGA1UEAwwLdGVhbTQ4
NS1uZXSCFC2U0JVS4ERSx8rAdy2Hcw4aY36KMBMGA1UdJQQMMAoGCCsGAQUFBwMC
MAsGA1UdDwQEAwIHgDANBgkqhkiG9w0BAQsFAAOCAQEAAPMB+cn6qbT1iQMDjuA5
RP+/pjLjBrQSp9evMbbmjPsM9h1eBcl6LcCtUJxmsSKWHlDHJWlzcCJE0EiiZjcx
xCKS/olK90/4V1HvtOnb087F2i15J7PuZLPJTP4Atqd0fkhK3a1bIHuo6jlPndC7
WPuUYKMEVP7l6Qc9hJWGGmMrELDuFDhw6FuUfHNJTfBdM3Dh5Cmj1MDddYNlRezg
1uByBnXU6zr6bXsFlexIdtH0Ikd3NMcx6pRnfxUas1syuZwZ2fTwlSGsMPXQKWrN
grTJIKtuSn6bfo8CQXsdozz3zK36vMUEpN7LuGPNpu248PwI+ChUS+ieTZM9KVy0
pQ==
-----END CERTIFICATE-----
