Certificate:
    Data:
        Version: 3 (0x2)
        Serial Number:
            0e:fe:b9:af:11:b4:22:e4:76:85:e9:45:64:46:54:13
        Signature Algorithm: sha256WithRSAEncryption
        Issuer: CN=team326-net
        Validity
            Not Before: Nov  3 20:45:13 2023 GMT
            Not After : Oct 18 20:45:13 2026 GMT
        Subject: CN=team326-client
        Subject Public Key Info:
            Public Key Algorithm: rsaEncryption
                Public-Key: (2048 bit)
                Modulus:
                    00:b6:25:09:b9:8b:51:cb:c0:a2:e7:5d:6e:fd:4e:
                    80:fa:9f:79:8a:94:cf:ac:d8:04:4e:6a:21:a5:1e:
                    6a:b1:d2:2a:7c:cb:f0:38:ba:8e:84:2c:a3:18:d6:
                    b4:f3:0d:ac:25:32:af:3f:a6:18:a8:4b:53:d2:a4:
                    db:42:f8:64:4c:31:5d:95:65:c6:05:12:79:7a:4e:
                    0e:24:8d:d2:70:94:ad:53:26:b4:c7:73:85:83:0f:
                    16:ee:ac:1e:f4:e1:17:0a:25:d4:04:8e:9c:df:bd:
                    2c:f9:8c:66:d5:8b:f1:cb:67:65:fb:50:14:ca:01:
                    76:62:71:f6:de:83:b1:59:f1:87:77:46:65:91:d8:
                    a1:33:a6:54:20:f3:d5:bf:97:e2:e8:7c:c5:62:5b:
                    1e:b6:30:60:98:08:80:10:5c:d3:44:20:9c:34:88:
                    b2:79:1b:1f:50:ad:3a:79:b4:4e:c5:8f:9d:d9:18:
                    73:87:86:bd:db:ce:d1:b5:ff:41:b7:cd:b8:f8:64:
                    53:2a:8f:fd:01:24:4d:d2:ff:e0:30:d1:f5:21:50:
                    e7:8d:03:45:d6:ca:6a:7b:1e:cc:bb:73:19:f3:45:
                    b9:a0:ed:79:fb:a5:8f:3c:09:64:0c:7e:57:68:aa:
                    e5:aa:35:a6:59:35:02:02:57:ec:40:0c:0b:17:89:
                    2a:53
                Exponent: 65537 (0x10001)
        X509v3 extensions:
            X509v3 Basic Constraints: 
                CA:FALSE
            X509v3 Subject Key Identifier: 
                35:67:AA:5D:C0:22:F8:AA:31:C3:C0:61:F0:F9:4D:3F:0A:F1:D7:71
            X509v3 Authority Key Identifier: 
                keyid:B6:B3:7A:21:48:52:F0:4B:0B:F2:22:7F:87:06:18:80:5D:BB:AB:82
                DirName:/CN=team326-net
                serial:87:B5:93:D5:BC:AC:27:0D:BA:D5:85:4A:A1:D4:03:2C:A8:A9:CE
            X509v3 Extended Key Usage: 
                TLS Web Client Authentication
            X509v3 Key Usage: 
                Digital Signature
    Signature Algorithm: sha256WithRSAEncryption
    Signature Value:
        5a:1f:3e:18:e4:d2:f8:84:77:35:e9:e8:10:62:0b:33:e8:3d:
        2c:4f:34:bf:a2:cb:10:79:8c:66:0f:83:e1:20:62:42:5b:de:
        c0:40:5a:8a:8c:ad:db:33:2d:50:be:be:23:18:5c:89:43:e5:
        6f:31:60:57:2e:0b:7e:31:d0:c3:19:df:1d:ec:a0:9e:a0:43:
        d5:f8:4a:02:b9:b6:26:7c:20:bd:cf:08:42:b2:9e:a6:dd:aa:
        5f:9e:04:ef:8c:ec:8c:6f:ac:59:d0:66:28:80:a3:c6:45:32:
        44:e7:56:9d:3a:46:47:00:25:b5:27:d5:76:d7:e7:91:5c:e9:
        d1:0f:b0:7c:ab:2a:12:88:2c:5d:54:0f:4e:8f:32:a1:34:0c:
        80:20:29:52:b3:7d:46:4e:ca:c0:bf:92:b3:bd:da:96:dd:c4:
        9d:a0:1b:5a:ff:96:9f:c6:14:d8:61:f6:8e:e0:21:3c:27:fa:
        64:16:38:39:8f:62:97:a4:2e:e4:b0:fd:6d:70:ef:7b:f3:ca:
        b7:10:3f:4b:6b:96:4c:3f:5d:c1:d9:11:30:e7:0e:34:e3:78:
        1a:62:40:1e:8e:87:c2:83:8b:0b:c1:63:a5:1e:e2:2f:1e:89:
        29:12:bf:7a:6e:88:69:66:6b:78:11:f5:91:38:3d:c7:23:31:
        8e:49:bc:bb
-----BEGIN CERTIFICATE-----
MIIDXDCCAkSgAwIBAgIQDv65rxG0IuR2helFZEZUEzANBgkqhkiG9w0BAQsFADAW
MRQwEgYDVQQDDAt0ZWFtMzI2LW5ldDAeFw0yMzExMDMyMDQ1MTNaFw0yNjEwMTgy
MDQ1MTNaMBkxFzAVBgNVBAMMDnRlYW0zMjYtY2xpZW50MIIBIjANBgkqhkiG9w0B
AQEFAAOCAQ8AMIIBCgKCAQEAtiUJuYtRy8Ci511u/U6A+p95ipTPrNgETmohpR5q
sdIqfMvwOLqOhCyjGNa08w2sJTKvP6YYqEtT0qTbQvhkTDFdlWXGBRJ5ek4OJI3S
cJStUya0x3OFgw8W7qwe9OEXCiXUBI6c370s+Yxm1Yvxy2dl+1AUygF2YnH23oOx
WfGHd0ZlkdihM6ZUIPPVv5fi6HzFYlsetjBgmAiAEFzTRCCcNIiyeRsfUK06ebRO
xY+d2Rhzh4a9287Rtf9Bt824+GRTKo/9ASRN0v/gMNH1IVDnjQNF1spqex7Mu3MZ
80W5oO15+6WPPAlkDH5XaKrlqjWmWTUCAlfsQAwLF4kqUwIDAQABo4GiMIGfMAkG
A1UdEwQCMAAwHQYDVR0OBBYEFDVnql3AIviqMcPAYfD5TT8K8ddxMFEGA1UdIwRK
MEiAFLazeiFIUvBLC/Iif4cGGIBdu6uCoRqkGDAWMRQwEgYDVQQDDAt0ZWFtMzI2
LW5ldIIUAIe1k9W8rCcNutWFSqHUAyyoqc4wEwYDVR0lBAwwCgYIKwYBBQUHAwIw
CwYDVR0PBAQDAgeAMA0GCSqGSIb3DQEBCwUAA4IBAQBaHz4Y5NL4hHc16egQYgsz
6D0sTzS/ossQeYxmD4PhIGJCW97AQFqKjK3bMy1Qvr4jGFyJQ+VvMWBXLgt+MdDD
Gd8d7KCeoEPV+EoCubYmfCC9zwhCsp6m3apfngTvjOyMb6xZ0GYogKPGRTJE51ad
OkZHACW1J9V21+eRXOnRD7B8qyoSiCxdVA9OjzKhNAyAIClSs31GTsrAv5KzvdqW
3cSdoBta/5afxhTYYfaO4CE8J/pkFjg5j2KXpC7ksP1tcO9788q3ED9La5ZMP13B
2REw5w4043gaYkAejofCg4sLwWOlHuIvHokpEr96bohpZmt4EfWROD3HIzGOSby7
-----END CERTIFICATE-----
