Certificate:
    Data:
        Version: 3 (0x2)
        Serial Number:
            0e:20:26:ab:11:84:7e:c4:8a:86:ab:46:82:2d:e6:f2
        Signature Algorithm: sha256WithRSAEncryption
        Issuer: CN=team53-net
        Validity
            Not Before: Nov  4 10:41:12 2023 GMT
            Not After : Oct 19 10:41:12 2026 GMT
        Subject: CN=team53-client
        Subject Public Key Info:
            Public Key Algorithm: rsaEncryption
                Public-Key: (2048 bit)
                Modulus:
                    00:b3:7c:ab:a5:eb:00:23:7c:2a:1c:9d:9e:4e:6c:
                    d0:c9:57:78:74:e3:92:db:ef:ff:93:42:69:2f:81:
                    00:9e:e5:eb:6f:89:a9:47:07:7e:13:1b:0f:7c:82:
                    81:db:57:38:6f:a3:fe:45:da:92:c2:af:cb:a0:25:
                    03:49:14:7e:2b:e1:de:5c:d7:fa:17:9b:be:7d:ff:
                    8e:65:59:b1:5b:cc:11:db:03:53:f8:88:c4:54:b8:
                    8c:14:34:74:d0:3e:fe:8e:d4:d3:61:cc:b3:2e:b4:
                    e5:26:da:44:e6:6a:e3:85:d0:6f:35:4f:30:3a:5b:
                    7d:b8:a1:2a:82:38:90:4c:8a:5a:c0:f8:de:a5:64:
                    a7:5e:28:59:06:4a:ff:d2:ff:dc:65:3e:91:0d:77:
                    1a:e6:50:a4:26:b5:82:59:6f:f6:79:cb:e5:fb:a7:
                    c9:d8:ba:b6:ed:ae:16:65:aa:3d:52:b4:9f:c5:8e:
                    98:aa:dd:dd:b2:3f:0a:37:6a:ca:90:91:39:b1:3f:
                    7d:df:19:57:85:c8:f0:35:1c:e4:ed:d9:7d:37:06:
                    fd:72:db:a0:02:57:f1:e9:3c:84:c5:6e:ba:37:68:
                    80:bc:e2:98:63:9f:dd:1b:61:fc:e3:8a:e3:b0:20:
                    12:83:78:9d:95:8a:67:ef:0a:04:d6:5d:6d:8a:ad:
                    11:9b
                Exponent: 65537 (0x10001)
        X509v3 extensions:
            X509v3 Basic Constraints: 
                CA:FALSE
            X509v3 Subject Key Identifier: 
                BF:E4:6F:CB:9D:10:82:8B:1E:69:B6:1B:8C:E0:0C:C6:62:76:AF:D8
            X509v3 Authority Key Identifier: 
                keyid:0C:BE:31:1D:FB:77:2A:55:CE:30:75:12:B4:4B:00:9C:E4:5E:B7:FB
                DirName:/CN=team53-net
                serial:44:0B:04:04:D9:91:E0:4E:19:33:86:7E:2B:F7:99:2B:4C:C0:58:01
            X509v3 Extended Key Usage: 
                TLS Web Client Authentication
            X509v3 Key Usage: 
                Digital Signature
    Signature Algorithm: sha256WithRSAEncryption
    Signature Value:
        23:06:3b:e1:d2:b3:99:48:d3:f2:5d:9d:e9:f4:57:df:62:43:
        02:23:9d:6d:ac:c9:7c:cb:ca:56:46:65:27:8e:05:76:29:ef:
        16:68:a0:68:ac:80:91:8b:45:1a:d6:4e:82:9d:4a:7d:d0:04:
        01:fe:95:29:54:f1:96:08:c9:ef:92:b8:46:0a:a6:a9:0a:fd:
        2a:99:9a:bc:9d:f5:a5:8f:1f:dc:79:43:34:48:e3:51:78:6f:
        cd:5b:76:3b:96:03:98:2f:db:74:51:0b:ad:d2:df:21:e3:0d:
        a8:96:82:7d:9c:dc:42:27:e7:22:3c:c1:33:28:e0:26:48:0e:
        a4:1e:39:bf:95:c4:82:2f:26:82:b0:fb:82:59:fe:c5:1b:20:
        e9:bc:e3:99:e5:bf:67:10:33:02:d0:5d:4a:92:81:c2:8a:db:
        21:c0:4e:bd:1b:11:9a:50:34:7e:61:57:13:62:41:33:51:93:
        3f:66:7a:26:06:8b:e1:56:fe:a7:e2:fe:31:69:d0:4e:a8:00:
        75:cc:c9:74:7f:e1:c1:40:fd:ac:42:0b:dc:c1:a7:80:ef:58:
        e5:01:c3:ac:86:79:d2:e1:ab:cf:c1:73:57:60:2f:82:e1:94:
        eb:af:9c:23:63:ef:f7:05:e2:ac:2d:dc:b5:b2:43:39:6a:46:
        f0:d5:4c:66
-----BEGIN CERTIFICATE-----
MIIDWTCCAkGgAwIBAgIQDiAmqxGEfsSKhqtGgi3m8jANBgkqhkiG9w0BAQsFADAV
MRMwEQYDVQQDDAp0ZWFtNTMtbmV0MB4XDTIzMTEwNDEwNDExMloXDTI2MTAxOTEw
NDExMlowGDEWMBQGA1UEAwwNdGVhbTUzLWNsaWVudDCCASIwDQYJKoZIhvcNAQEB
BQADggEPADCCAQoCggEBALN8q6XrACN8Khydnk5s0MlXeHTjktvv/5NCaS+BAJ7l
62+JqUcHfhMbD3yCgdtXOG+j/kXaksKvy6AlA0kUfivh3lzX+hebvn3/jmVZsVvM
EdsDU/iIxFS4jBQ0dNA+/o7U02HMsy605SbaROZq44XQbzVPMDpbfbihKoI4kEyK
WsD43qVkp14oWQZK/9L/3GU+kQ13GuZQpCa1gllv9nnL5funydi6tu2uFmWqPVK0
n8WOmKrd3bI/CjdqypCRObE/fd8ZV4XI8DUc5O3ZfTcG/XLboAJX8ek8hMVuujdo
gLzimGOf3Rth/OOK47AgEoN4nZWKZ+8KBNZdbYqtEZsCAwEAAaOBoTCBnjAJBgNV
HRMEAjAAMB0GA1UdDgQWBBS/5G/LnRCCix5pthuM4AzGYnav2DBQBgNVHSMESTBH
gBQMvjEd+3cqVc4wdRK0SwCc5F63+6EZpBcwFTETMBEGA1UEAwwKdGVhbTUzLW5l
dIIURAsEBNmR4E4ZM4Z+K/eZK0zAWAEwEwYDVR0lBAwwCgYIKwYBBQUHAwIwCwYD
VR0PBAQDAgeAMA0GCSqGSIb3DQEBCwUAA4IBAQAjBjvh0rOZSNPyXZ3p9FffYkMC
I51trMl8y8pWRmUnjgV2Ke8WaKBorICRi0Ua1k6CnUp90AQB/pUpVPGWCMnvkrhG
CqapCv0qmZq8nfWljx/ceUM0SONReG/NW3Y7lgOYL9t0UQut0t8h4w2oloJ9nNxC
J+ciPMEzKOAmSA6kHjm/lcSCLyaCsPuCWf7FGyDpvOOZ5b9nEDMC0F1KkoHCitsh
wE69GxGaUDR+YVcTYkEzUZM/ZnomBovhVv6n4v4xadBOqAB1zMl0f+HBQP2sQgvc
waeA71jlAcOshnnS4avPwXNXYC+C4ZTrr5wjY+/3BeKsLdy1skM5akbw1Uxm
-----END CERTIFICATE-----
