Certificate:
    Data:
        Version: 3 (0x2)
        Serial Number:
            a7:0b:d3:5b:58:fe:ba:b9:00:c8:1d:a0:ae:23:3f:88
        Signature Algorithm: sha256WithRSAEncryption
        Issuer: CN=team53-net
        Validity
            Not Before: Nov  4 11:28:24 2023 GMT
            Not After : Oct 19 11:28:24 2026 GMT
        Subject: CN=team53-server
        Subject Public Key Info:
            Public Key Algorithm: rsaEncryption
                Public-Key: (2048 bit)
                Modulus:
                    00:af:fd:57:76:8f:38:d4:59:e4:06:e0:88:81:cb:
                    29:28:ff:94:9e:f8:41:05:0a:e2:be:30:b3:f2:a3:
                    77:21:63:fb:1b:a1:bc:a2:b8:f6:60:6b:ad:5e:7b:
                    cf:ca:ec:ae:47:51:8e:37:05:57:ef:7a:ad:77:51:
                    da:98:02:67:36:ed:c5:d2:20:c0:21:5b:c7:8b:63:
                    64:d1:74:2a:98:5c:81:c7:35:9b:71:f9:0a:7d:2b:
                    1a:2d:21:5c:d6:45:2a:3a:97:3f:d3:10:b1:d1:2f:
                    e6:bc:6d:9c:a9:ba:35:ae:9b:46:e3:dc:5b:c8:81:
                    18:c8:cf:a1:27:f7:d7:8e:8a:84:02:a3:77:23:4e:
                    d0:3e:0c:6d:2e:5f:37:f3:37:d8:57:af:25:af:d2:
                    57:3f:1d:f2:43:12:5e:d5:8f:eb:eb:9c:d1:0d:5e:
                    62:dd:ff:1f:84:4a:78:61:26:72:66:bc:69:20:61:
                    45:d7:70:24:c2:0c:3f:f4:de:84:36:dd:9e:5b:a8:
                    1b:5f:d8:4f:f3:6f:aa:a4:8a:7f:3b:23:12:90:51:
                    fd:c6:0a:a7:70:d6:7d:05:f7:9f:69:b7:05:8b:91:
                    31:3e:3b:16:f6:79:b8:22:7f:1c:79:ac:20:96:22:
                    8c:cb:8b:1e:0f:4d:b6:a5:26:0a:5d:6a:5f:bb:f6:
                    e0:af
                Exponent: 65537 (0x10001)
        X509v3 extensions:
            X509v3 Basic Constraints: 
                CA:FALSE
            X509v3 Subject Key Identifier: 
                C8:3F:D6:A2:3E:DB:E1:5E:DD:CE:4D:E8:BB:80:D9:A8:6A:61:A8:18
            X509v3 Authority Key Identifier: 
                keyid:26:9E:1B:68:FA:49:80:B7:F1:38:D4:35:38:D5:0E:67:86:53:A6:C0
                DirName:/CN=team53-net
                serial:2D:13:AC:6D:15:2A:EE:AC:54:0F:B8:FF:EA:AB:CB:8D:56:0C:47:68
            X509v3 Extended Key Usage: 
                TLS Web Server Authentication
            X509v3 Key Usage: 
                Digital Signature, Key Encipherment
            X509v3 Subject Alternative Name: 
                DNS:team53-server
    Signature Algorithm: sha256WithRSAEncryption
    Signature Value:
        04:83:b2:a5:52:85:bf:41:57:fc:22:23:ca:e6:c7:f2:82:3a:
        7e:86:c4:1c:39:2a:0e:43:61:49:ec:21:e0:0e:35:04:c8:dd:
        46:e2:76:cd:e0:d9:ff:9d:45:f5:42:e8:d8:a5:e2:c1:49:4e:
        64:81:7b:85:e3:83:83:49:70:f4:b8:43:ae:7a:78:0d:0f:0b:
        90:01:d0:c0:6e:d6:87:9e:0a:81:fe:c5:4e:7b:78:25:22:d5:
        24:f5:72:b2:c3:83:df:81:21:4b:a6:48:02:4c:88:13:fe:96:
        60:07:d1:66:ae:09:c5:83:37:12:10:6c:a2:71:36:e5:17:b6:
        25:8b:09:a1:44:95:c7:ef:02:76:1a:1b:aa:83:11:f2:be:a5:
        0e:e2:5e:56:0e:05:2a:78:f1:38:53:53:53:28:66:6d:35:57:
        b8:9b:45:82:b9:fb:d7:f9:37:05:37:50:43:b5:d4:12:a8:1f:
        d9:7f:6c:37:06:b9:bf:de:b7:fd:88:e2:6c:85:8a:c0:9e:04:
        78:f0:fa:ec:72:c1:ff:05:66:72:f8:8d:20:ee:f3:fc:60:b7:
        0c:b6:fd:de:48:81:22:74:3c:cd:7e:4f:df:05:e9:35:cd:09:
        31:b7:3d:16:8b:0c:ca:9c:3f:26:a9:c6:93:4b:e1:cb:6f:0c:
        cc:fc:57:90
-----BEGIN CERTIFICATE-----
MIIDdDCCAlygAwIBAgIRAKcL01tY/rq5AMgdoK4jP4gwDQYJKoZIhvcNAQELBQAw
FTETMBEGA1UEAwwKdGVhbTUzLW5ldDAeFw0yMzExMDQxMTI4MjRaFw0yNjEwMTkx
MTI4MjRaMBgxFjAUBgNVBAMMDXRlYW01My1zZXJ2ZXIwggEiMA0GCSqGSIb3DQEB
AQUAA4IBDwAwggEKAoIBAQCv/Vd2jzjUWeQG4IiByyko/5Se+EEFCuK+MLPyo3ch
Y/sbobyiuPZga61ee8/K7K5HUY43BVfveq13UdqYAmc27cXSIMAhW8eLY2TRdCqY
XIHHNZtx+Qp9KxotIVzWRSo6lz/TELHRL+a8bZypujWum0bj3FvIgRjIz6En99eO
ioQCo3cjTtA+DG0uXzfzN9hXryWv0lc/HfJDEl7Vj+vrnNENXmLd/x+ESnhhJnJm
vGkgYUXXcCTCDD/03oQ23Z5bqBtf2E/zb6qkin87IxKQUf3GCqdw1n0F959ptwWL
kTE+Oxb2ebgifxx5rCCWIozLix4PTbalJgpdal+79uCvAgMBAAGjgbswgbgwCQYD
VR0TBAIwADAdBgNVHQ4EFgQUyD/Woj7b4V7dzk3ou4DZqGphqBgwUAYDVR0jBEkw
R4AUJp4baPpJgLfxONQ1ONUOZ4ZTpsChGaQXMBUxEzARBgNVBAMMCnRlYW01My1u
ZXSCFC0TrG0VKu6sVA+4/+qry41WDEdoMBMGA1UdJQQMMAoGCCsGAQUFBwMBMAsG
A1UdDwQEAwIFoDAYBgNVHREEETAPgg10ZWFtNTMtc2VydmVyMA0GCSqGSIb3DQEB
CwUAA4IBAQAEg7KlUoW/QVf8IiPK5sfygjp+hsQcOSoOQ2FJ7CHgDjUEyN1G4nbN
4Nn/nUX1QujYpeLBSU5kgXuF44ODSXD0uEOuengNDwuQAdDAbtaHngqB/sVOe3gl
ItUk9XKyw4PfgSFLpkgCTIgT/pZgB9FmrgnFgzcSEGyicTblF7YliwmhRJXH7wJ2
GhuqgxHyvqUO4l5WDgUqePE4U1NTKGZtNVe4m0WCufvX+TcFN1BDtdQSqB/Zf2w3
Brm/3rf9iOJshYrAngR48PrscsH/BWZy+I0g7vP8YLcMtv3eSIEidDzNfk/fBek1
zQkxtz0WiwzKnD8mqcaTS+HLbwzM/FeQ
-----END CERTIFICATE-----
