Certificate:
    Data:
        Version: 3 (0x2)
        Serial Number:
            31:ef:98:b9:d7:02:a3:22:ac:cb:46:f2:4c:59:9f:a7
        Signature Algorithm: sha256WithRSAEncryption
        Issuer: CN=team7-net
        Validity
            Not Before: Nov  4 10:40:20 2023 GMT
            Not After : Oct 19 10:40:20 2026 GMT
        Subject: CN=team7-client
        Subject Public Key Info:
            Public Key Algorithm: rsaEncryption
                Public-Key: (2048 bit)
                Modulus:
                    00:d6:72:e1:50:fd:16:e8:6c:3f:06:a7:4f:f6:c2:
                    dc:be:f6:4b:e9:ad:cf:46:09:04:0c:ec:56:4d:3e:
                    15:17:39:e8:58:90:70:13:63:3e:6c:af:de:3d:27:
                    45:3d:20:cb:ce:5c:79:6f:39:16:78:bd:bf:d3:4d:
                    fa:e4:06:49:9a:9c:9e:04:4c:99:72:66:4e:5b:04:
                    a8:f0:ca:68:e4:15:25:87:5b:23:79:86:9c:47:af:
                    44:8c:b0:a6:0c:5c:3b:b2:f8:6b:48:ff:bd:43:8c:
                    cb:24:28:07:9b:39:10:ec:bb:e0:10:4d:b9:be:7e:
                    a4:82:fe:d6:2b:b4:43:52:7e:b2:c0:56:ce:64:43:
                    58:49:19:23:1d:b3:87:2e:8a:c2:c3:69:b2:b0:6e:
                    a0:96:1c:58:1c:4e:d5:b6:ec:e8:9a:ea:d0:c4:61:
                    19:dc:4b:cd:4c:0a:5e:53:23:93:49:43:81:df:3d:
                    a1:11:29:bd:c2:e7:60:39:d4:4e:ee:7b:a1:93:3b:
                    92:0b:c7:cf:0a:90:84:8b:80:5f:ef:24:6a:b5:69:
                    a4:b2:97:e6:01:05:84:33:90:be:05:9d:b9:13:3d:
                    95:01:c7:13:94:61:45:ae:ca:b5:e3:c6:b4:dd:93:
                    7b:6d:40:6a:d3:a8:6b:e2:6f:17:5c:b5:24:12:5e:
                    2a:83
                Exponent: 65537 (0x10001)
        X509v3 extensions:
            X509v3 Basic Constraints: 
                CA:FALSE
            X509v3 Subject Key Identifier: 
                3E:46:5B:F5:8E:4D:E0:0C:94:06:4A:F4:65:D6:9F:ED:E5:40:49:A5
            X509v3 Authority Key Identifier: 
                keyid:02:3E:AD:54:FC:CC:E2:D4:B8:8D:CF:0F:85:A8:DA:AD:76:3A:38:36
                DirName:/CN=team7-net
                serial:52:EB:62:CC:8E:80:B2:DD:F1:BC:8A:16:01:B7:25:1A:E8:B6:5A:05
            X509v3 Extended Key Usage: 
                TLS Web Client Authentication
            X509v3 Key Usage: 
                Digital Signature
    Signature Algorithm: sha256WithRSAEncryption
    Signature Value:
        44:cb:70:fd:f0:a0:17:4f:67:e7:d1:7f:9d:21:b8:3e:f3:5b:
        82:dc:4d:24:01:de:28:fa:48:fe:7e:a9:45:f0:35:fe:4f:4b:
        29:b8:d2:16:58:3c:b2:eb:03:9b:34:3d:99:13:96:d8:1a:c0:
        02:a3:2c:18:c0:73:e4:f9:ea:ba:4e:99:b9:12:c8:8c:ad:79:
        e6:3b:14:e2:70:dc:7e:fb:66:6e:27:d7:d7:d8:97:fb:de:f5:
        a5:e3:6a:5c:92:00:72:47:dc:2d:7f:61:ae:43:ea:8f:37:2b:
        95:e9:00:39:c1:bc:35:99:f7:fc:96:8b:47:93:cb:25:92:f7:
        72:7b:04:b0:1e:1a:28:86:d1:a9:32:8b:d1:11:2f:62:de:a6:
        6e:5c:39:e4:bc:5f:fb:da:11:e1:bf:cf:ca:7e:31:82:d0:4c:
        94:20:54:80:a7:48:2f:44:c3:05:f3:ff:98:dc:c8:6c:a8:64:
        f5:d1:94:80:da:08:3e:42:44:0d:37:a8:c9:fa:73:a0:30:39:
        93:ff:0e:b5:a8:5c:52:95:bc:32:7a:37:32:80:34:81:62:43:
        56:fe:85:14:11:63:11:64:f6:5c:f0:2e:d2:91:0c:fd:88:0b:
        dc:35:4d:4f:cd:ba:c5:39:70:12:23:a1:db:a9:00:22:a4:70:
        87:7e:af:6d
-----BEGIN CERTIFICATE-----
MIIDVjCCAj6gAwIBAgIQMe+YudcCoyKsy0byTFmfpzANBgkqhkiG9w0BAQsFADAU
MRIwEAYDVQQDDAl0ZWFtNy1uZXQwHhcNMjMxMTA0MTA0MDIwWhcNMjYxMDE5MTA0
MDIwWjAXMRUwEwYDVQQDDAx0ZWFtNy1jbGllbnQwggEiMA0GCSqGSIb3DQEBAQUA
A4IBDwAwggEKAoIBAQDWcuFQ/RbobD8Gp0/2wty+9kvprc9GCQQM7FZNPhUXOehY
kHATYz5sr949J0U9IMvOXHlvORZ4vb/TTfrkBkmanJ4ETJlyZk5bBKjwymjkFSWH
WyN5hpxHr0SMsKYMXDuy+GtI/71DjMskKAebORDsu+AQTbm+fqSC/tYrtENSfrLA
Vs5kQ1hJGSMds4cuisLDabKwbqCWHFgcTtW27Oia6tDEYRncS81MCl5TI5NJQ4Hf
PaERKb3C52A51E7ue6GTO5ILx88KkISLgF/vJGq1aaSyl+YBBYQzkL4FnbkTPZUB
xxOUYUWuyrXjxrTdk3ttQGrTqGvibxdctSQSXiqDAgMBAAGjgaAwgZ0wCQYDVR0T
BAIwADAdBgNVHQ4EFgQUPkZb9Y5N4AyUBkr0Zdaf7eVASaUwTwYDVR0jBEgwRoAU
Aj6tVPzM4tS4jc8PhajarXY6ODahGKQWMBQxEjAQBgNVBAMMCXRlYW03LW5ldIIU
UutizI6Ast3xvIoWAbclGui2WgUwEwYDVR0lBAwwCgYIKwYBBQUHAwIwCwYDVR0P
BAQDAgeAMA0GCSqGSIb3DQEBCwUAA4IBAQBEy3D98KAXT2fn0X+dIbg+81uC3E0k
Ad4o+kj+fqlF8DX+T0spuNIWWDyy6wObND2ZE5bYGsACoywYwHPk+eq6Tpm5EsiM
rXnmOxTicNx++2ZuJ9fX2Jf73vWl42pckgByR9wtf2GuQ+qPNyuV6QA5wbw1mff8
lotHk8slkvdyewSwHhoohtGpMovRES9i3qZuXDnkvF/72hHhv8/KfjGC0EyUIFSA
p0gvRMMF8/+Y3MhsqGT10ZSA2gg+QkQNN6jJ+nOgMDmT/w61qFxSlbwyejcygDSB
YkNW/oUUEWMRZPZc8C7SkQz9iAvcNU1PzbrFOXASI6HbqQAipHCHfq9t
-----END CERTIFICATE-----
