Certificate:
    Data:
        Version: 3 (0x2)
        Serial Number:
            73:f4:75:6a:7d:f9:7d:fd:a5:f9:0f:d8:c0:81:34:5a
        Signature Algorithm: sha256WithRSAEncryption
        Issuer: CN=team7-net
        Validity
            Not Before: Oct 31 16:30:16 2023 GMT
            Not After : Oct 15 16:30:16 2026 GMT
        Subject: CN=team7-server
        Subject Public Key Info:
            Public Key Algorithm: rsaEncryption
                Public-Key: (2048 bit)
                Modulus:
                    00:97:79:26:74:81:fa:8b:88:6b:92:9d:ea:78:87:
                    35:20:53:69:d3:09:2c:76:58:3f:f7:7d:4b:31:d0:
                    53:2d:68:91:07:df:1a:2a:4f:7f:de:e6:13:13:dd:
                    b5:f6:dd:4a:12:d4:85:dd:f3:93:e8:2b:6e:7f:65:
                    bf:72:27:3d:f4:5d:f1:ce:c7:4b:1a:b4:79:01:db:
                    1e:13:9b:f9:23:b5:6b:c9:b3:10:9f:cb:f1:7c:71:
                    7c:44:9c:b8:8f:fd:a2:89:56:8c:fa:3b:8e:01:88:
                    2a:c0:93:8c:6c:05:8a:e7:a3:4e:2e:6d:20:76:ed:
                    7f:3c:0f:40:d3:63:64:da:b3:c6:fa:51:7c:e4:50:
                    f3:b1:5b:82:95:94:bd:8b:b6:5c:15:a2:3c:2a:c0:
                    c0:2e:b8:55:f7:02:3e:22:52:65:63:c2:80:a4:f9:
                    03:bb:4d:2b:33:1f:46:13:b6:63:d0:21:9b:71:b8:
                    78:39:f5:a1:6e:21:3a:19:1e:45:7e:b4:33:25:f8:
                    e7:cb:97:88:d3:d4:85:4b:34:e2:95:ea:5c:5f:ca:
                    30:b4:1c:40:c9:93:a8:71:06:c4:ad:e9:1c:07:85:
                    3f:92:4a:98:1f:34:8e:b5:20:2f:68:33:72:d0:8f:
                    e9:c3:29:f5:5c:d8:ad:b6:ac:bb:fd:d5:43:4c:f1:
                    3f:63
                Exponent: 65537 (0x10001)
        X509v3 extensions:
            X509v3 Basic Constraints: 
                CA:FALSE
            X509v3 Subject Key Identifier: 
                70:67:1A:03:BC:91:7B:B4:7A:69:BB:30:E3:DA:3B:13:30:4B:50:89
            X509v3 Authority Key Identifier: 
                keyid:3E:C1:7C:CB:87:B8:23:54:B9:F3:7D:F7:BA:8E:E5:26:57:BD:D0:76
                DirName:/CN=team7-net
                serial:04:8C:13:91:DB:5C:F5:D4:B4:08:BE:B9:0E:23:7F:C9:52:A4:7B:E2
            X509v3 Extended Key Usage: 
                TLS Web Server Authentication
            X509v3 Key Usage: 
                Digital Signature, Key Encipherment
            X509v3 Subject Alternative Name: 
                DNS:team7-server
    Signature Algorithm: sha256WithRSAEncryption
    Signature Value:
        60:dd:c5:72:0e:d8:8e:54:6a:75:ac:93:b6:47:d3:72:ed:8b:
        e6:60:57:0c:8a:76:7e:85:41:0d:4c:55:09:4d:65:11:8d:a6:
        06:dd:6c:45:58:21:19:7f:fc:73:dd:37:54:bf:50:ad:c3:b8:
        93:b2:b4:b7:4c:10:c0:b1:77:57:f6:28:b0:f6:4b:73:60:12:
        ff:29:93:25:a3:57:98:bf:cf:67:7e:ea:f7:43:27:b1:70:1f:
        21:b8:78:cb:23:78:88:7c:e4:b4:91:5c:52:d5:fe:b7:73:9e:
        1d:4d:f7:25:7a:80:e8:5d:e8:1e:78:72:7a:13:9a:99:db:38:
        a8:e6:2a:75:2b:1a:39:0d:1c:c8:f9:83:b8:16:b8:ad:bd:b3:
        2e:d2:bf:b0:8f:74:29:43:63:db:54:39:b9:74:a4:81:0b:71:
        2b:21:c8:bc:ff:72:df:d4:c3:70:8e:53:61:79:2d:cd:9e:1e:
        80:08:d5:04:5e:38:50:5a:4a:b4:21:60:dc:5d:ff:ec:1f:c4:
        27:1d:27:32:94:d5:f9:bd:5b:77:ef:19:e7:23:95:bf:f9:cd:
        ab:6c:06:99:0c:68:ea:9c:95:85:00:dc:f5:c3:fb:0c:b0:29:
        b9:73:c1:c2:12:b5:1c:cc:5c:f5:d2:f7:1b:97:77:a7:80:e6:
        a5:65:b9:ec
-----BEGIN CERTIFICATE-----
MIIDbzCCAlegAwIBAgIQc/R1an35ff2l+Q/YwIE0WjANBgkqhkiG9w0BAQsFADAU
MRIwEAYDVQQDDAl0ZWFtNy1uZXQwHhcNMjMxMDMxMTYzMDE2WhcNMjYxMDE1MTYz
MDE2WjAXMRUwEwYDVQQDDAx0ZWFtNy1zZXJ2ZXIwggEiMA0GCSqGSIb3DQEBAQUA
A4IBDwAwggEKAoIBAQCXeSZ0gfqLiGuSnep4hzUgU2nTCSx2WD/3fUsx0FMtaJEH
3xoqT3/e5hMT3bX23UoS1IXd85PoK25/Zb9yJz30XfHOx0satHkB2x4Tm/kjtWvJ
sxCfy/F8cXxEnLiP/aKJVoz6O44BiCrAk4xsBYrno04ubSB27X88D0DTY2Tas8b6
UXzkUPOxW4KVlL2LtlwVojwqwMAuuFX3Aj4iUmVjwoCk+QO7TSszH0YTtmPQIZtx
uHg59aFuIToZHkV+tDMl+OfLl4jT1IVLNOKV6lxfyjC0HEDJk6hxBsSt6RwHhT+S
SpgfNI61IC9oM3LQj+nDKfVc2K22rLv91UNM8T9jAgMBAAGjgbkwgbYwCQYDVR0T
BAIwADAdBgNVHQ4EFgQUcGcaA7yRe7R6absw49o7EzBLUIkwTwYDVR0jBEgwRoAU
PsF8y4e4I1S58333uo7lJle90HahGKQWMBQxEjAQBgNVBAMMCXRlYW03LW5ldIIU
BIwTkdtc9dS0CL65DiN/yVKke+IwEwYDVR0lBAwwCgYIKwYBBQUHAwEwCwYDVR0P
BAQDAgWgMBcGA1UdEQQQMA6CDHRlYW03LXNlcnZlcjANBgkqhkiG9w0BAQsFAAOC
AQEAYN3Fcg7YjlRqdayTtkfTcu2L5mBXDIp2foVBDUxVCU1lEY2mBt1sRVghGX/8
c903VL9QrcO4k7K0t0wQwLF3V/YosPZLc2AS/ymTJaNXmL/PZ37q90MnsXAfIbh4
yyN4iHzktJFcUtX+t3OeHU33JXqA6F3oHnhyehOamds4qOYqdSsaOQ0cyPmDuBa4
rb2zLtK/sI90KUNj21Q5uXSkgQtxKyHIvP9y39TDcI5TYXktzZ4egAjVBF44UFpK
tCFg3F3/7B/EJx0nMpTV+b1bd+8Z5yOVv/nNq2wGmQxo6pyVhQDc9cP7DLApuXPB
whK1HMxc9dL3G5d3p4DmpWW57A==
-----END CERTIFICATE-----
