Certificate:
    Data:
        Version: 3 (0x2)
        Serial Number:
            9d:70:54:20:db:1b:f0:a0:0e:19:7e:43:77:5e:18:f8
        Signature Algorithm: sha256WithRSAEncryption
        Issuer: CN=team7-net
        Validity
            Not Before: Nov  3 20:39:24 2023 GMT
            Not After : Oct 18 20:39:24 2026 GMT
        Subject: CN=team7-server
        Subject Public Key Info:
            Public Key Algorithm: rsaEncryption
                Public-Key: (2048 bit)
                Modulus:
                    00:da:53:fd:8a:f4:69:9e:9d:18:ab:a3:66:1c:38:
                    9f:cb:10:c8:62:5e:50:19:c0:ab:3a:f6:ac:ba:f5:
                    e7:9d:85:39:ae:22:7b:49:b6:3c:b1:1b:57:e8:63:
                    63:61:0b:ff:7d:b7:ff:b8:b1:06:5a:ca:1d:a7:56:
                    50:7d:ab:49:5c:7c:6f:f7:68:ef:fd:fc:64:36:76:
                    a9:19:1b:51:7c:7c:76:c2:ab:ed:cd:06:2e:5f:36:
                    04:8f:74:0a:ea:d3:5b:28:b9:b4:85:40:f5:b5:7c:
                    36:f9:72:ce:9c:96:64:09:db:0d:f7:77:27:e0:c7:
                    84:58:1b:1d:49:20:54:f4:ca:35:5d:b3:ef:73:ba:
                    d5:14:6a:a2:95:7d:06:53:04:51:3c:c1:d1:14:a7:
                    0e:ba:8d:f1:f2:38:28:0b:77:15:ea:21:e2:71:bf:
                    14:17:b3:e0:0c:1f:ee:62:6f:f3:6c:97:10:70:09:
                    b8:30:c2:f8:6f:67:1f:6c:2c:ed:34:f3:67:c6:a1:
                    57:a9:f7:e5:7b:22:82:8c:f2:26:3e:90:53:b4:8c:
                    29:c6:4c:7c:4e:b2:4e:28:8b:68:24:58:76:1f:be:
                    2d:99:65:55:77:68:a0:d6:4a:88:5e:cc:9a:71:38:
                    9d:3c:20:39:19:53:bb:6b:63:79:5d:77:83:39:a2:
                    89:53
                Exponent: 65537 (0x10001)
        X509v3 extensions:
            X509v3 Basic Constraints: 
                CA:FALSE
            X509v3 Subject Key Identifier: 
                3C:DA:9D:1A:60:D0:88:95:5A:A1:F5:AF:4A:7A:53:E5:E7:81:25:54
            X509v3 Authority Key Identifier: 
                keyid:40:2A:46:88:3E:57:5D:C1:18:70:80:7D:3F:CA:81:2A:58:92:8F:E7
                DirName:/CN=team7-net
                serial:3B:A2:2C:F9:37:21:93:A8:2A:2D:9D:9F:CE:37:24:37:DD:57:4D:B7
            X509v3 Extended Key Usage: 
                TLS Web Server Authentication
            X509v3 Key Usage: 
                Digital Signature, Key Encipherment
            X509v3 Subject Alternative Name: 
                DNS:team7-server
    Signature Algorithm: sha256WithRSAEncryption
    Signature Value:
        4c:36:40:a1:d0:27:41:8e:f5:fd:43:7d:61:1d:c1:bc:f6:e3:
        28:90:1e:5a:03:7c:3f:df:1c:fe:53:6c:d4:8f:b8:e0:a1:55:
        88:c7:fe:ff:b1:a9:92:5d:73:0f:df:ac:0e:ff:86:80:3c:b6:
        e1:61:2d:08:3b:a4:41:18:32:d0:c7:84:42:f2:7a:4e:14:a7:
        a4:89:21:32:f3:e5:f4:8b:1d:ab:58:cd:de:15:b7:d5:4e:49:
        32:97:fe:30:ae:6f:a6:67:26:89:47:66:94:ba:1a:56:0f:18:
        a8:8e:89:ce:f5:8d:9b:57:76:2b:53:d0:6b:1f:6b:97:89:76:
        a1:e6:77:2f:f7:84:5c:0f:78:9a:58:11:db:b8:3a:e3:4d:db:
        6f:c8:e8:1e:58:32:77:18:4e:6f:19:07:55:6d:99:70:93:36:
        d1:55:ae:68:f1:74:c9:b3:57:ed:ec:9b:43:74:8b:69:4e:06:
        25:cb:fa:a6:33:98:d5:79:eb:81:df:3a:8a:27:38:68:f9:f6:
        fa:c5:b2:4f:0e:e6:b4:6a:40:b4:db:ba:f7:98:25:5d:06:74:
        8c:9b:77:c4:cc:a2:0d:32:e0:fb:c6:33:1c:ea:91:c6:0b:4d:
        b5:ef:12:48:7d:c1:44:50:5a:8f:c8:b3:7a:7d:9e:1e:b5:ae:
        ff:2d:1c:8b
-----BEGIN CERTIFICATE-----
MIIDcDCCAligAwIBAgIRAJ1wVCDbG/CgDhl+Q3deGPgwDQYJKoZIhvcNAQELBQAw
FDESMBAGA1UEAwwJdGVhbTctbmV0MB4XDTIzMTEwMzIwMzkyNFoXDTI2MTAxODIw
MzkyNFowFzEVMBMGA1UEAwwMdGVhbTctc2VydmVyMIIBIjANBgkqhkiG9w0BAQEF
AAOCAQ8AMIIBCgKCAQEA2lP9ivRpnp0Yq6NmHDifyxDIYl5QGcCrOvasuvXnnYU5
riJ7SbY8sRtX6GNjYQv/fbf/uLEGWsodp1ZQfatJXHxv92jv/fxkNnapGRtRfHx2
wqvtzQYuXzYEj3QK6tNbKLm0hUD1tXw2+XLOnJZkCdsN93cn4MeEWBsdSSBU9Mo1
XbPvc7rVFGqilX0GUwRRPMHRFKcOuo3x8jgoC3cV6iHicb8UF7PgDB/uYm/zbJcQ
cAm4MML4b2cfbCztNPNnxqFXqffleyKCjPImPpBTtIwpxkx8TrJOKItoJFh2H74t
mWVVd2ig1kqIXsyacTidPCA5GVO7a2N5XXeDOaKJUwIDAQABo4G5MIG2MAkGA1Ud
EwQCMAAwHQYDVR0OBBYEFDzanRpg0IiVWqH1r0p6U+XngSVUME8GA1UdIwRIMEaA
FEAqRog+V13BGHCAfT/KgSpYko/noRikFjAUMRIwEAYDVQQDDAl0ZWFtNy1uZXSC
FDuiLPk3IZOoKi2dn843JDfdV023MBMGA1UdJQQMMAoGCCsGAQUFBwMBMAsGA1Ud
DwQEAwIFoDAXBgNVHREEEDAOggx0ZWFtNy1zZXJ2ZXIwDQYJKoZIhvcNAQELBQAD
ggEBAEw2QKHQJ0GO9f1DfWEdwbz24yiQHloDfD/fHP5TbNSPuOChVYjH/v+xqZJd
cw/frA7/hoA8tuFhLQg7pEEYMtDHhELyek4Up6SJITLz5fSLHatYzd4Vt9VOSTKX
/jCub6ZnJolHZpS6GlYPGKiOic71jZtXditT0Gsfa5eJdqHmdy/3hFwPeJpYEdu4
OuNN22/I6B5YMncYTm8ZB1VtmXCTNtFVrmjxdMmzV+3sm0N0i2lOBiXL+qYzmNV5
64HfOoonOGj59vrFsk8O5rRqQLTbuveYJV0GdIybd8TMog0y4PvGMxzqkcYLTbXv
Ekh9wURQWo/Is3p9nh61rv8tHIs=
-----END CERTIFICATE-----
