Certificate:
    Data:
        Version: 3 (0x2)
        Serial Number:
            a2:fb:51:cd:2a:9b:89:d7:dd:f8:09:e1:c8:13:ca:d8
        Signature Algorithm: sha256WithRSAEncryption
        Issuer: CN=team7-net
        Validity
            Not Before: Nov  4 11:27:32 2023 GMT
            Not After : Oct 19 11:27:32 2026 GMT
        Subject: CN=team7-client
        Subject Public Key Info:
            Public Key Algorithm: rsaEncryption
                Public-Key: (2048 bit)
                Modulus:
                    00:bc:8f:a7:d0:4c:8d:07:2f:df:e6:56:02:84:22:
                    9a:8f:1a:6d:d0:9d:ff:bf:04:5b:22:1b:cd:7c:8a:
                    d8:c7:c9:e4:40:82:f4:5f:9c:8d:81:17:ea:66:5a:
                    b9:fa:9d:da:9d:b7:e5:e7:12:f9:14:81:b7:55:1e:
                    2c:d1:e9:96:f5:f3:1a:92:f4:b2:6c:51:ba:d5:48:
                    f7:8d:9b:d0:0a:2c:e3:9f:7a:2c:ef:28:da:5b:ab:
                    54:f3:27:19:ad:f7:74:06:29:4d:d3:07:cb:9d:df:
                    e0:af:f7:2f:76:9c:00:64:52:98:c5:e5:8a:43:44:
                    b6:16:60:eb:cb:b3:88:98:61:b7:b9:2f:d3:1f:50:
                    ec:b0:5c:2a:ca:fc:c5:8f:64:21:25:4e:94:33:1f:
                    41:4a:55:27:dc:75:a0:3e:00:a2:b5:0c:b7:8a:88:
                    48:d7:bc:d5:af:1e:a9:48:6c:07:55:81:bb:03:2e:
                    e9:98:81:d7:b6:f7:5e:b7:da:38:7e:60:5b:0a:c2:
                    df:af:75:99:5d:98:8c:50:e8:fb:9c:50:80:d6:69:
                    50:c7:47:92:ef:74:88:73:44:9d:38:eb:3b:ec:3d:
                    13:df:83:12:56:b9:9e:54:f1:08:b0:01:2b:b8:7f:
                    8c:a3:f2:79:f1:f4:a5:84:3d:df:7e:fd:18:0d:53:
                    68:c1
                Exponent: 65537 (0x10001)
        X509v3 extensions:
            X509v3 Basic Constraints: 
                CA:FALSE
            X509v3 Subject Key Identifier: 
                1E:BD:70:7B:5F:B9:91:3C:41:50:2C:EE:9C:82:CB:6F:38:13:F3:87
            X509v3 Authority Key Identifier: 
                keyid:1C:5E:6D:21:EA:E5:C7:D5:4A:56:A7:F4:D6:5E:8D:F5:23:C1:E6:DA
                DirName:/CN=team7-net
                serial:09:83:89:60:66:28:27:48:0B:C4:8B:C1:47:FB:8D:1C:7A:0C:B2:62
            X509v3 Extended Key Usage: 
                TLS Web Client Authentication
            X509v3 Key Usage: 
                Digital Signature
    Signature Algorithm: sha256WithRSAEncryption
    Signature Value:
        04:09:3c:ff:d9:02:5b:ab:60:34:ff:26:b7:a3:3b:b1:7f:c8:
        67:ef:07:b9:df:a3:4f:4c:d5:94:ef:25:f8:7e:75:69:ba:b9:
        6b:f5:29:86:7a:ac:fc:db:5e:78:29:e3:af:ac:ee:74:50:a8:
        a0:ac:44:67:ee:35:ba:24:fd:8d:d4:34:9d:79:48:4e:71:9c:
        d1:3b:9c:70:4f:26:da:28:56:82:33:8b:07:68:ac:74:11:59:
        0c:98:c6:6c:e2:59:89:2f:1c:86:0f:14:c9:75:15:4b:3c:39:
        27:4f:51:99:d8:09:3f:7d:33:68:3f:8f:54:13:78:7d:64:13:
        ca:fc:37:db:6f:c3:7a:54:76:2f:8e:d8:a8:2f:b3:f7:4f:f4:
        c5:c1:77:99:05:b0:04:31:7d:3f:81:17:f2:f1:14:89:32:2b:
        0a:1f:99:45:52:5f:22:66:b7:eb:c6:8b:95:69:f1:65:0d:df:
        ab:51:16:9a:c3:c9:a7:55:b6:14:69:1c:da:29:16:ca:00:3b:
        ea:49:5b:65:6f:02:c3:62:b0:01:6c:8d:1a:4a:27:e7:ff:7d:
        be:e3:73:64:47:4e:cb:aa:cd:21:4f:9b:fc:8e:2b:f4:55:9b:
        2f:76:fa:03:a7:af:23:7e:06:93:c2:aa:21:9c:fd:2d:03:44:
        d6:29:ce:f9
-----BEGIN CERTIFICATE-----
MIIDVzCCAj+gAwIBAgIRAKL7Uc0qm4nX3fgJ4cgTytgwDQYJKoZIhvcNAQELBQAw
FDESMBAGA1UEAwwJdGVhbTctbmV0MB4XDTIzMTEwNDExMjczMloXDTI2MTAxOTEx
MjczMlowFzEVMBMGA1UEAwwMdGVhbTctY2xpZW50MIIBIjANBgkqhkiG9w0BAQEF
AAOCAQ8AMIIBCgKCAQEAvI+n0EyNBy/f5lYChCKajxpt0J3/vwRbIhvNfIrYx8nk
QIL0X5yNgRfqZlq5+p3anbfl5xL5FIG3VR4s0emW9fMakvSybFG61Uj3jZvQCizj
n3os7yjaW6tU8ycZrfd0BilN0wfLnd/gr/cvdpwAZFKYxeWKQ0S2FmDry7OImGG3
uS/TH1DssFwqyvzFj2QhJU6UMx9BSlUn3HWgPgCitQy3iohI17zVrx6pSGwHVYG7
Ay7pmIHXtvdet9o4fmBbCsLfr3WZXZiMUOj7nFCA1mlQx0eS73SIc0SdOOs77D0T
34MSVrmeVPEIsAEruH+Mo/J58fSlhD3ffv0YDVNowQIDAQABo4GgMIGdMAkGA1Ud
EwQCMAAwHQYDVR0OBBYEFB69cHtfuZE8QVAs7pyCy284E/OHME8GA1UdIwRIMEaA
FBxebSHq5cfVSlan9NZejfUjwebaoRikFjAUMRIwEAYDVQQDDAl0ZWFtNy1uZXSC
FAmDiWBmKCdIC8SLwUf7jRx6DLJiMBMGA1UdJQQMMAoGCCsGAQUFBwMCMAsGA1Ud
DwQEAwIHgDANBgkqhkiG9w0BAQsFAAOCAQEABAk8/9kCW6tgNP8mt6M7sX/IZ+8H
ud+jT0zVlO8l+H51abq5a/Uphnqs/NteeCnjr6zudFCooKxEZ+41uiT9jdQ0nXlI
TnGc0TuccE8m2ihWgjOLB2isdBFZDJjGbOJZiS8chg8UyXUVSzw5J09RmdgJP30z
aD+PVBN4fWQTyvw322/DelR2L47YqC+z90/0xcF3mQWwBDF9P4EX8vEUiTIrCh+Z
RVJfIma368aLlWnxZQ3fq1EWmsPJp1W2FGkc2ikWygA76klbZW8Cw2KwAWyNGkon
5/99vuNzZEdOy6rNIU+b/I4r9FWbL3b6A6evI34Gk8KqIZz9LQNE1inO+Q==
-----END CERTIFICATE-----
