Certificate:
    Data:
        Version: 3 (0x2)
        Serial Number:
            c0:ac:a8:8f:b5:9b:1b:ca:c0:12:76:21:fb:66:71:19
        Signature Algorithm: sha256WithRSAEncryption
        Issuer: CN=team7-net
        Validity
            Not Before: Nov  4 10:40:20 2023 GMT
            Not After : Oct 19 10:40:20 2026 GMT
        Subject: CN=team7-server
        Subject Public Key Info:
            Public Key Algorithm: rsaEncryption
                Public-Key: (2048 bit)
                Modulus:
                    00:b3:c2:29:bb:d0:95:d7:63:95:61:1d:7f:24:8a:
                    9d:70:33:3f:4b:90:15:76:27:9e:65:da:ce:6d:0e:
                    64:6c:76:f4:fa:62:1a:80:03:eb:2b:3e:47:1e:a5:
                    bf:d3:58:74:c9:4d:ac:46:ec:2f:27:45:ea:21:c2:
                    8e:01:b1:70:10:b7:f3:3b:e6:f7:57:5a:d7:31:e2:
                    6a:44:47:f1:79:7b:56:04:12:81:d5:bb:9a:f4:f6:
                    20:d6:f9:6a:24:28:f8:e1:45:5a:8d:f7:50:92:30:
                    72:9b:80:e3:9a:28:84:cf:32:b9:be:ce:01:ae:bb:
                    86:d1:c8:19:d1:e4:b0:0d:3b:94:94:a6:5b:10:de:
                    2e:a2:4c:b8:14:79:34:c4:33:f3:2a:8c:bc:d8:75:
                    d2:46:1e:33:3c:06:68:c0:18:b4:1e:ff:61:18:7d:
                    c2:de:96:ab:98:c1:7f:ff:ec:09:24:ab:67:7a:9a:
                    28:8d:94:74:60:8c:35:8a:1c:02:0a:71:18:78:94:
                    d7:5c:30:dd:96:07:14:fa:a8:8e:c9:c0:77:04:39:
                    03:12:5b:6e:6e:80:2f:76:1f:11:f7:21:49:8e:12:
                    81:25:f2:20:73:ab:2a:e4:df:6e:fd:20:36:5c:9c:
                    38:7c:1e:03:fe:34:1f:00:c7:4b:9e:d3:1b:d7:74:
                    5b:61
                Exponent: 65537 (0x10001)
        X509v3 extensions:
            X509v3 Basic Constraints: 
                CA:FALSE
            X509v3 Subject Key Identifier: 
                E1:A3:6C:B8:5D:EF:07:41:C6:0D:62:A5:A6:01:65:5F:9B:5C:9C:79
            X509v3 Authority Key Identifier: 
                keyid:02:3E:AD:54:FC:CC:E2:D4:B8:8D:CF:0F:85:A8:DA:AD:76:3A:38:36
                DirName:/CN=team7-net
                serial:52:EB:62:CC:8E:80:B2:DD:F1:BC:8A:16:01:B7:25:1A:E8:B6:5A:05
            X509v3 Extended Key Usage: 
                TLS Web Server Authentication
            X509v3 Key Usage: 
                Digital Signature, Key Encipherment
            X509v3 Subject Alternative Name: 
                DNS:team7-server
    Signature Algorithm: sha256WithRSAEncryption
    Signature Value:
        af:ce:7c:ab:e7:66:74:cc:f0:d9:c5:24:8f:32:0d:ef:35:51:
        09:c2:f7:a6:7a:a4:eb:0b:80:5b:53:70:ce:c4:ab:8c:52:1c:
        d7:f3:2d:b6:a1:57:71:e0:9e:ca:e5:42:b7:4b:e9:c3:17:98:
        81:23:be:e6:35:4f:6c:d4:e4:97:6d:a5:4a:84:32:3f:19:81:
        b4:09:97:5b:f6:c9:f6:d8:32:9f:7e:75:db:58:ff:a5:38:47:
        80:1e:a3:6d:09:39:ab:3c:57:cf:50:4c:5c:c8:7a:23:c5:e8:
        b0:29:d3:7c:ff:10:40:46:49:d8:14:aa:a3:10:80:74:db:48:
        52:86:f2:c8:1c:7f:2a:63:89:0d:34:52:ab:4c:da:5c:83:cd:
        e4:f7:23:c4:00:6b:33:9c:10:50:5f:b7:c0:dc:86:e6:7e:09:
        7c:6a:cc:e7:70:03:08:26:f7:f9:eb:69:02:31:6b:39:36:8f:
        19:44:58:26:96:89:65:63:2f:40:cc:4f:2f:b5:34:cd:6f:63:
        32:dc:00:75:72:6e:e3:ab:ab:54:b2:15:ca:1a:61:95:ff:d5:
        13:53:22:ee:41:3b:53:1e:b5:05:4f:1a:d2:4b:91:f5:1f:e8:
        7f:ed:92:4d:de:f2:33:21:57:59:db:3b:69:49:43:53:e2:58:
        35:91:20:c4
-----BEGIN CERTIFICATE-----
MIIDcDCCAligAwIBAgIRAMCsqI+1mxvKwBJ2IftmcRkwDQYJKoZIhvcNAQELBQAw
FDESMBAGA1UEAwwJdGVhbTctbmV0MB4XDTIzMTEwNDEwNDAyMFoXDTI2MTAxOTEw
NDAyMFowFzEVMBMGA1UEAwwMdGVhbTctc2VydmVyMIIBIjANBgkqhkiG9w0BAQEF
AAOCAQ8AMIIBCgKCAQEAs8Ipu9CV12OVYR1/JIqdcDM/S5AVdieeZdrObQ5kbHb0
+mIagAPrKz5HHqW/01h0yU2sRuwvJ0XqIcKOAbFwELfzO+b3V1rXMeJqREfxeXtW
BBKB1bua9PYg1vlqJCj44UVajfdQkjBym4DjmiiEzzK5vs4BrruG0cgZ0eSwDTuU
lKZbEN4uoky4FHk0xDPzKoy82HXSRh4zPAZowBi0Hv9hGH3C3parmMF//+wJJKtn
epoojZR0YIw1ihwCCnEYeJTXXDDdlgcU+qiOycB3BDkDEltuboAvdh8R9yFJjhKB
JfIgc6sq5N9u/SA2XJw4fB4D/jQfAMdLntMb13RbYQIDAQABo4G5MIG2MAkGA1Ud
EwQCMAAwHQYDVR0OBBYEFOGjbLhd7wdBxg1ipaYBZV+bXJx5ME8GA1UdIwRIMEaA
FAI+rVT8zOLUuI3PD4Wo2q12Ojg2oRikFjAUMRIwEAYDVQQDDAl0ZWFtNy1uZXSC
FFLrYsyOgLLd8byKFgG3JRrotloFMBMGA1UdJQQMMAoGCCsGAQUFBwMBMAsGA1Ud
DwQEAwIFoDAXBgNVHREEEDAOggx0ZWFtNy1zZXJ2ZXIwDQYJKoZIhvcNAQELBQAD
ggEBAK/OfKvnZnTM8NnFJI8yDe81UQnC96Z6pOsLgFtTcM7Eq4xSHNfzLbahV3Hg
nsrlQrdL6cMXmIEjvuY1T2zU5JdtpUqEMj8ZgbQJl1v2yfbYMp9+ddtY/6U4R4Ae
o20JOas8V89QTFzIeiPF6LAp03z/EEBGSdgUqqMQgHTbSFKG8sgcfypjiQ00UqtM
2lyDzeT3I8QAazOcEFBft8DchuZ+CXxqzOdwAwgm9/nraQIxazk2jxlEWCaWiWVj
L0DMTy+1NM1vYzLcAHVybuOrq1SyFcoaYZX/1RNTIu5BO1MetQVPGtJLkfUf6H/t
kk3e8jMhV1nbO2lJQ1PiWDWRIMQ=
-----END CERTIFICATE-----
