Certificate:
    Data:
        Version: 3 (0x2)
        Serial Number:
            c1:8a:f8:a8:49:fb:ae:6d:2f:4c:f3:aa:74:48:be:af
        Signature Algorithm: sha256WithRSAEncryption
        Issuer: CN=team7-net
        Validity
            Not Before: Nov  3 20:39:24 2023 GMT
            Not After : Oct 18 20:39:24 2026 GMT
        Subject: CN=team7-client
        Subject Public Key Info:
            Public Key Algorithm: rsaEncryption
                Public-Key: (2048 bit)
                Modulus:
                    00:f7:58:55:82:4e:44:a4:a2:b3:38:52:81:9f:5c:
                    4a:c5:40:2b:b4:97:45:d6:b8:1b:b6:fa:ae:92:d0:
                    83:b5:31:d4:c6:36:66:01:ec:ee:a5:79:d7:b4:aa:
                    43:bf:77:cc:53:e2:b4:32:e0:23:78:6f:96:ea:f8:
                    41:52:30:d8:5f:8e:b9:d8:86:6a:1d:50:61:5b:64:
                    ce:ce:5a:75:c8:22:1c:2d:af:4d:53:58:9f:b6:08:
                    d9:23:b8:20:7a:03:c3:1d:0c:2b:cb:4c:0b:52:6c:
                    ce:73:77:33:c3:45:b4:e2:3d:5f:58:2a:b9:dc:92:
                    7f:83:6d:b1:a4:85:e8:69:d7:8c:d7:8a:74:a9:96:
                    d8:88:91:de:17:a9:b4:52:fd:cc:70:a3:21:1a:33:
                    c0:15:3e:81:fe:c1:25:57:b0:fd:f5:56:88:bd:1f:
                    cd:51:f9:82:a4:9a:72:dc:16:63:93:b9:a3:61:dd:
                    0e:8f:2c:85:18:b5:ae:bf:a9:e5:d2:15:01:3a:85:
                    8a:2c:c2:e0:d2:3e:6d:94:f5:0e:20:3b:17:96:90:
                    61:70:e6:eb:ab:b6:5b:f5:43:b7:bb:05:20:0e:6e:
                    93:da:57:c2:33:b2:c4:ad:56:95:00:bf:4a:69:56:
                    ad:8d:91:f3:da:45:17:95:06:4b:1d:de:ff:99:4e:
                    0b:75
                Exponent: 65537 (0x10001)
        X509v3 extensions:
            X509v3 Basic Constraints: 
                CA:FALSE
            X509v3 Subject Key Identifier: 
                29:E8:7F:7E:CC:4E:63:51:DD:65:43:A4:90:B5:8E:96:A3:9C:2A:ED
            X509v3 Authority Key Identifier: 
                keyid:40:2A:46:88:3E:57:5D:C1:18:70:80:7D:3F:CA:81:2A:58:92:8F:E7
                DirName:/CN=team7-net
                serial:3B:A2:2C:F9:37:21:93:A8:2A:2D:9D:9F:CE:37:24:37:DD:57:4D:B7
            X509v3 Extended Key Usage: 
                TLS Web Client Authentication
            X509v3 Key Usage: 
                Digital Signature
    Signature Algorithm: sha256WithRSAEncryption
    Signature Value:
        2d:6b:1e:d4:95:8d:42:f1:bc:26:65:c1:14:bb:26:8d:4b:d9:
        84:10:df:db:01:b4:81:02:13:99:32:6d:6d:1c:f7:91:a4:99:
        6c:71:2b:b8:35:38:58:98:d7:c2:bd:8a:0a:03:ab:8d:d8:8c:
        37:0a:1c:80:39:0b:ca:24:1d:12:07:b6:ff:f2:ed:22:54:5f:
        ac:47:23:4a:6a:a9:fc:a3:db:2d:48:2a:11:2e:da:4f:40:46:
        cb:9f:98:70:7b:67:81:ab:ae:12:9d:c4:13:3e:0f:e6:cb:55:
        13:f6:de:a8:77:c3:24:73:d3:1f:63:f0:be:52:f3:f8:eb:ca:
        a5:ab:24:3b:e3:5f:e0:48:80:01:00:24:10:db:c0:f9:81:48:
        25:9c:b6:13:34:c8:8d:2b:cc:a1:05:0e:24:1d:89:8b:d8:63:
        0c:8e:6d:2b:78:1d:12:0b:74:64:ba:40:68:28:11:de:4d:78:
        65:e8:32:39:3e:97:bf:f4:09:eb:d4:86:c0:8b:46:45:05:0b:
        ba:13:74:af:18:71:a3:b5:c5:90:60:bb:22:f4:81:77:f9:f5:
        d0:72:2d:d9:b9:9f:a5:fe:76:3c:75:1e:2a:1f:dc:03:c4:ea:
        e9:f3:74:68:ee:01:72:53:31:90:1b:a1:7d:58:1d:49:55:15:
        af:20:35:66
-----BEGIN CERTIFICATE-----
MIIDVzCCAj+gAwIBAgIRAMGK+KhJ+65tL0zzqnRIvq8wDQYJKoZIhvcNAQELBQAw
FDESMBAGA1UEAwwJdGVhbTctbmV0MB4XDTIzMTEwMzIwMzkyNFoXDTI2MTAxODIw
MzkyNFowFzEVMBMGA1UEAwwMdGVhbTctY2xpZW50MIIBIjANBgkqhkiG9w0BAQEF
AAOCAQ8AMIIBCgKCAQEA91hVgk5EpKKzOFKBn1xKxUArtJdF1rgbtvquktCDtTHU
xjZmAezupXnXtKpDv3fMU+K0MuAjeG+W6vhBUjDYX4652IZqHVBhW2TOzlp1yCIc
La9NU1iftgjZI7ggegPDHQwry0wLUmzOc3czw0W04j1fWCq53JJ/g22xpIXoadeM
14p0qZbYiJHeF6m0Uv3McKMhGjPAFT6B/sElV7D99VaIvR/NUfmCpJpy3BZjk7mj
Yd0OjyyFGLWuv6nl0hUBOoWKLMLg0j5tlPUOIDsXlpBhcObrq7Zb9UO3uwUgDm6T
2lfCM7LErVaVAL9KaVatjZHz2kUXlQZLHd7/mU4LdQIDAQABo4GgMIGdMAkGA1Ud
EwQCMAAwHQYDVR0OBBYEFCnof37MTmNR3WVDpJC1jpajnCrtME8GA1UdIwRIMEaA
FEAqRog+V13BGHCAfT/KgSpYko/noRikFjAUMRIwEAYDVQQDDAl0ZWFtNy1uZXSC
FDuiLPk3IZOoKi2dn843JDfdV023MBMGA1UdJQQMMAoGCCsGAQUFBwMCMAsGA1Ud
DwQEAwIHgDANBgkqhkiG9w0BAQsFAAOCAQEALWse1JWNQvG8JmXBFLsmjUvZhBDf
2wG0gQITmTJtbRz3kaSZbHEruDU4WJjXwr2KCgOrjdiMNwocgDkLyiQdEge2//Lt
IlRfrEcjSmqp/KPbLUgqES7aT0BGy5+YcHtngauuEp3EEz4P5stVE/beqHfDJHPT
H2PwvlLz+OvKpaskO+Nf4EiAAQAkENvA+YFIJZy2EzTIjSvMoQUOJB2Ji9hjDI5t
K3gdEgt0ZLpAaCgR3k14ZegyOT6Xv/QJ69SGwItGRQULuhN0rxhxo7XFkGC7IvSB
d/n10HIt2bmfpf52PHUeKh/cA8Tq6fN0aO4BclMxkBuhfVgdSVUVryA1Zg==
-----END CERTIFICATE-----
