Certificate:
    Data:
        Version: 3 (0x2)
        Serial Number:
            72:c5:a1:05:78:7a:5c:af:eb:4d:29:42:74:7d:31:5a
        Signature Algorithm: sha256WithRSAEncryption
        Issuer: CN=team33-net
        Validity
            Not Before: Nov  3 20:39:49 2023 GMT
            Not After : Oct 18 20:39:49 2026 GMT
        Subject: CN=team33-client
        Subject Public Key Info:
            Public Key Algorithm: rsaEncryption
                Public-Key: (2048 bit)
                Modulus:
                    00:b3:d6:6c:ed:bc:d1:08:df:c5:bc:eb:1b:55:7b:
                    0a:ac:92:36:19:57:66:6b:ea:8f:e4:9c:0c:78:6d:
                    1b:a9:80:83:f7:5e:40:47:03:9d:3e:15:33:12:d2:
                    59:64:a6:04:9d:64:b0:2b:21:d0:85:d2:62:2f:72:
                    14:33:87:5a:fe:9c:fd:7b:99:3d:45:ad:75:11:3a:
                    9a:96:f4:e2:0d:d1:ad:c4:44:2c:a0:bc:70:22:26:
                    96:be:d1:9a:2a:67:9a:82:59:b4:53:0d:97:c1:fa:
                    df:90:50:2b:87:e7:5e:e1:8f:27:c6:1d:2d:92:ec:
                    81:c9:86:fd:8f:4d:39:8a:cb:fe:1a:be:2e:bc:c9:
                    40:e8:1c:e1:06:ec:0e:52:ad:03:7a:7f:b0:de:33:
                    77:c1:c2:37:64:56:02:2a:dc:d4:a8:b8:48:37:c7:
                    c6:d4:a9:82:89:86:d9:df:0b:ea:d2:4d:0f:62:33:
                    3b:ed:00:b9:30:42:f4:1f:27:c2:4e:94:5f:88:7a:
                    f6:2e:17:4b:9c:c5:4c:53:d3:73:76:21:fb:c4:3f:
                    47:b7:10:cc:bf:76:ec:a2:c9:00:35:0f:8a:ad:e7:
                    7f:ca:02:d6:1d:5a:98:06:1e:b5:65:12:15:da:d9:
                    46:ed:4c:d7:a0:4f:e4:27:5c:c9:d0:ab:3e:b9:2f:
                    24:85
                Exponent: 65537 (0x10001)
        X509v3 extensions:
            X509v3 Basic Constraints: 
                CA:FALSE
            X509v3 Subject Key Identifier: 
                96:BA:D0:53:7A:43:D5:40:42:EF:CA:9F:5A:15:59:FF:F4:A8:43:2E
            X509v3 Authority Key Identifier: 
                keyid:0F:78:DC:CC:E6:7A:B3:90:A6:AB:7D:BF:4A:03:D3:23:71:94:8A:2B
                DirName:/CN=team33-net
                serial:26:7C:0D:17:30:04:57:F8:C3:D3:AF:34:86:07:23:E1:88:9C:3A:76
            X509v3 Extended Key Usage: 
                TLS Web Client Authentication
            X509v3 Key Usage: 
                Digital Signature
    Signature Algorithm: sha256WithRSAEncryption
    Signature Value:
        18:0f:f6:fb:7e:14:27:7f:e0:cd:4c:a3:36:84:60:87:1d:0d:
        63:73:a8:0b:f9:d5:48:81:30:5d:8b:95:bb:c5:04:c8:b7:75:
        4f:1e:96:2e:6c:45:27:20:7e:9b:ee:23:0d:63:7f:7a:db:33:
        20:a9:64:27:46:10:89:19:a0:4e:d2:d1:01:78:44:95:c1:51:
        f6:ec:7b:40:c8:7f:6c:3e:73:4a:da:59:78:a6:1e:6e:8c:fd:
        1e:a2:9a:9a:2b:82:59:d8:6e:26:e7:2a:7e:a7:e2:47:92:6d:
        65:79:2a:99:d6:6d:b5:dd:91:f0:57:1b:c3:fc:8f:42:aa:03:
        71:83:3e:d8:8c:6c:fb:9f:04:06:f7:b6:23:47:eb:a4:d1:dc:
        9f:16:3a:e7:f8:a7:a8:c0:ba:25:4f:1a:20:5d:bc:03:40:12:
        19:94:30:21:42:45:8b:51:fe:cf:92:9d:71:78:e0:db:68:6c:
        23:03:1a:9a:a2:4c:b5:26:90:06:12:e2:18:bb:30:8a:d9:63:
        82:e0:37:1d:ed:e5:62:9f:d9:a4:91:3c:b9:28:b8:b9:2c:eb:
        c9:a4:35:32:f2:db:a8:3e:51:5b:2a:4b:4c:3e:f1:ef:91:7c:
        a5:ec:d0:eb:2e:23:66:11:be:00:52:01:cb:5b:94:c3:25:8c:
        05:8a:a4:5a
-----BEGIN CERTIFICATE-----
MIIDWTCCAkGgAwIBAgIQcsWhBXh6XK/rTSlCdH0xWjANBgkqhkiG9w0BAQsFADAV
MRMwEQYDVQQDDAp0ZWFtMzMtbmV0MB4XDTIzMTEwMzIwMzk0OVoXDTI2MTAxODIw
Mzk0OVowGDEWMBQGA1UEAwwNdGVhbTMzLWNsaWVudDCCASIwDQYJKoZIhvcNAQEB
BQADggEPADCCAQoCggEBALPWbO280QjfxbzrG1V7CqySNhlXZmvqj+ScDHhtG6mA
g/deQEcDnT4VMxLSWWSmBJ1ksCsh0IXSYi9yFDOHWv6c/XuZPUWtdRE6mpb04g3R
rcRELKC8cCImlr7RmipnmoJZtFMNl8H635BQK4fnXuGPJ8YdLZLsgcmG/Y9NOYrL
/hq+LrzJQOgc4QbsDlKtA3p/sN4zd8HCN2RWAirc1Ki4SDfHxtSpgomG2d8L6tJN
D2IzO+0AuTBC9B8nwk6UX4h69i4XS5zFTFPTc3Yh+8Q/R7cQzL927KLJADUPiq3n
f8oC1h1amAYetWUSFdrZRu1M16BP5CdcydCrPrkvJIUCAwEAAaOBoTCBnjAJBgNV
HRMEAjAAMB0GA1UdDgQWBBSWutBTekPVQELvyp9aFVn/9KhDLjBQBgNVHSMESTBH
gBQPeNzM5nqzkKarfb9KA9MjcZSKK6EZpBcwFTETMBEGA1UEAwwKdGVhbTMzLW5l
dIIUJnwNFzAEV/jD0680hgcj4YicOnYwEwYDVR0lBAwwCgYIKwYBBQUHAwIwCwYD
VR0PBAQDAgeAMA0GCSqGSIb3DQEBCwUAA4IBAQAYD/b7fhQnf+DNTKM2hGCHHQ1j
c6gL+dVIgTBdi5W7xQTIt3VPHpYubEUnIH6b7iMNY3962zMgqWQnRhCJGaBO0tEB
eESVwVH27HtAyH9sPnNK2ll4ph5ujP0eopqaK4JZ2G4m5yp+p+JHkm1leSqZ1m21
3ZHwVxvD/I9CqgNxgz7YjGz7nwQG97YjR+uk0dyfFjrn+KeowLolTxogXbwDQBIZ
lDAhQkWLUf7Pkp1xeODbaGwjAxqaoky1JpAGEuIYuzCK2WOC4Dcd7eVin9mkkTy5
KLi5LOvJpDUy8tuoPlFbKktMPvHvkXyl7NDrLiNmEb4AUgHLW5TDJYwFiqRa
-----END CERTIFICATE-----
