Certificate:
    Data:
        Version: 3 (0x2)
        Serial Number:
            7b:6b:7c:83:97:c1:e5:4a:fb:83:03:7d:7c:a9:15:68
        Signature Algorithm: sha256WithRSAEncryption
        Issuer: CN=team475-net
        Validity
            Not Before: Nov  3 20:47:56 2023 GMT
            Not After : Oct 18 20:47:56 2026 GMT
        Subject: CN=team475-client
        Subject Public Key Info:
            Public Key Algorithm: rsaEncryption
                Public-Key: (2048 bit)
                Modulus:
                    00:a4:3a:71:f0:a6:b8:db:9d:16:7f:37:75:f8:1a:
                    3a:a8:b8:8f:10:ac:0e:50:e8:62:99:d8:3b:f1:1c:
                    26:9c:f9:15:bf:b7:2c:8b:d7:3c:17:98:f3:12:49:
                    0e:d4:c9:13:8c:f6:43:a1:f3:51:61:47:14:03:63:
                    bd:4d:d6:80:64:88:44:6a:5a:8c:5d:0e:15:bb:ce:
                    01:ab:6a:ae:41:4f:b0:5c:d4:fa:ab:79:48:e1:7e:
                    9c:69:e7:25:2d:a2:2f:4e:9e:cb:61:c0:6e:75:ab:
                    c7:e9:42:e0:7f:20:7c:41:62:09:5e:02:86:ae:00:
                    66:31:4b:86:cf:4e:7b:3c:73:cd:9f:c7:8a:23:d8:
                    32:6c:86:a4:d3:6c:f0:d5:57:2e:d6:ba:6a:19:70:
                    ae:a8:0d:5e:12:43:f0:71:d1:9d:1c:29:a8:ec:b8:
                    23:7b:62:3d:4a:25:c4:cb:82:15:0b:f0:fe:db:e2:
                    a1:78:67:c1:cd:4f:49:f4:bf:14:92:8a:f2:33:3c:
                    5a:1b:64:91:78:3e:88:dc:1b:06:e1:f7:f5:61:37:
                    66:2d:fe:f4:8a:9a:0d:a2:6d:c9:e0:3e:84:09:3c:
                    36:1e:00:48:a4:09:76:2d:95:42:35:8c:ea:8e:da:
                    03:a9:ae:92:d4:89:57:0a:1f:d6:5f:b2:d6:b5:dd:
                    d5:6b
                Exponent: 65537 (0x10001)
        X509v3 extensions:
            X509v3 Basic Constraints: 
                CA:FALSE
            X509v3 Subject Key Identifier: 
                CA:13:CB:31:16:44:A3:F5:A7:C9:48:1D:4D:D0:0F:5F:A5:6C:E6:D6
            X509v3 Authority Key Identifier: 
                keyid:CC:A5:81:74:DB:8A:09:52:EF:C6:AF:A3:BB:43:3B:D4:96:27:4E:EB
                DirName:/CN=team475-net
                serial:22:0E:7B:C5:D7:E2:8D:46:B5:24:AE:EE:FD:D8:73:5B:86:4F:C6:3A
            X509v3 Extended Key Usage: 
                TLS Web Client Authentication
            X509v3 Key Usage: 
                Digital Signature
    Signature Algorithm: sha256WithRSAEncryption
    Signature Value:
        6d:11:a6:a4:e3:32:75:27:ab:f3:75:f4:69:66:25:d9:97:b5:
        eb:38:39:e2:b3:85:9a:f2:cd:26:0a:cb:7f:dd:74:e5:5a:24:
        2c:f2:18:d8:96:2d:f9:96:ea:d8:4d:c9:8e:a6:69:bc:b5:21:
        03:47:24:fc:61:ce:ec:b6:b5:ad:df:97:17:90:23:e8:b0:8b:
        cf:2d:7e:72:6b:cd:f9:3b:52:21:f2:a7:1d:f8:da:16:2a:6c:
        31:54:62:4d:37:b5:08:b5:ee:38:6f:16:ae:57:50:6a:0f:40:
        90:9f:ba:a5:e3:37:11:16:38:c4:dc:5b:b6:95:04:87:89:3d:
        da:62:d6:c9:07:cc:81:a6:19:25:48:40:82:b5:c6:0a:0d:11:
        38:4f:8a:9d:ee:da:83:42:87:bc:2d:71:dd:fe:be:e9:43:72:
        d7:67:0b:07:20:e8:ed:9a:d5:9d:8c:3a:34:f0:55:0e:eb:51:
        e2:bf:55:de:8b:0c:80:72:ed:9c:77:6f:9b:cd:97:ee:b3:e6:
        1f:4d:50:c3:62:21:2c:4a:b7:86:28:e3:b8:b3:2c:fc:2b:68:
        1a:fc:94:73:a9:0b:97:45:ad:d5:19:aa:c0:68:63:36:e3:af:
        5e:ce:55:8f:4e:b3:5d:8b:b7:99:ec:cb:e8:2d:b2:29:1f:07:
        29:b9:8c:b6
-----BEGIN CERTIFICATE-----
MIIDXDCCAkSgAwIBAgIQe2t8g5fB5Ur7gwN9fKkVaDANBgkqhkiG9w0BAQsFADAW
MRQwEgYDVQQDDAt0ZWFtNDc1LW5ldDAeFw0yMzExMDMyMDQ3NTZaFw0yNjEwMTgy
MDQ3NTZaMBkxFzAVBgNVBAMMDnRlYW00NzUtY2xpZW50MIIBIjANBgkqhkiG9w0B
AQEFAAOCAQ8AMIIBCgKCAQEApDpx8Ka4250Wfzd1+Bo6qLiPEKwOUOhimdg78Rwm
nPkVv7csi9c8F5jzEkkO1MkTjPZDofNRYUcUA2O9TdaAZIhEalqMXQ4Vu84Bq2qu
QU+wXNT6q3lI4X6caeclLaIvTp7LYcBudavH6ULgfyB8QWIJXgKGrgBmMUuGz057
PHPNn8eKI9gybIak02zw1Vcu1rpqGXCuqA1eEkPwcdGdHCmo7Lgje2I9SiXEy4IV
C/D+2+KheGfBzU9J9L8UkoryMzxaG2SReD6I3BsG4ff1YTdmLf70ipoNom3J4D6E
CTw2HgBIpAl2LZVCNYzqjtoDqa6S1IlXCh/WX7LWtd3VawIDAQABo4GiMIGfMAkG
A1UdEwQCMAAwHQYDVR0OBBYEFMoTyzEWRKP1p8lIHU3QD1+lbObWMFEGA1UdIwRK
MEiAFMylgXTbiglS78avo7tDO9SWJ07roRqkGDAWMRQwEgYDVQQDDAt0ZWFtNDc1
LW5ldIIUIg57xdfijUa1JK7u/dhzW4ZPxjowEwYDVR0lBAwwCgYIKwYBBQUHAwIw
CwYDVR0PBAQDAgeAMA0GCSqGSIb3DQEBCwUAA4IBAQBtEaak4zJ1J6vzdfRpZiXZ
l7XrODnis4Wa8s0mCst/3XTlWiQs8hjYli35lurYTcmOpmm8tSEDRyT8Yc7strWt
35cXkCPosIvPLX5ya835O1Ih8qcd+NoWKmwxVGJNN7UIte44bxauV1BqD0CQn7ql
4zcRFjjE3Fu2lQSHiT3aYtbJB8yBphklSECCtcYKDRE4T4qd7tqDQoe8LXHd/r7p
Q3LXZwsHIOjtmtWdjDo08FUO61Hiv1XeiwyAcu2cd2+bzZfus+YfTVDDYiEsSreG
KOO4syz8K2ga/JRzqQuXRa3VGarAaGM2469ezlWPTrNdi7eZ7MvoLbIpHwcpuYy2
-----END CERTIFICATE-----
